; Listing generated by Microsoft (R) Optimizing Compiler Version 19.34.31937.0 

include listing.inc

INCLUDELIB MSVCRTD
INCLUDELIB OLDNAMES

PUBLIC	cckd_dasd_close_device
PUBLIC	cckd_read_track
PUBLIC	cckd_update_track
PUBLIC	cfba_read_block
PUBLIC	cfba_write_block
PUBLIC	cckd_dasd_device_hndinfo
PUBLIC	cfba_dasd_device_hndinfo
PUBLIC	gctab
PUBLIC	compname
PUBLIC	empty_l2
PUBLIC	empty64_l2
PUBLIC	cckd_dasd_start
PUBLIC	cckd_dasd_end
PUBLIC	cckd_used
PUBLIC	cfba_used
EXTRN	ckd_dasd_init_handler:PROC
EXTRN	ckd_dasd_execute_ccw:PROC
EXTRN	ckd_dasd_query_device:PROC
EXTRN	ckd_dasd_hsuspend:PROC
EXTRN	ckd_dasd_hresume:PROC
EXTRN	fba_dasd_init_handler:PROC
EXTRN	fba_dasd_execute_ccw:PROC
EXTRN	fba_dasd_query_device:PROC
EXTRN	fba_dasd_hsuspend:PROC
_DATA	SEGMENT
COMM	cckdblk:BYTE:0320H
_DATA	ENDS
_BSS	SEGMENT
empty_l2 DQ	0300H DUP (?)
empty64_l2 DB	03000H DUP (?)
_BSS	ENDS
_DATA	SEGMENT
cckd_dasd_device_hndinfo DQ FLAT:ckd_dasd_init_handler
	DQ	FLAT:ckd_dasd_execute_ccw
	DQ	FLAT:cckd_dasd_close_device
	DQ	FLAT:ckd_dasd_query_device
	DQ	0000000000000000H
	DQ	FLAT:cckd_dasd_start
	DQ	FLAT:cckd_dasd_end
	DQ	FLAT:cckd_dasd_start
	DQ	FLAT:cckd_dasd_end
	DQ	0000000000000000H
	DQ	FLAT:cckd_read_track
	DQ	FLAT:cckd_update_track
	DQ	FLAT:cckd_used
	DQ	0000000000000000H
	DQ	0000000000000000H
	DQ	0000000000000000H
	DQ	0000000000000000H
	DQ	0000000000000000H
	DQ	0000000000000000H
	DQ	0000000000000000H
	DQ	0000000000000000H
	DQ	0000000000000000H
	DQ	0000000000000000H
	DQ	FLAT:ckd_dasd_hsuspend
	DQ	FLAT:ckd_dasd_hresume
gctab	DD	01000H
	DD	0800H
	DD	0400H
	DD	0200H
	DD	0100H
	ORG $+4
cfba_dasd_device_hndinfo DQ FLAT:fba_dasd_init_handler
	DQ	FLAT:fba_dasd_execute_ccw
	DQ	FLAT:cckd_dasd_close_device
	DQ	FLAT:fba_dasd_query_device
	DQ	0000000000000000H
	DQ	FLAT:cckd_dasd_start
	DQ	FLAT:cckd_dasd_end
	DQ	FLAT:cckd_dasd_start
	DQ	FLAT:cckd_dasd_end
	DQ	0000000000000000H
	DQ	FLAT:cfba_read_block
	DQ	FLAT:cfba_write_block
	DQ	FLAT:cfba_used
	DQ	0000000000000000H
	DQ	0000000000000000H
	DQ	0000000000000000H
	DQ	0000000000000000H
	DQ	0000000000000000H
	DQ	0000000000000000H
	DQ	0000000000000000H
	DQ	0000000000000000H
	DQ	0000000000000000H
	DQ	0000000000000000H
	DQ	FLAT:fba_dasd_hsuspend
	DQ	FLAT:ckd_dasd_hresume
compname DQ	FLAT:$SG169496
	DQ	FLAT:$SG169497
	DQ	FLAT:$SG169498
$SG169496 DB	'none', 00H
	ORG $+3
$SG169497 DB	'zlib', 00H
	ORG $+3
$SG169498 DB	'bzip2', 00H
_DATA	ENDS
CONST	SEGMENT
CKD_ENDTRK DB	0ffH
	DB	0ffH
	DB	0ffH
	DB	0ffH
	DB	0ffH
	DB	0ffH
	DB	0ffH
	DB	0ffH
VOL1_KEYA DB	056H
	DB	04fH
	DB	04cH
	DB	031H
VOL1_KEY DB	0e5H
	DB	0d6H
	DB	0d3H
	DB	0f1H
IPL1_KEY DB	0c9H
	DB	0d7H
	DB	0d3H
	DB	0f1H
IPL2_KEY DB	0c9H
	DB	0d7H
	DB	0d3H
	DB	0f2H
iplpsw	DB	00H
	DB	00H
	DB	00H
	DB	00H
	DB	00H
	DB	00H
	DB	00H
	DB	00H
iplccw1	DB	06H
	DB	00H
	DB	03aH
	DB	098H
	DB	060H
	DB	00H
	DB	00H
	DB	060H
iplccw2	DB	08H
	DB	00H
	DB	03aH
	DB	098H
	DB	00H
	DB	00H
	DB	00H
	DB	00H
noiplpsw DB	00H
	DB	02H
	DB	00H
	DB	00H
	DB	00H
	DB	00H
	DB	00H
	DB	0fH
noiplccw1 DB	03H
	DB	00H
	DB	00H
	DB	00H
	DB	00H
	DB	00H
	DB	00H
	DB	01H
noiplccw2 DB	00H
	DB	00H
	DB	00H
	DB	00H
	DB	00H
	DB	00H
	DB	00H
	DB	00H
ipl2data DB	07H
	DB	00H
	DB	03aH
	DB	0b8H
	DB	040H
	DB	00H
	DB	00H
	DB	06H
	DB	031H
	DB	00H
	DB	03aH
	DB	0beH
	DB	040H
	DB	00H
	DB	00H
	DB	05H
	DB	08H
	DB	00H
	DB	03aH
	DB	0a0H
	DB	00H
	DB	00H
	DB	00H
	DB	00H
	DB	06H
	DB	00H
	DB	00H
	DB	00H
	DB	020H
	DB	00H
	DB	07fH
	DB	0ffH
	DB	00H
	DB	00H
	DB	00H
	DB	00H
	DB	00H
	DB	00H
	DB	00H
	DB	00H
	DB	00H
	DB	00H
	DB	04H
CONST	ENDS
PUBLIC	__local_stdio_scanf_options
PUBLIC	_vsscanf_l
PUBLIC	sscanf
PUBLIC	fetch_hw_noswap
PUBLIC	store_hw_noswap
PUBLIC	fetch_fw_noswap
PUBLIC	store_fw_noswap
PUBLIC	cckd_dasd_init_handler
PUBLIC	cckd_dasd_init
PUBLIC	cckd_dasd_term_if_appropriate
PUBLIC	cckd_open
PUBLIC	cckd_close
PUBLIC	cckd_read
PUBLIC	cckd_write
PUBLIC	cckd_ftruncate
PUBLIC	cckd_malloc
PUBLIC	cckd_calloc
PUBLIC	cckd_realloc
PUBLIC	cckd_free
PUBLIC	cckd_read_trk
PUBLIC	cckd_readahead
PUBLIC	cckd_readahead_scan
PUBLIC	cckd_ra
PUBLIC	cckd_flush_cache
PUBLIC	cckd_flush_cache_scan
PUBLIC	cckd_flush_cache_all
PUBLIC	cckd_purge_cache
PUBLIC	cckd_purge_cache_scan
PUBLIC	cckd_writer
PUBLIC	cckd_writer_scan
PUBLIC	cckd_writer_write
PUBLIC	cckd_get_space
PUBLIC	cckd_rel_space
PUBLIC	cckd_flush_space
PUBLIC	cckd_read_chdr
PUBLIC	cckd_write_chdr
PUBLIC	cckd_read_l1
PUBLIC	cckd_write_l1
PUBLIC	cckd_write_l1ent
PUBLIC	cckd_read_init
PUBLIC	cckd_read_fsp
PUBLIC	cckd_write_fsp
PUBLIC	cckd_read_l2
PUBLIC	cckd_purge_l2
PUBLIC	cckd_purge_l2_scan
PUBLIC	cckd_steal_l2
PUBLIC	cckd_steal_l2_scan
PUBLIC	cckd_write_l2
PUBLIC	cckd_read_l2ent
PUBLIC	cckd_write_l2ent
PUBLIC	cckd_read_trkimg
PUBLIC	cckd_write_trkimg
PUBLIC	cckd_harden
PUBLIC	cckd_trklen
PUBLIC	cckd_null_trk
PUBLIC	cckd_check_null_trk
PUBLIC	cckd_cchh
PUBLIC	cckd_validate
PUBLIC	cckd_sf_parse_sfn
PUBLIC	cckd_sf_name
PUBLIC	cckd_sf_init
PUBLIC	cckd_sf_new
PUBLIC	cckd_lock_devchain
PUBLIC	cckd_unlock_devchain
PUBLIC	cckd_gcstart
PUBLIC	cckd_gcol
PUBLIC	cckd_gcol_dev
PUBLIC	cckd_gc_state
PUBLIC	cckd_gc_rpt_state
PUBLIC	cckd_gc_percolate
PUBLIC	cckd_gc_l2
PUBLIC	cckd_find_device_by_devnum
PUBLIC	cckd_uncompress
PUBLIC	cckd_uncompress_zlib
PUBLIC	cckd_uncompress_bzip2
PUBLIC	cckd_compress
PUBLIC	cckd_compress_none
PUBLIC	cckd_compress_zlib
PUBLIC	cckd_compress_bzip2
PUBLIC	cckd_command
PUBLIC	cckd_command_help
PUBLIC	cckd_command_opts
PUBLIC	cckd_command_stats
PUBLIC	cckd_trace
PUBLIC	cckd_print_itrace
PUBLIC	cckd_dtax
PUBLIC	cckd_sf_add
PUBLIC	cckd_sf_remove
PUBLIC	cckd_sf_comp
PUBLIC	cckd_sf_chk
PUBLIC	cckd_sf_stats
PUBLIC	cckd_gc_rpt_states
EXTRN	__report_rangecheckfailure:PROC
EXTRN	__imp__errno:PROC
EXTRN	strchr:PROC
EXTRN	strrchr:PROC
EXTRN	strcmp:PROC
EXTRN	strlen:PROC
EXTRN	__imp_strdup:PROC
EXTRN	__imp_calloc:PROC
EXTRN	__imp_free:PROC
EXTRN	__imp_malloc:PROC
EXTRN	__imp_realloc:PROC
EXTRN	abs:PROC
EXTRN	_byteswap_ushort:PROC
EXTRN	_byteswap_ulong:PROC
EXTRN	__imp__chsize_s:PROC
EXTRN	__imp__commit:PROC
EXTRN	__imp__lseeki64:PROC
EXTRN	__imp_close:PROC
EXTRN	__imp_read:PROC
EXTRN	__imp_unlink:PROC
EXTRN	__imp_write:PROC
EXTRN	__imp___acrt_iob_func:PROC
EXTRN	__imp___stdio_common_vsscanf:PROC
EXTRN	__imp__ctime64:PROC
EXTRN	__imp__fstat64:PROC
EXTRN	__imp__stat64:PROC
EXTRN	__imp_fthread_self:PROC
EXTRN	__imp_hthread_initialize_lock:PROC
EXTRN	__imp_hthread_obtain_lock:PROC
EXTRN	__imp_hthread_release_lock:PROC
EXTRN	__imp_hthread_destroy_lock:PROC
EXTRN	__imp_hthread_initialize_condition:PROC
EXTRN	__imp_hthread_destroy_condition:PROC
EXTRN	__imp_hthread_signal_condition:PROC
EXTRN	__imp_hthread_broadcast_condition:PROC
EXTRN	__imp_hthread_wait_condition:PROC
EXTRN	__imp_hthread_timed_wait_condition:PROC
EXTRN	__imp_hthread_create_thread:PROC
EXTRN	__imp_hthread_set_thread_prio:PROC
EXTRN	__imp_hthread_get_thread_prio:PROC
EXTRN	__imp_hthread_set_lock_name:PROC
EXTRN	__imp_strlcpy:PROC
EXTRN	__imp_timed_wait_condition_relative_usecs_impl:PROC
EXTRN	__imp_trimloc:PROC
EXTRN	__imp_w32_strerror:PROC
EXTRN	__imp_gettimeofday:PROC
EXTRN	__imp_usleep:PROC
EXTRN	__imp_hostpath:PROC
EXTRN	__imp_get_file_accmode_flags:PROC
EXTRN	__imp_w32_vsnprintf:PROC
EXTRN	__imp_w32_snprintf:PROC
EXTRN	__imp_w32_hopen:PROC
EXTRN	cache_busy:PROC
EXTRN	cache_waiters:PROC
EXTRN	cache_busy_percent:PROC
EXTRN	cache_lookup:PROC
EXTRN	cache_scan:PROC
EXTRN	cache_lock:PROC
EXTRN	cache_unlock:PROC
EXTRN	cache_wait:PROC
EXTRN	cache_getkey:PROC
EXTRN	cache_setkey:PROC
EXTRN	cache_getflag:PROC
EXTRN	cache_setflag:PROC
EXTRN	cache_getage:PROC
EXTRN	cache_setage:PROC
EXTRN	cache_getbuf:PROC
EXTRN	cache_setbuf:PROC
EXTRN	cache_getlen:PROC
EXTRN	cache_getval:PROC
EXTRN	cache_setval:PROC
EXTRN	cache_release:PROC
EXTRN	shared_update_notify:PROC
EXTRN	ckd_build_sense:PROC
EXTRN	cckd64_dasd_close_device:PROC
EXTRN	cckd_swapend:PROC
EXTRN	cckd_swapend_chdr:PROC
EXTRN	cckd_swapend_l1:PROC
EXTRN	cckd_swapend_l2:PROC
EXTRN	cckd_def_opt_bigend:PROC
EXTRN	cckd_comp:PROC
EXTRN	cckd_chkdsk:PROC
EXTRN	__imp_fwritemsg:PROC
EXTRN	ckd_tracklen:PROC
EXTRN	dh_devid_typ:PROC
EXTRN	is_dh_devid_typ:PROC
EXTRN	cckd64_dasd_start:PROC
EXTRN	cckd64_dasd_end:PROC
EXTRN	cckd64_used:PROC
EXTRN	cfba64_used:PROC
EXTRN	cckd64_read_trk:PROC
EXTRN	cckd64_flush_cache:PROC
EXTRN	cckd64_purge_cache:PROC
EXTRN	cckd64_writer_write:PROC
EXTRN	cckd64_get_space:PROC
EXTRN	cckd64_rel_space:PROC
EXTRN	cckd64_flush_space:PROC
EXTRN	cckd64_read_chdr:PROC
EXTRN	cckd64_write_chdr:PROC
EXTRN	cckd64_read_l1:PROC
EXTRN	cckd64_write_l1:PROC
EXTRN	cckd64_write_l1ent:PROC
EXTRN	cckd64_read_init:PROC
EXTRN	cckd64_read_fsp:PROC
EXTRN	cckd64_write_fsp:PROC
EXTRN	cckd64_read_l2:PROC
EXTRN	cckd64_purge_l2:PROC
EXTRN	cckd64_steal_l2:PROC
EXTRN	cckd64_write_l2:PROC
EXTRN	cckd64_read_l2ent:PROC
EXTRN	cckd64_write_l2ent:PROC
EXTRN	cckd64_write_trkimg:PROC
EXTRN	cckd64_harden:PROC
EXTRN	cckd64_null_trk:PROC
EXTRN	cckd64_check_null_trk:PROC
EXTRN	cckd64_sf_init:PROC
EXTRN	cckd64_sf_new:PROC
EXTRN	cckd64_gcstart:PROC
EXTRN	cckd64_gcol_dev:PROC
EXTRN	cckd64_gc_state:PROC
EXTRN	cckd64_gc_rpt_state:PROC
EXTRN	cckd64_gc_percolate:PROC
EXTRN	cckd64_sf_remove:PROC
EXTRN	cckd64_sf_comp:PROC
EXTRN	cckd64_sf_chk:PROC
EXTRN	cckd64_sf_stats:PROC
EXTRN	__GSHandlerCheck:PROC
EXTRN	__chkstk:PROC
EXTRN	__security_check_cookie:PROC
EXTRN	memcmp:PROC
EXTRN	ckd_dasd_device_hndinfo:BYTE
EXTRN	fba_dasd_device_hndinfo:BYTE
EXTRN	__imp_sysblk:BYTE
EXTRN	__security_cookie:QWORD
_DATA	SEGMENT
COMM	?_OptionsStorage@?1??__local_stdio_scanf_options@@9@9:QWORD							; `__local_stdio_scanf_options'::`2'::_OptionsStorage
_DATA	ENDS
_BSS	SEGMENT
$SG169694 DB	01H DUP (?)
	ALIGN	4

$SG171123 DB	01H DUP (?)
	ALIGN	4

$SG171591 DB	01H DUP (?)
	ALIGN	4

$SG171596 DB	01H DUP (?)
	ALIGN	4

$SG171607 DB	01H DUP (?)
	ALIGN	4

$SG171907 DB	01H DUP (?)
	ALIGN	4

$SG171930 DB	01H DUP (?)
	ALIGN	4

$SG171943 DB	01H DUP (?)
	ALIGN	4

$SG171950 DB	01H DUP (?)
	ALIGN	4

$SG171996 DB	01H DUP (?)
	ALIGN	4

$SG172373 DB	01H DUP (?)
	ALIGN	4

$SG172379 DB	01H DUP (?)
	ALIGN	4

$SG172385 DB	01H DUP (?)
	ALIGN	4

$SG172572 DB	01H DUP (?)
	ALIGN	4

$SG172618 DB	01H DUP (?)
	ALIGN	4

$SG172647 DB	01H DUP (?)
	ALIGN	4

$SG172845 DB	01H DUP (?)
	ALIGN	4

$SG172853 DB	01H DUP (?)
_BSS	ENDS
;	COMDAT pdata
pdata	SEGMENT
$pdata$_vsscanf_l DD imagerel $LN3
	DD	imagerel $LN3+80
	DD	imagerel $unwind$_vsscanf_l
pdata	ENDS
;	COMDAT pdata
pdata	SEGMENT
$pdata$sscanf DD imagerel $LN3
	DD	imagerel $LN3+79
	DD	imagerel $unwind$sscanf
pdata	ENDS
pdata	SEGMENT
$pdata$ctime DD	imagerel ctime
	DD	imagerel ctime+25
	DD	imagerel $unwind$ctime
$pdata$strcaseabbrev DD imagerel strcaseabbrev
	DD	imagerel strcaseabbrev+320
	DD	imagerel $unwind$strcaseabbrev
pdata	ENDS
;	COMDAT pdata
pdata	SEGMENT
$pdata$fetch_hw_noswap DD imagerel $LN3
	DD	imagerel $LN3+30
	DD	imagerel $unwind$fetch_hw_noswap
pdata	ENDS
;	COMDAT pdata
pdata	SEGMENT
$pdata$fetch_fw_noswap DD imagerel $LN3
	DD	imagerel $LN3+27
	DD	imagerel $unwind$fetch_fw_noswap
pdata	ENDS
pdata	SEGMENT
$pdata$cckd_dasd_init_handler DD imagerel $LN40
	DD	imagerel $LN40+1435
	DD	imagerel $unwind$cckd_dasd_init_handler
$pdata$cckd_dasd_close_device DD imagerel $LN32
	DD	imagerel $LN32+1695
	DD	imagerel $unwind$cckd_dasd_close_device
$pdata$cckd_read_track DD imagerel $LN12
	DD	imagerel $LN12+1180
	DD	imagerel $unwind$cckd_read_track
$pdata$cckd_update_track DD imagerel $LN10
	DD	imagerel $LN10+640
	DD	imagerel $unwind$cckd_update_track
$pdata$cfba_read_block DD imagerel $LN11
	DD	imagerel $LN11+1025
	DD	imagerel $unwind$cfba_read_block
$pdata$cfba_write_block DD imagerel $LN10
	DD	imagerel $LN10+385
	DD	imagerel $unwind$cfba_write_block
$pdata$cckd_dasd_init DD imagerel $LN19
	DD	imagerel $LN19+974
	DD	imagerel $unwind$cckd_dasd_init
$pdata$cckd_dasd_term_if_appropriate DD imagerel $LN10
	DD	imagerel $LN10+408
	DD	imagerel $unwind$cckd_dasd_term_if_appropriate
$pdata$cckd_dasd_start DD imagerel $LN17
	DD	imagerel $LN17+848
	DD	imagerel $unwind$cckd_dasd_start
$pdata$cckd_dasd_end DD imagerel $LN10
	DD	imagerel $LN10+468
	DD	imagerel $unwind$cckd_dasd_end
$pdata$cckd_open DD imagerel $LN18
	DD	imagerel $LN18+1028
	DD	imagerel $unwind$cckd_open
$pdata$cckd_close DD imagerel $LN10
	DD	imagerel $LN10+546
	DD	imagerel $unwind$cckd_close
$pdata$cckd_read DD imagerel $LN19
	DD	imagerel $LN19+1219
	DD	imagerel $unwind$cckd_read
$pdata$cckd_write DD imagerel $LN19
	DD	imagerel $LN19+1227
	DD	imagerel $unwind$cckd_write
$pdata$cckd_ftruncate DD imagerel $LN8
	DD	imagerel $LN8+460
	DD	imagerel $unwind$cckd_ftruncate
$pdata$cckd_malloc DD imagerel $LN9
	DD	imagerel $LN9+430
	DD	imagerel $unwind$cckd_malloc
$pdata$cckd_calloc DD imagerel $LN9
	DD	imagerel $LN9+482
	DD	imagerel $unwind$cckd_calloc
$pdata$cckd_realloc DD imagerel $LN9
	DD	imagerel $LN9+457
	DD	imagerel $unwind$cckd_realloc
$pdata$cckd_free DD imagerel $LN4
	DD	imagerel $LN4+94
	DD	imagerel $unwind$cckd_free
$pdata$cckd_used DD imagerel $LN15
	DD	imagerel $LN15+370
	DD	imagerel $unwind$cckd_used
$pdata$cfba_used DD imagerel $LN15
	DD	imagerel $LN15+359
	DD	imagerel $unwind$cfba_used
$pdata$cckd_read_trk DD imagerel $LN35
	DD	imagerel $LN35+3065
	DD	imagerel $unwind$cckd_read_trk
$pdata$cckd_readahead DD imagerel $LN24
	DD	imagerel $LN24+1209
	DD	imagerel $unwind$cckd_readahead
$pdata$cckd_readahead_scan DD imagerel $LN14
	DD	imagerel $LN14+208
	DD	imagerel $unwind$cckd_readahead_scan
$pdata$cckd_ra DD imagerel $LN35
	DD	imagerel $LN35+1997
	DD	imagerel $unwind$cckd_ra
$pdata$cckd_flush_cache DD imagerel $LN11
	DD	imagerel $LN11+620
	DD	imagerel $unwind$cckd_flush_cache
$pdata$cckd_flush_cache_scan DD imagerel $LN10
	DD	imagerel $LN10+310
	DD	imagerel $unwind$cckd_flush_cache_scan
$pdata$cckd_flush_cache_all DD imagerel $LN7
	DD	imagerel $LN7+183
	DD	imagerel $unwind$cckd_flush_cache_all
$pdata$cckd_purge_cache DD imagerel $LN4
	DD	imagerel $LN4+80
	DD	imagerel $unwind$cckd_purge_cache
$pdata$cckd_purge_cache_scan DD imagerel $LN10
	DD	imagerel $LN10+189
	DD	imagerel $unwind$cckd_purge_cache_scan
$pdata$cckd_writer DD imagerel $LN32
	DD	imagerel $LN32+1823
	DD	imagerel $unwind$cckd_writer
$pdata$cckd_writer_scan DD imagerel $LN8
	DD	imagerel $LN8+156
	DD	imagerel $unwind$cckd_writer_scan
$pdata$cckd_writer_write DD imagerel $LN28
	DD	imagerel $LN28+2215
	DD	imagerel $unwind$cckd_writer_write
$pdata$cckd_get_space DD imagerel $LN34
	DD	imagerel $LN34+2256
	DD	imagerel $unwind$cckd_get_space
$pdata$cckd_rel_space DD imagerel $LN27
	DD	imagerel $LN27+1656
	DD	imagerel $unwind$cckd_rel_space
$pdata$cckd_flush_space DD imagerel $LN25
	DD	imagerel $LN25+2131
	DD	imagerel $unwind$cckd_flush_space
$pdata$cckd_read_chdr DD imagerel $LN12
	DD	imagerel $LN12+629
	DD	imagerel $unwind$cckd_read_chdr
$pdata$cckd_write_chdr DD imagerel $LN5
	DD	imagerel $LN5+299
	DD	imagerel $unwind$cckd_write_chdr
$pdata$cckd_read_l1 DD imagerel $LN18
	DD	imagerel $LN18+881
	DD	imagerel $unwind$cckd_read_l1
$pdata$cckd_write_l1 DD imagerel $LN5
	DD	imagerel $LN5+225
	DD	imagerel $unwind$cckd_write_l1
$pdata$cckd_write_l1ent DD imagerel $LN5
	DD	imagerel $LN5+230
	DD	imagerel $unwind$cckd_write_l1ent
$pdata$cckd_read_init DD imagerel $LN18
	DD	imagerel $LN18+674
	DD	imagerel $unwind$cckd_read_init
$pdata$cckd_read_fsp DD imagerel $LN29
	DD	imagerel $LN29+1711
	DD	imagerel $unwind$cckd_read_fsp
$pdata$cckd_write_fsp DD imagerel $LN30
	DD	imagerel $LN30+1355
	DD	imagerel $unwind$cckd_write_fsp
$pdata$cckd_read_l2 DD imagerel $LN19
	DD	imagerel $LN19+1621
	DD	imagerel $unwind$cckd_read_l2
$pdata$cckd_purge_l2 DD imagerel $LN4
	DD	imagerel $LN4+199
	DD	imagerel $unwind$cckd_purge_l2
$pdata$cckd_purge_l2_scan DD imagerel $LN11
	DD	imagerel $LN11+259
	DD	imagerel $unwind$cckd_purge_l2_scan
$pdata$cckd_steal_l2 DD imagerel $LN7
	DD	imagerel $LN7+253
	DD	imagerel $unwind$cckd_steal_l2
$pdata$cckd_steal_l2_scan DD imagerel $LN9
	DD	imagerel $LN9+114
	DD	imagerel $unwind$cckd_steal_l2_scan
$pdata$cckd_write_l2 DD imagerel $LN13
	DD	imagerel $LN13+592
	DD	imagerel $unwind$cckd_write_l2
$pdata$cckd_read_l2ent DD imagerel $LN18
	DD	imagerel $LN18+740
	DD	imagerel $unwind$cckd_read_l2ent
$pdata$cckd_write_l2ent DD imagerel $LN9
	DD	imagerel $LN9+524
	DD	imagerel $unwind$cckd_write_l2ent
$pdata$cckd_read_trkimg DD imagerel $LN10
	DD	imagerel $LN10+461
	DD	imagerel $unwind$cckd_read_trkimg
$pdata$cckd_write_trkimg DD imagerel $LN12
	DD	imagerel $LN12+1184
	DD	imagerel $unwind$cckd_write_trkimg
$pdata$cckd_harden DD imagerel $LN12
	DD	imagerel $LN12+371
	DD	imagerel $unwind$cckd_harden
$pdata$cckd_trklen DD imagerel $LN10
	DD	imagerel $LN10+544
	DD	imagerel $unwind$cckd_trklen
$pdata$cckd_null_trk DD imagerel $LN18
	DD	imagerel $LN18+1171
	DD	imagerel $unwind$cckd_null_trk
$pdata$cckd_check_null_trk DD imagerel $LN11
	DD	imagerel $LN11+367
	DD	imagerel $unwind$cckd_check_null_trk
$pdata$cckd_cchh DD imagerel $LN44
	DD	imagerel $LN44+2775
	DD	imagerel $unwind$cckd_cchh
$pdata$cckd_validate DD imagerel $LN23
	DD	imagerel $LN23+1661
	DD	imagerel $unwind$cckd_validate
$pdata$cckd_sf_parse_sfn DD imagerel $LN8
	DD	imagerel $LN8+381
	DD	imagerel $unwind$cckd_sf_parse_sfn
$pdata$cckd_sf_init DD imagerel $LN46
	DD	imagerel $LN46+1948
	DD	imagerel $unwind$cckd_sf_init
$pdata$cckd_sf_new DD imagerel $LN21
	DD	imagerel $LN21+1665
	DD	imagerel $unwind$cckd_sf_new
$pdata$cckd_lock_devchain DD imagerel $LN9
	DD	imagerel $LN9+179
	DD	imagerel $unwind$cckd_lock_devchain
$pdata$cckd_unlock_devchain DD imagerel $LN6
	DD	imagerel $LN6+126
	DD	imagerel $unwind$cckd_unlock_devchain
$pdata$cckd_gcstart DD imagerel $LN13
	DD	imagerel $LN13+790
	DD	imagerel $unwind$cckd_gcstart
$pdata$cckd_gcol DD imagerel $LN26
	DD	imagerel $LN26+1476
	DD	imagerel $unwind$cckd_gcol
$pdata$cckd_gcol_dev DD imagerel $LN20
	DD	imagerel $LN20+1090
	DD	imagerel $unwind$cckd_gcol_dev
$pdata$cckd_gc_state DD imagerel $LN15
	DD	imagerel $LN15+452
	DD	imagerel $unwind$cckd_gc_state
$pdata$cckd_gc_rpt_state DD imagerel $LN24
	DD	imagerel $LN24+879
	DD	imagerel $unwind$cckd_gc_rpt_state
$pdata$cckd_gc_percolate DD imagerel $LN95
	DD	imagerel $LN95+5213
	DD	imagerel $unwind$cckd_gc_percolate
$pdata$cckd_find_device_by_devnum DD imagerel $LN7
	DD	imagerel $LN7+105
	DD	imagerel $unwind$cckd_find_device_by_devnum
$pdata$cckd_uncompress DD imagerel $LN27
	DD	imagerel $LN27+2017
	DD	imagerel $unwind$cckd_uncompress
$pdata$cckd_compress DD imagerel $LN9
	DD	imagerel $LN9+218
	DD	imagerel $unwind$cckd_compress
$pdata$cckd_compress_zlib DD imagerel $LN3
	DD	imagerel $LN3+62
	DD	imagerel $unwind$cckd_compress_zlib
$pdata$cckd_compress_bzip2 DD imagerel $LN3
	DD	imagerel $LN3+62
	DD	imagerel $unwind$cckd_compress_bzip2
$pdata$cckd_command DD imagerel $LN129
	DD	imagerel $LN129+4673
	DD	imagerel $unwind$cckd_command
$pdata$cckd_command_help DD imagerel $LN6
	DD	imagerel $LN6+534
	DD	imagerel $unwind$cckd_command_help
$pdata$cckd_command_opts DD imagerel $LN5
	DD	imagerel $LN5+465
	DD	imagerel $unwind$cckd_command_opts
$pdata$cckd_command_stats DD imagerel $LN3
	DD	imagerel $LN3+1140
	DD	imagerel $unwind$cckd_command_stats
$pdata$cckd_trace DD imagerel $LN21
	DD	imagerel $LN21+876
	DD	imagerel $unwind$cckd_trace
$pdata$cckd_print_itrace DD imagerel $LN10
	DD	imagerel $LN10+425
	DD	imagerel $unwind$cckd_print_itrace
$pdata$cckd_dtax DD imagerel $LN7
	DD	imagerel $LN7+70
	DD	imagerel $unwind$cckd_dtax
$pdata$cckd_sf_add DD imagerel $LN38
	DD	imagerel $LN38+1866
	DD	imagerel $unwind$cckd_sf_add
$pdata$cckd_sf_remove DD imagerel $LN111
	DD	imagerel $LN111+6532
	DD	imagerel $unwind$cckd_sf_remove
$pdata$cckd_sf_comp DD imagerel $LN27
	DD	imagerel $LN27+1341
	DD	imagerel $unwind$cckd_sf_comp
$pdata$cckd_sf_chk DD imagerel $LN27
	DD	imagerel $LN27+1436
	DD	imagerel $unwind$cckd_sf_chk
$pdata$cckd_sf_stats DD imagerel $LN80
	DD	imagerel $LN80+4347
	DD	imagerel $unwind$cckd_sf_stats
$pdata$cckd_gc_rpt_states DD imagerel $LN7
	DD	imagerel $LN7+122
	DD	imagerel $unwind$cckd_gc_rpt_states
$pdata$cckd_gc_perc_error DD imagerel cckd_gc_perc_error
	DD	imagerel cckd_gc_perc_error+92
	DD	imagerel $unwind$cckd_gc_perc_error
$pdata$cckd_gc_perc_space_error DD imagerel cckd_gc_perc_space_error
	DD	imagerel cckd_gc_perc_space_error+714
	DD	imagerel $unwind$cckd_gc_perc_space_error
pdata	ENDS
_DATA	SEGMENT
	ORG $+2
$SG169523 DB	'CCKDBLK ', 00H
	ORG $+3
$SG169595 DB	'ext', 00H
$SG169524 DB	'CCKDBLK ', 00H
	ORG $+3
$SG169609 DB	'E', 00H
	ORG $+2
$SG169525 DB	'cckddasd.c:70', 00H
	ORG $+2
$SG169526 DB	'&cckdblk.gclock', 00H
$SG169527 DB	'cckddasd.c:71', 00H
	ORG $+2
$SG169528 DB	'&cckdblk.ralock', 00H
$SG169529 DB	'cckddasd.c:72', 00H
	ORG $+2
$SG169530 DB	'&cckdblk.wrlock', 00H
$SG169531 DB	'cckddasd.c:73', 00H
	ORG $+2
$SG169532 DB	'&cckdblk.devlock', 00H
	ORG $+3
$SG169656 DB	'W', 00H
	ORG $+2
$SG169533 DB	'cckddasd.c:74', 00H
	ORG $+2
$SG169534 DB	'&cckdblk.trclock', 00H
	ORG $+3
$SG169662 DB	'newbuf', 00H
	ORG $+1
$SG169667 DB	'l1', 00H
	ORG $+1
$SG169535 DB	'cckddasd.c:76', 00H
	ORG $+2
$SG169536 DB	'cckddasd.c:77', 00H
	ORG $+2
$SG169537 DB	'cckddasd.c:78', 00H
	ORG $+2
$SG169538 DB	'cckddasd.c:79', 00H
	ORG $+2
$SG169539 DB	'cckddasd.c:80', 00H
	ORG $+2
$SG169547 DB	'cckddasd.c:150', 00H
	ORG $+1
$SG169549 DB	'cckddasd.c:155', 00H
	ORG $+1
$SG169550 DB	'cckddasd.c:160', 00H
	ORG $+1
$SG169551 DB	'cckddasd.c:163', 00H
	ORG $+1
$SG169552 DB	'cckddasd.c:168', 00H
	ORG $+1
$SG169553 DB	'cckddasd.c:169', 00H
	ORG $+1
$SG169554 DB	'cckddasd.c:172', 00H
	ORG $+1
$SG169555 DB	'cckddasd.c:175', 00H
	ORG $+1
$SG169556 DB	'cckddasd.c:180', 00H
	ORG $+1
$SG169557 DB	'cckddasd.c:181', 00H
	ORG $+1
$SG169558 DB	'cckddasd.c:184', 00H
	ORG $+1
$SG169559 DB	'cckddasd.c:187', 00H
	ORG $+1
$SG169560 DB	'cckddasd.c:192', 00H
	ORG $+1
$SG169561 DB	'cckddasd.c:193', 00H
	ORG $+1
$SG169562 DB	'cckddasd.c:196', 00H
	ORG $+1
$SG169594 DB	'CCKDBLK ', 00H
	ORG $+3
$SG169674 DB	'ext', 00H
$SG169597 DB	'cckddasd.c:225', 00H
	ORG $+1
$SG169598 DB	'&cckd->cckdiolock', 00H
	ORG $+2
$SG169738 DB	'open()', 00H
	ORG $+1
$SG169739 DB	'E', 00H
	ORG $+2
$SG169599 DB	'&cckd->cckdiolock %1d:%04X', 00H
	ORG $+1
$SG169759 DB	'E', 00H
	ORG $+2
$SG169600 DB	'cckddasd.c:229', 00H
	ORG $+1
$SG169601 DB	'&cckd->filelock', 00H
$SG169602 DB	'&cckd->filelock %1d:%04X', 00H
	ORG $+3
$SG169783 DB	'E', 00H
	ORG $+2
$SG169603 DB	'cckddasd.c:233', 00H
	ORG $+1
$SG169604 DB	'cckddasd.c:236', 00H
	ORG $+1
$SG169610 DB	'HHC00300%s %1d:%04X CCKD file: error initializing shadow'
	DB	' files', 0aH, 00H
$SG169611 DB	'cckd_dasd_init_handler', 00H
	ORG $+1
$SG169612 DB	'cckddasd.c', 00H
	ORG $+1
$SG169791 DB	'E', 00H
	ORG $+2
$SG169615 DB	'cckddasd.c:272', 00H
	ORG $+1
$SG169644 DB	'cckddasd.c:308', 00H
	ORG $+1
$SG169645 DB	'cckddasd.c:312', 00H
	ORG $+1
$SG169646 DB	'cckddasd.c:314', 00H
	ORG $+1
$SG169647 DB	'cckddasd.c:316', 00H
	ORG $+1
$SG169648 DB	'cckddasd.c:319', 00H
	ORG $+1
$SG169650 DB	'cckddasd.c:327', 00H
	ORG $+1
$SG169654 DB	'closing device while wrpending=%d cckdioact=%d', 00H
	ORG $+1
$SG169655 DB	'cckd_dasd_close_device', 00H
	ORG $+1
$SG169657 DB	'HHC00381%s %1d:%04X CCKD file %s: closing device while w'
	DB	'rpending=%d cckdioact=%d', 0aH, 00H
	ORG $+2
$SG169790 DB	'read()', 00H
	ORG $+1
$SG169797 DB	'E', 00H
	ORG $+2
$SG169658 DB	'cckd_dasd_close_device', 00H
	ORG $+1
$SG169659 DB	'cckddasd.c', 00H
	ORG $+1
$SG169820 DB	'E', 00H
	ORG $+2
$SG169660 DB	'cckddasd.c:347', 00H
	ORG $+1
$SG169663 DB	'cckddasd.c:355', 00H
	ORG $+1
$SG169666 DB	'cckddasd.c:373', 00H
	ORG $+1
$SG169671 DB	'cckddasd.c:398', 00H
	ORG $+1
$SG169672 DB	'cckddasd.c:401', 00H
	ORG $+1
$SG169673 DB	'cckddasd.c:402', 00H
	ORG $+1
$SG169690 DB	'start i/o file[%d] bufcur %d cache[%d]', 00H
	ORG $+1
$SG169691 DB	'cckd_dasd_start', 00H
$SG169692 DB	'cckddasd.c:448', 00H
	ORG $+1
$SG169695 DB	'start i/o waiting for merge%s', 00H
	ORG $+2
$SG169696 DB	'cckd_dasd_start', 00H
$SG169697 DB	'cckddasd.c:455', 00H
	ORG $+1
$SG169703 DB	'cckddasd.c:480', 00H
	ORG $+1
$SG169704 DB	'cckddasd.c:488', 00H
	ORG $+1
$SG169711 DB	'end i/o bufcur %d cache[%d] waiters %d', 00H
	ORG $+1
$SG169712 DB	'cckd_dasd_end', 00H
	ORG $+2
$SG169713 DB	'cckddasd.c:521', 00H
	ORG $+1
$SG169719 DB	'cckddasd.c:537', 00H
	ORG $+1
$SG169720 DB	'cckddasd.c:539', 00H
	ORG $+1
$SG169743 DB	'file[%d] fd[%d] open %s error flags %8.8x mode %8.8x', 00H
	ORG $+3
$SG169740 DB	'HHC00301%s %1d:%04X CCKD file[%d] %s: error in function '
	DB	'%s: %s', 0aH, 00H
$SG169741 DB	'cckd_open', 00H
	ORG $+2
$SG169796 DB	'read()', 00H
	ORG $+1
$SG169828 DB	'E', 00H
	ORG $+2
$SG169742 DB	'cckddasd.c', 00H
	ORG $+1
$SG169834 DB	'E', 00H
	ORG $+2
$SG169744 DB	'cckd_open', 00H
	ORG $+2
$SG169850 DB	'E', 00H
	ORG $+2
$SG169745 DB	'file[%d] fd[%d] open %s, flags %8.8x mode %8.8x', 00H
$SG169746 DB	'cckd_open', 00H
	ORG $+2
$SG169871 DB	'E', 00H
	ORG $+2
$SG169754 DB	'file[%d] fd[%d] close %s', 00H
	ORG $+3
$SG169895 DB	'E', 00H
	ORG $+2
$SG169755 DB	'cckd_close', 00H
	ORG $+1
$SG169918 DB	'E', 00H
	ORG $+2
$SG169758 DB	'close()', 00H
$SG169760 DB	'HHC00301%s %1d:%04X CCKD file[%d] %s: error in function '
	DB	'%s: %s', 0aH, 00H
$SG169761 DB	'cckd_close', 00H
	ORG $+1
$SG170224 DB	'I', 00H
	ORG $+2
$SG169762 DB	'cckddasd.c', 00H
	ORG $+1
$SG170234 DB	'E', 00H
	ORG $+2
$SG169779 DB	'file[%d] fd[%d] read, off 0x%16.16llx len %d', 00H
	ORG $+3
$SG169780 DB	'cckd_read', 00H
	ORG $+2
$SG170300 DB	'I', 00H
	ORG $+2
$SG169782 DB	'lseek()', 00H
$SG169795 DB	'read incomplete: read %d, expected %d', 00H
	ORG $+2
$SG169784 DB	'HHC00302%s %1d:%04X CCKD file[%d] %s: error in function '
	DB	'%s at offset 0x%16.16llX: %s', 0aH, 00H
	ORG $+2
$SG169785 DB	'cckd_read', 00H
	ORG $+2
$SG170307 DB	'W', 00H
	ORG $+2
$SG169786 DB	'cckddasd.c', 00H
	ORG $+5
$SG169816 DB	'file[%d] fd[%d] write, off 0x%16.16llx len %d', 00H
	ORG $+2
$SG169819 DB	'lseek()', 00H
$SG169792 DB	'HHC00302%s %1d:%04X CCKD file[%d] %s: error in function '
	DB	'%s at offset 0x%16.16llX: %s', 0aH, 00H
	ORG $+2
$SG169793 DB	'cckd_read', 00H
	ORG $+2
$SG170316 DB	'I', 00H
	ORG $+2
$SG169794 DB	'cckddasd.c', 00H
	ORG $+5
$SG169827 DB	'write()', 00H
$SG169798 DB	'HHC00302%s %1d:%04X CCKD file[%d] %s: error in function '
	DB	'%s at offset 0x%16.16llX: %s', 0aH, 00H
	ORG $+2
$SG169799 DB	'cckd_read', 00H
	ORG $+2
$SG170333 DB	'I', 00H
	ORG $+2
$SG169800 DB	'cckddasd.c', 00H
	ORG $+1
$SG170343 DB	'E', 00H
	ORG $+2
$SG169817 DB	'cckd_write', 00H
	ORG $+5
$SG169832 DB	'write incomplete: write %d, expected %d', 00H
$SG169821 DB	'HHC00302%s %1d:%04X CCKD file[%d] %s: error in function '
	DB	'%s at offset 0x%16.16llX: %s', 0aH, 00H
	ORG $+2
$SG169822 DB	'cckd_write', 00H
	ORG $+1
$SG170354 DB	'I', 00H
	ORG $+2
$SG169823 DB	'cckddasd.c', 00H
	ORG $+5
$SG169833 DB	'write()', 00H
$SG169829 DB	'HHC00302%s %1d:%04X CCKD file[%d] %s: error in function '
	DB	'%s at offset 0x%16.16llX: %s', 0aH, 00H
	ORG $+2
$SG169830 DB	'cckd_write', 00H
	ORG $+1
$SG170377 DB	'I', 00H
	ORG $+2
$SG169831 DB	'cckddasd.c', 00H
	ORG $+5
$SG169847 DB	'cckd_ftruncate', 00H
	ORG $+1
$SG169867 DB	'%s malloc %p len %ld', 00H
	ORG $+3
$SG169835 DB	'HHC00302%s %1d:%04X CCKD file[%d] %s: error in function '
	DB	'%s at offset 0x%16.16llX: %s', 0aH, 00H
	ORG $+2
$SG169836 DB	'cckd_write', 00H
	ORG $+1
$SG170387 DB	'E', 00H
	ORG $+2
$SG169837 DB	'cckddasd.c', 00H
	ORG $+1
$SG170485 DB	'I', 00H
	ORG $+2
$SG169846 DB	'file[%d] fd[%d] ftruncate, off 0x%16.16llx', 00H
	ORG $+1
$SG170492 DB	'W', 00H
	ORG $+2
$SG169849 DB	'ftruncate()', 00H
$SG170149 DB	'read', 00H
	ORG $+7
$SG169851 DB	'HHC00302%s %1d:%04X CCKD file[%d] %s: error in function '
	DB	'%s at offset 0x%16.16llX: %s', 0aH, 00H
	ORG $+2
$SG169852 DB	'cckd_ftruncate', 00H
	ORG $+1
$SG169853 DB	'cckddasd.c', 00H
	ORG $+1
$SG170501 DB	'I', 00H
	ORG $+2
$SG169868 DB	'cckd_malloc', 00H
$SG170517 DB	'I', 00H
	ORG $+2
$SG169870 DB	'malloc( %d )', 00H
	ORG $+3
$SG169872 DB	'HHC00303%s %1d:%04X CCKD file: error in function %s: %s', 0aH
	DB	00H
	ORG $+3
$SG170150 DB	'write', 00H
	ORG $+2
$SG170527 DB	'E', 00H
	ORG $+2
$SG169873 DB	'cckd_malloc', 00H
$SG170536 DB	'I', 00H
	ORG $+2
$SG169874 DB	'cckddasd.c', 00H
	ORG $+1
$SG170602 DB	'I', 00H
	ORG $+2
$SG169891 DB	'%s calloc %p len %ld', 00H
	ORG $+3
$SG169892 DB	'cckd_calloc', 00H
$SG170612 DB	'E', 00H
	ORG $+2
$SG169894 DB	'calloc( %d, %d )', 00H
	ORG $+3
$SG170674 DB	'E', 00H
	ORG $+2
$SG169896 DB	'HHC00303%s %1d:%04X CCKD file: error in function %s: %s', 0aH
	DB	00H
	ORG $+3
$SG170742 DB	'ifb', 00H
$SG169897 DB	'cckd_calloc', 00H
$SG170864 DB	'l1', 00H
	ORG $+1
$SG169898 DB	'cckddasd.c', 00H
	ORG $+1
$SG170866 DB	'l1', 00H
	ORG $+1
$SG169914 DB	'%s realloc %p len %ld', 00H
	ORG $+2
$SG169915 DB	'cckd_realloc', 00H
	ORG $+3
$SG169917 DB	'realloc( %p, %d )', 00H
	ORG $+2
$SG170936 DB	'E', 00H
	ORG $+2
$SG169919 DB	'HHC00303%s %1d:%04X CCKD file: error in function %s: %s', 0aH
	DB	00H
	ORG $+3
$SG170981 DB	'ifb', 00H
$SG169920 DB	'cckd_realloc', 00H
	ORG $+3
$SG169921 DB	'cckddasd.c', 00H
	ORG $+1
$SG170983 DB	'ifb', 00H
$SG169931 DB	'%s free %p', 00H
	ORG $+1
$SG170990 DB	'fsp', 00H
$SG169932 DB	'cckd_free', 00H
	ORG $+2
$SG170994 DB	'fsp', 00H
$SG169955 DB	'read  trk   %d uncompressed len %d', 00H
	ORG $+1
$SG171046 DB	'fsp', 00H
$SG169956 DB	'cckd_read_track', 00H
$SG169958 DB	'asynchronous', 00H
	ORG $+3
$SG169959 DB	'read  trk   %d (%s)', 00H
$SG171050 DB	'fsp', 00H
$SG169960 DB	'cckd_read_track', 00H
$SG169986 DB	'updt  trk   %d offset %d length %d', 00H
	ORG $+1
$SG171053 DB	'ifb', 00H
$SG169987 DB	'cckd_update_track', 00H
	ORG $+2
$SG171388 DB	'E', 00H
	ORG $+2
$SG170009 DB	'cckddasd.c:985', 00H
	ORG $+1
$SG170013 DB	'cckddasd.c:1002', 00H
$SG170043 DB	'read bkgrp  %d uncompressed len %d', 00H
	ORG $+1
$SG171448 DB	'trk', 00H
$SG170044 DB	'cfba_read_block', 00H
$SG170045 DB	'asynchronous', 00H
	ORG $+3
$SG170046 DB	'read blkgrp  %d (%s)', 00H
	ORG $+3
$SG170047 DB	'cfba_read_block', 00H
$SG170095 DB	'cckddasd.c:1156', 00H
$SG170099 DB	'cckddasd.c:1173', 00H
$SG170136 DB	'%d rdtrk     %d', 00H
$SG170137 DB	'cckd_read_trk', 00H
	ORG $+2
$SG170139 DB	'cckddasd.c:1208', 00H
$SG170146 DB	'cckddasd.c:1244', 00H
$SG170147 DB	'%d rdtrk[%d] %d cache hit buf %p:%2.2x%2.2x%2.2x%2.2x%2.'
	DB	'2x', 00H
	ORG $+1
$SG171510 DB	'E', 00H
	ORG $+2
$SG170148 DB	'cckd_read_trk', 00H
	ORG $+2
$SG170151 DB	'%d rdtrk[%d] %d waiting for %s', 00H
	ORG $+1
$SG170152 DB	'cckd_read_trk', 00H
	ORG $+2
$SG170153 DB	'cckddasd.c:1265', 00H
$SG170154 DB	'%d rdtrk[%d] %d io wait complete', 00H
	ORG $+3
$SG171449 DB	'blkgrp', 00H
	ORG $+1
$SG171520 DB	'E', 00H
	ORG $+2
$SG170155 DB	'cckd_read_trk', 00H
	ORG $+2
$SG170156 DB	'cckddasd.c:1272', 00H
$SG170158 DB	'%d rdtrk[%d] %d cache miss', 00H
	ORG $+1
$SG171528 DB	'trk', 00H
$SG170159 DB	'cckd_read_trk', 00H
	ORG $+2
$SG170161 DB	'%d rdtrk[%d] %d no available cache entry', 00H
	ORG $+3
$SG171529 DB	'blk', 00H
$SG170162 DB	'cckd_read_trk', 00H
	ORG $+2
$SG170164 DB	'cckddasd.c:1293', 00H
$SG170166 DB	'cckddasd.c:1301', 00H
$SG170168 DB	'%d rdtrk[%d] %d dropping %4.4X:%d from cache', 00H
	ORG $+3
$SG170169 DB	'cckd_read_trk', 00H
	ORG $+2
$SG170172 DB	'%d rdtrk[%d] %d buf %p len %d', 00H
	ORG $+2
$SG170173 DB	'cckd_read_trk', 00H
	ORG $+2
$SG170175 DB	'cckddasd.c:1338', 00H
$SG170178 DB	'cckddasd.c:1348', 00H
$SG170179 DB	'cckddasd.c:1352', 00H
$SG170180 DB	'cckddasd.c:1356', 00H
$SG170182 DB	'%d rdtrk[%d] %d signalling read complete', 00H
	ORG $+3
$SG171530 DB	'trk', 00H
$SG170183 DB	'cckd_read_trk', 00H
	ORG $+2
$SG170184 DB	'cckddasd.c:1367', 00H
$SG170185 DB	'cckddasd.c:1370', 00H
$SG170187 DB	'%d rdtrk[%d] %d complete buf %p:%2.2x%2.2x%2.2x%2.2x%2.2'
	DB	'x', 00H
	ORG $+2
$SG171531 DB	'blk', 00H
$SG170188 DB	'cckd_read_trk', 00H
	ORG $+2
$SG170209 DB	'cckddasd.c:1401', 00H
$SG170219 DB	'cckddasd.c:1446', 00H
$SG170223 DB	'cckd_ra()', 00H
	ORG $+2
$SG171532 DB	'E', 00H
	ORG $+2
$SG170225 DB	'HHC00107%s Starting thread %s, active=%d, started=%d, ma'
	DB	'x=%d', 0aH, 00H
	ORG $+2
$SG170226 DB	'cckd_readahead', 00H
	ORG $+1
$SG170227 DB	'cckddasd.c', 00H
	ORG $+1
$SG171536 DB	'trk', 00H
$SG170228 DB	'cckddasd.c:1458', 00H
$SG170229 DB	'cckddasd.c:1460', 00H
$SG170230 DB	'cckd_ra', 00H
$SG170231 DB	'cckddasd.c:1462', 00H
$SG170233 DB	'cckd_ra()', 00H
	ORG $+6
$SG170236 DB	'cckd_readahead', 00H
	ORG $+1
$SG170238 DB	'cckddasd.c:1475', 00H
$SG170293 DB	'cckd_ra thread %d', 00H
	ORG $+6
$SG170235 DB	'HHC00106%s Error in function create_thread() for %s %d o'
	DB	'f %d: %s', 0aH, 00H
	ORG $+2
$SG171537 DB	'blk', 00H
$SG170237 DB	'cckddasd.c', 00H
	ORG $+1
$SG171538 DB	'trk', 00H
$SG170292 DB	'cckddasd.c:1517', 00H
$SG170299 DB	'cckddasd.c:1532', 00H
$SG170301 DB	'HHC00101%s Thread id %8.8x, prio %d, name ''%s'' ended', 0aH
	DB	00H
	ORG $+2
$SG170302 DB	'cckd_ra', 00H
$SG170303 DB	'cckddasd.c', 00H
	ORG $+1
$SG171539 DB	'blk', 00H
$SG170306 DB	'cckddasd.c:1538', 00H
$SG170309 DB	'cckd_ra', 00H
$SG170308 DB	'HHC00108%s Ending thread %8.8x %s, pri=%d, started=%d, m'
	DB	'ax=%d exceeded', 0aH, 00H
$SG170310 DB	'cckddasd.c', 00H
	ORG $+1
$SG171540 DB	'E', 00H
	ORG $+2
$SG170311 DB	'cckddasd.c:1540', 00H
$SG170312 DB	'cckddasd.c:1541', 00H
$SG170315 DB	'cckddasd.c:1547', 00H
$SG170317 DB	'HHC00100%s Thread id %8.8x, prio %d, name ''%s'' started'
	DB	0aH, 00H
$SG170318 DB	'cckd_ra', 00H
$SG170319 DB	'cckddasd.c', 00H
	ORG $+1
$SG171584 DB	'trk', 00H
$SG170321 DB	'cckddasd.c:1554', 00H
$SG170328 DB	'cckddasd.c:1580', 00H
$SG170332 DB	'cckd_ra() from cckd_ra()', 00H
	ORG $+3
$SG171585 DB	'blkgrp', 00H
	ORG $+1
$SG171673 DB	'E', 00H
	ORG $+2
$SG170334 DB	'HHC00107%s Starting thread %s, active=%d, started=%d, ma'
	DB	'x=%d', 0aH, 00H
	ORG $+2
$SG170335 DB	'cckd_ra', 00H
$SG170336 DB	'cckddasd.c', 00H
	ORG $+1
$SG171682 DB	'E', 00H
	ORG $+2
$SG170337 DB	'cckddasd.c:1592', 00H
$SG170338 DB	'cckddasd.c:1594', 00H
$SG170339 DB	'cckd_ra', 00H
$SG170340 DB	'cckddasd.c:1596', 00H
$SG170342 DB	'cckd_ra() from cckd_ra()', 00H
	ORG $+7
$SG170344 DB	'HHC00106%s Error in function create_thread() for %s %d o'
	DB	'f %d: %s', 0aH, 00H
	ORG $+2
$SG171693 DB	'E', 00H
	ORG $+2
$SG170345 DB	'cckd_ra', 00H
$SG170346 DB	'cckddasd.c', 00H
	ORG $+1
$SG171724 DB	'E', 00H
	ORG $+2
$SG170349 DB	'cckddasd.c:1612', 00H
$SG170350 DB	'cckddasd.c:1617', 00H
$SG170353 DB	'cckddasd.c:1624', 00H
$SG170355 DB	'HHC00101%s Thread id %8.8x, prio %d, name ''%s'' ended', 0aH
	DB	00H
	ORG $+2
$SG170356 DB	'cckd_ra', 00H
$SG170357 DB	'cckddasd.c', 00H
	ORG $+1
$SG171729 DB	'E', 00H
	ORG $+2
$SG170358 DB	'cckddasd.c:1631', 00H
$SG170360 DB	'cckddasd.c:1634', 00H
$SG170368 DB	'cckddasd.c:1657', 00H
$SG170372 DB	'cckddasd.c:1666', 00H
$SG170376 DB	'cckd_writer()', 00H
	ORG $+2
$SG170378 DB	'HHC00107%s Starting thread %s, active=%d, started=%d, ma'
	DB	'x=%d', 0aH, 00H
	ORG $+2
$SG170379 DB	'cckd_flush_cache', 00H
	ORG $+3
$SG171720 DB	'(none)', 00H
	ORG $+1
$SG171737 DB	'l1', 00H
	ORG $+1
$SG170380 DB	'cckddasd.c', 00H
	ORG $+1
$SG171739 DB	'l1', 00H
	ORG $+1
$SG170381 DB	'cckddasd.c:1678', 00H
$SG170382 DB	'cckddasd.c:1680', 00H
$SG170383 DB	'cckd_writer', 00H
$SG171759 DB	'I', 00H
	ORG $+2
$SG170384 DB	'cckddasd.c:1682', 00H
$SG170386 DB	'cckd_writer()', 00H
	ORG $+2
$SG170388 DB	'HHC00106%s Error in function create_thread() for %s %d o'
	DB	'f %d: %s', 0aH, 00H
	ORG $+2
$SG171763 DB	'I', 00H
	ORG $+2
$SG170389 DB	'cckd_flush_cache', 00H
	ORG $+3
$SG171768 DB	'E', 00H
	ORG $+2
$SG170390 DB	'cckddasd.c', 00H
	ORG $+1
$SG171775 DB	'W', 00H
	ORG $+2
$SG170391 DB	'cckddasd.c:1695', 00H
$SG170414 DB	'flush file[%d] cache[%d] %4.4X trk %d', 00H
	ORG $+2
$SG170415 DB	'cckd_flush_cache_scan', 00H
	ORG $+2
$SG170423 DB	'cckddasd.c:1729', 00H
$SG170425 DB	'cckddasd.c:1732', 00H
$SG170451 DB	'purge cache[%d] %4.4X trk %d purged', 00H
$SG171785 DB	'E', 00H
	ORG $+2
$SG170452 DB	'cckd_purge_cache_scan', 00H
	ORG $+2
$SG170476 DB	'cckddasd.c:1793', 00H
$SG170477 DB	'cckddasd.c:1796', 00H
$SG170478 DB	'cckd_writer thread %d', 00H
	ORG $+2
$SG170484 DB	'cckddasd.c:1811', 00H
$SG170486 DB	'HHC00101%s Thread id %8.8x, prio %d, name ''%s'' ended', 0aH
	DB	00H
	ORG $+2
$SG170487 DB	'cckd_writer', 00H
$SG171790 DB	'I', 00H
	ORG $+2
$SG170488 DB	'cckddasd.c', 00H
	ORG $+1
$SG171892 DB	'I', 00H
	ORG $+2
$SG170491 DB	'cckddasd.c:1817', 00H
$SG170493 DB	'HHC00108%s Ending thread %8.8x %s, pri=%d, started=%d, m'
	DB	'ax=%d exceeded', 0aH, 00H
$SG170494 DB	'cckd_writer', 00H
$SG171896 DB	'I', 00H
	ORG $+2
$SG170495 DB	'cckddasd.c', 00H
	ORG $+1
$SG171902 DB	'W', 00H
	ORG $+2
$SG170496 DB	'cckddasd.c:1819', 00H
$SG170497 DB	'cckddasd.c:1820', 00H
$SG170500 DB	'cckddasd.c:1826', 00H
$SG170502 DB	'HHC00100%s Thread id %8.8x, prio %d, name ''%s'' started'
	DB	0aH, 00H
$SG170503 DB	'cckd_writer', 00H
$SG171915 DB	'W', 00H
	ORG $+2
$SG170504 DB	'cckddasd.c', 00H
	ORG $+1
$SG171925 DB	'E', 00H
	ORG $+2
$SG170507 DB	'cckddasd.c:1835', 00H
$SG170512 DB	'cckddasd.c:1867', 00H
$SG170516 DB	'cckd_writer() from cckd_writer()', 00H
	ORG $+3
$SG171784 DB	'(null)', 00H
	ORG $+1
$SG171932 DB	'E', 00H
	ORG $+2
$SG170518 DB	'HHC00107%s Starting thread %s, active=%d, started=%d, ma'
	DB	'x=%d', 0aH, 00H
	ORG $+2
$SG170519 DB	'cckd_writer', 00H
$SG171945 DB	'E', 00H
	ORG $+2
$SG170520 DB	'cckddasd.c', 00H
	ORG $+1
$SG171952 DB	'E', 00H
	ORG $+2
$SG170521 DB	'cckddasd.c:1881', 00H
$SG170522 DB	'cckddasd.c:1883', 00H
$SG170523 DB	'cckd_writer', 00H
$SG171983 DB	'l1', 00H
	ORG $+1
$SG170524 DB	'cckddasd.c:1885', 00H
$SG170526 DB	'cckd_writer() from cckd_writer()', 00H
	ORG $+7
$SG170529 DB	'cckd_writer', 00H
$SG171906 DB	'force', 00H
	ORG $+6
$SG170528 DB	'HHC00106%s Error in function create_thread() for %s %d o'
	DB	'f %d: %s', 0aH, 00H
	ORG $+2
$SG171985 DB	'merged', 00H
	ORG $+1
$SG171988 DB	'I', 00H
	ORG $+2
$SG170530 DB	'cckddasd.c', 00H
	ORG $+1
$SG172002 DB	'E', 00H
	ORG $+2
$SG170531 DB	'cckddasd.c:1899', 00H
$SG170532 DB	'cckddasd.c:1903', 00H
$SG170535 DB	'cckddasd.c:1909', 00H
$SG170537 DB	'HHC00101%s Thread id %8.8x, prio %d, name ''%s'' ended', 0aH
	DB	00H
	ORG $+2
$SG170538 DB	'cckd_writer', 00H
$SG172006 DB	'E', 00H
	ORG $+2
$SG170539 DB	'cckddasd.c', 00H
	ORG $+1
$SG172029 DB	'I', 00H
	ORG $+2
$SG170540 DB	'cckddasd.c:1916', 00H
$SG170542 DB	'cckddasd.c:1919', 00H
$SG170584 DB	'%d wrtrk[%d] %d len %d buf %p:%2.2x%2.2x%2.2x%2.2x%2.2x', 00H
$SG170585 DB	'cckd_writer_write', 00H
	ORG $+2
$SG172033 DB	'I', 00H
	ORG $+2
$SG170590 DB	'%d wrtrk[%d] %d comp %s parm %d', 00H
$SG170591 DB	'cckd_writer_write', 00H
	ORG $+2
$SG172039 DB	'W', 00H
	ORG $+2
$SG170592 DB	'%d wrtrk[%d] %d compressed length %d', 00H
	ORG $+3
$SG170593 DB	'cckd_writer_write', 00H
	ORG $+2
$SG172046 DB	'W', 00H
	ORG $+2
$SG170594 DB	'cckddasd.c:2021', 00H
$SG170596 DB	'cckddasd.c:2033', 00H
$SG170597 DB	'cckddasd.c:2036', 00H
$SG170601 DB	'cckd_gcol()', 00H
$SG172078 DB	'I', 00H
	ORG $+2
$SG170603 DB	'HHC00107%s Starting thread %s, active=%d, started=%d, ma'
	DB	'x=%d', 0aH, 00H
	ORG $+2
$SG170604 DB	'cckd_writer_write', 00H
	ORG $+2
$SG172082 DB	'I', 00H
	ORG $+2
$SG170605 DB	'cckddasd.c', 00H
	ORG $+1
$SG172088 DB	'W', 00H
	ORG $+2
$SG170606 DB	'cckddasd.c:2050', 00H
$SG170607 DB	'cckddasd.c:2052', 00H
$SG170608 DB	'cckd_gcol', 00H
	ORG $+2
$SG172095 DB	'W', 00H
	ORG $+2
$SG170609 DB	'cckddasd.c:2054', 00H
$SG170611 DB	'cckd_gcol()', 00H
$SG171908 DB	'merge', 00H
	ORG $+6
$SG170613 DB	'HHC00106%s Error in function create_thread() for %s %d o'
	DB	'f %d: %s', 0aH, 00H
	ORG $+2
$SG172140 DB	'  ', 00H
	ORG $+1
$SG170614 DB	'cckd_writer_write', 00H
	ORG $+2
$SG172142 DB	'ro', 00H
	ORG $+1
$SG170615 DB	'cckddasd.c', 00H
	ORG $+1
$SG172144 DB	'rd', 00H
	ORG $+1
$SG170616 DB	'cckddasd.c:2066', 00H
$SG170617 DB	'cckddasd.c:2068', 00H
$SG170620 DB	'writer[%d] cache[%2.2d] %d signalling write complete', 00H
	ORG $+3
$SG170621 DB	'cckd_writer_write', 00H
	ORG $+2
$SG172146 DB	'rw', 00H
	ORG $+1
$SG170622 DB	'cckddasd.c:2089', 00H
$SG170623 DB	'cckddasd.c:2092', 00H
$SG170624 DB	'%d wrtrk[%2.2d] %d complete flags:%8.8x', 00H
$SG170625 DB	'cckd_writer_write', 00H
	ORG $+2
$SG172149 DB	'I', 00H
	ORG $+2
$SG170668 DB	'get_space len %d largest %d flags 0x%2.2x', 00H
	ORG $+2
$SG172153 DB	'I', 00H
	ORG $+2
$SG170669 DB	'cckd_get_space', 00H
	ORG $+1
$SG170675 DB	'HHC00304%s %1d:%04X CCKD file[%d] %s: get space error, s'
	DB	'ize exceeds %lldM', 0aH, 00H
	ORG $+1
$SG172159 DB	'W', 00H
	ORG $+2
$SG170676 DB	'cckd_get_space', 00H
	ORG $+1
$SG170677 DB	'cckddasd.c', 00H
	ORG $+1
$SG172165 DB	'E', 00H
	ORG $+2
$SG170678 DB	'get_space atend 0x%16.16llx len %d', 00H
	ORG $+1
$SG172171 DB	'I', 00H
	ORG $+2
$SG170679 DB	'cckd_get_space', 00H
	ORG $+1
$SG170695 DB	'get_space found 0x%16.16llx len %d size %d', 00H
	ORG $+1
$SG172177 DB	'I', 00H
	ORG $+2
$SG170696 DB	'cckd_get_space', 00H
	ORG $+1
$SG170734 DB	'rel_space offset 0x%16.16llx len %d size %d', 00H
$SG172181 DB	'I', 00H
	ORG $+2
$SG170735 DB	'cckd_rel_space', 00H
	ORG $+1
$SG170768 DB	'flush_space nbr %d', 00H
	ORG $+1
$SG172185 DB	'64', 00H
	ORG $+1
$SG170769 DB	'cckd_flush_space', 00H
	ORG $+3
$SG172186 DB	'32', 00H
	ORG $+1
$SG170778 DB	'rel_flush_space nbr %d (after merge)', 00H
	ORG $+3
$SG170779 DB	'cckd_flush_space', 00H
	ORG $+3
$SG172187 DB	'I', 00H
	ORG $+2
$SG170781 DB	'file[%d] rel_flush_space atend 0x%16.16llx len %d', 00H
	ORG $+2
$SG172193 DB	'I', 00H
	ORG $+2
$SG170782 DB	'cckd_flush_space', 00H
	ORG $+3
$SG172197 DB	'I', 00H
	ORG $+2
$SG170799 DB	'file[%d] read_chdr', 00H
	ORG $+1
$SG172201 DB	'64', 00H
	ORG $+1
$SG170800 DB	'cckd_read_chdr', 00H
	ORG $+1
$SG170819 DB	'file[%d] write_chdr', 00H
$SG172202 DB	'32', 00H
	ORG $+1
$SG170820 DB	'cckd_write_chdr', 00H
$SG170862 DB	'file[%d] read_l1 offset 0x%llx', 00H
	ORG $+1
$SG170863 DB	'cckd_read_l1', 00H
	ORG $+3
$SG170892 DB	'file[%d] write_l1 0x%llx len %d', 00H
$SG170893 DB	'cckd_write_l1', 00H
	ORG $+2
$SG170913 DB	'file[%d] write_l1ent[%d] , 0x%16.16llx', 00H
	ORG $+1
$SG170914 DB	'cckd_write_l1ent', 00H
	ORG $+3
$SG172203 DB	'I', 00H
	ORG $+2
$SG170926 DB	'file[%d] read_init', 00H
	ORG $+1
$SG172208 DB	'I', 00H
	ORG $+2
$SG170927 DB	'cckd_read_init', 00H
	ORG $+1
$SG170937 DB	'HHC00305%s %1d:%04X CCKD file[%d] %s: device header id e'
	DB	'rror', 0aH, 00H
	ORG $+2
$SG170938 DB	'cckd_read_init', 00H
	ORG $+1
$SG170939 DB	'cckddasd.c', 00H
	ORG $+1
$SG172212 DB	'64', 00H
	ORG $+1
$SG170979 DB	'file[%d] read_fsp number %d', 00H
$SG172213 DB	'32', 00H
	ORG $+1
$SG170980 DB	'cckd_read_fsp', 00H
	ORG $+2
$SG170988 DB	'FREE_BLK', 00H
	ORG $+3
$SG172214 DB	'I', 00H
	ORG $+2
$SG171037 DB	'file[%d] write_fsp number %d', 00H
	ORG $+3
$SG171038 DB	'cckd_write_fsp', 00H
	ORG $+1
$SG171049 DB	'FREE_BLK', 00H
	ORG $+3
$SG172257 DB	'I', 00H
	ORG $+2
$SG171093 DB	'file[%d] read_l2 %d active %d %d %d', 00H
$SG172267 DB	'E', 00H
	ORG $+2
$SG171094 DB	'cckd_read_l2', 00H
	ORG $+3
$SG171098 DB	'l2[%d,%d] cache[%d] hit', 00H
$SG171099 DB	'cckd_read_l2', 00H
	ORG $+3
$SG171100 DB	'l2[%d,%d] cache[%d] miss', 00H
	ORG $+3
$SG172306 DB	'I', 00H
	ORG $+2
$SG171101 DB	'cckd_read_l2', 00H
	ORG $+3
$SG171107 DB	'l2[%d,%d] cache[%d] null fmt[%d]', 00H
	ORG $+3
$SG172314 DB	'W', 00H
	ORG $+2
$SG171108 DB	'cckd_read_l2', 00H
	ORG $+3
$SG171111 DB	'l2[%d,%d] cache[%d] null 0xff', 00H
	ORG $+2
$SG171112 DB	'cckd_read_l2', 00H
	ORG $+3
$SG171115 DB	'file[%d] cache[%d] l2[%d] read offset 0x%8.8x', 00H
	ORG $+2
$SG171116 DB	'cckd_read_l2', 00H
	ORG $+3
$SG171124 DB	'purge_l2%s', 00H
	ORG $+1
$SG172324 DB	'I', 00H
	ORG $+2
$SG171125 DB	'cckd_purge_l2', 00H
	ORG $+2
$SG171151 DB	'purge l2cache[%d] %4.4X sfx %d ix %d purged', 00H
$SG172329 DB	'I', 00H
	ORG $+2
$SG171152 DB	'cckd_purge_l2_scan', 00H
	ORG $+1
$SG172334 DB	'I', 00H
	ORG $+2
$SG171214 DB	'file[%d] write_l2 %d', 00H
	ORG $+3
$SG171215 DB	'cckd_write_l2', 00H
	ORG $+2
$SG171248 DB	'file[%d] l2[%d,%d] trk[%d] read_l2ent 0x%x', 00H
	ORG $+1
$SG172346 DB	'I', 00H
	ORG $+2
$SG171249 DB	'cckd_read_l2ent', 00H
$SG171253 DB	'file[%d] l2[%d,%d] trk[%d] read_l2ent 0x%x %d %d', 00H
	ORG $+3
$SG172374 DB	'W', 00H
	ORG $+2
$SG171254 DB	'cckd_read_l2ent', 00H
$SG171282 DB	'file[%d] l2[%d,%d] trk[%d] write_l2ent 0x%x %d %d', 00H
	ORG $+2
$SG172380 DB	'W', 00H
	ORG $+2
$SG171283 DB	'cckd_write_l2ent', 00H
	ORG $+3
$SG172386 DB	'I', 00H
	ORG $+2
$SG171303 DB	'trk[%d] read_trkimg', 00H
$SG172483 DB	'E', 00H
	ORG $+2
$SG171304 DB	'cckd_read_trkimg', 00H
	ORG $+7
$SG171344 DB	'file[%d] trk[%d] write_trkimg len %d buf %p:%2.2x%2.2x%2'
	DB	'.2x%2.2x%2.2x', 00H
	ORG $+2
$SG171345 DB	'cckd_write_trkimg', 00H
	ORG $+2
$SG172431 DB	'newbuf', 00H
	ORG $+1
$SG172573 DB	'I', 00H
	ORG $+2
$SG171348 DB	'file[%d] trk[%d] write_trkimg oldl2 0x%x %d %d', 00H
	ORG $+1
$SG171349 DB	'cckd_write_trkimg', 00H
	ORG $+2
$SG172619 DB	'I', 00H
	ORG $+2
$SG171365 DB	'file[%d] harden', 00H
$SG171366 DB	'cckd_harden', 00H
	ORG $+4
$SG171389 DB	'HHC00306%s %1d:%04X CCKD file[%d] %s: trklen error for B'
	DB	'CCHH = %2.2x%4.4x%4.4x', 0aH, 00H
$SG171390 DB	'cckd_trklen', 00H
$SG172648 DB	'I', 00H
	ORG $+2
$SG171391 DB	'cckddasd.c', 00H
	ORG $+1
$SG172714 DB	'E', 00H
	ORG $+2
$SG171450 DB	'null_trk %s %d format %d size %d', 00H
	ORG $+3
$SG172700 DB	'newbuf', 00H
	ORG $+1
$SG172719 DB	'E', 00H
	ORG $+2
$SG171451 DB	'cckd_null_trk', 00H
	ORG $+2
$SG171511 DB	'HHC00307%s %1d:%04X CCKD file[%d] %s: invalid byte 0 trk'
	DB	' %d, buf %2.2x%2.2x%2.2x%2.2x%2.2x', 0aH, 00H
$SG172890 DB	'I', 00H
	ORG $+2
$SG171512 DB	'cckd_cchh', 00H
	ORG $+2
$SG172897 DB	'I', 00H
	ORG $+2
$SG171513 DB	'cckddasd.c', 00H
	ORG $+5
$SG171521 DB	'HHC00308%s %1d:%04X CCKD file[%d] %s: invalid byte 0 blk'
	DB	'grp %d, buf %2.2x%2.2x%2.2x%2.2x%2.2x', 0aH, 00H
	ORG $+1
$SG171522 DB	'cckd_cchh', 00H
	ORG $+2
$SG172902 DB	'I', 00H
	ORG $+2
$SG171523 DB	'cckddasd.c', 00H
	ORG $+5
$SG171533 DB	'HHC00309%s %1d:%04X CCKD file[%d] %s: invalid %s hdr %s '
	DB	'%d: %s compression unsupported', 0aH, 00H
$SG171534 DB	'cckd_cchh', 00H
	ORG $+2
$SG172909 DB	'I', 00H
	ORG $+2
$SG171535 DB	'cckddasd.c', 00H
	ORG $+5
$SG171587 DB	'cckd_validate', 00H
	ORG $+2
$SG171592 DB	'validation failed: bad length%s', 00H
$SG171721 DB	'file[%d] sf_new %s', 00H
	ORG $+5
$SG171541 DB	'HHC00310%s %1d:%04X CCKD file[%d] %s: invalid %s hdr %s '
	DB	'%d buf %p:%2.2x%2.2x%2.2x%2.2x%2.2x', 0aH, 00H
	ORG $+3
$SG171542 DB	'cckd_cchh', 00H
	ORG $+2
$SG172914 DB	'I', 00H
	ORG $+2
$SG171543 DB	'cckddasd.c', 00H
	ORG $+5
$SG171586 DB	'validating %s %d len %d %2.2x%2.2x%2.2x%2.2x%2.2x %2.2x%'
	DB	'2.2x%2.2x%2.2x%2.2x%2.2x%2.2x%2.2x', 00H
	ORG $+1
$SG172919 DB	'I', 00H
	ORG $+2
$SG171593 DB	'cckd_validate', 00H
	ORG $+2
$SG171597 DB	'validation failed: bad r0%s', 00H
$SG172924 DB	'I', 00H
	ORG $+2
$SG171598 DB	'cckd_validate', 00H
	ORG $+2
$SG171602 DB	'validation failed: bad r%d %2.2x%2.2x%2.2x%2.2x%2.2x%2.2'
	DB	'x%2.2x%2.2x', 00H
$SG172929 DB	'I', 00H
	ORG $+2
$SG171603 DB	'cckd_validate', 00H
	ORG $+2
$SG171608 DB	'validation failed: no eot%s', 00H
$SG172934 DB	'I', 00H
	ORG $+2
$SG171609 DB	'cckd_validate', 00H
	ORG $+2
$SG171725 DB	'HHC00313%s %1d:%04X CCKD file[%d]: no shadow file name', 0aH
	DB	00H
$SG171674 DB	'HHC00311%s %1d:%04X CCKD file[%d] %s: shadow file name c'
	DB	'ollides with %1d:%04X file[%d] %s', 0aH, 00H
	ORG $+1
$SG172939 DB	'I', 00H
	ORG $+2
$SG171675 DB	'cckd_sf_init', 00H
	ORG $+3
$SG171676 DB	'cckddasd.c', 00H
	ORG $+5
$SG171683 DB	'HHC00351%s %1d:%04X CCKD file[%d] %s: cckd/64 format dif'
	DB	'fers from base', 0aH, 00H
$SG171684 DB	'cckd_sf_init', 00H
	ORG $+3
$SG171685 DB	'cckddasd.c', 00H
	ORG $+5
$SG171695 DB	'cckd_sf_init', 00H
	ORG $+3
$SG171760 DB	'HHC00315%s %1d:%04X CCKD file: adding shadow files...', 0aH
	DB	00H
	ORG $+1
$SG171694 DB	'HHC00312%s %1d:%04X CCKD file[%d] %s: error re-opening r'
	DB	'eadonly: %s', 0aH, 00H
	ORG $+3
$SG171696 DB	'cckddasd.c', 00H
	ORG $+1
$SG172944 DB	'I', 00H
	ORG $+2
$SG171722 DB	'cckd_sf_new', 00H
$SG172949 DB	'I', 00H
	ORG $+2
$SG171726 DB	'cckd_sf_new', 00H
$SG173004 DB	'E', 00H
	ORG $+2
$SG171727 DB	'cckddasd.c', 00H
	ORG $+5
$SG171731 DB	'cckd_sf_new', 00H
$SG172989 DB	'%d%c', 00H
	ORG $+7
$SG171730 DB	'HHC00314%s %1d:%04X CCKD file[%d] %s:  max shadow files '
	DB	'exceeded', 0aH, 00H
	ORG $+2
$SG173011 DB	'E', 00H
	ORG $+2
$SG171732 DB	'cckddasd.c', 00H
	ORG $+1
$SG173021 DB	'E', 00H
	ORG $+2
$SG171761 DB	'cckd_sf_add', 00H
$SG173030 DB	'E', 00H
	ORG $+2
$SG171762 DB	'cckddasd.c', 00H
	ORG $+1
$SG173040 DB	'E', 00H
	ORG $+2
$SG171764 DB	'HHC00316%s CCKD file number of devices processed: %d', 0aH
	DB	00H
	ORG $+2
$SG171765 DB	'cckd_sf_add', 00H
$SG173050 DB	'E', 00H
	ORG $+2
$SG171766 DB	'cckddasd.c', 00H
	ORG $+1
$SG173060 DB	'E', 00H
	ORG $+2
$SG171769 DB	'HHC00317%s %1d:%04X CCKD file: device is not a cckd devi'
	DB	'ce', 0aH, 00H
$SG173070 DB	'E', 00H
	ORG $+2
$SG171770 DB	'cckd_sf_add', 00H
$SG173080 DB	'E', 00H
	ORG $+2
$SG171771 DB	'cckddasd.c', 00H
	ORG $+1
$SG173090 DB	'E', 00H
	ORG $+2
$SG171772 DB	'cckddasd.c:4151', 00H
$SG171774 DB	'cckddasd.c:4154', 00H
$SG171776 DB	'HHC00318%s %1d:%04X CCKD file[%d] %s: error adding shado'
	DB	'w file, sf command busy on device', 0aH, 00H
	ORG $+1
$SG173100 DB	'E', 00H
	ORG $+2
$SG171777 DB	'cckd_sf_add', 00H
$SG173110 DB	'E', 00H
	ORG $+2
$SG171778 DB	'cckddasd.c', 00H
	ORG $+1
$SG173120 DB	'E', 00H
	ORG $+2
$SG171780 DB	'cckddasd.c:4163', 00H
$SG171781 DB	'cckddasd.c:4169', 00H
$SG171782 DB	'cckddasd.c:4172', 00H
$SG171786 DB	'HHC00319%s %1d:%04X CCKD file[%d] %s: error adding shado'
	DB	'w file', 0aH, 00H
$SG171787 DB	'cckd_sf_add', 00H
$SG173131 DB	'E', 00H
	ORG $+2
$SG171788 DB	'cckddasd.c', 00H
	ORG $+5
$SG171791 DB	'HHC00320%s %1d:%04X CCKD file[%d] %s: shadow file succes'
	DB	'fully added', 0aH, 00H
	ORG $+3
$SG171792 DB	'cckd_sf_add', 00H
$SG173141 DB	'E', 00H
	ORG $+2
$SG171793 DB	'cckddasd.c', 00H
	ORG $+1
$SG173151 DB	'E', 00H
	ORG $+2
$SG171794 DB	'cckddasd.c:4195', 00H
$SG171795 DB	'cckddasd.c:4197', 00H
$SG171797 DB	'cckddasd.c:4200', 00H
$SG171798 DB	'cckddasd.c:4201', 00H
$SG171893 DB	'HHC00321%s %1d:%04X CCKD file: merging shadow files...', 0aH
	DB	00H
$SG171894 DB	'cckd_sf_remove', 00H
	ORG $+1
$SG171895 DB	'cckddasd.c', 00H
	ORG $+1
$SG173157 DB	'RA', 00H
	ORG $+1
$SG171897 DB	'HHC00316%s CCKD file number of devices processed: %d', 0aH
	DB	00H
	ORG $+2
$SG171898 DB	'cckd_sf_remove', 00H
	ORG $+1
$SG171899 DB	'cckddasd.c', 00H
	ORG $+1
$SG173161 DB	'E', 00H
	ORG $+2
$SG171903 DB	'HHC00317%s %1d:%04X CCKD file: device is not a cckd devi'
	DB	'ce', 0aH, 00H
$SG173167 DB	'RAQ', 00H
$SG171904 DB	'cckd_sf_remove', 00H
	ORG $+1
$SG171905 DB	'cckddasd.c', 00H
	ORG $+1
$SG173171 DB	'E', 00H
	ORG $+2
$SG171909 DB	'nomerge', 00H
$SG171910 DB	'merge starting: %s %s', 00H
	ORG $+2
$SG171911 DB	'cckd_sf_remove', 00H
	ORG $+1
$SG171912 DB	'cckddasd.c:4273', 00H
$SG171914 DB	'cckddasd.c:4277', 00H
$SG171957 DB	'merging to file[%d]', 00H
	ORG $+4
$SG171916 DB	'HHC00322%s %1d:%04X CCKD file[%d] %s: error merging shad'
	DB	'ow file, sf command busy on device', 0aH, 00H
$SG173177 DB	'RAT', 00H
$SG171917 DB	'cckd_sf_remove', 00H
	ORG $+1
$SG171918 DB	'cckddasd.c', 00H
	ORG $+1
$SG173181 DB	'E', 00H
	ORG $+2
$SG171920 DB	'cckddasd.c:4287', 00H
$SG171921 DB	'cckddasd.c:4295', 00H
$SG171922 DB	'cckddasd.c:4297', 00H
$SG171924 DB	'cckddasd.c:4301', 00H
$SG171926 DB	'HHC00323%s %1d:%04X CCKD file[%d] %s: cannot remove base'
	DB	' file', 0aH, 00H
	ORG $+1
$SG171927 DB	'cckd_sf_remove', 00H
	ORG $+1
$SG171928 DB	'cckddasd.c', 00H
	ORG $+1
$SG173191 DB	'E', 00H
	ORG $+2
$SG171931 DB	'not hardened', 00H
	ORG $+3
$SG171933 DB	'HHC00324%s %1d:%04X CCKD file[%d] %s: shadow file not me'
	DB	'rged: file[%d] %s%s', 0aH, 00H
	ORG $+3
$SG171934 DB	'cckd_sf_remove', 00H
	ORG $+1
$SG171935 DB	'cckddasd.c', 00H
	ORG $+1
$SG173200 DB	'E', 00H
	ORG $+2
$SG171942 DB	', try ''force''', 00H
	ORG $+2
$SG171944 DB	'cannot be opened read-write', 00H
	ORG $+4
$SG171946 DB	'HHC00324%s %1d:%04X CCKD file[%d] %s: shadow file not me'
	DB	'rged: file[%d] %s%s', 0aH, 00H
	ORG $+3
$SG171947 DB	'cckd_sf_remove', 00H
	ORG $+1
$SG171948 DB	'cckddasd.c', 00H
	ORG $+1
$SG173207 DB	'WR', 00H
	ORG $+1
$SG171951 DB	'check failed', 00H
	ORG $+3
$SG171953 DB	'HHC00324%s %1d:%04X CCKD file[%d] %s: shadow file not me'
	DB	'rged: file[%d] %s%s', 0aH, 00H
	ORG $+3
$SG171954 DB	'cckd_sf_remove', 00H
	ORG $+1
$SG171955 DB	'cckddasd.c', 00H
	ORG $+1
$SG173211 DB	'E', 00H
	ORG $+2
$SG171958 DB	'cckd_sf_remove', 00H
	ORG $+1
$SG171986 DB	're-added', 00H
	ORG $+3
$SG172998 DB	'STATS', 00H
	ORG $+2
$SG173096 DB	'GCMSGS', 00H
	ORG $+1
$SG173215 DB	'E', 00H
	ORG $+2
$SG171987 DB	'removed', 00H
$SG171997 DB	'merge complete%s', 00H
	ORG $+7
$SG171989 DB	'HHC00325%s %1d:%04X CCKD file[%d] %s: shadow file succes'
	DB	'sfully %s', 0aH, 00H
	ORG $+1
$SG173231 DB	'I', 00H
	ORG $+2
$SG171990 DB	'cckd_sf_remove', 00H
	ORG $+1
$SG171991 DB	'cckddasd.c', 00H
	ORG $+1
$SG173239 DB	'I', 00H
	ORG $+2
$SG171992 DB	'cckddasd.c:4513', 00H
$SG171993 DB	'cckddasd.c:4515', 00H
$SG171995 DB	'cckddasd.c:4522', 00H
$SG171998 DB	'cckd_sf_remove', 00H
	ORG $+1
$SG171999 DB	'cckddasd.c:4525', 00H
$SG172034 DB	'HHC00316%s CCKD file number of devices processed: %d', 0aH
	DB	00H
	ORG $+2
$SG172003 DB	'HHC00326%s %1d:%04X CCKD file[%d] %s: shadow file not me'
	DB	'rged, error during merge', 0aH, 00H
	ORG $+2
$SG173106 DB	'GCPARM', 00H
	ORG $+1
$SG173283 DB	'I', 00H
	ORG $+2
$SG172004 DB	'cckd_sf_remove', 00H
	ORG $+1
$SG172005 DB	'cckddasd.c', 00H
	ORG $+5
$SG172007 DB	'HHC00327%s %1d:%04X CCKD file[%d] %s: shadow file not me'
	DB	'rged, error processing trk(%d)', 0aH, 00H
$SG172008 DB	'cckd_sf_remove', 00H
	ORG $+1
$SG172009 DB	'cckddasd.c', 00H
	ORG $+5
$SG172030 DB	'HHC00328%s %1d:%04X CCKD file: compressing shadow files.'
	DB	'..', 0aH, 00H
	ORG $+4
$SG172031 DB	'cckd_sf_comp', 00H
	ORG $+3
$SG172032 DB	'cckddasd.c', 00H
	ORG $+5
$SG172035 DB	'cckd_sf_comp', 00H
	ORG $+3
$SG172036 DB	'cckddasd.c', 00H
	ORG $+5
$SG172040 DB	'HHC00317%s %1d:%04X CCKD file: device is not a cckd devi'
	DB	'ce', 0aH, 00H
	ORG $+4
$SG172041 DB	'cckd_sf_comp', 00H
	ORG $+3
$SG172042 DB	'cckddasd.c', 00H
	ORG $+5
$SG172043 DB	'cckddasd.c:4593', 00H
$SG172045 DB	'cckddasd.c:4597', 00H
$SG172079 DB	'HHC00330%s %1d:%04X CCKD file: checking level %d...', 0aH
	DB	00H
	ORG $+3
$SG172047 DB	'HHC00329%s %1d:%04X CCKD file[%d] %s: error compressing '
	DB	'shadow file, sf command busy on device', 0aH, 00H
$SG172048 DB	'cckd_sf_comp', 00H
	ORG $+3
$SG172049 DB	'cckddasd.c', 00H
	ORG $+5
$SG172051 DB	'cckddasd.c:4607', 00H
$SG172052 DB	'cckddasd.c:4615', 00H
$SG172053 DB	'cckddasd.c:4618', 00H
$SG172054 DB	'cckddasd.c:4629', 00H
$SG172055 DB	'cckddasd.c:4631', 00H
$SG172057 DB	'cckddasd.c:4635', 00H
$SG172058 DB	'cckddasd.c:4637', 00H
$SG172080 DB	'cckd_sf_chk', 00H
	ORG $+4
$SG172081 DB	'cckddasd.c', 00H
	ORG $+5
$SG172083 DB	'HHC00316%s CCKD file number of devices processed: %d', 0aH
	DB	00H
	ORG $+2
$SG172084 DB	'cckd_sf_chk', 00H
	ORG $+4
$SG172085 DB	'cckddasd.c', 00H
	ORG $+5
$SG172089 DB	'HHC00317%s %1d:%04X CCKD file: device is not a cckd devi'
	DB	'ce', 0aH, 00H
	ORG $+4
$SG172090 DB	'cckd_sf_chk', 00H
	ORG $+4
$SG172091 DB	'cckddasd.c', 00H
	ORG $+5
$SG172092 DB	'cckddasd.c:4691', 00H
$SG172094 DB	'cckddasd.c:4695', 00H
$SG172150 DB	'HHC00332%s %1d:%04X CCKD file: display cckd statistics', 0aH
	DB	00H
$SG172096 DB	'HHC00331%s %1d:%04X CCKD file[%d] %s: shadow file check '
	DB	'failed, sf command busy on device', 0aH, 00H
	ORG $+5
$SG172097 DB	'cckd_sf_chk', 00H
	ORG $+4
$SG172098 DB	'cckddasd.c', 00H
	ORG $+5
$SG172100 DB	'cckddasd.c:4708', 00H
$SG172101 DB	'cckddasd.c:4718', 00H
$SG172102 DB	'cckddasd.c:4721', 00H
$SG172103 DB	'cckddasd.c:4732', 00H
$SG172104 DB	'cckddasd.c:4734', 00H
$SG172106 DB	'cckddasd.c:4738', 00H
$SG172107 DB	'cckddasd.c:4740', 00H
$SG172151 DB	'cckd_sf_stats', 00H
	ORG $+2
$SG172152 DB	'cckddasd.c', 00H
	ORG $+5
$SG172154 DB	'HHC00316%s CCKD file number of devices processed: %d', 0aH
	DB	00H
	ORG $+2
$SG172155 DB	'cckd_sf_stats', 00H
	ORG $+2
$SG172156 DB	'cckddasd.c', 00H
	ORG $+5
$SG172160 DB	'HHC00317%s %1d:%04X CCKD file: device is not a cckd devi'
	DB	'ce', 0aH, 00H
	ORG $+4
$SG172161 DB	'cckd_sf_stats', 00H
	ORG $+2
$SG172162 DB	'cckddasd.c', 00H
	ORG $+5
$SG172164 DB	'fstat()', 00H
$SG172166 DB	'HHC00075%s Error in function %s: %s', 0aH, 00H
	ORG $+3
$SG172167 DB	'cckd_sf_stats', 00H
	ORG $+2
$SG172168 DB	'cckddasd.c', 00H
	ORG $+5
$SG172173 DB	'cckd_sf_stats', 00H
	ORG $+2
$SG172198 DB	'HHC00338%s %1d:%04X %s', 0aH, 00H
$SG172172 DB	'HHC00333%s %1d:%04X   32/64       size free  nbr st   re'
	DB	'ads  writes l2reads    hits switches', 0aH, 00H
	ORG $+2
$SG172174 DB	'cckddasd.c', 00H
	ORG $+5
$SG172178 DB	'HHC00334%s %1d:%04X                                     '
	DB	'                 readaheads   misses', 0aH, 00H
	ORG $+2
$SG172179 DB	'cckd_sf_stats', 00H
	ORG $+2
$SG172180 DB	'cckddasd.c', 00H
	ORG $+5
$SG172182 DB	'HHC00335%s %1d:%04X ------------------------------------'
	DB	'------------------------------------', 0aH, 00H
	ORG $+2
$SG172183 DB	'cckd_sf_stats', 00H
	ORG $+2
$SG172184 DB	'cckddasd.c', 00H
	ORG $+5
$SG172188 DB	'HHC00336%s %1d:%04X [*] %s %11.11lld %3.3lld%% %4.4lld  '
	DB	'  %7.7d %7.7d %7.7d %7.7d  %7.7d', 0aH, 00H
	ORG $+6
$SG172189 DB	'cckd_sf_stats', 00H
	ORG $+2
$SG172190 DB	'cckddasd.c', 00H
	ORG $+5
$SG172194 DB	'HHC00337%s %1d:%04X                                     '
	DB	'                    %7.7d  %7.7d', 0aH, 00H
	ORG $+6
$SG172195 DB	'cckd_sf_stats', 00H
	ORG $+2
$SG172196 DB	'cckddasd.c', 00H
	ORG $+5
$SG172199 DB	'cckd_sf_stats', 00H
	ORG $+2
$SG172200 DB	'cckddasd.c', 00H
	ORG $+5
$SG172204 DB	'HHC00339%s %1d:%04X [0] %s %11.11lld %3.3lld%% %4.4lld %'
	DB	's %7.7d %7.7d %7.7d', 0aH, 00H
	ORG $+3
$SG172205 DB	'cckd_sf_stats', 00H
	ORG $+2
$SG172206 DB	'cckddasd.c', 00H
	ORG $+5
$SG172209 DB	'HHC00340%s %1d:%04X %s', 0aH, 00H
$SG172210 DB	'cckd_sf_stats', 00H
	ORG $+2
$SG172211 DB	'cckddasd.c', 00H
	ORG $+5
$SG172216 DB	'cckd_sf_stats', 00H
	ORG $+2
$SG172223 DB	'cckddasd.c:4881', 00H
$SG172307 DB	'HHC00101%s Thread id %8.8x, prio %d, name ''%s'' ended', 0aH
	DB	00H
	ORG $+2
$SG172215 DB	'HHC00341%s %1d:%04X [%d] %s %11.11lld %3.3lld%% %4.4lld '
	DB	'%s %7.7d %7.7d %7.7d', 0aH, 00H
	ORG $+2
$SG172217 DB	'cckddasd.c', 00H
	ORG $+5
$SG172226 DB	'cckddasd.c:4901', 00H
$SG172229 DB	'cckddasd.c:4910', 00H
$SG172231 DB	'cckddasd.c:4918', 00H
$SG172235 DB	'cckddasd.c:4924', 00H
$SG172236 DB	'cckddasd.c:4926', 00H
$SG172248 DB	'cckddasd.c:4949', 00H
$SG172250 DB	'cckddasd.c:4958', 00H
$SG172252 DB	'cckddasd.c:4967', 00H
$SG172256 DB	'cckd_gcol() by command line', 00H
	ORG $+4
$SG172258 DB	'HHC00107%s Starting thread %s, active=%d, started=%d, ma'
	DB	'x=%d', 0aH, 00H
	ORG $+2
$SG172259 DB	'cckd_gcstart', 00H
	ORG $+3
$SG172260 DB	'cckddasd.c', 00H
	ORG $+5
$SG172261 DB	'cckddasd.c:4980', 00H
$SG172262 DB	'cckddasd.c:4982', 00H
$SG172263 DB	'cckd_gcol', 00H
	ORG $+6
$SG172264 DB	'cckddasd.c:4984', 00H
$SG172266 DB	'cckd_gcol() by command line', 00H
	ORG $+4
$SG172268 DB	'HHC00106%s Error in function create_thread() for %s %d o'
	DB	'f %d: %s', 0aH, 00H
	ORG $+6
$SG172269 DB	'cckd_gcstart', 00H
	ORG $+3
$SG172270 DB	'cckddasd.c', 00H
	ORG $+5
$SG172271 DB	'cckddasd.c:4996', 00H
$SG172298 DB	'cckddasd.c:5025', 00H
$SG172304 DB	'cckd_gcol', 00H
	ORG $+6
$SG172305 DB	'cckddasd.c:5039', 00H
$SG172308 DB	'cckd_gcol', 00H
	ORG $+6
$SG172309 DB	'cckddasd.c', 00H
	ORG $+5
$SG172312 DB	'cckddasd.c:5045', 00H
$SG172313 DB	'cckd_gcol', 00H
	ORG $+6
$SG172317 DB	'cckddasd.c', 00H
	ORG $+5
$SG172318 DB	'cckddasd.c:5047', 00H
$SG172325 DB	'HHC00100%s Thread id %8.8x, prio %d, name ''%s'' started'
	DB	0aH, 00H
$SG172315 DB	'HHC00108%s Ending thread %8.8x %s, pri=%d, started=%d, m'
	DB	'ax=%d exceeded', 0aH, 00H
$SG172316 DB	'cckd_gcol', 00H
	ORG $+6
$SG172319 DB	'cckddasd.c:5048', 00H
$SG172322 DB	'cckd_gcol', 00H
	ORG $+6
$SG172323 DB	'cckddasd.c:5054', 00H
$SG172326 DB	'cckd_gcol', 00H
	ORG $+6
$SG172327 DB	'cckddasd.c', 00H
	ORG $+5
$SG172330 DB	'HHC00382%s Begin CCKD garbage collection', 0aH, 00H
	ORG $+6
$SG172331 DB	'cckd_gcol', 00H
	ORG $+6
$SG172332 DB	'cckddasd.c', 00H
	ORG $+5
$SG172335 DB	'HHC00383%s End CCKD garbage collection', 0aH, 00H
$SG172336 DB	'cckd_gcol', 00H
	ORG $+6
$SG172337 DB	'cckddasd.c', 00H
	ORG $+5
$SG172339 DB	'cckd_gcol wait %d seconds at %s', 00H
$SG172340 DB	'cckd_gcol', 00H
	ORG $+6
$SG172341 DB	'cckddasd.c:5091', 00H
$SG172344 DB	'cckd_gcol', 00H
	ORG $+6
$SG172345 DB	'cckddasd.c:5096', 00H
$SG172347 DB	'HHC00101%s Thread id %8.8x, prio %d, name ''%s'' ended', 0aH
	DB	00H
	ORG $+2
$SG172348 DB	'cckd_gcol', 00H
	ORG $+6
$SG172349 DB	'cckddasd.c', 00H
	ORG $+5
$SG172350 DB	'cckddasd.c:5103', 00H
$SG172352 DB	'cckddasd.c:5106', 00H
$SG172360 DB	'cckddasd.c:5121', 00H
$SG172361 DB	'cckddasd.c:5129', 00H
$SG172375 DB	'HHC00387%s %1d:%04X CCKD%s image %s is SEVERELY fragment'
	DB	'ed!', 0aH, 00H
	ORG $+3
$SG172376 DB	'cckd_gc_rpt_state', 00H
	ORG $+6
$SG172377 DB	'cckddasd.c', 00H
	ORG $+5
$SG172381 DB	'HHC00388%s %1d:%04X CCKD%s image %s is moderately fragme'
	DB	'nted', 0aH, 00H
	ORG $+2
$SG172382 DB	'cckd_gc_rpt_state', 00H
	ORG $+6
$SG172383 DB	'cckddasd.c', 00H
	ORG $+5
$SG172387 DB	'HHC00389%s %1d:%04X CCKD%s image %s is slightly fragment'
	DB	'ed', 0aH, 00H
	ORG $+4
$SG172388 DB	'cckd_gc_rpt_state', 00H
	ORG $+6
$SG172389 DB	'cckddasd.c', 00H
	ORG $+5
$SG172424 DB	'cckddasd.c:5240', 00H
$SG172427 DB	'cckddasd.c:5245', 00H
$SG172429 DB	'cckddasd.c:5252', 00H
$SG172434 DB	'cckddasd.c:5266', 00H
$SG172441 DB	'cckddasd.c:5283', 00H
$SG172442 DB	'cckddasd.c:5289', 00H
$SG172443 DB	'cckddasd.c:5297', 00H
$SG172444 DB	'cckddasd.c:5302', 00H
$SG172446 DB	'cckddasd.c:5307', 00H
$SG172447 DB	'cckddasd.c:5312', 00H
$SG172449 DB	'cckddasd.c:5318', 00H
$SG172450 DB	'cckddasd.c:5322', 00H
$SG172463 DB	'gcperc exiting due to error, moved %u', 00H
	ORG $+2
$SG172464 DB	'cckddasd.c:5333', 00H
$SG172575 DB	'cckd_gc_percolate', 00H
	ORG $+6
$SG172484 DB	'HHC00342%s %1d:%04X CCKD file[%d] %s: %s(%d): offset 0x%'
	DB	'16.16llx unknown space %2.2x%2.2x%2.2x%2.2x%2.2x', 0aH, 00H
	ORG $+6
$SG172485 DB	'cckd_gc_perc_space_error', 00H
	ORG $+7
$SG172486 DB	'cckddasd.c', 00H
	ORG $+5
$SG172574 DB	'HHC00385%s Skipping garbage collection for CCKD%s file[%'
	DB	'd] %1d:%04X %s due to space errors', 0aH, 00H
	ORG $+4
$SG172576 DB	'cckddasd.c', 00H
	ORG $+5
$SG172577 DB	'cckddasd.c:5388', 00H
$SG172580 DB	'cckddasd.c:5391', 00H
$SG172581 DB	'gcperc size %d 1st 0x%x nbr %d largest %u', 00H
	ORG $+6
$SG172582 DB	'cckd_gc_percolate', 00H
	ORG $+6
$SG172583 DB	'gcperc free[%4d]:%8.8x end %8.8x len %10d%cpend %d', 00H
	ORG $+5
$SG172584 DB	'cckd_gc_percolate', 00H
	ORG $+6
$SG172585 DB	'cckddasd.c:5411', 00H
$SG172587 DB	'cckddasd.c:5419', 00H
$SG172589 DB	'cckddasd.c:5425', 00H
$SG172606 DB	'gcperc no applicable space, moved %u', 00H
	ORG $+3
$SG172607 DB	'cckd_gc_percolate', 00H
	ORG $+6
$SG172608 DB	'cckddasd.c:5508', 00H
$SG172611 DB	'gcperc selected space 0x%16.16llx len %d', 00H
	ORG $+7
$SG172612 DB	'cckd_gc_percolate', 00H
	ORG $+6
$SG172614 DB	'cckddasd.c', 00H
	ORG $+5
$SG172620 DB	'HHC00384%s Collecting garbage for CCKD%s file[%d] %1d:%0'
	DB	'4X %s...', 0aH, 00H
	ORG $+6
$SG172621 DB	'cckd_gc_percolate', 00H
	ORG $+6
$SG172622 DB	'cckddasd.c', 00H
	ORG $+5
$SG172626 DB	'gcperc move l2tab[%d] at pos 0x%16.16llx len %d', 00H
$SG172627 DB	'cckd_gc_percolate', 00H
	ORG $+6
$SG172629 DB	'cckddasd.c', 00H
	ORG $+5
$SG172631 DB	'cckddasd.c', 00H
	ORG $+5
$SG172633 DB	'cckddasd.c', 00H
	ORG $+5
$SG172635 DB	'cckddasd.c', 00H
	ORG $+5
$SG172637 DB	'cckddasd.c', 00H
	ORG $+5
$SG172639 DB	'gcperc move trk %d at pos 0x%16.16llx len %hu', 00H
	ORG $+2
$SG172640 DB	'cckd_gc_percolate', 00H
	ORG $+6
$SG172642 DB	'cckddasd.c', 00H
	ORG $+5
$SG172643 DB	'cckddasd.c:5587', 00H
$SG172644 DB	'gcperc moved %d 1st 0x%x nbr %u', 00H
$SG172645 DB	'cckd_gc_percolate', 00H
	ORG $+6
$SG172650 DB	'cckd_gc_percolate', 00H
	ORG $+6
$SG172649 DB	'HHC00386%s Collected %u bytes of garbage for CCKD%s file'
	DB	'[%d] %1d:%04X %s...', 0aH, 00H
	ORG $+3
$SG172651 DB	'cckddasd.c', 00H
	ORG $+5
$SG172697 DB	'uncompress comp %d len %d maxlen %d trk %d', 00H
	ORG $+5
$SG172698 DB	'cckd_uncompress', 00H
$SG172709 DB	'newbuf2', 00H
$SG172847 DB	'  help          Display help message', 00H
	ORG $+3
$SG172715 DB	'HHC00343%s %1d:%04X CCKD file[%d] %s: uncompress error t'
	DB	'rk %d: %2.2x%2.2x%2.2x%2.2x%2.2x', 0aH, 00H
	ORG $+6
$SG172716 DB	'cckd_uncompress', 00H
$SG172717 DB	'cckddasd.c', 00H
	ORG $+5
$SG172720 DB	'HHC00344%s %1d:%04X CCKD file[%d] %s: compression %s not'
	DB	' supported', 0aH, 00H
	ORG $+4
$SG172721 DB	'cckd_uncompress', 00H
$SG172722 DB	'cckddasd.c', 00H
	ORG $+5
$SG172843 DB	'Command parameters for cckd:', 00H
	ORG $+3
$SG172849 DB	'  stats         Display cckd statistics', 00H
$SG172851 DB	'  opts          Display cckd options', 00H
	ORG $+3
$SG172891 DB	'HHC00345%s %s', 0aH, 00H
	ORG $+1
$SG172892 DB	'cckd_command_help', 00H
	ORG $+6
$SG172855 DB	'  comp=<n>      Override compression                 (-1'
	DB	',0,1,2)', 00H
$SG172857 DB	'  compparm=<n>  Override compression parm            (-1'
	DB	' ... 9)', 00H
$SG172859 DB	'  debug=<n>     Enable CCW tracing debug messages      ('
	DB	'0 or 1)', 00H
$SG172861 DB	'  dtax=<n>      Dump cckd trace table at exit          ('
	DB	'0 or 1)', 00H
$SG172863 DB	'  freepend=<n>  Set free pending cycles              (-1'
	DB	' ... 4)', 00H
$SG172865 DB	'  fsync=<n>     Enable fsync                           ('
	DB	'0 or 1)', 00H
$SG172867 DB	'  gcint=<n>     Set garbage collector interval (sec) ( 0'
	DB	' .. 60)', 00H
$SG172869 DB	'  gcmsgs=<n>    Display garbage collector messages     ('
	DB	'0 or 1)', 00H
$SG172871 DB	'  gcparm=<n>    Set garbage collector parameter      (-8'
	DB	' ... 8)', 00H
$SG172873 DB	'  gcstart=<n>   Start garbage collector                ('
	DB	'0 or 1)', 00H
$SG172875 DB	'  linuxnull=<n> Check for null linux tracks            ('
	DB	'0 or 1)', 00H
$SG172877 DB	'  nosfd=<n>     Disable stats report at close          ('
	DB	'0 or 1)', 00H
$SG172879 DB	'  nostress=<n>  Disable stress writes                  ('
	DB	'0 or 1)', 00H
$SG172881 DB	'  ra=<n>        Set number readahead threads         ( 1'
	DB	' ... 9)', 00H
$SG172883 DB	'  raq=<n>       Set readahead queue size             ( 0'
	DB	' .. 16)', 00H
$SG172885 DB	'  rat=<n>       Set number tracks to read ahead      ( 0'
	DB	' .. 16)', 00H
$SG172887 DB	'  trace=<n>     Set trace table size             (0 ... '
	DB	'200000)', 00H
$SG172889 DB	'  wr=<n>        Set number writer threads            ( 1'
	DB	' ... 9)', 00H
$SG172893 DB	'cckddasd.c', 00H
	ORG $+5
$SG172896 DB	'cckd opts: comp=%d,compparm=%d,debug=%d,dtax=%d,freepend'
	DB	'=%d,fsync=%d,gcint=%d,gcmsgs=%d', 00H
$SG172898 DB	'HHC00346%s %s', 0aH, 00H
	ORG $+1
$SG172899 DB	'cckd_command_opts', 00H
	ORG $+6
$SG172900 DB	'cckddasd.c', 00H
	ORG $+5
$SG172901 DB	'           gcparm=%d,linuxnull=%d,nosfd=%d,nostress=%d,r'
	DB	'a=%d,raq=%d,rat=%d,trace=%d,wr=%d', 00H
	ORG $+6
$SG172903 DB	'HHC00346%s %s', 0aH, 00H
	ORG $+1
$SG172904 DB	'cckd_command_opts', 00H
	ORG $+6
$SG172905 DB	'cckddasd.c', 00H
	ORG $+5
$SG172908 DB	'cckd stats:', 00H
	ORG $+4
$SG172910 DB	'HHC00347%s %s', 0aH, 00H
	ORG $+1
$SG172911 DB	'cckd_command_stats', 00H
	ORG $+5
$SG172912 DB	'cckddasd.c', 00H
	ORG $+5
$SG172913 DB	'  reads....%10lld Kbytes...%10lld', 00H
	ORG $+6
$SG172915 DB	'HHC00347%s %s', 0aH, 00H
	ORG $+1
$SG172916 DB	'cckd_command_stats', 00H
	ORG $+5
$SG172917 DB	'cckddasd.c', 00H
	ORG $+5
$SG172918 DB	'  writes...%10lld Kbytes...%10lld', 00H
	ORG $+6
$SG172920 DB	'HHC00347%s %s', 0aH, 00H
	ORG $+1
$SG172921 DB	'cckd_command_stats', 00H
	ORG $+5
$SG172922 DB	'cckddasd.c', 00H
	ORG $+5
$SG172923 DB	'  readaheads%9lld misses...%10lld', 00H
	ORG $+6
$SG172925 DB	'HHC00347%s %s', 0aH, 00H
	ORG $+1
$SG172926 DB	'cckd_command_stats', 00H
	ORG $+5
$SG172927 DB	'cckddasd.c', 00H
	ORG $+5
$SG172928 DB	'  switches.%10lld l2 reads.%10lld strs wrt.%10lld', 00H
	ORG $+6
$SG172930 DB	'HHC00347%s %s', 0aH, 00H
	ORG $+1
$SG172931 DB	'cckd_command_stats', 00H
	ORG $+5
$SG172932 DB	'cckddasd.c', 00H
	ORG $+5
$SG172933 DB	'  cachehits%10lld misses...%10lld', 00H
	ORG $+6
$SG172935 DB	'HHC00347%s %s', 0aH, 00H
	ORG $+1
$SG172936 DB	'cckd_command_stats', 00H
	ORG $+5
$SG172937 DB	'cckddasd.c', 00H
	ORG $+5
$SG172938 DB	'  l2 hits..%10lld misses...%10lld', 00H
	ORG $+6
$SG172940 DB	'HHC00347%s %s', 0aH, 00H
	ORG $+1
$SG172941 DB	'cckd_command_stats', 00H
	ORG $+5
$SG172942 DB	'cckddasd.c', 00H
	ORG $+5
$SG172943 DB	'  waits............   i/o......%10lld cache....%10lld', 00H
	ORG $+2
$SG172945 DB	'HHC00347%s %s', 0aH, 00H
	ORG $+1
$SG172946 DB	'cckd_command_stats', 00H
	ORG $+5
$SG172947 DB	'cckddasd.c', 00H
	ORG $+5
$SG172948 DB	'  garbage collector   moves....%10lld Kbytes...%10lld', 00H
	ORG $+2
$SG172950 DB	'HHC00347%s %s', 0aH, 00H
	ORG $+1
$SG172951 DB	'cckd_command_stats', 00H
	ORG $+5
$SG172952 DB	'cckddasd.c', 00H
	ORG $+5
$SG172984 DB	'CCKDBLK ', 00H
	ORG $+7
$SG172986 DB	'CCKDBLK ', 00H
	ORG $+3
$SG172994 DB	'HELP', 00H
	ORG $+3
$SG173002 DB	'OPTS', 00H
	ORG $+7
$SG173005 DB	'HHC00349%s CCKD file: invalid cckd keyword: %s', 0aH, 00H
$SG173006 DB	'cckd_command', 00H
	ORG $+3
$SG173007 DB	'cckddasd.c', 00H
	ORG $+5
$SG173012 DB	'HHC00350%s CCKD file: invalid numeric value %s', 0aH, 00H
$SG173013 DB	'cckd_command', 00H
	ORG $+3
$SG173014 DB	'cckddasd.c', 00H
	ORG $+1
$SG173017 DB	'COMP', 00H
	ORG $+7
$SG173022 DB	'HHC00348%s CCKD file: invalid value %d for %s', 0aH, 00H
	ORG $+1
$SG173023 DB	'cckd_command', 00H
	ORG $+3
$SG173024 DB	'cckddasd.c', 00H
	ORG $+5
$SG173031 DB	'HHC00348%s CCKD file: invalid value %d for %s', 0aH, 00H
	ORG $+1
$SG173032 DB	'cckd_command', 00H
	ORG $+3
$SG173033 DB	'cckddasd.c', 00H
	ORG $+5
$SG173036 DB	'COMPPARM', 00H
	ORG $+7
$SG173041 DB	'HHC00348%s CCKD file: invalid value %d for %s', 0aH, 00H
	ORG $+1
$SG173042 DB	'cckd_command', 00H
	ORG $+3
$SG173043 DB	'cckddasd.c', 00H
	ORG $+1
$SG173046 DB	'DEBUG', 00H
	ORG $+6
$SG173051 DB	'HHC00348%s CCKD file: invalid value %d for %s', 0aH, 00H
	ORG $+1
$SG173052 DB	'cckd_command', 00H
	ORG $+3
$SG173053 DB	'cckddasd.c', 00H
	ORG $+1
$SG173056 DB	'DTAX', 00H
	ORG $+7
$SG173061 DB	'HHC00348%s CCKD file: invalid value %d for %s', 0aH, 00H
	ORG $+1
$SG173062 DB	'cckd_command', 00H
	ORG $+3
$SG173063 DB	'cckddasd.c', 00H
	ORG $+5
$SG173066 DB	'FREEPEND', 00H
	ORG $+7
$SG173071 DB	'HHC00348%s CCKD file: invalid value %d for %s', 0aH, 00H
	ORG $+1
$SG173072 DB	'cckd_command', 00H
	ORG $+3
$SG173073 DB	'cckddasd.c', 00H
	ORG $+1
$SG173076 DB	'FSYNC', 00H
	ORG $+6
$SG173081 DB	'HHC00348%s CCKD file: invalid value %d for %s', 0aH, 00H
	ORG $+1
$SG173082 DB	'cckd_command', 00H
	ORG $+3
$SG173083 DB	'cckddasd.c', 00H
	ORG $+1
$SG173086 DB	'GCINT', 00H
	ORG $+6
$SG173091 DB	'HHC00348%s CCKD file: invalid value %d for %s', 0aH, 00H
	ORG $+1
$SG173092 DB	'cckd_command', 00H
	ORG $+3
$SG173093 DB	'cckddasd.c', 00H
	ORG $+5
$SG173101 DB	'HHC00348%s CCKD file: invalid value %d for %s', 0aH, 00H
	ORG $+1
$SG173102 DB	'cckd_command', 00H
	ORG $+3
$SG173103 DB	'cckddasd.c', 00H
	ORG $+5
$SG173111 DB	'HHC00348%s CCKD file: invalid value %d for %s', 0aH, 00H
	ORG $+1
$SG173112 DB	'cckd_command', 00H
	ORG $+3
$SG173113 DB	'cckddasd.c', 00H
	ORG $+5
$SG173116 DB	'GCSTART', 00H
$SG173121 DB	'HHC00348%s CCKD file: invalid value %d for %s', 0aH, 00H
	ORG $+1
$SG173122 DB	'cckd_command', 00H
	ORG $+3
$SG173123 DB	'cckddasd.c', 00H
	ORG $+5
$SG173127 DB	'LINUXNULL', 00H
	ORG $+6
$SG173132 DB	'HHC00348%s CCKD file: invalid value %d for %s', 0aH, 00H
	ORG $+1
$SG173133 DB	'cckd_command', 00H
	ORG $+3
$SG173134 DB	'cckddasd.c', 00H
	ORG $+1
$SG173137 DB	'NOSFD', 00H
	ORG $+6
$SG173142 DB	'HHC00348%s CCKD file: invalid value %d for %s', 0aH, 00H
	ORG $+1
$SG173143 DB	'cckd_command', 00H
	ORG $+3
$SG173144 DB	'cckddasd.c', 00H
	ORG $+5
$SG173147 DB	'NOSTRESS', 00H
	ORG $+7
$SG173152 DB	'HHC00348%s CCKD file: invalid value %d for %s', 0aH, 00H
	ORG $+1
$SG173153 DB	'cckd_command', 00H
	ORG $+3
$SG173154 DB	'cckddasd.c', 00H
	ORG $+5
$SG173162 DB	'HHC00348%s CCKD file: invalid value %d for %s', 0aH, 00H
	ORG $+1
$SG173163 DB	'cckd_command', 00H
	ORG $+3
$SG173164 DB	'cckddasd.c', 00H
	ORG $+5
$SG173172 DB	'HHC00348%s CCKD file: invalid value %d for %s', 0aH, 00H
	ORG $+1
$SG173173 DB	'cckd_command', 00H
	ORG $+3
$SG173174 DB	'cckddasd.c', 00H
	ORG $+5
$SG173182 DB	'HHC00348%s CCKD file: invalid value %d for %s', 0aH, 00H
	ORG $+1
$SG173183 DB	'cckd_command', 00H
	ORG $+3
$SG173184 DB	'cckddasd.c', 00H
	ORG $+1
$SG173187 DB	'TRACE', 00H
	ORG $+6
$SG173192 DB	'HHC00348%s CCKD file: invalid value %d for %s', 0aH, 00H
	ORG $+1
$SG173193 DB	'cckd_command', 00H
	ORG $+3
$SG173194 DB	'cckddasd.c', 00H
	ORG $+5
$SG173195 DB	'cckddasd.c:6561', 00H
$SG173199 DB	'calloc( %d, %d )', 00H
	ORG $+7
$SG173201 DB	'HHC00303%s %1d:%04X CCKD file: error in function %s: %s', 0aH
	DB	00H
	ORG $+7
$SG173202 DB	'cckd_command', 00H
	ORG $+3
$SG173203 DB	'cckddasd.c', 00H
	ORG $+5
$SG173204 DB	'cckddasd.c:6599', 00H
$SG173212 DB	'HHC00348%s CCKD file: invalid value %d for %s', 0aH, 00H
	ORG $+1
$SG173213 DB	'cckd_command', 00H
	ORG $+3
$SG173214 DB	'cckddasd.c', 00H
	ORG $+5
$SG173216 DB	'HHC00349%s CCKD file: invalid cckd keyword: %s', 0aH, 00H
$SG173217 DB	'cckd_command', 00H
	ORG $+3
$SG173218 DB	'cckddasd.c', 00H
	ORG $+5
$SG173232 DB	'HHC00399%s CCKD file: internal cckd trace', 0aH, 00H
	ORG $+5
$SG173233 DB	'cckd_print_itrace', 00H
	ORG $+6
$SG173234 DB	'cckddasd.c', 00H
	ORG $+5
$SG173235 DB	'cckddasd.c:6644', 00H
$SG173240 DB	'HHC00398%s %s', 0aH, 00H
	ORG $+1
$SG173241 DB	'cckd_print_itrace', 00H
	ORG $+6
$SG173242 DB	'cckddasd.c', 00H
	ORG $+5
$SG173244 DB	'cckddasd.c:6673', 00H
$SG173274 DB	'cckddasd.c:6696', 00H
$SG173276 DB	'%s.%6.6ld %1d:%04X ', 00H
	ORG $+4
$SG173279 DB	'%s%s(%d): %s', 00H
	ORG $+3
$SG173280 DB	'cckddasd.c:6737', 00H
$SG173284 DB	'HHC00396%s %1d:%04X %s', 0aH, 00H
$SG173285 DB	'cckd_trace', 00H
	ORG $+5
$SG173286 DB	'cckddasd.c', 00H
_DATA	ENDS
voltbl	SEGMENT
_volmd	DD	0ffffffffH
	DDSymXIndex: 	FLAT:cckd_sf_stats
	DD	017H
	DD	010e2H
_volmd	DD	0ffffffffH
	DDSymXIndex: 	FLAT:cckd_sf_remove
	DD	01dH
	DD	0196bH
_volmd	DD	0ffffffffH
	DDSymXIndex: 	FLAT:cckd_trace
	DD	024H
	DD	0354H
_volmd	DD	0ffffffffH
	DDSymXIndex: 	FLAT:cckd_command_stats
	DD	011H
	DD	045cH
_volmd	DD	0ffffffffH
	DDSymXIndex: 	FLAT:cckd_command_opts
	DD	011H
	DD	01b9H
_volmd	DD	0ffffffffH
	DDSymXIndex: 	FLAT:cckd_command_help
	DD	011H
	DD	01feH
_volmd	DD	0ffffffffH
	DDSymXIndex: 	FLAT:cckd_command
	DD	01aH
	DD	01229H
_volmd	DD	0ffffffffH
	DDSymXIndex: 	FLAT:cckd_gc_percolate
	DD	021H
	DD	01445H
_volmd	DD	0ffffffffH
	DDSymXIndex: 	FLAT:cckd_gcol
	DD	016H
	DD	05acH
_volmd	DD	0ffffffffH
	DDSymXIndex: 	FLAT:cckd_sf_new
	DD	018H
	DD	0667H
_volmd	DD	0ffffffffH
	DDSymXIndex: 	FLAT:cckd_sf_init
	DD	016H
	DD	0784H
_volmd	DD	0ffffffffH
	DDSymXIndex: 	FLAT:cckd_sf_parse_sfn
	DD	01bH
	DD	0165H
_volmd	DD	0ffffffffH
	DDSymXIndex: 	FLAT:cckd_validate
	DD	02fH
	DD	065bH
_volmd	DD	0ffffffffH
	DDSymXIndex: 	FLAT:cckd_check_null_trk
	DD	02bH
	DD	0157H
_volmd	DD	0ffffffffH
	DDSymXIndex: 	FLAT:cckd_read_init
	DD	016H
	DD	028aH
_volmd	DD	0ffffffffH
	DDSymXIndex: 	FLAT:cckd_writer_write
	DD	01fH
	DD	088fH
_volmd	DD	0ffffffffH
	DDSymXIndex: 	FLAT:cckd_writer
	DD	016H
	DD	0707H
_volmd	DD	0ffffffffH
	DDSymXIndex: 	FLAT:cckd_ra
	DD	016H
	DD	07b5H
_volmd	DD	0ffffffffH
	DDSymXIndex: 	FLAT:cckd_realloc
	DD	025H
	DD	01b1H
_volmd	DD	0ffffffffH
	DDSymXIndex: 	FLAT:cckd_calloc
	DD	025H
	DD	01caH
_volmd	DD	0ffffffffH
	DDSymXIndex: 	FLAT:cckd_malloc
	DD	020H
	DD	0196H
_volmd	DD	0ffffffffH
	DDSymXIndex: 	FLAT:cckd_write
	DD	024H
	DD	04b3H
_volmd	DD	0ffffffffH
	DDSymXIndex: 	FLAT:cckd_read
	DD	024H
	DD	04abH
_volmd	DD	0ffffffffH
	DDSymXIndex: 	FLAT:cckd_open
	DD	024H
	DD	03ecH
_volmd	DD	0ffffffffH
	DDSymXIndex: 	FLAT:cckd_dasd_init_handler
	DD	01fH
	DD	0583H
voltbl	ENDS
;	COMDAT xdata
xdata	SEGMENT
$unwind$fetch_fw_noswap DD 010901H
	DD	02209H
xdata	ENDS
;	COMDAT xdata
xdata	SEGMENT
$unwind$fetch_hw_noswap DD 010901H
	DD	02209H
xdata	ENDS
xdata	SEGMENT
$unwind$ctime DD 010901H
	DD	04209H
$unwind$strcaseabbrev DD 011301H
	DD	08213H
$unwind$cckd_dasd_init_handler DD 022719H
	DD	0170115H
	DD	imagerel __GSHandlerCheck
	DD	0a8H
$unwind$cckd_dasd_close_device DD 020c01H
	DD	015010cH
$unwind$cckd_read_track DD 011201H
	DD	0a212H
$unwind$cckd_update_track DD 031901H
	DD	07015a219H
	DD	06014H
$unwind$cfba_read_block DD 011201H
	DD	0c212H
$unwind$cfba_write_block DD 031901H
	DD	070158219H
	DD	06014H
$unwind$cckd_dasd_init DD 020e01H
	DD	0700a520eH
$unwind$cckd_dasd_term_if_appropriate DD 010401H
	DD	04204H
$unwind$cckd_dasd_start DD 010901H
	DD	0c209H
$unwind$cckd_dasd_end DD 010901H
	DD	0a209H
$unwind$cckd_open DD 022c19H
	DD	039011aH
	DD	imagerel __GSHandlerCheck
	DD	01b0H
$unwind$cckd_close DD 021001H
	DD	0150110H
$unwind$cckd_read DD 022c19H
	DD	02b011aH
	DD	imagerel __GSHandlerCheck
	DD	0140H
$unwind$cckd_write DD 022c19H
	DD	02b011aH
	DD	imagerel __GSHandlerCheck
	DD	0140H
$unwind$cckd_ftruncate DD 021501H
	DD	0130115H
$unwind$cckd_malloc DD 022819H
	DD	01b0116H
	DD	imagerel __GSHandlerCheck
	DD	0c0H
$unwind$cckd_calloc DD 022d19H
	DD	01b011bH
	DD	imagerel __GSHandlerCheck
	DD	0c0H
$unwind$cckd_realloc DD 022d19H
	DD	01b011bH
	DD	imagerel __GSHandlerCheck
	DD	0c0H
$unwind$cckd_free DD 011301H
	DD	06213H
$unwind$cckd_used DD 010901H
	DD	08209H
$unwind$cfba_used DD 010901H
	DD	08209H
$unwind$cckd_read_trk DD 031b01H
	DD	01a011bH
	DD	07014H
$unwind$cckd_readahead DD 031101H
	DD	0120111H
	DD	0700aH
$unwind$cckd_readahead_scan DD 011701H
	DD	08217H
$unwind$cckd_ra DD 021e19H
	DD	01f010cH
	DD	imagerel __GSHandlerCheck
	DD	0e0H
$unwind$cckd_flush_cache DD 020c01H
	DD	011010cH
$unwind$cckd_flush_cache_scan DD 011701H
	DD	0c217H
$unwind$cckd_flush_cache_all DD 010401H
	DD	06204H
$unwind$cckd_purge_cache DD 010901H
	DD	04209H
$unwind$cckd_purge_cache_scan DD 011701H
	DD	0a217H
$unwind$cckd_writer DD 021e19H
	DD	01b010cH
	DD	imagerel __GSHandlerCheck
	DD	0c8H
$unwind$cckd_writer_scan DD 011701H
	DD	06217H
$unwind$cckd_writer_write DD 022719H
	DD	0201f0115H
	DD	imagerel __GSHandlerCheck
	DD	0100e0H
$unwind$cckd_get_space DD 021601H
	DD	0170116H
$unwind$cckd_rel_space DD 021b01H
	DD	013011bH
$unwind$cckd_flush_space DD 010901H
	DD	0c209H
$unwind$cckd_read_chdr DD 020a01H
	DD	07006720aH
$unwind$cckd_write_chdr DD 010901H
	DD	08209H
$unwind$cckd_read_l1 DD 020a01H
	DD	07006b20aH
$unwind$cckd_write_l1 DD 010901H
	DD	0a209H
$unwind$cckd_write_l1ent DD 010d01H
	DD	0c20dH
$unwind$cckd_read_init DD 021e19H
	DD	053010cH
	DD	imagerel __GSHandlerCheck
	DD	0280H
$unwind$cckd_read_fsp DD 020c01H
	DD	011010cH
$unwind$cckd_write_fsp DD 010901H
	DD	0e209H
$unwind$cckd_read_l2 DD 021601H
	DD	0700ff216H
$unwind$cckd_purge_l2 DD 010901H
	DD	08209H
$unwind$cckd_purge_l2_scan DD 011701H
	DD	0c217H
$unwind$cckd_steal_l2 DD 010401H
	DD	08204H
$unwind$cckd_steal_l2_scan DD 011701H
	DD	06217H
$unwind$cckd_write_l2 DD 010901H
	DD	0c209H
$unwind$cckd_read_l2ent DD 021601H
	DD	0110116H
$unwind$cckd_write_l2ent DD 021601H
	DD	0110116H
$unwind$cckd_read_trkimg DD 011801H
	DD	0a218H
$unwind$cckd_write_trkimg DD 021b01H
	DD	017011bH
$unwind$cckd_harden DD 010901H
	DD	08209H
$unwind$cckd_trklen DD 021101H
	DD	0150111H
$unwind$cckd_null_trk DD 031c01H
	DD	012011cH
	DD	07015H
$unwind$cckd_check_null_trk DD 023319H
	DD	020090121H
	DD	imagerel __GSHandlerCheck
	DD	010030H
$unwind$cckd_cchh DD 021601H
	DD	02f0116H
$unwind$cckd_validate DD 093719H
	DD	01c0125H
	DD	0e01cf01eH
	DD	07018c01aH
	DD	050166017H
	DD	03015H
	DD	imagerel __GSHandlerCheck
	DD	0d0H
$unwind$cckd_sf_parse_sfn DD 022319H
	DD	02b0111H
	DD	imagerel __GSHandlerCheck
	DD	0140H
$unwind$cckd_sf_init DD 021e19H
	DD	08b010cH
	DD	imagerel __GSHandlerCheck
	DD	0440H
$unwind$cckd_sf_new DD 042019H
	DD	059010eH
	DD	060067007H
	DD	imagerel __GSHandlerCheck
	DD	02b0H
$unwind$cckd_lock_devchain DD 010801H
	DD	04208H
$unwind$cckd_unlock_devchain DD 010401H
	DD	04204H
$unwind$cckd_gcstart DD 020701H
	DD	0130107H
$unwind$cckd_gcol DD 021e19H
	DD	01b010cH
	DD	imagerel __GSHandlerCheck
	DD	0c0H
$unwind$cckd_gcol_dev DD 010e01H
	DD	0a20eH
$unwind$cckd_gc_state DD 010901H
	DD	08209H
$unwind$cckd_gc_rpt_state DD 020c01H
	DD	017010cH
$unwind$cckd_gc_percolate DD 022919H
	DD	080290117H
	DD	imagerel __GSHandlerCheck
	DD	040130H
$unwind$cckd_find_device_by_devnum DD 010901H
	DD	06209H
$unwind$cckd_uncompress DD 021b01H
	DD	01f011bH
$unwind$cckd_compress DD 011801H
	DD	08218H
$unwind$cckd_compress_zlib DD 011801H
	DD	06218H
$unwind$cckd_compress_bzip2 DD 011801H
	DD	06218H
$unwind$cckd_command DD 022219H
	DD	03f0110H
	DD	imagerel __GSHandlerCheck
	DD	01e0H
$unwind$cckd_command_help DD 021919H
	DD	0270107H
	DD	imagerel __GSHandlerCheck
	DD	0120H
$unwind$cckd_command_opts DD 021919H
	DD	0310107H
	DD	imagerel __GSHandlerCheck
	DD	0170H
$unwind$cckd_command_stats DD 021919H
	DD	01b0107H
	DD	imagerel __GSHandlerCheck
	DD	0c0H
$unwind$cckd_trace DD 022c19H
	DD	03d011aH
	DD	imagerel __GSHandlerCheck
	DD	01d0H
$unwind$cckd_print_itrace DD 020601H
	DD	07002b206H
$unwind$cckd_dtax DD 010401H
	DD	02204H
$unwind$cckd_sf_add DD 020c01H
	DD	019010cH
$unwind$cckd_sf_remove DD 032519H
	DD	022340113H
	DD	07006H
	DD	imagerel __GSHandlerCheck
	DD	011190H
$unwind$cckd_sf_comp DD 020c01H
	DD	015010cH
$unwind$cckd_sf_chk DD 020c01H
	DD	015010cH
$unwind$cckd_sf_stats DD 031f19H
	DD	042010dH
	DD	07006H
	DD	imagerel __GSHandlerCheck
	DD	0208H
$unwind$cckd_gc_rpt_states DD 010401H
	DD	06204H
$unwind$cckd_gc_perc_error DD 011801H
	DD	06218H
$unwind$cckd_gc_perc_space_error DD 021b01H
	DD	01d011bH
xdata	ENDS
;	COMDAT xdata
xdata	SEGMENT
$unwind$sscanf DD 011801H
	DD	06218H
xdata	ENDS
;	COMDAT xdata
xdata	SEGMENT
$unwind$_vsscanf_l DD 011801H
	DD	06218H
xdata	ENDS
; Function compile flags: /Odtp
; File C:\papa\MyGit\hyperion-zvector\cckddasd.c
_TEXT	SEGMENT
tv142 = 160
tv148 = 164
tv68 = 168
tv74 = 172
tv80 = 176
tv86 = 180
tv91 = 184
tv94 = 192
tv129 = 200
tv132 = 208
dev$ = 240
cckd$ = 248
upos$ = 256
i$ = 264
buf$ = 272
moved$ = 280
file$ = 288
line$ = 296
cckd_gc_perc_space_error PROC

; 5340 : {

  00000	44 89 4c 24 20	 mov	 DWORD PTR [rsp+32], r9d
  00005	4c 89 44 24 18	 mov	 QWORD PTR [rsp+24], r8
  0000a	48 89 54 24 10	 mov	 QWORD PTR [rsp+16], rdx
  0000f	48 89 4c 24 08	 mov	 QWORD PTR [rsp+8], rcx
  00014	48 81 ec e8 00
	00 00		 sub	 rsp, 232		; 000000e8H

; 5341 :     // "%1d:%04X CCKD file[%d] %s: %s(%d): offset 0x%16.16"PRIx64" unknown space %2.2x%2.2x%2.2x%2.2x%2.2x"
; 5342 : 
; 5343 :     WRMSG( HHC00342, "E", LCSS_DEVNUM,

  0001b	48 83 bc 24 f0
	00 00 00 00	 cmp	 QWORD PTR dev$[rsp], 0
  00024	74 15		 je	 SHORT $LN3@cckd_gc_pe
  00026	48 8b 84 24 f0
	00 00 00	 mov	 rax, QWORD PTR dev$[rsp]
  0002e	0f b7 40 48	 movzx	 eax, WORD PTR [rax+72]
  00032	89 84 24 a0 00
	00 00		 mov	 DWORD PTR tv142[rsp], eax
  00039	eb 0b		 jmp	 SHORT $LN4@cckd_gc_pe
$LN3@cckd_gc_pe:
  0003b	c7 84 24 a0 00
	00 00 00 00 00
	00		 mov	 DWORD PTR tv142[rsp], 0
$LN4@cckd_gc_pe:
  00046	48 83 bc 24 f0
	00 00 00 00	 cmp	 QWORD PTR dev$[rsp], 0
  0004f	74 17		 je	 SHORT $LN5@cckd_gc_pe
  00051	48 8b 84 24 f0
	00 00 00	 mov	 rax, QWORD PTR dev$[rsp]
  00059	0f b7 40 44	 movzx	 eax, WORD PTR [rax+68]
  0005d	d1 f8		 sar	 eax, 1
  0005f	89 84 24 a4 00
	00 00		 mov	 DWORD PTR tv148[rsp], eax
  00066	eb 0b		 jmp	 SHORT $LN6@cckd_gc_pe
$LN5@cckd_gc_pe:
  00068	c7 84 24 a4 00
	00 00 00 00 00
	00		 mov	 DWORD PTR tv148[rsp], 0
$LN6@cckd_gc_pe:
  00073	8b 84 24 08 01
	00 00		 mov	 eax, DWORD PTR i$[rsp]
  0007a	83 c0 04	 add	 eax, 4
  0007d	48 98		 cdqe
  0007f	48 8b 8c 24 10
	01 00 00	 mov	 rcx, QWORD PTR buf$[rsp]
  00087	0f b6 04 01	 movzx	 eax, BYTE PTR [rcx+rax]
  0008b	89 84 24 a8 00
	00 00		 mov	 DWORD PTR tv68[rsp], eax
  00092	8b 8c 24 08 01
	00 00		 mov	 ecx, DWORD PTR i$[rsp]
  00099	83 c1 03	 add	 ecx, 3
  0009c	48 63 c9	 movsxd	 rcx, ecx
  0009f	48 8b 94 24 10
	01 00 00	 mov	 rdx, QWORD PTR buf$[rsp]
  000a7	0f b6 0c 0a	 movzx	 ecx, BYTE PTR [rdx+rcx]
  000ab	89 8c 24 ac 00
	00 00		 mov	 DWORD PTR tv74[rsp], ecx
  000b2	8b 94 24 08 01
	00 00		 mov	 edx, DWORD PTR i$[rsp]
  000b9	83 c2 02	 add	 edx, 2
  000bc	48 63 d2	 movsxd	 rdx, edx
  000bf	4c 8b 84 24 10
	01 00 00	 mov	 r8, QWORD PTR buf$[rsp]
  000c7	41 0f b6 14 10	 movzx	 edx, BYTE PTR [r8+rdx]
  000cc	89 94 24 b0 00
	00 00		 mov	 DWORD PTR tv80[rsp], edx
  000d3	44 8b 84 24 08
	01 00 00	 mov	 r8d, DWORD PTR i$[rsp]
  000db	41 ff c0	 inc	 r8d
  000de	4d 63 c0	 movsxd	 r8, r8d
  000e1	4c 8b 8c 24 10
	01 00 00	 mov	 r9, QWORD PTR buf$[rsp]
  000e9	47 0f b6 04 01	 movzx	 r8d, BYTE PTR [r9+r8]
  000ee	44 89 84 24 b4
	00 00 00	 mov	 DWORD PTR tv86[rsp], r8d
  000f6	4c 63 8c 24 08
	01 00 00	 movsxd	 r9, DWORD PTR i$[rsp]
  000fe	4c 8b 94 24 10
	01 00 00	 mov	 r10, QWORD PTR buf$[rsp]
  00106	47 0f b6 0c 0a	 movzx	 r9d, BYTE PTR [r10+r9]
  0010b	44 89 8c 24 b8
	00 00 00	 mov	 DWORD PTR tv91[rsp], r9d
  00113	4c 63 94 24 08
	01 00 00	 movsxd	 r10, DWORD PTR i$[rsp]
  0011b	4c 8b 9c 24 00
	01 00 00	 mov	 r11, QWORD PTR upos$[rsp]
  00123	4d 03 da	 add	 r11, r10
  00126	4d 8b d3	 mov	 r10, r11
  00129	4c 89 94 24 c0
	00 00 00	 mov	 QWORD PTR tv94[rsp], r10
  00131	48 8b 8c 24 20
	01 00 00	 mov	 rcx, QWORD PTR file$[rsp]
  00139	ff 15 00 00 00
	00		 call	 QWORD PTR __imp_trimloc
  0013f	48 89 84 24 c8
	00 00 00	 mov	 QWORD PTR tv129[rsp], rax
  00147	48 8b 8c 24 f8
	00 00 00	 mov	 rcx, QWORD PTR cckd$[rsp]
  0014f	8b 51 3c	 mov	 edx, DWORD PTR [rcx+60]
  00152	48 8b 8c 24 f0
	00 00 00	 mov	 rcx, QWORD PTR dev$[rsp]
  0015a	e8 00 00 00 00	 call	 cckd_sf_name
  0015f	48 89 84 24 d0
	00 00 00	 mov	 QWORD PTR tv132[rsp], rax
  00167	b9 01 00 00 00	 mov	 ecx, 1
  0016c	ff 15 00 00 00
	00		 call	 QWORD PTR __imp___acrt_iob_func
  00172	8b 8c 24 a8 00
	00 00		 mov	 ecx, DWORD PTR tv68[rsp]
  00179	89 8c 24 90 00
	00 00		 mov	 DWORD PTR [rsp+144], ecx
  00180	8b 8c 24 ac 00
	00 00		 mov	 ecx, DWORD PTR tv74[rsp]
  00187	89 8c 24 88 00
	00 00		 mov	 DWORD PTR [rsp+136], ecx
  0018e	8b 8c 24 b0 00
	00 00		 mov	 ecx, DWORD PTR tv80[rsp]
  00195	89 8c 24 80 00
	00 00		 mov	 DWORD PTR [rsp+128], ecx
  0019c	8b 8c 24 b4 00
	00 00		 mov	 ecx, DWORD PTR tv86[rsp]
  001a3	89 4c 24 78	 mov	 DWORD PTR [rsp+120], ecx
  001a7	8b 8c 24 b8 00
	00 00		 mov	 ecx, DWORD PTR tv91[rsp]
  001ae	89 4c 24 70	 mov	 DWORD PTR [rsp+112], ecx
  001b2	48 8b 8c 24 c0
	00 00 00	 mov	 rcx, QWORD PTR tv94[rsp]
  001ba	48 89 4c 24 68	 mov	 QWORD PTR [rsp+104], rcx
  001bf	8b 8c 24 28 01
	00 00		 mov	 ecx, DWORD PTR line$[rsp]
  001c6	89 4c 24 60	 mov	 DWORD PTR [rsp+96], ecx
  001ca	48 8b 8c 24 c8
	00 00 00	 mov	 rcx, QWORD PTR tv129[rsp]
  001d2	48 89 4c 24 58	 mov	 QWORD PTR [rsp+88], rcx
  001d7	48 8b 8c 24 d0
	00 00 00	 mov	 rcx, QWORD PTR tv132[rsp]
  001df	48 89 4c 24 50	 mov	 QWORD PTR [rsp+80], rcx
  001e4	48 8b 8c 24 f8
	00 00 00	 mov	 rcx, QWORD PTR cckd$[rsp]
  001ec	8b 49 3c	 mov	 ecx, DWORD PTR [rcx+60]
  001ef	89 4c 24 48	 mov	 DWORD PTR [rsp+72], ecx
  001f3	8b 8c 24 a0 00
	00 00		 mov	 ecx, DWORD PTR tv142[rsp]
  001fa	89 4c 24 40	 mov	 DWORD PTR [rsp+64], ecx
  001fe	8b 8c 24 a4 00
	00 00		 mov	 ecx, DWORD PTR tv148[rsp]
  00205	89 4c 24 38	 mov	 DWORD PTR [rsp+56], ecx
  00209	48 8d 0d 00 00
	00 00		 lea	 rcx, OFFSET FLAT:$SG172483
  00210	48 89 4c 24 30	 mov	 QWORD PTR [rsp+48], rcx
  00215	48 8d 0d 00 00
	00 00		 lea	 rcx, OFFSET FLAT:$SG172484
  0021c	48 89 4c 24 28	 mov	 QWORD PTR [rsp+40], rcx
  00221	48 89 44 24 20	 mov	 QWORD PTR [rsp+32], rax
  00226	41 b9 03 00 00
	00		 mov	 r9d, 3
  0022c	4c 8d 05 00 00
	00 00		 lea	 r8, OFFSET FLAT:$SG172485
  00233	ba e1 14 00 00	 mov	 edx, 5345		; 000014e1H
  00238	48 8d 0d 00 00
	00 00		 lea	 rcx, OFFSET FLAT:$SG172486
  0023f	ff 15 00 00 00
	00		 call	 QWORD PTR __imp_fwritemsg

; 5344 :             cckd->sfn, cckd_sf_name( dev, cckd->sfn ), TRIMLOC( file ), line,
; 5345 :             upos + i, buf[i], buf[i+1],buf[i+2], buf[i+3], buf[i+4]);
; 5346 : 
; 5347 :     cckd->cdevhdr[ cckd->sfn ].cdh_opts |= CCKD_OPT_SPERRS;

  00245	48 8b 84 24 f8
	00 00 00	 mov	 rax, QWORD PTR cckd$[rsp]
  0024d	48 63 40 3c	 movsxd	 rax, DWORD PTR [rax+60]
  00251	48 69 c0 00 02
	00 00		 imul	 rax, rax, 512		; 00000200H
  00258	48 8b 8c 24 f8
	00 00 00	 mov	 rcx, QWORD PTR cckd$[rsp]
  00260	0f b6 84 01 e3
	01 00 00	 movzx	 eax, BYTE PTR [rcx+rax+483]
  00268	83 c8 20	 or	 eax, 32			; 00000020H
  0026b	48 8b 8c 24 f8
	00 00 00	 mov	 rcx, QWORD PTR cckd$[rsp]
  00273	48 63 49 3c	 movsxd	 rcx, DWORD PTR [rcx+60]
  00277	48 69 c9 00 02
	00 00		 imul	 rcx, rcx, 512		; 00000200H
  0027e	48 8b 94 24 f8
	00 00 00	 mov	 rdx, QWORD PTR cckd$[rsp]
  00286	88 84 0a e3 01
	00 00		 mov	 BYTE PTR [rdx+rcx+483], al

; 5348 :     cckd_print_itrace();

  0028d	e8 00 00 00 00	 call	 cckd_print_itrace

; 5349 :     return cckd_gc_perc_error( dev, cckd, moved, file, line );

  00292	8b 84 24 28 01
	00 00		 mov	 eax, DWORD PTR line$[rsp]
  00299	89 44 24 20	 mov	 DWORD PTR [rsp+32], eax
  0029d	4c 8b 8c 24 20
	01 00 00	 mov	 r9, QWORD PTR file$[rsp]
  002a5	44 8b 84 24 18
	01 00 00	 mov	 r8d, DWORD PTR moved$[rsp]
  002ad	48 8b 94 24 f8
	00 00 00	 mov	 rdx, QWORD PTR cckd$[rsp]
  002b5	48 8b 8c 24 f0
	00 00 00	 mov	 rcx, QWORD PTR dev$[rsp]
  002bd	e8 00 00 00 00	 call	 cckd_gc_perc_error

; 5350 : }

  002c2	48 81 c4 e8 00
	00 00		 add	 rsp, 232		; 000000e8H
  002c9	c3		 ret	 0
cckd_gc_perc_space_error ENDP
_TEXT	ENDS
; Function compile flags: /Odtp
; File C:\papa\MyGit\hyperion-zvector\cckddasd.c
_TEXT	SEGMENT
dev$ = 64
cckd$ = 72
moved$ = 80
file$ = 88
line$ = 96
cckd_gc_perc_error PROC

; 5331 : {

  00000	4c 89 4c 24 20	 mov	 QWORD PTR [rsp+32], r9
  00005	44 89 44 24 18	 mov	 DWORD PTR [rsp+24], r8d
  0000a	48 89 54 24 10	 mov	 QWORD PTR [rsp+16], rdx
  0000f	48 89 4c 24 08	 mov	 QWORD PTR [rsp+8], rcx
  00014	48 83 ec 38	 sub	 rsp, 56			; 00000038H

; 5332 :     cckd_trace( file, line, dev, "gcperc exiting due to error, moved %u", moved );

  00018	8b 44 24 50	 mov	 eax, DWORD PTR moved$[rsp]
  0001c	89 44 24 20	 mov	 DWORD PTR [rsp+32], eax
  00020	4c 8d 0d 00 00
	00 00		 lea	 r9, OFFSET FLAT:$SG172463
  00027	4c 8b 44 24 40	 mov	 r8, QWORD PTR dev$[rsp]
  0002c	8b 54 24 60	 mov	 edx, DWORD PTR line$[rsp]
  00030	48 8b 4c 24 58	 mov	 rcx, QWORD PTR file$[rsp]
  00035	e8 00 00 00 00	 call	 cckd_trace

; 5333 :     release_lock( &cckd->filelock );

  0003a	48 8b 44 24 48	 mov	 rax, QWORD PTR cckd$[rsp]
  0003f	48 83 c0 10	 add	 rax, 16
  00043	48 8d 15 00 00
	00 00		 lea	 rdx, OFFSET FLAT:$SG172464
  0004a	48 8b c8	 mov	 rcx, rax
  0004d	ff 15 00 00 00
	00		 call	 QWORD PTR __imp_hthread_release_lock

; 5334 :     return moved;

  00053	8b 44 24 50	 mov	 eax, DWORD PTR moved$[rsp]

; 5335 : }

  00057	48 83 c4 38	 add	 rsp, 56			; 00000038H
  0005b	c3		 ret	 0
cckd_gc_perc_error ENDP
_TEXT	ENDS
; Function compile flags: /Odtp
; File C:\papa\MyGit\hyperion-zvector\cckddasd.c
_TEXT	SEGMENT
dev$1 = 32
cckd$2 = 40
cckd_gc_rpt_states PROC

; 5115 : {

$LN7:
  00000	48 83 ec 38	 sub	 rsp, 56			; 00000038H

; 5116 :     if (cckdblk.gcmsgs)     // (only if they're interested)

  00004	83 3d 4c 02 00
	00 00		 cmp	 DWORD PTR cckdblk+588, 0
  0000b	74 68		 je	 SHORT $LN5@cckd_gc_rp

; 5117 :     {
; 5118 :         CCKD_EXT*  cckd;                /* -> cckd extension         */
; 5119 :         DEVBLK*    dev;                 /* -> device                 */
; 5120 : 
; 5121 :         obtain_lock( &cckdblk.devlock );

  0000d	48 8d 15 00 00
	00 00		 lea	 rdx, OFFSET FLAT:$SG172360
  00014	48 8d 0d 30 02
	00 00		 lea	 rcx, OFFSET FLAT:cckdblk+560
  0001b	ff 15 00 00 00
	00		 call	 QWORD PTR __imp_hthread_obtain_lock

; 5122 :         {
; 5123 :             for (dev = cckdblk.dev1st; dev; dev = cckd->devnext)

  00021	48 8b 05 08 00
	00 00		 mov	 rax, QWORD PTR cckdblk+8
  00028	48 89 44 24 20	 mov	 QWORD PTR dev$1[rsp], rax
  0002d	eb 0d		 jmp	 SHORT $LN4@cckd_gc_rp
$LN2@cckd_gc_rp:
  0002f	48 8b 44 24 28	 mov	 rax, QWORD PTR cckd$2[rsp]
  00034	48 8b 00	 mov	 rax, QWORD PTR [rax]
  00037	48 89 44 24 20	 mov	 QWORD PTR dev$1[rsp], rax
$LN4@cckd_gc_rp:
  0003c	48 83 7c 24 20
	00		 cmp	 QWORD PTR dev$1[rsp], 0
  00042	74 1d		 je	 SHORT $LN3@cckd_gc_rp

; 5124 :             {
; 5125 :                 cckd = dev->cckd_ext;

  00044	48 8b 44 24 20	 mov	 rax, QWORD PTR dev$1[rsp]
  00049	48 8b 80 08 13
	00 00		 mov	 rax, QWORD PTR [rax+4872]
  00050	48 89 44 24 28	 mov	 QWORD PTR cckd$2[rsp], rax

; 5126 :                 cckd_gc_rpt_state( dev );

  00055	48 8b 4c 24 20	 mov	 rcx, QWORD PTR dev$1[rsp]
  0005a	e8 00 00 00 00	 call	 cckd_gc_rpt_state

; 5127 :             }

  0005f	eb ce		 jmp	 SHORT $LN2@cckd_gc_rp
$LN3@cckd_gc_rp:

; 5128 :         }
; 5129 :         release_lock( &cckdblk.devlock );

  00061	48 8d 15 00 00
	00 00		 lea	 rdx, OFFSET FLAT:$SG172361
  00068	48 8d 0d 30 02
	00 00		 lea	 rcx, OFFSET FLAT:cckdblk+560
  0006f	ff 15 00 00 00
	00		 call	 QWORD PTR __imp_hthread_release_lock
$LN5@cckd_gc_rp:

; 5130 :     }
; 5131 : }

  00075	48 83 c4 38	 add	 rsp, 56			; 00000038H
  00079	c3		 ret	 0
cckd_gc_rpt_states ENDP
_TEXT	ENDS
; Function compile flags: /Odtp
; File C:\papa\MyGit\hyperion-zvector\cckddasd.c
_TEXT	SEGMENT
dev$ = 144
i$ = 152
cckd$ = 160
n$1 = 168
free_count$ = 172
usize$ = 176
tv149 = 184
tv155 = 188
tv218 = 192
tv224 = 196
tv242 = 200
tv248 = 204
tv262 = 208
tv268 = 212
tv338 = 216
tv344 = 220
tv366 = 224
tv372 = 228
tv388 = 232
tv394 = 236
tv456 = 240
tv477 = 244
tv483 = 248
tv566 = 252
tv572 = 256
tv450 = 260
tv77 = 264
tv83 = 268
ufree$ = 272
tv326 = 280
tv333 = 288
tv438 = 296
tv445 = 304
tv547 = 312
tv560 = 320
tv173 = 328
tv321 = 336
tv383 = 344
tv406 = 352
tv410 = 360
tv414 = 368
tv428 = 376
tv470 = 384
tv498 = 392
tv503 = 400
tv508 = 408
tv525 = 416
tv554 = 424
st$ = 432
ost$ = 488
__$ArrayPad$ = 520
data$ = 544
cckd_sf_stats PROC

; 4752 : {

$LN80:
  00000	48 89 4c 24 08	 mov	 QWORD PTR [rsp+8], rcx
  00005	57		 push	 rdi
  00006	48 81 ec 10 02
	00 00		 sub	 rsp, 528		; 00000210H
  0000d	48 8b 05 00 00
	00 00		 mov	 rax, QWORD PTR __security_cookie
  00014	48 33 c4	 xor	 rax, rsp
  00017	48 89 84 24 08
	02 00 00	 mov	 QWORD PTR __$ArrayPad$[rsp], rax

; 4753 : DEVBLK         *dev = data;             /* -> DEVBLK                 */

  0001f	48 8b 84 24 20
	02 00 00	 mov	 rax, QWORD PTR data$[rsp]
  00027	48 89 84 24 90
	00 00 00	 mov	 QWORD PTR dev$[rsp], rax

; 4754 : CCKD_EXT       *cckd;                   /* -> cckd extension         */
; 4755 : struct stat     st = {0};               /* File information          */

  0002f	48 8d 84 24 b0
	01 00 00	 lea	 rax, QWORD PTR st$[rsp]
  00037	48 8b f8	 mov	 rdi, rax
  0003a	33 c0		 xor	 eax, eax
  0003c	b9 38 00 00 00	 mov	 ecx, 56			; 00000038H
  00041	f3 aa		 rep stosb

; 4756 : int             i;                      /* Index                     */
; 4757 : char           *ost[] = {"  ", "ro", "rd", "rw"};

  00043	48 8d 05 00 00
	00 00		 lea	 rax, OFFSET FLAT:$SG172140
  0004a	48 89 84 24 e8
	01 00 00	 mov	 QWORD PTR ost$[rsp], rax
  00052	48 8d 05 00 00
	00 00		 lea	 rax, OFFSET FLAT:$SG172142
  00059	48 89 84 24 f0
	01 00 00	 mov	 QWORD PTR ost$[rsp+8], rax
  00061	48 8d 05 00 00
	00 00		 lea	 rax, OFFSET FLAT:$SG172144
  00068	48 89 84 24 f8
	01 00 00	 mov	 QWORD PTR ost$[rsp+16], rax
  00070	48 8d 05 00 00
	00 00		 lea	 rax, OFFSET FLAT:$SG172146
  00077	48 89 84 24 00
	02 00 00	 mov	 QWORD PTR ost$[rsp+24], rax

; 4758 : U64             usize=0,ufree=0;        /* Total size, free space    */

  0007f	48 c7 84 24 b0
	00 00 00 00 00
	00 00		 mov	 QWORD PTR usize$[rsp], 0
  0008b	48 c7 84 24 10
	01 00 00 00 00
	00 00		 mov	 QWORD PTR ufree$[rsp], 0

; 4759 : int             free_count=0;           /* Total number free spaces  */

  00097	c7 84 24 ac 00
	00 00 00 00 00
	00		 mov	 DWORD PTR free_count$[rsp], 0

; 4760 : 
; 4761 :     /* NULL DEVBLK == all devices? */
; 4762 :     if (!dev)

  000a2	48 83 bc 24 90
	00 00 00 00	 cmp	 QWORD PTR dev$[rsp], 0
  000ab	0f 85 8c 01 00
	00		 jne	 $LN11@cckd_sf_st

; 4763 :     {
; 4764 :     int n = 0;

  000b1	c7 84 24 a8 00
	00 00 00 00 00
	00		 mov	 DWORD PTR n$1[rsp], 0

; 4765 :         for (dev=sysblk.firstdev; dev; dev=dev->nextdev)

  000bc	48 8b 05 00 00
	00 00		 mov	 rax, QWORD PTR __imp_sysblk
  000c3	48 8b 80 c0 11
	00 00		 mov	 rax, QWORD PTR [rax+4544]
  000ca	48 89 84 24 90
	00 00 00	 mov	 QWORD PTR dev$[rsp], rax
  000d2	eb 14		 jmp	 SHORT $LN4@cckd_sf_st
$LN2@cckd_sf_st:
  000d4	48 8b 84 24 90
	00 00 00	 mov	 rax, QWORD PTR dev$[rsp]
  000dc	48 8b 40 30	 mov	 rax, QWORD PTR [rax+48]
  000e0	48 89 84 24 90
	00 00 00	 mov	 QWORD PTR dev$[rsp], rax
$LN4@cckd_sf_st:
  000e8	48 83 bc 24 90
	00 00 00 00	 cmp	 QWORD PTR dev$[rsp], 0
  000f1	0f 84 ed 00 00
	00		 je	 $LN3@cckd_sf_st

; 4766 :         {
; 4767 :             if (dev->cckd_ext)  /* Is this a compressed device? */

  000f7	48 8b 84 24 90
	00 00 00	 mov	 rax, QWORD PTR dev$[rsp]
  000ff	48 83 b8 08 13
	00 00 00	 cmp	 QWORD PTR [rax+4872], 0
  00107	0f 84 d2 00 00
	00		 je	 $LN12@cckd_sf_st

; 4768 :             {
; 4769 :                 // "%1d:%04X CCKD file: display cckd statistics"
; 4770 :                 WRMSG( HHC00332, "I", LCSS_DEVNUM );

  0010d	48 83 bc 24 90
	00 00 00 00	 cmp	 QWORD PTR dev$[rsp], 0
  00116	74 15		 je	 SHORT $LN24@cckd_sf_st
  00118	48 8b 84 24 90
	00 00 00	 mov	 rax, QWORD PTR dev$[rsp]
  00120	0f b7 40 48	 movzx	 eax, WORD PTR [rax+72]
  00124	89 84 24 08 01
	00 00		 mov	 DWORD PTR tv77[rsp], eax
  0012b	eb 0b		 jmp	 SHORT $LN25@cckd_sf_st
$LN24@cckd_sf_st:
  0012d	c7 84 24 08 01
	00 00 00 00 00
	00		 mov	 DWORD PTR tv77[rsp], 0
$LN25@cckd_sf_st:
  00138	48 83 bc 24 90
	00 00 00 00	 cmp	 QWORD PTR dev$[rsp], 0
  00141	74 17		 je	 SHORT $LN26@cckd_sf_st
  00143	48 8b 84 24 90
	00 00 00	 mov	 rax, QWORD PTR dev$[rsp]
  0014b	0f b7 40 44	 movzx	 eax, WORD PTR [rax+68]
  0014f	d1 f8		 sar	 eax, 1
  00151	89 84 24 0c 01
	00 00		 mov	 DWORD PTR tv83[rsp], eax
  00158	eb 0b		 jmp	 SHORT $LN27@cckd_sf_st
$LN26@cckd_sf_st:
  0015a	c7 84 24 0c 01
	00 00 00 00 00
	00		 mov	 DWORD PTR tv83[rsp], 0
$LN27@cckd_sf_st:
  00165	b9 01 00 00 00	 mov	 ecx, 1
  0016a	ff 15 00 00 00
	00		 call	 QWORD PTR __imp___acrt_iob_func
  00170	8b 8c 24 08 01
	00 00		 mov	 ecx, DWORD PTR tv77[rsp]
  00177	89 4c 24 40	 mov	 DWORD PTR [rsp+64], ecx
  0017b	8b 8c 24 0c 01
	00 00		 mov	 ecx, DWORD PTR tv83[rsp]
  00182	89 4c 24 38	 mov	 DWORD PTR [rsp+56], ecx
  00186	48 8d 0d 00 00
	00 00		 lea	 rcx, OFFSET FLAT:$SG172149
  0018d	48 89 4c 24 30	 mov	 QWORD PTR [rsp+48], rcx
  00192	48 8d 0d 00 00
	00 00		 lea	 rcx, OFFSET FLAT:$SG172150
  00199	48 89 4c 24 28	 mov	 QWORD PTR [rsp+40], rcx
  0019e	48 89 44 24 20	 mov	 QWORD PTR [rsp+32], rax
  001a3	41 b9 03 00 00
	00		 mov	 r9d, 3
  001a9	4c 8d 05 00 00
	00 00		 lea	 r8, OFFSET FLAT:$SG172151
  001b0	ba a2 12 00 00	 mov	 edx, 4770		; 000012a2H
  001b5	48 8d 0d 00 00
	00 00		 lea	 rcx, OFFSET FLAT:$SG172152
  001bc	ff 15 00 00 00
	00		 call	 QWORD PTR __imp_fwritemsg

; 4771 :                 cckd_sf_stats( dev );

  001c2	48 8b 8c 24 90
	00 00 00	 mov	 rcx, QWORD PTR dev$[rsp]
  001ca	e8 00 00 00 00	 call	 cckd_sf_stats

; 4772 :                 n++;

  001cf	8b 84 24 a8 00
	00 00		 mov	 eax, DWORD PTR n$1[rsp]
  001d6	ff c0		 inc	 eax
  001d8	89 84 24 a8 00
	00 00		 mov	 DWORD PTR n$1[rsp], eax
$LN12@cckd_sf_st:

; 4773 :             }
; 4774 :         }

  001df	e9 f0 fe ff ff	 jmp	 $LN2@cckd_sf_st
$LN3@cckd_sf_st:

; 4775 :         // "CCKD file number of devices processed: %d"
; 4776 :         WRMSG( HHC00316, "I", n );

  001e4	b9 01 00 00 00	 mov	 ecx, 1
  001e9	ff 15 00 00 00
	00		 call	 QWORD PTR __imp___acrt_iob_func
  001ef	8b 8c 24 a8 00
	00 00		 mov	 ecx, DWORD PTR n$1[rsp]
  001f6	89 4c 24 38	 mov	 DWORD PTR [rsp+56], ecx
  001fa	48 8d 0d 00 00
	00 00		 lea	 rcx, OFFSET FLAT:$SG172153
  00201	48 89 4c 24 30	 mov	 QWORD PTR [rsp+48], rcx
  00206	48 8d 0d 00 00
	00 00		 lea	 rcx, OFFSET FLAT:$SG172154
  0020d	48 89 4c 24 28	 mov	 QWORD PTR [rsp+40], rcx
  00212	48 89 44 24 20	 mov	 QWORD PTR [rsp+32], rax
  00217	41 b9 03 00 00
	00		 mov	 r9d, 3
  0021d	4c 8d 05 00 00
	00 00		 lea	 r8, OFFSET FLAT:$SG172155
  00224	ba a8 12 00 00	 mov	 edx, 4776		; 000012a8H
  00229	48 8d 0d 00 00
	00 00		 lea	 rcx, OFFSET FLAT:$SG172156
  00230	ff 15 00 00 00
	00		 call	 QWORD PTR __imp_fwritemsg

; 4777 :         return NULL;

  00236	33 c0		 xor	 eax, eax
  00238	e9 a5 0e 00 00	 jmp	 $LN1@cckd_sf_st
$LN11@cckd_sf_st:

; 4778 :     }
; 4779 : 
; 4780 :     if (dev->cckd64)

  0023d	48 8b 84 24 90
	00 00 00	 mov	 rax, QWORD PTR dev$[rsp]
  00245	0f b6 80 10 13
	00 00		 movzx	 eax, BYTE PTR [rax+4880]
  0024c	24 01		 and	 al, 1
  0024e	0f b6 c0	 movzx	 eax, al
  00251	85 c0		 test	 eax, eax
  00253	74 12		 je	 SHORT $LN13@cckd_sf_st

; 4781 :         return cckd64_sf_stats( data );

  00255	48 8b 8c 24 20
	02 00 00	 mov	 rcx, QWORD PTR data$[rsp]
  0025d	e8 00 00 00 00	 call	 cckd64_sf_stats
  00262	e9 7b 0e 00 00	 jmp	 $LN1@cckd_sf_st
$LN13@cckd_sf_st:

; 4782 : 
; 4783 :     if (!(cckd = dev->cckd_ext))

  00267	48 8b 84 24 90
	00 00 00	 mov	 rax, QWORD PTR dev$[rsp]
  0026f	48 8b 80 08 13
	00 00		 mov	 rax, QWORD PTR [rax+4872]
  00276	48 89 84 24 a0
	00 00 00	 mov	 QWORD PTR cckd$[rsp], rax
  0027e	48 83 bc 24 a0
	00 00 00 00	 cmp	 QWORD PTR cckd$[rsp], 0
  00287	0f 85 bc 00 00
	00		 jne	 $LN14@cckd_sf_st

; 4784 :     {
; 4785 :         // "%1d:%04X CCKD file: device is not a cckd device"
; 4786 :         WRMSG( HHC00317, "W", LCSS_DEVNUM );

  0028d	48 83 bc 24 90
	00 00 00 00	 cmp	 QWORD PTR dev$[rsp], 0
  00296	74 15		 je	 SHORT $LN28@cckd_sf_st
  00298	48 8b 84 24 90
	00 00 00	 mov	 rax, QWORD PTR dev$[rsp]
  002a0	0f b7 40 48	 movzx	 eax, WORD PTR [rax+72]
  002a4	89 84 24 b8 00
	00 00		 mov	 DWORD PTR tv149[rsp], eax
  002ab	eb 0b		 jmp	 SHORT $LN29@cckd_sf_st
$LN28@cckd_sf_st:
  002ad	c7 84 24 b8 00
	00 00 00 00 00
	00		 mov	 DWORD PTR tv149[rsp], 0
$LN29@cckd_sf_st:
  002b8	48 83 bc 24 90
	00 00 00 00	 cmp	 QWORD PTR dev$[rsp], 0
  002c1	74 17		 je	 SHORT $LN30@cckd_sf_st
  002c3	48 8b 84 24 90
	00 00 00	 mov	 rax, QWORD PTR dev$[rsp]
  002cb	0f b7 40 44	 movzx	 eax, WORD PTR [rax+68]
  002cf	d1 f8		 sar	 eax, 1
  002d1	89 84 24 bc 00
	00 00		 mov	 DWORD PTR tv155[rsp], eax
  002d8	eb 0b		 jmp	 SHORT $LN31@cckd_sf_st
$LN30@cckd_sf_st:
  002da	c7 84 24 bc 00
	00 00 00 00 00
	00		 mov	 DWORD PTR tv155[rsp], 0
$LN31@cckd_sf_st:
  002e5	b9 01 00 00 00	 mov	 ecx, 1
  002ea	ff 15 00 00 00
	00		 call	 QWORD PTR __imp___acrt_iob_func
  002f0	8b 8c 24 b8 00
	00 00		 mov	 ecx, DWORD PTR tv149[rsp]
  002f7	89 4c 24 40	 mov	 DWORD PTR [rsp+64], ecx
  002fb	8b 8c 24 bc 00
	00 00		 mov	 ecx, DWORD PTR tv155[rsp]
  00302	89 4c 24 38	 mov	 DWORD PTR [rsp+56], ecx
  00306	48 8d 0d 00 00
	00 00		 lea	 rcx, OFFSET FLAT:$SG172159
  0030d	48 89 4c 24 30	 mov	 QWORD PTR [rsp+48], rcx
  00312	48 8d 0d 00 00
	00 00		 lea	 rcx, OFFSET FLAT:$SG172160
  00319	48 89 4c 24 28	 mov	 QWORD PTR [rsp+40], rcx
  0031e	48 89 44 24 20	 mov	 QWORD PTR [rsp+32], rax
  00323	41 b9 03 00 00
	00		 mov	 r9d, 3
  00329	4c 8d 05 00 00
	00 00		 lea	 r8, OFFSET FLAT:$SG172161
  00330	ba b2 12 00 00	 mov	 edx, 4786		; 000012b2H
  00335	48 8d 0d 00 00
	00 00		 lea	 rcx, OFFSET FLAT:$SG172162
  0033c	ff 15 00 00 00
	00		 call	 QWORD PTR __imp_fwritemsg

; 4787 :         return NULL;

  00342	33 c0		 xor	 eax, eax
  00344	e9 99 0d 00 00	 jmp	 $LN1@cckd_sf_st
$LN14@cckd_sf_st:

; 4788 :     }
; 4789 : 
; 4790 :     /* Calculate totals */
; 4791 :     if (fstat( cckd->fd[0], &st ) != 0)

  00349	b8 04 00 00 00	 mov	 eax, 4
  0034e	48 6b c0 00	 imul	 rax, rax, 0
  00352	48 8d 94 24 b0
	01 00 00	 lea	 rdx, QWORD PTR st$[rsp]
  0035a	48 8b 8c 24 a0
	00 00 00	 mov	 rcx, QWORD PTR cckd$[rsp]
  00362	8b 8c 01 f0 00
	00 00		 mov	 ecx, DWORD PTR [rcx+rax+240]
  00369	ff 15 00 00 00
	00		 call	 QWORD PTR __imp__fstat64
  0036f	85 c0		 test	 eax, eax
  00371	0f 84 8a 00 00
	00		 je	 $LN15@cckd_sf_st

; 4792 :     {
; 4793 :         // "Error in function %s: %s"
; 4794 :         WRMSG( HHC00075, "E", "fstat()", strerror( errno ));

  00377	ff 15 00 00 00
	00		 call	 QWORD PTR __imp__errno
  0037d	8b 08		 mov	 ecx, DWORD PTR [rax]
  0037f	ff 15 00 00 00
	00		 call	 QWORD PTR __imp_w32_strerror
  00385	48 89 84 24 48
	01 00 00	 mov	 QWORD PTR tv173[rsp], rax
  0038d	b9 01 00 00 00	 mov	 ecx, 1
  00392	ff 15 00 00 00
	00		 call	 QWORD PTR __imp___acrt_iob_func
  00398	48 8b 8c 24 48
	01 00 00	 mov	 rcx, QWORD PTR tv173[rsp]
  003a0	48 89 4c 24 40	 mov	 QWORD PTR [rsp+64], rcx
  003a5	48 8d 0d 00 00
	00 00		 lea	 rcx, OFFSET FLAT:$SG172164
  003ac	48 89 4c 24 38	 mov	 QWORD PTR [rsp+56], rcx
  003b1	48 8d 0d 00 00
	00 00		 lea	 rcx, OFFSET FLAT:$SG172165
  003b8	48 89 4c 24 30	 mov	 QWORD PTR [rsp+48], rcx
  003bd	48 8d 0d 00 00
	00 00		 lea	 rcx, OFFSET FLAT:$SG172166
  003c4	48 89 4c 24 28	 mov	 QWORD PTR [rsp+40], rcx
  003c9	48 89 44 24 20	 mov	 QWORD PTR [rsp+32], rax
  003ce	41 b9 03 00 00
	00		 mov	 r9d, 3
  003d4	4c 8d 05 00 00
	00 00		 lea	 r8, OFFSET FLAT:$SG172167
  003db	ba ba 12 00 00	 mov	 edx, 4794		; 000012baH
  003e0	48 8d 0d 00 00
	00 00		 lea	 rcx, OFFSET FLAT:$SG172168
  003e7	ff 15 00 00 00
	00		 call	 QWORD PTR __imp_fwritemsg

; 4795 :         memset( &st, 0, sizeof( st ));

  003ed	48 8d 84 24 b0
	01 00 00	 lea	 rax, QWORD PTR st$[rsp]
  003f5	48 8b f8	 mov	 rdi, rax
  003f8	33 c0		 xor	 eax, eax
  003fa	b9 38 00 00 00	 mov	 ecx, 56			; 00000038H
  003ff	f3 aa		 rep stosb
$LN15@cckd_sf_st:

; 4796 :     }
; 4797 :     for (i=0; i <= cckd->sfn; i++)

  00401	c7 84 24 98 00
	00 00 00 00 00
	00		 mov	 DWORD PTR i$[rsp], 0
  0040c	eb 10		 jmp	 SHORT $LN7@cckd_sf_st
$LN5@cckd_sf_st:
  0040e	8b 84 24 98 00
	00 00		 mov	 eax, DWORD PTR i$[rsp]
  00415	ff c0		 inc	 eax
  00417	89 84 24 98 00
	00 00		 mov	 DWORD PTR i$[rsp], eax
$LN7@cckd_sf_st:
  0041e	48 8b 84 24 a0
	00 00 00	 mov	 rax, QWORD PTR cckd$[rsp]
  00426	8b 40 3c	 mov	 eax, DWORD PTR [rax+60]
  00429	39 84 24 98 00
	00 00		 cmp	 DWORD PTR i$[rsp], eax
  00430	0f 8f b9 00 00
	00		 jg	 $LN6@cckd_sf_st

; 4798 :     {
; 4799 :         if (!i) usize = st.st_size;

  00436	83 bc 24 98 00
	00 00 00	 cmp	 DWORD PTR i$[rsp], 0
  0043e	75 12		 jne	 SHORT $LN16@cckd_sf_st
  00440	48 8b 84 24 c8
	01 00 00	 mov	 rax, QWORD PTR st$[rsp+24]
  00448	48 89 84 24 b0
	00 00 00	 mov	 QWORD PTR usize$[rsp], rax
  00450	eb 34		 jmp	 SHORT $LN17@cckd_sf_st
$LN16@cckd_sf_st:

; 4800 :         else usize += cckd->cdevhdr[i].cdh_size;

  00452	48 63 84 24 98
	00 00 00	 movsxd	 rax, DWORD PTR i$[rsp]
  0045a	48 69 c0 00 02
	00 00		 imul	 rax, rax, 512		; 00000200H
  00461	48 8b 8c 24 a0
	00 00 00	 mov	 rcx, QWORD PTR cckd$[rsp]
  00469	8b 84 01 ec 01
	00 00		 mov	 eax, DWORD PTR [rcx+rax+492]
  00470	48 8b 8c 24 b0
	00 00 00	 mov	 rcx, QWORD PTR usize$[rsp]
  00478	48 03 c8	 add	 rcx, rax
  0047b	48 8b c1	 mov	 rax, rcx
  0047e	48 89 84 24 b0
	00 00 00	 mov	 QWORD PTR usize$[rsp], rax
$LN17@cckd_sf_st:

; 4801 :         ufree += cckd->cdevhdr[i].free_total;

  00486	48 63 84 24 98
	00 00 00	 movsxd	 rax, DWORD PTR i$[rsp]
  0048e	48 69 c0 00 02
	00 00		 imul	 rax, rax, 512		; 00000200H
  00495	48 8b 8c 24 a0
	00 00 00	 mov	 rcx, QWORD PTR cckd$[rsp]
  0049d	8b 84 01 f8 01
	00 00		 mov	 eax, DWORD PTR [rcx+rax+504]
  004a4	48 8b 8c 24 10
	01 00 00	 mov	 rcx, QWORD PTR ufree$[rsp]
  004ac	48 03 c8	 add	 rcx, rax
  004af	48 8b c1	 mov	 rax, rcx
  004b2	48 89 84 24 10
	01 00 00	 mov	 QWORD PTR ufree$[rsp], rax

; 4802 :         free_count += cckd->cdevhdr[i].free_num;

  004ba	48 63 84 24 98
	00 00 00	 movsxd	 rax, DWORD PTR i$[rsp]
  004c2	48 69 c0 00 02
	00 00		 imul	 rax, rax, 512		; 00000200H
  004c9	48 8b 8c 24 a0
	00 00 00	 mov	 rcx, QWORD PTR cckd$[rsp]
  004d1	8b 84 01 00 02
	00 00		 mov	 eax, DWORD PTR [rcx+rax+512]
  004d8	8b 8c 24 ac 00
	00 00		 mov	 ecx, DWORD PTR free_count$[rsp]
  004df	03 c8		 add	 ecx, eax
  004e1	8b c1		 mov	 eax, ecx
  004e3	89 84 24 ac 00
	00 00		 mov	 DWORD PTR free_count$[rsp], eax

; 4803 :     }

  004ea	e9 1f ff ff ff	 jmp	 $LN5@cckd_sf_st
$LN6@cckd_sf_st:

; 4804 : 
; 4805 :     /* header */
; 4806 : 
; 4807 :     // "%1d:%04X   32/64       size free  nbr st   reads  writes l2reads    hits switches"
; 4808 :     WRMSG (HHC00333, "I", LCSS_DEVNUM);

  004ef	48 83 bc 24 90
	00 00 00 00	 cmp	 QWORD PTR dev$[rsp], 0
  004f8	74 15		 je	 SHORT $LN32@cckd_sf_st
  004fa	48 8b 84 24 90
	00 00 00	 mov	 rax, QWORD PTR dev$[rsp]
  00502	0f b7 40 48	 movzx	 eax, WORD PTR [rax+72]
  00506	89 84 24 c0 00
	00 00		 mov	 DWORD PTR tv218[rsp], eax
  0050d	eb 0b		 jmp	 SHORT $LN33@cckd_sf_st
$LN32@cckd_sf_st:
  0050f	c7 84 24 c0 00
	00 00 00 00 00
	00		 mov	 DWORD PTR tv218[rsp], 0
$LN33@cckd_sf_st:
  0051a	48 83 bc 24 90
	00 00 00 00	 cmp	 QWORD PTR dev$[rsp], 0
  00523	74 17		 je	 SHORT $LN34@cckd_sf_st
  00525	48 8b 84 24 90
	00 00 00	 mov	 rax, QWORD PTR dev$[rsp]
  0052d	0f b7 40 44	 movzx	 eax, WORD PTR [rax+68]
  00531	d1 f8		 sar	 eax, 1
  00533	89 84 24 c4 00
	00 00		 mov	 DWORD PTR tv224[rsp], eax
  0053a	eb 0b		 jmp	 SHORT $LN35@cckd_sf_st
$LN34@cckd_sf_st:
  0053c	c7 84 24 c4 00
	00 00 00 00 00
	00		 mov	 DWORD PTR tv224[rsp], 0
$LN35@cckd_sf_st:
  00547	b9 01 00 00 00	 mov	 ecx, 1
  0054c	ff 15 00 00 00
	00		 call	 QWORD PTR __imp___acrt_iob_func
  00552	8b 8c 24 c0 00
	00 00		 mov	 ecx, DWORD PTR tv218[rsp]
  00559	89 4c 24 40	 mov	 DWORD PTR [rsp+64], ecx
  0055d	8b 8c 24 c4 00
	00 00		 mov	 ecx, DWORD PTR tv224[rsp]
  00564	89 4c 24 38	 mov	 DWORD PTR [rsp+56], ecx
  00568	48 8d 0d 00 00
	00 00		 lea	 rcx, OFFSET FLAT:$SG172171
  0056f	48 89 4c 24 30	 mov	 QWORD PTR [rsp+48], rcx
  00574	48 8d 0d 00 00
	00 00		 lea	 rcx, OFFSET FLAT:$SG172172
  0057b	48 89 4c 24 28	 mov	 QWORD PTR [rsp+40], rcx
  00580	48 89 44 24 20	 mov	 QWORD PTR [rsp+32], rax
  00585	41 b9 03 00 00
	00		 mov	 r9d, 3
  0058b	4c 8d 05 00 00
	00 00		 lea	 r8, OFFSET FLAT:$SG172173
  00592	ba c8 12 00 00	 mov	 edx, 4808		; 000012c8H
  00597	48 8d 0d 00 00
	00 00		 lea	 rcx, OFFSET FLAT:$SG172174
  0059e	ff 15 00 00 00
	00		 call	 QWORD PTR __imp_fwritemsg

; 4809 : 
; 4810 :     if (cckd->readaheads || cckd->misses)

  005a4	48 8b 84 24 a0
	00 00 00	 mov	 rax, QWORD PTR cckd$[rsp]
  005ac	83 b8 e4 00 00
	00 00		 cmp	 DWORD PTR [rax+228], 0
  005b3	75 15		 jne	 SHORT $LN19@cckd_sf_st
  005b5	48 8b 84 24 a0
	00 00 00	 mov	 rax, QWORD PTR cckd$[rsp]
  005bd	83 b8 ec 00 00
	00 00		 cmp	 DWORD PTR [rax+236], 0
  005c4	0f 84 b5 00 00
	00		 je	 $LN18@cckd_sf_st
$LN19@cckd_sf_st:

; 4811 :     // "%1d:%04X                                                      readaheads   misses"
; 4812 :     WRMSG (HHC00334, "I", LCSS_DEVNUM);

  005ca	48 83 bc 24 90
	00 00 00 00	 cmp	 QWORD PTR dev$[rsp], 0
  005d3	74 15		 je	 SHORT $LN36@cckd_sf_st
  005d5	48 8b 84 24 90
	00 00 00	 mov	 rax, QWORD PTR dev$[rsp]
  005dd	0f b7 40 48	 movzx	 eax, WORD PTR [rax+72]
  005e1	89 84 24 c8 00
	00 00		 mov	 DWORD PTR tv242[rsp], eax
  005e8	eb 0b		 jmp	 SHORT $LN37@cckd_sf_st
$LN36@cckd_sf_st:
  005ea	c7 84 24 c8 00
	00 00 00 00 00
	00		 mov	 DWORD PTR tv242[rsp], 0
$LN37@cckd_sf_st:
  005f5	48 83 bc 24 90
	00 00 00 00	 cmp	 QWORD PTR dev$[rsp], 0
  005fe	74 17		 je	 SHORT $LN38@cckd_sf_st
  00600	48 8b 84 24 90
	00 00 00	 mov	 rax, QWORD PTR dev$[rsp]
  00608	0f b7 40 44	 movzx	 eax, WORD PTR [rax+68]
  0060c	d1 f8		 sar	 eax, 1
  0060e	89 84 24 cc 00
	00 00		 mov	 DWORD PTR tv248[rsp], eax
  00615	eb 0b		 jmp	 SHORT $LN39@cckd_sf_st
$LN38@cckd_sf_st:
  00617	c7 84 24 cc 00
	00 00 00 00 00
	00		 mov	 DWORD PTR tv248[rsp], 0
$LN39@cckd_sf_st:
  00622	b9 01 00 00 00	 mov	 ecx, 1
  00627	ff 15 00 00 00
	00		 call	 QWORD PTR __imp___acrt_iob_func
  0062d	8b 8c 24 c8 00
	00 00		 mov	 ecx, DWORD PTR tv242[rsp]
  00634	89 4c 24 40	 mov	 DWORD PTR [rsp+64], ecx
  00638	8b 8c 24 cc 00
	00 00		 mov	 ecx, DWORD PTR tv248[rsp]
  0063f	89 4c 24 38	 mov	 DWORD PTR [rsp+56], ecx
  00643	48 8d 0d 00 00
	00 00		 lea	 rcx, OFFSET FLAT:$SG172177
  0064a	48 89 4c 24 30	 mov	 QWORD PTR [rsp+48], rcx
  0064f	48 8d 0d 00 00
	00 00		 lea	 rcx, OFFSET FLAT:$SG172178
  00656	48 89 4c 24 28	 mov	 QWORD PTR [rsp+40], rcx
  0065b	48 89 44 24 20	 mov	 QWORD PTR [rsp+32], rax
  00660	41 b9 03 00 00
	00		 mov	 r9d, 3
  00666	4c 8d 05 00 00
	00 00		 lea	 r8, OFFSET FLAT:$SG172179
  0066d	ba cc 12 00 00	 mov	 edx, 4812		; 000012ccH
  00672	48 8d 0d 00 00
	00 00		 lea	 rcx, OFFSET FLAT:$SG172180
  00679	ff 15 00 00 00
	00		 call	 QWORD PTR __imp_fwritemsg
$LN18@cckd_sf_st:

; 4813 : 
; 4814 :     // "%1d:%04X ------------------------------------------------------------------------"
; 4815 :     WRMSG (HHC00335, "I", LCSS_DEVNUM);

  0067f	48 83 bc 24 90
	00 00 00 00	 cmp	 QWORD PTR dev$[rsp], 0
  00688	74 15		 je	 SHORT $LN40@cckd_sf_st
  0068a	48 8b 84 24 90
	00 00 00	 mov	 rax, QWORD PTR dev$[rsp]
  00692	0f b7 40 48	 movzx	 eax, WORD PTR [rax+72]
  00696	89 84 24 d0 00
	00 00		 mov	 DWORD PTR tv262[rsp], eax
  0069d	eb 0b		 jmp	 SHORT $LN41@cckd_sf_st
$LN40@cckd_sf_st:
  0069f	c7 84 24 d0 00
	00 00 00 00 00
	00		 mov	 DWORD PTR tv262[rsp], 0
$LN41@cckd_sf_st:
  006aa	48 83 bc 24 90
	00 00 00 00	 cmp	 QWORD PTR dev$[rsp], 0
  006b3	74 17		 je	 SHORT $LN42@cckd_sf_st
  006b5	48 8b 84 24 90
	00 00 00	 mov	 rax, QWORD PTR dev$[rsp]
  006bd	0f b7 40 44	 movzx	 eax, WORD PTR [rax+68]
  006c1	d1 f8		 sar	 eax, 1
  006c3	89 84 24 d4 00
	00 00		 mov	 DWORD PTR tv268[rsp], eax
  006ca	eb 0b		 jmp	 SHORT $LN43@cckd_sf_st
$LN42@cckd_sf_st:
  006cc	c7 84 24 d4 00
	00 00 00 00 00
	00		 mov	 DWORD PTR tv268[rsp], 0
$LN43@cckd_sf_st:
  006d7	b9 01 00 00 00	 mov	 ecx, 1
  006dc	ff 15 00 00 00
	00		 call	 QWORD PTR __imp___acrt_iob_func
  006e2	8b 8c 24 d0 00
	00 00		 mov	 ecx, DWORD PTR tv262[rsp]
  006e9	89 4c 24 40	 mov	 DWORD PTR [rsp+64], ecx
  006ed	8b 8c 24 d4 00
	00 00		 mov	 ecx, DWORD PTR tv268[rsp]
  006f4	89 4c 24 38	 mov	 DWORD PTR [rsp+56], ecx
  006f8	48 8d 0d 00 00
	00 00		 lea	 rcx, OFFSET FLAT:$SG172181
  006ff	48 89 4c 24 30	 mov	 QWORD PTR [rsp+48], rcx
  00704	48 8d 0d 00 00
	00 00		 lea	 rcx, OFFSET FLAT:$SG172182
  0070b	48 89 4c 24 28	 mov	 QWORD PTR [rsp+40], rcx
  00710	48 89 44 24 20	 mov	 QWORD PTR [rsp+32], rax
  00715	41 b9 03 00 00
	00		 mov	 r9d, 3
  0071b	4c 8d 05 00 00
	00 00		 lea	 r8, OFFSET FLAT:$SG172183
  00722	ba cf 12 00 00	 mov	 edx, 4815		; 000012cfH
  00727	48 8d 0d 00 00
	00 00		 lea	 rcx, OFFSET FLAT:$SG172184
  0072e	ff 15 00 00 00
	00		 call	 QWORD PTR __imp_fwritemsg

; 4816 : 
; 4817 :     /* total statistics */
; 4818 : 
; 4819 :     // "%1d:%04X [*] %s %11.11"PRId64" %3.3"PRId64"%% %4.4"PRId64"    %7.7d %7.7d %7.7d %7.7d  %7.7d"
; 4820 :     WRMSG( HHC00336, "I", LCSS_DEVNUM, dev->cckd64 ? "64" : "32", usize

  00734	48 83 bc 24 b0
	00 00 00 00	 cmp	 QWORD PTR usize$[rsp], 0
  0073d	74 1d		 je	 SHORT $LN44@cckd_sf_st
  0073f	48 6b 84 24 10
	01 00 00 64	 imul	 rax, QWORD PTR ufree$[rsp], 100 ; 00000064H
  00748	33 d2		 xor	 edx, edx
  0074a	48 f7 b4 24 b0
	00 00 00	 div	 QWORD PTR usize$[rsp]
  00752	48 89 84 24 18
	01 00 00	 mov	 QWORD PTR tv326[rsp], rax
  0075a	eb 0c		 jmp	 SHORT $LN45@cckd_sf_st
$LN44@cckd_sf_st:
  0075c	48 c7 84 24 18
	01 00 00 e7 03
	00 00		 mov	 QWORD PTR tv326[rsp], 999 ; 000003e7H
$LN45@cckd_sf_st:
  00768	48 8b 84 24 90
	00 00 00	 mov	 rax, QWORD PTR dev$[rsp]
  00770	0f b6 80 10 13
	00 00		 movzx	 eax, BYTE PTR [rax+4880]
  00777	24 01		 and	 al, 1
  00779	0f b6 c0	 movzx	 eax, al
  0077c	85 c0		 test	 eax, eax
  0077e	74 11		 je	 SHORT $LN46@cckd_sf_st
  00780	48 8d 05 00 00
	00 00		 lea	 rax, OFFSET FLAT:$SG172185
  00787	48 89 84 24 20
	01 00 00	 mov	 QWORD PTR tv333[rsp], rax
  0078f	eb 0f		 jmp	 SHORT $LN47@cckd_sf_st
$LN46@cckd_sf_st:
  00791	48 8d 05 00 00
	00 00		 lea	 rax, OFFSET FLAT:$SG172186
  00798	48 89 84 24 20
	01 00 00	 mov	 QWORD PTR tv333[rsp], rax
$LN47@cckd_sf_st:
  007a0	48 83 bc 24 90
	00 00 00 00	 cmp	 QWORD PTR dev$[rsp], 0
  007a9	74 15		 je	 SHORT $LN48@cckd_sf_st
  007ab	48 8b 84 24 90
	00 00 00	 mov	 rax, QWORD PTR dev$[rsp]
  007b3	0f b7 40 48	 movzx	 eax, WORD PTR [rax+72]
  007b7	89 84 24 d8 00
	00 00		 mov	 DWORD PTR tv338[rsp], eax
  007be	eb 0b		 jmp	 SHORT $LN49@cckd_sf_st
$LN48@cckd_sf_st:
  007c0	c7 84 24 d8 00
	00 00 00 00 00
	00		 mov	 DWORD PTR tv338[rsp], 0
$LN49@cckd_sf_st:
  007cb	48 83 bc 24 90
	00 00 00 00	 cmp	 QWORD PTR dev$[rsp], 0
  007d4	74 17		 je	 SHORT $LN50@cckd_sf_st
  007d6	48 8b 84 24 90
	00 00 00	 mov	 rax, QWORD PTR dev$[rsp]
  007de	0f b7 40 44	 movzx	 eax, WORD PTR [rax+68]
  007e2	d1 f8		 sar	 eax, 1
  007e4	89 84 24 dc 00
	00 00		 mov	 DWORD PTR tv344[rsp], eax
  007eb	eb 0b		 jmp	 SHORT $LN51@cckd_sf_st
$LN50@cckd_sf_st:
  007ed	c7 84 24 dc 00
	00 00 00 00 00
	00		 mov	 DWORD PTR tv344[rsp], 0
$LN51@cckd_sf_st:
  007f8	48 63 84 24 ac
	00 00 00	 movsxd	 rax, DWORD PTR free_count$[rsp]
  00800	48 89 84 24 50
	01 00 00	 mov	 QWORD PTR tv321[rsp], rax
  00808	b9 01 00 00 00	 mov	 ecx, 1
  0080d	ff 15 00 00 00
	00		 call	 QWORD PTR __imp___acrt_iob_func
  00813	48 8b 8c 24 a0
	00 00 00	 mov	 rcx, QWORD PTR cckd$[rsp]
  0081b	8b 89 e8 00 00
	00		 mov	 ecx, DWORD PTR [rcx+232]
  00821	89 8c 24 88 00
	00 00		 mov	 DWORD PTR [rsp+136], ecx
  00828	48 8b 8c 24 a0
	00 00 00	 mov	 rcx, QWORD PTR cckd$[rsp]
  00830	8b 89 e0 00 00
	00		 mov	 ecx, DWORD PTR [rcx+224]
  00836	89 8c 24 80 00
	00 00		 mov	 DWORD PTR [rsp+128], ecx
  0083d	48 8b 8c 24 a0
	00 00 00	 mov	 rcx, QWORD PTR cckd$[rsp]
  00845	8b 89 dc 00 00
	00		 mov	 ecx, DWORD PTR [rcx+220]
  0084b	89 4c 24 78	 mov	 DWORD PTR [rsp+120], ecx
  0084f	48 8b 8c 24 a0
	00 00 00	 mov	 rcx, QWORD PTR cckd$[rsp]
  00857	8b 89 d8 00 00
	00		 mov	 ecx, DWORD PTR [rcx+216]
  0085d	89 4c 24 70	 mov	 DWORD PTR [rsp+112], ecx
  00861	48 8b 8c 24 a0
	00 00 00	 mov	 rcx, QWORD PTR cckd$[rsp]
  00869	8b 89 d4 00 00
	00		 mov	 ecx, DWORD PTR [rcx+212]
  0086f	89 4c 24 68	 mov	 DWORD PTR [rsp+104], ecx
  00873	48 8b 8c 24 50
	01 00 00	 mov	 rcx, QWORD PTR tv321[rsp]
  0087b	48 89 4c 24 60	 mov	 QWORD PTR [rsp+96], rcx
  00880	48 8b 8c 24 18
	01 00 00	 mov	 rcx, QWORD PTR tv326[rsp]
  00888	48 89 4c 24 58	 mov	 QWORD PTR [rsp+88], rcx
  0088d	48 8b 8c 24 b0
	00 00 00	 mov	 rcx, QWORD PTR usize$[rsp]
  00895	48 89 4c 24 50	 mov	 QWORD PTR [rsp+80], rcx
  0089a	48 8b 8c 24 20
	01 00 00	 mov	 rcx, QWORD PTR tv333[rsp]
  008a2	48 89 4c 24 48	 mov	 QWORD PTR [rsp+72], rcx
  008a7	8b 8c 24 d8 00
	00 00		 mov	 ecx, DWORD PTR tv338[rsp]
  008ae	89 4c 24 40	 mov	 DWORD PTR [rsp+64], ecx
  008b2	8b 8c 24 dc 00
	00 00		 mov	 ecx, DWORD PTR tv344[rsp]
  008b9	89 4c 24 38	 mov	 DWORD PTR [rsp+56], ecx
  008bd	48 8d 0d 00 00
	00 00		 lea	 rcx, OFFSET FLAT:$SG172187
  008c4	48 89 4c 24 30	 mov	 QWORD PTR [rsp+48], rcx
  008c9	48 8d 0d 00 00
	00 00		 lea	 rcx, OFFSET FLAT:$SG172188
  008d0	48 89 4c 24 28	 mov	 QWORD PTR [rsp+40], rcx
  008d5	48 89 44 24 20	 mov	 QWORD PTR [rsp+32], rax
  008da	41 b9 03 00 00
	00		 mov	 r9d, 3
  008e0	4c 8d 05 00 00
	00 00		 lea	 r8, OFFSET FLAT:$SG172189
  008e7	ba dd 12 00 00	 mov	 edx, 4829		; 000012ddH
  008ec	48 8d 0d 00 00
	00 00		 lea	 rcx, OFFSET FLAT:$SG172190
  008f3	ff 15 00 00 00
	00		 call	 QWORD PTR __imp_fwritemsg

; 4821 : 
; 4822 :         , usize ? (ufree * 100) / usize : 999
; 4823 :         , (S64)free_count
; 4824 :         , cckd->totreads
; 4825 :         , cckd->totwrites
; 4826 :         , cckd->totl2reads
; 4827 :         , cckd->cachehits
; 4828 :         , cckd->switches
; 4829 :     );
; 4830 : 
; 4831 :     if (cckd->readaheads || cckd->misses)

  008f9	48 8b 84 24 a0
	00 00 00	 mov	 rax, QWORD PTR cckd$[rsp]
  00901	83 b8 e4 00 00
	00 00		 cmp	 DWORD PTR [rax+228], 0
  00908	75 15		 jne	 SHORT $LN21@cckd_sf_st
  0090a	48 8b 84 24 a0
	00 00 00	 mov	 rax, QWORD PTR cckd$[rsp]
  00912	83 b8 ec 00 00
	00 00		 cmp	 DWORD PTR [rax+236], 0
  00919	0f 84 d9 00 00
	00		 je	 $LN20@cckd_sf_st
$LN21@cckd_sf_st:

; 4832 :     // "%1d:%04X                                                         %7.7d  %7.7d"
; 4833 :     WRMSG (HHC00337, "I", LCSS_DEVNUM,

  0091f	48 83 bc 24 90
	00 00 00 00	 cmp	 QWORD PTR dev$[rsp], 0
  00928	74 15		 je	 SHORT $LN52@cckd_sf_st
  0092a	48 8b 84 24 90
	00 00 00	 mov	 rax, QWORD PTR dev$[rsp]
  00932	0f b7 40 48	 movzx	 eax, WORD PTR [rax+72]
  00936	89 84 24 e0 00
	00 00		 mov	 DWORD PTR tv366[rsp], eax
  0093d	eb 0b		 jmp	 SHORT $LN53@cckd_sf_st
$LN52@cckd_sf_st:
  0093f	c7 84 24 e0 00
	00 00 00 00 00
	00		 mov	 DWORD PTR tv366[rsp], 0
$LN53@cckd_sf_st:
  0094a	48 83 bc 24 90
	00 00 00 00	 cmp	 QWORD PTR dev$[rsp], 0
  00953	74 17		 je	 SHORT $LN54@cckd_sf_st
  00955	48 8b 84 24 90
	00 00 00	 mov	 rax, QWORD PTR dev$[rsp]
  0095d	0f b7 40 44	 movzx	 eax, WORD PTR [rax+68]
  00961	d1 f8		 sar	 eax, 1
  00963	89 84 24 e4 00
	00 00		 mov	 DWORD PTR tv372[rsp], eax
  0096a	eb 0b		 jmp	 SHORT $LN55@cckd_sf_st
$LN54@cckd_sf_st:
  0096c	c7 84 24 e4 00
	00 00 00 00 00
	00		 mov	 DWORD PTR tv372[rsp], 0
$LN55@cckd_sf_st:
  00977	b9 01 00 00 00	 mov	 ecx, 1
  0097c	ff 15 00 00 00
	00		 call	 QWORD PTR __imp___acrt_iob_func
  00982	48 8b 8c 24 a0
	00 00 00	 mov	 rcx, QWORD PTR cckd$[rsp]
  0098a	8b 89 ec 00 00
	00		 mov	 ecx, DWORD PTR [rcx+236]
  00990	89 4c 24 50	 mov	 DWORD PTR [rsp+80], ecx
  00994	48 8b 8c 24 a0
	00 00 00	 mov	 rcx, QWORD PTR cckd$[rsp]
  0099c	8b 89 e4 00 00
	00		 mov	 ecx, DWORD PTR [rcx+228]
  009a2	89 4c 24 48	 mov	 DWORD PTR [rsp+72], ecx
  009a6	8b 8c 24 e0 00
	00 00		 mov	 ecx, DWORD PTR tv366[rsp]
  009ad	89 4c 24 40	 mov	 DWORD PTR [rsp+64], ecx
  009b1	8b 8c 24 e4 00
	00 00		 mov	 ecx, DWORD PTR tv372[rsp]
  009b8	89 4c 24 38	 mov	 DWORD PTR [rsp+56], ecx
  009bc	48 8d 0d 00 00
	00 00		 lea	 rcx, OFFSET FLAT:$SG172193
  009c3	48 89 4c 24 30	 mov	 QWORD PTR [rsp+48], rcx
  009c8	48 8d 0d 00 00
	00 00		 lea	 rcx, OFFSET FLAT:$SG172194
  009cf	48 89 4c 24 28	 mov	 QWORD PTR [rsp+40], rcx
  009d4	48 89 44 24 20	 mov	 QWORD PTR [rsp+32], rax
  009d9	41 b9 03 00 00
	00		 mov	 r9d, 3
  009df	4c 8d 05 00 00
	00 00		 lea	 r8, OFFSET FLAT:$SG172195
  009e6	ba e2 12 00 00	 mov	 edx, 4834		; 000012e2H
  009eb	48 8d 0d 00 00
	00 00		 lea	 rcx, OFFSET FLAT:$SG172196
  009f2	ff 15 00 00 00
	00		 call	 QWORD PTR __imp_fwritemsg
$LN20@cckd_sf_st:

; 4834 :             cckd->readaheads, cckd->misses);
; 4835 : 
; 4836 :     /* base file statistics */
; 4837 : 
; 4838 :     // "%1d:%04X %s"
; 4839 :     WRMSG (HHC00338, "I", LCSS_DEVNUM, dev->filename);

  009f8	48 83 bc 24 90
	00 00 00 00	 cmp	 QWORD PTR dev$[rsp], 0
  00a01	74 15		 je	 SHORT $LN56@cckd_sf_st
  00a03	48 8b 84 24 90
	00 00 00	 mov	 rax, QWORD PTR dev$[rsp]
  00a0b	0f b7 40 48	 movzx	 eax, WORD PTR [rax+72]
  00a0f	89 84 24 e8 00
	00 00		 mov	 DWORD PTR tv388[rsp], eax
  00a16	eb 0b		 jmp	 SHORT $LN57@cckd_sf_st
$LN56@cckd_sf_st:
  00a18	c7 84 24 e8 00
	00 00 00 00 00
	00		 mov	 DWORD PTR tv388[rsp], 0
$LN57@cckd_sf_st:
  00a23	48 83 bc 24 90
	00 00 00 00	 cmp	 QWORD PTR dev$[rsp], 0
  00a2c	74 17		 je	 SHORT $LN58@cckd_sf_st
  00a2e	48 8b 84 24 90
	00 00 00	 mov	 rax, QWORD PTR dev$[rsp]
  00a36	0f b7 40 44	 movzx	 eax, WORD PTR [rax+68]
  00a3a	d1 f8		 sar	 eax, 1
  00a3c	89 84 24 ec 00
	00 00		 mov	 DWORD PTR tv394[rsp], eax
  00a43	eb 0b		 jmp	 SHORT $LN59@cckd_sf_st
$LN58@cckd_sf_st:
  00a45	c7 84 24 ec 00
	00 00 00 00 00
	00		 mov	 DWORD PTR tv394[rsp], 0
$LN59@cckd_sf_st:
  00a50	48 8b 84 24 90
	00 00 00	 mov	 rax, QWORD PTR dev$[rsp]
  00a58	48 05 a4 00 00
	00		 add	 rax, 164		; 000000a4H
  00a5e	48 89 84 24 58
	01 00 00	 mov	 QWORD PTR tv383[rsp], rax
  00a66	b9 01 00 00 00	 mov	 ecx, 1
  00a6b	ff 15 00 00 00
	00		 call	 QWORD PTR __imp___acrt_iob_func
  00a71	48 8b 8c 24 58
	01 00 00	 mov	 rcx, QWORD PTR tv383[rsp]
  00a79	48 89 4c 24 48	 mov	 QWORD PTR [rsp+72], rcx
  00a7e	8b 8c 24 e8 00
	00 00		 mov	 ecx, DWORD PTR tv388[rsp]
  00a85	89 4c 24 40	 mov	 DWORD PTR [rsp+64], ecx
  00a89	8b 8c 24 ec 00
	00 00		 mov	 ecx, DWORD PTR tv394[rsp]
  00a90	89 4c 24 38	 mov	 DWORD PTR [rsp+56], ecx
  00a94	48 8d 0d 00 00
	00 00		 lea	 rcx, OFFSET FLAT:$SG172197
  00a9b	48 89 4c 24 30	 mov	 QWORD PTR [rsp+48], rcx
  00aa0	48 8d 0d 00 00
	00 00		 lea	 rcx, OFFSET FLAT:$SG172198
  00aa7	48 89 4c 24 28	 mov	 QWORD PTR [rsp+40], rcx
  00aac	48 89 44 24 20	 mov	 QWORD PTR [rsp+32], rax
  00ab1	41 b9 03 00 00
	00		 mov	 r9d, 3
  00ab7	4c 8d 05 00 00
	00 00		 lea	 r8, OFFSET FLAT:$SG172199
  00abe	ba e7 12 00 00	 mov	 edx, 4839		; 000012e7H
  00ac3	48 8d 0d 00 00
	00 00		 lea	 rcx, OFFSET FLAT:$SG172200
  00aca	ff 15 00 00 00
	00		 call	 QWORD PTR __imp_fwritemsg

; 4840 : 
; 4841 :     // "%1d:%04X [0] %s %11.11"PRId64" %3.3"PRId64"%% %4.4"PRId64" %s %7.7d %7.7d %7.7d"
; 4842 :     WRMSG( HHC00339, "I", LCSS_DEVNUM, dev->cckd64 ? "64" : "32", st.st_size

  00ad0	48 83 bc 24 c8
	01 00 00 00	 cmp	 QWORD PTR st$[rsp+24], 0
  00ad9	74 2f		 je	 SHORT $LN60@cckd_sf_st
  00adb	b8 00 02 00 00	 mov	 eax, 512		; 00000200H
  00ae0	48 6b c0 00	 imul	 rax, rax, 0
  00ae4	48 8b 8c 24 a0
	00 00 00	 mov	 rcx, QWORD PTR cckd$[rsp]
  00aec	6b 84 01 f8 01
	00 00 64	 imul	 eax, DWORD PTR [rcx+rax+504], 100 ; 00000064H
  00af4	8b c0		 mov	 eax, eax
  00af6	48 99		 cdq
  00af8	48 f7 bc 24 c8
	01 00 00	 idiv	 QWORD PTR st$[rsp+24]
  00b00	48 89 84 24 28
	01 00 00	 mov	 QWORD PTR tv438[rsp], rax
  00b08	eb 0c		 jmp	 SHORT $LN61@cckd_sf_st
$LN60@cckd_sf_st:
  00b0a	48 c7 84 24 28
	01 00 00 e7 03
	00 00		 mov	 QWORD PTR tv438[rsp], 999 ; 000003e7H
$LN61@cckd_sf_st:
  00b16	48 8b 84 24 90
	00 00 00	 mov	 rax, QWORD PTR dev$[rsp]
  00b1e	0f b6 80 10 13
	00 00		 movzx	 eax, BYTE PTR [rax+4880]
  00b25	24 01		 and	 al, 1
  00b27	0f b6 c0	 movzx	 eax, al
  00b2a	85 c0		 test	 eax, eax
  00b2c	74 11		 je	 SHORT $LN62@cckd_sf_st
  00b2e	48 8d 05 00 00
	00 00		 lea	 rax, OFFSET FLAT:$SG172201
  00b35	48 89 84 24 30
	01 00 00	 mov	 QWORD PTR tv445[rsp], rax
  00b3d	eb 0f		 jmp	 SHORT $LN63@cckd_sf_st
$LN62@cckd_sf_st:
  00b3f	48 8d 05 00 00
	00 00		 lea	 rax, OFFSET FLAT:$SG172202
  00b46	48 89 84 24 30
	01 00 00	 mov	 QWORD PTR tv445[rsp], rax
$LN63@cckd_sf_st:
  00b4e	48 83 bc 24 90
	00 00 00 00	 cmp	 QWORD PTR dev$[rsp], 0
  00b57	74 15		 je	 SHORT $LN64@cckd_sf_st
  00b59	48 8b 84 24 90
	00 00 00	 mov	 rax, QWORD PTR dev$[rsp]
  00b61	0f b7 40 48	 movzx	 eax, WORD PTR [rax+72]
  00b65	89 84 24 04 01
	00 00		 mov	 DWORD PTR tv450[rsp], eax
  00b6c	eb 0b		 jmp	 SHORT $LN65@cckd_sf_st
$LN64@cckd_sf_st:
  00b6e	c7 84 24 04 01
	00 00 00 00 00
	00		 mov	 DWORD PTR tv450[rsp], 0
$LN65@cckd_sf_st:
  00b79	48 83 bc 24 90
	00 00 00 00	 cmp	 QWORD PTR dev$[rsp], 0
  00b82	74 17		 je	 SHORT $LN66@cckd_sf_st
  00b84	48 8b 84 24 90
	00 00 00	 mov	 rax, QWORD PTR dev$[rsp]
  00b8c	0f b7 40 44	 movzx	 eax, WORD PTR [rax+68]
  00b90	d1 f8		 sar	 eax, 1
  00b92	89 84 24 f0 00
	00 00		 mov	 DWORD PTR tv456[rsp], eax
  00b99	eb 0b		 jmp	 SHORT $LN67@cckd_sf_st
$LN66@cckd_sf_st:
  00b9b	c7 84 24 f0 00
	00 00 00 00 00
	00		 mov	 DWORD PTR tv456[rsp], 0
$LN67@cckd_sf_st:
  00ba6	b8 04 00 00 00	 mov	 eax, 4
  00bab	48 6b c0 00	 imul	 rax, rax, 0
  00baf	48 89 84 24 60
	01 00 00	 mov	 QWORD PTR tv406[rsp], rax
  00bb7	b9 04 00 00 00	 mov	 ecx, 4
  00bbc	48 6b c9 00	 imul	 rcx, rcx, 0
  00bc0	48 89 8c 24 68
	01 00 00	 mov	 QWORD PTR tv410[rsp], rcx
  00bc8	ba 04 00 00 00	 mov	 edx, 4
  00bcd	48 6b d2 00	 imul	 rdx, rdx, 0
  00bd1	48 89 94 24 70
	01 00 00	 mov	 QWORD PTR tv414[rsp], rdx
  00bd9	bf 01 00 00 00	 mov	 edi, 1
  00bde	48 6b ff 00	 imul	 rdi, rdi, 0
  00be2	4c 8b 84 24 a0
	00 00 00	 mov	 r8, QWORD PTR cckd$[rsp]
  00bea	41 0f b6 bc 38
	1d 01 00 00	 movzx	 edi, BYTE PTR [r8+rdi+285]
  00bf3	41 b8 00 02 00
	00		 mov	 r8d, 512		; 00000200H
  00bf9	4d 6b c0 00	 imul	 r8, r8, 0
  00bfd	4c 8b 8c 24 a0
	00 00 00	 mov	 r9, QWORD PTR cckd$[rsp]
  00c05	4f 63 84 01 00
	02 00 00	 movsxd	 r8, DWORD PTR [r9+r8+512]
  00c0d	4c 89 84 24 78
	01 00 00	 mov	 QWORD PTR tv428[rsp], r8
  00c15	b9 01 00 00 00	 mov	 ecx, 1
  00c1a	ff 15 00 00 00
	00		 call	 QWORD PTR __imp___acrt_iob_func
  00c20	48 8b 8c 24 a0
	00 00 00	 mov	 rcx, QWORD PTR cckd$[rsp]
  00c28	48 8b 94 24 60
	01 00 00	 mov	 rdx, QWORD PTR tv406[rsp]
  00c30	8b 8c 11 4c 01
	00 00		 mov	 ecx, DWORD PTR [rcx+rdx+332]
  00c37	89 8c 24 80 00
	00 00		 mov	 DWORD PTR [rsp+128], ecx
  00c3e	48 8b 8c 24 a0
	00 00 00	 mov	 rcx, QWORD PTR cckd$[rsp]
  00c46	48 8b 94 24 68
	01 00 00	 mov	 rdx, QWORD PTR tv410[rsp]
  00c4e	8b 8c 11 70 01
	00 00		 mov	 ecx, DWORD PTR [rcx+rdx+368]
  00c55	89 4c 24 78	 mov	 DWORD PTR [rsp+120], ecx
  00c59	48 8b 8c 24 a0
	00 00 00	 mov	 rcx, QWORD PTR cckd$[rsp]
  00c61	48 8b 94 24 70
	01 00 00	 mov	 rdx, QWORD PTR tv414[rsp]
  00c69	8b 8c 11 28 01
	00 00		 mov	 ecx, DWORD PTR [rcx+rdx+296]
  00c70	89 4c 24 70	 mov	 DWORD PTR [rsp+112], ecx
  00c74	48 8b 8c fc e8
	01 00 00	 mov	 rcx, QWORD PTR ost$[rsp+rdi*8]
  00c7c	48 89 4c 24 68	 mov	 QWORD PTR [rsp+104], rcx
  00c81	48 8b 8c 24 78
	01 00 00	 mov	 rcx, QWORD PTR tv428[rsp]
  00c89	48 89 4c 24 60	 mov	 QWORD PTR [rsp+96], rcx
  00c8e	48 8b 8c 24 28
	01 00 00	 mov	 rcx, QWORD PTR tv438[rsp]
  00c96	48 89 4c 24 58	 mov	 QWORD PTR [rsp+88], rcx
  00c9b	48 8b 8c 24 c8
	01 00 00	 mov	 rcx, QWORD PTR st$[rsp+24]
  00ca3	48 89 4c 24 50	 mov	 QWORD PTR [rsp+80], rcx
  00ca8	48 8b 8c 24 30
	01 00 00	 mov	 rcx, QWORD PTR tv445[rsp]
  00cb0	48 89 4c 24 48	 mov	 QWORD PTR [rsp+72], rcx
  00cb5	8b 8c 24 04 01
	00 00		 mov	 ecx, DWORD PTR tv450[rsp]
  00cbc	89 4c 24 40	 mov	 DWORD PTR [rsp+64], ecx
  00cc0	8b 8c 24 f0 00
	00 00		 mov	 ecx, DWORD PTR tv456[rsp]
  00cc7	89 4c 24 38	 mov	 DWORD PTR [rsp+56], ecx
  00ccb	48 8d 0d 00 00
	00 00		 lea	 rcx, OFFSET FLAT:$SG172203
  00cd2	48 89 4c 24 30	 mov	 QWORD PTR [rsp+48], rcx
  00cd7	48 8d 0d 00 00
	00 00		 lea	 rcx, OFFSET FLAT:$SG172204
  00cde	48 89 4c 24 28	 mov	 QWORD PTR [rsp+40], rcx
  00ce3	48 89 44 24 20	 mov	 QWORD PTR [rsp+32], rax
  00ce8	41 b9 03 00 00
	00		 mov	 r9d, 3
  00cee	4c 8d 05 00 00
	00 00		 lea	 r8, OFFSET FLAT:$SG172205
  00cf5	ba f3 12 00 00	 mov	 edx, 4851		; 000012f3H
  00cfa	48 8d 0d 00 00
	00 00		 lea	 rcx, OFFSET FLAT:$SG172206
  00d01	ff 15 00 00 00
	00		 call	 QWORD PTR __imp_fwritemsg

; 4843 : 
; 4844 :         , st.st_size ?
; 4845 :           ((S64)(cckd->cdevhdr[0].free_total * 100) / st.st_size) : 999
; 4846 :         ,  (S64) cckd->cdevhdr[0].free_num
; 4847 :         , ost[cckd->open[0]]
; 4848 :         , cckd->reads[0]
; 4849 :         , cckd->writes[0]
; 4850 :         , cckd->L2_reads[0]
; 4851 :     );
; 4852 : 
; 4853 :     if (dev->dasdsfn != NULL && CCKD_MAX_SF > 0)

  00d07	48 8b 84 24 90
	00 00 00	 mov	 rax, QWORD PTR dev$[rsp]
  00d0f	48 83 b8 70 11
	00 00 00	 cmp	 QWORD PTR [rax+4464], 0
  00d17	0f 84 e7 00 00
	00		 je	 $LN22@cckd_sf_st
  00d1d	33 c0		 xor	 eax, eax
  00d1f	83 f8 01	 cmp	 eax, 1
  00d22	0f 84 dc 00 00
	00		 je	 $LN22@cckd_sf_st

; 4854 :         // "%1d:%04X %s"
; 4855 :         WRMSG (HHC00340, "I", LCSS_DEVNUM, cckd_sf_name(dev, -1));

  00d28	48 83 bc 24 90
	00 00 00 00	 cmp	 QWORD PTR dev$[rsp], 0
  00d31	74 15		 je	 SHORT $LN68@cckd_sf_st
  00d33	48 8b 84 24 90
	00 00 00	 mov	 rax, QWORD PTR dev$[rsp]
  00d3b	0f b7 40 48	 movzx	 eax, WORD PTR [rax+72]
  00d3f	89 84 24 f4 00
	00 00		 mov	 DWORD PTR tv477[rsp], eax
  00d46	eb 0b		 jmp	 SHORT $LN69@cckd_sf_st
$LN68@cckd_sf_st:
  00d48	c7 84 24 f4 00
	00 00 00 00 00
	00		 mov	 DWORD PTR tv477[rsp], 0
$LN69@cckd_sf_st:
  00d53	48 83 bc 24 90
	00 00 00 00	 cmp	 QWORD PTR dev$[rsp], 0
  00d5c	74 17		 je	 SHORT $LN70@cckd_sf_st
  00d5e	48 8b 84 24 90
	00 00 00	 mov	 rax, QWORD PTR dev$[rsp]
  00d66	0f b7 40 44	 movzx	 eax, WORD PTR [rax+68]
  00d6a	d1 f8		 sar	 eax, 1
  00d6c	89 84 24 f8 00
	00 00		 mov	 DWORD PTR tv483[rsp], eax
  00d73	eb 0b		 jmp	 SHORT $LN71@cckd_sf_st
$LN70@cckd_sf_st:
  00d75	c7 84 24 f8 00
	00 00 00 00 00
	00		 mov	 DWORD PTR tv483[rsp], 0
$LN71@cckd_sf_st:
  00d80	ba ff ff ff ff	 mov	 edx, -1
  00d85	48 8b 8c 24 90
	00 00 00	 mov	 rcx, QWORD PTR dev$[rsp]
  00d8d	e8 00 00 00 00	 call	 cckd_sf_name
  00d92	48 89 84 24 80
	01 00 00	 mov	 QWORD PTR tv470[rsp], rax
  00d9a	b9 01 00 00 00	 mov	 ecx, 1
  00d9f	ff 15 00 00 00
	00		 call	 QWORD PTR __imp___acrt_iob_func
  00da5	48 8b 8c 24 80
	01 00 00	 mov	 rcx, QWORD PTR tv470[rsp]
  00dad	48 89 4c 24 48	 mov	 QWORD PTR [rsp+72], rcx
  00db2	8b 8c 24 f4 00
	00 00		 mov	 ecx, DWORD PTR tv477[rsp]
  00db9	89 4c 24 40	 mov	 DWORD PTR [rsp+64], ecx
  00dbd	8b 8c 24 f8 00
	00 00		 mov	 ecx, DWORD PTR tv483[rsp]
  00dc4	89 4c 24 38	 mov	 DWORD PTR [rsp+56], ecx
  00dc8	48 8d 0d 00 00
	00 00		 lea	 rcx, OFFSET FLAT:$SG172208
  00dcf	48 89 4c 24 30	 mov	 QWORD PTR [rsp+48], rcx
  00dd4	48 8d 0d 00 00
	00 00		 lea	 rcx, OFFSET FLAT:$SG172209
  00ddb	48 89 4c 24 28	 mov	 QWORD PTR [rsp+40], rcx
  00de0	48 89 44 24 20	 mov	 QWORD PTR [rsp+32], rax
  00de5	41 b9 03 00 00
	00		 mov	 r9d, 3
  00deb	4c 8d 05 00 00
	00 00		 lea	 r8, OFFSET FLAT:$SG172210
  00df2	ba f7 12 00 00	 mov	 edx, 4855		; 000012f7H
  00df7	48 8d 0d 00 00
	00 00		 lea	 rcx, OFFSET FLAT:$SG172211
  00dfe	ff 15 00 00 00
	00		 call	 QWORD PTR __imp_fwritemsg
$LN22@cckd_sf_st:

; 4856 : 
; 4857 :     /* shadow file statistics */
; 4858 :     for (i = 1; i <= cckd->sfn; i++)

  00e04	c7 84 24 98 00
	00 00 01 00 00
	00		 mov	 DWORD PTR i$[rsp], 1
  00e0f	eb 10		 jmp	 SHORT $LN10@cckd_sf_st
$LN8@cckd_sf_st:
  00e11	8b 84 24 98 00
	00 00		 mov	 eax, DWORD PTR i$[rsp]
  00e18	ff c0		 inc	 eax
  00e1a	89 84 24 98 00
	00 00		 mov	 DWORD PTR i$[rsp], eax
$LN10@cckd_sf_st:
  00e21	48 8b 84 24 a0
	00 00 00	 mov	 rax, QWORD PTR cckd$[rsp]
  00e29	8b 40 3c	 mov	 eax, DWORD PTR [rax+60]
  00e2c	39 84 24 98 00
	00 00		 cmp	 DWORD PTR i$[rsp], eax
  00e33	0f 8f a7 02 00
	00		 jg	 $LN9@cckd_sf_st

; 4859 :     {
; 4860 :         // "%1d:%04X [%d] %s %11.11"PRId64" %3.3"PRId64"%% %4.4"PRId64" %s %7.7d %7.7d %7.7d"
; 4861 :         WRMSG( HHC00341, "I", LCSS_DEVNUM, i, dev->cckd64 ? "64" : "32", (S64)cckd->cdevhdr[i].cdh_size

  00e39	48 63 84 24 98
	00 00 00	 movsxd	 rax, DWORD PTR i$[rsp]
  00e41	48 69 c0 00 02
	00 00		 imul	 rax, rax, 512		; 00000200H
  00e48	48 8b 8c 24 a0
	00 00 00	 mov	 rcx, QWORD PTR cckd$[rsp]
  00e50	83 bc 01 ec 01
	00 00 00	 cmp	 DWORD PTR [rcx+rax+492], 0
  00e58	74 4e		 je	 SHORT $LN72@cckd_sf_st
  00e5a	48 63 84 24 98
	00 00 00	 movsxd	 rax, DWORD PTR i$[rsp]
  00e62	48 69 c0 00 02
	00 00		 imul	 rax, rax, 512		; 00000200H
  00e69	48 8b 8c 24 a0
	00 00 00	 mov	 rcx, QWORD PTR cckd$[rsp]
  00e71	6b 84 01 f8 01
	00 00 64	 imul	 eax, DWORD PTR [rcx+rax+504], 100 ; 00000064H
  00e79	8b c0		 mov	 eax, eax
  00e7b	48 63 8c 24 98
	00 00 00	 movsxd	 rcx, DWORD PTR i$[rsp]
  00e83	48 69 c9 00 02
	00 00		 imul	 rcx, rcx, 512		; 00000200H
  00e8a	48 8b 94 24 a0
	00 00 00	 mov	 rdx, QWORD PTR cckd$[rsp]
  00e92	8b 8c 0a ec 01
	00 00		 mov	 ecx, DWORD PTR [rdx+rcx+492]
  00e99	48 99		 cdq
  00e9b	48 f7 f9	 idiv	 rcx
  00e9e	48 89 84 24 38
	01 00 00	 mov	 QWORD PTR tv547[rsp], rax
  00ea6	eb 0c		 jmp	 SHORT $LN73@cckd_sf_st
$LN72@cckd_sf_st:
  00ea8	48 c7 84 24 38
	01 00 00 e7 03
	00 00		 mov	 QWORD PTR tv547[rsp], 999 ; 000003e7H
$LN73@cckd_sf_st:
  00eb4	48 8b 84 24 90
	00 00 00	 mov	 rax, QWORD PTR dev$[rsp]
  00ebc	0f b6 80 10 13
	00 00		 movzx	 eax, BYTE PTR [rax+4880]
  00ec3	24 01		 and	 al, 1
  00ec5	0f b6 c0	 movzx	 eax, al
  00ec8	85 c0		 test	 eax, eax
  00eca	74 11		 je	 SHORT $LN74@cckd_sf_st
  00ecc	48 8d 05 00 00
	00 00		 lea	 rax, OFFSET FLAT:$SG172212
  00ed3	48 89 84 24 40
	01 00 00	 mov	 QWORD PTR tv560[rsp], rax
  00edb	eb 0f		 jmp	 SHORT $LN75@cckd_sf_st
$LN74@cckd_sf_st:
  00edd	48 8d 05 00 00
	00 00		 lea	 rax, OFFSET FLAT:$SG172213
  00ee4	48 89 84 24 40
	01 00 00	 mov	 QWORD PTR tv560[rsp], rax
$LN75@cckd_sf_st:
  00eec	48 83 bc 24 90
	00 00 00 00	 cmp	 QWORD PTR dev$[rsp], 0
  00ef5	74 15		 je	 SHORT $LN76@cckd_sf_st
  00ef7	48 8b 84 24 90
	00 00 00	 mov	 rax, QWORD PTR dev$[rsp]
  00eff	0f b7 40 48	 movzx	 eax, WORD PTR [rax+72]
  00f03	89 84 24 fc 00
	00 00		 mov	 DWORD PTR tv566[rsp], eax
  00f0a	eb 0b		 jmp	 SHORT $LN77@cckd_sf_st
$LN76@cckd_sf_st:
  00f0c	c7 84 24 fc 00
	00 00 00 00 00
	00		 mov	 DWORD PTR tv566[rsp], 0
$LN77@cckd_sf_st:
  00f17	48 83 bc 24 90
	00 00 00 00	 cmp	 QWORD PTR dev$[rsp], 0
  00f20	74 17		 je	 SHORT $LN78@cckd_sf_st
  00f22	48 8b 84 24 90
	00 00 00	 mov	 rax, QWORD PTR dev$[rsp]
  00f2a	0f b7 40 44	 movzx	 eax, WORD PTR [rax+68]
  00f2e	d1 f8		 sar	 eax, 1
  00f30	89 84 24 00 01
	00 00		 mov	 DWORD PTR tv572[rsp], eax
  00f37	eb 0b		 jmp	 SHORT $LN79@cckd_sf_st
$LN78@cckd_sf_st:
  00f39	c7 84 24 00 01
	00 00 00 00 00
	00		 mov	 DWORD PTR tv572[rsp], 0
$LN79@cckd_sf_st:
  00f44	48 63 84 24 98
	00 00 00	 movsxd	 rax, DWORD PTR i$[rsp]
  00f4c	48 89 84 24 88
	01 00 00	 mov	 QWORD PTR tv498[rsp], rax
  00f54	48 63 8c 24 98
	00 00 00	 movsxd	 rcx, DWORD PTR i$[rsp]
  00f5c	48 89 8c 24 90
	01 00 00	 mov	 QWORD PTR tv503[rsp], rcx
  00f64	48 63 94 24 98
	00 00 00	 movsxd	 rdx, DWORD PTR i$[rsp]
  00f6c	48 89 94 24 98
	01 00 00	 mov	 QWORD PTR tv508[rsp], rdx
  00f74	48 63 bc 24 98
	00 00 00	 movsxd	 rdi, DWORD PTR i$[rsp]
  00f7c	4c 8b 84 24 a0
	00 00 00	 mov	 r8, QWORD PTR cckd$[rsp]
  00f84	41 0f b6 bc 38
	1d 01 00 00	 movzx	 edi, BYTE PTR [r8+rdi+285]
  00f8d	4c 63 84 24 98
	00 00 00	 movsxd	 r8, DWORD PTR i$[rsp]
  00f95	4d 69 c0 00 02
	00 00		 imul	 r8, r8, 512		; 00000200H
  00f9c	4c 8b 8c 24 a0
	00 00 00	 mov	 r9, QWORD PTR cckd$[rsp]
  00fa4	4f 63 84 01 00
	02 00 00	 movsxd	 r8, DWORD PTR [r9+r8+512]
  00fac	4c 89 84 24 a0
	01 00 00	 mov	 QWORD PTR tv525[rsp], r8
  00fb4	4c 63 8c 24 98
	00 00 00	 movsxd	 r9, DWORD PTR i$[rsp]
  00fbc	4d 69 c9 00 02
	00 00		 imul	 r9, r9, 512		; 00000200H
  00fc3	4c 8b 94 24 a0
	00 00 00	 mov	 r10, QWORD PTR cckd$[rsp]
  00fcb	47 8b 8c 0a ec
	01 00 00	 mov	 r9d, DWORD PTR [r10+r9+492]
  00fd3	4c 89 8c 24 a8
	01 00 00	 mov	 QWORD PTR tv554[rsp], r9
  00fdb	b9 01 00 00 00	 mov	 ecx, 1
  00fe0	ff 15 00 00 00
	00		 call	 QWORD PTR __imp___acrt_iob_func
  00fe6	48 8b 8c 24 a0
	00 00 00	 mov	 rcx, QWORD PTR cckd$[rsp]
  00fee	48 8b 94 24 88
	01 00 00	 mov	 rdx, QWORD PTR tv498[rsp]
  00ff6	8b 8c 91 4c 01
	00 00		 mov	 ecx, DWORD PTR [rcx+rdx*4+332]
  00ffd	89 8c 24 88 00
	00 00		 mov	 DWORD PTR [rsp+136], ecx
  01004	48 8b 8c 24 a0
	00 00 00	 mov	 rcx, QWORD PTR cckd$[rsp]
  0100c	48 8b 94 24 90
	01 00 00	 mov	 rdx, QWORD PTR tv503[rsp]
  01014	8b 8c 91 70 01
	00 00		 mov	 ecx, DWORD PTR [rcx+rdx*4+368]
  0101b	89 8c 24 80 00
	00 00		 mov	 DWORD PTR [rsp+128], ecx
  01022	48 8b 8c 24 a0
	00 00 00	 mov	 rcx, QWORD PTR cckd$[rsp]
  0102a	48 8b 94 24 98
	01 00 00	 mov	 rdx, QWORD PTR tv508[rsp]
  01032	8b 8c 91 28 01
	00 00		 mov	 ecx, DWORD PTR [rcx+rdx*4+296]
  01039	89 4c 24 78	 mov	 DWORD PTR [rsp+120], ecx
  0103d	48 8b 8c fc e8
	01 00 00	 mov	 rcx, QWORD PTR ost$[rsp+rdi*8]
  01045	48 89 4c 24 70	 mov	 QWORD PTR [rsp+112], rcx
  0104a	48 8b 8c 24 a0
	01 00 00	 mov	 rcx, QWORD PTR tv525[rsp]
  01052	48 89 4c 24 68	 mov	 QWORD PTR [rsp+104], rcx
  01057	48 8b 8c 24 38
	01 00 00	 mov	 rcx, QWORD PTR tv547[rsp]
  0105f	48 89 4c 24 60	 mov	 QWORD PTR [rsp+96], rcx
  01064	48 8b 8c 24 a8
	01 00 00	 mov	 rcx, QWORD PTR tv554[rsp]
  0106c	48 89 4c 24 58	 mov	 QWORD PTR [rsp+88], rcx
  01071	48 8b 8c 24 40
	01 00 00	 mov	 rcx, QWORD PTR tv560[rsp]
  01079	48 89 4c 24 50	 mov	 QWORD PTR [rsp+80], rcx
  0107e	8b 8c 24 98 00
	00 00		 mov	 ecx, DWORD PTR i$[rsp]
  01085	89 4c 24 48	 mov	 DWORD PTR [rsp+72], ecx
  01089	8b 8c 24 fc 00
	00 00		 mov	 ecx, DWORD PTR tv566[rsp]
  01090	89 4c 24 40	 mov	 DWORD PTR [rsp+64], ecx
  01094	8b 8c 24 00 01
	00 00		 mov	 ecx, DWORD PTR tv572[rsp]
  0109b	89 4c 24 38	 mov	 DWORD PTR [rsp+56], ecx
  0109f	48 8d 0d 00 00
	00 00		 lea	 rcx, OFFSET FLAT:$SG172214
  010a6	48 89 4c 24 30	 mov	 QWORD PTR [rsp+48], rcx
  010ab	48 8d 0d 00 00
	00 00		 lea	 rcx, OFFSET FLAT:$SG172215
  010b2	48 89 4c 24 28	 mov	 QWORD PTR [rsp+40], rcx
  010b7	48 89 44 24 20	 mov	 QWORD PTR [rsp+32], rax
  010bc	41 b9 03 00 00
	00		 mov	 r9d, 3
  010c2	4c 8d 05 00 00
	00 00		 lea	 r8, OFFSET FLAT:$SG172216
  010c9	ba 06 13 00 00	 mov	 edx, 4870		; 00001306H
  010ce	48 8d 0d 00 00
	00 00		 lea	 rcx, OFFSET FLAT:$SG172217
  010d5	ff 15 00 00 00
	00		 call	 QWORD PTR __imp_fwritemsg

; 4862 : 
; 4863 :             , cckd->cdevhdr[i].cdh_size ?
; 4864 :               ((S64)(cckd->cdevhdr[i].free_total * 100) / cckd->cdevhdr[i].cdh_size) : 999
; 4865 :             ,  (S64) cckd->cdevhdr[i].free_num
; 4866 :             , ost[cckd->open[i]]
; 4867 :             , cckd->reads[i]
; 4868 :             , cckd->writes[i]
; 4869 :             , cckd->L2_reads[i]
; 4870 :         );
; 4871 :     }

  010db	e9 31 fd ff ff	 jmp	 $LN8@cckd_sf_st
$LN9@cckd_sf_st:

; 4872 : 
; 4873 :     return NULL;

  010e0	33 c0		 xor	 eax, eax
$LN1@cckd_sf_st:

; 4874 : } /* end function cckd_sf_stats */

  010e2	48 8b 8c 24 08
	02 00 00	 mov	 rcx, QWORD PTR __$ArrayPad$[rsp]
  010ea	48 33 cc	 xor	 rcx, rsp
  010ed	e8 00 00 00 00	 call	 __security_check_cookie
  010f2	48 81 c4 10 02
	00 00		 add	 rsp, 528		; 00000210H
  010f9	5f		 pop	 rdi
  010fa	c3		 ret	 0
cckd_sf_stats ENDP
_TEXT	ENDS
; Function compile flags: /Odtp
; File C:\papa\MyGit\hyperion-zvector\cckddasd.c
_TEXT	SEGMENT
dev$ = 96
cckd$ = 104
level$ = 112
n$1 = 116
tv74 = 120
tv80 = 124
tv147 = 128
tv153 = 132
tv186 = 136
tv192 = 140
rc$ = 144
tv173 = 152
data$ = 176
cckd_sf_chk PROC

; 4649 : {

$LN27:
  00000	48 89 4c 24 08	 mov	 QWORD PTR [rsp+8], rcx
  00005	48 81 ec a8 00
	00 00		 sub	 rsp, 168		; 000000a8H

; 4650 : DEVBLK         *dev = data;             /* -> DEVBLK                 */

  0000c	48 8b 84 24 b0
	00 00 00	 mov	 rax, QWORD PTR data$[rsp]
  00014	48 89 44 24 60	 mov	 QWORD PTR dev$[rsp], rax

; 4651 : CCKD_EXT       *cckd;                   /* -> cckd extension         */
; 4652 : int             rc;                     /* Return code               */
; 4653 : int             level = 2;              /* Check level               */

  00019	c7 44 24 70 02
	00 00 00	 mov	 DWORD PTR level$[rsp], 2

; 4654 : 
; 4655 :     /* NULL DEVBLK == all devices? */
; 4656 :     if (!dev)

  00021	48 83 7c 24 60
	00		 cmp	 QWORD PTR dev$[rsp], 0
  00027	0f 85 82 01 00
	00		 jne	 $LN7@cckd_sf_ch

; 4657 :     {
; 4658 :     int n = 0;

  0002d	c7 44 24 74 00
	00 00 00	 mov	 DWORD PTR n$1[rsp], 0

; 4659 :         level = cckdblk.sflevel;

  00035	8b 05 14 00 00
	00		 mov	 eax, DWORD PTR cckdblk+20
  0003b	89 44 24 70	 mov	 DWORD PTR level$[rsp], eax

; 4660 :         cckdblk.sflevel = 0;

  0003f	c7 05 14 00 00
	00 00 00 00 00	 mov	 DWORD PTR cckdblk+20, 0

; 4661 :         for (dev=sysblk.firstdev; dev; dev=dev->nextdev)

  00049	48 8b 05 00 00
	00 00		 mov	 rax, QWORD PTR __imp_sysblk
  00050	48 8b 80 c0 11
	00 00		 mov	 rax, QWORD PTR [rax+4544]
  00057	48 89 44 24 60	 mov	 QWORD PTR dev$[rsp], rax
  0005c	eb 0e		 jmp	 SHORT $LN4@cckd_sf_ch
$LN2@cckd_sf_ch:
  0005e	48 8b 44 24 60	 mov	 rax, QWORD PTR dev$[rsp]
  00063	48 8b 40 30	 mov	 rax, QWORD PTR [rax+48]
  00067	48 89 44 24 60	 mov	 QWORD PTR dev$[rsp], rax
$LN4@cckd_sf_ch:
  0006c	48 83 7c 24 60
	00		 cmp	 QWORD PTR dev$[rsp], 0
  00072	0f 84 e1 00 00
	00		 je	 $LN3@cckd_sf_ch

; 4662 :         {
; 4663 :             if ((cckd = dev->cckd_ext)) /* Compressed device? */

  00078	48 8b 44 24 60	 mov	 rax, QWORD PTR dev$[rsp]
  0007d	48 8b 80 08 13
	00 00		 mov	 rax, QWORD PTR [rax+4872]
  00084	48 89 44 24 68	 mov	 QWORD PTR cckd$[rsp], rax
  00089	48 83 7c 24 68
	00		 cmp	 QWORD PTR cckd$[rsp], 0
  0008f	0f 84 bf 00 00
	00		 je	 $LN8@cckd_sf_ch

; 4664 :             {
; 4665 :                 // "%1d:%04X CCKD file: checking level %d..."
; 4666 :                 WRMSG( HHC00330, "I", LCSS_DEVNUM, level );

  00095	48 83 7c 24 60
	00		 cmp	 QWORD PTR dev$[rsp], 0
  0009b	74 0f		 je	 SHORT $LN15@cckd_sf_ch
  0009d	48 8b 44 24 60	 mov	 rax, QWORD PTR dev$[rsp]
  000a2	0f b7 40 48	 movzx	 eax, WORD PTR [rax+72]
  000a6	89 44 24 78	 mov	 DWORD PTR tv74[rsp], eax
  000aa	eb 08		 jmp	 SHORT $LN16@cckd_sf_ch
$LN15@cckd_sf_ch:
  000ac	c7 44 24 78 00
	00 00 00	 mov	 DWORD PTR tv74[rsp], 0
$LN16@cckd_sf_ch:
  000b4	48 83 7c 24 60
	00		 cmp	 QWORD PTR dev$[rsp], 0
  000ba	74 11		 je	 SHORT $LN17@cckd_sf_ch
  000bc	48 8b 44 24 60	 mov	 rax, QWORD PTR dev$[rsp]
  000c1	0f b7 40 44	 movzx	 eax, WORD PTR [rax+68]
  000c5	d1 f8		 sar	 eax, 1
  000c7	89 44 24 7c	 mov	 DWORD PTR tv80[rsp], eax
  000cb	eb 08		 jmp	 SHORT $LN18@cckd_sf_ch
$LN17@cckd_sf_ch:
  000cd	c7 44 24 7c 00
	00 00 00	 mov	 DWORD PTR tv80[rsp], 0
$LN18@cckd_sf_ch:
  000d5	b9 01 00 00 00	 mov	 ecx, 1
  000da	ff 15 00 00 00
	00		 call	 QWORD PTR __imp___acrt_iob_func
  000e0	8b 4c 24 70	 mov	 ecx, DWORD PTR level$[rsp]
  000e4	89 4c 24 48	 mov	 DWORD PTR [rsp+72], ecx
  000e8	8b 4c 24 78	 mov	 ecx, DWORD PTR tv74[rsp]
  000ec	89 4c 24 40	 mov	 DWORD PTR [rsp+64], ecx
  000f0	8b 4c 24 7c	 mov	 ecx, DWORD PTR tv80[rsp]
  000f4	89 4c 24 38	 mov	 DWORD PTR [rsp+56], ecx
  000f8	48 8d 0d 00 00
	00 00		 lea	 rcx, OFFSET FLAT:$SG172078
  000ff	48 89 4c 24 30	 mov	 QWORD PTR [rsp+48], rcx
  00104	48 8d 0d 00 00
	00 00		 lea	 rcx, OFFSET FLAT:$SG172079
  0010b	48 89 4c 24 28	 mov	 QWORD PTR [rsp+40], rcx
  00110	48 89 44 24 20	 mov	 QWORD PTR [rsp+32], rax
  00115	41 b9 03 00 00
	00		 mov	 r9d, 3
  0011b	4c 8d 05 00 00
	00 00		 lea	 r8, OFFSET FLAT:$SG172080
  00122	ba 3a 12 00 00	 mov	 edx, 4666		; 0000123aH
  00127	48 8d 0d 00 00
	00 00		 lea	 rcx, OFFSET FLAT:$SG172081
  0012e	ff 15 00 00 00
	00		 call	 QWORD PTR __imp_fwritemsg

; 4667 :                 cckd->sflevel = level;

  00134	48 8b 44 24 68	 mov	 rax, QWORD PTR cckd$[rsp]
  00139	8b 4c 24 70	 mov	 ecx, DWORD PTR level$[rsp]
  0013d	89 48 0c	 mov	 DWORD PTR [rax+12], ecx

; 4668 :                 cckd_sf_chk( dev );

  00140	48 8b 4c 24 60	 mov	 rcx, QWORD PTR dev$[rsp]
  00145	e8 00 00 00 00	 call	 cckd_sf_chk

; 4669 :                 n++;

  0014a	8b 44 24 74	 mov	 eax, DWORD PTR n$1[rsp]
  0014e	ff c0		 inc	 eax
  00150	89 44 24 74	 mov	 DWORD PTR n$1[rsp], eax
$LN8@cckd_sf_ch:

; 4670 :             }
; 4671 :         }

  00154	e9 05 ff ff ff	 jmp	 $LN2@cckd_sf_ch
$LN3@cckd_sf_ch:

; 4672 :         // "CCKD file number of devices processed: %d"
; 4673 :         WRMSG( HHC00316, "I", n );

  00159	b9 01 00 00 00	 mov	 ecx, 1
  0015e	ff 15 00 00 00
	00		 call	 QWORD PTR __imp___acrt_iob_func
  00164	8b 4c 24 74	 mov	 ecx, DWORD PTR n$1[rsp]
  00168	89 4c 24 38	 mov	 DWORD PTR [rsp+56], ecx
  0016c	48 8d 0d 00 00
	00 00		 lea	 rcx, OFFSET FLAT:$SG172082
  00173	48 89 4c 24 30	 mov	 QWORD PTR [rsp+48], rcx
  00178	48 8d 0d 00 00
	00 00		 lea	 rcx, OFFSET FLAT:$SG172083
  0017f	48 89 4c 24 28	 mov	 QWORD PTR [rsp+40], rcx
  00184	48 89 44 24 20	 mov	 QWORD PTR [rsp+32], rax
  00189	41 b9 03 00 00
	00		 mov	 r9d, 3
  0018f	4c 8d 05 00 00
	00 00		 lea	 r8, OFFSET FLAT:$SG172084
  00196	ba 41 12 00 00	 mov	 edx, 4673		; 00001241H
  0019b	48 8d 0d 00 00
	00 00		 lea	 rcx, OFFSET FLAT:$SG172085
  001a2	ff 15 00 00 00
	00		 call	 QWORD PTR __imp_fwritemsg

; 4674 :         return NULL;

  001a8	33 c0		 xor	 eax, eax
  001aa	e9 e5 03 00 00	 jmp	 $LN1@cckd_sf_ch
$LN7@cckd_sf_ch:

; 4675 :     }
; 4676 : 
; 4677 :     if (dev->cckd64)

  001af	48 8b 44 24 60	 mov	 rax, QWORD PTR dev$[rsp]
  001b4	0f b6 80 10 13
	00 00		 movzx	 eax, BYTE PTR [rax+4880]
  001bb	24 01		 and	 al, 1
  001bd	0f b6 c0	 movzx	 eax, al
  001c0	85 c0		 test	 eax, eax
  001c2	74 12		 je	 SHORT $LN9@cckd_sf_ch

; 4678 :         return cckd64_sf_chk( data );

  001c4	48 8b 8c 24 b0
	00 00 00	 mov	 rcx, QWORD PTR data$[rsp]
  001cc	e8 00 00 00 00	 call	 cckd64_sf_chk
  001d1	e9 be 03 00 00	 jmp	 $LN1@cckd_sf_ch
$LN9@cckd_sf_ch:

; 4679 : 
; 4680 :     if (!(cckd = dev->cckd_ext))

  001d6	48 8b 44 24 60	 mov	 rax, QWORD PTR dev$[rsp]
  001db	48 8b 80 08 13
	00 00		 mov	 rax, QWORD PTR [rax+4872]
  001e2	48 89 44 24 68	 mov	 QWORD PTR cckd$[rsp], rax
  001e7	48 83 7c 24 68
	00		 cmp	 QWORD PTR cckd$[rsp], 0
  001ed	0f 85 b0 00 00
	00		 jne	 $LN10@cckd_sf_ch

; 4681 :     {
; 4682 :         // "%1d:%04X CCKD file: device is not a cckd device"
; 4683 :         WRMSG( HHC00317, "W",  LCSS_DEVNUM );

  001f3	48 83 7c 24 60
	00		 cmp	 QWORD PTR dev$[rsp], 0
  001f9	74 12		 je	 SHORT $LN19@cckd_sf_ch
  001fb	48 8b 44 24 60	 mov	 rax, QWORD PTR dev$[rsp]
  00200	0f b7 40 48	 movzx	 eax, WORD PTR [rax+72]
  00204	89 84 24 80 00
	00 00		 mov	 DWORD PTR tv147[rsp], eax
  0020b	eb 0b		 jmp	 SHORT $LN20@cckd_sf_ch
$LN19@cckd_sf_ch:
  0020d	c7 84 24 80 00
	00 00 00 00 00
	00		 mov	 DWORD PTR tv147[rsp], 0
$LN20@cckd_sf_ch:
  00218	48 83 7c 24 60
	00		 cmp	 QWORD PTR dev$[rsp], 0
  0021e	74 14		 je	 SHORT $LN21@cckd_sf_ch
  00220	48 8b 44 24 60	 mov	 rax, QWORD PTR dev$[rsp]
  00225	0f b7 40 44	 movzx	 eax, WORD PTR [rax+68]
  00229	d1 f8		 sar	 eax, 1
  0022b	89 84 24 84 00
	00 00		 mov	 DWORD PTR tv153[rsp], eax
  00232	eb 0b		 jmp	 SHORT $LN22@cckd_sf_ch
$LN21@cckd_sf_ch:
  00234	c7 84 24 84 00
	00 00 00 00 00
	00		 mov	 DWORD PTR tv153[rsp], 0
$LN22@cckd_sf_ch:
  0023f	b9 01 00 00 00	 mov	 ecx, 1
  00244	ff 15 00 00 00
	00		 call	 QWORD PTR __imp___acrt_iob_func
  0024a	8b 8c 24 80 00
	00 00		 mov	 ecx, DWORD PTR tv147[rsp]
  00251	89 4c 24 40	 mov	 DWORD PTR [rsp+64], ecx
  00255	8b 8c 24 84 00
	00 00		 mov	 ecx, DWORD PTR tv153[rsp]
  0025c	89 4c 24 38	 mov	 DWORD PTR [rsp+56], ecx
  00260	48 8d 0d 00 00
	00 00		 lea	 rcx, OFFSET FLAT:$SG172088
  00267	48 89 4c 24 30	 mov	 QWORD PTR [rsp+48], rcx
  0026c	48 8d 0d 00 00
	00 00		 lea	 rcx, OFFSET FLAT:$SG172089
  00273	48 89 4c 24 28	 mov	 QWORD PTR [rsp+40], rcx
  00278	48 89 44 24 20	 mov	 QWORD PTR [rsp+32], rax
  0027d	41 b9 03 00 00
	00		 mov	 r9d, 3
  00283	4c 8d 05 00 00
	00 00		 lea	 r8, OFFSET FLAT:$SG172090
  0028a	ba 4b 12 00 00	 mov	 edx, 4683		; 0000124bH
  0028f	48 8d 0d 00 00
	00 00		 lea	 rcx, OFFSET FLAT:$SG172091
  00296	ff 15 00 00 00
	00		 call	 QWORD PTR __imp_fwritemsg

; 4684 :         return NULL;

  0029c	33 c0		 xor	 eax, eax
  0029e	e9 f1 02 00 00	 jmp	 $LN1@cckd_sf_ch
$LN10@cckd_sf_ch:

; 4685 :     }
; 4686 : 
; 4687 :     level = cckd->sflevel;

  002a3	48 8b 44 24 68	 mov	 rax, QWORD PTR cckd$[rsp]
  002a8	8b 40 0c	 mov	 eax, DWORD PTR [rax+12]
  002ab	89 44 24 70	 mov	 DWORD PTR level$[rsp], eax

; 4688 :     cckd->sflevel = 0;

  002af	48 8b 44 24 68	 mov	 rax, QWORD PTR cckd$[rsp]
  002b4	c7 40 0c 00 00
	00 00		 mov	 DWORD PTR [rax+12], 0

; 4689 : 
; 4690 :     /* schedule updated track entries to be written */
; 4691 :     obtain_lock( &cckd->cckdiolock );

  002bb	48 8b 44 24 68	 mov	 rax, QWORD PTR cckd$[rsp]
  002c0	48 83 c0 18	 add	 rax, 24
  002c4	48 8d 15 00 00
	00 00		 lea	 rdx, OFFSET FLAT:$SG172092
  002cb	48 8b c8	 mov	 rcx, rax
  002ce	ff 15 00 00 00
	00		 call	 QWORD PTR __imp_hthread_obtain_lock

; 4692 :     {
; 4693 :         if (cckd->merging)

  002d4	48 8b 44 24 68	 mov	 rax, QWORD PTR cckd$[rsp]
  002d9	8b 40 08	 mov	 eax, DWORD PTR [rax+8]
  002dc	c1 e8 05	 shr	 eax, 5
  002df	83 e0 01	 and	 eax, 1
  002e2	85 c0		 test	 eax, eax
  002e4	0f 84 fc 00 00
	00		 je	 $LN11@cckd_sf_ch

; 4694 :         {
; 4695 :             release_lock( &cckd->cckdiolock );

  002ea	48 8b 44 24 68	 mov	 rax, QWORD PTR cckd$[rsp]
  002ef	48 83 c0 18	 add	 rax, 24
  002f3	48 8d 15 00 00
	00 00		 lea	 rdx, OFFSET FLAT:$SG172094
  002fa	48 8b c8	 mov	 rcx, rax
  002fd	ff 15 00 00 00
	00		 call	 QWORD PTR __imp_hthread_release_lock

; 4696 :             // "%1d:%04X CCKD file[%d] %s: shadow file check failed, sf command busy on device"
; 4697 :             WRMSG( HHC00331, "W", LCSS_DEVNUM, cckd->sfn, cckd_sf_name( dev, cckd->sfn ));

  00303	48 83 7c 24 60
	00		 cmp	 QWORD PTR dev$[rsp], 0
  00309	74 12		 je	 SHORT $LN23@cckd_sf_ch
  0030b	48 8b 44 24 60	 mov	 rax, QWORD PTR dev$[rsp]
  00310	0f b7 40 48	 movzx	 eax, WORD PTR [rax+72]
  00314	89 84 24 88 00
	00 00		 mov	 DWORD PTR tv186[rsp], eax
  0031b	eb 0b		 jmp	 SHORT $LN24@cckd_sf_ch
$LN23@cckd_sf_ch:
  0031d	c7 84 24 88 00
	00 00 00 00 00
	00		 mov	 DWORD PTR tv186[rsp], 0
$LN24@cckd_sf_ch:
  00328	48 83 7c 24 60
	00		 cmp	 QWORD PTR dev$[rsp], 0
  0032e	74 14		 je	 SHORT $LN25@cckd_sf_ch
  00330	48 8b 44 24 60	 mov	 rax, QWORD PTR dev$[rsp]
  00335	0f b7 40 44	 movzx	 eax, WORD PTR [rax+68]
  00339	d1 f8		 sar	 eax, 1
  0033b	89 84 24 8c 00
	00 00		 mov	 DWORD PTR tv192[rsp], eax
  00342	eb 0b		 jmp	 SHORT $LN26@cckd_sf_ch
$LN25@cckd_sf_ch:
  00344	c7 84 24 8c 00
	00 00 00 00 00
	00		 mov	 DWORD PTR tv192[rsp], 0
$LN26@cckd_sf_ch:
  0034f	48 8b 44 24 68	 mov	 rax, QWORD PTR cckd$[rsp]
  00354	8b 50 3c	 mov	 edx, DWORD PTR [rax+60]
  00357	48 8b 4c 24 60	 mov	 rcx, QWORD PTR dev$[rsp]
  0035c	e8 00 00 00 00	 call	 cckd_sf_name
  00361	48 89 84 24 98
	00 00 00	 mov	 QWORD PTR tv173[rsp], rax
  00369	b9 01 00 00 00	 mov	 ecx, 1
  0036e	ff 15 00 00 00
	00		 call	 QWORD PTR __imp___acrt_iob_func
  00374	48 8b 8c 24 98
	00 00 00	 mov	 rcx, QWORD PTR tv173[rsp]
  0037c	48 89 4c 24 50	 mov	 QWORD PTR [rsp+80], rcx
  00381	48 8b 4c 24 68	 mov	 rcx, QWORD PTR cckd$[rsp]
  00386	8b 49 3c	 mov	 ecx, DWORD PTR [rcx+60]
  00389	89 4c 24 48	 mov	 DWORD PTR [rsp+72], ecx
  0038d	8b 8c 24 88 00
	00 00		 mov	 ecx, DWORD PTR tv186[rsp]
  00394	89 4c 24 40	 mov	 DWORD PTR [rsp+64], ecx
  00398	8b 8c 24 8c 00
	00 00		 mov	 ecx, DWORD PTR tv192[rsp]
  0039f	89 4c 24 38	 mov	 DWORD PTR [rsp+56], ecx
  003a3	48 8d 0d 00 00
	00 00		 lea	 rcx, OFFSET FLAT:$SG172095
  003aa	48 89 4c 24 30	 mov	 QWORD PTR [rsp+48], rcx
  003af	48 8d 0d 00 00
	00 00		 lea	 rcx, OFFSET FLAT:$SG172096
  003b6	48 89 4c 24 28	 mov	 QWORD PTR [rsp+40], rcx
  003bb	48 89 44 24 20	 mov	 QWORD PTR [rsp+32], rax
  003c0	41 b9 03 00 00
	00		 mov	 r9d, 3
  003c6	4c 8d 05 00 00
	00 00		 lea	 r8, OFFSET FLAT:$SG172097
  003cd	ba 59 12 00 00	 mov	 edx, 4697		; 00001259H
  003d2	48 8d 0d 00 00
	00 00		 lea	 rcx, OFFSET FLAT:$SG172098
  003d9	ff 15 00 00 00
	00		 call	 QWORD PTR __imp_fwritemsg

; 4698 :             return NULL;

  003df	33 c0		 xor	 eax, eax
  003e1	e9 ae 01 00 00	 jmp	 $LN1@cckd_sf_ch
$LN11@cckd_sf_ch:

; 4699 :         }
; 4700 : 
; 4701 :         cckd->merging = 1;

  003e6	48 8b 44 24 68	 mov	 rax, QWORD PTR cckd$[rsp]
  003eb	8b 40 08	 mov	 eax, DWORD PTR [rax+8]
  003ee	83 c8 20	 or	 eax, 32			; 00000020H
  003f1	48 8b 4c 24 68	 mov	 rcx, QWORD PTR cckd$[rsp]
  003f6	89 41 08	 mov	 DWORD PTR [rcx+8], eax

; 4702 :         cckd_flush_cache( dev );

  003f9	48 8b 4c 24 60	 mov	 rcx, QWORD PTR dev$[rsp]
  003fe	e8 00 00 00 00	 call	 cckd_flush_cache
$LN5@cckd_sf_ch:

; 4703 : 
; 4704 :         while (cckd->wrpending || cckd->cckdioact)

  00403	48 8b 44 24 68	 mov	 rax, QWORD PTR cckd$[rsp]
  00408	83 78 34 00	 cmp	 DWORD PTR [rax+52], 0
  0040c	75 12		 jne	 SHORT $LN12@cckd_sf_ch
  0040e	48 8b 44 24 68	 mov	 rax, QWORD PTR cckd$[rsp]
  00413	8b 40 08	 mov	 eax, DWORD PTR [rax+8]
  00416	c1 e8 02	 shr	 eax, 2
  00419	83 e0 01	 and	 eax, 1
  0041c	85 c0		 test	 eax, eax
  0041e	74 52		 je	 SHORT $LN6@cckd_sf_ch
$LN12@cckd_sf_ch:

; 4705 :         {
; 4706 :             cckd->cckdwaiters++;

  00420	48 8b 44 24 68	 mov	 rax, QWORD PTR cckd$[rsp]
  00425	8b 40 30	 mov	 eax, DWORD PTR [rax+48]
  00428	ff c0		 inc	 eax
  0042a	48 8b 4c 24 68	 mov	 rcx, QWORD PTR cckd$[rsp]
  0042f	89 41 30	 mov	 DWORD PTR [rcx+48], eax

; 4707 :             {
; 4708 :                 wait_condition( &cckd->cckdiocond, &cckd->cckdiolock );

  00432	48 8b 44 24 68	 mov	 rax, QWORD PTR cckd$[rsp]
  00437	48 83 c0 18	 add	 rax, 24
  0043b	48 8b 4c 24 68	 mov	 rcx, QWORD PTR cckd$[rsp]
  00440	48 83 c1 20	 add	 rcx, 32			; 00000020H
  00444	4c 8d 05 00 00
	00 00		 lea	 r8, OFFSET FLAT:$SG172100
  0044b	48 8b d0	 mov	 rdx, rax
  0044e	ff 15 00 00 00
	00		 call	 QWORD PTR __imp_hthread_wait_condition

; 4709 :             }
; 4710 :             cckd->cckdwaiters--;

  00454	48 8b 44 24 68	 mov	 rax, QWORD PTR cckd$[rsp]
  00459	8b 40 30	 mov	 eax, DWORD PTR [rax+48]
  0045c	ff c8		 dec	 eax
  0045e	48 8b 4c 24 68	 mov	 rcx, QWORD PTR cckd$[rsp]
  00463	89 41 30	 mov	 DWORD PTR [rcx+48], eax

; 4711 :             cckd_flush_cache( dev );

  00466	48 8b 4c 24 60	 mov	 rcx, QWORD PTR dev$[rsp]
  0046b	e8 00 00 00 00	 call	 cckd_flush_cache

; 4712 :         }

  00470	eb 91		 jmp	 SHORT $LN5@cckd_sf_ch
$LN6@cckd_sf_ch:

; 4713 :         cckd_purge_cache( dev );

  00472	48 8b 4c 24 60	 mov	 rcx, QWORD PTR dev$[rsp]
  00477	e8 00 00 00 00	 call	 cckd_purge_cache

; 4714 :         cckd_purge_l2( dev );

  0047c	48 8b 4c 24 60	 mov	 rcx, QWORD PTR dev$[rsp]
  00481	e8 00 00 00 00	 call	 cckd_purge_l2

; 4715 :         dev->bufcur = -1;

  00486	48 8b 44 24 60	 mov	 rax, QWORD PTR dev$[rsp]
  0048b	c7 80 c0 01 00
	00 ff ff ff ff	 mov	 DWORD PTR [rax+448], -1

; 4716 :         dev->cache  = -1;

  00495	48 8b 44 24 60	 mov	 rax, QWORD PTR dev$[rsp]
  0049a	c7 80 f8 01 00
	00 ff ff ff ff	 mov	 DWORD PTR [rax+504], -1

; 4717 :     }
; 4718 :     release_lock( &cckd->cckdiolock );

  004a4	48 8b 44 24 68	 mov	 rax, QWORD PTR cckd$[rsp]
  004a9	48 83 c0 18	 add	 rax, 24
  004ad	48 8d 15 00 00
	00 00		 lea	 rdx, OFFSET FLAT:$SG172101
  004b4	48 8b c8	 mov	 rcx, rax
  004b7	ff 15 00 00 00
	00		 call	 QWORD PTR __imp_hthread_release_lock

; 4719 : 
; 4720 :     /* obtain control of the file */
; 4721 :     obtain_lock( &cckd->filelock );

  004bd	48 8b 44 24 68	 mov	 rax, QWORD PTR cckd$[rsp]
  004c2	48 83 c0 10	 add	 rax, 16
  004c6	48 8d 15 00 00
	00 00		 lea	 rdx, OFFSET FLAT:$SG172102
  004cd	48 8b c8	 mov	 rcx, rax
  004d0	ff 15 00 00 00
	00		 call	 QWORD PTR __imp_hthread_obtain_lock

; 4722 :     {
; 4723 :         /* harden the current file */
; 4724 :         cckd_harden( dev );

  004d6	48 8b 4c 24 60	 mov	 rcx, QWORD PTR dev$[rsp]
  004db	e8 00 00 00 00	 call	 cckd_harden

; 4725 : 
; 4726 :         /* Call the chkdsk function */
; 4727 :         rc = cckd_chkdsk( dev, level );

  004e0	8b 54 24 70	 mov	 edx, DWORD PTR level$[rsp]
  004e4	48 8b 4c 24 60	 mov	 rcx, QWORD PTR dev$[rsp]
  004e9	e8 00 00 00 00	 call	 cckd_chkdsk
  004ee	89 84 24 90 00
	00 00		 mov	 DWORD PTR rc$[rsp], eax

; 4728 : 
; 4729 :         /* Perform initial read */
; 4730 :         rc = cckd_read_init( dev );

  004f5	48 8b 4c 24 60	 mov	 rcx, QWORD PTR dev$[rsp]
  004fa	e8 00 00 00 00	 call	 cckd_read_init
  004ff	89 84 24 90 00
	00 00		 mov	 DWORD PTR rc$[rsp], eax

; 4731 :     }
; 4732 :     release_lock( &cckd->filelock );

  00506	48 8b 44 24 68	 mov	 rax, QWORD PTR cckd$[rsp]
  0050b	48 83 c0 10	 add	 rax, 16
  0050f	48 8d 15 00 00
	00 00		 lea	 rdx, OFFSET FLAT:$SG172103
  00516	48 8b c8	 mov	 rcx, rax
  00519	ff 15 00 00 00
	00		 call	 QWORD PTR __imp_hthread_release_lock

; 4733 : 
; 4734 :     obtain_lock( &cckd->cckdiolock );

  0051f	48 8b 44 24 68	 mov	 rax, QWORD PTR cckd$[rsp]
  00524	48 83 c0 18	 add	 rax, 24
  00528	48 8d 15 00 00
	00 00		 lea	 rdx, OFFSET FLAT:$SG172104
  0052f	48 8b c8	 mov	 rcx, rax
  00532	ff 15 00 00 00
	00		 call	 QWORD PTR __imp_hthread_obtain_lock

; 4735 :     {
; 4736 :         cckd->merging = 0;

  00538	48 8b 44 24 68	 mov	 rax, QWORD PTR cckd$[rsp]
  0053d	8b 40 08	 mov	 eax, DWORD PTR [rax+8]
  00540	83 e0 df	 and	 eax, -33		; ffffffdfH
  00543	48 8b 4c 24 68	 mov	 rcx, QWORD PTR cckd$[rsp]
  00548	89 41 08	 mov	 DWORD PTR [rcx+8], eax

; 4737 :         if (cckd->cckdwaiters)

  0054b	48 8b 44 24 68	 mov	 rax, QWORD PTR cckd$[rsp]
  00550	83 78 30 00	 cmp	 DWORD PTR [rax+48], 0
  00554	74 19		 je	 SHORT $LN13@cckd_sf_ch

; 4738 :             broadcast_condition( &cckd->cckdiocond );

  00556	48 8b 44 24 68	 mov	 rax, QWORD PTR cckd$[rsp]
  0055b	48 83 c0 20	 add	 rax, 32			; 00000020H
  0055f	48 8d 15 00 00
	00 00		 lea	 rdx, OFFSET FLAT:$SG172106
  00566	48 8b c8	 mov	 rcx, rax
  00569	ff 15 00 00 00
	00		 call	 QWORD PTR __imp_hthread_broadcast_condition
$LN13@cckd_sf_ch:

; 4739 :     }
; 4740 :     release_lock( &cckd->cckdiolock );

  0056f	48 8b 44 24 68	 mov	 rax, QWORD PTR cckd$[rsp]
  00574	48 83 c0 18	 add	 rax, 24
  00578	48 8d 15 00 00
	00 00		 lea	 rdx, OFFSET FLAT:$SG172107
  0057f	48 8b c8	 mov	 rcx, rax
  00582	ff 15 00 00 00
	00		 call	 QWORD PTR __imp_hthread_release_lock

; 4741 : 
; 4742 :     /* Display the shadow file statistics */
; 4743 :     cckd_sf_stats( dev );

  00588	48 8b 4c 24 60	 mov	 rcx, QWORD PTR dev$[rsp]
  0058d	e8 00 00 00 00	 call	 cckd_sf_stats

; 4744 : 
; 4745 :     return NULL;

  00592	33 c0		 xor	 eax, eax
$LN1@cckd_sf_ch:

; 4746 : } /* end function cckd_sf_chk */

  00594	48 81 c4 a8 00
	00 00		 add	 rsp, 168		; 000000a8H
  0059b	c3		 ret	 0
cckd_sf_chk ENDP
_TEXT	ENDS
; Function compile flags: /Odtp
; File C:\papa\MyGit\hyperion-zvector\cckddasd.c
_TEXT	SEGMENT
dev$ = 96
cckd$ = 104
n$1 = 112
tv73 = 116
tv79 = 120
tv145 = 124
tv151 = 128
tv182 = 132
tv188 = 136
rc$ = 140
tv169 = 144
data$ = 176
cckd_sf_comp PROC

; 4558 : {

$LN27:
  00000	48 89 4c 24 08	 mov	 QWORD PTR [rsp+8], rcx
  00005	48 81 ec a8 00
	00 00		 sub	 rsp, 168		; 000000a8H

; 4559 : DEVBLK         *dev = data;             /* -> DEVBLK                 */

  0000c	48 8b 84 24 b0
	00 00 00	 mov	 rax, QWORD PTR data$[rsp]
  00014	48 89 44 24 60	 mov	 QWORD PTR dev$[rsp], rax

; 4560 : CCKD_EXT       *cckd;                   /* -> cckd extension         */
; 4561 : int             rc;                     /* Return code               */
; 4562 : 
; 4563 :     /* NULL DEVBLK == all devices? */
; 4564 :     if (!dev)

  00019	48 83 7c 24 60
	00		 cmp	 QWORD PTR dev$[rsp], 0
  0001f	0f 85 50 01 00
	00		 jne	 $LN7@cckd_sf_co

; 4565 :     {
; 4566 :     int n = 0;

  00025	c7 44 24 70 00
	00 00 00	 mov	 DWORD PTR n$1[rsp], 0

; 4567 :         for (dev=sysblk.firstdev; dev; dev=dev->nextdev)

  0002d	48 8b 05 00 00
	00 00		 mov	 rax, QWORD PTR __imp_sysblk
  00034	48 8b 80 c0 11
	00 00		 mov	 rax, QWORD PTR [rax+4544]
  0003b	48 89 44 24 60	 mov	 QWORD PTR dev$[rsp], rax
  00040	eb 0e		 jmp	 SHORT $LN4@cckd_sf_co
$LN2@cckd_sf_co:
  00042	48 8b 44 24 60	 mov	 rax, QWORD PTR dev$[rsp]
  00047	48 8b 40 30	 mov	 rax, QWORD PTR [rax+48]
  0004b	48 89 44 24 60	 mov	 QWORD PTR dev$[rsp], rax
$LN4@cckd_sf_co:
  00050	48 83 7c 24 60
	00		 cmp	 QWORD PTR dev$[rsp], 0
  00056	0f 84 c3 00 00
	00		 je	 $LN3@cckd_sf_co

; 4568 :         {
; 4569 :             if (dev->cckd_ext)  /* Is this a compressed device? */

  0005c	48 8b 44 24 60	 mov	 rax, QWORD PTR dev$[rsp]
  00061	48 83 b8 08 13
	00 00 00	 cmp	 QWORD PTR [rax+4872], 0
  00069	0f 84 ab 00 00
	00		 je	 $LN8@cckd_sf_co

; 4570 :             {
; 4571 :                 // "%1d:%04X CCKD file: compressing shadow files..."
; 4572 :                 WRMSG( HHC00328, "I", LCSS_DEVNUM );

  0006f	48 83 7c 24 60
	00		 cmp	 QWORD PTR dev$[rsp], 0
  00075	74 0f		 je	 SHORT $LN15@cckd_sf_co
  00077	48 8b 44 24 60	 mov	 rax, QWORD PTR dev$[rsp]
  0007c	0f b7 40 48	 movzx	 eax, WORD PTR [rax+72]
  00080	89 44 24 74	 mov	 DWORD PTR tv73[rsp], eax
  00084	eb 08		 jmp	 SHORT $LN16@cckd_sf_co
$LN15@cckd_sf_co:
  00086	c7 44 24 74 00
	00 00 00	 mov	 DWORD PTR tv73[rsp], 0
$LN16@cckd_sf_co:
  0008e	48 83 7c 24 60
	00		 cmp	 QWORD PTR dev$[rsp], 0
  00094	74 11		 je	 SHORT $LN17@cckd_sf_co
  00096	48 8b 44 24 60	 mov	 rax, QWORD PTR dev$[rsp]
  0009b	0f b7 40 44	 movzx	 eax, WORD PTR [rax+68]
  0009f	d1 f8		 sar	 eax, 1
  000a1	89 44 24 78	 mov	 DWORD PTR tv79[rsp], eax
  000a5	eb 08		 jmp	 SHORT $LN18@cckd_sf_co
$LN17@cckd_sf_co:
  000a7	c7 44 24 78 00
	00 00 00	 mov	 DWORD PTR tv79[rsp], 0
$LN18@cckd_sf_co:
  000af	b9 01 00 00 00	 mov	 ecx, 1
  000b4	ff 15 00 00 00
	00		 call	 QWORD PTR __imp___acrt_iob_func
  000ba	8b 4c 24 74	 mov	 ecx, DWORD PTR tv73[rsp]
  000be	89 4c 24 40	 mov	 DWORD PTR [rsp+64], ecx
  000c2	8b 4c 24 78	 mov	 ecx, DWORD PTR tv79[rsp]
  000c6	89 4c 24 38	 mov	 DWORD PTR [rsp+56], ecx
  000ca	48 8d 0d 00 00
	00 00		 lea	 rcx, OFFSET FLAT:$SG172029
  000d1	48 89 4c 24 30	 mov	 QWORD PTR [rsp+48], rcx
  000d6	48 8d 0d 00 00
	00 00		 lea	 rcx, OFFSET FLAT:$SG172030
  000dd	48 89 4c 24 28	 mov	 QWORD PTR [rsp+40], rcx
  000e2	48 89 44 24 20	 mov	 QWORD PTR [rsp+32], rax
  000e7	41 b9 03 00 00
	00		 mov	 r9d, 3
  000ed	4c 8d 05 00 00
	00 00		 lea	 r8, OFFSET FLAT:$SG172031
  000f4	ba dc 11 00 00	 mov	 edx, 4572		; 000011dcH
  000f9	48 8d 0d 00 00
	00 00		 lea	 rcx, OFFSET FLAT:$SG172032
  00100	ff 15 00 00 00
	00		 call	 QWORD PTR __imp_fwritemsg

; 4573 :                 cckd_sf_comp( dev );

  00106	48 8b 4c 24 60	 mov	 rcx, QWORD PTR dev$[rsp]
  0010b	e8 00 00 00 00	 call	 cckd_sf_comp

; 4574 :                 n++;

  00110	8b 44 24 70	 mov	 eax, DWORD PTR n$1[rsp]
  00114	ff c0		 inc	 eax
  00116	89 44 24 70	 mov	 DWORD PTR n$1[rsp], eax
$LN8@cckd_sf_co:

; 4575 :             }
; 4576 :         }

  0011a	e9 23 ff ff ff	 jmp	 $LN2@cckd_sf_co
$LN3@cckd_sf_co:

; 4577 :         // "CCKD file number of devices processed: %d"
; 4578 :         WRMSG ( HHC00316, "I", n );

  0011f	b9 01 00 00 00	 mov	 ecx, 1
  00124	ff 15 00 00 00
	00		 call	 QWORD PTR __imp___acrt_iob_func
  0012a	8b 4c 24 70	 mov	 ecx, DWORD PTR n$1[rsp]
  0012e	89 4c 24 38	 mov	 DWORD PTR [rsp+56], ecx
  00132	48 8d 0d 00 00
	00 00		 lea	 rcx, OFFSET FLAT:$SG172033
  00139	48 89 4c 24 30	 mov	 QWORD PTR [rsp+48], rcx
  0013e	48 8d 0d 00 00
	00 00		 lea	 rcx, OFFSET FLAT:$SG172034
  00145	48 89 4c 24 28	 mov	 QWORD PTR [rsp+40], rcx
  0014a	48 89 44 24 20	 mov	 QWORD PTR [rsp+32], rax
  0014f	41 b9 03 00 00
	00		 mov	 r9d, 3
  00155	4c 8d 05 00 00
	00 00		 lea	 r8, OFFSET FLAT:$SG172035
  0015c	ba e2 11 00 00	 mov	 edx, 4578		; 000011e2H
  00161	48 8d 0d 00 00
	00 00		 lea	 rcx, OFFSET FLAT:$SG172036
  00168	ff 15 00 00 00
	00		 call	 QWORD PTR __imp_fwritemsg

; 4579 :         return NULL;

  0016e	33 c0		 xor	 eax, eax
  00170	e9 c0 03 00 00	 jmp	 $LN1@cckd_sf_co
$LN7@cckd_sf_co:

; 4580 :     }
; 4581 : 
; 4582 :     if (dev->cckd64)

  00175	48 8b 44 24 60	 mov	 rax, QWORD PTR dev$[rsp]
  0017a	0f b6 80 10 13
	00 00		 movzx	 eax, BYTE PTR [rax+4880]
  00181	24 01		 and	 al, 1
  00183	0f b6 c0	 movzx	 eax, al
  00186	85 c0		 test	 eax, eax
  00188	74 12		 je	 SHORT $LN9@cckd_sf_co

; 4583 :         return cckd64_sf_comp( data );

  0018a	48 8b 8c 24 b0
	00 00 00	 mov	 rcx, QWORD PTR data$[rsp]
  00192	e8 00 00 00 00	 call	 cckd64_sf_comp
  00197	e9 99 03 00 00	 jmp	 $LN1@cckd_sf_co
$LN9@cckd_sf_co:

; 4584 : 
; 4585 :     if (!(cckd = dev->cckd_ext))

  0019c	48 8b 44 24 60	 mov	 rax, QWORD PTR dev$[rsp]
  001a1	48 8b 80 08 13
	00 00		 mov	 rax, QWORD PTR [rax+4872]
  001a8	48 89 44 24 68	 mov	 QWORD PTR cckd$[rsp], rax
  001ad	48 83 7c 24 68
	00		 cmp	 QWORD PTR cckd$[rsp], 0
  001b3	0f 85 a7 00 00
	00		 jne	 $LN10@cckd_sf_co

; 4586 :     {
; 4587 :         // "%1d:%04X CCKD file: device is not a cckd device"
; 4588 :         WRMSG( HHC00317, "W",  LCSS_DEVNUM );

  001b9	48 83 7c 24 60
	00		 cmp	 QWORD PTR dev$[rsp], 0
  001bf	74 0f		 je	 SHORT $LN19@cckd_sf_co
  001c1	48 8b 44 24 60	 mov	 rax, QWORD PTR dev$[rsp]
  001c6	0f b7 40 48	 movzx	 eax, WORD PTR [rax+72]
  001ca	89 44 24 7c	 mov	 DWORD PTR tv145[rsp], eax
  001ce	eb 08		 jmp	 SHORT $LN20@cckd_sf_co
$LN19@cckd_sf_co:
  001d0	c7 44 24 7c 00
	00 00 00	 mov	 DWORD PTR tv145[rsp], 0
$LN20@cckd_sf_co:
  001d8	48 83 7c 24 60
	00		 cmp	 QWORD PTR dev$[rsp], 0
  001de	74 14		 je	 SHORT $LN21@cckd_sf_co
  001e0	48 8b 44 24 60	 mov	 rax, QWORD PTR dev$[rsp]
  001e5	0f b7 40 44	 movzx	 eax, WORD PTR [rax+68]
  001e9	d1 f8		 sar	 eax, 1
  001eb	89 84 24 80 00
	00 00		 mov	 DWORD PTR tv151[rsp], eax
  001f2	eb 0b		 jmp	 SHORT $LN22@cckd_sf_co
$LN21@cckd_sf_co:
  001f4	c7 84 24 80 00
	00 00 00 00 00
	00		 mov	 DWORD PTR tv151[rsp], 0
$LN22@cckd_sf_co:
  001ff	b9 01 00 00 00	 mov	 ecx, 1
  00204	ff 15 00 00 00
	00		 call	 QWORD PTR __imp___acrt_iob_func
  0020a	8b 4c 24 7c	 mov	 ecx, DWORD PTR tv145[rsp]
  0020e	89 4c 24 40	 mov	 DWORD PTR [rsp+64], ecx
  00212	8b 8c 24 80 00
	00 00		 mov	 ecx, DWORD PTR tv151[rsp]
  00219	89 4c 24 38	 mov	 DWORD PTR [rsp+56], ecx
  0021d	48 8d 0d 00 00
	00 00		 lea	 rcx, OFFSET FLAT:$SG172039
  00224	48 89 4c 24 30	 mov	 QWORD PTR [rsp+48], rcx
  00229	48 8d 0d 00 00
	00 00		 lea	 rcx, OFFSET FLAT:$SG172040
  00230	48 89 4c 24 28	 mov	 QWORD PTR [rsp+40], rcx
  00235	48 89 44 24 20	 mov	 QWORD PTR [rsp+32], rax
  0023a	41 b9 03 00 00
	00		 mov	 r9d, 3
  00240	4c 8d 05 00 00
	00 00		 lea	 r8, OFFSET FLAT:$SG172041
  00247	ba ec 11 00 00	 mov	 edx, 4588		; 000011ecH
  0024c	48 8d 0d 00 00
	00 00		 lea	 rcx, OFFSET FLAT:$SG172042
  00253	ff 15 00 00 00
	00		 call	 QWORD PTR __imp_fwritemsg

; 4589 :         return NULL;

  00259	33 c0		 xor	 eax, eax
  0025b	e9 d5 02 00 00	 jmp	 $LN1@cckd_sf_co
$LN10@cckd_sf_co:

; 4590 :     }
; 4591 : 
; 4592 :     /* schedule updated track entries to be written */
; 4593 :     obtain_lock( &cckd->cckdiolock );

  00260	48 8b 44 24 68	 mov	 rax, QWORD PTR cckd$[rsp]
  00265	48 83 c0 18	 add	 rax, 24
  00269	48 8d 15 00 00
	00 00		 lea	 rdx, OFFSET FLAT:$SG172043
  00270	48 8b c8	 mov	 rcx, rax
  00273	ff 15 00 00 00
	00		 call	 QWORD PTR __imp_hthread_obtain_lock

; 4594 :     {
; 4595 :         if (cckd->merging)

  00279	48 8b 44 24 68	 mov	 rax, QWORD PTR cckd$[rsp]
  0027e	8b 40 08	 mov	 eax, DWORD PTR [rax+8]
  00281	c1 e8 05	 shr	 eax, 5
  00284	83 e0 01	 and	 eax, 1
  00287	85 c0		 test	 eax, eax
  00289	0f 84 fc 00 00
	00		 je	 $LN11@cckd_sf_co

; 4596 :         {
; 4597 :             release_lock( &cckd->cckdiolock );

  0028f	48 8b 44 24 68	 mov	 rax, QWORD PTR cckd$[rsp]
  00294	48 83 c0 18	 add	 rax, 24
  00298	48 8d 15 00 00
	00 00		 lea	 rdx, OFFSET FLAT:$SG172045
  0029f	48 8b c8	 mov	 rcx, rax
  002a2	ff 15 00 00 00
	00		 call	 QWORD PTR __imp_hthread_release_lock

; 4598 :             // "%1d:%04X CCKD file[%d] %s: error compressing shadow file, sf command busy on device"
; 4599 :             WRMSG( HHC00329, "W",  LCSS_DEVNUM, cckd->sfn, cckd_sf_name(dev, cckd->sfn) );

  002a8	48 83 7c 24 60
	00		 cmp	 QWORD PTR dev$[rsp], 0
  002ae	74 12		 je	 SHORT $LN23@cckd_sf_co
  002b0	48 8b 44 24 60	 mov	 rax, QWORD PTR dev$[rsp]
  002b5	0f b7 40 48	 movzx	 eax, WORD PTR [rax+72]
  002b9	89 84 24 84 00
	00 00		 mov	 DWORD PTR tv182[rsp], eax
  002c0	eb 0b		 jmp	 SHORT $LN24@cckd_sf_co
$LN23@cckd_sf_co:
  002c2	c7 84 24 84 00
	00 00 00 00 00
	00		 mov	 DWORD PTR tv182[rsp], 0
$LN24@cckd_sf_co:
  002cd	48 83 7c 24 60
	00		 cmp	 QWORD PTR dev$[rsp], 0
  002d3	74 14		 je	 SHORT $LN25@cckd_sf_co
  002d5	48 8b 44 24 60	 mov	 rax, QWORD PTR dev$[rsp]
  002da	0f b7 40 44	 movzx	 eax, WORD PTR [rax+68]
  002de	d1 f8		 sar	 eax, 1
  002e0	89 84 24 88 00
	00 00		 mov	 DWORD PTR tv188[rsp], eax
  002e7	eb 0b		 jmp	 SHORT $LN26@cckd_sf_co
$LN25@cckd_sf_co:
  002e9	c7 84 24 88 00
	00 00 00 00 00
	00		 mov	 DWORD PTR tv188[rsp], 0
$LN26@cckd_sf_co:
  002f4	48 8b 44 24 68	 mov	 rax, QWORD PTR cckd$[rsp]
  002f9	8b 50 3c	 mov	 edx, DWORD PTR [rax+60]
  002fc	48 8b 4c 24 60	 mov	 rcx, QWORD PTR dev$[rsp]
  00301	e8 00 00 00 00	 call	 cckd_sf_name
  00306	48 89 84 24 90
	00 00 00	 mov	 QWORD PTR tv169[rsp], rax
  0030e	b9 01 00 00 00	 mov	 ecx, 1
  00313	ff 15 00 00 00
	00		 call	 QWORD PTR __imp___acrt_iob_func
  00319	48 8b 8c 24 90
	00 00 00	 mov	 rcx, QWORD PTR tv169[rsp]
  00321	48 89 4c 24 50	 mov	 QWORD PTR [rsp+80], rcx
  00326	48 8b 4c 24 68	 mov	 rcx, QWORD PTR cckd$[rsp]
  0032b	8b 49 3c	 mov	 ecx, DWORD PTR [rcx+60]
  0032e	89 4c 24 48	 mov	 DWORD PTR [rsp+72], ecx
  00332	8b 8c 24 84 00
	00 00		 mov	 ecx, DWORD PTR tv182[rsp]
  00339	89 4c 24 40	 mov	 DWORD PTR [rsp+64], ecx
  0033d	8b 8c 24 88 00
	00 00		 mov	 ecx, DWORD PTR tv188[rsp]
  00344	89 4c 24 38	 mov	 DWORD PTR [rsp+56], ecx
  00348	48 8d 0d 00 00
	00 00		 lea	 rcx, OFFSET FLAT:$SG172046
  0034f	48 89 4c 24 30	 mov	 QWORD PTR [rsp+48], rcx
  00354	48 8d 0d 00 00
	00 00		 lea	 rcx, OFFSET FLAT:$SG172047
  0035b	48 89 4c 24 28	 mov	 QWORD PTR [rsp+40], rcx
  00360	48 89 44 24 20	 mov	 QWORD PTR [rsp+32], rax
  00365	41 b9 03 00 00
	00		 mov	 r9d, 3
  0036b	4c 8d 05 00 00
	00 00		 lea	 r8, OFFSET FLAT:$SG172048
  00372	ba f7 11 00 00	 mov	 edx, 4599		; 000011f7H
  00377	48 8d 0d 00 00
	00 00		 lea	 rcx, OFFSET FLAT:$SG172049
  0037e	ff 15 00 00 00
	00		 call	 QWORD PTR __imp_fwritemsg

; 4600 :             return NULL;

  00384	33 c0		 xor	 eax, eax
  00386	e9 aa 01 00 00	 jmp	 $LN1@cckd_sf_co
$LN11@cckd_sf_co:

; 4601 :         }
; 4602 :         cckd->merging = 1;

  0038b	48 8b 44 24 68	 mov	 rax, QWORD PTR cckd$[rsp]
  00390	8b 40 08	 mov	 eax, DWORD PTR [rax+8]
  00393	83 c8 20	 or	 eax, 32			; 00000020H
  00396	48 8b 4c 24 68	 mov	 rcx, QWORD PTR cckd$[rsp]
  0039b	89 41 08	 mov	 DWORD PTR [rcx+8], eax

; 4603 :         cckd_flush_cache( dev );

  0039e	48 8b 4c 24 60	 mov	 rcx, QWORD PTR dev$[rsp]
  003a3	e8 00 00 00 00	 call	 cckd_flush_cache
$LN5@cckd_sf_co:

; 4604 :         while (cckd->wrpending || cckd->cckdioact)

  003a8	48 8b 44 24 68	 mov	 rax, QWORD PTR cckd$[rsp]
  003ad	83 78 34 00	 cmp	 DWORD PTR [rax+52], 0
  003b1	75 12		 jne	 SHORT $LN12@cckd_sf_co
  003b3	48 8b 44 24 68	 mov	 rax, QWORD PTR cckd$[rsp]
  003b8	8b 40 08	 mov	 eax, DWORD PTR [rax+8]
  003bb	c1 e8 02	 shr	 eax, 2
  003be	83 e0 01	 and	 eax, 1
  003c1	85 c0		 test	 eax, eax
  003c3	74 52		 je	 SHORT $LN6@cckd_sf_co
$LN12@cckd_sf_co:

; 4605 :         {
; 4606 :             cckd->cckdwaiters++;

  003c5	48 8b 44 24 68	 mov	 rax, QWORD PTR cckd$[rsp]
  003ca	8b 40 30	 mov	 eax, DWORD PTR [rax+48]
  003cd	ff c0		 inc	 eax
  003cf	48 8b 4c 24 68	 mov	 rcx, QWORD PTR cckd$[rsp]
  003d4	89 41 30	 mov	 DWORD PTR [rcx+48], eax

; 4607 :             wait_condition( &cckd->cckdiocond, &cckd->cckdiolock );

  003d7	48 8b 44 24 68	 mov	 rax, QWORD PTR cckd$[rsp]
  003dc	48 83 c0 18	 add	 rax, 24
  003e0	48 8b 4c 24 68	 mov	 rcx, QWORD PTR cckd$[rsp]
  003e5	48 83 c1 20	 add	 rcx, 32			; 00000020H
  003e9	4c 8d 05 00 00
	00 00		 lea	 r8, OFFSET FLAT:$SG172051
  003f0	48 8b d0	 mov	 rdx, rax
  003f3	ff 15 00 00 00
	00		 call	 QWORD PTR __imp_hthread_wait_condition

; 4608 :             cckd->cckdwaiters--;

  003f9	48 8b 44 24 68	 mov	 rax, QWORD PTR cckd$[rsp]
  003fe	8b 40 30	 mov	 eax, DWORD PTR [rax+48]
  00401	ff c8		 dec	 eax
  00403	48 8b 4c 24 68	 mov	 rcx, QWORD PTR cckd$[rsp]
  00408	89 41 30	 mov	 DWORD PTR [rcx+48], eax

; 4609 :             cckd_flush_cache( dev );

  0040b	48 8b 4c 24 60	 mov	 rcx, QWORD PTR dev$[rsp]
  00410	e8 00 00 00 00	 call	 cckd_flush_cache

; 4610 :         }

  00415	eb 91		 jmp	 SHORT $LN5@cckd_sf_co
$LN6@cckd_sf_co:

; 4611 :         cckd_purge_cache( dev );

  00417	48 8b 4c 24 60	 mov	 rcx, QWORD PTR dev$[rsp]
  0041c	e8 00 00 00 00	 call	 cckd_purge_cache

; 4612 :         cckd_purge_l2( dev );

  00421	48 8b 4c 24 60	 mov	 rcx, QWORD PTR dev$[rsp]
  00426	e8 00 00 00 00	 call	 cckd_purge_l2

; 4613 :         dev->bufcur = dev->cache = -1;

  0042b	48 8b 44 24 60	 mov	 rax, QWORD PTR dev$[rsp]
  00430	c7 80 f8 01 00
	00 ff ff ff ff	 mov	 DWORD PTR [rax+504], -1
  0043a	48 8b 44 24 60	 mov	 rax, QWORD PTR dev$[rsp]
  0043f	c7 80 c0 01 00
	00 ff ff ff ff	 mov	 DWORD PTR [rax+448], -1

; 4614 :     }
; 4615 :     release_lock( &cckd->cckdiolock );

  00449	48 8b 44 24 68	 mov	 rax, QWORD PTR cckd$[rsp]
  0044e	48 83 c0 18	 add	 rax, 24
  00452	48 8d 15 00 00
	00 00		 lea	 rdx, OFFSET FLAT:$SG172052
  00459	48 8b c8	 mov	 rcx, rax
  0045c	ff 15 00 00 00
	00		 call	 QWORD PTR __imp_hthread_release_lock

; 4616 : 
; 4617 :     /* obtain control of the file */
; 4618 :     obtain_lock( &cckd->filelock );

  00462	48 8b 44 24 68	 mov	 rax, QWORD PTR cckd$[rsp]
  00467	48 83 c0 10	 add	 rax, 16
  0046b	48 8d 15 00 00
	00 00		 lea	 rdx, OFFSET FLAT:$SG172053
  00472	48 8b c8	 mov	 rcx, rax
  00475	ff 15 00 00 00
	00		 call	 QWORD PTR __imp_hthread_obtain_lock

; 4619 :     {
; 4620 :         /* harden the current file */
; 4621 :         cckd_harden( dev );

  0047b	48 8b 4c 24 60	 mov	 rcx, QWORD PTR dev$[rsp]
  00480	e8 00 00 00 00	 call	 cckd_harden

; 4622 : 
; 4623 :         /* Call the compress function */
; 4624 :         rc = cckd_comp( dev );

  00485	48 8b 4c 24 60	 mov	 rcx, QWORD PTR dev$[rsp]
  0048a	e8 00 00 00 00	 call	 cckd_comp
  0048f	89 84 24 8c 00
	00 00		 mov	 DWORD PTR rc$[rsp], eax

; 4625 : 
; 4626 :         /* Perform initial read */
; 4627 :         rc = cckd_read_init( dev );

  00496	48 8b 4c 24 60	 mov	 rcx, QWORD PTR dev$[rsp]
  0049b	e8 00 00 00 00	 call	 cckd_read_init
  004a0	89 84 24 8c 00
	00 00		 mov	 DWORD PTR rc$[rsp], eax

; 4628 :     }
; 4629 :     release_lock( &cckd->filelock );

  004a7	48 8b 44 24 68	 mov	 rax, QWORD PTR cckd$[rsp]
  004ac	48 83 c0 10	 add	 rax, 16
  004b0	48 8d 15 00 00
	00 00		 lea	 rdx, OFFSET FLAT:$SG172054
  004b7	48 8b c8	 mov	 rcx, rax
  004ba	ff 15 00 00 00
	00		 call	 QWORD PTR __imp_hthread_release_lock

; 4630 : 
; 4631 :     obtain_lock( &cckd->cckdiolock );

  004c0	48 8b 44 24 68	 mov	 rax, QWORD PTR cckd$[rsp]
  004c5	48 83 c0 18	 add	 rax, 24
  004c9	48 8d 15 00 00
	00 00		 lea	 rdx, OFFSET FLAT:$SG172055
  004d0	48 8b c8	 mov	 rcx, rax
  004d3	ff 15 00 00 00
	00		 call	 QWORD PTR __imp_hthread_obtain_lock

; 4632 :     {
; 4633 :         cckd->merging = 0;

  004d9	48 8b 44 24 68	 mov	 rax, QWORD PTR cckd$[rsp]
  004de	8b 40 08	 mov	 eax, DWORD PTR [rax+8]
  004e1	83 e0 df	 and	 eax, -33		; ffffffdfH
  004e4	48 8b 4c 24 68	 mov	 rcx, QWORD PTR cckd$[rsp]
  004e9	89 41 08	 mov	 DWORD PTR [rcx+8], eax

; 4634 :         if (cckd->cckdwaiters)

  004ec	48 8b 44 24 68	 mov	 rax, QWORD PTR cckd$[rsp]
  004f1	83 78 30 00	 cmp	 DWORD PTR [rax+48], 0
  004f5	74 19		 je	 SHORT $LN13@cckd_sf_co

; 4635 :             broadcast_condition( &cckd->cckdiocond );

  004f7	48 8b 44 24 68	 mov	 rax, QWORD PTR cckd$[rsp]
  004fc	48 83 c0 20	 add	 rax, 32			; 00000020H
  00500	48 8d 15 00 00
	00 00		 lea	 rdx, OFFSET FLAT:$SG172057
  00507	48 8b c8	 mov	 rcx, rax
  0050a	ff 15 00 00 00
	00		 call	 QWORD PTR __imp_hthread_broadcast_condition
$LN13@cckd_sf_co:

; 4636 :     }
; 4637 :     release_lock( &cckd->cckdiolock );

  00510	48 8b 44 24 68	 mov	 rax, QWORD PTR cckd$[rsp]
  00515	48 83 c0 18	 add	 rax, 24
  00519	48 8d 15 00 00
	00 00		 lea	 rdx, OFFSET FLAT:$SG172058
  00520	48 8b c8	 mov	 rcx, rax
  00523	ff 15 00 00 00
	00		 call	 QWORD PTR __imp_hthread_release_lock

; 4638 : 
; 4639 :     /* Display the shadow file statistics */
; 4640 :     cckd_sf_stats( dev );

  00529	48 8b 4c 24 60	 mov	 rcx, QWORD PTR dev$[rsp]
  0052e	e8 00 00 00 00	 call	 cckd_sf_stats

; 4641 : 
; 4642 :     return NULL;

  00533	33 c0		 xor	 eax, eax
$LN1@cckd_sf_co:

; 4643 : } /* end function cckd_sf_comp */

  00535	48 81 c4 a8 00
	00 00		 add	 rsp, 168		; 000000a8H
  0053c	c3		 ret	 0
cckd_sf_comp ENDP
_TEXT	ENDS
; Function compile flags: /Odtp
; File C:\papa\MyGit\hyperion-zvector\cckddasd.c
_TEXT	SEGMENT
dev$ = 112
cckd$ = 120
to_sfx$ = 128
from_sfx$ = 132
i$ = 136
j$ = 140
pos$ = 144
len$ = 152
merge$ = 156
l2updated$ = 160
force$ = 164
size$ = 168
trk$ = 172
new_l2$ = 176
n$1 = 184
add$ = 188
tv188 = 192
tv228 = 196
tv234 = 200
tv326 = 204
tv332 = 208
tv370 = 212
tv376 = 216
tv427 = 220
tv433 = 224
tv461 = 228
tv467 = 232
tv820 = 236
tv826 = 240
tv906 = 244
tv912 = 248
tv932 = 252
tv938 = 256
tv79 = 260
tv85 = 264
tv163 = 268
tv169 = 272
fix$ = 276
rc$ = 280
tv199 = 288
tv202 = 296
tv415 = 304
tv808 = 312
tv810 = 320
tv215 = 328
tv281 = 336
tv361 = 344
tv419 = 352
tv453 = 360
tv812 = 368
tv898 = 376
tv924 = 384
to_l2$ = 400
from_l2$ = 2448
buf$ = 4496
__$ArrayPad$ = 70032
data$ = 70064
cckd_sf_remove PROC

; 4211 : {

$LN111:
  00000	48 89 4c 24 08	 mov	 QWORD PTR [rsp+8], rcx
  00005	57		 push	 rdi
  00006	b8 a0 11 01 00	 mov	 eax, 70048		; 000111a0H
  0000b	e8 00 00 00 00	 call	 __chkstk
  00010	48 2b e0	 sub	 rsp, rax
  00013	48 8b 05 00 00
	00 00		 mov	 rax, QWORD PTR __security_cookie
  0001a	48 33 c4	 xor	 rax, rsp
  0001d	48 89 84 24 90
	11 01 00	 mov	 QWORD PTR __$ArrayPad$[rsp], rax

; 4212 : DEVBLK         *dev = data;             /* -> DEVBLK                 */

  00025	48 8b 84 24 b0
	11 01 00	 mov	 rax, QWORD PTR data$[rsp]
  0002d	48 89 44 24 70	 mov	 QWORD PTR dev$[rsp], rax

; 4213 : CCKD_EXT       *cckd;                   /* -> cckd extension         */
; 4214 : int             rc;                     /* Return code               */
; 4215 : int             from_sfx, to_sfx;       /* From/to file index        */
; 4216 : int             fix;                    /* nullfmt index             */
; 4217 : int             add = 0;                /* 1=Add shadow file back    */

  00032	c7 84 24 bc 00
	00 00 00 00 00
	00		 mov	 DWORD PTR add$[rsp], 0

; 4218 : int             l2updated = 0;          /* 1=L2 table was updated    */

  0003d	c7 84 24 a0 00
	00 00 00 00 00
	00		 mov	 DWORD PTR l2updated$[rsp], 0

; 4219 : int             i,j;                    /* Loop indexes              */
; 4220 : int             merge, force;           /* Flags                     */
; 4221 : off_t           pos;                    /* File offset               */
; 4222 : unsigned int    len;                    /* Length to read/write      */
; 4223 : int             size;                   /* Image size                */
; 4224 : int             trk = -1;               /* Track being read/written  */

  00048	c7 84 24 ac 00
	00 00 ff ff ff
	ff		 mov	 DWORD PTR trk$[rsp], -1

; 4225 : CCKD_L2ENT      from_l2[256],           /* Level 2 tables            */
; 4226 :                 to_l2[256];
; 4227 : CCKD_L2ENT      new_l2;                 /* New level 2 table entry   */
; 4228 : BYTE            buf[64*1024];           /* Buffer                    */
; 4229 : 
; 4230 :     /* NULL DEVBLK == all devices? */
; 4231 :     if (!dev)

  00053	48 83 7c 24 70
	00		 cmp	 QWORD PTR dev$[rsp], 0
  00059	0f 85 06 02 00
	00		 jne	 $LN13@cckd_sf_re

; 4232 :     {
; 4233 :     int n = 0;

  0005f	c7 84 24 b8 00
	00 00 00 00 00
	00		 mov	 DWORD PTR n$1[rsp], 0

; 4234 :         merge = cckdblk.sfmerge;

  0006a	8b 05 10 00 00
	00		 mov	 eax, DWORD PTR cckdblk+16
  00070	c1 e8 03	 shr	 eax, 3
  00073	83 e0 01	 and	 eax, 1
  00076	89 84 24 9c 00
	00 00		 mov	 DWORD PTR merge$[rsp], eax

; 4235 :         force = cckdblk.sfforce;

  0007d	8b 05 10 00 00
	00		 mov	 eax, DWORD PTR cckdblk+16
  00083	c1 e8 04	 shr	 eax, 4
  00086	83 e0 01	 and	 eax, 1
  00089	89 84 24 a4 00
	00 00		 mov	 DWORD PTR force$[rsp], eax

; 4236 :         cckdblk.sfmerge = cckdblk.sfforce = 0;

  00090	8b 05 10 00 00
	00		 mov	 eax, DWORD PTR cckdblk+16
  00096	83 e0 ef	 and	 eax, -17		; ffffffefH
  00099	89 05 10 00 00
	00		 mov	 DWORD PTR cckdblk+16, eax
  0009f	8b 05 10 00 00
	00		 mov	 eax, DWORD PTR cckdblk+16
  000a5	83 e0 f7	 and	 eax, -9			; fffffff7H
  000a8	89 05 10 00 00
	00		 mov	 DWORD PTR cckdblk+16, eax

; 4237 :         for (dev=sysblk.firstdev; dev; dev=dev->nextdev)

  000ae	48 8b 05 00 00
	00 00		 mov	 rax, QWORD PTR __imp_sysblk
  000b5	48 8b 80 c0 11
	00 00		 mov	 rax, QWORD PTR [rax+4544]
  000bc	48 89 44 24 70	 mov	 QWORD PTR dev$[rsp], rax
  000c1	eb 0e		 jmp	 SHORT $LN4@cckd_sf_re
$LN2@cckd_sf_re:
  000c3	48 8b 44 24 70	 mov	 rax, QWORD PTR dev$[rsp]
  000c8	48 8b 40 30	 mov	 rax, QWORD PTR [rax+48]
  000cc	48 89 44 24 70	 mov	 QWORD PTR dev$[rsp], rax
$LN4@cckd_sf_re:
  000d1	48 83 7c 24 70
	00		 cmp	 QWORD PTR dev$[rsp], 0
  000d7	0f 84 2f 01 00
	00		 je	 $LN3@cckd_sf_re

; 4238 :         {
; 4239 :             if ((cckd = dev->cckd_ext))

  000dd	48 8b 44 24 70	 mov	 rax, QWORD PTR dev$[rsp]
  000e2	48 8b 80 08 13
	00 00		 mov	 rax, QWORD PTR [rax+4872]
  000e9	48 89 44 24 78	 mov	 QWORD PTR cckd$[rsp], rax
  000ee	48 83 7c 24 78
	00		 cmp	 QWORD PTR cckd$[rsp], 0
  000f4	0f 84 0d 01 00
	00		 je	 $LN14@cckd_sf_re

; 4240 :             {
; 4241 :                 // "%1d:%04X CCKD file: merging shadow files..."
; 4242 :                 WRMSG( HHC00321, "I", LCSS_DEVNUM );

  000fa	48 83 7c 24 70
	00		 cmp	 QWORD PTR dev$[rsp], 0
  00100	74 12		 je	 SHORT $LN59@cckd_sf_re
  00102	48 8b 44 24 70	 mov	 rax, QWORD PTR dev$[rsp]
  00107	0f b7 40 48	 movzx	 eax, WORD PTR [rax+72]
  0010b	89 84 24 04 01
	00 00		 mov	 DWORD PTR tv79[rsp], eax
  00112	eb 0b		 jmp	 SHORT $LN60@cckd_sf_re
$LN59@cckd_sf_re:
  00114	c7 84 24 04 01
	00 00 00 00 00
	00		 mov	 DWORD PTR tv79[rsp], 0
$LN60@cckd_sf_re:
  0011f	48 83 7c 24 70
	00		 cmp	 QWORD PTR dev$[rsp], 0
  00125	74 14		 je	 SHORT $LN61@cckd_sf_re
  00127	48 8b 44 24 70	 mov	 rax, QWORD PTR dev$[rsp]
  0012c	0f b7 40 44	 movzx	 eax, WORD PTR [rax+68]
  00130	d1 f8		 sar	 eax, 1
  00132	89 84 24 08 01
	00 00		 mov	 DWORD PTR tv85[rsp], eax
  00139	eb 0b		 jmp	 SHORT $LN62@cckd_sf_re
$LN61@cckd_sf_re:
  0013b	c7 84 24 08 01
	00 00 00 00 00
	00		 mov	 DWORD PTR tv85[rsp], 0
$LN62@cckd_sf_re:
  00146	b9 01 00 00 00	 mov	 ecx, 1
  0014b	ff 15 00 00 00
	00		 call	 QWORD PTR __imp___acrt_iob_func
  00151	8b 8c 24 04 01
	00 00		 mov	 ecx, DWORD PTR tv79[rsp]
  00158	89 4c 24 40	 mov	 DWORD PTR [rsp+64], ecx
  0015c	8b 8c 24 08 01
	00 00		 mov	 ecx, DWORD PTR tv85[rsp]
  00163	89 4c 24 38	 mov	 DWORD PTR [rsp+56], ecx
  00167	48 8d 0d 00 00
	00 00		 lea	 rcx, OFFSET FLAT:$SG171892
  0016e	48 89 4c 24 30	 mov	 QWORD PTR [rsp+48], rcx
  00173	48 8d 0d 00 00
	00 00		 lea	 rcx, OFFSET FLAT:$SG171893
  0017a	48 89 4c 24 28	 mov	 QWORD PTR [rsp+40], rcx
  0017f	48 89 44 24 20	 mov	 QWORD PTR [rsp+32], rax
  00184	41 b9 03 00 00
	00		 mov	 r9d, 3
  0018a	4c 8d 05 00 00
	00 00		 lea	 r8, OFFSET FLAT:$SG171894
  00191	ba 92 10 00 00	 mov	 edx, 4242		; 00001092H
  00196	48 8d 0d 00 00
	00 00		 lea	 rcx, OFFSET FLAT:$SG171895
  0019d	ff 15 00 00 00
	00		 call	 QWORD PTR __imp_fwritemsg

; 4243 :                 cckd->sfmerge = merge;

  001a3	8b 84 24 9c 00
	00 00		 mov	 eax, DWORD PTR merge$[rsp]
  001aa	83 e0 01	 and	 eax, 1
  001ad	c1 e0 09	 shl	 eax, 9
  001b0	48 8b 4c 24 78	 mov	 rcx, QWORD PTR cckd$[rsp]
  001b5	8b 49 08	 mov	 ecx, DWORD PTR [rcx+8]
  001b8	0f ba f1 09	 btr	 ecx, 9
  001bc	0b c8		 or	 ecx, eax
  001be	8b c1		 mov	 eax, ecx
  001c0	48 8b 4c 24 78	 mov	 rcx, QWORD PTR cckd$[rsp]
  001c5	89 41 08	 mov	 DWORD PTR [rcx+8], eax

; 4244 :                 cckd->sfforce = force;

  001c8	8b 84 24 a4 00
	00 00		 mov	 eax, DWORD PTR force$[rsp]
  001cf	83 e0 01	 and	 eax, 1
  001d2	c1 e0 0a	 shl	 eax, 10
  001d5	48 8b 4c 24 78	 mov	 rcx, QWORD PTR cckd$[rsp]
  001da	8b 49 08	 mov	 ecx, DWORD PTR [rcx+8]
  001dd	0f ba f1 0a	 btr	 ecx, 10
  001e1	0b c8		 or	 ecx, eax
  001e3	8b c1		 mov	 eax, ecx
  001e5	48 8b 4c 24 78	 mov	 rcx, QWORD PTR cckd$[rsp]
  001ea	89 41 08	 mov	 DWORD PTR [rcx+8], eax

; 4245 :                 cckd_sf_remove( dev );

  001ed	48 8b 4c 24 70	 mov	 rcx, QWORD PTR dev$[rsp]
  001f2	e8 00 00 00 00	 call	 cckd_sf_remove

; 4246 :                 n++;

  001f7	8b 84 24 b8 00
	00 00		 mov	 eax, DWORD PTR n$1[rsp]
  001fe	ff c0		 inc	 eax
  00200	89 84 24 b8 00
	00 00		 mov	 DWORD PTR n$1[rsp], eax
$LN14@cckd_sf_re:

; 4247 :             }
; 4248 :         }

  00207	e9 b7 fe ff ff	 jmp	 $LN2@cckd_sf_re
$LN3@cckd_sf_re:

; 4249 :         // "CCKD file number of devices processed: %d"
; 4250 :         WRMSG( HHC00316, "I", n );

  0020c	b9 01 00 00 00	 mov	 ecx, 1
  00211	ff 15 00 00 00
	00		 call	 QWORD PTR __imp___acrt_iob_func
  00217	8b 8c 24 b8 00
	00 00		 mov	 ecx, DWORD PTR n$1[rsp]
  0021e	89 4c 24 38	 mov	 DWORD PTR [rsp+56], ecx
  00222	48 8d 0d 00 00
	00 00		 lea	 rcx, OFFSET FLAT:$SG171896
  00229	48 89 4c 24 30	 mov	 QWORD PTR [rsp+48], rcx
  0022e	48 8d 0d 00 00
	00 00		 lea	 rcx, OFFSET FLAT:$SG171897
  00235	48 89 4c 24 28	 mov	 QWORD PTR [rsp+40], rcx
  0023a	48 89 44 24 20	 mov	 QWORD PTR [rsp+32], rax
  0023f	41 b9 03 00 00
	00		 mov	 r9d, 3
  00245	4c 8d 05 00 00
	00 00		 lea	 r8, OFFSET FLAT:$SG171898
  0024c	ba 9a 10 00 00	 mov	 edx, 4250		; 0000109aH
  00251	48 8d 0d 00 00
	00 00		 lea	 rcx, OFFSET FLAT:$SG171899
  00258	ff 15 00 00 00
	00		 call	 QWORD PTR __imp_fwritemsg

; 4251 :         return NULL;

  0025e	33 c0		 xor	 eax, eax
  00260	e9 06 17 00 00	 jmp	 $LN1@cckd_sf_re
$LN13@cckd_sf_re:

; 4252 :     }
; 4253 : 
; 4254 :     if (dev->cckd64)

  00265	48 8b 44 24 70	 mov	 rax, QWORD PTR dev$[rsp]
  0026a	0f b6 80 10 13
	00 00		 movzx	 eax, BYTE PTR [rax+4880]
  00271	24 01		 and	 al, 1
  00273	0f b6 c0	 movzx	 eax, al
  00276	85 c0		 test	 eax, eax
  00278	74 12		 je	 SHORT $LN15@cckd_sf_re

; 4255 :         return cckd64_sf_remove( data );

  0027a	48 8b 8c 24 b0
	11 01 00	 mov	 rcx, QWORD PTR data$[rsp]
  00282	e8 00 00 00 00	 call	 cckd64_sf_remove
  00287	e9 df 16 00 00	 jmp	 $LN1@cckd_sf_re
$LN15@cckd_sf_re:

; 4256 : 
; 4257 :     if (!(cckd = dev->cckd_ext))

  0028c	48 8b 44 24 70	 mov	 rax, QWORD PTR dev$[rsp]
  00291	48 8b 80 08 13
	00 00		 mov	 rax, QWORD PTR [rax+4872]
  00298	48 89 44 24 78	 mov	 QWORD PTR cckd$[rsp], rax
  0029d	48 83 7c 24 78
	00		 cmp	 QWORD PTR cckd$[rsp], 0
  002a3	0f 85 b0 00 00
	00		 jne	 $LN16@cckd_sf_re

; 4258 :     {
; 4259 :         // "%1d:%04X CCKD file: device is not a cckd device"
; 4260 :         WRMSG( HHC00317, "W", LCSS_DEVNUM );

  002a9	48 83 7c 24 70
	00		 cmp	 QWORD PTR dev$[rsp], 0
  002af	74 12		 je	 SHORT $LN63@cckd_sf_re
  002b1	48 8b 44 24 70	 mov	 rax, QWORD PTR dev$[rsp]
  002b6	0f b7 40 48	 movzx	 eax, WORD PTR [rax+72]
  002ba	89 84 24 0c 01
	00 00		 mov	 DWORD PTR tv163[rsp], eax
  002c1	eb 0b		 jmp	 SHORT $LN64@cckd_sf_re
$LN63@cckd_sf_re:
  002c3	c7 84 24 0c 01
	00 00 00 00 00
	00		 mov	 DWORD PTR tv163[rsp], 0
$LN64@cckd_sf_re:
  002ce	48 83 7c 24 70
	00		 cmp	 QWORD PTR dev$[rsp], 0
  002d4	74 14		 je	 SHORT $LN65@cckd_sf_re
  002d6	48 8b 44 24 70	 mov	 rax, QWORD PTR dev$[rsp]
  002db	0f b7 40 44	 movzx	 eax, WORD PTR [rax+68]
  002df	d1 f8		 sar	 eax, 1
  002e1	89 84 24 10 01
	00 00		 mov	 DWORD PTR tv169[rsp], eax
  002e8	eb 0b		 jmp	 SHORT $LN66@cckd_sf_re
$LN65@cckd_sf_re:
  002ea	c7 84 24 10 01
	00 00 00 00 00
	00		 mov	 DWORD PTR tv169[rsp], 0
$LN66@cckd_sf_re:
  002f5	b9 01 00 00 00	 mov	 ecx, 1
  002fa	ff 15 00 00 00
	00		 call	 QWORD PTR __imp___acrt_iob_func
  00300	8b 8c 24 0c 01
	00 00		 mov	 ecx, DWORD PTR tv163[rsp]
  00307	89 4c 24 40	 mov	 DWORD PTR [rsp+64], ecx
  0030b	8b 8c 24 10 01
	00 00		 mov	 ecx, DWORD PTR tv169[rsp]
  00312	89 4c 24 38	 mov	 DWORD PTR [rsp+56], ecx
  00316	48 8d 0d 00 00
	00 00		 lea	 rcx, OFFSET FLAT:$SG171902
  0031d	48 89 4c 24 30	 mov	 QWORD PTR [rsp+48], rcx
  00322	48 8d 0d 00 00
	00 00		 lea	 rcx, OFFSET FLAT:$SG171903
  00329	48 89 4c 24 28	 mov	 QWORD PTR [rsp+40], rcx
  0032e	48 89 44 24 20	 mov	 QWORD PTR [rsp+32], rax
  00333	41 b9 03 00 00
	00		 mov	 r9d, 3
  00339	4c 8d 05 00 00
	00 00		 lea	 r8, OFFSET FLAT:$SG171904
  00340	ba a4 10 00 00	 mov	 edx, 4260		; 000010a4H
  00345	48 8d 0d 00 00
	00 00		 lea	 rcx, OFFSET FLAT:$SG171905
  0034c	ff 15 00 00 00
	00		 call	 QWORD PTR __imp_fwritemsg

; 4261 :         return NULL;

  00352	33 c0		 xor	 eax, eax
  00354	e9 12 16 00 00	 jmp	 $LN1@cckd_sf_re
$LN16@cckd_sf_re:

; 4262 :     }
; 4263 : 
; 4264 :     /* Set flags */
; 4265 :     merge = cckd->sfmerge || cckd->sfforce;

  00359	48 8b 44 24 78	 mov	 rax, QWORD PTR cckd$[rsp]
  0035e	8b 40 08	 mov	 eax, DWORD PTR [rax+8]
  00361	c1 e8 09	 shr	 eax, 9
  00364	83 e0 01	 and	 eax, 1
  00367	85 c0		 test	 eax, eax
  00369	75 1f		 jne	 SHORT $LN67@cckd_sf_re
  0036b	48 8b 44 24 78	 mov	 rax, QWORD PTR cckd$[rsp]
  00370	8b 40 08	 mov	 eax, DWORD PTR [rax+8]
  00373	c1 e8 0a	 shr	 eax, 10
  00376	83 e0 01	 and	 eax, 1
  00379	85 c0		 test	 eax, eax
  0037b	75 0d		 jne	 SHORT $LN67@cckd_sf_re
  0037d	c7 84 24 c0 00
	00 00 00 00 00
	00		 mov	 DWORD PTR tv188[rsp], 0
  00388	eb 0b		 jmp	 SHORT $LN68@cckd_sf_re
$LN67@cckd_sf_re:
  0038a	c7 84 24 c0 00
	00 00 01 00 00
	00		 mov	 DWORD PTR tv188[rsp], 1
$LN68@cckd_sf_re:
  00395	8b 84 24 c0 00
	00 00		 mov	 eax, DWORD PTR tv188[rsp]
  0039c	89 84 24 9c 00
	00 00		 mov	 DWORD PTR merge$[rsp], eax

; 4266 :     force = cckd->sfforce;

  003a3	48 8b 44 24 78	 mov	 rax, QWORD PTR cckd$[rsp]
  003a8	8b 40 08	 mov	 eax, DWORD PTR [rax+8]
  003ab	c1 e8 0a	 shr	 eax, 10
  003ae	83 e0 01	 and	 eax, 1
  003b1	89 84 24 a4 00
	00 00		 mov	 DWORD PTR force$[rsp], eax

; 4267 :     cckd->sfmerge = cckd->sfforce = 0;

  003b8	48 8b 44 24 78	 mov	 rax, QWORD PTR cckd$[rsp]
  003bd	8b 40 08	 mov	 eax, DWORD PTR [rax+8]
  003c0	0f ba f0 0a	 btr	 eax, 10
  003c4	48 8b 4c 24 78	 mov	 rcx, QWORD PTR cckd$[rsp]
  003c9	89 41 08	 mov	 DWORD PTR [rcx+8], eax
  003cc	48 8b 44 24 78	 mov	 rax, QWORD PTR cckd$[rsp]
  003d1	8b 40 08	 mov	 eax, DWORD PTR [rax+8]
  003d4	0f ba f0 09	 btr	 eax, 9
  003d8	48 8b 4c 24 78	 mov	 rcx, QWORD PTR cckd$[rsp]
  003dd	89 41 08	 mov	 DWORD PTR [rcx+8], eax

; 4268 : 
; 4269 :     CCKD_TRACE( "merge starting: %s %s",

  003e0	83 bc 24 a4 00
	00 00 00	 cmp	 DWORD PTR force$[rsp], 0
  003e8	74 11		 je	 SHORT $LN69@cckd_sf_re
  003ea	48 8d 05 00 00
	00 00		 lea	 rax, OFFSET FLAT:$SG171906
  003f1	48 89 84 24 20
	01 00 00	 mov	 QWORD PTR tv199[rsp], rax
  003f9	eb 0f		 jmp	 SHORT $LN70@cckd_sf_re
$LN69@cckd_sf_re:
  003fb	48 8d 05 00 00
	00 00		 lea	 rax, OFFSET FLAT:$SG171907
  00402	48 89 84 24 20
	01 00 00	 mov	 QWORD PTR tv199[rsp], rax
$LN70@cckd_sf_re:
  0040a	83 bc 24 9c 00
	00 00 00	 cmp	 DWORD PTR merge$[rsp], 0
  00412	74 11		 je	 SHORT $LN71@cckd_sf_re
  00414	48 8d 05 00 00
	00 00		 lea	 rax, OFFSET FLAT:$SG171908
  0041b	48 89 84 24 28
	01 00 00	 mov	 QWORD PTR tv202[rsp], rax
  00423	eb 0f		 jmp	 SHORT $LN72@cckd_sf_re
$LN71@cckd_sf_re:
  00425	48 8d 05 00 00
	00 00		 lea	 rax, OFFSET FLAT:$SG171909
  0042c	48 89 84 24 28
	01 00 00	 mov	 QWORD PTR tv202[rsp], rax
$LN72@cckd_sf_re:
  00434	48 8b 84 24 20
	01 00 00	 mov	 rax, QWORD PTR tv199[rsp]
  0043c	48 89 44 24 28	 mov	 QWORD PTR [rsp+40], rax
  00441	48 8b 84 24 28
	01 00 00	 mov	 rax, QWORD PTR tv202[rsp]
  00449	48 89 44 24 20	 mov	 QWORD PTR [rsp+32], rax
  0044e	4c 8d 0d 00 00
	00 00		 lea	 r9, OFFSET FLAT:$SG171910
  00455	4c 8b 44 24 70	 mov	 r8, QWORD PTR dev$[rsp]
  0045a	ba ae 10 00 00	 mov	 edx, 4270		; 000010aeH
  0045f	48 8d 0d 00 00
	00 00		 lea	 rcx, OFFSET FLAT:$SG171911
  00466	e8 00 00 00 00	 call	 cckd_trace

; 4270 :                 merge ? "merge" : "nomerge", force ? "force" : "");
; 4271 : 
; 4272 :     /* Schedule updated track entries to be written */
; 4273 :     obtain_lock( &cckd->cckdiolock );

  0046b	48 8b 44 24 78	 mov	 rax, QWORD PTR cckd$[rsp]
  00470	48 83 c0 18	 add	 rax, 24
  00474	48 8d 15 00 00
	00 00		 lea	 rdx, OFFSET FLAT:$SG171912
  0047b	48 8b c8	 mov	 rcx, rax
  0047e	ff 15 00 00 00
	00		 call	 QWORD PTR __imp_hthread_obtain_lock

; 4274 :     {
; 4275 :         if (cckd->merging)

  00484	48 8b 44 24 78	 mov	 rax, QWORD PTR cckd$[rsp]
  00489	8b 40 08	 mov	 eax, DWORD PTR [rax+8]
  0048c	c1 e8 05	 shr	 eax, 5
  0048f	83 e0 01	 and	 eax, 1
  00492	85 c0		 test	 eax, eax
  00494	0f 84 fc 00 00
	00		 je	 $LN17@cckd_sf_re

; 4276 :         {
; 4277 :             release_lock( &cckd->cckdiolock );

  0049a	48 8b 44 24 78	 mov	 rax, QWORD PTR cckd$[rsp]
  0049f	48 83 c0 18	 add	 rax, 24
  004a3	48 8d 15 00 00
	00 00		 lea	 rdx, OFFSET FLAT:$SG171914
  004aa	48 8b c8	 mov	 rcx, rax
  004ad	ff 15 00 00 00
	00		 call	 QWORD PTR __imp_hthread_release_lock

; 4278 :             // "%1d:%04X CCKD file[%d] %s: error merging shadow file, sf command busy on device"
; 4279 :             WRMSG( HHC00322, "W", LCSS_DEVNUM, cckd->sfn, cckd_sf_name(dev, cckd->sfn) );

  004b3	48 83 7c 24 70
	00		 cmp	 QWORD PTR dev$[rsp], 0
  004b9	74 12		 je	 SHORT $LN73@cckd_sf_re
  004bb	48 8b 44 24 70	 mov	 rax, QWORD PTR dev$[rsp]
  004c0	0f b7 40 48	 movzx	 eax, WORD PTR [rax+72]
  004c4	89 84 24 c4 00
	00 00		 mov	 DWORD PTR tv228[rsp], eax
  004cb	eb 0b		 jmp	 SHORT $LN74@cckd_sf_re
$LN73@cckd_sf_re:
  004cd	c7 84 24 c4 00
	00 00 00 00 00
	00		 mov	 DWORD PTR tv228[rsp], 0
$LN74@cckd_sf_re:
  004d8	48 83 7c 24 70
	00		 cmp	 QWORD PTR dev$[rsp], 0
  004de	74 14		 je	 SHORT $LN75@cckd_sf_re
  004e0	48 8b 44 24 70	 mov	 rax, QWORD PTR dev$[rsp]
  004e5	0f b7 40 44	 movzx	 eax, WORD PTR [rax+68]
  004e9	d1 f8		 sar	 eax, 1
  004eb	89 84 24 c8 00
	00 00		 mov	 DWORD PTR tv234[rsp], eax
  004f2	eb 0b		 jmp	 SHORT $LN76@cckd_sf_re
$LN75@cckd_sf_re:
  004f4	c7 84 24 c8 00
	00 00 00 00 00
	00		 mov	 DWORD PTR tv234[rsp], 0
$LN76@cckd_sf_re:
  004ff	48 8b 44 24 78	 mov	 rax, QWORD PTR cckd$[rsp]
  00504	8b 50 3c	 mov	 edx, DWORD PTR [rax+60]
  00507	48 8b 4c 24 70	 mov	 rcx, QWORD PTR dev$[rsp]
  0050c	e8 00 00 00 00	 call	 cckd_sf_name
  00511	48 89 84 24 48
	01 00 00	 mov	 QWORD PTR tv215[rsp], rax
  00519	b9 01 00 00 00	 mov	 ecx, 1
  0051e	ff 15 00 00 00
	00		 call	 QWORD PTR __imp___acrt_iob_func
  00524	48 8b 8c 24 48
	01 00 00	 mov	 rcx, QWORD PTR tv215[rsp]
  0052c	48 89 4c 24 50	 mov	 QWORD PTR [rsp+80], rcx
  00531	48 8b 4c 24 78	 mov	 rcx, QWORD PTR cckd$[rsp]
  00536	8b 49 3c	 mov	 ecx, DWORD PTR [rcx+60]
  00539	89 4c 24 48	 mov	 DWORD PTR [rsp+72], ecx
  0053d	8b 8c 24 c4 00
	00 00		 mov	 ecx, DWORD PTR tv228[rsp]
  00544	89 4c 24 40	 mov	 DWORD PTR [rsp+64], ecx
  00548	8b 8c 24 c8 00
	00 00		 mov	 ecx, DWORD PTR tv234[rsp]
  0054f	89 4c 24 38	 mov	 DWORD PTR [rsp+56], ecx
  00553	48 8d 0d 00 00
	00 00		 lea	 rcx, OFFSET FLAT:$SG171915
  0055a	48 89 4c 24 30	 mov	 QWORD PTR [rsp+48], rcx
  0055f	48 8d 0d 00 00
	00 00		 lea	 rcx, OFFSET FLAT:$SG171916
  00566	48 89 4c 24 28	 mov	 QWORD PTR [rsp+40], rcx
  0056b	48 89 44 24 20	 mov	 QWORD PTR [rsp+32], rax
  00570	41 b9 03 00 00
	00		 mov	 r9d, 3
  00576	4c 8d 05 00 00
	00 00		 lea	 r8, OFFSET FLAT:$SG171917
  0057d	ba b7 10 00 00	 mov	 edx, 4279		; 000010b7H
  00582	48 8d 0d 00 00
	00 00		 lea	 rcx, OFFSET FLAT:$SG171918
  00589	ff 15 00 00 00
	00		 call	 QWORD PTR __imp_fwritemsg

; 4280 :             return NULL;

  0058f	33 c0		 xor	 eax, eax
  00591	e9 d5 13 00 00	 jmp	 $LN1@cckd_sf_re
$LN17@cckd_sf_re:

; 4281 :         }
; 4282 :         cckd->merging = 1;

  00596	48 8b 44 24 78	 mov	 rax, QWORD PTR cckd$[rsp]
  0059b	8b 40 08	 mov	 eax, DWORD PTR [rax+8]
  0059e	83 c8 20	 or	 eax, 32			; 00000020H
  005a1	48 8b 4c 24 78	 mov	 rcx, QWORD PTR cckd$[rsp]
  005a6	89 41 08	 mov	 DWORD PTR [rcx+8], eax

; 4283 :         cckd_flush_cache (dev);

  005a9	48 8b 4c 24 70	 mov	 rcx, QWORD PTR dev$[rsp]
  005ae	e8 00 00 00 00	 call	 cckd_flush_cache
$LN5@cckd_sf_re:

; 4284 :         while (cckd->wrpending || cckd->cckdioact)

  005b3	48 8b 44 24 78	 mov	 rax, QWORD PTR cckd$[rsp]
  005b8	83 78 34 00	 cmp	 DWORD PTR [rax+52], 0
  005bc	75 12		 jne	 SHORT $LN18@cckd_sf_re
  005be	48 8b 44 24 78	 mov	 rax, QWORD PTR cckd$[rsp]
  005c3	8b 40 08	 mov	 eax, DWORD PTR [rax+8]
  005c6	c1 e8 02	 shr	 eax, 2
  005c9	83 e0 01	 and	 eax, 1
  005cc	85 c0		 test	 eax, eax
  005ce	74 52		 je	 SHORT $LN6@cckd_sf_re
$LN18@cckd_sf_re:

; 4285 :         {
; 4286 :             cckd->cckdwaiters++;

  005d0	48 8b 44 24 78	 mov	 rax, QWORD PTR cckd$[rsp]
  005d5	8b 40 30	 mov	 eax, DWORD PTR [rax+48]
  005d8	ff c0		 inc	 eax
  005da	48 8b 4c 24 78	 mov	 rcx, QWORD PTR cckd$[rsp]
  005df	89 41 30	 mov	 DWORD PTR [rcx+48], eax

; 4287 :             wait_condition( &cckd->cckdiocond, &cckd->cckdiolock );

  005e2	48 8b 44 24 78	 mov	 rax, QWORD PTR cckd$[rsp]
  005e7	48 83 c0 18	 add	 rax, 24
  005eb	48 8b 4c 24 78	 mov	 rcx, QWORD PTR cckd$[rsp]
  005f0	48 83 c1 20	 add	 rcx, 32			; 00000020H
  005f4	4c 8d 05 00 00
	00 00		 lea	 r8, OFFSET FLAT:$SG171920
  005fb	48 8b d0	 mov	 rdx, rax
  005fe	ff 15 00 00 00
	00		 call	 QWORD PTR __imp_hthread_wait_condition

; 4288 :             cckd->cckdwaiters--;

  00604	48 8b 44 24 78	 mov	 rax, QWORD PTR cckd$[rsp]
  00609	8b 40 30	 mov	 eax, DWORD PTR [rax+48]
  0060c	ff c8		 dec	 eax
  0060e	48 8b 4c 24 78	 mov	 rcx, QWORD PTR cckd$[rsp]
  00613	89 41 30	 mov	 DWORD PTR [rcx+48], eax

; 4289 :             cckd_flush_cache( dev );

  00616	48 8b 4c 24 70	 mov	 rcx, QWORD PTR dev$[rsp]
  0061b	e8 00 00 00 00	 call	 cckd_flush_cache

; 4290 :         }

  00620	eb 91		 jmp	 SHORT $LN5@cckd_sf_re
$LN6@cckd_sf_re:

; 4291 :         cckd_purge_cache( dev );

  00622	48 8b 4c 24 70	 mov	 rcx, QWORD PTR dev$[rsp]
  00627	e8 00 00 00 00	 call	 cckd_purge_cache

; 4292 :         cckd_purge_l2( dev );

  0062c	48 8b 4c 24 70	 mov	 rcx, QWORD PTR dev$[rsp]
  00631	e8 00 00 00 00	 call	 cckd_purge_l2

; 4293 :         dev->bufcur = dev->cache = -1;

  00636	48 8b 44 24 70	 mov	 rax, QWORD PTR dev$[rsp]
  0063b	c7 80 f8 01 00
	00 ff ff ff ff	 mov	 DWORD PTR [rax+504], -1
  00645	48 8b 44 24 70	 mov	 rax, QWORD PTR dev$[rsp]
  0064a	c7 80 c0 01 00
	00 ff ff ff ff	 mov	 DWORD PTR [rax+448], -1

; 4294 :     }
; 4295 :     release_lock( &cckd->cckdiolock );

  00654	48 8b 44 24 78	 mov	 rax, QWORD PTR cckd$[rsp]
  00659	48 83 c0 18	 add	 rax, 24
  0065d	48 8d 15 00 00
	00 00		 lea	 rdx, OFFSET FLAT:$SG171921
  00664	48 8b c8	 mov	 rcx, rax
  00667	ff 15 00 00 00
	00		 call	 QWORD PTR __imp_hthread_release_lock

; 4296 : 
; 4297 :     obtain_lock( &cckd->filelock );

  0066d	48 8b 44 24 78	 mov	 rax, QWORD PTR cckd$[rsp]
  00672	48 83 c0 10	 add	 rax, 16
  00676	48 8d 15 00 00
	00 00		 lea	 rdx, OFFSET FLAT:$SG171922
  0067d	48 8b c8	 mov	 rcx, rax
  00680	ff 15 00 00 00
	00		 call	 QWORD PTR __imp_hthread_obtain_lock

; 4298 : 
; 4299 :     if (!cckd->sfn)

  00686	48 8b 44 24 78	 mov	 rax, QWORD PTR cckd$[rsp]
  0068b	83 78 3c 00	 cmp	 DWORD PTR [rax+60], 0
  0068f	0f 85 0f 01 00
	00		 jne	 $LN19@cckd_sf_re

; 4300 :     {
; 4301 :         release_lock( &cckd->filelock );

  00695	48 8b 44 24 78	 mov	 rax, QWORD PTR cckd$[rsp]
  0069a	48 83 c0 10	 add	 rax, 16
  0069e	48 8d 15 00 00
	00 00		 lea	 rdx, OFFSET FLAT:$SG171924
  006a5	48 8b c8	 mov	 rcx, rax
  006a8	ff 15 00 00 00
	00		 call	 QWORD PTR __imp_hthread_release_lock

; 4302 :         // "%1d:%04X CCKD file[%d] %s: cannot remove base file"
; 4303 :         WRMSG( HHC00323, "E", LCSS_DEVNUM, cckd->sfn, cckd_sf_name(dev, cckd->sfn) );

  006ae	48 83 7c 24 70
	00		 cmp	 QWORD PTR dev$[rsp], 0
  006b4	74 12		 je	 SHORT $LN77@cckd_sf_re
  006b6	48 8b 44 24 70	 mov	 rax, QWORD PTR dev$[rsp]
  006bb	0f b7 40 48	 movzx	 eax, WORD PTR [rax+72]
  006bf	89 84 24 cc 00
	00 00		 mov	 DWORD PTR tv326[rsp], eax
  006c6	eb 0b		 jmp	 SHORT $LN78@cckd_sf_re
$LN77@cckd_sf_re:
  006c8	c7 84 24 cc 00
	00 00 00 00 00
	00		 mov	 DWORD PTR tv326[rsp], 0
$LN78@cckd_sf_re:
  006d3	48 83 7c 24 70
	00		 cmp	 QWORD PTR dev$[rsp], 0
  006d9	74 14		 je	 SHORT $LN79@cckd_sf_re
  006db	48 8b 44 24 70	 mov	 rax, QWORD PTR dev$[rsp]
  006e0	0f b7 40 44	 movzx	 eax, WORD PTR [rax+68]
  006e4	d1 f8		 sar	 eax, 1
  006e6	89 84 24 d0 00
	00 00		 mov	 DWORD PTR tv332[rsp], eax
  006ed	eb 0b		 jmp	 SHORT $LN80@cckd_sf_re
$LN79@cckd_sf_re:
  006ef	c7 84 24 d0 00
	00 00 00 00 00
	00		 mov	 DWORD PTR tv332[rsp], 0
$LN80@cckd_sf_re:
  006fa	48 8b 44 24 78	 mov	 rax, QWORD PTR cckd$[rsp]
  006ff	8b 50 3c	 mov	 edx, DWORD PTR [rax+60]
  00702	48 8b 4c 24 70	 mov	 rcx, QWORD PTR dev$[rsp]
  00707	e8 00 00 00 00	 call	 cckd_sf_name
  0070c	48 89 84 24 50
	01 00 00	 mov	 QWORD PTR tv281[rsp], rax
  00714	b9 01 00 00 00	 mov	 ecx, 1
  00719	ff 15 00 00 00
	00		 call	 QWORD PTR __imp___acrt_iob_func
  0071f	48 8b 8c 24 50
	01 00 00	 mov	 rcx, QWORD PTR tv281[rsp]
  00727	48 89 4c 24 50	 mov	 QWORD PTR [rsp+80], rcx
  0072c	48 8b 4c 24 78	 mov	 rcx, QWORD PTR cckd$[rsp]
  00731	8b 49 3c	 mov	 ecx, DWORD PTR [rcx+60]
  00734	89 4c 24 48	 mov	 DWORD PTR [rsp+72], ecx
  00738	8b 8c 24 cc 00
	00 00		 mov	 ecx, DWORD PTR tv326[rsp]
  0073f	89 4c 24 40	 mov	 DWORD PTR [rsp+64], ecx
  00743	8b 8c 24 d0 00
	00 00		 mov	 ecx, DWORD PTR tv332[rsp]
  0074a	89 4c 24 38	 mov	 DWORD PTR [rsp+56], ecx
  0074e	48 8d 0d 00 00
	00 00		 lea	 rcx, OFFSET FLAT:$SG171925
  00755	48 89 4c 24 30	 mov	 QWORD PTR [rsp+48], rcx
  0075a	48 8d 0d 00 00
	00 00		 lea	 rcx, OFFSET FLAT:$SG171926
  00761	48 89 4c 24 28	 mov	 QWORD PTR [rsp+40], rcx
  00766	48 89 44 24 20	 mov	 QWORD PTR [rsp+32], rax
  0076b	41 b9 03 00 00
	00		 mov	 r9d, 3
  00771	4c 8d 05 00 00
	00 00		 lea	 r8, OFFSET FLAT:$SG171927
  00778	ba cf 10 00 00	 mov	 edx, 4303		; 000010cfH
  0077d	48 8d 0d 00 00
	00 00		 lea	 rcx, OFFSET FLAT:$SG171928
  00784	ff 15 00 00 00
	00		 call	 QWORD PTR __imp_fwritemsg

; 4304 :         cckd->merging = 0;

  0078a	48 8b 44 24 78	 mov	 rax, QWORD PTR cckd$[rsp]
  0078f	8b 40 08	 mov	 eax, DWORD PTR [rax+8]
  00792	83 e0 df	 and	 eax, -33		; ffffffdfH
  00795	48 8b 4c 24 78	 mov	 rcx, QWORD PTR cckd$[rsp]
  0079a	89 41 08	 mov	 DWORD PTR [rcx+8], eax

; 4305 :         return NULL;

  0079d	33 c0		 xor	 eax, eax
  0079f	e9 c7 11 00 00	 jmp	 $LN1@cckd_sf_re
$LN19@cckd_sf_re:

; 4306 :     }
; 4307 : 
; 4308 :     from_sfx = cckd->sfn;

  007a4	48 8b 44 24 78	 mov	 rax, QWORD PTR cckd$[rsp]
  007a9	8b 40 3c	 mov	 eax, DWORD PTR [rax+60]
  007ac	89 84 24 84 00
	00 00		 mov	 DWORD PTR from_sfx$[rsp], eax

; 4309 :     to_sfx   = cckd->sfn - 1;

  007b3	48 8b 44 24 78	 mov	 rax, QWORD PTR cckd$[rsp]
  007b8	8b 40 3c	 mov	 eax, DWORD PTR [rax+60]
  007bb	ff c8		 dec	 eax
  007bd	89 84 24 80 00
	00 00		 mov	 DWORD PTR to_sfx$[rsp], eax

; 4310 :     fix = cckd->cdevhdr[ to_sfx ].cdh_nullfmt;

  007c4	48 63 84 24 80
	00 00 00	 movsxd	 rax, DWORD PTR to_sfx$[rsp]
  007cc	48 69 c0 00 02
	00 00		 imul	 rax, rax, 512		; 00000200H
  007d3	48 8b 4c 24 78	 mov	 rcx, QWORD PTR cckd$[rsp]
  007d8	0f b6 84 01 0c
	02 00 00	 movzx	 eax, BYTE PTR [rcx+rax+524]
  007e0	89 84 24 14 01
	00 00		 mov	 DWORD PTR fix$[rsp], eax

; 4311 : 
; 4312 :     /* Harden the `from' file */
; 4313 :     if (cckd_harden( dev ) < 0)

  007e7	48 8b 4c 24 70	 mov	 rcx, QWORD PTR dev$[rsp]
  007ec	e8 00 00 00 00	 call	 cckd_harden
  007f1	85 c0		 test	 eax, eax
  007f3	0f 8d 03 01 00
	00		 jge	 $LN20@cckd_sf_re

; 4314 :     {
; 4315 :         // "%1d:%04X CCKD file[%d] %s: shadow file not merged: file[%d] %s%s"
; 4316 :         WRMSG( HHC00324, "E", LCSS_DEVNUM, from_sfx, cckd_sf_name( dev, cckd->sfx ),

  007f9	48 83 7c 24 70
	00		 cmp	 QWORD PTR dev$[rsp], 0
  007ff	74 12		 je	 SHORT $LN81@cckd_sf_re
  00801	48 8b 44 24 70	 mov	 rax, QWORD PTR dev$[rsp]
  00806	0f b7 40 48	 movzx	 eax, WORD PTR [rax+72]
  0080a	89 84 24 d4 00
	00 00		 mov	 DWORD PTR tv370[rsp], eax
  00811	eb 0b		 jmp	 SHORT $LN82@cckd_sf_re
$LN81@cckd_sf_re:
  00813	c7 84 24 d4 00
	00 00 00 00 00
	00		 mov	 DWORD PTR tv370[rsp], 0
$LN82@cckd_sf_re:
  0081e	48 83 7c 24 70
	00		 cmp	 QWORD PTR dev$[rsp], 0
  00824	74 14		 je	 SHORT $LN83@cckd_sf_re
  00826	48 8b 44 24 70	 mov	 rax, QWORD PTR dev$[rsp]
  0082b	0f b7 40 44	 movzx	 eax, WORD PTR [rax+68]
  0082f	d1 f8		 sar	 eax, 1
  00831	89 84 24 d8 00
	00 00		 mov	 DWORD PTR tv376[rsp], eax
  00838	eb 0b		 jmp	 SHORT $LN84@cckd_sf_re
$LN83@cckd_sf_re:
  0083a	c7 84 24 d8 00
	00 00 00 00 00
	00		 mov	 DWORD PTR tv376[rsp], 0
$LN84@cckd_sf_re:
  00845	48 8b 44 24 78	 mov	 rax, QWORD PTR cckd$[rsp]
  0084a	8b 50 40	 mov	 edx, DWORD PTR [rax+64]
  0084d	48 8b 4c 24 70	 mov	 rcx, QWORD PTR dev$[rsp]
  00852	e8 00 00 00 00	 call	 cckd_sf_name
  00857	48 89 84 24 58
	01 00 00	 mov	 QWORD PTR tv361[rsp], rax
  0085f	b9 01 00 00 00	 mov	 ecx, 1
  00864	ff 15 00 00 00
	00		 call	 QWORD PTR __imp___acrt_iob_func
  0086a	48 8d 0d 00 00
	00 00		 lea	 rcx, OFFSET FLAT:$SG171930
  00871	48 89 4c 24 68	 mov	 QWORD PTR [rsp+104], rcx
  00876	48 8d 0d 00 00
	00 00		 lea	 rcx, OFFSET FLAT:$SG171931
  0087d	48 89 4c 24 60	 mov	 QWORD PTR [rsp+96], rcx
  00882	8b 8c 24 84 00
	00 00		 mov	 ecx, DWORD PTR from_sfx$[rsp]
  00889	89 4c 24 58	 mov	 DWORD PTR [rsp+88], ecx
  0088d	48 8b 8c 24 58
	01 00 00	 mov	 rcx, QWORD PTR tv361[rsp]
  00895	48 89 4c 24 50	 mov	 QWORD PTR [rsp+80], rcx
  0089a	8b 8c 24 84 00
	00 00		 mov	 ecx, DWORD PTR from_sfx$[rsp]
  008a1	89 4c 24 48	 mov	 DWORD PTR [rsp+72], ecx
  008a5	8b 8c 24 d4 00
	00 00		 mov	 ecx, DWORD PTR tv370[rsp]
  008ac	89 4c 24 40	 mov	 DWORD PTR [rsp+64], ecx
  008b0	8b 8c 24 d8 00
	00 00		 mov	 ecx, DWORD PTR tv376[rsp]
  008b7	89 4c 24 38	 mov	 DWORD PTR [rsp+56], ecx
  008bb	48 8d 0d 00 00
	00 00		 lea	 rcx, OFFSET FLAT:$SG171932
  008c2	48 89 4c 24 30	 mov	 QWORD PTR [rsp+48], rcx
  008c7	48 8d 0d 00 00
	00 00		 lea	 rcx, OFFSET FLAT:$SG171933
  008ce	48 89 4c 24 28	 mov	 QWORD PTR [rsp+40], rcx
  008d3	48 89 44 24 20	 mov	 QWORD PTR [rsp+32], rax
  008d8	41 b9 03 00 00
	00		 mov	 r9d, 3
  008de	4c 8d 05 00 00
	00 00		 lea	 r8, OFFSET FLAT:$SG171934
  008e5	ba dd 10 00 00	 mov	 edx, 4317		; 000010ddH
  008ea	48 8d 0d 00 00
	00 00		 lea	 rcx, OFFSET FLAT:$SG171935
  008f1	ff 15 00 00 00
	00		 call	 QWORD PTR __imp_fwritemsg

; 4317 :                from_sfx, "not hardened", "" );
; 4318 :         goto sf_remove_exit;

  008f7	e9 af 0c 00 00	 jmp	 $sf_remove_exit$112
$LN20@cckd_sf_re:

; 4319 :     }
; 4320 : 
; 4321 :     /* Attempt to re-open the `to' file read-write */
; 4322 :     cckd_close( dev, to_sfx );

  008fc	8b 94 24 80 00
	00 00		 mov	 edx, DWORD PTR to_sfx$[rsp]
  00903	48 8b 4c 24 70	 mov	 rcx, QWORD PTR dev$[rsp]
  00908	e8 00 00 00 00	 call	 cckd_close

; 4323 : 
; 4324 :     if (to_sfx > 0 || !dev->ckdrdonly || force)

  0090d	83 bc 24 80 00
	00 00 00	 cmp	 DWORD PTR to_sfx$[rsp], 0
  00915	7f 1f		 jg	 SHORT $LN22@cckd_sf_re
  00917	48 8b 44 24 70	 mov	 rax, QWORD PTR dev$[rsp]
  0091c	8b 80 14 13 00
	00		 mov	 eax, DWORD PTR [rax+4884]
  00922	c1 e8 12	 shr	 eax, 18
  00925	83 e0 01	 and	 eax, 1
  00928	85 c0		 test	 eax, eax
  0092a	74 0a		 je	 SHORT $LN22@cckd_sf_re
  0092c	83 bc 24 a4 00
	00 00 00	 cmp	 DWORD PTR force$[rsp], 0
  00934	74 1d		 je	 SHORT $LN21@cckd_sf_re
$LN22@cckd_sf_re:

; 4325 :         cckd_open( dev, to_sfx, O_RDWR | O_BINARY, 1 );

  00936	41 b9 01 00 00
	00		 mov	 r9d, 1
  0093c	41 b8 02 80 00
	00		 mov	 r8d, 32770		; 00008002H
  00942	8b 94 24 80 00
	00 00		 mov	 edx, DWORD PTR to_sfx$[rsp]
  00949	48 8b 4c 24 70	 mov	 rcx, QWORD PTR dev$[rsp]
  0094e	e8 00 00 00 00	 call	 cckd_open
$LN21@cckd_sf_re:

; 4326 : 
; 4327 :     if (cckd->fd[to_sfx] < 0)

  00953	48 63 84 24 80
	00 00 00	 movsxd	 rax, DWORD PTR to_sfx$[rsp]
  0095b	48 8b 4c 24 78	 mov	 rcx, QWORD PTR cckd$[rsp]
  00960	83 bc 81 f0 00
	00 00 00	 cmp	 DWORD PTR [rcx+rax*4+240], 0
  00968	0f 8d 86 01 00
	00		 jge	 $LN23@cckd_sf_re

; 4328 :     {
; 4329 :         /* `from' file can't be opened read-write */
; 4330 :         cckd_open( dev, to_sfx, O_RDONLY | O_BINARY, 0 );

  0096e	45 33 c9	 xor	 r9d, r9d
  00971	41 b8 00 80 00
	00		 mov	 r8d, 32768		; 00008000H
  00977	8b 94 24 80 00
	00 00		 mov	 edx, DWORD PTR to_sfx$[rsp]
  0097e	48 8b 4c 24 70	 mov	 rcx, QWORD PTR dev$[rsp]
  00983	e8 00 00 00 00	 call	 cckd_open

; 4331 : 
; 4332 :         if (merge)

  00988	83 bc 24 9c 00
	00 00 00	 cmp	 DWORD PTR merge$[rsp], 0
  00990	0f 84 4e 01 00
	00		 je	 $LN25@cckd_sf_re

; 4333 :         {
; 4334 :             // "%1d:%04X CCKD file[%d] %s: shadow file not merged: file[%d] %s%s"
; 4335 :             WRMSG( HHC00324, "E", LCSS_DEVNUM, from_sfx, cckd_sf_name( dev, from_sfx ),

  00996	83 bc 24 80 00
	00 00 00	 cmp	 DWORD PTR to_sfx$[rsp], 0
  0099e	75 30		 jne	 SHORT $LN85@cckd_sf_re
  009a0	48 8b 44 24 70	 mov	 rax, QWORD PTR dev$[rsp]
  009a5	8b 80 14 13 00
	00		 mov	 eax, DWORD PTR [rax+4884]
  009ab	c1 e8 12	 shr	 eax, 18
  009ae	83 e0 01	 and	 eax, 1
  009b1	85 c0		 test	 eax, eax
  009b3	74 1b		 je	 SHORT $LN85@cckd_sf_re
  009b5	83 bc 24 a4 00
	00 00 00	 cmp	 DWORD PTR force$[rsp], 0
  009bd	75 11		 jne	 SHORT $LN85@cckd_sf_re
  009bf	48 8d 05 00 00
	00 00		 lea	 rax, OFFSET FLAT:$SG171942
  009c6	48 89 84 24 30
	01 00 00	 mov	 QWORD PTR tv415[rsp], rax
  009ce	eb 0f		 jmp	 SHORT $LN86@cckd_sf_re
$LN85@cckd_sf_re:
  009d0	48 8d 05 00 00
	00 00		 lea	 rax, OFFSET FLAT:$SG171943
  009d7	48 89 84 24 30
	01 00 00	 mov	 QWORD PTR tv415[rsp], rax
$LN86@cckd_sf_re:
  009df	48 83 7c 24 70
	00		 cmp	 QWORD PTR dev$[rsp], 0
  009e5	74 12		 je	 SHORT $LN87@cckd_sf_re
  009e7	48 8b 44 24 70	 mov	 rax, QWORD PTR dev$[rsp]
  009ec	0f b7 40 48	 movzx	 eax, WORD PTR [rax+72]
  009f0	89 84 24 dc 00
	00 00		 mov	 DWORD PTR tv427[rsp], eax
  009f7	eb 0b		 jmp	 SHORT $LN88@cckd_sf_re
$LN87@cckd_sf_re:
  009f9	c7 84 24 dc 00
	00 00 00 00 00
	00		 mov	 DWORD PTR tv427[rsp], 0
$LN88@cckd_sf_re:
  00a04	48 83 7c 24 70
	00		 cmp	 QWORD PTR dev$[rsp], 0
  00a0a	74 14		 je	 SHORT $LN89@cckd_sf_re
  00a0c	48 8b 44 24 70	 mov	 rax, QWORD PTR dev$[rsp]
  00a11	0f b7 40 44	 movzx	 eax, WORD PTR [rax+68]
  00a15	d1 f8		 sar	 eax, 1
  00a17	89 84 24 e0 00
	00 00		 mov	 DWORD PTR tv433[rsp], eax
  00a1e	eb 0b		 jmp	 SHORT $LN90@cckd_sf_re
$LN89@cckd_sf_re:
  00a20	c7 84 24 e0 00
	00 00 00 00 00
	00		 mov	 DWORD PTR tv433[rsp], 0
$LN90@cckd_sf_re:
  00a2b	8b 94 24 84 00
	00 00		 mov	 edx, DWORD PTR from_sfx$[rsp]
  00a32	48 8b 4c 24 70	 mov	 rcx, QWORD PTR dev$[rsp]
  00a37	e8 00 00 00 00	 call	 cckd_sf_name
  00a3c	48 89 84 24 60
	01 00 00	 mov	 QWORD PTR tv419[rsp], rax
  00a44	b9 01 00 00 00	 mov	 ecx, 1
  00a49	ff 15 00 00 00
	00		 call	 QWORD PTR __imp___acrt_iob_func
  00a4f	48 8b 8c 24 30
	01 00 00	 mov	 rcx, QWORD PTR tv415[rsp]
  00a57	48 89 4c 24 68	 mov	 QWORD PTR [rsp+104], rcx
  00a5c	48 8d 0d 00 00
	00 00		 lea	 rcx, OFFSET FLAT:$SG171944
  00a63	48 89 4c 24 60	 mov	 QWORD PTR [rsp+96], rcx
  00a68	8b 8c 24 80 00
	00 00		 mov	 ecx, DWORD PTR to_sfx$[rsp]
  00a6f	89 4c 24 58	 mov	 DWORD PTR [rsp+88], ecx
  00a73	48 8b 8c 24 60
	01 00 00	 mov	 rcx, QWORD PTR tv419[rsp]
  00a7b	48 89 4c 24 50	 mov	 QWORD PTR [rsp+80], rcx
  00a80	8b 8c 24 84 00
	00 00		 mov	 ecx, DWORD PTR from_sfx$[rsp]
  00a87	89 4c 24 48	 mov	 DWORD PTR [rsp+72], ecx
  00a8b	8b 8c 24 dc 00
	00 00		 mov	 ecx, DWORD PTR tv427[rsp]
  00a92	89 4c 24 40	 mov	 DWORD PTR [rsp+64], ecx
  00a96	8b 8c 24 e0 00
	00 00		 mov	 ecx, DWORD PTR tv433[rsp]
  00a9d	89 4c 24 38	 mov	 DWORD PTR [rsp+56], ecx
  00aa1	48 8d 0d 00 00
	00 00		 lea	 rcx, OFFSET FLAT:$SG171945
  00aa8	48 89 4c 24 30	 mov	 QWORD PTR [rsp+48], rcx
  00aad	48 8d 0d 00 00
	00 00		 lea	 rcx, OFFSET FLAT:$SG171946
  00ab4	48 89 4c 24 28	 mov	 QWORD PTR [rsp+40], rcx
  00ab9	48 89 44 24 20	 mov	 QWORD PTR [rsp+32], rax
  00abe	41 b9 03 00 00
	00		 mov	 r9d, 3
  00ac4	4c 8d 05 00 00
	00 00		 lea	 r8, OFFSET FLAT:$SG171947
  00acb	ba f1 10 00 00	 mov	 edx, 4337		; 000010f1H
  00ad0	48 8d 0d 00 00
	00 00		 lea	 rcx, OFFSET FLAT:$SG171948
  00ad7	ff 15 00 00 00
	00		 call	 QWORD PTR __imp_fwritemsg

; 4336 :                                  to_sfx, "cannot be opened read-write",
; 4337 :                                  to_sfx == 0 && dev->ckdrdonly && !force ? ", try 'force'" : "" );
; 4338 :             goto sf_remove_exit;

  00add	e9 c9 0a 00 00	 jmp	 $sf_remove_exit$112

; 4339 :         }

  00ae2	eb 0b		 jmp	 SHORT $LN26@cckd_sf_re
$LN25@cckd_sf_re:

; 4340 :         else
; 4341 :            add = 1;

  00ae4	c7 84 24 bc 00
	00 00 01 00 00
	00		 mov	 DWORD PTR add$[rsp], 1
$LN26@cckd_sf_re:

; 4342 :     }

  00aef	e9 34 01 00 00	 jmp	 $LN24@cckd_sf_re
$LN23@cckd_sf_re:

; 4343 :     else
; 4344 :     {
; 4345 :         /* `from' file opened read-write */
; 4346 :         cckd->sfn = to_sfx;

  00af4	48 8b 44 24 78	 mov	 rax, QWORD PTR cckd$[rsp]
  00af9	8b 8c 24 80 00
	00 00		 mov	 ecx, DWORD PTR to_sfx$[rsp]
  00b00	89 48 3c	 mov	 DWORD PTR [rax+60], ecx

; 4347 : 
; 4348 :         if (cckd_chkdsk( dev, 0 ) < 0)

  00b03	33 d2		 xor	 edx, edx
  00b05	48 8b 4c 24 70	 mov	 rcx, QWORD PTR dev$[rsp]
  00b0a	e8 00 00 00 00	 call	 cckd_chkdsk
  00b0f	85 c0		 test	 eax, eax
  00b11	0f 8d 11 01 00
	00		 jge	 $LN27@cckd_sf_re

; 4349 :         {
; 4350 :             cckd->sfn = from_sfx;

  00b17	48 8b 44 24 78	 mov	 rax, QWORD PTR cckd$[rsp]
  00b1c	8b 8c 24 84 00
	00 00		 mov	 ecx, DWORD PTR from_sfx$[rsp]
  00b23	89 48 3c	 mov	 DWORD PTR [rax+60], ecx

; 4351 :             // "%1d:%04X CCKD file[%d] %s: shadow file not merged: file[%d] %s%s"
; 4352 :             WRMSG( HHC00324, "E", LCSS_DEVNUM, to_sfx, cckd_sf_name( dev, to_sfx ),

  00b26	48 83 7c 24 70
	00		 cmp	 QWORD PTR dev$[rsp], 0
  00b2c	74 12		 je	 SHORT $LN91@cckd_sf_re
  00b2e	48 8b 44 24 70	 mov	 rax, QWORD PTR dev$[rsp]
  00b33	0f b7 40 48	 movzx	 eax, WORD PTR [rax+72]
  00b37	89 84 24 e4 00
	00 00		 mov	 DWORD PTR tv461[rsp], eax
  00b3e	eb 0b		 jmp	 SHORT $LN92@cckd_sf_re
$LN91@cckd_sf_re:
  00b40	c7 84 24 e4 00
	00 00 00 00 00
	00		 mov	 DWORD PTR tv461[rsp], 0
$LN92@cckd_sf_re:
  00b4b	48 83 7c 24 70
	00		 cmp	 QWORD PTR dev$[rsp], 0
  00b51	74 14		 je	 SHORT $LN93@cckd_sf_re
  00b53	48 8b 44 24 70	 mov	 rax, QWORD PTR dev$[rsp]
  00b58	0f b7 40 44	 movzx	 eax, WORD PTR [rax+68]
  00b5c	d1 f8		 sar	 eax, 1
  00b5e	89 84 24 e8 00
	00 00		 mov	 DWORD PTR tv467[rsp], eax
  00b65	eb 0b		 jmp	 SHORT $LN94@cckd_sf_re
$LN93@cckd_sf_re:
  00b67	c7 84 24 e8 00
	00 00 00 00 00
	00		 mov	 DWORD PTR tv467[rsp], 0
$LN94@cckd_sf_re:
  00b72	8b 94 24 80 00
	00 00		 mov	 edx, DWORD PTR to_sfx$[rsp]
  00b79	48 8b 4c 24 70	 mov	 rcx, QWORD PTR dev$[rsp]
  00b7e	e8 00 00 00 00	 call	 cckd_sf_name
  00b83	48 89 84 24 68
	01 00 00	 mov	 QWORD PTR tv453[rsp], rax
  00b8b	b9 01 00 00 00	 mov	 ecx, 1
  00b90	ff 15 00 00 00
	00		 call	 QWORD PTR __imp___acrt_iob_func
  00b96	48 8d 0d 00 00
	00 00		 lea	 rcx, OFFSET FLAT:$SG171950
  00b9d	48 89 4c 24 68	 mov	 QWORD PTR [rsp+104], rcx
  00ba2	48 8d 0d 00 00
	00 00		 lea	 rcx, OFFSET FLAT:$SG171951
  00ba9	48 89 4c 24 60	 mov	 QWORD PTR [rsp+96], rcx
  00bae	8b 8c 24 80 00
	00 00		 mov	 ecx, DWORD PTR to_sfx$[rsp]
  00bb5	89 4c 24 58	 mov	 DWORD PTR [rsp+88], ecx
  00bb9	48 8b 8c 24 68
	01 00 00	 mov	 rcx, QWORD PTR tv453[rsp]
  00bc1	48 89 4c 24 50	 mov	 QWORD PTR [rsp+80], rcx
  00bc6	8b 8c 24 80 00
	00 00		 mov	 ecx, DWORD PTR to_sfx$[rsp]
  00bcd	89 4c 24 48	 mov	 DWORD PTR [rsp+72], ecx
  00bd1	8b 8c 24 e4 00
	00 00		 mov	 ecx, DWORD PTR tv461[rsp]
  00bd8	89 4c 24 40	 mov	 DWORD PTR [rsp+64], ecx
  00bdc	8b 8c 24 e8 00
	00 00		 mov	 ecx, DWORD PTR tv467[rsp]
  00be3	89 4c 24 38	 mov	 DWORD PTR [rsp+56], ecx
  00be7	48 8d 0d 00 00
	00 00		 lea	 rcx, OFFSET FLAT:$SG171952
  00bee	48 89 4c 24 30	 mov	 QWORD PTR [rsp+48], rcx
  00bf3	48 8d 0d 00 00
	00 00		 lea	 rcx, OFFSET FLAT:$SG171953
  00bfa	48 89 4c 24 28	 mov	 QWORD PTR [rsp+40], rcx
  00bff	48 89 44 24 20	 mov	 QWORD PTR [rsp+32], rax
  00c04	41 b9 03 00 00
	00		 mov	 r9d, 3
  00c0a	4c 8d 05 00 00
	00 00		 lea	 r8, OFFSET FLAT:$SG171954
  00c11	ba 01 11 00 00	 mov	 edx, 4353		; 00001101H
  00c16	48 8d 0d 00 00
	00 00		 lea	 rcx, OFFSET FLAT:$SG171955
  00c1d	ff 15 00 00 00
	00		 call	 QWORD PTR __imp_fwritemsg

; 4353 :                                  to_sfx, "check failed", "" );
; 4354 :             goto sf_remove_exit;

  00c23	e9 83 09 00 00	 jmp	 $sf_remove_exit$112
$LN27@cckd_sf_re:
$LN24@cckd_sf_re:

; 4355 :         }
; 4356 :     }
; 4357 : 
; 4358 :     cckd->sfn = to_sfx;

  00c28	48 8b 44 24 78	 mov	 rax, QWORD PTR cckd$[rsp]
  00c2d	8b 8c 24 80 00
	00 00		 mov	 ecx, DWORD PTR to_sfx$[rsp]
  00c34	89 48 3c	 mov	 DWORD PTR [rax+60], ecx

; 4359 : 
; 4360 :     /* Perform backwards merge */
; 4361 :     if (merge)

  00c37	83 bc 24 9c 00
	00 00 00	 cmp	 DWORD PTR merge$[rsp], 0
  00c3f	0f 84 7e 06 00
	00		 je	 $LN28@cckd_sf_re

; 4362 :     {
; 4363 :         CCKD_TRACE( "merging to file[%d]", to_sfx );

  00c45	8b 84 24 80 00
	00 00		 mov	 eax, DWORD PTR to_sfx$[rsp]
  00c4c	89 44 24 20	 mov	 DWORD PTR [rsp+32], eax
  00c50	4c 8d 0d 00 00
	00 00		 lea	 r9, OFFSET FLAT:$SG171957
  00c57	4c 8b 44 24 70	 mov	 r8, QWORD PTR dev$[rsp]
  00c5c	ba 0b 11 00 00	 mov	 edx, 4363		; 0000110bH
  00c61	48 8d 0d 00 00
	00 00		 lea	 rcx, OFFSET FLAT:$SG171958
  00c68	e8 00 00 00 00	 call	 cckd_trace

; 4364 : 
; 4365 :         /* Make the target file the active file */
; 4366 :         cckd->sfn = to_sfx;

  00c6d	48 8b 44 24 78	 mov	 rax, QWORD PTR cckd$[rsp]
  00c72	8b 8c 24 80 00
	00 00		 mov	 ecx, DWORD PTR to_sfx$[rsp]
  00c79	89 48 3c	 mov	 DWORD PTR [rax+60], ecx

; 4367 :         cckd->cdevhdr[to_sfx].cdh_opts |= (CCKD_OPT_OPENED | CCKD_OPT_OPENRW);

  00c7c	48 63 84 24 80
	00 00 00	 movsxd	 rax, DWORD PTR to_sfx$[rsp]
  00c84	48 69 c0 00 02
	00 00		 imul	 rax, rax, 512		; 00000200H
  00c8b	48 8b 4c 24 78	 mov	 rcx, QWORD PTR cckd$[rsp]
  00c90	0f b6 84 01 e3
	01 00 00	 movzx	 eax, BYTE PTR [rcx+rax+483]
  00c98	0d c0 00 00 00	 or	 eax, 192		; 000000c0H
  00c9d	48 63 8c 24 80
	00 00 00	 movsxd	 rcx, DWORD PTR to_sfx$[rsp]
  00ca5	48 69 c9 00 02
	00 00		 imul	 rcx, rcx, 512		; 00000200H
  00cac	48 8b 54 24 78	 mov	 rdx, QWORD PTR cckd$[rsp]
  00cb1	88 84 0a e3 01
	00 00		 mov	 BYTE PTR [rdx+rcx+483], al

; 4368 : 
; 4369 :         /* Loop for each level 1 table entry */
; 4370 :         for (i = 0; i < cckd->cdevhdr[from_sfx].num_L1tab; i++)

  00cb8	c7 84 24 88 00
	00 00 00 00 00
	00		 mov	 DWORD PTR i$[rsp], 0
  00cc3	eb 10		 jmp	 SHORT $LN9@cckd_sf_re
$LN7@cckd_sf_re:
  00cc5	8b 84 24 88 00
	00 00		 mov	 eax, DWORD PTR i$[rsp]
  00ccc	ff c0		 inc	 eax
  00cce	89 84 24 88 00
	00 00		 mov	 DWORD PTR i$[rsp], eax
$LN9@cckd_sf_re:
  00cd5	48 63 84 24 84
	00 00 00	 movsxd	 rax, DWORD PTR from_sfx$[rsp]
  00cdd	48 69 c0 00 02
	00 00		 imul	 rax, rax, 512		; 00000200H
  00ce4	48 8b 4c 24 78	 mov	 rcx, QWORD PTR cckd$[rsp]
  00ce9	8b 84 01 e4 01
	00 00		 mov	 eax, DWORD PTR [rcx+rax+484]
  00cf0	39 84 24 88 00
	00 00		 cmp	 DWORD PTR i$[rsp], eax
  00cf7	0f 8d a6 05 00
	00		 jge	 $LN8@cckd_sf_re

; 4371 :         {
; 4372 :             l2updated = 0;

  00cfd	c7 84 24 a0 00
	00 00 00 00 00
	00		 mov	 DWORD PTR l2updated$[rsp], 0

; 4373 :             /* Continue if from L2 doesn't exist */
; 4374 :             if (cckd->L1tab[from_sfx][i] == CCKD_MAXSIZE
; 4375 :              || (cckd->L1tab[from_sfx][i] == 0 && cckd->L1tab[to_sfx][i] == 0))

  00d08	48 63 84 24 84
	00 00 00	 movsxd	 rax, DWORD PTR from_sfx$[rsp]
  00d10	48 63 8c 24 88
	00 00 00	 movsxd	 rcx, DWORD PTR i$[rsp]
  00d18	48 8b 54 24 78	 mov	 rdx, QWORD PTR cckd$[rsp]
  00d1d	48 8b 84 c2 98
	01 00 00	 mov	 rax, QWORD PTR [rdx+rax*8+408]
  00d25	83 3c 88 ff	 cmp	 DWORD PTR [rax+rcx*4], -1 ; ffffffffH
  00d29	74 46		 je	 SHORT $LN30@cckd_sf_re
  00d2b	48 63 84 24 84
	00 00 00	 movsxd	 rax, DWORD PTR from_sfx$[rsp]
  00d33	48 63 8c 24 88
	00 00 00	 movsxd	 rcx, DWORD PTR i$[rsp]
  00d3b	48 8b 54 24 78	 mov	 rdx, QWORD PTR cckd$[rsp]
  00d40	48 8b 84 c2 98
	01 00 00	 mov	 rax, QWORD PTR [rdx+rax*8+408]
  00d48	83 3c 88 00	 cmp	 DWORD PTR [rax+rcx*4], 0
  00d4c	75 28		 jne	 SHORT $LN29@cckd_sf_re
  00d4e	48 63 84 24 80
	00 00 00	 movsxd	 rax, DWORD PTR to_sfx$[rsp]
  00d56	48 63 8c 24 88
	00 00 00	 movsxd	 rcx, DWORD PTR i$[rsp]
  00d5e	48 8b 54 24 78	 mov	 rdx, QWORD PTR cckd$[rsp]
  00d63	48 8b 84 c2 98
	01 00 00	 mov	 rax, QWORD PTR [rdx+rax*8+408]
  00d6b	83 3c 88 00	 cmp	 DWORD PTR [rax+rcx*4], 0
  00d6f	75 05		 jne	 SHORT $LN29@cckd_sf_re
$LN30@cckd_sf_re:

; 4376 :                 continue;

  00d71	e9 4f ff ff ff	 jmp	 $LN7@cckd_sf_re
$LN29@cckd_sf_re:

; 4377 : 
; 4378 :             trk = i*256;

  00d76	69 84 24 88 00
	00 00 00 01 00
	00		 imul	 eax, DWORD PTR i$[rsp], 256 ; 00000100H
  00d81	89 84 24 ac 00
	00 00		 mov	 DWORD PTR trk$[rsp], eax

; 4379 : 
; 4380 :             /* Read `from' l2 table */
; 4381 :             if (cckd->L1tab[from_sfx][i] == 0)

  00d88	48 63 84 24 84
	00 00 00	 movsxd	 rax, DWORD PTR from_sfx$[rsp]
  00d90	48 63 8c 24 88
	00 00 00	 movsxd	 rcx, DWORD PTR i$[rsp]
  00d98	48 8b 54 24 78	 mov	 rdx, QWORD PTR cckd$[rsp]
  00d9d	48 8b 84 c2 98
	01 00 00	 mov	 rax, QWORD PTR [rdx+rax*8+408]
  00da5	83 3c 88 00	 cmp	 DWORD PTR [rax+rcx*4], 0
  00da9	75 16		 jne	 SHORT $LN31@cckd_sf_re

; 4382 :                 memset( &from_l2, 0, CCKD_L2TAB_SIZE );

  00dab	48 8d 84 24 90
	09 00 00	 lea	 rax, QWORD PTR from_l2$[rsp]
  00db3	48 8b f8	 mov	 rdi, rax
  00db6	33 c0		 xor	 eax, eax
  00db8	b9 00 08 00 00	 mov	 ecx, 2048		; 00000800H
  00dbd	f3 aa		 rep stosb
  00dbf	eb 5a		 jmp	 SHORT $LN32@cckd_sf_re
$LN31@cckd_sf_re:

; 4383 :             else
; 4384 :             {
; 4385 :                 pos = (off_t)cckd->L1tab[from_sfx][i];

  00dc1	48 63 84 24 84
	00 00 00	 movsxd	 rax, DWORD PTR from_sfx$[rsp]
  00dc9	48 63 8c 24 88
	00 00 00	 movsxd	 rcx, DWORD PTR i$[rsp]
  00dd1	48 8b 54 24 78	 mov	 rdx, QWORD PTR cckd$[rsp]
  00dd6	48 8b 84 c2 98
	01 00 00	 mov	 rax, QWORD PTR [rdx+rax*8+408]
  00dde	8b 04 88	 mov	 eax, DWORD PTR [rax+rcx*4]
  00de1	48 89 84 24 90
	00 00 00	 mov	 QWORD PTR pos$[rsp], rax

; 4386 :                 if (cckd_read( dev, from_sfx, pos, &from_l2, CCKD_L2TAB_SIZE ) < 0)

  00de9	c7 44 24 20 00
	08 00 00	 mov	 DWORD PTR [rsp+32], 2048 ; 00000800H
  00df1	4c 8d 8c 24 90
	09 00 00	 lea	 r9, QWORD PTR from_l2$[rsp]
  00df9	4c 8b 84 24 90
	00 00 00	 mov	 r8, QWORD PTR pos$[rsp]
  00e01	8b 94 24 84 00
	00 00		 mov	 edx, DWORD PTR from_sfx$[rsp]
  00e08	48 8b 4c 24 70	 mov	 rcx, QWORD PTR dev$[rsp]
  00e0d	e8 00 00 00 00	 call	 cckd_read
  00e12	85 c0		 test	 eax, eax
  00e14	7d 05		 jge	 SHORT $LN33@cckd_sf_re

; 4387 :                     goto sf_merge_error;

  00e16	e9 88 08 00 00	 jmp	 $sf_merge_error$113
$LN33@cckd_sf_re:
$LN32@cckd_sf_re:

; 4388 :             }
; 4389 : 
; 4390 :             /* Read `to' l2 table */
; 4391 :             if (cckd->L1tab[to_sfx][i] == 0)

  00e1b	48 63 84 24 80
	00 00 00	 movsxd	 rax, DWORD PTR to_sfx$[rsp]
  00e23	48 63 8c 24 88
	00 00 00	 movsxd	 rcx, DWORD PTR i$[rsp]
  00e2b	48 8b 54 24 78	 mov	 rdx, QWORD PTR cckd$[rsp]
  00e30	48 8b 84 c2 98
	01 00 00	 mov	 rax, QWORD PTR [rdx+rax*8+408]
  00e38	83 3c 88 00	 cmp	 DWORD PTR [rax+rcx*4], 0
  00e3c	75 19		 jne	 SHORT $LN34@cckd_sf_re

; 4392 :                 memset( &to_l2, 0, CCKD_L2TAB_SIZE );

  00e3e	48 8d 84 24 90
	01 00 00	 lea	 rax, QWORD PTR to_l2$[rsp]
  00e46	48 8b f8	 mov	 rdi, rax
  00e49	33 c0		 xor	 eax, eax
  00e4b	b9 00 08 00 00	 mov	 ecx, 2048		; 00000800H
  00e50	f3 aa		 rep stosb
  00e52	e9 96 00 00 00	 jmp	 $LN35@cckd_sf_re
$LN34@cckd_sf_re:

; 4393 :             else if (cckd->L1tab[to_sfx][i] == CCKD_MAXSIZE)

  00e57	48 63 84 24 80
	00 00 00	 movsxd	 rax, DWORD PTR to_sfx$[rsp]
  00e5f	48 63 8c 24 88
	00 00 00	 movsxd	 rcx, DWORD PTR i$[rsp]
  00e67	48 8b 54 24 78	 mov	 rdx, QWORD PTR cckd$[rsp]
  00e6c	48 8b 84 c2 98
	01 00 00	 mov	 rax, QWORD PTR [rdx+rax*8+408]
  00e74	83 3c 88 ff	 cmp	 DWORD PTR [rax+rcx*4], -1 ; ffffffffH
  00e78	75 19		 jne	 SHORT $LN36@cckd_sf_re

; 4394 :                 memset (&to_l2, 0xff, CCKD_L2TAB_SIZE);

  00e7a	48 8d 84 24 90
	01 00 00	 lea	 rax, QWORD PTR to_l2$[rsp]
  00e82	48 8b f8	 mov	 rdi, rax
  00e85	b8 ff 00 00 00	 mov	 eax, 255		; 000000ffH
  00e8a	b9 00 08 00 00	 mov	 ecx, 2048		; 00000800H
  00e8f	f3 aa		 rep stosb
  00e91	eb 5a		 jmp	 SHORT $LN37@cckd_sf_re
$LN36@cckd_sf_re:

; 4395 :             else
; 4396 :             {
; 4397 :                 pos = (off_t)cckd->L1tab[to_sfx][i];

  00e93	48 63 84 24 80
	00 00 00	 movsxd	 rax, DWORD PTR to_sfx$[rsp]
  00e9b	48 63 8c 24 88
	00 00 00	 movsxd	 rcx, DWORD PTR i$[rsp]
  00ea3	48 8b 54 24 78	 mov	 rdx, QWORD PTR cckd$[rsp]
  00ea8	48 8b 84 c2 98
	01 00 00	 mov	 rax, QWORD PTR [rdx+rax*8+408]
  00eb0	8b 04 88	 mov	 eax, DWORD PTR [rax+rcx*4]
  00eb3	48 89 84 24 90
	00 00 00	 mov	 QWORD PTR pos$[rsp], rax

; 4398 :                 if (cckd_read( dev, to_sfx, pos, &to_l2, CCKD_L2TAB_SIZE ) < 0)

  00ebb	c7 44 24 20 00
	08 00 00	 mov	 DWORD PTR [rsp+32], 2048 ; 00000800H
  00ec3	4c 8d 8c 24 90
	01 00 00	 lea	 r9, QWORD PTR to_l2$[rsp]
  00ecb	4c 8b 84 24 90
	00 00 00	 mov	 r8, QWORD PTR pos$[rsp]
  00ed3	8b 94 24 80 00
	00 00		 mov	 edx, DWORD PTR to_sfx$[rsp]
  00eda	48 8b 4c 24 70	 mov	 rcx, QWORD PTR dev$[rsp]
  00edf	e8 00 00 00 00	 call	 cckd_read
  00ee4	85 c0		 test	 eax, eax
  00ee6	7d 05		 jge	 SHORT $LN38@cckd_sf_re

; 4399 :                     goto sf_merge_error;

  00ee8	e9 b6 07 00 00	 jmp	 $sf_merge_error$113
$LN38@cckd_sf_re:
$LN37@cckd_sf_re:
$LN35@cckd_sf_re:

; 4400 :             }
; 4401 : 
; 4402 :             /* Loop for each level 2 table entry */
; 4403 :             for (j = 0; j < 256; j++)

  00eed	c7 84 24 8c 00
	00 00 00 00 00
	00		 mov	 DWORD PTR j$[rsp], 0
  00ef8	eb 10		 jmp	 SHORT $LN12@cckd_sf_re
$LN10@cckd_sf_re:
  00efa	8b 84 24 8c 00
	00 00		 mov	 eax, DWORD PTR j$[rsp]
  00f01	ff c0		 inc	 eax
  00f03	89 84 24 8c 00
	00 00		 mov	 DWORD PTR j$[rsp], eax
$LN12@cckd_sf_re:
  00f0a	81 bc 24 8c 00
	00 00 00 01 00
	00		 cmp	 DWORD PTR j$[rsp], 256	; 00000100H
  00f15	0f 8d 25 02 00
	00		 jge	 $LN11@cckd_sf_re

; 4404 :             {
; 4405 :                 trk = i*256 + j;

  00f1b	69 84 24 88 00
	00 00 00 01 00
	00		 imul	 eax, DWORD PTR i$[rsp], 256 ; 00000100H
  00f26	03 84 24 8c 00
	00 00		 add	 eax, DWORD PTR j$[rsp]
  00f2d	89 84 24 ac 00
	00 00		 mov	 DWORD PTR trk$[rsp], eax

; 4406 :                 /* Continue if from L2 entry doesn't exist */
; 4407 :                 if (from_l2[j].L2_trkoff == CCKD_MAXSIZE
; 4408 :                  || (from_l2[j].L2_trkoff == 0 && to_l2[j].L2_trkoff == 0))

  00f34	48 63 84 24 8c
	00 00 00	 movsxd	 rax, DWORD PTR j$[rsp]
  00f3c	83 bc c4 90 09
	00 00 ff	 cmp	 DWORD PTR from_l2$[rsp+rax*8], -1 ; ffffffffH
  00f44	74 24		 je	 SHORT $LN40@cckd_sf_re
  00f46	48 63 84 24 8c
	00 00 00	 movsxd	 rax, DWORD PTR j$[rsp]
  00f4e	83 bc c4 90 09
	00 00 00	 cmp	 DWORD PTR from_l2$[rsp+rax*8], 0
  00f56	75 14		 jne	 SHORT $LN39@cckd_sf_re
  00f58	48 63 84 24 8c
	00 00 00	 movsxd	 rax, DWORD PTR j$[rsp]
  00f60	83 bc c4 90 01
	00 00 00	 cmp	 DWORD PTR to_l2$[rsp+rax*8], 0
  00f68	75 02		 jne	 SHORT $LN39@cckd_sf_re
$LN40@cckd_sf_re:

; 4409 :                     continue;

  00f6a	eb 8e		 jmp	 SHORT $LN10@cckd_sf_re
$LN39@cckd_sf_re:

; 4410 : 
; 4411 :                 /* Read the `from' track/blkgrp image */
; 4412 :                 len = (int)from_l2[j].L2_len;

  00f6c	48 63 84 24 8c
	00 00 00	 movsxd	 rax, DWORD PTR j$[rsp]
  00f74	0f b7 84 c4 94
	09 00 00	 movzx	 eax, WORD PTR from_l2$[rsp+rax*8+4]
  00f7c	89 84 24 98 00
	00 00		 mov	 DWORD PTR len$[rsp], eax

; 4413 :                 if (len > CKD_NULLTRK_FMTMAX)

  00f83	83 bc 24 98 00
	00 00 02	 cmp	 DWORD PTR len$[rsp], 2
  00f8b	0f 86 ef 00 00
	00		 jbe	 $LN41@cckd_sf_re

; 4414 :                 {
; 4415 :                     pos = (off_t)from_l2[j].L2_trkoff;

  00f91	48 63 84 24 8c
	00 00 00	 movsxd	 rax, DWORD PTR j$[rsp]
  00f99	8b 84 c4 90 09
	00 00		 mov	 eax, DWORD PTR from_l2$[rsp+rax*8]
  00fa0	48 89 84 24 90
	00 00 00	 mov	 QWORD PTR pos$[rsp], rax

; 4416 :                     if (cckd_read( dev, from_sfx, pos, buf, len ) < 0)

  00fa8	8b 84 24 98 00
	00 00		 mov	 eax, DWORD PTR len$[rsp]
  00faf	89 44 24 20	 mov	 DWORD PTR [rsp+32], eax
  00fb3	4c 8d 8c 24 90
	11 00 00	 lea	 r9, QWORD PTR buf$[rsp]
  00fbb	4c 8b 84 24 90
	00 00 00	 mov	 r8, QWORD PTR pos$[rsp]
  00fc3	8b 94 24 84 00
	00 00		 mov	 edx, DWORD PTR from_sfx$[rsp]
  00fca	48 8b 4c 24 70	 mov	 rcx, QWORD PTR dev$[rsp]
  00fcf	e8 00 00 00 00	 call	 cckd_read
  00fd4	85 c0		 test	 eax, eax
  00fd6	7d 05		 jge	 SHORT $LN43@cckd_sf_re

; 4417 :                         goto sf_merge_error;

  00fd8	e9 c6 06 00 00	 jmp	 $sf_merge_error$113
$LN43@cckd_sf_re:

; 4418 : 
; 4419 :                     /* Get space for the `to' track/blkgrp image */
; 4420 :                     size = len;

  00fdd	8b 84 24 98 00
	00 00		 mov	 eax, DWORD PTR len$[rsp]
  00fe4	89 84 24 a8 00
	00 00		 mov	 DWORD PTR size$[rsp], eax

; 4421 :                     if ((pos = cckd_get_space (dev, &size, CCKD_SIZE_EXACT)) < 0)

  00feb	41 b8 01 00 00
	00		 mov	 r8d, 1
  00ff1	48 8d 94 24 a8
	00 00 00	 lea	 rdx, QWORD PTR size$[rsp]
  00ff9	48 8b 4c 24 70	 mov	 rcx, QWORD PTR dev$[rsp]
  00ffe	e8 00 00 00 00	 call	 cckd_get_space
  01003	48 89 84 24 90
	00 00 00	 mov	 QWORD PTR pos$[rsp], rax
  0100b	48 83 bc 24 90
	00 00 00 00	 cmp	 QWORD PTR pos$[rsp], 0
  01014	7d 05		 jge	 SHORT $LN44@cckd_sf_re

; 4422 :                         goto sf_merge_error;

  01016	e9 88 06 00 00	 jmp	 $sf_merge_error$113
$LN44@cckd_sf_re:

; 4423 : 
; 4424 :                     new_l2.L2_trkoff = (U32)pos;

  0101b	8b 84 24 90 00
	00 00		 mov	 eax, DWORD PTR pos$[rsp]
  01022	89 84 24 b0 00
	00 00		 mov	 DWORD PTR new_l2$[rsp], eax

; 4425 :                     new_l2.L2_len    = (U16)len;

  01029	0f b7 84 24 98
	00 00 00	 movzx	 eax, WORD PTR len$[rsp]
  01031	66 89 84 24 b4
	00 00 00	 mov	 WORD PTR new_l2$[rsp+4], ax

; 4426 :                     new_l2.L2_size   = (U16)size;

  01039	0f b7 84 24 a8
	00 00 00	 movzx	 eax, WORD PTR size$[rsp]
  01041	66 89 84 24 b6
	00 00 00	 mov	 WORD PTR new_l2$[rsp+6], ax

; 4427 : 
; 4428 :                     /* Write the `to' track/blkgrp image */
; 4429 :                     if (cckd_write( dev, to_sfx, pos, buf, len ) < 0)

  01049	8b 84 24 98 00
	00 00		 mov	 eax, DWORD PTR len$[rsp]
  01050	89 44 24 20	 mov	 DWORD PTR [rsp+32], eax
  01054	4c 8d 8c 24 90
	11 00 00	 lea	 r9, QWORD PTR buf$[rsp]
  0105c	4c 8b 84 24 90
	00 00 00	 mov	 r8, QWORD PTR pos$[rsp]
  01064	8b 94 24 80 00
	00 00		 mov	 edx, DWORD PTR to_sfx$[rsp]
  0106b	48 8b 4c 24 70	 mov	 rcx, QWORD PTR dev$[rsp]
  01070	e8 00 00 00 00	 call	 cckd_write
  01075	85 c0		 test	 eax, eax
  01077	7d 05		 jge	 SHORT $LN45@cckd_sf_re

; 4430 :                         goto sf_merge_error;

  01079	e9 25 06 00 00	 jmp	 $sf_merge_error$113
$LN45@cckd_sf_re:

; 4431 :                 }

  0107e	eb 2b		 jmp	 SHORT $LN42@cckd_sf_re
$LN41@cckd_sf_re:

; 4432 :                 else
; 4433 :                 {
; 4434 :                     new_l2.L2_trkoff = 0;

  01080	c7 84 24 b0 00
	00 00 00 00 00
	00		 mov	 DWORD PTR new_l2$[rsp], 0

; 4435 :                     new_l2.L2_len = new_l2.L2_size = (U16)len;

  0108b	0f b7 84 24 98
	00 00 00	 movzx	 eax, WORD PTR len$[rsp]
  01093	66 89 84 24 b6
	00 00 00	 mov	 WORD PTR new_l2$[rsp+6], ax
  0109b	0f b7 84 24 b6
	00 00 00	 movzx	 eax, WORD PTR new_l2$[rsp+6]
  010a3	66 89 84 24 b4
	00 00 00	 mov	 WORD PTR new_l2$[rsp+4], ax
$LN42@cckd_sf_re:

; 4436 :                 }
; 4437 : 
; 4438 :                 /* Release space occupied by old `to' entry */
; 4439 :                 cckd_rel_space( dev, (off_t)to_l2[j].L2_trkoff, (int)to_l2[j].L2_len,

  010ab	48 63 84 24 8c
	00 00 00	 movsxd	 rax, DWORD PTR j$[rsp]
  010b3	0f b7 84 c4 96
	01 00 00	 movzx	 eax, WORD PTR to_l2$[rsp+rax*8+6]
  010bb	48 63 8c 24 8c
	00 00 00	 movsxd	 rcx, DWORD PTR j$[rsp]
  010c3	0f b7 8c cc 94
	01 00 00	 movzx	 ecx, WORD PTR to_l2$[rsp+rcx*8+4]
  010cb	48 63 94 24 8c
	00 00 00	 movsxd	 rdx, DWORD PTR j$[rsp]
  010d3	8b 94 d4 90 01
	00 00		 mov	 edx, DWORD PTR to_l2$[rsp+rdx*8]
  010da	44 8b c8	 mov	 r9d, eax
  010dd	44 8b c1	 mov	 r8d, ecx
  010e0	48 8b 4c 24 70	 mov	 rcx, QWORD PTR dev$[rsp]
  010e5	e8 00 00 00 00	 call	 cckd_rel_space

; 4440 :                                                                 (int)to_l2[j].L2_size );
; 4441 : 
; 4442 :                 /* Update `to' l2 table entry */
; 4443 :                 l2updated = 1;

  010ea	c7 84 24 a0 00
	00 00 01 00 00
	00		 mov	 DWORD PTR l2updated$[rsp], 1

; 4444 :                 to_l2[j].L2_trkoff  = new_l2.L2_trkoff;

  010f5	48 63 84 24 8c
	00 00 00	 movsxd	 rax, DWORD PTR j$[rsp]
  010fd	8b 8c 24 b0 00
	00 00		 mov	 ecx, DWORD PTR new_l2$[rsp]
  01104	89 8c c4 90 01
	00 00		 mov	 DWORD PTR to_l2$[rsp+rax*8], ecx

; 4445 :                 to_l2[j].L2_len  = new_l2.L2_len;

  0110b	48 63 84 24 8c
	00 00 00	 movsxd	 rax, DWORD PTR j$[rsp]
  01113	0f b7 8c 24 b4
	00 00 00	 movzx	 ecx, WORD PTR new_l2$[rsp+4]
  0111b	66 89 8c c4 94
	01 00 00	 mov	 WORD PTR to_l2$[rsp+rax*8+4], cx

; 4446 :                 to_l2[j].L2_size = new_l2.L2_size;

  01123	48 63 84 24 8c
	00 00 00	 movsxd	 rax, DWORD PTR j$[rsp]
  0112b	0f b7 8c 24 b6
	00 00 00	 movzx	 ecx, WORD PTR new_l2$[rsp+6]
  01133	66 89 8c c4 96
	01 00 00	 mov	 WORD PTR to_l2$[rsp+rax*8+6], cx

; 4447 :             } /* for each level 2 table entry */

  0113b	e9 ba fd ff ff	 jmp	 $LN10@cckd_sf_re
$LN11@cckd_sf_re:

; 4448 : 
; 4449 :             /* Update the `to' level 2 table */
; 4450 :             if (l2updated)

  01140	83 bc 24 a0 00
	00 00 00	 cmp	 DWORD PTR l2updated$[rsp], 0
  01148	0f 84 50 01 00
	00		 je	 $LN46@cckd_sf_re

; 4451 :             {
; 4452 :                 l2updated = 0;

  0114e	c7 84 24 a0 00
	00 00 00 00 00
	00		 mov	 DWORD PTR l2updated$[rsp], 0

; 4453 :                 pos = (off_t)cckd->L1tab[to_sfx][i];

  01159	48 63 84 24 80
	00 00 00	 movsxd	 rax, DWORD PTR to_sfx$[rsp]
  01161	48 63 8c 24 88
	00 00 00	 movsxd	 rcx, DWORD PTR i$[rsp]
  01169	48 8b 54 24 78	 mov	 rdx, QWORD PTR cckd$[rsp]
  0116e	48 8b 84 c2 98
	01 00 00	 mov	 rax, QWORD PTR [rdx+rax*8+408]
  01176	8b 04 88	 mov	 eax, DWORD PTR [rax+rcx*4]
  01179	48 89 84 24 90
	00 00 00	 mov	 QWORD PTR pos$[rsp], rax

; 4454 :                 if (memcmp( &to_l2, &empty_l2[fix], CCKD_L2TAB_SIZE ) == 0)

  01181	48 63 84 24 14
	01 00 00	 movsxd	 rax, DWORD PTR fix$[rsp]
  01189	48 69 c0 00 08
	00 00		 imul	 rax, rax, 2048		; 00000800H
  01190	48 8d 0d 00 00
	00 00		 lea	 rcx, OFFSET FLAT:empty_l2
  01197	48 03 c8	 add	 rcx, rax
  0119a	48 8b c1	 mov	 rax, rcx
  0119d	41 b8 00 08 00
	00		 mov	 r8d, 2048		; 00000800H
  011a3	48 8b d0	 mov	 rdx, rax
  011a6	48 8d 8c 24 90
	01 00 00	 lea	 rcx, QWORD PTR to_l2$[rsp]
  011ae	e8 00 00 00 00	 call	 memcmp
  011b3	85 c0		 test	 eax, eax
  011b5	75 2f		 jne	 SHORT $LN47@cckd_sf_re

; 4455 :                 {
; 4456 :                     cckd_rel_space( dev, pos, CCKD_L2TAB_SIZE, CCKD_L2TAB_SIZE );

  011b7	41 b9 00 08 00
	00		 mov	 r9d, 2048		; 00000800H
  011bd	41 b8 00 08 00
	00		 mov	 r8d, 2048		; 00000800H
  011c3	48 8b 94 24 90
	00 00 00	 mov	 rdx, QWORD PTR pos$[rsp]
  011cb	48 8b 4c 24 70	 mov	 rcx, QWORD PTR dev$[rsp]
  011d0	e8 00 00 00 00	 call	 cckd_rel_space

; 4457 :                     pos = 0;

  011d5	48 c7 84 24 90
	00 00 00 00 00
	00 00		 mov	 QWORD PTR pos$[rsp], 0

; 4458 :                 }

  011e1	e9 87 00 00 00	 jmp	 $LN48@cckd_sf_re
$LN47@cckd_sf_re:

; 4459 :                 else
; 4460 :                 {
; 4461 :                     size = CCKD_L2TAB_SIZE;

  011e6	c7 84 24 a8 00
	00 00 00 08 00
	00		 mov	 DWORD PTR size$[rsp], 2048 ; 00000800H

; 4462 :                     if (pos == CCKD_NOSIZE || pos == CCKD_MAXSIZE)

  011f1	48 83 bc 24 90
	00 00 00 00	 cmp	 QWORD PTR pos$[rsp], 0
  011fa	74 0f		 je	 SHORT $LN50@cckd_sf_re
  011fc	b8 ff ff ff ff	 mov	 eax, -1
  01201	48 39 84 24 90
	00 00 00	 cmp	 QWORD PTR pos$[rsp], rax
  01209	75 30		 jne	 SHORT $LN49@cckd_sf_re
$LN50@cckd_sf_re:

; 4463 :                         if ((pos = cckd_get_space( dev, &size, CCKD_L2SPACE )) < 0)

  0120b	41 b8 04 00 00
	00		 mov	 r8d, 4
  01211	48 8d 94 24 a8
	00 00 00	 lea	 rdx, QWORD PTR size$[rsp]
  01219	48 8b 4c 24 70	 mov	 rcx, QWORD PTR dev$[rsp]
  0121e	e8 00 00 00 00	 call	 cckd_get_space
  01223	48 89 84 24 90
	00 00 00	 mov	 QWORD PTR pos$[rsp], rax
  0122b	48 83 bc 24 90
	00 00 00 00	 cmp	 QWORD PTR pos$[rsp], 0
  01234	7d 05		 jge	 SHORT $LN51@cckd_sf_re

; 4464 :                             goto sf_merge_error;

  01236	e9 68 04 00 00	 jmp	 $sf_merge_error$113
$LN51@cckd_sf_re:
$LN49@cckd_sf_re:

; 4465 :                     if (cckd_write( dev, to_sfx, pos, &to_l2, CCKD_L2TAB_SIZE ) < 0)

  0123b	c7 44 24 20 00
	08 00 00	 mov	 DWORD PTR [rsp+32], 2048 ; 00000800H
  01243	4c 8d 8c 24 90
	01 00 00	 lea	 r9, QWORD PTR to_l2$[rsp]
  0124b	4c 8b 84 24 90
	00 00 00	 mov	 r8, QWORD PTR pos$[rsp]
  01253	8b 94 24 80 00
	00 00		 mov	 edx, DWORD PTR to_sfx$[rsp]
  0125a	48 8b 4c 24 70	 mov	 rcx, QWORD PTR dev$[rsp]
  0125f	e8 00 00 00 00	 call	 cckd_write
  01264	85 c0		 test	 eax, eax
  01266	7d 05		 jge	 SHORT $LN52@cckd_sf_re

; 4466 :                         goto sf_merge_error;

  01268	e9 36 04 00 00	 jmp	 $sf_merge_error$113
$LN52@cckd_sf_re:
$LN48@cckd_sf_re:

; 4467 :                 } /* `to' level 2 table not null */
; 4468 : 
; 4469 :                 /* Update the level 1 table index */
; 4470 :                 cckd->L1tab[to_sfx][i] = (U32)pos;

  0126d	48 63 84 24 80
	00 00 00	 movsxd	 rax, DWORD PTR to_sfx$[rsp]
  01275	48 63 8c 24 88
	00 00 00	 movsxd	 rcx, DWORD PTR i$[rsp]
  0127d	48 8b 54 24 78	 mov	 rdx, QWORD PTR cckd$[rsp]
  01282	48 8b 84 c2 98
	01 00 00	 mov	 rax, QWORD PTR [rdx+rax*8+408]
  0128a	8b 94 24 90 00
	00 00		 mov	 edx, DWORD PTR pos$[rsp]
  01291	89 14 88	 mov	 DWORD PTR [rax+rcx*4], edx

; 4471 : 
; 4472 :                 /* Flush free space */
; 4473 :                 cckd_flush_space( dev );

  01294	48 8b 4c 24 70	 mov	 rcx, QWORD PTR dev$[rsp]
  01299	e8 00 00 00 00	 call	 cckd_flush_space
$LN46@cckd_sf_re:

; 4474 : 
; 4475 :             } /* Update level 2 table */
; 4476 : 
; 4477 :         } /* For each level 1 table entry */

  0129e	e9 22 fa ff ff	 jmp	 $LN7@cckd_sf_re
$LN8@cckd_sf_re:

; 4478 : 
; 4479 :         /* Validate the merge */
; 4480 :         cckd_harden( dev );

  012a3	48 8b 4c 24 70	 mov	 rcx, QWORD PTR dev$[rsp]
  012a8	e8 00 00 00 00	 call	 cckd_harden

; 4481 :         cckd_chkdsk( dev, 0 );

  012ad	33 d2		 xor	 edx, edx
  012af	48 8b 4c 24 70	 mov	 rcx, QWORD PTR dev$[rsp]
  012b4	e8 00 00 00 00	 call	 cckd_chkdsk

; 4482 :         cckd_read_init( dev );

  012b9	48 8b 4c 24 70	 mov	 rcx, QWORD PTR dev$[rsp]
  012be	e8 00 00 00 00	 call	 cckd_read_init
$LN28@cckd_sf_re:

; 4483 : 
; 4484 :     } /* if merge */
; 4485 : 
; 4486 :     /* Remove the old file */
; 4487 :     cckd_close( dev, from_sfx );

  012c3	8b 94 24 84 00
	00 00		 mov	 edx, DWORD PTR from_sfx$[rsp]
  012ca	48 8b 4c 24 70	 mov	 rcx, QWORD PTR dev$[rsp]
  012cf	e8 00 00 00 00	 call	 cckd_close

; 4488 :     cckd->L1tab[from_sfx] = cckd_free( dev, "l1", cckd->L1tab[ from_sfx ]);

  012d4	48 63 84 24 84
	00 00 00	 movsxd	 rax, DWORD PTR from_sfx$[rsp]
  012dc	48 8b 4c 24 78	 mov	 rcx, QWORD PTR cckd$[rsp]
  012e1	4c 8b 84 c1 98
	01 00 00	 mov	 r8, QWORD PTR [rcx+rax*8+408]
  012e9	48 8d 15 00 00
	00 00		 lea	 rdx, OFFSET FLAT:$SG171983
  012f0	48 8b 4c 24 70	 mov	 rcx, QWORD PTR dev$[rsp]
  012f5	e8 00 00 00 00	 call	 cckd_free
  012fa	48 63 8c 24 84
	00 00 00	 movsxd	 rcx, DWORD PTR from_sfx$[rsp]
  01302	48 8b 54 24 78	 mov	 rdx, QWORD PTR cckd$[rsp]
  01307	48 89 84 ca 98
	01 00 00	 mov	 QWORD PTR [rdx+rcx*8+408], rax

; 4489 :     memset( &cckd->cdevhdr[from_sfx], 0, CCKD_DEVHDR_SIZE );

  0130f	48 63 84 24 84
	00 00 00	 movsxd	 rax, DWORD PTR from_sfx$[rsp]
  01317	48 69 c0 00 02
	00 00		 imul	 rax, rax, 512		; 00000200H
  0131e	48 8b 4c 24 78	 mov	 rcx, QWORD PTR cckd$[rsp]
  01323	48 8d 84 01 e0
	01 00 00	 lea	 rax, QWORD PTR [rcx+rax+480]
  0132b	48 8b f8	 mov	 rdi, rax
  0132e	33 c0		 xor	 eax, eax
  01330	b9 00 02 00 00	 mov	 ecx, 512		; 00000200H
  01335	f3 aa		 rep stosb

; 4490 :     rc = unlink (cckd_sf_name (dev, from_sfx));

  01337	8b 94 24 84 00
	00 00		 mov	 edx, DWORD PTR from_sfx$[rsp]
  0133e	48 8b 4c 24 70	 mov	 rcx, QWORD PTR dev$[rsp]
  01343	e8 00 00 00 00	 call	 cckd_sf_name
  01348	48 8b c8	 mov	 rcx, rax
  0134b	ff 15 00 00 00
	00		 call	 QWORD PTR __imp_unlink
  01351	89 84 24 18 01
	00 00		 mov	 DWORD PTR rc$[rsp], eax

; 4491 : 
; 4492 :     /* adjust the stats */
; 4493 :     cckd->reads   [to_sfx] += cckd->reads   [from_sfx];

  01358	48 63 84 24 80
	00 00 00	 movsxd	 rax, DWORD PTR to_sfx$[rsp]
  01360	48 63 8c 24 84
	00 00 00	 movsxd	 rcx, DWORD PTR from_sfx$[rsp]
  01368	48 8b 54 24 78	 mov	 rdx, QWORD PTR cckd$[rsp]
  0136d	8b 84 82 28 01
	00 00		 mov	 eax, DWORD PTR [rdx+rax*4+296]
  01374	48 8b 54 24 78	 mov	 rdx, QWORD PTR cckd$[rsp]
  01379	03 84 8a 28 01
	00 00		 add	 eax, DWORD PTR [rdx+rcx*4+296]
  01380	48 63 8c 24 80
	00 00 00	 movsxd	 rcx, DWORD PTR to_sfx$[rsp]
  01388	48 8b 54 24 78	 mov	 rdx, QWORD PTR cckd$[rsp]
  0138d	89 84 8a 28 01
	00 00		 mov	 DWORD PTR [rdx+rcx*4+296], eax

; 4494 :     cckd->writes  [to_sfx] += cckd->writes  [from_sfx];

  01394	48 63 84 24 80
	00 00 00	 movsxd	 rax, DWORD PTR to_sfx$[rsp]
  0139c	48 63 8c 24 84
	00 00 00	 movsxd	 rcx, DWORD PTR from_sfx$[rsp]
  013a4	48 8b 54 24 78	 mov	 rdx, QWORD PTR cckd$[rsp]
  013a9	8b 84 82 70 01
	00 00		 mov	 eax, DWORD PTR [rdx+rax*4+368]
  013b0	48 8b 54 24 78	 mov	 rdx, QWORD PTR cckd$[rsp]
  013b5	03 84 8a 70 01
	00 00		 add	 eax, DWORD PTR [rdx+rcx*4+368]
  013bc	48 63 8c 24 80
	00 00 00	 movsxd	 rcx, DWORD PTR to_sfx$[rsp]
  013c4	48 8b 54 24 78	 mov	 rdx, QWORD PTR cckd$[rsp]
  013c9	89 84 8a 70 01
	00 00		 mov	 DWORD PTR [rdx+rcx*4+368], eax

; 4495 :     cckd->L2_reads[to_sfx] += cckd->L2_reads[from_sfx];

  013d0	48 63 84 24 80
	00 00 00	 movsxd	 rax, DWORD PTR to_sfx$[rsp]
  013d8	48 63 8c 24 84
	00 00 00	 movsxd	 rcx, DWORD PTR from_sfx$[rsp]
  013e0	48 8b 54 24 78	 mov	 rdx, QWORD PTR cckd$[rsp]
  013e5	8b 84 82 4c 01
	00 00		 mov	 eax, DWORD PTR [rdx+rax*4+332]
  013ec	48 8b 54 24 78	 mov	 rdx, QWORD PTR cckd$[rsp]
  013f1	03 84 8a 4c 01
	00 00		 add	 eax, DWORD PTR [rdx+rcx*4+332]
  013f8	48 63 8c 24 80
	00 00 00	 movsxd	 rcx, DWORD PTR to_sfx$[rsp]
  01400	48 8b 54 24 78	 mov	 rdx, QWORD PTR cckd$[rsp]
  01405	89 84 8a 4c 01
	00 00		 mov	 DWORD PTR [rdx+rcx*4+332], eax

; 4496 : 
; 4497 :     cckd->reads   [from_sfx] = 0;

  0140c	48 63 84 24 84
	00 00 00	 movsxd	 rax, DWORD PTR from_sfx$[rsp]
  01414	48 8b 4c 24 78	 mov	 rcx, QWORD PTR cckd$[rsp]
  01419	c7 84 81 28 01
	00 00 00 00 00
	00		 mov	 DWORD PTR [rcx+rax*4+296], 0

; 4498 :     cckd->writes  [from_sfx] = 0;

  01424	48 63 84 24 84
	00 00 00	 movsxd	 rax, DWORD PTR from_sfx$[rsp]
  0142c	48 8b 4c 24 78	 mov	 rcx, QWORD PTR cckd$[rsp]
  01431	c7 84 81 70 01
	00 00 00 00 00
	00		 mov	 DWORD PTR [rcx+rax*4+368], 0

; 4499 :     cckd->L2_reads[from_sfx] = 0;

  0143c	48 63 84 24 84
	00 00 00	 movsxd	 rax, DWORD PTR from_sfx$[rsp]
  01444	48 8b 4c 24 78	 mov	 rcx, QWORD PTR cckd$[rsp]
  01449	c7 84 81 4c 01
	00 00 00 00 00
	00		 mov	 DWORD PTR [rcx+rax*4+332], 0

; 4500 : 
; 4501 :     /* Add the file back if necessary */
; 4502 :     if (add) rc = cckd_sf_new( dev ) ;

  01454	83 bc 24 bc 00
	00 00 00	 cmp	 DWORD PTR add$[rsp], 0
  0145c	74 11		 je	 SHORT $LN53@cckd_sf_re
  0145e	48 8b 4c 24 70	 mov	 rcx, QWORD PTR dev$[rsp]
  01463	e8 00 00 00 00	 call	 cckd_sf_new
  01468	89 84 24 18 01
	00 00		 mov	 DWORD PTR rc$[rsp], eax
$LN53@cckd_sf_re:

; 4503 : 
; 4504 :     // "%1d:%04X CCKD file[%d] %s: shadow file successfully %s"
; 4505 :     WRMSG( HHC00325, "I", LCSS_DEVNUM, from_sfx, cckd_sf_name( dev, from_sfx ),

  0146f	83 bc 24 9c 00
	00 00 00	 cmp	 DWORD PTR merge$[rsp], 0
  01477	74 11		 je	 SHORT $LN97@cckd_sf_re
  01479	48 8d 05 00 00
	00 00		 lea	 rax, OFFSET FLAT:$SG171985
  01480	48 89 84 24 40
	01 00 00	 mov	 QWORD PTR tv810[rsp], rax
  01488	eb 3a		 jmp	 SHORT $LN98@cckd_sf_re
$LN97@cckd_sf_re:
  0148a	83 bc 24 bc 00
	00 00 00	 cmp	 DWORD PTR add$[rsp], 0
  01492	74 11		 je	 SHORT $LN95@cckd_sf_re
  01494	48 8d 05 00 00
	00 00		 lea	 rax, OFFSET FLAT:$SG171986
  0149b	48 89 84 24 38
	01 00 00	 mov	 QWORD PTR tv808[rsp], rax
  014a3	eb 0f		 jmp	 SHORT $LN96@cckd_sf_re
$LN95@cckd_sf_re:
  014a5	48 8d 05 00 00
	00 00		 lea	 rax, OFFSET FLAT:$SG171987
  014ac	48 89 84 24 38
	01 00 00	 mov	 QWORD PTR tv808[rsp], rax
$LN96@cckd_sf_re:
  014b4	48 8b 84 24 38
	01 00 00	 mov	 rax, QWORD PTR tv808[rsp]
  014bc	48 89 84 24 40
	01 00 00	 mov	 QWORD PTR tv810[rsp], rax
$LN98@cckd_sf_re:
  014c4	48 83 7c 24 70
	00		 cmp	 QWORD PTR dev$[rsp], 0
  014ca	74 12		 je	 SHORT $LN99@cckd_sf_re
  014cc	48 8b 44 24 70	 mov	 rax, QWORD PTR dev$[rsp]
  014d1	0f b7 40 48	 movzx	 eax, WORD PTR [rax+72]
  014d5	89 84 24 ec 00
	00 00		 mov	 DWORD PTR tv820[rsp], eax
  014dc	eb 0b		 jmp	 SHORT $LN100@cckd_sf_re
$LN99@cckd_sf_re:
  014de	c7 84 24 ec 00
	00 00 00 00 00
	00		 mov	 DWORD PTR tv820[rsp], 0
$LN100@cckd_sf_re:
  014e9	48 83 7c 24 70
	00		 cmp	 QWORD PTR dev$[rsp], 0
  014ef	74 14		 je	 SHORT $LN101@cckd_sf_re
  014f1	48 8b 44 24 70	 mov	 rax, QWORD PTR dev$[rsp]
  014f6	0f b7 40 44	 movzx	 eax, WORD PTR [rax+68]
  014fa	d1 f8		 sar	 eax, 1
  014fc	89 84 24 f0 00
	00 00		 mov	 DWORD PTR tv826[rsp], eax
  01503	eb 0b		 jmp	 SHORT $LN102@cckd_sf_re
$LN101@cckd_sf_re:
  01505	c7 84 24 f0 00
	00 00 00 00 00
	00		 mov	 DWORD PTR tv826[rsp], 0
$LN102@cckd_sf_re:
  01510	8b 94 24 84 00
	00 00		 mov	 edx, DWORD PTR from_sfx$[rsp]
  01517	48 8b 4c 24 70	 mov	 rcx, QWORD PTR dev$[rsp]
  0151c	e8 00 00 00 00	 call	 cckd_sf_name
  01521	48 89 84 24 70
	01 00 00	 mov	 QWORD PTR tv812[rsp], rax
  01529	b9 01 00 00 00	 mov	 ecx, 1
  0152e	ff 15 00 00 00
	00		 call	 QWORD PTR __imp___acrt_iob_func
  01534	48 8b 8c 24 40
	01 00 00	 mov	 rcx, QWORD PTR tv810[rsp]
  0153c	48 89 4c 24 58	 mov	 QWORD PTR [rsp+88], rcx
  01541	48 8b 8c 24 70
	01 00 00	 mov	 rcx, QWORD PTR tv812[rsp]
  01549	48 89 4c 24 50	 mov	 QWORD PTR [rsp+80], rcx
  0154e	8b 8c 24 84 00
	00 00		 mov	 ecx, DWORD PTR from_sfx$[rsp]
  01555	89 4c 24 48	 mov	 DWORD PTR [rsp+72], ecx
  01559	8b 8c 24 ec 00
	00 00		 mov	 ecx, DWORD PTR tv820[rsp]
  01560	89 4c 24 40	 mov	 DWORD PTR [rsp+64], ecx
  01564	8b 8c 24 f0 00
	00 00		 mov	 ecx, DWORD PTR tv826[rsp]
  0156b	89 4c 24 38	 mov	 DWORD PTR [rsp+56], ecx
  0156f	48 8d 0d 00 00
	00 00		 lea	 rcx, OFFSET FLAT:$SG171988
  01576	48 89 4c 24 30	 mov	 QWORD PTR [rsp+48], rcx
  0157b	48 8d 0d 00 00
	00 00		 lea	 rcx, OFFSET FLAT:$SG171989
  01582	48 89 4c 24 28	 mov	 QWORD PTR [rsp+40], rcx
  01587	48 89 44 24 20	 mov	 QWORD PTR [rsp+32], rax
  0158c	41 b9 03 00 00
	00		 mov	 r9d, 3
  01592	4c 8d 05 00 00
	00 00		 lea	 r8, OFFSET FLAT:$SG171990
  01599	ba 9a 11 00 00	 mov	 edx, 4506		; 0000119aH
  0159e	48 8d 0d 00 00
	00 00		 lea	 rcx, OFFSET FLAT:$SG171991
  015a5	ff 15 00 00 00
	00		 call	 QWORD PTR __imp_fwritemsg
$sf_remove_exit$112:

; 4506 :                    merge ? "merged" : add ? "re-added" : "removed" );
; 4507 : 
; 4508 : sf_remove_exit:
; 4509 : 
; 4510 :     /* Re-read the l1 to set L2_bounds, L2ok */
; 4511 :     cckd_read_l1( dev );

  015ab	48 8b 4c 24 70	 mov	 rcx, QWORD PTR dev$[rsp]
  015b0	e8 00 00 00 00	 call	 cckd_read_l1

; 4512 : 
; 4513 :     release_lock( &cckd->filelock );

  015b5	48 8b 44 24 78	 mov	 rax, QWORD PTR cckd$[rsp]
  015ba	48 83 c0 10	 add	 rax, 16
  015be	48 8d 15 00 00
	00 00		 lea	 rdx, OFFSET FLAT:$SG171992
  015c5	48 8b c8	 mov	 rcx, rax
  015c8	ff 15 00 00 00
	00		 call	 QWORD PTR __imp_hthread_release_lock

; 4514 : 
; 4515 :     obtain_lock( &cckd->cckdiolock );

  015ce	48 8b 44 24 78	 mov	 rax, QWORD PTR cckd$[rsp]
  015d3	48 83 c0 18	 add	 rax, 24
  015d7	48 8d 15 00 00
	00 00		 lea	 rdx, OFFSET FLAT:$SG171993
  015de	48 8b c8	 mov	 rcx, rax
  015e1	ff 15 00 00 00
	00		 call	 QWORD PTR __imp_hthread_obtain_lock

; 4516 :     {
