; Listing generated by Microsoft (R) Optimizing Compiler Version 19.34.31937.0 

include listing.inc

INCLUDELIB MSVCRTD
INCLUDELIB OLDNAMES

_DATA	SEGMENT
$SG168659 DB	'none', 00H
	ORG $+3
$SG168660 DB	'zlib', 00H
	ORG $+3
$SG168661 DB	'bzip2', 00H
	ORG $+2
$SG168668 DB	'none', 00H
	ORG $+3
$SG168669 DB	'devhdr', 00H
	ORG $+1
$SG168670 DB	'cdevhdr', 00H
$SG168671 DB	'l1', 00H
	ORG $+1
$SG168672 DB	'l2', 00H
	ORG $+1
$SG168673 DB	'trk', 00H
$SG168674 DB	'blkgrp', 00H
	ORG $+1
$SG168675 DB	'free', 00H
	ORG $+3
$SG168676 DB	'eof', 00H
$SG168677 DB	'L2LOWER', 00H
$SG168678 DB	'L2UPPER', 00H
$SG168679 DB	'data', 00H
	ORG $+3
$SG168680 DB	'unknown', 00H
_DATA	ENDS
CONST	SEGMENT
CKD_ENDTRK DB	0ffH
	DB	0ffH
	DB	0ffH
	DB	0ffH
	DB	0ffH
	DB	0ffH
	DB	0ffH
	DB	0ffH
VOL1_KEYA DB	056H
	DB	04fH
	DB	04cH
	DB	031H
VOL1_KEY DB	0e5H
	DB	0d6H
	DB	0d3H
	DB	0f1H
IPL1_KEY DB	0c9H
	DB	0d7H
	DB	0d3H
	DB	0f1H
IPL2_KEY DB	0c9H
	DB	0d7H
	DB	0d3H
	DB	0f2H
iplpsw	DB	00H
	DB	00H
	DB	00H
	DB	00H
	DB	00H
	DB	00H
	DB	00H
	DB	00H
iplccw1	DB	06H
	DB	00H
	DB	03aH
	DB	098H
	DB	060H
	DB	00H
	DB	00H
	DB	060H
iplccw2	DB	08H
	DB	00H
	DB	03aH
	DB	098H
	DB	00H
	DB	00H
	DB	00H
	DB	00H
noiplpsw DB	00H
	DB	02H
	DB	00H
	DB	00H
	DB	00H
	DB	00H
	DB	00H
	DB	0fH
noiplccw1 DB	03H
	DB	00H
	DB	00H
	DB	00H
	DB	00H
	DB	00H
	DB	00H
	DB	01H
noiplccw2 DB	00H
	DB	00H
	DB	00H
	DB	00H
	DB	00H
	DB	00H
	DB	00H
	DB	00H
ipl2data DB	07H
	DB	00H
	DB	03aH
	DB	0b8H
	DB	040H
	DB	00H
	DB	00H
	DB	06H
	DB	031H
	DB	00H
	DB	03aH
	DB	0beH
	DB	040H
	DB	00H
	DB	00H
	DB	05H
	DB	08H
	DB	00H
	DB	03aH
	DB	0a0H
	DB	00H
	DB	00H
	DB	00H
	DB	00H
	DB	06H
	DB	00H
	DB	00H
	DB	00H
	DB	020H
	DB	00H
	DB	07fH
	DB	0ffH
	DB	00H
	DB	00H
	DB	00H
	DB	00H
	DB	00H
	DB	00H
	DB	00H
	DB	00H
	DB	00H
	DB	00H
	DB	04H
CONST	ENDS
PUBLIC	__local_stdio_printf_options
PUBLIC	_vsnprintf_l
PUBLIC	_vsprintf_l
PUBLIC	_vsnprintf_s_l
PUBLIC	_vsnprintf_s
PUBLIC	sprintf
PUBLIC	fetch_hw_noswap
PUBLIC	fetch_fw_noswap
PUBLIC	comp_to_str
PUBLIC	spc_typ_to_str
PUBLIC	cckd_swapend
PUBLIC	cckd_swapend_chdr
PUBLIC	cckd_swapend_l1
PUBLIC	cckd_swapend_l2
PUBLIC	cckd_swapend_free
PUBLIC	cckd_def_opt_bigend
PUBLIC	cckd_comp
PUBLIC	cckd_chkdsk
PUBLIC	cdsk_valid_trk
EXTRN	__report_rangecheckfailure:PROC
EXTRN	__imp__errno:PROC
EXTRN	__imp_IsDebuggerPresent:PROC
EXTRN	__imp_OutputDebugStringA:PROC
EXTRN	__imp_calloc:PROC
EXTRN	__imp_free:PROC
EXTRN	__imp_malloc:PROC
EXTRN	__imp_qsort:PROC
EXTRN	_byteswap_ushort:PROC
EXTRN	_byteswap_ulong:PROC
EXTRN	__imp__chsize_s:PROC
EXTRN	__imp__lseeki64:PROC
EXTRN	__imp_read:PROC
EXTRN	__imp_write:PROC
EXTRN	__imp___acrt_iob_func:PROC
EXTRN	__imp___stdio_common_vsprintf:PROC
EXTRN	__imp___stdio_common_vsnprintf_s:PROC
EXTRN	__imp__fstat64:PROC
EXTRN	__imp_w32_strerror:PROC
EXTRN	__imp_get_file_accmode_flags:PROC
EXTRN	__imp_w32_snprintf:PROC
EXTRN	__imp_w32_fprintf:PROC
EXTRN	dasd_lookup:PROC
EXTRN	cckd64_swapend:PROC
EXTRN	cckd64_comp:PROC
EXTRN	cckd64_chkdsk:PROC
EXTRN	__imp_fwritemsg:PROC
EXTRN	__imp_logmsg:PROC
EXTRN	dh_devid_typ:PROC
EXTRN	__GSHandlerCheck:PROC
EXTRN	__chkstk:PROC
EXTRN	__security_check_cookie:PROC
EXTRN	memcmp:PROC
EXTRN	__imp_extgui:DWORD
EXTRN	__security_cookie:QWORD
_DATA	SEGMENT
COMM	?_OptionsStorage@?1??__local_stdio_printf_options@@9@9:QWORD							; `__local_stdio_printf_options'::`2'::_OptionsStorage
_DATA	ENDS
;	COMDAT pdata
pdata	SEGMENT
$pdata$_vsnprintf_l DD imagerel $LN5
	DD	imagerel $LN5+118
	DD	imagerel $unwind$_vsnprintf_l
pdata	ENDS
;	COMDAT pdata
pdata	SEGMENT
$pdata$_vsprintf_l DD imagerel $LN3
	DD	imagerel $LN3+66
	DD	imagerel $unwind$_vsprintf_l
pdata	ENDS
;	COMDAT pdata
pdata	SEGMENT
$pdata$_vsnprintf_s_l DD imagerel $LN5
	DD	imagerel $LN5+127
	DD	imagerel $unwind$_vsnprintf_s_l
pdata	ENDS
;	COMDAT pdata
pdata	SEGMENT
$pdata$_vsnprintf_s DD imagerel $LN3
	DD	imagerel $LN3+73
	DD	imagerel $unwind$_vsnprintf_s
pdata	ENDS
;	COMDAT pdata
pdata	SEGMENT
$pdata$sprintf DD imagerel $LN3
	DD	imagerel $LN3+79
	DD	imagerel $unwind$sprintf
pdata	ENDS
pdata	SEGMENT
$pdata$DebuggerTrace DD imagerel DebuggerTrace
	DD	imagerel DebuggerTrace+247
	DD	imagerel $unwind$DebuggerTrace
pdata	ENDS
;	COMDAT pdata
pdata	SEGMENT
$pdata$fetch_hw_noswap DD imagerel $LN3
	DD	imagerel $LN3+30
	DD	imagerel $unwind$fetch_hw_noswap
pdata	ENDS
;	COMDAT pdata
pdata	SEGMENT
$pdata$fetch_fw_noswap DD imagerel $LN3
	DD	imagerel $LN3+27
	DD	imagerel $unwind$fetch_fw_noswap
pdata	ENDS
pdata	SEGMENT
$pdata$comp_to_str DD imagerel $LN5
	DD	imagerel $LN5+61
	DD	imagerel $unwind$comp_to_str
$pdata$spc_typ_to_str DD imagerel $LN5
	DD	imagerel $LN5+61
	DD	imagerel $unwind$spc_typ_to_str
$pdata$cckd_swapend DD imagerel $LN123
	DD	imagerel $LN123+5857
	DD	imagerel $unwind$cckd_swapend
$pdata$cckd_swapend_chdr DD imagerel $LN3
	DD	imagerel $LN3+246
	DD	imagerel $unwind$cckd_swapend_chdr
$pdata$cckd_swapend_l1 DD imagerel $LN6
	DD	imagerel $LN6+81
	DD	imagerel $unwind$cckd_swapend_l1
$pdata$cckd_swapend_l2 DD imagerel $LN6
	DD	imagerel $LN6+147
	DD	imagerel $unwind$cckd_swapend_l2
$pdata$cckd_swapend_free DD imagerel $LN3
	DD	imagerel $LN3+54
	DD	imagerel $unwind$cckd_swapend_free
$pdata$cckd_def_opt_bigend DD imagerel $LN5
	DD	imagerel $LN5+55
	DD	imagerel $unwind$cckd_def_opt_bigend
$pdata$cckd_comp DD imagerel $LN274
	DD	imagerel $LN274+14545
	DD	imagerel $unwind$cckd_comp
$pdata$cckd_chkdsk DD imagerel $LN825
	DD	imagerel $LN825+45311
	DD	imagerel $unwind$cckd_chkdsk
$pdata$cdsk_valid_trk DD imagerel $LN29
	DD	imagerel $LN29+910
	DD	imagerel $unwind$cdsk_valid_trk
$pdata$comp_spctab_sort DD imagerel comp_spctab_sort
	DD	imagerel comp_spctab_sort+153
	DD	imagerel $unwind$comp_spctab_sort
$pdata$cdsk_spctab_sort DD imagerel cdsk_spctab_sort
	DD	imagerel cdsk_spctab_sort+153
	DD	imagerel $unwind$cdsk_spctab_sort
$pdata$cdsk_build_free_space DD imagerel cdsk_build_free_space
	DD	imagerel cdsk_build_free_space+506
	DD	imagerel $unwind$cdsk_build_free_space
pdata	ENDS
_DATA	SEGMENT
?comp_types@?1??comp_to_str@@9@9 DQ FLAT:$SG168659	; `comp_to_str'::`2'::comp_types
	DQ	FLAT:$SG168660
	DQ	FLAT:$SG168661
$SG168662 DB	'?????', 00H
	ORG $+2
?spc_types@?1??spc_typ_to_str@@9@9 DQ FLAT:$SG168668	; `spc_typ_to_str'::`2'::spc_types
	DQ	FLAT:$SG168669
	DQ	FLAT:$SG168670
	DQ	FLAT:$SG168671
	DQ	FLAT:$SG168672
	DQ	FLAT:$SG168673
	DQ	FLAT:$SG168674
	DQ	FLAT:$SG168675
	DQ	FLAT:$SG168676
	DQ	FLAT:$SG168677
	DQ	FLAT:$SG168678
	DQ	FLAT:$SG168679
	DQ	FLAT:$SG168680
$SG168681 DB	'???????', 00H
$SG168774 DB	'SIZE=%llu', 0aH, 00H
	ORG $+1
$SG168835 DB	'E', 00H
	ORG $+2
$SG168777 DB	'POS=%llu', 0aH, 00H
	ORG $+2
$SG168840 DB	'E', 00H
	ORG $+2
$SG168781 DB	'POS=%llu', 0aH, 00H
	ORG $+2
$SG168847 DB	'E', 00H
	ORG $+2
$SG168787 DB	'POS=%llu', 0aH, 00H
	ORG $+2
$SG168852 DB	'E', 00H
	ORG $+2
$SG168791 DB	'POS=%llu', 0aH, 00H
	ORG $+2
$SG168859 DB	'read()', 00H
	ORG $+1
$SG168860 DB	'E', 00H
	ORG $+2
$SG168798 DB	'POS=%llu', 0aH, 00H
	ORG $+2
$SG168865 DB	'read()', 00H
	ORG $+1
$SG168866 DB	'E', 00H
	ORG $+2
$SG168802 DB	'POS=%llu', 0aH, 00H
	ORG $+2
$SG168874 DB	'E', 00H
	ORG $+2
$SG168807 DB	'POS=%llu', 0aH, 00H
	ORG $+2
$SG168880 DB	'E', 00H
	ORG $+2
$SG168811 DB	'FREE_BLK', 00H
	ORG $+3
$SG168887 DB	'E', 00H
	ORG $+2
$SG168815 DB	'POS=%llu', 0aH, 00H
	ORG $+2
$SG168891 DB	'E', 00H
	ORG $+2
$SG168819 DB	'POS=%llu', 0aH, 00H
	ORG $+2
$SG169169 DB	'E', 00H
	ORG $+2
$SG168825 DB	'POS=%llu', 0aH, 00H
	ORG $+2
$SG169173 DB	'E', 00H
	ORG $+2
$SG168829 DB	'POS=%llu', 0aH, 00H
	ORG $+2
$SG169186 DB	'I', 00H
	ORG $+2
$SG168834 DB	'fstat()', 00H
$SG168836 DB	'HHC00354%s %1d:%04X CCKD file %s: error in function %s: '
	DB	'%s', 0aH, 00H
$SG169192 DB	'I', 00H
	ORG $+2
$SG168837 DB	'cckd_swapend', 00H
	ORG $+3
$SG168838 DB	'cckdutil.c', 00H
	ORG $+1
$SG169229 DB	'I', 00H
	ORG $+2
$SG168839 DB	'fstat()', 00H
$SG168841 DB	'HHC00354%s %1d:%04X CCKD file %s: error in function %s: '
	DB	'%s', 0aH, 00H
$SG169233 DB	'I', 00H
	ORG $+2
$SG168842 DB	'cckd_swapend', 00H
	ORG $+3
$SG168843 DB	'cckdutil.c', 00H
	ORG $+1
$SG169294 DB	'I', 00H
	ORG $+2
$SG168846 DB	'lseek()', 00H
$SG168851 DB	'lseek()', 00H
$SG168848 DB	'HHC00355%s %1d:%04X CCKD file %s: error in function %s a'
	DB	't offset 0x%16.16llX: %s', 0aH, 00H
	ORG $+2
$SG169298 DB	'I', 00H
	ORG $+2
$SG168849 DB	'cckd_swapend', 00H
	ORG $+3
$SG168850 DB	'cckdutil.c', 00H
	ORG $+5
$SG168854 DB	'cckd_swapend', 00H
	ORG $+3
$SG168873 DB	'write()', 00H
$SG168853 DB	'HHC00355%s %1d:%04X CCKD file %s: error in function %s a'
	DB	't offset 0x%16.16llX: %s', 0aH, 00H
	ORG $+2
$SG169304 DB	'I', 00H
	ORG $+2
$SG168855 DB	'cckdutil.c', 00H
	ORG $+1
$SG169308 DB	'I', 00H
	ORG $+2
$SG168858 DB	'incomplete', 00H
	ORG $+5
$SG168862 DB	'cckd_swapend', 00H
	ORG $+3
$SG168879 DB	'write()', 00H
$SG168861 DB	'HHC00355%s %1d:%04X CCKD file %s: error in function %s a'
	DB	't offset 0x%16.16llX: %s', 0aH, 00H
	ORG $+2
$SG169322 DB	'E', 00H
	ORG $+2
$SG168863 DB	'cckdutil.c', 00H
	ORG $+1
$SG169327 DB	'E', 00H
	ORG $+2
$SG168864 DB	'incomplete', 00H
	ORG $+5
$SG168868 DB	'cckd_swapend', 00H
	ORG $+3
$SG169170 DB	'HHC00356%s %1d:%04X CCKD file %s: not a compressed dasd '
	DB	'file', 0aH, 00H
	ORG $+2
$SG169187 DB	'HHC00357%s %1d:%04X CCKD file %s: converting to %s', 0aH
	DB	00H
	ORG $+4
$SG168867 DB	'HHC00355%s %1d:%04X CCKD file %s: error in function %s a'
	DB	't offset 0x%16.16llX: %s', 0aH, 00H
	ORG $+2
$SG169334 DB	'E', 00H
	ORG $+2
$SG168869 DB	'cckdutil.c', 00H
	ORG $+1
$SG169339 DB	'E', 00H
	ORG $+2
$SG168872 DB	'incomplete', 00H
	ORG $+5
$SG168876 DB	'cckd_swapend', 00H
	ORG $+3
$SG169174 DB	'HHC00356%s %1d:%04X CCKD file %s: not a compressed dasd '
	DB	'file', 0aH, 00H
	ORG $+2
$SG169193 DB	'HHC00357%s %1d:%04X CCKD file %s: converting to %s', 0aH
	DB	00H
	ORG $+4
$SG168875 DB	'HHC00355%s %1d:%04X CCKD file %s: error in function %s a'
	DB	't offset 0x%16.16llX: %s', 0aH, 00H
	ORG $+2
$SG169346 DB	'read()', 00H
	ORG $+1
$SG169347 DB	'E', 00H
	ORG $+2
$SG168877 DB	'cckdutil.c', 00H
	ORG $+1
$SG169353 DB	'E', 00H
	ORG $+2
$SG168878 DB	'incomplete', 00H
	ORG $+5
$SG168881 DB	'HHC00355%s %1d:%04X CCKD file %s: error in function %s a'
	DB	't offset 0x%16.16llX: %s', 0aH, 00H
	ORG $+2
$SG169352 DB	'read()', 00H
	ORG $+1
$SG169361 DB	'E', 00H
	ORG $+2
$SG168882 DB	'cckd_swapend', 00H
	ORG $+3
$SG168883 DB	'cckdutil.c', 00H
	ORG $+1
$SG169367 DB	'E', 00H
	ORG $+2
$SG168884 DB	'malloc(%d)', 00H
	ORG $+1
$SG169374 DB	'E', 00H
	ORG $+2
$SG168888 DB	'HHC00354%s %1d:%04X CCKD file %s: error in function %s: '
	DB	'%s', 0aH, 00H
$SG169378 DB	'E', 00H
	ORG $+2
$SG168889 DB	'cckd_swapend', 00H
	ORG $+3
$SG168890 DB	'cckdutil.c', 00H
	ORG $+1
$SG169385 DB	'E', 00H
	ORG $+2
$SG168892 DB	'HHC00354%s %1d:%04X CCKD file %s: error in function %s: '
	DB	'%s', 0aH, 00H
$SG169389 DB	'E', 00H
	ORG $+2
$SG168893 DB	'cckd_swapend', 00H
	ORG $+3
$SG168894 DB	'cckdutil.c', 00H
	ORG $+1
$SG169990 DB	'E', 00H
	ORG $+2
$SG169160 DB	'SIZE=%llu', 0aH, 00H
	ORG $+1
$SG169994 DB	'E', 00H
	ORG $+2
$SG169163 DB	'POS=%llu', 0aH, 00H
	ORG $+2
$SG170010 DB	'I', 00H
	ORG $+2
$SG169171 DB	'cckd_comp', 00H
	ORG $+2
$SG170016 DB	'I', 00H
	ORG $+2
$SG169172 DB	'cckdutil.c', 00H
	ORG $+1
$SG170027 DB	'E', 00H
	ORG $+2
$SG169175 DB	'cckd_comp', 00H
	ORG $+2
$SG170031 DB	'E', 00H
	ORG $+2
$SG169176 DB	'cckdutil.c', 00H
	ORG $+1
$SG170039 DB	'E', 00H
	ORG $+2
$SG169179 DB	'POS=%llu', 0aH, 00H
	ORG $+2
$SG170044 DB	'E', 00H
	ORG $+2
$SG169184 DB	'little-endian', 00H
	ORG $+2
$SG169185 DB	'big-endian', 00H
	ORG $+1
$SG170052 DB	'E', 00H
	ORG $+2
$SG169188 DB	'cckd_comp', 00H
	ORG $+2
$SG170057 DB	'E', 00H
	ORG $+2
$SG169189 DB	'cckdutil.c', 00H
	ORG $+1
$SG170068 DB	'E', 00H
	ORG $+2
$SG169190 DB	'little-endian', 00H
	ORG $+2
$SG169191 DB	'big-endian', 00H
	ORG $+1
$SG170073 DB	'E', 00H
	ORG $+2
$SG169194 DB	'cckd_comp', 00H
	ORG $+2
$SG170081 DB	'E', 00H
	ORG $+2
$SG169195 DB	'cckdutil.c', 00H
	ORG $+1
$SG170086 DB	'E', 00H
	ORG $+2
$SG169204 DB	'POS=%llu', 0aH, 00H
	ORG $+2
$SG170093 DB	'W', 00H
	ORG $+2
$SG169214 DB	'POS=%llu', 0aH, 00H
	ORG $+2
$SG170097 DB	'W', 00H
	ORG $+2
$SG169230 DB	'HHC00358%s %1d:%04X CCKD file %s: file already compresse'
	DB	'd', 0aH, 00H
	ORG $+1
$SG170104 DB	'W', 00H
	ORG $+2
$SG169231 DB	'cckd_comp', 00H
	ORG $+2
$SG170108 DB	'W', 00H
	ORG $+2
$SG169232 DB	'cckdutil.c', 00H
	ORG $+1
$SG170115 DB	'W', 00H
	ORG $+2
$SG169234 DB	'HHC00358%s %1d:%04X CCKD file %s: file already compresse'
	DB	'd', 0aH, 00H
	ORG $+1
$SG170119 DB	'W', 00H
	ORG $+2
$SG169235 DB	'cckd_comp', 00H
	ORG $+2
$SG170126 DB	'W', 00H
	ORG $+2
$SG169236 DB	'cckdutil.c', 00H
	ORG $+1
$SG170130 DB	'W', 00H
	ORG $+2
$SG169243 DB	'POS=%llu', 0aH, 00H
	ORG $+2
$SG170172 DB	'%s', 00H
	ORG $+1
$SG169254 DB	'POS=%llu', 0aH, 00H
	ORG $+2
$SG170175 DB	'%s', 00H
	ORG $+1
$SG169258 DB	'POS=%llu', 0aH, 00H
	ORG $+2
$SG170182 DB	'W', 00H
	ORG $+2
$SG169262 DB	'POS=%llu', 0aH, 00H
	ORG $+2
$SG170186 DB	'W', 00H
	ORG $+2
$SG169270 DB	'POS=%llu', 0aH, 00H
	ORG $+2
$SG170192 DB	'W', 00H
	ORG $+2
$SG169274 DB	'POS=%llu', 0aH, 00H
	ORG $+2
$SG170196 DB	'W', 00H
	ORG $+2
$SG169279 DB	'POS=%llu', 0aH, 00H
	ORG $+2
$SG170210 DB	'W', 00H
	ORG $+2
$SG169284 DB	'cckd_comp', 00H
	ORG $+2
$SG170214 DB	'W', 00H
	ORG $+2
$SG169285 DB	'cckdutil.c', 00H
	ORG $+5
$SG169286 DB	'%s(%d) : warning HHC90999W : *** Assertion Failed! *** f'
	DB	'unction: %s', 0aH, 00H
	ORG $+3
$SG169288 DB	'cckd_comp', 00H
	ORG $+2
$SG170224 DB	'W', 00H
	ORG $+2
$SG169289 DB	'cckdutil.c', 00H
	ORG $+5
$SG169321 DB	'fstat()', 00H
$SG169290 DB	'%s(%d) : warning HHC90999W : *** Assertion Failed! *** f'
	DB	'unction: %s', 0aH, 00H
	ORG $+3
$SG169326 DB	'fstat()', 00H
$SG169295 DB	'HHC00359%s %1d:%04X CCKD file %s: compress successful, %'
	DB	'lld bytes released', 0aH, 00H
$SG170228 DB	'W', 00H
	ORG $+2
$SG169296 DB	'cckd_comp', 00H
	ORG $+2
$SG170261 DB	'W', 00H
	ORG $+2
$SG169297 DB	'cckdutil.c', 00H
	ORG $+5
$SG169299 DB	'HHC00359%s %1d:%04X CCKD file %s: compress successful, %'
	DB	'lld bytes released', 0aH, 00H
$SG170265 DB	'W', 00H
	ORG $+2
$SG169300 DB	'cckd_comp', 00H
	ORG $+2
$SG170279 DB	'W', 00H
	ORG $+2
$SG169301 DB	'cckdutil.c', 00H
	ORG $+5
$SG169305 DB	'HHC00360%s %1d:%04X CCKD file %s: compress successful, L'
	DB	'2 tables relocated', 0aH, 00H
$SG170283 DB	'W', 00H
	ORG $+2
$SG169306 DB	'cckd_comp', 00H
	ORG $+2
$SG170290 DB	'W', 00H
	ORG $+2
$SG169307 DB	'cckdutil.c', 00H
	ORG $+5
$SG169309 DB	'HHC00360%s %1d:%04X CCKD file %s: compress successful, L'
	DB	'2 tables relocated', 0aH, 00H
$SG170294 DB	'W', 00H
	ORG $+2
$SG169310 DB	'cckd_comp', 00H
	ORG $+2
$SG170301 DB	'W', 00H
	ORG $+2
$SG169311 DB	'cckdutil.c', 00H
	ORG $+1
$SG170305 DB	'W', 00H
	ORG $+2
$SG169313 DB	'POS=%llu', 0aH, 00H
	ORG $+2
$SG170314 DB	'W', 00H
	ORG $+2
$SG169323 DB	'HHC00354%s %1d:%04X CCKD file %s: error in function %s: '
	DB	'%s', 0aH, 00H
$SG170318 DB	'W', 00H
	ORG $+2
$SG169324 DB	'cckd_comp', 00H
	ORG $+2
$SG170366 DB	'I', 00H
	ORG $+2
$SG169325 DB	'cckdutil.c', 00H
	ORG $+1
$SG170370 DB	'I', 00H
	ORG $+2
$SG169328 DB	'HHC00354%s %1d:%04X CCKD file %s: error in function %s: '
	DB	'%s', 0aH, 00H
$SG170418 DB	'I', 00H
	ORG $+2
$SG169329 DB	'cckd_comp', 00H
	ORG $+2
$SG170422 DB	'I', 00H
	ORG $+2
$SG169330 DB	'cckdutil.c', 00H
	ORG $+1
$SG170430 DB	'I', 00H
	ORG $+2
$SG169333 DB	'lseek()', 00H
$SG169338 DB	'lseek()', 00H
$SG169335 DB	'HHC00355%s %1d:%04X CCKD file %s: error in function %s a'
	DB	't offset 0x%16.16llX: %s', 0aH, 00H
	ORG $+2
$SG170434 DB	'I', 00H
	ORG $+2
$SG169336 DB	'cckd_comp', 00H
	ORG $+2
$SG170451 DB	'E', 00H
	ORG $+2
$SG169337 DB	'cckdutil.c', 00H
	ORG $+5
$SG169360 DB	'write()', 00H
$SG169340 DB	'HHC00355%s %1d:%04X CCKD file %s: error in function %s a'
	DB	't offset 0x%16.16llX: %s', 0aH, 00H
	ORG $+2
$SG170455 DB	'E', 00H
	ORG $+2
$SG169341 DB	'cckd_comp', 00H
	ORG $+2
$SG170463 DB	'W', 00H
	ORG $+2
$SG169342 DB	'cckdutil.c', 00H
	ORG $+1
$SG170468 DB	'W', 00H
	ORG $+2
$SG169345 DB	'incomplete', 00H
	ORG $+5
$SG169366 DB	'write()', 00H
$SG169348 DB	'HHC00355%s %1d:%04X CCKD file %s: error in function %s a'
	DB	't offset 0x%16.16llX: %s', 0aH, 00H
	ORG $+2
$SG170476 DB	'W', 00H
	ORG $+2
$SG169349 DB	'cckd_comp', 00H
	ORG $+2
$SG170481 DB	'W', 00H
	ORG $+2
$SG169350 DB	'cckdutil.c', 00H
	ORG $+1
$SG170501 DB	'W', 00H
	ORG $+2
$SG169351 DB	'incomplete', 00H
	ORG $+5
$SG169375 DB	'HHC00354%s %1d:%04X CCKD file %s: error in function %s: '
	DB	'%s', 0aH, 00H
$SG170174 DB	'[%d]', 00H
	ORG $+7
$SG169354 DB	'HHC00355%s %1d:%04X CCKD file %s: error in function %s a'
	DB	't offset 0x%16.16llX: %s', 0aH, 00H
	ORG $+2
$SG170505 DB	'W', 00H
	ORG $+2
$SG169355 DB	'cckd_comp', 00H
	ORG $+2
$SG170567 DB	'I', 00H
	ORG $+2
$SG169356 DB	'cckdutil.c', 00H
	ORG $+1
$SG170571 DB	'I', 00H
	ORG $+2
$SG169359 DB	'incomplete', 00H
	ORG $+5
$SG169379 DB	'HHC00354%s %1d:%04X CCKD file %s: error in function %s: '
	DB	'%s', 0aH, 00H
$SG170177 DB	'[%d]', 00H
	ORG $+7
$SG169362 DB	'HHC00355%s %1d:%04X CCKD file %s: error in function %s a'
	DB	't offset 0x%16.16llX: %s', 0aH, 00H
	ORG $+2
$SG170600 DB	'E', 00H
	ORG $+2
$SG169363 DB	'cckd_comp', 00H
	ORG $+2
$SG170605 DB	'E', 00H
	ORG $+2
$SG169364 DB	'cckdutil.c', 00H
	ORG $+1
$SG170612 DB	'E', 00H
	ORG $+2
$SG169365 DB	'incomplete', 00H
	ORG $+5
$SG169386 DB	'HHC00354%s %1d:%04X CCKD file %s: error in function %s: '
	DB	'%s', 0aH, 00H
$SG170617 DB	'E', 00H
	ORG $+2
$SG170011 DB	'HHC00357%s %1d:%04X CCKD file %s: converting to %s', 0aH
	DB	00H
	ORG $+4
$SG169368 DB	'HHC00355%s %1d:%04X CCKD file %s: error in function %s a'
	DB	't offset 0x%16.16llX: %s', 0aH, 00H
	ORG $+2
$SG170624 DB	'read()', 00H
	ORG $+1
$SG170625 DB	'E', 00H
	ORG $+2
$SG169369 DB	'cckd_comp', 00H
	ORG $+2
$SG170630 DB	'read()', 00H
	ORG $+1
$SG170631 DB	'E', 00H
	ORG $+2
$SG169370 DB	'cckdutil.c', 00H
	ORG $+1
$SG170639 DB	'E', 00H
	ORG $+2
$SG169371 DB	'malloc(%d)', 00H
	ORG $+1
$SG170645 DB	'E', 00H
	ORG $+2
$SG169376 DB	'cckd_comp', 00H
	ORG $+2
$SG170652 DB	'E', 00H
	ORG $+2
$SG169377 DB	'cckdutil.c', 00H
	ORG $+1
$SG170656 DB	'E', 00H
	ORG $+2
$SG169380 DB	'cckd_comp', 00H
	ORG $+2
$SG170663 DB	'E', 00H
	ORG $+2
$SG169381 DB	'cckdutil.c', 00H
	ORG $+1
$SG170667 DB	'E', 00H
	ORG $+2
$SG169382 DB	'calloc(%d)', 00H
	ORG $+5
$SG169387 DB	'cckd_comp', 00H
	ORG $+6
$SG169388 DB	'cckdutil.c', 00H
	ORG $+5
$SG169390 DB	'HHC00354%s %1d:%04X CCKD file %s: error in function %s: '
	DB	'%s', 0aH, 00H
	ORG $+4
$SG169391 DB	'cckd_comp', 00H
	ORG $+6
$SG169392 DB	'cckdutil.c', 00H
	ORG $+5
$SG169978 DB	'SIZE=%llu', 0aH, 00H
	ORG $+5
$SG169981 DB	'POS=%llu', 0aH, 00H
	ORG $+6
$SG169991 DB	'HHC00356%s %1d:%04X CCKD file %s: not a compressed dasd '
	DB	'file', 0aH, 00H
	ORG $+2
$SG169992 DB	'cckd_chkdsk', 00H
	ORG $+4
$SG169993 DB	'cckdutil.c', 00H
	ORG $+5
$SG169995 DB	'HHC00356%s %1d:%04X CCKD file %s: not a compressed dasd '
	DB	'file', 0aH, 00H
	ORG $+2
$SG169996 DB	'cckd_chkdsk', 00H
	ORG $+4
$SG169997 DB	'cckdutil.c', 00H
	ORG $+5
$SG170001 DB	'POS=%llu', 0aH, 00H
	ORG $+6
$SG170008 DB	'little-endian', 00H
	ORG $+2
$SG170009 DB	'big-endian', 00H
	ORG $+5
$SG170012 DB	'cckd_chkdsk', 00H
	ORG $+4
$SG170013 DB	'cckdutil.c', 00H
	ORG $+5
$SG170014 DB	'little-endian', 00H
	ORG $+2
$SG170015 DB	'big-endian', 00H
	ORG $+5
$SG170017 DB	'HHC00357%s %1d:%04X CCKD file %s: converting to %s', 0aH
	DB	00H
	ORG $+4
$SG170018 DB	'cckd_chkdsk', 00H
	ORG $+4
$SG170019 DB	'cckdutil.c', 00H
	ORG $+5
$SG170028 DB	'HHC00361%s %1d:%04X CCKD file %s: dasd lookup error type'
	DB	' %02X cylinders %d', 0aH, 00H
	ORG $+4
$SG170029 DB	'cckd_chkdsk', 00H
	ORG $+4
$SG170030 DB	'cckdutil.c', 00H
	ORG $+5
$SG170032 DB	'HHC00361%s %1d:%04X CCKD file %s: dasd lookup error type'
	DB	' %02X cylinders %d', 0aH, 00H
	ORG $+4
$SG170033 DB	'cckd_chkdsk', 00H
	ORG $+4
$SG170034 DB	'cckdutil.c', 00H
	ORG $+5
$SG170038 DB	'track size', 00H
	ORG $+5
$SG170040 DB	'HHC00362%s %1d:%04X CCKD file %s: bad %s %lld, expecting'
	DB	' %lld', 0aH, 00H
	ORG $+1
$SG170041 DB	'cckd_chkdsk', 00H
	ORG $+4
$SG170042 DB	'cckdutil.c', 00H
	ORG $+5
$SG170043 DB	'track size', 00H
	ORG $+5
$SG170045 DB	'HHC00362%s %1d:%04X CCKD file %s: bad %s %lld, expecting'
	DB	' %lld', 0aH, 00H
	ORG $+1
$SG170046 DB	'cckd_chkdsk', 00H
	ORG $+4
$SG170047 DB	'cckdutil.c', 00H
	ORG $+5
$SG170051 DB	'number of heads', 00H
$SG170053 DB	'HHC00362%s %1d:%04X CCKD file %s: bad %s %lld, expecting'
	DB	' %lld', 0aH, 00H
	ORG $+1
$SG170054 DB	'cckd_chkdsk', 00H
	ORG $+4
$SG170055 DB	'cckdutil.c', 00H
	ORG $+5
$SG170056 DB	'number of heads', 00H
$SG170058 DB	'HHC00362%s %1d:%04X CCKD file %s: bad %s %lld, expecting'
	DB	' %lld', 0aH, 00H
	ORG $+1
$SG170059 DB	'cckd_chkdsk', 00H
	ORG $+4
$SG170060 DB	'cckdutil.c', 00H
	ORG $+5
$SG170067 DB	'num_L1tab', 00H
	ORG $+6
$SG170069 DB	'HHC00362%s %1d:%04X CCKD file %s: bad %s %lld, expecting'
	DB	' %lld', 0aH, 00H
	ORG $+1
$SG170070 DB	'cckd_chkdsk', 00H
	ORG $+4
$SG170071 DB	'cckdutil.c', 00H
	ORG $+5
$SG170072 DB	'num_L1tab', 00H
	ORG $+6
$SG170074 DB	'HHC00362%s %1d:%04X CCKD file %s: bad %s %lld, expecting'
	DB	' %lld', 0aH, 00H
	ORG $+1
$SG170075 DB	'cckd_chkdsk', 00H
	ORG $+4
$SG170076 DB	'cckdutil.c', 00H
	ORG $+5
$SG170080 DB	'file length to contain L1 table', 00H
$SG170082 DB	'HHC00362%s %1d:%04X CCKD file %s: bad %s %lld, expecting'
	DB	' %lld', 0aH, 00H
	ORG $+1
$SG170083 DB	'cckd_chkdsk', 00H
	ORG $+4
$SG170084 DB	'cckdutil.c', 00H
	ORG $+5
$SG170085 DB	'file length to contain L1 table', 00H
$SG170087 DB	'HHC00362%s %1d:%04X CCKD file %s: bad %s %lld, expecting'
	DB	' %lld', 0aH, 00H
	ORG $+1
$SG170088 DB	'cckd_chkdsk', 00H
	ORG $+4
$SG170089 DB	'cckdutil.c', 00H
	ORG $+5
$SG170094 DB	'HHC00364%s %1d:%04X CCKD file %s: forcing check level %d'
	DB	0aH, 00H
	ORG $+6
$SG170095 DB	'cckd_chkdsk', 00H
	ORG $+4
$SG170096 DB	'cckdutil.c', 00H
	ORG $+5
$SG170098 DB	'HHC00364%s %1d:%04X CCKD file %s: forcing check level %d'
	DB	0aH, 00H
	ORG $+6
$SG170099 DB	'cckd_chkdsk', 00H
	ORG $+4
$SG170100 DB	'cckdutil.c', 00H
	ORG $+5
$SG170105 DB	'HHC00363%s %1d:%04X CCKD file %s: cdevhdr inconsistencie'
	DB	's found, code %4.4X', 0aH, 00H
	ORG $+3
$SG170106 DB	'cckd_chkdsk', 00H
	ORG $+4
$SG170107 DB	'cckdutil.c', 00H
	ORG $+5
$SG170109 DB	'HHC00363%s %1d:%04X CCKD file %s: cdevhdr inconsistencie'
	DB	's found, code %4.4X', 0aH, 00H
	ORG $+3
$SG170110 DB	'cckd_chkdsk', 00H
	ORG $+4
$SG170111 DB	'cckdutil.c', 00H
	ORG $+5
$SG170116 DB	'HHC00364%s %1d:%04X CCKD file %s: forcing check level %d'
	DB	0aH, 00H
	ORG $+6
$SG170117 DB	'cckd_chkdsk', 00H
	ORG $+4
$SG170118 DB	'cckdutil.c', 00H
	ORG $+5
$SG170120 DB	'HHC00364%s %1d:%04X CCKD file %s: forcing check level %d'
	DB	0aH, 00H
	ORG $+6
$SG170121 DB	'cckd_chkdsk', 00H
	ORG $+4
$SG170122 DB	'cckdutil.c', 00H
	ORG $+5
$SG170127 DB	'HHC00364%s %1d:%04X CCKD file %s: forcing check level %d'
	DB	0aH, 00H
	ORG $+6
$SG170128 DB	'cckd_chkdsk', 00H
	ORG $+4
$SG170129 DB	'cckdutil.c', 00H
	ORG $+5
$SG170131 DB	'HHC00364%s %1d:%04X CCKD file %s: forcing check level %d'
	DB	0aH, 00H
	ORG $+6
$SG170132 DB	'cckd_chkdsk', 00H
	ORG $+4
$SG170133 DB	'cckdutil.c', 00H
	ORG $+5
$SG170141 DB	'POS=%llu', 0aH, 00H
	ORG $+6
$SG170159 DB	'POS=%llu', 0aH, 00H
	ORG $+6
$SG170183 DB	'HHC00365%s %1d:%04X CCKD file %s: %s offset 0x%16.16llX '
	DB	'len %lld is out of bounds', 0aH, 00H
	ORG $+5
$SG170184 DB	'cckd_chkdsk', 00H
	ORG $+4
$SG170185 DB	'cckdutil.c', 00H
	ORG $+5
$SG170188 DB	'cckd_chkdsk', 00H
	ORG $+4
$SG170262 DB	'HHC00368%s %1d:%04X CCKD file %s: free space errors dete'
	DB	'cted', 0aH, 00H
	ORG $+2
$SG170462 DB	'file opened read-only', 00H
	ORG $+2
$SG170187 DB	'HHC00365%s %1d:%04X CCKD file %s: %s offset 0x%16.16llX '
	DB	'len %lld is out of bounds', 0aH, 00H
	ORG $+5
$SG170189 DB	'cckdutil.c', 00H
	ORG $+5
$SG170194 DB	'cckd_chkdsk', 00H
	ORG $+4
$SG170266 DB	'HHC00368%s %1d:%04X CCKD file %s: free space errors dete'
	DB	'cted', 0aH, 00H
	ORG $+2
$SG170467 DB	'file opened read-only', 00H
	ORG $+2
$SG170193 DB	'HHC00366%s %1d:%04X CCKD file %s: %s offset 0x%16.16llX '
	DB	'len %lld overlaps %s offset 0x%llX', 0aH, 00H
	ORG $+4
$SG170195 DB	'cckdutil.c', 00H
	ORG $+5
$SG170197 DB	'HHC00366%s %1d:%04X CCKD file %s: %s offset 0x%16.16llX '
	DB	'len %lld overlaps %s offset 0x%llX', 0aH, 00H
	ORG $+4
$SG170198 DB	'cckd_chkdsk', 00H
	ORG $+4
$SG170199 DB	'cckdutil.c', 00H
	ORG $+5
$SG170211 DB	'HHC00367%s %1d:%04X CCKD file %s: %s[%d] l2 inconsistenc'
	DB	'y: len %lld, size %lld', 0aH, 00H
$SG170212 DB	'cckd_chkdsk', 00H
	ORG $+4
$SG170213 DB	'cckdutil.c', 00H
	ORG $+5
$SG170215 DB	'HHC00367%s %1d:%04X CCKD file %s: %s[%d] l2 inconsistenc'
	DB	'y: len %lld, size %lld', 0aH, 00H
$SG170216 DB	'cckd_chkdsk', 00H
	ORG $+4
$SG170217 DB	'cckdutil.c', 00H
	ORG $+5
$SG170225 DB	'HHC00364%s %1d:%04X CCKD file %s: forcing check level %d'
	DB	0aH, 00H
	ORG $+6
$SG170226 DB	'cckd_chkdsk', 00H
	ORG $+4
$SG170227 DB	'cckdutil.c', 00H
	ORG $+5
$SG170229 DB	'HHC00364%s %1d:%04X CCKD file %s: forcing check level %d'
	DB	0aH, 00H
	ORG $+6
$SG170230 DB	'cckd_chkdsk', 00H
	ORG $+4
$SG170231 DB	'cckdutil.c', 00H
	ORG $+5
$SG170238 DB	'POS=%llu', 0aH, 00H
	ORG $+6
$SG170241 DB	'FREE_BLK', 00H
	ORG $+7
$SG170252 DB	'POS=%llu', 0aH, 00H
	ORG $+6
$SG170263 DB	'cckd_chkdsk', 00H
	ORG $+4
$SG170264 DB	'cckdutil.c', 00H
	ORG $+5
$SG170267 DB	'cckd_chkdsk', 00H
	ORG $+4
$SG170268 DB	'cckdutil.c', 00H
	ORG $+5
$SG170273 DB	'POS=%llu', 0aH, 00H
	ORG $+6
$SG170280 DB	'HHC00369%s %1d:%04X CCKD file %s: %s[%d] hdr error offse'
	DB	't 0x%16.16llX: %2.2X%2.2X%2.2X%2.2X%2.2X', 0aH, 00H
	ORG $+6
$SG170281 DB	'cckd_chkdsk', 00H
	ORG $+4
$SG170282 DB	'cckdutil.c', 00H
	ORG $+5
$SG170285 DB	'cckd_chkdsk', 00H
	ORG $+4
$SG170464 DB	'HHC00375%s %1d:%04X CCKD file %s: recovery not completed'
	DB	': %s', 0aH, 00H
	ORG $+2
$SG170475 DB	'missing compression', 00H
	ORG $+4
$SG170284 DB	'HHC00369%s %1d:%04X CCKD file %s: %s[%d] hdr error offse'
	DB	't 0x%16.16llX: %2.2X%2.2X%2.2X%2.2X%2.2X', 0aH, 00H
	ORG $+6
$SG170286 DB	'cckdutil.c', 00H
	ORG $+5
$SG170291 DB	'HHC00364%s %1d:%04X CCKD file %s: forcing check level %d'
	DB	0aH, 00H
	ORG $+6
$SG170292 DB	'cckd_chkdsk', 00H
	ORG $+4
$SG170293 DB	'cckdutil.c', 00H
	ORG $+5
$SG170295 DB	'HHC00364%s %1d:%04X CCKD file %s: forcing check level %d'
	DB	0aH, 00H
	ORG $+6
$SG170296 DB	'cckd_chkdsk', 00H
	ORG $+4
$SG170297 DB	'cckdutil.c', 00H
	ORG $+5
$SG170303 DB	'cckd_chkdsk', 00H
	ORG $+4
$SG170469 DB	'HHC00375%s %1d:%04X CCKD file %s: recovery not completed'
	DB	': %s', 0aH, 00H
	ORG $+2
$SG170480 DB	'missing compression', 00H
	ORG $+4
$SG170302 DB	'HHC00370%s %1d:%04X CCKD file %s: %s[%d] compressed usin'
	DB	'g %s, not supported', 0aH, 00H
	ORG $+3
$SG170304 DB	'cckdutil.c', 00H
	ORG $+5
$SG170306 DB	'HHC00370%s %1d:%04X CCKD file %s: %s[%d] compressed usin'
	DB	'g %s, not supported', 0aH, 00H
	ORG $+3
$SG170307 DB	'cckd_chkdsk', 00H
	ORG $+4
$SG170308 DB	'cckdutil.c', 00H
	ORG $+5
$SG170315 DB	'HHC00371%s %1d:%04X CCKD file %s: %s[%d] offset 0x%16.16'
	DB	'llX len %lld validation error', 0aH, 00H
	ORG $+1
$SG170316 DB	'cckd_chkdsk', 00H
	ORG $+4
$SG170317 DB	'cckdutil.c', 00H
	ORG $+5
$SG170320 DB	'cckd_chkdsk', 00H
	ORG $+4
$SG170477 DB	'HHC00375%s %1d:%04X CCKD file %s: recovery not completed'
	DB	': %s', 0aH, 00H
	ORG $+2
$SG170568 DB	'HHC00377%s %1d:%04X CCKD file %s: free space rebuilt', 0aH
	DB	00H
	ORG $+2
$SG170319 DB	'HHC00371%s %1d:%04X CCKD file %s: %s[%d] offset 0x%16.16'
	DB	'llX len %lld validation error', 0aH, 00H
	ORG $+1
$SG170321 DB	'cckdutil.c', 00H
	ORG $+5
$SG170331 DB	'POS=%llu', 0aH, 00H
	ORG $+6
$SG170368 DB	'cckd_chkdsk', 00H
	ORG $+4
$SG170482 DB	'HHC00375%s %1d:%04X CCKD file %s: recovery not completed'
	DB	': %s', 0aH, 00H
	ORG $+2
$SG170572 DB	'HHC00377%s %1d:%04X CCKD file %s: free space rebuilt', 0aH
	DB	00H
	ORG $+2
$SG170367 DB	'HHC00372%s %1d:%04X CCKD file %s: %s[%d] recovered offse'
	DB	't 0x%16.16llX len %lld', 0aH, 00H
$SG170369 DB	'cckdutil.c', 00H
	ORG $+5
$SG170371 DB	'HHC00372%s %1d:%04X CCKD file %s: %s[%d] recovered offse'
	DB	't 0x%16.16llX len %lld', 0aH, 00H
$SG170372 DB	'cckd_chkdsk', 00H
	ORG $+4
$SG170373 DB	'cckdutil.c', 00H
	ORG $+5
$SG170380 DB	'POS=%llu', 0aH, 00H
	ORG $+6
$SG170419 DB	'HHC00372%s %1d:%04X CCKD file %s: %s[%d] recovered offse'
	DB	't 0x%16.16llX len %lld', 0aH, 00H
$SG170420 DB	'cckd_chkdsk', 00H
	ORG $+4
$SG170421 DB	'cckdutil.c', 00H
	ORG $+5
$SG170423 DB	'HHC00372%s %1d:%04X CCKD file %s: %s[%d] recovered offse'
	DB	't 0x%16.16llX len %lld', 0aH, 00H
$SG170424 DB	'cckd_chkdsk', 00H
	ORG $+4
$SG170425 DB	'cckdutil.c', 00H
	ORG $+5
$SG170431 DB	'HHC00373%s %1d:%04X CCKD file %s: %lld %s images recover'
	DB	'ed', 0aH, 00H
	ORG $+4
$SG170432 DB	'cckd_chkdsk', 00H
	ORG $+4
$SG170433 DB	'cckdutil.c', 00H
	ORG $+5
$SG170435 DB	'HHC00373%s %1d:%04X CCKD file %s: %lld %s images recover'
	DB	'ed', 0aH, 00H
	ORG $+4
$SG170436 DB	'cckd_chkdsk', 00H
	ORG $+4
$SG170437 DB	'cckdutil.c', 00H
	ORG $+5
$SG170452 DB	'HHC00374%s %1d:%04X CCKD file %s: not enough file space '
	DB	'for recovery', 0aH, 00H
	ORG $+2
$SG170453 DB	'cckd_chkdsk', 00H
	ORG $+4
$SG170454 DB	'cckdutil.c', 00H
	ORG $+5
$SG170457 DB	'cckd_chkdsk', 00H
	ORG $+4
$SG170599 DB	'fstat()', 00H
$SG170456 DB	'HHC00374%s %1d:%04X CCKD file %s: not enough file space '
	DB	'for recovery', 0aH, 00H
	ORG $+2
$SG170458 DB	'cckdutil.c', 00H
	ORG $+5
$SG170465 DB	'cckd_chkdsk', 00H
	ORG $+4
$SG170466 DB	'cckdutil.c', 00H
	ORG $+5
$SG170470 DB	'cckd_chkdsk', 00H
	ORG $+4
$SG170471 DB	'cckdutil.c', 00H
	ORG $+5
$SG170478 DB	'cckd_chkdsk', 00H
	ORG $+4
$SG170479 DB	'cckdutil.c', 00H
	ORG $+5
$SG170483 DB	'cckd_chkdsk', 00H
	ORG $+4
$SG170484 DB	'cckdutil.c', 00H
	ORG $+5
$SG170487 DB	'POS=%llu', 0aH, 00H
	ORG $+6
$SG170493 DB	'POS=%llu', 0aH, 00H
	ORG $+6
$SG170503 DB	'cckd_chkdsk', 00H
	ORG $+4
$SG170604 DB	'fstat()', 00H
$SG170502 DB	'HHC00376%s %1d:%04X CCKD file %s: free space not rebuilt'
	DB	', file opened read-only', 0aH, 00H
	ORG $+7
$SG170504 DB	'cckdutil.c', 00H
	ORG $+5
$SG170507 DB	'cckd_chkdsk', 00H
	ORG $+4
$SG170611 DB	'lseek()', 00H
$SG170506 DB	'HHC00376%s %1d:%04X CCKD file %s: free space not rebuilt'
	DB	', file opened read-only', 0aH, 00H
	ORG $+7
$SG170508 DB	'cckdutil.c', 00H
	ORG $+5
$SG170515 DB	'POS=%llu', 0aH, 00H
	ORG $+6
$SG170519 DB	'POS=%llu', 0aH, 00H
	ORG $+6
$SG170525 DB	'POS=%llu', 0aH, 00H
	ORG $+6
$SG170529 DB	'POS=%llu', 0aH, 00H
	ORG $+6
$SG170541 DB	'FREE_BLK', 00H
	ORG $+7
$SG170545 DB	'POS=%llu', 0aH, 00H
	ORG $+6
$SG170550 DB	'POS=%llu', 0aH, 00H
	ORG $+6
$SG170554 DB	'POS=%llu', 0aH, 00H
	ORG $+6
$SG170558 DB	'POS=%llu', 0aH, 00H
	ORG $+6
$SG170562 DB	'POS=%llu', 0aH, 00H
	ORG $+6
$SG170569 DB	'cckd_chkdsk', 00H
	ORG $+4
$SG170570 DB	'cckdutil.c', 00H
	ORG $+5
$SG170573 DB	'cckd_chkdsk', 00H
	ORG $+4
$SG170574 DB	'cckdutil.c', 00H
	ORG $+5
$SG170578 DB	'cckd_chkdsk', 00H
	ORG $+4
$SG170579 DB	'cckdutil.c', 00H
	ORG $+5
$SG170582 DB	'cckd_chkdsk', 00H
	ORG $+4
$SG170616 DB	'lseek()', 00H
$SG170580 DB	'%s(%d) : warning HHC90999W : *** Assertion Failed! *** f'
	DB	'unction: %s', 0aH, 00H
	ORG $+3
$SG170583 DB	'cckdutil.c', 00H
	ORG $+5
$SG170601 DB	'HHC00354%s %1d:%04X CCKD file %s: error in function %s: '
	DB	'%s', 0aH, 00H
	ORG $+4
$SG170638 DB	'write()', 00H
$SG170584 DB	'%s(%d) : warning HHC90999W : *** Assertion Failed! *** f'
	DB	'unction: %s', 0aH, 00H
	ORG $+3
$SG170587 DB	'POS=%llu', 0aH, 00H
	ORG $+6
$SG170589 DB	'POS=%llu', 0aH, 00H
	ORG $+6
$SG170602 DB	'cckd_chkdsk', 00H
	ORG $+4
$SG170603 DB	'cckdutil.c', 00H
	ORG $+5
$SG170606 DB	'HHC00354%s %1d:%04X CCKD file %s: error in function %s: '
	DB	'%s', 0aH, 00H
	ORG $+4
$SG170607 DB	'cckd_chkdsk', 00H
	ORG $+4
$SG170608 DB	'cckdutil.c', 00H
	ORG $+5
$SG170614 DB	'cckd_chkdsk', 00H
	ORG $+4
$SG170644 DB	'write()', 00H
$SG170613 DB	'HHC00355%s %1d:%04X CCKD file %s: error in function %s a'
	DB	't offset 0x%16.16llX: %s', 0aH, 00H
	ORG $+6
$SG170615 DB	'cckdutil.c', 00H
	ORG $+5
$SG170619 DB	'cckd_chkdsk', 00H
	ORG $+12
$SG170618 DB	'HHC00355%s %1d:%04X CCKD file %s: error in function %s a'
	DB	't offset 0x%16.16llX: %s', 0aH, 00H
	ORG $+6
$SG170620 DB	'cckdutil.c', 00H
	ORG $+5
$SG170623 DB	'incomplete', 00H
	ORG $+13
$SG170626 DB	'HHC00355%s %1d:%04X CCKD file %s: error in function %s a'
	DB	't offset 0x%16.16llX: %s', 0aH, 00H
	ORG $+6
$SG170627 DB	'cckd_chkdsk', 00H
	ORG $+4
$SG170628 DB	'cckdutil.c', 00H
	ORG $+5
$SG170629 DB	'incomplete', 00H
	ORG $+13
$SG170632 DB	'HHC00355%s %1d:%04X CCKD file %s: error in function %s a'
	DB	't offset 0x%16.16llX: %s', 0aH, 00H
	ORG $+6
$SG170633 DB	'cckd_chkdsk', 00H
	ORG $+4
$SG170634 DB	'cckdutil.c', 00H
	ORG $+5
$SG170637 DB	'incomplete', 00H
	ORG $+13
$SG170640 DB	'HHC00355%s %1d:%04X CCKD file %s: error in function %s a'
	DB	't offset 0x%16.16llX: %s', 0aH, 00H
	ORG $+6
$SG170641 DB	'cckd_chkdsk', 00H
	ORG $+4
$SG170642 DB	'cckdutil.c', 00H
	ORG $+5
$SG170643 DB	'incomplete', 00H
	ORG $+13
$SG170646 DB	'HHC00355%s %1d:%04X CCKD file %s: error in function %s a'
	DB	't offset 0x%16.16llX: %s', 0aH, 00H
	ORG $+6
$SG170647 DB	'cckd_chkdsk', 00H
	ORG $+4
$SG170648 DB	'cckdutil.c', 00H
	ORG $+5
$SG170649 DB	'malloc(%d)', 00H
	ORG $+5
$SG170653 DB	'HHC00354%s %1d:%04X CCKD file %s: error in function %s: '
	DB	'%s', 0aH, 00H
	ORG $+4
$SG170654 DB	'cckd_chkdsk', 00H
	ORG $+4
$SG170655 DB	'cckdutil.c', 00H
	ORG $+5
$SG170657 DB	'HHC00354%s %1d:%04X CCKD file %s: error in function %s: '
	DB	'%s', 0aH, 00H
	ORG $+4
$SG170658 DB	'cckd_chkdsk', 00H
	ORG $+4
$SG170659 DB	'cckdutil.c', 00H
	ORG $+5
$SG170660 DB	'calloc(%d)', 00H
	ORG $+5
$SG170664 DB	'HHC00354%s %1d:%04X CCKD file %s: error in function %s: '
	DB	'%s', 0aH, 00H
	ORG $+4
$SG170665 DB	'cckd_chkdsk', 00H
	ORG $+4
$SG170666 DB	'cckdutil.c', 00H
	ORG $+5
$SG170668 DB	'HHC00354%s %1d:%04X CCKD file %s: error in function %s: '
	DB	'%s', 0aH, 00H
	ORG $+4
$SG170669 DB	'cckd_chkdsk', 00H
	ORG $+4
$SG170670 DB	'cckdutil.c', 00H
_DATA	ENDS
voltbl	SEGMENT
_volmd	DD	0ffffffffH
	DDSymXIndex: 	FLAT:cdsk_valid_trk
	DD	026H
	DD	0377H
_volmd	DD	0ffffffffH
	DDSymXIndex: 	FLAT:cckd_chkdsk
	DD	022H
	DD	0b0e5H
_volmd	DD	0ffffffffH
	DDSymXIndex: 	FLAT:cckd_comp
	DD	01dH
	DD	038b8H
_volmd	DD	0ffffffffH
	DDSymXIndex: 	FLAT:cckd_swapend
	DD	016H
	DD	016c9H
voltbl	ENDS
;	COMDAT xdata
xdata	SEGMENT
$unwind$fetch_fw_noswap DD 010901H
	DD	02209H
xdata	ENDS
;	COMDAT xdata
xdata	SEGMENT
$unwind$fetch_hw_noswap DD 010901H
	DD	02209H
xdata	ENDS
xdata	SEGMENT
$unwind$DebuggerTrace DD 011801H
	DD	0a218H
$unwind$comp_to_str DD 010801H
	DD	02208H
$unwind$spc_typ_to_str DD 010801H
	DD	02208H
$unwind$cckd_swapend DD 021e19H
	DD	0193010cH
	DD	imagerel __GSHandlerCheck
	DD	0c80H
$unwind$cckd_swapend_chdr DD 010901H
	DD	04209H
$unwind$cckd_swapend_l1 DD 010d01H
	DD	0620dH
$unwind$cckd_swapend_l2 DD 010901H
	DD	06209H
$unwind$cckd_swapend_free DD 010901H
	DD	04209H
$unwind$cckd_def_opt_bigend DD 010401H
	DD	02204H
$unwind$cckd_comp DD 032519H
	DD	083020113H
	DD	07006H
	DD	imagerel __GSHandlerCheck
	DD	041800H
$unwind$cckd_chkdsk DD 042a19H
	DD	084370118H
	DD	0600a700bH
	DD	imagerel __GSHandlerCheck
	DD	0421a0H
$unwind$cdsk_valid_trk DD 042b19H
	DD	011011cH
	DD	060147015H
	DD	imagerel __GSHandlerCheck
	DD	070H
$unwind$comp_spctab_sort DD 010e01H
	DD	0220eH
$unwind$cdsk_spctab_sort DD 010e01H
	DD	0220eH
$unwind$cdsk_build_free_space DD 010d01H
	DD	0620dH
xdata	ENDS
;	COMDAT xdata
xdata	SEGMENT
$unwind$sprintf DD 011801H
	DD	06218H
xdata	ENDS
;	COMDAT xdata
xdata	SEGMENT
$unwind$_vsnprintf_s DD 011801H
	DD	06218H
xdata	ENDS
;	COMDAT xdata
xdata	SEGMENT
$unwind$_vsnprintf_s_l DD 011801H
	DD	0a218H
xdata	ENDS
;	COMDAT xdata
xdata	SEGMENT
$unwind$_vsprintf_l DD 011801H
	DD	06218H
xdata	ENDS
;	COMDAT xdata
xdata	SEGMENT
$unwind$_vsnprintf_l DD 011801H
	DD	08218H
xdata	ENDS
; Function compile flags: /Odtp
; File C:\papa\MyGit\hyperion-zvector\cckdutil.c
_TEXT	SEGMENT
i$ = 32
tv181 = 36
spctab$ = 64
s$ = 72
cdsk_build_free_space PROC

; 2883 : {

  00000	89 54 24 10	 mov	 DWORD PTR [rsp+16], edx
  00004	48 89 4c 24 08	 mov	 QWORD PTR [rsp+8], rcx
  00009	48 83 ec 38	 sub	 rsp, 56			; 00000038H

; 2884 : int i;
; 2885 : 
; 2886 :     for (i = 0; i < s; i++)

  0000d	c7 44 24 20 00
	00 00 00	 mov	 DWORD PTR i$[rsp], 0
  00015	eb 0a		 jmp	 SHORT $LN4@cdsk_build
$LN2@cdsk_build:
  00017	8b 44 24 20	 mov	 eax, DWORD PTR i$[rsp]
  0001b	ff c0		 inc	 eax
  0001d	89 44 24 20	 mov	 DWORD PTR i$[rsp], eax
$LN4@cdsk_build:
  00021	8b 44 24 48	 mov	 eax, DWORD PTR s$[rsp]
  00025	39 44 24 20	 cmp	 DWORD PTR i$[rsp], eax
  00029	7d 2b		 jge	 SHORT $LN3@cdsk_build

; 2887 :         if (spctab[i].spc_typ == SPCTAB_FREE)

  0002b	48 63 44 24 20	 movsxd	 rax, DWORD PTR i$[rsp]
  00030	48 6b c0 18	 imul	 rax, rax, 24
  00034	48 8b 4c 24 40	 mov	 rcx, QWORD PTR spctab$[rsp]
  00039	0f b6 04 01	 movzx	 eax, BYTE PTR [rcx+rax]
  0003d	83 f8 07	 cmp	 eax, 7
  00040	75 12		 jne	 SHORT $LN10@cdsk_build

; 2888 :             spctab[i].spc_typ = SPCTAB_NONE;

  00042	48 63 44 24 20	 movsxd	 rax, DWORD PTR i$[rsp]
  00047	48 6b c0 18	 imul	 rax, rax, 24
  0004b	48 8b 4c 24 40	 mov	 rcx, QWORD PTR spctab$[rsp]
  00050	c6 04 01 00	 mov	 BYTE PTR [rcx+rax], 0
$LN10@cdsk_build:
  00054	eb c1		 jmp	 SHORT $LN2@cdsk_build
$LN3@cdsk_build:

; 2889 :     qsort (spctab, s, sizeof(SPCTAB), cdsk_spctab_sort);

  00056	48 63 44 24 48	 movsxd	 rax, DWORD PTR s$[rsp]
  0005b	4c 8d 0d 00 00
	00 00		 lea	 r9, OFFSET FLAT:cdsk_spctab_sort
  00062	41 b8 18 00 00
	00		 mov	 r8d, 24
  00068	48 8b d0	 mov	 rdx, rax
  0006b	48 8b 4c 24 40	 mov	 rcx, QWORD PTR spctab$[rsp]
  00070	ff 15 00 00 00
	00		 call	 QWORD PTR __imp_qsort
$LN5@cdsk_build:

; 2890 :     while (spctab[s-1].spc_typ == SPCTAB_NONE) s--;

  00076	8b 44 24 48	 mov	 eax, DWORD PTR s$[rsp]
  0007a	ff c8		 dec	 eax
  0007c	48 98		 cdqe
  0007e	48 6b c0 18	 imul	 rax, rax, 24
  00082	48 8b 4c 24 40	 mov	 rcx, QWORD PTR spctab$[rsp]
  00087	0f b6 04 01	 movzx	 eax, BYTE PTR [rcx+rax]
  0008b	85 c0		 test	 eax, eax
  0008d	75 0c		 jne	 SHORT $LN6@cdsk_build
  0008f	8b 44 24 48	 mov	 eax, DWORD PTR s$[rsp]
  00093	ff c8		 dec	 eax
  00095	89 44 24 48	 mov	 DWORD PTR s$[rsp], eax
  00099	eb db		 jmp	 SHORT $LN5@cdsk_build
$LN6@cdsk_build:

; 2891 :     for (i = 0; spctab[i].spc_typ != SPCTAB_EOF; i++)

  0009b	c7 44 24 20 00
	00 00 00	 mov	 DWORD PTR i$[rsp], 0
  000a3	eb 0a		 jmp	 SHORT $LN9@cdsk_build
$LN7@cdsk_build:
  000a5	8b 44 24 20	 mov	 eax, DWORD PTR i$[rsp]
  000a9	ff c0		 inc	 eax
  000ab	89 44 24 20	 mov	 DWORD PTR i$[rsp], eax
$LN9@cdsk_build:
  000af	48 63 44 24 20	 movsxd	 rax, DWORD PTR i$[rsp]
  000b4	48 6b c0 18	 imul	 rax, rax, 24
  000b8	48 8b 4c 24 40	 mov	 rcx, QWORD PTR spctab$[rsp]
  000bd	0f b6 04 01	 movzx	 eax, BYTE PTR [rcx+rax]
  000c1	83 f8 08	 cmp	 eax, 8
  000c4	0f 84 07 01 00
	00		 je	 $LN8@cdsk_build

; 2892 :         if (spctab[i].spc_off + spctab[i].spc_siz < spctab[i+1].spc_off)

  000ca	48 63 44 24 20	 movsxd	 rax, DWORD PTR i$[rsp]
  000cf	48 6b c0 18	 imul	 rax, rax, 24
  000d3	48 63 4c 24 20	 movsxd	 rcx, DWORD PTR i$[rsp]
  000d8	48 6b c9 18	 imul	 rcx, rcx, 24
  000dc	48 8b 54 24 40	 mov	 rdx, QWORD PTR spctab$[rsp]
  000e1	8b 44 02 0c	 mov	 eax, DWORD PTR [rdx+rax+12]
  000e5	48 8b 54 24 40	 mov	 rdx, QWORD PTR spctab$[rsp]
  000ea	03 44 0a 14	 add	 eax, DWORD PTR [rdx+rcx+20]
  000ee	8b 4c 24 20	 mov	 ecx, DWORD PTR i$[rsp]
  000f2	ff c1		 inc	 ecx
  000f4	48 63 c9	 movsxd	 rcx, ecx
  000f7	48 6b c9 18	 imul	 rcx, rcx, 24
  000fb	48 8b 54 24 40	 mov	 rdx, QWORD PTR spctab$[rsp]
  00100	3b 44 0a 0c	 cmp	 eax, DWORD PTR [rdx+rcx+12]
  00104	0f 83 c2 00 00
	00		 jae	 $LN11@cdsk_build

; 2893 :         {
; 2894 :             spctab[s].spc_typ = SPCTAB_FREE;

  0010a	48 63 44 24 48	 movsxd	 rax, DWORD PTR s$[rsp]
  0010f	48 6b c0 18	 imul	 rax, rax, 24
  00113	48 8b 4c 24 40	 mov	 rcx, QWORD PTR spctab$[rsp]
  00118	c6 04 01 07	 mov	 BYTE PTR [rcx+rax], 7

; 2895 :             spctab[s].spc_val = -1;

  0011c	48 63 44 24 48	 movsxd	 rax, DWORD PTR s$[rsp]
  00121	48 6b c0 18	 imul	 rax, rax, 24
  00125	48 8b 4c 24 40	 mov	 rcx, QWORD PTR spctab$[rsp]
  0012a	c7 44 01 04 ff
	ff ff ff	 mov	 DWORD PTR [rcx+rax+4], -1

; 2896 :             spctab[s].spc_off = spctab[i].spc_off + spctab[i].spc_siz;

  00132	48 63 44 24 20	 movsxd	 rax, DWORD PTR i$[rsp]
  00137	48 6b c0 18	 imul	 rax, rax, 24
  0013b	48 63 4c 24 20	 movsxd	 rcx, DWORD PTR i$[rsp]
  00140	48 6b c9 18	 imul	 rcx, rcx, 24
  00144	48 8b 54 24 40	 mov	 rdx, QWORD PTR spctab$[rsp]
  00149	8b 44 02 0c	 mov	 eax, DWORD PTR [rdx+rax+12]
  0014d	48 8b 54 24 40	 mov	 rdx, QWORD PTR spctab$[rsp]
  00152	03 44 0a 14	 add	 eax, DWORD PTR [rdx+rcx+20]
  00156	48 63 4c 24 48	 movsxd	 rcx, DWORD PTR s$[rsp]
  0015b	48 6b c9 18	 imul	 rcx, rcx, 24
  0015f	48 8b 54 24 40	 mov	 rdx, QWORD PTR spctab$[rsp]
  00164	89 44 0a 0c	 mov	 DWORD PTR [rdx+rcx+12], eax

; 2897 :             spctab[s].spc_len =

  00168	8b 44 24 20	 mov	 eax, DWORD PTR i$[rsp]
  0016c	ff c0		 inc	 eax
  0016e	48 98		 cdqe
  00170	48 6b c0 18	 imul	 rax, rax, 24
  00174	48 63 4c 24 48	 movsxd	 rcx, DWORD PTR s$[rsp]
  00179	48 6b c9 18	 imul	 rcx, rcx, 24
  0017d	48 8b 54 24 40	 mov	 rdx, QWORD PTR spctab$[rsp]
  00182	4c 8b 44 24 40	 mov	 r8, QWORD PTR spctab$[rsp]
  00187	41 8b 4c 08 0c	 mov	 ecx, DWORD PTR [r8+rcx+12]
  0018c	8b 44 02 0c	 mov	 eax, DWORD PTR [rdx+rax+12]
  00190	2b c1		 sub	 eax, ecx
  00192	89 44 24 24	 mov	 DWORD PTR tv181[rsp], eax
  00196	48 63 44 24 48	 movsxd	 rax, DWORD PTR s$[rsp]
  0019b	48 6b c0 18	 imul	 rax, rax, 24
  0019f	48 8b 4c 24 40	 mov	 rcx, QWORD PTR spctab$[rsp]
  001a4	8b 54 24 24	 mov	 edx, DWORD PTR tv181[rsp]
  001a8	89 54 01 14	 mov	 DWORD PTR [rcx+rax+20], edx
  001ac	48 63 44 24 48	 movsxd	 rax, DWORD PTR s$[rsp]
  001b1	48 6b c0 18	 imul	 rax, rax, 24
  001b5	48 8b 4c 24 40	 mov	 rcx, QWORD PTR spctab$[rsp]
  001ba	8b 54 24 24	 mov	 edx, DWORD PTR tv181[rsp]
  001be	89 54 01 10	 mov	 DWORD PTR [rcx+rax+16], edx

; 2898 :             spctab[s].spc_siz = spctab[i+1].spc_off - spctab[s].spc_off;
; 2899 :             s++;

  001c2	8b 44 24 48	 mov	 eax, DWORD PTR s$[rsp]
  001c6	ff c0		 inc	 eax
  001c8	89 44 24 48	 mov	 DWORD PTR s$[rsp], eax
$LN11@cdsk_build:

; 2900 :         }

  001cc	e9 d4 fe ff ff	 jmp	 $LN7@cdsk_build
$LN8@cdsk_build:

; 2901 :     qsort (spctab, s, sizeof(SPCTAB), cdsk_spctab_sort);

  001d1	48 63 44 24 48	 movsxd	 rax, DWORD PTR s$[rsp]
  001d6	4c 8d 0d 00 00
	00 00		 lea	 r9, OFFSET FLAT:cdsk_spctab_sort
  001dd	41 b8 18 00 00
	00		 mov	 r8d, 24
  001e3	48 8b d0	 mov	 rdx, rax
  001e6	48 8b 4c 24 40	 mov	 rcx, QWORD PTR spctab$[rsp]
  001eb	ff 15 00 00 00
	00		 call	 QWORD PTR __imp_qsort

; 2902 :     return s;

  001f1	8b 44 24 48	 mov	 eax, DWORD PTR s$[rsp]

; 2903 : }

  001f5	48 83 c4 38	 add	 rsp, 56			; 00000038H
  001f9	c3		 ret	 0
cdsk_build_free_space ENDP
_TEXT	ENDS
; Function compile flags: /Odtp
; File C:\papa\MyGit\hyperion-zvector\cckdutil.c
_TEXT	SEGMENT
x$ = 0
y$ = 8
a$ = 32
b$ = 40
cdsk_spctab_sort PROC

; 2868 : {

  00000	48 89 54 24 10	 mov	 QWORD PTR [rsp+16], rdx
  00005	48 89 4c 24 08	 mov	 QWORD PTR [rsp+8], rcx
  0000a	48 83 ec 18	 sub	 rsp, 24

; 2869 : const SPCTAB *x = a, *y = b;

  0000e	48 8b 44 24 20	 mov	 rax, QWORD PTR a$[rsp]
  00013	48 89 04 24	 mov	 QWORD PTR x$[rsp], rax
  00017	48 8b 44 24 28	 mov	 rax, QWORD PTR b$[rsp]
  0001c	48 89 44 24 08	 mov	 QWORD PTR y$[rsp], rax

; 2870 : 
; 2871 :          if (x->spc_typ == SPCTAB_NONE) return +1;

  00021	48 8b 04 24	 mov	 rax, QWORD PTR x$[rsp]
  00025	0f b6 00	 movzx	 eax, BYTE PTR [rax]
  00028	85 c0		 test	 eax, eax
  0002a	75 09		 jne	 SHORT $LN2@cdsk_spcta
  0002c	b8 01 00 00 00	 mov	 eax, 1
  00031	eb 61		 jmp	 SHORT $LN1@cdsk_spcta
  00033	eb 5f		 jmp	 SHORT $LN3@cdsk_spcta
$LN2@cdsk_spcta:

; 2872 :     else if (y->spc_typ == SPCTAB_NONE) return -1;

  00035	48 8b 44 24 08	 mov	 rax, QWORD PTR y$[rsp]
  0003a	0f b6 00	 movzx	 eax, BYTE PTR [rax]
  0003d	85 c0		 test	 eax, eax
  0003f	75 09		 jne	 SHORT $LN4@cdsk_spcta
  00041	b8 ff ff ff ff	 mov	 eax, -1
  00046	eb 4c		 jmp	 SHORT $LN1@cdsk_spcta
  00048	eb 4a		 jmp	 SHORT $LN5@cdsk_spcta
$LN4@cdsk_spcta:

; 2873 :     else if (x->spc_typ == SPCTAB_EOF)  return +1;

  0004a	48 8b 04 24	 mov	 rax, QWORD PTR x$[rsp]
  0004e	0f b6 00	 movzx	 eax, BYTE PTR [rax]
  00051	83 f8 08	 cmp	 eax, 8
  00054	75 09		 jne	 SHORT $LN6@cdsk_spcta
  00056	b8 01 00 00 00	 mov	 eax, 1
  0005b	eb 37		 jmp	 SHORT $LN1@cdsk_spcta
  0005d	eb 35		 jmp	 SHORT $LN7@cdsk_spcta
$LN6@cdsk_spcta:

; 2874 :     else if (y->spc_typ == SPCTAB_EOF)  return -1;

  0005f	48 8b 44 24 08	 mov	 rax, QWORD PTR y$[rsp]
  00064	0f b6 00	 movzx	 eax, BYTE PTR [rax]
  00067	83 f8 08	 cmp	 eax, 8
  0006a	75 09		 jne	 SHORT $LN8@cdsk_spcta
  0006c	b8 ff ff ff ff	 mov	 eax, -1
  00071	eb 21		 jmp	 SHORT $LN1@cdsk_spcta
  00073	eb 1f		 jmp	 SHORT $LN9@cdsk_spcta
$LN8@cdsk_spcta:

; 2875 :     else if (x->spc_off < y->spc_off)   return -1;

  00075	48 8b 04 24	 mov	 rax, QWORD PTR x$[rsp]
  00079	48 8b 4c 24 08	 mov	 rcx, QWORD PTR y$[rsp]
  0007e	8b 49 0c	 mov	 ecx, DWORD PTR [rcx+12]
  00081	39 48 0c	 cmp	 DWORD PTR [rax+12], ecx
  00084	73 09		 jae	 SHORT $LN10@cdsk_spcta
  00086	b8 ff ff ff ff	 mov	 eax, -1
  0008b	eb 07		 jmp	 SHORT $LN1@cdsk_spcta
  0008d	eb 05		 jmp	 SHORT $LN11@cdsk_spcta
$LN10@cdsk_spcta:

; 2876 :     else                                return +1;

  0008f	b8 01 00 00 00	 mov	 eax, 1
$LN11@cdsk_spcta:
$LN9@cdsk_spcta:
$LN7@cdsk_spcta:
$LN5@cdsk_spcta:
$LN3@cdsk_spcta:
$LN1@cdsk_spcta:

; 2877 : } /* end function cdsk_spctab_sort */

  00094	48 83 c4 18	 add	 rsp, 24
  00098	c3		 ret	 0
cdsk_spctab_sort ENDP
_TEXT	ENDS
; Function compile flags: /Odtp
; File C:\papa\MyGit\hyperion-zvector\cckdutil.c
_TEXT	SEGMENT
x$ = 0
y$ = 8
a$ = 32
b$ = 40
comp_spctab_sort PROC

; 992  : {

  00000	48 89 54 24 10	 mov	 QWORD PTR [rsp+16], rdx
  00005	48 89 4c 24 08	 mov	 QWORD PTR [rsp+8], rcx
  0000a	48 83 ec 18	 sub	 rsp, 24

; 993  : const SPCTAB *x = a, *y = b;

  0000e	48 8b 44 24 20	 mov	 rax, QWORD PTR a$[rsp]
  00013	48 89 04 24	 mov	 QWORD PTR x$[rsp], rax
  00017	48 8b 44 24 28	 mov	 rax, QWORD PTR b$[rsp]
  0001c	48 89 44 24 08	 mov	 QWORD PTR y$[rsp], rax

; 994  : 
; 995  :          if (x->spc_typ == SPCTAB_NONE) return +1;

  00021	48 8b 04 24	 mov	 rax, QWORD PTR x$[rsp]
  00025	0f b6 00	 movzx	 eax, BYTE PTR [rax]
  00028	85 c0		 test	 eax, eax
  0002a	75 09		 jne	 SHORT $LN2@comp_spcta
  0002c	b8 01 00 00 00	 mov	 eax, 1
  00031	eb 61		 jmp	 SHORT $LN1@comp_spcta
  00033	eb 5f		 jmp	 SHORT $LN3@comp_spcta
$LN2@comp_spcta:

; 996  :     else if (y->spc_typ == SPCTAB_NONE) return -1;

  00035	48 8b 44 24 08	 mov	 rax, QWORD PTR y$[rsp]
  0003a	0f b6 00	 movzx	 eax, BYTE PTR [rax]
  0003d	85 c0		 test	 eax, eax
  0003f	75 09		 jne	 SHORT $LN4@comp_spcta
  00041	b8 ff ff ff ff	 mov	 eax, -1
  00046	eb 4c		 jmp	 SHORT $LN1@comp_spcta
  00048	eb 4a		 jmp	 SHORT $LN5@comp_spcta
$LN4@comp_spcta:

; 997  :     else if (x->spc_typ == SPCTAB_EOF)  return +1;

  0004a	48 8b 04 24	 mov	 rax, QWORD PTR x$[rsp]
  0004e	0f b6 00	 movzx	 eax, BYTE PTR [rax]
  00051	83 f8 08	 cmp	 eax, 8
  00054	75 09		 jne	 SHORT $LN6@comp_spcta
  00056	b8 01 00 00 00	 mov	 eax, 1
  0005b	eb 37		 jmp	 SHORT $LN1@comp_spcta
  0005d	eb 35		 jmp	 SHORT $LN7@comp_spcta
$LN6@comp_spcta:

; 998  :     else if (y->spc_typ == SPCTAB_EOF)  return -1;

  0005f	48 8b 44 24 08	 mov	 rax, QWORD PTR y$[rsp]
  00064	0f b6 00	 movzx	 eax, BYTE PTR [rax]
  00067	83 f8 08	 cmp	 eax, 8
  0006a	75 09		 jne	 SHORT $LN8@comp_spcta
  0006c	b8 ff ff ff ff	 mov	 eax, -1
  00071	eb 21		 jmp	 SHORT $LN1@comp_spcta
  00073	eb 1f		 jmp	 SHORT $LN9@comp_spcta
$LN8@comp_spcta:

; 999  :     else if (x->spc_off < y->spc_off)   return -1;

  00075	48 8b 04 24	 mov	 rax, QWORD PTR x$[rsp]
  00079	48 8b 4c 24 08	 mov	 rcx, QWORD PTR y$[rsp]
  0007e	8b 49 0c	 mov	 ecx, DWORD PTR [rcx+12]
  00081	39 48 0c	 cmp	 DWORD PTR [rax+12], ecx
  00084	73 09		 jae	 SHORT $LN10@comp_spcta
  00086	b8 ff ff ff ff	 mov	 eax, -1
  0008b	eb 07		 jmp	 SHORT $LN1@comp_spcta
  0008d	eb 05		 jmp	 SHORT $LN11@comp_spcta
$LN10@comp_spcta:

; 1000 :     else                                return +1;

  0008f	b8 01 00 00 00	 mov	 eax, 1
$LN11@comp_spcta:
$LN9@comp_spcta:
$LN7@comp_spcta:
$LN5@comp_spcta:
$LN3@comp_spcta:
$LN1@comp_spcta:

; 1001 : }

  00094	48 83 c4 18	 add	 rsp, 24
  00098	c3		 ret	 0
comp_spctab_sort ENDP
_TEXT	ENDS
; Function compile flags: /Odtp
; File C:\papa\MyGit\hyperion-zvector\cckdutil.c
_TEXT	SEGMENT
cmp$ = 32
bufl$ = 36
len2$ = 40
i$ = 44
bufp$ = 48
tv66 = 56
tv85 = 60
tv226 = 64
tv77 = 68
tv93 = 72
tv132 = 76
tv148 = 80
tv159 = 84
tv200 = 88
rn$ = 96
ha$ = 104
__$ArrayPad$ = 112
trk$ = 160
buf$ = 168
heads$ = 176
len$ = 184
cdsk_valid_trk PROC

; 2913 : {

$LN29:
  00000	44 89 4c 24 20	 mov	 DWORD PTR [rsp+32], r9d
  00005	44 89 44 24 18	 mov	 DWORD PTR [rsp+24], r8d
  0000a	48 89 54 24 10	 mov	 QWORD PTR [rsp+16], rdx
  0000f	89 4c 24 08	 mov	 DWORD PTR [rsp+8], ecx
  00013	56		 push	 rsi
  00014	57		 push	 rdi
  00015	48 81 ec 88 00
	00 00		 sub	 rsp, 136		; 00000088H
  0001c	48 8b 05 00 00
	00 00		 mov	 rax, QWORD PTR __security_cookie
  00023	48 33 c4	 xor	 rax, rsp
  00026	48 89 44 24 70	 mov	 QWORD PTR __$ArrayPad$[rsp], rax

; 2914 : CKD_TRKHDR      ha;                     /* Home Address              */
; 2915 : CKD_RECHDR      rn;                     /* Record-n (r0, r1 ... rn)  */
; 2916 : int             i;                      /* Buffer index              */
; 2917 : int             len2;                   /* Positive 'len'            */
; 2918 : BYTE           *bufp;                   /* Buffer pointer            */
; 2919 : BYTE            cmp;                    /* Compression indicator     */
; 2920 : int             bufl;                   /* Buffer length             */
; 2921 : #if defined( HAVE_ZLIB )
; 2922 : uLongf          zlen;
; 2923 : #endif
; 2924 : #if defined( CCKD_BZIP2 )
; 2925 : unsigned int    bz2len;
; 2926 : #endif
; 2927 : #if defined( HAVE_ZLIB ) || defined( CCKD_BZIP2 )
; 2928 : int             rc;                     /* Return code               */
; 2929 : BYTE            buf2[64*1024];          /* Uncompressed buffer       */
; 2930 : #endif
; 2931 : 
; 2932 :     /* Negative len only allowed for comp none */
; 2933 :     len2 = len > 0 ? len : -len;

  0002b	83 bc 24 b8 00
	00 00 00	 cmp	 DWORD PTR len$[rsp], 0
  00033	7e 0d		 jle	 SHORT $LN23@cdsk_valid
  00035	8b 84 24 b8 00
	00 00		 mov	 eax, DWORD PTR len$[rsp]
  0003c	89 44 24 38	 mov	 DWORD PTR tv66[rsp], eax
  00040	eb 0d		 jmp	 SHORT $LN24@cdsk_valid
$LN23@cdsk_valid:
  00042	8b 84 24 b8 00
	00 00		 mov	 eax, DWORD PTR len$[rsp]
  00049	f7 d8		 neg	 eax
  0004b	89 44 24 38	 mov	 DWORD PTR tv66[rsp], eax
$LN24@cdsk_valid:
  0004f	8b 44 24 38	 mov	 eax, DWORD PTR tv66[rsp]
  00053	89 44 24 28	 mov	 DWORD PTR len2$[rsp], eax

; 2934 : 
; 2935 :     if (len2 < CKD_MIN_TRKSIZE)

  00057	48 63 44 24 28	 movsxd	 rax, DWORD PTR len2$[rsp]
  0005c	48 83 f8 0d	 cmp	 rax, 13
  00060	7d 07		 jge	 SHORT $LN7@cdsk_valid

; 2936 :         return 0; // (error: WAY too small!)

  00062	33 c0		 xor	 eax, eax
  00064	e9 0e 03 00 00	 jmp	 $LN1@cdsk_valid
$LN7@cdsk_valid:

; 2937 : 
; 2938 :     /* Save Home Address */
; 2939 :     memcpy( &ha, buf, CKD_TRKHDR_SIZE );

  00069	48 8d 44 24 68	 lea	 rax, QWORD PTR ha$[rsp]
  0006e	48 8b f8	 mov	 rdi, rax
  00071	48 8b b4 24 a8
	00 00 00	 mov	 rsi, QWORD PTR buf$[rsp]
  00079	b9 05 00 00 00	 mov	 ecx, 5
  0007e	f3 a4		 rep movsb

; 2940 :     cmp = ha.bin;

  00080	0f b6 44 24 68	 movzx	 eax, BYTE PTR ha$[rsp]
  00085	88 44 24 20	 mov	 BYTE PTR cmp$[rsp], al

; 2941 : 
; 2942 :     /* Uncompress (inflate or expand) the track/block image... */
; 2943 :     switch (cmp) {

  00089	0f b6 44 24 20	 movzx	 eax, BYTE PTR cmp$[rsp]
  0008e	88 44 24 44	 mov	 BYTE PTR tv77[rsp], al
  00092	80 7c 24 44 00	 cmp	 BYTE PTR tv77[rsp], 0
  00097	74 02		 je	 SHORT $LN8@cdsk_valid
  00099	eb 17		 jmp	 SHORT $LN9@cdsk_valid
$LN8@cdsk_valid:

; 2944 : 
; 2945 :     case CCKD_COMPRESS_NONE:
; 2946 :         bufp = buf;

  0009b	48 8b 84 24 a8
	00 00 00	 mov	 rax, QWORD PTR buf$[rsp]
  000a3	48 89 44 24 30	 mov	 QWORD PTR bufp$[rsp], rax

; 2947 :         bufl = len2;

  000a8	8b 44 24 28	 mov	 eax, DWORD PTR len2$[rsp]
  000ac	89 44 24 24	 mov	 DWORD PTR bufl$[rsp], eax

; 2948 :         break;

  000b0	eb 07		 jmp	 SHORT $LN2@cdsk_valid
$LN9@cdsk_valid:

; 2949 : 
; 2950 : #if defined( HAVE_ZLIB )
; 2951 :     case CCKD_COMPRESS_ZLIB:
; 2952 :         if (len < 0) return 0;
; 2953 :         bufp = (BYTE*) buf2;
; 2954 :         memcpy( buf2, &ha,      CKD_TRKHDR_SIZE );
; 2955 :         zlen = sizeof( buf2 ) - CKD_TRKHDR_SIZE;
; 2956 :         rc = uncompress( buf2 + CKD_TRKHDR_SIZE, &zlen,
; 2957 :                          buf  + CKD_TRKHDR_SIZE,
; 2958 :                          len  - CKD_TRKHDR_SIZE ); if (rc != Z_OK) return 0;
; 2959 :         bufl =     (int) zlen + CKD_TRKHDR_SIZE;
; 2960 :         break;
; 2961 : #endif
; 2962 : 
; 2963 : #if defined( CCKD_BZIP2 )
; 2964 :     case CCKD_COMPRESS_BZIP2:
; 2965 :         if (len < 0) return 0;
; 2966 :         bufp = (BYTE*) buf2;
; 2967 :         memcpy( buf2, &ha,                                CKD_TRKHDR_SIZE );
; 2968 :         bz2len =                         sizeof(  buf2) - CKD_TRKHDR_SIZE;
; 2969 :         rc = BZ2_bzBuffToBuffDecompress( (char*) &buf2[   CKD_TRKHDR_SIZE ], &bz2len,
; 2970 :                                          (char*) &buf [   CKD_TRKHDR_SIZE ],
; 2971 :                                                   len -   CKD_TRKHDR_SIZE, 0, 0 ); if (rc != BZ_OK) return 0;
; 2972 :         bufl =                           (int) bz2len +   CKD_TRKHDR_SIZE;
; 2973 :         break;
; 2974 : #endif
; 2975 : 
; 2976 :     default:
; 2977 :         return 0; // (error: unsupported compression algorithm!)

  000b2	33 c0		 xor	 eax, eax
  000b4	e9 be 02 00 00	 jmp	 $LN1@cdsk_valid
$LN2@cdsk_valid:

; 2978 : 
; 2979 :     } /* end switch (cmp) */
; 2980 : 
; 2981 :     /* FBA check */
; 2982 :     if (heads == 65536)

  000b9	81 bc 24 b0 00
	00 00 00 00 01
	00		 cmp	 DWORD PTR heads$[rsp], 65536 ; 00010000H
  000c4	75 3c		 jne	 SHORT $LN10@cdsk_valid

; 2983 :     {
; 2984 :         if (bufl != CKD_TRKHDR_SIZE + CFBA_BLKGRP_SIZE)

  000c6	48 63 44 24 24	 movsxd	 rax, DWORD PTR bufl$[rsp]
  000cb	48 3d 05 f0 00
	00		 cmp	 rax, 61445		; 0000f005H
  000d1	74 07		 je	 SHORT $LN11@cdsk_valid

; 2985 :             return 0; // (error: bad block group size!)

  000d3	33 c0		 xor	 eax, eax
  000d5	e9 9d 02 00 00	 jmp	 $LN1@cdsk_valid
$LN11@cdsk_valid:

; 2986 : 
; 2987 :         /* FBA devices don't have record headers or end-of-track
; 2988 :            records either, so there's nothing else to validate.
; 2989 :            Just return the length of this "track" (block group).
; 2990 :         */
; 2991 :         return len > 0 ? len : bufl;

  000da	83 bc 24 b8 00
	00 00 00	 cmp	 DWORD PTR len$[rsp], 0
  000e2	7e 0d		 jle	 SHORT $LN25@cdsk_valid
  000e4	8b 84 24 b8 00
	00 00		 mov	 eax, DWORD PTR len$[rsp]
  000eb	89 44 24 3c	 mov	 DWORD PTR tv85[rsp], eax
  000ef	eb 08		 jmp	 SHORT $LN26@cdsk_valid
$LN25@cdsk_valid:
  000f1	8b 44 24 24	 mov	 eax, DWORD PTR bufl$[rsp]
  000f5	89 44 24 3c	 mov	 DWORD PTR tv85[rsp], eax
$LN26@cdsk_valid:
  000f9	8b 44 24 3c	 mov	 eax, DWORD PTR tv85[rsp]
  000fd	e9 75 02 00 00	 jmp	 $LN1@cdsk_valid
$LN10@cdsk_valid:

; 2992 :     }
; 2993 : 
; 2994 :     /* Validate length */
; 2995 :     if (bufl < MIN( MIN( CKD_NULLTRK_SIZE0, CKD_NULLTRK_SIZE1 ), CKD_NULLTRK_SIZE2 ))

  00102	48 63 44 24 24	 movsxd	 rax, DWORD PTR bufl$[rsp]
  00107	48 83 f8 1d	 cmp	 rax, 29
  0010b	7d 07		 jge	 SHORT $LN12@cdsk_valid

; 2996 :         return 0; // (error: too small!)

  0010d	33 c0		 xor	 eax, eax
  0010f	e9 63 02 00 00	 jmp	 $LN1@cdsk_valid
$LN12@cdsk_valid:

; 2997 : 
; 2998 :     /* Check ha */
; 2999 :     if (0
; 3000 :         || fetch_hw( ha.cyl  ) != trk / heads
; 3001 :         || fetch_hw( ha.head ) != trk % heads

  00114	33 c0		 xor	 eax, eax
  00116	85 c0		 test	 eax, eax
  00118	75 62		 jne	 SHORT $LN14@cdsk_valid
  0011a	48 8d 4c 24 69	 lea	 rcx, QWORD PTR ha$[rsp+1]
  0011f	e8 00 00 00 00	 call	 fetch_hw_noswap
  00124	0f b7 c8	 movzx	 ecx, ax
  00127	e8 00 00 00 00	 call	 _byteswap_ushort
  0012c	0f b7 c0	 movzx	 eax, ax
  0012f	89 44 24 48	 mov	 DWORD PTR tv93[rsp], eax
  00133	8b 84 24 a0 00
	00 00		 mov	 eax, DWORD PTR trk$[rsp]
  0013a	99		 cdq
  0013b	f7 bc 24 b0 00
	00 00		 idiv	 DWORD PTR heads$[rsp]
  00142	8b 4c 24 48	 mov	 ecx, DWORD PTR tv93[rsp]
  00146	3b c8		 cmp	 ecx, eax
  00148	75 32		 jne	 SHORT $LN14@cdsk_valid
  0014a	48 8d 4c 24 6b	 lea	 rcx, QWORD PTR ha$[rsp+3]
  0014f	e8 00 00 00 00	 call	 fetch_hw_noswap
  00154	0f b7 c8	 movzx	 ecx, ax
  00157	e8 00 00 00 00	 call	 _byteswap_ushort
  0015c	0f b7 c0	 movzx	 eax, ax
  0015f	89 44 24 4c	 mov	 DWORD PTR tv132[rsp], eax
  00163	8b 84 24 a0 00
	00 00		 mov	 eax, DWORD PTR trk$[rsp]
  0016a	99		 cdq
  0016b	f7 bc 24 b0 00
	00 00		 idiv	 DWORD PTR heads$[rsp]
  00172	8b c2		 mov	 eax, edx
  00174	8b 4c 24 4c	 mov	 ecx, DWORD PTR tv132[rsp]
  00178	3b c8		 cmp	 ecx, eax
  0017a	74 07		 je	 SHORT $LN13@cdsk_valid
$LN14@cdsk_valid:

; 3002 :     )
; 3003 :         return 0; // (error: bad home address record!)

  0017c	33 c0		 xor	 eax, eax
  0017e	e9 f4 01 00 00	 jmp	 $LN1@cdsk_valid
$LN13@cdsk_valid:

; 3004 : 
; 3005 :     /* Get past ha to r0 count */
; 3006 :     bufp += CKD_TRKHDR_SIZE;

  00183	48 8b 44 24 30	 mov	 rax, QWORD PTR bufp$[rsp]
  00188	48 83 c0 05	 add	 rax, 5
  0018c	48 89 44 24 30	 mov	 QWORD PTR bufp$[rsp], rax

; 3007 : 
; 3008 :     /* Save r0 count */
; 3009 :     memcpy( &rn, bufp, CKD_R0_SIZE );

  00191	48 8b 44 24 30	 mov	 rax, QWORD PTR bufp$[rsp]
  00196	48 8b 00	 mov	 rax, QWORD PTR [rax]
  00199	48 89 44 24 60	 mov	 QWORD PTR rn$[rsp], rax

; 3010 : 
; 3011 :     /* Validate r0 count */
; 3012 :     if (0
; 3013 :         || fetch_hw( rn.cyl  ) != fetch_hw( ha.cyl  )
; 3014 :         || fetch_hw( rn.head ) != fetch_hw( ha.head )
; 3015 :         || rn.rec  != 0
; 3016 :         || rn.klen != 0
; 3017 :         || fetch_hw( rn.dlen ) != CKD_R0_DLEN

  0019e	33 c0		 xor	 eax, eax
  001a0	85 c0		 test	 eax, eax
  001a2	0f 85 98 00 00
	00		 jne	 $LN16@cdsk_valid
  001a8	48 8d 4c 24 60	 lea	 rcx, QWORD PTR rn$[rsp]
  001ad	e8 00 00 00 00	 call	 fetch_hw_noswap
  001b2	0f b7 c8	 movzx	 ecx, ax
  001b5	e8 00 00 00 00	 call	 _byteswap_ushort
  001ba	0f b7 c0	 movzx	 eax, ax
  001bd	89 44 24 50	 mov	 DWORD PTR tv148[rsp], eax
  001c1	48 8d 4c 24 69	 lea	 rcx, QWORD PTR ha$[rsp+1]
  001c6	e8 00 00 00 00	 call	 fetch_hw_noswap
  001cb	0f b7 c8	 movzx	 ecx, ax
  001ce	e8 00 00 00 00	 call	 _byteswap_ushort
  001d3	0f b7 c0	 movzx	 eax, ax
  001d6	8b 4c 24 50	 mov	 ecx, DWORD PTR tv148[rsp]
  001da	3b c8		 cmp	 ecx, eax
  001dc	75 62		 jne	 SHORT $LN16@cdsk_valid
  001de	48 8d 4c 24 62	 lea	 rcx, QWORD PTR rn$[rsp+2]
  001e3	e8 00 00 00 00	 call	 fetch_hw_noswap
  001e8	0f b7 c8	 movzx	 ecx, ax
  001eb	e8 00 00 00 00	 call	 _byteswap_ushort
  001f0	0f b7 c0	 movzx	 eax, ax
  001f3	89 44 24 54	 mov	 DWORD PTR tv159[rsp], eax
  001f7	48 8d 4c 24 6b	 lea	 rcx, QWORD PTR ha$[rsp+3]
  001fc	e8 00 00 00 00	 call	 fetch_hw_noswap
  00201	0f b7 c8	 movzx	 ecx, ax
  00204	e8 00 00 00 00	 call	 _byteswap_ushort
  00209	0f b7 c0	 movzx	 eax, ax
  0020c	8b 4c 24 54	 mov	 ecx, DWORD PTR tv159[rsp]
  00210	3b c8		 cmp	 ecx, eax
  00212	75 2c		 jne	 SHORT $LN16@cdsk_valid
  00214	0f b6 44 24 64	 movzx	 eax, BYTE PTR rn$[rsp+4]
  00219	85 c0		 test	 eax, eax
  0021b	75 23		 jne	 SHORT $LN16@cdsk_valid
  0021d	0f b6 44 24 65	 movzx	 eax, BYTE PTR rn$[rsp+5]
  00222	85 c0		 test	 eax, eax
  00224	75 1a		 jne	 SHORT $LN16@cdsk_valid
  00226	48 8d 4c 24 66	 lea	 rcx, QWORD PTR rn$[rsp+6]
  0022b	e8 00 00 00 00	 call	 fetch_hw_noswap
  00230	0f b7 c8	 movzx	 ecx, ax
  00233	e8 00 00 00 00	 call	 _byteswap_ushort
  00238	0f b7 c0	 movzx	 eax, ax
  0023b	83 f8 08	 cmp	 eax, 8
  0023e	74 07		 je	 SHORT $LN15@cdsk_valid
$LN16@cdsk_valid:

; 3018 :     )
; 3019 :         return 0; // (error: bad r0 count!) */)

  00240	33 c0		 xor	 eax, eax
  00242	e9 30 01 00 00	 jmp	 $LN1@cdsk_valid
$LN15@cdsk_valid:

; 3020 : 
; 3021 :     /* Get past r0 count + data to r1 count */
; 3022 :     bufp += (CKD_R0_SIZE + CKD_R0_DLEN);

  00247	48 8b 44 24 30	 mov	 rax, QWORD PTR bufp$[rsp]
  0024c	48 83 c0 10	 add	 rax, 16
  00250	48 89 44 24 30	 mov	 QWORD PTR bufp$[rsp], rax

; 3023 : 
; 3024 :     /* Check user records r1 ... rn */
; 3025 :     for
; 3026 :     (
; 3027 :         /* Buffer index to r1 count */
; 3028 :         i = CKD_TRKHDR_SIZE + (CKD_R0_SIZE + CKD_R0_DLEN);

  00255	c7 44 24 2c 15
	00 00 00	 mov	 DWORD PTR i$[rsp], 21
  0025d	eb 25		 jmp	 SHORT $LN6@cdsk_valid
$LN4@cdsk_valid:

; 3032 : 
; 3033 :         /* Increment buffer index by rn count + key + data */
; 3034 :         i += len2,   /* (len2 is re-calculated each loop iteration) */

  0025f	8b 44 24 28	 mov	 eax, DWORD PTR len2$[rsp]
  00263	8b 4c 24 2c	 mov	 ecx, DWORD PTR i$[rsp]
  00267	03 c8		 add	 ecx, eax
  00269	8b c1		 mov	 eax, ecx
  0026b	89 44 24 2c	 mov	 DWORD PTR i$[rsp], eax
  0026f	48 63 44 24 28	 movsxd	 rax, DWORD PTR len2$[rsp]
  00274	48 8b 4c 24 30	 mov	 rcx, QWORD PTR bufp$[rsp]
  00279	48 03 c8	 add	 rcx, rax
  0027c	48 8b c1	 mov	 rax, rcx
  0027f	48 89 44 24 30	 mov	 QWORD PTR bufp$[rsp], rax
$LN6@cdsk_valid:

; 3029 : 
; 3030 :         /* While possible user records remain... */
; 3031 :         i < bufl - CKD_ENDTRK_SIZE;

  00284	48 63 44 24 2c	 movsxd	 rax, DWORD PTR i$[rsp]
  00289	48 63 4c 24 24	 movsxd	 rcx, DWORD PTR bufl$[rsp]
  0028e	48 83 e9 08	 sub	 rcx, 8
  00292	48 3b c1	 cmp	 rax, rcx
  00295	7d 6e		 jge	 SHORT $LN5@cdsk_valid

; 3035 : 
; 3036 :         /* Get past this record to the next possible user record */
; 3037 :         bufp += len2 /* (len2 is re-calculated each loop iteration) */
; 3038 :     )
; 3039 :     {
; 3040 :         /* Save rn count field */
; 3041 :         memcpy( &rn, bufp, CKD_RECHDR_SIZE );

  00297	48 8b 44 24 30	 mov	 rax, QWORD PTR bufp$[rsp]
  0029c	48 8b 00	 mov	 rax, QWORD PTR [rax]
  0029f	48 89 44 24 60	 mov	 QWORD PTR rn$[rsp], rax

; 3042 : 
; 3043 :         /* PROGRAMMING NOTE: the CKD record CC, HH and R count fields
; 3044 :            are NOT required to match the actual CC and HH of the Home
; 3045 :            Address record! They can be any value the user wants, as
; 3046 :            long as they're valid: the HH value MUST be < the number
; 3047 :            number of heads the device supports, and the R field can't
; 3048 :            be 0 (there can be only ONE r0 and we already processed it).
; 3049 :         */
; 3050 :         if (0
; 3051 :             || fetch_hw( rn.head ) >= heads
; 3052 :             || rn.rec == 0

  002a4	33 c0		 xor	 eax, eax
  002a6	85 c0		 test	 eax, eax
  002a8	75 27		 jne	 SHORT $LN18@cdsk_valid
  002aa	48 8d 4c 24 62	 lea	 rcx, QWORD PTR rn$[rsp+2]
  002af	e8 00 00 00 00	 call	 fetch_hw_noswap
  002b4	0f b7 c8	 movzx	 ecx, ax
  002b7	e8 00 00 00 00	 call	 _byteswap_ushort
  002bc	0f b7 c0	 movzx	 eax, ax
  002bf	3b 84 24 b0 00
	00 00		 cmp	 eax, DWORD PTR heads$[rsp]
  002c6	7d 09		 jge	 SHORT $LN18@cdsk_valid
  002c8	0f b6 44 24 64	 movzx	 eax, BYTE PTR rn$[rsp+4]
  002cd	85 c0		 test	 eax, eax
  002cf	75 02		 jne	 SHORT $LN17@cdsk_valid
$LN18@cdsk_valid:

; 3053 :         )
; 3054 :             break; // (error: bad rn count!)

  002d1	eb 32		 jmp	 SHORT $LN5@cdsk_valid
$LN17@cdsk_valid:

; 3055 : 
; 3056 :         /* Calculate buffer index to the next possible user record */
; 3057 :         len2 = CKD_RECHDR_SIZE + rn.klen + fetch_hw( rn.dlen );

  002d3	0f b6 44 24 65	 movzx	 eax, BYTE PTR rn$[rsp+5]
  002d8	48 89 44 24 58	 mov	 QWORD PTR tv200[rsp], rax
  002dd	48 8d 4c 24 66	 lea	 rcx, QWORD PTR rn$[rsp+6]
  002e2	e8 00 00 00 00	 call	 fetch_hw_noswap
  002e7	0f b7 c8	 movzx	 ecx, ax
  002ea	e8 00 00 00 00	 call	 _byteswap_ushort
  002ef	0f b7 c0	 movzx	 eax, ax
  002f2	48 8b 4c 24 58	 mov	 rcx, QWORD PTR tv200[rsp]
  002f7	48 8d 44 01 08	 lea	 rax, QWORD PTR [rcx+rax+8]
  002fc	89 44 24 28	 mov	 DWORD PTR len2$[rsp], eax

; 3058 :     }

  00300	e9 5a ff ff ff	 jmp	 $LN4@cdsk_valid
$LN5@cdsk_valid:

; 3059 : 
; 3060 :     /* Include length of END-OF-TRACK record too if requested */
; 3061 :     if (len < 0)

  00305	83 bc 24 b8 00
	00 00 00	 cmp	 DWORD PTR len$[rsp], 0
  0030d	7d 0d		 jge	 SHORT $LN19@cdsk_valid

; 3062 :         bufl = i + CKD_ENDTRK_SIZE;

  0030f	48 63 44 24 2c	 movsxd	 rax, DWORD PTR i$[rsp]
  00314	48 83 c0 08	 add	 rax, 8
  00318	89 44 24 24	 mov	 DWORD PTR bufl$[rsp], eax
$LN19@cdsk_valid:

; 3063 : 
; 3064 :     /* Validate track length and existence of END-OF-TRACK record */
; 3065 :     if (0
; 3066 :         || i != (bufl - CKD_ENDTRK_SIZE)
; 3067 :         || memcmp( bufp, &CKD_ENDTRK, CKD_ENDTRK_SIZE ) != 0

  0031c	33 c0		 xor	 eax, eax
  0031e	85 c0		 test	 eax, eax
  00320	75 2e		 jne	 SHORT $LN21@cdsk_valid
  00322	48 63 44 24 2c	 movsxd	 rax, DWORD PTR i$[rsp]
  00327	48 63 4c 24 24	 movsxd	 rcx, DWORD PTR bufl$[rsp]
  0032c	48 83 e9 08	 sub	 rcx, 8
  00330	48 3b c1	 cmp	 rax, rcx
  00333	75 1b		 jne	 SHORT $LN21@cdsk_valid
  00335	41 b8 08 00 00
	00		 mov	 r8d, 8
  0033b	48 8d 15 00 00
	00 00		 lea	 rdx, OFFSET FLAT:CKD_ENDTRK
  00342	48 8b 4c 24 30	 mov	 rcx, QWORD PTR bufp$[rsp]
  00347	e8 00 00 00 00	 call	 memcmp
  0034c	85 c0		 test	 eax, eax
  0034e	74 04		 je	 SHORT $LN20@cdsk_valid
$LN21@cdsk_valid:

; 3068 :     )
; 3069 :         return 0; // (error: missing END-OF-TRACK!)

  00350	33 c0		 xor	 eax, eax
  00352	eb 23		 jmp	 SHORT $LN1@cdsk_valid
$LN20@cdsk_valid:

; 3070 : 
; 3071 :     return len > 0 ? len : bufl;  // (success: return track length)

  00354	83 bc 24 b8 00
	00 00 00	 cmp	 DWORD PTR len$[rsp], 0
  0035c	7e 0d		 jle	 SHORT $LN27@cdsk_valid
  0035e	8b 84 24 b8 00
	00 00		 mov	 eax, DWORD PTR len$[rsp]
  00365	89 44 24 40	 mov	 DWORD PTR tv226[rsp], eax
  00369	eb 08		 jmp	 SHORT $LN28@cdsk_valid
$LN27@cdsk_valid:
  0036b	8b 44 24 24	 mov	 eax, DWORD PTR bufl$[rsp]
  0036f	89 44 24 40	 mov	 DWORD PTR tv226[rsp], eax
$LN28@cdsk_valid:
  00373	8b 44 24 40	 mov	 eax, DWORD PTR tv226[rsp]
$LN1@cdsk_valid:

; 3072 : 
; 3073 : } /* end function cdsk_valid_trk */

  00377	48 8b 4c 24 70	 mov	 rcx, QWORD PTR __$ArrayPad$[rsp]
  0037c	48 33 cc	 xor	 rcx, rsp
  0037f	e8 00 00 00 00	 call	 __security_check_cookie
  00384	48 81 c4 88 00
	00 00		 add	 rsp, 136		; 00000088H
  0038b	5f		 pop	 rdi
  0038c	5e		 pop	 rsi
  0038d	c3		 ret	 0
cdsk_valid_trk ENDP
_TEXT	ENDS
; Function compile flags: /Odtp
; File C:\papa\MyGit\hyperion-zvector\cckdutil.c
_TEXT	SEGMENT
i$ = 144
spctab$ = 152
s$ = 160
len$ = 164
l$ = 168
fd$ = 172
j$ = 176
n$ = 180
rc$ = 184
f$ = 188
off$ = 192
hdrerr$ = 200
heads$ = 204
trktyp$ = 208
trk$ = 212
L1idx$ = 216
lopos$ = 220
comp$ = 224
l2$ = 232
blkgrp$ = 240
trks$ = 244
fsperr$ = 248
rcvtab$ = 256
l1size$ = 264
recovery$ = 268
trksz$ = 272
pass$ = 276
blkgrpsz$ = 280
fsp$ = 288
hipos$ = 296
cyls$ = 300
l1$ = 304
flen$1 = 312
freeblk$ = 320
swapend$ = 328
cyl$ = 332
head$ = 336
ro$ = 340
flen$2 = 344
fpos$3 = 348
l2x$ = 352
tv1102 = 356
l2errs$ = 360
valid$ = 368
ckddasd$ = 372
shadow$ = 376
imgtyp$ = 380
blkgrps$ = 384
tv374 = 388
tv380 = 392
tv399 = 396
tv405 = 400
tv471 = 404
tv477 = 408
tv498 = 412
tv504 = 416
tv533 = 420
tv539 = 424
tv561 = 428
tv567 = 432
blks$ = 436
tv613 = 440
tv619 = 444
tv640 = 448
tv646 = 452
tv677 = 456
tv683 = 460
tv736 = 464
tv742 = 468
tv768 = 472
tv774 = 476
tv791 = 480
tv797 = 484
tv811 = 488
tv815 = 492
tv819 = 496
tv823 = 500
tv827 = 504
tv831 = 508
tv867 = 512
tv871 = 516
tv875 = 520
tv878 = 524
tv891 = 528
tv897 = 532
tv914 = 536
tv920 = 540
tv942 = 544
tv948 = 548
tv965 = 552
tv971 = 556
tv1028 = 560
tv1034 = 564
tv1051 = 568
tv1057 = 572
err$4 = 576
tv1597 = 580
tv1676 = 584
tv1682 = 588
tv1711 = 592
tv1717 = 596
tv1758 = 600
tv1764 = 604
tv1801 = 608
tv1807 = 612
tv1954 = 616
tv1960 = 620
tv2028 = 624
tv2034 = 628
tv2106 = 632
tv2112 = 636
tv2129 = 640
tv2135 = 644
tv2401 = 648
tv2407 = 652
tv2423 = 656
tv2429 = 660
tv2554 = 664
tv2560 = 668
tv2605 = 672
tv2611 = 676
tv2676 = 680
tv2682 = 684
tv2699 = 688
tv2705 = 692
tv2740 = 696
tv2746 = 700
tv2772 = 704
tv2778 = 708
tv2812 = 712
tv2818 = 716
tv2841 = 720
tv2847 = 724
tv3297 = 728
tv3303 = 732
tv3328 = 736
tv3334 = 740
fpos$5 = 744
fbadasd$ = 748
tv3766 = 752
tv3772 = 756
tv3797 = 760
tv3803 = 764
tv3894 = 768
tv3900 = 772
tv3921 = 776
tv3927 = 780
tv3984 = 784
tv4166 = 788
tv4172 = 792
tv4188 = 796
tv4194 = 800
tv4281 = 804
tv4287 = 808
tv4304 = 812
tv4310 = 816
comperrs$ = 820
tv4364 = 824
tv4370 = 828
tv4387 = 832
tv4393 = 836
tv4509 = 840
tv4515 = 844
tv4531 = 848
tv4537 = 852
tv5121 = 856
tv5127 = 860
tv5143 = 864
tv5149 = 868
tv5161 = 872
tv5163 = 876
tv5258 = 880
tv5264 = 884
tv5285 = 888
tv5291 = 892
tv5349 = 896
tv5355 = 900
tv5377 = 904
tv5383 = 908
tv5411 = 912
tv5417 = 916
tv5441 = 920
tv5447 = 924
tv5475 = 928
tv5481 = 932
tv5505 = 936
tv5511 = 940
tv5572 = 944
tv5578 = 948
tv5599 = 952
tv5605 = 956
tv5635 = 960
tv5641 = 964
tv5662 = 968
tv5668 = 972
tv86 = 976
tv226 = 980
tv232 = 984
tv246 = 988
tv286 = 992
tv292 = 996
tv313 = 1000
tv319 = 1004
ckd$6 = 1008
tv2538 = 1016
tv2573 = 1020
tv2577 = 1024
tv2581 = 1028
tv2589 = 1032
tv3157 = 1036
tv3174 = 1040
fdflags$ = 1044
tv206 = 1048
tv210 = 1052
tv268 = 1056
tv367 = 1060
tv392 = 1064
tv2522 = 1068
tv2526 = 1072
tv2530 = 1076
cckd$ = 1080
l2ent$ = 1088
$T7 = 1096
tv279 = 1104
tv306 = 1112
tv2480 = 1120
tv2944 = 1128
tv3498 = 1136
tv3973 = 1144
cckd_maxsize$ = 1152
tv5402 = 1160
tv5432 = 1168
tv5466 = 1176
tv5496 = 1184
tv137 = 1192
tv203 = 1200
tv221 = 1208
tv254 = 1216
tv281 = 1224
tv308 = 1232
tv369 = 1240
tv394 = 1248
tv461 = 1256
tv463 = 1264
tv466 = 1272
tv488 = 1280
tv490 = 1288
tv493 = 1296
tv523 = 1304
tv525 = 1312
tv528 = 1320
tv551 = 1328
tv553 = 1336
tv556 = 1344
tv603 = 1352
tv605 = 1360
tv608 = 1368
tv630 = 1376
tv632 = 1384
tv635 = 1392
tv668 = 1400
tv672 = 1408
tv695 = 1416
tv699 = 1424
tv763 = 1432
tv786 = 1440
tv886 = 1448
tv909 = 1456
tv937 = 1464
tv960 = 1472
tv991 = 1480
tv1046 = 1488
tv1117 = 1496
tv1335 = 1504
tv1340 = 1512
tv1378 = 1520
tv1662 = 1528
tv1668 = 1536
tv1671 = 1544
tv1697 = 1552
tv1703 = 1560
tv1706 = 1568
tv1737 = 1576
tv1744 = 1584
tv1750 = 1592
tv1780 = 1600
tv1787 = 1608
tv1793 = 1616
tv1933 = 1624
tv1939 = 1632
tv1942 = 1640
tv1946 = 1648
tv1949 = 1656
tv1975 = 1664
tv1981 = 1672
tv2016 = 1680
tv2020 = 1688
tv2023 = 1696
tv2101 = 1704
tv2124 = 1712
tv2210 = 1720
tv2319 = 1728
tv2396 = 1736
tv2418 = 1744
tv2466 = 1752
tv2542 = 1760
tv2546 = 1768
tv2549 = 1776
tv2593 = 1784
tv2597 = 1792
tv2600 = 1800
tv2671 = 1808
tv2694 = 1816
tv2725 = 1824
tv2732 = 1832
tv2735 = 1840
tv2757 = 1848
tv2764 = 1856
tv2767 = 1864
tv2800 = 1872
tv2804 = 1880
tv2807 = 1888
tv2829 = 1896
tv2833 = 1904
tv2836 = 1912
tv2954 = 1920
tv3283 = 1928
tv3286 = 1936
tv3289 = 1944
tv3292 = 1952
tv3314 = 1960
tv3317 = 1968
tv3320 = 1976
tv3323 = 1984
tv3508 = 1992
tv3752 = 2000
tv3755 = 2008
tv3758 = 2016
tv3761 = 2024
tv3783 = 2032
tv3786 = 2040
tv3789 = 2048
tv3792 = 2056
tv3884 = 2064
tv3887 = 2072
tv3889 = 2080
tv3911 = 2088
tv3914 = 2096
tv3916 = 2104
tv7362 = 2112
tv4161 = 2120
tv4183 = 2128
tv4276 = 2136
tv4299 = 2144
tv4359 = 2152
tv4382 = 2160
tv4411 = 2168
tv4461 = 2176
tv4504 = 2184
tv4526 = 2192
tv4639 = 2200
tv4665 = 2208
tv4717 = 2216
tv4738 = 2224
tv4962 = 2232
tv5021 = 2240
tv5050 = 2248
tv5070 = 2256
tv5090 = 2264
tv5116 = 2272
tv5138 = 2280
tv5204 = 2288
tv5214 = 2296
tv5248 = 2304
tv5253 = 2312
tv5275 = 2320
tv5280 = 2328
tv5306 = 2336
tv5344 = 2344
tv5366 = 2352
tv5372 = 2360
tv5406 = 2368
tv5436 = 2376
tv5470 = 2384
tv5500 = 2392
tv5530 = 2400
tv5535 = 2408
tv5589 = 2416
tv5594 = 2424
tv5625 = 2432
tv5630 = 2440
tv5652 = 2448
tv5657 = 2456
devhdr$ = 2464
cdevhdr$ = 2976
fst$ = 3488
cdevhdr2$ = 3552
l2tab$ = 4064
empty_l2$ = 6112
space1$8 = 8160
space2$9 = 8192
compmask$ = 8224
buf$10 = 8480
buf$11 = 8544
buf$ = 8608
__$ArrayPad$ = 270752
dev$ = 270800
level$ = 270808
cckd_chkdsk PROC

; 1015 : {

$LN825:
  00000	89 54 24 10	 mov	 DWORD PTR [rsp+16], edx
  00004	48 89 4c 24 08	 mov	 QWORD PTR [rsp+8], rcx
  00009	56		 push	 rsi
  0000a	57		 push	 rdi
  0000b	b8 b8 21 04 00	 mov	 eax, 270776		; 000421b8H
  00010	e8 00 00 00 00	 call	 __chkstk
  00015	48 2b e0	 sub	 rsp, rax
  00018	48 8b 05 00 00
	00 00		 mov	 rax, QWORD PTR __security_cookie
  0001f	48 33 c4	 xor	 rax, rsp
  00022	48 89 84 24 a0
	21 04 00	 mov	 QWORD PTR __$ArrayPad$[rsp], rax

; 1016 : CCKD_EXT       *cckd;                   /* -> ckd extension          */
; 1017 : int             fd;                     /* file descriptor           */
; 1018 : struct stat     fst;                    /* file status information   */
; 1019 : int             fdflags;                /* file descriptor flags     */
; 1020 : U64             cckd_maxsize;           /* max cckd file size        */
; 1021 : int             ro;                     /* 1=file opened read-only   */
; 1022 : int             f, i, j, l, n;          /* work integers             */
; 1023 : int             L1idx, l2x;             /* l1, l2 table indexes      */
; 1024 : U32             imgtyp;                 /* Dasd image type           */
; 1025 : BYTE            compmask[256];          /* compression byte mask
; 1026 :                                            00 - supported
; 1027 :                                            0x - valid, not supported
; 1028 :                                            ff - invalid              */
; 1029 : off_t           off;                    /* file offset               */
; 1030 : int             len;                    /* length to read            */
; 1031 : int             rc;                     /* function return code      */
; 1032 : int             comp;                   /* trkhdr compression byte[0]*/
; 1033 : int             cyl;                    /* trkhdr cyl      bytes[1-2]*/
; 1034 : int             head;                   /* trkhdr head     bytes[3-4]*/
; 1035 : int             trk;                    /* trkhdr calculated trk     */
; 1036 : int             cyls;                   /* number cylinders          */
; 1037 : int             heads;                  /* number heads/cylinder     */
; 1038 : int             trks;                   /* number tracks             */
; 1039 : unsigned int    trksz;                  /* track size                */
; 1040 : int             blks;                   /* number fba blocks         */
; 1041 : int             blkgrp;                 /* current block group nbr   */
; 1042 : int             blkgrps;                /* number fba block groups   */
; 1043 : unsigned int    blkgrpsz;               /* fba block group size      */
; 1044 : int             trktyp;                 /* track type (TRK, BLKGRP)  */
; 1045 : int             ckddasd=0;              /* 1=ckd                     */

  0002a	c7 84 24 74 01
	00 00 00 00 00
	00		 mov	 DWORD PTR ckddasd$[rsp], 0

; 1046 : int             fbadasd=0;              /* 1= fba                    */

  00035	c7 84 24 ec 02
	00 00 00 00 00
	00		 mov	 DWORD PTR fbadasd$[rsp], 0

; 1047 : int             shadow=0;               /* 0xff=shadow file          */

  00040	c7 84 24 78 01
	00 00 00 00 00
	00		 mov	 DWORD PTR shadow$[rsp], 0

; 1048 : int             hdrerr=0;               /* non-zero: header errors   */

  0004b	c7 84 24 c8 00
	00 00 00 00 00
	00		 mov	 DWORD PTR hdrerr$[rsp], 0

; 1049 : int             fsperr=0;               /* 1=rebuild free space      */

  00056	c7 84 24 f8 00
	00 00 00 00 00
	00		 mov	 DWORD PTR fsperr$[rsp], 0

; 1050 : int             comperrs=0;             /* 1=unsupported comp found  */

  00061	c7 84 24 34 03
	00 00 00 00 00
	00		 mov	 DWORD PTR comperrs$[rsp], 0

; 1051 : int             recovery=0;             /* 1=perform track recovery  */

  0006c	c7 84 24 0c 01
	00 00 00 00 00
	00		 mov	 DWORD PTR recovery$[rsp], 0

; 1052 : int             valid;                  /* 1=valid trk recovered     */
; 1053 : int             l1size;                 /* size of l1 table          */
; 1054 : int             swapend=0;              /* 1=call cckd_swapend       */

  00077	c7 84 24 48 01
	00 00 00 00 00
	00		 mov	 DWORD PTR swapend$[rsp], 0

; 1055 : U32             lopos, hipos;           /* low/high file positions   */
; 1056 : int             pass;                   /* recovery pass number (fba)*/
; 1057 : int             s;                      /* space table index         */
; 1058 : SPCTAB         *spctab=NULL;            /* -> space table            */

  00082	48 c7 84 24 98
	00 00 00 00 00
	00 00		 mov	 QWORD PTR spctab$[rsp], 0

; 1059 : BYTE           *l2errs=NULL;            /* l2 error table            */

  0008e	48 c7 84 24 68
	01 00 00 00 00
	00 00		 mov	 QWORD PTR l2errs$[rsp], 0

; 1060 : BYTE           *rcvtab=NULL;            /* recovered tracks          */

  0009a	48 c7 84 24 00
	01 00 00 00 00
	00 00		 mov	 QWORD PTR rcvtab$[rsp], 0

; 1061 : CKD_DEVHDR      devhdr;                 /* device header             */
; 1062 : CCKD_DEVHDR     cdevhdr;                /* compressed device header  */
; 1063 : CCKD_DEVHDR     cdevhdr2;               /* compressed device header 2*/
; 1064 : CCKD_L1ENT     *l1=NULL;                /* -> level 1 table          */

  000a6	48 c7 84 24 30
	01 00 00 00 00
	00 00		 mov	 QWORD PTR l1$[rsp], 0

; 1065 : CCKD_L2ENT      l2ent;                  /* level 2 entry             */
; 1066 : CCKD_L2ENT      l2tab[256];             /* level 2 table             */
; 1067 : CCKD_L2ENT    **l2=NULL;                /* -> level 2 table array    */

  000b2	48 c7 84 24 e8
	00 00 00 00 00
	00 00		 mov	 QWORD PTR l2$[rsp], 0

; 1068 : CCKD_L2ENT      empty_l2[256];          /* Empty l2 table            */
; 1069 : CCKD_FREEBLK    freeblk;                /* free block                */
; 1070 : CCKD_FREEBLK   *fsp=NULL;               /* free blocks (new format)  */

  000be	48 c7 84 24 20
	01 00 00 00 00
	00 00		 mov	 QWORD PTR fsp$[rsp], 0

; 1071 : BYTE            buf[4*65536];           /* buffer                    */
; 1072 : 
; 1073 :     /* Get fd */
; 1074 :     cckd = dev->cckd_ext;

  000ca	48 8b 84 24 d0
	21 04 00	 mov	 rax, QWORD PTR dev$[rsp]
  000d2	48 8b 80 08 13
	00 00		 mov	 rax, QWORD PTR [rax+4872]
  000d9	48 89 84 24 38
	04 00 00	 mov	 QWORD PTR cckd$[rsp], rax

; 1075 :     if (cckd == NULL)

  000e1	48 83 bc 24 38
	04 00 00 00	 cmp	 QWORD PTR cckd$[rsp], 0
  000ea	75 17		 jne	 SHORT $LN144@cckd_chkds

; 1076 :         fd = dev->fd;

  000ec	48 8b 84 24 d0
	21 04 00	 mov	 rax, QWORD PTR dev$[rsp]
  000f4	8b 80 ac 01 00
	00		 mov	 eax, DWORD PTR [rax+428]
  000fa	89 84 24 ac 00
	00 00		 mov	 DWORD PTR fd$[rsp], eax
  00101	eb 22		 jmp	 SHORT $LN145@cckd_chkds
$LN144@cckd_chkds:

; 1077 :     else
; 1078 :         fd = cckd->fd[cckd->sfn];

  00103	48 8b 84 24 38
	04 00 00	 mov	 rax, QWORD PTR cckd$[rsp]
  0010b	48 63 40 3c	 movsxd	 rax, DWORD PTR [rax+60]
  0010f	48 8b 8c 24 38
	04 00 00	 mov	 rcx, QWORD PTR cckd$[rsp]
  00117	8b 84 81 f0 00
	00 00		 mov	 eax, DWORD PTR [rcx+rax*4+240]
  0011e	89 84 24 ac 00
	00 00		 mov	 DWORD PTR fd$[rsp], eax
$LN145@cckd_chkds:

; 1079 : 
; 1080 :     /* Get some file information */
; 1081 :     if ( fstat (fd, &fst) < 0 )

  00125	48 8d 94 24 a0
	0d 00 00	 lea	 rdx, QWORD PTR fst$[rsp]
  0012d	8b 8c 24 ac 00
	00 00		 mov	 ecx, DWORD PTR fd$[rsp]
  00134	ff 15 00 00 00
	00		 call	 QWORD PTR __imp__fstat64
  0013a	85 c0		 test	 eax, eax
  0013c	7d 05		 jge	 SHORT $LN146@cckd_chkds

; 1082 :         goto cdsk_fstat_error;

  0013e	e9 4b a1 00 00	 jmp	 $cdsk_fstat_error$826
$LN146@cckd_chkds:

; 1083 :     gui_fprintf (stderr, "SIZE=%"PRIu64"\n", (U64) fst.st_size);

  00143	48 8b 05 00 00
	00 00		 mov	 rax, QWORD PTR __imp_extgui
  0014a	83 38 00	 cmp	 DWORD PTR [rax], 0
  0014d	74 23		 je	 SHORT $LN147@cckd_chkds
  0014f	b9 02 00 00 00	 mov	 ecx, 2
  00154	ff 15 00 00 00
	00		 call	 QWORD PTR __imp___acrt_iob_func
  0015a	4c 8b 84 24 b8
	0d 00 00	 mov	 r8, QWORD PTR fst$[rsp+24]
  00162	48 8d 15 00 00
	00 00		 lea	 rdx, OFFSET FLAT:$SG169978
  00169	48 8b c8	 mov	 rcx, rax
  0016c	ff 15 00 00 00
	00		 call	 QWORD PTR __imp_w32_fprintf
$LN147@cckd_chkds:

; 1084 :     hipos = (U32)fst.st_size;

  00172	8b 84 24 b8 0d
	00 00		 mov	 eax, DWORD PTR fst$[rsp+24]
  00179	89 84 24 28 01
	00 00		 mov	 DWORD PTR hipos$[rsp], eax

; 1085 :     cckd_maxsize = CCKD_MAXSIZE;

  00180	b8 ff ff ff ff	 mov	 eax, -1			; ffffffffH
  00185	48 89 84 24 80
	04 00 00	 mov	 QWORD PTR cckd_maxsize$[rsp], rax

; 1086 :     fdflags = get_file_accmode_flags(fd);

  0018d	8b 8c 24 ac 00
	00 00		 mov	 ecx, DWORD PTR fd$[rsp]
  00194	ff 15 00 00 00
	00		 call	 QWORD PTR __imp_get_file_accmode_flags
  0019a	89 84 24 14 04
	00 00		 mov	 DWORD PTR fdflags$[rsp], eax

; 1087 :     ro = (fdflags & O_RDWR) == 0;

  001a1	8b 84 24 14 04
	00 00		 mov	 eax, DWORD PTR fdflags$[rsp]
  001a8	83 e0 02	 and	 eax, 2
  001ab	85 c0		 test	 eax, eax
  001ad	75 0d		 jne	 SHORT $LN505@cckd_chkds
  001af	c7 84 24 d0 03
	00 00 01 00 00
	00		 mov	 DWORD PTR tv86[rsp], 1
  001ba	eb 0b		 jmp	 SHORT $LN506@cckd_chkds
$LN505@cckd_chkds:
  001bc	c7 84 24 d0 03
	00 00 00 00 00
	00		 mov	 DWORD PTR tv86[rsp], 0
$LN506@cckd_chkds:
  001c7	8b 84 24 d0 03
	00 00		 mov	 eax, DWORD PTR tv86[rsp]
  001ce	89 84 24 54 01
	00 00		 mov	 DWORD PTR ro$[rsp], eax

; 1088 : 
; 1089 :     /* Build table for compression byte test */
; 1090 :     memset (compmask, 0xff, 256);

  001d5	48 8d 84 24 20
	20 00 00	 lea	 rax, QWORD PTR compmask$[rsp]
  001dd	48 8b f8	 mov	 rdi, rax
  001e0	b8 ff 00 00 00	 mov	 eax, 255		; 000000ffH
  001e5	b9 00 01 00 00	 mov	 ecx, 256		; 00000100H
  001ea	f3 aa		 rep stosb

; 1091 :     compmask[0] = 0;

  001ec	b8 01 00 00 00	 mov	 eax, 1
  001f1	48 6b c0 00	 imul	 rax, rax, 0
  001f5	48 89 84 24 48
	04 00 00	 mov	 QWORD PTR $T7[rsp], rax
  001fd	48 81 bc 24 48
	04 00 00 00 01
	00 00		 cmp	 QWORD PTR $T7[rsp], 256	; 00000100H
  00209	73 02		 jae	 SHORT $LN507@cckd_chkds
  0020b	eb 05		 jmp	 SHORT $LN508@cckd_chkds
$LN507@cckd_chkds:
  0020d	e8 00 00 00 00	 call	 __report_rangecheckfailure
$LN508@cckd_chkds:
  00212	48 8b 84 24 48
	04 00 00	 mov	 rax, QWORD PTR $T7[rsp]
  0021a	c6 84 04 20 20
	00 00 00	 mov	 BYTE PTR compmask$[rsp+rax], 0

; 1092 : #if defined( HAVE_ZLIB )
; 1093 :     compmask[CCKD_COMPRESS_ZLIB] = 0;
; 1094 : #else
; 1095 :     compmask[CCKD_COMPRESS_ZLIB] = 1;

  00222	b8 01 00 00 00	 mov	 eax, 1
  00227	48 6b c0 01	 imul	 rax, rax, 1
  0022b	c6 84 04 20 20
	00 00 01	 mov	 BYTE PTR compmask$[rsp+rax], 1

; 1096 : #endif
; 1097 : #if defined( CCKD_BZIP2 )
; 1098 :     compmask[CCKD_COMPRESS_BZIP2] = 0;
; 1099 : #else
; 1100 :     compmask[CCKD_COMPRESS_BZIP2] = 2;

  00233	b8 01 00 00 00	 mov	 eax, 1
  00238	48 6b c0 02	 imul	 rax, rax, 2
  0023c	c6 84 04 20 20
	00 00 02	 mov	 BYTE PTR compmask$[rsp+rax], 2

; 1101 : #endif
; 1102 : 
; 1103 :     /*---------------------------------------------------------------
; 1104 :      * Header checks
; 1105 :      *---------------------------------------------------------------*/
; 1106 : 
; 1107 :     /* Read the device header */
; 1108 :     off = 0;

  00244	48 c7 84 24 c0
	00 00 00 00 00
	00 00		 mov	 QWORD PTR off$[rsp], 0

; 1109 :     if ( lseek (fd, off, SEEK_SET) < 0)

  00250	45 33 c0	 xor	 r8d, r8d
  00253	48 8b 94 24 c0
	00 00 00	 mov	 rdx, QWORD PTR off$[rsp]
  0025b	8b 8c 24 ac 00
	00 00		 mov	 ecx, DWORD PTR fd$[rsp]
  00262	ff 15 00 00 00
	00		 call	 QWORD PTR __imp__lseeki64
  00268	48 85 c0	 test	 rax, rax
  0026b	7d 05		 jge	 SHORT $LN148@cckd_chkds

; 1110 :         goto cdsk_lseek_error;

  0026d	e9 52 a2 00 00	 jmp	 $cdsk_lseek_error$827
$LN148@cckd_chkds:

; 1111 :     gui_fprintf (stderr, "POS=%"PRIu64"\n", (U64) lseek( fd, 0, SEEK_CUR ));

  00272	48 8b 05 00 00
	00 00		 mov	 rax, QWORD PTR __imp_extgui
  00279	83 38 00	 cmp	 DWORD PTR [rax], 0
  0027c	74 43		 je	 SHORT $LN149@cckd_chkds
  0027e	41 b8 01 00 00
	00		 mov	 r8d, 1
  00284	33 d2		 xor	 edx, edx
  00286	8b 8c 24 ac 00
	00 00		 mov	 ecx, DWORD PTR fd$[rsp]
  0028d	ff 15 00 00 00
	00		 call	 QWORD PTR __imp__lseeki64
  00293	48 89 84 24 a8
	04 00 00	 mov	 QWORD PTR tv137[rsp], rax
  0029b	b9 02 00 00 00	 mov	 ecx, 2
  002a0	ff 15 00 00 00
	00		 call	 QWORD PTR __imp___acrt_iob_func
  002a6	48 8b 8c 24 a8
	04 00 00	 mov	 rcx, QWORD PTR tv137[rsp]
  002ae	4c 8b c1	 mov	 r8, rcx
  002b1	48 8d 15 00 00
	00 00		 lea	 rdx, OFFSET FLAT:$SG169981
  002b8	48 8b c8	 mov	 rcx, rax
  002bb	ff 15 00 00 00
	00		 call	 QWORD PTR __imp_w32_fprintf
$LN149@cckd_chkds:

; 1112 :     len = CKD_DEVHDR_SIZE;

  002c1	c7 84 24 a4 00
	00 00 00 02 00
	00		 mov	 DWORD PTR len$[rsp], 512 ; 00000200H

; 1113 :     if ((rc = read (fd, &devhdr, len)) != len)

  002cc	44 8b 84 24 a4
	00 00 00	 mov	 r8d, DWORD PTR len$[rsp]
  002d4	48 8d 94 24 a0
	09 00 00	 lea	 rdx, QWORD PTR devhdr$[rsp]
  002dc	8b 8c 24 ac 00
	00 00		 mov	 ecx, DWORD PTR fd$[rsp]
  002e3	ff 15 00 00 00
	00		 call	 QWORD PTR __imp_read
  002e9	89 84 24 b8 00
	00 00		 mov	 DWORD PTR rc$[rsp], eax
  002f0	8b 84 24 a4 00
	00 00		 mov	 eax, DWORD PTR len$[rsp]
  002f7	39 84 24 b8 00
	00 00		 cmp	 DWORD PTR rc$[rsp], eax
  002fe	74 05		 je	 SHORT $LN150@cckd_chkds

; 1114 :         goto cdsk_read_error;

  00300	e9 0f a4 00 00	 jmp	 $cdsk_read_error$828
$LN150@cckd_chkds:

; 1115 : 
; 1116 :     /* Device header checks */
; 1117 :     dev->cckd64 = 0;

  00305	48 8b 84 24 d0
	21 04 00	 mov	 rax, QWORD PTR dev$[rsp]
  0030d	0f b6 80 10 13
	00 00		 movzx	 eax, BYTE PTR [rax+4880]
  00314	24 fe		 and	 al, 254			; 000000feH
  00316	48 8b 8c 24 d0
	21 04 00	 mov	 rcx, QWORD PTR dev$[rsp]
  0031e	88 81 10 13 00
	00		 mov	 BYTE PTR [rcx+4880], al

; 1118 :     imgtyp = dh_devid_typ( devhdr.dh_devid );

  00324	48 8d 8c 24 a0
	09 00 00	 lea	 rcx, QWORD PTR devhdr$[rsp]
  0032c	e8 00 00 00 00	 call	 dh_devid_typ
  00331	89 84 24 7c 01
	00 00		 mov	 DWORD PTR imgtyp$[rsp], eax

; 1119 : 
; 1120 :          if (imgtyp & CKD32_CMP_OR_SF_TYP) ckddasd = 1;

  00338	8b 84 24 7c 01
	00 00		 mov	 eax, DWORD PTR imgtyp$[rsp]
  0033f	25 00 00 00 60	 and	 eax, 1610612736		; 60000000H
  00344	85 c0		 test	 eax, eax
  00346	74 10		 je	 SHORT $LN151@cckd_chkds
  00348	c7 84 24 74 01
	00 00 01 00 00
	00		 mov	 DWORD PTR ckddasd$[rsp], 1
  00353	e9 0e 02 00 00	 jmp	 $LN152@cckd_chkds
$LN151@cckd_chkds:

; 1121 :     else if (imgtyp & FBA32_CMP_OR_SF_TYP) fbadasd = 1;

  00358	8b 84 24 7c 01
	00 00		 mov	 eax, DWORD PTR imgtyp$[rsp]
  0035f	25 00 60 00 00	 and	 eax, 24576		; 00006000H
  00364	85 c0		 test	 eax, eax
  00366	74 10		 je	 SHORT $LN153@cckd_chkds
  00368	c7 84 24 ec 02
	00 00 01 00 00
	00		 mov	 DWORD PTR fbadasd$[rsp], 1
  00373	e9 ee 01 00 00	 jmp	 $LN154@cckd_chkds
$LN153@cckd_chkds:

; 1122 :     else
; 1123 :     {
; 1124 :         if (imgtyp & ANY64_CMP_OR_SF_TYP)

  00378	8b 84 24 7c 01
	00 00		 mov	 eax, DWORD PTR imgtyp$[rsp]
  0037f	25 60 00 60 00	 and	 eax, 6291552		; 00600060H
  00384	85 c0		 test	 eax, eax
  00386	74 38		 je	 SHORT $LN155@cckd_chkds

; 1125 :         {
; 1126 :             dev->cckd64 = 1;

  00388	48 8b 84 24 d0
	21 04 00	 mov	 rax, QWORD PTR dev$[rsp]
  00390	0f b6 80 10 13
	00 00		 movzx	 eax, BYTE PTR [rax+4880]
  00397	0c 01		 or	 al, 1
  00399	48 8b 8c 24 d0
	21 04 00	 mov	 rcx, QWORD PTR dev$[rsp]
  003a1	88 81 10 13 00
	00		 mov	 BYTE PTR [rcx+4880], al

; 1127 :             return cckd64_chkdsk( dev, level );

  003a7	8b 94 24 d8 21
	04 00		 mov	 edx, DWORD PTR level$[rsp]
  003ae	48 8b 8c 24 d0
	21 04 00	 mov	 rcx, QWORD PTR dev$[rsp]
  003b6	e8 00 00 00 00	 call	 cckd64_chkdsk
  003bb	e9 25 ad 00 00	 jmp	 $LN1@cckd_chkds
$LN155@cckd_chkds:

; 1128 :         }
; 1129 : 
; 1130 :         // "%1d:%04X CCKD file %s: not a compressed dasd file"
; 1131 :         if (dev->batch)

  003c0	48 8b 84 24 d0
	21 04 00	 mov	 rax, QWORD PTR dev$[rsp]
  003c8	8b 80 f8 05 00
	00		 mov	 eax, DWORD PTR [rax+1528]
  003ce	c1 e8 0a	 shr	 eax, 10
  003d1	83 e0 01	 and	 eax, 1
  003d4	85 c0		 test	 eax, eax
  003d6	0f 84 ad 00 00
	00		 je	 $LN156@cckd_chkds

; 1132 :             FWRMSG( stdout, HHC00356, "E", SSID_TO_LCSS( dev->ssid ),

  003dc	48 8b 84 24 d0
	21 04 00	 mov	 rax, QWORD PTR dev$[rsp]
  003e4	48 05 a4 00 00
	00		 add	 rax, 164		; 000000a4H
  003ea	48 89 84 24 b0
	04 00 00	 mov	 QWORD PTR tv203[rsp], rax
  003f2	48 8b 8c 24 d0
	21 04 00	 mov	 rcx, QWORD PTR dev$[rsp]
  003fa	0f b7 49 48	 movzx	 ecx, WORD PTR [rcx+72]
  003fe	89 8c 24 18 04
	00 00		 mov	 DWORD PTR tv206[rsp], ecx
  00405	48 8b 94 24 d0
	21 04 00	 mov	 rdx, QWORD PTR dev$[rsp]
  0040d	0f b7 52 44	 movzx	 edx, WORD PTR [rdx+68]
  00411	d1 fa		 sar	 edx, 1
  00413	89 94 24 1c 04
	00 00		 mov	 DWORD PTR tv210[rsp], edx
  0041a	b9 01 00 00 00	 mov	 ecx, 1
  0041f	ff 15 00 00 00
	00		 call	 QWORD PTR __imp___acrt_iob_func
  00425	48 8b 8c 24 b0
	04 00 00	 mov	 rcx, QWORD PTR tv203[rsp]
  0042d	48 89 4c 24 48	 mov	 QWORD PTR [rsp+72], rcx
  00432	8b 8c 24 18 04
	00 00		 mov	 ecx, DWORD PTR tv206[rsp]
  00439	89 4c 24 40	 mov	 DWORD PTR [rsp+64], ecx
  0043d	8b 8c 24 1c 04
	00 00		 mov	 ecx, DWORD PTR tv210[rsp]
  00444	89 4c 24 38	 mov	 DWORD PTR [rsp+56], ecx
  00448	48 8d 0d 00 00
	00 00		 lea	 rcx, OFFSET FLAT:$SG169990
  0044f	48 89 4c 24 30	 mov	 QWORD PTR [rsp+48], rcx
  00454	48 8d 0d 00 00
	00 00		 lea	 rcx, OFFSET FLAT:$SG169991
  0045b	48 89 4c 24 28	 mov	 QWORD PTR [rsp+40], rcx
  00460	48 89 44 24 20	 mov	 QWORD PTR [rsp+32], rax
  00465	41 b9 03 00 00
	00		 mov	 r9d, 3
  0046b	4c 8d 05 00 00
	00 00		 lea	 r8, OFFSET FLAT:$SG169992
  00472	ba 6d 04 00 00	 mov	 edx, 1133		; 0000046dH
  00477	48 8d 0d 00 00
	00 00		 lea	 rcx, OFFSET FLAT:$SG169993
  0047e	ff 15 00 00 00
	00		 call	 QWORD PTR __imp_fwritemsg
  00484	e9 d8 00 00 00	 jmp	 $LN157@cckd_chkds
$LN156@cckd_chkds:

; 1133 :                 dev->devnum, dev->filename );
; 1134 :         else
; 1135 :             WRMSG( HHC00356, "E", LCSS_DEVNUM, dev->filename );

  00489	48 83 bc 24 d0
	21 04 00 00	 cmp	 QWORD PTR dev$[rsp], 0
  00492	74 15		 je	 SHORT $LN509@cckd_chkds
  00494	48 8b 84 24 d0
	21 04 00	 mov	 rax, QWORD PTR dev$[rsp]
  0049c	0f b7 40 48	 movzx	 eax, WORD PTR [rax+72]
  004a0	89 84 24 d4 03
	00 00		 mov	 DWORD PTR tv226[rsp], eax
  004a7	eb 0b		 jmp	 SHORT $LN510@cckd_chkds
$LN509@cckd_chkds:
  004a9	c7 84 24 d4 03
	00 00 00 00 00
	00		 mov	 DWORD PTR tv226[rsp], 0
$LN510@cckd_chkds:
  004b4	48 83 bc 24 d0
	21 04 00 00	 cmp	 QWORD PTR dev$[rsp], 0
  004bd	74 17		 je	 SHORT $LN511@cckd_chkds
  004bf	48 8b 84 24 d0
	21 04 00	 mov	 rax, QWORD PTR dev$[rsp]
  004c7	0f b7 40 44	 movzx	 eax, WORD PTR [rax+68]
  004cb	d1 f8		 sar	 eax, 1
  004cd	89 84 24 d8 03
	00 00		 mov	 DWORD PTR tv232[rsp], eax
  004d4	eb 0b		 jmp	 SHORT $LN512@cckd_chkds
$LN511@cckd_chkds:
  004d6	c7 84 24 d8 03
	00 00 00 00 00
	00		 mov	 DWORD PTR tv232[rsp], 0
$LN512@cckd_chkds:
  004e1	48 8b 84 24 d0
	21 04 00	 mov	 rax, QWORD PTR dev$[rsp]
  004e9	48 05 a4 00 00
	00		 add	 rax, 164		; 000000a4H
  004ef	48 89 84 24 b8
	04 00 00	 mov	 QWORD PTR tv221[rsp], rax
  004f7	b9 01 00 00 00	 mov	 ecx, 1
  004fc	ff 15 00 00 00
	00		 call	 QWORD PTR __imp___acrt_iob_func
  00502	48 8b 8c 24 b8
	04 00 00	 mov	 rcx, QWORD PTR tv221[rsp]
  0050a	48 89 4c 24 48	 mov	 QWORD PTR [rsp+72], rcx
  0050f	8b 8c 24 d4 03
	00 00		 mov	 ecx, DWORD PTR tv226[rsp]
  00516	89 4c 24 40	 mov	 DWORD PTR [rsp+64], ecx
  0051a	8b 8c 24 d8 03
	00 00		 mov	 ecx, DWORD PTR tv232[rsp]
  00521	89 4c 24 38	 mov	 DWORD PTR [rsp+56], ecx
  00525	48 8d 0d 00 00
	00 00		 lea	 rcx, OFFSET FLAT:$SG169994
  0052c	48 89 4c 24 30	 mov	 QWORD PTR [rsp+48], rcx
  00531	48 8d 0d 00 00
	00 00		 lea	 rcx, OFFSET FLAT:$SG169995
  00538	48 89 4c 24 28	 mov	 QWORD PTR [rsp+40], rcx
  0053d	48 89 44 24 20	 mov	 QWORD PTR [rsp+32], rax
  00542	41 b9 03 00 00
	00		 mov	 r9d, 3
  00548	4c 8d 05 00 00
	00 00		 lea	 r8, OFFSET FLAT:$SG169996
  0054f	ba 6f 04 00 00	 mov	 edx, 1135		; 0000046fH
  00554	48 8d 0d 00 00
	00 00		 lea	 rcx, OFFSET FLAT:$SG169997
  0055b	ff 15 00 00 00
	00		 call	 QWORD PTR __imp_fwritemsg
$LN157@cckd_chkds:

; 1136 :         goto cdsk_error;

  00561	e9 6f ab 00 00	 jmp	 $cdsk_error$829
$LN154@cckd_chkds:
$LN152@cckd_chkds:

; 1137 :     }
; 1138 : 
; 1139 :     if (imgtyp & ANY32_SF_TYP)

  00566	8b 84 24 7c 01
	00 00		 mov	 eax, DWORD PTR imgtyp$[rsp]
  0056d	25 00 20 00 20	 and	 eax, 536879104		; 20002000H
  00572	85 c0		 test	 eax, eax
  00574	74 0b		 je	 SHORT $LN158@cckd_chkds

; 1140 :         shadow = 0xff;

  00576	c7 84 24 78 01
	00 00 ff 00 00
	00		 mov	 DWORD PTR shadow$[rsp], 255 ; 000000ffH
$LN158@cckd_chkds:

; 1141 : 
; 1142 :     trktyp = ckddasd ? SPCTAB_TRK : SPCTAB_BLKGRP;

  00581	83 bc 24 74 01
	00 00 00	 cmp	 DWORD PTR ckddasd$[rsp], 0
  00589	74 0d		 je	 SHORT $LN513@cckd_chkds
  0058b	c7 84 24 dc 03
	00 00 05 00 00
	00		 mov	 DWORD PTR tv246[rsp], 5
  00596	eb 0b		 jmp	 SHORT $LN514@cckd_chkds
$LN513@cckd_chkds:
  00598	c7 84 24 dc 03
	00 00 06 00 00
	00		 mov	 DWORD PTR tv246[rsp], 6
$LN514@cckd_chkds:
  005a3	8b 84 24 dc 03
	00 00		 mov	 eax, DWORD PTR tv246[rsp]
  005aa	89 84 24 d0 00
	00 00		 mov	 DWORD PTR trktyp$[rsp], eax

; 1143 : 
; 1144 :     /* Read the cckd device header */
; 1145 :     off = CCKD_DEVHDR_POS;

  005b1	48 c7 84 24 c0
	00 00 00 00 02
	00 00		 mov	 QWORD PTR off$[rsp], 512 ; 00000200H

; 1146 :     if ( lseek (fd, off, SEEK_SET) < 0)

  005bd	45 33 c0	 xor	 r8d, r8d
  005c0	48 8b 94 24 c0
	00 00 00	 mov	 rdx, QWORD PTR off$[rsp]
  005c8	8b 8c 24 ac 00
	00 00		 mov	 ecx, DWORD PTR fd$[rsp]
  005cf	ff 15 00 00 00
	00		 call	 QWORD PTR __imp__lseeki64
  005d5	48 85 c0	 test	 rax, rax
  005d8	7d 05		 jge	 SHORT $LN159@cckd_chkds

; 1147 :         goto cdsk_lseek_error;

  005da	e9 e5 9e 00 00	 jmp	 $cdsk_lseek_error$827
$LN159@cckd_chkds:

; 1148 :     gui_fprintf (stderr, "POS=%"PRIu64"\n", (U64) lseek( fd, 0, SEEK_CUR ));

  005df	48 8b 05 00 00
	00 00		 mov	 rax, QWORD PTR __imp_extgui
  005e6	83 38 00	 cmp	 DWORD PTR [rax], 0
  005e9	74 43		 je	 SHORT $LN160@cckd_chkds
  005eb	41 b8 01 00 00
	00		 mov	 r8d, 1
  005f1	33 d2		 xor	 edx, edx
  005f3	8b 8c 24 ac 00
	00 00		 mov	 ecx, DWORD PTR fd$[rsp]
  005fa	ff 15 00 00 00
	00		 call	 QWORD PTR __imp__lseeki64
  00600	48 89 84 24 c0
	04 00 00	 mov	 QWORD PTR tv254[rsp], rax
  00608	b9 02 00 00 00	 mov	 ecx, 2
  0060d	ff 15 00 00 00
	00		 call	 QWORD PTR __imp___acrt_iob_func
  00613	48 8b 8c 24 c0
	04 00 00	 mov	 rcx, QWORD PTR tv254[rsp]
  0061b	4c 8b c1	 mov	 r8, rcx
  0061e	48 8d 15 00 00
	00 00		 lea	 rdx, OFFSET FLAT:$SG170001
  00625	48 8b c8	 mov	 rcx, rax
  00628	ff 15 00 00 00
	00		 call	 QWORD PTR __imp_w32_fprintf
$LN160@cckd_chkds:

; 1149 :     len = CCKD_DEVHDR_SIZE;

  0062e	c7 84 24 a4 00
	00 00 00 02 00
	00		 mov	 DWORD PTR len$[rsp], 512 ; 00000200H

; 1150 :     if ((rc = read (fd, &cdevhdr, len)) != len)

  00639	44 8b 84 24 a4
	00 00 00	 mov	 r8d, DWORD PTR len$[rsp]
  00641	48 8d 94 24 a0
	0b 00 00	 lea	 rdx, QWORD PTR cdevhdr$[rsp]
  00649	8b 8c 24 ac 00
	00 00		 mov	 ecx, DWORD PTR fd$[rsp]
  00650	ff 15 00 00 00
	00		 call	 QWORD PTR __imp_read
  00656	89 84 24 b8 00
	00 00		 mov	 DWORD PTR rc$[rsp], eax
  0065d	8b 84 24 a4 00
	00 00		 mov	 eax, DWORD PTR len$[rsp]
  00664	39 84 24 b8 00
	00 00		 cmp	 DWORD PTR rc$[rsp], eax
  0066b	74 05		 je	 SHORT $LN161@cckd_chkds

; 1151 :         goto cdsk_read_error;

  0066d	e9 a2 a0 00 00	 jmp	 $cdsk_read_error$828
$LN161@cckd_chkds:

; 1152 : 
; 1153 :     /* Endianess check */
; 1154 :     if ((cdevhdr.cdh_opts & CCKD_OPT_BIGEND) != cckd_def_opt_bigend())

  00672	0f b6 84 24 a3
	0b 00 00	 movzx	 eax, BYTE PTR cdevhdr$[rsp+3]
  0067a	83 e0 02	 and	 eax, 2
  0067d	89 84 24 20 04
	00 00		 mov	 DWORD PTR tv268[rsp], eax
  00684	e8 00 00 00 00	 call	 cckd_def_opt_bigend
  00689	8b 8c 24 20 04
	00 00		 mov	 ecx, DWORD PTR tv268[rsp]
  00690	3b c8		 cmp	 ecx, eax
  00692	0f 84 a7 02 00
	00		 je	 $LN162@cckd_chkds

; 1155 :     {
; 1156 :         if (!ro)

  00698	83 bc 24 54 01
	00 00 00	 cmp	 DWORD PTR ro$[rsp], 0
  006a0	0f 85 81 02 00
	00		 jne	 $LN163@cckd_chkds

; 1157 :         {
; 1158 :             if(dev->batch)

  006a6	48 8b 84 24 d0
	21 04 00	 mov	 rax, QWORD PTR dev$[rsp]
  006ae	8b 80 f8 05 00
	00		 mov	 eax, DWORD PTR [rax+1528]
  006b4	c1 e8 0a	 shr	 eax, 10
  006b7	83 e0 01	 and	 eax, 1
  006ba	85 c0		 test	 eax, eax
  006bc	0f 84 19 01 00
	00		 je	 $LN165@cckd_chkds

; 1159 :                 // "%1d:%04X CCKD file %s: converting to %s"
; 1160 :                 FWRMSG( stdout, HHC00357, "I", LCSS_DEVNUM, dev->filename,

  006c2	0f b6 84 24 a3
	0b 00 00	 movzx	 eax, BYTE PTR cdevhdr$[rsp+3]
  006ca	83 e0 02	 and	 eax, 2
  006cd	85 c0		 test	 eax, eax
  006cf	74 11		 je	 SHORT $LN515@cckd_chkds
  006d1	48 8d 05 00 00
	00 00		 lea	 rax, OFFSET FLAT:$SG170008
  006d8	48 89 84 24 50
	04 00 00	 mov	 QWORD PTR tv279[rsp], rax
  006e0	eb 0f		 jmp	 SHORT $LN516@cckd_chkds
$LN515@cckd_chkds:
  006e2	48 8d 05 00 00
	00 00		 lea	 rax, OFFSET FLAT:$SG170009
  006e9	48 89 84 24 50
	04 00 00	 mov	 QWORD PTR tv279[rsp], rax
$LN516@cckd_chkds:
  006f1	48 83 bc 24 d0
	21 04 00 00	 cmp	 QWORD PTR dev$[rsp], 0
  006fa	74 15		 je	 SHORT $LN517@cckd_chkds
  006fc	48 8b 84 24 d0
	21 04 00	 mov	 rax, QWORD PTR dev$[rsp]
  00704	0f b7 40 48	 movzx	 eax, WORD PTR [rax+72]
  00708	89 84 24 e0 03
	00 00		 mov	 DWORD PTR tv286[rsp], eax
  0070f	eb 0b		 jmp	 SHORT $LN518@cckd_chkds
$LN517@cckd_chkds:
  00711	c7 84 24 e0 03
	00 00 00 00 00
	00		 mov	 DWORD PTR tv286[rsp], 0
$LN518@cckd_chkds:
  0071c	48 83 bc 24 d0
	21 04 00 00	 cmp	 QWORD PTR dev$[rsp], 0
  00725	74 17		 je	 SHORT $LN519@cckd_chkds
  00727	48 8b 84 24 d0
	21 04 00	 mov	 rax, QWORD PTR dev$[rsp]
  0072f	0f b7 40 44	 movzx	 eax, WORD PTR [rax+68]
  00733	d1 f8		 sar	 eax, 1
  00735	89 84 24 e4 03
	00 00		 mov	 DWORD PTR tv292[rsp], eax
  0073c	eb 0b		 jmp	 SHORT $LN520@cckd_chkds
$LN519@cckd_chkds:
  0073e	c7 84 24 e4 03
	00 00 00 00 00
	00		 mov	 DWORD PTR tv292[rsp], 0
$LN520@cckd_chkds:
  00749	48 8b 84 24 d0
	21 04 00	 mov	 rax, QWORD PTR dev$[rsp]
  00751	48 05 a4 00 00
	00		 add	 rax, 164		; 000000a4H
  00757	48 89 84 24 c8
	04 00 00	 mov	 QWORD PTR tv281[rsp], rax
  0075f	b9 01 00 00 00	 mov	 ecx, 1
  00764	ff 15 00 00 00
	00		 call	 QWORD PTR __imp___acrt_iob_func
  0076a	48 8b 8c 24 50
	04 00 00	 mov	 rcx, QWORD PTR tv279[rsp]
  00772	48 89 4c 24 50	 mov	 QWORD PTR [rsp+80], rcx
  00777	48 8b 8c 24 c8
	04 00 00	 mov	 rcx, QWORD PTR tv281[rsp]
  0077f	48 89 4c 24 48	 mov	 QWORD PTR [rsp+72], rcx
  00784	8b 8c 24 e0 03
	00 00		 mov	 ecx, DWORD PTR tv286[rsp]
  0078b	89 4c 24 40	 mov	 DWORD PTR [rsp+64], ecx
  0078f	8b 8c 24 e4 03
	00 00		 mov	 ecx, DWORD PTR tv292[rsp]
  00796	89 4c 24 38	 mov	 DWORD PTR [rsp+56], ecx
  0079a	48 8d 0d 00 00
	00 00		 lea	 rcx, OFFSET FLAT:$SG170010
  007a1	48 89 4c 24 30	 mov	 QWORD PTR [rsp+48], rcx
  007a6	48 8d 0d 00 00
	00 00		 lea	 rcx, OFFSET FLAT:$SG170011
  007ad	48 89 4c 24 28	 mov	 QWORD PTR [rsp+40], rcx
  007b2	48 89 44 24 20	 mov	 QWORD PTR [rsp+32], rax
  007b7	41 b9 03 00 00
	00		 mov	 r9d, 3
  007bd	4c 8d 05 00 00
	00 00		 lea	 r8, OFFSET FLAT:$SG170012
  007c4	ba 8a 04 00 00	 mov	 edx, 1162		; 0000048aH
  007c9	48 8d 0d 00 00
	00 00		 lea	 rcx, OFFSET FLAT:$SG170013
  007d0	ff 15 00 00 00
	00		 call	 QWORD PTR __imp_fwritemsg
  007d6	e9 14 01 00 00	 jmp	 $LN166@cckd_chkds
$LN165@cckd_chkds:

; 1161 :                         (cdevhdr.cdh_opts & CCKD_OPT_BIGEND) ?
; 1162 :                             "little-endian" : "big-endian" );
; 1163 :             else
; 1164 :                 // "%1d:%04X CCKD file %s: converting to %s"
; 1165 :                 WRMSG( HHC00357, "I", LCSS_DEVNUM, dev->filename,

  007db	0f b6 84 24 a3
	0b 00 00	 movzx	 eax, BYTE PTR cdevhdr$[rsp+3]
  007e3	83 e0 02	 and	 eax, 2
  007e6	85 c0		 test	 eax, eax
  007e8	74 11		 je	 SHORT $LN521@cckd_chkds
  007ea	48 8d 05 00 00
	00 00		 lea	 rax, OFFSET FLAT:$SG170014
  007f1	48 89 84 24 58
	04 00 00	 mov	 QWORD PTR tv306[rsp], rax
  007f9	eb 0f		 jmp	 SHORT $LN522@cckd_chkds
$LN521@cckd_chkds:
  007fb	48 8d 05 00 00
	00 00		 lea	 rax, OFFSET FLAT:$SG170015
  00802	48 89 84 24 58
	04 00 00	 mov	 QWORD PTR tv306[rsp], rax
$LN522@cckd_chkds:
  0080a	48 83 bc 24 d0
	21 04 00 00	 cmp	 QWORD PTR dev$[rsp], 0
  00813	74 15		 je	 SHORT $LN523@cckd_chkds
  00815	48 8b 84 24 d0
	21 04 00	 mov	 rax, QWORD PTR dev$[rsp]
  0081d	0f b7 40 48	 movzx	 eax, WORD PTR [rax+72]
  00821	89 84 24 e8 03
	00 00		 mov	 DWORD PTR tv313[rsp], eax
  00828	eb 0b		 jmp	 SHORT $LN524@cckd_chkds
$LN523@cckd_chkds:
  0082a	c7 84 24 e8 03
	00 00 00 00 00
	00		 mov	 DWORD PTR tv313[rsp], 0
$LN524@cckd_chkds:
  00835	48 83 bc 24 d0
	21 04 00 00	 cmp	 QWORD PTR dev$[rsp], 0
  0083e	74 17		 je	 SHORT $LN525@cckd_chkds
  00840	48 8b 84 24 d0
	21 04 00	 mov	 rax, QWORD PTR dev$[rsp]
  00848	0f b7 40 44	 movzx	 eax, WORD PTR [rax+68]
  0084c	d1 f8		 sar	 eax, 1
  0084e	89 84 24 ec 03
	00 00		 mov	 DWORD PTR tv319[rsp], eax
  00855	eb 0b		 jmp	 SHORT $LN526@cckd_chkds
$LN525@cckd_chkds:
  00857	c7 84 24 ec 03
	00 00 00 00 00
	00		 mov	 DWORD PTR tv319[rsp], 0
$LN526@cckd_chkds:
  00862	48 8b 84 24 d0
	21 04 00	 mov	 rax, QWORD PTR dev$[rsp]
  0086a	48 05 a4 00 00
	00		 add	 rax, 164		; 000000a4H
  00870	48 89 84 24 d0
	04 00 00	 mov	 QWORD PTR tv308[rsp], rax
  00878	b9 01 00 00 00	 mov	 ecx, 1
  0087d	ff 15 00 00 00
	00		 call	 QWORD PTR __imp___acrt_iob_func
  00883	48 8b 8c 24 58
	04 00 00	 mov	 rcx, QWORD PTR tv306[rsp]
  0088b	48 89 4c 24 50	 mov	 QWORD PTR [rsp+80], rcx
  00890	48 8b 8c 24 d0
	04 00 00	 mov	 rcx, QWORD PTR tv308[rsp]
  00898	48 89 4c 24 48	 mov	 QWORD PTR [rsp+72], rcx
  0089d	8b 8c 24 e8 03
	00 00		 mov	 ecx, DWORD PTR tv313[rsp]
  008a4	89 4c 24 40	 mov	 DWORD PTR [rsp+64], ecx
  008a8	8b 8c 24 ec 03
	00 00		 mov	 ecx, DWORD PTR tv319[rsp]
  008af	89 4c 24 38	 mov	 DWORD PTR [rsp+56], ecx
  008b3	48 8d 0d 00 00
	00 00		 lea	 rcx, OFFSET FLAT:$SG170016
  008ba	48 89 4c 24 30	 mov	 QWORD PTR [rsp+48], rcx
  008bf	48 8d 0d 00 00
	00 00		 lea	 rcx, OFFSET FLAT:$SG170017
  008c6	48 89 4c 24 28	 mov	 QWORD PTR [rsp+40], rcx
  008cb	48 89 44 24 20	 mov	 QWORD PTR [rsp+32], rax
  008d0	41 b9 03 00 00
	00		 mov	 r9d, 3
  008d6	4c 8d 05 00 00
	00 00		 lea	 r8, OFFSET FLAT:$SG170018
  008dd	ba 8f 04 00 00	 mov	 edx, 1167		; 0000048fH
  008e2	48 8d 0d 00 00
	00 00		 lea	 rcx, OFFSET FLAT:$SG170019
  008e9	ff 15 00 00 00
	00		 call	 QWORD PTR __imp_fwritemsg
$LN166@cckd_chkds:

; 1166 :                        (cdevhdr.cdh_opts & CCKD_OPT_BIGEND) ?
; 1167 :                         "little-endian" : "big-endian" );
; 1168 : 
; 1169 :             if (cckd_swapend (dev) < 0)

  008ef	48 8b 8c 24 d0
	21 04 00	 mov	 rcx, QWORD PTR dev$[rsp]
  008f7	e8 00 00 00 00	 call	 cckd_swapend
  008fc	85 c0		 test	 eax, eax
  008fe	7d 05		 jge	 SHORT $LN167@cckd_chkds

; 1170 :                 goto cdsk_error;

  00900	e9 d0 a7 00 00	 jmp	 $cdsk_error$829
$LN167@cckd_chkds:

; 1171 : 
; 1172 :             if (level < 0)

  00905	83 bc 24 d8 21
	04 00 00	 cmp	 DWORD PTR level$[rsp], 0
  0090d	7d 0b		 jge	 SHORT $LN168@cckd_chkds

; 1173 :                 level = 0;

  0090f	c7 84 24 d8 21
	04 00 00 00 00
	00		 mov	 DWORD PTR level$[rsp], 0
$LN168@cckd_chkds:

; 1174 : 
; 1175 :             swapend = 0;

  0091a	c7 84 24 48 01
	00 00 00 00 00
	00		 mov	 DWORD PTR swapend$[rsp], 0

; 1176 :         }

  00925	eb 0b		 jmp	 SHORT $LN164@cckd_chkds
$LN163@cckd_chkds:

; 1177 :         else
; 1178 :             swapend = 1;

  00927	c7 84 24 48 01
	00 00 01 00 00
	00		 mov	 DWORD PTR swapend$[rsp], 1
$LN164@cckd_chkds:

; 1179 : 
; 1180 :         cckd_swapend_chdr (&cdevhdr);

  00932	48 8d 8c 24 a0
	0b 00 00	 lea	 rcx, QWORD PTR cdevhdr$[rsp]
  0093a	e8 00 00 00 00	 call	 cckd_swapend_chdr
$LN162@cckd_chkds:

; 1181 :     }
; 1182 : 
; 1183 :     /* ckd checks */
; 1184 :     if (ckddasd)

  0093f	83 bc 24 74 01
	00 00 00	 cmp	 DWORD PTR ckddasd$[rsp], 0
  00947	0f 84 0b 08 00
	00		 je	 $LN169@cckd_chkds

; 1185 :     {
; 1186 :         CKDDEV *ckd;
; 1187 : 
; 1188 :         FETCH_LE_FW( heads,  devhdr.dh_heads   );

  0094d	48 8d 8c 24 a8
	09 00 00	 lea	 rcx, QWORD PTR devhdr$[rsp+8]
  00955	e8 00 00 00 00	 call	 fetch_fw_noswap
  0095a	8b c8		 mov	 ecx, eax
  0095c	e8 00 00 00 00	 call	 _byteswap_ulong
  00961	8b c8		 mov	 ecx, eax
  00963	e8 00 00 00 00	 call	 _byteswap_ulong
  00968	89 84 24 cc 00
	00 00		 mov	 DWORD PTR heads$[rsp], eax

; 1189 :         FETCH_LE_FW( cyls,  cdevhdr.cdh_cyls   );

  0096f	48 8d 8c 24 c8
	0b 00 00	 lea	 rcx, QWORD PTR cdevhdr$[rsp+40]
  00977	e8 00 00 00 00	 call	 fetch_fw_noswap
  0097c	8b c8		 mov	 ecx, eax
  0097e	e8 00 00 00 00	 call	 _byteswap_ulong
  00983	8b c8		 mov	 ecx, eax
  00985	e8 00 00 00 00	 call	 _byteswap_ulong
  0098a	89 84 24 2c 01
	00 00		 mov	 DWORD PTR cyls$[rsp], eax

; 1190 :         FETCH_LE_FW( trksz,  devhdr.dh_trksize );

  00991	48 8d 8c 24 ac
	09 00 00	 lea	 rcx, QWORD PTR devhdr$[rsp+12]
  00999	e8 00 00 00 00	 call	 fetch_fw_noswap
  0099e	8b c8		 mov	 ecx, eax
  009a0	e8 00 00 00 00	 call	 _byteswap_ulong
  009a5	8b c8		 mov	 ecx, eax
  009a7	e8 00 00 00 00	 call	 _byteswap_ulong
  009ac	89 84 24 10 01
	00 00		 mov	 DWORD PTR trksz$[rsp], eax

; 1191 : 
; 1192 :         trks = heads * cyls;

  009b3	8b 84 24 cc 00
	00 00		 mov	 eax, DWORD PTR heads$[rsp]
  009ba	0f af 84 24 2c
	01 00 00	 imul	 eax, DWORD PTR cyls$[rsp]
  009c2	89 84 24 f4 00
	00 00		 mov	 DWORD PTR trks$[rsp], eax

; 1193 : 
; 1194 :         /* ckd dasd lookup */
; 1195 :         ckd = dasd_lookup (DASD_CKDDEV, NULL, devhdr.dh_devtyp, 0);

  009c9	0f b6 84 24 b0
	09 00 00	 movzx	 eax, BYTE PTR devhdr$[rsp+16]
  009d1	45 33 c9	 xor	 r9d, r9d
  009d4	44 8b c0	 mov	 r8d, eax
  009d7	33 d2		 xor	 edx, edx
  009d9	b9 01 00 00 00	 mov	 ecx, 1
  009de	e8 00 00 00 00	 call	 dasd_lookup
  009e3	48 89 84 24 f0
	03 00 00	 mov	 QWORD PTR ckd$6[rsp], rax

; 1196 :         if (ckd == NULL)

  009eb	48 83 bc 24 f0
	03 00 00 00	 cmp	 QWORD PTR ckd$6[rsp], 0
  009f4	0f 85 22 02 00
	00		 jne	 $LN171@cckd_chkds

; 1197 :         {
; 1198 :             if(dev->batch)

  009fa	48 8b 84 24 d0
	21 04 00	 mov	 rax, QWORD PTR dev$[rsp]
  00a02	8b 80 f8 05 00
	00		 mov	 eax, DWORD PTR [rax+1528]
  00a08	c1 e8 0a	 shr	 eax, 10
  00a0b	83 e0 01	 and	 eax, 1
  00a0e	85 c0		 test	 eax, eax
  00a10	0f 84 03 01 00
	00		 je	 $LN172@cckd_chkds

; 1199 :                 // "%1d:%04X CCKD file %s: dasd lookup error type %02X cylinders %d"
; 1200 :                 FWRMSG( stdout, HHC00361, "E", LCSS_DEVNUM, dev->filename,

  00a16	48 83 bc 24 d0
	21 04 00 00	 cmp	 QWORD PTR dev$[rsp], 0
  00a1f	74 15		 je	 SHORT $LN527@cckd_chkds
  00a21	48 8b 84 24 d0
	21 04 00	 mov	 rax, QWORD PTR dev$[rsp]
  00a29	0f b7 40 48	 movzx	 eax, WORD PTR [rax+72]
  00a2d	89 84 24 84 01
	00 00		 mov	 DWORD PTR tv374[rsp], eax
  00a34	eb 0b		 jmp	 SHORT $LN528@cckd_chkds
$LN527@cckd_chkds:
  00a36	c7 84 24 84 01
	00 00 00 00 00
	00		 mov	 DWORD PTR tv374[rsp], 0
$LN528@cckd_chkds:
  00a41	48 83 bc 24 d0
	21 04 00 00	 cmp	 QWORD PTR dev$[rsp], 0
  00a4a	74 17		 je	 SHORT $LN529@cckd_chkds
  00a4c	48 8b 84 24 d0
	21 04 00	 mov	 rax, QWORD PTR dev$[rsp]
  00a54	0f b7 40 44	 movzx	 eax, WORD PTR [rax+68]
  00a58	d1 f8		 sar	 eax, 1
  00a5a	89 84 24 88 01
	00 00		 mov	 DWORD PTR tv380[rsp], eax
  00a61	eb 0b		 jmp	 SHORT $LN530@cckd_chkds
$LN529@cckd_chkds:
  00a63	c7 84 24 88 01
	00 00 00 00 00
	00		 mov	 DWORD PTR tv380[rsp], 0
$LN530@cckd_chkds:
  00a6e	0f b6 84 24 b0
	09 00 00	 movzx	 eax, BYTE PTR devhdr$[rsp+16]
  00a76	89 84 24 24 04
	00 00		 mov	 DWORD PTR tv367[rsp], eax
  00a7d	48 8b 8c 24 d0
	21 04 00	 mov	 rcx, QWORD PTR dev$[rsp]
  00a85	48 81 c1 a4 00
	00 00		 add	 rcx, 164		; 000000a4H
  00a8c	48 89 8c 24 d8
	04 00 00	 mov	 QWORD PTR tv369[rsp], rcx
  00a94	b9 01 00 00 00	 mov	 ecx, 1
  00a99	ff 15 00 00 00
	00		 call	 QWORD PTR __imp___acrt_iob_func
  00a9f	8b 8c 24 2c 01
	00 00		 mov	 ecx, DWORD PTR cyls$[rsp]
  00aa6	89 4c 24 58	 mov	 DWORD PTR [rsp+88], ecx
  00aaa	8b 8c 24 24 04
	00 00		 mov	 ecx, DWORD PTR tv367[rsp]
  00ab1	89 4c 24 50	 mov	 DWORD PTR [rsp+80], ecx
  00ab5	48 8b 8c 24 d8
	04 00 00	 mov	 rcx, QWORD PTR tv369[rsp]
  00abd	48 89 4c 24 48	 mov	 QWORD PTR [rsp+72], rcx
  00ac2	8b 8c 24 84 01
	00 00		 mov	 ecx, DWORD PTR tv374[rsp]
  00ac9	89 4c 24 40	 mov	 DWORD PTR [rsp+64], ecx
  00acd	8b 8c 24 88 01
	00 00		 mov	 ecx, DWORD PTR tv380[rsp]
  00ad4	89 4c 24 38	 mov	 DWORD PTR [rsp+56], ecx
  00ad8	48 8d 0d 00 00
	00 00		 lea	 rcx, OFFSET FLAT:$SG170027
  00adf	48 89 4c 24 30	 mov	 QWORD PTR [rsp+48], rcx
  00ae4	48 8d 0d 00 00
	00 00		 lea	 rcx, OFFSET FLAT:$SG170028
  00aeb	48 89 4c 24 28	 mov	 QWORD PTR [rsp+40], rcx
  00af0	48 89 44 24 20	 mov	 QWORD PTR [rsp+32], rax
  00af5	41 b9 03 00 00
	00		 mov	 r9d, 3
  00afb	4c 8d 05 00 00
	00 00		 lea	 r8, OFFSET FLAT:$SG170029
  00b02	ba b1 04 00 00	 mov	 edx, 1201		; 000004b1H
  00b07	48 8d 0d 00 00
	00 00		 lea	 rcx, OFFSET FLAT:$SG170030
  00b0e	ff 15 00 00 00
	00		 call	 QWORD PTR __imp_fwritemsg
  00b14	e9 fe 00 00 00	 jmp	 $LN173@cckd_chkds
$LN172@cckd_chkds:

; 1201 :                         devhdr.dh_devtyp, cyls);
; 1202 :             else
; 1203 :                 // "%1d:%04X CCKD file %s: dasd lookup error type %02X cylinders %d"
; 1204 :                 WRMSG( HHC00361, "E", LCSS_DEVNUM, dev->filename,

  00b19	48 83 bc 24 d0
	21 04 00 00	 cmp	 QWORD PTR dev$[rsp], 0
  00b22	74 15		 je	 SHORT $LN531@cckd_chkds
  00b24	48 8b 84 24 d0
	21 04 00	 mov	 rax, QWORD PTR dev$[rsp]
  00b2c	0f b7 40 48	 movzx	 eax, WORD PTR [rax+72]
  00b30	89 84 24 8c 01
	00 00		 mov	 DWORD PTR tv399[rsp], eax
  00b37	eb 0b		 jmp	 SHORT $LN532@cckd_chkds
$LN531@cckd_chkds:
  00b39	c7 84 24 8c 01
	00 00 00 00 00
	00		 mov	 DWORD PTR tv399[rsp], 0
$LN532@cckd_chkds:
  00b44	48 83 bc 24 d0
	21 04 00 00	 cmp	 QWORD PTR dev$[rsp], 0
  00b4d	74 17		 je	 SHORT $LN533@cckd_chkds
  00b4f	48 8b 84 24 d0
	21 04 00	 mov	 rax, QWORD PTR dev$[rsp]
  00b57	0f b7 40 44	 movzx	 eax, WORD PTR [rax+68]
  00b5b	d1 f8		 sar	 eax, 1
  00b5d	89 84 24 90 01
	00 00		 mov	 DWORD PTR tv405[rsp], eax
  00b64	eb 0b		 jmp	 SHORT $LN534@cckd_chkds
$LN533@cckd_chkds:
  00b66	c7 84 24 90 01
	00 00 00 00 00
	00		 mov	 DWORD PTR tv405[rsp], 0
$LN534@cckd_chkds:
  00b71	0f b6 84 24 b0
	09 00 00	 movzx	 eax, BYTE PTR devhdr$[rsp+16]
  00b79	89 84 24 28 04
	00 00		 mov	 DWORD PTR tv392[rsp], eax
  00b80	48 8b 8c 24 d0
	21 04 00	 mov	 rcx, QWORD PTR dev$[rsp]
  00b88	48 81 c1 a4 00
	00 00		 add	 rcx, 164		; 000000a4H
  00b8f	48 89 8c 24 e0
	04 00 00	 mov	 QWORD PTR tv394[rsp], rcx
  00b97	b9 01 00 00 00	 mov	 ecx, 1
  00b9c	ff 15 00 00 00
	00		 call	 QWORD PTR __imp___acrt_iob_func
  00ba2	8b 8c 24 2c 01
	00 00		 mov	 ecx, DWORD PTR cyls$[rsp]
  00ba9	89 4c 24 58	 mov	 DWORD PTR [rsp+88], ecx
  00bad	8b 8c 24 28 04
	00 00		 mov	 ecx, DWORD PTR tv392[rsp]
  00bb4	89 4c 24 50	 mov	 DWORD PTR [rsp+80], ecx
  00bb8	48 8b 8c 24 e0
	04 00 00	 mov	 rcx, QWORD PTR tv394[rsp]
  00bc0	48 89 4c 24 48	 mov	 QWORD PTR [rsp+72], rcx
  00bc5	8b 8c 24 8c 01
	00 00		 mov	 ecx, DWORD PTR tv399[rsp]
  00bcc	89 4c 24 40	 mov	 DWORD PTR [rsp+64], ecx
  00bd0	8b 8c 24 90 01
	00 00		 mov	 ecx, DWORD PTR tv405[rsp]
  00bd7	89 4c 24 38	 mov	 DWORD PTR [rsp+56], ecx
  00bdb	48 8d 0d 00 00
	00 00		 lea	 rcx, OFFSET FLAT:$SG170031
  00be2	48 89 4c 24 30	 mov	 QWORD PTR [rsp+48], rcx
  00be7	48 8d 0d 00 00
	00 00		 lea	 rcx, OFFSET FLAT:$SG170032
  00bee	48 89 4c 24 28	 mov	 QWORD PTR [rsp+40], rcx
  00bf3	48 89 44 24 20	 mov	 QWORD PTR [rsp+32], rax
  00bf8	41 b9 03 00 00
	00		 mov	 r9d, 3
  00bfe	4c 8d 05 00 00
	00 00		 lea	 r8, OFFSET FLAT:$SG170033
  00c05	ba b5 04 00 00	 mov	 edx, 1205		; 000004b5H
  00c0a	48 8d 0d 00 00
	00 00		 lea	 rcx, OFFSET FLAT:$SG170034
  00c11	ff 15 00 00 00
	00		 call	 QWORD PTR __imp_fwritemsg
$LN173@cckd_chkds:

; 1205 :                       devhdr.dh_devtyp, cyls);
; 1206 :              goto cdsk_error;

  00c17	e9 b9 a4 00 00	 jmp	 $cdsk_error$829
$LN171@cckd_chkds:

; 1207 :         }
; 1208 : 
; 1209 :         /* track size check */
; 1210 :         n = CKD_TRKHDR_SIZE

  00c1c	48 8b 84 24 f0
	03 00 00	 mov	 rax, QWORD PTR ckd$6[rsp]
  00c24	0f b7 40 16	 movzx	 eax, WORD PTR [rax+22]
  00c28	48 83 c0 25	 add	 rax, 37			; 00000025H
  00c2c	89 84 24 b4 00
	00 00		 mov	 DWORD PTR n$[rsp], eax

; 1211 :           + CKD_RECHDR_SIZE + CKD_R0_DLEN
; 1212 :           + CKD_RECHDR_SIZE + ckd->r1       /* max data length */
; 1213 :           + CKD_ENDTRK_SIZE;
; 1214 :         n = ((n+511)/512)*512;

  00c33	8b 84 24 b4 00
	00 00		 mov	 eax, DWORD PTR n$[rsp]
  00c3a	05 ff 01 00 00	 add	 eax, 511		; 000001ffH
  00c3f	99		 cdq
  00c40	81 e2 ff 01 00
	00		 and	 edx, 511		; 000001ffH
  00c46	03 c2		 add	 eax, edx
  00c48	c1 f8 09	 sar	 eax, 9
  00c4b	69 c0 00 02 00
	00		 imul	 eax, eax, 512		; 00000200H
  00c51	89 84 24 b4 00
	00 00		 mov	 DWORD PTR n$[rsp], eax

; 1215 :         if ((int)trksz != n)

  00c58	8b 84 24 b4 00
	00 00		 mov	 eax, DWORD PTR n$[rsp]
  00c5f	39 84 24 10 01
	00 00		 cmp	 DWORD PTR trksz$[rsp], eax
  00c66	0f 84 62 02 00
	00		 je	 $LN174@cckd_chkds

; 1216 :         {
; 1217 :             if(dev->batch)

  00c6c	48 8b 84 24 d0
	21 04 00	 mov	 rax, QWORD PTR dev$[rsp]
  00c74	8b 80 f8 05 00
	00		 mov	 eax, DWORD PTR [rax+1528]
  00c7a	c1 e8 0a	 shr	 eax, 10
  00c7d	83 e0 01	 and	 eax, 1
  00c80	85 c0		 test	 eax, eax
  00c82	0f 84 23 01 00
	00		 je	 $LN175@cckd_chkds

; 1218 :                 // "%1d:%04X CCKD file %s: bad %s %"PRId64", expecting %"PRId64
; 1219 :                 FWRMSG( stdout, HHC00362, "E", LCSS_DEVNUM, dev->filename,

  00c88	48 83 bc 24 d0
	21 04 00 00	 cmp	 QWORD PTR dev$[rsp], 0
  00c91	74 15		 je	 SHORT $LN535@cckd_chkds
  00c93	48 8b 84 24 d0
	21 04 00	 mov	 rax, QWORD PTR dev$[rsp]
  00c9b	0f b7 40 48	 movzx	 eax, WORD PTR [rax+72]
  00c9f	89 84 24 94 01
	00 00		 mov	 DWORD PTR tv471[rsp], eax
  00ca6	eb 0b		 jmp	 SHORT $LN536@cckd_chkds
$LN535@cckd_chkds:
  00ca8	c7 84 24 94 01
	00 00 00 00 00
	00		 mov	 DWORD PTR tv471[rsp], 0
$LN536@cckd_chkds:
  00cb3	48 83 bc 24 d0
	21 04 00 00	 cmp	 QWORD PTR dev$[rsp], 0
  00cbc	74 17		 je	 SHORT $LN537@cckd_chkds
  00cbe	48 8b 84 24 d0
	21 04 00	 mov	 rax, QWORD PTR dev$[rsp]
  00cc6	0f b7 40 44	 movzx	 eax, WORD PTR [rax+68]
  00cca	d1 f8		 sar	 eax, 1
  00ccc	89 84 24 98 01
	00 00		 mov	 DWORD PTR tv477[rsp], eax
  00cd3	eb 0b		 jmp	 SHORT $LN538@cckd_chkds
$LN537@cckd_chkds:
  00cd5	c7 84 24 98 01
	00 00 00 00 00
	00		 mov	 DWORD PTR tv477[rsp], 0
$LN538@cckd_chkds:
  00ce0	48 63 84 24 b4
	00 00 00	 movsxd	 rax, DWORD PTR n$[rsp]
  00ce8	48 89 84 24 e8
	04 00 00	 mov	 QWORD PTR tv461[rsp], rax
  00cf0	8b 8c 24 10 01
	00 00		 mov	 ecx, DWORD PTR trksz$[rsp]
  00cf7	48 89 8c 24 f0
	04 00 00	 mov	 QWORD PTR tv463[rsp], rcx
  00cff	48 8b 94 24 d0
	21 04 00	 mov	 rdx, QWORD PTR dev$[rsp]
  00d07	48 81 c2 a4 00
	00 00		 add	 rdx, 164		; 000000a4H
  00d0e	48 89 94 24 f8
	04 00 00	 mov	 QWORD PTR tv466[rsp], rdx
  00d16	b9 01 00 00 00	 mov	 ecx, 1
  00d1b	ff 15 00 00 00
	00		 call	 QWORD PTR __imp___acrt_iob_func
  00d21	48 8b 8c 24 e8
	04 00 00	 mov	 rcx, QWORD PTR tv461[rsp]
  00d29	48 89 4c 24 60	 mov	 QWORD PTR [rsp+96], rcx
  00d2e	48 8b 8c 24 f0
	04 00 00	 mov	 rcx, QWORD PTR tv463[rsp]
  00d36	48 89 4c 24 58	 mov	 QWORD PTR [rsp+88], rcx
  00d3b	48 8d 0d 00 00
	00 00		 lea	 rcx, OFFSET FLAT:$SG170038
  00d42	48 89 4c 24 50	 mov	 QWORD PTR [rsp+80], rcx
  00d47	48 8b 8c 24 f8
	04 00 00	 mov	 rcx, QWORD PTR tv466[rsp]
  00d4f	48 89 4c 24 48	 mov	 QWORD PTR [rsp+72], rcx
  00d54	8b 8c 24 94 01
	00 00		 mov	 ecx, DWORD PTR tv471[rsp]
  00d5b	89 4c 24 40	 mov	 DWORD PTR [rsp+64], ecx
  00d5f	8b 8c 24 98 01
	00 00		 mov	 ecx, DWORD PTR tv477[rsp]
  00d66	89 4c 24 38	 mov	 DWORD PTR [rsp+56], ecx
  00d6a	48 8d 0d 00 00
	00 00		 lea	 rcx, OFFSET FLAT:$SG170039
  00d71	48 89 4c 24 30	 mov	 QWORD PTR [rsp+48], rcx
  00d76	48 8d 0d 00 00
	00 00		 lea	 rcx, OFFSET FLAT:$SG170040
  00d7d	48 89 4c 24 28	 mov	 QWORD PTR [rsp+40], rcx
  00d82	48 89 44 24 20	 mov	 QWORD PTR [rsp+32], rax
  00d87	41 b9 03 00 00
	00		 mov	 r9d, 3
  00d8d	4c 8d 05 00 00
	00 00		 lea	 r8, OFFSET FLAT:$SG170041
  00d94	ba c4 04 00 00	 mov	 edx, 1220		; 000004c4H
  00d99	48 8d 0d 00 00
	00 00		 lea	 rcx, OFFSET FLAT:$SG170042
  00da0	ff 15 00 00 00
	00		 call	 QWORD PTR __imp_fwritemsg
  00da6	e9 1e 01 00 00	 jmp	 $LN176@cckd_chkds
$LN175@cckd_chkds:

; 1220 :                         "track size", (S64)trksz, (S64)n );
; 1221 :             else
; 1222 :                 // "%1d:%04X CCKD file %s: bad %s %"PRId64", expecting %"PRId64
; 1223 :                 WRMSG( HHC00362, "E", LCSS_DEVNUM, dev->filename,

  00dab	48 83 bc 24 d0
	21 04 00 00	 cmp	 QWORD PTR dev$[rsp], 0
  00db4	74 15		 je	 SHORT $LN539@cckd_chkds
  00db6	48 8b 84 24 d0
	21 04 00	 mov	 rax, QWORD PTR dev$[rsp]
  00dbe	0f b7 40 48	 movzx	 eax, WORD PTR [rax+72]
  00dc2	89 84 24 9c 01
	00 00		 mov	 DWORD PTR tv498[rsp], eax
  00dc9	eb 0b		 jmp	 SHORT $LN540@cckd_chkds
$LN539@cckd_chkds:
  00dcb	c7 84 24 9c 01
	00 00 00 00 00
	00		 mov	 DWORD PTR tv498[rsp], 0
$LN540@cckd_chkds:
  00dd6	48 83 bc 24 d0
	21 04 00 00	 cmp	 QWORD PTR dev$[rsp], 0
  00ddf	74 17		 je	 SHORT $LN541@cckd_chkds
  00de1	48 8b 84 24 d0
	21 04 00	 mov	 rax, QWORD PTR dev$[rsp]
  00de9	0f b7 40 44	 movzx	 eax, WORD PTR [rax+68]
  00ded	d1 f8		 sar	 eax, 1
  00def	89 84 24 a0 01
	00 00		 mov	 DWORD PTR tv504[rsp], eax
  00df6	eb 0b		 jmp	 SHORT $LN542@cckd_chkds
$LN541@cckd_chkds:
  00df8	c7 84 24 a0 01
	00 00 00 00 00
	00		 mov	 DWORD PTR tv504[rsp], 0
$LN542@cckd_chkds:
  00e03	48 63 84 24 b4
	00 00 00	 movsxd	 rax, DWORD PTR n$[rsp]
  00e0b	48 89 84 24 00
	05 00 00	 mov	 QWORD PTR tv488[rsp], rax
  00e13	8b 8c 24 10 01
	00 00		 mov	 ecx, DWORD PTR trksz$[rsp]
  00e1a	48 89 8c 24 08
	05 00 00	 mov	 QWORD PTR tv490[rsp], rcx
  00e22	48 8b 94 24 d0
	21 04 00	 mov	 rdx, QWORD PTR dev$[rsp]
  00e2a	48 81 c2 a4 00
	00 00		 add	 rdx, 164		; 000000a4H
  00e31	48 89 94 24 10
	05 00 00	 mov	 QWORD PTR tv493[rsp], rdx
  00e39	b9 01 00 00 00	 mov	 ecx, 1
  00e3e	ff 15 00 00 00
	00		 call	 QWORD PTR __imp___acrt_iob_func
  00e44	48 8b 8c 24 00
	05 00 00	 mov	 rcx, QWORD PTR tv488[rsp]
  00e4c	48 89 4c 24 60	 mov	 QWORD PTR [rsp+96], rcx
  00e51	48 8b 8c 24 08
	05 00 00	 mov	 rcx, QWORD PTR tv490[rsp]
  00e59	48 89 4c 24 58	 mov	 QWORD PTR [rsp+88], rcx
  00e5e	48 8d 0d 00 00
	00 00		 lea	 rcx, OFFSET FLAT:$SG170043
  00e65	48 89 4c 24 50	 mov	 QWORD PTR [rsp+80], rcx
  00e6a	48 8b 8c 24 10
	05 00 00	 mov	 rcx, QWORD PTR tv493[rsp]
  00e72	48 89 4c 24 48	 mov	 QWORD PTR [rsp+72], rcx
  00e77	8b 8c 24 9c 01
	00 00		 mov	 ecx, DWORD PTR tv498[rsp]
  00e7e	89 4c 24 40	 mov	 DWORD PTR [rsp+64], ecx
  00e82	8b 8c 24 a0 01
	00 00		 mov	 ecx, DWORD PTR tv504[rsp]
  00e89	89 4c 24 38	 mov	 DWORD PTR [rsp+56], ecx
  00e8d	48 8d 0d 00 00
	00 00		 lea	 rcx, OFFSET FLAT:$SG170044
  00e94	48 89 4c 24 30	 mov	 QWORD PTR [rsp+48], rcx
  00e99	48 8d 0d 00 00
	00 00		 lea	 rcx, OFFSET FLAT:$SG170045
  00ea0	48 89 4c 24 28	 mov	 QWORD PTR [rsp+40], rcx
  00ea5	48 89 44 24 20	 mov	 QWORD PTR [rsp+32], rax
  00eaa	41 b9 03 00 00
	00		 mov	 r9d, 3
  00eb0	4c 8d 05 00 00
	00 00		 lea	 r8, OFFSET FLAT:$SG170046
  00eb7	ba c8 04 00 00	 mov	 edx, 1224		; 000004c8H
  00ebc	48 8d 0d 00 00
	00 00		 lea	 rcx, OFFSET FLAT:$SG170047
  00ec3	ff 15 00 00 00
	00		 call	 QWORD PTR __imp_fwritemsg
$LN176@cckd_chkds:

; 1224 :                       "track size", (S64)trksz, (S64)n );
; 1225 :              goto cdsk_error;

  00ec9	e9 07 a2 00 00	 jmp	 $cdsk_error$829
$LN174@cckd_chkds:

; 1226 :         }
; 1227 : 
; 1228 :         /* number of heads check */
; 1229 :         if (heads != ckd->heads)

  00ece	48 8b 84 24 f0
	03 00 00	 mov	 rax, QWORD PTR ckd$6[rsp]
  00ed6	0f b7 40 12	 movzx	 eax, WORD PTR [rax+18]
  00eda	39 84 24 cc 00
	00 00		 cmp	 DWORD PTR heads$[rsp], eax
  00ee1	0f 84 6c 02 00
	00		 je	 $LN177@cckd_chkds

; 1230 :         {
; 1231 :             if(dev->batch)

  00ee7	48 8b 84 24 d0
	21 04 00	 mov	 rax, QWORD PTR dev$[rsp]
  00eef	8b 80 f8 05 00
	00		 mov	 eax, DWORD PTR [rax+1528]
  00ef5	c1 e8 0a	 shr	 eax, 10
  00ef8	83 e0 01	 and	 eax, 1
  00efb	85 c0		 test	 eax, eax
  00efd	0f 84 28 01 00
	00		 je	 $LN178@cckd_chkds

; 1232 :                 // "%1d:%04X CCKD file %s: bad %s %"PRId64", expecting %"PRId64
; 1233 :                 FWRMSG( stdout, HHC00362, "E", LCSS_DEVNUM, dev->filename,

  00f03	48 83 bc 24 d0
	21 04 00 00	 cmp	 QWORD PTR dev$[rsp], 0
  00f0c	74 15		 je	 SHORT $LN543@cckd_chkds
  00f0e	48 8b 84 24 d0
	21 04 00	 mov	 rax, QWORD PTR dev$[rsp]
  00f16	0f b7 40 48	 movzx	 eax, WORD PTR [rax+72]
  00f1a	89 84 24 a4 01
	00 00		 mov	 DWORD PTR tv533[rsp], eax
  00f21	eb 0b		 jmp	 SHORT $LN544@cckd_chkds
$LN543@cckd_chkds:
  00f23	c7 84 24 a4 01
	00 00 00 00 00
	00		 mov	 DWORD PTR tv533[rsp], 0
$LN544@cckd_chkds:
  00f2e	48 83 bc 24 d0
	21 04 00 00	 cmp	 QWORD PTR dev$[rsp], 0
  00f37	74 17		 je	 SHORT $LN545@cckd_chkds
  00f39	48 8b 84 24 d0
	21 04 00	 mov	 rax, QWORD PTR dev$[rsp]
  00f41	0f b7 40 44	 movzx	 eax, WORD PTR [rax+68]
  00f45	d1 f8		 sar	 eax, 1
  00f47	89 84 24 a8 01
	00 00		 mov	 DWORD PTR tv539[rsp], eax
  00f4e	eb 0b		 jmp	 SHORT $LN546@cckd_chkds
$LN545@cckd_chkds:
  00f50	c7 84 24 a8 01
	00 00 00 00 00
	00		 mov	 DWORD PTR tv539[rsp], 0
$LN546@cckd_chkds:
  00f5b	48 8b 84 24 f0
	03 00 00	 mov	 rax, QWORD PTR ckd$6[rsp]
  00f63	0f b7 40 12	 movzx	 eax, WORD PTR [rax+18]
  00f67	48 89 84 24 18
	05 00 00	 mov	 QWORD PTR tv523[rsp], rax
  00f6f	48 63 8c 24 cc
	00 00 00	 movsxd	 rcx, DWORD PTR heads$[rsp]
  00f77	48 89 8c 24 20
	05 00 00	 mov	 QWORD PTR tv525[rsp], rcx
  00f7f	48 8b 94 24 d0
	21 04 00	 mov	 rdx, QWORD PTR dev$[rsp]
  00f87	48 81 c2 a4 00
	00 00		 add	 rdx, 164		; 000000a4H
  00f8e	48 89 94 24 28
	05 00 00	 mov	 QWORD PTR tv528[rsp], rdx
  00f96	b9 01 00 00 00	 mov	 ecx, 1
  00f9b	ff 15 00 00 00
	00		 call	 QWORD PTR __imp___acrt_iob_func
  00fa1	48 8b 8c 24 18
	05 00 00	 mov	 rcx, QWORD PTR tv523[rsp]
  00fa9	48 89 4c 24 60	 mov	 QWORD PTR [rsp+96], rcx
  00fae	48 8b 8c 24 20
	05 00 00	 mov	 rcx, QWORD PTR tv525[rsp]
  00fb6	48 89 4c 24 58	 mov	 QWORD PTR [rsp+88], rcx
  00fbb	48 8d 0d 00 00
	00 00		 lea	 rcx, OFFSET FLAT:$SG170051
  00fc2	48 89 4c 24 50	 mov	 QWORD PTR [rsp+80], rcx
  00fc7	48 8b 8c 24 28
	05 00 00	 mov	 rcx, QWORD PTR tv528[rsp]
  00fcf	48 89 4c 24 48	 mov	 QWORD PTR [rsp+72], rcx
  00fd4	8b 8c 24 a4 01
	00 00		 mov	 ecx, DWORD PTR tv533[rsp]
  00fdb	89 4c 24 40	 mov	 DWORD PTR [rsp+64], ecx
  00fdf	8b 8c 24 a8 01
	00 00		 mov	 ecx, DWORD PTR tv539[rsp]
  00fe6	89 4c 24 38	 mov	 DWORD PTR [rsp+56], ecx
  00fea	48 8d 0d 00 00
	00 00		 lea	 rcx, OFFSET FLAT:$SG170052
  00ff1	48 89 4c 24 30	 mov	 QWORD PTR [rsp+48], rcx
  00ff6	48 8d 0d 00 00
	00 00		 lea	 rcx, OFFSET FLAT:$SG170053
  00ffd	48 89 4c 24 28	 mov	 QWORD PTR [rsp+40], rcx
  01002	48 89 44 24 20	 mov	 QWORD PTR [rsp+32], rax
  01007	41 b9 03 00 00
	00		 mov	 r9d, 3
  0100d	4c 8d 05 00 00
	00 00		 lea	 r8, OFFSET FLAT:$SG170054
  01014	ba d2 04 00 00	 mov	 edx, 1234		; 000004d2H
  01019	48 8d 0d 00 00
	00 00		 lea	 rcx, OFFSET FLAT:$SG170055
  01020	ff 15 00 00 00
	00		 call	 QWORD PTR __imp_fwritemsg
  01026	e9 23 01 00 00	 jmp	 $LN179@cckd_chkds
$LN178@cckd_chkds:

; 1234 :                         "number of heads", (S64)heads, (S64)ckd->heads );
; 1235 :             else
; 1236 :                 // "%1d:%04X CCKD file %s: bad %s %"PRId64", expecting %"PRId64
; 1237 :                 WRMSG( HHC00362, "E", LCSS_DEVNUM, dev->filename,

  0102b	48 83 bc 24 d0
	21 04 00 00	 cmp	 QWORD PTR dev$[rsp], 0
  01034	74 15		 je	 SHORT $LN547@cckd_chkds
  01036	48 8b 84 24 d0
	21 04 00	 mov	 rax, QWORD PTR dev$[rsp]
  0103e	0f b7 40 48	 movzx	 eax, WORD PTR [rax+72]
  01042	89 84 24 ac 01
	00 00		 mov	 DWORD PTR tv561[rsp], eax
  01049	eb 0b		 jmp	 SHORT $LN548@cckd_chkds
$LN547@cckd_chkds:
  0104b	c7 84 24 ac 01
	00 00 00 00 00
	00		 mov	 DWORD PTR tv561[rsp], 0
$LN548@cckd_chkds:
  01056	48 83 bc 24 d0
	21 04 00 00	 cmp	 QWORD PTR dev$[rsp], 0
  0105f	74 17		 je	 SHORT $LN549@cckd_chkds
  01061	48 8b 84 24 d0
	21 04 00	 mov	 rax, QWORD PTR dev$[rsp]
  01069	0f b7 40 44	 movzx	 eax, WORD PTR [rax+68]
  0106d	d1 f8		 sar	 eax, 1
  0106f	89 84 24 b0 01
	00 00		 mov	 DWORD PTR tv567[rsp], eax
  01076	eb 0b		 jmp	 SHORT $LN550@cckd_chkds
$LN549@cckd_chkds:
  01078	c7 84 24 b0 01
	00 00 00 00 00
	00		 mov	 DWORD PTR tv567[rsp], 0
$LN550@cckd_chkds:
  01083	48 8b 84 24 f0
	03 00 00	 mov	 rax, QWORD PTR ckd$6[rsp]
  0108b	0f b7 40 12	 movzx	 eax, WORD PTR [rax+18]
  0108f	48 89 84 24 30
	05 00 00	 mov	 QWORD PTR tv551[rsp], rax
  01097	48 63 8c 24 cc
	00 00 00	 movsxd	 rcx, DWORD PTR heads$[rsp]
  0109f	48 89 8c 24 38
	05 00 00	 mov	 QWORD PTR tv553[rsp], rcx
  010a7	48 8b 94 24 d0
	21 04 00	 mov	 rdx, QWORD PTR dev$[rsp]
  010af	48 81 c2 a4 00
	00 00		 add	 rdx, 164		; 000000a4H
  010b6	48 89 94 24 40
	05 00 00	 mov	 QWORD PTR tv556[rsp], rdx
  010be	b9 01 00 00 00	 mov	 ecx, 1
  010c3	ff 15 00 00 00
	00		 call	 QWORD PTR __imp___acrt_iob_func
  010c9	48 8b 8c 24 30
	05 00 00	 mov	 rcx, QWORD PTR tv551[rsp]
  010d1	48 89 4c 24 60	 mov	 QWORD PTR [rsp+96], rcx
  010d6	48 8b 8c 24 38
	05 00 00	 mov	 rcx, QWORD PTR tv553[rsp]
  010de	48 89 4c 24 58	 mov	 QWORD PTR [rsp+88], rcx
  010e3	48 8d 0d 00 00
	00 00		 lea	 rcx, OFFSET FLAT:$SG170056
  010ea	48 89 4c 24 50	 mov	 QWORD PTR [rsp+80], rcx
  010ef	48 8b 8c 24 40
	05 00 00	 mov	 rcx, QWORD PTR tv556[rsp]
  010f7	48 89 4c 24 48	 mov	 QWORD PTR [rsp+72], rcx
  010fc	8b 8c 24 ac 01
	00 00		 mov	 ecx, DWORD PTR tv561[rsp]
  01103	89 4c 24 40	 mov	 DWORD PTR [rsp+64], ecx
  01107	8b 8c 24 b0 01
	00 00		 mov	 ecx, DWORD PTR tv567[rsp]
  0110e	89 4c 24 38	 mov	 DWORD PTR [rsp+56], ecx
  01112	48 8d 0d 00 00
	00 00		 lea	 rcx, OFFSET FLAT:$SG170057
  01119	48 89 4c 24 30	 mov	 QWORD PTR [rsp+48], rcx
  0111e	48 8d 0d 00 00
	00 00		 lea	 rcx, OFFSET FLAT:$SG170058
  01125	48 89 4c 24 28	 mov	 QWORD PTR [rsp+40], rcx
  0112a	48 89 44 24 20	 mov	 QWORD PTR [rsp+32], rax
  0112f	41 b9 03 00 00
	00		 mov	 r9d, 3
  01135	4c 8d 05 00 00
	00 00		 lea	 r8, OFFSET FLAT:$SG170059
  0113c	ba d6 04 00 00	 mov	 edx, 1238		; 000004d6H
  01141	48 8d 0d 00 00
	00 00		 lea	 rcx, OFFSET FLAT:$SG170060
  01148	ff 15 00 00 00
	00		 call	 QWORD PTR __imp_fwritemsg
$LN179@cckd_chkds:

; 1238 :                       "number of heads", (S64)heads, (S64)ckd->heads );
; 1239 :              goto cdsk_error;

  0114e	e9 82 9f 00 00	 jmp	 $cdsk_error$829
$LN177@cckd_chkds:

; 1240 :         }
; 1241 :     } /* if (ckddasd) */

  01153	e9 ae 00 00 00	 jmp	 $LN170@cckd_chkds
$LN169@cckd_chkds:

; 1242 : 
; 1243 :     /* fba checks */
; 1244 :     else
; 1245 :     {
; 1246 :         /* Note: cyls & heads are setup for ckd type hdr checks */
; 1247 :         FETCH_LE_FW( blks, cdevhdr.cdh_cyls );

  01158	48 8d 8c 24 c8
	0b 00 00	 lea	 rcx, QWORD PTR cdevhdr$[rsp+40]
  01160	e8 00 00 00 00	 call	 fetch_fw_noswap
  01165	8b c8		 mov	 ecx, eax
  01167	e8 00 00 00 00	 call	 _byteswap_ulong
  0116c	8b c8		 mov	 ecx, eax
  0116e	e8 00 00 00 00	 call	 _byteswap_ulong
  01173	89 84 24 b4 01
	00 00		 mov	 DWORD PTR blks$[rsp], eax

; 1248 : 
; 1249 :         trks = blks / CFBA_BLKS_PER_GRP;

  0117a	8b 84 24 b4 01
	00 00		 mov	 eax, DWORD PTR blks$[rsp]
  01181	99		 cdq
  01182	b9 78 00 00 00	 mov	 ecx, 120		; 00000078H
  01187	f7 f9		 idiv	 ecx
  01189	89 84 24 f4 00
	00 00		 mov	 DWORD PTR trks$[rsp], eax

; 1250 :         if (   blks % CFBA_BLKS_PER_GRP ) trks++;

  01190	8b 84 24 b4 01
	00 00		 mov	 eax, DWORD PTR blks$[rsp]
  01197	99		 cdq
  01198	b9 78 00 00 00	 mov	 ecx, 120		; 00000078H
  0119d	f7 f9		 idiv	 ecx
  0119f	8b c2		 mov	 eax, edx
  011a1	85 c0		 test	 eax, eax
  011a3	74 10		 je	 SHORT $LN180@cckd_chkds
  011a5	8b 84 24 f4 00
	00 00		 mov	 eax, DWORD PTR trks$[rsp]
  011ac	ff c0		 inc	 eax
  011ae	89 84 24 f4 00
	00 00		 mov	 DWORD PTR trks$[rsp], eax
$LN180@cckd_chkds:

; 1251 : 
; 1252 :         trksz = CKD_TRKHDR_SIZE + CFBA_BLKGRP_SIZE;

  011b5	c7 84 24 10 01
	00 00 05 f0 00
	00		 mov	 DWORD PTR trksz$[rsp], 61445 ; 0000f005H

; 1253 :         heads = 65536;

  011c0	c7 84 24 cc 00
	00 00 00 00 01
	00		 mov	 DWORD PTR heads$[rsp], 65536 ; 00010000H

; 1254 : 
; 1255 :         cyls = trks / heads;

  011cb	8b 84 24 f4 00
	00 00		 mov	 eax, DWORD PTR trks$[rsp]
  011d2	99		 cdq
  011d3	f7 bc 24 cc 00
	00 00		 idiv	 DWORD PTR heads$[rsp]
  011da	89 84 24 2c 01
	00 00		 mov	 DWORD PTR cyls$[rsp], eax

; 1256 :         if (   trks % heads) cyls++;

  011e1	8b 84 24 f4 00
	00 00		 mov	 eax, DWORD PTR trks$[rsp]
  011e8	99		 cdq
  011e9	f7 bc 24 cc 00
	00 00		 idiv	 DWORD PTR heads$[rsp]
  011f0	8b c2		 mov	 eax, edx
  011f2	85 c0		 test	 eax, eax
  011f4	74 10		 je	 SHORT $LN181@cckd_chkds
  011f6	8b 84 24 2c 01
	00 00		 mov	 eax, DWORD PTR cyls$[rsp]
  011fd	ff c0		 inc	 eax
  011ff	89 84 24 2c 01
	00 00		 mov	 DWORD PTR cyls$[rsp], eax
$LN181@cckd_chkds:
$LN170@cckd_chkds:

; 1257 :     }
; 1258 : 
; 1259 :     /* fba variables */
; 1260 :     blkgrps = trks;

  01206	8b 84 24 f4 00
	00 00		 mov	 eax, DWORD PTR trks$[rsp]
  0120d	89 84 24 80 01
	00 00		 mov	 DWORD PTR blkgrps$[rsp], eax

; 1261 :     blkgrpsz = trksz;

  01214	8b 84 24 10 01
	00 00		 mov	 eax, DWORD PTR trksz$[rsp]
  0121b	89 84 24 18 01
	00 00		 mov	 DWORD PTR blkgrpsz$[rsp], eax

; 1262 : 
; 1263 :     /* `num_L1tab' check */
; 1264 :     n = trks / 256;

  01222	8b 84 24 f4 00
	00 00		 mov	 eax, DWORD PTR trks$[rsp]
  01229	99		 cdq
  0122a	81 e2 ff 00 00
	00		 and	 edx, 255		; 000000ffH
  01230	03 c2		 add	 eax, edx
  01232	c1 f8 08	 sar	 eax, 8
  01235	89 84 24 b4 00
	00 00		 mov	 DWORD PTR n$[rsp], eax

; 1265 :     if (trks % 256) n++;

  0123c	8b 84 24 f4 00
	00 00		 mov	 eax, DWORD PTR trks$[rsp]
  01243	99		 cdq
  01244	81 e2 ff 00 00
	00		 and	 edx, 255		; 000000ffH
  0124a	03 c2		 add	 eax, edx
  0124c	25 ff 00 00 00	 and	 eax, 255		; 000000ffH
  01251	2b c2		 sub	 eax, edx
  01253	85 c0		 test	 eax, eax
  01255	74 10		 je	 SHORT $LN182@cckd_chkds
  01257	8b 84 24 b4 00
	00 00		 mov	 eax, DWORD PTR n$[rsp]
  0125e	ff c0		 inc	 eax
  01260	89 84 24 b4 00
	00 00		 mov	 DWORD PTR n$[rsp], eax
$LN182@cckd_chkds:

; 1266 : 
; 1267 :     if (cdevhdr.num_L1tab != n && cdevhdr.num_L1tab != n + 1)

  01267	8b 84 24 b4 00
	00 00		 mov	 eax, DWORD PTR n$[rsp]
  0126e	39 84 24 a4 0b
	00 00		 cmp	 DWORD PTR cdevhdr$[rsp+4], eax
  01275	0f 84 7a 02 00
	00		 je	 $LN183@cckd_chkds
  0127b	8b 84 24 b4 00
	00 00		 mov	 eax, DWORD PTR n$[rsp]
  01282	ff c0		 inc	 eax
  01284	39 84 24 a4 0b
	00 00		 cmp	 DWORD PTR cdevhdr$[rsp+4], eax
  0128b	0f 84 64 02 00
	00		 je	 $LN183@cckd_chkds

; 1268 :     {
; 1269 :         if(dev->batch)

  01291	48 8b 84 24 d0
	21 04 00	 mov	 rax, QWORD PTR dev$[rsp]
  01299	8b 80 f8 05 00
	00		 mov	 eax, DWORD PTR [rax+1528]
  0129f	c1 e8 0a	 shr	 eax, 10
  012a2	83 e0 01	 and	 eax, 1
  012a5	85 c0		 test	 eax, eax
  012a7	0f 84 24 01 00
	00		 je	 $LN184@cckd_chkds

; 1270 :             // "%1d:%04X CCKD file %s: bad %s %"PRId64", expecting %"PRId64
; 1271 :             FWRMSG( stdout, HHC00362, "E", LCSS_DEVNUM, dev->filename,

  012ad	48 83 bc 24 d0
	21 04 00 00	 cmp	 QWORD PTR dev$[rsp], 0
  012b6	74 15		 je	 SHORT $LN551@cckd_chkds
  012b8	48 8b 84 24 d0
	21 04 00	 mov	 rax, QWORD PTR dev$[rsp]
  012c0	0f b7 40 48	 movzx	 eax, WORD PTR [rax+72]
  012c4	89 84 24 b8 01
	00 00		 mov	 DWORD PTR tv613[rsp], eax
  012cb	eb 0b		 jmp	 SHORT $LN552@cckd_chkds
$LN551@cckd_chkds:
  012cd	c7 84 24 b8 01
	00 00 00 00 00
	00		 mov	 DWORD PTR tv613[rsp], 0
$LN552@cckd_chkds:
  012d8	48 83 bc 24 d0
	21 04 00 00	 cmp	 QWORD PTR dev$[rsp], 0
  012e1	74 17		 je	 SHORT $LN553@cckd_chkds
  012e3	48 8b 84 24 d0
	21 04 00	 mov	 rax, QWORD PTR dev$[rsp]
  012eb	0f b7 40 44	 movzx	 eax, WORD PTR [rax+68]
  012ef	d1 f8		 sar	 eax, 1
  012f1	89 84 24 bc 01
	00 00		 mov	 DWORD PTR tv619[rsp], eax
  012f8	eb 0b		 jmp	 SHORT $LN554@cckd_chkds
$LN553@cckd_chkds:
  012fa	c7 84 24 bc 01
	00 00 00 00 00
	00		 mov	 DWORD PTR tv619[rsp], 0
$LN554@cckd_chkds:
  01305	48 63 84 24 b4
	00 00 00	 movsxd	 rax, DWORD PTR n$[rsp]
  0130d	48 89 84 24 48
	05 00 00	 mov	 QWORD PTR tv603[rsp], rax
  01315	48 63 8c 24 a4
	0b 00 00	 movsxd	 rcx, DWORD PTR cdevhdr$[rsp+4]
  0131d	48 89 8c 24 50
	05 00 00	 mov	 QWORD PTR tv605[rsp], rcx
  01325	48 8b 94 24 d0
	21 04 00	 mov	 rdx, QWORD PTR dev$[rsp]
  0132d	48 81 c2 a4 00
	00 00		 add	 rdx, 164		; 000000a4H
  01334	48 89 94 24 58
	05 00 00	 mov	 QWORD PTR tv608[rsp], rdx
  0133c	b9 01 00 00 00	 mov	 ecx, 1
  01341	ff 15 00 00 00
	00		 call	 QWORD PTR __imp___acrt_iob_func
  01347	48 8b 8c 24 48
	05 00 00	 mov	 rcx, QWORD PTR tv603[rsp]
  0134f	48 89 4c 24 60	 mov	 QWORD PTR [rsp+96], rcx
  01354	48 8b 8c 24 50
	05 00 00	 mov	 rcx, QWORD PTR tv605[rsp]
  0135c	48 89 4c 24 58	 mov	 QWORD PTR [rsp+88], rcx
  01361	48 8d 0d 00 00
	00 00		 lea	 rcx, OFFSET FLAT:$SG170067
  01368	48 89 4c 24 50	 mov	 QWORD PTR [rsp+80], rcx
  0136d	48 8b 8c 24 58
	05 00 00	 mov	 rcx, QWORD PTR tv608[rsp]
  01375	48 89 4c 24 48	 mov	 QWORD PTR [rsp+72], rcx
  0137a	8b 8c 24 b8 01
	00 00		 mov	 ecx, DWORD PTR tv613[rsp]
  01381	89 4c 24 40	 mov	 DWORD PTR [rsp+64], ecx
  01385	8b 8c 24 bc 01
	00 00		 mov	 ecx, DWORD PTR tv619[rsp]
  0138c	89 4c 24 38	 mov	 DWORD PTR [rsp+56], ecx
  01390	48 8d 0d 00 00
	00 00		 lea	 rcx, OFFSET FLAT:$SG170068
  01397	48 89 4c 24 30	 mov	 QWORD PTR [rsp+48], rcx
  0139c	48 8d 0d 00 00
	00 00		 lea	 rcx, OFFSET FLAT:$SG170069
  013a3	48 89 4c 24 28	 mov	 QWORD PTR [rsp+40], rcx
  013a8	48 89 44 24 20	 mov	 QWORD PTR [rsp+32], rax
  013ad	41 b9 03 00 00
	00		 mov	 r9d, 3
  013b3	4c 8d 05 00 00
	00 00		 lea	 r8, OFFSET FLAT:$SG170070
  013ba	ba f8 04 00 00	 mov	 edx, 1272		; 000004f8H
  013bf	48 8d 0d 00 00
	00 00		 lea	 rcx, OFFSET FLAT:$SG170071
  013c6	ff 15 00 00 00
	00		 call	 QWORD PTR __imp_fwritemsg
  013cc	e9 1f 01 00 00	 jmp	 $LN185@cckd_chkds
$LN184@cckd_chkds:

; 1272 :                     "num_L1tab", (S64)cdevhdr.num_L1tab, (S64)n );
; 1273 :         else
; 1274 :             // "%1d:%04X CCKD file %s: bad %s %"PRId64", expecting %"PRId64
; 1275 :             WRMSG( HHC00362, "E", LCSS_DEVNUM, dev->filename,

  013d1	48 83 bc 24 d0
	21 04 00 00	 cmp	 QWORD PTR dev$[rsp], 0
  013da	74 15		 je	 SHORT $LN555@cckd_chkds
  013dc	48 8b 84 24 d0
	21 04 00	 mov	 rax, QWORD PTR dev$[rsp]
  013e4	0f b7 40 48	 movzx	 eax, WORD PTR [rax+72]
  013e8	89 84 24 c0 01
	00 00		 mov	 DWORD PTR tv640[rsp], eax
  013ef	eb 0b		 jmp	 SHORT $LN556@cckd_chkds
$LN555@cckd_chkds:
  013f1	c7 84 24 c0 01
	00 00 00 00 00
	00		 mov	 DWORD PTR tv640[rsp], 0
$LN556@cckd_chkds:
  013fc	48 83 bc 24 d0
	21 04 00 00	 cmp	 QWORD PTR dev$[rsp], 0
  01405	74 17		 je	 SHORT $LN557@cckd_chkds
  01407	48 8b 84 24 d0
	21 04 00	 mov	 rax, QWORD PTR dev$[rsp]
  0140f	0f b7 40 44	 movzx	 eax, WORD PTR [rax+68]
  01413	d1 f8		 sar	 eax, 1
  01415	89 84 24 c4 01
	00 00		 mov	 DWORD PTR tv646[rsp], eax
  0141c	eb 0b		 jmp	 SHORT $LN558@cckd_chkds
$LN557@cckd_chkds:
  0141e	c7 84 24 c4 01
	00 00 00 00 00
	00		 mov	 DWORD PTR tv646[rsp], 0
$LN558@cckd_chkds:
  01429	48 63 84 24 b4
	00 00 00	 movsxd	 rax, DWORD PTR n$[rsp]
  01431	48 89 84 24 60
	05 00 00	 mov	 QWORD PTR tv630[rsp], rax
  01439	48 63 8c 24 a4
	0b 00 00	 movsxd	 rcx, DWORD PTR cdevhdr$[rsp+4]
  01441	48 89 8c 24 68
	05 00 00	 mov	 QWORD PTR tv632[rsp], rcx
  01449	48 8b 94 24 d0
	21 04 00	 mov	 rdx, QWORD PTR dev$[rsp]
  01451	48 81 c2 a4 00
	00 00		 add	 rdx, 164		; 000000a4H
  01458	48 89 94 24 70
	05 00 00	 mov	 QWORD PTR tv635[rsp], rdx
  01460	b9 01 00 00 00	 mov	 ecx, 1
  01465	ff 15 00 00 00
	00		 call	 QWORD PTR __imp___acrt_iob_func
  0146b	48 8b 8c 24 60
	05 00 00	 mov	 rcx, QWORD PTR tv630[rsp]
  01473	48 89 4c 24 60	 mov	 QWORD PTR [rsp+96], rcx
  01478	48 8b 8c 24 68
	05 00 00	 mov	 rcx, QWORD PTR tv632[rsp]
  01480	48 89 4c 24 58	 mov	 QWORD PTR [rsp+88], rcx
  01485	48 8d 0d 00 00
	00 00		 lea	 rcx, OFFSET FLAT:$SG170072
  0148c	48 89 4c 24 50	 mov	 QWORD PTR [rsp+80], rcx
  01491	48 8b 8c 24 70
	05 00 00	 mov	 rcx, QWORD PTR tv635[rsp]
  01499	48 89 4c 24 48	 mov	 QWORD PTR [rsp+72], rcx
  0149e	8b 8c 24 c0 01
	00 00		 mov	 ecx, DWORD PTR tv640[rsp]
  014a5	89 4c 24 40	 mov	 DWORD PTR [rsp+64], ecx
  014a9	8b 8c 24 c4 01
	00 00		 mov	 ecx, DWORD PTR tv646[rsp]
  014b0	89 4c 24 38	 mov	 DWORD PTR [rsp+56], ecx
  014b4	48 8d 0d 00 00
	00 00		 lea	 rcx, OFFSET FLAT:$SG170073
  014bb	48 89 4c 24 30	 mov	 QWORD PTR [rsp+48], rcx
  014c0	48 8d 0d 00 00
	00 00		 lea	 rcx, OFFSET FLAT:$SG170074
  014c7	48 89 4c 24 28	 mov	 QWORD PTR [rsp+40], rcx
  014cc	48 89 44 24 20	 mov	 QWORD PTR [rsp+32], rax
  014d1	41 b9 03 00 00
	00		 mov	 r9d, 3
  014d7	4c 8d 05 00 00
	00 00		 lea	 r8, OFFSET FLAT:$SG170075
  014de	ba fc 04 00 00	 mov	 edx, 1276		; 000004fcH
  014e3	48 8d 0d 00 00
	00 00		 lea	 rcx, OFFSET FLAT:$SG170076
  014ea	ff 15 00 00 00
	00		 call	 QWORD PTR __imp_fwritemsg
$LN185@cckd_chkds:

; 1276 :                   "num_L1tab", (S64)cdevhdr.num_L1tab, (S64)n );
; 1277 :         goto cdsk_error;

  014f0	e9 e0 9b 00 00	 jmp	 $cdsk_error$829
$LN183@cckd_chkds:

; 1278 :     }
; 1279 :     l1size = cdevhdr.num_L1tab * CCKD_L1ENT_SIZE;

  014f5	48 63 84 24 a4
	0b 00 00	 movsxd	 rax, DWORD PTR cdevhdr$[rsp+4]
  014fd	48 c1 e0 02	 shl	 rax, 2
  01501	89 84 24 08 01
	00 00		 mov	 DWORD PTR l1size$[rsp], eax

; 1280 :     if (CCKD_L1TAB_POS + l1size > fst.st_size)

  01508	48 63 84 24 08
	01 00 00	 movsxd	 rax, DWORD PTR l1size$[rsp]
  01510	48 05 00 04 00
	00		 add	 rax, 1024		; 00000400H
  01516	48 3b 84 24 b8
	0d 00 00	 cmp	 rax, QWORD PTR fst$[rsp+24]
  0151e	0f 8e 50 02 00
	00		 jle	 $LN186@cckd_chkds

; 1281 :     {
; 1282 :         if(dev->batch)

  01524	48 8b 84 24 d0
	21 04 00	 mov	 rax, QWORD PTR dev$[rsp]
  0152c	8b 80 f8 05 00
	00		 mov	 eax, DWORD PTR [rax+1528]
  01532	c1 e8 0a	 shr	 eax, 10
  01535	83 e0 01	 and	 eax, 1
  01538	85 c0		 test	 eax, eax
  0153a	0f 84 1a 01 00
	00		 je	 $LN187@cckd_chkds

; 1283 :             // "%1d:%04X CCKD file %s: bad %s %"PRId64", expecting %"PRId64
; 1284 :             FWRMSG( stdout, HHC00362, "E", LCSS_DEVNUM, dev->filename,

  01540	48 83 bc 24 d0
	21 04 00 00	 cmp	 QWORD PTR dev$[rsp], 0
  01549	74 15		 je	 SHORT $LN559@cckd_chkds
  0154b	48 8b 84 24 d0
	21 04 00	 mov	 rax, QWORD PTR dev$[rsp]
  01553	0f b7 40 48	 movzx	 eax, WORD PTR [rax+72]
  01557	89 84 24 c8 01
	00 00		 mov	 DWORD PTR tv677[rsp], eax
  0155e	eb 0b		 jmp	 SHORT $LN560@cckd_chkds
$LN559@cckd_chkds:
  01560	c7 84 24 c8 01
	00 00 00 00 00
	00		 mov	 DWORD PTR tv677[rsp], 0
$LN560@cckd_chkds:
  0156b	48 83 bc 24 d0
	21 04 00 00	 cmp	 QWORD PTR dev$[rsp], 0
  01574	74 17		 je	 SHORT $LN561@cckd_chkds
  01576	48 8b 84 24 d0
	21 04 00	 mov	 rax, QWORD PTR dev$[rsp]
  0157e	0f b7 40 44	 movzx	 eax, WORD PTR [rax+68]
  01582	d1 f8		 sar	 eax, 1
  01584	89 84 24 cc 01
	00 00		 mov	 DWORD PTR tv683[rsp], eax
  0158b	eb 0b		 jmp	 SHORT $LN562@cckd_chkds
$LN561@cckd_chkds:
  0158d	c7 84 24 cc 01
	00 00 00 00 00
	00		 mov	 DWORD PTR tv683[rsp], 0
$LN562@cckd_chkds:
  01598	48 63 84 24 08
	01 00 00	 movsxd	 rax, DWORD PTR l1size$[rsp]
  015a0	48 05 00 04 00
	00		 add	 rax, 1024		; 00000400H
  015a6	48 89 84 24 78
	05 00 00	 mov	 QWORD PTR tv668[rsp], rax
  015ae	48 8b 8c 24 d0
	21 04 00	 mov	 rcx, QWORD PTR dev$[rsp]
  015b6	48 81 c1 a4 00
	00 00		 add	 rcx, 164		; 000000a4H
  015bd	48 89 8c 24 80
	05 00 00	 mov	 QWORD PTR tv672[rsp], rcx
  015c5	b9 01 00 00 00	 mov	 ecx, 1
  015ca	ff 15 00 00 00
	00		 call	 QWORD PTR __imp___acrt_iob_func
  015d0	48 8b 8c 24 78
	05 00 00	 mov	 rcx, QWORD PTR tv668[rsp]
  015d8	48 89 4c 24 60	 mov	 QWORD PTR [rsp+96], rcx
  015dd	48 8b 8c 24 b8
	0d 00 00	 mov	 rcx, QWORD PTR fst$[rsp+24]
  015e5	48 89 4c 24 58	 mov	 QWORD PTR [rsp+88], rcx
  015ea	48 8d 0d 00 00
	00 00		 lea	 rcx, OFFSET FLAT:$SG170080
  015f1	48 89 4c 24 50	 mov	 QWORD PTR [rsp+80], rcx
  015f6	48 8b 8c 24 80
	05 00 00	 mov	 rcx, QWORD PTR tv672[rsp]
  015fe	48 89 4c 24 48	 mov	 QWORD PTR [rsp+72], rcx
  01603	8b 8c 24 c8 01
	00 00		 mov	 ecx, DWORD PTR tv677[rsp]
  0160a	89 4c 24 40	 mov	 DWORD PTR [rsp+64], ecx
  0160e	8b 8c 24 cc 01
	00 00		 mov	 ecx, DWORD PTR tv683[rsp]
  01615	89 4c 24 38	 mov	 DWORD PTR [rsp+56], ecx
  01619	48 8d 0d 00 00
	00 00		 lea	 rcx, OFFSET FLAT:$SG170081
  01620	48 89 4c 24 30	 mov	 QWORD PTR [rsp+48], rcx
  01625	48 8d 0d 00 00
	00 00		 lea	 rcx, OFFSET FLAT:$SG170082
  0162c	48 89 4c 24 28	 mov	 QWORD PTR [rsp+40], rcx
  01631	48 89 44 24 20	 mov	 QWORD PTR [rsp+32], rax
  01636	41 b9 03 00 00
	00		 mov	 r9d, 3
  0163c	4c 8d 05 00 00
	00 00		 lea	 r8, OFFSET FLAT:$SG170083
  01643	ba 05 05 00 00	 mov	 edx, 1285		; 00000505H
  01648	48 8d 0d 00 00
	00 00		 lea	 rcx, OFFSET FLAT:$SG170084
  0164f	ff 15 00 00 00
	00		 call	 QWORD PTR __imp_fwritemsg
  01655	e9 15 01 00 00	 jmp	 $LN188@cckd_chkds
$LN187@cckd_chkds:

; 1285 :                     "file length to contain L1 table", (S64)fst.st_size, (S64)CCKD_L1TAB_POS + l1size );
; 1286 :         else
; 1287 :             // "%1d:%04X CCKD file %s: bad %s %"PRId64", expecting %"PRId64
; 1288 :             WRMSG( HHC00362, "E", LCSS_DEVNUM, dev->filename,

  0165a	48 83 bc 24 d0
	21 04 00 00	 cmp	 QWORD PTR dev$[rsp], 0
  01663	74 15		 je	 SHORT $LN563@cckd_chkds
  01665	48 8b 84 24 d0
	21 04 00	 mov	 rax, QWORD PTR dev$[rsp]
  0166d	0f b7 40 48	 movzx	 eax, WORD PTR [rax+72]
  01671	89 84 24 d0 01
	00 00		 mov	 DWORD PTR tv736[rsp], eax
  01678	eb 0b		 jmp	 SHORT $LN564@cckd_chkds
$LN563@cckd_chkds:
  0167a	c7 84 24 d0 01
	00 00 00 00 00
	00		 mov	 DWORD PTR tv736[rsp], 0
$LN564@cckd_chkds:
  01685	48 83 bc 24 d0
	21 04 00 00	 cmp	 QWORD PTR dev$[rsp], 0
  0168e	74 17		 je	 SHORT $LN565@cckd_chkds
  01690	48 8b 84 24 d0
	21 04 00	 mov	 rax, QWORD PTR dev$[rsp]
  01698	0f b7 40 44	 movzx	 eax, WORD PTR [rax+68]
  0169c	d1 f8		 sar	 eax, 1
  0169e	89 84 24 d4 01
	00 00		 mov	 DWORD PTR tv742[rsp], eax
  016a5	eb 0b		 jmp	 SHORT $LN566@cckd_chkds
$LN565@cckd_chkds:
  016a7	c7 84 24 d4 01
	00 00 00 00 00
	00		 mov	 DWORD PTR tv742[rsp], 0
$LN566@cckd_chkds:
  016b2	48 63 84 24 08
	01 00 00	 movsxd	 rax, DWORD PTR l1size$[rsp]
  016ba	48 05 00 04 00
	00		 add	 rax, 1024		; 00000400H
  016c0	48 89 84 24 88
	05 00 00	 mov	 QWORD PTR tv695[rsp], rax
  016c8	48 8b 8c 24 d0
	21 04 00	 mov	 rcx, QWORD PTR dev$[rsp]
  016d0	48 81 c1 a4 00
	00 00		 add	 rcx, 164		; 000000a4H
  016d7	48 89 8c 24 90
	05 00 00	 mov	 QWORD PTR tv699[rsp], rcx
  016df	b9 01 00 00 00	 mov	 ecx, 1
  016e4	ff 15 00 00 00
	00		 call	 QWORD PTR __imp___acrt_iob_func
  016ea	48 8b 8c 24 88
	05 00 00	 mov	 rcx, QWORD PTR tv695[rsp]
  016f2	48 89 4c 24 60	 mov	 QWORD PTR [rsp+96], rcx
  016f7	48 8b 8c 24 b8
	0d 00 00	 mov	 rcx, QWORD PTR fst$[rsp+24]
  016ff	48 89 4c 24 58	 mov	 QWORD PTR [rsp+88], rcx
  01704	48 8d 0d 00 00
	00 00		 lea	 rcx, OFFSET FLAT:$SG170085
  0170b	48 89 4c 24 50	 mov	 QWORD PTR [rsp+80], rcx
  01710	48 8b 8c 24 90
	05 00 00	 mov	 rcx, QWORD PTR tv699[rsp]
  01718	48 89 4c 24 48	 mov	 QWORD PTR [rsp+72], rcx
  0171d	8b 8c 24 d0 01
	00 00		 mov	 ecx, DWORD PTR tv736[rsp]
  01724	89 4c 24 40	 mov	 DWORD PTR [rsp+64], ecx
  01728	8b 8c 24 d4 01
	00 00		 mov	 ecx, DWORD PTR tv742[rsp]
  0172f	89 4c 24 38	 mov	 DWORD PTR [rsp+56], ecx
  01733	48 8d 0d 00 00
	00 00		 lea	 rcx, OFFSET FLAT:$SG170086
  0173a	48 89 4c 24 30	 mov	 QWORD PTR [rsp+48], rcx
  0173f	48 8d 0d 00 00
	00 00		 lea	 rcx, OFFSET FLAT:$SG170087
  01746	48 89 4c 24 28	 mov	 QWORD PTR [rsp+40], rcx
  0174b	48 89 44 24 20	 mov	 QWORD PTR [rsp+32], rax
  01750	41 b9 03 00 00
	00		 mov	 r9d, 3
  01756	4c 8d 05 00 00
	00 00		 lea	 r8, OFFSET FLAT:$SG170088
  0175d	ba 09 05 00 00	 mov	 edx, 1289		; 00000509H
  01762	48 8d 0d 00 00
	00 00		 lea	 rcx, OFFSET FLAT:$SG170089
  01769	ff 15 00 00 00
	00		 call	 QWORD PTR __imp_fwritemsg
$LN188@cckd_chkds:

; 1289 :                   "file length to contain L1 table", (S64)fst.st_size, (S64)CCKD_L1TAB_POS + l1size );
; 1290 :         goto cdsk_error;

  0176f	e9 61 99 00 00	 jmp	 $cdsk_error$829
$LN186@cckd_chkds:

; 1291 :     }
; 1292 : 
; 1293 :     /* check level 2 if SPERRS bit on */
; 1294 :     if (!ro && level < 2 && (cdevhdr.cdh_opts & CCKD_OPT_SPERRS))

  01774	83 bc 24 54 01
	00 00 00	 cmp	 DWORD PTR ro$[rsp], 0
  0177c	0f 85 13 02 00
	00		 jne	 $LN189@cckd_chkds
  01782	83 bc 24 d8 21
	04 00 02	 cmp	 DWORD PTR level$[rsp], 2
  0178a	0f 8d 05 02 00
	00		 jge	 $LN189@cckd_chkds
  01790	0f b6 84 24 a3
	0b 00 00	 movzx	 eax, BYTE PTR cdevhdr$[rsp+3]
  01798	83 e0 20	 and	 eax, 32			; 00000020H
  0179b	85 c0		 test	 eax, eax
  0179d	0f 84 f2 01 00
	00		 je	 $LN189@cckd_chkds

; 1295 :     {
; 1296 :         level = 2;

  017a3	c7 84 24 d8 21
	04 00 02 00 00
	00		 mov	 DWORD PTR level$[rsp], 2

; 1297 :         if(dev->batch)

  017ae	48 8b 84 24 d0
	21 04 00	 mov	 rax, QWORD PTR dev$[rsp]
  017b6	8b 80 f8 05 00
	00		 mov	 eax, DWORD PTR [rax+1528]
  017bc	c1 e8 0a	 shr	 eax, 10
  017bf	83 e0 01	 and	 eax, 1
  017c2	85 c0		 test	 eax, eax
  017c4	0f 84 e8 00 00
	00		 je	 $LN190@cckd_chkds

; 1298 :             FWRMSG( stdout, HHC00364, "W", LCSS_DEVNUM, dev->filename, level);

  017ca	48 83 bc 24 d0
	21 04 00 00	 cmp	 QWORD PTR dev$[rsp], 0
  017d3	74 15		 je	 SHORT $LN567@cckd_chkds
  017d5	48 8b 84 24 d0
	21 04 00	 mov	 rax, QWORD PTR dev$[rsp]
  017dd	0f b7 40 48	 movzx	 eax, WORD PTR [rax+72]
  017e1	89 84 24 d8 01
	00 00		 mov	 DWORD PTR tv768[rsp], eax
  017e8	eb 0b		 jmp	 SHORT $LN568@cckd_chkds
$LN567@cckd_chkds:
  017ea	c7 84 24 d8 01
	00 00 00 00 00
	00		 mov	 DWORD PTR tv768[rsp], 0
$LN568@cckd_chkds:
  017f5	48 83 bc 24 d0
	21 04 00 00	 cmp	 QWORD PTR dev$[rsp], 0
  017fe	74 17		 je	 SHORT $LN569@cckd_chkds
  01800	48 8b 84 24 d0
	21 04 00	 mov	 rax, QWORD PTR dev$[rsp]
  01808	0f b7 40 44	 movzx	 eax, WORD PTR [rax+68]
  0180c	d1 f8		 sar	 eax, 1
  0180e	89 84 24 dc 01
	00 00		 mov	 DWORD PTR tv774[rsp], eax
  01815	eb 0b		 jmp	 SHORT $LN570@cckd_chkds
$LN569@cckd_chkds:
  01817	c7 84 24 dc 01
	00 00 00 00 00
	00		 mov	 DWORD PTR tv774[rsp], 0
$LN570@cckd_chkds:
  01822	48 8b 84 24 d0
	21 04 00	 mov	 rax, QWORD PTR dev$[rsp]
  0182a	48 05 a4 00 00
	00		 add	 rax, 164		; 000000a4H
  01830	48 89 84 24 98
	05 00 00	 mov	 QWORD PTR tv763[rsp], rax
  01838	b9 01 00 00 00	 mov	 ecx, 1
  0183d	ff 15 00 00 00
	00		 call	 QWORD PTR __imp___acrt_iob_func
  01843	8b 8c 24 d8 21
	04 00		 mov	 ecx, DWORD PTR level$[rsp]
  0184a	89 4c 24 50	 mov	 DWORD PTR [rsp+80], ecx
  0184e	48 8b 8c 24 98
	05 00 00	 mov	 rcx, QWORD PTR tv763[rsp]
  01856	48 89 4c 24 48	 mov	 QWORD PTR [rsp+72], rcx
  0185b	8b 8c 24 d8 01
	00 00		 mov	 ecx, DWORD PTR tv768[rsp]
  01862	89 4c 24 40	 mov	 DWORD PTR [rsp+64], ecx
  01866	8b 8c 24 dc 01
	00 00		 mov	 ecx, DWORD PTR tv774[rsp]
  0186d	89 4c 24 38	 mov	 DWORD PTR [rsp+56], ecx
  01871	48 8d 0d 00 00
	00 00		 lea	 rcx, OFFSET FLAT:$SG170093
  01878	48 89 4c 24 30	 mov	 QWORD PTR [rsp+48], rcx
  0187d	48 8d 0d 00 00
	00 00		 lea	 rcx, OFFSET FLAT:$SG170094
  01884	48 89 4c 24 28	 mov	 QWORD PTR [rsp+40], rcx
  01889	48 89 44 24 20	 mov	 QWORD PTR [rsp+32], rax
  0188e	41 b9 03 00 00
	00		 mov	 r9d, 3
  01894	4c 8d 05 00 00
	00 00		 lea	 r8, OFFSET FLAT:$SG170095
  0189b	ba 12 05 00 00	 mov	 edx, 1298		; 00000512H
  018a0	48 8d 0d 00 00
	00 00		 lea	 rcx, OFFSET FLAT:$SG170096
  018a7	ff 15 00 00 00
	00		 call	 QWORD PTR __imp_fwritemsg
  018ad	e9 e3 00 00 00	 jmp	 $LN191@cckd_chkds
$LN190@cckd_chkds:

; 1299 :         else
; 1300 :             WRMSG( HHC00364, "W", LCSS_DEVNUM, dev->filename, level);

  018b2	48 83 bc 24 d0
	21 04 00 00	 cmp	 QWORD PTR dev$[rsp], 0
  018bb	74 15		 je	 SHORT $LN571@cckd_chkds
  018bd	48 8b 84 24 d0
	21 04 00	 mov	 rax, QWORD PTR dev$[rsp]
  018c5	0f b7 40 48	 movzx	 eax, WORD PTR [rax+72]
  018c9	89 84 24 e0 01
	00 00		 mov	 DWORD PTR tv791[rsp], eax
  018d0	eb 0b		 jmp	 SHORT $LN572@cckd_chkds
$LN571@cckd_chkds:
  018d2	c7 84 24 e0 01
	00 00 00 00 00
	00		 mov	 DWORD PTR tv791[rsp], 0
$LN572@cckd_chkds:
  018dd	48 83 bc 24 d0
	21 04 00 00	 cmp	 QWORD PTR dev$[rsp], 0
  018e6	74 17		 je	 SHORT $LN573@cckd_chkds
  018e8	48 8b 84 24 d0
	21 04 00	 mov	 rax, QWORD PTR dev$[rsp]
  018f0	0f b7 40 44	 movzx	 eax, WORD PTR [rax+68]
  018f4	d1 f8		 sar	 eax, 1
  018f6	89 84 24 e4 01
	00 00		 mov	 DWORD PTR tv797[rsp], eax
  018fd	eb 0b		 jmp	 SHORT $LN574@cckd_chkds
$LN573@cckd_chkds:
  018ff	c7 84 24 e4 01
	00 00 00 00 00
	00		 mov	 DWORD PTR tv797[rsp], 0
$LN574@cckd_chkds:
  0190a	48 8b 84 24 d0
	21 04 00	 mov	 rax, QWORD PTR dev$[rsp]
  01912	48 05 a4 00 00
	00		 add	 rax, 164		; 000000a4H
  01918	48 89 84 24 a0
	05 00 00	 mov	 QWORD PTR tv786[rsp], rax
  01920	b9 01 00 00 00	 mov	 ecx, 1
  01925	ff 15 00 00 00
	00		 call	 QWORD PTR __imp___acrt_iob_func
  0192b	8b 8c 24 d8 21
	04 00		 mov	 ecx, DWORD PTR level$[rsp]
  01932	89 4c 24 50	 mov	 DWORD PTR [rsp+80], ecx
  01936	48 8b 8c 24 a0
	05 00 00	 mov	 rcx, QWORD PTR tv786[rsp]
  0193e	48 89 4c 24 48	 mov	 QWORD PTR [rsp+72], rcx
  01943	8b 8c 24 e0 01
	00 00		 mov	 ecx, DWORD PTR tv791[rsp]
  0194a	89 4c 24 40	 mov	 DWORD PTR [rsp+64], ecx
  0194e	8b 8c 24 e4 01
	00 00		 mov	 ecx, DWORD PTR tv797[rsp]
  01955	89 4c 24 38	 mov	 DWORD PTR [rsp+56], ecx
  01959	48 8d 0d 00 00
	00 00		 lea	 rcx, OFFSET FLAT:$SG170097
  01960	48 89 4c 24 30	 mov	 QWORD PTR [rsp+48], rcx
  01965	48 8d 0d 00 00
	00 00		 lea	 rcx, OFFSET FLAT:$SG170098
  0196c	48 89 4c 24 28	 mov	 QWORD PTR [rsp+40], rcx
  01971	48 89 44 24 20	 mov	 QWORD PTR [rsp+32], rax
  01976	41 b9 03 00 00
	00		 mov	 r9d, 3
  0197c	4c 8d 05 00 00
	00 00		 lea	 r8, OFFSET FLAT:$SG170099
  01983	ba 14 05 00 00	 mov	 edx, 1300		; 00000514H
  01988	48 8d 0d 00 00
	00 00		 lea	 rcx, OFFSET FLAT:$SG170100
  0198f	ff 15 00 00 00
	00		 call	 QWORD PTR __imp_fwritemsg
$LN191@cckd_chkds:
$LN189@cckd_chkds:

; 1301 :     }
; 1302 : 
; 1303 :     /* cdevhdr inconsistencies check */
; 1304 :     hdrerr  = 0;

  01995	c7 84 24 c8 00
	00 00 00 00 00
	00		 mov	 DWORD PTR hdrerr$[rsp], 0

; 1305 :     hdrerr |= fst.st_size != (off_t)cdevhdr.cdh_size && cdevhdr.cdh_size != cdevhdr.free_off ? 0x0001 : 0;

  019a0	8b 84 24 ac 0b
	00 00		 mov	 eax, DWORD PTR cdevhdr$[rsp+12]
  019a7	48 39 84 24 b8
	0d 00 00	 cmp	 QWORD PTR fst$[rsp+24], rax
  019af	74 1d		 je	 SHORT $LN575@cckd_chkds
  019b1	8b 84 24 b4 0b
	00 00		 mov	 eax, DWORD PTR cdevhdr$[rsp+20]
  019b8	39 84 24 ac 0b
	00 00		 cmp	 DWORD PTR cdevhdr$[rsp+12], eax
  019bf	74 0d		 je	 SHORT $LN575@cckd_chkds
  019c1	c7 84 24 e8 01
	00 00 01 00 00
	00		 mov	 DWORD PTR tv811[rsp], 1
  019cc	eb 0b		 jmp	 SHORT $LN576@cckd_chkds
$LN575@cckd_chkds:
  019ce	c7 84 24 e8 01
	00 00 00 00 00
	00		 mov	 DWORD PTR tv811[rsp], 0
$LN576@cckd_chkds:
  019d9	8b 84 24 e8 01
	00 00		 mov	 eax, DWORD PTR tv811[rsp]
  019e0	8b 8c 24 c8 00
	00 00		 mov	 ecx, DWORD PTR hdrerr$[rsp]
  019e7	0b c8		 or	 ecx, eax
  019e9	8b c1		 mov	 eax, ecx
  019eb	89 84 24 c8 00
	00 00		 mov	 DWORD PTR hdrerr$[rsp], eax

; 1306 :     hdrerr |= cdevhdr.cdh_size !=      cdevhdr.free_total  +  cdevhdr.cdh_used               ? 0x0002 : 0;

  019f2	8b 84 24 b0 0b
	00 00		 mov	 eax, DWORD PTR cdevhdr$[rsp+16]
  019f9	8b 8c 24 b8 0b
	00 00		 mov	 ecx, DWORD PTR cdevhdr$[rsp+24]
  01a00	03 c8		 add	 ecx, eax
  01a02	8b c1		 mov	 eax, ecx
  01a04	39 84 24 ac 0b
	00 00		 cmp	 DWORD PTR cdevhdr$[rsp+12], eax
  01a0b	74 0d		 je	 SHORT $LN577@cckd_chkds
  01a0d	c7 84 24 ec 01
	00 00 02 00 00
	00		 mov	 DWORD PTR tv815[rsp], 2
  01a18	eb 0b		 jmp	 SHORT $LN578@cckd_chkds
$LN577@cckd_chkds:
  01a1a	c7 84 24 ec 01
	00 00 00 00 00
	00		 mov	 DWORD PTR tv815[rsp], 0
$LN578@cckd_chkds:
  01a25	8b 84 24 ec 01
	00 00		 mov	 eax, DWORD PTR tv815[rsp]
  01a2c	8b 8c 24 c8 00
	00 00		 mov	 ecx, DWORD PTR hdrerr$[rsp]
  01a33	0b c8		 or	 ecx, eax
  01a35	8b c1		 mov	 eax, ecx
  01a37	89 84 24 c8 00
	00 00		 mov	 DWORD PTR hdrerr$[rsp], eax

; 1307 :     hdrerr |= cdevhdr.free_largest  >  cdevhdr.free_total  -  cdevhdr.free_imbed             ? 0x0004 : 0;

  01a3e	8b 84 24 c4 0b
	00 00		 mov	 eax, DWORD PTR cdevhdr$[rsp+36]
  01a45	8b 8c 24 b8 0b
	00 00		 mov	 ecx, DWORD PTR cdevhdr$[rsp+24]
  01a4c	2b c8		 sub	 ecx, eax
  01a4e	8b c1		 mov	 eax, ecx
  01a50	39 84 24 bc 0b
	00 00		 cmp	 DWORD PTR cdevhdr$[rsp+28], eax
  01a57	76 0d		 jbe	 SHORT $LN579@cckd_chkds
  01a59	c7 84 24 f0 01
	00 00 04 00 00
	00		 mov	 DWORD PTR tv819[rsp], 4
  01a64	eb 0b		 jmp	 SHORT $LN580@cckd_chkds
$LN579@cckd_chkds:
  01a66	c7 84 24 f0 01
	00 00 00 00 00
	00		 mov	 DWORD PTR tv819[rsp], 0
$LN580@cckd_chkds:
  01a71	8b 84 24 f0 01
	00 00		 mov	 eax, DWORD PTR tv819[rsp]
  01a78	8b 8c 24 c8 00
	00 00		 mov	 ecx, DWORD PTR hdrerr$[rsp]
  01a7f	0b c8		 or	 ecx, eax
  01a81	8b c1		 mov	 eax, ecx
  01a83	89 84 24 c8 00
	00 00		 mov	 DWORD PTR hdrerr$[rsp], eax

; 1308 :     hdrerr |= cdevhdr.free_off == 0 && cdevhdr.free_num    != 0                              ? 0x0008 : 0;

  01a8a	83 bc 24 b4 0b
	00 00 00	 cmp	 DWORD PTR cdevhdr$[rsp+20], 0
  01a92	75 17		 jne	 SHORT $LN581@cckd_chkds
  01a94	83 bc 24 c0 0b
	00 00 00	 cmp	 DWORD PTR cdevhdr$[rsp+32], 0
  01a9c	74 0d		 je	 SHORT $LN581@cckd_chkds
  01a9e	c7 84 24 f4 01
	00 00 08 00 00
	00		 mov	 DWORD PTR tv823[rsp], 8
  01aa9	eb 0b		 jmp	 SHORT $LN582@cckd_chkds
$LN581@cckd_chkds:
  01aab	c7 84 24 f4 01
	00 00 00 00 00
	00		 mov	 DWORD PTR tv823[rsp], 0
$LN582@cckd_chkds:
  01ab6	8b 84 24 f4 01
	00 00		 mov	 eax, DWORD PTR tv823[rsp]
  01abd	8b 8c 24 c8 00
	00 00		 mov	 ecx, DWORD PTR hdrerr$[rsp]
  01ac4	0b c8		 or	 ecx, eax
  01ac6	8b c1		 mov	 eax, ecx
  01ac8	89 84 24 c8 00
	00 00		 mov	 DWORD PTR hdrerr$[rsp], eax

; 1309 :     hdrerr |= cdevhdr.free_off == 0 && cdevhdr.free_total  != cdevhdr.free_imbed             ? 0x0010 : 0;

  01acf	83 bc 24 b4 0b
	00 00 00	 cmp	 DWORD PTR cdevhdr$[rsp+20], 0
  01ad7	75 1d		 jne	 SHORT $LN583@cckd_chkds
  01ad9	8b 84 24 c4 0b
	00 00		 mov	 eax, DWORD PTR cdevhdr$[rsp+36]
  01ae0	39 84 24 b8 0b
	00 00		 cmp	 DWORD PTR cdevhdr$[rsp+24], eax
  01ae7	74 0d		 je	 SHORT $LN583@cckd_chkds
  01ae9	c7 84 24 f8 01
	00 00 10 00 00
	00		 mov	 DWORD PTR tv827[rsp], 16
  01af4	eb 0b		 jmp	 SHORT $LN584@cckd_chkds
$LN583@cckd_chkds:
  01af6	c7 84 24 f8 01
	00 00 00 00 00
	00		 mov	 DWORD PTR tv827[rsp], 0
$LN584@cckd_chkds:
  01b01	8b 84 24 f8 01
	00 00		 mov	 eax, DWORD PTR tv827[rsp]
  01b08	8b 8c 24 c8 00
	00 00		 mov	 ecx, DWORD PTR hdrerr$[rsp]
  01b0f	0b c8		 or	 ecx, eax
  01b11	8b c1		 mov	 eax, ecx
  01b13	89 84 24 c8 00
	00 00		 mov	 DWORD PTR hdrerr$[rsp], eax

; 1310 :     hdrerr |= cdevhdr.free_off != 0 && cdevhdr.free_total  == 0                              ? 0x0020 : 0;

  01b1a	83 bc 24 b4 0b
	00 00 00	 cmp	 DWORD PTR cdevhdr$[rsp+20], 0
  01b22	74 17		 je	 SHORT $LN585@cckd_chkds
  01b24	83 bc 24 b8 0b
	00 00 00	 cmp	 DWORD PTR cdevhdr$[rsp+24], 0
  01b2c	75 0d		 jne	 SHORT $LN585@cckd_chkds
  01b2e	c7 84 24 fc 01
	00 00 20 00 00
	00		 mov	 DWORD PTR tv831[rsp], 32 ; 00000020H
  01b39	eb 0b		 jmp	 SHORT $LN586@cckd_chkds
$LN585@cckd_chkds:
  01b3b	c7 84 24 fc 01
	00 00 00 00 00
	00		 mov	 DWORD PTR tv831[rsp], 0
$LN586@cckd_chkds:
  01b46	8b 84 24 fc 01
	00 00		 mov	 eax, DWORD PTR tv831[rsp]
  01b4d	8b 8c 24 c8 00
	00 00		 mov	 ecx, DWORD PTR hdrerr$[rsp]
  01b54	0b c8		 or	 ecx, eax
  01b56	8b c1		 mov	 eax, ecx
  01b58	89 84 24 c8 00
	00 00		 mov	 DWORD PTR hdrerr$[rsp], eax

; 1311 :     hdrerr |= cdevhdr.free_off != 0 && cdevhdr.free_num    == 0                              ? 0x0040 : 0;

  01b5f	83 bc 24 b4 0b
	00 00 00	 cmp	 DWORD PTR cdevhdr$[rsp+20], 0
  01b67	74 17		 je	 SHORT $LN587@cckd_chkds
  01b69	83 bc 24 c0 0b
	00 00 00	 cmp	 DWORD PTR cdevhdr$[rsp+32], 0
  01b71	75 0d		 jne	 SHORT $LN587@cckd_chkds
  01b73	c7 84 24 00 02
	00 00 40 00 00
	00		 mov	 DWORD PTR tv867[rsp], 64 ; 00000040H
  01b7e	eb 0b		 jmp	 SHORT $LN588@cckd_chkds
$LN587@cckd_chkds:
  01b80	c7 84 24 00 02
	00 00 00 00 00
	00		 mov	 DWORD PTR tv867[rsp], 0
$LN588@cckd_chkds:
  01b8b	8b 84 24 00 02
	00 00		 mov	 eax, DWORD PTR tv867[rsp]
  01b92	8b 8c 24 c8 00
	00 00		 mov	 ecx, DWORD PTR hdrerr$[rsp]
  01b99	0b c8		 or	 ecx, eax
  01b9b	8b c1		 mov	 eax, ecx
  01b9d	89 84 24 c8 00
	00 00		 mov	 DWORD PTR hdrerr$[rsp], eax

; 1312 :     hdrerr |= cdevhdr.free_num == 0 && cdevhdr.free_total  != cdevhdr.free_imbed             ? 0x0080 : 0;

  01ba4	83 bc 24 c0 0b
	00 00 00	 cmp	 DWORD PTR cdevhdr$[rsp+32], 0
  01bac	75 1d		 jne	 SHORT $LN589@cckd_chkds
  01bae	8b 84 24 c4 0b
	00 00		 mov	 eax, DWORD PTR cdevhdr$[rsp+36]
  01bb5	39 84 24 b8 0b
	00 00		 cmp	 DWORD PTR cdevhdr$[rsp+24], eax
  01bbc	74 0d		 je	 SHORT $LN589@cckd_chkds
  01bbe	c7 84 24 04 02
	00 00 80 00 00
	00		 mov	 DWORD PTR tv871[rsp], 128 ; 00000080H
  01bc9	eb 0b		 jmp	 SHORT $LN590@cckd_chkds
$LN589@cckd_chkds:
  01bcb	c7 84 24 04 02
	00 00 00 00 00
	00		 mov	 DWORD PTR tv871[rsp], 0
$LN590@cckd_chkds:
  01bd6	8b 84 24 04 02
	00 00		 mov	 eax, DWORD PTR tv871[rsp]
  01bdd	8b 8c 24 c8 00
	00 00		 mov	 ecx, DWORD PTR hdrerr$[rsp]
  01be4	0b c8		 or	 ecx, eax
  01be6	8b c1		 mov	 eax, ecx
  01be8	89 84 24 c8 00
	00 00		 mov	 DWORD PTR hdrerr$[rsp], eax

; 1313 :     hdrerr |= cdevhdr.free_num != 0 && cdevhdr.free_total  <= cdevhdr.free_imbed             ? 0x0100 : 0;

  01bef	83 bc 24 c0 0b
	00 00 00	 cmp	 DWORD PTR cdevhdr$[rsp+32], 0
  01bf7	74 1d		 je	 SHORT $LN591@cckd_chkds
  01bf9	8b 84 24 c4 0b
	00 00		 mov	 eax, DWORD PTR cdevhdr$[rsp+36]
  01c00	39 84 24 b8 0b
	00 00		 cmp	 DWORD PTR cdevhdr$[rsp+24], eax
  01c07	77 0d		 ja	 SHORT $LN591@cckd_chkds
  01c09	c7 84 24 08 02
	00 00 00 01 00
	00		 mov	 DWORD PTR tv875[rsp], 256 ; 00000100H
  01c14	eb 0b		 jmp	 SHORT $LN592@cckd_chkds
$LN591@cckd_chkds:
  01c16	c7 84 24 08 02
	00 00 00 00 00
	00		 mov	 DWORD PTR tv875[rsp], 0
$LN592@cckd_chkds:
  01c21	8b 84 24 08 02
	00 00		 mov	 eax, DWORD PTR tv875[rsp]
  01c28	8b 8c 24 c8 00
	00 00		 mov	 ecx, DWORD PTR hdrerr$[rsp]
  01c2f	0b c8		 or	 ecx, eax
  01c31	8b c1		 mov	 eax, ecx
  01c33	89 84 24 c8 00
	00 00		 mov	 DWORD PTR hdrerr$[rsp], eax

; 1314 :     hdrerr |= cdevhdr.free_imbed    >  cdevhdr.free_total                                    ? 0x0200 : 0;

  01c3a	8b 84 24 b8 0b
	00 00		 mov	 eax, DWORD PTR cdevhdr$[rsp+24]
  01c41	39 84 24 c4 0b
	00 00		 cmp	 DWORD PTR cdevhdr$[rsp+36], eax
  01c48	76 0d		 jbe	 SHORT $LN593@cckd_chkds
  01c4a	c7 84 24 0c 02
	00 00 00 02 00
	00		 mov	 DWORD PTR tv878[rsp], 512 ; 00000200H
  01c55	eb 0b		 jmp	 SHORT $LN594@cckd_chkds
$LN593@cckd_chkds:
  01c57	c7 84 24 0c 02
	00 00 00 00 00
	00		 mov	 DWORD PTR tv878[rsp], 0
$LN594@cckd_chkds:
  01c62	8b 84 24 0c 02
	00 00		 mov	 eax, DWORD PTR tv878[rsp]
  01c69	8b 8c 24 c8 00
	00 00		 mov	 ecx, DWORD PTR hdrerr$[rsp]
  01c70	0b c8		 or	 ecx, eax
  01c72	8b c1		 mov	 eax, ecx
  01c74	89 84 24 c8 00
	00 00		 mov	 DWORD PTR hdrerr$[rsp], eax

; 1315 : 
; 1316 :     /* Additional checking if header errors */
; 1317 :     if (hdrerr != 0)

  01c7b	83 bc 24 c8 00
	00 00 00	 cmp	 DWORD PTR hdrerr$[rsp], 0
  01c83	0f 84 e7 03 00
	00		 je	 $LN192@cckd_chkds

; 1318 :     {
; 1319 :         // "%1d:%04X CCKD file %s: cdevhdr inconsistencies found, code %4.4X"
; 1320 :         if(dev->batch)

  01c89	48 8b 84 24 d0
	21 04 00	 mov	 rax, QWORD PTR dev$[rsp]
  01c91	8b 80 f8 05 00
	00		 mov	 eax, DWORD PTR [rax+1528]
  01c97	c1 e8 0a	 shr	 eax, 10
  01c9a	83 e0 01	 and	 eax, 1
  01c9d	85 c0		 test	 eax, eax
  01c9f	0f 84 e8 00 00
	00		 je	 $LN193@cckd_chkds

; 1321 :             FWRMSG( stdout, HHC00363, "W", LCSS_DEVNUM, dev->filename, hdrerr);

  01ca5	48 83 bc 24 d0
	21 04 00 00	 cmp	 QWORD PTR dev$[rsp], 0
  01cae	74 15		 je	 SHORT $LN595@cckd_chkds
  01cb0	48 8b 84 24 d0
	21 04 00	 mov	 rax, QWORD PTR dev$[rsp]
  01cb8	0f b7 40 48	 movzx	 eax, WORD PTR [rax+72]
  01cbc	89 84 24 10 02
	00 00		 mov	 DWORD PTR tv891[rsp], eax
  01cc3	eb 0b		 jmp	 SHORT $LN596@cckd_chkds
$LN595@cckd_chkds:
  01cc5	c7 84 24 10 02
	00 00 00 00 00
	00		 mov	 DWORD PTR tv891[rsp], 0
$LN596@cckd_chkds:
  01cd0	48 83 bc 24 d0
	21 04 00 00	 cmp	 QWORD PTR dev$[rsp], 0
  01cd9	74 17		 je	 SHORT $LN597@cckd_chkds
  01cdb	48 8b 84 24 d0
	21 04 00	 mov	 rax, QWORD PTR dev$[rsp]
  01ce3	0f b7 40 44	 movzx	 eax, WORD PTR [rax+68]
  01ce7	d1 f8		 sar	 eax, 1
  01ce9	89 84 24 14 02
	00 00		 mov	 DWORD PTR tv897[rsp], eax
  01cf0	eb 0b		 jmp	 SHORT $LN598@cckd_chkds
$LN597@cckd_chkds:
  01cf2	c7 84 24 14 02
	00 00 00 00 00
	00		 mov	 DWORD PTR tv897[rsp], 0
$LN598@cckd_chkds:
  01cfd	48 8b 84 24 d0
	21 04 00	 mov	 rax, QWORD PTR dev$[rsp]
  01d05	48 05 a4 00 00
	00		 add	 rax, 164		; 000000a4H
  01d0b	48 89 84 24 a8
	05 00 00	 mov	 QWORD PTR tv886[rsp], rax
  01d13	b9 01 00 00 00	 mov	 ecx, 1
  01d18	ff 15 00 00 00
	00		 call	 QWORD PTR __imp___acrt_iob_func
  01d1e	8b 8c 24 c8 00
	00 00		 mov	 ecx, DWORD PTR hdrerr$[rsp]
  01d25	89 4c 24 50	 mov	 DWORD PTR [rsp+80], ecx
  01d29	48 8b 8c 24 a8
	05 00 00	 mov	 rcx, QWORD PTR tv886[rsp]
  01d31	48 89 4c 24 48	 mov	 QWORD PTR [rsp+72], rcx
  01d36	8b 8c 24 10 02
	00 00		 mov	 ecx, DWORD PTR tv891[rsp]
  01d3d	89 4c 24 40	 mov	 DWORD PTR [rsp+64], ecx
  01d41	8b 8c 24 14 02
	00 00		 mov	 ecx, DWORD PTR tv897[rsp]
  01d48	89 4c 24 38	 mov	 DWORD PTR [rsp+56], ecx
  01d4c	48 8d 0d 00 00
	00 00		 lea	 rcx, OFFSET FLAT:$SG170104
  01d53	48 89 4c 24 30	 mov	 QWORD PTR [rsp+48], rcx
  01d58	48 8d 0d 00 00
	00 00		 lea	 rcx, OFFSET FLAT:$SG170105
  01d5f	48 89 4c 24 28	 mov	 QWORD PTR [rsp+40], rcx
  01d64	48 89 44 24 20	 mov	 QWORD PTR [rsp+32], rax
  01d69	41 b9 03 00 00
	00		 mov	 r9d, 3
  01d6f	4c 8d 05 00 00
	00 00		 lea	 r8, OFFSET FLAT:$SG170106
  01d76	ba 29 05 00 00	 mov	 edx, 1321		; 00000529H
  01d7b	48 8d 0d 00 00
	00 00		 lea	 rcx, OFFSET FLAT:$SG170107
  01d82	ff 15 00 00 00
	00		 call	 QWORD PTR __imp_fwritemsg
  01d88	e9 e3 00 00 00	 jmp	 $LN194@cckd_chkds
$LN193@cckd_chkds:

; 1322 :         else
; 1323 :             WRMSG( HHC00363, "W", LCSS_DEVNUM, dev->filename, hdrerr);

  01d8d	48 83 bc 24 d0
	21 04 00 00	 cmp	 QWORD PTR dev$[rsp], 0
  01d96	74 15		 je	 SHORT $LN599@cckd_chkds
  01d98	48 8b 84 24 d0
	21 04 00	 mov	 rax, QWORD PTR dev$[rsp]
  01da0	0f b7 40 48	 movzx	 eax, WORD PTR [rax+72]
  01da4	89 84 24 18 02
	00 00		 mov	 DWORD PTR tv914[rsp], eax
  01dab	eb 0b		 jmp	 SHORT $LN600@cckd_chkds
$LN599@cckd_chkds:
  01dad	c7 84 24 18 02
	00 00 00 00 00
	00		 mov	 DWORD PTR tv914[rsp], 0
$LN600@cckd_chkds:
  01db8	48 83 bc 24 d0
	21 04 00 00	 cmp	 QWORD PTR dev$[rsp], 0
  01dc1	74 17		 je	 SHORT $LN601@cckd_chkds
  01dc3	48 8b 84 24 d0
	21 04 00	 mov	 rax, QWORD PTR dev$[rsp]
  01dcb	0f b7 40 44	 movzx	 eax, WORD PTR [rax+68]
  01dcf	d1 f8		 sar	 eax, 1
  01dd1	89 84 24 1c 02
	00 00		 mov	 DWORD PTR tv920[rsp], eax
  01dd8	eb 0b		 jmp	 SHORT $LN602@cckd_chkds
$LN601@cckd_chkds:
  01dda	c7 84 24 1c 02
	00 00 00 00 00
	00		 mov	 DWORD PTR tv920[rsp], 0
$LN602@cckd_chkds:
  01de5	48 8b 84 24 d0
	21 04 00	 mov	 rax, QWORD PTR dev$[rsp]
  01ded	48 05 a4 00 00
	00		 add	 rax, 164		; 000000a4H
  01df3	48 89 84 24 b0
	05 00 00	 mov	 QWORD PTR tv909[rsp], rax
  01dfb	b9 01 00 00 00	 mov	 ecx, 1
  01e00	ff 15 00 00 00
	00		 call	 QWORD PTR __imp___acrt_iob_func
  01e06	8b 8c 24 c8 00
	00 00		 mov	 ecx, DWORD PTR hdrerr$[rsp]
  01e0d	89 4c 24 50	 mov	 DWORD PTR [rsp+80], ecx
  01e11	48 8b 8c 24 b0
	05 00 00	 mov	 rcx, QWORD PTR tv909[rsp]
  01e19	48 89 4c 24 48	 mov	 QWORD PTR [rsp+72], rcx
  01e1e	8b 8c 24 18 02
	00 00		 mov	 ecx, DWORD PTR tv914[rsp]
  01e25	89 4c 24 40	 mov	 DWORD PTR [rsp+64], ecx
  01e29	8b 8c 24 1c 02
	00 00		 mov	 ecx, DWORD PTR tv920[rsp]
  01e30	89 4c 24 38	 mov	 DWORD PTR [rsp+56], ecx
  01e34	48 8d 0d 00 00
	00 00		 lea	 rcx, OFFSET FLAT:$SG170108
  01e3b	48 89 4c 24 30	 mov	 QWORD PTR [rsp+48], rcx
  01e40	48 8d 0d 00 00
	00 00		 lea	 rcx, OFFSET FLAT:$SG170109
  01e47	48 89 4c 24 28	 mov	 QWORD PTR [rsp+40], rcx
  01e4c	48 89 44 24 20	 mov	 QWORD PTR [rsp+32], rax
  01e51	41 b9 03 00 00
	00		 mov	 r9d, 3
  01e57	4c 8d 05 00 00
	00 00		 lea	 r8, OFFSET FLAT:$SG170110
  01e5e	ba 2b 05 00 00	 mov	 edx, 1323		; 0000052bH
  01e63	48 8d 0d 00 00
	00 00		 lea	 rcx, OFFSET FLAT:$SG170111
  01e6a	ff 15 00 00 00
	00		 call	 QWORD PTR __imp_fwritemsg
$LN194@cckd_chkds:

; 1324 :         if (level < 1)

  01e70	83 bc 24 d8 21
	04 00 01	 cmp	 DWORD PTR level$[rsp], 1
  01e78	0f 8d f2 01 00
	00		 jge	 $LN195@cckd_chkds

; 1325 :         {
; 1326 :             level = 1;

  01e7e	c7 84 24 d8 21
	04 00 01 00 00
	00		 mov	 DWORD PTR level$[rsp], 1

; 1327 :             if(dev->batch)

  01e89	48 8b 84 24 d0
	21 04 00	 mov	 rax, QWORD PTR dev$[rsp]
  01e91	8b 80 f8 05 00
	00		 mov	 eax, DWORD PTR [rax+1528]
  01e97	c1 e8 0a	 shr	 eax, 10
  01e9a	83 e0 01	 and	 eax, 1
  01e9d	85 c0		 test	 eax, eax
  01e9f	0f 84 e8 00 00
	00		 je	 $LN196@cckd_chkds

; 1328 :                 FWRMSG( stdout, HHC00364, "W", LCSS_DEVNUM, dev->filename, level);

  01ea5	48 83 bc 24 d0
	21 04 00 00	 cmp	 QWORD PTR dev$[rsp], 0
  01eae	74 15		 je	 SHORT $LN603@cckd_chkds
  01eb0	48 8b 84 24 d0
	21 04 00	 mov	 rax, QWORD PTR dev$[rsp]
  01eb8	0f b7 40 48	 movzx	 eax, WORD PTR [rax+72]
  01ebc	89 84 24 20 02
	00 00		 mov	 DWORD PTR tv942[rsp], eax
  01ec3	eb 0b		 jmp	 SHORT $LN604@cckd_chkds
$LN603@cckd_chkds:
  01ec5	c7 84 24 20 02
	00 00 00 00 00
	00		 mov	 DWORD PTR tv942[rsp], 0
$LN604@cckd_chkds:
  01ed0	48 83 bc 24 d0
	21 04 00 00	 cmp	 QWORD PTR dev$[rsp], 0
  01ed9	74 17		 je	 SHORT $LN605@cckd_chkds
  01edb	48 8b 84 24 d0
	21 04 00	 mov	 rax, QWORD PTR dev$[rsp]
  01ee3	0f b7 40 44	 movzx	 eax, WORD PTR [rax+68]
  01ee7	d1 f8		 sar	 eax, 1
  01ee9	89 84 24 24 02
	00 00		 mov	 DWORD PTR tv948[rsp], eax
  01ef0	eb 0b		 jmp	 SHORT $LN606@cckd_chkds
$LN605@cckd_chkds:
  01ef2	c7 84 24 24 02
	00 00 00 00 00
	00		 mov	 DWORD PTR tv948[rsp], 0
$LN606@cckd_chkds:
  01efd	48 8b 84 24 d0
	21 04 00	 mov	 rax, QWORD PTR dev$[rsp]
  01f05	48 05 a4 00 00
	00		 add	 rax, 164		; 000000a4H
  01f0b	48 89 84 24 b8
	05 00 00	 mov	 QWORD PTR tv937[rsp], rax
  01f13	b9 01 00 00 00	 mov	 ecx, 1
  01f18	ff 15 00 00 00
	00		 call	 QWORD PTR __imp___acrt_iob_func
  01f1e	8b 8c 24 d8 21
	04 00		 mov	 ecx, DWORD PTR level$[rsp]
  01f25	89 4c 24 50	 mov	 DWORD PTR [rsp+80], ecx
  01f29	48 8b 8c 24 b8
	05 00 00	 mov	 rcx, QWORD PTR tv937[rsp]
  01f31	48 89 4c 24 48	 mov	 QWORD PTR [rsp+72], rcx
  01f36	8b 8c 24 20 02
	00 00		 mov	 ecx, DWORD PTR tv942[rsp]
  01f3d	89 4c 24 40	 mov	 DWORD PTR [rsp+64], ecx
  01f41	8b 8c 24 24 02
	00 00		 mov	 ecx, DWORD PTR tv948[rsp]
  01f48	89 4c 24 38	 mov	 DWORD PTR [rsp+56], ecx
  01f4c	48 8d 0d 00 00
	00 00		 lea	 rcx, OFFSET FLAT:$SG170115
  01f53	48 89 4c 24 30	 mov	 QWORD PTR [rsp+48], rcx
  01f58	48 8d 0d 00 00
	00 00		 lea	 rcx, OFFSET FLAT:$SG170116
  01f5f	48 89 4c 24 28	 mov	 QWORD PTR [rsp+40], rcx
  01f64	48 89 44 24 20	 mov	 QWORD PTR [rsp+32], rax
  01f69	41 b9 03 00 00
	00		 mov	 r9d, 3
  01f6f	4c 8d 05 00 00
	00 00		 lea	 r8, OFFSET FLAT:$SG170117
  01f76	ba 30 05 00 00	 mov	 edx, 1328		; 00000530H
  01f7b	48 8d 0d 00 00
	00 00		 lea	 rcx, OFFSET FLAT:$SG170118
  01f82	ff 15 00 00 00
	00		 call	 QWORD PTR __imp_fwritemsg
  01f88	e9 e3 00 00 00	 jmp	 $LN197@cckd_chkds
$LN196@cckd_chkds:

; 1329 :             else
; 1330 :                 WRMSG( HHC00364, "W", LCSS_DEVNUM, dev->filename, level);

  01f8d	48 83 bc 24 d0
	21 04 00 00	 cmp	 QWORD PTR dev$[rsp], 0
  01f96	74 15		 je	 SHORT $LN607@cckd_chkds
  01f98	48 8b 84 24 d0
	21 04 00	 mov	 rax, QWORD PTR dev$[rsp]
  01fa0	0f b7 40 48	 movzx	 eax, WORD PTR [rax+72]
  01fa4	89 84 24 28 02
	00 00		 mov	 DWORD PTR tv965[rsp], eax
  01fab	eb 0b		 jmp	 SHORT $LN608@cckd_chkds
$LN607@cckd_chkds:
  01fad	c7 84 24 28 02
	00 00 00 00 00
	00		 mov	 DWORD PTR tv965[rsp], 0
$LN608@cckd_chkds:
  01fb8	48 83 bc 24 d0
	21 04 00 00	 cmp	 QWORD PTR dev$[rsp], 0
  01fc1	74 17		 je	 SHORT $LN609@cckd_chkds
  01fc3	48 8b 84 24 d0
	21 04 00	 mov	 rax, QWORD PTR dev$[rsp]
  01fcb	0f b7 40 44	 movzx	 eax, WORD PTR [rax+68]
  01fcf	d1 f8		 sar	 eax, 1
  01fd1	89 84 24 2c 02
	00 00		 mov	 DWORD PTR tv971[rsp], eax
  01fd8	eb 0b		 jmp	 SHORT $LN610@cckd_chkds
$LN609@cckd_chkds:
  01fda	c7 84 24 2c 02
	00 00 00 00 00
	00		 mov	 DWORD PTR tv971[rsp], 0
$LN610@cckd_chkds:
  01fe5	48 8b 84 24 d0
	21 04 00	 mov	 rax, QWORD PTR dev$[rsp]
  01fed	48 05 a4 00 00
	00		 add	 rax, 164		; 000000a4H
  01ff3	48 89 84 24 c0
	05 00 00	 mov	 QWORD PTR tv960[rsp], rax
  01ffb	b9 01 00 00 00	 mov	 ecx, 1
  02000	ff 15 00 00 00
	00		 call	 QWORD PTR __imp___acrt_iob_func
  02006	8b 8c 24 d8 21
	04 00		 mov	 ecx, DWORD PTR level$[rsp]
  0200d	89 4c 24 50	 mov	 DWORD PTR [rsp+80], ecx
  02011	48 8b 8c 24 c0
	05 00 00	 mov	 rcx, QWORD PTR tv960[rsp]
  02019	48 89 4c 24 48	 mov	 QWORD PTR [rsp+72], rcx
  0201e	8b 8c 24 28 02
	00 00		 mov	 ecx, DWORD PTR tv965[rsp]
  02025	89 4c 24 40	 mov	 DWORD PTR [rsp+64], ecx
  02029	8b 8c 24 2c 02
	00 00		 mov	 ecx, DWORD PTR tv971[rsp]
  02030	89 4c 24 38	 mov	 DWORD PTR [rsp+56], ecx
  02034	48 8d 0d 00 00
	00 00		 lea	 rcx, OFFSET FLAT:$SG170119
  0203b	48 89 4c 24 30	 mov	 QWORD PTR [rsp+48], rcx
  02040	48 8d 0d 00 00
	00 00		 lea	 rcx, OFFSET FLAT:$SG170120
  02047	48 89 4c 24 28	 mov	 QWORD PTR [rsp+40], rcx
  0204c	48 89 44 24 20	 mov	 QWORD PTR [rsp+32], rax
  02051	41 b9 03 00 00
	00		 mov	 r9d, 3
  02057	4c 8d 05 00 00
	00 00		 lea	 r8, OFFSET FLAT:$SG170121
  0205e	ba 32 05 00 00	 mov	 edx, 1330		; 00000532H
  02063	48 8d 0d 00 00
	00 00		 lea	 rcx, OFFSET FLAT:$SG170122
  0206a	ff 15 00 00 00
	00		 call	 QWORD PTR __imp_fwritemsg
$LN197@cckd_chkds:
$LN195@cckd_chkds:
$LN192@cckd_chkds:

; 1331 :         }
; 1332 :     }
; 1333 : 
; 1334 :     /* Additional checking if not properly closed */
; 1335 :     if (level < 1 && (cdevhdr.cdh_opts & CCKD_OPT_OPENED))

  02070	83 bc 24 d8 21
	04 00 01	 cmp	 DWORD PTR level$[rsp], 1
  02078	0f 8d 07 02 00
	00		 jge	 $LN198@cckd_chkds
  0207e	0f b6 84 24 a3
	0b 00 00	 movzx	 eax, BYTE PTR cdevhdr$[rsp+3]
  02086	25 80 00 00 00	 and	 eax, 128		; 00000080H
  0208b	85 c0		 test	 eax, eax
  0208d	0f 84 f2 01 00
	00		 je	 $LN198@cckd_chkds

; 1336 :     {
; 1337 :         level = 1;

  02093	c7 84 24 d8 21
	04 00 01 00 00
	00		 mov	 DWORD PTR level$[rsp], 1

; 1338 :         if(dev->batch)

  0209e	48 8b 84 24 d0
	21 04 00	 mov	 rax, QWORD PTR dev$[rsp]
  020a6	8b 80 f8 05 00
	00		 mov	 eax, DWORD PTR [rax+1528]
  020ac	c1 e8 0a	 shr	 eax, 10
  020af	83 e0 01	 and	 eax, 1
  020b2	85 c0		 test	 eax, eax
  020b4	0f 84 e8 00 00
	00		 je	 $LN199@cckd_chkds

; 1339 :             FWRMSG( stdout, HHC00364, "W", LCSS_DEVNUM, dev->filename, level);

  020ba	48 83 bc 24 d0
	21 04 00 00	 cmp	 QWORD PTR dev$[rsp], 0
  020c3	74 15		 je	 SHORT $LN611@cckd_chkds
  020c5	48 8b 84 24 d0
	21 04 00	 mov	 rax, QWORD PTR dev$[rsp]
  020cd	0f b7 40 48	 movzx	 eax, WORD PTR [rax+72]
  020d1	89 84 24 30 02
	00 00		 mov	 DWORD PTR tv1028[rsp], eax
  020d8	eb 0b		 jmp	 SHORT $LN612@cckd_chkds
$LN611@cckd_chkds:
  020da	c7 84 24 30 02
	00 00 00 00 00
	00		 mov	 DWORD PTR tv1028[rsp], 0
$LN612@cckd_chkds:
  020e5	48 83 bc 24 d0
	21 04 00 00	 cmp	 QWORD PTR dev$[rsp], 0
  020ee	74 17		 je	 SHORT $LN613@cckd_chkds
  020f0	48 8b 84 24 d0
	21 04 00	 mov	 rax, QWORD PTR dev$[rsp]
  020f8	0f b7 40 44	 movzx	 eax, WORD PTR [rax+68]
  020fc	d1 f8		 sar	 eax, 1
  020fe	89 84 24 34 02
	00 00		 mov	 DWORD PTR tv1034[rsp], eax
  02105	eb 0b		 jmp	 SHORT $LN614@cckd_chkds
$LN613@cckd_chkds:
  02107	c7 84 24 34 02
	00 00 00 00 00
	00		 mov	 DWORD PTR tv1034[rsp], 0
$LN614@cckd_chkds:
  02112	48 8b 84 24 d0
	21 04 00	 mov	 rax, QWORD PTR dev$[rsp]
  0211a	48 05 a4 00 00
	00		 add	 rax, 164		; 000000a4H
  02120	48 89 84 24 c8
	05 00 00	 mov	 QWORD PTR tv991[rsp], rax
  02128	b9 01 00 00 00	 mov	 ecx, 1
  0212d	ff 15 00 00 00
	00		 call	 QWORD PTR __imp___acrt_iob_func
  02133	8b 8c 24 d8 21
	04 00		 mov	 ecx, DWORD PTR level$[rsp]
  0213a	89 4c 24 50	 mov	 DWORD PTR [rsp+80], ecx
  0213e	48 8b 8c 24 c8
	05 00 00	 mov	 rcx, QWORD PTR tv991[rsp]
  02146	48 89 4c 24 48	 mov	 QWORD PTR [rsp+72], rcx
  0214b	8b 8c 24 30 02
	00 00		 mov	 ecx, DWORD PTR tv1028[rsp]
  02152	89 4c 24 40	 mov	 DWORD PTR [rsp+64], ecx
  02156	8b 8c 24 34 02
	00 00		 mov	 ecx, DWORD PTR tv1034[rsp]
  0215d	89 4c 24 38	 mov	 DWORD PTR [rsp+56], ecx
  02161	48 8d 0d 00 00
	00 00		 lea	 rcx, OFFSET FLAT:$SG170126
  02168	48 89 4c 24 30	 mov	 QWORD PTR [rsp+48], rcx
  0216d	48 8d 0d 00 00
	00 00		 lea	 rcx, OFFSET FLAT:$SG170127
  02174	48 89 4c 24 28	 mov	 QWORD PTR [rsp+40], rcx
  02179	48 89 44 24 20	 mov	 QWORD PTR [rsp+32], rax
  0217e	41 b9 03 00 00
	00		 mov	 r9d, 3
  02184	4c 8d 05 00 00
	00 00		 lea	 r8, OFFSET FLAT:$SG170128
  0218b	ba 3b 05 00 00	 mov	 edx, 1339		; 0000053bH
  02190	48 8d 0d 00 00
	00 00		 lea	 rcx, OFFSET FLAT:$SG170129
  02197	ff 15 00 00 00
	00		 call	 QWORD PTR __imp_fwritemsg
  0219d	e9 e3 00 00 00	 jmp	 $LN200@cckd_chkds
$LN199@cckd_chkds:

; 1340 :         else
; 1341 :             WRMSG( HHC00364, "W", LCSS_DEVNUM, dev->filename, level);

  021a2	48 83 bc 24 d0
	21 04 00 00	 cmp	 QWORD PTR dev$[rsp], 0
  021ab	74 15		 je	 SHORT $LN615@cckd_chkds
  021ad	48 8b 84 24 d0
	21 04 00	 mov	 rax, QWORD PTR dev$[rsp]
  021b5	0f b7 40 48	 movzx	 eax, WORD PTR [rax+72]
  021b9	89 84 24 38 02
	00 00		 mov	 DWORD PTR tv1051[rsp], eax
  021c0	eb 0b		 jmp	 SHORT $LN616@cckd_chkds
$LN615@cckd_chkds:
  021c2	c7 84 24 38 02
	00 00 00 00 00
	00		 mov	 DWORD PTR tv1051[rsp], 0
$LN616@cckd_chkds:
  021cd	48 83 bc 24 d0
	21 04 00 00	 cmp	 QWORD PTR dev$[rsp], 0
  021d6	74 17		 je	 SHORT $LN617@cckd_chkds
  021d8	48 8b 84 24 d0
	21 04 00	 mov	 rax, QWORD PTR dev$[rsp]
  021e0	0f b7 40 44	 movzx	 eax, WORD PTR [rax+68]
  021e4	d1 f8		 sar	 eax, 1
  021e6	89 84 24 3c 02
	00 00		 mov	 DWORD PTR tv1057[rsp], eax
  021ed	eb 0b		 jmp	 SHORT $LN618@cckd_chkds
$LN617@cckd_chkds:
  021ef	c7 84 24 3c 02
	00 00 00 00 00
	00		 mov	 DWORD PTR tv1057[rsp], 0
$LN618@cckd_chkds:
  021fa	48 8b 84 24 d0
	21 04 00	 mov	 rax, QWORD PTR dev$[rsp]
  02202	48 05 a4 00 00
	00		 add	 rax, 164		; 000000a4H
  02208	48 89 84 24 d0
	05 00 00	 mov	 QWORD PTR tv1046[rsp], rax
  02210	b9 01 00 00 00	 mov	 ecx, 1
  02215	ff 15 00 00 00
	00		 call	 QWORD PTR __imp___acrt_iob_func
  0221b	8b 8c 24 d8 21
	04 00		 mov	 ecx, DWORD PTR level$[rsp]
  02222	89 4c 24 50	 mov	 DWORD PTR [rsp+80], ecx
  02226	48 8b 8c 24 d0
	05 00 00	 mov	 rcx, QWORD PTR tv1046[rsp]
  0222e	48 89 4c 24 48	 mov	 QWORD PTR [rsp+72], rcx
  02233	8b 8c 24 38 02
	00 00		 mov	 ecx, DWORD PTR tv1051[rsp]
  0223a	89 4c 24 40	 mov	 DWORD PTR [rsp+64], ecx
  0223e	8b 8c 24 3c 02
	00 00		 mov	 ecx, DWORD PTR tv1057[rsp]
  02245	89 4c 24 38	 mov	 DWORD PTR [rsp+56], ecx
  02249	48 8d 0d 00 00
	00 00		 lea	 rcx, OFFSET FLAT:$SG170130
  02250	48 89 4c 24 30	 mov	 QWORD PTR [rsp+48], rcx
  02255	48 8d 0d 00 00
	00 00		 lea	 rcx, OFFSET FLAT:$SG170131
  0225c	48 89 4c 24 28	 mov	 QWORD PTR [rsp+40], rcx
  02261	48 89 44 24 20	 mov	 QWORD PTR [rsp+32], rax
  02266	41 b9 03 00 00
	00		 mov	 r9d, 3
  0226c	4c 8d 05 00 00
	00 00		 lea	 r8, OFFSET FLAT:$SG170132
  02273	ba 3d 05 00 00	 mov	 edx, 1341		; 0000053dH
  02278	48 8d 0d 00 00
	00 00		 lea	 rcx, OFFSET FLAT:$SG170133
  0227f	ff 15 00 00 00
	00		 call	 QWORD PTR __imp_fwritemsg
$LN200@cckd_chkds:
$LN198@cckd_chkds:

; 1342 :     }
; 1343 : 
; 1344 :     /* Additional checking if last opened for read/write */
; 1345 :     if (level < 0 && (cdevhdr.cdh_opts & CCKD_OPT_OPENRW))

  02285	83 bc 24 d8 21
	04 00 00	 cmp	 DWORD PTR level$[rsp], 0
  0228d	7d 1a		 jge	 SHORT $LN201@cckd_chkds
  0228f	0f b6 84 24 a3
	0b 00 00	 movzx	 eax, BYTE PTR cdevhdr$[rsp+3]
  02297	83 e0 40	 and	 eax, 64			; 00000040H
  0229a	85 c0		 test	 eax, eax
  0229c	74 0b		 je	 SHORT $LN201@cckd_chkds

; 1346 :         level = 0;

  0229e	c7 84 24 d8 21
	04 00 00 00 00
	00		 mov	 DWORD PTR level$[rsp], 0
$LN201@cckd_chkds:

; 1347 : 
; 1348 :     /* Set check level -1 */
; 1349 :     if (level == 0 && !dev->batch && !hdrerr
; 1350 :      && (cdevhdr.cdh_opts & (CCKD_OPT_OPENED | CCKD_OPT_SPERRS)) == 0
; 1351 :      && ((cdevhdr.cdh_opts & (CCKD_OPT_OPENRW)) == 0 || ro))

  022a9	83 bc 24 d8 21
	04 00 00	 cmp	 DWORD PTR level$[rsp], 0
  022b1	75 57		 jne	 SHORT $LN202@cckd_chkds
  022b3	48 8b 84 24 d0
	21 04 00	 mov	 rax, QWORD PTR dev$[rsp]
  022bb	8b 80 f8 05 00
	00		 mov	 eax, DWORD PTR [rax+1528]
  022c1	c1 e8 0a	 shr	 eax, 10
  022c4	83 e0 01	 and	 eax, 1
  022c7	85 c0		 test	 eax, eax
  022c9	75 3f		 jne	 SHORT $LN202@cckd_chkds
  022cb	83 bc 24 c8 00
	00 00 00	 cmp	 DWORD PTR hdrerr$[rsp], 0
  022d3	75 35		 jne	 SHORT $LN202@cckd_chkds
  022d5	0f b6 84 24 a3
	0b 00 00	 movzx	 eax, BYTE PTR cdevhdr$[rsp+3]
  022dd	25 a0 00 00 00	 and	 eax, 160		; 000000a0H
  022e2	85 c0		 test	 eax, eax
  022e4	75 24		 jne	 SHORT $LN202@cckd_chkds
  022e6	0f b6 84 24 a3
	0b 00 00	 movzx	 eax, BYTE PTR cdevhdr$[rsp+3]
  022ee	83 e0 40	 and	 eax, 64			; 00000040H
  022f1	85 c0		 test	 eax, eax
  022f3	74 0a		 je	 SHORT $LN203@cckd_chkds
  022f5	83 bc 24 54 01
	00 00 00	 cmp	 DWORD PTR ro$[rsp], 0
  022fd	74 0b		 je	 SHORT $LN202@cckd_chkds
$LN203@cckd_chkds:

; 1352 :         level = -1;

  022ff	c7 84 24 d8 21
	04 00 ff ff ff
	ff		 mov	 DWORD PTR level$[rsp], -1
$LN202@cckd_chkds:

; 1353 : 
; 1354 :     /* Build empty l2 table */
; 1355 :     memset (&empty_l2, shadow, CCKD_L2TAB_SIZE);

  0230a	48 63 84 24 78
	01 00 00	 movsxd	 rax, DWORD PTR shadow$[rsp]
  02312	48 8d 8c 24 e0
	17 00 00	 lea	 rcx, QWORD PTR empty_l2$[rsp]
  0231a	48 8b f9	 mov	 rdi, rcx
  0231d	b9 00 08 00 00	 mov	 ecx, 2048		; 00000800H
  02322	f3 aa		 rep stosb

; 1356 :     if (shadow == 0 && cdevhdr.cdh_nullfmt != 0)

  02324	83 bc 24 78 01
	00 00 00	 cmp	 DWORD PTR shadow$[rsp], 0
  0232c	75 78		 jne	 SHORT $LN204@cckd_chkds
  0232e	0f b6 84 24 cc
	0b 00 00	 movzx	 eax, BYTE PTR cdevhdr$[rsp+44]
  02336	85 c0		 test	 eax, eax
  02338	74 6c		 je	 SHORT $LN204@cckd_chkds

; 1357 :         for (i = 0; i < 256; i++)

  0233a	c7 84 24 90 00
	00 00 00 00 00
	00		 mov	 DWORD PTR i$[rsp], 0
  02345	eb 10		 jmp	 SHORT $LN4@cckd_chkds
$LN2@cckd_chkds:
  02347	8b 84 24 90 00
	00 00		 mov	 eax, DWORD PTR i$[rsp]
  0234e	ff c0		 inc	 eax
  02350	89 84 24 90 00
	00 00		 mov	 DWORD PTR i$[rsp], eax
$LN4@cckd_chkds:
  02357	81 bc 24 90 00
	00 00 00 01 00
	00		 cmp	 DWORD PTR i$[rsp], 256	; 00000100H
  02362	7d 42		 jge	 SHORT $LN3@cckd_chkds

; 1358 :             empty_l2[i].L2_len = empty_l2[i].L2_size = cdevhdr.cdh_nullfmt;

  02364	0f b6 84 24 cc
	0b 00 00	 movzx	 eax, BYTE PTR cdevhdr$[rsp+44]
  0236c	66 89 84 24 64
	01 00 00	 mov	 WORD PTR tv1102[rsp], ax
  02374	48 63 84 24 90
	00 00 00	 movsxd	 rax, DWORD PTR i$[rsp]
  0237c	0f b7 8c 24 64
	01 00 00	 movzx	 ecx, WORD PTR tv1102[rsp]
  02384	66 89 8c c4 e6
	17 00 00	 mov	 WORD PTR empty_l2$[rsp+rax*8+6], cx
  0238c	48 63 84 24 90
	00 00 00	 movsxd	 rax, DWORD PTR i$[rsp]
  02394	0f b7 8c 24 64
	01 00 00	 movzx	 ecx, WORD PTR tv1102[rsp]
  0239c	66 89 8c c4 e4
	17 00 00	 mov	 WORD PTR empty_l2$[rsp+rax*8+4], cx
  023a4	eb a1		 jmp	 SHORT $LN2@cckd_chkds
$LN3@cckd_chkds:
$LN204@cckd_chkds:

; 1359 : 
; 1360 :     /*---------------------------------------------------------------
; 1361 :      * read the level 1 table
; 1362 :      *---------------------------------------------------------------*/
; 1363 :     len = l1size;

  023a6	8b 84 24 08 01
	00 00		 mov	 eax, DWORD PTR l1size$[rsp]
  023ad	89 84 24 a4 00
	00 00		 mov	 DWORD PTR len$[rsp], eax

; 1364 :     if ((l1 = malloc (len)) == NULL)

  023b4	48 63 84 24 a4
	00 00 00	 movsxd	 rax, DWORD PTR len$[rsp]
  023bc	48 8b c8	 mov	 rcx, rax
  023bf	ff 15 00 00 00
	00		 call	 QWORD PTR __imp_malloc
  023c5	48 89 84 24 30
	01 00 00	 mov	 QWORD PTR l1$[rsp], rax
  023cd	48 83 bc 24 30
	01 00 00 00	 cmp	 QWORD PTR l1$[rsp], 0
  023d6	75 05		 jne	 SHORT $LN205@cckd_chkds

; 1365 :         goto cdsk_error;

  023d8	e9 f8 8c 00 00	 jmp	 $cdsk_error$829
$LN205@cckd_chkds:

; 1366 :     off = CCKD_L1TAB_POS;

  023dd	48 c7 84 24 c0
	00 00 00 00 04
	00 00		 mov	 QWORD PTR off$[rsp], 1024 ; 00000400H

; 1367 :     if ( lseek (fd, off, SEEK_SET) < 0)

  023e9	45 33 c0	 xor	 r8d, r8d
  023ec	48 8b 94 24 c0
	00 00 00	 mov	 rdx, QWORD PTR off$[rsp]
  023f4	8b 8c 24 ac 00
	00 00		 mov	 ecx, DWORD PTR fd$[rsp]
  023fb	ff 15 00 00 00
	00		 call	 QWORD PTR __imp__lseeki64
  02401	48 85 c0	 test	 rax, rax
  02404	7d 05		 jge	 SHORT $LN206@cckd_chkds

; 1368 :         goto cdsk_lseek_error;

  02406	e9 b9 80 00 00	 jmp	 $cdsk_lseek_error$827
$LN206@cckd_chkds:

; 1369 :     gui_fprintf (stderr, "POS=%"PRIu64"\n", (U64) lseek( fd, 0, SEEK_CUR ));

  0240b	48 8b 05 00 00
	00 00		 mov	 rax, QWORD PTR __imp_extgui
  02412	83 38 00	 cmp	 DWORD PTR [rax], 0
  02415	74 43		 je	 SHORT $LN207@cckd_chkds
  02417	41 b8 01 00 00
	00		 mov	 r8d, 1
  0241d	33 d2		 xor	 edx, edx
  0241f	8b 8c 24 ac 00
	00 00		 mov	 ecx, DWORD PTR fd$[rsp]
  02426	ff 15 00 00 00
	00		 call	 QWORD PTR __imp__lseeki64
  0242c	48 89 84 24 d8
	05 00 00	 mov	 QWORD PTR tv1117[rsp], rax
  02434	b9 02 00 00 00	 mov	 ecx, 2
  02439	ff 15 00 00 00
	00		 call	 QWORD PTR __imp___acrt_iob_func
  0243f	48 8b 8c 24 d8
	05 00 00	 mov	 rcx, QWORD PTR tv1117[rsp]
  02447	4c 8b c1	 mov	 r8, rcx
  0244a	48 8d 15 00 00
	00 00		 lea	 rdx, OFFSET FLAT:$SG170141
  02451	48 8b c8	 mov	 rcx, rax
  02454	ff 15 00 00 00
	00		 call	 QWORD PTR __imp_w32_fprintf
$LN207@cckd_chkds:

; 1370 :     if ((rc = read (fd, l1, len)) != len)

  0245a	44 8b 84 24 a4
	00 00 00	 mov	 r8d, DWORD PTR len$[rsp]
  02462	48 8b 94 24 30
	01 00 00	 mov	 rdx, QWORD PTR l1$[rsp]
  0246a	8b 8c 24 ac 00
	00 00		 mov	 ecx, DWORD PTR fd$[rsp]
  02471	ff 15 00 00 00
	00		 call	 QWORD PTR __imp_read
  02477	89 84 24 b8 00
	00 00		 mov	 DWORD PTR rc$[rsp], eax
  0247e	8b 84 24 a4 00
	00 00		 mov	 eax, DWORD PTR len$[rsp]
  02485	39 84 24 b8 00
	00 00		 cmp	 DWORD PTR rc$[rsp], eax
  0248c	74 05		 je	 SHORT $LN208@cckd_chkds

; 1371 :         goto cdsk_read_error;

  0248e	e9 81 82 00 00	 jmp	 $cdsk_read_error$828
$LN208@cckd_chkds:

; 1372 :     if (swapend) cckd_swapend_l1 (l1, (int)cdevhdr.num_L1tab);

  02493	83 bc 24 48 01
	00 00 00	 cmp	 DWORD PTR swapend$[rsp], 0
  0249b	74 14		 je	 SHORT $LN209@cckd_chkds
  0249d	8b 94 24 a4 0b
	00 00		 mov	 edx, DWORD PTR cdevhdr$[rsp+4]
  024a4	48 8b 8c 24 30
	01 00 00	 mov	 rcx, QWORD PTR l1$[rsp]
  024ac	e8 00 00 00 00	 call	 cckd_swapend_l1
$LN209@cckd_chkds:

; 1373 :     lopos = CCKD_L1TAB_POS + l1size;

  024b1	48 63 84 24 08
	01 00 00	 movsxd	 rax, DWORD PTR l1size$[rsp]
  024b9	48 05 00 04 00
	00		 add	 rax, 1024		; 00000400H
  024bf	89 84 24 dc 00
	00 00		 mov	 DWORD PTR lopos$[rsp], eax

; 1374 : 
; 1375 :     /*---------------------------------------------------------------
; 1376 :      * initialize the space table
; 1377 :      *---------------------------------------------------------------*/
; 1378 : 
; 1379 :     /* find number of non-null l1 entries */
; 1380 :     for (i = n = 0; i < cdevhdr.num_L1tab; i++)

  024c6	c7 84 24 b4 00
	00 00 00 00 00
	00		 mov	 DWORD PTR n$[rsp], 0
  024d1	8b 84 24 b4 00
	00 00		 mov	 eax, DWORD PTR n$[rsp]
  024d8	89 84 24 90 00
	00 00		 mov	 DWORD PTR i$[rsp], eax
  024df	eb 10		 jmp	 SHORT $LN7@cckd_chkds
$LN5@cckd_chkds:
  024e1	8b 84 24 90 00
	00 00		 mov	 eax, DWORD PTR i$[rsp]
  024e8	ff c0		 inc	 eax
  024ea	89 84 24 90 00
	00 00		 mov	 DWORD PTR i$[rsp], eax
$LN7@cckd_chkds:
  024f1	8b 84 24 a4 0b
	00 00		 mov	 eax, DWORD PTR cdevhdr$[rsp+4]
  024f8	39 84 24 90 00
	00 00		 cmp	 DWORD PTR i$[rsp], eax
  024ff	7d 3e		 jge	 SHORT $LN6@cckd_chkds

; 1381 :         if (l1[i] != CCKD_NOSIZE && l1[i] != CCKD_MAXSIZE)

  02501	48 63 84 24 90
	00 00 00	 movsxd	 rax, DWORD PTR i$[rsp]
  02509	48 8b 8c 24 30
	01 00 00	 mov	 rcx, QWORD PTR l1$[rsp]
  02511	83 3c 81 00	 cmp	 DWORD PTR [rcx+rax*4], 0
  02515	74 26		 je	 SHORT $LN210@cckd_chkds
  02517	48 63 84 24 90
	00 00 00	 movsxd	 rax, DWORD PTR i$[rsp]
  0251f	48 8b 8c 24 30
	01 00 00	 mov	 rcx, QWORD PTR l1$[rsp]
  02527	83 3c 81 ff	 cmp	 DWORD PTR [rcx+rax*4], -1 ; ffffffffH
  0252b	74 10		 je	 SHORT $LN210@cckd_chkds

; 1382 :             n++;

  0252d	8b 84 24 b4 00
	00 00		 mov	 eax, DWORD PTR n$[rsp]
  02534	ff c0		 inc	 eax
  02536	89 84 24 b4 00
	00 00		 mov	 DWORD PTR n$[rsp], eax
$LN210@cckd_chkds:
  0253d	eb a2		 jmp	 SHORT $LN5@cckd_chkds
$LN6@cckd_chkds:

; 1383 : 
; 1384 :     if (level >= 4) n = cdevhdr.num_L1tab;

  0253f	83 bc 24 d8 21
	04 00 04	 cmp	 DWORD PTR level$[rsp], 4
  02547	7c 0e		 jl	 SHORT $LN211@cckd_chkds
  02549	8b 84 24 a4 0b
	00 00		 mov	 eax, DWORD PTR cdevhdr$[rsp+4]
  02550	89 84 24 b4 00
	00 00		 mov	 DWORD PTR n$[rsp], eax
$LN211@cckd_chkds:

; 1385 : 
; 1386 :     /* calculate max possible space table entries */
; 1387 :     n = 1 + 1 + 1                    // devhdr, cdevhdr, l1tab

  02557	69 84 24 b4 00
	00 00 00 01 00
	00		 imul	 eax, DWORD PTR n$[rsp], 256 ; 00000100H
  02562	8b 8c 24 b4 00
	00 00		 mov	 ecx, DWORD PTR n$[rsp]
  02569	8d 44 01 03	 lea	 eax, DWORD PTR [rcx+rax+3]
  0256d	69 8c 24 b4 00
	00 00 00 01 00
	00		 imul	 ecx, DWORD PTR n$[rsp], 256 ; 00000100H
  02578	8b 94 24 b4 00
	00 00		 mov	 edx, DWORD PTR n$[rsp]
  0257f	8d 4c 0a 01	 lea	 ecx, DWORD PTR [rdx+rcx+1]
  02583	8d 44 08 02	 lea	 eax, DWORD PTR [rax+rcx+2]
  02587	89 84 24 b4 00
	00 00		 mov	 DWORD PTR n$[rsp], eax

; 1388 :       + n                            // l2tabs
; 1389 :       + (n * 256)                    // trk/blk images
; 1390 :       + (1 + n + (n * 256) + 1)      // max possible free spaces
; 1391 :       + 1;                           // end-of-file
; 1392 : 
; 1393 :     /* obtain the space table */
; 1394 :     len = sizeof(SPCTAB);

  0258e	c7 84 24 a4 00
	00 00 18 00 00
	00		 mov	 DWORD PTR len$[rsp], 24

; 1395 :     if ((spctab = calloc (n, len)) == NULL)

  02599	48 63 84 24 a4
	00 00 00	 movsxd	 rax, DWORD PTR len$[rsp]
  025a1	48 63 8c 24 b4
	00 00 00	 movsxd	 rcx, DWORD PTR n$[rsp]
  025a9	48 8b d0	 mov	 rdx, rax
  025ac	ff 15 00 00 00
	00		 call	 QWORD PTR __imp_calloc
  025b2	48 89 84 24 98
	00 00 00	 mov	 QWORD PTR spctab$[rsp], rax
  025ba	48 83 bc 24 98
	00 00 00 00	 cmp	 QWORD PTR spctab$[rsp], 0
  025c3	75 05		 jne	 SHORT $LN212@cckd_chkds

; 1396 :         goto cdsk_calloc_error;

  025c5	e9 ac 88 00 00	 jmp	 $cdsk_calloc_error$830
$LN212@cckd_chkds:

; 1397 : 
; 1398 :     /* populate the table with what we have */
; 1399 :     s = 0;

  025ca	c7 84 24 a0 00
	00 00 00 00 00
	00		 mov	 DWORD PTR s$[rsp], 0

; 1400 : 
; 1401 :     /* devhdr */
; 1402 :     spctab[s].spc_typ = SPCTAB_DEVHDR;

  025d5	48 63 84 24 a0
	00 00 00	 movsxd	 rax, DWORD PTR s$[rsp]
  025dd	48 6b c0 18	 imul	 rax, rax, 24
  025e1	48 8b 8c 24 98
	00 00 00	 mov	 rcx, QWORD PTR spctab$[rsp]
  025e9	c6 04 01 01	 mov	 BYTE PTR [rcx+rax], 1

; 1403 :     spctab[s].spc_val = -1;

  025ed	48 63 84 24 a0
	00 00 00	 movsxd	 rax, DWORD PTR s$[rsp]
  025f5	48 6b c0 18	 imul	 rax, rax, 24
  025f9	48 8b 8c 24 98
	00 00 00	 mov	 rcx, QWORD PTR spctab$[rsp]
  02601	c7 44 01 04 ff
	ff ff ff	 mov	 DWORD PTR [rcx+rax+4], -1

; 1404 :     spctab[s].spc_off = 0;

  02609	48 63 84 24 a0
	00 00 00	 movsxd	 rax, DWORD PTR s$[rsp]
  02611	48 6b c0 18	 imul	 rax, rax, 24
  02615	48 8b 8c 24 98
	00 00 00	 mov	 rcx, QWORD PTR spctab$[rsp]
  0261d	c7 44 01 0c 00
	00 00 00	 mov	 DWORD PTR [rcx+rax+12], 0

; 1405 :     spctab[s].spc_len =

  02625	48 63 84 24 a0
	00 00 00	 movsxd	 rax, DWORD PTR s$[rsp]
  0262d	48 6b c0 18	 imul	 rax, rax, 24
  02631	48 8b 8c 24 98
	00 00 00	 mov	 rcx, QWORD PTR spctab$[rsp]
  02639	c7 44 01 14 00
	02 00 00	 mov	 DWORD PTR [rcx+rax+20], 512 ; 00000200H
  02641	48 63 84 24 a0
	00 00 00	 movsxd	 rax, DWORD PTR s$[rsp]
  02649	48 6b c0 18	 imul	 rax, rax, 24
  0264d	48 8b 8c 24 98
	00 00 00	 mov	 rcx, QWORD PTR spctab$[rsp]
  02655	c7 44 01 10 00
	02 00 00	 mov	 DWORD PTR [rcx+rax+16], 512 ; 00000200H

; 1406 :     spctab[s].spc_siz = CKD_DEVHDR_SIZE;
; 1407 :     s++;

  0265d	8b 84 24 a0 00
	00 00		 mov	 eax, DWORD PTR s$[rsp]
  02664	ff c0		 inc	 eax
  02666	89 84 24 a0 00
	00 00		 mov	 DWORD PTR s$[rsp], eax

; 1408 :     /* cdevhdr */
; 1409 :     spctab[s].spc_typ = SPCTAB_CDEVHDR;

  0266d	48 63 84 24 a0
	00 00 00	 movsxd	 rax, DWORD PTR s$[rsp]
  02675	48 6b c0 18	 imul	 rax, rax, 24
  02679	48 8b 8c 24 98
	00 00 00	 mov	 rcx, QWORD PTR spctab$[rsp]
  02681	c6 04 01 02	 mov	 BYTE PTR [rcx+rax], 2

; 1410 :     spctab[s].spc_val = -1;

  02685	48 63 84 24 a0
	00 00 00	 movsxd	 rax, DWORD PTR s$[rsp]
  0268d	48 6b c0 18	 imul	 rax, rax, 24
  02691	48 8b 8c 24 98
	00 00 00	 mov	 rcx, QWORD PTR spctab$[rsp]
  02699	c7 44 01 04 ff
	ff ff ff	 mov	 DWORD PTR [rcx+rax+4], -1

; 1411 :     spctab[s].spc_off = CCKD_DEVHDR_POS;

  026a1	48 63 84 24 a0
	00 00 00	 movsxd	 rax, DWORD PTR s$[rsp]
  026a9	48 6b c0 18	 imul	 rax, rax, 24
  026ad	48 8b 8c 24 98
	00 00 00	 mov	 rcx, QWORD PTR spctab$[rsp]
  026b5	c7 44 01 0c 00
	02 00 00	 mov	 DWORD PTR [rcx+rax+12], 512 ; 00000200H

; 1412 :     spctab[s].spc_len =

  026bd	48 63 84 24 a0
	00 00 00	 movsxd	 rax, DWORD PTR s$[rsp]
  026c5	48 6b c0 18	 imul	 rax, rax, 24
  026c9	48 8b 8c 24 98
	00 00 00	 mov	 rcx, QWORD PTR spctab$[rsp]
  026d1	c7 44 01 14 00
	02 00 00	 mov	 DWORD PTR [rcx+rax+20], 512 ; 00000200H
  026d9	48 63 84 24 a0
	00 00 00	 movsxd	 rax, DWORD PTR s$[rsp]
  026e1	48 6b c0 18	 imul	 rax, rax, 24
  026e5	48 8b 8c 24 98
	00 00 00	 mov	 rcx, QWORD PTR spctab$[rsp]
  026ed	c7 44 01 10 00
	02 00 00	 mov	 DWORD PTR [rcx+rax+16], 512 ; 00000200H

; 1413 :     spctab[s].spc_siz = CCKD_DEVHDR_SIZE;
; 1414 :     s++;

  026f5	8b 84 24 a0 00
	00 00		 mov	 eax, DWORD PTR s$[rsp]
  026fc	ff c0		 inc	 eax
  026fe	89 84 24 a0 00
	00 00		 mov	 DWORD PTR s$[rsp], eax

; 1415 :     /* l1 table */
; 1416 :     spctab[s].spc_typ = SPCTAB_L1;

  02705	48 63 84 24 a0
	00 00 00	 movsxd	 rax, DWORD PTR s$[rsp]
  0270d	48 6b c0 18	 imul	 rax, rax, 24
  02711	48 8b 8c 24 98
	00 00 00	 mov	 rcx, QWORD PTR spctab$[rsp]
  02719	c6 04 01 03	 mov	 BYTE PTR [rcx+rax], 3

; 1417 :     spctab[s].spc_val = -1;

  0271d	48 63 84 24 a0
	00 00 00	 movsxd	 rax, DWORD PTR s$[rsp]
  02725	48 6b c0 18	 imul	 rax, rax, 24
  02729	48 8b 8c 24 98
	00 00 00	 mov	 rcx, QWORD PTR spctab$[rsp]
  02731	c7 44 01 04 ff
	ff ff ff	 mov	 DWORD PTR [rcx+rax+4], -1

; 1418 :     spctab[s].spc_off = CCKD_L1TAB_POS;

  02739	48 63 84 24 a0
	00 00 00	 movsxd	 rax, DWORD PTR s$[rsp]
  02741	48 6b c0 18	 imul	 rax, rax, 24
  02745	48 8b 8c 24 98
	00 00 00	 mov	 rcx, QWORD PTR spctab$[rsp]
  0274d	c7 44 01 0c 00
	04 00 00	 mov	 DWORD PTR [rcx+rax+12], 1024 ; 00000400H

; 1419 :     spctab[s].spc_len =

  02755	48 63 84 24 a0
	00 00 00	 movsxd	 rax, DWORD PTR s$[rsp]
  0275d	48 6b c0 18	 imul	 rax, rax, 24
  02761	48 8b 8c 24 98
	00 00 00	 mov	 rcx, QWORD PTR spctab$[rsp]
  02769	8b 94 24 08 01
	00 00		 mov	 edx, DWORD PTR l1size$[rsp]
  02770	89 54 01 14	 mov	 DWORD PTR [rcx+rax+20], edx
  02774	48 63 84 24 a0
	00 00 00	 movsxd	 rax, DWORD PTR s$[rsp]
  0277c	48 6b c0 18	 imul	 rax, rax, 24
  02780	48 8b 8c 24 98
	00 00 00	 mov	 rcx, QWORD PTR spctab$[rsp]
  02788	8b 94 24 08 01
	00 00		 mov	 edx, DWORD PTR l1size$[rsp]
  0278f	89 54 01 10	 mov	 DWORD PTR [rcx+rax+16], edx

; 1420 :     spctab[s].spc_siz = l1size;
; 1421 :     s++;

  02793	8b 84 24 a0 00
	00 00		 mov	 eax, DWORD PTR s$[rsp]
  0279a	ff c0		 inc	 eax
  0279c	89 84 24 a0 00
	00 00		 mov	 DWORD PTR s$[rsp], eax

; 1422 :     /* l2 tables */
; 1423 :     for (i = 0; i < cdevhdr.num_L1tab && level < 4; i++)

  027a3	c7 84 24 90 00
	00 00 00 00 00
	00		 mov	 DWORD PTR i$[rsp], 0
  027ae	eb 10		 jmp	 SHORT $LN10@cckd_chkds
$LN8@cckd_chkds:
  027b0	8b 84 24 90 00
	00 00		 mov	 eax, DWORD PTR i$[rsp]
  027b7	ff c0		 inc	 eax
  027b9	89 84 24 90 00
	00 00		 mov	 DWORD PTR i$[rsp], eax
$LN10@cckd_chkds:
  027c0	8b 84 24 a4 0b
	00 00		 mov	 eax, DWORD PTR cdevhdr$[rsp+4]
  027c7	39 84 24 90 00
	00 00		 cmp	 DWORD PTR i$[rsp], eax
  027ce	0f 8d eb 00 00
	00		 jge	 $LN9@cckd_chkds
  027d4	83 bc 24 d8 21
	04 00 04	 cmp	 DWORD PTR level$[rsp], 4
  027dc	0f 8d dd 00 00
	00		 jge	 $LN9@cckd_chkds

; 1424 :     {
; 1425 :         if (l1[i] == CCKD_NOSIZE || l1[i] == CCKD_MAXSIZE)

  027e2	48 63 84 24 90
	00 00 00	 movsxd	 rax, DWORD PTR i$[rsp]
  027ea	48 8b 8c 24 30
	01 00 00	 mov	 rcx, QWORD PTR l1$[rsp]
  027f2	83 3c 81 00	 cmp	 DWORD PTR [rcx+rax*4], 0
  027f6	74 16		 je	 SHORT $LN214@cckd_chkds
  027f8	48 63 84 24 90
	00 00 00	 movsxd	 rax, DWORD PTR i$[rsp]
  02800	48 8b 8c 24 30
	01 00 00	 mov	 rcx, QWORD PTR l1$[rsp]
  02808	83 3c 81 ff	 cmp	 DWORD PTR [rcx+rax*4], -1 ; ffffffffH
  0280c	75 02		 jne	 SHORT $LN213@cckd_chkds
$LN214@cckd_chkds:

; 1426 :             continue;

  0280e	eb a0		 jmp	 SHORT $LN8@cckd_chkds
$LN213@cckd_chkds:

; 1427 :         spctab[s].spc_typ = SPCTAB_L2;

  02810	48 63 84 24 a0
	00 00 00	 movsxd	 rax, DWORD PTR s$[rsp]
  02818	48 6b c0 18	 imul	 rax, rax, 24
  0281c	48 8b 8c 24 98
	00 00 00	 mov	 rcx, QWORD PTR spctab$[rsp]
  02824	c6 04 01 04	 mov	 BYTE PTR [rcx+rax], 4

; 1428 :         spctab[s].spc_val = i;

  02828	48 63 84 24 a0
	00 00 00	 movsxd	 rax, DWORD PTR s$[rsp]
  02830	48 6b c0 18	 imul	 rax, rax, 24
  02834	48 8b 8c 24 98
	00 00 00	 mov	 rcx, QWORD PTR spctab$[rsp]
  0283c	8b 94 24 90 00
	00 00		 mov	 edx, DWORD PTR i$[rsp]
  02843	89 54 01 04	 mov	 DWORD PTR [rcx+rax+4], edx

; 1429 :         spctab[s].spc_off = l1[i];

  02847	48 63 84 24 90
	00 00 00	 movsxd	 rax, DWORD PTR i$[rsp]
  0284f	48 63 8c 24 a0
	00 00 00	 movsxd	 rcx, DWORD PTR s$[rsp]
  02857	48 6b c9 18	 imul	 rcx, rcx, 24
  0285b	48 8b 94 24 98
	00 00 00	 mov	 rdx, QWORD PTR spctab$[rsp]
  02863	48 8b bc 24 30
	01 00 00	 mov	 rdi, QWORD PTR l1$[rsp]
  0286b	8b 04 87	 mov	 eax, DWORD PTR [rdi+rax*4]
  0286e	89 44 0a 0c	 mov	 DWORD PTR [rdx+rcx+12], eax

; 1430 :         spctab[s].spc_len =

  02872	48 63 84 24 a0
	00 00 00	 movsxd	 rax, DWORD PTR s$[rsp]
  0287a	48 6b c0 18	 imul	 rax, rax, 24
  0287e	48 8b 8c 24 98
	00 00 00	 mov	 rcx, QWORD PTR spctab$[rsp]
  02886	c7 44 01 14 00
	08 00 00	 mov	 DWORD PTR [rcx+rax+20], 2048 ; 00000800H
  0288e	48 63 84 24 a0
	00 00 00	 movsxd	 rax, DWORD PTR s$[rsp]
  02896	48 6b c0 18	 imul	 rax, rax, 24
  0289a	48 8b 8c 24 98
	00 00 00	 mov	 rcx, QWORD PTR spctab$[rsp]
  028a2	c7 44 01 10 00
	08 00 00	 mov	 DWORD PTR [rcx+rax+16], 2048 ; 00000800H

; 1431 :         spctab[s].spc_siz = CCKD_L2TAB_SIZE;
; 1432 :         s++;

  028aa	8b 84 24 a0 00
	00 00		 mov	 eax, DWORD PTR s$[rsp]
  028b1	ff c0		 inc	 eax
  028b3	89 84 24 a0 00
	00 00		 mov	 DWORD PTR s$[rsp], eax

; 1433 :     }

  028ba	e9 f1 fe ff ff	 jmp	 $LN8@cckd_chkds
$LN9@cckd_chkds:

; 1434 :     /* end-of-file */
; 1435 :     spctab[s].spc_typ = SPCTAB_EOF;

  028bf	48 63 84 24 a0
	00 00 00	 movsxd	 rax, DWORD PTR s$[rsp]
  028c7	48 6b c0 18	 imul	 rax, rax, 24
  028cb	48 8b 8c 24 98
	00 00 00	 mov	 rcx, QWORD PTR spctab$[rsp]
  028d3	c6 04 01 08	 mov	 BYTE PTR [rcx+rax], 8

; 1436 :     spctab[s].spc_val = -1;

  028d7	48 63 84 24 a0
	00 00 00	 movsxd	 rax, DWORD PTR s$[rsp]
  028df	48 6b c0 18	 imul	 rax, rax, 24
  028e3	48 8b 8c 24 98
	00 00 00	 mov	 rcx, QWORD PTR spctab$[rsp]
  028eb	c7 44 01 04 ff
	ff ff ff	 mov	 DWORD PTR [rcx+rax+4], -1

; 1437 :     spctab[s].spc_off = (U32)fst.st_size;

  028f3	48 63 84 24 a0
	00 00 00	 movsxd	 rax, DWORD PTR s$[rsp]
  028fb	48 6b c0 18	 imul	 rax, rax, 24
  028ff	48 8b 8c 24 98
	00 00 00	 mov	 rcx, QWORD PTR spctab$[rsp]
  02907	8b 94 24 b8 0d
	00 00		 mov	 edx, DWORD PTR fst$[rsp+24]
  0290e	89 54 01 0c	 mov	 DWORD PTR [rcx+rax+12], edx

; 1438 :     spctab[s].spc_len =

  02912	48 63 84 24 a0
	00 00 00	 movsxd	 rax, DWORD PTR s$[rsp]
  0291a	48 6b c0 18	 imul	 rax, rax, 24
  0291e	48 8b 8c 24 98
	00 00 00	 mov	 rcx, QWORD PTR spctab$[rsp]
  02926	c7 44 01 14 00
	00 00 00	 mov	 DWORD PTR [rcx+rax+20], 0
  0292e	48 63 84 24 a0
	00 00 00	 movsxd	 rax, DWORD PTR s$[rsp]
  02936	48 6b c0 18	 imul	 rax, rax, 24
  0293a	48 8b 8c 24 98
	00 00 00	 mov	 rcx, QWORD PTR spctab$[rsp]
  02942	c7 44 01 10 00
	00 00 00	 mov	 DWORD PTR [rcx+rax+16], 0

; 1439 :     spctab[s].spc_siz = 0;
; 1440 :     s++;

  0294a	8b 84 24 a0 00
	00 00		 mov	 eax, DWORD PTR s$[rsp]
  02951	ff c0		 inc	 eax
  02953	89 84 24 a0 00
	00 00		 mov	 DWORD PTR s$[rsp], eax

; 1441 : 
; 1442 :     qsort (spctab, s, sizeof(SPCTAB), cdsk_spctab_sort);

  0295a	48 63 84 24 a0
	00 00 00	 movsxd	 rax, DWORD PTR s$[rsp]
  02962	4c 8d 0d 00 00
	00 00		 lea	 r9, OFFSET FLAT:cdsk_spctab_sort
  02969	41 b8 18 00 00
	00		 mov	 r8d, 24
  0296f	48 8b d0	 mov	 rdx, rax
  02972	48 8b 8c 24 98
	00 00 00	 mov	 rcx, QWORD PTR spctab$[rsp]
  0297a	ff 15 00 00 00
	00		 call	 QWORD PTR __imp_qsort

; 1443 : 
; 1444 :     /*---------------------------------------------------------------
; 1445 :      * Quick return if level -1
; 1446 :      *---------------------------------------------------------------*/
; 1447 : 
; 1448 :     if (level < 0)

  02980	83 bc 24 d8 21
	04 00 00	 cmp	 DWORD PTR level$[rsp], 0
  02988	0f 8d b2 00 00
	00		 jge	 $LN215@cckd_chkds

; 1449 :     {
; 1450 :         int err = 0;

  0298e	c7 84 24 40 02
	00 00 00 00 00
	00		 mov	 DWORD PTR err$4[rsp], 0

; 1451 :         /* check for overlaps */
; 1452 :         for (i = 0; spctab[i].spc_typ != SPCTAB_EOF; i++)

  02999	c7 84 24 90 00
	00 00 00 00 00
	00		 mov	 DWORD PTR i$[rsp], 0
  029a4	eb 10		 jmp	 SHORT $LN13@cckd_chkds
$LN11@cckd_chkds:
  029a6	8b 84 24 90 00
	00 00		 mov	 eax, DWORD PTR i$[rsp]
  029ad	ff c0		 inc	 eax
  029af	89 84 24 90 00
	00 00		 mov	 DWORD PTR i$[rsp], eax
$LN13@cckd_chkds:
  029b6	48 63 84 24 90
	00 00 00	 movsxd	 rax, DWORD PTR i$[rsp]
  029be	48 6b c0 18	 imul	 rax, rax, 24
  029c2	48 8b 8c 24 98
	00 00 00	 mov	 rcx, QWORD PTR spctab$[rsp]
  029ca	0f b6 04 01	 movzx	 eax, BYTE PTR [rcx+rax]
  029ce	83 f8 08	 cmp	 eax, 8
  029d1	74 5e		 je	 SHORT $LN12@cckd_chkds

; 1453 :             if (spctab[i].spc_off + spctab[i].spc_siz > spctab[i+1].spc_off)

  029d3	48 63 84 24 90
	00 00 00	 movsxd	 rax, DWORD PTR i$[rsp]
  029db	48 6b c0 18	 imul	 rax, rax, 24
  029df	48 63 8c 24 90
	00 00 00	 movsxd	 rcx, DWORD PTR i$[rsp]
  029e7	48 6b c9 18	 imul	 rcx, rcx, 24
  029eb	48 8b 94 24 98
	00 00 00	 mov	 rdx, QWORD PTR spctab$[rsp]
  029f3	8b 44 02 0c	 mov	 eax, DWORD PTR [rdx+rax+12]
  029f7	48 8b 94 24 98
	00 00 00	 mov	 rdx, QWORD PTR spctab$[rsp]
  029ff	03 44 0a 14	 add	 eax, DWORD PTR [rdx+rcx+20]
  02a03	8b 8c 24 90 00
	00 00		 mov	 ecx, DWORD PTR i$[rsp]
  02a0a	ff c1		 inc	 ecx
  02a0c	48 63 c9	 movsxd	 rcx, ecx
  02a0f	48 6b c9 18	 imul	 rcx, rcx, 24
  02a13	48 8b 94 24 98
	00 00 00	 mov	 rdx, QWORD PTR spctab$[rsp]
  02a1b	3b 44 0a 0c	 cmp	 eax, DWORD PTR [rdx+rcx+12]
  02a1f	76 0b		 jbe	 SHORT $LN216@cckd_chkds

; 1454 :                 err = 1;

  02a21	c7 84 24 40 02
	00 00 01 00 00
	00		 mov	 DWORD PTR err$4[rsp], 1
$LN216@cckd_chkds:
  02a2c	e9 75 ff ff ff	 jmp	 $LN11@cckd_chkds
$LN12@cckd_chkds:

; 1455 :         /* exit if no errors */
; 1456 :         if (!err) goto cdsk_return_ok;

  02a31	83 bc 24 40 02
	00 00 00	 cmp	 DWORD PTR err$4[rsp], 0
  02a39	75 05		 jne	 SHORT $LN217@cckd_chkds
  02a3b	e9 3a 75 00 00	 jmp	 $cdsk_return_ok$831
$LN217@cckd_chkds:
$LN215@cckd_chkds:

; 1457 :     }
; 1458 : 
; 1459 :     /*---------------------------------------------------------------
; 1460 :      * obtain the l2errs table and recovery table
; 1461 :      *---------------------------------------------------------------*/
; 1462 : 
; 1463 :     len = sizeof(BYTE);

  02a40	c7 84 24 a4 00
	00 00 01 00 00
	00		 mov	 DWORD PTR len$[rsp], 1

; 1464 : 
; 1465 :     n = cdevhdr.num_L1tab;

  02a4b	8b 84 24 a4 0b
	00 00		 mov	 eax, DWORD PTR cdevhdr$[rsp+4]
  02a52	89 84 24 b4 00
	00 00		 mov	 DWORD PTR n$[rsp], eax

; 1466 :     if ((l2errs = calloc (n, len)) == NULL)

  02a59	48 63 84 24 a4
	00 00 00	 movsxd	 rax, DWORD PTR len$[rsp]
  02a61	48 63 8c 24 b4
	00 00 00	 movsxd	 rcx, DWORD PTR n$[rsp]
  02a69	48 8b d0	 mov	 rdx, rax
  02a6c	ff 15 00 00 00
	00		 call	 QWORD PTR __imp_calloc
  02a72	48 89 84 24 68
	01 00 00	 mov	 QWORD PTR l2errs$[rsp], rax
  02a7a	48 83 bc 24 68
	01 00 00 00	 cmp	 QWORD PTR l2errs$[rsp], 0
  02a83	75 05		 jne	 SHORT $LN218@cckd_chkds

; 1467 :         goto cdsk_calloc_error;

  02a85	e9 ec 83 00 00	 jmp	 $cdsk_calloc_error$830
$LN218@cckd_chkds:

; 1468 : 
; 1469 :     n = trks;

  02a8a	8b 84 24 f4 00
	00 00		 mov	 eax, DWORD PTR trks$[rsp]
  02a91	89 84 24 b4 00
	00 00		 mov	 DWORD PTR n$[rsp], eax

; 1470 :     if ((rcvtab = calloc (n, len)) == NULL)

  02a98	48 63 84 24 a4
	00 00 00	 movsxd	 rax, DWORD PTR len$[rsp]
  02aa0	48 63 8c 24 b4
	00 00 00	 movsxd	 rcx, DWORD PTR n$[rsp]
  02aa8	48 8b d0	 mov	 rdx, rax
  02aab	ff 15 00 00 00
	00		 call	 QWORD PTR __imp_calloc
  02ab1	48 89 84 24 00
	01 00 00	 mov	 QWORD PTR rcvtab$[rsp], rax
  02ab9	48 83 bc 24 00
	01 00 00 00	 cmp	 QWORD PTR rcvtab$[rsp], 0
  02ac2	75 05		 jne	 SHORT $LN219@cckd_chkds

; 1471 :         goto cdsk_calloc_error;

  02ac4	e9 ad 83 00 00	 jmp	 $cdsk_calloc_error$830
$LN219@cckd_chkds:

; 1472 : 
; 1473 :     /*---------------------------------------------------------------
; 1474 :      * Special processing for level 4 (recover everything)
; 1475 :      *---------------------------------------------------------------*/
; 1476 : 
; 1477 :     if (level == 4)

  02ac9	83 bc 24 d8 21
	04 00 04	 cmp	 DWORD PTR level$[rsp], 4
  02ad1	75 53		 jne	 SHORT $LN220@cckd_chkds

; 1478 :     {
; 1479 :         memset (l2errs, 1, cdevhdr.num_L1tab);

  02ad3	48 63 84 24 a4
	0b 00 00	 movsxd	 rax, DWORD PTR cdevhdr$[rsp+4]
  02adb	48 89 84 24 e0
	05 00 00	 mov	 QWORD PTR tv1335[rsp], rax
  02ae3	48 8b bc 24 68
	01 00 00	 mov	 rdi, QWORD PTR l2errs$[rsp]
  02aeb	b8 01 00 00 00	 mov	 eax, 1
  02af0	48 8b 8c 24 e0
	05 00 00	 mov	 rcx, QWORD PTR tv1335[rsp]
  02af8	f3 aa		 rep stosb

; 1480 :         memset (rcvtab, 1, trks);

  02afa	48 63 84 24 f4
	00 00 00	 movsxd	 rax, DWORD PTR trks$[rsp]
  02b02	48 89 84 24 e8
	05 00 00	 mov	 QWORD PTR tv1340[rsp], rax
  02b0a	48 8b bc 24 00
	01 00 00	 mov	 rdi, QWORD PTR rcvtab$[rsp]
  02b12	b8 01 00 00 00	 mov	 eax, 1
  02b17	48 8b 8c 24 e8
	05 00 00	 mov	 rcx, QWORD PTR tv1340[rsp]
  02b1f	f3 aa		 rep stosb

; 1481 :         goto cdsk_recovery;

  02b21	e9 2b 2e 00 00	 jmp	 $cdsk_recovery$832
$LN220@cckd_chkds:

; 1482 :     }
; 1483 : 
; 1484 :     /*---------------------------------------------------------------
; 1485 :      * Read the level 2 tables
; 1486 :      *---------------------------------------------------------------*/
; 1487 : 
; 1488 :     for (i = 0; spctab[i].spc_typ != SPCTAB_EOF; i++)

  02b26	c7 84 24 90 00
	00 00 00 00 00
	00		 mov	 DWORD PTR i$[rsp], 0
  02b31	eb 10		 jmp	 SHORT $LN16@cckd_chkds
$LN14@cckd_chkds:
  02b33	8b 84 24 90 00
	00 00		 mov	 eax, DWORD PTR i$[rsp]
  02b3a	ff c0		 inc	 eax
  02b3c	89 84 24 90 00
	00 00		 mov	 DWORD PTR i$[rsp], eax
$LN16@cckd_chkds:
  02b43	48 63 84 24 90
	00 00 00	 movsxd	 rax, DWORD PTR i$[rsp]
  02b4b	48 6b c0 18	 imul	 rax, rax, 24
  02b4f	48 8b 8c 24 98
	00 00 00	 mov	 rcx, QWORD PTR spctab$[rsp]
  02b57	0f b6 04 01	 movzx	 eax, BYTE PTR [rcx+rax]
  02b5b	83 f8 08	 cmp	 eax, 8
  02b5e	0f 84 95 02 00
	00		 je	 $LN15@cckd_chkds

; 1489 :     {
; 1490 :         if (spctab[i].spc_typ != SPCTAB_L2
; 1491 :          || spctab[i].spc_off < lopos || spctab[i].spc_off > hipos)

  02b64	48 63 84 24 90
	00 00 00	 movsxd	 rax, DWORD PTR i$[rsp]
  02b6c	48 6b c0 18	 imul	 rax, rax, 24
  02b70	48 8b 8c 24 98
	00 00 00	 mov	 rcx, QWORD PTR spctab$[rsp]
  02b78	0f b6 04 01	 movzx	 eax, BYTE PTR [rcx+rax]
  02b7c	83 f8 04	 cmp	 eax, 4
  02b7f	75 42		 jne	 SHORT $LN222@cckd_chkds
  02b81	48 63 84 24 90
	00 00 00	 movsxd	 rax, DWORD PTR i$[rsp]
  02b89	48 6b c0 18	 imul	 rax, rax, 24
  02b8d	48 8b 8c 24 98
	00 00 00	 mov	 rcx, QWORD PTR spctab$[rsp]
  02b95	8b 94 24 dc 00
	00 00		 mov	 edx, DWORD PTR lopos$[rsp]
  02b9c	39 54 01 0c	 cmp	 DWORD PTR [rcx+rax+12], edx
  02ba0	72 21		 jb	 SHORT $LN222@cckd_chkds
  02ba2	48 63 84 24 90
	00 00 00	 movsxd	 rax, DWORD PTR i$[rsp]
  02baa	48 6b c0 18	 imul	 rax, rax, 24
  02bae	48 8b 8c 24 98
	00 00 00	 mov	 rcx, QWORD PTR spctab$[rsp]
  02bb6	8b 94 24 28 01
	00 00		 mov	 edx, DWORD PTR hipos$[rsp]
  02bbd	39 54 01 0c	 cmp	 DWORD PTR [rcx+rax+12], edx
  02bc1	76 05		 jbe	 SHORT $LN221@cckd_chkds
$LN222@cckd_chkds:

; 1492 :             continue;

  02bc3	e9 6b ff ff ff	 jmp	 $LN14@cckd_chkds
$LN221@cckd_chkds:

; 1493 : 
; 1494 :         off = spctab[i].spc_off;

  02bc8	48 63 84 24 90
	00 00 00	 movsxd	 rax, DWORD PTR i$[rsp]
  02bd0	48 6b c0 18	 imul	 rax, rax, 24
  02bd4	48 8b 8c 24 98
	00 00 00	 mov	 rcx, QWORD PTR spctab$[rsp]
  02bdc	8b 44 01 0c	 mov	 eax, DWORD PTR [rcx+rax+12]
  02be0	48 89 84 24 c0
	00 00 00	 mov	 QWORD PTR off$[rsp], rax

; 1495 :         if ( lseek (fd, off, SEEK_SET) < 0 )

  02be8	45 33 c0	 xor	 r8d, r8d
  02beb	48 8b 94 24 c0
	00 00 00	 mov	 rdx, QWORD PTR off$[rsp]
  02bf3	8b 8c 24 ac 00
	00 00		 mov	 ecx, DWORD PTR fd$[rsp]
  02bfa	ff 15 00 00 00
	00		 call	 QWORD PTR __imp__lseeki64
  02c00	48 85 c0	 test	 rax, rax
  02c03	7d 05		 jge	 SHORT $LN223@cckd_chkds

; 1496 :             goto cdsk_lseek_error;

  02c05	e9 ba 78 00 00	 jmp	 $cdsk_lseek_error$827
$LN223@cckd_chkds:

; 1497 :         gui_fprintf (stderr, "POS=%"PRIu64"\n", (U64) lseek( fd, 0, SEEK_CUR ));

  02c0a	48 8b 05 00 00
	00 00		 mov	 rax, QWORD PTR __imp_extgui
  02c11	83 38 00	 cmp	 DWORD PTR [rax], 0
  02c14	74 43		 je	 SHORT $LN224@cckd_chkds
  02c16	41 b8 01 00 00
	00		 mov	 r8d, 1
  02c1c	33 d2		 xor	 edx, edx
  02c1e	8b 8c 24 ac 00
	00 00		 mov	 ecx, DWORD PTR fd$[rsp]
  02c25	ff 15 00 00 00
	00		 call	 QWORD PTR __imp__lseeki64
  02c2b	48 89 84 24 f0
	05 00 00	 mov	 QWORD PTR tv1378[rsp], rax
  02c33	b9 02 00 00 00	 mov	 ecx, 2
  02c38	ff 15 00 00 00
	00		 call	 QWORD PTR __imp___acrt_iob_func
  02c3e	48 8b 8c 24 f0
	05 00 00	 mov	 rcx, QWORD PTR tv1378[rsp]
  02c46	4c 8b c1	 mov	 r8, rcx
  02c49	48 8d 15 00 00
	00 00		 lea	 rdx, OFFSET FLAT:$SG170159
  02c50	48 8b c8	 mov	 rcx, rax
  02c53	ff 15 00 00 00
	00		 call	 QWORD PTR __imp_w32_fprintf
$LN224@cckd_chkds:

; 1498 :         len = CCKD_L2TAB_SIZE;

  02c59	c7 84 24 a4 00
	00 00 00 08 00
	00		 mov	 DWORD PTR len$[rsp], 2048 ; 00000800H

; 1499 :         if ((rc = read (fd, l2tab, len)) != len)

  02c64	44 8b 84 24 a4
	00 00 00	 mov	 r8d, DWORD PTR len$[rsp]
  02c6c	48 8d 94 24 e0
	0f 00 00	 lea	 rdx, QWORD PTR l2tab$[rsp]
  02c74	8b 8c 24 ac 00
	00 00		 mov	 ecx, DWORD PTR fd$[rsp]
  02c7b	ff 15 00 00 00
	00		 call	 QWORD PTR __imp_read
  02c81	89 84 24 b8 00
	00 00		 mov	 DWORD PTR rc$[rsp], eax
  02c88	8b 84 24 a4 00
	00 00		 mov	 eax, DWORD PTR len$[rsp]
  02c8f	39 84 24 b8 00
	00 00		 cmp	 DWORD PTR rc$[rsp], eax
  02c96	74 05		 je	 SHORT $LN225@cckd_chkds

; 1500 :             goto cdsk_read_error;

  02c98	e9 77 7a 00 00	 jmp	 $cdsk_read_error$828
$LN225@cckd_chkds:

; 1501 :         if (swapend) cckd_swapend_l2 (l2tab);

  02c9d	83 bc 24 48 01
	00 00 00	 cmp	 DWORD PTR swapend$[rsp], 0
  02ca5	74 0d		 je	 SHORT $LN226@cckd_chkds
  02ca7	48 8d 8c 24 e0
	0f 00 00	 lea	 rcx, QWORD PTR l2tab$[rsp]
  02caf	e8 00 00 00 00	 call	 cckd_swapend_l2
$LN226@cckd_chkds:

; 1502 : 
; 1503 :         /* add trks/blkgrps to the space table */
; 1504 :         for (j = 0; j < 256; j++)

  02cb4	c7 84 24 b0 00
	00 00 00 00 00
	00		 mov	 DWORD PTR j$[rsp], 0
  02cbf	eb 10		 jmp	 SHORT $LN19@cckd_chkds
$LN17@cckd_chkds:
  02cc1	8b 84 24 b0 00
	00 00		 mov	 eax, DWORD PTR j$[rsp]
  02cc8	ff c0		 inc	 eax
  02cca	89 84 24 b0 00
	00 00		 mov	 DWORD PTR j$[rsp], eax
$LN19@cckd_chkds:
  02cd1	81 bc 24 b0 00
	00 00 00 01 00
	00		 cmp	 DWORD PTR j$[rsp], 256	; 00000100H
  02cdc	0f 8d 12 01 00
	00		 jge	 $LN18@cckd_chkds

; 1505 :         {
; 1506 :             if (l2tab[j].L2_trkoff != CCKD_NOSIZE && l2tab[j].L2_trkoff != CCKD_MAXSIZE)

  02ce2	48 63 84 24 b0
	00 00 00	 movsxd	 rax, DWORD PTR j$[rsp]
  02cea	83 bc c4 e0 0f
	00 00 00	 cmp	 DWORD PTR l2tab$[rsp+rax*8], 0
  02cf2	0f 84 f7 00 00
	00		 je	 $LN227@cckd_chkds
  02cf8	48 63 84 24 b0
	00 00 00	 movsxd	 rax, DWORD PTR j$[rsp]
  02d00	83 bc c4 e0 0f
	00 00 ff	 cmp	 DWORD PTR l2tab$[rsp+rax*8], -1 ; ffffffffH
  02d08	0f 84 e1 00 00
	00		 je	 $LN227@cckd_chkds

; 1507 :             {
; 1508 :                 spctab[s].spc_typ = trktyp;

  02d0e	48 63 84 24 a0
	00 00 00	 movsxd	 rax, DWORD PTR s$[rsp]
  02d16	48 6b c0 18	 imul	 rax, rax, 24
  02d1a	48 8b 8c 24 98
	00 00 00	 mov	 rcx, QWORD PTR spctab$[rsp]
  02d22	0f b6 94 24 d0
	00 00 00	 movzx	 edx, BYTE PTR trktyp$[rsp]
  02d2a	88 14 01	 mov	 BYTE PTR [rcx+rax], dl

; 1509 :                 spctab[s].spc_val = spctab[i].spc_val * 256 + j;

  02d2d	48 63 84 24 90
	00 00 00	 movsxd	 rax, DWORD PTR i$[rsp]
  02d35	48 6b c0 18	 imul	 rax, rax, 24
  02d39	48 8b 8c 24 98
	00 00 00	 mov	 rcx, QWORD PTR spctab$[rsp]
  02d41	69 44 01 04 00
	01 00 00	 imul	 eax, DWORD PTR [rcx+rax+4], 256 ; 00000100H
  02d49	03 84 24 b0 00
	00 00		 add	 eax, DWORD PTR j$[rsp]
  02d50	48 63 8c 24 a0
	00 00 00	 movsxd	 rcx, DWORD PTR s$[rsp]
  02d58	48 6b c9 18	 imul	 rcx, rcx, 24
  02d5c	48 8b 94 24 98
	00 00 00	 mov	 rdx, QWORD PTR spctab$[rsp]
  02d64	89 44 0a 04	 mov	 DWORD PTR [rdx+rcx+4], eax

; 1510 :                 spctab[s].spc_off = l2tab[j].L2_trkoff;

  02d68	48 63 84 24 b0
	00 00 00	 movsxd	 rax, DWORD PTR j$[rsp]
  02d70	48 63 8c 24 a0
	00 00 00	 movsxd	 rcx, DWORD PTR s$[rsp]
  02d78	48 6b c9 18	 imul	 rcx, rcx, 24
  02d7c	48 8b 94 24 98
	00 00 00	 mov	 rdx, QWORD PTR spctab$[rsp]
  02d84	8b 84 c4 e0 0f
	00 00		 mov	 eax, DWORD PTR l2tab$[rsp+rax*8]
  02d8b	89 44 0a 0c	 mov	 DWORD PTR [rdx+rcx+12], eax

; 1511 :                 spctab[s].spc_len = l2tab[j].L2_len;

  02d8f	48 63 84 24 b0
	00 00 00	 movsxd	 rax, DWORD PTR j$[rsp]
  02d97	48 63 8c 24 a0
	00 00 00	 movsxd	 rcx, DWORD PTR s$[rsp]
  02d9f	48 6b c9 18	 imul	 rcx, rcx, 24
  02da3	0f b7 84 c4 e4
	0f 00 00	 movzx	 eax, WORD PTR l2tab$[rsp+rax*8+4]
  02dab	48 8b 94 24 98
	00 00 00	 mov	 rdx, QWORD PTR spctab$[rsp]
  02db3	89 44 0a 10	 mov	 DWORD PTR [rdx+rcx+16], eax

; 1512 :                 spctab[s].spc_siz = l2tab[j].L2_size;

  02db7	48 63 84 24 b0
	00 00 00	 movsxd	 rax, DWORD PTR j$[rsp]
  02dbf	48 63 8c 24 a0
	00 00 00	 movsxd	 rcx, DWORD PTR s$[rsp]
  02dc7	48 6b c9 18	 imul	 rcx, rcx, 24
  02dcb	0f b7 84 c4 e6
	0f 00 00	 movzx	 eax, WORD PTR l2tab$[rsp+rax*8+6]
  02dd3	48 8b 94 24 98
	00 00 00	 mov	 rdx, QWORD PTR spctab$[rsp]
  02ddb	89 44 0a 14	 mov	 DWORD PTR [rdx+rcx+20], eax

; 1513 :                 s++;

  02ddf	8b 84 24 a0 00
	00 00		 mov	 eax, DWORD PTR s$[rsp]
  02de6	ff c0		 inc	 eax
  02de8	89 84 24 a0 00
	00 00		 mov	 DWORD PTR s$[rsp], eax
$LN227@cckd_chkds:

; 1514 :             }
; 1515 :         }

  02def	e9 cd fe ff ff	 jmp	 $LN17@cckd_chkds
$LN18@cckd_chkds:

; 1516 :     }

  02df4	e9 3a fd ff ff	 jmp	 $LN14@cckd_chkds
$LN15@cckd_chkds:

; 1517 :     qsort (spctab, s, sizeof(SPCTAB), cdsk_spctab_sort);

  02df9	48 63 84 24 a0
	00 00 00	 movsxd	 rax, DWORD PTR s$[rsp]
  02e01	4c 8d 0d 00 00
	00 00		 lea	 r9, OFFSET FLAT:cdsk_spctab_sort
  02e08	41 b8 18 00 00
	00		 mov	 r8d, 24
  02e0e	48 8b d0	 mov	 rdx, rax
  02e11	48 8b 8c 24 98
	00 00 00	 mov	 rcx, QWORD PTR spctab$[rsp]
  02e19	ff 15 00 00 00
	00		 call	 QWORD PTR __imp_qsort

; 1518 : 
; 1519 :     /*---------------------------------------------------------------
; 1520 :      * Consistency checks.
; 1521 :      *
; 1522 :      * The space table is now populated with everything but free
; 1523 :      * space.  Therefore we can infer what the free space should
; 1524 :      * be (ie gaps between allocated spaces).
; 1525 :      *---------------------------------------------------------------*/
; 1526 : 
; 1527 :     lopos = CCKD_L1TAB_POS + l1size;

  02e1f	48 63 84 24 08
	01 00 00	 movsxd	 rax, DWORD PTR l1size$[rsp]
  02e27	48 05 00 04 00
	00		 add	 rax, 1024		; 00000400H
  02e2d	89 84 24 dc 00
	00 00		 mov	 DWORD PTR lopos$[rsp], eax

; 1528 :     hipos = (U32)fst.st_size;

  02e34	8b 84 24 b8 0d
	00 00		 mov	 eax, DWORD PTR fst$[rsp+24]
  02e3b	89 84 24 28 01
	00 00		 mov	 DWORD PTR hipos$[rsp], eax

; 1529 : 
; 1530 :     /* Make adjustment if new format free space is at the end */
; 1531 :     len = spctab[s-1].spc_off - (spctab[s-2].spc_off + spctab[s-2].spc_siz);

  02e42	8b 84 24 a0 00
	00 00		 mov	 eax, DWORD PTR s$[rsp]
  02e49	ff c8		 dec	 eax
  02e4b	48 98		 cdqe
  02e4d	48 6b c0 18	 imul	 rax, rax, 24
  02e51	8b 8c 24 a0 00
	00 00		 mov	 ecx, DWORD PTR s$[rsp]
  02e58	83 e9 02	 sub	 ecx, 2
  02e5b	48 63 c9	 movsxd	 rcx, ecx
  02e5e	48 6b c9 18	 imul	 rcx, rcx, 24
  02e62	8b 94 24 a0 00
	00 00		 mov	 edx, DWORD PTR s$[rsp]
  02e69	83 ea 02	 sub	 edx, 2
  02e6c	48 63 d2	 movsxd	 rdx, edx
  02e6f	48 6b d2 18	 imul	 rdx, rdx, 24
  02e73	48 8b bc 24 98
	00 00 00	 mov	 rdi, QWORD PTR spctab$[rsp]
  02e7b	8b 4c 0f 0c	 mov	 ecx, DWORD PTR [rdi+rcx+12]
  02e7f	48 8b bc 24 98
	00 00 00	 mov	 rdi, QWORD PTR spctab$[rsp]
  02e87	03 4c 17 14	 add	 ecx, DWORD PTR [rdi+rdx+20]
  02e8b	48 8b 94 24 98
	00 00 00	 mov	 rdx, QWORD PTR spctab$[rsp]
  02e93	8b 44 02 0c	 mov	 eax, DWORD PTR [rdx+rax+12]
  02e97	2b c1		 sub	 eax, ecx
  02e99	89 84 24 a4 00
	00 00		 mov	 DWORD PTR len$[rsp], eax

; 1532 :     if (len > 0
; 1533 :      && cdevhdr.cdh_size == cdevhdr.free_off
; 1534 :      && cdevhdr.cdh_size + len == spctab[s-1].spc_off)

  02ea0	83 bc 24 a4 00
	00 00 00	 cmp	 DWORD PTR len$[rsp], 0
  02ea8	0f 8e 9d 00 00
	00		 jle	 $LN228@cckd_chkds
  02eae	8b 84 24 b4 0b
	00 00		 mov	 eax, DWORD PTR cdevhdr$[rsp+20]
  02eb5	39 84 24 ac 0b
	00 00		 cmp	 DWORD PTR cdevhdr$[rsp+12], eax
  02ebc	0f 85 89 00 00
	00		 jne	 $LN228@cckd_chkds
  02ec2	8b 84 24 a4 00
	00 00		 mov	 eax, DWORD PTR len$[rsp]
  02ec9	8b 8c 24 ac 0b
	00 00		 mov	 ecx, DWORD PTR cdevhdr$[rsp+12]
  02ed0	03 c8		 add	 ecx, eax
  02ed2	8b c1		 mov	 eax, ecx
  02ed4	8b 8c 24 a0 00
	00 00		 mov	 ecx, DWORD PTR s$[rsp]
  02edb	ff c9		 dec	 ecx
  02edd	48 63 c9	 movsxd	 rcx, ecx
  02ee0	48 6b c9 18	 imul	 rcx, rcx, 24
  02ee4	48 8b 94 24 98
	00 00 00	 mov	 rdx, QWORD PTR spctab$[rsp]
  02eec	3b 44 0a 0c	 cmp	 eax, DWORD PTR [rdx+rcx+12]
  02ef0	75 59		 jne	 SHORT $LN228@cckd_chkds

; 1535 :     {
; 1536 :         spctab[s-1].spc_off -= len;

  02ef2	8b 84 24 a0 00
	00 00		 mov	 eax, DWORD PTR s$[rsp]
  02ef9	ff c8		 dec	 eax
  02efb	48 98		 cdqe
  02efd	48 6b c0 18	 imul	 rax, rax, 24
  02f01	48 8b 8c 24 98
	00 00 00	 mov	 rcx, QWORD PTR spctab$[rsp]
  02f09	8b 94 24 a4 00
	00 00		 mov	 edx, DWORD PTR len$[rsp]
  02f10	8b 44 01 0c	 mov	 eax, DWORD PTR [rcx+rax+12]
  02f14	2b c2		 sub	 eax, edx
  02f16	8b 8c 24 a0 00
	00 00		 mov	 ecx, DWORD PTR s$[rsp]
  02f1d	ff c9		 dec	 ecx
  02f1f	48 63 c9	 movsxd	 rcx, ecx
  02f22	48 6b c9 18	 imul	 rcx, rcx, 24
  02f26	48 8b 94 24 98
	00 00 00	 mov	 rdx, QWORD PTR spctab$[rsp]
  02f2e	89 44 0a 0c	 mov	 DWORD PTR [rdx+rcx+12], eax

; 1537 :         hipos -= len;

  02f32	8b 84 24 a4 00
	00 00		 mov	 eax, DWORD PTR len$[rsp]
  02f39	8b 8c 24 28 01
	00 00		 mov	 ecx, DWORD PTR hipos$[rsp]
  02f40	2b c8		 sub	 ecx, eax
  02f42	8b c1		 mov	 eax, ecx
  02f44	89 84 24 28 01
	00 00		 mov	 DWORD PTR hipos$[rsp], eax
$LN228@cckd_chkds:

; 1538 :     }
; 1539 : 
; 1540 :     memset( &cdevhdr2, 0, CCKD_DEVHDR_SIZE );

  02f4b	48 8d 84 24 e0
	0d 00 00	 lea	 rax, QWORD PTR cdevhdr2$[rsp]
  02f53	48 8b f8	 mov	 rdi, rax
  02f56	33 c0		 xor	 eax, eax
  02f58	b9 00 02 00 00	 mov	 ecx, 512		; 00000200H
  02f5d	f3 aa		 rep stosb

; 1541 :     for (i = 0; spctab[i].spc_typ != SPCTAB_EOF; i++)

  02f5f	c7 84 24 90 00
	00 00 00 00 00
	00		 mov	 DWORD PTR i$[rsp], 0
  02f6a	eb 10		 jmp	 SHORT $LN22@cckd_chkds
$LN20@cckd_chkds:
  02f6c	8b 84 24 90 00
	00 00		 mov	 eax, DWORD PTR i$[rsp]
  02f73	ff c0		 inc	 eax
  02f75	89 84 24 90 00
	00 00		 mov	 DWORD PTR i$[rsp], eax
$LN22@cckd_chkds:
  02f7c	48 63 84 24 90
	00 00 00	 movsxd	 rax, DWORD PTR i$[rsp]
  02f84	48 6b c0 18	 imul	 rax, rax, 24
  02f88	48 8b 8c 24 98
	00 00 00	 mov	 rcx, QWORD PTR spctab$[rsp]
  02f90	0f b6 04 01	 movzx	 eax, BYTE PTR [rcx+rax]
  02f94	83 f8 08	 cmp	 eax, 8
  02f97	0f 84 33 0f 00
	00		 je	 $LN21@cckd_chkds

; 1542 :     {
; 1543 :         /* Calculate gap size */
; 1544 :         len = spctab[i+1].spc_off - (spctab[i].spc_off + spctab[i].spc_siz);

  02f9d	8b 84 24 90 00
	00 00		 mov	 eax, DWORD PTR i$[rsp]
  02fa4	ff c0		 inc	 eax
  02fa6	48 98		 cdqe
  02fa8	48 6b c0 18	 imul	 rax, rax, 24
  02fac	48 63 8c 24 90
	00 00 00	 movsxd	 rcx, DWORD PTR i$[rsp]
  02fb4	48 6b c9 18	 imul	 rcx, rcx, 24
  02fb8	48 63 94 24 90
	00 00 00	 movsxd	 rdx, DWORD PTR i$[rsp]
  02fc0	48 6b d2 18	 imul	 rdx, rdx, 24
  02fc4	48 8b bc 24 98
	00 00 00	 mov	 rdi, QWORD PTR spctab$[rsp]
  02fcc	8b 4c 0f 0c	 mov	 ecx, DWORD PTR [rdi+rcx+12]
  02fd0	48 8b bc 24 98
	00 00 00	 mov	 rdi, QWORD PTR spctab$[rsp]
  02fd8	03 4c 17 14	 add	 ecx, DWORD PTR [rdi+rdx+20]
  02fdc	48 8b 94 24 98
	00 00 00	 mov	 rdx, QWORD PTR spctab$[rsp]
  02fe4	8b 44 02 0c	 mov	 eax, DWORD PTR [rdx+rax+12]
  02fe8	2b c1		 sub	 eax, ecx
  02fea	89 84 24 a4 00
	00 00		 mov	 DWORD PTR len$[rsp], eax

; 1545 : 
; 1546 :         /* Update space statistics */
; 1547 :         cdevhdr2.cdh_size += spctab[i].spc_siz + len;

  02ff1	48 63 84 24 90
	00 00 00	 movsxd	 rax, DWORD PTR i$[rsp]
  02ff9	48 6b c0 18	 imul	 rax, rax, 24
  02ffd	48 8b 8c 24 98
	00 00 00	 mov	 rcx, QWORD PTR spctab$[rsp]
  03005	8b 44 01 14	 mov	 eax, DWORD PTR [rcx+rax+20]
  03009	03 84 24 a4 00
	00 00		 add	 eax, DWORD PTR len$[rsp]
  03010	8b 8c 24 ec 0d
	00 00		 mov	 ecx, DWORD PTR cdevhdr2$[rsp+12]
  03017	03 c8		 add	 ecx, eax
  03019	8b c1		 mov	 eax, ecx
  0301b	89 84 24 ec 0d
	00 00		 mov	 DWORD PTR cdevhdr2$[rsp+12], eax

; 1548 :         cdevhdr2.cdh_used += spctab[i].spc_len;

  03022	48 63 84 24 90
	00 00 00	 movsxd	 rax, DWORD PTR i$[rsp]
  0302a	48 6b c0 18	 imul	 rax, rax, 24
  0302e	48 8b 8c 24 98
	00 00 00	 mov	 rcx, QWORD PTR spctab$[rsp]
  03036	8b 44 01 10	 mov	 eax, DWORD PTR [rcx+rax+16]
  0303a	8b 8c 24 f0 0d
	00 00		 mov	 ecx, DWORD PTR cdevhdr2$[rsp+16]
  03041	03 c8		 add	 ecx, eax
  03043	8b c1		 mov	 eax, ecx
  03045	89 84 24 f0 0d
	00 00		 mov	 DWORD PTR cdevhdr2$[rsp+16], eax

; 1549 :         if (len > 0)

  0304c	83 bc 24 a4 00
	00 00 00	 cmp	 DWORD PTR len$[rsp], 0
  03054	7e 47		 jle	 SHORT $LN229@cckd_chkds

; 1550 :         {
; 1551 :             cdevhdr2.free_num++;

  03056	8b 84 24 00 0e
	00 00		 mov	 eax, DWORD PTR cdevhdr2$[rsp+32]
  0305d	ff c0		 inc	 eax
  0305f	89 84 24 00 0e
	00 00		 mov	 DWORD PTR cdevhdr2$[rsp+32], eax

; 1552 :             cdevhdr2.free_total += len;

  03066	8b 84 24 a4 00
	00 00		 mov	 eax, DWORD PTR len$[rsp]
  0306d	8b 8c 24 f8 0d
	00 00		 mov	 ecx, DWORD PTR cdevhdr2$[rsp+24]
  03074	03 c8		 add	 ecx, eax
  03076	8b c1		 mov	 eax, ecx
  03078	89 84 24 f8 0d
	00 00		 mov	 DWORD PTR cdevhdr2$[rsp+24], eax

; 1553 :             if (cdevhdr2.free_largest < (U32)len)

  0307f	8b 84 24 a4 00
	00 00		 mov	 eax, DWORD PTR len$[rsp]
  03086	39 84 24 fc 0d
	00 00		 cmp	 DWORD PTR cdevhdr2$[rsp+28], eax
  0308d	73 0e		 jae	 SHORT $LN230@cckd_chkds

; 1554 :                 cdevhdr2.free_largest = (U32)len;

  0308f	8b 84 24 a4 00
	00 00		 mov	 eax, DWORD PTR len$[rsp]
  03096	89 84 24 fc 0d
	00 00		 mov	 DWORD PTR cdevhdr2$[rsp+28], eax
$LN230@cckd_chkds:
$LN229@cckd_chkds:

; 1555 :         }
; 1556 :         if (spctab[i].spc_typ == trktyp)

  0309d	48 63 84 24 90
	00 00 00	 movsxd	 rax, DWORD PTR i$[rsp]
  030a5	48 6b c0 18	 imul	 rax, rax, 24
  030a9	48 8b 8c 24 98
	00 00 00	 mov	 rcx, QWORD PTR spctab$[rsp]
  030b1	0f b6 04 01	 movzx	 eax, BYTE PTR [rcx+rax]
  030b5	3b 84 24 d0 00
	00 00		 cmp	 eax, DWORD PTR trktyp$[rsp]
  030bc	0f 85 88 00 00
	00		 jne	 $LN231@cckd_chkds

; 1557 :         {
; 1558 :             cdevhdr2.free_total += spctab[i].spc_siz - spctab[i].spc_len;

  030c2	48 63 84 24 90
	00 00 00	 movsxd	 rax, DWORD PTR i$[rsp]
  030ca	48 6b c0 18	 imul	 rax, rax, 24
  030ce	48 63 8c 24 90
	00 00 00	 movsxd	 rcx, DWORD PTR i$[rsp]
  030d6	48 6b c9 18	 imul	 rcx, rcx, 24
  030da	48 8b 94 24 98
	00 00 00	 mov	 rdx, QWORD PTR spctab$[rsp]
  030e2	48 8b bc 24 98
	00 00 00	 mov	 rdi, QWORD PTR spctab$[rsp]
  030ea	8b 4c 0f 10	 mov	 ecx, DWORD PTR [rdi+rcx+16]
  030ee	8b 44 02 14	 mov	 eax, DWORD PTR [rdx+rax+20]
  030f2	2b c1		 sub	 eax, ecx
  030f4	8b 8c 24 f8 0d
	00 00		 mov	 ecx, DWORD PTR cdevhdr2$[rsp+24]
  030fb	03 c8		 add	 ecx, eax
  030fd	8b c1		 mov	 eax, ecx
  030ff	89 84 24 f8 0d
	00 00		 mov	 DWORD PTR cdevhdr2$[rsp+24], eax

; 1559 :             cdevhdr2.free_imbed += spctab[i].spc_siz - spctab[i].spc_len;

  03106	48 63 84 24 90
	00 00 00	 movsxd	 rax, DWORD PTR i$[rsp]
  0310e	48 6b c0 18	 imul	 rax, rax, 24
  03112	48 63 8c 24 90
	00 00 00	 movsxd	 rcx, DWORD PTR i$[rsp]
  0311a	48 6b c9 18	 imul	 rcx, rcx, 24
  0311e	48 8b 94 24 98
	00 00 00	 mov	 rdx, QWORD PTR spctab$[rsp]
  03126	48 8b bc 24 98
	00 00 00	 mov	 rdi, QWORD PTR spctab$[rsp]
  0312e	8b 4c 0f 10	 mov	 ecx, DWORD PTR [rdi+rcx+16]
  03132	8b 44 02 14	 mov	 eax, DWORD PTR [rdx+rax+20]
  03136	2b c1		 sub	 eax, ecx
  03138	8b 8c 24 04 0e
	00 00		 mov	 ecx, DWORD PTR cdevhdr2$[rsp+36]
  0313f	03 c8		 add	 ecx, eax
  03141	8b c1		 mov	 eax, ecx
  03143	89 84 24 04 0e
	00 00		 mov	 DWORD PTR cdevhdr2$[rsp+36], eax
$LN231@cckd_chkds:

; 1560 :         }
; 1561 : 
; 1562 :         /* ignore devhdr, cdevhdr and l1 (these are `out of bounds') */
; 1563 :         if (spctab[i].spc_typ == SPCTAB_DEVHDR
; 1564 :          || spctab[i].spc_typ == SPCTAB_CDEVHDR
; 1565 :          || spctab[i].spc_typ == SPCTAB_L1

  0314a	48 63 84 24 90
	00 00 00	 movsxd	 rax, DWORD PTR i$[rsp]
  03152	48 6b c0 18	 imul	 rax, rax, 24
  03156	48 8b 8c 24 98
	00 00 00	 mov	 rcx, QWORD PTR spctab$[rsp]
  0315e	0f b6 04 01	 movzx	 eax, BYTE PTR [rcx+rax]
  03162	83 f8 01	 cmp	 eax, 1
  03165	74 3a		 je	 SHORT $LN233@cckd_chkds
  03167	48 63 84 24 90
	00 00 00	 movsxd	 rax, DWORD PTR i$[rsp]
  0316f	48 6b c0 18	 imul	 rax, rax, 24
  03173	48 8b 8c 24 98
	00 00 00	 mov	 rcx, QWORD PTR spctab$[rsp]
  0317b	0f b6 04 01	 movzx	 eax, BYTE PTR [rcx+rax]
  0317f	83 f8 02	 cmp	 eax, 2
  03182	74 1d		 je	 SHORT $LN233@cckd_chkds
  03184	48 63 84 24 90
	00 00 00	 movsxd	 rax, DWORD PTR i$[rsp]
  0318c	48 6b c0 18	 imul	 rax, rax, 24
  03190	48 8b 8c 24 98
	00 00 00	 mov	 rcx, QWORD PTR spctab$[rsp]
  03198	0f b6 04 01	 movzx	 eax, BYTE PTR [rcx+rax]
  0319c	83 f8 03	 cmp	 eax, 3
  0319f	75 05		 jne	 SHORT $LN232@cckd_chkds
$LN233@cckd_chkds:

; 1566 :            )
; 1567 :             continue;

  031a1	e9 c6 fd ff ff	 jmp	 $LN20@cckd_chkds
$LN232@cckd_chkds:

; 1568 : 
; 1569 :         /* check if the space is out of bounds */
; 1570 :         valid = (off_t)spctab[i].spc_off >= lopos

  031a6	48 63 84 24 90
	00 00 00	 movsxd	 rax, DWORD PTR i$[rsp]
  031ae	48 6b c0 18	 imul	 rax, rax, 24
  031b2	48 8b 8c 24 98
	00 00 00	 mov	 rcx, QWORD PTR spctab$[rsp]
  031ba	8b 44 01 0c	 mov	 eax, DWORD PTR [rcx+rax+12]
  031be	8b 8c 24 dc 00
	00 00		 mov	 ecx, DWORD PTR lopos$[rsp]
  031c5	48 3b c1	 cmp	 rax, rcx
  031c8	7c 4c		 jl	 SHORT $LN619@cckd_chkds
  031ca	48 63 84 24 90
	00 00 00	 movsxd	 rax, DWORD PTR i$[rsp]
  031d2	48 6b c0 18	 imul	 rax, rax, 24
  031d6	48 8b 8c 24 98
	00 00 00	 mov	 rcx, QWORD PTR spctab$[rsp]
  031de	8b 44 01 0c	 mov	 eax, DWORD PTR [rcx+rax+12]
  031e2	48 63 8c 24 90
	00 00 00	 movsxd	 rcx, DWORD PTR i$[rsp]
  031ea	48 6b c9 18	 imul	 rcx, rcx, 24
  031ee	48 8b 94 24 98
	00 00 00	 mov	 rdx, QWORD PTR spctab$[rsp]
  031f6	8b 4c 0a 14	 mov	 ecx, DWORD PTR [rdx+rcx+20]
  031fa	48 03 c1	 add	 rax, rcx
  031fd	8b 8c 24 28 01
	00 00		 mov	 ecx, DWORD PTR hipos$[rsp]
  03204	48 3b c1	 cmp	 rax, rcx
  03207	7f 0d		 jg	 SHORT $LN619@cckd_chkds
  03209	c7 84 24 44 02
	00 00 01 00 00
	00		 mov	 DWORD PTR tv1597[rsp], 1
  03214	eb 0b		 jmp	 SHORT $LN620@cckd_chkds
$LN619@cckd_chkds:
  03216	c7 84 24 44 02
	00 00 00 00 00
	00		 mov	 DWORD PTR tv1597[rsp], 0
$LN620@cckd_chkds:
  03221	8b 84 24 44 02
	00 00		 mov	 eax, DWORD PTR tv1597[rsp]
  03228	89 84 24 70 01
	00 00		 mov	 DWORD PTR valid$[rsp], eax

; 1571 :              && (off_t)spctab[i].spc_off + spctab[i].spc_siz <= hipos;
; 1572 : 
; 1573 :         /* Overlap check */
; 1574 :         if (len < 0 || !valid)

  0322f	83 bc 24 a4 00
	00 00 00	 cmp	 DWORD PTR len$[rsp], 0
  03237	7c 0e		 jl	 SHORT $LN236@cckd_chkds
  03239	83 bc 24 70 01
	00 00 00	 cmp	 DWORD PTR valid$[rsp], 0
  03241	0f 85 97 08 00
	00		 jne	 $LN234@cckd_chkds
$LN236@cckd_chkds:

; 1575 :         {
; 1576 :             char space1[32], space2[32];
; 1577 :             recovery = 1;

  03247	c7 84 24 0c 01
	00 00 01 00 00
	00		 mov	 DWORD PTR recovery$[rsp], 1

; 1578 : 
; 1579 :             /* issue error message */
; 1580 :             j = MSGBUF(space1, "%s", spc_typ_to_str( spctab[i].spc_typ ));

  03252	48 63 84 24 90
	00 00 00	 movsxd	 rax, DWORD PTR i$[rsp]
  0325a	48 6b c0 18	 imul	 rax, rax, 24
  0325e	48 8b 8c 24 98
	00 00 00	 mov	 rcx, QWORD PTR spctab$[rsp]
  03266	0f b6 0c 01	 movzx	 ecx, BYTE PTR [rcx+rax]
  0326a	e8 00 00 00 00	 call	 spc_typ_to_str
  0326f	4c 8b c8	 mov	 r9, rax
  03272	4c 8d 05 00 00
	00 00		 lea	 r8, OFFSET FLAT:$SG170172
  03279	ba 20 00 00 00	 mov	 edx, 32			; 00000020H
  0327e	48 8d 8c 24 e0
	1f 00 00	 lea	 rcx, QWORD PTR space1$8[rsp]
  03286	ff 15 00 00 00
	00		 call	 QWORD PTR __imp_w32_snprintf
  0328c	89 84 24 b0 00
	00 00		 mov	 DWORD PTR j$[rsp], eax

; 1581 :             if (spctab[i].spc_val >= 0)

  03293	48 63 84 24 90
	00 00 00	 movsxd	 rax, DWORD PTR i$[rsp]
  0329b	48 6b c0 18	 imul	 rax, rax, 24
  0329f	48 8b 8c 24 98
	00 00 00	 mov	 rcx, QWORD PTR spctab$[rsp]
  032a7	83 7c 01 04 00	 cmp	 DWORD PTR [rcx+rax+4], 0
  032ac	7c 35		 jl	 SHORT $LN237@cckd_chkds

; 1582 :                 sprintf(space1+j, "[%d]", spctab[i].spc_val);

  032ae	48 63 84 24 90
	00 00 00	 movsxd	 rax, DWORD PTR i$[rsp]
  032b6	48 6b c0 18	 imul	 rax, rax, 24
  032ba	48 63 8c 24 b0
	00 00 00	 movsxd	 rcx, DWORD PTR j$[rsp]
  032c2	48 8d 8c 0c e0
	1f 00 00	 lea	 rcx, QWORD PTR space1$8[rsp+rcx]
  032ca	48 8b 94 24 98
	00 00 00	 mov	 rdx, QWORD PTR spctab$[rsp]
  032d2	44 8b 44 02 04	 mov	 r8d, DWORD PTR [rdx+rax+4]
  032d7	48 8d 15 00 00
	00 00		 lea	 rdx, OFFSET FLAT:$SG170174
  032de	e8 00 00 00 00	 call	 sprintf
$LN237@cckd_chkds:

; 1583 :             j = MSGBUF(space2, "%s", spc_typ_to_str( spctab[i+1].spc_typ ));

  032e3	8b 84 24 90 00
	00 00		 mov	 eax, DWORD PTR i$[rsp]
  032ea	ff c0		 inc	 eax
  032ec	48 98		 cdqe
  032ee	48 6b c0 18	 imul	 rax, rax, 24
  032f2	48 8b 8c 24 98
	00 00 00	 mov	 rcx, QWORD PTR spctab$[rsp]
  032fa	0f b6 0c 01	 movzx	 ecx, BYTE PTR [rcx+rax]
  032fe	e8 00 00 00 00	 call	 spc_typ_to_str
  03303	4c 8b c8	 mov	 r9, rax
  03306	4c 8d 05 00 00
	00 00		 lea	 r8, OFFSET FLAT:$SG170175
  0330d	ba 20 00 00 00	 mov	 edx, 32			; 00000020H
  03312	48 8d 8c 24 00
	20 00 00	 lea	 rcx, QWORD PTR space2$9[rsp]
  0331a	ff 15 00 00 00
	00		 call	 QWORD PTR __imp_w32_snprintf
  03320	89 84 24 b0 00
	00 00		 mov	 DWORD PTR j$[rsp], eax

; 1584 :             if (spctab[i+1].spc_val >= 0)

  03327	8b 84 24 90 00
	00 00		 mov	 eax, DWORD PTR i$[rsp]
  0332e	ff c0		 inc	 eax
  03330	48 98		 cdqe
  03332	48 6b c0 18	 imul	 rax, rax, 24
  03336	48 8b 8c 24 98
	00 00 00	 mov	 rcx, QWORD PTR spctab$[rsp]
  0333e	83 7c 01 04 00	 cmp	 DWORD PTR [rcx+rax+4], 0
  03343	7c 38		 jl	 SHORT $LN238@cckd_chkds

; 1585 :                 sprintf(space2+j, "[%d]", spctab[i+1].spc_val);

  03345	8b 84 24 90 00
	00 00		 mov	 eax, DWORD PTR i$[rsp]
  0334c	ff c0		 inc	 eax
  0334e	48 98		 cdqe
  03350	48 6b c0 18	 imul	 rax, rax, 24
  03354	48 63 8c 24 b0
	00 00 00	 movsxd	 rcx, DWORD PTR j$[rsp]
  0335c	48 8d 8c 0c 00
	20 00 00	 lea	 rcx, QWORD PTR space2$9[rsp+rcx]
  03364	48 8b 94 24 98
	00 00 00	 mov	 rdx, QWORD PTR spctab$[rsp]
  0336c	44 8b 44 02 04	 mov	 r8d, DWORD PTR [rdx+rax+4]
  03371	48 8d 15 00 00
	00 00		 lea	 rdx, OFFSET FLAT:$SG170177
  03378	e8 00 00 00 00	 call	 sprintf
$LN238@cckd_chkds:

; 1586 : 
; 1587 :             if (!valid)

  0337d	83 bc 24 70 01
	00 00 00	 cmp	 DWORD PTR valid$[rsp], 0
  03385	0f 85 a6 02 00
	00		 jne	 $LN239@cckd_chkds

; 1588 :             {
; 1589 :                 if(dev->batch)

  0338b	48 8b 84 24 d0
	21 04 00	 mov	 rax, QWORD PTR dev$[rsp]
  03393	8b 80 f8 05 00
	00		 mov	 eax, DWORD PTR [rax+1528]
  03399	c1 e8 0a	 shr	 eax, 10
  0339c	83 e0 01	 and	 eax, 1
  0339f	85 c0		 test	 eax, eax
  033a1	0f 84 45 01 00
	00		 je	 $LN241@cckd_chkds

; 1590 :                     // "%1d:%04X CCKD file %s: %s offset 0x%16.16"PRIX64" len %"PRId64" is out of bounds"
; 1591 :                     FWRMSG( stdout, HHC00365, "W", LCSS_DEVNUM, dev->filename,

  033a7	48 83 bc 24 d0
	21 04 00 00	 cmp	 QWORD PTR dev$[rsp], 0
  033b0	74 15		 je	 SHORT $LN621@cckd_chkds
  033b2	48 8b 84 24 d0
	21 04 00	 mov	 rax, QWORD PTR dev$[rsp]
  033ba	0f b7 40 48	 movzx	 eax, WORD PTR [rax+72]
  033be	89 84 24 48 02
	00 00		 mov	 DWORD PTR tv1676[rsp], eax
  033c5	eb 0b		 jmp	 SHORT $LN622@cckd_chkds
$LN621@cckd_chkds:
  033c7	c7 84 24 48 02
	00 00 00 00 00
	00		 mov	 DWORD PTR tv1676[rsp], 0
$LN622@cckd_chkds:
  033d2	48 83 bc 24 d0
	21 04 00 00	 cmp	 QWORD PTR dev$[rsp], 0
  033db	74 17		 je	 SHORT $LN623@cckd_chkds
  033dd	48 8b 84 24 d0
	21 04 00	 mov	 rax, QWORD PTR dev$[rsp]
  033e5	0f b7 40 44	 movzx	 eax, WORD PTR [rax+68]
  033e9	d1 f8		 sar	 eax, 1
  033eb	89 84 24 4c 02
	00 00		 mov	 DWORD PTR tv1682[rsp], eax
  033f2	eb 0b		 jmp	 SHORT $LN624@cckd_chkds
$LN623@cckd_chkds:
  033f4	c7 84 24 4c 02
	00 00 00 00 00
	00		 mov	 DWORD PTR tv1682[rsp], 0
$LN624@cckd_chkds:
  033ff	48 63 84 24 90
	00 00 00	 movsxd	 rax, DWORD PTR i$[rsp]
  03407	48 6b c0 18	 imul	 rax, rax, 24
  0340b	48 8b 8c 24 98
	00 00 00	 mov	 rcx, QWORD PTR spctab$[rsp]
  03413	8b 44 01 14	 mov	 eax, DWORD PTR [rcx+rax+20]
  03417	48 89 84 24 f8
	05 00 00	 mov	 QWORD PTR tv1662[rsp], rax
  0341f	48 63 8c 24 90
	00 00 00	 movsxd	 rcx, DWORD PTR i$[rsp]
  03427	48 6b c9 18	 imul	 rcx, rcx, 24
  0342b	48 8b 94 24 98
	00 00 00	 mov	 rdx, QWORD PTR spctab$[rsp]
  03433	8b 4c 0a 0c	 mov	 ecx, DWORD PTR [rdx+rcx+12]
  03437	48 89 8c 24 00
	06 00 00	 mov	 QWORD PTR tv1668[rsp], rcx
  0343f	48 8b 94 24 d0
	21 04 00	 mov	 rdx, QWORD PTR dev$[rsp]
  03447	48 81 c2 a4 00
	00 00		 add	 rdx, 164		; 000000a4H
  0344e	48 89 94 24 08
	06 00 00	 mov	 QWORD PTR tv1671[rsp], rdx
  03456	b9 01 00 00 00	 mov	 ecx, 1
  0345b	ff 15 00 00 00
	00		 call	 QWORD PTR __imp___acrt_iob_func
  03461	48 8b 8c 24 f8
	05 00 00	 mov	 rcx, QWORD PTR tv1662[rsp]
  03469	48 89 4c 24 60	 mov	 QWORD PTR [rsp+96], rcx
  0346e	48 8b 8c 24 00
	06 00 00	 mov	 rcx, QWORD PTR tv1668[rsp]
  03476	48 89 4c 24 58	 mov	 QWORD PTR [rsp+88], rcx
  0347b	48 8d 8c 24 e0
	1f 00 00	 lea	 rcx, QWORD PTR space1$8[rsp]
  03483	48 89 4c 24 50	 mov	 QWORD PTR [rsp+80], rcx
  03488	48 8b 8c 24 08
	06 00 00	 mov	 rcx, QWORD PTR tv1671[rsp]
  03490	48 89 4c 24 48	 mov	 QWORD PTR [rsp+72], rcx
  03495	8b 8c 24 48 02
	00 00		 mov	 ecx, DWORD PTR tv1676[rsp]
  0349c	89 4c 24 40	 mov	 DWORD PTR [rsp+64], ecx
  034a0	8b 8c 24 4c 02
	00 00		 mov	 ecx, DWORD PTR tv1682[rsp]
  034a7	89 4c 24 38	 mov	 DWORD PTR [rsp+56], ecx
  034ab	48 8d 0d 00 00
	00 00		 lea	 rcx, OFFSET FLAT:$SG170182
  034b2	48 89 4c 24 30	 mov	 QWORD PTR [rsp+48], rcx
  034b7	48 8d 0d 00 00
	00 00		 lea	 rcx, OFFSET FLAT:$SG170183
  034be	48 89 4c 24 28	 mov	 QWORD PTR [rsp+40], rcx
  034c3	48 89 44 24 20	 mov	 QWORD PTR [rsp+32], rax
  034c8	41 b9 03 00 00
	00		 mov	 r9d, 3
  034ce	4c 8d 05 00 00
	00 00		 lea	 r8, OFFSET FLAT:$SG170184
  034d5	ba 38 06 00 00	 mov	 edx, 1592		; 00000638H
  034da	48 8d 0d 00 00
	00 00		 lea	 rcx, OFFSET FLAT:$SG170185
  034e1	ff 15 00 00 00
	00		 call	 QWORD PTR __imp_fwritemsg
  034e7	e9 40 01 00 00	 jmp	 $LN242@cckd_chkds
$LN241@cckd_chkds:

; 1592 :                             space1, (U64)spctab[i].spc_off, (U64)spctab[i].spc_siz);
; 1593 :                 else
; 1594 :                     // "%1d:%04X CCKD file %s: %s offset 0x%16.16"PRIX64" len %"PRId64" is out of bounds"
; 1595 :                     WRMSG( HHC00365, "W", LCSS_DEVNUM, dev->filename,

  034ec	48 83 bc 24 d0
	21 04 00 00	 cmp	 QWORD PTR dev$[rsp], 0
  034f5	74 15		 je	 SHORT $LN625@cckd_chkds
  034f7	48 8b 84 24 d0
	21 04 00	 mov	 rax, QWORD PTR dev$[rsp]
  034ff	0f b7 40 48	 movzx	 eax, WORD PTR [rax+72]
  03503	89 84 24 50 02
	00 00		 mov	 DWORD PTR tv1711[rsp], eax
  0350a	eb 0b		 jmp	 SHORT $LN626@cckd_chkds
$LN625@cckd_chkds:
  0350c	c7 84 24 50 02
	00 00 00 00 00
	00		 mov	 DWORD PTR tv1711[rsp], 0
$LN626@cckd_chkds:
  03517	48 83 bc 24 d0
	21 04 00 00	 cmp	 QWORD PTR dev$[rsp], 0
  03520	74 17		 je	 SHORT $LN627@cckd_chkds
  03522	48 8b 84 24 d0
	21 04 00	 mov	 rax, QWORD PTR dev$[rsp]
  0352a	0f b7 40 44	 movzx	 eax, WORD PTR [rax+68]
  0352e	d1 f8		 sar	 eax, 1
  03530	89 84 24 54 02
	00 00		 mov	 DWORD PTR tv1717[rsp], eax
  03537	eb 0b		 jmp	 SHORT $LN628@cckd_chkds
$LN627@cckd_chkds:
  03539	c7 84 24 54 02
	00 00 00 00 00
	00		 mov	 DWORD PTR tv1717[rsp], 0
$LN628@cckd_chkds:
  03544	48 63 84 24 90
	00 00 00	 movsxd	 rax, DWORD PTR i$[rsp]
  0354c	48 6b c0 18	 imul	 rax, rax, 24
  03550	48 8b 8c 24 98
	00 00 00	 mov	 rcx, QWORD PTR spctab$[rsp]
  03558	8b 44 01 14	 mov	 eax, DWORD PTR [rcx+rax+20]
  0355c	48 89 84 24 10
	06 00 00	 mov	 QWORD PTR tv1697[rsp], rax
  03564	48 63 8c 24 90
	00 00 00	 movsxd	 rcx, DWORD PTR i$[rsp]
  0356c	48 6b c9 18	 imul	 rcx, rcx, 24
  03570	48 8b 94 24 98
	00 00 00	 mov	 rdx, QWORD PTR spctab$[rsp]
  03578	8b 4c 0a 0c	 mov	 ecx, DWORD PTR [rdx+rcx+12]
  0357c	48 89 8c 24 18
	06 00 00	 mov	 QWORD PTR tv1703[rsp], rcx
  03584	48 8b 94 24 d0
	21 04 00	 mov	 rdx, QWORD PTR dev$[rsp]
  0358c	48 81 c2 a4 00
	00 00		 add	 rdx, 164		; 000000a4H
  03593	48 89 94 24 20
	06 00 00	 mov	 QWORD PTR tv1706[rsp], rdx
  0359b	b9 01 00 00 00	 mov	 ecx, 1
  035a0	ff 15 00 00 00
	00		 call	 QWORD PTR __imp___acrt_iob_func
  035a6	48 8b 8c 24 10
	06 00 00	 mov	 rcx, QWORD PTR tv1697[rsp]
  035ae	48 89 4c 24 60	 mov	 QWORD PTR [rsp+96], rcx
  035b3	48 8b 8c 24 18
	06 00 00	 mov	 rcx, QWORD PTR tv1703[rsp]
  035bb	48 89 4c 24 58	 mov	 QWORD PTR [rsp+88], rcx
  035c0	48 8d 8c 24 e0
	1f 00 00	 lea	 rcx, QWORD PTR space1$8[rsp]
  035c8	48 89 4c 24 50	 mov	 QWORD PTR [rsp+80], rcx
  035cd	48 8b 8c 24 20
	06 00 00	 mov	 rcx, QWORD PTR tv1706[rsp]
  035d5	48 89 4c 24 48	 mov	 QWORD PTR [rsp+72], rcx
  035da	8b 8c 24 50 02
	00 00		 mov	 ecx, DWORD PTR tv1711[rsp]
  035e1	89 4c 24 40	 mov	 DWORD PTR [rsp+64], ecx
  035e5	8b 8c 24 54 02
	00 00		 mov	 ecx, DWORD PTR tv1717[rsp]
  035ec	89 4c 24 38	 mov	 DWORD PTR [rsp+56], ecx
  035f0	48 8d 0d 00 00
	00 00		 lea	 rcx, OFFSET FLAT:$SG170186
  035f7	48 89 4c 24 30	 mov	 QWORD PTR [rsp+48], rcx
  035fc	48 8d 0d 00 00
	00 00		 lea	 rcx, OFFSET FLAT:$SG170187
  03603	48 89 4c 24 28	 mov	 QWORD PTR [rsp+40], rcx
  03608	48 89 44 24 20	 mov	 QWORD PTR [rsp+32], rax
  0360d	41 b9 03 00 00
	00		 mov	 r9d, 3
  03613	4c 8d 05 00 00
	00 00		 lea	 r8, OFFSET FLAT:$SG170188
  0361a	ba 3c 06 00 00	 mov	 edx, 1596		; 0000063cH
  0361f	48 8d 0d 00 00
	00 00		 lea	 rcx, OFFSET FLAT:$SG170189
  03626	ff 15 00 00 00
	00		 call	 QWORD PTR __imp_fwritemsg
$LN242@cckd_chkds:

; 1596 :                           space1, (U64)spctab[i].spc_off, (U64)spctab[i].spc_siz);
; 1597 :             }

  0362c	e9 fb 02 00 00	 jmp	 $LN240@cckd_chkds
$LN239@cckd_chkds:

; 1598 :             else
; 1599 :             {
; 1600 :                 if(dev->batch)

  03631	48 8b 84 24 d0
	21 04 00	 mov	 rax, QWORD PTR dev$[rsp]
  03639	8b 80 f8 05 00
	00		 mov	 eax, DWORD PTR [rax+1528]
  0363f	c1 e8 0a	 shr	 eax, 10
  03642	83 e0 01	 and	 eax, 1
  03645	85 c0		 test	 eax, eax
  03647	0f 84 72 01 00
	00		 je	 $LN243@cckd_chkds

; 1601 :                     // "%1d:%04X CCKD file %s: %s offset 0x%16.16"PRIX64" len %"PRId64" overlaps %s offset 0x%"PRIX64
; 1602 :                     FWRMSG( stdout, HHC00366, "W", LCSS_DEVNUM, dev->filename,

  0364d	48 83 bc 24 d0
	21 04 00 00	 cmp	 QWORD PTR dev$[rsp], 0
  03656	74 15		 je	 SHORT $LN629@cckd_chkds
  03658	48 8b 84 24 d0
	21 04 00	 mov	 rax, QWORD PTR dev$[rsp]
  03660	0f b7 40 48	 movzx	 eax, WORD PTR [rax+72]
  03664	89 84 24 58 02
	00 00		 mov	 DWORD PTR tv1758[rsp], eax
  0366b	eb 0b		 jmp	 SHORT $LN630@cckd_chkds
$LN629@cckd_chkds:
  0366d	c7 84 24 58 02
	00 00 00 00 00
	00		 mov	 DWORD PTR tv1758[rsp], 0
$LN630@cckd_chkds:
  03678	48 83 bc 24 d0
	21 04 00 00	 cmp	 QWORD PTR dev$[rsp], 0
  03681	74 17		 je	 SHORT $LN631@cckd_chkds
  03683	48 8b 84 24 d0
	21 04 00	 mov	 rax, QWORD PTR dev$[rsp]
  0368b	0f b7 40 44	 movzx	 eax, WORD PTR [rax+68]
  0368f	d1 f8		 sar	 eax, 1
  03691	89 84 24 5c 02
	00 00		 mov	 DWORD PTR tv1764[rsp], eax
  03698	eb 0b		 jmp	 SHORT $LN632@cckd_chkds
$LN631@cckd_chkds:
  0369a	c7 84 24 5c 02
	00 00 00 00 00
	00		 mov	 DWORD PTR tv1764[rsp], 0
$LN632@cckd_chkds:
  036a5	8b 84 24 90 00
	00 00		 mov	 eax, DWORD PTR i$[rsp]
  036ac	ff c0		 inc	 eax
  036ae	48 98		 cdqe
  036b0	48 6b c0 18	 imul	 rax, rax, 24
  036b4	48 8b 8c 24 98
	00 00 00	 mov	 rcx, QWORD PTR spctab$[rsp]
  036bc	8b 44 01 0c	 mov	 eax, DWORD PTR [rcx+rax+12]
  036c0	48 89 84 24 28
	06 00 00	 mov	 QWORD PTR tv1737[rsp], rax
  036c8	48 63 8c 24 90
	00 00 00	 movsxd	 rcx, DWORD PTR i$[rsp]
  036d0	48 6b c9 18	 imul	 rcx, rcx, 24
  036d4	48 8b 94 24 98
	00 00 00	 mov	 rdx, QWORD PTR spctab$[rsp]
  036dc	8b 4c 0a 14	 mov	 ecx, DWORD PTR [rdx+rcx+20]
  036e0	48 89 8c 24 30
	06 00 00	 mov	 QWORD PTR tv1744[rsp], rcx
  036e8	48 63 94 24 90
	00 00 00	 movsxd	 rdx, DWORD PTR i$[rsp]
  036f0	48 6b d2 18	 imul	 rdx, rdx, 24
  036f4	48 8b bc 24 98
	00 00 00	 mov	 rdi, QWORD PTR spctab$[rsp]
  036fc	8b 54 17 0c	 mov	 edx, DWORD PTR [rdi+rdx+12]
  03700	48 89 94 24 38
	06 00 00	 mov	 QWORD PTR tv1750[rsp], rdx
  03708	48 8b bc 24 d0
	21 04 00	 mov	 rdi, QWORD PTR dev$[rsp]
  03710	48 81 c7 a4 00
	00 00		 add	 rdi, 164		; 000000a4H
  03717	b9 01 00 00 00	 mov	 ecx, 1
  0371c	ff 15 00 00 00
	00		 call	 QWORD PTR __imp___acrt_iob_func
  03722	48 8b 8c 24 28
	06 00 00	 mov	 rcx, QWORD PTR tv1737[rsp]
  0372a	48 89 4c 24 70	 mov	 QWORD PTR [rsp+112], rcx
  0372f	48 8d 8c 24 00
	20 00 00	 lea	 rcx, QWORD PTR space2$9[rsp]
  03737	48 89 4c 24 68	 mov	 QWORD PTR [rsp+104], rcx
  0373c	48 8b 8c 24 30
	06 00 00	 mov	 rcx, QWORD PTR tv1744[rsp]
  03744	48 89 4c 24 60	 mov	 QWORD PTR [rsp+96], rcx
  03749	48 8b 8c 24 38
	06 00 00	 mov	 rcx, QWORD PTR tv1750[rsp]
  03751	48 89 4c 24 58	 mov	 QWORD PTR [rsp+88], rcx
  03756	48 8d 8c 24 e0
	1f 00 00	 lea	 rcx, QWORD PTR space1$8[rsp]
  0375e	48 89 4c 24 50	 mov	 QWORD PTR [rsp+80], rcx
  03763	48 89 7c 24 48	 mov	 QWORD PTR [rsp+72], rdi
  03768	8b 8c 24 58 02
	00 00		 mov	 ecx, DWORD PTR tv1758[rsp]
  0376f	89 4c 24 40	 mov	 DWORD PTR [rsp+64], ecx
  03773	8b 8c 24 5c 02
	00 00		 mov	 ecx, DWORD PTR tv1764[rsp]
  0377a	89 4c 24 38	 mov	 DWORD PTR [rsp+56], ecx
  0377e	48 8d 0d 00 00
	00 00		 lea	 rcx, OFFSET FLAT:$SG170192
  03785	48 89 4c 24 30	 mov	 QWORD PTR [rsp+48], rcx
  0378a	48 8d 0d 00 00
	00 00		 lea	 rcx, OFFSET FLAT:$SG170193
  03791	48 89 4c 24 28	 mov	 QWORD PTR [rsp+40], rcx
  03796	48 89 44 24 20	 mov	 QWORD PTR [rsp+32], rax
  0379b	41 b9 03 00 00
	00		 mov	 r9d, 3
  037a1	4c 8d 05 00 00
	00 00		 lea	 r8, OFFSET FLAT:$SG170194
  037a8	ba 43 06 00 00	 mov	 edx, 1603		; 00000643H
  037ad	48 8d 0d 00 00
	00 00		 lea	 rcx, OFFSET FLAT:$SG170195
  037b4	ff 15 00 00 00
	00		 call	 QWORD PTR __imp_fwritemsg
  037ba	e9 6d 01 00 00	 jmp	 $LN244@cckd_chkds
$LN243@cckd_chkds:

; 1603 :                             space1, (U64)spctab[i].spc_off, (U64)spctab[i].spc_siz, space2, (U64)spctab[i+1].spc_off);
; 1604 :                 else
; 1605 :                     // "%1d:%04X CCKD file %s: %s offset 0x%16.16"PRIX64" len %"PRId64" overlaps %s offset 0x%"PRIX64
; 1606 :                     WRMSG( HHC00366, "W", LCSS_DEVNUM, dev->filename,

  037bf	48 83 bc 24 d0
	21 04 00 00	 cmp	 QWORD PTR dev$[rsp], 0
  037c8	74 15		 je	 SHORT $LN633@cckd_chkds
  037ca	48 8b 84 24 d0
	21 04 00	 mov	 rax, QWORD PTR dev$[rsp]
  037d2	0f b7 40 48	 movzx	 eax, WORD PTR [rax+72]
  037d6	89 84 24 60 02
	00 00		 mov	 DWORD PTR tv1801[rsp], eax
  037dd	eb 0b		 jmp	 SHORT $LN634@cckd_chkds
$LN633@cckd_chkds:
  037df	c7 84 24 60 02
	00 00 00 00 00
	00		 mov	 DWORD PTR tv1801[rsp], 0
$LN634@cckd_chkds:
  037ea	48 83 bc 24 d0
	21 04 00 00	 cmp	 QWORD PTR dev$[rsp], 0
  037f3	74 17		 je	 SHORT $LN635@cckd_chkds
  037f5	48 8b 84 24 d0
	21 04 00	 mov	 rax, QWORD PTR dev$[rsp]
  037fd	0f b7 40 44	 movzx	 eax, WORD PTR [rax+68]
  03801	d1 f8		 sar	 eax, 1
  03803	89 84 24 64 02
	00 00		 mov	 DWORD PTR tv1807[rsp], eax
  0380a	eb 0b		 jmp	 SHORT $LN636@cckd_chkds
$LN635@cckd_chkds:
  0380c	c7 84 24 64 02
	00 00 00 00 00
	00		 mov	 DWORD PTR tv1807[rsp], 0
$LN636@cckd_chkds:
  03817	8b 84 24 90 00
	00 00		 mov	 eax, DWORD PTR i$[rsp]
  0381e	ff c0		 inc	 eax
  03820	48 98		 cdqe
  03822	48 6b c0 18	 imul	 rax, rax, 24
  03826	48 8b 8c 24 98
	00 00 00	 mov	 rcx, QWORD PTR spctab$[rsp]
  0382e	8b 44 01 0c	 mov	 eax, DWORD PTR [rcx+rax+12]
  03832	48 89 84 24 40
	06 00 00	 mov	 QWORD PTR tv1780[rsp], rax
  0383a	48 63 8c 24 90
	00 00 00	 movsxd	 rcx, DWORD PTR i$[rsp]
  03842	48 6b c9 18	 imul	 rcx, rcx, 24
  03846	48 8b 94 24 98
	00 00 00	 mov	 rdx, QWORD PTR spctab$[rsp]
  0384e	8b 4c 0a 14	 mov	 ecx, DWORD PTR [rdx+rcx+20]
  03852	48 89 8c 24 48
	06 00 00	 mov	 QWORD PTR tv1787[rsp], rcx
  0385a	48 63 94 24 90
	00 00 00	 movsxd	 rdx, DWORD PTR i$[rsp]
  03862	48 6b d2 18	 imul	 rdx, rdx, 24
  03866	48 8b bc 24 98
	00 00 00	 mov	 rdi, QWORD PTR spctab$[rsp]
  0386e	8b 54 17 0c	 mov	 edx, DWORD PTR [rdi+rdx+12]
  03872	48 89 94 24 50
	06 00 00	 mov	 QWORD PTR tv1793[rsp], rdx
  0387a	48 8b bc 24 d0
	21 04 00	 mov	 rdi, QWORD PTR dev$[rsp]
  03882	48 81 c7 a4 00
	00 00		 add	 rdi, 164		; 000000a4H
  03889	b9 01 00 00 00	 mov	 ecx, 1
  0388e	ff 15 00 00 00
	00		 call	 QWORD PTR __imp___acrt_iob_func
  03894	48 8b 8c 24 40
	06 00 00	 mov	 rcx, QWORD PTR tv1780[rsp]
  0389c	48 89 4c 24 70	 mov	 QWORD PTR [rsp+112], rcx
  038a1	48 8d 8c 24 00
	20 00 00	 lea	 rcx, QWORD PTR space2$9[rsp]
  038a9	48 89 4c 24 68	 mov	 QWORD PTR [rsp+104], rcx
  038ae	48 8b 8c 24 48
	06 00 00	 mov	 rcx, QWORD PTR tv1787[rsp]
  038b6	48 89 4c 24 60	 mov	 QWORD PTR [rsp+96], rcx
  038bb	48 8b 8c 24 50
	06 00 00	 mov	 rcx, QWORD PTR tv1793[rsp]
  038c3	48 89 4c 24 58	 mov	 QWORD PTR [rsp+88], rcx
  038c8	48 8d 8c 24 e0
	1f 00 00	 lea	 rcx, QWORD PTR space1$8[rsp]
  038d0	48 89 4c 24 50	 mov	 QWORD PTR [rsp+80], rcx
  038d5	48 89 7c 24 48	 mov	 QWORD PTR [rsp+72], rdi
  038da	8b 8c 24 60 02
	00 00		 mov	 ecx, DWORD PTR tv1801[rsp]
  038e1	89 4c 24 40	 mov	 DWORD PTR [rsp+64], ecx
  038e5	8b 8c 24 64 02
	00 00		 mov	 ecx, DWORD PTR tv1807[rsp]
  038ec	89 4c 24 38	 mov	 DWORD PTR [rsp+56], ecx
  038f0	48 8d 0d 00 00
	00 00		 lea	 rcx, OFFSET FLAT:$SG170196
  038f7	48 89 4c 24 30	 mov	 QWORD PTR [rsp+48], rcx
  038fc	48 8d 0d 00 00
	00 00		 lea	 rcx, OFFSET FLAT:$SG170197
  03903	48 89 4c 24 28	 mov	 QWORD PTR [rsp+40], rcx
  03908	48 89 44 24 20	 mov	 QWORD PTR [rsp+32], rax
  0390d	41 b9 03 00 00
	00		 mov	 r9d, 3
  03913	4c 8d 05 00 00
	00 00		 lea	 r8, OFFSET FLAT:$SG170198
  0391a	ba 47 06 00 00	 mov	 edx, 1607		; 00000647H
  0391f	48 8d 0d 00 00
	00 00		 lea	 rcx, OFFSET FLAT:$SG170199
  03926	ff 15 00 00 00
	00		 call	 QWORD PTR __imp_fwritemsg
$LN244@cckd_chkds:
$LN240@cckd_chkds:

; 1607 :                           space1, (U64)spctab[i].spc_off, (U64)spctab[i].spc_siz, space2, (U64)spctab[i+1].spc_off );
; 1608 :             }
; 1609 : 
; 1610 :             /* setup recovery */
; 1611 :             if (spctab[i].spc_typ == SPCTAB_L2)

  0392c	48 63 84 24 90
	00 00 00	 movsxd	 rax, DWORD PTR i$[rsp]
  03934	48 6b c0 18	 imul	 rax, rax, 24
  03938	48 8b 8c 24 98
	00 00 00	 mov	 rcx, QWORD PTR spctab$[rsp]
  03940	0f b6 04 01	 movzx	 eax, BYTE PTR [rcx+rax]
  03944	83 f8 04	 cmp	 eax, 4
  03947	75 62		 jne	 SHORT $LN245@cckd_chkds

; 1612 :             {
; 1613 :                 l2errs[spctab[i].spc_val] = 1;

  03949	48 63 84 24 90
	00 00 00	 movsxd	 rax, DWORD PTR i$[rsp]
  03951	48 6b c0 18	 imul	 rax, rax, 24
  03955	48 8b 8c 24 98
	00 00 00	 mov	 rcx, QWORD PTR spctab$[rsp]
  0395d	48 63 44 01 04	 movsxd	 rax, DWORD PTR [rcx+rax+4]
  03962	48 8b 8c 24 68
	01 00 00	 mov	 rcx, QWORD PTR l2errs$[rsp]
  0396a	c6 04 01 01	 mov	 BYTE PTR [rcx+rax], 1

; 1614 :                 /* Mark all tracks for the l2 for recovery */
; 1615 :                 memset (rcvtab + (spctab[i].spc_val*256), 1, 256);

  0396e	48 63 84 24 90
	00 00 00	 movsxd	 rax, DWORD PTR i$[rsp]
  03976	48 6b c0 18	 imul	 rax, rax, 24
  0397a	48 8b 8c 24 98
	00 00 00	 mov	 rcx, QWORD PTR spctab$[rsp]
  03982	69 44 01 04 00
	01 00 00	 imul	 eax, DWORD PTR [rcx+rax+4], 256 ; 00000100H
  0398a	48 98		 cdqe
  0398c	48 8b 8c 24 00
	01 00 00	 mov	 rcx, QWORD PTR rcvtab$[rsp]
  03994	48 03 c8	 add	 rcx, rax
  03997	48 8b c1	 mov	 rax, rcx
  0399a	48 8b f8	 mov	 rdi, rax
  0399d	b8 01 00 00 00	 mov	 eax, 1
  039a2	b9 00 01 00 00	 mov	 ecx, 256		; 00000100H
  039a7	f3 aa		 rep stosb

; 1616 :             }

  039a9	eb 46		 jmp	 SHORT $LN246@cckd_chkds
$LN245@cckd_chkds:

; 1617 :             else if (spctab[i].spc_typ == trktyp)

  039ab	48 63 84 24 90
	00 00 00	 movsxd	 rax, DWORD PTR i$[rsp]
  039b3	48 6b c0 18	 imul	 rax, rax, 24
  039b7	48 8b 8c 24 98
	00 00 00	 mov	 rcx, QWORD PTR spctab$[rsp]
  039bf	0f b6 04 01	 movzx	 eax, BYTE PTR [rcx+rax]
  039c3	3b 84 24 d0 00
	00 00		 cmp	 eax, DWORD PTR trktyp$[rsp]
  039ca	75 25		 jne	 SHORT $LN247@cckd_chkds

; 1618 :                 rcvtab[spctab[i].spc_val] = 1;

  039cc	48 63 84 24 90
	00 00 00	 movsxd	 rax, DWORD PTR i$[rsp]
  039d4	48 6b c0 18	 imul	 rax, rax, 24
  039d8	48 8b 8c 24 98
	00 00 00	 mov	 rcx, QWORD PTR spctab$[rsp]
  039e0	48 63 44 01 04	 movsxd	 rax, DWORD PTR [rcx+rax+4]
  039e5	48 8b 8c 24 00
	01 00 00	 mov	 rcx, QWORD PTR rcvtab$[rsp]
  039ed	c6 04 01 01	 mov	 BYTE PTR [rcx+rax], 1
$LN247@cckd_chkds:
$LN246@cckd_chkds:

; 1619 : 
; 1620 :             if (spctab[i+1].spc_typ == SPCTAB_L2 && valid)

  039f1	8b 84 24 90 00
	00 00		 mov	 eax, DWORD PTR i$[rsp]
  039f8	ff c0		 inc	 eax
  039fa	48 98		 cdqe
  039fc	48 6b c0 18	 imul	 rax, rax, 24
  03a00	48 8b 8c 24 98
	00 00 00	 mov	 rcx, QWORD PTR spctab$[rsp]
  03a08	0f b6 04 01	 movzx	 eax, BYTE PTR [rcx+rax]
  03a0c	83 f8 04	 cmp	 eax, 4
  03a0f	75 72		 jne	 SHORT $LN248@cckd_chkds
  03a11	83 bc 24 70 01
	00 00 00	 cmp	 DWORD PTR valid$[rsp], 0
  03a19	74 68		 je	 SHORT $LN248@cckd_chkds

; 1621 :             {
; 1622 :                 l2errs[spctab[i+1].spc_val] = 1;

  03a1b	8b 84 24 90 00
	00 00		 mov	 eax, DWORD PTR i$[rsp]
  03a22	ff c0		 inc	 eax
  03a24	48 98		 cdqe
  03a26	48 6b c0 18	 imul	 rax, rax, 24
  03a2a	48 8b 8c 24 98
	00 00 00	 mov	 rcx, QWORD PTR spctab$[rsp]
  03a32	48 63 44 01 04	 movsxd	 rax, DWORD PTR [rcx+rax+4]
  03a37	48 8b 8c 24 68
	01 00 00	 mov	 rcx, QWORD PTR l2errs$[rsp]
  03a3f	c6 04 01 01	 mov	 BYTE PTR [rcx+rax], 1

; 1623 :                 memset (rcvtab + (spctab[i+1].spc_val*256), 1, 256);

  03a43	8b 84 24 90 00
	00 00		 mov	 eax, DWORD PTR i$[rsp]
  03a4a	ff c0		 inc	 eax
  03a4c	48 98		 cdqe
  03a4e	48 6b c0 18	 imul	 rax, rax, 24
  03a52	48 8b 8c 24 98
	00 00 00	 mov	 rcx, QWORD PTR spctab$[rsp]
  03a5a	69 44 01 04 00
	01 00 00	 imul	 eax, DWORD PTR [rcx+rax+4], 256 ; 00000100H
  03a62	48 98		 cdqe
  03a64	48 8b 8c 24 00
	01 00 00	 mov	 rcx, QWORD PTR rcvtab$[rsp]
  03a6c	48 03 c8	 add	 rcx, rax
  03a6f	48 8b c1	 mov	 rax, rcx
  03a72	48 8b f8	 mov	 rdi, rax
  03a75	b8 01 00 00 00	 mov	 eax, 1
  03a7a	b9 00 01 00 00	 mov	 ecx, 256		; 00000100H
  03a7f	f3 aa		 rep stosb

; 1624 :             }

  03a81	eb 56		 jmp	 SHORT $LN249@cckd_chkds
$LN248@cckd_chkds:

; 1625 :             else if (spctab[i+1].spc_typ == trktyp && valid)

  03a83	8b 84 24 90 00
	00 00		 mov	 eax, DWORD PTR i$[rsp]
  03a8a	ff c0		 inc	 eax
  03a8c	48 98		 cdqe
  03a8e	48 6b c0 18	 imul	 rax, rax, 24
  03a92	48 8b 8c 24 98
	00 00 00	 mov	 rcx, QWORD PTR spctab$[rsp]
  03a9a	0f b6 04 01	 movzx	 eax, BYTE PTR [rcx+rax]
  03a9e	3b 84 24 d0 00
	00 00		 cmp	 eax, DWORD PTR trktyp$[rsp]
  03aa5	75 32		 jne	 SHORT $LN250@cckd_chkds
  03aa7	83 bc 24 70 01
	00 00 00	 cmp	 DWORD PTR valid$[rsp], 0
  03aaf	74 28		 je	 SHORT $LN250@cckd_chkds

; 1626 :                 rcvtab[spctab[i+1].spc_val] = 1;

  03ab1	8b 84 24 90 00
	00 00		 mov	 eax, DWORD PTR i$[rsp]
  03ab8	ff c0		 inc	 eax
  03aba	48 98		 cdqe
  03abc	48 6b c0 18	 imul	 rax, rax, 24
  03ac0	48 8b 8c 24 98
	00 00 00	 mov	 rcx, QWORD PTR spctab$[rsp]
  03ac8	48 63 44 01 04	 movsxd	 rax, DWORD PTR [rcx+rax+4]
  03acd	48 8b 8c 24 00
	01 00 00	 mov	 rcx, QWORD PTR rcvtab$[rsp]
  03ad5	c6 04 01 01	 mov	 BYTE PTR [rcx+rax], 1
$LN250@cckd_chkds:
$LN249@cckd_chkds:

; 1627 : 
; 1628 :         } /* if overlap or out of bounds */

  03ad9	e9 ed 03 00 00	 jmp	 $LN235@cckd_chkds
$LN234@cckd_chkds:

; 1629 : 
; 1630 :         /* Check image l2 entry consistency */
; 1631 :         else if (spctab[i].spc_typ == trktyp
; 1632 :          && (spctab[i].spc_len < CKD_TRKHDR_SIZE

  03ade	48 63 84 24 90
	00 00 00	 movsxd	 rax, DWORD PTR i$[rsp]
  03ae6	48 6b c0 18	 imul	 rax, rax, 24
  03aea	48 8b 8c 24 98
	00 00 00	 mov	 rcx, QWORD PTR spctab$[rsp]
  03af2	0f b6 04 01	 movzx	 eax, BYTE PTR [rcx+rax]
  03af6	3b 84 24 d0 00
	00 00		 cmp	 eax, DWORD PTR trktyp$[rsp]
  03afd	0f 85 c8 03 00
	00		 jne	 $LN251@cckd_chkds
  03b03	48 63 84 24 90
	00 00 00	 movsxd	 rax, DWORD PTR i$[rsp]
  03b0b	48 6b c0 18	 imul	 rax, rax, 24
  03b0f	48 8b 8c 24 98
	00 00 00	 mov	 rcx, QWORD PTR spctab$[rsp]
