; Listing generated by Microsoft (R) Optimizing Compiler Version 19.34.31937.0 

include listing.inc

INCLUDELIB MSVCRTD
INCLUDELIB OLDNAMES

CONST	SEGMENT
CKD_ENDTRK DB	0ffH
	DB	0ffH
	DB	0ffH
	DB	0ffH
	DB	0ffH
	DB	0ffH
	DB	0ffH
	DB	0ffH
VOL1_KEYA DB	056H
	DB	04fH
	DB	04cH
	DB	031H
VOL1_KEY DB	0e5H
	DB	0d6H
	DB	0d3H
	DB	0f1H
IPL1_KEY DB	0c9H
	DB	0d7H
	DB	0d3H
	DB	0f1H
IPL2_KEY DB	0c9H
	DB	0d7H
	DB	0d3H
	DB	0f2H
iplpsw	DB	00H
	DB	00H
	DB	00H
	DB	00H
	DB	00H
	DB	00H
	DB	00H
	DB	00H
iplccw1	DB	06H
	DB	00H
	DB	03aH
	DB	098H
	DB	060H
	DB	00H
	DB	00H
	DB	060H
iplccw2	DB	08H
	DB	00H
	DB	03aH
	DB	098H
	DB	00H
	DB	00H
	DB	00H
	DB	00H
noiplpsw DB	00H
	DB	02H
	DB	00H
	DB	00H
	DB	00H
	DB	00H
	DB	00H
	DB	0fH
noiplccw1 DB	03H
	DB	00H
	DB	00H
	DB	00H
	DB	00H
	DB	00H
	DB	00H
	DB	01H
noiplccw2 DB	00H
	DB	00H
	DB	00H
	DB	00H
	DB	00H
	DB	00H
	DB	00H
	DB	00H
ipl2data DB	07H
	DB	00H
	DB	03aH
	DB	0b8H
	DB	040H
	DB	00H
	DB	00H
	DB	06H
	DB	031H
	DB	00H
	DB	03aH
	DB	0beH
	DB	040H
	DB	00H
	DB	00H
	DB	05H
	DB	08H
	DB	00H
	DB	03aH
	DB	0a0H
	DB	00H
	DB	00H
	DB	00H
	DB	00H
	DB	06H
	DB	00H
	DB	00H
	DB	00H
	DB	020H
	DB	00H
	DB	07fH
	DB	0ffH
	DB	00H
	DB	00H
	DB	00H
	DB	00H
	DB	00H
	DB	00H
	DB	00H
	DB	00H
	DB	00H
	DB	00H
	DB	04H
CONST	ENDS
_DATA	SEGMENT
$SG172069 DB	'none', 00H
	ORG $+3
$SG172070 DB	'zlib', 00H
	ORG $+3
$SG172071 DB	'bzip2', 00H
_DATA	ENDS
PUBLIC	fetch_hw_noswap
PUBLIC	store_hw_noswap
PUBLIC	fetch_fw_noswap
PUBLIC	store_fw_noswap
PUBLIC	cckd64_dasd_init_handler
PUBLIC	cckd64_dasd_close_device
PUBLIC	cckd64_read_track
PUBLIC	cckd64_update_track
PUBLIC	cfba64_read_block
PUBLIC	cfba64_write_block
PUBLIC	cckd64_dasd_start
PUBLIC	cckd64_dasd_end
PUBLIC	cckd64_open
PUBLIC	cckd64_close
PUBLIC	cckd64_read
PUBLIC	cckd64_write
PUBLIC	cckd64_ftruncate
PUBLIC	cckd64_used
PUBLIC	cfba64_used
PUBLIC	cckd64_read_trk
PUBLIC	cckd64_flush_cache
PUBLIC	cckd64_flush_cache_scan
PUBLIC	cckd64_flush_cache_all
PUBLIC	cckd64_purge_cache
PUBLIC	cckd64_purge_cache_scan
PUBLIC	cckd64_writer_write
PUBLIC	cckd64_get_space
PUBLIC	cckd64_rel_space
PUBLIC	cckd64_flush_space
PUBLIC	cckd64_read_chdr
PUBLIC	cckd64_write_chdr
PUBLIC	cckd64_read_l1
PUBLIC	cckd64_write_l1
PUBLIC	cckd64_write_l1ent
PUBLIC	cckd64_read_init
PUBLIC	cckd64_read_fsp
PUBLIC	cckd64_write_fsp
PUBLIC	cckd64_read_l2
PUBLIC	cckd64_purge_l2
PUBLIC	cckd64_purge_l2_scan
PUBLIC	cckd64_steal_l2
PUBLIC	cckd64_write_l2
PUBLIC	cckd64_read_l2ent
PUBLIC	cckd64_write_l2ent
PUBLIC	cckd64_read_trkimg
PUBLIC	cckd64_write_trkimg
PUBLIC	cckd64_harden
PUBLIC	cckd64_null_trk
PUBLIC	cckd64_check_null_trk
PUBLIC	cckd64_cchh
PUBLIC	cckd64_validate
PUBLIC	cckd64_sf_init
PUBLIC	cckd64_sf_new
PUBLIC	cckd64_gcstart
PUBLIC	cckd64_gcol_dev
PUBLIC	cckd64_gc_state
PUBLIC	cckd64_gc_rpt_state
PUBLIC	cckd64_gc_percolate
PUBLIC	cckd64_gc_l2
PUBLIC	cckd64_uncompress
PUBLIC	cckd64_sf_add
PUBLIC	cckd64_sf_remove
PUBLIC	cckd64_sf_comp
PUBLIC	cckd64_sf_chk
PUBLIC	cckd64_sf_stats
EXTRN	__imp__errno:PROC
EXTRN	strcmp:PROC
EXTRN	__imp_free:PROC
EXTRN	abs:PROC
EXTRN	_byteswap_ushort:PROC
EXTRN	_byteswap_ulong:PROC
EXTRN	__imp__chsize_s:PROC
EXTRN	__imp__commit:PROC
EXTRN	__imp__lseeki64:PROC
EXTRN	__imp_close:PROC
EXTRN	__imp_read:PROC
EXTRN	__imp_unlink:PROC
EXTRN	__imp_write:PROC
EXTRN	__imp___acrt_iob_func:PROC
EXTRN	__imp__fstat64:PROC
EXTRN	__imp__stat64:PROC
EXTRN	__imp_hthread_initialize_lock:PROC
EXTRN	__imp_hthread_obtain_lock:PROC
EXTRN	__imp_hthread_release_lock:PROC
EXTRN	__imp_hthread_destroy_lock:PROC
EXTRN	__imp_hthread_initialize_condition:PROC
EXTRN	__imp_hthread_destroy_condition:PROC
EXTRN	__imp_hthread_signal_condition:PROC
EXTRN	__imp_hthread_broadcast_condition:PROC
EXTRN	__imp_hthread_wait_condition:PROC
EXTRN	__imp_hthread_create_thread:PROC
EXTRN	__imp_hthread_set_lock_name:PROC
EXTRN	__imp_timed_wait_condition_relative_usecs_impl:PROC
EXTRN	__imp_trimloc:PROC
EXTRN	__imp_w32_strerror:PROC
EXTRN	__imp_usleep:PROC
EXTRN	__imp_hostpath:PROC
EXTRN	__imp_get_file_accmode_flags:PROC
EXTRN	__imp_w32_snprintf:PROC
EXTRN	__imp_w32_hopen:PROC
EXTRN	cache_busy:PROC
EXTRN	cache_waiters:PROC
EXTRN	cache_busy_percent:PROC
EXTRN	cache_lookup:PROC
EXTRN	cache_scan:PROC
EXTRN	cache_lock:PROC
EXTRN	cache_unlock:PROC
EXTRN	cache_wait:PROC
EXTRN	cache_getkey:PROC
EXTRN	cache_setkey:PROC
EXTRN	cache_getflag:PROC
EXTRN	cache_setflag:PROC
EXTRN	cache_setage:PROC
EXTRN	cache_getbuf:PROC
EXTRN	cache_setbuf:PROC
EXTRN	cache_getlen:PROC
EXTRN	cache_getval:PROC
EXTRN	cache_setval:PROC
EXTRN	cache_release:PROC
EXTRN	shared_update_notify:PROC
EXTRN	ckd_build_sense:PROC
EXTRN	cckd_dasd_close_device:PROC
EXTRN	cckd64_swapend:PROC
EXTRN	cckd64_swapend_chdr:PROC
EXTRN	cckd64_swapend_l1:PROC
EXTRN	cckd64_swapend_l2:PROC
EXTRN	cckd64_comp:PROC
EXTRN	cckd64_chkdsk:PROC
EXTRN	cckd_def_opt_bigend:PROC
EXTRN	__imp_fwritemsg:PROC
EXTRN	dh_devid_typ:PROC
EXTRN	is_dh_devid_typ:PROC
EXTRN	cckd_dasd_init:PROC
EXTRN	cckd_dasd_term_if_appropriate:PROC
EXTRN	cckd_dasd_start:PROC
EXTRN	cckd_dasd_end:PROC
EXTRN	cckd_read:PROC
EXTRN	cckd_malloc:PROC
EXTRN	cckd_calloc:PROC
EXTRN	cckd_realloc:PROC
EXTRN	cckd_free:PROC
EXTRN	cckd_used:PROC
EXTRN	cfba_used:PROC
EXTRN	cckd_read_trk:PROC
EXTRN	cckd_readahead:PROC
EXTRN	cckd_flush_cache:PROC
EXTRN	cckd_purge_cache:PROC
EXTRN	cckd_writer:PROC
EXTRN	cckd_writer_write:PROC
EXTRN	cckd_get_space:PROC
EXTRN	cckd_rel_space:PROC
EXTRN	cckd_flush_space:PROC
EXTRN	cckd_read_chdr:PROC
EXTRN	cckd_write_chdr:PROC
EXTRN	cckd_read_l1:PROC
EXTRN	cckd_write_l1:PROC
EXTRN	cckd_write_l1ent:PROC
EXTRN	cckd_read_init:PROC
EXTRN	cckd_read_fsp:PROC
EXTRN	cckd_write_fsp:PROC
EXTRN	cckd_read_l2:PROC
EXTRN	cckd_purge_l2:PROC
EXTRN	cckd_steal_l2:PROC
EXTRN	cckd_steal_l2_scan:PROC
EXTRN	cckd_write_l2:PROC
EXTRN	cckd_read_l2ent:PROC
EXTRN	cckd_write_l2ent:PROC
EXTRN	cckd_write_trkimg:PROC
EXTRN	cckd_harden:PROC
EXTRN	cckd_trklen:PROC
EXTRN	cckd_null_trk:PROC
EXTRN	cckd_check_null_trk:PROC
EXTRN	cckd_sf_name:PROC
EXTRN	cckd_sf_init:PROC
EXTRN	cckd_sf_new:PROC
EXTRN	cckd_lock_devchain:PROC
EXTRN	cckd_unlock_devchain:PROC
EXTRN	cckd_gcol:PROC
EXTRN	cckd_gcol_dev:PROC
EXTRN	cckd_gc_state:PROC
EXTRN	cckd_gc_rpt_state:PROC
EXTRN	cckd_gc_percolate:PROC
EXTRN	cckd_find_device_by_devnum:PROC
EXTRN	cckd_uncompress_zlib:PROC
EXTRN	cckd_uncompress_bzip2:PROC
EXTRN	cckd_compress:PROC
EXTRN	cckd_trace:PROC
EXTRN	cckd_print_itrace:PROC
EXTRN	cckd_sf_remove:PROC
EXTRN	cckd_sf_comp:PROC
EXTRN	cckd_sf_chk:PROC
EXTRN	cckd_sf_stats:PROC
EXTRN	__GSHandlerCheck:PROC
EXTRN	__chkstk:PROC
EXTRN	__security_check_cookie:PROC
EXTRN	memcmp:PROC
EXTRN	ckd_dasd_device_hndinfo:BYTE
EXTRN	fba_dasd_device_hndinfo:BYTE
EXTRN	__imp_sysblk:BYTE
EXTRN	cckd_dasd_device_hndinfo:BYTE
EXTRN	cfba_dasd_device_hndinfo:BYTE
EXTRN	cckdblk:BYTE
EXTRN	gctab:BYTE
EXTRN	compname:BYTE
EXTRN	empty64_l2:BYTE
EXTRN	__security_cookie:QWORD
_BSS	SEGMENT
$SG169627 DB	01H DUP (?)
$SG170687 DB	01H DUP (?)
$SG171118 DB	01H DUP (?)
$SG171123 DB	01H DUP (?)
$SG171134 DB	01H DUP (?)
$SG171401 DB	01H DUP (?)
$SG171424 DB	01H DUP (?)
$SG171437 DB	01H DUP (?)
$SG171444 DB	01H DUP (?)
$SG171490 DB	01H DUP (?)
_BSS	ENDS
;	COMDAT pdata
pdata	SEGMENT
$pdata$fetch_hw_noswap DD imagerel $LN3
	DD	imagerel $LN3+30
	DD	imagerel $unwind$fetch_hw_noswap
pdata	ENDS
;	COMDAT pdata
pdata	SEGMENT
$pdata$fetch_fw_noswap DD imagerel $LN3
	DD	imagerel $LN3+27
	DD	imagerel $unwind$fetch_fw_noswap
pdata	ENDS
pdata	SEGMENT
$pdata$cckd64_dasd_init_handler DD imagerel $LN40
	DD	imagerel $LN40+1434
	DD	imagerel $unwind$cckd64_dasd_init_handler
$pdata$cckd64_dasd_close_device DD imagerel $LN32
	DD	imagerel $LN32+1695
	DD	imagerel $unwind$cckd64_dasd_close_device
$pdata$cckd64_read_track DD imagerel $LN12
	DD	imagerel $LN12+1180
	DD	imagerel $unwind$cckd64_read_track
$pdata$cckd64_update_track DD imagerel $LN10
	DD	imagerel $LN10+640
	DD	imagerel $unwind$cckd64_update_track
$pdata$cfba64_read_block DD imagerel $LN11
	DD	imagerel $LN11+1025
	DD	imagerel $unwind$cfba64_read_block
$pdata$cfba64_write_block DD imagerel $LN10
	DD	imagerel $LN10+385
	DD	imagerel $unwind$cfba64_write_block
$pdata$cckd64_dasd_start DD imagerel $LN17
	DD	imagerel $LN17+848
	DD	imagerel $unwind$cckd64_dasd_start
$pdata$cckd64_dasd_end DD imagerel $LN10
	DD	imagerel $LN10+468
	DD	imagerel $unwind$cckd64_dasd_end
$pdata$cckd64_open DD imagerel $LN18
	DD	imagerel $LN18+1028
	DD	imagerel $unwind$cckd64_open
$pdata$cckd64_close DD imagerel $LN10
	DD	imagerel $LN10+546
	DD	imagerel $unwind$cckd64_close
$pdata$cckd64_read DD imagerel $LN19
	DD	imagerel $LN19+1219
	DD	imagerel $unwind$cckd64_read
$pdata$cckd64_write DD imagerel $LN19
	DD	imagerel $LN19+1227
	DD	imagerel $unwind$cckd64_write
$pdata$cckd64_ftruncate DD imagerel $LN8
	DD	imagerel $LN8+460
	DD	imagerel $unwind$cckd64_ftruncate
$pdata$cckd64_used DD imagerel $LN15
	DD	imagerel $LN15+401
	DD	imagerel $unwind$cckd64_used
$pdata$cfba64_used DD imagerel $LN15
	DD	imagerel $LN15+390
	DD	imagerel $unwind$cfba64_used
$pdata$cckd64_read_trk DD imagerel $LN35
	DD	imagerel $LN35+3065
	DD	imagerel $unwind$cckd64_read_trk
$pdata$cckd64_flush_cache DD imagerel $LN11
	DD	imagerel $LN11+620
	DD	imagerel $unwind$cckd64_flush_cache
$pdata$cckd64_flush_cache_scan DD imagerel $LN10
	DD	imagerel $LN10+310
	DD	imagerel $unwind$cckd64_flush_cache_scan
$pdata$cckd64_flush_cache_all DD imagerel $LN7
	DD	imagerel $LN7+183
	DD	imagerel $unwind$cckd64_flush_cache_all
$pdata$cckd64_purge_cache DD imagerel $LN4
	DD	imagerel $LN4+80
	DD	imagerel $unwind$cckd64_purge_cache
$pdata$cckd64_purge_cache_scan DD imagerel $LN10
	DD	imagerel $LN10+189
	DD	imagerel $unwind$cckd64_purge_cache_scan
$pdata$cckd64_writer_write DD imagerel $LN28
	DD	imagerel $LN28+2215
	DD	imagerel $unwind$cckd64_writer_write
$pdata$cckd64_get_space DD imagerel $LN34
	DD	imagerel $LN34+2331
	DD	imagerel $unwind$cckd64_get_space
$pdata$cckd64_rel_space DD imagerel $LN27
	DD	imagerel $LN27+1696
	DD	imagerel $unwind$cckd64_rel_space
$pdata$cckd64_flush_space DD imagerel $LN25
	DD	imagerel $LN25+2212
	DD	imagerel $unwind$cckd64_flush_space
$pdata$cckd64_read_chdr DD imagerel $LN12
	DD	imagerel $LN12+629
	DD	imagerel $unwind$cckd64_read_chdr
$pdata$cckd64_write_chdr DD imagerel $LN5
	DD	imagerel $LN5+299
	DD	imagerel $unwind$cckd64_write_chdr
$pdata$cckd64_read_l1 DD imagerel $LN18
	DD	imagerel $LN18+883
	DD	imagerel $unwind$cckd64_read_l1
$pdata$cckd64_write_l1 DD imagerel $LN5
	DD	imagerel $LN5+225
	DD	imagerel $unwind$cckd64_write_l1
$pdata$cckd64_write_l1ent DD imagerel $LN5
	DD	imagerel $LN5+230
	DD	imagerel $unwind$cckd64_write_l1ent
$pdata$cckd64_read_init DD imagerel $LN18
	DD	imagerel $LN18+670
	DD	imagerel $unwind$cckd64_read_init
$pdata$cckd64_read_fsp DD imagerel $LN29
	DD	imagerel $LN29+1789
	DD	imagerel $unwind$cckd64_read_fsp
$pdata$cckd64_write_fsp DD imagerel $LN30
	DD	imagerel $LN30+1376
	DD	imagerel $unwind$cckd64_write_fsp
$pdata$cckd64_read_l2 DD imagerel $LN19
	DD	imagerel $LN19+1647
	DD	imagerel $unwind$cckd64_read_l2
$pdata$cckd64_purge_l2 DD imagerel $LN4
	DD	imagerel $LN4+199
	DD	imagerel $unwind$cckd64_purge_l2
$pdata$cckd64_purge_l2_scan DD imagerel $LN11
	DD	imagerel $LN11+259
	DD	imagerel $unwind$cckd64_purge_l2_scan
$pdata$cckd64_steal_l2 DD imagerel $LN7
	DD	imagerel $LN7+253
	DD	imagerel $unwind$cckd64_steal_l2
$pdata$cckd64_write_l2 DD imagerel $LN13
	DD	imagerel $LN13+597
	DD	imagerel $unwind$cckd64_write_l2
$pdata$cckd64_read_l2ent DD imagerel $LN18
	DD	imagerel $LN18+791
	DD	imagerel $unwind$cckd64_read_l2ent
$pdata$cckd64_write_l2ent DD imagerel $LN9
	DD	imagerel $LN9+555
	DD	imagerel $unwind$cckd64_write_l2ent
$pdata$cckd64_read_trkimg DD imagerel $LN10
	DD	imagerel $LN10+512
	DD	imagerel $unwind$cckd64_read_trkimg
$pdata$cckd64_write_trkimg DD imagerel $LN12
	DD	imagerel $LN12+1251
	DD	imagerel $unwind$cckd64_write_trkimg
$pdata$cckd64_harden DD imagerel $LN12
	DD	imagerel $LN12+371
	DD	imagerel $unwind$cckd64_harden
$pdata$cckd64_null_trk DD imagerel $LN18
	DD	imagerel $LN18+1171
	DD	imagerel $unwind$cckd64_null_trk
$pdata$cckd64_check_null_trk DD imagerel $LN11
	DD	imagerel $LN11+367
	DD	imagerel $unwind$cckd64_check_null_trk
$pdata$cckd64_cchh DD imagerel $LN44
	DD	imagerel $LN44+2775
	DD	imagerel $unwind$cckd64_cchh
$pdata$cckd64_validate DD imagerel $LN23
	DD	imagerel $LN23+1661
	DD	imagerel $unwind$cckd64_validate
$pdata$cckd64_sf_init DD imagerel $LN46
	DD	imagerel $LN46+1948
	DD	imagerel $unwind$cckd64_sf_init
$pdata$cckd64_sf_new DD imagerel $LN21
	DD	imagerel $LN21+1674
	DD	imagerel $unwind$cckd64_sf_new
$pdata$cckd64_gcstart DD imagerel $LN13
	DD	imagerel $LN13+791
	DD	imagerel $unwind$cckd64_gcstart
$pdata$cckd64_gcol_dev DD imagerel $LN20
	DD	imagerel $LN20+1091
	DD	imagerel $unwind$cckd64_gcol_dev
$pdata$cckd64_gc_state DD imagerel $LN15
	DD	imagerel $LN15+457
	DD	imagerel $unwind$cckd64_gc_state
$pdata$cckd64_gc_rpt_state DD imagerel $LN24
	DD	imagerel $LN24+880
	DD	imagerel $unwind$cckd64_gc_rpt_state
$pdata$cckd64_gc_percolate DD imagerel $LN95
	DD	imagerel $LN95+5250
	DD	imagerel $unwind$cckd64_gc_percolate
$pdata$cckd64_uncompress DD imagerel $LN27
	DD	imagerel $LN27+2017
	DD	imagerel $unwind$cckd64_uncompress
$pdata$cckd64_sf_add DD imagerel $LN38
	DD	imagerel $LN38+1866
	DD	imagerel $unwind$cckd64_sf_add
$pdata$cckd64_sf_remove DD imagerel $LN111
	DD	imagerel $LN111+6603
	DD	imagerel $unwind$cckd64_sf_remove
$pdata$cckd64_sf_comp DD imagerel $LN27
	DD	imagerel $LN27+1341
	DD	imagerel $unwind$cckd64_sf_comp
$pdata$cckd64_sf_chk DD imagerel $LN27
	DD	imagerel $LN27+1436
	DD	imagerel $unwind$cckd64_sf_chk
$pdata$cckd64_sf_stats DD imagerel $LN80
	DD	imagerel $LN80+4336
	DD	imagerel $unwind$cckd64_sf_stats
$pdata$cckd64_gc_perc_error DD imagerel cckd64_gc_perc_error
	DD	imagerel cckd64_gc_perc_error+94
	DD	imagerel $unwind$cckd64_gc_perc_error
$pdata$cckd64_gc_perc_space_error DD imagerel cckd64_gc_perc_space_error
	DD	imagerel cckd64_gc_perc_space_error+722
	DD	imagerel $unwind$cckd64_gc_perc_space_error
pdata	ENDS
_DATA	SEGMENT
	ORG $+2
$SG169527 DB	'CCKDBLK ', 00H
	ORG $+3
$SG169528 DB	'ext', 00H
$SG169530 DB	'cckddasd64.c:55', 00H
$SG169531 DB	'&cckd->cckdiolock', 00H
	ORG $+2
$SG169542 DB	'E', 00H
	ORG $+2
$SG169532 DB	'&cckd->cckdiolock %1d:%04X', 00H
	ORG $+1
$SG169589 DB	'W', 00H
	ORG $+2
$SG169533 DB	'cckddasd64.c:59', 00H
$SG169534 DB	'&cckd->filelock', 00H
$SG169535 DB	'&cckd->filelock %1d:%04X', 00H
	ORG $+3
$SG169595 DB	'newbuf', 00H
	ORG $+1
$SG169600 DB	'l1', 00H
	ORG $+1
$SG169536 DB	'cckddasd64.c:63', 00H
$SG169537 DB	'cckddasd64.c:66', 00H
$SG169548 DB	'cckddasd64.c:102', 00H
	ORG $+7
$SG169543 DB	'HHC00300%s %1d:%04X CCKD file: error initializing shadow'
	DB	' files', 0aH, 00H
$SG169544 DB	'cckd64_dasd_init_handler', 00H
	ORG $+3
$SG169607 DB	'ext', 00H
$SG169545 DB	'cckddasd64.c', 00H
	ORG $+3
$SG169577 DB	'cckddasd64.c:138', 00H
	ORG $+3
$SG169671 DB	'open()', 00H
	ORG $+1
$SG169672 DB	'E', 00H
	ORG $+2
$SG169578 DB	'cckddasd64.c:142', 00H
	ORG $+3
$SG169692 DB	'E', 00H
	ORG $+2
$SG169579 DB	'cckddasd64.c:144', 00H
	ORG $+3
$SG169716 DB	'E', 00H
	ORG $+2
$SG169580 DB	'cckddasd64.c:146', 00H
	ORG $+3
$SG169723 DB	'read()', 00H
	ORG $+1
$SG169724 DB	'E', 00H
	ORG $+2
$SG169581 DB	'cckddasd64.c:149', 00H
	ORG $+3
$SG169729 DB	'read()', 00H
	ORG $+1
$SG169730 DB	'E', 00H
	ORG $+2
$SG169583 DB	'cckddasd64.c:157', 00H
	ORG $+3
$SG169753 DB	'E', 00H
	ORG $+2
$SG169587 DB	'closing device while wrpending=%d cckdioact=%d', 00H
	ORG $+1
$SG169588 DB	'cckd64_dasd_close_device', 00H
	ORG $+7
$SG169592 DB	'cckddasd64.c', 00H
	ORG $+3
$SG169593 DB	'cckddasd64.c:177', 00H
	ORG $+7
$SG169590 DB	'HHC00381%s %1d:%04X CCKD file %s: closing device while w'
	DB	'rpending=%d cckdioact=%d', 0aH, 00H
	ORG $+2
$SG169761 DB	'E', 00H
	ORG $+2
$SG169591 DB	'cckd64_dasd_close_device', 00H
	ORG $+3
$SG169767 DB	'E', 00H
	ORG $+2
$SG169596 DB	'cckddasd64.c:185', 00H
	ORG $+3
$SG169783 DB	'E', 00H
	ORG $+2
$SG169599 DB	'cckddasd64.c:203', 00H
	ORG $+3
$SG170003 DB	'write', 00H
	ORG $+2
$SG170059 DB	'I', 00H
	ORG $+2
$SG169604 DB	'cckddasd64.c:228', 00H
	ORG $+3
$SG170069 DB	'E', 00H
	ORG $+2
$SG169605 DB	'cckddasd64.c:231', 00H
	ORG $+3
$SG170180 DB	'I', 00H
	ORG $+2
$SG169606 DB	'cckddasd64.c:232', 00H
	ORG $+3
$SG170190 DB	'E', 00H
	ORG $+2
$SG169623 DB	'start i/o file[%d] bufcur %d cache[%d]', 00H
	ORG $+1
$SG169624 DB	'cckd64_dasd_start', 00H
	ORG $+2
$SG170251 DB	'E', 00H
	ORG $+2
$SG169625 DB	'cckddasd64.c:278', 00H
	ORG $+3
$SG170315 DB	'ifb', 00H
$SG169628 DB	'start i/o waiting for merge%s', 00H
	ORG $+2
$SG169629 DB	'cckd64_dasd_start', 00H
	ORG $+2
$SG170436 DB	'l1', 00H
	ORG $+1
$SG169630 DB	'cckddasd64.c:285', 00H
	ORG $+3
$SG170438 DB	'l1', 00H
	ORG $+1
$SG169636 DB	'cckddasd64.c:310', 00H
	ORG $+3
$SG170507 DB	'E', 00H
	ORG $+2
$SG169637 DB	'cckddasd64.c:318', 00H
	ORG $+3
$SG170550 DB	'ifb', 00H
$SG169644 DB	'end i/o bufcur %d cache[%d] waiters %d', 00H
	ORG $+1
$SG169645 DB	'cckd64_dasd_end', 00H
$SG169646 DB	'cckddasd64.c:351', 00H
	ORG $+3
$SG170552 DB	'ifb', 00H
$SG169652 DB	'cckddasd64.c:367', 00H
	ORG $+3
$SG170559 DB	'fsp', 00H
$SG169653 DB	'cckddasd64.c:369', 00H
	ORG $+7
$SG169673 DB	'HHC00301%s %1d:%04X CCKD file[%d] %s: error in function '
	DB	'%s: %s', 0aH, 00H
$SG169674 DB	'cckd64_open', 00H
$SG170563 DB	'fsp', 00H
$SG169675 DB	'cckddasd64.c', 00H
	ORG $+3
$SG169676 DB	'file[%d] fd[%d] open %s error flags %8.8x mode %8.8x', 00H
	ORG $+3
$SG169677 DB	'cckd64_open', 00H
$SG170611 DB	'fsp', 00H
$SG169678 DB	'file[%d] fd[%d] open %s, flags %8.8x mode %8.8x', 00H
$SG169679 DB	'cckd64_open', 00H
$SG170615 DB	'fsp', 00H
$SG169687 DB	'file[%d] fd[%d] close %s', 00H
	ORG $+3
$SG170618 DB	'ifb', 00H
$SG169688 DB	'cckd64_close', 00H
	ORG $+3
$SG169691 DB	'close()', 00H
$SG169693 DB	'HHC00301%s %1d:%04X CCKD file[%d] %s: error in function '
	DB	'%s: %s', 0aH, 00H
$SG169694 DB	'cckd64_close', 00H
	ORG $+3
$SG169695 DB	'cckddasd64.c', 00H
	ORG $+3
$SG169712 DB	'file[%d] fd[%d] read, off 0x%16.16llx len %d', 00H
	ORG $+3
$SG169713 DB	'cckd64_read', 00H
$SG170975 DB	'trk', 00H
$SG169715 DB	'lseek()', 00H
$SG169728 DB	'read incomplete: read %d, expected %d', 00H
	ORG $+2
$SG169717 DB	'HHC00302%s %1d:%04X CCKD file[%d] %s: error in function '
	DB	'%s at offset 0x%16.16llX: %s', 0aH, 00H
	ORG $+2
$SG169718 DB	'cckd64_read', 00H
$SG171037 DB	'E', 00H
	ORG $+2
$SG169719 DB	'cckddasd64.c', 00H
	ORG $+3
$SG169749 DB	'file[%d] fd[%d] write, off 0x%16.16llx len %d', 00H
	ORG $+2
$SG169752 DB	'lseek()', 00H
$SG169725 DB	'HHC00302%s %1d:%04X CCKD file[%d] %s: error in function '
	DB	'%s at offset 0x%16.16llX: %s', 0aH, 00H
	ORG $+2
$SG169726 DB	'cckd64_read', 00H
$SG171047 DB	'E', 00H
	ORG $+2
$SG169727 DB	'cckddasd64.c', 00H
	ORG $+3
$SG169760 DB	'write()', 00H
$SG169731 DB	'HHC00302%s %1d:%04X CCKD file[%d] %s: error in function '
	DB	'%s at offset 0x%16.16llX: %s', 0aH, 00H
	ORG $+2
$SG169732 DB	'cckd64_read', 00H
$SG171055 DB	'trk', 00H
$SG169733 DB	'cckddasd64.c', 00H
	ORG $+3
$SG169750 DB	'cckd64_write', 00H
	ORG $+3
$SG169765 DB	'write incomplete: write %d, expected %d', 00H
$SG169754 DB	'HHC00302%s %1d:%04X CCKD file[%d] %s: error in function '
	DB	'%s at offset 0x%16.16llX: %s', 0aH, 00H
	ORG $+2
$SG169755 DB	'cckd64_write', 00H
	ORG $+3
$SG169756 DB	'cckddasd64.c', 00H
	ORG $+3
$SG169766 DB	'write()', 00H
$SG169762 DB	'HHC00302%s %1d:%04X CCKD file[%d] %s: error in function '
	DB	'%s at offset 0x%16.16llX: %s', 0aH, 00H
	ORG $+2
$SG169763 DB	'cckd64_write', 00H
	ORG $+3
$SG169764 DB	'cckddasd64.c', 00H
	ORG $+3
$SG169780 DB	'cckd64_ftruncate', 00H
	ORG $+7
$SG169768 DB	'HHC00302%s %1d:%04X CCKD file[%d] %s: error in function '
	DB	'%s at offset 0x%16.16llX: %s', 0aH, 00H
	ORG $+2
$SG169769 DB	'cckd64_write', 00H
	ORG $+3
$SG169770 DB	'cckddasd64.c', 00H
	ORG $+3
$SG169779 DB	'file[%d] fd[%d] ftruncate, off 0x%16.16llx', 00H
	ORG $+1
$SG171056 DB	'blk', 00H
$SG169782 DB	'ftruncate()', 00H
$SG170002 DB	'read', 00H
	ORG $+7
$SG169784 DB	'HHC00302%s %1d:%04X CCKD file[%d] %s: error in function '
	DB	'%s at offset 0x%16.16llX: %s', 0aH, 00H
	ORG $+2
$SG169785 DB	'cckd64_ftruncate', 00H
	ORG $+3
$SG170976 DB	'blkgrp', 00H
	ORG $+1
$SG171057 DB	'trk', 00H
$SG169786 DB	'cckddasd64.c', 00H
	ORG $+3
$SG169808 DB	'read  trk   %d uncompressed len %d', 00H
	ORG $+1
$SG171058 DB	'blk', 00H
$SG169809 DB	'cckd64_read_track', 00H
	ORG $+2
$SG171059 DB	'E', 00H
	ORG $+2
$SG169811 DB	'asynchronous', 00H
	ORG $+3
$SG169812 DB	'read  trk   %d (%s)', 00H
$SG171063 DB	'trk', 00H
$SG169813 DB	'cckd64_read_track', 00H
	ORG $+2
$SG171064 DB	'blk', 00H
$SG169839 DB	'updt  trk   %d offset %lld length %d', 00H
	ORG $+3
$SG169840 DB	'cckd64_update_track', 00H
$SG171065 DB	'trk', 00H
$SG169862 DB	'cckddasd64.c:736', 00H
	ORG $+3
$SG171066 DB	'blk', 00H
$SG169866 DB	'cckddasd64.c:753', 00H
	ORG $+3
$SG171067 DB	'E', 00H
	ORG $+2
$SG169896 DB	'read bkgrp  %d uncompressed len %d', 00H
	ORG $+1
$SG171111 DB	'trk', 00H
$SG169897 DB	'cfba64_read_block', 00H
	ORG $+2
$SG171112 DB	'blkgrp', 00H
	ORG $+1
$SG171173 DB	'E', 00H
	ORG $+2
$SG169898 DB	'asynchronous', 00H
	ORG $+3
$SG169899 DB	'read blkgrp  %d (%s)', 00H
	ORG $+3
$SG169900 DB	'cfba64_read_block', 00H
	ORG $+2
$SG171182 DB	'E', 00H
	ORG $+2
$SG169948 DB	'cckddasd64.c:907', 00H
	ORG $+3
$SG171193 DB	'E', 00H
	ORG $+2
$SG169952 DB	'cckddasd64.c:924', 00H
	ORG $+3
$SG171220 DB	'(none)', 00H
	ORG $+1
$SG171224 DB	'E', 00H
	ORG $+2
$SG169989 DB	'%d rdtrk     %d', 00H
$SG169990 DB	'cckd64_read_trk', 00H
$SG169992 DB	'cckddasd64.c:959', 00H
	ORG $+3
$SG171229 DB	'E', 00H
	ORG $+2
$SG169999 DB	'cckddasd64.c:995', 00H
	ORG $+3
$SG171237 DB	'l1', 00H
	ORG $+1
$SG170000 DB	'%d rdtrk[%d] %d cache hit buf %p:%2.2x%2.2x%2.2x%2.2x%2.'
	DB	'2x', 00H
	ORG $+1
$SG171239 DB	'l1', 00H
	ORG $+1
$SG170001 DB	'cckd64_read_trk', 00H
$SG170004 DB	'%d rdtrk[%d] %d waiting for %s', 00H
	ORG $+1
$SG170005 DB	'cckd64_read_trk', 00H
$SG170006 DB	'cckddasd64.c:1016', 00H
	ORG $+2
$SG171259 DB	'I', 00H
	ORG $+2
$SG170007 DB	'%d rdtrk[%d] %d io wait complete', 00H
	ORG $+3
$SG171263 DB	'I', 00H
	ORG $+2
$SG170008 DB	'cckd64_read_trk', 00H
$SG170009 DB	'cckddasd64.c:1023', 00H
	ORG $+2
$SG171268 DB	'E', 00H
	ORG $+2
$SG170011 DB	'%d rdtrk[%d] %d cache miss', 00H
	ORG $+1
$SG171275 DB	'W', 00H
	ORG $+2
$SG170012 DB	'cckd64_read_trk', 00H
$SG170014 DB	'%d rdtrk[%d] %d no available cache entry', 00H
	ORG $+3
$SG171284 DB	'(null)', 00H
	ORG $+1
$SG171285 DB	'E', 00H
	ORG $+2
$SG170015 DB	'cckd64_read_trk', 00H
$SG170017 DB	'cckddasd64.c:1044', 00H
	ORG $+2
$SG171290 DB	'I', 00H
	ORG $+2
$SG170019 DB	'cckddasd64.c:1052', 00H
	ORG $+2
$SG171386 DB	'I', 00H
	ORG $+2
$SG170021 DB	'%d rdtrk[%d] %d dropping %4.4X:%d from cache', 00H
	ORG $+3
$SG170022 DB	'cckd64_read_trk', 00H
$SG170025 DB	'%d rdtrk[%d] %d buf %p len %d', 00H
	ORG $+2
$SG170026 DB	'cckd64_read_trk', 00H
$SG170028 DB	'cckddasd64.c:1089', 00H
	ORG $+2
$SG171390 DB	'I', 00H
	ORG $+2
$SG170031 DB	'cckddasd64.c:1099', 00H
	ORG $+2
$SG171396 DB	'W', 00H
	ORG $+2
$SG170032 DB	'cckddasd64.c:1103', 00H
	ORG $+2
$SG171409 DB	'W', 00H
	ORG $+2
$SG170033 DB	'cckddasd64.c:1107', 00H
	ORG $+2
$SG171419 DB	'E', 00H
	ORG $+2
$SG170035 DB	'%d rdtrk[%d] %d signalling read complete', 00H
	ORG $+3
$SG171400 DB	'force', 00H
	ORG $+2
$SG171426 DB	'E', 00H
	ORG $+2
$SG170036 DB	'cckd64_read_trk', 00H
$SG170037 DB	'cckddasd64.c:1118', 00H
	ORG $+2
$SG171439 DB	'E', 00H
	ORG $+2
$SG170038 DB	'cckddasd64.c:1121', 00H
	ORG $+2
$SG171446 DB	'E', 00H
	ORG $+2
$SG170040 DB	'%d rdtrk[%d] %d complete buf %p:%2.2x%2.2x%2.2x%2.2x%2.2'
	DB	'x', 00H
	ORG $+2
$SG171477 DB	'l1', 00H
	ORG $+1
$SG170041 DB	'cckd64_read_trk', 00H
$SG170050 DB	'cckddasd64.c:1155', 00H
	ORG $+2
$SG171479 DB	'merged', 00H
	ORG $+1
$SG171482 DB	'I', 00H
	ORG $+2
$SG170054 DB	'cckddasd64.c:1164', 00H
	ORG $+2
$SG171496 DB	'E', 00H
	ORG $+2
$SG170058 DB	'cckd_writer()', 00H
	ORG $+2
$SG170060 DB	'HHC00107%s Starting thread %s, active=%d, started=%d, ma'
	DB	'x=%d', 0aH, 00H
	ORG $+2
$SG170061 DB	'cckd64_flush_cache', 00H
	ORG $+1
$SG171500 DB	'E', 00H
	ORG $+2
$SG170062 DB	'cckddasd64.c', 00H
	ORG $+3
$SG170063 DB	'cckddasd64.c:1176', 00H
	ORG $+2
$SG171523 DB	'I', 00H
	ORG $+2
$SG170064 DB	'cckddasd64.c:1178', 00H
	ORG $+2
$SG171527 DB	'I', 00H
	ORG $+2
$SG170065 DB	'cckd_writer', 00H
$SG171533 DB	'W', 00H
	ORG $+2
$SG170066 DB	'cckddasd64.c:1180', 00H
	ORG $+2
$SG171540 DB	'W', 00H
	ORG $+2
$SG170068 DB	'cckd_writer()', 00H
	ORG $+2
$SG170071 DB	'cckd64_flush_cache', 00H
	ORG $+5
$SG170070 DB	'HHC00106%s Error in function create_thread() for %s %d o'
	DB	'f %d: %s', 0aH, 00H
	ORG $+2
$SG171572 DB	'I', 00H
	ORG $+2
$SG170072 DB	'cckddasd64.c', 00H
	ORG $+3
$SG170073 DB	'cckddasd64.c:1193', 00H
	ORG $+2
$SG171576 DB	'I', 00H
	ORG $+2
$SG170096 DB	'flush file[%d] cache[%d] %4.4X trk %d', 00H
	ORG $+2
$SG170097 DB	'cckd64_flush_cache_scan', 00H
$SG170105 DB	'cckddasd64.c:1227', 00H
	ORG $+2
$SG171582 DB	'W', 00H
	ORG $+2
$SG170107 DB	'cckddasd64.c:1230', 00H
	ORG $+2
$SG171589 DB	'W', 00H
	ORG $+2
$SG170133 DB	'purge cache[%d] %4.4X trk %d purged', 00H
$SG171631 DB	'  ', 00H
	ORG $+1
$SG170134 DB	'cckd64_purge_cache_scan', 00H
$SG170162 DB	'%d wrtrk[%d] %d len %d buf %p:%2.2x%2.2x%2.2x%2.2x%2.2x', 00H
$SG170163 DB	'cckd64_writer_write', 00H
$SG171633 DB	'ro', 00H
	ORG $+1
$SG170168 DB	'%d wrtrk[%d] %d comp %s parm %d', 00H
$SG170169 DB	'cckd64_writer_write', 00H
$SG171635 DB	'rd', 00H
	ORG $+1
$SG170170 DB	'%d wrtrk[%d] %d compressed length %d', 00H
	ORG $+3
$SG170171 DB	'cckd64_writer_write', 00H
$SG171637 DB	'rw', 00H
	ORG $+1
$SG170172 DB	'cckddasd64.c:1351', 00H
	ORG $+2
$SG171640 DB	'I', 00H
	ORG $+2
$SG170174 DB	'cckddasd64.c:1363', 00H
	ORG $+2
$SG171644 DB	'I', 00H
	ORG $+2
$SG170175 DB	'cckddasd64.c:1366', 00H
	ORG $+2
$SG171650 DB	'W', 00H
	ORG $+2
$SG170179 DB	'cckd_gcol()', 00H
$SG171656 DB	'E', 00H
	ORG $+2
$SG170181 DB	'HHC00107%s Starting thread %s, active=%d, started=%d, ma'
	DB	'x=%d', 0aH, 00H
	ORG $+2
$SG170182 DB	'cckd64_writer_write', 00H
$SG171662 DB	'I', 00H
	ORG $+2
$SG170183 DB	'cckddasd64.c', 00H
	ORG $+3
$SG170184 DB	'cckddasd64.c:1380', 00H
	ORG $+2
$SG171668 DB	'I', 00H
	ORG $+2
$SG170185 DB	'cckddasd64.c:1382', 00H
	ORG $+2
$SG171672 DB	'I', 00H
	ORG $+2
$SG170186 DB	'cckd_gcol', 00H
	ORG $+2
$SG171676 DB	'64', 00H
	ORG $+1
$SG170187 DB	'cckddasd64.c:1384', 00H
	ORG $+2
$SG171677 DB	'32', 00H
	ORG $+1
$SG170189 DB	'cckd_gcol()', 00H
	ORG $+4
$SG170191 DB	'HHC00106%s Error in function create_thread() for %s %d o'
	DB	'f %d: %s', 0aH, 00H
	ORG $+2
$SG171678 DB	'I', 00H
	ORG $+2
$SG170192 DB	'cckd64_writer_write', 00H
$SG171684 DB	'I', 00H
	ORG $+2
$SG170193 DB	'cckddasd64.c', 00H
	ORG $+3
$SG170194 DB	'cckddasd64.c:1396', 00H
	ORG $+2
$SG171688 DB	'I', 00H
	ORG $+2
$SG170195 DB	'cckddasd64.c:1398', 00H
	ORG $+2
$SG171692 DB	'64', 00H
	ORG $+1
$SG170198 DB	'writer[%d] cache[%2.2d] %d signalling write complete', 00H
	ORG $+3
$SG170199 DB	'cckd64_writer_write', 00H
$SG171693 DB	'32', 00H
	ORG $+1
$SG170200 DB	'cckddasd64.c:1418', 00H
	ORG $+2
$SG171694 DB	'I', 00H
	ORG $+2
$SG170201 DB	'cckddasd64.c:1421', 00H
	ORG $+2
$SG171699 DB	'I', 00H
	ORG $+2
$SG170202 DB	'%d wrtrk[%2.2d] %d complete flags:%8.8x', 00H
$SG170203 DB	'cckd64_writer_write', 00H
$SG171703 DB	'64', 00H
	ORG $+1
$SG170245 DB	'get_space len %d largest %lld flags 0x%2.2x', 00H
$SG171704 DB	'32', 00H
	ORG $+1
$SG170246 DB	'cckd64_get_space', 00H
	ORG $+7
$SG170253 DB	'cckd64_get_space', 00H
	ORG $+7
$SG170252 DB	'HHC00304%s %1d:%04X CCKD file[%d] %s: get space error, s'
	DB	'ize exceeds %lldM', 0aH, 00H
	ORG $+1
$SG171705 DB	'I', 00H
	ORG $+2
$SG170254 DB	'cckddasd64.c', 00H
	ORG $+3
$SG170255 DB	'get_space atend 0x%16.16llx len %d', 00H
	ORG $+1
$SG171729 DB	'I', 00H
	ORG $+2
$SG170256 DB	'cckd64_get_space', 00H
	ORG $+3
$SG171402 DB	'merge', 00H
	ORG $+2
$SG171739 DB	'E', 00H
	ORG $+2
$SG170272 DB	'get_space found 0x%16.16llx len %d size %d', 00H
	ORG $+1
$SG171755 DB	'64', 00H
	ORG $+1
$SG170273 DB	'cckd64_get_space', 00H
	ORG $+3
$SG171756 DB	'W', 00H
	ORG $+2
$SG170307 DB	'rel_space offset 0x%16.16llx len %d size %d', 00H
$SG171761 DB	'64', 00H
	ORG $+1
$SG170308 DB	'cckd64_rel_space', 00H
	ORG $+3
$SG171762 DB	'W', 00H
	ORG $+2
$SG170340 DB	'flush_space nbr %lld', 00H
	ORG $+3
$SG170341 DB	'cckd64_flush_space', 00H
	ORG $+1
$SG171767 DB	'64', 00H
	ORG $+1
$SG170350 DB	'rel_flush_space nbr %lld (after merge)', 00H
	ORG $+1
$SG170351 DB	'cckd64_flush_space', 00H
	ORG $+1
$SG171768 DB	'I', 00H
	ORG $+2
$SG170353 DB	'file[%d] rel_flush_space atend 0x%16.16llx len %lld', 00H
$SG171866 DB	'E', 00H
	ORG $+2
$SG170354 DB	'cckd64_flush_space', 00H
	ORG $+1
$SG171951 DB	'64', 00H
	ORG $+1
$SG170371 DB	'file[%d] read_chdr', 00H
	ORG $+1
$SG171952 DB	'I', 00H
	ORG $+2
$SG170372 DB	'cckd64_read_chdr', 00H
	ORG $+3
$SG171813 DB	'newbuf', 00H
	ORG $+1
$SG171997 DB	'64', 00H
	ORG $+1
$SG170391 DB	'file[%d] write_chdr', 00H
$SG171998 DB	'I', 00H
	ORG $+2
$SG170392 DB	'cckd64_write_chdr', 00H
	ORG $+2
$SG172026 DB	'64', 00H
	ORG $+1
$SG170434 DB	'file[%d] read_l1 offset 0x%llx', 00H
	ORG $+1
$SG170435 DB	'cckd64_read_l1', 00H
	ORG $+1
$SG170464 DB	'file[%d] write_l1 0x%llx len %d', 00H
$SG170465 DB	'cckd64_write_l1', 00H
$SG170484 DB	'file[%d] write_l1ent[%d] , 0x%16.16llx', 00H
	ORG $+1
$SG170485 DB	'cckd64_write_l1ent', 00H
	ORG $+1
$SG172027 DB	'I', 00H
	ORG $+2
$SG170497 DB	'file[%d] read_init', 00H
	ORG $+1
$SG172089 DB	'E', 00H
	ORG $+2
$SG170498 DB	'cckd64_read_init', 00H
	ORG $+3
$SG172075 DB	'newbuf', 00H
	ORG $+1
$SG172094 DB	'E', 00H
	ORG $+2
$SG170508 DB	'HHC00305%s %1d:%04X CCKD file[%d] %s: device header id e'
	DB	'rror', 0aH, 00H
	ORG $+2
$SG170509 DB	'cckd64_read_init', 00H
	ORG $+7
$SG170510 DB	'cckddasd64.c', 00H
	ORG $+3
$SG170548 DB	'file[%d] read_fsp number %lld', 00H
	ORG $+2
$SG170549 DB	'cckd64_read_fsp', 00H
$SG170557 DB	'FREE_BLK', 00H
	ORG $+7
$SG170602 DB	'file[%d] write_fsp number %lld', 00H
	ORG $+1
$SG170603 DB	'cckd64_write_fsp', 00H
	ORG $+7
$SG170614 DB	'FREE_BLK', 00H
	ORG $+7
$SG170657 DB	'file[%d] read_l2 %d active %d %d %d', 00H
	ORG $+4
$SG170658 DB	'cckd64_read_l2', 00H
	ORG $+1
$SG170662 DB	'l2[%d,%d] cache[%d] hit', 00H
$SG170663 DB	'cckd64_read_l2', 00H
	ORG $+1
$SG170664 DB	'l2[%d,%d] cache[%d] miss', 00H
	ORG $+7
$SG170665 DB	'cckd64_read_l2', 00H
	ORG $+1
$SG170671 DB	'l2[%d,%d] cache[%d] null fmt[%d]', 00H
	ORG $+7
$SG170672 DB	'cckd64_read_l2', 00H
	ORG $+1
$SG170675 DB	'l2[%d,%d] cache[%d] null 0xff', 00H
	ORG $+2
$SG170676 DB	'cckd64_read_l2', 00H
	ORG $+1
$SG170679 DB	'file[%d] cache[%d] l2[%d] read offset 0x%16.16llx', 00H
	ORG $+6
$SG170680 DB	'cckd64_read_l2', 00H
	ORG $+1
$SG170688 DB	'purge_l2%s', 00H
	ORG $+5
$SG170689 DB	'cckd64_purge_l2', 00H
$SG170715 DB	'purge l2cache[%d] %4.4X sfx %hd ix %d purged', 00H
	ORG $+3
$SG170716 DB	'cckd64_purge_l2_scan', 00H
	ORG $+3
$SG170762 DB	'file[%d] write_l2 %d', 00H
	ORG $+3
$SG170763 DB	'cckd64_write_l2', 00H
$SG170799 DB	'file[%d] l2[%d,%d] trk[%d] read_l2ent 0x%llx', 00H
	ORG $+3
$SG170800 DB	'cckd64_read_l2ent', 00H
	ORG $+6
$SG170804 DB	'file[%d] l2[%d,%d] trk[%d] read_l2ent 0x%llx %hd %hd', 00H
	ORG $+3
$SG170805 DB	'cckd64_read_l2ent', 00H
	ORG $+6
$SG170832 DB	'file[%d] l2[%d,%d] trk[%d] write_l2ent 0x%llx %hd %hd', 00H
	ORG $+2
$SG170833 DB	'cckd64_write_l2ent', 00H
	ORG $+5
$SG170851 DB	'trk[%d] read_trkimg', 00H
	ORG $+4
$SG170852 DB	'cckd64_read_trkimg', 00H
	ORG $+5
$SG170891 DB	'file[%d] trk[%d] write_trkimg len %d buf %p:%2.2x%2.2x%2'
	DB	'.2x%2.2x%2.2x', 00H
	ORG $+2
$SG170892 DB	'cckd64_write_trkimg', 00H
	ORG $+4
$SG170895 DB	'file[%d] trk[%d] write_trkimg oldl2 0x%llx %hd %hd', 00H
	ORG $+5
$SG170896 DB	'cckd64_write_trkimg', 00H
	ORG $+4
$SG170912 DB	'file[%d] harden', 00H
$SG170913 DB	'cckd64_harden', 00H
	ORG $+2
$SG170977 DB	'null_trk %s %d format %d size %d', 00H
	ORG $+7
$SG170978 DB	'cckd64_null_trk', 00H
$SG171221 DB	'file[%d] sf_new %s', 00H
	ORG $+5
$SG171038 DB	'HHC00307%s %1d:%04X CCKD file[%d] %s: invalid byte 0 trk'
	DB	' %d, buf %2.2x%2.2x%2.2x%2.2x%2.2x', 0aH, 00H
	ORG $+4
$SG171039 DB	'cckd64_cchh', 00H
	ORG $+4
$SG171040 DB	'cckddasd64.c', 00H
	ORG $+3
$SG171048 DB	'HHC00308%s %1d:%04X CCKD file[%d] %s: invalid byte 0 blk'
	DB	'grp %d, buf %2.2x%2.2x%2.2x%2.2x%2.2x', 0aH, 00H
	ORG $+1
$SG171049 DB	'cckd64_cchh', 00H
	ORG $+4
$SG171050 DB	'cckddasd64.c', 00H
	ORG $+3
$SG171060 DB	'HHC00309%s %1d:%04X CCKD file[%d] %s: invalid %s hdr %s '
	DB	'%d: %s compression unsupported', 0aH, 00H
$SG171061 DB	'cckd64_cchh', 00H
	ORG $+4
$SG171062 DB	'cckddasd64.c', 00H
	ORG $+3
$SG171114 DB	'cckd64_validate', 00H
$SG171225 DB	'HHC00313%s %1d:%04X CCKD file[%d]: no shadow file name', 0aH
	DB	00H
$SG171068 DB	'HHC00310%s %1d:%04X CCKD file[%d] %s: invalid %s hdr %s '
	DB	'%d buf %p:%2.2x%2.2x%2.2x%2.2x%2.2x', 0aH, 00H
	ORG $+3
$SG171069 DB	'cckd64_cchh', 00H
	ORG $+4
$SG171070 DB	'cckddasd64.c', 00H
	ORG $+3
$SG171113 DB	'validating %s %d len %d %2.2x%2.2x%2.2x%2.2x%2.2x %2.2x%'
	DB	'2.2x%2.2x%2.2x%2.2x%2.2x%2.2x%2.2x', 00H
	ORG $+5
$SG171119 DB	'validation failed: bad length%s', 00H
$SG171120 DB	'cckd64_validate', 00H
$SG171124 DB	'validation failed: bad r0%s', 00H
	ORG $+4
$SG171125 DB	'cckd64_validate', 00H
$SG171129 DB	'validation failed: bad r%d %2.2x%2.2x%2.2x%2.2x%2.2x%2.2'
	DB	'x%2.2x%2.2x', 00H
	ORG $+4
$SG171130 DB	'cckd64_validate', 00H
$SG171135 DB	'validation failed: no eot%s', 00H
	ORG $+4
$SG171136 DB	'cckd64_validate', 00H
$SG171260 DB	'HHC00315%s %1d:%04X CCKD file: adding shadow files...', 0aH
	DB	00H
	ORG $+1
$SG171174 DB	'HHC00311%s %1d:%04X CCKD file[%d] %s: shadow file name c'
	DB	'ollides with %1d:%04X file[%d] %s', 0aH, 00H
	ORG $+5
$SG171175 DB	'cckd64_sf_init', 00H
	ORG $+1
$SG171176 DB	'cckddasd64.c', 00H
	ORG $+3
$SG171183 DB	'HHC00351%s %1d:%04X CCKD file[%d] %s: cckd/64 format dif'
	DB	'fers from base', 0aH, 00H
$SG171184 DB	'cckd64_sf_init', 00H
	ORG $+1
$SG171185 DB	'cckddasd64.c', 00H
	ORG $+3
$SG171195 DB	'cckd64_sf_init', 00H
	ORG $+1
$SG171264 DB	'HHC00316%s CCKD file number of devices processed: %d', 0aH
	DB	00H
	ORG $+2
$SG171194 DB	'HHC00312%s %1d:%04X CCKD file[%d] %s: error re-opening r'
	DB	'eadonly: %s', 0aH, 00H
	ORG $+3
$SG171196 DB	'cckddasd64.c', 00H
	ORG $+3
$SG171222 DB	'cckd64_sf_new', 00H
	ORG $+2
$SG171226 DB	'cckd64_sf_new', 00H
	ORG $+2
$SG171227 DB	'cckddasd64.c', 00H
	ORG $+3
$SG171231 DB	'cckd64_sf_new', 00H
	ORG $+2
$SG171272 DB	'cckddasd64.c:3384', 00H
	ORG $+6
$SG171230 DB	'HHC00314%s %1d:%04X CCKD file[%d] %s:  max shadow files '
	DB	'exceeded', 0aH, 00H
	ORG $+6
$SG171232 DB	'cckddasd64.c', 00H
	ORG $+3
$SG171261 DB	'cckd64_sf_add', 00H
	ORG $+2
$SG171262 DB	'cckddasd64.c', 00H
	ORG $+3
$SG171265 DB	'cckd64_sf_add', 00H
	ORG $+2
$SG171266 DB	'cckddasd64.c', 00H
	ORG $+3
$SG171269 DB	'HHC00317%s %1d:%04X CCKD file: device is not a cckd devi'
	DB	'ce', 0aH, 00H
	ORG $+4
$SG171270 DB	'cckd64_sf_add', 00H
	ORG $+2
$SG171271 DB	'cckddasd64.c', 00H
	ORG $+3
$SG171274 DB	'cckddasd64.c:3387', 00H
	ORG $+6
$SG171276 DB	'HHC00318%s %1d:%04X CCKD file[%d] %s: error adding shado'
	DB	'w file, sf command busy on device', 0aH, 00H
	ORG $+5
$SG171277 DB	'cckd64_sf_add', 00H
	ORG $+2
$SG171278 DB	'cckddasd64.c', 00H
	ORG $+3
$SG171280 DB	'cckddasd64.c:3396', 00H
	ORG $+6
$SG171281 DB	'cckddasd64.c:3402', 00H
	ORG $+6
$SG171282 DB	'cckddasd64.c:3405', 00H
	ORG $+6
$SG171287 DB	'cckd64_sf_add', 00H
	ORG $+2
$SG171294 DB	'cckddasd64.c:3428', 00H
	ORG $+6
$SG171286 DB	'HHC00319%s %1d:%04X CCKD file[%d] %s: error adding shado'
	DB	'w file', 0aH, 00H
$SG171288 DB	'cckddasd64.c', 00H
	ORG $+3
$SG171291 DB	'HHC00320%s %1d:%04X CCKD file[%d] %s: shadow file succes'
	DB	'fully added', 0aH, 00H
	ORG $+3
$SG171292 DB	'cckd64_sf_add', 00H
	ORG $+2
$SG171293 DB	'cckddasd64.c', 00H
	ORG $+3
$SG171295 DB	'cckddasd64.c:3430', 00H
	ORG $+6
$SG171297 DB	'cckddasd64.c:3433', 00H
	ORG $+6
$SG171298 DB	'cckddasd64.c:3434', 00H
	ORG $+6
$SG171387 DB	'HHC00321%s %1d:%04X CCKD file: merging shadow files...', 0aH
	DB	00H
$SG171388 DB	'cckd64_sf_remove', 00H
	ORG $+7
$SG171389 DB	'cckddasd64.c', 00H
	ORG $+3
$SG171391 DB	'HHC00316%s CCKD file number of devices processed: %d', 0aH
	DB	00H
	ORG $+2
$SG171392 DB	'cckd64_sf_remove', 00H
	ORG $+7
$SG171393 DB	'cckddasd64.c', 00H
	ORG $+3
$SG171397 DB	'HHC00317%s %1d:%04X CCKD file: device is not a cckd devi'
	DB	'ce', 0aH, 00H
	ORG $+4
$SG171398 DB	'cckd64_sf_remove', 00H
	ORG $+7
$SG171399 DB	'cckddasd64.c', 00H
	ORG $+3
$SG171403 DB	'nomerge', 00H
$SG171404 DB	'merge starting: %s %s', 00H
	ORG $+2
$SG171405 DB	'cckd64_sf_remove', 00H
	ORG $+7
$SG171406 DB	'cckddasd64.c:3506', 00H
	ORG $+6
$SG171408 DB	'cckddasd64.c:3510', 00H
	ORG $+6
$SG171410 DB	'HHC00322%s %1d:%04X CCKD file[%d] %s: error merging shad'
	DB	'ow file, sf command busy on device', 0aH, 00H
	ORG $+4
$SG171411 DB	'cckd64_sf_remove', 00H
	ORG $+7
$SG171412 DB	'cckddasd64.c', 00H
	ORG $+3
$SG171414 DB	'cckddasd64.c:3520', 00H
	ORG $+6
$SG171415 DB	'cckddasd64.c:3528', 00H
	ORG $+6
$SG171416 DB	'cckddasd64.c:3530', 00H
	ORG $+6
$SG171418 DB	'cckddasd64.c:3534', 00H
	ORG $+6
$SG171420 DB	'HHC00323%s %1d:%04X CCKD file[%d] %s: cannot remove base'
	DB	' file', 0aH, 00H
	ORG $+1
$SG171421 DB	'cckd64_sf_remove', 00H
	ORG $+7
$SG171422 DB	'cckddasd64.c', 00H
	ORG $+3
$SG171425 DB	'not hardened', 00H
	ORG $+3
$SG171427 DB	'HHC00324%s %1d:%04X CCKD file[%d] %s: shadow file not me'
	DB	'rged: file[%d] %s%s', 0aH, 00H
	ORG $+3
$SG171428 DB	'cckd64_sf_remove', 00H
	ORG $+7
$SG171429 DB	'cckddasd64.c', 00H
	ORG $+3
$SG171436 DB	', try ''force''', 00H
	ORG $+2
$SG171438 DB	'cannot be opened read-write', 00H
	ORG $+4
$SG171441 DB	'cckd64_sf_remove', 00H
	ORG $+7
$SG171440 DB	'HHC00324%s %1d:%04X CCKD file[%d] %s: shadow file not me'
	DB	'rged: file[%d] %s%s', 0aH, 00H
	ORG $+3
$SG171442 DB	'cckddasd64.c', 00H
	ORG $+3
$SG171445 DB	'check failed', 00H
	ORG $+3
$SG171447 DB	'HHC00324%s %1d:%04X CCKD file[%d] %s: shadow file not me'
	DB	'rged: file[%d] %s%s', 0aH, 00H
	ORG $+3
$SG171448 DB	'cckd64_sf_remove', 00H
	ORG $+7
$SG171449 DB	'cckddasd64.c', 00H
	ORG $+3
$SG171451 DB	'merging to file[%d]', 00H
	ORG $+4
$SG171452 DB	'cckd64_sf_remove', 00H
	ORG $+7
$SG171480 DB	're-added', 00H
	ORG $+7
$SG171481 DB	'removed', 00H
$SG171483 DB	'HHC00325%s %1d:%04X CCKD file[%d] %s: shadow file succes'
	DB	'sfully %s', 0aH, 00H
	ORG $+5
$SG171484 DB	'cckd64_sf_remove', 00H
	ORG $+7
$SG171485 DB	'cckddasd64.c', 00H
	ORG $+3
$SG171486 DB	'cckddasd64.c:3743', 00H
	ORG $+6
$SG171487 DB	'cckddasd64.c:3745', 00H
	ORG $+6
$SG171489 DB	'cckddasd64.c:3752', 00H
	ORG $+6
$SG171491 DB	'merge complete%s', 00H
	ORG $+7
$SG171492 DB	'cckd64_sf_remove', 00H
	ORG $+7
$SG171493 DB	'cckddasd64.c:3755', 00H
	ORG $+6
$SG171497 DB	'HHC00326%s %1d:%04X CCKD file[%d] %s: shadow file not me'
	DB	'rged, error during merge', 0aH, 00H
	ORG $+6
$SG171498 DB	'cckd64_sf_remove', 00H
	ORG $+7
$SG171499 DB	'cckddasd64.c', 00H
	ORG $+3
$SG171501 DB	'HHC00327%s %1d:%04X CCKD file[%d] %s: shadow file not me'
	DB	'rged, error processing trk(%d)', 0aH, 00H
$SG171502 DB	'cckd64_sf_remove', 00H
	ORG $+7
$SG171503 DB	'cckddasd64.c', 00H
	ORG $+3
$SG171524 DB	'HHC00328%s %1d:%04X CCKD file: compressing shadow files.'
	DB	'..', 0aH, 00H
	ORG $+4
$SG171525 DB	'cckd64_sf_comp', 00H
	ORG $+1
$SG171526 DB	'cckddasd64.c', 00H
	ORG $+3
$SG171528 DB	'HHC00316%s CCKD file number of devices processed: %d', 0aH
	DB	00H
	ORG $+2
$SG171529 DB	'cckd64_sf_comp', 00H
	ORG $+1
$SG171530 DB	'cckddasd64.c', 00H
	ORG $+3
$SG171534 DB	'HHC00317%s %1d:%04X CCKD file: device is not a cckd devi'
	DB	'ce', 0aH, 00H
	ORG $+4
$SG171535 DB	'cckd64_sf_comp', 00H
	ORG $+1
$SG171536 DB	'cckddasd64.c', 00H
	ORG $+3
$SG171537 DB	'cckddasd64.c:3823', 00H
	ORG $+6
$SG171539 DB	'cckddasd64.c:3827', 00H
	ORG $+6
$SG171542 DB	'cckd64_sf_comp', 00H
	ORG $+1
$SG171545 DB	'cckddasd64.c:3837', 00H
	ORG $+6
$SG171541 DB	'HHC00329%s %1d:%04X CCKD file[%d] %s: error compressing '
	DB	'shadow file, sf command busy on device', 0aH, 00H
$SG171543 DB	'cckddasd64.c', 00H
	ORG $+3
$SG171546 DB	'cckddasd64.c:3845', 00H
	ORG $+6
$SG171547 DB	'cckddasd64.c:3848', 00H
	ORG $+6
$SG171548 DB	'cckddasd64.c:3859', 00H
	ORG $+6
$SG171549 DB	'cckddasd64.c:3861', 00H
	ORG $+6
$SG171551 DB	'cckddasd64.c:3865', 00H
	ORG $+6
$SG171552 DB	'cckddasd64.c:3867', 00H
	ORG $+6
$SG171573 DB	'HHC00330%s %1d:%04X CCKD file: checking level %d...', 0aH
	DB	00H
	ORG $+3
$SG171574 DB	'cckd64_sf_chk', 00H
	ORG $+2
$SG171575 DB	'cckddasd64.c', 00H
	ORG $+3
$SG171577 DB	'HHC00316%s CCKD file number of devices processed: %d', 0aH
	DB	00H
	ORG $+2
$SG171578 DB	'cckd64_sf_chk', 00H
	ORG $+2
$SG171579 DB	'cckddasd64.c', 00H
	ORG $+3
$SG171583 DB	'HHC00317%s %1d:%04X CCKD file: device is not a cckd devi'
	DB	'ce', 0aH, 00H
	ORG $+4
$SG171584 DB	'cckd64_sf_chk', 00H
	ORG $+2
$SG171585 DB	'cckddasd64.c', 00H
	ORG $+3
$SG171586 DB	'cckddasd64.c:3921', 00H
	ORG $+6
$SG171588 DB	'cckddasd64.c:3925', 00H
	ORG $+6
$SG171590 DB	'HHC00331%s %1d:%04X CCKD file[%d] %s: shadow file check '
	DB	'failed, sf command busy on device', 0aH, 00H
	ORG $+5
$SG171591 DB	'cckd64_sf_chk', 00H
	ORG $+2
$SG171592 DB	'cckddasd64.c', 00H
	ORG $+3
$SG171594 DB	'cckddasd64.c:3938', 00H
	ORG $+6
$SG171595 DB	'cckddasd64.c:3949', 00H
	ORG $+6
$SG171596 DB	'cckddasd64.c:3952', 00H
	ORG $+6
$SG171597 DB	'cckddasd64.c:3963', 00H
	ORG $+6
$SG171598 DB	'cckddasd64.c:3965', 00H
	ORG $+6
$SG171600 DB	'cckddasd64.c:3969', 00H
	ORG $+6
$SG171601 DB	'cckddasd64.c:3971', 00H
	ORG $+6
$SG171641 DB	'HHC00332%s %1d:%04X CCKD file: display cckd statistics', 0aH
	DB	00H
$SG171642 DB	'cckd64_sf_stats', 00H
$SG171643 DB	'cckddasd64.c', 00H
	ORG $+3
$SG171645 DB	'HHC00316%s CCKD file number of devices processed: %d', 0aH
	DB	00H
	ORG $+2
$SG171646 DB	'cckd64_sf_stats', 00H
$SG171647 DB	'cckddasd64.c', 00H
	ORG $+3
$SG171651 DB	'HHC00317%s %1d:%04X CCKD file: device is not a cckd devi'
	DB	'ce', 0aH, 00H
	ORG $+4
$SG171652 DB	'cckd64_sf_stats', 00H
$SG171653 DB	'cckddasd64.c', 00H
	ORG $+3
$SG171655 DB	'fstat()', 00H
$SG171657 DB	'HHC00075%s Error in function %s: %s', 0aH, 00H
	ORG $+3
$SG171658 DB	'cckd64_sf_stats', 00H
$SG171659 DB	'cckddasd64.c', 00H
	ORG $+3
$SG171664 DB	'cckd64_sf_stats', 00H
$SG171689 DB	'HHC00338%s %1d:%04X %s', 0aH, 00H
$SG171663 DB	'HHC00333%s %1d:%04X   32/64       size free  nbr st   re'
	DB	'ads  writes l2reads    hits switches', 0aH, 00H
	ORG $+2
$SG171665 DB	'cckddasd64.c', 00H
	ORG $+3
$SG171669 DB	'HHC00334%s %1d:%04X                                     '
	DB	'                 readaheads   misses', 0aH, 00H
	ORG $+2
$SG171670 DB	'cckd64_sf_stats', 00H
$SG171671 DB	'cckddasd64.c', 00H
	ORG $+3
$SG171673 DB	'HHC00335%s %1d:%04X ------------------------------------'
	DB	'------------------------------------', 0aH, 00H
	ORG $+2
$SG171674 DB	'cckd64_sf_stats', 00H
$SG171675 DB	'cckddasd64.c', 00H
	ORG $+3
$SG171679 DB	'HHC00336%s %1d:%04X [*] %s %11.11lld %3.3lld%% %4.4lld  '
	DB	'  %7.7d %7.7d %7.7d %7.7d  %7.7d', 0aH, 00H
	ORG $+6
$SG171680 DB	'cckd64_sf_stats', 00H
$SG171681 DB	'cckddasd64.c', 00H
	ORG $+3
$SG171685 DB	'HHC00337%s %1d:%04X                                     '
	DB	'                    %7.7d  %7.7d', 0aH, 00H
	ORG $+6
$SG171686 DB	'cckd64_sf_stats', 00H
$SG171687 DB	'cckddasd64.c', 00H
	ORG $+3
$SG171690 DB	'cckd64_sf_stats', 00H
$SG171691 DB	'cckddasd64.c', 00H
	ORG $+3
$SG171695 DB	'HHC00339%s %1d:%04X [0] %s %11.11lld %3.3lld%% %4.4lld %'
	DB	's %7.7d %7.7d %7.7d', 0aH, 00H
	ORG $+3
$SG171696 DB	'cckd64_sf_stats', 00H
$SG171697 DB	'cckddasd64.c', 00H
	ORG $+3
$SG171700 DB	'HHC00340%s %1d:%04X %s', 0aH, 00H
$SG171701 DB	'cckd64_sf_stats', 00H
$SG171702 DB	'cckddasd64.c', 00H
	ORG $+3
$SG171707 DB	'cckd64_sf_stats', 00H
$SG171720 DB	'cckddasd64.c:4127', 00H
	ORG $+6
$SG171706 DB	'HHC00341%s %1d:%04X [%d] %s %11.11lld %3.3lld%% %4.4lld '
	DB	'%s %7.7d %7.7d %7.7d', 0aH, 00H
	ORG $+2
$SG171708 DB	'cckddasd64.c', 00H
	ORG $+3
$SG171722 DB	'cckddasd64.c:4136', 00H
	ORG $+6
$SG171724 DB	'cckddasd64.c:4145', 00H
	ORG $+6
$SG171728 DB	'cckd_gcol() by command line', 00H
	ORG $+4
$SG171730 DB	'HHC00107%s Starting thread %s, active=%d, started=%d, ma'
	DB	'x=%d', 0aH, 00H
	ORG $+2
$SG171731 DB	'cckd64_gcstart', 00H
	ORG $+1
$SG171732 DB	'cckddasd64.c', 00H
	ORG $+3
$SG171733 DB	'cckddasd64.c:4158', 00H
	ORG $+6
$SG171734 DB	'cckddasd64.c:4160', 00H
	ORG $+6
$SG171735 DB	'cckd_gcol', 00H
	ORG $+6
$SG171736 DB	'cckddasd64.c:4162', 00H
	ORG $+6
$SG171738 DB	'cckd_gcol() by command line', 00H
	ORG $+4
$SG171741 DB	'cckd64_gcstart', 00H
	ORG $+1
$SG171743 DB	'cckddasd64.c:4174', 00H
	ORG $+6
$SG171740 DB	'HHC00106%s Error in function create_thread() for %s %d o'
	DB	'f %d: %s', 0aH, 00H
	ORG $+6
$SG171742 DB	'cckddasd64.c', 00H
	ORG $+3
$SG171757 DB	'HHC00387%s %1d:%04X CCKD%s image %s is SEVERELY fragment'
	DB	'ed!', 0aH, 00H
	ORG $+3
$SG171758 DB	'cckd64_gc_rpt_state', 00H
	ORG $+4
$SG171759 DB	'cckddasd64.c', 00H
	ORG $+3
$SG171763 DB	'HHC00388%s %1d:%04X CCKD%s image %s is moderately fragme'
	DB	'nted', 0aH, 00H
	ORG $+2
$SG171764 DB	'cckd64_gc_rpt_state', 00H
	ORG $+4
$SG171765 DB	'cckddasd64.c', 00H
	ORG $+3
$SG171769 DB	'HHC00389%s %1d:%04X CCKD%s image %s is slightly fragment'
	DB	'ed', 0aH, 00H
	ORG $+4
$SG171770 DB	'cckd64_gc_rpt_state', 00H
	ORG $+4
$SG171771 DB	'cckddasd64.c', 00H
	ORG $+3
$SG171806 DB	'cckddasd64.c:4285', 00H
	ORG $+6
$SG171809 DB	'cckddasd64.c:4290', 00H
	ORG $+6
$SG171811 DB	'cckddasd64.c:4297', 00H
	ORG $+6
$SG171816 DB	'cckddasd64.c:4311', 00H
	ORG $+6
$SG171823 DB	'cckddasd64.c:4328', 00H
	ORG $+6
$SG171824 DB	'cckddasd64.c:4334', 00H
	ORG $+6
$SG171825 DB	'cckddasd64.c:4342', 00H
	ORG $+6
$SG171826 DB	'cckddasd64.c:4347', 00H
	ORG $+6
$SG171828 DB	'cckddasd64.c:4352', 00H
	ORG $+6
$SG171829 DB	'cckddasd64.c:4357', 00H
	ORG $+6
$SG171831 DB	'cckddasd64.c:4363', 00H
	ORG $+6
$SG171832 DB	'cckddasd64.c:4367', 00H
	ORG $+6
$SG171846 DB	'gcperc exiting due to error, moved %llu', 00H
$SG171847 DB	'cckddasd64.c:4378', 00H
	ORG $+6
$SG171867 DB	'HHC00342%s %1d:%04X CCKD file[%d] %s: %s(%d): offset 0x%'
	DB	'16.16llx unknown space %2.2x%2.2x%2.2x%2.2x%2.2x', 0aH, 00H
	ORG $+6
$SG171868 DB	'cckd64_gc_perc_space_error', 00H
	ORG $+5
$SG171869 DB	'cckddasd64.c', 00H
	ORG $+3
$SG171953 DB	'HHC00385%s Skipping garbage collection for CCKD%s file[%'
	DB	'd] %1d:%04X %s due to space errors', 0aH, 00H
	ORG $+4
$SG171954 DB	'cckd64_gc_percolate', 00H
	ORG $+4
$SG171955 DB	'cckddasd64.c', 00H
	ORG $+3
$SG171956 DB	'cckddasd64.c:4433', 00H
	ORG $+6
$SG171959 DB	'cckddasd64.c:4436', 00H
	ORG $+6
$SG171960 DB	'gcperc size %d 1st 0x%llx nbr %lld largest %llu', 00H
$SG171961 DB	'cckd64_gc_percolate', 00H
	ORG $+4
$SG171962 DB	'gcperc free[%4d]:%16.16llx end %16.16llx len %10lld%cpen'
	DB	'd %d', 00H
	ORG $+3
$SG171963 DB	'cckd64_gc_percolate', 00H
	ORG $+4
$SG171964 DB	'cckddasd64.c:4456', 00H
	ORG $+6
$SG171966 DB	'cckddasd64.c:4464', 00H
	ORG $+6
$SG171968 DB	'cckddasd64.c:4470', 00H
	ORG $+6
$SG171985 DB	'gcperc no applicable space, moved %llu', 00H
	ORG $+1
$SG171986 DB	'cckd64_gc_percolate', 00H
	ORG $+4
$SG171987 DB	'cckddasd64.c:4553', 00H
	ORG $+6
$SG171990 DB	'gcperc selected space 0x%16.16llx len %lld', 00H
	ORG $+5
$SG171991 DB	'cckd64_gc_percolate', 00H
	ORG $+4
$SG171993 DB	'cckddasd64.c', 00H
	ORG $+3
$SG171999 DB	'HHC00384%s Collecting garbage for CCKD%s file[%d] %1d:%0'
	DB	'4X %s...', 0aH, 00H
	ORG $+6
$SG172000 DB	'cckd64_gc_percolate', 00H
	ORG $+4
$SG172001 DB	'cckddasd64.c', 00H
	ORG $+3
$SG172005 DB	'gcperc move l2tab[%lld] at pos 0x%16.16llx len %lld', 00H
	ORG $+4
$SG172006 DB	'cckd64_gc_percolate', 00H
	ORG $+4
$SG172008 DB	'cckddasd64.c', 00H
	ORG $+3
$SG172010 DB	'cckddasd64.c', 00H
	ORG $+3
$SG172012 DB	'cckddasd64.c', 00H
	ORG $+3
$SG172014 DB	'cckddasd64.c', 00H
	ORG $+3
$SG172016 DB	'cckddasd64.c', 00H
	ORG $+3
$SG172018 DB	'gcperc move trk %d at pos 0x%16.16llx len %hu', 00H
	ORG $+2
$SG172019 DB	'cckd64_gc_percolate', 00H
	ORG $+4
$SG172021 DB	'cckddasd64.c', 00H
	ORG $+3
$SG172022 DB	'cckddasd64.c:4632', 00H
	ORG $+6
$SG172023 DB	'gcperc moved %d 1st 0x%llx nbr %llu', 00H
	ORG $+4
$SG172024 DB	'cckd64_gc_percolate', 00H
	ORG $+4
$SG172028 DB	'HHC00386%s Collected %u bytes of garbage for CCKD%s file'
	DB	'[%d] %1d:%04X %s...', 0aH, 00H
	ORG $+3
$SG172029 DB	'cckd64_gc_percolate', 00H
	ORG $+4
$SG172030 DB	'cckddasd64.c', 00H
	ORG $+3
?compress@?1??cckd64_uncompress@@9@9 DQ FLAT:$SG172069	; `cckd64_uncompress'::`2'::compress
	DQ	FLAT:$SG172070
	DQ	FLAT:$SG172071
$SG172072 DB	'uncompress comp %d len %d maxlen %d trk %d', 00H
	ORG $+5
$SG172073 DB	'cckd64_uncompress', 00H
	ORG $+6
$SG172084 DB	'newbuf2', 00H
$SG172090 DB	'HHC00343%s %1d:%04X CCKD file[%d] %s: uncompress error t'
	DB	'rk %d: %2.2x%2.2x%2.2x%2.2x%2.2x', 0aH, 00H
	ORG $+6
$SG172091 DB	'cckd64_uncompress', 00H
	ORG $+6
$SG172092 DB	'cckddasd64.c', 00H
	ORG $+3
$SG172096 DB	'cckd64_uncompress', 00H
	ORG $+6
$SG172095 DB	'HHC00344%s %1d:%04X CCKD file[%d] %s: compression %s not'
	DB	' supported', 0aH, 00H
	ORG $+4
$SG172097 DB	'cckddasd64.c', 00H
_DATA	ENDS
voltbl	SEGMENT
_volmd	DD	0ffffffffH
	DDSymXIndex: 	FLAT:cckd64_sf_stats
	DD	017H
	DD	010d7H
_volmd	DD	0ffffffffH
	DDSymXIndex: 	FLAT:cckd64_sf_remove
	DD	01dH
	DD	019b2H
_volmd	DD	0ffffffffH
	DDSymXIndex: 	FLAT:cckd64_gc_percolate
	DD	021H
	DD	0146aH
_volmd	DD	0ffffffffH
	DDSymXIndex: 	FLAT:cckd64_sf_new
	DD	018H
	DD	0670H
_volmd	DD	0ffffffffH
	DDSymXIndex: 	FLAT:cckd64_sf_init
	DD	016H
	DD	0784H
_volmd	DD	0ffffffffH
	DDSymXIndex: 	FLAT:cckd64_validate
	DD	02fH
	DD	065bH
_volmd	DD	0ffffffffH
	DDSymXIndex: 	FLAT:cckd64_check_null_trk
	DD	02bH
	DD	0157H
_volmd	DD	0ffffffffH
	DDSymXIndex: 	FLAT:cckd64_write_trkimg
	DD	025H
	DD	04cbH
_volmd	DD	0ffffffffH
	DDSymXIndex: 	FLAT:cckd64_read_trkimg
	DD	022H
	DD	01eeH
_volmd	DD	0ffffffffH
	DDSymXIndex: 	FLAT:cckd64_read_fsp
	DD	016H
	DD	06e5H
_volmd	DD	0ffffffffH
	DDSymXIndex: 	FLAT:cckd64_read_init
	DD	016H
	DD	0286H
_volmd	DD	0ffffffffH
	DDSymXIndex: 	FLAT:cckd64_writer_write
	DD	01fH
	DD	088fH
_volmd	DD	0ffffffffH
	DDSymXIndex: 	FLAT:cfba64_used
	DD	013H
	DD	0174H
_volmd	DD	0ffffffffH
	DDSymXIndex: 	FLAT:cckd64_used
	DD	013H
	DD	017fH
_volmd	DD	0ffffffffH
	DDSymXIndex: 	FLAT:cckd64_write
	DD	024H
	DD	04b3H
_volmd	DD	0ffffffffH
	DDSymXIndex: 	FLAT:cckd64_read
	DD	024H
	DD	04abH
_volmd	DD	0ffffffffH
	DDSymXIndex: 	FLAT:cckd64_open
	DD	024H
	DD	03ecH
_volmd	DD	0ffffffffH
	DDSymXIndex: 	FLAT:cckd64_dasd_init_handler
	DD	01fH
	DD	0582H
voltbl	ENDS
xdata	SEGMENT
$unwind$cckd64_dasd_init_handler DD 022719H
	DD	0170115H
	DD	imagerel __GSHandlerCheck
	DD	0a8H
$unwind$cckd64_dasd_close_device DD 020c01H
	DD	015010cH
$unwind$cckd64_read_track DD 011201H
	DD	0a212H
$unwind$cckd64_update_track DD 031901H
	DD	07015a219H
	DD	06014H
$unwind$cfba64_read_block DD 011201H
	DD	0c212H
$unwind$cfba64_write_block DD 031901H
	DD	070158219H
	DD	06014H
$unwind$cckd64_dasd_start DD 010901H
	DD	0c209H
$unwind$cckd64_dasd_end DD 010901H
	DD	0a209H
$unwind$cckd64_open DD 022c19H
	DD	039011aH
	DD	imagerel __GSHandlerCheck
	DD	01b0H
$unwind$cckd64_close DD 021001H
	DD	0150110H
$unwind$cckd64_read DD 022c19H
	DD	02b011aH
	DD	imagerel __GSHandlerCheck
	DD	0140H
$unwind$cckd64_write DD 022c19H
	DD	02b011aH
	DD	imagerel __GSHandlerCheck
	DD	0140H
$unwind$cckd64_ftruncate DD 021501H
	DD	0130115H
$unwind$cckd64_used DD 011819H
	DD	0c209H
	DD	imagerel __GSHandlerCheck
	DD	050H
$unwind$cfba64_used DD 011819H
	DD	0c209H
	DD	imagerel __GSHandlerCheck
	DD	050H
$unwind$cckd64_read_trk DD 031b01H
	DD	01a011bH
	DD	07014H
$unwind$cckd64_flush_cache DD 020c01H
	DD	011010cH
$unwind$cckd64_flush_cache_scan DD 011701H
	DD	0c217H
$unwind$cckd64_flush_cache_all DD 010401H
	DD	06204H
$unwind$cckd64_purge_cache DD 010901H
	DD	04209H
$unwind$cckd64_purge_cache_scan DD 011701H
	DD	0a217H
$unwind$cckd64_writer_write DD 022719H
	DD	0201f0115H
	DD	imagerel __GSHandlerCheck
	DD	0100e0H
$unwind$cckd64_get_space DD 021601H
	DD	0170116H
$unwind$cckd64_rel_space DD 021b01H
	DD	013011bH
$unwind$cckd64_flush_space DD 010901H
	DD	0e209H
$unwind$cckd64_read_chdr DD 020a01H
	DD	07006720aH
$unwind$cckd64_write_chdr DD 010901H
	DD	08209H
$unwind$cckd64_read_l1 DD 020a01H
	DD	07006b20aH
$unwind$cckd64_write_l1 DD 010901H
	DD	0a209H
$unwind$cckd64_write_l1ent DD 010d01H
	DD	0c20dH
$unwind$cckd64_read_init DD 021e19H
	DD	053010cH
	DD	imagerel __GSHandlerCheck
	DD	0280H
$unwind$cckd64_read_fsp DD 021e19H
	DD	015010cH
	DD	imagerel __GSHandlerCheck
	DD	090H
$unwind$cckd64_write_fsp DD 020c01H
	DD	011010cH
$unwind$cckd64_read_l2 DD 021601H
	DD	0700ff216H
$unwind$cckd64_purge_l2 DD 010901H
	DD	08209H
$unwind$cckd64_purge_l2_scan DD 011701H
	DD	0c217H
$unwind$cckd64_steal_l2 DD 010401H
	DD	08204H
$unwind$cckd64_write_l2 DD 010901H
	DD	0c209H
$unwind$cckd64_read_l2ent DD 021601H
	DD	0130116H
$unwind$cckd64_write_l2ent DD 041801H
	DD	0110118H
	DD	060107011H
$unwind$cckd64_read_trkimg DD 012719H
	DD	0c218H
	DD	imagerel __GSHandlerCheck
	DD	050H
$unwind$cckd64_write_trkimg DD 022d19H
	DD	01b011bH
	DD	imagerel __GSHandlerCheck
	DD	0c0H
$unwind$cckd64_harden DD 010901H
	DD	08209H
$unwind$cckd64_null_trk DD 031c01H
	DD	012011cH
	DD	07015H
$unwind$cckd64_check_null_trk DD 023319H
	DD	020090121H
	DD	imagerel __GSHandlerCheck
	DD	010030H
$unwind$cckd64_cchh DD 021601H
	DD	02f0116H
$unwind$cckd64_validate DD 093719H
	DD	01c0125H
	DD	0e01cf01eH
	DD	07018c01aH
	DD	050166017H
	DD	03015H
	DD	imagerel __GSHandlerCheck
	DD	0d0H
$unwind$cckd64_sf_init DD 021e19H
	DD	08b010cH
	DD	imagerel __GSHandlerCheck
	DD	0440H
$unwind$cckd64_sf_new DD 042019H
	DD	059010eH
	DD	060067007H
	DD	imagerel __GSHandlerCheck
	DD	02b0H
$unwind$cckd64_gcstart DD 020701H
	DD	0130107H
$unwind$cckd64_gcol_dev DD 010e01H
	DD	0a20eH
$unwind$cckd64_gc_state DD 010901H
	DD	08209H
$unwind$cckd64_gc_rpt_state DD 020c01H
	DD	017010cH
$unwind$cckd64_gc_percolate DD 022919H
	DD	080310117H
	DD	imagerel __GSHandlerCheck
	DD	040170H
$unwind$cckd64_uncompress DD 021b01H
	DD	01f011bH
$unwind$cckd64_sf_add DD 020c01H
	DD	019010cH
$unwind$cckd64_sf_remove DD 032519H
	DD	024340113H
	DD	07006H
	DD	imagerel __GSHandlerCheck
	DD	012190H
$unwind$cckd64_sf_comp DD 020c01H
	DD	015010cH
$unwind$cckd64_sf_chk DD 020c01H
	DD	015010cH
$unwind$cckd64_sf_stats DD 031f19H
	DD	042010dH
	DD	07006H
	DD	imagerel __GSHandlerCheck
	DD	0208H
$unwind$cckd64_gc_perc_error DD 011801H
	DD	06218H
$unwind$cckd64_gc_perc_space_error DD 021b01H
	DD	01d011bH
xdata	ENDS
;	COMDAT xdata
xdata	SEGMENT
$unwind$fetch_fw_noswap DD 010901H
	DD	02209H
xdata	ENDS
;	COMDAT xdata
xdata	SEGMENT
$unwind$fetch_hw_noswap DD 010901H
	DD	02209H
xdata	ENDS
; Function compile flags: /Odtp
; File C:\papa\MyGit\hyperion-zvector\cckddasd64.c
_TEXT	SEGMENT
tv136 = 160
tv142 = 164
tv67 = 168
tv72 = 172
tv77 = 176
tv82 = 180
tv86 = 184
tv88 = 192
tv91 = 200
tv94 = 208
dev$ = 240
cckd$ = 248
upos$ = 256
i$ = 264
buf$ = 272
moved$ = 280
file$ = 288
line$ = 296
cckd64_gc_perc_space_error PROC

; 4385 : {

  00000	4c 89 4c 24 20	 mov	 QWORD PTR [rsp+32], r9
  00005	4c 89 44 24 18	 mov	 QWORD PTR [rsp+24], r8
  0000a	48 89 54 24 10	 mov	 QWORD PTR [rsp+16], rdx
  0000f	48 89 4c 24 08	 mov	 QWORD PTR [rsp+8], rcx
  00014	48 81 ec e8 00
	00 00		 sub	 rsp, 232		; 000000e8H

; 4386 :     // "%1d:%04X CCKD file[%d] %s: %s(%d): offset 0x%16.16"PRIx64" unknown space %2.2x%2.2x%2.2x%2.2x%2.2x"
; 4387 : 
; 4388 :     WRMSG( HHC00342, "E", LCSS_DEVNUM,

  0001b	48 83 bc 24 f0
	00 00 00 00	 cmp	 QWORD PTR dev$[rsp], 0
  00024	74 15		 je	 SHORT $LN3@cckd64_gc_
  00026	48 8b 84 24 f0
	00 00 00	 mov	 rax, QWORD PTR dev$[rsp]
  0002e	0f b7 40 48	 movzx	 eax, WORD PTR [rax+72]
  00032	89 84 24 a0 00
	00 00		 mov	 DWORD PTR tv136[rsp], eax
  00039	eb 0b		 jmp	 SHORT $LN4@cckd64_gc_
$LN3@cckd64_gc_:
  0003b	c7 84 24 a0 00
	00 00 00 00 00
	00		 mov	 DWORD PTR tv136[rsp], 0
$LN4@cckd64_gc_:
  00046	48 83 bc 24 f0
	00 00 00 00	 cmp	 QWORD PTR dev$[rsp], 0
  0004f	74 17		 je	 SHORT $LN5@cckd64_gc_
  00051	48 8b 84 24 f0
	00 00 00	 mov	 rax, QWORD PTR dev$[rsp]
  00059	0f b7 40 44	 movzx	 eax, WORD PTR [rax+68]
  0005d	d1 f8		 sar	 eax, 1
  0005f	89 84 24 a4 00
	00 00		 mov	 DWORD PTR tv142[rsp], eax
  00066	eb 0b		 jmp	 SHORT $LN6@cckd64_gc_
$LN5@cckd64_gc_:
  00068	c7 84 24 a4 00
	00 00 00 00 00
	00		 mov	 DWORD PTR tv142[rsp], 0
$LN6@cckd64_gc_:
  00073	48 8b 84 24 08
	01 00 00	 mov	 rax, QWORD PTR i$[rsp]
  0007b	48 8b 8c 24 10
	01 00 00	 mov	 rcx, QWORD PTR buf$[rsp]
  00083	48 03 c8	 add	 rcx, rax
  00086	48 8b c1	 mov	 rax, rcx
  00089	0f b6 40 04	 movzx	 eax, BYTE PTR [rax+4]
  0008d	89 84 24 a8 00
	00 00		 mov	 DWORD PTR tv67[rsp], eax
  00094	48 8b 8c 24 08
	01 00 00	 mov	 rcx, QWORD PTR i$[rsp]
  0009c	48 8b 94 24 10
	01 00 00	 mov	 rdx, QWORD PTR buf$[rsp]
  000a4	48 03 d1	 add	 rdx, rcx
  000a7	48 8b ca	 mov	 rcx, rdx
  000aa	0f b6 49 03	 movzx	 ecx, BYTE PTR [rcx+3]
  000ae	89 8c 24 ac 00
	00 00		 mov	 DWORD PTR tv72[rsp], ecx
  000b5	48 8b 94 24 08
	01 00 00	 mov	 rdx, QWORD PTR i$[rsp]
  000bd	4c 8b 84 24 10
	01 00 00	 mov	 r8, QWORD PTR buf$[rsp]
  000c5	4c 03 c2	 add	 r8, rdx
  000c8	49 8b d0	 mov	 rdx, r8
  000cb	0f b6 52 02	 movzx	 edx, BYTE PTR [rdx+2]
  000cf	89 94 24 b0 00
	00 00		 mov	 DWORD PTR tv77[rsp], edx
  000d6	4c 8b 84 24 08
	01 00 00	 mov	 r8, QWORD PTR i$[rsp]
  000de	4c 8b 8c 24 10
	01 00 00	 mov	 r9, QWORD PTR buf$[rsp]
  000e6	4d 03 c8	 add	 r9, r8
  000e9	4d 8b c1	 mov	 r8, r9
  000ec	45 0f b6 40 01	 movzx	 r8d, BYTE PTR [r8+1]
  000f1	44 89 84 24 b4
	00 00 00	 mov	 DWORD PTR tv82[rsp], r8d
  000f9	4c 8b 8c 24 08
	01 00 00	 mov	 r9, QWORD PTR i$[rsp]
  00101	4c 8b 94 24 10
	01 00 00	 mov	 r10, QWORD PTR buf$[rsp]
  00109	4d 03 d1	 add	 r10, r9
  0010c	4d 8b ca	 mov	 r9, r10
  0010f	45 0f b6 09	 movzx	 r9d, BYTE PTR [r9]
  00113	44 89 8c 24 b8
	00 00 00	 mov	 DWORD PTR tv86[rsp], r9d
  0011b	4c 8b 94 24 08
	01 00 00	 mov	 r10, QWORD PTR i$[rsp]
  00123	4c 8b 9c 24 00
	01 00 00	 mov	 r11, QWORD PTR upos$[rsp]
  0012b	4d 03 da	 add	 r11, r10
  0012e	4d 8b d3	 mov	 r10, r11
  00131	4c 89 94 24 c0
	00 00 00	 mov	 QWORD PTR tv88[rsp], r10
  00139	48 8b 8c 24 20
	01 00 00	 mov	 rcx, QWORD PTR file$[rsp]
  00141	ff 15 00 00 00
	00		 call	 QWORD PTR __imp_trimloc
  00147	48 89 84 24 c8
	00 00 00	 mov	 QWORD PTR tv91[rsp], rax
  0014f	48 8b 8c 24 f8
	00 00 00	 mov	 rcx, QWORD PTR cckd$[rsp]
  00157	8b 51 3c	 mov	 edx, DWORD PTR [rcx+60]
  0015a	48 8b 8c 24 f0
	00 00 00	 mov	 rcx, QWORD PTR dev$[rsp]
  00162	e8 00 00 00 00	 call	 cckd_sf_name
  00167	48 89 84 24 d0
	00 00 00	 mov	 QWORD PTR tv94[rsp], rax
  0016f	b9 01 00 00 00	 mov	 ecx, 1
  00174	ff 15 00 00 00
	00		 call	 QWORD PTR __imp___acrt_iob_func
  0017a	8b 8c 24 a8 00
	00 00		 mov	 ecx, DWORD PTR tv67[rsp]
  00181	89 8c 24 90 00
	00 00		 mov	 DWORD PTR [rsp+144], ecx
  00188	8b 8c 24 ac 00
	00 00		 mov	 ecx, DWORD PTR tv72[rsp]
  0018f	89 8c 24 88 00
	00 00		 mov	 DWORD PTR [rsp+136], ecx
  00196	8b 8c 24 b0 00
	00 00		 mov	 ecx, DWORD PTR tv77[rsp]
  0019d	89 8c 24 80 00
	00 00		 mov	 DWORD PTR [rsp+128], ecx
  001a4	8b 8c 24 b4 00
	00 00		 mov	 ecx, DWORD PTR tv82[rsp]
  001ab	89 4c 24 78	 mov	 DWORD PTR [rsp+120], ecx
  001af	8b 8c 24 b8 00
	00 00		 mov	 ecx, DWORD PTR tv86[rsp]
  001b6	89 4c 24 70	 mov	 DWORD PTR [rsp+112], ecx
  001ba	48 8b 8c 24 c0
	00 00 00	 mov	 rcx, QWORD PTR tv88[rsp]
  001c2	48 89 4c 24 68	 mov	 QWORD PTR [rsp+104], rcx
  001c7	8b 8c 24 28 01
	00 00		 mov	 ecx, DWORD PTR line$[rsp]
  001ce	89 4c 24 60	 mov	 DWORD PTR [rsp+96], ecx
  001d2	48 8b 8c 24 c8
	00 00 00	 mov	 rcx, QWORD PTR tv91[rsp]
  001da	48 89 4c 24 58	 mov	 QWORD PTR [rsp+88], rcx
  001df	48 8b 8c 24 d0
	00 00 00	 mov	 rcx, QWORD PTR tv94[rsp]
  001e7	48 89 4c 24 50	 mov	 QWORD PTR [rsp+80], rcx
  001ec	48 8b 8c 24 f8
	00 00 00	 mov	 rcx, QWORD PTR cckd$[rsp]
  001f4	8b 49 3c	 mov	 ecx, DWORD PTR [rcx+60]
  001f7	89 4c 24 48	 mov	 DWORD PTR [rsp+72], ecx
  001fb	8b 8c 24 a0 00
	00 00		 mov	 ecx, DWORD PTR tv136[rsp]
  00202	89 4c 24 40	 mov	 DWORD PTR [rsp+64], ecx
  00206	8b 8c 24 a4 00
	00 00		 mov	 ecx, DWORD PTR tv142[rsp]
  0020d	89 4c 24 38	 mov	 DWORD PTR [rsp+56], ecx
  00211	48 8d 0d 00 00
	00 00		 lea	 rcx, OFFSET FLAT:$SG171866
  00218	48 89 4c 24 30	 mov	 QWORD PTR [rsp+48], rcx
  0021d	48 8d 0d 00 00
	00 00		 lea	 rcx, OFFSET FLAT:$SG171867
  00224	48 89 4c 24 28	 mov	 QWORD PTR [rsp+40], rcx
  00229	48 89 44 24 20	 mov	 QWORD PTR [rsp+32], rax
  0022e	41 b9 03 00 00
	00		 mov	 r9d, 3
  00234	4c 8d 05 00 00
	00 00		 lea	 r8, OFFSET FLAT:$SG171868
  0023b	ba 26 11 00 00	 mov	 edx, 4390		; 00001126H
  00240	48 8d 0d 00 00
	00 00		 lea	 rcx, OFFSET FLAT:$SG171869
  00247	ff 15 00 00 00
	00		 call	 QWORD PTR __imp_fwritemsg

; 4389 :             cckd->sfn, cckd_sf_name( dev, cckd->sfn ), TRIMLOC( file ), line,
; 4390 :             upos + i, buf[i], buf[i+1],buf[i+2], buf[i+3], buf[i+4]);
; 4391 : 
; 4392 :     cckd->cdevhdr[ cckd->sfn ].cdh_opts |= CCKD_OPT_SPERRS;

  0024d	48 8b 84 24 f8
	00 00 00	 mov	 rax, QWORD PTR cckd$[rsp]
  00255	48 63 40 3c	 movsxd	 rax, DWORD PTR [rax+60]
  00259	48 69 c0 00 02
	00 00		 imul	 rax, rax, 512		; 00000200H
  00260	48 8b 8c 24 f8
	00 00 00	 mov	 rcx, QWORD PTR cckd$[rsp]
  00268	0f b6 84 01 e3
	01 00 00	 movzx	 eax, BYTE PTR [rcx+rax+483]
  00270	83 c8 20	 or	 eax, 32			; 00000020H
  00273	48 8b 8c 24 f8
	00 00 00	 mov	 rcx, QWORD PTR cckd$[rsp]
  0027b	48 63 49 3c	 movsxd	 rcx, DWORD PTR [rcx+60]
  0027f	48 69 c9 00 02
	00 00		 imul	 rcx, rcx, 512		; 00000200H
  00286	48 8b 94 24 f8
	00 00 00	 mov	 rdx, QWORD PTR cckd$[rsp]
  0028e	88 84 0a e3 01
	00 00		 mov	 BYTE PTR [rdx+rcx+483], al

; 4393 :     cckd_print_itrace();

  00295	e8 00 00 00 00	 call	 cckd_print_itrace

; 4394 :     return cckd64_gc_perc_error( dev, cckd, moved, file, line );

  0029a	8b 84 24 28 01
	00 00		 mov	 eax, DWORD PTR line$[rsp]
  002a1	89 44 24 20	 mov	 DWORD PTR [rsp+32], eax
  002a5	4c 8b 8c 24 20
	01 00 00	 mov	 r9, QWORD PTR file$[rsp]
  002ad	4c 8b 84 24 18
	01 00 00	 mov	 r8, QWORD PTR moved$[rsp]
  002b5	48 8b 94 24 f8
	00 00 00	 mov	 rdx, QWORD PTR cckd$[rsp]
  002bd	48 8b 8c 24 f0
	00 00 00	 mov	 rcx, QWORD PTR dev$[rsp]
  002c5	e8 00 00 00 00	 call	 cckd64_gc_perc_error

; 4395 : }

  002ca	48 81 c4 e8 00
	00 00		 add	 rsp, 232		; 000000e8H
  002d1	c3		 ret	 0
cckd64_gc_perc_space_error ENDP
_TEXT	ENDS
; Function compile flags: /Odtp
; File C:\papa\MyGit\hyperion-zvector\cckddasd64.c
_TEXT	SEGMENT
dev$ = 64
cckd$ = 72
moved$ = 80
file$ = 88
line$ = 96
cckd64_gc_perc_error PROC

; 4376 : {

  00000	4c 89 4c 24 20	 mov	 QWORD PTR [rsp+32], r9
  00005	4c 89 44 24 18	 mov	 QWORD PTR [rsp+24], r8
  0000a	48 89 54 24 10	 mov	 QWORD PTR [rsp+16], rdx
  0000f	48 89 4c 24 08	 mov	 QWORD PTR [rsp+8], rcx
  00014	48 83 ec 38	 sub	 rsp, 56			; 00000038H

; 4377 :     cckd_trace( file, line, dev, "gcperc exiting due to error, moved %"PRIu64, moved );

  00018	48 8b 44 24 50	 mov	 rax, QWORD PTR moved$[rsp]
  0001d	48 89 44 24 20	 mov	 QWORD PTR [rsp+32], rax
  00022	4c 8d 0d 00 00
	00 00		 lea	 r9, OFFSET FLAT:$SG171846
  00029	4c 8b 44 24 40	 mov	 r8, QWORD PTR dev$[rsp]
  0002e	8b 54 24 60	 mov	 edx, DWORD PTR line$[rsp]
  00032	48 8b 4c 24 58	 mov	 rcx, QWORD PTR file$[rsp]
  00037	e8 00 00 00 00	 call	 cckd_trace

; 4378 :     release_lock( &cckd->filelock );

  0003c	48 8b 44 24 48	 mov	 rax, QWORD PTR cckd$[rsp]
  00041	48 83 c0 10	 add	 rax, 16
  00045	48 8d 15 00 00
	00 00		 lea	 rdx, OFFSET FLAT:$SG171847
  0004c	48 8b c8	 mov	 rcx, rax
  0004f	ff 15 00 00 00
	00		 call	 QWORD PTR __imp_hthread_release_lock

; 4379 :     return (int) moved;

  00055	8b 44 24 50	 mov	 eax, DWORD PTR moved$[rsp]

; 4380 : }

  00059	48 83 c4 38	 add	 rsp, 56			; 00000038H
  0005d	c3		 ret	 0
cckd64_gc_perc_error ENDP
_TEXT	ENDS
; Function compile flags: /Odtp
; File C:\papa\MyGit\hyperion-zvector\cckddasd64.c
_TEXT	SEGMENT
dev$ = 144
i$ = 152
cckd$ = 160
n$1 = 168
usize$ = 176
tv149 = 184
tv155 = 188
tv216 = 192
tv222 = 196
tv240 = 200
tv246 = 204
tv260 = 208
tv266 = 212
tv335 = 216
tv341 = 220
tv363 = 224
tv369 = 228
tv385 = 232
tv391 = 236
tv451 = 240
tv472 = 244
tv478 = 248
tv557 = 252
tv563 = 256
tv445 = 260
tv77 = 264
tv83 = 268
ufree$ = 272
free_count$ = 280
tv323 = 288
tv330 = 296
tv433 = 304
tv440 = 312
tv539 = 320
tv551 = 328
tv173 = 336
tv380 = 344
tv403 = 352
tv407 = 360
tv411 = 368
tv422 = 376
tv465 = 384
tv493 = 392
tv498 = 400
tv503 = 408
tv517 = 416
tv543 = 424
st$ = 432
ost$ = 488
__$ArrayPad$ = 520
data$ = 544
cckd64_sf_stats PROC

; 3983 : {

$LN80:
  00000	48 89 4c 24 08	 mov	 QWORD PTR [rsp+8], rcx
  00005	57		 push	 rdi
  00006	48 81 ec 10 02
	00 00		 sub	 rsp, 528		; 00000210H
  0000d	48 8b 05 00 00
	00 00		 mov	 rax, QWORD PTR __security_cookie
  00014	48 33 c4	 xor	 rax, rsp
  00017	48 89 84 24 08
	02 00 00	 mov	 QWORD PTR __$ArrayPad$[rsp], rax

; 3984 : DEVBLK         *dev = data;             /* -> DEVBLK                 */

  0001f	48 8b 84 24 20
	02 00 00	 mov	 rax, QWORD PTR data$[rsp]
  00027	48 89 84 24 90
	00 00 00	 mov	 QWORD PTR dev$[rsp], rax

; 3985 : CCKD64_EXT     *cckd;                   /* -> cckd extension         */
; 3986 : struct stat     st = {0};               /* File information          */

  0002f	48 8d 84 24 b0
	01 00 00	 lea	 rax, QWORD PTR st$[rsp]
  00037	48 8b f8	 mov	 rdi, rax
  0003a	33 c0		 xor	 eax, eax
  0003c	b9 38 00 00 00	 mov	 ecx, 56			; 00000038H
  00041	f3 aa		 rep stosb

; 3987 : int             i;                      /* Index                     */
; 3988 : char           *ost[] = {"  ", "ro", "rd", "rw"};

  00043	48 8d 05 00 00
	00 00		 lea	 rax, OFFSET FLAT:$SG171631
  0004a	48 89 84 24 e8
	01 00 00	 mov	 QWORD PTR ost$[rsp], rax
  00052	48 8d 05 00 00
	00 00		 lea	 rax, OFFSET FLAT:$SG171633
  00059	48 89 84 24 f0
	01 00 00	 mov	 QWORD PTR ost$[rsp+8], rax
  00061	48 8d 05 00 00
	00 00		 lea	 rax, OFFSET FLAT:$SG171635
  00068	48 89 84 24 f8
	01 00 00	 mov	 QWORD PTR ost$[rsp+16], rax
  00070	48 8d 05 00 00
	00 00		 lea	 rax, OFFSET FLAT:$SG171637
  00077	48 89 84 24 00
	02 00 00	 mov	 QWORD PTR ost$[rsp+24], rax

; 3989 : U64             usize=0,ufree=0;        /* Total size, free space    */

  0007f	48 c7 84 24 b0
	00 00 00 00 00
	00 00		 mov	 QWORD PTR usize$[rsp], 0
  0008b	48 c7 84 24 10
	01 00 00 00 00
	00 00		 mov	 QWORD PTR ufree$[rsp], 0

; 3990 : S64             free_count=0;           /* Total number free spaces  */

  00097	48 c7 84 24 18
	01 00 00 00 00
	00 00		 mov	 QWORD PTR free_count$[rsp], 0

; 3991 : 
; 3992 :     /* NULL DEVBLK == all devices? */
; 3993 :     if (!dev)

  000a3	48 83 bc 24 90
	00 00 00 00	 cmp	 QWORD PTR dev$[rsp], 0
  000ac	0f 85 8c 01 00
	00		 jne	 $LN11@cckd64_sf_

; 3994 :     {
; 3995 :     int n = 0;

  000b2	c7 84 24 a8 00
	00 00 00 00 00
	00		 mov	 DWORD PTR n$1[rsp], 0

; 3996 :         for (dev=sysblk.firstdev; dev; dev=dev->nextdev)

  000bd	48 8b 05 00 00
	00 00		 mov	 rax, QWORD PTR __imp_sysblk
  000c4	48 8b 80 c0 11
	00 00		 mov	 rax, QWORD PTR [rax+4544]
  000cb	48 89 84 24 90
	00 00 00	 mov	 QWORD PTR dev$[rsp], rax
  000d3	eb 14		 jmp	 SHORT $LN4@cckd64_sf_
$LN2@cckd64_sf_:
  000d5	48 8b 84 24 90
	00 00 00	 mov	 rax, QWORD PTR dev$[rsp]
  000dd	48 8b 40 30	 mov	 rax, QWORD PTR [rax+48]
  000e1	48 89 84 24 90
	00 00 00	 mov	 QWORD PTR dev$[rsp], rax
$LN4@cckd64_sf_:
  000e9	48 83 bc 24 90
	00 00 00 00	 cmp	 QWORD PTR dev$[rsp], 0
  000f2	0f 84 ed 00 00
	00		 je	 $LN3@cckd64_sf_

; 3997 :         {
; 3998 :             if (dev->cckd_ext)  /* Is this a compressed device? */

  000f8	48 8b 84 24 90
	00 00 00	 mov	 rax, QWORD PTR dev$[rsp]
  00100	48 83 b8 08 13
	00 00 00	 cmp	 QWORD PTR [rax+4872], 0
  00108	0f 84 d2 00 00
	00		 je	 $LN12@cckd64_sf_

; 3999 :             {
; 4000 :                 // "%1d:%04X CCKD file: display cckd statistics"
; 4001 :                 WRMSG( HHC00332, "I", LCSS_DEVNUM );

  0010e	48 83 bc 24 90
	00 00 00 00	 cmp	 QWORD PTR dev$[rsp], 0
  00117	74 15		 je	 SHORT $LN24@cckd64_sf_
  00119	48 8b 84 24 90
	00 00 00	 mov	 rax, QWORD PTR dev$[rsp]
  00121	0f b7 40 48	 movzx	 eax, WORD PTR [rax+72]
  00125	89 84 24 08 01
	00 00		 mov	 DWORD PTR tv77[rsp], eax
  0012c	eb 0b		 jmp	 SHORT $LN25@cckd64_sf_
$LN24@cckd64_sf_:
  0012e	c7 84 24 08 01
	00 00 00 00 00
	00		 mov	 DWORD PTR tv77[rsp], 0
$LN25@cckd64_sf_:
  00139	48 83 bc 24 90
	00 00 00 00	 cmp	 QWORD PTR dev$[rsp], 0
  00142	74 17		 je	 SHORT $LN26@cckd64_sf_
  00144	48 8b 84 24 90
	00 00 00	 mov	 rax, QWORD PTR dev$[rsp]
  0014c	0f b7 40 44	 movzx	 eax, WORD PTR [rax+68]
  00150	d1 f8		 sar	 eax, 1
  00152	89 84 24 0c 01
	00 00		 mov	 DWORD PTR tv83[rsp], eax
  00159	eb 0b		 jmp	 SHORT $LN27@cckd64_sf_
$LN26@cckd64_sf_:
  0015b	c7 84 24 0c 01
	00 00 00 00 00
	00		 mov	 DWORD PTR tv83[rsp], 0
$LN27@cckd64_sf_:
  00166	b9 01 00 00 00	 mov	 ecx, 1
  0016b	ff 15 00 00 00
	00		 call	 QWORD PTR __imp___acrt_iob_func
  00171	8b 8c 24 08 01
	00 00		 mov	 ecx, DWORD PTR tv77[rsp]
  00178	89 4c 24 40	 mov	 DWORD PTR [rsp+64], ecx
  0017c	8b 8c 24 0c 01
	00 00		 mov	 ecx, DWORD PTR tv83[rsp]
  00183	89 4c 24 38	 mov	 DWORD PTR [rsp+56], ecx
  00187	48 8d 0d 00 00
	00 00		 lea	 rcx, OFFSET FLAT:$SG171640
  0018e	48 89 4c 24 30	 mov	 QWORD PTR [rsp+48], rcx
  00193	48 8d 0d 00 00
	00 00		 lea	 rcx, OFFSET FLAT:$SG171641
  0019a	48 89 4c 24 28	 mov	 QWORD PTR [rsp+40], rcx
  0019f	48 89 44 24 20	 mov	 QWORD PTR [rsp+32], rax
  001a4	41 b9 03 00 00
	00		 mov	 r9d, 3
  001aa	4c 8d 05 00 00
	00 00		 lea	 r8, OFFSET FLAT:$SG171642
  001b1	ba a1 0f 00 00	 mov	 edx, 4001		; 00000fa1H
  001b6	48 8d 0d 00 00
	00 00		 lea	 rcx, OFFSET FLAT:$SG171643
  001bd	ff 15 00 00 00
	00		 call	 QWORD PTR __imp_fwritemsg

; 4002 :                 cckd64_sf_stats( dev );

  001c3	48 8b 8c 24 90
	00 00 00	 mov	 rcx, QWORD PTR dev$[rsp]
  001cb	e8 00 00 00 00	 call	 cckd64_sf_stats

; 4003 :                 n++;

  001d0	8b 84 24 a8 00
	00 00		 mov	 eax, DWORD PTR n$1[rsp]
  001d7	ff c0		 inc	 eax
  001d9	89 84 24 a8 00
	00 00		 mov	 DWORD PTR n$1[rsp], eax
$LN12@cckd64_sf_:

; 4004 :             }
; 4005 :         }

  001e0	e9 f0 fe ff ff	 jmp	 $LN2@cckd64_sf_
$LN3@cckd64_sf_:

; 4006 :         // "CCKD file number of devices processed: %d"
; 4007 :         WRMSG( HHC00316, "I", n );

  001e5	b9 01 00 00 00	 mov	 ecx, 1
  001ea	ff 15 00 00 00
	00		 call	 QWORD PTR __imp___acrt_iob_func
  001f0	8b 8c 24 a8 00
	00 00		 mov	 ecx, DWORD PTR n$1[rsp]
  001f7	89 4c 24 38	 mov	 DWORD PTR [rsp+56], ecx
  001fb	48 8d 0d 00 00
	00 00		 lea	 rcx, OFFSET FLAT:$SG171644
  00202	48 89 4c 24 30	 mov	 QWORD PTR [rsp+48], rcx
  00207	48 8d 0d 00 00
	00 00		 lea	 rcx, OFFSET FLAT:$SG171645
  0020e	48 89 4c 24 28	 mov	 QWORD PTR [rsp+40], rcx
  00213	48 89 44 24 20	 mov	 QWORD PTR [rsp+32], rax
  00218	41 b9 03 00 00
	00		 mov	 r9d, 3
  0021e	4c 8d 05 00 00
	00 00		 lea	 r8, OFFSET FLAT:$SG171646
  00225	ba a7 0f 00 00	 mov	 edx, 4007		; 00000fa7H
  0022a	48 8d 0d 00 00
	00 00		 lea	 rcx, OFFSET FLAT:$SG171647
  00231	ff 15 00 00 00
	00		 call	 QWORD PTR __imp_fwritemsg

; 4008 :         return NULL;

  00237	33 c0		 xor	 eax, eax
  00239	e9 99 0e 00 00	 jmp	 $LN1@cckd64_sf_
$LN11@cckd64_sf_:

; 4009 :     }
; 4010 : 
; 4011 :     if (!dev->cckd64)

  0023e	48 8b 84 24 90
	00 00 00	 mov	 rax, QWORD PTR dev$[rsp]
  00246	0f b6 80 10 13
	00 00		 movzx	 eax, BYTE PTR [rax+4880]
  0024d	24 01		 and	 al, 1
  0024f	0f b6 c0	 movzx	 eax, al
  00252	85 c0		 test	 eax, eax
  00254	75 12		 jne	 SHORT $LN13@cckd64_sf_

; 4012 :         return cckd_sf_stats( data );

  00256	48 8b 8c 24 20
	02 00 00	 mov	 rcx, QWORD PTR data$[rsp]
  0025e	e8 00 00 00 00	 call	 cckd_sf_stats
  00263	e9 6f 0e 00 00	 jmp	 $LN1@cckd64_sf_
$LN13@cckd64_sf_:

; 4013 : 
; 4014 :     if (!(cckd = dev->cckd_ext))

  00268	48 8b 84 24 90
	00 00 00	 mov	 rax, QWORD PTR dev$[rsp]
  00270	48 8b 80 08 13
	00 00		 mov	 rax, QWORD PTR [rax+4872]
  00277	48 89 84 24 a0
	00 00 00	 mov	 QWORD PTR cckd$[rsp], rax
  0027f	48 83 bc 24 a0
	00 00 00 00	 cmp	 QWORD PTR cckd$[rsp], 0
  00288	0f 85 bc 00 00
	00		 jne	 $LN14@cckd64_sf_

; 4015 :     {
; 4016 :         // "%1d:%04X CCKD file: device is not a cckd device"
; 4017 :         WRMSG( HHC00317, "W", LCSS_DEVNUM );

  0028e	48 83 bc 24 90
	00 00 00 00	 cmp	 QWORD PTR dev$[rsp], 0
  00297	74 15		 je	 SHORT $LN28@cckd64_sf_
  00299	48 8b 84 24 90
	00 00 00	 mov	 rax, QWORD PTR dev$[rsp]
  002a1	0f b7 40 48	 movzx	 eax, WORD PTR [rax+72]
  002a5	89 84 24 b8 00
	00 00		 mov	 DWORD PTR tv149[rsp], eax
  002ac	eb 0b		 jmp	 SHORT $LN29@cckd64_sf_
$LN28@cckd64_sf_:
  002ae	c7 84 24 b8 00
	00 00 00 00 00
	00		 mov	 DWORD PTR tv149[rsp], 0
$LN29@cckd64_sf_:
  002b9	48 83 bc 24 90
	00 00 00 00	 cmp	 QWORD PTR dev$[rsp], 0
  002c2	74 17		 je	 SHORT $LN30@cckd64_sf_
  002c4	48 8b 84 24 90
	00 00 00	 mov	 rax, QWORD PTR dev$[rsp]
  002cc	0f b7 40 44	 movzx	 eax, WORD PTR [rax+68]
  002d0	d1 f8		 sar	 eax, 1
  002d2	89 84 24 bc 00
	00 00		 mov	 DWORD PTR tv155[rsp], eax
  002d9	eb 0b		 jmp	 SHORT $LN31@cckd64_sf_
$LN30@cckd64_sf_:
  002db	c7 84 24 bc 00
	00 00 00 00 00
	00		 mov	 DWORD PTR tv155[rsp], 0
$LN31@cckd64_sf_:
  002e6	b9 01 00 00 00	 mov	 ecx, 1
  002eb	ff 15 00 00 00
	00		 call	 QWORD PTR __imp___acrt_iob_func
  002f1	8b 8c 24 b8 00
	00 00		 mov	 ecx, DWORD PTR tv149[rsp]
  002f8	89 4c 24 40	 mov	 DWORD PTR [rsp+64], ecx
  002fc	8b 8c 24 bc 00
	00 00		 mov	 ecx, DWORD PTR tv155[rsp]
  00303	89 4c 24 38	 mov	 DWORD PTR [rsp+56], ecx
  00307	48 8d 0d 00 00
	00 00		 lea	 rcx, OFFSET FLAT:$SG171650
  0030e	48 89 4c 24 30	 mov	 QWORD PTR [rsp+48], rcx
  00313	48 8d 0d 00 00
	00 00		 lea	 rcx, OFFSET FLAT:$SG171651
  0031a	48 89 4c 24 28	 mov	 QWORD PTR [rsp+40], rcx
  0031f	48 89 44 24 20	 mov	 QWORD PTR [rsp+32], rax
  00324	41 b9 03 00 00
	00		 mov	 r9d, 3
  0032a	4c 8d 05 00 00
	00 00		 lea	 r8, OFFSET FLAT:$SG171652
  00331	ba b1 0f 00 00	 mov	 edx, 4017		; 00000fb1H
  00336	48 8d 0d 00 00
	00 00		 lea	 rcx, OFFSET FLAT:$SG171653
  0033d	ff 15 00 00 00
	00		 call	 QWORD PTR __imp_fwritemsg

; 4018 :         return NULL;

  00343	33 c0		 xor	 eax, eax
  00345	e9 8d 0d 00 00	 jmp	 $LN1@cckd64_sf_
$LN14@cckd64_sf_:

; 4019 :     }
; 4020 : 
; 4021 :     /* Calculate totals */
; 4022 :     if (fstat( cckd->fd[0], &st ) != 0)

  0034a	b8 04 00 00 00	 mov	 eax, 4
  0034f	48 6b c0 00	 imul	 rax, rax, 0
  00353	48 8d 94 24 b0
	01 00 00	 lea	 rdx, QWORD PTR st$[rsp]
  0035b	48 8b 8c 24 a0
	00 00 00	 mov	 rcx, QWORD PTR cckd$[rsp]
  00363	8b 8c 01 f0 00
	00 00		 mov	 ecx, DWORD PTR [rcx+rax+240]
  0036a	ff 15 00 00 00
	00		 call	 QWORD PTR __imp__fstat64
  00370	85 c0		 test	 eax, eax
  00372	0f 84 8a 00 00
	00		 je	 $LN15@cckd64_sf_

; 4023 :     {
; 4024 :         // "Error in function %s: %s"
; 4025 :         WRMSG( HHC00075, "E", "fstat()", strerror( errno ));

  00378	ff 15 00 00 00
	00		 call	 QWORD PTR __imp__errno
  0037e	8b 08		 mov	 ecx, DWORD PTR [rax]
  00380	ff 15 00 00 00
	00		 call	 QWORD PTR __imp_w32_strerror
  00386	48 89 84 24 50
	01 00 00	 mov	 QWORD PTR tv173[rsp], rax
  0038e	b9 01 00 00 00	 mov	 ecx, 1
  00393	ff 15 00 00 00
	00		 call	 QWORD PTR __imp___acrt_iob_func
  00399	48 8b 8c 24 50
	01 00 00	 mov	 rcx, QWORD PTR tv173[rsp]
  003a1	48 89 4c 24 40	 mov	 QWORD PTR [rsp+64], rcx
  003a6	48 8d 0d 00 00
	00 00		 lea	 rcx, OFFSET FLAT:$SG171655
  003ad	48 89 4c 24 38	 mov	 QWORD PTR [rsp+56], rcx
  003b2	48 8d 0d 00 00
	00 00		 lea	 rcx, OFFSET FLAT:$SG171656
  003b9	48 89 4c 24 30	 mov	 QWORD PTR [rsp+48], rcx
  003be	48 8d 0d 00 00
	00 00		 lea	 rcx, OFFSET FLAT:$SG171657
  003c5	48 89 4c 24 28	 mov	 QWORD PTR [rsp+40], rcx
  003ca	48 89 44 24 20	 mov	 QWORD PTR [rsp+32], rax
  003cf	41 b9 03 00 00
	00		 mov	 r9d, 3
  003d5	4c 8d 05 00 00
	00 00		 lea	 r8, OFFSET FLAT:$SG171658
  003dc	ba b9 0f 00 00	 mov	 edx, 4025		; 00000fb9H
  003e1	48 8d 0d 00 00
	00 00		 lea	 rcx, OFFSET FLAT:$SG171659
  003e8	ff 15 00 00 00
	00		 call	 QWORD PTR __imp_fwritemsg

; 4026 :         memset( &st, 0, sizeof( st ));

  003ee	48 8d 84 24 b0
	01 00 00	 lea	 rax, QWORD PTR st$[rsp]
  003f6	48 8b f8	 mov	 rdi, rax
  003f9	33 c0		 xor	 eax, eax
  003fb	b9 38 00 00 00	 mov	 ecx, 56			; 00000038H
  00400	f3 aa		 rep stosb
$LN15@cckd64_sf_:

; 4027 :     }
; 4028 :     for (i=0; i <= cckd->sfn; i++)

  00402	c7 84 24 98 00
	00 00 00 00 00
	00		 mov	 DWORD PTR i$[rsp], 0
  0040d	eb 10		 jmp	 SHORT $LN7@cckd64_sf_
$LN5@cckd64_sf_:
  0040f	8b 84 24 98 00
	00 00		 mov	 eax, DWORD PTR i$[rsp]
  00416	ff c0		 inc	 eax
  00418	89 84 24 98 00
	00 00		 mov	 DWORD PTR i$[rsp], eax
$LN7@cckd64_sf_:
  0041f	48 8b 84 24 a0
	00 00 00	 mov	 rax, QWORD PTR cckd$[rsp]
  00427	8b 40 3c	 mov	 eax, DWORD PTR [rax+60]
  0042a	39 84 24 98 00
	00 00		 cmp	 DWORD PTR i$[rsp], eax
  00431	0f 8f c0 00 00
	00		 jg	 $LN6@cckd64_sf_

; 4029 :     {
; 4030 :         if (!i) usize = st.st_size;

  00437	83 bc 24 98 00
	00 00 00	 cmp	 DWORD PTR i$[rsp], 0
  0043f	75 12		 jne	 SHORT $LN16@cckd64_sf_
  00441	48 8b 84 24 c8
	01 00 00	 mov	 rax, QWORD PTR st$[rsp+24]
  00449	48 89 84 24 b0
	00 00 00	 mov	 QWORD PTR usize$[rsp], rax
  00451	eb 35		 jmp	 SHORT $LN17@cckd64_sf_
$LN16@cckd64_sf_:

; 4031 :         else usize += cckd->cdevhdr[i].cdh_size;

  00453	48 63 84 24 98
	00 00 00	 movsxd	 rax, DWORD PTR i$[rsp]
  0045b	48 69 c0 00 02
	00 00		 imul	 rax, rax, 512		; 00000200H
  00462	48 8b 8c 24 a0
	00 00 00	 mov	 rcx, QWORD PTR cckd$[rsp]
  0046a	48 8b 84 01 f0
	01 00 00	 mov	 rax, QWORD PTR [rcx+rax+496]
  00472	48 8b 8c 24 b0
	00 00 00	 mov	 rcx, QWORD PTR usize$[rsp]
  0047a	48 03 c8	 add	 rcx, rax
  0047d	48 8b c1	 mov	 rax, rcx
  00480	48 89 84 24 b0
	00 00 00	 mov	 QWORD PTR usize$[rsp], rax
$LN17@cckd64_sf_:

; 4032 :         ufree += cckd->cdevhdr[i].free_total;

  00488	48 63 84 24 98
	00 00 00	 movsxd	 rax, DWORD PTR i$[rsp]
  00490	48 69 c0 00 02
	00 00		 imul	 rax, rax, 512		; 00000200H
  00497	48 8b 8c 24 a0
	00 00 00	 mov	 rcx, QWORD PTR cckd$[rsp]
  0049f	48 8b 84 01 08
	02 00 00	 mov	 rax, QWORD PTR [rcx+rax+520]
  004a7	48 8b 8c 24 10
	01 00 00	 mov	 rcx, QWORD PTR ufree$[rsp]
  004af	48 03 c8	 add	 rcx, rax
  004b2	48 8b c1	 mov	 rax, rcx
  004b5	48 89 84 24 10
	01 00 00	 mov	 QWORD PTR ufree$[rsp], rax

; 4033 :         free_count += cckd->cdevhdr[i].free_num;

  004bd	48 63 84 24 98
	00 00 00	 movsxd	 rax, DWORD PTR i$[rsp]
  004c5	48 69 c0 00 02
	00 00		 imul	 rax, rax, 512		; 00000200H
  004cc	48 8b 8c 24 a0
	00 00 00	 mov	 rcx, QWORD PTR cckd$[rsp]
  004d4	48 8b 84 01 18
	02 00 00	 mov	 rax, QWORD PTR [rcx+rax+536]
  004dc	48 8b 8c 24 18
	01 00 00	 mov	 rcx, QWORD PTR free_count$[rsp]
  004e4	48 03 c8	 add	 rcx, rax
  004e7	48 8b c1	 mov	 rax, rcx
  004ea	48 89 84 24 18
	01 00 00	 mov	 QWORD PTR free_count$[rsp], rax

; 4034 :     }

  004f2	e9 18 ff ff ff	 jmp	 $LN5@cckd64_sf_
$LN6@cckd64_sf_:

; 4035 : 
; 4036 :     /* header */
; 4037 : 
; 4038 :     // "%1d:%04X   32/64       size free  nbr st   reads  writes l2reads    hits switches"
; 4039 :     WRMSG (HHC00333, "I", LCSS_DEVNUM);

  004f7	48 83 bc 24 90
	00 00 00 00	 cmp	 QWORD PTR dev$[rsp], 0
  00500	74 15		 je	 SHORT $LN32@cckd64_sf_
  00502	48 8b 84 24 90
	00 00 00	 mov	 rax, QWORD PTR dev$[rsp]
  0050a	0f b7 40 48	 movzx	 eax, WORD PTR [rax+72]
  0050e	89 84 24 c0 00
	00 00		 mov	 DWORD PTR tv216[rsp], eax
  00515	eb 0b		 jmp	 SHORT $LN33@cckd64_sf_
$LN32@cckd64_sf_:
  00517	c7 84 24 c0 00
	00 00 00 00 00
	00		 mov	 DWORD PTR tv216[rsp], 0
$LN33@cckd64_sf_:
  00522	48 83 bc 24 90
	00 00 00 00	 cmp	 QWORD PTR dev$[rsp], 0
  0052b	74 17		 je	 SHORT $LN34@cckd64_sf_
  0052d	48 8b 84 24 90
	00 00 00	 mov	 rax, QWORD PTR dev$[rsp]
  00535	0f b7 40 44	 movzx	 eax, WORD PTR [rax+68]
  00539	d1 f8		 sar	 eax, 1
  0053b	89 84 24 c4 00
	00 00		 mov	 DWORD PTR tv222[rsp], eax
  00542	eb 0b		 jmp	 SHORT $LN35@cckd64_sf_
$LN34@cckd64_sf_:
  00544	c7 84 24 c4 00
	00 00 00 00 00
	00		 mov	 DWORD PTR tv222[rsp], 0
$LN35@cckd64_sf_:
  0054f	b9 01 00 00 00	 mov	 ecx, 1
  00554	ff 15 00 00 00
	00		 call	 QWORD PTR __imp___acrt_iob_func
  0055a	8b 8c 24 c0 00
	00 00		 mov	 ecx, DWORD PTR tv216[rsp]
  00561	89 4c 24 40	 mov	 DWORD PTR [rsp+64], ecx
  00565	8b 8c 24 c4 00
	00 00		 mov	 ecx, DWORD PTR tv222[rsp]
  0056c	89 4c 24 38	 mov	 DWORD PTR [rsp+56], ecx
  00570	48 8d 0d 00 00
	00 00		 lea	 rcx, OFFSET FLAT:$SG171662
  00577	48 89 4c 24 30	 mov	 QWORD PTR [rsp+48], rcx
  0057c	48 8d 0d 00 00
	00 00		 lea	 rcx, OFFSET FLAT:$SG171663
  00583	48 89 4c 24 28	 mov	 QWORD PTR [rsp+40], rcx
  00588	48 89 44 24 20	 mov	 QWORD PTR [rsp+32], rax
  0058d	41 b9 03 00 00
	00		 mov	 r9d, 3
  00593	4c 8d 05 00 00
	00 00		 lea	 r8, OFFSET FLAT:$SG171664
  0059a	ba c7 0f 00 00	 mov	 edx, 4039		; 00000fc7H
  0059f	48 8d 0d 00 00
	00 00		 lea	 rcx, OFFSET FLAT:$SG171665
  005a6	ff 15 00 00 00
	00		 call	 QWORD PTR __imp_fwritemsg

; 4040 : 
; 4041 :     if (cckd->readaheads || cckd->misses)

  005ac	48 8b 84 24 a0
	00 00 00	 mov	 rax, QWORD PTR cckd$[rsp]
  005b4	83 b8 e4 00 00
	00 00		 cmp	 DWORD PTR [rax+228], 0
  005bb	75 15		 jne	 SHORT $LN19@cckd64_sf_
  005bd	48 8b 84 24 a0
	00 00 00	 mov	 rax, QWORD PTR cckd$[rsp]
  005c5	83 b8 ec 00 00
	00 00		 cmp	 DWORD PTR [rax+236], 0
  005cc	0f 84 b5 00 00
	00		 je	 $LN18@cckd64_sf_
$LN19@cckd64_sf_:

; 4042 :     // "%1d:%04X                                                      readaheads   misses"
; 4043 :     WRMSG (HHC00334, "I", LCSS_DEVNUM);

  005d2	48 83 bc 24 90
	00 00 00 00	 cmp	 QWORD PTR dev$[rsp], 0
  005db	74 15		 je	 SHORT $LN36@cckd64_sf_
  005dd	48 8b 84 24 90
	00 00 00	 mov	 rax, QWORD PTR dev$[rsp]
  005e5	0f b7 40 48	 movzx	 eax, WORD PTR [rax+72]
  005e9	89 84 24 c8 00
	00 00		 mov	 DWORD PTR tv240[rsp], eax
  005f0	eb 0b		 jmp	 SHORT $LN37@cckd64_sf_
$LN36@cckd64_sf_:
  005f2	c7 84 24 c8 00
	00 00 00 00 00
	00		 mov	 DWORD PTR tv240[rsp], 0
$LN37@cckd64_sf_:
  005fd	48 83 bc 24 90
	00 00 00 00	 cmp	 QWORD PTR dev$[rsp], 0
  00606	74 17		 je	 SHORT $LN38@cckd64_sf_
  00608	48 8b 84 24 90
	00 00 00	 mov	 rax, QWORD PTR dev$[rsp]
  00610	0f b7 40 44	 movzx	 eax, WORD PTR [rax+68]
  00614	d1 f8		 sar	 eax, 1
  00616	89 84 24 cc 00
	00 00		 mov	 DWORD PTR tv246[rsp], eax
  0061d	eb 0b		 jmp	 SHORT $LN39@cckd64_sf_
$LN38@cckd64_sf_:
  0061f	c7 84 24 cc 00
	00 00 00 00 00
	00		 mov	 DWORD PTR tv246[rsp], 0
$LN39@cckd64_sf_:
  0062a	b9 01 00 00 00	 mov	 ecx, 1
  0062f	ff 15 00 00 00
	00		 call	 QWORD PTR __imp___acrt_iob_func
  00635	8b 8c 24 c8 00
	00 00		 mov	 ecx, DWORD PTR tv240[rsp]
  0063c	89 4c 24 40	 mov	 DWORD PTR [rsp+64], ecx
  00640	8b 8c 24 cc 00
	00 00		 mov	 ecx, DWORD PTR tv246[rsp]
  00647	89 4c 24 38	 mov	 DWORD PTR [rsp+56], ecx
  0064b	48 8d 0d 00 00
	00 00		 lea	 rcx, OFFSET FLAT:$SG171668
  00652	48 89 4c 24 30	 mov	 QWORD PTR [rsp+48], rcx
  00657	48 8d 0d 00 00
	00 00		 lea	 rcx, OFFSET FLAT:$SG171669
  0065e	48 89 4c 24 28	 mov	 QWORD PTR [rsp+40], rcx
  00663	48 89 44 24 20	 mov	 QWORD PTR [rsp+32], rax
  00668	41 b9 03 00 00
	00		 mov	 r9d, 3
  0066e	4c 8d 05 00 00
	00 00		 lea	 r8, OFFSET FLAT:$SG171670
  00675	ba cb 0f 00 00	 mov	 edx, 4043		; 00000fcbH
  0067a	48 8d 0d 00 00
	00 00		 lea	 rcx, OFFSET FLAT:$SG171671
  00681	ff 15 00 00 00
	00		 call	 QWORD PTR __imp_fwritemsg
$LN18@cckd64_sf_:

; 4044 : 
; 4045 :     // "%1d:%04X ------------------------------------------------------------------------"
; 4046 :     WRMSG (HHC00335, "I", LCSS_DEVNUM);

  00687	48 83 bc 24 90
	00 00 00 00	 cmp	 QWORD PTR dev$[rsp], 0
  00690	74 15		 je	 SHORT $LN40@cckd64_sf_
  00692	48 8b 84 24 90
	00 00 00	 mov	 rax, QWORD PTR dev$[rsp]
  0069a	0f b7 40 48	 movzx	 eax, WORD PTR [rax+72]
  0069e	89 84 24 d0 00
	00 00		 mov	 DWORD PTR tv260[rsp], eax
  006a5	eb 0b		 jmp	 SHORT $LN41@cckd64_sf_
$LN40@cckd64_sf_:
  006a7	c7 84 24 d0 00
	00 00 00 00 00
	00		 mov	 DWORD PTR tv260[rsp], 0
$LN41@cckd64_sf_:
  006b2	48 83 bc 24 90
	00 00 00 00	 cmp	 QWORD PTR dev$[rsp], 0
  006bb	74 17		 je	 SHORT $LN42@cckd64_sf_
  006bd	48 8b 84 24 90
	00 00 00	 mov	 rax, QWORD PTR dev$[rsp]
  006c5	0f b7 40 44	 movzx	 eax, WORD PTR [rax+68]
  006c9	d1 f8		 sar	 eax, 1
  006cb	89 84 24 d4 00
	00 00		 mov	 DWORD PTR tv266[rsp], eax
  006d2	eb 0b		 jmp	 SHORT $LN43@cckd64_sf_
$LN42@cckd64_sf_:
  006d4	c7 84 24 d4 00
	00 00 00 00 00
	00		 mov	 DWORD PTR tv266[rsp], 0
$LN43@cckd64_sf_:
  006df	b9 01 00 00 00	 mov	 ecx, 1
  006e4	ff 15 00 00 00
	00		 call	 QWORD PTR __imp___acrt_iob_func
  006ea	8b 8c 24 d0 00
	00 00		 mov	 ecx, DWORD PTR tv260[rsp]
  006f1	89 4c 24 40	 mov	 DWORD PTR [rsp+64], ecx
  006f5	8b 8c 24 d4 00
	00 00		 mov	 ecx, DWORD PTR tv266[rsp]
  006fc	89 4c 24 38	 mov	 DWORD PTR [rsp+56], ecx
  00700	48 8d 0d 00 00
	00 00		 lea	 rcx, OFFSET FLAT:$SG171672
  00707	48 89 4c 24 30	 mov	 QWORD PTR [rsp+48], rcx
  0070c	48 8d 0d 00 00
	00 00		 lea	 rcx, OFFSET FLAT:$SG171673
  00713	48 89 4c 24 28	 mov	 QWORD PTR [rsp+40], rcx
  00718	48 89 44 24 20	 mov	 QWORD PTR [rsp+32], rax
  0071d	41 b9 03 00 00
	00		 mov	 r9d, 3
  00723	4c 8d 05 00 00
	00 00		 lea	 r8, OFFSET FLAT:$SG171674
  0072a	ba ce 0f 00 00	 mov	 edx, 4046		; 00000fceH
  0072f	48 8d 0d 00 00
	00 00		 lea	 rcx, OFFSET FLAT:$SG171675
  00736	ff 15 00 00 00
	00		 call	 QWORD PTR __imp_fwritemsg

; 4047 : 
; 4048 :     /* total statistics */
; 4049 : 
; 4050 :     // "%1d:%04X [*] %s %11.11"PRId64" %3.3"PRId64"%% %4.4"PRId64"    %7.7d %7.7d %7.7d %7.7d  %7.7d"
; 4051 :     WRMSG( HHC00336, "I", LCSS_DEVNUM, dev->cckd64 ? "64" : "32", usize

  0073c	48 83 bc 24 b0
	00 00 00 00	 cmp	 QWORD PTR usize$[rsp], 0
  00745	74 1d		 je	 SHORT $LN44@cckd64_sf_
  00747	48 6b 84 24 10
	01 00 00 64	 imul	 rax, QWORD PTR ufree$[rsp], 100 ; 00000064H
  00750	33 d2		 xor	 edx, edx
  00752	48 f7 b4 24 b0
	00 00 00	 div	 QWORD PTR usize$[rsp]
  0075a	48 89 84 24 20
	01 00 00	 mov	 QWORD PTR tv323[rsp], rax
  00762	eb 0c		 jmp	 SHORT $LN45@cckd64_sf_
$LN44@cckd64_sf_:
  00764	48 c7 84 24 20
	01 00 00 e7 03
	00 00		 mov	 QWORD PTR tv323[rsp], 999 ; 000003e7H
$LN45@cckd64_sf_:
  00770	48 8b 84 24 90
	00 00 00	 mov	 rax, QWORD PTR dev$[rsp]
  00778	0f b6 80 10 13
	00 00		 movzx	 eax, BYTE PTR [rax+4880]
  0077f	24 01		 and	 al, 1
  00781	0f b6 c0	 movzx	 eax, al
  00784	85 c0		 test	 eax, eax
  00786	74 11		 je	 SHORT $LN46@cckd64_sf_
  00788	48 8d 05 00 00
	00 00		 lea	 rax, OFFSET FLAT:$SG171676
  0078f	48 89 84 24 28
	01 00 00	 mov	 QWORD PTR tv330[rsp], rax
  00797	eb 0f		 jmp	 SHORT $LN47@cckd64_sf_
$LN46@cckd64_sf_:
  00799	48 8d 05 00 00
	00 00		 lea	 rax, OFFSET FLAT:$SG171677
  007a0	48 89 84 24 28
	01 00 00	 mov	 QWORD PTR tv330[rsp], rax
$LN47@cckd64_sf_:
  007a8	48 83 bc 24 90
	00 00 00 00	 cmp	 QWORD PTR dev$[rsp], 0
  007b1	74 15		 je	 SHORT $LN48@cckd64_sf_
  007b3	48 8b 84 24 90
	00 00 00	 mov	 rax, QWORD PTR dev$[rsp]
  007bb	0f b7 40 48	 movzx	 eax, WORD PTR [rax+72]
  007bf	89 84 24 d8 00
	00 00		 mov	 DWORD PTR tv335[rsp], eax
  007c6	eb 0b		 jmp	 SHORT $LN49@cckd64_sf_
$LN48@cckd64_sf_:
  007c8	c7 84 24 d8 00
	00 00 00 00 00
	00		 mov	 DWORD PTR tv335[rsp], 0
$LN49@cckd64_sf_:
  007d3	48 83 bc 24 90
	00 00 00 00	 cmp	 QWORD PTR dev$[rsp], 0
  007dc	74 17		 je	 SHORT $LN50@cckd64_sf_
  007de	48 8b 84 24 90
	00 00 00	 mov	 rax, QWORD PTR dev$[rsp]
  007e6	0f b7 40 44	 movzx	 eax, WORD PTR [rax+68]
  007ea	d1 f8		 sar	 eax, 1
  007ec	89 84 24 dc 00
	00 00		 mov	 DWORD PTR tv341[rsp], eax
  007f3	eb 0b		 jmp	 SHORT $LN51@cckd64_sf_
$LN50@cckd64_sf_:
  007f5	c7 84 24 dc 00
	00 00 00 00 00
	00		 mov	 DWORD PTR tv341[rsp], 0
$LN51@cckd64_sf_:
  00800	b9 01 00 00 00	 mov	 ecx, 1
  00805	ff 15 00 00 00
	00		 call	 QWORD PTR __imp___acrt_iob_func
  0080b	48 8b 8c 24 a0
	00 00 00	 mov	 rcx, QWORD PTR cckd$[rsp]
  00813	8b 89 e8 00 00
	00		 mov	 ecx, DWORD PTR [rcx+232]
  00819	89 8c 24 88 00
	00 00		 mov	 DWORD PTR [rsp+136], ecx
  00820	48 8b 8c 24 a0
	00 00 00	 mov	 rcx, QWORD PTR cckd$[rsp]
  00828	8b 89 e0 00 00
	00		 mov	 ecx, DWORD PTR [rcx+224]
  0082e	89 8c 24 80 00
	00 00		 mov	 DWORD PTR [rsp+128], ecx
  00835	48 8b 8c 24 a0
	00 00 00	 mov	 rcx, QWORD PTR cckd$[rsp]
  0083d	8b 89 dc 00 00
	00		 mov	 ecx, DWORD PTR [rcx+220]
  00843	89 4c 24 78	 mov	 DWORD PTR [rsp+120], ecx
  00847	48 8b 8c 24 a0
	00 00 00	 mov	 rcx, QWORD PTR cckd$[rsp]
  0084f	8b 89 d8 00 00
	00		 mov	 ecx, DWORD PTR [rcx+216]
  00855	89 4c 24 70	 mov	 DWORD PTR [rsp+112], ecx
  00859	48 8b 8c 24 a0
	00 00 00	 mov	 rcx, QWORD PTR cckd$[rsp]
  00861	8b 89 d4 00 00
	00		 mov	 ecx, DWORD PTR [rcx+212]
  00867	89 4c 24 68	 mov	 DWORD PTR [rsp+104], ecx
  0086b	48 8b 8c 24 18
	01 00 00	 mov	 rcx, QWORD PTR free_count$[rsp]
  00873	48 89 4c 24 60	 mov	 QWORD PTR [rsp+96], rcx
  00878	48 8b 8c 24 20
	01 00 00	 mov	 rcx, QWORD PTR tv323[rsp]
  00880	48 89 4c 24 58	 mov	 QWORD PTR [rsp+88], rcx
  00885	48 8b 8c 24 b0
	00 00 00	 mov	 rcx, QWORD PTR usize$[rsp]
  0088d	48 89 4c 24 50	 mov	 QWORD PTR [rsp+80], rcx
  00892	48 8b 8c 24 28
	01 00 00	 mov	 rcx, QWORD PTR tv330[rsp]
  0089a	48 89 4c 24 48	 mov	 QWORD PTR [rsp+72], rcx
  0089f	8b 8c 24 d8 00
	00 00		 mov	 ecx, DWORD PTR tv335[rsp]
  008a6	89 4c 24 40	 mov	 DWORD PTR [rsp+64], ecx
  008aa	8b 8c 24 dc 00
	00 00		 mov	 ecx, DWORD PTR tv341[rsp]
  008b1	89 4c 24 38	 mov	 DWORD PTR [rsp+56], ecx
  008b5	48 8d 0d 00 00
	00 00		 lea	 rcx, OFFSET FLAT:$SG171678
  008bc	48 89 4c 24 30	 mov	 QWORD PTR [rsp+48], rcx
  008c1	48 8d 0d 00 00
	00 00		 lea	 rcx, OFFSET FLAT:$SG171679
  008c8	48 89 4c 24 28	 mov	 QWORD PTR [rsp+40], rcx
  008cd	48 89 44 24 20	 mov	 QWORD PTR [rsp+32], rax
  008d2	41 b9 03 00 00
	00		 mov	 r9d, 3
  008d8	4c 8d 05 00 00
	00 00		 lea	 r8, OFFSET FLAT:$SG171680
  008df	ba dc 0f 00 00	 mov	 edx, 4060		; 00000fdcH
  008e4	48 8d 0d 00 00
	00 00		 lea	 rcx, OFFSET FLAT:$SG171681
  008eb	ff 15 00 00 00
	00		 call	 QWORD PTR __imp_fwritemsg

; 4052 : 
; 4053 :         , usize ? (ufree * 100) / usize : 999
; 4054 :         , free_count
; 4055 :         , cckd->totreads
; 4056 :         , cckd->totwrites
; 4057 :         , cckd->totl2reads
; 4058 :         , cckd->cachehits
; 4059 :         , cckd->switches
; 4060 :     );
; 4061 : 
; 4062 :     if (cckd->readaheads || cckd->misses)

  008f1	48 8b 84 24 a0
	00 00 00	 mov	 rax, QWORD PTR cckd$[rsp]
  008f9	83 b8 e4 00 00
	00 00		 cmp	 DWORD PTR [rax+228], 0
  00900	75 15		 jne	 SHORT $LN21@cckd64_sf_
  00902	48 8b 84 24 a0
	00 00 00	 mov	 rax, QWORD PTR cckd$[rsp]
  0090a	83 b8 ec 00 00
	00 00		 cmp	 DWORD PTR [rax+236], 0
  00911	0f 84 d9 00 00
	00		 je	 $LN20@cckd64_sf_
$LN21@cckd64_sf_:

; 4063 :     // "%1d:%04X                                                         %7.7d  %7.7d"
; 4064 :     WRMSG (HHC00337, "I", LCSS_DEVNUM,

  00917	48 83 bc 24 90
	00 00 00 00	 cmp	 QWORD PTR dev$[rsp], 0
  00920	74 15		 je	 SHORT $LN52@cckd64_sf_
  00922	48 8b 84 24 90
	00 00 00	 mov	 rax, QWORD PTR dev$[rsp]
  0092a	0f b7 40 48	 movzx	 eax, WORD PTR [rax+72]
  0092e	89 84 24 e0 00
	00 00		 mov	 DWORD PTR tv363[rsp], eax
  00935	eb 0b		 jmp	 SHORT $LN53@cckd64_sf_
$LN52@cckd64_sf_:
  00937	c7 84 24 e0 00
	00 00 00 00 00
	00		 mov	 DWORD PTR tv363[rsp], 0
$LN53@cckd64_sf_:
  00942	48 83 bc 24 90
	00 00 00 00	 cmp	 QWORD PTR dev$[rsp], 0
  0094b	74 17		 je	 SHORT $LN54@cckd64_sf_
  0094d	48 8b 84 24 90
	00 00 00	 mov	 rax, QWORD PTR dev$[rsp]
  00955	0f b7 40 44	 movzx	 eax, WORD PTR [rax+68]
  00959	d1 f8		 sar	 eax, 1
  0095b	89 84 24 e4 00
	00 00		 mov	 DWORD PTR tv369[rsp], eax
  00962	eb 0b		 jmp	 SHORT $LN55@cckd64_sf_
$LN54@cckd64_sf_:
  00964	c7 84 24 e4 00
	00 00 00 00 00
	00		 mov	 DWORD PTR tv369[rsp], 0
$LN55@cckd64_sf_:
  0096f	b9 01 00 00 00	 mov	 ecx, 1
  00974	ff 15 00 00 00
	00		 call	 QWORD PTR __imp___acrt_iob_func
  0097a	48 8b 8c 24 a0
	00 00 00	 mov	 rcx, QWORD PTR cckd$[rsp]
  00982	8b 89 ec 00 00
	00		 mov	 ecx, DWORD PTR [rcx+236]
  00988	89 4c 24 50	 mov	 DWORD PTR [rsp+80], ecx
  0098c	48 8b 8c 24 a0
	00 00 00	 mov	 rcx, QWORD PTR cckd$[rsp]
  00994	8b 89 e4 00 00
	00		 mov	 ecx, DWORD PTR [rcx+228]
  0099a	89 4c 24 48	 mov	 DWORD PTR [rsp+72], ecx
  0099e	8b 8c 24 e0 00
	00 00		 mov	 ecx, DWORD PTR tv363[rsp]
  009a5	89 4c 24 40	 mov	 DWORD PTR [rsp+64], ecx
  009a9	8b 8c 24 e4 00
	00 00		 mov	 ecx, DWORD PTR tv369[rsp]
  009b0	89 4c 24 38	 mov	 DWORD PTR [rsp+56], ecx
  009b4	48 8d 0d 00 00
	00 00		 lea	 rcx, OFFSET FLAT:$SG171684
  009bb	48 89 4c 24 30	 mov	 QWORD PTR [rsp+48], rcx
  009c0	48 8d 0d 00 00
	00 00		 lea	 rcx, OFFSET FLAT:$SG171685
  009c7	48 89 4c 24 28	 mov	 QWORD PTR [rsp+40], rcx
  009cc	48 89 44 24 20	 mov	 QWORD PTR [rsp+32], rax
  009d1	41 b9 03 00 00
	00		 mov	 r9d, 3
  009d7	4c 8d 05 00 00
	00 00		 lea	 r8, OFFSET FLAT:$SG171686
  009de	ba e1 0f 00 00	 mov	 edx, 4065		; 00000fe1H
  009e3	48 8d 0d 00 00
	00 00		 lea	 rcx, OFFSET FLAT:$SG171687
  009ea	ff 15 00 00 00
	00		 call	 QWORD PTR __imp_fwritemsg
$LN20@cckd64_sf_:

; 4065 :             cckd->readaheads, cckd->misses);
; 4066 : 
; 4067 :     /* base file statistics */
; 4068 : 
; 4069 :     // "%1d:%04X %s"
; 4070 :     WRMSG (HHC00338, "I", LCSS_DEVNUM, dev->filename);

  009f0	48 83 bc 24 90
	00 00 00 00	 cmp	 QWORD PTR dev$[rsp], 0
  009f9	74 15		 je	 SHORT $LN56@cckd64_sf_
  009fb	48 8b 84 24 90
	00 00 00	 mov	 rax, QWORD PTR dev$[rsp]
  00a03	0f b7 40 48	 movzx	 eax, WORD PTR [rax+72]
  00a07	89 84 24 e8 00
	00 00		 mov	 DWORD PTR tv385[rsp], eax
  00a0e	eb 0b		 jmp	 SHORT $LN57@cckd64_sf_
$LN56@cckd64_sf_:
  00a10	c7 84 24 e8 00
	00 00 00 00 00
	00		 mov	 DWORD PTR tv385[rsp], 0
$LN57@cckd64_sf_:
  00a1b	48 83 bc 24 90
	00 00 00 00	 cmp	 QWORD PTR dev$[rsp], 0
  00a24	74 17		 je	 SHORT $LN58@cckd64_sf_
  00a26	48 8b 84 24 90
	00 00 00	 mov	 rax, QWORD PTR dev$[rsp]
  00a2e	0f b7 40 44	 movzx	 eax, WORD PTR [rax+68]
  00a32	d1 f8		 sar	 eax, 1
  00a34	89 84 24 ec 00
	00 00		 mov	 DWORD PTR tv391[rsp], eax
  00a3b	eb 0b		 jmp	 SHORT $LN59@cckd64_sf_
$LN58@cckd64_sf_:
  00a3d	c7 84 24 ec 00
	00 00 00 00 00
	00		 mov	 DWORD PTR tv391[rsp], 0
$LN59@cckd64_sf_:
  00a48	48 8b 84 24 90
	00 00 00	 mov	 rax, QWORD PTR dev$[rsp]
  00a50	48 05 a4 00 00
	00		 add	 rax, 164		; 000000a4H
  00a56	48 89 84 24 58
	01 00 00	 mov	 QWORD PTR tv380[rsp], rax
  00a5e	b9 01 00 00 00	 mov	 ecx, 1
  00a63	ff 15 00 00 00
	00		 call	 QWORD PTR __imp___acrt_iob_func
  00a69	48 8b 8c 24 58
	01 00 00	 mov	 rcx, QWORD PTR tv380[rsp]
  00a71	48 89 4c 24 48	 mov	 QWORD PTR [rsp+72], rcx
  00a76	8b 8c 24 e8 00
	00 00		 mov	 ecx, DWORD PTR tv385[rsp]
  00a7d	89 4c 24 40	 mov	 DWORD PTR [rsp+64], ecx
  00a81	8b 8c 24 ec 00
	00 00		 mov	 ecx, DWORD PTR tv391[rsp]
  00a88	89 4c 24 38	 mov	 DWORD PTR [rsp+56], ecx
  00a8c	48 8d 0d 00 00
	00 00		 lea	 rcx, OFFSET FLAT:$SG171688
  00a93	48 89 4c 24 30	 mov	 QWORD PTR [rsp+48], rcx
  00a98	48 8d 0d 00 00
	00 00		 lea	 rcx, OFFSET FLAT:$SG171689
  00a9f	48 89 4c 24 28	 mov	 QWORD PTR [rsp+40], rcx
  00aa4	48 89 44 24 20	 mov	 QWORD PTR [rsp+32], rax
  00aa9	41 b9 03 00 00
	00		 mov	 r9d, 3
  00aaf	4c 8d 05 00 00
	00 00		 lea	 r8, OFFSET FLAT:$SG171690
  00ab6	ba e6 0f 00 00	 mov	 edx, 4070		; 00000fe6H
  00abb	48 8d 0d 00 00
	00 00		 lea	 rcx, OFFSET FLAT:$SG171691
  00ac2	ff 15 00 00 00
	00		 call	 QWORD PTR __imp_fwritemsg

; 4071 : 
; 4072 :     // "%1d:%04X [0] %s %11.11"PRId64" %3.3"PRId64"%% %4.4"PRId64" %s %7.7d %7.7d %7.7d"
; 4073 :     WRMSG( HHC00339, "I", LCSS_DEVNUM, dev->cckd64 ? "64" : "32", st.st_size

  00ac8	48 83 bc 24 c8
	01 00 00 00	 cmp	 QWORD PTR st$[rsp+24], 0
  00ad1	74 2e		 je	 SHORT $LN60@cckd64_sf_
  00ad3	b8 00 02 00 00	 mov	 eax, 512		; 00000200H
  00ad8	48 6b c0 00	 imul	 rax, rax, 0
  00adc	48 8b 8c 24 a0
	00 00 00	 mov	 rcx, QWORD PTR cckd$[rsp]
  00ae4	48 6b 84 01 08
	02 00 00 64	 imul	 rax, QWORD PTR [rcx+rax+520], 100 ; 00000064H
  00aed	48 99		 cdq
  00aef	48 f7 bc 24 c8
	01 00 00	 idiv	 QWORD PTR st$[rsp+24]
  00af7	48 89 84 24 30
	01 00 00	 mov	 QWORD PTR tv433[rsp], rax
  00aff	eb 0c		 jmp	 SHORT $LN61@cckd64_sf_
$LN60@cckd64_sf_:
  00b01	48 c7 84 24 30
	01 00 00 e7 03
	00 00		 mov	 QWORD PTR tv433[rsp], 999 ; 000003e7H
$LN61@cckd64_sf_:
  00b0d	48 8b 84 24 90
	00 00 00	 mov	 rax, QWORD PTR dev$[rsp]
  00b15	0f b6 80 10 13
	00 00		 movzx	 eax, BYTE PTR [rax+4880]
  00b1c	24 01		 and	 al, 1
  00b1e	0f b6 c0	 movzx	 eax, al
  00b21	85 c0		 test	 eax, eax
  00b23	74 11		 je	 SHORT $LN62@cckd64_sf_
  00b25	48 8d 05 00 00
	00 00		 lea	 rax, OFFSET FLAT:$SG171692
  00b2c	48 89 84 24 38
	01 00 00	 mov	 QWORD PTR tv440[rsp], rax
  00b34	eb 0f		 jmp	 SHORT $LN63@cckd64_sf_
$LN62@cckd64_sf_:
  00b36	48 8d 05 00 00
	00 00		 lea	 rax, OFFSET FLAT:$SG171693
  00b3d	48 89 84 24 38
	01 00 00	 mov	 QWORD PTR tv440[rsp], rax
$LN63@cckd64_sf_:
  00b45	48 83 bc 24 90
	00 00 00 00	 cmp	 QWORD PTR dev$[rsp], 0
  00b4e	74 15		 je	 SHORT $LN64@cckd64_sf_
  00b50	48 8b 84 24 90
	00 00 00	 mov	 rax, QWORD PTR dev$[rsp]
  00b58	0f b7 40 48	 movzx	 eax, WORD PTR [rax+72]
  00b5c	89 84 24 04 01
	00 00		 mov	 DWORD PTR tv445[rsp], eax
  00b63	eb 0b		 jmp	 SHORT $LN65@cckd64_sf_
$LN64@cckd64_sf_:
  00b65	c7 84 24 04 01
	00 00 00 00 00
	00		 mov	 DWORD PTR tv445[rsp], 0
$LN65@cckd64_sf_:
  00b70	48 83 bc 24 90
	00 00 00 00	 cmp	 QWORD PTR dev$[rsp], 0
  00b79	74 17		 je	 SHORT $LN66@cckd64_sf_
  00b7b	48 8b 84 24 90
	00 00 00	 mov	 rax, QWORD PTR dev$[rsp]
  00b83	0f b7 40 44	 movzx	 eax, WORD PTR [rax+68]
  00b87	d1 f8		 sar	 eax, 1
  00b89	89 84 24 f0 00
	00 00		 mov	 DWORD PTR tv451[rsp], eax
  00b90	eb 0b		 jmp	 SHORT $LN67@cckd64_sf_
$LN66@cckd64_sf_:
  00b92	c7 84 24 f0 00
	00 00 00 00 00
	00		 mov	 DWORD PTR tv451[rsp], 0
$LN67@cckd64_sf_:
  00b9d	b8 04 00 00 00	 mov	 eax, 4
  00ba2	48 6b c0 00	 imul	 rax, rax, 0
  00ba6	48 89 84 24 60
	01 00 00	 mov	 QWORD PTR tv403[rsp], rax
  00bae	b9 04 00 00 00	 mov	 ecx, 4
  00bb3	48 6b c9 00	 imul	 rcx, rcx, 0
  00bb7	48 89 8c 24 68
	01 00 00	 mov	 QWORD PTR tv407[rsp], rcx
  00bbf	ba 04 00 00 00	 mov	 edx, 4
  00bc4	48 6b d2 00	 imul	 rdx, rdx, 0
  00bc8	48 89 94 24 70
	01 00 00	 mov	 QWORD PTR tv411[rsp], rdx
  00bd0	bf 01 00 00 00	 mov	 edi, 1
  00bd5	48 6b ff 00	 imul	 rdi, rdi, 0
  00bd9	4c 8b 84 24 a0
	00 00 00	 mov	 r8, QWORD PTR cckd$[rsp]
  00be1	41 0f b6 bc 38
	1d 01 00 00	 movzx	 edi, BYTE PTR [r8+rdi+285]
  00bea	41 b8 00 02 00
	00		 mov	 r8d, 512		; 00000200H
  00bf0	4d 6b c0 00	 imul	 r8, r8, 0
  00bf4	4c 89 84 24 78
	01 00 00	 mov	 QWORD PTR tv422[rsp], r8
  00bfc	b9 01 00 00 00	 mov	 ecx, 1
  00c01	ff 15 00 00 00
	00		 call	 QWORD PTR __imp___acrt_iob_func
  00c07	48 8b 8c 24 a0
	00 00 00	 mov	 rcx, QWORD PTR cckd$[rsp]
  00c0f	48 8b 94 24 60
	01 00 00	 mov	 rdx, QWORD PTR tv403[rsp]
  00c17	8b 8c 11 4c 01
	00 00		 mov	 ecx, DWORD PTR [rcx+rdx+332]
  00c1e	89 8c 24 80 00
	00 00		 mov	 DWORD PTR [rsp+128], ecx
  00c25	48 8b 8c 24 a0
	00 00 00	 mov	 rcx, QWORD PTR cckd$[rsp]
  00c2d	48 8b 94 24 68
	01 00 00	 mov	 rdx, QWORD PTR tv407[rsp]
  00c35	8b 8c 11 70 01
	00 00		 mov	 ecx, DWORD PTR [rcx+rdx+368]
  00c3c	89 4c 24 78	 mov	 DWORD PTR [rsp+120], ecx
  00c40	48 8b 8c 24 a0
	00 00 00	 mov	 rcx, QWORD PTR cckd$[rsp]
  00c48	48 8b 94 24 70
	01 00 00	 mov	 rdx, QWORD PTR tv411[rsp]
  00c50	8b 8c 11 28 01
	00 00		 mov	 ecx, DWORD PTR [rcx+rdx+296]
  00c57	89 4c 24 70	 mov	 DWORD PTR [rsp+112], ecx
  00c5b	48 8b 8c fc e8
	01 00 00	 mov	 rcx, QWORD PTR ost$[rsp+rdi*8]
  00c63	48 89 4c 24 68	 mov	 QWORD PTR [rsp+104], rcx
  00c68	48 8b 8c 24 a0
	00 00 00	 mov	 rcx, QWORD PTR cckd$[rsp]
  00c70	48 8b 94 24 78
	01 00 00	 mov	 rdx, QWORD PTR tv422[rsp]
  00c78	48 8b 8c 11 18
	02 00 00	 mov	 rcx, QWORD PTR [rcx+rdx+536]
  00c80	48 89 4c 24 60	 mov	 QWORD PTR [rsp+96], rcx
  00c85	48 8b 8c 24 30
	01 00 00	 mov	 rcx, QWORD PTR tv433[rsp]
  00c8d	48 89 4c 24 58	 mov	 QWORD PTR [rsp+88], rcx
  00c92	48 8b 8c 24 c8
	01 00 00	 mov	 rcx, QWORD PTR st$[rsp+24]
  00c9a	48 89 4c 24 50	 mov	 QWORD PTR [rsp+80], rcx
  00c9f	48 8b 8c 24 38
	01 00 00	 mov	 rcx, QWORD PTR tv440[rsp]
  00ca7	48 89 4c 24 48	 mov	 QWORD PTR [rsp+72], rcx
  00cac	8b 8c 24 04 01
	00 00		 mov	 ecx, DWORD PTR tv445[rsp]
  00cb3	89 4c 24 40	 mov	 DWORD PTR [rsp+64], ecx
  00cb7	8b 8c 24 f0 00
	00 00		 mov	 ecx, DWORD PTR tv451[rsp]
  00cbe	89 4c 24 38	 mov	 DWORD PTR [rsp+56], ecx
  00cc2	48 8d 0d 00 00
	00 00		 lea	 rcx, OFFSET FLAT:$SG171694
  00cc9	48 89 4c 24 30	 mov	 QWORD PTR [rsp+48], rcx
  00cce	48 8d 0d 00 00
	00 00		 lea	 rcx, OFFSET FLAT:$SG171695
  00cd5	48 89 4c 24 28	 mov	 QWORD PTR [rsp+40], rcx
  00cda	48 89 44 24 20	 mov	 QWORD PTR [rsp+32], rax
  00cdf	41 b9 03 00 00
	00		 mov	 r9d, 3
  00ce5	4c 8d 05 00 00
	00 00		 lea	 r8, OFFSET FLAT:$SG171696
  00cec	ba f2 0f 00 00	 mov	 edx, 4082		; 00000ff2H
  00cf1	48 8d 0d 00 00
	00 00		 lea	 rcx, OFFSET FLAT:$SG171697
  00cf8	ff 15 00 00 00
	00		 call	 QWORD PTR __imp_fwritemsg

; 4074 : 
; 4075 :         , st.st_size ?
; 4076 :           ((S64)(cckd->cdevhdr[0].free_total * 100) / st.st_size) : 999
; 4077 :         ,        cckd->cdevhdr[0].free_num
; 4078 :         , ost[cckd->open[0]]
; 4079 :         , cckd->reads[0]
; 4080 :         , cckd->writes[0]
; 4081 :         , cckd->L2_reads[0]
; 4082 :     );
; 4083 : 
; 4084 :     if (dev->dasdsfn != NULL && CCKD_MAX_SF > 0)

  00cfe	48 8b 84 24 90
	00 00 00	 mov	 rax, QWORD PTR dev$[rsp]
  00d06	48 83 b8 70 11
	00 00 00	 cmp	 QWORD PTR [rax+4464], 0
  00d0e	0f 84 e7 00 00
	00		 je	 $LN22@cckd64_sf_
  00d14	33 c0		 xor	 eax, eax
  00d16	83 f8 01	 cmp	 eax, 1
  00d19	0f 84 dc 00 00
	00		 je	 $LN22@cckd64_sf_

; 4085 :         // "%1d:%04X %s"
; 4086 :         WRMSG (HHC00340, "I", LCSS_DEVNUM, cckd_sf_name(dev, -1));

  00d1f	48 83 bc 24 90
	00 00 00 00	 cmp	 QWORD PTR dev$[rsp], 0
  00d28	74 15		 je	 SHORT $LN68@cckd64_sf_
  00d2a	48 8b 84 24 90
	00 00 00	 mov	 rax, QWORD PTR dev$[rsp]
  00d32	0f b7 40 48	 movzx	 eax, WORD PTR [rax+72]
  00d36	89 84 24 f4 00
	00 00		 mov	 DWORD PTR tv472[rsp], eax
  00d3d	eb 0b		 jmp	 SHORT $LN69@cckd64_sf_
$LN68@cckd64_sf_:
  00d3f	c7 84 24 f4 00
	00 00 00 00 00
	00		 mov	 DWORD PTR tv472[rsp], 0
$LN69@cckd64_sf_:
  00d4a	48 83 bc 24 90
	00 00 00 00	 cmp	 QWORD PTR dev$[rsp], 0
  00d53	74 17		 je	 SHORT $LN70@cckd64_sf_
  00d55	48 8b 84 24 90
	00 00 00	 mov	 rax, QWORD PTR dev$[rsp]
  00d5d	0f b7 40 44	 movzx	 eax, WORD PTR [rax+68]
  00d61	d1 f8		 sar	 eax, 1
  00d63	89 84 24 f8 00
	00 00		 mov	 DWORD PTR tv478[rsp], eax
  00d6a	eb 0b		 jmp	 SHORT $LN71@cckd64_sf_
$LN70@cckd64_sf_:
  00d6c	c7 84 24 f8 00
	00 00 00 00 00
	00		 mov	 DWORD PTR tv478[rsp], 0
$LN71@cckd64_sf_:
  00d77	ba ff ff ff ff	 mov	 edx, -1
  00d7c	48 8b 8c 24 90
	00 00 00	 mov	 rcx, QWORD PTR dev$[rsp]
  00d84	e8 00 00 00 00	 call	 cckd_sf_name
  00d89	48 89 84 24 80
	01 00 00	 mov	 QWORD PTR tv465[rsp], rax
  00d91	b9 01 00 00 00	 mov	 ecx, 1
  00d96	ff 15 00 00 00
	00		 call	 QWORD PTR __imp___acrt_iob_func
  00d9c	48 8b 8c 24 80
	01 00 00	 mov	 rcx, QWORD PTR tv465[rsp]
  00da4	48 89 4c 24 48	 mov	 QWORD PTR [rsp+72], rcx
  00da9	8b 8c 24 f4 00
	00 00		 mov	 ecx, DWORD PTR tv472[rsp]
  00db0	89 4c 24 40	 mov	 DWORD PTR [rsp+64], ecx
  00db4	8b 8c 24 f8 00
	00 00		 mov	 ecx, DWORD PTR tv478[rsp]
  00dbb	89 4c 24 38	 mov	 DWORD PTR [rsp+56], ecx
  00dbf	48 8d 0d 00 00
	00 00		 lea	 rcx, OFFSET FLAT:$SG171699
  00dc6	48 89 4c 24 30	 mov	 QWORD PTR [rsp+48], rcx
  00dcb	48 8d 0d 00 00
	00 00		 lea	 rcx, OFFSET FLAT:$SG171700
  00dd2	48 89 4c 24 28	 mov	 QWORD PTR [rsp+40], rcx
  00dd7	48 89 44 24 20	 mov	 QWORD PTR [rsp+32], rax
  00ddc	41 b9 03 00 00
	00		 mov	 r9d, 3
  00de2	4c 8d 05 00 00
	00 00		 lea	 r8, OFFSET FLAT:$SG171701
  00de9	ba f6 0f 00 00	 mov	 edx, 4086		; 00000ff6H
  00dee	48 8d 0d 00 00
	00 00		 lea	 rcx, OFFSET FLAT:$SG171702
  00df5	ff 15 00 00 00
	00		 call	 QWORD PTR __imp_fwritemsg
$LN22@cckd64_sf_:

; 4087 : 
; 4088 :     /* shadow file statistics */
; 4089 :     for (i = 1; i <= cckd->sfn; i++)

  00dfb	c7 84 24 98 00
	00 00 01 00 00
	00		 mov	 DWORD PTR i$[rsp], 1
  00e06	eb 10		 jmp	 SHORT $LN10@cckd64_sf_
$LN8@cckd64_sf_:
  00e08	8b 84 24 98 00
	00 00		 mov	 eax, DWORD PTR i$[rsp]
  00e0f	ff c0		 inc	 eax
  00e11	89 84 24 98 00
	00 00		 mov	 DWORD PTR i$[rsp], eax
$LN10@cckd64_sf_:
  00e18	48 8b 84 24 a0
	00 00 00	 mov	 rax, QWORD PTR cckd$[rsp]
  00e20	8b 40 3c	 mov	 eax, DWORD PTR [rax+60]
  00e23	39 84 24 98 00
	00 00		 cmp	 DWORD PTR i$[rsp], eax
  00e2a	0f 8f a5 02 00
	00		 jg	 $LN9@cckd64_sf_

; 4090 :     {
; 4091 :         // "%1d:%04X [%d] %s %11.11"PRId64" %3.3"PRId64"%% %4.4"PRId64" %s %7.7d %7.7d %7.7d"
; 4092 :         WRMSG( HHC00341, "I", LCSS_DEVNUM, i, dev->cckd64 ? "64" : "32", (S64)cckd->cdevhdr[i].cdh_size

  00e30	48 63 84 24 98
	00 00 00	 movsxd	 rax, DWORD PTR i$[rsp]
  00e38	48 69 c0 00 02
	00 00		 imul	 rax, rax, 512		; 00000200H
  00e3f	48 8b 8c 24 a0
	00 00 00	 mov	 rcx, QWORD PTR cckd$[rsp]
  00e47	48 83 bc 01 f0
	01 00 00 00	 cmp	 QWORD PTR [rcx+rax+496], 0
  00e50	74 4b		 je	 SHORT $LN72@cckd64_sf_
  00e52	48 63 84 24 98
	00 00 00	 movsxd	 rax, DWORD PTR i$[rsp]
  00e5a	48 69 c0 00 02
	00 00		 imul	 rax, rax, 512		; 00000200H
  00e61	48 8b 8c 24 a0
	00 00 00	 mov	 rcx, QWORD PTR cckd$[rsp]
  00e69	48 6b 84 01 08
	02 00 00 64	 imul	 rax, QWORD PTR [rcx+rax+520], 100 ; 00000064H
  00e72	48 63 8c 24 98
	00 00 00	 movsxd	 rcx, DWORD PTR i$[rsp]
  00e7a	48 69 c9 00 02
	00 00		 imul	 rcx, rcx, 512		; 00000200H
  00e81	33 d2		 xor	 edx, edx
  00e83	48 8b bc 24 a0
	00 00 00	 mov	 rdi, QWORD PTR cckd$[rsp]
  00e8b	48 f7 b4 0f f0
	01 00 00	 div	 QWORD PTR [rdi+rcx+496]
  00e93	48 89 84 24 40
	01 00 00	 mov	 QWORD PTR tv539[rsp], rax
  00e9b	eb 0c		 jmp	 SHORT $LN73@cckd64_sf_
$LN72@cckd64_sf_:
  00e9d	48 c7 84 24 40
	01 00 00 e7 03
	00 00		 mov	 QWORD PTR tv539[rsp], 999 ; 000003e7H
$LN73@cckd64_sf_:
  00ea9	48 8b 84 24 90
	00 00 00	 mov	 rax, QWORD PTR dev$[rsp]
  00eb1	0f b6 80 10 13
	00 00		 movzx	 eax, BYTE PTR [rax+4880]
  00eb8	24 01		 and	 al, 1
  00eba	0f b6 c0	 movzx	 eax, al
  00ebd	85 c0		 test	 eax, eax
  00ebf	74 11		 je	 SHORT $LN74@cckd64_sf_
  00ec1	48 8d 05 00 00
	00 00		 lea	 rax, OFFSET FLAT:$SG171703
  00ec8	48 89 84 24 48
	01 00 00	 mov	 QWORD PTR tv551[rsp], rax
  00ed0	eb 0f		 jmp	 SHORT $LN75@cckd64_sf_
$LN74@cckd64_sf_:
  00ed2	48 8d 05 00 00
	00 00		 lea	 rax, OFFSET FLAT:$SG171704
  00ed9	48 89 84 24 48
	01 00 00	 mov	 QWORD PTR tv551[rsp], rax
$LN75@cckd64_sf_:
  00ee1	48 83 bc 24 90
	00 00 00 00	 cmp	 QWORD PTR dev$[rsp], 0
  00eea	74 15		 je	 SHORT $LN76@cckd64_sf_
  00eec	48 8b 84 24 90
	00 00 00	 mov	 rax, QWORD PTR dev$[rsp]
  00ef4	0f b7 40 48	 movzx	 eax, WORD PTR [rax+72]
  00ef8	89 84 24 fc 00
	00 00		 mov	 DWORD PTR tv557[rsp], eax
  00eff	eb 0b		 jmp	 SHORT $LN77@cckd64_sf_
$LN76@cckd64_sf_:
  00f01	c7 84 24 fc 00
	00 00 00 00 00
	00		 mov	 DWORD PTR tv557[rsp], 0
$LN77@cckd64_sf_:
  00f0c	48 83 bc 24 90
	00 00 00 00	 cmp	 QWORD PTR dev$[rsp], 0
  00f15	74 17		 je	 SHORT $LN78@cckd64_sf_
  00f17	48 8b 84 24 90
	00 00 00	 mov	 rax, QWORD PTR dev$[rsp]
  00f1f	0f b7 40 44	 movzx	 eax, WORD PTR [rax+68]
  00f23	d1 f8		 sar	 eax, 1
  00f25	89 84 24 00 01
	00 00		 mov	 DWORD PTR tv563[rsp], eax
  00f2c	eb 0b		 jmp	 SHORT $LN79@cckd64_sf_
$LN78@cckd64_sf_:
  00f2e	c7 84 24 00 01
	00 00 00 00 00
	00		 mov	 DWORD PTR tv563[rsp], 0
$LN79@cckd64_sf_:
  00f39	48 63 84 24 98
	00 00 00	 movsxd	 rax, DWORD PTR i$[rsp]
  00f41	48 89 84 24 88
	01 00 00	 mov	 QWORD PTR tv493[rsp], rax
  00f49	48 63 8c 24 98
	00 00 00	 movsxd	 rcx, DWORD PTR i$[rsp]
  00f51	48 89 8c 24 90
	01 00 00	 mov	 QWORD PTR tv498[rsp], rcx
  00f59	48 63 94 24 98
	00 00 00	 movsxd	 rdx, DWORD PTR i$[rsp]
  00f61	48 89 94 24 98
	01 00 00	 mov	 QWORD PTR tv503[rsp], rdx
  00f69	48 63 bc 24 98
	00 00 00	 movsxd	 rdi, DWORD PTR i$[rsp]
  00f71	4c 8b 84 24 a0
	00 00 00	 mov	 r8, QWORD PTR cckd$[rsp]
  00f79	41 0f b6 bc 38
	1d 01 00 00	 movzx	 edi, BYTE PTR [r8+rdi+285]
  00f82	4c 63 84 24 98
	00 00 00	 movsxd	 r8, DWORD PTR i$[rsp]
  00f8a	4d 69 c0 00 02
	00 00		 imul	 r8, r8, 512		; 00000200H
  00f91	4c 89 84 24 a0
	01 00 00	 mov	 QWORD PTR tv517[rsp], r8
  00f99	4c 63 8c 24 98
	00 00 00	 movsxd	 r9, DWORD PTR i$[rsp]
  00fa1	4d 69 c9 00 02
	00 00		 imul	 r9, r9, 512		; 00000200H
  00fa8	4c 89 8c 24 a8
	01 00 00	 mov	 QWORD PTR tv543[rsp], r9
  00fb0	b9 01 00 00 00	 mov	 ecx, 1
  00fb5	ff 15 00 00 00
	00		 call	 QWORD PTR __imp___acrt_iob_func
  00fbb	48 8b 8c 24 a0
	00 00 00	 mov	 rcx, QWORD PTR cckd$[rsp]
  00fc3	48 8b 94 24 88
	01 00 00	 mov	 rdx, QWORD PTR tv493[rsp]
  00fcb	8b 8c 91 4c 01
	00 00		 mov	 ecx, DWORD PTR [rcx+rdx*4+332]
  00fd2	89 8c 24 88 00
	00 00		 mov	 DWORD PTR [rsp+136], ecx
  00fd9	48 8b 8c 24 a0
	00 00 00	 mov	 rcx, QWORD PTR cckd$[rsp]
  00fe1	48 8b 94 24 90
	01 00 00	 mov	 rdx, QWORD PTR tv498[rsp]
  00fe9	8b 8c 91 70 01
	00 00		 mov	 ecx, DWORD PTR [rcx+rdx*4+368]
  00ff0	89 8c 24 80 00
	00 00		 mov	 DWORD PTR [rsp+128], ecx
  00ff7	48 8b 8c 24 a0
	00 00 00	 mov	 rcx, QWORD PTR cckd$[rsp]
  00fff	48 8b 94 24 98
	01 00 00	 mov	 rdx, QWORD PTR tv503[rsp]
  01007	8b 8c 91 28 01
	00 00		 mov	 ecx, DWORD PTR [rcx+rdx*4+296]
  0100e	89 4c 24 78	 mov	 DWORD PTR [rsp+120], ecx
  01012	48 8b 8c fc e8
	01 00 00	 mov	 rcx, QWORD PTR ost$[rsp+rdi*8]
  0101a	48 89 4c 24 70	 mov	 QWORD PTR [rsp+112], rcx
  0101f	48 8b 8c 24 a0
	00 00 00	 mov	 rcx, QWORD PTR cckd$[rsp]
  01027	48 8b 94 24 a0
	01 00 00	 mov	 rdx, QWORD PTR tv517[rsp]
  0102f	48 8b 8c 11 18
	02 00 00	 mov	 rcx, QWORD PTR [rcx+rdx+536]
  01037	48 89 4c 24 68	 mov	 QWORD PTR [rsp+104], rcx
  0103c	48 8b 8c 24 40
	01 00 00	 mov	 rcx, QWORD PTR tv539[rsp]
  01044	48 89 4c 24 60	 mov	 QWORD PTR [rsp+96], rcx
  01049	48 8b 8c 24 a0
	00 00 00	 mov	 rcx, QWORD PTR cckd$[rsp]
  01051	48 8b 94 24 a8
	01 00 00	 mov	 rdx, QWORD PTR tv543[rsp]
  01059	48 8b 8c 11 f0
	01 00 00	 mov	 rcx, QWORD PTR [rcx+rdx+496]
  01061	48 89 4c 24 58	 mov	 QWORD PTR [rsp+88], rcx
  01066	48 8b 8c 24 48
	01 00 00	 mov	 rcx, QWORD PTR tv551[rsp]
  0106e	48 89 4c 24 50	 mov	 QWORD PTR [rsp+80], rcx
  01073	8b 8c 24 98 00
	00 00		 mov	 ecx, DWORD PTR i$[rsp]
  0107a	89 4c 24 48	 mov	 DWORD PTR [rsp+72], ecx
  0107e	8b 8c 24 fc 00
	00 00		 mov	 ecx, DWORD PTR tv557[rsp]
  01085	89 4c 24 40	 mov	 DWORD PTR [rsp+64], ecx
  01089	8b 8c 24 00 01
	00 00		 mov	 ecx, DWORD PTR tv563[rsp]
  01090	89 4c 24 38	 mov	 DWORD PTR [rsp+56], ecx
  01094	48 8d 0d 00 00
	00 00		 lea	 rcx, OFFSET FLAT:$SG171705
  0109b	48 89 4c 24 30	 mov	 QWORD PTR [rsp+48], rcx
  010a0	48 8d 0d 00 00
	00 00		 lea	 rcx, OFFSET FLAT:$SG171706
  010a7	48 89 4c 24 28	 mov	 QWORD PTR [rsp+40], rcx
  010ac	48 89 44 24 20	 mov	 QWORD PTR [rsp+32], rax
  010b1	41 b9 03 00 00
	00		 mov	 r9d, 3
  010b7	4c 8d 05 00 00
	00 00		 lea	 r8, OFFSET FLAT:$SG171707
  010be	ba 05 10 00 00	 mov	 edx, 4101		; 00001005H
  010c3	48 8d 0d 00 00
	00 00		 lea	 rcx, OFFSET FLAT:$SG171708
  010ca	ff 15 00 00 00
	00		 call	 QWORD PTR __imp_fwritemsg

; 4093 : 
; 4094 :             , cckd->cdevhdr[i].cdh_size ?
; 4095 :               ((S64)(cckd->cdevhdr[i].free_total * 100) / cckd->cdevhdr[i].cdh_size) : 999
; 4096 :             ,        cckd->cdevhdr[i].free_num
; 4097 :             , ost[cckd->open[i]]
; 4098 :             , cckd->reads[i]
; 4099 :             , cckd->writes[i]
; 4100 :             , cckd->L2_reads[i]
; 4101 :         );
; 4102 :     }

  010d0	e9 33 fd ff ff	 jmp	 $LN8@cckd64_sf_
$LN9@cckd64_sf_:

; 4103 : 
; 4104 :     return NULL;

  010d5	33 c0		 xor	 eax, eax
$LN1@cckd64_sf_:

; 4105 : } /* end function cckd64_sf_stats */

  010d7	48 8b 8c 24 08
	02 00 00	 mov	 rcx, QWORD PTR __$ArrayPad$[rsp]
  010df	48 33 cc	 xor	 rcx, rsp
  010e2	e8 00 00 00 00	 call	 __security_check_cookie
  010e7	48 81 c4 10 02
	00 00		 add	 rsp, 528		; 00000210H
  010ee	5f		 pop	 rdi
  010ef	c3		 ret	 0
cckd64_sf_stats ENDP
_TEXT	ENDS
; Function compile flags: /Odtp
; File C:\papa\MyGit\hyperion-zvector\cckddasd64.c
_TEXT	SEGMENT
dev$ = 96
cckd$ = 104
level$ = 112
n$1 = 116
tv74 = 120
tv80 = 124
tv147 = 128
tv153 = 132
tv186 = 136
tv192 = 140
rc$ = 144
tv173 = 152
data$ = 176
cckd64_sf_chk PROC

; 3879 : {

$LN27:
  00000	48 89 4c 24 08	 mov	 QWORD PTR [rsp+8], rcx
  00005	48 81 ec a8 00
	00 00		 sub	 rsp, 168		; 000000a8H

; 3880 : DEVBLK         *dev = data;             /* -> DEVBLK                 */

  0000c	48 8b 84 24 b0
	00 00 00	 mov	 rax, QWORD PTR data$[rsp]
  00014	48 89 44 24 60	 mov	 QWORD PTR dev$[rsp], rax

; 3881 : CCKD64_EXT     *cckd;                   /* -> cckd extension         */
; 3882 : int             rc;                     /* Return code               */
; 3883 : int             level = 2;              /* Check level               */

  00019	c7 44 24 70 02
	00 00 00	 mov	 DWORD PTR level$[rsp], 2

; 3884 : 
; 3885 :     /* NULL DEVBLK == all devices? */
; 3886 :     if (!dev)

  00021	48 83 7c 24 60
	00		 cmp	 QWORD PTR dev$[rsp], 0
  00027	0f 85 82 01 00
	00		 jne	 $LN7@cckd64_sf_

; 3887 :     {
; 3888 :     int n = 0;

  0002d	c7 44 24 74 00
	00 00 00	 mov	 DWORD PTR n$1[rsp], 0

; 3889 :         level = cckdblk.sflevel;

  00035	8b 05 14 00 00
	00		 mov	 eax, DWORD PTR cckdblk+20
  0003b	89 44 24 70	 mov	 DWORD PTR level$[rsp], eax

; 3890 :         cckdblk.sflevel = 0;

  0003f	c7 05 14 00 00
	00 00 00 00 00	 mov	 DWORD PTR cckdblk+20, 0

; 3891 :         for (dev=sysblk.firstdev; dev; dev=dev->nextdev)

  00049	48 8b 05 00 00
	00 00		 mov	 rax, QWORD PTR __imp_sysblk
  00050	48 8b 80 c0 11
	00 00		 mov	 rax, QWORD PTR [rax+4544]
  00057	48 89 44 24 60	 mov	 QWORD PTR dev$[rsp], rax
  0005c	eb 0e		 jmp	 SHORT $LN4@cckd64_sf_
$LN2@cckd64_sf_:
  0005e	48 8b 44 24 60	 mov	 rax, QWORD PTR dev$[rsp]
  00063	48 8b 40 30	 mov	 rax, QWORD PTR [rax+48]
  00067	48 89 44 24 60	 mov	 QWORD PTR dev$[rsp], rax
$LN4@cckd64_sf_:
  0006c	48 83 7c 24 60
	00		 cmp	 QWORD PTR dev$[rsp], 0
  00072	0f 84 e1 00 00
	00		 je	 $LN3@cckd64_sf_

; 3892 :         {
; 3893 :             if ((cckd = dev->cckd_ext)) /* Compressed device? */

  00078	48 8b 44 24 60	 mov	 rax, QWORD PTR dev$[rsp]
  0007d	48 8b 80 08 13
	00 00		 mov	 rax, QWORD PTR [rax+4872]
  00084	48 89 44 24 68	 mov	 QWORD PTR cckd$[rsp], rax
  00089	48 83 7c 24 68
	00		 cmp	 QWORD PTR cckd$[rsp], 0
  0008f	0f 84 bf 00 00
	00		 je	 $LN8@cckd64_sf_

; 3894 :             {
; 3895 :                 // "%1d:%04X CCKD file: checking level %d..."
; 3896 :                 WRMSG( HHC00330, "I", LCSS_DEVNUM, level );

  00095	48 83 7c 24 60
	00		 cmp	 QWORD PTR dev$[rsp], 0
  0009b	74 0f		 je	 SHORT $LN15@cckd64_sf_
  0009d	48 8b 44 24 60	 mov	 rax, QWORD PTR dev$[rsp]
  000a2	0f b7 40 48	 movzx	 eax, WORD PTR [rax+72]
  000a6	89 44 24 78	 mov	 DWORD PTR tv74[rsp], eax
  000aa	eb 08		 jmp	 SHORT $LN16@cckd64_sf_
$LN15@cckd64_sf_:
  000ac	c7 44 24 78 00
	00 00 00	 mov	 DWORD PTR tv74[rsp], 0
$LN16@cckd64_sf_:
  000b4	48 83 7c 24 60
	00		 cmp	 QWORD PTR dev$[rsp], 0
  000ba	74 11		 je	 SHORT $LN17@cckd64_sf_
  000bc	48 8b 44 24 60	 mov	 rax, QWORD PTR dev$[rsp]
  000c1	0f b7 40 44	 movzx	 eax, WORD PTR [rax+68]
  000c5	d1 f8		 sar	 eax, 1
  000c7	89 44 24 7c	 mov	 DWORD PTR tv80[rsp], eax
  000cb	eb 08		 jmp	 SHORT $LN18@cckd64_sf_
$LN17@cckd64_sf_:
  000cd	c7 44 24 7c 00
	00 00 00	 mov	 DWORD PTR tv80[rsp], 0
$LN18@cckd64_sf_:
  000d5	b9 01 00 00 00	 mov	 ecx, 1
  000da	ff 15 00 00 00
	00		 call	 QWORD PTR __imp___acrt_iob_func
  000e0	8b 4c 24 70	 mov	 ecx, DWORD PTR level$[rsp]
  000e4	89 4c 24 48	 mov	 DWORD PTR [rsp+72], ecx
  000e8	8b 4c 24 78	 mov	 ecx, DWORD PTR tv74[rsp]
  000ec	89 4c 24 40	 mov	 DWORD PTR [rsp+64], ecx
  000f0	8b 4c 24 7c	 mov	 ecx, DWORD PTR tv80[rsp]
  000f4	89 4c 24 38	 mov	 DWORD PTR [rsp+56], ecx
  000f8	48 8d 0d 00 00
	00 00		 lea	 rcx, OFFSET FLAT:$SG171572
  000ff	48 89 4c 24 30	 mov	 QWORD PTR [rsp+48], rcx
  00104	48 8d 0d 00 00
	00 00		 lea	 rcx, OFFSET FLAT:$SG171573
  0010b	48 89 4c 24 28	 mov	 QWORD PTR [rsp+40], rcx
  00110	48 89 44 24 20	 mov	 QWORD PTR [rsp+32], rax
  00115	41 b9 03 00 00
	00		 mov	 r9d, 3
  0011b	4c 8d 05 00 00
	00 00		 lea	 r8, OFFSET FLAT:$SG171574
  00122	ba 38 0f 00 00	 mov	 edx, 3896		; 00000f38H
  00127	48 8d 0d 00 00
	00 00		 lea	 rcx, OFFSET FLAT:$SG171575
  0012e	ff 15 00 00 00
	00		 call	 QWORD PTR __imp_fwritemsg

; 3897 :                 cckd->sflevel = level;

  00134	48 8b 44 24 68	 mov	 rax, QWORD PTR cckd$[rsp]
  00139	8b 4c 24 70	 mov	 ecx, DWORD PTR level$[rsp]
  0013d	89 48 0c	 mov	 DWORD PTR [rax+12], ecx

; 3898 :                 cckd64_sf_chk( dev );

  00140	48 8b 4c 24 60	 mov	 rcx, QWORD PTR dev$[rsp]
  00145	e8 00 00 00 00	 call	 cckd64_sf_chk

; 3899 :                 n++;

  0014a	8b 44 24 74	 mov	 eax, DWORD PTR n$1[rsp]
  0014e	ff c0		 inc	 eax
  00150	89 44 24 74	 mov	 DWORD PTR n$1[rsp], eax
$LN8@cckd64_sf_:

; 3900 :             }
; 3901 :         }

  00154	e9 05 ff ff ff	 jmp	 $LN2@cckd64_sf_
$LN3@cckd64_sf_:

; 3902 :         // "CCKD file number of devices processed: %d"
; 3903 :         WRMSG( HHC00316, "I", n );

  00159	b9 01 00 00 00	 mov	 ecx, 1
  0015e	ff 15 00 00 00
	00		 call	 QWORD PTR __imp___acrt_iob_func
  00164	8b 4c 24 74	 mov	 ecx, DWORD PTR n$1[rsp]
  00168	89 4c 24 38	 mov	 DWORD PTR [rsp+56], ecx
  0016c	48 8d 0d 00 00
	00 00		 lea	 rcx, OFFSET FLAT:$SG171576
  00173	48 89 4c 24 30	 mov	 QWORD PTR [rsp+48], rcx
  00178	48 8d 0d 00 00
	00 00		 lea	 rcx, OFFSET FLAT:$SG171577
  0017f	48 89 4c 24 28	 mov	 QWORD PTR [rsp+40], rcx
  00184	48 89 44 24 20	 mov	 QWORD PTR [rsp+32], rax
  00189	41 b9 03 00 00
	00		 mov	 r9d, 3
  0018f	4c 8d 05 00 00
	00 00		 lea	 r8, OFFSET FLAT:$SG171578
  00196	ba 3f 0f 00 00	 mov	 edx, 3903		; 00000f3fH
  0019b	48 8d 0d 00 00
	00 00		 lea	 rcx, OFFSET FLAT:$SG171579
  001a2	ff 15 00 00 00
	00		 call	 QWORD PTR __imp_fwritemsg

; 3904 :         return NULL;

  001a8	33 c0		 xor	 eax, eax
  001aa	e9 e5 03 00 00	 jmp	 $LN1@cckd64_sf_
$LN7@cckd64_sf_:

; 3905 :     }
; 3906 : 
; 3907 :     if (!dev->cckd64)

  001af	48 8b 44 24 60	 mov	 rax, QWORD PTR dev$[rsp]
  001b4	0f b6 80 10 13
	00 00		 movzx	 eax, BYTE PTR [rax+4880]
  001bb	24 01		 and	 al, 1
  001bd	0f b6 c0	 movzx	 eax, al
  001c0	85 c0		 test	 eax, eax
  001c2	75 12		 jne	 SHORT $LN9@cckd64_sf_

; 3908 :         return cckd_sf_chk( data );

  001c4	48 8b 8c 24 b0
	00 00 00	 mov	 rcx, QWORD PTR data$[rsp]
  001cc	e8 00 00 00 00	 call	 cckd_sf_chk
  001d1	e9 be 03 00 00	 jmp	 $LN1@cckd64_sf_
$LN9@cckd64_sf_:

; 3909 : 
; 3910 :     if (!(cckd = dev->cckd_ext))

  001d6	48 8b 44 24 60	 mov	 rax, QWORD PTR dev$[rsp]
  001db	48 8b 80 08 13
	00 00		 mov	 rax, QWORD PTR [rax+4872]
  001e2	48 89 44 24 68	 mov	 QWORD PTR cckd$[rsp], rax
  001e7	48 83 7c 24 68
	00		 cmp	 QWORD PTR cckd$[rsp], 0
  001ed	0f 85 b0 00 00
	00		 jne	 $LN10@cckd64_sf_

; 3911 :     {
; 3912 :         // "%1d:%04X CCKD file: device is not a cckd device"
; 3913 :         WRMSG( HHC00317, "W",  LCSS_DEVNUM );

  001f3	48 83 7c 24 60
	00		 cmp	 QWORD PTR dev$[rsp], 0
  001f9	74 12		 je	 SHORT $LN19@cckd64_sf_
  001fb	48 8b 44 24 60	 mov	 rax, QWORD PTR dev$[rsp]
  00200	0f b7 40 48	 movzx	 eax, WORD PTR [rax+72]
  00204	89 84 24 80 00
	00 00		 mov	 DWORD PTR tv147[rsp], eax
  0020b	eb 0b		 jmp	 SHORT $LN20@cckd64_sf_
$LN19@cckd64_sf_:
  0020d	c7 84 24 80 00
	00 00 00 00 00
	00		 mov	 DWORD PTR tv147[rsp], 0
$LN20@cckd64_sf_:
  00218	48 83 7c 24 60
	00		 cmp	 QWORD PTR dev$[rsp], 0
  0021e	74 14		 je	 SHORT $LN21@cckd64_sf_
  00220	48 8b 44 24 60	 mov	 rax, QWORD PTR dev$[rsp]
  00225	0f b7 40 44	 movzx	 eax, WORD PTR [rax+68]
  00229	d1 f8		 sar	 eax, 1
  0022b	89 84 24 84 00
	00 00		 mov	 DWORD PTR tv153[rsp], eax
  00232	eb 0b		 jmp	 SHORT $LN22@cckd64_sf_
$LN21@cckd64_sf_:
  00234	c7 84 24 84 00
	00 00 00 00 00
	00		 mov	 DWORD PTR tv153[rsp], 0
$LN22@cckd64_sf_:
  0023f	b9 01 00 00 00	 mov	 ecx, 1
  00244	ff 15 00 00 00
	00		 call	 QWORD PTR __imp___acrt_iob_func
  0024a	8b 8c 24 80 00
	00 00		 mov	 ecx, DWORD PTR tv147[rsp]
  00251	89 4c 24 40	 mov	 DWORD PTR [rsp+64], ecx
  00255	8b 8c 24 84 00
	00 00		 mov	 ecx, DWORD PTR tv153[rsp]
  0025c	89 4c 24 38	 mov	 DWORD PTR [rsp+56], ecx
  00260	48 8d 0d 00 00
	00 00		 lea	 rcx, OFFSET FLAT:$SG171582
  00267	48 89 4c 24 30	 mov	 QWORD PTR [rsp+48], rcx
  0026c	48 8d 0d 00 00
	00 00		 lea	 rcx, OFFSET FLAT:$SG171583
  00273	48 89 4c 24 28	 mov	 QWORD PTR [rsp+40], rcx
  00278	48 89 44 24 20	 mov	 QWORD PTR [rsp+32], rax
  0027d	41 b9 03 00 00
	00		 mov	 r9d, 3
  00283	4c 8d 05 00 00
	00 00		 lea	 r8, OFFSET FLAT:$SG171584
  0028a	ba 49 0f 00 00	 mov	 edx, 3913		; 00000f49H
  0028f	48 8d 0d 00 00
	00 00		 lea	 rcx, OFFSET FLAT:$SG171585
  00296	ff 15 00 00 00
	00		 call	 QWORD PTR __imp_fwritemsg

; 3914 :         return NULL;

  0029c	33 c0		 xor	 eax, eax
  0029e	e9 f1 02 00 00	 jmp	 $LN1@cckd64_sf_
$LN10@cckd64_sf_:

; 3915 :     }
; 3916 : 
; 3917 :     level = cckd->sflevel;

  002a3	48 8b 44 24 68	 mov	 rax, QWORD PTR cckd$[rsp]
  002a8	8b 40 0c	 mov	 eax, DWORD PTR [rax+12]
  002ab	89 44 24 70	 mov	 DWORD PTR level$[rsp], eax

; 3918 :     cckd->sflevel = 0;

  002af	48 8b 44 24 68	 mov	 rax, QWORD PTR cckd$[rsp]
  002b4	c7 40 0c 00 00
	00 00		 mov	 DWORD PTR [rax+12], 0

; 3919 : 
; 3920 :     /* schedule updated track entries to be written */
; 3921 :     obtain_lock( &cckd->cckdiolock );

  002bb	48 8b 44 24 68	 mov	 rax, QWORD PTR cckd$[rsp]
  002c0	48 83 c0 18	 add	 rax, 24
  002c4	48 8d 15 00 00
	00 00		 lea	 rdx, OFFSET FLAT:$SG171586
  002cb	48 8b c8	 mov	 rcx, rax
  002ce	ff 15 00 00 00
	00		 call	 QWORD PTR __imp_hthread_obtain_lock

; 3922 :     {
; 3923 :         if (cckd->merging)

  002d4	48 8b 44 24 68	 mov	 rax, QWORD PTR cckd$[rsp]
  002d9	8b 40 08	 mov	 eax, DWORD PTR [rax+8]
  002dc	c1 e8 05	 shr	 eax, 5
  002df	83 e0 01	 and	 eax, 1
  002e2	85 c0		 test	 eax, eax
  002e4	0f 84 fc 00 00
	00		 je	 $LN11@cckd64_sf_

; 3924 :         {
; 3925 :             release_lock( &cckd->cckdiolock );

  002ea	48 8b 44 24 68	 mov	 rax, QWORD PTR cckd$[rsp]
  002ef	48 83 c0 18	 add	 rax, 24
  002f3	48 8d 15 00 00
	00 00		 lea	 rdx, OFFSET FLAT:$SG171588
  002fa	48 8b c8	 mov	 rcx, rax
  002fd	ff 15 00 00 00
	00		 call	 QWORD PTR __imp_hthread_release_lock

; 3926 :             // "%1d:%04X CCKD file[%d] %s: shadow file check failed, sf command busy on device"
; 3927 :             WRMSG( HHC00331, "W", LCSS_DEVNUM, cckd->sfn, cckd_sf_name( dev, cckd->sfn ));

  00303	48 83 7c 24 60
	00		 cmp	 QWORD PTR dev$[rsp], 0
  00309	74 12		 je	 SHORT $LN23@cckd64_sf_
  0030b	48 8b 44 24 60	 mov	 rax, QWORD PTR dev$[rsp]
  00310	0f b7 40 48	 movzx	 eax, WORD PTR [rax+72]
  00314	89 84 24 88 00
	00 00		 mov	 DWORD PTR tv186[rsp], eax
  0031b	eb 0b		 jmp	 SHORT $LN24@cckd64_sf_
$LN23@cckd64_sf_:
  0031d	c7 84 24 88 00
	00 00 00 00 00
	00		 mov	 DWORD PTR tv186[rsp], 0
$LN24@cckd64_sf_:
  00328	48 83 7c 24 60
	00		 cmp	 QWORD PTR dev$[rsp], 0
  0032e	74 14		 je	 SHORT $LN25@cckd64_sf_
  00330	48 8b 44 24 60	 mov	 rax, QWORD PTR dev$[rsp]
  00335	0f b7 40 44	 movzx	 eax, WORD PTR [rax+68]
  00339	d1 f8		 sar	 eax, 1
  0033b	89 84 24 8c 00
	00 00		 mov	 DWORD PTR tv192[rsp], eax
  00342	eb 0b		 jmp	 SHORT $LN26@cckd64_sf_
$LN25@cckd64_sf_:
  00344	c7 84 24 8c 00
	00 00 00 00 00
	00		 mov	 DWORD PTR tv192[rsp], 0
$LN26@cckd64_sf_:
  0034f	48 8b 44 24 68	 mov	 rax, QWORD PTR cckd$[rsp]
  00354	8b 50 3c	 mov	 edx, DWORD PTR [rax+60]
  00357	48 8b 4c 24 60	 mov	 rcx, QWORD PTR dev$[rsp]
  0035c	e8 00 00 00 00	 call	 cckd_sf_name
  00361	48 89 84 24 98
	00 00 00	 mov	 QWORD PTR tv173[rsp], rax
  00369	b9 01 00 00 00	 mov	 ecx, 1
  0036e	ff 15 00 00 00
	00		 call	 QWORD PTR __imp___acrt_iob_func
  00374	48 8b 8c 24 98
	00 00 00	 mov	 rcx, QWORD PTR tv173[rsp]
  0037c	48 89 4c 24 50	 mov	 QWORD PTR [rsp+80], rcx
  00381	48 8b 4c 24 68	 mov	 rcx, QWORD PTR cckd$[rsp]
  00386	8b 49 3c	 mov	 ecx, DWORD PTR [rcx+60]
  00389	89 4c 24 48	 mov	 DWORD PTR [rsp+72], ecx
  0038d	8b 8c 24 88 00
	00 00		 mov	 ecx, DWORD PTR tv186[rsp]
  00394	89 4c 24 40	 mov	 DWORD PTR [rsp+64], ecx
  00398	8b 8c 24 8c 00
	00 00		 mov	 ecx, DWORD PTR tv192[rsp]
  0039f	89 4c 24 38	 mov	 DWORD PTR [rsp+56], ecx
  003a3	48 8d 0d 00 00
	00 00		 lea	 rcx, OFFSET FLAT:$SG171589
  003aa	48 89 4c 24 30	 mov	 QWORD PTR [rsp+48], rcx
  003af	48 8d 0d 00 00
	00 00		 lea	 rcx, OFFSET FLAT:$SG171590
  003b6	48 89 4c 24 28	 mov	 QWORD PTR [rsp+40], rcx
  003bb	48 89 44 24 20	 mov	 QWORD PTR [rsp+32], rax
  003c0	41 b9 03 00 00
	00		 mov	 r9d, 3
  003c6	4c 8d 05 00 00
	00 00		 lea	 r8, OFFSET FLAT:$SG171591
  003cd	ba 57 0f 00 00	 mov	 edx, 3927		; 00000f57H
  003d2	48 8d 0d 00 00
	00 00		 lea	 rcx, OFFSET FLAT:$SG171592
  003d9	ff 15 00 00 00
	00		 call	 QWORD PTR __imp_fwritemsg

; 3928 :             return NULL;

  003df	33 c0		 xor	 eax, eax
  003e1	e9 ae 01 00 00	 jmp	 $LN1@cckd64_sf_
$LN11@cckd64_sf_:

; 3929 :         }
; 3930 : 
; 3931 :         cckd->merging = 1;

  003e6	48 8b 44 24 68	 mov	 rax, QWORD PTR cckd$[rsp]
  003eb	8b 40 08	 mov	 eax, DWORD PTR [rax+8]
  003ee	83 c8 20	 or	 eax, 32			; 00000020H
  003f1	48 8b 4c 24 68	 mov	 rcx, QWORD PTR cckd$[rsp]
  003f6	89 41 08	 mov	 DWORD PTR [rcx+8], eax

; 3932 :         cckd64_flush_cache( dev );

  003f9	48 8b 4c 24 60	 mov	 rcx, QWORD PTR dev$[rsp]
  003fe	e8 00 00 00 00	 call	 cckd64_flush_cache
$LN5@cckd64_sf_:

; 3933 : 
; 3934 :         while (cckd->wrpending || cckd->cckdioact)

  00403	48 8b 44 24 68	 mov	 rax, QWORD PTR cckd$[rsp]
  00408	83 78 34 00	 cmp	 DWORD PTR [rax+52], 0
  0040c	75 12		 jne	 SHORT $LN12@cckd64_sf_
  0040e	48 8b 44 24 68	 mov	 rax, QWORD PTR cckd$[rsp]
  00413	8b 40 08	 mov	 eax, DWORD PTR [rax+8]
  00416	c1 e8 02	 shr	 eax, 2
  00419	83 e0 01	 and	 eax, 1
  0041c	85 c0		 test	 eax, eax
  0041e	74 52		 je	 SHORT $LN6@cckd64_sf_
$LN12@cckd64_sf_:

; 3935 :         {
; 3936 :             cckd->cckdwaiters++;

  00420	48 8b 44 24 68	 mov	 rax, QWORD PTR cckd$[rsp]
  00425	8b 40 30	 mov	 eax, DWORD PTR [rax+48]
  00428	ff c0		 inc	 eax
  0042a	48 8b 4c 24 68	 mov	 rcx, QWORD PTR cckd$[rsp]
  0042f	89 41 30	 mov	 DWORD PTR [rcx+48], eax

; 3937 :             {
; 3938 :                 wait_condition( &cckd->cckdiocond, &cckd->cckdiolock );

  00432	48 8b 44 24 68	 mov	 rax, QWORD PTR cckd$[rsp]
  00437	48 83 c0 18	 add	 rax, 24
  0043b	48 8b 4c 24 68	 mov	 rcx, QWORD PTR cckd$[rsp]
  00440	48 83 c1 20	 add	 rcx, 32			; 00000020H
  00444	4c 8d 05 00 00
	00 00		 lea	 r8, OFFSET FLAT:$SG171594
  0044b	48 8b d0	 mov	 rdx, rax
  0044e	ff 15 00 00 00
	00		 call	 QWORD PTR __imp_hthread_wait_condition

; 3939 :             }
; 3940 :             cckd->cckdwaiters--;

  00454	48 8b 44 24 68	 mov	 rax, QWORD PTR cckd$[rsp]
  00459	8b 40 30	 mov	 eax, DWORD PTR [rax+48]
  0045c	ff c8		 dec	 eax
  0045e	48 8b 4c 24 68	 mov	 rcx, QWORD PTR cckd$[rsp]
  00463	89 41 30	 mov	 DWORD PTR [rcx+48], eax

; 3941 : 
; 3942 :             cckd64_flush_cache( dev );

  00466	48 8b 4c 24 60	 mov	 rcx, QWORD PTR dev$[rsp]
  0046b	e8 00 00 00 00	 call	 cckd64_flush_cache

; 3943 :         }

  00470	eb 91		 jmp	 SHORT $LN5@cckd64_sf_
$LN6@cckd64_sf_:

; 3944 :         cckd64_purge_cache( dev );

  00472	48 8b 4c 24 60	 mov	 rcx, QWORD PTR dev$[rsp]
  00477	e8 00 00 00 00	 call	 cckd64_purge_cache

; 3945 :         cckd64_purge_l2( dev );

  0047c	48 8b 4c 24 60	 mov	 rcx, QWORD PTR dev$[rsp]
  00481	e8 00 00 00 00	 call	 cckd64_purge_l2

; 3946 :         dev->bufcur = -1;

  00486	48 8b 44 24 60	 mov	 rax, QWORD PTR dev$[rsp]
  0048b	c7 80 c0 01 00
	00 ff ff ff ff	 mov	 DWORD PTR [rax+448], -1

; 3947 :         dev->cache  = -1;

  00495	48 8b 44 24 60	 mov	 rax, QWORD PTR dev$[rsp]
  0049a	c7 80 f8 01 00
	00 ff ff ff ff	 mov	 DWORD PTR [rax+504], -1

; 3948 :     }
; 3949 :     release_lock( &cckd->cckdiolock );

  004a4	48 8b 44 24 68	 mov	 rax, QWORD PTR cckd$[rsp]
  004a9	48 83 c0 18	 add	 rax, 24
  004ad	48 8d 15 00 00
	00 00		 lea	 rdx, OFFSET FLAT:$SG171595
  004b4	48 8b c8	 mov	 rcx, rax
  004b7	ff 15 00 00 00
	00		 call	 QWORD PTR __imp_hthread_release_lock

; 3950 : 
; 3951 :     /* obtain control of the file */
; 3952 :     obtain_lock( &cckd->filelock );

  004bd	48 8b 44 24 68	 mov	 rax, QWORD PTR cckd$[rsp]
  004c2	48 83 c0 10	 add	 rax, 16
  004c6	48 8d 15 00 00
	00 00		 lea	 rdx, OFFSET FLAT:$SG171596
  004cd	48 8b c8	 mov	 rcx, rax
  004d0	ff 15 00 00 00
	00		 call	 QWORD PTR __imp_hthread_obtain_lock

; 3953 :     {
; 3954 :         /* harden the current file */
; 3955 :         cckd64_harden( dev );

  004d6	48 8b 4c 24 60	 mov	 rcx, QWORD PTR dev$[rsp]
  004db	e8 00 00 00 00	 call	 cckd64_harden

; 3956 : 
; 3957 :         /* Call the chkdsk function */
; 3958 :         rc = cckd64_chkdsk( dev, level );

  004e0	8b 54 24 70	 mov	 edx, DWORD PTR level$[rsp]
  004e4	48 8b 4c 24 60	 mov	 rcx, QWORD PTR dev$[rsp]
  004e9	e8 00 00 00 00	 call	 cckd64_chkdsk
  004ee	89 84 24 90 00
	00 00		 mov	 DWORD PTR rc$[rsp], eax

; 3959 : 
; 3960 :         /* Perform initial read */
; 3961 :         rc = cckd64_read_init( dev );

  004f5	48 8b 4c 24 60	 mov	 rcx, QWORD PTR dev$[rsp]
  004fa	e8 00 00 00 00	 call	 cckd64_read_init
  004ff	89 84 24 90 00
	00 00		 mov	 DWORD PTR rc$[rsp], eax

; 3962 :     }
; 3963 :     release_lock( &cckd->filelock );

  00506	48 8b 44 24 68	 mov	 rax, QWORD PTR cckd$[rsp]
  0050b	48 83 c0 10	 add	 rax, 16
  0050f	48 8d 15 00 00
	00 00		 lea	 rdx, OFFSET FLAT:$SG171597
  00516	48 8b c8	 mov	 rcx, rax
  00519	ff 15 00 00 00
	00		 call	 QWORD PTR __imp_hthread_release_lock

; 3964 : 
; 3965 :     obtain_lock( &cckd->cckdiolock );

  0051f	48 8b 44 24 68	 mov	 rax, QWORD PTR cckd$[rsp]
  00524	48 83 c0 18	 add	 rax, 24
  00528	48 8d 15 00 00
	00 00		 lea	 rdx, OFFSET FLAT:$SG171598
  0052f	48 8b c8	 mov	 rcx, rax
  00532	ff 15 00 00 00
	00		 call	 QWORD PTR __imp_hthread_obtain_lock

; 3966 :     {
; 3967 :         cckd->merging = 0;

  00538	48 8b 44 24 68	 mov	 rax, QWORD PTR cckd$[rsp]
  0053d	8b 40 08	 mov	 eax, DWORD PTR [rax+8]
  00540	83 e0 df	 and	 eax, -33		; ffffffdfH
  00543	48 8b 4c 24 68	 mov	 rcx, QWORD PTR cckd$[rsp]
  00548	89 41 08	 mov	 DWORD PTR [rcx+8], eax

; 3968 :         if (cckd->cckdwaiters)

  0054b	48 8b 44 24 68	 mov	 rax, QWORD PTR cckd$[rsp]
  00550	83 78 30 00	 cmp	 DWORD PTR [rax+48], 0
  00554	74 19		 je	 SHORT $LN13@cckd64_sf_

; 3969 :             broadcast_condition( &cckd->cckdiocond );

  00556	48 8b 44 24 68	 mov	 rax, QWORD PTR cckd$[rsp]
  0055b	48 83 c0 20	 add	 rax, 32			; 00000020H
  0055f	48 8d 15 00 00
	00 00		 lea	 rdx, OFFSET FLAT:$SG171600
  00566	48 8b c8	 mov	 rcx, rax
  00569	ff 15 00 00 00
	00		 call	 QWORD PTR __imp_hthread_broadcast_condition
$LN13@cckd64_sf_:

; 3970 :     }
; 3971 :     release_lock( &cckd->cckdiolock );

  0056f	48 8b 44 24 68	 mov	 rax, QWORD PTR cckd$[rsp]
  00574	48 83 c0 18	 add	 rax, 24
  00578	48 8d 15 00 00
	00 00		 lea	 rdx, OFFSET FLAT:$SG171601
  0057f	48 8b c8	 mov	 rcx, rax
  00582	ff 15 00 00 00
	00		 call	 QWORD PTR __imp_hthread_release_lock

; 3972 : 
; 3973 :     /* Display the shadow file statistics */
; 3974 :     cckd64_sf_stats( dev );

  00588	48 8b 4c 24 60	 mov	 rcx, QWORD PTR dev$[rsp]
  0058d	e8 00 00 00 00	 call	 cckd64_sf_stats

; 3975 : 
; 3976 :     return NULL;

  00592	33 c0		 xor	 eax, eax
$LN1@cckd64_sf_:

; 3977 : } /* end function cckd64_sf_chk */

  00594	48 81 c4 a8 00
	00 00		 add	 rsp, 168		; 000000a8H
  0059b	c3		 ret	 0
cckd64_sf_chk ENDP
_TEXT	ENDS
; Function compile flags: /Odtp
; File C:\papa\MyGit\hyperion-zvector\cckddasd64.c
_TEXT	SEGMENT
dev$ = 96
cckd$ = 104
n$1 = 112
tv73 = 116
tv79 = 120
tv145 = 124
tv151 = 128
tv182 = 132
tv188 = 136
rc$ = 140
tv169 = 144
data$ = 176
cckd64_sf_comp PROC

; 3788 : {

$LN27:
  00000	48 89 4c 24 08	 mov	 QWORD PTR [rsp+8], rcx
  00005	48 81 ec a8 00
	00 00		 sub	 rsp, 168		; 000000a8H

; 3789 : DEVBLK         *dev = data;             /* -> DEVBLK                 */

  0000c	48 8b 84 24 b0
	00 00 00	 mov	 rax, QWORD PTR data$[rsp]
  00014	48 89 44 24 60	 mov	 QWORD PTR dev$[rsp], rax

; 3790 : CCKD64_EXT     *cckd;                   /* -> cckd extension         */
; 3791 : int             rc;                     /* Return code               */
; 3792 : 
; 3793 :     /* NULL DEVBLK == all devices? */
; 3794 :     if (!dev)

  00019	48 83 7c 24 60
	00		 cmp	 QWORD PTR dev$[rsp], 0
  0001f	0f 85 50 01 00
	00		 jne	 $LN7@cckd64_sf_

; 3795 :     {
; 3796 :     int n = 0;

  00025	c7 44 24 70 00
	00 00 00	 mov	 DWORD PTR n$1[rsp], 0

; 3797 :         for (dev=sysblk.firstdev; dev; dev=dev->nextdev)

  0002d	48 8b 05 00 00
	00 00		 mov	 rax, QWORD PTR __imp_sysblk
  00034	48 8b 80 c0 11
	00 00		 mov	 rax, QWORD PTR [rax+4544]
  0003b	48 89 44 24 60	 mov	 QWORD PTR dev$[rsp], rax
  00040	eb 0e		 jmp	 SHORT $LN4@cckd64_sf_
$LN2@cckd64_sf_:
  00042	48 8b 44 24 60	 mov	 rax, QWORD PTR dev$[rsp]
  00047	48 8b 40 30	 mov	 rax, QWORD PTR [rax+48]
  0004b	48 89 44 24 60	 mov	 QWORD PTR dev$[rsp], rax
$LN4@cckd64_sf_:
  00050	48 83 7c 24 60
	00		 cmp	 QWORD PTR dev$[rsp], 0
  00056	0f 84 c3 00 00
	00		 je	 $LN3@cckd64_sf_

; 3798 :         {
; 3799 :             if (dev->cckd_ext)  /* Is this a compressed device? */

  0005c	48 8b 44 24 60	 mov	 rax, QWORD PTR dev$[rsp]
  00061	48 83 b8 08 13
	00 00 00	 cmp	 QWORD PTR [rax+4872], 0
  00069	0f 84 ab 00 00
	00		 je	 $LN8@cckd64_sf_

; 3800 :             {
; 3801 :                 // "%1d:%04X CCKD file: compressing shadow files..."
; 3802 :                 WRMSG( HHC00328, "I", LCSS_DEVNUM );

  0006f	48 83 7c 24 60
	00		 cmp	 QWORD PTR dev$[rsp], 0
  00075	74 0f		 je	 SHORT $LN15@cckd64_sf_
  00077	48 8b 44 24 60	 mov	 rax, QWORD PTR dev$[rsp]
  0007c	0f b7 40 48	 movzx	 eax, WORD PTR [rax+72]
  00080	89 44 24 74	 mov	 DWORD PTR tv73[rsp], eax
  00084	eb 08		 jmp	 SHORT $LN16@cckd64_sf_
$LN15@cckd64_sf_:
  00086	c7 44 24 74 00
	00 00 00	 mov	 DWORD PTR tv73[rsp], 0
$LN16@cckd64_sf_:
  0008e	48 83 7c 24 60
	00		 cmp	 QWORD PTR dev$[rsp], 0
  00094	74 11		 je	 SHORT $LN17@cckd64_sf_
  00096	48 8b 44 24 60	 mov	 rax, QWORD PTR dev$[rsp]
  0009b	0f b7 40 44	 movzx	 eax, WORD PTR [rax+68]
  0009f	d1 f8		 sar	 eax, 1
  000a1	89 44 24 78	 mov	 DWORD PTR tv79[rsp], eax
  000a5	eb 08		 jmp	 SHORT $LN18@cckd64_sf_
$LN17@cckd64_sf_:
  000a7	c7 44 24 78 00
	00 00 00	 mov	 DWORD PTR tv79[rsp], 0
$LN18@cckd64_sf_:
  000af	b9 01 00 00 00	 mov	 ecx, 1
  000b4	ff 15 00 00 00
	00		 call	 QWORD PTR __imp___acrt_iob_func
  000ba	8b 4c 24 74	 mov	 ecx, DWORD PTR tv73[rsp]
  000be	89 4c 24 40	 mov	 DWORD PTR [rsp+64], ecx
  000c2	8b 4c 24 78	 mov	 ecx, DWORD PTR tv79[rsp]
  000c6	89 4c 24 38	 mov	 DWORD PTR [rsp+56], ecx
  000ca	48 8d 0d 00 00
	00 00		 lea	 rcx, OFFSET FLAT:$SG171523
  000d1	48 89 4c 24 30	 mov	 QWORD PTR [rsp+48], rcx
  000d6	48 8d 0d 00 00
	00 00		 lea	 rcx, OFFSET FLAT:$SG171524
  000dd	48 89 4c 24 28	 mov	 QWORD PTR [rsp+40], rcx
  000e2	48 89 44 24 20	 mov	 QWORD PTR [rsp+32], rax
  000e7	41 b9 03 00 00
	00		 mov	 r9d, 3
  000ed	4c 8d 05 00 00
	00 00		 lea	 r8, OFFSET FLAT:$SG171525
  000f4	ba da 0e 00 00	 mov	 edx, 3802		; 00000edaH
  000f9	48 8d 0d 00 00
	00 00		 lea	 rcx, OFFSET FLAT:$SG171526
  00100	ff 15 00 00 00
	00		 call	 QWORD PTR __imp_fwritemsg

; 3803 :                 cckd64_sf_comp( dev );

  00106	48 8b 4c 24 60	 mov	 rcx, QWORD PTR dev$[rsp]
  0010b	e8 00 00 00 00	 call	 cckd64_sf_comp

; 3804 :                 n++;

  00110	8b 44 24 70	 mov	 eax, DWORD PTR n$1[rsp]
  00114	ff c0		 inc	 eax
  00116	89 44 24 70	 mov	 DWORD PTR n$1[rsp], eax
$LN8@cckd64_sf_:

; 3805 :             }
; 3806 :         }

  0011a	e9 23 ff ff ff	 jmp	 $LN2@cckd64_sf_
$LN3@cckd64_sf_:

; 3807 :         // "CCKD file number of devices processed: %d"
; 3808 :         WRMSG ( HHC00316, "I", n );

  0011f	b9 01 00 00 00	 mov	 ecx, 1
  00124	ff 15 00 00 00
	00		 call	 QWORD PTR __imp___acrt_iob_func
  0012a	8b 4c 24 70	 mov	 ecx, DWORD PTR n$1[rsp]
  0012e	89 4c 24 38	 mov	 DWORD PTR [rsp+56], ecx
  00132	48 8d 0d 00 00
	00 00		 lea	 rcx, OFFSET FLAT:$SG171527
  00139	48 89 4c 24 30	 mov	 QWORD PTR [rsp+48], rcx
  0013e	48 8d 0d 00 00
	00 00		 lea	 rcx, OFFSET FLAT:$SG171528
  00145	48 89 4c 24 28	 mov	 QWORD PTR [rsp+40], rcx
  0014a	48 89 44 24 20	 mov	 QWORD PTR [rsp+32], rax
  0014f	41 b9 03 00 00
	00		 mov	 r9d, 3
  00155	4c 8d 05 00 00
	00 00		 lea	 r8, OFFSET FLAT:$SG171529
  0015c	ba e0 0e 00 00	 mov	 edx, 3808		; 00000ee0H
  00161	48 8d 0d 00 00
	00 00		 lea	 rcx, OFFSET FLAT:$SG171530
  00168	ff 15 00 00 00
	00		 call	 QWORD PTR __imp_fwritemsg

; 3809 :         return NULL;

  0016e	33 c0		 xor	 eax, eax
  00170	e9 c0 03 00 00	 jmp	 $LN1@cckd64_sf_
$LN7@cckd64_sf_:

; 3810 :     }
; 3811 : 
; 3812 :     if (!dev->cckd64)

  00175	48 8b 44 24 60	 mov	 rax, QWORD PTR dev$[rsp]
  0017a	0f b6 80 10 13
	00 00		 movzx	 eax, BYTE PTR [rax+4880]
  00181	24 01		 and	 al, 1
  00183	0f b6 c0	 movzx	 eax, al
  00186	85 c0		 test	 eax, eax
  00188	75 12		 jne	 SHORT $LN9@cckd64_sf_

; 3813 :         return cckd_sf_comp( data );

  0018a	48 8b 8c 24 b0
	00 00 00	 mov	 rcx, QWORD PTR data$[rsp]
  00192	e8 00 00 00 00	 call	 cckd_sf_comp
  00197	e9 99 03 00 00	 jmp	 $LN1@cckd64_sf_
$LN9@cckd64_sf_:

; 3814 : 
; 3815 :     if (!(cckd = dev->cckd_ext))

  0019c	48 8b 44 24 60	 mov	 rax, QWORD PTR dev$[rsp]
  001a1	48 8b 80 08 13
	00 00		 mov	 rax, QWORD PTR [rax+4872]
  001a8	48 89 44 24 68	 mov	 QWORD PTR cckd$[rsp], rax
  001ad	48 83 7c 24 68
	00		 cmp	 QWORD PTR cckd$[rsp], 0
  001b3	0f 85 a7 00 00
	00		 jne	 $LN10@cckd64_sf_

; 3816 :     {
; 3817 :         // "%1d:%04X CCKD file: device is not a cckd device"
; 3818 :         WRMSG( HHC00317, "W",  LCSS_DEVNUM );

  001b9	48 83 7c 24 60
	00		 cmp	 QWORD PTR dev$[rsp], 0
  001bf	74 0f		 je	 SHORT $LN19@cckd64_sf_
  001c1	48 8b 44 24 60	 mov	 rax, QWORD PTR dev$[rsp]
  001c6	0f b7 40 48	 movzx	 eax, WORD PTR [rax+72]
  001ca	89 44 24 7c	 mov	 DWORD PTR tv145[rsp], eax
  001ce	eb 08		 jmp	 SHORT $LN20@cckd64_sf_
$LN19@cckd64_sf_:
  001d0	c7 44 24 7c 00
	00 00 00	 mov	 DWORD PTR tv145[rsp], 0
$LN20@cckd64_sf_:
  001d8	48 83 7c 24 60
	00		 cmp	 QWORD PTR dev$[rsp], 0
  001de	74 14		 je	 SHORT $LN21@cckd64_sf_
  001e0	48 8b 44 24 60	 mov	 rax, QWORD PTR dev$[rsp]
  001e5	0f b7 40 44	 movzx	 eax, WORD PTR [rax+68]
  001e9	d1 f8		 sar	 eax, 1
  001eb	89 84 24 80 00
	00 00		 mov	 DWORD PTR tv151[rsp], eax
  001f2	eb 0b		 jmp	 SHORT $LN22@cckd64_sf_
$LN21@cckd64_sf_:
  001f4	c7 84 24 80 00
	00 00 00 00 00
	00		 mov	 DWORD PTR tv151[rsp], 0
$LN22@cckd64_sf_:
  001ff	b9 01 00 00 00	 mov	 ecx, 1
  00204	ff 15 00 00 00
	00		 call	 QWORD PTR __imp___acrt_iob_func
  0020a	8b 4c 24 7c	 mov	 ecx, DWORD PTR tv145[rsp]
  0020e	89 4c 24 40	 mov	 DWORD PTR [rsp+64], ecx
  00212	8b 8c 24 80 00
	00 00		 mov	 ecx, DWORD PTR tv151[rsp]
  00219	89 4c 24 38	 mov	 DWORD PTR [rsp+56], ecx
  0021d	48 8d 0d 00 00
	00 00		 lea	 rcx, OFFSET FLAT:$SG171533
  00224	48 89 4c 24 30	 mov	 QWORD PTR [rsp+48], rcx
  00229	48 8d 0d 00 00
	00 00		 lea	 rcx, OFFSET FLAT:$SG171534
  00230	48 89 4c 24 28	 mov	 QWORD PTR [rsp+40], rcx
  00235	48 89 44 24 20	 mov	 QWORD PTR [rsp+32], rax
  0023a	41 b9 03 00 00
	00		 mov	 r9d, 3
  00240	4c 8d 05 00 00
	00 00		 lea	 r8, OFFSET FLAT:$SG171535
  00247	ba ea 0e 00 00	 mov	 edx, 3818		; 00000eeaH
  0024c	48 8d 0d 00 00
	00 00		 lea	 rcx, OFFSET FLAT:$SG171536
  00253	ff 15 00 00 00
	00		 call	 QWORD PTR __imp_fwritemsg

; 3819 :         return NULL;

  00259	33 c0		 xor	 eax, eax
  0025b	e9 d5 02 00 00	 jmp	 $LN1@cckd64_sf_
$LN10@cckd64_sf_:

; 3820 :     }
; 3821 : 
; 3822 :     /* schedule updated track entries to be written */
; 3823 :     obtain_lock( &cckd->cckdiolock );

  00260	48 8b 44 24 68	 mov	 rax, QWORD PTR cckd$[rsp]
  00265	48 83 c0 18	 add	 rax, 24
  00269	48 8d 15 00 00
	00 00		 lea	 rdx, OFFSET FLAT:$SG171537
  00270	48 8b c8	 mov	 rcx, rax
  00273	ff 15 00 00 00
	00		 call	 QWORD PTR __imp_hthread_obtain_lock

; 3824 :     {
; 3825 :         if (cckd->merging)

  00279	48 8b 44 24 68	 mov	 rax, QWORD PTR cckd$[rsp]
  0027e	8b 40 08	 mov	 eax, DWORD PTR [rax+8]
  00281	c1 e8 05	 shr	 eax, 5
  00284	83 e0 01	 and	 eax, 1
  00287	85 c0		 test	 eax, eax
  00289	0f 84 fc 00 00
	00		 je	 $LN11@cckd64_sf_

; 3826 :         {
; 3827 :             release_lock( &cckd->cckdiolock );

  0028f	48 8b 44 24 68	 mov	 rax, QWORD PTR cckd$[rsp]
  00294	48 83 c0 18	 add	 rax, 24
  00298	48 8d 15 00 00
	00 00		 lea	 rdx, OFFSET FLAT:$SG171539
  0029f	48 8b c8	 mov	 rcx, rax
  002a2	ff 15 00 00 00
	00		 call	 QWORD PTR __imp_hthread_release_lock

; 3828 :             // "%1d:%04X CCKD file[%d] %s: error compressing shadow file, sf command busy on device"
; 3829 :             WRMSG( HHC00329, "W",  LCSS_DEVNUM, cckd->sfn, cckd_sf_name(dev, cckd->sfn) );

  002a8	48 83 7c 24 60
	00		 cmp	 QWORD PTR dev$[rsp], 0
  002ae	74 12		 je	 SHORT $LN23@cckd64_sf_
  002b0	48 8b 44 24 60	 mov	 rax, QWORD PTR dev$[rsp]
  002b5	0f b7 40 48	 movzx	 eax, WORD PTR [rax+72]
  002b9	89 84 24 84 00
	00 00		 mov	 DWORD PTR tv182[rsp], eax
  002c0	eb 0b		 jmp	 SHORT $LN24@cckd64_sf_
$LN23@cckd64_sf_:
  002c2	c7 84 24 84 00
	00 00 00 00 00
	00		 mov	 DWORD PTR tv182[rsp], 0
$LN24@cckd64_sf_:
  002cd	48 83 7c 24 60
	00		 cmp	 QWORD PTR dev$[rsp], 0
  002d3	74 14		 je	 SHORT $LN25@cckd64_sf_
  002d5	48 8b 44 24 60	 mov	 rax, QWORD PTR dev$[rsp]
  002da	0f b7 40 44	 movzx	 eax, WORD PTR [rax+68]
  002de	d1 f8		 sar	 eax, 1
  002e0	89 84 24 88 00
	00 00		 mov	 DWORD PTR tv188[rsp], eax
  002e7	eb 0b		 jmp	 SHORT $LN26@cckd64_sf_
$LN25@cckd64_sf_:
  002e9	c7 84 24 88 00
	00 00 00 00 00
	00		 mov	 DWORD PTR tv188[rsp], 0
$LN26@cckd64_sf_:
  002f4	48 8b 44 24 68	 mov	 rax, QWORD PTR cckd$[rsp]
  002f9	8b 50 3c	 mov	 edx, DWORD PTR [rax+60]
  002fc	48 8b 4c 24 60	 mov	 rcx, QWORD PTR dev$[rsp]
  00301	e8 00 00 00 00	 call	 cckd_sf_name
  00306	48 89 84 24 90
	00 00 00	 mov	 QWORD PTR tv169[rsp], rax
  0030e	b9 01 00 00 00	 mov	 ecx, 1
  00313	ff 15 00 00 00
	00		 call	 QWORD PTR __imp___acrt_iob_func
  00319	48 8b 8c 24 90
	00 00 00	 mov	 rcx, QWORD PTR tv169[rsp]
  00321	48 89 4c 24 50	 mov	 QWORD PTR [rsp+80], rcx
  00326	48 8b 4c 24 68	 mov	 rcx, QWORD PTR cckd$[rsp]
  0032b	8b 49 3c	 mov	 ecx, DWORD PTR [rcx+60]
  0032e	89 4c 24 48	 mov	 DWORD PTR [rsp+72], ecx
  00332	8b 8c 24 84 00
	00 00		 mov	 ecx, DWORD PTR tv182[rsp]
  00339	89 4c 24 40	 mov	 DWORD PTR [rsp+64], ecx
  0033d	8b 8c 24 88 00
	00 00		 mov	 ecx, DWORD PTR tv188[rsp]
  00344	89 4c 24 38	 mov	 DWORD PTR [rsp+56], ecx
  00348	48 8d 0d 00 00
	00 00		 lea	 rcx, OFFSET FLAT:$SG171540
  0034f	48 89 4c 24 30	 mov	 QWORD PTR [rsp+48], rcx
  00354	48 8d 0d 00 00
	00 00		 lea	 rcx, OFFSET FLAT:$SG171541
  0035b	48 89 4c 24 28	 mov	 QWORD PTR [rsp+40], rcx
  00360	48 89 44 24 20	 mov	 QWORD PTR [rsp+32], rax
  00365	41 b9 03 00 00
	00		 mov	 r9d, 3
  0036b	4c 8d 05 00 00
	00 00		 lea	 r8, OFFSET FLAT:$SG171542
  00372	ba f5 0e 00 00	 mov	 edx, 3829		; 00000ef5H
  00377	48 8d 0d 00 00
	00 00		 lea	 rcx, OFFSET FLAT:$SG171543
  0037e	ff 15 00 00 00
	00		 call	 QWORD PTR __imp_fwritemsg

; 3830 :             return NULL;

  00384	33 c0		 xor	 eax, eax
  00386	e9 aa 01 00 00	 jmp	 $LN1@cckd64_sf_
$LN11@cckd64_sf_:

; 3831 :         }
; 3832 :         cckd->merging = 1;

  0038b	48 8b 44 24 68	 mov	 rax, QWORD PTR cckd$[rsp]
  00390	8b 40 08	 mov	 eax, DWORD PTR [rax+8]
  00393	83 c8 20	 or	 eax, 32			; 00000020H
  00396	48 8b 4c 24 68	 mov	 rcx, QWORD PTR cckd$[rsp]
  0039b	89 41 08	 mov	 DWORD PTR [rcx+8], eax

; 3833 :         cckd64_flush_cache( dev );

  0039e	48 8b 4c 24 60	 mov	 rcx, QWORD PTR dev$[rsp]
  003a3	e8 00 00 00 00	 call	 cckd64_flush_cache
$LN5@cckd64_sf_:

; 3834 :         while (cckd->wrpending || cckd->cckdioact)

  003a8	48 8b 44 24 68	 mov	 rax, QWORD PTR cckd$[rsp]
  003ad	83 78 34 00	 cmp	 DWORD PTR [rax+52], 0
  003b1	75 12		 jne	 SHORT $LN12@cckd64_sf_
  003b3	48 8b 44 24 68	 mov	 rax, QWORD PTR cckd$[rsp]
  003b8	8b 40 08	 mov	 eax, DWORD PTR [rax+8]
  003bb	c1 e8 02	 shr	 eax, 2
  003be	83 e0 01	 and	 eax, 1
  003c1	85 c0		 test	 eax, eax
  003c3	74 52		 je	 SHORT $LN6@cckd64_sf_
$LN12@cckd64_sf_:

; 3835 :         {
; 3836 :             cckd->cckdwaiters++;

  003c5	48 8b 44 24 68	 mov	 rax, QWORD PTR cckd$[rsp]
  003ca	8b 40 30	 mov	 eax, DWORD PTR [rax+48]
  003cd	ff c0		 inc	 eax
  003cf	48 8b 4c 24 68	 mov	 rcx, QWORD PTR cckd$[rsp]
  003d4	89 41 30	 mov	 DWORD PTR [rcx+48], eax

; 3837 :             wait_condition( &cckd->cckdiocond, &cckd->cckdiolock );

  003d7	48 8b 44 24 68	 mov	 rax, QWORD PTR cckd$[rsp]
  003dc	48 83 c0 18	 add	 rax, 24
  003e0	48 8b 4c 24 68	 mov	 rcx, QWORD PTR cckd$[rsp]
  003e5	48 83 c1 20	 add	 rcx, 32			; 00000020H
  003e9	4c 8d 05 00 00
	00 00		 lea	 r8, OFFSET FLAT:$SG171545
  003f0	48 8b d0	 mov	 rdx, rax
  003f3	ff 15 00 00 00
	00		 call	 QWORD PTR __imp_hthread_wait_condition

; 3838 :             cckd->cckdwaiters--;

  003f9	48 8b 44 24 68	 mov	 rax, QWORD PTR cckd$[rsp]
  003fe	8b 40 30	 mov	 eax, DWORD PTR [rax+48]
  00401	ff c8		 dec	 eax
  00403	48 8b 4c 24 68	 mov	 rcx, QWORD PTR cckd$[rsp]
  00408	89 41 30	 mov	 DWORD PTR [rcx+48], eax

; 3839 :             cckd64_flush_cache( dev );

  0040b	48 8b 4c 24 60	 mov	 rcx, QWORD PTR dev$[rsp]
  00410	e8 00 00 00 00	 call	 cckd64_flush_cache

; 3840 :         }

  00415	eb 91		 jmp	 SHORT $LN5@cckd64_sf_
$LN6@cckd64_sf_:

; 3841 :         cckd64_purge_cache( dev );

  00417	48 8b 4c 24 60	 mov	 rcx, QWORD PTR dev$[rsp]
  0041c	e8 00 00 00 00	 call	 cckd64_purge_cache

; 3842 :         cckd64_purge_l2( dev );

  00421	48 8b 4c 24 60	 mov	 rcx, QWORD PTR dev$[rsp]
  00426	e8 00 00 00 00	 call	 cckd64_purge_l2

; 3843 :         dev->bufcur = dev->cache = -1;

  0042b	48 8b 44 24 60	 mov	 rax, QWORD PTR dev$[rsp]
  00430	c7 80 f8 01 00
	00 ff ff ff ff	 mov	 DWORD PTR [rax+504], -1
  0043a	48 8b 44 24 60	 mov	 rax, QWORD PTR dev$[rsp]
  0043f	c7 80 c0 01 00
	00 ff ff ff ff	 mov	 DWORD PTR [rax+448], -1

; 3844 :     }
; 3845 :     release_lock( &cckd->cckdiolock );

  00449	48 8b 44 24 68	 mov	 rax, QWORD PTR cckd$[rsp]
  0044e	48 83 c0 18	 add	 rax, 24
  00452	48 8d 15 00 00
	00 00		 lea	 rdx, OFFSET FLAT:$SG171546
  00459	48 8b c8	 mov	 rcx, rax
  0045c	ff 15 00 00 00
	00		 call	 QWORD PTR __imp_hthread_release_lock

; 3846 : 
; 3847 :     /* obtain control of the file */
; 3848 :     obtain_lock( &cckd->filelock );

  00462	48 8b 44 24 68	 mov	 rax, QWORD PTR cckd$[rsp]
  00467	48 83 c0 10	 add	 rax, 16
  0046b	48 8d 15 00 00
	00 00		 lea	 rdx, OFFSET FLAT:$SG171547
  00472	48 8b c8	 mov	 rcx, rax
  00475	ff 15 00 00 00
	00		 call	 QWORD PTR __imp_hthread_obtain_lock

; 3849 :     {
; 3850 :         /* harden the current file */
; 3851 :         cckd64_harden( dev );

  0047b	48 8b 4c 24 60	 mov	 rcx, QWORD PTR dev$[rsp]
  00480	e8 00 00 00 00	 call	 cckd64_harden

; 3852 : 
; 3853 :         /* Call the compress function */
; 3854 :         rc = cckd64_comp( dev );

  00485	48 8b 4c 24 60	 mov	 rcx, QWORD PTR dev$[rsp]
  0048a	e8 00 00 00 00	 call	 cckd64_comp
  0048f	89 84 24 8c 00
	00 00		 mov	 DWORD PTR rc$[rsp], eax

; 3855 : 
; 3856 :         /* Perform initial read */
; 3857 :         rc = cckd64_read_init( dev );

  00496	48 8b 4c 24 60	 mov	 rcx, QWORD PTR dev$[rsp]
  0049b	e8 00 00 00 00	 call	 cckd64_read_init
  004a0	89 84 24 8c 00
	00 00		 mov	 DWORD PTR rc$[rsp], eax

; 3858 :     }
; 3859 :     release_lock( &cckd->filelock );

  004a7	48 8b 44 24 68	 mov	 rax, QWORD PTR cckd$[rsp]
  004ac	48 83 c0 10	 add	 rax, 16
  004b0	48 8d 15 00 00
	00 00		 lea	 rdx, OFFSET FLAT:$SG171548
  004b7	48 8b c8	 mov	 rcx, rax
  004ba	ff 15 00 00 00
	00		 call	 QWORD PTR __imp_hthread_release_lock

; 3860 : 
; 3861 :     obtain_lock( &cckd->cckdiolock );

  004c0	48 8b 44 24 68	 mov	 rax, QWORD PTR cckd$[rsp]
  004c5	48 83 c0 18	 add	 rax, 24
  004c9	48 8d 15 00 00
	00 00		 lea	 rdx, OFFSET FLAT:$SG171549
  004d0	48 8b c8	 mov	 rcx, rax
  004d3	ff 15 00 00 00
	00		 call	 QWORD PTR __imp_hthread_obtain_lock

; 3862 :     {
; 3863 :         cckd->merging = 0;

  004d9	48 8b 44 24 68	 mov	 rax, QWORD PTR cckd$[rsp]
  004de	8b 40 08	 mov	 eax, DWORD PTR [rax+8]
  004e1	83 e0 df	 and	 eax, -33		; ffffffdfH
  004e4	48 8b 4c 24 68	 mov	 rcx, QWORD PTR cckd$[rsp]
  004e9	89 41 08	 mov	 DWORD PTR [rcx+8], eax

; 3864 :         if (cckd->cckdwaiters)

  004ec	48 8b 44 24 68	 mov	 rax, QWORD PTR cckd$[rsp]
  004f1	83 78 30 00	 cmp	 DWORD PTR [rax+48], 0
  004f5	74 19		 je	 SHORT $LN13@cckd64_sf_

; 3865 :             broadcast_condition( &cckd->cckdiocond );

  004f7	48 8b 44 24 68	 mov	 rax, QWORD PTR cckd$[rsp]
  004fc	48 83 c0 20	 add	 rax, 32			; 00000020H
  00500	48 8d 15 00 00
	00 00		 lea	 rdx, OFFSET FLAT:$SG171551
  00507	48 8b c8	 mov	 rcx, rax
  0050a	ff 15 00 00 00
	00		 call	 QWORD PTR __imp_hthread_broadcast_condition
$LN13@cckd64_sf_:

; 3866 :     }
; 3867 :     release_lock( &cckd->cckdiolock );

  00510	48 8b 44 24 68	 mov	 rax, QWORD PTR cckd$[rsp]
  00515	48 83 c0 18	 add	 rax, 24
  00519	48 8d 15 00 00
	00 00		 lea	 rdx, OFFSET FLAT:$SG171552
  00520	48 8b c8	 mov	 rcx, rax
  00523	ff 15 00 00 00
	00		 call	 QWORD PTR __imp_hthread_release_lock

; 3868 : 
; 3869 :     /* Display the shadow file statistics */
; 3870 :     cckd64_sf_stats( dev );

  00529	48 8b 4c 24 60	 mov	 rcx, QWORD PTR dev$[rsp]
  0052e	e8 00 00 00 00	 call	 cckd64_sf_stats

; 3871 : 
; 3872 :     return NULL;

  00533	33 c0		 xor	 eax, eax
$LN1@cckd64_sf_:

; 3873 : } /* end function cckd64_sf_comp */

  00535	48 81 c4 a8 00
	00 00		 add	 rsp, 168		; 000000a8H
  0053c	c3		 ret	 0
cckd64_sf_comp ENDP
_TEXT	ENDS
; Function compile flags: /Odtp
; File C:\papa\MyGit\hyperion-zvector\cckddasd64.c
_TEXT	SEGMENT
dev$ = 112
cckd$ = 120
to_sfx$ = 128
from_sfx$ = 132
i$ = 136
j$ = 140
pos$ = 144
len$ = 152
merge$ = 156
l2updated$ = 160
force$ = 164
size$ = 168
trk$ = 172
n$1 = 176
add$ = 180
tv169 = 184
tv188 = 188
tv228 = 192
tv234 = 196
tv326 = 200
tv332 = 204
tv370 = 208
tv376 = 212
tv427 = 216
tv433 = 220
tv461 = 224
tv467 = 228
tv815 = 232
tv821 = 236
tv901 = 240
tv907 = 244
tv927 = 248
tv933 = 252
tv79 = 256
tv85 = 260
tv163 = 264
rc$ = 268
fix$ = 272
tv199 = 280
tv202 = 288
tv415 = 296
tv803 = 304
tv805 = 312
tv215 = 320
tv281 = 328
tv361 = 336
tv419 = 344
tv453 = 352
tv807 = 360
tv893 = 368
tv919 = 376
new_l2$ = 384
to_l2$ = 400
from_l2$ = 4496
buf$ = 8592
__$ArrayPad$ = 74128
data$ = 74160
cckd64_sf_remove PROC

; 3444 : {

$LN111:
  00000	48 89 4c 24 08	 mov	 QWORD PTR [rsp+8], rcx
  00005	57		 push	 rdi
  00006	b8 a0 21 01 00	 mov	 eax, 74144		; 000121a0H
  0000b	e8 00 00 00 00	 call	 __chkstk
  00010	48 2b e0	 sub	 rsp, rax
  00013	48 8b 05 00 00
	00 00		 mov	 rax, QWORD PTR __security_cookie
  0001a	48 33 c4	 xor	 rax, rsp
  0001d	48 89 84 24 90
	21 01 00	 mov	 QWORD PTR __$ArrayPad$[rsp], rax

; 3445 : DEVBLK         *dev = data;             /* -> DEVBLK                 */

  00025	48 8b 84 24 b0
	21 01 00	 mov	 rax, QWORD PTR data$[rsp]
  0002d	48 89 44 24 70	 mov	 QWORD PTR dev$[rsp], rax

; 3446 : CCKD64_EXT     *cckd;                   /* -> cckd extension         */
; 3447 : int             rc;                     /* Return code               */
; 3448 : int             from_sfx, to_sfx;       /* From/to file index        */
; 3449 : int             fix;                    /* nullfmt index             */
; 3450 : int             add = 0;                /* 1=Add shadow file back    */

  00032	c7 84 24 b4 00
	00 00 00 00 00
	00		 mov	 DWORD PTR add$[rsp], 0

; 3451 : int             l2updated = 0;          /* 1=L2 table was updated    */

  0003d	c7 84 24 a0 00
	00 00 00 00 00
	00		 mov	 DWORD PTR l2updated$[rsp], 0

; 3452 : int             i,j;                    /* Loop indexes              */
; 3453 : int             merge, force;           /* Flags                     */
; 3454 : U64             pos;                    /* File offset               */
; 3455 : unsigned int    len;                    /* Length to read/write      */
; 3456 : int             size;                   /* Image size                */
; 3457 : int             trk = -1;               /* Track being read/written  */

  00048	c7 84 24 ac 00
	00 00 ff ff ff
	ff		 mov	 DWORD PTR trk$[rsp], -1

; 3458 : CCKD64_L2ENT    from_l2[256],           /* Level 2 tables            */
; 3459 :                 to_l2[256];
; 3460 : CCKD64_L2ENT    new_l2;                 /* New level 2 table entry   */
; 3461 : BYTE            buf[64*1024];           /* Buffer                    */
; 3462 : 
; 3463 :     /* NULL DEVBLK == all devices? */
; 3464 :     if (!dev)

  00053	48 83 7c 24 70
	00		 cmp	 QWORD PTR dev$[rsp], 0
  00059	0f 85 06 02 00
	00		 jne	 $LN13@cckd64_sf_

; 3465 :     {
; 3466 :     int n = 0;

  0005f	c7 84 24 b0 00
	00 00 00 00 00
	00		 mov	 DWORD PTR n$1[rsp], 0

; 3467 :         merge = cckdblk.sfmerge;

  0006a	8b 05 10 00 00
	00		 mov	 eax, DWORD PTR cckdblk+16
  00070	c1 e8 03	 shr	 eax, 3
  00073	83 e0 01	 and	 eax, 1
  00076	89 84 24 9c 00
	00 00		 mov	 DWORD PTR merge$[rsp], eax

; 3468 :         force = cckdblk.sfforce;

  0007d	8b 05 10 00 00
	00		 mov	 eax, DWORD PTR cckdblk+16
  00083	c1 e8 04	 shr	 eax, 4
  00086	83 e0 01	 and	 eax, 1
  00089	89 84 24 a4 00
	00 00		 mov	 DWORD PTR force$[rsp], eax

; 3469 :         cckdblk.sfmerge = cckdblk.sfforce = 0;

  00090	8b 05 10 00 00
	00		 mov	 eax, DWORD PTR cckdblk+16
  00096	83 e0 ef	 and	 eax, -17		; ffffffefH
  00099	89 05 10 00 00
	00		 mov	 DWORD PTR cckdblk+16, eax
  0009f	8b 05 10 00 00
	00		 mov	 eax, DWORD PTR cckdblk+16
  000a5	83 e0 f7	 and	 eax, -9			; fffffff7H
  000a8	89 05 10 00 00
	00		 mov	 DWORD PTR cckdblk+16, eax

; 3470 :         for (dev=sysblk.firstdev; dev; dev=dev->nextdev)

  000ae	48 8b 05 00 00
	00 00		 mov	 rax, QWORD PTR __imp_sysblk
  000b5	48 8b 80 c0 11
	00 00		 mov	 rax, QWORD PTR [rax+4544]
  000bc	48 89 44 24 70	 mov	 QWORD PTR dev$[rsp], rax
  000c1	eb 0e		 jmp	 SHORT $LN4@cckd64_sf_
$LN2@cckd64_sf_:
  000c3	48 8b 44 24 70	 mov	 rax, QWORD PTR dev$[rsp]
  000c8	48 8b 40 30	 mov	 rax, QWORD PTR [rax+48]
  000cc	48 89 44 24 70	 mov	 QWORD PTR dev$[rsp], rax
$LN4@cckd64_sf_:
  000d1	48 83 7c 24 70
	00		 cmp	 QWORD PTR dev$[rsp], 0
  000d7	0f 84 2f 01 00
	00		 je	 $LN3@cckd64_sf_

; 3471 :         {
; 3472 :             if ((cckd = dev->cckd_ext)) /* Compressed device? */

  000dd	48 8b 44 24 70	 mov	 rax, QWORD PTR dev$[rsp]
  000e2	48 8b 80 08 13
	00 00		 mov	 rax, QWORD PTR [rax+4872]
  000e9	48 89 44 24 78	 mov	 QWORD PTR cckd$[rsp], rax
  000ee	48 83 7c 24 78
	00		 cmp	 QWORD PTR cckd$[rsp], 0
  000f4	0f 84 0d 01 00
	00		 je	 $LN14@cckd64_sf_

; 3473 :             {
; 3474 :                 // "%1d:%04X CCKD file: merging shadow files..."
; 3475 :                 WRMSG( HHC00321, "I", LCSS_DEVNUM );

  000fa	48 83 7c 24 70
	00		 cmp	 QWORD PTR dev$[rsp], 0
  00100	74 12		 je	 SHORT $LN59@cckd64_sf_
  00102	48 8b 44 24 70	 mov	 rax, QWORD PTR dev$[rsp]
  00107	0f b7 40 48	 movzx	 eax, WORD PTR [rax+72]
  0010b	89 84 24 00 01
	00 00		 mov	 DWORD PTR tv79[rsp], eax
  00112	eb 0b		 jmp	 SHORT $LN60@cckd64_sf_
$LN59@cckd64_sf_:
  00114	c7 84 24 00 01
	00 00 00 00 00
	00		 mov	 DWORD PTR tv79[rsp], 0
$LN60@cckd64_sf_:
  0011f	48 83 7c 24 70
	00		 cmp	 QWORD PTR dev$[rsp], 0
  00125	74 14		 je	 SHORT $LN61@cckd64_sf_
  00127	48 8b 44 24 70	 mov	 rax, QWORD PTR dev$[rsp]
  0012c	0f b7 40 44	 movzx	 eax, WORD PTR [rax+68]
  00130	d1 f8		 sar	 eax, 1
  00132	89 84 24 04 01
	00 00		 mov	 DWORD PTR tv85[rsp], eax
  00139	eb 0b		 jmp	 SHORT $LN62@cckd64_sf_
$LN61@cckd64_sf_:
  0013b	c7 84 24 04 01
	00 00 00 00 00
	00		 mov	 DWORD PTR tv85[rsp], 0
$LN62@cckd64_sf_:
  00146	b9 01 00 00 00	 mov	 ecx, 1
  0014b	ff 15 00 00 00
	00		 call	 QWORD PTR __imp___acrt_iob_func
  00151	8b 8c 24 00 01
	00 00		 mov	 ecx, DWORD PTR tv79[rsp]
  00158	89 4c 24 40	 mov	 DWORD PTR [rsp+64], ecx
  0015c	8b 8c 24 04 01
	00 00		 mov	 ecx, DWORD PTR tv85[rsp]
  00163	89 4c 24 38	 mov	 DWORD PTR [rsp+56], ecx
  00167	48 8d 0d 00 00
	00 00		 lea	 rcx, OFFSET FLAT:$SG171386
  0016e	48 89 4c 24 30	 mov	 QWORD PTR [rsp+48], rcx
  00173	48 8d 0d 00 00
	00 00		 lea	 rcx, OFFSET FLAT:$SG171387
  0017a	48 89 4c 24 28	 mov	 QWORD PTR [rsp+40], rcx
  0017f	48 89 44 24 20	 mov	 QWORD PTR [rsp+32], rax
  00184	41 b9 03 00 00
	00		 mov	 r9d, 3
  0018a	4c 8d 05 00 00
	00 00		 lea	 r8, OFFSET FLAT:$SG171388
  00191	ba 93 0d 00 00	 mov	 edx, 3475		; 00000d93H
  00196	48 8d 0d 00 00
	00 00		 lea	 rcx, OFFSET FLAT:$SG171389
  0019d	ff 15 00 00 00
	00		 call	 QWORD PTR __imp_fwritemsg

; 3476 :                 cckd->sfmerge = merge;

  001a3	8b 84 24 9c 00
	00 00		 mov	 eax, DWORD PTR merge$[rsp]
  001aa	83 e0 01	 and	 eax, 1
  001ad	c1 e0 09	 shl	 eax, 9
  001b0	48 8b 4c 24 78	 mov	 rcx, QWORD PTR cckd$[rsp]
  001b5	8b 49 08	 mov	 ecx, DWORD PTR [rcx+8]
  001b8	0f ba f1 09	 btr	 ecx, 9
  001bc	0b c8		 or	 ecx, eax
  001be	8b c1		 mov	 eax, ecx
  001c0	48 8b 4c 24 78	 mov	 rcx, QWORD PTR cckd$[rsp]
  001c5	89 41 08	 mov	 DWORD PTR [rcx+8], eax

; 3477 :                 cckd->sfforce = force;

  001c8	8b 84 24 a4 00
	00 00		 mov	 eax, DWORD PTR force$[rsp]
  001cf	83 e0 01	 and	 eax, 1
  001d2	c1 e0 0a	 shl	 eax, 10
  001d5	48 8b 4c 24 78	 mov	 rcx, QWORD PTR cckd$[rsp]
  001da	8b 49 08	 mov	 ecx, DWORD PTR [rcx+8]
  001dd	0f ba f1 0a	 btr	 ecx, 10
  001e1	0b c8		 or	 ecx, eax
  001e3	8b c1		 mov	 eax, ecx
  001e5	48 8b 4c 24 78	 mov	 rcx, QWORD PTR cckd$[rsp]
  001ea	89 41 08	 mov	 DWORD PTR [rcx+8], eax

; 3478 :                 cckd64_sf_remove( dev );

  001ed	48 8b 4c 24 70	 mov	 rcx, QWORD PTR dev$[rsp]
  001f2	e8 00 00 00 00	 call	 cckd64_sf_remove

; 3479 :                 n++;

  001f7	8b 84 24 b0 00
	00 00		 mov	 eax, DWORD PTR n$1[rsp]
  001fe	ff c0		 inc	 eax
  00200	89 84 24 b0 00
	00 00		 mov	 DWORD PTR n$1[rsp], eax
$LN14@cckd64_sf_:

; 3480 :             }
; 3481 :         }

  00207	e9 b7 fe ff ff	 jmp	 $LN2@cckd64_sf_
$LN3@cckd64_sf_:

; 3482 :         // "CCKD file number of devices processed: %d"
; 3483 :         WRMSG( HHC00316, "I", n );

  0020c	b9 01 00 00 00	 mov	 ecx, 1
  00211	ff 15 00 00 00
	00		 call	 QWORD PTR __imp___acrt_iob_func
  00217	8b 8c 24 b0 00
	00 00		 mov	 ecx, DWORD PTR n$1[rsp]
  0021e	89 4c 24 38	 mov	 DWORD PTR [rsp+56], ecx
  00222	48 8d 0d 00 00
	00 00		 lea	 rcx, OFFSET FLAT:$SG171390
  00229	48 89 4c 24 30	 mov	 QWORD PTR [rsp+48], rcx
  0022e	48 8d 0d 00 00
	00 00		 lea	 rcx, OFFSET FLAT:$SG171391
  00235	48 89 4c 24 28	 mov	 QWORD PTR [rsp+40], rcx
  0023a	48 89 44 24 20	 mov	 QWORD PTR [rsp+32], rax
  0023f	41 b9 03 00 00
	00		 mov	 r9d, 3
  00245	4c 8d 05 00 00
	00 00		 lea	 r8, OFFSET FLAT:$SG171392
  0024c	ba 9b 0d 00 00	 mov	 edx, 3483		; 00000d9bH
  00251	48 8d 0d 00 00
	00 00		 lea	 rcx, OFFSET FLAT:$SG171393
  00258	ff 15 00 00 00
	00		 call	 QWORD PTR __imp_fwritemsg

; 3484 :         return NULL;

  0025e	33 c0		 xor	 eax, eax
  00260	e9 4d 17 00 00	 jmp	 $LN1@cckd64_sf_
$LN13@cckd64_sf_:

; 3485 :     }
; 3486 : 
; 3487 :     if (!dev->cckd64)

  00265	48 8b 44 24 70	 mov	 rax, QWORD PTR dev$[rsp]
  0026a	0f b6 80 10 13
	00 00		 movzx	 eax, BYTE PTR [rax+4880]
  00271	24 01		 and	 al, 1
  00273	0f b6 c0	 movzx	 eax, al
  00276	85 c0		 test	 eax, eax
  00278	75 12		 jne	 SHORT $LN15@cckd64_sf_

; 3488 :         return cckd_sf_remove( data );

  0027a	48 8b 8c 24 b0
	21 01 00	 mov	 rcx, QWORD PTR data$[rsp]
  00282	e8 00 00 00 00	 call	 cckd_sf_remove
  00287	e9 26 17 00 00	 jmp	 $LN1@cckd64_sf_
$LN15@cckd64_sf_:

; 3489 : 
; 3490 :     if (!(cckd = dev->cckd_ext))

  0028c	48 8b 44 24 70	 mov	 rax, QWORD PTR dev$[rsp]
  00291	48 8b 80 08 13
	00 00		 mov	 rax, QWORD PTR [rax+4872]
  00298	48 89 44 24 78	 mov	 QWORD PTR cckd$[rsp], rax
  0029d	48 83 7c 24 78
	00		 cmp	 QWORD PTR cckd$[rsp], 0
  002a3	0f 85 b0 00 00
	00		 jne	 $LN16@cckd64_sf_

; 3491 :     {
; 3492 :         // "%1d:%04X CCKD file: device is not a cckd device"
; 3493 :         WRMSG( HHC00317, "W", LCSS_DEVNUM );

  002a9	48 83 7c 24 70
	00		 cmp	 QWORD PTR dev$[rsp], 0
  002af	74 12		 je	 SHORT $LN63@cckd64_sf_
  002b1	48 8b 44 24 70	 mov	 rax, QWORD PTR dev$[rsp]
  002b6	0f b7 40 48	 movzx	 eax, WORD PTR [rax+72]
  002ba	89 84 24 08 01
	00 00		 mov	 DWORD PTR tv163[rsp], eax
  002c1	eb 0b		 jmp	 SHORT $LN64@cckd64_sf_
$LN63@cckd64_sf_:
  002c3	c7 84 24 08 01
	00 00 00 00 00
	00		 mov	 DWORD PTR tv163[rsp], 0
$LN64@cckd64_sf_:
  002ce	48 83 7c 24 70
	00		 cmp	 QWORD PTR dev$[rsp], 0
  002d4	74 14		 je	 SHORT $LN65@cckd64_sf_
  002d6	48 8b 44 24 70	 mov	 rax, QWORD PTR dev$[rsp]
  002db	0f b7 40 44	 movzx	 eax, WORD PTR [rax+68]
  002df	d1 f8		 sar	 eax, 1
  002e1	89 84 24 b8 00
	00 00		 mov	 DWORD PTR tv169[rsp], eax
  002e8	eb 0b		 jmp	 SHORT $LN66@cckd64_sf_
$LN65@cckd64_sf_:
  002ea	c7 84 24 b8 00
	00 00 00 00 00
	00		 mov	 DWORD PTR tv169[rsp], 0
$LN66@cckd64_sf_:
  002f5	b9 01 00 00 00	 mov	 ecx, 1
  002fa	ff 15 00 00 00
	00		 call	 QWORD PTR __imp___acrt_iob_func
  00300	8b 8c 24 08 01
	00 00		 mov	 ecx, DWORD PTR tv163[rsp]
  00307	89 4c 24 40	 mov	 DWORD PTR [rsp+64], ecx
  0030b	8b 8c 24 b8 00
	00 00		 mov	 ecx, DWORD PTR tv169[rsp]
  00312	89 4c 24 38	 mov	 DWORD PTR [rsp+56], ecx
  00316	48 8d 0d 00 00
	00 00		 lea	 rcx, OFFSET FLAT:$SG171396
  0031d	48 89 4c 24 30	 mov	 QWORD PTR [rsp+48], rcx
  00322	48 8d 0d 00 00
	00 00		 lea	 rcx, OFFSET FLAT:$SG171397
  00329	48 89 4c 24 28	 mov	 QWORD PTR [rsp+40], rcx
  0032e	48 89 44 24 20	 mov	 QWORD PTR [rsp+32], rax
  00333	41 b9 03 00 00
	00		 mov	 r9d, 3
  00339	4c 8d 05 00 00
	00 00		 lea	 r8, OFFSET FLAT:$SG171398
  00340	ba a5 0d 00 00	 mov	 edx, 3493		; 00000da5H
  00345	48 8d 0d 00 00
	00 00		 lea	 rcx, OFFSET FLAT:$SG171399
  0034c	ff 15 00 00 00
	00		 call	 QWORD PTR __imp_fwritemsg

; 3494 :         return NULL;

  00352	33 c0		 xor	 eax, eax
  00354	e9 59 16 00 00	 jmp	 $LN1@cckd64_sf_
$LN16@cckd64_sf_:

; 3495 :     }
; 3496 : 
; 3497 :     /* Set flags */
; 3498 :     merge = cckd->sfmerge || cckd->sfforce;

  00359	48 8b 44 24 78	 mov	 rax, QWORD PTR cckd$[rsp]
  0035e	8b 40 08	 mov	 eax, DWORD PTR [rax+8]
  00361	c1 e8 09	 shr	 eax, 9
  00364	83 e0 01	 and	 eax, 1
  00367	85 c0		 test	 eax, eax
  00369	75 1f		 jne	 SHORT $LN67@cckd64_sf_
  0036b	48 8b 44 24 78	 mov	 rax, QWORD PTR cckd$[rsp]
  00370	8b 40 08	 mov	 eax, DWORD PTR [rax+8]
  00373	c1 e8 0a	 shr	 eax, 10
  00376	83 e0 01	 and	 eax, 1
  00379	85 c0		 test	 eax, eax
  0037b	75 0d		 jne	 SHORT $LN67@cckd64_sf_
  0037d	c7 84 24 bc 00
	00 00 00 00 00
	00		 mov	 DWORD PTR tv188[rsp], 0
  00388	eb 0b		 jmp	 SHORT $LN68@cckd64_sf_
$LN67@cckd64_sf_:
  0038a	c7 84 24 bc 00
	00 00 01 00 00
	00		 mov	 DWORD PTR tv188[rsp], 1
$LN68@cckd64_sf_:
  00395	8b 84 24 bc 00
	00 00		 mov	 eax, DWORD PTR tv188[rsp]
  0039c	89 84 24 9c 00
	00 00		 mov	 DWORD PTR merge$[rsp], eax

; 3499 :     force = cckd->sfforce;

  003a3	48 8b 44 24 78	 mov	 rax, QWORD PTR cckd$[rsp]
  003a8	8b 40 08	 mov	 eax, DWORD PTR [rax+8]
  003ab	c1 e8 0a	 shr	 eax, 10
  003ae	83 e0 01	 and	 eax, 1
  003b1	89 84 24 a4 00
	00 00		 mov	 DWORD PTR force$[rsp], eax

; 3500 :     cckd->sfmerge = cckd->sfforce = 0;

  003b8	48 8b 44 24 78	 mov	 rax, QWORD PTR cckd$[rsp]
  003bd	8b 40 08	 mov	 eax, DWORD PTR [rax+8]
  003c0	0f ba f0 0a	 btr	 eax, 10
  003c4	48 8b 4c 24 78	 mov	 rcx, QWORD PTR cckd$[rsp]
  003c9	89 41 08	 mov	 DWORD PTR [rcx+8], eax
  003cc	48 8b 44 24 78	 mov	 rax, QWORD PTR cckd$[rsp]
  003d1	8b 40 08	 mov	 eax, DWORD PTR [rax+8]
  003d4	0f ba f0 09	 btr	 eax, 9
  003d8	48 8b 4c 24 78	 mov	 rcx, QWORD PTR cckd$[rsp]
  003dd	89 41 08	 mov	 DWORD PTR [rcx+8], eax

; 3501 : 
; 3502 :     CCKD_TRACE( "merge starting: %s %s",

  003e0	83 bc 24 a4 00
	00 00 00	 cmp	 DWORD PTR force$[rsp], 0
  003e8	74 11		 je	 SHORT $LN69@cckd64_sf_
  003ea	48 8d 05 00 00
	00 00		 lea	 rax, OFFSET FLAT:$SG171400
  003f1	48 89 84 24 18
	01 00 00	 mov	 QWORD PTR tv199[rsp], rax
  003f9	eb 0f		 jmp	 SHORT $LN70@cckd64_sf_
$LN69@cckd64_sf_:
  003fb	48 8d 05 00 00
	00 00		 lea	 rax, OFFSET FLAT:$SG171401
  00402	48 89 84 24 18
	01 00 00	 mov	 QWORD PTR tv199[rsp], rax
$LN70@cckd64_sf_:
  0040a	83 bc 24 9c 00
	00 00 00	 cmp	 DWORD PTR merge$[rsp], 0
  00412	74 11		 je	 SHORT $LN71@cckd64_sf_
  00414	48 8d 05 00 00
	00 00		 lea	 rax, OFFSET FLAT:$SG171402
  0041b	48 89 84 24 20
	01 00 00	 mov	 QWORD PTR tv202[rsp], rax
  00423	eb 0f		 jmp	 SHORT $LN72@cckd64_sf_
$LN71@cckd64_sf_:
  00425	48 8d 05 00 00
	00 00		 lea	 rax, OFFSET FLAT:$SG171403
  0042c	48 89 84 24 20
	01 00 00	 mov	 QWORD PTR tv202[rsp], rax
$LN72@cckd64_sf_:
  00434	48 8b 84 24 18
	01 00 00	 mov	 rax, QWORD PTR tv199[rsp]
  0043c	48 89 44 24 28	 mov	 QWORD PTR [rsp+40], rax
  00441	48 8b 84 24 20
	01 00 00	 mov	 rax, QWORD PTR tv202[rsp]
  00449	48 89 44 24 20	 mov	 QWORD PTR [rsp+32], rax
  0044e	4c 8d 0d 00 00
	00 00		 lea	 r9, OFFSET FLAT:$SG171404
  00455	4c 8b 44 24 70	 mov	 r8, QWORD PTR dev$[rsp]
  0045a	ba af 0d 00 00	 mov	 edx, 3503		; 00000dafH
  0045f	48 8d 0d 00 00
	00 00		 lea	 rcx, OFFSET FLAT:$SG171405
  00466	e8 00 00 00 00	 call	 cckd_trace

; 3503 :                 merge ? "merge" : "nomerge", force ? "force" : "");
; 3504 : 
; 3505 :     /* Schedule updated track entries to be written */
; 3506 :     obtain_lock( &cckd->cckdiolock );

  0046b	48 8b 44 24 78	 mov	 rax, QWORD PTR cckd$[rsp]
  00470	48 83 c0 18	 add	 rax, 24
  00474	48 8d 15 00 00
	00 00		 lea	 rdx, OFFSET FLAT:$SG171406
  0047b	48 8b c8	 mov	 rcx, rax
  0047e	ff 15 00 00 00
	00		 call	 QWORD PTR __imp_hthread_obtain_lock

; 3507 :     {
; 3508 :         if (cckd->merging)

  00484	48 8b 44 24 78	 mov	 rax, QWORD PTR cckd$[rsp]
  00489	8b 40 08	 mov	 eax, DWORD PTR [rax+8]
  0048c	c1 e8 05	 shr	 eax, 5
  0048f	83 e0 01	 and	 eax, 1
  00492	85 c0		 test	 eax, eax
  00494	0f 84 fc 00 00
	00		 je	 $LN17@cckd64_sf_

; 3509 :         {
; 3510 :             release_lock( &cckd->cckdiolock );

  0049a	48 8b 44 24 78	 mov	 rax, QWORD PTR cckd$[rsp]
  0049f	48 83 c0 18	 add	 rax, 24
  004a3	48 8d 15 00 00
	00 00		 lea	 rdx, OFFSET FLAT:$SG171408
  004aa	48 8b c8	 mov	 rcx, rax
  004ad	ff 15 00 00 00
	00		 call	 QWORD PTR __imp_hthread_release_lock

; 3511 :             // "%1d:%04X CCKD file[%d] %s: error merging shadow file, sf command busy on device"
; 3512 :             WRMSG( HHC00322, "W", LCSS_DEVNUM, cckd->sfn, cckd_sf_name(dev, cckd->sfn) );

  004b3	48 83 7c 24 70
	00		 cmp	 QWORD PTR dev$[rsp], 0
  004b9	74 12		 je	 SHORT $LN73@cckd64_sf_
  004bb	48 8b 44 24 70	 mov	 rax, QWORD PTR dev$[rsp]
  004c0	0f b7 40 48	 movzx	 eax, WORD PTR [rax+72]
  004c4	89 84 24 c0 00
	00 00		 mov	 DWORD PTR tv228[rsp], eax
  004cb	eb 0b		 jmp	 SHORT $LN74@cckd64_sf_
$LN73@cckd64_sf_:
  004cd	c7 84 24 c0 00
	00 00 00 00 00
	00		 mov	 DWORD PTR tv228[rsp], 0
$LN74@cckd64_sf_:
  004d8	48 83 7c 24 70
	00		 cmp	 QWORD PTR dev$[rsp], 0
  004de	74 14		 je	 SHORT $LN75@cckd64_sf_
  004e0	48 8b 44 24 70	 mov	 rax, QWORD PTR dev$[rsp]
  004e5	0f b7 40 44	 movzx	 eax, WORD PTR [rax+68]
  004e9	d1 f8		 sar	 eax, 1
  004eb	89 84 24 c4 00
	00 00		 mov	 DWORD PTR tv234[rsp], eax
  004f2	eb 0b		 jmp	 SHORT $LN76@cckd64_sf_
$LN75@cckd64_sf_:
  004f4	c7 84 24 c4 00
	00 00 00 00 00
	00		 mov	 DWORD PTR tv234[rsp], 0
$LN76@cckd64_sf_:
  004ff	48 8b 44 24 78	 mov	 rax, QWORD PTR cckd$[rsp]
  00504	8b 50 3c	 mov	 edx, DWORD PTR [rax+60]
  00507	48 8b 4c 24 70	 mov	 rcx, QWORD PTR dev$[rsp]
  0050c	e8 00 00 00 00	 call	 cckd_sf_name
  00511	48 89 84 24 40
	01 00 00	 mov	 QWORD PTR tv215[rsp], rax
  00519	b9 01 00 00 00	 mov	 ecx, 1
  0051e	ff 15 00 00 00
	00		 call	 QWORD PTR __imp___acrt_iob_func
  00524	48 8b 8c 24 40
	01 00 00	 mov	 rcx, QWORD PTR tv215[rsp]
  0052c	48 89 4c 24 50	 mov	 QWORD PTR [rsp+80], rcx
  00531	48 8b 4c 24 78	 mov	 rcx, QWORD PTR cckd$[rsp]
  00536	8b 49 3c	 mov	 ecx, DWORD PTR [rcx+60]
  00539	89 4c 24 48	 mov	 DWORD PTR [rsp+72], ecx
  0053d	8b 8c 24 c0 00
	00 00		 mov	 ecx, DWORD PTR tv228[rsp]
  00544	89 4c 24 40	 mov	 DWORD PTR [rsp+64], ecx
  00548	8b 8c 24 c4 00
	00 00		 mov	 ecx, DWORD PTR tv234[rsp]
  0054f	89 4c 24 38	 mov	 DWORD PTR [rsp+56], ecx
  00553	48 8d 0d 00 00
	00 00		 lea	 rcx, OFFSET FLAT:$SG171409
  0055a	48 89 4c 24 30	 mov	 QWORD PTR [rsp+48], rcx
  0055f	48 8d 0d 00 00
	00 00		 lea	 rcx, OFFSET FLAT:$SG171410
  00566	48 89 4c 24 28	 mov	 QWORD PTR [rsp+40], rcx
  0056b	48 89 44 24 20	 mov	 QWORD PTR [rsp+32], rax
  00570	41 b9 03 00 00
	00		 mov	 r9d, 3
  00576	4c 8d 05 00 00
	00 00		 lea	 r8, OFFSET FLAT:$SG171411
  0057d	ba b8 0d 00 00	 mov	 edx, 3512		; 00000db8H
  00582	48 8d 0d 00 00
	00 00		 lea	 rcx, OFFSET FLAT:$SG171412
  00589	ff 15 00 00 00
	00		 call	 QWORD PTR __imp_fwritemsg

; 3513 :             return NULL;

  0058f	33 c0		 xor	 eax, eax
  00591	e9 1c 14 00 00	 jmp	 $LN1@cckd64_sf_
$LN17@cckd64_sf_:

; 3514 :         }
; 3515 :         cckd->merging = 1;

  00596	48 8b 44 24 78	 mov	 rax, QWORD PTR cckd$[rsp]
  0059b	8b 40 08	 mov	 eax, DWORD PTR [rax+8]
  0059e	83 c8 20	 or	 eax, 32			; 00000020H
  005a1	48 8b 4c 24 78	 mov	 rcx, QWORD PTR cckd$[rsp]
  005a6	89 41 08	 mov	 DWORD PTR [rcx+8], eax

; 3516 :         cckd64_flush_cache (dev);

  005a9	48 8b 4c 24 70	 mov	 rcx, QWORD PTR dev$[rsp]
  005ae	e8 00 00 00 00	 call	 cckd64_flush_cache
$LN5@cckd64_sf_:

; 3517 :         while (cckd->wrpending || cckd->cckdioact)

  005b3	48 8b 44 24 78	 mov	 rax, QWORD PTR cckd$[rsp]
  005b8	83 78 34 00	 cmp	 DWORD PTR [rax+52], 0
  005bc	75 12		 jne	 SHORT $LN18@cckd64_sf_
  005be	48 8b 44 24 78	 mov	 rax, QWORD PTR cckd$[rsp]
  005c3	8b 40 08	 mov	 eax, DWORD PTR [rax+8]
  005c6	c1 e8 02	 shr	 eax, 2
  005c9	83 e0 01	 and	 eax, 1
  005cc	85 c0		 test	 eax, eax
  005ce	74 52		 je	 SHORT $LN6@cckd64_sf_
$LN18@cckd64_sf_:

; 3518 :         {
; 3519 :             cckd->cckdwaiters++;

  005d0	48 8b 44 24 78	 mov	 rax, QWORD PTR cckd$[rsp]
  005d5	8b 40 30	 mov	 eax, DWORD PTR [rax+48]
  005d8	ff c0		 inc	 eax
  005da	48 8b 4c 24 78	 mov	 rcx, QWORD PTR cckd$[rsp]
  005df	89 41 30	 mov	 DWORD PTR [rcx+48], eax

; 3520 :             wait_condition( &cckd->cckdiocond, &cckd->cckdiolock );

  005e2	48 8b 44 24 78	 mov	 rax, QWORD PTR cckd$[rsp]
  005e7	48 83 c0 18	 add	 rax, 24
  005eb	48 8b 4c 24 78	 mov	 rcx, QWORD PTR cckd$[rsp]
  005f0	48 83 c1 20	 add	 rcx, 32			; 00000020H
  005f4	4c 8d 05 00 00
	00 00		 lea	 r8, OFFSET FLAT:$SG171414
  005fb	48 8b d0	 mov	 rdx, rax
  005fe	ff 15 00 00 00
	00		 call	 QWORD PTR __imp_hthread_wait_condition

; 3521 :             cckd->cckdwaiters--;

  00604	48 8b 44 24 78	 mov	 rax, QWORD PTR cckd$[rsp]
  00609	8b 40 30	 mov	 eax, DWORD PTR [rax+48]
  0060c	ff c8		 dec	 eax
  0060e	48 8b 4c 24 78	 mov	 rcx, QWORD PTR cckd$[rsp]
  00613	89 41 30	 mov	 DWORD PTR [rcx+48], eax

; 3522 :             cckd64_flush_cache( dev );

  00616	48 8b 4c 24 70	 mov	 rcx, QWORD PTR dev$[rsp]
  0061b	e8 00 00 00 00	 call	 cckd64_flush_cache

; 3523 :         }

  00620	eb 91		 jmp	 SHORT $LN5@cckd64_sf_
$LN6@cckd64_sf_:

; 3524 :         cckd64_purge_cache( dev );

  00622	48 8b 4c 24 70	 mov	 rcx, QWORD PTR dev$[rsp]
  00627	e8 00 00 00 00	 call	 cckd64_purge_cache

; 3525 :         cckd64_purge_l2( dev );

  0062c	48 8b 4c 24 70	 mov	 rcx, QWORD PTR dev$[rsp]
  00631	e8 00 00 00 00	 call	 cckd64_purge_l2

; 3526 :         dev->bufcur = dev->cache = -1;

  00636	48 8b 44 24 70	 mov	 rax, QWORD PTR dev$[rsp]
  0063b	c7 80 f8 01 00
	00 ff ff ff ff	 mov	 DWORD PTR [rax+504], -1
  00645	48 8b 44 24 70	 mov	 rax, QWORD PTR dev$[rsp]
  0064a	c7 80 c0 01 00
	00 ff ff ff ff	 mov	 DWORD PTR [rax+448], -1

; 3527 :     }
; 3528 :     release_lock( &cckd->cckdiolock );

  00654	48 8b 44 24 78	 mov	 rax, QWORD PTR cckd$[rsp]
  00659	48 83 c0 18	 add	 rax, 24
  0065d	48 8d 15 00 00
	00 00		 lea	 rdx, OFFSET FLAT:$SG171415
  00664	48 8b c8	 mov	 rcx, rax
  00667	ff 15 00 00 00
	00		 call	 QWORD PTR __imp_hthread_release_lock

; 3529 : 
; 3530 :     obtain_lock( &cckd->filelock );

  0066d	48 8b 44 24 78	 mov	 rax, QWORD PTR cckd$[rsp]
  00672	48 83 c0 10	 add	 rax, 16
  00676	48 8d 15 00 00
	00 00		 lea	 rdx, OFFSET FLAT:$SG171416
  0067d	48 8b c8	 mov	 rcx, rax
  00680	ff 15 00 00 00
	00		 call	 QWORD PTR __imp_hthread_obtain_lock

; 3531 : 
; 3532 :     if (!cckd->sfn)

  00686	48 8b 44 24 78	 mov	 rax, QWORD PTR cckd$[rsp]
  0068b	83 78 3c 00	 cmp	 DWORD PTR [rax+60], 0
  0068f	0f 85 0f 01 00
	00		 jne	 $LN19@cckd64_sf_

; 3533 :     {
; 3534 :         release_lock( &cckd->filelock );

  00695	48 8b 44 24 78	 mov	 rax, QWORD PTR cckd$[rsp]
  0069a	48 83 c0 10	 add	 rax, 16
  0069e	48 8d 15 00 00
	00 00		 lea	 rdx, OFFSET FLAT:$SG171418
  006a5	48 8b c8	 mov	 rcx, rax
  006a8	ff 15 00 00 00
	00		 call	 QWORD PTR __imp_hthread_release_lock

; 3535 :         // "%1d:%04X CCKD file[%d] %s: cannot remove base file"
; 3536 :         WRMSG( HHC00323, "E", LCSS_DEVNUM, cckd->sfn, cckd_sf_name(dev, cckd->sfn) );

  006ae	48 83 7c 24 70
	00		 cmp	 QWORD PTR dev$[rsp], 0
  006b4	74 12		 je	 SHORT $LN77@cckd64_sf_
  006b6	48 8b 44 24 70	 mov	 rax, QWORD PTR dev$[rsp]
  006bb	0f b7 40 48	 movzx	 eax, WORD PTR [rax+72]
  006bf	89 84 24 c8 00
	00 00		 mov	 DWORD PTR tv326[rsp], eax
  006c6	eb 0b		 jmp	 SHORT $LN78@cckd64_sf_
$LN77@cckd64_sf_:
  006c8	c7 84 24 c8 00
	00 00 00 00 00
	00		 mov	 DWORD PTR tv326[rsp], 0
$LN78@cckd64_sf_:
  006d3	48 83 7c 24 70
	00		 cmp	 QWORD PTR dev$[rsp], 0
  006d9	74 14		 je	 SHORT $LN79@cckd64_sf_
  006db	48 8b 44 24 70	 mov	 rax, QWORD PTR dev$[rsp]
  006e0	0f b7 40 44	 movzx	 eax, WORD PTR [rax+68]
  006e4	d1 f8		 sar	 eax, 1
  006e6	89 84 24 cc 00
	00 00		 mov	 DWORD PTR tv332[rsp], eax
  006ed	eb 0b		 jmp	 SHORT $LN80@cckd64_sf_
$LN79@cckd64_sf_:
  006ef	c7 84 24 cc 00
	00 00 00 00 00
	00		 mov	 DWORD PTR tv332[rsp], 0
$LN80@cckd64_sf_:
  006fa	48 8b 44 24 78	 mov	 rax, QWORD PTR cckd$[rsp]
  006ff	8b 50 3c	 mov	 edx, DWORD PTR [rax+60]
  00702	48 8b 4c 24 70	 mov	 rcx, QWORD PTR dev$[rsp]
  00707	e8 00 00 00 00	 call	 cckd_sf_name
  0070c	48 89 84 24 48
	01 00 00	 mov	 QWORD PTR tv281[rsp], rax
  00714	b9 01 00 00 00	 mov	 ecx, 1
  00719	ff 15 00 00 00
	00		 call	 QWORD PTR __imp___acrt_iob_func
  0071f	48 8b 8c 24 48
	01 00 00	 mov	 rcx, QWORD PTR tv281[rsp]
  00727	48 89 4c 24 50	 mov	 QWORD PTR [rsp+80], rcx
  0072c	48 8b 4c 24 78	 mov	 rcx, QWORD PTR cckd$[rsp]
  00731	8b 49 3c	 mov	 ecx, DWORD PTR [rcx+60]
  00734	89 4c 24 48	 mov	 DWORD PTR [rsp+72], ecx
  00738	8b 8c 24 c8 00
	00 00		 mov	 ecx, DWORD PTR tv326[rsp]
  0073f	89 4c 24 40	 mov	 DWORD PTR [rsp+64], ecx
  00743	8b 8c 24 cc 00
	00 00		 mov	 ecx, DWORD PTR tv332[rsp]
  0074a	89 4c 24 38	 mov	 DWORD PTR [rsp+56], ecx
  0074e	48 8d 0d 00 00
	00 00		 lea	 rcx, OFFSET FLAT:$SG171419
  00755	48 89 4c 24 30	 mov	 QWORD PTR [rsp+48], rcx
  0075a	48 8d 0d 00 00
	00 00		 lea	 rcx, OFFSET FLAT:$SG171420
  00761	48 89 4c 24 28	 mov	 QWORD PTR [rsp+40], rcx
  00766	48 89 44 24 20	 mov	 QWORD PTR [rsp+32], rax
  0076b	41 b9 03 00 00
	00		 mov	 r9d, 3
  00771	4c 8d 05 00 00
	00 00		 lea	 r8, OFFSET FLAT:$SG171421
  00778	ba d0 0d 00 00	 mov	 edx, 3536		; 00000dd0H
  0077d	48 8d 0d 00 00
	00 00		 lea	 rcx, OFFSET FLAT:$SG171422
  00784	ff 15 00 00 00
	00		 call	 QWORD PTR __imp_fwritemsg

; 3537 :         cckd->merging = 0;

  0078a	48 8b 44 24 78	 mov	 rax, QWORD PTR cckd$[rsp]
  0078f	8b 40 08	 mov	 eax, DWORD PTR [rax+8]
  00792	83 e0 df	 and	 eax, -33		; ffffffdfH
  00795	48 8b 4c 24 78	 mov	 rcx, QWORD PTR cckd$[rsp]
  0079a	89 41 08	 mov	 DWORD PTR [rcx+8], eax

; 3538 :         return NULL;

  0079d	33 c0		 xor	 eax, eax
  0079f	e9 0e 12 00 00	 jmp	 $LN1@cckd64_sf_
$LN19@cckd64_sf_:

; 3539 :     }
; 3540 : 
; 3541 :     from_sfx = cckd->sfn;

  007a4	48 8b 44 24 78	 mov	 rax, QWORD PTR cckd$[rsp]
  007a9	8b 40 3c	 mov	 eax, DWORD PTR [rax+60]
  007ac	89 84 24 84 00
	00 00		 mov	 DWORD PTR from_sfx$[rsp], eax

; 3542 :     to_sfx   = cckd->sfn - 1;

  007b3	48 8b 44 24 78	 mov	 rax, QWORD PTR cckd$[rsp]
  007b8	8b 40 3c	 mov	 eax, DWORD PTR [rax+60]
  007bb	ff c8		 dec	 eax
  007bd	89 84 24 80 00
	00 00		 mov	 DWORD PTR to_sfx$[rsp], eax

; 3543 :     fix = cckd->cdevhdr[ to_sfx ].cdh_nullfmt;

  007c4	48 63 84 24 80
	00 00 00	 movsxd	 rax, DWORD PTR to_sfx$[rsp]
  007cc	48 69 c0 00 02
	00 00		 imul	 rax, rax, 512		; 00000200H
  007d3	48 8b 4c 24 78	 mov	 rcx, QWORD PTR cckd$[rsp]
  007d8	0f b6 84 01 28
	02 00 00	 movzx	 eax, BYTE PTR [rcx+rax+552]
  007e0	89 84 24 10 01
	00 00		 mov	 DWORD PTR fix$[rsp], eax

; 3544 : 
; 3545 :     /* Harden the `from' file */
; 3546 :     if (cckd_harden( dev ) < 0)

  007e7	48 8b 4c 24 70	 mov	 rcx, QWORD PTR dev$[rsp]
  007ec	e8 00 00 00 00	 call	 cckd_harden
  007f1	85 c0		 test	 eax, eax
  007f3	0f 8d 03 01 00
	00		 jge	 $LN20@cckd64_sf_

; 3547 :     {
; 3548 :         // "%1d:%04X CCKD file[%d] %s: shadow file not merged: file[%d] %s%s"
; 3549 :         WRMSG( HHC00324, "E", LCSS_DEVNUM, from_sfx, cckd_sf_name( dev, cckd->sfx ),

  007f9	48 83 7c 24 70
	00		 cmp	 QWORD PTR dev$[rsp], 0
  007ff	74 12		 je	 SHORT $LN81@cckd64_sf_
  00801	48 8b 44 24 70	 mov	 rax, QWORD PTR dev$[rsp]
  00806	0f b7 40 48	 movzx	 eax, WORD PTR [rax+72]
  0080a	89 84 24 d0 00
	00 00		 mov	 DWORD PTR tv370[rsp], eax
  00811	eb 0b		 jmp	 SHORT $LN82@cckd64_sf_
$LN81@cckd64_sf_:
  00813	c7 84 24 d0 00
	00 00 00 00 00
	00		 mov	 DWORD PTR tv370[rsp], 0
$LN82@cckd64_sf_:
  0081e	48 83 7c 24 70
	00		 cmp	 QWORD PTR dev$[rsp], 0
  00824	74 14		 je	 SHORT $LN83@cckd64_sf_
  00826	48 8b 44 24 70	 mov	 rax, QWORD PTR dev$[rsp]
  0082b	0f b7 40 44	 movzx	 eax, WORD PTR [rax+68]
  0082f	d1 f8		 sar	 eax, 1
  00831	89 84 24 d4 00
	00 00		 mov	 DWORD PTR tv376[rsp], eax
  00838	eb 0b		 jmp	 SHORT $LN84@cckd64_sf_
$LN83@cckd64_sf_:
  0083a	c7 84 24 d4 00
	00 00 00 00 00
	00		 mov	 DWORD PTR tv376[rsp], 0
$LN84@cckd64_sf_:
  00845	48 8b 44 24 78	 mov	 rax, QWORD PTR cckd$[rsp]
  0084a	8b 50 40	 mov	 edx, DWORD PTR [rax+64]
  0084d	48 8b 4c 24 70	 mov	 rcx, QWORD PTR dev$[rsp]
  00852	e8 00 00 00 00	 call	 cckd_sf_name
  00857	48 89 84 24 50
	01 00 00	 mov	 QWORD PTR tv361[rsp], rax
  0085f	b9 01 00 00 00	 mov	 ecx, 1
  00864	ff 15 00 00 00
	00		 call	 QWORD PTR __imp___acrt_iob_func
  0086a	48 8d 0d 00 00
	00 00		 lea	 rcx, OFFSET FLAT:$SG171424
  00871	48 89 4c 24 68	 mov	 QWORD PTR [rsp+104], rcx
  00876	48 8d 0d 00 00
	00 00		 lea	 rcx, OFFSET FLAT:$SG171425
  0087d	48 89 4c 24 60	 mov	 QWORD PTR [rsp+96], rcx
  00882	8b 8c 24 84 00
	00 00		 mov	 ecx, DWORD PTR from_sfx$[rsp]
  00889	89 4c 24 58	 mov	 DWORD PTR [rsp+88], ecx
  0088d	48 8b 8c 24 50
	01 00 00	 mov	 rcx, QWORD PTR tv361[rsp]
  00895	48 89 4c 24 50	 mov	 QWORD PTR [rsp+80], rcx
  0089a	8b 8c 24 84 00
	00 00		 mov	 ecx, DWORD PTR from_sfx$[rsp]
  008a1	89 4c 24 48	 mov	 DWORD PTR [rsp+72], ecx
  008a5	8b 8c 24 d0 00
	00 00		 mov	 ecx, DWORD PTR tv370[rsp]
  008ac	89 4c 24 40	 mov	 DWORD PTR [rsp+64], ecx
  008b0	8b 8c 24 d4 00
	00 00		 mov	 ecx, DWORD PTR tv376[rsp]
  008b7	89 4c 24 38	 mov	 DWORD PTR [rsp+56], ecx
  008bb	48 8d 0d 00 00
	00 00		 lea	 rcx, OFFSET FLAT:$SG171426
  008c2	48 89 4c 24 30	 mov	 QWORD PTR [rsp+48], rcx
  008c7	48 8d 0d 00 00
	00 00		 lea	 rcx, OFFSET FLAT:$SG171427
  008ce	48 89 4c 24 28	 mov	 QWORD PTR [rsp+40], rcx
  008d3	48 89 44 24 20	 mov	 QWORD PTR [rsp+32], rax
  008d8	41 b9 03 00 00
	00		 mov	 r9d, 3
  008de	4c 8d 05 00 00
	00 00		 lea	 r8, OFFSET FLAT:$SG171428
  008e5	ba de 0d 00 00	 mov	 edx, 3550		; 00000ddeH
  008ea	48 8d 0d 00 00
	00 00		 lea	 rcx, OFFSET FLAT:$SG171429
  008f1	ff 15 00 00 00
	00		 call	 QWORD PTR __imp_fwritemsg

; 3550 :                from_sfx, "not hardened", "" );
; 3551 :         goto sf_remove_exit;

  008f7	e9 ef 0c 00 00	 jmp	 $sf_remove_exit$112
$LN20@cckd64_sf_:

; 3552 :     }
; 3553 : 
; 3554 :     /* Attempt to re-open the `to' file read-write */
; 3555 :     cckd64_close( dev, to_sfx );

  008fc	8b 94 24 80 00
	00 00		 mov	 edx, DWORD PTR to_sfx$[rsp]
  00903	48 8b 4c 24 70	 mov	 rcx, QWORD PTR dev$[rsp]
  00908	e8 00 00 00 00	 call	 cckd64_close

; 3556 :     if (to_sfx > 0 || !dev->ckdrdonly || force)

  0090d	83 bc 24 80 00
	00 00 00	 cmp	 DWORD PTR to_sfx$[rsp], 0
  00915	7f 1f		 jg	 SHORT $LN22@cckd64_sf_
  00917	48 8b 44 24 70	 mov	 rax, QWORD PTR dev$[rsp]
  0091c	8b 80 14 13 00
	00		 mov	 eax, DWORD PTR [rax+4884]
  00922	c1 e8 12	 shr	 eax, 18
  00925	83 e0 01	 and	 eax, 1
  00928	85 c0		 test	 eax, eax
  0092a	74 0a		 je	 SHORT $LN22@cckd64_sf_
  0092c	83 bc 24 a4 00
	00 00 00	 cmp	 DWORD PTR force$[rsp], 0
  00934	74 1d		 je	 SHORT $LN21@cckd64_sf_
$LN22@cckd64_sf_:

; 3557 :         cckd64_open( dev, to_sfx, O_RDWR|O_BINARY, 1 );

  00936	41 b9 01 00 00
	00		 mov	 r9d, 1
  0093c	41 b8 02 80 00
	00		 mov	 r8d, 32770		; 00008002H
  00942	8b 94 24 80 00
	00 00		 mov	 edx, DWORD PTR to_sfx$[rsp]
  00949	48 8b 4c 24 70	 mov	 rcx, QWORD PTR dev$[rsp]
  0094e	e8 00 00 00 00	 call	 cckd64_open
$LN21@cckd64_sf_:

; 3558 :     if (cckd->fd[to_sfx] < 0)

  00953	48 63 84 24 80
	00 00 00	 movsxd	 rax, DWORD PTR to_sfx$[rsp]
  0095b	48 8b 4c 24 78	 mov	 rcx, QWORD PTR cckd$[rsp]
  00960	83 bc 81 f0 00
	00 00 00	 cmp	 DWORD PTR [rcx+rax*4+240], 0
  00968	0f 8d 86 01 00
	00		 jge	 $LN23@cckd64_sf_

; 3559 :     {
; 3560 :         /* `from' file can't be opened read-write */
; 3561 :         cckd64_open( dev, to_sfx, O_RDONLY|O_BINARY, 0 );

  0096e	45 33 c9	 xor	 r9d, r9d
  00971	41 b8 00 80 00
	00		 mov	 r8d, 32768		; 00008000H
  00977	8b 94 24 80 00
	00 00		 mov	 edx, DWORD PTR to_sfx$[rsp]
  0097e	48 8b 4c 24 70	 mov	 rcx, QWORD PTR dev$[rsp]
  00983	e8 00 00 00 00	 call	 cckd64_open

; 3562 :         if (merge)

  00988	83 bc 24 9c 00
	00 00 00	 cmp	 DWORD PTR merge$[rsp], 0
  00990	0f 84 4e 01 00
	00		 je	 $LN25@cckd64_sf_

; 3563 :         {
; 3564 :             // "%1d:%04X CCKD file[%d] %s: shadow file not merged: file[%d] %s%s"
; 3565 :             WRMSG( HHC00324, "E", LCSS_DEVNUM, from_sfx, cckd_sf_name( dev, from_sfx ),

  00996	83 bc 24 80 00
	00 00 00	 cmp	 DWORD PTR to_sfx$[rsp], 0
  0099e	75 30		 jne	 SHORT $LN85@cckd64_sf_
  009a0	48 8b 44 24 70	 mov	 rax, QWORD PTR dev$[rsp]
  009a5	8b 80 14 13 00
	00		 mov	 eax, DWORD PTR [rax+4884]
  009ab	c1 e8 12	 shr	 eax, 18
  009ae	83 e0 01	 and	 eax, 1
  009b1	85 c0		 test	 eax, eax
  009b3	74 1b		 je	 SHORT $LN85@cckd64_sf_
  009b5	83 bc 24 a4 00
	00 00 00	 cmp	 DWORD PTR force$[rsp], 0
  009bd	75 11		 jne	 SHORT $LN85@cckd64_sf_
  009bf	48 8d 05 00 00
	00 00		 lea	 rax, OFFSET FLAT:$SG171436
  009c6	48 89 84 24 28
	01 00 00	 mov	 QWORD PTR tv415[rsp], rax
  009ce	eb 0f		 jmp	 SHORT $LN86@cckd64_sf_
$LN85@cckd64_sf_:
  009d0	48 8d 05 00 00
	00 00		 lea	 rax, OFFSET FLAT:$SG171437
  009d7	48 89 84 24 28
	01 00 00	 mov	 QWORD PTR tv415[rsp], rax
$LN86@cckd64_sf_:
  009df	48 83 7c 24 70
	00		 cmp	 QWORD PTR dev$[rsp], 0
  009e5	74 12		 je	 SHORT $LN87@cckd64_sf_
  009e7	48 8b 44 24 70	 mov	 rax, QWORD PTR dev$[rsp]
  009ec	0f b7 40 48	 movzx	 eax, WORD PTR [rax+72]
  009f0	89 84 24 d8 00
	00 00		 mov	 DWORD PTR tv427[rsp], eax
  009f7	eb 0b		 jmp	 SHORT $LN88@cckd64_sf_
$LN87@cckd64_sf_:
  009f9	c7 84 24 d8 00
	00 00 00 00 00
	00		 mov	 DWORD PTR tv427[rsp], 0
$LN88@cckd64_sf_:
  00a04	48 83 7c 24 70
	00		 cmp	 QWORD PTR dev$[rsp], 0
  00a0a	74 14		 je	 SHORT $LN89@cckd64_sf_
  00a0c	48 8b 44 24 70	 mov	 rax, QWORD PTR dev$[rsp]
  00a11	0f b7 40 44	 movzx	 eax, WORD PTR [rax+68]
  00a15	d1 f8		 sar	 eax, 1
  00a17	89 84 24 dc 00
	00 00		 mov	 DWORD PTR tv433[rsp], eax
  00a1e	eb 0b		 jmp	 SHORT $LN90@cckd64_sf_
$LN89@cckd64_sf_:
  00a20	c7 84 24 dc 00
	00 00 00 00 00
	00		 mov	 DWORD PTR tv433[rsp], 0
$LN90@cckd64_sf_:
  00a2b	8b 94 24 84 00
	00 00		 mov	 edx, DWORD PTR from_sfx$[rsp]
  00a32	48 8b 4c 24 70	 mov	 rcx, QWORD PTR dev$[rsp]
  00a37	e8 00 00 00 00	 call	 cckd_sf_name
  00a3c	48 89 84 24 58
	01 00 00	 mov	 QWORD PTR tv419[rsp], rax
  00a44	b9 01 00 00 00	 mov	 ecx, 1
  00a49	ff 15 00 00 00
	00		 call	 QWORD PTR __imp___acrt_iob_func
  00a4f	48 8b 8c 24 28
	01 00 00	 mov	 rcx, QWORD PTR tv415[rsp]
  00a57	48 89 4c 24 68	 mov	 QWORD PTR [rsp+104], rcx
  00a5c	48 8d 0d 00 00
	00 00		 lea	 rcx, OFFSET FLAT:$SG171438
  00a63	48 89 4c 24 60	 mov	 QWORD PTR [rsp+96], rcx
  00a68	8b 8c 24 80 00
	00 00		 mov	 ecx, DWORD PTR to_sfx$[rsp]
  00a6f	89 4c 24 58	 mov	 DWORD PTR [rsp+88], ecx
  00a73	48 8b 8c 24 58
	01 00 00	 mov	 rcx, QWORD PTR tv419[rsp]
  00a7b	48 89 4c 24 50	 mov	 QWORD PTR [rsp+80], rcx
  00a80	8b 8c 24 84 00
	00 00		 mov	 ecx, DWORD PTR from_sfx$[rsp]
  00a87	89 4c 24 48	 mov	 DWORD PTR [rsp+72], ecx
  00a8b	8b 8c 24 d8 00
	00 00		 mov	 ecx, DWORD PTR tv427[rsp]
  00a92	89 4c 24 40	 mov	 DWORD PTR [rsp+64], ecx
  00a96	8b 8c 24 dc 00
	00 00		 mov	 ecx, DWORD PTR tv433[rsp]
  00a9d	89 4c 24 38	 mov	 DWORD PTR [rsp+56], ecx
  00aa1	48 8d 0d 00 00
	00 00		 lea	 rcx, OFFSET FLAT:$SG171439
  00aa8	48 89 4c 24 30	 mov	 QWORD PTR [rsp+48], rcx
  00aad	48 8d 0d 00 00
	00 00		 lea	 rcx, OFFSET FLAT:$SG171440
  00ab4	48 89 4c 24 28	 mov	 QWORD PTR [rsp+40], rcx
  00ab9	48 89 44 24 20	 mov	 QWORD PTR [rsp+32], rax
  00abe	41 b9 03 00 00
	00		 mov	 r9d, 3
  00ac4	4c 8d 05 00 00
	00 00		 lea	 r8, OFFSET FLAT:$SG171441
  00acb	ba ef 0d 00 00	 mov	 edx, 3567		; 00000defH
  00ad0	48 8d 0d 00 00
	00 00		 lea	 rcx, OFFSET FLAT:$SG171442
  00ad7	ff 15 00 00 00
	00		 call	 QWORD PTR __imp_fwritemsg

; 3566 :                                  to_sfx, "cannot be opened read-write",
; 3567 :                                  to_sfx == 0 && dev->ckdrdonly && !force ? ", try 'force'" : "" );
; 3568 :             goto sf_remove_exit;

  00add	e9 09 0b 00 00	 jmp	 $sf_remove_exit$112

; 3569 :         }

  00ae2	eb 0b		 jmp	 SHORT $LN26@cckd64_sf_
$LN25@cckd64_sf_:

; 3570 :         else
; 3571 :            add = 1;

  00ae4	c7 84 24 b4 00
	00 00 01 00 00
	00		 mov	 DWORD PTR add$[rsp], 1
$LN26@cckd64_sf_:

; 3572 :     }

  00aef	e9 34 01 00 00	 jmp	 $LN24@cckd64_sf_
$LN23@cckd64_sf_:

; 3573 :     else
; 3574 :     {
; 3575 :         /* `from' file opened read-write */
; 3576 :         cckd->sfn = to_sfx;

  00af4	48 8b 44 24 78	 mov	 rax, QWORD PTR cckd$[rsp]
  00af9	8b 8c 24 80 00
	00 00		 mov	 ecx, DWORD PTR to_sfx$[rsp]
  00b00	89 48 3c	 mov	 DWORD PTR [rax+60], ecx

; 3577 : 
; 3578 :         if (cckd64_chkdsk( dev, 0 ) < 0)

  00b03	33 d2		 xor	 edx, edx
  00b05	48 8b 4c 24 70	 mov	 rcx, QWORD PTR dev$[rsp]
  00b0a	e8 00 00 00 00	 call	 cckd64_chkdsk
  00b0f	85 c0		 test	 eax, eax
  00b11	0f 8d 11 01 00
	00		 jge	 $LN27@cckd64_sf_

; 3579 :         {
; 3580 :             cckd->sfn = from_sfx;

  00b17	48 8b 44 24 78	 mov	 rax, QWORD PTR cckd$[rsp]
  00b1c	8b 8c 24 84 00
	00 00		 mov	 ecx, DWORD PTR from_sfx$[rsp]
  00b23	89 48 3c	 mov	 DWORD PTR [rax+60], ecx

; 3581 :             // "%1d:%04X CCKD file[%d] %s: shadow file not merged: file[%d] %s%s"
; 3582 :             WRMSG( HHC00324, "E", LCSS_DEVNUM, to_sfx, cckd_sf_name( dev, to_sfx ),

  00b26	48 83 7c 24 70
	00		 cmp	 QWORD PTR dev$[rsp], 0
  00b2c	74 12		 je	 SHORT $LN91@cckd64_sf_
  00b2e	48 8b 44 24 70	 mov	 rax, QWORD PTR dev$[rsp]
  00b33	0f b7 40 48	 movzx	 eax, WORD PTR [rax+72]
  00b37	89 84 24 e0 00
	00 00		 mov	 DWORD PTR tv461[rsp], eax
  00b3e	eb 0b		 jmp	 SHORT $LN92@cckd64_sf_
$LN91@cckd64_sf_:
  00b40	c7 84 24 e0 00
	00 00 00 00 00
	00		 mov	 DWORD PTR tv461[rsp], 0
$LN92@cckd64_sf_:
  00b4b	48 83 7c 24 70
	00		 cmp	 QWORD PTR dev$[rsp], 0
  00b51	74 14		 je	 SHORT $LN93@cckd64_sf_
  00b53	48 8b 44 24 70	 mov	 rax, QWORD PTR dev$[rsp]
  00b58	0f b7 40 44	 movzx	 eax, WORD PTR [rax+68]
  00b5c	d1 f8		 sar	 eax, 1
  00b5e	89 84 24 e4 00
	00 00		 mov	 DWORD PTR tv467[rsp], eax
  00b65	eb 0b		 jmp	 SHORT $LN94@cckd64_sf_
$LN93@cckd64_sf_:
  00b67	c7 84 24 e4 00
	00 00 00 00 00
	00		 mov	 DWORD PTR tv467[rsp], 0
$LN94@cckd64_sf_:
  00b72	8b 94 24 80 00
	00 00		 mov	 edx, DWORD PTR to_sfx$[rsp]
  00b79	48 8b 4c 24 70	 mov	 rcx, QWORD PTR dev$[rsp]
  00b7e	e8 00 00 00 00	 call	 cckd_sf_name
  00b83	48 89 84 24 60
	01 00 00	 mov	 QWORD PTR tv453[rsp], rax
  00b8b	b9 01 00 00 00	 mov	 ecx, 1
  00b90	ff 15 00 00 00
	00		 call	 QWORD PTR __imp___acrt_iob_func
  00b96	48 8d 0d 00 00
	00 00		 lea	 rcx, OFFSET FLAT:$SG171444
  00b9d	48 89 4c 24 68	 mov	 QWORD PTR [rsp+104], rcx
  00ba2	48 8d 0d 00 00
	00 00		 lea	 rcx, OFFSET FLAT:$SG171445
  00ba9	48 89 4c 24 60	 mov	 QWORD PTR [rsp+96], rcx
  00bae	8b 8c 24 80 00
	00 00		 mov	 ecx, DWORD PTR to_sfx$[rsp]
  00bb5	89 4c 24 58	 mov	 DWORD PTR [rsp+88], ecx
  00bb9	48 8b 8c 24 60
	01 00 00	 mov	 rcx, QWORD PTR tv453[rsp]
  00bc1	48 89 4c 24 50	 mov	 QWORD PTR [rsp+80], rcx
  00bc6	8b 8c 24 80 00
	00 00		 mov	 ecx, DWORD PTR to_sfx$[rsp]
  00bcd	89 4c 24 48	 mov	 DWORD PTR [rsp+72], ecx
  00bd1	8b 8c 24 e0 00
	00 00		 mov	 ecx, DWORD PTR tv461[rsp]
  00bd8	89 4c 24 40	 mov	 DWORD PTR [rsp+64], ecx
  00bdc	8b 8c 24 e4 00
	00 00		 mov	 ecx, DWORD PTR tv467[rsp]
  00be3	89 4c 24 38	 mov	 DWORD PTR [rsp+56], ecx
  00be7	48 8d 0d 00 00
	00 00		 lea	 rcx, OFFSET FLAT:$SG171446
  00bee	48 89 4c 24 30	 mov	 QWORD PTR [rsp+48], rcx
  00bf3	48 8d 0d 00 00
	00 00		 lea	 rcx, OFFSET FLAT:$SG171447
  00bfa	48 89 4c 24 28	 mov	 QWORD PTR [rsp+40], rcx
  00bff	48 89 44 24 20	 mov	 QWORD PTR [rsp+32], rax
  00c04	41 b9 03 00 00
	00		 mov	 r9d, 3
  00c0a	4c 8d 05 00 00
	00 00		 lea	 r8, OFFSET FLAT:$SG171448
  00c11	ba ff 0d 00 00	 mov	 edx, 3583		; 00000dffH
  00c16	48 8d 0d 00 00
	00 00		 lea	 rcx, OFFSET FLAT:$SG171449
  00c1d	ff 15 00 00 00
	00		 call	 QWORD PTR __imp_fwritemsg

; 3583 :                                  to_sfx, "check failed", "" );
; 3584 :             goto sf_remove_exit;

  00c23	e9 c3 09 00 00	 jmp	 $sf_remove_exit$112
$LN27@cckd64_sf_:
$LN24@cckd64_sf_:

; 3585 :         }
; 3586 :     }
; 3587 : 
; 3588 :     cckd->sfn = to_sfx;

  00c28	48 8b 44 24 78	 mov	 rax, QWORD PTR cckd$[rsp]
  00c2d	8b 8c 24 80 00
	00 00		 mov	 ecx, DWORD PTR to_sfx$[rsp]
  00c34	89 48 3c	 mov	 DWORD PTR [rax+60], ecx

; 3589 : 
; 3590 :     /* Perform backwards merge */
; 3591 :     if (merge)

  00c37	83 bc 24 9c 00
	00 00 00	 cmp	 DWORD PTR merge$[rsp], 0
  00c3f	0f 84 be 06 00
	00		 je	 $LN28@cckd64_sf_

; 3592 :     {
; 3593 :         CCKD_TRACE( "merging to file[%d]", to_sfx );

  00c45	8b 84 24 80 00
	00 00		 mov	 eax, DWORD PTR to_sfx$[rsp]
  00c4c	89 44 24 20	 mov	 DWORD PTR [rsp+32], eax
  00c50	4c 8d 0d 00 00
	00 00		 lea	 r9, OFFSET FLAT:$SG171451
  00c57	4c 8b 44 24 70	 mov	 r8, QWORD PTR dev$[rsp]
  00c5c	ba 09 0e 00 00	 mov	 edx, 3593		; 00000e09H
  00c61	48 8d 0d 00 00
	00 00		 lea	 rcx, OFFSET FLAT:$SG171452
  00c68	e8 00 00 00 00	 call	 cckd_trace

; 3594 : 
; 3595 :         /* Make the target file the active file */
; 3596 :         cckd->sfn = to_sfx;

  00c6d	48 8b 44 24 78	 mov	 rax, QWORD PTR cckd$[rsp]
  00c72	8b 8c 24 80 00
	00 00		 mov	 ecx, DWORD PTR to_sfx$[rsp]
  00c79	89 48 3c	 mov	 DWORD PTR [rax+60], ecx

; 3597 :         cckd->cdevhdr[to_sfx].cdh_opts |= (CCKD_OPT_OPENED | CCKD_OPT_OPENRW);

  00c7c	48 63 84 24 80
	00 00 00	 movsxd	 rax, DWORD PTR to_sfx$[rsp]
  00c84	48 69 c0 00 02
	00 00		 imul	 rax, rax, 512		; 00000200H
  00c8b	48 8b 4c 24 78	 mov	 rcx, QWORD PTR cckd$[rsp]
  00c90	0f b6 84 01 e3
	01 00 00	 movzx	 eax, BYTE PTR [rcx+rax+483]
  00c98	0d c0 00 00 00	 or	 eax, 192		; 000000c0H
  00c9d	48 63 8c 24 80
	00 00 00	 movsxd	 rcx, DWORD PTR to_sfx$[rsp]
  00ca5	48 69 c9 00 02
	00 00		 imul	 rcx, rcx, 512		; 00000200H
  00cac	48 8b 54 24 78	 mov	 rdx, QWORD PTR cckd$[rsp]
  00cb1	88 84 0a e3 01
	00 00		 mov	 BYTE PTR [rdx+rcx+483], al

; 3598 : 
; 3599 :         /* Loop for each level 1 table entry */
; 3600 :         for (i = 0; i < cckd->cdevhdr[from_sfx].num_L1tab; i++)

  00cb8	c7 84 24 88 00
	00 00 00 00 00
	00		 mov	 DWORD PTR i$[rsp], 0
  00cc3	eb 10		 jmp	 SHORT $LN9@cckd64_sf_
$LN7@cckd64_sf_:
  00cc5	8b 84 24 88 00
	00 00		 mov	 eax, DWORD PTR i$[rsp]
  00ccc	ff c0		 inc	 eax
  00cce	89 84 24 88 00
	00 00		 mov	 DWORD PTR i$[rsp], eax
$LN9@cckd64_sf_:
  00cd5	48 63 84 24 84
	00 00 00	 movsxd	 rax, DWORD PTR from_sfx$[rsp]
  00cdd	48 69 c0 00 02
	00 00		 imul	 rax, rax, 512		; 00000200H
  00ce4	48 8b 4c 24 78	 mov	 rcx, QWORD PTR cckd$[rsp]
  00ce9	8b 84 01 e4 01
	00 00		 mov	 eax, DWORD PTR [rcx+rax+484]
  00cf0	39 84 24 88 00
	00 00		 cmp	 DWORD PTR i$[rsp], eax
  00cf7	0f 8d e6 05 00
	00		 jge	 $LN8@cckd64_sf_

; 3601 :         {
; 3602 :             l2updated = 0;

  00cfd	c7 84 24 a0 00
	00 00 00 00 00
	00		 mov	 DWORD PTR l2updated$[rsp], 0

; 3603 :             /* Continue if from L2 doesn't exist */
; 3604 :             if (cckd->L1tab[from_sfx][i] == CCKD64_MAXSIZE
; 3605 :              || (cckd->L1tab[from_sfx][i] == 0 && cckd->L1tab[to_sfx][i] == 0))

  00d08	48 63 84 24 84
	00 00 00	 movsxd	 rax, DWORD PTR from_sfx$[rsp]
  00d10	48 63 8c 24 88
	00 00 00	 movsxd	 rcx, DWORD PTR i$[rsp]
  00d18	48 8b 54 24 78	 mov	 rdx, QWORD PTR cckd$[rsp]
  00d1d	48 8b 84 c2 98
	01 00 00	 mov	 rax, QWORD PTR [rdx+rax*8+408]
  00d25	48 83 3c c8 ff	 cmp	 QWORD PTR [rax+rcx*8], -1
  00d2a	74 48		 je	 SHORT $LN30@cckd64_sf_
  00d2c	48 63 84 24 84
	00 00 00	 movsxd	 rax, DWORD PTR from_sfx$[rsp]
  00d34	48 63 8c 24 88
	00 00 00	 movsxd	 rcx, DWORD PTR i$[rsp]
  00d3c	48 8b 54 24 78	 mov	 rdx, QWORD PTR cckd$[rsp]
  00d41	48 8b 84 c2 98
	01 00 00	 mov	 rax, QWORD PTR [rdx+rax*8+408]
  00d49	48 83 3c c8 00	 cmp	 QWORD PTR [rax+rcx*8], 0
  00d4e	75 29		 jne	 SHORT $LN29@cckd64_sf_
  00d50	48 63 84 24 80
	00 00 00	 movsxd	 rax, DWORD PTR to_sfx$[rsp]
  00d58	48 63 8c 24 88
	00 00 00	 movsxd	 rcx, DWORD PTR i$[rsp]
  00d60	48 8b 54 24 78	 mov	 rdx, QWORD PTR cckd$[rsp]
  00d65	48 8b 84 c2 98
	01 00 00	 mov	 rax, QWORD PTR [rdx+rax*8+408]
  00d6d	48 83 3c c8 00	 cmp	 QWORD PTR [rax+rcx*8], 0
  00d72	75 05		 jne	 SHORT $LN29@cckd64_sf_
$LN30@cckd64_sf_:

; 3606 :                 continue;

  00d74	e9 4c ff ff ff	 jmp	 $LN7@cckd64_sf_
$LN29@cckd64_sf_:

; 3607 : 
; 3608 :             trk = i*256;

  00d79	69 84 24 88 00
	00 00 00 01 00
	00		 imul	 eax, DWORD PTR i$[rsp], 256 ; 00000100H
  00d84	89 84 24 ac 00
	00 00		 mov	 DWORD PTR trk$[rsp], eax

; 3609 : 
; 3610 :             /* Read `from' l2 table */
; 3611 :             if (cckd->L1tab[from_sfx][i] == 0)

  00d8b	48 63 84 24 84
	00 00 00	 movsxd	 rax, DWORD PTR from_sfx$[rsp]
  00d93	48 63 8c 24 88
	00 00 00	 movsxd	 rcx, DWORD PTR i$[rsp]
  00d9b	48 8b 54 24 78	 mov	 rdx, QWORD PTR cckd$[rsp]
  00da0	48 8b 84 c2 98
	01 00 00	 mov	 rax, QWORD PTR [rdx+rax*8+408]
  00da8	48 83 3c c8 00	 cmp	 QWORD PTR [rax+rcx*8], 0
  00dad	75 16		 jne	 SHORT $LN31@cckd64_sf_

; 3612 :                 memset( &from_l2, 0, CCKD64_L2TAB_SIZE );

  00daf	48 8d 84 24 90
	11 00 00	 lea	 rax, QWORD PTR from_l2$[rsp]
  00db7	48 8b f8	 mov	 rdi, rax
  00dba	33 c0		 xor	 eax, eax
  00dbc	b9 00 10 00 00	 mov	 ecx, 4096		; 00001000H
  00dc1	f3 aa		 rep stosb
  00dc3	eb 5b		 jmp	 SHORT $LN32@cckd64_sf_
$LN31@cckd64_sf_:

; 3613 :             else
; 3614 :             {
; 3615 :                 pos = cckd->L1tab[from_sfx][i];

  00dc5	48 63 84 24 84
	00 00 00	 movsxd	 rax, DWORD PTR from_sfx$[rsp]
  00dcd	48 63 8c 24 88
	00 00 00	 movsxd	 rcx, DWORD PTR i$[rsp]
  00dd5	48 8b 54 24 78	 mov	 rdx, QWORD PTR cckd$[rsp]
  00dda	48 8b 84 c2 98
	01 00 00	 mov	 rax, QWORD PTR [rdx+rax*8+408]
  00de2	48 8b 04 c8	 mov	 rax, QWORD PTR [rax+rcx*8]
  00de6	48 89 84 24 90
	00 00 00	 mov	 QWORD PTR pos$[rsp], rax

; 3616 :                 if (cckd64_read( dev, from_sfx, pos, &from_l2, CCKD64_L2TAB_SIZE ) < 0)

  00dee	c7 44 24 20 00
	10 00 00	 mov	 DWORD PTR [rsp+32], 4096 ; 00001000H
  00df6	4c 8d 8c 24 90
	11 00 00	 lea	 r9, QWORD PTR from_l2$[rsp]
  00dfe	4c 8b 84 24 90
	00 00 00	 mov	 r8, QWORD PTR pos$[rsp]
  00e06	8b 94 24 84 00
	00 00		 mov	 edx, DWORD PTR from_sfx$[rsp]
  00e0d	48 8b 4c 24 70	 mov	 rcx, QWORD PTR dev$[rsp]
  00e12	e8 00 00 00 00	 call	 cckd64_read
  00e17	85 c0		 test	 eax, eax
  00e19	7d 05		 jge	 SHORT $LN33@cckd64_sf_

; 3617 :                     goto sf_merge_error;

  00e1b	e9 c3 08 00 00	 jmp	 $sf_merge_error$113
$LN33@cckd64_sf_:
$LN32@cckd64_sf_:

; 3618 :             }
; 3619 : 
; 3620 :             /* Read `to' l2 table */
; 3621 :             if (cckd->L1tab[to_sfx][i] == 0)

  00e20	48 63 84 24 80
	00 00 00	 movsxd	 rax, DWORD PTR to_sfx$[rsp]
  00e28	48 63 8c 24 88
	00 00 00	 movsxd	 rcx, DWORD PTR i$[rsp]
  00e30	48 8b 54 24 78	 mov	 rdx, QWORD PTR cckd$[rsp]
  00e35	48 8b 84 c2 98
	01 00 00	 mov	 rax, QWORD PTR [rdx+rax*8+408]
  00e3d	48 83 3c c8 00	 cmp	 QWORD PTR [rax+rcx*8], 0
  00e42	75 19		 jne	 SHORT $LN34@cckd64_sf_

; 3622 :                 memset( &to_l2, 0, CCKD64_L2TAB_SIZE );

  00e44	48 8d 84 24 90
	01 00 00	 lea	 rax, QWORD PTR to_l2$[rsp]
  00e4c	48 8b f8	 mov	 rdi, rax
  00e4f	33 c0		 xor	 eax, eax
  00e51	b9 00 10 00 00	 mov	 ecx, 4096		; 00001000H
  00e56	f3 aa		 rep stosb
  00e58	e9 98 00 00 00	 jmp	 $LN35@cckd64_sf_
$LN34@cckd64_sf_:

; 3623 :             else if (cckd->L1tab[to_sfx][i] == CCKD64_MAXSIZE)

  00e5d	48 63 84 24 80
	00 00 00	 movsxd	 rax, DWORD PTR to_sfx$[rsp]
  00e65	48 63 8c 24 88
	00 00 00	 movsxd	 rcx, DWORD PTR i$[rsp]
  00e6d	48 8b 54 24 78	 mov	 rdx, QWORD PTR cckd$[rsp]
  00e72	48 8b 84 c2 98
	01 00 00	 mov	 rax, QWORD PTR [rdx+rax*8+408]
  00e7a	48 83 3c c8 ff	 cmp	 QWORD PTR [rax+rcx*8], -1
  00e7f	75 19		 jne	 SHORT $LN36@cckd64_sf_

; 3624 :                 memset (&to_l2, 0xff, CCKD64_L2TAB_SIZE);

  00e81	48 8d 84 24 90
	01 00 00	 lea	 rax, QWORD PTR to_l2$[rsp]
  00e89	48 8b f8	 mov	 rdi, rax
  00e8c	b8 ff 00 00 00	 mov	 eax, 255		; 000000ffH
  00e91	b9 00 10 00 00	 mov	 ecx, 4096		; 00001000H
  00e96	f3 aa		 rep stosb
  00e98	eb 5b		 jmp	 SHORT $LN37@cckd64_sf_
$LN36@cckd64_sf_:

; 3625 :             else
; 3626 :             {
; 3627 :                 pos = cckd->L1tab[to_sfx][i];

  00e9a	48 63 84 24 80
	00 00 00	 movsxd	 rax, DWORD PTR to_sfx$[rsp]
  00ea2	48 63 8c 24 88
	00 00 00	 movsxd	 rcx, DWORD PTR i$[rsp]
  00eaa	48 8b 54 24 78	 mov	 rdx, QWORD PTR cckd$[rsp]
  00eaf	48 8b 84 c2 98
	01 00 00	 mov	 rax, QWORD PTR [rdx+rax*8+408]
  00eb7	48 8b 04 c8	 mov	 rax, QWORD PTR [rax+rcx*8]
  00ebb	48 89 84 24 90
	00 00 00	 mov	 QWORD PTR pos$[rsp], rax

; 3628 :                 if (cckd64_read( dev, to_sfx, pos, &to_l2, CCKD64_L2TAB_SIZE ) < 0)

  00ec3	c7 44 24 20 00
	10 00 00	 mov	 DWORD PTR [rsp+32], 4096 ; 00001000H
  00ecb	4c 8d 8c 24 90
	01 00 00	 lea	 r9, QWORD PTR to_l2$[rsp]
  00ed3	4c 8b 84 24 90
	00 00 00	 mov	 r8, QWORD PTR pos$[rsp]
  00edb	8b 94 24 80 00
	00 00		 mov	 edx, DWORD PTR to_sfx$[rsp]
  00ee2	48 8b 4c 24 70	 mov	 rcx, QWORD PTR dev$[rsp]
  00ee7	e8 00 00 00 00	 call	 cckd64_read
  00eec	85 c0		 test	 eax, eax
  00eee	7d 05		 jge	 SHORT $LN38@cckd64_sf_

; 3629 :                     goto sf_merge_error;

  00ef0	e9 ee 07 00 00	 jmp	 $sf_merge_error$113
$LN38@cckd64_sf_:
$LN37@cckd64_sf_:
$LN35@cckd64_sf_:

; 3630 :             }
; 3631 : 
; 3632 :             /* Loop for each level 2 table entry */
; 3633 :             for (j = 0; j < 256; j++)

  00ef5	c7 84 24 8c 00
	00 00 00 00 00
	00		 mov	 DWORD PTR j$[rsp], 0
  00f00	eb 10		 jmp	 SHORT $LN12@cckd64_sf_
$LN10@cckd64_sf_:
  00f02	8b 84 24 8c 00
	00 00		 mov	 eax, DWORD PTR j$[rsp]
  00f09	ff c0		 inc	 eax
  00f0b	89 84 24 8c 00
	00 00		 mov	 DWORD PTR j$[rsp], eax
$LN12@cckd64_sf_:
  00f12	81 bc 24 8c 00
	00 00 00 01 00
	00		 cmp	 DWORD PTR j$[rsp], 256	; 00000100H
  00f1d	0f 8d 5e 02 00
	00		 jge	 $LN11@cckd64_sf_

; 3634 :             {
; 3635 :                 trk = i*256 + j;

  00f23	69 84 24 88 00
	00 00 00 01 00
	00		 imul	 eax, DWORD PTR i$[rsp], 256 ; 00000100H
  00f2e	03 84 24 8c 00
	00 00		 add	 eax, DWORD PTR j$[rsp]
  00f35	89 84 24 ac 00
	00 00		 mov	 DWORD PTR trk$[rsp], eax

; 3636 :                 /* Continue if from L2 entry doesn't exist */
; 3637 :                 if (from_l2[j].L2_trkoff == CCKD64_MAXSIZE
; 3638 :                  || (from_l2[j].L2_trkoff == 0 && to_l2[j].L2_trkoff == 0))

  00f3c	48 63 84 24 8c
	00 00 00	 movsxd	 rax, DWORD PTR j$[rsp]
  00f44	48 6b c0 10	 imul	 rax, rax, 16
  00f48	48 83 bc 04 90
	11 00 00 ff	 cmp	 QWORD PTR from_l2$[rsp+rax], -1
  00f51	74 2e		 je	 SHORT $LN40@cckd64_sf_
  00f53	48 63 84 24 8c
	00 00 00	 movsxd	 rax, DWORD PTR j$[rsp]
  00f5b	48 6b c0 10	 imul	 rax, rax, 16
  00f5f	48 83 bc 04 90
	11 00 00 00	 cmp	 QWORD PTR from_l2$[rsp+rax], 0
  00f68	75 1c		 jne	 SHORT $LN39@cckd64_sf_
  00f6a	48 63 84 24 8c
	00 00 00	 movsxd	 rax, DWORD PTR j$[rsp]
  00f72	48 6b c0 10	 imul	 rax, rax, 16
  00f76	48 83 bc 04 90
	01 00 00 00	 cmp	 QWORD PTR to_l2$[rsp+rax], 0
  00f7f	75 05		 jne	 SHORT $LN39@cckd64_sf_
$LN40@cckd64_sf_:

; 3639 :                     continue;

  00f81	e9 7c ff ff ff	 jmp	 $LN10@cckd64_sf_
$LN39@cckd64_sf_:

; 3640 : 
; 3641 :                 /* Read the `from' track/blkgrp image */
; 3642 :                 len = (unsigned int)from_l2[j].L2_len;

  00f86	48 63 84 24 8c
	00 00 00	 movsxd	 rax, DWORD PTR j$[rsp]
  00f8e	48 6b c0 10	 imul	 rax, rax, 16
  00f92	0f b7 84 04 98
	11 00 00	 movzx	 eax, WORD PTR from_l2$[rsp+rax+8]
  00f9a	89 84 24 98 00
	00 00		 mov	 DWORD PTR len$[rsp], eax

; 3643 :                 if (len > CKD_NULLTRK_FMTMAX)

  00fa1	83 bc 24 98 00
	00 00 02	 cmp	 DWORD PTR len$[rsp], 2
  00fa9	0f 86 f6 00 00
	00		 jbe	 $LN41@cckd64_sf_

; 3644 :                 {
; 3645 :                     pos = from_l2[j].L2_trkoff;

  00faf	48 63 84 24 8c
	00 00 00	 movsxd	 rax, DWORD PTR j$[rsp]
  00fb7	48 6b c0 10	 imul	 rax, rax, 16
  00fbb	48 8b 84 04 90
	11 00 00	 mov	 rax, QWORD PTR from_l2$[rsp+rax]
  00fc3	48 89 84 24 90
	00 00 00	 mov	 QWORD PTR pos$[rsp], rax

; 3646 :                     if (cckd64_read( dev, from_sfx, pos, buf, len ) < 0)

  00fcb	8b 84 24 98 00
	00 00		 mov	 eax, DWORD PTR len$[rsp]
  00fd2	89 44 24 20	 mov	 DWORD PTR [rsp+32], eax
  00fd6	4c 8d 8c 24 90
	21 00 00	 lea	 r9, QWORD PTR buf$[rsp]
  00fde	4c 8b 84 24 90
	00 00 00	 mov	 r8, QWORD PTR pos$[rsp]
  00fe6	8b 94 24 84 00
	00 00		 mov	 edx, DWORD PTR from_sfx$[rsp]
  00fed	48 8b 4c 24 70	 mov	 rcx, QWORD PTR dev$[rsp]
  00ff2	e8 00 00 00 00	 call	 cckd64_read
  00ff7	85 c0		 test	 eax, eax
  00ff9	7d 05		 jge	 SHORT $LN43@cckd64_sf_

; 3647 :                         goto sf_merge_error;

  00ffb	e9 e3 06 00 00	 jmp	 $sf_merge_error$113
$LN43@cckd64_sf_:

; 3648 : 
; 3649 :                     /* Get space for the `to' track/blkgrp image */
; 3650 :                     size = len;

  01000	8b 84 24 98 00
	00 00		 mov	 eax, DWORD PTR len$[rsp]
  01007	89 84 24 a8 00
	00 00		 mov	 DWORD PTR size$[rsp], eax

; 3651 :                     if ((S64)(pos = cckd64_get_space (dev, &size, CCKD_SIZE_EXACT)) < 0)

  0100e	41 b8 01 00 00
	00		 mov	 r8d, 1
  01014	48 8d 94 24 a8
	00 00 00	 lea	 rdx, QWORD PTR size$[rsp]
  0101c	48 8b 4c 24 70	 mov	 rcx, QWORD PTR dev$[rsp]
  01021	e8 00 00 00 00	 call	 cckd64_get_space
  01026	48 89 84 24 90
	00 00 00	 mov	 QWORD PTR pos$[rsp], rax
  0102e	48 83 bc 24 90
	00 00 00 00	 cmp	 QWORD PTR pos$[rsp], 0
  01037	7d 05		 jge	 SHORT $LN44@cckd64_sf_

; 3652 :                         goto sf_merge_error;

  01039	e9 a5 06 00 00	 jmp	 $sf_merge_error$113
$LN44@cckd64_sf_:

; 3653 : 
; 3654 :                     new_l2.L2_trkoff = pos;

  0103e	48 8b 84 24 90
	00 00 00	 mov	 rax, QWORD PTR pos$[rsp]
  01046	48 89 84 24 80
	01 00 00	 mov	 QWORD PTR new_l2$[rsp], rax

; 3655 :                     new_l2.L2_len    = (U16)len;

  0104e	0f b7 84 24 98
	00 00 00	 movzx	 eax, WORD PTR len$[rsp]
  01056	66 89 84 24 88
	01 00 00	 mov	 WORD PTR new_l2$[rsp+8], ax

; 3656 :                     new_l2.L2_size   = (U16)size;

  0105e	0f b7 84 24 a8
	00 00 00	 movzx	 eax, WORD PTR size$[rsp]
  01066	66 89 84 24 8a
	01 00 00	 mov	 WORD PTR new_l2$[rsp+10], ax

; 3657 : 
; 3658 :                     /* Write the `to' track/blkgrp image */
; 3659 :                     if (cckd64_write( dev, to_sfx, pos, buf, len ) < 0)

  0106e	8b 84 24 98 00
	00 00		 mov	 eax, DWORD PTR len$[rsp]
  01075	89 44 24 20	 mov	 DWORD PTR [rsp+32], eax
  01079	4c 8d 8c 24 90
	21 00 00	 lea	 r9, QWORD PTR buf$[rsp]
  01081	4c 8b 84 24 90
	00 00 00	 mov	 r8, QWORD PTR pos$[rsp]
  01089	8b 94 24 80 00
	00 00		 mov	 edx, DWORD PTR to_sfx$[rsp]
  01090	48 8b 4c 24 70	 mov	 rcx, QWORD PTR dev$[rsp]
  01095	e8 00 00 00 00	 call	 cckd64_write
  0109a	85 c0		 test	 eax, eax
  0109c	7d 05		 jge	 SHORT $LN45@cckd64_sf_

; 3660 :                         goto sf_merge_error;

  0109e	e9 40 06 00 00	 jmp	 $sf_merge_error$113
$LN45@cckd64_sf_:

; 3661 :                 }

  010a3	eb 2c		 jmp	 SHORT $LN42@cckd64_sf_
$LN41@cckd64_sf_:

; 3662 :                 else
; 3663 :                 {
; 3664 :                     new_l2.L2_trkoff = 0;

  010a5	48 c7 84 24 80
	01 00 00 00 00
	00 00		 mov	 QWORD PTR new_l2$[rsp], 0

; 3665 :                     new_l2.L2_len = new_l2.L2_size = (U16)len;

  010b1	0f b7 84 24 98
	00 00 00	 movzx	 eax, WORD PTR len$[rsp]
  010b9	66 89 84 24 8a
	01 00 00	 mov	 WORD PTR new_l2$[rsp+10], ax
  010c1	0f b7 84 24 8a
	01 00 00	 movzx	 eax, WORD PTR new_l2$[rsp+10]
  010c9	66 89 84 24 88
	01 00 00	 mov	 WORD PTR new_l2$[rsp+8], ax
$LN42@cckd64_sf_:

; 3666 :                 }
; 3667 : 
; 3668 :                 /* Release space occupied by old `to' entry */
; 3669 :                 cckd64_rel_space( dev, to_l2[j].L2_trkoff, (int)to_l2[j].L2_len,

  010d1	48 63 84 24 8c
	00 00 00	 movsxd	 rax, DWORD PTR j$[rsp]
  010d9	48 6b c0 10	 imul	 rax, rax, 16
  010dd	0f b7 84 04 9a
	01 00 00	 movzx	 eax, WORD PTR to_l2$[rsp+rax+10]
  010e5	48 63 8c 24 8c
	00 00 00	 movsxd	 rcx, DWORD PTR j$[rsp]
  010ed	48 6b c9 10	 imul	 rcx, rcx, 16
  010f1	0f b7 8c 0c 98
	01 00 00	 movzx	 ecx, WORD PTR to_l2$[rsp+rcx+8]
  010f9	48 63 94 24 8c
	00 00 00	 movsxd	 rdx, DWORD PTR j$[rsp]
  01101	48 6b d2 10	 imul	 rdx, rdx, 16
  01105	44 8b c8	 mov	 r9d, eax
  01108	44 8b c1	 mov	 r8d, ecx
  0110b	48 8b 94 14 90
	01 00 00	 mov	 rdx, QWORD PTR to_l2$[rsp+rdx]
  01113	48 8b 4c 24 70	 mov	 rcx, QWORD PTR dev$[rsp]
  01118	e8 00 00 00 00	 call	 cckd64_rel_space

; 3670 :                                                            (int)to_l2[j].L2_size );
; 3671 : 
; 3672 :                 /* Update `to' l2 table entry */
; 3673 :                 l2updated = 1;

  0111d	c7 84 24 a0 00
	00 00 01 00 00
	00		 mov	 DWORD PTR l2updated$[rsp], 1

; 3674 :                 to_l2[j].L2_trkoff  = new_l2.L2_trkoff;

  01128	48 63 84 24 8c
	00 00 00	 movsxd	 rax, DWORD PTR j$[rsp]
  01130	48 6b c0 10	 imul	 rax, rax, 16
  01134	48 8b 8c 24 80
	01 00 00	 mov	 rcx, QWORD PTR new_l2$[rsp]
  0113c	48 89 8c 04 90
	01 00 00	 mov	 QWORD PTR to_l2$[rsp+rax], rcx

; 3675 :                 to_l2[j].L2_len  = new_l2.L2_len;

  01144	48 63 84 24 8c
	00 00 00	 movsxd	 rax, DWORD PTR j$[rsp]
  0114c	48 6b c0 10	 imul	 rax, rax, 16
  01150	0f b7 8c 24 88
	01 00 00	 movzx	 ecx, WORD PTR new_l2$[rsp+8]
  01158	66 89 8c 04 98
	01 00 00	 mov	 WORD PTR to_l2$[rsp+rax+8], cx

; 3676 :                 to_l2[j].L2_size = new_l2.L2_size;

  01160	48 63 84 24 8c
	00 00 00	 movsxd	 rax, DWORD PTR j$[rsp]
  01168	48 6b c0 10	 imul	 rax, rax, 16
  0116c	0f b7 8c 24 8a
	01 00 00	 movzx	 ecx, WORD PTR new_l2$[rsp+10]
  01174	66 89 8c 04 9a
	01 00 00	 mov	 WORD PTR to_l2$[rsp+rax+10], cx

; 3677 :             } /* for each level 2 table entry */

  0117c	e9 81 fd ff ff	 jmp	 $LN10@cckd64_sf_
$LN11@cckd64_sf_:

; 3678 : 
; 3679 :             /* Update the `to' level 2 table */
; 3680 :             if (l2updated)

  01181	83 bc 24 a0 00
	00 00 00	 cmp	 DWORD PTR l2updated$[rsp], 0
  01189	0f 84 4f 01 00
	00		 je	 $LN46@cckd64_sf_

; 3681 :             {
; 3682 :                 l2updated = 0;

  0118f	c7 84 24 a0 00
	00 00 00 00 00
	00		 mov	 DWORD PTR l2updated$[rsp], 0

; 3683 :                 pos = cckd->L1tab[to_sfx][i];

  0119a	48 63 84 24 80
	00 00 00	 movsxd	 rax, DWORD PTR to_sfx$[rsp]
  011a2	48 63 8c 24 88
	00 00 00	 movsxd	 rcx, DWORD PTR i$[rsp]
  011aa	48 8b 54 24 78	 mov	 rdx, QWORD PTR cckd$[rsp]
  011af	48 8b 84 c2 98
	01 00 00	 mov	 rax, QWORD PTR [rdx+rax*8+408]
  011b7	48 8b 04 c8	 mov	 rax, QWORD PTR [rax+rcx*8]
  011bb	48 89 84 24 90
	00 00 00	 mov	 QWORD PTR pos$[rsp], rax

; 3684 :                 if (memcmp( &to_l2, &empty64_l2[fix], CCKD64_L2TAB_SIZE ) == 0)

  011c3	48 63 84 24 10
	01 00 00	 movsxd	 rax, DWORD PTR fix$[rsp]
  011cb	48 69 c0 00 10
	00 00		 imul	 rax, rax, 4096		; 00001000H
  011d2	48 8d 0d 00 00
	00 00		 lea	 rcx, OFFSET FLAT:empty64_l2
  011d9	48 03 c8	 add	 rcx, rax
  011dc	48 8b c1	 mov	 rax, rcx
  011df	41 b8 00 10 00
	00		 mov	 r8d, 4096		; 00001000H
  011e5	48 8b d0	 mov	 rdx, rax
  011e8	48 8d 8c 24 90
	01 00 00	 lea	 rcx, QWORD PTR to_l2$[rsp]
  011f0	e8 00 00 00 00	 call	 memcmp
  011f5	85 c0		 test	 eax, eax
  011f7	75 2f		 jne	 SHORT $LN47@cckd64_sf_

; 3685 :                 {
; 3686 :                     cckd64_rel_space( dev, pos, CCKD64_L2TAB_SIZE, CCKD64_L2TAB_SIZE );

  011f9	41 b9 00 10 00
	00		 mov	 r9d, 4096		; 00001000H
  011ff	41 b8 00 10 00
	00		 mov	 r8d, 4096		; 00001000H
  01205	48 8b 94 24 90
	00 00 00	 mov	 rdx, QWORD PTR pos$[rsp]
  0120d	48 8b 4c 24 70	 mov	 rcx, QWORD PTR dev$[rsp]
  01212	e8 00 00 00 00	 call	 cckd64_rel_space

; 3687 :                     pos = 0;

  01217	48 c7 84 24 90
	00 00 00 00 00
	00 00		 mov	 QWORD PTR pos$[rsp], 0

; 3688 :                 }

  01223	e9 83 00 00 00	 jmp	 $LN48@cckd64_sf_
$LN47@cckd64_sf_:

; 3689 :                 else
; 3690 :                 {
; 3691 :                     size = CCKD64_L2TAB_SIZE;

  01228	c7 84 24 a8 00
	00 00 00 10 00
	00		 mov	 DWORD PTR size$[rsp], 4096 ; 00001000H

; 3692 :                     if (pos == CCKD64_NOSIZE || pos == CCKD64_MAXSIZE)

  01233	48 83 bc 24 90
	00 00 00 00	 cmp	 QWORD PTR pos$[rsp], 0
  0123c	74 0b		 je	 SHORT $LN50@cckd64_sf_
  0123e	48 83 bc 24 90
	00 00 00 ff	 cmp	 QWORD PTR pos$[rsp], -1
  01247	75 30		 jne	 SHORT $LN49@cckd64_sf_
$LN50@cckd64_sf_:

; 3693 :                         if ((S64)(pos = cckd64_get_space( dev, &size, CCKD_L2SPACE )) < 0)

  01249	41 b8 04 00 00
	00		 mov	 r8d, 4
  0124f	48 8d 94 24 a8
	00 00 00	 lea	 rdx, QWORD PTR size$[rsp]
  01257	48 8b 4c 24 70	 mov	 rcx, QWORD PTR dev$[rsp]
  0125c	e8 00 00 00 00	 call	 cckd64_get_space
  01261	48 89 84 24 90
	00 00 00	 mov	 QWORD PTR pos$[rsp], rax
  01269	48 83 bc 24 90
	00 00 00 00	 cmp	 QWORD PTR pos$[rsp], 0
  01272	7d 05		 jge	 SHORT $LN51@cckd64_sf_

; 3694 :                             goto sf_merge_error;

  01274	e9 6a 04 00 00	 jmp	 $sf_merge_error$113
$LN51@cckd64_sf_:
$LN49@cckd64_sf_:

; 3695 :                     if (cckd64_write( dev, to_sfx, pos, &to_l2, CCKD64_L2TAB_SIZE ) < 0)

  01279	c7 44 24 20 00
	10 00 00	 mov	 DWORD PTR [rsp+32], 4096 ; 00001000H
  01281	4c 8d 8c 24 90
	01 00 00	 lea	 r9, QWORD PTR to_l2$[rsp]
  01289	4c 8b 84 24 90
	00 00 00	 mov	 r8, QWORD PTR pos$[rsp]
  01291	8b 94 24 80 00
	00 00		 mov	 edx, DWORD PTR to_sfx$[rsp]
  01298	48 8b 4c 24 70	 mov	 rcx, QWORD PTR dev$[rsp]
  0129d	e8 00 00 00 00	 call	 cckd64_write
  012a2	85 c0		 test	 eax, eax
  012a4	7d 05		 jge	 SHORT $LN52@cckd64_sf_

; 3696 :                         goto sf_merge_error;

  012a6	e9 38 04 00 00	 jmp	 $sf_merge_error$113
$LN52@cckd64_sf_:
$LN48@cckd64_sf_:

; 3697 :                 } /* `to' level 2 table not null */
; 3698 : 
; 3699 :                 /* Update the level 1 table index */
; 3700 :                 cckd->L1tab[to_sfx][i] = pos;

  012ab	48 63 84 24 80
	00 00 00	 movsxd	 rax, DWORD PTR to_sfx$[rsp]
  012b3	48 63 8c 24 88
	00 00 00	 movsxd	 rcx, DWORD PTR i$[rsp]
  012bb	48 8b 54 24 78	 mov	 rdx, QWORD PTR cckd$[rsp]
  012c0	48 8b 84 c2 98
	01 00 00	 mov	 rax, QWORD PTR [rdx+rax*8+408]
  012c8	48 8b 94 24 90
	00 00 00	 mov	 rdx, QWORD PTR pos$[rsp]
  012d0	48 89 14 c8	 mov	 QWORD PTR [rax+rcx*8], rdx

; 3701 : 
; 3702 :                 /* Flush free space */
; 3703 :                 cckd64_flush_space( dev );

  012d4	48 8b 4c 24 70	 mov	 rcx, QWORD PTR dev$[rsp]
  012d9	e8 00 00 00 00	 call	 cckd64_flush_space
$LN46@cckd64_sf_:

; 3704 : 
; 3705 :             } /* Update level 2 table */
; 3706 : 
; 3707 :         } /* For each level 1 table entry */

  012de	e9 e2 f9 ff ff	 jmp	 $LN7@cckd64_sf_
$LN8@cckd64_sf_:

; 3708 : 
; 3709 :         /* Validate the merge */
; 3710 :         cckd64_harden( dev );

  012e3	48 8b 4c 24 70	 mov	 rcx, QWORD PTR dev$[rsp]
  012e8	e8 00 00 00 00	 call	 cckd64_harden

; 3711 :         cckd64_chkdsk( dev, 0 );

  012ed	33 d2		 xor	 edx, edx
  012ef	48 8b 4c 24 70	 mov	 rcx, QWORD PTR dev$[rsp]
  012f4	e8 00 00 00 00	 call	 cckd64_chkdsk

; 3712 :         cckd64_read_init( dev );

  012f9	48 8b 4c 24 70	 mov	 rcx, QWORD PTR dev$[rsp]
  012fe	e8 00 00 00 00	 call	 cckd64_read_init
$LN28@cckd64_sf_:

; 3713 : 
; 3714 :     } /* if merge */
; 3715 : 
; 3716 :     /* Remove the old file */
; 3717 :     cckd64_close( dev, from_sfx );

  01303	8b 94 24 84 00
	00 00		 mov	 edx, DWORD PTR from_sfx$[rsp]
  0130a	48 8b 4c 24 70	 mov	 rcx, QWORD PTR dev$[rsp]
  0130f	e8 00 00 00 00	 call	 cckd64_close

; 3718 :     cckd->L1tab[from_sfx] = cckd_free( dev, "l1", cckd->L1tab[ from_sfx ]);

  01314	48 63 84 24 84
	00 00 00	 movsxd	 rax, DWORD PTR from_sfx$[rsp]
  0131c	48 8b 4c 24 78	 mov	 rcx, QWORD PTR cckd$[rsp]
  01321	4c 8b 84 c1 98
	01 00 00	 mov	 r8, QWORD PTR [rcx+rax*8+408]
  01329	48 8d 15 00 00
	00 00		 lea	 rdx, OFFSET FLAT:$SG171477
  01330	48 8b 4c 24 70	 mov	 rcx, QWORD PTR dev$[rsp]
  01335	e8 00 00 00 00	 call	 cckd_free
  0133a	48 63 8c 24 84
	00 00 00	 movsxd	 rcx, DWORD PTR from_sfx$[rsp]
  01342	48 8b 54 24 78	 mov	 rdx, QWORD PTR cckd$[rsp]
  01347	48 89 84 ca 98
	01 00 00	 mov	 QWORD PTR [rdx+rcx*8+408], rax

; 3719 :     memset( &cckd->cdevhdr[from_sfx], 0, CCKD64_DEVHDR_SIZE );

  0134f	48 63 84 24 84
	00 00 00	 movsxd	 rax, DWORD PTR from_sfx$[rsp]
  01357	48 69 c0 00 02
	00 00		 imul	 rax, rax, 512		; 00000200H
  0135e	48 8b 4c 24 78	 mov	 rcx, QWORD PTR cckd$[rsp]
  01363	48 8d 84 01 e0
	01 00 00	 lea	 rax, QWORD PTR [rcx+rax+480]
  0136b	48 8b f8	 mov	 rdi, rax
  0136e	33 c0		 xor	 eax, eax
  01370	b9 00 02 00 00	 mov	 ecx, 512		; 00000200H
  01375	f3 aa		 rep stosb

; 3720 :     rc = unlink (cckd_sf_name (dev, from_sfx));

  01377	8b 94 24 84 00
	00 00		 mov	 edx, DWORD PTR from_sfx$[rsp]
  0137e	48 8b 4c 24 70	 mov	 rcx, QWORD PTR dev$[rsp]
  01383	e8 00 00 00 00	 call	 cckd_sf_name
  01388	48 8b c8	 mov	 rcx, rax
  0138b	ff 15 00 00 00
	00		 call	 QWORD PTR __imp_unlink
  01391	89 84 24 0c 01
	00 00		 mov	 DWORD PTR rc$[rsp], eax

; 3721 : 
; 3722 :     /* adjust the stats */
; 3723 :     cckd->reads   [to_sfx] += cckd->reads   [from_sfx];

  01398	48 63 84 24 80
	00 00 00	 movsxd	 rax, DWORD PTR to_sfx$[rsp]
  013a0	48 63 8c 24 84
	00 00 00	 movsxd	 rcx, DWORD PTR from_sfx$[rsp]
  013a8	48 8b 54 24 78	 mov	 rdx, QWORD PTR cckd$[rsp]
  013ad	8b 84 82 28 01
	00 00		 mov	 eax, DWORD PTR [rdx+rax*4+296]
  013b4	48 8b 54 24 78	 mov	 rdx, QWORD PTR cckd$[rsp]
  013b9	03 84 8a 28 01
	00 00		 add	 eax, DWORD PTR [rdx+rcx*4+296]
  013c0	48 63 8c 24 80
	00 00 00	 movsxd	 rcx, DWORD PTR to_sfx$[rsp]
  013c8	48 8b 54 24 78	 mov	 rdx, QWORD PTR cckd$[rsp]
  013cd	89 84 8a 28 01
	00 00		 mov	 DWORD PTR [rdx+rcx*4+296], eax

; 3724 :     cckd->writes  [to_sfx] += cckd->writes  [from_sfx];

  013d4	48 63 84 24 80
	00 00 00	 movsxd	 rax, DWORD PTR to_sfx$[rsp]
  013dc	48 63 8c 24 84
	00 00 00	 movsxd	 rcx, DWORD PTR from_sfx$[rsp]
  013e4	48 8b 54 24 78	 mov	 rdx, QWORD PTR cckd$[rsp]
  013e9	8b 84 82 70 01
	00 00		 mov	 eax, DWORD PTR [rdx+rax*4+368]
  013f0	48 8b 54 24 78	 mov	 rdx, QWORD PTR cckd$[rsp]
  013f5	03 84 8a 70 01
	00 00		 add	 eax, DWORD PTR [rdx+rcx*4+368]
  013fc	48 63 8c 24 80
	00 00 00	 movsxd	 rcx, DWORD PTR to_sfx$[rsp]
  01404	48 8b 54 24 78	 mov	 rdx, QWORD PTR cckd$[rsp]
  01409	89 84 8a 70 01
	00 00		 mov	 DWORD PTR [rdx+rcx*4+368], eax

; 3725 :     cckd->L2_reads[to_sfx] += cckd->L2_reads[from_sfx];

  01410	48 63 84 24 80
	00 00 00	 movsxd	 rax, DWORD PTR to_sfx$[rsp]
  01418	48 63 8c 24 84
	00 00 00	 movsxd	 rcx, DWORD PTR from_sfx$[rsp]
  01420	48 8b 54 24 78	 mov	 rdx, QWORD PTR cckd$[rsp]
  01425	8b 84 82 4c 01
	00 00		 mov	 eax, DWORD PTR [rdx+rax*4+332]
  0142c	48 8b 54 24 78	 mov	 rdx, QWORD PTR cckd$[rsp]
  01431	03 84 8a 4c 01
	00 00		 add	 eax, DWORD PTR [rdx+rcx*4+332]
  01438	48 63 8c 24 80
	00 00 00	 movsxd	 rcx, DWORD PTR to_sfx$[rsp]
  01440	48 8b 54 24 78	 mov	 rdx, QWORD PTR cckd$[rsp]
  01445	89 84 8a 4c 01
	00 00		 mov	 DWORD PTR [rdx+rcx*4+332], eax

; 3726 : 
; 3727 :     cckd->reads   [from_sfx] = 0;

  0144c	48 63 84 24 84
	00 00 00	 movsxd	 rax, DWORD PTR from_sfx$[rsp]
  01454	48 8b 4c 24 78	 mov	 rcx, QWORD PTR cckd$[rsp]
  01459	c7 84 81 28 01
	00 00 00 00 00
	00		 mov	 DWORD PTR [rcx+rax*4+296], 0

; 3728 :     cckd->writes  [from_sfx] = 0;

  01464	48 63 84 24 84
	00 00 00	 movsxd	 rax, DWORD PTR from_sfx$[rsp]
  0146c	48 8b 4c 24 78	 mov	 rcx, QWORD PTR cckd$[rsp]
  01471	c7 84 81 70 01
	00 00 00 00 00
	00		 mov	 DWORD PTR [rcx+rax*4+368], 0

; 3729 :     cckd->L2_reads[from_sfx] = 0;

  0147c	48 63 84 24 84
	00 00 00	 movsxd	 rax, DWORD PTR from_sfx$[rsp]
  01484	48 8b 4c 24 78	 mov	 rcx, QWORD PTR cckd$[rsp]
  01489	c7 84 81 4c 01
	00 00 00 00 00
	00		 mov	 DWORD PTR [rcx+rax*4+332], 0

; 3730 : 
; 3731 :     /* Add the file back if necessary */
; 3732 :     if (add) rc = cckd64_sf_new( dev ) ;

  01494	83 bc 24 b4 00
	00 00 00	 cmp	 DWORD PTR add$[rsp], 0
  0149c	74 11		 je	 SHORT $LN53@cckd64_sf_
  0149e	48 8b 4c 24 70	 mov	 rcx, QWORD PTR dev$[rsp]
  014a3	e8 00 00 00 00	 call	 cckd64_sf_new
  014a8	89 84 24 0c 01
	00 00		 mov	 DWORD PTR rc$[rsp], eax
$LN53@cckd64_sf_:

; 3733 : 
; 3734 :     // "%1d:%04X CCKD file[%d] %s: shadow file successfully %s"
; 3735 :     WRMSG( HHC00325, "I", LCSS_DEVNUM, from_sfx, cckd_sf_name( dev, from_sfx ),

  014af	83 bc 24 9c 00
	00 00 00	 cmp	 DWORD PTR merge$[rsp], 0
  014b7	74 11		 je	 SHORT $LN97@cckd64_sf_
  014b9	48 8d 05 00 00
	00 00		 lea	 rax, OFFSET FLAT:$SG171479
  014c0	48 89 84 24 38
	01 00 00	 mov	 QWORD PTR tv805[rsp], rax
  014c8	eb 3a		 jmp	 SHORT $LN98@cckd64_sf_
$LN97@cckd64_sf_:
  014ca	83 bc 24 b4 00
	00 00 00	 cmp	 DWORD PTR add$[rsp], 0
  014d2	74 11		 je	 SHORT $LN95@cckd64_sf_
  014d4	48 8d 05 00 00
	00 00		 lea	 rax, OFFSET FLAT:$SG171480
  014db	48 89 84 24 30
	01 00 00	 mov	 QWORD PTR tv803[rsp], rax
  014e3	eb 0f		 jmp	 SHORT $LN96@cckd64_sf_
$LN95@cckd64_sf_:
  014e5	48 8d 05 00 00
	00 00		 lea	 rax, OFFSET FLAT:$SG171481
  014ec	48 89 84 24 30
	01 00 00	 mov	 QWORD PTR tv803[rsp], rax
$LN96@cckd64_sf_:
  014f4	48 8b 84 24 30
	01 00 00	 mov	 rax, QWORD PTR tv803[rsp]
  014fc	48 89 84 24 38
	01 00 00	 mov	 QWORD PTR tv805[rsp], rax
$LN98@cckd64_sf_:
  01504	48 83 7c 24 70
	00		 cmp	 QWORD PTR dev$[rsp], 0
  0150a	74 12		 je	 SHORT $LN99@cckd64_sf_
  0150c	48 8b 44 24 70	 mov	 rax, QWORD PTR dev$[rsp]
  01511	0f b7 40 48	 movzx	 eax, WORD PTR [rax+72]
  01515	89 84 24 e8 00
	00 00		 mov	 DWORD PTR tv815[rsp], eax
  0151c	eb 0b		 jmp	 SHORT $LN100@cckd64_sf_
$LN99@cckd64_sf_:
  0151e	c7 84 24 e8 00
	00 00 00 00 00
	00		 mov	 DWORD PTR tv815[rsp], 0
$LN100@cckd64_sf_:
  01529	48 83 7c 24 70
	00		 cmp	 QWORD PTR dev$[rsp], 0
  0152f	74 14		 je	 SHORT $LN101@cckd64_sf_
  01531	48 8b 44 24 70	 mov	 rax, QWORD PTR dev$[rsp]
  01536	0f b7 40 44	 movzx	 eax, WORD PTR [rax+68]
  0153a	d1 f8		 sar	 eax, 1
  0153c	89 84 24 ec 00
	00 00		 mov	 DWORD PTR tv821[rsp], eax
  01543	eb 0b		 jmp	 SHORT $LN102@cckd64_sf_
$LN101@cckd64_sf_:
  01545	c7 84 24 ec 00
	00 00 00 00 00
	00		 mov	 DWORD PTR tv821[rsp], 0
$LN102@cckd64_sf_:
  01550	8b 94 24 84 00
	00 00		 mov	 edx, DWORD PTR from_sfx$[rsp]
  01557	48 8b 4c 24 70	 mov	 rcx, QWORD PTR dev$[rsp]
  0155c	e8 00 00 00 00	 call	 cckd_sf_name
  01561	48 89 84 24 68
	01 00 00	 mov	 QWORD PTR tv807[rsp], rax
  01569	b9 01 00 00 00	 mov	 ecx, 1
  0156e	ff 15 00 00 00
	00		 call	 QWORD PTR __imp___acrt_iob_func
  01574	48 8b 8c 24 38
	01 00 00	 mov	 rcx, QWORD PTR tv805[rsp]
  0157c	48 89 4c 24 58	 mov	 QWORD PTR [rsp+88], rcx
  01581	48 8b 8c 24 68
	01 00 00	 mov	 rcx, QWORD PTR tv807[rsp]
  01589	48 89 4c 24 50	 mov	 QWORD PTR [rsp+80], rcx
  0158e	8b 8c 24 84 00
	00 00		 mov	 ecx, DWORD PTR from_sfx$[rsp]
  01595	89 4c 24 48	 mov	 DWORD PTR [rsp+72], ecx
  01599	8b 8c 24 e8 00
	00 00		 mov	 ecx, DWORD PTR tv815[rsp]
  015a0	89 4c 24 40	 mov	 DWORD PTR [rsp+64], ecx
  015a4	8b 8c 24 ec 00
	00 00		 mov	 ecx, DWORD PTR tv821[rsp]
  015ab	89 4c 24 38	 mov	 DWORD PTR [rsp+56], ecx
  015af	48 8d 0d 00 00
	00 00		 lea	 rcx, OFFSET FLAT:$SG171482
  015b6	48 89 4c 24 30	 mov	 QWORD PTR [rsp+48], rcx
  015bb	48 8d 0d 00 00
	00 00		 lea	 rcx, OFFSET FLAT:$SG171483
  015c2	48 89 4c 24 28	 mov	 QWORD PTR [rsp+40], rcx
  015c7	48 89 44 24 20	 mov	 QWORD PTR [rsp+32], rax
  015cc	41 b9 03 00 00
	00		 mov	 r9d, 3
  015d2	4c 8d 05 00 00
	00 00		 lea	 r8, OFFSET FLAT:$SG171484
  015d9	ba 98 0e 00 00	 mov	 edx, 3736		; 00000e98H
  015de	48 8d 0d 00 00
	00 00		 lea	 rcx, OFFSET FLAT:$SG171485
  015e5	ff 15 00 00 00
	00		 call	 QWORD PTR __imp_fwritemsg
$sf_remove_exit$112:

; 3736 :                    merge ? "merged" : add ? "re-added" : "removed" );
; 3737 : 
; 3738 : sf_remove_exit:
; 3739 : 
; 3740 :     /* Re-read the l1 to set L2_bounds, L2ok */
; 3741 :     cckd64_read_l1( dev );

  015eb	48 8b 4c 24 70	 mov	 rcx, QWORD PTR dev$[rsp]
  015f0	e8 00 00 00 00	 call	 cckd64_read_l1

; 3742 : 
; 3743 :     release_lock (&cckd->filelock);

  015f5	48 8b 44 24 78	 mov	 rax, QWORD PTR cckd$[rsp]
  015fa	48 83 c0 10	 add	 rax, 16
  015fe	48 8d 15 00 00
	00 00		 lea	 rdx, OFFSET FLAT:$SG171486
  01605	48 8b c8	 mov	 rcx, rax
  01608	ff 15 00 00 00
	00		 call	 QWORD PTR __imp_hthread_release_lock

; 3744 : 
; 3745 :     obtain_lock( &cckd->cckdiolock );

  0160e	48 8b 44 24 78	 mov	 rax, QWORD PTR cckd$[rsp]
  01613	48 83 c0 18	 add	 rax, 24
  01617	48 8d 15 00 00
	00 00		 lea	 rdx, OFFSET FLAT:$SG171487
  0161e	48 8b c8	 mov	 rcx, rax
  01621	ff 15 00 00 00
	00		 call	 QWORD PTR __imp_hthread_obtain_lock

; 3746 :     {
; 3747 :         cckd64_purge_cache( dev);

  01627	48 8b 4c 24 70	 mov	 rcx, QWORD PTR dev$[rsp]
  0162c	e8 00 00 00 00	 call	 cckd64_purge_cache

; 3748 :         cckd64_purge_l2( dev );

  01631	48 8b 4c 24 70	 mov	 rcx, QWORD PTR dev$[rsp]
  01636	e8 00 00 00 00	 call	 cckd64_purge_l2

; 3749 :         dev->bufcur = dev->cache = -1;

  0163b	48 8b 44 24 70	 mov	 rax, QWORD PTR dev$[rsp]
  01640	c7 80 f8 01 00
	00 ff ff ff ff	 mov	 DWORD PTR [rax+504], -1
  0164a	48 8b 44 24 70	 mov	 rax, QWORD PTR dev$[rsp]
  0164f	c7 80 c0 01 00
	00 ff ff ff ff	 mov	 DWORD PTR [rax+448], -1

; 3750 :         cckd->merging = 0;

  01659	48 8b 44 24 78	 mov	 rax, QWORD PTR cckd$[rsp]
  0165e	8b 40 08	 mov	 eax, DWORD PTR [rax+8]
  01661	83 e0 df	 and	 eax, -33		; ffffffdfH
  01664	48 8b 4c 24 78	 mov	 rcx, QWORD PTR cckd$[rsp]
  01669	89 41 08	 mov	 DWORD PTR [rcx+8], eax

; 3751 :         if (cckd->cckdwaiters)

  0166c	48 8b 44 24 78	 mov	 rax, QWORD PTR cckd$[rsp]
  01671	83 78 30 00	 cmp	 DWORD PTR [rax+48], 0
  01675	74 19		 je	 SHORT $LN54@cckd64_sf_

; 3752 :             broadcast_condition( &cckd->cckdiocond );

  01677	48 8b 44 24 78	 mov	 rax, QWORD PTR cckd$[rsp]
  0167c	48 83 c0 20	 add	 rax, 32			; 00000020H
  01680	48 8d 15 00 00
	00 00		 lea	 rdx, OFFSET FLAT:$SG171489
  01687	48 8b c8	 mov	 rcx, rax
  0168a	ff 15 00 00 00
	00		 call	 QWORD PTR __imp_hthread_broadcast_condition
$LN54@cckd64_sf_:

; 3753 :         CCKD_TRACE( "merge complete%s", "" );

  01690	48 8d 05 00 00
	00 00		 lea	 rax, OFFSET FLAT:$SG171490
  01697	48 89 44 24 20	 mov	 QWORD PTR [rsp+32], rax
  0169c	4c 8d 0d 00 00
	00 00		 lea	 r9, OFFSET FLAT:$SG171491
  016a3	4c 8b 44 24 70	 mov	 r8, QWORD PTR dev$[rsp]
  016a8	ba a9 0e 00 00	 mov	 edx, 3753		; 00000ea9H
  016ad	48 8d 0d 00 00
	00 00		 lea	 rcx, OFFSET FLAT:$SG171492
  016b4	e8 00 00 00 00	 call	 cckd_trace

; 3754 :     }
; 3755 :     release_lock( &cckd->cckdiolock );

  016b9	48 8b 44 24 78	 mov	 rax, QWORD PTR cckd$[rsp]
  016be	48 83 c0 18	 add	 rax, 24
  016c2	48 8d 15 00 00
	00 00		 lea	 rdx, OFFSET FLAT:$SG171493
  016c9	48 8b c8	 mov	 rcx, rax
  016cc	ff 15 00 00 00
	00		 call	 QWORD PTR __imp_hthread_release_lock

; 3756 : 
; 3757 :     cckd64_sf_stats( dev );

  016d2	48 8b 4c 24 70	 mov	 rcx, QWORD PTR dev$[rsp]
  016d7	e8 00 00 00 00	 call	 cckd64_sf_stats

; 3758 :     return NULL;

  016dc	33 c0		 xor	 eax, eax
  016de	e9 cf 02 00 00	 jmp	 $LN1@cckd64_sf_
$sf_merge_error$113:

; 3759 : 
; 3760 : sf_merge_error:
; 3761 : 
; 3762 :     if (trk < 0)

  016e3	83 bc 24 ac 00
	00 00 00	 cmp	 DWORD PTR trk$[rsp], 0
  016eb	0f 8d df 00 00
	00		 jge	 $LN55@cckd64_sf_

; 3763 :         // "%1d:%04X CCKD file[%d] %s: shadow file not merged, error during merge"
; 3764 :         WRMSG( HHC00326, "E", LCSS_DEVNUM, from_sfx, cckd_sf_name( dev, from_sfx ));

  016f1	48 83 7c 24 70
	00		 cmp	 QWORD PTR dev$[rsp], 0
  016f7	74 12		 je	 SHORT $LN103@cckd64_sf_
  016f9	48 8b 44 24 70	 mov	 rax, QWORD PTR dev$[rsp]
  016fe	0f b7 40 48	 movzx	 eax, WORD PTR [rax+72]
  01702	89 84 24 f0 00
	00 00		 mov	 DWORD PTR tv901[rsp], eax
  01709	eb 0b		 jmp	 SHORT $LN104@cckd64_sf_
$LN103@cckd64_sf_:
  0170b	c7 84 24 f0 00
	00 00 00 00 00
	00		 mov	 DWORD PTR tv901[rsp], 0
$LN104@cckd64_sf_:
  01716	48 83 7c 24 70
	00		 cmp	 QWORD PTR dev$[rsp], 0
  0171c	74 14		 je	 SHORT $LN105@cckd64_sf_
  0171e	48 8b 44 24 70	 mov	 rax, QWORD PTR dev$[rsp]
  01723	0f b7 40 44	 movzx	 eax, WORD PTR [rax+68]
  01727	d1 f8		 sar	 eax, 1
  01729	89 84 24 f4 00
	00 00		 mov	 DWORD PTR tv907[rsp], eax
  01730	eb 0b		 jmp	 SHORT $LN106@cckd64_sf_
$LN105@cckd64_sf_:
  01732	c7 84 24 f4 00
	00 00 00 00 00
	00		 mov	 DWORD PTR tv907[rsp], 0
$LN106@cckd64_sf_:
  0173d	8b 94 24 84 00
	00 00		 mov	 edx, DWORD PTR from_sfx$[rsp]
  01744	48 8b 4c 24 70	 mov	 rcx, QWORD PTR dev$[rsp]
  01749	e8 00 00 00 00	 call	 cckd_sf_name
  0174e	48 89 84 24 70
	01 00 00	 mov	 QWORD PTR tv893[rsp], rax
  01756	b9 01 00 00 00	 mov	 ecx, 1
  0175b	ff 15 00 00 00
	00		 call	 QWORD PTR __imp___acrt_iob_func
  01761	48 8b 8c 24 70
	01 00 00	 mov	 rcx, QWORD PTR tv893[rsp]
  01769	48 89 4c 24 50	 mov	 QWORD PTR [rsp+80], rcx
  0176e	8b 8c 24 84 00
	00 00		 mov	 ecx, DWORD PTR from_sfx$[rsp]
  01775	89 4c 24 48	 mov	 DWORD PTR [rsp+72], ecx
  01779	8b 8c 24 f0 00
	00 00		 mov	 ecx, DWORD PTR tv901[rsp]
  01780	89 4c 24 40	 mov	 DWORD PTR [rsp+64], ecx
  01784	8b 8c 24 f4 00
	00 00		 mov	 ecx, DWORD PTR tv907[rsp]
  0178b	89 4c 24 38	 mov	 DWORD PTR [rsp+56], ecx
  0178f	48 8d 0d 00 00
	00 00		 lea	 rcx, OFFSET FLAT:$SG171496
  01796	48 89 4c 24 30	 mov	 QWORD PTR [rsp+48], rcx
  0179b	48 8d 0d 00 00
	00 00		 lea	 rcx, OFFSET FLAT:$SG171497
  017a2	48 89 4c 24 28	 mov	 QWORD PTR [rsp+40], rcx
  017a7	48 89 44 24 20	 mov	 QWORD PTR [rsp+32], rax
  017ac	41 b9 03 00 00
	00		 mov	 r9d, 3
  017b2	4c 8d 05 00 00
	00 00		 lea	 r8, OFFSET FLAT:$SG171498
  017b9	ba b4 0e 00 00	 mov	 edx, 3764		; 00000eb4H
  017be	48 8d 0d 00 00
	00 00		 lea	 rcx, OFFSET FLAT:$SG171499
  017c5	ff 15 00 00 00
	00		 call	 QWORD PTR __imp_fwritemsg
  017cb	e9 e5 00 00 00	 jmp	 $LN56@cckd64_sf_
$LN55@cckd64_sf_:

; 3765 :     else
; 3766 :         // "%1d:%04X CCKD file[%d] %s: shadow file not merged, error processing trk(%d)"
; 3767 :         WRMSG( HHC00327, "E", LCSS_DEVNUM, from_sfx, cckd_sf_name( dev, from_sfx ), trk );

  017d0	48 83 7c 24 70
	00		 cmp	 QWORD PTR dev$[rsp], 0
  017d6	74 12		 je	 SHORT $LN107@cckd64_sf_
  017d8	48 8b 44 24 70	 mov	 rax, QWORD PTR dev$[rsp]
  017dd	0f b7 40 48	 movzx	 eax, WORD PTR [rax+72]
  017e1	89 84 24 f8 00
	00 00		 mov	 DWORD PTR tv927[rsp], eax
  017e8	eb 0b		 jmp	 SHORT $LN108@cckd64_sf_
$LN107@cckd64_sf_:
  017ea	c7 84 24 f8 00
	00 00 00 00 00
	00		 mov	 DWORD PTR tv927[rsp], 0
$LN108@cckd64_sf_:
  017f5	48 83 7c 24 70
	00		 cmp	 QWORD PTR dev$[rsp], 0
  017fb	74 14		 je	 SHORT $LN109@cckd64_sf_
  017fd	48 8b 44 24 70	 mov	 rax, QWORD PTR dev$[rsp]
  01802	0f b7 40 44	 movzx	 eax, WORD PTR [rax+68]
  01806	d1 f8		 sar	 eax, 1
  01808	89 84 24 fc 00
	00 00		 mov	 DWORD PTR tv933[rsp], eax
  0180f	eb 0b		 jmp	 SHORT $LN110@cckd64_sf_
$LN109@cckd64_sf_:
  01811	c7 84 24 fc 00
	00 00 00 00 00
	00		 mov	 DWORD PTR tv933[rsp], 0
$LN110@cckd64_sf_:
  0181c	8b 94 24 84 00
	00 00		 mov	 edx, DWORD PTR from_sfx$[rsp]
  01823	48 8b 4c 24 70	 mov	 rcx, QWORD PTR dev$[rsp]
  01828	e8 00 00 00 00	 call	 cckd_sf_name
  0182d	48 89 84 24 78
	01 00 00	 mov	 QWORD PTR tv919[rsp], rax
  01835	b9 01 00 00 00	 mov	 ecx, 1
  0183a	ff 15 00 00 00
	00		 call	 QWORD PTR __imp___acrt_iob_func
  01840	8b 8c 24 ac 00
	00 00		 mov	 ecx, DWORD PTR trk$[rsp]
  01847	89 4c 24 58	 mov	 DWORD PTR [rsp+88], ecx
  0184b	48 8b 8c 24 78
	01 00 00	 mov	 rcx, QWORD PTR tv919[rsp]
  01853	48 89 4c 24 50	 mov	 QWORD PTR [rsp+80], rcx
  01858	8b 8c 24 84 00
	00 00		 mov	 ecx, DWORD PTR from_sfx$[rsp]
  0185f	89 4c 24 48	 mov	 DWORD PTR [rsp+72], ecx
  01863	8b 8c 24 f8 00
	00 00		 mov	 ecx, DWORD PTR tv927[rsp]
  0186a	89 4c 24 40	 mov	 DWORD PTR [rsp+64], ecx
  0186e	8b 8c 24 fc 00
	00 00		 mov	 ecx, DWORD PTR tv933[rsp]
  01875	89 4c 24 38	 mov	 DWORD PTR [rsp+56], ecx
  01879	48 8d 0d 00 00
	00 00		 lea	 rcx, OFFSET FLAT:$SG171500
  01880	48 89 4c 24 30	 mov	 QWORD PTR [rsp+48], rcx
  01885	48 8d 0d 00 00
	00 00		 lea	 rcx, OFFSET FLAT:$SG171501
  0188c	48 89 4c 24 28	 mov	 QWORD PTR [rsp+40], rcx
  01891	48 89 44 24 20	 mov	 QWORD PTR [rsp+32], rax
  01896	41 b9 03 00 00
	00		 mov	 r9d, 3
  0189c	4c 8d 05 00 00
	00 00		 lea	 r8, OFFSET FLAT:$SG171502
  018a3	ba b7 0e 00 00	 mov	 edx, 3767		; 00000eb7H
  018a8	48 8d 0d 00 00
	00 00		 lea	 rcx, OFFSET FLAT:$SG171503
  018af	ff 15 00 00 00
	00		 call	 QWORD PTR __imp_fwritemsg
$LN56@cckd64_sf_:

; 3768 : 
; 3769 :     if (l2updated && cckd->L1tab[ to_sfx ][i] && cckd->L1tab[ to_sfx ][i] != CCKD64_SHADOW_NO_OFFSET)

  018b5	83 bc 24 a0 00
	00 00 00	 cmp	 DWORD PTR l2updated$[rsp], 0
  018bd	0f 84 a9 00 00
	00		 je	 $LN57@cckd64_sf_
  018c3	48 63 84 24 80
	00 00 00	 movsxd	 rax, DWORD PTR to_sfx$[rsp]
  018cb	48 63 8c 24 88
	00 00 00	 movsxd	 rcx, DWORD PTR i$[rsp]
  018d3	48 8b 54 24 78	 mov	 rdx, QWORD PTR cckd$[rsp]
  018d8	48 8b 84 c2 98
	01 00 00	 mov	 rax, QWORD PTR [rdx+rax*8+408]
  018e0	48 83 3c c8 00	 cmp	 QWORD PTR [rax+rcx*8], 0
  018e5	0f 84 81 00 00
	00		 je	 $LN57@cckd64_sf_
  018eb	48 63 84 24 80
	00 00 00	 movsxd	 rax, DWORD PTR to_sfx$[rsp]
  018f3	48 63 8c 24 88
	00 00 00	 movsxd	 rcx, DWORD PTR i$[rsp]
  018fb	48 8b 54 24 78	 mov	 rdx, QWORD PTR cckd$[rsp]
  01900	48 8b 84 c2 98
	01 00 00	 mov	 rax, QWORD PTR [rdx+rax*8+408]
  01908	48 83 3c c8 ff	 cmp	 QWORD PTR [rax+rcx*8], -1
  0190d	74 5d		 je	 SHORT $LN57@cckd64_sf_

; 3770 :     {
; 3771 :         l2updated = 0;

  0190f	c7 84 24 a0 00
	00 00 00 00 00
	00		 mov	 DWORD PTR l2updated$[rsp], 0

; 3772 :         pos = cckd->L1tab[to_sfx][i];

  0191a	48 63 84 24 80
	00 00 00	 movsxd	 rax, DWORD PTR to_sfx$[rsp]
  01922	48 63 8c 24 88
	00 00 00	 movsxd	 rcx, DWORD PTR i$[rsp]
  0192a	48 8b 54 24 78	 mov	 rdx, QWORD PTR cckd$[rsp]
  0192f	48 8b 84 c2 98
	01 00 00	 mov	 rax, QWORD PTR [rdx+rax*8+408]
  01937	48 8b 04 c8	 mov	 rax, QWORD PTR [rax+rcx*8]
  0193b	48 89 84 24 90
	00 00 00	 mov	 QWORD PTR pos$[rsp], rax

; 3773 :         cckd64_write( dev, to_sfx, pos, &to_l2, CCKD64_L2TAB_SIZE );

  01943	c7 44 24 20 00
	10 00 00	 mov	 DWORD PTR [rsp+32], 4096 ; 00001000H
  0194b	4c 8d 8c 24 90
	01 00 00	 lea	 r9, QWORD PTR to_l2$[rsp]
  01953	4c 8b 84 24 90
	00 00 00	 mov	 r8, QWORD PTR pos$[rsp]
  0195b	8b 94 24 80 00
	00 00		 mov	 edx, DWORD PTR to_sfx$[rsp]
  01962	48 8b 4c 24 70	 mov	 rcx, QWORD PTR dev$[rsp]
  01967	e8 00 00 00 00	 call	 cckd64_write
$LN57@cckd64_sf_:

; 3774 :     }
; 3775 :     cckd64_harden( dev );

  0196c	48 8b 4c 24 70	 mov	 rcx, QWORD PTR dev$[rsp]
  01971	e8 00 00 00 00	 call	 cckd64_harden

; 3776 :     cckd64_chkdsk( dev, 2 );

  01976	ba 02 00 00 00	 mov	 edx, 2
  0197b	48 8b 4c 24 70	 mov	 rcx, QWORD PTR dev$[rsp]
  01980	e8 00 00 00 00	 call	 cckd64_chkdsk

; 3777 :     cckd->sfn = from_sfx;

  01985	48 8b 44 24 78	 mov	 rax, QWORD PTR cckd$[rsp]
  0198a	8b 8c 24 84 00
	00 00		 mov	 ecx, DWORD PTR from_sfx$[rsp]
  01991	89 48 3c	 mov	 DWORD PTR [rax+60], ecx

; 3778 :     cckd64_harden( dev );

  01994	48 8b 4c 24 70	 mov	 rcx, QWORD PTR dev$[rsp]
  01999	e8 00 00 00 00	 call	 cckd64_harden

; 3779 :     cckd64_chkdsk( dev, 2 );

  0199e	ba 02 00 00 00	 mov	 edx, 2
  019a3	48 8b 4c 24 70	 mov	 rcx, QWORD PTR dev$[rsp]
  019a8	e8 00 00 00 00	 call	 cckd64_chkdsk

; 3780 :     goto sf_remove_exit;

  019ad	e9 39 fc ff ff	 jmp	 $sf_remove_exit$112
$LN1@cckd64_sf_:

; 3781 : 
; 3782 : } /* end function cckd64_sf_remove */

  019b2	48 8b 8c 24 90
	21 01 00	 mov	 rcx, QWORD PTR __$ArrayPad$[rsp]
  019ba	48 33 cc	 xor	 rcx, rsp
  019bd	e8 00 00 00 00	 call	 __security_check_cookie
  019c2	48 81 c4 a0 21
	01 00		 add	 rsp, 74144		; 000121a0H
  019c9	5f		 pop	 rdi
  019ca	c3		 ret	 0
cckd64_sf_remove ENDP
_TEXT	ENDS
; Function compile flags: /Odtp
; File C:\papa\MyGit\hyperion-zvector\cckddasd64.c
_TEXT	SEGMENT
dev$ = 96
cckd$ = 104
n$1 = 112
tv73 = 116
tv79 = 120
tv139 = 124
tv145 = 128
tv176 = 132
tv182 = 136
tv250 = 140
tv256 = 144
tv291 = 148
tv297 = 152
tv245 = 156
tv242 = 160
tv163 = 168
tv275 = 176
data$ = 208
cckd64_sf_add PROC

; 3358 : {

$LN38:
  00000	48 89 4c 24 08	 mov	 QWORD PTR [rsp+8], rcx
  00005	48 81 ec c8 00
	00 00		 sub	 rsp, 200		; 000000c8H

; 3359 : DEVBLK         *dev = data;             /* -> DEVBLK                 */

  0000c	48 8b 84 24 d0
	00 00 00	 mov	 rax, QWORD PTR data$[rsp]
  00014	48 89 44 24 60	 mov	 QWORD PTR dev$[rsp], rax

; 3360 : CCKD64_EXT     *cckd;                   /* -> cckd extension         */
; 3361 : 
; 3362 :     if (dev == NULL)

  00019	48 83 7c 24 60
	00		 cmp	 QWORD PTR dev$[rsp], 0
  0001f	0f 85 50 01 00
	00		 jne	 $LN7@cckd64_sf_

; 3363 :     {
; 3364 :     int n = 0;

  00025	c7 44 24 70 00
	00 00 00	 mov	 DWORD PTR n$1[rsp], 0

; 3365 :         for (dev=sysblk.firstdev; dev; dev=dev->nextdev)

  0002d	48 8b 05 00 00
	00 00		 mov	 rax, QWORD PTR __imp_sysblk
  00034	48 8b 80 c0 11
	00 00		 mov	 rax, QWORD PTR [rax+4544]
  0003b	48 89 44 24 60	 mov	 QWORD PTR dev$[rsp], rax
  00040	eb 0e		 jmp	 SHORT $LN4@cckd64_sf_
$LN2@cckd64_sf_:
  00042	48 8b 44 24 60	 mov	 rax, QWORD PTR dev$[rsp]
  00047	48 8b 40 30	 mov	 rax, QWORD PTR [rax+48]
  0004b	48 89 44 24 60	 mov	 QWORD PTR dev$[rsp], rax
$LN4@cckd64_sf_:
  00050	48 83 7c 24 60
	00		 cmp	 QWORD PTR dev$[rsp], 0
  00056	0f 84 c3 00 00
	00		 je	 $LN3@cckd64_sf_

; 3366 :             if (dev->cckd_ext)

  0005c	48 8b 44 24 60	 mov	 rax, QWORD PTR dev$[rsp]
  00061	48 83 b8 08 13
	00 00 00	 cmp	 QWORD PTR [rax+4872], 0
  00069	0f 84 ab 00 00
	00		 je	 $LN8@cckd64_sf_

; 3367 :             {
; 3368 :                 WRMSG (HHC00315, "I", LCSS_DEVNUM );

  0006f	48 83 7c 24 60
	00		 cmp	 QWORD PTR dev$[rsp], 0
  00075	74 0f		 je	 SHORT $LN16@cckd64_sf_
  00077	48 8b 44 24 60	 mov	 rax, QWORD PTR dev$[rsp]
  0007c	0f b7 40 48	 movzx	 eax, WORD PTR [rax+72]
  00080	89 44 24 74	 mov	 DWORD PTR tv73[rsp], eax
  00084	eb 08		 jmp	 SHORT $LN17@cckd64_sf_
$LN16@cckd64_sf_:
  00086	c7 44 24 74 00
	00 00 00	 mov	 DWORD PTR tv73[rsp], 0
$LN17@cckd64_sf_:
  0008e	48 83 7c 24 60
	00		 cmp	 QWORD PTR dev$[rsp], 0
  00094	74 11		 je	 SHORT $LN18@cckd64_sf_
  00096	48 8b 44 24 60	 mov	 rax, QWORD PTR dev$[rsp]
  0009b	0f b7 40 44	 movzx	 eax, WORD PTR [rax+68]
  0009f	d1 f8		 sar	 eax, 1
  000a1	89 44 24 78	 mov	 DWORD PTR tv79[rsp], eax
  000a5	eb 08		 jmp	 SHORT $LN19@cckd64_sf_
$LN18@cckd64_sf_:
  000a7	c7 44 24 78 00
	00 00 00	 mov	 DWORD PTR tv79[rsp], 0
$LN19@cckd64_sf_:
  000af	b9 01 00 00 00	 mov	 ecx, 1
  000b4	ff 15 00 00 00
	00		 call	 QWORD PTR __imp___acrt_iob_func
  000ba	8b 4c 24 74	 mov	 ecx, DWORD PTR tv73[rsp]
  000be	89 4c 24 40	 mov	 DWORD PTR [rsp+64], ecx
  000c2	8b 4c 24 78	 mov	 ecx, DWORD PTR tv79[rsp]
  000c6	89 4c 24 38	 mov	 DWORD PTR [rsp+56], ecx
  000ca	48 8d 0d 00 00
	00 00		 lea	 rcx, OFFSET FLAT:$SG171259
  000d1	48 89 4c 24 30	 mov	 QWORD PTR [rsp+48], rcx
  000d6	48 8d 0d 00 00
	00 00		 lea	 rcx, OFFSET FLAT:$SG171260
  000dd	48 89 4c 24 28	 mov	 QWORD PTR [rsp+40], rcx
  000e2	48 89 44 24 20	 mov	 QWORD PTR [rsp+32], rax
  000e7	41 b9 03 00 00
	00		 mov	 r9d, 3
  000ed	4c 8d 05 00 00
	00 00		 lea	 r8, OFFSET FLAT:$SG171261
  000f4	ba 28 0d 00 00	 mov	 edx, 3368		; 00000d28H
  000f9	48 8d 0d 00 00
	00 00		 lea	 rcx, OFFSET FLAT:$SG171262
  00100	ff 15 00 00 00
	00		 call	 QWORD PTR __imp_fwritemsg

; 3369 :                 cckd64_sf_add (dev);

  00106	48 8b 4c 24 60	 mov	 rcx, QWORD PTR dev$[rsp]
  0010b	e8 00 00 00 00	 call	 cckd64_sf_add

; 3370 :                 n++;

  00110	8b 44 24 70	 mov	 eax, DWORD PTR n$1[rsp]
  00114	ff c0		 inc	 eax
  00116	89 44 24 70	 mov	 DWORD PTR n$1[rsp], eax
$LN8@cckd64_sf_:

; 3371 :             }

  0011a	e9 23 ff ff ff	 jmp	 $LN2@cckd64_sf_
$LN3@cckd64_sf_:

; 3372 :         WRMSG(HHC00316, "I", n );

  0011f	b9 01 00 00 00	 mov	 ecx, 1
  00124	ff 15 00 00 00
	00		 call	 QWORD PTR __imp___acrt_iob_func
  0012a	8b 4c 24 70	 mov	 ecx, DWORD PTR n$1[rsp]
  0012e	89 4c 24 38	 mov	 DWORD PTR [rsp+56], ecx
  00132	48 8d 0d 00 00
	00 00		 lea	 rcx, OFFSET FLAT:$SG171263
  00139	48 89 4c 24 30	 mov	 QWORD PTR [rsp+48], rcx
  0013e	48 8d 0d 00 00
	00 00		 lea	 rcx, OFFSET FLAT:$SG171264
  00145	48 89 4c 24 28	 mov	 QWORD PTR [rsp+40], rcx
  0014a	48 89 44 24 20	 mov	 QWORD PTR [rsp+32], rax
  0014f	41 b9 03 00 00
	00		 mov	 r9d, 3
  00155	4c 8d 05 00 00
	00 00		 lea	 r8, OFFSET FLAT:$SG171265
  0015c	ba 2c 0d 00 00	 mov	 edx, 3372		; 00000d2cH
  00161	48 8d 0d 00 00
	00 00		 lea	 rcx, OFFSET FLAT:$SG171266
  00168	ff 15 00 00 00
	00		 call	 QWORD PTR __imp_fwritemsg

; 3373 :         return NULL;

  0016e	33 c0		 xor	 eax, eax
  00170	e9 cd 05 00 00	 jmp	 $LN1@cckd64_sf_
$LN7@cckd64_sf_:

; 3374 :     }
; 3375 : 
; 3376 :     cckd = dev->cckd_ext;

  00175	48 8b 44 24 60	 mov	 rax, QWORD PTR dev$[rsp]
  0017a	48 8b 80 08 13
	00 00		 mov	 rax, QWORD PTR [rax+4872]
  00181	48 89 44 24 68	 mov	 QWORD PTR cckd$[rsp], rax

; 3377 :     if (!cckd)

  00186	48 83 7c 24 68
	00		 cmp	 QWORD PTR cckd$[rsp], 0
  0018c	0f 85 a7 00 00
	00		 jne	 $LN9@cckd64_sf_

; 3378 :     {
; 3379 :         WRMSG (HHC00317, "E", LCSS_DEVNUM);

  00192	48 83 7c 24 60
	00		 cmp	 QWORD PTR dev$[rsp], 0
  00198	74 0f		 je	 SHORT $LN20@cckd64_sf_
  0019a	48 8b 44 24 60	 mov	 rax, QWORD PTR dev$[rsp]
  0019f	0f b7 40 48	 movzx	 eax, WORD PTR [rax+72]
  001a3	89 44 24 7c	 mov	 DWORD PTR tv139[rsp], eax
  001a7	eb 08		 jmp	 SHORT $LN21@cckd64_sf_
$LN20@cckd64_sf_:
  001a9	c7 44 24 7c 00
	00 00 00	 mov	 DWORD PTR tv139[rsp], 0
$LN21@cckd64_sf_:
  001b1	48 83 7c 24 60
	00		 cmp	 QWORD PTR dev$[rsp], 0
  001b7	74 14		 je	 SHORT $LN22@cckd64_sf_
  001b9	48 8b 44 24 60	 mov	 rax, QWORD PTR dev$[rsp]
  001be	0f b7 40 44	 movzx	 eax, WORD PTR [rax+68]
  001c2	d1 f8		 sar	 eax, 1
  001c4	89 84 24 80 00
	00 00		 mov	 DWORD PTR tv145[rsp], eax
  001cb	eb 0b		 jmp	 SHORT $LN23@cckd64_sf_
$LN22@cckd64_sf_:
  001cd	c7 84 24 80 00
	00 00 00 00 00
	00		 mov	 DWORD PTR tv145[rsp], 0
$LN23@cckd64_sf_:
  001d8	b9 01 00 00 00	 mov	 ecx, 1
  001dd	ff 15 00 00 00
	00		 call	 QWORD PTR __imp___acrt_iob_func
  001e3	8b 4c 24 7c	 mov	 ecx, DWORD PTR tv139[rsp]
  001e7	89 4c 24 40	 mov	 DWORD PTR [rsp+64], ecx
  001eb	8b 8c 24 80 00
	00 00		 mov	 ecx, DWORD PTR tv145[rsp]
  001f2	89 4c 24 38	 mov	 DWORD PTR [rsp+56], ecx
  001f6	48 8d 0d 00 00
	00 00		 lea	 rcx, OFFSET FLAT:$SG171268
  001fd	48 89 4c 24 30	 mov	 QWORD PTR [rsp+48], rcx
  00202	48 8d 0d 00 00
	00 00		 lea	 rcx, OFFSET FLAT:$SG171269
  00209	48 89 4c 24 28	 mov	 QWORD PTR [rsp+40], rcx
  0020e	48 89 44 24 20	 mov	 QWORD PTR [rsp+32], rax
  00213	41 b9 03 00 00
	00		 mov	 r9d, 3
  00219	4c 8d 05 00 00
	00 00		 lea	 r8, OFFSET FLAT:$SG171270
  00220	ba 33 0d 00 00	 mov	 edx, 3379		; 00000d33H
  00225	48 8d 0d 00 00
	00 00		 lea	 rcx, OFFSET FLAT:$SG171271
  0022c	ff 15 00 00 00
	00		 call	 QWORD PTR __imp_fwritemsg

; 3380 :         return NULL;

  00232	33 c0		 xor	 eax, eax
  00234	e9 09 05 00 00	 jmp	 $LN1@cckd64_sf_
$LN9@cckd64_sf_:

; 3381 :     }
; 3382 : 
; 3383 :     /* Schedule updated track entries to be written */
; 3384 :     obtain_lock (&cckd->cckdiolock);

  00239	48 8b 44 24 68	 mov	 rax, QWORD PTR cckd$[rsp]
  0023e	48 83 c0 18	 add	 rax, 24
  00242	48 8d 15 00 00
	00 00		 lea	 rdx, OFFSET FLAT:$SG171272
  00249	48 8b c8	 mov	 rcx, rax
  0024c	ff 15 00 00 00
	00		 call	 QWORD PTR __imp_hthread_obtain_lock

; 3385 :     if (cckd->merging)

  00252	48 8b 44 24 68	 mov	 rax, QWORD PTR cckd$[rsp]
  00257	8b 40 08	 mov	 eax, DWORD PTR [rax+8]
  0025a	c1 e8 05	 shr	 eax, 5
  0025d	83 e0 01	 and	 eax, 1
  00260	85 c0		 test	 eax, eax
  00262	0f 84 fc 00 00
	00		 je	 $LN10@cckd64_sf_

; 3386 :     {
; 3387 :         release_lock (&cckd->cckdiolock);

  00268	48 8b 44 24 68	 mov	 rax, QWORD PTR cckd$[rsp]
  0026d	48 83 c0 18	 add	 rax, 24
  00271	48 8d 15 00 00
	00 00		 lea	 rdx, OFFSET FLAT:$SG171274
  00278	48 8b c8	 mov	 rcx, rax
  0027b	ff 15 00 00 00
	00		 call	 QWORD PTR __imp_hthread_release_lock

; 3388 :         WRMSG (HHC00318, "W", LCSS_DEVNUM, cckd->sfn, cckd_sf_name (dev, cckd->sfn));

  00281	48 83 7c 24 60
	00		 cmp	 QWORD PTR dev$[rsp], 0
  00287	74 12		 je	 SHORT $LN24@cckd64_sf_
  00289	48 8b 44 24 60	 mov	 rax, QWORD PTR dev$[rsp]
  0028e	0f b7 40 48	 movzx	 eax, WORD PTR [rax+72]
  00292	89 84 24 84 00
	00 00		 mov	 DWORD PTR tv176[rsp], eax
  00299	eb 0b		 jmp	 SHORT $LN25@cckd64_sf_
$LN24@cckd64_sf_:
  0029b	c7 84 24 84 00
	00 00 00 00 00
	00		 mov	 DWORD PTR tv176[rsp], 0
$LN25@cckd64_sf_:
  002a6	48 83 7c 24 60
	00		 cmp	 QWORD PTR dev$[rsp], 0
  002ac	74 14		 je	 SHORT $LN26@cckd64_sf_
  002ae	48 8b 44 24 60	 mov	 rax, QWORD PTR dev$[rsp]
  002b3	0f b7 40 44	 movzx	 eax, WORD PTR [rax+68]
  002b7	d1 f8		 sar	 eax, 1
  002b9	89 84 24 88 00
	00 00		 mov	 DWORD PTR tv182[rsp], eax
  002c0	eb 0b		 jmp	 SHORT $LN27@cckd64_sf_
$LN26@cckd64_sf_:
  002c2	c7 84 24 88 00
	00 00 00 00 00
	00		 mov	 DWORD PTR tv182[rsp], 0
$LN27@cckd64_sf_:
  002cd	48 8b 44 24 68	 mov	 rax, QWORD PTR cckd$[rsp]
  002d2	8b 50 3c	 mov	 edx, DWORD PTR [rax+60]
  002d5	48 8b 4c 24 60	 mov	 rcx, QWORD PTR dev$[rsp]
  002da	e8 00 00 00 00	 call	 cckd_sf_name
  002df	48 89 84 24 a8
	00 00 00	 mov	 QWORD PTR tv163[rsp], rax
  002e7	b9 01 00 00 00	 mov	 ecx, 1
  002ec	ff 15 00 00 00
	00		 call	 QWORD PTR __imp___acrt_iob_func
  002f2	48 8b 8c 24 a8
	00 00 00	 mov	 rcx, QWORD PTR tv163[rsp]
  002fa	48 89 4c 24 50	 mov	 QWORD PTR [rsp+80], rcx
  002ff	48 8b 4c 24 68	 mov	 rcx, QWORD PTR cckd$[rsp]
  00304	8b 49 3c	 mov	 ecx, DWORD PTR [rcx+60]
  00307	89 4c 24 48	 mov	 DWORD PTR [rsp+72], ecx
  0030b	8b 8c 24 84 00
	00 00		 mov	 ecx, DWORD PTR tv176[rsp]
  00312	89 4c 24 40	 mov	 DWORD PTR [rsp+64], ecx
  00316	8b 8c 24 88 00
	00 00		 mov	 ecx, DWORD PTR tv182[rsp]
  0031d	89 4c 24 38	 mov	 DWORD PTR [rsp+56], ecx
  00321	48 8d 0d 00 00
	00 00		 lea	 rcx, OFFSET FLAT:$SG171275
  00328	48 89 4c 24 30	 mov	 QWORD PTR [rsp+48], rcx
  0032d	48 8d 0d 00 00
	00 00		 lea	 rcx, OFFSET FLAT:$SG171276
  00334	48 89 4c 24 28	 mov	 QWORD PTR [rsp+40], rcx
  00339	48 89 44 24 20	 mov	 QWORD PTR [rsp+32], rax
  0033e	41 b9 03 00 00
	00		 mov	 r9d, 3
  00344	4c 8d 05 00 00
	00 00		 lea	 r8, OFFSET FLAT:$SG171277
  0034b	ba 3c 0d 00 00	 mov	 edx, 3388		; 00000d3cH
  00350	48 8d 0d 00 00
	00 00		 lea	 rcx, OFFSET FLAT:$SG171278
  00357	ff 15 00 00 00
	00		 call	 QWORD PTR __imp_fwritemsg

; 3389 :         return NULL;

  0035d	33 c0		 xor	 eax, eax
  0035f	e9 de 03 00 00	 jmp	 $LN1@cckd64_sf_
$LN10@cckd64_sf_:

; 3390 :     }
; 3391 :     cckd->merging = 1;

  00364	48 8b 44 24 68	 mov	 rax, QWORD PTR cckd$[rsp]
  00369	8b 40 08	 mov	 eax, DWORD PTR [rax+8]
  0036c	83 c8 20	 or	 eax, 32			; 00000020H
  0036f	48 8b 4c 24 68	 mov	 rcx, QWORD PTR cckd$[rsp]
  00374	89 41 08	 mov	 DWORD PTR [rcx+8], eax

; 3392 :     cckd64_flush_cache (dev);

  00377	48 8b 4c 24 60	 mov	 rcx, QWORD PTR dev$[rsp]
  0037c	e8 00 00 00 00	 call	 cckd64_flush_cache
$LN5@cckd64_sf_:

; 3393 :     while (cckd->wrpending || cckd->cckdioact)

  00381	48 8b 44 24 68	 mov	 rax, QWORD PTR cckd$[rsp]
  00386	83 78 34 00	 cmp	 DWORD PTR [rax+52], 0
  0038a	75 12		 jne	 SHORT $LN11@cckd64_sf_
  0038c	48 8b 44 24 68	 mov	 rax, QWORD PTR cckd$[rsp]
  00391	8b 40 08	 mov	 eax, DWORD PTR [rax+8]
  00394	c1 e8 02	 shr	 eax, 2
  00397	83 e0 01	 and	 eax, 1
  0039a	85 c0		 test	 eax, eax
  0039c	74 52		 je	 SHORT $LN6@cckd64_sf_
$LN11@cckd64_sf_:

; 3394 :     {
; 3395 :         cckd->cckdwaiters++;

  0039e	48 8b 44 24 68	 mov	 rax, QWORD PTR cckd$[rsp]
  003a3	8b 40 30	 mov	 eax, DWORD PTR [rax+48]
  003a6	ff c0		 inc	 eax
  003a8	48 8b 4c 24 68	 mov	 rcx, QWORD PTR cckd$[rsp]
  003ad	89 41 30	 mov	 DWORD PTR [rcx+48], eax

; 3396 :         wait_condition (&cckd->cckdiocond, &cckd->cckdiolock);

  003b0	48 8b 44 24 68	 mov	 rax, QWORD PTR cckd$[rsp]
  003b5	48 83 c0 18	 add	 rax, 24
  003b9	48 8b 4c 24 68	 mov	 rcx, QWORD PTR cckd$[rsp]
  003be	48 83 c1 20	 add	 rcx, 32			; 00000020H
  003c2	4c 8d 05 00 00
	00 00		 lea	 r8, OFFSET FLAT:$SG171280
  003c9	48 8b d0	 mov	 rdx, rax
  003cc	ff 15 00 00 00
	00		 call	 QWORD PTR __imp_hthread_wait_condition

; 3397 :         cckd->cckdwaiters--;

  003d2	48 8b 44 24 68	 mov	 rax, QWORD PTR cckd$[rsp]
  003d7	8b 40 30	 mov	 eax, DWORD PTR [rax+48]
  003da	ff c8		 dec	 eax
  003dc	48 8b 4c 24 68	 mov	 rcx, QWORD PTR cckd$[rsp]
  003e1	89 41 30	 mov	 DWORD PTR [rcx+48], eax

; 3398 :         cckd64_flush_cache (dev);

  003e4	48 8b 4c 24 60	 mov	 rcx, QWORD PTR dev$[rsp]
  003e9	e8 00 00 00 00	 call	 cckd64_flush_cache

; 3399 :     }

  003ee	eb 91		 jmp	 SHORT $LN5@cckd64_sf_
$LN6@cckd64_sf_:

; 3400 :     cckd64_purge_cache (dev); cckd64_purge_l2 (dev);

  003f0	48 8b 4c 24 60	 mov	 rcx, QWORD PTR dev$[rsp]
  003f5	e8 00 00 00 00	 call	 cckd64_purge_cache
  003fa	48 8b 4c 24 60	 mov	 rcx, QWORD PTR dev$[rsp]
  003ff	e8 00 00 00 00	 call	 cckd64_purge_l2

; 3401 :     dev->bufcur = dev->cache = -1;

  00404	48 8b 44 24 60	 mov	 rax, QWORD PTR dev$[rsp]
  00409	c7 80 f8 01 00
	00 ff ff ff ff	 mov	 DWORD PTR [rax+504], -1
  00413	48 8b 44 24 60	 mov	 rax, QWORD PTR dev$[rsp]
  00418	c7 80 c0 01 00
	00 ff ff ff ff	 mov	 DWORD PTR [rax+448], -1

; 3402 :     release_lock (&cckd->cckdiolock);

  00422	48 8b 44 24 68	 mov	 rax, QWORD PTR cckd$[rsp]
  00427	48 83 c0 18	 add	 rax, 24
  0042b	48 8d 15 00 00
	00 00		 lea	 rdx, OFFSET FLAT:$SG171281
  00432	48 8b c8	 mov	 rcx, rax
  00435	ff 15 00 00 00
	00		 call	 QWORD PTR __imp_hthread_release_lock

; 3403 : 
; 3404 :     /* Obtain control of the file */
; 3405 :     obtain_lock( &cckd->filelock );

  0043b	48 8b 44 24 68	 mov	 rax, QWORD PTR cckd$[rsp]
  00440	48 83 c0 10	 add	 rax, 16
  00444	48 8d 15 00 00
	00 00		 lea	 rdx, OFFSET FLAT:$SG171282
  0044b	48 8b c8	 mov	 rcx, rax
  0044e	ff 15 00 00 00
	00		 call	 QWORD PTR __imp_hthread_obtain_lock

; 3406 :     {
; 3407 :         /* Harden the current file */
; 3408 :         cckd64_harden (dev);

  00454	48 8b 4c 24 60	 mov	 rcx, QWORD PTR dev$[rsp]
  00459	e8 00 00 00 00	 call	 cckd64_harden

; 3409 : 
; 3410 :         /* Create a new shadow file */
; 3411 :         if (cckd64_sf_new (dev) < 0) {

  0045e	48 8b 4c 24 60	 mov	 rcx, QWORD PTR dev$[rsp]
  00463	e8 00 00 00 00	 call	 cckd64_sf_new
  00468	85 c0		 test	 eax, eax
  0046a	0f 8d 21 01 00
	00		 jge	 $LN12@cckd64_sf_

; 3412 :             WRMSG (HHC00319, "E", LCSS_DEVNUM, cckd->sfn+1,

  00470	48 8b 44 24 68	 mov	 rax, QWORD PTR cckd$[rsp]
  00475	8b 40 3c	 mov	 eax, DWORD PTR [rax+60]
  00478	ff c0		 inc	 eax
  0047a	8b d0		 mov	 edx, eax
  0047c	48 8b 4c 24 60	 mov	 rcx, QWORD PTR dev$[rsp]
  00481	e8 00 00 00 00	 call	 cckd_sf_name
  00486	48 85 c0	 test	 rax, rax
  00489	74 20		 je	 SHORT $LN28@cckd64_sf_
  0048b	48 8b 44 24 68	 mov	 rax, QWORD PTR cckd$[rsp]
  00490	8b 40 3c	 mov	 eax, DWORD PTR [rax+60]
  00493	ff c0		 inc	 eax
  00495	8b d0		 mov	 edx, eax
  00497	48 8b 4c 24 60	 mov	 rcx, QWORD PTR dev$[rsp]
  0049c	e8 00 00 00 00	 call	 cckd_sf_name
  004a1	48 89 84 24 a0
	00 00 00	 mov	 QWORD PTR tv242[rsp], rax
  004a9	eb 0f		 jmp	 SHORT $LN29@cckd64_sf_
$LN28@cckd64_sf_:
  004ab	48 8d 05 00 00
	00 00		 lea	 rax, OFFSET FLAT:$SG171284
  004b2	48 89 84 24 a0
	00 00 00	 mov	 QWORD PTR tv242[rsp], rax
$LN29@cckd64_sf_:
  004ba	48 83 7c 24 60
	00		 cmp	 QWORD PTR dev$[rsp], 0
  004c0	74 12		 je	 SHORT $LN30@cckd64_sf_
  004c2	48 8b 44 24 60	 mov	 rax, QWORD PTR dev$[rsp]
  004c7	0f b7 40 48	 movzx	 eax, WORD PTR [rax+72]
  004cb	89 84 24 8c 00
	00 00		 mov	 DWORD PTR tv250[rsp], eax
  004d2	eb 0b		 jmp	 SHORT $LN31@cckd64_sf_
$LN30@cckd64_sf_:
  004d4	c7 84 24 8c 00
	00 00 00 00 00
	00		 mov	 DWORD PTR tv250[rsp], 0
$LN31@cckd64_sf_:
  004df	48 83 7c 24 60
	00		 cmp	 QWORD PTR dev$[rsp], 0
  004e5	74 14		 je	 SHORT $LN32@cckd64_sf_
  004e7	48 8b 44 24 60	 mov	 rax, QWORD PTR dev$[rsp]
  004ec	0f b7 40 44	 movzx	 eax, WORD PTR [rax+68]
  004f0	d1 f8		 sar	 eax, 1
  004f2	89 84 24 90 00
	00 00		 mov	 DWORD PTR tv256[rsp], eax
  004f9	eb 0b		 jmp	 SHORT $LN33@cckd64_sf_
$LN32@cckd64_sf_:
  004fb	c7 84 24 90 00
	00 00 00 00 00
	00		 mov	 DWORD PTR tv256[rsp], 0
$LN33@cckd64_sf_:
  00506	48 8b 44 24 68	 mov	 rax, QWORD PTR cckd$[rsp]
  0050b	8b 40 3c	 mov	 eax, DWORD PTR [rax+60]
  0050e	ff c0		 inc	 eax
  00510	89 84 24 9c 00
	00 00		 mov	 DWORD PTR tv245[rsp], eax
  00517	b9 01 00 00 00	 mov	 ecx, 1
  0051c	ff 15 00 00 00
	00		 call	 QWORD PTR __imp___acrt_iob_func
  00522	48 8b 8c 24 a0
	00 00 00	 mov	 rcx, QWORD PTR tv242[rsp]
  0052a	48 89 4c 24 50	 mov	 QWORD PTR [rsp+80], rcx
  0052f	8b 8c 24 9c 00
	00 00		 mov	 ecx, DWORD PTR tv245[rsp]
  00536	89 4c 24 48	 mov	 DWORD PTR [rsp+72], ecx
  0053a	8b 8c 24 8c 00
	00 00		 mov	 ecx, DWORD PTR tv250[rsp]
  00541	89 4c 24 40	 mov	 DWORD PTR [rsp+64], ecx
  00545	8b 8c 24 90 00
	00 00		 mov	 ecx, DWORD PTR tv256[rsp]
  0054c	89 4c 24 38	 mov	 DWORD PTR [rsp+56], ecx
  00550	48 8d 0d 00 00
	00 00		 lea	 rcx, OFFSET FLAT:$SG171285
  00557	48 89 4c 24 30	 mov	 QWORD PTR [rsp+48], rcx
  0055c	48 8d 0d 00 00
	00 00		 lea	 rcx, OFFSET FLAT:$SG171286
  00563	48 89 4c 24 28	 mov	 QWORD PTR [rsp+40], rcx
  00568	48 89 44 24 20	 mov	 QWORD PTR [rsp+32], rax
  0056d	41 b9 03 00 00
	00		 mov	 r9d, 3
  00573	4c 8d 05 00 00
	00 00		 lea	 r8, OFFSET FLAT:$SG171287
  0057a	ba 55 0d 00 00	 mov	 edx, 3413		; 00000d55H
  0057f	48 8d 0d 00 00
	00 00		 lea	 rcx, OFFSET FLAT:$SG171288
  00586	ff 15 00 00 00
	00		 call	 QWORD PTR __imp_fwritemsg

