; Listing generated by Microsoft (R) Optimizing Compiler Version 19.34.31937.0 

include listing.inc

INCLUDELIB MSVCRTD
INCLUDELIB OLDNAMES

CONST	SEGMENT
CKD_ENDTRK DB	0ffH
	DB	0ffH
	DB	0ffH
	DB	0ffH
	DB	0ffH
	DB	0ffH
	DB	0ffH
	DB	0ffH
?unitck@?1??is_ch9oflow@@9@9 DB 0eH			; `is_ch9oflow'::`2'::unitck
CONST	ENDS
PUBLIC	__local_stdio_printf_options
PUBLIC	_vsnprintf_s_l
PUBLIC	_vsnprintf_s
PUBLIC	s370_startio
PUBLIC	s370_execute_ccw_chain
PUBLIC	s390_execute_ccw_chain
PUBLIC	z900_execute_ccw_chain
PUBLIC	stchan_id
PUBLIC	testch
PUBLIC	testio
PUBLIC	test_subchan
PUBLIC	cancel_subchan
PUBLIC	clear_subchan
PUBLIC	halt_subchan
PUBLIC	haltio
PUBLIC	resume_subchan
PUBLIC	s370_present_io_interrupt
PUBLIC	s370_present_zone_io_interrupt
PUBLIC	io_reset
PUBLIC	chp_reset
PUBLIC	channelset_reset
PUBLIC	fetch_hw_noswap
PUBLIC	store_hw_noswap
PUBLIC	fetch_fw_noswap
PUBLIC	store_fw_noswap
PUBLIC	fetch_dw_noswap
PUBLIC	shared_iowait
PUBLIC	device_attention
PUBLIC	s370_device_attention
PUBLIC	default_sns
PUBLIC	Queue_IO_Interrupt
PUBLIC	Queue_IO_Interrupt_QLocked
PUBLIC	Dequeue_IO_Interrupt
PUBLIC	Dequeue_IO_Interrupt_QLocked
PUBLIC	Update_IC_IOPENDING
PUBLIC	Update_IC_IOPENDING_QLocked
PUBLIC	_get_dev_storekey_ptr
PUBLIC	_get_dev_storekey1_ptr
PUBLIC	_get_dev_storekey2_ptr
PUBLIC	s370__get_dev_storage_key
PUBLIC	s370__or_dev_storage_key
PUBLIC	s370_get_dev_2K_storage_key
PUBLIC	s370_or_dev_2K_storage_key
PUBLIC	s370_get_dev_storage_key
PUBLIC	s370_or_dev_storage_key
PUBLIC	call_execute_ccw_chain
PUBLIC	device_thread
PUBLIC	test_subchan_locked
PUBLIC	perform_clear_subchan
PUBLIC	perform_halt_and_release_lock
PUBLIC	perform_halt
PUBLIC	s390_startio
PUBLIC	s390_present_io_interrupt
PUBLIC	s390_present_zone_io_interrupt
PUBLIC	s390__get_dev_storage_key
PUBLIC	s390__or_dev_storage_key
PUBLIC	s390_get_dev_4K_storage_key
PUBLIC	s390_or_dev_4K_storage_key
PUBLIC	s390_get_dev_storage_key
PUBLIC	s390_or_dev_storage_key
PUBLIC	s390_device_attention
PUBLIC	z900_startio
PUBLIC	z900_present_io_interrupt
PUBLIC	z900_present_zone_io_interrupt
PUBLIC	z900__get_dev_storage_key
PUBLIC	z900__or_dev_storage_key
PUBLIC	z900_get_dev_4K_storage_key
PUBLIC	z900_or_dev_4K_storage_key
PUBLIC	z900_get_dev_storage_key
PUBLIC	z900_or_dev_storage_key
PUBLIC	z900_device_attention
EXTRN	__report_rangecheckfailure:PROC
EXTRN	strcmp:PROC
EXTRN	__imp_IsDebuggerPresent:PROC
EXTRN	__imp_OutputDebugStringA:PROC
EXTRN	__imp_GetCurrentThreadId:PROC
EXTRN	__imp_free:PROC
EXTRN	__imp_malloc:PROC
EXTRN	__imp__aligned_free:PROC
EXTRN	__imp__aligned_malloc:PROC
EXTRN	_byteswap_ushort:PROC
EXTRN	_byteswap_ulong:PROC
EXTRN	_byteswap_uint64:PROC
EXTRN	longjmp:PROC
EXTRN	__imp___acrt_iob_func:PROC
EXTRN	__imp___stdio_common_vsnprintf_s:PROC
EXTRN	__imp_fthread_self:PROC
EXTRN	__imp_hthread_obtain_lock:PROC
EXTRN	__imp_hthread_release_lock:PROC
EXTRN	__imp_hthread_signal_condition:PROC
EXTRN	__imp_hthread_wait_condition:PROC
EXTRN	__imp_hthread_create_thread:PROC
EXTRN	__imp_hthread_set_thread_prio:PROC
EXTRN	__imp_hthread_get_thread_prio:PROC
EXTRN	__imp_hthread_set_thread_name:PROC
EXTRN	__imp_timed_wait_condition_relative_usecs_impl:PROC
EXTRN	__imp_FormatORB:PROC
EXTRN	__imp_tf_1300:PROC
EXTRN	__imp_tf_1301:PROC
EXTRN	__imp_tf_1304:PROC
EXTRN	__imp_tf_1305:PROC
EXTRN	__imp_tf_1306:PROC
EXTRN	__imp_tf_1307:PROC
EXTRN	__imp_tf_1308:PROC
EXTRN	__imp_tf_1309:PROC
EXTRN	__imp_tf_1310:PROC
EXTRN	__imp_tf_1311:PROC
EXTRN	__imp_tf_1312:PROC
EXTRN	__imp_tf_1313:PROC
EXTRN	__imp_tf_1315:PROC
EXTRN	__imp_tf_1316:PROC
EXTRN	__imp_tf_1317:PROC
EXTRN	__imp_tf_1318:PROC
EXTRN	__imp_tf_1320:PROC
EXTRN	__imp_tf_1321:PROC
EXTRN	__imp_tf_1329:PROC
EXTRN	__imp_tf_1330:PROC
EXTRN	__imp_tf_1331:PROC
EXTRN	__imp_tf_1332:PROC
EXTRN	__imp_tf_1333:PROC
EXTRN	__imp_tf_1334:PROC
EXTRN	__imp_tf_1336:PROC
EXTRN	__imp_w32_strerror:PROC
EXTRN	__imp_usleep:PROC
EXTRN	__imp_w32_snprintf:PROC
EXTRN	__imp_w32_set_thread_name:PROC
EXTRN	__imp_prt_guest_to_host:PROC
EXTRN	build_chp_reset_chrpt:PROC
EXTRN	sclp_reset:PROC
EXTRN	insttrace_all:PROC
EXTRN	__imp_fwritemsg:PROC
EXTRN	__imp_logmsg:PROC
EXTRN	__GSHandlerCheck:PROC
EXTRN	__chkstk:PROC
EXTRN	__security_check_cookie:PROC
EXTRN	__imp_sysblk:BYTE
EXTRN	__ImageBase:BYTE
EXTRN	__security_cookie:QWORD
_DATA	SEGMENT
COMM	?_OptionsStorage@?1??__local_stdio_printf_options@@9@9:QWORD							; `__local_stdio_printf_options'::`2'::_OptionsStorage
_DATA	ENDS
_BSS	SEGMENT
$SG170240 DB	01H DUP (?)
$SG170242 DB	01H DUP (?)
$SG170244 DB	01H DUP (?)
$SG170246 DB	01H DUP (?)
$SG170248 DB	01H DUP (?)
$SG170250 DB	01H DUP (?)
$SG170252 DB	01H DUP (?)
$SG170254 DB	01H DUP (?)
$SG170256 DB	01H DUP (?)
$SG170258 DB	01H DUP (?)
$SG170260 DB	01H DUP (?)
$SG170262 DB	01H DUP (?)
$SG170264 DB	01H DUP (?)
$SG170266 DB	01H DUP (?)
$SG170268 DB	01H DUP (?)
$SG170270 DB	01H DUP (?)
_BSS	ENDS
;	COMDAT pdata
pdata	SEGMENT
$pdata$_vsnprintf_s_l DD imagerel $LN5
	DD	imagerel $LN5+127
	DD	imagerel $unwind$_vsnprintf_s_l
pdata	ENDS
;	COMDAT pdata
pdata	SEGMENT
$pdata$_vsnprintf_s DD imagerel $LN3
	DD	imagerel $LN3+73
	DD	imagerel $unwind$_vsnprintf_s
pdata	ENDS
pdata	SEGMENT
$pdata$DebuggerTrace DD imagerel DebuggerTrace
	DD	imagerel DebuggerTrace+247
	DD	imagerel $unwind$DebuggerTrace
$pdata$s370_startio DD imagerel $LN31
	DD	imagerel $LN31+1931
	DD	imagerel $unwind$s370_startio
$pdata$s370_execute_ccw_chain DD imagerel $LN294
	DD	imagerel $LN294+12806
	DD	imagerel $unwind$s370_execute_ccw_chain
$pdata$s390_execute_ccw_chain DD imagerel $LN323
	DD	imagerel $LN323+14183
	DD	imagerel $unwind$s390_execute_ccw_chain
$pdata$z900_execute_ccw_chain DD imagerel $LN328
	DD	imagerel $LN328+14361
	DD	imagerel $unwind$z900_execute_ccw_chain
$pdata$stchan_id DD imagerel $LN18
	DD	imagerel $LN18+377
	DD	imagerel $unwind$stchan_id
$pdata$testch DD imagerel $LN13
	DD	imagerel $LN13+331
	DD	imagerel $unwind$testch
$pdata$testio DD imagerel $LN22
	DD	imagerel $LN22+782
	DD	imagerel $unwind$testio
$pdata$test_subchan DD imagerel $LN15
	DD	imagerel $LN15+848
	DD	imagerel $unwind$test_subchan
$pdata$cancel_subchan DD imagerel $LN23
	DD	imagerel $LN23+745
	DD	imagerel $unwind$cancel_subchan
$pdata$clear_subchan DD imagerel $LN21
	DD	imagerel $LN21+777
	DD	imagerel $unwind$clear_subchan
$pdata$halt_subchan DD imagerel $LN54
	DD	imagerel $LN54+2730
	DD	imagerel $unwind$halt_subchan
$pdata$haltio DD imagerel $LN30
	DD	imagerel $LN30+1508
	DD	imagerel $unwind$haltio
$pdata$resume_subchan DD imagerel $LN22
	DD	imagerel $LN22+692
	DD	imagerel $unwind$resume_subchan
$pdata$s370_present_io_interrupt DD imagerel $LN68
	DD	imagerel $LN68+1718
	DD	imagerel $unwind$s370_present_io_interrupt
$pdata$s370_present_zone_io_interrupt DD imagerel $LN34
	DD	imagerel $LN34+1130
	DD	imagerel $unwind$s370_present_zone_io_interrupt
$pdata$io_reset DD imagerel $LN22
	DD	imagerel $LN22+561
	DD	imagerel $unwind$io_reset
$pdata$chp_reset DD imagerel $LN12
	DD	imagerel $LN12+292
	DD	imagerel $unwind$chp_reset
$pdata$channelset_reset DD imagerel $LN9
	DD	imagerel $LN9+147
	DD	imagerel $unwind$channelset_reset
pdata	ENDS
;	COMDAT pdata
pdata	SEGMENT
$pdata$fetch_hw_noswap DD imagerel $LN3
	DD	imagerel $LN3+30
	DD	imagerel $unwind$fetch_hw_noswap
pdata	ENDS
;	COMDAT pdata
pdata	SEGMENT
$pdata$fetch_fw_noswap DD imagerel $LN3
	DD	imagerel $LN3+27
	DD	imagerel $unwind$fetch_fw_noswap
pdata	ENDS
;	COMDAT pdata
pdata	SEGMENT
$pdata$fetch_dw_noswap DD imagerel $LN3
	DD	imagerel $LN3+30
	DD	imagerel $unwind$fetch_dw_noswap
pdata	ENDS
pdata	SEGMENT
$pdata$shared_iowait DD imagerel $LN7
	DD	imagerel $LN7+174
	DD	imagerel $unwind$shared_iowait
$pdata$device_attention DD imagerel $LN14
	DD	imagerel $LN14+182
	DD	imagerel $unwind$device_attention
$pdata$s370_device_attention DD imagerel $LN22
	DD	imagerel $LN22+1214
	DD	imagerel $unwind$s370_device_attention
$pdata$default_sns DD imagerel $LN35
	DD	imagerel $LN35+1032
	DD	imagerel $unwind$default_sns
$pdata$Queue_IO_Interrupt DD imagerel $LN3
	DD	imagerel $LN3+101
	DD	imagerel $unwind$Queue_IO_Interrupt
$pdata$Queue_IO_Interrupt_QLocked DD imagerel $LN16
	DD	imagerel $LN16+452
	DD	imagerel $unwind$Queue_IO_Interrupt_QLocked
$pdata$Dequeue_IO_Interrupt DD imagerel $LN3
	DD	imagerel $LN3+100
	DD	imagerel $unwind$Dequeue_IO_Interrupt
$pdata$Dequeue_IO_Interrupt_QLocked DD imagerel $LN15
	DD	imagerel $LN15+288
	DD	imagerel $unwind$Dequeue_IO_Interrupt_QLocked
$pdata$Update_IC_IOPENDING DD imagerel $LN3
	DD	imagerel $LN3+72
	DD	imagerel $unwind$Update_IC_IOPENDING
$pdata$Update_IC_IOPENDING_QLocked DD imagerel $LN23
	DD	imagerel $LN23+513
	DD	imagerel $unwind$Update_IC_IOPENDING_QLocked
$pdata$__clear_page DD imagerel __clear_page
	DD	imagerel __clear_page+159
	DD	imagerel $unwind$__clear_page
$pdata$__clear_io_buffer DD imagerel __clear_io_buffer
	DD	imagerel __clear_io_buffer+236
	DD	imagerel $unwind$__clear_io_buffer
$pdata$store_scsw_as_csw DD imagerel store_scsw_as_csw
	DD	imagerel store_scsw_as_csw+125
	DD	imagerel $unwind$store_scsw_as_csw
$pdata$wakeup_cpu DD imagerel wakeup_cpu
	DD	imagerel wakeup_cpu+44
	DD	imagerel $unwind$wakeup_cpu
$pdata$wakeup_cpu_mask DD imagerel wakeup_cpu_mask
	DD	imagerel wakeup_cpu_mask+251
	DD	imagerel $unwind$wakeup_cpu_mask
$pdata$Interrupt_Lock_Obtained DD imagerel Interrupt_Lock_Obtained
	DD	imagerel Interrupt_Lock_Obtained+269
	DD	imagerel $unwind$Interrupt_Lock_Obtained
$pdata$Obtain_Interrupt_Lock DD imagerel Obtain_Interrupt_Lock
	DD	imagerel Obtain_Interrupt_Lock+88
	DD	imagerel $unwind$Obtain_Interrupt_Lock
$pdata$Release_Interrupt_Lock DD imagerel Release_Interrupt_Lock
	DD	imagerel Release_Interrupt_Lock+71
	DD	imagerel $unwind$Release_Interrupt_Lock
pdata	ENDS
;	COMDAT pdata
pdata	SEGMENT
$pdata$_get_dev_storekey_ptr DD imagerel $LN5
	DD	imagerel $LN5+106
	DD	imagerel $unwind$_get_dev_storekey_ptr
pdata	ENDS
;	COMDAT pdata
pdata	SEGMENT
$pdata$s370__get_dev_storage_key DD imagerel $LN8
	DD	imagerel $LN8+140
	DD	imagerel $unwind$s370__get_dev_storage_key
pdata	ENDS
;	COMDAT pdata
pdata	SEGMENT
$pdata$s370__or_dev_storage_key DD imagerel $LN8
	DD	imagerel $LN8+192
	DD	imagerel $unwind$s370__or_dev_storage_key
pdata	ENDS
;	COMDAT pdata
pdata	SEGMENT
$pdata$s370_get_dev_2K_storage_key DD imagerel $LN3
	DD	imagerel $LN3+43
	DD	imagerel $unwind$s370_get_dev_2K_storage_key
pdata	ENDS
;	COMDAT pdata
pdata	SEGMENT
$pdata$s370_or_dev_2K_storage_key DD imagerel $LN3
	DD	imagerel $LN3+54
	DD	imagerel $unwind$s370_or_dev_2K_storage_key
pdata	ENDS
;	COMDAT pdata
pdata	SEGMENT
$pdata$s370_get_dev_storage_key DD imagerel $LN3
	DD	imagerel $LN3+34
	DD	imagerel $unwind$s370_get_dev_storage_key
pdata	ENDS
;	COMDAT pdata
pdata	SEGMENT
$pdata$s370_or_dev_storage_key DD imagerel $LN3
	DD	imagerel $LN3+45
	DD	imagerel $unwind$s370_or_dev_storage_key
pdata	ENDS
pdata	SEGMENT
$pdata$is_ch9oflow DD imagerel is_ch9oflow
	DD	imagerel is_ch9oflow+203
	DD	imagerel $unwind$is_ch9oflow
$pdata$call_execute_ccw_chain DD imagerel $LN12
	DD	imagerel $LN12+108
	DD	imagerel $unwind$call_execute_ccw_chain
$pdata$device_thread DD imagerel $LN32
	DD	imagerel $LN32+1267
	DD	imagerel $unwind$device_thread
$pdata$schedule_ioq DD imagerel schedule_ioq
	DD	imagerel schedule_ioq+217
	DD	imagerel $unwind$schedule_ioq
$pdata$subchannel_interrupt_queue_cleanup DD imagerel subchannel_interrupt_queue_cleanup
	DD	imagerel subchannel_interrupt_queue_cleanup+242
	DD	imagerel $unwind$subchannel_interrupt_queue_cleanup
$pdata$test_subchan_locked DD imagerel $LN23
	DD	imagerel $LN23+668
	DD	imagerel $unwind$test_subchan_locked
$pdata$IS_CCW_IMMEDIATE DD imagerel IS_CCW_IMMEDIATE
	DD	imagerel IS_CCW_IMMEDIATE+154
	DD	imagerel $unwind$IS_CCW_IMMEDIATE
$pdata$set_device_busy DD imagerel set_device_busy
	DD	imagerel set_device_busy+50
	DD	imagerel $unwind$set_device_busy
$pdata$clear_subchannel_busy DD imagerel clear_subchannel_busy
	DD	imagerel clear_subchannel_busy+85
	DD	imagerel $unwind$clear_subchannel_busy
$pdata$clear_device_busy DD imagerel clear_device_busy
	DD	imagerel clear_device_busy+33
	DD	imagerel $unwind$clear_device_busy
$pdata$iobuf_create DD imagerel iobuf_create
	DD	imagerel iobuf_create+122
	DD	imagerel $unwind$iobuf_create
$pdata$iobuf_validate DD imagerel iobuf_validate
	DD	imagerel iobuf_validate+107
	DD	imagerel $unwind$iobuf_validate
$pdata$iobuf_destroy DD imagerel iobuf_destroy
	DD	imagerel iobuf_destroy+85
	DD	imagerel $unwind$iobuf_destroy
$pdata$iobuf_reallocate DD imagerel iobuf_reallocate
	DD	imagerel iobuf_reallocate+189
	DD	imagerel $unwind$iobuf_reallocate
$pdata$BytesToEndOfStorage DD imagerel BytesToEndOfStorage
	DD	imagerel BytesToEndOfStorage+152
	DD	imagerel $unwind$BytesToEndOfStorage
$pdata$scsw_clear_fc_Nc DD imagerel scsw_clear_fc_Nc
	DD	imagerel scsw_clear_fc_Nc+56
	DD	imagerel $unwind$scsw_clear_fc_Nc
$pdata$scsw_clear_ac_Nr DD imagerel scsw_clear_ac_Nr
	DD	imagerel scsw_clear_ac_Nr+104
	DD	imagerel $unwind$scsw_clear_ac_Nr
$pdata$AIPSX DD	imagerel AIPSX
	DD	imagerel AIPSX+97
	DD	imagerel $unwind$AIPSX
$pdata$queue_io_interrupt_and_update_status_locked DD imagerel queue_io_interrupt_and_update_status_locked
	DD	imagerel queue_io_interrupt_and_update_status_locked+267
	DD	imagerel $unwind$queue_io_interrupt_and_update_status_locked
$pdata$queue_io_interrupt_and_update_status DD imagerel queue_io_interrupt_and_update_status
	DD	imagerel queue_io_interrupt_and_update_status+307
	DD	imagerel $unwind$queue_io_interrupt_and_update_status
$pdata$_format_data DD imagerel _format_data
	DD	imagerel _format_data+947
	DD	imagerel $unwind$_format_data
$pdata$format_iobuf_data DD imagerel format_iobuf_data
	DD	imagerel format_iobuf_data+380
	DD	imagerel $unwind$format_iobuf_data
$pdata$_display_ccw DD imagerel _display_ccw
	DD	imagerel _display_ccw+1116
	DD	imagerel $unwind$_display_ccw
$pdata$_display_sense DD imagerel _display_sense
	DD	imagerel _display_sense+366
	DD	imagerel $unwind$_display_sense
$pdata$_display_idaw DD imagerel _display_idaw
	DD	imagerel _display_idaw+1268
	DD	imagerel $unwind$_display_idaw
$pdata$_display_csw DD imagerel _display_csw
	DD	imagerel _display_csw+593
	DD	imagerel $unwind$_display_csw
$pdata$_display_scsw DD imagerel _display_scsw
	DD	imagerel _display_scsw+828
	DD	imagerel $unwind$_display_scsw
$pdata$test_subchan_clear DD imagerel test_subchan_clear
	DD	imagerel test_subchan_clear+392
	DD	imagerel $unwind$test_subchan_clear
$pdata$perform_clear_subchan DD imagerel $LN12
	DD	imagerel $LN12+901
	DD	imagerel $unwind$perform_clear_subchan
$pdata$perform_halt_and_release_lock DD imagerel $LN25
	DD	imagerel $LN25+748
	DD	imagerel $unwind$perform_halt_and_release_lock
$pdata$perform_halt DD imagerel $LN3
	DD	imagerel $LN3+77
	DD	imagerel $unwind$perform_halt
$pdata$device_reset DD imagerel device_reset
	DD	imagerel device_reset+1417
	DD	imagerel $unwind$device_reset
$pdata$create_device_thread DD imagerel create_device_thread
	DD	imagerel create_device_thread+517
	DD	imagerel $unwind$create_device_thread
$pdata$ScheduleIORequest DD imagerel ScheduleIORequest
	DD	imagerel ScheduleIORequest+481
	DD	imagerel $unwind$ScheduleIORequest
$pdata$s370_raise_pci DD imagerel s370_raise_pci
	DD	imagerel s370_raise_pci+449
	DD	imagerel $unwind$s370_raise_pci
$pdata$s370_fetch_ccw DD imagerel s370_fetch_ccw
	DD	imagerel s370_fetch_ccw+612
	DD	imagerel $unwind$s370_fetch_ccw
$pdata$s370_fetch_idaw DD imagerel s370_fetch_idaw
	DD	imagerel s370_fetch_idaw+779
	DD	imagerel $unwind$s370_fetch_idaw
$pdata$s370_copy_iobuf DD imagerel s370_copy_iobuf
	DD	imagerel s370_copy_iobuf+4480
	DD	imagerel $unwind$s370_copy_iobuf
$pdata$execute_ccw_chain_fast_return DD imagerel execute_ccw_chain_fast_return
	DD	imagerel execute_ccw_chain_fast_return+51
	DD	imagerel $unwind$execute_ccw_chain_fast_return
$pdata$s370_interrupt_enabled DD imagerel s370_interrupt_enabled
	DD	imagerel s370_interrupt_enabled+428
	DD	imagerel $unwind$s370_interrupt_enabled
$pdata$s390_startio DD imagerel $LN31
	DD	imagerel $LN31+1931
	DD	imagerel $unwind$s390_startio
$pdata$s390_present_io_interrupt DD imagerel $LN68
	DD	imagerel $LN68+1718
	DD	imagerel $unwind$s390_present_io_interrupt
$pdata$s390_present_zone_io_interrupt DD imagerel $LN34
	DD	imagerel $LN34+1130
	DD	imagerel $unwind$s390_present_zone_io_interrupt
pdata	ENDS
;	COMDAT pdata
pdata	SEGMENT
$pdata$s390__get_dev_storage_key DD imagerel $LN8
	DD	imagerel $LN8+129
	DD	imagerel $unwind$s390__get_dev_storage_key
pdata	ENDS
;	COMDAT pdata
pdata	SEGMENT
$pdata$s390__or_dev_storage_key DD imagerel $LN8
	DD	imagerel $LN8+181
	DD	imagerel $unwind$s390__or_dev_storage_key
pdata	ENDS
;	COMDAT pdata
pdata	SEGMENT
$pdata$s390_get_dev_4K_storage_key DD imagerel $LN3
	DD	imagerel $LN3+43
	DD	imagerel $unwind$s390_get_dev_4K_storage_key
pdata	ENDS
;	COMDAT pdata
pdata	SEGMENT
$pdata$s390_or_dev_4K_storage_key DD imagerel $LN3
	DD	imagerel $LN3+54
	DD	imagerel $unwind$s390_or_dev_4K_storage_key
pdata	ENDS
;	COMDAT pdata
pdata	SEGMENT
$pdata$s390_get_dev_storage_key DD imagerel $LN3
	DD	imagerel $LN3+34
	DD	imagerel $unwind$s390_get_dev_storage_key
pdata	ENDS
;	COMDAT pdata
pdata	SEGMENT
$pdata$s390_or_dev_storage_key DD imagerel $LN3
	DD	imagerel $LN3+45
	DD	imagerel $unwind$s390_or_dev_storage_key
pdata	ENDS
pdata	SEGMENT
$pdata$s390_raise_pci DD imagerel s390_raise_pci
	DD	imagerel s390_raise_pci+443
	DD	imagerel $unwind$s390_raise_pci
$pdata$s390_fetch_ccw DD imagerel s390_fetch_ccw
	DD	imagerel s390_fetch_ccw+709
	DD	imagerel $unwind$s390_fetch_ccw
$pdata$s390_fetch_idaw DD imagerel s390_fetch_idaw
	DD	imagerel s390_fetch_idaw+989
	DD	imagerel $unwind$s390_fetch_idaw
$pdata$s390_copy_iobuf DD imagerel s390_copy_iobuf
	DD	imagerel s390_copy_iobuf+4538
	DD	imagerel $unwind$s390_copy_iobuf
$pdata$s390_device_attention DD imagerel $LN24
	DD	imagerel $LN24+1318
	DD	imagerel $unwind$s390_device_attention
$pdata$s390_interrupt_enabled DD imagerel s390_interrupt_enabled
	DD	imagerel s390_interrupt_enabled+340
	DD	imagerel $unwind$s390_interrupt_enabled
$pdata$z900_startio DD imagerel $LN31
	DD	imagerel $LN31+1931
	DD	imagerel $unwind$z900_startio
$pdata$z900_present_io_interrupt DD imagerel $LN87
	DD	imagerel $LN87+2329
	DD	imagerel $unwind$z900_present_io_interrupt
$pdata$z900_present_zone_io_interrupt DD imagerel $LN34
	DD	imagerel $LN34+1130
	DD	imagerel $unwind$z900_present_zone_io_interrupt
pdata	ENDS
;	COMDAT pdata
pdata	SEGMENT
$pdata$z900__get_dev_storage_key DD imagerel $LN8
	DD	imagerel $LN8+129
	DD	imagerel $unwind$z900__get_dev_storage_key
pdata	ENDS
;	COMDAT pdata
pdata	SEGMENT
$pdata$z900__or_dev_storage_key DD imagerel $LN8
	DD	imagerel $LN8+181
	DD	imagerel $unwind$z900__or_dev_storage_key
pdata	ENDS
;	COMDAT pdata
pdata	SEGMENT
$pdata$z900_get_dev_4K_storage_key DD imagerel $LN3
	DD	imagerel $LN3+43
	DD	imagerel $unwind$z900_get_dev_4K_storage_key
pdata	ENDS
;	COMDAT pdata
pdata	SEGMENT
$pdata$z900_or_dev_4K_storage_key DD imagerel $LN3
	DD	imagerel $LN3+54
	DD	imagerel $unwind$z900_or_dev_4K_storage_key
pdata	ENDS
;	COMDAT pdata
pdata	SEGMENT
$pdata$z900_get_dev_storage_key DD imagerel $LN3
	DD	imagerel $LN3+34
	DD	imagerel $unwind$z900_get_dev_storage_key
pdata	ENDS
;	COMDAT pdata
pdata	SEGMENT
$pdata$z900_or_dev_storage_key DD imagerel $LN3
	DD	imagerel $LN3+45
	DD	imagerel $unwind$z900_or_dev_storage_key
pdata	ENDS
pdata	SEGMENT
$pdata$z900_raise_pci DD imagerel z900_raise_pci
	DD	imagerel z900_raise_pci+443
	DD	imagerel $unwind$z900_raise_pci
$pdata$z900_fetch_ccw DD imagerel z900_fetch_ccw
	DD	imagerel z900_fetch_ccw+709
	DD	imagerel $unwind$z900_fetch_ccw
$pdata$z900_fetch_idaw DD imagerel z900_fetch_idaw
	DD	imagerel z900_fetch_idaw+962
	DD	imagerel $unwind$z900_fetch_idaw
$pdata$z900_fetch_midaw DD imagerel z900_fetch_midaw
	DD	imagerel z900_fetch_midaw+836
	DD	imagerel $unwind$z900_fetch_midaw
$pdata$z900_copy_iobuf DD imagerel z900_copy_iobuf
	DD	imagerel z900_copy_iobuf+6580
	DD	imagerel $unwind$z900_copy_iobuf
$pdata$z900_device_attention DD imagerel $LN24
	DD	imagerel $LN24+1318
	DD	imagerel $unwind$z900_device_attention
$pdata$z900_interrupt_enabled DD imagerel z900_interrupt_enabled
	DD	imagerel z900_interrupt_enabled+340
	DD	imagerel $unwind$z900_interrupt_enabled
pdata	ENDS
_DATA	SEGMENT
$SG169899 DB	'PRT', 00H
$SG170191 DB	'=>', 00H
	ORG $+1
$SG170098 DB	'channel.c:504', 00H
	ORG $+2
$SG170101 DB	'channel.c:508', 00H
	ORG $+2
$SG170102 DB	'channel.c:510', 00H
	ORG $+2
$SG170103 DB	'channel.c:519', 00H
	ORG $+2
$SG170106 DB	'channel.c:528', 00H
	ORG $+2
$SG170117 DB	'channel.c:551', 00H
	ORG $+2
$SG170118 DB	'channel.c:552', 00H
	ORG $+2
$SG170119 DB	'channel.c:556', 00H
	ORG $+2
$SG170120 DB	'channel.c:557', 00H
	ORG $+2
$SG170122 DB	'channel.c:566', 00H
	ORG $+2
$SG170124 DB	'channel.c:569', 00H
	ORG $+2
$SG170125 DB	'channel.c:570', 00H
	ORG $+2
$SG170239 DB	'IE ', 00H
	ORG $+4
$SG170156 DB	'%2.2X%2.2X%2.2X%2.2X %2.2X%2.2X%2.2X%2.2X %2.2X%2.2X%2.2'
	DB	'X%2.2X %2.2X%2.2X%2.2X%2.2X', 00H
$SG170228 DB	'I', 00H
	ORG $+2
$SG170241 DB	'WRI ', 00H
	ORG $+3
$SG170229 DB	'HHC01315%s %1d:%04X CHAN: ccw %2.2X%2.2X%2.2X%2.2X %2.2X'
	DB	'%2.2X%2.2X%2.2X%s', 0aH, 00H
	ORG $+1
$SG170243 DB	'FP ', 00H
$SG170245 DB	'NRF ', 00H
	ORG $+3
$SG170247 DB	'MSG ', 00H
	ORG $+3
$SG170249 DB	'EOC ', 00H
	ORG $+3
$SG170251 DB	'ITF ', 00H
	ORG $+3
$SG170253 DB	'PERM ', 00H
	ORG $+2
$SG170255 DB	'OPRCK ', 00H
	ORG $+1
$SG170257 DB	'CTLCK ', 00H
	ORG $+1
$SG170259 DB	'OVRUN ', 00H
	ORG $+1
$SG170261 DB	'DATCK ', 00H
	ORG $+1
$SG170263 DB	'EQPCK ', 00H
	ORG $+1
$SG170265 DB	'BUSCK ', 00H
	ORG $+1
$SG170267 DB	'INTREQ ', 00H
$SG170269 DB	'CMDREJ ', 00H
$SG170271 DB	'%s%s%s%s%s%s%s%s%s%s%s%s%s%s%s%s', 00H
	ORG $+3
$SG170285 DB	'I', 00H
	ORG $+2
$SG170286 DB	'HHC01314%s %1d:%04X CHAN: sense %s', 0aH, 00H
$SG170325 DB	'I', 00H
	ORG $+2
$SG170326 DB	'HHC01302%s %1d:%04X CHAN: idaw %8.8X, len %3.3hX%s', 0aH
	DB	00H
$SG170328 DB	'I', 00H
	ORG $+2
$SG170329 DB	'HHC01303%s %1d:%04X CHAN: idaw %16.16llX, len %4.4hX%s', 0aH
	DB	00H
$SG170331 DB	'I', 00H
	ORG $+2
$SG170347 DB	'I', 00H
	ORG $+2
$SG170332 DB	'HHC01301%s %1d:%04X CHAN: midaw %2.2X %4.4hX %16.16llX%s'
	DB	0aH, 00H
	ORG $+6
$SG170348 DB	'HHC01316%s %1d:%04X CHAN: csw %2.2X, stat %2.2X%2.2X, co'
	DB	'unt %2.2X%2.2X, ccw %2.2X%2.2X%2.2X', 0aH, 00H
	ORG $+3
$SG170365 DB	'I', 00H
	ORG $+6
$SG170429 DB	'channel.c:1249', 00H
	ORG $+1
$SG170448 DB	'testio', 00H
	ORG $+1
$SG170366 DB	'HHC01317%s %1d:%04X CHAN: scsw %2.2X%2.2X%2.2X%2.2X, sta'
	DB	't %2.2X%2.2X, count %2.2X%2.2X, ccw %2.2X%2.2X%2.2X%2.2X', 0aH
	DB	00H
	ORG $+2
$SG170446 DB	'I', 00H
	ORG $+2
$SG170430 DB	'channel.c:1250', 00H
	ORG $+1
$SG170440 DB	'channel.c:1274', 00H
	ORG $+1
$SG170441 DB	'channel.c:1277', 00H
	ORG $+1
$SG170442 DB	'channel.c:1287', 00H
	ORG $+1
$SG170447 DB	'HHC01318%s %1d:%04X CHAN: test I/O: cc=%d', 0aH, 00H
	ORG $+1
$SG170478 DB	'I', 00H
	ORG $+2
$SG170449 DB	'channel.c', 00H
	ORG $+2
$SG170480 DB	'haltio', 00H
	ORG $+1
$SG170504 DB	'I', 00H
	ORG $+2
$SG170450 DB	'channel.c:1303', 00H
	ORG $+1
$SG170451 DB	'channel.c:1304', 00H
	ORG $+1
$SG170479 DB	'HHC01329%s %1d:%04X CHAN: halt I/O', 0aH, 00H
$SG170624 DB	'I', 00H
	ORG $+2
$SG170481 DB	'channel.c', 00H
	ORG $+2
$SG170495 DB	'haltio', 00H
	ORG $+1
$SG170653 DB	'I', 00H
	ORG $+2
$SG170482 DB	'channel.c:1331', 00H
	ORG $+1
$SG170483 DB	'channel.c:1332', 00H
	ORG $+1
$SG170489 DB	'channel.c:1362', 00H
	ORG $+1
$SG170490 DB	'channel.c:1363', 00H
	ORG $+1
$SG170491 DB	'channel.c:1364', 00H
	ORG $+1
$SG170496 DB	'channel.c', 00H
	ORG $+2
$SG170502 DB	'haltio', 00H
	ORG $+1
$SG170677 DB	'I', 00H
	ORG $+2
$SG170503 DB	'channel.c', 00H
	ORG $+2
$SG170506 DB	'haltio', 00H
	ORG $+1
$SG170721 DB	'I', 00H
	ORG $+2
$SG170505 DB	'HHC01330%s %1d:%04X CHAN: HIO modification executed: cc='
	DB	'1', 0aH, 00H
	ORG $+1
$SG170751 DB	'I', 00H
	ORG $+2
$SG170507 DB	'channel.c', 00H
	ORG $+2
$SG170508 DB	'haltio', 00H
	ORG $+1
$SG170766 DB	'I', 00H
	ORG $+2
$SG170509 DB	'channel.c', 00H
	ORG $+2
$SG170776 DB	'I', 00H
	ORG $+2
$SG170510 DB	'channel.c:1433', 00H
	ORG $+1
$SG170511 DB	'channel.c:1434', 00H
	ORG $+1
$SG170528 DB	'channel.c:1461', 00H
	ORG $+1
$SG170531 DB	'channel.c:1468', 00H
	ORG $+1
$SG170535 DB	'channel.c:1481', 00H
	ORG $+1
$SG170540 DB	'channel.c:1509', 00H
	ORG $+1
$SG170544 DB	'channel.c:1536', 00H
	ORG $+1
$SG170592 DB	'channel.c:1693', 00H
	ORG $+1
$SG170594 DB	'test_subchan_locked', 00H
$SG170909 DB	'E', 00H
	ORG $+2
$SG170595 DB	'channel.c', 00H
	ORG $+2
$SG171021 DB	'I', 00H
	ORG $+2
$SG170608 DB	'channel.c:1753', 00H
	ORG $+1
$SG170609 DB	'channel.c:1754', 00H
	ORG $+1
$SG170613 DB	'channel.c:1762', 00H
	ORG $+1
$SG170614 DB	'channel.c:1763', 00H
	ORG $+1
$SG170617 DB	'channel.c:1774', 00H
	ORG $+1
$SG170618 DB	'channel.c:1775', 00H
	ORG $+1
$SG170619 DB	'channel.c:1782', 00H
	ORG $+1
$SG170620 DB	'channel.c:1788', 00H
	ORG $+1
$SG170625 DB	'HHC01318%s %1d:%04X CHAN: test I/O: cc=%d', 0aH, 00H
	ORG $+1
$SG171344 DB	'I', 00H
	ORG $+2
$SG170626 DB	'test_subchan', 00H
	ORG $+3
$SG170627 DB	'channel.c', 00H
	ORG $+2
$SG171353 DB	'I', 00H
	ORG $+2
$SG170628 DB	'channel.c:1801', 00H
	ORG $+1
$SG170629 DB	'channel.c:1802', 00H
	ORG $+1
$SG170644 DB	'channel.c:1828', 00H
	ORG $+1
$SG170645 DB	'channel.c:1829', 00H
	ORG $+1
$SG170646 DB	'channel.c:1834', 00H
	ORG $+1
$SG170647 DB	'channel.c:1838', 00H
	ORG $+1
$SG170648 DB	'channel.c:1865', 00H
	ORG $+1
$SG170649 DB	'channel.c:1868', 00H
	ORG $+1
$SG170654 DB	'HHC01308%s %1d:%04X CHAN: clear completed', 0aH, 00H
	ORG $+1
$SG171388 DB	'I', 00H
	ORG $+2
$SG170655 DB	'perform_clear_subchan', 00H
	ORG $+2
$SG170656 DB	'channel.c', 00H
	ORG $+2
$SG171397 DB	'I', 00H
	ORG $+2
$SG170659 DB	'channel.c:1885', 00H
	ORG $+1
$SG170678 DB	'HHC01331%s %1d:%04X CHAN: clear subchannel', 0aH, 00H
$SG171546 DB	'I', 00H
	ORG $+2
$SG170679 DB	'clear_subchan', 00H
	ORG $+2
$SG170680 DB	'channel.c', 00H
	ORG $+2
$SG171552 DB	'I', 00H
	ORG $+2
$SG170683 DB	'channel.c:1924', 00H
	ORG $+1
$SG170684 DB	'channel.c:1925', 00H
	ORG $+1
$SG170691 DB	'channel.c:1957', 00H
	ORG $+1
$SG170692 DB	'channel.c:1958', 00H
	ORG $+1
$SG170693 DB	'channel.c:1960', 00H
	ORG $+1
$SG170694 DB	'channel.c:1965', 00H
	ORG $+1
$SG170695 DB	'channel.c:1968', 00H
	ORG $+1
$SG170696 DB	'channel.c:1969', 00H
	ORG $+1
$SG170697 DB	'channel.c:1976', 00H
	ORG $+1
$SG170698 DB	'channel.c:1977', 00H
	ORG $+1
$SG170722 DB	'HHC01300%s %1d:%04X CHAN: halt subchannel: cc=%d', 0aH, 00H
	ORG $+2
$SG171577 DB	'I', 00H
	ORG $+2
$SG170723 DB	'perform_halt_and_release_lock', 00H
	ORG $+2
$SG170724 DB	'channel.c', 00H
	ORG $+2
$SG171588 DB	'I', 00H
	ORG $+2
$SG170725 DB	'channel.c:2066', 00H
	ORG $+1
$SG170732 DB	'channel.c:2087', 00H
	ORG $+1
$SG170733 DB	'channel.c:2088', 00H
	ORG $+1
$SG170734 DB	'channel.c:2090', 00H
	ORG $+1
$SG170752 DB	'HHC01332%s %1d:%04X CHAN: halt subchannel', 0aH, 00H
	ORG $+1
$SG171641 DB	'I', 00H
	ORG $+2
$SG170753 DB	'halt_subchan', 00H
	ORG $+3
$SG170754 DB	'channel.c', 00H
	ORG $+2
$SG171666 DB	'I', 00H
	ORG $+2
$SG170755 DB	'channel.c:2118', 00H
	ORG $+1
$SG170756 DB	'channel.c:2119', 00H
	ORG $+1
$SG170759 DB	'channel.c:2130', 00H
	ORG $+1
$SG170760 DB	'channel.c:2131', 00H
	ORG $+1
$SG170767 DB	'HHC01300%s %1d:%04X CHAN: halt subchannel: cc=%d', 0aH, 00H
	ORG $+2
$SG171679 DB	'I', 00H
	ORG $+2
$SG170768 DB	'halt_subchan', 00H
	ORG $+3
$SG170769 DB	'channel.c', 00H
	ORG $+2
$SG171753 DB	'I', 00H
	ORG $+2
$SG170770 DB	'channel.c:2155', 00H
	ORG $+1
$SG170771 DB	'channel.c:2156', 00H
	ORG $+1
$SG170777 DB	'HHC01300%s %1d:%04X CHAN: halt subchannel: cc=%d', 0aH, 00H
	ORG $+2
$SG171760 DB	'I', 00H
	ORG $+2
$SG170778 DB	'halt_subchan', 00H
	ORG $+3
$SG170779 DB	'channel.c', 00H
	ORG $+2
$SG182370 DB	'I', 00H
	ORG $+2
$SG170780 DB	'channel.c:2173', 00H
	ORG $+1
$SG170781 DB	'channel.c:2174', 00H
	ORG $+1
$SG170794 DB	'channel.c:2266', 00H
	ORG $+1
$SG170800 DB	'channel.c:2292', 00H
	ORG $+1
$SG170801 DB	'channel.c:2299', 00H
	ORG $+1
$SG170818 DB	'channel.c:2320', 00H
	ORG $+1
$SG170821 DB	'channel.c:2328', 00H
	ORG $+1
$SG170822 DB	'channel.c:2333', 00H
	ORG $+1
$SG170823 DB	'channel.c:2334', 00H
	ORG $+1
$SG170824 DB	'channel.c:2335', 00H
	ORG $+1
$SG170825 DB	'channel.c:2336', 00H
	ORG $+1
$SG170826 DB	'channel.c:2337', 00H
	ORG $+1
$SG170829 DB	'channel.c:2353', 00H
	ORG $+1
$SG170832 DB	'channel.c:2408', 00H
	ORG $+1
$SG170888 DB	'channel.c:2516', 00H
	ORG $+1
$SG170889 DB	'channel.c:2519', 00H
	ORG $+1
$SG170906 DB	'channel.c:2563', 00H
	ORG $+1
$SG170907 DB	'idle device thread', 00H
	ORG $+1
$SG182379 DB	'I', 00H
	ORG $+2
$SG170910 DB	'HHC00102%s Error in function create_thread(): %s', 0aH, 00H
	ORG $+2
$SG182414 DB	'I', 00H
	ORG $+2
$SG170911 DB	'create_device_thread', 00H
	ORG $+3
$SG170912 DB	'channel.c', 00H
	ORG $+2
$SG182423 DB	'I', 00H
	ORG $+2
$SG170914 DB	'channel.c:2578', 00H
	ORG $+1
$SG170938 DB	'channel.c:2598', 00H
	ORG $+1
$SG170940 DB	'channel.c:2601', 00H
	ORG $+1
$SG170941 DB	'channel.c:2605', 00H
	ORG $+1
$SG170942 DB	'dev %4.4X thrd', 00H
	ORG $+1
$SG170943 DB	'channel.c:2637', 00H
	ORG $+1
$SG170945 DB	'channel.c:2643', 00H
	ORG $+1
$SG170947 DB	'channel.c:2653', 00H
	ORG $+1
$SG170948 DB	'channel.c:2659', 00H
	ORG $+1
$SG170953 DB	'idle dev thrd', 00H
	ORG $+2
$SG170954 DB	'idle dev thrd', 00H
	ORG $+2
$SG170955 DB	'channel.c:2682', 00H
	ORG $+1
$SG170957 DB	'channel.c:2692', 00H
	ORG $+1
$SG170958 DB	'channel.c:2701', 00H
	ORG $+1
$SG170977 DB	'channel.c:2740', 00H
	ORG $+1
$SG170987 DB	'channel.c:2811', 00H
	ORG $+1
$SG170996 DB	'channel.c:2858', 00H
	ORG $+1
$SG170999 DB	'channel.c:2864', 00H
	ORG $+1
$SG171000 DB	'channel.c:2866', 00H
	ORG $+1
$SG171008 DB	'channel.c:2892', 00H
	ORG $+1
$SG171011 DB	'channel.c:2899', 00H
	ORG $+1
$SG171022 DB	'HHC01333%s %1d:%04X CHAN: resume subchannel: cc=%d', 0aH
	DB	00H
$SG182545 DB	'I', 00H
	ORG $+2
$SG171023 DB	'resume_subchan', 00H
	ORG $+1
$SG171024 DB	'channel.c', 00H
	ORG $+2
$SG182551 DB	'I', 00H
	ORG $+2
$SG171025 DB	'channel.c:2956', 00H
	ORG $+1
$SG171031 DB	'channel.c:2974', 00H
	ORG $+1
$SG171055 DB	'channel.c:3013', 00H
	ORG $+1
$SG171056 DB	'channel.c:3014', 00H
	ORG $+1
$SG171057 DB	'channel.c:3030', 00H
	ORG $+1
$SG171058 DB	'channel.c:3031', 00H
	ORG $+1
$SG171059 DB	'channel.c:3036', 00H
	ORG $+1
$SG171060 DB	'channel.c:3037', 00H
	ORG $+1
$SG171061 DB	'channel.c:3038', 00H
	ORG $+1
$SG171285 DB	's370_copy_iobuf', 00H
$SG171286 DB	'channel.c', 00H
	ORG $+2
$SG182583 DB	'I', 00H
	ORG $+2
$SG171287 DB	's370_copy_iobuf', 00H
$SG171288 DB	'channel.c', 00H
	ORG $+2
$SG182594 DB	'I', 00H
	ORG $+2
$SG171334 DB	'channel.c:4067', 00H
	ORG $+1
$SG171335 DB	'channel.c:4068', 00H
	ORG $+1
$SG171345 DB	'HHC01304%s %1d:%04X CHAN: attention signaled', 0aH, 00H
	ORG $+2
$SG171346 DB	's370_device_attention', 00H
	ORG $+2
$SG171347 DB	'channel.c', 00H
	ORG $+2
$SG182647 DB	'I', 00H
	ORG $+2
$SG171348 DB	'channel.c:4122', 00H
	ORG $+1
$SG171349 DB	'channel.c:4123', 00H
	ORG $+1
$SG171354 DB	'HHC01305%s %1d:%04X CHAN: attention', 0aH, 00H
	ORG $+3
$SG171355 DB	's370_device_attention', 00H
	ORG $+2
$SG171356 DB	'channel.c', 00H
	ORG $+2
$SG182686 DB	'I', 00H
	ORG $+2
$SG171357 DB	'channel.c:4138', 00H
	ORG $+1
$SG171358 DB	'channel.c:4166', 00H
	ORG $+1
$SG171359 DB	'channel.c:4173', 00H
	ORG $+1
$SG171360 DB	'channel.c:4174', 00H
	ORG $+1
$SG171361 DB	'channel.c:4175', 00H
	ORG $+1
$SG171377 DB	'channel.c:4202', 00H
	ORG $+1
$SG171380 DB	'channel.c:4209', 00H
	ORG $+1
$SG171382 DB	'channel.c:4220', 00H
	ORG $+1
$SG171384 DB	'channel.c:4233', 00H
	ORG $+1
$SG171398 DB	'HHC01334%s %1d:%04X CHAN: ORB: %s', 0aH, 00H
	ORG $+5
$SG171389 DB	'HHC01336%s %1d:%04X CHAN: startio cc=2 (busy=%d startpen'
	DB	'ding=%d)', 0aH, 00H
	ORG $+2
$SG182699 DB	'I', 00H
	ORG $+2
$SG171390 DB	's370_startio', 00H
	ORG $+3
$SG171391 DB	'channel.c', 00H
	ORG $+2
$SG182773 DB	'I', 00H
	ORG $+2
$SG171399 DB	's370_startio', 00H
	ORG $+3
$SG171400 DB	'channel.c', 00H
	ORG $+2
$SG182780 DB	'I', 00H
	ORG $+2
$SG171401 DB	'channel.c:4323', 00H
	ORG $+1
$SG171533 DB	'channel.c:4431', 00H
	ORG $+1
$SG171536 DB	'channel.c:4455', 00H
	ORG $+1
$SG171548 DB	's370_execute_ccw_chain', 00H
	ORG $+1
$SG171547 DB	'HHC01321%s %1d:%04X CHAN: start I/O S/370 conversion to '
	DB	'asynchronous operation successful', 0aH, 00H
	ORG $+1
$SG196377 DB	'I', 00H
	ORG $+2
$SG171549 DB	'channel.c', 00H
	ORG $+2
$SG196386 DB	'I', 00H
	ORG $+2
$SG171553 DB	'HHC01311%s %1d:%04X CHAN: resumed', 0aH, 00H
	ORG $+1
$SG196421 DB	'I', 00H
	ORG $+2
$SG171554 DB	's370_execute_ccw_chain', 00H
	ORG $+1
$SG171555 DB	'channel.c', 00H
	ORG $+2
$SG196430 DB	'I', 00H
	ORG $+2
$SG171559 DB	'channel.c:4541', 00H
	ORG $+1
$SG171560 DB	'channel.c:4543', 00H
	ORG $+1
$SG171563 DB	'channel.c:4611', 00H
	ORG $+1
$SG171567 DB	'channel.c:4629', 00H
	ORG $+1
$SG171568 DB	'channel.c:4630', 00H
	ORG $+1
$SG171569 DB	'channel.c:4636', 00H
	ORG $+1
$SG171570 DB	'channel.c:4637', 00H
	ORG $+1
$SG171578 DB	'HHC01309%s %1d:%04X CHAN: halt completed', 0aH, 00H
	ORG $+2
$SG196552 DB	'I', 00H
	ORG $+2
$SG171579 DB	's370_execute_ccw_chain', 00H
	ORG $+1
$SG171580 DB	'channel.c', 00H
	ORG $+2
$SG196558 DB	'I', 00H
	ORG $+2
$SG171589 DB	'HHC01307%s %1d:%04X CHAN: attention completed', 0aH, 00H
	ORG $+1
$SG171590 DB	's370_execute_ccw_chain', 00H
	ORG $+1
$SG171591 DB	'channel.c', 00H
	ORG $+2
$SG196590 DB	'I', 00H
	ORG $+2
$SG171600 DB	's370_execute_ccw_chain', 00H
	ORG $+1
$SG171601 DB	'channel.c', 00H
	ORG $+2
$SG196601 DB	'I', 00H
	ORG $+2
$SG171632 DB	'channel.c:4990', 00H
	ORG $+1
$SG171633 DB	'channel.c:4991', 00H
	ORG $+1
$SG171642 DB	'HHC01310%s %1d:%04X CHAN: suspended', 0aH, 00H
	ORG $+3
$SG171643 DB	's370_execute_ccw_chain', 00H
	ORG $+1
$SG171644 DB	'channel.c', 00H
	ORG $+2
$SG196655 DB	'I', 00H
	ORG $+2
$SG171646 DB	'channel.c:5067', 00H
	ORG $+1
$SG171647 DB	'channel.c:5068', 00H
	ORG $+1
$SG171650 DB	'channel.c:5080', 00H
	ORG $+1
$SG171651 DB	'channel.c:5081', 00H
	ORG $+1
$SG171661 DB	'channel.c:5163', 00H
	ORG $+1
$SG171668 DB	's370_execute_ccw_chain', 00H
	ORG $+1
$SG171667 DB	'HHC01320%s %1d:%04X CHAN: start I/O S/370 conversion to '
	DB	'asynchronous operation started', 0aH, 00H
$SG171669 DB	'channel.c', 00H
	ORG $+2
$SG196698 DB	'I', 00H
	ORG $+2
$SG171670 DB	'channel.c:5193', 00H
	ORG $+1
$SG171673 DB	'channel.c:5217', 00H
	ORG $+1
$SG171674 DB	'channel.c:5229', 00H
	ORG $+1
$SG171680 DB	'HHC01306%s %1d:%04X CHAN: initial status interrupt', 0aH
	DB	00H
$SG196711 DB	'I', 00H
	ORG $+2
$SG171681 DB	's370_execute_ccw_chain', 00H
	ORG $+1
$SG171682 DB	'channel.c', 00H
	ORG $+2
$SG196785 DB	'I', 00H
	ORG $+2
$SG171734 DB	's370_execute_ccw_chain', 00H
	ORG $+1
$SG171735 DB	'channel.c', 00H
	ORG $+2
$SG196792 DB	'I', 00H
	ORG $+2
$SG171742 DB	's370_execute_ccw_chain', 00H
	ORG $+1
$SG171743 DB	'channel.c', 00H
	ORG $+6
$SG171745 DB	's370_execute_ccw_chain', 00H
	ORG $+1
$SG171746 DB	'channel.c', 00H
	ORG $+6
$SG171749 DB	's370_execute_ccw_chain', 00H
	ORG $+1
$SG171750 DB	'channel.c', 00H
	ORG $+6
$SG171754 DB	'HHC01312%s %1d:%04X CHAN: stat %2.2X%2.2X, count %4.4X', 0aH
	DB	00H
$SG171755 DB	's370_execute_ccw_chain', 00H
	ORG $+1
$SG171756 DB	'channel.c', 00H
	ORG $+14
$SG171761 DB	'HHC01313%s %1d:%04X CHAN: sense %2.2X%2.2X%2.2X%2.2X %2.'
	DB	'2X%2.2X%2.2X%2.2X %2.2X%2.2X%2.2X%2.2X %2.2X%2.2X%2.2X%2.2X %'
	DB	'2.2X%2.2X%2.2X%2.2X %2.2X%2.2X%2.2X%2.2X %2.2X%2.2X%2.2X%2.2X'
	DB	' %2.2X%2.2X%2.2X%2.2X', 0aH, 00H
	ORG $+7
$SG171762 DB	's370_execute_ccw_chain', 00H
	ORG $+1
$SG171763 DB	'channel.c', 00H
	ORG $+6
$SG171766 DB	's370_execute_ccw_chain', 00H
	ORG $+1
$SG171767 DB	'channel.c', 00H
	ORG $+6
$SG171778 DB	'channel.c:5809', 00H
	ORG $+1
$SG171779 DB	'channel.c:5810', 00H
	ORG $+1
$SG171790 DB	'channel.c:5876', 00H
	ORG $+1
$SG171791 DB	'channel.c:5877', 00H
	ORG $+1
$SG171793 DB	'channel.c:5885', 00H
	ORG $+1
$SG171794 DB	'channel.c:5886', 00H
	ORG $+1
$SG171895 DB	'channel.c:6075', 00H
	ORG $+1
$SG171901 DB	'channel.c:6128', 00H
	ORG $+1
$SG171904 DB	's370_present_io_interrupt', 00H
	ORG $+6
$SG171905 DB	'channel.c', 00H
	ORG $+6
$SG171906 DB	'%s(%d) : warning HHC90999W : *** Assertion Failed! *** f'
	DB	'unction: %s', 0aH, 00H
	ORG $+3
$SG171908 DB	's370_present_io_interrupt', 00H
	ORG $+6
$SG171909 DB	'channel.c', 00H
	ORG $+14
$SG171910 DB	'%s(%d) : warning HHC90999W : *** Assertion Failed! *** f'
	DB	'unction: %s', 0aH, 00H
	ORG $+3
$SG171916 DB	'channel.c:6171', 00H
	ORG $+1
$SG171917 DB	'channel.c:6175', 00H
	ORG $+1
$SG171918 DB	'channel.c:6178', 00H
	ORG $+1
$SG171919 DB	'channel.c:6186', 00H
	ORG $+1
$SG171922 DB	'channel.c:6193', 00H
	ORG $+1
$SG171923 DB	'channel.c:6194', 00H
	ORG $+1
$SG171928 DB	'channel.c:6283', 00H
	ORG $+1
$SG171933 DB	'channel.c:6316', 00H
	ORG $+1
$SG171934 DB	'channel.c:6341', 00H
	ORG $+1
$SG171988 DB	'channel.c:6377', 00H
	ORG $+1
$SG171992 DB	'channel.c:6407', 00H
	ORG $+1
$SG171994 DB	'channel.c:6417', 00H
	ORG $+1
$SG172000 DB	's370_present_zone_io_interrupt', 00H
	ORG $+1
$SG172001 DB	'channel.c', 00H
	ORG $+14
$SG172002 DB	'%s(%d) : warning HHC90999W : *** Assertion Failed! *** f'
	DB	'unction: %s', 0aH, 00H
	ORG $+3
$SG172004 DB	's370_present_zone_io_interrupt', 00H
	ORG $+1
$SG172005 DB	'channel.c', 00H
	ORG $+14
$SG172006 DB	'%s(%d) : warning HHC90999W : *** Assertion Failed! *** f'
	DB	'unction: %s', 0aH, 00H
	ORG $+3
$SG172008 DB	'channel.c:6448', 00H
	ORG $+1
$SG182065 DB	'C:\papa\MyGit\hyperion-zvector\channel.c:3013', 00H
	ORG $+2
$SG182066 DB	'C:\papa\MyGit\hyperion-zvector\channel.c:3014', 00H
	ORG $+2
$SG182067 DB	'C:\papa\MyGit\hyperion-zvector\channel.c:3030', 00H
	ORG $+2
$SG182068 DB	'C:\papa\MyGit\hyperion-zvector\channel.c:3031', 00H
	ORG $+2
$SG182069 DB	'C:\papa\MyGit\hyperion-zvector\channel.c:3036', 00H
	ORG $+2
$SG182070 DB	'C:\papa\MyGit\hyperion-zvector\channel.c:3037', 00H
	ORG $+2
$SG182071 DB	'C:\papa\MyGit\hyperion-zvector\channel.c:3038', 00H
	ORG $+2
$SG182304 DB	's390_copy_iobuf', 00H
$SG182305 DB	'C:\papa\MyGit\hyperion-zvector\channel.c', 00H
	ORG $+7
$SG182306 DB	's390_copy_iobuf', 00H
$SG182307 DB	'C:\papa\MyGit\hyperion-zvector\channel.c', 00H
	ORG $+7
$SG182356 DB	'C:\papa\MyGit\hyperion-zvector\channel.c:4067', 00H
	ORG $+2
$SG182357 DB	'C:\papa\MyGit\hyperion-zvector\channel.c:4068', 00H
	ORG $+2
$SG182361 DB	'C:\papa\MyGit\hyperion-zvector\channel.c:4080', 00H
	ORG $+2
$SG182362 DB	'C:\papa\MyGit\hyperion-zvector\channel.c:4081', 00H
	ORG $+2
$SG182371 DB	'HHC01304%s %1d:%04X CHAN: attention signaled', 0aH, 00H
	ORG $+2
$SG182372 DB	's390_device_attention', 00H
	ORG $+2
$SG182373 DB	'C:\papa\MyGit\hyperion-zvector\channel.c', 00H
	ORG $+7
$SG182374 DB	'C:\papa\MyGit\hyperion-zvector\channel.c:4122', 00H
	ORG $+2
$SG182375 DB	'C:\papa\MyGit\hyperion-zvector\channel.c:4123', 00H
	ORG $+2
$SG182380 DB	'HHC01305%s %1d:%04X CHAN: attention', 0aH, 00H
	ORG $+3
$SG182381 DB	's390_device_attention', 00H
	ORG $+2
$SG182382 DB	'C:\papa\MyGit\hyperion-zvector\channel.c', 00H
	ORG $+7
$SG182383 DB	'C:\papa\MyGit\hyperion-zvector\channel.c:4138', 00H
	ORG $+2
$SG182384 DB	'C:\papa\MyGit\hyperion-zvector\channel.c:4166', 00H
	ORG $+2
$SG182385 DB	'C:\papa\MyGit\hyperion-zvector\channel.c:4173', 00H
	ORG $+2
$SG182386 DB	'C:\papa\MyGit\hyperion-zvector\channel.c:4174', 00H
	ORG $+2
$SG182387 DB	'C:\papa\MyGit\hyperion-zvector\channel.c:4175', 00H
	ORG $+2
$SG182403 DB	'C:\papa\MyGit\hyperion-zvector\channel.c:4202', 00H
	ORG $+2
$SG182406 DB	'C:\papa\MyGit\hyperion-zvector\channel.c:4209', 00H
	ORG $+2
$SG182408 DB	'C:\papa\MyGit\hyperion-zvector\channel.c:4220', 00H
	ORG $+2
$SG182410 DB	'C:\papa\MyGit\hyperion-zvector\channel.c:4233', 00H
	ORG $+2
$SG182415 DB	'HHC01336%s %1d:%04X CHAN: startio cc=2 (busy=%d startpen'
	DB	'ding=%d)', 0aH, 00H
	ORG $+6
$SG182416 DB	's390_startio', 00H
	ORG $+3
$SG182417 DB	'C:\papa\MyGit\hyperion-zvector\channel.c', 00H
	ORG $+7
$SG182424 DB	'HHC01334%s %1d:%04X CHAN: ORB: %s', 0aH, 00H
	ORG $+5
$SG182425 DB	's390_startio', 00H
	ORG $+3
$SG182426 DB	'C:\papa\MyGit\hyperion-zvector\channel.c', 00H
	ORG $+7
$SG182427 DB	'C:\papa\MyGit\hyperion-zvector\channel.c:4323', 00H
	ORG $+2
$SG182532 DB	'C:\papa\MyGit\hyperion-zvector\channel.c:4431', 00H
	ORG $+2
$SG182535 DB	'C:\papa\MyGit\hyperion-zvector\channel.c:4455', 00H
	ORG $+2
$SG182546 DB	'HHC01321%s %1d:%04X CHAN: start I/O S/370 conversion to '
	DB	'asynchronous operation successful', 0aH, 00H
	ORG $+5
$SG182547 DB	's390_execute_ccw_chain', 00H
	ORG $+1
$SG182548 DB	'C:\papa\MyGit\hyperion-zvector\channel.c', 00H
	ORG $+7
$SG182552 DB	'HHC01311%s %1d:%04X CHAN: resumed', 0aH, 00H
	ORG $+5
$SG182553 DB	's390_execute_ccw_chain', 00H
	ORG $+1
$SG182554 DB	'C:\papa\MyGit\hyperion-zvector\channel.c', 00H
	ORG $+7
$SG182558 DB	'C:\papa\MyGit\hyperion-zvector\channel.c:4541', 00H
	ORG $+2
$SG182559 DB	'C:\papa\MyGit\hyperion-zvector\channel.c:4543', 00H
	ORG $+2
$SG182569 DB	'C:\papa\MyGit\hyperion-zvector\channel.c:4611', 00H
	ORG $+2
$SG182573 DB	'C:\papa\MyGit\hyperion-zvector\channel.c:4629', 00H
	ORG $+2
$SG182574 DB	'C:\papa\MyGit\hyperion-zvector\channel.c:4630', 00H
	ORG $+2
$SG182575 DB	'C:\papa\MyGit\hyperion-zvector\channel.c:4636', 00H
	ORG $+2
$SG182576 DB	'C:\papa\MyGit\hyperion-zvector\channel.c:4637', 00H
	ORG $+2
$SG182584 DB	'HHC01309%s %1d:%04X CHAN: halt completed', 0aH, 00H
	ORG $+6
$SG182585 DB	's390_execute_ccw_chain', 00H
	ORG $+1
$SG182586 DB	'C:\papa\MyGit\hyperion-zvector\channel.c', 00H
	ORG $+7
$SG182595 DB	'HHC01307%s %1d:%04X CHAN: attention completed', 0aH, 00H
	ORG $+1
$SG182596 DB	's390_execute_ccw_chain', 00H
	ORG $+1
$SG182597 DB	'C:\papa\MyGit\hyperion-zvector\channel.c', 00H
	ORG $+7
$SG182606 DB	's390_execute_ccw_chain', 00H
	ORG $+1
$SG182607 DB	'C:\papa\MyGit\hyperion-zvector\channel.c', 00H
	ORG $+7
$SG182638 DB	'C:\papa\MyGit\hyperion-zvector\channel.c:4990', 00H
	ORG $+2
$SG182639 DB	'C:\papa\MyGit\hyperion-zvector\channel.c:4991', 00H
	ORG $+2
$SG182648 DB	'HHC01310%s %1d:%04X CHAN: suspended', 0aH, 00H
	ORG $+3
$SG182649 DB	's390_execute_ccw_chain', 00H
	ORG $+1
$SG182650 DB	'C:\papa\MyGit\hyperion-zvector\channel.c', 00H
	ORG $+7
$SG182652 DB	'C:\papa\MyGit\hyperion-zvector\channel.c:5067', 00H
	ORG $+2
$SG182653 DB	'C:\papa\MyGit\hyperion-zvector\channel.c:5068', 00H
	ORG $+2
$SG182656 DB	'C:\papa\MyGit\hyperion-zvector\channel.c:5080', 00H
	ORG $+2
$SG182657 DB	'C:\papa\MyGit\hyperion-zvector\channel.c:5081', 00H
	ORG $+2
$SG182681 DB	'C:\papa\MyGit\hyperion-zvector\channel.c:5163', 00H
	ORG $+2
$SG182687 DB	'HHC01320%s %1d:%04X CHAN: start I/O S/370 conversion to '
	DB	'asynchronous operation started', 0aH, 00H
$SG182688 DB	's390_execute_ccw_chain', 00H
	ORG $+1
$SG182689 DB	'C:\papa\MyGit\hyperion-zvector\channel.c', 00H
	ORG $+7
$SG182690 DB	'C:\papa\MyGit\hyperion-zvector\channel.c:5193', 00H
	ORG $+2
$SG182693 DB	'C:\papa\MyGit\hyperion-zvector\channel.c:5217', 00H
	ORG $+2
$SG182694 DB	'C:\papa\MyGit\hyperion-zvector\channel.c:5229', 00H
	ORG $+2
$SG182700 DB	'HHC01306%s %1d:%04X CHAN: initial status interrupt', 0aH
	DB	00H
	ORG $+4
$SG182701 DB	's390_execute_ccw_chain', 00H
	ORG $+1
$SG182702 DB	'C:\papa\MyGit\hyperion-zvector\channel.c', 00H
	ORG $+7
$SG182754 DB	's390_execute_ccw_chain', 00H
	ORG $+1
$SG182755 DB	'C:\papa\MyGit\hyperion-zvector\channel.c', 00H
	ORG $+7
$SG182762 DB	's390_execute_ccw_chain', 00H
	ORG $+1
$SG182763 DB	'C:\papa\MyGit\hyperion-zvector\channel.c', 00H
	ORG $+7
$SG182765 DB	's390_execute_ccw_chain', 00H
	ORG $+1
$SG182766 DB	'C:\papa\MyGit\hyperion-zvector\channel.c', 00H
	ORG $+7
$SG182769 DB	's390_execute_ccw_chain', 00H
	ORG $+1
$SG182770 DB	'C:\papa\MyGit\hyperion-zvector\channel.c', 00H
	ORG $+7
$SG182774 DB	'HHC01312%s %1d:%04X CHAN: stat %2.2X%2.2X, count %4.4X', 0aH
	DB	00H
$SG182775 DB	's390_execute_ccw_chain', 00H
	ORG $+1
$SG182776 DB	'C:\papa\MyGit\hyperion-zvector\channel.c', 00H
	ORG $+7
$SG182781 DB	'HHC01313%s %1d:%04X CHAN: sense %2.2X%2.2X%2.2X%2.2X %2.'
	DB	'2X%2.2X%2.2X%2.2X %2.2X%2.2X%2.2X%2.2X %2.2X%2.2X%2.2X%2.2X %'
	DB	'2.2X%2.2X%2.2X%2.2X %2.2X%2.2X%2.2X%2.2X %2.2X%2.2X%2.2X%2.2X'
	DB	' %2.2X%2.2X%2.2X%2.2X', 0aH, 00H
	ORG $+7
$SG182782 DB	's390_execute_ccw_chain', 00H
	ORG $+1
$SG182783 DB	'C:\papa\MyGit\hyperion-zvector\channel.c', 00H
	ORG $+7
$SG182786 DB	's390_execute_ccw_chain', 00H
	ORG $+1
$SG182787 DB	'C:\papa\MyGit\hyperion-zvector\channel.c', 00H
	ORG $+7
$SG182798 DB	'C:\papa\MyGit\hyperion-zvector\channel.c:5809', 00H
	ORG $+2
$SG182799 DB	'C:\papa\MyGit\hyperion-zvector\channel.c:5810', 00H
	ORG $+2
$SG182810 DB	'C:\papa\MyGit\hyperion-zvector\channel.c:5876', 00H
	ORG $+2
$SG182811 DB	'C:\papa\MyGit\hyperion-zvector\channel.c:5877', 00H
	ORG $+2
$SG182813 DB	'C:\papa\MyGit\hyperion-zvector\channel.c:5885', 00H
	ORG $+2
$SG182814 DB	'C:\papa\MyGit\hyperion-zvector\channel.c:5886', 00H
	ORG $+2
$SG182908 DB	'C:\papa\MyGit\hyperion-zvector\channel.c:6075', 00H
	ORG $+2
$SG182914 DB	'C:\papa\MyGit\hyperion-zvector\channel.c:6128', 00H
	ORG $+2
$SG182917 DB	's390_present_io_interrupt', 00H
	ORG $+6
$SG182918 DB	'C:\papa\MyGit\hyperion-zvector\channel.c', 00H
	ORG $+7
$SG182919 DB	'%s(%d) : warning HHC90999W : *** Assertion Failed! *** f'
	DB	'unction: %s', 0aH, 00H
	ORG $+3
$SG182921 DB	's390_present_io_interrupt', 00H
	ORG $+6
$SG182922 DB	'C:\papa\MyGit\hyperion-zvector\channel.c', 00H
	ORG $+7
$SG182929 DB	'C:\papa\MyGit\hyperion-zvector\channel.c:6171', 00H
	ORG $+10
$SG182923 DB	'%s(%d) : warning HHC90999W : *** Assertion Failed! *** f'
	DB	'unction: %s', 0aH, 00H
	ORG $+3
$SG182930 DB	'C:\papa\MyGit\hyperion-zvector\channel.c:6175', 00H
	ORG $+2
$SG182931 DB	'C:\papa\MyGit\hyperion-zvector\channel.c:6178', 00H
	ORG $+2
$SG182932 DB	'C:\papa\MyGit\hyperion-zvector\channel.c:6186', 00H
	ORG $+2
$SG182935 DB	'C:\papa\MyGit\hyperion-zvector\channel.c:6193', 00H
	ORG $+2
$SG182936 DB	'C:\papa\MyGit\hyperion-zvector\channel.c:6194', 00H
	ORG $+2
$SG182941 DB	'C:\papa\MyGit\hyperion-zvector\channel.c:6283', 00H
	ORG $+2
$SG182946 DB	'C:\papa\MyGit\hyperion-zvector\channel.c:6316', 00H
	ORG $+2
$SG182947 DB	'C:\papa\MyGit\hyperion-zvector\channel.c:6341', 00H
	ORG $+2
$SG183001 DB	'C:\papa\MyGit\hyperion-zvector\channel.c:6377', 00H
	ORG $+2
$SG183005 DB	'C:\papa\MyGit\hyperion-zvector\channel.c:6407', 00H
	ORG $+2
$SG183007 DB	'C:\papa\MyGit\hyperion-zvector\channel.c:6417', 00H
	ORG $+2
$SG183013 DB	's390_present_zone_io_interrupt', 00H
	ORG $+1
$SG183014 DB	'C:\papa\MyGit\hyperion-zvector\channel.c', 00H
	ORG $+7
$SG183017 DB	's390_present_zone_io_interrupt', 00H
	ORG $+9
$SG183015 DB	'%s(%d) : warning HHC90999W : *** Assertion Failed! *** f'
	DB	'unction: %s', 0aH, 00H
	ORG $+3
$SG183018 DB	'C:\papa\MyGit\hyperion-zvector\channel.c', 00H
	ORG $+7
$SG183021 DB	'C:\papa\MyGit\hyperion-zvector\channel.c:6448', 00H
	ORG $+10
$SG183019 DB	'%s(%d) : warning HHC90999W : *** Assertion Failed! *** f'
	DB	'unction: %s', 0aH, 00H
	ORG $+3
$SG195955 DB	'C:\papa\MyGit\hyperion-zvector\channel.c:3013', 00H
	ORG $+2
$SG195956 DB	'C:\papa\MyGit\hyperion-zvector\channel.c:3014', 00H
	ORG $+2
$SG195957 DB	'C:\papa\MyGit\hyperion-zvector\channel.c:3030', 00H
	ORG $+2
$SG195958 DB	'C:\papa\MyGit\hyperion-zvector\channel.c:3031', 00H
	ORG $+2
$SG195959 DB	'C:\papa\MyGit\hyperion-zvector\channel.c:3036', 00H
	ORG $+2
$SG195960 DB	'C:\papa\MyGit\hyperion-zvector\channel.c:3037', 00H
	ORG $+2
$SG195961 DB	'C:\papa\MyGit\hyperion-zvector\channel.c:3038', 00H
	ORG $+2
$SG196256 DB	'z900_copy_iobuf', 00H
$SG196257 DB	'C:\papa\MyGit\hyperion-zvector\channel.c', 00H
	ORG $+7
$SG196258 DB	'z900_copy_iobuf', 00H
$SG196259 DB	'C:\papa\MyGit\hyperion-zvector\channel.c', 00H
	ORG $+7
$SG196311 DB	'z900_copy_iobuf', 00H
$SG196312 DB	'C:\papa\MyGit\hyperion-zvector\channel.c', 00H
	ORG $+7
$SG196313 DB	'z900_copy_iobuf', 00H
$SG196314 DB	'C:\papa\MyGit\hyperion-zvector\channel.c', 00H
	ORG $+7
$SG196363 DB	'C:\papa\MyGit\hyperion-zvector\channel.c:4067', 00H
	ORG $+2
$SG196364 DB	'C:\papa\MyGit\hyperion-zvector\channel.c:4068', 00H
	ORG $+2
$SG196368 DB	'C:\papa\MyGit\hyperion-zvector\channel.c:4080', 00H
	ORG $+2
$SG196369 DB	'C:\papa\MyGit\hyperion-zvector\channel.c:4081', 00H
	ORG $+2
$SG196378 DB	'HHC01304%s %1d:%04X CHAN: attention signaled', 0aH, 00H
	ORG $+2
$SG196379 DB	'z900_device_attention', 00H
	ORG $+2
$SG196380 DB	'C:\papa\MyGit\hyperion-zvector\channel.c', 00H
	ORG $+7
$SG196381 DB	'C:\papa\MyGit\hyperion-zvector\channel.c:4122', 00H
	ORG $+2
$SG196382 DB	'C:\papa\MyGit\hyperion-zvector\channel.c:4123', 00H
	ORG $+2
$SG196387 DB	'HHC01305%s %1d:%04X CHAN: attention', 0aH, 00H
	ORG $+3
$SG196388 DB	'z900_device_attention', 00H
	ORG $+2
$SG196389 DB	'C:\papa\MyGit\hyperion-zvector\channel.c', 00H
	ORG $+7
$SG196390 DB	'C:\papa\MyGit\hyperion-zvector\channel.c:4138', 00H
	ORG $+2
$SG196391 DB	'C:\papa\MyGit\hyperion-zvector\channel.c:4166', 00H
	ORG $+2
$SG196392 DB	'C:\papa\MyGit\hyperion-zvector\channel.c:4173', 00H
	ORG $+2
$SG196393 DB	'C:\papa\MyGit\hyperion-zvector\channel.c:4174', 00H
	ORG $+2
$SG196394 DB	'C:\papa\MyGit\hyperion-zvector\channel.c:4175', 00H
	ORG $+2
$SG196410 DB	'C:\papa\MyGit\hyperion-zvector\channel.c:4202', 00H
	ORG $+2
$SG196413 DB	'C:\papa\MyGit\hyperion-zvector\channel.c:4209', 00H
	ORG $+2
$SG196415 DB	'C:\papa\MyGit\hyperion-zvector\channel.c:4220', 00H
	ORG $+2
$SG196417 DB	'C:\papa\MyGit\hyperion-zvector\channel.c:4233', 00H
	ORG $+2
$SG196422 DB	'HHC01336%s %1d:%04X CHAN: startio cc=2 (busy=%d startpen'
	DB	'ding=%d)', 0aH, 00H
	ORG $+6
$SG196423 DB	'z900_startio', 00H
	ORG $+3
$SG196424 DB	'C:\papa\MyGit\hyperion-zvector\channel.c', 00H
	ORG $+7
$SG196431 DB	'HHC01334%s %1d:%04X CHAN: ORB: %s', 0aH, 00H
	ORG $+5
$SG196432 DB	'z900_startio', 00H
	ORG $+3
$SG196433 DB	'C:\papa\MyGit\hyperion-zvector\channel.c', 00H
	ORG $+7
$SG196434 DB	'C:\papa\MyGit\hyperion-zvector\channel.c:4323', 00H
	ORG $+2
$SG196539 DB	'C:\papa\MyGit\hyperion-zvector\channel.c:4431', 00H
	ORG $+2
$SG196542 DB	'C:\papa\MyGit\hyperion-zvector\channel.c:4455', 00H
	ORG $+2
$SG196553 DB	'HHC01321%s %1d:%04X CHAN: start I/O S/370 conversion to '
	DB	'asynchronous operation successful', 0aH, 00H
	ORG $+5
$SG196554 DB	'z900_execute_ccw_chain', 00H
	ORG $+1
$SG196555 DB	'C:\papa\MyGit\hyperion-zvector\channel.c', 00H
	ORG $+7
$SG196559 DB	'HHC01311%s %1d:%04X CHAN: resumed', 0aH, 00H
	ORG $+5
$SG196560 DB	'z900_execute_ccw_chain', 00H
	ORG $+1
$SG196561 DB	'C:\papa\MyGit\hyperion-zvector\channel.c', 00H
	ORG $+7
$SG196565 DB	'C:\papa\MyGit\hyperion-zvector\channel.c:4541', 00H
	ORG $+2
$SG196566 DB	'C:\papa\MyGit\hyperion-zvector\channel.c:4543', 00H
	ORG $+2
$SG196576 DB	'C:\papa\MyGit\hyperion-zvector\channel.c:4611', 00H
	ORG $+2
$SG196580 DB	'C:\papa\MyGit\hyperion-zvector\channel.c:4629', 00H
	ORG $+2
$SG196581 DB	'C:\papa\MyGit\hyperion-zvector\channel.c:4630', 00H
	ORG $+2
$SG196582 DB	'C:\papa\MyGit\hyperion-zvector\channel.c:4636', 00H
	ORG $+2
$SG196583 DB	'C:\papa\MyGit\hyperion-zvector\channel.c:4637', 00H
	ORG $+2
$SG196591 DB	'HHC01309%s %1d:%04X CHAN: halt completed', 0aH, 00H
	ORG $+6
$SG196592 DB	'z900_execute_ccw_chain', 00H
	ORG $+1
$SG196593 DB	'C:\papa\MyGit\hyperion-zvector\channel.c', 00H
	ORG $+7
$SG196602 DB	'HHC01307%s %1d:%04X CHAN: attention completed', 0aH, 00H
	ORG $+1
$SG196603 DB	'z900_execute_ccw_chain', 00H
	ORG $+1
$SG196604 DB	'C:\papa\MyGit\hyperion-zvector\channel.c', 00H
	ORG $+7
$SG196613 DB	'z900_execute_ccw_chain', 00H
	ORG $+1
$SG196614 DB	'C:\papa\MyGit\hyperion-zvector\channel.c', 00H
	ORG $+7
$SG196646 DB	'C:\papa\MyGit\hyperion-zvector\channel.c:4990', 00H
	ORG $+2
$SG196647 DB	'C:\papa\MyGit\hyperion-zvector\channel.c:4991', 00H
	ORG $+2
$SG196656 DB	'HHC01310%s %1d:%04X CHAN: suspended', 0aH, 00H
	ORG $+3
$SG196657 DB	'z900_execute_ccw_chain', 00H
	ORG $+1
$SG196658 DB	'C:\papa\MyGit\hyperion-zvector\channel.c', 00H
	ORG $+7
$SG196660 DB	'C:\papa\MyGit\hyperion-zvector\channel.c:5067', 00H
	ORG $+2
$SG196661 DB	'C:\papa\MyGit\hyperion-zvector\channel.c:5068', 00H
	ORG $+2
$SG196664 DB	'C:\papa\MyGit\hyperion-zvector\channel.c:5080', 00H
	ORG $+2
$SG196665 DB	'C:\papa\MyGit\hyperion-zvector\channel.c:5081', 00H
	ORG $+2
$SG196693 DB	'C:\papa\MyGit\hyperion-zvector\channel.c:5163', 00H
	ORG $+2
$SG196699 DB	'HHC01320%s %1d:%04X CHAN: start I/O S/370 conversion to '
	DB	'asynchronous operation started', 0aH, 00H
$SG196700 DB	'z900_execute_ccw_chain', 00H
	ORG $+1
$SG196701 DB	'C:\papa\MyGit\hyperion-zvector\channel.c', 00H
	ORG $+7
$SG196702 DB	'C:\papa\MyGit\hyperion-zvector\channel.c:5193', 00H
	ORG $+2
$SG196705 DB	'C:\papa\MyGit\hyperion-zvector\channel.c:5217', 00H
	ORG $+2
$SG196706 DB	'C:\papa\MyGit\hyperion-zvector\channel.c:5229', 00H
	ORG $+2
$SG196712 DB	'HHC01306%s %1d:%04X CHAN: initial status interrupt', 0aH
	DB	00H
	ORG $+4
$SG196713 DB	'z900_execute_ccw_chain', 00H
	ORG $+1
$SG196714 DB	'C:\papa\MyGit\hyperion-zvector\channel.c', 00H
	ORG $+7
$SG196766 DB	'z900_execute_ccw_chain', 00H
	ORG $+1
$SG196767 DB	'C:\papa\MyGit\hyperion-zvector\channel.c', 00H
	ORG $+7
$SG196774 DB	'z900_execute_ccw_chain', 00H
	ORG $+1
$SG196775 DB	'C:\papa\MyGit\hyperion-zvector\channel.c', 00H
	ORG $+7
$SG196777 DB	'z900_execute_ccw_chain', 00H
	ORG $+1
$SG196778 DB	'C:\papa\MyGit\hyperion-zvector\channel.c', 00H
	ORG $+7
$SG196781 DB	'z900_execute_ccw_chain', 00H
	ORG $+1
$SG196782 DB	'C:\papa\MyGit\hyperion-zvector\channel.c', 00H
	ORG $+7
$SG196786 DB	'HHC01312%s %1d:%04X CHAN: stat %2.2X%2.2X, count %4.4X', 0aH
	DB	00H
$SG196787 DB	'z900_execute_ccw_chain', 00H
	ORG $+1
$SG196788 DB	'C:\papa\MyGit\hyperion-zvector\channel.c', 00H
	ORG $+7
$SG196793 DB	'HHC01313%s %1d:%04X CHAN: sense %2.2X%2.2X%2.2X%2.2X %2.'
	DB	'2X%2.2X%2.2X%2.2X %2.2X%2.2X%2.2X%2.2X %2.2X%2.2X%2.2X%2.2X %'
	DB	'2.2X%2.2X%2.2X%2.2X %2.2X%2.2X%2.2X%2.2X %2.2X%2.2X%2.2X%2.2X'
	DB	' %2.2X%2.2X%2.2X%2.2X', 0aH, 00H
	ORG $+7
$SG196794 DB	'z900_execute_ccw_chain', 00H
	ORG $+1
$SG196795 DB	'C:\papa\MyGit\hyperion-zvector\channel.c', 00H
	ORG $+7
$SG196798 DB	'z900_execute_ccw_chain', 00H
	ORG $+1
$SG196799 DB	'C:\papa\MyGit\hyperion-zvector\channel.c', 00H
	ORG $+7
$SG196810 DB	'C:\papa\MyGit\hyperion-zvector\channel.c:5809', 00H
	ORG $+2
$SG196811 DB	'C:\papa\MyGit\hyperion-zvector\channel.c:5810', 00H
	ORG $+2
$SG196822 DB	'C:\papa\MyGit\hyperion-zvector\channel.c:5876', 00H
	ORG $+2
$SG196823 DB	'C:\papa\MyGit\hyperion-zvector\channel.c:5877', 00H
	ORG $+2
$SG196825 DB	'C:\papa\MyGit\hyperion-zvector\channel.c:5885', 00H
	ORG $+2
$SG196826 DB	'C:\papa\MyGit\hyperion-zvector\channel.c:5886', 00H
	ORG $+2
$SG196948 DB	'C:\papa\MyGit\hyperion-zvector\channel.c:6075', 00H
	ORG $+2
$SG196954 DB	'C:\papa\MyGit\hyperion-zvector\channel.c:6128', 00H
	ORG $+2
$SG196957 DB	'z900_present_io_interrupt', 00H
	ORG $+6
$SG196958 DB	'C:\papa\MyGit\hyperion-zvector\channel.c', 00H
	ORG $+7
$SG196959 DB	'%s(%d) : warning HHC90999W : *** Assertion Failed! *** f'
	DB	'unction: %s', 0aH, 00H
	ORG $+3
$SG196961 DB	'z900_present_io_interrupt', 00H
	ORG $+6
$SG196962 DB	'C:\papa\MyGit\hyperion-zvector\channel.c', 00H
	ORG $+7
$SG196969 DB	'C:\papa\MyGit\hyperion-zvector\channel.c:6171', 00H
	ORG $+10
$SG196963 DB	'%s(%d) : warning HHC90999W : *** Assertion Failed! *** f'
	DB	'unction: %s', 0aH, 00H
	ORG $+3
$SG196970 DB	'C:\papa\MyGit\hyperion-zvector\channel.c:6175', 00H
	ORG $+2
$SG196971 DB	'C:\papa\MyGit\hyperion-zvector\channel.c:6178', 00H
	ORG $+2
$SG196972 DB	'C:\papa\MyGit\hyperion-zvector\channel.c:6186', 00H
	ORG $+2
$SG196975 DB	'C:\papa\MyGit\hyperion-zvector\channel.c:6193', 00H
	ORG $+2
$SG196976 DB	'C:\papa\MyGit\hyperion-zvector\channel.c:6194', 00H
	ORG $+2
$SG196981 DB	'C:\papa\MyGit\hyperion-zvector\channel.c:6234', 00H
	ORG $+2
$SG196989 DB	'C:\papa\MyGit\hyperion-zvector\channel.c:6283', 00H
	ORG $+2
$SG196994 DB	'C:\papa\MyGit\hyperion-zvector\channel.c:6316', 00H
	ORG $+2
$SG196995 DB	'C:\papa\MyGit\hyperion-zvector\channel.c:6341', 00H
	ORG $+2
$SG197049 DB	'C:\papa\MyGit\hyperion-zvector\channel.c:6377', 00H
	ORG $+2
$SG197053 DB	'C:\papa\MyGit\hyperion-zvector\channel.c:6407', 00H
	ORG $+2
$SG197055 DB	'C:\papa\MyGit\hyperion-zvector\channel.c:6417', 00H
	ORG $+2
$SG197061 DB	'z900_present_zone_io_interrupt', 00H
	ORG $+1
$SG197062 DB	'C:\papa\MyGit\hyperion-zvector\channel.c', 00H
	ORG $+7
$SG197065 DB	'z900_present_zone_io_interrupt', 00H
	ORG $+9
$SG197063 DB	'%s(%d) : warning HHC90999W : *** Assertion Failed! *** f'
	DB	'unction: %s', 0aH, 00H
	ORG $+3
$SG197066 DB	'C:\papa\MyGit\hyperion-zvector\channel.c', 00H
	ORG $+7
$SG197069 DB	'C:\papa\MyGit\hyperion-zvector\channel.c:6448', 00H
	ORG $+10
$SG197067 DB	'%s(%d) : warning HHC90999W : *** Assertion Failed! *** f'
	DB	'unction: %s', 0aH, 00H
	ORG $+3
$SG197115 DB	'C:\papa\MyGit\hyperion-zvector\channel.c:6545', 00H
	ORG $+2
$SG197116 DB	'C:\papa\MyGit\hyperion-zvector\channel.c:6547', 00H
	ORG $+2
$SG197146 DB	'C:\papa\MyGit\hyperion-zvector\channel.c:6608', 00H
	ORG $+2
$SG197147 DB	'C:\papa\MyGit\hyperion-zvector\channel.c:6610', 00H
	ORG $+2
$SG197170 DB	'C:\papa\MyGit\hyperion-zvector\channel.c:6664', 00H
	ORG $+2
$SG197171 DB	'C:\papa\MyGit\hyperion-zvector\channel.c:6666', 00H
	ORG $+2
$SG197208 DB	'C:\papa\MyGit\hyperion-zvector\channel.c:6677', 00H
_DATA	ENDS
;	COMDAT xdata
xdata	SEGMENT
$unwind$z900_or_dev_storage_key DD 011301H
	DD	04213H
xdata	ENDS
;	COMDAT xdata
xdata	SEGMENT
$unwind$z900_get_dev_storage_key DD 010e01H
	DD	0420eH
xdata	ENDS
;	COMDAT xdata
xdata	SEGMENT
$unwind$z900_or_dev_4K_storage_key DD 011301H
	DD	04213H
xdata	ENDS
;	COMDAT xdata
xdata	SEGMENT
$unwind$z900_get_dev_4K_storage_key DD 010e01H
	DD	0420eH
xdata	ENDS
;	COMDAT xdata
xdata	SEGMENT
$unwind$z900__or_dev_storage_key DD 011801H
	DD	08218H
xdata	ENDS
;	COMDAT xdata
xdata	SEGMENT
$unwind$z900__get_dev_storage_key DD 011301H
	DD	06213H
xdata	ENDS
;	COMDAT xdata
xdata	SEGMENT
$unwind$s390_or_dev_storage_key DD 011301H
	DD	04213H
xdata	ENDS
;	COMDAT xdata
xdata	SEGMENT
$unwind$s390_get_dev_storage_key DD 010e01H
	DD	0420eH
xdata	ENDS
;	COMDAT xdata
xdata	SEGMENT
$unwind$s390_or_dev_4K_storage_key DD 011301H
	DD	04213H
xdata	ENDS
;	COMDAT xdata
xdata	SEGMENT
$unwind$s390_get_dev_4K_storage_key DD 010e01H
	DD	0420eH
xdata	ENDS
;	COMDAT xdata
xdata	SEGMENT
$unwind$s390__or_dev_storage_key DD 011801H
	DD	08218H
xdata	ENDS
;	COMDAT xdata
xdata	SEGMENT
$unwind$s390__get_dev_storage_key DD 011301H
	DD	06213H
xdata	ENDS
;	COMDAT xdata
xdata	SEGMENT
$unwind$s370_or_dev_storage_key DD 011301H
	DD	04213H
xdata	ENDS
;	COMDAT xdata
xdata	SEGMENT
$unwind$s370_get_dev_storage_key DD 010e01H
	DD	0420eH
xdata	ENDS
;	COMDAT xdata
xdata	SEGMENT
$unwind$s370_or_dev_2K_storage_key DD 011301H
	DD	04213H
xdata	ENDS
;	COMDAT xdata
xdata	SEGMENT
$unwind$s370_get_dev_2K_storage_key DD 010e01H
	DD	0420eH
xdata	ENDS
;	COMDAT xdata
xdata	SEGMENT
$unwind$s370__or_dev_storage_key DD 011801H
	DD	08218H
xdata	ENDS
;	COMDAT xdata
xdata	SEGMENT
$unwind$s370__get_dev_storage_key DD 011301H
	DD	06213H
xdata	ENDS
;	COMDAT xdata
xdata	SEGMENT
$unwind$_get_dev_storekey_ptr DD 011301H
	DD	02213H
xdata	ENDS
;	COMDAT xdata
xdata	SEGMENT
$unwind$fetch_dw_noswap DD 010901H
	DD	02209H
xdata	ENDS
;	COMDAT xdata
xdata	SEGMENT
$unwind$fetch_fw_noswap DD 010901H
	DD	02209H
xdata	ENDS
;	COMDAT xdata
xdata	SEGMENT
$unwind$fetch_hw_noswap DD 010901H
	DD	02209H
xdata	ENDS
voltbl	SEGMENT
_volmd	DD	0ffffffffH
	DDSymXIndex: 	FLAT:__clear_page
	DD	095H
_volmd	DD	0ffffffffH
	DDSymXIndex: 	FLAT:z900_present_io_interrupt
	DD	025H
	DD	0901H
_volmd	DD	0ffffffffH
	DDSymXIndex: 	FLAT:z900_startio
	DD	022H
	DD	0771H
_volmd	DD	0ffffffffH
	DDSymXIndex: 	FLAT:s390_present_io_interrupt
	DD	025H
	DD	069eH
_volmd	DD	0ffffffffH
	DDSymXIndex: 	FLAT:s390_startio
	DD	022H
	DD	0771H
_volmd	DD	0ffffffffH
	DDSymXIndex: 	FLAT:_display_scsw
	DD	02bH
	DD	031eH
_volmd	DD	0ffffffffH
	DDSymXIndex: 	FLAT:_display_idaw
	DD	024H
	DD	04dcH
_volmd	DD	0ffffffffH
	DDSymXIndex: 	FLAT:_display_sense
	DD	025H
	DD	0156H
_volmd	DD	0ffffffffH
	DDSymXIndex: 	FLAT:_display_ccw
	DD	027H
	DD	0442H
_volmd	DD	0ffffffffH
	DDSymXIndex: 	FLAT:format_iobuf_data
	DD	024H
	DD	0168H
_volmd	DD	0ffffffffH
	DDSymXIndex: 	FLAT:device_thread
	DD	013H
	DD	04e1H
_volmd	DD	0ffffffffH
	DDSymXIndex: 	FLAT:s370_present_io_interrupt
	DD	025H
	DD	069eH
_volmd	DD	0ffffffffH
	DDSymXIndex: 	FLAT:testio
	DD	020H
	DD	02f6H
_volmd	DD	0ffffffffH
	DDSymXIndex: 	FLAT:z900_execute_ccw_chain
	DD	037H
	DD	037f6H
_volmd	DD	0ffffffffH
	DDSymXIndex: 	FLAT:s390_execute_ccw_chain
	DD	037H
	DD	03744H
_volmd	DD	0ffffffffH
	DDSymXIndex: 	FLAT:s370_execute_ccw_chain
	DD	037H
	DD	031e3H
_volmd	DD	0ffffffffH
	DDSymXIndex: 	FLAT:s370_startio
	DD	022H
	DD	0771H
voltbl	ENDS
xdata	SEGMENT
$unwind$DebuggerTrace DD 011801H
	DD	0a218H
$unwind$s370_startio DD 042a19H
	DD	0250118H
	DD	060107011H
	DD	imagerel __GSHandlerCheck
	DD	0110H
$unwind$s370_execute_ccw_chain DD 0a3e19H
	DD	02835011eH
	DD	0e00ff011H
	DD	0c00bd00dH
	DD	060087009H
	DD	050063007H
	DD	imagerel __GSHandlerCheck
	DD	013044H
	DD	01150H
	DD	01000H
$unwind$s390_execute_ccw_chain DD 0a3e19H
	DD	02835011eH
	DD	0e00ff011H
	DD	0c00bd00dH
	DD	060087009H
	DD	050063007H
	DD	imagerel __GSHandlerCheck
	DD	013044H
	DD	01150H
	DD	01000H
$unwind$z900_execute_ccw_chain DD 0a3e19H
	DD	02835011eH
	DD	0e00ff011H
	DD	0c00bd00dH
	DD	060087009H
	DD	050063007H
	DD	imagerel __GSHandlerCheck
	DD	013044H
	DD	01150H
	DD	01000H
$unwind$stchan_id DD 010e01H
	DD	0820eH
$unwind$testch DD 010e01H
	DD	0220eH
$unwind$testio DD 022819H
	DD	0190116H
	DD	imagerel __GSHandlerCheck
	DD	0b0H
$unwind$test_subchan DD 011301H
	DD	0e213H
$unwind$cancel_subchan DD 010e01H
	DD	0620eH
$unwind$clear_subchan DD 010e01H
	DD	0c20eH
$unwind$halt_subchan DD 021101H
	DD	0110111H
$unwind$haltio DD 011301H
	DD	0e213H
$unwind$resume_subchan DD 010e01H
	DD	0c20eH
$unwind$s370_present_io_interrupt DD 022d19H
	DD	01f011bH
	DD	imagerel __GSHandlerCheck
	DD	0e0H
$unwind$s370_present_zone_io_interrupt DD 011801H
	DD	0a218H
$unwind$io_reset DD 010401H
	DD	08204H
$unwind$chp_reset DD 010c01H
	DD	0620cH
$unwind$channelset_reset DD 010901H
	DD	06209H
$unwind$shared_iowait DD 010901H
	DD	06209H
$unwind$device_attention DD 010d01H
	DD	0620dH
$unwind$s370_device_attention DD 010d01H
	DD	0e20dH
$unwind$default_sns DD 021b01H
	DD	025011bH
$unwind$Queue_IO_Interrupt DD 011201H
	DD	04212H
$unwind$Queue_IO_Interrupt_QLocked DD 011201H
	DD	02212H
$unwind$Dequeue_IO_Interrupt DD 010e01H
	DD	0620eH
$unwind$Dequeue_IO_Interrupt_QLocked DD 010e01H
	DD	0220eH
$unwind$Update_IC_IOPENDING DD 010401H
	DD	04204H
$unwind$Update_IC_IOPENDING_QLocked DD 010401H
	DD	0a204H
$unwind$__clear_page DD 010e01H
	DD	0420eH
$unwind$__clear_io_buffer DD 020f01H
	DD	0700b720fH
$unwind$store_scsw_as_csw DD 010e01H
	DD	0820eH
$unwind$wakeup_cpu DD 010e01H
	DD	0420eH
$unwind$wakeup_cpu_mask DD 010e01H
	DD	0a20eH
$unwind$Interrupt_Lock_Obtained DD 010e01H
	DD	0420eH
$unwind$Obtain_Interrupt_Lock DD 010e01H
	DD	0420eH
$unwind$Release_Interrupt_Lock DD 010e01H
	DD	0420eH
$unwind$is_ch9oflow DD 011201H
	DD	06212H
$unwind$call_execute_ccw_chain DD 010d01H
	DD	0620dH
$unwind$device_thread DD 011819H
	DD	0e209H
	DD	imagerel __GSHandlerCheck
	DD	068H
$unwind$schedule_ioq DD 010e01H
	DD	0620eH
$unwind$subchannel_interrupt_queue_cleanup DD 010901H
	DD	02209H
$unwind$test_subchan_locked DD 031a01H
	DD	07016c21aH
	DD	06015H
$unwind$IS_CCW_IMMEDIATE DD 010d01H
	DD	0220dH
$unwind$set_device_busy DD 010901H
	DD	04209H
$unwind$clear_subchannel_busy DD 010901H
	DD	04209H
$unwind$clear_device_busy DD 010901H
	DD	04209H
$unwind$iobuf_create DD 010801H
	DD	06208H
$unwind$iobuf_validate DD 010901H
	DD	02209H
$unwind$iobuf_destroy DD 010901H
	DD	06209H
$unwind$iobuf_reallocate DD 030f01H
	DD	0700b820fH
	DD	0600aH
$unwind$BytesToEndOfStorage DD 010e01H
	DD	0220eH
$unwind$scsw_clear_fc_Nc DD 010901H
	DD	04209H
$unwind$scsw_clear_ac_Nr DD 010901H
	DD	04209H
$unwind$AIPSX DD 010901H
	DD	02209H
$unwind$queue_io_interrupt_and_update_status_locked DD 010d01H
	DD	0420dH
$unwind$queue_io_interrupt_and_update_status DD 010d01H
	DD	0620dH
$unwind$_format_data DD 0a2601H
	DD	0190126H
	DD	0e01df01fH
	DD	0c019d01bH
	DD	060167017H
	DD	030145015H
$unwind$format_iobuf_data DD 032919H
	DD	07016e21aH
	DD	06015H
	DD	imagerel __GSHandlerCheck
	DD	068H
$unwind$_display_ccw DD 042f19H
	DD	027011dH
	DD	030157016H
	DD	imagerel __GSHandlerCheck
	DD	0120H
$unwind$_display_sense DD 022d19H
	DD	01f011bH
	DD	imagerel __GSHandlerCheck
	DD	0e0H
$unwind$_display_idaw DD 022c19H
	DD	025011aH
	DD	imagerel __GSHandlerCheck
	DD	0110H
$unwind$_display_csw DD 041d01H
	DD	017011dH
	DD	030157016H
$unwind$_display_scsw DD 073319H
	DD	0200121H
	DD	07018e01aH
	DD	050166017H
	DD	03015H
	DD	imagerel __GSHandlerCheck
	DD	0f8H
$unwind$test_subchan_clear DD 010e01H
	DD	0620eH
$unwind$perform_clear_subchan DD 010901H
	DD	0c209H
$unwind$perform_halt_and_release_lock DD 010901H
	DD	0c209H
$unwind$perform_halt DD 010901H
	DD	04209H
$unwind$device_reset DD 020a01H
	DD	07006520aH
$unwind$create_device_thread DD 010401H
	DD	0c204H
$unwind$ScheduleIORequest DD 010901H
	DD	0a209H
$unwind$s370_raise_pci DD 011701H
	DD	06217H
$unwind$s370_fetch_ccw DD 011701H
	DD	06217H
$unwind$s370_fetch_idaw DD 011701H
	DD	0a217H
$unwind$s370_copy_iobuf DD 041d01H
	DD	01f011dH
	DD	060157016H
$unwind$execute_ccw_chain_fast_return DD 011301H
	DD	04213H
$unwind$s370_interrupt_enabled DD 010e01H
	DD	0220eH
$unwind$s390_startio DD 042a19H
	DD	0250118H
	DD	060107011H
	DD	imagerel __GSHandlerCheck
	DD	0110H
$unwind$s390_present_io_interrupt DD 022d19H
	DD	01f011bH
	DD	imagerel __GSHandlerCheck
	DD	0e0H
$unwind$s390_present_zone_io_interrupt DD 011801H
	DD	0a218H
$unwind$s390_raise_pci DD 011701H
	DD	06217H
$unwind$s390_fetch_ccw DD 011701H
	DD	06217H
$unwind$s390_fetch_idaw DD 011701H
	DD	0a217H
$unwind$s390_copy_iobuf DD 041d01H
	DD	01f011dH
	DD	060157016H
$unwind$s390_device_attention DD 010d01H
	DD	0e20dH
$unwind$s390_interrupt_enabled DD 010e01H
	DD	0220eH
$unwind$z900_startio DD 042a19H
	DD	0250118H
	DD	060107011H
	DD	imagerel __GSHandlerCheck
	DD	0110H
$unwind$z900_present_io_interrupt DD 022d19H
	DD	023011bH
	DD	imagerel __GSHandlerCheck
	DD	0100H
$unwind$z900_present_zone_io_interrupt DD 011801H
	DD	0a218H
$unwind$z900_raise_pci DD 011701H
	DD	06217H
$unwind$z900_fetch_ccw DD 011701H
	DD	06217H
$unwind$z900_fetch_idaw DD 011701H
	DD	0a217H
$unwind$z900_fetch_midaw DD 011701H
	DD	0a217H
$unwind$z900_copy_iobuf DD 041d01H
	DD	023011dH
	DD	060157016H
$unwind$z900_device_attention DD 010d01H
	DD	0e20dH
$unwind$z900_interrupt_enabled DD 010e01H
	DD	0220eH
xdata	ENDS
;	COMDAT xdata
xdata	SEGMENT
$unwind$_vsnprintf_s DD 011801H
	DD	06218H
xdata	ENDS
;	COMDAT xdata
xdata	SEGMENT
$unwind$_vsnprintf_s_l DD 011801H
	DD	0a218H
xdata	ENDS
; Function compile flags: /Odtp
; File C:\papa\MyGit\hyperion-zvector\channel.c
_TEXT	SEGMENT
tv133 = 0
tv145 = 4
i$ = 8
regs$ = 32
dev$ = 40
z900_interrupt_enabled PROC

; 5914 : {

  00000	48 89 54 24 10	 mov	 QWORD PTR [rsp+16], rdx
  00005	48 89 4c 24 08	 mov	 QWORD PTR [rsp+8], rcx
  0000a	48 83 ec 18	 sub	 rsp, 24

; 5915 : int     i;                              /* Interruption subclass     */
; 5916 : 
; 5917 :     /* Ignore this device if subchannel not valid */
; 5918 :     if (!(dev->pmcw.flag5 & PMCW5_V))

  0000e	48 8b 44 24 28	 mov	 rax, QWORD PTR dev$[rsp]
  00013	0f b6 80 f1 02
	00 00		 movzx	 eax, BYTE PTR [rax+753]
  0001a	83 e0 01	 and	 eax, 1
  0001d	85 c0		 test	 eax, eax
  0001f	75 07		 jne	 SHORT $LN2@z900_inter

; 5919 :         return 0;

  00021	33 c0		 xor	 eax, eax
  00023	e9 27 01 00 00	 jmp	 $LN1@z900_inter
$LN2@z900_inter:

; 5920 : 
; 5921 : #if defined(_FEATURE_IO_ASSIST)
; 5922 :     /* For I/O Assist the zone must match the guest zone */
; 5923 :     if(SIE_MODE(regs) && regs->siebk->zone != dev->pmcw.zone)

  00028	48 8b 44 24 20	 mov	 rax, QWORD PTR regs$[rsp]
  0002d	8b 80 c8 08 00
	00		 mov	 eax, DWORD PTR [rax+2248]
  00033	d1 e8		 shr	 eax, 1
  00035	83 e0 01	 and	 eax, 1
  00038	85 c0		 test	 eax, eax
  0003a	74 27		 je	 SHORT $LN3@z900_inter
  0003c	48 8b 44 24 20	 mov	 rax, QWORD PTR regs$[rsp]
  00041	48 8b 80 88 08
	00 00		 mov	 rax, QWORD PTR [rax+2184]
  00048	0f b6 40 74	 movzx	 eax, BYTE PTR [rax+116]
  0004c	48 8b 4c 24 28	 mov	 rcx, QWORD PTR dev$[rsp]
  00051	0f b6 89 04 03
	00 00		 movzx	 ecx, BYTE PTR [rcx+772]
  00058	3b c1		 cmp	 eax, ecx
  0005a	74 07		 je	 SHORT $LN3@z900_inter

; 5924 :         return 0;

  0005c	33 c0		 xor	 eax, eax
  0005e	e9 ec 00 00 00	 jmp	 $LN1@z900_inter
$LN3@z900_inter:

; 5925 : #endif
; 5926 : 
; 5927 : #if defined(_FEATURE_IO_ASSIST)
; 5928 :     /* The interrupt interlock control bit must be on
; 5929 :        if not we must intercept */
; 5930 :     if(SIE_MODE(regs) && !(dev->pmcw.flag27 & PMCW27_I))

  00063	48 8b 44 24 20	 mov	 rax, QWORD PTR regs$[rsp]
  00068	8b 80 c8 08 00
	00		 mov	 eax, DWORD PTR [rax+2248]
  0006e	d1 e8		 shr	 eax, 1
  00070	83 e0 01	 and	 eax, 1
  00073	85 c0		 test	 eax, eax
  00075	74 1f		 je	 SHORT $LN4@z900_inter
  00077	48 8b 44 24 28	 mov	 rax, QWORD PTR dev$[rsp]
  0007c	0f b6 80 07 03
	00 00		 movzx	 eax, BYTE PTR [rax+775]
  00083	25 80 00 00 00	 and	 eax, 128		; 00000080H
  00088	85 c0		 test	 eax, eax
  0008a	75 0a		 jne	 SHORT $LN4@z900_inter

; 5931 :         return SIE_INTERCEPT_IOINT;

  0008c	b8 f1 ff ff ff	 mov	 eax, -15
  00091	e9 b9 00 00 00	 jmp	 $LN1@z900_inter
$LN4@z900_inter:

; 5932 : #endif
; 5933 : 
; 5934 : #ifdef FEATURE_S370_CHANNEL
; 5935 : 
; 5936 : #if defined(FEATURE_CHANNEL_SWITCHING)
; 5937 :     /* Is this device on a channel connected to this CPU? */
; 5938 :     if(
; 5939 : #if defined(_FEATURE_IO_ASSIST)
; 5940 :        !SIE_MODE(regs) &&
; 5941 : #endif
; 5942 :        regs->chanset != dev->chanset)
; 5943 :         return 0;
; 5944 : #endif /*defined(FEATURE_CHANNEL_SWITCHING)*/
; 5945 : 
; 5946 :     /* Isolate the channel number */
; 5947 :     i = dev->devnum >> 8;
; 5948 :     if (!ECMODE(&regs->psw) && i < 6)
; 5949 :     {
; 5950 : #if defined(_FEATURE_IO_ASSIST)
; 5951 :         /* We must always intercept in BC mode */
; 5952 :         if(SIE_MODE(regs))
; 5953 :             return SIE_INTERCEPT_IOINT;
; 5954 : #endif
; 5955 :         /* For BC mode channels 0-5, test system mask bits 0-5 */
; 5956 :         if ((regs->psw.sysmask & (0x80 >> i)) == 0)
; 5957 :             return 0;
; 5958 :     }
; 5959 :     else
; 5960 :     {
; 5961 :         /* For EC mode and channels 6-31, test system mask bit 6 */
; 5962 :         if ((regs->psw.sysmask & PSW_IOMASK) == 0)
; 5963 :             return 0;
; 5964 : 
; 5965 :         /* If I/O mask is enabled, test channel masks in CR2 */
; 5966 :         if (i > 31) i = 31;
; 5967 :         if ((CHANNEL_MASKS(regs) & (0x80000000 >> i)) == 0)
; 5968 :             return
; 5969 : #if defined(_FEATURE_IO_ASSIST)
; 5970 :                    SIE_MODE(regs) ? SIE_INTERCEPT_IOINTP :
; 5971 : #endif
; 5972 :                                                            0;
; 5973 :     }
; 5974 : #endif /*FEATURE_S370_CHANNEL*/
; 5975 : 
; 5976 : #ifdef FEATURE_CHANNEL_SUBSYSTEM
; 5977 :     /* Ignore this device if subchannel not enabled */
; 5978 :     if (!(dev->pmcw.flag5 & PMCW5_E))

  00096	48 8b 44 24 28	 mov	 rax, QWORD PTR dev$[rsp]
  0009b	0f b6 80 f1 02
	00 00		 movzx	 eax, BYTE PTR [rax+753]
  000a2	25 80 00 00 00	 and	 eax, 128		; 00000080H
  000a7	85 c0		 test	 eax, eax
  000a9	75 07		 jne	 SHORT $LN5@z900_inter

; 5979 :         return 0;

  000ab	33 c0		 xor	 eax, eax
  000ad	e9 9d 00 00 00	 jmp	 $LN1@z900_inter
$LN5@z900_inter:

; 5980 : 
; 5981 :     /* Isolate the interruption subclass */
; 5982 :     i =

  000b2	48 8b 44 24 20	 mov	 rax, QWORD PTR regs$[rsp]
  000b7	8b 80 c8 08 00
	00		 mov	 eax, DWORD PTR [rax+2248]
  000bd	d1 e8		 shr	 eax, 1
  000bf	83 e0 01	 and	 eax, 1
  000c2	85 c0		 test	 eax, eax
  000c4	74 14		 je	 SHORT $LN8@z900_inter
  000c6	48 8b 44 24 28	 mov	 rax, QWORD PTR dev$[rsp]
  000cb	0f b6 80 05 03
	00 00		 movzx	 eax, BYTE PTR [rax+773]
  000d2	83 e0 07	 and	 eax, 7
  000d5	89 04 24	 mov	 DWORD PTR tv133[rsp], eax
  000d8	eb 15		 jmp	 SHORT $LN9@z900_inter
$LN8@z900_inter:
  000da	48 8b 44 24 28	 mov	 rax, QWORD PTR dev$[rsp]
  000df	0f b6 80 f0 02
	00 00		 movzx	 eax, BYTE PTR [rax+752]
  000e6	83 e0 38	 and	 eax, 56			; 00000038H
  000e9	c1 f8 03	 sar	 eax, 3
  000ec	89 04 24	 mov	 DWORD PTR tv133[rsp], eax
$LN9@z900_inter:
  000ef	8b 04 24	 mov	 eax, DWORD PTR tv133[rsp]
  000f2	89 44 24 08	 mov	 DWORD PTR i$[rsp], eax

; 5983 : #if defined(_FEATURE_IO_ASSIST)
; 5984 :         /* For I/O Assisted devices use the guest (V)ISC */
; 5985 :         SIE_MODE(regs) ? (dev->pmcw.flag25 & PMCW25_VISC) :
; 5986 : #endif
; 5987 :         ((dev->pmcw.flag4 & PMCW4_ISC) >> 3);
; 5988 : 
; 5989 :     /* Test interruption subclass mask bit in CR6 */
; 5990 :     if ((regs->CR_L(6) & (0x80000000 >> i)) == 0)

  000f6	b8 08 00 00 00	 mov	 eax, 8
  000fb	48 6b c0 07	 imul	 rax, rax, 7
  000ff	8b 4c 24 08	 mov	 ecx, DWORD PTR i$[rsp]
  00103	ba 00 00 00 80	 mov	 edx, -2147483648	; 80000000H
  00108	d3 ea		 shr	 edx, cl
  0010a	8b ca		 mov	 ecx, edx
  0010c	48 8b 54 24 20	 mov	 rdx, QWORD PTR regs$[rsp]
  00111	8b 84 02 00 06
	00 00		 mov	 eax, DWORD PTR [rdx+rax+1536]
  00118	23 c1		 and	 eax, ecx
  0011a	85 c0		 test	 eax, eax
  0011c	75 2c		 jne	 SHORT $LN6@z900_inter

; 5991 :         return

  0011e	48 8b 44 24 20	 mov	 rax, QWORD PTR regs$[rsp]
  00123	8b 80 c8 08 00
	00		 mov	 eax, DWORD PTR [rax+2248]
  00129	d1 e8		 shr	 eax, 1
  0012b	83 e0 01	 and	 eax, 1
  0012e	85 c0		 test	 eax, eax
  00130	74 0a		 je	 SHORT $LN10@z900_inter
  00132	c7 44 24 04 f0
	ff ff ff	 mov	 DWORD PTR tv145[rsp], -16
  0013a	eb 08		 jmp	 SHORT $LN11@z900_inter
$LN10@z900_inter:
  0013c	c7 44 24 04 00
	00 00 00	 mov	 DWORD PTR tv145[rsp], 0
$LN11@z900_inter:
  00144	8b 44 24 04	 mov	 eax, DWORD PTR tv145[rsp]
  00148	eb 05		 jmp	 SHORT $LN1@z900_inter
$LN6@z900_inter:

; 5992 : #if defined(_FEATURE_IO_ASSIST)
; 5993 :                    SIE_MODE(regs) ? SIE_INTERCEPT_IOINTP :
; 5994 : #endif
; 5995 :                                                            0;
; 5996 : #endif /*FEATURE_CHANNEL_SUBSYSTEM*/
; 5997 : 
; 5998 :     /* Interrupts are enabled for this device */
; 5999 :     return SIE_NO_INTERCEPT;

  0014a	b8 ff ff ff ff	 mov	 eax, -1
$LN1@z900_inter:

; 6000 : } /* end function interrupt_enabled */

  0014f	48 83 c4 18	 add	 rsp, 24
  00153	c3		 ret	 0
z900_interrupt_enabled ENDP
_TEXT	ENDS
; Function compile flags: /Odtp
; File C:\papa\MyGit\hyperion-zvector\channel.c
_TEXT	SEGMENT
tv181 = 80
tv187 = 84
rc$1 = 88
tv213 = 92
tv219 = 96
dev$ = 128
unitstat$ = 136
z900_device_attention PROC

; 4066 : {

$LN24:
  00000	88 54 24 10	 mov	 BYTE PTR [rsp+16], dl
  00004	48 89 4c 24 08	 mov	 QWORD PTR [rsp+8], rcx
  00009	48 83 ec 78	 sub	 rsp, 120		; 00000078H

; 4067 :     OBTAIN_INTLOCK(NULL);

  0000d	48 8d 15 00 00
	00 00		 lea	 rdx, OFFSET FLAT:$SG196363
  00014	33 c9		 xor	 ecx, ecx
  00016	e8 00 00 00 00	 call	 Obtain_Interrupt_Lock

; 4068 :     obtain_lock( &dev->lock );

  0001b	48 8b 84 24 80
	00 00 00	 mov	 rax, QWORD PTR dev$[rsp]
  00023	48 83 c0 38	 add	 rax, 56			; 00000038H
  00027	48 8d 15 00 00
	00 00		 lea	 rdx, OFFSET FLAT:$SG196364
  0002e	48 8b c8	 mov	 rcx, rax
  00031	ff 15 00 00 00
	00		 call	 QWORD PTR __imp_hthread_obtain_lock

; 4069 : 
; 4070 :     if (dev->hnd->attention)

  00037	48 8b 84 24 80
	00 00 00	 mov	 rax, QWORD PTR dev$[rsp]
  0003f	48 8b 80 90 02
	00 00		 mov	 rax, QWORD PTR [rax+656]
  00046	48 83 78 78 00	 cmp	 QWORD PTR [rax+120], 0
  0004b	74 1a		 je	 SHORT $LN2@z900_devic

; 4071 :         dev->hnd->attention( dev );

  0004d	48 8b 84 24 80
	00 00 00	 mov	 rax, QWORD PTR dev$[rsp]
  00055	48 8b 80 90 02
	00 00		 mov	 rax, QWORD PTR [rax+656]
  0005c	48 8b 8c 24 80
	00 00 00	 mov	 rcx, QWORD PTR dev$[rsp]
  00064	ff 50 78	 call	 QWORD PTR [rax+120]
$LN2@z900_devic:

; 4072 : 
; 4073 : #ifdef FEATURE_CHANNEL_SUBSYSTEM
; 4074 :     /* If subchannel not valid and enabled, do not present interrupt */
; 4075 :     if (0
; 4076 :         || (dev->pmcw.flag5 & PMCW5_V) == 0
; 4077 :         || (dev->pmcw.flag5 & PMCW5_E) == 0

  00067	33 c0		 xor	 eax, eax
  00069	85 c0		 test	 eax, eax
  0006b	75 2e		 jne	 SHORT $LN4@z900_devic
  0006d	48 8b 84 24 80
	00 00 00	 mov	 rax, QWORD PTR dev$[rsp]
  00075	0f b6 80 f1 02
	00 00		 movzx	 eax, BYTE PTR [rax+753]
  0007c	83 e0 01	 and	 eax, 1
  0007f	85 c0		 test	 eax, eax
  00081	74 18		 je	 SHORT $LN4@z900_devic
  00083	48 8b 84 24 80
	00 00 00	 mov	 rax, QWORD PTR dev$[rsp]
  0008b	0f b6 80 f1 02
	00 00		 movzx	 eax, BYTE PTR [rax+753]
  00092	25 80 00 00 00	 and	 eax, 128		; 00000080H
  00097	85 c0		 test	 eax, eax
  00099	75 34		 jne	 SHORT $LN3@z900_devic
$LN4@z900_devic:

; 4078 :     )
; 4079 :     {
; 4080 :         release_lock( &dev->lock );

  0009b	48 8b 84 24 80
	00 00 00	 mov	 rax, QWORD PTR dev$[rsp]
  000a3	48 83 c0 38	 add	 rax, 56			; 00000038H
  000a7	48 8d 15 00 00
	00 00		 lea	 rdx, OFFSET FLAT:$SG196368
  000ae	48 8b c8	 mov	 rcx, rax
  000b1	ff 15 00 00 00
	00		 call	 QWORD PTR __imp_hthread_release_lock

; 4081 :         RELEASE_INTLOCK(NULL);

  000b7	48 8d 15 00 00
	00 00		 lea	 rdx, OFFSET FLAT:$SG196369
  000be	33 c9		 xor	 ecx, ecx
  000c0	e8 00 00 00 00	 call	 Release_Interrupt_Lock

; 4082 :         return 3;

  000c5	b8 03 00 00 00	 mov	 eax, 3
  000ca	e9 52 04 00 00	 jmp	 $LN1@z900_devic
$LN3@z900_devic:

; 4083 :     }
; 4084 : #endif /*FEATURE_CHANNEL_SUBSYSTEM*/
; 4085 : 
; 4086 : 
; 4087 :     /* If device is already busy or interrupt pending */
; 4088 :     if (0
; 4089 :         || dev->busy
; 4090 :         || IOPENDING( dev )
; 4091 :         || (dev->scsw.flag3 & SCSW3_SC_PEND)

  000cf	33 c0		 xor	 eax, eax
  000d1	85 c0		 test	 eax, eax
  000d3	0f 85 92 00 00
	00		 jne	 $LN6@z900_devic
  000d9	48 8b 84 24 80
	00 00 00	 mov	 rax, QWORD PTR dev$[rsp]
  000e1	8b 80 f8 05 00
	00		 mov	 eax, DWORD PTR [rax+1528]
  000e7	c1 e8 13	 shr	 eax, 19
  000ea	83 e0 01	 and	 eax, 1
  000ed	85 c0		 test	 eax, eax
  000ef	75 7a		 jne	 SHORT $LN6@z900_devic
  000f1	48 8b 84 24 80
	00 00 00	 mov	 rax, QWORD PTR dev$[rsp]
  000f9	8b 80 f8 05 00
	00		 mov	 eax, DWORD PTR [rax+1528]
  000ff	c1 e8 16	 shr	 eax, 22
  00102	83 e0 01	 and	 eax, 1
  00105	85 c0		 test	 eax, eax
  00107	75 62		 jne	 SHORT $LN6@z900_devic
  00109	48 8b 84 24 80
	00 00 00	 mov	 rax, QWORD PTR dev$[rsp]
  00111	8b 80 f8 05 00
	00		 mov	 eax, DWORD PTR [rax+1528]
  00117	c1 e8 17	 shr	 eax, 23
  0011a	83 e0 01	 and	 eax, 1
  0011d	85 c0		 test	 eax, eax
  0011f	75 4a		 jne	 SHORT $LN6@z900_devic
  00121	48 8b 84 24 80
	00 00 00	 mov	 rax, QWORD PTR dev$[rsp]
  00129	8b 80 f8 05 00
	00		 mov	 eax, DWORD PTR [rax+1528]
  0012f	c1 e8 18	 shr	 eax, 24
  00132	83 e0 01	 and	 eax, 1
  00135	85 c0		 test	 eax, eax
  00137	75 32		 jne	 SHORT $LN6@z900_devic
  00139	48 8b 84 24 80
	00 00 00	 mov	 rax, QWORD PTR dev$[rsp]
  00141	8b 80 f8 05 00
	00		 mov	 eax, DWORD PTR [rax+1528]
  00147	c1 e8 1b	 shr	 eax, 27
  0014a	83 e0 01	 and	 eax, 1
  0014d	85 c0		 test	 eax, eax
  0014f	75 1a		 jne	 SHORT $LN6@z900_devic
  00151	48 8b 84 24 80
	00 00 00	 mov	 rax, QWORD PTR dev$[rsp]
  00159	0f b6 80 0b 03
	00 00		 movzx	 eax, BYTE PTR [rax+779]
  00160	83 e0 01	 and	 eax, 1
  00163	85 c0		 test	 eax, eax
  00165	0f 84 cd 01 00
	00		 je	 $LN5@z900_devic
$LN6@z900_devic:

; 4092 :     )
; 4093 :     {
; 4094 :         int rc;                         /* Return code               */
; 4095 : 
; 4096 :         /* Resume the suspended device with attention set            */
; 4097 :         /* SA22-7204-00:                                             */
; 4098 :         /*  p. 4-1, Attention                                        */
; 4099 :         if(dev->scsw.flag3 & SCSW3_AC_SUSP)

  0016b	48 8b 84 24 80
	00 00 00	 mov	 rax, QWORD PTR dev$[rsp]
  00173	0f b6 80 0b 03
	00 00		 movzx	 eax, BYTE PTR [rax+779]
  0017a	83 e0 20	 and	 eax, 32			; 00000020H
  0017d	85 c0		 test	 eax, eax
  0017f	0f 84 78 01 00
	00		 je	 $LN7@z900_devic

; 4100 :         {
; 4101 :             unitstat |= CSW_ATTN;

  00185	0f b6 84 24 88
	00 00 00	 movzx	 eax, BYTE PTR unitstat$[rsp]
  0018d	0f ba e8 07	 bts	 eax, 7
  00191	88 84 24 88 00
	00 00		 mov	 BYTE PTR unitstat$[rsp], al

; 4102 : 
; 4103 :             dev->scsw.unitstat |= unitstat;

  00198	0f b6 84 24 88
	00 00 00	 movzx	 eax, BYTE PTR unitstat$[rsp]
  001a0	48 8b 8c 24 80
	00 00 00	 mov	 rcx, QWORD PTR dev$[rsp]
  001a8	0f b6 89 10 03
	00 00		 movzx	 ecx, BYTE PTR [rcx+784]
  001af	0b c8		 or	 ecx, eax
  001b1	8b c1		 mov	 eax, ecx
  001b3	48 8b 8c 24 80
	00 00 00	 mov	 rcx, QWORD PTR dev$[rsp]
  001bb	88 81 10 03 00
	00		 mov	 BYTE PTR [rcx+784], al

; 4104 :             dev->scsw.flag2    |= SCSW2_AC_RESUM;

  001c1	48 8b 84 24 80
	00 00 00	 mov	 rax, QWORD PTR dev$[rsp]
  001c9	0f b6 80 0a 03
	00 00		 movzx	 eax, BYTE PTR [rax+778]
  001d0	83 c8 08	 or	 eax, 8
  001d3	48 8b 8c 24 80
	00 00 00	 mov	 rcx, QWORD PTR dev$[rsp]
  001db	88 81 0a 03 00
	00		 mov	 BYTE PTR [rcx+778], al

; 4105 :             dev->scsw.flag3    |= SCSW3_SC_ALERT | SCSW3_SC_PEND;

  001e1	48 8b 84 24 80
	00 00 00	 mov	 rax, QWORD PTR dev$[rsp]
  001e9	0f b6 80 0b 03
	00 00		 movzx	 eax, BYTE PTR [rax+779]
  001f0	83 c8 11	 or	 eax, 17
  001f3	48 8b 8c 24 80
	00 00 00	 mov	 rcx, QWORD PTR dev$[rsp]
  001fb	88 81 0b 03 00
	00		 mov	 BYTE PTR [rcx+779], al

; 4106 : 
; 4107 :             schedule_ioq( NULL, dev );

  00201	48 8b 94 24 80
	00 00 00	 mov	 rdx, QWORD PTR dev$[rsp]
  00209	33 c9		 xor	 ecx, ecx
  0020b	e8 00 00 00 00	 call	 schedule_ioq

; 4108 : 
; 4109 :             if (dev->ccwtrace)

  00210	48 8b 84 24 80
	00 00 00	 mov	 rax, QWORD PTR dev$[rsp]
  00218	8b 80 f8 05 00
	00		 mov	 eax, DWORD PTR [rax+1528]
  0021e	c1 e8 0f	 shr	 eax, 15
  00221	83 e0 01	 and	 eax, 1
  00224	85 c0		 test	 eax, eax
  00226	0f 84 c7 00 00
	00		 je	 $LN9@z900_devic

; 4110 :             {
; 4111 :                 if (sysblk.traceFILE)

  0022c	48 8b 05 00 00
	00 00		 mov	 rax, QWORD PTR __imp_sysblk
  00233	48 83 b8 20 14
	00 00 00	 cmp	 QWORD PTR [rax+5152], 0
  0023b	74 13		 je	 SHORT $LN10@z900_devic

; 4112 :                     tf_1304( dev );

  0023d	48 8b 8c 24 80
	00 00 00	 mov	 rcx, QWORD PTR dev$[rsp]
  00245	ff 15 00 00 00
	00		 call	 QWORD PTR __imp_tf_1304
  0024b	e9 a3 00 00 00	 jmp	 $LN11@z900_devic
$LN10@z900_devic:

; 4113 :                 else
; 4114 :                     // "%1d:%04X CHAN: attention signaled"
; 4115 :                     WRMSG( HHC01304, "I", LCSS_DEVNUM );

  00250	48 83 bc 24 80
	00 00 00 00	 cmp	 QWORD PTR dev$[rsp], 0
  00259	74 12		 je	 SHORT $LN16@z900_devic
  0025b	48 8b 84 24 80
	00 00 00	 mov	 rax, QWORD PTR dev$[rsp]
  00263	0f b7 40 48	 movzx	 eax, WORD PTR [rax+72]
  00267	89 44 24 50	 mov	 DWORD PTR tv181[rsp], eax
  0026b	eb 08		 jmp	 SHORT $LN17@z900_devic
$LN16@z900_devic:
  0026d	c7 44 24 50 00
	00 00 00	 mov	 DWORD PTR tv181[rsp], 0
$LN17@z900_devic:
  00275	48 83 bc 24 80
	00 00 00 00	 cmp	 QWORD PTR dev$[rsp], 0
  0027e	74 14		 je	 SHORT $LN18@z900_devic
  00280	48 8b 84 24 80
	00 00 00	 mov	 rax, QWORD PTR dev$[rsp]
  00288	0f b7 40 44	 movzx	 eax, WORD PTR [rax+68]
  0028c	d1 f8		 sar	 eax, 1
  0028e	89 44 24 54	 mov	 DWORD PTR tv187[rsp], eax
  00292	eb 08		 jmp	 SHORT $LN19@z900_devic
$LN18@z900_devic:
  00294	c7 44 24 54 00
	00 00 00	 mov	 DWORD PTR tv187[rsp], 0
$LN19@z900_devic:
  0029c	b9 01 00 00 00	 mov	 ecx, 1
  002a1	ff 15 00 00 00
	00		 call	 QWORD PTR __imp___acrt_iob_func
  002a7	8b 4c 24 50	 mov	 ecx, DWORD PTR tv181[rsp]
  002ab	89 4c 24 40	 mov	 DWORD PTR [rsp+64], ecx
  002af	8b 4c 24 54	 mov	 ecx, DWORD PTR tv187[rsp]
  002b3	89 4c 24 38	 mov	 DWORD PTR [rsp+56], ecx
  002b7	48 8d 0d 00 00
	00 00		 lea	 rcx, OFFSET FLAT:$SG196377
  002be	48 89 4c 24 30	 mov	 QWORD PTR [rsp+48], rcx
  002c3	48 8d 0d 00 00
	00 00		 lea	 rcx, OFFSET FLAT:$SG196378
  002ca	48 89 4c 24 28	 mov	 QWORD PTR [rsp+40], rcx
  002cf	48 89 44 24 20	 mov	 QWORD PTR [rsp+32], rax
  002d4	41 b9 03 00 00
	00		 mov	 r9d, 3
  002da	4c 8d 05 00 00
	00 00		 lea	 r8, OFFSET FLAT:$SG196379
  002e1	ba 13 10 00 00	 mov	 edx, 4115		; 00001013H
  002e6	48 8d 0d 00 00
	00 00		 lea	 rcx, OFFSET FLAT:$SG196380
  002ed	ff 15 00 00 00
	00		 call	 QWORD PTR __imp_fwritemsg
$LN11@z900_devic:
$LN9@z900_devic:

; 4116 :             }
; 4117 :             rc = 0;

  002f3	c7 44 24 58 00
	00 00 00	 mov	 DWORD PTR rc$1[rsp], 0

; 4118 :         }

  002fb	eb 08		 jmp	 SHORT $LN8@z900_devic
$LN7@z900_devic:

; 4119 :         else
; 4120 :             rc = 1;

  002fd	c7 44 24 58 01
	00 00 00	 mov	 DWORD PTR rc$1[rsp], 1
$LN8@z900_devic:

; 4121 : 
; 4122 :         release_lock( &dev->lock );

  00305	48 8b 84 24 80
	00 00 00	 mov	 rax, QWORD PTR dev$[rsp]
  0030d	48 83 c0 38	 add	 rax, 56			; 00000038H
  00311	48 8d 15 00 00
	00 00		 lea	 rdx, OFFSET FLAT:$SG196381
  00318	48 8b c8	 mov	 rcx, rax
  0031b	ff 15 00 00 00
	00		 call	 QWORD PTR __imp_hthread_release_lock

; 4123 :         RELEASE_INTLOCK(NULL);

  00321	48 8d 15 00 00
	00 00		 lea	 rdx, OFFSET FLAT:$SG196382
  00328	33 c9		 xor	 ecx, ecx
  0032a	e8 00 00 00 00	 call	 Release_Interrupt_Lock

; 4124 :         return rc;

  0032f	8b 44 24 58	 mov	 eax, DWORD PTR rc$1[rsp]
  00333	e9 e9 01 00 00	 jmp	 $LN1@z900_devic
$LN5@z900_devic:

; 4125 :     }
; 4126 : 
; 4127 :     if (dev->ccwtrace)

  00338	48 8b 84 24 80
	00 00 00	 mov	 rax, QWORD PTR dev$[rsp]
  00340	8b 80 f8 05 00
	00		 mov	 eax, DWORD PTR [rax+1528]
  00346	c1 e8 0f	 shr	 eax, 15
  00349	83 e0 01	 and	 eax, 1
  0034c	85 c0		 test	 eax, eax
  0034e	0f 84 c7 00 00
	00		 je	 $LN12@z900_devic

; 4128 :     {
; 4129 :         if (sysblk.traceFILE)

  00354	48 8b 05 00 00
	00 00		 mov	 rax, QWORD PTR __imp_sysblk
  0035b	48 83 b8 20 14
	00 00 00	 cmp	 QWORD PTR [rax+5152], 0
  00363	74 13		 je	 SHORT $LN13@z900_devic

; 4130 :             tf_1305( dev );

  00365	48 8b 8c 24 80
	00 00 00	 mov	 rcx, QWORD PTR dev$[rsp]
  0036d	ff 15 00 00 00
	00		 call	 QWORD PTR __imp_tf_1305
  00373	e9 a3 00 00 00	 jmp	 $LN14@z900_devic
$LN13@z900_devic:

; 4131 :         else
; 4132 :             // "%1d:%04X CHAN: attention"
; 4133 :             WRMSG( HHC01305, "I", LCSS_DEVNUM );

  00378	48 83 bc 24 80
	00 00 00 00	 cmp	 QWORD PTR dev$[rsp], 0
  00381	74 12		 je	 SHORT $LN20@z900_devic
  00383	48 8b 84 24 80
	00 00 00	 mov	 rax, QWORD PTR dev$[rsp]
  0038b	0f b7 40 48	 movzx	 eax, WORD PTR [rax+72]
  0038f	89 44 24 5c	 mov	 DWORD PTR tv213[rsp], eax
  00393	eb 08		 jmp	 SHORT $LN21@z900_devic
$LN20@z900_devic:
  00395	c7 44 24 5c 00
	00 00 00	 mov	 DWORD PTR tv213[rsp], 0
$LN21@z900_devic:
  0039d	48 83 bc 24 80
	00 00 00 00	 cmp	 QWORD PTR dev$[rsp], 0
  003a6	74 14		 je	 SHORT $LN22@z900_devic
  003a8	48 8b 84 24 80
	00 00 00	 mov	 rax, QWORD PTR dev$[rsp]
  003b0	0f b7 40 44	 movzx	 eax, WORD PTR [rax+68]
  003b4	d1 f8		 sar	 eax, 1
  003b6	89 44 24 60	 mov	 DWORD PTR tv219[rsp], eax
  003ba	eb 08		 jmp	 SHORT $LN23@z900_devic
$LN22@z900_devic:
  003bc	c7 44 24 60 00
	00 00 00	 mov	 DWORD PTR tv219[rsp], 0
$LN23@z900_devic:
  003c4	b9 01 00 00 00	 mov	 ecx, 1
  003c9	ff 15 00 00 00
	00		 call	 QWORD PTR __imp___acrt_iob_func
  003cf	8b 4c 24 5c	 mov	 ecx, DWORD PTR tv213[rsp]
  003d3	89 4c 24 40	 mov	 DWORD PTR [rsp+64], ecx
  003d7	8b 4c 24 60	 mov	 ecx, DWORD PTR tv219[rsp]
  003db	89 4c 24 38	 mov	 DWORD PTR [rsp+56], ecx
  003df	48 8d 0d 00 00
	00 00		 lea	 rcx, OFFSET FLAT:$SG196386
  003e6	48 89 4c 24 30	 mov	 QWORD PTR [rsp+48], rcx
  003eb	48 8d 0d 00 00
	00 00		 lea	 rcx, OFFSET FLAT:$SG196387
  003f2	48 89 4c 24 28	 mov	 QWORD PTR [rsp+40], rcx
  003f7	48 89 44 24 20	 mov	 QWORD PTR [rsp+32], rax
  003fc	41 b9 03 00 00
	00		 mov	 r9d, 3
  00402	4c 8d 05 00 00
	00 00		 lea	 r8, OFFSET FLAT:$SG196388
  00409	ba 25 10 00 00	 mov	 edx, 4133		; 00001025H
  0040e	48 8d 0d 00 00
	00 00		 lea	 rcx, OFFSET FLAT:$SG196389
  00415	ff 15 00 00 00
	00		 call	 QWORD PTR __imp_fwritemsg
$LN14@z900_devic:
$LN12@z900_devic:

; 4134 :     }
; 4135 : 
; 4136 :     /* We already have INTLOCK and dev->lock held, so now
; 4137 :        we only need to acquire the interrupt queue lock. */
; 4138 :     obtain_lock(&sysblk.iointqlk);

  0041b	48 8b 05 00 00
	00 00		 mov	 rax, QWORD PTR __imp_sysblk
  00422	48 05 78 10 00
	00		 add	 rax, 4216		; 00001078H
  00428	48 8d 15 00 00
	00 00		 lea	 rdx, OFFSET FLAT:$SG196390
  0042f	48 8b c8	 mov	 rcx, rax
  00432	ff 15 00 00 00
	00		 call	 QWORD PTR __imp_hthread_obtain_lock

; 4139 : 
; 4140 :     /* Set SCSW for attention interrupt                              */
; 4141 :     /* SA22-7201-05:                                                 */
; 4142 :     /*  p. 16-3, Unsolicited Interuption Condition                   */
; 4143 :     /*           Solicited Interuption Condition                     */
; 4144 :     /*           Figure 16-1, Interruption Condition for Status-     */
; 4145 :     /*                        Control-Bit Combinations               */
; 4146 :     /*  p. 16-4, Alert Interruption Condition                        */
; 4147 :     /*  p. 16-16 -- 16-17, Alert Status (Bit 27)                     */
; 4148 :     /*  p. 16-18, Status-Pending (Bit 31)                            */
; 4149 :     /*                                                               */
; 4150 :     /*  Hercules maintains for tracking purposes regardless of       */
; 4151 :     /*  architecture.                                                */
; 4152 :     /*                                                               */
; 4153 :     /* Set CSW for attention interrupt when in S/360 or S/370 mode,  */
; 4154 :     /* CSW will be derived from the SCSW when interrupt is issued    */
; 4155 :     /* SA22-7204-00:                                                 */
; 4156 :     /*  p. 4-1, Attention                                            */
; 4157 :     /* GA22-6974-09:                                                 */
; 4158 :     /*  pp. 2-13 -- 2-14, Attention                                  */
; 4159 :     dev->attnscsw.flag3 = SCSW3_SC_ALERT | SCSW3_SC_PEND;

  00438	48 8b 84 24 80
	00 00 00	 mov	 rax, QWORD PTR dev$[rsp]
  00440	c6 80 23 03 00
	00 11		 mov	 BYTE PTR [rax+803], 17

; 4160 :     store_fw (dev->attnscsw.ccwaddr, 0);

  00447	33 c9		 xor	 ecx, ecx
  00449	e8 00 00 00 00	 call	 _byteswap_ulong
  0044e	48 8b 8c 24 80
	00 00 00	 mov	 rcx, QWORD PTR dev$[rsp]
  00456	48 81 c1 24 03
	00 00		 add	 rcx, 804		; 00000324H
  0045d	8b d0		 mov	 edx, eax
  0045f	e8 00 00 00 00	 call	 store_fw_noswap

; 4161 :     dev->attnscsw.unitstat = unitstat;

  00464	48 8b 84 24 80
	00 00 00	 mov	 rax, QWORD PTR dev$[rsp]
  0046c	0f b6 8c 24 88
	00 00 00	 movzx	 ecx, BYTE PTR unitstat$[rsp]
  00474	88 88 28 03 00
	00		 mov	 BYTE PTR [rax+808], cl

; 4162 :     dev->attnscsw.chanstat = 0;

  0047a	48 8b 84 24 80
	00 00 00	 mov	 rax, QWORD PTR dev$[rsp]
  00482	c6 80 29 03 00
	00 00		 mov	 BYTE PTR [rax+809], 0

; 4163 :     store_hw (dev->attnscsw.count, 0);

  00489	33 c9		 xor	 ecx, ecx
  0048b	e8 00 00 00 00	 call	 _byteswap_ushort
  00490	48 8b 8c 24 80
	00 00 00	 mov	 rcx, QWORD PTR dev$[rsp]
  00498	48 81 c1 2a 03
	00 00		 add	 rcx, 810		; 0000032aH
  0049f	0f b7 d0	 movzx	 edx, ax
  004a2	e8 00 00 00 00	 call	 store_hw_noswap

; 4164 : 
; 4165 :     /* Queue the attention interrupt */
; 4166 :     QUEUE_IO_INTERRUPT_QLOCKED(&dev->attnioint,FALSE);

  004a7	48 8b 84 24 80
	00 00 00	 mov	 rax, QWORD PTR dev$[rsp]
  004af	48 05 58 02 00
	00		 add	 rax, 600		; 00000258H
  004b5	4c 8d 05 00 00
	00 00		 lea	 r8, OFFSET FLAT:$SG196391
  004bc	33 d2		 xor	 edx, edx
  004be	48 8b c8	 mov	 rcx, rax
  004c1	e8 00 00 00 00	 call	 Queue_IO_Interrupt_QLocked

; 4167 : 
; 4168 :     /* Update interrupt status */
; 4169 :     subchannel_interrupt_queue_cleanup(dev);

  004c6	48 8b 8c 24 80
	00 00 00	 mov	 rcx, QWORD PTR dev$[rsp]
  004ce	e8 00 00 00 00	 call	 subchannel_interrupt_queue_cleanup

; 4170 :     UPDATE_IC_IOPENDING_QLOCKED();

  004d3	e8 00 00 00 00	 call	 Update_IC_IOPENDING_QLocked

; 4171 : 
; 4172 :     /* Release locks and return to caller */
; 4173 :     release_lock(&sysblk.iointqlk);

  004d8	48 8b 05 00 00
	00 00		 mov	 rax, QWORD PTR __imp_sysblk
  004df	48 05 78 10 00
	00		 add	 rax, 4216		; 00001078H
  004e5	48 8d 15 00 00
	00 00		 lea	 rdx, OFFSET FLAT:$SG196392
  004ec	48 8b c8	 mov	 rcx, rax
  004ef	ff 15 00 00 00
	00		 call	 QWORD PTR __imp_hthread_release_lock

; 4174 :     release_lock(&dev->lock);

  004f5	48 8b 84 24 80
	00 00 00	 mov	 rax, QWORD PTR dev$[rsp]
  004fd	48 83 c0 38	 add	 rax, 56			; 00000038H
  00501	48 8d 15 00 00
	00 00		 lea	 rdx, OFFSET FLAT:$SG196393
  00508	48 8b c8	 mov	 rcx, rax
  0050b	ff 15 00 00 00
	00		 call	 QWORD PTR __imp_hthread_release_lock

; 4175 :     RELEASE_INTLOCK(NULL);

  00511	48 8d 15 00 00
	00 00		 lea	 rdx, OFFSET FLAT:$SG196394
  00518	33 c9		 xor	 ecx, ecx
  0051a	e8 00 00 00 00	 call	 Release_Interrupt_Lock

; 4176 : 
; 4177 :     return 0;

  0051f	33 c0		 xor	 eax, eax
$LN1@z900_devic:

; 4178 : } /* end function device_attention */

  00521	48 83 c4 78	 add	 rsp, 120		; 00000078H
  00525	c3		 ret	 0
z900_device_attention ENDP
_TEXT	ENDS
; Function compile flags: /Odtp
; File C:\papa\MyGit\hyperion-zvector\channel.c
_TEXT	SEGMENT
ps$ = 80
idalen$ = 84
to_memory$ = 88
readbackwards$ = 89
midawlen$ = 92
storkey$ = 96
midawflg$ = 97
to_iobuf$ = 98
idacount$ = 100
midawrem$ = 104
page$ = 112
idawaddr$ = 120
midawdat$ = 128
idadata$ = 136
midawptr$ = 144
iobufptr$ = 152
midawseq$ = 160
idaseq$ = 164
tv128 = 168
tv405 = 172
idasize$ = 176
iobufptr$1 = 184
tv788 = 192
tv796 = 200
tv810 = 208
tv860 = 216
tv868 = 224
tv871 = 232
startpage$ = 240
endpage$ = 248
tv673 = 256
dev$ = 304
ccw$ = 312
code$ = 320
flags$ = 328
addr$ = 336
count$ = 344
ccwkey$ = 352
idawfmt$ = 360
idapmask$ = 368
iobuf$ = 376
iobufstart$ = 384
iobufend$ = 392
chanstat$ = 400
residual$ = 408
prefetch$ = 416
z900_copy_iobuf PROC

; 3372 : {

  00000	44 88 4c 24 20	 mov	 BYTE PTR [rsp+32], r9b
  00005	44 88 44 24 18	 mov	 BYTE PTR [rsp+24], r8b
  0000a	48 89 54 24 10	 mov	 QWORD PTR [rsp+16], rdx
  0000f	48 89 4c 24 08	 mov	 QWORD PTR [rsp+8], rcx
  00014	56		 push	 rsi
  00015	57		 push	 rdi
  00016	48 81 ec 18 01
	00 00		 sub	 rsp, 280		; 00000118H

; 3373 : BYTE    *iobufptr = 0;                  /* Working I/O buffer addr   */

  0001d	48 c7 84 24 98
	00 00 00 00 00
	00 00		 mov	 QWORD PTR iobufptr$[rsp], 0

; 3374 : u_int   ps = 0;                         /* Prefetch entry            */

  00029	c7 44 24 50 00
	00 00 00	 mov	 DWORD PTR ps$[rsp], 0

; 3375 : U32     idawaddr;                       /* Main storage addr of IDAW */
; 3376 : U16     idacount;                       /* IDA bytes remaining       */
; 3377 : int     idaseq;                         /* IDA sequence number       */
; 3378 : RADR    idadata;                        /* IDA data address          */
; 3379 : U16     idalen;                         /* IDA data length           */
; 3380 : int     idasize;                        /* IDAW Size                 */
; 3381 : BYTE    storkey;                        /* Storage key               */
; 3382 : RADR    page,startpage,endpage;         /* Storage key pages         */
; 3383 : BYTE    to_iobuf;                       /* 1=READ, SENSE, or RDBACK  */
; 3384 : BYTE    to_memory;                      /* 1=READ, SENSE, or RDBACK  */
; 3385 : BYTE    readbackwards;                  /* 1=RDBACK                  */
; 3386 : #if defined(FEATURE_MIDAW_FACILITY)
; 3387 : int     midawseq;                       /* MIDAW counter (0=1st)     */
; 3388 : U32     midawptr;                       /* Real addr of MIDAW        */
; 3389 : U16     midawrem;                       /* CCW bytes remaining       */
; 3390 : U16     midawlen=0;                     /* MIDAW data length         */

  00031	33 c0		 xor	 eax, eax
  00033	66 89 44 24 5c	 mov	 WORD PTR midawlen$[rsp], ax

; 3391 : RADR    midawdat=0;                     /* MIDAW data area addr      */

  00038	48 c7 84 24 80
	00 00 00 00 00
	00 00		 mov	 QWORD PTR midawdat$[rsp], 0

; 3392 : BYTE    midawflg;                       /* MIDAW flags               */
; 3393 : #endif /*defined(FEATURE_MIDAW_FACILITY)*/
; 3394 : 
; 3395 : #if !defined(set_chanstat)
; 3396 : #define set_chanstat(_status)                                          \
; 3397 : do {                                                                   \
; 3398 :     if (prefetch->seq)                                                 \
; 3399 :         prefetch->chanstat[ps] = (_status);                            \
; 3400 :     else                                                               \
; 3401 :         *chanstat = (_status);                                         \
; 3402 : } while(0)
; 3403 : #endif
; 3404 : 
; 3405 : #if !defined(get_new_prefetch_entry)
; 3406 : #define get_new_prefetch_entry(_idawtype,_idawaddr)                    \
; 3407 : do {                                                                   \
; 3408 :     if (prefetch->seq)                                                 \
; 3409 :     {                                                                  \
; 3410 :         ps = prefetch->seq++;                                          \
; 3411 :         if (prefetch->seq > PF_SIZE)                                   \
; 3412 :         {                                                              \
; 3413 :             *chanstat = CSW_CDC;                                       \
; 3414 :             break;                                                     \
; 3415 :         }                                                              \
; 3416 :         prefetch->ccwaddr[ps] = prefetch->ccwaddr[ps-1];               \
; 3417 :         if ((_idawtype) != PF_NO_IDAW)                                 \
; 3418 :         {                                                              \
; 3419 :             prefetch->idawtype[ps] = (_idawtype);                      \
; 3420 :             prefetch->idawaddr[ps] = (_idawaddr);                      \
; 3421 :         }                                                              \
; 3422 :     }                                                                  \
; 3423 :     *chanstat = 0;                                                     \
; 3424 : } while(0)
; 3425 : #endif
; 3426 : 
; 3427 :     /* Set current prefetch sequence */
; 3428 :     if (prefetch->seq)

  00044	48 8b 84 24 a0
	01 00 00	 mov	 rax, QWORD PTR prefetch$[rsp]
  0004c	83 38 00	 cmp	 DWORD PTR [rax], 0
  0004f	74 10		 je	 SHORT $LN56@z900_copy_

; 3429 :         ps = prefetch->seq - 1;

  00051	48 8b 84 24 a0
	01 00 00	 mov	 rax, QWORD PTR prefetch$[rsp]
  00059	8b 00		 mov	 eax, DWORD PTR [rax]
  0005b	ff c8		 dec	 eax
  0005d	89 44 24 50	 mov	 DWORD PTR ps$[rsp], eax
$LN56@z900_copy_:

; 3430 : 
; 3431 :     /* Channel Data Check if invalid I/O buffer */
; 3432 :     if ((size_t)iobufend < 131072   ||  /* Low host OS storage reference */
; 3433 :         iobuf < iobufstart          ||

  00061	48 81 bc 24 88
	01 00 00 00 00
	02 00		 cmp	 QWORD PTR iobufend$[rsp], 131072 ; 00020000H
  0006d	72 24		 jb	 SHORT $LN58@z900_copy_
  0006f	48 8b 84 24 80
	01 00 00	 mov	 rax, QWORD PTR iobufstart$[rsp]
  00077	48 39 84 24 78
	01 00 00	 cmp	 QWORD PTR iobuf$[rsp], rax
  0007f	72 12		 jb	 SHORT $LN58@z900_copy_
  00081	48 8b 84 24 88
	01 00 00	 mov	 rax, QWORD PTR iobufend$[rsp]
  00089	48 39 84 24 78
	01 00 00	 cmp	 QWORD PTR iobuf$[rsp], rax
  00091	76 36		 jbe	 SHORT $LN57@z900_copy_
$LN58@z900_copy_:
$LN4@z900_copy_:

; 3434 :         iobuf > iobufend)
; 3435 :     {
; 3436 :         set_chanstat(CSW_CDC);

  00093	48 8b 84 24 a0
	01 00 00	 mov	 rax, QWORD PTR prefetch$[rsp]
  0009b	83 38 00	 cmp	 DWORD PTR [rax], 0
  0009e	74 13		 je	 SHORT $LN59@z900_copy_
  000a0	8b 44 24 50	 mov	 eax, DWORD PTR ps$[rsp]
  000a4	48 8b 8c 24 a0
	01 00 00	 mov	 rcx, QWORD PTR prefetch$[rsp]
  000ac	c6 44 01 10 08	 mov	 BYTE PTR [rcx+rax+16], 8
  000b1	eb 0b		 jmp	 SHORT $LN60@z900_copy_
$LN59@z900_copy_:
  000b3	48 8b 84 24 90
	01 00 00	 mov	 rax, QWORD PTR chanstat$[rsp]
  000bb	c6 00 08	 mov	 BYTE PTR [rax], 8
$LN60@z900_copy_:
  000be	33 c0		 xor	 eax, eax
  000c0	85 c0		 test	 eax, eax
  000c2	75 cf		 jne	 SHORT $LN4@z900_copy_

; 3437 :         return;

  000c4	e9 e1 18 00 00	 jmp	 $LN1@z900_copy_
$LN57@z900_copy_:

; 3438 :     }
; 3439 : 
; 3440 :     /* Exit if no bytes are to be copied */
; 3441 :     if (count == 0 || dev->is_immed)

  000c9	83 bc 24 58 01
	00 00 00	 cmp	 DWORD PTR count$[rsp], 0
  000d1	74 11		 je	 SHORT $LN62@z900_copy_
  000d3	48 8b 84 24 30
	01 00 00	 mov	 rax, QWORD PTR dev$[rsp]
  000db	83 b8 a0 02 00
	00 00		 cmp	 DWORD PTR [rax+672], 0
  000e2	74 36		 je	 SHORT $LN61@z900_copy_
$LN62@z900_copy_:
$LN7@z900_copy_:

; 3442 :     {
; 3443 :         set_chanstat(0);

  000e4	48 8b 84 24 a0
	01 00 00	 mov	 rax, QWORD PTR prefetch$[rsp]
  000ec	83 38 00	 cmp	 DWORD PTR [rax], 0
  000ef	74 13		 je	 SHORT $LN63@z900_copy_
  000f1	8b 44 24 50	 mov	 eax, DWORD PTR ps$[rsp]
  000f5	48 8b 8c 24 a0
	01 00 00	 mov	 rcx, QWORD PTR prefetch$[rsp]
  000fd	c6 44 01 10 00	 mov	 BYTE PTR [rcx+rax+16], 0
  00102	eb 0b		 jmp	 SHORT $LN64@z900_copy_
$LN63@z900_copy_:
  00104	48 8b 84 24 90
	01 00 00	 mov	 rax, QWORD PTR chanstat$[rsp]
  0010c	c6 00 00	 mov	 BYTE PTR [rax], 0
$LN64@z900_copy_:
  0010f	33 c0		 xor	 eax, eax
  00111	85 c0		 test	 eax, eax
  00113	75 cf		 jne	 SHORT $LN7@z900_copy_

; 3444 :         return;

  00115	e9 90 18 00 00	 jmp	 $LN1@z900_copy_
$LN61@z900_copy_:

; 3445 :     }
; 3446 : 
; 3447 :     /* Set flags indicating direction of data movement */
; 3448 :     if (IS_CCW_RDBACK(code))

  0011a	0f b6 84 24 40
	01 00 00	 movzx	 eax, BYTE PTR code$[rsp]
  00122	83 e0 0f	 and	 eax, 15
  00125	83 f8 0c	 cmp	 eax, 12
  00128	75 15		 jne	 SHORT $LN65@z900_copy_

; 3449 :     {
; 3450 :         readbackwards = to_memory = 1;

  0012a	c6 44 24 58 01	 mov	 BYTE PTR to_memory$[rsp], 1
  0012f	0f b6 44 24 58	 movzx	 eax, BYTE PTR to_memory$[rsp]
  00134	88 44 24 59	 mov	 BYTE PTR readbackwards$[rsp], al

; 3451 :         to_iobuf = 0;

  00138	c6 44 24 62 00	 mov	 BYTE PTR to_iobuf$[rsp], 0

; 3452 :     }

  0013d	eb 41		 jmp	 SHORT $LN66@z900_copy_
$LN65@z900_copy_:

; 3453 :     else
; 3454 :     {
; 3455 :         readbackwards = 0;

  0013f	c6 44 24 59 00	 mov	 BYTE PTR readbackwards$[rsp], 0

; 3456 :         to_iobuf = code & 0x01;

  00144	0f b6 84 24 40
	01 00 00	 movzx	 eax, BYTE PTR code$[rsp]
  0014c	83 e0 01	 and	 eax, 1
  0014f	88 44 24 62	 mov	 BYTE PTR to_iobuf$[rsp], al

; 3457 :         to_memory = !to_iobuf;

  00153	0f b6 44 24 62	 movzx	 eax, BYTE PTR to_iobuf$[rsp]
  00158	85 c0		 test	 eax, eax
  0015a	75 0d		 jne	 SHORT $LN191@z900_copy_
  0015c	c7 84 24 a8 00
	00 00 01 00 00
	00		 mov	 DWORD PTR tv128[rsp], 1
  00167	eb 0b		 jmp	 SHORT $LN192@z900_copy_
$LN191@z900_copy_:
  00169	c7 84 24 a8 00
	00 00 00 00 00
	00		 mov	 DWORD PTR tv128[rsp], 0
$LN192@z900_copy_:
  00174	0f b6 84 24 a8
	00 00 00	 movzx	 eax, BYTE PTR tv128[rsp]
  0017c	88 44 24 58	 mov	 BYTE PTR to_memory$[rsp], al
$LN66@z900_copy_:

; 3458 :     }
; 3459 : 
; 3460 : 
; 3461 : #if defined(FEATURE_MIDAW_FACILITY)
; 3462 :     /* Move data when modified indirect data addressing is used */
; 3463 :     if (flags & CCW_FLAGS_MIDAW)

  00180	0f b6 84 24 48
	01 00 00	 movzx	 eax, BYTE PTR flags$[rsp]
  00188	83 e0 01	 and	 eax, 1
  0018b	85 c0		 test	 eax, eax
  0018d	0f 84 9d 07 00
	00		 je	 $LN67@z900_copy_

; 3464 :     {
; 3465 :         if (prefetch->seq)

  00193	48 8b 84 24 a0
	01 00 00	 mov	 rax, QWORD PTR prefetch$[rsp]
  0019b	83 38 00	 cmp	 DWORD PTR [rax], 0
  0019e	74 17		 je	 SHORT $LN69@z900_copy_

; 3466 :             prefetch->datalen[ps] = 0;

  001a0	8b 44 24 50	 mov	 eax, DWORD PTR ps$[rsp]
  001a4	48 8b 8c 24 a0
	01 00 00	 mov	 rcx, QWORD PTR prefetch$[rsp]
  001ac	c7 84 81 10 05
	00 00 00 00 00
	00		 mov	 DWORD PTR [rcx+rax*4+1296], 0
$LN69@z900_copy_:

; 3467 : 
; 3468 :         midawptr = addr;

  001b7	8b 84 24 50 01
	00 00		 mov	 eax, DWORD PTR addr$[rsp]
  001be	89 84 24 90 00
	00 00		 mov	 DWORD PTR midawptr$[rsp], eax

; 3469 :         midawrem = count;

  001c5	0f b7 84 24 58
	01 00 00	 movzx	 eax, WORD PTR count$[rsp]
  001cd	66 89 44 24 68	 mov	 WORD PTR midawrem$[rsp], ax

; 3470 :         midawflg = 0;

  001d2	c6 44 24 61 00	 mov	 BYTE PTR midawflg$[rsp], 0

; 3471 : 
; 3472 :         for (midawseq = 0;

  001d7	c7 84 24 a0 00
	00 00 00 00 00
	00		 mov	 DWORD PTR midawseq$[rsp], 0
  001e2	eb 10		 jmp	 SHORT $LN10@z900_copy_
$LN8@z900_copy_:

; 3476 :                 !(prefetch->seq &&
; 3477 :                     (prefetch->chanstat[ps] ||
; 3478 :                         ((ps+1) < prefetch->seq &&
; 3479 :                             prefetch->chanstat[ps+1])));
; 3480 :              midawseq++)

  001e4	8b 84 24 a0 00
	00 00		 mov	 eax, DWORD PTR midawseq$[rsp]
  001eb	ff c0		 inc	 eax
  001ed	89 84 24 a0 00
	00 00		 mov	 DWORD PTR midawseq$[rsp], eax
$LN10@z900_copy_:

; 3473 :              midawrem > 0 &&
; 3474 :                 (midawflg & MIDAW_LAST) == 0 &&
; 3475 :                 chanstat != 0 &&

  001f4	0f b7 44 24 68	 movzx	 eax, WORD PTR midawrem$[rsp]
  001f9	85 c0		 test	 eax, eax
  001fb	0f 8e b8 06 00
	00		 jle	 $LN9@z900_copy_
  00201	0f b6 44 24 61	 movzx	 eax, BYTE PTR midawflg$[rsp]
  00206	25 80 00 00 00	 and	 eax, 128		; 00000080H
  0020b	85 c0		 test	 eax, eax
  0020d	0f 85 a6 06 00
	00		 jne	 $LN9@z900_copy_
  00213	48 83 bc 24 90
	01 00 00 00	 cmp	 QWORD PTR chanstat$[rsp], 0
  0021c	0f 84 97 06 00
	00		 je	 $LN9@z900_copy_
  00222	48 8b 84 24 a0
	01 00 00	 mov	 rax, QWORD PTR prefetch$[rsp]
  0022a	83 38 00	 cmp	 DWORD PTR [rax], 0
  0022d	74 48		 je	 SHORT $LN70@z900_copy_
  0022f	8b 44 24 50	 mov	 eax, DWORD PTR ps$[rsp]
  00233	48 8b 8c 24 a0
	01 00 00	 mov	 rcx, QWORD PTR prefetch$[rsp]
  0023b	0f b6 44 01 10	 movzx	 eax, BYTE PTR [rcx+rax+16]
  00240	85 c0		 test	 eax, eax
  00242	0f 85 71 06 00
	00		 jne	 $LN9@z900_copy_
  00248	8b 44 24 50	 mov	 eax, DWORD PTR ps$[rsp]
  0024c	ff c0		 inc	 eax
  0024e	48 8b 8c 24 a0
	01 00 00	 mov	 rcx, QWORD PTR prefetch$[rsp]
  00256	3b 01		 cmp	 eax, DWORD PTR [rcx]
  00258	73 1d		 jae	 SHORT $LN71@z900_copy_
  0025a	8b 44 24 50	 mov	 eax, DWORD PTR ps$[rsp]
  0025e	ff c0		 inc	 eax
  00260	8b c0		 mov	 eax, eax
  00262	48 8b 8c 24 a0
	01 00 00	 mov	 rcx, QWORD PTR prefetch$[rsp]
  0026a	0f b6 44 01 10	 movzx	 eax, BYTE PTR [rcx+rax+16]
  0026f	85 c0		 test	 eax, eax
  00271	0f 85 42 06 00
	00		 jne	 $LN9@z900_copy_
$LN71@z900_copy_:
$LN70@z900_copy_:
$LN13@z900_copy_:

; 3481 :         {
; 3482 :             /* Get new prefetch entry */
; 3483 :             get_new_prefetch_entry(PF_MIDAW, midawptr);

  00277	48 8b 84 24 a0
	01 00 00	 mov	 rax, QWORD PTR prefetch$[rsp]
  0027f	83 38 00	 cmp	 DWORD PTR [rax], 0
  00282	0f 84 a1 00 00
	00		 je	 $LN72@z900_copy_
  00288	48 8b 84 24 a0
	01 00 00	 mov	 rax, QWORD PTR prefetch$[rsp]
  00290	8b 00		 mov	 eax, DWORD PTR [rax]
  00292	89 44 24 50	 mov	 DWORD PTR ps$[rsp], eax
  00296	48 8b 84 24 a0
	01 00 00	 mov	 rax, QWORD PTR prefetch$[rsp]
  0029e	8b 00		 mov	 eax, DWORD PTR [rax]
  002a0	ff c0		 inc	 eax
  002a2	48 8b 8c 24 a0
	01 00 00	 mov	 rcx, QWORD PTR prefetch$[rsp]
  002aa	89 01		 mov	 DWORD PTR [rcx], eax
  002ac	48 8b 84 24 a0
	01 00 00	 mov	 rax, QWORD PTR prefetch$[rsp]
  002b4	81 38 00 01 00
	00		 cmp	 DWORD PTR [rax], 256	; 00000100H
  002ba	76 0d		 jbe	 SHORT $LN73@z900_copy_
  002bc	48 8b 84 24 90
	01 00 00	 mov	 rax, QWORD PTR chanstat$[rsp]
  002c4	c6 00 08	 mov	 BYTE PTR [rax], 8
  002c7	eb 75		 jmp	 SHORT $LN12@z900_copy_
$LN73@z900_copy_:
  002c9	8b 44 24 50	 mov	 eax, DWORD PTR ps$[rsp]
  002cd	ff c8		 dec	 eax
  002cf	8b c0		 mov	 eax, eax
  002d1	8b 4c 24 50	 mov	 ecx, DWORD PTR ps$[rsp]
  002d5	48 8b 94 24 a0
	01 00 00	 mov	 rdx, QWORD PTR prefetch$[rsp]
  002dd	4c 8b 84 24 a0
	01 00 00	 mov	 r8, QWORD PTR prefetch$[rsp]
  002e5	41 8b 84 80 10
	01 00 00	 mov	 eax, DWORD PTR [r8+rax*4+272]
  002ed	89 84 8a 10 01
	00 00		 mov	 DWORD PTR [rdx+rcx*4+272], eax
  002f4	33 c0		 xor	 eax, eax
  002f6	83 f8 01	 cmp	 eax, 1
  002f9	74 2e		 je	 SHORT $LN74@z900_copy_
  002fb	8b 44 24 50	 mov	 eax, DWORD PTR ps$[rsp]
  002ff	48 8b 8c 24 a0
	01 00 00	 mov	 rcx, QWORD PTR prefetch$[rsp]
  00307	c6 84 01 10 18
	00 00 03	 mov	 BYTE PTR [rcx+rax+6160], 3
  0030f	8b 44 24 50	 mov	 eax, DWORD PTR ps$[rsp]
  00313	48 8b 8c 24 a0
	01 00 00	 mov	 rcx, QWORD PTR prefetch$[rsp]
  0031b	8b 94 24 90 00
	00 00		 mov	 edx, DWORD PTR midawptr$[rsp]
  00322	89 94 81 10 14
	00 00		 mov	 DWORD PTR [rcx+rax*4+5136], edx
$LN74@z900_copy_:
$LN72@z900_copy_:
  00329	48 8b 84 24 90
	01 00 00	 mov	 rax, QWORD PTR chanstat$[rsp]
  00331	c6 00 00	 mov	 BYTE PTR [rax], 0
  00334	33 c0		 xor	 eax, eax
  00336	85 c0		 test	 eax, eax
  00338	0f 85 39 ff ff
	ff		 jne	 $LN13@z900_copy_
$LN12@z900_copy_:

; 3484 :             if (*chanstat != 0)

  0033e	48 8b 84 24 90
	01 00 00	 mov	 rax, QWORD PTR chanstat$[rsp]
  00346	0f b6 00	 movzx	 eax, BYTE PTR [rax]
  00349	85 c0		 test	 eax, eax
  0034b	74 05		 je	 SHORT $LN75@z900_copy_

; 3485 :                 break;

  0034d	e9 67 05 00 00	 jmp	 $LN9@z900_copy_
$LN75@z900_copy_:

; 3486 : 
; 3487 :             /* Fetch MIDAW and set data address, length, flags */
; 3488 :             ARCH_DEP(fetch_midaw) (dev, code, ccwkey,

  00352	48 8b 84 24 90
	01 00 00	 mov	 rax, QWORD PTR chanstat$[rsp]
  0035a	48 89 44 24 40	 mov	 QWORD PTR [rsp+64], rax
  0035f	48 8d 44 24 61	 lea	 rax, QWORD PTR midawflg$[rsp]
  00364	48 89 44 24 38	 mov	 QWORD PTR [rsp+56], rax
  00369	48 8d 44 24 5c	 lea	 rax, QWORD PTR midawlen$[rsp]
  0036e	48 89 44 24 30	 mov	 QWORD PTR [rsp+48], rax
  00373	48 8d 84 24 80
	00 00 00	 lea	 rax, QWORD PTR midawdat$[rsp]
  0037b	48 89 44 24 28	 mov	 QWORD PTR [rsp+40], rax
  00380	8b 84 24 90 00
	00 00		 mov	 eax, DWORD PTR midawptr$[rsp]
  00387	89 44 24 20	 mov	 DWORD PTR [rsp+32], eax
  0038b	44 8b 8c 24 a0
	00 00 00	 mov	 r9d, DWORD PTR midawseq$[rsp]
  00393	44 0f b6 84 24
	60 01 00 00	 movzx	 r8d, BYTE PTR ccwkey$[rsp]
  0039c	0f b6 94 24 40
	01 00 00	 movzx	 edx, BYTE PTR code$[rsp]
  003a4	48 8b 8c 24 30
	01 00 00	 mov	 rcx, QWORD PTR dev$[rsp]
  003ac	e8 00 00 00 00	 call	 z900_fetch_midaw

; 3489 :                     midawseq, midawptr,
; 3490 :                     &midawdat, &midawlen, &midawflg, chanstat);
; 3491 : 
; 3492 :             /* Exit if fetch_midaw detected channel program check */
; 3493 :             if (prefetch->seq)

  003b1	48 8b 84 24 a0
	01 00 00	 mov	 rax, QWORD PTR prefetch$[rsp]
  003b9	83 38 00	 cmp	 DWORD PTR [rax], 0
  003bc	0f 84 88 00 00
	00		 je	 $LN76@z900_copy_

; 3494 :             {
; 3495 :                 prefetch->idawflag[ps] = midawflg;

  003c2	8b 44 24 50	 mov	 eax, DWORD PTR ps$[rsp]
  003c6	48 8b 8c 24 a0
	01 00 00	 mov	 rcx, QWORD PTR prefetch$[rsp]
  003ce	0f b6 54 24 61	 movzx	 edx, BYTE PTR midawflg$[rsp]
  003d3	88 94 01 10 19
	00 00		 mov	 BYTE PTR [rcx+rax+6416], dl

; 3496 :                 prefetch->dataaddr[ps] = midawdat;

  003da	8b 44 24 50	 mov	 eax, DWORD PTR ps$[rsp]
  003de	48 8b 8c 24 a0
	01 00 00	 mov	 rcx, QWORD PTR prefetch$[rsp]
  003e6	48 8b 94 24 80
	00 00 00	 mov	 rdx, QWORD PTR midawdat$[rsp]
  003ee	48 89 94 c1 10
	09 00 00	 mov	 QWORD PTR [rcx+rax*8+2320], rdx

; 3497 :                 prefetch->datalen[ps] = midawlen;

  003f6	8b 44 24 50	 mov	 eax, DWORD PTR ps$[rsp]
  003fa	0f b7 4c 24 5c	 movzx	 ecx, WORD PTR midawlen$[rsp]
  003ff	48 8b 94 24 a0
	01 00 00	 mov	 rdx, QWORD PTR prefetch$[rsp]
  00407	89 8c 82 10 05
	00 00		 mov	 DWORD PTR [rdx+rax*4+1296], ecx

; 3498 :                 if (*chanstat != 0)

  0040e	48 8b 84 24 90
	01 00 00	 mov	 rax, QWORD PTR chanstat$[rsp]
  00416	0f b6 00	 movzx	 eax, BYTE PTR [rax]
  00419	85 c0		 test	 eax, eax
  0041b	74 2b		 je	 SHORT $LN78@z900_copy_

; 3499 :                 {
; 3500 :                     prefetch->chanstat[ps] = *chanstat;

  0041d	8b 44 24 50	 mov	 eax, DWORD PTR ps$[rsp]
  00421	48 8b 8c 24 a0
	01 00 00	 mov	 rcx, QWORD PTR prefetch$[rsp]
  00429	48 8b 94 24 90
	01 00 00	 mov	 rdx, QWORD PTR chanstat$[rsp]
  00431	0f b6 12	 movzx	 edx, BYTE PTR [rdx]
  00434	88 54 01 10	 mov	 BYTE PTR [rcx+rax+16], dl

; 3501 :                     *chanstat = 0;

  00438	48 8b 84 24 90
	01 00 00	 mov	 rax, QWORD PTR chanstat$[rsp]
  00440	c6 00 00	 mov	 BYTE PTR [rax], 0

; 3502 :                     break;

  00443	e9 71 04 00 00	 jmp	 $LN9@z900_copy_
$LN78@z900_copy_:

; 3503 :                 }
; 3504 :             }

  00448	eb 14		 jmp	 SHORT $LN77@z900_copy_
$LN76@z900_copy_:

; 3505 :             else if (*chanstat != 0)

  0044a	48 8b 84 24 90
	01 00 00	 mov	 rax, QWORD PTR chanstat$[rsp]
  00452	0f b6 00	 movzx	 eax, BYTE PTR [rax]
  00455	85 c0		 test	 eax, eax
  00457	74 05		 je	 SHORT $LN79@z900_copy_

; 3506 :                 break;

  00459	e9 5b 04 00 00	 jmp	 $LN9@z900_copy_
$LN79@z900_copy_:
$LN77@z900_copy_:

; 3507 : 
; 3508 :             /* Channel program check if MIDAW length
; 3509 :                exceeds the remaining CCW count */
; 3510 :             if (midawlen > midawrem)

  0045e	0f b7 44 24 5c	 movzx	 eax, WORD PTR midawlen$[rsp]
  00463	0f b7 4c 24 68	 movzx	 ecx, WORD PTR midawrem$[rsp]
  00468	3b c1		 cmp	 eax, ecx
  0046a	7e 36		 jle	 SHORT $LN80@z900_copy_
$LN16@z900_copy_:

; 3511 :             {
; 3512 :                 set_chanstat(CSW_PROGC);

  0046c	48 8b 84 24 a0
	01 00 00	 mov	 rax, QWORD PTR prefetch$[rsp]
  00474	83 38 00	 cmp	 DWORD PTR [rax], 0
  00477	74 13		 je	 SHORT $LN81@z900_copy_
  00479	8b 44 24 50	 mov	 eax, DWORD PTR ps$[rsp]
  0047d	48 8b 8c 24 a0
	01 00 00	 mov	 rcx, QWORD PTR prefetch$[rsp]
  00485	c6 44 01 10 20	 mov	 BYTE PTR [rcx+rax+16], 32 ; 00000020H
  0048a	eb 0b		 jmp	 SHORT $LN82@z900_copy_
$LN81@z900_copy_:
  0048c	48 8b 84 24 90
	01 00 00	 mov	 rax, QWORD PTR chanstat$[rsp]
  00494	c6 00 20	 mov	 BYTE PTR [rax], 32	; 00000020H
$LN82@z900_copy_:
  00497	33 c0		 xor	 eax, eax
  00499	85 c0		 test	 eax, eax
  0049b	75 cf		 jne	 SHORT $LN16@z900_copy_

; 3513 :                 return;

  0049d	e9 08 15 00 00	 jmp	 $LN1@z900_copy_
$LN80@z900_copy_:

; 3514 :             }
; 3515 : 
; 3516 :             /* MIDAW length may be zero during prefetch operations */
; 3517 :             if (!prefetch->seq || (prefetch->seq && midawlen))

  004a2	48 8b 84 24 a0
	01 00 00	 mov	 rax, QWORD PTR prefetch$[rsp]
  004aa	83 38 00	 cmp	 DWORD PTR [rax], 0
  004ad	74 1e		 je	 SHORT $LN84@z900_copy_
  004af	48 8b 84 24 a0
	01 00 00	 mov	 rax, QWORD PTR prefetch$[rsp]
  004b7	83 38 00	 cmp	 DWORD PTR [rax], 0
  004ba	0f 84 e3 03 00
	00		 je	 $LN83@z900_copy_
  004c0	0f b7 44 24 5c	 movzx	 eax, WORD PTR midawlen$[rsp]
  004c5	85 c0		 test	 eax, eax
  004c7	0f 84 d6 03 00
	00		 je	 $LN83@z900_copy_
$LN84@z900_copy_:

; 3518 :             {
; 3519 : 
; 3520 :                 /* Perform data movement unless SKIP flag is set in
; 3521 :                    MIDAW */
; 3522 :                 if ((midawflg & MIDAW_SKIP) ==0)

  004cd	0f b6 44 24 61	 movzx	 eax, BYTE PTR midawflg$[rsp]
  004d2	83 e0 40	 and	 eax, 64			; 00000040H
  004d5	85 c0		 test	 eax, eax
  004d7	0f 85 e5 02 00
	00		 jne	 $LN85@z900_copy_

; 3523 :                 {
; 3524 :                     /* Note: MIDAW data area cannot cross a page
; 3525 :                        boundary. The fetch_midaw function enforces this
; 3526 :                        restriction */
; 3527 : 
; 3528 :                     /* Channel protection check if MIDAW data location
; 3529 :                        is fetch protected, or if location is store
; 3530 :                        protected and command is READ, READ BACKWARD, or
; 3531 :                        SENSE */
; 3532 :                     storkey = ARCH_DEP( get_dev_storage_key )( dev, midawdat );

  004dd	48 8b 94 24 80
	00 00 00	 mov	 rdx, QWORD PTR midawdat$[rsp]
  004e5	48 8b 8c 24 30
	01 00 00	 mov	 rcx, QWORD PTR dev$[rsp]
  004ed	e8 00 00 00 00	 call	 z900_get_dev_storage_key
  004f2	88 44 24 60	 mov	 BYTE PTR storkey$[rsp], al

; 3533 :                     if (ccwkey != 0
; 3534 :                         && (storkey & STORKEY_KEY) != ccwkey
; 3535 :                         && ((storkey & STORKEY_FETCH) || to_memory))

  004f6	0f b6 84 24 60
	01 00 00	 movzx	 eax, BYTE PTR ccwkey$[rsp]
  004fe	85 c0		 test	 eax, eax
  00500	74 61		 je	 SHORT $LN86@z900_copy_
  00502	0f b6 44 24 60	 movzx	 eax, BYTE PTR storkey$[rsp]
  00507	25 f0 00 00 00	 and	 eax, 240		; 000000f0H
  0050c	0f b6 8c 24 60
	01 00 00	 movzx	 ecx, BYTE PTR ccwkey$[rsp]
  00514	3b c1		 cmp	 eax, ecx
  00516	74 4b		 je	 SHORT $LN86@z900_copy_
  00518	0f b6 44 24 60	 movzx	 eax, BYTE PTR storkey$[rsp]
  0051d	83 e0 08	 and	 eax, 8
  00520	85 c0		 test	 eax, eax
  00522	75 09		 jne	 SHORT $LN87@z900_copy_
  00524	0f b6 44 24 58	 movzx	 eax, BYTE PTR to_memory$[rsp]
  00529	85 c0		 test	 eax, eax
  0052b	74 36		 je	 SHORT $LN86@z900_copy_
$LN87@z900_copy_:
$LN19@z900_copy_:

; 3536 :                     {
; 3537 :                         set_chanstat(CSW_PROTC);

  0052d	48 8b 84 24 a0
	01 00 00	 mov	 rax, QWORD PTR prefetch$[rsp]
  00535	83 38 00	 cmp	 DWORD PTR [rax], 0
  00538	74 13		 je	 SHORT $LN88@z900_copy_
  0053a	8b 44 24 50	 mov	 eax, DWORD PTR ps$[rsp]
  0053e	48 8b 8c 24 a0
	01 00 00	 mov	 rcx, QWORD PTR prefetch$[rsp]
  00546	c6 44 01 10 10	 mov	 BYTE PTR [rcx+rax+16], 16
  0054b	eb 0b		 jmp	 SHORT $LN89@z900_copy_
$LN88@z900_copy_:
  0054d	48 8b 84 24 90
	01 00 00	 mov	 rax, QWORD PTR chanstat$[rsp]
  00555	c6 00 10	 mov	 BYTE PTR [rax], 16
$LN89@z900_copy_:
  00558	33 c0		 xor	 eax, eax
  0055a	85 c0		 test	 eax, eax
  0055c	75 cf		 jne	 SHORT $LN19@z900_copy_

; 3538 :                         return;

  0055e	e9 47 14 00 00	 jmp	 $LN1@z900_copy_
$LN86@z900_copy_:

; 3539 :                     }
; 3540 : 
; 3541 :                     /* Ensure memcpy will stay within buffer         */
; 3542 :                     /* Channel data check if outside buffer          */
; 3543 :                     /* SA22-7201-05:                                 */
; 3544 :                     /*  p. 16-27, Channel-Data Check                 */
; 3545 :                     if (readbackwards)

  00563	0f b6 44 24 59	 movzx	 eax, BYTE PTR readbackwards$[rsp]
  00568	85 c0		 test	 eax, eax
  0056a	74 7e		 je	 SHORT $LN90@z900_copy_

; 3546 :                     {
; 3547 :                         iobufptr = iobuf + dev->curblkrem + midawrem -

  0056c	48 8b 84 24 30
	01 00 00	 mov	 rax, QWORD PTR dev$[rsp]
  00574	8b 80 18 10 00
	00		 mov	 eax, DWORD PTR [rax+4120]
  0057a	48 8b 8c 24 78
	01 00 00	 mov	 rcx, QWORD PTR iobuf$[rsp]
  00582	48 03 c8	 add	 rcx, rax
  00585	48 8b c1	 mov	 rax, rcx
  00588	0f b7 4c 24 68	 movzx	 ecx, WORD PTR midawrem$[rsp]
  0058d	48 03 c1	 add	 rax, rcx
  00590	0f b7 4c 24 5c	 movzx	 ecx, WORD PTR midawlen$[rsp]
  00595	48 2b c1	 sub	 rax, rcx
  00598	48 89 84 24 98
	00 00 00	 mov	 QWORD PTR iobufptr$[rsp], rax

; 3548 :                                    midawlen;
; 3549 :                         if (!midawlen                        ||
; 3550 :                             (iobufptr + midawlen) > iobufend ||

  005a0	0f b7 44 24 5c	 movzx	 eax, WORD PTR midawlen$[rsp]
  005a5	85 c0		 test	 eax, eax
  005a7	74 2f		 je	 SHORT $LN93@z900_copy_
  005a9	0f b7 44 24 5c	 movzx	 eax, WORD PTR midawlen$[rsp]
  005ae	48 8b 8c 24 98
	00 00 00	 mov	 rcx, QWORD PTR iobufptr$[rsp]
  005b6	48 03 c8	 add	 rcx, rax
  005b9	48 8b c1	 mov	 rax, rcx
  005bc	48 3b 84 24 88
	01 00 00	 cmp	 rax, QWORD PTR iobufend$[rsp]
  005c4	77 12		 ja	 SHORT $LN93@z900_copy_
  005c6	48 8b 84 24 80
	01 00 00	 mov	 rax, QWORD PTR iobufstart$[rsp]
  005ce	48 39 84 24 98
	00 00 00	 cmp	 QWORD PTR iobufptr$[rsp], rax
  005d6	73 10		 jae	 SHORT $LN92@z900_copy_
$LN93@z900_copy_:

; 3551 :                             iobufptr < iobufstart)
; 3552 :                         {
; 3553 :                             *chanstat = CSW_CDC;

  005d8	48 8b 84 24 90
	01 00 00	 mov	 rax, QWORD PTR chanstat$[rsp]
  005e0	c6 00 08	 mov	 BYTE PTR [rax], 8

; 3554 :                             return;

  005e3	e9 c2 13 00 00	 jmp	 $LN1@z900_copy_
$LN92@z900_copy_:

; 3555 :                         }
; 3556 :                     }

  005e8	eb 6e		 jmp	 SHORT $LN91@z900_copy_
$LN90@z900_copy_:

; 3557 :                     else if (!midawlen                     ||
; 3558 :                              (iobuf + midawlen) > iobufend ||

  005ea	0f b7 44 24 5c	 movzx	 eax, WORD PTR midawlen$[rsp]
  005ef	85 c0		 test	 eax, eax
  005f1	74 2f		 je	 SHORT $LN95@z900_copy_
  005f3	0f b7 44 24 5c	 movzx	 eax, WORD PTR midawlen$[rsp]
  005f8	48 8b 8c 24 78
	01 00 00	 mov	 rcx, QWORD PTR iobuf$[rsp]
  00600	48 03 c8	 add	 rcx, rax
  00603	48 8b c1	 mov	 rax, rcx
  00606	48 3b 84 24 88
	01 00 00	 cmp	 rax, QWORD PTR iobufend$[rsp]
  0060e	77 12		 ja	 SHORT $LN95@z900_copy_
  00610	48 8b 84 24 80
	01 00 00	 mov	 rax, QWORD PTR iobufstart$[rsp]
  00618	48 39 84 24 78
	01 00 00	 cmp	 QWORD PTR iobuf$[rsp], rax
  00620	73 36		 jae	 SHORT $LN94@z900_copy_
$LN95@z900_copy_:
$LN22@z900_copy_:

; 3559 :                              iobuf < iobufstart)
; 3560 :                     {
; 3561 :                             set_chanstat(CSW_CDC);

  00622	48 8b 84 24 a0
	01 00 00	 mov	 rax, QWORD PTR prefetch$[rsp]
  0062a	83 38 00	 cmp	 DWORD PTR [rax], 0
  0062d	74 13		 je	 SHORT $LN96@z900_copy_
  0062f	8b 44 24 50	 mov	 eax, DWORD PTR ps$[rsp]
  00633	48 8b 8c 24 a0
	01 00 00	 mov	 rcx, QWORD PTR prefetch$[rsp]
  0063b	c6 44 01 10 08	 mov	 BYTE PTR [rcx+rax+16], 8
  00640	eb 0b		 jmp	 SHORT $LN97@z900_copy_
$LN96@z900_copy_:
  00642	48 8b 84 24 90
	01 00 00	 mov	 rax, QWORD PTR chanstat$[rsp]
  0064a	c6 00 08	 mov	 BYTE PTR [rax], 8
$LN97@z900_copy_:
  0064d	33 c0		 xor	 eax, eax
  0064f	85 c0		 test	 eax, eax
  00651	75 cf		 jne	 SHORT $LN22@z900_copy_

; 3562 :                             return;

  00653	e9 52 13 00 00	 jmp	 $LN1@z900_copy_
$LN94@z900_copy_:
$LN91@z900_copy_:

; 3563 :                     }
; 3564 : 
; 3565 :                     /* Set the main storage reference and change
; 3566 :                        bits */
; 3567 :                     if (to_memory)

  00658	0f b6 44 24 58	 movzx	 eax, BYTE PTR to_memory$[rsp]
  0065d	85 c0		 test	 eax, eax
  0065f	74 1a		 je	 SHORT $LN98@z900_copy_

; 3568 :                         ARCH_DEP( or_dev_storage_key )( dev, midawdat, (STORKEY_REF | STORKEY_CHANGE) );

  00661	41 b0 06	 mov	 r8b, 6
  00664	48 8b 94 24 80
	00 00 00	 mov	 rdx, QWORD PTR midawdat$[rsp]
  0066c	48 8b 8c 24 30
	01 00 00	 mov	 rcx, QWORD PTR dev$[rsp]
  00674	e8 00 00 00 00	 call	 z900_or_dev_storage_key
  00679	eb 18		 jmp	 SHORT $LN99@z900_copy_
$LN98@z900_copy_:

; 3569 :                     else
; 3570 :                         ARCH_DEP( or_dev_storage_key )( dev, midawdat, STORKEY_REF );

  0067b	41 b0 04	 mov	 r8b, 4
  0067e	48 8b 94 24 80
	00 00 00	 mov	 rdx, QWORD PTR midawdat$[rsp]
  00686	48 8b 8c 24 30
	01 00 00	 mov	 rcx, QWORD PTR dev$[rsp]
  0068e	e8 00 00 00 00	 call	 z900_or_dev_storage_key
$LN99@z900_copy_:

; 3571 : 
; 3572 :                     /* Copy data between main storage and channel
; 3573 :                        buffer */
; 3574 :                     if (readbackwards)

  00693	0f b6 44 24 59	 movzx	 eax, BYTE PTR readbackwards$[rsp]
  00698	85 c0		 test	 eax, eax
  0069a	74 6a		 je	 SHORT $LN100@z900_copy_

; 3575 :                     {
; 3576 :                         midawdat = (midawdat - midawlen) + 1;

  0069c	0f b7 44 24 5c	 movzx	 eax, WORD PTR midawlen$[rsp]
  006a1	48 8b 8c 24 80
	00 00 00	 mov	 rcx, QWORD PTR midawdat$[rsp]
  006a9	48 2b c8	 sub	 rcx, rax
  006ac	48 8b c1	 mov	 rax, rcx
  006af	48 ff c0	 inc	 rax
  006b2	48 89 84 24 80
	00 00 00	 mov	 QWORD PTR midawdat$[rsp], rax

; 3577 :                         memcpy_backwards (dev->mainstor + midawdat,

  006ba	0f b7 44 24 5c	 movzx	 eax, WORD PTR midawlen$[rsp]
  006bf	48 8b 8c 24 30
	01 00 00	 mov	 rcx, QWORD PTR dev$[rsp]
  006c7	48 8b 89 80 00
	00 00		 mov	 rcx, QWORD PTR [rcx+128]
  006ce	48 03 8c 24 80
	00 00 00	 add	 rcx, QWORD PTR midawdat$[rsp]
  006d6	44 8b c0	 mov	 r8d, eax
  006d9	48 8b 94 24 98
	00 00 00	 mov	 rdx, QWORD PTR iobufptr$[rsp]
  006e1	e8 00 00 00 00	 call	 memcpy_backwards

; 3578 :                                           iobufptr,
; 3579 :                                           midawlen);
; 3580 : 
; 3581 :                         /* Decrement buffer pointer */
; 3582 :                         iobuf -= midawlen;

  006e6	0f b7 44 24 5c	 movzx	 eax, WORD PTR midawlen$[rsp]
  006eb	48 8b 8c 24 78
	01 00 00	 mov	 rcx, QWORD PTR iobuf$[rsp]
  006f3	48 2b c8	 sub	 rcx, rax
  006f6	48 8b c1	 mov	 rax, rcx
  006f9	48 89 84 24 78
	01 00 00	 mov	 QWORD PTR iobuf$[rsp], rax

; 3583 :                     }

  00701	e9 bc 00 00 00	 jmp	 $LN101@z900_copy_
$LN100@z900_copy_:

; 3584 :                     else
; 3585 :                     {
; 3586 :                         if (to_iobuf)

  00706	0f b6 44 24 62	 movzx	 eax, BYTE PTR to_iobuf$[rsp]
  0070b	85 c0		 test	 eax, eax
  0070d	74 6d		 je	 SHORT $LN102@z900_copy_

; 3587 :                         {
; 3588 :                             memcpy (iobuf,

  0070f	0f b7 44 24 5c	 movzx	 eax, WORD PTR midawlen$[rsp]
  00714	48 8b 8c 24 30
	01 00 00	 mov	 rcx, QWORD PTR dev$[rsp]
  0071c	48 8b 89 80 00
	00 00		 mov	 rcx, QWORD PTR [rcx+128]
  00723	48 03 8c 24 80
	00 00 00	 add	 rcx, QWORD PTR midawdat$[rsp]
  0072b	48 8b bc 24 78
	01 00 00	 mov	 rdi, QWORD PTR iobuf$[rsp]
  00733	48 8b f1	 mov	 rsi, rcx
  00736	8b c8		 mov	 ecx, eax
  00738	f3 a4		 rep movsb

; 3589 :                                     dev->mainstor + midawdat,
; 3590 :                                     midawlen);
; 3591 :                             prefetch->pos += midawlen;

  0073a	0f b7 44 24 5c	 movzx	 eax, WORD PTR midawlen$[rsp]
  0073f	48 8b 8c 24 a0
	01 00 00	 mov	 rcx, QWORD PTR prefetch$[rsp]
  00747	03 41 04	 add	 eax, DWORD PTR [rcx+4]
  0074a	48 8b 8c 24 a0
	01 00 00	 mov	 rcx, QWORD PTR prefetch$[rsp]
  00752	89 41 04	 mov	 DWORD PTR [rcx+4], eax

; 3592 :                             if (prefetch->seq)

  00755	48 8b 84 24 a0
	01 00 00	 mov	 rax, QWORD PTR prefetch$[rsp]
  0075d	83 38 00	 cmp	 DWORD PTR [rax], 0
  00760	74 18		 je	 SHORT $LN104@z900_copy_

; 3593 :                                 prefetch->datalen[ps] = midawlen;

  00762	8b 44 24 50	 mov	 eax, DWORD PTR ps$[rsp]
  00766	0f b7 4c 24 5c	 movzx	 ecx, WORD PTR midawlen$[rsp]
  0076b	48 8b 94 24 a0
	01 00 00	 mov	 rdx, QWORD PTR prefetch$[rsp]
  00773	89 8c 82 10 05
	00 00		 mov	 DWORD PTR [rdx+rax*4+1296], ecx
$LN104@z900_copy_:

; 3594 :                         }

  0077a	eb 2b		 jmp	 SHORT $LN103@z900_copy_
$LN102@z900_copy_:

; 3595 :                         else
; 3596 :                         {
; 3597 :                             memcpy (dev->mainstor + midawdat,

  0077c	0f b7 44 24 5c	 movzx	 eax, WORD PTR midawlen$[rsp]
  00781	48 8b 8c 24 30
	01 00 00	 mov	 rcx, QWORD PTR dev$[rsp]
  00789	48 8b 89 80 00
	00 00		 mov	 rcx, QWORD PTR [rcx+128]
  00790	48 03 8c 24 80
	00 00 00	 add	 rcx, QWORD PTR midawdat$[rsp]
  00798	48 8b f9	 mov	 rdi, rcx
  0079b	48 8b b4 24 78
	01 00 00	 mov	 rsi, QWORD PTR iobuf$[rsp]
  007a3	8b c8		 mov	 ecx, eax
  007a5	f3 a4		 rep movsb
$LN103@z900_copy_:

; 3598 :                                     iobuf,
; 3599 :                                     midawlen);
; 3600 :                         }
; 3601 : 
; 3602 :                         /* Increment buffer pointer */
; 3603 :                         iobuf += midawlen;

  007a7	0f b7 44 24 5c	 movzx	 eax, WORD PTR midawlen$[rsp]
  007ac	48 8b 8c 24 78
	01 00 00	 mov	 rcx, QWORD PTR iobuf$[rsp]
  007b4	48 03 c8	 add	 rcx, rax
  007b7	48 8b c1	 mov	 rax, rcx
  007ba	48 89 84 24 78
	01 00 00	 mov	 QWORD PTR iobuf$[rsp], rax
$LN101@z900_copy_:
$LN85@z900_copy_:

; 3604 :                     }
; 3605 : 
; 3606 :                 } /* end if(!MIDAW_FLAG_SKIP) */
; 3607 : 
; 3608 :                 /* Display the MIDAW if CCW tracing is on */
; 3609 :                 if (!prefetch->seq && dev->ccwtrace)

  007c2	48 8b 84 24 a0
	01 00 00	 mov	 rax, QWORD PTR prefetch$[rsp]
  007ca	83 38 00	 cmp	 DWORD PTR [rax], 0
  007cd	0f 85 bd 00 00
	00		 jne	 $LN105@z900_copy_
  007d3	48 8b 84 24 30
	01 00 00	 mov	 rax, QWORD PTR dev$[rsp]
  007db	8b 80 f8 05 00
	00		 mov	 eax, DWORD PTR [rax+1528]
  007e1	c1 e8 0f	 shr	 eax, 15
  007e4	83 e0 01	 and	 eax, 1
  007e7	85 c0		 test	 eax, eax
  007e9	0f 84 a1 00 00
	00		 je	 $LN105@z900_copy_

; 3610 :                 {
; 3611 :                     /* Trace the CCW first, then the MIDAW, but only
; 3612 :                        if this is a read type CCW as determined by
; 3613 :                        the direction of the copying. (For write type
; 3614 :                        CCws, channel code properly traces CCWs before
; 3615 :                        we're even called.)
; 3616 :                     */
; 3617 :                     if (to_memory)

  007ef	0f b6 44 24 58	 movzx	 eax, BYTE PTR to_memory$[rsp]
  007f4	85 c0		 test	 eax, eax
  007f6	74 51		 je	 SHORT $LN106@z900_copy_

; 3618 :                         DISPLAY_CCW( dev, ccw, addr, count, flags );

  007f8	48 8d 05 00 00
	00 00		 lea	 rax, OFFSET FLAT:$SG196256
  007ff	48 89 44 24 38	 mov	 QWORD PTR [rsp+56], rax
  00804	c7 44 24 30 22
	0e 00 00	 mov	 DWORD PTR [rsp+48], 3618 ; 00000e22H
  0080c	48 8d 05 00 00
	00 00		 lea	 rax, OFFSET FLAT:$SG196257
  00813	48 89 44 24 28	 mov	 QWORD PTR [rsp+40], rax
  00818	0f b6 84 24 48
	01 00 00	 movzx	 eax, BYTE PTR flags$[rsp]
  00820	88 44 24 20	 mov	 BYTE PTR [rsp+32], al
  00824	44 8b 8c 24 58
	01 00 00	 mov	 r9d, DWORD PTR count$[rsp]
  0082c	44 8b 84 24 50
	01 00 00	 mov	 r8d, DWORD PTR addr$[rsp]
  00834	48 8b 94 24 38
	01 00 00	 mov	 rdx, QWORD PTR ccw$[rsp]
  0083c	48 8b 8c 24 30
	01 00 00	 mov	 rcx, QWORD PTR dev$[rsp]
  00844	e8 00 00 00 00	 call	 _display_ccw
$LN106@z900_copy_:

; 3619 :                     DISPLAY_IDAW( dev, PF_MIDAW, midawflg, midawdat, midawlen );

  00849	48 8d 05 00 00
	00 00		 lea	 rax, OFFSET FLAT:$SG196258
  00850	48 89 44 24 38	 mov	 QWORD PTR [rsp+56], rax
  00855	c7 44 24 30 23
	0e 00 00	 mov	 DWORD PTR [rsp+48], 3619 ; 00000e23H
  0085d	48 8d 05 00 00
	00 00		 lea	 rax, OFFSET FLAT:$SG196259
  00864	48 89 44 24 28	 mov	 QWORD PTR [rsp+40], rax
  00869	0f b7 44 24 5c	 movzx	 eax, WORD PTR midawlen$[rsp]
  0086e	66 89 44 24 20	 mov	 WORD PTR [rsp+32], ax
  00873	4c 8b 8c 24 80
	00 00 00	 mov	 r9, QWORD PTR midawdat$[rsp]
  0087b	44 0f b6 44 24
	61		 movzx	 r8d, BYTE PTR midawflg$[rsp]
  00881	b2 03		 mov	 dl, 3
  00883	48 8b 8c 24 30
	01 00 00	 mov	 rcx, QWORD PTR dev$[rsp]
  0088b	e8 00 00 00 00	 call	 _display_idaw
$LN105@z900_copy_:

; 3620 :                 }
; 3621 : #if DEBUG_DUMP
; 3622 :                 if (dev->ccwtrace)
; 3623 :                 {
; 3624 :                     if (to_memory)
; 3625 :                         DUMP("iobuf:", iobuf, midawlen);
; 3626 :                     DUMP_STORAGE("Storage:", midawdat, midawlen);
; 3627 :                     if (to_iobuf)
; 3628 :                         DUMP("iobuf:", iobuf, midawlen);
; 3629 :                 }
; 3630 : #endif
; 3631 :                 /* Decrement remaining count */
; 3632 :                 midawrem -= midawlen;

  00890	0f b7 44 24 5c	 movzx	 eax, WORD PTR midawlen$[rsp]
  00895	0f b7 4c 24 68	 movzx	 ecx, WORD PTR midawrem$[rsp]
  0089a	2b c8		 sub	 ecx, eax
  0089c	8b c1		 mov	 eax, ecx
  0089e	66 89 44 24 68	 mov	 WORD PTR midawrem$[rsp], ax
$LN83@z900_copy_:

; 3633 : 
; 3634 :             }
; 3635 : 
; 3636 :             /* Increment to next MIDAW address */
; 3637 :             midawptr += 16;

  008a3	8b 84 24 90 00
	00 00		 mov	 eax, DWORD PTR midawptr$[rsp]
  008aa	83 c0 10	 add	 eax, 16
  008ad	89 84 24 90 00
	00 00		 mov	 DWORD PTR midawptr$[rsp], eax

; 3638 : 
; 3639 :         } /* end for(midawseq) */

  008b4	e9 2b f9 ff ff	 jmp	 $LN8@z900_copy_
$LN9@z900_copy_:

; 3640 : 
; 3641 :         /* Channel program check if sum of MIDAW lengths
; 3642 :            did not exhaust the CCW count and no pending status */
; 3643 :         if (1
; 3644 :             && midawrem > 0
; 3645 :             && *chanstat != 0
; 3646 :             && !(prefetch->seq && prefetch->chanstat[ps])

  008b9	33 c0		 xor	 eax, eax
  008bb	83 f8 01	 cmp	 eax, 1
  008be	74 6b		 je	 SHORT $LN107@z900_copy_
  008c0	0f b7 44 24 68	 movzx	 eax, WORD PTR midawrem$[rsp]
  008c5	85 c0		 test	 eax, eax
  008c7	7e 62		 jle	 SHORT $LN107@z900_copy_
  008c9	48 8b 84 24 90
	01 00 00	 mov	 rax, QWORD PTR chanstat$[rsp]
  008d1	0f b6 00	 movzx	 eax, BYTE PTR [rax]
  008d4	85 c0		 test	 eax, eax
  008d6	74 53		 je	 SHORT $LN107@z900_copy_
  008d8	48 8b 84 24 a0
	01 00 00	 mov	 rax, QWORD PTR prefetch$[rsp]
  008e0	83 38 00	 cmp	 DWORD PTR [rax], 0
  008e3	74 15		 je	 SHORT $LN108@z900_copy_
  008e5	8b 44 24 50	 mov	 eax, DWORD PTR ps$[rsp]
  008e9	48 8b 8c 24 a0
	01 00 00	 mov	 rcx, QWORD PTR prefetch$[rsp]
  008f1	0f b6 44 01 10	 movzx	 eax, BYTE PTR [rcx+rax+16]
  008f6	85 c0		 test	 eax, eax
  008f8	75 31		 jne	 SHORT $LN107@z900_copy_
$LN108@z900_copy_:
$LN25@z900_copy_:

; 3647 :         )
; 3648 :             set_chanstat( CSW_PROGC );

  008fa	48 8b 84 24 a0
	01 00 00	 mov	 rax, QWORD PTR prefetch$[rsp]
  00902	83 38 00	 cmp	 DWORD PTR [rax], 0
  00905	74 13		 je	 SHORT $LN109@z900_copy_
  00907	8b 44 24 50	 mov	 eax, DWORD PTR ps$[rsp]
  0090b	48 8b 8c 24 a0
	01 00 00	 mov	 rcx, QWORD PTR prefetch$[rsp]
  00913	c6 44 01 10 20	 mov	 BYTE PTR [rcx+rax+16], 32 ; 00000020H
  00918	eb 0b		 jmp	 SHORT $LN110@z900_copy_
$LN109@z900_copy_:
  0091a	48 8b 84 24 90
	01 00 00	 mov	 rax, QWORD PTR chanstat$[rsp]
  00922	c6 00 20	 mov	 BYTE PTR [rax], 32	; 00000020H
$LN110@z900_copy_:
  00925	33 c0		 xor	 eax, eax
  00927	85 c0		 test	 eax, eax
  00929	75 cf		 jne	 SHORT $LN25@z900_copy_
$LN107@z900_copy_:

; 3649 : 
; 3650 :     } /* end if(CCW_FLAGS_MIDAW) */

  0092b	e9 7a 10 00 00	 jmp	 $LN68@z900_copy_
$LN67@z900_copy_:

; 3651 :     else
; 3652 : #endif /*defined(FEATURE_MIDAW_FACILITY)*/
; 3653 :     /* Move data when indirect data addressing is used */
; 3654 :     if (flags & CCW_FLAGS_IDA)

  00930	0f b6 84 24 48
	01 00 00	 movzx	 eax, BYTE PTR flags$[rsp]
  00938	83 e0 04	 and	 eax, 4
  0093b	85 c0		 test	 eax, eax
  0093d	0f 84 4e 09 00
	00		 je	 $LN111@z900_copy_

; 3655 :     {
; 3656 :         if (prefetch->seq)

  00943	48 8b 84 24 a0
	01 00 00	 mov	 rax, QWORD PTR prefetch$[rsp]
  0094b	83 38 00	 cmp	 DWORD PTR [rax], 0
  0094e	74 17		 je	 SHORT $LN113@z900_copy_

; 3657 :             prefetch->datalen[ps] = 0;

  00950	8b 44 24 50	 mov	 eax, DWORD PTR ps$[rsp]
  00954	48 8b 8c 24 a0
	01 00 00	 mov	 rcx, QWORD PTR prefetch$[rsp]
  0095c	c7 84 81 10 05
	00 00 00 00 00
	00		 mov	 DWORD PTR [rcx+rax*4+1296], 0
$LN113@z900_copy_:

; 3658 : 
; 3659 :         idawaddr = addr;

  00967	8b 84 24 50 01
	00 00		 mov	 eax, DWORD PTR addr$[rsp]
  0096e	89 44 24 78	 mov	 DWORD PTR idawaddr$[rsp], eax

; 3660 :         idacount = count;

  00972	0f b7 84 24 58
	01 00 00	 movzx	 eax, WORD PTR count$[rsp]
  0097a	66 89 44 24 64	 mov	 WORD PTR idacount$[rsp], ax

; 3661 :         idasize = (idawfmt == PF_IDAW1) ? 4 : 8;

  0097f	0f b6 84 24 68
	01 00 00	 movzx	 eax, BYTE PTR idawfmt$[rsp]
  00987	83 f8 01	 cmp	 eax, 1
  0098a	75 0d		 jne	 SHORT $LN193@z900_copy_
  0098c	c7 84 24 ac 00
	00 00 04 00 00
	00		 mov	 DWORD PTR tv405[rsp], 4
  00997	eb 0b		 jmp	 SHORT $LN194@z900_copy_
$LN193@z900_copy_:
  00999	c7 84 24 ac 00
	00 00 08 00 00
	00		 mov	 DWORD PTR tv405[rsp], 8
$LN194@z900_copy_:
  009a4	8b 84 24 ac 00
	00 00		 mov	 eax, DWORD PTR tv405[rsp]
  009ab	89 84 24 b0 00
	00 00		 mov	 DWORD PTR idasize$[rsp], eax

; 3662 : 
; 3663 :         for (idaseq = 0;

  009b2	c7 84 24 a4 00
	00 00 00 00 00
	00		 mov	 DWORD PTR idaseq$[rsp], 0
  009bd	eb 10		 jmp	 SHORT $LN28@z900_copy_
$LN26@z900_copy_:

; 3666 :                 !(prefetch->seq &&
; 3667 :                     (prefetch->chanstat[ps] ||
; 3668 :                         ((ps+1) < prefetch->seq &&
; 3669 :                             prefetch->chanstat[ps+1])));
; 3670 :              idaseq++)

  009bf	8b 84 24 a4 00
	00 00		 mov	 eax, DWORD PTR idaseq$[rsp]
  009c6	ff c0		 inc	 eax
  009c8	89 84 24 a4 00
	00 00		 mov	 DWORD PTR idaseq$[rsp], eax
$LN28@z900_copy_:

; 3664 :              idacount > 0 &&
; 3665 :                 chanstat != 0 &&

  009cf	0f b7 44 24 64	 movzx	 eax, WORD PTR idacount$[rsp]
  009d4	85 c0		 test	 eax, eax
  009d6	0f 8e b0 08 00
	00		 jle	 $LN27@z900_copy_
  009dc	48 83 bc 24 90
	01 00 00 00	 cmp	 QWORD PTR chanstat$[rsp], 0
  009e5	0f 84 a1 08 00
	00		 je	 $LN27@z900_copy_
  009eb	48 8b 84 24 a0
	01 00 00	 mov	 rax, QWORD PTR prefetch$[rsp]
  009f3	83 38 00	 cmp	 DWORD PTR [rax], 0
  009f6	74 48		 je	 SHORT $LN114@z900_copy_
  009f8	8b 44 24 50	 mov	 eax, DWORD PTR ps$[rsp]
  009fc	48 8b 8c 24 a0
	01 00 00	 mov	 rcx, QWORD PTR prefetch$[rsp]
  00a04	0f b6 44 01 10	 movzx	 eax, BYTE PTR [rcx+rax+16]
  00a09	85 c0		 test	 eax, eax
  00a0b	0f 85 7b 08 00
	00		 jne	 $LN27@z900_copy_
  00a11	8b 44 24 50	 mov	 eax, DWORD PTR ps$[rsp]
  00a15	ff c0		 inc	 eax
  00a17	48 8b 8c 24 a0
	01 00 00	 mov	 rcx, QWORD PTR prefetch$[rsp]
  00a1f	3b 01		 cmp	 eax, DWORD PTR [rcx]
  00a21	73 1d		 jae	 SHORT $LN115@z900_copy_
  00a23	8b 44 24 50	 mov	 eax, DWORD PTR ps$[rsp]
  00a27	ff c0		 inc	 eax
  00a29	8b c0		 mov	 eax, eax
  00a2b	48 8b 8c 24 a0
	01 00 00	 mov	 rcx, QWORD PTR prefetch$[rsp]
  00a33	0f b6 44 01 10	 movzx	 eax, BYTE PTR [rcx+rax+16]
  00a38	85 c0		 test	 eax, eax
  00a3a	0f 85 4c 08 00
	00		 jne	 $LN27@z900_copy_
$LN115@z900_copy_:
$LN114@z900_copy_:
$LN31@z900_copy_:

; 3671 :         {
; 3672 :             /* Get new prefetch entry */
; 3673 :             get_new_prefetch_entry( idawfmt, idawaddr );

  00a40	48 8b 84 24 a0
	01 00 00	 mov	 rax, QWORD PTR prefetch$[rsp]
  00a48	83 38 00	 cmp	 DWORD PTR [rax], 0
  00a4b	0f 84 a9 00 00
	00		 je	 $LN116@z900_copy_
  00a51	48 8b 84 24 a0
	01 00 00	 mov	 rax, QWORD PTR prefetch$[rsp]
  00a59	8b 00		 mov	 eax, DWORD PTR [rax]
  00a5b	89 44 24 50	 mov	 DWORD PTR ps$[rsp], eax
  00a5f	48 8b 84 24 a0
	01 00 00	 mov	 rax, QWORD PTR prefetch$[rsp]
  00a67	8b 00		 mov	 eax, DWORD PTR [rax]
  00a69	ff c0		 inc	 eax
  00a6b	48 8b 8c 24 a0
	01 00 00	 mov	 rcx, QWORD PTR prefetch$[rsp]
  00a73	89 01		 mov	 DWORD PTR [rcx], eax
  00a75	48 8b 84 24 a0
	01 00 00	 mov	 rax, QWORD PTR prefetch$[rsp]
  00a7d	81 38 00 01 00
	00		 cmp	 DWORD PTR [rax], 256	; 00000100H
  00a83	76 0d		 jbe	 SHORT $LN117@z900_copy_
  00a85	48 8b 84 24 90
	01 00 00	 mov	 rax, QWORD PTR chanstat$[rsp]
  00a8d	c6 00 08	 mov	 BYTE PTR [rax], 8
  00a90	eb 7d		 jmp	 SHORT $LN30@z900_copy_
$LN117@z900_copy_:
  00a92	8b 44 24 50	 mov	 eax, DWORD PTR ps$[rsp]
  00a96	ff c8		 dec	 eax
  00a98	8b c0		 mov	 eax, eax
  00a9a	8b 4c 24 50	 mov	 ecx, DWORD PTR ps$[rsp]
  00a9e	48 8b 94 24 a0
	01 00 00	 mov	 rdx, QWORD PTR prefetch$[rsp]
  00aa6	48 8b bc 24 a0
	01 00 00	 mov	 rdi, QWORD PTR prefetch$[rsp]
  00aae	8b 84 87 10 01
	00 00		 mov	 eax, DWORD PTR [rdi+rax*4+272]
  00ab5	89 84 8a 10 01
	00 00		 mov	 DWORD PTR [rdx+rcx*4+272], eax
  00abc	0f b6 84 24 68
	01 00 00	 movzx	 eax, BYTE PTR idawfmt$[rsp]
  00ac4	85 c0		 test	 eax, eax
  00ac6	74 32		 je	 SHORT $LN118@z900_copy_
  00ac8	8b 44 24 50	 mov	 eax, DWORD PTR ps$[rsp]
  00acc	48 8b 8c 24 a0
	01 00 00	 mov	 rcx, QWORD PTR prefetch$[rsp]
  00ad4	0f b6 94 24 68
	01 00 00	 movzx	 edx, BYTE PTR idawfmt$[rsp]
  00adc	88 94 01 10 18
	00 00		 mov	 BYTE PTR [rcx+rax+6160], dl
  00ae3	8b 44 24 50	 mov	 eax, DWORD PTR ps$[rsp]
  00ae7	48 8b 8c 24 a0
	01 00 00	 mov	 rcx, QWORD PTR prefetch$[rsp]
  00aef	8b 54 24 78	 mov	 edx, DWORD PTR idawaddr$[rsp]
  00af3	89 94 81 10 14
	00 00		 mov	 DWORD PTR [rcx+rax*4+5136], edx
$LN118@z900_copy_:
$LN116@z900_copy_:
  00afa	48 8b 84 24 90
	01 00 00	 mov	 rax, QWORD PTR chanstat$[rsp]
  00b02	c6 00 00	 mov	 BYTE PTR [rax], 0
  00b05	33 c0		 xor	 eax, eax
  00b07	85 c0		 test	 eax, eax
  00b09	0f 85 31 ff ff
	ff		 jne	 $LN31@z900_copy_
$LN30@z900_copy_:

; 3674 : 
; 3675 :             if (*chanstat != 0)

  00b0f	48 8b 84 24 90
	01 00 00	 mov	 rax, QWORD PTR chanstat$[rsp]
  00b17	0f b6 00	 movzx	 eax, BYTE PTR [rax]
  00b1a	85 c0		 test	 eax, eax
  00b1c	74 05		 je	 SHORT $LN119@z900_copy_

; 3676 :                 break;

  00b1e	e9 69 07 00 00	 jmp	 $LN27@z900_copy_
$LN119@z900_copy_:

; 3677 : 
; 3678 :             /* Fetch the IDAW and set IDA pointer and length */
; 3679 :             ARCH_DEP( fetch_idaw )( dev, code, ccwkey, idawfmt,

  00b23	48 8b 84 24 90
	01 00 00	 mov	 rax, QWORD PTR chanstat$[rsp]
  00b2b	48 89 44 24 48	 mov	 QWORD PTR [rsp+72], rax
  00b30	48 8d 44 24 54	 lea	 rax, QWORD PTR idalen$[rsp]
  00b35	48 89 44 24 40	 mov	 QWORD PTR [rsp+64], rax
  00b3a	48 8d 84 24 88
	00 00 00	 lea	 rax, QWORD PTR idadata$[rsp]
  00b42	48 89 44 24 38	 mov	 QWORD PTR [rsp+56], rax
  00b47	8b 44 24 78	 mov	 eax, DWORD PTR idawaddr$[rsp]
  00b4b	89 44 24 30	 mov	 DWORD PTR [rsp+48], eax
  00b4f	8b 84 24 a4 00
	00 00		 mov	 eax, DWORD PTR idaseq$[rsp]
  00b56	89 44 24 28	 mov	 DWORD PTR [rsp+40], eax
  00b5a	0f b7 84 24 70
	01 00 00	 movzx	 eax, WORD PTR idapmask$[rsp]
  00b62	66 89 44 24 20	 mov	 WORD PTR [rsp+32], ax
  00b67	44 0f b6 8c 24
	68 01 00 00	 movzx	 r9d, BYTE PTR idawfmt$[rsp]
  00b70	44 0f b6 84 24
	60 01 00 00	 movzx	 r8d, BYTE PTR ccwkey$[rsp]
  00b79	0f b6 94 24 40
	01 00 00	 movzx	 edx, BYTE PTR code$[rsp]
  00b81	48 8b 8c 24 30
	01 00 00	 mov	 rcx, QWORD PTR dev$[rsp]
  00b89	e8 00 00 00 00	 call	 z900_fetch_idaw

; 3680 :                         idapmask, idaseq, idawaddr,
; 3681 :                         &idadata, &idalen, chanstat );
; 3682 : 
; 3683 :             /* Exit if fetch_idaw detected channel program check */
; 3684 :             if (prefetch->seq)

  00b8e	48 8b 84 24 a0
	01 00 00	 mov	 rax, QWORD PTR prefetch$[rsp]
  00b96	83 38 00	 cmp	 DWORD PTR [rax], 0
  00b99	74 70		 je	 SHORT $LN120@z900_copy_

; 3685 :             {
; 3686 :                 prefetch->dataaddr[ps] = idadata;

  00b9b	8b 44 24 50	 mov	 eax, DWORD PTR ps$[rsp]
  00b9f	48 8b 8c 24 a0
	01 00 00	 mov	 rcx, QWORD PTR prefetch$[rsp]
  00ba7	48 8b 94 24 88
	00 00 00	 mov	 rdx, QWORD PTR idadata$[rsp]
  00baf	48 89 94 c1 10
	09 00 00	 mov	 QWORD PTR [rcx+rax*8+2320], rdx

; 3687 :                 prefetch->datalen[ps]  = idalen;

  00bb7	8b 44 24 50	 mov	 eax, DWORD PTR ps$[rsp]
  00bbb	0f b7 4c 24 54	 movzx	 ecx, WORD PTR idalen$[rsp]
  00bc0	48 8b 94 24 a0
	01 00 00	 mov	 rdx, QWORD PTR prefetch$[rsp]
  00bc8	89 8c 82 10 05
	00 00		 mov	 DWORD PTR [rdx+rax*4+1296], ecx

; 3688 : 
; 3689 :                 if (*chanstat != 0)

  00bcf	48 8b 84 24 90
	01 00 00	 mov	 rax, QWORD PTR chanstat$[rsp]
  00bd7	0f b6 00	 movzx	 eax, BYTE PTR [rax]
  00bda	85 c0		 test	 eax, eax
  00bdc	74 2b		 je	 SHORT $LN122@z900_copy_

; 3690 :                 {
; 3691 :                     prefetch->chanstat[ps] = *chanstat;

  00bde	8b 44 24 50	 mov	 eax, DWORD PTR ps$[rsp]
  00be2	48 8b 8c 24 a0
	01 00 00	 mov	 rcx, QWORD PTR prefetch$[rsp]
  00bea	48 8b 94 24 90
	01 00 00	 mov	 rdx, QWORD PTR chanstat$[rsp]
  00bf2	0f b6 12	 movzx	 edx, BYTE PTR [rdx]
  00bf5	88 54 01 10	 mov	 BYTE PTR [rcx+rax+16], dl

; 3692 :                     *chanstat = 0;

  00bf9	48 8b 84 24 90
	01 00 00	 mov	 rax, QWORD PTR chanstat$[rsp]
  00c01	c6 00 00	 mov	 BYTE PTR [rax], 0

; 3693 :                     break;

  00c04	e9 83 06 00 00	 jmp	 $LN27@z900_copy_
$LN122@z900_copy_:

; 3694 :                 }
; 3695 :             }

  00c09	eb 14		 jmp	 SHORT $LN121@z900_copy_
$LN120@z900_copy_:

; 3696 :             else if (*chanstat != 0)

  00c0b	48 8b 84 24 90
	01 00 00	 mov	 rax, QWORD PTR chanstat$[rsp]
  00c13	0f b6 00	 movzx	 eax, BYTE PTR [rax]
  00c16	85 c0		 test	 eax, eax
  00c18	74 05		 je	 SHORT $LN123@z900_copy_

; 3697 :                 break;

  00c1a	e9 6d 06 00 00	 jmp	 $LN27@z900_copy_
$LN123@z900_copy_:
$LN121@z900_copy_:

; 3698 : 
; 3699 :             /* Channel protection check if IDAW data location is
; 3700 :                fetch protected, or if location is store protected
; 3701 :                and command is READ, READ BACKWARD, or SENSE */
; 3702 :             storkey = ARCH_DEP( get_dev_storage_key )( dev, idadata );

  00c1f	48 8b 94 24 88
	00 00 00	 mov	 rdx, QWORD PTR idadata$[rsp]
  00c27	48 8b 8c 24 30
	01 00 00	 mov	 rcx, QWORD PTR dev$[rsp]
  00c2f	e8 00 00 00 00	 call	 z900_get_dev_storage_key
  00c34	88 44 24 60	 mov	 BYTE PTR storkey$[rsp], al

; 3703 : 
; 3704 :             if (1
; 3705 :                 && ccwkey != 0
; 3706 :                 && (storkey & STORKEY_KEY) != ccwkey
; 3707 :                 && ((storkey & STORKEY_FETCH) || to_memory)

  00c38	33 c0		 xor	 eax, eax
  00c3a	83 f8 01	 cmp	 eax, 1
  00c3d	74 6d		 je	 SHORT $LN124@z900_copy_
  00c3f	0f b6 84 24 60
	01 00 00	 movzx	 eax, BYTE PTR ccwkey$[rsp]
  00c47	85 c0		 test	 eax, eax
  00c49	74 61		 je	 SHORT $LN124@z900_copy_
  00c4b	0f b6 44 24 60	 movzx	 eax, BYTE PTR storkey$[rsp]
  00c50	25 f0 00 00 00	 and	 eax, 240		; 000000f0H
  00c55	0f b6 8c 24 60
	01 00 00	 movzx	 ecx, BYTE PTR ccwkey$[rsp]
  00c5d	3b c1		 cmp	 eax, ecx
  00c5f	74 4b		 je	 SHORT $LN124@z900_copy_
  00c61	0f b6 44 24 60	 movzx	 eax, BYTE PTR storkey$[rsp]
  00c66	83 e0 08	 and	 eax, 8
  00c69	85 c0		 test	 eax, eax
  00c6b	75 09		 jne	 SHORT $LN125@z900_copy_
  00c6d	0f b6 44 24 58	 movzx	 eax, BYTE PTR to_memory$[rsp]
  00c72	85 c0		 test	 eax, eax
  00c74	74 36		 je	 SHORT $LN124@z900_copy_
$LN125@z900_copy_:
$LN34@z900_copy_:

; 3708 :             )
; 3709 :             {
; 3710 :                 set_chanstat(CSW_PROTC);

  00c76	48 8b 84 24 a0
	01 00 00	 mov	 rax, QWORD PTR prefetch$[rsp]
  00c7e	83 38 00	 cmp	 DWORD PTR [rax], 0
  00c81	74 13		 je	 SHORT $LN126@z900_copy_
  00c83	8b 44 24 50	 mov	 eax, DWORD PTR ps$[rsp]
  00c87	48 8b 8c 24 a0
	01 00 00	 mov	 rcx, QWORD PTR prefetch$[rsp]
  00c8f	c6 44 01 10 10	 mov	 BYTE PTR [rcx+rax+16], 16
  00c94	eb 0b		 jmp	 SHORT $LN127@z900_copy_
$LN126@z900_copy_:
  00c96	48 8b 84 24 90
	01 00 00	 mov	 rax, QWORD PTR chanstat$[rsp]
  00c9e	c6 00 10	 mov	 BYTE PTR [rax], 16
$LN127@z900_copy_:
  00ca1	33 c0		 xor	 eax, eax
  00ca3	85 c0		 test	 eax, eax
  00ca5	75 cf		 jne	 SHORT $LN34@z900_copy_

; 3711 :                 break;

  00ca7	e9 e0 05 00 00	 jmp	 $LN27@z900_copy_
$LN124@z900_copy_:

; 3712 :             }
; 3713 : 
; 3714 :             /* Reduce length if less than one page remaining */
; 3715 :             if (idalen > idacount)

  00cac	0f b7 44 24 54	 movzx	 eax, WORD PTR idalen$[rsp]
  00cb1	0f b7 4c 24 64	 movzx	 ecx, WORD PTR idacount$[rsp]
  00cb6	3b c1		 cmp	 eax, ecx
  00cb8	7e 2f		 jle	 SHORT $LN128@z900_copy_

; 3716 :             {
; 3717 :                 idalen = idacount;

  00cba	0f b7 44 24 64	 movzx	 eax, WORD PTR idacount$[rsp]
  00cbf	66 89 44 24 54	 mov	 WORD PTR idalen$[rsp], ax

; 3718 : 
; 3719 :                 if (prefetch->seq)

  00cc4	48 8b 84 24 a0
	01 00 00	 mov	 rax, QWORD PTR prefetch$[rsp]
  00ccc	83 38 00	 cmp	 DWORD PTR [rax], 0
  00ccf	74 18		 je	 SHORT $LN129@z900_copy_

; 3720 :                    prefetch->datalen[ps] = idacount;

  00cd1	8b 44 24 50	 mov	 eax, DWORD PTR ps$[rsp]
  00cd5	0f b7 4c 24 64	 movzx	 ecx, WORD PTR idacount$[rsp]
  00cda	48 8b 94 24 a0
	01 00 00	 mov	 rdx, QWORD PTR prefetch$[rsp]
  00ce2	89 8c 82 10 05
	00 00		 mov	 DWORD PTR [rdx+rax*4+1296], ecx
$LN129@z900_copy_:
$LN128@z900_copy_:

; 3721 :             }
; 3722 : 
; 3723 :             /* Ensure memcpy will stay within buffer         */
; 3724 :             /* Channel data check if outside buffer          */
; 3725 :             /* SA22-7201-05:                                 */
; 3726 :             /*  p. 16-27, Channel-Data Check                 */
; 3727 :             if (readbackwards)

  00ce9	0f b6 44 24 59	 movzx	 eax, BYTE PTR readbackwards$[rsp]
  00cee	85 c0		 test	 eax, eax
  00cf0	0f 84 c6 00 00
	00		 je	 $LN130@z900_copy_

; 3728 :             {
; 3729 :                 iobufptr = iobuf + dev->curblkrem + idacount - idalen;

  00cf6	48 8b 84 24 30
	01 00 00	 mov	 rax, QWORD PTR dev$[rsp]
  00cfe	8b 80 18 10 00
	00		 mov	 eax, DWORD PTR [rax+4120]
  00d04	48 8b 8c 24 78
	01 00 00	 mov	 rcx, QWORD PTR iobuf$[rsp]
  00d0c	48 03 c8	 add	 rcx, rax
  00d0f	48 8b c1	 mov	 rax, rcx
  00d12	0f b7 4c 24 64	 movzx	 ecx, WORD PTR idacount$[rsp]
  00d17	48 03 c1	 add	 rax, rcx
  00d1a	0f b7 4c 24 54	 movzx	 ecx, WORD PTR idalen$[rsp]
  00d1f	48 2b c1	 sub	 rax, rcx
  00d22	48 89 84 24 98
	00 00 00	 mov	 QWORD PTR iobufptr$[rsp], rax

; 3730 : 
; 3731 :                 if ((iobufptr + idalen) > (iobufend + 1) ||

  00d2a	0f b7 44 24 54	 movzx	 eax, WORD PTR idalen$[rsp]
  00d2f	48 8b 8c 24 98
	00 00 00	 mov	 rcx, QWORD PTR iobufptr$[rsp]
  00d37	48 03 c8	 add	 rcx, rax
  00d3a	48 8b c1	 mov	 rax, rcx
  00d3d	48 8b 8c 24 88
	01 00 00	 mov	 rcx, QWORD PTR iobufend$[rsp]
  00d45	48 ff c1	 inc	 rcx
  00d48	48 3b c1	 cmp	 rax, rcx
  00d4b	77 1d		 ja	 SHORT $LN133@z900_copy_
  00d4d	0f b7 44 24 54	 movzx	 eax, WORD PTR idalen$[rsp]
  00d52	48 8b 8c 24 98
	00 00 00	 mov	 rcx, QWORD PTR iobufptr$[rsp]
  00d5a	48 03 c8	 add	 rcx, rax
  00d5d	48 8b c1	 mov	 rax, rcx
  00d60	48 3b 84 24 80
	01 00 00	 cmp	 rax, QWORD PTR iobufstart$[rsp]
  00d68	77 10		 ja	 SHORT $LN132@z900_copy_
$LN133@z900_copy_:

; 3732 :                     (iobufptr + idalen) <= iobufstart)
; 3733 :                 {
; 3734 :                     *chanstat = CSW_CDC;

  00d6a	48 8b 84 24 90
	01 00 00	 mov	 rax, QWORD PTR chanstat$[rsp]
  00d72	c6 00 08	 mov	 BYTE PTR [rax], 8

; 3735 :                     return;

  00d75	e9 30 0c 00 00	 jmp	 $LN1@z900_copy_
$LN132@z900_copy_:

; 3736 :                 }
; 3737 : 
; 3738 :                 if (iobufptr < iobufstart)

  00d7a	48 8b 84 24 80
	01 00 00	 mov	 rax, QWORD PTR iobufstart$[rsp]
  00d82	48 39 84 24 98
	00 00 00	 cmp	 QWORD PTR iobufptr$[rsp], rax
  00d8a	73 2b		 jae	 SHORT $LN134@z900_copy_

; 3739 :                 {
; 3740 :                     *chanstat = CSW_CDC;

  00d8c	48 8b 84 24 90
	01 00 00	 mov	 rax, QWORD PTR chanstat$[rsp]
  00d94	c6 00 08	 mov	 BYTE PTR [rax], 8

; 3741 : 
; 3742 :                     /* Reset length to copy to buffer */
; 3743 :                     idalen = iobufptr + idalen - iobufstart;

  00d97	0f b7 44 24 54	 movzx	 eax, WORD PTR idalen$[rsp]
  00d9c	48 8b 8c 24 98
	00 00 00	 mov	 rcx, QWORD PTR iobufptr$[rsp]
  00da4	48 03 c8	 add	 rcx, rax
  00da7	48 8b c1	 mov	 rax, rcx
  00daa	48 2b 84 24 80
	01 00 00	 sub	 rax, QWORD PTR iobufstart$[rsp]
  00db2	66 89 44 24 54	 mov	 WORD PTR idalen$[rsp], ax
$LN134@z900_copy_:

; 3744 :                 }
; 3745 :             }

  00db7	e9 47 02 00 00	 jmp	 $LN131@z900_copy_
$LN130@z900_copy_:

; 3746 :             else if (iobuf < iobufstart || iobuf > iobufend)

  00dbc	48 8b 84 24 80
	01 00 00	 mov	 rax, QWORD PTR iobufstart$[rsp]
  00dc4	48 39 84 24 78
	01 00 00	 cmp	 QWORD PTR iobuf$[rsp], rax
  00dcc	72 12		 jb	 SHORT $LN137@z900_copy_
  00dce	48 8b 84 24 88
	01 00 00	 mov	 rax, QWORD PTR iobufend$[rsp]
  00dd6	48 39 84 24 78
	01 00 00	 cmp	 QWORD PTR iobuf$[rsp], rax
  00dde	76 3b		 jbe	 SHORT $LN135@z900_copy_
$LN137@z900_copy_:
$LN37@z900_copy_:

; 3747 :             {
; 3748 :                 set_chanstat( CSW_CDC );

  00de0	48 8b 84 24 a0
	01 00 00	 mov	 rax, QWORD PTR prefetch$[rsp]
  00de8	83 38 00	 cmp	 DWORD PTR [rax], 0
  00deb	74 13		 je	 SHORT $LN138@z900_copy_
  00ded	8b 44 24 50	 mov	 eax, DWORD PTR ps$[rsp]
  00df1	48 8b 8c 24 a0
	01 00 00	 mov	 rcx, QWORD PTR prefetch$[rsp]
  00df9	c6 44 01 10 08	 mov	 BYTE PTR [rcx+rax+16], 8
  00dfe	eb 0b		 jmp	 SHORT $LN139@z900_copy_
$LN138@z900_copy_:
  00e00	48 8b 84 24 90
	01 00 00	 mov	 rax, QWORD PTR chanstat$[rsp]
  00e08	c6 00 08	 mov	 BYTE PTR [rax], 8
$LN139@z900_copy_:
  00e0b	33 c0		 xor	 eax, eax
  00e0d	85 c0		 test	 eax, eax
  00e0f	75 cf		 jne	 SHORT $LN37@z900_copy_

; 3749 :                 break;

  00e11	e9 76 04 00 00	 jmp	 $LN27@z900_copy_

; 3750 :             }

  00e16	e9 e8 01 00 00	 jmp	 $LN136@z900_copy_
$LN135@z900_copy_:

; 3751 :             else if ((iobuf + idalen) > (iobufend + 1))

  00e1b	0f b7 44 24 54	 movzx	 eax, WORD PTR idalen$[rsp]
  00e20	48 8b 8c 24 78
	01 00 00	 mov	 rcx, QWORD PTR iobuf$[rsp]
  00e28	48 03 c8	 add	 rcx, rax
  00e2b	48 8b c1	 mov	 rax, rcx
  00e2e	48 8b 8c 24 88
	01 00 00	 mov	 rcx, QWORD PTR iobufend$[rsp]
  00e36	48 ff c1	 inc	 rcx
  00e39	48 3b c1	 cmp	 rax, rcx
  00e3c	0f 86 c1 01 00
	00		 jbe	 $LN140@z900_copy_

; 3752 :             {
; 3753 :                 /* Reset length to copy to buffer */
; 3754 :                 idalen = iobufend - iobuf + 1;

  00e42	48 8b 84 24 78
	01 00 00	 mov	 rax, QWORD PTR iobuf$[rsp]
  00e4a	48 8b 8c 24 88
	01 00 00	 mov	 rcx, QWORD PTR iobufend$[rsp]
  00e52	48 2b c8	 sub	 rcx, rax
  00e55	48 8b c1	 mov	 rax, rcx
  00e58	48 ff c0	 inc	 rax
  00e5b	66 89 44 24 54	 mov	 WORD PTR idalen$[rsp], ax

; 3755 : 
; 3756 :                 if (prefetch->seq)

  00e60	48 8b 84 24 a0
	01 00 00	 mov	 rax, QWORD PTR prefetch$[rsp]
  00e68	83 38 00	 cmp	 DWORD PTR [rax], 0
  00e6b	0f 84 61 01 00
	00		 je	 $LN141@z900_copy_

; 3757 :                 {
; 3758 :                     prefetch->datalen[ps] = idalen;

  00e71	8b 44 24 50	 mov	 eax, DWORD PTR ps$[rsp]
  00e75	0f b7 4c 24 54	 movzx	 ecx, WORD PTR idalen$[rsp]
  00e7a	48 8b 94 24 a0
	01 00 00	 mov	 rdx, QWORD PTR prefetch$[rsp]
  00e82	89 8c 82 10 05
	00 00		 mov	 DWORD PTR [rdx+rax*4+1296], ecx
$LN40@z900_copy_:

; 3759 : 
; 3760 :                     /* Get new prefetch entry for channel data
; 3761 :                        check */
; 3762 :                     get_new_prefetch_entry( idawfmt, idawaddr );

  00e89	48 8b 84 24 a0
	01 00 00	 mov	 rax, QWORD PTR prefetch$[rsp]
  00e91	83 38 00	 cmp	 DWORD PTR [rax], 0
  00e94	0f 84 a9 00 00
	00		 je	 $LN143@z900_copy_
  00e9a	48 8b 84 24 a0
	01 00 00	 mov	 rax, QWORD PTR prefetch$[rsp]
  00ea2	8b 00		 mov	 eax, DWORD PTR [rax]
  00ea4	89 44 24 50	 mov	 DWORD PTR ps$[rsp], eax
  00ea8	48 8b 84 24 a0
	01 00 00	 mov	 rax, QWORD PTR prefetch$[rsp]
  00eb0	8b 00		 mov	 eax, DWORD PTR [rax]
  00eb2	ff c0		 inc	 eax
  00eb4	48 8b 8c 24 a0
	01 00 00	 mov	 rcx, QWORD PTR prefetch$[rsp]
  00ebc	89 01		 mov	 DWORD PTR [rcx], eax
  00ebe	48 8b 84 24 a0
	01 00 00	 mov	 rax, QWORD PTR prefetch$[rsp]
  00ec6	81 38 00 01 00
	00		 cmp	 DWORD PTR [rax], 256	; 00000100H
  00ecc	76 0d		 jbe	 SHORT $LN144@z900_copy_
  00ece	48 8b 84 24 90
	01 00 00	 mov	 rax, QWORD PTR chanstat$[rsp]
  00ed6	c6 00 08	 mov	 BYTE PTR [rax], 8
  00ed9	eb 7d		 jmp	 SHORT $LN39@z900_copy_
$LN144@z900_copy_:
  00edb	8b 44 24 50	 mov	 eax, DWORD PTR ps$[rsp]
  00edf	ff c8		 dec	 eax
  00ee1	8b c0		 mov	 eax, eax
  00ee3	8b 4c 24 50	 mov	 ecx, DWORD PTR ps$[rsp]
  00ee7	48 8b 94 24 a0
	01 00 00	 mov	 rdx, QWORD PTR prefetch$[rsp]
  00eef	48 8b bc 24 a0
	01 00 00	 mov	 rdi, QWORD PTR prefetch$[rsp]
  00ef7	8b 84 87 10 01
	00 00		 mov	 eax, DWORD PTR [rdi+rax*4+272]
  00efe	89 84 8a 10 01
	00 00		 mov	 DWORD PTR [rdx+rcx*4+272], eax
  00f05	0f b6 84 24 68
	01 00 00	 movzx	 eax, BYTE PTR idawfmt$[rsp]
  00f0d	85 c0		 test	 eax, eax
  00f0f	74 32		 je	 SHORT $LN145@z900_copy_
  00f11	8b 44 24 50	 mov	 eax, DWORD PTR ps$[rsp]
  00f15	48 8b 8c 24 a0
	01 00 00	 mov	 rcx, QWORD PTR prefetch$[rsp]
  00f1d	0f b6 94 24 68
	01 00 00	 movzx	 edx, BYTE PTR idawfmt$[rsp]
  00f25	88 94 01 10 18
	00 00		 mov	 BYTE PTR [rcx+rax+6160], dl
  00f2c	8b 44 24 50	 mov	 eax, DWORD PTR ps$[rsp]
  00f30	48 8b 8c 24 a0
	01 00 00	 mov	 rcx, QWORD PTR prefetch$[rsp]
  00f38	8b 54 24 78	 mov	 edx, DWORD PTR idawaddr$[rsp]
  00f3c	89 94 81 10 14
	00 00		 mov	 DWORD PTR [rcx+rax*4+5136], edx
$LN145@z900_copy_:
$LN143@z900_copy_:
  00f43	48 8b 84 24 90
	01 00 00	 mov	 rax, QWORD PTR chanstat$[rsp]
  00f4b	c6 00 00	 mov	 BYTE PTR [rax], 0
  00f4e	33 c0		 xor	 eax, eax
  00f50	85 c0		 test	 eax, eax
  00f52	0f 85 31 ff ff
	ff		 jne	 $LN40@z900_copy_
$LN39@z900_copy_:

; 3763 : 
; 3764 :                     if (*chanstat != 0)

  00f58	48 8b 84 24 90
	01 00 00	 mov	 rax, QWORD PTR chanstat$[rsp]
  00f60	0f b6 00	 movzx	 eax, BYTE PTR [rax]
  00f63	85 c0		 test	 eax, eax
  00f65	74 05		 je	 SHORT $LN146@z900_copy_

; 3765 :                         break;

  00f67	e9 20 03 00 00	 jmp	 $LN27@z900_copy_
$LN146@z900_copy_:

; 3766 : 
; 3767 :                     prefetch->dataaddr[ps] = idadata + idalen;

  00f6c	0f b7 44 24 54	 movzx	 eax, WORD PTR idalen$[rsp]
  00f71	48 8b 8c 24 88
	00 00 00	 mov	 rcx, QWORD PTR idadata$[rsp]
  00f79	48 03 c8	 add	 rcx, rax
  00f7c	48 8b c1	 mov	 rax, rcx
  00f7f	8b 4c 24 50	 mov	 ecx, DWORD PTR ps$[rsp]
  00f83	48 8b 94 24 a0
	01 00 00	 mov	 rdx, QWORD PTR prefetch$[rsp]
  00f8b	48 89 84 ca 10
	09 00 00	 mov	 QWORD PTR [rdx+rcx*8+2320], rax

; 3768 :                     prefetch->datalen[ps]  = 1;

  00f93	8b 44 24 50	 mov	 eax, DWORD PTR ps$[rsp]
  00f97	48 8b 8c 24 a0
	01 00 00	 mov	 rcx, QWORD PTR prefetch$[rsp]
  00f9f	c7 84 81 10 05
	00 00 01 00 00
	00		 mov	 DWORD PTR [rcx+rax*4+1296], 1

; 3769 :                     prefetch->chanstat[ps] = *chanstat = CSW_CDC;

  00faa	48 8b 84 24 90
	01 00 00	 mov	 rax, QWORD PTR chanstat$[rsp]
  00fb2	c6 00 08	 mov	 BYTE PTR [rax], 8
  00fb5	8b 44 24 50	 mov	 eax, DWORD PTR ps$[rsp]
  00fb9	48 8b 8c 24 a0
	01 00 00	 mov	 rcx, QWORD PTR prefetch$[rsp]
  00fc1	c6 44 01 10 08	 mov	 BYTE PTR [rcx+rax+16], 8

; 3770 : 
; 3771 :                     ps -= 1;

  00fc6	8b 44 24 50	 mov	 eax, DWORD PTR ps$[rsp]
  00fca	ff c8		 dec	 eax
  00fcc	89 44 24 50	 mov	 DWORD PTR ps$[rsp], eax

; 3772 :                 }

  00fd0	eb 31		 jmp	 SHORT $LN142@z900_copy_
$LN141@z900_copy_:
$LN43@z900_copy_:

; 3773 : 
; 3774 :                 /* Set channel data check and permit copy to/from
; 3775 :                    end-of-buffer */
; 3776 :                 else
; 3777 :                     set_chanstat( CSW_CDC );

  00fd2	48 8b 84 24 a0
	01 00 00	 mov	 rax, QWORD PTR prefetch$[rsp]
  00fda	83 38 00	 cmp	 DWORD PTR [rax], 0
  00fdd	74 13		 je	 SHORT $LN147@z900_copy_
  00fdf	8b 44 24 50	 mov	 eax, DWORD PTR ps$[rsp]
  00fe3	48 8b 8c 24 a0
	01 00 00	 mov	 rcx, QWORD PTR prefetch$[rsp]
  00feb	c6 44 01 10 08	 mov	 BYTE PTR [rcx+rax+16], 8
  00ff0	eb 0b		 jmp	 SHORT $LN148@z900_copy_
$LN147@z900_copy_:
  00ff2	48 8b 84 24 90
	01 00 00	 mov	 rax, QWORD PTR chanstat$[rsp]
  00ffa	c6 00 08	 mov	 BYTE PTR [rax], 8
$LN148@z900_copy_:
  00ffd	33 c0		 xor	 eax, eax
  00fff	85 c0		 test	 eax, eax
  01001	75 cf		 jne	 SHORT $LN43@z900_copy_
$LN142@z900_copy_:
$LN140@z900_copy_:
$LN136@z900_copy_:
$LN131@z900_copy_:

; 3778 :             }
; 3779 : 
; 3780 :             /* Copy to I/O buffer */
; 3781 :             if (idalen)

  01003	0f b7 44 24 54	 movzx	 eax, WORD PTR idalen$[rsp]
  01008	85 c0		 test	 eax, eax
  0100a	0f 84 80 01 00
	00		 je	 $LN149@z900_copy_

; 3782 :             {
; 3783 :                 /* Set the main storage reference and change bits */
; 3784 :                 if (to_memory)

  01010	0f b6 44 24 58	 movzx	 eax, BYTE PTR to_memory$[rsp]
  01015	85 c0		 test	 eax, eax
  01017	74 1a		 je	 SHORT $LN150@z900_copy_

; 3785 :                     ARCH_DEP( or_dev_storage_key )( dev, idadata, (STORKEY_REF | STORKEY_CHANGE) );

  01019	41 b0 06	 mov	 r8b, 6
  0101c	48 8b 94 24 88
	00 00 00	 mov	 rdx, QWORD PTR idadata$[rsp]
  01024	48 8b 8c 24 30
	01 00 00	 mov	 rcx, QWORD PTR dev$[rsp]
  0102c	e8 00 00 00 00	 call	 z900_or_dev_storage_key
  01031	eb 18		 jmp	 SHORT $LN151@z900_copy_
$LN150@z900_copy_:

; 3786 :                 else
; 3787 :                     ARCH_DEP( or_dev_storage_key )( dev, idadata, STORKEY_REF );

  01033	41 b0 04	 mov	 r8b, 4
  01036	48 8b 94 24 88
	00 00 00	 mov	 rdx, QWORD PTR idadata$[rsp]
  0103e	48 8b 8c 24 30
	01 00 00	 mov	 rcx, QWORD PTR dev$[rsp]
  01046	e8 00 00 00 00	 call	 z900_or_dev_storage_key
$LN151@z900_copy_:

; 3788 : 
; 3789 :                 /* Copy data between main storage and channel buffer */
; 3790 :                 if (readbackwards)

  0104b	0f b6 44 24 59	 movzx	 eax, BYTE PTR readbackwards$[rsp]
  01050	85 c0		 test	 eax, eax
  01052	0f 84 a1 00 00
	00		 je	 $LN152@z900_copy_

; 3791 :                 {
; 3792 :                     idadata = (idadata - idalen) + 1;

  01058	0f b7 44 24 54	 movzx	 eax, WORD PTR idalen$[rsp]
  0105d	48 8b 8c 24 88
	00 00 00	 mov	 rcx, QWORD PTR idadata$[rsp]
  01065	48 2b c8	 sub	 rcx, rax
  01068	48 8b c1	 mov	 rax, rcx
  0106b	48 ff c0	 inc	 rax
  0106e	48 89 84 24 88
	00 00 00	 mov	 QWORD PTR idadata$[rsp], rax

; 3793 :                     memcpy_backwards( dev->mainstor + idadata,

  01076	0f b7 44 24 54	 movzx	 eax, WORD PTR idalen$[rsp]
  0107b	48 8b 8c 24 30
	01 00 00	 mov	 rcx, QWORD PTR dev$[rsp]
  01083	8b 89 18 10 00
	00		 mov	 ecx, DWORD PTR [rcx+4120]
  01089	48 8b 94 24 78
	01 00 00	 mov	 rdx, QWORD PTR iobuf$[rsp]
  01091	48 03 d1	 add	 rdx, rcx
  01094	48 8b ca	 mov	 rcx, rdx
  01097	0f b7 54 24 64	 movzx	 edx, WORD PTR idacount$[rsp]
  0109c	48 03 ca	 add	 rcx, rdx
  0109f	0f b7 54 24 54	 movzx	 edx, WORD PTR idalen$[rsp]
  010a4	48 2b ca	 sub	 rcx, rdx
  010a7	48 8b 94 24 30
	01 00 00	 mov	 rdx, QWORD PTR dev$[rsp]
  010af	48 8b 92 80 00
	00 00		 mov	 rdx, QWORD PTR [rdx+128]
  010b6	48 03 94 24 88
	00 00 00	 add	 rdx, QWORD PTR idadata$[rsp]
  010be	48 89 94 24 00
	01 00 00	 mov	 QWORD PTR tv673[rsp], rdx
  010c6	44 8b c0	 mov	 r8d, eax
  010c9	48 8b d1	 mov	 rdx, rcx
  010cc	48 8b 84 24 00
	01 00 00	 mov	 rax, QWORD PTR tv673[rsp]
  010d4	48 8b c8	 mov	 rcx, rax
  010d7	e8 00 00 00 00	 call	 memcpy_backwards

; 3794 :                                       iobuf + dev->curblkrem + idacount - idalen,
; 3795 :                                       idalen );
; 3796 : 
; 3797 :                     /* Decrement buffer pointer for next IDAW*/
; 3798 :                     iobuf -= idalen;

  010dc	0f b7 44 24 54	 movzx	 eax, WORD PTR idalen$[rsp]
  010e1	48 8b 8c 24 78
	01 00 00	 mov	 rcx, QWORD PTR iobuf$[rsp]
  010e9	48 2b c8	 sub	 rcx, rax
  010ec	48 8b c1	 mov	 rax, rcx
  010ef	48 89 84 24 78
	01 00 00	 mov	 QWORD PTR iobuf$[rsp], rax

; 3799 :                 }

  010f7	eb 7c		 jmp	 SHORT $LN153@z900_copy_
$LN152@z900_copy_:

; 3800 :                 else
; 3801 :                 {
; 3802 :                     if (to_iobuf)

  010f9	0f b6 44 24 62	 movzx	 eax, BYTE PTR to_iobuf$[rsp]
  010fe	85 c0		 test	 eax, eax
  01100	74 2d		 je	 SHORT $LN154@z900_copy_

; 3803 :                     {
; 3804 :                         memcpy( iobuf, dev->mainstor + idadata, idalen );

  01102	0f b7 44 24 54	 movzx	 eax, WORD PTR idalen$[rsp]
  01107	48 8b 8c 24 30
	01 00 00	 mov	 rcx, QWORD PTR dev$[rsp]
  0110f	48 8b 89 80 00
	00 00		 mov	 rcx, QWORD PTR [rcx+128]
  01116	48 03 8c 24 88
	00 00 00	 add	 rcx, QWORD PTR idadata$[rsp]
  0111e	48 8b bc 24 78
	01 00 00	 mov	 rdi, QWORD PTR iobuf$[rsp]
  01126	48 8b f1	 mov	 rsi, rcx
  01129	8b c8		 mov	 ecx, eax
  0112b	f3 a4		 rep movsb

; 3805 :                     }

  0112d	eb 2b		 jmp	 SHORT $LN155@z900_copy_
$LN154@z900_copy_:

; 3806 :                     else
; 3807 :                     {
; 3808 :                         memcpy( dev->mainstor + idadata, iobuf, idalen );

  0112f	0f b7 44 24 54	 movzx	 eax, WORD PTR idalen$[rsp]
  01134	48 8b 8c 24 30
	01 00 00	 mov	 rcx, QWORD PTR dev$[rsp]
  0113c	48 8b 89 80 00
	00 00		 mov	 rcx, QWORD PTR [rcx+128]
  01143	48 03 8c 24 88
	00 00 00	 add	 rcx, QWORD PTR idadata$[rsp]
  0114b	48 8b f9	 mov	 rdi, rcx
  0114e	48 8b b4 24 78
	01 00 00	 mov	 rsi, QWORD PTR iobuf$[rsp]
  01156	8b c8		 mov	 ecx, eax
  01158	f3 a4		 rep movsb
$LN155@z900_copy_:

; 3809 :                     }
; 3810 : 
; 3811 :                     /* Increment buffer pointer for next IDAW*/
; 3812 :                     iobuf += idalen;

  0115a	0f b7 44 24 54	 movzx	 eax, WORD PTR idalen$[rsp]
  0115f	48 8b 8c 24 78
	01 00 00	 mov	 rcx, QWORD PTR iobuf$[rsp]
  01167	48 03 c8	 add	 rcx, rax
  0116a	48 8b c1	 mov	 rax, rcx
  0116d	48 89 84 24 78
	01 00 00	 mov	 QWORD PTR iobuf$[rsp], rax
$LN153@z900_copy_:

; 3813 :                 }
; 3814 : 
; 3815 :                 /* Update prefetch completed bytes */
; 3816 :                 prefetch->pos += idalen;

  01175	0f b7 44 24 54	 movzx	 eax, WORD PTR idalen$[rsp]
  0117a	48 8b 8c 24 a0
	01 00 00	 mov	 rcx, QWORD PTR prefetch$[rsp]
  01182	03 41 04	 add	 eax, DWORD PTR [rcx+4]
  01185	48 8b 8c 24 a0
	01 00 00	 mov	 rcx, QWORD PTR prefetch$[rsp]
  0118d	89 41 04	 mov	 DWORD PTR [rcx+4], eax
$LN149@z900_copy_:

; 3817 :             }
; 3818 : 
; 3819 :             /* If not prefetch, display the IDAW if CCW tracing */
; 3820 :             if (!prefetch->seq && dev->ccwtrace)

  01190	48 8b 84 24 a0
	01 00 00	 mov	 rax, QWORD PTR prefetch$[rsp]
  01198	83 38 00	 cmp	 DWORD PTR [rax], 0
  0119b	0f 85 c0 00 00
	00		 jne	 $LN156@z900_copy_
  011a1	48 8b 84 24 30
	01 00 00	 mov	 rax, QWORD PTR dev$[rsp]
  011a9	8b 80 f8 05 00
	00		 mov	 eax, DWORD PTR [rax+1528]
  011af	c1 e8 0f	 shr	 eax, 15
  011b2	83 e0 01	 and	 eax, 1
  011b5	85 c0		 test	 eax, eax
  011b7	0f 84 a4 00 00
	00		 je	 $LN156@z900_copy_

; 3821 :             {
; 3822 :                 /* Trace the CCW first, then the IDAW, but only
; 3823 :                    if this is a read type CCW as determined by
; 3824 :                    the direction of the copying. (For write type
; 3825 :                    CCws, channel code properly traces CCWs before
; 3826 :                    we're even called.)
; 3827 :                 */
; 3828 :                 if (to_memory)

  011bd	0f b6 44 24 58	 movzx	 eax, BYTE PTR to_memory$[rsp]
  011c2	85 c0		 test	 eax, eax
  011c4	74 51		 je	 SHORT $LN157@z900_copy_

; 3829 :                     DISPLAY_CCW( dev, ccw, addr, count, flags );

  011c6	48 8d 05 00 00
	00 00		 lea	 rax, OFFSET FLAT:$SG196311
  011cd	48 89 44 24 38	 mov	 QWORD PTR [rsp+56], rax
  011d2	c7 44 24 30 f5
	0e 00 00	 mov	 DWORD PTR [rsp+48], 3829 ; 00000ef5H
  011da	48 8d 05 00 00
	00 00		 lea	 rax, OFFSET FLAT:$SG196312
  011e1	48 89 44 24 28	 mov	 QWORD PTR [rsp+40], rax
  011e6	0f b6 84 24 48
	01 00 00	 movzx	 eax, BYTE PTR flags$[rsp]
  011ee	88 44 24 20	 mov	 BYTE PTR [rsp+32], al
  011f2	44 8b 8c 24 58
	01 00 00	 mov	 r9d, DWORD PTR count$[rsp]
  011fa	44 8b 84 24 50
	01 00 00	 mov	 r8d, DWORD PTR addr$[rsp]
  01202	48 8b 94 24 38
	01 00 00	 mov	 rdx, QWORD PTR ccw$[rsp]
  0120a	48 8b 8c 24 30
	01 00 00	 mov	 rcx, QWORD PTR dev$[rsp]
  01212	e8 00 00 00 00	 call	 _display_ccw
$LN157@z900_copy_:

; 3830 :                 DISPLAY_IDAW( dev, idawfmt, 0, idadata, idalen );

  01217	48 8d 05 00 00
	00 00		 lea	 rax, OFFSET FLAT:$SG196313
  0121e	48 89 44 24 38	 mov	 QWORD PTR [rsp+56], rax
  01223	c7 44 24 30 f6
	0e 00 00	 mov	 DWORD PTR [rsp+48], 3830 ; 00000ef6H
  0122b	48 8d 05 00 00
	00 00		 lea	 rax, OFFSET FLAT:$SG196314
  01232	48 89 44 24 28	 mov	 QWORD PTR [rsp+40], rax
  01237	0f b7 44 24 54	 movzx	 eax, WORD PTR idalen$[rsp]
  0123c	66 89 44 24 20	 mov	 WORD PTR [rsp+32], ax
  01241	4c 8b 8c 24 88
	00 00 00	 mov	 r9, QWORD PTR idadata$[rsp]
  01249	45 33 c0	 xor	 r8d, r8d
  0124c	0f b6 94 24 68
	01 00 00	 movzx	 edx, BYTE PTR idawfmt$[rsp]
  01254	48 8b 8c 24 30
	01 00 00	 mov	 rcx, QWORD PTR dev$[rsp]
  0125c	e8 00 00 00 00	 call	 _display_idaw
$LN156@z900_copy_:

; 3831 :             }
; 3832 : 
; 3833 : #if DEBUG_DUMP
; 3834 :             if (dev->ccwtrace)
; 3835 :             {
; 3836 :                 if (to_memory)
; 3837 :                     DUMP( "iobuf:", iobuf-idalen, idalen );
; 3838 :                 DUMP_STORAGE( "Storage:", idadata, idalen );
; 3839 :                 if (to_iobuf)
; 3840 :                     DUMP( "iobuf:", iobuf-idalen, idalen );
; 3841 :             }
; 3842 : #endif
; 3843 :             /* Decrement remaining count, increment buffer pointer */
; 3844 :             idacount -= idalen;

  01261	0f b7 44 24 54	 movzx	 eax, WORD PTR idalen$[rsp]
  01266	0f b7 4c 24 64	 movzx	 ecx, WORD PTR idacount$[rsp]
  0126b	2b c8		 sub	 ecx, eax
  0126d	8b c1		 mov	 eax, ecx
  0126f	66 89 44 24 64	 mov	 WORD PTR idacount$[rsp], ax

; 3845 : 
; 3846 :             /* Increment to next IDAW address */
; 3847 :             idawaddr += idasize;

  01274	8b 84 24 b0 00
	00 00		 mov	 eax, DWORD PTR idasize$[rsp]
  0127b	8b 4c 24 78	 mov	 ecx, DWORD PTR idawaddr$[rsp]
  0127f	03 c8		 add	 ecx, eax
  01281	8b c1		 mov	 eax, ecx
  01283	89 44 24 78	 mov	 DWORD PTR idawaddr$[rsp], eax

; 3848 : 
; 3849 :         } /* end for(idaseq) */

  01287	e9 33 f7 ff ff	 jmp	 $LN26@z900_copy_
$LN27@z900_copy_:

; 3850 :     }

  0128c	e9 19 07 00 00	 jmp	 $LN112@z900_copy_
$LN111@z900_copy_:

; 3851 :     else                              /* Non-IDA data addressing */
; 3852 :     {
; 3853 :         /* Point to start of data for read backward command */
; 3854 :         if (readbackwards)

  01291	0f b6 44 24 59	 movzx	 eax, BYTE PTR readbackwards$[rsp]
  01296	85 c0		 test	 eax, eax
  01298	74 1b		 je	 SHORT $LN158@z900_copy_

; 3855 :             addr = addr - (count - 1);

  0129a	8b 84 24 58 01
	00 00		 mov	 eax, DWORD PTR count$[rsp]
  012a1	ff c8		 dec	 eax
  012a3	8b 8c 24 50 01
	00 00		 mov	 ecx, DWORD PTR addr$[rsp]
  012aa	2b c8		 sub	 ecx, eax
  012ac	8b c1		 mov	 eax, ecx
  012ae	89 84 24 50 01
	00 00		 mov	 DWORD PTR addr$[rsp], eax
$LN158@z900_copy_:

; 3856 : 
; 3857 :         /* Channel protection check if any data is fetch protected,
; 3858 :            or if location is store protected and command is READ,
; 3859 :            READ BACKWARD, or SENSE.
; 3860 :         */
; 3861 :         startpage = addr;

  012b5	8b 84 24 50 01
	00 00		 mov	 eax, DWORD PTR addr$[rsp]
  012bc	48 89 84 24 f0
	00 00 00	 mov	 QWORD PTR startpage$[rsp], rax

; 3862 :         endpage = addr + (count - 1);

  012c4	8b 84 24 50 01
	00 00		 mov	 eax, DWORD PTR addr$[rsp]
  012cb	8b 8c 24 58 01
	00 00		 mov	 ecx, DWORD PTR count$[rsp]
  012d2	8d 44 08 ff	 lea	 eax, DWORD PTR [rax+rcx-1]
  012d6	8b c0		 mov	 eax, eax
  012d8	48 89 84 24 f8
	00 00 00	 mov	 QWORD PTR endpage$[rsp], rax

; 3863 : 
; 3864 :         for (page = startpage & STORAGE_KEY_PAGEMASK;

  012e0	48 8b 84 24 f0
	00 00 00	 mov	 rax, QWORD PTR startpage$[rsp]
  012e8	48 25 00 f0 ff
	ff		 and	 rax, -4096		; fffffffffffff000H
  012ee	48 89 44 24 70	 mov	 QWORD PTR page$[rsp], rax
  012f3	eb 10		 jmp	 SHORT $LN46@z900_copy_
$LN44@z900_copy_:

; 3866 :              page += STORAGE_KEY_PAGESIZE)

  012f5	48 8b 44 24 70	 mov	 rax, QWORD PTR page$[rsp]
  012fa	48 05 00 10 00
	00		 add	 rax, 4096		; 00001000H
  01300	48 89 44 24 70	 mov	 QWORD PTR page$[rsp], rax
$LN46@z900_copy_:

; 3865 :              page <= (endpage | STORAGE_KEY_BYTEMASK);

  01305	48 8b 84 24 f8
	00 00 00	 mov	 rax, QWORD PTR endpage$[rsp]
  0130d	48 0d ff 0f 00
	00		 or	 rax, 4095		; 00000fffH
  01313	48 39 44 24 70	 cmp	 QWORD PTR page$[rsp], rax
  01318	0f 87 88 03 00
	00		 ja	 $LN45@z900_copy_

; 3867 :         {
; 3868 :             /* Channel program check if data is outside main storage */
; 3869 :             if (CHADDRCHK( page, dev ))

  0131e	48 8b 84 24 30
	01 00 00	 mov	 rax, QWORD PTR dev$[rsp]
  01326	48 8b 80 90 00
	00 00		 mov	 rax, QWORD PTR [rax+144]
  0132d	48 39 44 24 70	 cmp	 QWORD PTR page$[rsp], rax
  01332	77 70		 ja	 SHORT $LN160@z900_copy_
  01334	48 8b 84 24 30
	01 00 00	 mov	 rax, QWORD PTR dev$[rsp]
  0133c	0f b6 80 d1 02
	00 00		 movzx	 eax, BYTE PTR [rax+721]
  01343	83 e0 10	 and	 eax, 16
  01346	85 c0		 test	 eax, eax
  01348	0f 84 97 00 00
	00		 je	 $LN159@z900_copy_
  0134e	48 8b 84 24 30
	01 00 00	 mov	 rax, QWORD PTR dev$[rsp]
  01356	0f b6 80 f1 02
	00 00		 movzx	 eax, BYTE PTR [rax+753]
  0135d	83 e0 20	 and	 eax, 32			; 00000020H
  01360	85 c0		 test	 eax, eax
  01362	74 15		 je	 SHORT $LN162@z900_copy_
  01364	48 8b 05 00 00
	00 00		 mov	 rax, QWORD PTR __imp_sysblk
  0136b	48 8b 80 60 12
	00 00		 mov	 rax, QWORD PTR [rax+4704]
  01372	48 39 44 24 70	 cmp	 QWORD PTR page$[rsp], rax
  01377	72 2b		 jb	 SHORT $LN161@z900_copy_
$LN162@z900_copy_:
  01379	48 8b 84 24 30
	01 00 00	 mov	 rax, QWORD PTR dev$[rsp]
  01381	0f b6 80 f1 02
	00 00		 movzx	 eax, BYTE PTR [rax+753]
  01388	83 e0 40	 and	 eax, 64			; 00000040H
  0138b	85 c0		 test	 eax, eax
  0138d	74 56		 je	 SHORT $LN159@z900_copy_
  0138f	48 8b 05 00 00
	00 00		 mov	 rax, QWORD PTR __imp_sysblk
  01396	48 8b 80 60 12
	00 00		 mov	 rax, QWORD PTR [rax+4704]
  0139d	48 39 44 24 70	 cmp	 QWORD PTR page$[rsp], rax
  013a2	72 41		 jb	 SHORT $LN159@z900_copy_
$LN161@z900_copy_:
$LN160@z900_copy_:

; 3870 :             {
; 3871 :                 if (prefetch->seq)

  013a4	48 8b 84 24 a0
	01 00 00	 mov	 rax, QWORD PTR prefetch$[rsp]
  013ac	83 38 00	 cmp	 DWORD PTR [rax], 0
  013af	74 16		 je	 SHORT $LN163@z900_copy_

; 3872 :                 {
; 3873 :                     prefetch->chanstat[ps] = CSW_PROGC;

  013b1	8b 44 24 50	 mov	 eax, DWORD PTR ps$[rsp]
  013b5	48 8b 8c 24 a0
	01 00 00	 mov	 rcx, QWORD PTR prefetch$[rsp]
  013bd	c6 44 01 10 20	 mov	 BYTE PTR [rcx+rax+16], 32 ; 00000020H

; 3874 :                     break;

  013c2	e9 df 02 00 00	 jmp	 $LN45@z900_copy_
$LN163@z900_copy_:

; 3875 :                 }
; 3876 : 
; 3877 :                 *chanstat = CSW_PROGC;

  013c7	48 8b 84 24 90
	01 00 00	 mov	 rax, QWORD PTR chanstat$[rsp]
  013cf	c6 00 20	 mov	 BYTE PTR [rax], 32	; 00000020H

; 3878 : 
; 3879 :                 if (readbackwards)

  013d2	0f b6 44 24 59	 movzx	 eax, BYTE PTR readbackwards$[rsp]
  013d7	85 c0		 test	 eax, eax
  013d9	74 05		 je	 SHORT $LN164@z900_copy_

; 3880 :                     return;

  013db	e9 ca 05 00 00	 jmp	 $LN1@z900_copy_
$LN164@z900_copy_:

; 3881 : 
; 3882 :                 break;

  013e0	e9 c1 02 00 00	 jmp	 $LN45@z900_copy_
$LN159@z900_copy_:

; 3883 :             }
; 3884 : 
; 3885 :             storkey = ARCH_DEP( get_dev_storage_key )( dev, page );

  013e5	48 8b 54 24 70	 mov	 rdx, QWORD PTR page$[rsp]
  013ea	48 8b 8c 24 30
	01 00 00	 mov	 rcx, QWORD PTR dev$[rsp]
  013f2	e8 00 00 00 00	 call	 z900_get_dev_storage_key
  013f7	88 44 24 60	 mov	 BYTE PTR storkey$[rsp], al

; 3886 : 
; 3887 :             if (1
; 3888 :                 && ccwkey != 0
; 3889 :                 && (storkey & STORKEY_KEY) != ccwkey
; 3890 :                 && ((storkey & STORKEY_FETCH) || to_memory)

  013fb	33 c0		 xor	 eax, eax
  013fd	83 f8 01	 cmp	 eax, 1
  01400	0f 84 9b 02 00
	00		 je	 $LN165@z900_copy_
  01406	0f b6 84 24 60
	01 00 00	 movzx	 eax, BYTE PTR ccwkey$[rsp]
  0140e	85 c0		 test	 eax, eax
  01410	0f 84 8b 02 00
	00		 je	 $LN165@z900_copy_
  01416	0f b6 44 24 60	 movzx	 eax, BYTE PTR storkey$[rsp]
  0141b	25 f0 00 00 00	 and	 eax, 240		; 000000f0H
  01420	0f b6 8c 24 60
	01 00 00	 movzx	 ecx, BYTE PTR ccwkey$[rsp]
  01428	3b c1		 cmp	 eax, ecx
  0142a	0f 84 71 02 00
	00		 je	 $LN165@z900_copy_
  01430	0f b6 44 24 60	 movzx	 eax, BYTE PTR storkey$[rsp]
  01435	83 e0 08	 and	 eax, 8
  01438	85 c0		 test	 eax, eax
  0143a	75 0d		 jne	 SHORT $LN166@z900_copy_
  0143c	0f b6 44 24 58	 movzx	 eax, BYTE PTR to_memory$[rsp]
  01441	85 c0		 test	 eax, eax
  01443	0f 84 58 02 00
	00		 je	 $LN165@z900_copy_
$LN166@z900_copy_:

; 3891 :             )
; 3892 :             {
; 3893 :                 if (readbackwards)

  01449	0f b6 44 24 59	 movzx	 eax, BYTE PTR readbackwards$[rsp]
  0144e	85 c0		 test	 eax, eax
  01450	74 5b		 je	 SHORT $LN167@z900_copy_

; 3894 :                 {
; 3895 :                     *residual = MAX( page, addr ) - addr;

  01452	8b 84 24 50 01
	00 00		 mov	 eax, DWORD PTR addr$[rsp]
  01459	48 39 44 24 70	 cmp	 QWORD PTR page$[rsp], rax
  0145e	76 0f		 jbe	 SHORT $LN195@z900_copy_
  01460	48 8b 44 24 70	 mov	 rax, QWORD PTR page$[rsp]
  01465	48 89 84 24 c0
	00 00 00	 mov	 QWORD PTR tv788[rsp], rax
  0146d	eb 0f		 jmp	 SHORT $LN196@z900_copy_
$LN195@z900_copy_:
  0146f	8b 84 24 50 01
	00 00		 mov	 eax, DWORD PTR addr$[rsp]
  01476	48 89 84 24 c0
	00 00 00	 mov	 QWORD PTR tv788[rsp], rax
$LN196@z900_copy_:
  0147e	8b 84 24 50 01
	00 00		 mov	 eax, DWORD PTR addr$[rsp]
  01485	48 8b 8c 24 c0
	00 00 00	 mov	 rcx, QWORD PTR tv788[rsp]
  0148d	48 2b c8	 sub	 rcx, rax
  01490	48 8b c1	 mov	 rax, rcx
  01493	48 8b 8c 24 98
	01 00 00	 mov	 rcx, QWORD PTR residual$[rsp]
  0149b	89 01		 mov	 DWORD PTR [rcx], eax

; 3896 :                     *chanstat = CSW_PROTC;

  0149d	48 8b 84 24 90
	01 00 00	 mov	 rax, QWORD PTR chanstat$[rsp]
  014a5	c6 00 10	 mov	 BYTE PTR [rax], 16

; 3897 :                     break;

  014a8	e9 f9 01 00 00	 jmp	 $LN45@z900_copy_
$LN167@z900_copy_:

; 3898 :                 }
; 3899 : 
; 3900 :                 /* Calculate residual */
; 3901 :                 *residual = count - (MAX( page, addr ) - addr);

  014ad	8b 84 24 50 01
	00 00		 mov	 eax, DWORD PTR addr$[rsp]
  014b4	48 39 44 24 70	 cmp	 QWORD PTR page$[rsp], rax
  014b9	76 0f		 jbe	 SHORT $LN197@z900_copy_
  014bb	48 8b 44 24 70	 mov	 rax, QWORD PTR page$[rsp]
  014c0	48 89 84 24 c8
	00 00 00	 mov	 QWORD PTR tv796[rsp], rax
  014c8	eb 0f		 jmp	 SHORT $LN198@z900_copy_
$LN197@z900_copy_:
  014ca	8b 84 24 50 01
	00 00		 mov	 eax, DWORD PTR addr$[rsp]
  014d1	48 89 84 24 c8
	00 00 00	 mov	 QWORD PTR tv796[rsp], rax
$LN198@z900_copy_:
  014d9	8b 84 24 58 01
	00 00		 mov	 eax, DWORD PTR count$[rsp]
  014e0	8b 8c 24 50 01
	00 00		 mov	 ecx, DWORD PTR addr$[rsp]
  014e7	48 8b 94 24 c8
	00 00 00	 mov	 rdx, QWORD PTR tv796[rsp]
  014ef	48 2b d1	 sub	 rdx, rcx
  014f2	48 8b ca	 mov	 rcx, rdx
  014f5	48 2b c1	 sub	 rax, rcx
  014f8	48 8b 8c 24 98
	01 00 00	 mov	 rcx, QWORD PTR residual$[rsp]
  01500	89 01		 mov	 DWORD PTR [rcx], eax

; 3902 : 
; 3903 :                 /* Handle prefetch */
; 3904 :                 if (prefetch->seq)

  01502	48 8b 84 24 a0
	01 00 00	 mov	 rax, QWORD PTR prefetch$[rsp]
  0150a	83 38 00	 cmp	 DWORD PTR [rax], 0
  0150d	0f 84 81 01 00
	00		 je	 $LN168@z900_copy_

; 3905 :                 {
; 3906 :                     prefetch->datalen[ps] = MAX( page, addr ) - addr;

  01513	8b 84 24 50 01
	00 00		 mov	 eax, DWORD PTR addr$[rsp]
  0151a	48 39 44 24 70	 cmp	 QWORD PTR page$[rsp], rax
  0151f	76 0f		 jbe	 SHORT $LN199@z900_copy_
  01521	48 8b 44 24 70	 mov	 rax, QWORD PTR page$[rsp]
  01526	48 89 84 24 d0
	00 00 00	 mov	 QWORD PTR tv810[rsp], rax
  0152e	eb 0f		 jmp	 SHORT $LN200@z900_copy_
$LN199@z900_copy_:
  01530	8b 84 24 50 01
	00 00		 mov	 eax, DWORD PTR addr$[rsp]
  01537	48 89 84 24 d0
	00 00 00	 mov	 QWORD PTR tv810[rsp], rax
$LN200@z900_copy_:
  0153f	8b 84 24 50 01
	00 00		 mov	 eax, DWORD PTR addr$[rsp]
  01546	48 8b 8c 24 d0
	00 00 00	 mov	 rcx, QWORD PTR tv810[rsp]
  0154e	48 2b c8	 sub	 rcx, rax
  01551	48 8b c1	 mov	 rax, rcx
  01554	8b 4c 24 50	 mov	 ecx, DWORD PTR ps$[rsp]
  01558	48 8b 94 24 a0
	01 00 00	 mov	 rdx, QWORD PTR prefetch$[rsp]
  01560	89 84 8a 10 05
	00 00		 mov	 DWORD PTR [rdx+rcx*4+1296], eax

; 3907 : 
; 3908 :                     if (*residual)

  01567	48 8b 84 24 98
	01 00 00	 mov	 rax, QWORD PTR residual$[rsp]
  0156f	83 38 00	 cmp	 DWORD PTR [rax], 0
  01572	0f 84 09 01 00
	00		 je	 $LN169@z900_copy_
$LN49@z900_copy_:

; 3909 :                     {
; 3910 :                         /* Split entry */
; 3911 :                         get_new_prefetch_entry( PF_NO_IDAW, page );

  01578	48 8b 84 24 a0
	01 00 00	 mov	 rax, QWORD PTR prefetch$[rsp]
  01580	83 38 00	 cmp	 DWORD PTR [rax], 0
  01583	0f 84 9c 00 00
	00		 je	 $LN170@z900_copy_
  01589	48 8b 84 24 a0
	01 00 00	 mov	 rax, QWORD PTR prefetch$[rsp]
  01591	8b 00		 mov	 eax, DWORD PTR [rax]
  01593	89 44 24 50	 mov	 DWORD PTR ps$[rsp], eax
  01597	48 8b 84 24 a0
	01 00 00	 mov	 rax, QWORD PTR prefetch$[rsp]
  0159f	8b 00		 mov	 eax, DWORD PTR [rax]
  015a1	ff c0		 inc	 eax
  015a3	48 8b 8c 24 a0
	01 00 00	 mov	 rcx, QWORD PTR prefetch$[rsp]
  015ab	89 01		 mov	 DWORD PTR [rcx], eax
  015ad	48 8b 84 24 a0
	01 00 00	 mov	 rax, QWORD PTR prefetch$[rsp]
  015b5	81 38 00 01 00
	00		 cmp	 DWORD PTR [rax], 256	; 00000100H
  015bb	76 0d		 jbe	 SHORT $LN171@z900_copy_
  015bd	48 8b 84 24 90
	01 00 00	 mov	 rax, QWORD PTR chanstat$[rsp]
  015c5	c6 00 08	 mov	 BYTE PTR [rax], 8
  015c8	eb 70		 jmp	 SHORT $LN48@z900_copy_
$LN171@z900_copy_:
  015ca	8b 44 24 50	 mov	 eax, DWORD PTR ps$[rsp]
  015ce	ff c8		 dec	 eax
  015d0	8b c0		 mov	 eax, eax
  015d2	8b 4c 24 50	 mov	 ecx, DWORD PTR ps$[rsp]
  015d6	48 8b 94 24 a0
	01 00 00	 mov	 rdx, QWORD PTR prefetch$[rsp]
  015de	48 8b bc 24 a0
	01 00 00	 mov	 rdi, QWORD PTR prefetch$[rsp]
  015e6	8b 84 87 10 01
	00 00		 mov	 eax, DWORD PTR [rdi+rax*4+272]
  015ed	89 84 8a 10 01
	00 00		 mov	 DWORD PTR [rdx+rcx*4+272], eax
  015f4	33 c0		 xor	 eax, eax
  015f6	85 c0		 test	 eax, eax
  015f8	74 2b		 je	 SHORT $LN172@z900_copy_
  015fa	8b 44 24 50	 mov	 eax, DWORD PTR ps$[rsp]
  015fe	48 8b 8c 24 a0
	01 00 00	 mov	 rcx, QWORD PTR prefetch$[rsp]
  01606	c6 84 01 10 18
	00 00 00	 mov	 BYTE PTR [rcx+rax+6160], 0
  0160e	8b 44 24 50	 mov	 eax, DWORD PTR ps$[rsp]
  01612	48 8b 8c 24 a0
	01 00 00	 mov	 rcx, QWORD PTR prefetch$[rsp]
  0161a	8b 54 24 70	 mov	 edx, DWORD PTR page$[rsp]
  0161e	89 94 81 10 14
	00 00		 mov	 DWORD PTR [rcx+rax*4+5136], edx
$LN172@z900_copy_:
$LN170@z900_copy_:
  01625	48 8b 84 24 90
	01 00 00	 mov	 rax, QWORD PTR chanstat$[rsp]
  0162d	c6 00 00	 mov	 BYTE PTR [rax], 0
  01630	33 c0		 xor	 eax, eax
  01632	85 c0		 test	 eax, eax
  01634	0f 85 3e ff ff
	ff		 jne	 $LN49@z900_copy_
$LN48@z900_copy_:

; 3912 : 
; 3913 :                         if (*chanstat != 0)

  0163a	48 8b 84 24 90
	01 00 00	 mov	 rax, QWORD PTR chanstat$[rsp]
  01642	0f b6 00	 movzx	 eax, BYTE PTR [rax]
  01645	85 c0		 test	 eax, eax
  01647	74 02		 je	 SHORT $LN173@z900_copy_

; 3914 :                             break;

  01649	eb 5b		 jmp	 SHORT $LN45@z900_copy_
$LN173@z900_copy_:

; 3915 : 
; 3916 :                         prefetch->dataaddr[ps] = page;

  0164b	8b 44 24 50	 mov	 eax, DWORD PTR ps$[rsp]
  0164f	48 8b 8c 24 a0
	01 00 00	 mov	 rcx, QWORD PTR prefetch$[rsp]
  01657	48 8b 54 24 70	 mov	 rdx, QWORD PTR page$[rsp]
  0165c	48 89 94 c1 10
	09 00 00	 mov	 QWORD PTR [rcx+rax*8+2320], rdx

; 3917 :                         prefetch->datalen[ps] = *residual;

  01664	8b 44 24 50	 mov	 eax, DWORD PTR ps$[rsp]
  01668	48 8b 8c 24 a0
	01 00 00	 mov	 rcx, QWORD PTR prefetch$[rsp]
  01670	48 8b 94 24 98
	01 00 00	 mov	 rdx, QWORD PTR residual$[rsp]
  01678	8b 12		 mov	 edx, DWORD PTR [rdx]
  0167a	89 94 81 10 05
	00 00		 mov	 DWORD PTR [rcx+rax*4+1296], edx
$LN169@z900_copy_:

; 3918 :                     }
; 3919 : 
; 3920 :                     prefetch->chanstat[ps] = CSW_PROTC;

  01681	8b 44 24 50	 mov	 eax, DWORD PTR ps$[rsp]
  01685	48 8b 8c 24 a0
	01 00 00	 mov	 rcx, QWORD PTR prefetch$[rsp]
  0168d	c6 44 01 10 10	 mov	 BYTE PTR [rcx+rax+16], 16

; 3921 :                     break;

  01692	eb 12		 jmp	 SHORT $LN45@z900_copy_
$LN168@z900_copy_:

; 3922 :                 }
; 3923 : 
; 3924 :                 *chanstat = CSW_PROTC;

  01694	48 8b 84 24 90
	01 00 00	 mov	 rax, QWORD PTR chanstat$[rsp]
  0169c	c6 00 10	 mov	 BYTE PTR [rax], 16

; 3925 :                 break;

  0169f	eb 05		 jmp	 SHORT $LN45@z900_copy_
$LN165@z900_copy_:

; 3926 :             }
; 3927 : 
; 3928 :         } /* end for(page) */

  016a1	e9 4f fc ff ff	 jmp	 $LN44@z900_copy_
$LN45@z900_copy_:

; 3929 : 
; 3930 :         /* Adjust local count for copy to main storage */
; 3931 :         count = MIN( count, MAX( page, addr ) - addr );

  016a6	8b 84 24 50 01
	00 00		 mov	 eax, DWORD PTR addr$[rsp]
  016ad	48 39 44 24 70	 cmp	 QWORD PTR page$[rsp], rax
  016b2	76 0f		 jbe	 SHORT $LN201@z900_copy_
  016b4	48 8b 44 24 70	 mov	 rax, QWORD PTR page$[rsp]
  016b9	48 89 84 24 d8
	00 00 00	 mov	 QWORD PTR tv860[rsp], rax
  016c1	eb 0f		 jmp	 SHORT $LN202@z900_copy_
$LN201@z900_copy_:
  016c3	8b 84 24 50 01
	00 00		 mov	 eax, DWORD PTR addr$[rsp]
  016ca	48 89 84 24 d8
	00 00 00	 mov	 QWORD PTR tv860[rsp], rax
$LN202@z900_copy_:
  016d2	8b 84 24 58 01
	00 00		 mov	 eax, DWORD PTR count$[rsp]
  016d9	8b 8c 24 50 01
	00 00		 mov	 ecx, DWORD PTR addr$[rsp]
  016e0	48 8b 94 24 d8
	00 00 00	 mov	 rdx, QWORD PTR tv860[rsp]
  016e8	48 2b d1	 sub	 rdx, rcx
  016eb	48 8b ca	 mov	 rcx, rdx
  016ee	48 3b c1	 cmp	 rax, rcx
  016f1	73 11		 jae	 SHORT $LN205@z900_copy_
  016f3	8b 84 24 58 01
	00 00		 mov	 eax, DWORD PTR count$[rsp]
  016fa	48 89 84 24 e8
	00 00 00	 mov	 QWORD PTR tv871[rsp], rax
  01702	eb 49		 jmp	 SHORT $LN206@z900_copy_
$LN205@z900_copy_:
  01704	8b 84 24 50 01
	00 00		 mov	 eax, DWORD PTR addr$[rsp]
  0170b	48 39 44 24 70	 cmp	 QWORD PTR page$[rsp], rax
  01710	76 0f		 jbe	 SHORT $LN203@z900_copy_
  01712	48 8b 44 24 70	 mov	 rax, QWORD PTR page$[rsp]
  01717	48 89 84 24 e0
	00 00 00	 mov	 QWORD PTR tv868[rsp], rax
  0171f	eb 0f		 jmp	 SHORT $LN204@z900_copy_
$LN203@z900_copy_:
  01721	8b 84 24 50 01
	00 00		 mov	 eax, DWORD PTR addr$[rsp]
  01728	48 89 84 24 e0
	00 00 00	 mov	 QWORD PTR tv868[rsp], rax
$LN204@z900_copy_:
  01730	8b 84 24 50 01
	00 00		 mov	 eax, DWORD PTR addr$[rsp]
  01737	48 8b 8c 24 e0
	00 00 00	 mov	 rcx, QWORD PTR tv868[rsp]
  0173f	48 2b c8	 sub	 rcx, rax
  01742	48 8b c1	 mov	 rax, rcx
  01745	48 89 84 24 e8
	00 00 00	 mov	 QWORD PTR tv871[rsp], rax
$LN206@z900_copy_:
  0174d	8b 84 24 e8 00
	00 00		 mov	 eax, DWORD PTR tv871[rsp]
  01754	89 84 24 58 01
	00 00		 mov	 DWORD PTR count$[rsp], eax

; 3932 : 
; 3933 :         /* Count may be zero during prefetch operations */
; 3934 :         if (count)

  0175b	83 bc 24 58 01
	00 00 00	 cmp	 DWORD PTR count$[rsp], 0
  01763	0f 84 41 02 00
	00		 je	 $LN174@z900_copy_

; 3935 :         {
; 3936 :             /* Set the main storage reference and change bits */
; 3937 :             for (page = startpage & STORAGE_KEY_PAGEMASK;

  01769	48 8b 84 24 f0
	00 00 00	 mov	 rax, QWORD PTR startpage$[rsp]
  01771	48 25 00 f0 ff
	ff		 and	 rax, -4096		; fffffffffffff000H
  01777	48 89 44 24 70	 mov	 QWORD PTR page$[rsp], rax
  0177c	eb 10		 jmp	 SHORT $LN52@z900_copy_
$LN50@z900_copy_:

; 3939 :                  page += STORAGE_KEY_PAGESIZE)

  0177e	48 8b 44 24 70	 mov	 rax, QWORD PTR page$[rsp]
  01783	48 05 00 10 00
	00		 add	 rax, 4096		; 00001000H
  01789	48 89 44 24 70	 mov	 QWORD PTR page$[rsp], rax
$LN52@z900_copy_:

; 3938 :                  page <= (endpage | STORAGE_KEY_BYTEMASK);

  0178e	48 8b 84 24 f8
	00 00 00	 mov	 rax, QWORD PTR endpage$[rsp]
  01796	48 0d ff 0f 00
	00		 or	 rax, 4095		; 00000fffH
  0179c	48 39 44 24 70	 cmp	 QWORD PTR page$[rsp], rax
  017a1	77 37		 ja	 SHORT $LN51@z900_copy_

; 3940 :             {
; 3941 :                 if (to_memory)

  017a3	0f b6 44 24 58	 movzx	 eax, BYTE PTR to_memory$[rsp]
  017a8	85 c0		 test	 eax, eax
  017aa	74 17		 je	 SHORT $LN175@z900_copy_

; 3942 :                     ARCH_DEP( or_dev_storage_key )( dev, page, (STORKEY_REF | STORKEY_CHANGE) );

  017ac	41 b0 06	 mov	 r8b, 6
  017af	48 8b 54 24 70	 mov	 rdx, QWORD PTR page$[rsp]
  017b4	48 8b 8c 24 30
	01 00 00	 mov	 rcx, QWORD PTR dev$[rsp]
  017bc	e8 00 00 00 00	 call	 z900_or_dev_storage_key
  017c1	eb 15		 jmp	 SHORT $LN176@z900_copy_
$LN175@z900_copy_:

; 3943 :                 else
; 3944 :                     ARCH_DEP( or_dev_storage_key )( dev, page, STORKEY_REF );

  017c3	41 b0 04	 mov	 r8b, 4
  017c6	48 8b 54 24 70	 mov	 rdx, QWORD PTR page$[rsp]
  017cb	48 8b 8c 24 30
	01 00 00	 mov	 rcx, QWORD PTR dev$[rsp]
  017d3	e8 00 00 00 00	 call	 z900_or_dev_storage_key
$LN176@z900_copy_:

; 3945 :             } /* end for(page) */

  017d8	eb a4		 jmp	 SHORT $LN50@z900_copy_
$LN51@z900_copy_:

; 3946 : 
; 3947 : #if DEBUG_PREFETCH
; 3948 :             if (dev->ccwtrace)
; 3949 :             {
; 3950 :                 char msgbuf[133];
; 3951 : 
; 3952 :                 MSGBUF( msgbuf,
; 3953 :                     "CCW %2.2X %2.2X %4.4X %8.8X to_memory=%d to_iobuf=%d readbackwards=%d",
; 3954 :                     (U8)code, (U8)flags, (U16)count, (U32)addr, to_memory, to_iobuf, readbackwards );
; 3955 :                 WRMSG( HHC01392, "D", msgbuf );
; 3956 :             }
; 3957 : #endif
; 3958 :             /* Copy data between main storage and channel buffer */
; 3959 :             if (readbackwards)

  017da	0f b6 44 24 59	 movzx	 eax, BYTE PTR readbackwards$[rsp]
  017df	85 c0		 test	 eax, eax
  017e1	0f 84 a5 00 00
	00		 je	 $LN177@z900_copy_

; 3960 :             {
; 3961 :                 BYTE *iobufptr = iobuf + dev->curblkrem;

  017e7	48 8b 84 24 30
	01 00 00	 mov	 rax, QWORD PTR dev$[rsp]
  017ef	8b 80 18 10 00
	00		 mov	 eax, DWORD PTR [rax+4120]
  017f5	48 8b 8c 24 78
	01 00 00	 mov	 rcx, QWORD PTR iobuf$[rsp]
  017fd	48 03 c8	 add	 rcx, rax
  01800	48 8b c1	 mov	 rax, rcx
  01803	48 89 84 24 b8
	00 00 00	 mov	 QWORD PTR iobufptr$1[rsp], rax

; 3962 : 
; 3963 :                 /* Channel check if outside buffer                   */
; 3964 :                 /* SA22-7201-05:                                     */
; 3965 :                 /*  p. 16-27, Channel-Data Check                     */
; 3966 :                 if (!count                              ||
; 3967 :                     (iobufptr + count) > (iobufend + 1) ||

  0180b	83 bc 24 58 01
	00 00 00	 cmp	 DWORD PTR count$[rsp], 0
  01813	74 37		 je	 SHORT $LN181@z900_copy_
  01815	8b 84 24 58 01
	00 00		 mov	 eax, DWORD PTR count$[rsp]
  0181c	48 8b 8c 24 b8
	00 00 00	 mov	 rcx, QWORD PTR iobufptr$1[rsp]
  01824	48 03 c8	 add	 rcx, rax
  01827	48 8b c1	 mov	 rax, rcx
  0182a	48 8b 8c 24 88
	01 00 00	 mov	 rcx, QWORD PTR iobufend$[rsp]
  01832	48 ff c1	 inc	 rcx
  01835	48 3b c1	 cmp	 rax, rcx
  01838	77 12		 ja	 SHORT $LN181@z900_copy_
  0183a	48 8b 84 24 80
	01 00 00	 mov	 rax, QWORD PTR iobufstart$[rsp]
  01842	48 39 84 24 b8
	00 00 00	 cmp	 QWORD PTR iobufptr$1[rsp], rax
  0184a	73 0d		 jae	 SHORT $LN179@z900_copy_
$LN181@z900_copy_:

; 3968 :                     iobufptr < iobufstart)
; 3969 :                     *chanstat = CSW_CDC;

  0184c	48 8b 84 24 90
	01 00 00	 mov	 rax, QWORD PTR chanstat$[rsp]
  01854	c6 00 08	 mov	 BYTE PTR [rax], 8
  01857	eb 2e		 jmp	 SHORT $LN180@z900_copy_
$LN179@z900_copy_:

; 3970 :                 else
; 3971 :                 {
; 3972 :                     /* read backward  - use END of buffer */
; 3973 :                     memcpy_backwards( dev->mainstor + addr,

  01859	8b 84 24 50 01
	00 00		 mov	 eax, DWORD PTR addr$[rsp]
  01860	48 8b 8c 24 30
	01 00 00	 mov	 rcx, QWORD PTR dev$[rsp]
  01868	48 03 81 80 00
	00 00		 add	 rax, QWORD PTR [rcx+128]
  0186f	44 8b 84 24 58
	01 00 00	 mov	 r8d, DWORD PTR count$[rsp]
  01877	48 8b 94 24 b8
	00 00 00	 mov	 rdx, QWORD PTR iobufptr$1[rsp]
  0187f	48 8b c8	 mov	 rcx, rax
  01882	e8 00 00 00 00	 call	 memcpy_backwards
$LN180@z900_copy_:

; 3974 :                         iobufptr, count );
; 3975 :                 }
; 3976 :             }

  01887	e9 1e 01 00 00	 jmp	 $LN178@z900_copy_
$LN177@z900_copy_:

; 3977 : 
; 3978 :             /* Channel check if outside buffer                       */
; 3979 :             /* SA22-7201-05:                                         */
; 3980 :             /*  p. 16-27, Channel-Data Check                         */
; 3981 :             else if (!count                           ||
; 3982 :                      (iobuf + count) > (iobufend + 1) ||

  0188c	83 bc 24 58 01
	00 00 00	 cmp	 DWORD PTR count$[rsp], 0
  01894	74 37		 je	 SHORT $LN184@z900_copy_
  01896	8b 84 24 58 01
	00 00		 mov	 eax, DWORD PTR count$[rsp]
  0189d	48 8b 8c 24 78
	01 00 00	 mov	 rcx, QWORD PTR iobuf$[rsp]
  018a5	48 03 c8	 add	 rcx, rax
  018a8	48 8b c1	 mov	 rax, rcx
  018ab	48 8b 8c 24 88
	01 00 00	 mov	 rcx, QWORD PTR iobufend$[rsp]
  018b3	48 ff c1	 inc	 rcx
  018b6	48 3b c1	 cmp	 rax, rcx
  018b9	77 12		 ja	 SHORT $LN184@z900_copy_
  018bb	48 8b 84 24 80
	01 00 00	 mov	 rax, QWORD PTR iobufstart$[rsp]
  018c3	48 39 84 24 78
	01 00 00	 cmp	 QWORD PTR iobuf$[rsp], rax
  018cb	73 36		 jae	 SHORT $LN182@z900_copy_
$LN184@z900_copy_:
$LN55@z900_copy_:

; 3983 :                      iobuf < iobufstart)
; 3984 :                 set_chanstat( CSW_CDC );

  018cd	48 8b 84 24 a0
	01 00 00	 mov	 rax, QWORD PTR prefetch$[rsp]
  018d5	83 38 00	 cmp	 DWORD PTR [rax], 0
  018d8	74 13		 je	 SHORT $LN185@z900_copy_
  018da	8b 44 24 50	 mov	 eax, DWORD PTR ps$[rsp]
  018de	48 8b 8c 24 a0
	01 00 00	 mov	 rcx, QWORD PTR prefetch$[rsp]
  018e6	c6 44 01 10 08	 mov	 BYTE PTR [rcx+rax+16], 8
  018eb	eb 0b		 jmp	 SHORT $LN186@z900_copy_
$LN185@z900_copy_:
  018ed	48 8b 84 24 90
	01 00 00	 mov	 rax, QWORD PTR chanstat$[rsp]
  018f5	c6 00 08	 mov	 BYTE PTR [rax], 8
$LN186@z900_copy_:
  018f8	33 c0		 xor	 eax, eax
  018fa	85 c0		 test	 eax, eax
  018fc	75 cf		 jne	 SHORT $LN55@z900_copy_
  018fe	e9 a7 00 00 00	 jmp	 $LN183@z900_copy_
$LN182@z900_copy_:

; 3985 : 
; 3986 :             /* Handle Write and Control transfer to I/O buffer */
; 3987 :             else if (to_iobuf)

  01903	0f b6 44 24 62	 movzx	 eax, BYTE PTR to_iobuf$[rsp]
  01908	85 c0		 test	 eax, eax
  0190a	74 72		 je	 SHORT $LN187@z900_copy_

; 3988 :             {
; 3989 :                 memcpy( iobuf, dev->mainstor + addr, count );

  0190c	8b 84 24 58 01
	00 00		 mov	 eax, DWORD PTR count$[rsp]
  01913	8b 8c 24 50 01
	00 00		 mov	 ecx, DWORD PTR addr$[rsp]
  0191a	48 8b 94 24 30
	01 00 00	 mov	 rdx, QWORD PTR dev$[rsp]
  01922	48 03 8a 80 00
	00 00		 add	 rcx, QWORD PTR [rdx+128]
  01929	48 8b bc 24 78
	01 00 00	 mov	 rdi, QWORD PTR iobuf$[rsp]
  01931	48 8b f1	 mov	 rsi, rcx
  01934	8b c8		 mov	 ecx, eax
  01936	f3 a4		 rep movsb

; 3990 : 
; 3991 :                 prefetch->pos += count;

  01938	48 8b 84 24 a0
	01 00 00	 mov	 rax, QWORD PTR prefetch$[rsp]
  01940	8b 40 04	 mov	 eax, DWORD PTR [rax+4]
  01943	03 84 24 58 01
	00 00		 add	 eax, DWORD PTR count$[rsp]
  0194a	48 8b 8c 24 a0
	01 00 00	 mov	 rcx, QWORD PTR prefetch$[rsp]
  01952	89 41 04	 mov	 DWORD PTR [rcx+4], eax

; 3992 : 
; 3993 :                 if (prefetch->seq)

  01955	48 8b 84 24 a0
	01 00 00	 mov	 rax, QWORD PTR prefetch$[rsp]
  0195d	83 38 00	 cmp	 DWORD PTR [rax], 0
  01960	74 1a		 je	 SHORT $LN189@z900_copy_

; 3994 :                     prefetch->datalen[ps] = count;

  01962	8b 44 24 50	 mov	 eax, DWORD PTR ps$[rsp]
  01966	48 8b 8c 24 a0
	01 00 00	 mov	 rcx, QWORD PTR prefetch$[rsp]
  0196e	8b 94 24 58 01
	00 00		 mov	 edx, DWORD PTR count$[rsp]
  01975	89 94 81 10 05
	00 00		 mov	 DWORD PTR [rcx+rax*4+1296], edx
$LN189@z900_copy_:

; 3995 : 
; 3996 :             }

  0197c	eb 2c		 jmp	 SHORT $LN188@z900_copy_
$LN187@z900_copy_:

; 3997 : 
; 3998 :             /* Handle Read transfer from I/O buffer */
; 3999 :             else
; 4000 :             {
; 4001 :                 memcpy( dev->mainstor + addr, iobuf, count );

  0197e	8b 84 24 58 01
	00 00		 mov	 eax, DWORD PTR count$[rsp]
  01985	8b 8c 24 50 01
	00 00		 mov	 ecx, DWORD PTR addr$[rsp]
  0198c	48 8b 94 24 30
	01 00 00	 mov	 rdx, QWORD PTR dev$[rsp]
  01994	48 03 8a 80 00
	00 00		 add	 rcx, QWORD PTR [rdx+128]
  0199b	48 8b f9	 mov	 rdi, rcx
  0199e	48 8b b4 24 78
	01 00 00	 mov	 rsi, QWORD PTR iobuf$[rsp]
  019a6	8b c8		 mov	 ecx, eax
  019a8	f3 a4		 rep movsb
$LN188@z900_copy_:
$LN183@z900_copy_:
$LN178@z900_copy_:
$LN174@z900_copy_:
$LN112@z900_copy_:
$LN68@z900_copy_:
$LN1@z900_copy_:

; 4002 :             }
; 4003 : 
; 4004 : #ifdef FEATURE_S370_CHANNEL
; 4005 :             if (dev->devtype == 0x2703)
; 4006 :                 if (dev->commadpt->lnctl == COMMADPT_LNCTL_ASYNC)
; 4007 :                     usleep(5000);
; 4008 : #endif
; 4009 : 
; 4010 : #if DEBUG_DUMP
; 4011 :             if (dev->ccwtrace)
; 4012 :             {
; 4013 :                 char msgbuf[133];
; 4014 : 
; 4015 :                 MSGBUF( msgbuf, "iobuf->%8.8X.%4.4X", addr, count );
; 4016 :                 WRMSG( HHC01390, "D", msgbuf );
; 4017 : 
; 4018 :                 MSGBUF( msgbuf, "addr=%8.8X count=%d residual=%d copy=%d",
; 4019 :                     addr, count, *residual, count );
; 4020 :                 WRMSG( HHC01390, "D", msgbuf );
; 4021 : 
; 4022 :                 if (to_memory)
; 4023 :                     DUMP( "iobuf:", iobuf, count );
; 4024 :                 DUMP_STORAGE( "Storage:", addr, count );
; 4025 :                 if (to_iobuf)
; 4026 :                     DUMP( "iobuf:", iobuf, count );
; 4027 :             }
; 4028 : #endif
; 4029 :         }
; 4030 : 
; 4031 :     } /* end if(!IDA) */
; 4032 : 
; 4033 : #undef get_new_prefetch_entry
; 4034 : #undef set_chanstat
; 4035 : 
; 4036 : } /* end function copy_iobuf */

  019aa	48 81 c4 18 01
	00 00		 add	 rsp, 280		; 00000118H
  019b1	5f		 pop	 rdi
  019b2	5e		 pop	 rsi
  019b3	c3		 ret	 0
z900_copy_iobuf ENDP
_TEXT	ENDS
; Function compile flags: /Odtp
; File C:\papa\MyGit\hyperion-zvector\channel.c
_TEXT	SEGMENT
mflags$ = 32
storkey$ = 33
mcount$ = 36
maxlen$ = 40
mdaddr$ = 48
mword1$ = 56
tv193 = 64
mword2$ = 72
dev$ = 96
code$ = 104
ccwkey$ = 112
midawseq$ = 120
midawadr$ = 128
addr$ = 136
len$ = 144
flags$ = 152
chanstat$ = 160
z900_fetch_midaw PROC

; 3255 : {

  00000	44 89 4c 24 20	 mov	 DWORD PTR [rsp+32], r9d
  00005	44 88 44 24 18	 mov	 BYTE PTR [rsp+24], r8b
  0000a	88 54 24 10	 mov	 BYTE PTR [rsp+16], dl
  0000e	48 89 4c 24 08	 mov	 QWORD PTR [rsp+8], rcx
  00013	48 83 ec 58	 sub	 rsp, 88			; 00000058H
$LN4@z900_fetch:

; 3256 : U64     mword1, mword2;                 /* MIDAW high and low words  */
; 3257 : RADR    mdaddr;                         /* Data address from MIDAW   */
; 3258 : U16     mcount;                         /* Count field from MIDAW    */
; 3259 : BYTE    mflags;                         /* Flags byte from MIDAW     */
; 3260 : BYTE    storkey;                        /* Storage key               */
; 3261 : U16     maxlen;                         /* Maximum allowable length  */
; 3262 : 
; 3263 :     UNREFERENCED_370(dev);

  00017	33 c0		 xor	 eax, eax
  00019	85 c0		 test	 eax, eax
  0001b	75 fa		 jne	 SHORT $LN4@z900_fetch

; 3264 : 
; 3265 :     /* Channel program check if MIDAW is not on quadword
; 3266 :        boundary or is outside limit of main storage */
; 3267 :     if ((midawadr & 0x0F)
; 3268 :         || CHADDRCHK(midawadr, dev) )

  0001d	8b 84 24 80 00
	00 00		 mov	 eax, DWORD PTR midawadr$[rsp]
  00024	83 e0 0f	 and	 eax, 15
  00027	85 c0		 test	 eax, eax
  00029	75 7c		 jne	 SHORT $LN6@z900_fetch
  0002b	8b 84 24 80 00
	00 00		 mov	 eax, DWORD PTR midawadr$[rsp]
  00032	48 8b 4c 24 60	 mov	 rcx, QWORD PTR dev$[rsp]
  00037	48 3b 81 90 00
	00 00		 cmp	 rax, QWORD PTR [rcx+144]
  0003e	77 67		 ja	 SHORT $LN7@z900_fetch
  00040	48 8b 44 24 60	 mov	 rax, QWORD PTR dev$[rsp]
  00045	0f b6 80 d1 02
	00 00		 movzx	 eax, BYTE PTR [rax+721]
  0004c	83 e0 10	 and	 eax, 16
  0004f	85 c0		 test	 eax, eax
  00051	74 64		 je	 SHORT $LN5@z900_fetch
  00053	48 8b 44 24 60	 mov	 rax, QWORD PTR dev$[rsp]
  00058	0f b6 80 f1 02
	00 00		 movzx	 eax, BYTE PTR [rax+753]
  0005f	83 e0 20	 and	 eax, 32			; 00000020H
  00062	85 c0		 test	 eax, eax
  00064	74 17		 je	 SHORT $LN9@z900_fetch
  00066	8b 84 24 80 00
	00 00		 mov	 eax, DWORD PTR midawadr$[rsp]
  0006d	48 8b 0d 00 00
	00 00		 mov	 rcx, QWORD PTR __imp_sysblk
  00074	48 3b 81 60 12
	00 00		 cmp	 rax, QWORD PTR [rcx+4704]
  0007b	72 2a		 jb	 SHORT $LN8@z900_fetch
$LN9@z900_fetch:
  0007d	48 8b 44 24 60	 mov	 rax, QWORD PTR dev$[rsp]
  00082	0f b6 80 f1 02
	00 00		 movzx	 eax, BYTE PTR [rax+753]
  00089	83 e0 40	 and	 eax, 64			; 00000040H
  0008c	85 c0		 test	 eax, eax
  0008e	74 27		 je	 SHORT $LN5@z900_fetch
  00090	8b 84 24 80 00
	00 00		 mov	 eax, DWORD PTR midawadr$[rsp]
  00097	48 8b 0d 00 00
	00 00		 mov	 rcx, QWORD PTR __imp_sysblk
  0009e	48 3b 81 60 12
	00 00		 cmp	 rax, QWORD PTR [rcx+4704]
  000a5	72 10		 jb	 SHORT $LN5@z900_fetch
$LN8@z900_fetch:
$LN7@z900_fetch:
$LN6@z900_fetch:

; 3269 :     {
; 3270 :         *chanstat = CSW_PROGC;

  000a7	48 8b 84 24 a0
	00 00 00	 mov	 rax, QWORD PTR chanstat$[rsp]
  000af	c6 00 20	 mov	 BYTE PTR [rax], 32	; 00000020H

; 3271 :         return;

  000b2	e9 88 02 00 00	 jmp	 $LN1@z900_fetch
$LN5@z900_fetch:

; 3272 :     }
; 3273 : 
; 3274 :     /* Channel program check if MIDAW list crosses a page boundary */
; 3275 :     if (midawseq > 0 && (midawadr & PAGEFRAME_BYTEMASK) == 0)

  000b7	83 7c 24 78 00	 cmp	 DWORD PTR midawseq$[rsp], 0
  000bc	7e 20		 jle	 SHORT $LN10@z900_fetch
  000be	8b 84 24 80 00
	00 00		 mov	 eax, DWORD PTR midawadr$[rsp]
  000c5	25 ff 0f 00 00	 and	 eax, 4095		; 00000fffH
  000ca	85 c0		 test	 eax, eax
  000cc	75 10		 jne	 SHORT $LN10@z900_fetch

; 3276 :     {
; 3277 :         *chanstat = CSW_PROGC;

  000ce	48 8b 84 24 a0
	00 00 00	 mov	 rax, QWORD PTR chanstat$[rsp]
  000d6	c6 00 20	 mov	 BYTE PTR [rax], 32	; 00000020H

; 3278 :         return;

  000d9	e9 61 02 00 00	 jmp	 $LN1@z900_fetch
$LN10@z900_fetch:

; 3279 :     }
; 3280 : 
; 3281 :     /* Channel protection check if MIDAW is fetch protected */
; 3282 :     storkey = ARCH_DEP( get_dev_storage_key )( dev, midawadr );

  000de	8b 84 24 80 00
	00 00		 mov	 eax, DWORD PTR midawadr$[rsp]
  000e5	8b d0		 mov	 edx, eax
  000e7	48 8b 4c 24 60	 mov	 rcx, QWORD PTR dev$[rsp]
  000ec	e8 00 00 00 00	 call	 z900_get_dev_storage_key
  000f1	88 44 24 21	 mov	 BYTE PTR storkey$[rsp], al

; 3283 :     if (ccwkey != 0 && (storkey & STORKEY_FETCH)
; 3284 :         && (storkey & STORKEY_KEY) != ccwkey)

  000f5	0f b6 44 24 70	 movzx	 eax, BYTE PTR ccwkey$[rsp]
  000fa	85 c0		 test	 eax, eax
  000fc	74 2f		 je	 SHORT $LN11@z900_fetch
  000fe	0f b6 44 24 21	 movzx	 eax, BYTE PTR storkey$[rsp]
  00103	83 e0 08	 and	 eax, 8
  00106	85 c0		 test	 eax, eax
  00108	74 23		 je	 SHORT $LN11@z900_fetch
  0010a	0f b6 44 24 21	 movzx	 eax, BYTE PTR storkey$[rsp]
  0010f	25 f0 00 00 00	 and	 eax, 240		; 000000f0H
  00114	0f b6 4c 24 70	 movzx	 ecx, BYTE PTR ccwkey$[rsp]
  00119	3b c1		 cmp	 eax, ecx
  0011b	74 10		 je	 SHORT $LN11@z900_fetch

; 3285 :     {
; 3286 :         *chanstat = CSW_PROTC;

  0011d	48 8b 84 24 a0
	00 00 00	 mov	 rax, QWORD PTR chanstat$[rsp]
  00125	c6 00 10	 mov	 BYTE PTR [rax], 16

; 3287 :         return;

  00128	e9 12 02 00 00	 jmp	 $LN1@z900_fetch
$LN11@z900_fetch:

; 3288 :     }
; 3289 : 
; 3290 :     /* Set the main storage reference bit for the MIDAW location */
; 3291 :     ARCH_DEP( or_dev_storage_key )( dev, midawadr, STORKEY_REF );

  0012d	8b 84 24 80 00
	00 00		 mov	 eax, DWORD PTR midawadr$[rsp]
  00134	41 b0 04	 mov	 r8b, 4
  00137	8b d0		 mov	 edx, eax
  00139	48 8b 4c 24 60	 mov	 rcx, QWORD PTR dev$[rsp]
  0013e	e8 00 00 00 00	 call	 z900_or_dev_storage_key

; 3292 : 
; 3293 :     /* Fetch MIDAW from main storage (MIDAW is quadword
; 3294 :        aligned and so cannot cross a page boundary) */
; 3295 :     FETCH_DW(mword1, dev->mainstor + midawadr);

  00143	8b 84 24 80 00
	00 00		 mov	 eax, DWORD PTR midawadr$[rsp]
  0014a	48 8b 4c 24 60	 mov	 rcx, QWORD PTR dev$[rsp]
  0014f	48 03 81 80 00
	00 00		 add	 rax, QWORD PTR [rcx+128]
  00156	48 8b c8	 mov	 rcx, rax
  00159	e8 00 00 00 00	 call	 fetch_dw_noswap
  0015e	48 8b c8	 mov	 rcx, rax
  00161	e8 00 00 00 00	 call	 _byteswap_uint64
  00166	48 89 44 24 38	 mov	 QWORD PTR mword1$[rsp], rax

; 3296 :     FETCH_DW(mword2, dev->mainstor + midawadr + 8);

  0016b	8b 84 24 80 00
	00 00		 mov	 eax, DWORD PTR midawadr$[rsp]
  00172	48 8b 4c 24 60	 mov	 rcx, QWORD PTR dev$[rsp]
  00177	48 8b 89 80 00
	00 00		 mov	 rcx, QWORD PTR [rcx+128]
  0017e	48 8d 44 01 08	 lea	 rax, QWORD PTR [rcx+rax+8]
  00183	48 8b c8	 mov	 rcx, rax
  00186	e8 00 00 00 00	 call	 fetch_dw_noswap
  0018b	48 8b c8	 mov	 rcx, rax
  0018e	e8 00 00 00 00	 call	 _byteswap_uint64
  00193	48 89 44 24 48	 mov	 QWORD PTR mword2$[rsp], rax

; 3297 : 
; 3298 :     /* Channel program check in reserved bits are non-zero */
; 3299 :     if (mword1 & 0xFFFFFFFFFF000000ULL)

  00198	48 8b 44 24 38	 mov	 rax, QWORD PTR mword1$[rsp]
  0019d	48 25 00 00 00
	ff		 and	 rax, -16777216		; ffffffffff000000H
  001a3	48 85 c0	 test	 rax, rax
  001a6	74 10		 je	 SHORT $LN12@z900_fetch

; 3300 :     {
; 3301 :         *chanstat = CSW_PROGC;

  001a8	48 8b 84 24 a0
	00 00 00	 mov	 rax, QWORD PTR chanstat$[rsp]
  001b0	c6 00 20	 mov	 BYTE PTR [rax], 32	; 00000020H

; 3302 :         return;

  001b3	e9 87 01 00 00	 jmp	 $LN1@z900_fetch
$LN12@z900_fetch:

; 3303 :     }
; 3304 : 
; 3305 :     /* Extract fields from MIDAW */
; 3306 :     mflags = mword1 >> 16;

  001b8	48 8b 44 24 38	 mov	 rax, QWORD PTR mword1$[rsp]
  001bd	48 c1 e8 10	 shr	 rax, 16
  001c1	88 44 24 20	 mov	 BYTE PTR mflags$[rsp], al

; 3307 :     mcount = mword1 & 0xFFFF;

  001c5	48 8b 44 24 38	 mov	 rax, QWORD PTR mword1$[rsp]
  001ca	48 25 ff ff 00
	00		 and	 rax, 65535		; 0000ffffH
  001d0	66 89 44 24 24	 mov	 WORD PTR mcount$[rsp], ax

; 3308 :     mdaddr = (RADR)mword2;

  001d5	48 8b 44 24 48	 mov	 rax, QWORD PTR mword2$[rsp]
  001da	48 89 44 24 30	 mov	 QWORD PTR mdaddr$[rsp], rax

; 3309 : 
; 3310 :     /* Channel program check if data transfer interrupt flag is set */
; 3311 :     if (mflags & MIDAW_DTI)

  001df	0f b6 44 24 20	 movzx	 eax, BYTE PTR mflags$[rsp]
  001e4	83 e0 20	 and	 eax, 32			; 00000020H
  001e7	85 c0		 test	 eax, eax
  001e9	74 10		 je	 SHORT $LN13@z900_fetch

; 3312 :     {
; 3313 :         *chanstat = CSW_PROGC;

  001eb	48 8b 84 24 a0
	00 00 00	 mov	 rax, QWORD PTR chanstat$[rsp]
  001f3	c6 00 20	 mov	 BYTE PTR [rax], 32	; 00000020H

; 3314 :         return;

  001f6	e9 44 01 00 00	 jmp	 $LN1@z900_fetch
$LN13@z900_fetch:

; 3315 :     }
; 3316 : 
; 3317 :     /* Channel program check if MIDAW count is zero */
; 3318 :     if (mcount == 0)

  001fb	0f b7 44 24 24	 movzx	 eax, WORD PTR mcount$[rsp]
  00200	85 c0		 test	 eax, eax
  00202	75 10		 jne	 SHORT $LN14@z900_fetch

; 3319 :     {
; 3320 :         *chanstat = CSW_PROGC;

  00204	48 8b 84 24 a0
	00 00 00	 mov	 rax, QWORD PTR chanstat$[rsp]
  0020c	c6 00 20	 mov	 BYTE PTR [rax], 32	; 00000020H

; 3321 :         return;

  0020f	e9 2b 01 00 00	 jmp	 $LN1@z900_fetch
$LN14@z900_fetch:

; 3322 :     }
; 3323 : 
; 3324 :     /* Channel program check if MIDAW data
; 3325 :        location is outside main storage */
; 3326 :     if ( CHADDRCHK(mdaddr, dev) )

  00214	48 8b 44 24 60	 mov	 rax, QWORD PTR dev$[rsp]
  00219	48 8b 80 90 00
	00 00		 mov	 rax, QWORD PTR [rax+144]
  00220	48 39 44 24 30	 cmp	 QWORD PTR mdaddr$[rsp], rax
  00225	77 63		 ja	 SHORT $LN16@z900_fetch
  00227	48 8b 44 24 60	 mov	 rax, QWORD PTR dev$[rsp]
  0022c	0f b6 80 d1 02
	00 00		 movzx	 eax, BYTE PTR [rax+721]
  00233	83 e0 10	 and	 eax, 16
  00236	85 c0		 test	 eax, eax
  00238	74 60		 je	 SHORT $LN15@z900_fetch
  0023a	48 8b 44 24 60	 mov	 rax, QWORD PTR dev$[rsp]
  0023f	0f b6 80 f1 02
	00 00		 movzx	 eax, BYTE PTR [rax+753]
  00246	83 e0 20	 and	 eax, 32			; 00000020H
  00249	85 c0		 test	 eax, eax
  0024b	74 15		 je	 SHORT $LN18@z900_fetch
  0024d	48 8b 05 00 00
	00 00		 mov	 rax, QWORD PTR __imp_sysblk
  00254	48 8b 80 60 12
	00 00		 mov	 rax, QWORD PTR [rax+4704]
  0025b	48 39 44 24 30	 cmp	 QWORD PTR mdaddr$[rsp], rax
  00260	72 28		 jb	 SHORT $LN17@z900_fetch
$LN18@z900_fetch:
  00262	48 8b 44 24 60	 mov	 rax, QWORD PTR dev$[rsp]
  00267	0f b6 80 f1 02
	00 00		 movzx	 eax, BYTE PTR [rax+753]
  0026e	83 e0 40	 and	 eax, 64			; 00000040H
  00271	85 c0		 test	 eax, eax
  00273	74 25		 je	 SHORT $LN15@z900_fetch
  00275	48 8b 05 00 00
	00 00		 mov	 rax, QWORD PTR __imp_sysblk
  0027c	48 8b 80 60 12
	00 00		 mov	 rax, QWORD PTR [rax+4704]
  00283	48 39 44 24 30	 cmp	 QWORD PTR mdaddr$[rsp], rax
  00288	72 10		 jb	 SHORT $LN15@z900_fetch
$LN17@z900_fetch:
$LN16@z900_fetch:

; 3327 :     {
; 3328 :         *chanstat = CSW_PROGC;

  0028a	48 8b 84 24 a0
	00 00 00	 mov	 rax, QWORD PTR chanstat$[rsp]
  00292	c6 00 20	 mov	 BYTE PTR [rax], 32	; 00000020H

; 3329 :         return;

  00295	e9 a5 00 00 00	 jmp	 $LN1@z900_fetch
$LN15@z900_fetch:

; 3330 :     }
; 3331 : 
; 3332 :     /* Channel program check if skipping not in effect
; 3333 :        and the MIDAW data area crosses a page boundary */
; 3334 :     maxlen = (IS_CCW_RDBACK(code)) ?

  0029a	0f b6 44 24 68	 movzx	 eax, BYTE PTR code$[rsp]
  0029f	83 e0 0f	 and	 eax, 15
  002a2	83 f8 0c	 cmp	 eax, 12
  002a5	75 20		 jne	 SHORT $LN21@z900_fetch
  002a7	48 8b 44 24 30	 mov	 rax, QWORD PTR mdaddr$[rsp]
  002ac	48 25 00 f0 ff
	ff		 and	 rax, -4096		; fffffffffffff000H
  002b2	48 8b 4c 24 30	 mov	 rcx, QWORD PTR mdaddr$[rsp]
  002b7	48 2b c8	 sub	 rcx, rax
  002ba	48 8b c1	 mov	 rax, rcx
  002bd	48 ff c0	 inc	 rax
  002c0	48 89 44 24 40	 mov	 QWORD PTR tv193[rsp], rax
  002c5	eb 18		 jmp	 SHORT $LN22@z900_fetch
$LN21@z900_fetch:
  002c7	48 8b 44 24 30	 mov	 rax, QWORD PTR mdaddr$[rsp]
  002cc	48 0d ff 0f 00
	00		 or	 rax, 4095		; 00000fffH
  002d2	48 2b 44 24 30	 sub	 rax, QWORD PTR mdaddr$[rsp]
  002d7	48 ff c0	 inc	 rax
  002da	48 89 44 24 40	 mov	 QWORD PTR tv193[rsp], rax
$LN22@z900_fetch:
  002df	0f b7 44 24 40	 movzx	 eax, WORD PTR tv193[rsp]
  002e4	66 89 44 24 28	 mov	 WORD PTR maxlen$[rsp], ax

; 3335 :                 mdaddr - (mdaddr & PAGEFRAME_PAGEMASK) + 1 :
; 3336 :                 (mdaddr | PAGEFRAME_BYTEMASK) - mdaddr + 1 ;
; 3337 : 
; 3338 :     if ((mflags & MIDAW_SKIP) == 0 && mcount > maxlen)

  002e9	0f b6 44 24 20	 movzx	 eax, BYTE PTR mflags$[rsp]
  002ee	83 e0 40	 and	 eax, 64			; 00000040H
  002f1	85 c0		 test	 eax, eax
  002f3	75 1b		 jne	 SHORT $LN19@z900_fetch
  002f5	0f b7 44 24 24	 movzx	 eax, WORD PTR mcount$[rsp]
  002fa	0f b7 4c 24 28	 movzx	 ecx, WORD PTR maxlen$[rsp]
  002ff	3b c1		 cmp	 eax, ecx
  00301	7e 0d		 jle	 SHORT $LN19@z900_fetch

; 3339 :     {
; 3340 :         *chanstat = CSW_PROGC;

  00303	48 8b 84 24 a0
	00 00 00	 mov	 rax, QWORD PTR chanstat$[rsp]
  0030b	c6 00 20	 mov	 BYTE PTR [rax], 32	; 00000020H

; 3341 :         return;

  0030e	eb 2f		 jmp	 SHORT $LN1@z900_fetch
$LN19@z900_fetch:

; 3342 :     }
; 3343 : 
; 3344 :     /* Return the data address, length, flags for this MIDAW */
; 3345 :     *addr = mdaddr;

  00310	48 8b 84 24 88
	00 00 00	 mov	 rax, QWORD PTR addr$[rsp]
  00318	48 8b 4c 24 30	 mov	 rcx, QWORD PTR mdaddr$[rsp]
  0031d	48 89 08	 mov	 QWORD PTR [rax], rcx

; 3346 :     *len = mcount;

  00320	48 8b 84 24 90
	00 00 00	 mov	 rax, QWORD PTR len$[rsp]
  00328	0f b7 4c 24 24	 movzx	 ecx, WORD PTR mcount$[rsp]
  0032d	66 89 08	 mov	 WORD PTR [rax], cx

; 3347 :     *flags = mflags;

  00330	48 8b 84 24 98
	00 00 00	 mov	 rax, QWORD PTR flags$[rsp]
  00338	0f b6 4c 24 20	 movzx	 ecx, BYTE PTR mflags$[rsp]
  0033d	88 08		 mov	 BYTE PTR [rax], cl
$LN1@z900_fetch:

; 3348 : 
; 3349 : } /* end function fetch_midaw */

  0033f	48 83 c4 58	 add	 rsp, 88			; 00000058H
  00343	c3		 ret	 0
z900_fetch_midaw ENDP
_TEXT	ENDS
; Function compile flags: /Odtp
; File C:\papa\MyGit\hyperion-zvector\channel.c
_TEXT	SEGMENT
storkey$ = 32
idalen$ = 36
tv67 = 40
idaw1$ = 44
idaw$ = 48
idapage$ = 56
idaw2$ = 64
dev$ = 96
code$ = 104
ccwkey$ = 112
idawfmt$ = 120
idapmask$ = 128
idaseq$ = 136
idawaddr$ = 144
addr$ = 152
len$ = 160
chanstat$ = 168
z900_fetch_idaw PROC

; 3123 : {

  00000	44 88 4c 24 20	 mov	 BYTE PTR [rsp+32], r9b
  00005	44 88 44 24 18	 mov	 BYTE PTR [rsp+24], r8b
  0000a	88 54 24 10	 mov	 BYTE PTR [rsp+16], dl
  0000e	48 89 4c 24 08	 mov	 QWORD PTR [rsp+8], rcx
  00013	48 83 ec 58	 sub	 rsp, 88			; 00000058H
$LN4@z900_fetch:

; 3124 : RADR    idaw;                           /* Contents of IDAW          */
; 3125 : U32     idaw1;                          /* Format-1 IDAW             */
; 3126 : U64     idaw2;                          /* Format-2 IDAW             */
; 3127 : RADR    idapage;                        /* Addr of next IDA page     */
; 3128 : U16     idalen;                         /* #of bytes until next page */
; 3129 : BYTE    storkey;                        /* Storage key               */
; 3130 : 
; 3131 :     UNREFERENCED_370(dev);

  00017	33 c0		 xor	 eax, eax
  00019	85 c0		 test	 eax, eax
  0001b	75 fa		 jne	 SHORT $LN4@z900_fetch

; 3132 :     *addr = 0;

  0001d	48 8b 84 24 98
	00 00 00	 mov	 rax, QWORD PTR addr$[rsp]
  00025	48 c7 00 00 00
	00 00		 mov	 QWORD PTR [rax], 0

; 3133 :     *len = 0;

  0002c	33 c0		 xor	 eax, eax
  0002e	48 8b 8c 24 a0
	00 00 00	 mov	 rcx, QWORD PTR len$[rsp]
  00036	66 89 01	 mov	 WORD PTR [rcx], ax

; 3134 : 
; 3135 :     /* Channel program check if IDAW is not on correct
; 3136 :        boundary or is outside limit of main storage */
; 3137 :     if ((idawaddr & ((idawfmt == PF_IDAW2) ? 0x07 : 0x03))
; 3138 :         || CHADDRCHK(idawaddr, dev)
; 3139 :         /* Program check if Format-0 CCW and IDAW address > 16M      */
; 3140 :         /* SA22-7201-05:                                             */
; 3141 :         /*  p. 16-25, Invalid IDAW Address                           */
; 3142 :         || (!(dev->orb.flag5 & ORB5_F) && (idawaddr & 0xFF000000)))

  00039	0f b6 44 24 78	 movzx	 eax, BYTE PTR idawfmt$[rsp]
  0003e	83 f8 02	 cmp	 eax, 2
  00041	75 0a		 jne	 SHORT $LN23@z900_fetch
  00043	c7 44 24 28 07
	00 00 00	 mov	 DWORD PTR tv67[rsp], 7
  0004b	eb 08		 jmp	 SHORT $LN24@z900_fetch
$LN23@z900_fetch:
  0004d	c7 44 24 28 03
	00 00 00	 mov	 DWORD PTR tv67[rsp], 3
$LN24@z900_fetch:
  00055	8b 44 24 28	 mov	 eax, DWORD PTR tv67[rsp]
  00059	8b 8c 24 90 00
	00 00		 mov	 ecx, DWORD PTR idawaddr$[rsp]
  00060	23 c8		 and	 ecx, eax
  00062	8b c1		 mov	 eax, ecx
  00064	85 c0		 test	 eax, eax
  00066	0f 85 a5 00 00
	00		 jne	 $LN6@z900_fetch
  0006c	8b 84 24 90 00
	00 00		 mov	 eax, DWORD PTR idawaddr$[rsp]
  00073	48 8b 4c 24 60	 mov	 rcx, QWORD PTR dev$[rsp]
  00078	48 3b 81 90 00
	00 00		 cmp	 rax, QWORD PTR [rcx+144]
  0007f	0f 87 8c 00 00
	00		 ja	 $LN6@z900_fetch
  00085	48 8b 44 24 60	 mov	 rax, QWORD PTR dev$[rsp]
  0008a	0f b6 80 d1 02
	00 00		 movzx	 eax, BYTE PTR [rax+721]
  00091	83 e0 10	 and	 eax, 16
  00094	85 c0		 test	 eax, eax
  00096	74 54		 je	 SHORT $LN7@z900_fetch
  00098	48 8b 44 24 60	 mov	 rax, QWORD PTR dev$[rsp]
  0009d	0f b6 80 f1 02
	00 00		 movzx	 eax, BYTE PTR [rax+753]
  000a4	83 e0 20	 and	 eax, 32			; 00000020H
  000a7	85 c0		 test	 eax, eax
  000a9	74 17		 je	 SHORT $LN8@z900_fetch
  000ab	8b 84 24 90 00
	00 00		 mov	 eax, DWORD PTR idawaddr$[rsp]
  000b2	48 8b 0d 00 00
	00 00		 mov	 rcx, QWORD PTR __imp_sysblk
  000b9	48 3b 81 60 12
	00 00		 cmp	 rax, QWORD PTR [rcx+4704]
  000c0	72 4f		 jb	 SHORT $LN6@z900_fetch
$LN8@z900_fetch:
  000c2	48 8b 44 24 60	 mov	 rax, QWORD PTR dev$[rsp]
  000c7	0f b6 80 f1 02
	00 00		 movzx	 eax, BYTE PTR [rax+753]
  000ce	83 e0 40	 and	 eax, 64			; 00000040H
  000d1	85 c0		 test	 eax, eax
  000d3	74 17		 je	 SHORT $LN9@z900_fetch
  000d5	8b 84 24 90 00
	00 00		 mov	 eax, DWORD PTR idawaddr$[rsp]
  000dc	48 8b 0d 00 00
	00 00		 mov	 rcx, QWORD PTR __imp_sysblk
  000e3	48 3b 81 60 12
	00 00		 cmp	 rax, QWORD PTR [rcx+4704]
  000ea	73 25		 jae	 SHORT $LN6@z900_fetch
$LN9@z900_fetch:
$LN7@z900_fetch:
  000ec	48 8b 44 24 60	 mov	 rax, QWORD PTR dev$[rsp]
  000f1	0f b6 80 d1 02
	00 00		 movzx	 eax, BYTE PTR [rax+721]
  000f8	25 80 00 00 00	 and	 eax, 128		; 00000080H
  000fd	85 c0		 test	 eax, eax
  000ff	75 20		 jne	 SHORT $LN5@z900_fetch
  00101	8b 84 24 90 00
	00 00		 mov	 eax, DWORD PTR idawaddr$[rsp]
  00108	25 00 00 00 ff	 and	 eax, -16777216		; ff000000H
  0010d	85 c0		 test	 eax, eax
  0010f	74 10		 je	 SHORT $LN5@z900_fetch
$LN6@z900_fetch:

; 3143 :     {
; 3144 :         *chanstat = CSW_PROGC;

  00111	48 8b 84 24 a8
	00 00 00	 mov	 rax, QWORD PTR chanstat$[rsp]
  00119	c6 00 20	 mov	 BYTE PTR [rax], 32	; 00000020H

; 3145 :         return;

  0011c	e9 9c 02 00 00	 jmp	 $LN1@z900_fetch
$LN5@z900_fetch:

; 3146 :     }
; 3147 : 
; 3148 :     /* Channel protection check if IDAW is fetch protected */
; 3149 :     storkey = ARCH_DEP( get_dev_storage_key )( dev, idawaddr );

  00121	8b 84 24 90 00
	00 00		 mov	 eax, DWORD PTR idawaddr$[rsp]
  00128	8b d0		 mov	 edx, eax
  0012a	48 8b 4c 24 60	 mov	 rcx, QWORD PTR dev$[rsp]
  0012f	e8 00 00 00 00	 call	 z900_get_dev_storage_key
  00134	88 44 24 20	 mov	 BYTE PTR storkey$[rsp], al

; 3150 :     if (ccwkey != 0 && (storkey & STORKEY_FETCH)
; 3151 :         && (storkey & STORKEY_KEY) != ccwkey)

  00138	0f b6 44 24 70	 movzx	 eax, BYTE PTR ccwkey$[rsp]
  0013d	85 c0		 test	 eax, eax
  0013f	74 2f		 je	 SHORT $LN10@z900_fetch
  00141	0f b6 44 24 20	 movzx	 eax, BYTE PTR storkey$[rsp]
  00146	83 e0 08	 and	 eax, 8
  00149	85 c0		 test	 eax, eax
  0014b	74 23		 je	 SHORT $LN10@z900_fetch
  0014d	0f b6 44 24 20	 movzx	 eax, BYTE PTR storkey$[rsp]
  00152	25 f0 00 00 00	 and	 eax, 240		; 000000f0H
  00157	0f b6 4c 24 70	 movzx	 ecx, BYTE PTR ccwkey$[rsp]
  0015c	3b c1		 cmp	 eax, ecx
  0015e	74 10		 je	 SHORT $LN10@z900_fetch

; 3152 :     {
; 3153 :         *chanstat = CSW_PROTC;

  00160	48 8b 84 24 a8
	00 00 00	 mov	 rax, QWORD PTR chanstat$[rsp]
  00168	c6 00 10	 mov	 BYTE PTR [rax], 16

; 3154 :         return;

  0016b	e9 4d 02 00 00	 jmp	 $LN1@z900_fetch
$LN10@z900_fetch:

; 3155 :     }
; 3156 : 
; 3157 :     /* Set the main storage reference bit for the IDAW location */
; 3158 :     ARCH_DEP( or_dev_storage_key )( dev, idawaddr, STORKEY_REF );

  00170	8b 84 24 90 00
	00 00		 mov	 eax, DWORD PTR idawaddr$[rsp]
  00177	41 b0 04	 mov	 r8b, 4
  0017a	8b d0		 mov	 edx, eax
  0017c	48 8b 4c 24 60	 mov	 rcx, QWORD PTR dev$[rsp]
  00181	e8 00 00 00 00	 call	 z900_or_dev_storage_key

; 3159 : 
; 3160 :     /* Fetch IDAW from main storage */
; 3161 :     if (idawfmt == PF_IDAW2)

  00186	0f b6 44 24 78	 movzx	 eax, BYTE PTR idawfmt$[rsp]
  0018b	83 f8 02	 cmp	 eax, 2
  0018e	75 34		 jne	 SHORT $LN11@z900_fetch

; 3162 :     {
; 3163 :         /* Fetch format-2 IDAW */
; 3164 :         FETCH_DW(idaw2, dev->mainstor + idawaddr);

  00190	8b 84 24 90 00
	00 00		 mov	 eax, DWORD PTR idawaddr$[rsp]
  00197	48 8b 4c 24 60	 mov	 rcx, QWORD PTR dev$[rsp]
  0019c	48 03 81 80 00
	00 00		 add	 rax, QWORD PTR [rcx+128]
  001a3	48 8b c8	 mov	 rcx, rax
  001a6	e8 00 00 00 00	 call	 fetch_dw_noswap
  001ab	48 8b c8	 mov	 rcx, rax
  001ae	e8 00 00 00 00	 call	 _byteswap_uint64
  001b3	48 89 44 24 40	 mov	 QWORD PTR idaw2$[rsp], rax

; 3165 : 
; 3166 : #if !defined( FEATURE_001_ZARCH_INSTALLED_FACILITY )
; 3167 :         /* Channel program check in ESA/390 mode
; 3168 :            if the format-2 IDAW exceeds 2GB-1 */
; 3169 :         if (idaw2 > 0x7FFFFFFF)
; 3170 :         {
; 3171 :             *chanstat = CSW_PROGC;
; 3172 :             return;
; 3173 :         }
; 3174 : #endif
; 3175 :         /* Save contents of format-2 IDAW */
; 3176 :         idaw = idaw2;

  001b8	48 8b 44 24 40	 mov	 rax, QWORD PTR idaw2$[rsp]
  001bd	48 89 44 24 30	 mov	 QWORD PTR idaw$[rsp], rax

; 3177 :     }

  001c2	eb 4c		 jmp	 SHORT $LN12@z900_fetch
$LN11@z900_fetch:

; 3178 :     else
; 3179 :     {
; 3180 :         /* Fetch format-1 IDAW */
; 3181 :         FETCH_FW(idaw1, dev->mainstor + idawaddr);

  001c4	8b 84 24 90 00
	00 00		 mov	 eax, DWORD PTR idawaddr$[rsp]
  001cb	48 8b 4c 24 60	 mov	 rcx, QWORD PTR dev$[rsp]
  001d0	48 03 81 80 00
	00 00		 add	 rax, QWORD PTR [rcx+128]
  001d7	48 8b c8	 mov	 rcx, rax
  001da	e8 00 00 00 00	 call	 fetch_fw_noswap
  001df	8b c8		 mov	 ecx, eax
  001e1	e8 00 00 00 00	 call	 _byteswap_ulong
  001e6	89 44 24 2c	 mov	 DWORD PTR idaw1$[rsp], eax

; 3182 : 
; 3183 :         /* Channel program check if bit 0 of
; 3184 :            the format-1 IDAW is not zero */
; 3185 :         if (idaw1 & 0x80000000)

  001ea	8b 44 24 2c	 mov	 eax, DWORD PTR idaw1$[rsp]
  001ee	25 00 00 00 80	 and	 eax, -2147483648	; 80000000H
  001f3	85 c0		 test	 eax, eax
  001f5	74 10		 je	 SHORT $LN13@z900_fetch

; 3186 :         {
; 3187 :             *chanstat = CSW_PROGC;

  001f7	48 8b 84 24 a8
	00 00 00	 mov	 rax, QWORD PTR chanstat$[rsp]
  001ff	c6 00 20	 mov	 BYTE PTR [rax], 32	; 00000020H

; 3188 :             return;

  00202	e9 b6 01 00 00	 jmp	 $LN1@z900_fetch
$LN13@z900_fetch:

; 3189 :         }
; 3190 : 
; 3191 :         /* Save contents of format-1 IDAW */
; 3192 :         idaw = idaw1;

  00207	8b 44 24 2c	 mov	 eax, DWORD PTR idaw1$[rsp]
  0020b	48 89 44 24 30	 mov	 QWORD PTR idaw$[rsp], rax
$LN12@z900_fetch:

; 3193 :     }
; 3194 : 
; 3195 :     /* Channel program check if IDAW data
; 3196 :        location is outside main storage */
; 3197 :     if ( CHADDRCHK(idaw, dev) )

  00210	48 8b 44 24 60	 mov	 rax, QWORD PTR dev$[rsp]
  00215	48 8b 80 90 00
	00 00		 mov	 rax, QWORD PTR [rax+144]
  0021c	48 39 44 24 30	 cmp	 QWORD PTR idaw$[rsp], rax
  00221	77 63		 ja	 SHORT $LN15@z900_fetch
  00223	48 8b 44 24 60	 mov	 rax, QWORD PTR dev$[rsp]
  00228	0f b6 80 d1 02
	00 00		 movzx	 eax, BYTE PTR [rax+721]
  0022f	83 e0 10	 and	 eax, 16
  00232	85 c0		 test	 eax, eax
  00234	74 60		 je	 SHORT $LN14@z900_fetch
  00236	48 8b 44 24 60	 mov	 rax, QWORD PTR dev$[rsp]
  0023b	0f b6 80 f1 02
	00 00		 movzx	 eax, BYTE PTR [rax+753]
  00242	83 e0 20	 and	 eax, 32			; 00000020H
  00245	85 c0		 test	 eax, eax
  00247	74 15		 je	 SHORT $LN17@z900_fetch
  00249	48 8b 05 00 00
	00 00		 mov	 rax, QWORD PTR __imp_sysblk
  00250	48 8b 80 60 12
	00 00		 mov	 rax, QWORD PTR [rax+4704]
  00257	48 39 44 24 30	 cmp	 QWORD PTR idaw$[rsp], rax
  0025c	72 28		 jb	 SHORT $LN16@z900_fetch
$LN17@z900_fetch:
  0025e	48 8b 44 24 60	 mov	 rax, QWORD PTR dev$[rsp]
  00263	0f b6 80 f1 02
	00 00		 movzx	 eax, BYTE PTR [rax+753]
  0026a	83 e0 40	 and	 eax, 64			; 00000040H
  0026d	85 c0		 test	 eax, eax
  0026f	74 25		 je	 SHORT $LN14@z900_fetch
  00271	48 8b 05 00 00
	00 00		 mov	 rax, QWORD PTR __imp_sysblk
  00278	48 8b 80 60 12
	00 00		 mov	 rax, QWORD PTR [rax+4704]
  0027f	48 39 44 24 30	 cmp	 QWORD PTR idaw$[rsp], rax
  00284	72 10		 jb	 SHORT $LN14@z900_fetch
$LN16@z900_fetch:
$LN15@z900_fetch:

; 3198 :     {
; 3199 :         *chanstat = CSW_PROGC;

  00286	48 8b 84 24 a8
	00 00 00	 mov	 rax, QWORD PTR chanstat$[rsp]
  0028e	c6 00 20	 mov	 BYTE PTR [rax], 32	; 00000020H

; 3200 :         return;

  00291	e9 27 01 00 00	 jmp	 $LN1@z900_fetch
$LN14@z900_fetch:

; 3201 :     }
; 3202 : 
; 3203 :     /* Channel program check if IDAW data location is not
; 3204 :        on a page boundary, except for the first IDAW */
; 3205 :     if (IS_CCW_RDBACK (code))

  00296	0f b6 44 24 68	 movzx	 eax, BYTE PTR code$[rsp]
  0029b	83 e0 0f	 and	 eax, 15
  0029e	83 f8 0c	 cmp	 eax, 12
  002a1	0f 85 8b 00 00
	00		 jne	 $LN18@z900_fetch

; 3206 :     {
; 3207 :         if (idaseq > 0 && ((idaw+1) & idapmask) != 0)

  002a7	83 bc 24 88 00
	00 00 00	 cmp	 DWORD PTR idaseq$[rsp], 0
  002af	7e 28		 jle	 SHORT $LN20@z900_fetch
  002b1	48 8b 44 24 30	 mov	 rax, QWORD PTR idaw$[rsp]
  002b6	48 ff c0	 inc	 rax
  002b9	0f b7 8c 24 80
	00 00 00	 movzx	 ecx, WORD PTR idapmask$[rsp]
  002c1	48 23 c1	 and	 rax, rcx
  002c4	48 85 c0	 test	 rax, rax
  002c7	74 10		 je	 SHORT $LN20@z900_fetch

; 3208 :         {
; 3209 :             *chanstat = CSW_PROGC;

  002c9	48 8b 84 24 a8
	00 00 00	 mov	 rax, QWORD PTR chanstat$[rsp]
  002d1	c6 00 20	 mov	 BYTE PTR [rax], 32	; 00000020H

; 3210 :             return;

  002d4	e9 e4 00 00 00	 jmp	 $LN1@z900_fetch
$LN20@z900_fetch:

; 3211 :         }
; 3212 : 
; 3213 :         /* Calculate address of next page boundary */
; 3214 :         idapage = (idaw & ~idapmask);

  002d9	0f b7 84 24 80
	00 00 00	 movzx	 eax, WORD PTR idapmask$[rsp]
  002e1	f7 d0		 not	 eax
  002e3	48 98		 cdqe
  002e5	48 8b 4c 24 30	 mov	 rcx, QWORD PTR idaw$[rsp]
  002ea	48 23 c8	 and	 rcx, rax
  002ed	48 8b c1	 mov	 rax, rcx
  002f0	48 89 44 24 38	 mov	 QWORD PTR idapage$[rsp], rax

; 3215 :         idalen = (idaw - idapage) + 1;

  002f5	48 8b 44 24 38	 mov	 rax, QWORD PTR idapage$[rsp]
  002fa	48 8b 4c 24 30	 mov	 rcx, QWORD PTR idaw$[rsp]
  002ff	48 2b c8	 sub	 rcx, rax
  00302	48 8b c1	 mov	 rax, rcx
  00305	48 ff c0	 inc	 rax
  00308	66 89 44 24 24	 mov	 WORD PTR idalen$[rsp], ax

; 3216 : 
; 3217 :         /* Return the address and length for this IDAW */
; 3218 :         *addr = idaw;

  0030d	48 8b 84 24 98
	00 00 00	 mov	 rax, QWORD PTR addr$[rsp]
  00315	48 8b 4c 24 30	 mov	 rcx, QWORD PTR idaw$[rsp]
  0031a	48 89 08	 mov	 QWORD PTR [rax], rcx

; 3219 :         *len = idalen;

  0031d	48 8b 84 24 a0
	00 00 00	 mov	 rax, QWORD PTR len$[rsp]
  00325	0f b7 4c 24 24	 movzx	 ecx, WORD PTR idalen$[rsp]
  0032a	66 89 08	 mov	 WORD PTR [rax], cx

; 3220 :     }

  0032d	e9 8b 00 00 00	 jmp	 $LN19@z900_fetch
$LN18@z900_fetch:

; 3221 :     else
; 3222 :     {
; 3223 :         if (idaseq > 0 && (idaw & idapmask) != 0)

  00332	83 bc 24 88 00
	00 00 00	 cmp	 DWORD PTR idaseq$[rsp], 0
  0033a	7e 25		 jle	 SHORT $LN21@z900_fetch
  0033c	0f b7 84 24 80
	00 00 00	 movzx	 eax, WORD PTR idapmask$[rsp]
  00344	48 8b 4c 24 30	 mov	 rcx, QWORD PTR idaw$[rsp]
  00349	48 23 c8	 and	 rcx, rax
  0034c	48 8b c1	 mov	 rax, rcx
  0034f	48 85 c0	 test	 rax, rax
  00352	74 0d		 je	 SHORT $LN21@z900_fetch

; 3224 :         {
; 3225 :             *chanstat = CSW_PROGC;

  00354	48 8b 84 24 a8
	00 00 00	 mov	 rax, QWORD PTR chanstat$[rsp]
  0035c	c6 00 20	 mov	 BYTE PTR [rax], 32	; 00000020H

; 3226 :             return;

  0035f	eb 5c		 jmp	 SHORT $LN1@z900_fetch
$LN21@z900_fetch:

; 3227 :         }
; 3228 : 
; 3229 :         /* Calculate address of next page boundary */
; 3230 :         idapage = (idaw + idapmask + 1) & ~idapmask;

  00361	0f b7 84 24 80
	00 00 00	 movzx	 eax, WORD PTR idapmask$[rsp]
  00369	48 8b 4c 24 30	 mov	 rcx, QWORD PTR idaw$[rsp]
  0036e	48 8d 44 01 01	 lea	 rax, QWORD PTR [rcx+rax+1]
  00373	0f b7 8c 24 80
	00 00 00	 movzx	 ecx, WORD PTR idapmask$[rsp]
  0037b	f7 d1		 not	 ecx
  0037d	48 63 c9	 movsxd	 rcx, ecx
  00380	48 23 c1	 and	 rax, rcx
  00383	48 89 44 24 38	 mov	 QWORD PTR idapage$[rsp], rax

; 3231 :         idalen = idapage - idaw;

  00388	48 8b 44 24 30	 mov	 rax, QWORD PTR idaw$[rsp]
  0038d	48 8b 4c 24 38	 mov	 rcx, QWORD PTR idapage$[rsp]
  00392	48 2b c8	 sub	 rcx, rax
  00395	48 8b c1	 mov	 rax, rcx
  00398	66 89 44 24 24	 mov	 WORD PTR idalen$[rsp], ax

; 3232 : 
; 3233 :         /* Return the address and length for this IDAW */
; 3234 :         *addr = idaw;

  0039d	48 8b 84 24 98
	00 00 00	 mov	 rax, QWORD PTR addr$[rsp]
  003a5	48 8b 4c 24 30	 mov	 rcx, QWORD PTR idaw$[rsp]
  003aa	48 89 08	 mov	 QWORD PTR [rax], rcx

; 3235 :         *len = idalen;

  003ad	48 8b 84 24 a0
	00 00 00	 mov	 rax, QWORD PTR len$[rsp]
  003b5	0f b7 4c 24 24	 movzx	 ecx, WORD PTR idalen$[rsp]
  003ba	66 89 08	 mov	 WORD PTR [rax], cx
$LN19@z900_fetch:
$LN1@z900_fetch:

; 3236 :     }
; 3237 : 
; 3238 : } /* end function fetch_idaw */

  003bd	48 83 c4 58	 add	 rsp, 88			; 00000058H
  003c1	c3		 ret	 0
z900_fetch_idaw ENDP
_TEXT	ENDS
; Function compile flags: /Odtp
; File C:\papa\MyGit\hyperion-zvector\channel.c
_TEXT	SEGMENT
storkey$ = 32
ccw$ = 40
dev$ = 64
ccwkey$ = 72
ccwfmt$ = 80
ccwaddr$ = 88
code$ = 96
addr$ = 104
flags$ = 112
count$ = 120
chanstat$ = 128
z900_fetch_ccw PROC

; 3056 : {

  00000	44 89 4c 24 20	 mov	 DWORD PTR [rsp+32], r9d
  00005	44 88 44 24 18	 mov	 BYTE PTR [rsp+24], r8b
  0000a	88 54 24 10	 mov	 BYTE PTR [rsp+16], dl
  0000e	48 89 4c 24 08	 mov	 QWORD PTR [rsp+8], rcx
  00013	48 83 ec 38	 sub	 rsp, 56			; 00000038H
$LN4@z900_fetch:

; 3057 : BYTE    storkey;                        /* Storage key               */
; 3058 : BYTE   *ccw;                            /* CCW pointer               */
; 3059 : 
; 3060 :     UNREFERENCED_370(dev);

  00017	33 c0		 xor	 eax, eax
  00019	85 c0		 test	 eax, eax
  0001b	75 fa		 jne	 SHORT $LN4@z900_fetch

; 3061 :     *code=0;

  0001d	48 8b 44 24 60	 mov	 rax, QWORD PTR code$[rsp]
  00022	c6 00 00	 mov	 BYTE PTR [rax], 0

; 3062 :     *count=0;

  00025	48 8b 44 24 78	 mov	 rax, QWORD PTR count$[rsp]
  0002a	c7 00 00 00 00
	00		 mov	 DWORD PTR [rax], 0

; 3063 :     *flags=0;

  00030	48 8b 44 24 70	 mov	 rax, QWORD PTR flags$[rsp]
  00035	c6 00 00	 mov	 BYTE PTR [rax], 0

; 3064 :     *addr=0;

  00038	48 8b 44 24 68	 mov	 rax, QWORD PTR addr$[rsp]
  0003d	c7 00 00 00 00
	00		 mov	 DWORD PTR [rax], 0

; 3065 : 
; 3066 :     /* Channel program check if CCW is not on a doubleword
; 3067 :        boundary or is outside limit of main storage */
; 3068 :     if ( (ccwaddr & 0x00000007) || CHADDRCHK(ccwaddr, dev) )

  00043	8b 44 24 58	 mov	 eax, DWORD PTR ccwaddr$[rsp]
  00047	83 e0 07	 and	 eax, 7
  0004a	85 c0		 test	 eax, eax
  0004c	75 73		 jne	 SHORT $LN6@z900_fetch
  0004e	8b 44 24 58	 mov	 eax, DWORD PTR ccwaddr$[rsp]
  00052	48 8b 4c 24 40	 mov	 rcx, QWORD PTR dev$[rsp]
  00057	48 3b 81 90 00
	00 00		 cmp	 rax, QWORD PTR [rcx+144]
  0005e	77 61		 ja	 SHORT $LN7@z900_fetch
  00060	48 8b 44 24 40	 mov	 rax, QWORD PTR dev$[rsp]
  00065	0f b6 80 d1 02
	00 00		 movzx	 eax, BYTE PTR [rax+721]
  0006c	83 e0 10	 and	 eax, 16
  0006f	85 c0		 test	 eax, eax
  00071	74 5e		 je	 SHORT $LN5@z900_fetch
  00073	48 8b 44 24 40	 mov	 rax, QWORD PTR dev$[rsp]
  00078	0f b6 80 f1 02
	00 00		 movzx	 eax, BYTE PTR [rax+753]
  0007f	83 e0 20	 and	 eax, 32			; 00000020H
  00082	85 c0		 test	 eax, eax
  00084	74 14		 je	 SHORT $LN9@z900_fetch
  00086	8b 44 24 58	 mov	 eax, DWORD PTR ccwaddr$[rsp]
  0008a	48 8b 0d 00 00
	00 00		 mov	 rcx, QWORD PTR __imp_sysblk
  00091	48 3b 81 60 12
	00 00		 cmp	 rax, QWORD PTR [rcx+4704]
  00098	72 27		 jb	 SHORT $LN8@z900_fetch
$LN9@z900_fetch:
  0009a	48 8b 44 24 40	 mov	 rax, QWORD PTR dev$[rsp]
  0009f	0f b6 80 f1 02
	00 00		 movzx	 eax, BYTE PTR [rax+753]
  000a6	83 e0 40	 and	 eax, 64			; 00000040H
  000a9	85 c0		 test	 eax, eax
  000ab	74 24		 je	 SHORT $LN5@z900_fetch
  000ad	8b 44 24 58	 mov	 eax, DWORD PTR ccwaddr$[rsp]
  000b1	48 8b 0d 00 00
	00 00		 mov	 rcx, QWORD PTR __imp_sysblk
  000b8	48 3b 81 60 12
	00 00		 cmp	 rax, QWORD PTR [rcx+4704]
  000bf	72 10		 jb	 SHORT $LN5@z900_fetch
$LN8@z900_fetch:
$LN7@z900_fetch:
$LN6@z900_fetch:

; 3069 :     {
; 3070 :         *chanstat = CSW_PROGC;

  000c1	48 8b 84 24 80
	00 00 00	 mov	 rax, QWORD PTR chanstat$[rsp]
  000c9	c6 00 20	 mov	 BYTE PTR [rax], 32	; 00000020H

; 3071 :         return;

  000cc	e9 ef 01 00 00	 jmp	 $LN1@z900_fetch
$LN5@z900_fetch:

; 3072 :     }
; 3073 : 
; 3074 :     /* Channel protection check if CCW is fetch protected */
; 3075 :     storkey = ARCH_DEP( get_dev_storage_key )( dev, ccwaddr );

  000d1	8b 44 24 58	 mov	 eax, DWORD PTR ccwaddr$[rsp]
  000d5	8b d0		 mov	 edx, eax
  000d7	48 8b 4c 24 40	 mov	 rcx, QWORD PTR dev$[rsp]
  000dc	e8 00 00 00 00	 call	 z900_get_dev_storage_key
  000e1	88 44 24 20	 mov	 BYTE PTR storkey$[rsp], al

; 3076 :     if (ccwkey != 0 && (storkey & STORKEY_FETCH)
; 3077 :         && (storkey & STORKEY_KEY) != ccwkey)

  000e5	0f b6 44 24 48	 movzx	 eax, BYTE PTR ccwkey$[rsp]
  000ea	85 c0		 test	 eax, eax
  000ec	74 2f		 je	 SHORT $LN10@z900_fetch
  000ee	0f b6 44 24 20	 movzx	 eax, BYTE PTR storkey$[rsp]
  000f3	83 e0 08	 and	 eax, 8
  000f6	85 c0		 test	 eax, eax
  000f8	74 23		 je	 SHORT $LN10@z900_fetch
  000fa	0f b6 44 24 20	 movzx	 eax, BYTE PTR storkey$[rsp]
  000ff	25 f0 00 00 00	 and	 eax, 240		; 000000f0H
  00104	0f b6 4c 24 48	 movzx	 ecx, BYTE PTR ccwkey$[rsp]
  00109	3b c1		 cmp	 eax, ecx
  0010b	74 10		 je	 SHORT $LN10@z900_fetch

; 3078 :     {
; 3079 :         *chanstat = CSW_PROTC;

  0010d	48 8b 84 24 80
	00 00 00	 mov	 rax, QWORD PTR chanstat$[rsp]
  00115	c6 00 10	 mov	 BYTE PTR [rax], 16

; 3080 :         return;

  00118	e9 a3 01 00 00	 jmp	 $LN1@z900_fetch
$LN10@z900_fetch:

; 3081 :     }
; 3082 : 
; 3083 :     /* Set the main storage reference bit for the CCW location */
; 3084 :     ARCH_DEP( or_dev_storage_key )( dev, ccwaddr, STORKEY_REF );

  0011d	8b 44 24 58	 mov	 eax, DWORD PTR ccwaddr$[rsp]
  00121	41 b0 04	 mov	 r8b, 4
  00124	8b d0		 mov	 edx, eax
  00126	48 8b 4c 24 40	 mov	 rcx, QWORD PTR dev$[rsp]
  0012b	e8 00 00 00 00	 call	 z900_or_dev_storage_key

; 3085 : 
; 3086 :     /* Point to the CCW in main storage */
; 3087 :     ccw = dev->mainstor + ccwaddr;

  00130	8b 44 24 58	 mov	 eax, DWORD PTR ccwaddr$[rsp]
  00134	48 8b 4c 24 40	 mov	 rcx, QWORD PTR dev$[rsp]
  00139	48 03 81 80 00
	00 00		 add	 rax, QWORD PTR [rcx+128]
  00140	48 89 44 24 28	 mov	 QWORD PTR ccw$[rsp], rax

; 3088 : 
; 3089 :     /* Extract CCW opcode, flags, byte count, and data address */
; 3090 :     if (ccwfmt == 0)

  00145	0f b6 44 24 50	 movzx	 eax, BYTE PTR ccwfmt$[rsp]
  0014a	85 c0		 test	 eax, eax
  0014c	0f 85 ae 00 00
	00		 jne	 $LN11@z900_fetch

; 3091 :     {
; 3092 :         *code = ccw[0];

  00152	b8 01 00 00 00	 mov	 eax, 1
  00157	48 6b c0 00	 imul	 rax, rax, 0
  0015b	48 8b 4c 24 60	 mov	 rcx, QWORD PTR code$[rsp]
  00160	48 8b 54 24 28	 mov	 rdx, QWORD PTR ccw$[rsp]
  00165	0f b6 04 02	 movzx	 eax, BYTE PTR [rdx+rax]
  00169	88 01		 mov	 BYTE PTR [rcx], al

; 3093 :         *addr = ((U32)(ccw[1]) << 16) | ((U32)(ccw[2]) << 8)

  0016b	b8 01 00 00 00	 mov	 eax, 1
  00170	48 6b c0 01	 imul	 rax, rax, 1
  00174	48 8b 4c 24 28	 mov	 rcx, QWORD PTR ccw$[rsp]
  00179	0f b6 04 01	 movzx	 eax, BYTE PTR [rcx+rax]
  0017d	c1 e0 10	 shl	 eax, 16
  00180	b9 01 00 00 00	 mov	 ecx, 1
  00185	48 6b c9 02	 imul	 rcx, rcx, 2
  00189	48 8b 54 24 28	 mov	 rdx, QWORD PTR ccw$[rsp]
  0018e	0f b6 0c 0a	 movzx	 ecx, BYTE PTR [rdx+rcx]
  00192	c1 e1 08	 shl	 ecx, 8
  00195	0b c1		 or	 eax, ecx
  00197	b9 01 00 00 00	 mov	 ecx, 1
  0019c	48 6b c9 03	 imul	 rcx, rcx, 3
  001a0	48 8b 54 24 28	 mov	 rdx, QWORD PTR ccw$[rsp]
  001a5	0f b6 0c 0a	 movzx	 ecx, BYTE PTR [rdx+rcx]
  001a9	0b c1		 or	 eax, ecx
  001ab	48 8b 4c 24 68	 mov	 rcx, QWORD PTR addr$[rsp]
  001b0	89 01		 mov	 DWORD PTR [rcx], eax

; 3094 :                     | ccw[3];
; 3095 :         *flags = ccw[4];

  001b2	b8 01 00 00 00	 mov	 eax, 1
  001b7	48 6b c0 04	 imul	 rax, rax, 4
  001bb	48 8b 4c 24 70	 mov	 rcx, QWORD PTR flags$[rsp]
  001c0	48 8b 54 24 28	 mov	 rdx, QWORD PTR ccw$[rsp]
  001c5	0f b6 04 02	 movzx	 eax, BYTE PTR [rdx+rax]
  001c9	88 01		 mov	 BYTE PTR [rcx], al

; 3096 :         *count = ((U16)(ccw[6]) << 8) | ccw[7];

  001cb	b8 01 00 00 00	 mov	 eax, 1
  001d0	48 6b c0 06	 imul	 rax, rax, 6
  001d4	48 8b 4c 24 28	 mov	 rcx, QWORD PTR ccw$[rsp]
  001d9	0f b6 04 01	 movzx	 eax, BYTE PTR [rcx+rax]
  001dd	c1 e0 08	 shl	 eax, 8
  001e0	b9 01 00 00 00	 mov	 ecx, 1
  001e5	48 6b c9 07	 imul	 rcx, rcx, 7
  001e9	48 8b 54 24 28	 mov	 rdx, QWORD PTR ccw$[rsp]
  001ee	0f b6 0c 0a	 movzx	 ecx, BYTE PTR [rdx+rcx]
  001f2	0b c1		 or	 eax, ecx
  001f4	48 8b 4c 24 78	 mov	 rcx, QWORD PTR count$[rsp]
  001f9	89 01		 mov	 DWORD PTR [rcx], eax

; 3097 :     }

  001fb	e9 c0 00 00 00	 jmp	 $LN12@z900_fetch
$LN11@z900_fetch:

; 3098 :     else
; 3099 :     {
; 3100 :         *code = ccw[0];

  00200	b8 01 00 00 00	 mov	 eax, 1
  00205	48 6b c0 00	 imul	 rax, rax, 0
  00209	48 8b 4c 24 60	 mov	 rcx, QWORD PTR code$[rsp]
  0020e	48 8b 54 24 28	 mov	 rdx, QWORD PTR ccw$[rsp]
  00213	0f b6 04 02	 movzx	 eax, BYTE PTR [rdx+rax]
  00217	88 01		 mov	 BYTE PTR [rcx], al

; 3101 :         *flags = ccw[1];

  00219	b8 01 00 00 00	 mov	 eax, 1
  0021e	48 6b c0 01	 imul	 rax, rax, 1
  00222	48 8b 4c 24 70	 mov	 rcx, QWORD PTR flags$[rsp]
  00227	48 8b 54 24 28	 mov	 rdx, QWORD PTR ccw$[rsp]
  0022c	0f b6 04 02	 movzx	 eax, BYTE PTR [rdx+rax]
  00230	88 01		 mov	 BYTE PTR [rcx], al

; 3102 :         *count = ((U16)(ccw[2]) << 8) | ccw[3];

  00232	b8 01 00 00 00	 mov	 eax, 1
  00237	48 6b c0 02	 imul	 rax, rax, 2
  0023b	48 8b 4c 24 28	 mov	 rcx, QWORD PTR ccw$[rsp]
  00240	0f b6 04 01	 movzx	 eax, BYTE PTR [rcx+rax]
  00244	c1 e0 08	 shl	 eax, 8
  00247	b9 01 00 00 00	 mov	 ecx, 1
  0024c	48 6b c9 03	 imul	 rcx, rcx, 3
  00250	48 8b 54 24 28	 mov	 rdx, QWORD PTR ccw$[rsp]
  00255	0f b6 0c 0a	 movzx	 ecx, BYTE PTR [rdx+rcx]
  00259	0b c1		 or	 eax, ecx
  0025b	48 8b 4c 24 78	 mov	 rcx, QWORD PTR count$[rsp]
  00260	89 01		 mov	 DWORD PTR [rcx], eax

; 3103 :         *addr = ((U32)(ccw[4]) << 24) | ((U32)(ccw[5]) << 16)

  00262	b8 01 00 00 00	 mov	 eax, 1
  00267	48 6b c0 04	 imul	 rax, rax, 4
  0026b	48 8b 4c 24 28	 mov	 rcx, QWORD PTR ccw$[rsp]
  00270	0f b6 04 01	 movzx	 eax, BYTE PTR [rcx+rax]
  00274	c1 e0 18	 shl	 eax, 24
  00277	b9 01 00 00 00	 mov	 ecx, 1
  0027c	48 6b c9 05	 imul	 rcx, rcx, 5
  00280	48 8b 54 24 28	 mov	 rdx, QWORD PTR ccw$[rsp]
  00285	0f b6 0c 0a	 movzx	 ecx, BYTE PTR [rdx+rcx]
  00289	c1 e1 10	 shl	 ecx, 16
  0028c	0b c1		 or	 eax, ecx
  0028e	b9 01 00 00 00	 mov	 ecx, 1
  00293	48 6b c9 06	 imul	 rcx, rcx, 6
  00297	48 8b 54 24 28	 mov	 rdx, QWORD PTR ccw$[rsp]
  0029c	0f b6 0c 0a	 movzx	 ecx, BYTE PTR [rdx+rcx]
  002a0	c1 e1 08	 shl	 ecx, 8
  002a3	0b c1		 or	 eax, ecx
  002a5	b9 01 00 00 00	 mov	 ecx, 1
  002aa	48 6b c9 07	 imul	 rcx, rcx, 7
  002ae	48 8b 54 24 28	 mov	 rdx, QWORD PTR ccw$[rsp]
  002b3	0f b6 0c 0a	 movzx	 ecx, BYTE PTR [rdx+rcx]
  002b7	0b c1		 or	 eax, ecx
  002b9	48 8b 4c 24 68	 mov	 rcx, QWORD PTR addr$[rsp]
  002be	89 01		 mov	 DWORD PTR [rcx], eax
$LN12@z900_fetch:
$LN1@z900_fetch:

; 3104 :                     | ((U32)(ccw[6]) << 8) | ccw[7];
; 3105 :     }
; 3106 : } /* end function fetch_ccw */

  002c0	48 83 c4 38	 add	 rsp, 56			; 00000038H
  002c4	c3		 ret	 0
z900_fetch_ccw ENDP
_TEXT	ENDS
; Function compile flags: /Odtp
; File C:\papa\MyGit\hyperion-zvector\channel.c
_TEXT	SEGMENT
tv86 = 32
dev$ = 64
ccwkey$ = 72
ccwfmt$ = 80
ccwaddr$ = 88
z900_raise_pci PROC

; 3006 : {

  00000	44 89 4c 24 20	 mov	 DWORD PTR [rsp+32], r9d
  00005	44 88 44 24 18	 mov	 BYTE PTR [rsp+24], r8b
  0000a	88 54 24 10	 mov	 BYTE PTR [rsp+16], dl
  0000e	48 89 4c 24 08	 mov	 QWORD PTR [rsp+8], rcx
  00013	48 83 ec 38	 sub	 rsp, 56			; 00000038H
$LN4@z900_raise:

; 3007 : #if !defined(FEATURE_CHANNEL_SUBSYSTEM)
; 3008 :     UNREFERENCED(ccwfmt);
; 3009 : #endif
; 3010 : 
; 3011 :     IODELAY(dev);

  00017	48 8b 05 00 00
	00 00		 mov	 rax, QWORD PTR __imp_sysblk
  0001e	83 b8 e0 13 00
	00 00		 cmp	 DWORD PTR [rax+5088], 0
  00025	7e 2e		 jle	 SHORT $LN5@z900_raise
  00027	b8 01 00 00 00	 mov	 eax, 1
  0002c	48 6b c0 0a	 imul	 rax, rax, 10
  00030	48 8b 4c 24 40	 mov	 rcx, QWORD PTR dev$[rsp]
  00035	0f b6 84 01 6c
	05 00 00	 movzx	 eax, BYTE PTR [rcx+rax+1388]
  0003d	83 f8 20	 cmp	 eax, 32			; 00000020H
  00040	75 13		 jne	 SHORT $LN5@z900_raise
  00042	48 8b 05 00 00
	00 00		 mov	 rax, QWORD PTR __imp_sysblk
  00049	8b 88 e0 13 00
	00		 mov	 ecx, DWORD PTR [rax+5088]
  0004f	ff 15 00 00 00
	00		 call	 QWORD PTR __imp_usleep
$LN5@z900_raise:
  00055	33 c0		 xor	 eax, eax
  00057	85 c0		 test	 eax, eax
  00059	75 bc		 jne	 SHORT $LN4@z900_raise

; 3012 : 
; 3013 :     OBTAIN_INTLOCK(NULL);

  0005b	48 8d 15 00 00
	00 00		 lea	 rdx, OFFSET FLAT:$SG195955
  00062	33 c9		 xor	 ecx, ecx
  00064	e8 00 00 00 00	 call	 Obtain_Interrupt_Lock

; 3014 :     obtain_lock (&dev->lock);

  00069	48 8b 44 24 40	 mov	 rax, QWORD PTR dev$[rsp]
  0006e	48 83 c0 38	 add	 rax, 56			; 00000038H
  00072	48 8d 15 00 00
	00 00		 lea	 rdx, OFFSET FLAT:$SG195956
  00079	48 8b c8	 mov	 rcx, rax
  0007c	ff 15 00 00 00
	00		 call	 QWORD PTR __imp_hthread_obtain_lock

; 3015 : 
; 3016 :     /* Save the PCI SCSW replacing any previous pending PCI; always
; 3017 :      * track the channel in channel subsystem mode
; 3018 :      */
; 3019 :     dev->pciscsw.flag0 = ccwkey & SCSW0_KEY;

  00082	0f b6 44 24 48	 movzx	 eax, BYTE PTR ccwkey$[rsp]
  00087	25 f0 00 00 00	 and	 eax, 240		; 000000f0H
  0008c	48 8b 4c 24 40	 mov	 rcx, QWORD PTR dev$[rsp]
  00091	88 81 14 03 00
	00		 mov	 BYTE PTR [rcx+788], al

; 3020 :     dev->pciscsw.flag1 = (ccwfmt == 1 ? SCSW1_F : 0);

  00097	0f b6 44 24 50	 movzx	 eax, BYTE PTR ccwfmt$[rsp]
  0009c	83 f8 01	 cmp	 eax, 1
  0009f	75 0a		 jne	 SHORT $LN7@z900_raise
  000a1	c7 44 24 20 80
	00 00 00	 mov	 DWORD PTR tv86[rsp], 128 ; 00000080H
  000a9	eb 08		 jmp	 SHORT $LN8@z900_raise
$LN7@z900_raise:
  000ab	c7 44 24 20 00
	00 00 00	 mov	 DWORD PTR tv86[rsp], 0
$LN8@z900_raise:
  000b3	48 8b 44 24 40	 mov	 rax, QWORD PTR dev$[rsp]
  000b8	0f b6 4c 24 20	 movzx	 ecx, BYTE PTR tv86[rsp]
  000bd	88 88 15 03 00
	00		 mov	 BYTE PTR [rax+789], cl

; 3021 :     dev->pciscsw.flag2 = SCSW2_FC_START;

  000c3	48 8b 44 24 40	 mov	 rax, QWORD PTR dev$[rsp]
  000c8	c6 80 16 03 00
	00 40		 mov	 BYTE PTR [rax+790], 64	; 00000040H

; 3022 :     dev->pciscsw.flag3 = SCSW3_AC_SCHAC | SCSW3_AC_DEVAC

  000cf	48 8b 44 24 40	 mov	 rax, QWORD PTR dev$[rsp]
  000d4	c6 80 17 03 00
	00 c9		 mov	 BYTE PTR [rax+791], 201	; 000000c9H

; 3023 :                        | SCSW3_SC_INTER | SCSW3_SC_PEND;
; 3024 :     STORE_FW(dev->pciscsw.ccwaddr,ccwaddr);

  000db	8b 4c 24 58	 mov	 ecx, DWORD PTR ccwaddr$[rsp]
  000df	e8 00 00 00 00	 call	 _byteswap_ulong
  000e4	48 8b 4c 24 40	 mov	 rcx, QWORD PTR dev$[rsp]
  000e9	48 81 c1 18 03
	00 00		 add	 rcx, 792		; 00000318H
  000f0	8b d0		 mov	 edx, eax
  000f2	e8 00 00 00 00	 call	 store_fw_noswap

; 3025 :     dev->pciscsw.unitstat = 0;

  000f7	48 8b 44 24 40	 mov	 rax, QWORD PTR dev$[rsp]
  000fc	c6 80 1c 03 00
	00 00		 mov	 BYTE PTR [rax+796], 0

; 3026 :     dev->pciscsw.chanstat = CSW_PCI;

  00103	48 8b 44 24 40	 mov	 rax, QWORD PTR dev$[rsp]
  00108	c6 80 1d 03 00
	00 80		 mov	 BYTE PTR [rax+797], 128	; 00000080H

; 3027 :     store_hw (dev->pciscsw.count, 0);

  0010f	33 c9		 xor	 ecx, ecx
  00111	e8 00 00 00 00	 call	 _byteswap_ushort
  00116	48 8b 4c 24 40	 mov	 rcx, QWORD PTR dev$[rsp]
  0011b	48 81 c1 1e 03
	00 00		 add	 rcx, 798		; 0000031eH
  00122	0f b7 d0	 movzx	 edx, ax
  00125	e8 00 00 00 00	 call	 store_hw_noswap

; 3028 : 
; 3029 :     /* Queue the PCI pending interrupt */
; 3030 :     obtain_lock(&sysblk.iointqlk);

  0012a	48 8b 05 00 00
	00 00		 mov	 rax, QWORD PTR __imp_sysblk
  00131	48 05 78 10 00
	00		 add	 rax, 4216		; 00001078H
  00137	48 8d 15 00 00
	00 00		 lea	 rdx, OFFSET FLAT:$SG195957
  0013e	48 8b c8	 mov	 rcx, rax
  00141	ff 15 00 00 00
	00		 call	 QWORD PTR __imp_hthread_obtain_lock

; 3031 :     QUEUE_IO_INTERRUPT_QLOCKED(&dev->pciioint,FALSE);

  00147	48 8b 44 24 40	 mov	 rax, QWORD PTR dev$[rsp]
  0014c	48 05 40 02 00
	00		 add	 rax, 576		; 00000240H
  00152	4c 8d 05 00 00
	00 00		 lea	 r8, OFFSET FLAT:$SG195958
  00159	33 d2		 xor	 edx, edx
  0015b	48 8b c8	 mov	 rcx, rax
  0015e	e8 00 00 00 00	 call	 Queue_IO_Interrupt_QLocked

; 3032 : 
; 3033 :     /* Update interrupt status */
; 3034 :     subchannel_interrupt_queue_cleanup(dev);

  00163	48 8b 4c 24 40	 mov	 rcx, QWORD PTR dev$[rsp]
  00168	e8 00 00 00 00	 call	 subchannel_interrupt_queue_cleanup

; 3035 :     UPDATE_IC_IOPENDING_QLOCKED();

  0016d	e8 00 00 00 00	 call	 Update_IC_IOPENDING_QLocked

; 3036 :     release_lock(&sysblk.iointqlk);

  00172	48 8b 05 00 00
	00 00		 mov	 rax, QWORD PTR __imp_sysblk
  00179	48 05 78 10 00
	00		 add	 rax, 4216		; 00001078H
  0017f	48 8d 15 00 00
	00 00		 lea	 rdx, OFFSET FLAT:$SG195959
  00186	48 8b c8	 mov	 rcx, rax
  00189	ff 15 00 00 00
	00		 call	 QWORD PTR __imp_hthread_release_lock

; 3037 :     release_lock(&dev->lock);

  0018f	48 8b 44 24 40	 mov	 rax, QWORD PTR dev$[rsp]
  00194	48 83 c0 38	 add	 rax, 56			; 00000038H
  00198	48 8d 15 00 00
	00 00		 lea	 rdx, OFFSET FLAT:$SG195960
  0019f	48 8b c8	 mov	 rcx, rax
  001a2	ff 15 00 00 00
	00		 call	 QWORD PTR __imp_hthread_release_lock

; 3038 :     RELEASE_INTLOCK(NULL);

  001a8	48 8d 15 00 00
	00 00		 lea	 rdx, OFFSET FLAT:$SG195961
  001af	33 c9		 xor	 ecx, ecx
  001b1	e8 00 00 00 00	 call	 Release_Interrupt_Lock

; 3039 : 
; 3040 : } /* end function raise_pci */

  001b6	48 83 c4 38	 add	 rsp, 56			; 00000038H
  001ba	c3		 ret	 0
z900_raise_pci ENDP
_TEXT	ENDS
; Function compile flags: /Odtp
; File C:\papa\MyGit\hyperion-zvector\skey.h
;	COMDAT z900_or_dev_storage_key
_TEXT	SEGMENT
dev$ = 48
abs$ = 56
bits$ = 64
z900_or_dev_storage_key PROC				; COMDAT

; 299  : {

$LN3:
  00000	44 88 44 24 18	 mov	 BYTE PTR [rsp+24], r8b
  00005	48 89 54 24 10	 mov	 QWORD PTR [rsp+16], rdx
  0000a	48 89 4c 24 08	 mov	 QWORD PTR [rsp+8], rcx
  0000f	48 83 ec 28	 sub	 rsp, 40			; 00000028H

; 300  : #if defined( FEATURE_2K_STORAGE_KEYS )
; 301  :     ARCH_DEP( or_dev_2K_storage_key )( dev, abs, bits );
; 302  : #else
; 303  :     ARCH_DEP( or_dev_4K_storage_key )( dev, abs, bits );

  00013	44 0f b6 44 24
	40		 movzx	 r8d, BYTE PTR bits$[rsp]
  00019	48 8b 54 24 38	 mov	 rdx, QWORD PTR abs$[rsp]
  0001e	48 8b 4c 24 30	 mov	 rcx, QWORD PTR dev$[rsp]
  00023	e8 00 00 00 00	 call	 z900_or_dev_4K_storage_key

; 304  : #endif
; 305  : }

  00028	48 83 c4 28	 add	 rsp, 40			; 00000028H
  0002c	c3		 ret	 0
z900_or_dev_storage_key ENDP
_TEXT	ENDS
; Function compile flags: /Odtp
; File C:\papa\MyGit\hyperion-zvector\skey.h
;	COMDAT z900_get_dev_storage_key
_TEXT	SEGMENT
dev$ = 48
abs$ = 56
z900_get_dev_storage_key PROC				; COMDAT

; 263  : {

$LN3:
  00000	48 89 54 24 10	 mov	 QWORD PTR [rsp+16], rdx
  00005	48 89 4c 24 08	 mov	 QWORD PTR [rsp+8], rcx
  0000a	48 83 ec 28	 sub	 rsp, 40			; 00000028H

; 264  : #if defined( FEATURE_2K_STORAGE_KEYS )
; 265  :     return ARCH_DEP( get_dev_2K_storage_key )( dev, abs );
; 266  : #else
; 267  :     return ARCH_DEP( get_dev_4K_storage_key )( dev, abs );

  0000e	48 8b 54 24 38	 mov	 rdx, QWORD PTR abs$[rsp]
  00013	48 8b 4c 24 30	 mov	 rcx, QWORD PTR dev$[rsp]
  00018	e8 00 00 00 00	 call	 z900_get_dev_4K_storage_key

; 268  : #endif
; 269  : }

  0001d	48 83 c4 28	 add	 rsp, 40			; 00000028H
  00021	c3		 ret	 0
z900_get_dev_storage_key ENDP
_TEXT	ENDS
; Function compile flags: /Odtp
; File C:\papa\MyGit\hyperion-zvector\skey.h
;	COMDAT z900_or_dev_4K_storage_key
_TEXT	SEGMENT
dev$ = 48
abs$ = 56
bits$ = 64
z900_or_dev_4K_storage_key PROC				; COMDAT

; 246  :   inline void  ARCH_DEP( or_dev_4K_storage_key )  ( DEVBLK* dev, U64 abs, BYTE bits ) {        ARCH_DEP( _or_dev_storage_key  )( dev, abs, bits & ~STORKEY_BADFRM, 4 ); }

$LN3:
  00000	44 88 44 24 18	 mov	 BYTE PTR [rsp+24], r8b
  00005	48 89 54 24 10	 mov	 QWORD PTR [rsp+16], rdx
  0000a	48 89 4c 24 08	 mov	 QWORD PTR [rsp+8], rcx
  0000f	48 83 ec 28	 sub	 rsp, 40			; 00000028H
  00013	0f b6 44 24 40	 movzx	 eax, BYTE PTR bits$[rsp]
  00018	83 e0 fe	 and	 eax, -2
  0001b	41 b1 04	 mov	 r9b, 4
  0001e	44 0f b6 c0	 movzx	 r8d, al
  00022	48 8b 54 24 38	 mov	 rdx, QWORD PTR abs$[rsp]
  00027	48 8b 4c 24 30	 mov	 rcx, QWORD PTR dev$[rsp]
  0002c	e8 00 00 00 00	 call	 z900__or_dev_storage_key
  00031	48 83 c4 28	 add	 rsp, 40			; 00000028H
  00035	c3		 ret	 0
z900_or_dev_4K_storage_key ENDP
_TEXT	ENDS
; Function compile flags: /Odtp
; File C:\papa\MyGit\hyperion-zvector\skey.h
;	COMDAT z900_get_dev_4K_storage_key
_TEXT	SEGMENT
dev$ = 48
abs$ = 56
z900_get_dev_4K_storage_key PROC			; COMDAT

; 244  :   inline BYTE  ARCH_DEP( get_dev_4K_storage_key ) ( DEVBLK* dev, U64 abs            ) { return ARCH_DEP( _get_dev_storage_key )( dev, abs, 4 )  & ~STORKEY_BADFRM;      }

$LN3:
  00000	48 89 54 24 10	 mov	 QWORD PTR [rsp+16], rdx
  00005	48 89 4c 24 08	 mov	 QWORD PTR [rsp+8], rcx
  0000a	48 83 ec 28	 sub	 rsp, 40			; 00000028H
  0000e	41 b0 04	 mov	 r8b, 4
  00011	48 8b 54 24 38	 mov	 rdx, QWORD PTR abs$[rsp]
  00016	48 8b 4c 24 30	 mov	 rcx, QWORD PTR dev$[rsp]
  0001b	e8 00 00 00 00	 call	 z900__get_dev_storage_key
  00020	0f b6 c0	 movzx	 eax, al
  00023	83 e0 fe	 and	 eax, -2
  00026	48 83 c4 28	 add	 rsp, 40			; 00000028H
  0002a	c3		 ret	 0
z900_get_dev_4K_storage_key ENDP
_TEXT	ENDS
; Function compile flags: /Odtp
; File C:\papa\MyGit\hyperion-zvector\skey.h
;	COMDAT z900__or_dev_storage_key
_TEXT	SEGMENT
skey1_ptr$1 = 32
skey2_ptr$2 = 40
skey_ptr$3 = 48
dev$ = 80
abs$ = 88
bits$ = 96
K$ = 104
z900__or_dev_storage_key PROC				; COMDAT

; 206  : {

$LN8:
  00000	44 88 4c 24 20	 mov	 BYTE PTR [rsp+32], r9b
  00005	44 88 44 24 18	 mov	 BYTE PTR [rsp+24], r8b
  0000a	48 89 54 24 10	 mov	 QWORD PTR [rsp+16], rdx
  0000f	48 89 4c 24 08	 mov	 QWORD PTR [rsp+8], rcx
  00014	48 83 ec 48	 sub	 rsp, 72			; 00000048H
$LN4@z900__or_d:

; 207  :     UNREFERENCED( K ); // (for FEATURE_4K_STORAGE_KEYS case)

  00018	33 c0		 xor	 eax, eax
  0001a	85 c0		 test	 eax, eax
  0001c	75 fa		 jne	 SHORT $LN4@z900__or_d

; 208  :     if (IS_DOUBLE_KEYED_4K_BYTE_BLOCK( K ))

  0001e	33 c0		 xor	 eax, eax
  00020	85 c0		 test	 eax, eax
  00022	74 5a		 je	 SHORT $LN5@z900__or_d

; 209  :     {
; 210  :         BYTE* skey1_ptr = _get_dev_storekey1_ptr( dev, abs );

  00024	48 8b 54 24 58	 mov	 rdx, QWORD PTR abs$[rsp]
  00029	48 8b 4c 24 50	 mov	 rcx, QWORD PTR dev$[rsp]
  0002e	e8 00 00 00 00	 call	 _get_dev_storekey1_ptr
  00033	48 89 44 24 20	 mov	 QWORD PTR skey1_ptr$1[rsp], rax

; 211  :         BYTE* skey2_ptr = _get_dev_storekey2_ptr( dev, abs );

  00038	48 8b 54 24 58	 mov	 rdx, QWORD PTR abs$[rsp]
  0003d	48 8b 4c 24 50	 mov	 rcx, QWORD PTR dev$[rsp]
  00042	e8 00 00 00 00	 call	 _get_dev_storekey2_ptr
  00047	48 89 44 24 28	 mov	 QWORD PTR skey2_ptr$2[rsp], rax

; 212  :         OR_SKEY( skey1_ptr, bits );

  0004c	0f b6 44 24 60	 movzx	 eax, BYTE PTR bits$[rsp]
  00051	48 8b 4c 24 20	 mov	 rcx, QWORD PTR skey1_ptr$1[rsp]
  00056	0f b6 09	 movzx	 ecx, BYTE PTR [rcx]
  00059	0b c8		 or	 ecx, eax
  0005b	8b c1		 mov	 eax, ecx
  0005d	48 8b 4c 24 20	 mov	 rcx, QWORD PTR skey1_ptr$1[rsp]
  00062	88 01		 mov	 BYTE PTR [rcx], al

; 213  :         OR_SKEY( skey2_ptr, bits );

  00064	0f b6 44 24 60	 movzx	 eax, BYTE PTR bits$[rsp]
  00069	48 8b 4c 24 28	 mov	 rcx, QWORD PTR skey2_ptr$2[rsp]
  0006e	0f b6 09	 movzx	 ecx, BYTE PTR [rcx]
  00071	0b c8		 or	 ecx, eax
  00073	8b c1		 mov	 eax, ecx
  00075	48 8b 4c 24 28	 mov	 rcx, QWORD PTR skey2_ptr$2[rsp]
  0007a	88 01		 mov	 BYTE PTR [rcx], al

; 214  :     }

  0007c	eb 32		 jmp	 SHORT $LN6@z900__or_d
$LN5@z900__or_d:

; 215  :     else
; 216  :     {
; 217  :         BYTE* skey_ptr  = _get_dev_storekey_ptr(  dev, abs, K );

  0007e	44 0f b6 44 24
	68		 movzx	 r8d, BYTE PTR K$[rsp]
  00084	48 8b 54 24 58	 mov	 rdx, QWORD PTR abs$[rsp]
  00089	48 8b 4c 24 50	 mov	 rcx, QWORD PTR dev$[rsp]
  0008e	e8 00 00 00 00	 call	 _get_dev_storekey_ptr
