; Listing generated by Microsoft (R) Optimizing Compiler Version 19.34.31937.0 

include listing.inc

INCLUDELIB MSVCRTD
INCLUDELIB OLDNAMES

CONST	SEGMENT
CKD_ENDTRK DB	0ffH
	DB	0ffH
	DB	0ffH
	DB	0ffH
	DB	0ffH
	DB	0ffH
	DB	0ffH
	DB	0ffH
CONST	ENDS
PUBLIC	s370_cmpsc_Report
PUBLIC	s390_cmpsc_Report
PUBLIC	z900_cmpsc_Report
; Function compile flags: /Odtp
; File C:\papa\MyGit\hyperion-zvector\cmpscdbg.c
_TEXT	SEGMENT
dbg$ = 8
z900_cmpsc_Report PROC

; 134  : {

  00000	48 89 4c 24 08	 mov	 QWORD PTR [rsp+8], rcx
$LN4@z900_cmpsc:

; 135  :     UNREFERENCED( dbg );

  00005	33 c0		 xor	 eax, eax
  00007	85 c0		 test	 eax, eax
  00009	75 fa		 jne	 SHORT $LN4@z900_cmpsc

; 136  :     return 0;

  0000b	33 c0		 xor	 eax, eax

; 137  : }

  0000d	c3		 ret	 0
z900_cmpsc_Report ENDP
_TEXT	ENDS
; Function compile flags: /Odtp
; File C:\papa\MyGit\hyperion-zvector\cmpscdbg.c
_TEXT	SEGMENT
dbg$ = 8
s390_cmpsc_Report PROC

; 134  : {

  00000	48 89 4c 24 08	 mov	 QWORD PTR [rsp+8], rcx
$LN4@s390_cmpsc:

; 135  :     UNREFERENCED( dbg );

  00005	33 c0		 xor	 eax, eax
  00007	85 c0		 test	 eax, eax
  00009	75 fa		 jne	 SHORT $LN4@s390_cmpsc

; 136  :     return 0;

  0000b	33 c0		 xor	 eax, eax

; 137  : }

  0000d	c3		 ret	 0
s390_cmpsc_Report ENDP
_TEXT	ENDS
; Function compile flags: /Odtp
; File C:\papa\MyGit\hyperion-zvector\cmpscdbg.c
_TEXT	SEGMENT
dbg$ = 8
s370_cmpsc_Report PROC

; 134  : {

  00000	48 89 4c 24 08	 mov	 QWORD PTR [rsp+8], rcx
$LN4@s370_cmpsc:

; 135  :     UNREFERENCED( dbg );

  00005	33 c0		 xor	 eax, eax
  00007	85 c0		 test	 eax, eax
  00009	75 fa		 jne	 SHORT $LN4@s370_cmpsc

; 136  :     return 0;

  0000b	33 c0		 xor	 eax, eax

; 137  : }

  0000d	c3		 ret	 0
s370_cmpsc_Report ENDP
_TEXT	ENDS
END
