; Listing generated by Microsoft (R) Optimizing Compiler Version 19.34.31937.0 

include listing.inc

INCLUDELIB MSVCRTD
INCLUDELIB OLDNAMES

PUBLIC	slowpoll
PUBLIC	fastpoll
PUBLIC	timeout
PUBLIC	previo
_BSS	SEGMENT
$SG177530 DB	01H DUP (?)
	ALIGN	4

$SG177531 DB	01H DUP (?)
	ALIGN	4

$SG177542 DB	01H DUP (?)
	ALIGN	4

$SG177544 DB	01H DUP (?)
	ALIGN	4

$SG177780 DB	01H DUP (?)
	ALIGN	8

previo	DQ	01H DUP (?)
_BSS	ENDS
_DATA	SEGMENT
COMM	currio:QWORD
COMM	diffio:QWORD
_DATA	ENDS
_DATA	SEGMENT
$SG177487 DB	'@ALIGN NONE', 00H
$SG177493 DB	'@NL', 00H
$SG177488 DB	'@SBA 0,0', 00H
	ORG $+3
$SG177489 DB	'@SF P', 00H
	ORG $+2
$SG177491 DB	'@SF HP', 00H
	ORG $+1
$SG177498 DB	'@NL', 00H
$SG177490 DB	'Hercules Version  :', 00H
$SG177503 DB	'@NL', 00H
$SG177492 DB	'$(VERSION)', 00H
	ORG $+1
$SG177494 DB	'@SF P', 00H
	ORG $+2
$SG177496 DB	'@SF HP', 00H
	ORG $+1
$SG177508 DB	'@NL', 00H
$SG177495 DB	'Host name         :', 00H
$SG177513 DB	'@NL', 00H
$SG177497 DB	'$(HOSTNAME)', 00H
$SG177499 DB	'@SF P', 00H
	ORG $+2
$SG177501 DB	'@SF HP', 00H
	ORG $+1
$SG177518 DB	'@NL', 00H
$SG177500 DB	'Host OS           :', 00H
$SG177523 DB	'@NL', 00H
$SG177502 DB	'$(HOSTOS)-$(HOSTOSREL)', 00H
	ORG $+1
$SG177504 DB	'@SF P', 00H
	ORG $+2
$SG177505 DB	'Host Architecture :', 00H
$SG177506 DB	'@SF HP', 00H
	ORG $+5
$SG177507 DB	'$(HOSTARCH)', 00H
$SG177509 DB	'@SF P', 00H
	ORG $+6
$SG177510 DB	'Processors        :', 00H
$SG177511 DB	'@SF HP', 00H
	ORG $+5
$SG177512 DB	'$(HOSTNUMCPUS)', 00H
	ORG $+1
$SG177514 DB	'@SF P', 00H
	ORG $+2
$SG177515 DB	'LPAR Name         :', 00H
$SG177516 DB	'@SF HP', 00H
	ORG $+5
$SG177517 DB	'$(LPARNAME)', 00H
$SG177519 DB	'@SF P', 00H
	ORG $+6
$SG177520 DB	'Device number     :', 00H
$SG177521 DB	'@SF HP', 00H
	ORG $+5
$SG177522 DB	'$(CSS):$(CCUU)', 00H
	ORG $+1
$SG177524 DB	'@SF P', 00H
	ORG $+2
$SG177525 DB	'Subchannel        :', 00H
$SG177526 DB	'@SF HP', 00H
	ORG $+5
$SG177527 DB	'$(SUBCHAN)', 00H
	ORG $+1
$SG177528 DB	'@SF P', 00H
	ORG $+6
$SG177529 DB	'@ALIGN LEFT', 00H
	ORG $+4
$SG177532 DB	'         The Hercules S/370, ESA/390 and z/Architecture '
	DB	'Emulator', 00H
	ORG $+7
$SG177533 DB	'                 Software Development Laboratories', 00H
	ORG $+5
$SG177534 DB	'           _    _                            _', 00H
	ORG $+1
$SG177535 DB	'          | |  | |                          (_)', 00H
$SG177536 DB	'          | |__| | _   _  _ __    ___  _ __  _   ___   _'
	DB	' __', 00H
	ORG $+4
$SG177537 DB	'          |  __  || | | || ''_ \  / _ \| ''__|| | / _ \ '
	DB	'| ''_ \', 00H
	ORG $+3
$SG177538 DB	'          | |  | || |_| || |_) ||  __/| |   | || (_) || '
	DB	'| | |', 00H
	ORG $+2
$SG177539 DB	'          |_|  |_| \__, || .__/  \___||_|   |_| \___/ |_'
	DB	'| |_|', 00H
	ORG $+2
$SG177540 DB	'                    __/ || |', 00H
	ORG $+3
$SG177541 DB	'                   |___/ |_|', 00H
	ORG $+3
$SG177543 DB	'                   My PC thinks it''s a MAINFRAME!', 00H
	ORG $+6
$SG178000 DB	'0.0.0.0', 00H
$SG177545 DB	'       Copyright (C) 1999-2023 Roger Bowler, Jan Jaeger,'
	DB	' and others', 00H
	ORG $+4
$SG178049 DB	'0.0.0.0', 00H
constty_immed DB 00H
	DB	00H
	DB	00H
	DB	01H
	DB	00H
	DB	00H
	DB	00H
	DB	00H
	DB	00H
	DB	00H
	DB	00H
	DB	01H
	DB	00H
	DB	00H
	DB	00H
	DB	00H
	DB	00H
	DB	00H
	DB	00H
	DB	00H
	DB	00H
	DB	00H
	DB	00H
	DB	00H
	DB	00H
	DB	00H
	DB	00H
	DB	00H
	DB	00H
	DB	00H
	DB	00H
	DB	00H
	DB	00H
	DB	00H
	DB	00H
	DB	00H
	DB	00H
	DB	00H
	DB	00H
	DB	00H
	DB	00H
	DB	00H
	DB	00H
	DB	00H
	DB	00H
	DB	00H
	DB	00H
	DB	00H
	DB	00H
	DB	00H
	DB	00H
	DB	00H
	DB	00H
	DB	00H
	DB	00H
	DB	00H
	DB	00H
	DB	00H
	DB	00H
	DB	00H
	DB	00H
	DB	00H
	DB	00H
	DB	00H
	DB	00H
	DB	00H
	DB	00H
	DB	00H
	DB	00H
	DB	00H
	DB	00H
	DB	00H
	DB	00H
	DB	00H
	DB	00H
	DB	00H
	DB	00H
	DB	00H
	DB	00H
	DB	00H
	DB	00H
	DB	00H
	DB	00H
	DB	00H
	DB	00H
	DB	00H
	DB	00H
	DB	00H
	DB	00H
	DB	00H
	DB	00H
	DB	00H
	DB	00H
	DB	00H
	DB	00H
	DB	00H
	DB	00H
	DB	00H
	DB	00H
	DB	00H
	DB	00H
	DB	00H
	DB	00H
	DB	00H
	DB	00H
	DB	00H
	DB	00H
	DB	00H
	DB	00H
	DB	00H
	DB	00H
	DB	00H
	DB	00H
	DB	00H
	DB	00H
	DB	00H
	DB	00H
	DB	00H
	DB	00H
	DB	00H
	DB	00H
	DB	00H
	DB	00H
	DB	00H
	DB	00H
	DB	00H
	DB	00H
	DB	00H
	DB	00H
	DB	00H
	DB	00H
	DB	00H
	DB	00H
	DB	00H
	DB	00H
	DB	00H
	DB	00H
	DB	00H
	DB	00H
	DB	00H
	DB	00H
	DB	00H
	DB	00H
	DB	00H
	DB	00H
	DB	00H
	DB	00H
	DB	00H
	DB	00H
	DB	00H
	DB	00H
	DB	00H
	DB	00H
	DB	00H
	DB	00H
	DB	00H
	DB	00H
	DB	00H
	DB	00H
	DB	00H
	DB	00H
	DB	00H
	DB	00H
	DB	00H
	DB	00H
	DB	00H
	DB	00H
	DB	00H
	DB	00H
	DB	00H
	DB	00H
	DB	00H
	DB	00H
	DB	00H
	DB	00H
	DB	00H
	DB	00H
	DB	00H
	DB	00H
	DB	00H
	DB	00H
	DB	00H
	DB	00H
	DB	00H
	DB	00H
	DB	00H
	DB	00H
	DB	00H
	DB	00H
	DB	00H
	DB	00H
	DB	00H
	DB	00H
	DB	00H
	DB	00H
	DB	00H
	DB	00H
	DB	00H
	DB	00H
	DB	00H
	DB	00H
	DB	00H
	DB	00H
	DB	00H
	DB	00H
	DB	00H
	DB	00H
	DB	00H
	DB	00H
	DB	00H
	DB	00H
	DB	00H
	DB	00H
	DB	00H
	DB	00H
	DB	00H
	DB	00H
	DB	00H
	DB	00H
	DB	00H
	DB	00H
	DB	00H
	DB	00H
	DB	00H
	DB	00H
	DB	00H
	DB	00H
	DB	00H
	DB	00H
	DB	00H
	DB	00H
	DB	00H
	DB	00H
	DB	00H
	DB	00H
	DB	00H
	DB	00H
	DB	00H
	DB	00H
	DB	00H
	DB	00H
	DB	00H
	DB	00H
	DB	00H
	DB	00H
	DB	00H
	DB	00H
	DB	00H
	DB	00H
	DB	00H
	DB	00H
	DB	00H
	DB	00H
	DB	00H
	DB	00H
	DB	00H
loc3270_immed DB 00H
	DB	00H
	DB	00H
	DB	01H
	DB	00H
	DB	00H
	DB	00H
	DB	00H
	DB	00H
	DB	00H
	DB	00H
	DB	01H
	DB	00H
	DB	00H
	DB	00H
	DB	01H
	DB	00H
	DB	00H
	DB	00H
	DB	00H
	DB	00H
	DB	00H
	DB	00H
	DB	00H
	DB	00H
	DB	00H
	DB	00H
	DB	01H
	DB	00H
	DB	00H
	DB	00H
	DB	00H
	DB	00H
	DB	00H
	DB	00H
	DB	00H
	DB	00H
	DB	00H
	DB	00H
	DB	00H
	DB	00H
	DB	00H
	DB	00H
	DB	01H
	DB	00H
	DB	00H
	DB	00H
	DB	00H
	DB	00H
	DB	00H
	DB	00H
	DB	00H
	DB	00H
	DB	00H
	DB	00H
	DB	00H
	DB	00H
	DB	00H
	DB	00H
	DB	01H
	DB	00H
	DB	00H
	DB	00H
	DB	00H
	DB	00H
	DB	00H
	DB	00H
	DB	00H
	DB	00H
	DB	00H
	DB	00H
	DB	00H
	DB	00H
	DB	00H
	DB	00H
	DB	01H
	DB	00H
	DB	00H
	DB	00H
	DB	00H
	DB	00H
	DB	00H
	DB	00H
	DB	00H
	DB	00H
	DB	00H
	DB	00H
	DB	00H
	DB	00H
	DB	00H
	DB	00H
	DB	00H
	DB	00H
	DB	00H
	DB	00H
	DB	00H
	DB	00H
	DB	00H
	DB	00H
	DB	00H
	DB	00H
	DB	00H
	DB	00H
	DB	00H
	DB	00H
	DB	00H
	DB	00H
	DB	00H
	DB	00H
	DB	00H
	DB	00H
	DB	00H
	DB	00H
	DB	00H
	DB	00H
	DB	00H
	DB	00H
	DB	00H
	DB	00H
	DB	00H
	DB	00H
	DB	00H
	DB	00H
	DB	00H
	DB	00H
	DB	00H
	DB	00H
	DB	00H
	DB	00H
	DB	00H
	DB	00H
	DB	00H
	DB	00H
	DB	00H
	DB	00H
	DB	00H
	DB	00H
	DB	00H
	DB	00H
	DB	00H
	DB	00H
	DB	00H
	DB	00H
	DB	00H
	DB	00H
	DB	00H
	DB	00H
	DB	00H
	DB	00H
	DB	00H
	DB	00H
	DB	00H
	DB	00H
	DB	00H
	DB	00H
	DB	00H
	DB	00H
	DB	00H
	DB	00H
	DB	00H
	DB	00H
	DB	00H
	DB	00H
	DB	00H
	DB	00H
	DB	00H
	DB	00H
	DB	00H
	DB	00H
	DB	00H
	DB	00H
	DB	00H
	DB	00H
	DB	00H
	DB	00H
	DB	00H
	DB	00H
	DB	00H
	DB	00H
	DB	00H
	DB	00H
	DB	00H
	DB	00H
	DB	00H
	DB	00H
	DB	00H
	DB	00H
	DB	00H
	DB	00H
	DB	00H
	DB	00H
	DB	00H
	DB	00H
	DB	00H
	DB	00H
	DB	00H
	DB	00H
	DB	00H
	DB	00H
	DB	00H
	DB	00H
	DB	00H
	DB	00H
	DB	00H
	DB	00H
	DB	00H
	DB	00H
	DB	00H
	DB	00H
	DB	00H
	DB	00H
	DB	00H
	DB	00H
	DB	00H
	DB	00H
	DB	00H
	DB	00H
	DB	00H
	DB	00H
	DB	00H
	DB	00H
	DB	00H
	DB	00H
	DB	00H
	DB	00H
	DB	00H
	DB	00H
	DB	00H
	DB	00H
	DB	00H
	DB	00H
	DB	00H
	DB	00H
	DB	00H
	DB	00H
	DB	00H
	DB	00H
	DB	00H
	DB	00H
	DB	00H
	DB	00H
	DB	00H
	DB	00H
	DB	00H
	DB	00H
	DB	00H
	DB	00H
	DB	00H
	DB	00H
	DB	00H
	DB	00H
	DB	00H
	DB	00H
	DB	00H
	DB	00H
	DB	00H
$SG178716 DB	'IBM-DYNAMIC', 00H
	ORG $+4
$SG178717 DB	'IBM-3179-2', 00H
	ORG $+5
$SG178718 DB	'IBM-3180-2', 00H
	ORG $+5
$SG178719 DB	'IBM-3277-2', 00H
	ORG $+5
$SG178720 DB	'IBM-3278-2', 00H
	ORG $+5
$SG178721 DB	'IBM-3278-3', 00H
	ORG $+5
$SG178722 DB	'IBM-3278-4', 00H
	ORG $+5
$SG178723 DB	'IBM-3278-5', 00H
	ORG $+5
$SG178724 DB	'IBM-3278-2-E', 00H
	ORG $+3
$SG178725 DB	'IBM-3278-3-E', 00H
	ORG $+3
$SG178726 DB	'IBM-3278-4-E', 00H
	ORG $+3
$SG178727 DB	'IBM-3278-5-E', 00H
	ORG $+3
$SG178728 DB	'IBM-3279-2', 00H
	ORG $+5
$SG178729 DB	'IBM-3279-3', 00H
	ORG $+5
$SG178730 DB	'IBM-3279-4', 00H
	ORG $+5
$SG178731 DB	'IBM-3279-5', 00H
	ORG $+5
$SG178732 DB	'IBM-3279-2-E', 00H
	ORG $+3
$SG178733 DB	'IBM-3279-3-E', 00H
	ORG $+3
$SG178734 DB	'IBM-3279-4-E', 00H
	ORG $+3
$SG178735 DB	'IBM-3279-5-E', 00H
	ORG $+3
slowpoll DQ	0000000000000000H
	DD	05f5e100H
	ORG $+4
fastpoll DQ	0000000000000000H
	DD	0f4240H
	ORG $+4
timeout	DQ	FLAT:slowpoll
_DATA	ENDS
CONST	SEGMENT
CKD_ENDTRK DB	0ffH
	DB	0ffH
	DB	0ffH
	DB	0ffH
	DB	0ffH
	DB	0ffH
	DB	0ffH
	DB	0ffH
telnet_opts DB	018H
	DB	0fcH
	DB	0fdH
	DB	0ffH
	DB	00H
	DB	00H
CONST	ENDS
PUBLIC	__local_stdio_printf_options
PUBLIC	__local_stdio_scanf_options
PUBLIC	_vsnprintf_s_l
PUBLIC	_vsnprintf_s
PUBLIC	_vsscanf_l
PUBLIC	sscanf
PUBLIC	fetch_hw_noswap
PUBLIC	store_hw_noswap
PUBLIC	fetch_fw_noswap
PUBLIC	store_fw_noswap
PUBLIC	fetch_dw_noswap
PUBLIC	store_dw_noswap
PUBLIC	hdl_check_depends_ep
PUBLIC	hdl_define_devtypes_ep
EXTRN	__report_rangecheckfailure:PROC
EXTRN	__imp_isalpha:PROC
EXTRN	__imp_isdigit:PROC
EXTRN	__imp_isalnum:PROC
EXTRN	__imp__errno:PROC
EXTRN	memmove:PROC
EXTRN	strchr:PROC
EXTRN	strcmp:PROC
EXTRN	__imp__stricmp:PROC
EXTRN	strlen:PROC
EXTRN	__imp__strnicmp:PROC
EXTRN	__imp_strdup:PROC
EXTRN	__imp_IsDebuggerPresent:PROC
EXTRN	__imp_OutputDebugStringA:PROC
EXTRN	__imp_calloc:PROC
EXTRN	__imp_free:PROC
EXTRN	__imp_malloc:PROC
EXTRN	__imp_realloc:PROC
EXTRN	_byteswap_ushort:PROC
EXTRN	_byteswap_ulong:PROC
EXTRN	_byteswap_uint64:PROC
EXTRN	__imp_atoi:PROC
EXTRN	__imp_bind:PROC
EXTRN	__imp_getpeername:PROC
EXTRN	__imp_htons:PROC
EXTRN	__imp_inet_addr:PROC
EXTRN	__imp_inet_ntoa:PROC
EXTRN	__imp_listen:PROC
EXTRN	__imp_ntohs:PROC
EXTRN	__imp_recv:PROC
EXTRN	__imp_send:PROC
EXTRN	__imp_setsockopt:PROC
EXTRN	__imp_gethostbyname:PROC
EXTRN	__imp_getservbyname:PROC
EXTRN	__imp_WSASetLastError:PROC
EXTRN	__imp_WSAGetLastError:PROC
EXTRN	__imp_inet_pton:PROC
EXTRN	inet_ntop:PROC
EXTRN	__imp___acrt_iob_func:PROC
EXTRN	__imp_fread:PROC
EXTRN	__imp___stdio_common_vsnprintf_s:PROC
EXTRN	__imp___stdio_common_vsscanf:PROC
EXTRN	__imp_fthread_self:PROC
EXTRN	__imp_hthread_obtain_lock:PROC
EXTRN	__imp_hthread_try_obtain_lock:PROC
EXTRN	__imp_hthread_release_lock:PROC
EXTRN	__imp_hthread_create_thread:PROC
EXTRN	__imp_hthread_join_thread:PROC
EXTRN	__imp_hthread_set_thread_prio:PROC
EXTRN	__imp_hthread_get_thread_prio:PROC
EXTRN	__imp_init_hostinfo:PROC
EXTRN	__imp_get_symbol:PROC
EXTRN	__imp_resolve_symbol_string:PROC
EXTRN	__imp_set_symbol:PROC
EXTRN	__imp_strlcpy:PROC
EXTRN	__imp_timeval_subtract:PROC
EXTRN	__imp_w32_strerror:PROC
EXTRN	__imp_strtok_r:PROC
EXTRN	__imp_gettimeofday:PROC
EXTRN	__imp_usleep:PROC
EXTRN	__imp_sleep:PROC
EXTRN	__imp_sched_yield:PROC
EXTRN	__imp_hostpath:PROC
EXTRN	__imp_socket_set_blocking_mode:PROC
EXTRN	__imp_set_socket_keepalive:PROC
EXTRN	__imp_w32_socket:PROC
EXTRN	__imp_w32_accept:PROC
EXTRN	__imp_w32_close_socket:PROC
EXTRN	__imp_w32_FD_SET:PROC
EXTRN	__imp_w32_FD_ISSET:PROC
EXTRN	__imp_w32_pselect:PROC
EXTRN	__imp_w32_fwrite:PROC
EXTRN	__imp_w32_snprintf:PROC
EXTRN	__imp_w32_basename:PROC
EXTRN	__imp_guest_to_host:PROC
EXTRN	__imp_prt_host_to_guest:PROC
EXTRN	__imp_write_socket:PROC
EXTRN	__imp_disable_nagle:PROC
EXTRN	telnet_init:PROC
EXTRN	telnet_free:PROC
EXTRN	telnet_recv:PROC
EXTRN	telnet_3270_cmd:PROC
EXTRN	telnet_negotiate:PROC
EXTRN	telnet_send_one_shot:PROC
EXTRN	telnet_printf:PROC
EXTRN	telnet_ttype_send:PROC
EXTRN	telnet_ttype_is:PROC
EXTRN	telnet_opt_name:PROC
EXTRN	telnet_evt_name:PROC
EXTRN	telnet_err_name:PROC
EXTRN	telnet_closesocket:PROC
EXTRN	__imp_readlogo:PROC
EXTRN	__imp_sclp_sysg_attention:PROC
EXTRN	__imp_device_attention:PROC
EXTRN	__imp_Dequeue_IO_Interrupt:PROC
EXTRN	__imp_fwritemsg:PROC
EXTRN	__imp_logmsg:PROC
EXTRN	__GSHandlerCheck:PROC
EXTRN	__chkstk:PROC
EXTRN	__security_check_cookie:PROC
EXTRN	__imp_hostinfo:BYTE
EXTRN	__imp_sysblk:BYTE
EXTRN	__ImageBase:BYTE
EXTRN	__security_cookie:QWORD
_DATA	SEGMENT
COMM	?_OptionsStorage@?1??__local_stdio_printf_options@@9@9:QWORD							; `__local_stdio_printf_options'::`2'::_OptionsStorage
COMM	?_OptionsStorage@?1??__local_stdio_scanf_options@@9@9:QWORD							; `__local_stdio_scanf_options'::`2'::_OptionsStorage
_DATA	ENDS
_BSS	SEGMENT
console_cnslcnt DD 01H DUP (?)
$SG178641 DB	01H DUP (?)
	ALIGN	4

$SG178653 DB	01H DUP (?)
	ALIGN	4

$SG178655 DB	01H DUP (?)
	ALIGN	4

$SG178704 DB	01H DUP (?)
	ALIGN	4

$SG179003 DB	01H DUP (?)
	ALIGN	8

?prev@?BN@??console_connection_handler@@9@9 DQ 01H DUP (?) ; `console_connection_handler'::`29'::prev
?prev@?CE@??console_connection_handler@@9@9 DQ 01H DUP (?) ; `console_connection_handler'::`36'::prev
?clid@?CI@??console_connection_handler@@9@9 DD 01H DUP (?) ; `console_connection_handler'::`40'::clid
$SG179337 DB	01H DUP (?)
	ALIGN	4

$SG179343 DB	01H DUP (?)
_BSS	ENDS
;	COMDAT pdata
pdata	SEGMENT
$pdata$_vsnprintf_s_l DD imagerel $LN5
	DD	imagerel $LN5+127
	DD	imagerel $unwind$_vsnprintf_s_l
pdata	ENDS
;	COMDAT pdata
pdata	SEGMENT
$pdata$_vsnprintf_s DD imagerel $LN3
	DD	imagerel $LN3+73
	DD	imagerel $unwind$_vsnprintf_s
pdata	ENDS
;	COMDAT pdata
pdata	SEGMENT
$pdata$_vsscanf_l DD imagerel $LN3
	DD	imagerel $LN3+80
	DD	imagerel $unwind$_vsscanf_l
pdata	ENDS
;	COMDAT pdata
pdata	SEGMENT
$pdata$sscanf DD imagerel $LN3
	DD	imagerel $LN3+79
	DD	imagerel $unwind$sscanf
pdata	ENDS
pdata	SEGMENT
$pdata$DebuggerTrace DD imagerel DebuggerTrace
	DD	imagerel DebuggerTrace+247
	DD	imagerel $unwind$DebuggerTrace
$pdata$strupper DD imagerel strupper
	DD	imagerel strupper+114
	DD	imagerel $unwind$strupper
pdata	ENDS
;	COMDAT pdata
pdata	SEGMENT
$pdata$fetch_hw_noswap DD imagerel $LN3
	DD	imagerel $LN3+30
	DD	imagerel $unwind$fetch_hw_noswap
pdata	ENDS
;	COMDAT pdata
pdata	SEGMENT
$pdata$fetch_fw_noswap DD imagerel $LN3
	DD	imagerel $LN3+27
	DD	imagerel $unwind$fetch_fw_noswap
pdata	ENDS
;	COMDAT pdata
pdata	SEGMENT
$pdata$fetch_dw_noswap DD imagerel $LN3
	DD	imagerel $LN3+30
	DD	imagerel $unwind$fetch_dw_noswap
pdata	ENDS
pdata	SEGMENT
$pdata$sr_write_hdr DD imagerel sr_write_hdr
	DD	imagerel sr_write_hdr+199
	DD	imagerel $unwind$sr_write_hdr
$pdata$sr_write_value DD imagerel sr_write_value
	DD	imagerel sr_write_value+378
	DD	imagerel $unwind$sr_write_value
$pdata$sr_write_buf DD imagerel sr_write_buf
	DD	imagerel sr_write_buf+285
	DD	imagerel $unwind$sr_write_buf
$pdata$sr_read_hdr DD imagerel sr_read_hdr
	DD	imagerel sr_read_hdr+221
	DD	imagerel $unwind$sr_read_hdr
$pdata$sr_read_value DD imagerel sr_read_value
	DD	imagerel sr_read_value+588
	DD	imagerel $unwind$sr_read_value
$pdata$sr_read_buf DD imagerel sr_read_buf
	DD	imagerel sr_read_buf+240
	DD	imagerel $unwind$sr_read_buf
$pdata$sr_read_skip DD imagerel sr_read_skip
	DD	imagerel sr_read_skip+248
	DD	imagerel $unwind$sr_read_skip
$pdata$sr_write_error_ DD imagerel sr_write_error_
	DD	imagerel sr_write_error_+121
	DD	imagerel $unwind$sr_write_error_
$pdata$sr_read_error_ DD imagerel sr_read_error_
	DD	imagerel sr_read_error_+121
	DD	imagerel $unwind$sr_read_error_
$pdata$sr_value_error_ DD imagerel sr_value_error_
	DD	imagerel sr_value_error_+80
	DD	imagerel $unwind$sr_value_error_
$pdata$console_connection_handler DD imagerel console_connection_handler
	DD	imagerel console_connection_handler+4778
	DD	imagerel $unwind$console_connection_handler
$pdata$solicit_3270_data DD imagerel solicit_3270_data
	DD	imagerel solicit_3270_data+255
	DD	imagerel $unwind$solicit_3270_data
$pdata$loc3270_input DD imagerel loc3270_input
	DD	imagerel loc3270_input+588
	DD	imagerel $unwind$loc3270_input
$pdata$constty_input DD imagerel constty_input
	DD	imagerel constty_input+1082
	DD	imagerel $unwind$constty_input
$pdata$negotiate_ttype DD imagerel negotiate_ttype
	DD	imagerel negotiate_ttype+1045
	DD	imagerel $unwind$negotiate_ttype
$pdata$telnet_ev_handler DD imagerel telnet_ev_handler
	DD	imagerel telnet_ev_handler+3776
	DD	imagerel $unwind$telnet_ev_handler
$pdata$sendto_client DD imagerel sendto_client
	DD	imagerel sendto_client+297
	DD	imagerel $unwind$sendto_client
$pdata$raise_device_attention DD imagerel raise_device_attention
	DD	imagerel raise_device_attention+129
	DD	imagerel $unwind$raise_device_attention
$pdata$finish_console_init DD imagerel finish_console_init
	DD	imagerel finish_console_init+269
	DD	imagerel $unwind$finish_console_init
$pdata$disconnect_telnet_client DD imagerel disconnect_telnet_client
	DD	imagerel disconnect_telnet_client+113
	DD	imagerel $unwind$disconnect_telnet_client
$pdata$disconnect_console_device DD imagerel disconnect_console_device
	DD	imagerel disconnect_console_device+87
	DD	imagerel $unwind$disconnect_console_device
$pdata$finish_console_close DD imagerel finish_console_close
	DD	imagerel finish_console_close+431
	DD	imagerel $unwind$finish_console_close
$pdata$loc3270_close_device DD imagerel loc3270_close_device
	DD	imagerel loc3270_close_device+65
	DD	imagerel $unwind$loc3270_close_device
$pdata$constty_close_device DD imagerel constty_close_device
	DD	imagerel constty_close_device+26
	DD	imagerel $unwind$constty_close_device
$pdata$loc3270_init_handler DD imagerel loc3270_init_handler
	DD	imagerel loc3270_init_handler+2808
	DD	imagerel $unwind$loc3270_init_handler
$pdata$constty_init_handler DD imagerel constty_init_handler
	DD	imagerel constty_init_handler+1861
	DD	imagerel $unwind$constty_init_handler
$pdata$parse_sockspec DD imagerel parse_sockspec
	DD	imagerel parse_sockspec+716
	DD	imagerel $unwind$parse_sockspec
$pdata$next_3270_pos DD imagerel next_3270_pos
	DD	imagerel next_3270_pos+680
	DD	imagerel $unwind$next_3270_pos
$pdata$end_of_buf_pos DD imagerel end_of_buf_pos
	DD	imagerel end_of_buf_pos+75
	DD	imagerel $unwind$end_of_buf_pos
$pdata$pos_to_buff_offset DD imagerel pos_to_buff_offset
	DD	imagerel pos_to_buff_offset+89
	DD	imagerel $unwind$pos_to_buff_offset
$pdata$buffer_addchar DD imagerel buffer_addchar
	DD	imagerel buffer_addchar+230
	DD	imagerel $unwind$buffer_addchar
$pdata$buffer_addstring DD imagerel buffer_addstring
	DD	imagerel buffer_addstring+140
	DD	imagerel $unwind$buffer_addstring
$pdata$buffer_addsba DD imagerel buffer_addsba
	DD	imagerel buffer_addsba+209
	DD	imagerel $unwind$buffer_addsba
$pdata$buffer_addsf DD imagerel buffer_addsf
	DD	imagerel buffer_addsf+133
	DD	imagerel $unwind$buffer_addsf
$pdata$build_logo DD imagerel build_logo
	DD	imagerel build_logo+2045
	DD	imagerel $unwind$build_logo
$pdata$init_logo DD imagerel init_logo
	DD	imagerel init_logo+388
	DD	imagerel $unwind$init_logo
$pdata$constty_redrive_pselect DD imagerel constty_redrive_pselect
	DD	imagerel constty_redrive_pselect+309
	DD	imagerel $unwind$constty_redrive_pselect
$pdata$loc3270_redrive_pselect DD imagerel loc3270_redrive_pselect
	DD	imagerel loc3270_redrive_pselect+345
	DD	imagerel $unwind$loc3270_redrive_pselect
$pdata$constty_halt_or_clear DD imagerel constty_halt_or_clear
	DD	imagerel constty_halt_or_clear+24
	DD	imagerel $unwind$constty_halt_or_clear
$pdata$loc3270_halt_or_clear DD imagerel loc3270_halt_or_clear
	DD	imagerel loc3270_halt_or_clear+24
	DD	imagerel $unwind$loc3270_halt_or_clear
$pdata$loc3270_hsuspend DD imagerel loc3270_hsuspend
	DD	imagerel loc3270_hsuspend+481
	DD	imagerel $unwind$loc3270_hsuspend
$pdata$loc3270_hresume DD imagerel loc3270_hresume
	DD	imagerel loc3270_hresume+1425
	DD	imagerel $unwind$loc3270_hresume
$pdata$constty_query_device DD imagerel constty_query_device
	DD	imagerel constty_query_device+1227
	DD	imagerel $unwind$constty_query_device
$pdata$loc3270_query_device DD imagerel loc3270_query_device
	DD	imagerel loc3270_query_device+935
	DD	imagerel $unwind$loc3270_query_device
$pdata$lookup_ttype DD imagerel lookup_ttype
	DD	imagerel lookup_ttype+146
	DD	imagerel $unwind$lookup_ttype
$pdata$recv_3270_data DD imagerel recv_3270_data
	DD	imagerel recv_3270_data+1221
	DD	imagerel $unwind$recv_3270_data
$pdata$recv_1052_data DD imagerel recv_1052_data
	DD	imagerel recv_1052_data+1135
	DD	imagerel $unwind$recv_1052_data
$pdata$connect_client DD imagerel connect_client
	DD	imagerel connect_client+5068
	DD	imagerel $unwind$connect_client
$pdata$calcto DD imagerel calcto
	DD	imagerel calcto+283
	DD	imagerel $unwind$calcto
$pdata$consio DD imagerel consio
	DD	imagerel consio+28
	DD	imagerel $unwind$consio
$pdata$consto DD imagerel consto
	DD	imagerel consto+14
	DD	imagerel $unwind$consto
$pdata$get_listening_socket DD imagerel get_listening_socket
	DD	imagerel get_listening_socket+1294
	DD	imagerel $unwind$get_listening_socket
$pdata$loc3270_execute_ccw DD imagerel loc3270_execute_ccw
	DD	imagerel loc3270_execute_ccw+5156
	DD	imagerel $unwind$loc3270_execute_ccw
$pdata$constty_execute_ccw DD imagerel constty_execute_ccw
	DD	imagerel constty_execute_ccw+2088
	DD	imagerel $unwind$constty_execute_ccw
$pdata$hdl_check_depends_ep DD imagerel $LN15
	DD	imagerel $LN15+152
	DD	imagerel $unwind$hdl_check_depends_ep
$pdata$hdl_define_devtypes_ep DD imagerel $LN3
	DD	imagerel $LN3+104
	DD	imagerel $unwind$hdl_define_devtypes_ep
pdata	ENDS
_DATA	SEGMENT
$SG177265 DB	'SR: sr_write_hdr:    key=0x%8.8x, len=0x%8.8x', 0aH, 00H
	ORG $+1
$SG177267 DB	'SR: sr_write_hdr:    key=0x%8.8x, len=0x%8.8x', 0aH, 00H
	ORG $+1
$SG177307 DB	'SR: sr_write_buf:    key=0x%8.8x, len=0x%16.16llx', 0aH, 00H
	ORG $+1
$SG177459 DB	'E', 00H
	ORG $+2
$SG177309 DB	'SR: sr_write_buf:    key=0x%8.8x, len=0x%16.16llx', 0aH, 00H
	ORG $+5
$SG177353 DB	'SR: sr_read_hdr:   key=0x%8.8x, len=0x%8.8x', 0aH, 00H
	ORG $+3
$SG177370 DB	'SR: sr_read_skip:                  len=0x%8.8x', 0aH, 00H
$SG177406 DB	'SR: sr_read_buf:                   len=0x%16.16llx', 0aH
	DB	00H
	ORG $+4
$SG177331 DB	'SR: sr_write_value:  key=0x%8.8x, len=0x%8.8x, val=0x%16'
	DB	'.16llx', 0aH, 00H
$SG177333 DB	'SR: sr_write_value:  key=0x%8.8x, len=0x%8.8x, val=0x%16'
	DB	'.16llx', 0aH, 00H
$SG177355 DB	'SR: sr_read_hdr:   key=0x%8.8x, len=0x%8.8x', 0aH, 00H
	ORG $+3
$SG177372 DB	'SR: sr_read_skip:                  len=0x%8.8x', 0aH, 00H
$SG177408 DB	'SR: sr_read_buf:                   len=0x%16.16llx', 0aH
	DB	00H
$SG177464 DB	'read()', 00H
	ORG $+5
$SG177440 DB	'SR: sr_read_value:              suslen=0x%8.8x, reslen=0'
	DB	'x%8.8x,', 0aH, 00H
	ORG $+7
$SG177450 DB	'                           val=0x%16.16llx', 0aH, 00H
$SG177465 DB	'E', 00H
	ORG $+2
$SG177458 DB	'write()', 00H
$SG177442 DB	'SR: sr_read_value:              suslen=0x%8.8x, reslen=0'
	DB	'x%8.8x,', 0aH, 00H
	ORG $+3
$SG177476 DB	'E', 00H
	ORG $+2
$SG177452 DB	'                           val=0x%16.16llx', 0aH, 00H
$SG177675 DB	'E', 00H
	ORG $+2
$SG177460 DB	'HHC02001%s SR: error in function %s: %s', 0aH, 00H
	ORG $+3
$SG177689 DB	'TTYPE', 00H
	ORG $+2
$SG177690 DB	'enable', 00H
	ORG $+1
$SG177691 DB	'W', 00H
	ORG $+2
$SG177461 DB	'sr_write_error_', 00H
$SG177462 DB	'C:\papa\MyGit\hyperion-zvector\sr.h', 00H
$SG177698 DB	'W', 00H
	ORG $+2
$SG177466 DB	'HHC02001%s SR: error in function %s: %s', 0aH, 00H
	ORG $+3
$SG177697 DB	'enable', 00H
	ORG $+1
$SG177709 DB	'W', 00H
	ORG $+2
$SG177467 DB	'sr_read_error_', 00H
	ORG $+1
$SG177468 DB	'C:\papa\MyGit\hyperion-zvector\sr.h', 00H
$SG177718 DB	'W', 00H
	ORG $+2
$SG177477 DB	'HHC02020%s SR: value error, incorrect length', 0aH, 00H
	ORG $+2
$SG177478 DB	'sr_value_error_', 00H
$SG177479 DB	'C:\papa\MyGit\hyperion-zvector\sr.h', 00H
$SG177729 DB	'W', 00H
	ORG $+2
?ttype@?BP@??telnet_ev_handler@@9@9 DQ FLAT:$SG177780	; `telnet_ev_handler'::`31'::ttype
herclogo DQ	FLAT:$SG177487
	DQ	FLAT:$SG177488
	DQ	FLAT:$SG177489
	DQ	FLAT:$SG177490
	DQ	FLAT:$SG177491
	DQ	FLAT:$SG177492
	DQ	FLAT:$SG177493
	DQ	FLAT:$SG177494
	DQ	FLAT:$SG177495
	DQ	FLAT:$SG177496
	DQ	FLAT:$SG177497
	DQ	FLAT:$SG177498
	DQ	FLAT:$SG177499
	DQ	FLAT:$SG177500
	DQ	FLAT:$SG177501
	DQ	FLAT:$SG177502
	DQ	FLAT:$SG177503
	DQ	FLAT:$SG177504
	DQ	FLAT:$SG177505
	DQ	FLAT:$SG177506
	DQ	FLAT:$SG177507
	DQ	FLAT:$SG177508
	DQ	FLAT:$SG177509
	DQ	FLAT:$SG177510
	DQ	FLAT:$SG177511
	DQ	FLAT:$SG177512
	DQ	FLAT:$SG177513
	DQ	FLAT:$SG177514
	DQ	FLAT:$SG177515
	DQ	FLAT:$SG177516
	DQ	FLAT:$SG177517
	DQ	FLAT:$SG177518
	DQ	FLAT:$SG177519
	DQ	FLAT:$SG177520
	DQ	FLAT:$SG177521
	DQ	FLAT:$SG177522
	DQ	FLAT:$SG177523
	DQ	FLAT:$SG177524
	DQ	FLAT:$SG177525
	DQ	FLAT:$SG177526
	DQ	FLAT:$SG177527
	DQ	FLAT:$SG177528
	DQ	FLAT:$SG177529
	DQ	FLAT:$SG177530
	DQ	FLAT:$SG177531
	DQ	FLAT:$SG177532
	DQ	FLAT:$SG177533
	DQ	FLAT:$SG177534
	DQ	FLAT:$SG177535
	DQ	FLAT:$SG177536
	DQ	FLAT:$SG177537
	DQ	FLAT:$SG177538
	DQ	FLAT:$SG177539
	DQ	FLAT:$SG177540
	DQ	FLAT:$SG177541
	DQ	FLAT:$SG177542
	DQ	FLAT:$SG177543
	DQ	FLAT:$SG177544
	DQ	FLAT:$SG177545
$SG177676 DB	'HHC02900%s %s COMM: Send() failed: %s', 0aH, 00H
	ORG $+1
$SG177677 DB	'telnet_ev_handler', 00H
	ORG $+2
$SG177747 DB	'enable', 00H
	ORG $+1
$SG177748 DB	'W', 00H
	ORG $+2
$SG177678 DB	'console.c', 00H
	ORG $+2
$SG177755 DB	'enable', 00H
	ORG $+1
$SG177756 DB	'W', 00H
	ORG $+2
$SG177692 DB	'HHC02901%s %s COMM: Refusing client demand to %s %s', 0aH
	DB	00H
	ORG $+3
$SG177693 DB	'telnet_ev_handler', 00H
	ORG $+2
$SG177763 DB	'enable', 00H
	ORG $+1
$SG177764 DB	'W', 00H
	ORG $+2
$SG177694 DB	'console.c', 00H
	ORG $+2
$SG177771 DB	'enable', 00H
	ORG $+1
$SG177772 DB	'W', 00H
	ORG $+2
$SG177699 DB	'HHC02901%s %s COMM: Refusing client demand to %s %s', 0aH
	DB	00H
	ORG $+3
$SG177700 DB	'telnet_ev_handler', 00H
	ORG $+2
$SG177801 DB	'I', 00H
	ORG $+2
$SG177701 DB	'console.c', 00H
	ORG $+2
$SG177807 DB	'W', 00H
	ORG $+2
$SG177707 DB	'BINARY mode', 00H
$SG177811 DB	'W', 00H
	ORG $+2
$SG177708 DB	'disable', 00H
$SG177710 DB	'HHC02901%s %s COMM: Refusing client demand to %s %s', 0aH
	DB	00H
	ORG $+3
$SG177711 DB	'telnet_ev_handler', 00H
	ORG $+2
$SG177817 DB	'I', 00H
	ORG $+2
$SG177712 DB	'console.c', 00H
	ORG $+2
$SG177821 DB	'E', 00H
	ORG $+2
$SG177716 DB	'Suppress Go Aheads', 00H
	ORG $+1
$SG177826 DB	'W', 00H
	ORG $+2
$SG177717 DB	'disable', 00H
$SG177719 DB	'HHC02901%s %s COMM: Refusing client demand to %s %s', 0aH
	DB	00H
	ORG $+3
$SG177720 DB	'telnet_ev_handler', 00H
	ORG $+2
$SG177845 DB	'%s', 00H
	ORG $+1
$SG177721 DB	'console.c', 00H
	ORG $+2
$SG177873 DB	'E', 00H
	ORG $+2
$SG177727 DB	'EOR mode', 00H
	ORG $+3
$SG177762 DB	'TTYPE', 00H
	ORG $+2
$SG177963 DB	'%hx', 00H
$SG177728 DB	'disable', 00H
$SG177730 DB	'HHC02901%s %s COMM: Refusing client demand to %s %s', 0aH
	DB	00H
	ORG $+3
$SG177731 DB	'telnet_ev_handler', 00H
	ORG $+2
$SG177967 DB	'E', 00H
	ORG $+2
$SG177732 DB	'console.c', 00H
	ORG $+2
$SG177979 DB	'E', 00H
	ORG $+2
$SG177746 DB	'BINARY mode', 00H
$SG177986 DB	'E', 00H
	ORG $+2
$SG177749 DB	'HHC02902%s %s COMM: Client refused to %s %s', 0aH, 00H
	ORG $+3
$SG177750 DB	'telnet_ev_handler', 00H
	ORG $+2
$SG177994 DB	'E', 00H
	ORG $+2
$SG177751 DB	'console.c', 00H
	ORG $+2
$SG178004 DB	'E', 00H
	ORG $+2
$SG177754 DB	'Suppress Go Aheads', 00H
	ORG $+1
$SG178009 DB	'E', 00H
	ORG $+2
$SG177757 DB	'HHC02902%s %s COMM: Client refused to %s %s', 0aH, 00H
	ORG $+3
$SG177758 DB	'telnet_ev_handler', 00H
	ORG $+2
$SG178035 DB	'%hx', 00H
$SG177759 DB	'console.c', 00H
	ORG $+2
$SG178043 DB	'E', 00H
	ORG $+2
$SG177765 DB	'HHC02902%s %s COMM: Client refused to %s %s', 0aH, 00H
	ORG $+3
$SG177766 DB	'telnet_ev_handler', 00H
	ORG $+2
$SG178053 DB	'E', 00H
	ORG $+2
$SG177767 DB	'console.c', 00H
	ORG $+2
$SG178058 DB	'E', 00H
	ORG $+2
$SG177770 DB	'EOR mode', 00H
	ORG $+3
$SG177816 DB	'ERROR', 00H
	ORG $+2
$SG178089 DB	'E', 00H
	ORG $+2
$SG177773 DB	'HHC02902%s %s COMM: Client refused to %s %s', 0aH, 00H
	ORG $+3
$SG177774 DB	'telnet_ev_handler', 00H
	ORG $+2
$SG178099 DB	'I', 00H
	ORG $+2
$SG177775 DB	'console.c', 00H
	ORG $+2
$SG178105 DB	'tcp', 00H
$SG177800 DB	'WARNING', 00H
$SG177802 DB	'HHC02907%s %s COMM: Libtelnet %s: %s in %s() at %s(%d): '
	DB	'%s', 0aH, 00H
$SG178108 DB	'I', 00H
	ORG $+2
$SG177803 DB	'telnet_ev_handler', 00H
	ORG $+2
$SG178285 DB	' ', 09H, 00H
	ORG $+1
$SG177804 DB	'console.c', 00H
	ORG $+2
$SG178286 DB	' ', 09H, 00H
	ORG $+1
$SG177808 DB	'HHC02905%s %s COMM: Libtelnet negotiation error', 0aH, 00H
	ORG $+3
$SG178292 DB	',', 00H
	ORG $+2
$SG177809 DB	'telnet_ev_handler', 00H
	ORG $+2
$SG178293 DB	',', 00H
	ORG $+2
$SG177810 DB	'console.c', 00H
	ORG $+2
$SG178300 DB	'@sf', 00H
$SG177812 DB	'HHC02903%s %s COMM: Libtelnet error', 0aH, 00H
	ORG $+3
$SG177813 DB	'telnet_ev_handler', 00H
	ORG $+2
$SG178312 DB	'@nl', 00H
$SG177814 DB	'console.c', 00H
	ORG $+2
$SG178315 DB	'@align', 00H
	ORG $+1
$SG178600 DB	'E', 00H
	ORG $+2
$SG177818 DB	'HHC02907%s %s COMM: Libtelnet %s: %s in %s() at %s(%d): '
	DB	'%s', 0aH, 00H
$SG178632 DB	'CON', 00H
$SG177819 DB	'telnet_ev_handler', 00H
	ORG $+2
$SG178328 DB	'center', 00H
	ORG $+1
$SG178638 DB	'.', 00H
	ORG $+2
$SG177820 DB	'console.c', 00H
	ORG $+2
$SG178416 DB	'%s%c%s', 00H
	ORG $+1
$SG178647 DB	'%s', 00H
	ORG $+1
$SG177822 DB	'HHC02904%s %s COMM: Libtelnet FATAL error', 0aH, 00H
	ORG $+1
$SG178648 DB	'%s', 00H
	ORG $+1
$SG177823 DB	'telnet_ev_handler', 00H
	ORG $+2
$SG178652 DB	' ', 00H
	ORG $+2
$SG177824 DB	'console.c', 00H
	ORG $+2
$SG178685 DB	'DSP', 00H
$SG177827 DB	'HHC02906%s %s COMM: Unsupported libtelnet event ''%s''', 0aH
	DB	00H
	ORG $+2
$SG177828 DB	'telnet_ev_handler', 00H
	ORG $+2
$SG178691 DB	'.', 00H
	ORG $+2
$SG177829 DB	'console.c', 00H
	ORG $+2
$SG178698 DB	'%s', 00H
	ORG $+1
$SG177871 DB	'console.c:720', 00H
	ORG $+2
$SG177872 DB	'console_connect', 00H
$SG177874 DB	'HHC00102%s Error in function create_thread(): %s', 0aH, 00H
	ORG $+2
$SG178699 DB	'%s', 00H
	ORG $+1
$SG177875 DB	'finish_console_init', 00H
$SG178703 DB	' ', 00H
	ORG $+2
$SG177876 DB	'console.c', 00H
	ORG $+2
$SG178768 DB	'E', 00H
	ORG $+2
$SG177910 DB	'console.c:791', 00H
	ORG $+2
$SG177912 DB	'console.c:791', 00H
	ORG $+2
$SG177915 DB	'finish_console_close', 00H
	ORG $+3
$SG177916 DB	'console.c', 00H
	ORG $+6
$SG177917 DB	'%s(%d) : warning HHC90999W : *** Assertion Failed! *** f'
	DB	'unction: %s', 0aH, 00H
	ORG $+3
$SG177919 DB	'finish_console_close', 00H
	ORG $+3
$SG177920 DB	'console.c', 00H
	ORG $+6
$SG177921 DB	'%s(%d) : warning HHC90999W : *** Assertion Failed! *** f'
	DB	'unction: %s', 0aH, 00H
	ORG $+3
$SG177924 DB	'console.c:795', 00H
	ORG $+2
$SG177925 DB	'console.c:797', 00H
	ORG $+2
$SG177926 DB	'console.c:799', 00H
	ORG $+2
?badmask@?BA@??loc3270_init_handler@@9@9 DQ FLAT:$SG178000 ; `loc3270_init_handler'::`16'::badmask
$SG177965 DB	'SYSG', 00H
	ORG $+3
$SG177968 DB	'HHC01025%s %1d:%04X COMM: duplicate SYSG console definit'
	DB	'ion', 0aH, 00H
	ORG $+3
$SG177969 DB	'loc3270_init_handler', 00H
	ORG $+3
$SG177970 DB	'console.c', 00H
	ORG $+6
$SG177980 DB	'HHC01091%s %1d:%04X COMM: %s has an invalid GROUP name l'
	DB	'ength or format; must be a valid luname or poolname', 0aH, 00H
	ORG $+3
$SG177981 DB	'loc3270_init_handler', 00H
	ORG $+3
$SG177982 DB	'console.c', 00H
	ORG $+6
$SG177988 DB	'loc3270_init_handler', 00H
	ORG $+3
$SG177987 DB	'HHC01091%s %1d:%04X COMM: %s has an invalid GROUP name l'
	DB	'ength or format; must be a valid luname or poolname', 0aH, 00H
	ORG $+3
$SG177989 DB	'console.c', 00H
	ORG $+2
$SG178772 DB	'W', 00H
	ORG $+2
$SG177993 DB	'IP address', 00H
	ORG $+1
$SG178788 DB	'W', 00H
	ORG $+2
$SG177995 DB	'HHC01007%s %1d:%04X COMM: option %s value %s invalid', 0aH
	DB	00H
	ORG $+2
$SG177996 DB	'loc3270_init_handler', 00H
	ORG $+3
$SG177997 DB	'console.c', 00H
	ORG $+2
$SG178003 DB	'mask', 00H
	ORG $+3
$SG178325 DB	'right', 00H
	ORG $+2
$SG178794 DB	'E', 00H
	ORG $+2
$SG178005 DB	'HHC01007%s %1d:%04X COMM: option %s value %s invalid', 0aH
	DB	00H
	ORG $+2
$SG178006 DB	'loc3270_init_handler', 00H
	ORG $+3
$SG178007 DB	'console.c', 00H
	ORG $+2
$SG178813 DB	'W', 00H
	ORG $+2
$SG178010 DB	'HHC01019%s %1d:%04X COMM: unrecognized parameter %s', 0aH
	DB	00H
	ORG $+3
$SG178011 DB	'loc3270_init_handler', 00H
	ORG $+3
$SG178012 DB	'console.c', 00H
	ORG $+2
$SG178014 DB	'SYSG', 00H
	ORG $+3
$SG178759 DB	'%hx%c', 00H
	ORG $+2
$SG178820 DB	'E', 00H
	ORG $+2
?badmask@?8??constty_init_handler@@9@9 DQ FLAT:$SG178049 ; `constty_init_handler'::`9'::badmask
$SG178033 DB	'noprompt', 00H
	ORG $+3
$SG178828 DB	'E', 00H
	ORG $+2
$SG178042 DB	'IP address', 00H
	ORG $+1
$SG178846 DB	'I', 00H
	ORG $+2
$SG178044 DB	'HHC01007%s %1d:%04X COMM: option %s value %s invalid', 0aH
	DB	00H
	ORG $+2
$SG178045 DB	'constty_init_handler', 00H
	ORG $+3
$SG178046 DB	'console.c', 00H
	ORG $+2
$SG178052 DB	'mask', 00H
	ORG $+3
$SG178850 DB	'D', 00H
	ORG $+2
$SG178054 DB	'HHC01007%s %1d:%04X COMM: option %s value %s invalid', 0aH
	DB	00H
	ORG $+2
$SG178055 DB	'constty_init_handler', 00H
	ORG $+3
$SG178056 DB	'console.c', 00H
	ORG $+2
$SG178857 DB	'I', 00H
	ORG $+2
$SG178059 DB	'HHC01019%s %1d:%04X COMM: unrecognized parameter %s', 0aH
	DB	00H
	ORG $+3
$SG178060 DB	'constty_init_handler', 00H
	ORG $+3
$SG178061 DB	'console.c', 00H
	ORG $+2
$SG178887 DB	'D', 00H
	ORG $+2
$SG178090 DB	'HHC00152%s Out of memory', 0aH, 00H
	ORG $+2
$SG178894 DB	'I', 00H
	ORG $+2
$SG178091 DB	'parse_sockspec', 00H
	ORG $+1
$SG178092 DB	'console.c', 00H
	ORG $+2
$SG178985 DB	'I', 00H
	ORG $+2
$SG178098 DB	'IP address', 00H
	ORG $+1
$SG178992 DB	'I', 00H
	ORG $+2
$SG178100 DB	'HHC01016%s COMM: unable to determine %s from %s', 0aH, 00H
	ORG $+3
$SG178999 DB	'MP=%d', 00H
	ORG $+2
$SG179002 DB	'UP', 00H
	ORG $+1
$SG178101 DB	'parse_sockspec', 00H
	ORG $+1
$SG178102 DB	'console.c', 00H
	ORG $+2
$SG179004 DB	'I', 00H
	ORG $+2
$SG178107 DB	'port number', 00H
$SG179007 DB	'D', 00H
	ORG $+2
$SG178109 DB	'HHC01016%s COMM: unable to determine %s from %s', 0aH, 00H
	ORG $+3
$SG179015 DB	'E', 00H
	ORG $+2
$SG178110 DB	'parse_sockspec', 00H
	ORG $+1
$SG178111 DB	'console.c', 00H
	ORG $+2
$SG179019 DB	'E', 00H
	ORG $+2
$SG178280 DB	'LOGIC ERROR!', 00H
	ORG $+3
$SG178289 DB	'@sba', 00H
	ORG $+3
$SG178296 DB	'missing @sba ..,X value', 00H
$SG178297 DB	'missing @sba Y,X values', 00H
$SG178309 DB	'unrecognized @sf value: %c', 00H
	ORG $+1
$SG178319 DB	'none', 00H
	ORG $+3
$SG178322 DB	'left', 00H
	ORG $+3
$SG179047 DB	'I', 00H
	ORG $+2
$SG178329 DB	'unrecognized @align value: %s', 00H
	ORG $+2
$SG178330 DB	'unrecognized order: %s', 00H
	ORG $+1
$SG178332 DB	'out of memory', 00H
	ORG $+2
$SG178438 DB	'console.c:1932', 00H
	ORG $+1
$SG178443 DB	'constty_redrive_pselect', 00H
sba_code DB	'@', 0c1H, 0c2H, 0c3H, 0c4H, 0c5H, 0c6H, 0c7H, 0c8H, 0c9H
	DB	'JKLMNOP', 0d1H, 0d2H, 0d3H, 0d4H, 0d5H, 0d6H, 0d7H, 0d8H, 0d9H
	DB	'Z[\]^_`a', 0e2H, 0e3H, 0e4H, 0e5H, 0e6H, 0e7H, 0e8H, 0e9H, 'j'
	DB	'klmno', 0f0H, 0f1H, 0f2H, 0f3H, 0f4H, 0f5H, 0f6H, 0f7H, 0f8H, 0f9H
	DB	'z{|}~', 07fH, 00H
	ORG $+3
$SG179060 DB	'E', 00H
	ORG $+2
$SG178413 DB	'HERCLOGO', 00H
	ORG $+3
$SG179065 DB	'E', 00H
	ORG $+2
$SG178414 DB	'herclogo.txt', 00H
	ORG $+3
$SG178440 DB	'console.c:1932', 00H
	ORG $+1
$SG178444 DB	'console.c', 00H
	ORG $+6
$SG178447 DB	'constty_redrive_pselect', 00H
$SG178445 DB	'%s(%d) : warning HHC90999W : *** Assertion Failed! *** f'
	DB	'unction: %s', 0aH, 00H
	ORG $+3
$SG178448 DB	'console.c', 00H
	ORG $+6
$SG178469 DB	'console.c:1938', 00H
	ORG $+1
$SG178474 DB	'loc3270_redrive_pselect', 00H
$SG178449 DB	'%s(%d) : warning HHC90999W : *** Assertion Failed! *** f'
	DB	'unction: %s', 0aH, 00H
	ORG $+3
$SG178471 DB	'console.c:1938', 00H
	ORG $+1
$SG178475 DB	'console.c', 00H
	ORG $+6
$SG178478 DB	'loc3270_redrive_pselect', 00H
$SG178476 DB	'%s(%d) : warning HHC90999W : *** Assertion Failed! *** f'
	DB	'unction: %s', 0aH, 00H
	ORG $+3
$SG178479 DB	'console.c', 00H
	ORG $+6
$SG178524 DB	'console.c:1974', 00H
	ORG $+1
$SG178601 DB	'HHC01000%s %1d:%04X COMM: error in function %s: %s', 0aH
	DB	00H
	ORG $+4
$SG178480 DB	'%s(%d) : warning HHC90999W : *** Assertion Failed! *** f'
	DB	'unction: %s', 0aH, 00H
	ORG $+3
$SG178527 DB	'console.c:1990', 00H
	ORG $+1
$SG178599 DB	'malloc(%d)', 00H
	ORG $+1
$SG179067 DB	'I', 00H
	ORG $+2
$SG178602 DB	'loc3270_hresume', 00H
$SG178603 DB	'console.c', 00H
	ORG $+2
$SG179069 DB	'%s', 0aH, 00H
$SG178607 DB	'console.c:2053', 00H
	ORG $+1
$SG178608 DB	'console.c:2054', 00H
	ORG $+1
$SG178609 DB	'console.c:2055', 00H
	ORG $+1
$SG178611 DB	'console.c:2064', 00H
	ORG $+1
$SG178612 DB	'console.c:2083', 00H
	ORG $+1
$SG178642 DB	' noprompt', 00H
	ORG $+2
$SG179080 DB	'I', 00H
	ORG $+2
$SG178643 DB	'%s%s IO[%llu]', 00H
	ORG $+2
$SG178649 DB	'%s mask %s', 00H
	ORG $+1
$SG179082 DB	'%s', 0aH, 00H
$SG178654 DB	' noprompt', 00H
	ORG $+2
$SG179094 DB	'CUU', 00H
$SG178656 DB	'GROUP=%s%s%s%s IO[%llu]', 00H
$SG178661 DB	'noprompt %s IO[%llu]', 00H
	ORG $+3
$SG178662 DB	'* %s', 00H
	ORG $+3
$SG178665 DB	'noprompt IO[%llu]', 00H
	ORG $+2
$SG179097 DB	'%d', 00H
	ORG $+1
$SG178666 DB	'IO[%llu]', 00H
	ORG $+3
$SG179090 DB	'%4.4X', 00H
	ORG $+2
$SG179098 DB	'CSS', 00H
$SG178694 DB	'%s IO[%llu]', 00H
$SG179133 DB	'D', 00H
	ORG $+2
$SG178700 DB	'%s mask %s', 00H
	ORG $+1
$SG179177 DB	'E', 00H
	ORG $+2
$SG178705 DB	'GROUP=%s%s%s IO[%llu]', 00H
	ORG $+2
$SG178708 DB	'* %s IO[%llu]', 00H
	ORG $+2
$SG178709 DB	'* IO[%llu]', 00H
	ORG $+1
$SG178762 DB	'IBM-', 00H
	ORG $+7
tttab	DQ	FLAT:$SG178716
	DB	058H
	DB	01H
	ORG $+6
	DQ	FLAT:$SG178717
	DB	032H
	DB	00H
	ORG $+6
	DQ	FLAT:$SG178718
	DB	035H
	DB	00H
	ORG $+6
	DQ	FLAT:$SG178719
	DB	032H
	DB	00H
	ORG $+6
	DQ	FLAT:$SG178720
	DB	032H
	DB	00H
	ORG $+6
	DQ	FLAT:$SG178721
	DB	033H
	DB	00H
	ORG $+6
	DQ	FLAT:$SG178722
	DB	034H
	DB	00H
	ORG $+6
	DQ	FLAT:$SG178723
	DB	035H
	DB	00H
	ORG $+6
	DQ	FLAT:$SG178724
	DB	032H
	DB	01H
	ORG $+6
	DQ	FLAT:$SG178725
	DB	033H
	DB	01H
	ORG $+6
	DQ	FLAT:$SG178726
	DB	034H
	DB	01H
	ORG $+6
	DQ	FLAT:$SG178727
	DB	035H
	DB	01H
	ORG $+6
	DQ	FLAT:$SG178728
	DB	032H
	DB	00H
	ORG $+6
	DQ	FLAT:$SG178729
	DB	033H
	DB	00H
	ORG $+6
	DQ	FLAT:$SG178730
	DB	034H
	DB	00H
	ORG $+6
	DQ	FLAT:$SG178731
	DB	035H
	DB	00H
	ORG $+6
	DQ	FLAT:$SG178732
	DB	032H
	DB	01H
	ORG $+6
	DQ	FLAT:$SG178733
	DB	033H
	DB	01H
	ORG $+6
	DQ	FLAT:$SG178734
	DB	034H
	DB	01H
	ORG $+6
	DQ	FLAT:$SG178735
	DB	035H
	DB	01H
	ORG $+6
$SG178765 DB	'IBM-3287-1', 00H
	ORG $+1
$SG179183 DB	'E', 00H
	ORG $+2
$SG178769 DB	'HHC02916%s %s COMM: No acceptable terminal types', 0aH, 00H
	ORG $+2
$SG179135 DB	'calcto', 00H
	ORG $+1
$SG179189 DB	'E', 00H
	ORG $+2
$SG178770 DB	'negotiate_ttype', 00H
$SG178771 DB	'console.c', 00H
	ORG $+2
$SG179195 DB	'W', 00H
	ORG $+2
$SG178773 DB	'HHC02910%s %s COMM: Unsupported terminal type: %s', 0aH, 00H
	ORG $+1
$SG179202 DB	'E', 00H
	ORG $+2
$SG178774 DB	'negotiate_ttype', 00H
$SG178775 DB	'console.c', 00H
	ORG $+2
$SG179201 DB	'bind()', 00H
	ORG $+1
$SG179208 DB	'E', 00H
	ORG $+2
$SG178789 DB	'HHC02911%s %s COMM: Discarding premature data', 0aH, 00H
	ORG $+1
$SG178790 DB	'loc3270_input', 00H
	ORG $+2
$SG178791 DB	'console.c', 00H
	ORG $+2
$SG179212 DB	'I', 00H
	ORG $+2
$SG178793 DB	'%1d:%04X', 00H
	ORG $+3
$SG179093 DB	'%3.3X', 00H
	ORG $+2
?issue_errmsg@?BM@??console_connection_handler@@9@9 DD 01H ; `console_connection_handler'::`28'::issue_errmsg
$SG178795 DB	'HHC02912%s %s COMM: Buffer overflow', 0aH, 00H
	ORG $+3
$SG178796 DB	'loc3270_input', 00H
	ORG $+2
$SG178797 DB	'console.c', 00H
	ORG $+2
?issue_errmsg@?CD@??console_connection_handler@@9@9 DD 01H ; `console_connection_handler'::`35'::issue_errmsg
$SG178814 DB	'HHC02911%s %s COMM: Discarding premature data', 0aH, 00H
	ORG $+1
$SG178815 DB	'constty_input', 00H
	ORG $+2
$SG178816 DB	'console.c', 00H
	ORG $+2
$SG179332 DB	'I', 00H
	ORG $+2
$SG178819 DB	'%1d:%04X', 00H
	ORG $+3
$SG179095 DB	'%4.4X', 00H
	ORG $+2
$SG179396 DB	'D', 00H
	ORG $+2
$SG178821 DB	'HHC02912%s %s COMM: Buffer overflow', 0aH, 00H
	ORG $+3
$SG178822 DB	'constty_input', 00H
	ORG $+2
$SG178823 DB	'console.c', 00H
	ORG $+2
$SG179411 DB	'D', 00H
	ORG $+2
$SG178827 DB	'%1d:%04X', 00H
	ORG $+3
$SG179340 DB	'SYSG ', 00H
	ORG $+2
$SG179417 DB	'E', 00H
	ORG $+2
$SG178829 DB	'HHC02913%s %s COMM: Buffer overrun', 0aH, 00H
$SG179424 DB	'E', 00H
	ORG $+2
$SG178830 DB	'constty_input', 00H
	ORG $+2
$SG178831 DB	'console.c', 00H
	ORG $+6
$SG178847 DB	'HHC01090%s %1d:%04X COMM: client %s devtype %4.4X: conne'
	DB	'ction reset', 0aH, 00H
	ORG $+3
$SG178848 DB	'recv_3270_data', 00H
	ORG $+1
$SG178849 DB	'console.c', 00H
	ORG $+2
$SG179431 DB	'E', 00H
	ORG $+2
$SG178851 DB	'HHC90507%s %s COMM: recv() failed: %s', 0aH, 00H
	ORG $+1
$SG178852 DB	'recv_3270_data', 00H
	ORG $+1
$SG178853 DB	'console.c', 00H
	ORG $+6
$SG178858 DB	'HHC01022%s %1d:%04X COMM: client %s devtype %4.4X: conne'
	DB	'ction closed by client', 0aH, 00H
$SG178859 DB	'recv_3270_data', 00H
	ORG $+1
$SG178860 DB	'console.c', 00H
	ORG $+2
$SG179468 DB	'I', 00H
	ORG $+2
$SG178888 DB	'HHC90507%s %s COMM: recv() failed: %s', 0aH, 00H
	ORG $+1
$SG178889 DB	'recv_1052_data', 00H
	ORG $+1
$SG178890 DB	'console.c', 00H
	ORG $+6
$SG178896 DB	'recv_1052_data', 00H
	ORG $+1
$SG178991 DB	'4.6.0.10893-SDL-DEV-g5b56a850-modified', 00H
	ORG $+1
$SG178895 DB	'HHC01022%s %1d:%04X COMM: client %s devtype %4.4X: conne'
	DB	'ction closed by client', 0aH, 00H
$SG178897 DB	'console.c', 00H
	ORG $+2
?bell@?BG@??constty_execute_ccw@@9@9 DB 07H		; `constty_execute_ccw'::`22'::bell
	DB	00H
	ORG $+2
$SG178986 DB	'HHC02915%s %s COMM: Connection received', 0aH, 00H
	ORG $+3
$SG179349 DB	'SYSG ', 00H
	ORG $+2
$SG179697 DB	'A', 00H
	ORG $+2
$SG178987 DB	'connect_client', 00H
	ORG $+1
$SG178988 DB	'console.c', 00H
	ORG $+2
$SG179768 DB	'DEVBLK', 00H
	ORG $+5
$SG178989 DB	'19:16:33', 00H
	ORG $+7
$SG178990 DB	'Feb  6 2023', 00H
	ORG $+4
$SG178993 DB	'HHC01027%s Hercules version %s, built on %s %s', 00H
	ORG $+1
$SG178996 DB	'LP=%d, Cores=%d, CPUs=%d', 00H
	ORG $+7
$SG179005 DB	'HHC01031%s Running on %s (%s-%s.%s %s %s)', 00H
	ORG $+6
$SG179008 DB	'HHC90510%s %s COMM: setsockopt() failed: %s', 0aH, 00H
	ORG $+3
$SG179009 DB	'connect_client', 00H
	ORG $+1
$SG179010 DB	'console.c', 00H
	ORG $+6
$SG179016 DB	'HHC02908%s %s COMM: Connection closed during negotiation'
	DB	's', 0aH, 00H
	ORG $+5
$SG179017 DB	'connect_client', 00H
	ORG $+1
$SG179018 DB	'console.c', 00H
	ORG $+6
$SG179020 DB	'HHC02909%s %s COMM: Recv() error during negotiations: %s'
	DB	0aH, 00H
	ORG $+6
$SG179021 DB	'connect_client', 00H
	ORG $+1
$SG179022 DB	'console.c', 00H
	ORG $+6
$SG179040 DB	'console.c:3048', 00H
	ORG $+1
$SG179042 DB	'console.c:3054', 00H
	ORG $+1
$SG179044 DB	'console.c:3061', 00H
	ORG $+1
$SG179046 DB	'%1d:%04X', 00H
	ORG $+7
$SG179048 DB	'HHC02914%s %s COMM: %s negotiations complete; ttype = '''
	DB	'%s''', 0aH, 00H
	ORG $+4
$SG179049 DB	'connect_client', 00H
	ORG $+1
$SG179050 DB	'console.c', 00H
	ORG $+6
$SG179051 DB	'console.c:3097', 00H
	ORG $+1
$SG179057 DB	'3270', 00H
	ORG $+3
$SG179058 DB	'3287', 00H
	ORG $+3
$SG179059 DB	'1052 or 3215', 00H
	ORG $+3
$SG179061 DB	'HHC01028%s Connection rejected, no available %s device', 00H
	ORG $+1
$SG179062 DB	'3270', 00H
	ORG $+3
$SG179063 DB	'3287', 00H
	ORG $+3
$SG179064 DB	'1052 or 3215', 00H
	ORG $+3
$SG179068 DB	'HHC01030%s Connection rejected, device %04X unavailable', 00H
$SG179066 DB	'HHC01029%s Connection rejected, no available %s device i'
	DB	'n the %s group', 00H
	ORG $+1
$SG179070 DB	'connect_client', 00H
	ORG $+1
$SG179071 DB	'console.c', 00H
	ORG $+6
$SG179074 DB	0f5H, '@', 011H, '@@', 01dH, '`%s', 011H, 0c1H, 'P', 01dH
	DB	'`%s', 011H, 0c2H, '`', 01dH, '`%s', 00H
$SG179076 DB	'%s', 0aH, '%s', 0aH, '%s', 0aH, 00H
	ORG $+6
$SG179081 DB	'HHC01018%s %1d:%04X COMM: client %s devtype %4.4X: conne'
	DB	'cted', 00H
	ORG $+3
$SG179083 DB	'connect_client', 00H
	ORG $+1
$SG179084 DB	'console.c', 00H
	ORG $+2
$SG179089 DB	'SYSG', 00H
	ORG $+3
$SG179091 DB	'DEVN', 00H
	ORG $+3
$SG179092 DB	'CCUU', 00H
	ORG $+7
$SG179096 DB	'SUBCHAN', 00H
$SG179102 DB	'%s', 0aH, '%s', 0aH, '%s', 0aH, 00H
	ORG $+6
$SG179106 DB	'console.c:3259', 00H
	ORG $+1
$SG179108 DB	'console.c:3259', 00H
	ORG $+1
$SG179111 DB	'connect_client', 00H
	ORG $+1
$SG179112 DB	'console.c', 00H
	ORG $+6
$SG179113 DB	'%s(%d) : warning HHC90999W : *** Assertion Failed! *** f'
	DB	'unction: %s', 0aH, 00H
	ORG $+3
$SG179115 DB	'connect_client', 00H
	ORG $+1
$SG179116 DB	'console.c', 00H
	ORG $+6
$SG179131 DB	'slow to FAST', 00H
	ORG $+3
$SG179179 DB	'get_listening_socket', 00H
	ORG $+3
$SG179117 DB	'%s(%d) : warning HHC90999W : *** Assertion Failed! *** f'
	DB	'unction: %s', 0aH, 00H
	ORG $+3
$SG179132 DB	'FAST to slow', 00H
	ORG $+3
$SG179134 DB	'HHC02917%s COMM: Switching from %s polling', 0aH, 00H
	ORG $+4
$SG179136 DB	'console.c', 00H
	ORG $+6
$SG179176 DB	'socket()', 00H
	ORG $+7
$SG179178 DB	'HHC01034%s COMM: error in function %s: %s', 0aH, 00H
	ORG $+5
$SG179180 DB	'console.c', 00H
	ORG $+6
$SG179182 DB	'setsockopt()', 00H
	ORG $+3
$SG179184 DB	'HHC01034%s COMM: error in function %s: %s', 0aH, 00H
	ORG $+5
$SG179185 DB	'get_listening_socket', 00H
	ORG $+3
$SG179186 DB	'console.c', 00H
	ORG $+6
$SG179188 DB	'%s = %s', 00H
$SG179190 DB	'HHC01017%s COMM: invalid parameter %s', 0aH, 00H
	ORG $+1
$SG179191 DB	'get_listening_socket', 00H
	ORG $+3
$SG179192 DB	'console.c', 00H
	ORG $+6
$SG179197 DB	'get_listening_socket', 00H
	ORG $+3
$SG179196 DB	'HHC01023%s Waiting for port %u to become free for consol'
	DB	'e connections', 0aH, 00H
	ORG $+1
$SG179198 DB	'console.c', 00H
	ORG $+6
$SG179203 DB	'HHC01034%s COMM: error in function %s: %s', 0aH, 00H
	ORG $+5
$SG179204 DB	'get_listening_socket', 00H
	ORG $+3
$SG179205 DB	'console.c', 00H
	ORG $+6
$SG179207 DB	'listen()', 00H
	ORG $+7
$SG179209 DB	'HHC01034%s COMM: error in function %s: %s', 0aH, 00H
	ORG $+5
$SG179210 DB	'get_listening_socket', 00H
	ORG $+3
$SG179211 DB	'console.c', 00H
	ORG $+6
$SG179213 DB	'HHC01024%s Waiting for %sconsole connections on port %u', 0aH
	DB	00H
	ORG $+7
$SG179214 DB	'get_listening_socket', 00H
	ORG $+3
$SG179215 DB	'console.c', 00H
	ORG $+6
$SG179329 DB	'console.c:3409', 00H
	ORG $+1
$SG179330 DB	'console_connect', 00H
$SG179331 DB	'console.c:3412', 00H
	ORG $+1
$SG179333 DB	'HHC00100%s Thread id %8.8x, prio %d, name ''%s'' started'
	DB	0aH, 00H
$SG179334 DB	'console_connection_handler', 00H
	ORG $+5
$SG179335 DB	'console.c', 00H
	ORG $+6
$SG179338 DB	'CNSLPORT', 00H
	ORG $+7
$SG179341 DB	'SYSGPORT', 00H
	ORG $+7
$SG179344 DB	'CNSLPORT', 00H
	ORG $+7
$SG179350 DB	'SYSGPORT', 00H
	ORG $+7
$SG179355 DB	'console.c:3500', 00H
	ORG $+1
$SG179357 DB	'console.c:3521', 00H
	ORG $+1
$SG179360 DB	'console_connection_handler', 00H
	ORG $+5
$SG179361 DB	'console.c', 00H
	ORG $+6
$SG179364 DB	'console_connection_handler', 00H
	ORG $+5
$SG179371 DB	'console.c:3544', 00H
	ORG $+1
$SG179397 DB	'HHC90508%s COMM: pselect() failed: %s', 0aH, 00H
	ORG $+1
$SG179362 DB	'%s(%d) : warning HHC90999W : *** Assertion Failed! *** f'
	DB	'unction: %s', 0aH, 00H
	ORG $+3
$SG179365 DB	'console.c', 00H
	ORG $+6
$SG179375 DB	'console.c:3584', 00H
	ORG $+1
$SG179412 DB	'HHC90509%s COMM: accept() failed: %s', 0aH, 00H
	ORG $+2
$SG179366 DB	'%s(%d) : warning HHC90999W : *** Assertion Failed! *** f'
	DB	'unction: %s', 0aH, 00H
	ORG $+3
$SG179374 DB	'console.c', 00H
	ORG $+6
$SG179377 DB	'console.c:3584', 00H
	ORG $+1
$SG179380 DB	'console_connection_handler', 00H
	ORG $+5
$SG179381 DB	'console.c', 00H
	ORG $+6
$SG179384 DB	'console_connection_handler', 00H
	ORG $+5
$SG179428 DB	'console.c:3734', 00H
	ORG $+1
$SG179432 DB	'HHC00102%s Error in function create_thread(): %s', 0aH, 00H
	ORG $+6
$SG179382 DB	'%s(%d) : warning HHC90999W : *** Assertion Failed! *** f'
	DB	'unction: %s', 0aH, 00H
	ORG $+3
$SG179385 DB	'console.c', 00H
	ORG $+6
$SG179398 DB	'console_connection_handler', 00H
	ORG $+5
$SG179429 DB	'connect_client', 00H
	ORG $+1
$SG179466 DB	'console_connect', 00H
$SG179469 DB	'HHC00101%s Thread id %8.8x, prio %d, name ''%s'' ended', 0aH
	DB	00H
	ORG $+2
$SG179386 DB	'%s(%d) : warning HHC90999W : *** Assertion Failed! *** f'
	DB	'unction: %s', 0aH, 00H
	ORG $+3
$SG179399 DB	'console.c', 00H
	ORG $+6
$SG179413 DB	'console_connection_handler', 00H
	ORG $+5
$SG179414 DB	'console.c', 00H
	ORG $+6
$SG179418 DB	'HHC00152%s Out of memory', 0aH, 00H
	ORG $+6
$SG179419 DB	'console_connection_handler', 00H
	ORG $+5
$SG179420 DB	'console.c', 00H
	ORG $+6
$SG179421 DB	'client %u', 00H
	ORG $+6
$SG179425 DB	'HHC00152%s Out of memory', 0aH, 00H
	ORG $+6
$SG179426 DB	'console_connection_handler', 00H
	ORG $+5
$SG179427 DB	'console.c', 00H
	ORG $+6
$SG179433 DB	'console_connection_handler', 00H
	ORG $+5
$SG179434 DB	'console.c', 00H
	ORG $+6
$SG179438 DB	'console.c:3773', 00H
	ORG $+1
$SG179440 DB	'console.c:3794', 00H
	ORG $+1
$SG179444 DB	'console.c:3811', 00H
	ORG $+1
$SG179450 DB	'console.c:3855', 00H
	ORG $+1
$SG179451 DB	'console.c:3860', 00H
	ORG $+1
$SG179458 DB	'console.c:3912', 00H
	ORG $+1
$SG179460 DB	'console.c:3933', 00H
	ORG $+1
$SG179462 DB	'console.c:3945', 00H
	ORG $+1
$SG179467 DB	'console.c:3967', 00H
	ORG $+1
$SG179470 DB	'console_connection_handler', 00H
	ORG $+5
$SG179471 DB	'console.c', 00H
	ORG $+6
$SG179562 DB	'console.c:4187', 00H
	ORG $+1
$SG179567 DB	'console.c:4204', 00H
	ORG $+1
$SG179574 DB	'console.c:4271', 00H
	ORG $+1
$SG179575 DB	'console.c:4274', 00H
	ORG $+1
$SG179577 DB	'console.c:4274', 00H
	ORG $+1
$SG179580 DB	'loc3270_execute_ccw', 00H
	ORG $+4
$SG179581 DB	'console.c', 00H
	ORG $+6
$SG179582 DB	'%s(%d) : warning HHC90999W : *** Assertion Failed! *** f'
	DB	'unction: %s', 0aH, 00H
	ORG $+3
$SG179584 DB	'loc3270_execute_ccw', 00H
	ORG $+4
$SG179585 DB	'console.c', 00H
	ORG $+6
$SG179586 DB	'%s(%d) : warning HHC90999W : *** Assertion Failed! *** f'
	DB	'unction: %s', 0aH, 00H
	ORG $+3
$SG179589 DB	'console.c:4283', 00H
	ORG $+1
$SG179594 DB	'console.c:4306', 00H
	ORG $+1
$SG179601 DB	'console.c:4372', 00H
	ORG $+1
$SG179602 DB	'console.c:4375', 00H
	ORG $+1
$SG179604 DB	'console.c:4375', 00H
	ORG $+1
$SG179607 DB	'loc3270_execute_ccw', 00H
	ORG $+4
$SG179608 DB	'console.c', 00H
	ORG $+6
$SG179609 DB	'%s(%d) : warning HHC90999W : *** Assertion Failed! *** f'
	DB	'unction: %s', 0aH, 00H
	ORG $+3
$SG179611 DB	'loc3270_execute_ccw', 00H
	ORG $+4
$SG179612 DB	'console.c', 00H
	ORG $+6
$SG179613 DB	'%s(%d) : warning HHC90999W : *** Assertion Failed! *** f'
	DB	'unction: %s', 0aH, 00H
	ORG $+3
$SG179682 DB	'constty_execute_ccw', 00H
	ORG $+4
$SG179683 DB	'console.c', 00H
	ORG $+6
$SG179684 DB	'%s(%d) : warning HHC90999W : *** Assertion Failed! *** f'
	DB	'unction: %s', 0aH, 00H
	ORG $+3
$SG179686 DB	'constty_execute_ccw', 00H
	ORG $+4
$SG179687 DB	'console.c', 00H
	ORG $+6
$SG179688 DB	'%s(%d) : warning HHC90999W : *** Assertion Failed! *** f'
	DB	'unction: %s', 0aH, 00H
	ORG $+3
$SG179698 DB	'HHC01026%s %1d:%04X COMM: enter console input', 0aH, 00H
	ORG $+1
$SG179770 DB	'SDL 4.2', 00H
constty_device_hndinfo DQ FLAT:constty_init_handler
	DQ	FLAT:constty_execute_ccw
	DQ	FLAT:constty_close_device
	DQ	FLAT:constty_query_device
	DQ	0000000000000000H
	DQ	0000000000000000H
	DQ	FLAT:constty_redrive_pselect
	DQ	0000000000000000H
	DQ	0000000000000000H
	DQ	FLAT:constty_halt_or_clear
	DQ	0000000000000000H
	DQ	0000000000000000H
	DQ	0000000000000000H
	DQ	0000000000000000H
	DQ	0000000000000000H
	DQ	0000000000000000H
	DQ	FLAT:constty_immed
	DQ	0000000000000000H
	DQ	0000000000000000H
	DQ	0000000000000000H
	DQ	0000000000000000H
	DQ	0000000000000000H
	DQ	0000000000000000H
	DQ	0000000000000000H
	DQ	0000000000000000H
$SG179771 DB	'SYSBLK', 00H
	ORG $+1
loc3270_device_hndinfo DQ FLAT:loc3270_init_handler
	DQ	FLAT:loc3270_execute_ccw
	DQ	FLAT:loc3270_close_device
	DQ	FLAT:loc3270_query_device
	DQ	0000000000000000H
	DQ	0000000000000000H
	DQ	FLAT:loc3270_redrive_pselect
	DQ	0000000000000000H
	DQ	0000000000000000H
	DQ	FLAT:loc3270_halt_or_clear
	DQ	0000000000000000H
	DQ	0000000000000000H
	DQ	0000000000000000H
	DQ	0000000000000000H
	DQ	0000000000000000H
	DQ	0000000000000000H
	DQ	FLAT:loc3270_immed
	DQ	0000000000000000H
	DQ	0000000000000000H
	DQ	0000000000000000H
	DQ	0000000000000000H
	DQ	0000000000000000H
	DQ	0000000000000000H
	DQ	FLAT:loc3270_hsuspend
	DQ	FLAT:loc3270_hresume
$SG179764 DB	'SDL 4.60', 00H
	ORG $+7
$SG179765 DB	'HERCULES', 00H
	ORG $+7
$SG179767 DB	'SDL 4.00', 00H
	ORG $+3
$SG179776 DB	'1052', 00H
	ORG $+3
$SG179777 DB	'3215', 00H
	ORG $+3
$SG179778 DB	'3270', 00H
	ORG $+3
$SG179779 DB	'3287', 00H
	ORG $+3
$SG179780 DB	'SYSG', 00H
_DATA	ENDS
voltbl	SEGMENT
_volmd	DD	0ffffffffH
	DDSymXIndex: 	FLAT:loc3270_execute_ccw
	DD	02cH
	DD	012e5H
_volmd	DD	0ffffffffH
	DDSymXIndex: 	FLAT:get_listening_socket
	DD	020H
	DD	04f6H
_volmd	DD	0ffffffffH
	DDSymXIndex: 	FLAT:connect_client
	DD	017H
	DD	013b3H
_volmd	DD	0ffffffffH
	DDSymXIndex: 	FLAT:recv_1052_data
	DD	016H
	DD	0457H
_volmd	DD	0ffffffffH
	DDSymXIndex: 	FLAT:recv_3270_data
	DD	01cH
	DD	04adH
_volmd	DD	0ffffffffH
	DDSymXIndex: 	FLAT:loc3270_query_device
	DD	025H
	DD	038fH
_volmd	DD	0ffffffffH
	DDSymXIndex: 	FLAT:constty_query_device
	DD	025H
	DD	04b3H
_volmd	DD	0ffffffffH
	DDSymXIndex: 	FLAT:loc3270_hresume
	DD	023H
	DD	0577H
_volmd	DD	0ffffffffH
	DDSymXIndex: 	FLAT:loc3270_hsuspend
	DD	023H
	DD	01c7H
_volmd	DD	0ffffffffH
	DDSymXIndex: 	FLAT:init_logo
	DD	013H
	DD	016bH
_volmd	DD	0ffffffffH
	DDSymXIndex: 	FLAT:build_logo
	DD	025H
	DD	07a0H
_volmd	DD	0ffffffffH
	DDSymXIndex: 	FLAT:constty_init_handler
	DD	020H
	DD	072cH
_volmd	DD	0ffffffffH
	DDSymXIndex: 	FLAT:loc3270_init_handler
	DD	020H
	DD	0adfH
_volmd	DD	0ffffffffH
	DDSymXIndex: 	FLAT:constty_input
	DD	020H
	DD	0422H
_volmd	DD	0ffffffffH
	DDSymXIndex: 	FLAT:loc3270_input
	DD	022H
	DD	0232H
_volmd	DD	0ffffffffH
	DDSymXIndex: 	FLAT:console_connection_handler
	DD	01cH
	DD	01292H
_volmd	DD	0ffffffffH
	DDSymXIndex: 	FLAT:sr_read_skip
	DD	01aH
	DD	0e0H
_volmd	DD	0ffffffffH
	DDSymXIndex: 	FLAT:sr_read_value
	DD	021H
	DD	023aH
_volmd	DD	0ffffffffH
	DDSymXIndex: 	FLAT:sr_read_hdr
	DD	01dH
	DD	0cbH
_volmd	DD	0ffffffffH
	DDSymXIndex: 	FLAT:sr_write_value
	DD	021H
	DD	0168H
_volmd	DD	0ffffffffH
	DDSymXIndex: 	FLAT:sr_write_hdr
	DD	01cH
	DD	0b5H
voltbl	ENDS
;	COMDAT xdata
xdata	SEGMENT
$unwind$fetch_dw_noswap DD 010901H
	DD	02209H
xdata	ENDS
;	COMDAT xdata
xdata	SEGMENT
$unwind$fetch_fw_noswap DD 010901H
	DD	02209H
xdata	ENDS
;	COMDAT xdata
xdata	SEGMENT
$unwind$fetch_hw_noswap DD 010901H
	DD	02209H
xdata	ENDS
xdata	SEGMENT
$unwind$DebuggerTrace DD 011801H
	DD	0a218H
$unwind$strupper DD 010e01H
	DD	0620eH
$unwind$sr_write_hdr DD 012119H
	DD	06212H
	DD	imagerel __GSHandlerCheck
	DD	028H
$unwind$sr_write_value DD 012619H
	DD	08217H
	DD	imagerel __GSHandlerCheck
	DD	030H
$unwind$sr_write_buf DD 011701H
	DD	08217H
$unwind$sr_read_hdr DD 012219H
	DD	06213H
	DD	imagerel __GSHandlerCheck
	DD	028H
$unwind$sr_read_value DD 012619H
	DD	0c217H
	DD	imagerel __GSHandlerCheck
	DD	058H
$unwind$sr_read_buf DD 011301H
	DD	08213H
$unwind$sr_read_skip DD 022219H
	DD	02b0110H
	DD	imagerel __GSHandlerCheck
	DD	0140H
$unwind$sr_write_error_ DD 010401H
	DD	0c204H
$unwind$sr_read_error_ DD 010401H
	DD	0c204H
$unwind$sr_value_error_ DD 010401H
	DD	08204H
$unwind$console_connection_handler DD 022419H
	DD	04270112H
	DD	imagerel __GSHandlerCheck
	DD	02120H
$unwind$solicit_3270_data DD 010d01H
	DD	0620dH
$unwind$loc3270_input DD 042a19H
	DD	0130118H
	DD	060107011H
	DD	imagerel __GSHandlerCheck
	DD	080H
$unwind$constty_input DD 022819H
	DD	0170116H
	DD	imagerel __GSHandlerCheck
	DD	0a8H
$unwind$negotiate_ttype DD 020c01H
	DD	011010cH
$unwind$telnet_ev_handler DD 021601H
	DD	0270116H
$unwind$sendto_client DD 011301H
	DD	06213H
$unwind$raise_device_attention DD 010d01H
	DD	0620dH
$unwind$finish_console_init DD 010901H
	DD	0a209H
$unwind$disconnect_telnet_client DD 010901H
	DD	04209H
$unwind$disconnect_console_device DD 010901H
	DD	04209H
$unwind$finish_console_close DD 010901H
	DD	06209H
$unwind$loc3270_close_device DD 010901H
	DD	04209H
$unwind$constty_close_device DD 010901H
	DD	04209H
$unwind$loc3270_init_handler DD 032819H
	DD	0200116H
	DD	0700fH
	DD	imagerel __GSHandlerCheck
	DD	0f0H
$unwind$constty_init_handler DD 032819H
	DD	0160116H
	DD	0700fH
	DD	imagerel __GSHandlerCheck
	DD	0a8H
$unwind$parse_sockspec DD 020c01H
	DD	011010cH
$unwind$next_3270_pos DD 011301H
	DD	02213H
$unwind$end_of_buf_pos DD 011201H
	DD	06212H
$unwind$pos_to_buff_offset DD 011201H
	DD	06212H
$unwind$buffer_addchar DD 011801H
	DD	06218H
$unwind$buffer_addstring DD 011801H
	DD	06218H
$unwind$buffer_addsba DD 011801H
	DD	06218H
$unwind$buffer_addsf DD 011801H
	DD	04218H
$unwind$build_logo DD 022d19H
	DD	027011bH
	DD	imagerel __GSHandlerCheck
	DD	0120H
$unwind$init_logo DD 031b19H
	DD	0700109H
	DD	07002H
	DD	imagerel __GSHandlerCheck
	DD	0370H
$unwind$constty_redrive_pselect DD 010901H
	DD	06209H
$unwind$loc3270_redrive_pselect DD 010901H
	DD	06209H
$unwind$constty_halt_or_clear DD 010901H
	DD	04209H
$unwind$loc3270_halt_or_clear DD 010901H
	DD	04209H
$unwind$loc3270_hsuspend DD 042b19H
	DD	020090119H
	DD	0600b700cH
	DD	imagerel __GSHandlerCheck
	DD	010030H
$unwind$loc3270_hresume DD 042b19H
	DD	0201f0119H
	DD	0600b700cH
	DD	imagerel __GSHandlerCheck
	DD	0100e0H
$unwind$constty_query_device DD 022d19H
	DD	043011bH
	DD	imagerel __GSHandlerCheck
	DD	0200H
$unwind$loc3270_query_device DD 022d19H
	DD	041011bH
	DD	imagerel __GSHandlerCheck
	DD	01f0H
$unwind$lookup_ttype DD 011301H
	DD	06213H
$unwind$recv_3270_data DD 022419H
	DD	020170112H
	DD	imagerel __GSHandlerCheck
	DD	0100a0H
$unwind$recv_1052_data DD 021e19H
	DD	029010cH
	DD	imagerel __GSHandlerCheck
	DD	0130H
$unwind$connect_client DD 031f19H
	DD	01be010dH
	DD	07006H
	DD	imagerel __GSHandlerCheck
	DD	0de0H
$unwind$calcto DD 010401H
	DD	0c204H
$unwind$consio DD 010401H
	DD	04204H
$unwind$consto DD 010401H
	DD	04204H
$unwind$get_listening_socket DD 022819H
	DD	01f0116H
	DD	imagerel __GSHandlerCheck
	DD	0e0H
$unwind$loc3270_execute_ccw DD 043419H
	DD	020190122H
	DD	060147015H
	DD	imagerel __GSHandlerCheck
	DD	0100b0H
$unwind$constty_execute_ccw DD 031901H
	DD	07015c219H
	DD	06014H
$unwind$hdl_check_depends_ep DD 010901H
	DD	06209H
$unwind$hdl_define_devtypes_ep DD 010901H
	DD	04209H
xdata	ENDS
;	COMDAT xdata
xdata	SEGMENT
$unwind$sscanf DD 011801H
	DD	06218H
xdata	ENDS
;	COMDAT xdata
xdata	SEGMENT
$unwind$_vsscanf_l DD 011801H
	DD	06218H
xdata	ENDS
;	COMDAT xdata
xdata	SEGMENT
$unwind$_vsnprintf_s DD 011801H
	DD	06218H
xdata	ENDS
;	COMDAT xdata
xdata	SEGMENT
$unwind$_vsnprintf_s_l DD 011801H
	DD	0a218H
xdata	ENDS
; Function compile flags: /Odtp
; File C:\papa\MyGit\hyperion-zvector\console.c
_TEXT	SEGMENT
defdev$ = 48
hdl_define_devtypes_ep PROC

; 4758 : HDL_DEVICE_SECTION

$LN3:
  00000	48 89 4c 24 08	 mov	 QWORD PTR [rsp+8], rcx
  00005	48 83 ec 28	 sub	 rsp, 40			; 00000028H

; 4759 : {
; 4760 :     HDL_DEVICE( 1052, constty_device_hndinfo );

  00009	48 8d 15 00 00
	00 00		 lea	 rdx, OFFSET FLAT:constty_device_hndinfo
  00010	48 8d 0d 00 00
	00 00		 lea	 rcx, OFFSET FLAT:$SG179776
  00017	ff 54 24 30	 call	 QWORD PTR defdev$[rsp]

; 4761 :     HDL_DEVICE( 3215, constty_device_hndinfo );

  0001b	48 8d 15 00 00
	00 00		 lea	 rdx, OFFSET FLAT:constty_device_hndinfo
  00022	48 8d 0d 00 00
	00 00		 lea	 rcx, OFFSET FLAT:$SG179777
  00029	ff 54 24 30	 call	 QWORD PTR defdev$[rsp]

; 4762 :     HDL_DEVICE( 3270, loc3270_device_hndinfo );

  0002d	48 8d 15 00 00
	00 00		 lea	 rdx, OFFSET FLAT:loc3270_device_hndinfo
  00034	48 8d 0d 00 00
	00 00		 lea	 rcx, OFFSET FLAT:$SG179778
  0003b	ff 54 24 30	 call	 QWORD PTR defdev$[rsp]

; 4763 :     HDL_DEVICE( 3287, loc3270_device_hndinfo );

  0003f	48 8d 15 00 00
	00 00		 lea	 rdx, OFFSET FLAT:loc3270_device_hndinfo
  00046	48 8d 0d 00 00
	00 00		 lea	 rcx, OFFSET FLAT:$SG179779
  0004d	ff 54 24 30	 call	 QWORD PTR defdev$[rsp]

; 4764 : 
; 4765 : #if defined(_FEATURE_INTEGRATED_3270_CONSOLE)
; 4766 :     HDL_DEVICE( SYSG, loc3270_device_hndinfo );

  00051	48 8d 15 00 00
	00 00		 lea	 rdx, OFFSET FLAT:loc3270_device_hndinfo
  00058	48 8d 0d 00 00
	00 00		 lea	 rcx, OFFSET FLAT:$SG179780
  0005f	ff 54 24 30	 call	 QWORD PTR defdev$[rsp]

; 4767 : #endif
; 4768 : 
; 4769 : }
; 4770 : END_DEVICE_SECTION

  00063	48 83 c4 28	 add	 rsp, 40			; 00000028H
  00067	c3		 ret	 0
hdl_define_devtypes_ep ENDP
_TEXT	ENDS
; Function compile flags: /Odtp
; File C:\papa\MyGit\hyperion-zvector\console.c
_TEXT	SEGMENT
depchk_rc$ = 32
depchk$ = 64
hdl_check_depends_ep PROC

; 4739 : HDL_DEPENDENCY_SECTION;

$LN15:
  00000	48 89 4c 24 08	 mov	 QWORD PTR [rsp+8], rcx
  00005	48 83 ec 38	 sub	 rsp, 56			; 00000038H
  00009	c7 44 24 20 00
	00 00 00	 mov	 DWORD PTR depchk_rc$[rsp], 0
$LN4@hdl_check_:

; 4740 : {
; 4741 :     HDL_DEPENDENCY( HERCULES );

  00011	41 b8 08 00 00
	00		 mov	 r8d, 8
  00017	48 8d 15 00 00
	00 00		 lea	 rdx, OFFSET FLAT:$SG179764
  0001e	48 8d 0d 00 00
	00 00		 lea	 rcx, OFFSET FLAT:$SG179765
  00025	ff 54 24 40	 call	 QWORD PTR depchk$[rsp]
  00029	85 c0		 test	 eax, eax
  0002b	74 08		 je	 SHORT $LN11@hdl_check_
  0002d	c7 44 24 20 01
	00 00 00	 mov	 DWORD PTR depchk_rc$[rsp], 1
$LN11@hdl_check_:
  00035	33 c0		 xor	 eax, eax
  00037	85 c0		 test	 eax, eax
  00039	75 d6		 jne	 SHORT $LN4@hdl_check_
$LN7@hdl_check_:

; 4742 :     HDL_DEPENDENCY( DEVBLK );

  0003b	41 b8 a0 1b 00
	00		 mov	 r8d, 7072		; 00001ba0H
  00041	48 8d 15 00 00
	00 00		 lea	 rdx, OFFSET FLAT:$SG179767
  00048	48 8d 0d 00 00
	00 00		 lea	 rcx, OFFSET FLAT:$SG179768
  0004f	ff 54 24 40	 call	 QWORD PTR depchk$[rsp]
  00053	85 c0		 test	 eax, eax
  00055	74 08		 je	 SHORT $LN12@hdl_check_
  00057	c7 44 24 20 01
	00 00 00	 mov	 DWORD PTR depchk_rc$[rsp], 1
$LN12@hdl_check_:
  0005f	33 c0		 xor	 eax, eax
  00061	85 c0		 test	 eax, eax
  00063	75 d6		 jne	 SHORT $LN7@hdl_check_
$LN10@hdl_check_:

; 4743 :     HDL_DEPENDENCY( SYSBLK );

  00065	41 b8 00 76 01
	00		 mov	 r8d, 95744		; 00017600H
  0006b	48 8d 15 00 00
	00 00		 lea	 rdx, OFFSET FLAT:$SG179770
  00072	48 8d 0d 00 00
	00 00		 lea	 rcx, OFFSET FLAT:$SG179771
  00079	ff 54 24 40	 call	 QWORD PTR depchk$[rsp]
  0007d	85 c0		 test	 eax, eax
  0007f	74 08		 je	 SHORT $LN13@hdl_check_
  00081	c7 44 24 20 01
	00 00 00	 mov	 DWORD PTR depchk_rc$[rsp], 1
$LN13@hdl_check_:
  00089	33 c0		 xor	 eax, eax
  0008b	85 c0		 test	 eax, eax
  0008d	75 d6		 jne	 SHORT $LN10@hdl_check_

; 4744 : }
; 4745 : END_DEPENDENCY_SECTION

  0008f	8b 44 24 20	 mov	 eax, DWORD PTR depchk_rc$[rsp]
  00093	48 83 c4 38	 add	 rsp, 56			; 00000038H
  00097	c3		 ret	 0
hdl_check_depends_ep ENDP
_TEXT	ENDS
; Function compile flags: /Odtp
; File C:\papa\MyGit\hyperion-zvector\console.c
_TEXT	SEGMENT
len$ = 48
_stat64$ = 52
num$ = 56
c$ = 60
tv78 = 64
bufsize$1 = 68
tv82 = 72
tv173 = 76
tv179 = 80
tv214 = 84
tv253 = 88
tv272 = 92
dev$ = 128
code$ = 136
flags$ = 144
chained$ = 152
count$ = 160
prevcode$ = 168
ccwseq$ = 176
iobuf$ = 184
more$ = 192
unitstat$ = 200
residual$ = 208
constty_execute_ccw PROC

; 4440 : {

  00000	44 88 4c 24 20	 mov	 BYTE PTR [rsp+32], r9b
  00005	44 88 44 24 18	 mov	 BYTE PTR [rsp+24], r8b
  0000a	88 54 24 10	 mov	 BYTE PTR [rsp+16], dl
  0000e	48 89 4c 24 08	 mov	 QWORD PTR [rsp+8], rcx
  00013	56		 push	 rsi
  00014	57		 push	 rdi
  00015	48 83 ec 68	 sub	 rsp, 104		; 00000068H
$LN4@constty_ex:

; 4441 : U32     len;                            /* Length of data            */
; 4442 : U32     num;                            /* Number of bytes to move   */
; 4443 : BYTE    c;                              /* Print character           */
; 4444 : BYTE    stat;                           /* Unit status               */
; 4445 : 
; 4446 :     UNREFERENCED( chained );

  00019	33 c0		 xor	 eax, eax
  0001b	85 c0		 test	 eax, eax
  0001d	75 fa		 jne	 SHORT $LN4@constty_ex
$LN7@constty_ex:

; 4447 :     UNREFERENCED( prevcode );

  0001f	33 c0		 xor	 eax, eax
  00021	85 c0		 test	 eax, eax
  00023	75 fa		 jne	 SHORT $LN7@constty_ex
$LN10@constty_ex:

; 4448 :     UNREFERENCED( ccwseq );

  00025	33 c0		 xor	 eax, eax
  00027	85 c0		 test	 eax, eax
  00029	75 fa		 jne	 SHORT $LN10@constty_ex

; 4449 : 
; 4450 :     /* Unit check with intervention required if no client connected */
; 4451 :     if (dev->connected == 0 && !IS_CCW_SENSE(code))

  0002b	48 8b 84 24 80
	00 00 00	 mov	 rax, QWORD PTR dev$[rsp]
  00033	8b 80 f8 05 00
	00		 mov	 eax, DWORD PTR [rax+1528]
  00039	c1 e8 05	 shr	 eax, 5
  0003c	83 e0 01	 and	 eax, 1
  0003f	85 c0		 test	 eax, eax
  00041	75 39		 jne	 SHORT $LN25@constty_ex
  00043	0f b6 84 24 88
	00 00 00	 movzx	 eax, BYTE PTR code$[rsp]
  0004b	83 e0 0f	 and	 eax, 15
  0004e	83 f8 04	 cmp	 eax, 4
  00051	74 29		 je	 SHORT $LN25@constty_ex

; 4452 :     {
; 4453 :         dev->sense[0] = SENSE_IR;

  00053	b8 01 00 00 00	 mov	 eax, 1
  00058	48 6b c0 00	 imul	 rax, rax, 0
  0005c	48 8b 8c 24 80
	00 00 00	 mov	 rcx, QWORD PTR dev$[rsp]
  00064	c6 84 01 64 03
	00 00 40	 mov	 BYTE PTR [rcx+rax+868], 64 ; 00000040H

; 4454 :         *unitstat = CSW_UC;

  0006c	48 8b 84 24 c8
	00 00 00	 mov	 rax, QWORD PTR unitstat$[rsp]
  00074	c6 00 02	 mov	 BYTE PTR [rax], 2

; 4455 :         return;

  00077	e9 a0 06 00 00	 jmp	 $LN1@constty_ex
$LN25@constty_ex:

; 4456 :     }
; 4457 : 
; 4458 :     /* Process depending on CCW opcode */
; 4459 :     switch (code) {

  0007c	0f b6 84 24 88
	00 00 00	 movzx	 eax, BYTE PTR code$[rsp]
  00084	89 44 24 40	 mov	 DWORD PTR tv78[rsp], eax
  00088	8b 44 24 40	 mov	 eax, DWORD PTR tv78[rsp]
  0008c	ff c8		 dec	 eax
  0008e	89 44 24 40	 mov	 DWORD PTR tv78[rsp], eax
  00092	81 7c 24 40 e3
	00 00 00	 cmp	 DWORD PTR tv78[rsp], 227 ; 000000e3H
  0009a	0f 87 58 06 00
	00		 ja	 $LN49@constty_ex
  000a0	48 63 44 24 40	 movsxd	 rax, DWORD PTR tv78[rsp]
  000a5	48 8d 0d 00 00
	00 00		 lea	 rcx, OFFSET FLAT:__ImageBase
  000ac	0f b6 84 01 00
	00 00 00	 movzx	 eax, BYTE PTR $LN63@constty_ex[rcx+rax]
  000b4	8b 84 81 00 00
	00 00		 mov	 eax, DWORD PTR $LN64@constty_ex[rcx+rax*4]
  000bb	48 03 c1	 add	 rax, rcx
  000be	ff e0		 jmp	 rax
$LN26@constty_ex:
$LN27@constty_ex:

; 4460 : 
; 4461 :     case 0x01:
; 4462 :     /*---------------------------------------------------------------*/
; 4463 :     /* WRITE, NO CARRIER RETURN                                      */
; 4464 :     /*---------------------------------------------------------------*/
; 4465 : 
; 4466 :     case 0x09:
; 4467 :     /*---------------------------------------------------------------*/
; 4468 :     /* WRITE, AUTO CARRIER RETURN                                    */
; 4469 :     /*---------------------------------------------------------------*/
; 4470 :     {
; 4471 :         /* PROGRAMMING NOTE: we use (dev->bufsize-2) to ensure we
; 4472 :            always have room to append a '\n' newline as well as a
; 4473 :            null byte to terminate the buffer. This is needed since
; 4474 :            sendto_client() always calls telnet_printf() for console
; 4475 :            tty devices to ensure that any CR and/or LF get properly
; 4476 :            translated by libtelnet before being sent to the client.
; 4477 :         */
; 4478 :         U32 bufsize = (U32)(dev->bufsize-2);   /* reserve extra room */

  000c0	48 8b 84 24 80
	00 00 00	 mov	 rax, QWORD PTR dev$[rsp]
  000c8	8b 80 d8 01 00
	00		 mov	 eax, DWORD PTR [rax+472]
  000ce	83 e8 02	 sub	 eax, 2
  000d1	89 44 24 44	 mov	 DWORD PTR bufsize$1[rsp], eax

; 4479 : 
; 4480 :         /* Calculate number of bytes to write and set residual count */
; 4481 :         num = (count < bufsize) ? count : bufsize;

  000d5	8b 44 24 44	 mov	 eax, DWORD PTR bufsize$1[rsp]
  000d9	39 84 24 a0 00
	00 00		 cmp	 DWORD PTR count$[rsp], eax
  000e0	73 0d		 jae	 SHORT $LN51@constty_ex
  000e2	8b 84 24 a0 00
	00 00		 mov	 eax, DWORD PTR count$[rsp]
  000e9	89 44 24 48	 mov	 DWORD PTR tv82[rsp], eax
  000ed	eb 08		 jmp	 SHORT $LN52@constty_ex
$LN51@constty_ex:
  000ef	8b 44 24 44	 mov	 eax, DWORD PTR bufsize$1[rsp]
  000f3	89 44 24 48	 mov	 DWORD PTR tv82[rsp], eax
$LN52@constty_ex:
  000f7	8b 44 24 48	 mov	 eax, DWORD PTR tv82[rsp]
  000fb	89 44 24 38	 mov	 DWORD PTR num$[rsp], eax

; 4482 :         *residual = count - num;

  000ff	8b 44 24 38	 mov	 eax, DWORD PTR num$[rsp]
  00103	8b 8c 24 a0 00
	00 00		 mov	 ecx, DWORD PTR count$[rsp]
  0010a	2b c8		 sub	 ecx, eax
  0010c	8b c1		 mov	 eax, ecx
  0010e	48 8b 8c 24 d0
	00 00 00	 mov	 rcx, QWORD PTR residual$[rsp]
  00116	89 01		 mov	 DWORD PTR [rcx], eax

; 4483 : 
; 4484 :         /* Translate data in channel buffer to ASCII */
; 4485 :         for (len = 0; len < num; len++)

  00118	c7 44 24 30 00
	00 00 00	 mov	 DWORD PTR len$[rsp], 0
  00120	eb 0a		 jmp	 SHORT $LN15@constty_ex
$LN13@constty_ex:
  00122	8b 44 24 30	 mov	 eax, DWORD PTR len$[rsp]
  00126	ff c0		 inc	 eax
  00128	89 44 24 30	 mov	 DWORD PTR len$[rsp], eax
$LN15@constty_ex:
  0012c	8b 44 24 38	 mov	 eax, DWORD PTR num$[rsp]
  00130	39 44 24 30	 cmp	 DWORD PTR len$[rsp], eax
  00134	73 30		 jae	 SHORT $LN14@constty_ex

; 4486 :         {
; 4487 :             c = guest_to_host( iobuf[len] );

  00136	8b 44 24 30	 mov	 eax, DWORD PTR len$[rsp]
  0013a	48 8b 8c 24 b8
	00 00 00	 mov	 rcx, QWORD PTR iobuf$[rsp]
  00142	0f b6 0c 01	 movzx	 ecx, BYTE PTR [rcx+rax]
  00146	ff 15 00 00 00
	00		 call	 QWORD PTR __imp_guest_to_host
  0014c	88 44 24 3c	 mov	 BYTE PTR c$[rsp], al

; 4488 :             /* Leave it up to guest OS to filter characters. */
; 4489 :             iobuf[len] = c;

  00150	8b 44 24 30	 mov	 eax, DWORD PTR len$[rsp]
  00154	48 8b 8c 24 b8
	00 00 00	 mov	 rcx, QWORD PTR iobuf$[rsp]
  0015c	0f b6 54 24 3c	 movzx	 edx, BYTE PTR c$[rsp]
  00161	88 14 01	 mov	 BYTE PTR [rcx+rax], dl

; 4490 :         } /* end for(len) */

  00164	eb bc		 jmp	 SHORT $LN13@constty_ex
$LN14@constty_ex:
$LN18@constty_ex:

; 4491 : 
; 4492 :         ASSERT(len == num);

  00166	8b 44 24 38	 mov	 eax, DWORD PTR num$[rsp]
  0016a	39 44 24 30	 cmp	 DWORD PTR len$[rsp], eax
  0016e	74 5c		 je	 SHORT $LN28@constty_ex
$LN21@constty_ex:
  00170	4c 8d 0d 00 00
	00 00		 lea	 r9, OFFSET FLAT:$SG179682
  00177	41 b8 8c 11 00
	00		 mov	 r8d, 4492		; 0000118cH
  0017d	48 8d 15 00 00
	00 00		 lea	 rdx, OFFSET FLAT:$SG179683
  00184	48 8d 0d 00 00
	00 00		 lea	 rcx, OFFSET FLAT:$SG179684
  0018b	ff 15 00 00 00
	00		 call	 QWORD PTR __imp_logmsg
  00191	ff 15 00 00 00
	00		 call	 QWORD PTR __imp_IsDebuggerPresent
  00197	85 c0		 test	 eax, eax
  00199	74 20		 je	 SHORT $LN29@constty_ex
  0019b	4c 8d 0d 00 00
	00 00		 lea	 r9, OFFSET FLAT:$SG179686
  001a2	41 b8 8c 11 00
	00		 mov	 r8d, 4492		; 0000118cH
  001a8	48 8d 15 00 00
	00 00		 lea	 rdx, OFFSET FLAT:$SG179687
  001af	48 8d 0d 00 00
	00 00		 lea	 rcx, OFFSET FLAT:$SG179688
  001b6	e8 00 00 00 00	 call	 DebuggerTrace
$LN29@constty_ex:
  001bb	33 c0		 xor	 eax, eax
  001bd	85 c0		 test	 eax, eax
  001bf	75 af		 jne	 SHORT $LN21@constty_ex
  001c1	ff 15 00 00 00
	00		 call	 QWORD PTR __imp_IsDebuggerPresent
  001c7	85 c0		 test	 eax, eax
  001c9	74 01		 je	 SHORT $LN30@constty_ex
  001cb	cc		 int	 3
$LN30@constty_ex:
$LN28@constty_ex:
  001cc	33 c0		 xor	 eax, eax
  001ce	85 c0		 test	 eax, eax
  001d0	75 94		 jne	 SHORT $LN18@constty_ex

; 4493 : 
; 4494 :         /* Perform end of record processing if not data-chaining */
; 4495 :         if ((flags & CCW_FLAGS_CD) == 0)

  001d2	0f b6 84 24 90
	00 00 00	 movzx	 eax, BYTE PTR flags$[rsp]
  001da	25 80 00 00 00	 and	 eax, 128		; 00000080H
  001df	85 c0		 test	 eax, eax
  001e1	75 27		 jne	 SHORT $LN31@constty_ex

; 4496 :         {
; 4497 :             /* Append newline if required */
; 4498 :             if (code == 0x09)

  001e3	0f b6 84 24 88
	00 00 00	 movzx	 eax, BYTE PTR code$[rsp]
  001eb	83 f8 09	 cmp	 eax, 9
  001ee	75 1a		 jne	 SHORT $LN32@constty_ex

; 4499 :                 iobuf[len++] = '\n';

  001f0	8b 44 24 30	 mov	 eax, DWORD PTR len$[rsp]
  001f4	48 8b 8c 24 b8
	00 00 00	 mov	 rcx, QWORD PTR iobuf$[rsp]
  001fc	c6 04 01 0a	 mov	 BYTE PTR [rcx+rax], 10
  00200	8b 44 24 30	 mov	 eax, DWORD PTR len$[rsp]
  00204	ff c0		 inc	 eax
  00206	89 44 24 30	 mov	 DWORD PTR len$[rsp], eax
$LN32@constty_ex:
$LN31@constty_ex:

; 4500 :         }
; 4501 : 
; 4502 :         /* Ensure buffer is always null terminated */
; 4503 :         iobuf[len] = 0;

  0020a	8b 44 24 30	 mov	 eax, DWORD PTR len$[rsp]
  0020e	48 8b 8c 24 b8
	00 00 00	 mov	 rcx, QWORD PTR iobuf$[rsp]
  00216	c6 04 01 00	 mov	 BYTE PTR [rcx+rax], 0

; 4504 : 
; 4505 :         /* Send the data to the client (via telnet_printf) */
; 4506 :         if (!sendto_client( dev->tn, iobuf, len ))

  0021a	44 8b 44 24 30	 mov	 r8d, DWORD PTR len$[rsp]
  0021f	48 8b 94 24 b8
	00 00 00	 mov	 rdx, QWORD PTR iobuf$[rsp]
  00227	48 8b 84 24 80
	00 00 00	 mov	 rax, QWORD PTR dev$[rsp]
  0022f	48 8b 88 b0 06
	00 00		 mov	 rcx, QWORD PTR [rax+1712]
  00236	e8 00 00 00 00	 call	 sendto_client
  0023b	0f b6 c0	 movzx	 eax, al
  0023e	85 c0		 test	 eax, eax
  00240	75 29		 jne	 SHORT $LN33@constty_ex

; 4507 :         {
; 4508 :             /* Return with Unit Check status if the send failed */
; 4509 :             dev->sense[0] = SENSE_EC;

  00242	b8 01 00 00 00	 mov	 eax, 1
  00247	48 6b c0 00	 imul	 rax, rax, 0
  0024b	48 8b 8c 24 80
	00 00 00	 mov	 rcx, QWORD PTR dev$[rsp]
  00253	c6 84 01 64 03
	00 00 10	 mov	 BYTE PTR [rcx+rax+868], 16

; 4510 :             *unitstat = CSW_CE | CSW_DE | CSW_UC;

  0025b	48 8b 84 24 c8
	00 00 00	 mov	 rax, QWORD PTR unitstat$[rsp]
  00263	c6 00 0e	 mov	 BYTE PTR [rax], 14

; 4511 :             break;

  00266	e9 b1 04 00 00	 jmp	 $LN11@constty_ex
$LN33@constty_ex:

; 4512 :         }
; 4513 : 
; 4514 :         /* Return normal status */
; 4515 :         *unitstat = CSW_CE | CSW_DE;

  0026b	48 8b 84 24 c8
	00 00 00	 mov	 rax, QWORD PTR unitstat$[rsp]
  00273	c6 00 0c	 mov	 BYTE PTR [rax], 12

; 4516 :         break;

  00276	e9 a1 04 00 00	 jmp	 $LN11@constty_ex
$LN34@constty_ex:

; 4517 :     }
; 4518 : 
; 4519 :     case 0x03:
; 4520 :     /*---------------------------------------------------------------*/
; 4521 :     /* CONTROL NO-OPERATION                                          */
; 4522 :     /*---------------------------------------------------------------*/
; 4523 :         *unitstat = CSW_CE | CSW_DE;

  0027b	48 8b 84 24 c8
	00 00 00	 mov	 rax, QWORD PTR unitstat$[rsp]
  00283	c6 00 0c	 mov	 BYTE PTR [rax], 12

; 4524 :         break;

  00286	e9 91 04 00 00	 jmp	 $LN11@constty_ex
$LN35@constty_ex:

; 4525 : 
; 4526 :     case 0x0A:
; 4527 :     /*---------------------------------------------------------------*/
; 4528 :     /* READ INQUIRY                                                  */
; 4529 :     /*---------------------------------------------------------------*/
; 4530 : 
; 4531 :         /* Solicit console input if no data in the device buffer */
; 4532 :         if (!dev->keybdrem)

  0028b	48 8b 84 24 80
	00 00 00	 mov	 rax, QWORD PTR dev$[rsp]
  00293	83 b8 c0 06 00
	00 00		 cmp	 DWORD PTR [rax+1728], 0
  0029a	0f 85 5e 01 00
	00		 jne	 $LN36@constty_ex

; 4533 :         {
; 4534 :             /* Display prompting message on console if allowed */
; 4535 :             if (dev->prompt1052)

  002a0	48 8b 84 24 80
	00 00 00	 mov	 rax, QWORD PTR dev$[rsp]
  002a8	8b 80 d4 06 00
	00		 mov	 eax, DWORD PTR [rax+1748]
  002ae	c1 e8 02	 shr	 eax, 2
  002b1	83 e0 01	 and	 eax, 1
  002b4	85 c0		 test	 eax, eax
  002b6	0f 84 01 01 00
	00		 je	 $LN37@constty_ex

; 4536 :             {
; 4537 :                 snprintf( (char*)dev->buf, dev->bufsize,

  002bc	48 83 bc 24 80
	00 00 00 00	 cmp	 QWORD PTR dev$[rsp], 0
  002c5	74 12		 je	 SHORT $LN53@constty_ex
  002c7	48 8b 84 24 80
	00 00 00	 mov	 rax, QWORD PTR dev$[rsp]
  002cf	0f b7 40 48	 movzx	 eax, WORD PTR [rax+72]
  002d3	89 44 24 4c	 mov	 DWORD PTR tv173[rsp], eax
  002d7	eb 08		 jmp	 SHORT $LN54@constty_ex
$LN53@constty_ex:
  002d9	c7 44 24 4c 00
	00 00 00	 mov	 DWORD PTR tv173[rsp], 0
$LN54@constty_ex:
  002e1	48 83 bc 24 80
	00 00 00 00	 cmp	 QWORD PTR dev$[rsp], 0
  002ea	74 14		 je	 SHORT $LN55@constty_ex
  002ec	48 8b 84 24 80
	00 00 00	 mov	 rax, QWORD PTR dev$[rsp]
  002f4	0f b7 40 44	 movzx	 eax, WORD PTR [rax+68]
  002f8	d1 f8		 sar	 eax, 1
  002fa	89 44 24 50	 mov	 DWORD PTR tv179[rsp], eax
  002fe	eb 08		 jmp	 SHORT $LN56@constty_ex
$LN55@constty_ex:
  00300	c7 44 24 50 00
	00 00 00	 mov	 DWORD PTR tv179[rsp], 0
$LN56@constty_ex:
  00308	48 8b 84 24 80
	00 00 00	 mov	 rax, QWORD PTR dev$[rsp]
  00310	48 63 80 d8 01
	00 00		 movsxd	 rax, DWORD PTR [rax+472]
  00317	8b 4c 24 4c	 mov	 ecx, DWORD PTR tv173[rsp]
  0031b	89 4c 24 28	 mov	 DWORD PTR [rsp+40], ecx
  0031f	8b 4c 24 50	 mov	 ecx, DWORD PTR tv179[rsp]
  00323	89 4c 24 20	 mov	 DWORD PTR [rsp+32], ecx
  00327	4c 8d 0d 00 00
	00 00		 lea	 r9, OFFSET FLAT:$SG179697
  0032e	4c 8d 05 00 00
	00 00		 lea	 r8, OFFSET FLAT:$SG179698
  00335	48 8b d0	 mov	 rdx, rax
  00338	48 8b 84 24 80
	00 00 00	 mov	 rax, QWORD PTR dev$[rsp]
  00340	48 8b 88 c8 01
	00 00		 mov	 rcx, QWORD PTR [rax+456]
  00347	ff 15 00 00 00
	00		 call	 QWORD PTR __imp_w32_snprintf

; 4538 :                         // "%1d:%04X COMM: enter console input"
; 4539 :                         // (Note: "MSG" macro used so message DOES end with newline)
; 4540 :                         MSG( HHC01026, "A", LCSS_DEVNUM)
; 4541 :                 );
; 4542 :                 len = (int) strlen( (char*)dev->buf );

  0034d	48 8b 84 24 80
	00 00 00	 mov	 rax, QWORD PTR dev$[rsp]
  00355	48 8b 88 c8 01
	00 00		 mov	 rcx, QWORD PTR [rax+456]
  0035c	e8 00 00 00 00	 call	 strlen
  00361	89 44 24 30	 mov	 DWORD PTR len$[rsp], eax

; 4543 : 
; 4544 :                 /* Send the data to the client */
; 4545 :                 if (!sendto_client( dev->tn, dev->buf, len ))

  00365	44 8b 44 24 30	 mov	 r8d, DWORD PTR len$[rsp]
  0036a	48 8b 84 24 80
	00 00 00	 mov	 rax, QWORD PTR dev$[rsp]
  00372	48 8b 90 c8 01
	00 00		 mov	 rdx, QWORD PTR [rax+456]
  00379	48 8b 84 24 80
	00 00 00	 mov	 rax, QWORD PTR dev$[rsp]
  00381	48 8b 88 b0 06
	00 00		 mov	 rcx, QWORD PTR [rax+1712]
  00388	e8 00 00 00 00	 call	 sendto_client
  0038d	0f b6 c0	 movzx	 eax, al
  00390	85 c0		 test	 eax, eax
  00392	75 29		 jne	 SHORT $LN38@constty_ex

; 4546 :                 {
; 4547 :                     /* Return with Unit Check status if the send failed */
; 4548 :                     dev->sense[0] = SENSE_EC;

  00394	b8 01 00 00 00	 mov	 eax, 1
  00399	48 6b c0 00	 imul	 rax, rax, 0
  0039d	48 8b 8c 24 80
	00 00 00	 mov	 rcx, QWORD PTR dev$[rsp]
  003a5	c6 84 01 64 03
	00 00 10	 mov	 BYTE PTR [rcx+rax+868], 16

; 4549 :                     *unitstat = CSW_CE | CSW_DE | CSW_UC;

  003ad	48 8b 84 24 c8
	00 00 00	 mov	 rax, QWORD PTR unitstat$[rsp]
  003b5	c6 00 0e	 mov	 BYTE PTR [rax], 14

; 4550 :                     break;

  003b8	e9 5f 03 00 00	 jmp	 $LN11@constty_ex
$LN38@constty_ex:
$LN37@constty_ex:
$LN24@constty_ex:

; 4551 :                 }
; 4552 :             }
; 4553 : 
; 4554 :             /* Accumulate client input data into device buffer */
; 4555 :             do
; 4556 :             {
; 4557 :                 /* Receive client data and increment dev->keybdrem */
; 4558 :                 stat = recv_1052_data( dev );

  003bd	48 8b 8c 24 80
	00 00 00	 mov	 rcx, QWORD PTR dev$[rsp]
  003c5	e8 00 00 00 00	 call	 recv_1052_data
  003ca	88 44 24 34	 mov	 BYTE PTR _stat64$[rsp], al

; 4559 :             }
; 4560 :             while (stat == 0);

  003ce	0f b6 44 24 34	 movzx	 eax, BYTE PTR _stat64$[rsp]
  003d3	85 c0		 test	 eax, eax
  003d5	74 e6		 je	 SHORT $LN24@constty_ex

; 4561 : 
; 4562 :             /* Exit if error status */
; 4563 :             if (stat != CSW_ATTN)

  003d7	0f b6 44 24 34	 movzx	 eax, BYTE PTR _stat64$[rsp]
  003dc	3d 80 00 00 00	 cmp	 eax, 128		; 00000080H
  003e1	74 1b		 je	 SHORT $LN39@constty_ex

; 4564 :             {
; 4565 :                 *unitstat = (CSW_CE | CSW_DE) | (stat & ~CSW_ATTN);

  003e3	0f b6 44 24 34	 movzx	 eax, BYTE PTR _stat64$[rsp]
  003e8	0f ba f0 07	 btr	 eax, 7
  003ec	83 c8 0c	 or	 eax, 12
  003ef	48 8b 8c 24 c8
	00 00 00	 mov	 rcx, QWORD PTR unitstat$[rsp]
  003f7	88 01		 mov	 BYTE PTR [rcx], al

; 4566 :                 break;

  003f9	e9 1e 03 00 00	 jmp	 $LN11@constty_ex
$LN39@constty_ex:
$LN36@constty_ex:

; 4567 :             }
; 4568 :         }
; 4569 : 
; 4570 :         /* Calculate number of bytes to move and residual byte count */
; 4571 :         len = dev->keybdrem;

  003fe	48 8b 84 24 80
	00 00 00	 mov	 rax, QWORD PTR dev$[rsp]
  00406	8b 80 c0 06 00
	00		 mov	 eax, DWORD PTR [rax+1728]
  0040c	89 44 24 30	 mov	 DWORD PTR len$[rsp], eax

; 4572 :         num = (count < len) ? count : len;

  00410	8b 44 24 30	 mov	 eax, DWORD PTR len$[rsp]
  00414	39 84 24 a0 00
	00 00		 cmp	 DWORD PTR count$[rsp], eax
  0041b	73 0d		 jae	 SHORT $LN57@constty_ex
  0041d	8b 84 24 a0 00
	00 00		 mov	 eax, DWORD PTR count$[rsp]
  00424	89 44 24 54	 mov	 DWORD PTR tv214[rsp], eax
  00428	eb 08		 jmp	 SHORT $LN58@constty_ex
$LN57@constty_ex:
  0042a	8b 44 24 30	 mov	 eax, DWORD PTR len$[rsp]
  0042e	89 44 24 54	 mov	 DWORD PTR tv214[rsp], eax
$LN58@constty_ex:
  00432	8b 44 24 54	 mov	 eax, DWORD PTR tv214[rsp]
  00436	89 44 24 38	 mov	 DWORD PTR num$[rsp], eax

; 4573 :         *residual = count - num;

  0043a	8b 44 24 38	 mov	 eax, DWORD PTR num$[rsp]
  0043e	8b 8c 24 a0 00
	00 00		 mov	 ecx, DWORD PTR count$[rsp]
  00445	2b c8		 sub	 ecx, eax
  00447	8b c1		 mov	 eax, ecx
  00449	48 8b 8c 24 d0
	00 00 00	 mov	 rcx, QWORD PTR residual$[rsp]
  00451	89 01		 mov	 DWORD PTR [rcx], eax

; 4574 :         if (count < len) *more = 1;

  00453	8b 44 24 30	 mov	 eax, DWORD PTR len$[rsp]
  00457	39 84 24 a0 00
	00 00		 cmp	 DWORD PTR count$[rsp], eax
  0045e	73 0b		 jae	 SHORT $LN40@constty_ex
  00460	48 8b 84 24 c0
	00 00 00	 mov	 rax, QWORD PTR more$[rsp]
  00468	c6 00 01	 mov	 BYTE PTR [rax], 1
$LN40@constty_ex:

; 4575 : 
; 4576 :         /* Copy data from device buffer to channel buffer */
; 4577 :         memcpy (iobuf, dev->buf, num);

  0046b	8b 44 24 38	 mov	 eax, DWORD PTR num$[rsp]
  0046f	48 8b 8c 24 80
	00 00 00	 mov	 rcx, QWORD PTR dev$[rsp]
  00477	48 8b bc 24 b8
	00 00 00	 mov	 rdi, QWORD PTR iobuf$[rsp]
  0047f	48 8b b1 c8 01
	00 00		 mov	 rsi, QWORD PTR [rcx+456]
  00486	8b c8		 mov	 ecx, eax
  00488	f3 a4		 rep movsb

; 4578 : 
; 4579 :         /* If data chaining is specified, save remaining data */
; 4580 :         if ((flags & CCW_FLAGS_CD) && len > count)

  0048a	0f b6 84 24 90
	00 00 00	 movzx	 eax, BYTE PTR flags$[rsp]
  00492	25 80 00 00 00	 and	 eax, 128		; 00000080H
  00497	85 c0		 test	 eax, eax
  00499	74 6d		 je	 SHORT $LN41@constty_ex
  0049b	8b 84 24 a0 00
	00 00		 mov	 eax, DWORD PTR count$[rsp]
  004a2	39 44 24 30	 cmp	 DWORD PTR len$[rsp], eax
  004a6	76 60		 jbe	 SHORT $LN41@constty_ex

; 4581 :         {
; 4582 :             memmove (dev->buf, dev->buf + count, len - count);

  004a8	8b 84 24 a0 00
	00 00		 mov	 eax, DWORD PTR count$[rsp]
  004af	8b 4c 24 30	 mov	 ecx, DWORD PTR len$[rsp]
  004b3	2b c8		 sub	 ecx, eax
  004b5	8b c1		 mov	 eax, ecx
  004b7	8b c0		 mov	 eax, eax
  004b9	8b 8c 24 a0 00
	00 00		 mov	 ecx, DWORD PTR count$[rsp]
  004c0	48 8b 94 24 80
	00 00 00	 mov	 rdx, QWORD PTR dev$[rsp]
  004c8	48 03 8a c8 01
	00 00		 add	 rcx, QWORD PTR [rdx+456]
  004cf	44 8b c0	 mov	 r8d, eax
  004d2	48 8b d1	 mov	 rdx, rcx
  004d5	48 8b 84 24 80
	00 00 00	 mov	 rax, QWORD PTR dev$[rsp]
  004dd	48 8b 88 c8 01
	00 00		 mov	 rcx, QWORD PTR [rax+456]
  004e4	e8 00 00 00 00	 call	 memmove

; 4583 :             dev->keybdrem = len - count;

  004e9	8b 84 24 a0 00
	00 00		 mov	 eax, DWORD PTR count$[rsp]
  004f0	8b 4c 24 30	 mov	 ecx, DWORD PTR len$[rsp]
  004f4	2b c8		 sub	 ecx, eax
  004f6	8b c1		 mov	 eax, ecx
  004f8	48 8b 8c 24 80
	00 00 00	 mov	 rcx, QWORD PTR dev$[rsp]
  00500	89 81 c0 06 00
	00		 mov	 DWORD PTR [rcx+1728], eax

; 4584 :         }

  00506	eb 12		 jmp	 SHORT $LN42@constty_ex
$LN41@constty_ex:

; 4585 :         else
; 4586 :             dev->keybdrem = 0;

  00508	48 8b 84 24 80
	00 00 00	 mov	 rax, QWORD PTR dev$[rsp]
  00510	c7 80 c0 06 00
	00 00 00 00 00	 mov	 DWORD PTR [rax+1728], 0
$LN42@constty_ex:

; 4587 : 
; 4588 :         /* Return normal status */
; 4589 :         *unitstat = CSW_CE | CSW_DE;

  0051a	48 8b 84 24 c8
	00 00 00	 mov	 rax, QWORD PTR unitstat$[rsp]
  00522	c6 00 0c	 mov	 BYTE PTR [rax], 12

; 4590 :         break;

  00525	e9 f2 01 00 00	 jmp	 $LN11@constty_ex
$LN43@constty_ex:

; 4591 : 
; 4592 :     case 0x0B:
; 4593 :     /*---------------------------------------------------------------*/
; 4594 :     /* AUDIBLE ALARM                                                 */
; 4595 :     /*---------------------------------------------------------------*/
; 4596 :     {
; 4597 :         static BYTE bell[2] = {'\a','\0'};  // "Ding!" (ring the bell)
; 4598 : 
; 4599 :         if (!sendto_client( dev->tn, bell, 1 ))

  0052a	41 b8 01 00 00
	00		 mov	 r8d, 1
  00530	48 8d 15 00 00
	00 00		 lea	 rdx, OFFSET FLAT:?bell@?BG@??constty_execute_ccw@@9@9
  00537	48 8b 84 24 80
	00 00 00	 mov	 rax, QWORD PTR dev$[rsp]
  0053f	48 8b 88 b0 06
	00 00		 mov	 rcx, QWORD PTR [rax+1712]
  00546	e8 00 00 00 00	 call	 sendto_client
  0054b	0f b6 c0	 movzx	 eax, al
  0054e	85 c0		 test	 eax, eax
  00550	75 29		 jne	 SHORT $LN44@constty_ex

; 4600 :         {
; 4601 :             /* Return with Unit Check status if the send failed */
; 4602 :             dev->sense[0] = SENSE_EC;

  00552	b8 01 00 00 00	 mov	 eax, 1
  00557	48 6b c0 00	 imul	 rax, rax, 0
  0055b	48 8b 8c 24 80
	00 00 00	 mov	 rcx, QWORD PTR dev$[rsp]
  00563	c6 84 01 64 03
	00 00 10	 mov	 BYTE PTR [rcx+rax+868], 16

; 4603 :             *unitstat = CSW_CE | CSW_DE | CSW_UC;

  0056b	48 8b 84 24 c8
	00 00 00	 mov	 rax, QWORD PTR unitstat$[rsp]
  00573	c6 00 0e	 mov	 BYTE PTR [rax], 14

; 4604 :             break;

  00576	e9 a1 01 00 00	 jmp	 $LN11@constty_ex
$LN44@constty_ex:

; 4605 :         }
; 4606 : 
; 4607 :         *unitstat = CSW_CE | CSW_DE;

  0057b	48 8b 84 24 c8
	00 00 00	 mov	 rax, QWORD PTR unitstat$[rsp]
  00583	c6 00 0c	 mov	 BYTE PTR [rax], 12

; 4608 :         break;

  00586	e9 91 01 00 00	 jmp	 $LN11@constty_ex
$LN45@constty_ex:

; 4609 :     }
; 4610 : 
; 4611 :     case 0x04:
; 4612 :     /*---------------------------------------------------------------*/
; 4613 :     /* SENSE                                                         */
; 4614 :     /*---------------------------------------------------------------*/
; 4615 :         /* Calculate residual byte count */
; 4616 :         num = (count < dev->numsense) ? count : dev->numsense;

  0058b	48 8b 84 24 80
	00 00 00	 mov	 rax, QWORD PTR dev$[rsp]
  00593	8b 80 60 03 00
	00		 mov	 eax, DWORD PTR [rax+864]
  00599	39 84 24 a0 00
	00 00		 cmp	 DWORD PTR count$[rsp], eax
  005a0	73 0d		 jae	 SHORT $LN59@constty_ex
  005a2	8b 84 24 a0 00
	00 00		 mov	 eax, DWORD PTR count$[rsp]
  005a9	89 44 24 58	 mov	 DWORD PTR tv253[rsp], eax
  005ad	eb 12		 jmp	 SHORT $LN60@constty_ex
$LN59@constty_ex:
  005af	48 8b 84 24 80
	00 00 00	 mov	 rax, QWORD PTR dev$[rsp]
  005b7	8b 80 60 03 00
	00		 mov	 eax, DWORD PTR [rax+864]
  005bd	89 44 24 58	 mov	 DWORD PTR tv253[rsp], eax
$LN60@constty_ex:
  005c1	8b 44 24 58	 mov	 eax, DWORD PTR tv253[rsp]
  005c5	89 44 24 38	 mov	 DWORD PTR num$[rsp], eax

; 4617 :         *residual = count - num;

  005c9	8b 44 24 38	 mov	 eax, DWORD PTR num$[rsp]
  005cd	8b 8c 24 a0 00
	00 00		 mov	 ecx, DWORD PTR count$[rsp]
  005d4	2b c8		 sub	 ecx, eax
  005d6	8b c1		 mov	 eax, ecx
  005d8	48 8b 8c 24 d0
	00 00 00	 mov	 rcx, QWORD PTR residual$[rsp]
  005e0	89 01		 mov	 DWORD PTR [rcx], eax

; 4618 :         if (count < dev->numsense) *more = 1;

  005e2	48 8b 84 24 80
	00 00 00	 mov	 rax, QWORD PTR dev$[rsp]
  005ea	8b 80 60 03 00
	00		 mov	 eax, DWORD PTR [rax+864]
  005f0	39 84 24 a0 00
	00 00		 cmp	 DWORD PTR count$[rsp], eax
  005f7	73 0b		 jae	 SHORT $LN46@constty_ex
  005f9	48 8b 84 24 c0
	00 00 00	 mov	 rax, QWORD PTR more$[rsp]
  00601	c6 00 01	 mov	 BYTE PTR [rax], 1
$LN46@constty_ex:

; 4619 : 
; 4620 :         /* Copy device sense bytes to channel I/O buffer */
; 4621 :         memcpy (iobuf, dev->sense, num);

  00604	8b 44 24 38	 mov	 eax, DWORD PTR num$[rsp]
  00608	48 8b 8c 24 80
	00 00 00	 mov	 rcx, QWORD PTR dev$[rsp]
  00610	48 81 c1 64 03
	00 00		 add	 rcx, 868		; 00000364H
  00617	48 8b bc 24 b8
	00 00 00	 mov	 rdi, QWORD PTR iobuf$[rsp]
  0061f	48 8b f1	 mov	 rsi, rcx
  00622	8b c8		 mov	 ecx, eax
  00624	f3 a4		 rep movsb

; 4622 : 
; 4623 :         /* Clear the device sense bytes */
; 4624 :         memset( dev->sense, 0, sizeof(dev->sense) );

  00626	48 8b 84 24 80
	00 00 00	 mov	 rax, QWORD PTR dev$[rsp]
  0062e	48 05 64 03 00
	00		 add	 rax, 868		; 00000364H
  00634	48 8b f8	 mov	 rdi, rax
  00637	33 c0		 xor	 eax, eax
  00639	b9 00 01 00 00	 mov	 ecx, 256		; 00000100H
  0063e	f3 aa		 rep stosb

; 4625 : 
; 4626 :         /* Return unit status */
; 4627 :         *unitstat = CSW_CE | CSW_DE;

  00640	48 8b 84 24 c8
	00 00 00	 mov	 rax, QWORD PTR unitstat$[rsp]
  00648	c6 00 0c	 mov	 BYTE PTR [rax], 12

; 4628 :         break;

  0064b	e9 cc 00 00 00	 jmp	 $LN11@constty_ex
$LN47@constty_ex:

; 4629 : 
; 4630 :     case 0xE4:
; 4631 :     /*---------------------------------------------------------------*/
; 4632 :     /* SENSE ID                                                      */
; 4633 :     /*---------------------------------------------------------------*/
; 4634 :         /* Calculate residual byte count */
; 4635 :         num = (count < dev->numdevid) ? count : dev->numdevid;

  00650	48 8b 84 24 80
	00 00 00	 mov	 rax, QWORD PTR dev$[rsp]
  00658	8b 80 64 04 00
	00		 mov	 eax, DWORD PTR [rax+1124]
  0065e	39 84 24 a0 00
	00 00		 cmp	 DWORD PTR count$[rsp], eax
  00665	73 0d		 jae	 SHORT $LN61@constty_ex
  00667	8b 84 24 a0 00
	00 00		 mov	 eax, DWORD PTR count$[rsp]
  0066e	89 44 24 5c	 mov	 DWORD PTR tv272[rsp], eax
  00672	eb 12		 jmp	 SHORT $LN62@constty_ex
$LN61@constty_ex:
  00674	48 8b 84 24 80
	00 00 00	 mov	 rax, QWORD PTR dev$[rsp]
  0067c	8b 80 64 04 00
	00		 mov	 eax, DWORD PTR [rax+1124]
  00682	89 44 24 5c	 mov	 DWORD PTR tv272[rsp], eax
$LN62@constty_ex:
  00686	8b 44 24 5c	 mov	 eax, DWORD PTR tv272[rsp]
  0068a	89 44 24 38	 mov	 DWORD PTR num$[rsp], eax

; 4636 :         *residual = count - num;

  0068e	8b 44 24 38	 mov	 eax, DWORD PTR num$[rsp]
  00692	8b 8c 24 a0 00
	00 00		 mov	 ecx, DWORD PTR count$[rsp]
  00699	2b c8		 sub	 ecx, eax
  0069b	8b c1		 mov	 eax, ecx
  0069d	48 8b 8c 24 d0
	00 00 00	 mov	 rcx, QWORD PTR residual$[rsp]
  006a5	89 01		 mov	 DWORD PTR [rcx], eax

; 4637 :         if (count < dev->numdevid) *more = 1;

  006a7	48 8b 84 24 80
	00 00 00	 mov	 rax, QWORD PTR dev$[rsp]
  006af	8b 80 64 04 00
	00		 mov	 eax, DWORD PTR [rax+1124]
  006b5	39 84 24 a0 00
	00 00		 cmp	 DWORD PTR count$[rsp], eax
  006bc	73 0b		 jae	 SHORT $LN48@constty_ex
  006be	48 8b 84 24 c0
	00 00 00	 mov	 rax, QWORD PTR more$[rsp]
  006c6	c6 00 01	 mov	 BYTE PTR [rax], 1
$LN48@constty_ex:

; 4638 : 
; 4639 :         /* Copy device identifier bytes to channel I/O buffer */
; 4640 :         memcpy (iobuf, dev->devid, num);

  006c9	8b 44 24 38	 mov	 eax, DWORD PTR num$[rsp]
  006cd	48 8b 8c 24 80
	00 00 00	 mov	 rcx, QWORD PTR dev$[rsp]
  006d5	48 81 c1 68 04
	00 00		 add	 rcx, 1128		; 00000468H
  006dc	48 8b bc 24 b8
	00 00 00	 mov	 rdi, QWORD PTR iobuf$[rsp]
  006e4	48 8b f1	 mov	 rsi, rcx
  006e7	8b c8		 mov	 ecx, eax
  006e9	f3 a4		 rep movsb

; 4641 : 
; 4642 :         /* Return unit status */
; 4643 :         *unitstat = CSW_CE | CSW_DE;

  006eb	48 8b 84 24 c8
	00 00 00	 mov	 rax, QWORD PTR unitstat$[rsp]
  006f3	c6 00 0c	 mov	 BYTE PTR [rax], 12

; 4644 :         break;

  006f6	eb 24		 jmp	 SHORT $LN11@constty_ex
$LN49@constty_ex:

; 4645 : 
; 4646 :     default:
; 4647 :     /*---------------------------------------------------------------*/
; 4648 :     /* INVALID OPERATION                                             */
; 4649 :     /*---------------------------------------------------------------*/
; 4650 :         /* Set command reject sense byte, and unit check status */
; 4651 :         dev->sense[0] = SENSE_CR;

  006f8	b8 01 00 00 00	 mov	 eax, 1
  006fd	48 6b c0 00	 imul	 rax, rax, 0
  00701	48 8b 8c 24 80
	00 00 00	 mov	 rcx, QWORD PTR dev$[rsp]
  00709	c6 84 01 64 03
	00 00 80	 mov	 BYTE PTR [rcx+rax+868], 128 ; 00000080H

; 4652 :         *unitstat = CSW_CE | CSW_DE | CSW_UC;

  00711	48 8b 84 24 c8
	00 00 00	 mov	 rax, QWORD PTR unitstat$[rsp]
  00719	c6 00 0e	 mov	 BYTE PTR [rax], 14
$LN11@constty_ex:
$LN1@constty_ex:

; 4653 : 
; 4654 :     } /* end switch(code) */
; 4655 : 
; 4656 : } /* end function constty_execute_ccw */

  0071c	48 83 c4 68	 add	 rsp, 104		; 00000068H
  00720	5f		 pop	 rdi
  00721	5e		 pop	 rsi
  00722	c3		 ret	 0
  00723	90		 npad	 1
$LN64@constty_ex:
  00724	00 00 00 00	 DD	 $LN26@constty_ex
  00728	00 00 00 00	 DD	 $LN34@constty_ex
  0072c	00 00 00 00	 DD	 $LN45@constty_ex
  00730	00 00 00 00	 DD	 $LN27@constty_ex
  00734	00 00 00 00	 DD	 $LN35@constty_ex
  00738	00 00 00 00	 DD	 $LN43@constty_ex
  0073c	00 00 00 00	 DD	 $LN47@constty_ex
  00740	00 00 00 00	 DD	 $LN49@constty_ex
$LN63@constty_ex:
  00744	00		 DB	 0
  00745	07		 DB	 7
  00746	01		 DB	 1
  00747	02		 DB	 2
  00748	07		 DB	 7
  00749	07		 DB	 7
  0074a	07		 DB	 7
  0074b	07		 DB	 7
  0074c	03		 DB	 3
  0074d	04		 DB	 4
  0074e	05		 DB	 5
  0074f	07		 DB	 7
  00750	07		 DB	 7
  00751	07		 DB	 7
  00752	07		 DB	 7
  00753	07		 DB	 7
  00754	07		 DB	 7
  00755	07		 DB	 7
  00756	07		 DB	 7
  00757	07		 DB	 7
  00758	07		 DB	 7
  00759	07		 DB	 7
  0075a	07		 DB	 7
  0075b	07		 DB	 7
  0075c	07		 DB	 7
  0075d	07		 DB	 7
  0075e	07		 DB	 7
  0075f	07		 DB	 7
  00760	07		 DB	 7
  00761	07		 DB	 7
  00762	07		 DB	 7
  00763	07		 DB	 7
  00764	07		 DB	 7
  00765	07		 DB	 7
  00766	07		 DB	 7
  00767	07		 DB	 7
  00768	07		 DB	 7
  00769	07		 DB	 7
  0076a	07		 DB	 7
  0076b	07		 DB	 7
  0076c	07		 DB	 7
  0076d	07		 DB	 7
  0076e	07		 DB	 7
  0076f	07		 DB	 7
  00770	07		 DB	 7
  00771	07		 DB	 7
  00772	07		 DB	 7
  00773	07		 DB	 7
  00774	07		 DB	 7
  00775	07		 DB	 7
  00776	07		 DB	 7
  00777	07		 DB	 7
  00778	07		 DB	 7
  00779	07		 DB	 7
  0077a	07		 DB	 7
  0077b	07		 DB	 7
  0077c	07		 DB	 7
  0077d	07		 DB	 7
  0077e	07		 DB	 7
  0077f	07		 DB	 7
  00780	07		 DB	 7
  00781	07		 DB	 7
  00782	07		 DB	 7
  00783	07		 DB	 7
  00784	07		 DB	 7
  00785	07		 DB	 7
  00786	07		 DB	 7
  00787	07		 DB	 7
  00788	07		 DB	 7
  00789	07		 DB	 7
  0078a	07		 DB	 7
  0078b	07		 DB	 7
  0078c	07		 DB	 7
  0078d	07		 DB	 7
  0078e	07		 DB	 7
  0078f	07		 DB	 7
  00790	07		 DB	 7
  00791	07		 DB	 7
  00792	07		 DB	 7
  00793	07		 DB	 7
  00794	07		 DB	 7
  00795	07		 DB	 7
  00796	07		 DB	 7
  00797	07		 DB	 7
  00798	07		 DB	 7
  00799	07		 DB	 7
  0079a	07		 DB	 7
  0079b	07		 DB	 7
  0079c	07		 DB	 7
  0079d	07		 DB	 7
  0079e	07		 DB	 7
  0079f	07		 DB	 7
  007a0	07		 DB	 7
  007a1	07		 DB	 7
  007a2	07		 DB	 7
  007a3	07		 DB	 7
  007a4	07		 DB	 7
  007a5	07		 DB	 7
  007a6	07		 DB	 7
  007a7	07		 DB	 7
  007a8	07		 DB	 7
  007a9	07		 DB	 7
  007aa	07		 DB	 7
  007ab	07		 DB	 7
  007ac	07		 DB	 7
  007ad	07		 DB	 7
  007ae	07		 DB	 7
  007af	07		 DB	 7
  007b0	07		 DB	 7
  007b1	07		 DB	 7
  007b2	07		 DB	 7
  007b3	07		 DB	 7
  007b4	07		 DB	 7
  007b5	07		 DB	 7
  007b6	07		 DB	 7
  007b7	07		 DB	 7
  007b8	07		 DB	 7
  007b9	07		 DB	 7
  007ba	07		 DB	 7
  007bb	07		 DB	 7
  007bc	07		 DB	 7
  007bd	07		 DB	 7
  007be	07		 DB	 7
  007bf	07		 DB	 7
  007c0	07		 DB	 7
  007c1	07		 DB	 7
  007c2	07		 DB	 7
  007c3	07		 DB	 7
  007c4	07		 DB	 7
  007c5	07		 DB	 7
  007c6	07		 DB	 7
  007c7	07		 DB	 7
  007c8	07		 DB	 7
  007c9	07		 DB	 7
  007ca	07		 DB	 7
  007cb	07		 DB	 7
  007cc	07		 DB	 7
  007cd	07		 DB	 7
  007ce	07		 DB	 7
  007cf	07		 DB	 7
  007d0	07		 DB	 7
  007d1	07		 DB	 7
  007d2	07		 DB	 7
  007d3	07		 DB	 7
  007d4	07		 DB	 7
  007d5	07		 DB	 7
  007d6	07		 DB	 7
  007d7	07		 DB	 7
  007d8	07		 DB	 7
  007d9	07		 DB	 7
  007da	07		 DB	 7
  007db	07		 DB	 7
  007dc	07		 DB	 7
  007dd	07		 DB	 7
  007de	07		 DB	 7
  007df	07		 DB	 7
  007e0	07		 DB	 7
  007e1	07		 DB	 7
  007e2	07		 DB	 7
  007e3	07		 DB	 7
  007e4	07		 DB	 7
  007e5	07		 DB	 7
  007e6	07		 DB	 7
  007e7	07		 DB	 7
  007e8	07		 DB	 7
  007e9	07		 DB	 7
  007ea	07		 DB	 7
  007eb	07		 DB	 7
  007ec	07		 DB	 7
  007ed	07		 DB	 7
  007ee	07		 DB	 7
  007ef	07		 DB	 7
  007f0	07		 DB	 7
  007f1	07		 DB	 7
  007f2	07		 DB	 7
  007f3	07		 DB	 7
  007f4	07		 DB	 7
  007f5	07		 DB	 7
  007f6	07		 DB	 7
  007f7	07		 DB	 7
  007f8	07		 DB	 7
  007f9	07		 DB	 7
  007fa	07		 DB	 7
  007fb	07		 DB	 7
  007fc	07		 DB	 7
  007fd	07		 DB	 7
  007fe	07		 DB	 7
  007ff	07		 DB	 7
  00800	07		 DB	 7
  00801	07		 DB	 7
  00802	07		 DB	 7
  00803	07		 DB	 7
  00804	07		 DB	 7
  00805	07		 DB	 7
  00806	07		 DB	 7
  00807	07		 DB	 7
  00808	07		 DB	 7
  00809	07		 DB	 7
  0080a	07		 DB	 7
  0080b	07		 DB	 7
  0080c	07		 DB	 7
  0080d	07		 DB	 7
  0080e	07		 DB	 7
  0080f	07		 DB	 7
  00810	07		 DB	 7
  00811	07		 DB	 7
  00812	07		 DB	 7
  00813	07		 DB	 7
  00814	07		 DB	 7
  00815	07		 DB	 7
  00816	07		 DB	 7
  00817	07		 DB	 7
  00818	07		 DB	 7
  00819	07		 DB	 7
  0081a	07		 DB	 7
  0081b	07		 DB	 7
  0081c	07		 DB	 7
  0081d	07		 DB	 7
  0081e	07		 DB	 7
  0081f	07		 DB	 7
  00820	07		 DB	 7
  00821	07		 DB	 7
  00822	07		 DB	 7
  00823	07		 DB	 7
  00824	07		 DB	 7
  00825	07		 DB	 7
  00826	07		 DB	 7
  00827	06		 DB	 6
constty_execute_ccw ENDP
_TEXT	ENDS
; Function compile flags: /Odtp
; File C:\papa\MyGit\hyperion-zvector\console.c
_TEXT	SEGMENT
len$ = 32
cmd$ = 36
num$ = 40
aid$ = 44
c$1 = 48
c$2 = 49
off$ = 52
tv80 = 56
rc$ = 60
tv132 = 64
tv214 = 68
tv222 = 72
tv217 = 76
tv255 = 80
tv296 = 84
tv310 = 88
tv320 = 92
f$3 = 96
tv409 = 100
tv454 = 104
tv468 = 108
tv478 = 112
f$4 = 116
tv563 = 120
tv583 = 124
saved_errno$5 = 128
saved_errno$6 = 132
tv225 = 136
tv326 = 144
tv484 = 152
tv305 = 160
tv463 = 168
buf$ = 176
__$ArrayPad$ = 65712
dev$ = 65760
code$ = 65768
flags$ = 65776
chained$ = 65784
count$ = 65792
prevcode$ = 65800
ccwseq$ = 65808
iobuf$ = 65816
more$ = 65824
unitstat$ = 65832
residual$ = 65840
loc3270_execute_ccw PROC

; 3980 : {

  00000	44 88 4c 24 20	 mov	 BYTE PTR [rsp+32], r9b
  00005	44 88 44 24 18	 mov	 BYTE PTR [rsp+24], r8b
  0000a	88 54 24 10	 mov	 BYTE PTR [rsp+16], dl
  0000e	48 89 4c 24 08	 mov	 QWORD PTR [rsp+8], rcx
  00013	56		 push	 rsi
  00014	57		 push	 rdi
  00015	b8 c8 00 01 00	 mov	 eax, 65736		; 000100c8H
  0001a	e8 00 00 00 00	 call	 __chkstk
  0001f	48 2b e0	 sub	 rsp, rax
  00022	48 8b 05 00 00
	00 00		 mov	 rax, QWORD PTR __security_cookie
  00029	48 33 c4	 xor	 rax, rsp
  0002c	48 89 84 24 b0
	00 01 00	 mov	 QWORD PTR __$ArrayPad$[rsp], rax
$LN4@loc3270_ex:

; 3981 : int             rc;                     /* Return code               */
; 3982 : U32             num;                    /* Number of bytes to copy   */
; 3983 : U32             len;                    /* Data length               */
; 3984 : int             aid;                    /* First read: AID present   */
; 3985 : U32             off;                    /* Offset in device buffer   */
; 3986 : BYTE            cmd;                    /* tn3270 command code       */
; 3987 : BYTE            buf[BUFLEN_3270];       /* tn3270 write buffer       */
; 3988 : 
; 3989 :     UNREFERENCED( prevcode );

  00034	33 c0		 xor	 eax, eax
  00036	85 c0		 test	 eax, eax
  00038	75 fa		 jne	 SHORT $LN4@loc3270_ex
$LN7@loc3270_ex:

; 3990 :     UNREFERENCED( ccwseq );

  0003a	33 c0		 xor	 eax, eax
  0003c	85 c0		 test	 eax, eax
  0003e	75 fa		 jne	 SHORT $LN7@loc3270_ex

; 3991 : 
; 3992 :     /* Clear the current screen position at start of CCW chain */
; 3993 :     if (!chained)

  00040	0f b6 84 24 f8
	00 01 00	 movzx	 eax, BYTE PTR chained$[rsp]
  00048	85 c0		 test	 eax, eax
  0004a	75 12		 jne	 SHORT $LN28@loc3270_ex

; 3994 :         dev->pos3270 = 0;

  0004c	48 8b 84 24 e0
	00 01 00	 mov	 rax, QWORD PTR dev$[rsp]
  00054	c7 80 bc 06 00
	00 00 00 00 00	 mov	 DWORD PTR [rax+1724], 0
$LN28@loc3270_ex:

; 3995 : 
; 3996 :     /* Unit check with intervention required if no client connected */
; 3997 :     if (!dev->connected && !IS_CCW_SENSE( code ))

  0005e	48 8b 84 24 e0
	00 01 00	 mov	 rax, QWORD PTR dev$[rsp]
  00066	8b 80 f8 05 00
	00		 mov	 eax, DWORD PTR [rax+1528]
  0006c	c1 e8 05	 shr	 eax, 5
  0006f	83 e0 01	 and	 eax, 1
  00072	85 c0		 test	 eax, eax
  00074	75 39		 jne	 SHORT $LN29@loc3270_ex
  00076	0f b6 84 24 e8
	00 01 00	 movzx	 eax, BYTE PTR code$[rsp]
  0007e	83 e0 0f	 and	 eax, 15
  00081	83 f8 04	 cmp	 eax, 4
  00084	74 29		 je	 SHORT $LN29@loc3270_ex

; 3998 :     {
; 3999 :         dev->sense[0] = SENSE_IR;

  00086	b8 01 00 00 00	 mov	 eax, 1
  0008b	48 6b c0 00	 imul	 rax, rax, 0
  0008f	48 8b 8c 24 e0
	00 01 00	 mov	 rcx, QWORD PTR dev$[rsp]
  00097	c6 84 01 64 03
	00 00 40	 mov	 BYTE PTR [rcx+rax+868], 64 ; 00000040H

; 4000 : 
; 4001 :         // NO!  *unitstat = CSW_CE | CSW_DE | CSW_UC;
; 4002 : 
; 4003 :         /*  ISW3274DR:  as per manual GA23-0218-11: "3174 Establishment
; 4004 :             Controller: Functional Description", section 3.1.3.2.2:
; 4005 :             "Solicited Status", Table 5-6: "Initial Status Conditions
; 4006 :             (Non-SNA)", the proper Intervention Required status is
; 4007 :             Unit Check (UC) only.
; 4008 :         */
; 4009 :         *unitstat = CSW_UC;    // (see above)

  0009f	48 8b 84 24 28
	01 01 00	 mov	 rax, QWORD PTR unitstat$[rsp]
  000a7	c6 00 02	 mov	 BYTE PTR [rax], 2

; 4010 :         return;

  000aa	e9 36 12 00 00	 jmp	 $LN1@loc3270_ex
$LN29@loc3270_ex:

; 4011 :     }
; 4012 : 
; 4013 :     /* Process depending on CCW opcode */
; 4014 :     switch (code) {

  000af	0f b6 84 24 e8
	00 01 00	 movzx	 eax, BYTE PTR code$[rsp]
  000b7	89 44 24 38	 mov	 DWORD PTR tv80[rsp], eax
  000bb	8b 44 24 38	 mov	 eax, DWORD PTR tv80[rsp]
  000bf	ff c8		 dec	 eax
  000c1	89 44 24 38	 mov	 DWORD PTR tv80[rsp], eax
  000c5	81 7c 24 38 e3
	00 00 00	 cmp	 DWORD PTR tv80[rsp], 227 ; 000000e3H
  000cd	0f 87 ee 11 00
	00		 ja	 $LN85@loc3270_ex
  000d3	48 63 44 24 38	 movsxd	 rax, DWORD PTR tv80[rsp]
  000d8	48 8d 0d 00 00
	00 00		 lea	 rcx, OFFSET FLAT:__ImageBase
  000df	0f b6 84 01 00
	00 00 00	 movzx	 eax, BYTE PTR $LN121@loc3270_ex[rcx+rax]
  000e7	8b 84 81 00 00
	00 00		 mov	 eax, DWORD PTR $LN122@loc3270_ex[rcx+rax*4]
  000ee	48 03 c1	 add	 rax, rcx
  000f1	ff e0		 jmp	 rax
$LN30@loc3270_ex:

; 4015 : 
; 4016 :     case L3270_NOP:
; 4017 :     /*---------------------------------------------------------------*/
; 4018 :     /* CONTROL NO-OPERATION                                          */
; 4019 :     /*---------------------------------------------------------------*/
; 4020 :         /* Reset the buffer address */
; 4021 :         dev->pos3270 = 0;

  000f3	48 8b 84 24 e0
	00 01 00	 mov	 rax, QWORD PTR dev$[rsp]
  000fb	c7 80 bc 06 00
	00 00 00 00 00	 mov	 DWORD PTR [rax+1724], 0

; 4022 : 
; 4023 :         *unitstat = CSW_CE | CSW_DE;

  00105	48 8b 84 24 28
	01 01 00	 mov	 rax, QWORD PTR unitstat$[rsp]
  0010d	c6 00 0c	 mov	 BYTE PTR [rax], 12

; 4024 :         break;

  00110	e9 d0 11 00 00	 jmp	 $LN8@loc3270_ex
$LN31@loc3270_ex:
$LN32@loc3270_ex:
$LN33@loc3270_ex:
$LN34@loc3270_ex:
$LN35@loc3270_ex:

; 4025 : 
; 4026 :     case L3270_SELRM:
; 4027 :     case L3270_SELRB:
; 4028 :     case L3270_SELRMP:
; 4029 :     case L3270_SELRBP:
; 4030 :     case L3270_SELWRT:
; 4031 :     /*---------------------------------------------------------------*/
; 4032 :     /* SELECT                                                        */
; 4033 :     /*---------------------------------------------------------------*/
; 4034 :         /* Reset the buffer address */
; 4035 :         dev->pos3270 = 0;

  00115	48 8b 84 24 e0
	00 01 00	 mov	 rax, QWORD PTR dev$[rsp]
  0011d	c7 80 bc 06 00
	00 00 00 00 00	 mov	 DWORD PTR [rax+1724], 0

; 4036 : 
; 4037 :     /*
; 4038 :         *residual = 0;
; 4039 :     */
; 4040 :         *unitstat = CSW_CE | CSW_DE;

  00127	48 8b 84 24 28
	01 01 00	 mov	 rax, QWORD PTR unitstat$[rsp]
  0012f	c6 00 0c	 mov	 BYTE PTR [rax], 12

; 4041 :         break;

  00132	e9 ae 11 00 00	 jmp	 $LN8@loc3270_ex
$LN36@loc3270_ex:

; 4042 : 
; 4043 :     case L3270_EAU:
; 4044 :     /*---------------------------------------------------------------*/
; 4045 :     /* ERASE ALL UNPROTECTED                                         */
; 4046 :     /*---------------------------------------------------------------*/
; 4047 :         dev->pos3270 = 0;

  00137	48 8b 84 24 e0
	00 01 00	 mov	 rax, QWORD PTR dev$[rsp]
  0013f	c7 80 bc 06 00
	00 00 00 00 00	 mov	 DWORD PTR [rax+1724], 0

; 4048 :         cmd = R3270_EAU;

  00149	c6 44 24 24 6f	 mov	 BYTE PTR cmd$[rsp], 111	; 0000006fH

; 4049 :         goto write;

  0014e	e9 d4 00 00 00	 jmp	 $write$123
$LN37@loc3270_ex:

; 4050 : 
; 4051 :     case L3270_WRT:
; 4052 :     /*---------------------------------------------------------------*/
; 4053 :     /* WRITE                                                         */
; 4054 :     /*---------------------------------------------------------------*/
; 4055 :         cmd = R3270_WRT;

  00153	c6 44 24 24 f1	 mov	 BYTE PTR cmd$[rsp], 241	; 000000f1H

; 4056 :         goto write;

  00158	e9 ca 00 00 00	 jmp	 $write$123
$LN38@loc3270_ex:

; 4057 : 
; 4058 :     case L3270_EW:
; 4059 :     /*---------------------------------------------------------------*/
; 4060 :     /* ERASE/WRITE                                                   */
; 4061 :     /*---------------------------------------------------------------*/
; 4062 :         dev->pos3270 = 0;

  0015d	48 8b 84 24 e0
	00 01 00	 mov	 rax, QWORD PTR dev$[rsp]
  00165	c7 80 bc 06 00
	00 00 00 00 00	 mov	 DWORD PTR [rax+1724], 0

; 4063 :         cmd = R3270_EW;

  0016f	c6 44 24 24 f5	 mov	 BYTE PTR cmd$[rsp], 245	; 000000f5H

; 4064 :         dev->ewa3270 = 0;

  00174	48 8b 84 24 e0
	00 01 00	 mov	 rax, QWORD PTR dev$[rsp]
  0017c	8b 80 d4 06 00
	00		 mov	 eax, DWORD PTR [rax+1748]
  00182	83 e0 fd	 and	 eax, -3			; fffffffdH
  00185	48 8b 8c 24 e0
	00 01 00	 mov	 rcx, QWORD PTR dev$[rsp]
  0018d	89 81 d4 06 00
	00		 mov	 DWORD PTR [rcx+1748], eax

; 4065 :         goto write;

  00193	e9 8f 00 00 00	 jmp	 $write$123
$LN39@loc3270_ex:

; 4066 : 
; 4067 :     case L3270_EWA:
; 4068 :     /*---------------------------------------------------------------*/
; 4069 :     /* ERASE/WRITE ALTERNATE                                         */
; 4070 :     /*---------------------------------------------------------------*/
; 4071 :         dev->pos3270 = 0;

  00198	48 8b 84 24 e0
	00 01 00	 mov	 rax, QWORD PTR dev$[rsp]
  001a0	c7 80 bc 06 00
	00 00 00 00 00	 mov	 DWORD PTR [rax+1724], 0

; 4072 :         cmd = R3270_EWA;

  001aa	c6 44 24 24 7e	 mov	 BYTE PTR cmd$[rsp], 126	; 0000007eH

; 4073 :         dev->ewa3270 = 1;

  001af	48 8b 84 24 e0
	00 01 00	 mov	 rax, QWORD PTR dev$[rsp]
  001b7	8b 80 d4 06 00
	00		 mov	 eax, DWORD PTR [rax+1748]
  001bd	83 c8 02	 or	 eax, 2
  001c0	48 8b 8c 24 e0
	00 01 00	 mov	 rcx, QWORD PTR dev$[rsp]
  001c8	89 81 d4 06 00
	00		 mov	 DWORD PTR [rcx+1748], eax

; 4074 :         goto write;

  001ce	eb 57		 jmp	 SHORT $write$123
$LN40@loc3270_ex:

; 4075 : 
; 4076 :     case L3270_WSF:
; 4077 :     /*---------------------------------------------------------------*/
; 4078 :     /* WRITE STRUCTURED FIELD                                        */
; 4079 :     /*---------------------------------------------------------------*/
; 4080 :         /* Process WSF command if device has extended attributes */
; 4081 :         if (dev->eab3270)

  001d0	48 8b 84 24 e0
	00 01 00	 mov	 rax, QWORD PTR dev$[rsp]
  001d8	8b 80 d4 06 00
	00		 mov	 eax, DWORD PTR [rax+1748]
  001de	83 e0 01	 and	 eax, 1
  001e1	85 c0		 test	 eax, eax
  001e3	74 19		 je	 SHORT $LN41@loc3270_ex

; 4082 :         {
; 4083 :             dev->pos3270 = 0;

  001e5	48 8b 84 24 e0
	00 01 00	 mov	 rax, QWORD PTR dev$[rsp]
  001ed	c7 80 bc 06 00
	00 00 00 00 00	 mov	 DWORD PTR [rax+1724], 0

; 4084 :             cmd = R3270_WSF;

  001f7	c6 44 24 24 f3	 mov	 BYTE PTR cmd$[rsp], 243	; 000000f3H

; 4085 :             goto write;

  001fc	eb 29		 jmp	 SHORT $write$123
$LN41@loc3270_ex:

; 4086 :         }
; 4087 : 
; 4088 :         /* Operation check, device does not have extended attributes */
; 4089 :         dev->sense[0] = SENSE_OC;

  001fe	b8 01 00 00 00	 mov	 eax, 1
  00203	48 6b c0 00	 imul	 rax, rax, 0
  00207	48 8b 8c 24 e0
	00 01 00	 mov	 rcx, QWORD PTR dev$[rsp]
  0020f	c6 84 01 64 03
	00 00 01	 mov	 BYTE PTR [rcx+rax+868], 1

; 4090 :         *unitstat = CSW_CE | CSW_DE | CSW_UC;

  00217	48 8b 84 24 28
	01 01 00	 mov	 rax, QWORD PTR unitstat$[rsp]
  0021f	c6 00 0e	 mov	 BYTE PTR [rax], 14

; 4091 :         break;

  00222	e9 be 10 00 00	 jmp	 $LN8@loc3270_ex
$write$123:

; 4092 : 
; 4093 :     write:
; 4094 :     /*---------------------------------------------------------------*/
; 4095 :     /* All write commands, and the EAU control command, come here    */
; 4096 :     /*---------------------------------------------------------------*/
; 4097 :         /* Initialize the data length */
; 4098 :         len = 0;

  00227	c7 44 24 20 00
	00 00 00	 mov	 DWORD PTR len$[rsp], 0

; 4099 : 
; 4100 :         /* Calculate number of bytes to move and residual byte count */
; 4101 :         num = sizeof(buf) / 2;

  0022f	c7 44 24 28 00
	80 00 00	 mov	 DWORD PTR num$[rsp], 32768 ; 00008000H

; 4102 :         num = (count < num) ? count : num;

  00237	8b 44 24 28	 mov	 eax, DWORD PTR num$[rsp]
  0023b	39 84 24 00 01
	01 00		 cmp	 DWORD PTR count$[rsp], eax
  00242	73 0d		 jae	 SHORT $LN87@loc3270_ex
  00244	8b 84 24 00 01
	01 00		 mov	 eax, DWORD PTR count$[rsp]
  0024b	89 44 24 40	 mov	 DWORD PTR tv132[rsp], eax
  0024f	eb 08		 jmp	 SHORT $LN88@loc3270_ex
$LN87@loc3270_ex:
  00251	8b 44 24 28	 mov	 eax, DWORD PTR num$[rsp]
  00255	89 44 24 40	 mov	 DWORD PTR tv132[rsp], eax
$LN88@loc3270_ex:
  00259	8b 44 24 40	 mov	 eax, DWORD PTR tv132[rsp]
  0025d	89 44 24 28	 mov	 DWORD PTR num$[rsp], eax

; 4103 :         if (cmd == R3270_EAU) num = 0;

  00261	0f b6 44 24 24	 movzx	 eax, BYTE PTR cmd$[rsp]
  00266	83 f8 6f	 cmp	 eax, 111		; 0000006fH
  00269	75 08		 jne	 SHORT $LN42@loc3270_ex
  0026b	c7 44 24 28 00
	00 00 00	 mov	 DWORD PTR num$[rsp], 0
$LN42@loc3270_ex:

; 4104 :         *residual = count - num;

  00273	8b 44 24 28	 mov	 eax, DWORD PTR num$[rsp]
  00277	8b 8c 24 00 01
	01 00		 mov	 ecx, DWORD PTR count$[rsp]
  0027e	2b c8		 sub	 ecx, eax
  00280	8b c1		 mov	 eax, ecx
  00282	48 8b 8c 24 30
	01 01 00	 mov	 rcx, QWORD PTR residual$[rsp]
  0028a	89 01		 mov	 DWORD PTR [rcx], eax

; 4105 : 
; 4106 :         /* Move the 3270 command code to the first byte of the buffer
; 4107 :            unless data-chained from previous CCW
; 4108 :         */
; 4109 :         if (!(chained & CCW_FLAGS_CD))

  0028c	0f b6 84 24 f8
	00 01 00	 movzx	 eax, BYTE PTR chained$[rsp]
  00294	25 80 00 00 00	 and	 eax, 128		; 00000080H
  00299	85 c0		 test	 eax, eax
  0029b	0f 85 dc 01 00
	00		 jne	 $LN43@loc3270_ex

; 4110 :         {
; 4111 :             buf[len++] = cmd;

  002a1	8b 44 24 20	 mov	 eax, DWORD PTR len$[rsp]
  002a5	0f b6 4c 24 24	 movzx	 ecx, BYTE PTR cmd$[rsp]
  002aa	88 8c 04 b0 00
	00 00		 mov	 BYTE PTR buf$[rsp+rax], cl
  002b1	8b 44 24 20	 mov	 eax, DWORD PTR len$[rsp]
  002b5	ff c0		 inc	 eax
  002b7	89 44 24 20	 mov	 DWORD PTR len$[rsp], eax

; 4112 : 
; 4113 :             /* If this is a chained write then we start at the
; 4114 :                current buffer address, not the cursor address,
; 4115 :                and if the datastream's first action isn't already
; 4116 :                a positioning action, we also insert an SBA order
; 4117 :                to reposition to that buffer address.
; 4118 :             */
; 4119 :             if (1
; 4120 :                 && (chained && R3270_WRT == cmd) // (chained write?)
; 4121 :                 && dev->pos3270 != 0             // (not positioned at beginning?)
; 4122 :                 && (1                            // (position wasn't specified?)

  002bb	33 c0		 xor	 eax, eax
  002bd	83 f8 01	 cmp	 eax, 1
  002c0	0f 84 b7 01 00
	00		 je	 $LN44@loc3270_ex
  002c6	0f b6 84 24 f8
	00 01 00	 movzx	 eax, BYTE PTR chained$[rsp]
  002ce	85 c0		 test	 eax, eax
  002d0	0f 84 a7 01 00
	00		 je	 $LN44@loc3270_ex
  002d6	0f b6 44 24 24	 movzx	 eax, BYTE PTR cmd$[rsp]
  002db	3d f1 00 00 00	 cmp	 eax, 241		; 000000f1H
  002e0	0f 85 97 01 00
	00		 jne	 $LN44@loc3270_ex
  002e6	48 8b 84 24 e0
	00 01 00	 mov	 rax, QWORD PTR dev$[rsp]
  002ee	83 b8 bc 06 00
	00 00		 cmp	 DWORD PTR [rax+1724], 0
  002f5	0f 84 82 01 00
	00		 je	 $LN44@loc3270_ex
  002fb	33 c0		 xor	 eax, eax
  002fd	83 f8 01	 cmp	 eax, 1
  00300	0f 84 77 01 00
	00		 je	 $LN44@loc3270_ex
  00306	b8 01 00 00 00	 mov	 eax, 1
  0030b	48 6b c0 01	 imul	 rax, rax, 1
  0030f	48 8b 8c 24 18
	01 01 00	 mov	 rcx, QWORD PTR iobuf$[rsp]
  00317	0f b6 04 01	 movzx	 eax, BYTE PTR [rcx+rax]
  0031b	83 f8 11	 cmp	 eax, 17
  0031e	0f 84 59 01 00
	00		 je	 $LN44@loc3270_ex
  00324	b8 01 00 00 00	 mov	 eax, 1
  00329	48 6b c0 01	 imul	 rax, rax, 1
  0032d	48 8b 8c 24 18
	01 01 00	 mov	 rcx, QWORD PTR iobuf$[rsp]
  00335	0f b6 04 01	 movzx	 eax, BYTE PTR [rcx+rax]
  00339	83 f8 3c	 cmp	 eax, 60			; 0000003cH
  0033c	0f 84 3b 01 00
	00		 je	 $LN44@loc3270_ex
  00342	b8 01 00 00 00	 mov	 eax, 1
  00347	48 6b c0 01	 imul	 rax, rax, 1
  0034b	48 8b 8c 24 18
	01 01 00	 mov	 rcx, QWORD PTR iobuf$[rsp]
  00353	0f b6 04 01	 movzx	 eax, BYTE PTR [rcx+rax]
  00357	83 f8 12	 cmp	 eax, 18
  0035a	0f 84 1d 01 00
	00		 je	 $LN44@loc3270_ex

; 4123 :                     && iobuf[1] != O3270_SBA
; 4124 :                     && iobuf[1] != O3270_RA
; 4125 :                     && iobuf[1] != O3270_EUA
; 4126 :                    )
; 4127 :             )
; 4128 :             {
; 4129 :                 /* Copy the write control character and adjust buffer */
; 4130 :                 buf[len++] = *iobuf++;

  00360	8b 44 24 20	 mov	 eax, DWORD PTR len$[rsp]
  00364	48 8b 8c 24 18
	01 01 00	 mov	 rcx, QWORD PTR iobuf$[rsp]
  0036c	0f b6 09	 movzx	 ecx, BYTE PTR [rcx]
  0036f	88 8c 04 b0 00
	00 00		 mov	 BYTE PTR buf$[rsp+rax], cl
  00376	8b 44 24 20	 mov	 eax, DWORD PTR len$[rsp]
  0037a	ff c0		 inc	 eax
  0037c	89 44 24 20	 mov	 DWORD PTR len$[rsp], eax
  00380	48 8b 84 24 18
	01 01 00	 mov	 rax, QWORD PTR iobuf$[rsp]
  00388	48 ff c0	 inc	 rax
  0038b	48 89 84 24 18
	01 01 00	 mov	 QWORD PTR iobuf$[rsp], rax

; 4131 :                 num--;

  00393	8b 44 24 28	 mov	 eax, DWORD PTR num$[rsp]
  00397	ff c8		 dec	 eax
  00399	89 44 24 28	 mov	 DWORD PTR num$[rsp], eax

; 4132 : 
; 4133 :                 /* Insert the SBA order */
; 4134 :                 buf[len++] = O3270_SBA;

  0039d	8b 44 24 20	 mov	 eax, DWORD PTR len$[rsp]
  003a1	c6 84 04 b0 00
	00 00 11	 mov	 BYTE PTR buf$[rsp+rax], 17
  003a9	8b 44 24 20	 mov	 eax, DWORD PTR len$[rsp]
  003ad	ff c0		 inc	 eax
  003af	89 44 24 20	 mov	 DWORD PTR len$[rsp], eax

; 4135 : 
; 4136 :                 if (dev->pos3270 < 4096)

  003b3	48 8b 84 24 e0
	00 01 00	 mov	 rax, QWORD PTR dev$[rsp]
  003bb	81 b8 bc 06 00
	00 00 10 00 00	 cmp	 DWORD PTR [rax+1724], 4096 ; 00001000H
  003c5	7d 68		 jge	 SHORT $LN45@loc3270_ex

; 4137 :                 {
; 4138 :                     buf[len++] = sba_code[ dev->pos3270 >> 6 ];

  003c7	48 8b 84 24 e0
	00 01 00	 mov	 rax, QWORD PTR dev$[rsp]
  003cf	8b 80 bc 06 00
	00		 mov	 eax, DWORD PTR [rax+1724]
  003d5	c1 f8 06	 sar	 eax, 6
  003d8	48 98		 cdqe
  003da	48 8d 0d 00 00
	00 00		 lea	 rcx, OFFSET FLAT:sba_code
  003e1	8b 54 24 20	 mov	 edx, DWORD PTR len$[rsp]
  003e5	0f b6 04 01	 movzx	 eax, BYTE PTR [rcx+rax]
  003e9	88 84 14 b0 00
	00 00		 mov	 BYTE PTR buf$[rsp+rdx], al
  003f0	8b 44 24 20	 mov	 eax, DWORD PTR len$[rsp]
  003f4	ff c0		 inc	 eax
  003f6	89 44 24 20	 mov	 DWORD PTR len$[rsp], eax

; 4139 :                     buf[len++] = sba_code[ dev->pos3270 & 0x3F ];

  003fa	48 8b 84 24 e0
	00 01 00	 mov	 rax, QWORD PTR dev$[rsp]
  00402	8b 80 bc 06 00
	00		 mov	 eax, DWORD PTR [rax+1724]
  00408	83 e0 3f	 and	 eax, 63			; 0000003fH
  0040b	48 98		 cdqe
  0040d	48 8d 0d 00 00
	00 00		 lea	 rcx, OFFSET FLAT:sba_code
  00414	8b 54 24 20	 mov	 edx, DWORD PTR len$[rsp]
  00418	0f b6 04 01	 movzx	 eax, BYTE PTR [rcx+rax]
  0041c	88 84 14 b0 00
	00 00		 mov	 BYTE PTR buf$[rsp+rdx], al
  00423	8b 44 24 20	 mov	 eax, DWORD PTR len$[rsp]
  00427	ff c0		 inc	 eax
  00429	89 44 24 20	 mov	 DWORD PTR len$[rsp], eax

; 4140 :                 }

  0042d	eb 4e		 jmp	 SHORT $LN46@loc3270_ex
$LN45@loc3270_ex:

; 4141 :                 else // (pos3270 >= 4096)
; 4142 :                 {
; 4143 :                     buf[len++] = dev->pos3270 >> 8;

  0042f	48 8b 84 24 e0
	00 01 00	 mov	 rax, QWORD PTR dev$[rsp]
  00437	8b 80 bc 06 00
	00		 mov	 eax, DWORD PTR [rax+1724]
  0043d	c1 f8 08	 sar	 eax, 8
  00440	8b 4c 24 20	 mov	 ecx, DWORD PTR len$[rsp]
  00444	88 84 0c b0 00
	00 00		 mov	 BYTE PTR buf$[rsp+rcx], al
  0044b	8b 44 24 20	 mov	 eax, DWORD PTR len$[rsp]
  0044f	ff c0		 inc	 eax
  00451	89 44 24 20	 mov	 DWORD PTR len$[rsp], eax

; 4144 :                     buf[len++] = dev->pos3270 & 0xFF;

  00455	48 8b 84 24 e0
	00 01 00	 mov	 rax, QWORD PTR dev$[rsp]
  0045d	8b 80 bc 06 00
	00		 mov	 eax, DWORD PTR [rax+1724]
  00463	25 ff 00 00 00	 and	 eax, 255		; 000000ffH
  00468	8b 4c 24 20	 mov	 ecx, DWORD PTR len$[rsp]
  0046c	88 84 0c b0 00
	00 00		 mov	 BYTE PTR buf$[rsp+rcx], al
  00473	8b 44 24 20	 mov	 eax, DWORD PTR len$[rsp]
  00477	ff c0		 inc	 eax
  00479	89 44 24 20	 mov	 DWORD PTR len$[rsp], eax
$LN46@loc3270_ex:
$LN44@loc3270_ex:
$LN43@loc3270_ex:

; 4145 :                 }
; 4146 :             }
; 4147 :         }
; 4148 : 
; 4149 :         /* Save the screen position at completion of the write.
; 4150 :            This is necessary in case a Read Buffer command is
; 4151 :            chained from another write or read.  Note that this
; 4152 :            does NOT apply for the Write Structured Field cmd.
; 4153 :         */
; 4154 :         if (cmd != R3270_WSF)

  0047d	0f b6 44 24 24	 movzx	 eax, BYTE PTR cmd$[rsp]
  00482	3d f3 00 00 00	 cmp	 eax, 243		; 000000f3H
  00487	0f 84 bb 00 00
	00		 je	 $LN47@loc3270_ex

; 4155 :         {
; 4156 :             dev->pos3270 = end_of_buf_pos

  0048d	0f b6 84 24 f8
	00 01 00	 movzx	 eax, BYTE PTR chained$[rsp]
  00495	25 80 00 00 00	 and	 eax, 128		; 00000080H
  0049a	85 c0		 test	 eax, eax
  0049c	75 0a		 jne	 SHORT $LN89@loc3270_ex
  0049e	c7 44 24 44 01
	00 00 00	 mov	 DWORD PTR tv214[rsp], 1
  004a6	eb 08		 jmp	 SHORT $LN90@loc3270_ex
$LN89@loc3270_ex:
  004a8	c7 44 24 44 00
	00 00 00	 mov	 DWORD PTR tv214[rsp], 0
$LN90@loc3270_ex:
  004b0	83 7c 24 44 00	 cmp	 DWORD PTR tv214[rsp], 0
  004b5	74 0c		 je	 SHORT $LN91@loc3270_ex
  004b7	8b 44 24 28	 mov	 eax, DWORD PTR num$[rsp]
  004bb	ff c8		 dec	 eax
  004bd	89 44 24 4c	 mov	 DWORD PTR tv217[rsp], eax
  004c1	eb 08		 jmp	 SHORT $LN92@loc3270_ex
$LN91@loc3270_ex:
  004c3	8b 44 24 28	 mov	 eax, DWORD PTR num$[rsp]
  004c7	89 44 24 4c	 mov	 DWORD PTR tv217[rsp], eax
$LN92@loc3270_ex:
  004cb	0f b6 84 24 f8
	00 01 00	 movzx	 eax, BYTE PTR chained$[rsp]
  004d3	25 80 00 00 00	 and	 eax, 128		; 00000080H
  004d8	85 c0		 test	 eax, eax
  004da	75 0a		 jne	 SHORT $LN93@loc3270_ex
  004dc	c7 44 24 48 01
	00 00 00	 mov	 DWORD PTR tv222[rsp], 1
  004e4	eb 08		 jmp	 SHORT $LN94@loc3270_ex
$LN93@loc3270_ex:
  004e6	c7 44 24 48 00
	00 00 00	 mov	 DWORD PTR tv222[rsp], 0
$LN94@loc3270_ex:
  004ee	83 7c 24 48 00	 cmp	 DWORD PTR tv222[rsp], 0
  004f3	74 15		 je	 SHORT $LN95@loc3270_ex
  004f5	48 8b 84 24 18
	01 01 00	 mov	 rax, QWORD PTR iobuf$[rsp]
  004fd	48 ff c0	 inc	 rax
  00500	48 89 84 24 88
	00 00 00	 mov	 QWORD PTR tv225[rsp], rax
  00508	eb 10		 jmp	 SHORT $LN96@loc3270_ex
$LN95@loc3270_ex:
  0050a	48 8b 84 24 18
	01 01 00	 mov	 rax, QWORD PTR iobuf$[rsp]
  00512	48 89 84 24 88
	00 00 00	 mov	 QWORD PTR tv225[rsp], rax
$LN96@loc3270_ex:
  0051a	44 8b 44 24 4c	 mov	 r8d, DWORD PTR tv217[rsp]
  0051f	48 8b 94 24 88
	00 00 00	 mov	 rdx, QWORD PTR tv225[rsp]
  00527	48 8b 84 24 e0
	00 01 00	 mov	 rax, QWORD PTR dev$[rsp]
  0052f	8b 88 bc 06 00
	00		 mov	 ecx, DWORD PTR [rax+1724]
  00535	e8 00 00 00 00	 call	 end_of_buf_pos
  0053a	48 8b 8c 24 e0
	00 01 00	 mov	 rcx, QWORD PTR dev$[rsp]
  00542	89 81 bc 06 00
	00		 mov	 DWORD PTR [rcx+1724], eax
$LN47@loc3270_ex:

; 4157 :             (
; 4158 :                 dev->pos3270,
; 4159 :                 //                           CD       not CD
; 4160 :                 !(chained & CCW_FLAGS_CD) ? iobuf+1 : iobuf,
; 4161 :                 !(chained & CCW_FLAGS_CD) ? num-1   : num
; 4162 :             );
; 4163 :         }
; 4164 : 
; 4165 :         /* Copy data from channel buffer to device buffer */
; 4166 :         memcpy( buf + len, iobuf, num );

  00548	8b 44 24 28	 mov	 eax, DWORD PTR num$[rsp]
  0054c	8b 4c 24 20	 mov	 ecx, DWORD PTR len$[rsp]
  00550	48 8d 8c 0c b0
	00 00 00	 lea	 rcx, QWORD PTR buf$[rsp+rcx]
  00558	48 8b f9	 mov	 rdi, rcx
  0055b	48 8b b4 24 18
	01 01 00	 mov	 rsi, QWORD PTR iobuf$[rsp]
  00563	8b c8		 mov	 ecx, eax
  00565	f3 a4		 rep movsb

; 4167 :         len += num;

  00567	8b 44 24 28	 mov	 eax, DWORD PTR num$[rsp]
  0056b	8b 4c 24 20	 mov	 ecx, DWORD PTR len$[rsp]
  0056f	03 c8		 add	 ecx, eax
  00571	8b c1		 mov	 eax, ecx
  00573	89 44 24 20	 mov	 DWORD PTR len$[rsp], eax

; 4168 : 
; 4169 :         /* Send the data to the client */
; 4170 :         if (!sendto_client( dev->tn, buf, len ))

  00577	44 8b 44 24 20	 mov	 r8d, DWORD PTR len$[rsp]
  0057c	48 8d 94 24 b0
	00 00 00	 lea	 rdx, QWORD PTR buf$[rsp]
  00584	48 8b 84 24 e0
	00 01 00	 mov	 rax, QWORD PTR dev$[rsp]
  0058c	48 8b 88 b0 06
	00 00		 mov	 rcx, QWORD PTR [rax+1712]
  00593	e8 00 00 00 00	 call	 sendto_client
  00598	0f b6 c0	 movzx	 eax, al
  0059b	85 c0		 test	 eax, eax
  0059d	75 29		 jne	 SHORT $LN48@loc3270_ex

; 4171 :         {
; 4172 :             /* Return with Unit Check status if the send failed */
; 4173 :             dev->sense[0] = SENSE_DC;

  0059f	b8 01 00 00 00	 mov	 eax, 1
  005a4	48 6b c0 00	 imul	 rax, rax, 0
  005a8	48 8b 8c 24 e0
	00 01 00	 mov	 rcx, QWORD PTR dev$[rsp]
  005b0	c6 84 01 64 03
	00 00 08	 mov	 BYTE PTR [rcx+rax+868], 8

; 4174 :             *unitstat = CSW_CE | CSW_DE | CSW_UC;

  005b8	48 8b 84 24 28
	01 01 00	 mov	 rax, QWORD PTR unitstat$[rsp]
  005c0	c6 00 0e	 mov	 BYTE PTR [rax], 14

; 4175 :             break;

  005c3	e9 1d 0d 00 00	 jmp	 $LN8@loc3270_ex
$LN48@loc3270_ex:

; 4176 :         }
; 4177 : 
; 4178 :         /* Return normal status */
; 4179 :         *unitstat = CSW_CE | CSW_DE;

  005c8	48 8b 84 24 28
	01 01 00	 mov	 rax, QWORD PTR unitstat$[rsp]
  005d0	c6 00 0c	 mov	 BYTE PTR [rax], 12

; 4180 :         break;

  005d3	e9 0d 0d 00 00	 jmp	 $LN8@loc3270_ex
$LN49@loc3270_ex:

; 4181 : 
; 4182 :     case L3270_RB:
; 4183 :     /*---------------------------------------------------------------*/
; 4184 :     /* READ BUFFER                                                   */
; 4185 :     /*---------------------------------------------------------------*/
; 4186 :         /* Obtain the device lock */
; 4187 :         obtain_lock (&dev->lock);

  005d8	48 8b 84 24 e0
	00 01 00	 mov	 rax, QWORD PTR dev$[rsp]
  005e0	48 83 c0 38	 add	 rax, 56			; 00000038H
  005e4	48 8d 15 00 00
	00 00		 lea	 rdx, OFFSET FLAT:$SG179562
  005eb	48 8b c8	 mov	 rcx, rax
  005ee	ff 15 00 00 00
	00		 call	 QWORD PTR __imp_hthread_obtain_lock

; 4188 : 
; 4189 :         /* AID is only present during the first read */
; 4190 :         aid = dev->readpending != 2;

  005f4	48 8b 84 24 e0
	00 01 00	 mov	 rax, QWORD PTR dev$[rsp]
  005fc	8b 80 f8 05 00
	00		 mov	 eax, DWORD PTR [rax+1528]
  00602	c1 e8 06	 shr	 eax, 6
  00605	83 e0 03	 and	 eax, 3
  00608	83 f8 02	 cmp	 eax, 2
  0060b	74 0a		 je	 SHORT $LN97@loc3270_ex
  0060d	c7 44 24 50 01
	00 00 00	 mov	 DWORD PTR tv255[rsp], 1
  00615	eb 08		 jmp	 SHORT $LN98@loc3270_ex
$LN97@loc3270_ex:
  00617	c7 44 24 50 00
	00 00 00	 mov	 DWORD PTR tv255[rsp], 0
$LN98@loc3270_ex:
  0061f	8b 44 24 50	 mov	 eax, DWORD PTR tv255[rsp]
  00623	89 44 24 2c	 mov	 DWORD PTR aid$[rsp], eax

; 4191 :         if (dev->readpending == 3)

  00627	48 8b 84 24 e0
	00 01 00	 mov	 rax, QWORD PTR dev$[rsp]
  0062f	8b 80 f8 05 00
	00		 mov	 eax, DWORD PTR [rax+1528]
  00635	c1 e8 06	 shr	 eax, 6
  00638	83 e0 03	 and	 eax, 3
  0063b	83 f8 03	 cmp	 eax, 3
  0063e	75 2c		 jne	 SHORT $LN50@loc3270_ex

; 4192 :         {
; 4193 :             dev->readpending = 1;

  00640	48 8b 84 24 e0
	00 01 00	 mov	 rax, QWORD PTR dev$[rsp]
  00648	8b 80 f8 05 00
	00		 mov	 eax, DWORD PTR [rax+1528]
  0064e	25 3f ff ff ff	 and	 eax, -193		; ffffff3fH
  00653	83 c8 40	 or	 eax, 64			; 00000040H
  00656	48 8b 8c 24 e0
	00 01 00	 mov	 rcx, QWORD PTR dev$[rsp]
  0065e	89 81 f8 05 00
	00		 mov	 DWORD PTR [rcx+1528], eax

; 4194 :             aid = 3;

  00664	c7 44 24 2c 03
	00 00 00	 mov	 DWORD PTR aid$[rsp], 3
$LN50@loc3270_ex:

; 4195 :         }
; 4196 :         /* Receive buffer data from client if not data chained */
; 4197 :         if (!(chained & CCW_FLAGS_CD))

  0066c	0f b6 84 24 f8
	00 01 00	 movzx	 eax, BYTE PTR chained$[rsp]
  00674	25 80 00 00 00	 and	 eax, 128		; 00000080H
  00679	85 c0		 test	 eax, eax
  0067b	0f 85 80 01 00
	00		 jne	 $LN51@loc3270_ex

; 4198 :         {
; 4199 :             /* Send read buffer command to client and await response */
; 4200 :             rc = solicit_3270_data (dev, R3270_RB);

  00681	b2 f2		 mov	 dl, 242			; 000000f2H
  00683	48 8b 8c 24 e0
	00 01 00	 mov	 rcx, QWORD PTR dev$[rsp]
  0068b	e8 00 00 00 00	 call	 solicit_3270_data
  00690	0f b6 c0	 movzx	 eax, al
  00693	89 44 24 3c	 mov	 DWORD PTR rc$[rsp], eax

; 4201 :             if (rc & CSW_UC)

  00697	8b 44 24 3c	 mov	 eax, DWORD PTR rc$[rsp]
  0069b	83 e0 02	 and	 eax, 2
  0069e	85 c0		 test	 eax, eax
  006a0	74 2c		 je	 SHORT $LN53@loc3270_ex

; 4202 :             {
; 4203 :                 *unitstat = CSW_CE | CSW_DE | CSW_UC;

  006a2	48 8b 84 24 28
	01 01 00	 mov	 rax, QWORD PTR unitstat$[rsp]
  006aa	c6 00 0e	 mov	 BYTE PTR [rax], 14

; 4204 :                 release_lock (&dev->lock);

  006ad	48 8b 84 24 e0
	00 01 00	 mov	 rax, QWORD PTR dev$[rsp]
  006b5	48 83 c0 38	 add	 rax, 56			; 00000038H
  006b9	48 8d 15 00 00
	00 00		 lea	 rdx, OFFSET FLAT:$SG179567
  006c0	48 8b c8	 mov	 rcx, rax
  006c3	ff 15 00 00 00
	00		 call	 QWORD PTR __imp_hthread_release_lock

; 4205 :                 break;

  006c9	e9 17 0c 00 00	 jmp	 $LN8@loc3270_ex
$LN53@loc3270_ex:

; 4206 :             }
; 4207 : 
; 4208 :             /* Set AID in buffer flag */
; 4209 :             aid = 1;

  006ce	c7 44 24 2c 01
	00 00 00	 mov	 DWORD PTR aid$[rsp], 1

; 4210 : 
; 4211 :             /* Save the AID of the current inbound transmission */
; 4212 :             dev->aid3270 = dev->buf[0];

  006d6	b8 01 00 00 00	 mov	 eax, 1
  006db	48 6b c0 00	 imul	 rax, rax, 0
  006df	48 8b 8c 24 e0
	00 01 00	 mov	 rcx, QWORD PTR dev$[rsp]
  006e7	48 8b 89 c8 01
	00 00		 mov	 rcx, QWORD PTR [rcx+456]
  006ee	48 8b 94 24 e0
	00 01 00	 mov	 rdx, QWORD PTR dev$[rsp]
  006f6	0f b6 04 08	 movzx	 eax, BYTE PTR [rax+rcx]
  006fa	88 82 d8 06 00
	00		 mov	 BYTE PTR [rdx+1752], al

; 4213 : 
; 4214 :             if (dev->pos3270 != 0 && dev->aid3270 != SF3270_AID)

  00700	48 8b 84 24 e0
	00 01 00	 mov	 rax, QWORD PTR dev$[rsp]
  00708	83 b8 bc 06 00
	00 00		 cmp	 DWORD PTR [rax+1724], 0
  0070f	0f 84 ea 00 00
	00		 je	 $LN54@loc3270_ex
  00715	48 8b 84 24 e0
	00 01 00	 mov	 rax, QWORD PTR dev$[rsp]
  0071d	0f b6 80 d8 06
	00 00		 movzx	 eax, BYTE PTR [rax+1752]
  00724	3d 88 00 00 00	 cmp	 eax, 136		; 00000088H
  00729	0f 84 d0 00 00
	00		 je	 $LN54@loc3270_ex

; 4215 :             {
; 4216 :                 /* Find offset in buffer of current screen position */
; 4217 :                 off = pos_to_buff_offset( dev->pos3270,

  0072f	48 8b 84 24 e0
	00 01 00	 mov	 rax, QWORD PTR dev$[rsp]
  00737	44 8b 80 b8 06
	00 00		 mov	 r8d, DWORD PTR [rax+1720]
  0073e	48 8b 84 24 e0
	00 01 00	 mov	 rax, QWORD PTR dev$[rsp]
  00746	48 8b 90 c8 01
	00 00		 mov	 rdx, QWORD PTR [rax+456]
  0074d	48 8b 84 24 e0
	00 01 00	 mov	 rax, QWORD PTR dev$[rsp]
  00755	8b 88 bc 06 00
	00		 mov	 ecx, DWORD PTR [rax+1724]
  0075b	e8 00 00 00 00	 call	 pos_to_buff_offset
  00760	89 44 24 34	 mov	 DWORD PTR off$[rsp], eax

; 4218 :                     dev->buf, dev->rlen3270 );
; 4219 : 
; 4220 :                 /* Shift out unwanted characters from buffer */
; 4221 :                 num = (dev->rlen3270 > off ? dev->rlen3270 - off : 0);

  00764	48 8b 84 24 e0
	00 01 00	 mov	 rax, QWORD PTR dev$[rsp]
  0076c	8b 4c 24 34	 mov	 ecx, DWORD PTR off$[rsp]
  00770	39 88 b8 06 00
	00		 cmp	 DWORD PTR [rax+1720], ecx
  00776	76 1a		 jbe	 SHORT $LN99@loc3270_ex
  00778	48 8b 84 24 e0
	00 01 00	 mov	 rax, QWORD PTR dev$[rsp]
  00780	8b 4c 24 34	 mov	 ecx, DWORD PTR off$[rsp]
  00784	8b 80 b8 06 00
	00		 mov	 eax, DWORD PTR [rax+1720]
  0078a	2b c1		 sub	 eax, ecx
  0078c	89 44 24 54	 mov	 DWORD PTR tv296[rsp], eax
  00790	eb 08		 jmp	 SHORT $LN100@loc3270_ex
$LN99@loc3270_ex:
  00792	c7 44 24 54 00
	00 00 00	 mov	 DWORD PTR tv296[rsp], 0
$LN100@loc3270_ex:
  0079a	8b 44 24 54	 mov	 eax, DWORD PTR tv296[rsp]
  0079e	89 44 24 28	 mov	 DWORD PTR num$[rsp], eax

; 4222 :                 memmove (dev->buf + 3, dev->buf + off, num);

  007a2	8b 44 24 28	 mov	 eax, DWORD PTR num$[rsp]
  007a6	8b 4c 24 34	 mov	 ecx, DWORD PTR off$[rsp]
  007aa	48 8b 94 24 e0
	00 01 00	 mov	 rdx, QWORD PTR dev$[rsp]
  007b2	48 03 8a c8 01
	00 00		 add	 rcx, QWORD PTR [rdx+456]
  007b9	48 8b 94 24 e0
	00 01 00	 mov	 rdx, QWORD PTR dev$[rsp]
  007c1	48 8b 92 c8 01
	00 00		 mov	 rdx, QWORD PTR [rdx+456]
  007c8	48 83 c2 03	 add	 rdx, 3
  007cc	48 89 94 24 a0
	00 00 00	 mov	 QWORD PTR tv305[rsp], rdx
  007d4	44 8b c0	 mov	 r8d, eax
  007d7	48 8b d1	 mov	 rdx, rcx
  007da	48 8b 84 24 a0
	00 00 00	 mov	 rax, QWORD PTR tv305[rsp]
  007e2	48 8b c8	 mov	 rcx, rax
  007e5	e8 00 00 00 00	 call	 memmove

; 4223 :                 dev->rlen3270 = 3 + num;

  007ea	8b 44 24 28	 mov	 eax, DWORD PTR num$[rsp]
  007ee	83 c0 03	 add	 eax, 3
  007f1	48 8b 8c 24 e0
	00 01 00	 mov	 rcx, QWORD PTR dev$[rsp]
  007f9	89 81 b8 06 00
	00		 mov	 DWORD PTR [rcx+1720], eax
$LN54@loc3270_ex:

; 4224 :             }
; 4225 :         }

  007ff	eb 08		 jmp	 SHORT $LN52@loc3270_ex
$LN51@loc3270_ex:

; 4226 : 
; 4227 :         else aid = 0;

  00801	c7 44 24 2c 00
	00 00 00	 mov	 DWORD PTR aid$[rsp], 0
$LN52@loc3270_ex:

; 4228 : 
; 4229 :         /* Calculate number of bytes to move and residual byte count */
; 4230 :         len = dev->rlen3270;

  00809	48 8b 84 24 e0
	00 01 00	 mov	 rax, QWORD PTR dev$[rsp]
  00811	8b 80 b8 06 00
	00		 mov	 eax, DWORD PTR [rax+1720]
  00817	89 44 24 20	 mov	 DWORD PTR len$[rsp], eax

; 4231 :         num = (count < len) ? count : len;

  0081b	8b 44 24 20	 mov	 eax, DWORD PTR len$[rsp]
  0081f	39 84 24 00 01
	01 00		 cmp	 DWORD PTR count$[rsp], eax
  00826	73 0d		 jae	 SHORT $LN101@loc3270_ex
  00828	8b 84 24 00 01
	01 00		 mov	 eax, DWORD PTR count$[rsp]
  0082f	89 44 24 58	 mov	 DWORD PTR tv310[rsp], eax
  00833	eb 08		 jmp	 SHORT $LN102@loc3270_ex
$LN101@loc3270_ex:
  00835	8b 44 24 20	 mov	 eax, DWORD PTR len$[rsp]
  00839	89 44 24 58	 mov	 DWORD PTR tv310[rsp], eax
$LN102@loc3270_ex:
  0083d	8b 44 24 58	 mov	 eax, DWORD PTR tv310[rsp]
  00841	89 44 24 28	 mov	 DWORD PTR num$[rsp], eax

; 4232 :         *residual = count - num;

  00845	8b 44 24 28	 mov	 eax, DWORD PTR num$[rsp]
  00849	8b 8c 24 00 01
	01 00		 mov	 ecx, DWORD PTR count$[rsp]
  00850	2b c8		 sub	 ecx, eax
  00852	8b c1		 mov	 eax, ecx
  00854	48 8b 8c 24 30
	01 01 00	 mov	 rcx, QWORD PTR residual$[rsp]
  0085c	89 01		 mov	 DWORD PTR [rcx], eax

; 4233 :         if (count < len) *more = 1;

  0085e	8b 44 24 20	 mov	 eax, DWORD PTR len$[rsp]
  00862	39 84 24 00 01
	01 00		 cmp	 DWORD PTR count$[rsp], eax
  00869	73 0b		 jae	 SHORT $LN55@loc3270_ex
  0086b	48 8b 84 24 20
	01 01 00	 mov	 rax, QWORD PTR more$[rsp]
  00873	c6 00 01	 mov	 BYTE PTR [rax], 1
$LN55@loc3270_ex:

; 4234 : 
; 4235 :         /*  Save the screen position at completion of the read.
; 4236 :            This is necessary in case a Read Buffer command is chained
; 4237 :            from another write or read.
; 4238 :         */
; 4239 :         if (dev->aid3270 != SF3270_AID)

  00876	48 8b 84 24 e0
	00 01 00	 mov	 rax, QWORD PTR dev$[rsp]
  0087e	0f b6 80 d8 06
	00 00		 movzx	 eax, BYTE PTR [rax+1752]
  00885	3d 88 00 00 00	 cmp	 eax, 136		; 00000088H
  0088a	0f 84 85 00 00
	00		 je	 $LN56@loc3270_ex

; 4240 :         {
; 4241 :             dev->pos3270 = end_of_buf_pos( dev->pos3270,

  00890	83 7c 24 2c 00	 cmp	 DWORD PTR aid$[rsp], 0
  00895	74 0d		 je	 SHORT $LN103@loc3270_ex
  00897	8b 44 24 28	 mov	 eax, DWORD PTR num$[rsp]
  0089b	83 e8 03	 sub	 eax, 3
  0089e	89 44 24 5c	 mov	 DWORD PTR tv320[rsp], eax
  008a2	eb 08		 jmp	 SHORT $LN104@loc3270_ex
$LN103@loc3270_ex:
  008a4	8b 44 24 28	 mov	 eax, DWORD PTR num$[rsp]
  008a8	89 44 24 5c	 mov	 DWORD PTR tv320[rsp], eax
$LN104@loc3270_ex:
  008ac	83 7c 24 2c 00	 cmp	 DWORD PTR aid$[rsp], 0
  008b1	74 1d		 je	 SHORT $LN105@loc3270_ex
  008b3	48 8b 84 24 e0
	00 01 00	 mov	 rax, QWORD PTR dev$[rsp]
  008bb	48 8b 80 c8 01
	00 00		 mov	 rax, QWORD PTR [rax+456]
  008c2	48 83 c0 03	 add	 rax, 3
  008c6	48 89 84 24 90
	00 00 00	 mov	 QWORD PTR tv326[rsp], rax
  008ce	eb 17		 jmp	 SHORT $LN106@loc3270_ex
$LN105@loc3270_ex:
  008d0	48 8b 84 24 e0
	00 01 00	 mov	 rax, QWORD PTR dev$[rsp]
  008d8	48 8b 80 c8 01
	00 00		 mov	 rax, QWORD PTR [rax+456]
  008df	48 89 84 24 90
	00 00 00	 mov	 QWORD PTR tv326[rsp], rax
$LN106@loc3270_ex:
  008e7	44 8b 44 24 5c	 mov	 r8d, DWORD PTR tv320[rsp]
  008ec	48 8b 94 24 90
	00 00 00	 mov	 rdx, QWORD PTR tv326[rsp]
  008f4	48 8b 84 24 e0
	00 01 00	 mov	 rax, QWORD PTR dev$[rsp]
  008fc	8b 88 bc 06 00
	00		 mov	 ecx, DWORD PTR [rax+1724]
  00902	e8 00 00 00 00	 call	 end_of_buf_pos
  00907	48 8b 8c 24 e0
	00 01 00	 mov	 rcx, QWORD PTR dev$[rsp]
  0090f	89 81 bc 06 00
	00		 mov	 DWORD PTR [rcx+1724], eax
$LN56@loc3270_ex:

; 4242 :                 //    (aid)        (!aid)
; 4243 :                 aid ? dev->buf+3 : dev->buf,
; 4244 :                 aid ? num-3      : num
; 4245 :             );
; 4246 :         }
; 4247 : 
; 4248 :         /* Indicate that the AID bytes have been skipped */
; 4249 :         if (dev->readpending == 1)

  00915	48 8b 84 24 e0
	00 01 00	 mov	 rax, QWORD PTR dev$[rsp]
  0091d	8b 80 f8 05 00
	00		 mov	 eax, DWORD PTR [rax+1528]
  00923	c1 e8 06	 shr	 eax, 6
  00926	83 e0 03	 and	 eax, 3
  00929	83 f8 01	 cmp	 eax, 1
  0092c	75 25		 jne	 SHORT $LN57@loc3270_ex

; 4250 :             dev->readpending = 2;

  0092e	48 8b 84 24 e0
	00 01 00	 mov	 rax, QWORD PTR dev$[rsp]
  00936	8b 80 f8 05 00
	00		 mov	 eax, DWORD PTR [rax+1528]
  0093c	25 3f ff ff ff	 and	 eax, -193		; ffffff3fH
  00941	0f ba e8 07	 bts	 eax, 7
  00945	48 8b 8c 24 e0
	00 01 00	 mov	 rcx, QWORD PTR dev$[rsp]
  0094d	89 81 f8 05 00
	00		 mov	 DWORD PTR [rcx+1528], eax
$LN57@loc3270_ex:

; 4251 : 
; 4252 :         /* Copy data from device buffer to channel buffer */
; 4253 :         memcpy (iobuf, dev->buf, num);

  00953	8b 44 24 28	 mov	 eax, DWORD PTR num$[rsp]
  00957	48 8b 8c 24 e0
	00 01 00	 mov	 rcx, QWORD PTR dev$[rsp]
  0095f	48 8b bc 24 18
	01 01 00	 mov	 rdi, QWORD PTR iobuf$[rsp]
  00967	48 8b b1 c8 01
	00 00		 mov	 rsi, QWORD PTR [rcx+456]
  0096e	8b c8		 mov	 ecx, eax
  00970	f3 a4		 rep movsb

; 4254 : 
; 4255 :         /* If data chaining is specified, save remaining data */
; 4256 :         if ((flags & CCW_FLAGS_CD) && len > count)

  00972	0f b6 84 24 f0
	00 01 00	 movzx	 eax, BYTE PTR flags$[rsp]
  0097a	25 80 00 00 00	 and	 eax, 128		; 00000080H
  0097f	85 c0		 test	 eax, eax
  00981	74 6d		 je	 SHORT $LN58@loc3270_ex
  00983	8b 84 24 00 01
	01 00		 mov	 eax, DWORD PTR count$[rsp]
  0098a	39 44 24 20	 cmp	 DWORD PTR len$[rsp], eax
  0098e	76 60		 jbe	 SHORT $LN58@loc3270_ex

; 4257 :         {
; 4258 :             memmove (dev->buf, dev->buf + count, len - count);

  00990	8b 84 24 00 01
	01 00		 mov	 eax, DWORD PTR count$[rsp]
  00997	8b 4c 24 20	 mov	 ecx, DWORD PTR len$[rsp]
  0099b	2b c8		 sub	 ecx, eax
  0099d	8b c1		 mov	 eax, ecx
  0099f	8b c0		 mov	 eax, eax
  009a1	8b 8c 24 00 01
	01 00		 mov	 ecx, DWORD PTR count$[rsp]
  009a8	48 8b 94 24 e0
	00 01 00	 mov	 rdx, QWORD PTR dev$[rsp]
  009b0	48 03 8a c8 01
	00 00		 add	 rcx, QWORD PTR [rdx+456]
  009b7	44 8b c0	 mov	 r8d, eax
  009ba	48 8b d1	 mov	 rdx, rcx
  009bd	48 8b 84 24 e0
	00 01 00	 mov	 rax, QWORD PTR dev$[rsp]
  009c5	48 8b 88 c8 01
	00 00		 mov	 rcx, QWORD PTR [rax+456]
  009cc	e8 00 00 00 00	 call	 memmove

; 4259 :             dev->rlen3270 = len - count;

  009d1	8b 84 24 00 01
	01 00		 mov	 eax, DWORD PTR count$[rsp]
  009d8	8b 4c 24 20	 mov	 ecx, DWORD PTR len$[rsp]
  009dc	2b c8		 sub	 ecx, eax
  009de	8b c1		 mov	 eax, ecx
  009e0	48 8b 8c 24 e0
	00 01 00	 mov	 rcx, QWORD PTR dev$[rsp]
  009e8	89 81 b8 06 00
	00		 mov	 DWORD PTR [rcx+1720], eax

; 4260 :         }

  009ee	eb 33		 jmp	 SHORT $LN59@loc3270_ex
$LN58@loc3270_ex:

; 4261 :         else
; 4262 :         {
; 4263 :             dev->rlen3270 = 0;

  009f0	48 8b 84 24 e0
	00 01 00	 mov	 rax, QWORD PTR dev$[rsp]
  009f8	c7 80 b8 06 00
	00 00 00 00 00	 mov	 DWORD PTR [rax+1720], 0

; 4264 :             dev->readpending = 0;

  00a02	48 8b 84 24 e0
	00 01 00	 mov	 rax, QWORD PTR dev$[rsp]
  00a0a	8b 80 f8 05 00
	00		 mov	 eax, DWORD PTR [rax+1528]
  00a10	25 3f ff ff ff	 and	 eax, -193		; ffffff3fH
  00a15	48 8b 8c 24 e0
	00 01 00	 mov	 rcx, QWORD PTR dev$[rsp]
  00a1d	89 81 f8 05 00
	00		 mov	 DWORD PTR [rcx+1528], eax
$LN59@loc3270_ex:

; 4265 :         }
; 4266 : 
; 4267 :         /* Return normal status */
; 4268 :         *unitstat = CSW_CE | CSW_DE;

  00a23	48 8b 84 24 28
	01 01 00	 mov	 rax, QWORD PTR unitstat$[rsp]
  00a2b	c6 00 0c	 mov	 BYTE PTR [rax], 12

; 4269 : 
; 4270 :         /* Release the device lock */
; 4271 :         release_lock (&dev->lock);

  00a2e	48 8b 84 24 e0
	00 01 00	 mov	 rax, QWORD PTR dev$[rsp]
  00a36	48 83 c0 38	 add	 rax, 56			; 00000038H
  00a3a	48 8d 15 00 00
	00 00		 lea	 rdx, OFFSET FLAT:$SG179574
  00a41	48 8b c8	 mov	 rcx, rax
  00a44	ff 15 00 00 00
	00		 call	 QWORD PTR __imp_hthread_release_lock
$LN12@loc3270_ex:

; 4272 : 
; 4273 :         /* Signal connection thread to redrive its pselect loop */
; 4274 :         SIGNAL_CONSOLE_THREAD();

  00a4a	c6 44 24 30 00	 mov	 BYTE PTR c$1[rsp], 0
  00a4f	ff 15 00 00 00
	00		 call	 QWORD PTR __imp_WSAGetLastError
  00a55	89 84 24 80 00
	00 00		 mov	 DWORD PTR saved_errno$5[rsp], eax
  00a5c	48 8b 05 00 00
	00 00		 mov	 rax, QWORD PTR __imp_sysblk
  00a63	48 05 c0 10 00
	00		 add	 rax, 4288		; 000010c0H
  00a69	48 8d 15 00 00
	00 00		 lea	 rdx, OFFSET FLAT:$SG179575
  00a70	48 8b c8	 mov	 rcx, rax
  00a73	ff 15 00 00 00
	00		 call	 QWORD PTR __imp_hthread_obtain_lock
  00a79	48 8b 05 00 00
	00 00		 mov	 rax, QWORD PTR __imp_sysblk
  00a80	8b 80 c8 10 00
	00		 mov	 eax, DWORD PTR [rax+4296]
  00a86	89 44 24 60	 mov	 DWORD PTR f$3[rsp], eax
  00a8a	83 7c 24 60 00	 cmp	 DWORD PTR f$3[rsp], 0
  00a8f	7f 11		 jg	 SHORT $LN60@loc3270_ex
  00a91	48 8b 05 00 00
	00 00		 mov	 rax, QWORD PTR __imp_sysblk
  00a98	c7 80 c8 10 00
	00 01 00 00 00	 mov	 DWORD PTR [rax+4296], 1
$LN60@loc3270_ex:
  00aa2	48 8b 05 00 00
	00 00		 mov	 rax, QWORD PTR __imp_sysblk
  00aa9	48 05 c0 10 00
	00		 add	 rax, 4288		; 000010c0H
  00aaf	48 8d 15 00 00
	00 00		 lea	 rdx, OFFSET FLAT:$SG179577
  00ab6	48 8b c8	 mov	 rcx, rax
  00ab9	ff 15 00 00 00
	00		 call	 QWORD PTR __imp_hthread_release_lock
  00abf	83 7c 24 60 00	 cmp	 DWORD PTR f$3[rsp], 0
  00ac4	0f 8f 90 00 00
	00		 jg	 $LN61@loc3270_ex
$LN15@loc3270_ex:
  00aca	48 8b 05 00 00
	00 00		 mov	 rax, QWORD PTR __imp_sysblk
  00ad1	48 63 80 cc 10
	00 00		 movsxd	 rax, DWORD PTR [rax+4300]
  00ad8	45 33 c9	 xor	 r9d, r9d
  00adb	41 b8 01 00 00
	00		 mov	 r8d, 1
  00ae1	48 8d 54 24 30	 lea	 rdx, QWORD PTR c$1[rsp]
  00ae6	48 8b c8	 mov	 rcx, rax
  00ae9	ff 15 00 00 00
	00		 call	 QWORD PTR __imp_send
  00aef	83 f8 01	 cmp	 eax, 1
  00af2	74 5c		 je	 SHORT $LN62@loc3270_ex
$LN18@loc3270_ex:
  00af4	4c 8d 0d 00 00
	00 00		 lea	 r9, OFFSET FLAT:$SG179580
  00afb	41 b8 b2 10 00
	00		 mov	 r8d, 4274		; 000010b2H
  00b01	48 8d 15 00 00
	00 00		 lea	 rdx, OFFSET FLAT:$SG179581
  00b08	48 8d 0d 00 00
	00 00		 lea	 rcx, OFFSET FLAT:$SG179582
  00b0f	ff 15 00 00 00
	00		 call	 QWORD PTR __imp_logmsg
  00b15	ff 15 00 00 00
	00		 call	 QWORD PTR __imp_IsDebuggerPresent
  00b1b	85 c0		 test	 eax, eax
  00b1d	74 20		 je	 SHORT $LN63@loc3270_ex
  00b1f	4c 8d 0d 00 00
	00 00		 lea	 r9, OFFSET FLAT:$SG179584
  00b26	41 b8 b2 10 00
	00		 mov	 r8d, 4274		; 000010b2H
  00b2c	48 8d 15 00 00
	00 00		 lea	 rdx, OFFSET FLAT:$SG179585
  00b33	48 8d 0d 00 00
	00 00		 lea	 rcx, OFFSET FLAT:$SG179586
  00b3a	e8 00 00 00 00	 call	 DebuggerTrace
$LN63@loc3270_ex:
  00b3f	33 c0		 xor	 eax, eax
  00b41	85 c0		 test	 eax, eax
  00b43	75 af		 jne	 SHORT $LN18@loc3270_ex
  00b45	ff 15 00 00 00
	00		 call	 QWORD PTR __imp_IsDebuggerPresent
  00b4b	85 c0		 test	 eax, eax
  00b4d	74 01		 je	 SHORT $LN64@loc3270_ex
  00b4f	cc		 int	 3
$LN64@loc3270_ex:
$LN62@loc3270_ex:
  00b50	33 c0		 xor	 eax, eax
  00b52	85 c0		 test	 eax, eax
  00b54	0f 85 70 ff ff
	ff		 jne	 $LN15@loc3270_ex
$LN61@loc3270_ex:
  00b5a	8b 8c 24 80 00
	00 00		 mov	 ecx, DWORD PTR saved_errno$5[rsp]
  00b61	ff 15 00 00 00
	00		 call	 QWORD PTR __imp_WSASetLastError
  00b67	33 c0		 xor	 eax, eax
  00b69	85 c0		 test	 eax, eax
  00b6b	0f 85 d9 fe ff
	ff		 jne	 $LN12@loc3270_ex

; 4275 : 
; 4276 :         break;

  00b71	e9 6f 07 00 00	 jmp	 $LN8@loc3270_ex
$LN65@loc3270_ex:

; 4277 : 
; 4278 :     case L3270_RM:
; 4279 :     /*---------------------------------------------------------------*/
; 4280 :     /* READ MODIFIED                                                 */
; 4281 :     /*---------------------------------------------------------------*/
; 4282 :         /* Obtain the device lock */
; 4283 :         obtain_lock (&dev->lock);

  00b76	48 8b 84 24 e0
	00 01 00	 mov	 rax, QWORD PTR dev$[rsp]
  00b7e	48 83 c0 38	 add	 rax, 56			; 00000038H
  00b82	48 8d 15 00 00
	00 00		 lea	 rdx, OFFSET FLAT:$SG179589
  00b89	48 8b c8	 mov	 rcx, rax
  00b8c	ff 15 00 00 00
	00		 call	 QWORD PTR __imp_hthread_obtain_lock

; 4284 : 
; 4285 :         /* AID is only present during the first read */
; 4286 :         aid = dev->readpending != 2;

  00b92	48 8b 84 24 e0
	00 01 00	 mov	 rax, QWORD PTR dev$[rsp]
  00b9a	8b 80 f8 05 00
	00		 mov	 eax, DWORD PTR [rax+1528]
  00ba0	c1 e8 06	 shr	 eax, 6
  00ba3	83 e0 03	 and	 eax, 3
  00ba6	83 f8 02	 cmp	 eax, 2
  00ba9	74 0a		 je	 SHORT $LN107@loc3270_ex
  00bab	c7 44 24 64 01
	00 00 00	 mov	 DWORD PTR tv409[rsp], 1
  00bb3	eb 08		 jmp	 SHORT $LN108@loc3270_ex
$LN107@loc3270_ex:
  00bb5	c7 44 24 64 00
	00 00 00	 mov	 DWORD PTR tv409[rsp], 0
$LN108@loc3270_ex:
  00bbd	8b 44 24 64	 mov	 eax, DWORD PTR tv409[rsp]
  00bc1	89 44 24 2c	 mov	 DWORD PTR aid$[rsp], eax

; 4287 :         if (dev->readpending == 3)

  00bc5	48 8b 84 24 e0
	00 01 00	 mov	 rax, QWORD PTR dev$[rsp]
  00bcd	8b 80 f8 05 00
	00		 mov	 eax, DWORD PTR [rax+1528]
  00bd3	c1 e8 06	 shr	 eax, 6
  00bd6	83 e0 03	 and	 eax, 3
  00bd9	83 f8 03	 cmp	 eax, 3
  00bdc	75 2c		 jne	 SHORT $LN66@loc3270_ex

; 4288 :         {
; 4289 :             dev->readpending = 1;

  00bde	48 8b 84 24 e0
	00 01 00	 mov	 rax, QWORD PTR dev$[rsp]
  00be6	8b 80 f8 05 00
	00		 mov	 eax, DWORD PTR [rax+1528]
  00bec	25 3f ff ff ff	 and	 eax, -193		; ffffff3fH
  00bf1	83 c8 40	 or	 eax, 64			; 00000040H
  00bf4	48 8b 8c 24 e0
	00 01 00	 mov	 rcx, QWORD PTR dev$[rsp]
  00bfc	89 81 f8 05 00
	00		 mov	 DWORD PTR [rcx+1528], eax

; 4290 :             aid = 3;

  00c02	c7 44 24 2c 03
	00 00 00	 mov	 DWORD PTR aid$[rsp], 3
$LN66@loc3270_ex:

; 4291 :         }
; 4292 : 
; 4293 :         /* If not data chained from previous Read Modified CCW,
; 4294 :            and if the connection thread has not already accumulated
; 4295 :            a complete Read Modified record in the inbound buffer,
; 4296 :            then solicit a Read Modified operation at the client
; 4297 :         */
; 4298 :         if ((chained & CCW_FLAGS_CD) == 0
; 4299 :             && !dev->readpending)

  00c0a	0f b6 84 24 f8
	00 01 00	 movzx	 eax, BYTE PTR chained$[rsp]
  00c12	25 80 00 00 00	 and	 eax, 128		; 00000080H
  00c17	85 c0		 test	 eax, eax
  00c19	0f 85 9c 01 00
	00		 jne	 $LN67@loc3270_ex
  00c1f	48 8b 84 24 e0
	00 01 00	 mov	 rax, QWORD PTR dev$[rsp]
  00c27	8b 80 f8 05 00
	00		 mov	 eax, DWORD PTR [rax+1528]
  00c2d	c1 e8 06	 shr	 eax, 6
  00c30	83 e0 03	 and	 eax, 3
  00c33	85 c0		 test	 eax, eax
  00c35	0f 85 80 01 00
	00		 jne	 $LN67@loc3270_ex

; 4300 :         {
; 4301 :             /* Send read modified command to client, await response */
; 4302 :             rc = solicit_3270_data (dev, R3270_RM);

  00c3b	b2 f6		 mov	 dl, 246			; 000000f6H
  00c3d	48 8b 8c 24 e0
	00 01 00	 mov	 rcx, QWORD PTR dev$[rsp]
  00c45	e8 00 00 00 00	 call	 solicit_3270_data
  00c4a	0f b6 c0	 movzx	 eax, al
  00c4d	89 44 24 3c	 mov	 DWORD PTR rc$[rsp], eax

; 4303 :             if (rc & CSW_UC)

  00c51	8b 44 24 3c	 mov	 eax, DWORD PTR rc$[rsp]
  00c55	83 e0 02	 and	 eax, 2
  00c58	85 c0		 test	 eax, eax
  00c5a	74 2c		 je	 SHORT $LN69@loc3270_ex

; 4304 :             {
; 4305 :                 *unitstat = CSW_CE | CSW_DE | CSW_UC;

  00c5c	48 8b 84 24 28
	01 01 00	 mov	 rax, QWORD PTR unitstat$[rsp]
  00c64	c6 00 0e	 mov	 BYTE PTR [rax], 14

; 4306 :                 release_lock (&dev->lock);

  00c67	48 8b 84 24 e0
	00 01 00	 mov	 rax, QWORD PTR dev$[rsp]
  00c6f	48 83 c0 38	 add	 rax, 56			; 00000038H
  00c73	48 8d 15 00 00
	00 00		 lea	 rdx, OFFSET FLAT:$SG179594
  00c7a	48 8b c8	 mov	 rcx, rax
  00c7d	ff 15 00 00 00
	00		 call	 QWORD PTR __imp_hthread_release_lock

; 4307 :                 break;

  00c83	e9 5d 06 00 00	 jmp	 $LN8@loc3270_ex
$LN69@loc3270_ex:

; 4308 :             }
; 4309 : 
; 4310 :             /* Set AID in buffer flag */
; 4311 :             aid = 1;

  00c88	c7 44 24 2c 01
	00 00 00	 mov	 DWORD PTR aid$[rsp], 1

; 4312 : 
; 4313 :             dev->aid3270 = dev->buf[0];

  00c90	b8 01 00 00 00	 mov	 eax, 1
  00c95	48 6b c0 00	 imul	 rax, rax, 0
  00c99	48 8b 8c 24 e0
	00 01 00	 mov	 rcx, QWORD PTR dev$[rsp]
  00ca1	48 8b 89 c8 01
	00 00		 mov	 rcx, QWORD PTR [rcx+456]
  00ca8	48 8b 94 24 e0
	00 01 00	 mov	 rdx, QWORD PTR dev$[rsp]
  00cb0	0f b6 04 08	 movzx	 eax, BYTE PTR [rax+rcx]
  00cb4	88 82 d8 06 00
	00		 mov	 BYTE PTR [rdx+1752], al

; 4314 : 
; 4315 :             if (dev->pos3270 != 0 && dev->aid3270 != SF3270_AID)

  00cba	48 8b 84 24 e0
	00 01 00	 mov	 rax, QWORD PTR dev$[rsp]
  00cc2	83 b8 bc 06 00
	00 00		 cmp	 DWORD PTR [rax+1724], 0
  00cc9	0f 84 ea 00 00
	00		 je	 $LN70@loc3270_ex
  00ccf	48 8b 84 24 e0
	00 01 00	 mov	 rax, QWORD PTR dev$[rsp]
  00cd7	0f b6 80 d8 06
	00 00		 movzx	 eax, BYTE PTR [rax+1752]
  00cde	3d 88 00 00 00	 cmp	 eax, 136		; 00000088H
  00ce3	0f 84 d0 00 00
	00		 je	 $LN70@loc3270_ex

; 4316 :             {
; 4317 :                 /* Find offset in buffer of current screen position */
; 4318 :                 off = pos_to_buff_offset( dev->pos3270,

  00ce9	48 8b 84 24 e0
	00 01 00	 mov	 rax, QWORD PTR dev$[rsp]
  00cf1	44 8b 80 b8 06
	00 00		 mov	 r8d, DWORD PTR [rax+1720]
  00cf8	48 8b 84 24 e0
	00 01 00	 mov	 rax, QWORD PTR dev$[rsp]
  00d00	48 8b 90 c8 01
	00 00		 mov	 rdx, QWORD PTR [rax+456]
  00d07	48 8b 84 24 e0
	00 01 00	 mov	 rax, QWORD PTR dev$[rsp]
  00d0f	8b 88 bc 06 00
	00		 mov	 ecx, DWORD PTR [rax+1724]
  00d15	e8 00 00 00 00	 call	 pos_to_buff_offset
  00d1a	89 44 24 34	 mov	 DWORD PTR off$[rsp], eax

; 4319 :                     dev->buf, dev->rlen3270 );
; 4320 : 
; 4321 :                 /* Shift out unwanted characters from buffer */
; 4322 :                 num = (dev->rlen3270 > off ? dev->rlen3270 - off : 0);

  00d1e	48 8b 84 24 e0
	00 01 00	 mov	 rax, QWORD PTR dev$[rsp]
  00d26	8b 4c 24 34	 mov	 ecx, DWORD PTR off$[rsp]
  00d2a	39 88 b8 06 00
	00		 cmp	 DWORD PTR [rax+1720], ecx
  00d30	76 1a		 jbe	 SHORT $LN109@loc3270_ex
  00d32	48 8b 84 24 e0
	00 01 00	 mov	 rax, QWORD PTR dev$[rsp]
  00d3a	8b 4c 24 34	 mov	 ecx, DWORD PTR off$[rsp]
  00d3e	8b 80 b8 06 00
	00		 mov	 eax, DWORD PTR [rax+1720]
  00d44	2b c1		 sub	 eax, ecx
  00d46	89 44 24 68	 mov	 DWORD PTR tv454[rsp], eax
  00d4a	eb 08		 jmp	 SHORT $LN110@loc3270_ex
$LN109@loc3270_ex:
  00d4c	c7 44 24 68 00
	00 00 00	 mov	 DWORD PTR tv454[rsp], 0
$LN110@loc3270_ex:
  00d54	8b 44 24 68	 mov	 eax, DWORD PTR tv454[rsp]
  00d58	89 44 24 28	 mov	 DWORD PTR num$[rsp], eax

; 4323 :                 memmove (dev->buf + 3, dev->buf + off, num);

  00d5c	8b 44 24 28	 mov	 eax, DWORD PTR num$[rsp]
  00d60	8b 4c 24 34	 mov	 ecx, DWORD PTR off$[rsp]
  00d64	48 8b 94 24 e0
	00 01 00	 mov	 rdx, QWORD PTR dev$[rsp]
  00d6c	48 03 8a c8 01
	00 00		 add	 rcx, QWORD PTR [rdx+456]
  00d73	48 8b 94 24 e0
	00 01 00	 mov	 rdx, QWORD PTR dev$[rsp]
  00d7b	48 8b 92 c8 01
	00 00		 mov	 rdx, QWORD PTR [rdx+456]
  00d82	48 83 c2 03	 add	 rdx, 3
  00d86	48 89 94 24 a8
	00 00 00	 mov	 QWORD PTR tv463[rsp], rdx
  00d8e	44 8b c0	 mov	 r8d, eax
  00d91	48 8b d1	 mov	 rdx, rcx
  00d94	48 8b 84 24 a8
	00 00 00	 mov	 rax, QWORD PTR tv463[rsp]
  00d9c	48 8b c8	 mov	 rcx, rax
  00d9f	e8 00 00 00 00	 call	 memmove

; 4324 :                 dev->rlen3270 = 3 + num;

  00da4	8b 44 24 28	 mov	 eax, DWORD PTR num$[rsp]
  00da8	83 c0 03	 add	 eax, 3
  00dab	48 8b 8c 24 e0
	00 01 00	 mov	 rcx, QWORD PTR dev$[rsp]
  00db3	89 81 b8 06 00
	00		 mov	 DWORD PTR [rcx+1720], eax
$LN70@loc3270_ex:

; 4325 :             }
; 4326 :         }

  00db9	eb 08		 jmp	 SHORT $LN68@loc3270_ex
$LN67@loc3270_ex:

; 4327 : 
; 4328 :         else aid = 0;

  00dbb	c7 44 24 2c 00
	00 00 00	 mov	 DWORD PTR aid$[rsp], 0
$LN68@loc3270_ex:

; 4329 : 
; 4330 :         /* Calculate number of bytes to move and residual byte count */
; 4331 :         len = dev->rlen3270;

  00dc3	48 8b 84 24 e0
	00 01 00	 mov	 rax, QWORD PTR dev$[rsp]
  00dcb	8b 80 b8 06 00
	00		 mov	 eax, DWORD PTR [rax+1720]
  00dd1	89 44 24 20	 mov	 DWORD PTR len$[rsp], eax

; 4332 :         num = (count < len) ? count : len;

  00dd5	8b 44 24 20	 mov	 eax, DWORD PTR len$[rsp]
  00dd9	39 84 24 00 01
	01 00		 cmp	 DWORD PTR count$[rsp], eax
  00de0	73 0d		 jae	 SHORT $LN111@loc3270_ex
  00de2	8b 84 24 00 01
	01 00		 mov	 eax, DWORD PTR count$[rsp]
  00de9	89 44 24 6c	 mov	 DWORD PTR tv468[rsp], eax
  00ded	eb 08		 jmp	 SHORT $LN112@loc3270_ex
$LN111@loc3270_ex:
  00def	8b 44 24 20	 mov	 eax, DWORD PTR len$[rsp]
  00df3	89 44 24 6c	 mov	 DWORD PTR tv468[rsp], eax
$LN112@loc3270_ex:
  00df7	8b 44 24 6c	 mov	 eax, DWORD PTR tv468[rsp]
  00dfb	89 44 24 28	 mov	 DWORD PTR num$[rsp], eax

; 4333 :         *residual = count - num;

  00dff	8b 44 24 28	 mov	 eax, DWORD PTR num$[rsp]
  00e03	8b 8c 24 00 01
	01 00		 mov	 ecx, DWORD PTR count$[rsp]
  00e0a	2b c8		 sub	 ecx, eax
  00e0c	8b c1		 mov	 eax, ecx
  00e0e	48 8b 8c 24 30
	01 01 00	 mov	 rcx, QWORD PTR residual$[rsp]
  00e16	89 01		 mov	 DWORD PTR [rcx], eax

; 4334 :         if (count < len) *more = 1;

  00e18	8b 44 24 20	 mov	 eax, DWORD PTR len$[rsp]
  00e1c	39 84 24 00 01
	01 00		 cmp	 DWORD PTR count$[rsp], eax
  00e23	73 0b		 jae	 SHORT $LN71@loc3270_ex
  00e25	48 8b 84 24 20
	01 01 00	 mov	 rax, QWORD PTR more$[rsp]
  00e2d	c6 00 01	 mov	 BYTE PTR [rax], 1
$LN71@loc3270_ex:

; 4335 : 
; 4336 :         /*  Save the screen position at completion of the read.
; 4337 :            This is necessary in case a Read Buffer command is chained
; 4338 :            from another write or read.
; 4339 :         */
; 4340 :         if (dev->aid3270 != SF3270_AID)

  00e30	48 8b 84 24 e0
	00 01 00	 mov	 rax, QWORD PTR dev$[rsp]
  00e38	0f b6 80 d8 06
	00 00		 movzx	 eax, BYTE PTR [rax+1752]
  00e3f	3d 88 00 00 00	 cmp	 eax, 136		; 00000088H
  00e44	0f 84 85 00 00
	00		 je	 $LN72@loc3270_ex

; 4341 :         {
; 4342 :             dev->pos3270 = end_of_buf_pos( dev->pos3270,

  00e4a	83 7c 24 2c 00	 cmp	 DWORD PTR aid$[rsp], 0
  00e4f	74 0d		 je	 SHORT $LN113@loc3270_ex
  00e51	8b 44 24 28	 mov	 eax, DWORD PTR num$[rsp]
  00e55	83 e8 03	 sub	 eax, 3
  00e58	89 44 24 70	 mov	 DWORD PTR tv478[rsp], eax
  00e5c	eb 08		 jmp	 SHORT $LN114@loc3270_ex
$LN113@loc3270_ex:
  00e5e	8b 44 24 28	 mov	 eax, DWORD PTR num$[rsp]
  00e62	89 44 24 70	 mov	 DWORD PTR tv478[rsp], eax
$LN114@loc3270_ex:
  00e66	83 7c 24 2c 00	 cmp	 DWORD PTR aid$[rsp], 0
  00e6b	74 1d		 je	 SHORT $LN115@loc3270_ex
  00e6d	48 8b 84 24 e0
	00 01 00	 mov	 rax, QWORD PTR dev$[rsp]
  00e75	48 8b 80 c8 01
	00 00		 mov	 rax, QWORD PTR [rax+456]
  00e7c	48 83 c0 03	 add	 rax, 3
  00e80	48 89 84 24 98
	00 00 00	 mov	 QWORD PTR tv484[rsp], rax
  00e88	eb 17		 jmp	 SHORT $LN116@loc3270_ex
$LN115@loc3270_ex:
  00e8a	48 8b 84 24 e0
	00 01 00	 mov	 rax, QWORD PTR dev$[rsp]
  00e92	48 8b 80 c8 01
	00 00		 mov	 rax, QWORD PTR [rax+456]
  00e99	48 89 84 24 98
	00 00 00	 mov	 QWORD PTR tv484[rsp], rax
$LN116@loc3270_ex:
  00ea1	44 8b 44 24 70	 mov	 r8d, DWORD PTR tv478[rsp]
  00ea6	48 8b 94 24 98
	00 00 00	 mov	 rdx, QWORD PTR tv484[rsp]
  00eae	48 8b 84 24 e0
	00 01 00	 mov	 rax, QWORD PTR dev$[rsp]
  00eb6	8b 88 bc 06 00
	00		 mov	 ecx, DWORD PTR [rax+1724]
  00ebc	e8 00 00 00 00	 call	 end_of_buf_pos
  00ec1	48 8b 8c 24 e0
	00 01 00	 mov	 rcx, QWORD PTR dev$[rsp]
  00ec9	89 81 bc 06 00
	00		 mov	 DWORD PTR [rcx+1724], eax
$LN72@loc3270_ex:

; 4343 :                 //    (aid)        (!aid)
; 4344 :                 aid ? dev->buf+3 : dev->buf,
; 4345 :                 aid ? num-3      : num
; 4346 :             );
; 4347 :         }
; 4348 : 
; 4349 :         /* Indicate that the AID bytes have been skipped */
; 4350 :         if (dev->readpending == 1)

  00ecf	48 8b 84 24 e0
	00 01 00	 mov	 rax, QWORD PTR dev$[rsp]
  00ed7	8b 80 f8 05 00
	00		 mov	 eax, DWORD PTR [rax+1528]
  00edd	c1 e8 06	 shr	 eax, 6
  00ee0	83 e0 03	 and	 eax, 3
  00ee3	83 f8 01	 cmp	 eax, 1
  00ee6	75 25		 jne	 SHORT $LN73@loc3270_ex

; 4351 :             dev->readpending = 2;

  00ee8	48 8b 84 24 e0
	00 01 00	 mov	 rax, QWORD PTR dev$[rsp]
  00ef0	8b 80 f8 05 00
	00		 mov	 eax, DWORD PTR [rax+1528]
  00ef6	25 3f ff ff ff	 and	 eax, -193		; ffffff3fH
  00efb	0f ba e8 07	 bts	 eax, 7
  00eff	48 8b 8c 24 e0
	00 01 00	 mov	 rcx, QWORD PTR dev$[rsp]
  00f07	89 81 f8 05 00
	00		 mov	 DWORD PTR [rcx+1528], eax
$LN73@loc3270_ex:

; 4352 : 
; 4353 :         /* Copy data from device buffer to channel buffer */
; 4354 :         memcpy (iobuf, dev->buf, num);

  00f0d	8b 44 24 28	 mov	 eax, DWORD PTR num$[rsp]
  00f11	48 8b 8c 24 e0
	00 01 00	 mov	 rcx, QWORD PTR dev$[rsp]
  00f19	48 8b bc 24 18
	01 01 00	 mov	 rdi, QWORD PTR iobuf$[rsp]
  00f21	48 8b b1 c8 01
	00 00		 mov	 rsi, QWORD PTR [rcx+456]
  00f28	8b c8		 mov	 ecx, eax
  00f2a	f3 a4		 rep movsb

; 4355 : 
; 4356 :         /* If data chaining is specified, save remaining data */
; 4357 :         if ((flags & CCW_FLAGS_CD) && len > count)

  00f2c	0f b6 84 24 f0
	00 01 00	 movzx	 eax, BYTE PTR flags$[rsp]
  00f34	25 80 00 00 00	 and	 eax, 128		; 00000080H
  00f39	85 c0		 test	 eax, eax
  00f3b	74 6d		 je	 SHORT $LN74@loc3270_ex
  00f3d	8b 84 24 00 01
	01 00		 mov	 eax, DWORD PTR count$[rsp]
  00f44	39 44 24 20	 cmp	 DWORD PTR len$[rsp], eax
  00f48	76 60		 jbe	 SHORT $LN74@loc3270_ex

; 4358 :         {
; 4359 :             memmove (dev->buf, dev->buf + count, len - count);

  00f4a	8b 84 24 00 01
	01 00		 mov	 eax, DWORD PTR count$[rsp]
  00f51	8b 4c 24 20	 mov	 ecx, DWORD PTR len$[rsp]
  00f55	2b c8		 sub	 ecx, eax
  00f57	8b c1		 mov	 eax, ecx
  00f59	8b c0		 mov	 eax, eax
  00f5b	8b 8c 24 00 01
	01 00		 mov	 ecx, DWORD PTR count$[rsp]
  00f62	48 8b 94 24 e0
	00 01 00	 mov	 rdx, QWORD PTR dev$[rsp]
  00f6a	48 03 8a c8 01
	00 00		 add	 rcx, QWORD PTR [rdx+456]
  00f71	44 8b c0	 mov	 r8d, eax
  00f74	48 8b d1	 mov	 rdx, rcx
  00f77	48 8b 84 24 e0
	00 01 00	 mov	 rax, QWORD PTR dev$[rsp]
  00f7f	48 8b 88 c8 01
	00 00		 mov	 rcx, QWORD PTR [rax+456]
  00f86	e8 00 00 00 00	 call	 memmove

; 4360 :             dev->rlen3270 = len - count;

  00f8b	8b 84 24 00 01
	01 00		 mov	 eax, DWORD PTR count$[rsp]
  00f92	8b 4c 24 20	 mov	 ecx, DWORD PTR len$[rsp]
  00f96	2b c8		 sub	 ecx, eax
  00f98	8b c1		 mov	 eax, ecx
  00f9a	48 8b 8c 24 e0
	00 01 00	 mov	 rcx, QWORD PTR dev$[rsp]
  00fa2	89 81 b8 06 00
	00		 mov	 DWORD PTR [rcx+1720], eax

; 4361 :         }

  00fa8	eb 33		 jmp	 SHORT $LN75@loc3270_ex
$LN74@loc3270_ex:

; 4362 :         else
; 4363 :         {
; 4364 :             dev->rlen3270 = 0;

  00faa	48 8b 84 24 e0
	00 01 00	 mov	 rax, QWORD PTR dev$[rsp]
  00fb2	c7 80 b8 06 00
	00 00 00 00 00	 mov	 DWORD PTR [rax+1720], 0

; 4365 :             dev->readpending = 0;

  00fbc	48 8b 84 24 e0
	00 01 00	 mov	 rax, QWORD PTR dev$[rsp]
  00fc4	8b 80 f8 05 00
	00		 mov	 eax, DWORD PTR [rax+1528]
  00fca	25 3f ff ff ff	 and	 eax, -193		; ffffff3fH
  00fcf	48 8b 8c 24 e0
	00 01 00	 mov	 rcx, QWORD PTR dev$[rsp]
  00fd7	89 81 f8 05 00
	00		 mov	 DWORD PTR [rcx+1528], eax
$LN75@loc3270_ex:

; 4366 :         }
; 4367 : 
; 4368 :         /* Set normal status */
; 4369 :         *unitstat = CSW_CE | CSW_DE;

  00fdd	48 8b 84 24 28
	01 01 00	 mov	 rax, QWORD PTR unitstat$[rsp]
  00fe5	c6 00 0c	 mov	 BYTE PTR [rax], 12

; 4370 : 
; 4371 :         /* Release the device lock */
; 4372 :         release_lock (&dev->lock);

  00fe8	48 8b 84 24 e0
	00 01 00	 mov	 rax, QWORD PTR dev$[rsp]
  00ff0	48 83 c0 38	 add	 rax, 56			; 00000038H
  00ff4	48 8d 15 00 00
	00 00		 lea	 rdx, OFFSET FLAT:$SG179601
  00ffb	48 8b c8	 mov	 rcx, rax
  00ffe	ff 15 00 00 00
	00		 call	 QWORD PTR __imp_hthread_release_lock
$LN21@loc3270_ex:

; 4373 : 
; 4374 :         /* Signal connection thread to redrive its pselect loop */
; 4375 :         SIGNAL_CONSOLE_THREAD();

  01004	c6 44 24 31 00	 mov	 BYTE PTR c$2[rsp], 0
  01009	ff 15 00 00 00
	00		 call	 QWORD PTR __imp_WSAGetLastError
  0100f	89 84 24 84 00
	00 00		 mov	 DWORD PTR saved_errno$6[rsp], eax
  01016	48 8b 05 00 00
	00 00		 mov	 rax, QWORD PTR __imp_sysblk
  0101d	48 05 c0 10 00
	00		 add	 rax, 4288		; 000010c0H
  01023	48 8d 15 00 00
	00 00		 lea	 rdx, OFFSET FLAT:$SG179602
  0102a	48 8b c8	 mov	 rcx, rax
  0102d	ff 15 00 00 00
	00		 call	 QWORD PTR __imp_hthread_obtain_lock
  01033	48 8b 05 00 00
	00 00		 mov	 rax, QWORD PTR __imp_sysblk
  0103a	8b 80 c8 10 00
	00		 mov	 eax, DWORD PTR [rax+4296]
  01040	89 44 24 74	 mov	 DWORD PTR f$4[rsp], eax
  01044	83 7c 24 74 00	 cmp	 DWORD PTR f$4[rsp], 0
  01049	7f 11		 jg	 SHORT $LN76@loc3270_ex
  0104b	48 8b 05 00 00
	00 00		 mov	 rax, QWORD PTR __imp_sysblk
  01052	c7 80 c8 10 00
	00 01 00 00 00	 mov	 DWORD PTR [rax+4296], 1
$LN76@loc3270_ex:
  0105c	48 8b 05 00 00
	00 00		 mov	 rax, QWORD PTR __imp_sysblk
  01063	48 05 c0 10 00
	00		 add	 rax, 4288		; 000010c0H
  01069	48 8d 15 00 00
	00 00		 lea	 rdx, OFFSET FLAT:$SG179604
  01070	48 8b c8	 mov	 rcx, rax
  01073	ff 15 00 00 00
	00		 call	 QWORD PTR __imp_hthread_release_lock
  01079	83 7c 24 74 00	 cmp	 DWORD PTR f$4[rsp], 0
  0107e	0f 8f 90 00 00
	00		 jg	 $LN77@loc3270_ex
$LN24@loc3270_ex:
  01084	48 8b 05 00 00
	00 00		 mov	 rax, QWORD PTR __imp_sysblk
  0108b	48 63 80 cc 10
	00 00		 movsxd	 rax, DWORD PTR [rax+4300]
  01092	45 33 c9	 xor	 r9d, r9d
  01095	41 b8 01 00 00
	00		 mov	 r8d, 1
  0109b	48 8d 54 24 31	 lea	 rdx, QWORD PTR c$2[rsp]
  010a0	48 8b c8	 mov	 rcx, rax
  010a3	ff 15 00 00 00
	00		 call	 QWORD PTR __imp_send
  010a9	83 f8 01	 cmp	 eax, 1
  010ac	74 5c		 je	 SHORT $LN78@loc3270_ex
$LN27@loc3270_ex:
  010ae	4c 8d 0d 00 00
	00 00		 lea	 r9, OFFSET FLAT:$SG179607
  010b5	41 b8 17 11 00
	00		 mov	 r8d, 4375		; 00001117H
  010bb	48 8d 15 00 00
	00 00		 lea	 rdx, OFFSET FLAT:$SG179608
  010c2	48 8d 0d 00 00
	00 00		 lea	 rcx, OFFSET FLAT:$SG179609
  010c9	ff 15 00 00 00
	00		 call	 QWORD PTR __imp_logmsg
  010cf	ff 15 00 00 00
	00		 call	 QWORD PTR __imp_IsDebuggerPresent
  010d5	85 c0		 test	 eax, eax
  010d7	74 20		 je	 SHORT $LN79@loc3270_ex
  010d9	4c 8d 0d 00 00
	00 00		 lea	 r9, OFFSET FLAT:$SG179611
  010e0	41 b8 17 11 00
	00		 mov	 r8d, 4375		; 00001117H
  010e6	48 8d 15 00 00
	00 00		 lea	 rdx, OFFSET FLAT:$SG179612
  010ed	48 8d 0d 00 00
	00 00		 lea	 rcx, OFFSET FLAT:$SG179613
  010f4	e8 00 00 00 00	 call	 DebuggerTrace
$LN79@loc3270_ex:
  010f9	33 c0		 xor	 eax, eax
  010fb	85 c0		 test	 eax, eax
  010fd	75 af		 jne	 SHORT $LN27@loc3270_ex
  010ff	ff 15 00 00 00
	00		 call	 QWORD PTR __imp_IsDebuggerPresent
  01105	85 c0		 test	 eax, eax
  01107	74 01		 je	 SHORT $LN80@loc3270_ex
  01109	cc		 int	 3
$LN80@loc3270_ex:
$LN78@loc3270_ex:
  0110a	33 c0		 xor	 eax, eax
  0110c	85 c0		 test	 eax, eax
  0110e	0f 85 70 ff ff
	ff		 jne	 $LN24@loc3270_ex
$LN77@loc3270_ex:
  01114	8b 8c 24 84 00
	00 00		 mov	 ecx, DWORD PTR saved_errno$6[rsp]
  0111b	ff 15 00 00 00
	00		 call	 QWORD PTR __imp_WSASetLastError
  01121	33 c0		 xor	 eax, eax
  01123	85 c0		 test	 eax, eax
  01125	0f 85 d9 fe ff
	ff		 jne	 $LN21@loc3270_ex

; 4376 : 
; 4377 :         break;

  0112b	e9 b5 01 00 00	 jmp	 $LN8@loc3270_ex
$LN81@loc3270_ex:

; 4378 : 
; 4379 :     case L3270_SENSE:
; 4380 :     /*---------------------------------------------------------------*/
; 4381 :     /* SENSE                                                         */
; 4382 :     /*---------------------------------------------------------------*/
; 4383 :         /* Calculate residual byte count */
; 4384 :         num = (count < dev->numsense) ? count : dev->numsense;

  01130	48 8b 84 24 e0
	00 01 00	 mov	 rax, QWORD PTR dev$[rsp]
  01138	8b 80 60 03 00
	00		 mov	 eax, DWORD PTR [rax+864]
  0113e	39 84 24 00 01
	01 00		 cmp	 DWORD PTR count$[rsp], eax
  01145	73 0d		 jae	 SHORT $LN117@loc3270_ex
  01147	8b 84 24 00 01
	01 00		 mov	 eax, DWORD PTR count$[rsp]
  0114e	89 44 24 78	 mov	 DWORD PTR tv563[rsp], eax
  01152	eb 12		 jmp	 SHORT $LN118@loc3270_ex
$LN117@loc3270_ex:
  01154	48 8b 84 24 e0
	00 01 00	 mov	 rax, QWORD PTR dev$[rsp]
  0115c	8b 80 60 03 00
	00		 mov	 eax, DWORD PTR [rax+864]
  01162	89 44 24 78	 mov	 DWORD PTR tv563[rsp], eax
$LN118@loc3270_ex:
  01166	8b 44 24 78	 mov	 eax, DWORD PTR tv563[rsp]
  0116a	89 44 24 28	 mov	 DWORD PTR num$[rsp], eax

; 4385 :         *residual = count - num;

  0116e	8b 44 24 28	 mov	 eax, DWORD PTR num$[rsp]
  01172	8b 8c 24 00 01
	01 00		 mov	 ecx, DWORD PTR count$[rsp]
  01179	2b c8		 sub	 ecx, eax
  0117b	8b c1		 mov	 eax, ecx
  0117d	48 8b 8c 24 30
	01 01 00	 mov	 rcx, QWORD PTR residual$[rsp]
  01185	89 01		 mov	 DWORD PTR [rcx], eax

; 4386 :         if (count < dev->numsense) *more = 1;

  01187	48 8b 84 24 e0
	00 01 00	 mov	 rax, QWORD PTR dev$[rsp]
  0118f	8b 80 60 03 00
	00		 mov	 eax, DWORD PTR [rax+864]
  01195	39 84 24 00 01
	01 00		 cmp	 DWORD PTR count$[rsp], eax
  0119c	73 0b		 jae	 SHORT $LN82@loc3270_ex
  0119e	48 8b 84 24 20
	01 01 00	 mov	 rax, QWORD PTR more$[rsp]
  011a6	c6 00 01	 mov	 BYTE PTR [rax], 1
$LN82@loc3270_ex:

; 4387 : 
; 4388 :         /* Copy device sense bytes to channel I/O buffer */
; 4389 :         memcpy (iobuf, dev->sense, num);

  011a9	8b 44 24 28	 mov	 eax, DWORD PTR num$[rsp]
  011ad	48 8b 8c 24 e0
	00 01 00	 mov	 rcx, QWORD PTR dev$[rsp]
  011b5	48 81 c1 64 03
	00 00		 add	 rcx, 868		; 00000364H
  011bc	48 8b bc 24 18
	01 01 00	 mov	 rdi, QWORD PTR iobuf$[rsp]
  011c4	48 8b f1	 mov	 rsi, rcx
  011c7	8b c8		 mov	 ecx, eax
  011c9	f3 a4		 rep movsb

; 4390 : 
; 4391 :         /* Clear the device sense bytes */
; 4392 :         memset( dev->sense, 0, sizeof(dev->sense) );

  011cb	48 8b 84 24 e0
	00 01 00	 mov	 rax, QWORD PTR dev$[rsp]
  011d3	48 05 64 03 00
	00		 add	 rax, 868		; 00000364H
  011d9	48 8b f8	 mov	 rdi, rax
  011dc	33 c0		 xor	 eax, eax
  011de	b9 00 01 00 00	 mov	 ecx, 256		; 00000100H
  011e3	f3 aa		 rep stosb

; 4393 : 
; 4394 :         /* Reset the buffer address */
; 4395 :         dev->pos3270 = 0;

  011e5	48 8b 84 24 e0
	00 01 00	 mov	 rax, QWORD PTR dev$[rsp]
  011ed	c7 80 bc 06 00
	00 00 00 00 00	 mov	 DWORD PTR [rax+1724], 0

; 4396 : 
; 4397 :         /* Return unit status */
; 4398 :         *unitstat = CSW_CE | CSW_DE;

  011f7	48 8b 84 24 28
	01 01 00	 mov	 rax, QWORD PTR unitstat$[rsp]
  011ff	c6 00 0c	 mov	 BYTE PTR [rax], 12

; 4399 :         break;

  01202	e9 de 00 00 00	 jmp	 $LN8@loc3270_ex
$LN83@loc3270_ex:

; 4400 : 
; 4401 :     case L3270_SENSEID:
; 4402 :     /*---------------------------------------------------------------*/
; 4403 :     /* SENSE ID                                                      */
; 4404 :     /*---------------------------------------------------------------*/
; 4405 :         /* Calculate residual byte count */
; 4406 :         num = (count < dev->numdevid) ? count : dev->numdevid;

  01207	48 8b 84 24 e0
	00 01 00	 mov	 rax, QWORD PTR dev$[rsp]
  0120f	8b 80 64 04 00
	00		 mov	 eax, DWORD PTR [rax+1124]
  01215	39 84 24 00 01
	01 00		 cmp	 DWORD PTR count$[rsp], eax
  0121c	73 0d		 jae	 SHORT $LN119@loc3270_ex
  0121e	8b 84 24 00 01
	01 00		 mov	 eax, DWORD PTR count$[rsp]
  01225	89 44 24 7c	 mov	 DWORD PTR tv583[rsp], eax
  01229	eb 12		 jmp	 SHORT $LN120@loc3270_ex
$LN119@loc3270_ex:
  0122b	48 8b 84 24 e0
	00 01 00	 mov	 rax, QWORD PTR dev$[rsp]
  01233	8b 80 64 04 00
	00		 mov	 eax, DWORD PTR [rax+1124]
  01239	89 44 24 7c	 mov	 DWORD PTR tv583[rsp], eax
$LN120@loc3270_ex:
  0123d	8b 44 24 7c	 mov	 eax, DWORD PTR tv583[rsp]
  01241	89 44 24 28	 mov	 DWORD PTR num$[rsp], eax

; 4407 :         *residual = count - num;

  01245	8b 44 24 28	 mov	 eax, DWORD PTR num$[rsp]
  01249	8b 8c 24 00 01
	01 00		 mov	 ecx, DWORD PTR count$[rsp]
  01250	2b c8		 sub	 ecx, eax
  01252	8b c1		 mov	 eax, ecx
  01254	48 8b 8c 24 30
	01 01 00	 mov	 rcx, QWORD PTR residual$[rsp]
  0125c	89 01		 mov	 DWORD PTR [rcx], eax

; 4408 :         if (count < dev->numdevid) *more = 1;

  0125e	48 8b 84 24 e0
	00 01 00	 mov	 rax, QWORD PTR dev$[rsp]
  01266	8b 80 64 04 00
	00		 mov	 eax, DWORD PTR [rax+1124]
  0126c	39 84 24 00 01
	01 00		 cmp	 DWORD PTR count$[rsp], eax
  01273	73 0b		 jae	 SHORT $LN84@loc3270_ex
  01275	48 8b 84 24 20
	01 01 00	 mov	 rax, QWORD PTR more$[rsp]
  0127d	c6 00 01	 mov	 BYTE PTR [rax], 1
$LN84@loc3270_ex:

; 4409 : 
; 4410 :         /* Copy device identifier bytes to channel I/O buffer */
; 4411 :         memcpy (iobuf, dev->devid, num);

  01280	8b 44 24 28	 mov	 eax, DWORD PTR num$[rsp]
  01284	48 8b 8c 24 e0
	00 01 00	 mov	 rcx, QWORD PTR dev$[rsp]
  0128c	48 81 c1 68 04
	00 00		 add	 rcx, 1128		; 00000468H
  01293	48 8b bc 24 18
	01 01 00	 mov	 rdi, QWORD PTR iobuf$[rsp]
  0129b	48 8b f1	 mov	 rsi, rcx
  0129e	8b c8		 mov	 ecx, eax
  012a0	f3 a4		 rep movsb

; 4412 : 
; 4413 :         /* Reset the buffer address */
; 4414 :         dev->pos3270 = 0;

  012a2	48 8b 84 24 e0
	00 01 00	 mov	 rax, QWORD PTR dev$[rsp]
  012aa	c7 80 bc 06 00
	00 00 00 00 00	 mov	 DWORD PTR [rax+1724], 0

; 4415 : 
; 4416 :         /* Return unit status */
; 4417 :         *unitstat = CSW_CE | CSW_DE;

  012b4	48 8b 84 24 28
	01 01 00	 mov	 rax, QWORD PTR unitstat$[rsp]
  012bc	c6 00 0c	 mov	 BYTE PTR [rax], 12

; 4418 :         break;

  012bf	eb 24		 jmp	 SHORT $LN8@loc3270_ex
$LN85@loc3270_ex:

; 4419 : 
; 4420 :     default:
; 4421 :     /*---------------------------------------------------------------*/
; 4422 :     /* INVALID OPERATION                                             */
; 4423 :     /*---------------------------------------------------------------*/
; 4424 :         /* Set command reject sense byte, and unit check status */
; 4425 :         dev->sense[0] = SENSE_CR;

  012c1	b8 01 00 00 00	 mov	 eax, 1
  012c6	48 6b c0 00	 imul	 rax, rax, 0
  012ca	48 8b 8c 24 e0
	00 01 00	 mov	 rcx, QWORD PTR dev$[rsp]
  012d2	c6 84 01 64 03
	00 00 80	 mov	 BYTE PTR [rcx+rax+868], 128 ; 00000080H

; 4426 :         *unitstat = CSW_CE | CSW_DE | CSW_UC;

  012da	48 8b 84 24 28
	01 01 00	 mov	 rax, QWORD PTR unitstat$[rsp]
  012e2	c6 00 0e	 mov	 BYTE PTR [rax], 14
$LN8@loc3270_ex:
$LN1@loc3270_ex:

; 4427 : 
; 4428 :     } /* end switch(code) */
; 4429 : 
; 4430 : } /* end function loc3270_execute_ccw */

  012e5	48 8b 8c 24 b0
	00 01 00	 mov	 rcx, QWORD PTR __$ArrayPad$[rsp]
  012ed	48 33 cc	 xor	 rcx, rsp
  012f0	e8 00 00 00 00	 call	 __security_check_cookie
  012f5	48 81 c4 c8 00
	01 00		 add	 rsp, 65736		; 000100c8H
  012fc	5f		 pop	 rdi
  012fd	5e		 pop	 rsi
  012fe	c3		 ret	 0
  012ff	90		 npad	 1
$LN122@loc3270_ex:
  01300	00 00 00 00	 DD	 $LN37@loc3270_ex
  01304	00 00 00 00	 DD	 $LN49@loc3270_ex
  01308	00 00 00 00	 DD	 $LN30@loc3270_ex
  0130c	00 00 00 00	 DD	 $LN81@loc3270_ex
  01310	00 00 00 00	 DD	 $LN38@loc3270_ex
  01314	00 00 00 00	 DD	 $LN65@loc3270_ex
  01318	00 00 00 00	 DD	 $LN31@loc3270_ex
  0131c	00 00 00 00	 DD	 $LN39@loc3270_ex
  01320	00 00 00 00	 DD	 $LN36@loc3270_ex
  01324	00 00 00 00	 DD	 $LN40@loc3270_ex
  01328	00 00 00 00	 DD	 $LN32@loc3270_ex
  0132c	00 00 00 00	 DD	 $LN33@loc3270_ex
  01330	00 00 00 00	 DD	 $LN34@loc3270_ex
  01334	00 00 00 00	 DD	 $LN35@loc3270_ex
  01338	00 00 00 00	 DD	 $LN83@loc3270_ex
  0133c	00 00 00 00	 DD	 $LN85@loc3270_ex
$LN121@loc3270_ex:
  01340	00		 DB	 0
  01341	01		 DB	 1
  01342	02		 DB	 2
  01343	03		 DB	 3
  01344	04		 DB	 4
  01345	05		 DB	 5
  01346	0f		 DB	 15
  01347	0f		 DB	 15
  01348	0f		 DB	 15
  01349	0f		 DB	 15
  0134a	06		 DB	 6
  0134b	0f		 DB	 15
  0134c	07		 DB	 7
  0134d	0f		 DB	 15
  0134e	08		 DB	 8
  0134f	0f		 DB	 15
  01350	09		 DB	 9
  01351	0f		 DB	 15
  01352	0f		 DB	 15
  01353	0f		 DB	 15
  01354	0f		 DB	 15
  01355	0f		 DB	 15
  01356	0f		 DB	 15
  01357	0f		 DB	 15
  01358	0f		 DB	 15
  01359	0f		 DB	 15
  0135a	0a		 DB	 10
  0135b	0f		 DB	 15
  0135c	0f		 DB	 15
  0135d	0f		 DB	 15
  0135e	0f		 DB	 15
  0135f	0f		 DB	 15
  01360	0f		 DB	 15
  01361	0f		 DB	 15
  01362	0f		 DB	 15
  01363	0f		 DB	 15
  01364	0f		 DB	 15
  01365	0f		 DB	 15
  01366	0f		 DB	 15
  01367	0f		 DB	 15
  01368	0f		 DB	 15
  01369	0f		 DB	 15
  0136a	0b		 DB	 11
  0136b	0f		 DB	 15
  0136c	0f		 DB	 15
  0136d	0f		 DB	 15
  0136e	0f		 DB	 15
  0136f	0f		 DB	 15
  01370	0f		 DB	 15
  01371	0f		 DB	 15
  01372	0f		 DB	 15
  01373	0f		 DB	 15
  01374	0f		 DB	 15
  01375	0f		 DB	 15
  01376	0f		 DB	 15
  01377	0f		 DB	 15
  01378	0f		 DB	 15
  01379	0f		 DB	 15
  0137a	0c		 DB	 12
  0137b	0f		 DB	 15
  0137c	0f		 DB	 15
  0137d	0f		 DB	 15
  0137e	0f		 DB	 15
  0137f	0f		 DB	 15
  01380	0f		 DB	 15
  01381	0f		 DB	 15
  01382	0f		 DB	 15
  01383	0f		 DB	 15
  01384	0f		 DB	 15
  01385	0f		 DB	 15
  01386	0f		 DB	 15
  01387	0f		 DB	 15
  01388	0f		 DB	 15
  01389	0f		 DB	 15
  0138a	0d		 DB	 13
  0138b	0f		 DB	 15
  0138c	0f		 DB	 15
  0138d	0f		 DB	 15
  0138e	0f		 DB	 15
  0138f	0f		 DB	 15
  01390	0f		 DB	 15
  01391	0f		 DB	 15
  01392	0f		 DB	 15
  01393	0f		 DB	 15
  01394	0f		 DB	 15
  01395	0f		 DB	 15
  01396	0f		 DB	 15
  01397	0f		 DB	 15
  01398	0f		 DB	 15
  01399	0f		 DB	 15
  0139a	0f		 DB	 15
  0139b	0f		 DB	 15
  0139c	0f		 DB	 15
  0139d	0f		 DB	 15
  0139e	0f		 DB	 15
  0139f	0f		 DB	 15
  013a0	0f		 DB	 15
  013a1	0f		 DB	 15
  013a2	0f		 DB	 15
  013a3	0f		 DB	 15
  013a4	0f		 DB	 15
  013a5	0f		 DB	 15
  013a6	0f		 DB	 15
  013a7	0f		 DB	 15
  013a8	0f		 DB	 15
  013a9	0f		 DB	 15
  013aa	0f		 DB	 15
  013ab	0f		 DB	 15
  013ac	0f		 DB	 15
  013ad	0f		 DB	 15
  013ae	0f		 DB	 15
  013af	0f		 DB	 15
  013b0	0f		 DB	 15
  013b1	0f		 DB	 15
  013b2	0f		 DB	 15
  013b3	0f		 DB	 15
  013b4	0f		 DB	 15
  013b5	0f		 DB	 15
  013b6	0f		 DB	 15
  013b7	0f		 DB	 15
  013b8	0f		 DB	 15
  013b9	0f		 DB	 15
  013ba	0f		 DB	 15
  013bb	0f		 DB	 15
  013bc	0f		 DB	 15
  013bd	0f		 DB	 15
  013be	0f		 DB	 15
  013bf	0f		 DB	 15
  013c0	0f		 DB	 15
  013c1	0f		 DB	 15
  013c2	0f		 DB	 15
  013c3	0f		 DB	 15
  013c4	0f		 DB	 15
  013c5	0f		 DB	 15
  013c6	0f		 DB	 15
  013c7	0f		 DB	 15
  013c8	0f		 DB	 15
  013c9	0f		 DB	 15
  013ca	0f		 DB	 15
  013cb	0f		 DB	 15
  013cc	0f		 DB	 15
  013cd	0f		 DB	 15
  013ce	0f		 DB	 15
  013cf	0f		 DB	 15
  013d0	0f		 DB	 15
  013d1	0f		 DB	 15
  013d2	0f		 DB	 15
  013d3	0f		 DB	 15
  013d4	0f		 DB	 15
  013d5	0f		 DB	 15
  013d6	0f		 DB	 15
  013d7	0f		 DB	 15
  013d8	0f		 DB	 15
  013d9	0f		 DB	 15
  013da	0f		 DB	 15
  013db	0f		 DB	 15
  013dc	0f		 DB	 15
  013dd	0f		 DB	 15
  013de	0f		 DB	 15
  013df	0f		 DB	 15
  013e0	0f		 DB	 15
  013e1	0f		 DB	 15
  013e2	0f		 DB	 15
  013e3	0f		 DB	 15
  013e4	0f		 DB	 15
  013e5	0f		 DB	 15
  013e6	0f		 DB	 15
  013e7	0f		 DB	 15
  013e8	0f		 DB	 15
  013e9	0f		 DB	 15
  013ea	0f		 DB	 15
  013eb	0f		 DB	 15
  013ec	0f		 DB	 15
  013ed	0f		 DB	 15
  013ee	0f		 DB	 15
  013ef	0f		 DB	 15
  013f0	0f		 DB	 15
  013f1	0f		 DB	 15
  013f2	0f		 DB	 15
  013f3	0f		 DB	 15
  013f4	0f		 DB	 15
  013f5	0f		 DB	 15
  013f6	0f		 DB	 15
  013f7	0f		 DB	 15
  013f8	0f		 DB	 15
  013f9	0f		 DB	 15
  013fa	0f		 DB	 15
  013fb	0f		 DB	 15
  013fc	0f		 DB	 15
  013fd	0f		 DB	 15
  013fe	0f		 DB	 15
  013ff	0f		 DB	 15
  01400	0f		 DB	 15
  01401	0f		 DB	 15
  01402	0f		 DB	 15
  01403	0f		 DB	 15
  01404	0f		 DB	 15
  01405	0f		 DB	 15
  01406	0f		 DB	 15
  01407	0f		 DB	 15
  01408	0f		 DB	 15
  01409	0f		 DB	 15
  0140a	0f		 DB	 15
  0140b	0f		 DB	 15
  0140c	0f		 DB	 15
  0140d	0f		 DB	 15
  0140e	0f		 DB	 15
  0140f	0f		 DB	 15
  01410	0f		 DB	 15
  01411	0f		 DB	 15
  01412	0f		 DB	 15
  01413	0f		 DB	 15
  01414	0f		 DB	 15
  01415	0f		 DB	 15
  01416	0f		 DB	 15
  01417	0f		 DB	 15
  01418	0f		 DB	 15
  01419	0f		 DB	 15
  0141a	0f		 DB	 15
  0141b	0f		 DB	 15
  0141c	0f		 DB	 15
  0141d	0f		 DB	 15
  0141e	0f		 DB	 15
  0141f	0f		 DB	 15
  01420	0f		 DB	 15
  01421	0f		 DB	 15
  01422	0f		 DB	 15
  01423	0e		 DB	 14
loc3270_execute_ccw ENDP
_TEXT	ENDS
; Function compile flags: /Odtp
; File C:\papa\MyGit\hyperion-zvector\console.c
_TEXT	SEGMENT
lsock$ = 80
rc$ = 84
rc$1 = 88
server$ = 96
optval$ = 104
tv168 = 108
tv226 = 112
tv69 = 120
tv91 = 128
tv186 = 136
tv207 = 144
msgbuf$2 = 160
__$ArrayPad$ = 224
stmt$ = 256
typ$ = 264
port$ = 272
get_listening_socket PROC

; 3304 : {

  00000	4c 89 44 24 18	 mov	 QWORD PTR [rsp+24], r8
  00005	48 89 54 24 10	 mov	 QWORD PTR [rsp+16], rdx
  0000a	48 89 4c 24 08	 mov	 QWORD PTR [rsp+8], rcx
  0000f	48 81 ec f8 00
	00 00		 sub	 rsp, 248		; 000000f8H
  00016	48 8b 05 00 00
	00 00		 mov	 rax, QWORD PTR __security_cookie
  0001d	48 33 c4	 xor	 rax, rsp
  00020	48 89 84 24 e0
	00 00 00	 mov	 QWORD PTR __$ArrayPad$[rsp], rax

; 3305 : int                    rc = 0;          /* Return code               */

  00028	c7 44 24 54 00
	00 00 00	 mov	 DWORD PTR rc$[rsp], 0

; 3306 : int                    lsock;           /* Socket for listening      */
; 3307 : int                    optval;          /* Argument for setsockopt   */
; 3308 : struct sockaddr_in    *server;          /* Server address structure  */
; 3309 : 
; 3310 :     /* Obtain a socket */
; 3311 :     lsock = socket( AF_INET, SOCK_STREAM, 0 );

  00030	45 33 c0	 xor	 r8d, r8d
  00033	ba 01 00 00 00	 mov	 edx, 1
  00038	b9 02 00 00 00	 mov	 ecx, 2
  0003d	ff 15 00 00 00
	00		 call	 QWORD PTR __imp_w32_socket
  00043	89 44 24 50	 mov	 DWORD PTR lsock$[rsp], eax

; 3312 : 
; 3313 :     if (lsock < 0)

  00047	83 7c 24 50 00	 cmp	 DWORD PTR lsock$[rsp], 0
  0004c	7d 7a		 jge	 SHORT $LN10@get_listen

; 3314 :     {
; 3315 :         // "COMM: error in function %s: %s"
; 3316 :         WRMSG( HHC01034, "E", "socket()", strerror( HSO_errno ));

  0004e	ff 15 00 00 00
	00		 call	 QWORD PTR __imp_WSAGetLastError
  00054	8b c8		 mov	 ecx, eax
  00056	ff 15 00 00 00
	00		 call	 QWORD PTR __imp_w32_strerror
  0005c	48 89 44 24 78	 mov	 QWORD PTR tv69[rsp], rax
  00061	b9 01 00 00 00	 mov	 ecx, 1
  00066	ff 15 00 00 00
	00		 call	 QWORD PTR __imp___acrt_iob_func
  0006c	48 8b 4c 24 78	 mov	 rcx, QWORD PTR tv69[rsp]
  00071	48 89 4c 24 40	 mov	 QWORD PTR [rsp+64], rcx
  00076	48 8d 0d 00 00
	00 00		 lea	 rcx, OFFSET FLAT:$SG179176
  0007d	48 89 4c 24 38	 mov	 QWORD PTR [rsp+56], rcx
  00082	48 8d 0d 00 00
	00 00		 lea	 rcx, OFFSET FLAT:$SG179177
  00089	48 89 4c 24 30	 mov	 QWORD PTR [rsp+48], rcx
  0008e	48 8d 0d 00 00
	00 00		 lea	 rcx, OFFSET FLAT:$SG179178
  00095	48 89 4c 24 28	 mov	 QWORD PTR [rsp+40], rcx
  0009a	48 89 44 24 20	 mov	 QWORD PTR [rsp+32], rax
  0009f	41 b9 03 00 00
	00		 mov	 r9d, 3
  000a5	4c 8d 05 00 00
	00 00		 lea	 r8, OFFSET FLAT:$SG179179
  000ac	ba f4 0c 00 00	 mov	 edx, 3316		; 00000cf4H
  000b1	48 8d 0d 00 00
	00 00		 lea	 rcx, OFFSET FLAT:$SG179180
  000b8	ff 15 00 00 00
	00		 call	 QWORD PTR __imp_fwritemsg

; 3317 :         return -1;

  000be	b8 ff ff ff ff	 mov	 eax, -1
  000c3	e9 2e 04 00 00	 jmp	 $LN1@get_listen
$LN10@get_listen:

; 3318 :     }
; 3319 : 
; 3320 :     /* Allow previous instance of socket to be reused */
; 3321 :     optval = 1;

  000c8	c7 44 24 68 01
	00 00 00	 mov	 DWORD PTR optval$[rsp], 1

; 3322 :     rc = setsockopt( lsock, SOL_SOCKET, SO_REUSEADDR,

  000d0	48 63 44 24 50	 movsxd	 rax, DWORD PTR lsock$[rsp]
  000d5	c7 44 24 20 04
	00 00 00	 mov	 DWORD PTR [rsp+32], 4
  000dd	4c 8d 4c 24 68	 lea	 r9, QWORD PTR optval$[rsp]
  000e2	41 b8 04 00 00
	00		 mov	 r8d, 4
  000e8	ba ff ff 00 00	 mov	 edx, 65535		; 0000ffffH
  000ed	48 8b c8	 mov	 rcx, rax
  000f0	ff 15 00 00 00
	00		 call	 QWORD PTR __imp_setsockopt
  000f6	89 44 24 54	 mov	 DWORD PTR rc$[rsp], eax

; 3323 :                      (GETSET_SOCKOPT_T*) &optval, sizeof( optval ));
; 3324 :     if (rc < 0)

  000fa	83 7c 24 54 00	 cmp	 DWORD PTR rc$[rsp], 0
  000ff	0f 8d 8a 00 00
	00		 jge	 $LN11@get_listen

; 3325 :     {
; 3326 :         // "COMM: error in function %s: %s"
; 3327 :         WRMSG( HHC01034, "E", "setsockopt()", strerror( HSO_errno ));

  00105	ff 15 00 00 00
	00		 call	 QWORD PTR __imp_WSAGetLastError
  0010b	8b c8		 mov	 ecx, eax
  0010d	ff 15 00 00 00
	00		 call	 QWORD PTR __imp_w32_strerror
  00113	48 89 84 24 80
	00 00 00	 mov	 QWORD PTR tv91[rsp], rax
  0011b	b9 01 00 00 00	 mov	 ecx, 1
  00120	ff 15 00 00 00
	00		 call	 QWORD PTR __imp___acrt_iob_func
  00126	48 8b 8c 24 80
	00 00 00	 mov	 rcx, QWORD PTR tv91[rsp]
  0012e	48 89 4c 24 40	 mov	 QWORD PTR [rsp+64], rcx
  00133	48 8d 0d 00 00
	00 00		 lea	 rcx, OFFSET FLAT:$SG179182
  0013a	48 89 4c 24 38	 mov	 QWORD PTR [rsp+56], rcx
  0013f	48 8d 0d 00 00
	00 00		 lea	 rcx, OFFSET FLAT:$SG179183
  00146	48 89 4c 24 30	 mov	 QWORD PTR [rsp+48], rcx
  0014b	48 8d 0d 00 00
	00 00		 lea	 rcx, OFFSET FLAT:$SG179184
  00152	48 89 4c 24 28	 mov	 QWORD PTR [rsp+40], rcx
  00157	48 89 44 24 20	 mov	 QWORD PTR [rsp+32], rax
  0015c	41 b9 03 00 00
	00		 mov	 r9d, 3
  00162	4c 8d 05 00 00
	00 00		 lea	 r8, OFFSET FLAT:$SG179185
  00169	ba ff 0c 00 00	 mov	 edx, 3327		; 00000cffH
  0016e	48 8d 0d 00 00
	00 00		 lea	 rcx, OFFSET FLAT:$SG179186
  00175	ff 15 00 00 00
	00		 call	 QWORD PTR __imp_fwritemsg

; 3328 :         close_socket( lsock );

  0017b	8b 4c 24 50	 mov	 ecx, DWORD PTR lsock$[rsp]
  0017f	ff 15 00 00 00
	00		 call	 QWORD PTR __imp_w32_close_socket

; 3329 :         return -1;

  00185	b8 ff ff ff ff	 mov	 eax, -1
  0018a	e9 67 03 00 00	 jmp	 $LN1@get_listen
$LN11@get_listen:

; 3330 :     }
; 3331 : 
; 3332 :     /* Prepare the sockaddr structure for the bind */
; 3333 :     if (!(server = parse_sockspec( port )))

  0018f	48 8b 8c 24 10
	01 00 00	 mov	 rcx, QWORD PTR port$[rsp]
  00197	e8 00 00 00 00	 call	 parse_sockspec
  0019c	48 89 44 24 60	 mov	 QWORD PTR server$[rsp], rax
  001a1	48 83 7c 24 60
	00		 cmp	 QWORD PTR server$[rsp], 0
  001a7	0f 85 97 00 00
	00		 jne	 $LN12@get_listen

; 3334 :     {
; 3335 :         char msgbuf[64];
; 3336 :         MSGBUF( msgbuf, "%s = %s", stmt, port );

  001ad	48 8b 84 24 10
	01 00 00	 mov	 rax, QWORD PTR port$[rsp]
  001b5	48 89 44 24 20	 mov	 QWORD PTR [rsp+32], rax
  001ba	4c 8b 8c 24 00
	01 00 00	 mov	 r9, QWORD PTR stmt$[rsp]
  001c2	4c 8d 05 00 00
	00 00		 lea	 r8, OFFSET FLAT:$SG179188
  001c9	ba 40 00 00 00	 mov	 edx, 64			; 00000040H
  001ce	48 8d 8c 24 a0
	00 00 00	 lea	 rcx, QWORD PTR msgbuf$2[rsp]
  001d6	ff 15 00 00 00
	00		 call	 QWORD PTR __imp_w32_snprintf

; 3337 :         // "COMM: invalid parameter %s"
; 3338 :         WRMSG( HHC01017, "E", msgbuf );

  001dc	b9 01 00 00 00	 mov	 ecx, 1
  001e1	ff 15 00 00 00
	00		 call	 QWORD PTR __imp___acrt_iob_func
  001e7	48 8d 8c 24 a0
	00 00 00	 lea	 rcx, QWORD PTR msgbuf$2[rsp]
  001ef	48 89 4c 24 38	 mov	 QWORD PTR [rsp+56], rcx
  001f4	48 8d 0d 00 00
	00 00		 lea	 rcx, OFFSET FLAT:$SG179189
  001fb	48 89 4c 24 30	 mov	 QWORD PTR [rsp+48], rcx
  00200	48 8d 0d 00 00
	00 00		 lea	 rcx, OFFSET FLAT:$SG179190
  00207	48 89 4c 24 28	 mov	 QWORD PTR [rsp+40], rcx
  0020c	48 89 44 24 20	 mov	 QWORD PTR [rsp+32], rax
  00211	41 b9 03 00 00
	00		 mov	 r9d, 3
  00217	4c 8d 05 00 00
	00 00		 lea	 r8, OFFSET FLAT:$SG179191
  0021e	ba 0a 0d 00 00	 mov	 edx, 3338		; 00000d0aH
  00223	48 8d 0d 00 00
	00 00		 lea	 rcx, OFFSET FLAT:$SG179192
  0022a	ff 15 00 00 00
	00		 call	 QWORD PTR __imp_fwritemsg

; 3339 :         close_socket( lsock );

  00230	8b 4c 24 50	 mov	 ecx, DWORD PTR lsock$[rsp]
  00234	ff 15 00 00 00
	00		 call	 QWORD PTR __imp_w32_close_socket

; 3340 :         return -1;

  0023a	b8 ff ff ff ff	 mov	 eax, -1
  0023f	e9 b2 02 00 00	 jmp	 $LN1@get_listen
$LN12@get_listen:
$LN4@get_listen:

; 3341 :     }
; 3342 : 
; 3343 :     /* Attempt to bind the socket to the port */
; 3344 :     do
; 3345 :     {
; 3346 :         rc = bind( lsock, (struct sockaddr*) server,

  00244	48 63 44 24 50	 movsxd	 rax, DWORD PTR lsock$[rsp]
  00249	41 b8 10 00 00
	00		 mov	 r8d, 16
  0024f	48 8b 54 24 60	 mov	 rdx, QWORD PTR server$[rsp]
  00254	48 8b c8	 mov	 rcx, rax
  00257	ff 15 00 00 00
	00		 call	 QWORD PTR __imp_bind
  0025d	89 44 24 54	 mov	 DWORD PTR rc$[rsp], eax

; 3347 :             sizeof( struct sockaddr_in ));
; 3348 : 
; 3349 :         if (rc == 0 || HSO_errno != HSO_EADDRINUSE)

  00261	83 7c 24 54 00	 cmp	 DWORD PTR rc$[rsp], 0
  00266	74 0d		 je	 SHORT $LN14@get_listen
  00268	ff 15 00 00 00
	00		 call	 QWORD PTR __imp_WSAGetLastError
  0026e	3d 40 27 00 00	 cmp	 eax, 10048		; 00002740H
  00273	74 05		 je	 SHORT $LN13@get_listen
$LN14@get_listen:

; 3350 :             break;

  00275	e9 a4 00 00 00	 jmp	 $LN3@get_listen
$LN13@get_listen:

; 3351 : 
; 3352 :         // "Waiting for port %u to become free for console connections"
; 3353 :         WRMSG( HHC01023, "W", ntohs( server->sin_port ));

  0027a	48 8b 44 24 60	 mov	 rax, QWORD PTR server$[rsp]
  0027f	0f b7 48 02	 movzx	 ecx, WORD PTR [rax+2]
  00283	ff 15 00 00 00
	00		 call	 QWORD PTR __imp_ntohs
  00289	0f b7 c0	 movzx	 eax, ax
  0028c	89 44 24 6c	 mov	 DWORD PTR tv168[rsp], eax
  00290	b9 01 00 00 00	 mov	 ecx, 1
  00295	ff 15 00 00 00
	00		 call	 QWORD PTR __imp___acrt_iob_func
  0029b	8b 4c 24 6c	 mov	 ecx, DWORD PTR tv168[rsp]
  0029f	89 4c 24 38	 mov	 DWORD PTR [rsp+56], ecx
  002a3	48 8d 0d 00 00
	00 00		 lea	 rcx, OFFSET FLAT:$SG179195
  002aa	48 89 4c 24 30	 mov	 QWORD PTR [rsp+48], rcx
  002af	48 8d 0d 00 00
	00 00		 lea	 rcx, OFFSET FLAT:$SG179196
  002b6	48 89 4c 24 28	 mov	 QWORD PTR [rsp+40], rcx
  002bb	48 89 44 24 20	 mov	 QWORD PTR [rsp+32], rax
  002c0	41 b9 03 00 00
	00		 mov	 r9d, 3
  002c6	4c 8d 05 00 00
	00 00		 lea	 r8, OFFSET FLAT:$SG179197
  002cd	ba 19 0d 00 00	 mov	 edx, 3353		; 00000d19H
  002d2	48 8d 0d 00 00
	00 00		 lea	 rcx, OFFSET FLAT:$SG179198
  002d9	ff 15 00 00 00
	00		 call	 QWORD PTR __imp_fwritemsg
$LN7@get_listen:

; 3354 :         SLEEP( 10 );

  002df	c7 44 24 58 0a
	00 00 00	 mov	 DWORD PTR rc$1[rsp], 10
$LN8@get_listen:
  002e7	83 7c 24 58 00	 cmp	 DWORD PTR rc$1[rsp], 0
  002ec	74 1d		 je	 SHORT $LN9@get_listen
  002ee	8b 4c 24 58	 mov	 ecx, DWORD PTR rc$1[rsp]
  002f2	ff 15 00 00 00
	00		 call	 QWORD PTR __imp_sleep
  002f8	89 44 24 58	 mov	 DWORD PTR rc$1[rsp], eax
  002fc	83 7c 24 58 00	 cmp	 DWORD PTR rc$1[rsp], 0
  00301	74 06		 je	 SHORT $LN15@get_listen
  00303	ff 15 00 00 00
	00		 call	 QWORD PTR __imp_sched_yield
$LN15@get_listen:
  00309	eb dc		 jmp	 SHORT $LN8@get_listen
$LN9@get_listen:
  0030b	33 c0		 xor	 eax, eax
  0030d	85 c0		 test	 eax, eax
  0030f	75 ce		 jne	 SHORT $LN7@get_listen

; 3355 :     }
; 3356 :     while (console_cnslcnt > 0);

  00311	83 3d 00 00 00
	00 00		 cmp	 DWORD PTR console_cnslcnt, 0
  00318	0f 8f 26 ff ff
	ff		 jg	 $LN4@get_listen
$LN3@get_listen:

; 3357 : 
; 3358 :     if (rc != 0)

  0031e	83 7c 24 54 00	 cmp	 DWORD PTR rc$[rsp], 0
  00323	0f 84 95 00 00
	00		 je	 $LN16@get_listen

; 3359 :     {
; 3360 :         // "COMM: error in function %s: %s"
; 3361 :         WRMSG( HHC01034, "E", "bind()", strerror( HSO_errno ));

  00329	ff 15 00 00 00
	00		 call	 QWORD PTR __imp_WSAGetLastError
  0032f	8b c8		 mov	 ecx, eax
  00331	ff 15 00 00 00
	00		 call	 QWORD PTR __imp_w32_strerror
  00337	48 89 84 24 88
	00 00 00	 mov	 QWORD PTR tv186[rsp], rax
  0033f	b9 01 00 00 00	 mov	 ecx, 1
  00344	ff 15 00 00 00
	00		 call	 QWORD PTR __imp___acrt_iob_func
  0034a	48 8b 8c 24 88
	00 00 00	 mov	 rcx, QWORD PTR tv186[rsp]
  00352	48 89 4c 24 40	 mov	 QWORD PTR [rsp+64], rcx
  00357	48 8d 0d 00 00
	00 00		 lea	 rcx, OFFSET FLAT:$SG179201
  0035e	48 89 4c 24 38	 mov	 QWORD PTR [rsp+56], rcx
  00363	48 8d 0d 00 00
	00 00		 lea	 rcx, OFFSET FLAT:$SG179202
  0036a	48 89 4c 24 30	 mov	 QWORD PTR [rsp+48], rcx
  0036f	48 8d 0d 00 00
	00 00		 lea	 rcx, OFFSET FLAT:$SG179203
  00376	48 89 4c 24 28	 mov	 QWORD PTR [rsp+40], rcx
  0037b	48 89 44 24 20	 mov	 QWORD PTR [rsp+32], rax
  00380	41 b9 03 00 00
	00		 mov	 r9d, 3
  00386	4c 8d 05 00 00
	00 00		 lea	 r8, OFFSET FLAT:$SG179204
  0038d	ba 21 0d 00 00	 mov	 edx, 3361		; 00000d21H
  00392	48 8d 0d 00 00
	00 00		 lea	 rcx, OFFSET FLAT:$SG179205
  00399	ff 15 00 00 00
	00		 call	 QWORD PTR __imp_fwritemsg

; 3362 :         free( server );

  0039f	48 8b 4c 24 60	 mov	 rcx, QWORD PTR server$[rsp]
  003a4	ff 15 00 00 00
	00		 call	 QWORD PTR __imp_free

; 3363 :         close_socket( lsock );

  003aa	8b 4c 24 50	 mov	 ecx, DWORD PTR lsock$[rsp]
  003ae	ff 15 00 00 00
	00		 call	 QWORD PTR __imp_w32_close_socket

; 3364 :         return -1;

  003b4	b8 ff ff ff ff	 mov	 eax, -1
  003b9	e9 38 01 00 00	 jmp	 $LN1@get_listen
$LN16@get_listen:

; 3365 :     }
; 3366 : 
; 3367 :     /* Put the socket into listening state */
; 3368 :     if ((rc = listen ( lsock, 10 )) < 0)

  003be	48 63 44 24 50	 movsxd	 rax, DWORD PTR lsock$[rsp]
  003c3	ba 0a 00 00 00	 mov	 edx, 10
  003c8	48 8b c8	 mov	 rcx, rax
  003cb	ff 15 00 00 00
	00		 call	 QWORD PTR __imp_listen
  003d1	89 44 24 54	 mov	 DWORD PTR rc$[rsp], eax
  003d5	83 7c 24 54 00	 cmp	 DWORD PTR rc$[rsp], 0
  003da	0f 8d 95 00 00
	00		 jge	 $LN17@get_listen

; 3369 :     {
; 3370 :         // "COMM: error in function %s: %s"
; 3371 :         WRMSG( HHC01034, "E", "listen()", strerror( HSO_errno ));

  003e0	ff 15 00 00 00
	00		 call	 QWORD PTR __imp_WSAGetLastError
  003e6	8b c8		 mov	 ecx, eax
  003e8	ff 15 00 00 00
	00		 call	 QWORD PTR __imp_w32_strerror
  003ee	48 89 84 24 90
	00 00 00	 mov	 QWORD PTR tv207[rsp], rax
  003f6	b9 01 00 00 00	 mov	 ecx, 1
  003fb	ff 15 00 00 00
	00		 call	 QWORD PTR __imp___acrt_iob_func
  00401	48 8b 8c 24 90
	00 00 00	 mov	 rcx, QWORD PTR tv207[rsp]
  00409	48 89 4c 24 40	 mov	 QWORD PTR [rsp+64], rcx
  0040e	48 8d 0d 00 00
	00 00		 lea	 rcx, OFFSET FLAT:$SG179207
  00415	48 89 4c 24 38	 mov	 QWORD PTR [rsp+56], rcx
  0041a	48 8d 0d 00 00
	00 00		 lea	 rcx, OFFSET FLAT:$SG179208
  00421	48 89 4c 24 30	 mov	 QWORD PTR [rsp+48], rcx
  00426	48 8d 0d 00 00
	00 00		 lea	 rcx, OFFSET FLAT:$SG179209
  0042d	48 89 4c 24 28	 mov	 QWORD PTR [rsp+40], rcx
  00432	48 89 44 24 20	 mov	 QWORD PTR [rsp+32], rax
  00437	41 b9 03 00 00
	00		 mov	 r9d, 3
  0043d	4c 8d 05 00 00
	00 00		 lea	 r8, OFFSET FLAT:$SG179210
  00444	ba 2b 0d 00 00	 mov	 edx, 3371		; 00000d2bH
  00449	48 8d 0d 00 00
	00 00		 lea	 rcx, OFFSET FLAT:$SG179211
  00450	ff 15 00 00 00
	00		 call	 QWORD PTR __imp_fwritemsg

; 3372 :         free( server );

  00456	48 8b 4c 24 60	 mov	 rcx, QWORD PTR server$[rsp]
  0045b	ff 15 00 00 00
	00		 call	 QWORD PTR __imp_free

; 3373 :         close_socket( lsock );

  00461	8b 4c 24 50	 mov	 ecx, DWORD PTR lsock$[rsp]
  00465	ff 15 00 00 00
	00		 call	 QWORD PTR __imp_w32_close_socket

; 3374 :         return -1;

  0046b	b8 ff ff ff ff	 mov	 eax, -1
  00470	e9 81 00 00 00	 jmp	 $LN1@get_listen
$LN17@get_listen:

; 3375 :     }
; 3376 : 
; 3377 :     // "Waiting for %sconsole connections on port %u"
; 3378 :     WRMSG( HHC01024, "I", typ, ntohs( server->sin_port ));

  00475	48 8b 44 24 60	 mov	 rax, QWORD PTR server$[rsp]
  0047a	0f b7 48 02	 movzx	 ecx, WORD PTR [rax+2]
  0047e	ff 15 00 00 00
	00		 call	 QWORD PTR __imp_ntohs
  00484	0f b7 c0	 movzx	 eax, ax
  00487	89 44 24 70	 mov	 DWORD PTR tv226[rsp], eax
  0048b	b9 01 00 00 00	 mov	 ecx, 1
  00490	ff 15 00 00 00
	00		 call	 QWORD PTR __imp___acrt_iob_func
  00496	8b 4c 24 70	 mov	 ecx, DWORD PTR tv226[rsp]
  0049a	89 4c 24 40	 mov	 DWORD PTR [rsp+64], ecx
  0049e	48 8b 8c 24 08
	01 00 00	 mov	 rcx, QWORD PTR typ$[rsp]
  004a6	48 89 4c 24 38	 mov	 QWORD PTR [rsp+56], rcx
  004ab	48 8d 0d 00 00
	00 00		 lea	 rcx, OFFSET FLAT:$SG179212
  004b2	48 89 4c 24 30	 mov	 QWORD PTR [rsp+48], rcx
  004b7	48 8d 0d 00 00
	00 00		 lea	 rcx, OFFSET FLAT:$SG179213
  004be	48 89 4c 24 28	 mov	 QWORD PTR [rsp+40], rcx
  004c3	48 89 44 24 20	 mov	 QWORD PTR [rsp+32], rax
  004c8	41 b9 03 00 00
	00		 mov	 r9d, 3
  004ce	4c 8d 05 00 00
	00 00		 lea	 r8, OFFSET FLAT:$SG179214
  004d5	ba 32 0d 00 00	 mov	 edx, 3378		; 00000d32H
  004da	48 8d 0d 00 00
	00 00		 lea	 rcx, OFFSET FLAT:$SG179215
  004e1	ff 15 00 00 00
	00		 call	 QWORD PTR __imp_fwritemsg

; 3379 :     free( server );

  004e7	48 8b 4c 24 60	 mov	 rcx, QWORD PTR server$[rsp]
  004ec	ff 15 00 00 00
	00		 call	 QWORD PTR __imp_free

; 3380 :     return lsock;

  004f2	8b 44 24 50	 mov	 eax, DWORD PTR lsock$[rsp]
$LN1@get_listen:

; 3381 : }

  004f6	48 8b 8c 24 e0
	00 00 00	 mov	 rcx, QWORD PTR __$ArrayPad$[rsp]
  004fe	48 33 cc	 xor	 rcx, rsp
  00501	e8 00 00 00 00	 call	 __security_check_cookie
  00506	48 81 c4 f8 00
	00 00		 add	 rsp, 248		; 000000f8H
  0050d	c3		 ret	 0
get_listening_socket ENDP
_TEXT	ENDS
; Function compile flags: /Odtp
; File C:\papa\MyGit\hyperion-zvector\console.c
_TEXT	SEGMENT
consto	PROC

; 3296 : {

  00000	48 83 ec 28	 sub	 rsp, 40			; 00000028H

; 3297 :     calcto();

  00004	e8 00 00 00 00	 call	 calcto

; 3298 : }

  00009	48 83 c4 28	 add	 rsp, 40			; 00000028H
  0000d	c3		 ret	 0
consto	ENDP
_TEXT	ENDS
; Function compile flags: /Odtp
; File C:\papa\MyGit\hyperion-zvector\console.c
_TEXT	SEGMENT
consio	PROC

; 3290 : {

  00000	48 83 ec 28	 sub	 rsp, 40			; 00000028H

; 3291 :     calcto();

  00004	e8 00 00 00 00	 call	 calcto

; 3292 :     memcpy( &previo, &currio, sizeof( struct timeval ));

  00009	48 8b 05 00 00
	00 00		 mov	 rax, QWORD PTR currio
  00010	48 89 05 00 00
	00 00		 mov	 QWORD PTR previo, rax

; 3293 : }

  00017	48 83 c4 28	 add	 rsp, 40			; 00000028H
  0001b	c3		 ret	 0
consio	ENDP
_TEXT	ENDS
; Function compile flags: /Odtp
; File C:\papa\MyGit\hyperion-zvector\console.c
_TEXT	SEGMENT
tv71 = 64
prev_timeout$ = 72
tv77 = 80
calcto	PROC

; 3277 : {

  00000	48 83 ec 68	 sub	 rsp, 104		; 00000068H

; 3278 :     struct timespec* prev_timeout = timeout;

  00004	48 8b 05 00 00
	00 00		 mov	 rax, QWORD PTR timeout
  0000b	48 89 44 24 48	 mov	 QWORD PTR prev_timeout$[rsp], rax

; 3279 :     gettimeofday( &currio, NULL );

  00010	33 d2		 xor	 edx, edx
  00012	48 8d 0d 00 00
	00 00		 lea	 rcx, OFFSET FLAT:currio
  00019	ff 15 00 00 00
	00		 call	 QWORD PTR __imp_gettimeofday

; 3280 :     timeval_subtract( &previo, &currio, &diffio );

  0001f	4c 8d 05 00 00
	00 00		 lea	 r8, OFFSET FLAT:diffio
  00026	48 8d 15 00 00
	00 00		 lea	 rdx, OFFSET FLAT:currio
  0002d	48 8d 0d 00 00
	00 00		 lea	 rcx, OFFSET FLAT:previo
  00034	ff 15 00 00 00
	00		 call	 QWORD PTR __imp_timeval_subtract

; 3281 :     timeout = (diffio.tv_sec  > 0 || diffio.tv_usec > 100000) ?

  0003a	83 3d 00 00 00
	00 00		 cmp	 DWORD PTR diffio, 0
  00041	7f 1a		 jg	 SHORT $LN5@calcto
  00043	81 3d 04 00 00
	00 a0 86 01 00	 cmp	 DWORD PTR diffio+4, 100000 ; 000186a0H
  0004d	7f 0e		 jg	 SHORT $LN5@calcto
  0004f	48 8d 05 00 00
	00 00		 lea	 rax, OFFSET FLAT:fastpoll
  00056	48 89 44 24 40	 mov	 QWORD PTR tv71[rsp], rax
  0005b	eb 0c		 jmp	 SHORT $LN6@calcto
$LN5@calcto:
  0005d	48 8d 05 00 00
	00 00		 lea	 rax, OFFSET FLAT:slowpoll
  00064	48 89 44 24 40	 mov	 QWORD PTR tv71[rsp], rax
$LN6@calcto:
  00069	48 8b 44 24 40	 mov	 rax, QWORD PTR tv71[rsp]
  0006e	48 89 05 00 00
	00 00		 mov	 QWORD PTR timeout, rax

; 3282 :         &slowpoll : &fastpoll;
; 3283 :     if (MLVL( DEBUG ))

  00075	48 8b 05 00 00
	00 00		 mov	 rax, QWORD PTR __imp_sysblk
  0007c	8b 80 80 75 01
	00		 mov	 eax, DWORD PTR [rax+95616]
  00082	25 00 00 00 40	 and	 eax, 1073741824		; 40000000H
  00087	85 c0		 test	 eax, eax
  00089	0f 84 87 00 00
	00		 je	 $LN2@calcto

; 3284 :         if (timeout != prev_timeout)

  0008f	48 8b 44 24 48	 mov	 rax, QWORD PTR prev_timeout$[rsp]
  00094	48 39 05 00 00
	00 00		 cmp	 QWORD PTR timeout, rax
  0009b	74 79		 je	 SHORT $LN3@calcto

; 3285 :             WRMSG( HHC02917, "D", &slowpoll == prev_timeout ?

  0009d	48 8d 05 00 00
	00 00		 lea	 rax, OFFSET FLAT:slowpoll
  000a4	48 3b 44 24 48	 cmp	 rax, QWORD PTR prev_timeout$[rsp]
  000a9	75 0e		 jne	 SHORT $LN7@calcto
  000ab	48 8d 05 00 00
	00 00		 lea	 rax, OFFSET FLAT:$SG179131
  000b2	48 89 44 24 50	 mov	 QWORD PTR tv77[rsp], rax
  000b7	eb 0c		 jmp	 SHORT $LN8@calcto
$LN7@calcto:
  000b9	48 8d 05 00 00
	00 00		 lea	 rax, OFFSET FLAT:$SG179132
  000c0	48 89 44 24 50	 mov	 QWORD PTR tv77[rsp], rax
$LN8@calcto:
  000c5	b9 01 00 00 00	 mov	 ecx, 1
  000ca	ff 15 00 00 00
	00		 call	 QWORD PTR __imp___acrt_iob_func
  000d0	48 8b 4c 24 50	 mov	 rcx, QWORD PTR tv77[rsp]
  000d5	48 89 4c 24 38	 mov	 QWORD PTR [rsp+56], rcx
  000da	48 8d 0d 00 00
	00 00		 lea	 rcx, OFFSET FLAT:$SG179133
  000e1	48 89 4c 24 30	 mov	 QWORD PTR [rsp+48], rcx
  000e6	48 8d 0d 00 00
	00 00		 lea	 rcx, OFFSET FLAT:$SG179134
  000ed	48 89 4c 24 28	 mov	 QWORD PTR [rsp+40], rcx
  000f2	48 89 44 24 20	 mov	 QWORD PTR [rsp+32], rax
  000f7	41 b9 03 00 00
	00		 mov	 r9d, 3
  000fd	4c 8d 05 00 00
	00 00		 lea	 r8, OFFSET FLAT:$SG179135
  00104	ba d6 0c 00 00	 mov	 edx, 3286		; 00000cd6H
  00109	48 8d 0d 00 00
	00 00		 lea	 rcx, OFFSET FLAT:$SG179136
  00110	ff 15 00 00 00
	00		 call	 QWORD PTR __imp_fwritemsg
$LN3@calcto:
$LN2@calcto:

; 3286 :                 "slow to FAST" : "FAST to slow" );
; 3287 : }

  00116	48 83 c4 68	 add	 rsp, 104		; 00000068H
  0011a	c3		 ret	 0
calcto	ENDP
_TEXT	ENDS
; Function compile flags: /Odtp
; File C:\papa\MyGit\hyperion-zvector\console.c
_TEXT	SEGMENT
dev$ = 80
tn$ = 88
c$1 = 96
csock$ = 100
rc$ = 104
rc$2 = 108
clientip$ = 112
logobfr$ = 120
len$ = 128
tv386 = 136
tv392 = 140
tv422 = 144
tv583 = 148
tv589 = 152
f$3 = 156
namelen$ = 160
saved_errno$4 = 164
tv481 = 168
tv482 = 176
tv496 = 184
tv497 = 192
tv66 = 200
tv174 = 208
tv178 = 216
ctl$ = 224
tv200 = 232
tv211 = 240
tv215 = 248
tv346 = 256
tv400 = 264
tv522 = 272
tv530 = 280
logoheight$ = 288
client$ = 296
orig_cid$ = 312
rejmsg$ = 352
hostmsg$ = 608
hvermsg$ = 864
procsmsg$ = 1120
devmsg$ = 1376
buf$ = 1632
__$ArrayPad$ = 3552
pArg$ = 3584
connect_client PROC

; 2860 : {

  00000	48 89 4c 24 08	 mov	 QWORD PTR [rsp+8], rcx
  00005	57		 push	 rdi
  00006	48 81 ec f0 0d
	00 00		 sub	 rsp, 3568		; 00000df0H
  0000d	48 8b 05 00 00
	00 00		 mov	 rax, QWORD PTR __security_cookie
  00014	48 33 c4	 xor	 rax, rsp
  00017	48 89 84 24 e0
	0d 00 00	 mov	 QWORD PTR __$ArrayPad$[rsp], rax

; 2861 : TELNET                 *tn;             /* Telnet Control Block      */
; 2862 : telnet_t               *ctl;            /* libtelnet state tracker   */
; 2863 : int                     csock;          /* Client socket             */
; 2864 : 
; 2865 : int                     rc;             /* Return code               */
; 2866 : DEVBLK                 *dev;            /* -> Device block           */
; 2867 : size_t                  len;            /* Data length               */
; 2868 : 
; 2869 : struct sockaddr_in      client;         /* Client address structure  */
; 2870 : socklen_t               namelen;        /* Length of client structure*/
; 2871 : char                   *clientip;       /* Addr of client ip address */
; 2872 : char                    buf[1920];      /* Work buffer               */
; 2873 : char                    orig_cid[32];   /* e.g. "client 123"         */
; 2874 : 
; 2875 : char                    hvermsg[256];   /* "Hercules version ..."    */
; 2876 : char                    hostmsg[256];   /* "Running on..."           */
; 2877 : char                    procsmsg[256];  /* #of processors string     */
; 2878 : 
; 2879 : char                    rejmsg[256];    /* Rejection message         */
; 2880 : char                    devmsg[256];    /* Device message            */
; 2881 : 
; 2882 : BYTE                   *logobfr;        /* Constructed logo screen   */
; 2883 : size_t                  logoheight;     /* Logo file number of lines */
; 2884 : 
; 2885 :     /* Initialize some local variables */
; 2886 :     tn    = (TELNET*) pArg;

  0001f	48 8b 84 24 00
	0e 00 00	 mov	 rax, QWORD PTR pArg$[rsp]
  00027	48 89 44 24 58	 mov	 QWORD PTR tn$[rsp], rax

; 2887 :     csock = tn->csock;

  0002c	48 8b 44 24 58	 mov	 rax, QWORD PTR tn$[rsp]
  00031	8b 80 84 00 00
	00		 mov	 eax, DWORD PTR [rax+132]
  00037	89 44 24 64	 mov	 DWORD PTR csock$[rsp], eax

; 2888 :     ctl   = tn->ctl;

  0003b	48 8b 44 24 58	 mov	 rax, QWORD PTR tn$[rsp]
  00040	48 8b 80 98 00
	00 00		 mov	 rax, QWORD PTR [rax+152]
  00047	48 89 84 24 e0
	00 00 00	 mov	 QWORD PTR ctl$[rsp], rax

; 2889 : 
; 2890 :     // "%s COMM: connection received"
; 2891 :     WRMSG( HHC02915, "I", tn->clientid );

  0004f	48 8b 44 24 58	 mov	 rax, QWORD PTR tn$[rsp]
  00054	48 83 c0 62	 add	 rax, 98			; 00000062H
  00058	48 89 84 24 c8
	00 00 00	 mov	 QWORD PTR tv66[rsp], rax
  00060	b9 01 00 00 00	 mov	 ecx, 1
  00065	ff 15 00 00 00
	00		 call	 QWORD PTR __imp___acrt_iob_func
  0006b	48 8b 8c 24 c8
	00 00 00	 mov	 rcx, QWORD PTR tv66[rsp]
  00073	48 89 4c 24 38	 mov	 QWORD PTR [rsp+56], rcx
  00078	48 8d 0d 00 00
	00 00		 lea	 rcx, OFFSET FLAT:$SG178985
  0007f	48 89 4c 24 30	 mov	 QWORD PTR [rsp+48], rcx
  00084	48 8d 0d 00 00
	00 00		 lea	 rcx, OFFSET FLAT:$SG178986
  0008b	48 89 4c 24 28	 mov	 QWORD PTR [rsp+40], rcx
  00090	48 89 44 24 20	 mov	 QWORD PTR [rsp+32], rax
  00095	41 b9 03 00 00
	00		 mov	 r9d, 3
  0009b	4c 8d 05 00 00
	00 00		 lea	 r8, OFFSET FLAT:$SG178987
  000a2	ba 4b 0b 00 00	 mov	 edx, 2891		; 00000b4bH
  000a7	48 8d 0d 00 00
	00 00		 lea	 rcx, OFFSET FLAT:$SG178988
  000ae	ff 15 00 00 00
	00		 call	 QWORD PTR __imp_fwritemsg

; 2892 : 
; 2893 :     // "Hercules version %s, built on %s %s"
; 2894 :     // (Note: "MSG_C" used so message does NOT end with newline)
; 2895 :     MSGBUF( hvermsg, MSG_C( HHC01027, "I", VERSION, __DATE__, __TIME__ ));

  000b4	48 8d 05 00 00
	00 00		 lea	 rax, OFFSET FLAT:$SG178989
  000bb	48 89 44 24 30	 mov	 QWORD PTR [rsp+48], rax
  000c0	48 8d 05 00 00
	00 00		 lea	 rax, OFFSET FLAT:$SG178990
  000c7	48 89 44 24 28	 mov	 QWORD PTR [rsp+40], rax
  000cc	48 8d 05 00 00
	00 00		 lea	 rax, OFFSET FLAT:$SG178991
  000d3	48 89 44 24 20	 mov	 QWORD PTR [rsp+32], rax
  000d8	4c 8d 0d 00 00
	00 00		 lea	 r9, OFFSET FLAT:$SG178992
  000df	4c 8d 05 00 00
	00 00		 lea	 r8, OFFSET FLAT:$SG178993
  000e6	ba 00 01 00 00	 mov	 edx, 256		; 00000100H
  000eb	48 8d 8c 24 60
	03 00 00	 lea	 rcx, QWORD PTR hvermsg$[rsp]
  000f3	ff 15 00 00 00
	00		 call	 QWORD PTR __imp_w32_snprintf

; 2896 : 
; 2897 :     // "LP=%d, Cores=%d, CPUs=%d",
; 2898 :     // or "MP=%d", or "UP" or ""
; 2899 :     if (1
; 2900 :         && hostinfo.num_packages      !=  0
; 2901 :         && hostinfo.num_physical_cpu  !=  0
; 2902 :         && hostinfo.num_logical_cpu   !=  0

  000f9	33 c0		 xor	 eax, eax
  000fb	83 f8 01	 cmp	 eax, 1
  000fe	74 7f		 je	 SHORT $LN22@connect_cl
  00100	48 8b 05 00 00
	00 00		 mov	 rax, QWORD PTR __imp_hostinfo
  00107	83 b8 c4 01 00
	00 00		 cmp	 DWORD PTR [rax+452], 0
  0010e	74 6f		 je	 SHORT $LN22@connect_cl
  00110	48 8b 05 00 00
	00 00		 mov	 rax, QWORD PTR __imp_hostinfo
  00117	83 b8 bc 01 00
	00 00		 cmp	 DWORD PTR [rax+444], 0
  0011e	74 5f		 je	 SHORT $LN22@connect_cl
  00120	48 8b 05 00 00
	00 00		 mov	 rax, QWORD PTR __imp_hostinfo
  00127	83 b8 c0 01 00
	00 00		 cmp	 DWORD PTR [rax+448], 0
  0012e	74 4f		 je	 SHORT $LN22@connect_cl

; 2903 :     )
; 2904 :     {
; 2905 :         MSGBUF( procsmsg, "LP=%d, Cores=%d, CPUs=%d"

  00130	48 8b 05 00 00
	00 00		 mov	 rax, QWORD PTR __imp_hostinfo
  00137	8b 80 c4 01 00
	00		 mov	 eax, DWORD PTR [rax+452]
  0013d	89 44 24 28	 mov	 DWORD PTR [rsp+40], eax
  00141	48 8b 05 00 00
	00 00		 mov	 rax, QWORD PTR __imp_hostinfo
  00148	8b 80 bc 01 00
	00		 mov	 eax, DWORD PTR [rax+444]
  0014e	89 44 24 20	 mov	 DWORD PTR [rsp+32], eax
  00152	48 8b 05 00 00
	00 00		 mov	 rax, QWORD PTR __imp_hostinfo
  00159	44 8b 88 c0 01
	00 00		 mov	 r9d, DWORD PTR [rax+448]
  00160	4c 8d 05 00 00
	00 00		 lea	 r8, OFFSET FLAT:$SG178996
  00167	ba 00 01 00 00	 mov	 edx, 256		; 00000100H
  0016c	48 8d 8c 24 60
	04 00 00	 lea	 rcx, QWORD PTR procsmsg$[rsp]
  00174	ff 15 00 00 00
	00		 call	 QWORD PTR __imp_w32_snprintf

; 2906 :             , hostinfo.num_logical_cpu
; 2907 :             , hostinfo.num_physical_cpu
; 2908 :             , hostinfo.num_packages
; 2909 :         );
; 2910 :     }

  0017a	e9 82 00 00 00	 jmp	 $LN23@connect_cl
$LN22@connect_cl:

; 2911 :     else
; 2912 :     {
; 2913 :         if (hostinfo.num_procs > 1)

  0017f	48 8b 05 00 00
	00 00		 mov	 rax, QWORD PTR __imp_hostinfo
  00186	83 b8 b8 01 00
	00 01		 cmp	 DWORD PTR [rax+440], 1
  0018d	7e 2a		 jle	 SHORT $LN24@connect_cl

; 2914 :             MSGBUF(  procsmsg, "MP=%d", hostinfo.num_procs );

  0018f	48 8b 05 00 00
	00 00		 mov	 rax, QWORD PTR __imp_hostinfo
  00196	44 8b 88 b8 01
	00 00		 mov	 r9d, DWORD PTR [rax+440]
  0019d	4c 8d 05 00 00
	00 00		 lea	 r8, OFFSET FLAT:$SG178999
  001a4	ba 00 01 00 00	 mov	 edx, 256		; 00000100H
  001a9	48 8d 8c 24 60
	04 00 00	 lea	 rcx, QWORD PTR procsmsg$[rsp]
  001b1	ff 15 00 00 00
	00		 call	 QWORD PTR __imp_w32_snprintf
  001b7	eb 48		 jmp	 SHORT $LN25@connect_cl
$LN24@connect_cl:

; 2915 :         else if (hostinfo.num_procs == 1)

  001b9	48 8b 05 00 00
	00 00		 mov	 rax, QWORD PTR __imp_hostinfo
  001c0	83 b8 b8 01 00
	00 01		 cmp	 DWORD PTR [rax+440], 1
  001c7	75 1d		 jne	 SHORT $LN26@connect_cl

; 2916 :             STRLCPY( procsmsg, "UP" );

  001c9	41 b8 00 01 00
	00		 mov	 r8d, 256		; 00000100H
  001cf	48 8d 15 00 00
	00 00		 lea	 rdx, OFFSET FLAT:$SG179002
  001d6	48 8d 8c 24 60
	04 00 00	 lea	 rcx, QWORD PTR procsmsg$[rsp]
  001de	ff 15 00 00 00
	00		 call	 QWORD PTR __imp_strlcpy
  001e4	eb 1b		 jmp	 SHORT $LN27@connect_cl
$LN26@connect_cl:

; 2917 :         else
; 2918 :             STRLCPY( procsmsg, "" );

  001e6	41 b8 00 01 00
	00		 mov	 r8d, 256		; 00000100H
  001ec	48 8d 15 00 00
	00 00		 lea	 rdx, OFFSET FLAT:$SG179003
  001f3	48 8d 8c 24 60
	04 00 00	 lea	 rcx, QWORD PTR procsmsg$[rsp]
  001fb	ff 15 00 00 00
	00		 call	 QWORD PTR __imp_strlcpy
$LN27@connect_cl:
$LN25@connect_cl:
$LN23@connect_cl:

; 2919 :     }
; 2920 : 
; 2921 :     // "Running on %s (%s-%s.%s %s %s)"
; 2922 :     // (Note: "MSG_C" used so message does NOT end with newline)
; 2923 :     MSGBUF( hostmsg, MSG_C( HHC01031, "I"

  00201	48 8b 05 00 00
	00 00		 mov	 rax, QWORD PTR __imp_hostinfo
  00208	48 05 30 01 00
	00		 add	 rax, 304		; 00000130H
  0020e	48 8b 0d 00 00
	00 00		 mov	 rcx, QWORD PTR __imp_hostinfo
  00215	48 81 c1 f0 00
	00 00		 add	 rcx, 240		; 000000f0H
  0021c	48 8b 15 00 00
	00 00		 mov	 rdx, QWORD PTR __imp_hostinfo
  00223	48 81 c2 b0 00
	00 00		 add	 rdx, 176		; 000000b0H
  0022a	4c 8b 05 00 00
	00 00		 mov	 r8, QWORD PTR __imp_hostinfo
  00231	49 83 c0 30	 add	 r8, 48			; 00000030H
  00235	4c 8b 0d 00 00
	00 00		 mov	 r9, QWORD PTR __imp_hostinfo
  0023c	49 83 c1 70	 add	 r9, 112			; 00000070H
  00240	4c 8d 94 24 60
	04 00 00	 lea	 r10, QWORD PTR procsmsg$[rsp]
  00248	4c 89 54 24 48	 mov	 QWORD PTR [rsp+72], r10
  0024d	48 89 44 24 40	 mov	 QWORD PTR [rsp+64], rax
  00252	48 89 4c 24 38	 mov	 QWORD PTR [rsp+56], rcx
  00257	48 89 54 24 30	 mov	 QWORD PTR [rsp+48], rdx
  0025c	4c 89 44 24 28	 mov	 QWORD PTR [rsp+40], r8
  00261	4c 89 4c 24 20	 mov	 QWORD PTR [rsp+32], r9
  00266	4c 8d 0d 00 00
	00 00		 lea	 r9, OFFSET FLAT:$SG179004
  0026d	4c 8d 05 00 00
	00 00		 lea	 r8, OFFSET FLAT:$SG179005
  00274	ba 00 01 00 00	 mov	 edx, 256		; 00000100H
  00279	48 8d 8c 24 60
	02 00 00	 lea	 rcx, QWORD PTR hostmsg$[rsp]
  00281	ff 15 00 00 00
	00		 call	 QWORD PTR __imp_w32_snprintf

; 2924 :         , hostinfo.nodename
; 2925 :         , hostinfo.sysname
; 2926 :         , hostinfo.release
; 2927 :         , hostinfo.version
; 2928 :         , hostinfo.machine
; 2929 :         , procsmsg)
; 2930 :     );
; 2931 : 
; 2932 :     /* Obtain the client's IP address */
; 2933 :     namelen = sizeof( client );

  00287	c7 84 24 a0 00
	00 00 10 00 00
	00		 mov	 DWORD PTR namelen$[rsp], 16

; 2934 :     rc = getpeername( csock, (struct sockaddr*) &client, &namelen );

  00292	48 63 44 24 64	 movsxd	 rax, DWORD PTR csock$[rsp]
  00297	4c 8d 84 24 a0
	00 00 00	 lea	 r8, QWORD PTR namelen$[rsp]
  0029f	48 8d 94 24 28
	01 00 00	 lea	 rdx, QWORD PTR client$[rsp]
  002a7	48 8b c8	 mov	 rcx, rax
  002aa	ff 15 00 00 00
	00		 call	 QWORD PTR __imp_getpeername
  002b0	89 44 24 68	 mov	 DWORD PTR rc$[rsp], eax

; 2935 : 
; 2936 :     // "%s COMM: received connection from %s"
; 2937 :     clientip = strdup( inet_ntoa( client.sin_addr ));

  002b4	8b 8c 24 2c 01
	00 00		 mov	 ecx, DWORD PTR client$[rsp+4]
  002bb	ff 15 00 00 00
	00		 call	 QWORD PTR __imp_inet_ntoa
  002c1	48 8b c8	 mov	 rcx, rax
  002c4	ff 15 00 00 00
	00		 call	 QWORD PTR __imp_strdup
  002ca	48 89 44 24 70	 mov	 QWORD PTR clientip$[rsp], rax

; 2938 :     CONDEBUG1( HHC90505, "D", tn->clientid, clientip );
; 2939 : 
; 2940 :     /* Dr. Hans-Walter Latz -- binary xfer mode performance tweak
; 2941 :        See: http://www.unixguide.net/network/socketfaq/2.16.shtml
; 2942 :     */
; 2943 :     if (disable_nagle(csock) < 0)

  002cf	8b 4c 24 64	 mov	 ecx, DWORD PTR csock$[rsp]
  002d3	ff 15 00 00 00
	00		 call	 QWORD PTR __imp_disable_nagle
  002d9	85 c0		 test	 eax, eax
  002db	0f 8d 88 00 00
	00		 jge	 $LN28@connect_cl

; 2944 :         // "%s COMM: setsockopt() failed: %s"
; 2945 :         CONERROR( HHC90510, "D", tn->clientid, strerror( HSO_errno ));

  002e1	ff 15 00 00 00
	00		 call	 QWORD PTR __imp_WSAGetLastError
  002e7	8b c8		 mov	 ecx, eax
  002e9	ff 15 00 00 00
	00		 call	 QWORD PTR __imp_w32_strerror
  002ef	48 89 84 24 d0
	00 00 00	 mov	 QWORD PTR tv174[rsp], rax
  002f7	48 8b 4c 24 58	 mov	 rcx, QWORD PTR tn$[rsp]
  002fc	48 83 c1 62	 add	 rcx, 98			; 00000062H
  00300	48 89 8c 24 d8
	00 00 00	 mov	 QWORD PTR tv178[rsp], rcx
  00308	b9 01 00 00 00	 mov	 ecx, 1
  0030d	ff 15 00 00 00
	00		 call	 QWORD PTR __imp___acrt_iob_func
  00313	48 8b 8c 24 d0
	00 00 00	 mov	 rcx, QWORD PTR tv174[rsp]
  0031b	48 89 4c 24 40	 mov	 QWORD PTR [rsp+64], rcx
  00320	48 8b 8c 24 d8
	00 00 00	 mov	 rcx, QWORD PTR tv178[rsp]
  00328	48 89 4c 24 38	 mov	 QWORD PTR [rsp+56], rcx
  0032d	48 8d 0d 00 00
	00 00		 lea	 rcx, OFFSET FLAT:$SG179007
  00334	48 89 4c 24 30	 mov	 QWORD PTR [rsp+48], rcx
  00339	48 8d 0d 00 00
	00 00		 lea	 rcx, OFFSET FLAT:$SG179008
  00340	48 89 4c 24 28	 mov	 QWORD PTR [rsp+40], rcx
  00345	48 89 44 24 20	 mov	 QWORD PTR [rsp+32], rax
  0034a	41 b9 03 00 00
	00		 mov	 r9d, 3
  00350	4c 8d 05 00 00
	00 00		 lea	 r8, OFFSET FLAT:$SG179009
  00357	ba 81 0b 00 00	 mov	 edx, 2945		; 00000b81H
  0035c	48 8d 0d 00 00
	00 00		 lea	 rcx, OFFSET FLAT:$SG179010
  00363	ff 15 00 00 00
	00		 call	 QWORD PTR __imp_fwritemsg
$LN28@connect_cl:
$LN4@connect_cl:

; 2946 : 
; 2947 :     /* Determine client's terminal type by reading from the socket
; 2948 :        and passing all data to libtelnet so it can pass it to our
; 2949 :        telnet event handler until we eventually learn their TTYPE.
; 2950 :        Note that during this process any non-telnet client data we
; 2951 :        may receive is discarded by our event handler as premature;
; 2952 :        we shouldn't be receiving data from the client until we ask
; 2953 :        for it which we never do until negotiations are complete.
; 2954 :     */
; 2955 :     do
; 2956 :     {
; 2957 :         /* Read client telnet negotiation data */
; 2958 :         if ((rc = recv( csock, buf, sizeof( buf ), 0 )) > 0)

  00369	48 63 44 24 64	 movsxd	 rax, DWORD PTR csock$[rsp]
  0036e	45 33 c9	 xor	 r9d, r9d
  00371	41 b8 80 07 00
	00		 mov	 r8d, 1920		; 00000780H
  00377	48 8d 94 24 60
	06 00 00	 lea	 rdx, QWORD PTR buf$[rsp]
  0037f	48 8b c8	 mov	 rcx, rax
  00382	ff 15 00 00 00
	00		 call	 QWORD PTR __imp_recv
  00388	89 44 24 68	 mov	 DWORD PTR rc$[rsp], eax
  0038c	83 7c 24 68 00	 cmp	 DWORD PTR rc$[rsp], 0
  00391	7e 1f		 jle	 SHORT $LN29@connect_cl

; 2959 :         {
; 2960 :             // "%s COMM: received %d bytes"
; 2961 :             CONDEBUG2( HHC90501, "D", tn->clientid, rc );
; 2962 :             DUMPBUF(   HHC90501, buf, rc, tn->do_tn3270 ? 1 : 0 );
; 2963 : 
; 2964 :             /* Pass data to libtelnet to pass to our event handler */
; 2965 :             telnet_recv( ctl, (BYTE*) buf, rc );

  00393	44 8b 44 24 68	 mov	 r8d, DWORD PTR rc$[rsp]
  00398	48 8d 94 24 60
	06 00 00	 lea	 rdx, QWORD PTR buf$[rsp]
  003a0	48 8b 8c 24 e0
	00 00 00	 mov	 rcx, QWORD PTR ctl$[rsp]
  003a8	e8 00 00 00 00	 call	 telnet_recv

; 2966 :         }

  003ad	e9 1d 01 00 00	 jmp	 $LN30@connect_cl
$LN29@connect_cl:

; 2967 :         else /* recv() error or connection closed */
; 2968 :         {
; 2969 :             if (rc == 0)

  003b2	83 7c 24 68 00	 cmp	 DWORD PTR rc$[rsp], 0
  003b7	75 6a		 jne	 SHORT $LN31@connect_cl

; 2970 :                 // "%s COMM: connection closed during negotiations"
; 2971 :                 WRMSG( HHC02908, "E", tn->clientid );

  003b9	48 8b 44 24 58	 mov	 rax, QWORD PTR tn$[rsp]
  003be	48 83 c0 62	 add	 rax, 98			; 00000062H
  003c2	48 89 84 24 e8
	00 00 00	 mov	 QWORD PTR tv200[rsp], rax
  003ca	b9 01 00 00 00	 mov	 ecx, 1
  003cf	ff 15 00 00 00
	00		 call	 QWORD PTR __imp___acrt_iob_func
  003d5	48 8b 8c 24 e8
	00 00 00	 mov	 rcx, QWORD PTR tv200[rsp]
  003dd	48 89 4c 24 38	 mov	 QWORD PTR [rsp+56], rcx
  003e2	48 8d 0d 00 00
	00 00		 lea	 rcx, OFFSET FLAT:$SG179015
  003e9	48 89 4c 24 30	 mov	 QWORD PTR [rsp+48], rcx
  003ee	48 8d 0d 00 00
	00 00		 lea	 rcx, OFFSET FLAT:$SG179016
  003f5	48 89 4c 24 28	 mov	 QWORD PTR [rsp+40], rcx
  003fa	48 89 44 24 20	 mov	 QWORD PTR [rsp+32], rax
  003ff	41 b9 03 00 00
	00		 mov	 r9d, 3
  00405	4c 8d 05 00 00
	00 00		 lea	 r8, OFFSET FLAT:$SG179017
  0040c	ba 9b 0b 00 00	 mov	 edx, 2971		; 00000b9bH
  00411	48 8d 0d 00 00
	00 00		 lea	 rcx, OFFSET FLAT:$SG179018
  00418	ff 15 00 00 00
	00		 call	 QWORD PTR __imp_fwritemsg
  0041e	e9 88 00 00 00	 jmp	 $LN32@connect_cl
$LN31@connect_cl:

; 2972 :             else
; 2973 :                 // "%s COMM: recv() error during negotiations: %s"
; 2974 :                 WRMSG( HHC02909, "E", tn->clientid, strerror( errno ));

  00423	ff 15 00 00 00
	00		 call	 QWORD PTR __imp__errno
  00429	8b 08		 mov	 ecx, DWORD PTR [rax]
  0042b	ff 15 00 00 00
	00		 call	 QWORD PTR __imp_w32_strerror
  00431	48 89 84 24 f0
	00 00 00	 mov	 QWORD PTR tv211[rsp], rax
  00439	48 8b 4c 24 58	 mov	 rcx, QWORD PTR tn$[rsp]
  0043e	48 83 c1 62	 add	 rcx, 98			; 00000062H
  00442	48 89 8c 24 f8
	00 00 00	 mov	 QWORD PTR tv215[rsp], rcx
  0044a	b9 01 00 00 00	 mov	 ecx, 1
  0044f	ff 15 00 00 00
	00		 call	 QWORD PTR __imp___acrt_iob_func
  00455	48 8b 8c 24 f0
	00 00 00	 mov	 rcx, QWORD PTR tv211[rsp]
  0045d	48 89 4c 24 40	 mov	 QWORD PTR [rsp+64], rcx
  00462	48 8b 8c 24 f8
	00 00 00	 mov	 rcx, QWORD PTR tv215[rsp]
  0046a	48 89 4c 24 38	 mov	 QWORD PTR [rsp+56], rcx
  0046f	48 8d 0d 00 00
	00 00		 lea	 rcx, OFFSET FLAT:$SG179019
  00476	48 89 4c 24 30	 mov	 QWORD PTR [rsp+48], rcx
  0047b	48 8d 0d 00 00
	00 00		 lea	 rcx, OFFSET FLAT:$SG179020
  00482	48 89 4c 24 28	 mov	 QWORD PTR [rsp+40], rcx
  00487	48 89 44 24 20	 mov	 QWORD PTR [rsp+32], rax
  0048c	41 b9 03 00 00
	00		 mov	 r9d, 3
  00492	4c 8d 05 00 00
	00 00		 lea	 r8, OFFSET FLAT:$SG179021
  00499	ba 9e 0b 00 00	 mov	 edx, 2974		; 00000b9eH
  0049e	48 8d 0d 00 00
	00 00		 lea	 rcx, OFFSET FLAT:$SG179022
  004a5	ff 15 00 00 00
	00		 call	 QWORD PTR __imp_fwritemsg
$LN32@connect_cl:

; 2975 : 
; 2976 :             /* Discard client connection */
; 2977 :             disconnect_telnet_client( tn );

  004ab	48 8b 4c 24 58	 mov	 rcx, QWORD PTR tn$[rsp]
  004b0	e8 00 00 00 00	 call	 disconnect_telnet_client

; 2978 :             if (clientip)

  004b5	48 83 7c 24 70
	00		 cmp	 QWORD PTR clientip$[rsp], 0
  004bb	74 0b		 je	 SHORT $LN33@connect_cl

; 2979 :                 free( clientip );

  004bd	48 8b 4c 24 70	 mov	 rcx, QWORD PTR clientip$[rsp]
  004c2	ff 15 00 00 00
	00		 call	 QWORD PTR __imp_free
$LN33@connect_cl:

; 2980 :             return NULL;

  004c8	33 c0		 xor	 eax, eax
  004ca	e9 e4 0e 00 00	 jmp	 $LN1@connect_cl
$LN30@connect_cl:

; 2981 :         }
; 2982 :     }
; 2983 :     while (1
; 2984 :         && !tn->ttype[0]        /* (what we're really interested in) */
; 2985 :         && !tn->neg_fail
; 2986 :         && !tn->send_err
; 2987 :         && !tn->overflow

  004cf	33 c0		 xor	 eax, eax
  004d1	83 f8 01	 cmp	 eax, 1
  004d4	74 4b		 je	 SHORT $LN34@connect_cl
  004d6	b8 01 00 00 00	 mov	 eax, 1
  004db	48 6b c0 00	 imul	 rax, rax, 0
  004df	48 8b 4c 24 58	 mov	 rcx, QWORD PTR tn$[rsp]
  004e4	0f be 44 01 29	 movsx	 eax, BYTE PTR [rcx+rax+41]
  004e9	85 c0		 test	 eax, eax
  004eb	75 34		 jne	 SHORT $LN34@connect_cl
  004ed	48 8b 44 24 58	 mov	 rax, QWORD PTR tn$[rsp]
  004f2	0f b6 80 b3 00
	00 00		 movzx	 eax, BYTE PTR [rax+179]
  004f9	85 c0		 test	 eax, eax
  004fb	75 24		 jne	 SHORT $LN34@connect_cl
  004fd	48 8b 44 24 58	 mov	 rax, QWORD PTR tn$[rsp]
  00502	0f b6 80 b4 00
	00 00		 movzx	 eax, BYTE PTR [rax+180]
  00509	85 c0		 test	 eax, eax
  0050b	75 14		 jne	 SHORT $LN34@connect_cl
  0050d	48 8b 44 24 58	 mov	 rax, QWORD PTR tn$[rsp]
  00512	0f b6 80 b5 00
	00 00		 movzx	 eax, BYTE PTR [rax+181]
  00519	85 c0		 test	 eax, eax
  0051b	0f 84 48 fe ff
	ff		 je	 $LN4@connect_cl
$LN34@connect_cl:

; 2988 :     );
; 2989 : 
; 2990 :     /* Abort connection on error */
; 2991 :     if (0
; 2992 :         || tn->neg_fail
; 2993 :         || tn->send_err
; 2994 :         || tn->overflow

  00521	33 c0		 xor	 eax, eax
  00523	85 c0		 test	 eax, eax
  00525	75 30		 jne	 SHORT $LN36@connect_cl
  00527	48 8b 44 24 58	 mov	 rax, QWORD PTR tn$[rsp]
  0052c	0f b6 80 b3 00
	00 00		 movzx	 eax, BYTE PTR [rax+179]
  00533	85 c0		 test	 eax, eax
  00535	75 20		 jne	 SHORT $LN36@connect_cl
  00537	48 8b 44 24 58	 mov	 rax, QWORD PTR tn$[rsp]
  0053c	0f b6 80 b4 00
	00 00		 movzx	 eax, BYTE PTR [rax+180]
  00543	85 c0		 test	 eax, eax
  00545	75 10		 jne	 SHORT $LN36@connect_cl
  00547	48 8b 44 24 58	 mov	 rax, QWORD PTR tn$[rsp]
  0054c	0f b6 80 b5 00
	00 00		 movzx	 eax, BYTE PTR [rax+181]
  00553	85 c0		 test	 eax, eax
  00555	74 24		 je	 SHORT $LN35@connect_cl
$LN36@connect_cl:

; 2995 :     )
; 2996 :     {
; 2997 :         /* (error message already issued) */
; 2998 :         disconnect_telnet_client( tn );

  00557	48 8b 4c 24 58	 mov	 rcx, QWORD PTR tn$[rsp]
  0055c	e8 00 00 00 00	 call	 disconnect_telnet_client

; 2999 :         if (clientip)

  00561	48 83 7c 24 70
	00		 cmp	 QWORD PTR clientip$[rsp], 0
  00567	74 0b		 je	 SHORT $LN37@connect_cl

; 3000 :             free( clientip );

  00569	48 8b 4c 24 70	 mov	 rcx, QWORD PTR clientip$[rsp]
  0056e	ff 15 00 00 00
	00		 call	 QWORD PTR __imp_free
$LN37@connect_cl:

; 3001 :         return NULL;

  00574	33 c0		 xor	 eax, eax
  00576	e9 38 0e 00 00	 jmp	 $LN1@connect_cl
$LN35@connect_cl:

; 3002 :     }
; 3003 : 
; 3004 :     /* Look for an available console device */
; 3005 :     for (dev = sysblk.firstdev; dev != NULL; dev = dev->nextdev)

  0057b	48 8b 05 00 00
	00 00		 mov	 rax, QWORD PTR __imp_sysblk
  00582	48 8b 80 c0 11
	00 00		 mov	 rax, QWORD PTR [rax+4544]
  00589	48 89 44 24 50	 mov	 QWORD PTR dev$[rsp], rax
  0058e	eb 0e		 jmp	 SHORT $LN7@connect_cl
$LN5@connect_cl:
  00590	48 8b 44 24 50	 mov	 rax, QWORD PTR dev$[rsp]
  00595	48 8b 40 30	 mov	 rax, QWORD PTR [rax+48]
  00599	48 89 44 24 50	 mov	 QWORD PTR dev$[rsp], rax
$LN7@connect_cl:
  0059e	48 83 7c 24 50
	00		 cmp	 QWORD PTR dev$[rsp], 0
  005a4	0f 84 69 05 00
	00		 je	 $LN6@connect_cl

; 3006 :     {
; 3007 :         if (sysblk.sysgport)

  005aa	48 8b 05 00 00
	00 00		 mov	 rax, QWORD PTR __imp_sysblk
  005b1	48 83 b8 f0 13
	00 00 00	 cmp	 QWORD PTR [rax+5104], 0
  005b9	74 52		 je	 SHORT $LN38@connect_cl

; 3008 :         {
; 3009 :             /* Loop if they want the SYSG device and this isn't it,
; 3010 :                or they DON'T want the SYSG device and this IS it. */
; 3011 :             if (0
; 3012 :                 || ( tn->sysg && dev != sysblk.sysgdev)
; 3013 :                 || (!tn->sysg && dev == sysblk.sysgdev)

  005bb	33 c0		 xor	 eax, eax
  005bd	85 c0		 test	 eax, eax
  005bf	75 4a		 jne	 SHORT $LN40@connect_cl
  005c1	48 8b 44 24 58	 mov	 rax, QWORD PTR tn$[rsp]
  005c6	0f b6 80 88 00
	00 00		 movzx	 eax, BYTE PTR [rax+136]
  005cd	85 c0		 test	 eax, eax
  005cf	74 15		 je	 SHORT $LN41@connect_cl
  005d1	48 8b 05 00 00
	00 00		 mov	 rax, QWORD PTR __imp_sysblk
  005d8	48 8b 80 c8 11
	00 00		 mov	 rax, QWORD PTR [rax+4552]
  005df	48 39 44 24 50	 cmp	 QWORD PTR dev$[rsp], rax
  005e4	75 25		 jne	 SHORT $LN40@connect_cl
$LN41@connect_cl:
  005e6	48 8b 44 24 58	 mov	 rax, QWORD PTR tn$[rsp]
  005eb	0f b6 80 88 00
	00 00		 movzx	 eax, BYTE PTR [rax+136]
  005f2	85 c0		 test	 eax, eax
  005f4	75 17		 jne	 SHORT $LN39@connect_cl
  005f6	48 8b 05 00 00
	00 00		 mov	 rax, QWORD PTR __imp_sysblk
  005fd	48 8b 80 c8 11
	00 00		 mov	 rax, QWORD PTR [rax+4552]
  00604	48 39 44 24 50	 cmp	 QWORD PTR dev$[rsp], rax
  00609	75 02		 jne	 SHORT $LN39@connect_cl
$LN40@connect_cl:

; 3014 :             )
; 3015 :                 continue;

  0060b	eb 83		 jmp	 SHORT $LN5@connect_cl
$LN39@connect_cl:
$LN38@connect_cl:

; 3016 :         }
; 3017 : 
; 3018 :         /* Loop if the device is invalid */
; 3019 :         if ( !dev->allocated )

  0060d	48 8b 44 24 50	 mov	 rax, QWORD PTR dev$[rsp]
  00612	83 78 40 00	 cmp	 DWORD PTR [rax+64], 0
  00616	75 05		 jne	 SHORT $LN42@connect_cl

; 3020 :             continue;

  00618	e9 73 ff ff ff	 jmp	 $LN5@connect_cl
$LN42@connect_cl:

; 3021 : 
; 3022 :         /* Loop if non-matching device type */
; 3023 :         if (tn->devclass == 'D' && dev->devtype != 0x3270)

  0061d	48 8b 44 24 58	 mov	 rax, QWORD PTR tn$[rsp]
  00622	0f b6 80 aa 00
	00 00		 movzx	 eax, BYTE PTR [rax+170]
  00629	83 f8 44	 cmp	 eax, 68			; 00000044H
  0062c	75 15		 jne	 SHORT $LN43@connect_cl
  0062e	48 8b 44 24 50	 mov	 rax, QWORD PTR dev$[rsp]
  00633	0f b7 40 4a	 movzx	 eax, WORD PTR [rax+74]
  00637	3d 70 32 00 00	 cmp	 eax, 12912		; 00003270H
  0063c	74 05		 je	 SHORT $LN43@connect_cl

; 3024 :             continue;

  0063e	e9 4d ff ff ff	 jmp	 $LN5@connect_cl
$LN43@connect_cl:

; 3025 : 
; 3026 :         if (tn->devclass == 'P' && dev->devtype != 0x3287)

  00643	48 8b 44 24 58	 mov	 rax, QWORD PTR tn$[rsp]
  00648	0f b6 80 aa 00
	00 00		 movzx	 eax, BYTE PTR [rax+170]
  0064f	83 f8 50	 cmp	 eax, 80			; 00000050H
  00652	75 15		 jne	 SHORT $LN44@connect_cl
  00654	48 8b 44 24 50	 mov	 rax, QWORD PTR dev$[rsp]
  00659	0f b7 40 4a	 movzx	 eax, WORD PTR [rax+74]
  0065d	3d 87 32 00 00	 cmp	 eax, 12935		; 00003287H
  00662	74 05		 je	 SHORT $LN44@connect_cl

; 3027 :             continue;

  00664	e9 27 ff ff ff	 jmp	 $LN5@connect_cl
$LN44@connect_cl:

; 3028 : 
; 3029 :         if (tn->devclass == 'K' && dev->devtype != 0x1052
; 3030 :                                 && dev->devtype != 0x3215)

  00669	48 8b 44 24 58	 mov	 rax, QWORD PTR tn$[rsp]
  0066e	0f b6 80 aa 00
	00 00		 movzx	 eax, BYTE PTR [rax+170]
  00675	83 f8 4b	 cmp	 eax, 75			; 0000004bH
  00678	75 25		 jne	 SHORT $LN45@connect_cl
  0067a	48 8b 44 24 50	 mov	 rax, QWORD PTR dev$[rsp]
  0067f	0f b7 40 4a	 movzx	 eax, WORD PTR [rax+74]
  00683	3d 52 10 00 00	 cmp	 eax, 4178		; 00001052H
  00688	74 15		 je	 SHORT $LN45@connect_cl
  0068a	48 8b 44 24 50	 mov	 rax, QWORD PTR dev$[rsp]
  0068f	0f b7 40 4a	 movzx	 eax, WORD PTR [rax+74]
  00693	3d 15 32 00 00	 cmp	 eax, 12821		; 00003215H
  00698	74 05		 je	 SHORT $LN45@connect_cl

; 3031 :             continue;

  0069a	e9 f1 fe ff ff	 jmp	 $LN5@connect_cl
$LN45@connect_cl:

; 3032 : 
; 3033 :         /* Loop if a specific device number was requested and
; 3034 :            this device is not the requested device number */
; 3035 :         if (tn->devnum != 0xFFFF && dev->devnum != tn->devnum)

  0069f	48 8b 44 24 58	 mov	 rax, QWORD PTR tn$[rsp]
  006a4	0f b7 80 a8 00
	00 00		 movzx	 eax, WORD PTR [rax+168]
  006ab	3d ff ff 00 00	 cmp	 eax, 65535		; 0000ffffH
  006b0	74 1e		 je	 SHORT $LN46@connect_cl
  006b2	48 8b 44 24 50	 mov	 rax, QWORD PTR dev$[rsp]
  006b7	0f b7 40 48	 movzx	 eax, WORD PTR [rax+72]
  006bb	48 8b 4c 24 58	 mov	 rcx, QWORD PTR tn$[rsp]
  006c0	0f b7 89 a8 00
	00 00		 movzx	 ecx, WORD PTR [rcx+168]
  006c7	3b c1		 cmp	 eax, ecx
  006c9	74 05		 je	 SHORT $LN46@connect_cl

; 3036 :             continue;  /* (not our device) */

  006cb	e9 c0 fe ff ff	 jmp	 $LN5@connect_cl
$LN46@connect_cl:

; 3037 : 
; 3038 :         /* Loop if no specific device number was requested, and
; 3039 :            either a group was requested OR the device is in a group,
; 3040 :            and the device group does not match the requested group */
; 3041 :         if (tn->devnum == 0xFFFF && (tn->tgroup[0] || dev->filename[0]))

  006d0	48 8b 44 24 58	 mov	 rax, QWORD PTR tn$[rsp]
  006d5	0f b7 80 a8 00
	00 00		 movzx	 eax, WORD PTR [rax+168]
  006dc	3d ff ff 00 00	 cmp	 eax, 65535		; 0000ffffH
  006e1	75 5d		 jne	 SHORT $LN47@connect_cl
  006e3	b8 01 00 00 00	 mov	 eax, 1
  006e8	48 6b c0 00	 imul	 rax, rax, 0
  006ec	48 8b 4c 24 58	 mov	 rcx, QWORD PTR tn$[rsp]
  006f1	0f be 44 01 52	 movsx	 eax, BYTE PTR [rcx+rax+82]
  006f6	85 c0		 test	 eax, eax
  006f8	75 1a		 jne	 SHORT $LN48@connect_cl
  006fa	b8 01 00 00 00	 mov	 eax, 1
  006ff	48 6b c0 00	 imul	 rax, rax, 0
  00703	48 8b 4c 24 50	 mov	 rcx, QWORD PTR dev$[rsp]
  00708	0f be 84 01 a4
	00 00 00	 movsx	 eax, BYTE PTR [rcx+rax+164]
  00710	85 c0		 test	 eax, eax
  00712	74 2c		 je	 SHORT $LN47@connect_cl
$LN48@connect_cl:

; 3042 :         {
; 3043 :             if (strncasecmp( tn->tgroup, dev->filename, sizeof( tn->tgroup )) != 0)

  00714	48 8b 44 24 50	 mov	 rax, QWORD PTR dev$[rsp]
  00719	48 05 a4 00 00
	00		 add	 rax, 164		; 000000a4H
  0071f	48 8b 4c 24 58	 mov	 rcx, QWORD PTR tn$[rsp]
  00724	48 83 c1 52	 add	 rcx, 82			; 00000052H
  00728	41 b8 10 00 00
	00		 mov	 r8d, 16
  0072e	48 8b d0	 mov	 rdx, rax
  00731	ff 15 00 00 00
	00		 call	 QWORD PTR __imp__strnicmp
  00737	85 c0		 test	 eax, eax
  00739	74 05		 je	 SHORT $LN49@connect_cl

; 3044 :                 continue;  /* (not our terminal group) */

  0073b	e9 50 fe ff ff	 jmp	 $LN5@connect_cl
$LN49@connect_cl:
$LN47@connect_cl:

; 3045 :         }
; 3046 : 
; 3047 :         /* Obtain the device lock */
; 3048 :         obtain_lock( &dev->lock );

  00740	48 8b 44 24 50	 mov	 rax, QWORD PTR dev$[rsp]
  00745	48 83 c0 38	 add	 rax, 56			; 00000038H
  00749	48 8d 15 00 00
	00 00		 lea	 rdx, OFFSET FLAT:$SG179040
  00750	48 8b c8	 mov	 rcx, rax
  00753	ff 15 00 00 00
	00		 call	 QWORD PTR __imp_hthread_obtain_lock

; 3049 : 
; 3050 :         /* Test for available device */
; 3051 :         if (dev->connected != 0)

  00759	48 8b 44 24 50	 mov	 rax, QWORD PTR dev$[rsp]
  0075e	8b 80 f8 05 00
	00		 mov	 eax, DWORD PTR [rax+1528]
  00764	c1 e8 05	 shr	 eax, 5
  00767	83 e0 01	 and	 eax, 1
  0076a	85 c0		 test	 eax, eax
  0076c	74 1e		 je	 SHORT $LN50@connect_cl

; 3052 :         {
; 3053 :             /* Release the device lock */
; 3054 :             release_lock (&dev->lock);

  0076e	48 8b 44 24 50	 mov	 rax, QWORD PTR dev$[rsp]
  00773	48 83 c0 38	 add	 rax, 56			; 00000038H
  00777	48 8d 15 00 00
	00 00		 lea	 rdx, OFFSET FLAT:$SG179042
  0077e	48 8b c8	 mov	 rcx, rax
  00781	ff 15 00 00 00
	00		 call	 QWORD PTR __imp_hthread_release_lock

; 3055 :             continue;

  00787	e9 04 fe ff ff	 jmp	 $LN5@connect_cl
$LN50@connect_cl:

; 3056 :         }
; 3057 : 
; 3058 :         /* Check ipaddr mask to see if client allowed on this device */
; 3059 :         if ((client.sin_addr.s_addr & dev->acc_ipmask) != dev->acc_ipaddr)

  0078c	48 8b 44 24 50	 mov	 rax, QWORD PTR dev$[rsp]
  00791	8b 80 a8 06 00
	00		 mov	 eax, DWORD PTR [rax+1704]
  00797	8b 8c 24 2c 01
	00 00		 mov	 ecx, DWORD PTR client$[rsp+4]
  0079e	23 c8		 and	 ecx, eax
  007a0	8b c1		 mov	 eax, ecx
  007a2	48 8b 4c 24 50	 mov	 rcx, QWORD PTR dev$[rsp]
  007a7	3b 81 a4 06 00
	00		 cmp	 eax, DWORD PTR [rcx+1700]
  007ad	74 3f		 je	 SHORT $LN51@connect_cl

; 3060 :         {
; 3061 :             release_lock( &dev->lock );     /* Release device lock   */

  007af	48 8b 44 24 50	 mov	 rax, QWORD PTR dev$[rsp]
  007b4	48 83 c0 38	 add	 rax, 56			; 00000038H
  007b8	48 8d 15 00 00
	00 00		 lea	 rdx, OFFSET FLAT:$SG179044
  007bf	48 8b c8	 mov	 rcx, rax
  007c2	ff 15 00 00 00
	00		 call	 QWORD PTR __imp_hthread_release_lock

; 3062 :             if (0xFFFF == tn->devnum )      /* Non-specific devnum?  */

  007c8	48 8b 44 24 58	 mov	 rax, QWORD PTR tn$[rsp]
  007cd	0f b7 80 a8 00
	00 00		 movzx	 eax, WORD PTR [rax+168]
  007d4	3d ff ff 00 00	 cmp	 eax, 65535		; 0000ffffH
  007d9	75 05		 jne	 SHORT $LN52@connect_cl

; 3063 :                 continue;                   /* Then keep looking     */

  007db	e9 b0 fd ff ff	 jmp	 $LN5@connect_cl
$LN52@connect_cl:

; 3064 :             dev = NULL;                     /* Else specific devnum, */

  007e0	48 c7 44 24 50
	00 00 00 00	 mov	 QWORD PTR dev$[rsp], 0

; 3065 :             break;                          /* but it's unavailable  */

  007e9	e9 25 03 00 00	 jmp	 $LN6@connect_cl
$LN51@connect_cl:

; 3066 :         }
; 3067 : 
; 3068 :         /* --- WE FOUND OUR DEVBLK --- */
; 3069 : 
; 3070 :         /* Claim this device for the client */
; 3071 :         tn->dev = dev;      /* tn  -->  dev */

  007ee	48 8b 44 24 58	 mov	 rax, QWORD PTR tn$[rsp]
  007f3	48 8b 4c 24 50	 mov	 rcx, QWORD PTR dev$[rsp]
  007f8	48 89 88 a0 00
	00 00		 mov	 QWORD PTR [rax+160], rcx

; 3072 :         dev->tn = tn;       /* tn  <--  dev */

  007ff	48 8b 44 24 50	 mov	 rax, QWORD PTR dev$[rsp]
  00804	48 8b 4c 24 58	 mov	 rcx, QWORD PTR tn$[rsp]
  00809	48 89 88 b0 06
	00 00		 mov	 QWORD PTR [rax+1712], rcx

; 3073 : 
; 3074 :         STRLCPY( orig_cid, tn->clientid );

  00810	48 8b 44 24 58	 mov	 rax, QWORD PTR tn$[rsp]
  00815	48 83 c0 62	 add	 rax, 98			; 00000062H
  00819	41 b8 20 00 00
	00		 mov	 r8d, 32			; 00000020H
  0081f	48 8b d0	 mov	 rdx, rax
  00822	48 8d 8c 24 38
	01 00 00	 lea	 rcx, QWORD PTR orig_cid$[rsp]
  0082a	ff 15 00 00 00
	00		 call	 QWORD PTR __imp_strlcpy

; 3075 :         MSGBUF( tn->clientid, "%1d:%04X", LCSS_DEVNUM );

  00830	48 83 7c 24 50
	00		 cmp	 QWORD PTR dev$[rsp], 0
  00836	74 12		 je	 SHORT $LN80@connect_cl
  00838	48 8b 44 24 50	 mov	 rax, QWORD PTR dev$[rsp]
  0083d	0f b7 40 48	 movzx	 eax, WORD PTR [rax+72]
  00841	89 84 24 88 00
	00 00		 mov	 DWORD PTR tv386[rsp], eax
  00848	eb 0b		 jmp	 SHORT $LN81@connect_cl
$LN80@connect_cl:
  0084a	c7 84 24 88 00
	00 00 00 00 00
	00		 mov	 DWORD PTR tv386[rsp], 0
$LN81@connect_cl:
  00855	48 83 7c 24 50
	00		 cmp	 QWORD PTR dev$[rsp], 0
  0085b	74 14		 je	 SHORT $LN82@connect_cl
  0085d	48 8b 44 24 50	 mov	 rax, QWORD PTR dev$[rsp]
  00862	0f b7 40 44	 movzx	 eax, WORD PTR [rax+68]
  00866	d1 f8		 sar	 eax, 1
  00868	89 84 24 8c 00
	00 00		 mov	 DWORD PTR tv392[rsp], eax
  0086f	eb 0b		 jmp	 SHORT $LN83@connect_cl
$LN82@connect_cl:
  00871	c7 84 24 8c 00
	00 00 00 00 00
	00		 mov	 DWORD PTR tv392[rsp], 0
$LN83@connect_cl:
  0087c	48 8b 44 24 58	 mov	 rax, QWORD PTR tn$[rsp]
  00881	48 83 c0 62	 add	 rax, 98			; 00000062H
  00885	8b 8c 24 88 00
	00 00		 mov	 ecx, DWORD PTR tv386[rsp]
  0088c	89 4c 24 20	 mov	 DWORD PTR [rsp+32], ecx
  00890	44 8b 8c 24 8c
	00 00 00	 mov	 r9d, DWORD PTR tv392[rsp]
  00898	4c 8d 05 00 00
	00 00		 lea	 r8, OFFSET FLAT:$SG179046
  0089f	ba 20 00 00 00	 mov	 edx, 32			; 00000020H
  008a4	48 8b c8	 mov	 rcx, rax
  008a7	ff 15 00 00 00
	00		 call	 QWORD PTR __imp_w32_snprintf

; 3076 :         // "%s COMM: %s negotiations complete; ttype = '%s'"
; 3077 :         WRMSG( HHC02914, "I", tn->clientid, orig_cid, tn->ttype );

  008ad	48 8b 44 24 58	 mov	 rax, QWORD PTR tn$[rsp]
  008b2	48 83 c0 29	 add	 rax, 41			; 00000029H
  008b6	48 89 84 24 00
	01 00 00	 mov	 QWORD PTR tv346[rsp], rax
  008be	48 8b 4c 24 58	 mov	 rcx, QWORD PTR tn$[rsp]
  008c3	48 83 c1 62	 add	 rcx, 98			; 00000062H
  008c7	48 89 8c 24 08
	01 00 00	 mov	 QWORD PTR tv400[rsp], rcx
  008cf	b9 01 00 00 00	 mov	 ecx, 1
  008d4	ff 15 00 00 00
	00		 call	 QWORD PTR __imp___acrt_iob_func
  008da	48 8b 8c 24 00
	01 00 00	 mov	 rcx, QWORD PTR tv346[rsp]
  008e2	48 89 4c 24 48	 mov	 QWORD PTR [rsp+72], rcx
  008e7	48 8d 8c 24 38
	01 00 00	 lea	 rcx, QWORD PTR orig_cid$[rsp]
  008ef	48 89 4c 24 40	 mov	 QWORD PTR [rsp+64], rcx
  008f4	48 8b 8c 24 08
	01 00 00	 mov	 rcx, QWORD PTR tv400[rsp]
  008fc	48 89 4c 24 38	 mov	 QWORD PTR [rsp+56], rcx
  00901	48 8d 0d 00 00
	00 00		 lea	 rcx, OFFSET FLAT:$SG179047
  00908	48 89 4c 24 30	 mov	 QWORD PTR [rsp+48], rcx
  0090d	48 8d 0d 00 00
	00 00		 lea	 rcx, OFFSET FLAT:$SG179048
  00914	48 89 4c 24 28	 mov	 QWORD PTR [rsp+40], rcx
  00919	48 89 44 24 20	 mov	 QWORD PTR [rsp+32], rax
  0091e	41 b9 03 00 00
	00		 mov	 r9d, 3
  00924	4c 8d 05 00 00
	00 00		 lea	 r8, OFFSET FLAT:$SG179049
  0092b	ba 05 0c 00 00	 mov	 edx, 3077		; 00000c05H
  00930	48 8d 0d 00 00
	00 00		 lea	 rcx, OFFSET FLAT:$SG179050
  00937	ff 15 00 00 00
	00		 call	 QWORD PTR __imp_fwritemsg

; 3078 : 
; 3079 :         dev->connected = 1;

  0093d	48 8b 44 24 50	 mov	 rax, QWORD PTR dev$[rsp]
  00942	8b 80 f8 05 00
	00		 mov	 eax, DWORD PTR [rax+1528]
  00948	83 c8 20	 or	 eax, 32			; 00000020H
  0094b	48 8b 4c 24 50	 mov	 rcx, QWORD PTR dev$[rsp]
  00950	89 81 f8 05 00
	00		 mov	 DWORD PTR [rcx+1528], eax

; 3080 :         dev->fd        = csock;

  00956	48 8b 44 24 50	 mov	 rax, QWORD PTR dev$[rsp]
  0095b	8b 4c 24 64	 mov	 ecx, DWORD PTR csock$[rsp]
  0095f	89 88 ac 01 00
	00		 mov	 DWORD PTR [rax+428], ecx

; 3081 :         dev->ipaddr    = client.sin_addr;

  00965	48 8b 44 24 50	 mov	 rax, QWORD PTR dev$[rsp]
  0096a	8b 8c 24 2c 01
	00 00		 mov	 ecx, DWORD PTR client$[rsp+4]
  00971	89 88 a0 06 00
	00		 mov	 DWORD PTR [rax+1696], ecx

; 3082 :         dev->mod3270   = tn->model;

  00977	48 8b 44 24 50	 mov	 rax, QWORD PTR dev$[rsp]
  0097c	48 8b 4c 24 58	 mov	 rcx, QWORD PTR tn$[rsp]
  00981	0f b6 89 ab 00
	00 00		 movzx	 ecx, BYTE PTR [rcx+171]
  00988	88 88 d9 06 00
	00		 mov	 BYTE PTR [rax+1753], cl

; 3083 :         dev->eab3270   = tn->extatr ? 1 : 0;

  0098e	48 8b 44 24 58	 mov	 rax, QWORD PTR tn$[rsp]
  00993	0f b6 80 b1 00
	00 00		 movzx	 eax, BYTE PTR [rax+177]
  0099a	85 c0		 test	 eax, eax
  0099c	74 0d		 je	 SHORT $LN84@connect_cl
  0099e	c7 84 24 90 00
	00 00 01 00 00
	00		 mov	 DWORD PTR tv422[rsp], 1
  009a9	eb 0b		 jmp	 SHORT $LN85@connect_cl
$LN84@connect_cl:
  009ab	c7 84 24 90 00
	00 00 00 00 00
	00		 mov	 DWORD PTR tv422[rsp], 0
$LN85@connect_cl:
  009b6	8b 84 24 90 00
	00 00		 mov	 eax, DWORD PTR tv422[rsp]
  009bd	83 e0 01	 and	 eax, 1
  009c0	48 8b 4c 24 50	 mov	 rcx, QWORD PTR dev$[rsp]
  009c5	8b 89 d4 06 00
	00		 mov	 ecx, DWORD PTR [rcx+1748]
  009cb	83 e1 fe	 and	 ecx, -2			; fffffffeH
  009ce	0b c8		 or	 ecx, eax
  009d0	8b c1		 mov	 eax, ecx
  009d2	48 8b 4c 24 50	 mov	 rcx, QWORD PTR dev$[rsp]
  009d7	89 81 d4 06 00
	00		 mov	 DWORD PTR [rcx+1748], eax

; 3084 : 
; 3085 :         /* Reset the console device */
; 3086 :         dev->readpending = 0;

  009dd	48 8b 44 24 50	 mov	 rax, QWORD PTR dev$[rsp]
  009e2	8b 80 f8 05 00
	00		 mov	 eax, DWORD PTR [rax+1528]
  009e8	25 3f ff ff ff	 and	 eax, -193		; ffffff3fH
  009ed	48 8b 4c 24 50	 mov	 rcx, QWORD PTR dev$[rsp]
  009f2	89 81 f8 05 00
	00		 mov	 DWORD PTR [rcx+1528], eax

; 3087 :         dev->rlen3270    = 0;

  009f8	48 8b 44 24 50	 mov	 rax, QWORD PTR dev$[rsp]
  009fd	c7 80 b8 06 00
	00 00 00 00 00	 mov	 DWORD PTR [rax+1720], 0

; 3088 :         dev->keybdrem    = 0;

  00a07	48 8b 44 24 50	 mov	 rax, QWORD PTR dev$[rsp]
  00a0c	c7 80 c0 06 00
	00 00 00 00 00	 mov	 DWORD PTR [rax+1728], 0

; 3089 :         dev->tn->got_eor = FALSE;

  00a16	48 8b 44 24 50	 mov	 rax, QWORD PTR dev$[rsp]
  00a1b	48 8b 80 b0 06
	00 00		 mov	 rax, QWORD PTR [rax+1712]
  00a22	c6 80 af 00 00
	00 00		 mov	 BYTE PTR [rax+175], 0

; 3090 : 
; 3091 :         memset( &dev->scsw,    0, sizeof(SCSW) );

  00a29	48 8b 44 24 50	 mov	 rax, QWORD PTR dev$[rsp]
  00a2e	48 05 08 03 00
	00		 add	 rax, 776		; 00000308H
  00a34	48 8b f8	 mov	 rdi, rax
  00a37	33 c0		 xor	 eax, eax
  00a39	b9 0c 00 00 00	 mov	 ecx, 12
  00a3e	f3 aa		 rep stosb

; 3092 :         memset( &dev->pciscsw, 0, sizeof(SCSW) );

  00a40	48 8b 44 24 50	 mov	 rax, QWORD PTR dev$[rsp]
  00a45	48 05 14 03 00
	00		 add	 rax, 788		; 00000314H
  00a4b	48 8b f8	 mov	 rdi, rax
  00a4e	33 c0		 xor	 eax, eax
  00a50	b9 0c 00 00 00	 mov	 ecx, 12
  00a55	f3 aa		 rep stosb

; 3093 : 
; 3094 :         dev->busy = dev->reserved = dev->suspended =

  00a57	48 8b 44 24 50	 mov	 rax, QWORD PTR dev$[rsp]
  00a5c	8b 80 f8 05 00
	00		 mov	 eax, DWORD PTR [rax+1528]
  00a62	0f ba f0 18	 btr	 eax, 24
  00a66	48 8b 4c 24 50	 mov	 rcx, QWORD PTR dev$[rsp]
  00a6b	89 81 f8 05 00
	00		 mov	 DWORD PTR [rcx+1528], eax
  00a71	48 8b 44 24 50	 mov	 rax, QWORD PTR dev$[rsp]
  00a76	8b 80 f8 05 00
	00		 mov	 eax, DWORD PTR [rax+1528]
  00a7c	0f ba f0 17	 btr	 eax, 23
  00a80	48 8b 4c 24 50	 mov	 rcx, QWORD PTR dev$[rsp]
  00a85	89 81 f8 05 00
	00		 mov	 DWORD PTR [rcx+1528], eax
  00a8b	48 8b 44 24 50	 mov	 rax, QWORD PTR dev$[rsp]
  00a90	8b 80 f8 05 00
	00		 mov	 eax, DWORD PTR [rax+1528]
  00a96	0f ba f0 16	 btr	 eax, 22
  00a9a	48 8b 4c 24 50	 mov	 rcx, QWORD PTR dev$[rsp]
  00a9f	89 81 f8 05 00
	00		 mov	 DWORD PTR [rcx+1528], eax
  00aa5	48 8b 44 24 50	 mov	 rax, QWORD PTR dev$[rsp]
  00aaa	8b 80 f8 05 00
	00		 mov	 eax, DWORD PTR [rax+1528]
  00ab0	0f ba f0 15	 btr	 eax, 21
  00ab4	48 8b 4c 24 50	 mov	 rcx, QWORD PTR dev$[rsp]
  00ab9	89 81 f8 05 00
	00		 mov	 DWORD PTR [rcx+1528], eax
  00abf	48 8b 44 24 50	 mov	 rax, QWORD PTR dev$[rsp]
  00ac4	8b 80 f8 05 00
	00		 mov	 eax, DWORD PTR [rax+1528]
  00aca	0f ba f0 14	 btr	 eax, 20
  00ace	48 8b 4c 24 50	 mov	 rcx, QWORD PTR dev$[rsp]
  00ad3	89 81 f8 05 00
	00		 mov	 DWORD PTR [rcx+1528], eax
  00ad9	48 8b 44 24 50	 mov	 rax, QWORD PTR dev$[rsp]
  00ade	8b 80 f8 05 00
	00		 mov	 eax, DWORD PTR [rax+1528]
  00ae4	0f ba f0 13	 btr	 eax, 19
  00ae8	48 8b 4c 24 50	 mov	 rcx, QWORD PTR dev$[rsp]
  00aed	89 81 f8 05 00
	00		 mov	 DWORD PTR [rcx+1528], eax

; 3095 :         dev->pending = dev->pcipending = dev->attnpending = 0;
; 3096 : 
; 3097 :         release_lock( &dev->lock );

  00af3	48 8b 44 24 50	 mov	 rax, QWORD PTR dev$[rsp]
  00af8	48 83 c0 38	 add	 rax, 56			; 00000038H
  00afc	48 8d 15 00 00
	00 00		 lea	 rdx, OFFSET FLAT:$SG179051
  00b03	48 8b c8	 mov	 rcx, rax
  00b06	ff 15 00 00 00
	00		 call	 QWORD PTR __imp_hthread_release_lock

; 3098 :         break;

  00b0c	eb 05		 jmp	 SHORT $LN6@connect_cl

; 3099 : 
; 3100 :     } /* end for(dev) */

  00b0e	e9 7d fa ff ff	 jmp	 $LN5@connect_cl
$LN6@connect_cl:

; 3101 : 
; 3102 :     /* Reject the connection if no available console device */
; 3103 :     if (dev == NULL)

  00b13	48 83 7c 24 50
	00		 cmp	 QWORD PTR dev$[rsp], 0
  00b19	0f 85 94 03 00
	00		 jne	 $LN53@connect_cl

; 3104 :     {
; 3105 :         /* Build rejection message to log to HMC */
; 3106 :         if (tn->devnum == 0xFFFF)

  00b1f	48 8b 44 24 58	 mov	 rax, QWORD PTR tn$[rsp]
  00b24	0f b7 80 a8 00
	00 00		 movzx	 eax, WORD PTR [rax+168]
  00b2b	3d ff ff 00 00	 cmp	 eax, 65535		; 0000ffffH
  00b30	0f 85 52 01 00
	00		 jne	 $LN54@connect_cl

; 3107 :         {
; 3108 :             if (!tn->tgroup[0])

  00b36	b8 01 00 00 00	 mov	 eax, 1
  00b3b	48 6b c0 00	 imul	 rax, rax, 0
  00b3f	48 8b 4c 24 58	 mov	 rcx, QWORD PTR tn$[rsp]
  00b44	0f be 44 01 52	 movsx	 eax, BYTE PTR [rcx+rax+82]
  00b49	85 c0		 test	 eax, eax
  00b4b	0f 85 96 00 00
	00		 jne	 $LN56@connect_cl

; 3109 :             {
; 3110 :                 // "Connection rejected, no available %s device"
; 3111 :                 // (Note: "MSG_C" used so message does NOT end with newline)
; 3112 :                 MSGBUF( rejmsg, MSG_C( HHC01028, "E",

  00b51	48 8b 44 24 58	 mov	 rax, QWORD PTR tn$[rsp]
  00b56	0f b6 80 aa 00
	00 00		 movzx	 eax, BYTE PTR [rax+170]
  00b5d	83 f8 44	 cmp	 eax, 68			; 00000044H
  00b60	75 11		 jne	 SHORT $LN88@connect_cl
  00b62	48 8d 05 00 00
	00 00		 lea	 rax, OFFSET FLAT:$SG179057
  00b69	48 89 84 24 b0
	00 00 00	 mov	 QWORD PTR tv482[rsp], rax
  00b71	eb 41		 jmp	 SHORT $LN89@connect_cl
$LN88@connect_cl:
  00b73	48 8b 44 24 58	 mov	 rax, QWORD PTR tn$[rsp]
  00b78	0f b6 80 aa 00
	00 00		 movzx	 eax, BYTE PTR [rax+170]
  00b7f	83 f8 50	 cmp	 eax, 80			; 00000050H
  00b82	75 11		 jne	 SHORT $LN86@connect_cl
  00b84	48 8d 05 00 00
	00 00		 lea	 rax, OFFSET FLAT:$SG179058
  00b8b	48 89 84 24 a8
	00 00 00	 mov	 QWORD PTR tv481[rsp], rax
  00b93	eb 0f		 jmp	 SHORT $LN87@connect_cl
$LN86@connect_cl:
  00b95	48 8d 05 00 00
	00 00		 lea	 rax, OFFSET FLAT:$SG179059
  00b9c	48 89 84 24 a8
	00 00 00	 mov	 QWORD PTR tv481[rsp], rax
$LN87@connect_cl:
  00ba4	48 8b 84 24 a8
	00 00 00	 mov	 rax, QWORD PTR tv481[rsp]
  00bac	48 89 84 24 b0
	00 00 00	 mov	 QWORD PTR tv482[rsp], rax
$LN89@connect_cl:
  00bb4	48 8b 84 24 b0
	00 00 00	 mov	 rax, QWORD PTR tv482[rsp]
  00bbc	48 89 44 24 20	 mov	 QWORD PTR [rsp+32], rax
  00bc1	4c 8d 0d 00 00
	00 00		 lea	 r9, OFFSET FLAT:$SG179060
  00bc8	4c 8d 05 00 00
	00 00		 lea	 r8, OFFSET FLAT:$SG179061
  00bcf	ba 00 01 00 00	 mov	 edx, 256		; 00000100H
  00bd4	48 8d 8c 24 60
	01 00 00	 lea	 rcx, QWORD PTR rejmsg$[rsp]
  00bdc	ff 15 00 00 00
	00		 call	 QWORD PTR __imp_w32_snprintf

; 3113 :                     (tn->devclass == 'D' ? "3270" :
; 3114 :                     (tn->devclass == 'P' ? "3287" : "1052 or 3215"))));
; 3115 :             }

  00be2	e9 9f 00 00 00	 jmp	 $LN57@connect_cl
$LN56@connect_cl:

; 3116 :             else
; 3117 :             {
; 3118 :                 // "Connection rejected, no available %s device in the %s group"
; 3119 :                 // (Note: "MSG_C" used so message does NOT end with newline)
; 3120 :                 MSGBUF( rejmsg, MSG_C( HHC01029, "E",

  00be7	48 8b 44 24 58	 mov	 rax, QWORD PTR tn$[rsp]
  00bec	0f b6 80 aa 00
	00 00		 movzx	 eax, BYTE PTR [rax+170]
  00bf3	83 f8 44	 cmp	 eax, 68			; 00000044H
  00bf6	75 11		 jne	 SHORT $LN92@connect_cl
  00bf8	48 8d 05 00 00
	00 00		 lea	 rax, OFFSET FLAT:$SG179062
  00bff	48 89 84 24 c0
	00 00 00	 mov	 QWORD PTR tv497[rsp], rax
  00c07	eb 41		 jmp	 SHORT $LN93@connect_cl
$LN92@connect_cl:
  00c09	48 8b 44 24 58	 mov	 rax, QWORD PTR tn$[rsp]
  00c0e	0f b6 80 aa 00
	00 00		 movzx	 eax, BYTE PTR [rax+170]
  00c15	83 f8 50	 cmp	 eax, 80			; 00000050H
  00c18	75 11		 jne	 SHORT $LN90@connect_cl
  00c1a	48 8d 05 00 00
	00 00		 lea	 rax, OFFSET FLAT:$SG179063
  00c21	48 89 84 24 b8
	00 00 00	 mov	 QWORD PTR tv496[rsp], rax
  00c29	eb 0f		 jmp	 SHORT $LN91@connect_cl
$LN90@connect_cl:
  00c2b	48 8d 05 00 00
	00 00		 lea	 rax, OFFSET FLAT:$SG179064
  00c32	48 89 84 24 b8
	00 00 00	 mov	 QWORD PTR tv496[rsp], rax
$LN91@connect_cl:
  00c3a	48 8b 84 24 b8
	00 00 00	 mov	 rax, QWORD PTR tv496[rsp]
  00c42	48 89 84 24 c0
	00 00 00	 mov	 QWORD PTR tv497[rsp], rax
$LN93@connect_cl:
  00c4a	48 8b 44 24 58	 mov	 rax, QWORD PTR tn$[rsp]
  00c4f	48 83 c0 52	 add	 rax, 82			; 00000052H
  00c53	48 89 44 24 28	 mov	 QWORD PTR [rsp+40], rax
  00c58	48 8b 84 24 c0
	00 00 00	 mov	 rax, QWORD PTR tv497[rsp]
  00c60	48 89 44 24 20	 mov	 QWORD PTR [rsp+32], rax
  00c65	4c 8d 0d 00 00
	00 00		 lea	 r9, OFFSET FLAT:$SG179065
  00c6c	4c 8d 05 00 00
	00 00		 lea	 r8, OFFSET FLAT:$SG179066
  00c73	ba 00 01 00 00	 mov	 edx, 256		; 00000100H
  00c78	48 8d 8c 24 60
	01 00 00	 lea	 rcx, QWORD PTR rejmsg$[rsp]
  00c80	ff 15 00 00 00
	00		 call	 QWORD PTR __imp_w32_snprintf
$LN57@connect_cl:

; 3121 :                     (tn->devclass == 'D' ? "3270" :
; 3122 :                     (tn->devclass == 'P' ? "3287" : "1052 or 3215")), tn->tgroup));
; 3123 :             }
; 3124 :         }

  00c86	eb 31		 jmp	 SHORT $LN55@connect_cl
$LN54@connect_cl:

; 3125 :         else
; 3126 :         {
; 3127 :             // "Connection rejected, device %04X unavailable"
; 3128 :             // (Note: "MSG_C" used so message does NOT end with newline)
; 3129 :             MSGBUF( rejmsg, MSG_C( HHC01030, "I", tn->devnum ));

  00c88	48 8b 44 24 58	 mov	 rax, QWORD PTR tn$[rsp]
  00c8d	0f b7 80 a8 00
	00 00		 movzx	 eax, WORD PTR [rax+168]
  00c94	89 44 24 20	 mov	 DWORD PTR [rsp+32], eax
  00c98	4c 8d 0d 00 00
	00 00		 lea	 r9, OFFSET FLAT:$SG179067
  00c9f	4c 8d 05 00 00
	00 00		 lea	 r8, OFFSET FLAT:$SG179068
  00ca6	ba 00 01 00 00	 mov	 edx, 256		; 00000100H
  00cab	48 8d 8c 24 60
	01 00 00	 lea	 rcx, QWORD PTR rejmsg$[rsp]
  00cb3	ff 15 00 00 00
	00		 call	 QWORD PTR __imp_w32_snprintf
$LN55@connect_cl:

; 3130 :         }
; 3131 : 
; 3132 :         /* Log rejection message to HMC */
; 3133 :         LOGMSG( "%s\n", rejmsg );

  00cb9	b9 01 00 00 00	 mov	 ecx, 1
  00cbe	ff 15 00 00 00
	00		 call	 QWORD PTR __imp___acrt_iob_func
  00cc4	48 8d 8c 24 60
	01 00 00	 lea	 rcx, QWORD PTR rejmsg$[rsp]
  00ccc	48 89 4c 24 30	 mov	 QWORD PTR [rsp+48], rcx
  00cd1	48 8d 0d 00 00
	00 00		 lea	 rcx, OFFSET FLAT:$SG179069
  00cd8	48 89 4c 24 28	 mov	 QWORD PTR [rsp+40], rcx
  00cdd	48 89 44 24 20	 mov	 QWORD PTR [rsp+32], rax
  00ce2	41 b9 03 00 00
	00		 mov	 r9d, 3
  00ce8	4c 8d 05 00 00
	00 00		 lea	 r8, OFFSET FLAT:$SG179070
  00cef	ba 3d 0c 00 00	 mov	 edx, 3133		; 00000c3dH
  00cf4	48 8d 0d 00 00
	00 00		 lea	 rcx, OFFSET FLAT:$SG179071
  00cfb	ff 15 00 00 00
	00		 call	 QWORD PTR __imp_fwritemsg

; 3134 : 
; 3135 :         /* Build rejection message to send back to client */
; 3136 :         if (tn->devclass == 'D')

  00d01	48 8b 44 24 58	 mov	 rax, QWORD PTR tn$[rsp]
  00d06	0f b6 80 aa 00
	00 00		 movzx	 eax, BYTE PTR [rax+170]
  00d0d	83 f8 44	 cmp	 eax, 68			; 00000044H
  00d10	0f 85 c5 00 00
	00		 jne	 $LN58@connect_cl

; 3137 :         {
; 3138 :             len = MSGBUF

  00d16	48 8d 8c 24 60
	01 00 00	 lea	 rcx, QWORD PTR rejmsg$[rsp]
  00d1e	e8 00 00 00 00	 call	 strlen
  00d23	44 8b c0	 mov	 r8d, eax
  00d26	48 8d 94 24 60
	01 00 00	 lea	 rdx, QWORD PTR rejmsg$[rsp]
  00d2e	48 8d 8c 24 60
	01 00 00	 lea	 rcx, QWORD PTR rejmsg$[rsp]
  00d36	ff 15 00 00 00
	00		 call	 QWORD PTR __imp_prt_host_to_guest
  00d3c	48 89 84 24 10
	01 00 00	 mov	 QWORD PTR tv522[rsp], rax
  00d44	48 8d 8c 24 60
	02 00 00	 lea	 rcx, QWORD PTR hostmsg$[rsp]
  00d4c	e8 00 00 00 00	 call	 strlen
  00d51	44 8b c0	 mov	 r8d, eax
  00d54	48 8d 94 24 60
	02 00 00	 lea	 rdx, QWORD PTR hostmsg$[rsp]
  00d5c	48 8d 8c 24 60
	02 00 00	 lea	 rcx, QWORD PTR hostmsg$[rsp]
  00d64	ff 15 00 00 00
	00		 call	 QWORD PTR __imp_prt_host_to_guest
  00d6a	48 89 84 24 18
	01 00 00	 mov	 QWORD PTR tv530[rsp], rax
  00d72	48 8d 8c 24 60
	03 00 00	 lea	 rcx, QWORD PTR hvermsg$[rsp]
  00d7a	e8 00 00 00 00	 call	 strlen
  00d7f	44 8b c0	 mov	 r8d, eax
  00d82	48 8d 94 24 60
	03 00 00	 lea	 rdx, QWORD PTR hvermsg$[rsp]
  00d8a	48 8d 8c 24 60
	03 00 00	 lea	 rcx, QWORD PTR hvermsg$[rsp]
  00d92	ff 15 00 00 00
	00		 call	 QWORD PTR __imp_prt_host_to_guest
  00d98	48 8b 8c 24 10
	01 00 00	 mov	 rcx, QWORD PTR tv522[rsp]
  00da0	48 89 4c 24 28	 mov	 QWORD PTR [rsp+40], rcx
  00da5	48 8b 8c 24 18
	01 00 00	 mov	 rcx, QWORD PTR tv530[rsp]
  00dad	48 89 4c 24 20	 mov	 QWORD PTR [rsp+32], rcx
  00db2	4c 8b c8	 mov	 r9, rax
  00db5	4c 8d 05 00 00
	00 00		 lea	 r8, OFFSET FLAT:$SG179074
  00dbc	ba 80 07 00 00	 mov	 edx, 1920		; 00000780H
  00dc1	48 8d 8c 24 60
	06 00 00	 lea	 rcx, QWORD PTR buf$[rsp]
  00dc9	ff 15 00 00 00
	00		 call	 QWORD PTR __imp_w32_snprintf
  00dcf	48 98		 cdqe
  00dd1	48 89 84 24 80
	00 00 00	 mov	 QWORD PTR len$[rsp], rax

; 3139 :             (
; 3140 :                 buf,
; 3141 : 
; 3142 :                 "\xF5\x40"
; 3143 :                 "\x11\x40\x40\x1D\x60%s"        /* First line   */
; 3144 :                 "\x11\xC1\x50\x1D\x60%s"        /* Second line  */
; 3145 :                 "\x11\xC2\x60\x1D\x60%s",       /* Third line   */
; 3146 : 
; 3147 :                 prt_host_to_guest( (BYTE*) hvermsg, (BYTE*) hvermsg, strlen( hvermsg )),
; 3148 :                 prt_host_to_guest( (BYTE*) hostmsg, (BYTE*) hostmsg, strlen( hostmsg )),
; 3149 :                 prt_host_to_guest( (BYTE*) rejmsg,  (BYTE*) rejmsg,  strlen( rejmsg  ))
; 3150 :             );
; 3151 :         }

  00dd9	eb 57		 jmp	 SHORT $LN59@connect_cl
$LN58@connect_cl:

; 3152 :         else if (tn->devclass == 'K')

  00ddb	48 8b 44 24 58	 mov	 rax, QWORD PTR tn$[rsp]
  00de0	0f b6 80 aa 00
	00 00		 movzx	 eax, BYTE PTR [rax+170]
  00de7	83 f8 4b	 cmp	 eax, 75			; 0000004bH
  00dea	75 46		 jne	 SHORT $LN60@connect_cl

; 3153 :         {
; 3154 :             len = MSGBUF

  00dec	48 8d 84 24 60
	01 00 00	 lea	 rax, QWORD PTR rejmsg$[rsp]
  00df4	48 89 44 24 28	 mov	 QWORD PTR [rsp+40], rax
  00df9	48 8d 84 24 60
	02 00 00	 lea	 rax, QWORD PTR hostmsg$[rsp]
  00e01	48 89 44 24 20	 mov	 QWORD PTR [rsp+32], rax
  00e06	4c 8d 8c 24 60
	03 00 00	 lea	 r9, QWORD PTR hvermsg$[rsp]
  00e0e	4c 8d 05 00 00
	00 00		 lea	 r8, OFFSET FLAT:$SG179076
  00e15	ba 80 07 00 00	 mov	 edx, 1920		; 00000780H
  00e1a	48 8d 8c 24 60
	06 00 00	 lea	 rcx, QWORD PTR buf$[rsp]
  00e22	ff 15 00 00 00
	00		 call	 QWORD PTR __imp_w32_snprintf
  00e28	48 98		 cdqe
  00e2a	48 89 84 24 80
	00 00 00	 mov	 QWORD PTR len$[rsp], rax
$LN60@connect_cl:
$LN59@connect_cl:

; 3155 :             (
; 3156 :                 buf,
; 3157 : 
; 3158 :                 "%s\n"          /* First line   */
; 3159 :                 "%s\n"          /* Second line  */
; 3160 :                 "%s\n",         /* Third line   */
; 3161 : 
; 3162 :                 hvermsg,
; 3163 :                 hostmsg,
; 3164 :                 rejmsg
; 3165 :             );
; 3166 :         }
; 3167 : 
; 3168 :         /* Send the connection rejection message back to the client */
; 3169 :         if (tn->devclass != 'P')

  00e32	48 8b 44 24 58	 mov	 rax, QWORD PTR tn$[rsp]
  00e37	0f b6 80 aa 00
	00 00		 movzx	 eax, BYTE PTR [rax+170]
  00e3e	83 f8 50	 cmp	 eax, 80			; 00000050H
  00e41	74 1a		 je	 SHORT $LN61@connect_cl

; 3170 :             sendto_client( tn, (BYTE*) buf, len );

  00e43	44 8b 84 24 80
	00 00 00	 mov	 r8d, DWORD PTR len$[rsp]
  00e4b	48 8d 94 24 60
	06 00 00	 lea	 rdx, QWORD PTR buf$[rsp]
  00e53	48 8b 4c 24 58	 mov	 rcx, QWORD PTR tn$[rsp]
  00e58	e8 00 00 00 00	 call	 sendto_client
$LN61@connect_cl:
$LN10@connect_cl:

; 3171 : 
; 3172 :         /* Give them time to read the message before disconnecting */
; 3173 :         SLEEP(10);

  00e5d	c7 44 24 6c 0a
	00 00 00	 mov	 DWORD PTR rc$2[rsp], 10
$LN11@connect_cl:
  00e65	83 7c 24 6c 00	 cmp	 DWORD PTR rc$2[rsp], 0
  00e6a	74 1d		 je	 SHORT $LN12@connect_cl
  00e6c	8b 4c 24 6c	 mov	 ecx, DWORD PTR rc$2[rsp]
  00e70	ff 15 00 00 00
	00		 call	 QWORD PTR __imp_sleep
  00e76	89 44 24 6c	 mov	 DWORD PTR rc$2[rsp], eax
  00e7a	83 7c 24 6c 00	 cmp	 DWORD PTR rc$2[rsp], 0
  00e7f	74 06		 je	 SHORT $LN62@connect_cl
  00e81	ff 15 00 00 00
	00		 call	 QWORD PTR __imp_sched_yield
$LN62@connect_cl:
  00e87	eb dc		 jmp	 SHORT $LN11@connect_cl
$LN12@connect_cl:
  00e89	33 c0		 xor	 eax, eax
  00e8b	85 c0		 test	 eax, eax
  00e8d	75 ce		 jne	 SHORT $LN10@connect_cl

; 3174 : 
; 3175 :         /* Close the connection and terminate the thread */
; 3176 :         disconnect_telnet_client( tn );

  00e8f	48 8b 4c 24 58	 mov	 rcx, QWORD PTR tn$[rsp]
  00e94	e8 00 00 00 00	 call	 disconnect_telnet_client

; 3177 :         if (clientip)

  00e99	48 83 7c 24 70
	00		 cmp	 QWORD PTR clientip$[rsp], 0
  00e9f	74 0b		 je	 SHORT $LN63@connect_cl

; 3178 :             free( clientip );

  00ea1	48 8b 4c 24 70	 mov	 rcx, QWORD PTR clientip$[rsp]
  00ea6	ff 15 00 00 00
	00		 call	 QWORD PTR __imp_free
$LN63@connect_cl:

; 3179 :         return NULL;

  00eac	33 c0		 xor	 eax, eax
  00eae	e9 00 05 00 00	 jmp	 $LN1@connect_cl
$LN53@connect_cl:

; 3180 :     }
; 3181 : 
; 3182 :     // "%1d:%04X COMM: client %s devtype %4.4X: connected"
; 3183 :     // (Note: "MSG_C" used so message does NOT end with newline)
; 3184 :     MSGBUF( devmsg, MSG_C( HHC01018, "I",

  00eb3	48 83 7c 24 50
	00		 cmp	 QWORD PTR dev$[rsp], 0
  00eb9	74 12		 je	 SHORT $LN94@connect_cl
  00ebb	48 8b 44 24 50	 mov	 rax, QWORD PTR dev$[rsp]
  00ec0	0f b7 40 48	 movzx	 eax, WORD PTR [rax+72]
  00ec4	89 84 24 94 00
	00 00		 mov	 DWORD PTR tv583[rsp], eax
  00ecb	eb 0b		 jmp	 SHORT $LN95@connect_cl
$LN94@connect_cl:
  00ecd	c7 84 24 94 00
	00 00 00 00 00
	00		 mov	 DWORD PTR tv583[rsp], 0
$LN95@connect_cl:
  00ed8	48 83 7c 24 50
	00		 cmp	 QWORD PTR dev$[rsp], 0
  00ede	74 14		 je	 SHORT $LN96@connect_cl
  00ee0	48 8b 44 24 50	 mov	 rax, QWORD PTR dev$[rsp]
  00ee5	0f b7 40 44	 movzx	 eax, WORD PTR [rax+68]
  00ee9	d1 f8		 sar	 eax, 1
  00eeb	89 84 24 98 00
	00 00		 mov	 DWORD PTR tv589[rsp], eax
  00ef2	eb 0b		 jmp	 SHORT $LN97@connect_cl
$LN96@connect_cl:
  00ef4	c7 84 24 98 00
	00 00 00 00 00
	00		 mov	 DWORD PTR tv589[rsp], 0
$LN97@connect_cl:
