; Listing generated by Microsoft (R) Optimizing Compiler Version 19.34.31937.0 

include listing.inc

INCLUDELIB MSVCRTD
INCLUDELIB OLDNAMES

PUBLIC	s390_run_cpu
PUBLIC	s370_run_cpu
PUBLIC	z900_run_cpu
CONST	SEGMENT
CKD_ENDTRK DB	0ffH
	DB	0ffH
	DB	0ffH
	DB	0ffH
	DB	0ffH
	DB	0ffH
	DB	0ffH
	DB	0ffH
CONST	ENDS
PUBLIC	s370_store_psw
PUBLIC	s370_load_psw
PUBLIC	s370_process_trace
PUBLIC	s390_load_psw
PUBLIC	s390_store_psw
PUBLIC	s390_process_trace
PUBLIC	z900_load_psw
PUBLIC	z900_store_psw
PUBLIC	z900_process_trace
PUBLIC	cpu_init
PUBLIC	s370_perform_io_interrupt
PUBLIC	s370_checkstop_all_cpus
PUBLIC	make_psw64
PUBLIC	s370_SuccessfulBranch
PUBLIC	s370_SuccessfulRelativeBranch
PUBLIC	s370_fix_program_interrupt_PSW
PUBLIC	s370_trace_program_interrupt
PUBLIC	cpu_thread
PUBLIC	copy_psw
PUBLIC	display_psw
PUBLIC	str_psw
PUBLIC	str_arch_psw
PUBLIC	do_automatic_tracing
PUBLIC	fetch_hw_noswap
PUBLIC	store_hw_noswap
PUBLIC	fetch_fw_noswap
PUBLIC	store_fw_noswap
PUBLIC	fetch_dw_noswap
PUBLIC	store_dw_noswap
PUBLIC	s370_program_interrupt
PUBLIC	s390_program_interrupt
PUBLIC	z900_program_interrupt
PUBLIC	_get_storekey_ptr
PUBLIC	_get_storekey1_ptr
PUBLIC	_get_storekey2_ptr
PUBLIC	s370__or_storage_key
PUBLIC	s370_or_2K_storage_key
PUBLIC	s370_or_storage_key
PUBLIC	s370_maddr_l
PUBLIC	s370_instfetch
PUBLIC	s370_process_interrupt
PUBLIC	s390_perform_io_interrupt
PUBLIC	s390_checkstop_all_cpus
PUBLIC	s390_SuccessfulBranch
PUBLIC	s390_SuccessfulRelativeBranch
PUBLIC	s390_fix_program_interrupt_PSW
PUBLIC	s390_trace_program_interrupt
PUBLIC	s390__or_storage_key
PUBLIC	s390_or_4K_storage_key
PUBLIC	s390_or_storage_key
PUBLIC	s390_maddr_l
PUBLIC	s390_instfetch
PUBLIC	s390_process_interrupt
PUBLIC	z900_perform_io_interrupt
PUBLIC	z900_checkstop_all_cpus
PUBLIC	z900_Set_BEAR_Reg
PUBLIC	z900_SuccessfulBranch
PUBLIC	z900_SuccessfulRelativeBranch
PUBLIC	z900_fix_program_interrupt_PSW
PUBLIC	z900_trace_program_interrupt
PUBLIC	z900__or_storage_key
PUBLIC	z900_or_4K_storage_key
PUBLIC	z900_or_storage_key
PUBLIC	z900_is_per3_event_suppressed
PUBLIC	z900_maddr_l
PUBLIC	z900_instfetch
PUBLIC	z900_process_interrupt
PUBLIC	??_C@_0CM@GFKCBHDD@C?3?2papa?2MyGit?2hyperion?9zvector?2@ ; `string'
PUBLIC	??_C@_0CM@NOJKKEDI@C?3?2papa?2MyGit?2hyperion?9zvector?2@ ; `string'
EXTRN	__imp__errno:PROC
EXTRN	strlen:PROC
EXTRN	__imp_GetCurrentThreadId:PROC
EXTRN	__imp__aligned_free:PROC
EXTRN	__imp__aligned_malloc:PROC
EXTRN	_byteswap_ushort:PROC
EXTRN	_byteswap_ulong:PROC
EXTRN	_byteswap_uint64:PROC
EXTRN	longjmp:PROC
EXTRN	__imp___acrt_iob_func:PROC
EXTRN	__imp_fthread_self:PROC
EXTRN	__imp_hthread_obtain_lock:PROC
EXTRN	__imp_hthread_release_lock:PROC
EXTRN	__imp_hthread_initialize_condition:PROC
EXTRN	__imp_hthread_destroy_condition:PROC
EXTRN	__imp_hthread_signal_condition:PROC
EXTRN	__imp_hthread_broadcast_condition:PROC
EXTRN	__imp_hthread_wait_condition:PROC
EXTRN	__imp_hthread_create_thread:PROC
EXTRN	__imp_hthread_set_thread_prio:PROC
EXTRN	__imp_hthread_get_thread_prio:PROC
EXTRN	__imp_hthread_set_thread_name:PROC
EXTRN	__imp_ptt_pthread_trace:PROC
EXTRN	__imp_strlcpy:PROC
EXTRN	__imp_strlcat:PROC
EXTRN	__imp_ptyp2short:PROC
EXTRN	__imp_do_make_psw64:PROC
EXTRN	__imp_PIC2Name:PROC
EXTRN	__imp_perc2name:PROC
EXTRN	__imp_tf_0800:PROC
EXTRN	__imp_tf_0801:PROC
EXTRN	__imp_tf_0802:PROC
EXTRN	__imp_tf_0803:PROC
EXTRN	__imp_tf_0804:PROC
EXTRN	__imp_tf_0806:PROC
EXTRN	__imp_tf_0807:PROC
EXTRN	__imp_tf_0808:PROC
EXTRN	__imp_tf_0809:PROC
EXTRN	__imp_tf_0811:PROC
EXTRN	__imp_w32_strerror:PROC
EXTRN	__imp_clock_gettime:PROC
EXTRN	__imp_w32_snprintf:PROC
EXTRN	__imp_w32_set_thread_name:PROC
EXTRN	get_tod_epoch:PROC
EXTRN	get_cpu_timer:PROC
EXTRN	set_cpu_timer:PROC
EXTRN	s370_present_io_interrupt:PROC
EXTRN	s370_perform_external_interrupt:PROC
EXTRN	s370_store_status:PROC
EXTRN	s370_cpu_reset:PROC
EXTRN	initial_cpu_reset:PROC
EXTRN	s370_initial_cpu_reset:PROC
EXTRN	s370_present_mck_interrupt:PROC
EXTRN	init_regs_runtime_opcode_pointers:PROC
EXTRN	s370_display_inst:PROC
EXTRN	s370_display_pgmint_inst:PROC
EXTRN	txf_why_str:PROC
EXTRN	setCpuIdregs:PROC
EXTRN	timer_thread:PROC
EXTRN	txf_maddr_l:PROC
EXTRN	z900_abort_transaction:PROC
EXTRN	z900_txf_do_pi_filtering:PROC
EXTRN	alloc_txfmap:PROC
EXTRN	free_txfmap:PROC
EXTRN	insttrace_all:PROC
EXTRN	s390_invalidate_guest_aia:PROC
EXTRN	z900_invalidate_guest_aia:PROC
EXTRN	s370_purge_tlb:PROC
EXTRN	s390_purge_tlb:PROC
EXTRN	z900_purge_tlb:PROC
EXTRN	s390_purge_alb:PROC
EXTRN	z900_purge_alb:PROC
EXTRN	s370_invalidate_tlbe:PROC
EXTRN	s390_invalidate_tlbe:PROC
EXTRN	z900_invalidate_tlbe:PROC
EXTRN	s390_display_inst:PROC
EXTRN	z900_display_inst:PROC
EXTRN	s390_update_guest_psw_ia:PROC
EXTRN	z900_update_guest_psw_ia:PROC
EXTRN	__imp_fwritemsg:PROC
EXTRN	get_arch_name:PROC
EXTRN	init_cpu_facilities:PROC
EXTRN	s370_logical_to_main_l:PROC
EXTRN	s390_logical_to_main_l:PROC
EXTRN	z900_logical_to_main_l:PROC
EXTRN	s370_invalidate_tlb:PROC
EXTRN	s390_present_io_interrupt:PROC
EXTRN	s390_perform_external_interrupt:PROC
EXTRN	s390_store_status:PROC
EXTRN	s390_cpu_reset:PROC
EXTRN	s390_initial_cpu_reset:PROC
EXTRN	s390_present_mck_interrupt:PROC
EXTRN	s390_display_pgmint_inst:PROC
EXTRN	s390_sie_exit:PROC
EXTRN	s390_invalidate_tlb:PROC
EXTRN	z900_present_io_interrupt:PROC
EXTRN	z900_perform_external_interrupt:PROC
EXTRN	z900_store_status:PROC
EXTRN	z900_cpu_reset:PROC
EXTRN	z900_initial_cpu_reset:PROC
EXTRN	z900_present_mck_interrupt:PROC
EXTRN	z900_display_pgmint_inst:PROC
EXTRN	z900_sie_exit:PROC
EXTRN	z900_invalidate_tlb:PROC
EXTRN	__GSHandlerCheck:PROC
EXTRN	__chkstk:PROC
EXTRN	__security_check_cookie:PROC
EXTRN	_setjmp:PROC
EXTRN	memcmp:PROC
EXTRN	__imp_pttclass:QWORD
EXTRN	__imp_sysblk:BYTE
EXTRN	__imp_debug_program_interrupt:QWORD
EXTRN	__security_cookie:QWORD
_BSS	SEGMENT
?inst_count@?1??do_automatic_tracing@@9@9 DQ 01H DUP (?) ; `do_automatic_tracing'::`2'::inst_count
?missed_by@?1??do_automatic_tracing@@9@9 DQ 01H DUP (?)	; `do_automatic_tracing'::`2'::missed_by
?too_much@?1??do_automatic_tracing@@9@9 DQ 01H DUP (?)	; `do_automatic_tracing'::`2'::too_much
?beg_count@?2??do_automatic_tracing@@9@9 DQ 01H DUP (?)	; `do_automatic_tracing'::`3'::beg_count
?auto_trace_beg@?2??do_automatic_tracing@@9@9 DQ 01H DUP (?) ; `do_automatic_tracing'::`3'::auto_trace_beg
?auto_trace_amt@?2??do_automatic_tracing@@9@9 DQ 01H DUP (?) ; `do_automatic_tracing'::`3'::auto_trace_amt
?traced_amt@?2??do_automatic_tracing@@9@9 DQ 01H DUP (?) ; `do_automatic_tracing'::`3'::traced_amt
_BSS	ENDS
pdata	SEGMENT
$pdata$host_tod DD imagerel host_tod
	DD	imagerel host_tod+169
	DD	imagerel $unwind$host_tod
$pdata$s370_store_psw DD imagerel $LN10
	DD	imagerel $LN10+212
	DD	imagerel $unwind$s370_store_psw
$pdata$s370_load_psw DD imagerel $LN127
	DD	imagerel $LN127+4531
	DD	imagerel $unwind$s370_load_psw
$pdata$s370_process_trace DD imagerel $LN39
	DD	imagerel $LN39+2382
	DD	imagerel $unwind$s370_process_trace
$pdata$s390_load_psw DD imagerel $LN108
	DD	imagerel $LN108+3657
	DD	imagerel $unwind$s390_load_psw
$pdata$s390_store_psw DD imagerel $LN8
	DD	imagerel $LN8+163
	DD	imagerel $unwind$s390_store_psw
$pdata$s390_process_trace DD imagerel $LN39
	DD	imagerel $LN39+2446
	DD	imagerel $unwind$s390_process_trace
$pdata$z900_load_psw DD imagerel $LN111
	DD	imagerel $LN111+3854
	DD	imagerel $unwind$z900_load_psw
$pdata$z900_store_psw DD imagerel $LN8
	DD	imagerel $LN8+200
	DD	imagerel $unwind$z900_store_psw
$pdata$z900_process_trace DD imagerel $LN39
	DD	imagerel $LN39+2446
	DD	imagerel $unwind$z900_process_trace
$pdata$cpu_init DD imagerel $LN27
	DD	imagerel $LN27+1491
	DD	imagerel $unwind$cpu_init
$pdata$s370_perform_io_interrupt DD imagerel $LN43
	DD	imagerel $LN43+3238
	DD	imagerel $unwind$s370_perform_io_interrupt
$pdata$s370_checkstop_all_cpus DD imagerel $LN14
	DD	imagerel $LN14+303
	DD	imagerel $unwind$s370_checkstop_all_cpus
$pdata$make_psw64 DD imagerel $LN13
	DD	imagerel $LN13+189
	DD	imagerel $unwind$make_psw64
$pdata$s370_SuccessfulBranch DD imagerel $LN30
	DD	imagerel $LN30+506
	DD	imagerel $unwind$s370_SuccessfulBranch
$pdata$s370_SuccessfulRelativeBranch DD imagerel $LN36
	DD	imagerel $LN36+777
	DD	imagerel $unwind$s370_SuccessfulRelativeBranch
$pdata$s370_fix_program_interrupt_PSW DD imagerel $LN38
	DD	imagerel $LN38+822
	DD	imagerel $unwind$s370_fix_program_interrupt_PSW
$pdata$s370_trace_program_interrupt DD imagerel $LN44
	DD	imagerel $LN44+3083
	DD	imagerel $unwind$s370_trace_program_interrupt
$pdata$cpu_thread DD imagerel $LN17
	DD	imagerel $LN17+1033
	DD	imagerel $unwind$cpu_thread
$pdata$copy_psw DD imagerel $LN14
	DD	imagerel $LN14+274
	DD	imagerel $unwind$copy_psw
$pdata$display_psw DD imagerel $LN5
	DD	imagerel $LN5+116
	DD	imagerel $unwind$display_psw
$pdata$str_psw DD imagerel $LN3
	DD	imagerel $LN3+52
	DD	imagerel $unwind$str_psw
$pdata$str_arch_psw DD imagerel $LN5
	DD	imagerel $LN5+801
	DD	imagerel $unwind$str_arch_psw
$pdata$do_automatic_tracing DD imagerel $LN29
	DD	imagerel $LN29+1109
	DD	imagerel $unwind$do_automatic_tracing
pdata	ENDS
;	COMDAT pdata
pdata	SEGMENT
$pdata$fetch_hw_noswap DD imagerel $LN3
	DD	imagerel $LN3+30
	DD	imagerel $unwind$fetch_hw_noswap
pdata	ENDS
;	COMDAT pdata
pdata	SEGMENT
$pdata$fetch_fw_noswap DD imagerel $LN3
	DD	imagerel $LN3+27
	DD	imagerel $unwind$fetch_fw_noswap
pdata	ENDS
;	COMDAT pdata
pdata	SEGMENT
$pdata$fetch_dw_noswap DD imagerel $LN3
	DD	imagerel $LN3+30
	DD	imagerel $unwind$fetch_dw_noswap
pdata	ENDS
pdata	SEGMENT
$pdata$s370_program_interrupt DD imagerel $LN170
	DD	imagerel $LN170+7840
	DD	imagerel $unwind$s370_program_interrupt
$pdata$s390_program_interrupt DD imagerel $LN219
	DD	imagerel $LN219+9368
	DD	imagerel $unwind$s390_program_interrupt
$pdata$z900_program_interrupt DD imagerel $LN249
	DD	imagerel $LN249+10436
	DD	imagerel $unwind$z900_program_interrupt
$pdata$wakeup_cpu DD imagerel wakeup_cpu
	DD	imagerel wakeup_cpu+44
	DD	imagerel $unwind$wakeup_cpu
$pdata$wakeup_cpu_mask DD imagerel wakeup_cpu_mask
	DD	imagerel wakeup_cpu_mask+251
	DD	imagerel $unwind$wakeup_cpu_mask
$pdata$wakeup_cpus_mask DD imagerel wakeup_cpus_mask
	DD	imagerel wakeup_cpus_mask+106
	DD	imagerel $unwind$wakeup_cpus_mask
$pdata$Interrupt_Lock_Obtained DD imagerel Interrupt_Lock_Obtained
	DD	imagerel Interrupt_Lock_Obtained+269
	DD	imagerel $unwind$Interrupt_Lock_Obtained
$pdata$Obtain_Interrupt_Lock DD imagerel Obtain_Interrupt_Lock
	DD	imagerel Obtain_Interrupt_Lock+88
	DD	imagerel $unwind$Obtain_Interrupt_Lock
$pdata$Release_Interrupt_Lock DD imagerel Release_Interrupt_Lock
	DD	imagerel Release_Interrupt_Lock+71
	DD	imagerel $unwind$Release_Interrupt_Lock
pdata	ENDS
;	COMDAT pdata
pdata	SEGMENT
$pdata$_get_storekey_ptr DD imagerel $LN5
	DD	imagerel $LN5+104
	DD	imagerel $unwind$_get_storekey_ptr
pdata	ENDS
;	COMDAT pdata
pdata	SEGMENT
$pdata$s370__or_storage_key DD imagerel $LN8
	DD	imagerel $LN8+170
	DD	imagerel $unwind$s370__or_storage_key
pdata	ENDS
;	COMDAT pdata
pdata	SEGMENT
$pdata$s370_or_2K_storage_key DD imagerel $LN3
	DD	imagerel $LN3+42
	DD	imagerel $unwind$s370_or_2K_storage_key
pdata	ENDS
;	COMDAT pdata
pdata	SEGMENT
$pdata$s370_or_storage_key DD imagerel $LN3
	DD	imagerel $LN3+33
	DD	imagerel $unwind$s370_or_storage_key
pdata	ENDS
;	COMDAT pdata
pdata	SEGMENT
$pdata$s370_maddr_l DD imagerel $LN14
	DD	imagerel $LN14+474
	DD	imagerel $unwind$s370_maddr_l
pdata	ENDS
;	COMDAT pdata
pdata	SEGMENT
$pdata$s370_instfetch DD imagerel $LN68
	DD	imagerel $LN68+1960
	DD	imagerel $unwind$s370_instfetch
pdata	ENDS
pdata	SEGMENT
$pdata$CPU_Wait DD imagerel CPU_Wait
	DD	imagerel CPU_Wait+438
	DD	imagerel $unwind$CPU_Wait
$pdata$cpu_uninit DD imagerel cpu_uninit
	DD	imagerel cpu_uninit+547
	DD	imagerel $unwind$cpu_uninit
$pdata$s370_restart_interrupt DD imagerel s370_restart_interrupt
	DD	imagerel s370_restart_interrupt+330
	DD	imagerel $unwind$s370_restart_interrupt
$pdata$s370_perform_mck_interrupt DD imagerel s370_perform_mck_interrupt
	DD	imagerel s370_perform_mck_interrupt+2388
	DD	imagerel $unwind$s370_perform_mck_interrupt
$pdata$s370_process_interrupt DD imagerel $LN83
	DD	imagerel $LN83+2547
	DD	imagerel $unwind$s370_process_interrupt
$pdata$s370_run_cpu DD imagerel $LN53
	DD	imagerel $LN53+2666
	DD	imagerel $unwind$s370_run_cpu
$pdata$s390_perform_io_interrupt DD imagerel $LN41
	DD	imagerel $LN41+2819
	DD	imagerel $unwind$s390_perform_io_interrupt
$pdata$s390_checkstop_all_cpus DD imagerel $LN14
	DD	imagerel $LN14+303
	DD	imagerel $unwind$s390_checkstop_all_cpus
$pdata$s390_SuccessfulBranch DD imagerel $LN37
	DD	imagerel $LN37+924
	DD	imagerel $unwind$s390_SuccessfulBranch
$pdata$s390_SuccessfulRelativeBranch DD imagerel $LN43
	DD	imagerel $LN43+1201
	DD	imagerel $unwind$s390_SuccessfulRelativeBranch
$pdata$s390_fix_program_interrupt_PSW DD imagerel $LN38
	DD	imagerel $LN38+822
	DD	imagerel $unwind$s390_fix_program_interrupt_PSW
$pdata$s390_trace_program_interrupt DD imagerel $LN44
	DD	imagerel $LN44+3171
	DD	imagerel $unwind$s390_trace_program_interrupt
pdata	ENDS
;	COMDAT pdata
pdata	SEGMENT
$pdata$s390__or_storage_key DD imagerel $LN8
	DD	imagerel $LN8+159
	DD	imagerel $unwind$s390__or_storage_key
pdata	ENDS
;	COMDAT pdata
pdata	SEGMENT
$pdata$s390_or_4K_storage_key DD imagerel $LN3
	DD	imagerel $LN3+42
	DD	imagerel $unwind$s390_or_4K_storage_key
pdata	ENDS
;	COMDAT pdata
pdata	SEGMENT
$pdata$s390_or_storage_key DD imagerel $LN3
	DD	imagerel $LN3+33
	DD	imagerel $unwind$s390_or_storage_key
pdata	ENDS
;	COMDAT pdata
pdata	SEGMENT
$pdata$s390_maddr_l DD imagerel $LN14
	DD	imagerel $LN14+474
	DD	imagerel $unwind$s390_maddr_l
pdata	ENDS
;	COMDAT pdata
pdata	SEGMENT
$pdata$s390_instfetch DD imagerel $LN76
	DD	imagerel $LN76+2248
	DD	imagerel $unwind$s390_instfetch
pdata	ENDS
pdata	SEGMENT
$pdata$s390_restart_interrupt DD imagerel s390_restart_interrupt
	DD	imagerel s390_restart_interrupt+330
	DD	imagerel $unwind$s390_restart_interrupt
$pdata$s390_perform_mck_interrupt DD imagerel s390_perform_mck_interrupt
	DD	imagerel s390_perform_mck_interrupt+2476
	DD	imagerel $unwind$s390_perform_mck_interrupt
$pdata$s390_process_interrupt DD imagerel $LN83
	DD	imagerel $LN83+2571
	DD	imagerel $unwind$s390_process_interrupt
$pdata$s390_run_cpu DD imagerel $LN53
	DD	imagerel $LN53+2666
	DD	imagerel $unwind$s390_run_cpu
$pdata$z900_perform_io_interrupt DD imagerel $LN46
	DD	imagerel $LN46+3018
	DD	imagerel $unwind$z900_perform_io_interrupt
$pdata$z900_checkstop_all_cpus DD imagerel $LN14
	DD	imagerel $LN14+303
	DD	imagerel $unwind$z900_checkstop_all_cpus
$pdata$z900_Set_BEAR_Reg DD imagerel $LN31
	DD	imagerel $LN31+773
	DD	imagerel $unwind$z900_Set_BEAR_Reg
$pdata$z900_SuccessfulBranch DD imagerel $LN37
	DD	imagerel $LN37+964
	DD	imagerel $unwind$z900_SuccessfulBranch
$pdata$z900_SuccessfulRelativeBranch DD imagerel $LN43
	DD	imagerel $LN43+1232
	DD	imagerel $unwind$z900_SuccessfulRelativeBranch
$pdata$z900_fix_program_interrupt_PSW DD imagerel $LN38
	DD	imagerel $LN38+821
	DD	imagerel $unwind$z900_fix_program_interrupt_PSW
$pdata$z900_trace_program_interrupt DD imagerel $LN45
	DD	imagerel $LN45+3244
	DD	imagerel $unwind$z900_trace_program_interrupt
pdata	ENDS
;	COMDAT pdata
pdata	SEGMENT
$pdata$z900__or_storage_key DD imagerel $LN8
	DD	imagerel $LN8+159
	DD	imagerel $unwind$z900__or_storage_key
pdata	ENDS
;	COMDAT pdata
pdata	SEGMENT
$pdata$z900_or_4K_storage_key DD imagerel $LN3
	DD	imagerel $LN3+42
	DD	imagerel $unwind$z900_or_4K_storage_key
pdata	ENDS
;	COMDAT pdata
pdata	SEGMENT
$pdata$z900_or_storage_key DD imagerel $LN3
	DD	imagerel $LN3+33
	DD	imagerel $unwind$z900_or_storage_key
pdata	ENDS
;	COMDAT pdata
pdata	SEGMENT
$pdata$z900_maddr_l DD imagerel $LN18
	DD	imagerel $LN18+657
	DD	imagerel $unwind$z900_maddr_l
pdata	ENDS
;	COMDAT pdata
pdata	SEGMENT
$pdata$z900_instfetch DD imagerel $LN96
	DD	imagerel $LN96+2956
	DD	imagerel $unwind$z900_instfetch
pdata	ENDS
pdata	SEGMENT
$pdata$z900_restart_interrupt DD imagerel z900_restart_interrupt
	DD	imagerel z900_restart_interrupt+510
	DD	imagerel $unwind$z900_restart_interrupt
$pdata$z900_perform_mck_interrupt DD imagerel z900_perform_mck_interrupt
	DD	imagerel z900_perform_mck_interrupt+2646
	DD	imagerel $unwind$z900_perform_mck_interrupt
$pdata$z900_process_interrupt DD imagerel $LN85
	DD	imagerel $LN85+2662
	DD	imagerel $unwind$z900_process_interrupt
$pdata$z900_run_cpu DD imagerel $LN166
	DD	imagerel $LN166+5701
	DD	imagerel $unwind$z900_run_cpu
pdata	ENDS
;	COMDAT ??_C@_0CM@NOJKKEDI@C?3?2papa?2MyGit?2hyperion?9zvector?2@
_DATA	SEGMENT
??_C@_0CM@NOJKKEDI@C?3?2papa?2MyGit?2hyperion?9zvector?2@ DB 'C:\papa\MyG'
	DB	'it\hyperion-zvector\vstore.h:943', 00H	; `string'
_DATA	ENDS
;	COMDAT ??_C@_0CM@GFKCBHDD@C?3?2papa?2MyGit?2hyperion?9zvector?2@
_DATA	SEGMENT
??_C@_0CM@GFKCBHDD@C?3?2papa?2MyGit?2hyperion?9zvector?2@ DB 'C:\papa\MyG'
	DB	'it\hyperion-zvector\vstore.h:863', 00H	; `string'
_DATA	ENDS
_DATA	SEGMENT
$SG169563 DB	'cpu.c:94', 00H
	ORG $+3
$SG169754 DB	'I', 00H
	ORG $+2
$SG169755 DB	'HHC00800%s Processor %s%02X: loaded wait state PSW %s', 0aH
	DB	00H
	ORG $+1
$SG169756 DB	's370_load_psw', 00H
	ORG $+2
$SG169757 DB	'cpu.c', 00H
	ORG $+2
$SG169802 DB	'cpu.c:381', 00H
	ORG $+2
$SG169803 DB	'branch', 00H
	ORG $+1
$SG169956 DB	'I', 00H
	ORG $+2
$SG169805 DB	'cpu.c:392', 00H
	ORG $+2
$SG169806 DB	'branch', 00H
	ORG $+1
$SG170316 DB	'PGM', 00H
$SG169855 DB	'cpu.c:419', 00H
	ORG $+2
$SG170394 DB	'I', 00H
	ORG $+2
$SG169856 DB	'rbranch <', 00H
	ORG $+2
$SG170405 DB	'PGM ec', 00H
	ORG $+1
$SG170430 DB	'I', 00H
	ORG $+2
$SG169858 DB	'cpu.c:427', 00H
	ORG $+2
$SG170524 DB	'*IOINT', 00H
	ORG $+1
$SG170552 DB	'I', 00H
	ORG $+2
$SG169859 DB	'rbranch >', 00H
	ORG $+2
$SG170616 DB	'I', 00H
	ORG $+2
$SG169863 DB	'cpu.c:439', 00H
	ORG $+2
$SG170741 DB	'I', 00H
	ORG $+2
$SG169864 DB	'rbranch >', 00H
	ORG $+2
$SG170754 DB	'I', 00H
	ORG $+2
$SG169945 DB	'cpu.c:490', 00H
	ORG $+2
$SG170828 DB	'I', 00H
	ORG $+2
$SG169946 DB	'tr PGM int', 00H
	ORG $+1
$SG170834 DB	'I', 00H
	ORG $+2
$SG169948 DB	'cpu.c:502', 00H
	ORG $+2
$SG170847 DB	'E', 00H
	ORG $+2
$SG169949 DB	'tr PGM int', 00H
	ORG $+1
$SG169952 DB	'SIE: ', 00H
	ORG $+2
$SG170858 DB	'W', 00H
	ORG $+2
$SG169954 DB	' DXC=%2.2X', 00H
	ORG $+5
$SG169958 DB	's370_trace_program_interrupt', 00H
	ORG $+3
$SG169959 DB	'cpu.c', 00H
	ORG $+2
$SG169957 DB	'HHC00801%s Processor %s%02X: %s%s%s interruption code %4'
	DB	'.4X ilc %d%s%s', 0aH, 00H
$SG170001 DB	'cpu.c:594', 00H
	ORG $+2
$SG181083 DB	'I', 00H
	ORG $+2
$SG170002 DB	'fxpiPSW ilc', 00H
$SG181292 DB	'I', 00H
	ORG $+2
$SG170005 DB	'cpu.c:604', 00H
	ORG $+2
$SG181137 DB	'branch', 00H
	ORG $+1
$SG181677 DB	'PGM', 00H
$SG170006 DB	'fxpiPSW ilc', 00H
$SG181776 DB	'I', 00H
	ORG $+2
$SG170008 DB	'cpu.c:616', 00H
	ORG $+2
$SG181140 DB	'branch', 00H
	ORG $+1
$SG181811 DB	'I', 00H
	ORG $+2
$SG170009 DB	'fxpiPSW ilc', 00H
$SG181927 DB	'I', 00H
	ORG $+2
$SG170011 DB	'cpu.c:621', 00H
	ORG $+2
$SG181786 DB	'PGM ec', 00H
	ORG $+1
$SG181991 DB	'I', 00H
	ORG $+2
$SG170012 DB	'fxpiPSW ret', 00H
$SG182116 DB	'I', 00H
	ORG $+2
$SG170315 DB	'cpu.c:666', 00H
	ORG $+2
$SG181901 DB	'*IOINT', 00H
	ORG $+1
$SG182129 DB	'I', 00H
	ORG $+2
$SG170318 DB	'cpu.c:681', 00H
	ORG $+2
$SG182203 DB	'I', 00H
	ORG $+2
$SG170319 DB	'PGM (r)h,g,a', 00H
	ORG $+3
$SG170321 DB	'cpu.c:689', 00H
	ORG $+2
$SG182209 DB	'I', 00H
	ORG $+2
$SG170324 DB	'cpu.c:693', 00H
	ORG $+2
$SG182222 DB	'E', 00H
	ORG $+2
$SG170327 DB	'cpu.c:706', 00H
	ORG $+2
$SG182233 DB	'W', 00H
	ORG $+2
$SG170328 DB	'PGM ilc', 00H
$SG170330 DB	'cpu.c:792', 00H
	ORG $+2
$SG195335 DB	'I', 00H
	ORG $+2
$SG170331 DB	'PGM execflag', 00H
	ORG $+3
$SG170333 DB	'cpu.c:799', 00H
	ORG $+2
$SG195426 DB	'bear =', 00H
	ORG $+1
$SG195622 DB	'I', 00H
	ORG $+2
$SG170334 DB	'PGM execflag', 00H
	ORG $+3
$SG170337 DB	'cpu.c:853', 00H
	ORG $+2
$SG195466 DB	'branch', 00H
	ORG $+1
$SG196061 DB	'PGM', 00H
$SG170338 DB	'PGM psw.IA', 00H
	ORG $+1
$SG196175 DB	'I', 00H
	ORG $+2
$SG170342 DB	'cpu.c:894', 00H
	ORG $+2
$SG195469 DB	'branch', 00H
	ORG $+1
$SG196215 DB	'I', 00H
	ORG $+2
$SG170343 DB	'PGM IA-ilc', 00H
	ORG $+1
$SG196354 DB	'I', 00H
	ORG $+2
$SG170347 DB	'cpu.c:921', 00H
	ORG $+2
$SG196185 DB	'PGM ec', 00H
	ORG $+1
$SG196432 DB	'I', 00H
	ORG $+2
$SG170348 DB	'PGM IA+ilc', 00H
	ORG $+1
$SG196564 DB	'I', 00H
	ORG $+2
$SG170350 DB	'cpu.c:931', 00H
	ORG $+2
$SG196328 DB	'*IOINT', 00H
	ORG $+1
$SG196577 DB	'I', 00H
	ORG $+2
$SG170351 DB	'PGM inval=0', 00H
$SG196740 DB	'I', 00H
	ORG $+2
$SG170363 DB	'cpu.c:1012', 00H
	ORG $+1
$SG196746 DB	'I', 00H
	ORG $+2
$SG170364 DB	'PGM !icept', 00H
	ORG $+1
$SG196759 DB	'E', 00H
	ORG $+2
$SG170366 DB	'cpu.c:1033', 00H
	ORG $+1
$SG196772 DB	'W', 00H
	ORG $+2
$SG170367 DB	'PGM icept', 00H
	ORG $+6
$SG170396 DB	's370_program_interrupt', 00H
	ORG $+1
$SG170395 DB	'HHC00802%s Processor %s%02X: PER event: code %4.4X perc '
	DB	'%2.2X=%s addr %8.8X', 0aH, 00H
	ORG $+3
$SG170397 DB	'cpu.c', 00H
	ORG $+2
$SG170404 DB	'cpu.c:1147', 00H
	ORG $+1
$SG196782 DB	'W', 00H
	ORG $+2
$SG170421 DB	'cpu.c:1330', 00H
	ORG $+1
$SG196794 DB	'W', 00H
	ORG $+2
$SG170422 DB	'*PGM *lpsw', 00H
	ORG $+1
$SG196802 DB	0b2H, 0f8H, 00H
	ORG $+1
$SG170424 DB	'cpu.c:1331', 00H
	ORG $+1
$SG196812 DB	0b2H, 0f8H, 00H
	ORG $+1
$SG170425 DB	'PGM progjmp', 00H
$SG196822 DB	0b2H, 0f8H, 00H
	ORG $+1
$SG170431 DB	'HHC00803%s Processor %s%02X: program interrupt loop PSW '
	DB	'%s', 0aH, 00H
$SG196908 DB	'E', 00H
	ORG $+2
$SG170432 DB	's370_program_interrupt', 00H
	ORG $+1
$SG170433 DB	'cpu.c', 00H
	ORG $+2
$SG170434 DB	'cpu.c:1369', 00H
	ORG $+1
$SG196916 DB	'I', 00H
	ORG $+2
$SG170435 DB	'cpu.c:1374', 00H
	ORG $+1
$SG196924 DB	'I', 00H
	ORG $+2
$SG170437 DB	'cpu.c:1383', 00H
	ORG $+1
$SG197133 DB	'I', 00H
	ORG $+2
$SG170438 DB	'PGM !icept', 00H
	ORG $+1
$SG197138 DB	'I', 00H
	ORG $+2
$SG170440 DB	'cpu.c:1384', 00H
	ORG $+5
$SG170441 DB	'PGM progjmp', 00H
	ORG $+4
$SG170443 DB	'cpu.c:1397', 00H
	ORG $+5
$SG170444 DB	'PGM icept', 00H
	ORG $+6
$SG170446 DB	'cpu.c:1398', 00H
	ORG $+5
$SG170447 DB	'PGM progjmp', 00H
	ORG $+4
$SG170465 DB	'cpu.c:1412', 00H
	ORG $+5
$SG170466 DB	'*RESTART', 00H
	ORG $+7
$SG170468 DB	'cpu.c:1445', 00H
	ORG $+5
$SG170523 DB	'cpu.c:1475', 00H
	ORG $+1
$SG170555 DB	'cpu.c', 00H
	ORG $+6
$SG170553 DB	'HHC00804%s Processor %s%02X: I/O interrupt code %1.1X:%4'
	DB	'.4X CSW %2.2X%2.2X%2.2X%2.2X %2.2X%2.2X%2.2X%2.2X', 0aH, 00H
	ORG $+5
$SG170554 DB	's370_perform_io_interrupt', 00H
	ORG $+6
$SG170558 DB	'cpu.c:1585', 00H
	ORG $+5
$SG170559 DB	'cpu.c:1590', 00H
	ORG $+5
$SG170617 DB	'HHC00807%s Processor %s%02X: machine check code %16.16ll'
	DB	'u', 0aH, 00H
	ORG $+5
$SG170618 DB	's370_perform_mck_interrupt', 00H
	ORG $+1
$SG170619 DB	'cpu.c', 00H
	ORG $+6
$SG170620 DB	'cpu.c:1668', 00H
	ORG $+5
$SG170723 DB	'cpu.c:1686', 00H
	ORG $+5
$SG170732 DB	'cpu.c:1744', 00H
	ORG $+5
$SG170736 DB	'cpu.c:1766', 00H
	ORG $+5
$SG170738 DB	'cpu.c:1776', 00H
	ORG $+5
$SG170742 DB	'HHC00808%s Processor %s%02X: store status completed', 0aH
	DB	00H
	ORG $+3
$SG170743 DB	's370_process_interrupt', 00H
	ORG $+1
$SG170744 DB	'cpu.c', 00H
	ORG $+2
$SG170748 DB	'cpu.c:1836', 00H
	ORG $+5
$SG170755 DB	'HHC00809%s Processor %s%02X: disabled wait state %s', 0aH
	DB	00H
	ORG $+3
$SG170756 DB	's370_process_interrupt', 00H
	ORG $+1
$SG170757 DB	'cpu.c', 00H
	ORG $+2
$SG170758 DB	'cpu.c:1866', 00H
	ORG $+5
$SG170760 DB	'cpu.c:1892', 00H
	ORG $+5
$SG170761 DB	'cpu.c:1897', 00H
	ORG $+5
$SG170826 DB	'cpu.c:1929', 00H
	ORG $+5
$SG170829 DB	'HHC00811%s Processor %s%02X: architecture mode %s', 0aH, 00H
	ORG $+5
$SG170830 DB	's370_run_cpu', 00H
	ORG $+3
$SG170831 DB	'cpu.c', 00H
	ORG $+2
$SG170835 DB	'HHC00811%s Processor %s%02X: architecture mode %s', 0aH, 00H
	ORG $+5
$SG170836 DB	's370_run_cpu', 00H
	ORG $+3
$SG170837 DB	'cpu.c', 00H
	ORG $+2
$SG170841 DB	'cpu.c:1976', 00H
	ORG $+5
$SG170842 DB	'*SETARCH', 00H
	ORG $+7
$SG170845 DB	'cpu.c:1986', 00H
	ORG $+5
$SG170846 DB	'malloc(%d)', 00H
	ORG $+5
$SG170848 DB	'HHC00813%s Processor %s%02X: error in function %s: %s', 0aH
	DB	00H
	ORG $+1
$SG170849 DB	's370_run_cpu', 00H
	ORG $+3
$SG170850 DB	'cpu.c', 00H
	ORG $+2
$SG170852 DB	'cpu.c:2010', 00H
	ORG $+5
$SG170853 DB	'cpu.c:2012', 00H
	ORG $+5
$SG170860 DB	's370_run_cpu', 00H
	ORG $+3
$SG170861 DB	'cpu.c', 00H
	ORG $+2
$SG170859 DB	'HHC00835%s Processor %s%02X: aie invalidated; instructio'
	DB	'n being refetched', 0aH, 00H
	ORG $+5
$SG170904 DB	'cpu.c:2200', 00H
	ORG $+5
$SG170905 DB	'cpu.c:2217', 00H
	ORG $+5
$SG170906 DB	'cpu.c:2230', 00H
	ORG $+5
$SG180945 DB	'C:\papa\MyGit\hyperion-zvector\cpu.c:94', 00H
$SG181084 DB	'HHC00800%s Processor %s%02X: loaded wait state PSW %s', 0aH
	DB	00H
	ORG $+1
$SG181085 DB	's390_load_psw', 00H
	ORG $+2
$SG181086 DB	'C:\papa\MyGit\hyperion-zvector\cpu.c', 00H
	ORG $+3
$SG181136 DB	'C:\papa\MyGit\hyperion-zvector\cpu.c:381', 00H
	ORG $+7
$SG181139 DB	'C:\papa\MyGit\hyperion-zvector\cpu.c:392', 00H
	ORG $+7
$SG181190 DB	'C:\papa\MyGit\hyperion-zvector\cpu.c:419', 00H
	ORG $+7
$SG181191 DB	'rbranch <', 00H
	ORG $+6
$SG181193 DB	'C:\papa\MyGit\hyperion-zvector\cpu.c:427', 00H
	ORG $+7
$SG181194 DB	'rbranch >', 00H
	ORG $+6
$SG181198 DB	'C:\papa\MyGit\hyperion-zvector\cpu.c:439', 00H
	ORG $+7
$SG181199 DB	'rbranch >', 00H
	ORG $+6
$SG181281 DB	'C:\papa\MyGit\hyperion-zvector\cpu.c:490', 00H
	ORG $+7
$SG181282 DB	'tr PGM int', 00H
	ORG $+5
$SG181284 DB	'C:\papa\MyGit\hyperion-zvector\cpu.c:502', 00H
	ORG $+7
$SG181285 DB	'tr PGM int', 00H
	ORG $+1
$SG181288 DB	'SIE: ', 00H
	ORG $+6
$SG181290 DB	' DXC=%2.2X', 00H
	ORG $+5
$SG181293 DB	'HHC00801%s Processor %s%02X: %s%s%s interruption code %4'
	DB	'.4X ilc %d%s%s', 0aH, 00H
$SG181294 DB	's390_trace_program_interrupt', 00H
	ORG $+3
$SG181295 DB	'C:\papa\MyGit\hyperion-zvector\cpu.c', 00H
	ORG $+3
$SG181337 DB	'C:\papa\MyGit\hyperion-zvector\cpu.c:594', 00H
	ORG $+7
$SG181338 DB	'fxpiPSW ilc', 00H
	ORG $+4
$SG181341 DB	'C:\papa\MyGit\hyperion-zvector\cpu.c:604', 00H
	ORG $+7
$SG181342 DB	'fxpiPSW ilc', 00H
	ORG $+4
$SG181344 DB	'C:\papa\MyGit\hyperion-zvector\cpu.c:616', 00H
	ORG $+7
$SG181345 DB	'fxpiPSW ilc', 00H
	ORG $+4
$SG181347 DB	'C:\papa\MyGit\hyperion-zvector\cpu.c:621', 00H
	ORG $+7
$SG181348 DB	'fxpiPSW ret', 00H
	ORG $+4
$SG181676 DB	'C:\papa\MyGit\hyperion-zvector\cpu.c:666', 00H
	ORG $+7
$SG181679 DB	'C:\papa\MyGit\hyperion-zvector\cpu.c:681', 00H
	ORG $+7
$SG181680 DB	'PGM (r)h,g,a', 00H
	ORG $+3
$SG181682 DB	'C:\papa\MyGit\hyperion-zvector\cpu.c:689', 00H
	ORG $+7
$SG181685 DB	'C:\papa\MyGit\hyperion-zvector\cpu.c:693', 00H
	ORG $+7
$SG181689 DB	'C:\papa\MyGit\hyperion-zvector\cpu.c:706', 00H
	ORG $+7
$SG181690 DB	'PGM ilc', 00H
$SG181694 DB	'C:\papa\MyGit\hyperion-zvector\cpu.c:718', 00H
	ORG $+7
$SG181695 DB	'PGM sie_ilc', 00H
	ORG $+4
$SG181697 DB	'C:\papa\MyGit\hyperion-zvector\cpu.c:792', 00H
	ORG $+7
$SG181698 DB	'PGM execflag', 00H
	ORG $+3
$SG181701 DB	'C:\papa\MyGit\hyperion-zvector\cpu.c:799', 00H
	ORG $+7
$SG181702 DB	'PGM execflag', 00H
	ORG $+3
$SG181711 DB	'C:\papa\MyGit\hyperion-zvector\cpu.c:853', 00H
	ORG $+7
$SG181712 DB	'PGM psw.IA', 00H
	ORG $+5
$SG181716 DB	'C:\papa\MyGit\hyperion-zvector\cpu.c:894', 00H
	ORG $+7
$SG181717 DB	'PGM IA-ilc', 00H
	ORG $+5
$SG181722 DB	'C:\papa\MyGit\hyperion-zvector\cpu.c:921', 00H
	ORG $+7
$SG181723 DB	'PGM IA+ilc', 00H
	ORG $+5
$SG181725 DB	'C:\papa\MyGit\hyperion-zvector\cpu.c:931', 00H
	ORG $+7
$SG181726 DB	'PGM inval=0', 00H
	ORG $+4
$SG181729 DB	'C:\papa\MyGit\hyperion-zvector\cpu.c:940', 00H
	ORG $+7
$SG181730 DB	'PGM >sie_exit', 00H
	ORG $+2
$SG181745 DB	'C:\papa\MyGit\hyperion-zvector\cpu.c:1012', 00H
	ORG $+6
$SG181746 DB	'PGM !icept', 00H
	ORG $+5
$SG181748 DB	'C:\papa\MyGit\hyperion-zvector\cpu.c:1033', 00H
	ORG $+6
$SG181749 DB	'PGM icept', 00H
	ORG $+6
$SG181778 DB	's390_program_interrupt', 00H
	ORG $+1
$SG181777 DB	'HHC00802%s Processor %s%02X: PER event: code %4.4X perc '
	DB	'%2.2X=%s addr %8.8X', 0aH, 00H
	ORG $+3
$SG181779 DB	'C:\papa\MyGit\hyperion-zvector\cpu.c', 00H
	ORG $+3
$SG181785 DB	'C:\papa\MyGit\hyperion-zvector\cpu.c:1147', 00H
	ORG $+6
$SG181802 DB	'C:\papa\MyGit\hyperion-zvector\cpu.c:1330', 00H
	ORG $+6
$SG181803 DB	'*PGM *lpsw', 00H
	ORG $+5
$SG181805 DB	'C:\papa\MyGit\hyperion-zvector\cpu.c:1331', 00H
	ORG $+6
$SG181806 DB	'PGM progjmp', 00H
	ORG $+4
$SG181812 DB	'HHC00803%s Processor %s%02X: program interrupt loop PSW '
	DB	'%s', 0aH, 00H
	ORG $+4
$SG181813 DB	's390_program_interrupt', 00H
	ORG $+1
$SG181814 DB	'C:\papa\MyGit\hyperion-zvector\cpu.c', 00H
	ORG $+3
$SG181815 DB	'C:\papa\MyGit\hyperion-zvector\cpu.c:1369', 00H
	ORG $+6
$SG181816 DB	'C:\papa\MyGit\hyperion-zvector\cpu.c:1374', 00H
	ORG $+6
$SG181818 DB	'C:\papa\MyGit\hyperion-zvector\cpu.c:1383', 00H
	ORG $+6
$SG181819 DB	'PGM !icept', 00H
	ORG $+5
$SG181821 DB	'C:\papa\MyGit\hyperion-zvector\cpu.c:1384', 00H
	ORG $+6
$SG181822 DB	'PGM progjmp', 00H
	ORG $+4
$SG181824 DB	'C:\papa\MyGit\hyperion-zvector\cpu.c:1397', 00H
	ORG $+6
$SG181825 DB	'PGM icept', 00H
	ORG $+6
$SG181827 DB	'C:\papa\MyGit\hyperion-zvector\cpu.c:1398', 00H
	ORG $+6
$SG181828 DB	'PGM progjmp', 00H
	ORG $+4
$SG181846 DB	'C:\papa\MyGit\hyperion-zvector\cpu.c:1412', 00H
	ORG $+6
$SG181847 DB	'*RESTART', 00H
	ORG $+7
$SG181849 DB	'C:\papa\MyGit\hyperion-zvector\cpu.c:1445', 00H
	ORG $+6
$SG181900 DB	'C:\papa\MyGit\hyperion-zvector\cpu.c:1475', 00H
	ORG $+6
$SG181930 DB	'C:\papa\MyGit\hyperion-zvector\cpu.c', 00H
	ORG $+3
$SG181928 DB	'HHC00806%s Processor %s%02X: I/O interrupt code %8.8X pa'
	DB	'rm %8.8X id %8.8X', 0aH, 00H
	ORG $+5
$SG181929 DB	's390_perform_io_interrupt', 00H
	ORG $+6
$SG181933 DB	'C:\papa\MyGit\hyperion-zvector\cpu.c:1585', 00H
	ORG $+6
$SG181934 DB	'C:\papa\MyGit\hyperion-zvector\cpu.c:1590', 00H
	ORG $+6
$SG181992 DB	'HHC00807%s Processor %s%02X: machine check code %16.16ll'
	DB	'u', 0aH, 00H
	ORG $+5
$SG181993 DB	's390_perform_mck_interrupt', 00H
	ORG $+5
$SG181994 DB	'C:\papa\MyGit\hyperion-zvector\cpu.c', 00H
	ORG $+3
$SG181995 DB	'C:\papa\MyGit\hyperion-zvector\cpu.c:1668', 00H
	ORG $+6
$SG182098 DB	'C:\papa\MyGit\hyperion-zvector\cpu.c:1686', 00H
	ORG $+6
$SG182107 DB	'C:\papa\MyGit\hyperion-zvector\cpu.c:1744', 00H
	ORG $+6
$SG182111 DB	'C:\papa\MyGit\hyperion-zvector\cpu.c:1766', 00H
	ORG $+6
$SG182113 DB	'C:\papa\MyGit\hyperion-zvector\cpu.c:1776', 00H
	ORG $+6
$SG182117 DB	'HHC00808%s Processor %s%02X: store status completed', 0aH
	DB	00H
	ORG $+3
$SG182118 DB	's390_process_interrupt', 00H
	ORG $+1
$SG182119 DB	'C:\papa\MyGit\hyperion-zvector\cpu.c', 00H
	ORG $+3
$SG182123 DB	'C:\papa\MyGit\hyperion-zvector\cpu.c:1836', 00H
	ORG $+6
$SG182130 DB	'HHC00809%s Processor %s%02X: disabled wait state %s', 0aH
	DB	00H
	ORG $+3
$SG182131 DB	's390_process_interrupt', 00H
	ORG $+1
$SG182132 DB	'C:\papa\MyGit\hyperion-zvector\cpu.c', 00H
	ORG $+3
$SG182133 DB	'C:\papa\MyGit\hyperion-zvector\cpu.c:1866', 00H
	ORG $+6
$SG182135 DB	'C:\papa\MyGit\hyperion-zvector\cpu.c:1892', 00H
	ORG $+6
$SG182136 DB	'C:\papa\MyGit\hyperion-zvector\cpu.c:1897', 00H
	ORG $+6
$SG182201 DB	'C:\papa\MyGit\hyperion-zvector\cpu.c:1929', 00H
	ORG $+6
$SG182204 DB	'HHC00811%s Processor %s%02X: architecture mode %s', 0aH, 00H
	ORG $+5
$SG182205 DB	's390_run_cpu', 00H
	ORG $+3
$SG182206 DB	'C:\papa\MyGit\hyperion-zvector\cpu.c', 00H
	ORG $+3
$SG182210 DB	'HHC00811%s Processor %s%02X: architecture mode %s', 0aH, 00H
	ORG $+5
$SG182211 DB	's390_run_cpu', 00H
	ORG $+3
$SG182212 DB	'C:\papa\MyGit\hyperion-zvector\cpu.c', 00H
	ORG $+3
$SG182216 DB	'C:\papa\MyGit\hyperion-zvector\cpu.c:1976', 00H
	ORG $+6
$SG182217 DB	'*SETARCH', 00H
	ORG $+7
$SG182220 DB	'C:\papa\MyGit\hyperion-zvector\cpu.c:1986', 00H
	ORG $+6
$SG182221 DB	'malloc(%d)', 00H
	ORG $+5
$SG182223 DB	'HHC00813%s Processor %s%02X: error in function %s: %s', 0aH
	DB	00H
	ORG $+1
$SG182224 DB	's390_run_cpu', 00H
	ORG $+3
$SG182225 DB	'C:\papa\MyGit\hyperion-zvector\cpu.c', 00H
	ORG $+3
$SG182227 DB	'C:\papa\MyGit\hyperion-zvector\cpu.c:2010', 00H
	ORG $+6
$SG182228 DB	'C:\papa\MyGit\hyperion-zvector\cpu.c:2012', 00H
	ORG $+6
$SG182235 DB	's390_run_cpu', 00H
	ORG $+3
$SG182236 DB	'C:\papa\MyGit\hyperion-zvector\cpu.c', 00H
	ORG $+3
$SG182234 DB	'HHC00835%s Processor %s%02X: aie invalidated; instructio'
	DB	'n being refetched', 0aH, 00H
	ORG $+5
$SG182279 DB	'C:\papa\MyGit\hyperion-zvector\cpu.c:2200', 00H
	ORG $+6
$SG182280 DB	'C:\papa\MyGit\hyperion-zvector\cpu.c:2217', 00H
	ORG $+6
$SG182281 DB	'C:\papa\MyGit\hyperion-zvector\cpu.c:2230', 00H
	ORG $+6
$SG195197 DB	'C:\papa\MyGit\hyperion-zvector\cpu.c:94', 00H
$SG195336 DB	'HHC00800%s Processor %s%02X: loaded wait state PSW %s', 0aH
	DB	00H
	ORG $+1
$SG195337 DB	'z900_load_psw', 00H
	ORG $+2
$SG195338 DB	'C:\papa\MyGit\hyperion-zvector\cpu.c', 00H
	ORG $+3
$SG195410 DB	'C:\papa\MyGit\hyperion-zvector\cpu.c:305', 00H
	ORG $+7
$SG195411 DB	'bear = ex', 00H
	ORG $+6
$SG195416 DB	'C:\papa\MyGit\hyperion-zvector\cpu.c:331', 00H
	ORG $+7
$SG195417 DB	'ip < aip', 00H
	ORG $+7
$SG195420 DB	'C:\papa\MyGit\hyperion-zvector\cpu.c:341', 00H
	ORG $+7
$SG195421 DB	'ip >= aip+page', 00H
	ORG $+1
$SG195425 DB	'C:\papa\MyGit\hyperion-zvector\cpu.c:352', 00H
	ORG $+7
$SG195428 DB	'C:\papa\MyGit\hyperion-zvector\cpu.c:354', 00H
	ORG $+7
$SG195429 DB	'bear_ex =', 00H
	ORG $+6
$SG195465 DB	'C:\papa\MyGit\hyperion-zvector\cpu.c:381', 00H
	ORG $+7
$SG195468 DB	'C:\papa\MyGit\hyperion-zvector\cpu.c:392', 00H
	ORG $+7
$SG195519 DB	'C:\papa\MyGit\hyperion-zvector\cpu.c:419', 00H
	ORG $+7
$SG195520 DB	'rbranch <', 00H
	ORG $+6
$SG195522 DB	'C:\papa\MyGit\hyperion-zvector\cpu.c:427', 00H
	ORG $+7
$SG195523 DB	'rbranch >', 00H
	ORG $+6
$SG195527 DB	'C:\papa\MyGit\hyperion-zvector\cpu.c:439', 00H
	ORG $+7
$SG195528 DB	'rbranch >', 00H
	ORG $+6
$SG195610 DB	'C:\papa\MyGit\hyperion-zvector\cpu.c:490', 00H
	ORG $+7
$SG195611 DB	'tr PGM int', 00H
	ORG $+5
$SG195613 DB	'C:\papa\MyGit\hyperion-zvector\cpu.c:502', 00H
	ORG $+7
$SG195614 DB	'tr PGM int', 00H
	ORG $+1
$SG195617 DB	'SIE: ', 00H
	ORG $+6
$SG195620 DB	' DXC=%2.2X', 00H
	ORG $+5
$SG195623 DB	'HHC00801%s Processor %s%02X: %s%s%s interruption code %4'
	DB	'.4X ilc %d%s%s', 0aH, 00H
$SG195624 DB	'z900_trace_program_interrupt', 00H
	ORG $+3
$SG195625 DB	'C:\papa\MyGit\hyperion-zvector\cpu.c', 00H
	ORG $+3
$SG195667 DB	'C:\papa\MyGit\hyperion-zvector\cpu.c:594', 00H
	ORG $+7
$SG195668 DB	'fxpiPSW ilc', 00H
	ORG $+4
$SG195671 DB	'C:\papa\MyGit\hyperion-zvector\cpu.c:604', 00H
	ORG $+7
$SG195672 DB	'fxpiPSW ilc', 00H
	ORG $+4
$SG195674 DB	'C:\papa\MyGit\hyperion-zvector\cpu.c:616', 00H
	ORG $+7
$SG195675 DB	'fxpiPSW ilc', 00H
	ORG $+4
$SG195677 DB	'C:\papa\MyGit\hyperion-zvector\cpu.c:621', 00H
	ORG $+7
$SG195678 DB	'fxpiPSW ret', 00H
	ORG $+4
$SG196060 DB	'C:\papa\MyGit\hyperion-zvector\cpu.c:666', 00H
	ORG $+7
$SG196063 DB	'C:\papa\MyGit\hyperion-zvector\cpu.c:681', 00H
	ORG $+7
$SG196064 DB	'PGM (r)h,g,a', 00H
	ORG $+3
$SG196066 DB	'C:\papa\MyGit\hyperion-zvector\cpu.c:689', 00H
	ORG $+7
$SG196069 DB	'C:\papa\MyGit\hyperion-zvector\cpu.c:693', 00H
	ORG $+7
$SG196073 DB	'C:\papa\MyGit\hyperion-zvector\cpu.c:706', 00H
	ORG $+7
$SG196074 DB	'PGM ilc', 00H
$SG196078 DB	'C:\papa\MyGit\hyperion-zvector\cpu.c:718', 00H
	ORG $+7
$SG196079 DB	'PGM sie_ilc', 00H
	ORG $+4
$SG196083 DB	'C:\papa\MyGit\hyperion-zvector\cpu.c:753', 00H
	ORG $+7
$SG196084 DB	'TXF PIID', 00H
	ORG $+7
$SG196086 DB	'C:\papa\MyGit\hyperion-zvector\cpu.c:760', 00H
	ORG $+7
$SG196087 DB	'TXF PROG?', 00H
	ORG $+6
$SG196090 DB	'C:\papa\MyGit\hyperion-zvector\cpu.c:766', 00H
	ORG $+7
$SG196091 DB	'*TXF UPROG!', 00H
	ORG $+4
$SG196094 DB	'C:\papa\MyGit\hyperion-zvector\cpu.c:782', 00H
	ORG $+7
$SG196095 DB	'*TXF 218!', 00H
	ORG $+6
$SG196097 DB	'C:\papa\MyGit\hyperion-zvector\cpu.c:792', 00H
	ORG $+7
$SG196098 DB	'PGM execflag', 00H
	ORG $+3
$SG196101 DB	'C:\papa\MyGit\hyperion-zvector\cpu.c:799', 00H
	ORG $+7
$SG196102 DB	'PGM execflag', 00H
	ORG $+3
$SG196111 DB	'C:\papa\MyGit\hyperion-zvector\cpu.c:853', 00H
	ORG $+7
$SG196112 DB	'PGM psw.IA', 00H
	ORG $+5
$SG196116 DB	'C:\papa\MyGit\hyperion-zvector\cpu.c:894', 00H
	ORG $+7
$SG196117 DB	'PGM IA-ilc', 00H
	ORG $+5
$SG196122 DB	'C:\papa\MyGit\hyperion-zvector\cpu.c:921', 00H
	ORG $+7
$SG196123 DB	'PGM IA+ilc', 00H
	ORG $+5
$SG196125 DB	'C:\papa\MyGit\hyperion-zvector\cpu.c:931', 00H
	ORG $+7
$SG196126 DB	'PGM inval=0', 00H
	ORG $+4
$SG196129 DB	'C:\papa\MyGit\hyperion-zvector\cpu.c:940', 00H
	ORG $+7
$SG196130 DB	'PGM >sie_exit', 00H
	ORG $+2
$SG196142 DB	'C:\papa\MyGit\hyperion-zvector\cpu.c:1012', 00H
	ORG $+6
$SG196143 DB	'PGM !icept', 00H
	ORG $+5
$SG196146 DB	'C:\papa\MyGit\hyperion-zvector\cpu.c:1033', 00H
	ORG $+6
$SG196147 DB	'PGM icept', 00H
	ORG $+6
$SG196177 DB	'z900_program_interrupt', 00H
	ORG $+1
$SG196176 DB	'HHC00802%s Processor %s%02X: PER event: code %4.4X perc '
	DB	'%2.2X=%s addr %16.16llX', 0aH, 00H
	ORG $+7
$SG196178 DB	'C:\papa\MyGit\hyperion-zvector\cpu.c', 00H
	ORG $+3
$SG196184 DB	'C:\papa\MyGit\hyperion-zvector\cpu.c:1147', 00H
	ORG $+6
$SG196197 DB	'C:\papa\MyGit\hyperion-zvector\cpu.c:1293', 00H
	ORG $+6
$SG196198 DB	'PGM bear', 00H
	ORG $+7
$SG196206 DB	'C:\papa\MyGit\hyperion-zvector\cpu.c:1330', 00H
	ORG $+6
$SG196207 DB	'*PGM *lpsw', 00H
	ORG $+5
$SG196209 DB	'C:\papa\MyGit\hyperion-zvector\cpu.c:1331', 00H
	ORG $+6
$SG196210 DB	'PGM progjmp', 00H
	ORG $+4
$SG196216 DB	'HHC00803%s Processor %s%02X: program interrupt loop PSW '
	DB	'%s', 0aH, 00H
	ORG $+4
$SG196217 DB	'z900_program_interrupt', 00H
	ORG $+1
$SG196218 DB	'C:\papa\MyGit\hyperion-zvector\cpu.c', 00H
	ORG $+3
$SG196219 DB	'C:\papa\MyGit\hyperion-zvector\cpu.c:1369', 00H
	ORG $+6
$SG196220 DB	'C:\papa\MyGit\hyperion-zvector\cpu.c:1374', 00H
	ORG $+6
$SG196222 DB	'C:\papa\MyGit\hyperion-zvector\cpu.c:1383', 00H
	ORG $+6
$SG196223 DB	'PGM !icept', 00H
	ORG $+5
$SG196225 DB	'C:\papa\MyGit\hyperion-zvector\cpu.c:1384', 00H
	ORG $+6
$SG196226 DB	'PGM progjmp', 00H
	ORG $+4
$SG196228 DB	'C:\papa\MyGit\hyperion-zvector\cpu.c:1397', 00H
	ORG $+6
$SG196229 DB	'PGM icept', 00H
	ORG $+6
$SG196231 DB	'C:\papa\MyGit\hyperion-zvector\cpu.c:1398', 00H
	ORG $+6
$SG196232 DB	'PGM progjmp', 00H
	ORG $+4
$SG196259 DB	'C:\papa\MyGit\hyperion-zvector\cpu.c:1412', 00H
	ORG $+6
$SG196260 DB	'*RESTART', 00H
	ORG $+7
$SG196263 DB	'C:\papa\MyGit\hyperion-zvector\cpu.c:1428', 00H
	ORG $+6
$SG196264 DB	'*TXF MISC', 00H
	ORG $+6
$SG196265 DB	'C:\papa\MyGit\hyperion-zvector\cpu.c:1430', 00H
	ORG $+6
$SG196267 DB	'C:\papa\MyGit\hyperion-zvector\cpu.c:1445', 00H
	ORG $+6
$SG196327 DB	'C:\papa\MyGit\hyperion-zvector\cpu.c:1475', 00H
	ORG $+6
$SG196355 DB	'HHC00806%s Processor %s%02X: I/O interrupt code %8.8X pa'
	DB	'rm %8.8X id %8.8X', 0aH, 00H
	ORG $+5
$SG196356 DB	'z900_perform_io_interrupt', 00H
	ORG $+6
$SG196357 DB	'C:\papa\MyGit\hyperion-zvector\cpu.c', 00H
	ORG $+3
$SG196361 DB	'C:\papa\MyGit\hyperion-zvector\cpu.c:1572', 00H
	ORG $+6
$SG196362 DB	'*TXF IO', 00H
$SG196363 DB	'C:\papa\MyGit\hyperion-zvector\cpu.c:1574', 00H
	ORG $+6
$SG196365 DB	'C:\papa\MyGit\hyperion-zvector\cpu.c:1585', 00H
	ORG $+6
$SG196366 DB	'C:\papa\MyGit\hyperion-zvector\cpu.c:1590', 00H
	ORG $+6
$SG196433 DB	'HHC00807%s Processor %s%02X: machine check code %16.16ll'
	DB	'u', 0aH, 00H
	ORG $+5
$SG196434 DB	'z900_perform_mck_interrupt', 00H
	ORG $+5
$SG196435 DB	'C:\papa\MyGit\hyperion-zvector\cpu.c', 00H
	ORG $+3
$SG196438 DB	'C:\papa\MyGit\hyperion-zvector\cpu.c:1657', 00H
	ORG $+6
$SG196439 DB	'*TXF MCK', 00H
	ORG $+7
$SG196440 DB	'C:\papa\MyGit\hyperion-zvector\cpu.c:1659', 00H
	ORG $+6
$SG196441 DB	'C:\papa\MyGit\hyperion-zvector\cpu.c:1668', 00H
	ORG $+6
$SG196544 DB	'C:\papa\MyGit\hyperion-zvector\cpu.c:1686', 00H
	ORG $+6
$SG196555 DB	'C:\papa\MyGit\hyperion-zvector\cpu.c:1744', 00H
	ORG $+6
$SG196559 DB	'C:\papa\MyGit\hyperion-zvector\cpu.c:1766', 00H
	ORG $+6
$SG196561 DB	'C:\papa\MyGit\hyperion-zvector\cpu.c:1776', 00H
	ORG $+6
$SG196565 DB	'HHC00808%s Processor %s%02X: store status completed', 0aH
	DB	00H
	ORG $+3
$SG196566 DB	'z900_process_interrupt', 00H
	ORG $+1
$SG196567 DB	'C:\papa\MyGit\hyperion-zvector\cpu.c', 00H
	ORG $+3
$SG196571 DB	'C:\papa\MyGit\hyperion-zvector\cpu.c:1836', 00H
	ORG $+6
$SG196578 DB	'HHC00809%s Processor %s%02X: disabled wait state %s', 0aH
	DB	00H
	ORG $+3
$SG196579 DB	'z900_process_interrupt', 00H
	ORG $+1
$SG196580 DB	'C:\papa\MyGit\hyperion-zvector\cpu.c', 00H
	ORG $+3
$SG196581 DB	'C:\papa\MyGit\hyperion-zvector\cpu.c:1866', 00H
	ORG $+6
$SG196583 DB	'C:\papa\MyGit\hyperion-zvector\cpu.c:1892', 00H
	ORG $+6
$SG196584 DB	'C:\papa\MyGit\hyperion-zvector\cpu.c:1897', 00H
	ORG $+6
$SG196738 DB	'C:\papa\MyGit\hyperion-zvector\cpu.c:1929', 00H
	ORG $+6
$SG196741 DB	'HHC00811%s Processor %s%02X: architecture mode %s', 0aH, 00H
	ORG $+5
$SG196742 DB	'z900_run_cpu', 00H
	ORG $+3
$SG196743 DB	'C:\papa\MyGit\hyperion-zvector\cpu.c', 00H
	ORG $+3
$SG196747 DB	'HHC00811%s Processor %s%02X: architecture mode %s', 0aH, 00H
	ORG $+5
$SG196748 DB	'z900_run_cpu', 00H
	ORG $+3
$SG196749 DB	'C:\papa\MyGit\hyperion-zvector\cpu.c', 00H
	ORG $+3
$SG196753 DB	'C:\papa\MyGit\hyperion-zvector\cpu.c:1976', 00H
	ORG $+6
$SG196754 DB	'*SETARCH', 00H
	ORG $+7
$SG196757 DB	'C:\papa\MyGit\hyperion-zvector\cpu.c:1986', 00H
	ORG $+6
$SG196758 DB	'malloc(%d)', 00H
	ORG $+5
$SG196760 DB	'HHC00813%s Processor %s%02X: error in function %s: %s', 0aH
	DB	00H
	ORG $+1
$SG196761 DB	'z900_run_cpu', 00H
	ORG $+3
$SG196762 DB	'C:\papa\MyGit\hyperion-zvector\cpu.c', 00H
	ORG $+3
$SG196764 DB	'C:\papa\MyGit\hyperion-zvector\cpu.c:2010', 00H
	ORG $+6
$SG196765 DB	'C:\papa\MyGit\hyperion-zvector\cpu.c:2012', 00H
	ORG $+6
$SG196774 DB	'z900_run_cpu', 00H
	ORG $+3
$SG196775 DB	'C:\papa\MyGit\hyperion-zvector\cpu.c', 00H
	ORG $+3
$SG196773 DB	'HHC00835%s Processor %s%02X: aie invalidated; instructio'
	DB	'n being refetched', 0aH, 00H
	ORG $+5
$SG196783 DB	'HHC00835%s Processor %s%02X: aie invalidated; instructio'
	DB	'n being refetched', 0aH, 00H
	ORG $+5
$SG196784 DB	'z900_run_cpu', 00H
	ORG $+3
$SG196785 DB	'C:\papa\MyGit\hyperion-zvector\cpu.c', 00H
	ORG $+3
$SG196797 DB	'C:\papa\MyGit\hyperion-zvector\cpu.c', 00H
	ORG $+3
$SG196795 DB	'HHC00835%s Processor %s%02X: aie invalidated; instructio'
	DB	'n being refetched', 0aH, 00H
	ORG $+5
$SG196796 DB	'z900_run_cpu', 00H
	ORG $+3
$SG196800 DB	'C:\papa\MyGit\hyperion-zvector\cpu.c:2139', 00H
	ORG $+6
$SG196803 DB	'C:\papa\MyGit\hyperion-zvector\cpu.c:2139', 00H
	ORG $+6
$SG196805 DB	'C:\papa\MyGit\hyperion-zvector\cpu.c:2139', 00H
	ORG $+6
$SG196810 DB	'C:\papa\MyGit\hyperion-zvector\cpu.c:2148', 00H
	ORG $+6
$SG196813 DB	'C:\papa\MyGit\hyperion-zvector\cpu.c:2148', 00H
	ORG $+6
$SG196815 DB	'C:\papa\MyGit\hyperion-zvector\cpu.c:2148', 00H
	ORG $+6
$SG196820 DB	'C:\papa\MyGit\hyperion-zvector\cpu.c:2153', 00H
	ORG $+6
$SG196823 DB	'C:\papa\MyGit\hyperion-zvector\cpu.c:2153', 00H
	ORG $+6
$SG196825 DB	'C:\papa\MyGit\hyperion-zvector\cpu.c:2153', 00H
	ORG $+6
$SG196866 DB	'C:\papa\MyGit\hyperion-zvector\cpu.c:2200', 00H
	ORG $+6
$SG196867 DB	'C:\papa\MyGit\hyperion-zvector\cpu.c:2217', 00H
	ORG $+6
$SG196868 DB	'C:\papa\MyGit\hyperion-zvector\cpu.c:2230', 00H
	ORG $+6
run_cpu	DQ	FLAT:s370_run_cpu
	DQ	FLAT:s390_run_cpu
	DQ	FLAT:z900_run_cpu
$SG196902 DB	'C:\papa\MyGit\hyperion-zvector\cpu.c:2330', 00H
	ORG $+6
$SG196905 DB	'C:\papa\MyGit\hyperion-zvector\cpu.c:2343', 00H
	ORG $+6
$SG196906 DB	'timer_thread', 00H
	ORG $+3
$SG196909 DB	'HHC00102%s Error in function create_thread(): %s', 0aH, 00H
	ORG $+6
$SG196910 DB	'cpu_thread', 00H
	ORG $+5
$SG196911 DB	'C:\papa\MyGit\hyperion-zvector\cpu.c', 00H
	ORG $+3
$SG196912 DB	'C:\papa\MyGit\hyperion-zvector\cpu.c:2348', 00H
	ORG $+6
$SG196913 DB	'C:\papa\MyGit\hyperion-zvector\cpu.c:2354', 00H
	ORG $+6
$SG196914 DB	'Processor %s%02X', 00H
	ORG $+7
$SG196915 DB	'C:\papa\MyGit\hyperion-zvector\cpu.c:2359', 00H
	ORG $+6
$SG196917 DB	'HHC00100%s Thread id %8.8x, prio %d, name ''%s'' started'
	DB	0aH, 00H
$SG196918 DB	'cpu_thread', 00H
	ORG $+5
$SG196919 DB	'C:\papa\MyGit\hyperion-zvector\cpu.c', 00H
	ORG $+3
$SG196922 DB	'C:\papa\MyGit\hyperion-zvector\cpu.c:2381', 00H
	ORG $+6
$SG196923 DB	'C:\papa\MyGit\hyperion-zvector\cpu.c:2384', 00H
	ORG $+6
$SG196925 DB	'HHC00101%s Thread id %8.8x, prio %d, name ''%s'' ended', 0aH
	DB	00H
	ORG $+2
$SG196926 DB	'cpu_thread', 00H
	ORG $+5
$SG196927 DB	'C:\papa\MyGit\hyperion-zvector\cpu.c', 00H
	ORG $+3
$SG196928 DB	'C:\papa\MyGit\hyperion-zvector\cpu.c:2386', 00H
	ORG $+6
$SG196963 DB	'C:\papa\MyGit\hyperion-zvector\cpu.c:2398', 00H
	ORG $+2
$SG196964 DB	'REGS', 00H
	ORG $+7
$SG196965 DB	'%-4.4s_%s%02X', 00H
	ORG $+2
$SG196966 DB	'END ', 00H
	ORG $+3
$SG196967 DB	'SDL 4.00', 00H
	ORG $+7
$SG196969 DB	'C:\papa\MyGit\hyperion-zvector\cpu.c:2429', 00H
	ORG $+6
$SG196976 DB	'C:\papa\MyGit\hyperion-zvector\cpu.c:2519', 00H
	ORG $+6
$SG196990 DB	'C:\papa\MyGit\hyperion-zvector\cpu.c:2534', 00H
	ORG $+6
$SG196993 DB	'C:\papa\MyGit\hyperion-zvector\cpu.c:2560', 00H
	ORG $+6
$SG197019 DB	'C:\papa\MyGit\hyperion-zvector\cpu.c:2586', 00H
	ORG $+6
$SG197020 DB	'C:\papa\MyGit\hyperion-zvector\cpu.c:2587', 00H
	ORG $+6
$SG197023 DB	'C:\papa\MyGit\hyperion-zvector\cpu.c:2604', 00H
	ORG $+6
$SG197025 DB	'C:\papa\MyGit\hyperion-zvector\cpu.c:2608', 00H
	ORG $+6
$SG197026 DB	'C:\papa\MyGit\hyperion-zvector\cpu.c:2610', 00H
	ORG $+6
$SG197027 DB	'C:\papa\MyGit\hyperion-zvector\cpu.c:2614', 00H
	ORG $+6
$SG197075 DB	'%2.2X%2.2X%2.2X%2.2X %2.2X%2.2X%2.2X%2.2X', 00H
	ORG $+6
$SG197076 DB	'%2.2X%2.2X%2.2X%2.2X%2.2X%2.2X%2.2X%2.2X %2.2X%2.2X%2.2X'
	DB	'%2.2X%2.2X%2.2X%2.2X%2.2X', 00H
	ORG $+6
$SG197121 DB	'C:\papa\MyGit\hyperion-zvector\cpu.c:2728', 00H
	ORG $+6
$SG197123 DB	'C:\papa\MyGit\hyperion-zvector\cpu.c:2740', 00H
	ORG $+6
$SG197130 DB	'C:\papa\MyGit\hyperion-zvector\cpu.c:2783', 00H
	ORG $+6
$SG197135 DB	'do_automatic_tracing', 00H
	ORG $+3
$SG197134 DB	'HHC02370%s Automatic tracing started at instrcount %llu '
	DB	'(BEG+%llu)', 0aH, 00H
	ORG $+4
$SG197136 DB	'C:\papa\MyGit\hyperion-zvector\cpu.c', 00H
	ORG $+3
$SG197139 DB	'HHC02371%s Automatic tracing stopped at instrcount %llu '
	DB	'(AMT+%llu)', 0aH, 00H
	ORG $+4
$SG197140 DB	'do_automatic_tracing', 00H
	ORG $+3
$SG197141 DB	'C:\papa\MyGit\hyperion-zvector\cpu.c', 00H
_DATA	ENDS
;	COMDAT xdata
xdata	SEGMENT
$unwind$z900_instfetch DD 021001H
	DD	0170110H
xdata	ENDS
;	COMDAT xdata
xdata	SEGMENT
$unwind$z900_maddr_l DD 011801H
	DD	0a218H
xdata	ENDS
;	COMDAT xdata
xdata	SEGMENT
$unwind$z900_or_storage_key DD 010d01H
	DD	0420dH
xdata	ENDS
;	COMDAT xdata
xdata	SEGMENT
$unwind$z900_or_4K_storage_key DD 010d01H
	DD	0420dH
xdata	ENDS
;	COMDAT xdata
xdata	SEGMENT
$unwind$z900__or_storage_key DD 011201H
	DD	08212H
xdata	ENDS
;	COMDAT xdata
xdata	SEGMENT
$unwind$s390_instfetch DD 021001H
	DD	0150110H
xdata	ENDS
;	COMDAT xdata
xdata	SEGMENT
$unwind$s390_maddr_l DD 011701H
	DD	0a217H
xdata	ENDS
;	COMDAT xdata
xdata	SEGMENT
$unwind$s390_or_storage_key DD 010d01H
	DD	0420dH
xdata	ENDS
;	COMDAT xdata
xdata	SEGMENT
$unwind$s390_or_4K_storage_key DD 010d01H
	DD	0420dH
xdata	ENDS
;	COMDAT xdata
xdata	SEGMENT
$unwind$s390__or_storage_key DD 011201H
	DD	08212H
xdata	ENDS
;	COMDAT xdata
xdata	SEGMENT
$unwind$s370_instfetch DD 021001H
	DD	0130110H
xdata	ENDS
;	COMDAT xdata
xdata	SEGMENT
$unwind$s370_maddr_l DD 011701H
	DD	0a217H
xdata	ENDS
;	COMDAT xdata
xdata	SEGMENT
$unwind$s370_or_storage_key DD 010d01H
	DD	0420dH
xdata	ENDS
;	COMDAT xdata
xdata	SEGMENT
$unwind$s370_or_2K_storage_key DD 010d01H
	DD	0420dH
xdata	ENDS
;	COMDAT xdata
xdata	SEGMENT
$unwind$s370__or_storage_key DD 011201H
	DD	08212H
xdata	ENDS
;	COMDAT xdata
xdata	SEGMENT
$unwind$_get_storekey_ptr DD 010d01H
	DD	0220dH
xdata	ENDS
;	COMDAT xdata
xdata	SEGMENT
$unwind$fetch_dw_noswap DD 010901H
	DD	02209H
xdata	ENDS
;	COMDAT xdata
xdata	SEGMENT
$unwind$fetch_fw_noswap DD 010901H
	DD	02209H
xdata	ENDS
;	COMDAT xdata
xdata	SEGMENT
$unwind$fetch_hw_noswap DD 010901H
	DD	02209H
xdata	ENDS
voltbl	SEGMENT
_volmd	DD	0ffffffffH
	DDSymXIndex: 	FLAT:atomic_update64
	DD	014H
_volmd	DD	0ffffffffH
	DDSymXIndex: 	FLAT:z900_run_cpu
	DD	01cH
	DD	0162bH
_volmd	DD	0ffffffffH
	DDSymXIndex: 	FLAT:z900_process_interrupt
	DD	016H
	DD	0a4eH
_volmd	DD	0ffffffffH
	DDSymXIndex: 	FLAT:z900_trace_program_interrupt
	DD	020H
	DD	0c93H
_volmd	DD	0ffffffffH
	DDSymXIndex: 	FLAT:z900_perform_io_interrupt
	DD	016H
	DD	0bb2H
_volmd	DD	0ffffffffH
	DDSymXIndex: 	FLAT:s390_run_cpu
	DD	01cH
	DD	0a50H
_volmd	DD	0ffffffffH
	DDSymXIndex: 	FLAT:s390_process_interrupt
	DD	016H
	DD	09f3H
_volmd	DD	0ffffffffH
	DDSymXIndex: 	FLAT:s390_trace_program_interrupt
	DD	020H
	DD	0c4aH
_volmd	DD	0ffffffffH
	DDSymXIndex: 	FLAT:s390_perform_io_interrupt
	DD	016H
	DD	0aebH
_volmd	DD	0ffffffffH
	DDSymXIndex: 	FLAT:s370_run_cpu
	DD	01cH
	DD	0a50H
_volmd	DD	0ffffffffH
	DDSymXIndex: 	FLAT:s370_process_interrupt
	DD	016H
	DD	09dbH
_volmd	DD	0ffffffffH
	DDSymXIndex: 	FLAT:z900_program_interrupt
	DD	01cH
	DD	028aaH
_volmd	DD	0ffffffffH
	DDSymXIndex: 	FLAT:s390_program_interrupt
	DD	01cH
	DD	0247eH
_volmd	DD	0ffffffffH
	DDSymXIndex: 	FLAT:s370_program_interrupt
	DD	01cH
	DD	01e86H
_volmd	DD	0ffffffffH
	DDSymXIndex: 	FLAT:str_arch_psw
	DD	030H
	DD	02fdH
_volmd	DD	0ffffffffH
	DDSymXIndex: 	FLAT:copy_psw
	DD	030H
	DD	0f8H
_volmd	DD	0ffffffffH
	DDSymXIndex: 	FLAT:cpu_thread
	DD	016H
	DD	03f1H
_volmd	DD	0ffffffffH
	DDSymXIndex: 	FLAT:s370_trace_program_interrupt
	DD	020H
	DD	0bf2H
_volmd	DD	0ffffffffH
	DDSymXIndex: 	FLAT:s370_perform_io_interrupt
	DD	01cH
	DD	0c88H
_volmd	DD	0ffffffffH
	DDSymXIndex: 	FLAT:cpu_init
	DD	01dH
	DD	05c0H
_volmd	DD	0ffffffffH
	DDSymXIndex: 	FLAT:z900_load_psw
	DD	01bH
	DD	0ef6H
_volmd	DD	0ffffffffH
	DDSymXIndex: 	FLAT:s390_load_psw
	DD	01bH
	DD	0e31H
_volmd	DD	0ffffffffH
	DDSymXIndex: 	FLAT:s370_load_psw
	DD	01bH
	DD	0119bH
_volmd	DD	0ffffffffH
	DDSymXIndex: 	FLAT:host_tod
	DD	0eH
	DD	097H
voltbl	ENDS
xdata	SEGMENT
$unwind$host_tod DD 011319H
	DD	0a204H
	DD	imagerel __GSHandlerCheck
	DD	040H
$unwind$s370_store_psw DD 010e01H
	DD	0420eH
$unwind$s370_load_psw DD 022319H
	DD	0210111H
	DD	imagerel __GSHandlerCheck
	DD	0f8H
$unwind$s370_process_trace DD 020f01H
	DD	0700b920fH
$unwind$s390_load_psw DD 022319H
	DD	01d0111H
	DD	imagerel __GSHandlerCheck
	DD	0d8H
$unwind$s390_store_psw DD 010e01H
	DD	0420eH
$unwind$s390_process_trace DD 020f01H
	DD	0700b920fH
$unwind$z900_load_psw DD 022319H
	DD	01f0111H
	DD	imagerel __GSHandlerCheck
	DD	0e8H
$unwind$z900_store_psw DD 010e01H
	DD	0420eH
$unwind$z900_process_trace DD 020f01H
	DD	0700b920fH
$unwind$cpu_init DD 022219H
	DD	0700fb213H
	DD	imagerel __GSHandlerCheck
	DD	058H
$unwind$s370_perform_io_interrupt DD 072419H
	DD	0240112H
	DD	07009e00bH
	DD	050076008H
	DD	03006H
	DD	imagerel __GSHandlerCheck
	DD	0110H
$unwind$s370_checkstop_all_cpus DD 010901H
	DD	06209H
$unwind$make_psw64 DD 011201H
	DD	06212H
$unwind$s370_SuccessfulBranch DD 010d01H
	DD	0a20dH
$unwind$s370_SuccessfulRelativeBranch DD 010e01H
	DD	0a20eH
$unwind$s370_fix_program_interrupt_PSW DD 010901H
	DD	0e209H
$unwind$s370_trace_program_interrupt DD 032819H
	DD	0420116H
	DD	0700fH
	DD	imagerel __GSHandlerCheck
	DD	0200H
$unwind$cpu_thread DD 021e19H
	DD	015010cH
	DD	imagerel __GSHandlerCheck
	DD	098H
$unwind$copy_psw DD 053719H
	DD	02c36011aH
	DD	0600c700dH
	DD	0500bH
	DD	imagerel __GSHandlerCheck
	DD	016104H
	DD	0a0H
	DD	080H
$unwind$display_psw DD 011301H
	DD	06213H
$unwind$str_psw DD 011301H
	DD	04213H
$unwind$str_arch_psw DD 0a3819H
	DD	0190126H
	DD	0e01df01fH
	DD	0c019d01bH
	DD	060167017H
	DD	030145015H
	DD	imagerel __GSHandlerCheck
	DD	0b8H
$unwind$do_automatic_tracing DD 010401H
	DD	0e204H
$unwind$s370_program_interrupt DD 042419H
	DD	0350112H
	DD	0600a700bH
	DD	imagerel __GSHandlerCheck
	DD	0190H
$unwind$s390_program_interrupt DD 042419H
	DD	03b0112H
	DD	0600a700bH
	DD	imagerel __GSHandlerCheck
	DD	01c0H
$unwind$z900_program_interrupt DD 042419H
	DD	03f0112H
	DD	0600a700bH
	DD	imagerel __GSHandlerCheck
	DD	01e0H
$unwind$wakeup_cpu DD 010e01H
	DD	0420eH
$unwind$wakeup_cpu_mask DD 010e01H
	DD	0a20eH
$unwind$wakeup_cpus_mask DD 010e01H
	DD	0620eH
$unwind$Interrupt_Lock_Obtained DD 010e01H
	DD	0420eH
$unwind$Obtain_Interrupt_Lock DD 010e01H
	DD	0420eH
$unwind$Release_Interrupt_Lock DD 010e01H
	DD	0420eH
$unwind$CPU_Wait DD 010901H
	DD	04209H
$unwind$cpu_uninit DD 010d01H
	DD	0a20dH
$unwind$s370_restart_interrupt DD 010901H
	DD	0a209H
$unwind$s370_perform_mck_interrupt DD 020d01H
	DD	07006f20dH
$unwind$s370_process_interrupt DD 021e19H
	DD	019010cH
	DD	imagerel __GSHandlerCheck
	DD	0b0H
$unwind$s370_run_cpu DD 042419H
	DD	0230112H
	DD	0600a700bH
	DD	imagerel __GSHandlerCheck
	DD	0100H
$unwind$s390_perform_io_interrupt DD 021e19H
	DD	019010cH
	DD	imagerel __GSHandlerCheck
	DD	0b0H
$unwind$s390_checkstop_all_cpus DD 010901H
	DD	06209H
$unwind$s390_SuccessfulBranch DD 010d01H
	DD	0c20dH
$unwind$s390_SuccessfulRelativeBranch DD 010e01H
	DD	0c20eH
$unwind$s390_fix_program_interrupt_PSW DD 010901H
	DD	0e209H
$unwind$s390_trace_program_interrupt DD 032819H
	DD	0420116H
	DD	0700fH
	DD	imagerel __GSHandlerCheck
	DD	0200H
$unwind$s390_restart_interrupt DD 010901H
	DD	0a209H
$unwind$s390_perform_mck_interrupt DD 020d01H
	DD	07006f20dH
$unwind$s390_process_interrupt DD 021e19H
	DD	019010cH
	DD	imagerel __GSHandlerCheck
	DD	0b0H
$unwind$s390_run_cpu DD 042419H
	DD	0230112H
	DD	0600a700bH
	DD	imagerel __GSHandlerCheck
	DD	0100H
$unwind$z900_perform_io_interrupt DD 021e19H
	DD	019010cH
	DD	imagerel __GSHandlerCheck
	DD	0b0H
$unwind$z900_checkstop_all_cpus DD 010901H
	DD	06209H
$unwind$z900_Set_BEAR_Reg DD 011301H
	DD	0a213H
$unwind$z900_SuccessfulBranch DD 010e01H
	DD	0c20eH
$unwind$z900_SuccessfulRelativeBranch DD 010e01H
	DD	0c20eH
$unwind$z900_fix_program_interrupt_PSW DD 010901H
	DD	0e209H
$unwind$z900_trace_program_interrupt DD 032819H
	DD	0420116H
	DD	0700fH
	DD	imagerel __GSHandlerCheck
	DD	0200H
$unwind$z900_restart_interrupt DD 010901H
	DD	0a209H
$unwind$z900_perform_mck_interrupt DD 020c01H
	DD	011010cH
$unwind$z900_process_interrupt DD 021e19H
	DD	019010cH
	DD	imagerel __GSHandlerCheck
	DD	0b0H
$unwind$z900_run_cpu DD 042419H
	DD	0290112H
	DD	0600a700bH
	DD	imagerel __GSHandlerCheck
	DD	0130H
xdata	ENDS
; Function compile flags: /Odtp
; File C:\papa\MyGit\hyperion-zvector\cpu.c
_TEXT	SEGMENT
regs$ = 96
i$ = 104
ip$ = 112
current_opcode_table$ = 120
tv222 = 128
tv371 = 132
tv489 = 136
tv613 = 140
aswitch$ = 144
tv392 = 148
tv510 = 152
tv634 = 156
tv79 = 160
tv377 = 168
tv495 = 176
tv619 = 184
tv145 = 192
tv153 = 200
tv184 = 208
tv192 = 216
tv275 = 224
tv296 = 232
tv394 = 240
tv512 = 248
tv636 = 256
buf$1 = 264
__$ArrayPad$ = 304
cpu$ = 352
oldregs$ = 360
z900_run_cpu PROC

; 1905 : {

$LN166:
  00000	48 89 54 24 10	 mov	 QWORD PTR [rsp+16], rdx
  00005	89 4c 24 08	 mov	 DWORD PTR [rsp+8], ecx
  00009	56		 push	 rsi
  0000a	57		 push	 rdi
  0000b	48 81 ec 48 01
	00 00		 sub	 rsp, 328		; 00000148H
  00012	48 8b 05 00 00
	00 00		 mov	 rax, QWORD PTR __security_cookie
  00019	48 33 c4	 xor	 rax, rsp
  0001c	48 89 84 24 30
	01 00 00	 mov	 QWORD PTR __$ArrayPad$[rsp], rax

; 1906 : const INSTR_FUNC   *current_opcode_table;
; 1907 : register REGS   *regs;
; 1908 : BYTE   *ip;
; 1909 : int     i = 0;

  00024	c7 44 24 68 00
	00 00 00	 mov	 DWORD PTR i$[rsp], 0

; 1910 : int     aswitch;
; 1911 : 
; 1912 :     /* Assign new regs if not already assigned */
; 1913 :     regs = sysblk.regs[cpu] ?

  0002c	48 63 84 24 60
	01 00 00	 movsxd	 rax, DWORD PTR cpu$[rsp]
  00034	48 8b 0d 00 00
	00 00		 mov	 rcx, QWORD PTR __imp_sysblk
  0003b	48 83 bc c1 98
	0b 00 00 00	 cmp	 QWORD PTR [rcx+rax*8+2968], 0
  00044	74 21		 je	 SHORT $LN136@z900_run_c
  00046	48 63 84 24 60
	01 00 00	 movsxd	 rax, DWORD PTR cpu$[rsp]
  0004e	48 8b 0d 00 00
	00 00		 mov	 rcx, QWORD PTR __imp_sysblk
  00055	48 8b 84 c1 98
	0b 00 00	 mov	 rax, QWORD PTR [rcx+rax*8+2968]
  0005d	48 89 84 24 a0
	00 00 00	 mov	 QWORD PTR tv79[rsp], rax
  00065	eb 18		 jmp	 SHORT $LN137@z900_run_c
$LN136@z900_run_c:
  00067	ba 00 10 00 00	 mov	 edx, 4096		; 00001000H
  0006c	b9 00 70 01 00	 mov	 ecx, 94208		; 00017000H
  00071	ff 15 00 00 00
	00		 call	 QWORD PTR __imp__aligned_malloc
  00077	48 89 84 24 a0
	00 00 00	 mov	 QWORD PTR tv79[rsp], rax
$LN137@z900_run_c:
  0007f	48 8b 84 24 a0
	00 00 00	 mov	 rax, QWORD PTR tv79[rsp]
  00087	48 89 44 24 60	 mov	 QWORD PTR regs$[rsp], rax

; 1914 :            sysblk.regs[cpu] :
; 1915 :            malloc_aligned( ROUND_UP( sizeof( REGS ), _4K ), _4K );
; 1916 : 
; 1917 :     if (oldregs)

  0008c	48 83 bc 24 68
	01 00 00 00	 cmp	 QWORD PTR oldregs$[rsp], 0
  00095	0f 84 b6 01 00
	00		 je	 $LN86@z900_run_c

; 1918 :     {
; 1919 :         if (oldregs != regs)

  0009b	48 8b 44 24 60	 mov	 rax, QWORD PTR regs$[rsp]
  000a0	48 39 84 24 68
	01 00 00	 cmp	 QWORD PTR oldregs$[rsp], rax
  000a8	0f 84 9e 01 00
	00		 je	 $LN88@z900_run_c

; 1920 :         {
; 1921 :             TXF_FREEMAP( oldregs );

  000ae	48 8b 8c 24 68
	01 00 00	 mov	 rcx, QWORD PTR oldregs$[rsp]
  000b6	e8 00 00 00 00	 call	 free_txfmap

; 1922 :             memcpy (regs, oldregs, sizeof(REGS));

  000bb	48 8b 7c 24 60	 mov	 rdi, QWORD PTR regs$[rsp]
  000c0	48 8b b4 24 68
	01 00 00	 mov	 rsi, QWORD PTR oldregs$[rsp]
  000c8	b9 80 60 01 00	 mov	 ecx, 90240		; 00016080H
  000cd	f3 a4		 rep movsb

; 1923 :             free_aligned(oldregs);

  000cf	48 8b 8c 24 68
	01 00 00	 mov	 rcx, QWORD PTR oldregs$[rsp]
  000d7	ff 15 00 00 00
	00		 call	 QWORD PTR __imp__aligned_free

; 1924 :             regs->blkloc = CSWAP64((U64)((uintptr_t)regs));

  000dd	48 8b 4c 24 60	 mov	 rcx, QWORD PTR regs$[rsp]
  000e2	e8 00 00 00 00	 call	 _byteswap_uint64
  000e7	48 8b 4c 24 60	 mov	 rcx, QWORD PTR regs$[rsp]
  000ec	48 89 41 20	 mov	 QWORD PTR [rcx+32], rax

; 1925 :             HOSTREGS = regs;

  000f0	48 8b 44 24 60	 mov	 rax, QWORD PTR regs$[rsp]
  000f5	48 8b 4c 24 60	 mov	 rcx, QWORD PTR regs$[rsp]
  000fa	48 89 88 68 08
	00 00		 mov	 QWORD PTR [rax+2152], rcx

; 1926 :             if (GUESTREGS)

  00101	48 8b 44 24 60	 mov	 rax, QWORD PTR regs$[rsp]
  00106	48 83 b8 70 08
	00 00 00	 cmp	 QWORD PTR [rax+2160], 0
  0010e	74 18		 je	 SHORT $LN89@z900_run_c

; 1927 :                 HOST(GUESTREGS) = regs;

  00110	48 8b 44 24 60	 mov	 rax, QWORD PTR regs$[rsp]
  00115	48 8b 80 70 08
	00 00		 mov	 rax, QWORD PTR [rax+2160]
  0011c	48 8b 4c 24 60	 mov	 rcx, QWORD PTR regs$[rsp]
  00121	48 89 88 68 08
	00 00		 mov	 QWORD PTR [rax+2152], rcx
$LN89@z900_run_c:

; 1928 :             sysblk.regs[cpu] = regs;

  00128	48 63 84 24 60
	01 00 00	 movsxd	 rax, DWORD PTR cpu$[rsp]
  00130	48 8b 0d 00 00
	00 00		 mov	 rcx, QWORD PTR __imp_sysblk
  00137	48 8b 54 24 60	 mov	 rdx, QWORD PTR regs$[rsp]
  0013c	48 89 94 c1 98
	0b 00 00	 mov	 QWORD PTR [rcx+rax*8+2968], rdx

; 1929 :             release_lock(&sysblk.cpulock[cpu]);

  00144	48 63 84 24 60
	01 00 00	 movsxd	 rax, DWORD PTR cpu$[rsp]
  0014c	48 8b 0d 00 00
	00 00		 mov	 rcx, QWORD PTR __imp_sysblk
  00153	48 8d 84 c1 48
	01 00 00	 lea	 rax, QWORD PTR [rcx+rax*8+328]
  0015b	48 8d 15 00 00
	00 00		 lea	 rdx, OFFSET FLAT:$SG196738
  00162	48 8b c8	 mov	 rcx, rax
  00165	ff 15 00 00 00
	00		 call	 QWORD PTR __imp_hthread_release_lock

; 1930 :             if (regs->insttrace && sysblk.traceFILE)

  0016b	48 8b 44 24 60	 mov	 rax, QWORD PTR regs$[rsp]
  00170	8b 80 28 07 00
	00		 mov	 eax, DWORD PTR [rax+1832]
  00176	c1 e8 0f	 shr	 eax, 15
  00179	83 e0 01	 and	 eax, 1
  0017c	85 c0		 test	 eax, eax
  0017e	74 29		 je	 SHORT $LN90@z900_run_c
  00180	48 8b 05 00 00
	00 00		 mov	 rax, QWORD PTR __imp_sysblk
  00187	48 83 b8 20 14
	00 00 00	 cmp	 QWORD PTR [rax+5152], 0
  0018f	74 18		 je	 SHORT $LN90@z900_run_c

; 1931 :                 tf_0811( regs, get_arch_name( regs ));

  00191	48 8b 4c 24 60	 mov	 rcx, QWORD PTR regs$[rsp]
  00196	e8 00 00 00 00	 call	 get_arch_name
  0019b	48 8b d0	 mov	 rdx, rax
  0019e	48 8b 4c 24 60	 mov	 rcx, QWORD PTR regs$[rsp]
  001a3	ff 15 00 00 00
	00		 call	 QWORD PTR __imp_tf_0811
$LN90@z900_run_c:

; 1932 :             // "Processor %s%02X: architecture mode %s"
; 1933 :             WRMSG( HHC00811, "I", PTYPSTR( cpu ), cpu, get_arch_name( regs ));

  001a9	48 8b 4c 24 60	 mov	 rcx, QWORD PTR regs$[rsp]
  001ae	e8 00 00 00 00	 call	 get_arch_name
  001b3	48 89 84 24 c0
	00 00 00	 mov	 QWORD PTR tv145[rsp], rax
  001bb	48 63 8c 24 60
	01 00 00	 movsxd	 rcx, DWORD PTR cpu$[rsp]
  001c3	48 8b 15 00 00
	00 00		 mov	 rdx, QWORD PTR __imp_sysblk
  001ca	0f b6 8c 0a 48
	0b 00 00	 movzx	 ecx, BYTE PTR [rdx+rcx+2888]
  001d2	ff 15 00 00 00
	00		 call	 QWORD PTR __imp_ptyp2short
  001d8	48 89 84 24 c8
	00 00 00	 mov	 QWORD PTR tv153[rsp], rax
  001e0	b9 01 00 00 00	 mov	 ecx, 1
  001e5	ff 15 00 00 00
	00		 call	 QWORD PTR __imp___acrt_iob_func
  001eb	48 8b 8c 24 c0
	00 00 00	 mov	 rcx, QWORD PTR tv145[rsp]
  001f3	48 89 4c 24 48	 mov	 QWORD PTR [rsp+72], rcx
  001f8	8b 8c 24 60 01
	00 00		 mov	 ecx, DWORD PTR cpu$[rsp]
  001ff	89 4c 24 40	 mov	 DWORD PTR [rsp+64], ecx
  00203	48 8b 8c 24 c8
	00 00 00	 mov	 rcx, QWORD PTR tv153[rsp]
  0020b	48 89 4c 24 38	 mov	 QWORD PTR [rsp+56], rcx
  00210	48 8d 0d 00 00
	00 00		 lea	 rcx, OFFSET FLAT:$SG196740
  00217	48 89 4c 24 30	 mov	 QWORD PTR [rsp+48], rcx
  0021c	48 8d 0d 00 00
	00 00		 lea	 rcx, OFFSET FLAT:$SG196741
  00223	48 89 4c 24 28	 mov	 QWORD PTR [rsp+40], rcx
  00228	48 89 44 24 20	 mov	 QWORD PTR [rsp+32], rax
  0022d	41 b9 03 00 00
	00		 mov	 r9d, 3
  00233	4c 8d 05 00 00
	00 00		 lea	 r8, OFFSET FLAT:$SG196742
  0023a	ba 8d 07 00 00	 mov	 edx, 1933		; 0000078dH
  0023f	48 8d 0d 00 00
	00 00		 lea	 rcx, OFFSET FLAT:$SG196743
  00246	ff 15 00 00 00
	00		 call	 QWORD PTR __imp_fwritemsg
$LN88@z900_run_c:

; 1934 :         }
; 1935 :     }

  0024c	e9 0e 01 00 00	 jmp	 $LN87@z900_run_c
$LN86@z900_run_c:

; 1936 :     else
; 1937 :     {
; 1938 :         memset(regs, 0, sizeof(REGS));

  00251	48 8b 7c 24 60	 mov	 rdi, QWORD PTR regs$[rsp]
  00256	33 c0		 xor	 eax, eax
  00258	b9 80 60 01 00	 mov	 ecx, 90240		; 00016080H
  0025d	f3 aa		 rep stosb

; 1939 :         
; 1940 :                 if (cpu_init( cpu, regs, NULL ))

  0025f	45 33 c0	 xor	 r8d, r8d
  00262	48 8b 54 24 60	 mov	 rdx, QWORD PTR regs$[rsp]
  00267	8b 8c 24 60 01
	00 00		 mov	 ecx, DWORD PTR cpu$[rsp]
  0026e	e8 00 00 00 00	 call	 cpu_init
  00273	85 c0		 test	 eax, eax
  00275	74 07		 je	 SHORT $LN91@z900_run_c

; 1941 :             return NULL;

  00277	33 c0		 xor	 eax, eax
  00279	e9 ad 13 00 00	 jmp	 $LN1@z900_run_c
$LN91@z900_run_c:

; 1942 : 
; 1943 :         if (regs->insttrace && sysblk.traceFILE)

  0027e	48 8b 44 24 60	 mov	 rax, QWORD PTR regs$[rsp]
  00283	8b 80 28 07 00
	00		 mov	 eax, DWORD PTR [rax+1832]
  00289	c1 e8 0f	 shr	 eax, 15
  0028c	83 e0 01	 and	 eax, 1
  0028f	85 c0		 test	 eax, eax
  00291	74 29		 je	 SHORT $LN92@z900_run_c
  00293	48 8b 05 00 00
	00 00		 mov	 rax, QWORD PTR __imp_sysblk
  0029a	48 83 b8 20 14
	00 00 00	 cmp	 QWORD PTR [rax+5152], 0
  002a2	74 18		 je	 SHORT $LN92@z900_run_c

; 1944 :             tf_0811( regs, get_arch_name( regs ));

  002a4	48 8b 4c 24 60	 mov	 rcx, QWORD PTR regs$[rsp]
  002a9	e8 00 00 00 00	 call	 get_arch_name
  002ae	48 8b d0	 mov	 rdx, rax
  002b1	48 8b 4c 24 60	 mov	 rcx, QWORD PTR regs$[rsp]
  002b6	ff 15 00 00 00
	00		 call	 QWORD PTR __imp_tf_0811
$LN92@z900_run_c:

; 1945 : 
; 1946 :         // "Processor %s%02X: architecture mode %s"
; 1947 :         WRMSG( HHC00811, "I", PTYPSTR( cpu ), cpu, get_arch_name( regs ));

  002bc	48 8b 4c 24 60	 mov	 rcx, QWORD PTR regs$[rsp]
  002c1	e8 00 00 00 00	 call	 get_arch_name
  002c6	48 89 84 24 d0
	00 00 00	 mov	 QWORD PTR tv184[rsp], rax
  002ce	48 63 8c 24 60
	01 00 00	 movsxd	 rcx, DWORD PTR cpu$[rsp]
  002d6	48 8b 15 00 00
	00 00		 mov	 rdx, QWORD PTR __imp_sysblk
  002dd	0f b6 8c 0a 48
	0b 00 00	 movzx	 ecx, BYTE PTR [rdx+rcx+2888]
  002e5	ff 15 00 00 00
	00		 call	 QWORD PTR __imp_ptyp2short
  002eb	48 89 84 24 d8
	00 00 00	 mov	 QWORD PTR tv192[rsp], rax
  002f3	b9 01 00 00 00	 mov	 ecx, 1
  002f8	ff 15 00 00 00
	00		 call	 QWORD PTR __imp___acrt_iob_func
  002fe	48 8b 8c 24 d0
	00 00 00	 mov	 rcx, QWORD PTR tv184[rsp]
  00306	48 89 4c 24 48	 mov	 QWORD PTR [rsp+72], rcx
  0030b	8b 8c 24 60 01
	00 00		 mov	 ecx, DWORD PTR cpu$[rsp]
  00312	89 4c 24 40	 mov	 DWORD PTR [rsp+64], ecx
  00316	48 8b 8c 24 d8
	00 00 00	 mov	 rcx, QWORD PTR tv192[rsp]
  0031e	48 89 4c 24 38	 mov	 QWORD PTR [rsp+56], rcx
  00323	48 8d 0d 00 00
	00 00		 lea	 rcx, OFFSET FLAT:$SG196746
  0032a	48 89 4c 24 30	 mov	 QWORD PTR [rsp+48], rcx
  0032f	48 8d 0d 00 00
	00 00		 lea	 rcx, OFFSET FLAT:$SG196747
  00336	48 89 4c 24 28	 mov	 QWORD PTR [rsp+40], rcx
  0033b	48 89 44 24 20	 mov	 QWORD PTR [rsp+32], rax
  00340	41 b9 03 00 00
	00		 mov	 r9d, 3
  00346	4c 8d 05 00 00
	00 00		 lea	 r8, OFFSET FLAT:$SG196748
  0034d	ba 9b 07 00 00	 mov	 edx, 1947		; 0000079bH
  00352	48 8d 0d 00 00
	00 00		 lea	 rcx, OFFSET FLAT:$SG196749
  00359	ff 15 00 00 00
	00		 call	 QWORD PTR __imp_fwritemsg
$LN87@z900_run_c:

; 1948 : 
; 1949 : #if defined( FEATURE_S370_S390_VECTOR_FACILITY )
; 1950 :         if (regs->vf->online)
; 1951 :         {
; 1952 :             if (regs->insttrace && sysblk.traceFILE)
; 1953 :                 tf_0812( regs, get_arch_name( regs ));
; 1954 : 
; 1955 :             // "Processor %s%02X: vector facility online"
; 1956 :             WRMSG( HHC00812, "I", PTYPSTR( cpu ), cpu );
; 1957 :         }
; 1958 : #endif
; 1959 :     }
; 1960 : 
; 1961 :     regs->program_interrupt = &ARCH_DEP(program_interrupt);

  0035f	48 8b 44 24 60	 mov	 rax, QWORD PTR regs$[rsp]
  00364	48 8d 0d 00 00
	00 00		 lea	 rcx, OFFSET FLAT:z900_program_interrupt
  0036b	48 89 88 20 0d
	00 00		 mov	 QWORD PTR [rax+3360], rcx

; 1962 : 
; 1963 :     regs->breakortrace = (sysblk.instbreak || (sysblk.insttrace && regs->insttrace));

  00372	48 8b 05 00 00
	00 00		 mov	 rax, QWORD PTR __imp_sysblk
  00379	8b 80 94 12 00
	00		 mov	 eax, DWORD PTR [rax+4756]
  0037f	c1 e8 0a	 shr	 eax, 10
  00382	83 e0 01	 and	 eax, 1
  00385	85 c0		 test	 eax, eax
  00387	75 39		 jne	 SHORT $LN139@z900_run_c
  00389	48 8b 05 00 00
	00 00		 mov	 rax, QWORD PTR __imp_sysblk
  00390	8b 80 94 12 00
	00		 mov	 eax, DWORD PTR [rax+4756]
  00396	c1 e8 08	 shr	 eax, 8
  00399	83 e0 01	 and	 eax, 1
  0039c	85 c0		 test	 eax, eax
  0039e	74 15		 je	 SHORT $LN138@z900_run_c
  003a0	48 8b 44 24 60	 mov	 rax, QWORD PTR regs$[rsp]
  003a5	8b 80 28 07 00
	00		 mov	 eax, DWORD PTR [rax+1832]
  003ab	c1 e8 0f	 shr	 eax, 15
  003ae	83 e0 01	 and	 eax, 1
  003b1	85 c0		 test	 eax, eax
  003b3	75 0d		 jne	 SHORT $LN139@z900_run_c
$LN138@z900_run_c:
  003b5	c7 84 24 80 00
	00 00 00 00 00
	00		 mov	 DWORD PTR tv222[rsp], 0
  003c0	eb 0b		 jmp	 SHORT $LN140@z900_run_c
$LN139@z900_run_c:
  003c2	c7 84 24 80 00
	00 00 01 00 00
	00		 mov	 DWORD PTR tv222[rsp], 1
$LN140@z900_run_c:
  003cd	8b 84 24 80 00
	00 00		 mov	 eax, DWORD PTR tv222[rsp]
  003d4	83 e0 01	 and	 eax, 1
  003d7	c1 e0 10	 shl	 eax, 16
  003da	48 8b 4c 24 60	 mov	 rcx, QWORD PTR regs$[rsp]
  003df	8b 89 28 07 00
	00		 mov	 ecx, DWORD PTR [rcx+1832]
  003e5	0f ba f1 10	 btr	 ecx, 16
  003e9	0b c8		 or	 ecx, eax
  003eb	8b c1		 mov	 eax, ecx
  003ed	48 8b 4c 24 60	 mov	 rcx, QWORD PTR regs$[rsp]
  003f2	89 81 28 07 00
	00		 mov	 DWORD PTR [rcx+1832], eax

; 1964 :     regs->ints_state |= sysblk.ints_state;

  003f8	48 8b 44 24 60	 mov	 rax, QWORD PTR regs$[rsp]
  003fd	48 8b 0d 00 00
	00 00		 mov	 rcx, QWORD PTR __imp_sysblk
  00404	8b 89 a0 12 00
	00		 mov	 ecx, DWORD PTR [rcx+4768]
  0040a	8b 40 48	 mov	 eax, DWORD PTR [rax+72]
  0040d	0b c1		 or	 eax, ecx
  0040f	48 8b 4c 24 60	 mov	 rcx, QWORD PTR regs$[rsp]
  00414	89 41 48	 mov	 DWORD PTR [rcx+72], eax

; 1965 : 
; 1966 :     /* Establish longjmp destination for cpu thread exit */
; 1967 :     if (setjmp(regs->exitjmp))

  00417	48 8b 44 24 60	 mov	 rax, QWORD PTR regs$[rsp]
  0041c	48 05 80 0b 00
	00		 add	 rax, 2944		; 00000b80H
  00422	48 8b c8	 mov	 rcx, rax
  00425	48 8b d4	 mov	 rdx, rsp
  00428	e8 00 00 00 00	 call	 _setjmp
  0042d	85 c0		 test	 eax, eax
  0042f	74 16		 je	 SHORT $LN93@z900_run_c

; 1968 :         return cpu_uninit(cpu, regs);

  00431	48 8b 54 24 60	 mov	 rdx, QWORD PTR regs$[rsp]
  00436	8b 8c 24 60 01
	00 00		 mov	 ecx, DWORD PTR cpu$[rsp]
  0043d	e8 00 00 00 00	 call	 cpu_uninit
  00442	e9 e4 11 00 00	 jmp	 $LN1@z900_run_c
$LN93@z900_run_c:

; 1969 : 
; 1970 :     /* Establish longjmp destination for architecture switch */
; 1971 :     aswitch = setjmp(regs->archjmp);

  00447	48 8b 44 24 60	 mov	 rax, QWORD PTR regs$[rsp]
  0044c	48 05 80 0a 00
	00		 add	 rax, 2688		; 00000a80H
  00452	48 8b c8	 mov	 rcx, rax
  00455	48 8b d4	 mov	 rdx, rsp
  00458	e8 00 00 00 00	 call	 _setjmp
  0045d	89 84 24 90 00
	00 00		 mov	 DWORD PTR aswitch$[rsp], eax

; 1972 : 
; 1973 :     /* Switch architecture mode if appropriate */
; 1974 :     if(sysblk.arch_mode != regs->arch_mode)

  00464	48 8b 05 00 00
	00 00		 mov	 rax, QWORD PTR __imp_sysblk
  0046b	48 8b 4c 24 60	 mov	 rcx, QWORD PTR regs$[rsp]
  00470	8b 49 64	 mov	 ecx, DWORD PTR [rcx+100]
  00473	39 88 88 00 00
	00		 cmp	 DWORD PTR [rax+136], ecx
  00479	0f 84 fb 01 00
	00		 je	 $LN94@z900_run_c
$LN4@z900_run_c:

; 1975 :     {
; 1976 :         PTT_INF("*SETARCH",regs->arch_mode,sysblk.arch_mode,cpu);

  0047f	48 8b 05 00 00
	00 00		 mov	 rax, QWORD PTR __imp_pttclass
  00486	48 8b 00	 mov	 rax, QWORD PTR [rax]
  00489	48 83 e0 08	 and	 rax, 8
  0048d	48 85 c0	 test	 rax, rax
  00490	74 51		 je	 SHORT $LN95@z900_run_c
  00492	48 63 84 24 60
	01 00 00	 movsxd	 rax, DWORD PTR cpu$[rsp]
  0049a	48 8b 0d 00 00
	00 00		 mov	 rcx, QWORD PTR __imp_sysblk
  004a1	48 63 89 88 00
	00 00		 movsxd	 rcx, DWORD PTR [rcx+136]
  004a8	48 8b 54 24 60	 mov	 rdx, QWORD PTR regs$[rsp]
  004ad	48 63 52 64	 movsxd	 rdx, DWORD PTR [rdx+100]
  004b1	48 c7 44 24 30
	00 00 00 00	 mov	 QWORD PTR [rsp+48], 0
  004ba	48 89 44 24 28	 mov	 QWORD PTR [rsp+40], rax
  004bf	48 8d 05 00 00
	00 00		 lea	 rax, OFFSET FLAT:$SG196753
  004c6	48 89 44 24 20	 mov	 QWORD PTR [rsp+32], rax
  004cb	4c 8b c9	 mov	 r9, rcx
  004ce	4c 8b c2	 mov	 r8, rdx
  004d1	48 8d 15 00 00
	00 00		 lea	 rdx, OFFSET FLAT:$SG196754
  004d8	b9 08 00 00 00	 mov	 ecx, 8
  004dd	ff 15 00 00 00
	00		 call	 QWORD PTR __imp_ptt_pthread_trace
$LN95@z900_run_c:
  004e3	33 c0		 xor	 eax, eax
  004e5	85 c0		 test	 eax, eax
  004e7	75 96		 jne	 SHORT $LN4@z900_run_c

; 1977 :         regs->arch_mode = sysblk.arch_mode;

  004e9	48 8b 44 24 60	 mov	 rax, QWORD PTR regs$[rsp]
  004ee	48 8b 0d 00 00
	00 00		 mov	 rcx, QWORD PTR __imp_sysblk
  004f5	8b 89 88 00 00
	00		 mov	 ecx, DWORD PTR [rcx+136]
  004fb	89 48 64	 mov	 DWORD PTR [rax+100], ecx

; 1978 : 
; 1979 :         /* Ensure CPU ID is accurate in case archmode changed */
; 1980 :         setCpuIdregs( regs, -1, -1, -1, -1, true );

  004fe	c6 44 24 28 01	 mov	 BYTE PTR [rsp+40], 1
  00503	c7 44 24 20 ff
	ff ff ff	 mov	 DWORD PTR [rsp+32], -1
  0050b	41 b9 ff ff ff
	ff		 mov	 r9d, -1
  00511	66 41 b8 ff ff	 mov	 r8w, -1
  00516	ba ff ff ff ff	 mov	 edx, -1
  0051b	48 8b 4c 24 60	 mov	 rcx, QWORD PTR regs$[rsp]
  00520	e8 00 00 00 00	 call	 setCpuIdregs

; 1981 : 
; 1982 :         oldregs = malloc_aligned(sizeof(REGS), 4096);

  00525	ba 00 10 00 00	 mov	 edx, 4096		; 00001000H
  0052a	b9 80 60 01 00	 mov	 ecx, 90240		; 00016080H
  0052f	ff 15 00 00 00
	00		 call	 QWORD PTR __imp__aligned_malloc
  00535	48 89 84 24 68
	01 00 00	 mov	 QWORD PTR oldregs$[rsp], rax

; 1983 :         if (oldregs)

  0053d	48 83 bc 24 68
	01 00 00 00	 cmp	 QWORD PTR oldregs$[rsp], 0
  00546	74 40		 je	 SHORT $LN96@z900_run_c

; 1984 :         {
; 1985 :             memcpy(oldregs, regs, sizeof(REGS));

  00548	48 8b bc 24 68
	01 00 00	 mov	 rdi, QWORD PTR oldregs$[rsp]
  00550	48 8b 74 24 60	 mov	 rsi, QWORD PTR regs$[rsp]
  00555	b9 80 60 01 00	 mov	 ecx, 90240		; 00016080H
  0055a	f3 a4		 rep movsb

; 1986 :             obtain_lock(&sysblk.cpulock[cpu]);

  0055c	48 63 84 24 60
	01 00 00	 movsxd	 rax, DWORD PTR cpu$[rsp]
  00564	48 8b 0d 00 00
	00 00		 mov	 rcx, QWORD PTR __imp_sysblk
  0056b	48 8d 84 c1 48
	01 00 00	 lea	 rax, QWORD PTR [rcx+rax*8+328]
  00573	48 8d 15 00 00
	00 00		 lea	 rdx, OFFSET FLAT:$SG196757
  0057a	48 8b c8	 mov	 rcx, rax
  0057d	ff 15 00 00 00
	00		 call	 QWORD PTR __imp_hthread_obtain_lock

; 1987 :         }

  00583	e9 e5 00 00 00	 jmp	 $LN97@z900_run_c
$LN96@z900_run_c:

; 1988 :         else
; 1989 :         {
; 1990 :             char buf[40];
; 1991 :             MSGBUF(buf, "malloc(%d)", (int)sizeof(REGS));

  00588	41 b9 80 60 01
	00		 mov	 r9d, 90240		; 00016080H
  0058e	4c 8d 05 00 00
	00 00		 lea	 r8, OFFSET FLAT:$SG196758
  00595	ba 28 00 00 00	 mov	 edx, 40			; 00000028H
  0059a	48 8d 8c 24 08
	01 00 00	 lea	 rcx, QWORD PTR buf$1[rsp]
  005a2	ff 15 00 00 00
	00		 call	 QWORD PTR __imp_w32_snprintf

; 1992 :             // "Processor %s%02X: error in function %s: %s"
; 1993 :             WRMSG (HHC00813, "E", PTYPSTR(cpu), cpu, buf, strerror(errno));

  005a8	ff 15 00 00 00
	00		 call	 QWORD PTR __imp__errno
  005ae	8b 08		 mov	 ecx, DWORD PTR [rax]
  005b0	ff 15 00 00 00
	00		 call	 QWORD PTR __imp_w32_strerror
  005b6	48 89 84 24 e0
	00 00 00	 mov	 QWORD PTR tv275[rsp], rax
  005be	48 63 8c 24 60
	01 00 00	 movsxd	 rcx, DWORD PTR cpu$[rsp]
  005c6	48 8b 15 00 00
	00 00		 mov	 rdx, QWORD PTR __imp_sysblk
  005cd	0f b6 8c 0a 48
	0b 00 00	 movzx	 ecx, BYTE PTR [rdx+rcx+2888]
  005d5	ff 15 00 00 00
	00		 call	 QWORD PTR __imp_ptyp2short
  005db	48 89 84 24 e8
	00 00 00	 mov	 QWORD PTR tv296[rsp], rax
  005e3	b9 01 00 00 00	 mov	 ecx, 1
  005e8	ff 15 00 00 00
	00		 call	 QWORD PTR __imp___acrt_iob_func
  005ee	48 8b 8c 24 e0
	00 00 00	 mov	 rcx, QWORD PTR tv275[rsp]
  005f6	48 89 4c 24 50	 mov	 QWORD PTR [rsp+80], rcx
  005fb	48 8d 8c 24 08
	01 00 00	 lea	 rcx, QWORD PTR buf$1[rsp]
  00603	48 89 4c 24 48	 mov	 QWORD PTR [rsp+72], rcx
  00608	8b 8c 24 60 01
	00 00		 mov	 ecx, DWORD PTR cpu$[rsp]
  0060f	89 4c 24 40	 mov	 DWORD PTR [rsp+64], ecx
  00613	48 8b 8c 24 e8
	00 00 00	 mov	 rcx, QWORD PTR tv296[rsp]
  0061b	48 89 4c 24 38	 mov	 QWORD PTR [rsp+56], rcx
  00620	48 8d 0d 00 00
	00 00		 lea	 rcx, OFFSET FLAT:$SG196759
  00627	48 89 4c 24 30	 mov	 QWORD PTR [rsp+48], rcx
  0062c	48 8d 0d 00 00
	00 00		 lea	 rcx, OFFSET FLAT:$SG196760
  00633	48 89 4c 24 28	 mov	 QWORD PTR [rsp+40], rcx
  00638	48 89 44 24 20	 mov	 QWORD PTR [rsp+32], rax
  0063d	41 b9 03 00 00
	00		 mov	 r9d, 3
  00643	4c 8d 05 00 00
	00 00		 lea	 r8, OFFSET FLAT:$SG196761
  0064a	ba c9 07 00 00	 mov	 edx, 1993		; 000007c9H
  0064f	48 8d 0d 00 00
	00 00		 lea	 rcx, OFFSET FLAT:$SG196762
  00656	ff 15 00 00 00
	00		 call	 QWORD PTR __imp_fwritemsg

; 1994 :             cpu_uninit (cpu, regs);

  0065c	48 8b 54 24 60	 mov	 rdx, QWORD PTR regs$[rsp]
  00661	8b 8c 24 60 01
	00 00		 mov	 ecx, DWORD PTR cpu$[rsp]
  00668	e8 00 00 00 00	 call	 cpu_uninit
$LN97@z900_run_c:

; 1995 :         }
; 1996 :         return oldregs;

  0066d	48 8b 84 24 68
	01 00 00	 mov	 rax, QWORD PTR oldregs$[rsp]
  00675	e9 b1 0f 00 00	 jmp	 $LN1@z900_run_c
$LN94@z900_run_c:

; 1997 :     }
; 1998 : 
; 1999 :     /* Initialize Facilities List */
; 2000 :     init_cpu_facilities( regs );

  0067a	48 8b 4c 24 60	 mov	 rcx, QWORD PTR regs$[rsp]
  0067f	e8 00 00 00 00	 call	 init_cpu_facilities

; 2001 : 
; 2002 :     /* Initialize Transactional-Execution Facility */
; 2003 :     TXF_ALLOCMAP( regs );

  00684	48 8b 4c 24 60	 mov	 rcx, QWORD PTR regs$[rsp]
  00689	e8 00 00 00 00	 call	 alloc_txfmap

; 2004 : 
; 2005 :     /* Get pointer to primary opcode table */
; 2006 :     current_opcode_table = regs->ARCH_DEP( runtime_opcode_xxxx );

  0068e	48 8b 44 24 60	 mov	 rax, QWORD PTR regs$[rsp]
  00693	48 8b 80 28 b0
	00 00		 mov	 rax, QWORD PTR [rax+45096]
  0069a	48 89 44 24 78	 mov	 QWORD PTR current_opcode_table$[rsp], rax

; 2007 : 
; 2008 :     /* Signal cpu has started */
; 2009 :     if(!aswitch)

  0069f	83 bc 24 90 00
	00 00 00	 cmp	 DWORD PTR aswitch$[rsp], 0
  006a7	75 1d		 jne	 SHORT $LN98@z900_run_c

; 2010 :         signal_condition (&sysblk.cpucond);

  006a9	48 8b 05 00 00
	00 00		 mov	 rax, QWORD PTR __imp_sysblk
  006b0	48 05 40 01 00
	00		 add	 rax, 320		; 00000140H
  006b6	48 8d 15 00 00
	00 00		 lea	 rdx, OFFSET FLAT:$SG196764
  006bd	48 8b c8	 mov	 rcx, rax
  006c0	ff 15 00 00 00
	00		 call	 QWORD PTR __imp_hthread_signal_condition
$LN98@z900_run_c:

; 2011 : 
; 2012 :     RELEASE_INTLOCK(regs);

  006c6	48 8d 15 00 00
	00 00		 lea	 rdx, OFFSET FLAT:$SG196765
  006cd	48 8b 4c 24 60	 mov	 rcx, QWORD PTR regs$[rsp]
  006d2	e8 00 00 00 00	 call	 Release_Interrupt_Lock

; 2013 : 
; 2014 :     /* Establish longjmp destination for program check or
; 2015 :        RETURN_INTCHECK, or SIE_INTERCEPT, or longjmp, etc.
; 2016 :     */
; 2017 :     if (setjmp( regs->progjmp ) && sysblk.ipled)

  006d7	48 8b 44 24 60	 mov	 rax, QWORD PTR regs$[rsp]
  006dc	48 05 80 09 00
	00		 add	 rax, 2432		; 00000980H
  006e2	48 8b c8	 mov	 rcx, rax
  006e5	48 8b d4	 mov	 rdx, rsp
  006e8	e8 00 00 00 00	 call	 _setjmp
  006ed	85 c0		 test	 eax, eax
  006ef	74 56		 je	 SHORT $LN99@z900_run_c
  006f1	48 8b 05 00 00
	00 00		 mov	 rax, QWORD PTR __imp_sysblk
  006f8	8b 80 94 12 00
	00		 mov	 eax, DWORD PTR [rax+4756]
  006fe	d1 e8		 shr	 eax, 1
  00700	83 e0 01	 and	 eax, 1
  00703	85 c0		 test	 eax, eax
  00705	74 40		 je	 SHORT $LN99@z900_run_c

; 2018 :     {
; 2019 :         /* Our instruction execution loop further below didn't finish
; 2020 :            due to a longjmp(progjmp) having been executed bringing us
; 2021 :            to here, thereby causing the instruction counter to not be
; 2022 :            properly updated. Thus, we need to update it here instead.
; 2023 :        */
; 2024 :         regs->instcount   +=     (i * 2);

  00707	48 8b 44 24 60	 mov	 rax, QWORD PTR regs$[rsp]
  0070c	8b 80 98 07 00
	00		 mov	 eax, DWORD PTR [rax+1944]
  00712	8b 4c 24 68	 mov	 ecx, DWORD PTR i$[rsp]
  00716	8d 04 48	 lea	 eax, DWORD PTR [rax+rcx*2]
  00719	48 8b 4c 24 60	 mov	 rcx, QWORD PTR regs$[rsp]
  0071e	89 81 98 07 00
	00		 mov	 DWORD PTR [rcx+1944], eax

; 2025 :         UPDATE_SYSBLK_INSTCOUNT( (i * 2) );

  00724	8b 44 24 68	 mov	 eax, DWORD PTR i$[rsp]
  00728	03 c0		 add	 eax, eax
  0072a	48 98		 cdqe
  0072c	48 8b 0d 00 00
	00 00		 mov	 rcx, QWORD PTR __imp_sysblk
  00733	48 81 c1 80 14
	00 00		 add	 rcx, 5248		; 00001480H
  0073a	48 8b d0	 mov	 rdx, rax
  0073d	e8 00 00 00 00	 call	 atomic_update64

; 2026 : 
; 2027 :         /* Perform automatic instruction tracing if it's enabled */
; 2028 :         do_automatic_tracing();

  00742	e8 00 00 00 00	 call	 do_automatic_tracing
$LN99@z900_run_c:

; 2029 :     }
; 2030 : 
; 2031 :     /* Set `execflag' to 0 in case EXecuted instruction did a longjmp() */
; 2032 :     regs->execflag = 0;

  00747	48 8b 44 24 60	 mov	 rax, QWORD PTR regs$[rsp]
  0074c	8b 80 28 07 00
	00		 mov	 eax, DWORD PTR [rax+1832]
  00752	83 e0 fe	 and	 eax, -2			; fffffffeH
  00755	48 8b 4c 24 60	 mov	 rcx, QWORD PTR regs$[rsp]
  0075a	89 81 28 07 00
	00		 mov	 DWORD PTR [rcx+1832], eax

; 2033 : 
; 2034 :     //--------------------------------------------------------------
; 2035 :     //                    PROGRAMMING NOTE
; 2036 :     //--------------------------------------------------------------
; 2037 :     // The first 'fastest_no_txf_loop' loop below is used when the
; 2038 :     // TXF facility is not enabled, and since facilities cannot be
; 2039 :     // enabled or disabled once the guest system has been IPLed and
; 2040 :     // started, it utilizes our original instruction execution loop
; 2041 :     // which uses the 'EXECUTE_INSTRUCTION' and 'UNROLLED_EXECUTE'
; 2042 :     // macros which do not have any TXF related code in them.
; 2043 :     //
; 2044 :     // The second and third loops below (the 'txf_facility_loop' and
; 2045 :     // 'txf_slower_loop') are used when the TXF facility is enabled,
; 2046 :     // requiring us to check whether or not a transaction is active
; 2047 :     // or not after each instruction is executed.
; 2048 :     //
; 2049 :     // If no transaction is active, the normal 'EXECUTE_INSTRUCTION'
; 2050 :     // and 'UNROLLED_EXECUTE' macros can be used, but a check for an
; 2051 :     // active transaction still needs to be performed after each and
; 2052 :     // every instruction (so we can know which loop we need to use).
; 2053 :     //
; 2054 :     // When a transaction is active, we use the third (slowest) loop
; 2055 :     // called 'txf_slower_loop', using the 'TXF_EXECUTE_INSTRUCTION'
; 2056 :     // and 'TXF_UNROLLED_EXECUTE' macros, which contain code that
; 2057 :     // enforces certain Transaction-Exceution Facility constraints.
; 2058 :     //--------------------------------------------------------------
; 2059 : 
; 2060 : #if defined( FEATURE_073_TRANSACT_EXEC_FACILITY )
; 2061 :     if (FACILITY_ENABLED( 073_TRANSACT_EXEC, regs ))

  00760	b8 01 00 00 00	 mov	 eax, 1
  00765	48 6b c0 09	 imul	 rax, rax, 9
  00769	48 8b 4c 24 60	 mov	 rcx, QWORD PTR regs$[rsp]
  0076e	0f b6 84 01 28
	0d 00 00	 movzx	 eax, BYTE PTR [rcx+rax+3368]
  00776	83 e0 40	 and	 eax, 64			; 00000040H
  00779	85 c0		 test	 eax, eax
  0077b	74 2d		 je	 SHORT $LN100@z900_run_c

; 2062 :         if (regs->CR(0) & CR0_TXC)

  0077d	b8 08 00 00 00	 mov	 eax, 8
  00782	48 6b c0 01	 imul	 rax, rax, 1
  00786	48 8b 4c 24 60	 mov	 rcx, QWORD PTR regs$[rsp]
  0078b	48 ba 00 00 00
	00 00 00 80 00	 mov	 rdx, 36028797018963968	; 0080000000000000H
  00795	48 8b 84 01 00
	06 00 00	 mov	 rax, QWORD PTR [rcx+rax+1536]
  0079d	48 23 c2	 and	 rax, rdx
  007a0	48 85 c0	 test	 rax, rax
  007a3	74 05		 je	 SHORT $LN101@z900_run_c

; 2063 :             goto txf_facility_loop;

  007a5	e9 0d 03 00 00	 jmp	 $txf_facility_loop$167
$LN101@z900_run_c:
$LN100@z900_run_c:
$fastest_no_txf_loop$168:

; 2064 : #endif
; 2065 : 
; 2066 : fastest_no_txf_loop:
; 2067 : 
; 2068 :     if (INTERRUPT_PENDING( regs ))

  007aa	48 8b 44 24 60	 mov	 rax, QWORD PTR regs$[rsp]
  007af	48 8b 4c 24 60	 mov	 rcx, QWORD PTR regs$[rsp]
  007b4	8b 49 4c	 mov	 ecx, DWORD PTR [rcx+76]
  007b7	8b 40 48	 mov	 eax, DWORD PTR [rax+72]
  007ba	23 c1		 and	 eax, ecx
  007bc	85 c0		 test	 eax, eax
  007be	74 0a		 je	 SHORT $LN102@z900_run_c

; 2069 :         ARCH_DEP( process_interrupt )( regs );

  007c0	48 8b 4c 24 60	 mov	 rcx, QWORD PTR regs$[rsp]
  007c5	e8 00 00 00 00	 call	 z900_process_interrupt
$LN102@z900_run_c:
$enter_fastest_no_txf_loop$169:

; 2070 : 
; 2071 : enter_fastest_no_txf_loop:
; 2072 : 
; 2073 :     ip = INSTRUCTION_FETCH( regs, 0 );

  007ca	33 c0		 xor	 eax, eax
  007cc	83 f8 01	 cmp	 eax, 1
  007cf	74 17		 je	 SHORT $LN141@z900_run_c
  007d1	48 8b 44 24 60	 mov	 rax, QWORD PTR regs$[rsp]
  007d6	48 8b 4c 24 60	 mov	 rcx, QWORD PTR regs$[rsp]
  007db	48 8b 89 08 02
	00 00		 mov	 rcx, QWORD PTR [rcx+520]
  007e2	48 39 48 68	 cmp	 QWORD PTR [rax+104], rcx
  007e6	72 13		 jb	 SHORT $LN142@z900_run_c
$LN141@z900_run_c:
  007e8	33 c0		 xor	 eax, eax
  007ea	85 c0		 test	 eax, eax
  007ec	75 0d		 jne	 SHORT $LN142@z900_run_c
  007ee	c7 84 24 84 00
	00 00 00 00 00
	00		 mov	 DWORD PTR tv371[rsp], 0
  007f9	eb 0b		 jmp	 SHORT $LN146@z900_run_c
$LN142@z900_run_c:
  007fb	c7 84 24 84 00
	00 00 01 00 00
	00		 mov	 DWORD PTR tv371[rsp], 1
$LN146@z900_run_c:
  00806	83 bc 24 84 00
	00 00 00	 cmp	 DWORD PTR tv371[rsp], 0
  0080e	74 13		 je	 SHORT $LN147@z900_run_c
  00810	48 8b 44 24 60	 mov	 rax, QWORD PTR regs$[rsp]
  00815	48 8b 40 68	 mov	 rax, QWORD PTR [rax+104]
  00819	48 89 84 24 a8
	00 00 00	 mov	 QWORD PTR tv377[rsp], rax
  00821	eb 14		 jmp	 SHORT $LN148@z900_run_c
$LN147@z900_run_c:
  00823	33 d2		 xor	 edx, edx
  00825	48 8b 4c 24 60	 mov	 rcx, QWORD PTR regs$[rsp]
  0082a	e8 00 00 00 00	 call	 z900_instfetch
  0082f	48 89 84 24 a8
	00 00 00	 mov	 QWORD PTR tv377[rsp], rax
$LN148@z900_run_c:
  00837	48 8b 84 24 a8
	00 00 00	 mov	 rax, QWORD PTR tv377[rsp]
  0083f	48 89 44 24 70	 mov	 QWORD PTR ip$[rsp], rax
$LN7@z900_run_c:

; 2074 :     PROCESS_TRACE( regs, ip, enter_fastest_no_txf_loop );

  00844	48 8b 44 24 60	 mov	 rax, QWORD PTR regs$[rsp]
  00849	8b 80 28 07 00
	00		 mov	 eax, DWORD PTR [rax+1832]
  0084f	c1 e8 10	 shr	 eax, 16
  00852	83 e0 01	 and	 eax, 1
  00855	85 c0		 test	 eax, eax
  00857	0f 84 e6 00 00
	00		 je	 $LN103@z900_run_c
  0085d	48 8b 54 24 70	 mov	 rdx, QWORD PTR ip$[rsp]
  00862	48 8b 4c 24 60	 mov	 rcx, QWORD PTR regs$[rsp]
  00867	e8 00 00 00 00	 call	 z900_process_trace
  0086c	33 c0		 xor	 eax, eax
  0086e	83 f8 01	 cmp	 eax, 1
  00871	0f 84 cc 00 00
	00		 je	 $LN104@z900_run_c
  00877	48 8b 44 24 60	 mov	 rax, QWORD PTR regs$[rsp]
  0087c	8b 80 28 07 00
	00		 mov	 eax, DWORD PTR [rax+1832]
  00882	c1 e8 11	 shr	 eax, 17
  00885	83 e0 01	 and	 eax, 1
  00888	85 c0		 test	 eax, eax
  0088a	0f 84 b3 00 00
	00		 je	 $LN104@z900_run_c
  00890	48 8b 44 24 60	 mov	 rax, QWORD PTR regs$[rsp]
  00895	48 83 b8 08 02
	00 00 00	 cmp	 QWORD PTR [rax+520], 0
  0089d	0f 85 a0 00 00
	00		 jne	 $LN104@z900_run_c
  008a3	48 8b 44 24 60	 mov	 rax, QWORD PTR regs$[rsp]
  008a8	0f b7 80 3c 08
	00 00		 movzx	 eax, WORD PTR [rax+2108]
  008af	89 84 24 94 00
	00 00		 mov	 DWORD PTR tv392[rsp], eax
  008b6	48 8b 4c 24 60	 mov	 rcx, QWORD PTR regs$[rsp]
  008bb	0f b7 89 3c 08
	00 00		 movzx	 ecx, WORD PTR [rcx+2108]
  008c2	48 8b 15 00 00
	00 00		 mov	 rdx, QWORD PTR __imp_sysblk
  008c9	0f b6 8c 0a 48
	0b 00 00	 movzx	 ecx, BYTE PTR [rdx+rcx+2888]
  008d1	ff 15 00 00 00
	00		 call	 QWORD PTR __imp_ptyp2short
  008d7	48 89 84 24 f0
	00 00 00	 mov	 QWORD PTR tv394[rsp], rax
  008df	b9 01 00 00 00	 mov	 ecx, 1
  008e4	ff 15 00 00 00
	00		 call	 QWORD PTR __imp___acrt_iob_func
  008ea	8b 8c 24 94 00
	00 00		 mov	 ecx, DWORD PTR tv392[rsp]
  008f1	89 4c 24 40	 mov	 DWORD PTR [rsp+64], ecx
  008f5	48 8b 8c 24 f0
	00 00 00	 mov	 rcx, QWORD PTR tv394[rsp]
  008fd	48 89 4c 24 38	 mov	 QWORD PTR [rsp+56], rcx
  00902	48 8d 0d 00 00
	00 00		 lea	 rcx, OFFSET FLAT:$SG196772
  00909	48 89 4c 24 30	 mov	 QWORD PTR [rsp+48], rcx
  0090e	48 8d 0d 00 00
	00 00		 lea	 rcx, OFFSET FLAT:$SG196773
  00915	48 89 4c 24 28	 mov	 QWORD PTR [rsp+40], rcx
  0091a	48 89 44 24 20	 mov	 QWORD PTR [rsp+32], rax
  0091f	41 b9 03 00 00
	00		 mov	 r9d, 3
  00925	4c 8d 05 00 00
	00 00		 lea	 r8, OFFSET FLAT:$SG196774
  0092c	ba 1a 08 00 00	 mov	 edx, 2074		; 0000081aH
  00931	48 8d 0d 00 00
	00 00		 lea	 rcx, OFFSET FLAT:$SG196775
  00938	ff 15 00 00 00
	00		 call	 QWORD PTR __imp_fwritemsg
  0093e	e9 87 fe ff ff	 jmp	 $enter_fastest_no_txf_loop$169
$LN104@z900_run_c:
$LN103@z900_run_c:
  00943	33 c0		 xor	 eax, eax
  00945	85 c0		 test	 eax, eax
  00947	0f 85 f7 fe ff
	ff		 jne	 $LN7@z900_run_c
$LN10@z900_run_c:

; 2075 :     EXECUTE_INSTRUCTION( current_opcode_table, ip, regs );

  0094d	48 8b 4c 24 70	 mov	 rcx, QWORD PTR ip$[rsp]
  00952	e8 00 00 00 00	 call	 fetch_hw_noswap
  00957	0f b7 c8	 movzx	 ecx, ax
  0095a	e8 00 00 00 00	 call	 _byteswap_ushort
  0095f	0f b7 c0	 movzx	 eax, ax
  00962	48 8b 54 24 60	 mov	 rdx, QWORD PTR regs$[rsp]
  00967	48 8b 4c 24 70	 mov	 rcx, QWORD PTR ip$[rsp]
  0096c	48 8b 7c 24 78	 mov	 rdi, QWORD PTR current_opcode_table$[rsp]
  00971	ff 14 c7	 call	 QWORD PTR [rdi+rax*8]
  00974	33 c0		 xor	 eax, eax
  00976	85 c0		 test	 eax, eax
  00978	75 d3		 jne	 SHORT $LN10@z900_run_c

; 2076 :     regs->instcount++;

  0097a	48 8b 44 24 60	 mov	 rax, QWORD PTR regs$[rsp]
  0097f	8b 80 98 07 00
	00		 mov	 eax, DWORD PTR [rax+1944]
  00985	ff c0		 inc	 eax
  00987	48 8b 4c 24 60	 mov	 rcx, QWORD PTR regs$[rsp]
  0098c	89 81 98 07 00
	00		 mov	 DWORD PTR [rcx+1944], eax

; 2077 :     UPDATE_SYSBLK_INSTCOUNT( 1 );

  00992	48 8b 05 00 00
	00 00		 mov	 rax, QWORD PTR __imp_sysblk
  00999	48 05 80 14 00
	00		 add	 rax, 5248		; 00001480H
  0099f	ba 01 00 00 00	 mov	 edx, 1
  009a4	48 8b c8	 mov	 rcx, rax
  009a7	e8 00 00 00 00	 call	 atomic_update64

; 2078 : 
; 2079 :     for (i=0; i < MAX_CPU_LOOPS/2; i++)

  009ac	c7 44 24 68 00
	00 00 00	 mov	 DWORD PTR i$[rsp], 0
  009b4	eb 0a		 jmp	 SHORT $LN13@z900_run_c
$LN11@z900_run_c:
  009b6	8b 44 24 68	 mov	 eax, DWORD PTR i$[rsp]
  009ba	ff c0		 inc	 eax
  009bc	89 44 24 68	 mov	 DWORD PTR i$[rsp], eax
$LN13@z900_run_c:
  009c0	81 7c 24 68 80
	00 00 00	 cmp	 DWORD PTR i$[rsp], 128	; 00000080H
  009c8	0f 8d a4 00 00
	00		 jge	 $LN12@z900_run_c

; 2080 :     {
; 2081 :         UNROLLED_EXECUTE( current_opcode_table, regs );

  009ce	48 8b 44 24 60	 mov	 rax, QWORD PTR regs$[rsp]
  009d3	48 8b 4c 24 60	 mov	 rcx, QWORD PTR regs$[rsp]
  009d8	48 8b 89 08 02
	00 00		 mov	 rcx, QWORD PTR [rcx+520]
  009df	48 39 48 68	 cmp	 QWORD PTR [rax+104], rcx
  009e3	72 05		 jb	 SHORT $LN105@z900_run_c
  009e5	e9 88 00 00 00	 jmp	 $LN12@z900_run_c
$LN105@z900_run_c:
$LN16@z900_run_c:
  009ea	48 8b 44 24 60	 mov	 rax, QWORD PTR regs$[rsp]
  009ef	48 8b 48 68	 mov	 rcx, QWORD PTR [rax+104]
  009f3	e8 00 00 00 00	 call	 fetch_hw_noswap
  009f8	0f b7 c8	 movzx	 ecx, ax
  009fb	e8 00 00 00 00	 call	 _byteswap_ushort
  00a00	0f b7 c0	 movzx	 eax, ax
  00a03	48 8b 54 24 60	 mov	 rdx, QWORD PTR regs$[rsp]
  00a08	48 8b 4c 24 60	 mov	 rcx, QWORD PTR regs$[rsp]
  00a0d	48 8b 49 68	 mov	 rcx, QWORD PTR [rcx+104]
  00a11	48 8b 7c 24 78	 mov	 rdi, QWORD PTR current_opcode_table$[rsp]
  00a16	ff 14 c7	 call	 QWORD PTR [rdi+rax*8]
  00a19	33 c0		 xor	 eax, eax
  00a1b	85 c0		 test	 eax, eax
  00a1d	75 cb		 jne	 SHORT $LN16@z900_run_c

; 2082 :         UNROLLED_EXECUTE( current_opcode_table, regs );

  00a1f	48 8b 44 24 60	 mov	 rax, QWORD PTR regs$[rsp]
  00a24	48 8b 4c 24 60	 mov	 rcx, QWORD PTR regs$[rsp]
  00a29	48 8b 89 08 02
	00 00		 mov	 rcx, QWORD PTR [rcx+520]
  00a30	48 39 48 68	 cmp	 QWORD PTR [rax+104], rcx
  00a34	72 02		 jb	 SHORT $LN106@z900_run_c
  00a36	eb 3a		 jmp	 SHORT $LN12@z900_run_c
$LN106@z900_run_c:
$LN19@z900_run_c:
  00a38	48 8b 44 24 60	 mov	 rax, QWORD PTR regs$[rsp]
  00a3d	48 8b 48 68	 mov	 rcx, QWORD PTR [rax+104]
  00a41	e8 00 00 00 00	 call	 fetch_hw_noswap
  00a46	0f b7 c8	 movzx	 ecx, ax
  00a49	e8 00 00 00 00	 call	 _byteswap_ushort
  00a4e	0f b7 c0	 movzx	 eax, ax
  00a51	48 8b 54 24 60	 mov	 rdx, QWORD PTR regs$[rsp]
  00a56	48 8b 4c 24 60	 mov	 rcx, QWORD PTR regs$[rsp]
  00a5b	48 8b 49 68	 mov	 rcx, QWORD PTR [rcx+104]
  00a5f	48 8b 7c 24 78	 mov	 rdi, QWORD PTR current_opcode_table$[rsp]
  00a64	ff 14 c7	 call	 QWORD PTR [rdi+rax*8]
  00a67	33 c0		 xor	 eax, eax
  00a69	85 c0		 test	 eax, eax
  00a6b	75 cb		 jne	 SHORT $LN19@z900_run_c

; 2083 :     }

  00a6d	e9 44 ff ff ff	 jmp	 $LN11@z900_run_c
$LN12@z900_run_c:

; 2084 :     regs->instcount   +=     (i * 2);

  00a72	48 8b 44 24 60	 mov	 rax, QWORD PTR regs$[rsp]
  00a77	8b 80 98 07 00
	00		 mov	 eax, DWORD PTR [rax+1944]
  00a7d	8b 4c 24 68	 mov	 ecx, DWORD PTR i$[rsp]
  00a81	8d 04 48	 lea	 eax, DWORD PTR [rax+rcx*2]
  00a84	48 8b 4c 24 60	 mov	 rcx, QWORD PTR regs$[rsp]
  00a89	89 81 98 07 00
	00		 mov	 DWORD PTR [rcx+1944], eax

; 2085 :     UPDATE_SYSBLK_INSTCOUNT( (i * 2) );

  00a8f	8b 44 24 68	 mov	 eax, DWORD PTR i$[rsp]
  00a93	03 c0		 add	 eax, eax
  00a95	48 98		 cdqe
  00a97	48 8b 0d 00 00
	00 00		 mov	 rcx, QWORD PTR __imp_sysblk
  00a9e	48 81 c1 80 14
	00 00		 add	 rcx, 5248		; 00001480H
  00aa5	48 8b d0	 mov	 rdx, rax
  00aa8	e8 00 00 00 00	 call	 atomic_update64

; 2086 : 
; 2087 :     /* Perform automatic instruction tracing if it's enabled */
; 2088 :     do_automatic_tracing();

  00aad	e8 00 00 00 00	 call	 do_automatic_tracing

; 2089 :     goto fastest_no_txf_loop;

  00ab2	e9 f3 fc ff ff	 jmp	 $fastest_no_txf_loop$168
$txf_facility_loop$167:

; 2090 : 
; 2091 : #if defined( FEATURE_073_TRANSACT_EXEC_FACILITY )
; 2092 : 
; 2093 : txf_facility_loop:
; 2094 : 
; 2095 :     if (INTERRUPT_PENDING( regs ))

  00ab7	48 8b 44 24 60	 mov	 rax, QWORD PTR regs$[rsp]
  00abc	48 8b 4c 24 60	 mov	 rcx, QWORD PTR regs$[rsp]
  00ac1	8b 49 4c	 mov	 ecx, DWORD PTR [rcx+76]
  00ac4	8b 40 48	 mov	 eax, DWORD PTR [rax+72]
  00ac7	23 c1		 and	 eax, ecx
  00ac9	85 c0		 test	 eax, eax
  00acb	74 0a		 je	 SHORT $LN107@z900_run_c

; 2096 :         ARCH_DEP( process_interrupt )( regs );

  00acd	48 8b 4c 24 60	 mov	 rcx, QWORD PTR regs$[rsp]
  00ad2	e8 00 00 00 00	 call	 z900_process_interrupt
$LN107@z900_run_c:

; 2097 : 
; 2098 :     if (regs->txf_tnd)

  00ad7	48 8b 44 24 60	 mov	 rax, QWORD PTR regs$[rsp]
  00adc	0f b6 80 58 0e
	00 00		 movzx	 eax, BYTE PTR [rax+3672]
  00ae3	85 c0		 test	 eax, eax
  00ae5	74 05		 je	 SHORT $LN108@z900_run_c

; 2099 :         goto enter_txf_slower_loop;

  00ae7	e9 44 03 00 00	 jmp	 $enter_txf_slower_loop$170
$LN108@z900_run_c:
$LN165@z900_run_c:
$enter_txf_faster_loop$171:

; 2100 : 
; 2101 : enter_txf_faster_loop:
; 2102 : 
; 2103 :     ip = INSTRUCTION_FETCH( regs, 0 );

  00aec	33 c0		 xor	 eax, eax
  00aee	83 f8 01	 cmp	 eax, 1
  00af1	74 17		 je	 SHORT $LN149@z900_run_c
  00af3	48 8b 44 24 60	 mov	 rax, QWORD PTR regs$[rsp]
  00af8	48 8b 4c 24 60	 mov	 rcx, QWORD PTR regs$[rsp]
  00afd	48 8b 89 08 02
	00 00		 mov	 rcx, QWORD PTR [rcx+520]
  00b04	48 39 48 68	 cmp	 QWORD PTR [rax+104], rcx
  00b08	72 13		 jb	 SHORT $LN150@z900_run_c
$LN149@z900_run_c:
  00b0a	33 c0		 xor	 eax, eax
  00b0c	85 c0		 test	 eax, eax
  00b0e	75 0d		 jne	 SHORT $LN150@z900_run_c
  00b10	c7 84 24 88 00
	00 00 00 00 00
	00		 mov	 DWORD PTR tv489[rsp], 0
  00b1b	eb 0b		 jmp	 SHORT $LN154@z900_run_c
$LN150@z900_run_c:
  00b1d	c7 84 24 88 00
	00 00 01 00 00
	00		 mov	 DWORD PTR tv489[rsp], 1
$LN154@z900_run_c:
  00b28	83 bc 24 88 00
	00 00 00	 cmp	 DWORD PTR tv489[rsp], 0
  00b30	74 13		 je	 SHORT $LN155@z900_run_c
  00b32	48 8b 44 24 60	 mov	 rax, QWORD PTR regs$[rsp]
  00b37	48 8b 40 68	 mov	 rax, QWORD PTR [rax+104]
  00b3b	48 89 84 24 b0
	00 00 00	 mov	 QWORD PTR tv495[rsp], rax
  00b43	eb 14		 jmp	 SHORT $LN156@z900_run_c
$LN155@z900_run_c:
  00b45	33 d2		 xor	 edx, edx
  00b47	48 8b 4c 24 60	 mov	 rcx, QWORD PTR regs$[rsp]
  00b4c	e8 00 00 00 00	 call	 z900_instfetch
  00b51	48 89 84 24 b0
	00 00 00	 mov	 QWORD PTR tv495[rsp], rax
$LN156@z900_run_c:
  00b59	48 8b 84 24 b0
	00 00 00	 mov	 rax, QWORD PTR tv495[rsp]
  00b61	48 89 44 24 70	 mov	 QWORD PTR ip$[rsp], rax
$LN22@z900_run_c:

; 2104 :     PROCESS_TRACE( regs, ip, enter_txf_faster_loop );

  00b66	48 8b 44 24 60	 mov	 rax, QWORD PTR regs$[rsp]
  00b6b	8b 80 28 07 00
	00		 mov	 eax, DWORD PTR [rax+1832]
  00b71	c1 e8 10	 shr	 eax, 16
  00b74	83 e0 01	 and	 eax, 1
  00b77	85 c0		 test	 eax, eax
  00b79	0f 84 e6 00 00
	00		 je	 $LN109@z900_run_c
  00b7f	48 8b 54 24 70	 mov	 rdx, QWORD PTR ip$[rsp]
  00b84	48 8b 4c 24 60	 mov	 rcx, QWORD PTR regs$[rsp]
  00b89	e8 00 00 00 00	 call	 z900_process_trace
  00b8e	33 c0		 xor	 eax, eax
  00b90	83 f8 01	 cmp	 eax, 1
  00b93	0f 84 cc 00 00
	00		 je	 $LN110@z900_run_c
  00b99	48 8b 44 24 60	 mov	 rax, QWORD PTR regs$[rsp]
  00b9e	8b 80 28 07 00
	00		 mov	 eax, DWORD PTR [rax+1832]
  00ba4	c1 e8 11	 shr	 eax, 17
  00ba7	83 e0 01	 and	 eax, 1
  00baa	85 c0		 test	 eax, eax
  00bac	0f 84 b3 00 00
	00		 je	 $LN110@z900_run_c
  00bb2	48 8b 44 24 60	 mov	 rax, QWORD PTR regs$[rsp]
  00bb7	48 83 b8 08 02
	00 00 00	 cmp	 QWORD PTR [rax+520], 0
  00bbf	0f 85 a0 00 00
	00		 jne	 $LN110@z900_run_c
  00bc5	48 8b 44 24 60	 mov	 rax, QWORD PTR regs$[rsp]
  00bca	0f b7 80 3c 08
	00 00		 movzx	 eax, WORD PTR [rax+2108]
  00bd1	89 84 24 98 00
	00 00		 mov	 DWORD PTR tv510[rsp], eax
  00bd8	48 8b 4c 24 60	 mov	 rcx, QWORD PTR regs$[rsp]
  00bdd	0f b7 89 3c 08
	00 00		 movzx	 ecx, WORD PTR [rcx+2108]
  00be4	48 8b 15 00 00
	00 00		 mov	 rdx, QWORD PTR __imp_sysblk
  00beb	0f b6 8c 0a 48
	0b 00 00	 movzx	 ecx, BYTE PTR [rdx+rcx+2888]
  00bf3	ff 15 00 00 00
	00		 call	 QWORD PTR __imp_ptyp2short
  00bf9	48 89 84 24 f8
	00 00 00	 mov	 QWORD PTR tv512[rsp], rax
  00c01	b9 01 00 00 00	 mov	 ecx, 1
  00c06	ff 15 00 00 00
	00		 call	 QWORD PTR __imp___acrt_iob_func
  00c0c	8b 8c 24 98 00
	00 00		 mov	 ecx, DWORD PTR tv510[rsp]
  00c13	89 4c 24 40	 mov	 DWORD PTR [rsp+64], ecx
  00c17	48 8b 8c 24 f8
	00 00 00	 mov	 rcx, QWORD PTR tv512[rsp]
  00c1f	48 89 4c 24 38	 mov	 QWORD PTR [rsp+56], rcx
  00c24	48 8d 0d 00 00
	00 00		 lea	 rcx, OFFSET FLAT:$SG196782
  00c2b	48 89 4c 24 30	 mov	 QWORD PTR [rsp+48], rcx
  00c30	48 8d 0d 00 00
	00 00		 lea	 rcx, OFFSET FLAT:$SG196783
  00c37	48 89 4c 24 28	 mov	 QWORD PTR [rsp+40], rcx
  00c3c	48 89 44 24 20	 mov	 QWORD PTR [rsp+32], rax
  00c41	41 b9 03 00 00
	00		 mov	 r9d, 3
  00c47	4c 8d 05 00 00
	00 00		 lea	 r8, OFFSET FLAT:$SG196784
  00c4e	ba 38 08 00 00	 mov	 edx, 2104		; 00000838H
  00c53	48 8d 0d 00 00
	00 00		 lea	 rcx, OFFSET FLAT:$SG196785
  00c5a	ff 15 00 00 00
	00		 call	 QWORD PTR __imp_fwritemsg
  00c60	e9 87 fe ff ff	 jmp	 $enter_txf_faster_loop$171
$LN110@z900_run_c:
$LN109@z900_run_c:
  00c65	33 c0		 xor	 eax, eax
  00c67	85 c0		 test	 eax, eax
  00c69	0f 85 f7 fe ff
	ff		 jne	 $LN22@z900_run_c
$LN25@z900_run_c:

; 2105 :     EXECUTE_INSTRUCTION( current_opcode_table, ip, regs );

  00c6f	48 8b 4c 24 70	 mov	 rcx, QWORD PTR ip$[rsp]
  00c74	e8 00 00 00 00	 call	 fetch_hw_noswap
  00c79	0f b7 c8	 movzx	 ecx, ax
  00c7c	e8 00 00 00 00	 call	 _byteswap_ushort
  00c81	0f b7 c0	 movzx	 eax, ax
  00c84	48 8b 54 24 60	 mov	 rdx, QWORD PTR regs$[rsp]
  00c89	48 8b 4c 24 70	 mov	 rcx, QWORD PTR ip$[rsp]
  00c8e	48 8b 7c 24 78	 mov	 rdi, QWORD PTR current_opcode_table$[rsp]
  00c93	ff 14 c7	 call	 QWORD PTR [rdi+rax*8]
  00c96	33 c0		 xor	 eax, eax
  00c98	85 c0		 test	 eax, eax
  00c9a	75 d3		 jne	 SHORT $LN25@z900_run_c

; 2106 :     regs->instcount++;

  00c9c	48 8b 44 24 60	 mov	 rax, QWORD PTR regs$[rsp]
  00ca1	8b 80 98 07 00
	00		 mov	 eax, DWORD PTR [rax+1944]
  00ca7	ff c0		 inc	 eax
  00ca9	48 8b 4c 24 60	 mov	 rcx, QWORD PTR regs$[rsp]
  00cae	89 81 98 07 00
	00		 mov	 DWORD PTR [rcx+1944], eax

; 2107 :     UPDATE_SYSBLK_INSTCOUNT( 1 );

  00cb4	48 8b 05 00 00
	00 00		 mov	 rax, QWORD PTR __imp_sysblk
  00cbb	48 05 80 14 00
	00		 add	 rax, 5248		; 00001480H
  00cc1	ba 01 00 00 00	 mov	 edx, 1
  00cc6	48 8b c8	 mov	 rcx, rax
  00cc9	e8 00 00 00 00	 call	 atomic_update64

; 2108 : 
; 2109 :     for (i=0; i < MAX_CPU_LOOPS/2; i++)

  00cce	c7 44 24 68 00
	00 00 00	 mov	 DWORD PTR i$[rsp], 0
  00cd6	eb 0a		 jmp	 SHORT $LN28@z900_run_c
$LN26@z900_run_c:
  00cd8	8b 44 24 68	 mov	 eax, DWORD PTR i$[rsp]
  00cdc	ff c0		 inc	 eax
  00cde	89 44 24 68	 mov	 DWORD PTR i$[rsp], eax
$LN28@z900_run_c:
  00ce2	81 7c 24 68 80
	00 00 00	 cmp	 DWORD PTR i$[rsp], 128	; 00000080H
  00cea	0f 8d cb 00 00
	00		 jge	 $LN27@z900_run_c

; 2110 :     {
; 2111 :         if (regs->txf_tnd)

  00cf0	48 8b 44 24 60	 mov	 rax, QWORD PTR regs$[rsp]
  00cf5	0f b6 80 58 0e
	00 00		 movzx	 eax, BYTE PTR [rax+3672]
  00cfc	85 c0		 test	 eax, eax
  00cfe	74 05		 je	 SHORT $LN111@z900_run_c

; 2112 :             break;

  00d00	e9 b6 00 00 00	 jmp	 $LN27@z900_run_c
$LN111@z900_run_c:

; 2113 : 
; 2114 :         UNROLLED_EXECUTE( current_opcode_table, regs );

  00d05	48 8b 44 24 60	 mov	 rax, QWORD PTR regs$[rsp]
  00d0a	48 8b 4c 24 60	 mov	 rcx, QWORD PTR regs$[rsp]
  00d0f	48 8b 89 08 02
	00 00		 mov	 rcx, QWORD PTR [rcx+520]
  00d16	48 39 48 68	 cmp	 QWORD PTR [rax+104], rcx
  00d1a	72 05		 jb	 SHORT $LN112@z900_run_c
  00d1c	e9 9a 00 00 00	 jmp	 $LN27@z900_run_c
$LN112@z900_run_c:
$LN31@z900_run_c:
  00d21	48 8b 44 24 60	 mov	 rax, QWORD PTR regs$[rsp]
  00d26	48 8b 48 68	 mov	 rcx, QWORD PTR [rax+104]
  00d2a	e8 00 00 00 00	 call	 fetch_hw_noswap
  00d2f	0f b7 c8	 movzx	 ecx, ax
  00d32	e8 00 00 00 00	 call	 _byteswap_ushort
  00d37	0f b7 c0	 movzx	 eax, ax
  00d3a	48 8b 54 24 60	 mov	 rdx, QWORD PTR regs$[rsp]
  00d3f	48 8b 4c 24 60	 mov	 rcx, QWORD PTR regs$[rsp]
  00d44	48 8b 49 68	 mov	 rcx, QWORD PTR [rcx+104]
  00d48	48 8b 7c 24 78	 mov	 rdi, QWORD PTR current_opcode_table$[rsp]
  00d4d	ff 14 c7	 call	 QWORD PTR [rdi+rax*8]
  00d50	33 c0		 xor	 eax, eax
  00d52	85 c0		 test	 eax, eax
  00d54	75 cb		 jne	 SHORT $LN31@z900_run_c

; 2115 : 
; 2116 :         if (regs->txf_tnd)

  00d56	48 8b 44 24 60	 mov	 rax, QWORD PTR regs$[rsp]
  00d5b	0f b6 80 58 0e
	00 00		 movzx	 eax, BYTE PTR [rax+3672]
  00d62	85 c0		 test	 eax, eax
  00d64	74 02		 je	 SHORT $LN113@z900_run_c

; 2117 :             break;

  00d66	eb 53		 jmp	 SHORT $LN27@z900_run_c
$LN113@z900_run_c:

; 2118 : 
; 2119 :         UNROLLED_EXECUTE( current_opcode_table, regs );

  00d68	48 8b 44 24 60	 mov	 rax, QWORD PTR regs$[rsp]
  00d6d	48 8b 4c 24 60	 mov	 rcx, QWORD PTR regs$[rsp]
  00d72	48 8b 89 08 02
	00 00		 mov	 rcx, QWORD PTR [rcx+520]
  00d79	48 39 48 68	 cmp	 QWORD PTR [rax+104], rcx
  00d7d	72 02		 jb	 SHORT $LN114@z900_run_c
  00d7f	eb 3a		 jmp	 SHORT $LN27@z900_run_c
$LN114@z900_run_c:
$LN34@z900_run_c:
  00d81	48 8b 44 24 60	 mov	 rax, QWORD PTR regs$[rsp]
  00d86	48 8b 48 68	 mov	 rcx, QWORD PTR [rax+104]
  00d8a	e8 00 00 00 00	 call	 fetch_hw_noswap
  00d8f	0f b7 c8	 movzx	 ecx, ax
  00d92	e8 00 00 00 00	 call	 _byteswap_ushort
  00d97	0f b7 c0	 movzx	 eax, ax
  00d9a	48 8b 54 24 60	 mov	 rdx, QWORD PTR regs$[rsp]
  00d9f	48 8b 4c 24 60	 mov	 rcx, QWORD PTR regs$[rsp]
  00da4	48 8b 49 68	 mov	 rcx, QWORD PTR [rcx+104]
  00da8	48 8b 7c 24 78	 mov	 rdi, QWORD PTR current_opcode_table$[rsp]
  00dad	ff 14 c7	 call	 QWORD PTR [rdi+rax*8]
  00db0	33 c0		 xor	 eax, eax
  00db2	85 c0		 test	 eax, eax
  00db4	75 cb		 jne	 SHORT $LN34@z900_run_c

; 2120 :     }

  00db6	e9 1d ff ff ff	 jmp	 $LN26@z900_run_c
$LN27@z900_run_c:

; 2121 :     regs->instcount   +=     (i * 2);

  00dbb	48 8b 44 24 60	 mov	 rax, QWORD PTR regs$[rsp]
  00dc0	8b 80 98 07 00
	00		 mov	 eax, DWORD PTR [rax+1944]
  00dc6	8b 4c 24 68	 mov	 ecx, DWORD PTR i$[rsp]
  00dca	8d 04 48	 lea	 eax, DWORD PTR [rax+rcx*2]
  00dcd	48 8b 4c 24 60	 mov	 rcx, QWORD PTR regs$[rsp]
  00dd2	89 81 98 07 00
	00		 mov	 DWORD PTR [rcx+1944], eax

; 2122 :     UPDATE_SYSBLK_INSTCOUNT( (i * 2) );

  00dd8	8b 44 24 68	 mov	 eax, DWORD PTR i$[rsp]
  00ddc	03 c0		 add	 eax, eax
  00dde	48 98		 cdqe
  00de0	48 8b 0d 00 00
	00 00		 mov	 rcx, QWORD PTR __imp_sysblk
  00de7	48 81 c1 80 14
	00 00		 add	 rcx, 5248		; 00001480H
  00dee	48 8b d0	 mov	 rdx, rax
  00df1	e8 00 00 00 00	 call	 atomic_update64

; 2123 : 
; 2124 :     /* Perform automatic instruction tracing if it's enabled */
; 2125 :     do_automatic_tracing();

  00df6	e8 00 00 00 00	 call	 do_automatic_tracing

; 2126 : 
; 2127 : //txf_slower_loop:
; 2128 : 
; 2129 :     if (INTERRUPT_PENDING( regs ))

  00dfb	48 8b 44 24 60	 mov	 rax, QWORD PTR regs$[rsp]
  00e00	48 8b 4c 24 60	 mov	 rcx, QWORD PTR regs$[rsp]
  00e05	8b 49 4c	 mov	 ecx, DWORD PTR [rcx+76]
  00e08	8b 40 48	 mov	 eax, DWORD PTR [rax+72]
  00e0b	23 c1		 and	 eax, ecx
  00e0d	85 c0		 test	 eax, eax
  00e0f	74 0a		 je	 SHORT $LN115@z900_run_c

; 2130 :         ARCH_DEP( process_interrupt )( regs );

  00e11	48 8b 4c 24 60	 mov	 rcx, QWORD PTR regs$[rsp]
  00e16	e8 00 00 00 00	 call	 z900_process_interrupt
$LN115@z900_run_c:

; 2131 : 
; 2132 :     if (!regs->txf_tnd)

  00e1b	48 8b 44 24 60	 mov	 rax, QWORD PTR regs$[rsp]
  00e20	0f b6 80 58 0e
	00 00		 movzx	 eax, BYTE PTR [rax+3672]
  00e27	85 c0		 test	 eax, eax
  00e29	75 05		 jne	 SHORT $LN116@z900_run_c

; 2133 :         goto enter_txf_faster_loop;

  00e2b	e9 bc fc ff ff	 jmp	 $LN165@z900_run_c
$LN116@z900_run_c:
$enter_txf_slower_loop$170:

; 2134 : 
; 2135 : enter_txf_slower_loop:
; 2136 : 
; 2137 :     ip = INSTRUCTION_FETCH( regs, 0 );

  00e30	33 c0		 xor	 eax, eax
  00e32	83 f8 01	 cmp	 eax, 1
  00e35	74 17		 je	 SHORT $LN157@z900_run_c
  00e37	48 8b 44 24 60	 mov	 rax, QWORD PTR regs$[rsp]
  00e3c	48 8b 4c 24 60	 mov	 rcx, QWORD PTR regs$[rsp]
  00e41	48 8b 89 08 02
	00 00		 mov	 rcx, QWORD PTR [rcx+520]
  00e48	48 39 48 68	 cmp	 QWORD PTR [rax+104], rcx
  00e4c	72 13		 jb	 SHORT $LN158@z900_run_c
$LN157@z900_run_c:
  00e4e	33 c0		 xor	 eax, eax
  00e50	85 c0		 test	 eax, eax
  00e52	75 0d		 jne	 SHORT $LN158@z900_run_c
  00e54	c7 84 24 8c 00
	00 00 00 00 00
	00		 mov	 DWORD PTR tv613[rsp], 0
  00e5f	eb 0b		 jmp	 SHORT $LN162@z900_run_c
$LN158@z900_run_c:
  00e61	c7 84 24 8c 00
	00 00 01 00 00
	00		 mov	 DWORD PTR tv613[rsp], 1
$LN162@z900_run_c:
  00e6c	83 bc 24 8c 00
	00 00 00	 cmp	 DWORD PTR tv613[rsp], 0
  00e74	74 13		 je	 SHORT $LN163@z900_run_c
  00e76	48 8b 44 24 60	 mov	 rax, QWORD PTR regs$[rsp]
  00e7b	48 8b 40 68	 mov	 rax, QWORD PTR [rax+104]
  00e7f	48 89 84 24 b8
	00 00 00	 mov	 QWORD PTR tv619[rsp], rax
  00e87	eb 14		 jmp	 SHORT $LN164@z900_run_c
$LN163@z900_run_c:
  00e89	33 d2		 xor	 edx, edx
  00e8b	48 8b 4c 24 60	 mov	 rcx, QWORD PTR regs$[rsp]
  00e90	e8 00 00 00 00	 call	 z900_instfetch
  00e95	48 89 84 24 b8
	00 00 00	 mov	 QWORD PTR tv619[rsp], rax
$LN164@z900_run_c:
  00e9d	48 8b 84 24 b8
	00 00 00	 mov	 rax, QWORD PTR tv619[rsp]
  00ea5	48 89 44 24 70	 mov	 QWORD PTR ip$[rsp], rax
$LN37@z900_run_c:

; 2138 :     PROCESS_TRACE( regs, ip, enter_txf_slower_loop );

  00eaa	48 8b 44 24 60	 mov	 rax, QWORD PTR regs$[rsp]
  00eaf	8b 80 28 07 00
	00		 mov	 eax, DWORD PTR [rax+1832]
  00eb5	c1 e8 10	 shr	 eax, 16
  00eb8	83 e0 01	 and	 eax, 1
  00ebb	85 c0		 test	 eax, eax
  00ebd	0f 84 e6 00 00
	00		 je	 $LN117@z900_run_c
  00ec3	48 8b 54 24 70	 mov	 rdx, QWORD PTR ip$[rsp]
  00ec8	48 8b 4c 24 60	 mov	 rcx, QWORD PTR regs$[rsp]
  00ecd	e8 00 00 00 00	 call	 z900_process_trace
  00ed2	33 c0		 xor	 eax, eax
  00ed4	83 f8 01	 cmp	 eax, 1
  00ed7	0f 84 cc 00 00
	00		 je	 $LN118@z900_run_c
  00edd	48 8b 44 24 60	 mov	 rax, QWORD PTR regs$[rsp]
  00ee2	8b 80 28 07 00
	00		 mov	 eax, DWORD PTR [rax+1832]
  00ee8	c1 e8 11	 shr	 eax, 17
  00eeb	83 e0 01	 and	 eax, 1
  00eee	85 c0		 test	 eax, eax
  00ef0	0f 84 b3 00 00
	00		 je	 $LN118@z900_run_c
  00ef6	48 8b 44 24 60	 mov	 rax, QWORD PTR regs$[rsp]
  00efb	48 83 b8 08 02
	00 00 00	 cmp	 QWORD PTR [rax+520], 0
  00f03	0f 85 a0 00 00
	00		 jne	 $LN118@z900_run_c
  00f09	48 8b 44 24 60	 mov	 rax, QWORD PTR regs$[rsp]
  00f0e	0f b7 80 3c 08
	00 00		 movzx	 eax, WORD PTR [rax+2108]
  00f15	89 84 24 9c 00
	00 00		 mov	 DWORD PTR tv634[rsp], eax
  00f1c	48 8b 4c 24 60	 mov	 rcx, QWORD PTR regs$[rsp]
  00f21	0f b7 89 3c 08
	00 00		 movzx	 ecx, WORD PTR [rcx+2108]
  00f28	48 8b 15 00 00
	00 00		 mov	 rdx, QWORD PTR __imp_sysblk
  00f2f	0f b6 8c 0a 48
	0b 00 00	 movzx	 ecx, BYTE PTR [rdx+rcx+2888]
  00f37	ff 15 00 00 00
	00		 call	 QWORD PTR __imp_ptyp2short
  00f3d	48 89 84 24 00
	01 00 00	 mov	 QWORD PTR tv636[rsp], rax
  00f45	b9 01 00 00 00	 mov	 ecx, 1
  00f4a	ff 15 00 00 00
	00		 call	 QWORD PTR __imp___acrt_iob_func
  00f50	8b 8c 24 9c 00
	00 00		 mov	 ecx, DWORD PTR tv634[rsp]
  00f57	89 4c 24 40	 mov	 DWORD PTR [rsp+64], ecx
  00f5b	48 8b 8c 24 00
	01 00 00	 mov	 rcx, QWORD PTR tv636[rsp]
  00f63	48 89 4c 24 38	 mov	 QWORD PTR [rsp+56], rcx
  00f68	48 8d 0d 00 00
	00 00		 lea	 rcx, OFFSET FLAT:$SG196794
  00f6f	48 89 4c 24 30	 mov	 QWORD PTR [rsp+48], rcx
  00f74	48 8d 0d 00 00
	00 00		 lea	 rcx, OFFSET FLAT:$SG196795
  00f7b	48 89 4c 24 28	 mov	 QWORD PTR [rsp+40], rcx
  00f80	48 89 44 24 20	 mov	 QWORD PTR [rsp+32], rax
  00f85	41 b9 03 00 00
	00		 mov	 r9d, 3
  00f8b	4c 8d 05 00 00
	00 00		 lea	 r8, OFFSET FLAT:$SG196796
  00f92	ba 5a 08 00 00	 mov	 edx, 2138		; 0000085aH
  00f97	48 8d 0d 00 00
	00 00		 lea	 rcx, OFFSET FLAT:$SG196797
  00f9e	ff 15 00 00 00
	00		 call	 QWORD PTR __imp_fwritemsg
  00fa4	e9 87 fe ff ff	 jmp	 $enter_txf_slower_loop$170
$LN118@z900_run_c:
$LN117@z900_run_c:
  00fa9	33 c0		 xor	 eax, eax
  00fab	85 c0		 test	 eax, eax
  00fad	0f 85 f7 fe ff
	ff		 jne	 $LN37@z900_run_c
$LN40@z900_run_c:
$LN43@z900_run_c:

; 2139 :     TXF_EXECUTE_INSTRUCTION( current_opcode_table, ip, regs );

  00fb3	48 8b 44 24 60	 mov	 rax, QWORD PTR regs$[rsp]
  00fb8	0f b6 80 58 0e
	00 00		 movzx	 eax, BYTE PTR [rax+3672]
  00fbf	85 c0		 test	 eax, eax
  00fc1	0f 84 79 01 00
	00		 je	 $LN119@z900_run_c
$LN46@z900_run_c:
  00fc7	33 c0		 xor	 eax, eax
  00fc9	83 f8 01	 cmp	 eax, 1
  00fcc	74 5d		 je	 SHORT $LN120@z900_run_c
  00fce	48 8b 44 24 60	 mov	 rax, QWORD PTR regs$[rsp]
  00fd3	0f b6 80 4c 0e
	00 00		 movzx	 eax, BYTE PTR [rax+3660]
  00fda	85 c0		 test	 eax, eax
  00fdc	74 4d		 je	 SHORT $LN120@z900_run_c
  00fde	48 8b 44 24 60	 mov	 rax, QWORD PTR regs$[rsp]
  00fe3	48 8b 4c 24 60	 mov	 rcx, QWORD PTR regs$[rsp]
  00fe8	48 8b 89 60 af
	00 00		 mov	 rcx, QWORD PTR [rcx+44896]
  00fef	48 39 48 68	 cmp	 QWORD PTR [rax+104], rcx
  00ff3	72 36		 jb	 SHORT $LN120@z900_run_c
  00ff5	48 8b 44 24 60	 mov	 rax, QWORD PTR regs$[rsp]
  00ffa	8b 80 84 af 00
	00		 mov	 eax, DWORD PTR [rax+44932]
  01000	0f ba e8 1f	 bts	 eax, 31
  01004	48 8b 4c 24 60	 mov	 rcx, QWORD PTR regs$[rsp]
  01009	89 81 84 af 00
	00		 mov	 DWORD PTR [rcx+44932], eax
  0100f	4c 8d 0d 00 00
	00 00		 lea	 r9, OFFSET FLAT:$SG196800
  01016	41 b8 0b 00 00
	00		 mov	 r8d, 11
  0101c	ba fe ff ff ff	 mov	 edx, -2
  01021	48 8b 4c 24 60	 mov	 rcx, QWORD PTR regs$[rsp]
  01026	e8 00 00 00 00	 call	 z900_abort_transaction
$LN120@z900_run_c:
  0102b	33 c0		 xor	 eax, eax
  0102d	85 c0		 test	 eax, eax
  0102f	75 96		 jne	 SHORT $LN46@z900_run_c
  01031	48 8b 44 24 60	 mov	 rax, QWORD PTR regs$[rsp]
  01036	0f b7 80 5e 0e
	00 00		 movzx	 eax, WORD PTR [rax+3678]
  0103d	66 ff c0	 inc	 ax
  01040	48 8b 4c 24 60	 mov	 rcx, QWORD PTR regs$[rsp]
  01045	66 89 81 5e 0e
	00 00		 mov	 WORD PTR [rcx+3678], ax
$LN49@z900_run_c:
  0104c	33 c0		 xor	 eax, eax
  0104e	83 f8 01	 cmp	 eax, 1
  01051	74 72		 je	 SHORT $LN121@z900_run_c
  01053	48 8b 44 24 60	 mov	 rax, QWORD PTR regs$[rsp]
  01058	0f b6 80 4c 0e
	00 00		 movzx	 eax, BYTE PTR [rax+3660]
  0105f	85 c0		 test	 eax, eax
  01061	74 62		 je	 SHORT $LN121@z900_run_c
  01063	48 8b 44 24 60	 mov	 rax, QWORD PTR regs$[rsp]
  01068	0f b7 80 5e 0e
	00 00		 movzx	 eax, WORD PTR [rax+3678]
  0106f	83 f8 20	 cmp	 eax, 32			; 00000020H
  01072	7e 51		 jle	 SHORT $LN121@z900_run_c
  01074	41 b8 02 00 00
	00		 mov	 r8d, 2
  0107a	48 8d 15 00 00
	00 00		 lea	 rdx, OFFSET FLAT:$SG196802
  01081	48 8b 4c 24 70	 mov	 rcx, QWORD PTR ip$[rsp]
  01086	e8 00 00 00 00	 call	 memcmp
  0108b	85 c0		 test	 eax, eax
  0108d	74 36		 je	 SHORT $LN121@z900_run_c
  0108f	48 8b 44 24 60	 mov	 rax, QWORD PTR regs$[rsp]
  01094	8b 80 84 af 00
	00		 mov	 eax, DWORD PTR [rax+44932]
  0109a	0f ba e8 1e	 bts	 eax, 30
  0109e	48 8b 4c 24 60	 mov	 rcx, QWORD PTR regs$[rsp]
  010a3	89 81 84 af 00
	00		 mov	 DWORD PTR [rcx+44932], eax
  010a9	4c 8d 0d 00 00
	00 00		 lea	 r9, OFFSET FLAT:$SG196803
  010b0	41 b8 0b 00 00
	00		 mov	 r8d, 11
  010b6	ba fe ff ff ff	 mov	 edx, -2
  010bb	48 8b 4c 24 60	 mov	 rcx, QWORD PTR regs$[rsp]
  010c0	e8 00 00 00 00	 call	 z900_abort_transaction
$LN121@z900_run_c:
  010c5	33 c0		 xor	 eax, eax
  010c7	85 c0		 test	 eax, eax
  010c9	75 81		 jne	 SHORT $LN49@z900_run_c
$LN52@z900_run_c:
  010cb	33 c0		 xor	 eax, eax
  010cd	83 f8 01	 cmp	 eax, 1
  010d0	74 68		 je	 SHORT $LN122@z900_run_c
  010d2	48 8b 44 24 60	 mov	 rax, QWORD PTR regs$[rsp]
  010d7	0f b7 80 60 0e
	00 00		 movzx	 eax, WORD PTR [rax+3680]
  010de	85 c0		 test	 eax, eax
  010e0	74 58		 je	 SHORT $LN122@z900_run_c
  010e2	48 8b 44 24 60	 mov	 rax, QWORD PTR regs$[rsp]
  010e7	0f b7 80 5e 0e
	00 00		 movzx	 eax, WORD PTR [rax+3678]
  010ee	48 8b 4c 24 60	 mov	 rcx, QWORD PTR regs$[rsp]
  010f3	0f b7 89 60 0e
	00 00		 movzx	 ecx, WORD PTR [rcx+3680]
  010fa	3b c1		 cmp	 eax, ecx
  010fc	7c 3c		 jl	 SHORT $LN122@z900_run_c
  010fe	48 8b 44 24 60	 mov	 rax, QWORD PTR regs$[rsp]
  01103	8b 80 84 af 00
	00		 mov	 eax, DWORD PTR [rax+44932]
  01109	0f ba e8 1d	 bts	 eax, 29
  0110d	48 8b 4c 24 60	 mov	 rcx, QWORD PTR regs$[rsp]
  01112	89 81 84 af 00
	00		 mov	 DWORD PTR [rcx+44932], eax
  01118	4c 8d 0d 00 00
	00 00		 lea	 r9, OFFSET FLAT:$SG196805
  0111f	48 8b 44 24 60	 mov	 rax, QWORD PTR regs$[rsp]
  01124	44 8b 80 0c af
	00 00		 mov	 r8d, DWORD PTR [rax+44812]
  0112b	ba fe ff ff ff	 mov	 edx, -2
  01130	48 8b 4c 24 60	 mov	 rcx, QWORD PTR regs$[rsp]
  01135	e8 00 00 00 00	 call	 z900_abort_transaction
$LN122@z900_run_c:
  0113a	33 c0		 xor	 eax, eax
  0113c	85 c0		 test	 eax, eax
  0113e	75 8b		 jne	 SHORT $LN52@z900_run_c
$LN119@z900_run_c:
  01140	33 c0		 xor	 eax, eax
  01142	85 c0		 test	 eax, eax
  01144	0f 85 69 fe ff
	ff		 jne	 $LN43@z900_run_c
  0114a	48 8b 4c 24 70	 mov	 rcx, QWORD PTR ip$[rsp]
  0114f	e8 00 00 00 00	 call	 fetch_hw_noswap
  01154	0f b7 c8	 movzx	 ecx, ax
  01157	e8 00 00 00 00	 call	 _byteswap_ushort
  0115c	0f b7 c0	 movzx	 eax, ax
  0115f	48 8b 54 24 60	 mov	 rdx, QWORD PTR regs$[rsp]
  01164	48 8b 4c 24 70	 mov	 rcx, QWORD PTR ip$[rsp]
  01169	48 8b 7c 24 78	 mov	 rdi, QWORD PTR current_opcode_table$[rsp]
  0116e	ff 14 c7	 call	 QWORD PTR [rdi+rax*8]
  01171	33 c0		 xor	 eax, eax
  01173	85 c0		 test	 eax, eax
  01175	0f 85 38 fe ff
	ff		 jne	 $LN40@z900_run_c

; 2140 :     regs->instcount++;

  0117b	48 8b 44 24 60	 mov	 rax, QWORD PTR regs$[rsp]
  01180	8b 80 98 07 00
	00		 mov	 eax, DWORD PTR [rax+1944]
  01186	ff c0		 inc	 eax
  01188	48 8b 4c 24 60	 mov	 rcx, QWORD PTR regs$[rsp]
  0118d	89 81 98 07 00
	00		 mov	 DWORD PTR [rcx+1944], eax

; 2141 :     UPDATE_SYSBLK_INSTCOUNT( 1 );

  01193	48 8b 05 00 00
	00 00		 mov	 rax, QWORD PTR __imp_sysblk
  0119a	48 05 80 14 00
	00		 add	 rax, 5248		; 00001480H
  011a0	ba 01 00 00 00	 mov	 edx, 1
  011a5	48 8b c8	 mov	 rcx, rax
  011a8	e8 00 00 00 00	 call	 atomic_update64

; 2142 : 
; 2143 :     for (i=0; i < MAX_CPU_LOOPS/2; i++)

  011ad	c7 44 24 68 00
	00 00 00	 mov	 DWORD PTR i$[rsp], 0
  011b5	eb 0a		 jmp	 SHORT $LN55@z900_run_c
$LN53@z900_run_c:
  011b7	8b 44 24 68	 mov	 eax, DWORD PTR i$[rsp]
  011bb	ff c0		 inc	 eax
  011bd	89 44 24 68	 mov	 DWORD PTR i$[rsp], eax
$LN55@z900_run_c:
  011c1	81 7c 24 68 80
	00 00 00	 cmp	 DWORD PTR i$[rsp], 128	; 00000080H
  011c9	0f 8d 17 04 00
	00		 jge	 $LN54@z900_run_c

; 2144 :     {
; 2145 :         if (!regs->txf_tnd)

  011cf	48 8b 44 24 60	 mov	 rax, QWORD PTR regs$[rsp]
  011d4	0f b6 80 58 0e
	00 00		 movzx	 eax, BYTE PTR [rax+3672]
  011db	85 c0		 test	 eax, eax
  011dd	75 05		 jne	 SHORT $LN123@z900_run_c

; 2146 :             break;

  011df	e9 02 04 00 00	 jmp	 $LN54@z900_run_c
$LN123@z900_run_c:

; 2147 : 
; 2148 :         TXF_UNROLLED_EXECUTE( current_opcode_table, regs );

  011e4	48 8b 44 24 60	 mov	 rax, QWORD PTR regs$[rsp]
  011e9	48 8b 4c 24 60	 mov	 rcx, QWORD PTR regs$[rsp]
  011ee	48 8b 89 08 02
	00 00		 mov	 rcx, QWORD PTR [rcx+520]
  011f5	48 39 48 68	 cmp	 QWORD PTR [rax+104], rcx
  011f9	72 05		 jb	 SHORT $LN124@z900_run_c
  011fb	e9 e6 03 00 00	 jmp	 $LN54@z900_run_c
$LN124@z900_run_c:
$LN58@z900_run_c:
$LN61@z900_run_c:
  01200	48 8b 44 24 60	 mov	 rax, QWORD PTR regs$[rsp]
  01205	0f b6 80 58 0e
	00 00		 movzx	 eax, BYTE PTR [rax+3672]
  0120c	85 c0		 test	 eax, eax
  0120e	0f 84 81 01 00
	00		 je	 $LN125@z900_run_c
$LN64@z900_run_c:
  01214	33 c0		 xor	 eax, eax
  01216	83 f8 01	 cmp	 eax, 1
  01219	74 5d		 je	 SHORT $LN126@z900_run_c
  0121b	48 8b 44 24 60	 mov	 rax, QWORD PTR regs$[rsp]
  01220	0f b6 80 4c 0e
	00 00		 movzx	 eax, BYTE PTR [rax+3660]
  01227	85 c0		 test	 eax, eax
  01229	74 4d		 je	 SHORT $LN126@z900_run_c
  0122b	48 8b 44 24 60	 mov	 rax, QWORD PTR regs$[rsp]
  01230	48 8b 4c 24 60	 mov	 rcx, QWORD PTR regs$[rsp]
  01235	48 8b 89 60 af
	00 00		 mov	 rcx, QWORD PTR [rcx+44896]
  0123c	48 39 48 68	 cmp	 QWORD PTR [rax+104], rcx
  01240	72 36		 jb	 SHORT $LN126@z900_run_c
  01242	48 8b 44 24 60	 mov	 rax, QWORD PTR regs$[rsp]
  01247	8b 80 84 af 00
	00		 mov	 eax, DWORD PTR [rax+44932]
  0124d	0f ba e8 1f	 bts	 eax, 31
  01251	48 8b 4c 24 60	 mov	 rcx, QWORD PTR regs$[rsp]
  01256	89 81 84 af 00
	00		 mov	 DWORD PTR [rcx+44932], eax
  0125c	4c 8d 0d 00 00
	00 00		 lea	 r9, OFFSET FLAT:$SG196810
  01263	41 b8 0b 00 00
	00		 mov	 r8d, 11
  01269	ba fe ff ff ff	 mov	 edx, -2
  0126e	48 8b 4c 24 60	 mov	 rcx, QWORD PTR regs$[rsp]
  01273	e8 00 00 00 00	 call	 z900_abort_transaction
$LN126@z900_run_c:
  01278	33 c0		 xor	 eax, eax
  0127a	85 c0		 test	 eax, eax
  0127c	75 96		 jne	 SHORT $LN64@z900_run_c
  0127e	48 8b 44 24 60	 mov	 rax, QWORD PTR regs$[rsp]
  01283	0f b7 80 5e 0e
	00 00		 movzx	 eax, WORD PTR [rax+3678]
  0128a	66 ff c0	 inc	 ax
  0128d	48 8b 4c 24 60	 mov	 rcx, QWORD PTR regs$[rsp]
  01292	66 89 81 5e 0e
	00 00		 mov	 WORD PTR [rcx+3678], ax
$LN67@z900_run_c:
  01299	33 c0		 xor	 eax, eax
  0129b	83 f8 01	 cmp	 eax, 1
  0129e	74 76		 je	 SHORT $LN127@z900_run_c
  012a0	48 8b 44 24 60	 mov	 rax, QWORD PTR regs$[rsp]
  012a5	0f b6 80 4c 0e
	00 00		 movzx	 eax, BYTE PTR [rax+3660]
  012ac	85 c0		 test	 eax, eax
  012ae	74 66		 je	 SHORT $LN127@z900_run_c
  012b0	48 8b 44 24 60	 mov	 rax, QWORD PTR regs$[rsp]
  012b5	0f b7 80 5e 0e
	00 00		 movzx	 eax, WORD PTR [rax+3678]
  012bc	83 f8 20	 cmp	 eax, 32			; 00000020H
  012bf	7e 55		 jle	 SHORT $LN127@z900_run_c
  012c1	41 b8 02 00 00
	00		 mov	 r8d, 2
  012c7	48 8d 15 00 00
	00 00		 lea	 rdx, OFFSET FLAT:$SG196812
  012ce	48 8b 44 24 60	 mov	 rax, QWORD PTR regs$[rsp]
  012d3	48 8b 48 68	 mov	 rcx, QWORD PTR [rax+104]
  012d7	e8 00 00 00 00	 call	 memcmp
  012dc	85 c0		 test	 eax, eax
  012de	74 36		 je	 SHORT $LN127@z900_run_c
  012e0	48 8b 44 24 60	 mov	 rax, QWORD PTR regs$[rsp]
  012e5	8b 80 84 af 00
	00		 mov	 eax, DWORD PTR [rax+44932]
  012eb	0f ba e8 1e	 bts	 eax, 30
  012ef	48 8b 4c 24 60	 mov	 rcx, QWORD PTR regs$[rsp]
  012f4	89 81 84 af 00
	00		 mov	 DWORD PTR [rcx+44932], eax
  012fa	4c 8d 0d 00 00
	00 00		 lea	 r9, OFFSET FLAT:$SG196813
  01301	41 b8 0b 00 00
	00		 mov	 r8d, 11
  01307	ba fe ff ff ff	 mov	 edx, -2
  0130c	48 8b 4c 24 60	 mov	 rcx, QWORD PTR regs$[rsp]
  01311	e8 00 00 00 00	 call	 z900_abort_transaction
$LN127@z900_run_c:
  01316	33 c0		 xor	 eax, eax
  01318	85 c0		 test	 eax, eax
  0131a	0f 85 79 ff ff
	ff		 jne	 $LN67@z900_run_c
$LN70@z900_run_c:
  01320	33 c0		 xor	 eax, eax
  01322	83 f8 01	 cmp	 eax, 1
  01325	74 68		 je	 SHORT $LN128@z900_run_c
  01327	48 8b 44 24 60	 mov	 rax, QWORD PTR regs$[rsp]
  0132c	0f b7 80 60 0e
	00 00		 movzx	 eax, WORD PTR [rax+3680]
  01333	85 c0		 test	 eax, eax
  01335	74 58		 je	 SHORT $LN128@z900_run_c
  01337	48 8b 44 24 60	 mov	 rax, QWORD PTR regs$[rsp]
  0133c	0f b7 80 5e 0e
	00 00		 movzx	 eax, WORD PTR [rax+3678]
  01343	48 8b 4c 24 60	 mov	 rcx, QWORD PTR regs$[rsp]
  01348	0f b7 89 60 0e
	00 00		 movzx	 ecx, WORD PTR [rcx+3680]
  0134f	3b c1		 cmp	 eax, ecx
  01351	7c 3c		 jl	 SHORT $LN128@z900_run_c
  01353	48 8b 44 24 60	 mov	 rax, QWORD PTR regs$[rsp]
  01358	8b 80 84 af 00
	00		 mov	 eax, DWORD PTR [rax+44932]
  0135e	0f ba e8 1d	 bts	 eax, 29
  01362	48 8b 4c 24 60	 mov	 rcx, QWORD PTR regs$[rsp]
  01367	89 81 84 af 00
	00		 mov	 DWORD PTR [rcx+44932], eax
  0136d	4c 8d 0d 00 00
	00 00		 lea	 r9, OFFSET FLAT:$SG196815
  01374	48 8b 44 24 60	 mov	 rax, QWORD PTR regs$[rsp]
  01379	44 8b 80 0c af
	00 00		 mov	 r8d, DWORD PTR [rax+44812]
  01380	ba fe ff ff ff	 mov	 edx, -2
  01385	48 8b 4c 24 60	 mov	 rcx, QWORD PTR regs$[rsp]
  0138a	e8 00 00 00 00	 call	 z900_abort_transaction
$LN128@z900_run_c:
  0138f	33 c0		 xor	 eax, eax
  01391	85 c0		 test	 eax, eax
  01393	75 8b		 jne	 SHORT $LN70@z900_run_c
$LN125@z900_run_c:
  01395	33 c0		 xor	 eax, eax
  01397	85 c0		 test	 eax, eax
  01399	0f 85 61 fe ff
	ff		 jne	 $LN61@z900_run_c
  0139f	48 8b 44 24 60	 mov	 rax, QWORD PTR regs$[rsp]
  013a4	48 8b 48 68	 mov	 rcx, QWORD PTR [rax+104]
  013a8	e8 00 00 00 00	 call	 fetch_hw_noswap
  013ad	0f b7 c8	 movzx	 ecx, ax
  013b0	e8 00 00 00 00	 call	 _byteswap_ushort
  013b5	0f b7 c0	 movzx	 eax, ax
  013b8	48 8b 54 24 60	 mov	 rdx, QWORD PTR regs$[rsp]
  013bd	48 8b 4c 24 60	 mov	 rcx, QWORD PTR regs$[rsp]
  013c2	48 8b 49 68	 mov	 rcx, QWORD PTR [rcx+104]
  013c6	48 8b 7c 24 78	 mov	 rdi, QWORD PTR current_opcode_table$[rsp]
  013cb	ff 14 c7	 call	 QWORD PTR [rdi+rax*8]
  013ce	33 c0		 xor	 eax, eax
  013d0	85 c0		 test	 eax, eax
  013d2	0f 85 28 fe ff
	ff		 jne	 $LN58@z900_run_c

; 2149 : 
; 2150 :         if (!regs->txf_tnd)

  013d8	48 8b 44 24 60	 mov	 rax, QWORD PTR regs$[rsp]
  013dd	0f b6 80 58 0e
	00 00		 movzx	 eax, BYTE PTR [rax+3672]
  013e4	85 c0		 test	 eax, eax
  013e6	75 05		 jne	 SHORT $LN129@z900_run_c

; 2151 :             break;

  013e8	e9 f9 01 00 00	 jmp	 $LN54@z900_run_c
$LN129@z900_run_c:

; 2152 : 
; 2153 :         TXF_UNROLLED_EXECUTE( current_opcode_table, regs );

  013ed	48 8b 44 24 60	 mov	 rax, QWORD PTR regs$[rsp]
  013f2	48 8b 4c 24 60	 mov	 rcx, QWORD PTR regs$[rsp]
  013f7	48 8b 89 08 02
	00 00		 mov	 rcx, QWORD PTR [rcx+520]
  013fe	48 39 48 68	 cmp	 QWORD PTR [rax+104], rcx
  01402	72 05		 jb	 SHORT $LN130@z900_run_c
  01404	e9 dd 01 00 00	 jmp	 $LN54@z900_run_c
$LN130@z900_run_c:
$LN73@z900_run_c:
$LN76@z900_run_c:
  01409	48 8b 44 24 60	 mov	 rax, QWORD PTR regs$[rsp]
  0140e	0f b6 80 58 0e
	00 00		 movzx	 eax, BYTE PTR [rax+3672]
  01415	85 c0		 test	 eax, eax
  01417	0f 84 81 01 00
	00		 je	 $LN131@z900_run_c
$LN79@z900_run_c:
  0141d	33 c0		 xor	 eax, eax
  0141f	83 f8 01	 cmp	 eax, 1
  01422	74 5d		 je	 SHORT $LN132@z900_run_c
  01424	48 8b 44 24 60	 mov	 rax, QWORD PTR regs$[rsp]
  01429	0f b6 80 4c 0e
	00 00		 movzx	 eax, BYTE PTR [rax+3660]
  01430	85 c0		 test	 eax, eax
  01432	74 4d		 je	 SHORT $LN132@z900_run_c
  01434	48 8b 44 24 60	 mov	 rax, QWORD PTR regs$[rsp]
  01439	48 8b 4c 24 60	 mov	 rcx, QWORD PTR regs$[rsp]
  0143e	48 8b 89 60 af
	00 00		 mov	 rcx, QWORD PTR [rcx+44896]
  01445	48 39 48 68	 cmp	 QWORD PTR [rax+104], rcx
  01449	72 36		 jb	 SHORT $LN132@z900_run_c
  0144b	48 8b 44 24 60	 mov	 rax, QWORD PTR regs$[rsp]
  01450	8b 80 84 af 00
	00		 mov	 eax, DWORD PTR [rax+44932]
  01456	0f ba e8 1f	 bts	 eax, 31
  0145a	48 8b 4c 24 60	 mov	 rcx, QWORD PTR regs$[rsp]
  0145f	89 81 84 af 00
	00		 mov	 DWORD PTR [rcx+44932], eax
  01465	4c 8d 0d 00 00
	00 00		 lea	 r9, OFFSET FLAT:$SG196820
  0146c	41 b8 0b 00 00
	00		 mov	 r8d, 11
  01472	ba fe ff ff ff	 mov	 edx, -2
  01477	48 8b 4c 24 60	 mov	 rcx, QWORD PTR regs$[rsp]
  0147c	e8 00 00 00 00	 call	 z900_abort_transaction
$LN132@z900_run_c:
  01481	33 c0		 xor	 eax, eax
  01483	85 c0		 test	 eax, eax
  01485	75 96		 jne	 SHORT $LN79@z900_run_c
  01487	48 8b 44 24 60	 mov	 rax, QWORD PTR regs$[rsp]
  0148c	0f b7 80 5e 0e
	00 00		 movzx	 eax, WORD PTR [rax+3678]
  01493	66 ff c0	 inc	 ax
  01496	48 8b 4c 24 60	 mov	 rcx, QWORD PTR regs$[rsp]
  0149b	66 89 81 5e 0e
	00 00		 mov	 WORD PTR [rcx+3678], ax
$LN82@z900_run_c:
  014a2	33 c0		 xor	 eax, eax
  014a4	83 f8 01	 cmp	 eax, 1
  014a7	74 76		 je	 SHORT $LN133@z900_run_c
  014a9	48 8b 44 24 60	 mov	 rax, QWORD PTR regs$[rsp]
  014ae	0f b6 80 4c 0e
	00 00		 movzx	 eax, BYTE PTR [rax+3660]
  014b5	85 c0		 test	 eax, eax
  014b7	74 66		 je	 SHORT $LN133@z900_run_c
  014b9	48 8b 44 24 60	 mov	 rax, QWORD PTR regs$[rsp]
  014be	0f b7 80 5e 0e
	00 00		 movzx	 eax, WORD PTR [rax+3678]
  014c5	83 f8 20	 cmp	 eax, 32			; 00000020H
  014c8	7e 55		 jle	 SHORT $LN133@z900_run_c
  014ca	41 b8 02 00 00
	00		 mov	 r8d, 2
  014d0	48 8d 15 00 00
	00 00		 lea	 rdx, OFFSET FLAT:$SG196822
  014d7	48 8b 44 24 60	 mov	 rax, QWORD PTR regs$[rsp]
  014dc	48 8b 48 68	 mov	 rcx, QWORD PTR [rax+104]
  014e0	e8 00 00 00 00	 call	 memcmp
  014e5	85 c0		 test	 eax, eax
  014e7	74 36		 je	 SHORT $LN133@z900_run_c
  014e9	48 8b 44 24 60	 mov	 rax, QWORD PTR regs$[rsp]
  014ee	8b 80 84 af 00
	00		 mov	 eax, DWORD PTR [rax+44932]
  014f4	0f ba e8 1e	 bts	 eax, 30
  014f8	48 8b 4c 24 60	 mov	 rcx, QWORD PTR regs$[rsp]
  014fd	89 81 84 af 00
	00		 mov	 DWORD PTR [rcx+44932], eax
  01503	4c 8d 0d 00 00
	00 00		 lea	 r9, OFFSET FLAT:$SG196823
  0150a	41 b8 0b 00 00
	00		 mov	 r8d, 11
  01510	ba fe ff ff ff	 mov	 edx, -2
  01515	48 8b 4c 24 60	 mov	 rcx, QWORD PTR regs$[rsp]
  0151a	e8 00 00 00 00	 call	 z900_abort_transaction
$LN133@z900_run_c:
  0151f	33 c0		 xor	 eax, eax
  01521	85 c0		 test	 eax, eax
  01523	0f 85 79 ff ff
	ff		 jne	 $LN82@z900_run_c
$LN85@z900_run_c:
  01529	33 c0		 xor	 eax, eax
  0152b	83 f8 01	 cmp	 eax, 1
  0152e	74 68		 je	 SHORT $LN134@z900_run_c
  01530	48 8b 44 24 60	 mov	 rax, QWORD PTR regs$[rsp]
  01535	0f b7 80 60 0e
	00 00		 movzx	 eax, WORD PTR [rax+3680]
  0153c	85 c0		 test	 eax, eax
  0153e	74 58		 je	 SHORT $LN134@z900_run_c
  01540	48 8b 44 24 60	 mov	 rax, QWORD PTR regs$[rsp]
  01545	0f b7 80 5e 0e
	00 00		 movzx	 eax, WORD PTR [rax+3678]
  0154c	48 8b 4c 24 60	 mov	 rcx, QWORD PTR regs$[rsp]
  01551	0f b7 89 60 0e
	00 00		 movzx	 ecx, WORD PTR [rcx+3680]
  01558	3b c1		 cmp	 eax, ecx
  0155a	7c 3c		 jl	 SHORT $LN134@z900_run_c
  0155c	48 8b 44 24 60	 mov	 rax, QWORD PTR regs$[rsp]
  01561	8b 80 84 af 00
	00		 mov	 eax, DWORD PTR [rax+44932]
  01567	0f ba e8 1d	 bts	 eax, 29
  0156b	48 8b 4c 24 60	 mov	 rcx, QWORD PTR regs$[rsp]
  01570	89 81 84 af 00
	00		 mov	 DWORD PTR [rcx+44932], eax
  01576	4c 8d 0d 00 00
	00 00		 lea	 r9, OFFSET FLAT:$SG196825
  0157d	48 8b 44 24 60	 mov	 rax, QWORD PTR regs$[rsp]
  01582	44 8b 80 0c af
	00 00		 mov	 r8d, DWORD PTR [rax+44812]
  01589	ba fe ff ff ff	 mov	 edx, -2
  0158e	48 8b 4c 24 60	 mov	 rcx, QWORD PTR regs$[rsp]
  01593	e8 00 00 00 00	 call	 z900_abort_transaction
$LN134@z900_run_c:
  01598	33 c0		 xor	 eax, eax
  0159a	85 c0		 test	 eax, eax
  0159c	75 8b		 jne	 SHORT $LN85@z900_run_c
$LN131@z900_run_c:
  0159e	33 c0		 xor	 eax, eax
  015a0	85 c0		 test	 eax, eax
  015a2	0f 85 61 fe ff
	ff		 jne	 $LN76@z900_run_c
  015a8	48 8b 44 24 60	 mov	 rax, QWORD PTR regs$[rsp]
  015ad	48 8b 48 68	 mov	 rcx, QWORD PTR [rax+104]
  015b1	e8 00 00 00 00	 call	 fetch_hw_noswap
  015b6	0f b7 c8	 movzx	 ecx, ax
  015b9	e8 00 00 00 00	 call	 _byteswap_ushort
  015be	0f b7 c0	 movzx	 eax, ax
  015c1	48 8b 54 24 60	 mov	 rdx, QWORD PTR regs$[rsp]
  015c6	48 8b 4c 24 60	 mov	 rcx, QWORD PTR regs$[rsp]
  015cb	48 8b 49 68	 mov	 rcx, QWORD PTR [rcx+104]
  015cf	48 8b 7c 24 78	 mov	 rdi, QWORD PTR current_opcode_table$[rsp]
  015d4	ff 14 c7	 call	 QWORD PTR [rdi+rax*8]
  015d7	33 c0		 xor	 eax, eax
  015d9	85 c0		 test	 eax, eax
  015db	0f 85 28 fe ff
	ff		 jne	 $LN73@z900_run_c

; 2154 :     }

  015e1	e9 d1 fb ff ff	 jmp	 $LN53@z900_run_c
$LN54@z900_run_c:

; 2155 :     regs->instcount   +=     (i * 2);

  015e6	48 8b 44 24 60	 mov	 rax, QWORD PTR regs$[rsp]
  015eb	8b 80 98 07 00
	00		 mov	 eax, DWORD PTR [rax+1944]
  015f1	8b 4c 24 68	 mov	 ecx, DWORD PTR i$[rsp]
  015f5	8d 04 48	 lea	 eax, DWORD PTR [rax+rcx*2]
  015f8	48 8b 4c 24 60	 mov	 rcx, QWORD PTR regs$[rsp]
  015fd	89 81 98 07 00
	00		 mov	 DWORD PTR [rcx+1944], eax

; 2156 :     UPDATE_SYSBLK_INSTCOUNT( (i * 2) );

  01603	8b 44 24 68	 mov	 eax, DWORD PTR i$[rsp]
  01607	d1 e0		 shl	 eax, 1
  01609	48 98		 cdqe
  0160b	48 8b 0d 00 00
	00 00		 mov	 rcx, QWORD PTR __imp_sysblk
  01612	48 81 c1 80 14
	00 00		 add	 rcx, 5248		; 00001480H
  01619	48 8b d0	 mov	 rdx, rax
  0161c	e8 00 00 00 00	 call	 atomic_update64

; 2157 : 
; 2158 :     /* Perform automatic instruction tracing if it's enabled */
; 2159 :     do_automatic_tracing();

  01621	e8 00 00 00 00	 call	 do_automatic_tracing

; 2160 :     goto txf_facility_loop;

  01626	e9 8c f4 ff ff	 jmp	 $txf_facility_loop$167
$LN1@z900_run_c:
$LN135@z900_run_c:

; 2161 : 
; 2162 : #endif /* defined( FEATURE_073_TRANSACT_EXEC_FACILITY ) */
; 2163 : 
; 2164 :     UNREACHABLE_CODE( return NULL );
; 2165 : 
; 2166 : } /* end function run_cpu */

  0162b	48 8b 8c 24 30
	01 00 00	 mov	 rcx, QWORD PTR __$ArrayPad$[rsp]
  01633	48 33 cc	 xor	 rcx, rsp
  01636	e8 00 00 00 00	 call	 __security_check_cookie
  0163b	48 81 c4 48 01
	00 00		 add	 rsp, 328		; 00000148H
  01642	5f		 pop	 rdi
  01643	5e		 pop	 rsi
  01644	c3		 ret	 0
z900_run_cpu ENDP
_TEXT	ENDS
; Function compile flags: /Odtp
; File C:\papa\MyGit\hyperion-zvector\cpu.c
_TEXT	SEGMENT
tv91 = 80
tv151 = 84
tv164 = 88
tv215 = 92
tv303 = 96
tv420 = 100
tv267 = 104
tv370 = 108
tv269 = 112
saved_timer$1 = 120
tv372 = 128
buf$2 = 136
__$ArrayPad$ = 176
regs$ = 208
z900_process_interrupt PROC

; 1680 : {

$LN85:
  00000	48 89 4c 24 08	 mov	 QWORD PTR [rsp+8], rcx
  00005	48 81 ec c8 00
	00 00		 sub	 rsp, 200		; 000000c8H
  0000c	48 8b 05 00 00
	00 00		 mov	 rax, QWORD PTR __security_cookie
  00013	48 33 c4	 xor	 rax, rsp
  00016	48 89 84 24 b0
	00 00 00	 mov	 QWORD PTR __$ArrayPad$[rsp], rax

; 1681 :     /* Process PER program interrupts */
; 1682 :     if( OPEN_IC_PER(regs) )

  0001e	48 8b 84 24 d0
	00 00 00	 mov	 rax, QWORD PTR regs$[rsp]
  00026	48 8b 8c 24 d0
	00 00 00	 mov	 rcx, QWORD PTR regs$[rsp]
  0002e	8b 49 4c	 mov	 ecx, DWORD PTR [rcx+76]
  00031	8b 40 48	 mov	 eax, DWORD PTR [rax+72]
  00034	23 c1		 and	 eax, ecx
  00036	25 00 00 ff 00	 and	 eax, 16711680		; 00ff0000H
  0003b	85 c0		 test	 eax, eax
  0003d	74 1b		 je	 SHORT $LN35@z900_proce

; 1683 :         regs->program_interrupt (regs, PGM_PER_EVENT);

  0003f	ba 80 00 00 00	 mov	 edx, 128		; 00000080H
  00044	48 8b 8c 24 d0
	00 00 00	 mov	 rcx, QWORD PTR regs$[rsp]
  0004c	48 8b 84 24 d0
	00 00 00	 mov	 rax, QWORD PTR regs$[rsp]
  00054	ff 90 20 0d 00
	00		 call	 QWORD PTR [rax+3360]
$LN35@z900_proce:

; 1684 : 
; 1685 :     /* Obtain the interrupt lock */
; 1686 :     OBTAIN_INTLOCK(regs);

  0005a	48 8d 15 00 00
	00 00		 lea	 rdx, OFFSET FLAT:$SG196544
  00061	48 8b 8c 24 d0
	00 00 00	 mov	 rcx, QWORD PTR regs$[rsp]
  00069	e8 00 00 00 00	 call	 Obtain_Interrupt_Lock
$LN4@z900_proce:

; 1687 :     OFF_IC_INTERRUPT(regs);

  0006e	48 8b 84 24 d0
	00 00 00	 mov	 rax, QWORD PTR regs$[rsp]
  00076	8b 40 48	 mov	 eax, DWORD PTR [rax+72]
  00079	0f ba f0 1f	 btr	 eax, 31
  0007d	48 8b 8c 24 d0
	00 00 00	 mov	 rcx, QWORD PTR regs$[rsp]
  00085	89 41 48	 mov	 DWORD PTR [rcx+72], eax
  00088	33 c0		 xor	 eax, eax
  0008a	85 c0		 test	 eax, eax
  0008c	75 e0		 jne	 SHORT $LN4@z900_proce

; 1688 :     regs->breakortrace = (sysblk.instbreak || (sysblk.insttrace && regs->insttrace));

  0008e	48 8b 05 00 00
	00 00		 mov	 rax, QWORD PTR __imp_sysblk
  00095	8b 80 94 12 00
	00		 mov	 eax, DWORD PTR [rax+4756]
  0009b	c1 e8 0a	 shr	 eax, 10
  0009e	83 e0 01	 and	 eax, 1
  000a1	85 c0		 test	 eax, eax
  000a3	75 39		 jne	 SHORT $LN63@z900_proce
  000a5	48 8b 05 00 00
	00 00		 mov	 rax, QWORD PTR __imp_sysblk
  000ac	8b 80 94 12 00
	00		 mov	 eax, DWORD PTR [rax+4756]
  000b2	c1 e8 08	 shr	 eax, 8
  000b5	83 e0 01	 and	 eax, 1
  000b8	85 c0		 test	 eax, eax
  000ba	74 18		 je	 SHORT $LN62@z900_proce
  000bc	48 8b 84 24 d0
	00 00 00	 mov	 rax, QWORD PTR regs$[rsp]
  000c4	8b 80 28 07 00
	00		 mov	 eax, DWORD PTR [rax+1832]
  000ca	c1 e8 0f	 shr	 eax, 15
  000cd	83 e0 01	 and	 eax, 1
  000d0	85 c0		 test	 eax, eax
  000d2	75 0a		 jne	 SHORT $LN63@z900_proce
$LN62@z900_proce:
  000d4	c7 44 24 50 00
	00 00 00	 mov	 DWORD PTR tv91[rsp], 0
  000dc	eb 08		 jmp	 SHORT $LN64@z900_proce
$LN63@z900_proce:
  000de	c7 44 24 50 01
	00 00 00	 mov	 DWORD PTR tv91[rsp], 1
$LN64@z900_proce:
  000e6	8b 44 24 50	 mov	 eax, DWORD PTR tv91[rsp]
  000ea	83 e0 01	 and	 eax, 1
  000ed	c1 e0 10	 shl	 eax, 16
  000f0	48 8b 8c 24 d0
	00 00 00	 mov	 rcx, QWORD PTR regs$[rsp]
  000f8	8b 89 28 07 00
	00		 mov	 ecx, DWORD PTR [rcx+1832]
  000fe	0f ba f1 10	 btr	 ecx, 16
  00102	0b c8		 or	 ecx, eax
  00104	8b c1		 mov	 eax, ecx
  00106	48 8b 8c 24 d0
	00 00 00	 mov	 rcx, QWORD PTR regs$[rsp]
  0010e	89 81 28 07 00
	00		 mov	 DWORD PTR [rcx+1832], eax
$LN7@z900_proce:

; 1689 : 
; 1690 :     /* Ensure psw.IA is set and invalidate the aia */
; 1691 :     INVALIDATE_AIA(regs);

  00114	48 8b 84 24 d0
	00 00 00	 mov	 rax, QWORD PTR regs$[rsp]
  0011c	48 83 b8 08 02
	00 00 00	 cmp	 QWORD PTR [rax+520], 0
  00124	74 64		 je	 SHORT $LN36@z900_proce
  00126	48 8b 84 24 d0
	00 00 00	 mov	 rax, QWORD PTR regs$[rsp]
  0012e	48 8b 8c 24 d0
	00 00 00	 mov	 rcx, QWORD PTR regs$[rsp]
  00136	48 8b 89 00 02
	00 00		 mov	 rcx, QWORD PTR [rcx+512]
  0013d	48 8b 40 68	 mov	 rax, QWORD PTR [rax+104]
  00141	48 2b c1	 sub	 rax, rcx
  00144	48 8b 8c 24 d0
	00 00 00	 mov	 rcx, QWORD PTR regs$[rsp]
  0014c	48 8b 89 10 02
	00 00		 mov	 rcx, QWORD PTR [rcx+528]
  00153	48 03 c8	 add	 rcx, rax
  00156	48 8b c1	 mov	 rax, rcx
  00159	48 8b 8c 24 d0
	00 00 00	 mov	 rcx, QWORD PTR regs$[rsp]
  00161	48 23 81 90 00
	00 00		 and	 rax, QWORD PTR [rcx+144]
  00168	48 8b 8c 24 d0
	00 00 00	 mov	 rcx, QWORD PTR regs$[rsp]
  00170	48 89 81 88 00
	00 00		 mov	 QWORD PTR [rcx+136], rax
  00177	48 8b 84 24 d0
	00 00 00	 mov	 rax, QWORD PTR regs$[rsp]
  0017f	48 c7 80 08 02
	00 00 00 00 00
	00		 mov	 QWORD PTR [rax+520], 0
$LN36@z900_proce:
  0018a	33 c0		 xor	 eax, eax
  0018c	85 c0		 test	 eax, eax
  0018e	75 84		 jne	 SHORT $LN7@z900_proce

; 1692 : 
; 1693 :     /* Perform invalidation */
; 1694 :     if (unlikely(regs->invalidate))

  00190	48 8b 84 24 d0
	00 00 00	 mov	 rax, QWORD PTR regs$[rsp]
  00198	8b 80 28 07 00
	00		 mov	 eax, DWORD PTR [rax+1832]
  0019e	c1 e8 0e	 shr	 eax, 14
  001a1	83 e0 01	 and	 eax, 1
  001a4	85 c0		 test	 eax, eax
  001a6	74 0a		 je	 SHORT $LN67@z900_proce
  001a8	c7 44 24 54 01
	00 00 00	 mov	 DWORD PTR tv151[rsp], 1
  001b0	eb 08		 jmp	 SHORT $LN68@z900_proce
$LN67@z900_proce:
  001b2	c7 44 24 54 00
	00 00 00	 mov	 DWORD PTR tv151[rsp], 0
$LN68@z900_proce:
  001ba	83 7c 24 54 00	 cmp	 DWORD PTR tv151[rsp], 0
  001bf	74 1c		 je	 SHORT $LN37@z900_proce

; 1695 :         ARCH_DEP(invalidate_tlbe)(regs, regs->invalidate_main);

  001c1	48 8b 84 24 d0
	00 00 00	 mov	 rax, QWORD PTR regs$[rsp]
  001c9	48 8b 90 00 09
	00 00		 mov	 rdx, QWORD PTR [rax+2304]
  001d0	48 8b 8c 24 d0
	00 00 00	 mov	 rcx, QWORD PTR regs$[rsp]
  001d8	e8 00 00 00 00	 call	 z900_invalidate_tlbe
$LN37@z900_proce:

; 1696 : 
; 1697 :     /* Take interrupts if CPU is not stopped */
; 1698 :     if (likely(regs->cpustate == CPUSTATE_STARTED))

  001dd	48 8b 84 24 d0
	00 00 00	 mov	 rax, QWORD PTR regs$[rsp]
  001e5	0f b6 40 60	 movzx	 eax, BYTE PTR [rax+96]
  001e9	83 f8 01	 cmp	 eax, 1
  001ec	75 0a		 jne	 SHORT $LN71@z900_proce
  001ee	c7 44 24 58 01
	00 00 00	 mov	 DWORD PTR tv164[rsp], 1
  001f6	eb 08		 jmp	 SHORT $LN72@z900_proce
$LN71@z900_proce:
  001f8	c7 44 24 58 00
	00 00 00	 mov	 DWORD PTR tv164[rsp], 0
$LN72@z900_proce:
  00200	83 7c 24 58 00	 cmp	 DWORD PTR tv164[rsp], 0
  00205	0f 84 3d 01 00
	00		 je	 $LN38@z900_proce

; 1699 :     {
; 1700 :         /* Process machine check interrupt */
; 1701 :         if ( OPEN_IC_MCKPENDING(regs) )

  0020b	48 8b 84 24 d0
	00 00 00	 mov	 rax, QWORD PTR regs$[rsp]
  00213	48 8b 8c 24 d0
	00 00 00	 mov	 rcx, QWORD PTR regs$[rsp]
  0021b	8b 49 4c	 mov	 ecx, DWORD PTR [rcx+76]
  0021e	8b 40 48	 mov	 eax, DWORD PTR [rax+72]
  00221	23 c1		 and	 eax, ecx
  00223	25 00 00 00 1f	 and	 eax, 520093696		; 1f000000H
  00228	85 c0		 test	 eax, eax
  0022a	74 16		 je	 SHORT $LN39@z900_proce

; 1702 :         {
; 1703 :             PERFORM_SERIALIZATION (regs);

  0022c	0f ae f0	 mfence
$LN10@z900_proce:

; 1704 :             PERFORM_CHKPT_SYNC (regs);

  0022f	33 c0		 xor	 eax, eax
  00231	85 c0		 test	 eax, eax
  00233	75 fa		 jne	 SHORT $LN10@z900_proce

; 1705 :             ARCH_DEP (perform_mck_interrupt) (regs);

  00235	48 8b 8c 24 d0
	00 00 00	 mov	 rcx, QWORD PTR regs$[rsp]
  0023d	e8 00 00 00 00	 call	 z900_perform_mck_interrupt
$LN39@z900_proce:

; 1706 :         }
; 1707 : 
; 1708 :         /* Process external interrupt */
; 1709 :         if (1
; 1710 :             && OPEN_IC_EXTPENDING( regs )
; 1711 : #if defined( FEATURE_073_TRANSACT_EXEC_FACILITY )
; 1712 :             /* Don't interrupt active transaction */
; 1713 :             && (0

  00242	33 c0		 xor	 eax, eax
  00244	83 f8 01	 cmp	 eax, 1
  00247	74 61		 je	 SHORT $LN40@z900_proce
  00249	48 8b 84 24 d0
	00 00 00	 mov	 rax, QWORD PTR regs$[rsp]
  00251	48 8b 8c 24 d0
	00 00 00	 mov	 rcx, QWORD PTR regs$[rsp]
  00259	8b 49 4c	 mov	 ecx, DWORD PTR [rcx+76]
  0025c	8b 40 48	 mov	 eax, DWORD PTR [rax+72]
  0025f	23 c1		 and	 eax, ecx
  00261	25 f0 ff 00 00	 and	 eax, 65520		; 0000fff0H
  00266	85 c0		 test	 eax, eax
  00268	74 40		 je	 SHORT $LN40@z900_proce
  0026a	33 c0		 xor	 eax, eax
  0026c	85 c0		 test	 eax, eax
  0026e	75 24		 jne	 SHORT $LN41@z900_proce
  00270	48 8b 84 24 d0
	00 00 00	 mov	 rax, QWORD PTR regs$[rsp]
  00278	0f b6 80 58 0e
	00 00		 movzx	 eax, BYTE PTR [rax+3672]
  0027f	85 c0		 test	 eax, eax
  00281	74 11		 je	 SHORT $LN41@z900_proce
  00283	48 8b 84 24 d0
	00 00 00	 mov	 rax, QWORD PTR regs$[rsp]
  0028b	83 b8 54 0e 00
	00 02		 cmp	 DWORD PTR [rax+3668], 2
  00292	7d 16		 jge	 SHORT $LN40@z900_proce
$LN41@z900_proce:

; 1714 :                 || regs->txf_tnd == 0
; 1715 :                 || regs->txf_PPA < PPA_MUCH_HELP_THRESHOLD
; 1716 :                )
; 1717 : #endif
; 1718 :         )
; 1719 :         {
; 1720 :             PERFORM_SERIALIZATION( regs );

  00294	0f ae f0	 mfence
$LN13@z900_proce:

; 1721 :             PERFORM_CHKPT_SYNC( regs );

  00297	33 c0		 xor	 eax, eax
  00299	85 c0		 test	 eax, eax
  0029b	75 fa		 jne	 SHORT $LN13@z900_proce

; 1722 :             ARCH_DEP( perform_external_interrupt )( regs );

  0029d	48 8b 8c 24 d0
	00 00 00	 mov	 rcx, QWORD PTR regs$[rsp]
  002a5	e8 00 00 00 00	 call	 z900_perform_external_interrupt
$LN40@z900_proce:

; 1723 :         }
; 1724 : 
; 1725 :         /* Process I/O interrupt */
; 1726 :         if (IS_IC_IOPENDING)

  002aa	48 8b 05 00 00
	00 00		 mov	 rax, QWORD PTR __imp_sysblk
  002b1	8b 80 a0 12 00
	00		 mov	 eax, DWORD PTR [rax+4768]
  002b7	25 00 00 00 40	 and	 eax, 1073741824		; 40000000H
  002bc	85 c0		 test	 eax, eax
  002be	0f 84 84 00 00
	00		 je	 $LN42@z900_proce

; 1727 :         {
; 1728 :             if (1
; 1729 :                 && OPEN_IC_IOPENDING( regs )
; 1730 : #if defined( FEATURE_073_TRANSACT_EXEC_FACILITY )
; 1731 :                 /* Don't interrupt active transaction */
; 1732 :                 && (0

  002c4	33 c0		 xor	 eax, eax
  002c6	83 f8 01	 cmp	 eax, 1
  002c9	74 63		 je	 SHORT $LN43@z900_proce
  002cb	48 8b 84 24 d0
	00 00 00	 mov	 rax, QWORD PTR regs$[rsp]
  002d3	48 8b 8c 24 d0
	00 00 00	 mov	 rcx, QWORD PTR regs$[rsp]
  002db	8b 49 4c	 mov	 ecx, DWORD PTR [rcx+76]
  002de	8b 40 48	 mov	 eax, DWORD PTR [rax+72]
  002e1	23 c1		 and	 eax, ecx
  002e3	25 00 00 00 40	 and	 eax, 1073741824		; 40000000H
  002e8	85 c0		 test	 eax, eax
  002ea	74 42		 je	 SHORT $LN43@z900_proce
  002ec	33 c0		 xor	 eax, eax
  002ee	85 c0		 test	 eax, eax
  002f0	75 24		 jne	 SHORT $LN45@z900_proce
  002f2	48 8b 84 24 d0
	00 00 00	 mov	 rax, QWORD PTR regs$[rsp]
  002fa	0f b6 80 58 0e
	00 00		 movzx	 eax, BYTE PTR [rax+3672]
  00301	85 c0		 test	 eax, eax
  00303	74 11		 je	 SHORT $LN45@z900_proce
  00305	48 8b 84 24 d0
	00 00 00	 mov	 rax, QWORD PTR regs$[rsp]
  0030d	83 b8 54 0e 00
	00 02		 cmp	 DWORD PTR [rax+3668], 2
  00314	7d 18		 jge	 SHORT $LN43@z900_proce
$LN45@z900_proce:

; 1733 :                     || regs->txf_tnd == 0
; 1734 :                     || regs->txf_PPA < PPA_MUCH_HELP_THRESHOLD
; 1735 :                    )
; 1736 : #endif
; 1737 :             )
; 1738 :             {
; 1739 :                 PERFORM_SERIALIZATION( regs );

  00316	0f ae f0	 mfence
$LN16@z900_proce:

; 1740 :                 PERFORM_CHKPT_SYNC( regs );

  00319	33 c0		 xor	 eax, eax
  0031b	85 c0		 test	 eax, eax
  0031d	75 fa		 jne	 SHORT $LN16@z900_proce

; 1741 :                 ARCH_DEP( perform_io_interrupt )( regs );

  0031f	48 8b 8c 24 d0
	00 00 00	 mov	 rcx, QWORD PTR regs$[rsp]
  00327	e8 00 00 00 00	 call	 z900_perform_io_interrupt

; 1742 :             }

  0032c	eb 1a		 jmp	 SHORT $LN44@z900_proce
$LN43@z900_proce:

; 1743 :             else
; 1744 :                 WAKEUP_CPU_MASK(sysblk.waiting_mask);

  0032e	48 8d 15 00 00
	00 00		 lea	 rdx, OFFSET FLAT:$SG196555
  00335	48 8b 05 00 00
	00 00		 mov	 rax, QWORD PTR __imp_sysblk
  0033c	48 8b 88 b8 12
	00 00		 mov	 rcx, QWORD PTR [rax+4792]
  00343	e8 00 00 00 00	 call	 wakeup_cpu_mask
$LN44@z900_proce:
$LN42@z900_proce:
$LN38@z900_proce:

; 1745 :         }
; 1746 :     } /*CPU_STARTED*/
; 1747 : 
; 1748 :     /* If CPU is stopping, change status to stopped */
; 1749 :     if (unlikely(regs->cpustate == CPUSTATE_STOPPING))

  00348	48 8b 84 24 d0
	00 00 00	 mov	 rax, QWORD PTR regs$[rsp]
  00350	0f b6 40 60	 movzx	 eax, BYTE PTR [rax+96]
  00354	83 f8 02	 cmp	 eax, 2
  00357	75 0a		 jne	 SHORT $LN75@z900_proce
  00359	c7 44 24 5c 01
	00 00 00	 mov	 DWORD PTR tv215[rsp], 1
  00361	eb 08		 jmp	 SHORT $LN76@z900_proce
$LN75@z900_proce:
  00363	c7 44 24 5c 00
	00 00 00	 mov	 DWORD PTR tv215[rsp], 0
$LN76@z900_proce:
  0036b	83 7c 24 5c 00	 cmp	 DWORD PTR tv215[rsp], 0
  00370	0f 84 28 02 00
	00		 je	 $LN46@z900_proce
$cpustate_stopping$86:

; 1750 :     {
; 1751 :         /* Change CPU status to stopped */
; 1752 : cpustate_stopping:
; 1753 :         regs->opinterv = 0;

  00376	48 8b 84 24 d0
	00 00 00	 mov	 rax, QWORD PTR regs$[rsp]
  0037e	8b 80 28 07 00
	00		 mov	 eax, DWORD PTR [rax+1832]
  00384	83 e0 ef	 and	 eax, -17		; ffffffefH
  00387	48 8b 8c 24 d0
	00 00 00	 mov	 rcx, QWORD PTR regs$[rsp]
  0038f	89 81 28 07 00
	00		 mov	 DWORD PTR [rcx+1832], eax

; 1754 :         regs->cpustate = CPUSTATE_STOPPED;

  00395	48 8b 84 24 d0
	00 00 00	 mov	 rax, QWORD PTR regs$[rsp]
  0039d	c6 40 60 03	 mov	 BYTE PTR [rax+96], 3

; 1755 : 
; 1756 :         /* Thread exit (note - intlock still held) */
; 1757 :         if (!regs->configured)

  003a1	48 8b 84 24 d0
	00 00 00	 mov	 rax, QWORD PTR regs$[rsp]
  003a9	8b 80 28 07 00
	00		 mov	 eax, DWORD PTR [rax+1832]
  003af	c1 e8 0b	 shr	 eax, 11
  003b2	83 e0 01	 and	 eax, 1
  003b5	85 c0		 test	 eax, eax
  003b7	75 1b		 jne	 SHORT $LN47@z900_proce

; 1758 :             longjmp(regs->exitjmp, SIE_NO_INTERCEPT);

  003b9	48 8b 84 24 d0
	00 00 00	 mov	 rax, QWORD PTR regs$[rsp]
  003c1	48 05 80 0b 00
	00		 add	 rax, 2944		; 00000b80H
  003c7	ba ff ff ff ff	 mov	 edx, -1
  003cc	48 8b c8	 mov	 rcx, rax
  003cf	e8 00 00 00 00	 call	 longjmp
$LN47@z900_proce:

; 1759 : 
; 1760 :         /* If initial CPU reset pending then perform reset */
; 1761 :         if (regs->sigp_ini_reset)

  003d4	48 8b 84 24 d0
	00 00 00	 mov	 rax, QWORD PTR regs$[rsp]
  003dc	8b 80 28 07 00
	00		 mov	 eax, DWORD PTR [rax+1832]
  003e2	c1 e8 14	 shr	 eax, 20
  003e5	83 e0 01	 and	 eax, 1
  003e8	85 c0		 test	 eax, eax
  003ea	74 45		 je	 SHORT $LN48@z900_proce

; 1762 :         {
; 1763 :             PERFORM_SERIALIZATION (regs);

  003ec	0f ae f0	 mfence
$LN19@z900_proce:

; 1764 :             PERFORM_CHKPT_SYNC (regs);

  003ef	33 c0		 xor	 eax, eax
  003f1	85 c0		 test	 eax, eax
  003f3	75 fa		 jne	 SHORT $LN19@z900_proce

; 1765 :             ARCH_DEP (initial_cpu_reset) (regs);

  003f5	48 8b 8c 24 d0
	00 00 00	 mov	 rcx, QWORD PTR regs$[rsp]
  003fd	e8 00 00 00 00	 call	 z900_initial_cpu_reset

; 1766 :             RELEASE_INTLOCK(regs);

  00402	48 8d 15 00 00
	00 00		 lea	 rdx, OFFSET FLAT:$SG196559
  00409	48 8b 8c 24 d0
	00 00 00	 mov	 rcx, QWORD PTR regs$[rsp]
  00411	e8 00 00 00 00	 call	 Release_Interrupt_Lock

; 1767 :             longjmp(regs->progjmp, SIE_NO_INTERCEPT);

  00416	48 8b 84 24 d0
	00 00 00	 mov	 rax, QWORD PTR regs$[rsp]
  0041e	48 05 80 09 00
	00		 add	 rax, 2432		; 00000980H
  00424	ba ff ff ff ff	 mov	 edx, -1
  00429	48 8b c8	 mov	 rcx, rax
  0042c	e8 00 00 00 00	 call	 longjmp
$LN48@z900_proce:

; 1768 :         }
; 1769 : 
; 1770 :         /* If a CPU reset is pending then perform the reset */
; 1771 :         if (regs->sigp_reset)

  00431	48 8b 84 24 d0
	00 00 00	 mov	 rax, QWORD PTR regs$[rsp]
  00439	8b 80 28 07 00
	00		 mov	 eax, DWORD PTR [rax+1832]
  0043f	c1 e8 13	 shr	 eax, 19
  00442	83 e0 01	 and	 eax, 1
  00445	85 c0		 test	 eax, eax
  00447	74 45		 je	 SHORT $LN49@z900_proce

; 1772 :         {
; 1773 :             PERFORM_SERIALIZATION (regs);

  00449	0f ae f0	 mfence
$LN22@z900_proce:

; 1774 :             PERFORM_CHKPT_SYNC (regs);

  0044c	33 c0		 xor	 eax, eax
  0044e	85 c0		 test	 eax, eax
  00450	75 fa		 jne	 SHORT $LN22@z900_proce

; 1775 :             ARCH_DEP(cpu_reset) (regs);

  00452	48 8b 8c 24 d0
	00 00 00	 mov	 rcx, QWORD PTR regs$[rsp]
  0045a	e8 00 00 00 00	 call	 z900_cpu_reset

; 1776 :             RELEASE_INTLOCK(regs);

  0045f	48 8d 15 00 00
	00 00		 lea	 rdx, OFFSET FLAT:$SG196561
  00466	48 8b 8c 24 d0
	00 00 00	 mov	 rcx, QWORD PTR regs$[rsp]
  0046e	e8 00 00 00 00	 call	 Release_Interrupt_Lock

; 1777 :             longjmp(regs->progjmp, SIE_NO_INTERCEPT);

  00473	48 8b 84 24 d0
	00 00 00	 mov	 rax, QWORD PTR regs$[rsp]
  0047b	48 05 80 09 00
	00		 add	 rax, 2432		; 00000980H
  00481	ba ff ff ff ff	 mov	 edx, -1
  00486	48 8b c8	 mov	 rcx, rax
  00489	e8 00 00 00 00	 call	 longjmp
$LN49@z900_proce:

; 1778 :         }
; 1779 : 
; 1780 :         /* Store status at absolute location 0 if requested */
; 1781 :         if (IS_IC_STORSTAT(regs))

  0048e	48 8b 84 24 d0
	00 00 00	 mov	 rax, QWORD PTR regs$[rsp]
  00496	8b 40 48	 mov	 eax, DWORD PTR [rax+72]
  00499	83 e0 08	 and	 eax, 8
  0049c	85 c0		 test	 eax, eax
  0049e	0f 84 fa 00 00
	00		 je	 $LN50@z900_proce
$LN25@z900_proce:

; 1782 :         {
; 1783 :             OFF_IC_STORSTAT(regs);

  004a4	48 8b 84 24 d0
	00 00 00	 mov	 rax, QWORD PTR regs$[rsp]
  004ac	8b 40 48	 mov	 eax, DWORD PTR [rax+72]
  004af	83 e0 f7	 and	 eax, -9			; fffffff7H
  004b2	48 8b 8c 24 d0
	00 00 00	 mov	 rcx, QWORD PTR regs$[rsp]
  004ba	89 41 48	 mov	 DWORD PTR [rcx+72], eax
  004bd	33 c0		 xor	 eax, eax
  004bf	85 c0		 test	 eax, eax
  004c1	75 e1		 jne	 SHORT $LN25@z900_proce

; 1784 :             ARCH_DEP(store_status) (regs, 0);

  004c3	33 d2		 xor	 edx, edx
  004c5	48 8b 8c 24 d0
	00 00 00	 mov	 rcx, QWORD PTR regs$[rsp]
  004cd	e8 00 00 00 00	 call	 z900_store_status

; 1785 : 
; 1786 :             if (regs->insttrace && sysblk.traceFILE)

  004d2	48 8b 84 24 d0
	00 00 00	 mov	 rax, QWORD PTR regs$[rsp]
  004da	8b 80 28 07 00
	00		 mov	 eax, DWORD PTR [rax+1832]
  004e0	c1 e8 0f	 shr	 eax, 15
  004e3	83 e0 01	 and	 eax, 1
  004e6	85 c0		 test	 eax, eax
  004e8	74 1f		 je	 SHORT $LN51@z900_proce
  004ea	48 8b 05 00 00
	00 00		 mov	 rax, QWORD PTR __imp_sysblk
  004f1	48 83 b8 20 14
	00 00 00	 cmp	 QWORD PTR [rax+5152], 0
  004f9	74 0e		 je	 SHORT $LN51@z900_proce

; 1787 :                 tf_0808( regs );

  004fb	48 8b 8c 24 d0
	00 00 00	 mov	 rcx, QWORD PTR regs$[rsp]
  00503	ff 15 00 00 00
	00		 call	 QWORD PTR __imp_tf_0808
$LN51@z900_proce:

; 1788 : 
; 1789 :             // "Processor %s%02X: store status completed"
; 1790 :             WRMSG( HHC00808, "I", PTYPSTR( regs->cpuad ), regs->cpuad );

  00509	48 8b 84 24 d0
	00 00 00	 mov	 rax, QWORD PTR regs$[rsp]
  00511	0f b7 80 3c 08
	00 00		 movzx	 eax, WORD PTR [rax+2108]
  00518	89 44 24 68	 mov	 DWORD PTR tv267[rsp], eax
  0051c	48 8b 8c 24 d0
	00 00 00	 mov	 rcx, QWORD PTR regs$[rsp]
  00524	0f b7 89 3c 08
	00 00		 movzx	 ecx, WORD PTR [rcx+2108]
  0052b	48 8b 15 00 00
	00 00		 mov	 rdx, QWORD PTR __imp_sysblk
  00532	0f b6 8c 0a 48
	0b 00 00	 movzx	 ecx, BYTE PTR [rdx+rcx+2888]
  0053a	ff 15 00 00 00
	00		 call	 QWORD PTR __imp_ptyp2short
  00540	48 89 44 24 70	 mov	 QWORD PTR tv269[rsp], rax
  00545	b9 01 00 00 00	 mov	 ecx, 1
  0054a	ff 15 00 00 00
	00		 call	 QWORD PTR __imp___acrt_iob_func
  00550	8b 4c 24 68	 mov	 ecx, DWORD PTR tv267[rsp]
  00554	89 4c 24 40	 mov	 DWORD PTR [rsp+64], ecx
  00558	48 8b 4c 24 70	 mov	 rcx, QWORD PTR tv269[rsp]
  0055d	48 89 4c 24 38	 mov	 QWORD PTR [rsp+56], rcx
  00562	48 8d 0d 00 00
	00 00		 lea	 rcx, OFFSET FLAT:$SG196564
  00569	48 89 4c 24 30	 mov	 QWORD PTR [rsp+48], rcx
  0056e	48 8d 0d 00 00
	00 00		 lea	 rcx, OFFSET FLAT:$SG196565
  00575	48 89 4c 24 28	 mov	 QWORD PTR [rsp+40], rcx
  0057a	48 89 44 24 20	 mov	 QWORD PTR [rsp+32], rax
  0057f	41 b9 03 00 00
	00		 mov	 r9d, 3
  00585	4c 8d 05 00 00
	00 00		 lea	 r8, OFFSET FLAT:$SG196566
  0058c	ba fe 06 00 00	 mov	 edx, 1790		; 000006feH
  00591	48 8d 0d 00 00
	00 00		 lea	 rcx, OFFSET FLAT:$SG196567
  00598	ff 15 00 00 00
	00		 call	 QWORD PTR __imp_fwritemsg
$LN50@z900_proce:
$LN46@z900_proce:

; 1791 : 
; 1792 :             /* ISW 20071102 : Do not return via longjmp here. */
; 1793 :             /*    process_interrupt needs to finish putting the */
; 1794 :             /*    CPU in its manual state                     */
; 1795 :             /*
; 1796 :             RELEASE_INTLOCK(regs);
; 1797 :             longjmp(regs->progjmp, SIE_NO_INTERCEPT);
; 1798 :             */
; 1799 :         }
; 1800 :     } /*CPUSTATE_STOPPING*/
; 1801 : 
; 1802 :     /* Perform restart interrupt if pending */
; 1803 :     if ( IS_IC_RESTART(regs) )

  0059e	48 8b 84 24 d0
	00 00 00	 mov	 rax, QWORD PTR regs$[rsp]
  005a6	8b 40 48	 mov	 eax, DWORD PTR [rax+72]
  005a9	83 e0 02	 and	 eax, 2
  005ac	85 c0		 test	 eax, eax
  005ae	74 35		 je	 SHORT $LN52@z900_proce

; 1804 :     {
; 1805 :         PERFORM_SERIALIZATION (regs);

  005b0	0f ae f0	 mfence
$LN28@z900_proce:

; 1806 :         PERFORM_CHKPT_SYNC (regs);

  005b3	33 c0		 xor	 eax, eax
  005b5	85 c0		 test	 eax, eax
  005b7	75 fa		 jne	 SHORT $LN28@z900_proce
$LN31@z900_proce:

; 1807 :         OFF_IC_RESTART(regs);

  005b9	48 8b 84 24 d0
	00 00 00	 mov	 rax, QWORD PTR regs$[rsp]
  005c1	8b 40 48	 mov	 eax, DWORD PTR [rax+72]
  005c4	83 e0 fd	 and	 eax, -3			; fffffffdH
  005c7	48 8b 8c 24 d0
	00 00 00	 mov	 rcx, QWORD PTR regs$[rsp]
  005cf	89 41 48	 mov	 DWORD PTR [rcx+72], eax
  005d2	33 c0		 xor	 eax, eax
  005d4	85 c0		 test	 eax, eax
  005d6	75 e1		 jne	 SHORT $LN31@z900_proce

; 1808 :         ARCH_DEP(restart_interrupt) (regs);

  005d8	48 8b 8c 24 d0
	00 00 00	 mov	 rcx, QWORD PTR regs$[rsp]
  005e0	e8 00 00 00 00	 call	 z900_restart_interrupt
$LN52@z900_proce:

; 1809 :     } /* end if(restart) */
; 1810 : 
; 1811 :     /* This is where a stopped CPU will wait */
; 1812 :     if (unlikely(regs->cpustate == CPUSTATE_STOPPED))

  005e5	48 8b 84 24 d0
	00 00 00	 mov	 rax, QWORD PTR regs$[rsp]
  005ed	0f b6 40 60	 movzx	 eax, BYTE PTR [rax+96]
  005f1	83 f8 03	 cmp	 eax, 3
  005f4	75 0a		 jne	 SHORT $LN79@z900_proce
  005f6	c7 44 24 60 01
	00 00 00	 mov	 DWORD PTR tv303[rsp], 1
  005fe	eb 08		 jmp	 SHORT $LN80@z900_proce
$LN79@z900_proce:
  00600	c7 44 24 60 00
	00 00 00	 mov	 DWORD PTR tv303[rsp], 0
$LN80@z900_proce:
  00608	83 7c 24 60 00	 cmp	 DWORD PTR tv303[rsp], 0
  0060d	0f 84 59 01 00
	00		 je	 $LN53@z900_proce

; 1813 :     {
; 1814 :         S64 saved_timer = get_cpu_timer(regs);

  00613	48 8b 8c 24 d0
	00 00 00	 mov	 rcx, QWORD PTR regs$[rsp]
  0061b	e8 00 00 00 00	 call	 get_cpu_timer
  00620	48 89 44 24 78	 mov	 QWORD PTR saved_timer$1[rsp], rax

; 1815 :         regs->ints_state = IC_INITIAL_STATE;

  00625	48 8b 84 24 d0
	00 00 00	 mov	 rax, QWORD PTR regs$[rsp]
  0062d	c7 40 48 01 00
	00 00		 mov	 DWORD PTR [rax+72], 1

; 1816 :         sysblk.started_mask ^= regs->cpubit;

  00634	48 8b 05 00 00
	00 00		 mov	 rax, QWORD PTR __imp_sysblk
  0063b	48 8b 8c 24 d0
	00 00 00	 mov	 rcx, QWORD PTR regs$[rsp]
  00643	48 8b 49 50	 mov	 rcx, QWORD PTR [rcx+80]
  00647	48 8b 80 b0 12
	00 00		 mov	 rax, QWORD PTR [rax+4784]
  0064e	48 33 c1	 xor	 rax, rcx
  00651	48 8b 0d 00 00
	00 00		 mov	 rcx, QWORD PTR __imp_sysblk
  00658	48 89 81 b0 12
	00 00		 mov	 QWORD PTR [rcx+4784], rax

; 1817 : 
; 1818 :         CPU_Wait(regs);

  0065f	48 8b 8c 24 d0
	00 00 00	 mov	 rcx, QWORD PTR regs$[rsp]
  00667	e8 00 00 00 00	 call	 CPU_Wait

; 1819 : 
; 1820 :         sysblk.started_mask |= regs->cpubit;

  0066c	48 8b 05 00 00
	00 00		 mov	 rax, QWORD PTR __imp_sysblk
  00673	48 8b 8c 24 d0
	00 00 00	 mov	 rcx, QWORD PTR regs$[rsp]
  0067b	48 8b 49 50	 mov	 rcx, QWORD PTR [rcx+80]
  0067f	48 8b 80 b0 12
	00 00		 mov	 rax, QWORD PTR [rax+4784]
  00686	48 0b c1	 or	 rax, rcx
  00689	48 8b 0d 00 00
	00 00		 mov	 rcx, QWORD PTR __imp_sysblk
  00690	48 89 81 b0 12
	00 00		 mov	 QWORD PTR [rcx+4784], rax

; 1821 :         regs->ints_state |= sysblk.ints_state;

  00697	48 8b 84 24 d0
	00 00 00	 mov	 rax, QWORD PTR regs$[rsp]
  0069f	48 8b 0d 00 00
	00 00		 mov	 rcx, QWORD PTR __imp_sysblk
  006a6	8b 89 a0 12 00
	00		 mov	 ecx, DWORD PTR [rcx+4768]
  006ac	8b 40 48	 mov	 eax, DWORD PTR [rax+72]
  006af	0b c1		 or	 eax, ecx
  006b1	48 8b 8c 24 d0
	00 00 00	 mov	 rcx, QWORD PTR regs$[rsp]
  006b9	89 41 48	 mov	 DWORD PTR [rcx+72], eax

; 1822 :         set_cpu_timer(regs,saved_timer);

  006bc	48 8b 54 24 78	 mov	 rdx, QWORD PTR saved_timer$1[rsp]
  006c1	48 8b 8c 24 d0
	00 00 00	 mov	 rcx, QWORD PTR regs$[rsp]
  006c9	e8 00 00 00 00	 call	 set_cpu_timer
$LN34@z900_proce:

; 1823 : 
; 1824 :         ON_IC_INTERRUPT(regs);

  006ce	48 8b 84 24 d0
	00 00 00	 mov	 rax, QWORD PTR regs$[rsp]
  006d6	8b 40 48	 mov	 eax, DWORD PTR [rax+72]
  006d9	0f ba e8 1f	 bts	 eax, 31
  006dd	48 8b 8c 24 d0
	00 00 00	 mov	 rcx, QWORD PTR regs$[rsp]
  006e5	89 41 48	 mov	 DWORD PTR [rcx+72], eax
  006e8	33 c0		 xor	 eax, eax
  006ea	85 c0		 test	 eax, eax
  006ec	75 e0		 jne	 SHORT $LN34@z900_proce

; 1825 : 
; 1826 :         /* Purge the lookaside buffers */
; 1827 :         ARCH_DEP(purge_tlb) (regs);

  006ee	48 8b 8c 24 d0
	00 00 00	 mov	 rcx, QWORD PTR regs$[rsp]
  006f6	e8 00 00 00 00	 call	 z900_purge_tlb

; 1828 : #if defined(FEATURE_ACCESS_REGISTERS)
; 1829 :         ARCH_DEP(purge_alb) (regs);

  006fb	48 8b 8c 24 d0
	00 00 00	 mov	 rcx, QWORD PTR regs$[rsp]
  00703	e8 00 00 00 00	 call	 z900_purge_alb

; 1830 : #endif /*defined(FEATURE_ACCESS_REGISTERS)*/
; 1831 : 
; 1832 :         /* If the architecture mode has changed we must adapt */
; 1833 :         if(sysblk.arch_mode != regs->arch_mode)

  00708	48 8b 05 00 00
	00 00		 mov	 rax, QWORD PTR __imp_sysblk
  0070f	48 8b 8c 24 d0
	00 00 00	 mov	 rcx, QWORD PTR regs$[rsp]
  00717	8b 49 64	 mov	 ecx, DWORD PTR [rcx+100]
  0071a	39 88 88 00 00
	00		 cmp	 DWORD PTR [rax+136], ecx
  00720	74 1b		 je	 SHORT $LN54@z900_proce

; 1834 :             longjmp(regs->archjmp,SIE_NO_INTERCEPT);

  00722	48 8b 84 24 d0
	00 00 00	 mov	 rax, QWORD PTR regs$[rsp]
  0072a	48 05 80 0a 00
	00		 add	 rax, 2688		; 00000a80H
  00730	ba ff ff ff ff	 mov	 edx, -1
  00735	48 8b c8	 mov	 rcx, rax
  00738	e8 00 00 00 00	 call	 longjmp
$LN54@z900_proce:

; 1835 : 
; 1836 :         RELEASE_INTLOCK(regs);

  0073d	48 8d 15 00 00
	00 00		 lea	 rdx, OFFSET FLAT:$SG196571
  00744	48 8b 8c 24 d0
	00 00 00	 mov	 rcx, QWORD PTR regs$[rsp]
  0074c	e8 00 00 00 00	 call	 Release_Interrupt_Lock

; 1837 :         longjmp(regs->progjmp, SIE_NO_INTERCEPT);

  00751	48 8b 84 24 d0
	00 00 00	 mov	 rax, QWORD PTR regs$[rsp]
  00759	48 05 80 09 00
	00		 add	 rax, 2432		; 00000980H
  0075f	ba ff ff ff ff	 mov	 edx, -1
  00764	48 8b c8	 mov	 rcx, rax
  00767	e8 00 00 00 00	 call	 longjmp
$LN53@z900_proce:

; 1838 :     } /*CPUSTATE_STOPPED*/
; 1839 : 
; 1840 :     /* Test for wait state */
; 1841 :     if (WAITSTATE(&regs->psw))

  0076c	48 8b 84 24 d0
	00 00 00	 mov	 rax, QWORD PTR regs$[rsp]
  00774	0f b6 40 7a	 movzx	 eax, BYTE PTR [rax+122]
  00778	83 e0 02	 and	 eax, 2
  0077b	85 c0		 test	 eax, eax
  0077d	0f 84 b7 02 00
	00		 je	 $LN55@z900_proce

; 1842 :     {
; 1843 :         regs->waittod = host_tod();

  00783	e8 00 00 00 00	 call	 host_tod
  00788	48 8b 8c 24 d0
	00 00 00	 mov	 rcx, QWORD PTR regs$[rsp]
  00790	48 89 81 b8 07
	00 00		 mov	 QWORD PTR [rcx+1976], rax

; 1844 : 
; 1845 :         /* Test for disabled wait PSW and issue message */
; 1846 :         if (IS_IC_DISABLED_WAIT_PSW( regs ))

  00797	48 8b 84 24 d0
	00 00 00	 mov	 rax, QWORD PTR regs$[rsp]
  0079f	8b 40 4c	 mov	 eax, DWORD PTR [rax+76]
  007a2	25 f0 ff 00 5f	 and	 eax, 1593901040		; 5f00fff0H
  007a7	85 c0		 test	 eax, eax
  007a9	0f 85 7f 01 00
	00		 jne	 $LN56@z900_proce

; 1847 :         {
; 1848 :             /* Don't log the disabled wait when OSTAILOR VM is active
; 1849 :                unless it is the very last CPU in the configuration. */
; 1850 :             if (0
; 1851 :                 || !(sysblk.ostailor & OSTAILOR_VM)
; 1852 :                 || !(sysblk.started_mask ^ regs->cpubit)

  007af	33 c0		 xor	 eax, eax
  007b1	85 c0		 test	 eax, eax
  007b3	75 3c		 jne	 SHORT $LN58@z900_proce
  007b5	48 8b 05 00 00
	00 00		 mov	 rax, QWORD PTR __imp_sysblk
  007bc	8b 80 50 13 00
	00		 mov	 eax, DWORD PTR [rax+4944]
  007c2	25 00 00 00 02	 and	 eax, 33554432		; 02000000H
  007c7	85 c0		 test	 eax, eax
  007c9	74 26		 je	 SHORT $LN58@z900_proce
  007cb	48 8b 05 00 00
	00 00		 mov	 rax, QWORD PTR __imp_sysblk
  007d2	48 8b 8c 24 d0
	00 00 00	 mov	 rcx, QWORD PTR regs$[rsp]
  007da	48 8b 49 50	 mov	 rcx, QWORD PTR [rcx+80]
  007de	48 8b 80 b0 12
	00 00		 mov	 rax, QWORD PTR [rax+4784]
  007e5	48 33 c1	 xor	 rax, rcx
  007e8	48 85 c0	 test	 rax, rax
  007eb	0f 85 02 01 00
	00		 jne	 $LN57@z900_proce
$LN58@z900_proce:

; 1853 :             )
; 1854 :             {
; 1855 :                 char buf[40];
; 1856 :                 STR_PSW( regs, buf );

  007f1	41 b8 28 00 00
	00		 mov	 r8d, 40			; 00000028H
  007f7	48 8d 94 24 88
	00 00 00	 lea	 rdx, QWORD PTR buf$2[rsp]
  007ff	48 8b 8c 24 d0
	00 00 00	 mov	 rcx, QWORD PTR regs$[rsp]
  00807	e8 00 00 00 00	 call	 str_psw

; 1857 : 
; 1858 :                 if (regs->insttrace && sysblk.traceFILE)

  0080c	48 8b 84 24 d0
	00 00 00	 mov	 rax, QWORD PTR regs$[rsp]
  00814	8b 80 28 07 00
	00		 mov	 eax, DWORD PTR [rax+1832]
  0081a	c1 e8 0f	 shr	 eax, 15
  0081d	83 e0 01	 and	 eax, 1
  00820	85 c0		 test	 eax, eax
  00822	74 27		 je	 SHORT $LN59@z900_proce
  00824	48 8b 05 00 00
	00 00		 mov	 rax, QWORD PTR __imp_sysblk
  0082b	48 83 b8 20 14
	00 00 00	 cmp	 QWORD PTR [rax+5152], 0
  00833	74 16		 je	 SHORT $LN59@z900_proce

; 1859 :                     tf_0809( regs, buf );

  00835	48 8d 94 24 88
	00 00 00	 lea	 rdx, QWORD PTR buf$2[rsp]
  0083d	48 8b 8c 24 d0
	00 00 00	 mov	 rcx, QWORD PTR regs$[rsp]
  00845	ff 15 00 00 00
	00		 call	 QWORD PTR __imp_tf_0809
$LN59@z900_proce:

; 1860 : 
; 1861 :                 // "Processor %s%02X: disabled wait state %s"
; 1862 :                 WRMSG( HHC00809, "I", PTYPSTR( regs->cpuad ),

  0084b	48 8b 84 24 d0
	00 00 00	 mov	 rax, QWORD PTR regs$[rsp]
  00853	0f b7 80 3c 08
	00 00		 movzx	 eax, WORD PTR [rax+2108]
  0085a	89 44 24 6c	 mov	 DWORD PTR tv370[rsp], eax
  0085e	48 8b 8c 24 d0
	00 00 00	 mov	 rcx, QWORD PTR regs$[rsp]
  00866	0f b7 89 3c 08
	00 00		 movzx	 ecx, WORD PTR [rcx+2108]
  0086d	48 8b 15 00 00
	00 00		 mov	 rdx, QWORD PTR __imp_sysblk
  00874	0f b6 8c 0a 48
	0b 00 00	 movzx	 ecx, BYTE PTR [rdx+rcx+2888]
  0087c	ff 15 00 00 00
	00		 call	 QWORD PTR __imp_ptyp2short
  00882	48 89 84 24 80
	00 00 00	 mov	 QWORD PTR tv372[rsp], rax
  0088a	b9 01 00 00 00	 mov	 ecx, 1
  0088f	ff 15 00 00 00
	00		 call	 QWORD PTR __imp___acrt_iob_func
  00895	48 8d 8c 24 88
	00 00 00	 lea	 rcx, QWORD PTR buf$2[rsp]
  0089d	48 89 4c 24 48	 mov	 QWORD PTR [rsp+72], rcx
  008a2	8b 4c 24 6c	 mov	 ecx, DWORD PTR tv370[rsp]
  008a6	89 4c 24 40	 mov	 DWORD PTR [rsp+64], ecx
  008aa	48 8b 8c 24 80
	00 00 00	 mov	 rcx, QWORD PTR tv372[rsp]
  008b2	48 89 4c 24 38	 mov	 QWORD PTR [rsp+56], rcx
  008b7	48 8d 0d 00 00
	00 00		 lea	 rcx, OFFSET FLAT:$SG196577
  008be	48 89 4c 24 30	 mov	 QWORD PTR [rsp+48], rcx
  008c3	48 8d 0d 00 00
	00 00		 lea	 rcx, OFFSET FLAT:$SG196578
  008ca	48 89 4c 24 28	 mov	 QWORD PTR [rsp+40], rcx
  008cf	48 89 44 24 20	 mov	 QWORD PTR [rsp+32], rax
  008d4	41 b9 03 00 00
	00		 mov	 r9d, 3
  008da	4c 8d 05 00 00
	00 00		 lea	 r8, OFFSET FLAT:$SG196579
  008e1	ba 47 07 00 00	 mov	 edx, 1863		; 00000747H
  008e6	48 8d 0d 00 00
	00 00		 lea	 rcx, OFFSET FLAT:$SG196580
  008ed	ff 15 00 00 00
	00		 call	 QWORD PTR __imp_fwritemsg
$LN57@z900_proce:

; 1863 :                     regs->cpuad, buf );
; 1864 :             }
; 1865 :             regs->cpustate = CPUSTATE_STOPPING;

  008f3	48 8b 84 24 d0
	00 00 00	 mov	 rax, QWORD PTR regs$[rsp]
  008fb	c6 40 60 02	 mov	 BYTE PTR [rax+96], 2

; 1866 :             RELEASE_INTLOCK( regs );

  008ff	48 8d 15 00 00
	00 00		 lea	 rdx, OFFSET FLAT:$SG196581
  00906	48 8b 8c 24 d0
	00 00 00	 mov	 rcx, QWORD PTR regs$[rsp]
  0090e	e8 00 00 00 00	 call	 Release_Interrupt_Lock

; 1867 :             longjmp( regs->progjmp, SIE_NO_INTERCEPT );

  00913	48 8b 84 24 d0
	00 00 00	 mov	 rax, QWORD PTR regs$[rsp]
  0091b	48 05 80 09 00
	00		 add	 rax, 2432		; 00000980H
  00921	ba ff ff ff ff	 mov	 edx, -1
  00926	48 8b c8	 mov	 rcx, rax
  00929	e8 00 00 00 00	 call	 longjmp
$LN56@z900_proce:

; 1868 :         }
; 1869 : 
; 1870 :         /* Indicate waiting and invoke CPU wait */
; 1871 :         sysblk.waiting_mask |= regs->cpubit;

  0092e	48 8b 05 00 00
	00 00		 mov	 rax, QWORD PTR __imp_sysblk
  00935	48 8b 8c 24 d0
	00 00 00	 mov	 rcx, QWORD PTR regs$[rsp]
  0093d	48 8b 49 50	 mov	 rcx, QWORD PTR [rcx+80]
  00941	48 8b 80 b8 12
	00 00		 mov	 rax, QWORD PTR [rax+4792]
  00948	48 0b c1	 or	 rax, rcx
  0094b	48 8b 0d 00 00
	00 00		 mov	 rcx, QWORD PTR __imp_sysblk
  00952	48 89 81 b8 12
	00 00		 mov	 QWORD PTR [rcx+4792], rax

; 1872 :         CPU_Wait(regs);

  00959	48 8b 8c 24 d0
	00 00 00	 mov	 rcx, QWORD PTR regs$[rsp]
  00961	e8 00 00 00 00	 call	 CPU_Wait

; 1873 : 
; 1874 :         /* Turn off the waiting bit .
; 1875 :          *
; 1876 :          * Note: ANDing off of the CPU waiting bit, rather than using
; 1877 :          * XOR, is required to handle the remote and rare case when the
; 1878 :          * CPU is removed from the sysblk.waiting_mask while in
; 1879 :          * wait_condition (intlock is NOT held; use of XOR incorrectly
; 1880 :          * turns the CPU waiting bit back on).
; 1881 :          */
; 1882 :         sysblk.waiting_mask &= ~(regs->cpubit);

  00966	48 8b 84 24 d0
	00 00 00	 mov	 rax, QWORD PTR regs$[rsp]
  0096e	48 8b 40 50	 mov	 rax, QWORD PTR [rax+80]
  00972	48 f7 d0	 not	 rax
  00975	48 8b 0d 00 00
	00 00		 mov	 rcx, QWORD PTR __imp_sysblk
  0097c	48 8b 89 b8 12
	00 00		 mov	 rcx, QWORD PTR [rcx+4792]
  00983	48 23 c8	 and	 rcx, rax
  00986	48 8b c1	 mov	 rax, rcx
  00989	48 8b 0d 00 00
	00 00		 mov	 rcx, QWORD PTR __imp_sysblk
  00990	48 89 81 b8 12
	00 00		 mov	 QWORD PTR [rcx+4792], rax

; 1883 : 
; 1884 :         /* Calculate the time we waited */
; 1885 :         regs->waittime += host_tod() - regs->waittod;

  00997	e8 00 00 00 00	 call	 host_tod
  0099c	48 8b 8c 24 d0
	00 00 00	 mov	 rcx, QWORD PTR regs$[rsp]
  009a4	48 2b 81 b8 07
	00 00		 sub	 rax, QWORD PTR [rcx+1976]
  009ab	48 8b 8c 24 d0
	00 00 00	 mov	 rcx, QWORD PTR regs$[rsp]
  009b3	48 03 81 c0 07
	00 00		 add	 rax, QWORD PTR [rcx+1984]
  009ba	48 8b 8c 24 d0
	00 00 00	 mov	 rcx, QWORD PTR regs$[rsp]
  009c2	48 89 81 c0 07
	00 00		 mov	 QWORD PTR [rcx+1984], rax

; 1886 :         regs->waittod = 0;

  009c9	48 8b 84 24 d0
	00 00 00	 mov	 rax, QWORD PTR regs$[rsp]
  009d1	48 c7 80 b8 07
	00 00 00 00 00
	00		 mov	 QWORD PTR [rax+1976], 0

; 1887 : 
; 1888 :         /* If late state change to stopping, go reprocess */
; 1889 :         if (unlikely(regs->cpustate == CPUSTATE_STOPPING))

  009dc	48 8b 84 24 d0
	00 00 00	 mov	 rax, QWORD PTR regs$[rsp]
  009e4	0f b6 40 60	 movzx	 eax, BYTE PTR [rax+96]
  009e8	83 f8 02	 cmp	 eax, 2
  009eb	75 0a		 jne	 SHORT $LN83@z900_proce
  009ed	c7 44 24 64 01
	00 00 00	 mov	 DWORD PTR tv420[rsp], 1
  009f5	eb 08		 jmp	 SHORT $LN84@z900_proce
$LN83@z900_proce:
  009f7	c7 44 24 64 00
	00 00 00	 mov	 DWORD PTR tv420[rsp], 0
$LN84@z900_proce:
  009ff	83 7c 24 64 00	 cmp	 DWORD PTR tv420[rsp], 0
  00a04	74 05		 je	 SHORT $LN60@z900_proce

; 1890 :             goto cpustate_stopping;

  00a06	e9 6b f9 ff ff	 jmp	 $cpustate_stopping$86
$LN60@z900_proce:

; 1891 : 
; 1892 :         RELEASE_INTLOCK(regs);

  00a0b	48 8d 15 00 00
	00 00		 lea	 rdx, OFFSET FLAT:$SG196583
  00a12	48 8b 8c 24 d0
	00 00 00	 mov	 rcx, QWORD PTR regs$[rsp]
  00a1a	e8 00 00 00 00	 call	 Release_Interrupt_Lock

; 1893 :         longjmp(regs->progjmp, SIE_NO_INTERCEPT);

  00a1f	48 8b 84 24 d0
	00 00 00	 mov	 rax, QWORD PTR regs$[rsp]
  00a27	48 05 80 09 00
	00		 add	 rax, 2432		; 00000980H
  00a2d	ba ff ff ff ff	 mov	 edx, -1
  00a32	48 8b c8	 mov	 rcx, rax
  00a35	e8 00 00 00 00	 call	 longjmp
$LN55@z900_proce:

; 1894 :     } /* end if(wait) */
; 1895 : 
; 1896 :     /* Release the interrupt lock */
; 1897 :     RELEASE_INTLOCK(regs);

  00a3a	48 8d 15 00 00
	00 00		 lea	 rdx, OFFSET FLAT:$SG196584
  00a41	48 8b 8c 24 d0
	00 00 00	 mov	 rcx, QWORD PTR regs$[rsp]
  00a49	e8 00 00 00 00	 call	 Release_Interrupt_Lock
$LN61@z900_proce:

; 1898 : 
; 1899 : } /* process_interrupt */

  00a4e	48 8b 8c 24 b0
	00 00 00	 mov	 rcx, QWORD PTR __$ArrayPad$[rsp]
  00a56	48 33 cc	 xor	 rcx, rsp
  00a59	e8 00 00 00 00	 call	 __security_check_cookie
  00a5e	48 81 c4 c8 00
	00 00		 add	 rsp, 200		; 000000c8H
  00a65	c3		 ret	 0
z900_process_interrupt ENDP
_TEXT	ENDS
; Function compile flags: /Odtp
; File C:\papa\MyGit\hyperion-zvector\cpu.c
_TEXT	SEGMENT
rc$ = 80
tv94 = 84
xdmg$ = 88
tv361 = 92
psa$ = 96
mcic$ = 104
fsta$ = 112
tv363 = 120
regs$ = 144
z900_perform_mck_interrupt PROC

; 1601 : {

  00000	48 89 4c 24 08	 mov	 QWORD PTR [rsp+8], rcx
  00005	48 81 ec 88 00
	00 00		 sub	 rsp, 136		; 00000088H

; 1602 : int     rc;                             /* Return code               */
; 1603 : PSA    *psa;                            /* -> Prefixed storage area  */
; 1604 : U64     mcic;                           /* Mach.check interrupt code */
; 1605 : U32     xdmg;                           /* External damage code      */
; 1606 : RADR    fsta;                           /* Failing storage address   */
; 1607 : 
; 1608 :     /* Test and clear pending machine check interrupt */
; 1609 :     rc = ARCH_DEP(present_mck_interrupt) (regs, &mcic, &xdmg, &fsta);

  0000c	4c 8d 4c 24 70	 lea	 r9, QWORD PTR fsta$[rsp]
  00011	4c 8d 44 24 58	 lea	 r8, QWORD PTR xdmg$[rsp]
  00016	48 8d 54 24 68	 lea	 rdx, QWORD PTR mcic$[rsp]
  0001b	48 8b 8c 24 90
	00 00 00	 mov	 rcx, QWORD PTR regs$[rsp]
  00023	e8 00 00 00 00	 call	 z900_present_mck_interrupt
  00028	89 44 24 50	 mov	 DWORD PTR rc$[rsp], eax

; 1610 : 
; 1611 :     /* Exit if no machine check was presented */
; 1612 :     if (rc == 0) return;

  0002c	83 7c 24 50 00	 cmp	 DWORD PTR rc$[rsp], 0
  00031	75 05		 jne	 SHORT $LN5@z900_perfo
  00033	e9 16 0a 00 00	 jmp	 $LN1@z900_perfo
$LN5@z900_perfo:

; 1613 : 
; 1614 :     /* Set the main storage reference and change bits */
; 1615 :     ARCH_DEP( or_storage_key )( regs->PX, (STORKEY_REF | STORKEY_CHANGE) );

  00038	b2 06		 mov	 dl, 6
  0003a	48 8b 84 24 90
	00 00 00	 mov	 rax, QWORD PTR regs$[rsp]
  00042	48 8b 48 70	 mov	 rcx, QWORD PTR [rax+112]
  00046	e8 00 00 00 00	 call	 z900_or_storage_key

; 1616 : 
; 1617 :     /* Point to the PSA in main storage */
; 1618 :     psa = (void*)(regs->mainstor + regs->PX);

  0004b	48 8b 84 24 90
	00 00 00	 mov	 rax, QWORD PTR regs$[rsp]
  00053	48 8b 80 48 08
	00 00		 mov	 rax, QWORD PTR [rax+2120]
  0005a	48 8b 8c 24 90
	00 00 00	 mov	 rcx, QWORD PTR regs$[rsp]
  00062	48 03 41 70	 add	 rax, QWORD PTR [rcx+112]
  00066	48 89 44 24 60	 mov	 QWORD PTR psa$[rsp], rax

; 1619 : 
; 1620 :     /* Store registers in machine check save area */
; 1621 :     ARCH_DEP(store_status) (regs, regs->PX);

  0006b	48 8b 84 24 90
	00 00 00	 mov	 rax, QWORD PTR regs$[rsp]
  00073	48 8b 50 70	 mov	 rdx, QWORD PTR [rax+112]
  00077	48 8b 8c 24 90
	00 00 00	 mov	 rcx, QWORD PTR regs$[rsp]
  0007f	e8 00 00 00 00	 call	 z900_store_status

; 1622 : 
; 1623 : #if !defined( FEATURE_001_ZARCH_INSTALLED_FACILITY )
; 1624 :     /* Set the extended logout area to zeros */
; 1625 :     memset(psa->storepsw, 0, 16);
; 1626 : #endif
; 1627 : 
; 1628 :     /* Store the machine check interrupt code at PSA+232 */
; 1629 :     STORE_DW(psa->mckint, mcic);

  00084	48 8b 4c 24 68	 mov	 rcx, QWORD PTR mcic$[rsp]
  00089	e8 00 00 00 00	 call	 _byteswap_uint64
  0008e	48 8b 4c 24 60	 mov	 rcx, QWORD PTR psa$[rsp]
  00093	48 81 c1 e8 00
	00 00		 add	 rcx, 232		; 000000e8H
  0009a	48 8b d0	 mov	 rdx, rax
  0009d	e8 00 00 00 00	 call	 store_dw_noswap

; 1630 : 
; 1631 :     /* Trace the machine check interrupt */
; 1632 :     if (CPU_STEPPING_OR_TRACING(regs, 0))

  000a2	48 8b 84 24 90
	00 00 00	 mov	 rax, QWORD PTR regs$[rsp]
  000aa	8b 80 28 07 00
	00		 mov	 eax, DWORD PTR [rax+1832]
  000b0	c1 e8 10	 shr	 eax, 16
  000b3	83 e0 01	 and	 eax, 1
  000b6	85 c0		 test	 eax, eax
  000b8	74 0a		 je	 SHORT $LN33@z900_perfo
  000ba	c7 44 24 54 01
	00 00 00	 mov	 DWORD PTR tv94[rsp], 1
  000c2	eb 08		 jmp	 SHORT $LN34@z900_perfo
$LN33@z900_perfo:
  000c4	c7 44 24 54 00
	00 00 00	 mov	 DWORD PTR tv94[rsp], 0
$LN34@z900_perfo:
  000cc	83 7c 24 54 00	 cmp	 DWORD PTR tv94[rsp], 0
  000d1	0f 84 f5 07 00
	00		 je	 $LN6@z900_perfo
  000d7	48 8b 05 00 00
	00 00		 mov	 rax, QWORD PTR __imp_sysblk
  000de	8b 80 94 12 00
	00		 mov	 eax, DWORD PTR [rax+4756]
  000e4	c1 e8 0a	 shr	 eax, 10
  000e7	83 e0 01	 and	 eax, 1
  000ea	85 c0		 test	 eax, eax
  000ec	0f 84 55 03 00
	00		 je	 $LN8@z900_perfo
  000f2	33 c0		 xor	 eax, eax
  000f4	85 c0		 test	 eax, eax
  000f6	0f 85 2d 01 00
	00		 jne	 $LN9@z900_perfo
  000fc	48 8b 05 00 00
	00 00		 mov	 rax, QWORD PTR __imp_sysblk
  00103	8b 80 4c 05 00
	00		 mov	 eax, DWORD PTR [rax+1356]
  00109	25 00 00 00 80	 and	 eax, -2147483648	; 80000000H
  0010e	85 c0		 test	 eax, eax
  00110	0f 84 13 01 00
	00		 je	 $LN9@z900_perfo
  00116	33 c0		 xor	 eax, eax
  00118	83 f8 01	 cmp	 eax, 1
  0011b	0f 84 26 03 00
	00		 je	 $LN8@z900_perfo
  00121	33 c0		 xor	 eax, eax
  00123	85 c0		 test	 eax, eax
  00125	75 37		 jne	 SHORT $LN10@z900_perfo
  00127	48 8b 05 00 00
	00 00		 mov	 rax, QWORD PTR __imp_sysblk
  0012e	8b 80 4c 05 00
	00		 mov	 eax, DWORD PTR [rax+1356]
  00134	25 00 00 04 00	 and	 eax, 262144		; 00040000H
  00139	85 c0		 test	 eax, eax
  0013b	74 21		 je	 SHORT $LN10@z900_perfo
  0013d	48 8b 84 24 90
	00 00 00	 mov	 rax, QWORD PTR regs$[rsp]
  00145	48 8b 0d 00 00
	00 00		 mov	 rcx, QWORD PTR __imp_sysblk
  0014c	8b 89 60 05 00
	00		 mov	 ecx, DWORD PTR [rcx+1376]
  00152	39 88 b0 af 00
	00		 cmp	 DWORD PTR [rax+44976], ecx
  00158	0f 85 e9 02 00
	00		 jne	 $LN8@z900_perfo
$LN10@z900_perfo:
  0015e	33 c0		 xor	 eax, eax
  00160	85 c0		 test	 eax, eax
  00162	75 37		 jne	 SHORT $LN11@z900_perfo
  00164	48 8b 05 00 00
	00 00		 mov	 rax, QWORD PTR __imp_sysblk
  0016b	8b 80 4c 05 00
	00		 mov	 eax, DWORD PTR [rax+1356]
  00171	25 00 00 08 00	 and	 eax, 524288		; 00080000H
  00176	85 c0		 test	 eax, eax
  00178	74 21		 je	 SHORT $LN11@z900_perfo
  0017a	48 8b 84 24 90
	00 00 00	 mov	 rax, QWORD PTR regs$[rsp]
  00182	48 8b 0d 00 00
	00 00		 mov	 rcx, QWORD PTR __imp_sysblk
  00189	8b 89 58 05 00
	00		 mov	 ecx, DWORD PTR [rcx+1368]
  0018f	39 88 b4 af 00
	00		 cmp	 DWORD PTR [rax+44980], ecx
  00195	0f 8c ac 02 00
	00		 jl	 $LN8@z900_perfo
$LN11@z900_perfo:
  0019b	33 c0		 xor	 eax, eax
  0019d	85 c0		 test	 eax, eax
  0019f	0f 85 84 00 00
	00		 jne	 $LN12@z900_perfo
  001a5	48 8b 05 00 00
	00 00		 mov	 rax, QWORD PTR __imp_sysblk
  001ac	8b 80 4c 05 00
	00		 mov	 eax, DWORD PTR [rax+1356]
  001b2	25 00 00 00 08	 and	 eax, 134217728		; 08000000H
  001b7	85 c0		 test	 eax, eax
  001b9	74 26		 je	 SHORT $LN13@z900_perfo
  001bb	48 8b 84 24 90
	00 00 00	 mov	 rax, QWORD PTR regs$[rsp]
  001c3	0f b6 80 58 0e
	00 00		 movzx	 eax, BYTE PTR [rax+3672]
  001ca	85 c0		 test	 eax, eax
  001cc	74 13		 je	 SHORT $LN13@z900_perfo
  001ce	48 8b 84 24 90
	00 00 00	 mov	 rax, QWORD PTR regs$[rsp]
  001d6	0f b6 80 4c 0e
	00 00		 movzx	 eax, BYTE PTR [rax+3660]
  001dd	85 c0		 test	 eax, eax
  001df	75 48		 jne	 SHORT $LN12@z900_perfo
$LN13@z900_perfo:
  001e1	48 8b 05 00 00
	00 00		 mov	 rax, QWORD PTR __imp_sysblk
  001e8	8b 80 4c 05 00
	00		 mov	 eax, DWORD PTR [rax+1356]
  001ee	25 00 00 00 04	 and	 eax, 67108864		; 04000000H
  001f3	85 c0		 test	 eax, eax
  001f5	0f 84 4c 02 00
	00		 je	 $LN8@z900_perfo
  001fb	48 8b 84 24 90
	00 00 00	 mov	 rax, QWORD PTR regs$[rsp]
  00203	0f b6 80 58 0e
	00 00		 movzx	 eax, BYTE PTR [rax+3672]
  0020a	85 c0		 test	 eax, eax
  0020c	0f 84 35 02 00
	00		 je	 $LN8@z900_perfo
  00212	48 8b 84 24 90
	00 00 00	 mov	 rax, QWORD PTR regs$[rsp]
  0021a	0f b6 80 4c 0e
	00 00		 movzx	 eax, BYTE PTR [rax+3660]
  00221	85 c0		 test	 eax, eax
  00223	0f 85 1e 02 00
	00		 jne	 $LN8@z900_perfo
$LN12@z900_perfo:
$LN9@z900_perfo:
  00229	b8 08 00 00 00	 mov	 eax, 8
  0022e	48 6b c0 00	 imul	 rax, rax, 0
  00232	48 8b 0d 00 00
	00 00		 mov	 rcx, QWORD PTR __imp_sysblk
  00239	48 83 bc 01 c8
	12 00 00 00	 cmp	 QWORD PTR [rcx+rax+4808], 0
  00242	75 1f		 jne	 SHORT $LN14@z900_perfo
  00244	b8 08 00 00 00	 mov	 eax, 8
  00249	48 6b c0 01	 imul	 rax, rax, 1
  0024d	48 8b 0d 00 00
	00 00		 mov	 rcx, QWORD PTR __imp_sysblk
  00254	48 83 bc 01 c8
	12 00 00 00	 cmp	 QWORD PTR [rcx+rax+4808], 0
  0025d	0f 84 7f 05 00
	00		 je	 $LN7@z900_perfo
$LN14@z900_perfo:
  00263	b8 08 00 00 00	 mov	 eax, 8
  00268	48 6b c0 00	 imul	 rax, rax, 0
  0026c	b9 08 00 00 00	 mov	 ecx, 8
  00271	48 6b c9 01	 imul	 rcx, rcx, 1
  00275	48 8b 15 00 00
	00 00		 mov	 rdx, QWORD PTR __imp_sysblk
  0027c	4c 8b 05 00 00
	00 00		 mov	 r8, QWORD PTR __imp_sysblk
  00283	49 8b 8c 08 c8
	12 00 00	 mov	 rcx, QWORD PTR [r8+rcx+4808]
  0028b	48 39 8c 02 c8
	12 00 00	 cmp	 QWORD PTR [rdx+rax+4808], rcx
  00293	0f 87 bc 00 00
	00		 ja	 $LN15@z900_perfo
  00299	48 8b 84 24 90
	00 00 00	 mov	 rax, QWORD PTR regs$[rsp]
  002a1	48 8b 8c 24 90
	00 00 00	 mov	 rcx, QWORD PTR regs$[rsp]
  002a9	48 8b 89 00 02
	00 00		 mov	 rcx, QWORD PTR [rcx+512]
  002b0	48 8b 40 68	 mov	 rax, QWORD PTR [rax+104]
  002b4	48 2b c1	 sub	 rax, rcx
  002b7	48 8b 8c 24 90
	00 00 00	 mov	 rcx, QWORD PTR regs$[rsp]
  002bf	48 8b 89 10 02
	00 00		 mov	 rcx, QWORD PTR [rcx+528]
  002c6	48 03 c8	 add	 rcx, rax
  002c9	48 8b c1	 mov	 rax, rcx
  002cc	48 8b 8c 24 90
	00 00 00	 mov	 rcx, QWORD PTR regs$[rsp]
  002d4	48 23 81 90 00
	00 00		 and	 rax, QWORD PTR [rcx+144]
  002db	b9 08 00 00 00	 mov	 ecx, 8
  002e0	48 6b c9 00	 imul	 rcx, rcx, 0
  002e4	48 8b 15 00 00
	00 00		 mov	 rdx, QWORD PTR __imp_sysblk
  002eb	48 3b 84 0a c8
	12 00 00	 cmp	 rax, QWORD PTR [rdx+rcx+4808]
  002f3	72 60		 jb	 SHORT $LN15@z900_perfo
  002f5	48 8b 84 24 90
	00 00 00	 mov	 rax, QWORD PTR regs$[rsp]
  002fd	48 8b 8c 24 90
	00 00 00	 mov	 rcx, QWORD PTR regs$[rsp]
  00305	48 8b 89 00 02
	00 00		 mov	 rcx, QWORD PTR [rcx+512]
  0030c	48 8b 40 68	 mov	 rax, QWORD PTR [rax+104]
  00310	48 2b c1	 sub	 rax, rcx
  00313	48 8b 8c 24 90
	00 00 00	 mov	 rcx, QWORD PTR regs$[rsp]
  0031b	48 8b 89 10 02
	00 00		 mov	 rcx, QWORD PTR [rcx+528]
  00322	48 03 c8	 add	 rcx, rax
  00325	48 8b c1	 mov	 rax, rcx
  00328	48 8b 8c 24 90
	00 00 00	 mov	 rcx, QWORD PTR regs$[rsp]
  00330	48 23 81 90 00
	00 00		 and	 rax, QWORD PTR [rcx+144]
  00337	b9 08 00 00 00	 mov	 ecx, 8
  0033c	48 6b c9 01	 imul	 rcx, rcx, 1
  00340	48 8b 15 00 00
	00 00		 mov	 rdx, QWORD PTR __imp_sysblk
  00347	48 3b 84 0a c8
	12 00 00	 cmp	 rax, QWORD PTR [rdx+rcx+4808]
  0034f	0f 86 8d 04 00
	00		 jbe	 $LN7@z900_perfo
$LN15@z900_perfo:
  00355	b8 08 00 00 00	 mov	 eax, 8
  0035a	48 6b c0 00	 imul	 rax, rax, 0
  0035e	b9 08 00 00 00	 mov	 ecx, 8
  00363	48 6b c9 01	 imul	 rcx, rcx, 1
  00367	48 8b 15 00 00
	00 00		 mov	 rdx, QWORD PTR __imp_sysblk
  0036e	4c 8b 05 00 00
	00 00		 mov	 r8, QWORD PTR __imp_sysblk
  00375	49 8b 8c 08 c8
	12 00 00	 mov	 rcx, QWORD PTR [r8+rcx+4808]
  0037d	48 39 8c 02 c8
	12 00 00	 cmp	 QWORD PTR [rdx+rax+4808], rcx
  00385	0f 86 bc 00 00
	00		 jbe	 $LN16@z900_perfo
  0038b	48 8b 84 24 90
	00 00 00	 mov	 rax, QWORD PTR regs$[rsp]
  00393	48 8b 8c 24 90
	00 00 00	 mov	 rcx, QWORD PTR regs$[rsp]
  0039b	48 8b 89 00 02
	00 00		 mov	 rcx, QWORD PTR [rcx+512]
  003a2	48 8b 40 68	 mov	 rax, QWORD PTR [rax+104]
  003a6	48 2b c1	 sub	 rax, rcx
  003a9	48 8b 8c 24 90
	00 00 00	 mov	 rcx, QWORD PTR regs$[rsp]
  003b1	48 8b 89 10 02
	00 00		 mov	 rcx, QWORD PTR [rcx+528]
  003b8	48 03 c8	 add	 rcx, rax
  003bb	48 8b c1	 mov	 rax, rcx
  003be	48 8b 8c 24 90
	00 00 00	 mov	 rcx, QWORD PTR regs$[rsp]
  003c6	48 23 81 90 00
	00 00		 and	 rax, QWORD PTR [rcx+144]
  003cd	b9 08 00 00 00	 mov	 ecx, 8
  003d2	48 6b c9 01	 imul	 rcx, rcx, 1
  003d6	48 8b 15 00 00
	00 00		 mov	 rdx, QWORD PTR __imp_sysblk
  003dd	48 3b 84 0a c8
	12 00 00	 cmp	 rax, QWORD PTR [rdx+rcx+4808]
  003e5	72 60		 jb	 SHORT $LN16@z900_perfo
  003e7	48 8b 84 24 90
	00 00 00	 mov	 rax, QWORD PTR regs$[rsp]
  003ef	48 8b 8c 24 90
	00 00 00	 mov	 rcx, QWORD PTR regs$[rsp]
  003f7	48 8b 89 00 02
	00 00		 mov	 rcx, QWORD PTR [rcx+512]
  003fe	48 8b 40 68	 mov	 rax, QWORD PTR [rax+104]
  00402	48 2b c1	 sub	 rax, rcx
  00405	48 8b 8c 24 90
	00 00 00	 mov	 rcx, QWORD PTR regs$[rsp]
  0040d	48 8b 89 10 02
	00 00		 mov	 rcx, QWORD PTR [rcx+528]
  00414	48 03 c8	 add	 rcx, rax
  00417	48 8b c1	 mov	 rax, rcx
  0041a	48 8b 8c 24 90
	00 00 00	 mov	 rcx, QWORD PTR regs$[rsp]
  00422	48 23 81 90 00
	00 00		 and	 rax, QWORD PTR [rcx+144]
  00429	b9 08 00 00 00	 mov	 ecx, 8
  0042e	48 6b c9 00	 imul	 rcx, rcx, 0
  00432	48 8b 15 00 00
	00 00		 mov	 rdx, QWORD PTR __imp_sysblk
  00439	48 3b 84 0a c8
	12 00 00	 cmp	 rax, QWORD PTR [rdx+rcx+4808]
  00441	0f 86 9b 03 00
	00		 jbe	 $LN7@z900_perfo
$LN16@z900_perfo:
$LN8@z900_perfo:
  00447	33 c0		 xor	 eax, eax
  00449	83 f8 01	 cmp	 eax, 1
  0044c	0f 84 7a 04 00
	00		 je	 $LN6@z900_perfo
  00452	48 8b 05 00 00
	00 00		 mov	 rax, QWORD PTR __imp_sysblk
  00459	8b 80 94 12 00
	00		 mov	 eax, DWORD PTR [rax+4756]
  0045f	c1 e8 08	 shr	 eax, 8
  00462	83 e0 01	 and	 eax, 1
  00465	85 c0		 test	 eax, eax
  00467	0f 84 5f 04 00
	00		 je	 $LN6@z900_perfo
  0046d	48 8b 84 24 90
	00 00 00	 mov	 rax, QWORD PTR regs$[rsp]
  00475	8b 80 28 07 00
	00		 mov	 eax, DWORD PTR [rax+1832]
  0047b	c1 e8 0f	 shr	 eax, 15
  0047e	83 e0 01	 and	 eax, 1
  00481	85 c0		 test	 eax, eax
  00483	0f 84 43 04 00
	00		 je	 $LN6@z900_perfo
  00489	33 c0		 xor	 eax, eax
  0048b	85 c0		 test	 eax, eax
  0048d	0f 85 2d 01 00
	00		 jne	 $LN17@z900_perfo
  00493	48 8b 05 00 00
	00 00		 mov	 rax, QWORD PTR __imp_sysblk
  0049a	8b 80 4c 05 00
	00		 mov	 eax, DWORD PTR [rax+1356]
  004a0	25 00 00 00 80	 and	 eax, -2147483648	; 80000000H
  004a5	85 c0		 test	 eax, eax
  004a7	0f 84 13 01 00
	00		 je	 $LN17@z900_perfo
  004ad	33 c0		 xor	 eax, eax
  004af	83 f8 01	 cmp	 eax, 1
  004b2	0f 84 14 04 00
	00		 je	 $LN6@z900_perfo
  004b8	33 c0		 xor	 eax, eax
  004ba	85 c0		 test	 eax, eax
  004bc	75 37		 jne	 SHORT $LN18@z900_perfo
  004be	48 8b 05 00 00
	00 00		 mov	 rax, QWORD PTR __imp_sysblk
  004c5	8b 80 4c 05 00
	00		 mov	 eax, DWORD PTR [rax+1356]
  004cb	25 00 00 04 00	 and	 eax, 262144		; 00040000H
  004d0	85 c0		 test	 eax, eax
  004d2	74 21		 je	 SHORT $LN18@z900_perfo
  004d4	48 8b 84 24 90
	00 00 00	 mov	 rax, QWORD PTR regs$[rsp]
  004dc	48 8b 0d 00 00
	00 00		 mov	 rcx, QWORD PTR __imp_sysblk
  004e3	8b 89 60 05 00
	00		 mov	 ecx, DWORD PTR [rcx+1376]
  004e9	39 88 b0 af 00
	00		 cmp	 DWORD PTR [rax+44976], ecx
  004ef	0f 85 d7 03 00
	00		 jne	 $LN6@z900_perfo
$LN18@z900_perfo:
  004f5	33 c0		 xor	 eax, eax
  004f7	85 c0		 test	 eax, eax
  004f9	75 37		 jne	 SHORT $LN19@z900_perfo
  004fb	48 8b 05 00 00
	00 00		 mov	 rax, QWORD PTR __imp_sysblk
  00502	8b 80 4c 05 00
	00		 mov	 eax, DWORD PTR [rax+1356]
  00508	25 00 00 08 00	 and	 eax, 524288		; 00080000H
  0050d	85 c0		 test	 eax, eax
  0050f	74 21		 je	 SHORT $LN19@z900_perfo
  00511	48 8b 84 24 90
	00 00 00	 mov	 rax, QWORD PTR regs$[rsp]
  00519	48 8b 0d 00 00
	00 00		 mov	 rcx, QWORD PTR __imp_sysblk
  00520	8b 89 58 05 00
	00		 mov	 ecx, DWORD PTR [rcx+1368]
  00526	39 88 b4 af 00
	00		 cmp	 DWORD PTR [rax+44980], ecx
  0052c	0f 8c 9a 03 00
	00		 jl	 $LN6@z900_perfo
$LN19@z900_perfo:
  00532	33 c0		 xor	 eax, eax
  00534	85 c0		 test	 eax, eax
  00536	0f 85 84 00 00
	00		 jne	 $LN20@z900_perfo
  0053c	48 8b 05 00 00
	00 00		 mov	 rax, QWORD PTR __imp_sysblk
  00543	8b 80 4c 05 00
	00		 mov	 eax, DWORD PTR [rax+1356]
  00549	25 00 00 00 08	 and	 eax, 134217728		; 08000000H
  0054e	85 c0		 test	 eax, eax
  00550	74 26		 je	 SHORT $LN21@z900_perfo
  00552	48 8b 84 24 90
	00 00 00	 mov	 rax, QWORD PTR regs$[rsp]
  0055a	0f b6 80 58 0e
	00 00		 movzx	 eax, BYTE PTR [rax+3672]
  00561	85 c0		 test	 eax, eax
  00563	74 13		 je	 SHORT $LN21@z900_perfo
  00565	48 8b 84 24 90
	00 00 00	 mov	 rax, QWORD PTR regs$[rsp]
  0056d	0f b6 80 4c 0e
	00 00		 movzx	 eax, BYTE PTR [rax+3660]
  00574	85 c0		 test	 eax, eax
  00576	75 48		 jne	 SHORT $LN20@z900_perfo
$LN21@z900_perfo:
  00578	48 8b 05 00 00
	00 00		 mov	 rax, QWORD PTR __imp_sysblk
  0057f	8b 80 4c 05 00
	00		 mov	 eax, DWORD PTR [rax+1356]
  00585	25 00 00 00 04	 and	 eax, 67108864		; 04000000H
  0058a	85 c0		 test	 eax, eax
  0058c	0f 84 3a 03 00
	00		 je	 $LN6@z900_perfo
  00592	48 8b 84 24 90
	00 00 00	 mov	 rax, QWORD PTR regs$[rsp]
  0059a	0f b6 80 58 0e
	00 00		 movzx	 eax, BYTE PTR [rax+3672]
  005a1	85 c0		 test	 eax, eax
  005a3	0f 84 23 03 00
	00		 je	 $LN6@z900_perfo
  005a9	48 8b 84 24 90
	00 00 00	 mov	 rax, QWORD PTR regs$[rsp]
  005b1	0f b6 80 4c 0e
	00 00		 movzx	 eax, BYTE PTR [rax+3660]
  005b8	85 c0		 test	 eax, eax
  005ba	0f 85 0c 03 00
	00		 jne	 $LN6@z900_perfo
$LN20@z900_perfo:
$LN17@z900_perfo:
  005c0	b8 08 00 00 00	 mov	 eax, 8
  005c5	48 6b c0 00	 imul	 rax, rax, 0
  005c9	48 8b 0d 00 00
	00 00		 mov	 rcx, QWORD PTR __imp_sysblk
  005d0	48 83 bc 01 d8
	12 00 00 00	 cmp	 QWORD PTR [rcx+rax+4824], 0
  005d9	75 1f		 jne	 SHORT $LN23@z900_perfo
  005db	b8 08 00 00 00	 mov	 eax, 8
  005e0	48 6b c0 01	 imul	 rax, rax, 1
  005e4	48 8b 0d 00 00
	00 00		 mov	 rcx, QWORD PTR __imp_sysblk
  005eb	48 83 bc 01 d8
	12 00 00 00	 cmp	 QWORD PTR [rcx+rax+4824], 0
  005f4	0f 84 e8 01 00
	00		 je	 $LN22@z900_perfo
$LN23@z900_perfo:
  005fa	b8 08 00 00 00	 mov	 eax, 8
  005ff	48 6b c0 00	 imul	 rax, rax, 0
  00603	b9 08 00 00 00	 mov	 ecx, 8
  00608	48 6b c9 01	 imul	 rcx, rcx, 1
  0060c	48 8b 15 00 00
	00 00		 mov	 rdx, QWORD PTR __imp_sysblk
  00613	4c 8b 05 00 00
	00 00		 mov	 r8, QWORD PTR __imp_sysblk
  0061a	49 8b 8c 08 d8
	12 00 00	 mov	 rcx, QWORD PTR [r8+rcx+4824]
  00622	48 39 8c 02 d8
	12 00 00	 cmp	 QWORD PTR [rdx+rax+4824], rcx
  0062a	0f 87 bc 00 00
	00		 ja	 $LN24@z900_perfo
  00630	48 8b 84 24 90
	00 00 00	 mov	 rax, QWORD PTR regs$[rsp]
  00638	48 8b 8c 24 90
	00 00 00	 mov	 rcx, QWORD PTR regs$[rsp]
  00640	48 8b 89 00 02
	00 00		 mov	 rcx, QWORD PTR [rcx+512]
  00647	48 8b 40 68	 mov	 rax, QWORD PTR [rax+104]
  0064b	48 2b c1	 sub	 rax, rcx
  0064e	48 8b 8c 24 90
	00 00 00	 mov	 rcx, QWORD PTR regs$[rsp]
  00656	48 8b 89 10 02
	00 00		 mov	 rcx, QWORD PTR [rcx+528]
  0065d	48 03 c8	 add	 rcx, rax
  00660	48 8b c1	 mov	 rax, rcx
  00663	48 8b 8c 24 90
	00 00 00	 mov	 rcx, QWORD PTR regs$[rsp]
  0066b	48 23 81 90 00
	00 00		 and	 rax, QWORD PTR [rcx+144]
  00672	b9 08 00 00 00	 mov	 ecx, 8
  00677	48 6b c9 00	 imul	 rcx, rcx, 0
  0067b	48 8b 15 00 00
	00 00		 mov	 rdx, QWORD PTR __imp_sysblk
  00682	48 3b 84 0a d8
	12 00 00	 cmp	 rax, QWORD PTR [rdx+rcx+4824]
  0068a	72 60		 jb	 SHORT $LN24@z900_perfo
  0068c	48 8b 84 24 90
	00 00 00	 mov	 rax, QWORD PTR regs$[rsp]
  00694	48 8b 8c 24 90
	00 00 00	 mov	 rcx, QWORD PTR regs$[rsp]
  0069c	48 8b 89 00 02
	00 00		 mov	 rcx, QWORD PTR [rcx+512]
  006a3	48 8b 40 68	 mov	 rax, QWORD PTR [rax+104]
  006a7	48 2b c1	 sub	 rax, rcx
  006aa	48 8b 8c 24 90
	00 00 00	 mov	 rcx, QWORD PTR regs$[rsp]
  006b2	48 8b 89 10 02
	00 00		 mov	 rcx, QWORD PTR [rcx+528]
  006b9	48 03 c8	 add	 rcx, rax
  006bc	48 8b c1	 mov	 rax, rcx
  006bf	48 8b 8c 24 90
	00 00 00	 mov	 rcx, QWORD PTR regs$[rsp]
  006c7	48 23 81 90 00
	00 00		 and	 rax, QWORD PTR [rcx+144]
  006ce	b9 08 00 00 00	 mov	 ecx, 8
  006d3	48 6b c9 01	 imul	 rcx, rcx, 1
  006d7	48 8b 15 00 00
	00 00		 mov	 rdx, QWORD PTR __imp_sysblk
  006de	48 3b 84 0a d8
	12 00 00	 cmp	 rax, QWORD PTR [rdx+rcx+4824]
  006e6	0f 86 f6 00 00
	00		 jbe	 $LN22@z900_perfo
$LN24@z900_perfo:
  006ec	b8 08 00 00 00	 mov	 eax, 8
  006f1	48 6b c0 00	 imul	 rax, rax, 0
  006f5	b9 08 00 00 00	 mov	 ecx, 8
  006fa	48 6b c9 01	 imul	 rcx, rcx, 1
  006fe	48 8b 15 00 00
	00 00		 mov	 rdx, QWORD PTR __imp_sysblk
  00705	4c 8b 05 00 00
	00 00		 mov	 r8, QWORD PTR __imp_sysblk
  0070c	49 8b 8c 08 d8
	12 00 00	 mov	 rcx, QWORD PTR [r8+rcx+4824]
  00714	48 39 8c 02 d8
	12 00 00	 cmp	 QWORD PTR [rdx+rax+4824], rcx
  0071c	0f 86 aa 01 00
	00		 jbe	 $LN6@z900_perfo
  00722	48 8b 84 24 90
	00 00 00	 mov	 rax, QWORD PTR regs$[rsp]
  0072a	48 8b 8c 24 90
	00 00 00	 mov	 rcx, QWORD PTR regs$[rsp]
  00732	48 8b 89 00 02
	00 00		 mov	 rcx, QWORD PTR [rcx+512]
  00739	48 8b 40 68	 mov	 rax, QWORD PTR [rax+104]
  0073d	48 2b c1	 sub	 rax, rcx
  00740	48 8b 8c 24 90
	00 00 00	 mov	 rcx, QWORD PTR regs$[rsp]
  00748	48 8b 89 10 02
	00 00		 mov	 rcx, QWORD PTR [rcx+528]
  0074f	48 03 c8	 add	 rcx, rax
  00752	48 8b c1	 mov	 rax, rcx
  00755	48 8b 8c 24 90
	00 00 00	 mov	 rcx, QWORD PTR regs$[rsp]
  0075d	48 23 81 90 00
	00 00		 and	 rax, QWORD PTR [rcx+144]
  00764	b9 08 00 00 00	 mov	 ecx, 8
  00769	48 6b c9 01	 imul	 rcx, rcx, 1
  0076d	48 8b 15 00 00
	00 00		 mov	 rdx, QWORD PTR __imp_sysblk
  00774	48 3b 84 0a d8
	12 00 00	 cmp	 rax, QWORD PTR [rdx+rcx+4824]
  0077c	0f 82 4a 01 00
	00		 jb	 $LN6@z900_perfo
  00782	48 8b 84 24 90
	00 00 00	 mov	 rax, QWORD PTR regs$[rsp]
  0078a	48 8b 8c 24 90
	00 00 00	 mov	 rcx, QWORD PTR regs$[rsp]
  00792	48 8b 89 00 02
	00 00		 mov	 rcx, QWORD PTR [rcx+512]
  00799	48 8b 40 68	 mov	 rax, QWORD PTR [rax+104]
  0079d	48 2b c1	 sub	 rax, rcx
  007a0	48 8b 8c 24 90
	00 00 00	 mov	 rcx, QWORD PTR regs$[rsp]
  007a8	48 8b 89 10 02
	00 00		 mov	 rcx, QWORD PTR [rcx+528]
  007af	48 03 c8	 add	 rcx, rax
  007b2	48 8b c1	 mov	 rax, rcx
  007b5	48 8b 8c 24 90
	00 00 00	 mov	 rcx, QWORD PTR regs$[rsp]
  007bd	48 23 81 90 00
	00 00		 and	 rax, QWORD PTR [rcx+144]
  007c4	b9 08 00 00 00	 mov	 ecx, 8
  007c9	48 6b c9 00	 imul	 rcx, rcx, 0
  007cd	48 8b 15 00 00
	00 00		 mov	 rdx, QWORD PTR __imp_sysblk
  007d4	48 3b 84 0a d8
	12 00 00	 cmp	 rax, QWORD PTR [rdx+rcx+4824]
  007dc	0f 87 ea 00 00
	00		 ja	 $LN6@z900_perfo
$LN22@z900_perfo:
$LN7@z900_perfo:

; 1633 :     {
; 1634 :         if (regs->insttrace && sysblk.traceFILE)

  007e2	48 8b 84 24 90
	00 00 00	 mov	 rax, QWORD PTR regs$[rsp]
  007ea	8b 80 28 07 00
	00		 mov	 eax, DWORD PTR [rax+1832]
  007f0	c1 e8 0f	 shr	 eax, 15
  007f3	83 e0 01	 and	 eax, 1
  007f6	85 c0		 test	 eax, eax
  007f8	74 33		 je	 SHORT $LN25@z900_perfo
  007fa	48 8b 05 00 00
	00 00		 mov	 rax, QWORD PTR __imp_sysblk
  00801	48 83 b8 20 14
	00 00 00	 cmp	 QWORD PTR [rax+5152], 0
  00809	74 22		 je	 SHORT $LN25@z900_perfo

; 1635 :             tf_0807( regs, mcic, fsta, xdmg );

  0080b	44 8b 4c 24 58	 mov	 r9d, DWORD PTR xdmg$[rsp]
  00810	4c 8b 44 24 70	 mov	 r8, QWORD PTR fsta$[rsp]
  00815	48 8b 54 24 68	 mov	 rdx, QWORD PTR mcic$[rsp]
  0081a	48 8b 8c 24 90
	00 00 00	 mov	 rcx, QWORD PTR regs$[rsp]
  00822	ff 15 00 00 00
	00		 call	 QWORD PTR __imp_tf_0807
  00828	e9 9f 00 00 00	 jmp	 $LN26@z900_perfo
$LN25@z900_perfo:

; 1636 :         else
; 1637 :             // "Processor %s%02X: machine check code %16.16"PRIu64
; 1638 :             WRMSG (HHC00807, "I", PTYPSTR(regs->cpuad), regs->cpuad, mcic);

  0082d	48 8b 84 24 90
	00 00 00	 mov	 rax, QWORD PTR regs$[rsp]
  00835	0f b7 80 3c 08
	00 00		 movzx	 eax, WORD PTR [rax+2108]
  0083c	89 44 24 5c	 mov	 DWORD PTR tv361[rsp], eax
  00840	48 8b 8c 24 90
	00 00 00	 mov	 rcx, QWORD PTR regs$[rsp]
  00848	0f b7 89 3c 08
	00 00		 movzx	 ecx, WORD PTR [rcx+2108]
  0084f	48 8b 15 00 00
	00 00		 mov	 rdx, QWORD PTR __imp_sysblk
  00856	0f b6 8c 0a 48
	0b 00 00	 movzx	 ecx, BYTE PTR [rdx+rcx+2888]
  0085e	ff 15 00 00 00
	00		 call	 QWORD PTR __imp_ptyp2short
  00864	48 89 44 24 78	 mov	 QWORD PTR tv363[rsp], rax
  00869	b9 01 00 00 00	 mov	 ecx, 1
  0086e	ff 15 00 00 00
	00		 call	 QWORD PTR __imp___acrt_iob_func
  00874	48 8b 4c 24 68	 mov	 rcx, QWORD PTR mcic$[rsp]
  00879	48 89 4c 24 48	 mov	 QWORD PTR [rsp+72], rcx
  0087e	8b 4c 24 5c	 mov	 ecx, DWORD PTR tv361[rsp]
  00882	89 4c 24 40	 mov	 DWORD PTR [rsp+64], ecx
  00886	48 8b 4c 24 78	 mov	 rcx, QWORD PTR tv363[rsp]
  0088b	48 89 4c 24 38	 mov	 QWORD PTR [rsp+56], rcx
  00890	48 8d 0d 00 00
	00 00		 lea	 rcx, OFFSET FLAT:$SG196432
  00897	48 89 4c 24 30	 mov	 QWORD PTR [rsp+48], rcx
  0089c	48 8d 0d 00 00
	00 00		 lea	 rcx, OFFSET FLAT:$SG196433
  008a3	48 89 4c 24 28	 mov	 QWORD PTR [rsp+40], rcx
  008a8	48 89 44 24 20	 mov	 QWORD PTR [rsp+32], rax
  008ad	41 b9 03 00 00
	00		 mov	 r9d, 3
  008b3	4c 8d 05 00 00
	00 00		 lea	 r8, OFFSET FLAT:$SG196434
  008ba	ba 66 06 00 00	 mov	 edx, 1638		; 00000666H
  008bf	48 8d 0d 00 00
	00 00		 lea	 rcx, OFFSET FLAT:$SG196435
  008c6	ff 15 00 00 00
	00		 call	 QWORD PTR __imp_fwritemsg
$LN26@z900_perfo:
$LN6@z900_perfo:

; 1639 :     }
; 1640 : 
; 1641 :     /* Store the external damage code at PSA+244 */
; 1642 :     STORE_FW(psa->xdmgcode, xdmg);

  008cc	8b 4c 24 58	 mov	 ecx, DWORD PTR xdmg$[rsp]
  008d0	e8 00 00 00 00	 call	 _byteswap_ulong
  008d5	48 8b 4c 24 60	 mov	 rcx, QWORD PTR psa$[rsp]
  008da	48 81 c1 f4 00
	00 00		 add	 rcx, 244		; 000000f4H
  008e1	8b d0		 mov	 edx, eax
  008e3	e8 00 00 00 00	 call	 store_fw_noswap

; 1643 : 
; 1644 : #if defined( FEATURE_001_ZARCH_INSTALLED_FACILITY )
; 1645 :     /* Store the failing storage address at PSA+248 */
; 1646 :     STORE_DW(psa->mcstorad, fsta);

  008e8	48 8b 4c 24 70	 mov	 rcx, QWORD PTR fsta$[rsp]
  008ed	e8 00 00 00 00	 call	 _byteswap_uint64
  008f2	48 8b 4c 24 60	 mov	 rcx, QWORD PTR psa$[rsp]
  008f7	48 81 c1 f8 00
	00 00		 add	 rcx, 248		; 000000f8H
  008fe	48 8b d0	 mov	 rdx, rax
  00901	e8 00 00 00 00	 call	 store_dw_noswap

; 1647 : #else
; 1648 :     /* Store the failing storage address at PSA+248 */
; 1649 :     STORE_FW(psa->mcstorad, fsta);
; 1650 : #endif
; 1651 : 
; 1652 : #if defined( FEATURE_073_TRANSACT_EXEC_FACILITY )
; 1653 :     /* Abort any active transaction and then return back to here
; 1654 :        to continue with machine check interrupt processing */
; 1655 :     if (regs->txf_tnd)

  00906	48 8b 84 24 90
	00 00 00	 mov	 rax, QWORD PTR regs$[rsp]
  0090e	0f b6 80 58 0e
	00 00		 movzx	 eax, BYTE PTR [rax+3672]
  00915	85 c0		 test	 eax, eax
  00917	0f 84 a7 00 00
	00		 je	 $LN27@z900_perfo
$LN4@z900_perfo:

; 1656 :     {
; 1657 :         PTT_TXF( "*TXF MCK", 0, regs->txf_contran, regs->txf_tnd );

  0091d	48 8b 05 00 00
	00 00		 mov	 rax, QWORD PTR __imp_pttclass
  00924	48 8b 00	 mov	 rax, QWORD PTR [rax]
  00927	48 25 00 04 00
	00		 and	 rax, 1024		; 00000400H
  0092d	48 85 c0	 test	 rax, rax
  00930	74 50		 je	 SHORT $LN28@z900_perfo
  00932	48 8b 84 24 90
	00 00 00	 mov	 rax, QWORD PTR regs$[rsp]
  0093a	0f b6 80 58 0e
	00 00		 movzx	 eax, BYTE PTR [rax+3672]
  00941	48 8b 8c 24 90
	00 00 00	 mov	 rcx, QWORD PTR regs$[rsp]
  00949	0f b6 89 4c 0e
	00 00		 movzx	 ecx, BYTE PTR [rcx+3660]
  00950	48 c7 44 24 30
	00 00 00 00	 mov	 QWORD PTR [rsp+48], 0
  00959	48 89 44 24 28	 mov	 QWORD PTR [rsp+40], rax
  0095e	48 8d 05 00 00
	00 00		 lea	 rax, OFFSET FLAT:$SG196438
  00965	48 89 44 24 20	 mov	 QWORD PTR [rsp+32], rax
  0096a	44 8b c9	 mov	 r9d, ecx
  0096d	45 33 c0	 xor	 r8d, r8d
  00970	48 8d 15 00 00
	00 00		 lea	 rdx, OFFSET FLAT:$SG196439
  00977	b9 00 04 00 00	 mov	 ecx, 1024		; 00000400H
  0097c	ff 15 00 00 00
	00		 call	 QWORD PTR __imp_ptt_pthread_trace
$LN28@z900_perfo:
  00982	33 c0		 xor	 eax, eax
  00984	85 c0		 test	 eax, eax
  00986	75 95		 jne	 SHORT $LN4@z900_perfo

; 1658 :         regs->txf_why |= TXF_WHY_MCK_INT;

  00988	48 8b 84 24 90
	00 00 00	 mov	 rax, QWORD PTR regs$[rsp]
  00990	8b 80 84 af 00
	00		 mov	 eax, DWORD PTR [rax+44932]
  00996	0f ba e8 12	 bts	 eax, 18
  0099a	48 8b 8c 24 90
	00 00 00	 mov	 rcx, QWORD PTR regs$[rsp]
  009a2	89 81 84 af 00
	00		 mov	 DWORD PTR [rcx+44932], eax

; 1659 :         ABORT_TRANS( regs, ABORT_RETRY_RETURN, TAC_MCK );

  009a8	4c 8d 0d 00 00
	00 00		 lea	 r9, OFFSET FLAT:$SG196440
  009af	41 b8 05 00 00
	00		 mov	 r8d, 5
  009b5	33 d2		 xor	 edx, edx
  009b7	48 8b 8c 24 90
	00 00 00	 mov	 rcx, QWORD PTR regs$[rsp]
  009bf	e8 00 00 00 00	 call	 z900_abort_transaction
$LN27@z900_perfo:

; 1660 :     }
; 1661 : #endif
; 1662 :     /* Store current PSW at PSA+X'30' */
; 1663 :     ARCH_DEP(store_psw) ( regs, psa->mckold );

  009c4	48 8b 44 24 60	 mov	 rax, QWORD PTR psa$[rsp]
  009c9	48 05 60 01 00
	00		 add	 rax, 352		; 00000160H
  009cf	48 8b d0	 mov	 rdx, rax
  009d2	48 8b 8c 24 90
	00 00 00	 mov	 rcx, QWORD PTR regs$[rsp]
  009da	e8 00 00 00 00	 call	 z900_store_psw

; 1664 : 
; 1665 :     /* Load new PSW from PSA+X'70' */
; 1666 :     rc = ARCH_DEP(load_psw) ( regs, psa->mcknew );

  009df	48 8b 44 24 60	 mov	 rax, QWORD PTR psa$[rsp]
  009e4	48 05 e0 01 00
	00		 add	 rax, 480		; 000001e0H
  009ea	48 8b d0	 mov	 rdx, rax
  009ed	48 8b 8c 24 90
	00 00 00	 mov	 rcx, QWORD PTR regs$[rsp]
  009f5	e8 00 00 00 00	 call	 z900_load_psw
  009fa	89 44 24 50	 mov	 DWORD PTR rc$[rsp], eax

; 1667 : 
; 1668 :     RELEASE_INTLOCK(regs);

  009fe	48 8d 15 00 00
	00 00		 lea	 rdx, OFFSET FLAT:$SG196441
  00a05	48 8b 8c 24 90
	00 00 00	 mov	 rcx, QWORD PTR regs$[rsp]
  00a0d	e8 00 00 00 00	 call	 Release_Interrupt_Lock

; 1669 : 
; 1670 :     if ( rc )

  00a12	83 7c 24 50 00	 cmp	 DWORD PTR rc$[rsp], 0
  00a17	74 1a		 je	 SHORT $LN29@z900_perfo

; 1671 :         regs->program_interrupt (regs, rc);

  00a19	8b 54 24 50	 mov	 edx, DWORD PTR rc$[rsp]
  00a1d	48 8b 8c 24 90
	00 00 00	 mov	 rcx, QWORD PTR regs$[rsp]
  00a25	48 8b 84 24 90
	00 00 00	 mov	 rax, QWORD PTR regs$[rsp]
  00a2d	ff 90 20 0d 00
	00		 call	 QWORD PTR [rax+3360]
$LN29@z900_perfo:

; 1672 : 
; 1673 :     longjmp (regs->progjmp, SIE_INTERCEPT_MCK);

  00a33	48 8b 84 24 90
	00 00 00	 mov	 rax, QWORD PTR regs$[rsp]
  00a3b	48 05 80 09 00
	00		 add	 rax, 2432		; 00000980H
  00a41	ba f5 ff ff ff	 mov	 edx, -11
  00a46	48 8b c8	 mov	 rcx, rax
  00a49	e8 00 00 00 00	 call	 longjmp
$LN1@z900_perfo:
$LN30@z900_perfo:

; 1674 : } /* end function perform_mck_interrupt */

  00a4e	48 81 c4 88 00
	00 00		 add	 rsp, 136		; 00000088H
  00a55	c3		 ret	 0
z900_perform_mck_interrupt ENDP
_TEXT	ENDS
; Function compile flags: /Odtp
; File C:\papa\MyGit\hyperion-zvector\cpu.c
_TEXT	SEGMENT
rc$ = 64
psa$ = 72
regs$ = 96
z900_restart_interrupt PROC

; 1408 : {

  00000	48 89 4c 24 08	 mov	 QWORD PTR [rsp+8], rcx
  00005	48 83 ec 58	 sub	 rsp, 88			; 00000058H
$LN4@z900_resta:

; 1409 : int     rc;                             /* Return code               */
; 1410 : PSA    *psa;                            /* -> Prefixed storage area  */
; 1411 : 
; 1412 :     PTT_INF("*RESTART",regs->cpuad,regs->cpustate,regs->psw.IA_L);

  00009	48 8b 05 00 00
	00 00		 mov	 rax, QWORD PTR __imp_pttclass
  00010	48 8b 00	 mov	 rax, QWORD PTR [rax]
  00013	48 83 e0 08	 and	 rax, 8
  00017	48 85 c0	 test	 rax, rax
  0001a	74 52		 je	 SHORT $LN8@z900_resta
  0001c	48 8b 44 24 60	 mov	 rax, QWORD PTR regs$[rsp]
  00021	8b 80 88 00 00
	00		 mov	 eax, DWORD PTR [rax+136]
  00027	48 8b 4c 24 60	 mov	 rcx, QWORD PTR regs$[rsp]
  0002c	0f b6 49 60	 movzx	 ecx, BYTE PTR [rcx+96]
  00030	48 8b 54 24 60	 mov	 rdx, QWORD PTR regs$[rsp]
  00035	0f b7 92 3c 08
	00 00		 movzx	 edx, WORD PTR [rdx+2108]
  0003c	48 c7 44 24 30
	00 00 00 00	 mov	 QWORD PTR [rsp+48], 0
  00045	48 89 44 24 28	 mov	 QWORD PTR [rsp+40], rax
  0004a	48 8d 05 00 00
	00 00		 lea	 rax, OFFSET FLAT:$SG196259
  00051	48 89 44 24 20	 mov	 QWORD PTR [rsp+32], rax
  00056	44 8b c9	 mov	 r9d, ecx
  00059	44 8b c2	 mov	 r8d, edx
  0005c	48 8d 15 00 00
	00 00		 lea	 rdx, OFFSET FLAT:$SG196260
  00063	b9 08 00 00 00	 mov	 ecx, 8
  00068	ff 15 00 00 00
	00		 call	 QWORD PTR __imp_ptt_pthread_trace
$LN8@z900_resta:
  0006e	33 c0		 xor	 eax, eax
  00070	85 c0		 test	 eax, eax
  00072	75 95		 jne	 SHORT $LN4@z900_resta

; 1413 : 
; 1414 :     /* Set the main storage reference and change bits */
; 1415 :     ARCH_DEP( or_storage_key )( regs->PX, (STORKEY_REF | STORKEY_CHANGE) );

  00074	b2 06		 mov	 dl, 6
  00076	48 8b 44 24 60	 mov	 rax, QWORD PTR regs$[rsp]
  0007b	48 8b 48 70	 mov	 rcx, QWORD PTR [rax+112]
  0007f	e8 00 00 00 00	 call	 z900_or_storage_key

; 1416 : 
; 1417 :     /* Zeroize the interrupt code in the PSW */
; 1418 :     regs->psw.intcode = 0;

  00084	33 c0		 xor	 eax, eax
  00086	48 8b 4c 24 60	 mov	 rcx, QWORD PTR regs$[rsp]
  0008b	66 89 81 98 00
	00 00		 mov	 WORD PTR [rcx+152], ax

; 1419 : 
; 1420 :     /* Point to PSA in main storage */
; 1421 :     psa = (PSA*)(regs->mainstor + regs->PX);

  00092	48 8b 44 24 60	 mov	 rax, QWORD PTR regs$[rsp]
  00097	48 8b 80 48 08
	00 00		 mov	 rax, QWORD PTR [rax+2120]
  0009e	48 8b 4c 24 60	 mov	 rcx, QWORD PTR regs$[rsp]
  000a3	48 03 41 70	 add	 rax, QWORD PTR [rcx+112]
  000a7	48 89 44 24 48	 mov	 QWORD PTR psa$[rsp], rax

; 1422 : 
; 1423 : #if defined( FEATURE_073_TRANSACT_EXEC_FACILITY )
; 1424 :     /* Abort any active transaction and then return back to here
; 1425 :        to continue with restart interrupt processing */
; 1426 :     if (regs->txf_tnd)

  000ac	48 8b 44 24 60	 mov	 rax, QWORD PTR regs$[rsp]
  000b1	0f b6 80 58 0e
	00 00		 movzx	 eax, BYTE PTR [rax+3672]
  000b8	85 c0		 test	 eax, eax
  000ba	0f 84 98 00 00
	00		 je	 $LN9@z900_resta
$LN7@z900_resta:

; 1427 :     {
; 1428 :         PTT_TXF( "*TXF MISC", 0, regs->txf_contran, regs->txf_tnd );

  000c0	48 8b 05 00 00
	00 00		 mov	 rax, QWORD PTR __imp_pttclass
  000c7	48 8b 00	 mov	 rax, QWORD PTR [rax]
  000ca	48 25 00 04 00
	00		 and	 rax, 1024		; 00000400H
  000d0	48 85 c0	 test	 rax, rax
  000d3	74 4a		 je	 SHORT $LN10@z900_resta
  000d5	48 8b 44 24 60	 mov	 rax, QWORD PTR regs$[rsp]
  000da	0f b6 80 58 0e
	00 00		 movzx	 eax, BYTE PTR [rax+3672]
  000e1	48 8b 4c 24 60	 mov	 rcx, QWORD PTR regs$[rsp]
  000e6	0f b6 89 4c 0e
	00 00		 movzx	 ecx, BYTE PTR [rcx+3660]
  000ed	48 c7 44 24 30
	00 00 00 00	 mov	 QWORD PTR [rsp+48], 0
  000f6	48 89 44 24 28	 mov	 QWORD PTR [rsp+40], rax
  000fb	48 8d 05 00 00
	00 00		 lea	 rax, OFFSET FLAT:$SG196263
  00102	48 89 44 24 20	 mov	 QWORD PTR [rsp+32], rax
  00107	44 8b c9	 mov	 r9d, ecx
  0010a	45 33 c0	 xor	 r8d, r8d
  0010d	48 8d 15 00 00
	00 00		 lea	 rdx, OFFSET FLAT:$SG196264
  00114	b9 00 04 00 00	 mov	 ecx, 1024		; 00000400H
  00119	ff 15 00 00 00
	00		 call	 QWORD PTR __imp_ptt_pthread_trace
$LN10@z900_resta:
  0011f	33 c0		 xor	 eax, eax
  00121	85 c0		 test	 eax, eax
  00123	75 9b		 jne	 SHORT $LN7@z900_resta

; 1429 :         regs->txf_why |= TXF_WHY_RESTART_INT;

  00125	48 8b 44 24 60	 mov	 rax, QWORD PTR regs$[rsp]
  0012a	8b 80 84 af 00
	00		 mov	 eax, DWORD PTR [rax+44932]
  00130	0f ba e8 14	 bts	 eax, 20
  00134	48 8b 4c 24 60	 mov	 rcx, QWORD PTR regs$[rsp]
  00139	89 81 84 af 00
	00		 mov	 DWORD PTR [rcx+44932], eax

; 1430 :         ABORT_TRANS( regs, ABORT_RETRY_RETURN, TAC_MISC );

  0013f	4c 8d 0d 00 00
	00 00		 lea	 r9, OFFSET FLAT:$SG196265
  00146	41 b8 ff 00 00
	00		 mov	 r8d, 255		; 000000ffH
  0014c	33 d2		 xor	 edx, edx
  0014e	48 8b 4c 24 60	 mov	 rcx, QWORD PTR regs$[rsp]
  00153	e8 00 00 00 00	 call	 z900_abort_transaction
$LN9@z900_resta:

; 1431 :     }
; 1432 : #endif
; 1433 :     /* Store current PSW at PSA+X'8' or PSA+X'120' for ESAME  */
; 1434 :     ARCH_DEP(store_psw) (regs, psa->RSTOLD);

  00158	48 8b 44 24 48	 mov	 rax, QWORD PTR psa$[rsp]
  0015d	48 05 20 01 00
	00		 add	 rax, 288		; 00000120H
  00163	48 8b d0	 mov	 rdx, rax
  00166	48 8b 4c 24 60	 mov	 rcx, QWORD PTR regs$[rsp]
  0016b	e8 00 00 00 00	 call	 z900_store_psw

; 1435 : 
; 1436 :     /* Load new PSW from PSA+X'0' or PSA+X'1A0' for ESAME */
; 1437 :     rc = ARCH_DEP(load_psw) (regs, psa->RSTNEW);

  00170	48 8b 44 24 48	 mov	 rax, QWORD PTR psa$[rsp]
  00175	48 05 a0 01 00
	00		 add	 rax, 416		; 000001a0H
  0017b	48 8b d0	 mov	 rdx, rax
  0017e	48 8b 4c 24 60	 mov	 rcx, QWORD PTR regs$[rsp]
  00183	e8 00 00 00 00	 call	 z900_load_psw
  00188	89 44 24 40	 mov	 DWORD PTR rc$[rsp], eax

; 1438 : 
; 1439 :     if ( rc == 0)

  0018c	83 7c 24 40 00	 cmp	 DWORD PTR rc$[rsp], 0
  00191	75 22		 jne	 SHORT $LN11@z900_resta

; 1440 :     {
; 1441 :         regs->opinterv = 0;

  00193	48 8b 44 24 60	 mov	 rax, QWORD PTR regs$[rsp]
  00198	8b 80 28 07 00
	00		 mov	 eax, DWORD PTR [rax+1832]
  0019e	83 e0 ef	 and	 eax, -17		; ffffffefH
  001a1	48 8b 4c 24 60	 mov	 rcx, QWORD PTR regs$[rsp]
  001a6	89 81 28 07 00
	00		 mov	 DWORD PTR [rcx+1832], eax

; 1442 :         regs->cpustate = CPUSTATE_STARTED;

  001ac	48 8b 44 24 60	 mov	 rax, QWORD PTR regs$[rsp]
  001b1	c6 40 60 01	 mov	 BYTE PTR [rax+96], 1
$LN11@z900_resta:

; 1443 :     }
; 1444 : 
; 1445 :     RELEASE_INTLOCK(regs);

  001b5	48 8d 15 00 00
	00 00		 lea	 rdx, OFFSET FLAT:$SG196267
  001bc	48 8b 4c 24 60	 mov	 rcx, QWORD PTR regs$[rsp]
  001c1	e8 00 00 00 00	 call	 Release_Interrupt_Lock

; 1446 : 
; 1447 :     if ( rc )

  001c6	83 7c 24 40 00	 cmp	 DWORD PTR rc$[rsp], 0
  001cb	74 14		 je	 SHORT $LN12@z900_resta

; 1448 :         regs->program_interrupt(regs, rc);

  001cd	8b 54 24 40	 mov	 edx, DWORD PTR rc$[rsp]
  001d1	48 8b 4c 24 60	 mov	 rcx, QWORD PTR regs$[rsp]
  001d6	48 8b 44 24 60	 mov	 rax, QWORD PTR regs$[rsp]
  001db	ff 90 20 0d 00
	00		 call	 QWORD PTR [rax+3360]
$LN12@z900_resta:

; 1449 : 
; 1450 :     longjmp (regs->progjmp, SIE_INTERCEPT_RESTART);

  001e1	48 8b 44 24 60	 mov	 rax, QWORD PTR regs$[rsp]
  001e6	48 05 80 09 00
	00		 add	 rax, 2432		; 00000980H
  001ec	ba f6 ff ff ff	 mov	 edx, -10
  001f1	48 8b c8	 mov	 rcx, rax
  001f4	e8 00 00 00 00	 call	 longjmp
$LN13@z900_resta:

; 1451 : } /* end function restart_interrupt */

  001f9	48 83 c4 58	 add	 rsp, 88			; 00000058H
  001fd	c3		 ret	 0
z900_restart_interrupt ENDP
_TEXT	ENDS
; Function compile flags: /Odtp
; File C:\papa\MyGit\hyperion-zvector\vstore.h
;	COMDAT z900_instfetch
_TEXT	SEGMENT
addr$ = 48
pagesz$ = 56
ip$ = 64
offset$ = 72
len$ = 76
tv128 = 80
tv130 = 84
tv137 = 88
tv156 = 92
tv172 = 96
tv174 = 100
tv180 = 104
tv187 = 108
tv204 = 112
tv239 = 116
tv238 = 120
tv240 = 124
tv256 = 128
tv350 = 132
tv351 = 136
dest$ = 144
tv75 = 152
tv77 = 160
tv357 = 168
regs$ = 192
exec$ = 200
z900_instfetch PROC					; COMDAT

; 777  : {

$LN96:
  00000	89 54 24 10	 mov	 DWORD PTR [rsp+16], edx
  00004	48 89 4c 24 08	 mov	 QWORD PTR [rsp+8], rcx
  00009	48 81 ec b8 00
	00 00		 sub	 rsp, 184		; 000000b8H

; 778  : VADR    addr;                           /* Instruction address       */
; 779  : BYTE*   ip;                             /* Instruction pointer       */
; 780  : BYTE*   dest;                           /* Fetched Instruction       */
; 781  : int     pagesz;                         /* Effective page size       */
; 782  : int     offset;                         /* Address offset into page  */
; 783  : int     len;                            /* Length for page crossing  */
; 784  : 
; 785  :     addr = exec ? regs->ET : VALID_AIE( regs ) ?

  00010	83 bc 24 c8 00
	00 00 00	 cmp	 DWORD PTR exec$[rsp], 0
  00018	74 1c		 je	 SHORT $LN52@z900_instf
  0001a	48 8b 84 24 c0
	00 00 00	 mov	 rax, QWORD PTR regs$[rsp]
  00022	48 8b 80 20 07
	00 00		 mov	 rax, QWORD PTR [rax+1824]
  00029	48 89 84 24 a0
	00 00 00	 mov	 QWORD PTR tv77[rsp], rax
  00031	e9 85 00 00 00	 jmp	 $LN53@z900_instf
$LN52@z900_instf:
  00036	48 8b 84 24 c0
	00 00 00	 mov	 rax, QWORD PTR regs$[rsp]
  0003e	48 83 b8 08 02
	00 00 00	 cmp	 QWORD PTR [rax+520], 0
  00046	74 4c		 je	 SHORT $LN50@z900_instf
  00048	48 8b 84 24 c0
	00 00 00	 mov	 rax, QWORD PTR regs$[rsp]
  00050	48 8b 8c 24 c0
	00 00 00	 mov	 rcx, QWORD PTR regs$[rsp]
  00058	48 8b 89 00 02
	00 00		 mov	 rcx, QWORD PTR [rcx+512]
  0005f	48 8b 40 68	 mov	 rax, QWORD PTR [rax+104]
  00063	48 2b c1	 sub	 rax, rcx
  00066	48 8b 8c 24 c0
	00 00 00	 mov	 rcx, QWORD PTR regs$[rsp]
  0006e	48 8b 89 10 02
	00 00		 mov	 rcx, QWORD PTR [rcx+528]
  00075	48 03 c8	 add	 rcx, rax
  00078	48 8b c1	 mov	 rax, rcx
  0007b	48 8b 8c 24 c0
	00 00 00	 mov	 rcx, QWORD PTR regs$[rsp]
  00083	48 23 81 90 00
	00 00		 and	 rax, QWORD PTR [rcx+144]
  0008a	48 89 84 24 98
	00 00 00	 mov	 QWORD PTR tv75[rsp], rax
  00092	eb 17		 jmp	 SHORT $LN51@z900_instf
$LN50@z900_instf:
  00094	48 8b 84 24 c0
	00 00 00	 mov	 rax, QWORD PTR regs$[rsp]
  0009c	48 8b 80 88 00
	00 00		 mov	 rax, QWORD PTR [rax+136]
  000a3	48 89 84 24 98
	00 00 00	 mov	 QWORD PTR tv75[rsp], rax
$LN51@z900_instf:
  000ab	48 8b 84 24 98
	00 00 00	 mov	 rax, QWORD PTR tv75[rsp]
  000b3	48 89 84 24 a0
	00 00 00	 mov	 QWORD PTR tv77[rsp], rax
$LN53@z900_instf:
  000bb	48 8b 84 24 a0
	00 00 00	 mov	 rax, QWORD PTR tv77[rsp]
  000c3	48 89 44 24 30	 mov	 QWORD PTR addr$[rsp], rax

; 786  :         PSW_IA_FROM_IP( regs, 0 ) : regs->psw.IA;
; 787  : 
; 788  :     /* Ensure PSW IA matches the instruction we're fetching */
; 789  :     if (!exec)

  000c8	83 bc 24 c8 00
	00 00 00	 cmp	 DWORD PTR exec$[rsp], 0
  000d0	75 69		 jne	 SHORT $LN23@z900_instf
$LN4@z900_instf:

; 790  :         MAYBE_SET_PSW_IA_FROM_IP( regs );

  000d2	48 8b 84 24 c0
	00 00 00	 mov	 rax, QWORD PTR regs$[rsp]
  000da	48 83 b8 08 02
	00 00 00	 cmp	 QWORD PTR [rax+520], 0
  000e2	74 51		 je	 SHORT $LN24@z900_instf
  000e4	48 8b 84 24 c0
	00 00 00	 mov	 rax, QWORD PTR regs$[rsp]
  000ec	48 8b 8c 24 c0
	00 00 00	 mov	 rcx, QWORD PTR regs$[rsp]
  000f4	48 8b 89 00 02
	00 00		 mov	 rcx, QWORD PTR [rcx+512]
  000fb	48 8b 40 68	 mov	 rax, QWORD PTR [rax+104]
  000ff	48 2b c1	 sub	 rax, rcx
  00102	48 8b 8c 24 c0
	00 00 00	 mov	 rcx, QWORD PTR regs$[rsp]
  0010a	48 8b 89 10 02
	00 00		 mov	 rcx, QWORD PTR [rcx+528]
  00111	48 03 c8	 add	 rcx, rax
  00114	48 8b c1	 mov	 rax, rcx
  00117	48 8b 8c 24 c0
	00 00 00	 mov	 rcx, QWORD PTR regs$[rsp]
  0011f	48 23 81 90 00
	00 00		 and	 rax, QWORD PTR [rcx+144]
  00126	48 8b 8c 24 c0
	00 00 00	 mov	 rcx, QWORD PTR regs$[rsp]
  0012e	48 89 81 88 00
	00 00		 mov	 QWORD PTR [rcx+136], rax
$LN24@z900_instf:
  00135	33 c0		 xor	 eax, eax
  00137	85 c0		 test	 eax, eax
  00139	75 97		 jne	 SHORT $LN4@z900_instf
$LN23@z900_instf:

; 791  : 
; 792  :     offset = (int)(addr & PAGEFRAME_BYTEMASK);

  0013b	48 8b 44 24 30	 mov	 rax, QWORD PTR addr$[rsp]
  00140	48 25 ff 0f 00
	00		 and	 rax, 4095		; 00000fffH
  00146	89 44 24 48	 mov	 DWORD PTR offset$[rsp], eax

; 793  : 
; 794  :     pagesz = unlikely( addr < 0x800 ) ? 0x800 : PAGEFRAME_PAGESIZE;

  0014a	48 81 7c 24 30
	00 08 00 00	 cmp	 QWORD PTR addr$[rsp], 2048 ; 00000800H
  00153	73 0a		 jae	 SHORT $LN56@z900_instf
  00155	c7 44 24 50 01
	00 00 00	 mov	 DWORD PTR tv128[rsp], 1
  0015d	eb 08		 jmp	 SHORT $LN57@z900_instf
$LN56@z900_instf:
  0015f	c7 44 24 50 00
	00 00 00	 mov	 DWORD PTR tv128[rsp], 0
$LN57@z900_instf:
  00167	83 7c 24 50 00	 cmp	 DWORD PTR tv128[rsp], 0
  0016c	74 0a		 je	 SHORT $LN58@z900_instf
  0016e	c7 44 24 54 00
	08 00 00	 mov	 DWORD PTR tv130[rsp], 2048 ; 00000800H
  00176	eb 08		 jmp	 SHORT $LN59@z900_instf
$LN58@z900_instf:
  00178	c7 44 24 54 00
	10 00 00	 mov	 DWORD PTR tv130[rsp], 4096 ; 00001000H
$LN59@z900_instf:
  00180	8b 44 24 54	 mov	 eax, DWORD PTR tv130[rsp]
  00184	89 44 24 38	 mov	 DWORD PTR pagesz$[rsp], eax

; 795  : 
; 796  :     /* Program check if instruction address is odd */
; 797  :     if (unlikely( offset & 0x01 ))

  00188	8b 44 24 48	 mov	 eax, DWORD PTR offset$[rsp]
  0018c	83 e0 01	 and	 eax, 1
  0018f	85 c0		 test	 eax, eax
  00191	74 0a		 je	 SHORT $LN62@z900_instf
  00193	c7 44 24 58 01
	00 00 00	 mov	 DWORD PTR tv137[rsp], 1
  0019b	eb 08		 jmp	 SHORT $LN63@z900_instf
$LN62@z900_instf:
  0019d	c7 44 24 58 00
	00 00 00	 mov	 DWORD PTR tv137[rsp], 0
$LN63@z900_instf:
  001a5	83 7c 24 58 00	 cmp	 DWORD PTR tv137[rsp], 0
  001aa	74 44		 je	 SHORT $LN25@z900_instf

; 798  :     {
; 799  :         if (!exec)

  001ac	83 bc 24 c8 00
	00 00 00	 cmp	 DWORD PTR exec$[rsp], 0
  001b4	75 1f		 jne	 SHORT $LN26@z900_instf

; 800  :             regs->instinvalid = 1;

  001b6	48 8b 84 24 c0
	00 00 00	 mov	 rax, QWORD PTR regs$[rsp]
  001be	8b 80 28 07 00
	00		 mov	 eax, DWORD PTR [rax+1832]
  001c4	83 c8 08	 or	 eax, 8
  001c7	48 8b 8c 24 c0
	00 00 00	 mov	 rcx, QWORD PTR regs$[rsp]
  001cf	89 81 28 07 00
	00		 mov	 DWORD PTR [rcx+1832], eax
$LN26@z900_instf:

; 801  : 
; 802  :         regs->program_interrupt( regs, PGM_SPECIFICATION_EXCEPTION );

  001d5	ba 06 00 00 00	 mov	 edx, 6
  001da	48 8b 8c 24 c0
	00 00 00	 mov	 rcx, QWORD PTR regs$[rsp]
  001e2	48 8b 84 24 c0
	00 00 00	 mov	 rax, QWORD PTR regs$[rsp]
  001ea	ff 90 20 0d 00
	00		 call	 QWORD PTR [rax+3360]
$LN25@z900_instf:

; 803  :     }
; 804  : 
; 805  : #if defined( FEATURE_PER )
; 806  : 
; 807  :     /* Save the address used to fetch the instruction */
; 808  :     if (EN_IC_PER( regs ))

  001f0	48 8b 84 24 c0
	00 00 00	 mov	 rax, QWORD PTR regs$[rsp]
  001f8	8b 80 28 07 00
	00		 mov	 eax, DWORD PTR [rax+1832]
  001fe	c1 e8 02	 shr	 eax, 2
  00201	83 e0 01	 and	 eax, 1
  00204	85 c0		 test	 eax, eax
  00206	74 0a		 je	 SHORT $LN66@z900_instf
  00208	c7 44 24 5c 01
	00 00 00	 mov	 DWORD PTR tv156[rsp], 1
  00210	eb 08		 jmp	 SHORT $LN67@z900_instf
$LN66@z900_instf:
  00212	c7 44 24 5c 00
	00 00 00	 mov	 DWORD PTR tv156[rsp], 0
$LN67@z900_instf:
  0021a	83 7c 24 5c 00	 cmp	 DWORD PTR tv156[rsp], 0
  0021f	0f 84 16 05 00
	00		 je	 $LN27@z900_instf

; 809  :     {
; 810  : #if defined( FEATURE_PER2 )
; 811  :         regs->perc = 0x40    /* ATMID-validity */

  00225	48 8b 84 24 c0
	00 00 00	 mov	 rax, QWORD PTR regs$[rsp]
  0022d	0f b6 40 78	 movzx	 eax, BYTE PTR [rax+120]
  00231	83 e0 04	 and	 eax, 4
  00234	85 c0		 test	 eax, eax
  00236	74 0a		 je	 SHORT $LN68@z900_instf
  00238	c7 44 24 60 01
	00 00 00	 mov	 DWORD PTR tv172[rsp], 1
  00240	eb 08		 jmp	 SHORT $LN69@z900_instf
$LN68@z900_instf:
  00242	c7 44 24 60 00
	00 00 00	 mov	 DWORD PTR tv172[rsp], 0
$LN69@z900_instf:
  0024a	83 7c 24 60 00	 cmp	 DWORD PTR tv172[rsp], 0
  0024f	74 0a		 je	 SHORT $LN70@z900_instf
  00251	c7 44 24 64 10
	00 00 00	 mov	 DWORD PTR tv174[rsp], 16
  00259	eb 08		 jmp	 SHORT $LN71@z900_instf
$LN70@z900_instf:
  0025b	c7 44 24 64 00
	00 00 00	 mov	 DWORD PTR tv174[rsp], 0
$LN71@z900_instf:
  00263	48 8b 84 24 c0
	00 00 00	 mov	 rax, QWORD PTR regs$[rsp]
  0026b	0f b6 40 7b	 movzx	 eax, BYTE PTR [rax+123]
  0026f	25 80 00 00 00	 and	 eax, 128		; 00000080H
  00274	85 c0		 test	 eax, eax
  00276	74 0a		 je	 SHORT $LN72@z900_instf
  00278	c7 44 24 68 01
	00 00 00	 mov	 DWORD PTR tv180[rsp], 1
  00280	eb 08		 jmp	 SHORT $LN73@z900_instf
$LN72@z900_instf:
  00282	c7 44 24 68 00
	00 00 00	 mov	 DWORD PTR tv180[rsp], 0
$LN73@z900_instf:
  0028a	48 8b 84 24 c0
	00 00 00	 mov	 rax, QWORD PTR regs$[rsp]
  00292	0f b6 40 7b	 movzx	 eax, BYTE PTR [rax+123]
  00296	83 e0 40	 and	 eax, 64			; 00000040H
  00299	85 c0		 test	 eax, eax
  0029b	74 0a		 je	 SHORT $LN74@z900_instf
  0029d	c7 44 24 6c 01
	00 00 00	 mov	 DWORD PTR tv187[rsp], 1
  002a5	eb 08		 jmp	 SHORT $LN75@z900_instf
$LN74@z900_instf:
  002a7	c7 44 24 6c 00
	00 00 00	 mov	 DWORD PTR tv187[rsp], 0
$LN75@z900_instf:
  002af	48 8b 84 24 c0
	00 00 00	 mov	 rax, QWORD PTR regs$[rsp]
  002b7	8b 80 80 00 00
	00		 mov	 eax, DWORD PTR [rax+128]
  002bd	83 e0 01	 and	 eax, 1
  002c0	c1 e0 07	 shl	 eax, 7
  002c3	83 c8 40	 or	 eax, 64			; 00000040H
  002c6	48 8b 8c 24 c0
	00 00 00	 mov	 rcx, QWORD PTR regs$[rsp]
  002ce	8b 89 80 00 00
	00		 mov	 ecx, DWORD PTR [rcx+128]
  002d4	d1 e9		 shr	 ecx, 1
  002d6	83 e1 01	 and	 ecx, 1
  002d9	c1 e1 05	 shl	 ecx, 5
  002dc	0b c1		 or	 eax, ecx
  002de	0b 44 24 64	 or	 eax, DWORD PTR tv174[rsp]
  002e2	8b 4c 24 68	 mov	 ecx, DWORD PTR tv180[rsp]
  002e6	c1 e1 03	 shl	 ecx, 3
  002e9	0b c1		 or	 eax, ecx
  002eb	8b 4c 24 6c	 mov	 ecx, DWORD PTR tv187[rsp]
  002ef	c1 e1 02	 shl	 ecx, 2
  002f2	0b c1		 or	 eax, ecx
  002f4	48 8b 8c 24 c0
	00 00 00	 mov	 rcx, QWORD PTR regs$[rsp]
  002fc	66 89 81 d0 08
	00 00		 mov	 WORD PTR [rcx+2256], ax

; 812  :                    | (regs->psw.amode64        << 7 )
; 813  :                    | (regs->psw.amode          << 5 )
; 814  :                    | (!REAL_MODE( &regs->psw ) ? 0x10 : 0 )
; 815  :                    | (SPACE_BIT(  &regs->psw ) << 3 )
; 816  :                    | (AR_BIT   (  &regs->psw ) << 2 );
; 817  : #else
; 818  :         regs->perc = 0;
; 819  : #endif /* defined( FEATURE_PER2 ) */
; 820  : 
; 821  :         if (!exec)

  00303	83 bc 24 c8 00
	00 00 00	 cmp	 DWORD PTR exec$[rsp], 0
  0030b	75 14		 jne	 SHORT $LN28@z900_instf

; 822  :             regs->peradr = addr;

  0030d	48 8b 84 24 c0
	00 00 00	 mov	 rax, QWORD PTR regs$[rsp]
  00315	48 8b 4c 24 30	 mov	 rcx, QWORD PTR addr$[rsp]
  0031a	48 89 88 d8 08
	00 00		 mov	 QWORD PTR [rax+2264], rcx
$LN28@z900_instf:

; 823  : 
; 824  :         /* Test for PER instruction-fetching event */
; 825  :         if (1
; 826  :             && EN_IC_PER_IF( regs )
; 827  :             && PER_RANGE_CHECK( addr, regs->CR(10), regs->CR(11) )

  00321	33 c0		 xor	 eax, eax
  00323	83 f8 01	 cmp	 eax, 1
  00326	0f 84 22 02 00
	00		 je	 $LN29@z900_instf
  0032c	48 8b 84 24 c0
	00 00 00	 mov	 rax, QWORD PTR regs$[rsp]
  00334	8b 80 28 07 00
	00		 mov	 eax, DWORD PTR [rax+1832]
  0033a	c1 e8 02	 shr	 eax, 2
  0033d	83 e0 01	 and	 eax, 1
  00340	85 c0		 test	 eax, eax
  00342	74 0a		 je	 SHORT $LN78@z900_instf
  00344	c7 44 24 70 01
	00 00 00	 mov	 DWORD PTR tv204[rsp], 1
  0034c	eb 08		 jmp	 SHORT $LN79@z900_instf
$LN78@z900_instf:
  0034e	c7 44 24 70 00
	00 00 00	 mov	 DWORD PTR tv204[rsp], 0
$LN79@z900_instf:
  00356	83 7c 24 70 00	 cmp	 DWORD PTR tv204[rsp], 0
  0035b	0f 84 ed 01 00
	00		 je	 $LN29@z900_instf
  00361	48 8b 84 24 c0
	00 00 00	 mov	 rax, QWORD PTR regs$[rsp]
  00369	8b 40 48	 mov	 eax, DWORD PTR [rax+72]
  0036c	25 00 00 40 00	 and	 eax, 4194304		; 00400000H
  00371	85 c0		 test	 eax, eax
  00373	0f 84 d5 01 00
	00		 je	 $LN29@z900_instf
  00379	b8 08 00 00 00	 mov	 eax, 8
  0037e	48 6b c0 0c	 imul	 rax, rax, 12
  00382	b9 08 00 00 00	 mov	 ecx, 8
  00387	48 6b c9 0b	 imul	 rcx, rcx, 11
  0038b	48 8b 94 24 c0
	00 00 00	 mov	 rdx, QWORD PTR regs$[rsp]
  00393	4c 8b 84 24 c0
	00 00 00	 mov	 r8, QWORD PTR regs$[rsp]
  0039b	49 8b 8c 08 00
	06 00 00	 mov	 rcx, QWORD PTR [r8+rcx+1536]
  003a3	48 39 8c 02 00
	06 00 00	 cmp	 QWORD PTR [rdx+rax+1536], rcx
  003ab	72 5c		 jb	 SHORT $LN84@z900_instf
  003ad	b8 08 00 00 00	 mov	 eax, 8
  003b2	48 6b c0 0b	 imul	 rax, rax, 11
  003b6	48 8b 8c 24 c0
	00 00 00	 mov	 rcx, QWORD PTR regs$[rsp]
  003be	48 8b 84 01 00
	06 00 00	 mov	 rax, QWORD PTR [rcx+rax+1536]
  003c6	48 39 44 24 30	 cmp	 QWORD PTR addr$[rsp], rax
  003cb	72 2a		 jb	 SHORT $LN80@z900_instf
  003cd	b8 08 00 00 00	 mov	 eax, 8
  003d2	48 6b c0 0c	 imul	 rax, rax, 12
  003d6	48 8b 8c 24 c0
	00 00 00	 mov	 rcx, QWORD PTR regs$[rsp]
  003de	48 8b 84 01 00
	06 00 00	 mov	 rax, QWORD PTR [rcx+rax+1536]
  003e6	48 39 44 24 30	 cmp	 QWORD PTR addr$[rsp], rax
  003eb	77 0a		 ja	 SHORT $LN80@z900_instf
  003ed	c7 44 24 74 01
	00 00 00	 mov	 DWORD PTR tv239[rsp], 1
  003f5	eb 08		 jmp	 SHORT $LN83@z900_instf
$LN80@z900_instf:
  003f7	c7 44 24 74 00
	00 00 00	 mov	 DWORD PTR tv239[rsp], 0
$LN83@z900_instf:
  003ff	8b 44 24 74	 mov	 eax, DWORD PTR tv239[rsp]
  00403	89 44 24 7c	 mov	 DWORD PTR tv240[rsp], eax
  00407	eb 5a		 jmp	 SHORT $LN85@z900_instf
$LN84@z900_instf:
  00409	b8 08 00 00 00	 mov	 eax, 8
  0040e	48 6b c0 0b	 imul	 rax, rax, 11
  00412	48 8b 8c 24 c0
	00 00 00	 mov	 rcx, QWORD PTR regs$[rsp]
  0041a	48 8b 84 01 00
	06 00 00	 mov	 rax, QWORD PTR [rcx+rax+1536]
  00422	48 39 44 24 30	 cmp	 QWORD PTR addr$[rsp], rax
  00427	73 2a		 jae	 SHORT $LN81@z900_instf
  00429	b8 08 00 00 00	 mov	 eax, 8
  0042e	48 6b c0 0c	 imul	 rax, rax, 12
  00432	48 8b 8c 24 c0
	00 00 00	 mov	 rcx, QWORD PTR regs$[rsp]
  0043a	48 8b 84 01 00
	06 00 00	 mov	 rax, QWORD PTR [rcx+rax+1536]
  00442	48 39 44 24 30	 cmp	 QWORD PTR addr$[rsp], rax
  00447	76 0a		 jbe	 SHORT $LN81@z900_instf
  00449	c7 44 24 78 00
	00 00 00	 mov	 DWORD PTR tv238[rsp], 0
  00451	eb 08		 jmp	 SHORT $LN82@z900_instf
$LN81@z900_instf:
  00453	c7 44 24 78 01
	00 00 00	 mov	 DWORD PTR tv238[rsp], 1
$LN82@z900_instf:
  0045b	8b 44 24 78	 mov	 eax, DWORD PTR tv238[rsp]
  0045f	89 44 24 7c	 mov	 DWORD PTR tv240[rsp], eax
$LN85@z900_instf:
  00463	83 7c 24 7c 00	 cmp	 DWORD PTR tv240[rsp], 0
  00468	0f 84 e0 00 00
	00		 je	 $LN29@z900_instf
$LN7@z900_instf:

; 828  :         )
; 829  :         {
; 830  :             ON_IC_PER_IF( regs );

  0046e	48 8b 84 24 c0
	00 00 00	 mov	 rax, QWORD PTR regs$[rsp]
  00476	8b 40 4c	 mov	 eax, DWORD PTR [rax+76]
  00479	0f ba e8 16	 bts	 eax, 22
  0047d	48 8b 8c 24 c0
	00 00 00	 mov	 rcx, QWORD PTR regs$[rsp]
  00485	89 41 4c	 mov	 DWORD PTR [rcx+76], eax
  00488	33 c0		 xor	 eax, eax
  0048a	85 c0		 test	 eax, eax
  0048c	75 e0		 jne	 SHORT $LN7@z900_instf

; 831  : 
; 832  : #if defined( FEATURE_PER3 )
; 833  :             /* If CR9_IFNUL (PER instruction-fetching nullification) is
; 834  :                set, take a program check immediately, without executing
; 835  :                the instruction or updating the PSW instruction address */
; 836  :             if (EN_IC_PER_IFNUL( regs ))

  0048e	48 8b 84 24 c0
	00 00 00	 mov	 rax, QWORD PTR regs$[rsp]
  00496	8b 80 28 07 00
	00		 mov	 eax, DWORD PTR [rax+1832]
  0049c	c1 e8 02	 shr	 eax, 2
  0049f	83 e0 01	 and	 eax, 1
  004a2	85 c0		 test	 eax, eax
  004a4	74 0d		 je	 SHORT $LN88@z900_instf
  004a6	c7 84 24 80 00
	00 00 01 00 00
	00		 mov	 DWORD PTR tv256[rsp], 1
  004b1	eb 0b		 jmp	 SHORT $LN89@z900_instf
$LN88@z900_instf:
  004b3	c7 84 24 80 00
	00 00 00 00 00
	00		 mov	 DWORD PTR tv256[rsp], 0
$LN89@z900_instf:
  004be	83 bc 24 80 00
	00 00 00	 cmp	 DWORD PTR tv256[rsp], 0
  004c6	0f 84 82 00 00
	00		 je	 $LN30@z900_instf
  004cc	48 8b 84 24 c0
	00 00 00	 mov	 rax, QWORD PTR regs$[rsp]
  004d4	8b 40 48	 mov	 eax, DWORD PTR [rax+72]
  004d7	25 00 00 01 00	 and	 eax, 65536		; 00010000H
  004dc	85 c0		 test	 eax, eax
  004de	74 6e		 je	 SHORT $LN30@z900_instf
$LN10@z900_instf:

; 837  :             {
; 838  :                 ON_IC_PER_IFNUL( regs );

  004e0	48 8b 84 24 c0
	00 00 00	 mov	 rax, QWORD PTR regs$[rsp]
  004e8	8b 40 4c	 mov	 eax, DWORD PTR [rax+76]
  004eb	0f ba e8 10	 bts	 eax, 16
  004ef	48 8b 8c 24 c0
	00 00 00	 mov	 rcx, QWORD PTR regs$[rsp]
  004f7	89 41 4c	 mov	 DWORD PTR [rcx+76], eax
  004fa	33 c0		 xor	 eax, eax
  004fc	85 c0		 test	 eax, eax
  004fe	75 e0		 jne	 SHORT $LN10@z900_instf

; 839  :                 regs->psw.IA = addr;

  00500	48 8b 84 24 c0
	00 00 00	 mov	 rax, QWORD PTR regs$[rsp]
  00508	48 8b 4c 24 30	 mov	 rcx, QWORD PTR addr$[rsp]
  0050d	48 89 88 88 00
	00 00		 mov	 QWORD PTR [rax+136], rcx

; 840  :                 regs->psw.zeroilc = 1;

  00514	48 8b 84 24 c0
	00 00 00	 mov	 rax, QWORD PTR regs$[rsp]
  0051c	8b 80 80 00 00
	00		 mov	 eax, DWORD PTR [rax+128]
  00522	83 c8 04	 or	 eax, 4
  00525	48 8b 8c 24 c0
	00 00 00	 mov	 rcx, QWORD PTR regs$[rsp]
  0052d	89 81 80 00 00
	00		 mov	 DWORD PTR [rcx+128], eax

; 841  :                 regs->program_interrupt( regs, PGM_PER_EVENT );

  00533	ba 80 00 00 00	 mov	 edx, 128		; 00000080H
  00538	48 8b 8c 24 c0
	00 00 00	 mov	 rcx, QWORD PTR regs$[rsp]
  00540	48 8b 84 24 c0
	00 00 00	 mov	 rax, QWORD PTR regs$[rsp]
  00548	ff 90 20 0d 00
	00		 call	 QWORD PTR [rax+3360]
$LN30@z900_instf:
$LN29@z900_instf:

; 842  :             }
; 843  : #endif /* defined( FEATURE_PER3 ) */
; 844  :         }
; 845  : 
; 846  :         /* Quick exit if AIA is still valid */
; 847  :         if (1
; 848  :             && !exec
; 849  :             && !regs->breakortrace
; 850  :             &&  VALID_AIE( regs )
; 851  :             &&  regs->ip < (regs->aip + pagesz - 5)

  0054e	33 c0		 xor	 eax, eax
  00550	83 f8 01	 cmp	 eax, 1
  00553	0f 84 e2 01 00
	00		 je	 $LN31@z900_instf
  00559	83 bc 24 c8 00
	00 00 00	 cmp	 DWORD PTR exec$[rsp], 0
  00561	0f 85 d4 01 00
	00		 jne	 $LN31@z900_instf
  00567	48 8b 84 24 c0
	00 00 00	 mov	 rax, QWORD PTR regs$[rsp]
  0056f	8b 80 28 07 00
	00		 mov	 eax, DWORD PTR [rax+1832]
  00575	c1 e8 10	 shr	 eax, 16
  00578	83 e0 01	 and	 eax, 1
  0057b	85 c0		 test	 eax, eax
  0057d	0f 85 b8 01 00
	00		 jne	 $LN31@z900_instf
  00583	48 8b 84 24 c0
	00 00 00	 mov	 rax, QWORD PTR regs$[rsp]
  0058b	48 83 b8 08 02
	00 00 00	 cmp	 QWORD PTR [rax+520], 0
  00593	0f 84 a2 01 00
	00		 je	 $LN31@z900_instf
  00599	48 63 44 24 38	 movsxd	 rax, DWORD PTR pagesz$[rsp]
  0059e	48 8b 8c 24 c0
	00 00 00	 mov	 rcx, QWORD PTR regs$[rsp]
  005a6	48 8b 89 00 02
	00 00		 mov	 rcx, QWORD PTR [rcx+512]
  005ad	48 8d 44 01 fb	 lea	 rax, QWORD PTR [rcx+rax-5]
  005b2	48 8b 8c 24 c0
	00 00 00	 mov	 rcx, QWORD PTR regs$[rsp]
  005ba	48 39 41 68	 cmp	 QWORD PTR [rcx+104], rax
  005be	0f 83 77 01 00
	00		 jae	 $LN31@z900_instf

; 852  :         )
; 853  :         {
; 854  : #if defined( FEATURE_073_TRANSACT_EXEC_FACILITY )
; 855  : 
; 856  :             /* Update CONSTRAINED trans instruction fetch constraint */
; 857  :             if (regs->txf_contran)

  005c4	48 8b 84 24 c0
	00 00 00	 mov	 rax, QWORD PTR regs$[rsp]
  005cc	0f b6 80 4c 0e
	00 00		 movzx	 eax, BYTE PTR [rax+3660]
  005d3	85 c0		 test	 eax, eax
  005d5	74 4d		 je	 SHORT $LN32@z900_instf

; 858  :             {
; 859  :                 if (regs->AIV == regs->txf_aie_aiv2)

  005d7	48 8b 84 24 c0
	00 00 00	 mov	 rax, QWORD PTR regs$[rsp]
  005df	48 8b 8c 24 c0
	00 00 00	 mov	 rcx, QWORD PTR regs$[rsp]
  005e7	48 8b 89 70 af
	00 00		 mov	 rcx, QWORD PTR [rcx+44912]
  005ee	48 39 88 10 02
	00 00		 cmp	 QWORD PTR [rax+528], rcx
  005f5	75 2d		 jne	 SHORT $LN33@z900_instf

; 860  :                     regs->txf_aie = regs->aip + regs->txf_aie_off2;

  005f7	48 8b 84 24 c0
	00 00 00	 mov	 rax, QWORD PTR regs$[rsp]
  005ff	48 63 80 78 af
	00 00		 movsxd	 rax, DWORD PTR [rax+44920]
  00606	48 8b 8c 24 c0
	00 00 00	 mov	 rcx, QWORD PTR regs$[rsp]
  0060e	48 03 81 00 02
	00 00		 add	 rax, QWORD PTR [rcx+512]
  00615	48 8b 8c 24 c0
	00 00 00	 mov	 rcx, QWORD PTR regs$[rsp]
  0061d	48 89 81 60 af
	00 00		 mov	 QWORD PTR [rcx+44896], rax
$LN33@z900_instf:
$LN32@z900_instf:
$LN13@z900_instf:

; 861  :             }
; 862  : 
; 863  :             TXF_INSTRADDR_CONSTRAINT( regs );

  00624	33 c0		 xor	 eax, eax
  00626	83 f8 01	 cmp	 eax, 1
  00629	74 6f		 je	 SHORT $LN34@z900_instf
  0062b	48 8b 84 24 c0
	00 00 00	 mov	 rax, QWORD PTR regs$[rsp]
  00633	0f b6 80 4c 0e
	00 00		 movzx	 eax, BYTE PTR [rax+3660]
  0063a	85 c0		 test	 eax, eax
  0063c	74 5c		 je	 SHORT $LN34@z900_instf
  0063e	48 8b 84 24 c0
	00 00 00	 mov	 rax, QWORD PTR regs$[rsp]
  00646	48 8b 8c 24 c0
	00 00 00	 mov	 rcx, QWORD PTR regs$[rsp]
  0064e	48 8b 89 60 af
	00 00		 mov	 rcx, QWORD PTR [rcx+44896]
  00655	48 39 48 68	 cmp	 QWORD PTR [rax+104], rcx
  00659	72 3f		 jb	 SHORT $LN34@z900_instf
  0065b	48 8b 84 24 c0
	00 00 00	 mov	 rax, QWORD PTR regs$[rsp]
  00663	8b 80 84 af 00
	00		 mov	 eax, DWORD PTR [rax+44932]
  00669	0f ba e8 1f	 bts	 eax, 31
  0066d	48 8b 8c 24 c0
	00 00 00	 mov	 rcx, QWORD PTR regs$[rsp]
  00675	89 81 84 af 00
	00		 mov	 DWORD PTR [rcx+44932], eax
  0067b	4c 8d 0d 00 00
	00 00		 lea	 r9, OFFSET FLAT:??_C@_0CM@GFKCBHDD@C?3?2papa?2MyGit?2hyperion?9zvector?2@
  00682	41 b8 0b 00 00
	00		 mov	 r8d, 11
  00688	ba fe ff ff ff	 mov	 edx, -2
  0068d	48 8b 8c 24 c0
	00 00 00	 mov	 rcx, QWORD PTR regs$[rsp]
  00695	e8 00 00 00 00	 call	 z900_abort_transaction
$LN34@z900_instf:
  0069a	33 c0		 xor	 eax, eax
  0069c	85 c0		 test	 eax, eax
  0069e	75 84		 jne	 SHORT $LN13@z900_instf

; 864  : 
; 865  : #endif /* defined( FEATURE_073_TRANSACT_EXEC_FACILITY ) */
; 866  : 
; 867  :             /* Save the address of the instruction ABOUT to be executed */
; 868  :             regs->periaddr = PSW_IA_FROM_IP( regs, 0 );

  006a0	48 8b 84 24 c0
	00 00 00	 mov	 rax, QWORD PTR regs$[rsp]
  006a8	48 8b 8c 24 c0
	00 00 00	 mov	 rcx, QWORD PTR regs$[rsp]
  006b0	48 8b 89 00 02
	00 00		 mov	 rcx, QWORD PTR [rcx+512]
  006b7	48 8b 40 68	 mov	 rax, QWORD PTR [rax+104]
  006bb	48 2b c1	 sub	 rax, rcx
  006be	48 8b 8c 24 c0
	00 00 00	 mov	 rcx, QWORD PTR regs$[rsp]
  006c6	48 8b 89 10 02
	00 00		 mov	 rcx, QWORD PTR [rcx+528]
  006cd	48 03 c8	 add	 rcx, rax
  006d0	48 8b c1	 mov	 rax, rcx
  006d3	48 8b 8c 24 c0
	00 00 00	 mov	 rcx, QWORD PTR regs$[rsp]
  006db	48 23 81 90 00
	00 00		 and	 rax, QWORD PTR [rcx+144]
  006e2	48 8b 8c 24 c0
	00 00 00	 mov	 rcx, QWORD PTR regs$[rsp]
  006ea	48 89 81 e8 08
	00 00		 mov	 QWORD PTR [rcx+2280], rax

; 869  : 
; 870  :             /* Suppress PER instruction fetch event if appropriate */
; 871  :             if (IS_PER_SUPRESS( regs, CR9_IF ))

  006f1	ba 00 00 00 40	 mov	 edx, 1073741824		; 40000000H
  006f6	48 8b 8c 24 c0
	00 00 00	 mov	 rcx, QWORD PTR regs$[rsp]
  006fe	e8 00 00 00 00	 call	 z900_is_per3_event_suppressed
  00703	0f b6 c0	 movzx	 eax, al
  00706	85 c0		 test	 eax, eax
  00708	74 20		 je	 SHORT $LN35@z900_instf
$LN16@z900_instf:

; 872  :                 OFF_IC_PER_IF( regs );

  0070a	48 8b 84 24 c0
	00 00 00	 mov	 rax, QWORD PTR regs$[rsp]
  00712	8b 40 4c	 mov	 eax, DWORD PTR [rax+76]
  00715	0f ba f0 16	 btr	 eax, 22
  00719	48 8b 8c 24 c0
	00 00 00	 mov	 rcx, QWORD PTR regs$[rsp]
  00721	89 41 4c	 mov	 DWORD PTR [rcx+76], eax
  00724	33 c0		 xor	 eax, eax
  00726	85 c0		 test	 eax, eax
  00728	75 e0		 jne	 SHORT $LN16@z900_instf
$LN35@z900_instf:

; 873  : 
; 874  :             /* Return to caller to execute this instruction */
; 875  :             return regs->ip;

  0072a	48 8b 84 24 c0
	00 00 00	 mov	 rax, QWORD PTR regs$[rsp]
  00732	48 8b 40 68	 mov	 rax, QWORD PTR [rax+104]
  00736	e9 49 04 00 00	 jmp	 $LN1@z900_instf
$LN31@z900_instf:
$LN27@z900_instf:

; 876  :         }
; 877  :     }
; 878  : #endif /* defined( FEATURE_PER ) */
; 879  : 
; 880  :     /* Set instinvalid in case of addressing or translation exception */
; 881  :     if (!exec)

  0073b	83 bc 24 c8 00
	00 00 00	 cmp	 DWORD PTR exec$[rsp], 0
  00743	75 1f		 jne	 SHORT $LN36@z900_instf

; 882  :         regs->instinvalid = 1;

  00745	48 8b 84 24 c0
	00 00 00	 mov	 rax, QWORD PTR regs$[rsp]
  0074d	8b 80 28 07 00
	00		 mov	 eax, DWORD PTR [rax+1832]
  00753	83 c8 08	 or	 eax, 8
  00756	48 8b 8c 24 c0
	00 00 00	 mov	 rcx, QWORD PTR regs$[rsp]
  0075e	89 81 28 07 00
	00		 mov	 DWORD PTR [rcx+1832], eax
$LN36@z900_instf:

; 883  : 
; 884  :     /* Get instruction address */
; 885  :     ip = MADDRL( addr, 6, USE_INST_SPACE, regs, ACCTYPE_INSTFETCH, regs->psw.pkey );

  00764	48 8b 84 24 c0
	00 00 00	 mov	 rax, QWORD PTR regs$[rsp]
  0076c	0f b6 40 79	 movzx	 eax, BYTE PTR [rax+121]
  00770	88 44 24 28	 mov	 BYTE PTR [rsp+40], al
  00774	c7 44 24 20 04
	00 00 00	 mov	 DWORD PTR [rsp+32], 4
  0077c	4c 8b 8c 24 c0
	00 00 00	 mov	 r9, QWORD PTR regs$[rsp]
  00784	41 b8 ff ff ff
	ff		 mov	 r8d, -1
  0078a	ba 06 00 00 00	 mov	 edx, 6
  0078f	48 8b 4c 24 30	 mov	 rcx, QWORD PTR addr$[rsp]
  00794	e8 00 00 00 00	 call	 z900_maddr_l
  00799	48 89 44 24 40	 mov	 QWORD PTR ip$[rsp], rax

; 886  : 
; 887  :     /* If boundary is crossed then copy instruction to destination */
; 888  :     if (offset + ILC( ip[0] ) > pagesz)

  0079e	b8 01 00 00 00	 mov	 eax, 1
  007a3	48 6b c0 00	 imul	 rax, rax, 0
  007a7	48 8b 4c 24 40	 mov	 rcx, QWORD PTR ip$[rsp]
  007ac	0f b6 04 01	 movzx	 eax, BYTE PTR [rcx+rax]
  007b0	83 f8 40	 cmp	 eax, 64			; 00000040H
  007b3	7d 0d		 jge	 SHORT $LN92@z900_instf
  007b5	c7 84 24 88 00
	00 00 02 00 00
	00		 mov	 DWORD PTR tv351[rsp], 2
  007c0	eb 3f		 jmp	 SHORT $LN93@z900_instf
$LN92@z900_instf:
  007c2	b8 01 00 00 00	 mov	 eax, 1
  007c7	48 6b c0 00	 imul	 rax, rax, 0
  007cb	48 8b 4c 24 40	 mov	 rcx, QWORD PTR ip$[rsp]
  007d0	0f b6 04 01	 movzx	 eax, BYTE PTR [rcx+rax]
  007d4	3d c0 00 00 00	 cmp	 eax, 192		; 000000c0H
  007d9	7d 0d		 jge	 SHORT $LN90@z900_instf
  007db	c7 84 24 84 00
	00 00 04 00 00
	00		 mov	 DWORD PTR tv350[rsp], 4
  007e6	eb 0b		 jmp	 SHORT $LN91@z900_instf
$LN90@z900_instf:
  007e8	c7 84 24 84 00
	00 00 06 00 00
	00		 mov	 DWORD PTR tv350[rsp], 6
$LN91@z900_instf:
  007f3	8b 84 24 84 00
	00 00		 mov	 eax, DWORD PTR tv350[rsp]
  007fa	89 84 24 88 00
	00 00		 mov	 DWORD PTR tv351[rsp], eax
$LN93@z900_instf:
  00801	8b 84 24 88 00
	00 00		 mov	 eax, DWORD PTR tv351[rsp]
  00808	8b 4c 24 48	 mov	 ecx, DWORD PTR offset$[rsp]
  0080c	03 c8		 add	 ecx, eax
  0080e	8b c1		 mov	 eax, ecx
  00810	3b 44 24 38	 cmp	 eax, DWORD PTR pagesz$[rsp]
  00814	0f 8e 06 01 00
	00		 jle	 $LN37@z900_instf

; 889  :     {
; 890  :         /* Copy first part of instruction (note: dest is 8 bytes) */
; 891  :         dest = exec ? regs->exinst : regs->inst;

  0081a	83 bc 24 c8 00
	00 00 00	 cmp	 DWORD PTR exec$[rsp], 0
  00822	74 18		 je	 SHORT $LN94@z900_instf
  00824	48 8b 84 24 c0
	00 00 00	 mov	 rax, QWORD PTR regs$[rsp]
  0082c	48 05 40 08 00
	00		 add	 rax, 2112		; 00000840H
  00832	48 89 84 24 a8
	00 00 00	 mov	 QWORD PTR tv357[rsp], rax
  0083a	eb 16		 jmp	 SHORT $LN95@z900_instf
$LN94@z900_instf:
  0083c	48 8b 84 24 c0
	00 00 00	 mov	 rax, QWORD PTR regs$[rsp]
  00844	48 05 f1 08 00
	00		 add	 rax, 2289		; 000008f1H
  0084a	48 89 84 24 a8
	00 00 00	 mov	 QWORD PTR tv357[rsp], rax
$LN95@z900_instf:
  00852	48 8b 84 24 a8
	00 00 00	 mov	 rax, QWORD PTR tv357[rsp]
  0085a	48 89 84 24 90
	00 00 00	 mov	 QWORD PTR dest$[rsp], rax

; 892  :         memcpy( dest, ip, 4 );

  00862	48 8b 84 24 90
	00 00 00	 mov	 rax, QWORD PTR dest$[rsp]
  0086a	48 8b 4c 24 40	 mov	 rcx, QWORD PTR ip$[rsp]
  0086f	8b 09		 mov	 ecx, DWORD PTR [rcx]
  00871	89 08		 mov	 DWORD PTR [rax], ecx

; 893  : 
; 894  :         /* Copy second part of instruction */
; 895  :         len = pagesz - offset;

  00873	8b 44 24 48	 mov	 eax, DWORD PTR offset$[rsp]
  00877	8b 4c 24 38	 mov	 ecx, DWORD PTR pagesz$[rsp]
  0087b	2b c8		 sub	 ecx, eax
  0087d	8b c1		 mov	 eax, ecx
  0087f	89 44 24 4c	 mov	 DWORD PTR len$[rsp], eax

; 896  :         addr = (addr + len) & ADDRESS_MAXWRAP( regs );

  00883	48 63 44 24 4c	 movsxd	 rax, DWORD PTR len$[rsp]
  00888	48 8b 4c 24 30	 mov	 rcx, QWORD PTR addr$[rsp]
  0088d	48 03 c8	 add	 rcx, rax
  00890	48 8b c1	 mov	 rax, rcx
  00893	48 8b 8c 24 c0
	00 00 00	 mov	 rcx, QWORD PTR regs$[rsp]
  0089b	48 23 81 90 00
	00 00		 and	 rax, QWORD PTR [rcx+144]
  008a2	48 89 44 24 30	 mov	 QWORD PTR addr$[rsp], rax

; 897  :         ip = MADDR( addr, USE_INST_SPACE, regs, ACCTYPE_INSTFETCH, regs->psw.pkey );

  008a7	48 8b 84 24 c0
	00 00 00	 mov	 rax, QWORD PTR regs$[rsp]
  008af	0f b6 40 79	 movzx	 eax, BYTE PTR [rax+121]
  008b3	88 44 24 28	 mov	 BYTE PTR [rsp+40], al
  008b7	c7 44 24 20 04
	00 00 00	 mov	 DWORD PTR [rsp+32], 4
  008bf	4c 8b 8c 24 c0
	00 00 00	 mov	 r9, QWORD PTR regs$[rsp]
  008c7	41 b8 ff ff ff
	ff		 mov	 r8d, -1
  008cd	ba 01 00 00 00	 mov	 edx, 1
  008d2	48 8b 4c 24 30	 mov	 rcx, QWORD PTR addr$[rsp]
  008d7	e8 00 00 00 00	 call	 z900_maddr_l
  008dc	48 89 44 24 40	 mov	 QWORD PTR ip$[rsp], rax

; 898  :         if (!exec)

  008e1	83 bc 24 c8 00
	00 00 00	 cmp	 DWORD PTR exec$[rsp], 0
  008e9	75 1c		 jne	 SHORT $LN39@z900_instf

; 899  :             regs->ip = ip - len;

  008eb	48 63 44 24 4c	 movsxd	 rax, DWORD PTR len$[rsp]
  008f0	48 8b 4c 24 40	 mov	 rcx, QWORD PTR ip$[rsp]
  008f5	48 2b c8	 sub	 rcx, rax
  008f8	48 8b c1	 mov	 rax, rcx
  008fb	48 8b 8c 24 c0
	00 00 00	 mov	 rcx, QWORD PTR regs$[rsp]
  00903	48 89 41 68	 mov	 QWORD PTR [rcx+104], rax
$LN39@z900_instf:

; 900  :         memcpy( dest + len, ip, 4 );

  00907	48 63 44 24 4c	 movsxd	 rax, DWORD PTR len$[rsp]
  0090c	48 8b 8c 24 90
	00 00 00	 mov	 rcx, QWORD PTR dest$[rsp]
  00914	48 8b 54 24 40	 mov	 rdx, QWORD PTR ip$[rsp]
  00919	8b 12		 mov	 edx, DWORD PTR [rdx]
  0091b	89 14 01	 mov	 DWORD PTR [rcx+rax], edx

; 901  :     }

  0091e	eb 28		 jmp	 SHORT $LN38@z900_instf
$LN37@z900_instf:

; 902  :     else /* boundary NOT crossed */
; 903  :     {
; 904  :         dest = ip;

  00920	48 8b 44 24 40	 mov	 rax, QWORD PTR ip$[rsp]
  00925	48 89 84 24 90
	00 00 00	 mov	 QWORD PTR dest$[rsp], rax

; 905  : 
; 906  :         if (!exec)

  0092d	83 bc 24 c8 00
	00 00 00	 cmp	 DWORD PTR exec$[rsp], 0
  00935	75 11		 jne	 SHORT $LN40@z900_instf

; 907  :             regs->ip = ip;

  00937	48 8b 84 24 c0
	00 00 00	 mov	 rax, QWORD PTR regs$[rsp]
  0093f	48 8b 4c 24 40	 mov	 rcx, QWORD PTR ip$[rsp]
  00944	48 89 48 68	 mov	 QWORD PTR [rax+104], rcx
$LN40@z900_instf:
$LN38@z900_instf:

; 908  :     }
; 909  : 
; 910  :     if (!exec)

  00948	83 bc 24 c8 00
	00 00 00	 cmp	 DWORD PTR exec$[rsp], 0
  00950	0f 85 c0 00 00
	00		 jne	 $LN41@z900_instf

; 911  :     {
; 912  :         /* Instr addr now known to be valid so reset instinvalid flag */
; 913  :         regs->instinvalid = 0;

  00956	48 8b 84 24 c0
	00 00 00	 mov	 rax, QWORD PTR regs$[rsp]
  0095e	8b 80 28 07 00
	00		 mov	 eax, DWORD PTR [rax+1832]
  00964	83 e0 f7	 and	 eax, -9			; fffffff7H
  00967	48 8b 8c 24 c0
	00 00 00	 mov	 rcx, QWORD PTR regs$[rsp]
  0096f	89 81 28 07 00
	00		 mov	 DWORD PTR [rcx+1832], eax

; 914  : 
; 915  :         /* Update the AIA values */
; 916  :         regs->AIV = addr & PAGEFRAME_PAGEMASK;

  00975	48 8b 44 24 30	 mov	 rax, QWORD PTR addr$[rsp]
  0097a	48 25 00 f0 ff
	ff		 and	 rax, -4096		; fffffffffffff000H
  00980	48 8b 8c 24 c0
	00 00 00	 mov	 rcx, QWORD PTR regs$[rsp]
  00988	48 89 81 10 02
	00 00		 mov	 QWORD PTR [rcx+528], rax

; 917  :         regs->aip = (BYTE*)((uintptr_t)ip & ~PAGEFRAME_BYTEMASK);

  0098f	48 8b 44 24 40	 mov	 rax, QWORD PTR ip$[rsp]
  00994	48 25 00 f0 ff
	ff		 and	 rax, -4096		; fffffffffffff000H
  0099a	48 8b 8c 24 c0
	00 00 00	 mov	 rcx, QWORD PTR regs$[rsp]
  009a2	48 89 81 00 02
	00 00		 mov	 QWORD PTR [rcx+512], rax

; 918  : 
; 919  :         /* If tracing, stepping or PER is still active,
; 920  :            force another instfetch after this instruction.
; 921  :         */
; 922  :         if (regs->breakortrace || regs->permode)

  009a9	48 8b 84 24 c0
	00 00 00	 mov	 rax, QWORD PTR regs$[rsp]
  009b1	8b 80 28 07 00
	00		 mov	 eax, DWORD PTR [rax+1832]
  009b7	c1 e8 10	 shr	 eax, 16
  009ba	83 e0 01	 and	 eax, 1
  009bd	85 c0		 test	 eax, eax
  009bf	75 18		 jne	 SHORT $LN44@z900_instf
  009c1	48 8b 84 24 c0
	00 00 00	 mov	 rax, QWORD PTR regs$[rsp]
  009c9	8b 80 28 07 00
	00		 mov	 eax, DWORD PTR [rax+1832]
  009cf	c1 e8 02	 shr	 eax, 2
  009d2	83 e0 01	 and	 eax, 1
  009d5	85 c0		 test	 eax, eax
  009d7	74 15		 je	 SHORT $LN42@z900_instf
$LN44@z900_instf:

; 923  :         {
; 924  :             /* Force instfetch to be called again on next inst. */
; 925  :             regs->aie = PSEUDO_INVALID_AIE;

  009d9	48 8b 84 24 c0
	00 00 00	 mov	 rax, QWORD PTR regs$[rsp]
  009e1	48 c7 80 08 02
	00 00 01 00 00
	00		 mov	 QWORD PTR [rax+520], 1

; 926  :         }

  009ec	eb 28		 jmp	 SHORT $LN43@z900_instf
$LN42@z900_instf:

; 927  :         else /* (stepping/tracing/PER is NOT active) */
; 928  :         {
; 929  :             /* Call instfetch again ONLY when truly needed */
; 930  :             regs->aie = regs->aip + pagesz - 5;

  009ee	48 63 44 24 38	 movsxd	 rax, DWORD PTR pagesz$[rsp]
  009f3	48 8b 8c 24 c0
	00 00 00	 mov	 rcx, QWORD PTR regs$[rsp]
  009fb	48 8b 89 00 02
	00 00		 mov	 rcx, QWORD PTR [rcx+512]
  00a02	48 8d 44 01 fb	 lea	 rax, QWORD PTR [rcx+rax-5]
  00a07	48 8b 8c 24 c0
	00 00 00	 mov	 rcx, QWORD PTR regs$[rsp]
  00a0f	48 89 81 08 02
	00 00		 mov	 QWORD PTR [rcx+520], rax
$LN43@z900_instf:
$LN41@z900_instf:

; 931  :         }
; 932  :     }
; 933  : 
; 934  : #if defined( FEATURE_073_TRANSACT_EXEC_FACILITY )
; 935  : 
; 936  :     /* Update CONSTRAINED trans instruction fetch constraint */
; 937  :     if (regs->txf_contran)

  00a16	48 8b 84 24 c0
	00 00 00	 mov	 rax, QWORD PTR regs$[rsp]
  00a1e	0f b6 80 4c 0e
	00 00		 movzx	 eax, BYTE PTR [rax+3660]
  00a25	85 c0		 test	 eax, eax
  00a27	74 4d		 je	 SHORT $LN45@z900_instf

; 938  :     {
; 939  :         if (regs->AIV == regs->txf_aie_aiv2)

  00a29	48 8b 84 24 c0
	00 00 00	 mov	 rax, QWORD PTR regs$[rsp]
  00a31	48 8b 8c 24 c0
	00 00 00	 mov	 rcx, QWORD PTR regs$[rsp]
  00a39	48 8b 89 70 af
	00 00		 mov	 rcx, QWORD PTR [rcx+44912]
  00a40	48 39 88 10 02
	00 00		 cmp	 QWORD PTR [rax+528], rcx
  00a47	75 2d		 jne	 SHORT $LN46@z900_instf

; 940  :             regs->txf_aie = regs->aip + regs->txf_aie_off2;

  00a49	48 8b 84 24 c0
	00 00 00	 mov	 rax, QWORD PTR regs$[rsp]
  00a51	48 63 80 78 af
	00 00		 movsxd	 rax, DWORD PTR [rax+44920]
  00a58	48 8b 8c 24 c0
	00 00 00	 mov	 rcx, QWORD PTR regs$[rsp]
  00a60	48 03 81 00 02
	00 00		 add	 rax, QWORD PTR [rcx+512]
  00a67	48 8b 8c 24 c0
	00 00 00	 mov	 rcx, QWORD PTR regs$[rsp]
  00a6f	48 89 81 60 af
	00 00		 mov	 QWORD PTR [rcx+44896], rax
$LN46@z900_instf:
$LN45@z900_instf:
$LN19@z900_instf:

; 941  :     }
; 942  : 
; 943  :     TXF_INSTRADDR_CONSTRAINT( regs );

  00a76	33 c0		 xor	 eax, eax
  00a78	83 f8 01	 cmp	 eax, 1
  00a7b	74 6f		 je	 SHORT $LN47@z900_instf
  00a7d	48 8b 84 24 c0
	00 00 00	 mov	 rax, QWORD PTR regs$[rsp]
  00a85	0f b6 80 4c 0e
	00 00		 movzx	 eax, BYTE PTR [rax+3660]
  00a8c	85 c0		 test	 eax, eax
  00a8e	74 5c		 je	 SHORT $LN47@z900_instf
  00a90	48 8b 84 24 c0
	00 00 00	 mov	 rax, QWORD PTR regs$[rsp]
  00a98	48 8b 8c 24 c0
	00 00 00	 mov	 rcx, QWORD PTR regs$[rsp]
  00aa0	48 8b 89 60 af
	00 00		 mov	 rcx, QWORD PTR [rcx+44896]
  00aa7	48 39 48 68	 cmp	 QWORD PTR [rax+104], rcx
  00aab	72 3f		 jb	 SHORT $LN47@z900_instf
  00aad	48 8b 84 24 c0
	00 00 00	 mov	 rax, QWORD PTR regs$[rsp]
  00ab5	8b 80 84 af 00
	00		 mov	 eax, DWORD PTR [rax+44932]
  00abb	0f ba e8 1f	 bts	 eax, 31
  00abf	48 8b 8c 24 c0
	00 00 00	 mov	 rcx, QWORD PTR regs$[rsp]
  00ac7	89 81 84 af 00
	00		 mov	 DWORD PTR [rcx+44932], eax
  00acd	4c 8d 0d 00 00
	00 00		 lea	 r9, OFFSET FLAT:??_C@_0CM@NOJKKEDI@C?3?2papa?2MyGit?2hyperion?9zvector?2@
  00ad4	41 b8 0b 00 00
	00		 mov	 r8d, 11
  00ada	ba fe ff ff ff	 mov	 edx, -2
  00adf	48 8b 8c 24 c0
	00 00 00	 mov	 rcx, QWORD PTR regs$[rsp]
  00ae7	e8 00 00 00 00	 call	 z900_abort_transaction
$LN47@z900_instf:
  00aec	33 c0		 xor	 eax, eax
  00aee	85 c0		 test	 eax, eax
  00af0	75 84		 jne	 SHORT $LN19@z900_instf

; 944  : 
; 945  : #endif /* defined( FEATURE_073_TRANSACT_EXEC_FACILITY ) */
; 946  : 
; 947  :     /* Save the address of the instruction ABOUT to be executed */
; 948  :     regs->periaddr = PSW_IA_FROM_IP( regs, 0 );

  00af2	48 8b 84 24 c0
	00 00 00	 mov	 rax, QWORD PTR regs$[rsp]
  00afa	48 8b 8c 24 c0
	00 00 00	 mov	 rcx, QWORD PTR regs$[rsp]
  00b02	48 8b 89 00 02
	00 00		 mov	 rcx, QWORD PTR [rcx+512]
  00b09	48 8b 40 68	 mov	 rax, QWORD PTR [rax+104]
  00b0d	48 2b c1	 sub	 rax, rcx
  00b10	48 8b 8c 24 c0
	00 00 00	 mov	 rcx, QWORD PTR regs$[rsp]
  00b18	48 8b 89 10 02
	00 00		 mov	 rcx, QWORD PTR [rcx+528]
  00b1f	48 03 c8	 add	 rcx, rax
  00b22	48 8b c1	 mov	 rax, rcx
  00b25	48 8b 8c 24 c0
	00 00 00	 mov	 rcx, QWORD PTR regs$[rsp]
  00b2d	48 23 81 90 00
	00 00		 and	 rax, QWORD PTR [rcx+144]
  00b34	48 8b 8c 24 c0
	00 00 00	 mov	 rcx, QWORD PTR regs$[rsp]
  00b3c	48 89 81 e8 08
	00 00		 mov	 QWORD PTR [rcx+2280], rax

; 949  : 
; 950  :     /* Suppress PER instruction fetch event if appropriate */
; 951  :     if (IS_PER_SUPRESS( regs, CR9_IF ))

  00b43	ba 00 00 00 40	 mov	 edx, 1073741824		; 40000000H
  00b48	48 8b 8c 24 c0
	00 00 00	 mov	 rcx, QWORD PTR regs$[rsp]
  00b50	e8 00 00 00 00	 call	 z900_is_per3_event_suppressed
  00b55	0f b6 c0	 movzx	 eax, al
  00b58	85 c0		 test	 eax, eax
  00b5a	74 20		 je	 SHORT $LN48@z900_instf
$LN22@z900_instf:

; 952  :         OFF_IC_PER_IF( regs );

  00b5c	48 8b 84 24 c0
	00 00 00	 mov	 rax, QWORD PTR regs$[rsp]
  00b64	8b 40 4c	 mov	 eax, DWORD PTR [rax+76]
  00b67	0f ba f0 16	 btr	 eax, 22
  00b6b	48 8b 8c 24 c0
	00 00 00	 mov	 rcx, QWORD PTR regs$[rsp]
  00b73	89 41 4c	 mov	 DWORD PTR [rcx+76], eax
  00b76	33 c0		 xor	 eax, eax
  00b78	85 c0		 test	 eax, eax
  00b7a	75 e0		 jne	 SHORT $LN22@z900_instf
$LN48@z900_instf:

; 953  : 
; 954  :     /* Return to caller to execute this instruction */
; 955  :     return dest;

  00b7c	48 8b 84 24 90
	00 00 00	 mov	 rax, QWORD PTR dest$[rsp]
$LN1@z900_instf:

; 956  : 
; 957  : } /* end function ARCH_DEP( instfetch ) */

  00b84	48 81 c4 b8 00
	00 00		 add	 rsp, 184		; 000000b8H
  00b8b	c3		 ret	 0
z900_instfetch ENDP
_TEXT	ENDS
; Function compile flags: /Odtp
; File C:\papa\MyGit\hyperion-zvector\dat.h
;	COMDAT z900_maddr_l
_TEXT	SEGMENT
tlbix$ = 48
aea_crn$ = 52
tv70 = 56
maddr$ = 64
addr$ = 96
len$ = 104
arn$ = 112
regs$ = 120
acctype$ = 128
akey$ = 136
z900_maddr_l PROC					; COMDAT

; 307  : {

$LN18:
  00000	4c 89 4c 24 20	 mov	 QWORD PTR [rsp+32], r9
  00005	44 89 44 24 18	 mov	 DWORD PTR [rsp+24], r8d
  0000a	48 89 54 24 10	 mov	 QWORD PTR [rsp+16], rdx
  0000f	48 89 4c 24 08	 mov	 QWORD PTR [rsp+8], rcx
  00014	48 83 ec 58	 sub	 rsp, 88			; 00000058H

; 308  :     /* Note: ALL of the below conditions must be true for a TLB hit
; 309  :        to occur.  If ANY of them are false, then it's a TLB miss,
; 310  :        requiring us to then perform a full DAT address translation.
; 311  : 
; 312  :        Note too that on the grand scheme of things the order/sequence
; 313  :        of the below tests (if statements) is completely unimportant
; 314  :        since ALL conditions must be checked anyway in order for a hit
; 315  :        to occur, and it doesn't matter that a miss tests a few extra
; 316  :        conditions since it's going to do a full translation anyway!
; 317  :        (which is many, many instructions)
; 318  :     */
; 319  : 
; 320  :     int  aea_crn  = (arn >= USE_ARMODE) ? 0 : regs->AEA_AR( arn );

  00018	83 7c 24 70 10	 cmp	 DWORD PTR arn$[rsp], 16
  0001d	7c 0a		 jl	 SHORT $LN16@z900_maddr
  0001f	c7 44 24 38 00
	00 00 00	 mov	 DWORD PTR tv70[rsp], 0
  00027	eb 19		 jmp	 SHORT $LN17@z900_maddr
$LN16@z900_maddr:
  00029	8b 44 24 70	 mov	 eax, DWORD PTR arn$[rsp]
  0002d	83 c0 05	 add	 eax, 5
  00030	48 98		 cdqe
  00032	48 8b 4c 24 78	 mov	 rcx, QWORD PTR regs$[rsp]
  00037	8b 84 81 94 0c
	00 00		 mov	 eax, DWORD PTR [rcx+rax*4+3220]
  0003e	89 44 24 38	 mov	 DWORD PTR tv70[rsp], eax
$LN17@z900_maddr:
  00042	8b 44 24 38	 mov	 eax, DWORD PTR tv70[rsp]
  00046	89 44 24 34	 mov	 DWORD PTR aea_crn$[rsp], eax

; 321  :     U16  tlbix    = TLBIX( addr );

  0004a	48 8b 44 24 60	 mov	 rax, QWORD PTR addr$[rsp]
  0004f	48 c1 e8 0c	 shr	 rax, 12
  00053	48 25 ff 03 00
	00		 and	 rax, 1023		; 000003ffH
  00059	66 89 44 24 30	 mov	 WORD PTR tlbix$[rsp], ax

; 322  :     BYTE *maddr   = NULL;

  0005e	48 c7 44 24 40
	00 00 00 00	 mov	 QWORD PTR maddr$[rsp], 0

; 323  : 
; 324  :     /* Non-zero AEA Control Register number? */
; 325  :     if (aea_crn)

  00067	83 7c 24 34 00	 cmp	 DWORD PTR aea_crn$[rsp], 0
  0006c	0f 84 2d 01 00
	00		 je	 $LN2@z900_maddr

; 326  :     {
; 327  :         /* Same Addess Space Designator as before? */
; 328  :         /* Or if not, is address in a common segment? */
; 329  :         if (0
; 330  :             || (regs->CR( aea_crn ) == regs->tlb.TLB_ASD( tlbix ))
; 331  :             || (regs->AEA_COMMON( aea_crn ) & regs->tlb.common[ tlbix ])

  00072	33 c0		 xor	 eax, eax
  00074	85 c0		 test	 eax, eax
  00076	75 5a		 jne	 SHORT $LN4@z900_maddr
  00078	8b 44 24 34	 mov	 eax, DWORD PTR aea_crn$[rsp]
  0007c	ff c0		 inc	 eax
  0007e	48 98		 cdqe
  00080	0f b7 4c 24 30	 movzx	 ecx, WORD PTR tlbix$[rsp]
  00085	48 8b 54 24 78	 mov	 rdx, QWORD PTR regs$[rsp]
  0008a	4c 8b 44 24 78	 mov	 r8, QWORD PTR regs$[rsp]
  0008f	49 8b 8c c8 60
	b0 00 00	 mov	 rcx, QWORD PTR [r8+rcx*8+45152]
  00097	48 39 8c c2 00
	06 00 00	 cmp	 QWORD PTR [rdx+rax*8+1536], rcx
  0009f	74 31		 je	 SHORT $LN4@z900_maddr
  000a1	8b 44 24 34	 mov	 eax, DWORD PTR aea_crn$[rsp]
  000a5	ff c0		 inc	 eax
  000a7	48 98		 cdqe
  000a9	48 8b 4c 24 78	 mov	 rcx, QWORD PTR regs$[rsp]
  000ae	0f b6 84 01 e8
	0c 00 00	 movzx	 eax, BYTE PTR [rcx+rax+3304]
  000b6	0f b7 4c 24 30	 movzx	 ecx, WORD PTR tlbix$[rsp]
  000bb	48 8b 54 24 78	 mov	 rdx, QWORD PTR regs$[rsp]
  000c0	0f b6 8c 0a 60
	54 01 00	 movzx	 ecx, BYTE PTR [rdx+rcx+87136]
  000c8	23 c1		 and	 eax, ecx
  000ca	85 c0		 test	 eax, eax
  000cc	0f 84 cd 00 00
	00		 je	 $LN3@z900_maddr
$LN4@z900_maddr:

; 332  :         )
; 333  :         {
; 334  :             /* Storage Key zero? */
; 335  :             /* Or if not, same Storage Key as before? */
; 336  :             if (0
; 337  :                 || akey == 0
; 338  :                 || akey == regs->tlb.skey[ tlbix ]

  000d2	33 c0		 xor	 eax, eax
  000d4	85 c0		 test	 eax, eax
  000d6	75 2e		 jne	 SHORT $LN6@z900_maddr
  000d8	0f b6 84 24 88
	00 00 00	 movzx	 eax, BYTE PTR akey$[rsp]
  000e0	85 c0		 test	 eax, eax
  000e2	74 22		 je	 SHORT $LN6@z900_maddr
  000e4	0f b6 84 24 88
	00 00 00	 movzx	 eax, BYTE PTR akey$[rsp]
  000ec	0f b7 4c 24 30	 movzx	 ecx, WORD PTR tlbix$[rsp]
  000f1	48 8b 54 24 78	 mov	 rdx, QWORD PTR regs$[rsp]
  000f6	0f b6 8c 0a 60
	50 01 00	 movzx	 ecx, BYTE PTR [rdx+rcx+86112]
  000fe	3b c1		 cmp	 eax, ecx
  00100	0f 85 99 00 00
	00		 jne	 $LN5@z900_maddr
$LN6@z900_maddr:

; 339  :             )
; 340  :             {
; 341  :                 /* Does the page address match the one in the TLB? */
; 342  :                 /* (does a TLB entry exist for this page address?) */
; 343  :                 if (
; 344  :                     ((addr & TLBID_PAGEMASK) | regs->tlbID)
; 345  :                     ==

  00106	48 8b 44 24 60	 mov	 rax, QWORD PTR addr$[rsp]
  0010b	48 25 00 00 c0
	ff		 and	 rax, -4194304		; ffffffffffc00000H
  00111	48 8b 4c 24 78	 mov	 rcx, QWORD PTR regs$[rsp]
  00116	8b 89 58 b0 00
	00		 mov	 ecx, DWORD PTR [rcx+45144]
  0011c	48 0b c1	 or	 rax, rcx
  0011f	0f b7 4c 24 30	 movzx	 ecx, WORD PTR tlbix$[rsp]
  00124	48 8b 54 24 78	 mov	 rdx, QWORD PTR regs$[rsp]
  00129	48 3b 84 ca 60
	d0 00 00	 cmp	 rax, QWORD PTR [rdx+rcx*8+53344]
  00131	75 6c		 jne	 SHORT $LN7@z900_maddr

; 346  :                     regs->tlb.TLB_VADDR( tlbix )
; 347  :                 )
; 348  :                 {
; 349  :                     /* Is storage being accessed same way as before? */
; 350  :                     if (acctype & regs->tlb.acc[ tlbix ])

  00133	0f b7 44 24 30	 movzx	 eax, WORD PTR tlbix$[rsp]
  00138	48 8b 4c 24 78	 mov	 rcx, QWORD PTR regs$[rsp]
  0013d	0f b6 84 01 60
	5c 01 00	 movzx	 eax, BYTE PTR [rcx+rax+89184]
  00145	8b 8c 24 80 00
	00 00		 mov	 ecx, DWORD PTR acctype$[rsp]
  0014c	23 c8		 and	 ecx, eax
  0014e	8b c1		 mov	 eax, ecx
  00150	85 c0		 test	 eax, eax
  00152	74 4b		 je	 SHORT $LN8@z900_maddr

; 351  :                     {
; 352  :                         /*------------------------------------------*/
; 353  :                         /* TLB hit: use previously translated value */
; 354  :                         /*------------------------------------------*/
; 355  : 
; 356  :                         if (acctype & ACC_CHECK)

  00154	8b 84 24 80 00
	00 00		 mov	 eax, DWORD PTR acctype$[rsp]
  0015b	83 e0 01	 and	 eax, 1
  0015e	85 c0		 test	 eax, eax
  00160	74 1e		 je	 SHORT $LN9@z900_maddr

; 357  :                             regs->dat.storkey = regs->tlb.storkey[ tlbix ];

  00162	0f b7 44 24 30	 movzx	 eax, WORD PTR tlbix$[rsp]
  00167	48 8b 4c 24 78	 mov	 rcx, QWORD PTR regs$[rsp]
  0016c	48 8b 54 24 78	 mov	 rdx, QWORD PTR regs$[rsp]
  00171	48 8b 84 c2 60
	30 01 00	 mov	 rax, QWORD PTR [rdx+rax*8+77920]
  00179	48 89 81 28 08
	00 00		 mov	 QWORD PTR [rcx+2088], rax
$LN9@z900_maddr:

; 358  : 
; 359  :                         maddr = MAINADDR( regs->tlb.main[tlbix], addr );

  00180	0f b7 44 24 30	 movzx	 eax, WORD PTR tlbix$[rsp]
  00185	48 8b 4c 24 78	 mov	 rcx, QWORD PTR regs$[rsp]
  0018a	48 8b 54 24 60	 mov	 rdx, QWORD PTR addr$[rsp]
  0018f	48 8b 84 c1 60
	10 01 00	 mov	 rax, QWORD PTR [rcx+rax*8+69728]
  00197	48 33 c2	 xor	 rax, rdx
  0019a	48 89 44 24 40	 mov	 QWORD PTR maddr$[rsp], rax
$LN8@z900_maddr:
$LN7@z900_maddr:
$LN5@z900_maddr:
$LN3@z900_maddr:
$LN2@z900_maddr:

; 360  :                     }
; 361  :                 }
; 362  :             }
; 363  :         }
; 364  :     }
; 365  : 
; 366  :     /*---------------------------------------*/
; 367  :     /* TLB miss: do full address translation */
; 368  :     /*---------------------------------------*/
; 369  :     if (!maddr)

  0019f	48 83 7c 24 40
	00		 cmp	 QWORD PTR maddr$[rsp], 0
  001a5	75 36		 jne	 SHORT $LN10@z900_maddr

; 370  :         maddr = ARCH_DEP( logical_to_main_l )( addr, arn, regs, acctype, akey, len );

  001a7	48 8b 44 24 68	 mov	 rax, QWORD PTR len$[rsp]
  001ac	48 89 44 24 28	 mov	 QWORD PTR [rsp+40], rax
  001b1	0f b6 84 24 88
	00 00 00	 movzx	 eax, BYTE PTR akey$[rsp]
  001b9	88 44 24 20	 mov	 BYTE PTR [rsp+32], al
  001bd	44 8b 8c 24 80
	00 00 00	 mov	 r9d, DWORD PTR acctype$[rsp]
  001c5	4c 8b 44 24 78	 mov	 r8, QWORD PTR regs$[rsp]
  001ca	8b 54 24 70	 mov	 edx, DWORD PTR arn$[rsp]
  001ce	48 8b 4c 24 60	 mov	 rcx, QWORD PTR addr$[rsp]
  001d3	e8 00 00 00 00	 call	 z900_logical_to_main_l
  001d8	48 89 44 24 40	 mov	 QWORD PTR maddr$[rsp], rax
$LN10@z900_maddr:

; 371  : 
; 372  : #if defined( FEATURE_073_TRANSACT_EXEC_FACILITY )
; 373  :     if (FACILITY_ENABLED( 073_TRANSACT_EXEC, regs ))

  001dd	b8 01 00 00 00	 mov	 eax, 1
  001e2	48 6b c0 09	 imul	 rax, rax, 9
  001e6	48 8b 4c 24 78	 mov	 rcx, QWORD PTR regs$[rsp]
  001eb	0f b6 84 01 28
	0d 00 00	 movzx	 eax, BYTE PTR [rcx+rax+3368]
  001f3	83 e0 40	 and	 eax, 64			; 00000040H
  001f6	85 c0		 test	 eax, eax
  001f8	0f 84 89 00 00
	00		 je	 $LN11@z900_maddr

; 374  :     {
; 375  :         /* SA22-7832-12 Principles of Operation, page 5-99:
; 376  : 
; 377  :              "Storage accesses for instruction and DAT- and ART-
; 378  :               table fetches follow the non-transactional rules."
; 379  :         */
; 380  :         if (0
; 381  :             || !regs
; 382  :             || !regs->txf_tnd
; 383  :             || arn == USE_INST_SPACE    /* Instruction fetching */
; 384  :             || arn == USE_REAL_ADDR     /* Address translation  */

  001fe	33 c0		 xor	 eax, eax
  00200	85 c0		 test	 eax, eax
  00202	75 26		 jne	 SHORT $LN13@z900_maddr
  00204	48 83 7c 24 78
	00		 cmp	 QWORD PTR regs$[rsp], 0
  0020a	74 1e		 je	 SHORT $LN13@z900_maddr
  0020c	48 8b 44 24 78	 mov	 rax, QWORD PTR regs$[rsp]
  00211	0f b6 80 58 0e
	00 00		 movzx	 eax, BYTE PTR [rax+3672]
  00218	85 c0		 test	 eax, eax
  0021a	74 0e		 je	 SHORT $LN13@z900_maddr
