; Listing generated by Microsoft (R) Optimizing Compiler Version 19.34.31937.0 

include listing.inc

INCLUDELIB MSVCRTD
INCLUDELIB OLDNAMES

PUBLIC	ptp_device_hndinfo
_DATA	SEGMENT
ptp_device_hndinfo DQ FLAT:ptp_init
	DQ	FLAT:ptp_execute_ccw
	DQ	FLAT:ptp_close
	DQ	FLAT:ptp_query
	DQ	0000000000000000H
	DQ	0000000000000000H
	DQ	0000000000000000H
	DQ	0000000000000000H
	DQ	0000000000000000H
	DQ	FLAT:ptp_halt_or_clear
	DQ	0000000000000000H
	DQ	0000000000000000H
	DQ	0000000000000000H
	DQ	0000000000000000H
	DQ	0000000000000000H
	DQ	0000000000000000H
	DQ	FLAT:ptp_immed_commands
	DQ	0000000000000000H
	DQ	0000000000000000H
	DQ	0000000000000000H
	DQ	0000000000000000H
	DQ	0000000000000000H
	DQ	0000000000000000H
	DQ	0000000000000000H
	DQ	0000000000000000H
$SG171144 DB	'dev', 00H
$SG171145 DB	'mtu', 00H
ptp_immed_commands DB 00H
	DB	00H
	DB	00H
	DB	01H
	DB	00H
	DB	00H
	DB	00H
	DB	00H
	DB	00H
	DB	00H
	DB	00H
	DB	00H
	DB	00H
	DB	00H
	DB	00H
	DB	00H
	DB	00H
	DB	00H
	DB	00H
	DB	00H
	DB	00H
	DB	00H
	DB	00H
	DB	01H
	DB	00H
	DB	00H
	DB	00H
	DB	00H
	DB	00H
	DB	00H
	DB	00H
	DB	00H
	DB	00H
	DB	00H
	DB	00H
	DB	00H
	DB	00H
	DB	00H
	DB	00H
	DB	00H
	DB	00H
	DB	00H
	DB	00H
	DB	00H
	DB	00H
	DB	00H
	DB	00H
	DB	00H
	DB	00H
	DB	00H
	DB	00H
	DB	00H
	DB	00H
	DB	00H
	DB	00H
	DB	00H
	DB	00H
	DB	00H
	DB	00H
	DB	00H
	DB	00H
	DB	00H
	DB	00H
	DB	00H
	DB	00H
	DB	00H
	DB	00H
	DB	00H
	DB	00H
	DB	00H
	DB	00H
	DB	00H
	DB	00H
	DB	00H
	DB	00H
	DB	00H
	DB	00H
	DB	00H
	DB	00H
	DB	00H
	DB	00H
	DB	00H
	DB	00H
	DB	00H
	DB	00H
	DB	00H
	DB	00H
	DB	00H
	DB	00H
	DB	00H
	DB	00H
	DB	00H
	DB	00H
	DB	00H
	DB	00H
	DB	00H
	DB	00H
	DB	00H
	DB	00H
	DB	00H
	DB	00H
	DB	00H
	DB	00H
	DB	00H
	DB	00H
	DB	00H
	DB	00H
	DB	00H
	DB	00H
	DB	00H
	DB	00H
	DB	00H
	DB	00H
	DB	00H
	DB	00H
	DB	00H
	DB	00H
	DB	00H
	DB	00H
	DB	00H
	DB	00H
	DB	00H
	DB	00H
	DB	00H
	DB	00H
	DB	00H
	DB	00H
	DB	00H
	DB	00H
	DB	00H
	DB	00H
	DB	00H
	DB	00H
	DB	00H
	DB	00H
	DB	00H
	DB	00H
	DB	00H
	DB	00H
	DB	00H
	DB	00H
	DB	00H
	DB	00H
	DB	00H
	DB	00H
	DB	00H
	DB	00H
	DB	00H
	DB	00H
	DB	00H
	DB	00H
	DB	00H
	DB	00H
	DB	00H
	DB	00H
	DB	00H
	DB	00H
	DB	00H
	DB	00H
	DB	00H
	DB	00H
	DB	00H
	DB	00H
	DB	00H
	DB	00H
	DB	00H
	DB	00H
	DB	00H
	DB	00H
	DB	00H
	DB	00H
	DB	00H
	DB	00H
	DB	00H
	DB	00H
	DB	00H
	DB	00H
	DB	00H
	DB	00H
	DB	00H
	DB	00H
	DB	00H
	DB	00H
	DB	00H
	DB	00H
	DB	00H
	DB	00H
	DB	00H
	DB	00H
	DB	00H
	DB	00H
	DB	00H
	DB	00H
	DB	00H
	DB	00H
	DB	01H
	DB	00H
	DB	00H
	DB	00H
	DB	00H
	DB	00H
	DB	00H
	DB	00H
	DB	00H
	DB	00H
	DB	00H
	DB	00H
	DB	00H
	DB	00H
	DB	00H
	DB	00H
	DB	00H
	DB	00H
	DB	00H
	DB	00H
	DB	00H
	DB	00H
	DB	00H
	DB	00H
	DB	00H
	DB	00H
	DB	00H
	DB	00H
	DB	00H
	DB	00H
	DB	00H
	DB	00H
	DB	01H
	DB	00H
	DB	00H
	DB	00H
	DB	00H
	DB	00H
	DB	00H
	DB	00H
	DB	00H
	DB	00H
	DB	00H
	DB	00H
	DB	00H
	DB	00H
	DB	00H
	DB	00H
	DB	00H
	DB	00H
	DB	00H
	DB	00H
	DB	00H
	DB	00H
	DB	00H
	DB	00H
	DB	00H
	DB	00H
	DB	00H
	DB	00H
	DB	00H
$SG171146 DB	'debug', 00H
	ORG $+2
$SG171147 DB	'inet', 00H
	ORG $+3
$SG171148 DB	'inet6', 00H
	ORG $+2
$SG171149 DB	'mac', 00H
$SG171150 DB	'kbuff', 00H
	ORG $+2
$SG171151 DB	'ibuff', 00H
_DATA	ENDS
CONST	SEGMENT
CKD_ENDTRK DB	0ffH
	DB	0ffH
	DB	0ffH
	DB	0ffH
	DB	0ffH
	DB	0ffH
	DB	0ffH
	DB	0ffH
VTAM_ebcdic DB	0e5H
	DB	0e3H
	DB	0c1H
	DB	0d4H
	ORG $+4
?XorConstant@?1??gen_csv_sid@@9@9 DD 0404100H		; `gen_csv_sid'::`2'::XorConstant
	DD	00H
	DD	04000H
	DD	0404101H
	DD	0404001H
	DD	04101H
	DD	01H
	DD	04000H
	DD	0100H
	DD	0404100H
	DD	0404101H
	DD	0100H
	DD	0400101H
	DD	0404001H
	DD	0400000H
	DD	01H
	DD	0101H
	DD	0400100H
	DD	0400100H
	DD	04100H
	DD	04100H
	DD	0404000H
	DD	0404000H
	DD	0400101H
	DD	04001H
	DD	0400001H
	DD	0400001H
	DD	04001H
	DD	00H
	DD	0101H
	DD	04101H
	DD	0400000H
	DD	04000H
	DD	0404101H
	DD	01H
	DD	0404000H
	DD	0404100H
	DD	0400000H
	DD	0400000H
	DD	0100H
	DD	0404001H
	DD	04000H
	DD	04100H
	DD	0400001H
	DD	0100H
	DD	01H
	DD	0400101H
	DD	04101H
	DD	0404101H
	DD	04001H
	DD	0404000H
	DD	0400101H
	DD	0400001H
	DD	0101H
	DD	04101H
	DD	0404100H
	DD	0101H
	DD	0400100H
	DD	0400100H
	DD	00H
	DD	04001H
	DD	04100H
	DD	00H
	DD	0404001H
	DD	020042008H
	DD	020002000H
	DD	02000H
	DD	042008H
	DD	040000H
	DD	08H
	DD	020040008H
	DD	020002008H
	DD	020000008H
	DD	020042008H
	DD	020042000H
	DD	020000000H
	DD	020002000H
	DD	040000H
	DD	08H
	DD	020040008H
	DD	042000H
	DD	040008H
	DD	020002008H
	DD	00H
	DD	020000000H
	DD	02000H
	DD	042008H
	DD	020040000H
	DD	040008H
	DD	020000008H
	DD	00H
	DD	042000H
	DD	02008H
	DD	020042000H
	DD	020040000H
	DD	02008H
	DD	00H
	DD	042008H
	DD	020040008H
	DD	040000H
	DD	020002008H
	DD	020040000H
	DD	020042000H
	DD	02000H
	DD	020040000H
	DD	020002000H
	DD	08H
	DD	020042008H
	DD	042008H
	DD	08H
	DD	02000H
	DD	020000000H
	DD	02008H
	DD	020042000H
	DD	040000H
	DD	020000008H
	DD	040008H
	DD	020002008H
	DD	020000008H
	DD	040008H
	DD	042000H
	DD	00H
	DD	020002000H
	DD	02008H
	DD	020000000H
	DD	020040008H
	DD	020042008H
	DD	042000H
	DD	082H
	DD	02008080H
	DD	00H
	DD	02008002H
	DD	02000080H
	DD	00H
	DD	08082H
	DD	02000080H
	DD	08002H
	DD	02000002H
	DD	02000002H
	DD	08000H
	DD	02008082H
	DD	08002H
	DD	02008000H
	DD	082H
	DD	02000000H
	DD	02H
	DD	02008080H
	DD	080H
	DD	08080H
	DD	02008000H
	DD	02008002H
	DD	08082H
	DD	02000082H
	DD	08080H
	DD	08000H
	DD	02000082H
	DD	02H
	DD	02008082H
	DD	080H
	DD	02000000H
	DD	02008080H
	DD	02000000H
	DD	08002H
	DD	082H
	DD	08000H
	DD	02008080H
	DD	02000080H
	DD	00H
	DD	080H
	DD	08002H
	DD	02008082H
	DD	02000080H
	DD	02000002H
	DD	080H
	DD	00H
	DD	02008002H
	DD	02000082H
	DD	08000H
	DD	02000000H
	DD	02008082H
	DD	02H
	DD	08082H
	DD	08080H
	DD	02000002H
	DD	02008000H
	DD	02000082H
	DD	082H
	DD	02008000H
	DD	08082H
	DD	02H
	DD	02008002H
	DD	08080H
	DD	040200800H
	DD	040000820H
	DD	040000820H
	DD	020H
	DD	0200820H
	DD	040200020H
	DD	040200000H
	DD	040000800H
	DD	00H
	DD	0200800H
	DD	0200800H
	DD	040200820H
	DD	040000020H
	DD	00H
	DD	0200020H
	DD	040200000H
	DD	040000000H
	DD	0800H
	DD	0200000H
	DD	040200800H
	DD	020H
	DD	0200000H
	DD	040000800H
	DD	0820H
	DD	040200020H
	DD	040000000H
	DD	0820H
	DD	0200020H
	DD	0800H
	DD	0200820H
	DD	040200820H
	DD	040000020H
	DD	0200020H
	DD	040200000H
	DD	0200800H
	DD	040200820H
	DD	040000020H
	DD	00H
	DD	00H
	DD	0200800H
	DD	0820H
	DD	0200020H
	DD	040200020H
	DD	040000000H
	DD	040200800H
	DD	040000820H
	DD	040000820H
	DD	020H
	DD	040200820H
	DD	040000020H
	DD	040000000H
	DD	0800H
	DD	040200000H
	DD	040000800H
	DD	0200820H
	DD	040200020H
	DD	040000800H
	DD	0820H
	DD	0200000H
	DD	040200800H
	DD	020H
	DD	0200000H
	DD	0800H
	DD	0200820H
	DD	040H
	DD	0820040H
	DD	0820000H
	DD	010800040H
	DD	020000H
	DD	040H
	DD	010000000H
	DD	0820000H
	DD	010020040H
	DD	020000H
	DD	0800040H
	DD	010020040H
	DD	010800040H
	DD	010820000H
	DD	020040H
	DD	010000000H
	DD	0800000H
	DD	010020000H
	DD	010020000H
	DD	00H
	DD	010000040H
	DD	010820040H
	DD	010820040H
	DD	0800040H
	DD	010820000H
	DD	010000040H
	DD	00H
	DD	010800000H
	DD	0820040H
	DD	0800000H
	DD	010800000H
	DD	020040H
	DD	020000H
	DD	010800040H
	DD	040H
	DD	0800000H
	DD	010000000H
	DD	0820000H
	DD	010800040H
	DD	010020040H
	DD	0800040H
	DD	010000000H
	DD	010820000H
	DD	0820040H
	DD	010020040H
	DD	040H
	DD	0800000H
	DD	010820000H
	DD	010820040H
	DD	020040H
	DD	010800000H
	DD	010820040H
	DD	0820000H
	DD	00H
	DD	010020000H
	DD	010800000H
	DD	020040H
	DD	0800040H
	DD	010000040H
	DD	020000H
	DD	00H
	DD	010020000H
	DD	0820040H
	DD	010000040H
	DD	08000004H
	DD	08100000H
	DD	01000H
	DD	08101004H
	DD	08100000H
	DD	04H
	DD	08101004H
	DD	0100000H
	DD	08001000H
	DD	0101004H
	DD	0100000H
	DD	08000004H
	DD	0100004H
	DD	08001000H
	DD	08000000H
	DD	01004H
	DD	00H
	DD	0100004H
	DD	08001004H
	DD	01000H
	DD	0101000H
	DD	08001004H
	DD	04H
	DD	08100004H
	DD	08100004H
	DD	00H
	DD	0101004H
	DD	08101000H
	DD	01004H
	DD	0101000H
	DD	08101000H
	DD	08000000H
	DD	08001000H
	DD	04H
	DD	08100004H
	DD	0101000H
	DD	08101004H
	DD	0100000H
	DD	01004H
	DD	08000004H
	DD	0100000H
	DD	08001000H
	DD	08000000H
	DD	01004H
	DD	08000004H
	DD	08101004H
	DD	0101000H
	DD	08100000H
	DD	0101004H
	DD	08101000H
	DD	00H
	DD	08100004H
	DD	04H
	DD	01000H
	DD	08100000H
	DD	0101004H
	DD	01000H
	DD	0100004H
	DD	08001004H
	DD	00H
	DD	08101000H
	DD	08000000H
	DD	0100004H
	DD	08001004H
	DD	080000H
	DD	081080000H
	DD	081000200H
	DD	00H
	DD	0200H
	DD	081000200H
	DD	080080200H
	DD	01080200H
	DD	081080200H
	DD	080000H
	DD	00H
	DD	081000000H
	DD	080000000H
	DD	01000000H
	DD	081080000H
	DD	080000200H
	DD	01000200H
	DD	080080200H
	DD	080080000H
	DD	01000200H
	DD	081000000H
	DD	01080000H
	DD	01080200H
	DD	080080000H
	DD	01080000H
	DD	0200H
	DD	080000200H
	DD	081080200H
	DD	080200H
	DD	080000000H
	DD	01000000H
	DD	080200H
	DD	01000000H
	DD	080200H
	DD	080000H
	DD	081000200H
	DD	081000200H
	DD	081080000H
	DD	081080000H
	DD	080000000H
	DD	080080000H
	DD	01000000H
	DD	01000200H
	DD	080000H
	DD	01080200H
	DD	080000200H
	DD	080080200H
	DD	01080200H
	DD	080000200H
	DD	081000000H
	DD	081080200H
	DD	01080000H
	DD	080200H
	DD	00H
	DD	080000000H
	DD	081080200H
	DD	00H
	DD	080080200H
	DD	01080000H
	DD	0200H
	DD	081000000H
	DD	01000200H
	DD	0200H
	DD	080080000H
	DD	04000410H
	DD	0400H
	DD	010000H
	DD	04010410H
	DD	04000000H
	DD	04000410H
	DD	010H
	DD	04000000H
	DD	010010H
	DD	04010000H
	DD	04010410H
	DD	010400H
	DD	04010400H
	DD	010410H
	DD	0400H
	DD	010H
	DD	04010000H
	DD	04000010H
	DD	04000400H
	DD	0410H
	DD	010400H
	DD	010010H
	DD	04010010H
	DD	04010400H
	DD	0410H
	DD	00H
	DD	00H
	DD	04010010H
	DD	04000010H
	DD	04000400H
	DD	010410H
	DD	010000H
	DD	010410H
	DD	010000H
	DD	04010400H
	DD	0400H
	DD	010H
	DD	04010010H
	DD	0400H
	DD	010410H
	DD	04000400H
	DD	010H
	DD	04000010H
	DD	04010000H
	DD	04010010H
	DD	04000000H
	DD	010000H
	DD	04000410H
	DD	00H
	DD	04010410H
	DD	010010H
	DD	04000010H
	DD	04010000H
	DD	04000400H
	DD	04000410H
	DD	00H
	DD	04010410H
	DD	010400H
	DD	010400H
	DD	0410H
	DD	0410H
	DD	010010H
	DD	04000000H
	DD	04010400H
?OrConstant@?1??gen_csv_sid@@9@9 DD 080000000H		; `gen_csv_sid'::`2'::OrConstant
	DD	040000000H
	DD	020000000H
	DD	010000000H
	DD	08000000H
	DD	04000000H
	DD	0800000H
	DD	0400000H
	DD	0200000H
	DD	0100000H
	DD	080000H
	DD	040000H
	DD	08000H
	DD	04000H
	DD	02000H
	DD	01000H
	DD	0800H
	DD	0400H
	DD	080H
	DD	040H
	DD	020H
	DD	010H
	DD	08H
	DD	04H
CONST	ENDS
PUBLIC	__local_stdio_printf_options
PUBLIC	_vsnprintf_s_l
PUBLIC	_vsnprintf_s
PUBLIC	fetch_hw_noswap
PUBLIC	store_hw_noswap
PUBLIC	fetch_fw_noswap
PUBLIC	store_fw_noswap
PUBLIC	fetch_f3_noswap
PUBLIC	store_f3_noswap
PUBLIC	fetch_dw_noswap
PUBLIC	store_dw_noswap
PUBLIC	hdl_check_depends_ep
PUBLIC	hdl_resolve_symbols_ep
PUBLIC	hdl_register_symbols_ep
PUBLIC	hdl_define_devtypes_ep
PUBLIC	__real@4070000000000000
PUBLIC	__real@40e0000000000000
EXTRN	__report_rangecheckfailure:PROC
EXTRN	__imp__errno:PROC
EXTRN	strchr:PROC
EXTRN	strcmp:PROC
EXTRN	strcpy:PROC
EXTRN	strlen:PROC
EXTRN	__imp_IsDebuggerPresent:PROC
EXTRN	__imp_OutputDebugStringA:PROC
EXTRN	__imp_free:PROC
EXTRN	__imp_malloc:PROC
EXTRN	_byteswap_ushort:PROC
EXTRN	_byteswap_ulong:PROC
EXTRN	_byteswap_uint64:PROC
EXTRN	__imp_rand:PROC
EXTRN	__imp_atoi:PROC
EXTRN	__imp_htonl:PROC
EXTRN	__imp_close:PROC
EXTRN	__imp___acrt_iob_func:PROC
EXTRN	__imp___stdio_common_vsnprintf_s:PROC
EXTRN	__imp_getpid:PROC
EXTRN	__imp_hthread_initialize_lock:PROC
EXTRN	__imp_hthread_obtain_lock:PROC
EXTRN	__imp_hthread_release_lock:PROC
EXTRN	__imp_hthread_initialize_condition:PROC
EXTRN	__imp_hthread_signal_condition:PROC
EXTRN	__imp_hthread_timed_wait_condition:PROC
EXTRN	__imp_hthread_create_thread:PROC
EXTRN	__imp_hthread_join_thread:PROC
EXTRN	__imp_hthread_detach_thread:PROC
EXTRN	__imp_strlcpy:PROC
EXTRN	__imp_w32_strerror:PROC
EXTRN	__imp_gettimeofday:PROC
EXTRN	__imp_usleep:PROC
EXTRN	__imp_sleep:PROC
EXTRN	__imp_sched_yield:PROC
EXTRN	__imp_inet_aton:PROC
EXTRN	__imp_w32_socket:PROC
EXTRN	__imp_w32_inet_ntop:PROC
EXTRN	__imp_w32_snprintf:PROC
EXTRN	__imp_w32_basename:PROC
EXTRN	__imp_etod_clock:PROC
EXTRN	tt32_read:PROC
EXTRN	tt32_write:PROC
EXTRN	tt32_close:PROC
EXTRN	tt32_ioctl:PROC
EXTRN	display_tt32_stats:PROC
EXTRN	enable_tt32_debug_tracing:PROC
EXTRN	__imp_init_sysblk_netdev:PROC
EXTRN	__imp_group_device:PROC
EXTRN	__imp_getopt_long:PROC
EXTRN	__imp_device_attention:PROC
EXTRN	__imp_fwritemsg:PROC
EXTRN	__imp_logmsg:PROC
EXTRN	TUNTAP_CreateInterface:PROC
EXTRN	TUNTAP_SetIPAddr:PROC
EXTRN	TUNTAP_SetDestAddr:PROC
EXTRN	TUNTAP_SetNetMask:PROC
EXTRN	TUNTAP_SetIPAddr6:PROC
EXTRN	TUNTAP_SetMTU:PROC
EXTRN	TUNTAP_SetMACAddr:PROC
EXTRN	TUNTAP_SetFlags:PROC
EXTRN	ParseMAC:PROC
EXTRN	net_data_trace:PROC
EXTRN	resolve_host:PROC
EXTRN	__imp_mpc_point_pus:PROC
EXTRN	__imp_mpc_display_description:PROC
EXTRN	__imp_mpc_display_rrh:PROC
EXTRN	__imp_mpc_display_rrh_and_puk:PROC
EXTRN	__imp_mpc_display_rrh_and_pix:PROC
EXTRN	__imp_mpc_display_ptp_th_etc:PROC
EXTRN	__GSHandlerCheck:PROC
EXTRN	__chkstk:PROC
EXTRN	__security_check_cookie:PROC
EXTRN	memcmp:PROC
EXTRN	__imp_sysblk:BYTE
EXTRN	__imp_optind:DWORD
EXTRN	__imp_optarg:QWORD
EXTRN	__ImageBase:BYTE
EXTRN	__security_cookie:QWORD
EXTRN	_fltused:DWORD
_DATA	SEGMENT
COMM	?_OptionsStorage@?1??__local_stdio_printf_options@@9@9:QWORD							; `__local_stdio_printf_options'::`2'::_OptionsStorage
_DATA	ENDS
_BSS	SEGMENT
TokenLock DQ	01H DUP (?)
TokenLockInitialized DD 01H DUP (?)
$SG170362 DB	01H DUP (?)
	ALIGN	4

$SG170367 DB	01H DUP (?)
	ALIGN	4

$SG170370 DB	01H DUP (?)
_BSS	ENDS
;	COMDAT pdata
pdata	SEGMENT
$pdata$_vsnprintf_s_l DD imagerel $LN5
	DD	imagerel $LN5+127
	DD	imagerel $unwind$_vsnprintf_s_l
pdata	ENDS
;	COMDAT pdata
pdata	SEGMENT
$pdata$_vsnprintf_s DD imagerel $LN3
	DD	imagerel $LN3+73
	DD	imagerel $unwind$_vsnprintf_s
pdata	ENDS
pdata	SEGMENT
$pdata$DebuggerTrace DD imagerel DebuggerTrace
	DD	imagerel DebuggerTrace+247
	DD	imagerel $unwind$DebuggerTrace
pdata	ENDS
;	COMDAT pdata
pdata	SEGMENT
$pdata$fetch_hw_noswap DD imagerel $LN3
	DD	imagerel $LN3+30
	DD	imagerel $unwind$fetch_hw_noswap
pdata	ENDS
;	COMDAT pdata
pdata	SEGMENT
$pdata$fetch_fw_noswap DD imagerel $LN3
	DD	imagerel $LN3+27
	DD	imagerel $unwind$fetch_fw_noswap
pdata	ENDS
;	COMDAT pdata
pdata	SEGMENT
$pdata$fetch_f3_noswap DD imagerel $LN3
	DD	imagerel $LN3+49
	DD	imagerel $unwind$fetch_f3_noswap
pdata	ENDS
;	COMDAT pdata
pdata	SEGMENT
$pdata$store_f3_noswap DD imagerel $LN3
	DD	imagerel $LN3+45
	DD	imagerel $unwind$store_f3_noswap
pdata	ENDS
;	COMDAT pdata
pdata	SEGMENT
$pdata$fetch_dw_noswap DD imagerel $LN3
	DD	imagerel $LN3+30
	DD	imagerel $unwind$fetch_dw_noswap
pdata	ENDS
pdata	SEGMENT
$pdata$SetSIDInfo DD imagerel SetSIDInfo
	DD	imagerel SetSIDInfo+269
	DD	imagerel $unwind$SetSIDInfo
$pdata$ptp_init DD imagerel ptp_init
	DD	imagerel ptp_init+5108
	DD	imagerel $unwind$ptp_init
$pdata$ptp_execute_ccw DD imagerel ptp_execute_ccw
	DD	imagerel ptp_execute_ccw+1784
	DD	imagerel $unwind$ptp_execute_ccw
$pdata$ptp_close DD imagerel ptp_close
	DD	imagerel ptp_close+139
	DD	imagerel $unwind$ptp_close
$pdata$ptp_query DD imagerel ptp_query
	DD	imagerel ptp_query+1221
	DD	imagerel $unwind$ptp_query
$pdata$ptp_write DD imagerel ptp_write
	DD	imagerel ptp_write+1768
	DD	imagerel $unwind$ptp_write
$pdata$write_th DD imagerel write_th
	DD	imagerel write_th+840
	DD	imagerel $unwind$write_th
$pdata$write_rrh_8108 DD imagerel write_rrh_8108
	DD	imagerel write_rrh_8108+3142
	DD	imagerel $unwind$write_rrh_8108
$pdata$ptp_halt_or_clear DD imagerel ptp_halt_or_clear
	DD	imagerel ptp_halt_or_clear+157
	DD	imagerel $unwind$ptp_halt_or_clear
$pdata$ptp_read DD imagerel ptp_read
	DD	imagerel ptp_read+1122
	DD	imagerel $unwind$ptp_read
$pdata$read_read_buffer DD imagerel read_read_buffer
	DD	imagerel read_read_buffer+1908
	DD	imagerel $unwind$read_read_buffer
$pdata$read_chain_buffer DD imagerel read_chain_buffer
	DD	imagerel read_chain_buffer+1221
	DD	imagerel $unwind$read_chain_buffer
$pdata$ptp_read_thread DD imagerel ptp_read_thread
	DD	imagerel ptp_read_thread+4030
	DD	imagerel $unwind$ptp_read_thread
$pdata$add_buffer_to_chain_and_signal_event DD imagerel add_buffer_to_chain_and_signal_event
	DD	imagerel add_buffer_to_chain_and_signal_event+289
	DD	imagerel $unwind$add_buffer_to_chain_and_signal_event
$pdata$add_buffer_to_chain DD imagerel add_buffer_to_chain
	DD	imagerel add_buffer_to_chain+201
	DD	imagerel $unwind$add_buffer_to_chain
$pdata$remove_buffer_from_chain DD imagerel remove_buffer_from_chain
	DD	imagerel remove_buffer_from_chain+175
	DD	imagerel $unwind$remove_buffer_from_chain
$pdata$remove_and_free_any_buffers_on_chain DD imagerel remove_and_free_any_buffers_on_chain
	DD	imagerel remove_and_free_any_buffers_on_chain+160
	DD	imagerel $unwind$remove_and_free_any_buffers_on_chain
$pdata$alloc_ptp_buffer DD imagerel alloc_ptp_buffer
	DD	imagerel alloc_ptp_buffer+372
	DD	imagerel $unwind$alloc_ptp_buffer
$pdata$alloc_storage DD imagerel alloc_storage
	DD	imagerel alloc_storage+352
	DD	imagerel $unwind$alloc_storage
$pdata$parse_conf_stmt DD imagerel parse_conf_stmt
	DD	imagerel parse_conf_stmt+8073
	DD	imagerel $unwind$parse_conf_stmt
$pdata$get_preconfigured_value DD imagerel get_preconfigured_value
	DD	imagerel get_preconfigured_value+191
	DD	imagerel $unwind$get_preconfigured_value
$pdata$check_specified_value DD imagerel check_specified_value
	DD	imagerel check_specified_value+1170
	DD	imagerel $unwind$check_specified_value
$pdata$raise_unsol_int DD imagerel raise_unsol_int
	DD	imagerel raise_unsol_int+607
	DD	imagerel $unwind$raise_unsol_int
$pdata$ptp_unsol_int_thread DD imagerel ptp_unsol_int_thread
	DD	imagerel ptp_unsol_int_thread+1017
	DD	imagerel $unwind$ptp_unsol_int_thread
$pdata$ptp_get_tod_clock DD imagerel ptp_get_tod_clock
	DD	imagerel ptp_get_tod_clock+256
	DD	imagerel $unwind$ptp_get_tod_clock
$pdata$get_subarea_address DD imagerel get_subarea_address
	DD	imagerel get_subarea_address+345
	DD	imagerel $unwind$get_subarea_address
$pdata$write_hx0_01 DD imagerel write_hx0_01
	DD	imagerel write_hx0_01+1626
	DD	imagerel $unwind$write_hx0_01
$pdata$write_hx0_00 DD imagerel write_hx0_00
	DD	imagerel write_hx0_00+183
	DD	imagerel $unwind$write_hx0_00
$pdata$write_hx2 DD imagerel write_hx2
	DD	imagerel write_hx2+2686
	DD	imagerel $unwind$write_hx2
$pdata$point_CSVcv DD imagerel point_CSVcv
	DD	imagerel point_CSVcv+148
	DD	imagerel $unwind$point_CSVcv
$pdata$write_rrh_417E DD imagerel write_rrh_417E
	DD	imagerel write_rrh_417E+4576
	DD	imagerel $unwind$write_rrh_417E
$pdata$build_417E_cm_enable DD imagerel build_417E_cm_enable
	DD	imagerel build_417E_cm_enable+1697
	DD	imagerel $unwind$build_417E_cm_enable
$pdata$build_417E_cm_setup DD imagerel build_417E_cm_setup
	DD	imagerel build_417E_cm_setup+1168
	DD	imagerel $unwind$build_417E_cm_setup
$pdata$build_417E_cm_confirm DD imagerel build_417E_cm_confirm
	DD	imagerel build_417E_cm_confirm+1168
	DD	imagerel $unwind$build_417E_cm_confirm
$pdata$build_417E_ulp_enable DD imagerel build_417E_ulp_enable
	DD	imagerel build_417E_ulp_enable+1378
	DD	imagerel $unwind$build_417E_ulp_enable
$pdata$build_417E_ulp_setup DD imagerel build_417E_ulp_setup
	DD	imagerel build_417E_ulp_setup+1445
	DD	imagerel $unwind$build_417E_ulp_setup
$pdata$build_417E_ulp_confirm DD imagerel build_417E_ulp_confirm
	DD	imagerel build_417E_ulp_confirm+1445
	DD	imagerel $unwind$build_417E_ulp_confirm
$pdata$build_417E_dm_act DD imagerel build_417E_dm_act
	DD	imagerel build_417E_dm_act+808
	DD	imagerel $unwind$build_417E_dm_act
$pdata$write_rrh_C17E DD imagerel write_rrh_C17E
	DD	imagerel write_rrh_C17E+488
	DD	imagerel $unwind$write_rrh_C17E
$pdata$write_rrh_C108 DD imagerel write_rrh_C108
	DD	imagerel write_rrh_C108+8440
	DD	imagerel $unwind$write_rrh_C108
$pdata$build_C108_will_you_start_4 DD imagerel build_C108_will_you_start_4
	DD	imagerel build_C108_will_you_start_4+657
	DD	imagerel $unwind$build_C108_will_you_start_4
$pdata$build_C108_will_you_start_6 DD imagerel build_C108_will_you_start_6
	DD	imagerel build_C108_will_you_start_6+657
	DD	imagerel $unwind$build_C108_will_you_start_6
$pdata$build_C108_i_will_start_4 DD imagerel build_C108_i_will_start_4
	DD	imagerel build_C108_i_will_start_4+655
	DD	imagerel $unwind$build_C108_i_will_start_4
$pdata$build_C108_i_will_start_6 DD imagerel build_C108_i_will_start_6
	DD	imagerel build_C108_i_will_start_6+655
	DD	imagerel $unwind$build_C108_i_will_start_6
$pdata$build_C108_my_address_4 DD imagerel build_C108_my_address_4
	DD	imagerel build_C108_my_address_4+676
	DD	imagerel $unwind$build_C108_my_address_4
$pdata$build_C108_my_address_6 DD imagerel build_C108_my_address_6
	DD	imagerel build_C108_my_address_6+733
	DD	imagerel $unwind$build_C108_my_address_6
$pdata$build_C108_your_address_4 DD imagerel build_C108_your_address_4
	DD	imagerel build_C108_your_address_4+674
	DD	imagerel $unwind$build_C108_your_address_4
$pdata$build_C108_your_address_6 DD imagerel build_C108_your_address_6
	DD	imagerel build_C108_your_address_6+687
	DD	imagerel $unwind$build_C108_your_address_6
$pdata$build_C108_will_you_stop_4 DD imagerel build_C108_will_you_stop_4
	DD	imagerel build_C108_will_you_stop_4+657
	DD	imagerel $unwind$build_C108_will_you_stop_4
$pdata$build_C108_will_you_stop_6 DD imagerel build_C108_will_you_stop_6
	DD	imagerel build_C108_will_you_stop_6+657
	DD	imagerel $unwind$build_C108_will_you_stop_6
$pdata$build_C108_i_will_stop_4 DD imagerel build_C108_i_will_stop_4
	DD	imagerel build_C108_i_will_stop_4+619
	DD	imagerel $unwind$build_C108_i_will_stop_4
$pdata$build_C108_i_will_stop_6 DD imagerel build_C108_i_will_stop_6
	DD	imagerel build_C108_i_will_stop_6+619
	DD	imagerel $unwind$build_C108_i_will_stop_6
$pdata$build_8108_icmpv6_packets DD imagerel build_8108_icmpv6_packets
	DD	imagerel build_8108_icmpv6_packets+4518
	DD	imagerel $unwind$build_8108_icmpv6_packets
$pdata$gen_csv_sid DD imagerel gen_csv_sid
	DD	imagerel gen_csv_sid+40748
	DD	imagerel $unwind$gen_csv_sid
$pdata$shift_left_dbl DD imagerel shift_left_dbl
	DD	imagerel shift_left_dbl+119
	DD	imagerel $unwind$shift_left_dbl
$pdata$shift_right_dbl DD imagerel shift_right_dbl
	DD	imagerel shift_right_dbl+119
	DD	imagerel $unwind$shift_right_dbl
$pdata$calculate_icmpv6_checksum DD imagerel calculate_icmpv6_checksum
	DD	imagerel calculate_icmpv6_checksum+610
	DD	imagerel $unwind$calculate_icmpv6_checksum
$pdata$hdl_check_depends_ep DD imagerel $LN19
	DD	imagerel $LN19+194
	DD	imagerel $unwind$hdl_check_depends_ep
$pdata$hdl_register_symbols_ep DD imagerel $LN3
	DD	imagerel $LN3+50
	DD	imagerel $unwind$hdl_register_symbols_ep
$pdata$hdl_define_devtypes_ep DD imagerel $LN3
	DD	imagerel $LN3+32
	DD	imagerel $unwind$hdl_define_devtypes_ep
pdata	ENDS
;	COMDAT __real@40e0000000000000
CONST	SEGMENT
__real@40e0000000000000 DQ 040e0000000000000r	; 32768
CONST	ENDS
;	COMDAT __real@4070000000000000
CONST	SEGMENT
__real@4070000000000000 DQ 04070000000000000r	; 256
CONST	ENDS
_DATA	SEGMENT
	ORG $+2
uTokenIssuerRm DD 011001H
uTokenCmFilter DD 011002H
uTokenCmConnection DD 011003H
uTokenUlpFilter DD 011004H
uTokenUlpConnection DD 011005H
$SG170099 DB	'ctc_ptp.c:360', 00H
	ORG $+2
$SG170100 DB	'&TokenLock', 00H
	ORG $+1
$SG170126 DB	'TUN', 00H
$SG170106 DB	'ctc_ptp.c:460', 00H
	ORG $+2
$SG170107 DB	'&pPTPBLK->ReadBufferLock', 00H
	ORG $+3
$SG170127 DB	'I', 00H
	ORG $+2
$SG170108 DB	'ctc_ptp.c:461', 00H
	ORG $+2
$SG170109 DB	'&pPTPBLK->ReadEventLock', 00H
$SG170110 DB	'ctc_ptp.c:462', 00H
	ORG $+2
$SG170111 DB	'ctc_ptp.c:463', 00H
	ORG $+2
$SG170112 DB	'&pPTPBLK->UnsolListLock', 00H
$SG170113 DB	'ctc_ptp.c:464', 00H
	ORG $+2
$SG170114 DB	'&pPTPBLK->UpdateLock', 00H
	ORG $+3
$SG170115 DB	'ctc_ptp.c:466', 00H
	ORG $+2
$SG170116 DB	'&pPTPATHre->ChainLock', 00H
	ORG $+2
$SG170117 DB	'ctc_ptp.c:467', 00H
	ORG $+2
$SG170118 DB	'&pPTPATHre->UnsolEventLock', 00H
	ORG $+1
$SG170134 DB	'W', 00H
	ORG $+2
$SG170119 DB	'ctc_ptp.c:468', 00H
	ORG $+2
$SG170120 DB	'ctc_ptp.c:470', 00H
	ORG $+2
$SG170121 DB	'&pPTPATHwr->ChainLock', 00H
	ORG $+2
$SG170122 DB	'ctc_ptp.c:471', 00H
	ORG $+2
$SG170123 DB	'&pPTPATHwr->UnsolEventLock', 00H
	ORG $+1
$SG170140 DB	'W', 00H
	ORG $+2
$SG170124 DB	'ctc_ptp.c:472', 00H
	ORG $+2
$SG170128 DB	'HHC00901%s %1d:%04X %s: Interface %s, type %s opened', 0aH
	DB	00H
	ORG $+2
$SG170129 DB	'ptp_init', 00H
	ORG $+3
$SG170221 DB	'E', 00H
	ORG $+2
$SG170130 DB	'ctc_ptp.c', 00H
	ORG $+2
$SG170235 DB	'D', 00H
	ORG $+2
$SG170133 DB	'TT32SDEVBUFF', 00H
	ORG $+3
$SG170135 DB	'HHC00902%s %1d:%04X %s: ioctl %s failed for device %s: %'
	DB	's', 0aH, 00H
	ORG $+1
$SG170240 DB	'D', 00H
	ORG $+2
$SG170136 DB	'ptp_init', 00H
	ORG $+3
$SG170245 DB	'D', 00H
	ORG $+2
$SG170137 DB	'ctc_ptp.c', 00H
	ORG $+2
$SG170288 DB	'D', 00H
	ORG $+2
$SG170139 DB	'TT32SIOBUFF', 00H
$SG170306 DB	'D', 00H
	ORG $+2
$SG170141 DB	'HHC00902%s %1d:%04X %s: ioctl %s failed for device %s: %'
	DB	's', 0aH, 00H
	ORG $+1
$SG170344 DB	'.', 00H
	ORG $+2
$SG170142 DB	'ptp_init', 00H
	ORG $+3
$SG170349 DB	'-', 00H
	ORG $+2
$SG170143 DB	'ctc_ptp.c', 00H
	ORG $+2
$SG170352 DB	'-', 00H
	ORG $+2
$SG170145 DB	'ptp_init', 00H
	ORG $+3
$SG170355 DB	'-', 00H
	ORG $+2
$SG170146 DB	'ctc_ptp.c', 00H
	ORG $+6
$SG170147 DB	'%s(%d) : warning HHC90999W : *** Assertion Failed! *** f'
	DB	'unction: %s', 0aH, 00H
	ORG $+3
$SG170149 DB	'ptp_init', 00H
	ORG $+3
$SG170358 DB	'-', 00H
	ORG $+2
$SG170150 DB	'ctc_ptp.c', 00H
	ORG $+6
$SG170218 DB	'%s %4.4X ReadThread', 00H
	ORG $+4
$SG170151 DB	'%s(%d) : warning HHC90999W : *** Assertion Failed! *** f'
	DB	'unction: %s', 0aH, 00H
	ORG $+3
$SG170155 DB	'ptp_init', 00H
	ORG $+3
$SG170361 DB	' -d', 00H
$SG170156 DB	'ctc_ptp.c', 00H
	ORG $+6
$SG170219 DB	'ctc_ptp.c:577', 00H
	ORG $+2
$SG170222 DB	'HHC00102%s Error in function create_thread(): %s', 0aH, 00H
	ORG $+6
$SG170157 DB	'%s(%d) : warning HHC90999W : *** Assertion Failed! *** f'
	DB	'unction: %s', 0aH, 00H
	ORG $+3
$SG170159 DB	'ptp_init', 00H
	ORG $+3
$SG170366 DB	' -d', 00H
$SG170160 DB	'ctc_ptp.c', 00H
	ORG $+6
$SG170236 DB	'HHC03952%s %1d:%04X PTP: MAC: %s', 0aH, 00H
	ORG $+6
$SG170161 DB	'%s(%d) : warning HHC90999W : *** Assertion Failed! *** f'
	DB	'unction: %s', 0aH, 00H
	ORG $+3
$SG170164 DB	'ptp_init', 00H
	ORG $+3
$SG170369 DB	' -d', 00H
$SG170165 DB	'ctc_ptp.c', 00H
	ORG $+6
$SG170241 DB	'HHC03953%s %1d:%04X PTP: IPv4: Drive %s/%s (%s): Guest %'
	DB	's', 0aH, 00H
	ORG $+5
$SG170246 DB	'HHC03954%s %1d:%04X PTP: IPv6: Drive %s/%s %s/%s: Guest '
	DB	'%s', 0aH, 00H
$SG170338 DB	'CTCA', 00H
	ORG $+7
$SG170166 DB	'%s(%d) : warning HHC90999W : *** Assertion Failed! *** f'
	DB	'unction: %s', 0aH, 00H
	ORG $+3
$SG170168 DB	'ptp_init', 00H
	ORG $+3
$SG170403 DB	'D', 00H
	ORG $+2
$SG170169 DB	'ctc_ptp.c', 00H
	ORG $+6
$SG170290 DB	'ptp_execute_ccw', 00H
$SG170408 DB	'D', 00H
	ORG $+6
$SG170170 DB	'%s(%d) : warning HHC90999W : *** Assertion Failed! *** f'
	DB	'unction: %s', 0aH, 00H
	ORG $+3
$SG170173 DB	'ptp_init', 00H
	ORG $+3
$SG170416 DB	'D', 00H
	ORG $+2
$SG170174 DB	'ctc_ptp.c', 00H
	ORG $+6
$SG170307 DB	'HHC03993%s %1d:%04X %s: Status %02X: Residual %08X: More'
	DB	' %02X', 0aH, 00H
	ORG $+1
$SG170308 DB	'ptp_execute_ccw', 00H
$SG170412 DB	'data', 00H
	ORG $+3
$SG170175 DB	'%s(%d) : warning HHC90999W : *** Assertion Failed! *** f'
	DB	'unction: %s', 0aH, 00H
	ORG $+3
$SG170177 DB	'ptp_init', 00H
	ORG $+3
$SG170426 DB	'W', 00H
	ORG $+2
$SG170178 DB	'ctc_ptp.c', 00H
	ORG $+6
$SG170318 DB	'ctc_ptp.c:863', 00H
	ORG $+2
$SG170346 DB	'*Uninitialized', 00H
	ORG $+1
$SG170436 DB	'data', 00H
	ORG $+3
$SG170179 DB	'%s(%d) : warning HHC90999W : *** Assertion Failed! *** f'
	DB	'unction: %s', 0aH, 00H
	ORG $+3
$SG170183 DB	'ptp_init', 00H
	ORG $+3
$SG170432 DB	'I', 00H
	ORG $+2
$SG170184 DB	'ctc_ptp.c', 00H
	ORG $+6
$SG170319 DB	'ctc_ptp.c:865', 00H
	ORG $+2
$SG170363 DB	'%s %s/%s %s/%s (%s)%s IO[%llu]', 00H
	ORG $+1
$SG170491 DB	'RRH', 00H
	ORG $+4
$SG170185 DB	'%s(%d) : warning HHC90999W : *** Assertion Failed! *** f'
	DB	'unction: %s', 0aH, 00H
	ORG $+3
$SG170187 DB	'ptp_init', 00H
	ORG $+3
$SG170492 DB	'W', 00H
	ORG $+2
$SG170188 DB	'ctc_ptp.c', 00H
	ORG $+2
$SG170554 DB	' IPv4', 00H
	ORG $+6
$SG170189 DB	'%s(%d) : warning HHC90999W : *** Assertion Failed! *** f'
	DB	'unction: %s', 0aH, 00H
	ORG $+3
$SG170192 DB	'ptp_init', 00H
	ORG $+3
$SG170557 DB	' IPv6', 00H
	ORG $+2
$SG170558 DB	'W', 00H
	ORG $+2
$SG170193 DB	'ctc_ptp.c', 00H
	ORG $+6
$SG170194 DB	'%s(%d) : warning HHC90999W : *** Assertion Failed! *** f'
	DB	'unction: %s', 0aH, 00H
	ORG $+3
$SG170196 DB	'ptp_init', 00H
	ORG $+3
$SG170563 DB	'I', 00H
	ORG $+2
$SG170197 DB	'ctc_ptp.c', 00H
	ORG $+6
$SG170560 DB	'write_rrh_8108', 00H
	ORG $+1
$SG170567 DB	'data', 00H
	ORG $+3
$SG170198 DB	'%s(%d) : warning HHC90999W : *** Assertion Failed! *** f'
	DB	'unction: %s', 0aH, 00H
	ORG $+3
$SG170201 DB	'ptp_init', 00H
	ORG $+3
$SG170576 DB	'W', 00H
	ORG $+2
$SG170202 DB	'ctc_ptp.c', 00H
	ORG $+6
$SG170565 DB	'write_rrh_8108', 00H
	ORG $+1
$SG170585 DB	'data', 00H
	ORG $+3
$SG170203 DB	'%s(%d) : warning HHC90999W : *** Assertion Failed! *** f'
	DB	'unction: %s', 0aH, 00H
	ORG $+3
$SG170205 DB	'ptp_init', 00H
	ORG $+3
$SG170581 DB	'I', 00H
	ORG $+2
$SG170206 DB	'ctc_ptp.c', 00H
	ORG $+6
$SG170578 DB	'write_rrh_8108', 00H
	ORG $+1
$SG170596 DB	'data', 00H
	ORG $+3
$SG170207 DB	'%s(%d) : warning HHC90999W : *** Assertion Failed! *** f'
	DB	'unction: %s', 0aH, 00H
	ORG $+3
$SG170210 DB	'ptp_init', 00H
	ORG $+3
$SG170587 DB	'W', 00H
	ORG $+2
$SG170211 DB	'ctc_ptp.c', 00H
	ORG $+6
$SG170583 DB	'write_rrh_8108', 00H
	ORG $+1
$SG170607 DB	'packet', 00H
	ORG $+1
$SG170212 DB	'%s(%d) : warning HHC90999W : *** Assertion Failed! *** f'
	DB	'unction: %s', 0aH, 00H
	ORG $+3
$SG170214 DB	'ptp_init', 00H
	ORG $+3
$SG170592 DB	'I', 00H
	ORG $+2
$SG170215 DB	'ctc_ptp.c', 00H
	ORG $+6
$SG170589 DB	'write_rrh_8108', 00H
	ORG $+1
$SG170667 DB	'HHC00904%s %1d:%04X %s: Halt or clear recognized', 0aH, 00H
	ORG $+6
$SG170216 DB	'%s(%d) : warning HHC90999W : *** Assertion Failed! *** f'
	DB	'unction: %s', 0aH, 00H
	ORG $+3
$SG170223 DB	'ptp_init', 00H
	ORG $+3
$SG170603 DB	'D', 00H
	ORG $+2
$SG170224 DB	'ctc_ptp.c', 00H
	ORG $+2
$SG170609 DB	'E', 00H
	ORG $+2
$SG170226 DB	'ptp_init', 00H
	ORG $+3
$SG170666 DB	'I', 00H
	ORG $+2
$SG170227 DB	'ctc_ptp.c', 00H
	ORG $+6
$SG170594 DB	'write_rrh_8108', 00H
	ORG $+1
$SG170748 DB	'read_read_buffer', 00H
	ORG $+7
$SG170228 DB	'%s(%d) : warning HHC90999W : *** Assertion Failed! *** f'
	DB	'unction: %s', 0aH, 00H
	ORG $+3
$SG170230 DB	'ptp_init', 00H
	ORG $+3
$SG170746 DB	'D', 00H
	ORG $+2
$SG170231 DB	'ctc_ptp.c', 00H
	ORG $+6
$SG170605 DB	'write_rrh_8108', 00H
	ORG $+1
$SG170753 DB	'read_read_buffer', 00H
	ORG $+7
$SG170232 DB	'%s(%d) : warning HHC90999W : *** Assertion Failed! *** f'
	DB	'unction: %s', 0aH, 00H
	ORG $+3
$SG170237 DB	'ptp_init', 00H
	ORG $+3
$SG170751 DB	'D', 00H
	ORG $+2
$SG170238 DB	'ctc_ptp.c', 00H
	ORG $+2
$SG170756 DB	'D', 00H
	ORG $+2
$SG170242 DB	'ptp_init', 00H
	ORG $+3
$SG170794 DB	'D', 00H
	ORG $+2
$SG170243 DB	'ctc_ptp.c', 00H
	ORG $+2
$SG170799 DB	'D', 00H
	ORG $+2
$SG170247 DB	'ptp_init', 00H
	ORG $+3
$SG170804 DB	'D', 00H
	ORG $+2
$SG170248 DB	'ctc_ptp.c', 00H
	ORG $+6
$SG170610 DB	'HHC00911%s %1d:%04X %s: Error writing to device %s: %d %'
	DB	's', 0aH, 00H
	ORG $+5
$SG170611 DB	'write_rrh_8108', 00H
	ORG $+1
$SG170758 DB	'read_read_buffer', 00H
	ORG $+7
$SG170289 DB	'HHC03992%s %1d:%04X %s: Code %02X: Flags %02X: Count %08'
	DB	'X: Chained %02X: PrevCode %02X: CCWseq %d', 0aH, 00H
	ORG $+1
$SG170892 DB	'E', 00H
	ORG $+2
$SG170291 DB	'ctc_ptp.c', 00H
	ORG $+2
$SG170903 DB	'W', 00H
	ORG $+2
$SG170309 DB	'ctc_ptp.c', 00H
	ORG $+2
$SG170908 DB	'I', 00H
	ORG $+2
$SG170368 DB	'%s %s/%s (%s)%s IO[%llu]', 00H
	ORG $+3
$SG170899 DB	' IPv4', 00H
	ORG $+2
$SG170920 DB	'W', 00H
	ORG $+2
$SG170371 DB	'%s %s/%s (%s)%s IO[%llu]', 00H
	ORG $+7
$SG170404 DB	'HHC00981%s %1d:%04X %s: Accept data of size %d bytes fro'
	DB	'm guest', 0aH, 00H
	ORG $+3
$SG170902 DB	' IPv6', 00H
	ORG $+2
$SG170925 DB	'I', 00H
	ORG $+2
$SG170405 DB	'ptp_write', 00H
	ORG $+2
$SG170941 DB	'W', 00H
	ORG $+2
$SG170406 DB	'ctc_ptp.c', 00H
	ORG $+6
$SG170409 DB	'HHC00980%s %1d:%04X %s: Data of size %d bytes displayed,'
	DB	' data of size %d bytes not displayed', 0aH, 00H
	ORG $+2
$SG170410 DB	'ptp_write', 00H
	ORG $+2
$SG170946 DB	'I', 00H
	ORG $+2
$SG170411 DB	'ctc_ptp.c', 00H
	ORG $+6
$SG170417 DB	'HHC00981%s %1d:%04X %s: Accept data of size %d bytes fro'
	DB	'm guest', 0aH, 00H
	ORG $+3
$SG170953 DB	'W', 00H
	ORG $+2
$SG170418 DB	'ptp_write', 00H
	ORG $+2
$SG170958 DB	'I', 00H
	ORG $+2
$SG170419 DB	'ctc_ptp.c', 00H
	ORG $+6
$SG170619 DB	'ctc_ptp.c:1500', 00H
	ORG $+1
$SG170760 DB	'data', 00H
	ORG $+3
$SG170427 DB	'HHC03931%s %1d:%04X PTP: Accept data of size %d bytes co'
	DB	'ntains unknown data', 0aH, 00H
	ORG $+3
$SG170428 DB	'ptp_write', 00H
	ORG $+2
$SG170967 DB	'D', 00H
	ORG $+2
$SG170429 DB	'ctc_ptp.c', 00H
	ORG $+6
$SG170433 DB	'HHC00980%s %1d:%04X %s: Data of size %d bytes displayed,'
	DB	' data of size %d bytes not displayed', 0aH, 00H
	ORG $+2
$SG170434 DB	'ptp_write', 00H
	ORG $+2
$SG170971 DB	'packet', 00H
	ORG $+1
$SG171050 DB	'E', 00H
	ORG $+2
$SG170435 DB	'ctc_ptp.c', 00H
	ORG $+2
$SG171065 DB	'E', 00H
	ORG $+2
$SG170493 DB	'HHC03936%s %1d:%04X PTP: Accept data contains unknown %s'
	DB	0aH, 00H
	ORG $+2
$SG171138 DB	'5', 00H
	ORG $+2
$SG170494 DB	'write_th', 00H
	ORG $+3
$SG171140 DB	'32', 00H
	ORG $+1
$SG170495 DB	'ctc_ptp.c', 00H
	ORG $+6
$SG170621 DB	'ctc_ptp.c:1505', 00H
	ORG $+1
$SG170796 DB	'read_chain_buffer', 00H
	ORG $+6
$SG170559 DB	'HHC03933%s %1d:%04X PTP: Accept data for device %s conta'
	DB	'ins IP packet with unknown IP version, data dropped', 0aH, 00H
	ORG $+3
$SG170561 DB	'ctc_ptp.c', 00H
	ORG $+6
$SG170564 DB	'HHC00980%s %1d:%04X %s: Data of size %d bytes displayed,'
	DB	' data of size %d bytes not displayed', 0aH, 00H
	ORG $+2
$SG170566 DB	'ctc_ptp.c', 00H
	ORG $+6
$SG170577 DB	'HHC03934%s %1d:%04X PTP: Accept data for device %s conta'
	DB	'ins incomplete IP packet, data dropped', 0aH, 00H
$SG170579 DB	'ctc_ptp.c', 00H
	ORG $+6
$SG170582 DB	'HHC00980%s %1d:%04X %s: Data of size %d bytes displayed,'
	DB	' data of size %d bytes not displayed', 0aH, 00H
	ORG $+2
$SG170584 DB	'ctc_ptp.c', 00H
	ORG $+6
$SG170588 DB	'HHC03935%s %1d:%04X PTP: Accept data for device %s conta'
	DB	'ins IP packet larger than MTU, data dropped', 0aH, 00H
	ORG $+3
$SG170590 DB	'ctc_ptp.c', 00H
	ORG $+6
$SG170622 DB	'ctc_ptp.c:1508', 00H
	ORG $+1
$SG170801 DB	'read_chain_buffer', 00H
	ORG $+6
$SG170593 DB	'HHC00980%s %1d:%04X %s: Data of size %d bytes displayed,'
	DB	' data of size %d bytes not displayed', 0aH, 00H
	ORG $+2
$SG170595 DB	'ctc_ptp.c', 00H
	ORG $+6
$SG170604 DB	'HHC00910%s %1d:%04X %s: Send%s packet of size %d bytes t'
	DB	'o device %s', 0aH, 00H
	ORG $+3
$SG170606 DB	'ctc_ptp.c', 00H
	ORG $+2
$SG171142 DB	'128', 00H
$SG170612 DB	'ctc_ptp.c', 00H
	ORG $+2
$SG171143 DB	'64', 00H
	ORG $+1
$SG170656 DB	'ctc_ptp.c:1567', 00H
	ORG $+1
$SG170658 DB	'ctc_ptp.c:1577', 00H
	ORG $+1
$SG170659 DB	'ctc_ptp.c:1582', 00H
	ORG $+1
$SG170660 DB	'ctc_ptp.c:1592', 00H
	ORG $+1
$SG170661 DB	'ctc_ptp.c:1598', 00H
	ORG $+1
$SG170663 DB	'ctc_ptp.c:1609', 00H
	ORG $+1
$SG170668 DB	'ptp_read', 00H
	ORG $+3
$SG171158 DB	'E', 00H
	ORG $+2
$SG170669 DB	'ctc_ptp.c', 00H
	ORG $+6
$SG170806 DB	'read_chain_buffer', 00H
	ORG $+6
$SG170747 DB	'HHC00982%s %1d:%04X %s: Present data of size %d bytes to'
	DB	' guest', 0aH, 00H
$SG170749 DB	'ctc_ptp.c', 00H
	ORG $+6
$SG170752 DB	'HHC00982%s %1d:%04X %s: Present data of size %d bytes to'
	DB	' guest', 0aH, 00H
$SG170754 DB	'ctc_ptp.c', 00H
	ORG $+6
$SG170757 DB	'HHC00980%s %1d:%04X %s: Data of size %d bytes displayed,'
	DB	' data of size %d bytes not displayed', 0aH, 00H
	ORG $+2
$SG170759 DB	'ctc_ptp.c', 00H
	ORG $+6
$SG170795 DB	'HHC00982%s %1d:%04X %s: Present data of size %d bytes to'
	DB	' guest', 0aH, 00H
$SG170797 DB	'ctc_ptp.c', 00H
	ORG $+6
$SG170800 DB	'HHC00982%s %1d:%04X %s: Present data of size %d bytes to'
	DB	' guest', 0aH, 00H
$SG170802 DB	'ctc_ptp.c', 00H
	ORG $+6
$SG170805 DB	'HHC00980%s %1d:%04X %s: Data of size %d bytes displayed,'
	DB	' data of size %d bytes not displayed', 0aH, 00H
	ORG $+2
$SG170807 DB	'ctc_ptp.c', 00H
	ORG $+2
$SG170808 DB	'data', 00H
	ORG $+3
$SG171164 DB	'E', 00H
	ORG $+2
$SG170881 DB	'ptp_read_thread', 00H
$SG170882 DB	'ctc_ptp.c', 00H
	ORG $+6
$SG170885 DB	'ptp_read_thread', 00H
$SG170912 DB	'data', 00H
	ORG $+3
$SG170883 DB	'%s(%d) : warning HHC90999W : *** Assertion Failed! *** f'
	DB	'unction: %s', 0aH, 00H
	ORG $+3
$SG170886 DB	'ctc_ptp.c', 00H
	ORG $+6
$SG170893 DB	'HHC00912%s %1d:%04X %s: Error reading from device %s: %d'
	DB	' %s', 0aH, 00H
	ORG $+3
$SG170894 DB	'ptp_read_thread', 00H
$SG170929 DB	'data', 00H
	ORG $+3
$SG170887 DB	'%s(%d) : warning HHC90999W : *** Assertion Failed! *** f'
	DB	'unction: %s', 0aH, 00H
	ORG $+3
$SG170895 DB	'ctc_ptp.c', 00H
	ORG $+6
$SG170905 DB	'ptp_read_thread', 00H
$SG170950 DB	'data', 00H
	ORG $+3
$SG170904 DB	'HHC03921%s %1d:%04X PTP: Packet of size %d bytes from de'
	DB	'vice %s has an unknown IP version, packet dropped', 0aH, 00H
	ORG $+1
$SG171172 DB	'E', 00H
	ORG $+2
$SG170906 DB	'ctc_ptp.c', 00H
	ORG $+6
$SG170909 DB	'HHC00980%s %1d:%04X %s: Data of size %d bytes displayed,'
	DB	' data of size %d bytes not displayed', 0aH, 00H
	ORG $+2
$SG170910 DB	'ptp_read_thread', 00H
$SG170911 DB	'ctc_ptp.c', 00H
	ORG $+6
$SG170921 DB	'HHC03922%s %1d:%04X PTP: Packet of size %d bytes from de'
	DB	'vice %s is not equal to the packet length of %d bytes, packet'
	DB	' dropped', 0aH, 00H
	ORG $+1
$SG170922 DB	'ptp_read_thread', 00H
$SG170923 DB	'ctc_ptp.c', 00H
	ORG $+6
$SG170926 DB	'HHC00980%s %1d:%04X %s: Data of size %d bytes displayed,'
	DB	' data of size %d bytes not displayed', 0aH, 00H
	ORG $+2
$SG170927 DB	'ptp_read_thread', 00H
$SG170928 DB	'ctc_ptp.c', 00H
	ORG $+2
$SG171182 DB	'W', 00H
	ORG $+2
$SG170930 DB	'ctc_ptp.c:2179', 00H
	ORG $+1
$SG170934 DB	'ctc_ptp.c:2187', 00H
	ORG $+1
$SG170936 DB	'ctc_ptp.c:2196', 00H
	ORG $+1
$SG170938 DB	'ctc_ptp.c:2206', 00H
	ORG $+1
$SG170940 DB	'ctc_ptp.c:2215', 00H
	ORG $+1
$SG170942 DB	'HHC03923%s %1d:%04X PTP: Packet of size %d bytes from de'
	DB	'vice %s is larger than the guests actual MTU of %d bytes, pac'
	DB	'ket dropped', 0aH, 00H
	ORG $+2
$SG171192 DB	'E', 00H
	ORG $+2
$SG170943 DB	'ptp_read_thread', 00H
$SG170944 DB	'ctc_ptp.c', 00H
	ORG $+6
$SG170948 DB	'ptp_read_thread', 00H
$SG170962 DB	'data', 00H
	ORG $+3
$SG170947 DB	'HHC00980%s %1d:%04X %s: Data of size %d bytes displayed,'
	DB	' data of size %d bytes not displayed', 0aH, 00H
	ORG $+2
$SG170949 DB	'ctc_ptp.c', 00H
	ORG $+2
$SG171200 DB	'E', 00H
	ORG $+2
$SG170952 DB	'ctc_ptp.c:2237', 00H
	ORG $+1
$SG170954 DB	'HHC03924%s %1d:%04X PTP: Packet of size %d bytes from de'
	DB	'vice %s is too large for read buffer area of %d bytes, packet'
	DB	' dropped', 0aH, 00H
	ORG $+1
$SG170955 DB	'ptp_read_thread', 00H
$SG170956 DB	'ctc_ptp.c', 00H
	ORG $+6
$SG170959 DB	'HHC00980%s %1d:%04X %s: Data of size %d bytes displayed,'
	DB	' data of size %d bytes not displayed', 0aH, 00H
	ORG $+2
$SG170960 DB	'ptp_read_thread', 00H
$SG170961 DB	'ctc_ptp.c', 00H
	ORG $+2
$SG171208 DB	'E', 00H
	ORG $+2
$SG170965 DB	'ctc_ptp.c:2261', 00H
	ORG $+1
$SG170968 DB	'HHC00913%s %1d:%04X %s: Receive%s packet of size %d byte'
	DB	's from device %s', 0aH, 00H
	ORG $+2
$SG171213 DB	'E', 00H
	ORG $+2
$SG170969 DB	'ptp_read_thread', 00H
$SG170970 DB	'ctc_ptp.c', 00H
	ORG $+2
$SG171220 DB	'E', 00H
	ORG $+2
$SG170972 DB	'ctc_ptp.c:2295', 00H
	ORG $+1
$SG170973 DB	'ctc_ptp.c:2298', 00H
	ORG $+1
$SG170974 DB	'ctc_ptp.c:2299', 00H
	ORG $+1
$SG170975 DB	'ctc_ptp.c:2300', 00H
	ORG $+1
$SG170977 DB	'ptp_read_thread', 00H
$SG170978 DB	'ctc_ptp.c', 00H
	ORG $+6
$SG170979 DB	'%s(%d) : warning HHC90999W : *** Assertion Failed! *** f'
	DB	'unction: %s', 0aH, 00H
	ORG $+3
$SG170981 DB	'ptp_read_thread', 00H
$SG170982 DB	'ctc_ptp.c', 00H
	ORG $+6
$SG170995 DB	'ctc_ptp.c:2337', 00H
	ORG $+1
$SG171051 DB	'HHC00900%s %1d:%04X %s: Error in function %s: %s', 0aH, 00H
	ORG $+6
$SG170983 DB	'%s(%d) : warning HHC90999W : *** Assertion Failed! *** f'
	DB	'unction: %s', 0aH, 00H
	ORG $+3
$SG170998 DB	'ctc_ptp.c:2354', 00H
	ORG $+1
$SG170999 DB	'ctc_ptp.c:2357', 00H
	ORG $+1
$SG171000 DB	'ctc_ptp.c:2358', 00H
	ORG $+1
$SG171001 DB	'ctc_ptp.c:2359', 00H
	ORG $+1
$SG171011 DB	'ctc_ptp.c:2377', 00H
	ORG $+1
$SG171014 DB	'ctc_ptp.c:2394', 00H
	ORG $+1
$SG171021 DB	'ctc_ptp.c:2409', 00H
	ORG $+1
$SG171024 DB	'ctc_ptp.c:2429', 00H
	ORG $+1
$SG171036 DB	'ctc_ptp.c:2444', 00H
	ORG $+1
$SG171037 DB	'ctc_ptp.c:2460', 00H
	ORG $+1
$SG171049 DB	'malloc(%n)', 00H
	ORG $+1
$SG171227 DB	'E', 00H
	ORG $+2
$SG171052 DB	'alloc_ptp_buffer', 00H
	ORG $+3
$SG171242 DB	'E', 00H
	ORG $+2
$SG171053 DB	'ctc_ptp.c', 00H
	ORG $+2
$SG171250 DB	'I', 00H
	ORG $+2
$SG171064 DB	'malloc(%n)', 00H
	ORG $+1
$SG171255 DB	'E', 00H
	ORG $+2
$SG171066 DB	'HHC00900%s %1d:%04X %s: Error in function %s: %s', 0aH, 00H
	ORG $+2
$SG171260 DB	'E', 00H
	ORG $+2
$SG171067 DB	'alloc_storage', 00H
	ORG $+2
$SG171068 DB	'ctc_ptp.c', 00H
	ORG $+2
$SG171139 DB	'1500', 00H
	ORG $+7
?options@?3??parse_conf_stmt@@9@9 DQ FLAT:$SG171144	; `parse_conf_stmt'::`4'::options
	DD	01H
	ORG $+4
	DQ	0000000000000000H
	DD	06eH
	ORG $+4
	DQ	FLAT:$SG171145
	DD	01H
	ORG $+4
	DQ	0000000000000000H
	DD	074H
	ORG $+4
	DQ	FLAT:$SG171146
	DD	02H
	ORG $+4
	DQ	0000000000000000H
	DD	064H
	ORG $+4
	DQ	FLAT:$SG171147
	DD	00H
	ORG $+4
	DQ	0000000000000000H
	DD	034H
	ORG $+4
	DQ	FLAT:$SG171148
	DD	00H
	ORG $+4
	DQ	0000000000000000H
	DD	036H
	ORG $+4
	DQ	FLAT:$SG171149
	DD	01H
	ORG $+4
	DQ	0000000000000000H
	DD	06dH
	ORG $+4
	DQ	FLAT:$SG171150
	DD	01H
	ORG $+4
	DQ	0000000000000000H
	DD	06bH
	ORG $+4
	DQ	FLAT:$SG171151
	DD	01H
	ORG $+4
	DQ	0000000000000000H
	DD	069H
	ORG $+4
	DQ	0000000000000000H
	DD	00H
	ORG $+4
	DQ	0000000000000000H
	DD	00H
	ORG $+4
$SG171141 DB	'255.255.255.255', 00H
$SG171152 DB	'n:t:d::46m:k:i:', 00H
$SG171157 DB	'adapter address', 00H
$SG171159 DB	'HHC00916%s %1d:%04X %s: Option %s value %s invalid', 0aH
	DB	00H
$SG171267 DB	'E', 00H
	ORG $+2
$SG171160 DB	'parse_conf_stmt', 00H
$SG171161 DB	'ctc_ptp.c', 00H
	ORG $+2
$SG171275 DB	'E', 00H
	ORG $+2
$SG171163 DB	'device name', 00H
$SG171286 DB	'E', 00H
	ORG $+2
$SG171165 DB	'HHC00916%s %1d:%04X %s: Option %s value %s invalid', 0aH
	DB	00H
$SG171293 DB	'E', 00H
	ORG $+2
$SG171166 DB	'parse_conf_stmt', 00H
$SG171167 DB	'ctc_ptp.c', 00H
	ORG $+2
$SG171302 DB	'E', 00H
	ORG $+2
$SG171171 DB	'MTU size', 00H
	ORG $+3
$SG171309 DB	'E', 00H
	ORG $+2
$SG171173 DB	'HHC00916%s %1d:%04X %s: Option %s value %s invalid', 0aH
	DB	00H
$SG171331 DB	'E', 00H
	ORG $+2
$SG171174 DB	'parse_conf_stmt', 00H
$SG171175 DB	'ctc_ptp.c', 00H
	ORG $+2
$SG171348 DB	'E', 00H
	ORG $+2
$SG171181 DB	'debug mask', 00H
	ORG $+1
$SG171353 DB	'E', 00H
	ORG $+2
$SG171183 DB	'HHC00916%s %1d:%04X %s: Option %s value %s invalid', 0aH
	DB	00H
$SG171360 DB	'E', 00H
	ORG $+2
$SG171184 DB	'parse_conf_stmt', 00H
$SG171185 DB	'ctc_ptp.c', 00H
	ORG $+2
$SG171365 DB	'W', 00H
	ORG $+2
$SG171191 DB	'MAC address', 00H
$SG171393 DB	'E', 00H
	ORG $+2
$SG171193 DB	'HHC00916%s %1d:%04X %s: Option %s value %s invalid', 0aH
	DB	00H
$SG171400 DB	'E', 00H
	ORG $+2
$SG171194 DB	'parse_conf_stmt', 00H
$SG171195 DB	'ctc_ptp.c', 00H
	ORG $+2
$SG171430 DB	'D', 00H
	ORG $+2
$SG171199 DB	'kernel buffer size', 00H
	ORG $+1
$SG171494 DB	'I', 00H
	ORG $+2
$SG171201 DB	'HHC00916%s %1d:%04X %s: Option %s value %s invalid', 0aH
	DB	00H
$SG171499 DB	'I', 00H
	ORG $+2
$SG171202 DB	'parse_conf_stmt', 00H
$SG171203 DB	'ctc_ptp.c', 00H
	ORG $+2
$SG171487 DB	'In HX0', 00H
	ORG $+1
$SG171504 DB	'I', 00H
	ORG $+2
$SG171207 DB	'dll i/o buffer size', 00H
$SG171626 DB	'W', 00H
	ORG $+2
$SG171209 DB	'HHC00916%s %1d:%04X %s: Option %s value %s invalid', 0aH
	DB	00H
$SG171637 DB	'I', 00H
	ORG $+2
$SG171210 DB	'parse_conf_stmt', 00H
$SG171211 DB	'ctc_ptp.c', 00H
	ORG $+6
$SG171214 DB	'HHC00918%s %1d:%04X %s: Option %s unknown or specified i'
	DB	'ncorrectly', 0aH, 00H
$SG171641 DB	'I', 00H
	ORG $+2
$SG171215 DB	'parse_conf_stmt', 00H
$SG171216 DB	'ctc_ptp.c', 00H
	ORG $+2
$SG171540 DB	'In HX0', 00H
	ORG $+1
$SG171738 DB	'W', 00H
	ORG $+2
$SG171221 DB	'HHC00915%s %1d:%04X %s: Incorrect number of parameters', 0aH
	DB	00H
$SG171222 DB	'parse_conf_stmt', 00H
$SG171223 DB	'ctc_ptp.c', 00H
	ORG $+2
$SG171620 DB	'In HX2', 00H
	ORG $+1
$SG171745 DB	'W', 00H
	ORG $+2
$SG171226 DB	'IP address', 00H
	ORG $+1
$SG171756 DB	'W', 00H
	ORG $+2
$SG171228 DB	'HHC00916%s %1d:%04X %s: Option %s value %s invalid', 0aH
	DB	00H
$SG171766 DB	'W', 00H
	ORG $+2
$SG171229 DB	'parse_conf_stmt', 00H
$SG171230 DB	'ctc_ptp.c', 00H
	ORG $+2
$SG171736 DB	'PUS_01', 00H
	ORG $+1
$SG171782 DB	'W', 00H
	ORG $+2
$SG171241 DB	'IP address', 00H
	ORG $+1
$SG171789 DB	'W', 00H
	ORG $+2
$SG171243 DB	'HHC00916%s %1d:%04X %s: Option %s value %s invalid', 0aH
	DB	00H
$SG171800 DB	'W', 00H
	ORG $+2
$SG171244 DB	'parse_conf_stmt', 00H
$SG171245 DB	'ctc_ptp.c', 00H
	ORG $+2
$SG171743 DB	'PUS_02', 00H
	ORG $+1
$SG171810 DB	'W', 00H
	ORG $+2
$SG171249 DB	'Prefix size specification moved from guest to drive', 00H
$SG171824 DB	'I', 00H
	ORG $+2
$SG171251 DB	'HHC03991%s %1d:%04X %s: %s', 0aH, 00H
$SG171829 DB	'I', 00H
	ORG $+2
$SG171252 DB	'parse_conf_stmt', 00H
$SG171253 DB	'ctc_ptp.c', 00H
	ORG $+2
$SG171754 DB	'PUS_04', 00H
	ORG $+1
$SG171834 DB	'I', 00H
	ORG $+2
$SG171254 DB	'IP address', 00H
	ORG $+1
$SG171839 DB	'PUK', 00H
$SG171256 DB	'HHC00916%s %1d:%04X %s: Option %s value %s invalid', 0aH
	DB	00H
$SG171840 DB	'W', 00H
	ORG $+2
$SG171257 DB	'parse_conf_stmt', 00H
$SG171258 DB	'ctc_ptp.c', 00H
	ORG $+2
$SG171764 DB	'PUS_08', 00H
	ORG $+1
$SG172163 DB	'PUK', 00H
$SG171259 DB	'IP address', 00H
	ORG $+1
$SG172164 DB	'W', 00H
	ORG $+2
$SG171261 DB	'HHC00916%s %1d:%04X %s: Option %s value %s invalid', 0aH
	DB	00H
$SG172258 DB	'I', 00H
	ORG $+2
$SG171262 DB	'parse_conf_stmt', 00H
$SG171263 DB	'ctc_ptp.c', 00H
	ORG $+2
$SG171780 DB	'PUS_01', 00H
	ORG $+1
$SG172266 DB	'I', 00H
	ORG $+2
$SG171266 DB	'IP address', 00H
	ORG $+1
$SG172272 DB	'I', 00H
	ORG $+2
$SG171268 DB	'HHC00916%s %1d:%04X %s: Option %s value %s invalid', 0aH
	DB	00H
$SG172287 DB	'E', 00H
	ORG $+2
$SG171269 DB	'parse_conf_stmt', 00H
$SG171270 DB	'ctc_ptp.c', 00H
	ORG $+2
$SG171787 DB	'PUS_02', 00H
	ORG $+1
$SG172295 DB	'E', 00H
	ORG $+2
$SG171274 DB	'IP address', 00H
	ORG $+1
$SG172302 DB	'I', 00H
	ORG $+2
$SG171276 DB	'HHC00916%s %1d:%04X %s: Option %s value %s invalid', 0aH
	DB	00H
$SG172319 DB	'E', 00H
	ORG $+2
$SG171277 DB	'parse_conf_stmt', 00H
$SG171278 DB	'ctc_ptp.c', 00H
	ORG $+2
$SG171798 DB	'PUS_04', 00H
	ORG $+1
$SG172327 DB	'W', 00H
	ORG $+2
$SG171285 DB	'prefix size', 00H
$SG172336 DB	'I', 00H
	ORG $+2
$SG171287 DB	'HHC00916%s %1d:%04X %s: Option %s value %s invalid', 0aH
	DB	00H
$SG172342 DB	'I', 00H
	ORG $+2
$SG171288 DB	'parse_conf_stmt', 00H
$SG171289 DB	'ctc_ptp.c', 00H
	ORG $+2
$SG171808 DB	'PUS_08', 00H
	ORG $+1
$SG172351 DB	'I', 00H
	ORG $+2
$SG171292 DB	'prefix size', 00H
$SG172362 DB	'I', 00H
	ORG $+2
$SG171294 DB	'HHC00916%s %1d:%04X %s: Option %s value %s invalid', 0aH
	DB	00H
$SG172368 DB	'I', 00H
	ORG $+2
$SG171295 DB	'parse_conf_stmt', 00H
$SG171296 DB	'ctc_ptp.c', 00H
	ORG $+2
$SG172388 DB	'I', 00H
	ORG $+2
$SG171301 DB	'prefix size', 00H
$SG172397 DB	'I', 00H
	ORG $+2
$SG171303 DB	'HHC00916%s %1d:%04X %s: Option %s value %s invalid', 0aH
	DB	00H
$SG172403 DB	'I', 00H
	ORG $+2
$SG171304 DB	'parse_conf_stmt', 00H
$SG171305 DB	'ctc_ptp.c', 00H
	ORG $+2
$SG172408 DB	'PIX', 00H
$SG171308 DB	'prefix size', 00H
$SG172409 DB	'W', 00H
	ORG $+2
$SG171310 DB	'HHC00916%s %1d:%04X %s: Option %s value %s invalid', 0aH
	DB	00H
$SG173040 DB	'PTP', 00H
$SG171311 DB	'parse_conf_stmt', 00H
$SG171312 DB	'ctc_ptp.c', 00H
	ORG $+2
$SG173014 DB	'DEVBLK', 00H
	ORG $+5
$SG171325 DB	'%2.2X:%2.2X:%2.2X:%2.2X:%2.2X:%2.2X', 00H
$SG171369 DB	'1280', 00H
	ORG $+7
$SG171332 DB	'HHC03965%s %id:%04X %s: Preconfigured interface %s does '
	DB	'not exist or is not accessible by Hercules', 0aH, 00H
	ORG $+4
$SG171333 DB	'get_preconfigured_value', 00H
$SG171334 DB	'ctc_ptp.c', 00H
	ORG $+6
$SG171349 DB	'HHC03901%s %1d:%04X PTP: Guest and driver IP addresses a'
	DB	're the same', 0aH, 00H
	ORG $+3
$SG171350 DB	'check_specified_value', 00H
	ORG $+2
$SG171351 DB	'ctc_ptp.c', 00H
	ORG $+6
$SG171354 DB	'HHC03901%s %1d:%04X PTP: Guest and driver IP addresses a'
	DB	're the same', 0aH, 00H
	ORG $+3
$SG171355 DB	'check_specified_value', 00H
	ORG $+2
$SG171356 DB	'ctc_ptp.c', 00H
	ORG $+6
$SG171361 DB	'HHC03902%s %1d:%04X PTP: Inet6 not supported', 0aH, 00H
	ORG $+2
$SG171362 DB	'check_specified_value', 00H
	ORG $+2
$SG171363 DB	'ctc_ptp.c', 00H
	ORG $+6
$SG171367 DB	'check_specified_value', 00H
	ORG $+2
$SG171366 DB	'HHC03918%s %1d:%04X PTP: MTU changed from size %d bytes '
	DB	'to size %d bytes', 0aH, 00H
	ORG $+6
$SG171368 DB	'ctc_ptp.c', 00H
	ORG $+6
$SG171387 DB	'ctc_ptp.c:3784', 00H
	ORG $+1
$SG171389 DB	'ctc_ptp.c:3795', 00H
	ORG $+1
$SG171392 DB	'No storage available!', 00H
	ORG $+2
$SG171394 DB	'HHC00102%s Error in function create_thread(): %s', 0aH, 00H
	ORG $+6
$SG171395 DB	'raise_unsol_int', 00H
$SG171396 DB	'ctc_ptp.c', 00H
	ORG $+6
$SG171397 DB	'%s %4.4X UnsolIntThread', 00H
$SG171398 DB	'ctc_ptp.c:3821', 00H
	ORG $+1
$SG171401 DB	'HHC00102%s Error in function create_thread(): %s', 0aH, 00H
	ORG $+6
$SG171402 DB	'raise_unsol_int', 00H
$SG171403 DB	'ctc_ptp.c', 00H
	ORG $+6
$SG171426 DB	'ctc_ptp.c:3874', 00H
	ORG $+1
$SG171427 DB	'ctc_ptp.c:3879', 00H
	ORG $+1
$SG171428 DB	'ctc_ptp.c:3882', 00H
	ORG $+1
$SG171431 DB	'HHC03994%s %1d:%04X %s: Status %02X', 0aH, 00H
	ORG $+3
$SG171432 DB	'ptp_unsol_int_thread', 00H
	ORG $+3
$SG171433 DB	'ctc_ptp.c', 00H
	ORG $+6
$SG171436 DB	'ctc_ptp.c:3919', 00H
	ORG $+1
$SG171437 DB	'ctc_ptp.c:3924', 00H
	ORG $+1
$SG171438 DB	'ctc_ptp.c:3927', 00H
	ORG $+1
$SG171440 DB	'ctc_ptp.c:3937', 00H
	ORG $+1
$SG171441 DB	'ctc_ptp.c:3944', 00H
	ORG $+1
$SG171448 DB	'ctc_ptp.c:3962', 00H
	ORG $+1
$SG171449 DB	'ctc_ptp.c:3968', 00H
	ORG $+1
$SG171458 DB	'ctc_ptp.c:3998', 00H
	ORG $+1
$SG171459 DB	'ctc_ptp.c:4002', 00H
	ORG $+1
$SG171490 DB	'ctc_ptp.c:4060', 00H
	ORG $+1
$SG171495 DB	'HHC03916%s %1d:%04X PTP: Connection cleared to guest IP '
	DB	'address %s', 0aH, 00H
	ORG $+4
$SG171496 DB	'write_hx0_01', 00H
	ORG $+3
$SG171497 DB	'ctc_ptp.c', 00H
	ORG $+6
$SG171501 DB	'write_hx0_01', 00H
	ORG $+3
$SG171508 DB	'ctc_ptp.c:4099', 00H
	ORG $+1
$SG171661 DB	'Out HX0', 00H
$SG171500 DB	'HHC03916%s %1d:%04X PTP: Connection cleared to guest IP '
	DB	'address %s', 0aH, 00H
	ORG $+4
$SG171502 DB	'ctc_ptp.c', 00H
	ORG $+6
$SG171506 DB	'write_hx0_01', 00H
	ORG $+3
$SG171509 DB	'ctc_ptp.c:4116', 00H
	ORG $+1
$SG171662 DB	'Out HX2', 00H
$SG171505 DB	'HHC03916%s %1d:%04X PTP: Connection cleared to guest IP '
	DB	'address %s', 0aH, 00H
	ORG $+4
$SG171507 DB	'ctc_ptp.c', 00H
	ORG $+6
$SG171512 DB	'ctc_ptp.c:4149', 00H
	ORG $+1
$SG171624 DB	'ctc_ptp.c:4289', 00H
	ORG $+1
$SG171737 DB	'PUK (CM_ENABLE)', 00H
$SG171765 DB	'PUK (CM_CONFIRM)', 00H
	ORG $+7
$SG171627 DB	'HHC03917%s %1d:%04X PTP: Guest read and write paths mis-'
	DB	'configured', 0aH, 00H
	ORG $+4
$SG171628 DB	'write_hx2', 00H
	ORG $+6
$SG171629 DB	'ctc_ptp.c', 00H
	ORG $+6
$SG171632 DB	'ctc_ptp.c:4316', 00H
	ORG $+1
$SG171636 DB	'ctc_ptp.c:4376', 00H
	ORG $+1
$SG171744 DB	'PUK (CM_ENABLE)', 00H
$SG171781 DB	'PUK (ULP_ENABLE)', 00H
	ORG $+7
$SG171638 DB	'HHC03910%s %1d:%04X PTP: Hercules has maximum read lengt'
	DB	'h of size %d bytes and actual MTU of size %d bytes', 0aH, 00H
	ORG $+4
$SG171639 DB	'write_hx2', 00H
	ORG $+6
$SG171640 DB	'ctc_ptp.c', 00H
	ORG $+6
$SG171642 DB	'HHC03911%s %1d:%04X PTP: Guest has maximum read length o'
	DB	'f size %d bytes and actual MTU of size %d bytes', 0aH, 00H
	ORG $+7
$SG171643 DB	'write_hx2', 00H
	ORG $+6
$SG171644 DB	'ctc_ptp.c', 00H
	ORG $+6
$SG171645 DB	'ctc_ptp.c:4411', 00H
	ORG $+1
$SG171734 DB	'In RRH 0x417E (Issuer) PUK 0x4102 (CM_ENABLE)', 00H
	ORG $+2
$SG171739 DB	'HHC03937%s %1d:%04X PTP: Accept data contains %s that do'
	DB	'es not contain expected %s', 0aH, 00H
	ORG $+4
$SG171740 DB	'write_rrh_417E', 00H
	ORG $+1
$SG171741 DB	'ctc_ptp.c', 00H
	ORG $+6
$SG171747 DB	'write_rrh_417E', 00H
	ORG $+1
$SG171775 DB	'In RRH 0x417E (Issuer) PUK 0x4105 (CM_TAKEDOWN)', 00H
$SG171788 DB	'PUK (ULP_ENABLE)', 00H
	ORG $+7
$SG171746 DB	'HHC03937%s %1d:%04X PTP: Accept data contains %s that do'
	DB	'es not contain expected %s', 0aH, 00H
	ORG $+4
$SG171748 DB	'ctc_ptp.c', 00H
	ORG $+6
$SG171752 DB	'In RRH 0x417E (Issuer) PUK 0x4104 (CM_SETUP)', 00H
	ORG $+3
$SG171755 DB	'PUK (CM_SETUP)', 00H
	ORG $+1
$SG171799 DB	'PUK (ULP_SETUP)', 00H
$SG171809 DB	'PUK (ULP_CONFIRM)', 00H
	ORG $+6
$SG171757 DB	'HHC03937%s %1d:%04X PTP: Accept data contains %s that do'
	DB	'es not contain expected %s', 0aH, 00H
	ORG $+4
$SG171758 DB	'write_rrh_417E', 00H
	ORG $+1
$SG171759 DB	'ctc_ptp.c', 00H
	ORG $+6
$SG171762 DB	'In RRH 0x417E (Issuer) PUK 0x4106 (CM_CONFIRM)', 00H
	ORG $+1
$SG171806 DB	'In RRH 0x417E (CmComm) PUK 0x4106 (ULP_CONFIRM)', 00H
$SG171822 DB	'In RRH 0x417E (CmComm) PUK 0x4105 (ULP_TAKEDOWN)', 00H
	ORG $+7
$SG171767 DB	'HHC03937%s %1d:%04X PTP: Accept data contains %s that do'
	DB	'es not contain expected %s', 0aH, 00H
	ORG $+4
$SG171768 DB	'write_rrh_417E', 00H
	ORG $+1
$SG171769 DB	'ctc_ptp.c', 00H
	ORG $+6
$SG171772 DB	'In RRH 0x417E (Issuer) PUK 0x4103 (CM_DISABLE)', 00H
	ORG $+1
$SG171778 DB	'In RRH 0x417E (CmComm) PUK 0x4102 (ULP_ENABLE)', 00H
	ORG $+1
$SG171819 DB	'In RRH 0x417E (CmComm) PUK 0x4103 (ULP_DISABLE)', 00H
$SG172102 DB	'Out RRH 0x417E (CmComm) PUK 0x4106 (ULP_CONFIRM)', 00H
	ORG $+7
$SG171783 DB	'HHC03937%s %1d:%04X PTP: Accept data contains %s that do'
	DB	'es not contain expected %s', 0aH, 00H
	ORG $+4
$SG171784 DB	'write_rrh_417E', 00H
	ORG $+1
$SG171785 DB	'ctc_ptp.c', 00H
	ORG $+6
$SG171791 DB	'write_rrh_417E', 00H
	ORG $+1
$SG171967 DB	'Out RRH 0x417E (Issuer) PUK 0x4106 (CM_CONFIRM)', 00H
$SG172161 DB	'In RRH 0xC17E (Issuer)', 00H
	ORG $+1
$SG171790 DB	'HHC03937%s %1d:%04X PTP: Accept data contains %s that do'
	DB	'es not contain expected %s', 0aH, 00H
	ORG $+4
$SG171792 DB	'ctc_ptp.c', 00H
	ORG $+6
$SG171796 DB	'In RRH 0x417E (CmComm) PUK 0x4104 (ULP_SETUP)', 00H
	ORG $+2
$SG171802 DB	'write_rrh_417E', 00H
	ORG $+1
$SG172020 DB	'Out RRH 0x417E (CmComm) PUK 0x4102 (ULP_ENABLE)', 00H
$SG172279 DB	'In RRH 0xC108 (UlpComm) My address IPv4', 00H
$SG171801 DB	'HHC03937%s %1d:%04X PTP: Accept data contains %s that do'
	DB	'es not contain expected %s', 0aH, 00H
	ORG $+4
$SG171803 DB	'ctc_ptp.c', 00H
	ORG $+6
$SG171812 DB	'write_rrh_417E', 00H
	ORG $+1
$SG172296 DB	'HHC03913%s %1d:%04X PTP: Guest has IP address %s', 0aH, 00H
	ORG $+6
$SG171811 DB	'HHC03937%s %1d:%04X PTP: Accept data contains %s that do'
	DB	'es not contain expected %s', 0aH, 00H
	ORG $+4
$SG171813 DB	'ctc_ptp.c', 00H
	ORG $+6
$SG171816 DB	'In RRH 0x417E (CmComm) PUK 0x4360 (DM_ACT)', 00H
	ORG $+5
$SG171826 DB	'write_rrh_417E', 00H
	ORG $+1
$SG172308 DB	'In RRH 0xC108 (UlpComm) My address IPv6', 00H
$SG171825 DB	'HHC03916%s %1d:%04X PTP: Connection cleared to guest IP '
	DB	'address %s', 0aH, 00H
	ORG $+4
$SG171827 DB	'ctc_ptp.c', 00H
	ORG $+6
$SG171831 DB	'write_rrh_417E', 00H
	ORG $+1
$SG172328 DB	'HHC03914%s %1d:%04X PTP: Guest has IP address %s', 0aH, 00H
	ORG $+6
$SG171830 DB	'HHC03916%s %1d:%04X PTP: Connection cleared to guest IP '
	DB	'address %s', 0aH, 00H
	ORG $+4
$SG171832 DB	'ctc_ptp.c', 00H
	ORG $+6
$SG171836 DB	'write_rrh_417E', 00H
	ORG $+1
$SG172859 DB	'Out RRH 0x8108 (UlpComm) Group membership report', 00H
	ORG $+7
$SG171835 DB	'HHC03916%s %1d:%04X PTP: Connection cleared to guest IP '
	DB	'address %s', 0aH, 00H
	ORG $+4
$SG171837 DB	'ctc_ptp.c', 00H
	ORG $+6
$SG171841 DB	'HHC03936%s %1d:%04X PTP: Accept data contains unknown %s'
	DB	0aH, 00H
	ORG $+6
$SG171842 DB	'write_rrh_417E', 00H
	ORG $+1
$SG171843 DB	'ctc_ptp.c', 00H
	ORG $+6
$SG171893 DB	'Out RRH 0x417E (Issuer) PUK 0x4102 (CM_ENABLE)', 00H
	ORG $+1
$SG171930 DB	'Out RRH 0x417E (Issuer) PUK 0x4104 (CM_SETUP)', 00H
	ORG $+2
$SG172061 DB	'Out RRH 0x417E (CmComm) PUK 0x4104 (ULP_SETUP)', 00H
	ORG $+1
$SG172135 DB	'Out RRH 0x417E (CmComm) PUK 0x4360 (DM_ACT)', 00H
	ORG $+4
$SG172165 DB	'HHC03936%s %1d:%04X PTP: Accept data contains unknown %s'
	DB	0aH, 00H
	ORG $+6
$SG172166 DB	'write_rrh_C17E', 00H
	ORG $+1
$SG172167 DB	'ctc_ptp.c', 00H
	ORG $+6
$SG172241 DB	'In RRH 0xC108 (UlpComm) Will you start IPv4?', 00H
	ORG $+3
$SG172248 DB	'In RRH 0xC108 (UlpComm) Will you start IPv6?', 00H
	ORG $+3
$SG172256 DB	'In RRH 0xC108 (UlpComm) I will start IPv4', 00H
	ORG $+6
$SG172260 DB	'write_rrh_C108', 00H
	ORG $+1
$SG172862 DB	'Out RRH 0x8108 (UlpComm) Group membership report', 00H
	ORG $+7
$SG172259 DB	'HHC03915%s %1d:%04X PTP: Connection active to guest IP a'
	DB	'ddress %s', 0aH, 00H
	ORG $+5
$SG172261 DB	'ctc_ptp.c', 00H
	ORG $+6
$SG172264 DB	'In RRH 0xC108 (UlpComm) I will start IPv6', 00H
	ORG $+6
$SG172268 DB	'write_rrh_C108', 00H
	ORG $+1
$SG173016 DB	'SDL 4.2', 00H
$SG172267 DB	'HHC03915%s %1d:%04X PTP: Connection active to guest IP a'
	DB	'ddress %s', 0aH, 00H
	ORG $+5
$SG172269 DB	'ctc_ptp.c', 00H
	ORG $+6
$SG172274 DB	'write_rrh_C108', 00H
	ORG $+1
$SG173017 DB	'SYSBLK', 00H
	ORG $+1
$SG172273 DB	'HHC03915%s %1d:%04X PTP: Connection active to guest IP a'
	DB	'ddress %s', 0aH, 00H
	ORG $+5
$SG172275 DB	'ctc_ptp.c', 00H
	ORG $+6
$SG172288 DB	'HHC03912%s %1d:%04X PTP: Guest has the driver IP address'
	DB	' %s', 0aH, 00H
	ORG $+3
$SG172289 DB	'write_rrh_C108', 00H
	ORG $+1
$SG172290 DB	'ctc_ptp.c', 00H
	ORG $+6
$SG172297 DB	'write_rrh_C108', 00H
	ORG $+1
$SG172298 DB	'ctc_ptp.c', 00H
	ORG $+6
$SG172304 DB	'write_rrh_C108', 00H
	ORG $+1
$SG173020 DB	'REGS', 00H
	ORG $+3
$SG172303 DB	'HHC03915%s %1d:%04X PTP: Connection active to guest IP a'
	DB	'ddress %s', 0aH, 00H
	ORG $+5
$SG172305 DB	'ctc_ptp.c', 00H
	ORG $+6
$SG172320 DB	'HHC03912%s %1d:%04X PTP: Guest has the driver IP address'
	DB	' %s', 0aH, 00H
	ORG $+3
$SG172321 DB	'write_rrh_C108', 00H
	ORG $+1
$SG172322 DB	'ctc_ptp.c', 00H
	ORG $+6
$SG172329 DB	'write_rrh_C108', 00H
	ORG $+1
$SG172330 DB	'ctc_ptp.c', 00H
	ORG $+6
$SG172338 DB	'write_rrh_C108', 00H
	ORG $+1
$SG173034 DB	'debug_tt32_stats', 00H
	ORG $+7
$SG172337 DB	'HHC03915%s %1d:%04X PTP: Connection active to guest IP a'
	DB	'ddress %s', 0aH, 00H
	ORG $+5
$SG172339 DB	'ctc_ptp.c', 00H
	ORG $+6
$SG172344 DB	'write_rrh_C108', 00H
	ORG $+1
$SG173035 DB	'debug_tt32_tracing', 00H
	ORG $+5
$SG172343 DB	'HHC03915%s %1d:%04X PTP: Connection active to guest IP a'
	DB	'ddress %s', 0aH, 00H
	ORG $+5
$SG172345 DB	'ctc_ptp.c', 00H
	ORG $+6
$SG172349 DB	'In RRH 0xC108 (UlpComm) Your address IPv4', 00H
	ORG $+6
$SG172353 DB	'write_rrh_C108', 00H
	ORG $+9
$SG172352 DB	'HHC03915%s %1d:%04X PTP: Connection active to guest IP a'
	DB	'ddress %s', 0aH, 00H
	ORG $+5
$SG172354 DB	'ctc_ptp.c', 00H
	ORG $+6
$SG172357 DB	'In RRH 0xC108 (UlpComm) Your address IPv6', 00H
	ORG $+14
$SG172363 DB	'HHC03915%s %1d:%04X PTP: Connection active to guest IP a'
	DB	'ddress %s', 0aH, 00H
	ORG $+5
$SG172364 DB	'write_rrh_C108', 00H
	ORG $+1
$SG172365 DB	'ctc_ptp.c', 00H
	ORG $+14
$SG172369 DB	'HHC03915%s %1d:%04X PTP: Connection active to guest IP a'
	DB	'ddress %s', 0aH, 00H
	ORG $+5
$SG172370 DB	'write_rrh_C108', 00H
	ORG $+1
$SG172371 DB	'ctc_ptp.c', 00H
	ORG $+6
$SG172375 DB	'In RRH 0xC108 (UlpComm) Will you stop IPv4?', 00H
	ORG $+4
$SG172380 DB	'In RRH 0xC108 (UlpComm) Will you stop IPv6?', 00H
	ORG $+4
$SG172385 DB	'In RRH 0xC108 (UlpComm) I will stop IPv4', 00H
	ORG $+15
$SG172389 DB	'HHC03916%s %1d:%04X PTP: Connection cleared to guest IP '
	DB	'address %s', 0aH, 00H
	ORG $+4
$SG172390 DB	'write_rrh_C108', 00H
	ORG $+1
$SG172391 DB	'ctc_ptp.c', 00H
	ORG $+6
$SG172394 DB	'In RRH 0xC108 (UlpComm) I will stop IPv6', 00H
	ORG $+15
$SG172398 DB	'HHC03916%s %1d:%04X PTP: Connection cleared to guest IP '
	DB	'address %s', 0aH, 00H
	ORG $+4
$SG172399 DB	'write_rrh_C108', 00H
	ORG $+1
$SG172400 DB	'ctc_ptp.c', 00H
	ORG $+14
$SG172404 DB	'HHC03916%s %1d:%04X PTP: Connection cleared to guest IP '
	DB	'address %s', 0aH, 00H
	ORG $+4
$SG172405 DB	'write_rrh_C108', 00H
	ORG $+1
$SG172406 DB	'ctc_ptp.c', 00H
	ORG $+6
$SG172410 DB	'HHC03936%s %1d:%04X PTP: Accept data contains unknown %s'
	DB	0aH, 00H
	ORG $+6
$SG172411 DB	'write_rrh_C108', 00H
	ORG $+1
$SG172412 DB	'ctc_ptp.c', 00H
	ORG $+6
$SG172439 DB	'Out RRH 0xC108 (UlpComm) Will you start IPv4?', 00H
	ORG $+2
$SG172466 DB	'Out RRH 0xC108 (UlpComm) Will you start IPv6?', 00H
	ORG $+2
$SG172497 DB	'Out RRH 0xC108 (UlpComm) I will start IPv4', 00H
	ORG $+5
$SG172528 DB	'Out RRH 0xC108 (UlpComm) I will start IPv6', 00H
	ORG $+5
$SG172555 DB	'Out RRH 0xC108 (UlpComm) My address IPv4', 00H
	ORG $+7
$SG172586 DB	'Out RRH 0xC108 (UlpComm) My address IPv6', 00H
	ORG $+7
$SG172617 DB	'Out RRH 0xC108 (UlpComm) Your address IPv4', 00H
	ORG $+5
$SG172648 DB	'Out RRH 0xC108 (UlpComm) Your address IPv6', 00H
	ORG $+5
$SG172675 DB	'Out RRH 0xC108 (UlpComm) Will you stop IPv4?', 00H
	ORG $+3
$SG172702 DB	'Out RRH 0xC108 (UlpComm) Will you stop IPv6?', 00H
	ORG $+3
$SG172731 DB	'Out RRH 0xC108 (UlpComm) I will stop IPv4', 00H
	ORG $+6
$SG172760 DB	'Out RRH 0xC108 (UlpComm) I will stop IPv6', 00H
	ORG $+6
$SG172850 DB	'Out RRH 0x8108 (UlpComm) Neighbor advertisment', 00H
	ORG $+1
$SG172853 DB	'Out RRH 0x8108 (UlpComm) Router solicitation', 00H
	ORG $+3
$SG172856 DB	'Out RRH 0x8108 (UlpComm) Neighbor advertisment', 00H
	ORG $+1
$SG173010 DB	'SDL 4.60', 00H
	ORG $+7
$SG173011 DB	'HERCULES', 00H
	ORG $+7
$SG173013 DB	'SDL 4.00', 00H
	ORG $+7
$SG173019 DB	'SDL 4.00', 00H
_DATA	ENDS
voltbl	SEGMENT
_volmd	DD	0ffffffffH
	DDSymXIndex: 	FLAT:calculate_icmpv6_checksum
	DD	022H
	DD	024bH
_volmd	DD	0ffffffffH
	DDSymXIndex: 	FLAT:gen_csv_sid
	DD	020H
	DD	09f14H
_volmd	DD	0ffffffffH
	DDSymXIndex: 	FLAT:write_rrh_C108
	DD	022H
	DD	020aeH
_volmd	DD	0ffffffffH
	DDSymXIndex: 	FLAT:build_417E_ulp_confirm
	DD	01dH
	DD	058bH
_volmd	DD	0ffffffffH
	DDSymXIndex: 	FLAT:build_417E_ulp_setup
	DD	01dH
	DD	058bH
_volmd	DD	0ffffffffH
	DDSymXIndex: 	FLAT:build_417E_cm_confirm
	DD	01bH
	DD	0478H
_volmd	DD	0ffffffffH
	DDSymXIndex: 	FLAT:build_417E_cm_setup
	DD	01bH
	DD	0478H
_volmd	DD	0ffffffffH
	DDSymXIndex: 	FLAT:build_417E_cm_enable
	DD	025H
	DD	0689H
_volmd	DD	0ffffffffH
	DDSymXIndex: 	FLAT:get_subarea_address
	DD	015H
	DD	0145H
_volmd	DD	0ffffffffH
	DDSymXIndex: 	FLAT:ptp_get_tod_clock
	DD	015H
	DD	0ecH
_volmd	DD	0ffffffffH
	DDSymXIndex: 	FLAT:ptp_unsol_int_thread
	DD	016H
	DD	03e1H
_volmd	DD	0ffffffffH
	DDSymXIndex: 	FLAT:raise_unsol_int
	DD	01fH
	DD	0247H
_volmd	DD	0ffffffffH
	DDSymXIndex: 	FLAT:check_specified_value
	DD	01dH
	DD	0478H
_volmd	DD	0ffffffffH
	DDSymXIndex: 	FLAT:parse_conf_stmt
	DD	02dH
	DD	01f07H
_volmd	DD	0ffffffffH
	DDSymXIndex: 	FLAT:alloc_storage
	DD	01bH
	DD	0147H
_volmd	DD	0ffffffffH
	DDSymXIndex: 	FLAT:alloc_ptp_buffer
	DD	01bH
	DD	015bH
_volmd	DD	0ffffffffH
	DDSymXIndex: 	FLAT:ptp_read_thread
	DD	018H
	DD	0fa4H
_volmd	DD	0ffffffffH
	DDSymXIndex: 	FLAT:ptp_read
	DD	025H
	DD	0449H
_volmd	DD	0ffffffffH
	DDSymXIndex: 	FLAT:write_rrh_8108
	DD	022H
	DD	0c2cH
_volmd	DD	0ffffffffH
	DDSymXIndex: 	FLAT:ptp_query
	DD	025H
	DD	04adH
_volmd	DD	0ffffffffH
	DDSymXIndex: 	FLAT:ptp_init
	DD	020H
	DD	013dbH
voltbl	ENDS
;	COMDAT xdata
xdata	SEGMENT
$unwind$fetch_dw_noswap DD 010901H
	DD	02209H
xdata	ENDS
;	COMDAT xdata
xdata	SEGMENT
$unwind$store_f3_noswap DD 020b01H
	DD	0600a700bH
xdata	ENDS
;	COMDAT xdata
xdata	SEGMENT
$unwind$fetch_f3_noswap DD 030b01H
	DD	07007220bH
	DD	06006H
xdata	ENDS
;	COMDAT xdata
xdata	SEGMENT
$unwind$fetch_fw_noswap DD 010901H
	DD	02209H
xdata	ENDS
;	COMDAT xdata
xdata	SEGMENT
$unwind$fetch_hw_noswap DD 010901H
	DD	02209H
xdata	ENDS
xdata	SEGMENT
$unwind$DebuggerTrace DD 011801H
	DD	0a218H
$unwind$SetSIDInfo DD 021a01H
	DD	07016121aH
$unwind$ptp_init DD 032819H
	DD	0340116H
	DD	0700fH
	DD	imagerel __GSHandlerCheck
	DD	0198H
$unwind$ptp_execute_ccw DD 041c01H
	DD	01b011cH
	DD	060147015H
$unwind$ptp_close DD 010901H
	DD	08209H
$unwind$ptp_query DD 022d19H
	DD	03b011bH
	DD	imagerel __GSHandlerCheck
	DD	01c0H
$unwind$ptp_write DD 021a01H
	DD	01b011aH
$unwind$write_th DD 021a01H
	DD	013011aH
$unwind$write_rrh_8108 DD 042a19H
	DD	0310118H
	DD	060107011H
	DD	imagerel __GSHandlerCheck
	DD	0170H
$unwind$ptp_halt_or_clear DD 010901H
	DD	06209H
$unwind$ptp_read DD 032d19H
	DD	016011bH
	DD	07014H
	DD	imagerel __GSHandlerCheck
	DD	0a0H
$unwind$read_read_buffer DD 041c01H
	DD	019011cH
	DD	060147015H
$unwind$read_chain_buffer DD 041c01H
	DD	017011cH
	DD	060147015H
$unwind$ptp_read_thread DD 042019H
	DD	035010eH
	DD	060067007H
	DD	imagerel __GSHandlerCheck
	DD	0190H
$unwind$add_buffer_to_chain_and_signal_event DD 010e01H
	DD	0620eH
$unwind$add_buffer_to_chain DD 010e01H
	DD	0420eH
$unwind$remove_buffer_from_chain DD 010901H
	DD	06209H
$unwind$remove_and_free_any_buffers_on_chain DD 010901H
	DD	06209H
$unwind$alloc_ptp_buffer DD 032319H
	DD	0180111H
	DD	0700aH
	DD	imagerel __GSHandlerCheck
	DD	0b0H
$unwind$alloc_storage DD 032319H
	DD	0180111H
	DD	0700aH
	DD	imagerel __GSHandlerCheck
	DD	0b0H
$unwind$parse_conf_stmt DD 043519H
	DD	04910123H
	DD	060157016H
	DD	imagerel __GSHandlerCheck
	DD	02470H
$unwind$get_preconfigured_value DD 010e01H
	DD	0e20eH
$unwind$check_specified_value DD 042519H
	DD	0150113H
	DD	0600b700cH
	DD	imagerel __GSHandlerCheck
	DD	098H
$unwind$raise_unsol_int DD 022719H
	DD	0130115H
	DD	imagerel __GSHandlerCheck
	DD	088H
$unwind$ptp_unsol_int_thread DD 021e19H
	DD	01b010cH
	DD	imagerel __GSHandlerCheck
	DD	0c0H
$unwind$ptp_get_tod_clock DD 031a19H
	DD	07007c20bH
	DD	06006H
	DD	imagerel __GSHandlerCheck
	DD	050H
$unwind$get_subarea_address DD 031a19H
	DD	07007e20bH
	DD	06006H
	DD	imagerel __GSHandlerCheck
	DD	060H
$unwind$write_hx0_01 DD 031b01H
	DD	012011bH
	DD	07014H
$unwind$write_hx0_00 DD 011701H
	DD	06217H
$unwind$write_hx2 DD 031b01H
	DD	024011bH
	DD	07014H
$unwind$point_CSVcv DD 010e01H
	DD	0420eH
$unwind$write_rrh_417E DD 021601H
	DD	0290116H
$unwind$build_417E_cm_enable DD 022d19H
	DD	015011bH
	DD	imagerel __GSHandlerCheck
	DD	098H
$unwind$build_417E_cm_setup DD 022319H
	DD	0150111H
	DD	imagerel __GSHandlerCheck
	DD	090H
$unwind$build_417E_cm_confirm DD 022319H
	DD	0150111H
	DD	imagerel __GSHandlerCheck
	DD	090H
$unwind$build_417E_ulp_enable DD 041d01H
	DD	013011dH
	DD	060157016H
$unwind$build_417E_ulp_setup DD 042519H
	DD	0150113H
	DD	0600b700cH
	DD	imagerel __GSHandlerCheck
	DD	098H
$unwind$build_417E_ulp_confirm DD 042519H
	DD	0150113H
	DD	0600b700cH
	DD	imagerel __GSHandlerCheck
	DD	098H
$unwind$build_417E_dm_act DD 021101H
	DD	0110111H
$unwind$write_rrh_C17E DD 021601H
	DD	0130116H
$unwind$write_rrh_C108 DD 042a19H
	DD	03d0118H
	DD	060107011H
	DD	imagerel __GSHandlerCheck
	DD	01d8H
$unwind$build_C108_will_you_start_4 DD 010901H
	DD	0e209H
$unwind$build_C108_will_you_start_6 DD 010901H
	DD	0e209H
$unwind$build_C108_i_will_start_4 DD 011401H
	DD	0e214H
$unwind$build_C108_i_will_start_6 DD 011401H
	DD	0e214H
$unwind$build_C108_my_address_4 DD 010901H
	DD	0e209H
$unwind$build_C108_my_address_6 DD 030f01H
	DD	0700be20fH
	DD	0600aH
$unwind$build_C108_your_address_4 DD 011401H
	DD	0e214H
$unwind$build_C108_your_address_6 DD 031601H
	DD	07012e216H
	DD	06011H
$unwind$build_C108_will_you_stop_4 DD 010901H
	DD	0e209H
$unwind$build_C108_will_you_stop_6 DD 010901H
	DD	0e209H
$unwind$build_C108_i_will_stop_4 DD 010e01H
	DD	0e20eH
$unwind$build_C108_i_will_stop_6 DD 010e01H
	DD	0e20eH
$unwind$build_8108_icmpv6_packets DD 040e01H
	DD	013010eH
	DD	060067007H
$unwind$gen_csv_sid DD 022819H
	DD	0290116H
	DD	imagerel __GSHandlerCheck
	DD	0138H
$unwind$shift_left_dbl DD 011301H
	DD	02213H
$unwind$shift_right_dbl DD 011301H
	DD	02213H
$unwind$calculate_icmpv6_checksum DD 042719H
	DD	0110118H
	DD	060107011H
	DD	imagerel __GSHandlerCheck
	DD	070H
$unwind$hdl_check_depends_ep DD 010901H
	DD	06209H
$unwind$hdl_register_symbols_ep DD 010901H
	DD	04209H
$unwind$hdl_define_devtypes_ep DD 010901H
	DD	04209H
xdata	ENDS
;	COMDAT xdata
xdata	SEGMENT
$unwind$_vsnprintf_s DD 011801H
	DD	06218H
xdata	ENDS
;	COMDAT xdata
xdata	SEGMENT
$unwind$_vsnprintf_s_l DD 011801H
	DD	0a218H
xdata	ENDS
; Function compile flags: /Odtp
; File C:\papa\MyGit\hyperion-zvector\ctc_ptp.c
_TEXT	SEGMENT
defdev$ = 48
hdl_define_devtypes_ep PROC

; 9662 : HDL_DEVICE_SECTION;

$LN3:
  00000	48 89 4c 24 08	 mov	 QWORD PTR [rsp+8], rcx
  00005	48 83 ec 28	 sub	 rsp, 40			; 00000028H

; 9663 : {
; 9664 :     HDL_DEVICE( PTP, ptp_device_hndinfo );

  00009	48 8d 15 00 00
	00 00		 lea	 rdx, OFFSET FLAT:ptp_device_hndinfo
  00010	48 8d 0d 00 00
	00 00		 lea	 rcx, OFFSET FLAT:$SG173040
  00017	ff 54 24 30	 call	 QWORD PTR defdev$[rsp]

; 9665 : }
; 9666 : END_DEVICE_SECTION

  0001b	48 83 c4 28	 add	 rsp, 40			; 00000028H
  0001f	c3		 ret	 0
hdl_define_devtypes_ep ENDP
_TEXT	ENDS
; Function compile flags: /Odtp
; File C:\papa\MyGit\hyperion-zvector\ctc_ptp.c
_TEXT	SEGMENT
regsym$ = 48
hdl_register_symbols_ep PROC

; 9645 : HDL_REGISTER_SECTION;

$LN3:
  00000	48 89 4c 24 08	 mov	 QWORD PTR [rsp+8], rcx
  00005	48 83 ec 28	 sub	 rsp, 40			; 00000028H

; 9646 : {
; 9647 :     //              Hercules's          Our
; 9648 :     //              registered          overriding
; 9649 :     //              entry-point         entry-point
; 9650 :     //              name                value
; 9651 : 
; 9652 :   #if defined( OPTION_W32_CTCI )
; 9653 :     HDL_REGISTER ( debug_tt32_stats,   display_tt32_stats        );

  00009	48 8d 15 00 00
	00 00		 lea	 rdx, OFFSET FLAT:display_tt32_stats
  00010	48 8d 0d 00 00
	00 00		 lea	 rcx, OFFSET FLAT:$SG173034
  00017	ff 54 24 30	 call	 QWORD PTR regsym$[rsp]

; 9654 :     HDL_REGISTER ( debug_tt32_tracing, enable_tt32_debug_tracing );

  0001b	48 8d 15 00 00
	00 00		 lea	 rdx, OFFSET FLAT:enable_tt32_debug_tracing
  00022	48 8d 0d 00 00
	00 00		 lea	 rcx, OFFSET FLAT:$SG173035
  00029	ff 54 24 30	 call	 QWORD PTR regsym$[rsp]

; 9655 :   #else
; 9656 :     UNREFERENCED( regsym );     // (HDL_REGISTER_SECTION parameter)
; 9657 :   #endif
; 9658 : }
; 9659 : END_REGISTER_SECTION

  0002d	48 83 c4 28	 add	 rsp, 40			; 00000028H
  00031	c3		 ret	 0
hdl_register_symbols_ep ENDP
_TEXT	ENDS
; Function compile flags: /Odtp
; File C:\papa\MyGit\hyperion-zvector\ctc_ptp.c
_TEXT	SEGMENT
getsym$ = 8
hdl_resolve_symbols_ep PROC

; 9631 : HDL_RESOLVER_SECTION;

  00000	48 89 4c 24 08	 mov	 QWORD PTR [rsp+8], rcx
$LN4@hdl_resolv:

; 9632 : {
; 9633 :    #if defined( WIN32 ) && !defined( _MSVC_ ) && !defined( HDL_USE_LIBTOOL )
; 9634 :      #undef sysblk
; 9635 :      HDL_RESOLVE_SYMPTR( psysblk, sysblk );
; 9636 :      HDL_RESOLVE( etod_clock );
; 9637 :      HDL_RESOLVE( device_attention );
; 9638 :    #else
; 9639 :      UNREFERENCED( getsym );    // (HDL_RESOLVER_SECTION parameter)

  00005	33 c0		 xor	 eax, eax
  00007	85 c0		 test	 eax, eax
  00009	75 fa		 jne	 SHORT $LN4@hdl_resolv

; 9640 :    #endif
; 9641 : }
; 9642 : END_RESOLVER_SECTION

  0000b	c3		 ret	 0
hdl_resolve_symbols_ep ENDP
_TEXT	ENDS
; Function compile flags: /Odtp
; File C:\papa\MyGit\hyperion-zvector\ctc_ptp.c
_TEXT	SEGMENT
depchk_rc$ = 32
depchk$ = 64
hdl_check_depends_ep PROC

; 9621 : HDL_DEPENDENCY_SECTION;

$LN19:
  00000	48 89 4c 24 08	 mov	 QWORD PTR [rsp+8], rcx
  00005	48 83 ec 38	 sub	 rsp, 56			; 00000038H
  00009	c7 44 24 20 00
	00 00 00	 mov	 DWORD PTR depchk_rc$[rsp], 0
$LN4@hdl_check_:

; 9622 : {
; 9623 :      HDL_DEPENDENCY( HERCULES );

  00011	41 b8 08 00 00
	00		 mov	 r8d, 8
  00017	48 8d 15 00 00
	00 00		 lea	 rdx, OFFSET FLAT:$SG173010
  0001e	48 8d 0d 00 00
	00 00		 lea	 rcx, OFFSET FLAT:$SG173011
  00025	ff 54 24 40	 call	 QWORD PTR depchk$[rsp]
  00029	85 c0		 test	 eax, eax
  0002b	74 08		 je	 SHORT $LN14@hdl_check_
  0002d	c7 44 24 20 01
	00 00 00	 mov	 DWORD PTR depchk_rc$[rsp], 1
$LN14@hdl_check_:
  00035	33 c0		 xor	 eax, eax
  00037	85 c0		 test	 eax, eax
  00039	75 d6		 jne	 SHORT $LN4@hdl_check_
$LN7@hdl_check_:

; 9624 :      HDL_DEPENDENCY( DEVBLK );

  0003b	41 b8 a0 1b 00
	00		 mov	 r8d, 7072		; 00001ba0H
  00041	48 8d 15 00 00
	00 00		 lea	 rdx, OFFSET FLAT:$SG173013
  00048	48 8d 0d 00 00
	00 00		 lea	 rcx, OFFSET FLAT:$SG173014
  0004f	ff 54 24 40	 call	 QWORD PTR depchk$[rsp]
  00053	85 c0		 test	 eax, eax
  00055	74 08		 je	 SHORT $LN15@hdl_check_
  00057	c7 44 24 20 01
	00 00 00	 mov	 DWORD PTR depchk_rc$[rsp], 1
$LN15@hdl_check_:
  0005f	33 c0		 xor	 eax, eax
  00061	85 c0		 test	 eax, eax
  00063	75 d6		 jne	 SHORT $LN7@hdl_check_
$LN10@hdl_check_:

; 9625 :      HDL_DEPENDENCY( SYSBLK );

  00065	41 b8 00 76 01
	00		 mov	 r8d, 95744		; 00017600H
  0006b	48 8d 15 00 00
	00 00		 lea	 rdx, OFFSET FLAT:$SG173016
  00072	48 8d 0d 00 00
	00 00		 lea	 rcx, OFFSET FLAT:$SG173017
  00079	ff 54 24 40	 call	 QWORD PTR depchk$[rsp]
  0007d	85 c0		 test	 eax, eax
  0007f	74 08		 je	 SHORT $LN16@hdl_check_
  00081	c7 44 24 20 01
	00 00 00	 mov	 DWORD PTR depchk_rc$[rsp], 1
$LN16@hdl_check_:
  00089	33 c0		 xor	 eax, eax
  0008b	85 c0		 test	 eax, eax
  0008d	75 d6		 jne	 SHORT $LN10@hdl_check_
$LN13@hdl_check_:

; 9626 :      HDL_DEPENDENCY( REGS );

  0008f	41 b8 80 60 01
	00		 mov	 r8d, 90240		; 00016080H
  00095	48 8d 15 00 00
	00 00		 lea	 rdx, OFFSET FLAT:$SG173019
  0009c	48 8d 0d 00 00
	00 00		 lea	 rcx, OFFSET FLAT:$SG173020
  000a3	ff 54 24 40	 call	 QWORD PTR depchk$[rsp]
  000a7	85 c0		 test	 eax, eax
  000a9	74 08		 je	 SHORT $LN17@hdl_check_
  000ab	c7 44 24 20 01
	00 00 00	 mov	 DWORD PTR depchk_rc$[rsp], 1
$LN17@hdl_check_:
  000b3	33 c0		 xor	 eax, eax
  000b5	85 c0		 test	 eax, eax
  000b7	75 d6		 jne	 SHORT $LN13@hdl_check_

; 9627 : }
; 9628 : END_DEPENDENCY_SECTION

  000b9	8b 44 24 20	 mov	 eax, DWORD PTR depchk_rc$[rsp]
  000bd	48 83 c4 38	 add	 rsp, 56			; 00000038H
  000c1	c3		 ret	 0
hdl_check_depends_ep ENDP
_TEXT	ENDS
; Function compile flags: /Odtp
; File C:\papa\MyGit\hyperion-zvector\ctc_ptp.c
_TEXT	SEGMENT
uChecksum$ = 32
i$ = 36
uTwobytes$ = 40
j$ = 44
uHighhalf$ = 48
pBytePtr$ = 56
$T1 = 64
bPseudoHeader$ = 72
__$ArrayPad$ = 112
pIP6FRM$ = 160
pIcmpHdr$ = 168
iIcmpLen$ = 176
calculate_icmpv6_checksum PROC

; 9541 : {

  00000	44 89 44 24 18	 mov	 DWORD PTR [rsp+24], r8d
  00005	48 89 54 24 10	 mov	 QWORD PTR [rsp+16], rdx
  0000a	48 89 4c 24 08	 mov	 QWORD PTR [rsp+8], rcx
  0000f	56		 push	 rsi
  00010	57		 push	 rdi
  00011	48 81 ec 88 00
	00 00		 sub	 rsp, 136		; 00000088H
  00018	48 8b 05 00 00
	00 00		 mov	 rax, QWORD PTR __security_cookie
  0001f	48 33 c4	 xor	 rax, rsp
  00022	48 89 44 24 70	 mov	 QWORD PTR __$ArrayPad$[rsp], rax

; 9542 :     BYTE*      pBytePtr;
; 9543 :     int        i,j;
; 9544 :     U16        uTwobytes;            // Two bytes of data
; 9545 :     U32        uHighhalf;            // High-order half of the checksum
; 9546 :     U32        uChecksum;            // The checksum
; 9547 :     BYTE       bPseudoHeader[40];    //  0-15  Source address
; 9548 :                                      // 16-31  Destination address
; 9549 :                                      // 32-35  Upper-layer packet length
; 9550 :                                      // 36-38  zero
; 9551 :                                      //   39   Next Header (i.e. 58 (0x3a))
; 9552 : 
; 9553 : 
; 9554 :     // Clear the checksum in the ICMP header before calculating the checksum.
; 9555 :     STORE_HW( pIcmpHdr+2, 0x0000 );

  00027	33 c9		 xor	 ecx, ecx
  00029	e8 00 00 00 00	 call	 _byteswap_ushort
  0002e	48 8b 8c 24 a8
	00 00 00	 mov	 rcx, QWORD PTR pIcmpHdr$[rsp]
  00036	48 83 c1 02	 add	 rcx, 2
  0003a	0f b7 d0	 movzx	 edx, ax
  0003d	e8 00 00 00 00	 call	 store_hw_noswap

; 9556 : 
; 9557 :     // Construct the Psuedo-Header for the checksum calcuation.
; 9558 :     memcpy( bPseudoHeader+0, pIP6FRM->bSrcAddr, 16 );

  00042	48 8d 44 24 48	 lea	 rax, QWORD PTR bPseudoHeader$[rsp]
  00047	48 8b 8c 24 a0
	00 00 00	 mov	 rcx, QWORD PTR pIP6FRM$[rsp]
  0004f	48 8b f8	 mov	 rdi, rax
  00052	48 8d 71 08	 lea	 rsi, QWORD PTR [rcx+8]
  00056	b9 10 00 00 00	 mov	 ecx, 16
  0005b	f3 a4		 rep movsb

; 9559 :     memcpy( bPseudoHeader+16, pIP6FRM->bDstAddr, 16 );

  0005d	48 8d 44 24 58	 lea	 rax, QWORD PTR bPseudoHeader$[rsp+16]
  00062	48 8b 8c 24 a0
	00 00 00	 mov	 rcx, QWORD PTR pIP6FRM$[rsp]
  0006a	48 8b f8	 mov	 rdi, rax
  0006d	48 8d 71 18	 lea	 rsi, QWORD PTR [rcx+24]
  00071	b9 10 00 00 00	 mov	 ecx, 16
  00076	f3 a4		 rep movsb

; 9560 :     STORE_FW( bPseudoHeader+32, iIcmpLen );

  00078	8b 8c 24 b0 00
	00 00		 mov	 ecx, DWORD PTR iIcmpLen$[rsp]
  0007f	e8 00 00 00 00	 call	 _byteswap_ulong
  00084	48 8d 4c 24 68	 lea	 rcx, QWORD PTR bPseudoHeader$[rsp+32]
  00089	8b d0		 mov	 edx, eax
  0008b	e8 00 00 00 00	 call	 store_fw_noswap

; 9561 :     for( i = 36; i <= 38; i++ )

  00090	c7 44 24 24 24
	00 00 00	 mov	 DWORD PTR i$[rsp], 36	; 00000024H
  00098	eb 0a		 jmp	 SHORT $LN4@calculate_
$LN2@calculate_:
  0009a	8b 44 24 24	 mov	 eax, DWORD PTR i$[rsp]
  0009e	ff c0		 inc	 eax
  000a0	89 44 24 24	 mov	 DWORD PTR i$[rsp], eax
$LN4@calculate_:
  000a4	83 7c 24 24 26	 cmp	 DWORD PTR i$[rsp], 38	; 00000026H
  000a9	7f 25		 jg	 SHORT $LN3@calculate_

; 9562 :         bPseudoHeader[i] = 0x00;

  000ab	48 63 44 24 24	 movsxd	 rax, DWORD PTR i$[rsp]
  000b0	48 89 44 24 40	 mov	 QWORD PTR $T1[rsp], rax
  000b5	48 83 7c 24 40
	28		 cmp	 QWORD PTR $T1[rsp], 40	; 00000028H
  000bb	73 02		 jae	 SHORT $LN12@calculate_
  000bd	eb 05		 jmp	 SHORT $LN13@calculate_
$LN12@calculate_:
  000bf	e8 00 00 00 00	 call	 __report_rangecheckfailure
$LN13@calculate_:
  000c4	48 8b 44 24 40	 mov	 rax, QWORD PTR $T1[rsp]
  000c9	c6 44 04 48 00	 mov	 BYTE PTR bPseudoHeader$[rsp+rax], 0
  000ce	eb ca		 jmp	 SHORT $LN2@calculate_
$LN3@calculate_:

; 9563 :     bPseudoHeader[39] = 0x3A;

  000d0	b8 01 00 00 00	 mov	 eax, 1
  000d5	48 6b c0 27	 imul	 rax, rax, 39		; 00000027H
  000d9	c6 44 04 48 3a	 mov	 BYTE PTR bPseudoHeader$[rsp+rax], 58 ; 0000003aH

; 9564 : 
; 9565 :     // Calculate the checksum.
; 9566 :     uChecksum = 0;

  000de	c7 44 24 20 00
	00 00 00	 mov	 DWORD PTR uChecksum$[rsp], 0

; 9567 :     for( i = 0; i <= 38; i += 2 )

  000e6	c7 44 24 24 00
	00 00 00	 mov	 DWORD PTR i$[rsp], 0
  000ee	eb 0b		 jmp	 SHORT $LN7@calculate_
$LN5@calculate_:
  000f0	8b 44 24 24	 mov	 eax, DWORD PTR i$[rsp]
  000f4	83 c0 02	 add	 eax, 2
  000f7	89 44 24 24	 mov	 DWORD PTR i$[rsp], eax
$LN7@calculate_:
  000fb	83 7c 24 24 26	 cmp	 DWORD PTR i$[rsp], 38	; 00000026H
  00100	7f 32		 jg	 SHORT $LN6@calculate_

; 9568 :     {
; 9569 :         FETCH_HW( uTwobytes, bPseudoHeader+i );

  00102	48 63 44 24 24	 movsxd	 rax, DWORD PTR i$[rsp]
  00107	48 8d 44 04 48	 lea	 rax, QWORD PTR bPseudoHeader$[rsp+rax]
  0010c	48 8b c8	 mov	 rcx, rax
  0010f	e8 00 00 00 00	 call	 fetch_hw_noswap
  00114	0f b7 c8	 movzx	 ecx, ax
  00117	e8 00 00 00 00	 call	 _byteswap_ushort
  0011c	66 89 44 24 28	 mov	 WORD PTR uTwobytes$[rsp], ax

; 9570 :         uChecksum += uTwobytes;

  00121	0f b7 44 24 28	 movzx	 eax, WORD PTR uTwobytes$[rsp]
  00126	8b 4c 24 20	 mov	 ecx, DWORD PTR uChecksum$[rsp]
  0012a	03 c8		 add	 ecx, eax
  0012c	8b c1		 mov	 eax, ecx
  0012e	89 44 24 20	 mov	 DWORD PTR uChecksum$[rsp], eax

; 9571 :     }

  00132	eb bc		 jmp	 SHORT $LN5@calculate_
$LN6@calculate_:

; 9572 :     pBytePtr = pIcmpHdr;                   // Point to the ICMPv6 header.

  00134	48 8b 84 24 a8
	00 00 00	 mov	 rax, QWORD PTR pIcmpHdr$[rsp]
  0013c	48 89 44 24 38	 mov	 QWORD PTR pBytePtr$[rsp], rax

; 9573 :     j = iIcmpLen;                          // Get the length of the

  00141	8b 84 24 b0 00
	00 00		 mov	 eax, DWORD PTR iIcmpLen$[rsp]
  00148	89 44 24 2c	 mov	 DWORD PTR j$[rsp], eax

; 9574 :     j++;                                   // ICMPv6 packet rounded up

  0014c	8b 44 24 2c	 mov	 eax, DWORD PTR j$[rsp]
  00150	ff c0		 inc	 eax
  00152	89 44 24 2c	 mov	 DWORD PTR j$[rsp], eax

; 9575 :     j &= 0xFFFFFFFE;                       // to the next multiple of two.

  00156	8b 44 24 2c	 mov	 eax, DWORD PTR j$[rsp]
  0015a	83 e0 fe	 and	 eax, -2			; fffffffeH
  0015d	89 44 24 2c	 mov	 DWORD PTR j$[rsp], eax

; 9576 :     for( i = 0; i <= j - 2; i += 2 )

  00161	c7 44 24 24 00
	00 00 00	 mov	 DWORD PTR i$[rsp], 0
  00169	eb 0b		 jmp	 SHORT $LN10@calculate_
$LN8@calculate_:
  0016b	8b 44 24 24	 mov	 eax, DWORD PTR i$[rsp]
  0016f	83 c0 02	 add	 eax, 2
  00172	89 44 24 24	 mov	 DWORD PTR i$[rsp], eax
$LN10@calculate_:
  00176	8b 44 24 2c	 mov	 eax, DWORD PTR j$[rsp]
  0017a	83 e8 02	 sub	 eax, 2
  0017d	39 44 24 24	 cmp	 DWORD PTR i$[rsp], eax
  00181	7f 38		 jg	 SHORT $LN9@calculate_

; 9577 :     {
; 9578 :         FETCH_HW( uTwobytes, pBytePtr );

  00183	48 8b 4c 24 38	 mov	 rcx, QWORD PTR pBytePtr$[rsp]
  00188	e8 00 00 00 00	 call	 fetch_hw_noswap
  0018d	0f b7 c8	 movzx	 ecx, ax
  00190	e8 00 00 00 00	 call	 _byteswap_ushort
  00195	66 89 44 24 28	 mov	 WORD PTR uTwobytes$[rsp], ax

; 9579 :         uChecksum += uTwobytes;

  0019a	0f b7 44 24 28	 movzx	 eax, WORD PTR uTwobytes$[rsp]
  0019f	8b 4c 24 20	 mov	 ecx, DWORD PTR uChecksum$[rsp]
  001a3	03 c8		 add	 ecx, eax
  001a5	8b c1		 mov	 eax, ecx
  001a7	89 44 24 20	 mov	 DWORD PTR uChecksum$[rsp], eax

; 9580 :         pBytePtr += 2;

  001ab	48 8b 44 24 38	 mov	 rax, QWORD PTR pBytePtr$[rsp]
  001b0	48 83 c0 02	 add	 rax, 2
  001b4	48 89 44 24 38	 mov	 QWORD PTR pBytePtr$[rsp], rax

; 9581 :     }

  001b9	eb b0		 jmp	 SHORT $LN8@calculate_
$LN9@calculate_:

; 9582 :     uHighhalf = uChecksum >> 16;           // Get the high-order half

  001bb	8b 44 24 20	 mov	 eax, DWORD PTR uChecksum$[rsp]
  001bf	c1 e8 10	 shr	 eax, 16
  001c2	89 44 24 30	 mov	 DWORD PTR uHighhalf$[rsp], eax

; 9583 :                                            // of the checksum value.
; 9584 :     uChecksum &= 0x0000FFFF;               // Get the low-order half.

  001c6	8b 44 24 20	 mov	 eax, DWORD PTR uChecksum$[rsp]
  001ca	25 ff ff 00 00	 and	 eax, 65535		; 0000ffffH
  001cf	89 44 24 20	 mov	 DWORD PTR uChecksum$[rsp], eax

; 9585 :     uChecksum += uHighhalf;                // Add the high-order half

  001d3	8b 44 24 30	 mov	 eax, DWORD PTR uHighhalf$[rsp]
  001d7	8b 4c 24 20	 mov	 ecx, DWORD PTR uChecksum$[rsp]
  001db	03 c8		 add	 ecx, eax
  001dd	8b c1		 mov	 eax, ecx
  001df	89 44 24 20	 mov	 DWORD PTR uChecksum$[rsp], eax

; 9586 :                                            // to the low-order half.
; 9587 :     uHighhalf = uChecksum >> 16;           // Get the high-order half

  001e3	8b 44 24 20	 mov	 eax, DWORD PTR uChecksum$[rsp]
  001e7	c1 e8 10	 shr	 eax, 16
  001ea	89 44 24 30	 mov	 DWORD PTR uHighhalf$[rsp], eax

; 9588 :                                            // of the checksum value again.
; 9589 :     uChecksum &= 0x0000FFFF;               // Get the low-order half.

  001ee	8b 44 24 20	 mov	 eax, DWORD PTR uChecksum$[rsp]
  001f2	25 ff ff 00 00	 and	 eax, 65535		; 0000ffffH
  001f7	89 44 24 20	 mov	 DWORD PTR uChecksum$[rsp], eax

; 9590 :     uChecksum += uHighhalf;                // Add the high-order half

  001fb	8b 44 24 30	 mov	 eax, DWORD PTR uHighhalf$[rsp]
  001ff	8b 4c 24 20	 mov	 ecx, DWORD PTR uChecksum$[rsp]
  00203	03 c8		 add	 ecx, eax
  00205	8b c1		 mov	 eax, ecx
  00207	89 44 24 20	 mov	 DWORD PTR uChecksum$[rsp], eax

; 9591 :                                            // to the low-order half again
; 9592 :                                            // to include any carry.
; 9593 :     uChecksum ^= 0xFFFFFFFF;               // Complement the bits.

  0020b	8b 44 24 20	 mov	 eax, DWORD PTR uChecksum$[rsp]
  0020f	83 f0 ff	 xor	 eax, -1			; ffffffffH
  00212	89 44 24 20	 mov	 DWORD PTR uChecksum$[rsp], eax

; 9594 :     uChecksum &= 0x0000FFFF;               // Get a clean checksum.

  00216	8b 44 24 20	 mov	 eax, DWORD PTR uChecksum$[rsp]
  0021a	25 ff ff 00 00	 and	 eax, 65535		; 0000ffffH
  0021f	89 44 24 20	 mov	 DWORD PTR uChecksum$[rsp], eax

; 9595 :     uTwobytes = uChecksum;                 // Copy to a two-byte value.

  00223	0f b7 44 24 20	 movzx	 eax, WORD PTR uChecksum$[rsp]
  00228	66 89 44 24 28	 mov	 WORD PTR uTwobytes$[rsp], ax

; 9596 : 
; 9597 :     // Set the checksum in the ICMP header.
; 9598 :     STORE_HW( pIcmpHdr+2, uTwobytes );

  0022d	0f b7 4c 24 28	 movzx	 ecx, WORD PTR uTwobytes$[rsp]
  00232	e8 00 00 00 00	 call	 _byteswap_ushort
  00237	48 8b 8c 24 a8
	00 00 00	 mov	 rcx, QWORD PTR pIcmpHdr$[rsp]
  0023f	48 83 c1 02	 add	 rcx, 2
  00243	0f b7 d0	 movzx	 edx, ax
  00246	e8 00 00 00 00	 call	 store_hw_noswap
$LN11@calculate_:

; 9599 : 
; 9600 :     return;
; 9601 : }   /* End function  calculate_icmpv6_checksum() */

  0024b	48 8b 4c 24 70	 mov	 rcx, QWORD PTR __$ArrayPad$[rsp]
  00250	48 33 cc	 xor	 rcx, rsp
  00253	e8 00 00 00 00	 call	 __security_check_cookie
  00258	48 81 c4 88 00
	00 00		 add	 rsp, 136		; 00000088H
  0025f	5f		 pop	 rdi
  00260	5e		 pop	 rsi
  00261	c3		 ret	 0
calculate_icmpv6_checksum ENDP
_TEXT	ENDS
; Function compile flags: /Odtp
; File C:\papa\MyGit\hyperion-zvector\ctc_ptp.c
_TEXT	SEGMENT
dw$ = 0
even$ = 32
odd$ = 40
number$ = 48
shift_right_dbl PROC

; 9499 : {

  00000	44 89 44 24 18	 mov	 DWORD PTR [rsp+24], r8d
  00005	48 89 54 24 10	 mov	 QWORD PTR [rsp+16], rdx
  0000a	48 89 4c 24 08	 mov	 QWORD PTR [rsp+8], rcx
  0000f	48 83 ec 18	 sub	 rsp, 24

; 9500 :     U64     dw;
; 9501 : 
; 9502 :     dw = *even;              // Combine the two

  00013	48 8b 44 24 20	 mov	 rax, QWORD PTR even$[rsp]
  00018	8b 00		 mov	 eax, DWORD PTR [rax]
  0001a	48 89 04 24	 mov	 QWORD PTR dw$[rsp], rax

; 9503 :     dw <<= 32;               // U32 values into

  0001e	48 8b 04 24	 mov	 rax, QWORD PTR dw$[rsp]
  00022	48 c1 e0 20	 shl	 rax, 32			; 00000020H
  00026	48 89 04 24	 mov	 QWORD PTR dw$[rsp], rax

; 9504 :     dw |= *odd;              // one U64 value

  0002a	48 8b 44 24 28	 mov	 rax, QWORD PTR odd$[rsp]
  0002f	8b 00		 mov	 eax, DWORD PTR [rax]
  00031	48 8b 0c 24	 mov	 rcx, QWORD PTR dw$[rsp]
  00035	48 0b c8	 or	 rcx, rax
  00038	48 8b c1	 mov	 rax, rcx
  0003b	48 89 04 24	 mov	 QWORD PTR dw$[rsp], rax

; 9505 : 
; 9506 :     dw >>= number;           // Shift right the appropriate number

  0003f	48 63 44 24 30	 movsxd	 rax, DWORD PTR number$[rsp]
  00044	0f b6 c8	 movzx	 ecx, al
  00047	48 8b 04 24	 mov	 rax, QWORD PTR dw$[rsp]
  0004b	48 d3 e8	 shr	 rax, cl
  0004e	48 89 04 24	 mov	 QWORD PTR dw$[rsp], rax

; 9507 : 
; 9508 :     *odd = (U32)dw;          // Separate the U64

  00052	48 8b 44 24 28	 mov	 rax, QWORD PTR odd$[rsp]
  00057	8b 0c 24	 mov	 ecx, DWORD PTR dw$[rsp]
  0005a	89 08		 mov	 DWORD PTR [rax], ecx

; 9509 :     dw >>= 32;               // value into

  0005c	48 8b 04 24	 mov	 rax, QWORD PTR dw$[rsp]
  00060	48 c1 e8 20	 shr	 rax, 32			; 00000020H
  00064	48 89 04 24	 mov	 QWORD PTR dw$[rsp], rax

; 9510 :     *even = (U32)dw;         // two U32 values.

  00068	48 8b 44 24 20	 mov	 rax, QWORD PTR even$[rsp]
  0006d	8b 0c 24	 mov	 ecx, DWORD PTR dw$[rsp]
  00070	89 08		 mov	 DWORD PTR [rax], ecx

; 9511 : 
; 9512 :     return;
; 9513 : }   /* End function  shift_right_dbl() */

  00072	48 83 c4 18	 add	 rsp, 24
  00076	c3		 ret	 0
shift_right_dbl ENDP
_TEXT	ENDS
; Function compile flags: /Odtp
; File C:\papa\MyGit\hyperion-zvector\ctc_ptp.c
_TEXT	SEGMENT
dw$ = 0
even$ = 32
odd$ = 40
number$ = 48
shift_left_dbl PROC

; 9482 : {

  00000	44 89 44 24 18	 mov	 DWORD PTR [rsp+24], r8d
  00005	48 89 54 24 10	 mov	 QWORD PTR [rsp+16], rdx
  0000a	48 89 4c 24 08	 mov	 QWORD PTR [rsp+8], rcx
  0000f	48 83 ec 18	 sub	 rsp, 24

; 9483 :     U64     dw;
; 9484 : 
; 9485 :     dw = *even;              // Combine the two

  00013	48 8b 44 24 20	 mov	 rax, QWORD PTR even$[rsp]
  00018	8b 00		 mov	 eax, DWORD PTR [rax]
  0001a	48 89 04 24	 mov	 QWORD PTR dw$[rsp], rax

; 9486 :     dw <<= 32;               // U32 values into

  0001e	48 8b 04 24	 mov	 rax, QWORD PTR dw$[rsp]
  00022	48 c1 e0 20	 shl	 rax, 32			; 00000020H
  00026	48 89 04 24	 mov	 QWORD PTR dw$[rsp], rax

; 9487 :     dw |= *odd;              // one U64 value

  0002a	48 8b 44 24 28	 mov	 rax, QWORD PTR odd$[rsp]
  0002f	8b 00		 mov	 eax, DWORD PTR [rax]
  00031	48 8b 0c 24	 mov	 rcx, QWORD PTR dw$[rsp]
  00035	48 0b c8	 or	 rcx, rax
  00038	48 8b c1	 mov	 rax, rcx
  0003b	48 89 04 24	 mov	 QWORD PTR dw$[rsp], rax

; 9488 : 
; 9489 :     dw <<= number;           // Shift left the appropriate number

  0003f	48 63 44 24 30	 movsxd	 rax, DWORD PTR number$[rsp]
  00044	0f b6 c8	 movzx	 ecx, al
  00047	48 8b 04 24	 mov	 rax, QWORD PTR dw$[rsp]
  0004b	48 d3 e0	 shl	 rax, cl
  0004e	48 89 04 24	 mov	 QWORD PTR dw$[rsp], rax

; 9490 : 
; 9491 :     *odd = (U32)dw;          // Separate the U64

  00052	48 8b 44 24 28	 mov	 rax, QWORD PTR odd$[rsp]
  00057	8b 0c 24	 mov	 ecx, DWORD PTR dw$[rsp]
  0005a	89 08		 mov	 DWORD PTR [rax], ecx

; 9492 :     dw >>= 32;               // value into

  0005c	48 8b 04 24	 mov	 rax, QWORD PTR dw$[rsp]
  00060	48 c1 e8 20	 shr	 rax, 32			; 00000020H
  00064	48 89 04 24	 mov	 QWORD PTR dw$[rsp], rax

; 9493 :     *even = (U32)dw;         // two U32 values.

  00068	48 8b 44 24 20	 mov	 rax, QWORD PTR even$[rsp]
  0006d	8b 0c 24	 mov	 ecx, DWORD PTR dw$[rsp]
  00070	89 08		 mov	 DWORD PTR [rax], ecx

; 9494 : 
; 9495 :     return;
; 9496 : }   /* End function  shift_left_dbl() */

  00072	48 83 c4 18	 add	 rsp, 24
  00076	c3		 ret	 0
shift_left_dbl ENDP
_TEXT	ENDS
; Function compile flags: /Odtp
; File C:\papa\MyGit\hyperion-zvector\ctc_ptp.c
_TEXT	SEGMENT
i$ = 32
j$ = 36
XorResult$ = 40
tv5913 = 48
tv5925 = 56
tv5937 = 64
tv5949 = 72
tv6025 = 80
tv6037 = 88
tv6049 = 96
tv6061 = 104
OrResult$ = 112
wv$ = 240
XorClocks$ = 304
__$ArrayPad$ = 312
pClock1$ = 336
pClock2$ = 344
pToken$ = 352
gen_csv_sid PROC

; 8306 : {

  00000	4c 89 44 24 18	 mov	 QWORD PTR [rsp+24], r8
  00005	48 89 54 24 10	 mov	 QWORD PTR [rsp+16], rdx
  0000a	48 89 4c 24 08	 mov	 QWORD PTR [rsp+8], rcx
  0000f	48 81 ec 48 01
	00 00		 sub	 rsp, 328		; 00000148H
  00016	48 8b 05 00 00
	00 00		 mov	 rax, QWORD PTR __security_cookie
  0001d	48 33 c4	 xor	 rax, rsp
  00020	48 89 84 24 38
	01 00 00	 mov	 QWORD PTR __$ArrayPad$[rsp], rax

; 8307 : 
; 8308 :     static const U32 XorConstant[512] =
; 8309 :                              { 0x00404100, 0x00000000, 0x00004000, 0x00404101,
; 8310 :                                0x00404001, 0x00004101, 0x00000001, 0x00004000,
; 8311 :                                0x00000100, 0x00404100, 0x00404101, 0x00000100,
; 8312 :                                0x00400101, 0x00404001, 0x00400000, 0x00000001,
; 8313 :                                0x00000101, 0x00400100, 0x00400100, 0x00004100,
; 8314 :                                0x00004100, 0x00404000, 0x00404000, 0x00400101,
; 8315 :                                0x00004001, 0x00400001, 0x00400001, 0x00004001,
; 8316 :                                0x00000000, 0x00000101, 0x00004101, 0x00400000,
; 8317 :                                0x00004000, 0x00404101, 0x00000001, 0x00404000,
; 8318 :                                0x00404100, 0x00400000, 0x00400000, 0x00000100,
; 8319 :                                0x00404001, 0x00004000, 0x00004100, 0x00400001,
; 8320 :                                0x00000100, 0x00000001, 0x00400101, 0x00004101,
; 8321 :                                0x00404101, 0x00004001, 0x00404000, 0x00400101,
; 8322 :                                0x00400001, 0x00000101, 0x00004101, 0x00404100,
; 8323 :                                0x00000101, 0x00400100, 0x00400100, 0x00000000,
; 8324 :                                0x00004001, 0x00004100, 0x00000000, 0x00404001,
; 8325 :                                0x20042008, 0x20002000, 0x00002000, 0x00042008,
; 8326 :                                0x00040000, 0x00000008, 0x20040008, 0x20002008,
; 8327 :                                0x20000008, 0x20042008, 0x20042000, 0x20000000,
; 8328 :                                0x20002000, 0x00040000, 0x00000008, 0x20040008,
; 8329 :                                0x00042000, 0x00040008, 0x20002008, 0x00000000,
; 8330 :                                0x20000000, 0x00002000, 0x00042008, 0x20040000,
; 8331 :                                0x00040008, 0x20000008, 0x00000000, 0x00042000,
; 8332 :                                0x00002008, 0x20042000, 0x20040000, 0x00002008,
; 8333 :                                0x00000000, 0x00042008, 0x20040008, 0x00040000,
; 8334 :                                0x20002008, 0x20040000, 0x20042000, 0x00002000,
; 8335 :                                0x20040000, 0x20002000, 0x00000008, 0x20042008,
; 8336 :                                0x00042008, 0x00000008, 0x00002000, 0x20000000,
; 8337 :                                0x00002008, 0x20042000, 0x00040000, 0x20000008,
; 8338 :                                0x00040008, 0x20002008, 0x20000008, 0x00040008,
; 8339 :                                0x00042000, 0x00000000, 0x20002000, 0x00002008,
; 8340 :                                0x20000000, 0x20040008, 0x20042008, 0x00042000,
; 8341 :                                0x00000082, 0x02008080, 0x00000000, 0x02008002,
; 8342 :                                0x02000080, 0x00000000, 0x00008082, 0x02000080,
; 8343 :                                0x00008002, 0x02000002, 0x02000002, 0x00008000,
; 8344 :                                0x02008082, 0x00008002, 0x02008000, 0x00000082,
; 8345 :                                0x02000000, 0x00000002, 0x02008080, 0x00000080,
; 8346 :                                0x00008080, 0x02008000, 0x02008002, 0x00008082,
; 8347 :                                0x02000082, 0x00008080, 0x00008000, 0x02000082,
; 8348 :                                0x00000002, 0x02008082, 0x00000080, 0x02000000,
; 8349 :                                0x02008080, 0x02000000, 0x00008002, 0x00000082,
; 8350 :                                0x00008000, 0x02008080, 0x02000080, 0x00000000,
; 8351 :                                0x00000080, 0x00008002, 0x02008082, 0x02000080,
; 8352 :                                0x02000002, 0x00000080, 0x00000000, 0x02008002,
; 8353 :                                0x02000082, 0x00008000, 0x02000000, 0x02008082,
; 8354 :                                0x00000002, 0x00008082, 0x00008080, 0x02000002,
; 8355 :                                0x02008000, 0x02000082, 0x00000082, 0x02008000,
; 8356 :                                0x00008082, 0x00000002, 0x02008002, 0x00008080,
; 8357 :                                0x40200800, 0x40000820, 0x40000820, 0x00000020,
; 8358 :                                0x00200820, 0x40200020, 0x40200000, 0x40000800,
; 8359 :                                0x00000000, 0x00200800, 0x00200800, 0x40200820,
; 8360 :                                0x40000020, 0x00000000, 0x00200020, 0x40200000,
; 8361 :                                0x40000000, 0x00000800, 0x00200000, 0x40200800,
; 8362 :                                0x00000020, 0x00200000, 0x40000800, 0x00000820,
; 8363 :                                0x40200020, 0x40000000, 0x00000820, 0x00200020,
; 8364 :                                0x00000800, 0x00200820, 0x40200820, 0x40000020,
; 8365 :                                0x00200020, 0x40200000, 0x00200800, 0x40200820,
; 8366 :                                0x40000020, 0x00000000, 0x00000000, 0x00200800,
; 8367 :                                0x00000820, 0x00200020, 0x40200020, 0x40000000,
; 8368 :                                0x40200800, 0x40000820, 0x40000820, 0x00000020,
; 8369 :                                0x40200820, 0x40000020, 0x40000000, 0x00000800,
; 8370 :                                0x40200000, 0x40000800, 0x00200820, 0x40200020,
; 8371 :                                0x40000800, 0x00000820, 0x00200000, 0x40200800,
; 8372 :                                0x00000020, 0x00200000, 0x00000800, 0x00200820,
; 8373 :                                0x00000040, 0x00820040, 0x00820000, 0x10800040,
; 8374 :                                0x00020000, 0x00000040, 0x10000000, 0x00820000,
; 8375 :                                0x10020040, 0x00020000, 0x00800040, 0x10020040,
; 8376 :                                0x10800040, 0x10820000, 0x00020040, 0x10000000,
; 8377 :                                0x00800000, 0x10020000, 0x10020000, 0x00000000,
; 8378 :                                0x10000040, 0x10820040, 0x10820040, 0x00800040,
; 8379 :                                0x10820000, 0x10000040, 0x00000000, 0x10800000,
; 8380 :                                0x00820040, 0x00800000, 0x10800000, 0x00020040,
; 8381 :                                0x00020000, 0x10800040, 0x00000040, 0x00800000,
; 8382 :                                0x10000000, 0x00820000, 0x10800040, 0x10020040,
; 8383 :                                0x00800040, 0x10000000, 0x10820000, 0x00820040,
; 8384 :                                0x10020040, 0x00000040, 0x00800000, 0x10820000,
; 8385 :                                0x10820040, 0x00020040, 0x10800000, 0x10820040,
; 8386 :                                0x00820000, 0x00000000, 0x10020000, 0x10800000,
; 8387 :                                0x00020040, 0x00800040, 0x10000040, 0x00020000,
; 8388 :                                0x00000000, 0x10020000, 0x00820040, 0x10000040,
; 8389 :                                0x08000004, 0x08100000, 0x00001000, 0x08101004,
; 8390 :                                0x08100000, 0x00000004, 0x08101004, 0x00100000,
; 8391 :                                0x08001000, 0x00101004, 0x00100000, 0x08000004,
; 8392 :                                0x00100004, 0x08001000, 0x08000000, 0x00001004,
; 8393 :                                0x00000000, 0x00100004, 0x08001004, 0x00001000,
; 8394 :                                0x00101000, 0x08001004, 0x00000004, 0x08100004,
; 8395 :                                0x08100004, 0x00000000, 0x00101004, 0x08101000,
; 8396 :                                0x00001004, 0x00101000, 0x08101000, 0x08000000,
; 8397 :                                0x08001000, 0x00000004, 0x08100004, 0x00101000,
; 8398 :                                0x08101004, 0x00100000, 0x00001004, 0x08000004,
; 8399 :                                0x00100000, 0x08001000, 0x08000000, 0x00001004,
; 8400 :                                0x08000004, 0x08101004, 0x00101000, 0x08100000,
; 8401 :                                0x00101004, 0x08101000, 0x00000000, 0x08100004,
; 8402 :                                0x00000004, 0x00001000, 0x08100000, 0x00101004,
; 8403 :                                0x00001000, 0x00100004, 0x08001004, 0x00000000,
; 8404 :                                0x08101000, 0x08000000, 0x00100004, 0x08001004,
; 8405 :                                0x00080000, 0x81080000, 0x81000200, 0x00000000,
; 8406 :                                0x00000200, 0x81000200, 0x80080200, 0x01080200,
; 8407 :                                0x81080200, 0x00080000, 0x00000000, 0x81000000,
; 8408 :                                0x80000000, 0x01000000, 0x81080000, 0x80000200,
; 8409 :                                0x01000200, 0x80080200, 0x80080000, 0x01000200,
; 8410 :                                0x81000000, 0x01080000, 0x01080200, 0x80080000,
; 8411 :                                0x01080000, 0x00000200, 0x80000200, 0x81080200,
; 8412 :                                0x00080200, 0x80000000, 0x01000000, 0x00080200,
; 8413 :                                0x01000000, 0x00080200, 0x00080000, 0x81000200,
; 8414 :                                0x81000200, 0x81080000, 0x81080000, 0x80000000,
; 8415 :                                0x80080000, 0x01000000, 0x01000200, 0x00080000,
; 8416 :                                0x01080200, 0x80000200, 0x80080200, 0x01080200,
; 8417 :                                0x80000200, 0x81000000, 0x81080200, 0x01080000,
; 8418 :                                0x00080200, 0x00000000, 0x80000000, 0x81080200,
; 8419 :                                0x00000000, 0x80080200, 0x01080000, 0x00000200,
; 8420 :                                0x81000000, 0x01000200, 0x00000200, 0x80080000,
; 8421 :                                0x04000410, 0x00000400, 0x00010000, 0x04010410,
; 8422 :                                0x04000000, 0x04000410, 0x00000010, 0x04000000,
; 8423 :                                0x00010010, 0x04010000, 0x04010410, 0x00010400,
; 8424 :                                0x04010400, 0x00010410, 0x00000400, 0x00000010,
; 8425 :                                0x04010000, 0x04000010, 0x04000400, 0x00000410,
; 8426 :                                0x00010400, 0x00010010, 0x04010010, 0x04010400,
; 8427 :                                0x00000410, 0x00000000, 0x00000000, 0x04010010,
; 8428 :                                0x04000010, 0x04000400, 0x00010410, 0x00010000,
; 8429 :                                0x00010410, 0x00010000, 0x04010400, 0x00000400,
; 8430 :                                0x00000010, 0x04010010, 0x00000400, 0x00010410,
; 8431 :                                0x04000400, 0x00000010, 0x04000010, 0x04010000,
; 8432 :                                0x04010010, 0x04000000, 0x00010000, 0x04000410,
; 8433 :                                0x00000000, 0x04010410, 0x00010010, 0x04000010,
; 8434 :                                0x04010000, 0x04000400, 0x04000410, 0x00000000,
; 8435 :                                0x04010410, 0x00010400, 0x00010400, 0x00000410,
; 8436 :                                0x00000410, 0x00010010, 0x04000000, 0x04010400 };
; 8437 : 
; 8438 :     static const U32 OrConstant[24] =
; 8439 :                              { 0x80000000, 0x40000000, 0x20000000, 0x10000000,
; 8440 :                                0x08000000, 0x04000000, 0x00800000, 0x00400000,
; 8441 :                                0x00200000, 0x00100000, 0x00080000, 0x00040000,
; 8442 :                                0x00008000, 0x00004000, 0x00002000, 0x00001000,
; 8443 :                                0x00000800, 0x00000400, 0x00000080, 0x00000040,
; 8444 :                                0x00000020, 0x00000010, 0x00000008, 0x00000004 };
; 8445 : 
; 8446 :     BYTE  XorClocks[8];
; 8447 :     U32   XorResult[2];
; 8448 :     U32   OrResult[32];
; 8449 :     U32   wv[16];              // Work Values
; 8450 :     int   i, j;
; 8451 : 
; 8452 : 
; 8453 :     // Xor together the two input clock values.
; 8454 :     for( i = 0; i <= 7; i++ )

  00028	c7 44 24 20 00
	00 00 00	 mov	 DWORD PTR i$[rsp], 0
  00030	eb 0a		 jmp	 SHORT $LN4@gen_csv_si
$LN2@gen_csv_si:
  00032	8b 44 24 20	 mov	 eax, DWORD PTR i$[rsp]
  00036	ff c0		 inc	 eax
  00038	89 44 24 20	 mov	 DWORD PTR i$[rsp], eax
$LN4@gen_csv_si:
  0003c	83 7c 24 20 07	 cmp	 DWORD PTR i$[rsp], 7
  00041	7f 32		 jg	 SHORT $LN3@gen_csv_si

; 8455 :         XorClocks[i] = pClock2[i] ^ pClock1[i];

  00043	48 63 44 24 20	 movsxd	 rax, DWORD PTR i$[rsp]
  00048	48 8b 8c 24 58
	01 00 00	 mov	 rcx, QWORD PTR pClock2$[rsp]
  00050	0f b6 04 01	 movzx	 eax, BYTE PTR [rcx+rax]
  00054	48 63 4c 24 20	 movsxd	 rcx, DWORD PTR i$[rsp]
  00059	48 8b 94 24 50
	01 00 00	 mov	 rdx, QWORD PTR pClock1$[rsp]
  00061	0f b6 0c 0a	 movzx	 ecx, BYTE PTR [rdx+rcx]
  00065	33 c1		 xor	 eax, ecx
  00067	48 63 4c 24 20	 movsxd	 rcx, DWORD PTR i$[rsp]
  0006c	88 84 0c 30 01
	00 00		 mov	 BYTE PTR XorClocks$[rsp+rcx], al
  00073	eb bd		 jmp	 SHORT $LN2@gen_csv_si
$LN3@gen_csv_si:

; 8456 : 
; 8457 :     // Process the input pClock1 value. The first 7 bits of each of the 8 bytes
; 8458 :     // of the value are tested and, if the bit is on, several OrConstant[] values
; 8459 :     // are or'ed into several OrRresult[] values. Before that however, ensure the
; 8460 :     // OrRresult[] values contain nothing.
; 8461 :     for( i = 0; i <= 31; i++ )

  00075	c7 44 24 20 00
	00 00 00	 mov	 DWORD PTR i$[rsp], 0
  0007d	eb 0a		 jmp	 SHORT $LN7@gen_csv_si
$LN5@gen_csv_si:
  0007f	8b 44 24 20	 mov	 eax, DWORD PTR i$[rsp]
  00083	ff c0		 inc	 eax
  00085	89 44 24 20	 mov	 DWORD PTR i$[rsp], eax
$LN7@gen_csv_si:
  00089	83 7c 24 20 1f	 cmp	 DWORD PTR i$[rsp], 31
  0008e	7f 0f		 jg	 SHORT $LN6@gen_csv_si

; 8462 :         OrResult[i] = 0;

  00090	48 63 44 24 20	 movsxd	 rax, DWORD PTR i$[rsp]
  00095	c7 44 84 70 00
	00 00 00	 mov	 DWORD PTR OrResult$[rsp+rax*4], 0
  0009d	eb e0		 jmp	 SHORT $LN5@gen_csv_si
$LN6@gen_csv_si:

; 8463 : 
; 8464 :     // Process the STCK value.
; 8465 :     if ((pClock1[0] & 0x80 ) == 0x80)

  0009f	b8 01 00 00 00	 mov	 eax, 1
  000a4	48 6b c0 00	 imul	 rax, rax, 0
  000a8	48 8b 8c 24 50
	01 00 00	 mov	 rcx, QWORD PTR pClock1$[rsp]
  000b0	0f b6 04 01	 movzx	 eax, BYTE PTR [rcx+rax]
  000b4	25 80 00 00 00	 and	 eax, 128		; 00000080H
  000b9	3d 80 00 00 00	 cmp	 eax, 128		; 00000080H
  000be	0f 85 92 02 00
	00		 jne	 $LN11@gen_csv_si

; 8466 :     {
; 8467 :         OrResult[0]  |= OrConstant[11];

  000c4	b8 04 00 00 00	 mov	 eax, 4
  000c9	48 6b c0 00	 imul	 rax, rax, 0
  000cd	b9 04 00 00 00	 mov	 ecx, 4
  000d2	48 6b c9 0b	 imul	 rcx, rcx, 11
  000d6	48 8d 15 00 00
	00 00		 lea	 rdx, OFFSET FLAT:?OrConstant@?1??gen_csv_sid@@9@9
  000dd	8b 0c 0a	 mov	 ecx, DWORD PTR [rdx+rcx]
  000e0	8b 44 04 70	 mov	 eax, DWORD PTR OrResult$[rsp+rax]
  000e4	0b c1		 or	 eax, ecx
  000e6	b9 04 00 00 00	 mov	 ecx, 4
  000eb	48 6b c9 00	 imul	 rcx, rcx, 0
  000ef	89 44 0c 70	 mov	 DWORD PTR OrResult$[rsp+rcx], eax

; 8468 :         OrResult[4]  |= OrConstant[2];

  000f3	b8 04 00 00 00	 mov	 eax, 4
  000f8	48 6b c0 04	 imul	 rax, rax, 4
  000fc	b9 04 00 00 00	 mov	 ecx, 4
  00101	48 6b c9 02	 imul	 rcx, rcx, 2
  00105	48 8d 15 00 00
	00 00		 lea	 rdx, OFFSET FLAT:?OrConstant@?1??gen_csv_sid@@9@9
  0010c	8b 0c 0a	 mov	 ecx, DWORD PTR [rdx+rcx]
  0010f	8b 44 04 70	 mov	 eax, DWORD PTR OrResult$[rsp+rax]
  00113	0b c1		 or	 eax, ecx
  00115	b9 04 00 00 00	 mov	 ecx, 4
  0011a	48 6b c9 04	 imul	 rcx, rcx, 4
  0011e	89 44 0c 70	 mov	 DWORD PTR OrResult$[rsp+rcx], eax

; 8469 :         OrResult[7]  |= OrConstant[10];

  00122	b8 04 00 00 00	 mov	 eax, 4
  00127	48 6b c0 07	 imul	 rax, rax, 7
  0012b	b9 04 00 00 00	 mov	 ecx, 4
  00130	48 6b c9 0a	 imul	 rcx, rcx, 10
  00134	48 8d 15 00 00
	00 00		 lea	 rdx, OFFSET FLAT:?OrConstant@?1??gen_csv_sid@@9@9
  0013b	8b 0c 0a	 mov	 ecx, DWORD PTR [rdx+rcx]
  0013e	8b 44 04 70	 mov	 eax, DWORD PTR OrResult$[rsp+rax]
  00142	0b c1		 or	 eax, ecx
  00144	b9 04 00 00 00	 mov	 ecx, 4
  00149	48 6b c9 07	 imul	 rcx, rcx, 7
  0014d	89 44 0c 70	 mov	 DWORD PTR OrResult$[rsp+rcx], eax

; 8470 :         OrResult[9]  |= OrConstant[2];

  00151	b8 04 00 00 00	 mov	 eax, 4
  00156	48 6b c0 09	 imul	 rax, rax, 9
  0015a	b9 04 00 00 00	 mov	 ecx, 4
  0015f	48 6b c9 02	 imul	 rcx, rcx, 2
  00163	48 8d 15 00 00
	00 00		 lea	 rdx, OFFSET FLAT:?OrConstant@?1??gen_csv_sid@@9@9
  0016a	8b 0c 0a	 mov	 ecx, DWORD PTR [rdx+rcx]
  0016d	8b 44 04 70	 mov	 eax, DWORD PTR OrResult$[rsp+rax]
  00171	0b c1		 or	 eax, ecx
  00173	b9 04 00 00 00	 mov	 ecx, 4
  00178	48 6b c9 09	 imul	 rcx, rcx, 9
  0017c	89 44 0c 70	 mov	 DWORD PTR OrResult$[rsp+rcx], eax

; 8471 :         OrResult[10] |= OrConstant[1];

  00180	b8 04 00 00 00	 mov	 eax, 4
  00185	48 6b c0 0a	 imul	 rax, rax, 10
  00189	b9 04 00 00 00	 mov	 ecx, 4
  0018e	48 6b c9 01	 imul	 rcx, rcx, 1
  00192	48 8d 15 00 00
	00 00		 lea	 rdx, OFFSET FLAT:?OrConstant@?1??gen_csv_sid@@9@9
  00199	8b 0c 0a	 mov	 ecx, DWORD PTR [rdx+rcx]
  0019c	8b 44 04 70	 mov	 eax, DWORD PTR OrResult$[rsp+rax]
  001a0	0b c1		 or	 eax, ecx
  001a2	b9 04 00 00 00	 mov	 ecx, 4
  001a7	48 6b c9 0a	 imul	 rcx, rcx, 10
  001ab	89 44 0c 70	 mov	 DWORD PTR OrResult$[rsp+rcx], eax

; 8472 :         OrResult[12] |= OrConstant[7];

  001af	b8 04 00 00 00	 mov	 eax, 4
  001b4	48 6b c0 0c	 imul	 rax, rax, 12
  001b8	b9 04 00 00 00	 mov	 ecx, 4
  001bd	48 6b c9 07	 imul	 rcx, rcx, 7
  001c1	48 8d 15 00 00
	00 00		 lea	 rdx, OFFSET FLAT:?OrConstant@?1??gen_csv_sid@@9@9
  001c8	8b 0c 0a	 mov	 ecx, DWORD PTR [rdx+rcx]
  001cb	8b 44 04 70	 mov	 eax, DWORD PTR OrResult$[rsp+rax]
  001cf	0b c1		 or	 eax, ecx
  001d1	b9 04 00 00 00	 mov	 ecx, 4
  001d6	48 6b c9 0c	 imul	 rcx, rcx, 12
  001da	89 44 0c 70	 mov	 DWORD PTR OrResult$[rsp+rcx], eax

; 8473 :         OrResult[15] |= OrConstant[4];

  001de	b8 04 00 00 00	 mov	 eax, 4
  001e3	48 6b c0 0f	 imul	 rax, rax, 15
  001e7	b9 04 00 00 00	 mov	 ecx, 4
  001ec	48 6b c9 04	 imul	 rcx, rcx, 4
  001f0	48 8d 15 00 00
	00 00		 lea	 rdx, OFFSET FLAT:?OrConstant@?1??gen_csv_sid@@9@9
  001f7	8b 0c 0a	 mov	 ecx, DWORD PTR [rdx+rcx]
  001fa	8b 44 04 70	 mov	 eax, DWORD PTR OrResult$[rsp+rax]
  001fe	0b c1		 or	 eax, ecx
  00200	b9 04 00 00 00	 mov	 ecx, 4
  00205	48 6b c9 0f	 imul	 rcx, rcx, 15
  00209	89 44 0c 70	 mov	 DWORD PTR OrResult$[rsp+rcx], eax

; 8474 :         OrResult[18] |= OrConstant[3];

  0020d	b8 04 00 00 00	 mov	 eax, 4
  00212	48 6b c0 12	 imul	 rax, rax, 18
  00216	b9 04 00 00 00	 mov	 ecx, 4
  0021b	48 6b c9 03	 imul	 rcx, rcx, 3
  0021f	48 8d 15 00 00
	00 00		 lea	 rdx, OFFSET FLAT:?OrConstant@?1??gen_csv_sid@@9@9
  00226	8b 0c 0a	 mov	 ecx, DWORD PTR [rdx+rcx]
  00229	8b 44 04 70	 mov	 eax, DWORD PTR OrResult$[rsp+rax]
  0022d	0b c1		 or	 eax, ecx
  0022f	b9 04 00 00 00	 mov	 ecx, 4
  00234	48 6b c9 12	 imul	 rcx, rcx, 18
  00238	89 44 0c 70	 mov	 DWORD PTR OrResult$[rsp+rcx], eax

; 8475 :         OrResult[20] |= OrConstant[10];

  0023c	b8 04 00 00 00	 mov	 eax, 4
  00241	48 6b c0 14	 imul	 rax, rax, 20
  00245	b9 04 00 00 00	 mov	 ecx, 4
  0024a	48 6b c9 0a	 imul	 rcx, rcx, 10
  0024e	48 8d 15 00 00
	00 00		 lea	 rdx, OFFSET FLAT:?OrConstant@?1??gen_csv_sid@@9@9
  00255	8b 0c 0a	 mov	 ecx, DWORD PTR [rdx+rcx]
  00258	8b 44 04 70	 mov	 eax, DWORD PTR OrResult$[rsp+rax]
  0025c	0b c1		 or	 eax, ecx
  0025e	b9 04 00 00 00	 mov	 ecx, 4
  00263	48 6b c9 14	 imul	 rcx, rcx, 20
  00267	89 44 0c 70	 mov	 DWORD PTR OrResult$[rsp+rcx], eax

; 8476 :         OrResult[23] |= OrConstant[1];

  0026b	b8 04 00 00 00	 mov	 eax, 4
  00270	48 6b c0 17	 imul	 rax, rax, 23
  00274	b9 04 00 00 00	 mov	 ecx, 4
  00279	48 6b c9 01	 imul	 rcx, rcx, 1
  0027d	48 8d 15 00 00
	00 00		 lea	 rdx, OFFSET FLAT:?OrConstant@?1??gen_csv_sid@@9@9
  00284	8b 0c 0a	 mov	 ecx, DWORD PTR [rdx+rcx]
  00287	8b 44 04 70	 mov	 eax, DWORD PTR OrResult$[rsp+rax]
  0028b	0b c1		 or	 eax, ecx
  0028d	b9 04 00 00 00	 mov	 ecx, 4
  00292	48 6b c9 17	 imul	 rcx, rcx, 23
  00296	89 44 0c 70	 mov	 DWORD PTR OrResult$[rsp+rcx], eax

; 8477 :         OrResult[25] |= OrConstant[11];

  0029a	b8 04 00 00 00	 mov	 eax, 4
  0029f	48 6b c0 19	 imul	 rax, rax, 25
  002a3	b9 04 00 00 00	 mov	 ecx, 4
  002a8	48 6b c9 0b	 imul	 rcx, rcx, 11
  002ac	48 8d 15 00 00
	00 00		 lea	 rdx, OFFSET FLAT:?OrConstant@?1??gen_csv_sid@@9@9
  002b3	8b 0c 0a	 mov	 ecx, DWORD PTR [rdx+rcx]
  002b6	8b 44 04 70	 mov	 eax, DWORD PTR OrResult$[rsp+rax]
  002ba	0b c1		 or	 eax, ecx
  002bc	b9 04 00 00 00	 mov	 ecx, 4
  002c1	48 6b c9 19	 imul	 rcx, rcx, 25
  002c5	89 44 0c 70	 mov	 DWORD PTR OrResult$[rsp+rcx], eax

; 8478 :         OrResult[26] |= OrConstant[9];

  002c9	b8 04 00 00 00	 mov	 eax, 4
  002ce	48 6b c0 1a	 imul	 rax, rax, 26
  002d2	b9 04 00 00 00	 mov	 ecx, 4
  002d7	48 6b c9 09	 imul	 rcx, rcx, 9
  002db	48 8d 15 00 00
	00 00		 lea	 rdx, OFFSET FLAT:?OrConstant@?1??gen_csv_sid@@9@9
  002e2	8b 0c 0a	 mov	 ecx, DWORD PTR [rdx+rcx]
  002e5	8b 44 04 70	 mov	 eax, DWORD PTR OrResult$[rsp+rax]
  002e9	0b c1		 or	 eax, ecx
  002eb	b9 04 00 00 00	 mov	 ecx, 4
  002f0	48 6b c9 1a	 imul	 rcx, rcx, 26
  002f4	89 44 0c 70	 mov	 DWORD PTR OrResult$[rsp+rcx], eax

; 8479 :         OrResult[29] |= OrConstant[3];

  002f8	b8 04 00 00 00	 mov	 eax, 4
  002fd	48 6b c0 1d	 imul	 rax, rax, 29
  00301	b9 04 00 00 00	 mov	 ecx, 4
  00306	48 6b c9 03	 imul	 rcx, rcx, 3
  0030a	48 8d 15 00 00
	00 00		 lea	 rdx, OFFSET FLAT:?OrConstant@?1??gen_csv_sid@@9@9
  00311	8b 0c 0a	 mov	 ecx, DWORD PTR [rdx+rcx]
  00314	8b 44 04 70	 mov	 eax, DWORD PTR OrResult$[rsp+rax]
  00318	0b c1		 or	 eax, ecx
  0031a	b9 04 00 00 00	 mov	 ecx, 4
  0031f	48 6b c9 1d	 imul	 rcx, rcx, 29
  00323	89 44 0c 70	 mov	 DWORD PTR OrResult$[rsp+rcx], eax

; 8480 :         OrResult[31] |= OrConstant[7];

  00327	b8 04 00 00 00	 mov	 eax, 4
  0032c	48 6b c0 1f	 imul	 rax, rax, 31
  00330	b9 04 00 00 00	 mov	 ecx, 4
  00335	48 6b c9 07	 imul	 rcx, rcx, 7
  00339	48 8d 15 00 00
	00 00		 lea	 rdx, OFFSET FLAT:?OrConstant@?1??gen_csv_sid@@9@9
  00340	8b 0c 0a	 mov	 ecx, DWORD PTR [rdx+rcx]
  00343	8b 44 04 70	 mov	 eax, DWORD PTR OrResult$[rsp+rax]
  00347	0b c1		 or	 eax, ecx
  00349	b9 04 00 00 00	 mov	 ecx, 4
  0034e	48 6b c9 1f	 imul	 rcx, rcx, 31
  00352	89 44 0c 70	 mov	 DWORD PTR OrResult$[rsp+rcx], eax
$LN11@gen_csv_si:

; 8481 :     }
; 8482 :     if ((pClock1[0] & 0x40 ) == 0x40)

  00356	b8 01 00 00 00	 mov	 eax, 1
  0035b	48 6b c0 00	 imul	 rax, rax, 0
  0035f	48 8b 8c 24 50
	01 00 00	 mov	 rcx, QWORD PTR pClock1$[rsp]
  00367	0f b6 04 01	 movzx	 eax, BYTE PTR [rcx+rax]
  0036b	83 e0 40	 and	 eax, 64			; 00000040H
  0036e	83 f8 40	 cmp	 eax, 64			; 00000040H
  00371	0f 85 c1 02 00
	00		 jne	 $LN12@gen_csv_si

; 8483 :     {
; 8484 :         OrResult[1]  |= OrConstant[6];

  00377	b8 04 00 00 00	 mov	 eax, 4
  0037c	48 6b c0 01	 imul	 rax, rax, 1
  00380	b9 04 00 00 00	 mov	 ecx, 4
  00385	48 6b c9 06	 imul	 rcx, rcx, 6
  00389	48 8d 15 00 00
	00 00		 lea	 rdx, OFFSET FLAT:?OrConstant@?1??gen_csv_sid@@9@9
  00390	8b 0c 0a	 mov	 ecx, DWORD PTR [rdx+rcx]
  00393	8b 44 04 70	 mov	 eax, DWORD PTR OrResult$[rsp+rax]
  00397	0b c1		 or	 eax, ecx
  00399	b9 04 00 00 00	 mov	 ecx, 4
  0039e	48 6b c9 01	 imul	 rcx, rcx, 1
  003a2	89 44 0c 70	 mov	 DWORD PTR OrResult$[rsp+rcx], eax

; 8485 :         OrResult[2]  |= OrConstant[1];

  003a6	b8 04 00 00 00	 mov	 eax, 4
  003ab	48 6b c0 02	 imul	 rax, rax, 2
  003af	b9 04 00 00 00	 mov	 ecx, 4
  003b4	48 6b c9 01	 imul	 rcx, rcx, 1
  003b8	48 8d 15 00 00
	00 00		 lea	 rdx, OFFSET FLAT:?OrConstant@?1??gen_csv_sid@@9@9
  003bf	8b 0c 0a	 mov	 ecx, DWORD PTR [rdx+rcx]
  003c2	8b 44 04 70	 mov	 eax, DWORD PTR OrResult$[rsp+rax]
  003c6	0b c1		 or	 eax, ecx
  003c8	b9 04 00 00 00	 mov	 ecx, 4
  003cd	48 6b c9 02	 imul	 rcx, rcx, 2
  003d1	89 44 0c 70	 mov	 DWORD PTR OrResult$[rsp+rcx], eax

; 8486 :         OrResult[4]  |= OrConstant[7];

  003d5	b8 04 00 00 00	 mov	 eax, 4
  003da	48 6b c0 04	 imul	 rax, rax, 4
  003de	b9 04 00 00 00	 mov	 ecx, 4
  003e3	48 6b c9 07	 imul	 rcx, rcx, 7
  003e7	48 8d 15 00 00
	00 00		 lea	 rdx, OFFSET FLAT:?OrConstant@?1??gen_csv_sid@@9@9
  003ee	8b 0c 0a	 mov	 ecx, DWORD PTR [rdx+rcx]
  003f1	8b 44 04 70	 mov	 eax, DWORD PTR OrResult$[rsp+rax]
  003f5	0b c1		 or	 eax, ecx
  003f7	b9 04 00 00 00	 mov	 ecx, 4
  003fc	48 6b c9 04	 imul	 rcx, rcx, 4
  00400	89 44 0c 70	 mov	 DWORD PTR OrResult$[rsp+rcx], eax

; 8487 :         OrResult[7]  |= OrConstant[4];

  00404	b8 04 00 00 00	 mov	 eax, 4
  00409	48 6b c0 07	 imul	 rax, rax, 7
  0040d	b9 04 00 00 00	 mov	 ecx, 4
  00412	48 6b c9 04	 imul	 rcx, rcx, 4
  00416	48 8d 15 00 00
	00 00		 lea	 rdx, OFFSET FLAT:?OrConstant@?1??gen_csv_sid@@9@9
  0041d	8b 0c 0a	 mov	 ecx, DWORD PTR [rdx+rcx]
  00420	8b 44 04 70	 mov	 eax, DWORD PTR OrResult$[rsp+rax]
  00424	0b c1		 or	 eax, ecx
  00426	b9 04 00 00 00	 mov	 ecx, 4
  0042b	48 6b c9 07	 imul	 rcx, rcx, 7
  0042f	89 44 0c 70	 mov	 DWORD PTR OrResult$[rsp+rcx], eax

; 8488 :         OrResult[8]  |= OrConstant[6];

  00433	b8 04 00 00 00	 mov	 eax, 4
  00438	48 6b c0 08	 imul	 rax, rax, 8
  0043c	b9 04 00 00 00	 mov	 ecx, 4
  00441	48 6b c9 06	 imul	 rcx, rcx, 6
  00445	48 8d 15 00 00
	00 00		 lea	 rdx, OFFSET FLAT:?OrConstant@?1??gen_csv_sid@@9@9
  0044c	8b 0c 0a	 mov	 ecx, DWORD PTR [rdx+rcx]
  0044f	8b 44 04 70	 mov	 eax, DWORD PTR OrResult$[rsp+rax]
  00453	0b c1		 or	 eax, ecx
  00455	b9 04 00 00 00	 mov	 ecx, 4
  0045a	48 6b c9 08	 imul	 rcx, rcx, 8
  0045e	89 44 0c 70	 mov	 DWORD PTR OrResult$[rsp+rcx], eax

; 8489 :         OrResult[13] |= OrConstant[8];

  00462	b8 04 00 00 00	 mov	 eax, 4
  00467	48 6b c0 0d	 imul	 rax, rax, 13
  0046b	b9 04 00 00 00	 mov	 ecx, 4
  00470	48 6b c9 08	 imul	 rcx, rcx, 8
  00474	48 8d 15 00 00
	00 00		 lea	 rdx, OFFSET FLAT:?OrConstant@?1??gen_csv_sid@@9@9
  0047b	8b 0c 0a	 mov	 ecx, DWORD PTR [rdx+rcx]
  0047e	8b 44 04 70	 mov	 eax, DWORD PTR OrResult$[rsp+rax]
  00482	0b c1		 or	 eax, ecx
  00484	b9 04 00 00 00	 mov	 ecx, 4
  00489	48 6b c9 0d	 imul	 rcx, rcx, 13
  0048d	89 44 0c 70	 mov	 DWORD PTR OrResult$[rsp+rcx], eax

; 8490 :         OrResult[14] |= OrConstant[4];

  00491	b8 04 00 00 00	 mov	 eax, 4
  00496	48 6b c0 0e	 imul	 rax, rax, 14
  0049a	b9 04 00 00 00	 mov	 ecx, 4
  0049f	48 6b c9 04	 imul	 rcx, rcx, 4
  004a3	48 8d 15 00 00
	00 00		 lea	 rdx, OFFSET FLAT:?OrConstant@?1??gen_csv_sid@@9@9
  004aa	8b 0c 0a	 mov	 ecx, DWORD PTR [rdx+rcx]
  004ad	8b 44 04 70	 mov	 eax, DWORD PTR OrResult$[rsp+rax]
  004b1	0b c1		 or	 eax, ecx
  004b3	b9 04 00 00 00	 mov	 ecx, 4
  004b8	48 6b c9 0e	 imul	 rcx, rcx, 14
  004bc	89 44 0c 70	 mov	 DWORD PTR OrResult$[rsp+rcx], eax

; 8491 :         OrResult[17] |= OrConstant[11];

  004c0	b8 04 00 00 00	 mov	 eax, 4
  004c5	48 6b c0 11	 imul	 rax, rax, 17
  004c9	b9 04 00 00 00	 mov	 ecx, 4
  004ce	48 6b c9 0b	 imul	 rcx, rcx, 11
  004d2	48 8d 15 00 00
	00 00		 lea	 rdx, OFFSET FLAT:?OrConstant@?1??gen_csv_sid@@9@9
  004d9	8b 0c 0a	 mov	 ecx, DWORD PTR [rdx+rcx]
  004dc	8b 44 04 70	 mov	 eax, DWORD PTR OrResult$[rsp+rax]
  004e0	0b c1		 or	 eax, ecx
  004e2	b9 04 00 00 00	 mov	 ecx, 4
  004e7	48 6b c9 11	 imul	 rcx, rcx, 17
  004eb	89 44 0c 70	 mov	 DWORD PTR OrResult$[rsp+rcx], eax

; 8492 :         OrResult[18] |= OrConstant[9];

  004ef	b8 04 00 00 00	 mov	 eax, 4
  004f4	48 6b c0 12	 imul	 rax, rax, 18
  004f8	b9 04 00 00 00	 mov	 ecx, 4
  004fd	48 6b c9 09	 imul	 rcx, rcx, 9
  00501	48 8d 15 00 00
	00 00		 lea	 rdx, OFFSET FLAT:?OrConstant@?1??gen_csv_sid@@9@9
  00508	8b 0c 0a	 mov	 ecx, DWORD PTR [rdx+rcx]
  0050b	8b 44 04 70	 mov	 eax, DWORD PTR OrResult$[rsp+rax]
  0050f	0b c1		 or	 eax, ecx
  00511	b9 04 00 00 00	 mov	 ecx, 4
  00516	48 6b c9 12	 imul	 rcx, rcx, 18
  0051a	89 44 0c 70	 mov	 DWORD PTR OrResult$[rsp+rcx], eax

; 8493 :         OrResult[21] |= OrConstant[3];

  0051e	b8 04 00 00 00	 mov	 eax, 4
  00523	48 6b c0 15	 imul	 rax, rax, 21
  00527	b9 04 00 00 00	 mov	 ecx, 4
  0052c	48 6b c9 03	 imul	 rcx, rcx, 3
  00530	48 8d 15 00 00
	00 00		 lea	 rdx, OFFSET FLAT:?OrConstant@?1??gen_csv_sid@@9@9
  00537	8b 0c 0a	 mov	 ecx, DWORD PTR [rdx+rcx]
  0053a	8b 44 04 70	 mov	 eax, DWORD PTR OrResult$[rsp+rax]
  0053e	0b c1		 or	 eax, ecx
  00540	b9 04 00 00 00	 mov	 ecx, 4
  00545	48 6b c9 15	 imul	 rcx, rcx, 21
  00549	89 44 0c 70	 mov	 DWORD PTR OrResult$[rsp+rcx], eax

; 8494 :         OrResult[22] |= OrConstant[11];

  0054d	b8 04 00 00 00	 mov	 eax, 4
  00552	48 6b c0 16	 imul	 rax, rax, 22
  00556	b9 04 00 00 00	 mov	 ecx, 4
  0055b	48 6b c9 0b	 imul	 rcx, rcx, 11
  0055f	48 8d 15 00 00
	00 00		 lea	 rdx, OFFSET FLAT:?OrConstant@?1??gen_csv_sid@@9@9
  00566	8b 0c 0a	 mov	 ecx, DWORD PTR [rdx+rcx]
  00569	8b 44 04 70	 mov	 eax, DWORD PTR OrResult$[rsp+rax]
  0056d	0b c1		 or	 eax, ecx
  0056f	b9 04 00 00 00	 mov	 ecx, 4
  00574	48 6b c9 16	 imul	 rcx, rcx, 22
  00578	89 44 0c 70	 mov	 DWORD PTR OrResult$[rsp+rcx], eax

; 8495 :         OrResult[25] |= OrConstant[5];

  0057c	b8 04 00 00 00	 mov	 eax, 4
  00581	48 6b c0 19	 imul	 rax, rax, 25
  00585	b9 04 00 00 00	 mov	 ecx, 4
  0058a	48 6b c9 05	 imul	 rcx, rcx, 5
  0058e	48 8d 15 00 00
	00 00		 lea	 rdx, OFFSET FLAT:?OrConstant@?1??gen_csv_sid@@9@9
  00595	8b 0c 0a	 mov	 ecx, DWORD PTR [rdx+rcx]
  00598	8b 44 04 70	 mov	 eax, DWORD PTR OrResult$[rsp+rax]
  0059c	0b c1		 or	 eax, ecx
  0059e	b9 04 00 00 00	 mov	 ecx, 4
  005a3	48 6b c9 19	 imul	 rcx, rcx, 25
  005a7	89 44 0c 70	 mov	 DWORD PTR OrResult$[rsp+rcx], eax

; 8496 :         OrResult[26] |= OrConstant[8];

  005ab	b8 04 00 00 00	 mov	 eax, 4
  005b0	48 6b c0 1a	 imul	 rax, rax, 26
  005b4	b9 04 00 00 00	 mov	 ecx, 4
  005b9	48 6b c9 08	 imul	 rcx, rcx, 8
  005bd	48 8d 15 00 00
	00 00		 lea	 rdx, OFFSET FLAT:?OrConstant@?1??gen_csv_sid@@9@9
  005c4	8b 0c 0a	 mov	 ecx, DWORD PTR [rdx+rcx]
  005c7	8b 44 04 70	 mov	 eax, DWORD PTR OrResult$[rsp+rax]
  005cb	0b c1		 or	 eax, ecx
  005cd	b9 04 00 00 00	 mov	 ecx, 4
  005d2	48 6b c9 1a	 imul	 rcx, rcx, 26
  005d6	89 44 0c 70	 mov	 DWORD PTR OrResult$[rsp+rcx], eax

; 8497 :         OrResult[28] |= OrConstant[0];

  005da	b8 04 00 00 00	 mov	 eax, 4
  005df	48 6b c0 1c	 imul	 rax, rax, 28
  005e3	b9 04 00 00 00	 mov	 ecx, 4
  005e8	48 6b c9 00	 imul	 rcx, rcx, 0
  005ec	48 8d 15 00 00
	00 00		 lea	 rdx, OFFSET FLAT:?OrConstant@?1??gen_csv_sid@@9@9
  005f3	8b 0c 0a	 mov	 ecx, DWORD PTR [rdx+rcx]
  005f6	8b 44 04 70	 mov	 eax, DWORD PTR OrResult$[rsp+rax]
  005fa	0b c1		 or	 eax, ecx
  005fc	b9 04 00 00 00	 mov	 ecx, 4
  00601	48 6b c9 1c	 imul	 rcx, rcx, 28
  00605	89 44 0c 70	 mov	 DWORD PTR OrResult$[rsp+rcx], eax

; 8498 :         OrResult[31] |= OrConstant[2];

  00609	b8 04 00 00 00	 mov	 eax, 4
  0060e	48 6b c0 1f	 imul	 rax, rax, 31
  00612	b9 04 00 00 00	 mov	 ecx, 4
  00617	48 6b c9 02	 imul	 rcx, rcx, 2
  0061b	48 8d 15 00 00
	00 00		 lea	 rdx, OFFSET FLAT:?OrConstant@?1??gen_csv_sid@@9@9
  00622	8b 0c 0a	 mov	 ecx, DWORD PTR [rdx+rcx]
  00625	8b 44 04 70	 mov	 eax, DWORD PTR OrResult$[rsp+rax]
  00629	0b c1		 or	 eax, ecx
  0062b	b9 04 00 00 00	 mov	 ecx, 4
  00630	48 6b c9 1f	 imul	 rcx, rcx, 31
  00634	89 44 0c 70	 mov	 DWORD PTR OrResult$[rsp+rcx], eax
$LN12@gen_csv_si:

; 8499 :     }
; 8500 :     if ((pClock1[0] & 0x20 ) == 0x20)

  00638	b8 01 00 00 00	 mov	 eax, 1
  0063d	48 6b c0 00	 imul	 rax, rax, 0
  00641	48 8b 8c 24 50
	01 00 00	 mov	 rcx, QWORD PTR pClock1$[rsp]
  00649	0f b6 04 01	 movzx	 eax, BYTE PTR [rcx+rax]
  0064d	83 e0 20	 and	 eax, 32			; 00000020H
  00650	83 f8 20	 cmp	 eax, 32			; 00000020H
  00653	0f 85 34 02 00
	00		 jne	 $LN13@gen_csv_si

; 8501 :     {
; 8502 :         OrResult[0]  |= OrConstant[3];

  00659	b8 04 00 00 00	 mov	 eax, 4
  0065e	48 6b c0 00	 imul	 rax, rax, 0
  00662	b9 04 00 00 00	 mov	 ecx, 4
  00667	48 6b c9 03	 imul	 rcx, rcx, 3
  0066b	48 8d 15 00 00
	00 00		 lea	 rdx, OFFSET FLAT:?OrConstant@?1??gen_csv_sid@@9@9
  00672	8b 0c 0a	 mov	 ecx, DWORD PTR [rdx+rcx]
  00675	8b 44 04 70	 mov	 eax, DWORD PTR OrResult$[rsp+rax]
  00679	0b c1		 or	 eax, ecx
  0067b	b9 04 00 00 00	 mov	 ecx, 4
  00680	48 6b c9 00	 imul	 rcx, rcx, 0
  00684	89 44 0c 70	 mov	 DWORD PTR OrResult$[rsp+rcx], eax

; 8503 :         OrResult[5]  |= OrConstant[8];

  00688	b8 04 00 00 00	 mov	 eax, 4
  0068d	48 6b c0 05	 imul	 rax, rax, 5
  00691	b9 04 00 00 00	 mov	 ecx, 4
  00696	48 6b c9 08	 imul	 rcx, rcx, 8
  0069a	48 8d 15 00 00
	00 00		 lea	 rdx, OFFSET FLAT:?OrConstant@?1??gen_csv_sid@@9@9
  006a1	8b 0c 0a	 mov	 ecx, DWORD PTR [rdx+rcx]
  006a4	8b 44 04 70	 mov	 eax, DWORD PTR OrResult$[rsp+rax]
  006a8	0b c1		 or	 eax, ecx
  006aa	b9 04 00 00 00	 mov	 ecx, 4
  006af	48 6b c9 05	 imul	 rcx, rcx, 5
  006b3	89 44 0c 70	 mov	 DWORD PTR OrResult$[rsp+rcx], eax

; 8504 :         OrResult[6]  |= OrConstant[4];

  006b7	b8 04 00 00 00	 mov	 eax, 4
  006bc	48 6b c0 06	 imul	 rax, rax, 6
  006c0	b9 04 00 00 00	 mov	 ecx, 4
  006c5	48 6b c9 04	 imul	 rcx, rcx, 4
  006c9	48 8d 15 00 00
	00 00		 lea	 rdx, OFFSET FLAT:?OrConstant@?1??gen_csv_sid@@9@9
  006d0	8b 0c 0a	 mov	 ecx, DWORD PTR [rdx+rcx]
  006d3	8b 44 04 70	 mov	 eax, DWORD PTR OrResult$[rsp+rax]
  006d7	0b c1		 or	 eax, ecx
  006d9	b9 04 00 00 00	 mov	 ecx, 4
  006de	48 6b c9 06	 imul	 rcx, rcx, 6
  006e2	89 44 0c 70	 mov	 DWORD PTR OrResult$[rsp+rcx], eax

; 8505 :         OrResult[9]  |= OrConstant[0];

  006e6	b8 04 00 00 00	 mov	 eax, 4
  006eb	48 6b c0 09	 imul	 rax, rax, 9
  006ef	b9 04 00 00 00	 mov	 ecx, 4
  006f4	48 6b c9 00	 imul	 rcx, rcx, 0
  006f8	48 8d 15 00 00
	00 00		 lea	 rdx, OFFSET FLAT:?OrConstant@?1??gen_csv_sid@@9@9
  006ff	8b 0c 0a	 mov	 ecx, DWORD PTR [rdx+rcx]
  00702	8b 44 04 70	 mov	 eax, DWORD PTR OrResult$[rsp+rax]
  00706	0b c1		 or	 eax, ecx
  00708	b9 04 00 00 00	 mov	 ecx, 4
  0070d	48 6b c9 09	 imul	 rcx, rcx, 9
  00711	89 44 0c 70	 mov	 DWORD PTR OrResult$[rsp+rcx], eax

; 8506 :         OrResult[10] |= OrConstant[5];

  00715	b8 04 00 00 00	 mov	 eax, 4
  0071a	48 6b c0 0a	 imul	 rax, rax, 10
  0071e	b9 04 00 00 00	 mov	 ecx, 4
  00723	48 6b c9 05	 imul	 rcx, rcx, 5
  00727	48 8d 15 00 00
	00 00		 lea	 rdx, OFFSET FLAT:?OrConstant@?1??gen_csv_sid@@9@9
  0072e	8b 0c 0a	 mov	 ecx, DWORD PTR [rdx+rcx]
  00731	8b 44 04 70	 mov	 eax, DWORD PTR OrResult$[rsp+rax]
  00735	0b c1		 or	 eax, ecx
  00737	b9 04 00 00 00	 mov	 ecx, 4
  0073c	48 6b c9 0a	 imul	 rcx, rcx, 10
  00740	89 44 0c 70	 mov	 DWORD PTR OrResult$[rsp+rcx], eax

; 8507 :         OrResult[13] |= OrConstant[7];

  00744	b8 04 00 00 00	 mov	 eax, 4
  00749	48 6b c0 0d	 imul	 rax, rax, 13
  0074d	b9 04 00 00 00	 mov	 ecx, 4
  00752	48 6b c9 07	 imul	 rcx, rcx, 7
  00756	48 8d 15 00 00
	00 00		 lea	 rdx, OFFSET FLAT:?OrConstant@?1??gen_csv_sid@@9@9
  0075d	8b 0c 0a	 mov	 ecx, DWORD PTR [rdx+rcx]
  00760	8b 44 04 70	 mov	 eax, DWORD PTR OrResult$[rsp+rax]
  00764	0b c1		 or	 eax, ecx
  00766	b9 04 00 00 00	 mov	 ecx, 4
  0076b	48 6b c9 0d	 imul	 rcx, rcx, 13
  0076f	89 44 0c 70	 mov	 DWORD PTR OrResult$[rsp+rcx], eax

; 8508 :         OrResult[17] |= OrConstant[5];

  00773	b8 04 00 00 00	 mov	 eax, 4
  00778	48 6b c0 11	 imul	 rax, rax, 17
  0077c	b9 04 00 00 00	 mov	 ecx, 4
  00781	48 6b c9 05	 imul	 rcx, rcx, 5
  00785	48 8d 15 00 00
	00 00		 lea	 rdx, OFFSET FLAT:?OrConstant@?1??gen_csv_sid@@9@9
  0078c	8b 0c 0a	 mov	 ecx, DWORD PTR [rdx+rcx]
  0078f	8b 44 04 70	 mov	 eax, DWORD PTR OrResult$[rsp+rax]
  00793	0b c1		 or	 eax, ecx
  00795	b9 04 00 00 00	 mov	 ecx, 4
  0079a	48 6b c9 11	 imul	 rcx, rcx, 17
  0079e	89 44 0c 70	 mov	 DWORD PTR OrResult$[rsp+rcx], eax

; 8509 :         OrResult[18] |= OrConstant[8];

  007a2	b8 04 00 00 00	 mov	 eax, 4
  007a7	48 6b c0 12	 imul	 rax, rax, 18
  007ab	b9 04 00 00 00	 mov	 ecx, 4
  007b0	48 6b c9 08	 imul	 rcx, rcx, 8
  007b4	48 8d 15 00 00
	00 00		 lea	 rdx, OFFSET FLAT:?OrConstant@?1??gen_csv_sid@@9@9
  007bb	8b 0c 0a	 mov	 ecx, DWORD PTR [rdx+rcx]
  007be	8b 44 04 70	 mov	 eax, DWORD PTR OrResult$[rsp+rax]
  007c2	0b c1		 or	 eax, ecx
  007c4	b9 04 00 00 00	 mov	 ecx, 4
  007c9	48 6b c9 12	 imul	 rcx, rcx, 18
  007cd	89 44 0c 70	 mov	 DWORD PTR OrResult$[rsp+rcx], eax

; 8510 :         OrResult[20] |= OrConstant[0];

  007d1	b8 04 00 00 00	 mov	 eax, 4
  007d6	48 6b c0 14	 imul	 rax, rax, 20
  007da	b9 04 00 00 00	 mov	 ecx, 4
  007df	48 6b c9 00	 imul	 rcx, rcx, 0
  007e3	48 8d 15 00 00
	00 00		 lea	 rdx, OFFSET FLAT:?OrConstant@?1??gen_csv_sid@@9@9
  007ea	8b 0c 0a	 mov	 ecx, DWORD PTR [rdx+rcx]
  007ed	8b 44 04 70	 mov	 eax, DWORD PTR OrResult$[rsp+rax]
  007f1	0b c1		 or	 eax, ecx
  007f3	b9 04 00 00 00	 mov	 ecx, 4
  007f8	48 6b c9 14	 imul	 rcx, rcx, 20
  007fc	89 44 0c 70	 mov	 DWORD PTR OrResult$[rsp+rcx], eax

; 8511 :         OrResult[23] |= OrConstant[6];

  00800	b8 04 00 00 00	 mov	 eax, 4
  00805	48 6b c0 17	 imul	 rax, rax, 23
  00809	b9 04 00 00 00	 mov	 ecx, 4
  0080e	48 6b c9 06	 imul	 rcx, rcx, 6
  00812	48 8d 15 00 00
	00 00		 lea	 rdx, OFFSET FLAT:?OrConstant@?1??gen_csv_sid@@9@9
  00819	8b 0c 0a	 mov	 ecx, DWORD PTR [rdx+rcx]
  0081c	8b 44 04 70	 mov	 eax, DWORD PTR OrResult$[rsp+rax]
  00820	0b c1		 or	 eax, ecx
  00822	b9 04 00 00 00	 mov	 ecx, 4
  00827	48 6b c9 17	 imul	 rcx, rcx, 23
  0082b	89 44 0c 70	 mov	 DWORD PTR OrResult$[rsp+rcx], eax

; 8512 :         OrResult[27] |= OrConstant[9];

  0082f	b8 04 00 00 00	 mov	 eax, 4
  00834	48 6b c0 1b	 imul	 rax, rax, 27
  00838	b9 04 00 00 00	 mov	 ecx, 4
  0083d	48 6b c9 09	 imul	 rcx, rcx, 9
  00841	48 8d 15 00 00
	00 00		 lea	 rdx, OFFSET FLAT:?OrConstant@?1??gen_csv_sid@@9@9
  00848	8b 0c 0a	 mov	 ecx, DWORD PTR [rdx+rcx]
  0084b	8b 44 04 70	 mov	 eax, DWORD PTR OrResult$[rsp+rax]
  0084f	0b c1		 or	 eax, ecx
  00851	b9 04 00 00 00	 mov	 ecx, 4
  00856	48 6b c9 1b	 imul	 rcx, rcx, 27
  0085a	89 44 0c 70	 mov	 DWORD PTR OrResult$[rsp+rcx], eax

; 8513 :         OrResult[30] |= OrConstant[6];

  0085e	b8 04 00 00 00	 mov	 eax, 4
  00863	48 6b c0 1e	 imul	 rax, rax, 30
  00867	b9 04 00 00 00	 mov	 ecx, 4
  0086c	48 6b c9 06	 imul	 rcx, rcx, 6
  00870	48 8d 15 00 00
	00 00		 lea	 rdx, OFFSET FLAT:?OrConstant@?1??gen_csv_sid@@9@9
  00877	8b 0c 0a	 mov	 ecx, DWORD PTR [rdx+rcx]
  0087a	8b 44 04 70	 mov	 eax, DWORD PTR OrResult$[rsp+rax]
  0087e	0b c1		 or	 eax, ecx
  00880	b9 04 00 00 00	 mov	 ecx, 4
  00885	48 6b c9 1e	 imul	 rcx, rcx, 30
  00889	89 44 0c 70	 mov	 DWORD PTR OrResult$[rsp+rcx], eax
$LN13@gen_csv_si:

; 8514 :     }
; 8515 :     if ((pClock1[0] & 0x10 ) == 0x10)

  0088d	b8 01 00 00 00	 mov	 eax, 1
  00892	48 6b c0 00	 imul	 rax, rax, 0
  00896	48 8b 8c 24 50
	01 00 00	 mov	 rcx, QWORD PTR pClock1$[rsp]
  0089e	0f b6 04 01	 movzx	 eax, BYTE PTR [rcx+rax]
  008a2	83 e0 10	 and	 eax, 16
  008a5	83 f8 10	 cmp	 eax, 16
  008a8	0f 85 92 02 00
	00		 jne	 $LN14@gen_csv_si

; 8516 :     {
; 8517 :         OrResult[0]  |= OrConstant[21];

  008ae	b8 04 00 00 00	 mov	 eax, 4
  008b3	48 6b c0 00	 imul	 rax, rax, 0
  008b7	b9 04 00 00 00	 mov	 ecx, 4
  008bc	48 6b c9 15	 imul	 rcx, rcx, 21
  008c0	48 8d 15 00 00
	00 00		 lea	 rdx, OFFSET FLAT:?OrConstant@?1??gen_csv_sid@@9@9
  008c7	8b 0c 0a	 mov	 ecx, DWORD PTR [rdx+rcx]
  008ca	8b 44 04 70	 mov	 eax, DWORD PTR OrResult$[rsp+rax]
  008ce	0b c1		 or	 eax, ecx
  008d0	b9 04 00 00 00	 mov	 ecx, 4
  008d5	48 6b c9 00	 imul	 rcx, rcx, 0
  008d9	89 44 0c 70	 mov	 DWORD PTR OrResult$[rsp+rcx], eax

; 8518 :         OrResult[3]  |= OrConstant[22];

  008dd	b8 04 00 00 00	 mov	 eax, 4
  008e2	48 6b c0 03	 imul	 rax, rax, 3
  008e6	b9 04 00 00 00	 mov	 ecx, 4
  008eb	48 6b c9 16	 imul	 rcx, rcx, 22
  008ef	48 8d 15 00 00
	00 00		 lea	 rdx, OFFSET FLAT:?OrConstant@?1??gen_csv_sid@@9@9
  008f6	8b 0c 0a	 mov	 ecx, DWORD PTR [rdx+rcx]
  008f9	8b 44 04 70	 mov	 eax, DWORD PTR OrResult$[rsp+rax]
  008fd	0b c1		 or	 eax, ecx
  008ff	b9 04 00 00 00	 mov	 ecx, 4
  00904	48 6b c9 03	 imul	 rcx, rcx, 3
  00908	89 44 0c 70	 mov	 DWORD PTR OrResult$[rsp+rcx], eax

; 8519 :         OrResult[4]  |= OrConstant[14];

  0090c	b8 04 00 00 00	 mov	 eax, 4
  00911	48 6b c0 04	 imul	 rax, rax, 4
  00915	b9 04 00 00 00	 mov	 ecx, 4
  0091a	48 6b c9 0e	 imul	 rcx, rcx, 14
  0091e	48 8d 15 00 00
	00 00		 lea	 rdx, OFFSET FLAT:?OrConstant@?1??gen_csv_sid@@9@9
  00925	8b 0c 0a	 mov	 ecx, DWORD PTR [rdx+rcx]
  00928	8b 44 04 70	 mov	 eax, DWORD PTR OrResult$[rsp+rax]
  0092c	0b c1		 or	 eax, ecx
  0092e	b9 04 00 00 00	 mov	 ecx, 4
  00933	48 6b c9 04	 imul	 rcx, rcx, 4
  00937	89 44 0c 70	 mov	 DWORD PTR OrResult$[rsp+rcx], eax

; 8520 :         OrResult[7]  |= OrConstant[16];

  0093b	b8 04 00 00 00	 mov	 eax, 4
  00940	48 6b c0 07	 imul	 rax, rax, 7
  00944	b9 04 00 00 00	 mov	 ecx, 4
  00949	48 6b c9 10	 imul	 rcx, rcx, 16
  0094d	48 8d 15 00 00
	00 00		 lea	 rdx, OFFSET FLAT:?OrConstant@?1??gen_csv_sid@@9@9
  00954	8b 0c 0a	 mov	 ecx, DWORD PTR [rdx+rcx]
  00957	8b 44 04 70	 mov	 eax, DWORD PTR OrResult$[rsp+rax]
  0095b	0b c1		 or	 eax, ecx
  0095d	b9 04 00 00 00	 mov	 ecx, 4
  00962	48 6b c9 07	 imul	 rcx, rcx, 7
  00966	89 44 0c 70	 mov	 DWORD PTR OrResult$[rsp+rcx], eax

; 8521 :         OrResult[10] |= OrConstant[15];

  0096a	b8 04 00 00 00	 mov	 eax, 4
  0096f	48 6b c0 0a	 imul	 rax, rax, 10
  00973	b9 04 00 00 00	 mov	 ecx, 4
  00978	48 6b c9 0f	 imul	 rcx, rcx, 15
  0097c	48 8d 15 00 00
	00 00		 lea	 rdx, OFFSET FLAT:?OrConstant@?1??gen_csv_sid@@9@9
  00983	8b 0c 0a	 mov	 ecx, DWORD PTR [rdx+rcx]
  00986	8b 44 04 70	 mov	 eax, DWORD PTR OrResult$[rsp+rax]
  0098a	0b c1		 or	 eax, ecx
  0098c	b9 04 00 00 00	 mov	 ecx, 4
  00991	48 6b c9 0a	 imul	 rcx, rcx, 10
  00995	89 44 0c 70	 mov	 DWORD PTR OrResult$[rsp+rcx], eax

; 8522 :         OrResult[12] |= OrConstant[20];

  00999	b8 04 00 00 00	 mov	 eax, 4
  0099e	48 6b c0 0c	 imul	 rax, rax, 12
  009a2	b9 04 00 00 00	 mov	 ecx, 4
  009a7	48 6b c9 14	 imul	 rcx, rcx, 20
  009ab	48 8d 15 00 00
	00 00		 lea	 rdx, OFFSET FLAT:?OrConstant@?1??gen_csv_sid@@9@9
  009b2	8b 0c 0a	 mov	 ecx, DWORD PTR [rdx+rcx]
  009b5	8b 44 04 70	 mov	 eax, DWORD PTR OrResult$[rsp+rax]
  009b9	0b c1		 or	 eax, ecx
  009bb	b9 04 00 00 00	 mov	 ecx, 4
  009c0	48 6b c9 0c	 imul	 rcx, rcx, 12
  009c4	89 44 0c 70	 mov	 DWORD PTR OrResult$[rsp+rcx], eax

; 8523 :         OrResult[14] |= OrConstant[12];

  009c8	b8 04 00 00 00	 mov	 eax, 4
  009cd	48 6b c0 0e	 imul	 rax, rax, 14
  009d1	b9 04 00 00 00	 mov	 ecx, 4
  009d6	48 6b c9 0c	 imul	 rcx, rcx, 12
  009da	48 8d 15 00 00
	00 00		 lea	 rdx, OFFSET FLAT:?OrConstant@?1??gen_csv_sid@@9@9
  009e1	8b 0c 0a	 mov	 ecx, DWORD PTR [rdx+rcx]
  009e4	8b 44 04 70	 mov	 eax, DWORD PTR OrResult$[rsp+rax]
  009e8	0b c1		 or	 eax, ecx
  009ea	b9 04 00 00 00	 mov	 ecx, 4
  009ef	48 6b c9 0e	 imul	 rcx, rcx, 14
  009f3	89 44 0c 70	 mov	 DWORD PTR OrResult$[rsp+rcx], eax

; 8524 :         OrResult[17] |= OrConstant[19];

  009f7	b8 04 00 00 00	 mov	 eax, 4
  009fc	48 6b c0 11	 imul	 rax, rax, 17
  00a00	b9 04 00 00 00	 mov	 ecx, 4
  00a05	48 6b c9 13	 imul	 rcx, rcx, 19
  00a09	48 8d 15 00 00
	00 00		 lea	 rdx, OFFSET FLAT:?OrConstant@?1??gen_csv_sid@@9@9
  00a10	8b 0c 0a	 mov	 ecx, DWORD PTR [rdx+rcx]
  00a13	8b 44 04 70	 mov	 eax, DWORD PTR OrResult$[rsp+rax]
  00a17	0b c1		 or	 eax, ecx
  00a19	b9 04 00 00 00	 mov	 ecx, 4
  00a1e	48 6b c9 11	 imul	 rcx, rcx, 17
  00a22	89 44 0c 70	 mov	 DWORD PTR OrResult$[rsp+rcx], eax

; 8525 :         OrResult[18] |= OrConstant[18];

  00a26	b8 04 00 00 00	 mov	 eax, 4
  00a2b	48 6b c0 12	 imul	 rax, rax, 18
  00a2f	b9 04 00 00 00	 mov	 ecx, 4
  00a34	48 6b c9 12	 imul	 rcx, rcx, 18
  00a38	48 8d 15 00 00
	00 00		 lea	 rdx, OFFSET FLAT:?OrConstant@?1??gen_csv_sid@@9@9
  00a3f	8b 0c 0a	 mov	 ecx, DWORD PTR [rdx+rcx]
  00a42	8b 44 04 70	 mov	 eax, DWORD PTR OrResult$[rsp+rax]
  00a46	0b c1		 or	 eax, ecx
  00a48	b9 04 00 00 00	 mov	 ecx, 4
  00a4d	48 6b c9 12	 imul	 rcx, rcx, 18
  00a51	89 44 0c 70	 mov	 DWORD PTR OrResult$[rsp+rcx], eax

; 8526 :         OrResult[21] |= OrConstant[18];

  00a55	b8 04 00 00 00	 mov	 eax, 4
  00a5a	48 6b c0 15	 imul	 rax, rax, 21
  00a5e	b9 04 00 00 00	 mov	 ecx, 4
  00a63	48 6b c9 12	 imul	 rcx, rcx, 18
  00a67	48 8d 15 00 00
	00 00		 lea	 rdx, OFFSET FLAT:?OrConstant@?1??gen_csv_sid@@9@9
  00a6e	8b 0c 0a	 mov	 ecx, DWORD PTR [rdx+rcx]
  00a71	8b 44 04 70	 mov	 eax, DWORD PTR OrResult$[rsp+rax]
  00a75	0b c1		 or	 eax, ecx
  00a77	b9 04 00 00 00	 mov	 ecx, 4
  00a7c	48 6b c9 15	 imul	 rcx, rcx, 21
  00a80	89 44 0c 70	 mov	 DWORD PTR OrResult$[rsp+rcx], eax

; 8527 :         OrResult[23] |= OrConstant[17];

  00a84	b8 04 00 00 00	 mov	 eax, 4
  00a89	48 6b c0 17	 imul	 rax, rax, 23
  00a8d	b9 04 00 00 00	 mov	 ecx, 4
  00a92	48 6b c9 11	 imul	 rcx, rcx, 17
  00a96	48 8d 15 00 00
	00 00		 lea	 rdx, OFFSET FLAT:?OrConstant@?1??gen_csv_sid@@9@9
  00a9d	8b 0c 0a	 mov	 ecx, DWORD PTR [rdx+rcx]
  00aa0	8b 44 04 70	 mov	 eax, DWORD PTR OrResult$[rsp+rax]
  00aa4	0b c1		 or	 eax, ecx
  00aa6	b9 04 00 00 00	 mov	 ecx, 4
  00aab	48 6b c9 17	 imul	 rcx, rcx, 23
  00aaf	89 44 0c 70	 mov	 DWORD PTR OrResult$[rsp+rcx], eax

; 8528 :         OrResult[25] |= OrConstant[20];

  00ab3	b8 04 00 00 00	 mov	 eax, 4
  00ab8	48 6b c0 19	 imul	 rax, rax, 25
  00abc	b9 04 00 00 00	 mov	 ecx, 4
  00ac1	48 6b c9 14	 imul	 rcx, rcx, 20
  00ac5	48 8d 15 00 00
	00 00		 lea	 rdx, OFFSET FLAT:?OrConstant@?1??gen_csv_sid@@9@9
  00acc	8b 0c 0a	 mov	 ecx, DWORD PTR [rdx+rcx]
  00acf	8b 44 04 70	 mov	 eax, DWORD PTR OrResult$[rsp+rax]
  00ad3	0b c1		 or	 eax, ecx
  00ad5	b9 04 00 00 00	 mov	 ecx, 4
  00ada	48 6b c9 19	 imul	 rcx, rcx, 25
  00ade	89 44 0c 70	 mov	 DWORD PTR OrResult$[rsp+rcx], eax

; 8529 :         OrResult[26] |= OrConstant[13];

  00ae2	b8 04 00 00 00	 mov	 eax, 4
  00ae7	48 6b c0 1a	 imul	 rax, rax, 26
  00aeb	b9 04 00 00 00	 mov	 ecx, 4
  00af0	48 6b c9 0d	 imul	 rcx, rcx, 13
  00af4	48 8d 15 00 00
	00 00		 lea	 rdx, OFFSET FLAT:?OrConstant@?1??gen_csv_sid@@9@9
  00afb	8b 0c 0a	 mov	 ecx, DWORD PTR [rdx+rcx]
  00afe	8b 44 04 70	 mov	 eax, DWORD PTR OrResult$[rsp+rax]
  00b02	0b c1		 or	 eax, ecx
  00b04	b9 04 00 00 00	 mov	 ecx, 4
  00b09	48 6b c9 1a	 imul	 rcx, rcx, 26
  00b0d	89 44 0c 70	 mov	 DWORD PTR OrResult$[rsp+rcx], eax

; 8530 :         OrResult[30] |= OrConstant[17];

  00b11	b8 04 00 00 00	 mov	 eax, 4
  00b16	48 6b c0 1e	 imul	 rax, rax, 30
  00b1a	b9 04 00 00 00	 mov	 ecx, 4
  00b1f	48 6b c9 11	 imul	 rcx, rcx, 17
  00b23	48 8d 15 00 00
	00 00		 lea	 rdx, OFFSET FLAT:?OrConstant@?1??gen_csv_sid@@9@9
  00b2a	8b 0c 0a	 mov	 ecx, DWORD PTR [rdx+rcx]
  00b2d	8b 44 04 70	 mov	 eax, DWORD PTR OrResult$[rsp+rax]
  00b31	0b c1		 or	 eax, ecx
  00b33	b9 04 00 00 00	 mov	 ecx, 4
  00b38	48 6b c9 1e	 imul	 rcx, rcx, 30
  00b3c	89 44 0c 70	 mov	 DWORD PTR OrResult$[rsp+rcx], eax
$LN14@gen_csv_si:

; 8531 :     }
; 8532 :     if ((pClock1[0] & 0x08 ) == 0x08)

  00b40	b8 01 00 00 00	 mov	 eax, 1
  00b45	48 6b c0 00	 imul	 rax, rax, 0
  00b49	48 8b 8c 24 50
	01 00 00	 mov	 rcx, QWORD PTR pClock1$[rsp]
  00b51	0f b6 04 01	 movzx	 eax, BYTE PTR [rcx+rax]
  00b55	83 e0 08	 and	 eax, 8
  00b58	83 f8 08	 cmp	 eax, 8
  00b5b	0f 85 92 02 00
	00		 jne	 $LN15@gen_csv_si

; 8533 :     {
; 8534 :         OrResult[0]  |= OrConstant[13];

  00b61	b8 04 00 00 00	 mov	 eax, 4
  00b66	48 6b c0 00	 imul	 rax, rax, 0
  00b6a	b9 04 00 00 00	 mov	 ecx, 4
  00b6f	48 6b c9 0d	 imul	 rcx, rcx, 13
  00b73	48 8d 15 00 00
	00 00		 lea	 rdx, OFFSET FLAT:?OrConstant@?1??gen_csv_sid@@9@9
  00b7a	8b 0c 0a	 mov	 ecx, DWORD PTR [rdx+rcx]
  00b7d	8b 44 04 70	 mov	 eax, DWORD PTR OrResult$[rsp+rax]
  00b81	0b c1		 or	 eax, ecx
  00b83	b9 04 00 00 00	 mov	 ecx, 4
  00b88	48 6b c9 00	 imul	 rcx, rcx, 0
  00b8c	89 44 0c 70	 mov	 DWORD PTR OrResult$[rsp+rcx], eax

; 8535 :         OrResult[2]  |= OrConstant[23];

  00b90	b8 04 00 00 00	 mov	 eax, 4
  00b95	48 6b c0 02	 imul	 rax, rax, 2
  00b99	b9 04 00 00 00	 mov	 ecx, 4
  00b9e	48 6b c9 17	 imul	 rcx, rcx, 23
  00ba2	48 8d 15 00 00
	00 00		 lea	 rdx, OFFSET FLAT:?OrConstant@?1??gen_csv_sid@@9@9
  00ba9	8b 0c 0a	 mov	 ecx, DWORD PTR [rdx+rcx]
  00bac	8b 44 04 70	 mov	 eax, DWORD PTR OrResult$[rsp+rax]
  00bb0	0b c1		 or	 eax, ecx
  00bb2	b9 04 00 00 00	 mov	 ecx, 4
  00bb7	48 6b c9 02	 imul	 rcx, rcx, 2
  00bbb	89 44 0c 70	 mov	 DWORD PTR OrResult$[rsp+rcx], eax

; 8536 :         OrResult[4]  |= OrConstant[17];

  00bbf	b8 04 00 00 00	 mov	 eax, 4
  00bc4	48 6b c0 04	 imul	 rax, rax, 4
  00bc8	b9 04 00 00 00	 mov	 ecx, 4
  00bcd	48 6b c9 11	 imul	 rcx, rcx, 17
  00bd1	48 8d 15 00 00
	00 00		 lea	 rdx, OFFSET FLAT:?OrConstant@?1??gen_csv_sid@@9@9
  00bd8	8b 0c 0a	 mov	 ecx, DWORD PTR [rdx+rcx]
  00bdb	8b 44 04 70	 mov	 eax, DWORD PTR OrResult$[rsp+rax]
  00bdf	0b c1		 or	 eax, ecx
  00be1	b9 04 00 00 00	 mov	 ecx, 4
  00be6	48 6b c9 04	 imul	 rcx, rcx, 4
  00bea	89 44 0c 70	 mov	 DWORD PTR OrResult$[rsp+rcx], eax

; 8537 :         OrResult[7]  |= OrConstant[22];

  00bee	b8 04 00 00 00	 mov	 eax, 4
  00bf3	48 6b c0 07	 imul	 rax, rax, 7
  00bf7	b9 04 00 00 00	 mov	 ecx, 4
  00bfc	48 6b c9 16	 imul	 rcx, rcx, 22
  00c00	48 8d 15 00 00
	00 00		 lea	 rdx, OFFSET FLAT:?OrConstant@?1??gen_csv_sid@@9@9
  00c07	8b 0c 0a	 mov	 ecx, DWORD PTR [rdx+rcx]
  00c0a	8b 44 04 70	 mov	 eax, DWORD PTR OrResult$[rsp+rax]
  00c0e	0b c1		 or	 eax, ecx
  00c10	b9 04 00 00 00	 mov	 ecx, 4
  00c15	48 6b c9 07	 imul	 rcx, rcx, 7
  00c19	89 44 0c 70	 mov	 DWORD PTR OrResult$[rsp+rcx], eax

; 8538 :         OrResult[8]  |= OrConstant[14];

  00c1d	b8 04 00 00 00	 mov	 eax, 4
  00c22	48 6b c0 08	 imul	 rax, rax, 8
  00c26	b9 04 00 00 00	 mov	 ecx, 4
  00c2b	48 6b c9 0e	 imul	 rcx, rcx, 14
  00c2f	48 8d 15 00 00
	00 00		 lea	 rdx, OFFSET FLAT:?OrConstant@?1??gen_csv_sid@@9@9
  00c36	8b 0c 0a	 mov	 ecx, DWORD PTR [rdx+rcx]
  00c39	8b 44 04 70	 mov	 eax, DWORD PTR OrResult$[rsp+rax]
  00c3d	0b c1		 or	 eax, ecx
  00c3f	b9 04 00 00 00	 mov	 ecx, 4
  00c44	48 6b c9 08	 imul	 rcx, rcx, 8
  00c48	89 44 0c 70	 mov	 DWORD PTR OrResult$[rsp+rcx], eax

; 8539 :         OrResult[11] |= OrConstant[16];

  00c4c	b8 04 00 00 00	 mov	 eax, 4
  00c51	48 6b c0 0b	 imul	 rax, rax, 11
  00c55	b9 04 00 00 00	 mov	 ecx, 4
  00c5a	48 6b c9 10	 imul	 rcx, rcx, 16
  00c5e	48 8d 15 00 00
	00 00		 lea	 rdx, OFFSET FLAT:?OrConstant@?1??gen_csv_sid@@9@9
  00c65	8b 0c 0a	 mov	 ecx, DWORD PTR [rdx+rcx]
  00c68	8b 44 04 70	 mov	 eax, DWORD PTR OrResult$[rsp+rax]
  00c6c	0b c1		 or	 eax, ecx
  00c6e	b9 04 00 00 00	 mov	 ecx, 4
  00c73	48 6b c9 0b	 imul	 rcx, rcx, 11
  00c77	89 44 0c 70	 mov	 DWORD PTR OrResult$[rsp+rcx], eax

; 8540 :         OrResult[14] |= OrConstant[15];

  00c7b	b8 04 00 00 00	 mov	 eax, 4
  00c80	48 6b c0 0e	 imul	 rax, rax, 14
  00c84	b9 04 00 00 00	 mov	 ecx, 4
  00c89	48 6b c9 0f	 imul	 rcx, rcx, 15
  00c8d	48 8d 15 00 00
	00 00		 lea	 rdx, OFFSET FLAT:?OrConstant@?1??gen_csv_sid@@9@9
  00c94	8b 0c 0a	 mov	 ecx, DWORD PTR [rdx+rcx]
  00c97	8b 44 04 70	 mov	 eax, DWORD PTR OrResult$[rsp+rax]
  00c9b	0b c1		 or	 eax, ecx
  00c9d	b9 04 00 00 00	 mov	 ecx, 4
  00ca2	48 6b c9 0e	 imul	 rcx, rcx, 14
  00ca6	89 44 0c 70	 mov	 DWORD PTR OrResult$[rsp+rcx], eax

; 8541 :         OrResult[19] |= OrConstant[13];

  00caa	b8 04 00 00 00	 mov	 eax, 4
  00caf	48 6b c0 13	 imul	 rax, rax, 19
  00cb3	b9 04 00 00 00	 mov	 ecx, 4
  00cb8	48 6b c9 0d	 imul	 rcx, rcx, 13
  00cbc	48 8d 15 00 00
	00 00		 lea	 rdx, OFFSET FLAT:?OrConstant@?1??gen_csv_sid@@9@9
  00cc3	8b 0c 0a	 mov	 ecx, DWORD PTR [rdx+rcx]
  00cc6	8b 44 04 70	 mov	 eax, DWORD PTR OrResult$[rsp+rax]
  00cca	0b c1		 or	 eax, ecx
  00ccc	b9 04 00 00 00	 mov	 ecx, 4
  00cd1	48 6b c9 13	 imul	 rcx, rcx, 19
  00cd5	89 44 0c 70	 mov	 DWORD PTR OrResult$[rsp+rcx], eax

; 8542 :         OrResult[21] |= OrConstant[19];

  00cd9	b8 04 00 00 00	 mov	 eax, 4
  00cde	48 6b c0 15	 imul	 rax, rax, 21
  00ce2	b9 04 00 00 00	 mov	 ecx, 4
  00ce7	48 6b c9 13	 imul	 rcx, rcx, 19
  00ceb	48 8d 15 00 00
	00 00		 lea	 rdx, OFFSET FLAT:?OrConstant@?1??gen_csv_sid@@9@9
  00cf2	8b 0c 0a	 mov	 ecx, DWORD PTR [rdx+rcx]
  00cf5	8b 44 04 70	 mov	 eax, DWORD PTR OrResult$[rsp+rax]
  00cf9	0b c1		 or	 eax, ecx
  00cfb	b9 04 00 00 00	 mov	 ecx, 4
  00d00	48 6b c9 15	 imul	 rcx, rcx, 21
  00d04	89 44 0c 70	 mov	 DWORD PTR OrResult$[rsp+rcx], eax

; 8543 :         OrResult[22] |= OrConstant[18];

  00d08	b8 04 00 00 00	 mov	 eax, 4
  00d0d	48 6b c0 16	 imul	 rax, rax, 22
  00d11	b9 04 00 00 00	 mov	 ecx, 4
  00d16	48 6b c9 12	 imul	 rcx, rcx, 18
  00d1a	48 8d 15 00 00
	00 00		 lea	 rdx, OFFSET FLAT:?OrConstant@?1??gen_csv_sid@@9@9
  00d21	8b 0c 0a	 mov	 ecx, DWORD PTR [rdx+rcx]
  00d24	8b 44 04 70	 mov	 eax, DWORD PTR OrResult$[rsp+rax]
  00d28	0b c1		 or	 eax, ecx
  00d2a	b9 04 00 00 00	 mov	 ecx, 4
  00d2f	48 6b c9 16	 imul	 rcx, rcx, 22
  00d33	89 44 0c 70	 mov	 DWORD PTR OrResult$[rsp+rcx], eax

; 8544 :         OrResult[25] |= OrConstant[18];

  00d37	b8 04 00 00 00	 mov	 eax, 4
  00d3c	48 6b c0 19	 imul	 rax, rax, 25
  00d40	b9 04 00 00 00	 mov	 ecx, 4
  00d45	48 6b c9 12	 imul	 rcx, rcx, 18
  00d49	48 8d 15 00 00
	00 00		 lea	 rdx, OFFSET FLAT:?OrConstant@?1??gen_csv_sid@@9@9
  00d50	8b 0c 0a	 mov	 ecx, DWORD PTR [rdx+rcx]
  00d53	8b 44 04 70	 mov	 eax, DWORD PTR OrResult$[rsp+rax]
  00d57	0b c1		 or	 eax, ecx
  00d59	b9 04 00 00 00	 mov	 ecx, 4
  00d5e	48 6b c9 19	 imul	 rcx, rcx, 25
  00d62	89 44 0c 70	 mov	 DWORD PTR OrResult$[rsp+rcx], eax

; 8545 :         OrResult[27] |= OrConstant[17];

  00d66	b8 04 00 00 00	 mov	 eax, 4
  00d6b	48 6b c0 1b	 imul	 rax, rax, 27
  00d6f	b9 04 00 00 00	 mov	 ecx, 4
  00d74	48 6b c9 11	 imul	 rcx, rcx, 17
  00d78	48 8d 15 00 00
	00 00		 lea	 rdx, OFFSET FLAT:?OrConstant@?1??gen_csv_sid@@9@9
  00d7f	8b 0c 0a	 mov	 ecx, DWORD PTR [rdx+rcx]
  00d82	8b 44 04 70	 mov	 eax, DWORD PTR OrResult$[rsp+rax]
  00d86	0b c1		 or	 eax, ecx
  00d88	b9 04 00 00 00	 mov	 ecx, 4
  00d8d	48 6b c9 1b	 imul	 rcx, rcx, 27
  00d91	89 44 0c 70	 mov	 DWORD PTR OrResult$[rsp+rcx], eax

; 8546 :         OrResult[29] |= OrConstant[20];

  00d95	b8 04 00 00 00	 mov	 eax, 4
  00d9a	48 6b c0 1d	 imul	 rax, rax, 29
  00d9e	b9 04 00 00 00	 mov	 ecx, 4
  00da3	48 6b c9 14	 imul	 rcx, rcx, 20
  00da7	48 8d 15 00 00
	00 00		 lea	 rdx, OFFSET FLAT:?OrConstant@?1??gen_csv_sid@@9@9
  00dae	8b 0c 0a	 mov	 ecx, DWORD PTR [rdx+rcx]
  00db1	8b 44 04 70	 mov	 eax, DWORD PTR OrResult$[rsp+rax]
  00db5	0b c1		 or	 eax, ecx
  00db7	b9 04 00 00 00	 mov	 ecx, 4
  00dbc	48 6b c9 1d	 imul	 rcx, rcx, 29
  00dc0	89 44 0c 70	 mov	 DWORD PTR OrResult$[rsp+rcx], eax

; 8547 :         OrResult[31] |= OrConstant[14];

  00dc4	b8 04 00 00 00	 mov	 eax, 4
  00dc9	48 6b c0 1f	 imul	 rax, rax, 31
  00dcd	b9 04 00 00 00	 mov	 ecx, 4
  00dd2	48 6b c9 0e	 imul	 rcx, rcx, 14
  00dd6	48 8d 15 00 00
	00 00		 lea	 rdx, OFFSET FLAT:?OrConstant@?1??gen_csv_sid@@9@9
  00ddd	8b 0c 0a	 mov	 ecx, DWORD PTR [rdx+rcx]
  00de0	8b 44 04 70	 mov	 eax, DWORD PTR OrResult$[rsp+rax]
  00de4	0b c1		 or	 eax, ecx
  00de6	b9 04 00 00 00	 mov	 ecx, 4
  00deb	48 6b c9 1f	 imul	 rcx, rcx, 31
  00def	89 44 0c 70	 mov	 DWORD PTR OrResult$[rsp+rcx], eax
$LN15@gen_csv_si:

; 8548 :     }
; 8549 :     if ((pClock1[0] & 0x04 ) == 0x04)

  00df3	b8 01 00 00 00	 mov	 eax, 1
  00df8	48 6b c0 00	 imul	 rax, rax, 0
  00dfc	48 8b 8c 24 50
	01 00 00	 mov	 rcx, QWORD PTR pClock1$[rsp]
  00e04	0f b6 04 01	 movzx	 eax, BYTE PTR [rcx+rax]
  00e08	83 e0 04	 and	 eax, 4
  00e0b	83 f8 04	 cmp	 eax, 4
  00e0e	0f 85 92 02 00
	00		 jne	 $LN16@gen_csv_si

; 8550 :     {
; 8551 :         OrResult[0]  |= OrConstant[18];

  00e14	b8 04 00 00 00	 mov	 eax, 4
  00e19	48 6b c0 00	 imul	 rax, rax, 0
  00e1d	b9 04 00 00 00	 mov	 ecx, 4
  00e22	48 6b c9 12	 imul	 rcx, rcx, 18
  00e26	48 8d 15 00 00
	00 00		 lea	 rdx, OFFSET FLAT:?OrConstant@?1??gen_csv_sid@@9@9
  00e2d	8b 0c 0a	 mov	 ecx, DWORD PTR [rdx+rcx]
  00e30	8b 44 04 70	 mov	 eax, DWORD PTR OrResult$[rsp+rax]
  00e34	0b c1		 or	 eax, ecx
  00e36	b9 04 00 00 00	 mov	 ecx, 4
  00e3b	48 6b c9 00	 imul	 rcx, rcx, 0
  00e3f	89 44 0c 70	 mov	 DWORD PTR OrResult$[rsp+rcx], eax

; 8552 :         OrResult[3]  |= OrConstant[15];

  00e43	b8 04 00 00 00	 mov	 eax, 4
  00e48	48 6b c0 03	 imul	 rax, rax, 3
  00e4c	b9 04 00 00 00	 mov	 ecx, 4
  00e51	48 6b c9 0f	 imul	 rcx, rcx, 15
  00e55	48 8d 15 00 00
	00 00		 lea	 rdx, OFFSET FLAT:?OrConstant@?1??gen_csv_sid@@9@9
  00e5c	8b 0c 0a	 mov	 ecx, DWORD PTR [rdx+rcx]
  00e5f	8b 44 04 70	 mov	 eax, DWORD PTR OrResult$[rsp+rax]
  00e63	0b c1		 or	 eax, ecx
  00e65	b9 04 00 00 00	 mov	 ecx, 4
  00e6a	48 6b c9 03	 imul	 rcx, rcx, 3
  00e6e	89 44 0c 70	 mov	 DWORD PTR OrResult$[rsp+rcx], eax

; 8553 :         OrResult[4]  |= OrConstant[16];

  00e72	b8 04 00 00 00	 mov	 eax, 4
  00e77	48 6b c0 04	 imul	 rax, rax, 4
  00e7b	b9 04 00 00 00	 mov	 ecx, 4
  00e80	48 6b c9 10	 imul	 rcx, rcx, 16
  00e84	48 8d 15 00 00
	00 00		 lea	 rdx, OFFSET FLAT:?OrConstant@?1??gen_csv_sid@@9@9
  00e8b	8b 0c 0a	 mov	 ecx, DWORD PTR [rdx+rcx]
  00e8e	8b 44 04 70	 mov	 eax, DWORD PTR OrResult$[rsp+rax]
  00e92	0b c1		 or	 eax, ecx
  00e94	b9 04 00 00 00	 mov	 ecx, 4
  00e99	48 6b c9 04	 imul	 rcx, rcx, 4
  00e9d	89 44 0c 70	 mov	 DWORD PTR OrResult$[rsp+rcx], eax

; 8554 :         OrResult[6]  |= OrConstant[19];

  00ea1	b8 04 00 00 00	 mov	 eax, 4
  00ea6	48 6b c0 06	 imul	 rax, rax, 6
  00eaa	b9 04 00 00 00	 mov	 ecx, 4
  00eaf	48 6b c9 13	 imul	 rcx, rcx, 19
  00eb3	48 8d 15 00 00
	00 00		 lea	 rdx, OFFSET FLAT:?OrConstant@?1??gen_csv_sid@@9@9
  00eba	8b 0c 0a	 mov	 ecx, DWORD PTR [rdx+rcx]
  00ebd	8b 44 04 70	 mov	 eax, DWORD PTR OrResult$[rsp+rax]
  00ec1	0b c1		 or	 eax, ecx
  00ec3	b9 04 00 00 00	 mov	 ecx, 4
  00ec8	48 6b c9 06	 imul	 rcx, rcx, 6
  00ecc	89 44 0c 70	 mov	 DWORD PTR OrResult$[rsp+rcx], eax

; 8555 :         OrResult[9]  |= OrConstant[14];

  00ed0	b8 04 00 00 00	 mov	 eax, 4
  00ed5	48 6b c0 09	 imul	 rax, rax, 9
  00ed9	b9 04 00 00 00	 mov	 ecx, 4
  00ede	48 6b c9 0e	 imul	 rcx, rcx, 14
  00ee2	48 8d 15 00 00
	00 00		 lea	 rdx, OFFSET FLAT:?OrConstant@?1??gen_csv_sid@@9@9
  00ee9	8b 0c 0a	 mov	 ecx, DWORD PTR [rdx+rcx]
  00eec	8b 44 04 70	 mov	 eax, DWORD PTR OrResult$[rsp+rax]
  00ef0	0b c1		 or	 eax, ecx
  00ef2	b9 04 00 00 00	 mov	 ecx, 4
  00ef7	48 6b c9 09	 imul	 rcx, rcx, 9
  00efb	89 44 0c 70	 mov	 DWORD PTR OrResult$[rsp+rcx], eax

; 8556 :         OrResult[10] |= OrConstant[23];

  00eff	b8 04 00 00 00	 mov	 eax, 4
  00f04	48 6b c0 0a	 imul	 rax, rax, 10
  00f08	b9 04 00 00 00	 mov	 ecx, 4
  00f0d	48 6b c9 17	 imul	 rcx, rcx, 23
  00f11	48 8d 15 00 00
	00 00		 lea	 rdx, OFFSET FLAT:?OrConstant@?1??gen_csv_sid@@9@9
  00f18	8b 0c 0a	 mov	 ecx, DWORD PTR [rdx+rcx]
  00f1b	8b 44 04 70	 mov	 eax, DWORD PTR OrResult$[rsp+rax]
  00f1f	0b c1		 or	 eax, ecx
  00f21	b9 04 00 00 00	 mov	 ecx, 4
  00f26	48 6b c9 0a	 imul	 rcx, rcx, 10
  00f2a	89 44 0c 70	 mov	 DWORD PTR OrResult$[rsp+rcx], eax

; 8557 :         OrResult[12] |= OrConstant[17];

  00f2e	b8 04 00 00 00	 mov	 eax, 4
  00f33	48 6b c0 0c	 imul	 rax, rax, 12
  00f37	b9 04 00 00 00	 mov	 ecx, 4
  00f3c	48 6b c9 11	 imul	 rcx, rcx, 17
  00f40	48 8d 15 00 00
	00 00		 lea	 rdx, OFFSET FLAT:?OrConstant@?1??gen_csv_sid@@9@9
  00f47	8b 0c 0a	 mov	 ecx, DWORD PTR [rdx+rcx]
  00f4a	8b 44 04 70	 mov	 eax, DWORD PTR OrResult$[rsp+rax]
  00f4e	0b c1		 or	 eax, ecx
  00f50	b9 04 00 00 00	 mov	 ecx, 4
  00f55	48 6b c9 0c	 imul	 rcx, rcx, 12
  00f59	89 44 0c 70	 mov	 DWORD PTR OrResult$[rsp+rcx], eax

; 8558 :         OrResult[15] |= OrConstant[22];

  00f5d	b8 04 00 00 00	 mov	 eax, 4
  00f62	48 6b c0 0f	 imul	 rax, rax, 15
  00f66	b9 04 00 00 00	 mov	 ecx, 4
  00f6b	48 6b c9 16	 imul	 rcx, rcx, 22
  00f6f	48 8d 15 00 00
	00 00		 lea	 rdx, OFFSET FLAT:?OrConstant@?1??gen_csv_sid@@9@9
  00f76	8b 0c 0a	 mov	 ecx, DWORD PTR [rdx+rcx]
  00f79	8b 44 04 70	 mov	 eax, DWORD PTR OrResult$[rsp+rax]
  00f7d	0b c1		 or	 eax, ecx
  00f7f	b9 04 00 00 00	 mov	 ecx, 4
  00f84	48 6b c9 0f	 imul	 rcx, rcx, 15
  00f88	89 44 0c 70	 mov	 DWORD PTR OrResult$[rsp+rcx], eax

; 8559 :         OrResult[17] |= OrConstant[12];

  00f8c	b8 04 00 00 00	 mov	 eax, 4
  00f91	48 6b c0 11	 imul	 rax, rax, 17
  00f95	b9 04 00 00 00	 mov	 ecx, 4
  00f9a	48 6b c9 0c	 imul	 rcx, rcx, 12
  00f9e	48 8d 15 00 00
	00 00		 lea	 rdx, OFFSET FLAT:?OrConstant@?1??gen_csv_sid@@9@9
  00fa5	8b 0c 0a	 mov	 ecx, DWORD PTR [rdx+rcx]
  00fa8	8b 44 04 70	 mov	 eax, DWORD PTR OrResult$[rsp+rax]
  00fac	0b c1		 or	 eax, ecx
  00fae	b9 04 00 00 00	 mov	 ecx, 4
  00fb3	48 6b c9 11	 imul	 rcx, rcx, 17
  00fb7	89 44 0c 70	 mov	 DWORD PTR OrResult$[rsp+rcx], eax

; 8560 :         OrResult[19] |= OrConstant[23];

  00fbb	b8 04 00 00 00	 mov	 eax, 4
  00fc0	48 6b c0 13	 imul	 rax, rax, 19
  00fc4	b9 04 00 00 00	 mov	 ecx, 4
  00fc9	48 6b c9 17	 imul	 rcx, rcx, 23
  00fcd	48 8d 15 00 00
	00 00		 lea	 rdx, OFFSET FLAT:?OrConstant@?1??gen_csv_sid@@9@9
  00fd4	8b 0c 0a	 mov	 ecx, DWORD PTR [rdx+rcx]
  00fd7	8b 44 04 70	 mov	 eax, DWORD PTR OrResult$[rsp+rax]
  00fdb	0b c1		 or	 eax, ecx
  00fdd	b9 04 00 00 00	 mov	 ecx, 4
  00fe2	48 6b c9 13	 imul	 rcx, rcx, 19
  00fe6	89 44 0c 70	 mov	 DWORD PTR OrResult$[rsp+rcx], eax

; 8561 :         OrResult[20] |= OrConstant[22];

  00fea	b8 04 00 00 00	 mov	 eax, 4
  00fef	48 6b c0 14	 imul	 rax, rax, 20
  00ff3	b9 04 00 00 00	 mov	 ecx, 4
  00ff8	48 6b c9 16	 imul	 rcx, rcx, 22
  00ffc	48 8d 15 00 00
	00 00		 lea	 rdx, OFFSET FLAT:?OrConstant@?1??gen_csv_sid@@9@9
  01003	8b 0c 0a	 mov	 ecx, DWORD PTR [rdx+rcx]
  01006	8b 44 04 70	 mov	 eax, DWORD PTR OrResult$[rsp+rax]
  0100a	0b c1		 or	 eax, ecx
  0100c	b9 04 00 00 00	 mov	 ecx, 4
  01011	48 6b c9 14	 imul	 rcx, rcx, 20
  01015	89 44 0c 70	 mov	 DWORD PTR OrResult$[rsp+rcx], eax

; 8562 :         OrResult[23] |= OrConstant[21];

  01019	b8 04 00 00 00	 mov	 eax, 4
  0101e	48 6b c0 17	 imul	 rax, rax, 23
  01022	b9 04 00 00 00	 mov	 ecx, 4
  01027	48 6b c9 15	 imul	 rcx, rcx, 21
  0102b	48 8d 15 00 00
	00 00		 lea	 rdx, OFFSET FLAT:?OrConstant@?1??gen_csv_sid@@9@9
  01032	8b 0c 0a	 mov	 ecx, DWORD PTR [rdx+rcx]
  01035	8b 44 04 70	 mov	 eax, DWORD PTR OrResult$[rsp+rax]
  01039	0b c1		 or	 eax, ecx
  0103b	b9 04 00 00 00	 mov	 ecx, 4
  01040	48 6b c9 17	 imul	 rcx, rcx, 23
  01044	89 44 0c 70	 mov	 DWORD PTR OrResult$[rsp+rcx], eax

; 8563 :         OrResult[27] |= OrConstant[13];

  01048	b8 04 00 00 00	 mov	 eax, 4
  0104d	48 6b c0 1b	 imul	 rax, rax, 27
  01051	b9 04 00 00 00	 mov	 ecx, 4
  01056	48 6b c9 0d	 imul	 rcx, rcx, 13
  0105a	48 8d 15 00 00
	00 00		 lea	 rdx, OFFSET FLAT:?OrConstant@?1??gen_csv_sid@@9@9
  01061	8b 0c 0a	 mov	 ecx, DWORD PTR [rdx+rcx]
  01064	8b 44 04 70	 mov	 eax, DWORD PTR OrResult$[rsp+rax]
  01068	0b c1		 or	 eax, ecx
  0106a	b9 04 00 00 00	 mov	 ecx, 4
  0106f	48 6b c9 1b	 imul	 rcx, rcx, 27
  01073	89 44 0c 70	 mov	 DWORD PTR OrResult$[rsp+rcx], eax

; 8564 :         OrResult[29] |= OrConstant[19];

  01077	b8 04 00 00 00	 mov	 eax, 4
  0107c	48 6b c0 1d	 imul	 rax, rax, 29
  01080	b9 04 00 00 00	 mov	 ecx, 4
  01085	48 6b c9 13	 imul	 rcx, rcx, 19
  01089	48 8d 15 00 00
	00 00		 lea	 rdx, OFFSET FLAT:?OrConstant@?1??gen_csv_sid@@9@9
  01090	8b 0c 0a	 mov	 ecx, DWORD PTR [rdx+rcx]
  01093	8b 44 04 70	 mov	 eax, DWORD PTR OrResult$[rsp+rax]
  01097	0b c1		 or	 eax, ecx
  01099	b9 04 00 00 00	 mov	 ecx, 4
  0109e	48 6b c9 1d	 imul	 rcx, rcx, 29
  010a2	89 44 0c 70	 mov	 DWORD PTR OrResult$[rsp+rcx], eax
$LN16@gen_csv_si:

; 8565 :     }
; 8566 :     if ((pClock1[0] & 0x02 ) == 0x02)

  010a6	b8 01 00 00 00	 mov	 eax, 1
  010ab	48 6b c0 00	 imul	 rax, rax, 0
  010af	48 8b 8c 24 50
	01 00 00	 mov	 rcx, QWORD PTR pClock1$[rsp]
  010b7	0f b6 04 01	 movzx	 eax, BYTE PTR [rcx+rax]
  010bb	83 e0 02	 and	 eax, 2
  010be	83 f8 02	 cmp	 eax, 2
  010c1	0f 85 63 02 00
	00		 jne	 $LN17@gen_csv_si

; 8567 :     {
; 8568 :         OrResult[1]  |= OrConstant[21];

  010c7	b8 04 00 00 00	 mov	 eax, 4
  010cc	48 6b c0 01	 imul	 rax, rax, 1
  010d0	b9 04 00 00 00	 mov	 ecx, 4
  010d5	48 6b c9 15	 imul	 rcx, rcx, 21
  010d9	48 8d 15 00 00
	00 00		 lea	 rdx, OFFSET FLAT:?OrConstant@?1??gen_csv_sid@@9@9
  010e0	8b 0c 0a	 mov	 ecx, DWORD PTR [rdx+rcx]
  010e3	8b 44 04 70	 mov	 eax, DWORD PTR OrResult$[rsp+rax]
  010e7	0b c1		 or	 eax, ecx
  010e9	b9 04 00 00 00	 mov	 ecx, 4
  010ee	48 6b c9 01	 imul	 rcx, rcx, 1
  010f2	89 44 0c 70	 mov	 DWORD PTR OrResult$[rsp+rcx], eax

; 8569 :         OrResult[2]  |= OrConstant[15];

  010f6	b8 04 00 00 00	 mov	 eax, 4
  010fb	48 6b c0 02	 imul	 rax, rax, 2
  010ff	b9 04 00 00 00	 mov	 ecx, 4
  01104	48 6b c9 0f	 imul	 rcx, rcx, 15
  01108	48 8d 15 00 00
	00 00		 lea	 rdx, OFFSET FLAT:?OrConstant@?1??gen_csv_sid@@9@9
  0110f	8b 0c 0a	 mov	 ecx, DWORD PTR [rdx+rcx]
  01112	8b 44 04 70	 mov	 eax, DWORD PTR OrResult$[rsp+rax]
  01116	0b c1		 or	 eax, ecx
  01118	b9 04 00 00 00	 mov	 ecx, 4
  0111d	48 6b c9 02	 imul	 rcx, rcx, 2
  01121	89 44 0c 70	 mov	 DWORD PTR OrResult$[rsp+rcx], eax

; 8570 :         OrResult[4]  |= OrConstant[20];

  01125	b8 04 00 00 00	 mov	 eax, 4
  0112a	48 6b c0 04	 imul	 rax, rax, 4
  0112e	b9 04 00 00 00	 mov	 ecx, 4
  01133	48 6b c9 14	 imul	 rcx, rcx, 20
  01137	48 8d 15 00 00
	00 00		 lea	 rdx, OFFSET FLAT:?OrConstant@?1??gen_csv_sid@@9@9
  0113e	8b 0c 0a	 mov	 ecx, DWORD PTR [rdx+rcx]
  01141	8b 44 04 70	 mov	 eax, DWORD PTR OrResult$[rsp+rax]
  01145	0b c1		 or	 eax, ecx
  01147	b9 04 00 00 00	 mov	 ecx, 4
  0114c	48 6b c9 04	 imul	 rcx, rcx, 4
  01150	89 44 0c 70	 mov	 DWORD PTR OrResult$[rsp+rcx], eax

; 8571 :         OrResult[6]  |= OrConstant[12];

  01154	b8 04 00 00 00	 mov	 eax, 4
  01159	48 6b c0 06	 imul	 rax, rax, 6
  0115d	b9 04 00 00 00	 mov	 ecx, 4
  01162	48 6b c9 0c	 imul	 rcx, rcx, 12
  01166	48 8d 15 00 00
	00 00		 lea	 rdx, OFFSET FLAT:?OrConstant@?1??gen_csv_sid@@9@9
  0116d	8b 0c 0a	 mov	 ecx, DWORD PTR [rdx+rcx]
  01170	8b 44 04 70	 mov	 eax, DWORD PTR OrResult$[rsp+rax]
  01174	0b c1		 or	 eax, ecx
  01176	b9 04 00 00 00	 mov	 ecx, 4
  0117b	48 6b c9 06	 imul	 rcx, rcx, 6
  0117f	89 44 0c 70	 mov	 DWORD PTR OrResult$[rsp+rcx], eax

; 8572 :         OrResult[11] |= OrConstant[15];

  01183	b8 04 00 00 00	 mov	 eax, 4
  01188	48 6b c0 0b	 imul	 rax, rax, 11
  0118c	b9 04 00 00 00	 mov	 ecx, 4
  01191	48 6b c9 0f	 imul	 rcx, rcx, 15
  01195	48 8d 15 00 00
	00 00		 lea	 rdx, OFFSET FLAT:?OrConstant@?1??gen_csv_sid@@9@9
  0119c	8b 0c 0a	 mov	 ecx, DWORD PTR [rdx+rcx]
  0119f	8b 44 04 70	 mov	 eax, DWORD PTR OrResult$[rsp+rax]
  011a3	0b c1		 or	 eax, ecx
  011a5	b9 04 00 00 00	 mov	 ecx, 4
  011aa	48 6b c9 0b	 imul	 rcx, rcx, 11
  011ae	89 44 0c 70	 mov	 DWORD PTR OrResult$[rsp+rcx], eax

; 8573 :         OrResult[12] |= OrConstant[16];

  011b2	b8 04 00 00 00	 mov	 eax, 4
  011b7	48 6b c0 0c	 imul	 rax, rax, 12
  011bb	b9 04 00 00 00	 mov	 ecx, 4
  011c0	48 6b c9 10	 imul	 rcx, rcx, 16
  011c4	48 8d 15 00 00
	00 00		 lea	 rdx, OFFSET FLAT:?OrConstant@?1??gen_csv_sid@@9@9
  011cb	8b 0c 0a	 mov	 ecx, DWORD PTR [rdx+rcx]
  011ce	8b 44 04 70	 mov	 eax, DWORD PTR OrResult$[rsp+rax]
  011d2	0b c1		 or	 eax, ecx
  011d4	b9 04 00 00 00	 mov	 ecx, 4
  011d9	48 6b c9 0c	 imul	 rcx, rcx, 12
  011dd	89 44 0c 70	 mov	 DWORD PTR OrResult$[rsp+rcx], eax

; 8574 :         OrResult[14] |= OrConstant[19];

  011e1	b8 04 00 00 00	 mov	 eax, 4
  011e6	48 6b c0 0e	 imul	 rax, rax, 14
  011ea	b9 04 00 00 00	 mov	 ecx, 4
  011ef	48 6b c9 13	 imul	 rcx, rcx, 19
  011f3	48 8d 15 00 00
	00 00		 lea	 rdx, OFFSET FLAT:?OrConstant@?1??gen_csv_sid@@9@9
  011fa	8b 0c 0a	 mov	 ecx, DWORD PTR [rdx+rcx]
  011fd	8b 44 04 70	 mov	 eax, DWORD PTR OrResult$[rsp+rax]
  01201	0b c1		 or	 eax, ecx
  01203	b9 04 00 00 00	 mov	 ecx, 4
  01208	48 6b c9 0e	 imul	 rcx, rcx, 14
  0120c	89 44 0c 70	 mov	 DWORD PTR OrResult$[rsp+rcx], eax

; 8575 :         OrResult[17] |= OrConstant[20];

  01210	b8 04 00 00 00	 mov	 eax, 4
  01215	48 6b c0 11	 imul	 rax, rax, 17
  01219	b9 04 00 00 00	 mov	 ecx, 4
  0121e	48 6b c9 14	 imul	 rcx, rcx, 20
  01222	48 8d 15 00 00
	00 00		 lea	 rdx, OFFSET FLAT:?OrConstant@?1??gen_csv_sid@@9@9
  01229	8b 0c 0a	 mov	 ecx, DWORD PTR [rdx+rcx]
  0122c	8b 44 04 70	 mov	 eax, DWORD PTR OrResult$[rsp+rax]
  01230	0b c1		 or	 eax, ecx
  01232	b9 04 00 00 00	 mov	 ecx, 4
  01237	48 6b c9 11	 imul	 rcx, rcx, 17
  0123b	89 44 0c 70	 mov	 DWORD PTR OrResult$[rsp+rcx], eax

; 8576 :         OrResult[18] |= OrConstant[13];

  0123f	b8 04 00 00 00	 mov	 eax, 4
  01244	48 6b c0 12	 imul	 rax, rax, 18
  01248	b9 04 00 00 00	 mov	 ecx, 4
  0124d	48 6b c9 0d	 imul	 rcx, rcx, 13
  01251	48 8d 15 00 00
	00 00		 lea	 rdx, OFFSET FLAT:?OrConstant@?1??gen_csv_sid@@9@9
  01258	8b 0c 0a	 mov	 ecx, DWORD PTR [rdx+rcx]
  0125b	8b 44 04 70	 mov	 eax, DWORD PTR OrResult$[rsp+rax]
  0125f	0b c1		 or	 eax, ecx
  01261	b9 04 00 00 00	 mov	 ecx, 4
  01266	48 6b c9 12	 imul	 rcx, rcx, 18
  0126a	89 44 0c 70	 mov	 DWORD PTR OrResult$[rsp+rcx], eax

; 8577 :         OrResult[22] |= OrConstant[21];

  0126e	b8 04 00 00 00	 mov	 eax, 4
  01273	48 6b c0 16	 imul	 rax, rax, 22
  01277	b9 04 00 00 00	 mov	 ecx, 4
  0127c	48 6b c9 15	 imul	 rcx, rcx, 21
  01280	48 8d 15 00 00
	00 00		 lea	 rdx, OFFSET FLAT:?OrConstant@?1??gen_csv_sid@@9@9
  01287	8b 0c 0a	 mov	 ecx, DWORD PTR [rdx+rcx]
  0128a	8b 44 04 70	 mov	 eax, DWORD PTR OrResult$[rsp+rax]
  0128e	0b c1		 or	 eax, ecx
  01290	b9 04 00 00 00	 mov	 ecx, 4
  01295	48 6b c9 16	 imul	 rcx, rcx, 22
  01299	89 44 0c 70	 mov	 DWORD PTR OrResult$[rsp+rcx], eax

; 8578 :         OrResult[25] |= OrConstant[12];

  0129d	b8 04 00 00 00	 mov	 eax, 4
  012a2	48 6b c0 19	 imul	 rax, rax, 25
  012a6	b9 04 00 00 00	 mov	 ecx, 4
  012ab	48 6b c9 0c	 imul	 rcx, rcx, 12
  012af	48 8d 15 00 00
	00 00		 lea	 rdx, OFFSET FLAT:?OrConstant@?1??gen_csv_sid@@9@9
  012b6	8b 0c 0a	 mov	 ecx, DWORD PTR [rdx+rcx]
  012b9	8b 44 04 70	 mov	 eax, DWORD PTR OrResult$[rsp+rax]
  012bd	0b c1		 or	 eax, ecx
  012bf	b9 04 00 00 00	 mov	 ecx, 4
  012c4	48 6b c9 19	 imul	 rcx, rcx, 25
  012c8	89 44 0c 70	 mov	 DWORD PTR OrResult$[rsp+rcx], eax

; 8579 :         OrResult[27] |= OrConstant[23];

  012cc	b8 04 00 00 00	 mov	 eax, 4
  012d1	48 6b c0 1b	 imul	 rax, rax, 27
  012d5	b9 04 00 00 00	 mov	 ecx, 4
  012da	48 6b c9 17	 imul	 rcx, rcx, 23
  012de	48 8d 15 00 00
	00 00		 lea	 rdx, OFFSET FLAT:?OrConstant@?1??gen_csv_sid@@9@9
  012e5	8b 0c 0a	 mov	 ecx, DWORD PTR [rdx+rcx]
  012e8	8b 44 04 70	 mov	 eax, DWORD PTR OrResult$[rsp+rax]
  012ec	0b c1		 or	 eax, ecx
  012ee	b9 04 00 00 00	 mov	 ecx, 4
  012f3	48 6b c9 1b	 imul	 rcx, rcx, 27
  012f7	89 44 0c 70	 mov	 DWORD PTR OrResult$[rsp+rcx], eax

; 8580 :         OrResult[28] |= OrConstant[22];

  012fb	b8 04 00 00 00	 mov	 eax, 4
  01300	48 6b c0 1c	 imul	 rax, rax, 28
  01304	b9 04 00 00 00	 mov	 ecx, 4
  01309	48 6b c9 16	 imul	 rcx, rcx, 22
  0130d	48 8d 15 00 00
	00 00		 lea	 rdx, OFFSET FLAT:?OrConstant@?1??gen_csv_sid@@9@9
  01314	8b 0c 0a	 mov	 ecx, DWORD PTR [rdx+rcx]
  01317	8b 44 04 70	 mov	 eax, DWORD PTR OrResult$[rsp+rax]
  0131b	0b c1		 or	 eax, ecx
  0131d	b9 04 00 00 00	 mov	 ecx, 4
  01322	48 6b c9 1c	 imul	 rcx, rcx, 28
  01326	89 44 0c 70	 mov	 DWORD PTR OrResult$[rsp+rcx], eax
$LN17@gen_csv_si:

; 8581 :     }
; 8582 :     if ((pClock1[1] & 0x80 ) == 0x80)

  0132a	b8 01 00 00 00	 mov	 eax, 1
  0132f	48 6b c0 01	 imul	 rax, rax, 1
  01333	48 8b 8c 24 50
	01 00 00	 mov	 rcx, QWORD PTR pClock1$[rsp]
  0133b	0f b6 04 01	 movzx	 eax, BYTE PTR [rcx+rax]
  0133f	25 80 00 00 00	 and	 eax, 128		; 00000080H
  01344	3d 80 00 00 00	 cmp	 eax, 128		; 00000080H
  01349	0f 85 92 02 00
	00		 jne	 $LN18@gen_csv_si

; 8583 :     {
; 8584 :         OrResult[1]  |= OrConstant[7];

  0134f	b8 04 00 00 00	 mov	 eax, 4
  01354	48 6b c0 01	 imul	 rax, rax, 1
  01358	b9 04 00 00 00	 mov	 ecx, 4
  0135d	48 6b c9 07	 imul	 rcx, rcx, 7
  01361	48 8d 15 00 00
	00 00		 lea	 rdx, OFFSET FLAT:?OrConstant@?1??gen_csv_sid@@9@9
  01368	8b 0c 0a	 mov	 ecx, DWORD PTR [rdx+rcx]
  0136b	8b 44 04 70	 mov	 eax, DWORD PTR OrResult$[rsp+rax]
  0136f	0b c1		 or	 eax, ecx
  01371	b9 04 00 00 00	 mov	 ecx, 4
  01376	48 6b c9 01	 imul	 rcx, rcx, 1
  0137a	89 44 0c 70	 mov	 DWORD PTR OrResult$[rsp+rcx], eax

; 8585 :         OrResult[2]  |= OrConstant[11];

  0137e	b8 04 00 00 00	 mov	 eax, 4
  01383	48 6b c0 02	 imul	 rax, rax, 2
  01387	b9 04 00 00 00	 mov	 ecx, 4
  0138c	48 6b c9 0b	 imul	 rcx, rcx, 11
  01390	48 8d 15 00 00
	00 00		 lea	 rdx, OFFSET FLAT:?OrConstant@?1??gen_csv_sid@@9@9
  01397	8b 0c 0a	 mov	 ecx, DWORD PTR [rdx+rcx]
  0139a	8b 44 04 70	 mov	 eax, DWORD PTR OrResult$[rsp+rax]
  0139e	0b c1		 or	 eax, ecx
  013a0	b9 04 00 00 00	 mov	 ecx, 4
  013a5	48 6b c9 02	 imul	 rcx, rcx, 2
  013a9	89 44 0c 70	 mov	 DWORD PTR OrResult$[rsp+rcx], eax

; 8586 :         OrResult[5]  |= OrConstant[5];

  013ad	b8 04 00 00 00	 mov	 eax, 4
  013b2	48 6b c0 05	 imul	 rax, rax, 5
  013b6	b9 04 00 00 00	 mov	 ecx, 4
  013bb	48 6b c9 05	 imul	 rcx, rcx, 5
  013bf	48 8d 15 00 00
	00 00		 lea	 rdx, OFFSET FLAT:?OrConstant@?1??gen_csv_sid@@9@9
  013c6	8b 0c 0a	 mov	 ecx, DWORD PTR [rdx+rcx]
  013c9	8b 44 04 70	 mov	 eax, DWORD PTR OrResult$[rsp+rax]
  013cd	0b c1		 or	 eax, ecx
  013cf	b9 04 00 00 00	 mov	 ecx, 4
  013d4	48 6b c9 05	 imul	 rcx, rcx, 5
  013d8	89 44 0c 70	 mov	 DWORD PTR OrResult$[rsp+rcx], eax

; 8587 :         OrResult[6]  |= OrConstant[8];

  013dc	b8 04 00 00 00	 mov	 eax, 4
  013e1	48 6b c0 06	 imul	 rax, rax, 6
  013e5	b9 04 00 00 00	 mov	 ecx, 4
  013ea	48 6b c9 08	 imul	 rcx, rcx, 8
  013ee	48 8d 15 00 00
	00 00		 lea	 rdx, OFFSET FLAT:?OrConstant@?1??gen_csv_sid@@9@9
  013f5	8b 0c 0a	 mov	 ecx, DWORD PTR [rdx+rcx]
  013f8	8b 44 04 70	 mov	 eax, DWORD PTR OrResult$[rsp+rax]
  013fc	0b c1		 or	 eax, ecx
  013fe	b9 04 00 00 00	 mov	 ecx, 4
  01403	48 6b c9 06	 imul	 rcx, rcx, 6
  01407	89 44 0c 70	 mov	 DWORD PTR OrResult$[rsp+rcx], eax

; 8588 :         OrResult[8]  |= OrConstant[0];

  0140b	b8 04 00 00 00	 mov	 eax, 4
  01410	48 6b c0 08	 imul	 rax, rax, 8
  01414	b9 04 00 00 00	 mov	 ecx, 4
  01419	48 6b c9 00	 imul	 rcx, rcx, 0
  0141d	48 8d 15 00 00
	00 00		 lea	 rdx, OFFSET FLAT:?OrConstant@?1??gen_csv_sid@@9@9
  01424	8b 0c 0a	 mov	 ecx, DWORD PTR [rdx+rcx]
  01427	8b 44 04 70	 mov	 eax, DWORD PTR OrResult$[rsp+rax]
  0142b	0b c1		 or	 eax, ecx
  0142d	b9 04 00 00 00	 mov	 ecx, 4
  01432	48 6b c9 08	 imul	 rcx, rcx, 8
  01436	89 44 0c 70	 mov	 DWORD PTR OrResult$[rsp+rcx], eax

; 8589 :         OrResult[11] |= OrConstant[6];

  0143a	b8 04 00 00 00	 mov	 eax, 4
  0143f	48 6b c0 0b	 imul	 rax, rax, 11
  01443	b9 04 00 00 00	 mov	 ecx, 4
  01448	48 6b c9 06	 imul	 rcx, rcx, 6
  0144c	48 8d 15 00 00
	00 00		 lea	 rdx, OFFSET FLAT:?OrConstant@?1??gen_csv_sid@@9@9
  01453	8b 0c 0a	 mov	 ecx, DWORD PTR [rdx+rcx]
  01456	8b 44 04 70	 mov	 eax, DWORD PTR OrResult$[rsp+rax]
  0145a	0b c1		 or	 eax, ecx
  0145c	b9 04 00 00 00	 mov	 ecx, 4
  01461	48 6b c9 0b	 imul	 rcx, rcx, 11
  01465	89 44 0c 70	 mov	 DWORD PTR OrResult$[rsp+rcx], eax

; 8590 :         OrResult[15] |= OrConstant[9];

  01469	b8 04 00 00 00	 mov	 eax, 4
  0146e	48 6b c0 0f	 imul	 rax, rax, 15
  01472	b9 04 00 00 00	 mov	 ecx, 4
  01477	48 6b c9 09	 imul	 rcx, rcx, 9
  0147b	48 8d 15 00 00
	00 00		 lea	 rdx, OFFSET FLAT:?OrConstant@?1??gen_csv_sid@@9@9
  01482	8b 0c 0a	 mov	 ecx, DWORD PTR [rdx+rcx]
  01485	8b 44 04 70	 mov	 eax, DWORD PTR OrResult$[rsp+rax]
  01489	0b c1		 or	 eax, ecx
  0148b	b9 04 00 00 00	 mov	 ecx, 4
  01490	48 6b c9 0f	 imul	 rcx, rcx, 15
  01494	89 44 0c 70	 mov	 DWORD PTR OrResult$[rsp+rcx], eax

; 8591 :         OrResult[17] |= OrConstant[4];

  01498	b8 04 00 00 00	 mov	 eax, 4
  0149d	48 6b c0 11	 imul	 rax, rax, 17
  014a1	b9 04 00 00 00	 mov	 ecx, 4
  014a6	48 6b c9 04	 imul	 rcx, rcx, 4
  014aa	48 8d 15 00 00
	00 00		 lea	 rdx, OFFSET FLAT:?OrConstant@?1??gen_csv_sid@@9@9
  014b1	8b 0c 0a	 mov	 ecx, DWORD PTR [rdx+rcx]
  014b4	8b 44 04 70	 mov	 eax, DWORD PTR OrResult$[rsp+rax]
  014b8	0b c1		 or	 eax, ecx
  014ba	b9 04 00 00 00	 mov	 ecx, 4
  014bf	48 6b c9 11	 imul	 rcx, rcx, 17
  014c3	89 44 0c 70	 mov	 DWORD PTR OrResult$[rsp+rcx], eax

; 8592 :         OrResult[18] |= OrConstant[6];

  014c7	b8 04 00 00 00	 mov	 eax, 4
  014cc	48 6b c0 12	 imul	 rax, rax, 18
  014d0	b9 04 00 00 00	 mov	 ecx, 4
  014d5	48 6b c9 06	 imul	 rcx, rcx, 6
  014d9	48 8d 15 00 00
	00 00		 lea	 rdx, OFFSET FLAT:?OrConstant@?1??gen_csv_sid@@9@9
  014e0	8b 0c 0a	 mov	 ecx, DWORD PTR [rdx+rcx]
  014e3	8b 44 04 70	 mov	 eax, DWORD PTR OrResult$[rsp+rax]
  014e7	0b c1		 or	 eax, ecx
  014e9	b9 04 00 00 00	 mov	 ecx, 4
  014ee	48 6b c9 12	 imul	 rcx, rcx, 18
  014f2	89 44 0c 70	 mov	 DWORD PTR OrResult$[rsp+rcx], eax

; 8593 :         OrResult[23] |= OrConstant[8];

  014f6	b8 04 00 00 00	 mov	 eax, 4
  014fb	48 6b c0 17	 imul	 rax, rax, 23
  014ff	b9 04 00 00 00	 mov	 ecx, 4
  01504	48 6b c9 08	 imul	 rcx, rcx, 8
  01508	48 8d 15 00 00
	00 00		 lea	 rdx, OFFSET FLAT:?OrConstant@?1??gen_csv_sid@@9@9
  0150f	8b 0c 0a	 mov	 ecx, DWORD PTR [rdx+rcx]
  01512	8b 44 04 70	 mov	 eax, DWORD PTR OrResult$[rsp+rax]
  01516	0b c1		 or	 eax, ecx
  01518	b9 04 00 00 00	 mov	 ecx, 4
  0151d	48 6b c9 17	 imul	 rcx, rcx, 23
  01521	89 44 0c 70	 mov	 DWORD PTR OrResult$[rsp+rcx], eax

; 8594 :         OrResult[24] |= OrConstant[4];

  01525	b8 04 00 00 00	 mov	 eax, 4
  0152a	48 6b c0 18	 imul	 rax, rax, 24
  0152e	b9 04 00 00 00	 mov	 ecx, 4
  01533	48 6b c9 04	 imul	 rcx, rcx, 4
  01537	48 8d 15 00 00
	00 00		 lea	 rdx, OFFSET FLAT:?OrConstant@?1??gen_csv_sid@@9@9
  0153e	8b 0c 0a	 mov	 ecx, DWORD PTR [rdx+rcx]
  01541	8b 44 04 70	 mov	 eax, DWORD PTR OrResult$[rsp+rax]
  01545	0b c1		 or	 eax, ecx
  01547	b9 04 00 00 00	 mov	 ecx, 4
  0154c	48 6b c9 18	 imul	 rcx, rcx, 24
  01550	89 44 0c 70	 mov	 DWORD PTR OrResult$[rsp+rcx], eax

; 8595 :         OrResult[27] |= OrConstant[0];

  01554	b8 04 00 00 00	 mov	 eax, 4
  01559	48 6b c0 1b	 imul	 rax, rax, 27
  0155d	b9 04 00 00 00	 mov	 ecx, 4
  01562	48 6b c9 00	 imul	 rcx, rcx, 0
  01566	48 8d 15 00 00
	00 00		 lea	 rdx, OFFSET FLAT:?OrConstant@?1??gen_csv_sid@@9@9
  0156d	8b 0c 0a	 mov	 ecx, DWORD PTR [rdx+rcx]
  01570	8b 44 04 70	 mov	 eax, DWORD PTR OrResult$[rsp+rax]
  01574	0b c1		 or	 eax, ecx
  01576	b9 04 00 00 00	 mov	 ecx, 4
  0157b	48 6b c9 1b	 imul	 rcx, rcx, 27
  0157f	89 44 0c 70	 mov	 DWORD PTR OrResult$[rsp+rcx], eax

; 8596 :         OrResult[28] |= OrConstant[5];

  01583	b8 04 00 00 00	 mov	 eax, 4
  01588	48 6b c0 1c	 imul	 rax, rax, 28
  0158c	b9 04 00 00 00	 mov	 ecx, 4
  01591	48 6b c9 05	 imul	 rcx, rcx, 5
  01595	48 8d 15 00 00
	00 00		 lea	 rdx, OFFSET FLAT:?OrConstant@?1??gen_csv_sid@@9@9
  0159c	8b 0c 0a	 mov	 ecx, DWORD PTR [rdx+rcx]
  0159f	8b 44 04 70	 mov	 eax, DWORD PTR OrResult$[rsp+rax]
  015a3	0b c1		 or	 eax, ecx
  015a5	b9 04 00 00 00	 mov	 ecx, 4
  015aa	48 6b c9 1c	 imul	 rcx, rcx, 28
  015ae	89 44 0c 70	 mov	 DWORD PTR OrResult$[rsp+rcx], eax

; 8597 :         OrResult[31] |= OrConstant[3];

  015b2	b8 04 00 00 00	 mov	 eax, 4
  015b7	48 6b c0 1f	 imul	 rax, rax, 31
  015bb	b9 04 00 00 00	 mov	 ecx, 4
  015c0	48 6b c9 03	 imul	 rcx, rcx, 3
  015c4	48 8d 15 00 00
	00 00		 lea	 rdx, OFFSET FLAT:?OrConstant@?1??gen_csv_sid@@9@9
  015cb	8b 0c 0a	 mov	 ecx, DWORD PTR [rdx+rcx]
  015ce	8b 44 04 70	 mov	 eax, DWORD PTR OrResult$[rsp+rax]
  015d2	0b c1		 or	 eax, ecx
  015d4	b9 04 00 00 00	 mov	 ecx, 4
  015d9	48 6b c9 1f	 imul	 rcx, rcx, 31
  015dd	89 44 0c 70	 mov	 DWORD PTR OrResult$[rsp+rcx], eax
$LN18@gen_csv_si:

; 8598 :     }
; 8599 :     if ((pClock1[1] & 0x40 ) == 0x40)

  015e1	b8 01 00 00 00	 mov	 eax, 1
  015e6	48 6b c0 01	 imul	 rax, rax, 1
  015ea	48 8b 8c 24 50
	01 00 00	 mov	 rcx, QWORD PTR pClock1$[rsp]
  015f2	0f b6 04 01	 movzx	 eax, BYTE PTR [rcx+rax]
  015f6	83 e0 40	 and	 eax, 64			; 00000040H
  015f9	83 f8 40	 cmp	 eax, 64			; 00000040H
  015fc	0f 85 63 02 00
	00		 jne	 $LN19@gen_csv_si

; 8600 :     {
; 8601 :         OrResult[1]  |= OrConstant[2];

  01602	b8 04 00 00 00	 mov	 eax, 4
  01607	48 6b c0 01	 imul	 rax, rax, 1
  0160b	b9 04 00 00 00	 mov	 ecx, 4
  01610	48 6b c9 02	 imul	 rcx, rcx, 2
  01614	48 8d 15 00 00
	00 00		 lea	 rdx, OFFSET FLAT:?OrConstant@?1??gen_csv_sid@@9@9
  0161b	8b 0c 0a	 mov	 ecx, DWORD PTR [rdx+rcx]
  0161e	8b 44 04 70	 mov	 eax, DWORD PTR OrResult$[rsp+rax]
  01622	0b c1		 or	 eax, ecx
  01624	b9 04 00 00 00	 mov	 ecx, 4
  01629	48 6b c9 01	 imul	 rcx, rcx, 1
  0162d	89 44 0c 70	 mov	 DWORD PTR OrResult$[rsp+rcx], eax

; 8602 :         OrResult[3]  |= OrConstant[6];

  01631	b8 04 00 00 00	 mov	 eax, 4
  01636	48 6b c0 03	 imul	 rax, rax, 3
  0163a	b9 04 00 00 00	 mov	 ecx, 4
  0163f	48 6b c9 06	 imul	 rcx, rcx, 6
  01643	48 8d 15 00 00
	00 00		 lea	 rdx, OFFSET FLAT:?OrConstant@?1??gen_csv_sid@@9@9
  0164a	8b 0c 0a	 mov	 ecx, DWORD PTR [rdx+rcx]
  0164d	8b 44 04 70	 mov	 eax, DWORD PTR OrResult$[rsp+rax]
  01651	0b c1		 or	 eax, ecx
  01653	b9 04 00 00 00	 mov	 ecx, 4
  01658	48 6b c9 03	 imul	 rcx, rcx, 3
  0165c	89 44 0c 70	 mov	 DWORD PTR OrResult$[rsp+rcx], eax

; 8603 :         OrResult[7]  |= OrConstant[9];

  01660	b8 04 00 00 00	 mov	 eax, 4
  01665	48 6b c0 07	 imul	 rax, rax, 7
  01669	b9 04 00 00 00	 mov	 ecx, 4
  0166e	48 6b c9 09	 imul	 rcx, rcx, 9
  01672	48 8d 15 00 00
	00 00		 lea	 rdx, OFFSET FLAT:?OrConstant@?1??gen_csv_sid@@9@9
  01679	8b 0c 0a	 mov	 ecx, DWORD PTR [rdx+rcx]
  0167c	8b 44 04 70	 mov	 eax, DWORD PTR OrResult$[rsp+rax]
  01680	0b c1		 or	 eax, ecx
  01682	b9 04 00 00 00	 mov	 ecx, 4
  01687	48 6b c9 07	 imul	 rcx, rcx, 7
  0168b	89 44 0c 70	 mov	 DWORD PTR OrResult$[rsp+rcx], eax

; 8604 :         OrResult[10] |= OrConstant[3];

  0168f	b8 04 00 00 00	 mov	 eax, 4
  01694	48 6b c0 0a	 imul	 rax, rax, 10
  01698	b9 04 00 00 00	 mov	 ecx, 4
  0169d	48 6b c9 03	 imul	 rcx, rcx, 3
  016a1	48 8d 15 00 00
	00 00		 lea	 rdx, OFFSET FLAT:?OrConstant@?1??gen_csv_sid@@9@9
  016a8	8b 0c 0a	 mov	 ecx, DWORD PTR [rdx+rcx]
  016ab	8b 44 04 70	 mov	 eax, DWORD PTR OrResult$[rsp+rax]
  016af	0b c1		 or	 eax, ecx
  016b1	b9 04 00 00 00	 mov	 ecx, 4
  016b6	48 6b c9 0a	 imul	 rcx, rcx, 10
  016ba	89 44 0c 70	 mov	 DWORD PTR OrResult$[rsp+rcx], eax

; 8605 :         OrResult[12] |= OrConstant[10];

  016be	b8 04 00 00 00	 mov	 eax, 4
  016c3	48 6b c0 0c	 imul	 rax, rax, 12
  016c7	b9 04 00 00 00	 mov	 ecx, 4
  016cc	48 6b c9 0a	 imul	 rcx, rcx, 10
  016d0	48 8d 15 00 00
	00 00		 lea	 rdx, OFFSET FLAT:?OrConstant@?1??gen_csv_sid@@9@9
  016d7	8b 0c 0a	 mov	 ecx, DWORD PTR [rdx+rcx]
  016da	8b 44 04 70	 mov	 eax, DWORD PTR OrResult$[rsp+rax]
  016de	0b c1		 or	 eax, ecx
  016e0	b9 04 00 00 00	 mov	 ecx, 4
  016e5	48 6b c9 0c	 imul	 rcx, rcx, 12
  016e9	89 44 0c 70	 mov	 DWORD PTR OrResult$[rsp+rcx], eax

; 8606 :         OrResult[15] |= OrConstant[1];

  016ed	b8 04 00 00 00	 mov	 eax, 4
  016f2	48 6b c0 0f	 imul	 rax, rax, 15
  016f6	b9 04 00 00 00	 mov	 ecx, 4
  016fb	48 6b c9 01	 imul	 rcx, rcx, 1
  016ff	48 8d 15 00 00
	00 00		 lea	 rdx, OFFSET FLAT:?OrConstant@?1??gen_csv_sid@@9@9
  01706	8b 0c 0a	 mov	 ecx, DWORD PTR [rdx+rcx]
  01709	8b 44 04 70	 mov	 eax, DWORD PTR OrResult$[rsp+rax]
  0170d	0b c1		 or	 eax, ecx
  0170f	b9 04 00 00 00	 mov	 ecx, 4
  01714	48 6b c9 0f	 imul	 rcx, rcx, 15
  01718	89 44 0c 70	 mov	 DWORD PTR OrResult$[rsp+rcx], eax

; 8607 :         OrResult[16] |= OrConstant[4];

  0171c	b8 04 00 00 00	 mov	 eax, 4
  01721	48 6b c0 10	 imul	 rax, rax, 16
  01725	b9 04 00 00 00	 mov	 ecx, 4
  0172a	48 6b c9 04	 imul	 rcx, rcx, 4
  0172e	48 8d 15 00 00
	00 00		 lea	 rdx, OFFSET FLAT:?OrConstant@?1??gen_csv_sid@@9@9
  01735	8b 0c 0a	 mov	 ecx, DWORD PTR [rdx+rcx]
  01738	8b 44 04 70	 mov	 eax, DWORD PTR OrResult$[rsp+rax]
  0173c	0b c1		 or	 eax, ecx
  0173e	b9 04 00 00 00	 mov	 ecx, 4
  01743	48 6b c9 10	 imul	 rcx, rcx, 16
  01747	89 44 0c 70	 mov	 DWORD PTR OrResult$[rsp+rcx], eax

; 8608 :         OrResult[19] |= OrConstant[0];

  0174b	b8 04 00 00 00	 mov	 eax, 4
  01750	48 6b c0 13	 imul	 rax, rax, 19
  01754	b9 04 00 00 00	 mov	 ecx, 4
  01759	48 6b c9 00	 imul	 rcx, rcx, 0
  0175d	48 8d 15 00 00
	00 00		 lea	 rdx, OFFSET FLAT:?OrConstant@?1??gen_csv_sid@@9@9
  01764	8b 0c 0a	 mov	 ecx, DWORD PTR [rdx+rcx]
  01767	8b 44 04 70	 mov	 eax, DWORD PTR OrResult$[rsp+rax]
  0176b	0b c1		 or	 eax, ecx
  0176d	b9 04 00 00 00	 mov	 ecx, 4
  01772	48 6b c9 13	 imul	 rcx, rcx, 19
  01776	89 44 0c 70	 mov	 DWORD PTR OrResult$[rsp+rcx], eax

; 8609 :         OrResult[20] |= OrConstant[5];

  0177a	b8 04 00 00 00	 mov	 eax, 4
  0177f	48 6b c0 14	 imul	 rax, rax, 20
  01783	b9 04 00 00 00	 mov	 ecx, 4
  01788	48 6b c9 05	 imul	 rcx, rcx, 5
  0178c	48 8d 15 00 00
	00 00		 lea	 rdx, OFFSET FLAT:?OrConstant@?1??gen_csv_sid@@9@9
  01793	8b 0c 0a	 mov	 ecx, DWORD PTR [rdx+rcx]
  01796	8b 44 04 70	 mov	 eax, DWORD PTR OrResult$[rsp+rax]
  0179a	0b c1		 or	 eax, ecx
  0179c	b9 04 00 00 00	 mov	 ecx, 4
  017a1	48 6b c9 14	 imul	 rcx, rcx, 20
  017a5	89 44 0c 70	 mov	 DWORD PTR OrResult$[rsp+rcx], eax

; 8610 :         OrResult[23] |= OrConstant[7];

  017a9	b8 04 00 00 00	 mov	 eax, 4
  017ae	48 6b c0 17	 imul	 rax, rax, 23
  017b2	b9 04 00 00 00	 mov	 ecx, 4
  017b7	48 6b c9 07	 imul	 rcx, rcx, 7
  017bb	48 8d 15 00 00
	00 00		 lea	 rdx, OFFSET FLAT:?OrConstant@?1??gen_csv_sid@@9@9
  017c2	8b 0c 0a	 mov	 ecx, DWORD PTR [rdx+rcx]
  017c5	8b 44 04 70	 mov	 eax, DWORD PTR OrResult$[rsp+rax]
  017c9	0b c1		 or	 eax, ecx
  017cb	b9 04 00 00 00	 mov	 ecx, 4
  017d0	48 6b c9 17	 imul	 rcx, rcx, 23
  017d4	89 44 0c 70	 mov	 DWORD PTR OrResult$[rsp+rcx], eax

; 8611 :         OrResult[26] |= OrConstant[2];

  017d8	b8 04 00 00 00	 mov	 eax, 4
  017dd	48 6b c0 1a	 imul	 rax, rax, 26
  017e1	b9 04 00 00 00	 mov	 ecx, 4
  017e6	48 6b c9 02	 imul	 rcx, rcx, 2
  017ea	48 8d 15 00 00
	00 00		 lea	 rdx, OFFSET FLAT:?OrConstant@?1??gen_csv_sid@@9@9
  017f1	8b 0c 0a	 mov	 ecx, DWORD PTR [rdx+rcx]
  017f4	8b 44 04 70	 mov	 eax, DWORD PTR OrResult$[rsp+rax]
  017f8	0b c1		 or	 eax, ecx
  017fa	b9 04 00 00 00	 mov	 ecx, 4
  017ff	48 6b c9 1a	 imul	 rcx, rcx, 26
  01803	89 44 0c 70	 mov	 DWORD PTR OrResult$[rsp+rcx], eax

; 8612 :         OrResult[29] |= OrConstant[10];

  01807	b8 04 00 00 00	 mov	 eax, 4
  0180c	48 6b c0 1d	 imul	 rax, rax, 29
  01810	b9 04 00 00 00	 mov	 ecx, 4
  01815	48 6b c9 0a	 imul	 rcx, rcx, 10
  01819	48 8d 15 00 00
	00 00		 lea	 rdx, OFFSET FLAT:?OrConstant@?1??gen_csv_sid@@9@9
  01820	8b 0c 0a	 mov	 ecx, DWORD PTR [rdx+rcx]
  01823	8b 44 04 70	 mov	 eax, DWORD PTR OrResult$[rsp+rax]
  01827	0b c1		 or	 eax, ecx
  01829	b9 04 00 00 00	 mov	 ecx, 4
  0182e	48 6b c9 1d	 imul	 rcx, rcx, 29
  01832	89 44 0c 70	 mov	 DWORD PTR OrResult$[rsp+rcx], eax

; 8613 :         OrResult[30] |= OrConstant[0];

  01836	b8 04 00 00 00	 mov	 eax, 4
  0183b	48 6b c0 1e	 imul	 rax, rax, 30
  0183f	b9 04 00 00 00	 mov	 ecx, 4
  01844	48 6b c9 00	 imul	 rcx, rcx, 0
  01848	48 8d 15 00 00
	00 00		 lea	 rdx, OFFSET FLAT:?OrConstant@?1??gen_csv_sid@@9@9
  0184f	8b 0c 0a	 mov	 ecx, DWORD PTR [rdx+rcx]
  01852	8b 44 04 70	 mov	 eax, DWORD PTR OrResult$[rsp+rax]
  01856	0b c1		 or	 eax, ecx
  01858	b9 04 00 00 00	 mov	 ecx, 4
  0185d	48 6b c9 1e	 imul	 rcx, rcx, 30
  01861	89 44 0c 70	 mov	 DWORD PTR OrResult$[rsp+rcx], eax
$LN19@gen_csv_si:

; 8614 :     }
; 8615 :     if ((pClock1[1] & 0x20 ) == 0x20)

  01865	b8 01 00 00 00	 mov	 eax, 1
  0186a	48 6b c0 01	 imul	 rax, rax, 1
  0186e	48 8b 8c 24 50
	01 00 00	 mov	 rcx, QWORD PTR pClock1$[rsp]
  01876	0f b6 04 01	 movzx	 eax, BYTE PTR [rcx+rax]
  0187a	83 e0 20	 and	 eax, 32			; 00000020H
  0187d	83 f8 20	 cmp	 eax, 32			; 00000020H
  01880	0f 85 92 02 00
	00		 jne	 $LN20@gen_csv_si

; 8616 :     {
; 8617 :         OrResult[0]  |= OrConstant[6];

  01886	b8 04 00 00 00	 mov	 eax, 4
  0188b	48 6b c0 00	 imul	 rax, rax, 0
  0188f	b9 04 00 00 00	 mov	 ecx, 4
  01894	48 6b c9 06	 imul	 rcx, rcx, 6
  01898	48 8d 15 00 00
	00 00		 lea	 rdx, OFFSET FLAT:?OrConstant@?1??gen_csv_sid@@9@9
  0189f	8b 0c 0a	 mov	 ecx, DWORD PTR [rdx+rcx]
  018a2	8b 44 04 70	 mov	 eax, DWORD PTR OrResult$[rsp+rax]
  018a6	0b c1		 or	 eax, ecx
  018a8	b9 04 00 00 00	 mov	 ecx, 4
  018ad	48 6b c9 00	 imul	 rcx, rcx, 0
  018b1	89 44 0c 70	 mov	 DWORD PTR OrResult$[rsp+rcx], eax

; 8618 :         OrResult[2]  |= OrConstant[3];

  018b5	b8 04 00 00 00	 mov	 eax, 4
  018ba	48 6b c0 02	 imul	 rax, rax, 2
  018be	b9 04 00 00 00	 mov	 ecx, 4
  018c3	48 6b c9 03	 imul	 rcx, rcx, 3
  018c7	48 8d 15 00 00
	00 00		 lea	 rdx, OFFSET FLAT:?OrConstant@?1??gen_csv_sid@@9@9
  018ce	8b 0c 0a	 mov	 ecx, DWORD PTR [rdx+rcx]
  018d1	8b 44 04 70	 mov	 eax, DWORD PTR OrResult$[rsp+rax]
  018d5	0b c1		 or	 eax, ecx
  018d7	b9 04 00 00 00	 mov	 ecx, 4
  018dc	48 6b c9 02	 imul	 rcx, rcx, 2
  018e0	89 44 0c 70	 mov	 DWORD PTR OrResult$[rsp+rcx], eax

; 8619 :         OrResult[4]  |= OrConstant[10];

  018e4	b8 04 00 00 00	 mov	 eax, 4
  018e9	48 6b c0 04	 imul	 rax, rax, 4
  018ed	b9 04 00 00 00	 mov	 ecx, 4
  018f2	48 6b c9 0a	 imul	 rcx, rcx, 10
  018f6	48 8d 15 00 00
	00 00		 lea	 rdx, OFFSET FLAT:?OrConstant@?1??gen_csv_sid@@9@9
  018fd	8b 0c 0a	 mov	 ecx, DWORD PTR [rdx+rcx]
  01900	8b 44 04 70	 mov	 eax, DWORD PTR OrResult$[rsp+rax]
  01904	0b c1		 or	 eax, ecx
  01906	b9 04 00 00 00	 mov	 ecx, 4
  0190b	48 6b c9 04	 imul	 rcx, rcx, 4
  0190f	89 44 0c 70	 mov	 DWORD PTR OrResult$[rsp+rcx], eax

; 8620 :         OrResult[7]  |= OrConstant[1];

  01913	b8 04 00 00 00	 mov	 eax, 4
  01918	48 6b c0 07	 imul	 rax, rax, 7
  0191c	b9 04 00 00 00	 mov	 ecx, 4
  01921	48 6b c9 01	 imul	 rcx, rcx, 1
  01925	48 8d 15 00 00
	00 00		 lea	 rdx, OFFSET FLAT:?OrConstant@?1??gen_csv_sid@@9@9
  0192c	8b 0c 0a	 mov	 ecx, DWORD PTR [rdx+rcx]
  0192f	8b 44 04 70	 mov	 eax, DWORD PTR OrResult$[rsp+rax]
  01933	0b c1		 or	 eax, ecx
  01935	b9 04 00 00 00	 mov	 ecx, 4
  0193a	48 6b c9 07	 imul	 rcx, rcx, 7
  0193e	89 44 0c 70	 mov	 DWORD PTR OrResult$[rsp+rcx], eax

; 8621 :         OrResult[9]  |= OrConstant[11];

  01942	b8 04 00 00 00	 mov	 eax, 4
  01947	48 6b c0 09	 imul	 rax, rax, 9
  0194b	b9 04 00 00 00	 mov	 ecx, 4
  01950	48 6b c9 0b	 imul	 rcx, rcx, 11
  01954	48 8d 15 00 00
	00 00		 lea	 rdx, OFFSET FLAT:?OrConstant@?1??gen_csv_sid@@9@9
  0195b	8b 0c 0a	 mov	 ecx, DWORD PTR [rdx+rcx]
  0195e	8b 44 04 70	 mov	 eax, DWORD PTR OrResult$[rsp+rax]
  01962	0b c1		 or	 eax, ecx
  01964	b9 04 00 00 00	 mov	 ecx, 4
  01969	48 6b c9 09	 imul	 rcx, rcx, 9
  0196d	89 44 0c 70	 mov	 DWORD PTR OrResult$[rsp+rcx], eax

; 8622 :         OrResult[10] |= OrConstant[9];

  01971	b8 04 00 00 00	 mov	 eax, 4
  01976	48 6b c0 0a	 imul	 rax, rax, 10
  0197a	b9 04 00 00 00	 mov	 ecx, 4
  0197f	48 6b c9 09	 imul	 rcx, rcx, 9
  01983	48 8d 15 00 00
	00 00		 lea	 rdx, OFFSET FLAT:?OrConstant@?1??gen_csv_sid@@9@9
  0198a	8b 0c 0a	 mov	 ecx, DWORD PTR [rdx+rcx]
  0198d	8b 44 04 70	 mov	 eax, DWORD PTR OrResult$[rsp+rax]
  01991	0b c1		 or	 eax, ecx
  01993	b9 04 00 00 00	 mov	 ecx, 4
  01998	48 6b c9 0a	 imul	 rcx, rcx, 10
  0199c	89 44 0c 70	 mov	 DWORD PTR OrResult$[rsp+rcx], eax

; 8623 :         OrResult[13] |= OrConstant[3];

  019a0	b8 04 00 00 00	 mov	 eax, 4
  019a5	48 6b c0 0d	 imul	 rax, rax, 13
  019a9	b9 04 00 00 00	 mov	 ecx, 4
  019ae	48 6b c9 03	 imul	 rcx, rcx, 3
  019b2	48 8d 15 00 00
	00 00		 lea	 rdx, OFFSET FLAT:?OrConstant@?1??gen_csv_sid@@9@9
  019b9	8b 0c 0a	 mov	 ecx, DWORD PTR [rdx+rcx]
  019bc	8b 44 04 70	 mov	 eax, DWORD PTR OrResult$[rsp+rax]
  019c0	0b c1		 or	 eax, ecx
  019c2	b9 04 00 00 00	 mov	 ecx, 4
  019c7	48 6b c9 0d	 imul	 rcx, rcx, 13
  019cb	89 44 0c 70	 mov	 DWORD PTR OrResult$[rsp+rcx], eax

; 8624 :         OrResult[14] |= OrConstant[11];

  019cf	b8 04 00 00 00	 mov	 eax, 4
  019d4	48 6b c0 0e	 imul	 rax, rax, 14
  019d8	b9 04 00 00 00	 mov	 ecx, 4
  019dd	48 6b c9 0b	 imul	 rcx, rcx, 11
  019e1	48 8d 15 00 00
	00 00		 lea	 rdx, OFFSET FLAT:?OrConstant@?1??gen_csv_sid@@9@9
  019e8	8b 0c 0a	 mov	 ecx, DWORD PTR [rdx+rcx]
  019eb	8b 44 04 70	 mov	 eax, DWORD PTR OrResult$[rsp+rax]
  019ef	0b c1		 or	 eax, ecx
  019f1	b9 04 00 00 00	 mov	 ecx, 4
  019f6	48 6b c9 0e	 imul	 rcx, rcx, 14
  019fa	89 44 0c 70	 mov	 DWORD PTR OrResult$[rsp+rcx], eax

; 8625 :         OrResult[18] |= OrConstant[2];

  019fe	b8 04 00 00 00	 mov	 eax, 4
  01a03	48 6b c0 12	 imul	 rax, rax, 18
  01a07	b9 04 00 00 00	 mov	 ecx, 4
  01a0c	48 6b c9 02	 imul	 rcx, rcx, 2
  01a10	48 8d 15 00 00
	00 00		 lea	 rdx, OFFSET FLAT:?OrConstant@?1??gen_csv_sid@@9@9
  01a17	8b 0c 0a	 mov	 ecx, DWORD PTR [rdx+rcx]
  01a1a	8b 44 04 70	 mov	 eax, DWORD PTR OrResult$[rsp+rax]
  01a1e	0b c1		 or	 eax, ecx
  01a20	b9 04 00 00 00	 mov	 ecx, 4
  01a25	48 6b c9 12	 imul	 rcx, rcx, 18
  01a29	89 44 0c 70	 mov	 DWORD PTR OrResult$[rsp+rcx], eax

; 8626 :         OrResult[21] |= OrConstant[10];

  01a2d	b8 04 00 00 00	 mov	 eax, 4
  01a32	48 6b c0 15	 imul	 rax, rax, 21
  01a36	b9 04 00 00 00	 mov	 ecx, 4
  01a3b	48 6b c9 0a	 imul	 rcx, rcx, 10
  01a3f	48 8d 15 00 00
	00 00		 lea	 rdx, OFFSET FLAT:?OrConstant@?1??gen_csv_sid@@9@9
  01a46	8b 0c 0a	 mov	 ecx, DWORD PTR [rdx+rcx]
  01a49	8b 44 04 70	 mov	 eax, DWORD PTR OrResult$[rsp+rax]
  01a4d	0b c1		 or	 eax, ecx
  01a4f	b9 04 00 00 00	 mov	 ecx, 4
  01a54	48 6b c9 15	 imul	 rcx, rcx, 21
  01a58	89 44 0c 70	 mov	 DWORD PTR OrResult$[rsp+rcx], eax

; 8627 :         OrResult[23] |= OrConstant[2];

  01a5c	b8 04 00 00 00	 mov	 eax, 4
  01a61	48 6b c0 17	 imul	 rax, rax, 23
  01a65	b9 04 00 00 00	 mov	 ecx, 4
  01a6a	48 6b c9 02	 imul	 rcx, rcx, 2
  01a6e	48 8d 15 00 00
	00 00		 lea	 rdx, OFFSET FLAT:?OrConstant@?1??gen_csv_sid@@9@9
  01a75	8b 0c 0a	 mov	 ecx, DWORD PTR [rdx+rcx]
  01a78	8b 44 04 70	 mov	 eax, DWORD PTR OrResult$[rsp+rax]
  01a7c	0b c1		 or	 eax, ecx
  01a7e	b9 04 00 00 00	 mov	 ecx, 4
  01a83	48 6b c9 17	 imul	 rcx, rcx, 23
  01a87	89 44 0c 70	 mov	 DWORD PTR OrResult$[rsp+rcx], eax

; 8628 :         OrResult[24] |= OrConstant[1];

  01a8b	b8 04 00 00 00	 mov	 eax, 4
  01a90	48 6b c0 18	 imul	 rax, rax, 24
  01a94	b9 04 00 00 00	 mov	 ecx, 4
  01a99	48 6b c9 01	 imul	 rcx, rcx, 1
  01a9d	48 8d 15 00 00
	00 00		 lea	 rdx, OFFSET FLAT:?OrConstant@?1??gen_csv_sid@@9@9
  01aa4	8b 0c 0a	 mov	 ecx, DWORD PTR [rdx+rcx]
  01aa7	8b 44 04 70	 mov	 eax, DWORD PTR OrResult$[rsp+rax]
  01aab	0b c1		 or	 eax, ecx
  01aad	b9 04 00 00 00	 mov	 ecx, 4
  01ab2	48 6b c9 18	 imul	 rcx, rcx, 24
  01ab6	89 44 0c 70	 mov	 DWORD PTR OrResult$[rsp+rcx], eax

; 8629 :         OrResult[26] |= OrConstant[7];

  01aba	b8 04 00 00 00	 mov	 eax, 4
  01abf	48 6b c0 1a	 imul	 rax, rax, 26
  01ac3	b9 04 00 00 00	 mov	 ecx, 4
  01ac8	48 6b c9 07	 imul	 rcx, rcx, 7
  01acc	48 8d 15 00 00
	00 00		 lea	 rdx, OFFSET FLAT:?OrConstant@?1??gen_csv_sid@@9@9
  01ad3	8b 0c 0a	 mov	 ecx, DWORD PTR [rdx+rcx]
  01ad6	8b 44 04 70	 mov	 eax, DWORD PTR OrResult$[rsp+rax]
  01ada	0b c1		 or	 eax, ecx
  01adc	b9 04 00 00 00	 mov	 ecx, 4
  01ae1	48 6b c9 1a	 imul	 rcx, rcx, 26
  01ae5	89 44 0c 70	 mov	 DWORD PTR OrResult$[rsp+rcx], eax

; 8630 :         OrResult[29] |= OrConstant[4];

  01ae9	b8 04 00 00 00	 mov	 eax, 4
  01aee	48 6b c0 1d	 imul	 rax, rax, 29
  01af2	b9 04 00 00 00	 mov	 ecx, 4
  01af7	48 6b c9 04	 imul	 rcx, rcx, 4
  01afb	48 8d 15 00 00
	00 00		 lea	 rdx, OFFSET FLAT:?OrConstant@?1??gen_csv_sid@@9@9
  01b02	8b 0c 0a	 mov	 ecx, DWORD PTR [rdx+rcx]
  01b05	8b 44 04 70	 mov	 eax, DWORD PTR OrResult$[rsp+rax]
  01b09	0b c1		 or	 eax, ecx
  01b0b	b9 04 00 00 00	 mov	 ecx, 4
  01b10	48 6b c9 1d	 imul	 rcx, rcx, 29
  01b14	89 44 0c 70	 mov	 DWORD PTR OrResult$[rsp+rcx], eax
$LN20@gen_csv_si:

; 8631 :     }
; 8632 :     if ((pClock1[1] & 0x10 ) == 0x10)

  01b18	b8 01 00 00 00	 mov	 eax, 1
  01b1d	48 6b c0 01	 imul	 rax, rax, 1
  01b21	48 8b 8c 24 50
	01 00 00	 mov	 rcx, QWORD PTR pClock1$[rsp]
  01b29	0f b6 04 01	 movzx	 eax, BYTE PTR [rcx+rax]
  01b2d	83 e0 10	 and	 eax, 16
  01b30	83 f8 10	 cmp	 eax, 16
  01b33	0f 85 63 02 00
	00		 jne	 $LN21@gen_csv_si

; 8633 :     {
; 8634 :         OrResult[0]  |= OrConstant[17];

  01b39	b8 04 00 00 00	 mov	 eax, 4
  01b3e	48 6b c0 00	 imul	 rax, rax, 0
  01b42	b9 04 00 00 00	 mov	 ecx, 4
  01b47	48 6b c9 11	 imul	 rcx, rcx, 17
  01b4b	48 8d 15 00 00
	00 00		 lea	 rdx, OFFSET FLAT:?OrConstant@?1??gen_csv_sid@@9@9
  01b52	8b 0c 0a	 mov	 ecx, DWORD PTR [rdx+rcx]
  01b55	8b 44 04 70	 mov	 eax, DWORD PTR OrResult$[rsp+rax]
  01b59	0b c1		 or	 eax, ecx
  01b5b	b9 04 00 00 00	 mov	 ecx, 4
  01b60	48 6b c9 00	 imul	 rcx, rcx, 0
  01b64	89 44 0c 70	 mov	 DWORD PTR OrResult$[rsp+rcx], eax

; 8635 :         OrResult[2]  |= OrConstant[21];

  01b68	b8 04 00 00 00	 mov	 eax, 4
  01b6d	48 6b c0 02	 imul	 rax, rax, 2
  01b71	b9 04 00 00 00	 mov	 ecx, 4
  01b76	48 6b c9 15	 imul	 rcx, rcx, 21
  01b7a	48 8d 15 00 00
	00 00		 lea	 rdx, OFFSET FLAT:?OrConstant@?1??gen_csv_sid@@9@9
  01b81	8b 0c 0a	 mov	 ecx, DWORD PTR [rdx+rcx]
  01b84	8b 44 04 70	 mov	 eax, DWORD PTR OrResult$[rsp+rax]
  01b88	0b c1		 or	 eax, ecx
  01b8a	b9 04 00 00 00	 mov	 ecx, 4
  01b8f	48 6b c9 02	 imul	 rcx, rcx, 2
  01b93	89 44 0c 70	 mov	 DWORD PTR OrResult$[rsp+rcx], eax

; 8636 :         OrResult[5]  |= OrConstant[12];

  01b97	b8 04 00 00 00	 mov	 eax, 4
  01b9c	48 6b c0 05	 imul	 rax, rax, 5
  01ba0	b9 04 00 00 00	 mov	 ecx, 4
  01ba5	48 6b c9 0c	 imul	 rcx, rcx, 12
  01ba9	48 8d 15 00 00
	00 00		 lea	 rdx, OFFSET FLAT:?OrConstant@?1??gen_csv_sid@@9@9
  01bb0	8b 0c 0a	 mov	 ecx, DWORD PTR [rdx+rcx]
  01bb3	8b 44 04 70	 mov	 eax, DWORD PTR OrResult$[rsp+rax]
  01bb7	0b c1		 or	 eax, ecx
  01bb9	b9 04 00 00 00	 mov	 ecx, 4
  01bbe	48 6b c9 05	 imul	 rcx, rcx, 5
  01bc2	89 44 0c 70	 mov	 DWORD PTR OrResult$[rsp+rcx], eax

; 8637 :         OrResult[7]  |= OrConstant[23];

  01bc6	b8 04 00 00 00	 mov	 eax, 4
  01bcb	48 6b c0 07	 imul	 rax, rax, 7
  01bcf	b9 04 00 00 00	 mov	 ecx, 4
  01bd4	48 6b c9 17	 imul	 rcx, rcx, 23
  01bd8	48 8d 15 00 00
	00 00		 lea	 rdx, OFFSET FLAT:?OrConstant@?1??gen_csv_sid@@9@9
  01bdf	8b 0c 0a	 mov	 ecx, DWORD PTR [rdx+rcx]
  01be2	8b 44 04 70	 mov	 eax, DWORD PTR OrResult$[rsp+rax]
  01be6	0b c1		 or	 eax, ecx
  01be8	b9 04 00 00 00	 mov	 ecx, 4
  01bed	48 6b c9 07	 imul	 rcx, rcx, 7
  01bf1	89 44 0c 70	 mov	 DWORD PTR OrResult$[rsp+rcx], eax

; 8638 :         OrResult[8]  |= OrConstant[22];

  01bf5	b8 04 00 00 00	 mov	 eax, 4
  01bfa	48 6b c0 08	 imul	 rax, rax, 8
  01bfe	b9 04 00 00 00	 mov	 ecx, 4
  01c03	48 6b c9 16	 imul	 rcx, rcx, 22
  01c07	48 8d 15 00 00
	00 00		 lea	 rdx, OFFSET FLAT:?OrConstant@?1??gen_csv_sid@@9@9
  01c0e	8b 0c 0a	 mov	 ecx, DWORD PTR [rdx+rcx]
  01c11	8b 44 04 70	 mov	 eax, DWORD PTR OrResult$[rsp+rax]
  01c15	0b c1		 or	 eax, ecx
  01c17	b9 04 00 00 00	 mov	 ecx, 4
  01c1c	48 6b c9 08	 imul	 rcx, rcx, 8
  01c20	89 44 0c 70	 mov	 DWORD PTR OrResult$[rsp+rcx], eax

; 8639 :         OrResult[11] |= OrConstant[21];

  01c24	b8 04 00 00 00	 mov	 eax, 4
  01c29	48 6b c0 0b	 imul	 rax, rax, 11
  01c2d	b9 04 00 00 00	 mov	 ecx, 4
  01c32	48 6b c9 15	 imul	 rcx, rcx, 21
  01c36	48 8d 15 00 00
	00 00		 lea	 rdx, OFFSET FLAT:?OrConstant@?1??gen_csv_sid@@9@9
  01c3d	8b 0c 0a	 mov	 ecx, DWORD PTR [rdx+rcx]
  01c40	8b 44 04 70	 mov	 eax, DWORD PTR OrResult$[rsp+rax]
  01c44	0b c1		 or	 eax, ecx
  01c46	b9 04 00 00 00	 mov	 ecx, 4
  01c4b	48 6b c9 0b	 imul	 rcx, rcx, 11
  01c4f	89 44 0c 70	 mov	 DWORD PTR OrResult$[rsp+rcx], eax

; 8640 :         OrResult[15] |= OrConstant[13];

  01c53	b8 04 00 00 00	 mov	 eax, 4
  01c58	48 6b c0 0f	 imul	 rax, rax, 15
  01c5c	b9 04 00 00 00	 mov	 ecx, 4
  01c61	48 6b c9 0d	 imul	 rcx, rcx, 13
  01c65	48 8d 15 00 00
	00 00		 lea	 rdx, OFFSET FLAT:?OrConstant@?1??gen_csv_sid@@9@9
  01c6c	8b 0c 0a	 mov	 ecx, DWORD PTR [rdx+rcx]
  01c6f	8b 44 04 70	 mov	 eax, DWORD PTR OrResult$[rsp+rax]
  01c73	0b c1		 or	 eax, ecx
  01c75	b9 04 00 00 00	 mov	 ecx, 4
  01c7a	48 6b c9 0f	 imul	 rcx, rcx, 15
  01c7e	89 44 0c 70	 mov	 DWORD PTR OrResult$[rsp+rcx], eax

; 8641 :         OrResult[16] |= OrConstant[12];

  01c82	b8 04 00 00 00	 mov	 eax, 4
  01c87	48 6b c0 10	 imul	 rax, rax, 16
  01c8b	b9 04 00 00 00	 mov	 ecx, 4
  01c90	48 6b c9 0c	 imul	 rcx, rcx, 12
  01c94	48 8d 15 00 00
	00 00		 lea	 rdx, OFFSET FLAT:?OrConstant@?1??gen_csv_sid@@9@9
  01c9b	8b 0c 0a	 mov	 ecx, DWORD PTR [rdx+rcx]
  01c9e	8b 44 04 70	 mov	 eax, DWORD PTR OrResult$[rsp+rax]
  01ca2	0b c1		 or	 eax, ecx
  01ca4	b9 04 00 00 00	 mov	 ecx, 4
  01ca9	48 6b c9 10	 imul	 rcx, rcx, 16
  01cad	89 44 0c 70	 mov	 DWORD PTR OrResult$[rsp+rcx], eax

; 8642 :         OrResult[21] |= OrConstant[15];

  01cb1	b8 04 00 00 00	 mov	 eax, 4
  01cb6	48 6b c0 15	 imul	 rax, rax, 21
  01cba	b9 04 00 00 00	 mov	 ecx, 4
  01cbf	48 6b c9 0f	 imul	 rcx, rcx, 15
  01cc3	48 8d 15 00 00
	00 00		 lea	 rdx, OFFSET FLAT:?OrConstant@?1??gen_csv_sid@@9@9
  01cca	8b 0c 0a	 mov	 ecx, DWORD PTR [rdx+rcx]
  01ccd	8b 44 04 70	 mov	 eax, DWORD PTR OrResult$[rsp+rax]
  01cd1	0b c1		 or	 eax, ecx
  01cd3	b9 04 00 00 00	 mov	 ecx, 4
  01cd8	48 6b c9 15	 imul	 rcx, rcx, 21
  01cdc	89 44 0c 70	 mov	 DWORD PTR OrResult$[rsp+rcx], eax

; 8643 :         OrResult[22] |= OrConstant[16];

  01ce0	b8 04 00 00 00	 mov	 eax, 4
  01ce5	48 6b c0 16	 imul	 rax, rax, 22
  01ce9	b9 04 00 00 00	 mov	 ecx, 4
  01cee	48 6b c9 10	 imul	 rcx, rcx, 16
  01cf2	48 8d 15 00 00
	00 00		 lea	 rdx, OFFSET FLAT:?OrConstant@?1??gen_csv_sid@@9@9
  01cf9	8b 0c 0a	 mov	 ecx, DWORD PTR [rdx+rcx]
  01cfc	8b 44 04 70	 mov	 eax, DWORD PTR OrResult$[rsp+rax]
  01d00	0b c1		 or	 eax, ecx
  01d02	b9 04 00 00 00	 mov	 ecx, 4
  01d07	48 6b c9 16	 imul	 rcx, rcx, 22
  01d0b	89 44 0c 70	 mov	 DWORD PTR OrResult$[rsp+rcx], eax

; 8644 :         OrResult[24] |= OrConstant[19];

  01d0f	b8 04 00 00 00	 mov	 eax, 4
  01d14	48 6b c0 18	 imul	 rax, rax, 24
  01d18	b9 04 00 00 00	 mov	 ecx, 4
  01d1d	48 6b c9 13	 imul	 rcx, rcx, 19
  01d21	48 8d 15 00 00
	00 00		 lea	 rdx, OFFSET FLAT:?OrConstant@?1??gen_csv_sid@@9@9
  01d28	8b 0c 0a	 mov	 ecx, DWORD PTR [rdx+rcx]
  01d2b	8b 44 04 70	 mov	 eax, DWORD PTR OrResult$[rsp+rax]
  01d2f	0b c1		 or	 eax, ecx
  01d31	b9 04 00 00 00	 mov	 ecx, 4
  01d36	48 6b c9 18	 imul	 rcx, rcx, 24
  01d3a	89 44 0c 70	 mov	 DWORD PTR OrResult$[rsp+rcx], eax

; 8645 :         OrResult[27] |= OrConstant[14];

  01d3e	b8 04 00 00 00	 mov	 eax, 4
  01d43	48 6b c0 1b	 imul	 rax, rax, 27
  01d47	b9 04 00 00 00	 mov	 ecx, 4
  01d4c	48 6b c9 0e	 imul	 rcx, rcx, 14
  01d50	48 8d 15 00 00
	00 00		 lea	 rdx, OFFSET FLAT:?OrConstant@?1??gen_csv_sid@@9@9
  01d57	8b 0c 0a	 mov	 ecx, DWORD PTR [rdx+rcx]
  01d5a	8b 44 04 70	 mov	 eax, DWORD PTR OrResult$[rsp+rax]
  01d5e	0b c1		 or	 eax, ecx
  01d60	b9 04 00 00 00	 mov	 ecx, 4
  01d65	48 6b c9 1b	 imul	 rcx, rcx, 27
  01d69	89 44 0c 70	 mov	 DWORD PTR OrResult$[rsp+rcx], eax

; 8646 :         OrResult[28] |= OrConstant[23];

  01d6d	b8 04 00 00 00	 mov	 eax, 4
  01d72	48 6b c0 1c	 imul	 rax, rax, 28
  01d76	b9 04 00 00 00	 mov	 ecx, 4
  01d7b	48 6b c9 17	 imul	 rcx, rcx, 23
  01d7f	48 8d 15 00 00
	00 00		 lea	 rdx, OFFSET FLAT:?OrConstant@?1??gen_csv_sid@@9@9
  01d86	8b 0c 0a	 mov	 ecx, DWORD PTR [rdx+rcx]
  01d89	8b 44 04 70	 mov	 eax, DWORD PTR OrResult$[rsp+rax]
  01d8d	0b c1		 or	 eax, ecx
  01d8f	b9 04 00 00 00	 mov	 ecx, 4
  01d94	48 6b c9 1c	 imul	 rcx, rcx, 28
  01d98	89 44 0c 70	 mov	 DWORD PTR OrResult$[rsp+rcx], eax
$LN21@gen_csv_si:

; 8647 :     }
; 8648 :     if ((pClock1[1] & 0x08 ) == 0x08)

  01d9c	b8 01 00 00 00	 mov	 eax, 1
  01da1	48 6b c0 01	 imul	 rax, rax, 1
  01da5	48 8b 8c 24 50
	01 00 00	 mov	 rcx, QWORD PTR pClock1$[rsp]
  01dad	0f b6 04 01	 movzx	 eax, BYTE PTR [rcx+rax]
  01db1	83 e0 08	 and	 eax, 8
  01db4	83 f8 08	 cmp	 eax, 8
  01db7	0f 85 92 02 00
	00		 jne	 $LN22@gen_csv_si

; 8649 :     {
; 8650 :         OrResult[1]  |= OrConstant[14];

  01dbd	b8 04 00 00 00	 mov	 eax, 4
  01dc2	48 6b c0 01	 imul	 rax, rax, 1
  01dc6	b9 04 00 00 00	 mov	 ecx, 4
  01dcb	48 6b c9 0e	 imul	 rcx, rcx, 14
  01dcf	48 8d 15 00 00
	00 00		 lea	 rdx, OFFSET FLAT:?OrConstant@?1??gen_csv_sid@@9@9
  01dd6	8b 0c 0a	 mov	 ecx, DWORD PTR [rdx+rcx]
  01dd9	8b 44 04 70	 mov	 eax, DWORD PTR OrResult$[rsp+rax]
  01ddd	0b c1		 or	 eax, ecx
  01ddf	b9 04 00 00 00	 mov	 ecx, 4
  01de4	48 6b c9 01	 imul	 rcx, rcx, 1
  01de8	89 44 0c 70	 mov	 DWORD PTR OrResult$[rsp+rcx], eax

; 8651 :         OrResult[2]  |= OrConstant[13];

  01dec	b8 04 00 00 00	 mov	 eax, 4
  01df1	48 6b c0 02	 imul	 rax, rax, 2
  01df5	b9 04 00 00 00	 mov	 ecx, 4
  01dfa	48 6b c9 0d	 imul	 rcx, rcx, 13
  01dfe	48 8d 15 00 00
	00 00		 lea	 rdx, OFFSET FLAT:?OrConstant@?1??gen_csv_sid@@9@9
  01e05	8b 0c 0a	 mov	 ecx, DWORD PTR [rdx+rcx]
  01e08	8b 44 04 70	 mov	 eax, DWORD PTR OrResult$[rsp+rax]
  01e0c	0b c1		 or	 eax, ecx
  01e0e	b9 04 00 00 00	 mov	 ecx, 4
  01e13	48 6b c9 02	 imul	 rcx, rcx, 2
  01e17	89 44 0c 70	 mov	 DWORD PTR OrResult$[rsp+rcx], eax

; 8652 :         OrResult[6]  |= OrConstant[21];

  01e1b	b8 04 00 00 00	 mov	 eax, 4
  01e20	48 6b c0 06	 imul	 rax, rax, 6
  01e24	b9 04 00 00 00	 mov	 ecx, 4
  01e29	48 6b c9 15	 imul	 rcx, rcx, 21
  01e2d	48 8d 15 00 00
	00 00		 lea	 rdx, OFFSET FLAT:?OrConstant@?1??gen_csv_sid@@9@9
  01e34	8b 0c 0a	 mov	 ecx, DWORD PTR [rdx+rcx]
  01e37	8b 44 04 70	 mov	 eax, DWORD PTR OrResult$[rsp+rax]
  01e3b	0b c1		 or	 eax, ecx
  01e3d	b9 04 00 00 00	 mov	 ecx, 4
  01e42	48 6b c9 06	 imul	 rcx, rcx, 6
  01e46	89 44 0c 70	 mov	 DWORD PTR OrResult$[rsp+rcx], eax

; 8653 :         OrResult[9]  |= OrConstant[12];

  01e4a	b8 04 00 00 00	 mov	 eax, 4
  01e4f	48 6b c0 09	 imul	 rax, rax, 9
  01e53	b9 04 00 00 00	 mov	 ecx, 4
  01e58	48 6b c9 0c	 imul	 rcx, rcx, 12
  01e5c	48 8d 15 00 00
	00 00		 lea	 rdx, OFFSET FLAT:?OrConstant@?1??gen_csv_sid@@9@9
  01e63	8b 0c 0a	 mov	 ecx, DWORD PTR [rdx+rcx]
  01e66	8b 44 04 70	 mov	 eax, DWORD PTR OrResult$[rsp+rax]
  01e6a	0b c1		 or	 eax, ecx
  01e6c	b9 04 00 00 00	 mov	 ecx, 4
  01e71	48 6b c9 09	 imul	 rcx, rcx, 9
  01e75	89 44 0c 70	 mov	 DWORD PTR OrResult$[rsp+rcx], eax

; 8654 :         OrResult[11] |= OrConstant[23];

  01e79	b8 04 00 00 00	 mov	 eax, 4
  01e7e	48 6b c0 0b	 imul	 rax, rax, 11
  01e82	b9 04 00 00 00	 mov	 ecx, 4
  01e87	48 6b c9 17	 imul	 rcx, rcx, 23
  01e8b	48 8d 15 00 00
	00 00		 lea	 rdx, OFFSET FLAT:?OrConstant@?1??gen_csv_sid@@9@9
  01e92	8b 0c 0a	 mov	 ecx, DWORD PTR [rdx+rcx]
  01e95	8b 44 04 70	 mov	 eax, DWORD PTR OrResult$[rsp+rax]
  01e99	0b c1		 or	 eax, ecx
  01e9b	b9 04 00 00 00	 mov	 ecx, 4
  01ea0	48 6b c9 0b	 imul	 rcx, rcx, 11
  01ea4	89 44 0c 70	 mov	 DWORD PTR OrResult$[rsp+rcx], eax

; 8655 :         OrResult[12] |= OrConstant[22];

  01ea8	b8 04 00 00 00	 mov	 eax, 4
  01ead	48 6b c0 0c	 imul	 rax, rax, 12
  01eb1	b9 04 00 00 00	 mov	 ecx, 4
  01eb6	48 6b c9 16	 imul	 rcx, rcx, 22
  01eba	48 8d 15 00 00
	00 00		 lea	 rdx, OFFSET FLAT:?OrConstant@?1??gen_csv_sid@@9@9
  01ec1	8b 0c 0a	 mov	 ecx, DWORD PTR [rdx+rcx]
  01ec4	8b 44 04 70	 mov	 eax, DWORD PTR OrResult$[rsp+rax]
  01ec8	0b c1		 or	 eax, ecx
  01eca	b9 04 00 00 00	 mov	 ecx, 4
  01ecf	48 6b c9 0c	 imul	 rcx, rcx, 12
  01ed3	89 44 0c 70	 mov	 DWORD PTR OrResult$[rsp+rcx], eax

; 8656 :         OrResult[15] |= OrConstant[21];

  01ed7	b8 04 00 00 00	 mov	 eax, 4
  01edc	48 6b c0 0f	 imul	 rax, rax, 15
  01ee0	b9 04 00 00 00	 mov	 ecx, 4
  01ee5	48 6b c9 15	 imul	 rcx, rcx, 21
  01ee9	48 8d 15 00 00
	00 00		 lea	 rdx, OFFSET FLAT:?OrConstant@?1??gen_csv_sid@@9@9
  01ef0	8b 0c 0a	 mov	 ecx, DWORD PTR [rdx+rcx]
  01ef3	8b 44 04 70	 mov	 eax, DWORD PTR OrResult$[rsp+rax]
  01ef7	0b c1		 or	 eax, ecx
  01ef9	b9 04 00 00 00	 mov	 ecx, 4
  01efe	48 6b c9 0f	 imul	 rcx, rcx, 15
  01f02	89 44 0c 70	 mov	 DWORD PTR OrResult$[rsp+rcx], eax

; 8657 :         OrResult[16] |= OrConstant[15];

  01f06	b8 04 00 00 00	 mov	 eax, 4
  01f0b	48 6b c0 10	 imul	 rax, rax, 16
  01f0f	b9 04 00 00 00	 mov	 ecx, 4
  01f14	48 6b c9 0f	 imul	 rcx, rcx, 15
  01f18	48 8d 15 00 00
	00 00		 lea	 rdx, OFFSET FLAT:?OrConstant@?1??gen_csv_sid@@9@9
  01f1f	8b 0c 0a	 mov	 ecx, DWORD PTR [rdx+rcx]
  01f22	8b 44 04 70	 mov	 eax, DWORD PTR OrResult$[rsp+rax]
  01f26	0b c1		 or	 eax, ecx
  01f28	b9 04 00 00 00	 mov	 ecx, 4
  01f2d	48 6b c9 10	 imul	 rcx, rcx, 16
  01f31	89 44 0c 70	 mov	 DWORD PTR OrResult$[rsp+rcx], eax

; 8658 :         OrResult[18] |= OrConstant[20];

  01f35	b8 04 00 00 00	 mov	 eax, 4
  01f3a	48 6b c0 12	 imul	 rax, rax, 18
  01f3e	b9 04 00 00 00	 mov	 ecx, 4
  01f43	48 6b c9 14	 imul	 rcx, rcx, 20
  01f47	48 8d 15 00 00
	00 00		 lea	 rdx, OFFSET FLAT:?OrConstant@?1??gen_csv_sid@@9@9
  01f4e	8b 0c 0a	 mov	 ecx, DWORD PTR [rdx+rcx]
  01f51	8b 44 04 70	 mov	 eax, DWORD PTR OrResult$[rsp+rax]
  01f55	0b c1		 or	 eax, ecx
  01f57	b9 04 00 00 00	 mov	 ecx, 4
  01f5c	48 6b c9 12	 imul	 rcx, rcx, 18
  01f60	89 44 0c 70	 mov	 DWORD PTR OrResult$[rsp+rcx], eax

; 8659 :         OrResult[20] |= OrConstant[12];

  01f64	b8 04 00 00 00	 mov	 eax, 4
  01f69	48 6b c0 14	 imul	 rax, rax, 20
  01f6d	b9 04 00 00 00	 mov	 ecx, 4
  01f72	48 6b c9 0c	 imul	 rcx, rcx, 12
  01f76	48 8d 15 00 00
	00 00		 lea	 rdx, OFFSET FLAT:?OrConstant@?1??gen_csv_sid@@9@9
  01f7d	8b 0c 0a	 mov	 ecx, DWORD PTR [rdx+rcx]
  01f80	8b 44 04 70	 mov	 eax, DWORD PTR OrResult$[rsp+rax]
  01f84	0b c1		 or	 eax, ecx
  01f86	b9 04 00 00 00	 mov	 ecx, 4
  01f8b	48 6b c9 14	 imul	 rcx, rcx, 20
  01f8f	89 44 0c 70	 mov	 DWORD PTR OrResult$[rsp+rcx], eax

; 8660 :         OrResult[25] |= OrConstant[15];

  01f93	b8 04 00 00 00	 mov	 eax, 4
  01f98	48 6b c0 19	 imul	 rax, rax, 25
  01f9c	b9 04 00 00 00	 mov	 ecx, 4
  01fa1	48 6b c9 0f	 imul	 rcx, rcx, 15
  01fa5	48 8d 15 00 00
	00 00		 lea	 rdx, OFFSET FLAT:?OrConstant@?1??gen_csv_sid@@9@9
  01fac	8b 0c 0a	 mov	 ecx, DWORD PTR [rdx+rcx]
  01faf	8b 44 04 70	 mov	 eax, DWORD PTR OrResult$[rsp+rax]
  01fb3	0b c1		 or	 eax, ecx
  01fb5	b9 04 00 00 00	 mov	 ecx, 4
  01fba	48 6b c9 19	 imul	 rcx, rcx, 25
  01fbe	89 44 0c 70	 mov	 DWORD PTR OrResult$[rsp+rcx], eax

; 8661 :         OrResult[26] |= OrConstant[16];

  01fc2	b8 04 00 00 00	 mov	 eax, 4
  01fc7	48 6b c0 1a	 imul	 rax, rax, 26
  01fcb	b9 04 00 00 00	 mov	 ecx, 4
  01fd0	48 6b c9 10	 imul	 rcx, rcx, 16
  01fd4	48 8d 15 00 00
	00 00		 lea	 rdx, OFFSET FLAT:?OrConstant@?1??gen_csv_sid@@9@9
  01fdb	8b 0c 0a	 mov	 ecx, DWORD PTR [rdx+rcx]
  01fde	8b 44 04 70	 mov	 eax, DWORD PTR OrResult$[rsp+rax]
  01fe2	0b c1		 or	 eax, ecx
  01fe4	b9 04 00 00 00	 mov	 ecx, 4
  01fe9	48 6b c9 1a	 imul	 rcx, rcx, 26
  01fed	89 44 0c 70	 mov	 DWORD PTR OrResult$[rsp+rcx], eax

; 8662 :         OrResult[28] |= OrConstant[19];

  01ff1	b8 04 00 00 00	 mov	 eax, 4
  01ff6	48 6b c0 1c	 imul	 rax, rax, 28
  01ffa	b9 04 00 00 00	 mov	 ecx, 4
  01fff	48 6b c9 13	 imul	 rcx, rcx, 19
  02003	48 8d 15 00 00
	00 00		 lea	 rdx, OFFSET FLAT:?OrConstant@?1??gen_csv_sid@@9@9
  0200a	8b 0c 0a	 mov	 ecx, DWORD PTR [rdx+rcx]
  0200d	8b 44 04 70	 mov	 eax, DWORD PTR OrResult$[rsp+rax]
  02011	0b c1		 or	 eax, ecx
  02013	b9 04 00 00 00	 mov	 ecx, 4
  02018	48 6b c9 1c	 imul	 rcx, rcx, 28
  0201c	89 44 0c 70	 mov	 DWORD PTR OrResult$[rsp+rcx], eax

; 8663 :         OrResult[31] |= OrConstant[20];

  02020	b8 04 00 00 00	 mov	 eax, 4
  02025	48 6b c0 1f	 imul	 rax, rax, 31
  02029	b9 04 00 00 00	 mov	 ecx, 4
  0202e	48 6b c9 14	 imul	 rcx, rcx, 20
  02032	48 8d 15 00 00
	00 00		 lea	 rdx, OFFSET FLAT:?OrConstant@?1??gen_csv_sid@@9@9
  02039	8b 0c 0a	 mov	 ecx, DWORD PTR [rdx+rcx]
  0203c	8b 44 04 70	 mov	 eax, DWORD PTR OrResult$[rsp+rax]
  02040	0b c1		 or	 eax, ecx
  02042	b9 04 00 00 00	 mov	 ecx, 4
  02047	48 6b c9 1f	 imul	 rcx, rcx, 31
  0204b	89 44 0c 70	 mov	 DWORD PTR OrResult$[rsp+rcx], eax
$LN22@gen_csv_si:

; 8664 :     }
; 8665 :     if ((pClock1[1] & 0x04 ) == 0x04)

  0204f	b8 01 00 00 00	 mov	 eax, 1
  02054	48 6b c0 01	 imul	 rax, rax, 1
  02058	48 8b 8c 24 50
	01 00 00	 mov	 rcx, QWORD PTR pClock1$[rsp]
  02060	0f b6 04 01	 movzx	 eax, BYTE PTR [rcx+rax]
  02064	83 e0 04	 and	 eax, 4
  02067	83 f8 04	 cmp	 eax, 4
  0206a	0f 85 63 02 00
	00		 jne	 $LN23@gen_csv_si

; 8666 :     {
; 8667 :         OrResult[2]  |= OrConstant[18];

  02070	b8 04 00 00 00	 mov	 eax, 4
  02075	48 6b c0 02	 imul	 rax, rax, 2
  02079	b9 04 00 00 00	 mov	 ecx, 4
  0207e	48 6b c9 12	 imul	 rcx, rcx, 18
  02082	48 8d 15 00 00
	00 00		 lea	 rdx, OFFSET FLAT:?OrConstant@?1??gen_csv_sid@@9@9
  02089	8b 0c 0a	 mov	 ecx, DWORD PTR [rdx+rcx]
  0208c	8b 44 04 70	 mov	 eax, DWORD PTR OrResult$[rsp+rax]
  02090	0b c1		 or	 eax, ecx
  02092	b9 04 00 00 00	 mov	 ecx, 4
  02097	48 6b c9 02	 imul	 rcx, rcx, 2
  0209b	89 44 0c 70	 mov	 DWORD PTR OrResult$[rsp+rcx], eax

; 8668 :         OrResult[5]  |= OrConstant[18];

  0209f	b8 04 00 00 00	 mov	 eax, 4
  020a4	48 6b c0 05	 imul	 rax, rax, 5
  020a8	b9 04 00 00 00	 mov	 ecx, 4
  020ad	48 6b c9 12	 imul	 rcx, rcx, 18
  020b1	48 8d 15 00 00
	00 00		 lea	 rdx, OFFSET FLAT:?OrConstant@?1??gen_csv_sid@@9@9
  020b8	8b 0c 0a	 mov	 ecx, DWORD PTR [rdx+rcx]
  020bb	8b 44 04 70	 mov	 eax, DWORD PTR OrResult$[rsp+rax]
  020bf	0b c1		 or	 eax, ecx
  020c1	b9 04 00 00 00	 mov	 ecx, 4
  020c6	48 6b c9 05	 imul	 rcx, rcx, 5
  020ca	89 44 0c 70	 mov	 DWORD PTR OrResult$[rsp+rcx], eax

; 8669 :         OrResult[7]  |= OrConstant[17];

  020ce	b8 04 00 00 00	 mov	 eax, 4
  020d3	48 6b c0 07	 imul	 rax, rax, 7
  020d7	b9 04 00 00 00	 mov	 ecx, 4
  020dc	48 6b c9 11	 imul	 rcx, rcx, 17
  020e0	48 8d 15 00 00
	00 00		 lea	 rdx, OFFSET FLAT:?OrConstant@?1??gen_csv_sid@@9@9
  020e7	8b 0c 0a	 mov	 ecx, DWORD PTR [rdx+rcx]
  020ea	8b 44 04 70	 mov	 eax, DWORD PTR OrResult$[rsp+rax]
  020ee	0b c1		 or	 eax, ecx
  020f0	b9 04 00 00 00	 mov	 ecx, 4
  020f5	48 6b c9 07	 imul	 rcx, rcx, 7
  020f9	89 44 0c 70	 mov	 DWORD PTR OrResult$[rsp+rcx], eax

; 8670 :         OrResult[9]  |= OrConstant[20];

  020fd	b8 04 00 00 00	 mov	 eax, 4
  02102	48 6b c0 09	 imul	 rax, rax, 9
  02106	b9 04 00 00 00	 mov	 ecx, 4
  0210b	48 6b c9 14	 imul	 rcx, rcx, 20
  0210f	48 8d 15 00 00
	00 00		 lea	 rdx, OFFSET FLAT:?OrConstant@?1??gen_csv_sid@@9@9
  02116	8b 0c 0a	 mov	 ecx, DWORD PTR [rdx+rcx]
  02119	8b 44 04 70	 mov	 eax, DWORD PTR OrResult$[rsp+rax]
  0211d	0b c1		 or	 eax, ecx
  0211f	b9 04 00 00 00	 mov	 ecx, 4
  02124	48 6b c9 09	 imul	 rcx, rcx, 9
  02128	89 44 0c 70	 mov	 DWORD PTR OrResult$[rsp+rcx], eax

; 8671 :         OrResult[10] |= OrConstant[13];

  0212c	b8 04 00 00 00	 mov	 eax, 4
  02131	48 6b c0 0a	 imul	 rax, rax, 10
  02135	b9 04 00 00 00	 mov	 ecx, 4
  0213a	48 6b c9 0d	 imul	 rcx, rcx, 13
  0213e	48 8d 15 00 00
	00 00		 lea	 rdx, OFFSET FLAT:?OrConstant@?1??gen_csv_sid@@9@9
  02145	8b 0c 0a	 mov	 ecx, DWORD PTR [rdx+rcx]
  02148	8b 44 04 70	 mov	 eax, DWORD PTR OrResult$[rsp+rax]
  0214c	0b c1		 or	 eax, ecx
  0214e	b9 04 00 00 00	 mov	 ecx, 4
  02153	48 6b c9 0a	 imul	 rcx, rcx, 10
  02157	89 44 0c 70	 mov	 DWORD PTR OrResult$[rsp+rcx], eax

; 8672 :         OrResult[14] |= OrConstant[21];

  0215b	b8 04 00 00 00	 mov	 eax, 4
  02160	48 6b c0 0e	 imul	 rax, rax, 14
  02164	b9 04 00 00 00	 mov	 ecx, 4
  02169	48 6b c9 15	 imul	 rcx, rcx, 21
  0216d	48 8d 15 00 00
	00 00		 lea	 rdx, OFFSET FLAT:?OrConstant@?1??gen_csv_sid@@9@9
  02174	8b 0c 0a	 mov	 ecx, DWORD PTR [rdx+rcx]
  02177	8b 44 04 70	 mov	 eax, DWORD PTR OrResult$[rsp+rax]
  0217b	0b c1		 or	 eax, ecx
  0217d	b9 04 00 00 00	 mov	 ecx, 4
  02182	48 6b c9 0e	 imul	 rcx, rcx, 14
  02186	89 44 0c 70	 mov	 DWORD PTR OrResult$[rsp+rcx], eax

; 8673 :         OrResult[17] |= OrConstant[22];

  0218a	b8 04 00 00 00	 mov	 eax, 4
  0218f	48 6b c0 11	 imul	 rax, rax, 17
  02193	b9 04 00 00 00	 mov	 ecx, 4
  02198	48 6b c9 16	 imul	 rcx, rcx, 22
  0219c	48 8d 15 00 00
	00 00		 lea	 rdx, OFFSET FLAT:?OrConstant@?1??gen_csv_sid@@9@9
  021a3	8b 0c 0a	 mov	 ecx, DWORD PTR [rdx+rcx]
  021a6	8b 44 04 70	 mov	 eax, DWORD PTR OrResult$[rsp+rax]
  021aa	0b c1		 or	 eax, ecx
  021ac	b9 04 00 00 00	 mov	 ecx, 4
  021b1	48 6b c9 11	 imul	 rcx, rcx, 17
  021b5	89 44 0c 70	 mov	 DWORD PTR OrResult$[rsp+rcx], eax

; 8674 :         OrResult[18] |= OrConstant[14];

  021b9	b8 04 00 00 00	 mov	 eax, 4
  021be	48 6b c0 12	 imul	 rax, rax, 18
  021c2	b9 04 00 00 00	 mov	 ecx, 4
  021c7	48 6b c9 0e	 imul	 rcx, rcx, 14
  021cb	48 8d 15 00 00
	00 00		 lea	 rdx, OFFSET FLAT:?OrConstant@?1??gen_csv_sid@@9@9
  021d2	8b 0c 0a	 mov	 ecx, DWORD PTR [rdx+rcx]
  021d5	8b 44 04 70	 mov	 eax, DWORD PTR OrResult$[rsp+rax]
  021d9	0b c1		 or	 eax, ecx
  021db	b9 04 00 00 00	 mov	 ecx, 4
  021e0	48 6b c9 12	 imul	 rcx, rcx, 18
  021e4	89 44 0c 70	 mov	 DWORD PTR OrResult$[rsp+rcx], eax

; 8675 :         OrResult[21] |= OrConstant[16];

  021e8	b8 04 00 00 00	 mov	 eax, 4
  021ed	48 6b c0 15	 imul	 rax, rax, 21
  021f1	b9 04 00 00 00	 mov	 ecx, 4
  021f6	48 6b c9 10	 imul	 rcx, rcx, 16
  021fa	48 8d 15 00 00
	00 00		 lea	 rdx, OFFSET FLAT:?OrConstant@?1??gen_csv_sid@@9@9
  02201	8b 0c 0a	 mov	 ecx, DWORD PTR [rdx+rcx]
  02204	8b 44 04 70	 mov	 eax, DWORD PTR OrResult$[rsp+rax]
  02208	0b c1		 or	 eax, ecx
  0220a	b9 04 00 00 00	 mov	 ecx, 4
  0220f	48 6b c9 15	 imul	 rcx, rcx, 21
  02213	89 44 0c 70	 mov	 DWORD PTR OrResult$[rsp+rcx], eax

; 8676 :         OrResult[24] |= OrConstant[15];

  02217	b8 04 00 00 00	 mov	 eax, 4
  0221c	48 6b c0 18	 imul	 rax, rax, 24
  02220	b9 04 00 00 00	 mov	 ecx, 4
  02225	48 6b c9 0f	 imul	 rcx, rcx, 15
  02229	48 8d 15 00 00
	00 00		 lea	 rdx, OFFSET FLAT:?OrConstant@?1??gen_csv_sid@@9@9
  02230	8b 0c 0a	 mov	 ecx, DWORD PTR [rdx+rcx]
  02233	8b 44 04 70	 mov	 eax, DWORD PTR OrResult$[rsp+rax]
  02237	0b c1		 or	 eax, ecx
  02239	b9 04 00 00 00	 mov	 ecx, 4
  0223e	48 6b c9 18	 imul	 rcx, rcx, 24
  02242	89 44 0c 70	 mov	 DWORD PTR OrResult$[rsp+rcx], eax

; 8677 :         OrResult[26] |= OrConstant[20];

  02246	b8 04 00 00 00	 mov	 eax, 4
  0224b	48 6b c0 1a	 imul	 rax, rax, 26
  0224f	b9 04 00 00 00	 mov	 ecx, 4
  02254	48 6b c9 14	 imul	 rcx, rcx, 20
  02258	48 8d 15 00 00
	00 00		 lea	 rdx, OFFSET FLAT:?OrConstant@?1??gen_csv_sid@@9@9
  0225f	8b 0c 0a	 mov	 ecx, DWORD PTR [rdx+rcx]
  02262	8b 44 04 70	 mov	 eax, DWORD PTR OrResult$[rsp+rax]
  02266	0b c1		 or	 eax, ecx
  02268	b9 04 00 00 00	 mov	 ecx, 4
  0226d	48 6b c9 1a	 imul	 rcx, rcx, 26
  02271	89 44 0c 70	 mov	 DWORD PTR OrResult$[rsp+rcx], eax

; 8678 :         OrResult[28] |= OrConstant[12];

  02275	b8 04 00 00 00	 mov	 eax, 4
  0227a	48 6b c0 1c	 imul	 rax, rax, 28
  0227e	b9 04 00 00 00	 mov	 ecx, 4
  02283	48 6b c9 0c	 imul	 rcx, rcx, 12
  02287	48 8d 15 00 00
	00 00		 lea	 rdx, OFFSET FLAT:?OrConstant@?1??gen_csv_sid@@9@9
  0228e	8b 0c 0a	 mov	 ecx, DWORD PTR [rdx+rcx]
  02291	8b 44 04 70	 mov	 eax, DWORD PTR OrResult$[rsp+rax]
  02295	0b c1		 or	 eax, ecx
  02297	b9 04 00 00 00	 mov	 ecx, 4
  0229c	48 6b c9 1c	 imul	 rcx, rcx, 28
  022a0	89 44 0c 70	 mov	 DWORD PTR OrResult$[rsp+rcx], eax

; 8679 :         OrResult[31] |= OrConstant[19];

  022a4	b8 04 00 00 00	 mov	 eax, 4
  022a9	48 6b c0 1f	 imul	 rax, rax, 31
  022ad	b9 04 00 00 00	 mov	 ecx, 4
  022b2	48 6b c9 13	 imul	 rcx, rcx, 19
  022b6	48 8d 15 00 00
	00 00		 lea	 rdx, OFFSET FLAT:?OrConstant@?1??gen_csv_sid@@9@9
  022bd	8b 0c 0a	 mov	 ecx, DWORD PTR [rdx+rcx]
  022c0	8b 44 04 70	 mov	 eax, DWORD PTR OrResult$[rsp+rax]
  022c4	0b c1		 or	 eax, ecx
  022c6	b9 04 00 00 00	 mov	 ecx, 4
  022cb	48 6b c9 1f	 imul	 rcx, rcx, 31
  022cf	89 44 0c 70	 mov	 DWORD PTR OrResult$[rsp+rcx], eax
$LN23@gen_csv_si:

; 8680 :     }
; 8681 :     if ((pClock1[1] & 0x02 ) == 0x02)

  022d3	b8 01 00 00 00	 mov	 eax, 1
  022d8	48 6b c0 01	 imul	 rax, rax, 1
  022dc	48 8b 8c 24 50
	01 00 00	 mov	 rcx, QWORD PTR pClock1$[rsp]
  022e4	0f b6 04 01	 movzx	 eax, BYTE PTR [rcx+rax]
  022e8	83 e0 02	 and	 eax, 2
  022eb	83 f8 02	 cmp	 eax, 2
  022ee	0f 85 92 02 00
	00		 jne	 $LN24@gen_csv_si

; 8682 :     {
; 8683 :         OrResult[3]  |= OrConstant[21];

  022f4	b8 04 00 00 00	 mov	 eax, 4
  022f9	48 6b c0 03	 imul	 rax, rax, 3
  022fd	b9 04 00 00 00	 mov	 ecx, 4
  02302	48 6b c9 15	 imul	 rcx, rcx, 21
  02306	48 8d 15 00 00
	00 00		 lea	 rdx, OFFSET FLAT:?OrConstant@?1??gen_csv_sid@@9@9
  0230d	8b 0c 0a	 mov	 ecx, DWORD PTR [rdx+rcx]
  02310	8b 44 04 70	 mov	 eax, DWORD PTR OrResult$[rsp+rax]
  02314	0b c1		 or	 eax, ecx
  02316	b9 04 00 00 00	 mov	 ecx, 4
  0231b	48 6b c9 03	 imul	 rcx, rcx, 3
  0231f	89 44 0c 70	 mov	 DWORD PTR OrResult$[rsp+rcx], eax

; 8684 :         OrResult[7]  |= OrConstant[13];

  02323	b8 04 00 00 00	 mov	 eax, 4
  02328	48 6b c0 07	 imul	 rax, rax, 7
  0232c	b9 04 00 00 00	 mov	 ecx, 4
  02331	48 6b c9 0d	 imul	 rcx, rcx, 13
  02335	48 8d 15 00 00
	00 00		 lea	 rdx, OFFSET FLAT:?OrConstant@?1??gen_csv_sid@@9@9
  0233c	8b 0c 0a	 mov	 ecx, DWORD PTR [rdx+rcx]
  0233f	8b 44 04 70	 mov	 eax, DWORD PTR OrResult$[rsp+rax]
  02343	0b c1		 or	 eax, ecx
  02345	b9 04 00 00 00	 mov	 ecx, 4
  0234a	48 6b c9 07	 imul	 rcx, rcx, 7
  0234e	89 44 0c 70	 mov	 DWORD PTR OrResult$[rsp+rcx], eax

; 8685 :         OrResult[9]  |= OrConstant[19];

  02352	b8 04 00 00 00	 mov	 eax, 4
  02357	48 6b c0 09	 imul	 rax, rax, 9
  0235b	b9 04 00 00 00	 mov	 ecx, 4
  02360	48 6b c9 13	 imul	 rcx, rcx, 19
  02364	48 8d 15 00 00
	00 00		 lea	 rdx, OFFSET FLAT:?OrConstant@?1??gen_csv_sid@@9@9
  0236b	8b 0c 0a	 mov	 ecx, DWORD PTR [rdx+rcx]
  0236e	8b 44 04 70	 mov	 eax, DWORD PTR OrResult$[rsp+rax]
  02372	0b c1		 or	 eax, ecx
  02374	b9 04 00 00 00	 mov	 ecx, 4
  02379	48 6b c9 09	 imul	 rcx, rcx, 9
  0237d	89 44 0c 70	 mov	 DWORD PTR OrResult$[rsp+rcx], eax

; 8686 :         OrResult[10] |= OrConstant[18];

  02381	b8 04 00 00 00	 mov	 eax, 4
  02386	48 6b c0 0a	 imul	 rax, rax, 10
  0238a	b9 04 00 00 00	 mov	 ecx, 4
  0238f	48 6b c9 12	 imul	 rcx, rcx, 18
  02393	48 8d 15 00 00
	00 00		 lea	 rdx, OFFSET FLAT:?OrConstant@?1??gen_csv_sid@@9@9
  0239a	8b 0c 0a	 mov	 ecx, DWORD PTR [rdx+rcx]
  0239d	8b 44 04 70	 mov	 eax, DWORD PTR OrResult$[rsp+rax]
  023a1	0b c1		 or	 eax, ecx
  023a3	b9 04 00 00 00	 mov	 ecx, 4
  023a8	48 6b c9 0a	 imul	 rcx, rcx, 10
  023ac	89 44 0c 70	 mov	 DWORD PTR OrResult$[rsp+rcx], eax

; 8687 :         OrResult[13] |= OrConstant[18];

  023b0	b8 04 00 00 00	 mov	 eax, 4
  023b5	48 6b c0 0d	 imul	 rax, rax, 13
  023b9	b9 04 00 00 00	 mov	 ecx, 4
  023be	48 6b c9 12	 imul	 rcx, rcx, 18
  023c2	48 8d 15 00 00
	00 00		 lea	 rdx, OFFSET FLAT:?OrConstant@?1??gen_csv_sid@@9@9
  023c9	8b 0c 0a	 mov	 ecx, DWORD PTR [rdx+rcx]
  023cc	8b 44 04 70	 mov	 eax, DWORD PTR OrResult$[rsp+rax]
  023d0	0b c1		 or	 eax, ecx
  023d2	b9 04 00 00 00	 mov	 ecx, 4
  023d7	48 6b c9 0d	 imul	 rcx, rcx, 13
  023db	89 44 0c 70	 mov	 DWORD PTR OrResult$[rsp+rcx], eax

; 8688 :         OrResult[15] |= OrConstant[17];

  023df	b8 04 00 00 00	 mov	 eax, 4
  023e4	48 6b c0 0f	 imul	 rax, rax, 15
  023e8	b9 04 00 00 00	 mov	 ecx, 4
  023ed	48 6b c9 11	 imul	 rcx, rcx, 17
  023f1	48 8d 15 00 00
	00 00		 lea	 rdx, OFFSET FLAT:?OrConstant@?1??gen_csv_sid@@9@9
  023f8	8b 0c 0a	 mov	 ecx, DWORD PTR [rdx+rcx]
  023fb	8b 44 04 70	 mov	 eax, DWORD PTR OrResult$[rsp+rax]
  023ff	0b c1		 or	 eax, ecx
  02401	b9 04 00 00 00	 mov	 ecx, 4
  02406	48 6b c9 0f	 imul	 rcx, rcx, 15
  0240a	89 44 0c 70	 mov	 DWORD PTR OrResult$[rsp+rcx], eax

; 8689 :         OrResult[16] |= OrConstant[19];

  0240e	b8 04 00 00 00	 mov	 eax, 4
  02413	48 6b c0 10	 imul	 rax, rax, 16
  02417	b9 04 00 00 00	 mov	 ecx, 4
  0241c	48 6b c9 13	 imul	 rcx, rcx, 19
  02420	48 8d 15 00 00
	00 00		 lea	 rdx, OFFSET FLAT:?OrConstant@?1??gen_csv_sid@@9@9
  02427	8b 0c 0a	 mov	 ecx, DWORD PTR [rdx+rcx]
  0242a	8b 44 04 70	 mov	 eax, DWORD PTR OrResult$[rsp+rax]
  0242e	0b c1		 or	 eax, ecx
  02430	b9 04 00 00 00	 mov	 ecx, 4
  02435	48 6b c9 10	 imul	 rcx, rcx, 16
  02439	89 44 0c 70	 mov	 DWORD PTR OrResult$[rsp+rcx], eax

; 8690 :         OrResult[19] |= OrConstant[14];

  0243d	b8 04 00 00 00	 mov	 eax, 4
  02442	48 6b c0 13	 imul	 rax, rax, 19
  02446	b9 04 00 00 00	 mov	 ecx, 4
  0244b	48 6b c9 0e	 imul	 rcx, rcx, 14
  0244f	48 8d 15 00 00
	00 00		 lea	 rdx, OFFSET FLAT:?OrConstant@?1??gen_csv_sid@@9@9
  02456	8b 0c 0a	 mov	 ecx, DWORD PTR [rdx+rcx]
  02459	8b 44 04 70	 mov	 eax, DWORD PTR OrResult$[rsp+rax]
  0245d	0b c1		 or	 eax, ecx
  0245f	b9 04 00 00 00	 mov	 ecx, 4
  02464	48 6b c9 13	 imul	 rcx, rcx, 19
  02468	89 44 0c 70	 mov	 DWORD PTR OrResult$[rsp+rcx], eax

; 8691 :         OrResult[20] |= OrConstant[23];

  0246c	b8 04 00 00 00	 mov	 eax, 4
  02471	48 6b c0 14	 imul	 rax, rax, 20
  02475	b9 04 00 00 00	 mov	 ecx, 4
  0247a	48 6b c9 17	 imul	 rcx, rcx, 23
  0247e	48 8d 15 00 00
	00 00		 lea	 rdx, OFFSET FLAT:?OrConstant@?1??gen_csv_sid@@9@9
  02485	8b 0c 0a	 mov	 ecx, DWORD PTR [rdx+rcx]
  02488	8b 44 04 70	 mov	 eax, DWORD PTR OrResult$[rsp+rax]
  0248c	0b c1		 or	 eax, ecx
  0248e	b9 04 00 00 00	 mov	 ecx, 4
  02493	48 6b c9 14	 imul	 rcx, rcx, 20
  02497	89 44 0c 70	 mov	 DWORD PTR OrResult$[rsp+rcx], eax

; 8692 :         OrResult[22] |= OrConstant[17];

  0249b	b8 04 00 00 00	 mov	 eax, 4
  024a0	48 6b c0 16	 imul	 rax, rax, 22
  024a4	b9 04 00 00 00	 mov	 ecx, 4
  024a9	48 6b c9 11	 imul	 rcx, rcx, 17
  024ad	48 8d 15 00 00
	00 00		 lea	 rdx, OFFSET FLAT:?OrConstant@?1??gen_csv_sid@@9@9
  024b4	8b 0c 0a	 mov	 ecx, DWORD PTR [rdx+rcx]
  024b7	8b 44 04 70	 mov	 eax, DWORD PTR OrResult$[rsp+rax]
  024bb	0b c1		 or	 eax, ecx
  024bd	b9 04 00 00 00	 mov	 ecx, 4
  024c2	48 6b c9 16	 imul	 rcx, rcx, 22
  024c6	89 44 0c 70	 mov	 DWORD PTR OrResult$[rsp+rcx], eax

; 8693 :         OrResult[25] |= OrConstant[22];

  024ca	b8 04 00 00 00	 mov	 eax, 4
  024cf	48 6b c0 19	 imul	 rax, rax, 25
  024d3	b9 04 00 00 00	 mov	 ecx, 4
  024d8	48 6b c9 16	 imul	 rcx, rcx, 22
  024dc	48 8d 15 00 00
	00 00		 lea	 rdx, OFFSET FLAT:?OrConstant@?1??gen_csv_sid@@9@9
  024e3	8b 0c 0a	 mov	 ecx, DWORD PTR [rdx+rcx]
  024e6	8b 44 04 70	 mov	 eax, DWORD PTR OrResult$[rsp+rax]
  024ea	0b c1		 or	 eax, ecx
  024ec	b9 04 00 00 00	 mov	 ecx, 4
  024f1	48 6b c9 19	 imul	 rcx, rcx, 25
  024f5	89 44 0c 70	 mov	 DWORD PTR OrResult$[rsp+rcx], eax

; 8694 :         OrResult[26] |= OrConstant[14];

  024f9	b8 04 00 00 00	 mov	 eax, 4
  024fe	48 6b c0 1a	 imul	 rax, rax, 26
  02502	b9 04 00 00 00	 mov	 ecx, 4
  02507	48 6b c9 0e	 imul	 rcx, rcx, 14
  0250b	48 8d 15 00 00
	00 00		 lea	 rdx, OFFSET FLAT:?OrConstant@?1??gen_csv_sid@@9@9
  02512	8b 0c 0a	 mov	 ecx, DWORD PTR [rdx+rcx]
  02515	8b 44 04 70	 mov	 eax, DWORD PTR OrResult$[rsp+rax]
  02519	0b c1		 or	 eax, ecx
  0251b	b9 04 00 00 00	 mov	 ecx, 4
  02520	48 6b c9 1a	 imul	 rcx, rcx, 26
  02524	89 44 0c 70	 mov	 DWORD PTR OrResult$[rsp+rcx], eax

; 8695 :         OrResult[29] |= OrConstant[16];

  02528	b8 04 00 00 00	 mov	 eax, 4
  0252d	48 6b c0 1d	 imul	 rax, rax, 29
  02531	b9 04 00 00 00	 mov	 ecx, 4
  02536	48 6b c9 10	 imul	 rcx, rcx, 16
  0253a	48 8d 15 00 00
	00 00		 lea	 rdx, OFFSET FLAT:?OrConstant@?1??gen_csv_sid@@9@9
  02541	8b 0c 0a	 mov	 ecx, DWORD PTR [rdx+rcx]
  02544	8b 44 04 70	 mov	 eax, DWORD PTR OrResult$[rsp+rax]
  02548	0b c1		 or	 eax, ecx
  0254a	b9 04 00 00 00	 mov	 ecx, 4
  0254f	48 6b c9 1d	 imul	 rcx, rcx, 29
  02553	89 44 0c 70	 mov	 DWORD PTR OrResult$[rsp+rcx], eax

; 8696 :         OrResult[30] |= OrConstant[22];

  02557	b8 04 00 00 00	 mov	 eax, 4
  0255c	48 6b c0 1e	 imul	 rax, rax, 30
  02560	b9 04 00 00 00	 mov	 ecx, 4
  02565	48 6b c9 16	 imul	 rcx, rcx, 22
  02569	48 8d 15 00 00
	00 00		 lea	 rdx, OFFSET FLAT:?OrConstant@?1??gen_csv_sid@@9@9
  02570	8b 0c 0a	 mov	 ecx, DWORD PTR [rdx+rcx]
  02573	8b 44 04 70	 mov	 eax, DWORD PTR OrResult$[rsp+rax]
  02577	0b c1		 or	 eax, ecx
  02579	b9 04 00 00 00	 mov	 ecx, 4
  0257e	48 6b c9 1e	 imul	 rcx, rcx, 30
  02582	89 44 0c 70	 mov	 DWORD PTR OrResult$[rsp+rcx], eax
$LN24@gen_csv_si:

; 8697 :     }
; 8698 :     if ((pClock1[2] & 0x80 ) == 0x80)

  02586	b8 01 00 00 00	 mov	 eax, 1
  0258b	48 6b c0 02	 imul	 rax, rax, 2
  0258f	48 8b 8c 24 50
	01 00 00	 mov	 rcx, QWORD PTR pClock1$[rsp]
  02597	0f b6 04 01	 movzx	 eax, BYTE PTR [rcx+rax]
  0259b	25 80 00 00 00	 and	 eax, 128		; 00000080H
  025a0	3d 80 00 00 00	 cmp	 eax, 128		; 00000080H
  025a5	0f 85 92 02 00
	00		 jne	 $LN25@gen_csv_si

; 8699 :     {
; 8700 :         OrResult[1]  |= OrConstant[3];

  025ab	b8 04 00 00 00	 mov	 eax, 4
  025b0	48 6b c0 01	 imul	 rax, rax, 1
  025b4	b9 04 00 00 00	 mov	 ecx, 4
  025b9	48 6b c9 03	 imul	 rcx, rcx, 3
  025bd	48 8d 15 00 00
	00 00		 lea	 rdx, OFFSET FLAT:?OrConstant@?1??gen_csv_sid@@9@9
  025c4	8b 0c 0a	 mov	 ecx, DWORD PTR [rdx+rcx]
  025c7	8b 44 04 70	 mov	 eax, DWORD PTR OrResult$[rsp+rax]
  025cb	0b c1		 or	 eax, ecx
  025cd	b9 04 00 00 00	 mov	 ecx, 4
  025d2	48 6b c9 01	 imul	 rcx, rcx, 1
  025d6	89 44 0c 70	 mov	 DWORD PTR OrResult$[rsp+rcx], eax

; 8701 :         OrResult[3]  |= OrConstant[7];

  025da	b8 04 00 00 00	 mov	 eax, 4
  025df	48 6b c0 03	 imul	 rax, rax, 3
  025e3	b9 04 00 00 00	 mov	 ecx, 4
  025e8	48 6b c9 07	 imul	 rcx, rcx, 7
  025ec	48 8d 15 00 00
	00 00		 lea	 rdx, OFFSET FLAT:?OrConstant@?1??gen_csv_sid@@9@9
  025f3	8b 0c 0a	 mov	 ecx, DWORD PTR [rdx+rcx]
  025f6	8b 44 04 70	 mov	 eax, DWORD PTR OrResult$[rsp+rax]
  025fa	0b c1		 or	 eax, ecx
  025fc	b9 04 00 00 00	 mov	 ecx, 4
  02601	48 6b c9 03	 imul	 rcx, rcx, 3
  02605	89 44 0c 70	 mov	 DWORD PTR OrResult$[rsp+rcx], eax

; 8702 :         OrResult[6]  |= OrConstant[2];

  02609	b8 04 00 00 00	 mov	 eax, 4
  0260e	48 6b c0 06	 imul	 rax, rax, 6
  02612	b9 04 00 00 00	 mov	 ecx, 4
  02617	48 6b c9 02	 imul	 rcx, rcx, 2
  0261b	48 8d 15 00 00
	00 00		 lea	 rdx, OFFSET FLAT:?OrConstant@?1??gen_csv_sid@@9@9
  02622	8b 0c 0a	 mov	 ecx, DWORD PTR [rdx+rcx]
  02625	8b 44 04 70	 mov	 eax, DWORD PTR OrResult$[rsp+rax]
  02629	0b c1		 or	 eax, ecx
  0262b	b9 04 00 00 00	 mov	 ecx, 4
  02630	48 6b c9 06	 imul	 rcx, rcx, 6
  02634	89 44 0c 70	 mov	 DWORD PTR OrResult$[rsp+rcx], eax

; 8703 :         OrResult[9]  |= OrConstant[10];

  02638	b8 04 00 00 00	 mov	 eax, 4
  0263d	48 6b c0 09	 imul	 rax, rax, 9
  02641	b9 04 00 00 00	 mov	 ecx, 4
  02646	48 6b c9 0a	 imul	 rcx, rcx, 10
  0264a	48 8d 15 00 00
	00 00		 lea	 rdx, OFFSET FLAT:?OrConstant@?1??gen_csv_sid@@9@9
  02651	8b 0c 0a	 mov	 ecx, DWORD PTR [rdx+rcx]
  02654	8b 44 04 70	 mov	 eax, DWORD PTR OrResult$[rsp+rax]
  02658	0b c1		 or	 eax, ecx
  0265a	b9 04 00 00 00	 mov	 ecx, 4
  0265f	48 6b c9 09	 imul	 rcx, rcx, 9
  02663	89 44 0c 70	 mov	 DWORD PTR OrResult$[rsp+rcx], eax

; 8704 :         OrResult[11] |= OrConstant[2];

  02667	b8 04 00 00 00	 mov	 eax, 4
  0266c	48 6b c0 0b	 imul	 rax, rax, 11
  02670	b9 04 00 00 00	 mov	 ecx, 4
  02675	48 6b c9 02	 imul	 rcx, rcx, 2
  02679	48 8d 15 00 00
	00 00		 lea	 rdx, OFFSET FLAT:?OrConstant@?1??gen_csv_sid@@9@9
  02680	8b 0c 0a	 mov	 ecx, DWORD PTR [rdx+rcx]
  02683	8b 44 04 70	 mov	 eax, DWORD PTR OrResult$[rsp+rax]
  02687	0b c1		 or	 eax, ecx
  02689	b9 04 00 00 00	 mov	 ecx, 4
  0268e	48 6b c9 0b	 imul	 rcx, rcx, 11
  02692	89 44 0c 70	 mov	 DWORD PTR OrResult$[rsp+rcx], eax

; 8705 :         OrResult[12] |= OrConstant[1];

  02696	b8 04 00 00 00	 mov	 eax, 4
  0269b	48 6b c0 0c	 imul	 rax, rax, 12
  0269f	b9 04 00 00 00	 mov	 ecx, 4
  026a4	48 6b c9 01	 imul	 rcx, rcx, 1
  026a8	48 8d 15 00 00
	00 00		 lea	 rdx, OFFSET FLAT:?OrConstant@?1??gen_csv_sid@@9@9
  026af	8b 0c 0a	 mov	 ecx, DWORD PTR [rdx+rcx]
  026b2	8b 44 04 70	 mov	 eax, DWORD PTR OrResult$[rsp+rax]
  026b6	0b c1		 or	 eax, ecx
  026b8	b9 04 00 00 00	 mov	 ecx, 4
  026bd	48 6b c9 0c	 imul	 rcx, rcx, 12
  026c1	89 44 0c 70	 mov	 DWORD PTR OrResult$[rsp+rcx], eax

; 8706 :         OrResult[14] |= OrConstant[7];

  026c5	b8 04 00 00 00	 mov	 eax, 4
  026ca	48 6b c0 0e	 imul	 rax, rax, 14
  026ce	b9 04 00 00 00	 mov	 ecx, 4
  026d3	48 6b c9 07	 imul	 rcx, rcx, 7
  026d7	48 8d 15 00 00
	00 00		 lea	 rdx, OFFSET FLAT:?OrConstant@?1??gen_csv_sid@@9@9
  026de	8b 0c 0a	 mov	 ecx, DWORD PTR [rdx+rcx]
  026e1	8b 44 04 70	 mov	 eax, DWORD PTR OrResult$[rsp+rax]
  026e5	0b c1		 or	 eax, ecx
  026e7	b9 04 00 00 00	 mov	 ecx, 4
  026ec	48 6b c9 0e	 imul	 rcx, rcx, 14
  026f0	89 44 0c 70	 mov	 DWORD PTR OrResult$[rsp+rcx], eax

; 8707 :         OrResult[17] |= OrConstant[9];

  026f4	b8 04 00 00 00	 mov	 eax, 4
  026f9	48 6b c0 11	 imul	 rax, rax, 17
  026fd	b9 04 00 00 00	 mov	 ecx, 4
  02702	48 6b c9 09	 imul	 rcx, rcx, 9
  02706	48 8d 15 00 00
	00 00		 lea	 rdx, OFFSET FLAT:?OrConstant@?1??gen_csv_sid@@9@9
  0270d	8b 0c 0a	 mov	 ecx, DWORD PTR [rdx+rcx]
  02710	8b 44 04 70	 mov	 eax, DWORD PTR OrResult$[rsp+rax]
  02714	0b c1		 or	 eax, ecx
  02716	b9 04 00 00 00	 mov	 ecx, 4
  0271b	48 6b c9 11	 imul	 rcx, rcx, 17
  0271f	89 44 0c 70	 mov	 DWORD PTR OrResult$[rsp+rcx], eax

; 8708 :         OrResult[20] |= OrConstant[3];

  02723	b8 04 00 00 00	 mov	 eax, 4
  02728	48 6b c0 14	 imul	 rax, rax, 20
  0272c	b9 04 00 00 00	 mov	 ecx, 4
  02731	48 6b c9 03	 imul	 rcx, rcx, 3
  02735	48 8d 15 00 00
	00 00		 lea	 rdx, OFFSET FLAT:?OrConstant@?1??gen_csv_sid@@9@9
  0273c	8b 0c 0a	 mov	 ecx, DWORD PTR [rdx+rcx]
  0273f	8b 44 04 70	 mov	 eax, DWORD PTR OrResult$[rsp+rax]
  02743	0b c1		 or	 eax, ecx
  02745	b9 04 00 00 00	 mov	 ecx, 4
  0274a	48 6b c9 14	 imul	 rcx, rcx, 20
  0274e	89 44 0c 70	 mov	 DWORD PTR OrResult$[rsp+rcx], eax

; 8709 :         OrResult[22] |= OrConstant[10];

  02752	b8 04 00 00 00	 mov	 eax, 4
  02757	48 6b c0 16	 imul	 rax, rax, 22
  0275b	b9 04 00 00 00	 mov	 ecx, 4
  02760	48 6b c9 0a	 imul	 rcx, rcx, 10
  02764	48 8d 15 00 00
	00 00		 lea	 rdx, OFFSET FLAT:?OrConstant@?1??gen_csv_sid@@9@9
  0276b	8b 0c 0a	 mov	 ecx, DWORD PTR [rdx+rcx]
  0276e	8b 44 04 70	 mov	 eax, DWORD PTR OrResult$[rsp+rax]
  02772	0b c1		 or	 eax, ecx
  02774	b9 04 00 00 00	 mov	 ecx, 4
  02779	48 6b c9 16	 imul	 rcx, rcx, 22
  0277d	89 44 0c 70	 mov	 DWORD PTR OrResult$[rsp+rcx], eax

; 8710 :         OrResult[25] |= OrConstant[1];

  02781	b8 04 00 00 00	 mov	 eax, 4
  02786	48 6b c0 19	 imul	 rax, rax, 25
  0278a	b9 04 00 00 00	 mov	 ecx, 4
  0278f	48 6b c9 01	 imul	 rcx, rcx, 1
  02793	48 8d 15 00 00
	00 00		 lea	 rdx, OFFSET FLAT:?OrConstant@?1??gen_csv_sid@@9@9
  0279a	8b 0c 0a	 mov	 ecx, DWORD PTR [rdx+rcx]
  0279d	8b 44 04 70	 mov	 eax, DWORD PTR OrResult$[rsp+rax]
  027a1	0b c1		 or	 eax, ecx
  027a3	b9 04 00 00 00	 mov	 ecx, 4
  027a8	48 6b c9 19	 imul	 rcx, rcx, 25
  027ac	89 44 0c 70	 mov	 DWORD PTR OrResult$[rsp+rcx], eax

; 8711 :         OrResult[27] |= OrConstant[11];

  027b0	b8 04 00 00 00	 mov	 eax, 4
  027b5	48 6b c0 1b	 imul	 rax, rax, 27
  027b9	b9 04 00 00 00	 mov	 ecx, 4
  027be	48 6b c9 0b	 imul	 rcx, rcx, 11
  027c2	48 8d 15 00 00
	00 00		 lea	 rdx, OFFSET FLAT:?OrConstant@?1??gen_csv_sid@@9@9
  027c9	8b 0c 0a	 mov	 ecx, DWORD PTR [rdx+rcx]
  027cc	8b 44 04 70	 mov	 eax, DWORD PTR OrResult$[rsp+rax]
  027d0	0b c1		 or	 eax, ecx
  027d2	b9 04 00 00 00	 mov	 ecx, 4
  027d7	48 6b c9 1b	 imul	 rcx, rcx, 27
  027db	89 44 0c 70	 mov	 DWORD PTR OrResult$[rsp+rcx], eax

; 8712 :         OrResult[28] |= OrConstant[9];

  027df	b8 04 00 00 00	 mov	 eax, 4
  027e4	48 6b c0 1c	 imul	 rax, rax, 28
  027e8	b9 04 00 00 00	 mov	 ecx, 4
  027ed	48 6b c9 09	 imul	 rcx, rcx, 9
  027f1	48 8d 15 00 00
	00 00		 lea	 rdx, OFFSET FLAT:?OrConstant@?1??gen_csv_sid@@9@9
  027f8	8b 0c 0a	 mov	 ecx, DWORD PTR [rdx+rcx]
  027fb	8b 44 04 70	 mov	 eax, DWORD PTR OrResult$[rsp+rax]
  027ff	0b c1		 or	 eax, ecx
  02801	b9 04 00 00 00	 mov	 ecx, 4
  02806	48 6b c9 1c	 imul	 rcx, rcx, 28
  0280a	89 44 0c 70	 mov	 DWORD PTR OrResult$[rsp+rcx], eax

; 8713 :         OrResult[30] |= OrConstant[5];

  0280e	b8 04 00 00 00	 mov	 eax, 4
  02813	48 6b c0 1e	 imul	 rax, rax, 30
  02817	b9 04 00 00 00	 mov	 ecx, 4
  0281c	48 6b c9 05	 imul	 rcx, rcx, 5
  02820	48 8d 15 00 00
	00 00		 lea	 rdx, OFFSET FLAT:?OrConstant@?1??gen_csv_sid@@9@9
  02827	8b 0c 0a	 mov	 ecx, DWORD PTR [rdx+rcx]
  0282a	8b 44 04 70	 mov	 eax, DWORD PTR OrResult$[rsp+rax]
  0282e	0b c1		 or	 eax, ecx
  02830	b9 04 00 00 00	 mov	 ecx, 4
  02835	48 6b c9 1e	 imul	 rcx, rcx, 30
  02839	89 44 0c 70	 mov	 DWORD PTR OrResult$[rsp+rcx], eax
$LN25@gen_csv_si:

; 8714 :     }
; 8715 :     if ((pClock1[2] & 0x40 ) == 0x40)

  0283d	b8 01 00 00 00	 mov	 eax, 1
  02842	48 6b c0 02	 imul	 rax, rax, 2
  02846	48 8b 8c 24 50
	01 00 00	 mov	 rcx, QWORD PTR pClock1$[rsp]
  0284e	0f b6 04 01	 movzx	 eax, BYTE PTR [rcx+rax]
  02852	83 e0 40	 and	 eax, 64			; 00000040H
  02855	83 f8 40	 cmp	 eax, 64			; 00000040H
  02858	0f 85 c1 02 00
	00		 jne	 $LN26@gen_csv_si

; 8716 :     {
; 8717 :         OrResult[0]  |= OrConstant[0];

  0285e	b8 04 00 00 00	 mov	 eax, 4
  02863	48 6b c0 00	 imul	 rax, rax, 0
  02867	b9 04 00 00 00	 mov	 ecx, 4
  0286c	48 6b c9 00	 imul	 rcx, rcx, 0
  02870	48 8d 15 00 00
	00 00		 lea	 rdx, OFFSET FLAT:?OrConstant@?1??gen_csv_sid@@9@9
  02877	8b 0c 0a	 mov	 ecx, DWORD PTR [rdx+rcx]
  0287a	8b 44 04 70	 mov	 eax, DWORD PTR OrResult$[rsp+rax]
  0287e	0b c1		 or	 eax, ecx
  02880	b9 04 00 00 00	 mov	 ecx, 4
  02885	48 6b c9 00	 imul	 rcx, rcx, 0
  02889	89 44 0c 70	 mov	 DWORD PTR OrResult$[rsp+rcx], eax

; 8718 :         OrResult[3]  |= OrConstant[2];

  0288d	b8 04 00 00 00	 mov	 eax, 4
  02892	48 6b c0 03	 imul	 rax, rax, 3
  02896	b9 04 00 00 00	 mov	 ecx, 4
  0289b	48 6b c9 02	 imul	 rcx, rcx, 2
  0289f	48 8d 15 00 00
	00 00		 lea	 rdx, OFFSET FLAT:?OrConstant@?1??gen_csv_sid@@9@9
  028a6	8b 0c 0a	 mov	 ecx, DWORD PTR [rdx+rcx]
  028a9	8b 44 04 70	 mov	 eax, DWORD PTR OrResult$[rsp+rax]
  028ad	0b c1		 or	 eax, ecx
  028af	b9 04 00 00 00	 mov	 ecx, 4
  028b4	48 6b c9 03	 imul	 rcx, rcx, 3
  028b8	89 44 0c 70	 mov	 DWORD PTR OrResult$[rsp+rcx], eax

; 8719 :         OrResult[4]  |= OrConstant[1];

  028bc	b8 04 00 00 00	 mov	 eax, 4
  028c1	48 6b c0 04	 imul	 rax, rax, 4
  028c5	b9 04 00 00 00	 mov	 ecx, 4
  028ca	48 6b c9 01	 imul	 rcx, rcx, 1
  028ce	48 8d 15 00 00
	00 00		 lea	 rdx, OFFSET FLAT:?OrConstant@?1??gen_csv_sid@@9@9
  028d5	8b 0c 0a	 mov	 ecx, DWORD PTR [rdx+rcx]
  028d8	8b 44 04 70	 mov	 eax, DWORD PTR OrResult$[rsp+rax]
  028dc	0b c1		 or	 eax, ecx
  028de	b9 04 00 00 00	 mov	 ecx, 4
  028e3	48 6b c9 04	 imul	 rcx, rcx, 4
  028e7	89 44 0c 70	 mov	 DWORD PTR OrResult$[rsp+rcx], eax

; 8720 :         OrResult[6]  |= OrConstant[7];

  028eb	b8 04 00 00 00	 mov	 eax, 4
  028f0	48 6b c0 06	 imul	 rax, rax, 6
  028f4	b9 04 00 00 00	 mov	 ecx, 4
  028f9	48 6b c9 07	 imul	 rcx, rcx, 7
  028fd	48 8d 15 00 00
	00 00		 lea	 rdx, OFFSET FLAT:?OrConstant@?1??gen_csv_sid@@9@9
  02904	8b 0c 0a	 mov	 ecx, DWORD PTR [rdx+rcx]
  02907	8b 44 04 70	 mov	 eax, DWORD PTR OrResult$[rsp+rax]
  0290b	0b c1		 or	 eax, ecx
  0290d	b9 04 00 00 00	 mov	 ecx, 4
  02912	48 6b c9 06	 imul	 rcx, rcx, 6
  02916	89 44 0c 70	 mov	 DWORD PTR OrResult$[rsp+rcx], eax

; 8721 :         OrResult[9]  |= OrConstant[4];

  0291a	b8 04 00 00 00	 mov	 eax, 4
  0291f	48 6b c0 09	 imul	 rax, rax, 9
  02923	b9 04 00 00 00	 mov	 ecx, 4
  02928	48 6b c9 04	 imul	 rcx, rcx, 4
  0292c	48 8d 15 00 00
	00 00		 lea	 rdx, OFFSET FLAT:?OrConstant@?1??gen_csv_sid@@9@9
  02933	8b 0c 0a	 mov	 ecx, DWORD PTR [rdx+rcx]
  02936	8b 44 04 70	 mov	 eax, DWORD PTR OrResult$[rsp+rax]
  0293a	0b c1		 or	 eax, ecx
  0293c	b9 04 00 00 00	 mov	 ecx, 4
  02941	48 6b c9 09	 imul	 rcx, rcx, 9
  02945	89 44 0c 70	 mov	 DWORD PTR OrResult$[rsp+rcx], eax

; 8722 :         OrResult[10] |= OrConstant[6];

  02949	b8 04 00 00 00	 mov	 eax, 4
  0294e	48 6b c0 0a	 imul	 rax, rax, 10
  02952	b9 04 00 00 00	 mov	 ecx, 4
  02957	48 6b c9 06	 imul	 rcx, rcx, 6
  0295b	48 8d 15 00 00
	00 00		 lea	 rdx, OFFSET FLAT:?OrConstant@?1??gen_csv_sid@@9@9
  02962	8b 0c 0a	 mov	 ecx, DWORD PTR [rdx+rcx]
  02965	8b 44 04 70	 mov	 eax, DWORD PTR OrResult$[rsp+rax]
  02969	0b c1		 or	 eax, ecx
  0296b	b9 04 00 00 00	 mov	 ecx, 4
  02970	48 6b c9 0a	 imul	 rcx, rcx, 10
  02974	89 44 0c 70	 mov	 DWORD PTR OrResult$[rsp+rcx], eax

; 8723 :         OrResult[15] |= OrConstant[8];

  02978	b8 04 00 00 00	 mov	 eax, 4
  0297d	48 6b c0 0f	 imul	 rax, rax, 15
  02981	b9 04 00 00 00	 mov	 ecx, 4
  02986	48 6b c9 08	 imul	 rcx, rcx, 8
  0298a	48 8d 15 00 00
	00 00		 lea	 rdx, OFFSET FLAT:?OrConstant@?1??gen_csv_sid@@9@9
  02991	8b 0c 0a	 mov	 ecx, DWORD PTR [rdx+rcx]
  02994	8b 44 04 70	 mov	 eax, DWORD PTR OrResult$[rsp+rax]
  02998	0b c1		 or	 eax, ecx
  0299a	b9 04 00 00 00	 mov	 ecx, 4
  0299f	48 6b c9 0f	 imul	 rcx, rcx, 15
  029a3	89 44 0c 70	 mov	 DWORD PTR OrResult$[rsp+rcx], eax

; 8724 :         OrResult[17] |= OrConstant[1];

  029a7	b8 04 00 00 00	 mov	 eax, 4
  029ac	48 6b c0 11	 imul	 rax, rax, 17
  029b0	b9 04 00 00 00	 mov	 ecx, 4
  029b5	48 6b c9 01	 imul	 rcx, rcx, 1
  029b9	48 8d 15 00 00
	00 00		 lea	 rdx, OFFSET FLAT:?OrConstant@?1??gen_csv_sid@@9@9
  029c0	8b 0c 0a	 mov	 ecx, DWORD PTR [rdx+rcx]
  029c3	8b 44 04 70	 mov	 eax, DWORD PTR OrResult$[rsp+rax]
  029c7	0b c1		 or	 eax, ecx
  029c9	b9 04 00 00 00	 mov	 ecx, 4
  029ce	48 6b c9 11	 imul	 rcx, rcx, 17
  029d2	89 44 0c 70	 mov	 DWORD PTR OrResult$[rsp+rcx], eax

; 8725 :         OrResult[19] |= OrConstant[11];

  029d6	b8 04 00 00 00	 mov	 eax, 4
  029db	48 6b c0 13	 imul	 rax, rax, 19
  029df	b9 04 00 00 00	 mov	 ecx, 4
  029e4	48 6b c9 0b	 imul	 rcx, rcx, 11
  029e8	48 8d 15 00 00
	00 00		 lea	 rdx, OFFSET FLAT:?OrConstant@?1??gen_csv_sid@@9@9
  029ef	8b 0c 0a	 mov	 ecx, DWORD PTR [rdx+rcx]
  029f2	8b 44 04 70	 mov	 eax, DWORD PTR OrResult$[rsp+rax]
  029f6	0b c1		 or	 eax, ecx
  029f8	b9 04 00 00 00	 mov	 ecx, 4
  029fd	48 6b c9 13	 imul	 rcx, rcx, 19
  02a01	89 44 0c 70	 mov	 DWORD PTR OrResult$[rsp+rcx], eax

; 8726 :         OrResult[20] |= OrConstant[9];

  02a05	b8 04 00 00 00	 mov	 eax, 4
  02a0a	48 6b c0 14	 imul	 rax, rax, 20
  02a0e	b9 04 00 00 00	 mov	 ecx, 4
  02a13	48 6b c9 09	 imul	 rcx, rcx, 9
  02a17	48 8d 15 00 00
	00 00		 lea	 rdx, OFFSET FLAT:?OrConstant@?1??gen_csv_sid@@9@9
  02a1e	8b 0c 0a	 mov	 ecx, DWORD PTR [rdx+rcx]
  02a21	8b 44 04 70	 mov	 eax, DWORD PTR OrResult$[rsp+rax]
  02a25	0b c1		 or	 eax, ecx
  02a27	b9 04 00 00 00	 mov	 ecx, 4
  02a2c	48 6b c9 14	 imul	 rcx, rcx, 20
  02a30	89 44 0c 70	 mov	 DWORD PTR OrResult$[rsp+rcx], eax

; 8727 :         OrResult[23] |= OrConstant[3];

  02a34	b8 04 00 00 00	 mov	 eax, 4
  02a39	48 6b c0 17	 imul	 rax, rax, 23
  02a3d	b9 04 00 00 00	 mov	 ecx, 4
  02a42	48 6b c9 03	 imul	 rcx, rcx, 3
  02a46	48 8d 15 00 00
	00 00		 lea	 rdx, OFFSET FLAT:?OrConstant@?1??gen_csv_sid@@9@9
  02a4d	8b 0c 0a	 mov	 ecx, DWORD PTR [rdx+rcx]
  02a50	8b 44 04 70	 mov	 eax, DWORD PTR OrResult$[rsp+rax]
  02a54	0b c1		 or	 eax, ecx
  02a56	b9 04 00 00 00	 mov	 ecx, 4
  02a5b	48 6b c9 17	 imul	 rcx, rcx, 23
  02a5f	89 44 0c 70	 mov	 DWORD PTR OrResult$[rsp+rcx], eax

; 8728 :         OrResult[24] |= OrConstant[11];

  02a63	b8 04 00 00 00	 mov	 eax, 4
  02a68	48 6b c0 18	 imul	 rax, rax, 24
  02a6c	b9 04 00 00 00	 mov	 ecx, 4
  02a71	48 6b c9 0b	 imul	 rcx, rcx, 11
  02a75	48 8d 15 00 00
	00 00		 lea	 rdx, OFFSET FLAT:?OrConstant@?1??gen_csv_sid@@9@9
  02a7c	8b 0c 0a	 mov	 ecx, DWORD PTR [rdx+rcx]
  02a7f	8b 44 04 70	 mov	 eax, DWORD PTR OrResult$[rsp+rax]
  02a83	0b c1		 or	 eax, ecx
  02a85	b9 04 00 00 00	 mov	 ecx, 4
  02a8a	48 6b c9 18	 imul	 rcx, rcx, 24
  02a8e	89 44 0c 70	 mov	 DWORD PTR OrResult$[rsp+rcx], eax

; 8729 :         OrResult[27] |= OrConstant[5];

  02a92	b8 04 00 00 00	 mov	 eax, 4
  02a97	48 6b c0 1b	 imul	 rax, rax, 27
  02a9b	b9 04 00 00 00	 mov	 ecx, 4
  02aa0	48 6b c9 05	 imul	 rcx, rcx, 5
  02aa4	48 8d 15 00 00
	00 00		 lea	 rdx, OFFSET FLAT:?OrConstant@?1??gen_csv_sid@@9@9
  02aab	8b 0c 0a	 mov	 ecx, DWORD PTR [rdx+rcx]
  02aae	8b 44 04 70	 mov	 eax, DWORD PTR OrResult$[rsp+rax]
  02ab2	0b c1		 or	 eax, ecx
  02ab4	b9 04 00 00 00	 mov	 ecx, 4
  02ab9	48 6b c9 1b	 imul	 rcx, rcx, 27
  02abd	89 44 0c 70	 mov	 DWORD PTR OrResult$[rsp+rcx], eax

; 8730 :         OrResult[28] |= OrConstant[8];

  02ac1	b8 04 00 00 00	 mov	 eax, 4
  02ac6	48 6b c0 1c	 imul	 rax, rax, 28
  02aca	b9 04 00 00 00	 mov	 ecx, 4
  02acf	48 6b c9 08	 imul	 rcx, rcx, 8
  02ad3	48 8d 15 00 00
	00 00		 lea	 rdx, OFFSET FLAT:?OrConstant@?1??gen_csv_sid@@9@9
  02ada	8b 0c 0a	 mov	 ecx, DWORD PTR [rdx+rcx]
  02add	8b 44 04 70	 mov	 eax, DWORD PTR OrResult$[rsp+rax]
  02ae1	0b c1		 or	 eax, ecx
  02ae3	b9 04 00 00 00	 mov	 ecx, 4
  02ae8	48 6b c9 1c	 imul	 rcx, rcx, 28
  02aec	89 44 0c 70	 mov	 DWORD PTR OrResult$[rsp+rcx], eax

; 8731 :         OrResult[31] |= OrConstant[10];

  02af0	b8 04 00 00 00	 mov	 eax, 4
  02af5	48 6b c0 1f	 imul	 rax, rax, 31
  02af9	b9 04 00 00 00	 mov	 ecx, 4
  02afe	48 6b c9 0a	 imul	 rcx, rcx, 10
  02b02	48 8d 15 00 00
	00 00		 lea	 rdx, OFFSET FLAT:?OrConstant@?1??gen_csv_sid@@9@9
  02b09	8b 0c 0a	 mov	 ecx, DWORD PTR [rdx+rcx]
  02b0c	8b 44 04 70	 mov	 eax, DWORD PTR OrResult$[rsp+rax]
  02b10	0b c1		 or	 eax, ecx
  02b12	b9 04 00 00 00	 mov	 ecx, 4
  02b17	48 6b c9 1f	 imul	 rcx, rcx, 31
  02b1b	89 44 0c 70	 mov	 DWORD PTR OrResult$[rsp+rcx], eax
$LN26@gen_csv_si:

; 8732 :     }
; 8733 :     if ((pClock1[2] & 0x20 ) == 0x20)

  02b1f	b8 01 00 00 00	 mov	 eax, 1
  02b24	48 6b c0 02	 imul	 rax, rax, 2
  02b28	48 8b 8c 24 50
	01 00 00	 mov	 rcx, QWORD PTR pClock1$[rsp]
  02b30	0f b6 04 01	 movzx	 eax, BYTE PTR [rcx+rax]
  02b34	83 e0 20	 and	 eax, 32			; 00000020H
  02b37	83 f8 20	 cmp	 eax, 32			; 00000020H
  02b3a	0f 85 63 02 00
	00		 jne	 $LN27@gen_csv_si

; 8734 :     {
; 8735 :         OrResult[2]  |= OrConstant[6];

  02b40	b8 04 00 00 00	 mov	 eax, 4
  02b45	48 6b c0 02	 imul	 rax, rax, 2
  02b49	b9 04 00 00 00	 mov	 ecx, 4
  02b4e	48 6b c9 06	 imul	 rcx, rcx, 6
  02b52	48 8d 15 00 00
	00 00		 lea	 rdx, OFFSET FLAT:?OrConstant@?1??gen_csv_sid@@9@9
  02b59	8b 0c 0a	 mov	 ecx, DWORD PTR [rdx+rcx]
  02b5c	8b 44 04 70	 mov	 eax, DWORD PTR OrResult$[rsp+rax]
  02b60	0b c1		 or	 eax, ecx
  02b62	b9 04 00 00 00	 mov	 ecx, 4
  02b67	48 6b c9 02	 imul	 rcx, rcx, 2
  02b6b	89 44 0c 70	 mov	 DWORD PTR OrResult$[rsp+rcx], eax

; 8736 :         OrResult[7]  |= OrConstant[8];

  02b6f	b8 04 00 00 00	 mov	 eax, 4
  02b74	48 6b c0 07	 imul	 rax, rax, 7
  02b78	b9 04 00 00 00	 mov	 ecx, 4
  02b7d	48 6b c9 08	 imul	 rcx, rcx, 8
  02b81	48 8d 15 00 00
	00 00		 lea	 rdx, OFFSET FLAT:?OrConstant@?1??gen_csv_sid@@9@9
  02b88	8b 0c 0a	 mov	 ecx, DWORD PTR [rdx+rcx]
  02b8b	8b 44 04 70	 mov	 eax, DWORD PTR OrResult$[rsp+rax]
  02b8f	0b c1		 or	 eax, ecx
  02b91	b9 04 00 00 00	 mov	 ecx, 4
  02b96	48 6b c9 07	 imul	 rcx, rcx, 7
  02b9a	89 44 0c 70	 mov	 DWORD PTR OrResult$[rsp+rcx], eax

; 8737 :         OrResult[8]  |= OrConstant[4];

  02b9e	b8 04 00 00 00	 mov	 eax, 4
  02ba3	48 6b c0 08	 imul	 rax, rax, 8
  02ba7	b9 04 00 00 00	 mov	 ecx, 4
  02bac	48 6b c9 04	 imul	 rcx, rcx, 4
  02bb0	48 8d 15 00 00
	00 00		 lea	 rdx, OFFSET FLAT:?OrConstant@?1??gen_csv_sid@@9@9
  02bb7	8b 0c 0a	 mov	 ecx, DWORD PTR [rdx+rcx]
  02bba	8b 44 04 70	 mov	 eax, DWORD PTR OrResult$[rsp+rax]
  02bbe	0b c1		 or	 eax, ecx
  02bc0	b9 04 00 00 00	 mov	 ecx, 4
  02bc5	48 6b c9 08	 imul	 rcx, rcx, 8
  02bc9	89 44 0c 70	 mov	 DWORD PTR OrResult$[rsp+rcx], eax

; 8738 :         OrResult[11] |= OrConstant[0];

  02bcd	b8 04 00 00 00	 mov	 eax, 4
  02bd2	48 6b c0 0b	 imul	 rax, rax, 11
  02bd6	b9 04 00 00 00	 mov	 ecx, 4
  02bdb	48 6b c9 00	 imul	 rcx, rcx, 0
  02bdf	48 8d 15 00 00
	00 00		 lea	 rdx, OFFSET FLAT:?OrConstant@?1??gen_csv_sid@@9@9
  02be6	8b 0c 0a	 mov	 ecx, DWORD PTR [rdx+rcx]
  02be9	8b 44 04 70	 mov	 eax, DWORD PTR OrResult$[rsp+rax]
  02bed	0b c1		 or	 eax, ecx
  02bef	b9 04 00 00 00	 mov	 ecx, 4
  02bf4	48 6b c9 0b	 imul	 rcx, rcx, 11
  02bf8	89 44 0c 70	 mov	 DWORD PTR OrResult$[rsp+rcx], eax

; 8739 :         OrResult[12] |= OrConstant[5];

  02bfc	b8 04 00 00 00	 mov	 eax, 4
  02c01	48 6b c0 0c	 imul	 rax, rax, 12
  02c05	b9 04 00 00 00	 mov	 ecx, 4
  02c0a	48 6b c9 05	 imul	 rcx, rcx, 5
  02c0e	48 8d 15 00 00
	00 00		 lea	 rdx, OFFSET FLAT:?OrConstant@?1??gen_csv_sid@@9@9
  02c15	8b 0c 0a	 mov	 ecx, DWORD PTR [rdx+rcx]
  02c18	8b 44 04 70	 mov	 eax, DWORD PTR OrResult$[rsp+rax]
  02c1c	0b c1		 or	 eax, ecx
  02c1e	b9 04 00 00 00	 mov	 ecx, 4
  02c23	48 6b c9 0c	 imul	 rcx, rcx, 12
  02c27	89 44 0c 70	 mov	 DWORD PTR OrResult$[rsp+rcx], eax

; 8740 :         OrResult[15] |= OrConstant[7];

  02c2b	b8 04 00 00 00	 mov	 eax, 4
  02c30	48 6b c0 0f	 imul	 rax, rax, 15
  02c34	b9 04 00 00 00	 mov	 ecx, 4
  02c39	48 6b c9 07	 imul	 rcx, rcx, 7
  02c3d	48 8d 15 00 00
	00 00		 lea	 rdx, OFFSET FLAT:?OrConstant@?1??gen_csv_sid@@9@9
  02c44	8b 0c 0a	 mov	 ecx, DWORD PTR [rdx+rcx]
  02c47	8b 44 04 70	 mov	 eax, DWORD PTR OrResult$[rsp+rax]
  02c4b	0b c1		 or	 eax, ecx
  02c4d	b9 04 00 00 00	 mov	 ecx, 4
  02c52	48 6b c9 0f	 imul	 rcx, rcx, 15
  02c56	89 44 0c 70	 mov	 DWORD PTR OrResult$[rsp+rcx], eax

; 8741 :         OrResult[16] |= OrConstant[11];

  02c5a	b8 04 00 00 00	 mov	 eax, 4
  02c5f	48 6b c0 10	 imul	 rax, rax, 16
  02c63	b9 04 00 00 00	 mov	 ecx, 4
  02c68	48 6b c9 0b	 imul	 rcx, rcx, 11
  02c6c	48 8d 15 00 00
	00 00		 lea	 rdx, OFFSET FLAT:?OrConstant@?1??gen_csv_sid@@9@9
  02c73	8b 0c 0a	 mov	 ecx, DWORD PTR [rdx+rcx]
  02c76	8b 44 04 70	 mov	 eax, DWORD PTR OrResult$[rsp+rax]
  02c7a	0b c1		 or	 eax, ecx
  02c7c	b9 04 00 00 00	 mov	 ecx, 4
  02c81	48 6b c9 10	 imul	 rcx, rcx, 16
  02c85	89 44 0c 70	 mov	 DWORD PTR OrResult$[rsp+rcx], eax

; 8742 :         OrResult[19] |= OrConstant[5];

  02c89	b8 04 00 00 00	 mov	 eax, 4
  02c8e	48 6b c0 13	 imul	 rax, rax, 19
  02c92	b9 04 00 00 00	 mov	 ecx, 4
  02c97	48 6b c9 05	 imul	 rcx, rcx, 5
  02c9b	48 8d 15 00 00
	00 00		 lea	 rdx, OFFSET FLAT:?OrConstant@?1??gen_csv_sid@@9@9
  02ca2	8b 0c 0a	 mov	 ecx, DWORD PTR [rdx+rcx]
  02ca5	8b 44 04 70	 mov	 eax, DWORD PTR OrResult$[rsp+rax]
  02ca9	0b c1		 or	 eax, ecx
  02cab	b9 04 00 00 00	 mov	 ecx, 4
  02cb0	48 6b c9 13	 imul	 rcx, rcx, 19
  02cb4	89 44 0c 70	 mov	 DWORD PTR OrResult$[rsp+rcx], eax

; 8743 :         OrResult[20] |= OrConstant[8];

  02cb8	b8 04 00 00 00	 mov	 eax, 4
  02cbd	48 6b c0 14	 imul	 rax, rax, 20
  02cc1	b9 04 00 00 00	 mov	 ecx, 4
  02cc6	48 6b c9 08	 imul	 rcx, rcx, 8
  02cca	48 8d 15 00 00
	00 00		 lea	 rdx, OFFSET FLAT:?OrConstant@?1??gen_csv_sid@@9@9
  02cd1	8b 0c 0a	 mov	 ecx, DWORD PTR [rdx+rcx]
  02cd4	8b 44 04 70	 mov	 eax, DWORD PTR OrResult$[rsp+rax]
  02cd8	0b c1		 or	 eax, ecx
  02cda	b9 04 00 00 00	 mov	 ecx, 4
  02cdf	48 6b c9 14	 imul	 rcx, rcx, 20
  02ce3	89 44 0c 70	 mov	 DWORD PTR OrResult$[rsp+rcx], eax

; 8744 :         OrResult[22] |= OrConstant[0];

  02ce7	b8 04 00 00 00	 mov	 eax, 4
  02cec	48 6b c0 16	 imul	 rax, rax, 22
  02cf0	b9 04 00 00 00	 mov	 ecx, 4
  02cf5	48 6b c9 00	 imul	 rcx, rcx, 0
  02cf9	48 8d 15 00 00
	00 00		 lea	 rdx, OFFSET FLAT:?OrConstant@?1??gen_csv_sid@@9@9
  02d00	8b 0c 0a	 mov	 ecx, DWORD PTR [rdx+rcx]
  02d03	8b 44 04 70	 mov	 eax, DWORD PTR OrResult$[rsp+rax]
  02d07	0b c1		 or	 eax, ecx
  02d09	b9 04 00 00 00	 mov	 ecx, 4
  02d0e	48 6b c9 16	 imul	 rcx, rcx, 22
  02d12	89 44 0c 70	 mov	 DWORD PTR OrResult$[rsp+rcx], eax

; 8745 :         OrResult[25] |= OrConstant[6];

  02d16	b8 04 00 00 00	 mov	 eax, 4
  02d1b	48 6b c0 19	 imul	 rax, rax, 25
  02d1f	b9 04 00 00 00	 mov	 ecx, 4
  02d24	48 6b c9 06	 imul	 rcx, rcx, 6
  02d28	48 8d 15 00 00
	00 00		 lea	 rdx, OFFSET FLAT:?OrConstant@?1??gen_csv_sid@@9@9
  02d2f	8b 0c 0a	 mov	 ecx, DWORD PTR [rdx+rcx]
  02d32	8b 44 04 70	 mov	 eax, DWORD PTR OrResult$[rsp+rax]
  02d36	0b c1		 or	 eax, ecx
  02d38	b9 04 00 00 00	 mov	 ecx, 4
  02d3d	48 6b c9 19	 imul	 rcx, rcx, 25
  02d41	89 44 0c 70	 mov	 DWORD PTR OrResult$[rsp+rcx], eax

; 8746 :         OrResult[29] |= OrConstant[9];

  02d45	b8 04 00 00 00	 mov	 eax, 4
  02d4a	48 6b c0 1d	 imul	 rax, rax, 29
  02d4e	b9 04 00 00 00	 mov	 ecx, 4
  02d53	48 6b c9 09	 imul	 rcx, rcx, 9
  02d57	48 8d 15 00 00
	00 00		 lea	 rdx, OFFSET FLAT:?OrConstant@?1??gen_csv_sid@@9@9
  02d5e	8b 0c 0a	 mov	 ecx, DWORD PTR [rdx+rcx]
  02d61	8b 44 04 70	 mov	 eax, DWORD PTR OrResult$[rsp+rax]
  02d65	0b c1		 or	 eax, ecx
  02d67	b9 04 00 00 00	 mov	 ecx, 4
  02d6c	48 6b c9 1d	 imul	 rcx, rcx, 29
  02d70	89 44 0c 70	 mov	 DWORD PTR OrResult$[rsp+rcx], eax

; 8747 :         OrResult[31] |= OrConstant[4];

  02d74	b8 04 00 00 00	 mov	 eax, 4
  02d79	48 6b c0 1f	 imul	 rax, rax, 31
  02d7d	b9 04 00 00 00	 mov	 ecx, 4
  02d82	48 6b c9 04	 imul	 rcx, rcx, 4
  02d86	48 8d 15 00 00
	00 00		 lea	 rdx, OFFSET FLAT:?OrConstant@?1??gen_csv_sid@@9@9
  02d8d	8b 0c 0a	 mov	 ecx, DWORD PTR [rdx+rcx]
  02d90	8b 44 04 70	 mov	 eax, DWORD PTR OrResult$[rsp+rax]
  02d94	0b c1		 or	 eax, ecx
  02d96	b9 04 00 00 00	 mov	 ecx, 4
  02d9b	48 6b c9 1f	 imul	 rcx, rcx, 31
  02d9f	89 44 0c 70	 mov	 DWORD PTR OrResult$[rsp+rcx], eax
$LN27@gen_csv_si:

; 8748 :     }
; 8749 :     if ((pClock1[2] & 0x10 ) == 0x10)

  02da3	b8 01 00 00 00	 mov	 eax, 1
  02da8	48 6b c0 02	 imul	 rax, rax, 2
  02dac	48 8b 8c 24 50
	01 00 00	 mov	 rcx, QWORD PTR pClock1$[rsp]
  02db4	0f b6 04 01	 movzx	 eax, BYTE PTR [rcx+rax]
  02db8	83 e0 10	 and	 eax, 16
  02dbb	83 f8 10	 cmp	 eax, 16
  02dbe	0f 85 92 02 00
	00		 jne	 $LN28@gen_csv_si

; 8750 :     {
; 8751 :         OrResult[2]  |= OrConstant[17];

  02dc4	b8 04 00 00 00	 mov	 eax, 4
  02dc9	48 6b c0 02	 imul	 rax, rax, 2
  02dcd	b9 04 00 00 00	 mov	 ecx, 4
  02dd2	48 6b c9 11	 imul	 rcx, rcx, 17
  02dd6	48 8d 15 00 00
	00 00		 lea	 rdx, OFFSET FLAT:?OrConstant@?1??gen_csv_sid@@9@9
  02ddd	8b 0c 0a	 mov	 ecx, DWORD PTR [rdx+rcx]
  02de0	8b 44 04 70	 mov	 eax, DWORD PTR OrResult$[rsp+rax]
  02de4	0b c1		 or	 eax, ecx
  02de6	b9 04 00 00 00	 mov	 ecx, 4
  02deb	48 6b c9 02	 imul	 rcx, rcx, 2
  02def	89 44 0c 70	 mov	 DWORD PTR OrResult$[rsp+rcx], eax

; 8752 :         OrResult[5]  |= OrConstant[22];

  02df3	b8 04 00 00 00	 mov	 eax, 4
  02df8	48 6b c0 05	 imul	 rax, rax, 5
  02dfc	b9 04 00 00 00	 mov	 ecx, 4
  02e01	48 6b c9 16	 imul	 rcx, rcx, 22
  02e05	48 8d 15 00 00
	00 00		 lea	 rdx, OFFSET FLAT:?OrConstant@?1??gen_csv_sid@@9@9
  02e0c	8b 0c 0a	 mov	 ecx, DWORD PTR [rdx+rcx]
  02e0f	8b 44 04 70	 mov	 eax, DWORD PTR OrResult$[rsp+rax]
  02e13	0b c1		 or	 eax, ecx
  02e15	b9 04 00 00 00	 mov	 ecx, 4
  02e1a	48 6b c9 05	 imul	 rcx, rcx, 5
  02e1e	89 44 0c 70	 mov	 DWORD PTR OrResult$[rsp+rcx], eax

; 8753 :         OrResult[6]  |= OrConstant[14];

  02e22	b8 04 00 00 00	 mov	 eax, 4
  02e27	48 6b c0 06	 imul	 rax, rax, 6
  02e2b	b9 04 00 00 00	 mov	 ecx, 4
  02e30	48 6b c9 0e	 imul	 rcx, rcx, 14
  02e34	48 8d 15 00 00
	00 00		 lea	 rdx, OFFSET FLAT:?OrConstant@?1??gen_csv_sid@@9@9
  02e3b	8b 0c 0a	 mov	 ecx, DWORD PTR [rdx+rcx]
  02e3e	8b 44 04 70	 mov	 eax, DWORD PTR OrResult$[rsp+rax]
  02e42	0b c1		 or	 eax, ecx
  02e44	b9 04 00 00 00	 mov	 ecx, 4
  02e49	48 6b c9 06	 imul	 rcx, rcx, 6
  02e4d	89 44 0c 70	 mov	 DWORD PTR OrResult$[rsp+rcx], eax

; 8754 :         OrResult[9]  |= OrConstant[16];

  02e51	b8 04 00 00 00	 mov	 eax, 4
  02e56	48 6b c0 09	 imul	 rax, rax, 9
  02e5a	b9 04 00 00 00	 mov	 ecx, 4
  02e5f	48 6b c9 10	 imul	 rcx, rcx, 16
  02e63	48 8d 15 00 00
	00 00		 lea	 rdx, OFFSET FLAT:?OrConstant@?1??gen_csv_sid@@9@9
  02e6a	8b 0c 0a	 mov	 ecx, DWORD PTR [rdx+rcx]
  02e6d	8b 44 04 70	 mov	 eax, DWORD PTR OrResult$[rsp+rax]
  02e71	0b c1		 or	 eax, ecx
  02e73	b9 04 00 00 00	 mov	 ecx, 4
  02e78	48 6b c9 09	 imul	 rcx, rcx, 9
  02e7c	89 44 0c 70	 mov	 DWORD PTR OrResult$[rsp+rcx], eax

; 8755 :         OrResult[12] |= OrConstant[15];

  02e80	b8 04 00 00 00	 mov	 eax, 4
  02e85	48 6b c0 0c	 imul	 rax, rax, 12
  02e89	b9 04 00 00 00	 mov	 ecx, 4
  02e8e	48 6b c9 0f	 imul	 rcx, rcx, 15
  02e92	48 8d 15 00 00
	00 00		 lea	 rdx, OFFSET FLAT:?OrConstant@?1??gen_csv_sid@@9@9
  02e99	8b 0c 0a	 mov	 ecx, DWORD PTR [rdx+rcx]
  02e9c	8b 44 04 70	 mov	 eax, DWORD PTR OrResult$[rsp+rax]
  02ea0	0b c1		 or	 eax, ecx
  02ea2	b9 04 00 00 00	 mov	 ecx, 4
  02ea7	48 6b c9 0c	 imul	 rcx, rcx, 12
  02eab	89 44 0c 70	 mov	 DWORD PTR OrResult$[rsp+rcx], eax

; 8756 :         OrResult[14] |= OrConstant[20];

  02eaf	b8 04 00 00 00	 mov	 eax, 4
  02eb4	48 6b c0 0e	 imul	 rax, rax, 14
  02eb8	b9 04 00 00 00	 mov	 ecx, 4
  02ebd	48 6b c9 14	 imul	 rcx, rcx, 20
  02ec1	48 8d 15 00 00
	00 00		 lea	 rdx, OFFSET FLAT:?OrConstant@?1??gen_csv_sid@@9@9
  02ec8	8b 0c 0a	 mov	 ecx, DWORD PTR [rdx+rcx]
  02ecb	8b 44 04 70	 mov	 eax, DWORD PTR OrResult$[rsp+rax]
  02ecf	0b c1		 or	 eax, ecx
  02ed1	b9 04 00 00 00	 mov	 ecx, 4
  02ed6	48 6b c9 0e	 imul	 rcx, rcx, 14
  02eda	89 44 0c 70	 mov	 DWORD PTR OrResult$[rsp+rcx], eax

; 8757 :         OrResult[17] |= OrConstant[13];

  02ede	b8 04 00 00 00	 mov	 eax, 4
  02ee3	48 6b c0 11	 imul	 rax, rax, 17
  02ee7	b9 04 00 00 00	 mov	 ecx, 4
  02eec	48 6b c9 0d	 imul	 rcx, rcx, 13
  02ef0	48 8d 15 00 00
	00 00		 lea	 rdx, OFFSET FLAT:?OrConstant@?1??gen_csv_sid@@9@9
  02ef7	8b 0c 0a	 mov	 ecx, DWORD PTR [rdx+rcx]
  02efa	8b 44 04 70	 mov	 eax, DWORD PTR OrResult$[rsp+rax]
  02efe	0b c1		 or	 eax, ecx
  02f00	b9 04 00 00 00	 mov	 ecx, 4
  02f05	48 6b c9 11	 imul	 rcx, rcx, 17
  02f09	89 44 0c 70	 mov	 DWORD PTR OrResult$[rsp+rcx], eax

; 8758 :         OrResult[19] |= OrConstant[19];

  02f0d	b8 04 00 00 00	 mov	 eax, 4
  02f12	48 6b c0 13	 imul	 rax, rax, 19
  02f16	b9 04 00 00 00	 mov	 ecx, 4
  02f1b	48 6b c9 13	 imul	 rcx, rcx, 19
  02f1f	48 8d 15 00 00
	00 00		 lea	 rdx, OFFSET FLAT:?OrConstant@?1??gen_csv_sid@@9@9
  02f26	8b 0c 0a	 mov	 ecx, DWORD PTR [rdx+rcx]
  02f29	8b 44 04 70	 mov	 eax, DWORD PTR OrResult$[rsp+rax]
  02f2d	0b c1		 or	 eax, ecx
  02f2f	b9 04 00 00 00	 mov	 ecx, 4
  02f34	48 6b c9 13	 imul	 rcx, rcx, 19
  02f38	89 44 0c 70	 mov	 DWORD PTR OrResult$[rsp+rcx], eax

; 8759 :         OrResult[20] |= OrConstant[18];

  02f3c	b8 04 00 00 00	 mov	 eax, 4
  02f41	48 6b c0 14	 imul	 rax, rax, 20
  02f45	b9 04 00 00 00	 mov	 ecx, 4
  02f4a	48 6b c9 12	 imul	 rcx, rcx, 18
  02f4e	48 8d 15 00 00
	00 00		 lea	 rdx, OFFSET FLAT:?OrConstant@?1??gen_csv_sid@@9@9
  02f55	8b 0c 0a	 mov	 ecx, DWORD PTR [rdx+rcx]
  02f58	8b 44 04 70	 mov	 eax, DWORD PTR OrResult$[rsp+rax]
  02f5c	0b c1		 or	 eax, ecx
  02f5e	b9 04 00 00 00	 mov	 ecx, 4
  02f63	48 6b c9 14	 imul	 rcx, rcx, 20
  02f67	89 44 0c 70	 mov	 DWORD PTR OrResult$[rsp+rcx], eax

; 8760 :         OrResult[23] |= OrConstant[18];

  02f6b	b8 04 00 00 00	 mov	 eax, 4
  02f70	48 6b c0 17	 imul	 rax, rax, 23
  02f74	b9 04 00 00 00	 mov	 ecx, 4
  02f79	48 6b c9 12	 imul	 rcx, rcx, 18
  02f7d	48 8d 15 00 00
	00 00		 lea	 rdx, OFFSET FLAT:?OrConstant@?1??gen_csv_sid@@9@9
  02f84	8b 0c 0a	 mov	 ecx, DWORD PTR [rdx+rcx]
  02f87	8b 44 04 70	 mov	 eax, DWORD PTR OrResult$[rsp+rax]
  02f8b	0b c1		 or	 eax, ecx
  02f8d	b9 04 00 00 00	 mov	 ecx, 4
  02f92	48 6b c9 17	 imul	 rcx, rcx, 23
  02f96	89 44 0c 70	 mov	 DWORD PTR OrResult$[rsp+rcx], eax

; 8761 :         OrResult[25] |= OrConstant[17];

  02f9a	b8 04 00 00 00	 mov	 eax, 4
  02f9f	48 6b c0 19	 imul	 rax, rax, 25
  02fa3	b9 04 00 00 00	 mov	 ecx, 4
  02fa8	48 6b c9 11	 imul	 rcx, rcx, 17
  02fac	48 8d 15 00 00
	00 00		 lea	 rdx, OFFSET FLAT:?OrConstant@?1??gen_csv_sid@@9@9
  02fb3	8b 0c 0a	 mov	 ecx, DWORD PTR [rdx+rcx]
  02fb6	8b 44 04 70	 mov	 eax, DWORD PTR OrResult$[rsp+rax]
  02fba	0b c1		 or	 eax, ecx
  02fbc	b9 04 00 00 00	 mov	 ecx, 4
  02fc1	48 6b c9 19	 imul	 rcx, rcx, 25
  02fc5	89 44 0c 70	 mov	 DWORD PTR OrResult$[rsp+rcx], eax

; 8762 :         OrResult[27] |= OrConstant[20];

  02fc9	b8 04 00 00 00	 mov	 eax, 4
  02fce	48 6b c0 1b	 imul	 rax, rax, 27
  02fd2	b9 04 00 00 00	 mov	 ecx, 4
  02fd7	48 6b c9 14	 imul	 rcx, rcx, 20
  02fdb	48 8d 15 00 00
	00 00		 lea	 rdx, OFFSET FLAT:?OrConstant@?1??gen_csv_sid@@9@9
  02fe2	8b 0c 0a	 mov	 ecx, DWORD PTR [rdx+rcx]
  02fe5	8b 44 04 70	 mov	 eax, DWORD PTR OrResult$[rsp+rax]
  02fe9	0b c1		 or	 eax, ecx
  02feb	b9 04 00 00 00	 mov	 ecx, 4
  02ff0	48 6b c9 1b	 imul	 rcx, rcx, 27
  02ff4	89 44 0c 70	 mov	 DWORD PTR OrResult$[rsp+rcx], eax

; 8763 :         OrResult[28] |= OrConstant[13];

  02ff8	b8 04 00 00 00	 mov	 eax, 4
  02ffd	48 6b c0 1c	 imul	 rax, rax, 28
  03001	b9 04 00 00 00	 mov	 ecx, 4
  03006	48 6b c9 0d	 imul	 rcx, rcx, 13
  0300a	48 8d 15 00 00
	00 00		 lea	 rdx, OFFSET FLAT:?OrConstant@?1??gen_csv_sid@@9@9
  03011	8b 0c 0a	 mov	 ecx, DWORD PTR [rdx+rcx]
  03014	8b 44 04 70	 mov	 eax, DWORD PTR OrResult$[rsp+rax]
  03018	0b c1		 or	 eax, ecx
  0301a	b9 04 00 00 00	 mov	 ecx, 4
  0301f	48 6b c9 1c	 imul	 rcx, rcx, 28
  03023	89 44 0c 70	 mov	 DWORD PTR OrResult$[rsp+rcx], eax

; 8764 :         OrResult[30] |= OrConstant[23];

  03027	b8 04 00 00 00	 mov	 eax, 4
  0302c	48 6b c0 1e	 imul	 rax, rax, 30
  03030	b9 04 00 00 00	 mov	 ecx, 4
  03035	48 6b c9 17	 imul	 rcx, rcx, 23
  03039	48 8d 15 00 00
	00 00		 lea	 rdx, OFFSET FLAT:?OrConstant@?1??gen_csv_sid@@9@9
  03040	8b 0c 0a	 mov	 ecx, DWORD PTR [rdx+rcx]
  03043	8b 44 04 70	 mov	 eax, DWORD PTR OrResult$[rsp+rax]
  03047	0b c1		 or	 eax, ecx
