; Listing generated by Microsoft (R) Optimizing Compiler Version 19.34.31937.0 

include listing.inc

INCLUDELIB MSVCRTD
INCLUDELIB OLDNAMES

PUBLIC	lcs_device_hndinfo
PUBLIC	LCS_Init
PUBLIC	LCS_Close
PUBLIC	LCS_Query
PUBLIC	LCS_ExecuteCCW
PUBLIC	LCS_StartChannelProgram
PUBLIC	LCS_EndChannelProgram
_DATA	SEGMENT
$SG172716 DB	'mode', 00H
	ORG $+3
$SG172717 DB	'dev', 00H
$SG172718 DB	'mac', 00H
$SG172719 DB	'oat', 00H
$SG172720 DB	'distrc', 00H
	ORG $+1
$SG172721 DB	'maxtrc', 00H
	ORG $+1
$SG172722 DB	'debug', 00H
	ORG $+2
$SG172723 DB	'kbuff', 00H
	ORG $+2
$SG172724 DB	'ibuff', 00H
	ORG $+2
$SG172725 DB	'swrite', 00H
	ORG $+13
lcs_device_hndinfo DQ FLAT:LCS_Init
	DQ	FLAT:LCS_ExecuteCCW
	DQ	FLAT:LCS_Close
	DQ	FLAT:LCS_Query
	DQ	0000000000000000H
	DQ	FLAT:LCS_StartChannelProgram
	DQ	FLAT:LCS_EndChannelProgram
	DQ	0000000000000000H
	DQ	0000000000000000H
	DQ	FLAT:lcs_halt_or_clear
	DQ	0000000000000000H
	DQ	0000000000000000H
	DQ	0000000000000000H
	DQ	0000000000000000H
	DQ	0000000000000000H
	DQ	0000000000000000H
	DQ	FLAT:CTC_Immed_Commands
	DQ	0000000000000000H
	DQ	0000000000000000H
	DQ	0000000000000000H
	DQ	0000000000000000H
	DQ	0000000000000000H
	DQ	0000000000000000H
	DQ	0000000000000000H
	DQ	0000000000000000H
	ORG $+8
CTC_Immed_Commands DB 00H
	DB	00H
	DB	00H
	DB	01H
	DB	00H
	DB	00H
	DB	00H
	DB	00H
	DB	00H
	DB	00H
	DB	00H
	DB	00H
	DB	00H
	DB	00H
	DB	00H
	DB	00H
	DB	00H
	DB	00H
	DB	00H
	DB	00H
	DB	00H
	DB	00H
	DB	00H
	DB	01H
	DB	00H
	DB	00H
	DB	00H
	DB	00H
	DB	00H
	DB	00H
	DB	00H
	DB	00H
	DB	00H
	DB	00H
	DB	00H
	DB	00H
	DB	00H
	DB	00H
	DB	00H
	DB	00H
	DB	00H
	DB	00H
	DB	00H
	DB	00H
	DB	00H
	DB	00H
	DB	00H
	DB	00H
	DB	00H
	DB	00H
	DB	00H
	DB	00H
	DB	00H
	DB	00H
	DB	00H
	DB	00H
	DB	00H
	DB	00H
	DB	00H
	DB	00H
	DB	00H
	DB	00H
	DB	00H
	DB	00H
	DB	00H
	DB	00H
	DB	00H
	DB	01H
	DB	00H
	DB	00H
	DB	00H
	DB	00H
	DB	00H
	DB	00H
	DB	00H
	DB	00H
	DB	00H
	DB	00H
	DB	00H
	DB	00H
	DB	00H
	DB	00H
	DB	00H
	DB	00H
	DB	00H
	DB	00H
	DB	00H
	DB	00H
	DB	00H
	DB	00H
	DB	00H
	DB	00H
	DB	00H
	DB	00H
	DB	00H
	DB	00H
	DB	00H
	DB	00H
	DB	00H
	DB	00H
	DB	00H
	DB	00H
	DB	00H
	DB	00H
	DB	00H
	DB	00H
	DB	00H
	DB	00H
	DB	00H
	DB	00H
	DB	00H
	DB	00H
	DB	00H
	DB	00H
	DB	00H
	DB	00H
	DB	00H
	DB	00H
	DB	00H
	DB	00H
	DB	00H
	DB	00H
	DB	00H
	DB	00H
	DB	00H
	DB	00H
	DB	00H
	DB	00H
	DB	00H
	DB	00H
	DB	00H
	DB	00H
	DB	00H
	DB	00H
	DB	00H
	DB	00H
	DB	00H
	DB	00H
	DB	00H
	DB	00H
	DB	00H
	DB	00H
	DB	00H
	DB	00H
	DB	00H
	DB	00H
	DB	00H
	DB	00H
	DB	00H
	DB	00H
	DB	00H
	DB	00H
	DB	00H
	DB	00H
	DB	00H
	DB	00H
	DB	00H
	DB	00H
	DB	00H
	DB	00H
	DB	00H
	DB	00H
	DB	00H
	DB	00H
	DB	00H
	DB	00H
	DB	00H
	DB	00H
	DB	00H
	DB	00H
	DB	00H
	DB	00H
	DB	00H
	DB	00H
	DB	00H
	DB	00H
	DB	00H
	DB	00H
	DB	00H
	DB	00H
	DB	00H
	DB	00H
	DB	00H
	DB	00H
	DB	00H
	DB	00H
	DB	00H
	DB	00H
	DB	00H
	DB	00H
	DB	00H
	DB	00H
	DB	00H
	DB	00H
	DB	00H
	DB	01H
	DB	00H
	DB	00H
	DB	00H
	DB	00H
	DB	00H
	DB	00H
	DB	00H
	DB	00H
	DB	00H
	DB	00H
	DB	00H
	DB	00H
	DB	00H
	DB	00H
	DB	00H
	DB	00H
	DB	00H
	DB	00H
	DB	00H
	DB	00H
	DB	00H
	DB	00H
	DB	00H
	DB	00H
	DB	00H
	DB	00H
	DB	00H
	DB	00H
	DB	00H
	DB	00H
	DB	00H
	DB	00H
	DB	00H
	DB	00H
	DB	00H
	DB	00H
	DB	00H
	DB	00H
	DB	00H
	DB	00H
	DB	00H
	DB	00H
	DB	00H
	DB	00H
	DB	00H
	DB	00H
	DB	00H
	DB	00H
	DB	00H
	DB	00H
	DB	00H
	DB	00H
	DB	00H
	DB	00H
	DB	00H
	DB	00H
	DB	00H
	DB	00H
	DB	00H
	DB	00H
_DATA	ENDS
CONST	SEGMENT
CKD_ENDTRK DB	0ffH
	DB	0ffH
	DB	0ffH
	DB	0ffH
	DB	0ffH
	DB	0ffH
	DB	0ffH
	DB	0ffH
?Inbound_CC0A@?1??Process_0C0A@@9@9 DB 00H		; `Process_0C0A'::`2'::Inbound_CC0A
	DB	024H
	DB	04H
	DB	00H
	DB	00H
	DB	01cH
	DB	0ccH
	DB	0aH
	DB	00H
	DB	03H
	DB	060H
	DB	01H
	DB	0ffH
	DB	0ffH
	DB	0ffH
	DB	0ffH
	DB	00H
	DB	00H
	DB	00H
	DB	00H
	DB	00H
	DB	00H
	DB	070H
	DB	00H
	DB	00H
	DB	00H
	DB	00H
	DB	00H
	DB	0ffH
	DB	0ffH
	DB	0ffH
	DB	0ffH
	DB	01H
	DB	0ffH
	DB	0ffH
	DB	00H
mcast3	DB	01H
	DB	00H
	DB	05eH
	ORG $+1
?Inbound_CC0B@?1??Process_0C0B@@9@9 DB 00H		; `Process_0C0B'::`2'::Inbound_CC0B
	DB	020H
	DB	04H
	DB	00H
	DB	00H
	DB	018H
	DB	0ccH
	DB	0bH
	DB	00H
	DB	03H
	DB	060H
	DB	01H
	DB	0ffH
	DB	0ffH
	DB	0ffH
	DB	0ffH
	DB	00H
	DB	00H
	DB	00H
	DB	00H
	DB	00H
	DB	00H
	DB	070H
	DB	00H
	DB	00H
	DB	00H
	DB	00H
	DB	00H
	DB	01H
	DB	0ffH
	DB	0ffH
	DB	00H
?Inbound_CC99@?1??Process_0C99@@9@9 DB 00H		; `Process_0C99'::`2'::Inbound_CC99
	DB	032H
	DB	04H
	DB	00H
	DB	00H
	DB	018H
	DB	0ccH
	DB	099H
	DB	00H
	DB	015H
	DB	0c0H
	DB	00H
	DB	00H
	DB	00H
	DB	00H
	DB	00H
	DB	00H
	DB	00H
	DB	00H
	DB	00H
	DB	00H
	DB	00H
	DB	020H
	DB	01eH
	DB	00H
	DB	00H
	DB	00H
	DB	00H
	DB	01H
	DB	0ffH
	DB	0ffH
	DB	00H
	DB	00H
	DB	03H
	DB	00H
	DB	00H
	DB	06H
	DB	0ffH
	DB	0ffH
	DB	0ffH
	DB	0ffH
	DB	0ffH
	DB	0ffH
	DB	00H
	DB	00H
	DB	05H
	DB	0d5H
	DB	00H
	DB	00H
	DB	00H
	ORG $+6
?Inbound_CC0D@?1??Process_0C0D@@9@9 DB 00H		; `Process_0C0D'::`2'::Inbound_CC0D
	DB	038H
	DB	04H
	DB	00H
	DB	00H
	DB	02cH
	DB	0ccH
	DB	0dH
	DB	00H
	DB	07H
	DB	060H
	DB	03H
	DB	00H
	DB	00H
	DB	00H
	DB	01H
	DB	00H
	DB	00H
	DB	00H
	DB	00H
	DB	00H
	DB	00H
	DB	070H
	DB	00H
	DB	00H
	DB	00H
	DB	00H
	DB	00H
	DB	040H
	DB	00H
	DB	00H
	DB	0dcH
	DB	00H
	DB	00H
	DB	00H
	DB	00H
	DB	00H
	DB	00H
	DB	00H
	DB	00H
	DB	00H
	DB	00H
	DB	00H
	DB	00H
	DB	00H
	DB	00H
	DB	00H
	DB	00H
	DB	01H
	DB	0ffH
	DB	0ffH
	DB	00H
	DB	00H
	DB	00H
	DB	00H
	DB	00H
?Inbound_CC0E@?1??Process_0C0E@@9@9 DB 00H		; `Process_0C0E'::`2'::Inbound_CC0E
	DB	020H
	DB	04H
	DB	00H
	DB	00H
	DB	018H
	DB	0ccH
	DB	0eH
	DB	00H
	DB	03H
	DB	060H
	DB	03H
	DB	00H
	DB	00H
	DB	00H
	DB	01H
	DB	00H
	DB	00H
	DB	00H
	DB	00H
	DB	00H
	DB	00H
	DB	070H
	DB	00H
	DB	00H
	DB	00H
	DB	00H
	DB	00H
	DB	01H
	DB	0ffH
	DB	0ffH
	DB	00H
?Inbound_CC98@?1??Process_0C98@@9@9 DB 00H		; `Process_0C98'::`2'::Inbound_CC98
	DB	020H
	DB	04H
	DB	00H
	DB	00H
	DB	018H
	DB	0ccH
	DB	098H
	DB	00H
	DB	03H
	DB	0c0H
	DB	00H
	DB	00H
	DB	00H
	DB	00H
	DB	00H
	DB	00H
	DB	00H
	DB	00H
	DB	00H
	DB	00H
	DB	00H
	DB	070H
	DB	00H
	DB	00H
	DB	00H
	DB	00H
	DB	00H
	DB	01H
	DB	0ffH
	DB	0ffH
	DB	00H
?Inbound_4D10@?1??LCS_ProcessAccepted_SNA@@9@9 DB 0ffH	; `LCS_ProcessAccepted_SNA'::`2'::Inbound_4D10
	DB	0ffH
	DB	04H
	DB	00H
	DB	00H
	DB	014H
	DB	04dH
	DB	010H
	DB	00H
	DB	09H
	DB	060H
	DB	01H
	DB	00H
	DB	00H
	DB	01H
	DB	01H
	DB	01H
	DB	00H
	DB	00H
	DB	040H
	DB	00H
	DB	00H
	DB	0ffH
	DB	00H
	DB	01H
	DB	0ffH
	DB	0ffH
	DB	00H
	DB	00H
	DB	0ffH
	DB	0ffH
	DB	0ffH
	DB	0ffH
	ORG $+3
zeromac	DB	00H
	DB	00H
	DB	00H
	DB	00H
	DB	00H
	DB	00H
	ORG $+6
?Inbound_4C25@?1??LCS_ProcessAccepted_SNA@@9@9 DB 00H	; `LCS_ProcessAccepted_SNA'::`2'::Inbound_4C25
	DB	02eH
	DB	04H
	DB	00H
	DB	00H
	DB	0dH
	DB	04cH
	DB	025H
	DB	00H
	DB	01cH
	DB	060H
	DB	03H
	DB	00H
	DB	00H
	DB	00H
	DB	01H
	DB	00H
	DB	01H
	DB	0ffH
	DB	0ffH
	DB	0c0H
	DB	00H
	DB	00H
	DB	00H
	DB	00H
	DB	00H
	DB	00H
	DB	00H
	DB	00H
	DB	0ffH
	DB	0ffH
	DB	0ffH
	DB	0ffH
	DB	0ffH
	DB	0ffH
	DB	0ffH
	DB	0ffH
	DB	0ffH
	DB	0ffH
	DB	0ffH
	DB	0ffH
	DB	0ffH
	DB	0ffH
	DB	0ffH
	DB	04H
	DB	00H
	ORG $+2
?Inbound_4C22@?1??LCS_ProcessAccepted_SNA@@9@9 DB 00H	; `LCS_ProcessAccepted_SNA'::`2'::Inbound_4C22
	DB	01dH
	DB	04H
	DB	00H
	DB	00H
	DB	0dH
	DB	04cH
	DB	022H
	DB	00H
	DB	0cH
	DB	060H
	DB	03H
	DB	00H
	DB	00H
	DB	00H
	DB	01H
	DB	00H
	DB	01H
	DB	0ffH
	DB	0ffH
	DB	0c0H
	DB	00H
	DB	00H
	DB	00H
	DB	0ffH
	DB	08H
	DB	00H
	DB	00H
	DB	00H
	ORG $+3
?Inbound_4D00@?1??LCS_ProcessAccepted_SNA@@9@9 DB 00H	; `LCS_ProcessAccepted_SNA'::`2'::Inbound_4D00
	DB	018H
	DB	04H
	DB	00H
	DB	00H
	DB	0cH
	DB	04dH
	DB	00H
	DB	00H
	DB	08H
	DB	060H
	DB	01H
	DB	0ffH
	DB	0ffH
	DB	0ffH
	DB	0ffH
	DB	01H
	DB	0ffH
	DB	0ffH
	DB	0ffH
	DB	0ffH
	DB	0ffH
	DB	0ffH
	DB	00H
?Inbound_4C0B@?1??LCS_ProcessAccepted_SNA@@9@9 DB 00H	; `LCS_ProcessAccepted_SNA'::`2'::Inbound_4C0B
	DB	020H
	DB	04H
	DB	00H
	DB	00H
	DB	018H
	DB	04cH
	DB	0bH
	DB	00H
	DB	03H
	DB	060H
	DB	01H
	DB	0ffH
	DB	0ffH
	DB	0ffH
	DB	0ffH
	DB	00H
	DB	00H
	DB	00H
	DB	00H
	DB	00H
	DB	00H
	DB	076H
	DB	056H
	DB	00H
	DB	00H
	DB	00H
	DB	00H
	DB	01H
	DB	040H
	DB	00H
	DB	00H
?Inbound_CD00@?1??LCS_ProcessAccepted_SNA@@9@9 DB 00H	; `LCS_ProcessAccepted_SNA'::`2'::Inbound_CD00
	DB	020H
	DB	04H
	DB	00H
	DB	00H
	DB	018H
	DB	0cdH
	DB	00H
	DB	00H
	DB	03H
	DB	060H
	DB	01H
	DB	0ffH
	DB	0ffH
	DB	0ffH
	DB	0ffH
	DB	00H
	DB	00H
	DB	00H
	DB	00H
	DB	00H
	DB	00H
	DB	070H
	DB	00H
	DB	00H
	DB	00H
	DB	00H
	DB	00H
	DB	01H
	DB	0ffH
	DB	0ffH
	DB	00H
CONST	ENDS
PUBLIC	__local_stdio_printf_options
PUBLIC	__local_stdio_scanf_options
PUBLIC	_vsnprintf_s_l
PUBLIC	_vsnprintf_s
PUBLIC	_vsscanf_l
PUBLIC	sscanf
PUBLIC	fetch_hw_noswap
PUBLIC	store_hw_noswap
PUBLIC	store_fw_noswap
PUBLIC	fetch_f3_noswap
PUBLIC	hdl_check_depends_ep
PUBLIC	hdl_register_symbols_ep
PUBLIC	hdl_define_devtypes_ep
EXTRN	__report_rangecheckfailure:PROC
EXTRN	__imp__errno:PROC
EXTRN	strcmp:PROC
EXTRN	__imp__stricmp:PROC
EXTRN	strlen:PROC
EXTRN	__imp_strdup:PROC
EXTRN	__imp_IsDebuggerPresent:PROC
EXTRN	__imp_OutputDebugStringA:PROC
EXTRN	__imp_calloc:PROC
EXTRN	__imp_free:PROC
EXTRN	__imp_malloc:PROC
EXTRN	__imp_exit:PROC
EXTRN	_byteswap_ushort:PROC
EXTRN	_byteswap_ulong:PROC
EXTRN	__imp_atoi:PROC
EXTRN	__imp_ntohl:PROC
EXTRN	__imp_WSAGetLastError:PROC
EXTRN	__imp_close:PROC
EXTRN	__imp___acrt_iob_func:PROC
EXTRN	__imp_ferror:PROC
EXTRN	__imp_fgetc:PROC
EXTRN	__imp_fopen:PROC
EXTRN	__imp___stdio_common_vsnprintf_s:PROC
EXTRN	__imp___stdio_common_vsscanf:PROC
EXTRN	__imp__time64:PROC
EXTRN	__imp_getpid:PROC
EXTRN	__imp_hthread_initialize_lock:PROC
EXTRN	__imp_hthread_obtain_lock:PROC
EXTRN	__imp_hthread_release_lock:PROC
EXTRN	__imp_hthread_initialize_condition:PROC
EXTRN	__imp_hthread_signal_condition:PROC
EXTRN	__imp_hthread_timed_wait_condition:PROC
EXTRN	__imp_hthread_create_thread:PROC
EXTRN	__imp_hthread_join_thread:PROC
EXTRN	__imp_hthread_detach_thread:PROC
EXTRN	__imp_ptt_pthread_trace:PROC
EXTRN	__imp_resolve_symbol_string:PROC
EXTRN	__imp_set_symbol:PROC
EXTRN	__imp_strlcpy:PROC
EXTRN	__imp_strlcat:PROC
EXTRN	__imp_timed_wait_condition_relative_usecs_impl:PROC
EXTRN	__imp_rtrim:PROC
EXTRN	__imp_w32_strerror:PROC
EXTRN	__imp_strtok_r:PROC
EXTRN	__imp_gettimeofday:PROC
EXTRN	__imp_usleep:PROC
EXTRN	__imp_inet_aton:PROC
EXTRN	__imp_hostpath:PROC
EXTRN	__imp_w32_socket:PROC
EXTRN	__imp_w32_snprintf:PROC
EXTRN	__imp_w32_fclose:PROC
EXTRN	__imp_w32_basename:PROC
EXTRN	tt32_write:PROC
EXTRN	tt32_beg_write_multi:PROC
EXTRN	tt32_end_write_multi:PROC
EXTRN	tt32_close:PROC
EXTRN	tt32_ioctl:PROC
EXTRN	display_tt32_stats:PROC
EXTRN	enable_tt32_debug_tracing:PROC
EXTRN	__imp_init_sysblk_netdev:PROC
EXTRN	__imp_group_device:PROC
EXTRN	__imp_getopt_long:PROC
EXTRN	__imp_device_attention:PROC
EXTRN	__imp_fwritemsg:PROC
EXTRN	__imp_logmsg:PROC
EXTRN	MACTabAdd:PROC
EXTRN	MACTabRem:PROC
EXTRN	IsMACTab:PROC
EXTRN	EtherIpv4CkSumOffload:PROC
EXTRN	read_tuntap:PROC
EXTRN	TUNTAP_CreateInterface:PROC
EXTRN	TUNTAP_SetIPAddr:PROC
EXTRN	TUNTAP_SetMTU:PROC
EXTRN	TUNTAP_SetMACAddr:PROC
EXTRN	TUNTAP_SetFlags:PROC
EXTRN	ParseMAC:PROC
EXTRN	FormatMAC:PROC
EXTRN	net_data_trace:PROC
EXTRN	__GSHandlerCheck:PROC
EXTRN	__chkstk:PROC
EXTRN	__security_check_cookie:PROC
EXTRN	memcmp:PROC
EXTRN	__imp_pttclass:QWORD
EXTRN	ctci_device_hndinfo:BYTE
EXTRN	ctct_device_hndinfo:BYTE
EXTRN	ctce_device_hndinfo:BYTE
EXTRN	__imp_sysblk:BYTE
EXTRN	__imp_optind:DWORD
EXTRN	__imp_optarg:QWORD
EXTRN	__ImageBase:BYTE
EXTRN	__security_cookie:QWORD
_DATA	SEGMENT
COMM	?_OptionsStorage@?1??__local_stdio_printf_options@@9@9:QWORD							; `__local_stdio_printf_options'::`2'::_OptionsStorage
COMM	?_OptionsStorage@?1??__local_stdio_scanf_options@@9@9:QWORD							; `__local_stdio_scanf_options'::`2'::_OptionsStorage
_DATA	ENDS
_BSS	SEGMENT
TokenLock DQ	01H DUP (?)
TokenLockInitialized DD 01H DUP (?)
$SG170274 DB	01H DUP (?)
	ALIGN	4

$SG170290 DB	01H DUP (?)
_BSS	ENDS
;	COMDAT pdata
pdata	SEGMENT
$pdata$_vsnprintf_s_l DD imagerel $LN5
	DD	imagerel $LN5+127
	DD	imagerel $unwind$_vsnprintf_s_l
pdata	ENDS
;	COMDAT pdata
pdata	SEGMENT
$pdata$_vsnprintf_s DD imagerel $LN3
	DD	imagerel $LN3+73
	DD	imagerel $unwind$_vsnprintf_s
pdata	ENDS
;	COMDAT pdata
pdata	SEGMENT
$pdata$_vsscanf_l DD imagerel $LN3
	DD	imagerel $LN3+80
	DD	imagerel $unwind$_vsscanf_l
pdata	ENDS
;	COMDAT pdata
pdata	SEGMENT
$pdata$sscanf DD imagerel $LN3
	DD	imagerel $LN3+79
	DD	imagerel $unwind$sscanf
pdata	ENDS
pdata	SEGMENT
$pdata$time DD	imagerel time
	DD	imagerel time+25
	DD	imagerel $unwind$time
$pdata$DebuggerTrace DD imagerel DebuggerTrace
	DD	imagerel DebuggerTrace+247
	DD	imagerel $unwind$DebuggerTrace
pdata	ENDS
;	COMDAT pdata
pdata	SEGMENT
$pdata$fetch_hw_noswap DD imagerel $LN3
	DD	imagerel $LN3+30
	DD	imagerel $unwind$fetch_hw_noswap
pdata	ENDS
;	COMDAT pdata
pdata	SEGMENT
$pdata$fetch_f3_noswap DD imagerel $LN3
	DD	imagerel $LN3+49
	DD	imagerel $unwind$fetch_f3_noswap
pdata	ENDS
pdata	SEGMENT
$pdata$LCS_Init DD imagerel $LN68
	DD	imagerel $LN68+5381
	DD	imagerel $unwind$LCS_Init
$pdata$LCS_Close DD imagerel $LN116
	DD	imagerel $LN116+3456
	DD	imagerel $unwind$LCS_Close
$pdata$LCS_Query DD imagerel $LN16
	DD	imagerel $LN16+666
	DD	imagerel $unwind$LCS_Query
$pdata$LCS_ExecuteCCW DD imagerel $LN78
	DD	imagerel $LN78+2336
	DD	imagerel $unwind$LCS_ExecuteCCW
$pdata$SetSIDInfo DD imagerel SetSIDInfo
	DD	imagerel SetSIDInfo+269
	DD	imagerel $unwind$SetSIDInfo
$pdata$LCS_Read DD imagerel LCS_Read
	DD	imagerel LCS_Read+2671
	DD	imagerel $unwind$LCS_Read
$pdata$LCS_Write DD imagerel LCS_Write
	DD	imagerel LCS_Write+7473
	DD	imagerel $unwind$LCS_Write
$pdata$LCS_Assist DD imagerel LCS_Assist
	DD	imagerel LCS_Assist+849
	DD	imagerel $unwind$LCS_Assist
$pdata$LCS_Startup DD imagerel LCS_Startup
	DD	imagerel LCS_Startup+912
	DD	imagerel $unwind$LCS_Startup
$pdata$LCS_Shutdown DD imagerel LCS_Shutdown
	DD	imagerel LCS_Shutdown+307
	DD	imagerel $unwind$LCS_Shutdown
$pdata$LCS_StartLan DD imagerel LCS_StartLan
	DD	imagerel LCS_StartLan+1176
	DD	imagerel $unwind$LCS_StartLan
$pdata$LCS_StopLan DD imagerel LCS_StopLan
	DD	imagerel LCS_StopLan+865
	DD	imagerel $unwind$LCS_StopLan
$pdata$LCS_QueryIPAssists DD imagerel LCS_QueryIPAssists
	DD	imagerel LCS_QueryIPAssists+414
	DD	imagerel $unwind$LCS_QueryIPAssists
$pdata$LCS_LanStats DD imagerel LCS_LanStats
	DD	imagerel LCS_LanStats+349
	DD	imagerel $unwind$LCS_LanStats
$pdata$LCS_AddMulticast DD imagerel LCS_AddMulticast
	DD	imagerel LCS_AddMulticast+49
	DD	imagerel $unwind$LCS_AddMulticast
$pdata$LCS_DelMulticast DD imagerel LCS_DelMulticast
	DD	imagerel LCS_DelMulticast+49
	DD	imagerel $unwind$LCS_DelMulticast
$pdata$LCS_DefaultCmdProc DD imagerel LCS_DefaultCmdProc
	DD	imagerel LCS_DefaultCmdProc+282
	DD	imagerel $unwind$LCS_DefaultCmdProc
$pdata$LCS_PortThread DD imagerel LCS_PortThread
	DD	imagerel LCS_PortThread+6768
	DD	imagerel $unwind$LCS_PortThread
$pdata$LCS_AttnThread DD imagerel LCS_AttnThread
	DD	imagerel LCS_AttnThread+2331
	DD	imagerel $unwind$LCS_AttnThread
$pdata$LCS_EnqueueEthFrame DD imagerel LCS_EnqueueEthFrame
	DD	imagerel LCS_EnqueueEthFrame+1272
	DD	imagerel $unwind$LCS_EnqueueEthFrame
$pdata$LCS_DoEnqueueEthFrame DD imagerel LCS_DoEnqueueEthFrame
	DD	imagerel LCS_DoEnqueueEthFrame+1589
	DD	imagerel $unwind$LCS_DoEnqueueEthFrame
$pdata$LCS_EnqueueReplyFrame DD imagerel LCS_EnqueueReplyFrame
	DD	imagerel LCS_EnqueueReplyFrame+1322
	DD	imagerel $unwind$LCS_EnqueueReplyFrame
$pdata$LCS_DoEnqueueReplyFrame DD imagerel LCS_DoEnqueueReplyFrame
	DD	imagerel LCS_DoEnqueueReplyFrame+1393
	DD	imagerel $unwind$LCS_DoEnqueueReplyFrame
$pdata$GetFrameInfo DD imagerel GetFrameInfo
	DD	imagerel GetFrameInfo+990
	DD	imagerel $unwind$GetFrameInfo
$pdata$GetIfMACAddress DD imagerel GetIfMACAddress
	DD	imagerel GetIfMACAddress+1290
	DD	imagerel $unwind$GetIfMACAddress
$pdata$BuildOAT DD imagerel BuildOAT
	DD	imagerel BuildOAT+4547
	DD	imagerel $unwind$BuildOAT
$pdata$ReadOAT DD imagerel ReadOAT
	DD	imagerel ReadOAT+611
	DD	imagerel $unwind$ReadOAT
$pdata$ParseArgs DD imagerel ParseArgs
	DD	imagerel ParseArgs+3496
	DD	imagerel $unwind$ParseArgs
$pdata$LCS_Read_SNA DD imagerel LCS_Read_SNA
	DD	imagerel LCS_Read_SNA+2073
	DD	imagerel $unwind$LCS_Read_SNA
$pdata$LCS_Write_SNA DD imagerel LCS_Write_SNA
	DD	imagerel LCS_Write_SNA+7416
	DD	imagerel $unwind$LCS_Write_SNA
$pdata$LCS_StartLan_SNA DD imagerel LCS_StartLan_SNA
	DD	imagerel LCS_StartLan_SNA+1278
	DD	imagerel $unwind$LCS_StartLan_SNA
$pdata$LCS_StopLan_SNA DD imagerel LCS_StopLan_SNA
	DD	imagerel LCS_StopLan_SNA+1363
	DD	imagerel $unwind$LCS_StopLan_SNA
$pdata$LCS_LanStats_SNA DD imagerel LCS_LanStats_SNA
	DD	imagerel LCS_LanStats_SNA+413
	DD	imagerel $unwind$LCS_LanStats_SNA
$pdata$LCS_UnsuppCmd_SNA DD imagerel LCS_UnsuppCmd_SNA
	DD	imagerel LCS_UnsuppCmd_SNA+324
	DD	imagerel $unwind$LCS_UnsuppCmd_SNA
$pdata$LCS_ProcessAccepted_SNA DD imagerel LCS_ProcessAccepted_SNA
	DD	imagerel LCS_ProcessAccepted_SNA+11550
	DD	imagerel $unwind$LCS_ProcessAccepted_SNA
$pdata$ExtractLLC DD imagerel ExtractLLC
	DD	imagerel ExtractLLC+1151
	DD	imagerel $unwind$ExtractLLC
$pdata$BuildLLC DD imagerel BuildLLC
	DD	imagerel BuildLLC+1039
	DD	imagerel $unwind$BuildLLC
$pdata$Process_0D10 DD imagerel Process_0D10
	DD	imagerel Process_0D10+1805
	DD	imagerel $unwind$Process_0D10
$pdata$Process_0D00 DD imagerel Process_0D00
	DD	imagerel Process_0D00+1237
	DD	imagerel $unwind$Process_0D00
$pdata$Process_8C0B DD imagerel Process_8C0B
	DD	imagerel Process_8C0B+1247
	DD	imagerel $unwind$Process_8C0B
$pdata$Process_0C0A DD imagerel Process_0C0A
	DD	imagerel Process_0C0A+1761
	DD	imagerel $unwind$Process_0C0A
$pdata$Process_0C25 DD imagerel Process_0C25
	DD	imagerel Process_0C25+1200
	DD	imagerel $unwind$Process_0C25
$pdata$Process_0C22 DD imagerel Process_0C22
	DD	imagerel Process_0C22+1643
	DD	imagerel $unwind$Process_0C22
$pdata$Process_8D00 DD imagerel Process_8D00
	DD	imagerel Process_8D00+1230
	DD	imagerel $unwind$Process_8D00
$pdata$Process_0C0B DD imagerel Process_0C0B
	DD	imagerel Process_0C0B+493
	DD	imagerel $unwind$Process_0C0B
$pdata$Process_0C99 DD imagerel Process_0C99
	DD	imagerel Process_0C99+318
	DD	imagerel $unwind$Process_0C99
$pdata$Process_0C0D DD imagerel Process_0C0D
	DD	imagerel Process_0C0D+226
	DD	imagerel $unwind$Process_0C0D
$pdata$Process_0C0E DD imagerel Process_0C0E
	DD	imagerel Process_0C0E+226
	DD	imagerel $unwind$Process_0C0E
$pdata$Process_0C98 DD imagerel Process_0C98
	DD	imagerel Process_0C98+226
	DD	imagerel $unwind$Process_0C98
$pdata$alloc_lcs_buffer DD imagerel alloc_lcs_buffer
	DD	imagerel alloc_lcs_buffer+366
	DD	imagerel $unwind$alloc_lcs_buffer
$pdata$add_lcs_buffer_to_chain DD imagerel add_lcs_buffer_to_chain
	DD	imagerel add_lcs_buffer_to_chain+167
	DD	imagerel $unwind$add_lcs_buffer_to_chain
$pdata$remove_lcs_buffer_from_chain DD imagerel remove_lcs_buffer_from_chain
	DD	imagerel remove_lcs_buffer_from_chain+145
	DD	imagerel $unwind$remove_lcs_buffer_from_chain
$pdata$remove_and_free_any_lcs_buffers_on_chain DD imagerel remove_and_free_any_lcs_buffers_on_chain
	DD	imagerel remove_and_free_any_lcs_buffers_on_chain+159
	DD	imagerel $unwind$remove_and_free_any_lcs_buffers_on_chain
$pdata$free_lcs_buffer DD imagerel free_lcs_buffer
	DD	imagerel free_lcs_buffer+36
	DD	imagerel $unwind$free_lcs_buffer
$pdata$alloc_connection DD imagerel alloc_connection
	DD	imagerel alloc_connection+322
	DD	imagerel $unwind$alloc_connection
$pdata$add_connection_to_chain DD imagerel add_connection_to_chain
	DD	imagerel add_connection_to_chain+132
	DD	imagerel $unwind$add_connection_to_chain
$pdata$find_connection_by_remote_mac DD imagerel find_connection_by_remote_mac
	DD	imagerel find_connection_by_remote_mac+100
	DD	imagerel $unwind$find_connection_by_remote_mac
$pdata$find_connection_by_outbound_token DD imagerel find_connection_by_outbound_token
	DD	imagerel find_connection_by_outbound_token+100
	DD	imagerel $unwind$find_connection_by_outbound_token
$pdata$find_connection_by_inbound_token DD imagerel find_connection_by_inbound_token
	DD	imagerel find_connection_by_inbound_token+100
	DD	imagerel $unwind$find_connection_by_inbound_token
$pdata$remove_connection_from_chain DD imagerel remove_connection_from_chain
	DD	imagerel remove_connection_from_chain+221
	DD	imagerel $unwind$remove_connection_from_chain
$pdata$remove_and_free_any_connections_on_chain DD imagerel remove_and_free_any_connections_on_chain
	DD	imagerel remove_and_free_any_connections_on_chain+146
	DD	imagerel $unwind$remove_and_free_any_connections_on_chain
$pdata$free_connection DD imagerel free_connection
	DD	imagerel free_connection+55
	DD	imagerel $unwind$free_connection
$pdata$find_group_device DD imagerel find_group_device
	DD	imagerel find_group_device+96
	DD	imagerel $unwind$find_group_device
$pdata$LCS_StartChannelProgram DD imagerel $LN5
	DD	imagerel $LN5+77
	DD	imagerel $unwind$LCS_StartChannelProgram
$pdata$LCS_EndChannelProgram DD imagerel $LN39
	DD	imagerel $LN39+1077
	DD	imagerel $unwind$LCS_EndChannelProgram
$pdata$LCS_BegMWrite DD imagerel LCS_BegMWrite
	DD	imagerel LCS_BegMWrite+231
	DD	imagerel $unwind$LCS_BegMWrite
$pdata$LCS_EndMWrite DD imagerel LCS_EndMWrite
	DD	imagerel LCS_EndMWrite+247
	DD	imagerel $unwind$LCS_EndMWrite
$pdata$UpdatePortStarted DD imagerel UpdatePortStarted
	DD	imagerel UpdatePortStarted+1292
	DD	imagerel $unwind$UpdatePortStarted
$pdata$LCS_DoMulticast DD imagerel LCS_DoMulticast
	DD	imagerel LCS_DoMulticast+2447
	DD	imagerel $unwind$LCS_DoMulticast
$pdata$lcs_halt_or_clear DD imagerel lcs_halt_or_clear
	DD	imagerel lcs_halt_or_clear+143
	DD	imagerel $unwind$lcs_halt_or_clear
$pdata$hdl_check_depends_ep DD imagerel $LN11
	DD	imagerel $LN11+110
	DD	imagerel $unwind$hdl_check_depends_ep
$pdata$hdl_register_symbols_ep DD imagerel $LN3
	DD	imagerel $LN3+50
	DD	imagerel $unwind$hdl_register_symbols_ep
$pdata$hdl_define_devtypes_ep DD imagerel $LN3
	DD	imagerel $LN3+86
	DD	imagerel $unwind$hdl_define_devtypes_ep
pdata	ENDS
_DATA	SEGMENT
uToken	DD	040000240H
$SG169533 DB	'E', 00H
	ORG $+2
$SG169532 DB	'malloc(%d)', 00H
	ORG $+1
$SG169558 DB	'E', 00H
	ORG $+2
$SG169534 DB	'HHC00900%s %1d:%04X %s: Error in function %s: %s', 0aH, 00H
	ORG $+2
$SG169564 DB	'E', 00H
	ORG $+2
$SG169535 DB	'LCS_Init', 00H
	ORG $+3
$SG169582 DB	'E', 00H
	ORG $+2
$SG169536 DB	'ctc_lcs.c', 00H
	ORG $+2
$SG169586 DB	'TAP', 00H
$SG169537 DB	'ctc_lcs.c:267', 00H
	ORG $+2
$SG169538 DB	'&pLCSBLK->AttnLock', 00H
	ORG $+1
$SG169587 DB	'I', 00H
	ORG $+2
$SG169539 DB	'ctc_lcs.c:268', 00H
	ORG $+2
$SG169540 DB	'&pLCSBLK->AttnEventLock', 00H
$SG169541 DB	'ctc_lcs.c:269', 00H
	ORG $+2
$SG169542 DB	'ctc_lcs.c:280', 00H
	ORG $+2
$SG169543 DB	'&pLCSPORT->PortDataLock', 00H
$SG169544 DB	'ctc_lcs.c:281', 00H
	ORG $+2
$SG169545 DB	'&pLCSPORT->PortEventLock', 00H
	ORG $+3
$SG169624 DB	'W', 00H
	ORG $+2
$SG169546 DB	'ctc_lcs.c:282', 00H
	ORG $+2
$SG169559 DB	'HHC00920%s %1d:%04X CTC: lcs device %04X not in configur'
	DB	'ation', 0aH, 00H
	ORG $+1
$SG169560 DB	'LCS_Init', 00H
	ORG $+3
$SG169630 DB	'W', 00H
	ORG $+2
$SG169561 DB	'ctc_lcs.c', 00H
	ORG $+2
$SG169637 DB	'E', 00H
	ORG $+2
$SG169565 DB	'HHC00920%s %1d:%04X CTC: lcs device %04X not in configur'
	DB	'ation', 0aH, 00H
	ORG $+1
$SG169566 DB	'LCS_Init', 00H
	ORG $+3
$SG169647 DB	'E', 00H
	ORG $+2
$SG169567 DB	'ctc_lcs.c', 00H
	ORG $+2
$SG169664 DB	'manual', 00H
	ORG $+1
$SG169666 DB	'I', 00H
	ORG $+2
$SG169568 DB	'ctc_lcs.c:424', 00H
	ORG $+2
$SG169569 DB	'&pLCSDev->DevDataLock', 00H
	ORG $+2
$SG169570 DB	'ctc_lcs.c:425', 00H
	ORG $+2
$SG169571 DB	'&pLCSDev->DevEventLock', 00H
	ORG $+1
$SG169572 DB	'ctc_lcs.c:426', 00H
	ORG $+2
$SG169573 DB	'ctc_lcs.c:427', 00H
	ORG $+2
$SG169574 DB	'&pLCSDev->LCSIBHChainLock', 00H
	ORG $+2
$SG169665 DB	'tuntap', 00H
	ORG $+1
$SG169672 DB	'I', 00H
	ORG $+2
$SG169575 DB	'ctc_lcs.c:428', 00H
	ORG $+2
$SG169576 DB	'&pLCSDev->LCSCONNChainLock', 00H
	ORG $+1
$SG170180 DB	'I', 00H
	ORG $+2
$SG169577 DB	'ctc_lcs.c:429', 00H
	ORG $+2
$SG169578 DB	'&pLCSDev->InOutLock', 00H
$SG170286 DB	'.', 00H
	ORG $+2
$SG169581 DB	'TUNTAP_CreateInterface', 00H
	ORG $+1
$SG169583 DB	'HHC00900%s %1d:%04X %s: Error in function %s: %s', 0aH, 00H
	ORG $+2
$SG169670 DB	'manual', 00H
	ORG $+1
$SG170289 DB	' -d', 00H
$SG169584 DB	'LCS_Init', 00H
	ORG $+3
$SG169671 DB	'tuntap', 00H
	ORG $+1
$SG170291 DB	'IP', 00H
	ORG $+1
$SG169585 DB	'ctc_lcs.c', 00H
	ORG $+2
$SG170292 DB	'SNA', 00H
$SG169588 DB	'HHC00901%s %1d:%04X %s: Interface %s, type %s opened', 0aH
	DB	00H
	ORG $+2
$SG169589 DB	'LCS_Init', 00H
	ORG $+3
$SG170652 DB	'D', 00H
	ORG $+2
$SG169590 DB	'ctc_lcs.c', 00H
	ORG $+2
$SG170658 DB	'D', 00H
	ORG $+2
$SG169594 DB	'LCS_Init', 00H
	ORG $+3
$SG170683 DB	'D', 00H
	ORG $+2
$SG169595 DB	'ctc_lcs.c', 00H
	ORG $+2
$SG169603 DB	'1500', 00H
	ORG $+7
$SG169596 DB	'%s(%d) : warning HHC90999W : *** Assertion Failed! *** f'
	DB	'unction: %s', 0aH, 00H
	ORG $+3
$SG169598 DB	'LCS_Init', 00H
	ORG $+3
$SG170689 DB	'D', 00H
	ORG $+2
$SG169599 DB	'ctc_lcs.c', 00H
	ORG $+6
$SG169613 DB	'0.0.0.0', 00H
$SG169600 DB	'%s(%d) : warning HHC90999W : *** Assertion Failed! *** f'
	DB	'unction: %s', 0aH, 00H
	ORG $+3
$SG169604 DB	'LCS_Init', 00H
	ORG $+3
$SG170704 DB	'E', 00H
	ORG $+2
$SG169605 DB	'ctc_lcs.c', 00H
	ORG $+6
$SG169623 DB	'TT32SDEVBUFF', 00H
	ORG $+3
$SG169634 DB	'%s %4.4X Port %d Thread', 00H
$SG169606 DB	'%s(%d) : warning HHC90999W : *** Assertion Failed! *** f'
	DB	'unction: %s', 0aH, 00H
	ORG $+3
$SG169608 DB	'LCS_Init', 00H
	ORG $+3
$SG170719 DB	'D', 00H
	ORG $+2
$SG169609 DB	'ctc_lcs.c', 00H
	ORG $+6
$SG169625 DB	'HHC00902%s %1d:%04X %s: ioctl %s failed for device %s: %'
	DB	's', 0aH, 00H
	ORG $+5
$SG169629 DB	'TT32SIOBUFF', 00H
$SG170276 DB	' Pri', 00H
	ORG $+7
$SG169610 DB	'%s(%d) : warning HHC90999W : *** Assertion Failed! *** f'
	DB	'unction: %s', 0aH, 00H
	ORG $+3
$SG169614 DB	'LCS_Init', 00H
	ORG $+3
$SG170729 DB	'D', 00H
	ORG $+2
$SG169615 DB	'ctc_lcs.c', 00H
	ORG $+6
$SG169631 DB	'HHC00902%s %1d:%04X %s: ioctl %s failed for device %s: %'
	DB	's', 0aH, 00H
	ORG $+5
$SG169635 DB	'ctc_lcs.c:524', 00H
	ORG $+2
$SG169638 DB	'HHC00102%s Error in function create_thread(): %s', 0aH, 00H
	ORG $+6
$SG169616 DB	'%s(%d) : warning HHC90999W : *** Assertion Failed! *** f'
	DB	'unction: %s', 0aH, 00H
	ORG $+3
$SG169618 DB	'LCS_Init', 00H
	ORG $+3
$SG170739 DB	'D', 00H
	ORG $+2
$SG169619 DB	'ctc_lcs.c', 00H
	ORG $+6
$SG169644 DB	'%s %4.4X AttnThread', 00H
	ORG $+4
$SG169620 DB	'%s(%d) : warning HHC90999W : *** Assertion Failed! *** f'
	DB	'unction: %s', 0aH, 00H
	ORG $+3
$SG169626 DB	'LCS_Init', 00H
	ORG $+3
$SG170749 DB	'D', 00H
	ORG $+2
$SG169627 DB	'ctc_lcs.c', 00H
	ORG $+2
$SG170759 DB	'D', 00H
	ORG $+2
$SG169632 DB	'LCS_Init', 00H
	ORG $+3
$SG170769 DB	'D', 00H
	ORG $+2
$SG169633 DB	'ctc_lcs.c', 00H
	ORG $+2
$SG170779 DB	'D', 00H
	ORG $+2
$SG169639 DB	'LCS_Init', 00H
	ORG $+3
$SG170789 DB	'D', 00H
	ORG $+2
$SG169640 DB	'ctc_lcs.c', 00H
	ORG $+2
$SG170799 DB	'D', 00H
	ORG $+2
$SG169645 DB	'ctc_lcs.c:558', 00H
	ORG $+2
$SG169648 DB	'HHC00102%s Error in function create_thread(): %s', 0aH, 00H
	ORG $+2
$SG170809 DB	'D', 00H
	ORG $+2
$SG169649 DB	'LCS_Init', 00H
	ORG $+3
$SG170819 DB	'D', 00H
	ORG $+2
$SG169650 DB	'ctc_lcs.c', 00H
	ORG $+2
$SG170827 DB	'E', 00H
	ORG $+2
$SG169652 DB	'ctc_lcs.c:569', 00H
	ORG $+2
$SG169653 DB	'&TokenLock', 00H
	ORG $+5
$SG169667 DB	'HHC00921%s CTC: lcs device port %2.2X: %s Multicast assi'
	DB	'st enabled', 0aH, 00H
$SG170876 DB	'LCS', 00H
$SG169668 DB	'LCS_Assist', 00H
	ORG $+1
$SG170877 DB	'W', 00H
	ORG $+2
$SG169669 DB	'ctc_lcs.c', 00H
	ORG $+6
$SG169674 DB	'LCS_Assist', 00H
	ORG $+5
$SG169779 DB	'ctc_lcs.c:846', 00H
	ORG $+2
$SG169780 DB	'GET  DevDataLock  ', 00H
	ORG $+5
$SG169673 DB	'HHC00935%s CTC: lcs device port %2.2X: %s Checksum Offlo'
	DB	'ad enabled', 0aH, 00H
$SG170882 DB	'LCS', 00H
$SG169675 DB	'ctc_lcs.c', 00H
	ORG $+2
$SG170883 DB	'W', 00H
	ORG $+2
$SG169781 DB	'ctc_lcs.c:847', 00H
	ORG $+2
$SG169783 DB	'ctc_lcs.c:848', 00H
	ORG $+2
$SG169784 DB	'GOT  DevDataLock  ', 00H
	ORG $+1
$SG171009 DB	'I', 00H
	ORG $+2
$SG169786 DB	'ctc_lcs.c:853', 00H
	ORG $+2
$SG169787 DB	'REL  DevDataLock  ', 00H
	ORG $+1
$SG171325 DB	'???', 00H
$SG169788 DB	'ctc_lcs.c:854', 00H
	ORG $+2
$SG169891 DB	'ctc_lcs.c:1000', 00H
	ORG $+1
$SG169892 DB	'GET  AttnLock', 00H
	ORG $+2
$SG169893 DB	'ctc_lcs.c:1001', 00H
	ORG $+1
$SG169895 DB	'ctc_lcs.c:1002', 00H
	ORG $+1
$SG169896 DB	'GOT  AttnLock', 00H
	ORG $+2
$SG169898 DB	'ctc_lcs.c:1004', 00H
	ORG $+1
$SG169899 DB	'ADD  Attn', 00H
	ORG $+2
$SG171340 DB	'D', 00H
	ORG $+2
$SG169901 DB	'ctc_lcs.c:1008', 00H
	ORG $+1
$SG169902 DB	'REL  AttnLock', 00H
	ORG $+2
$SG169903 DB	'ctc_lcs.c:1009', 00H
	ORG $+1
$SG169905 DB	'ctc_lcs.c:1012', 00H
	ORG $+1
$SG169906 DB	'GET  AttnEventLock ', 00H
$SG171356 DB	'D', 00H
	ORG $+2
$SG169907 DB	'ctc_lcs.c:1013', 00H
	ORG $+1
$SG169909 DB	'ctc_lcs.c:1014', 00H
	ORG $+1
$SG169910 DB	'GOT  AttnEventLock ', 00H
$SG171361 DB	'E', 00H
	ORG $+2
$SG169912 DB	'ctc_lcs.c:1016', 00H
	ORG $+1
$SG169913 DB	'SIG  AttnEvent', 00H
	ORG $+1
$SG169914 DB	'ctc_lcs.c:1017', 00H
	ORG $+1
$SG169916 DB	'ctc_lcs.c:1019', 00H
	ORG $+1
$SG169917 DB	'REL  AttnEventLock ', 00H
$SG171367 DB	'???', 00H
$SG169918 DB	'ctc_lcs.c:1020', 00H
	ORG $+1
$SG170160 DB	'ctc_lcs.c:1048', 00H
	ORG $+1
$SG170161 DB	'CLOSE: ENTRY      ', 00H
	ORG $+1
$SG171380 DB	'D', 00H
	ORG $+2
$SG170165 DB	'ctc_lcs.c:1053', 00H
	ORG $+1
$SG170166 DB	'CLOSE: is last    ', 00H
	ORG $+1
$SG171385 DB	'E', 00H
	ORG $+2
$SG170169 DB	'ctc_lcs.c:1078', 00H
	ORG $+1
$SG170170 DB	'CLOSE: closing... ', 00H
	ORG $+1
$SG171497 DB	'D', 00H
	ORG $+2
$SG170172 DB	'ctc_lcs.c:1079', 00H
	ORG $+1
$SG170173 DB	'GET  PortEventLock', 00H
	ORG $+1
$SG171511 DB	'D', 00H
	ORG $+2
$SG170174 DB	'ctc_lcs.c:1080', 00H
	ORG $+1
$SG170176 DB	'ctc_lcs.c:1081', 00H
	ORG $+1
$SG170177 DB	'GOT  PortEventLock', 00H
	ORG $+1
$SG171891 DB	'D', 00H
	ORG $+2
$SG170181 DB	'HHC00966%s %1d:%04X CTC: lcs triggering port %2.2X event'
	DB	0aH, 00H
	ORG $+2
$SG171895 DB	'D', 00H
	ORG $+2
$SG170182 DB	'LCS_Close', 00H
	ORG $+2
$SG171922 DB	'D', 00H
	ORG $+2
$SG170183 DB	'ctc_lcs.c', 00H
	ORG $+2
$SG171942 DB	'E', 00H
	ORG $+2
$SG170185 DB	'ctc_lcs.c:1087', 00H
	ORG $+1
$SG170186 DB	'CLOSING started=NO', 00H
	ORG $+1
$SG171947 DB	'D', 00H
	ORG $+2
$SG170188 DB	'ctc_lcs.c:1089', 00H
	ORG $+1
$SG170189 DB	'SET  closeInProg  ', 00H
	ORG $+1
$SG171953 DB	'D', 00H
	ORG $+2
$SG170191 DB	'ctc_lcs.c:1091', 00H
	ORG $+1
$SG170192 DB	'SIG  PortEvent    ', 00H
	ORG $+1
$SG171964 DB	'D', 00H
	ORG $+2
$SG170193 DB	'ctc_lcs.c:1092', 00H
	ORG $+1
$SG170195 DB	'ctc_lcs.c:1094', 00H
	ORG $+1
$SG170196 DB	'REL  PortEventLock', 00H
	ORG $+1
$SG171979 DB	'D', 00H
	ORG $+2
$SG170197 DB	'ctc_lcs.c:1095', 00H
	ORG $+1
$SG170199 DB	'ctc_lcs.c:1096', 00H
	ORG $+1
$SG170200 DB	'join_thread       ', 00H
	ORG $+1
$SG171993 DB	'D', 00H
	ORG $+2
$SG170201 DB	'ctc_lcs.c:1097', 00H
	ORG $+1
$SG170203 DB	'ctc_lcs.c:1098', 00H
	ORG $+1
$SG170204 DB	'detach_thread     ', 00H
	ORG $+1
$SG172004 DB	'D', 00H
	ORG $+2
$SG170205 DB	'ctc_lcs.c:1099', 00H
	ORG $+1
$SG170209 DB	'ctc_lcs.c:1107', 00H
	ORG $+1
$SG170210 DB	'CLOSE: closed     ', 00H
	ORG $+1
$SG172016 DB	'D', 00H
	ORG $+2
$SG170212 DB	'ctc_lcs.c:1110', 00H
	ORG $+1
$SG170213 DB	'CLOSE: not last   ', 00H
	ORG $+1
$SG172027 DB	'D', 00H
	ORG $+2
$SG170215 DB	'ctc_lcs.c:1112', 00H
	ORG $+1
$SG170216 DB	'CLOSE: cleaning up', 00H
	ORG $+1
$SG172037 DB	'D', 00H
	ORG $+2
$SG170228 DB	'ctc_lcs.c:1159', 00H
	ORG $+1
$SG170229 DB	'CLOSE: closing... ', 00H
	ORG $+1
$SG172154 DB	'W', 00H
	ORG $+2
$SG170231 DB	'ctc_lcs.c:1160', 00H
	ORG $+1
$SG170232 DB	'GET  AttnEventLock', 00H
	ORG $+1
$SG172164 DB	'D', 00H
	ORG $+2
$SG170233 DB	'ctc_lcs.c:1161', 00H
	ORG $+1
$SG170235 DB	'ctc_lcs.c:1162', 00H
	ORG $+1
$SG170236 DB	'GOT  AttnEventLock', 00H
	ORG $+1
$SG172535 DB	'I', 00H
	ORG $+2
$SG170238 DB	'ctc_lcs.c:1164', 00H
	ORG $+1
$SG170239 DB	'SET  closeInProg  ', 00H
	ORG $+1
$SG172547 DB	'D', 00H
	ORG $+2
$SG170241 DB	'ctc_lcs.c:1166', 00H
	ORG $+1
$SG170242 DB	'SIG  AttnEvent', 00H
	ORG $+1
$SG170243 DB	'ctc_lcs.c:1167', 00H
	ORG $+1
$SG170245 DB	'ctc_lcs.c:1169', 00H
	ORG $+1
$SG170246 DB	'REL  AttnEventLock', 00H
	ORG $+1
$SG172553 DB	'D', 00H
	ORG $+2
$SG170247 DB	'ctc_lcs.c:1170', 00H
	ORG $+1
$SG170249 DB	'ctc_lcs.c:1171', 00H
	ORG $+1
$SG170250 DB	'join_thread       ', 00H
	ORG $+1
$SG172597 DB	'ARP', 00H
$SG170251 DB	'ctc_lcs.c:1172', 00H
	ORG $+1
$SG170253 DB	'ctc_lcs.c:1173', 00H
	ORG $+1
$SG170254 DB	'detach_thread     ', 00H
	ORG $+1
$SG172603 DB	'SNA', 00H
$SG170255 DB	'ctc_lcs.c:1174', 00H
	ORG $+1
$SG170257 DB	'ctc_lcs.c:1183', 00H
	ORG $+1
$SG170258 DB	'CLOSE: EXIT       ', 00H
	ORG $+1
$SG170278 DB	' Sec', 00H
	ORG $+3
$SG170280 DB	'CTCA', 00H
	ORG $+3
$SG171501 DB	'reply', 00H
	ORG $+2
$SG172605 DB	'802.3 ', 00H
	ORG $+1
$SG172617 DB	'ARP', 00H
$SG170288 DB	'*Uninitialized', 00H
	ORG $+1
$SG170293 DB	'LCS Port %2.2X %s%s (%s)%s IO[%llu]', 00H
$SG172623 DB	'SNA', 00H
$SG170319 DB	'ctc_lcs.c:1229', 00H
	ORG $+1
$SG170320 DB	'b4 begmw', 00H
	ORG $+3
$SG172608 DB	'SNAP ', 00H
	ORG $+2
$SG172628 DB	'SNA', 00H
$SG170322 DB	'ctc_lcs.c:1231', 00H
	ORG $+1
$SG170323 DB	'af begmw', 00H
	ORG $+3
$SG172645 DB	'E', 00H
	ORG $+2
$SG170353 DB	'ctc_lcs.c:1237', 00H
	ORG $+1
$SG170354 DB	'b4 endmw', 00H
	ORG $+3
$SG172651 DB	'E', 00H
	ORG $+2
$SG170356 DB	'ctc_lcs.c:1239', 00H
	ORG $+1
$SG170357 DB	'af endmw', 00H
	ORG $+7
$SG170653 DB	'HHC00981%s %1d:%04X %s: Accept data of size %d bytes fro'
	DB	'm guest', 0aH, 00H
	ORG $+3
$SG172655 DB	'I', 00H
	ORG $+2
$SG170654 DB	'LCS_Write', 00H
	ORG $+2
$SG172661 DB	'W', 00H
	ORG $+2
$SG170655 DB	'ctc_lcs.c', 00H
	ORG $+2
$SG170662 DB	'data', 00H
	ORG $+7
$SG170659 DB	'HHC00980%s %1d:%04X %s: Data of size %d bytes displayed,'
	DB	' data of size %d bytes not displayed', 0aH, 00H
	ORG $+2
$SG170660 DB	'LCS_Write', 00H
	ORG $+2
$SG172731 DB	'SNA', 00H
$SG170661 DB	'ctc_lcs.c', 00H
	ORG $+2
$SG172734 DB	'IP', 00H
	ORG $+1
$SG170664 DB	'ctc_lcs.c:1335', 00H
	ORG $+1
$SG170665 DB	'WRIT ENTRY        ', 00H
	ORG $+1
$SG172736 DB	'E', 00H
	ORG $+2
$SG170667 DB	'ctc_lcs.c:1336', 00H
	ORG $+1
$SG170668 DB	'beg write', 00H
	ORG $+2
$SG172743 DB	'E', 00H
	ORG $+2
$SG170672 DB	'ctc_lcs.c:1361', 00H
	ORG $+1
$SG170673 DB	'WRIT: Eth frame   ', 00H
	ORG $+1
$SG172751 DB	'E', 00H
	ORG $+2
$SG170677 DB	'ctc_lcs.c:1381', 00H
	ORG $+1
$SG170678 DB	'beg csumoff', 00H
$SG172760 DB	'E', 00H
	ORG $+2
$SG170680 DB	'ctc_lcs.c:1383', 00H
	ORG $+1
$SG170681 DB	'end csumoff', 00H
	ORG $+4
$SG170684 DB	'HHC00983%s %1d:%04X %s: port %2.2X: Send frame of size %'
	DB	'd bytes (with %s packet) to device %s', 0aH, 00H
	ORG $+1
$SG170685 DB	'LCS_Write', 00H
	ORG $+2
$SG172768 DB	'E', 00H
	ORG $+2
$SG170686 DB	'ctc_lcs.c', 00H
	ORG $+6
$SG170690 DB	'HHC00980%s %1d:%04X %s: Data of size %d bytes displayed,'
	DB	' data of size %d bytes not displayed', 0aH, 00H
	ORG $+2
$SG170691 DB	'LCS_Write', 00H
	ORG $+2
$SG172777 DB	'E', 00H
	ORG $+2
$SG170692 DB	'ctc_lcs.c', 00H
	ORG $+2
$SG172785 DB	'E', 00H
	ORG $+2
$SG170693 DB	'eth frame', 00H
	ORG $+2
$SG172793 DB	'E', 00H
	ORG $+2
$SG170695 DB	'ctc_lcs.c:1410', 00H
	ORG $+1
$SG170696 DB	'WRIT: writing...  ', 00H
	ORG $+1
$SG172802 DB	'E', 00H
	ORG $+2
$SG170698 DB	'ctc_lcs.c:1411', 00H
	ORG $+1
$SG170699 DB	'b4 write', 00H
	ORG $+3
$SG172808 DB	'E', 00H
	ORG $+2
$SG170702 DB	'ctc_lcs.c:1414', 00H
	ORG $+1
$SG170703 DB	'*WRITE ERR', 00H
	ORG $+1
$SG172881 DB	'r', 00H
	ORG $+2
$SG170705 DB	'HHC00936%s %1d:%04X CTC: error writing to file %s: %s', 0aH
	DB	00H
	ORG $+1
$SG170706 DB	'LCS_Write', 00H
	ORG $+2
$SG172884 DB	'E', 00H
	ORG $+2
$SG170707 DB	'ctc_lcs.c', 00H
	ORG $+2
$SG172890 DB	'$(CUU)', 00H
	ORG $+1
$SG172891 DB	'CUU', 00H
$SG170709 DB	'ctc_lcs.c:1422', 00H
	ORG $+1
$SG170710 DB	'WRIT EXIT         ', 00H
	ORG $+1
$SG172897 DB	' ', 09H, 00H
	ORG $+1
$SG170712 DB	'ctc_lcs.c:1425', 00H
	ORG $+1
$SG170713 DB	'af write', 00H
	ORG $+3
$SG172898 DB	' ', 09H, 00H
	ORG $+1
$SG170716 DB	'ctc_lcs.c:1432', 00H
	ORG $+1
$SG170717 DB	'WRIT: Cmd frame   ', 00H
	ORG $+1
$SG172899 DB	' ', 09H, 00H
	ORG $+1
$SG170720 DB	'HHC00922%s %1d:%04X CTC: lcs command packet received', 0aH
	DB	00H
	ORG $+2
$SG170721 DB	'LCS_Write', 00H
	ORG $+2
$SG172907 DB	'E', 00H
	ORG $+2
$SG170722 DB	'ctc_lcs.c', 00H
	ORG $+2
$SG172914 DB	'MAC', 00H
$SG170723 DB	'command', 00H
$SG170726 DB	'ctc_lcs.c:1466', 00H
	ORG $+1
$SG170727 DB	'CMD initiator LGW', 00H
	ORG $+6
$SG170730 DB	'HHC00977%s %1d:%04X CTC: lcs command packet ignored (bIn'
	DB	'itiator == LGW)', 0aH, 00H
	ORG $+3
$SG172902 DB	'HWADD', 00H
	ORG $+2
$SG172915 DB	'E', 00H
	ORG $+2
$SG170731 DB	'LCS_Write', 00H
	ORG $+2
$SG172926 DB	'E', 00H
	ORG $+2
$SG170732 DB	'ctc_lcs.c', 00H
	ORG $+2
$SG172933 DB	'E', 00H
	ORG $+2
$SG170735 DB	'ctc_lcs.c:1478', 00H
	ORG $+1
$SG170736 DB	'CMD=StartUp       ', 00H
	ORG $+1
$SG172940 DB	'E', 00H
	ORG $+2
$SG170738 DB	'startup', 00H
$SG170740 DB	'HHC00933%s %1d:%04X CTC: executing command %s', 0aH, 00H
	ORG $+1
$SG170741 DB	'LCS_Write', 00H
	ORG $+2
$SG172948 DB	'E', 00H
	ORG $+2
$SG170742 DB	'ctc_lcs.c', 00H
	ORG $+2
$SG172956 DB	'E', 00H
	ORG $+2
$SG170745 DB	'ctc_lcs.c:1485', 00H
	ORG $+1
$SG170746 DB	'CMD=Shutdown      ', 00H
	ORG $+1
$SG172962 DB	'IP', 00H
	ORG $+1
$SG170748 DB	'shutdown', 00H
	ORG $+3
$SG172905 DB	'%hi%c', 00H
	ORG $+2
$SG172964 DB	'E', 00H
	ORG $+2
$SG170750 DB	'HHC00933%s %1d:%04X CTC: executing command %s', 0aH, 00H
	ORG $+1
$SG170751 DB	'LCS_Write', 00H
	ORG $+2
$SG172971 DB	'E', 00H
	ORG $+2
$SG170752 DB	'ctc_lcs.c', 00H
	ORG $+2
$SG172978 DB	'PRI', 00H
$SG170755 DB	'ctc_lcs.c:1492', 00H
	ORG $+1
$SG170756 DB	'CMD=Start LAN     ', 00H
	ORG $+1
$SG172981 DB	'SEC', 00H
$SG170758 DB	'start lan', 00H
	ORG $+2
$SG172984 DB	'NO', 00H
	ORG $+1
$SG170760 DB	'HHC00933%s %1d:%04X CTC: executing command %s', 0aH, 00H
	ORG $+1
$SG170761 DB	'LCS_Write', 00H
	ORG $+2
$SG172985 DB	'E', 00H
	ORG $+2
$SG170762 DB	'ctc_lcs.c', 00H
	ORG $+2
$SG172992 DB	'E', 00H
	ORG $+2
$SG170765 DB	'ctc_lcs.c:1499', 00H
	ORG $+1
$SG170766 DB	'CMD=Stop LAN      ', 00H
	ORG $+1
$SG172998 DB	'SNA', 00H
$SG170768 DB	'stop lan', 00H
	ORG $+3
$SG172906 DB	'HWADD', 00H
	ORG $+2
$SG173000 DB	'E', 00H
	ORG $+2
$SG170770 DB	'HHC00933%s %1d:%04X CTC: executing command %s', 0aH, 00H
	ORG $+1
$SG170771 DB	'LCS_Write', 00H
	ORG $+2
$SG173007 DB	'E', 00H
	ORG $+2
$SG170772 DB	'ctc_lcs.c', 00H
	ORG $+2
$SG173012 DB	'E', 00H
	ORG $+2
$SG170775 DB	'ctc_lcs.c:1506', 00H
	ORG $+1
$SG170776 DB	'CMD=Query IPAssist', 00H
	ORG $+1
$SG173016 DB	'E', 00H
	ORG $+2
$SG170778 DB	'query IP assist', 00H
$SG170780 DB	'HHC00933%s %1d:%04X CTC: executing command %s', 0aH, 00H
	ORG $+1
$SG170781 DB	'LCS_Write', 00H
	ORG $+2
$SG173043 DB	'E', 00H
	ORG $+2
$SG170782 DB	'ctc_lcs.c', 00H
	ORG $+2
$SG173056 DB	'E', 00H
	ORG $+2
$SG170785 DB	'ctc_lcs.c:1513', 00H
	ORG $+1
$SG170786 DB	'CMD=LAN Statistics', 00H
	ORG $+1
$SG173312 DB	'D', 00H
	ORG $+2
$SG170788 DB	'lan statistics', 00H
	ORG $+1
$SG170790 DB	'HHC00933%s %1d:%04X CTC: executing command %s', 0aH, 00H
	ORG $+1
$SG170791 DB	'LCS_Write', 00H
	ORG $+2
$SG173060 DB	' ', 09H, 0aH, 0bH, 0cH, 0dH, 00H
	ORG $+1
$SG173644 DB	'D', 00H
	ORG $+2
$SG170792 DB	'ctc_lcs.c', 00H
	ORG $+2
$SG173650 DB	'D', 00H
	ORG $+2
$SG170795 DB	'ctc_lcs.c:1520', 00H
	ORG $+1
$SG170796 DB	'CMD=Set IP Multicast', 00H
	ORG $+3
$SG170798 DB	'set multicast', 00H
	ORG $+2
$SG170800 DB	'HHC00933%s %1d:%04X CTC: executing command %s', 0aH, 00H
	ORG $+1
$SG170801 DB	'LCS_Write', 00H
	ORG $+2
$SG173698 DB	'W', 00H
	ORG $+2
$SG170802 DB	'ctc_lcs.c', 00H
	ORG $+2
$SG173712 DB	'D', 00H
	ORG $+2
$SG170805 DB	'ctc_lcs.c:1527', 00H
	ORG $+1
$SG170806 DB	'CMD=Delete IP Multicast', 00H
$SG170808 DB	'delete multicast', 00H
	ORG $+3
$SG172913 DB	'HWADD', 00H
	ORG $+2
$SG173722 DB	'D', 00H
	ORG $+2
$SG170810 DB	'HHC00933%s %1d:%04X CTC: executing command %s', 0aH, 00H
	ORG $+1
$SG170811 DB	'LCS_Write', 00H
	ORG $+2
$SG173730 DB	'E', 00H
	ORG $+2
$SG170812 DB	'ctc_lcs.c', 00H
	ORG $+2
$SG173775 DB	'D', 00H
	ORG $+2
$SG170815 DB	'ctc_lcs.c:1538', 00H
	ORG $+1
$SG170816 DB	'*CMD=Unsupported! ', 00H
	ORG $+1
$SG173785 DB	'D', 00H
	ORG $+2
$SG170818 DB	'other (0x%2.2X)', 00H
$SG170820 DB	'HHC00933%s %1d:%04X CTC: executing command %s', 0aH, 00H
	ORG $+1
$SG170821 DB	'LCS_Write', 00H
	ORG $+2
$SG173795 DB	'D', 00H
	ORG $+2
$SG170822 DB	'ctc_lcs.c', 00H
	ORG $+2
$SG173803 DB	'E', 00H
	ORG $+2
$SG170825 DB	'ctc_lcs.c:1553', 00H
	ORG $+1
$SG170826 DB	'*WRIT Unsupp frame', 00H
	ORG $+5
$SG170841 DB	'ctc_lcs.c:1560', 00H
	ORG $+1
$SG170845 DB	'WRIT EXIT         ', 00H
	ORG $+5
$SG170828 DB	'HHC00937%s %1d:%04X CTC: lcs write: unsupported frame ty'
	DB	'pe 0x%2.2X', 0aH, 00H
$SG173824 DB	'E', 00H
	ORG $+2
$SG170829 DB	'LCS_Write', 00H
	ORG $+2
$SG173881 DB	'W', 00H
	ORG $+2
$SG170830 DB	'ctc_lcs.c', 00H
	ORG $+2
$SG173889 DB	'W', 00H
	ORG $+2
$SG170832 DB	'LCS_Write', 00H
	ORG $+2
$SG173896 DB	'D', 00H
	ORG $+2
$SG170833 DB	'ctc_lcs.c', 00H
	ORG $+6
$SG170844 DB	'ctc_lcs.c:1561', 00H
	ORG $+1
$SG170851 DB	'WRIT EXIT         ', 00H
	ORG $+5
$SG170834 DB	'%s(%d) : warning HHC90999W : *** Assertion Failed! *** f'
	DB	'unction: %s', 0aH, 00H
	ORG $+3
$SG170836 DB	'LCS_Write', 00H
	ORG $+2
$SG173902 DB	'D', 00H
	ORG $+2
$SG170837 DB	'ctc_lcs.c', 00H
	ORG $+6
$SG170847 DB	'ctc_lcs.c:1577', 00H
	ORG $+1
$SG170995 DB	'GET  PortDataLock ', 00H
	ORG $+5
$SG170838 DB	'%s(%d) : warning HHC90999W : *** Assertion Failed! *** f'
	DB	'unction: %s', 0aH, 00H
	ORG $+3
$SG170842 DB	'end write', 00H
	ORG $+2
$SG173911 DB	'D', 00H
	ORG $+2
$SG170848 DB	'end write', 00H
	ORG $+2
$SG173974 DB	'W', 00H
	ORG $+2
$SG170850 DB	'ctc_lcs.c:1578', 00H
	ORG $+1
$SG170999 DB	'GOT  PortDataLock ', 00H
	ORG $+5
$SG170878 DB	'HHC00939%s %1d:%04X CTC: lcs startup: frame buffer size '
	DB	'0x%4.4X %s compiled size 0x%4.4X: ignored', 0aH, 00H
	ORG $+1
$SG173980 DB	'D', 00H
	ORG $+2
$SG170879 DB	'LCS_Startup', 00H
$SG173990 DB	'D', 00H
	ORG $+2
$SG170880 DB	'ctc_lcs.c', 00H
	ORG $+6
$SG170885 DB	'LCS_Startup', 00H
$SG172557 DB	'data', 00H
	ORG $+7
$SG170884 DB	'HHC00939%s %1d:%04X CTC: lcs startup: frame buffer size '
	DB	'0x%4.4X %s compiled size 0x%4.4X: ignored', 0aH, 00H
	ORG $+1
$SG174050 DB	'W', 00H
	ORG $+2
$SG170886 DB	'ctc_lcs.c', 00H
	ORG $+2
$SG174056 DB	'D', 00H
	ORG $+2
$SG170994 DB	'ctc_lcs.c:1664', 00H
	ORG $+1
$SG170996 DB	'ctc_lcs.c:1665', 00H
	ORG $+1
$SG170998 DB	'ctc_lcs.c:1666', 00H
	ORG $+1
$SG171001 DB	'ctc_lcs.c:1671', 00H
	ORG $+1
$SG171002 DB	'UPDTPORTSTARTED   ', 00H
	ORG $+1
$SG174064 DB	'UA', 00H
	ORG $+1
$SG171004 DB	'ctc_lcs.c:1674', 00H
	ORG $+1
$SG171005 DB	'REL  PortDataLock ', 00H
	ORG $+1
$SG174066 DB	'D', 00H
	ORG $+2
$SG171006 DB	'ctc_lcs.c:1675', 00H
	ORG $+1
$SG171010 DB	'HHC00966%s %1d:%04X CTC: lcs triggering port %2.2X event'
	DB	0aH, 00H
	ORG $+2
$SG174132 DB	'I', 00H
	ORG $+2
$SG171011 DB	'UpdatePortStarted', 00H
	ORG $+2
$SG174141 DB	'I', 00H
	ORG $+2
$SG171012 DB	'ctc_lcs.c', 00H
	ORG $+2
$SG174150 DB	'I', 00H
	ORG $+2
$SG171014 DB	'ctc_lcs.c:1681', 00H
	ORG $+1
$SG171015 DB	'GET  PortEventLock', 00H
	ORG $+1
$SG174157 DB	'E', 00H
	ORG $+2
$SG171016 DB	'ctc_lcs.c:1682', 00H
	ORG $+1
$SG171018 DB	'ctc_lcs.c:1683', 00H
	ORG $+1
$SG171019 DB	'GOT  PortEventLock', 00H
	ORG $+1
$SG174166 DB	'I', 00H
	ORG $+2
$SG171021 DB	'ctc_lcs.c:1687', 00H
	ORG $+1
$SG171022 DB	'SIG  PortEvent    ', 00H
	ORG $+1
$SG174222 DB	'W', 00H
	ORG $+2
$SG171023 DB	'ctc_lcs.c:1688', 00H
	ORG $+1
$SG171025 DB	'ctc_lcs.c:1690', 00H
	ORG $+1
$SG171026 DB	'REL  PortEventLock', 00H
	ORG $+1
$SG174228 DB	'D', 00H
	ORG $+2
$SG171027 DB	'ctc_lcs.c:1691', 00H
	ORG $+1
$SG171029 DB	'ctc_lcs.c:1693', 00H
	ORG $+1
$SG171030 DB	'UPDTPORT pause 150', 00H
	ORG $+1
$SG174238 DB	'D', 00H
	ORG $+2
$SG171105 DB	'ctc_lcs.c:1722', 00H
	ORG $+1
$SG171106 DB	'GET  PortDataLock ', 00H
	ORG $+1
$SG174296 DB	'W', 00H
	ORG $+2
$SG171107 DB	'ctc_lcs.c:1723', 00H
	ORG $+1
$SG171109 DB	'ctc_lcs.c:1724', 00H
	ORG $+1
$SG171110 DB	'GOT  PortDataLock ', 00H
	ORG $+1
$SG174305 DB	'D', 00H
	ORG $+2
$SG171112 DB	'ctc_lcs.c:1727', 00H
	ORG $+1
$SG171113 DB	'STRTLAN if started', 00H
	ORG $+1
$SG174311 DB	'D', 00H
	ORG $+2
$SG171116 DB	'ctc_lcs.c:1730', 00H
	ORG $+1
$SG171117 DB	'STRTLAN started=NO', 00H
	ORG $+1
$SG174319 DB	'XID', 00H
$SG171120 DB	'LCS_StartLan', 00H
	ORG $+3
$SG171121 DB	'ctc_lcs.c', 00H
	ORG $+6
$SG171124 DB	'LCS_StartLan', 00H
	ORG $+3
$SG171129 DB	'ctc_lcs.c:1774', 00H
	ORG $+1
$SG171130 DB	'REL  PortDataLock ', 00H
	ORG $+5
$SG171122 DB	'%s(%d) : warning HHC90999W : *** Assertion Failed! *** f'
	DB	'unction: %s', 0aH, 00H
	ORG $+3
$SG171125 DB	'ctc_lcs.c', 00H
	ORG $+6
$SG171131 DB	'ctc_lcs.c:1775', 00H
	ORG $+1
$SG171188 DB	'GET  PortDataLock ', 00H
	ORG $+5
$SG171126 DB	'%s(%d) : warning HHC90999W : *** Assertion Failed! *** f'
	DB	'unction: %s', 0aH, 00H
	ORG $+3
$SG171187 DB	'ctc_lcs.c:1830', 00H
	ORG $+1
$SG171189 DB	'ctc_lcs.c:1831', 00H
	ORG $+1
$SG171191 DB	'ctc_lcs.c:1832', 00H
	ORG $+1
$SG171192 DB	'GOT  PortDataLock ', 00H
	ORG $+1
$SG174321 DB	'D', 00H
	ORG $+2
$SG171195 DB	'LCS_StopLan', 00H
$SG174381 DB	'W', 00H
	ORG $+2
$SG171196 DB	'ctc_lcs.c', 00H
	ORG $+6
$SG171197 DB	'%s(%d) : warning HHC90999W : *** Assertion Failed! *** f'
	DB	'unction: %s', 0aH, 00H
	ORG $+3
$SG171199 DB	'LCS_StopLan', 00H
$SG174387 DB	'D', 00H
	ORG $+2
$SG171200 DB	'ctc_lcs.c', 00H
	ORG $+6
$SG171204 DB	'ctc_lcs.c:1874', 00H
	ORG $+1
$SG171205 DB	'REL  PortDataLock ', 00H
	ORG $+5
$SG171201 DB	'%s(%d) : warning HHC90999W : *** Assertion Failed! *** f'
	DB	'unction: %s', 0aH, 00H
	ORG $+3
$SG171206 DB	'ctc_lcs.c:1875', 00H
	ORG $+1
$SG171323 DB	'MACTabAdd', 00H
	ORG $+2
$SG174395 DB	'UA', 00H
	ORG $+1
$SG171324 DB	'MACTabRem', 00H
	ORG $+2
$SG174397 DB	'D', 00H
	ORG $+2
$SG171332 DB	'LCS_DoMulticast', 00H
$SG171333 DB	'ctc_lcs.c', 00H
	ORG $+6
$SG171336 DB	'LCS_DoMulticast', 00H
$SG171341 DB	'HHC00964%s CTC: lcs device ''%s'' port %2.2X: %s %s: ok', 0aH
	DB	00H
	ORG $+1
$SG171334 DB	'%s(%d) : warning HHC90999W : *** Assertion Failed! *** f'
	DB	'unction: %s', 0aH, 00H
	ORG $+3
$SG171337 DB	'ctc_lcs.c', 00H
	ORG $+6
$SG171342 DB	'LCS_DoMulticast', 00H
$SG171357 DB	'HHC00964%s CTC: lcs device ''%s'' port %2.2X: %s %s: ok', 0aH
	DB	00H
	ORG $+1
$SG171338 DB	'%s(%d) : warning HHC90999W : *** Assertion Failed! *** f'
	DB	'unction: %s', 0aH, 00H
	ORG $+3
$SG171343 DB	'ctc_lcs.c', 00H
	ORG $+2
$SG174450 DB	'W', 00H
	ORG $+2
$SG171348 DB	'LCS_DoMulticast', 00H
$SG171349 DB	'ctc_lcs.c', 00H
	ORG $+6
$SG171352 DB	'LCS_DoMulticast', 00H
$SG171381 DB	'HHC00964%s CTC: lcs device ''%s'' port %2.2X: %s %s: ok', 0aH
	DB	00H
	ORG $+1
$SG171350 DB	'%s(%d) : warning HHC90999W : *** Assertion Failed! *** f'
	DB	'unction: %s', 0aH, 00H
	ORG $+3
$SG171353 DB	'ctc_lcs.c', 00H
	ORG $+6
$SG171358 DB	'LCS_DoMulticast', 00H
$SG171386 DB	'HHC00941%s CTC: ioctl %s failed for device %s: %s', 0aH, 00H
	ORG $+5
$SG171354 DB	'%s(%d) : warning HHC90999W : *** Assertion Failed! *** f'
	DB	'unction: %s', 0aH, 00H
	ORG $+3
$SG171359 DB	'ctc_lcs.c', 00H
	ORG $+2
$SG175104 DB	'D', 00H
	ORG $+2
$SG171362 DB	'HHC00940%s CTC: error in function %s: %s', 0aH, 00H
	ORG $+2
$SG175110 DB	'W', 00H
	ORG $+2
$SG171363 DB	'LCS_DoMulticast', 00H
$SG171364 DB	'ctc_lcs.c', 00H
	ORG $+2
$SG175125 DB	'D', 00H
	ORG $+2
$SG171365 DB	'SIOCADDMULTI', 00H
	ORG $+3
$SG171366 DB	'SIOCDELMULTI', 00H
	ORG $+3
$SG171372 DB	'LCS_DoMulticast', 00H
$SG171373 DB	'ctc_lcs.c', 00H
	ORG $+6
$SG171376 DB	'LCS_DoMulticast', 00H
$SG171498 DB	'HHC00923%s %1d:%04X CTC: lcs command reply enqueue', 0aH
	DB	00H
	ORG $+4
$SG171374 DB	'%s(%d) : warning HHC90999W : *** Assertion Failed! *** f'
	DB	'unction: %s', 0aH, 00H
	ORG $+3
$SG171377 DB	'ctc_lcs.c', 00H
	ORG $+6
$SG171382 DB	'LCS_DoMulticast', 00H
$SG171499 DB	'LCS_EnqueueReplyFrame', 00H
	ORG $+2
$SG171378 DB	'%s(%d) : warning HHC90999W : *** Assertion Failed! *** f'
	DB	'unction: %s', 0aH, 00H
	ORG $+3
$SG171383 DB	'ctc_lcs.c', 00H
	ORG $+2
$SG175135 DB	'D', 00H
	ORG $+2
$SG171387 DB	'LCS_DoMulticast', 00H
$SG171388 DB	'ctc_lcs.c', 00H
	ORG $+2
$SG175151 DB	'D', 00H
	ORG $+2
$SG171500 DB	'ctc_lcs.c', 00H
	ORG $+2
$SG175157 DB	'W', 00H
	ORG $+2
$SG171503 DB	'ctc_lcs.c:2155', 00H
	ORG $+1
$SG171504 DB	'ENQ RepFrame ENTRY', 00H
	ORG $+1
$SG175165 DB	'D', 00H
	ORG $+2
$SG171506 DB	'ctc_lcs.c:2159', 00H
	ORG $+1
$SG171507 DB	'b4 repNQ', 00H
	ORG $+3
$SG172921 DB	'ROUTE', 00H
	ORG $+2
$SG175175 DB	'D', 00H
	ORG $+2
$SG171510 DB	'%8.08X %d.%d.%d.%d', 00H
	ORG $+5
$SG171512 DB	'HHC00978%s CTC: lcs device port %2.2X: STILL trying to e'
	DB	'nqueue REPLY frame to device %4.4X %s', 0aH, 00H
	ORG $+1
$SG171513 DB	'LCS_EnqueueReplyFrame', 00H
	ORG $+2
$SG171514 DB	'ctc_lcs.c', 00H
	ORG $+2
$SG175186 DB	'D', 00H
	ORG $+2
$SG171516 DB	'ctc_lcs.c:2189', 00H
	ORG $+1
$SG171517 DB	'*repNQ wait', 00H
$SG175194 DB	'D', 00H
	ORG $+2
$SG171519 DB	'LCS_EnqueueReplyFrame', 00H
	ORG $+2
$SG171520 DB	'ctc_lcs.c', 00H
	ORG $+6
$SG171521 DB	'%s(%d) : warning HHC90999W : *** Assertion Failed! *** f'
	DB	'unction: %s', 0aH, 00H
	ORG $+3
$SG171523 DB	'LCS_EnqueueReplyFrame', 00H
	ORG $+2
$SG171524 DB	'ctc_lcs.c', 00H
	ORG $+6
$SG171525 DB	'%s(%d) : warning HHC90999W : *** Assertion Failed! *** f'
	DB	'unction: %s', 0aH, 00H
	ORG $+3
$SG171528 DB	'ctc_lcs.c:2196', 00H
	ORG $+1
$SG171529 DB	'af repNQ', 00H
	ORG $+3
$SG172924 DB	'%hi%c', 00H
	ORG $+2
$SG175192 DB	'Reject', 00H
	ORG $+1
$SG175202 DB	'DM', 00H
	ORG $+1
$SG171531 DB	'ctc_lcs.c:2197', 00H
	ORG $+1
$SG171532 DB	'ENQ RepFrame EXIT ', 00H
	ORG $+1
$SG175204 DB	'D', 00H
	ORG $+2
$SG171636 DB	'ctc_lcs.c:2219', 00H
	ORG $+1
$SG171637 DB	'GET  DevDataLock  ', 00H
	ORG $+1
$SG175212 DB	'D', 00H
	ORG $+2
$SG171638 DB	'ctc_lcs.c:2220', 00H
	ORG $+1
$SG171640 DB	'ctc_lcs.c:2221', 00H
	ORG $+1
$SG171641 DB	'GOT  DevDataLock  ', 00H
	ORG $+1
$SG175218 DB	'W', 00H
	ORG $+2
$SG171644 DB	'ctc_lcs.c:2229', 00H
	ORG $+1
$SG171645 DB	'*DoENQRep ENOBUFS ', 00H
	ORG $+1
$SG175224 DB	'UA', 00H
	ORG $+1
$SG171647 DB	'ctc_lcs.c:2230', 00H
	ORG $+1
$SG171648 DB	'REL  DevDataLock  ', 00H
	ORG $+1
$SG175226 DB	'D', 00H
	ORG $+2
$SG171649 DB	'ctc_lcs.c:2231', 00H
	ORG $+1
$SG171651 DB	'ctc_lcs.c:2250', 00H
	ORG $+1
$SG171652 DB	'SET  ReplyPending ', 00H
	ORG $+1
$SG175232 DB	'W', 00H
	ORG $+2
$SG171654 DB	'ctc_lcs.c:2253', 00H
	ORG $+1
$SG171655 DB	'REL  DevDataLock  ', 00H
	ORG $+1
$SG175240 DB	'D', 00H
	ORG $+2
$SG171656 DB	'ctc_lcs.c:2254', 00H
	ORG $+1
$SG171658 DB	'ctc_lcs.c:2257', 00H
	ORG $+1
$SG171659 DB	'GET  DevEventLock ', 00H
	ORG $+1
$SG175246 DB	'W', 00H
	ORG $+2
$SG171660 DB	'ctc_lcs.c:2258', 00H
	ORG $+1
$SG171662 DB	'ctc_lcs.c:2259', 00H
	ORG $+1
$SG171663 DB	'GOT  DevEventLock ', 00H
	ORG $+1
$SG175254 DB	'D', 00H
	ORG $+2
$SG171665 DB	'ctc_lcs.c:2261', 00H
	ORG $+1
$SG171666 DB	'SIG  DevEvent     ', 00H
	ORG $+1
$SG175259 DB	'D', 00H
	ORG $+2
$SG171667 DB	'ctc_lcs.c:2262', 00H
	ORG $+1
$SG171669 DB	'ctc_lcs.c:2264', 00H
	ORG $+1
$SG171670 DB	'REL  DevEventLock ', 00H
	ORG $+1
$SG175265 DB	'XID', 00H
$SG171671 DB	'ctc_lcs.c:2265', 00H
	ORG $+1
$SG171879 DB	'ctc_lcs.c:2308', 00H
	ORG $+1
$SG171880 DB	'PORTHRD: ENTRY    ', 00H
	ORG $+1
$SG175267 DB	'D', 00H
	ORG $+2
$SG171882 DB	'ctc_lcs.c:2312', 00H
	ORG $+1
$SG171883 DB	'GET  PortEventLock', 00H
	ORG $+1
$SG175275 DB	'W', 00H
	ORG $+2
$SG171884 DB	'ctc_lcs.c:2313', 00H
	ORG $+1
$SG171886 DB	'ctc_lcs.c:2314', 00H
	ORG $+1
$SG171887 DB	'GOT  PortEventLock', 00H
	ORG $+5
$SG171893 DB	'LCS_PortThread', 00H
	ORG $+1
$SG171901 DB	'PORTHRD if started', 00H
	ORG $+5
$SG171892 DB	'HHC00969%s CTC: lcs device port %2.2X: read thread: port'
	DB	' stopped', 0aH, 00H
	ORG $+2
$SG175283 DB	'W', 00H
	ORG $+2
$SG171894 DB	'ctc_lcs.c', 00H
	ORG $+6
$SG171897 DB	'LCS_PortThread', 00H
	ORG $+1
$SG171909 DB	'PORTHRD is closing', 00H
	ORG $+5
$SG171896 DB	'HHC00967%s CTC: lcs device port %2.2X: read thread: wait'
	DB	'ing for start event', 0aH, 00H
	ORG $+3
$SG171898 DB	'ctc_lcs.c', 00H
	ORG $+2
$SG175289 DB	'I', 00H
	ORG $+2
$SG171900 DB	'ctc_lcs.c:2334', 00H
	ORG $+1
$SG171908 DB	'ctc_lcs.c:2342', 00H
	ORG $+1
$SG171911 DB	'ctc_lcs.c:2344', 00H
	ORG $+1
$SG171912 DB	'PORTHRD is started', 00H
	ORG $+1
$SG175298 DB	'I', 00H
	ORG $+2
$SG171914 DB	'ctc_lcs.c:2348', 00H
	ORG $+1
$SG171915 DB	'WAIT PortEventLock', 00H
	ORG $+1
$SG175305 DB	'W', 00H
	ORG $+2
$SG171916 DB	'ctc_lcs.c:2355', 00H
	ORG $+1
$SG171918 DB	'ctc_lcs.c:2356', 00H
	ORG $+1
$SG171919 DB	'WOKE PortEventLock', 00H
	ORG $+5
$SG171924 DB	'LCS_PortThread', 00H
	ORG $+1
$SG171928 DB	'REL  PortEventLock', 00H
	ORG $+5
$SG171923 DB	'HHC00968%s CTC: lcs device port %2.2X: read thread: port'
	DB	' started', 0aH, 00H
	ORG $+2
$SG175318 DB	'D', 00H
	ORG $+2
$SG171925 DB	'ctc_lcs.c', 00H
	ORG $+2
$SG175326 DB	'W', 00H
	ORG $+2
$SG171927 DB	'ctc_lcs.c:2368', 00H
	ORG $+1
$SG171929 DB	'ctc_lcs.c:2369', 00H
	ORG $+1
$SG171933 DB	'ctc_lcs.c:2377', 00H
	ORG $+1
$SG171934 DB	'b4 tt read', 00H
	ORG $+1
$SG175332 DB	'D', 00H
	ORG $+2
$SG171936 DB	'ctc_lcs.c:2379', 00H
	ORG $+1
$SG171937 DB	'af tt read', 00H
	ORG $+5
$SG171944 DB	'LCS_PortThread', 00H
	ORG $+1
$SG171963 DB	'%8.08X %d.%d.%d.%d', 00H
	ORG $+5
$SG171943 DB	'HHC00944%s CTC: lcs interface %s read error from port %2'
	DB	'.2X: %s', 0aH, 00H
	ORG $+3
$SG172925 DB	'ROUTE', 00H
	ORG $+2
$SG175342 DB	'D', 00H
	ORG $+2
$SG171945 DB	'ctc_lcs.c', 00H
	ORG $+6
$SG171948 DB	'HHC00984%s %1d:%04X %s: port %2.2X: Receive frame of siz'
	DB	'e %d bytes (with %s packet) from device %s', 0aH, 00H
$SG175383 DB	'W', 00H
	ORG $+2
$SG171949 DB	'LCS_PortThread', 00H
	ORG $+1
$SG171950 DB	'ctc_lcs.c', 00H
	ORG $+6
$SG171955 DB	'LCS_PortThread', 00H
	ORG $+1
$SG171978 DB	'%8.08X %d.%d.%d.%d', 00H
	ORG $+5
$SG171954 DB	'HHC00945%s CTC: lcs device port %2.2X: MCAST not in tabl'
	DB	'e, discarding frame', 0aH, 00H
	ORG $+3
$SG171956 DB	'ctc_lcs.c', 00H
	ORG $+6
$SG171965 DB	'HHC00946%s CTC: lcs device port %2.2X: IPv4 frame receiv'
	DB	'ed for %s', 0aH, 00H
	ORG $+1
$SG175481 DB	'D', 00H
	ORG $+2
$SG171966 DB	'LCS_PortThread', 00H
	ORG $+1
$SG171967 DB	'ctc_lcs.c', 00H
	ORG $+6
$SG171981 DB	'LCS_PortThread', 00H
	ORG $+1
$SG172046 DB	'PORTHRD Closing...', 00H
	ORG $+5
$SG171980 DB	'HHC00947%s CTC: lcs device port %2.2X: ARP frame receive'
	DB	'd for %s', 0aH, 00H
	ORG $+2
$SG175487 DB	'D', 00H
	ORG $+2
$SG171982 DB	'ctc_lcs.c', 00H
	ORG $+6
$SG171995 DB	'LCS_PortThread', 00H
	ORG $+1
$SG172058 DB	'PORTHRD started=NO', 00H
	ORG $+5
$SG171994 DB	'HHC00948%s CTC: lcs device port %2.2X: RARP frame receiv'
	DB	'ed for %2.2X:%2.2X:%2.2X:%2.2X:%2.2X:%2.2X', 0aH, 00H
$SG175560 DB	'E', 00H
	ORG $+2
$SG171996 DB	'ctc_lcs.c', 00H
	ORG $+6
$SG172006 DB	'LCS_PortThread', 00H
	ORG $+1
$SG172061 DB	'PORTHRD: EXIT     ', 00H
	ORG $+5
$SG172005 DB	'HHC00949%s CTC: lcs device port %2.2X: SNA frame receive'
	DB	'd for %2.2X:%2.2X:%2.2X:%2.2X:%2.2X:%2.2X', 0aH, 00H
	ORG $+1
$SG175616 DB	'E', 00H
	ORG $+2
$SG172007 DB	'ctc_lcs.c', 00H
	ORG $+6
$SG172018 DB	'LCS_PortThread', 00H
	ORG $+1
$SG172149 DB	'ENQ EthFrame ENTRY', 00H
	ORG $+5
$SG172017 DB	'HHC00951%s CTC: lcs device port %2.2X: no match found, d'
	DB	'iscarding frame', 0aH, 00H
	ORG $+3
$SG172931 DB	'ROUTE', 00H
	ORG $+2
$SG175728 DB	'DEVBLK', 00H
	ORG $+1
$SG175741 DB	'LCS', 00H
$SG172019 DB	'ctc_lcs.c', 00H
	ORG $+6
$SG172022 DB	'discarding', 00H
	ORG $+5
$SG172028 DB	'HHC00951%s CTC: lcs device port %2.2X: no match found, d'
	DB	'iscarding frame', 0aH, 00H
	ORG $+7
$SG172029 DB	'LCS_PortThread', 00H
	ORG $+1
$SG172030 DB	'ctc_lcs.c', 00H
	ORG $+6
$SG172033 DB	'discarding', 00H
	ORG $+5
$SG172038 DB	'HHC00980%s %1d:%04X %s: Data of size %d bytes displayed,'
	DB	' data of size %d bytes not displayed', 0aH, 00H
	ORG $+2
$SG172039 DB	'LCS_PortThread', 00H
	ORG $+1
$SG172040 DB	'ctc_lcs.c', 00H
	ORG $+6
$SG172041 DB	'eth frame', 00H
	ORG $+6
$SG172045 DB	'ctc_lcs.c:2696', 00H
	ORG $+1
$SG172048 DB	'LCS_PortThread', 00H
	ORG $+1
$SG172049 DB	'ctc_lcs.c', 00H
	ORG $+6
$SG172050 DB	'%s(%d) : warning HHC90999W : *** Assertion Failed! *** f'
	DB	'unction: %s', 0aH, 00H
	ORG $+3
$SG172052 DB	'LCS_PortThread', 00H
	ORG $+1
$SG172053 DB	'ctc_lcs.c', 00H
	ORG $+6
$SG172057 DB	'ctc_lcs.c:2723', 00H
	ORG $+1
$SG172156 DB	'LCS_EnqueueEthFrame', 00H
	ORG $+4
$SG172054 DB	'%s(%d) : warning HHC90999W : *** Assertion Failed! *** f'
	DB	'unction: %s', 0aH, 00H
	ORG $+3
$SG172060 DB	'ctc_lcs.c:2728', 00H
	ORG $+1
$SG172148 DB	'ctc_lcs.c:2754', 00H
	ORG $+1
$SG172151 DB	'ctc_lcs.c:2758', 00H
	ORG $+1
$SG172152 DB	'b4 enqueue', 00H
	ORG $+5
$SG172159 DB	'ctc_lcs.c:2772', 00H
	ORG $+1
$SG172163 DB	'%8.08X %d.%d.%d.%d', 00H
	ORG $+5
$SG172155 DB	'HHC00953%s CTC: lcs device port %2.2X: packet frame too '
	DB	'big, dropped', 0aH, 00H
	ORG $+2
$SG172157 DB	'ctc_lcs.c', 00H
	ORG $+6
$SG172160 DB	'*enq drop', 00H
	ORG $+6
$SG172166 DB	'LCS_EnqueueEthFrame', 00H
	ORG $+4
$SG172165 DB	'HHC00965%s CTC: lcs device port %2.2X: STILL trying to e'
	DB	'nqueue frame to device %4.4X %s', 0aH, 00H
	ORG $+7
$SG172167 DB	'ctc_lcs.c', 00H
	ORG $+6
$SG172169 DB	'ctc_lcs.c:2796', 00H
	ORG $+1
$SG172170 DB	'*enq wait', 00H
	ORG $+6
$SG172172 DB	'LCS_EnqueueEthFrame', 00H
	ORG $+4
$SG172173 DB	'ctc_lcs.c', 00H
	ORG $+6
$SG172176 DB	'LCS_EnqueueEthFrame', 00H
	ORG $+4
$SG172174 DB	'%s(%d) : warning HHC90999W : *** Assertion Failed! *** f'
	DB	'unction: %s', 0aH, 00H
	ORG $+3
$SG172177 DB	'ctc_lcs.c', 00H
	ORG $+6
$SG172181 DB	'ctc_lcs.c:2803', 00H
	ORG $+1
$SG172185 DB	'ENQ EthFrame EXIT ', 00H
	ORG $+5
$SG172178 DB	'%s(%d) : warning HHC90999W : *** Assertion Failed! *** f'
	DB	'unction: %s', 0aH, 00H
	ORG $+3
$SG172182 DB	'af enqueue', 00H
	ORG $+5
$SG172184 DB	'ctc_lcs.c:2804', 00H
	ORG $+1
$SG172306 DB	'ctc_lcs.c:2840', 00H
	ORG $+1
$SG172307 DB	'*DoENQEth EMSGSIZE', 00H
	ORG $+5
$SG172309 DB	'ctc_lcs.c:2845', 00H
	ORG $+1
$SG172310 DB	'GET  DevDataLock  ', 00H
	ORG $+5
$SG172311 DB	'ctc_lcs.c:2846', 00H
	ORG $+1
$SG172313 DB	'ctc_lcs.c:2847', 00H
	ORG $+1
$SG172314 DB	'GOT  DevDataLock  ', 00H
	ORG $+5
$SG172317 DB	'ctc_lcs.c:2856', 00H
	ORG $+1
$SG172318 DB	'*DoENQEth ENOBUFS ', 00H
	ORG $+5
$SG172320 DB	'ctc_lcs.c:2857', 00H
	ORG $+1
$SG172321 DB	'REL  DevDataLock  ', 00H
	ORG $+5
$SG172322 DB	'ctc_lcs.c:2858', 00H
	ORG $+1
$SG172324 DB	'ctc_lcs.c:2881', 00H
	ORG $+1
$SG172325 DB	'SET  DataPending  ', 00H
	ORG $+5
$SG172327 DB	'ctc_lcs.c:2884', 00H
	ORG $+1
$SG172328 DB	'REL  DevDataLock  ', 00H
	ORG $+5
$SG172329 DB	'ctc_lcs.c:2885', 00H
	ORG $+1
$SG172331 DB	'ctc_lcs.c:2888', 00H
	ORG $+1
$SG172332 DB	'GET  DevEventLock ', 00H
	ORG $+5
$SG172333 DB	'ctc_lcs.c:2889', 00H
	ORG $+1
$SG172335 DB	'ctc_lcs.c:2890', 00H
	ORG $+1
$SG172336 DB	'GOT  DevEventLock ', 00H
	ORG $+5
$SG172338 DB	'ctc_lcs.c:2892', 00H
	ORG $+1
$SG172339 DB	'SIG  DevEvent     ', 00H
	ORG $+5
$SG172340 DB	'ctc_lcs.c:2893', 00H
	ORG $+1
$SG172342 DB	'ctc_lcs.c:2895', 00H
	ORG $+1
$SG172343 DB	'REL  DevEventLock ', 00H
	ORG $+5
$SG172344 DB	'ctc_lcs.c:2896', 00H
	ORG $+1
$SG172351 DB	'ctc_lcs.c:2912', 00H
	ORG $+1
$SG172353 DB	'ctc_lcs.c:2917', 00H
	ORG $+1
$SG172354 DB	'ctc_lcs.c:2920', 00H
	ORG $+1
$SG172500 DB	'ctc_lcs.c:2946', 00H
	ORG $+1
$SG172501 DB	'READ: ENTRY       ', 00H
	ORG $+5
$SG172503 DB	'ctc_lcs.c:2952', 00H
	ORG $+1
$SG172504 DB	'GET  DevDataLock  ', 00H
	ORG $+5
$SG172505 DB	'ctc_lcs.c:2953', 00H
	ORG $+1
$SG172507 DB	'ctc_lcs.c:2954', 00H
	ORG $+1
$SG172508 DB	'GOT  DevDataLock  ', 00H
	ORG $+5
$SG172512 DB	'ctc_lcs.c:2959', 00H
	ORG $+1
$SG172513 DB	'REL  DevDataLock  ', 00H
	ORG $+5
$SG172514 DB	'ctc_lcs.c:2960', 00H
	ORG $+1
$SG172516 DB	'ctc_lcs.c:2969', 00H
	ORG $+1
$SG172517 DB	'GET  DevEventLock ', 00H
	ORG $+5
$SG172518 DB	'ctc_lcs.c:2970', 00H
	ORG $+1
$SG172520 DB	'ctc_lcs.c:2971', 00H
	ORG $+1
$SG172521 DB	'GOT  DevEventLock ', 00H
	ORG $+5
$SG172523 DB	'ctc_lcs.c:2973', 00H
	ORG $+1
$SG172524 DB	'WAIT DevEventLock ', 00H
	ORG $+5
$SG172525 DB	'ctc_lcs.c:2977', 00H
	ORG $+1
$SG172527 DB	'ctc_lcs.c:2981', 00H
	ORG $+1
$SG172528 DB	'WOKE DevEventLock ', 00H
	ORG $+5
$SG172531 DB	'ctc_lcs.c:2991', 00H
	ORG $+1
$SG172532 DB	'*HALT or CLEAR*   ', 00H
	ORG $+5
$SG172536 DB	'HHC00904%s %1d:%04X %s: Halt or clear recognized', 0aH, 00H
	ORG $+6
$SG172537 DB	'LCS_Read', 00H
	ORG $+7
$SG172538 DB	'ctc_lcs.c', 00H
	ORG $+6
$SG172539 DB	'ctc_lcs.c:2996', 00H
	ORG $+1
$SG172540 DB	'ctc_lcs.c:2999', 00H
	ORG $+1
$SG172542 DB	'ctc_lcs.c:3006', 00H
	ORG $+1
$SG172543 DB	'READ using buffer ', 00H
	ORG $+5
$SG172559 DB	'ctc_lcs.c:3092', 00H
	ORG $+1
$SG172560 DB	'READ empty buffer ', 00H
	ORG $+5
$SG172548 DB	'HHC00982%s %1d:%04X %s: Present data of size %d bytes to'
	DB	' guest', 0aH, 00H
$SG172549 DB	'LCS_Read', 00H
	ORG $+7
$SG172550 DB	'ctc_lcs.c', 00H
	ORG $+6
$SG172554 DB	'HHC00980%s %1d:%04X %s: Data of size %d bytes displayed,'
	DB	' data of size %d bytes not displayed', 0aH, 00H
	ORG $+2
$SG172555 DB	'LCS_Read', 00H
	ORG $+7
$SG172556 DB	'ctc_lcs.c', 00H
	ORG $+6
$SG172562 DB	'ctc_lcs.c:3097', 00H
	ORG $+1
$SG172563 DB	'REL  DevDataLock  ', 00H
	ORG $+5
$SG172564 DB	'ctc_lcs.c:3098', 00H
	ORG $+1
$SG172566 DB	'ctc_lcs.c:3100', 00H
	ORG $+1
$SG172567 DB	'READ: EXIT        ', 00H
	ORG $+1
$SG172591 DB	'IPv4', 00H
	ORG $+3
$SG172594 DB	'IPv6', 00H
	ORG $+3
$SG172600 DB	'RARP', 00H
	ORG $+7
$SG172604 DB	'unknown', 00H
$SG172611 DB	'IPv4', 00H
	ORG $+3
$SG172614 DB	'IPv6', 00H
	ORG $+3
$SG172620 DB	'RARP', 00H
	ORG $+3
$SG172624 DB	'unknown', 00H
$SG172629 DB	'unknown', 00H
$SG172644 DB	'socket()', 00H
	ORG $+7
$SG172646 DB	'HHC00940%s CTC: error in function %s: %s', 0aH, 00H
	ORG $+6
$SG172647 DB	'GetIfMACAddress', 00H
$SG172648 DB	'ctc_lcs.c', 00H
	ORG $+6
$SG172650 DB	'SIOCGIFHWADDR', 00H
	ORG $+2
$SG172652 DB	'HHC00941%s CTC: ioctl %s failed for device %s: %s', 0aH, 00H
	ORG $+5
$SG172653 DB	'GetIfMACAddress', 00H
$SG172654 DB	'ctc_lcs.c', 00H
	ORG $+6
$SG172656 DB	'HHC00942%s CTC: lcs interface %s using mac %2.2X:%2.2X:%'
	DB	'2.2X:%2.2X:%2.2X:%2.2X', 0aH, 00H
$SG172657 DB	'GetIfMACAddress', 00H
$SG172658 DB	'ctc_lcs.c', 00H
	ORG $+6
$SG172662 DB	'HHC00943%s CTC: lcs interface %s not using mac %2.2X:%2.'
	DB	'2X:%2.2X:%2.2X:%2.2X:%2.2X', 0aH, 00H
	ORG $+4
$SG172663 DB	'GetIfMACAddress', 00H
$SG172664 DB	'ctc_lcs.c', 00H
	ORG $+6
$SG172665 DB	'%2.2X:%2.2X:%2.2X:%2.2X:%2.2X:%2.2X', 00H
	ORG $+4
?options@?3??ParseArgs@@9@9 DQ FLAT:$SG172716		; `ParseArgs'::`4'::options
	DD	01H
	ORG $+4
	DQ	0000000000000000H
	DD	065H
	ORG $+4
	DQ	FLAT:$SG172717
	DD	01H
	ORG $+4
	DQ	0000000000000000H
	DD	06eH
	ORG $+4
	DQ	FLAT:$SG172718
	DD	01H
	ORG $+4
	DQ	0000000000000000H
	DD	06dH
	ORG $+4
	DQ	FLAT:$SG172719
	DD	01H
	ORG $+4
	DQ	0000000000000000H
	DD	06fH
	ORG $+4
	DQ	FLAT:$SG172720
	DD	01H
	ORG $+4
	DQ	0000000000000000H
	DD	073H
	ORG $+4
	DQ	FLAT:$SG172721
	DD	01H
	ORG $+4
	DQ	0000000000000000H
	DD	074H
	ORG $+4
	DQ	FLAT:$SG172722
	DD	00H
	ORG $+4
	DQ	0000000000000000H
	DD	064H
	ORG $+4
	DQ	FLAT:$SG172723
	DD	01H
	ORG $+4
	DQ	0000000000000000H
	DD	06bH
	ORG $+4
	DQ	FLAT:$SG172724
	DD	01H
	ORG $+4
	DQ	0000000000000000H
	DD	069H
	ORG $+4
	DQ	FLAT:$SG172725
	DD	00H
	ORG $+4
	DQ	0000000000000000H
	DD	077H
	ORG $+4
	DQ	0000000000000000H
	DD	00H
	ORG $+4
	DQ	0000000000000000H
	DD	00H
	ORG $+4
$SG172726 DB	'e:n:m:o:s:t:dk:i:w', 00H
	ORG $+5
$SG172735 DB	'device mode', 00H
	ORG $+4
$SG172737 DB	'HHC00916%s %1d:%04X %s: Option %s value %s invalid', 0aH
	DB	00H
	ORG $+4
$SG172738 DB	'ParseArgs', 00H
	ORG $+6
$SG172739 DB	'ctc_lcs.c', 00H
	ORG $+6
$SG172742 DB	'device name', 00H
	ORG $+4
$SG172744 DB	'HHC00916%s %1d:%04X %s: Option %s value %s invalid', 0aH
	DB	00H
	ORG $+4
$SG172745 DB	'ParseArgs', 00H
	ORG $+6
$SG172746 DB	'ctc_lcs.c', 00H
	ORG $+6
$SG172750 DB	'MAC address', 00H
	ORG $+4
$SG172752 DB	'HHC00916%s %1d:%04X %s: Option %s value %s invalid', 0aH
	DB	00H
	ORG $+4
$SG172753 DB	'ParseArgs', 00H
	ORG $+6
$SG172754 DB	'ctc_lcs.c', 00H
	ORG $+6
$SG172759 DB	'discard trace size', 00H
	ORG $+5
$SG172761 DB	'HHC00916%s %1d:%04X %s: Option %s value %s invalid', 0aH
	DB	00H
	ORG $+4
$SG172762 DB	'ParseArgs', 00H
	ORG $+6
$SG172763 DB	'ctc_lcs.c', 00H
	ORG $+6
$SG172767 DB	'maximum trace size', 00H
	ORG $+5
$SG172769 DB	'HHC00916%s %1d:%04X %s: Option %s value %s invalid', 0aH
	DB	00H
	ORG $+4
$SG172770 DB	'ParseArgs', 00H
	ORG $+6
$SG172771 DB	'ctc_lcs.c', 00H
	ORG $+6
$SG172776 DB	'kernel buffer size', 00H
	ORG $+5
$SG172778 DB	'HHC00916%s %1d:%04X %s: Option %s value %s invalid', 0aH
	DB	00H
	ORG $+4
$SG172779 DB	'ParseArgs', 00H
	ORG $+6
$SG172780 DB	'ctc_lcs.c', 00H
	ORG $+6
$SG172784 DB	'dll i/o buffer size', 00H
	ORG $+4
$SG172786 DB	'HHC00916%s %1d:%04X %s: Option %s value %s invalid', 0aH
	DB	00H
	ORG $+4
$SG172787 DB	'ParseArgs', 00H
	ORG $+6
$SG172788 DB	'ctc_lcs.c', 00H
	ORG $+6
$SG172794 DB	'HHC00915%s %1d:%04X %s: Incorrect number of parameters', 0aH
	DB	00H
$SG172795 DB	'ParseArgs', 00H
	ORG $+6
$SG172796 DB	'ctc_lcs.c', 00H
	ORG $+6
$SG172801 DB	'IP address', 00H
	ORG $+5
$SG172803 DB	'HHC00916%s %1d:%04X %s: Option %s value %s invalid', 0aH
	DB	00H
	ORG $+4
$SG172804 DB	'ParseArgs', 00H
	ORG $+6
$SG172805 DB	'ctc_lcs.c', 00H
	ORG $+6
$SG172807 DB	'IP address', 00H
	ORG $+5
$SG172809 DB	'HHC00916%s %1d:%04X %s: Option %s value %s invalid', 0aH
	DB	00H
	ORG $+4
$SG172810 DB	'ParseArgs', 00H
	ORG $+6
$SG172811 DB	'ctc_lcs.c', 00H
	ORG $+6
$SG172883 DB	'fopen( "%s", "r" )', 00H
	ORG $+5
$SG172885 DB	'HHC00940%s CTC: error in function %s: %s', 0aH, 00H
	ORG $+6
$SG172886 DB	'BuildOAT', 00H
	ORG $+7
$SG172887 DB	'ctc_lcs.c', 00H
	ORG $+6
$SG172892 DB	'$(CCUU)', 00H
$SG172893 DB	'CCUU', 00H
	ORG $+3
$SG172894 DB	'$(DEVN)', 00H
$SG172895 DB	'DEVN', 00H
	ORG $+3
$SG172908 DB	'HHC00954%s CTC: invalid statement %s in file %s: %s', 0aH
	DB	00H
	ORG $+3
$SG172909 DB	'BuildOAT', 00H
	ORG $+7
$SG172910 DB	'ctc_lcs.c', 00H
	ORG $+6
$SG172916 DB	'HHC00955%s CTC: invalid %s %s in statement %s in file %s'
	DB	': %s', 0aH, 00H
	ORG $+2
$SG172917 DB	'BuildOAT', 00H
	ORG $+7
$SG172918 DB	'ctc_lcs.c', 00H
	ORG $+6
$SG172927 DB	'HHC00954%s CTC: invalid statement %s in file %s: %s', 0aH
	DB	00H
	ORG $+3
$SG172928 DB	'BuildOAT', 00H
	ORG $+7
$SG172929 DB	'ctc_lcs.c', 00H
	ORG $+6
$SG172932 DB	'net address', 00H
	ORG $+4
$SG172934 DB	'HHC00955%s CTC: invalid %s %s in statement %s in file %s'
	DB	': %s', 0aH, 00H
	ORG $+2
$SG172935 DB	'BuildOAT', 00H
	ORG $+7
$SG172936 DB	'ctc_lcs.c', 00H
	ORG $+2
$SG172938 DB	'ROUTE', 00H
	ORG $+6
$SG172939 DB	'netmask', 00H
$SG172941 DB	'HHC00955%s CTC: invalid %s %s in statement %s in file %s'
	DB	': %s', 0aH, 00H
	ORG $+2
$SG172942 DB	'BuildOAT', 00H
	ORG $+7
$SG172943 DB	'ctc_lcs.c', 00H
	ORG $+6
$SG172949 DB	'HHC00956%s CTC: error in file %s: missing device number '
	DB	'or mode', 0aH, 00H
	ORG $+7
$SG172950 DB	'BuildOAT', 00H
	ORG $+7
$SG172951 DB	'ctc_lcs.c', 00H
	ORG $+2
$SG172954 DB	'%hx%c', 00H
	ORG $+6
$SG172955 DB	'device number', 00H
	ORG $+2
$SG172957 DB	'HHC00957%s CTC: error in file %s: invalid %s value %s', 0aH
	DB	00H
	ORG $+1
$SG172958 DB	'BuildOAT', 00H
	ORG $+7
$SG172959 DB	'ctc_lcs.c', 00H
	ORG $+6
$SG172965 DB	'HHC00958%s CTC: error in file %s: %s: missing port numbe'
	DB	'r', 0aH, 00H
	ORG $+5
$SG172966 DB	'BuildOAT', 00H
	ORG $+7
$SG172967 DB	'ctc_lcs.c', 00H
	ORG $+2
$SG172969 DB	'%hi%c', 00H
	ORG $+6
$SG172970 DB	'port number', 00H
	ORG $+4
$SG172972 DB	'HHC00957%s CTC: error in file %s: invalid %s value %s', 0aH
	DB	00H
	ORG $+1
$SG172973 DB	'BuildOAT', 00H
	ORG $+7
$SG172974 DB	'ctc_lcs.c', 00H
	ORG $+6
$SG172991 DB	'IP address', 00H
	ORG $+5
$SG172993 DB	'HHC00957%s CTC: error in file %s: invalid %s value %s', 0aH
	DB	00H
	ORG $+1
$SG172986 DB	'HHC00959%s CTC: error in file %s: %s: invalid entry star'
	DB	'ting at %s', 0aH, 00H
	ORG $+4
$SG172987 DB	'BuildOAT', 00H
	ORG $+7
$SG172988 DB	'ctc_lcs.c', 00H
	ORG $+6
$SG172994 DB	'BuildOAT', 00H
	ORG $+7
$SG172995 DB	'ctc_lcs.c', 00H
	ORG $+6
$SG173001 DB	'HHC00958%s CTC: error in file %s: %s: missing port numbe'
	DB	'r', 0aH, 00H
	ORG $+5
$SG173002 DB	'BuildOAT', 00H
	ORG $+7
$SG173003 DB	'ctc_lcs.c', 00H
	ORG $+2
$SG173005 DB	'%hi%c', 00H
	ORG $+6
$SG173006 DB	'port number', 00H
	ORG $+4
$SG173008 DB	'HHC00957%s CTC: error in file %s: invalid %s value %s', 0aH
	DB	00H
	ORG $+1
$SG173009 DB	'BuildOAT', 00H
	ORG $+7
$SG173010 DB	'ctc_lcs.c', 00H
	ORG $+6
$SG173017 DB	'HHC00961%s CTC: error in file %s: %s: invalid mode', 0aH
	DB	00H
	ORG $+4
$SG173013 DB	'HHC00960%s CTC: error in file %s: %s: SNA does not accep'
	DB	't any arguments', 0aH, 00H
	ORG $+7
$SG173014 DB	'BuildOAT', 00H
	ORG $+7
$SG173015 DB	'ctc_lcs.c', 00H
	ORG $+6
$SG173018 DB	'BuildOAT', 00H
	ORG $+7
$SG173019 DB	'ctc_lcs.c', 00H
	ORG $+6
$SG173044 DB	'HHC00962%s CTC: error in file %s: reading line %d: %s', 0aH
	DB	00H
	ORG $+1
$SG173045 DB	'ReadOAT', 00H
$SG173046 DB	'ctc_lcs.c', 00H
	ORG $+6
$SG173057 DB	'HHC00963%s CTC: error in file %s: line %d is too long', 0aH
	DB	00H
	ORG $+1
$SG173058 DB	'ReadOAT', 00H
$SG173059 DB	'ctc_lcs.c', 00H
	ORG $+6
$SG173251 DB	'ctc_lcs.c:4043', 00H
	ORG $+1
$SG173252 DB	'ATTNTHRD: ENTRY', 00H
$SG173254 DB	'ctc_lcs.c:4053', 00H
	ORG $+1
$SG173255 DB	'GET  AttnEventLock', 00H
	ORG $+5
$SG173256 DB	'ctc_lcs.c:4054', 00H
	ORG $+1
$SG173258 DB	'ctc_lcs.c:4055', 00H
	ORG $+1
$SG173259 DB	'GOT  AttnEventLock', 00H
	ORG $+5
$SG173262 DB	'ctc_lcs.c:4061', 00H
	ORG $+1
$SG173263 DB	'ATTNTHRD Closing...', 00H
	ORG $+4
$SG173266 DB	'ctc_lcs.c:4067', 00H
	ORG $+1
$SG173267 DB	'ATTNTHRD Attn...', 00H
	ORG $+7
$SG173269 DB	'ctc_lcs.c:4071', 00H
	ORG $+1
$SG173270 DB	'WAIT AttnEventLock', 00H
	ORG $+5
$SG173271 DB	'ctc_lcs.c:4078', 00H
	ORG $+1
$SG173273 DB	'ctc_lcs.c:4079', 00H
	ORG $+1
$SG173274 DB	'WOKE AttnEventLock', 00H
	ORG $+5
$SG173276 DB	'ctc_lcs.c:4082', 00H
	ORG $+1
$SG173277 DB	'REL  AttnEventLock', 00H
	ORG $+5
$SG173278 DB	'ctc_lcs.c:4083', 00H
	ORG $+1
$SG173281 DB	'ctc_lcs.c:4088', 00H
	ORG $+1
$SG173282 DB	'ATTNTHRD Closing...', 00H
	ORG $+4
$SG173284 DB	'ctc_lcs.c:4093', 00H
	ORG $+1
$SG173285 DB	'GET  AttnLock', 00H
	ORG $+2
$SG173286 DB	'ctc_lcs.c:4094', 00H
	ORG $+1
$SG173288 DB	'ctc_lcs.c:4095', 00H
	ORG $+1
$SG173289 DB	'GOT  AttnLock', 00H
	ORG $+2
$SG173293 DB	'ctc_lcs.c:4101', 00H
	ORG $+1
$SG173294 DB	'REM  Attn (All)', 00H
$SG173296 DB	'ctc_lcs.c:4105', 00H
	ORG $+1
$SG173297 DB	'REM  Attn (Non)', 00H
$SG173299 DB	'ctc_lcs.c:4108', 00H
	ORG $+1
$SG173300 DB	'REL  AttnLock', 00H
	ORG $+2
$SG173301 DB	'ctc_lcs.c:4109', 00H
	ORG $+1
$SG173305 DB	'ctc_lcs.c:4140', 00H
	ORG $+1
$SG173306 DB	'PRC  Attn', 00H
	ORG $+6
$SG173308 DB	'ctc_lcs.c:4163', 00H
	ORG $+1
$SG173309 DB	'Raise Attn   ', 00H
	ORG $+2
$SG173311 DB	'device_attention rc=%d  %d  %d', 00H
	ORG $+1
$SG173313 DB	'HHC03991%s %1d:%04X %s: %s', 0aH, 00H
	ORG $+4
$SG173314 DB	'LCS_AttnThread', 00H
	ORG $+1
$SG173315 DB	'ctc_lcs.c', 00H
	ORG $+6
$SG173319 DB	'ctc_lcs.c:4205', 00H
	ORG $+1
$SG173320 DB	'ATTNTHRD: EXIT', 00H
	ORG $+1
$SG173645 DB	'HHC00981%s %1d:%04X %s: Accept data of size %d bytes fro'
	DB	'm guest', 0aH, 00H
	ORG $+7
$SG173646 DB	'LCS_Write_SNA', 00H
	ORG $+2
$SG173647 DB	'ctc_lcs.c', 00H
	ORG $+6
$SG173652 DB	'LCS_Write_SNA', 00H
	ORG $+2
$SG173654 DB	'data', 00H
	ORG $+3
$SG173651 DB	'HHC00980%s %1d:%04X %s: Data of size %d bytes displayed,'
	DB	' data of size %d bytes not displayed', 0aH, 00H
	ORG $+2
$SG173653 DB	'ctc_lcs.c', 00H
	ORG $+6
$SG173656 DB	'ctc_lcs.c:4290', 00H
	ORG $+1
$SG173657 DB	'WSNA ENTRY        ', 00H
	ORG $+5
$SG173659 DB	'ctc_lcs.c:4291', 00H
	ORG $+1
$SG173660 DB	'beg write', 00H
	ORG $+6
$SG173666 DB	'ctc_lcs.c:4326', 00H
	ORG $+1
$SG173667 DB	'WSNA: OCTL & data ', 00H
	ORG $+5
$SG173669 DB	'ctc_lcs.c:4329', 00H
	ORG $+1
$SG173670 DB	'GET  InOutLock    ', 00H
	ORG $+5
$SG173671 DB	'ctc_lcs.c:4330', 00H
	ORG $+1
$SG173673 DB	'ctc_lcs.c:4331', 00H
	ORG $+1
$SG173674 DB	'GOT  InOutLock    ', 00H
	ORG $+5
$SG173679 DB	'ctc_lcs.c:4360', 00H
	ORG $+1
$SG173680 DB	'WSNA: Baffle 1    ', 00H
	ORG $+5
$SG173695 DB	'ctc_lcs.c:4442', 00H
	ORG $+1
$SG173696 DB	'*BAF=Unsupported! ', 00H
	ORG $+5
$SG173697 DB	'LCS: lcs write: unsupported baffle type 0x%4.4X', 00H
$SG173699 DB	'HHC03984%s %s', 0aH, 00H
	ORG $+1
$SG173700 DB	'LCS_Write_SNA', 00H
	ORG $+2
$SG173701 DB	'ctc_lcs.c', 00H
	ORG $+6
$SG173704 DB	'ctc_lcs.c:4455', 00H
	ORG $+1
$SG173705 DB	'WSNA: Cmd frame O ', 00H
	ORG $+5
$SG173708 DB	'ctc_lcs.c:4461', 00H
	ORG $+1
$SG173709 DB	'CMD=Stop LAN SNA  ', 00H
	ORG $+5
$SG173711 DB	'stop lan sna', 00H
	ORG $+3
$SG173713 DB	'HHC00933%s %1d:%04X CTC: executing command %s', 0aH, 00H
	ORG $+1
$SG173714 DB	'LCS_Write_SNA', 00H
	ORG $+2
$SG173715 DB	'ctc_lcs.c', 00H
	ORG $+6
$SG173718 DB	'ctc_lcs.c:4472', 00H
	ORG $+1
$SG173719 DB	'*CMD=Unsupported! ', 00H
	ORG $+5
$SG173721 DB	'other (0x%2.2X)', 00H
$SG173723 DB	'HHC00933%s %1d:%04X CTC: executing command %s', 0aH, 00H
	ORG $+1
$SG173724 DB	'LCS_Write_SNA', 00H
	ORG $+2
$SG173725 DB	'ctc_lcs.c', 00H
	ORG $+6
$SG173728 DB	'ctc_lcs.c:4488', 00H
	ORG $+1
$SG173729 DB	'*WRIT Unsupp frame', 00H
	ORG $+5
$SG173731 DB	'HHC00937%s %1d:%04X CTC: lcs write: unsupported frame ty'
	DB	'pe 0x%2.2X', 0aH, 00H
	ORG $+4
$SG173732 DB	'LCS_Write_SNA', 00H
	ORG $+2
$SG173733 DB	'ctc_lcs.c', 00H
	ORG $+6
$SG173735 DB	'ctc_lcs.c:4491', 00H
	ORG $+1
$SG173736 DB	'REL  InOutLock    ', 00H
	ORG $+5
$SG173737 DB	'ctc_lcs.c:4492', 00H
	ORG $+1
$SG173739 DB	'LCS_Write_SNA', 00H
	ORG $+2
$SG173740 DB	'ctc_lcs.c', 00H
	ORG $+6
$SG173741 DB	'%s(%d) : warning HHC90999W : *** Assertion Failed! *** f'
	DB	'unction: %s', 0aH, 00H
	ORG $+3
$SG173743 DB	'LCS_Write_SNA', 00H
	ORG $+2
$SG173744 DB	'ctc_lcs.c', 00H
	ORG $+6
$SG173748 DB	'ctc_lcs.c:4497', 00H
	ORG $+1
$SG173752 DB	'WSNA EXIT         ', 00H
	ORG $+5
$SG173745 DB	'%s(%d) : warning HHC90999W : *** Assertion Failed! *** f'
	DB	'unction: %s', 0aH, 00H
	ORG $+3
$SG173749 DB	'end write', 00H
	ORG $+6
$SG173751 DB	'ctc_lcs.c:4498', 00H
	ORG $+1
$SG173754 DB	'ctc_lcs.c:4506', 00H
	ORG $+1
$SG173755 DB	'REL  InOutLock    ', 00H
	ORG $+5
$SG173756 DB	'ctc_lcs.c:4507', 00H
	ORG $+1
$SG173758 DB	'ctc_lcs.c:4515', 00H
	ORG $+1
$SG173759 DB	'WSNA: OCTL only   ', 00H
	ORG $+5
$SG173761 DB	'ctc_lcs.c:4540', 00H
	ORG $+1
$SG173762 DB	'WSNA: command     ', 00H
	ORG $+5
$SG173767 DB	'ctc_lcs.c:4570', 00H
	ORG $+1
$SG173768 DB	'WSNA: Cmd frame   ', 00H
	ORG $+5
$SG173771 DB	'ctc_lcs.c:4577', 00H
	ORG $+1
$SG173772 DB	'CMD=Start LAN SNA ', 00H
	ORG $+5
$SG173774 DB	'start lan sna', 00H
	ORG $+2
$SG173776 DB	'HHC00933%s %1d:%04X CTC: executing command %s', 0aH, 00H
	ORG $+1
$SG173777 DB	'LCS_Write_SNA', 00H
	ORG $+2
$SG173778 DB	'ctc_lcs.c', 00H
	ORG $+6
$SG173781 DB	'ctc_lcs.c:4585', 00H
	ORG $+1
$SG173782 DB	'CMD=LAN Stats SNA ', 00H
	ORG $+5
$SG173784 DB	'lan statistics sna', 00H
	ORG $+5
$SG173786 DB	'HHC00933%s %1d:%04X CTC: executing command %s', 0aH, 00H
	ORG $+1
$SG173787 DB	'LCS_Write_SNA', 00H
	ORG $+2
$SG173788 DB	'ctc_lcs.c', 00H
	ORG $+6
$SG173791 DB	'ctc_lcs.c:4594', 00H
	ORG $+1
$SG173792 DB	'*CMD=Unsupported! ', 00H
	ORG $+5
$SG173794 DB	'other (0x%2.2X)', 00H
$SG173796 DB	'HHC00933%s %1d:%04X CTC: executing command %s', 0aH, 00H
	ORG $+1
$SG173797 DB	'LCS_Write_SNA', 00H
	ORG $+2
$SG173798 DB	'ctc_lcs.c', 00H
	ORG $+6
$SG173801 DB	'ctc_lcs.c:4610', 00H
	ORG $+1
$SG173802 DB	'*WRIT Unsupp frame', 00H
	ORG $+5
$SG173804 DB	'HHC00937%s %1d:%04X CTC: lcs write: unsupported frame ty'
	DB	'pe 0x%2.2X', 0aH, 00H
	ORG $+4
$SG173805 DB	'LCS_Write_SNA', 00H
	ORG $+2
$SG173806 DB	'ctc_lcs.c', 00H
	ORG $+6
$SG173808 DB	'LCS_Write_SNA', 00H
	ORG $+2
$SG173809 DB	'ctc_lcs.c', 00H
	ORG $+6
$SG173812 DB	'LCS_Write_SNA', 00H
	ORG $+2
$SG173817 DB	'ctc_lcs.c:4617', 00H
	ORG $+1
$SG173821 DB	'WSNA EXIT         ', 00H
	ORG $+5
$SG173810 DB	'%s(%d) : warning HHC90999W : *** Assertion Failed! *** f'
	DB	'unction: %s', 0aH, 00H
	ORG $+3
$SG173813 DB	'ctc_lcs.c', 00H
	ORG $+6
$SG173820 DB	'ctc_lcs.c:4618', 00H
	ORG $+1
$SG173825 DB	'HHC00936%s %1d:%04X CTC: error writing to file %s: %s', 0aH
	DB	00H
	ORG $+1
$SG173814 DB	'%s(%d) : warning HHC90999W : *** Assertion Failed! *** f'
	DB	'unction: %s', 0aH, 00H
	ORG $+3
$SG173818 DB	'end write', 00H
	ORG $+6
$SG173826 DB	'LCS_Write_SNA', 00H
	ORG $+2
$SG173827 DB	'ctc_lcs.c', 00H
	ORG $+6
$SG173829 DB	'ctc_lcs.c:4649', 00H
	ORG $+1
$SG173830 DB	'end write', 00H
	ORG $+6
$SG173832 DB	'ctc_lcs.c:4650', 00H
	ORG $+1
$SG173833 DB	'WSNA EXIT         ', 00H
	ORG $+5
$SG173880 DB	'LCSCONN not found', 00H
	ORG $+6
$SG173882 DB	'HHC03984%s %s', 0aH, 00H
	ORG $+1
$SG173883 DB	'Process_0D10', 00H
	ORG $+3
$SG173884 DB	'ctc_lcs.c', 00H
	ORG $+6
$SG173888 DB	'LCS: Ignoring over long data of %d bytes!!!', 00H
	ORG $+4
$SG173890 DB	'HHC03984%s %s', 0aH, 00H
	ORG $+1
$SG173891 DB	'Process_0D10', 00H
	ORG $+3
$SG173892 DB	'ctc_lcs.c', 00H
	ORG $+6
$SG173895 DB	'802.3 SNA', 00H
	ORG $+6
$SG173898 DB	'Process_0D10', 00H
	ORG $+3
$SG173910 DB	'LCS: LLC information frame sent: CR=%u, NR=%u, NS=%u', 00H
	ORG $+3
$SG173897 DB	'HHC00983%s %1d:%04X %s: port %2.2X: Send frame of size %'
	DB	'd bytes (with %s packet) to device %s', 0aH, 00H
	ORG $+1
$SG173899 DB	'ctc_lcs.c', 00H
	ORG $+6
$SG173903 DB	'HHC00980%s %1d:%04X %s: Data of size %d bytes displayed,'
	DB	' data of size %d bytes not displayed', 0aH, 00H
	ORG $+2
$SG173904 DB	'Process_0D10', 00H
	ORG $+3
$SG173905 DB	'ctc_lcs.c', 00H
	ORG $+6
$SG173906 DB	'eth frame', 00H
	ORG $+6
$SG173912 DB	'HHC03984%s %s', 0aH, 00H
	ORG $+1
$SG173913 DB	'Process_0D10', 00H
	ORG $+3
$SG173914 DB	'ctc_lcs.c', 00H
	ORG $+6
$SG173916 DB	'ctc_lcs.c:4770', 00H
	ORG $+1
$SG173917 DB	'*WRITE ERR', 00H
	ORG $+5
$SG173973 DB	'LCSCONN not found', 00H
	ORG $+6
$SG173975 DB	'HHC03984%s %s', 0aH, 00H
	ORG $+1
$SG173976 DB	'Process_0D00', 00H
	ORG $+3
$SG173977 DB	'ctc_lcs.c', 00H
	ORG $+6
$SG173979 DB	'802.3 SNA', 00H
	ORG $+6
$SG173982 DB	'Process_0D00', 00H
	ORG $+3
$SG173988 DB	'SABME', 00H
	ORG $+2
$SG173981 DB	'HHC00983%s %1d:%04X %s: port %2.2X: Send frame of size %'
	DB	'd bytes (with %s packet) to device %s', 0aH, 00H
	ORG $+1
$SG173983 DB	'ctc_lcs.c', 00H
	ORG $+6
$SG173984 DB	'eth frame', 00H
	ORG $+6
$SG173989 DB	'LCS: LLC unnumbered frame sent: CR=%u, M=%s', 00H
	ORG $+4
$SG173991 DB	'HHC03984%s %s', 0aH, 00H
	ORG $+1
$SG173992 DB	'Process_0D00', 00H
	ORG $+3
$SG173993 DB	'ctc_lcs.c', 00H
	ORG $+6
$SG173995 DB	'ctc_lcs.c:4864', 00H
	ORG $+1
$SG173996 DB	'*WRITE ERR', 00H
	ORG $+5
$SG174049 DB	'LCSCONN not found', 00H
	ORG $+6
$SG174051 DB	'HHC03984%s %s', 0aH, 00H
	ORG $+1
$SG174052 DB	'Process_8C0B', 00H
	ORG $+3
$SG174053 DB	'ctc_lcs.c', 00H
	ORG $+6
$SG174055 DB	'802.3 SNA', 00H
	ORG $+6
$SG174058 DB	'Process_8C0B', 00H
	ORG $+3
$SG174067 DB	'HHC03984%s %s', 0aH, 00H
	ORG $+1
$SG174136 DB	'LCSCONN', 00H
$SG174057 DB	'HHC00983%s %1d:%04X %s: port %2.2X: Send frame of size %'
	DB	'd bytes (with %s packet) to device %s', 0aH, 00H
	ORG $+1
$SG174059 DB	'ctc_lcs.c', 00H
	ORG $+6
$SG174060 DB	'eth frame', 00H
	ORG $+6
$SG174065 DB	'LCS: LLC unnumbered frame sent: CR=%u, M=%s', 00H
	ORG $+4
$SG174068 DB	'Process_8C0B', 00H
	ORG $+3
$SG174069 DB	'ctc_lcs.c', 00H
	ORG $+6
$SG174071 DB	'ctc_lcs.c:4955', 00H
	ORG $+1
$SG174072 DB	'*WRITE ERR', 00H
	ORG $+5
$SG174128 DB	'ctc_lcs.c:5029', 00H
	ORG $+1
$SG174129 DB	'ctc_lcs.c:5032', 00H
	ORG $+1
$SG174131 DB	'Created LCSCONN Outbound', 00H
	ORG $+7
$SG174133 DB	'HHC03984%s %s', 0aH, 00H
	ORG $+1
$SG174134 DB	'Process_0C0A', 00H
	ORG $+3
$SG174135 DB	'ctc_lcs.c', 00H
	ORG $+6
$SG174140 DB	'Found LCSCONN Inbound', 00H
	ORG $+2
$SG174142 DB	'HHC03984%s %s', 0aH, 00H
	ORG $+1
$SG174143 DB	'Process_0C0A', 00H
	ORG $+3
$SG174144 DB	'ctc_lcs.c', 00H
	ORG $+6
$SG174145 DB	'LCSCONN', 00H
$SG174146 DB	'ctc_lcs.c:5053', 00H
	ORG $+1
$SG174147 DB	'ctc_lcs.c:5056', 00H
	ORG $+1
$SG174149 DB	'Updated LCSCONN Inbound', 00H
$SG174151 DB	'HHC03984%s %s', 0aH, 00H
	ORG $+1
$SG174152 DB	'Process_0C0A', 00H
	ORG $+3
$SG174153 DB	'ctc_lcs.c', 00H
	ORG $+6
$SG174154 DB	'LCSCONN', 00H
$SG174156 DB	'Found and released existing LCSCONN Outbound', 00H
	ORG $+3
$SG174158 DB	'HHC03984%s %s', 0aH, 00H
	ORG $+1
$SG174159 DB	'Process_0C0A', 00H
	ORG $+3
$SG174160 DB	'ctc_lcs.c', 00H
	ORG $+6
$SG174161 DB	'LCSCONN', 00H
$SG174162 DB	'ctc_lcs.c:5087', 00H
	ORG $+1
$SG174163 DB	'ctc_lcs.c:5090', 00H
	ORG $+1
$SG174165 DB	'Created LCSCONN Outbound', 00H
	ORG $+7
$SG174167 DB	'HHC03984%s %s', 0aH, 00H
	ORG $+1
$SG174168 DB	'Process_0C0A', 00H
	ORG $+3
$SG174169 DB	'ctc_lcs.c', 00H
	ORG $+6
$SG174170 DB	'LCSCONN', 00H
$SG174221 DB	'LCSCONN not found', 00H
	ORG $+6
$SG174223 DB	'HHC03984%s %s', 0aH, 00H
	ORG $+1
$SG174224 DB	'Process_0C25', 00H
	ORG $+3
$SG174225 DB	'ctc_lcs.c', 00H
	ORG $+6
$SG174227 DB	'802.3 SNA', 00H
	ORG $+6
$SG174230 DB	'Process_0C25', 00H
	ORG $+3
$SG174236 DB	'TEST', 00H
	ORG $+3
$SG174229 DB	'HHC00983%s %1d:%04X %s: port %2.2X: Send frame of size %'
	DB	'd bytes (with %s packet) to device %s', 0aH, 00H
	ORG $+1
$SG174231 DB	'ctc_lcs.c', 00H
	ORG $+6
$SG174232 DB	'eth frame', 00H
	ORG $+6
$SG174237 DB	'LCS: LLC unnumbered frame sent: CR=%u, M=%s', 00H
	ORG $+4
$SG174239 DB	'HHC03984%s %s', 0aH, 00H
	ORG $+1
$SG174240 DB	'Process_0C25', 00H
	ORG $+3
$SG174241 DB	'ctc_lcs.c', 00H
	ORG $+6
$SG174243 DB	'ctc_lcs.c:5207', 00H
	ORG $+1
$SG174244 DB	'*WRITE ERR', 00H
	ORG $+5
$SG174295 DB	'LCSCONN not found', 00H
	ORG $+6
$SG174297 DB	'HHC03984%s %s', 0aH, 00H
	ORG $+1
$SG174298 DB	'Process_0C22', 00H
	ORG $+3
$SG174299 DB	'ctc_lcs.c', 00H
	ORG $+6
$SG174304 DB	'802.3 SNA', 00H
	ORG $+6
$SG174307 DB	'Process_0C22', 00H
	ORG $+3
$SG174322 DB	'HHC03984%s %s', 0aH, 00H
	ORG $+1
$SG174380 DB	'LCSCONN not found', 00H
	ORG $+6
$SG174306 DB	'HHC00983%s %1d:%04X %s: port %2.2X: Send frame of size %'
	DB	'd bytes (with %s packet) to device %s', 0aH, 00H
	ORG $+1
$SG174308 DB	'ctc_lcs.c', 00H
	ORG $+6
$SG174312 DB	'HHC00980%s %1d:%04X %s: Data of size %d bytes displayed,'
	DB	' data of size %d bytes not displayed', 0aH, 00H
	ORG $+2
$SG174313 DB	'Process_0C22', 00H
	ORG $+3
$SG174314 DB	'ctc_lcs.c', 00H
	ORG $+6
$SG174315 DB	'eth frame', 00H
	ORG $+6
$SG174320 DB	'LCS: LLC unnumbered frame sent: CR=%u, M=%s', 00H
	ORG $+4
$SG174323 DB	'Process_0C22', 00H
	ORG $+3
$SG174324 DB	'ctc_lcs.c', 00H
	ORG $+6
$SG174326 DB	'ctc_lcs.c:5325', 00H
	ORG $+1
$SG174327 DB	'*WRITE ERR', 00H
	ORG $+5
$SG174382 DB	'HHC03984%s %s', 0aH, 00H
	ORG $+1
$SG174383 DB	'Process_8D00', 00H
	ORG $+3
$SG174384 DB	'ctc_lcs.c', 00H
	ORG $+6
$SG174386 DB	'802.3 SNA', 00H
	ORG $+6
$SG174388 DB	'HHC00983%s %1d:%04X %s: port %2.2X: Send frame of size %'
	DB	'd bytes (with %s packet) to device %s', 0aH, 00H
	ORG $+1
$SG174389 DB	'Process_8D00', 00H
	ORG $+3
$SG174390 DB	'ctc_lcs.c', 00H
	ORG $+6
$SG174391 DB	'eth frame', 00H
	ORG $+6
$SG174396 DB	'LCS: LLC unnumbered frame sent: CR=%u, M=%s', 00H
	ORG $+4
$SG174398 DB	'HHC03984%s %s', 0aH, 00H
	ORG $+1
$SG174399 DB	'Process_8D00', 00H
	ORG $+3
$SG174400 DB	'ctc_lcs.c', 00H
	ORG $+6
$SG174402 DB	'ctc_lcs.c:5420', 00H
	ORG $+1
$SG174403 DB	'*WRITE ERR', 00H
	ORG $+5
$SG174449 DB	'LCSCONN not found', 00H
	ORG $+6
$SG174451 DB	'HHC03984%s %s', 0aH, 00H
	ORG $+1
$SG174452 DB	'Process_0C0B', 00H
	ORG $+3
$SG174453 DB	'ctc_lcs.c', 00H
	ORG $+6
$SG174684 DB	'ctc_lcs.c:5792', 00H
	ORG $+1
$SG174685 DB	'GET  PortDataLock ', 00H
	ORG $+5
$SG174686 DB	'ctc_lcs.c:5793', 00H
	ORG $+1
$SG174688 DB	'ctc_lcs.c:5794', 00H
	ORG $+1
$SG174689 DB	'GOT  PortDataLock ', 00H
	ORG $+5
$SG174691 DB	'ctc_lcs.c:5797', 00H
	ORG $+1
$SG174692 DB	'STRTLAN if started', 00H
	ORG $+5
$SG174695 DB	'ctc_lcs.c:5800', 00H
	ORG $+1
$SG174696 DB	'STRTLAN started=NO', 00H
	ORG $+5
$SG174699 DB	'LCS_StartLan_SNA', 00H
	ORG $+7
$SG174700 DB	'ctc_lcs.c', 00H
	ORG $+6
$SG174701 DB	'%s(%d) : warning HHC90999W : *** Assertion Failed! *** f'
	DB	'unction: %s', 0aH, 00H
	ORG $+3
$SG174703 DB	'LCS_StartLan_SNA', 00H
	ORG $+7
$SG174704 DB	'ctc_lcs.c', 00H
	ORG $+6
$SG174705 DB	'%s(%d) : warning HHC90999W : *** Assertion Failed! *** f'
	DB	'unction: %s', 0aH, 00H
	ORG $+3
$SG174708 DB	'ctc_lcs.c:5825', 00H
	ORG $+1
$SG174709 DB	'REL  PortDataLock ', 00H
	ORG $+5
$SG174710 DB	'ctc_lcs.c:5826', 00H
	ORG $+1
$SG174812 DB	'ctc_lcs.c:5922', 00H
	ORG $+1
$SG174813 DB	'GET  PortDataLock ', 00H
	ORG $+5
$SG174814 DB	'ctc_lcs.c:5923', 00H
	ORG $+1
$SG174816 DB	'ctc_lcs.c:5924', 00H
	ORG $+1
$SG174817 DB	'GOT  PortDataLock ', 00H
	ORG $+5
$SG174820 DB	'LCS_StopLan_SNA', 00H
$SG174821 DB	'ctc_lcs.c', 00H
	ORG $+6
$SG174822 DB	'%s(%d) : warning HHC90999W : *** Assertion Failed! *** f'
	DB	'unction: %s', 0aH, 00H
	ORG $+3
$SG174824 DB	'LCS_StopLan_SNA', 00H
$SG174825 DB	'ctc_lcs.c', 00H
	ORG $+6
$SG174829 DB	'ctc_lcs.c:5931', 00H
	ORG $+1
$SG174830 DB	'REL  PortDataLock ', 00H
	ORG $+5
$SG174826 DB	'%s(%d) : warning HHC90999W : *** Assertion Failed! *** f'
	DB	'unction: %s', 0aH, 00H
	ORG $+3
$SG174831 DB	'ctc_lcs.c:5932', 00H
	ORG $+1
$SG174833 DB	'ctc_lcs.c:5946', 00H
	ORG $+1
$SG174834 DB	'GET  DevDataLock  ', 00H
	ORG $+5
$SG174835 DB	'ctc_lcs.c:5947', 00H
	ORG $+1
$SG174837 DB	'ctc_lcs.c:5948', 00H
	ORG $+1
$SG174838 DB	'GOT  DevDataLock  ', 00H
	ORG $+5
$SG174840 DB	'ctc_lcs.c:5953', 00H
	ORG $+1
$SG174841 DB	'REL  DevDataLock  ', 00H
	ORG $+5
$SG174842 DB	'ctc_lcs.c:5954', 00H
	ORG $+1
$SG175103 DB	'LCS: LLC information frame received: CR=%u, NR=%u, NS=%u'
	DB	00H
	ORG $+7
$SG175105 DB	'HHC03984%s %s', 0aH, 00H
	ORG $+1
$SG175106 DB	'LCS_ProcessAccepted_SNA', 00H
$SG175107 DB	'ctc_lcs.c', 00H
	ORG $+6
$SG175109 DB	'LCSCONN not found', 00H
	ORG $+6
$SG175111 DB	'HHC03984%s %s', 0aH, 00H
	ORG $+1
$SG175112 DB	'LCS_ProcessAccepted_SNA', 00H
$SG175113 DB	'ctc_lcs.c', 00H
	ORG $+6
$SG175115 DB	'ctc_lcs.c:6150', 00H
	ORG $+1
$SG175116 DB	'GET  InOutLock    ', 00H
	ORG $+5
$SG175117 DB	'ctc_lcs.c:6151', 00H
	ORG $+1
$SG175119 DB	'ctc_lcs.c:6152', 00H
	ORG $+1
$SG175120 DB	'GOT  InOutLock    ', 00H
	ORG $+5
$SG175124 DB	'802.3 SNA', 00H
	ORG $+6
$SG175127 DB	'LCS_ProcessAccepted_SNA', 00H
$SG175126 DB	'HHC00983%s %1d:%04X %s: port %2.2X: Send frame of size %'
	DB	'd bytes (with %s packet) to device %s', 0aH, 00H
	ORG $+1
$SG175128 DB	'ctc_lcs.c', 00H
	ORG $+6
$SG175129 DB	'eth frame', 00H
	ORG $+6
$SG175133 DB	'Receiver Ready', 00H
	ORG $+1
$SG175134 DB	'LCS: LLC supervisory frame sent: CR=%u, SS=%s, PF=%u, NR'
	DB	'=%u', 00H
	ORG $+4
$SG175136 DB	'HHC03984%s %s', 0aH, 00H
	ORG $+1
$SG175137 DB	'LCS_ProcessAccepted_SNA', 00H
$SG175138 DB	'ctc_lcs.c', 00H
	ORG $+6
$SG175140 DB	'ctc_lcs.c:6259', 00H
	ORG $+1
$SG175141 DB	'*WRITE ERR', 00H
	ORG $+5
$SG175143 DB	'ctc_lcs.c:6263', 00H
	ORG $+1
$SG175144 DB	'REL  InOutLock    ', 00H
	ORG $+5
$SG175145 DB	'ctc_lcs.c:6264', 00H
	ORG $+1
$SG175149 DB	'Receiver Ready', 00H
	ORG $+1
$SG175150 DB	'LCS: LLC supervisory frame received: CR=%u, SS=%s, PF=%u'
	DB	', NR=%u', 00H
$SG175152 DB	'HHC03984%s %s', 0aH, 00H
	ORG $+1
$SG175153 DB	'LCS_ProcessAccepted_SNA', 00H
$SG175154 DB	'ctc_lcs.c', 00H
	ORG $+6
$SG175156 DB	'LCSCONN not found', 00H
	ORG $+6
$SG175158 DB	'HHC03984%s %s', 0aH, 00H
	ORG $+1
$SG175159 DB	'LCS_ProcessAccepted_SNA', 00H
$SG175160 DB	'ctc_lcs.c', 00H
	ORG $+6
$SG175164 DB	'802.3 SNA', 00H
	ORG $+6
$SG175167 DB	'LCS_ProcessAccepted_SNA', 00H
$SG175166 DB	'HHC00983%s %1d:%04X %s: port %2.2X: Send frame of size %'
	DB	'd bytes (with %s packet) to device %s', 0aH, 00H
	ORG $+1
$SG175168 DB	'ctc_lcs.c', 00H
	ORG $+6
$SG175169 DB	'eth frame', 00H
	ORG $+6
$SG175173 DB	'Receiver Ready', 00H
	ORG $+1
$SG175174 DB	'LCS: LLC supervisory frame sent: CR=%u, SS=%s, PF=%u, NR'
	DB	'=%u', 00H
	ORG $+4
$SG175176 DB	'HHC03984%s %s', 0aH, 00H
	ORG $+1
$SG175177 DB	'LCS_ProcessAccepted_SNA', 00H
$SG175178 DB	'ctc_lcs.c', 00H
	ORG $+6
$SG175180 DB	'ctc_lcs.c:6343', 00H
	ORG $+1
$SG175181 DB	'*WRITE ERR', 00H
	ORG $+5
$SG175184 DB	'Receiver Not Ready', 00H
	ORG $+5
$SG175185 DB	'LCS: LLC supervisory frame received: CR=%u, SS=%s, PF=%u'
	DB	', NR=%u', 00H
$SG175187 DB	'HHC03984%s %s', 0aH, 00H
	ORG $+1
$SG175188 DB	'LCS_ProcessAccepted_SNA', 00H
$SG175189 DB	'ctc_lcs.c', 00H
	ORG $+6
$SG175195 DB	'HHC03984%s %s', 0aH, 00H
	ORG $+1
$SG175196 DB	'LCS_ProcessAccepted_SNA', 00H
$SG175193 DB	'LCS: LLC supervisory frame received: CR=%u, SS=%s, PF=%u'
	DB	', NR=%u', 00H
$SG175197 DB	'ctc_lcs.c', 00H
	ORG $+6
$SG175203 DB	'LCS: LLC unnumbered frame received: CR=%u, M=%s', 00H
$SG175205 DB	'HHC03984%s %s', 0aH, 00H
	ORG $+1
$SG175206 DB	'LCS_ProcessAccepted_SNA', 00H
$SG175207 DB	'ctc_lcs.c', 00H
	ORG $+2
$SG175210 DB	'DISC', 00H
	ORG $+7
$SG175211 DB	'LCS: LLC unnumbered frame received: CR=%u, M=%s', 00H
$SG175213 DB	'HHC03984%s %s', 0aH, 00H
	ORG $+1
$SG175214 DB	'LCS_ProcessAccepted_SNA', 00H
$SG175215 DB	'ctc_lcs.c', 00H
	ORG $+6
$SG175217 DB	'LCSCONN not found', 00H
	ORG $+6
$SG175219 DB	'HHC03984%s %s', 0aH, 00H
	ORG $+1
$SG175220 DB	'LCS_ProcessAccepted_SNA', 00H
$SG175221 DB	'ctc_lcs.c', 00H
	ORG $+6
$SG175225 DB	'LCS: LLC unnumbered frame received: CR=%u, M=%s', 00H
$SG175227 DB	'HHC03984%s %s', 0aH, 00H
	ORG $+1
$SG175228 DB	'LCS_ProcessAccepted_SNA', 00H
$SG175229 DB	'ctc_lcs.c', 00H
	ORG $+6
$SG175231 DB	'LCSCONN not found', 00H
	ORG $+6
$SG175233 DB	'HHC03984%s %s', 0aH, 00H
	ORG $+1
$SG175234 DB	'LCS_ProcessAccepted_SNA', 00H
$SG175235 DB	'ctc_lcs.c', 00H
	ORG $+2
$SG175238 DB	'SABME', 00H
	ORG $+6
$SG175239 DB	'LCS: LLC unnumbered frame received: CR=%u, M=%s', 00H
$SG175241 DB	'HHC03984%s %s', 0aH, 00H
	ORG $+1
$SG175242 DB	'LCS_ProcessAccepted_SNA', 00H
$SG175243 DB	'ctc_lcs.c', 00H
	ORG $+6
$SG175245 DB	'LCSCONN not found', 00H
	ORG $+6
$SG175247 DB	'HHC03984%s %s', 0aH, 00H
	ORG $+1
$SG175248 DB	'LCS_ProcessAccepted_SNA', 00H
$SG175249 DB	'ctc_lcs.c', 00H
	ORG $+2
$SG175252 DB	'FRMR', 00H
	ORG $+7
$SG175253 DB	'LCS: LLC unnumbered frame received: CR=%u, M=%s', 00H
$SG175255 DB	'HHC03984%s %s', 0aH, 00H
	ORG $+1
$SG175256 DB	'LCS_ProcessAccepted_SNA', 00H
$SG175257 DB	'ctc_lcs.c', 00H
	ORG $+6
$SG175258 DB	'     CF=%4.4X, NR=%u, NS=%u, V=%u, Z=%u, Y=%u, X=%u, W=%'
	DB	'u', 00H
	ORG $+6
$SG175260 DB	'HHC03984%s %s', 0aH, 00H
	ORG $+1
$SG175261 DB	'LCS_ProcessAccepted_SNA', 00H
$SG175262 DB	'ctc_lcs.c', 00H
	ORG $+6
$SG175266 DB	'LCS: LLC unnumbered frame received: CR=%u, M=%s', 00H
$SG175268 DB	'HHC03984%s %s', 0aH, 00H
	ORG $+1
$SG175269 DB	'LCS_ProcessAccepted_SNA', 00H
$SG175270 DB	'ctc_lcs.c', 00H
	ORG $+6
$SG175274 DB	'LCSCONN not found', 00H
	ORG $+6
$SG175276 DB	'HHC03984%s %s', 0aH, 00H
	ORG $+1
$SG175277 DB	'LCS_ProcessAccepted_SNA', 00H
$SG175278 DB	'ctc_lcs.c', 00H
	ORG $+6
$SG175282 DB	'LCSCONN not found', 00H
	ORG $+6
$SG175284 DB	'HHC03984%s %s', 0aH, 00H
	ORG $+1
$SG175285 DB	'LCS_ProcessAccepted_SNA', 00H
$SG175286 DB	'ctc_lcs.c', 00H
	ORG $+6
$SG175288 DB	'Created LCSCONN Inbound', 00H
$SG175290 DB	'HHC03984%s %s', 0aH, 00H
	ORG $+1
$SG175291 DB	'LCS_ProcessAccepted_SNA', 00H
$SG175292 DB	'ctc_lcs.c', 00H
	ORG $+6
$SG175293 DB	'LCSCONN', 00H
$SG175297 DB	'Found LCSCONN Inbound', 00H
	ORG $+2
$SG175299 DB	'HHC03984%s %s', 0aH, 00H
	ORG $+1
$SG175300 DB	'LCS_ProcessAccepted_SNA', 00H
$SG175301 DB	'ctc_lcs.c', 00H
	ORG $+6
$SG175302 DB	'LCSCONN', 00H
$SG175304 DB	'Found existing LCSCONN Outbound, changed to LCSCONN Inbo'
	DB	'und', 00H
	ORG $+4
$SG175306 DB	'HHC03984%s %s', 0aH, 00H
	ORG $+1
$SG175307 DB	'LCS_ProcessAccepted_SNA', 00H
$SG175308 DB	'ctc_lcs.c', 00H
	ORG $+6
$SG175309 DB	'LCSCONN', 00H
$SG175316 DB	'TEST', 00H
	ORG $+3
$SG175317 DB	'LCS: LLC unnumbered frame received: CR=%u, M=%s', 00H
$SG175319 DB	'HHC03984%s %s', 0aH, 00H
	ORG $+1
$SG175320 DB	'LCS_ProcessAccepted_SNA', 00H
$SG175321 DB	'ctc_lcs.c', 00H
	ORG $+6
$SG175325 DB	'LCSCONN not found', 00H
	ORG $+6
$SG175327 DB	'HHC03984%s %s', 0aH, 00H
	ORG $+1
$SG175328 DB	'LCS_ProcessAccepted_SNA', 00H
$SG175329 DB	'ctc_lcs.c', 00H
	ORG $+6
$SG175331 DB	'802.3 SNA', 00H
	ORG $+6
$SG175333 DB	'HHC00983%s %1d:%04X %s: port %2.2X: Send frame of size %'
	DB	'd bytes (with %s packet) to device %s', 0aH, 00H
	ORG $+1
$SG175334 DB	'LCS_ProcessAccepted_SNA', 00H
$SG175335 DB	'ctc_lcs.c', 00H
	ORG $+6
$SG175336 DB	'eth frame', 00H
	ORG $+2
$SG175340 DB	'TEST', 00H
	ORG $+7
$SG175341 DB	'LCS: LLC unnumbered frame sent: CR=%u, M=%s', 00H
	ORG $+4
$SG175343 DB	'HHC03984%s %s', 0aH, 00H
	ORG $+1
$SG175344 DB	'LCS_ProcessAccepted_SNA', 00H
$SG175345 DB	'ctc_lcs.c', 00H
	ORG $+6
$SG175347 DB	'ctc_lcs.c:6830', 00H
	ORG $+1
$SG175348 DB	'*WRITE ERR', 00H
	ORG $+5
$SG175354 DB	'ctc_lcs.c:6865', 00H
	ORG $+1
$SG175355 DB	'GET  AttnLock', 00H
	ORG $+2
$SG175356 DB	'ctc_lcs.c:6866', 00H
	ORG $+1
$SG175358 DB	'ctc_lcs.c:6867', 00H
	ORG $+1
$SG175359 DB	'GOT  AttnLock', 00H
	ORG $+2
$SG175361 DB	'ctc_lcs.c:6869', 00H
	ORG $+1
$SG175362 DB	'ADD  Attn', 00H
	ORG $+6
$SG175364 DB	'ctc_lcs.c:6873', 00H
	ORG $+1
$SG175365 DB	'REL  AttnLock', 00H
	ORG $+2
$SG175366 DB	'ctc_lcs.c:6874', 00H
	ORG $+1
$SG175368 DB	'ctc_lcs.c:6877', 00H
	ORG $+1
$SG175369 DB	'GET  AttnEventLock ', 00H
	ORG $+4
$SG175370 DB	'ctc_lcs.c:6878', 00H
	ORG $+1
$SG175372 DB	'ctc_lcs.c:6879', 00H
	ORG $+1
$SG175373 DB	'GOT  AttnEventLock ', 00H
	ORG $+4
$SG175375 DB	'ctc_lcs.c:6881', 00H
	ORG $+1
$SG175376 DB	'SIG  AttnEvent', 00H
	ORG $+1
$SG175377 DB	'ctc_lcs.c:6882', 00H
	ORG $+1
$SG175379 DB	'ctc_lcs.c:6884', 00H
	ORG $+1
$SG175380 DB	'REL  AttnEventLock ', 00H
	ORG $+4
$SG175381 DB	'ctc_lcs.c:6885', 00H
	ORG $+1
$SG175384 DB	'HHC00970%s CTC: lcs device port %2.2X: 802.2 LLC error, '
	DB	'discarding frame', 0aH, 00H
	ORG $+6
$SG175385 DB	'LCS_ProcessAccepted_SNA', 00H
$SG175386 DB	'ctc_lcs.c', 00H
	ORG $+6
$SG175457 DB	'ctc_lcs.c:6933', 00H
	ORG $+1
$SG175458 DB	'RSNA: ENTRY       ', 00H
	ORG $+5
$SG175482 DB	'HHC00982%s %1d:%04X %s: Present data of size %d bytes to'
	DB	' guest', 0aH, 00H
$SG175483 DB	'LCS_Read_SNA', 00H
	ORG $+3
$SG175484 DB	'ctc_lcs.c', 00H
	ORG $+6
$SG175488 DB	'HHC00980%s %1d:%04X %s: Data of size %d bytes displayed,'
	DB	' data of size %d bytes not displayed', 0aH, 00H
	ORG $+2
$SG175489 DB	'LCS_Read_SNA', 00H
	ORG $+3
$SG175490 DB	'ctc_lcs.c', 00H
	ORG $+2
$SG175491 DB	'data', 00H
	ORG $+7
$SG175493 DB	'ctc_lcs.c:7155', 00H
	ORG $+1
$SG175494 DB	'RSNA empty buffer ', 00H
	ORG $+5
$SG175496 DB	'ctc_lcs.c:7164', 00H
	ORG $+1
$SG175497 DB	'RSNA: EXIT        ', 00H
	ORG $+5
$SG175559 DB	'malloc(%d)', 00H
	ORG $+5
$SG175561 DB	'HHC00900%s %1d:%04X %s: Error in function %s: %s', 0aH, 00H
	ORG $+6
$SG175562 DB	'alloc_lcs_buffer', 00H
	ORG $+7
$SG175563 DB	'ctc_lcs.c', 00H
	ORG $+6
$SG175571 DB	'ctc_lcs.c:7495', 00H
	ORG $+1
$SG175574 DB	'ctc_lcs.c:7510', 00H
	ORG $+1
$SG175581 DB	'ctc_lcs.c:7523', 00H
	ORG $+1
$SG175584 DB	'ctc_lcs.c:7541', 00H
	ORG $+1
$SG175594 DB	'ctc_lcs.c:7554', 00H
	ORG $+1
$SG175595 DB	'ctc_lcs.c:7570', 00H
	ORG $+1
$SG175615 DB	'malloc(%d)', 00H
	ORG $+5
$SG175617 DB	'HHC00900%s %1d:%04X %s: Error in function %s: %s', 0aH, 00H
	ORG $+6
$SG175618 DB	'alloc_connection', 00H
	ORG $+7
$SG175619 DB	'ctc_lcs.c', 00H
	ORG $+6
$SG175627 DB	'ctc_lcs.c:7623', 00H
	ORG $+1
$SG175628 DB	'ctc_lcs.c:7630', 00H
	ORG $+1
$SG175672 DB	'ctc_lcs.c:7798', 00H
	ORG $+1
$SG175674 DB	'ctc_lcs.c:7816', 00H
	ORG $+1
$SG175682 DB	'ctc_lcs.c:7829', 00H
	ORG $+1
$SG175683 DB	'ctc_lcs.c:7841', 00H
	ORG $+1
$SG175724 DB	'SDL 4.60', 00H
	ORG $+7
$SG175725 DB	'HERCULES', 00H
	ORG $+7
$SG175727 DB	'SDL 4.00', 00H
	ORG $+7
$SG175735 DB	'debug_tt32_stats', 00H
	ORG $+7
$SG175736 DB	'debug_tt32_tracing', 00H
	ORG $+1
$SG175742 DB	'CTCI', 00H
	ORG $+3
$SG175743 DB	'CTCT', 00H
	ORG $+3
$SG175744 DB	'CTCE', 00H
_DATA	ENDS
voltbl	SEGMENT
_volmd	DD	0ffffffffH
	DDSymXIndex: 	FLAT:LCS_DoMulticast
	DD	026H
	DD	0975H
_volmd	DD	0ffffffffH
	DDSymXIndex: 	FLAT:alloc_connection
	DD	016H
	DD	012aH
_volmd	DD	0ffffffffH
	DDSymXIndex: 	FLAT:alloc_lcs_buffer
	DD	01aH
	DD	0156H
_volmd	DD	0ffffffffH
	DDSymXIndex: 	FLAT:Process_8D00
	DD	027H
	DD	04b4H
_volmd	DD	0ffffffffH
	DDSymXIndex: 	FLAT:Process_0C22
	DD	027H
	DD	0651H
_volmd	DD	0ffffffffH
	DDSymXIndex: 	FLAT:Process_0C25
	DD	027H
	DD	0496H
_volmd	DD	0ffffffffH
	DDSymXIndex: 	FLAT:Process_8C0B
	DD	027H
	DD	04c5H
_volmd	DD	0ffffffffH
	DDSymXIndex: 	FLAT:Process_0D00
	DD	027H
	DD	04bbH
_volmd	DD	0ffffffffH
	DDSymXIndex: 	FLAT:Process_0D10
	DD	027H
	DD	06f3H
_volmd	DD	0ffffffffH
	DDSymXIndex: 	FLAT:BuildLLC
	DD	01aH
	DD	03fbH
_volmd	DD	0ffffffffH
	DDSymXIndex: 	FLAT:LCS_ProcessAccepted_SNA
	DD	027H
	DD	02cc8H
_volmd	DD	0ffffffffH
	DDSymXIndex: 	FLAT:LCS_Write_SNA
	DD	025H
	DD	01ca6H
_volmd	DD	0ffffffffH
	DDSymXIndex: 	FLAT:ParseArgs
	DD	02dH
	DD	0d3eH
_volmd	DD	0ffffffffH
	DDSymXIndex: 	FLAT:BuildOAT
	DD	022H
	DD	011aaH
_volmd	DD	0ffffffffH
	DDSymXIndex: 	FLAT:GetIfMACAddress
	DD	018H
	DD	04f0H
_volmd	DD	0ffffffffH
	DDSymXIndex: 	FLAT:GetFrameInfo
	DD	024H
	DD	03caH
_volmd	DD	0ffffffffH
	DDSymXIndex: 	FLAT:LCS_EnqueueReplyFrame
	DD	020H
	DD	0512H
_volmd	DD	0ffffffffH
	DDSymXIndex: 	FLAT:LCS_EnqueueEthFrame
	DD	025H
	DD	04e0H
_volmd	DD	0ffffffffH
	DDSymXIndex: 	FLAT:LCS_AttnThread
	DD	016H
	DD	0903H
_volmd	DD	0ffffffffH
	DDSymXIndex: 	FLAT:LCS_PortThread
	DD	018H
	DD	01a56H
_volmd	DD	0ffffffffH
	DDSymXIndex: 	FLAT:LCS_DefaultCmdProc
	DD	01fH
	DD	0106H
_volmd	DD	0ffffffffH
	DDSymXIndex: 	FLAT:LCS_LanStats
	DD	022H
	DD	0143H
_volmd	DD	0ffffffffH
	DDSymXIndex: 	FLAT:LCS_QueryIPAssists
	DD	01fH
	DD	018aH
_volmd	DD	0ffffffffH
	DDSymXIndex: 	FLAT:LCS_StopLan
	DD	022H
	DD	0347H
_volmd	DD	0ffffffffH
	DDSymXIndex: 	FLAT:LCS_StartLan
	DD	022H
	DD	047eH
_volmd	DD	0ffffffffH
	DDSymXIndex: 	FLAT:LCS_Shutdown
	DD	01fH
	DD	011fH
_volmd	DD	0ffffffffH
	DDSymXIndex: 	FLAT:LCS_Startup
	DD	022H
	DD	0376H
_volmd	DD	0ffffffffH
	DDSymXIndex: 	FLAT:LCS_Assist
	DD	018H
	DD	0337H
_volmd	DD	0ffffffffH
	DDSymXIndex: 	FLAT:LCS_Write
	DD	026H
	DD	01c3eH
_volmd	DD	0ffffffffH
	DDSymXIndex: 	FLAT:LCS_Read
	DD	026H
	DD	0a55H
_volmd	DD	0ffffffffH
	DDSymXIndex: 	FLAT:LCS_Query
	DD	025H
	DD	0282H
_volmd	DD	0ffffffffH
	DDSymXIndex: 	FLAT:LCS_Init
	DD	020H
	DD	014ecH
voltbl	ENDS
;	COMDAT xdata
xdata	SEGMENT
$unwind$fetch_f3_noswap DD 030b01H
	DD	07007220bH
	DD	06006H
xdata	ENDS
;	COMDAT xdata
xdata	SEGMENT
$unwind$fetch_hw_noswap DD 010901H
	DD	02209H
xdata	ENDS
xdata	SEGMENT
$unwind$time DD	010901H
	DD	04209H
$unwind$DebuggerTrace DD 011801H
	DD	0a218H
$unwind$LCS_Init DD 032819H
	DD	0340116H
	DD	0700fH
	DD	imagerel __GSHandlerCheck
	DD	0198H
$unwind$LCS_Close DD 020c01H
	DD	013010cH
$unwind$LCS_Query DD 022d19H
	DD	037011bH
	DD	imagerel __GSHandlerCheck
	DD	01a0H
$unwind$LCS_ExecuteCCW DD 031901H
	DD	07015c219H
	DD	06014H
$unwind$SetSIDInfo DD 021a01H
	DD	07016121aH
$unwind$LCS_Read DD 042e19H
	DD	019011cH
	DD	060147015H
	DD	imagerel __GSHandlerCheck
	DD	0b8H
$unwind$LCS_Write DD 042e19H
	DD	039011cH
	DD	060147015H
	DD	imagerel __GSHandlerCheck
	DD	01b8H
$unwind$LCS_Assist DD 042019H
	DD	015010eH
	DD	060067007H
	DD	imagerel __GSHandlerCheck
	DD	090H
$unwind$LCS_Startup DD 042a19H
	DD	0170118H
	DD	060107011H
	DD	imagerel __GSHandlerCheck
	DD	0a8H
$unwind$LCS_Shutdown DD 032419H
	DD	07011c215H
	DD	06010H
	DD	imagerel __GSHandlerCheck
	DD	050H
$unwind$LCS_StartLan DD 042a19H
	DD	0150118H
	DD	060107011H
	DD	imagerel __GSHandlerCheck
	DD	090H
$unwind$LCS_StopLan DD 042a19H
	DD	0130118H
	DD	060107011H
	DD	imagerel __GSHandlerCheck
	DD	080H
$unwind$LCS_QueryIPAssists DD 032419H
	DD	07011c215H
	DD	06010H
	DD	imagerel __GSHandlerCheck
	DD	058H
$unwind$LCS_LanStats DD 042a19H
	DD	0130118H
	DD	060107011H
	DD	imagerel __GSHandlerCheck
	DD	080H
$unwind$LCS_AddMulticast DD 011301H
	DD	04213H
$unwind$LCS_DelMulticast DD 011301H
	DD	04213H
$unwind$LCS_DefaultCmdProc DD 032419H
	DD	07011c215H
	DD	06010H
	DD	imagerel __GSHandlerCheck
	DD	050H
$unwind$LCS_PortThread DD 042019H
	DD	0141010eH
	DD	060067007H
	DD	imagerel __GSHandlerCheck
	DD	09f0H
$unwind$LCS_AttnThread DD 021e19H
	DD	039010cH
	DD	imagerel __GSHandlerCheck
	DD	01b0H
$unwind$LCS_EnqueueEthFrame DD 022d19H
	DD	017011bH
	DD	imagerel __GSHandlerCheck
	DD	0a8H
$unwind$LCS_DoEnqueueEthFrame DD 031a01H
	DD	07016c21aH
	DD	06015H
$unwind$LCS_EnqueueReplyFrame DD 022819H
	DD	0190116H
	DD	imagerel __GSHandlerCheck
	DD	0b0H
$unwind$LCS_DoEnqueueReplyFrame DD 031501H
	DD	07011c215H
	DD	06010H
$unwind$GetFrameInfo DD 032919H
	DD	07016a21aH
	DD	06015H
	DD	imagerel __GSHandlerCheck
	DD	048H
$unwind$GetIfMACAddress DD 042019H
	DD	023010eH
	DD	060067007H
	DD	imagerel __GSHandlerCheck
	DD	0108H
$unwind$BuildOAT DD 032a19H
	DD	04960118H
	DD	0700bH
	DD	imagerel __GSHandlerCheck
	DD	024a0H
$unwind$ReadOAT DD 011301H
	DD	0e213H
$unwind$ParseArgs DD 043519H
	DD	04210123H
	DD	060157016H
	DD	imagerel __GSHandlerCheck
	DD	020f8H
$unwind$LCS_Read_SNA DD 041c01H
	DD	019011cH
	DD	060147015H
$unwind$LCS_Write_SNA DD 032d19H
	DD	050011bH
	DD	07014H
	DD	imagerel __GSHandlerCheck
	DD	0270H
$unwind$LCS_StartLan_SNA DD 031501H
	DD	07011e215H
	DD	06010H
$unwind$LCS_StopLan_SNA DD 031501H
	DD	07011e215H
	DD	06010H
$unwind$LCS_LanStats_SNA DD 031501H
	DD	070118215H
	DD	06010H
$unwind$LCS_UnsuppCmd_SNA DD 031501H
	DD	070118215H
	DD	06010H
$unwind$LCS_ProcessAccepted_SNA DD 042f19H
	DD	05f011dH
	DD	060157016H
	DD	imagerel __GSHandlerCheck
	DD	02e0H
$unwind$ExtractLLC DD 031501H
	DD	070116215H
	DD	06010H
$unwind$BuildLLC DD 031f19H
	DD	0700c8210H
	DD	0600bH
	DD	imagerel __GSHandlerCheck
	DD	038H
$unwind$Process_0D10 DD 042f19H
	DD	0109011dH
	DD	060157016H
	DD	imagerel __GSHandlerCheck
	DD	0830H
$unwind$Process_0D00 DD 042f19H
	DD	047011dH
	DD	060157016H
	DD	imagerel __GSHandlerCheck
	DD	0220H
$unwind$Process_8C0B DD 042f19H
	DD	047011dH
	DD	060157016H
	DD	imagerel __GSHandlerCheck
	DD	0220H
$unwind$Process_0C0A DD 041d01H
	DD	011011dH
	DD	060157016H
$unwind$Process_0C25 DD 042f19H
	DD	047011dH
	DD	060157016H
	DD	imagerel __GSHandlerCheck
	DD	0220H
$unwind$Process_0C22 DD 042f19H
	DD	081011dH
	DD	060157016H
	DD	imagerel __GSHandlerCheck
	DD	03f0H
$unwind$Process_8D00 DD 042f19H
	DD	047011dH
	DD	060157016H
	DD	imagerel __GSHandlerCheck
	DD	0220H
$unwind$Process_0C0B DD 031a01H
	DD	07016e21aH
	DD	06015H
$unwind$Process_0C99 DD 031a01H
	DD	07016c21aH
	DD	06015H
$unwind$Process_0C0D DD 031a01H
	DD	07016a21aH
	DD	06015H
$unwind$Process_0C0E DD 031a01H
	DD	07016a21aH
	DD	06015H
$unwind$Process_0C98 DD 031a01H
	DD	07016a21aH
	DD	06015H
$unwind$alloc_lcs_buffer DD 022219H
	DD	0190110H
	DD	imagerel __GSHandlerCheck
	DD	0b0H
$unwind$add_lcs_buffer_to_chain DD 010e01H
	DD	0420eH
$unwind$remove_lcs_buffer_from_chain DD 010901H
	DD	06209H
$unwind$remove_and_free_any_lcs_buffers_on_chain DD 010901H
	DD	06209H
$unwind$free_lcs_buffer DD 010e01H
	DD	0420eH
$unwind$alloc_connection DD 021e19H
	DD	017010cH
	DD	imagerel __GSHandlerCheck
	DD	0a8H
$unwind$add_connection_to_chain DD 010e01H
	DD	0420eH
$unwind$find_connection_by_remote_mac DD 010e01H
	DD	0620eH
$unwind$find_connection_by_outbound_token DD 010e01H
	DD	0620eH
$unwind$find_connection_by_inbound_token DD 010e01H
	DD	0620eH
$unwind$remove_connection_from_chain DD 010e01H
	DD	0820eH
$unwind$remove_and_free_any_connections_on_chain DD 010901H
	DD	06209H
$unwind$free_connection DD 020f01H
	DD	0700b320fH
$unwind$find_group_device DD 010e01H
	DD	0220eH
$unwind$LCS_StartChannelProgram DD 010901H
	DD	02209H
$unwind$LCS_EndChannelProgram DD 010901H
	DD	0c209H
$unwind$LCS_BegMWrite DD 010901H
	DD	08209H
$unwind$LCS_EndMWrite DD 011201H
	DD	08212H
$unwind$UpdatePortStarted DD 011201H
	DD	0c212H
$unwind$LCS_DoMulticast DD 042e19H
	DD	05d011cH
	DD	060147015H
	DD	imagerel __GSHandlerCheck
	DD	02d0H
$unwind$lcs_halt_or_clear DD 010901H
	DD	06209H
$unwind$hdl_check_depends_ep DD 010901H
	DD	06209H
$unwind$hdl_register_symbols_ep DD 010901H
	DD	04209H
$unwind$hdl_define_devtypes_ep DD 010901H
	DD	04209H
xdata	ENDS
;	COMDAT xdata
xdata	SEGMENT
$unwind$sscanf DD 011801H
	DD	06218H
xdata	ENDS
;	COMDAT xdata
xdata	SEGMENT
$unwind$_vsscanf_l DD 011801H
	DD	06218H
xdata	ENDS
;	COMDAT xdata
xdata	SEGMENT
$unwind$_vsnprintf_s DD 011801H
	DD	06218H
xdata	ENDS
;	COMDAT xdata
xdata	SEGMENT
$unwind$_vsnprintf_s_l DD 011801H
	DD	0a218H
xdata	ENDS
; Function compile flags: /Odtp
; File C:\papa\MyGit\hyperion-zvector\ctc_lcs.c
_TEXT	SEGMENT
defdev$ = 48
hdl_define_devtypes_ep PROC

; 7929 : HDL_DEVICE_SECTION;

$LN3:
  00000	48 89 4c 24 08	 mov	 QWORD PTR [rsp+8], rcx
  00005	48 83 ec 28	 sub	 rsp, 40			; 00000028H

; 7930 : {
; 7931 :     HDL_DEVICE( LCS, lcs_device_hndinfo );

  00009	48 8d 15 00 00
	00 00		 lea	 rdx, OFFSET FLAT:lcs_device_hndinfo
  00010	48 8d 0d 00 00
	00 00		 lea	 rcx, OFFSET FLAT:$SG175741
  00017	ff 54 24 30	 call	 QWORD PTR defdev$[rsp]

; 7932 : 
; 7933 : // ZZ the following device types should be moved to
; 7934 : // ZZ their own loadable modules
; 7935 : 
; 7936 :     HDL_DEVICE( CTCI, ctci_device_hndinfo );

  0001b	48 8d 15 00 00
	00 00		 lea	 rdx, OFFSET FLAT:ctci_device_hndinfo
  00022	48 8d 0d 00 00
	00 00		 lea	 rcx, OFFSET FLAT:$SG175742
  00029	ff 54 24 30	 call	 QWORD PTR defdev$[rsp]

; 7937 :     HDL_DEVICE( CTCT, ctct_device_hndinfo );

  0002d	48 8d 15 00 00
	00 00		 lea	 rdx, OFFSET FLAT:ctct_device_hndinfo
  00034	48 8d 0d 00 00
	00 00		 lea	 rcx, OFFSET FLAT:$SG175743
  0003b	ff 54 24 30	 call	 QWORD PTR defdev$[rsp]

; 7938 :     HDL_DEVICE( CTCE, ctce_device_hndinfo );

  0003f	48 8d 15 00 00
	00 00		 lea	 rdx, OFFSET FLAT:ctce_device_hndinfo
  00046	48 8d 0d 00 00
	00 00		 lea	 rcx, OFFSET FLAT:$SG175744
  0004d	ff 54 24 30	 call	 QWORD PTR defdev$[rsp]

; 7939 : }
; 7940 : END_DEVICE_SECTION

  00051	48 83 c4 28	 add	 rsp, 40			; 00000028H
  00055	c3		 ret	 0
hdl_define_devtypes_ep ENDP
_TEXT	ENDS
; Function compile flags: /Odtp
; File C:\papa\MyGit\hyperion-zvector\ctc_lcs.c
_TEXT	SEGMENT
regsym$ = 48
hdl_register_symbols_ep PROC

; 7912 : HDL_REGISTER_SECTION;       // ("Register" our entry-points)

$LN3:
  00000	48 89 4c 24 08	 mov	 QWORD PTR [rsp+8], rcx
  00005	48 83 ec 28	 sub	 rsp, 40			; 00000028H

; 7913 : 
; 7914 : //                 Hercules's          Our
; 7915 : //                 registered          overriding
; 7916 : //                 entry-point         entry-point
; 7917 : //                 name                value
; 7918 : 
; 7919 : #if defined( WIN32 )
; 7920 :   HDL_REGISTER ( debug_tt32_stats,   display_tt32_stats        );

  00009	48 8d 15 00 00
	00 00		 lea	 rdx, OFFSET FLAT:display_tt32_stats
  00010	48 8d 0d 00 00
	00 00		 lea	 rcx, OFFSET FLAT:$SG175735
  00017	ff 54 24 30	 call	 QWORD PTR regsym$[rsp]

; 7921 :   HDL_REGISTER ( debug_tt32_tracing, enable_tt32_debug_tracing );

  0001b	48 8d 15 00 00
	00 00		 lea	 rdx, OFFSET FLAT:enable_tt32_debug_tracing
  00022	48 8d 0d 00 00
	00 00		 lea	 rcx, OFFSET FLAT:$SG175736
  00029	ff 54 24 30	 call	 QWORD PTR regsym$[rsp]

; 7922 : #else
; 7923 :   UNREFERENCED( regsym );   // (HDL_REGISTER_SECTION parameter)
; 7924 : #endif
; 7925 : 
; 7926 : END_REGISTER_SECTION

  0002d	48 83 c4 28	 add	 rsp, 40			; 00000028H
  00031	c3		 ret	 0
hdl_register_symbols_ep ENDP
_TEXT	ENDS
; Function compile flags: /Odtp
; File C:\papa\MyGit\hyperion-zvector\ctc_lcs.c
_TEXT	SEGMENT
depchk_rc$ = 32
depchk$ = 64
hdl_check_depends_ep PROC

; 7905 : HDL_DEPENDENCY_SECTION;

$LN11:
  00000	48 89 4c 24 08	 mov	 QWORD PTR [rsp+8], rcx
  00005	48 83 ec 38	 sub	 rsp, 56			; 00000038H
  00009	c7 44 24 20 00
	00 00 00	 mov	 DWORD PTR depchk_rc$[rsp], 0
$LN4@hdl_check_:

; 7906 : {
; 7907 :      HDL_DEPENDENCY(HERCULES);

  00011	41 b8 08 00 00
	00		 mov	 r8d, 8
  00017	48 8d 15 00 00
	00 00		 lea	 rdx, OFFSET FLAT:$SG175724
  0001e	48 8d 0d 00 00
	00 00		 lea	 rcx, OFFSET FLAT:$SG175725
  00025	ff 54 24 40	 call	 QWORD PTR depchk$[rsp]
  00029	85 c0		 test	 eax, eax
  0002b	74 08		 je	 SHORT $LN8@hdl_check_
  0002d	c7 44 24 20 01
	00 00 00	 mov	 DWORD PTR depchk_rc$[rsp], 1
$LN8@hdl_check_:
  00035	33 c0		 xor	 eax, eax
  00037	85 c0		 test	 eax, eax
  00039	75 d6		 jne	 SHORT $LN4@hdl_check_
$LN7@hdl_check_:

; 7908 :      HDL_DEPENDENCY(DEVBLK);

  0003b	41 b8 a0 1b 00
	00		 mov	 r8d, 7072		; 00001ba0H
  00041	48 8d 15 00 00
	00 00		 lea	 rdx, OFFSET FLAT:$SG175727
  00048	48 8d 0d 00 00
	00 00		 lea	 rcx, OFFSET FLAT:$SG175728
  0004f	ff 54 24 40	 call	 QWORD PTR depchk$[rsp]
  00053	85 c0		 test	 eax, eax
  00055	74 08		 je	 SHORT $LN9@hdl_check_
  00057	c7 44 24 20 01
	00 00 00	 mov	 DWORD PTR depchk_rc$[rsp], 1
$LN9@hdl_check_:
  0005f	33 c0		 xor	 eax, eax
  00061	85 c0		 test	 eax, eax
  00063	75 d6		 jne	 SHORT $LN7@hdl_check_

; 7909 : }
; 7910 : END_DEPENDENCY_SECTION

  00065	8b 44 24 20	 mov	 eax, DWORD PTR depchk_rc$[rsp]
  00069	48 83 c4 38	 add	 rsp, 56			; 00000038H
  0006d	c3		 ret	 0
hdl_check_depends_ep ENDP
_TEXT	ENDS
; Function compile flags: /Odtp
; File C:\papa\MyGit\hyperion-zvector\ctc_lcs.c
_TEXT	SEGMENT
pLCSDEV$ = 32
pDEVBLK$ = 64
lcs_halt_or_clear PROC

; 2910 : {

  00000	48 89 4c 24 08	 mov	 QWORD PTR [rsp+8], rcx
  00005	48 83 ec 38	 sub	 rsp, 56			; 00000038H

; 2911 :     PLCSDEV pLCSDEV = (PLCSDEV) pDEVBLK->dev_data;

  00009	48 8b 44 24 40	 mov	 rax, QWORD PTR pDEVBLK$[rsp]
  0000e	48 8b 80 08 06
	00 00		 mov	 rax, QWORD PTR [rax+1544]
  00015	48 89 44 24 20	 mov	 QWORD PTR pLCSDEV$[rsp], rax

; 2912 :     obtain_lock( &pLCSDEV->DevEventLock );

  0001a	48 8b 44 24 20	 mov	 rax, QWORD PTR pLCSDEV$[rsp]
  0001f	48 83 c0 31	 add	 rax, 49			; 00000031H
  00023	48 8d 15 00 00
	00 00		 lea	 rdx, OFFSET FLAT:$SG172351
  0002a	48 8b c8	 mov	 rcx, rax
  0002d	ff 15 00 00 00
	00		 call	 QWORD PTR __imp_hthread_obtain_lock

; 2913 :     {
; 2914 :         if (pLCSDEV->fReadWaiting)

  00033	48 8b 44 24 20	 mov	 rax, QWORD PTR pLCSDEV$[rsp]
  00038	8b 40 41	 mov	 eax, DWORD PTR [rax+65]
  0003b	c1 e8 05	 shr	 eax, 5
  0003e	83 e0 01	 and	 eax, 1
  00041	85 c0		 test	 eax, eax
  00043	74 2c		 je	 SHORT $LN2@lcs_halt_o

; 2915 :         {
; 2916 :             pLCSDEV->fHaltOrClear = 1;

  00045	48 8b 44 24 20	 mov	 rax, QWORD PTR pLCSDEV$[rsp]
  0004a	8b 40 41	 mov	 eax, DWORD PTR [rax+65]
  0004d	83 c8 40	 or	 eax, 64			; 00000040H
  00050	48 8b 4c 24 20	 mov	 rcx, QWORD PTR pLCSDEV$[rsp]
  00055	89 41 41	 mov	 DWORD PTR [rcx+65], eax

; 2917 :             signal_condition( &pLCSDEV->DevEvent );

  00058	48 8b 44 24 20	 mov	 rax, QWORD PTR pLCSDEV$[rsp]
  0005d	48 83 c0 39	 add	 rax, 57			; 00000039H
  00061	48 8d 15 00 00
	00 00		 lea	 rdx, OFFSET FLAT:$SG172353
  00068	48 8b c8	 mov	 rcx, rax
  0006b	ff 15 00 00 00
	00		 call	 QWORD PTR __imp_hthread_signal_condition
$LN2@lcs_halt_o:

; 2918 :         }
; 2919 :     }
; 2920 :     release_lock( &pLCSDEV->DevEventLock );

  00071	48 8b 44 24 20	 mov	 rax, QWORD PTR pLCSDEV$[rsp]
  00076	48 83 c0 31	 add	 rax, 49			; 00000031H
  0007a	48 8d 15 00 00
	00 00		 lea	 rdx, OFFSET FLAT:$SG172354
  00081	48 8b c8	 mov	 rcx, rax
  00084	ff 15 00 00 00
	00		 call	 QWORD PTR __imp_hthread_release_lock

; 2921 : }

  0008a	48 83 c4 38	 add	 rsp, 56			; 00000038H
  0008e	c3		 ret	 0
lcs_halt_or_clear ENDP
_TEXT	ENDS
; Function compile flags: /Odtp
; File C:\papa\MyGit\hyperion-zvector\ctc_lcs.c
_TEXT	SEGMENT
i$ = 96
numpairs$ = 100
rc$ = 104
badrc$ = 108
pLCSPORT$ = 112
iReplyLen$ = 120
errnum$ = 124
pszMAC$ = 128
pLCSIPMFRM$ = 136
pMAC$ = 144
what$ = 152
tv195 = 160
tv244 = 164
tv364 = 168
pIPMFrame$ = 176
tv148 = 184
tv149 = 192
tv280 = 200
tv281 = 208
tv77 = 216
tv197 = 224
tv246 = 232
tv260 = 240
tv366 = 248
tv380 = 256
tv383 = 264
ifr$ = 272
Reply$ = 304
__$ArrayPad$ = 720
ioctlcode$ = 768
pLCSDEV$ = 776
pCmdFrame$ = 784
iCmdLen$ = 792
LCS_DoMulticast PROC

; 1951 : {

  00000	44 89 4c 24 20	 mov	 DWORD PTR [rsp+32], r9d
  00005	4c 89 44 24 18	 mov	 QWORD PTR [rsp+24], r8
  0000a	48 89 54 24 10	 mov	 QWORD PTR [rsp+16], rdx
  0000f	89 4c 24 08	 mov	 DWORD PTR [rsp+8], ecx
  00013	56		 push	 rsi
  00014	57		 push	 rdi
  00015	48 81 ec e8 02
	00 00		 sub	 rsp, 744		; 000002e8H
  0001c	48 8b 05 00 00
	00 00		 mov	 rax, QWORD PTR __security_cookie
  00023	48 33 c4	 xor	 rax, rsp
  00026	48 89 84 24 d0
	02 00 00	 mov	 QWORD PTR __$ArrayPad$[rsp], rax

; 1952 : 
; 1953 :     LCSIPMFRM         Reply;
; 1954 :     int               iReplyLen = sizeof(Reply);  /* Used and changed by INIT_REPLY_FRAME */

  0002e	c7 44 24 78 98
	01 00 00	 mov	 DWORD PTR iReplyLen$[rsp], 408 ; 00000198H

; 1955 :     PLCSIPMFRM        pLCSIPMFRM = (PLCSIPMFRM)&Reply;

  00036	48 8d 84 24 30
	01 00 00	 lea	 rax, QWORD PTR Reply$[rsp]
  0003e	48 89 84 24 88
	00 00 00	 mov	 QWORD PTR pLCSIPMFRM$[rsp], rax

; 1956 :     const LCSIPMFRM*  pIPMFrame;
; 1957 :     LCSPORT*          pLCSPORT;
; 1958 :     const MAC*        pMAC;
; 1959 :     ifreq             ifr = {0};

  00046	48 8d 84 24 10
	01 00 00	 lea	 rax, QWORD PTR ifr$[rsp]
  0004e	48 8b f8	 mov	 rdi, rax
  00051	33 c0		 xor	 eax, eax
  00053	b9 20 00 00 00	 mov	 ecx, 32			; 00000020H
  00058	f3 aa		 rep stosb

; 1960 :     int               rc, badrc = 0, errnum = 0;

  0005a	c7 44 24 6c 00
	00 00 00	 mov	 DWORD PTR badrc$[rsp], 0
  00062	c7 44 24 7c 00
	00 00 00	 mov	 DWORD PTR errnum$[rsp], 0
$LN4@LCS_DoMult:

; 1961 :     U16               i, numpairs;
; 1962 :     char*             pszMAC;
; 1963 :     const char*       what;
; 1964 : 
; 1965 :     // Initialize reply frame
; 1966 : 
; 1967 :     INIT_REPLY_FRAME( pLCSIPMFRM, iReplyLen, pCmdFrame, iCmdLen );

  0006a	8b 44 24 78	 mov	 eax, DWORD PTR iReplyLen$[rsp]
  0006e	39 84 24 18 03
	00 00		 cmp	 DWORD PTR iCmdLen$[rsp], eax
  00075	7c 1c		 jl	 SHORT $LN29@LCS_DoMult
  00077	48 63 44 24 78	 movsxd	 rax, DWORD PTR iReplyLen$[rsp]
  0007c	48 8b bc 24 88
	00 00 00	 mov	 rdi, QWORD PTR pLCSIPMFRM$[rsp]
  00084	48 8b b4 24 10
	03 00 00	 mov	 rsi, QWORD PTR pCmdFrame$[rsp]
  0008c	48 8b c8	 mov	 rcx, rax
  0008f	f3 a4		 rep movsb
  00091	eb 49		 jmp	 SHORT $LN30@LCS_DoMult
$LN29@LCS_DoMult:
  00093	48 63 44 24 78	 movsxd	 rax, DWORD PTR iReplyLen$[rsp]
  00098	48 89 84 24 d8
	00 00 00	 mov	 QWORD PTR tv77[rsp], rax
  000a0	48 8b bc 24 88
	00 00 00	 mov	 rdi, QWORD PTR pLCSIPMFRM$[rsp]
  000a8	33 c0		 xor	 eax, eax
  000aa	48 8b 8c 24 d8
	00 00 00	 mov	 rcx, QWORD PTR tv77[rsp]
  000b2	f3 aa		 rep stosb
  000b4	48 63 84 24 18
	03 00 00	 movsxd	 rax, DWORD PTR iCmdLen$[rsp]
  000bc	48 8b bc 24 88
	00 00 00	 mov	 rdi, QWORD PTR pLCSIPMFRM$[rsp]
  000c4	48 8b b4 24 10
	03 00 00	 mov	 rsi, QWORD PTR pCmdFrame$[rsp]
  000cc	48 8b c8	 mov	 rcx, rax
  000cf	f3 a4		 rep movsb
  000d1	8b 84 24 18 03
	00 00		 mov	 eax, DWORD PTR iCmdLen$[rsp]
  000d8	89 44 24 78	 mov	 DWORD PTR iReplyLen$[rsp], eax
$LN30@LCS_DoMult:
  000dc	33 c9		 xor	 ecx, ecx
  000de	e8 00 00 00 00	 call	 _byteswap_ushort
  000e3	48 8b 8c 24 88
	00 00 00	 mov	 rcx, QWORD PTR pLCSIPMFRM$[rsp]
  000eb	0f b7 d0	 movzx	 edx, ax
  000ee	e8 00 00 00 00	 call	 store_hw_noswap
  000f3	33 c9		 xor	 ecx, ecx
  000f5	e8 00 00 00 00	 call	 _byteswap_ushort
  000fa	48 8b 8c 24 88
	00 00 00	 mov	 rcx, QWORD PTR pLCSIPMFRM$[rsp]
  00102	48 83 c1 08	 add	 rcx, 8
  00106	0f b7 d0	 movzx	 edx, ax
  00109	e8 00 00 00 00	 call	 store_hw_noswap
  0010e	33 c0		 xor	 eax, eax
  00110	85 c0		 test	 eax, eax
  00112	0f 85 52 ff ff
	ff		 jne	 $LN4@LCS_DoMult

; 1968 :     pIPMFrame = (const LCSIPMFRM*) pCmdFrame;

  00118	48 8b 84 24 10
	03 00 00	 mov	 rax, QWORD PTR pCmdFrame$[rsp]
  00120	48 89 84 24 b0
	00 00 00	 mov	 QWORD PTR pIPMFrame$[rsp], rax

; 1969 :     pLCSPORT  = &pLCSDEV->pLCSBLK->Port[ pLCSDEV->bPort ];

  00128	48 8b 84 24 08
	03 00 00	 mov	 rax, QWORD PTR pLCSDEV$[rsp]
  00130	48 8b 40 08	 mov	 rax, QWORD PTR [rax+8]
  00134	48 8b 8c 24 08
	03 00 00	 mov	 rcx, QWORD PTR pLCSDEV$[rsp]
  0013c	0f b6 49 23	 movzx	 ecx, BYTE PTR [rcx+35]
  00140	48 69 c9 98 01
	00 00		 imul	 rcx, rcx, 408		; 00000198H
  00147	48 8d 44 08 60	 lea	 rax, QWORD PTR [rax+rcx+96]
  0014c	48 89 44 24 70	 mov	 QWORD PTR pLCSPORT$[rsp], rax

; 1970 : 
; 1971 :     // Retrieve number of MAC addresses in their request
; 1972 : 
; 1973 :     FETCH_HW( numpairs, pIPMFrame->hwNumIPPairs );

  00151	48 8b 84 24 b0
	00 00 00	 mov	 rax, QWORD PTR pIPMFrame$[rsp]
  00159	48 83 c0 0c	 add	 rax, 12
  0015d	48 8b c8	 mov	 rcx, rax
  00160	e8 00 00 00 00	 call	 fetch_hw_noswap
  00165	0f b7 c8	 movzx	 ecx, ax
  00168	e8 00 00 00 00	 call	 _byteswap_ushort
  0016d	66 89 44 24 64	 mov	 WORD PTR numpairs$[rsp], ax

; 1974 :     if (numpairs > MAX_IP_MAC_PAIRS)

  00172	0f b7 44 24 64	 movzx	 eax, WORD PTR numpairs$[rsp]
  00177	83 f8 20	 cmp	 eax, 32			; 00000020H
  0017a	7e 0a		 jle	 SHORT $LN31@LCS_DoMult

; 1975 :         numpairs = MAX_IP_MAC_PAIRS;

  0017c	b8 20 00 00 00	 mov	 eax, 32			; 00000020H
  00181	66 89 44 24 64	 mov	 WORD PTR numpairs$[rsp], ax
$LN31@LCS_DoMult:

; 1976 : 
; 1977 :     // If tuntap multicast assist is available, use it.
; 1978 :     // Otherwise keep track of guest's request manually.
; 1979 : 
; 1980 :     if (pLCSPORT->fDoMCastAssist)  // (manual multicast assist?)

  00186	48 8b 44 24 70	 mov	 rax, QWORD PTR pLCSPORT$[rsp]
  0018b	8b 80 34 01 00
	00		 mov	 eax, DWORD PTR [rax+308]
  00191	c1 e8 08	 shr	 eax, 8
  00194	83 e0 01	 and	 eax, 1
  00197	85 c0		 test	 eax, eax
  00199	0f 84 8b 04 00
	00		 je	 $LN32@LCS_DoMult

; 1981 :     {
; 1982 :         what = (U32) SIOCADDMULTI == (U32) ioctlcode ? "MACTabAdd"

  0019f	81 bc 24 00 03
	00 00 31 89 00
	00		 cmp	 DWORD PTR ioctlcode$[rsp], 35121 ; 00008931H
  001aa	75 11		 jne	 SHORT $LN59@LCS_DoMult
  001ac	48 8d 05 00 00
	00 00		 lea	 rax, OFFSET FLAT:$SG171323
  001b3	48 89 84 24 c0
	00 00 00	 mov	 QWORD PTR tv149[rsp], rax
  001bb	eb 3d		 jmp	 SHORT $LN60@LCS_DoMult
$LN59@LCS_DoMult:
  001bd	81 bc 24 00 03
	00 00 32 89 00
	00		 cmp	 DWORD PTR ioctlcode$[rsp], 35122 ; 00008932H
  001c8	75 11		 jne	 SHORT $LN57@LCS_DoMult
  001ca	48 8d 05 00 00
	00 00		 lea	 rax, OFFSET FLAT:$SG171324
  001d1	48 89 84 24 b8
	00 00 00	 mov	 QWORD PTR tv148[rsp], rax
  001d9	eb 0f		 jmp	 SHORT $LN58@LCS_DoMult
$LN57@LCS_DoMult:
  001db	48 8d 05 00 00
	00 00		 lea	 rax, OFFSET FLAT:$SG171325
  001e2	48 89 84 24 b8
	00 00 00	 mov	 QWORD PTR tv148[rsp], rax
$LN58@LCS_DoMult:
  001ea	48 8b 84 24 b8
	00 00 00	 mov	 rax, QWORD PTR tv148[rsp]
  001f2	48 89 84 24 c0
	00 00 00	 mov	 QWORD PTR tv149[rsp], rax
$LN60@LCS_DoMult:
  001fa	48 8b 84 24 c0
	00 00 00	 mov	 rax, QWORD PTR tv149[rsp]
  00202	48 89 84 24 98
	00 00 00	 mov	 QWORD PTR what$[rsp], rax

; 1983 :              : (U32) SIOCDELMULTI == (U32) ioctlcode ? "MACTabRem" : "???";
; 1984 : 
; 1985 :         for (i=0, badrc=0; i < numpairs; i++)

  0020a	33 c0		 xor	 eax, eax
  0020c	66 89 44 24 60	 mov	 WORD PTR i$[rsp], ax
  00211	c7 44 24 6c 00
	00 00 00	 mov	 DWORD PTR badrc$[rsp], 0
  00219	eb 0d		 jmp	 SHORT $LN7@LCS_DoMult
$LN5@LCS_DoMult:
  0021b	0f b7 44 24 60	 movzx	 eax, WORD PTR i$[rsp]
  00220	66 ff c0	 inc	 ax
  00223	66 89 44 24 60	 mov	 WORD PTR i$[rsp], ax
$LN7@LCS_DoMult:
  00228	0f b7 44 24 60	 movzx	 eax, WORD PTR i$[rsp]
  0022d	0f b7 4c 24 64	 movzx	 ecx, WORD PTR numpairs$[rsp]
  00232	3b c1		 cmp	 eax, ecx
  00234	0f 8d 48 03 00
	00		 jge	 $LN6@LCS_DoMult

; 1986 :         {
; 1987 :             pMAC = &pIPMFrame->IP_MAC_Pair[i].MAC_Address;

  0023a	0f b7 44 24 60	 movzx	 eax, WORD PTR i$[rsp]
  0023f	48 6b c0 0c	 imul	 rax, rax, 12
  00243	48 8b 8c 24 b0
	00 00 00	 mov	 rcx, QWORD PTR pIPMFrame$[rsp]
  0024b	48 8d 44 01 18	 lea	 rax, QWORD PTR [rcx+rax+24]
  00250	48 89 84 24 90
	00 00 00	 mov	 QWORD PTR pMAC$[rsp], rax

; 1988 : 
; 1989 :             // Remember (or forget) this MAC for later
; 1990 : 
; 1991 :             if ((U32) SIOCADDMULTI == (U32) ioctlcode)

  00258	81 bc 24 00 03
	00 00 31 89 00
	00		 cmp	 DWORD PTR ioctlcode$[rsp], 35121 ; 00008931H
  00263	0f 85 8e 01 00
	00		 jne	 $LN34@LCS_DoMult

; 1992 :             {
; 1993 :                 if ((rc = MACTabAdd( pLCSPORT->MCastTab, (BYTE*) pMAC, 0 )) == 0)

  00269	48 8b 44 24 70	 mov	 rax, QWORD PTR pLCSPORT$[rsp]
  0026e	48 83 c0 18	 add	 rax, 24
  00272	45 33 c0	 xor	 r8d, r8d
  00275	48 8b 94 24 90
	00 00 00	 mov	 rdx, QWORD PTR pMAC$[rsp]
  0027d	48 8b c8	 mov	 rcx, rax
  00280	e8 00 00 00 00	 call	 MACTabAdd
  00285	89 44 24 68	 mov	 DWORD PTR rc$[rsp], eax
  00289	83 7c 24 68 00	 cmp	 DWORD PTR rc$[rsp], 0
  0028e	0f 85 54 01 00
	00		 jne	 $LN36@LCS_DoMult

; 1994 :                 {
; 1995 :                     pLCSPORT->nMCastCount++;

  00294	48 8b 44 24 70	 mov	 rax, QWORD PTR pLCSPORT$[rsp]
  00299	0f b6 40 01	 movzx	 eax, BYTE PTR [rax+1]
  0029d	fe c0		 inc	 al
  0029f	48 8b 4c 24 70	 mov	 rcx, QWORD PTR pLCSPORT$[rsp]
  002a4	88 41 01	 mov	 BYTE PTR [rcx+1], al

; 1996 : 
; 1997 :                     if (pLCSDEV->pLCSBLK->fDebug)

  002a7	48 8b 84 24 08
	03 00 00	 mov	 rax, QWORD PTR pLCSDEV$[rsp]
  002af	48 8b 40 08	 mov	 rax, QWORD PTR [rax+8]
  002b3	8b 40 18	 mov	 eax, DWORD PTR [rax+24]
  002b6	83 e0 01	 and	 eax, 1
  002b9	85 c0		 test	 eax, eax
  002bb	0f 84 25 01 00
	00		 je	 $LN38@LCS_DoMult
$LN10@LCS_DoMult:

; 1998 :                     {
; 1999 :                         VERIFY( FormatMAC( &pszMAC, (BYTE*) pMAC ) == 0);

  002c1	48 8b 94 24 90
	00 00 00	 mov	 rdx, QWORD PTR pMAC$[rsp]
  002c9	48 8d 8c 24 80
	00 00 00	 lea	 rcx, QWORD PTR pszMAC$[rsp]
  002d1	e8 00 00 00 00	 call	 FormatMAC
  002d6	85 c0		 test	 eax, eax
  002d8	74 5c		 je	 SHORT $LN39@LCS_DoMult
$LN13@LCS_DoMult:
  002da	4c 8d 0d 00 00
	00 00		 lea	 r9, OFFSET FLAT:$SG171332
  002e1	41 b8 cf 07 00
	00		 mov	 r8d, 1999		; 000007cfH
  002e7	48 8d 15 00 00
	00 00		 lea	 rdx, OFFSET FLAT:$SG171333
  002ee	48 8d 0d 00 00
	00 00		 lea	 rcx, OFFSET FLAT:$SG171334
  002f5	ff 15 00 00 00
	00		 call	 QWORD PTR __imp_logmsg
  002fb	ff 15 00 00 00
	00		 call	 QWORD PTR __imp_IsDebuggerPresent
  00301	85 c0		 test	 eax, eax
  00303	74 20		 je	 SHORT $LN40@LCS_DoMult
  00305	4c 8d 0d 00 00
	00 00		 lea	 r9, OFFSET FLAT:$SG171336
  0030c	41 b8 cf 07 00
	00		 mov	 r8d, 1999		; 000007cfH
  00312	48 8d 15 00 00
	00 00		 lea	 rdx, OFFSET FLAT:$SG171337
  00319	48 8d 0d 00 00
	00 00		 lea	 rcx, OFFSET FLAT:$SG171338
  00320	e8 00 00 00 00	 call	 DebuggerTrace
$LN40@LCS_DoMult:
  00325	33 c0		 xor	 eax, eax
  00327	85 c0		 test	 eax, eax
  00329	75 af		 jne	 SHORT $LN13@LCS_DoMult
  0032b	ff 15 00 00 00
	00		 call	 QWORD PTR __imp_IsDebuggerPresent
  00331	85 c0		 test	 eax, eax
  00333	74 01		 je	 SHORT $LN41@LCS_DoMult
  00335	cc		 int	 3
$LN41@LCS_DoMult:
$LN39@LCS_DoMult:
  00336	33 c0		 xor	 eax, eax
  00338	85 c0		 test	 eax, eax
  0033a	75 85		 jne	 SHORT $LN10@LCS_DoMult

; 2000 :                         // "CTC: lcs device '%s' port %2.2X: %s %s: ok"
; 2001 :                         WRMSG( HHC00964, "D", pLCSPORT->szNetIfName, pLCSPORT->bPort,

  0033c	48 8b 44 24 70	 mov	 rax, QWORD PTR pLCSPORT$[rsp]
  00341	0f b6 00	 movzx	 eax, BYTE PTR [rax]
  00344	89 84 24 a0 00
	00 00		 mov	 DWORD PTR tv195[rsp], eax
  0034b	48 8b 4c 24 70	 mov	 rcx, QWORD PTR pLCSPORT$[rsp]
  00350	48 81 c1 48 01
	00 00		 add	 rcx, 328		; 00000148H
  00357	48 89 8c 24 e0
	00 00 00	 mov	 QWORD PTR tv197[rsp], rcx
  0035f	b9 01 00 00 00	 mov	 ecx, 1
  00364	ff 15 00 00 00
	00		 call	 QWORD PTR __imp___acrt_iob_func
  0036a	48 8b 8c 24 80
	00 00 00	 mov	 rcx, QWORD PTR pszMAC$[rsp]
  00372	48 89 4c 24 50	 mov	 QWORD PTR [rsp+80], rcx
  00377	48 8b 8c 24 98
	00 00 00	 mov	 rcx, QWORD PTR what$[rsp]
  0037f	48 89 4c 24 48	 mov	 QWORD PTR [rsp+72], rcx
  00384	8b 8c 24 a0 00
	00 00		 mov	 ecx, DWORD PTR tv195[rsp]
  0038b	89 4c 24 40	 mov	 DWORD PTR [rsp+64], ecx
  0038f	48 8b 8c 24 e0
	00 00 00	 mov	 rcx, QWORD PTR tv197[rsp]
  00397	48 89 4c 24 38	 mov	 QWORD PTR [rsp+56], rcx
  0039c	48 8d 0d 00 00
	00 00		 lea	 rcx, OFFSET FLAT:$SG171340
  003a3	48 89 4c 24 30	 mov	 QWORD PTR [rsp+48], rcx
  003a8	48 8d 0d 00 00
	00 00		 lea	 rcx, OFFSET FLAT:$SG171341
  003af	48 89 4c 24 28	 mov	 QWORD PTR [rsp+40], rcx
  003b4	48 89 44 24 20	 mov	 QWORD PTR [rsp+32], rax
  003b9	41 b9 03 00 00
	00		 mov	 r9d, 3
  003bf	4c 8d 05 00 00
	00 00		 lea	 r8, OFFSET FLAT:$SG171342
  003c6	ba d2 07 00 00	 mov	 edx, 2002		; 000007d2H
  003cb	48 8d 0d 00 00
	00 00		 lea	 rcx, OFFSET FLAT:$SG171343
  003d2	ff 15 00 00 00
	00		 call	 QWORD PTR __imp_fwritemsg

; 2002 :                             what, pszMAC );
; 2003 :                         free( pszMAC );

  003d8	48 8b 8c 24 80
	00 00 00	 mov	 rcx, QWORD PTR pszMAC$[rsp]
  003e0	ff 15 00 00 00
	00		 call	 QWORD PTR __imp_free
$LN38@LCS_DoMult:

; 2004 :                     }
; 2005 :                 }

  003e6	eb 0a		 jmp	 SHORT $LN37@LCS_DoMult
$LN36@LCS_DoMult:

; 2006 :                 else
; 2007 :                     badrc = -rc;    // (convert to errno)

  003e8	8b 44 24 68	 mov	 eax, DWORD PTR rc$[rsp]
  003ec	f7 d8		 neg	 eax
  003ee	89 44 24 6c	 mov	 DWORD PTR badrc$[rsp], eax
$LN37@LCS_DoMult:

; 2008 :             }

  003f2	e9 86 01 00 00	 jmp	 $LN35@LCS_DoMult
$LN34@LCS_DoMult:

; 2009 :             else // ((U32) SIOCDELMULTI == (U32) ioctlcode)
; 2010 :             {
; 2011 :                 if ((rc = MACTabRem( pLCSPORT->MCastTab, (BYTE*) pMAC )) == 0)

  003f7	48 8b 44 24 70	 mov	 rax, QWORD PTR pLCSPORT$[rsp]
  003fc	48 83 c0 18	 add	 rax, 24
  00400	48 8b 94 24 90
	00 00 00	 mov	 rdx, QWORD PTR pMAC$[rsp]
  00408	48 8b c8	 mov	 rcx, rax
  0040b	e8 00 00 00 00	 call	 MACTabRem
  00410	89 44 24 68	 mov	 DWORD PTR rc$[rsp], eax
  00414	83 7c 24 68 00	 cmp	 DWORD PTR rc$[rsp], 0
  00419	0f 85 54 01 00
	00		 jne	 $LN42@LCS_DoMult

; 2012 :                 {
; 2013 :                     pLCSPORT->nMCastCount--;

  0041f	48 8b 44 24 70	 mov	 rax, QWORD PTR pLCSPORT$[rsp]
  00424	0f b6 40 01	 movzx	 eax, BYTE PTR [rax+1]
  00428	fe c8		 dec	 al
  0042a	48 8b 4c 24 70	 mov	 rcx, QWORD PTR pLCSPORT$[rsp]
  0042f	88 41 01	 mov	 BYTE PTR [rcx+1], al

; 2014 : 
; 2015 :                     if (pLCSDEV->pLCSBLK->fDebug)

  00432	48 8b 84 24 08
	03 00 00	 mov	 rax, QWORD PTR pLCSDEV$[rsp]
  0043a	48 8b 40 08	 mov	 rax, QWORD PTR [rax+8]
  0043e	8b 40 18	 mov	 eax, DWORD PTR [rax+24]
  00441	83 e0 01	 and	 eax, 1
  00444	85 c0		 test	 eax, eax
  00446	0f 84 25 01 00
	00		 je	 $LN44@LCS_DoMult
$LN16@LCS_DoMult:

; 2016 :                     {
; 2017 :                         VERIFY( FormatMAC( &pszMAC, (BYTE*) pMAC ) == 0);

  0044c	48 8b 94 24 90
	00 00 00	 mov	 rdx, QWORD PTR pMAC$[rsp]
  00454	48 8d 8c 24 80
	00 00 00	 lea	 rcx, QWORD PTR pszMAC$[rsp]
  0045c	e8 00 00 00 00	 call	 FormatMAC
  00461	85 c0		 test	 eax, eax
  00463	74 5c		 je	 SHORT $LN45@LCS_DoMult
$LN19@LCS_DoMult:
  00465	4c 8d 0d 00 00
	00 00		 lea	 r9, OFFSET FLAT:$SG171348
  0046c	41 b8 e1 07 00
	00		 mov	 r8d, 2017		; 000007e1H
  00472	48 8d 15 00 00
	00 00		 lea	 rdx, OFFSET FLAT:$SG171349
  00479	48 8d 0d 00 00
	00 00		 lea	 rcx, OFFSET FLAT:$SG171350
  00480	ff 15 00 00 00
	00		 call	 QWORD PTR __imp_logmsg
  00486	ff 15 00 00 00
	00		 call	 QWORD PTR __imp_IsDebuggerPresent
  0048c	85 c0		 test	 eax, eax
  0048e	74 20		 je	 SHORT $LN46@LCS_DoMult
  00490	4c 8d 0d 00 00
	00 00		 lea	 r9, OFFSET FLAT:$SG171352
  00497	41 b8 e1 07 00
	00		 mov	 r8d, 2017		; 000007e1H
  0049d	48 8d 15 00 00
	00 00		 lea	 rdx, OFFSET FLAT:$SG171353
  004a4	48 8d 0d 00 00
	00 00		 lea	 rcx, OFFSET FLAT:$SG171354
  004ab	e8 00 00 00 00	 call	 DebuggerTrace
$LN46@LCS_DoMult:
  004b0	33 c0		 xor	 eax, eax
  004b2	85 c0		 test	 eax, eax
  004b4	75 af		 jne	 SHORT $LN19@LCS_DoMult
  004b6	ff 15 00 00 00
	00		 call	 QWORD PTR __imp_IsDebuggerPresent
  004bc	85 c0		 test	 eax, eax
  004be	74 01		 je	 SHORT $LN47@LCS_DoMult
  004c0	cc		 int	 3
$LN47@LCS_DoMult:
$LN45@LCS_DoMult:
  004c1	33 c0		 xor	 eax, eax
  004c3	85 c0		 test	 eax, eax
  004c5	75 85		 jne	 SHORT $LN16@LCS_DoMult

; 2018 :                         // "CTC: lcs device '%s' port %2.2X: %s %s: ok"
; 2019 :                         WRMSG( HHC00964, "D", pLCSPORT->szNetIfName, pLCSPORT->bPort,

  004c7	48 8b 44 24 70	 mov	 rax, QWORD PTR pLCSPORT$[rsp]
  004cc	0f b6 00	 movzx	 eax, BYTE PTR [rax]
  004cf	89 84 24 a4 00
	00 00		 mov	 DWORD PTR tv244[rsp], eax
  004d6	48 8b 4c 24 70	 mov	 rcx, QWORD PTR pLCSPORT$[rsp]
  004db	48 81 c1 48 01
	00 00		 add	 rcx, 328		; 00000148H
  004e2	48 89 8c 24 e8
	00 00 00	 mov	 QWORD PTR tv246[rsp], rcx
  004ea	b9 01 00 00 00	 mov	 ecx, 1
  004ef	ff 15 00 00 00
	00		 call	 QWORD PTR __imp___acrt_iob_func
  004f5	48 8b 8c 24 80
	00 00 00	 mov	 rcx, QWORD PTR pszMAC$[rsp]
  004fd	48 89 4c 24 50	 mov	 QWORD PTR [rsp+80], rcx
  00502	48 8b 8c 24 98
	00 00 00	 mov	 rcx, QWORD PTR what$[rsp]
  0050a	48 89 4c 24 48	 mov	 QWORD PTR [rsp+72], rcx
  0050f	8b 8c 24 a4 00
	00 00		 mov	 ecx, DWORD PTR tv244[rsp]
  00516	89 4c 24 40	 mov	 DWORD PTR [rsp+64], ecx
  0051a	48 8b 8c 24 e8
	00 00 00	 mov	 rcx, QWORD PTR tv246[rsp]
  00522	48 89 4c 24 38	 mov	 QWORD PTR [rsp+56], rcx
  00527	48 8d 0d 00 00
	00 00		 lea	 rcx, OFFSET FLAT:$SG171356
  0052e	48 89 4c 24 30	 mov	 QWORD PTR [rsp+48], rcx
  00533	48 8d 0d 00 00
	00 00		 lea	 rcx, OFFSET FLAT:$SG171357
  0053a	48 89 4c 24 28	 mov	 QWORD PTR [rsp+40], rcx
  0053f	48 89 44 24 20	 mov	 QWORD PTR [rsp+32], rax
  00544	41 b9 03 00 00
	00		 mov	 r9d, 3
  0054a	4c 8d 05 00 00
	00 00		 lea	 r8, OFFSET FLAT:$SG171358
  00551	ba e4 07 00 00	 mov	 edx, 2020		; 000007e4H
  00556	48 8d 0d 00 00
	00 00		 lea	 rcx, OFFSET FLAT:$SG171359
  0055d	ff 15 00 00 00
	00		 call	 QWORD PTR __imp_fwritemsg

; 2020 :                             what, pszMAC );
; 2021 :                         free( pszMAC );

  00563	48 8b 8c 24 80
	00 00 00	 mov	 rcx, QWORD PTR pszMAC$[rsp]
  0056b	ff 15 00 00 00
	00		 call	 QWORD PTR __imp_free
$LN44@LCS_DoMult:

; 2022 :                     }
; 2023 :                 }

  00571	eb 0a		 jmp	 SHORT $LN43@LCS_DoMult
$LN42@LCS_DoMult:

; 2024 :                 else
; 2025 :                     badrc = -rc;    // (convert to errno)

  00573	8b 44 24 68	 mov	 eax, DWORD PTR rc$[rsp]
  00577	f7 d8		 neg	 eax
  00579	89 44 24 6c	 mov	 DWORD PTR badrc$[rsp], eax
$LN43@LCS_DoMult:
$LN35@LCS_DoMult:

; 2026 :             }
; 2027 :         }

  0057d	e9 99 fc ff ff	 jmp	 $LN5@LCS_DoMult
$LN6@LCS_DoMult:

; 2028 : 
; 2029 :         // Set return code and issue message if any requests failed.
; 2030 : 
; 2031 :         if (badrc)

  00582	83 7c 24 6c 00	 cmp	 DWORD PTR badrc$[rsp], 0
  00587	0f 84 98 00 00
	00		 je	 $LN48@LCS_DoMult

; 2032 :         {
; 2033 :             errnum = badrc;  // (get errno)

  0058d	8b 44 24 6c	 mov	 eax, DWORD PTR badrc$[rsp]
  00591	89 44 24 7c	 mov	 DWORD PTR errnum$[rsp], eax

; 2034 :             // "CTC: error in function %s: %s"
; 2035 :             WRMSG( HHC00940, "E", what, strerror( errnum ));

  00595	8b 4c 24 7c	 mov	 ecx, DWORD PTR errnum$[rsp]
  00599	ff 15 00 00 00
	00		 call	 QWORD PTR __imp_w32_strerror
  0059f	48 89 84 24 f0
	00 00 00	 mov	 QWORD PTR tv260[rsp], rax
  005a7	b9 01 00 00 00	 mov	 ecx, 1
  005ac	ff 15 00 00 00
	00		 call	 QWORD PTR __imp___acrt_iob_func
  005b2	48 8b 8c 24 f0
	00 00 00	 mov	 rcx, QWORD PTR tv260[rsp]
  005ba	48 89 4c 24 40	 mov	 QWORD PTR [rsp+64], rcx
  005bf	48 8b 8c 24 98
	00 00 00	 mov	 rcx, QWORD PTR what$[rsp]
  005c7	48 89 4c 24 38	 mov	 QWORD PTR [rsp+56], rcx
  005cc	48 8d 0d 00 00
	00 00		 lea	 rcx, OFFSET FLAT:$SG171361
  005d3	48 89 4c 24 30	 mov	 QWORD PTR [rsp+48], rcx
  005d8	48 8d 0d 00 00
	00 00		 lea	 rcx, OFFSET FLAT:$SG171362
  005df	48 89 4c 24 28	 mov	 QWORD PTR [rsp+40], rcx
  005e4	48 89 44 24 20	 mov	 QWORD PTR [rsp+32], rax
  005e9	41 b9 03 00 00
	00		 mov	 r9d, 3
  005ef	4c 8d 05 00 00
	00 00		 lea	 r8, OFFSET FLAT:$SG171363
  005f6	ba f3 07 00 00	 mov	 edx, 2035		; 000007f3H
  005fb	48 8d 0d 00 00
	00 00		 lea	 rcx, OFFSET FLAT:$SG171364
  00602	ff 15 00 00 00
	00		 call	 QWORD PTR __imp_fwritemsg

; 2036 :             STORE_HW( pLCSIPMFRM->bLCSCmdHdr.hwReturnCode, 0xFFFF );

  00608	66 b9 ff ff	 mov	 cx, 65535		; 0000ffffH
  0060c	e8 00 00 00 00	 call	 _byteswap_ushort
  00611	48 8b 8c 24 88
	00 00 00	 mov	 rcx, QWORD PTR pLCSIPMFRM$[rsp]
  00619	48 83 c1 08	 add	 rcx, 8
  0061d	0f b7 d0	 movzx	 edx, ax
  00620	e8 00 00 00 00	 call	 store_hw_noswap
$LN48@LCS_DoMult:

; 2037 :         }
; 2038 :     }

  00625	e9 2e 03 00 00	 jmp	 $LN33@LCS_DoMult
$LN32@LCS_DoMult:

; 2039 :     else // (!pLCSPORT->fDoMCastAssist): let tuntap do it for us
; 2040 :     {
; 2041 :         // Issue ioctl for each MAC address in their request
; 2042 : 
; 2043 :         what = (U32) SIOCADDMULTI == (U32) ioctlcode ? "SIOCADDMULTI"

  0062a	81 bc 24 00 03
	00 00 31 89 00
	00		 cmp	 DWORD PTR ioctlcode$[rsp], 35121 ; 00008931H
  00635	75 11		 jne	 SHORT $LN63@LCS_DoMult
  00637	48 8d 05 00 00
	00 00		 lea	 rax, OFFSET FLAT:$SG171365
  0063e	48 89 84 24 d0
	00 00 00	 mov	 QWORD PTR tv281[rsp], rax
  00646	eb 3d		 jmp	 SHORT $LN64@LCS_DoMult
$LN63@LCS_DoMult:
  00648	81 bc 24 00 03
	00 00 32 89 00
	00		 cmp	 DWORD PTR ioctlcode$[rsp], 35122 ; 00008932H
  00653	75 11		 jne	 SHORT $LN61@LCS_DoMult
  00655	48 8d 05 00 00
	00 00		 lea	 rax, OFFSET FLAT:$SG171366
  0065c	48 89 84 24 c8
	00 00 00	 mov	 QWORD PTR tv280[rsp], rax
  00664	eb 0f		 jmp	 SHORT $LN62@LCS_DoMult
$LN61@LCS_DoMult:
  00666	48 8d 05 00 00
	00 00		 lea	 rax, OFFSET FLAT:$SG171367
  0066d	48 89 84 24 c8
	00 00 00	 mov	 QWORD PTR tv280[rsp], rax
$LN62@LCS_DoMult:
  00675	48 8b 84 24 c8
	00 00 00	 mov	 rax, QWORD PTR tv280[rsp]
  0067d	48 89 84 24 d0
	00 00 00	 mov	 QWORD PTR tv281[rsp], rax
$LN64@LCS_DoMult:
  00685	48 8b 84 24 d0
	00 00 00	 mov	 rax, QWORD PTR tv281[rsp]
  0068d	48 89 84 24 98
	00 00 00	 mov	 QWORD PTR what$[rsp], rax

; 2044 :              : (U32) SIOCDELMULTI == (U32) ioctlcode ? "SIOCDELMULTI" : "???";
; 2045 : 
; 2046 :         STRLCPY( ifr.ifr_name, pLCSPORT->szNetIfName );

  00695	48 8b 44 24 70	 mov	 rax, QWORD PTR pLCSPORT$[rsp]
  0069a	48 05 48 01 00
	00		 add	 rax, 328		; 00000148H
  006a0	41 b8 10 00 00
	00		 mov	 r8d, 16
  006a6	48 8b d0	 mov	 rdx, rax
  006a9	48 8d 8c 24 10
	01 00 00	 lea	 rcx, QWORD PTR ifr$[rsp]
  006b1	ff 15 00 00 00
	00		 call	 QWORD PTR __imp_strlcpy

; 2047 : 
; 2048 : #if defined( SIOCGIFHWADDR )
; 2049 :         for (i=0, badrc=0; i < numpairs; i++)

  006b7	33 c0		 xor	 eax, eax
  006b9	66 89 44 24 60	 mov	 WORD PTR i$[rsp], ax
  006be	c7 44 24 6c 00
	00 00 00	 mov	 DWORD PTR badrc$[rsp], 0
  006c6	eb 0d		 jmp	 SHORT $LN22@LCS_DoMult
$LN20@LCS_DoMult:
  006c8	0f b7 44 24 60	 movzx	 eax, WORD PTR i$[rsp]
  006cd	66 ff c0	 inc	 ax
  006d0	66 89 44 24 60	 mov	 WORD PTR i$[rsp], ax
$LN22@LCS_DoMult:
  006d5	0f b7 44 24 60	 movzx	 eax, WORD PTR i$[rsp]
  006da	0f b7 4c 24 64	 movzx	 ecx, WORD PTR numpairs$[rsp]
  006df	3b c1		 cmp	 eax, ecx
  006e1	0f 8d b5 01 00
	00		 jge	 $LN21@LCS_DoMult

; 2050 :         {
; 2051 :             pMAC = &pIPMFrame->IP_MAC_Pair[i].MAC_Address;

  006e7	0f b7 44 24 60	 movzx	 eax, WORD PTR i$[rsp]
  006ec	48 6b c0 0c	 imul	 rax, rax, 12
  006f0	48 8b 8c 24 b0
	00 00 00	 mov	 rcx, QWORD PTR pIPMFrame$[rsp]
  006f8	48 8d 44 01 18	 lea	 rax, QWORD PTR [rcx+rax+24]
  006fd	48 89 84 24 90
	00 00 00	 mov	 QWORD PTR pMAC$[rsp], rax

; 2052 :             memcpy( ifr.ifr_hwaddr.sa_data, pMAC, sizeof( MAC ));

  00705	48 8d 84 24 22
	01 00 00	 lea	 rax, QWORD PTR ifr$[rsp+18]
  0070d	48 8b f8	 mov	 rdi, rax
  00710	48 8b b4 24 90
	00 00 00	 mov	 rsi, QWORD PTR pMAC$[rsp]
  00718	b9 06 00 00 00	 mov	 ecx, 6
  0071d	f3 a4		 rep movsb

; 2053 : 
; 2054 :             if ((rc = TUNTAP_IOCtl( 0, ioctlcode, (char*) &ifr )) == 0)

  0071f	4c 8d 84 24 10
	01 00 00	 lea	 r8, QWORD PTR ifr$[rsp]
  00727	8b 94 24 00 03
	00 00		 mov	 edx, DWORD PTR ioctlcode$[rsp]
  0072e	33 c9		 xor	 ecx, ecx
  00730	e8 00 00 00 00	 call	 tt32_ioctl
  00735	89 44 24 68	 mov	 DWORD PTR rc$[rsp], eax
  00739	83 7c 24 68 00	 cmp	 DWORD PTR rc$[rsp], 0
  0073e	0f 85 41 01 00
	00		 jne	 $LN49@LCS_DoMult

; 2055 :             {
; 2056 :                 if (pLCSDEV->pLCSBLK->fDebug)

  00744	48 8b 84 24 08
	03 00 00	 mov	 rax, QWORD PTR pLCSDEV$[rsp]
  0074c	48 8b 40 08	 mov	 rax, QWORD PTR [rax+8]
  00750	8b 40 18	 mov	 eax, DWORD PTR [rax+24]
  00753	83 e0 01	 and	 eax, 1
  00756	85 c0		 test	 eax, eax
  00758	0f 84 25 01 00
	00		 je	 $LN51@LCS_DoMult
$LN25@LCS_DoMult:

; 2057 :                 {
; 2058 :                     VERIFY( FormatMAC( &pszMAC, (BYTE*) pMAC ) == 0);

  0075e	48 8b 94 24 90
	00 00 00	 mov	 rdx, QWORD PTR pMAC$[rsp]
  00766	48 8d 8c 24 80
	00 00 00	 lea	 rcx, QWORD PTR pszMAC$[rsp]
  0076e	e8 00 00 00 00	 call	 FormatMAC
  00773	85 c0		 test	 eax, eax
  00775	74 5c		 je	 SHORT $LN52@LCS_DoMult
$LN28@LCS_DoMult:
  00777	4c 8d 0d 00 00
	00 00		 lea	 r9, OFFSET FLAT:$SG171372
  0077e	41 b8 0a 08 00
	00		 mov	 r8d, 2058		; 0000080aH
  00784	48 8d 15 00 00
	00 00		 lea	 rdx, OFFSET FLAT:$SG171373
  0078b	48 8d 0d 00 00
	00 00		 lea	 rcx, OFFSET FLAT:$SG171374
  00792	ff 15 00 00 00
	00		 call	 QWORD PTR __imp_logmsg
  00798	ff 15 00 00 00
	00		 call	 QWORD PTR __imp_IsDebuggerPresent
  0079e	85 c0		 test	 eax, eax
  007a0	74 20		 je	 SHORT $LN53@LCS_DoMult
  007a2	4c 8d 0d 00 00
	00 00		 lea	 r9, OFFSET FLAT:$SG171376
  007a9	41 b8 0a 08 00
	00		 mov	 r8d, 2058		; 0000080aH
  007af	48 8d 15 00 00
	00 00		 lea	 rdx, OFFSET FLAT:$SG171377
  007b6	48 8d 0d 00 00
	00 00		 lea	 rcx, OFFSET FLAT:$SG171378
  007bd	e8 00 00 00 00	 call	 DebuggerTrace
$LN53@LCS_DoMult:
  007c2	33 c0		 xor	 eax, eax
  007c4	85 c0		 test	 eax, eax
  007c6	75 af		 jne	 SHORT $LN28@LCS_DoMult
  007c8	ff 15 00 00 00
	00		 call	 QWORD PTR __imp_IsDebuggerPresent
  007ce	85 c0		 test	 eax, eax
  007d0	74 01		 je	 SHORT $LN54@LCS_DoMult
  007d2	cc		 int	 3
$LN54@LCS_DoMult:
$LN52@LCS_DoMult:
  007d3	33 c0		 xor	 eax, eax
  007d5	85 c0		 test	 eax, eax
  007d7	75 85		 jne	 SHORT $LN25@LCS_DoMult

; 2059 :                     // "CTC: lcs device '%s' port %2.2X: %s %s: ok"
; 2060 :                     WRMSG( HHC00964, "D", pLCSPORT->szNetIfName, pLCSPORT->bPort,

  007d9	48 8b 44 24 70	 mov	 rax, QWORD PTR pLCSPORT$[rsp]
  007de	0f b6 00	 movzx	 eax, BYTE PTR [rax]
  007e1	89 84 24 a8 00
	00 00		 mov	 DWORD PTR tv364[rsp], eax
  007e8	48 8b 4c 24 70	 mov	 rcx, QWORD PTR pLCSPORT$[rsp]
  007ed	48 81 c1 48 01
	00 00		 add	 rcx, 328		; 00000148H
  007f4	48 89 8c 24 f8
	00 00 00	 mov	 QWORD PTR tv366[rsp], rcx
  007fc	b9 01 00 00 00	 mov	 ecx, 1
  00801	ff 15 00 00 00
	00		 call	 QWORD PTR __imp___acrt_iob_func
  00807	48 8b 8c 24 80
	00 00 00	 mov	 rcx, QWORD PTR pszMAC$[rsp]
  0080f	48 89 4c 24 50	 mov	 QWORD PTR [rsp+80], rcx
  00814	48 8b 8c 24 98
	00 00 00	 mov	 rcx, QWORD PTR what$[rsp]
  0081c	48 89 4c 24 48	 mov	 QWORD PTR [rsp+72], rcx
  00821	8b 8c 24 a8 00
	00 00		 mov	 ecx, DWORD PTR tv364[rsp]
  00828	89 4c 24 40	 mov	 DWORD PTR [rsp+64], ecx
  0082c	48 8b 8c 24 f8
	00 00 00	 mov	 rcx, QWORD PTR tv366[rsp]
  00834	48 89 4c 24 38	 mov	 QWORD PTR [rsp+56], rcx
  00839	48 8d 0d 00 00
	00 00		 lea	 rcx, OFFSET FLAT:$SG171380
  00840	48 89 4c 24 30	 mov	 QWORD PTR [rsp+48], rcx
  00845	48 8d 0d 00 00
	00 00		 lea	 rcx, OFFSET FLAT:$SG171381
  0084c	48 89 4c 24 28	 mov	 QWORD PTR [rsp+40], rcx
  00851	48 89 44 24 20	 mov	 QWORD PTR [rsp+32], rax
  00856	41 b9 03 00 00
	00		 mov	 r9d, 3
  0085c	4c 8d 05 00 00
	00 00		 lea	 r8, OFFSET FLAT:$SG171382
  00863	ba 0d 08 00 00	 mov	 edx, 2061		; 0000080dH
  00868	48 8d 0d 00 00
	00 00		 lea	 rcx, OFFSET FLAT:$SG171383
  0086f	ff 15 00 00 00
	00		 call	 QWORD PTR __imp_fwritemsg

; 2061 :                         what, pszMAC );
; 2062 :                     free( pszMAC );

  00875	48 8b 8c 24 80
	00 00 00	 mov	 rcx, QWORD PTR pszMAC$[rsp]
  0087d	ff 15 00 00 00
	00		 call	 QWORD PTR __imp_free
$LN51@LCS_DoMult:

; 2063 :                 }
; 2064 :             }

  00883	eb 12		 jmp	 SHORT $LN50@LCS_DoMult
$LN49@LCS_DoMult:

; 2065 :             else
; 2066 :             {
; 2067 :                 badrc = rc;

  00885	8b 44 24 68	 mov	 eax, DWORD PTR rc$[rsp]
  00889	89 44 24 6c	 mov	 DWORD PTR badrc$[rsp], eax

; 2068 :                 errnum = HSO_errno;

  0088d	ff 15 00 00 00
	00		 call	 QWORD PTR __imp_WSAGetLastError
  00893	89 44 24 7c	 mov	 DWORD PTR errnum$[rsp], eax
$LN50@LCS_DoMult:

; 2069 :             }
; 2070 :         }

  00897	e9 2c fe ff ff	 jmp	 $LN20@LCS_DoMult
$LN21@LCS_DoMult:

; 2071 : 
; 2072 :         // Issue error message if any of the requests failed.
; 2073 : 
; 2074 :         if (badrc)

  0089c	83 7c 24 6c 00	 cmp	 DWORD PTR badrc$[rsp], 0
  008a1	0f 84 b1 00 00
	00		 je	 $LN55@LCS_DoMult

; 2075 :         {
; 2076 :             // "CTC: ioctl %s failed for device %s: %s"
; 2077 :             WRMSG( HHC00941, "E", what, pLCSPORT->szNetIfName, strerror( errnum ));

  008a7	8b 4c 24 7c	 mov	 ecx, DWORD PTR errnum$[rsp]
  008ab	ff 15 00 00 00
	00		 call	 QWORD PTR __imp_w32_strerror
  008b1	48 89 84 24 00
	01 00 00	 mov	 QWORD PTR tv380[rsp], rax
  008b9	48 8b 4c 24 70	 mov	 rcx, QWORD PTR pLCSPORT$[rsp]
  008be	48 81 c1 48 01
	00 00		 add	 rcx, 328		; 00000148H
  008c5	48 89 8c 24 08
	01 00 00	 mov	 QWORD PTR tv383[rsp], rcx
  008cd	b9 01 00 00 00	 mov	 ecx, 1
  008d2	ff 15 00 00 00
	00		 call	 QWORD PTR __imp___acrt_iob_func
  008d8	48 8b 8c 24 00
	01 00 00	 mov	 rcx, QWORD PTR tv380[rsp]
  008e0	48 89 4c 24 48	 mov	 QWORD PTR [rsp+72], rcx
  008e5	48 8b 8c 24 08
	01 00 00	 mov	 rcx, QWORD PTR tv383[rsp]
  008ed	48 89 4c 24 40	 mov	 QWORD PTR [rsp+64], rcx
  008f2	48 8b 8c 24 98
	00 00 00	 mov	 rcx, QWORD PTR what$[rsp]
  008fa	48 89 4c 24 38	 mov	 QWORD PTR [rsp+56], rcx
  008ff	48 8d 0d 00 00
	00 00		 lea	 rcx, OFFSET FLAT:$SG171385
  00906	48 89 4c 24 30	 mov	 QWORD PTR [rsp+48], rcx
  0090b	48 8d 0d 00 00
	00 00		 lea	 rcx, OFFSET FLAT:$SG171386
  00912	48 89 4c 24 28	 mov	 QWORD PTR [rsp+40], rcx
  00917	48 89 44 24 20	 mov	 QWORD PTR [rsp+32], rax
  0091c	41 b9 03 00 00
	00		 mov	 r9d, 3
  00922	4c 8d 05 00 00
	00 00		 lea	 r8, OFFSET FLAT:$SG171387
  00929	ba 1d 08 00 00	 mov	 edx, 2077		; 0000081dH
  0092e	48 8d 0d 00 00
	00 00		 lea	 rcx, OFFSET FLAT:$SG171388
  00935	ff 15 00 00 00
	00		 call	 QWORD PTR __imp_fwritemsg

; 2078 :             STORE_HW( pLCSIPMFRM->bLCSCmdHdr.hwReturnCode, 0xFFFF );

  0093b	66 b9 ff ff	 mov	 cx, 65535		; 0000ffffH
  0093f	e8 00 00 00 00	 call	 _byteswap_ushort
  00944	48 8b 8c 24 88
	00 00 00	 mov	 rcx, QWORD PTR pLCSIPMFRM$[rsp]
  0094c	48 83 c1 08	 add	 rcx, 8
  00950	0f b7 d0	 movzx	 edx, ax
  00953	e8 00 00 00 00	 call	 store_hw_noswap
$LN55@LCS_DoMult:
$LN33@LCS_DoMult:

; 2079 :         }
; 2080 : #endif // defined( SIOCGIFHWADDR )
; 2081 :     }
; 2082 : 
; 2083 :     // Queue response back to caller
; 2084 : 
; 2085 :     LCS_EnqueueReplyFrame( pLCSDEV, (PLCSCMDHDR)pLCSIPMFRM, iReplyLen );

  00958	48 63 44 24 78	 movsxd	 rax, DWORD PTR iReplyLen$[rsp]
  0095d	4c 8b c0	 mov	 r8, rax
  00960	48 8b 94 24 88
	00 00 00	 mov	 rdx, QWORD PTR pLCSIPMFRM$[rsp]
  00968	48 8b 8c 24 08
	03 00 00	 mov	 rcx, QWORD PTR pLCSDEV$[rsp]
  00970	e8 00 00 00 00	 call	 LCS_EnqueueReplyFrame

; 2086 : }

  00975	48 8b 8c 24 d0
	02 00 00	 mov	 rcx, QWORD PTR __$ArrayPad$[rsp]
  0097d	48 33 cc	 xor	 rcx, rsp
  00980	e8 00 00 00 00	 call	 __security_check_cookie
  00985	48 81 c4 e8 02
	00 00		 add	 rsp, 744		; 000002e8H
  0098c	5f		 pop	 rdi
  0098d	5e		 pop	 rsi
  0098e	c3		 ret	 0
LCS_DoMulticast ENDP
_TEXT	ENDS
; Function compile flags: /Odtp
; File C:\papa\MyGit\hyperion-zvector\ctc_lcs.c
_TEXT	SEGMENT
tv174 = 80
tv177 = 84
tv181 = 88
bStarted$ = 112
pDEVBLK$ = 120
pLCSPORT$ = 128
UpdatePortStarted PROC

; 1663 : {

  00000	4c 89 44 24 18	 mov	 QWORD PTR [rsp+24], r8
  00005	48 89 54 24 10	 mov	 QWORD PTR [rsp+16], rdx
  0000a	89 4c 24 08	 mov	 DWORD PTR [rsp+8], ecx
  0000e	48 83 ec 68	 sub	 rsp, 104		; 00000068H
$LN4@UpdatePort:

; 1664 :     PTT_DEBUG(        "GET  PortDataLock ", 000, pDEVBLK->devnum, pLCSPORT->bPort );

  00012	48 8b 05 00 00
	00 00		 mov	 rax, QWORD PTR __imp_pttclass
  00019	48 8b 00	 mov	 rax, QWORD PTR [rax]
  0001c	48 25 00 00 02
	00		 and	 rax, 131072		; 00020000H
  00022	48 85 c0	 test	 rax, rax
  00025	74 46		 je	 SHORT $LN29@UpdatePort
  00027	48 8b 84 24 80
	00 00 00	 mov	 rax, QWORD PTR pLCSPORT$[rsp]
  0002f	0f b6 00	 movzx	 eax, BYTE PTR [rax]
  00032	48 8b 4c 24 78	 mov	 rcx, QWORD PTR pDEVBLK$[rsp]
  00037	0f b7 49 48	 movzx	 ecx, WORD PTR [rcx+72]
  0003b	48 c7 44 24 30
	00 00 00 00	 mov	 QWORD PTR [rsp+48], 0
  00044	48 89 44 24 28	 mov	 QWORD PTR [rsp+40], rax
  00049	48 8d 05 00 00
	00 00		 lea	 rax, OFFSET FLAT:$SG170994
  00050	48 89 44 24 20	 mov	 QWORD PTR [rsp+32], rax
  00055	44 8b c9	 mov	 r9d, ecx
  00058	45 33 c0	 xor	 r8d, r8d
  0005b	48 8d 15 00 00
	00 00		 lea	 rdx, OFFSET FLAT:$SG170995
  00062	b9 00 00 02 00	 mov	 ecx, 131072		; 00020000H
  00067	ff 15 00 00 00
	00		 call	 QWORD PTR __imp_ptt_pthread_trace
$LN29@UpdatePort:
  0006d	33 c0		 xor	 eax, eax
  0006f	85 c0		 test	 eax, eax
  00071	75 9f		 jne	 SHORT $LN4@UpdatePort

; 1665 :     obtain_lock( &pLCSPORT->PortDataLock );

  00073	48 8b 84 24 80
	00 00 00	 mov	 rax, QWORD PTR pLCSPORT$[rsp]
  0007b	48 05 1c 01 00
	00		 add	 rax, 284		; 0000011cH
  00081	48 8d 15 00 00
	00 00		 lea	 rdx, OFFSET FLAT:$SG170996
  00088	48 8b c8	 mov	 rcx, rax
  0008b	ff 15 00 00 00
	00		 call	 QWORD PTR __imp_hthread_obtain_lock
$LN7@UpdatePort:

; 1666 :     PTT_DEBUG(        "GOT  PortDataLock ", 000, pDEVBLK->devnum, pLCSPORT->bPort );

  00091	48 8b 05 00 00
	00 00		 mov	 rax, QWORD PTR __imp_pttclass
  00098	48 8b 00	 mov	 rax, QWORD PTR [rax]
  0009b	48 25 00 00 02
	00		 and	 rax, 131072		; 00020000H
  000a1	48 85 c0	 test	 rax, rax
  000a4	74 46		 je	 SHORT $LN30@UpdatePort
  000a6	48 8b 84 24 80
	00 00 00	 mov	 rax, QWORD PTR pLCSPORT$[rsp]
  000ae	0f b6 00	 movzx	 eax, BYTE PTR [rax]
  000b1	48 8b 4c 24 78	 mov	 rcx, QWORD PTR pDEVBLK$[rsp]
  000b6	0f b7 49 48	 movzx	 ecx, WORD PTR [rcx+72]
  000ba	48 c7 44 24 30
	00 00 00 00	 mov	 QWORD PTR [rsp+48], 0
  000c3	48 89 44 24 28	 mov	 QWORD PTR [rsp+40], rax
  000c8	48 8d 05 00 00
	00 00		 lea	 rax, OFFSET FLAT:$SG170998
  000cf	48 89 44 24 20	 mov	 QWORD PTR [rsp+32], rax
  000d4	44 8b c9	 mov	 r9d, ecx
  000d7	45 33 c0	 xor	 r8d, r8d
  000da	48 8d 15 00 00
	00 00		 lea	 rdx, OFFSET FLAT:$SG170999
  000e1	b9 00 00 02 00	 mov	 ecx, 131072		; 00020000H
  000e6	ff 15 00 00 00
	00		 call	 QWORD PTR __imp_ptt_pthread_trace
$LN30@UpdatePort:
  000ec	33 c0		 xor	 eax, eax
  000ee	85 c0		 test	 eax, eax
  000f0	75 9f		 jne	 SHORT $LN7@UpdatePort
$LN10@UpdatePort:

; 1667 :     {
; 1668 :         // The following will either caise the LCS_PortThread to start
; 1669 :         // reading packets or stop reading packets (fPortStarted = 1/0)
; 1670 : 
; 1671 :         PTT_DEBUG( "UPDTPORTSTARTED   ", bStarted, pDEVBLK->devnum, pLCSPORT->bPort );

  000f2	48 8b 05 00 00
	00 00		 mov	 rax, QWORD PTR __imp_pttclass
  000f9	48 8b 00	 mov	 rax, QWORD PTR [rax]
  000fc	48 25 00 00 02
	00		 and	 rax, 131072		; 00020000H
  00102	48 85 c0	 test	 rax, rax
  00105	74 4b		 je	 SHORT $LN31@UpdatePort
  00107	48 8b 84 24 80
	00 00 00	 mov	 rax, QWORD PTR pLCSPORT$[rsp]
  0010f	0f b6 00	 movzx	 eax, BYTE PTR [rax]
  00112	48 8b 4c 24 78	 mov	 rcx, QWORD PTR pDEVBLK$[rsp]
  00117	0f b7 49 48	 movzx	 ecx, WORD PTR [rcx+72]
  0011b	48 63 54 24 70	 movsxd	 rdx, DWORD PTR bStarted$[rsp]
  00120	48 c7 44 24 30
	00 00 00 00	 mov	 QWORD PTR [rsp+48], 0
  00129	48 89 44 24 28	 mov	 QWORD PTR [rsp+40], rax
  0012e	48 8d 05 00 00
	00 00		 lea	 rax, OFFSET FLAT:$SG171001
  00135	48 89 44 24 20	 mov	 QWORD PTR [rsp+32], rax
  0013a	44 8b c9	 mov	 r9d, ecx
  0013d	4c 8b c2	 mov	 r8, rdx
  00140	48 8d 15 00 00
	00 00		 lea	 rdx, OFFSET FLAT:$SG171002
  00147	b9 00 00 02 00	 mov	 ecx, 131072		; 00020000H
  0014c	ff 15 00 00 00
	00		 call	 QWORD PTR __imp_ptt_pthread_trace
$LN31@UpdatePort:
  00152	33 c0		 xor	 eax, eax
  00154	85 c0		 test	 eax, eax
  00156	75 9a		 jne	 SHORT $LN10@UpdatePort

; 1672 :         pLCSPORT->fPortStarted = bStarted;

  00158	8b 44 24 70	 mov	 eax, DWORD PTR bStarted$[rsp]
  0015c	83 e0 01	 and	 eax, 1
  0015f	c1 e0 03	 shl	 eax, 3
  00162	48 8b 8c 24 80
	00 00 00	 mov	 rcx, QWORD PTR pLCSPORT$[rsp]
  0016a	8b 89 34 01 00
	00		 mov	 ecx, DWORD PTR [rcx+308]
  00170	83 e1 f7	 and	 ecx, -9			; fffffff7H
  00173	0b c8		 or	 ecx, eax
  00175	8b c1		 mov	 eax, ecx
  00177	48 8b 8c 24 80
	00 00 00	 mov	 rcx, QWORD PTR pLCSPORT$[rsp]
  0017f	89 81 34 01 00
	00		 mov	 DWORD PTR [rcx+308], eax
$LN13@UpdatePort:

; 1673 :     }
; 1674 :     PTT_DEBUG(         "REL  PortDataLock ", 000, pDEVBLK->devnum, pLCSPORT->bPort );

  00185	48 8b 05 00 00
	00 00		 mov	 rax, QWORD PTR __imp_pttclass
  0018c	48 8b 00	 mov	 rax, QWORD PTR [rax]
  0018f	48 25 00 00 02
	00		 and	 rax, 131072		; 00020000H
  00195	48 85 c0	 test	 rax, rax
  00198	74 46		 je	 SHORT $LN32@UpdatePort
  0019a	48 8b 84 24 80
	00 00 00	 mov	 rax, QWORD PTR pLCSPORT$[rsp]
  001a2	0f b6 00	 movzx	 eax, BYTE PTR [rax]
  001a5	48 8b 4c 24 78	 mov	 rcx, QWORD PTR pDEVBLK$[rsp]
  001aa	0f b7 49 48	 movzx	 ecx, WORD PTR [rcx+72]
  001ae	48 c7 44 24 30
	00 00 00 00	 mov	 QWORD PTR [rsp+48], 0
  001b7	48 89 44 24 28	 mov	 QWORD PTR [rsp+40], rax
  001bc	48 8d 05 00 00
	00 00		 lea	 rax, OFFSET FLAT:$SG171004
  001c3	48 89 44 24 20	 mov	 QWORD PTR [rsp+32], rax
  001c8	44 8b c9	 mov	 r9d, ecx
  001cb	45 33 c0	 xor	 r8d, r8d
  001ce	48 8d 15 00 00
	00 00		 lea	 rdx, OFFSET FLAT:$SG171005
  001d5	b9 00 00 02 00	 mov	 ecx, 131072		; 00020000H
  001da	ff 15 00 00 00
	00		 call	 QWORD PTR __imp_ptt_pthread_trace
$LN32@UpdatePort:
  001e0	33 c0		 xor	 eax, eax
  001e2	85 c0		 test	 eax, eax
  001e4	75 9f		 jne	 SHORT $LN13@UpdatePort

; 1675 :     release_lock( &pLCSPORT->PortDataLock );

  001e6	48 8b 84 24 80
	00 00 00	 mov	 rax, QWORD PTR pLCSPORT$[rsp]
  001ee	48 05 1c 01 00
	00		 add	 rax, 284		; 0000011cH
  001f4	48 8d 15 00 00
	00 00		 lea	 rdx, OFFSET FLAT:$SG171006
  001fb	48 8b c8	 mov	 rcx, rax
  001fe	ff 15 00 00 00
	00		 call	 QWORD PTR __imp_hthread_release_lock

; 1676 : 
; 1677 :     if (pDEVBLK->ccwtrace || pLCSPORT->pLCSBLK->fDebug)

  00204	48 8b 44 24 78	 mov	 rax, QWORD PTR pDEVBLK$[rsp]
  00209	8b 80 f8 05 00
	00		 mov	 eax, DWORD PTR [rax+1528]
  0020f	c1 e8 0f	 shr	 eax, 15
  00212	83 e0 01	 and	 eax, 1
  00215	85 c0		 test	 eax, eax
  00217	75 1a		 jne	 SHORT $LN34@UpdatePort
  00219	48 8b 84 24 80
	00 00 00	 mov	 rax, QWORD PTR pLCSPORT$[rsp]
  00221	48 8b 40 10	 mov	 rax, QWORD PTR [rax+16]
  00225	8b 40 18	 mov	 eax, DWORD PTR [rax+24]
  00228	83 e0 01	 and	 eax, 1
  0022b	85 c0		 test	 eax, eax
  0022d	0f 84 8a 00 00
	00		 je	 $LN33@UpdatePort
$LN34@UpdatePort:

; 1678 :         // "%1d:%04X CTC: lcs triggering port %2.2X event"
; 1679 :         WRMSG( HHC00966, "I", SSID_TO_LCSS( pDEVBLK->ssid ), pDEVBLK->devnum, pLCSPORT->bPort );

  00233	48 8b 84 24 80
	00 00 00	 mov	 rax, QWORD PTR pLCSPORT$[rsp]
  0023b	0f b6 00	 movzx	 eax, BYTE PTR [rax]
  0023e	89 44 24 50	 mov	 DWORD PTR tv174[rsp], eax
  00242	48 8b 4c 24 78	 mov	 rcx, QWORD PTR pDEVBLK$[rsp]
  00247	0f b7 49 48	 movzx	 ecx, WORD PTR [rcx+72]
  0024b	89 4c 24 54	 mov	 DWORD PTR tv177[rsp], ecx
  0024f	48 8b 54 24 78	 mov	 rdx, QWORD PTR pDEVBLK$[rsp]
  00254	0f b7 52 44	 movzx	 edx, WORD PTR [rdx+68]
  00258	d1 fa		 sar	 edx, 1
  0025a	89 54 24 58	 mov	 DWORD PTR tv181[rsp], edx
  0025e	b9 01 00 00 00	 mov	 ecx, 1
  00263	ff 15 00 00 00
	00		 call	 QWORD PTR __imp___acrt_iob_func
  00269	8b 4c 24 50	 mov	 ecx, DWORD PTR tv174[rsp]
  0026d	89 4c 24 48	 mov	 DWORD PTR [rsp+72], ecx
  00271	8b 4c 24 54	 mov	 ecx, DWORD PTR tv177[rsp]
  00275	89 4c 24 40	 mov	 DWORD PTR [rsp+64], ecx
  00279	8b 4c 24 58	 mov	 ecx, DWORD PTR tv181[rsp]
  0027d	89 4c 24 38	 mov	 DWORD PTR [rsp+56], ecx
  00281	48 8d 0d 00 00
	00 00		 lea	 rcx, OFFSET FLAT:$SG171009
  00288	48 89 4c 24 30	 mov	 QWORD PTR [rsp+48], rcx
  0028d	48 8d 0d 00 00
	00 00		 lea	 rcx, OFFSET FLAT:$SG171010
  00294	48 89 4c 24 28	 mov	 QWORD PTR [rsp+40], rcx
  00299	48 89 44 24 20	 mov	 QWORD PTR [rsp+32], rax
  0029e	41 b9 03 00 00
	00		 mov	 r9d, 3
  002a4	4c 8d 05 00 00
	00 00		 lea	 r8, OFFSET FLAT:$SG171011
  002ab	ba 8f 06 00 00	 mov	 edx, 1679		; 0000068fH
  002b0	48 8d 0d 00 00
	00 00		 lea	 rcx, OFFSET FLAT:$SG171012
  002b7	ff 15 00 00 00
	00		 call	 QWORD PTR __imp_fwritemsg
$LN33@UpdatePort:
$LN16@UpdatePort:

; 1680 : 
; 1681 :     PTT_DEBUG(        "GET  PortEventLock", 000, pDEVBLK->devnum, pLCSPORT->bPort );

  002bd	48 8b 05 00 00
	00 00		 mov	 rax, QWORD PTR __imp_pttclass
  002c4	48 8b 00	 mov	 rax, QWORD PTR [rax]
  002c7	48 25 00 00 02
	00		 and	 rax, 131072		; 00020000H
  002cd	48 85 c0	 test	 rax, rax
  002d0	74 46		 je	 SHORT $LN35@UpdatePort
  002d2	48 8b 84 24 80
	00 00 00	 mov	 rax, QWORD PTR pLCSPORT$[rsp]
  002da	0f b6 00	 movzx	 eax, BYTE PTR [rax]
  002dd	48 8b 4c 24 78	 mov	 rcx, QWORD PTR pDEVBLK$[rsp]
  002e2	0f b7 49 48	 movzx	 ecx, WORD PTR [rcx+72]
  002e6	48 c7 44 24 30
	00 00 00 00	 mov	 QWORD PTR [rsp+48], 0
  002ef	48 89 44 24 28	 mov	 QWORD PTR [rsp+40], rax
  002f4	48 8d 05 00 00
	00 00		 lea	 rax, OFFSET FLAT:$SG171014
  002fb	48 89 44 24 20	 mov	 QWORD PTR [rsp+32], rax
  00300	44 8b c9	 mov	 r9d, ecx
  00303	45 33 c0	 xor	 r8d, r8d
  00306	48 8d 15 00 00
	00 00		 lea	 rdx, OFFSET FLAT:$SG171015
  0030d	b9 00 00 02 00	 mov	 ecx, 131072		; 00020000H
  00312	ff 15 00 00 00
	00		 call	 QWORD PTR __imp_ptt_pthread_trace
$LN35@UpdatePort:
  00318	33 c0		 xor	 eax, eax
  0031a	85 c0		 test	 eax, eax
  0031c	75 9f		 jne	 SHORT $LN16@UpdatePort

; 1682 :     obtain_lock( &pLCSPORT->PortEventLock );

  0031e	48 8b 84 24 80
	00 00 00	 mov	 rax, QWORD PTR pLCSPORT$[rsp]
  00326	48 05 24 01 00
	00		 add	 rax, 292		; 00000124H
  0032c	48 8d 15 00 00
	00 00		 lea	 rdx, OFFSET FLAT:$SG171016
  00333	48 8b c8	 mov	 rcx, rax
  00336	ff 15 00 00 00
	00		 call	 QWORD PTR __imp_hthread_obtain_lock
$LN19@UpdatePort:

; 1683 :     PTT_DEBUG(        "GOT  PortEventLock", 000, pDEVBLK->devnum, pLCSPORT->bPort );

  0033c	48 8b 05 00 00
	00 00		 mov	 rax, QWORD PTR __imp_pttclass
  00343	48 8b 00	 mov	 rax, QWORD PTR [rax]
  00346	48 25 00 00 02
	00		 and	 rax, 131072		; 00020000H
  0034c	48 85 c0	 test	 rax, rax
  0034f	74 46		 je	 SHORT $LN36@UpdatePort
  00351	48 8b 84 24 80
	00 00 00	 mov	 rax, QWORD PTR pLCSPORT$[rsp]
  00359	0f b6 00	 movzx	 eax, BYTE PTR [rax]
  0035c	48 8b 4c 24 78	 mov	 rcx, QWORD PTR pDEVBLK$[rsp]
  00361	0f b7 49 48	 movzx	 ecx, WORD PTR [rcx+72]
  00365	48 c7 44 24 30
	00 00 00 00	 mov	 QWORD PTR [rsp+48], 0
  0036e	48 89 44 24 28	 mov	 QWORD PTR [rsp+40], rax
  00373	48 8d 05 00 00
	00 00		 lea	 rax, OFFSET FLAT:$SG171018
  0037a	48 89 44 24 20	 mov	 QWORD PTR [rsp+32], rax
  0037f	44 8b c9	 mov	 r9d, ecx
  00382	45 33 c0	 xor	 r8d, r8d
  00385	48 8d 15 00 00
	00 00		 lea	 rdx, OFFSET FLAT:$SG171019
  0038c	b9 00 00 02 00	 mov	 ecx, 131072		; 00020000H
  00391	ff 15 00 00 00
	00		 call	 QWORD PTR __imp_ptt_pthread_trace
$LN36@UpdatePort:
  00397	33 c0		 xor	 eax, eax
  00399	85 c0		 test	 eax, eax
  0039b	75 9f		 jne	 SHORT $LN19@UpdatePort
$LN22@UpdatePort:

; 1684 :     {
; 1685 :         // Wake up the LCS_PortThread...
; 1686 : 
; 1687 :         PTT_DEBUG(             "SIG  PortEvent    ", 000, pDEVBLK->devnum, pLCSPORT->bPort );

  0039d	48 8b 05 00 00
	00 00		 mov	 rax, QWORD PTR __imp_pttclass
  003a4	48 8b 00	 mov	 rax, QWORD PTR [rax]
  003a7	48 25 00 00 02
	00		 and	 rax, 131072		; 00020000H
  003ad	48 85 c0	 test	 rax, rax
  003b0	74 46		 je	 SHORT $LN37@UpdatePort
  003b2	48 8b 84 24 80
	00 00 00	 mov	 rax, QWORD PTR pLCSPORT$[rsp]
  003ba	0f b6 00	 movzx	 eax, BYTE PTR [rax]
  003bd	48 8b 4c 24 78	 mov	 rcx, QWORD PTR pDEVBLK$[rsp]
  003c2	0f b7 49 48	 movzx	 ecx, WORD PTR [rcx+72]
  003c6	48 c7 44 24 30
	00 00 00 00	 mov	 QWORD PTR [rsp+48], 0
  003cf	48 89 44 24 28	 mov	 QWORD PTR [rsp+40], rax
  003d4	48 8d 05 00 00
	00 00		 lea	 rax, OFFSET FLAT:$SG171021
  003db	48 89 44 24 20	 mov	 QWORD PTR [rsp+32], rax
  003e0	44 8b c9	 mov	 r9d, ecx
  003e3	45 33 c0	 xor	 r8d, r8d
  003e6	48 8d 15 00 00
	00 00		 lea	 rdx, OFFSET FLAT:$SG171022
  003ed	b9 00 00 02 00	 mov	 ecx, 131072		; 00020000H
  003f2	ff 15 00 00 00
	00		 call	 QWORD PTR __imp_ptt_pthread_trace
$LN37@UpdatePort:
  003f8	33 c0		 xor	 eax, eax
  003fa	85 c0		 test	 eax, eax
  003fc	75 9f		 jne	 SHORT $LN22@UpdatePort

; 1688 :         signal_condition( &pLCSPORT->PortEvent );

  003fe	48 8b 84 24 80
	00 00 00	 mov	 rax, QWORD PTR pLCSPORT$[rsp]
  00406	48 05 2c 01 00
	00		 add	 rax, 300		; 0000012cH
  0040c	48 8d 15 00 00
	00 00		 lea	 rdx, OFFSET FLAT:$SG171023
  00413	48 8b c8	 mov	 rcx, rax
  00416	ff 15 00 00 00
	00		 call	 QWORD PTR __imp_hthread_signal_condition
$LN25@UpdatePort:

; 1689 :     }
; 1690 :     PTT_DEBUG(         "REL  PortEventLock", 000, pDEVBLK->devnum, pLCSPORT->bPort );

  0041c	48 8b 05 00 00
	00 00		 mov	 rax, QWORD PTR __imp_pttclass
  00423	48 8b 00	 mov	 rax, QWORD PTR [rax]
  00426	48 25 00 00 02
	00		 and	 rax, 131072		; 00020000H
  0042c	48 85 c0	 test	 rax, rax
  0042f	74 46		 je	 SHORT $LN38@UpdatePort
  00431	48 8b 84 24 80
	00 00 00	 mov	 rax, QWORD PTR pLCSPORT$[rsp]
  00439	0f b6 00	 movzx	 eax, BYTE PTR [rax]
  0043c	48 8b 4c 24 78	 mov	 rcx, QWORD PTR pDEVBLK$[rsp]
  00441	0f b7 49 48	 movzx	 ecx, WORD PTR [rcx+72]
  00445	48 c7 44 24 30
	00 00 00 00	 mov	 QWORD PTR [rsp+48], 0
  0044e	48 89 44 24 28	 mov	 QWORD PTR [rsp+40], rax
  00453	48 8d 05 00 00
	00 00		 lea	 rax, OFFSET FLAT:$SG171025
  0045a	48 89 44 24 20	 mov	 QWORD PTR [rsp+32], rax
  0045f	44 8b c9	 mov	 r9d, ecx
  00462	45 33 c0	 xor	 r8d, r8d
  00465	48 8d 15 00 00
	00 00		 lea	 rdx, OFFSET FLAT:$SG171026
  0046c	b9 00 00 02 00	 mov	 ecx, 131072		; 00020000H
  00471	ff 15 00 00 00
	00		 call	 QWORD PTR __imp_ptt_pthread_trace
$LN38@UpdatePort:
  00477	33 c0		 xor	 eax, eax
  00479	85 c0		 test	 eax, eax
  0047b	75 9f		 jne	 SHORT $LN25@UpdatePort

; 1691 :     release_lock( &pLCSPORT->PortEventLock );

  0047d	48 8b 84 24 80
	00 00 00	 mov	 rax, QWORD PTR pLCSPORT$[rsp]
  00485	48 05 24 01 00
	00		 add	 rax, 292		; 00000124H
  0048b	48 8d 15 00 00
	00 00		 lea	 rdx, OFFSET FLAT:$SG171027
  00492	48 8b c8	 mov	 rcx, rax
  00495	ff 15 00 00 00
	00		 call	 QWORD PTR __imp_hthread_release_lock
$LN28@UpdatePort:

; 1692 : 
; 1693 :     PTT_DEBUG( "UPDTPORT pause 150", 000, pDEVBLK->devnum, pLCSPORT->bPort );

  0049b	48 8b 05 00 00
	00 00		 mov	 rax, QWORD PTR __imp_pttclass
  004a2	48 8b 00	 mov	 rax, QWORD PTR [rax]
  004a5	48 25 00 00 02
	00		 and	 rax, 131072		; 00020000H
  004ab	48 85 c0	 test	 rax, rax
  004ae	74 46		 je	 SHORT $LN39@UpdatePort
  004b0	48 8b 84 24 80
	00 00 00	 mov	 rax, QWORD PTR pLCSPORT$[rsp]
  004b8	0f b6 00	 movzx	 eax, BYTE PTR [rax]
  004bb	48 8b 4c 24 78	 mov	 rcx, QWORD PTR pDEVBLK$[rsp]
  004c0	0f b7 49 48	 movzx	 ecx, WORD PTR [rcx+72]
  004c4	48 c7 44 24 30
	00 00 00 00	 mov	 QWORD PTR [rsp+48], 0
  004cd	48 89 44 24 28	 mov	 QWORD PTR [rsp+40], rax
  004d2	48 8d 05 00 00
	00 00		 lea	 rax, OFFSET FLAT:$SG171029
  004d9	48 89 44 24 20	 mov	 QWORD PTR [rsp+32], rax
  004de	44 8b c9	 mov	 r9d, ecx
  004e1	45 33 c0	 xor	 r8d, r8d
  004e4	48 8d 15 00 00
	00 00		 lea	 rdx, OFFSET FLAT:$SG171030
  004eb	b9 00 00 02 00	 mov	 ecx, 131072		; 00020000H
  004f0	ff 15 00 00 00
	00		 call	 QWORD PTR __imp_ptt_pthread_trace
$LN39@UpdatePort:
  004f6	33 c0		 xor	 eax, eax
  004f8	85 c0		 test	 eax, eax
  004fa	75 9f		 jne	 SHORT $LN28@UpdatePort

; 1694 :     usleep( 150*1000 );

  004fc	b9 f0 49 02 00	 mov	 ecx, 150000		; 000249f0H
  00501	ff 15 00 00 00
	00		 call	 QWORD PTR __imp_usleep

; 1695 : }

  00507	48 83 c4 68	 add	 rsp, 104		; 00000068H
  0050b	c3		 ret	 0
UpdatePortStarted ENDP
_TEXT	ENDS
; Function compile flags: /Odtp
; File C:\papa\MyGit\hyperion-zvector\ctc_lcs.c
_TEXT	SEGMENT
pDEVBLK$ = 80
nEthBytes$ = 88
nEthFrames$ = 96
LCS_EndMWrite PROC

; 1235 : {

  00000	44 89 44 24 18	 mov	 DWORD PTR [rsp+24], r8d
  00005	89 54 24 10	 mov	 DWORD PTR [rsp+16], edx
  00009	48 89 4c 24 08	 mov	 QWORD PTR [rsp+8], rcx
  0000e	48 83 ec 48	 sub	 rsp, 72			; 00000048H

; 1236 :     if (((PLCSDEV)pDEVBLK->dev_data)->pLCSBLK->fNoMultiWrite) return;

  00012	48 8b 44 24 50	 mov	 rax, QWORD PTR pDEVBLK$[rsp]
  00017	48 8b 80 08 06
	00 00		 mov	 rax, QWORD PTR [rax+1544]
  0001e	48 8b 40 08	 mov	 rax, QWORD PTR [rax+8]
  00022	8b 40 18	 mov	 eax, DWORD PTR [rax+24]
  00025	c1 e8 02	 shr	 eax, 2
  00028	83 e0 01	 and	 eax, 1
  0002b	85 c0		 test	 eax, eax
  0002d	74 05		 je	 SHORT $LN8@LCS_EndMWr
  0002f	e9 be 00 00 00	 jmp	 $LN1@LCS_EndMWr
$LN8@LCS_EndMWr:
$LN4@LCS_EndMWr:

; 1237 :     PTT_TIMING( "b4 endmw", 0, nEthBytes, nEthFrames );

  00034	48 8b 05 00 00
	00 00		 mov	 rax, QWORD PTR __imp_pttclass
  0003b	48 8b 00	 mov	 rax, QWORD PTR [rax]
  0003e	48 25 00 00 01
	00		 and	 rax, 65536		; 00010000H
  00044	48 85 c0	 test	 rax, rax
  00047	74 3c		 je	 SHORT $LN9@LCS_EndMWr
  00049	48 63 44 24 60	 movsxd	 rax, DWORD PTR nEthFrames$[rsp]
  0004e	48 63 4c 24 58	 movsxd	 rcx, DWORD PTR nEthBytes$[rsp]
  00053	48 c7 44 24 30
	00 00 00 00	 mov	 QWORD PTR [rsp+48], 0
  0005c	48 89 44 24 28	 mov	 QWORD PTR [rsp+40], rax
  00061	48 8d 05 00 00
	00 00		 lea	 rax, OFFSET FLAT:$SG170353
  00068	48 89 44 24 20	 mov	 QWORD PTR [rsp+32], rax
  0006d	4c 8b c9	 mov	 r9, rcx
  00070	45 33 c0	 xor	 r8d, r8d
  00073	48 8d 15 00 00
	00 00		 lea	 rdx, OFFSET FLAT:$SG170354
  0007a	b9 00 00 01 00	 mov	 ecx, 65536		; 00010000H
  0007f	ff 15 00 00 00
	00		 call	 QWORD PTR __imp_ptt_pthread_trace
$LN9@LCS_EndMWr:
  00085	33 c0		 xor	 eax, eax
  00087	85 c0		 test	 eax, eax
  00089	75 a9		 jne	 SHORT $LN4@LCS_EndMWr

; 1238 :     TUNTAP_EndMWrite( pDEVBLK->fd );

  0008b	48 8b 44 24 50	 mov	 rax, QWORD PTR pDEVBLK$[rsp]
  00090	8b 88 ac 01 00
	00		 mov	 ecx, DWORD PTR [rax+428]
  00096	e8 00 00 00 00	 call	 tt32_end_write_multi
$LN7@LCS_EndMWr:

; 1239 :     PTT_TIMING( "af endmw", 0, nEthBytes, nEthFrames );

  0009b	48 8b 05 00 00
	00 00		 mov	 rax, QWORD PTR __imp_pttclass
  000a2	48 8b 00	 mov	 rax, QWORD PTR [rax]
  000a5	48 25 00 00 01
	00		 and	 rax, 65536		; 00010000H
  000ab	48 85 c0	 test	 rax, rax
  000ae	74 3c		 je	 SHORT $LN10@LCS_EndMWr
  000b0	48 63 44 24 60	 movsxd	 rax, DWORD PTR nEthFrames$[rsp]
  000b5	48 63 4c 24 58	 movsxd	 rcx, DWORD PTR nEthBytes$[rsp]
  000ba	48 c7 44 24 30
	00 00 00 00	 mov	 QWORD PTR [rsp+48], 0
  000c3	48 89 44 24 28	 mov	 QWORD PTR [rsp+40], rax
  000c8	48 8d 05 00 00
	00 00		 lea	 rax, OFFSET FLAT:$SG170356
  000cf	48 89 44 24 20	 mov	 QWORD PTR [rsp+32], rax
  000d4	4c 8b c9	 mov	 r9, rcx
  000d7	45 33 c0	 xor	 r8d, r8d
  000da	48 8d 15 00 00
	00 00		 lea	 rdx, OFFSET FLAT:$SG170357
  000e1	b9 00 00 01 00	 mov	 ecx, 65536		; 00010000H
  000e6	ff 15 00 00 00
	00		 call	 QWORD PTR __imp_ptt_pthread_trace
$LN10@LCS_EndMWr:
  000ec	33 c0		 xor	 eax, eax
  000ee	85 c0		 test	 eax, eax
  000f0	75 a9		 jne	 SHORT $LN7@LCS_EndMWr
$LN1@LCS_EndMWr:

; 1240 : }

  000f2	48 83 c4 48	 add	 rsp, 72			; 00000048H
  000f6	c3		 ret	 0
LCS_EndMWrite ENDP
_TEXT	ENDS
; Function compile flags: /Odtp
; File C:\papa\MyGit\hyperion-zvector\ctc_lcs.c
_TEXT	SEGMENT
pDEVBLK$ = 80
LCS_BegMWrite PROC

; 1227 : {

  00000	48 89 4c 24 08	 mov	 QWORD PTR [rsp+8], rcx
  00005	48 83 ec 48	 sub	 rsp, 72			; 00000048H

; 1228 :     if (((PLCSDEV)pDEVBLK->dev_data)->pLCSBLK->fNoMultiWrite) return;

  00009	48 8b 44 24 50	 mov	 rax, QWORD PTR pDEVBLK$[rsp]
  0000e	48 8b 80 08 06
	00 00		 mov	 rax, QWORD PTR [rax+1544]
  00015	48 8b 40 08	 mov	 rax, QWORD PTR [rax+8]
  00019	8b 40 18	 mov	 eax, DWORD PTR [rax+24]
  0001c	c1 e8 02	 shr	 eax, 2
  0001f	83 e0 01	 and	 eax, 1
  00022	85 c0		 test	 eax, eax
  00024	74 05		 je	 SHORT $LN8@LCS_BegMWr
  00026	e9 b7 00 00 00	 jmp	 $LN1@LCS_BegMWr
$LN8@LCS_BegMWr:
$LN4@LCS_BegMWr:

; 1229 :     PTT_TIMING( "b4 begmw", 0, 0, 0 );

  0002b	48 8b 05 00 00
	00 00		 mov	 rax, QWORD PTR __imp_pttclass
  00032	48 8b 00	 mov	 rax, QWORD PTR [rax]
  00035	48 25 00 00 01
	00		 and	 rax, 65536		; 00010000H
  0003b	48 85 c0	 test	 rax, rax
  0003e	74 36		 je	 SHORT $LN9@LCS_BegMWr
  00040	48 c7 44 24 30
	00 00 00 00	 mov	 QWORD PTR [rsp+48], 0
  00049	48 c7 44 24 28
	00 00 00 00	 mov	 QWORD PTR [rsp+40], 0
  00052	48 8d 05 00 00
	00 00		 lea	 rax, OFFSET FLAT:$SG170319
  00059	48 89 44 24 20	 mov	 QWORD PTR [rsp+32], rax
  0005e	45 33 c9	 xor	 r9d, r9d
  00061	45 33 c0	 xor	 r8d, r8d
  00064	48 8d 15 00 00
	00 00		 lea	 rdx, OFFSET FLAT:$SG170320
  0006b	b9 00 00 01 00	 mov	 ecx, 65536		; 00010000H
  00070	ff 15 00 00 00
	00		 call	 QWORD PTR __imp_ptt_pthread_trace
$LN9@LCS_BegMWr:
  00076	33 c0		 xor	 eax, eax
  00078	85 c0		 test	 eax, eax
  0007a	75 af		 jne	 SHORT $LN4@LCS_BegMWr

; 1230 :     TUNTAP_BegMWrite( pDEVBLK->fd, CTC_DEF_FRAME_BUFFER_SIZE );

  0007c	ba 00 50 00 00	 mov	 edx, 20480		; 00005000H
  00081	48 8b 44 24 50	 mov	 rax, QWORD PTR pDEVBLK$[rsp]
  00086	8b 88 ac 01 00
	00		 mov	 ecx, DWORD PTR [rax+428]
  0008c	e8 00 00 00 00	 call	 tt32_beg_write_multi
$LN7@LCS_BegMWr:

; 1231 :     PTT_TIMING( "af begmw", 0, 0, 0);

  00091	48 8b 05 00 00
	00 00		 mov	 rax, QWORD PTR __imp_pttclass
  00098	48 8b 00	 mov	 rax, QWORD PTR [rax]
  0009b	48 25 00 00 01
	00		 and	 rax, 65536		; 00010000H
  000a1	48 85 c0	 test	 rax, rax
  000a4	74 36		 je	 SHORT $LN10@LCS_BegMWr
  000a6	48 c7 44 24 30
	00 00 00 00	 mov	 QWORD PTR [rsp+48], 0
  000af	48 c7 44 24 28
	00 00 00 00	 mov	 QWORD PTR [rsp+40], 0
  000b8	48 8d 05 00 00
	00 00		 lea	 rax, OFFSET FLAT:$SG170322
  000bf	48 89 44 24 20	 mov	 QWORD PTR [rsp+32], rax
  000c4	45 33 c9	 xor	 r9d, r9d
  000c7	45 33 c0	 xor	 r8d, r8d
  000ca	48 8d 15 00 00
	00 00		 lea	 rdx, OFFSET FLAT:$SG170323
  000d1	b9 00 00 01 00	 mov	 ecx, 65536		; 00010000H
  000d6	ff 15 00 00 00
	00		 call	 QWORD PTR __imp_ptt_pthread_trace
$LN10@LCS_BegMWr:
  000dc	33 c0		 xor	 eax, eax
  000de	85 c0		 test	 eax, eax
  000e0	75 af		 jne	 SHORT $LN7@LCS_BegMWr
$LN1@LCS_BegMWr:

; 1232 : }

  000e2	48 83 c4 48	 add	 rsp, 72			; 00000048H
  000e6	c3		 ret	 0
LCS_BegMWrite ENDP
_TEXT	ENDS
; Function compile flags: /Odtp
; File C:\papa\MyGit\hyperion-zvector\ctc_lcs.c
_TEXT	SEGMENT
pLCSDEV$ = 64
pLCSBLK$ = 72
pLCSATTN$ = 80
pDEVBLK$ = 112
LCS_EndChannelProgram PROC

; 969  : {

$LN39:
  00000	48 89 4c 24 08	 mov	 QWORD PTR [rsp+8], rcx
  00005	48 83 ec 68	 sub	 rsp, 104		; 00000068H

; 970  :     PLCSDEV     pLCSDEV;
; 971  :     PLCSBLK     pLCSBLK;
; 972  :     PLCSATTN    pLCSATTN;
; 973  : 
; 974  : 
; 975  :     pLCSDEV = (PLCSDEV)pDEVBLK->dev_data;

  00009	48 8b 44 24 70	 mov	 rax, QWORD PTR pDEVBLK$[rsp]
  0000e	48 8b 80 08 06
	00 00		 mov	 rax, QWORD PTR [rax+1544]
  00015	48 89 44 24 40	 mov	 QWORD PTR pLCSDEV$[rsp], rax

; 976  :     if (!pLCSDEV) return;  // (incomplete group?)

  0001a	48 83 7c 24 40
	00		 cmp	 QWORD PTR pLCSDEV$[rsp], 0
  00020	75 05		 jne	 SHORT $LN26@LCS_EndCha
  00022	e9 09 04 00 00	 jmp	 $LN1@LCS_EndCha
$LN26@LCS_EndCha:

; 977  : 
; 978  :     if (pLCSDEV->bMode == LCSDEV_MODE_SNA)

  00027	48 8b 44 24 40	 mov	 rax, QWORD PTR pLCSDEV$[rsp]
  0002c	0f b6 40 22	 movzx	 eax, BYTE PTR [rax+34]
  00030	83 f8 02	 cmp	 eax, 2
  00033	0f 85 f7 03 00
	00		 jne	 $LN27@LCS_EndCha

; 979  :     {
; 980  : 
; 981  :         if (pLCSDEV->fAttnRequired)

  00039	48 8b 44 24 40	 mov	 rax, QWORD PTR pLCSDEV$[rsp]
  0003e	8b 40 5d	 mov	 eax, DWORD PTR [rax+93]
  00041	d1 e8		 shr	 eax, 1
  00043	83 e0 01	 and	 eax, 1
  00046	85 c0		 test	 eax, eax
  00048	0f 84 c6 03 00
	00		 je	 $LN28@LCS_EndCha

; 982  :         {
; 983  :             // It would have been nice to have simply called function
; 984  :             // device_attention at this point, but the channel program
; 985  :             // is still considered to be busy, and a return code of one
; 986  :             // would be returned to us.
; 987  : 
; 988  :             pLCSBLK = pLCSDEV->pLCSBLK;

  0004e	48 8b 44 24 40	 mov	 rax, QWORD PTR pLCSDEV$[rsp]
  00053	48 8b 40 08	 mov	 rax, QWORD PTR [rax+8]
  00057	48 89 44 24 48	 mov	 QWORD PTR pLCSBLK$[rsp], rax

; 989  : 
; 990  :             /* Create an LCSATTN block */
; 991  :             pLCSATTN = malloc( sizeof( LCSATTN ) );

  0005c	b9 10 00 00 00	 mov	 ecx, 16
  00061	ff 15 00 00 00
	00		 call	 QWORD PTR __imp_malloc
  00067	48 89 44 24 50	 mov	 QWORD PTR pLCSATTN$[rsp], rax

; 992  :             if (!pLCSATTN) return;  /* FixMe! Produce a message? */

  0006c	48 83 7c 24 50
	00		 cmp	 QWORD PTR pLCSATTN$[rsp], 0
  00072	75 05		 jne	 SHORT $LN29@LCS_EndCha
  00074	e9 b7 03 00 00	 jmp	 $LN1@LCS_EndCha
$LN29@LCS_EndCha:

; 993  :             pLCSATTN->pNext = NULL;

  00079	48 8b 44 24 50	 mov	 rax, QWORD PTR pLCSATTN$[rsp]
  0007e	48 c7 00 00 00
	00 00		 mov	 QWORD PTR [rax], 0

; 994  :             pLCSATTN->pDevice = pLCSDEV;

  00085	48 8b 44 24 50	 mov	 rax, QWORD PTR pLCSATTN$[rsp]
  0008a	48 8b 4c 24 40	 mov	 rcx, QWORD PTR pLCSDEV$[rsp]
  0008f	48 89 48 08	 mov	 QWORD PTR [rax+8], rcx
$LN4@LCS_EndCha:

; 995  : 
; 996  : //          if (pLCSBLK->fDebug)                                                                         /* FixMe! Remove! */
; 997  : //            net_data_trace( pDEVBLK, (BYTE*)pLCSATTN, sizeof( LCSATTN ), NO_DIRECTION, 'D', "LCSATTN in", 0 );  /* FixMe! Remove! */
; 998  : 
; 999  :             /* Add LCSATTN block to start of chain */
; 1000 :             PTT_DEBUG( "GET  AttnLock", 000, pDEVBLK->devnum, 000 );

  00093	48 8b 05 00 00
	00 00		 mov	 rax, QWORD PTR __imp_pttclass
  0009a	48 8b 00	 mov	 rax, QWORD PTR [rax]
  0009d	48 25 00 00 02
	00		 and	 rax, 131072		; 00020000H
  000a3	48 85 c0	 test	 rax, rax
  000a6	74 3f		 je	 SHORT $LN30@LCS_EndCha
  000a8	48 8b 44 24 70	 mov	 rax, QWORD PTR pDEVBLK$[rsp]
  000ad	0f b7 40 48	 movzx	 eax, WORD PTR [rax+72]
  000b1	48 c7 44 24 30
	00 00 00 00	 mov	 QWORD PTR [rsp+48], 0
  000ba	48 c7 44 24 28
	00 00 00 00	 mov	 QWORD PTR [rsp+40], 0
  000c3	48 8d 0d 00 00
	00 00		 lea	 rcx, OFFSET FLAT:$SG169891
  000ca	48 89 4c 24 20	 mov	 QWORD PTR [rsp+32], rcx
  000cf	44 8b c8	 mov	 r9d, eax
  000d2	45 33 c0	 xor	 r8d, r8d
  000d5	48 8d 15 00 00
	00 00		 lea	 rdx, OFFSET FLAT:$SG169892
  000dc	b9 00 00 02 00	 mov	 ecx, 131072		; 00020000H
  000e1	ff 15 00 00 00
	00		 call	 QWORD PTR __imp_ptt_pthread_trace
$LN30@LCS_EndCha:
  000e7	33 c0		 xor	 eax, eax
  000e9	85 c0		 test	 eax, eax
  000eb	75 a6		 jne	 SHORT $LN4@LCS_EndCha

; 1001 :             obtain_lock( &pLCSBLK->AttnLock );

  000ed	48 8b 44 24 48	 mov	 rax, QWORD PTR pLCSBLK$[rsp]
  000f2	48 83 c0 30	 add	 rax, 48			; 00000030H
  000f6	48 8d 15 00 00
	00 00		 lea	 rdx, OFFSET FLAT:$SG169893
  000fd	48 8b c8	 mov	 rcx, rax
  00100	ff 15 00 00 00
	00		 call	 QWORD PTR __imp_hthread_obtain_lock
$LN7@LCS_EndCha:

; 1002 :             PTT_DEBUG( "GOT  AttnLock", 000, pDEVBLK->devnum, 000 );

  00106	48 8b 05 00 00
	00 00		 mov	 rax, QWORD PTR __imp_pttclass
  0010d	48 8b 00	 mov	 rax, QWORD PTR [rax]
  00110	48 25 00 00 02
	00		 and	 rax, 131072		; 00020000H
  00116	48 85 c0	 test	 rax, rax
  00119	74 3f		 je	 SHORT $LN31@LCS_EndCha
  0011b	48 8b 44 24 70	 mov	 rax, QWORD PTR pDEVBLK$[rsp]
  00120	0f b7 40 48	 movzx	 eax, WORD PTR [rax+72]
  00124	48 c7 44 24 30
	00 00 00 00	 mov	 QWORD PTR [rsp+48], 0
  0012d	48 c7 44 24 28
	00 00 00 00	 mov	 QWORD PTR [rsp+40], 0
  00136	48 8d 0d 00 00
	00 00		 lea	 rcx, OFFSET FLAT:$SG169895
  0013d	48 89 4c 24 20	 mov	 QWORD PTR [rsp+32], rcx
  00142	44 8b c8	 mov	 r9d, eax
  00145	45 33 c0	 xor	 r8d, r8d
  00148	48 8d 15 00 00
	00 00		 lea	 rdx, OFFSET FLAT:$SG169896
  0014f	b9 00 00 02 00	 mov	 ecx, 131072		; 00020000H
  00154	ff 15 00 00 00
	00		 call	 QWORD PTR __imp_ptt_pthread_trace
$LN31@LCS_EndCha:
  0015a	33 c0		 xor	 eax, eax
  0015c	85 c0		 test	 eax, eax
  0015e	75 a6		 jne	 SHORT $LN7@LCS_EndCha
$LN10@LCS_EndCha:

; 1003 :             {
; 1004 :                 PTT_DEBUG( "ADD  Attn", pLCSATTN, pDEVBLK->devnum, 000 );

  00160	48 8b 05 00 00
	00 00		 mov	 rax, QWORD PTR __imp_pttclass
  00167	48 8b 00	 mov	 rax, QWORD PTR [rax]
  0016a	48 25 00 00 02
	00		 and	 rax, 131072		; 00020000H
  00170	48 85 c0	 test	 rax, rax
  00173	74 41		 je	 SHORT $LN32@LCS_EndCha
  00175	48 8b 44 24 70	 mov	 rax, QWORD PTR pDEVBLK$[rsp]
  0017a	0f b7 40 48	 movzx	 eax, WORD PTR [rax+72]
  0017e	48 c7 44 24 30
	00 00 00 00	 mov	 QWORD PTR [rsp+48], 0
  00187	48 c7 44 24 28
	00 00 00 00	 mov	 QWORD PTR [rsp+40], 0
  00190	48 8d 0d 00 00
	00 00		 lea	 rcx, OFFSET FLAT:$SG169898
  00197	48 89 4c 24 20	 mov	 QWORD PTR [rsp+32], rcx
  0019c	44 8b c8	 mov	 r9d, eax
  0019f	4c 8b 44 24 50	 mov	 r8, QWORD PTR pLCSATTN$[rsp]
  001a4	48 8d 15 00 00
	00 00		 lea	 rdx, OFFSET FLAT:$SG169899
  001ab	b9 00 00 02 00	 mov	 ecx, 131072		; 00020000H
  001b0	ff 15 00 00 00
	00		 call	 QWORD PTR __imp_ptt_pthread_trace
$LN32@LCS_EndCha:
  001b6	33 c0		 xor	 eax, eax
  001b8	85 c0		 test	 eax, eax
  001ba	75 a4		 jne	 SHORT $LN10@LCS_EndCha

; 1005 :                 pLCSATTN->pNext = pLCSBLK->pAttns;

  001bc	48 8b 44 24 50	 mov	 rax, QWORD PTR pLCSATTN$[rsp]
  001c1	48 8b 4c 24 48	 mov	 rcx, QWORD PTR pLCSBLK$[rsp]
  001c6	48 8b 49 38	 mov	 rcx, QWORD PTR [rcx+56]
  001ca	48 89 08	 mov	 QWORD PTR [rax], rcx

; 1006 :                 pLCSBLK->pAttns = pLCSATTN;

  001cd	48 8b 44 24 48	 mov	 rax, QWORD PTR pLCSBLK$[rsp]
  001d2	48 8b 4c 24 50	 mov	 rcx, QWORD PTR pLCSATTN$[rsp]
  001d7	48 89 48 38	 mov	 QWORD PTR [rax+56], rcx
$LN13@LCS_EndCha:

; 1007 :             }
; 1008 :             PTT_DEBUG( "REL  AttnLock", 000, pDEVBLK->devnum, 000 );

  001db	48 8b 05 00 00
	00 00		 mov	 rax, QWORD PTR __imp_pttclass
  001e2	48 8b 00	 mov	 rax, QWORD PTR [rax]
  001e5	48 25 00 00 02
	00		 and	 rax, 131072		; 00020000H
  001eb	48 85 c0	 test	 rax, rax
  001ee	74 3f		 je	 SHORT $LN33@LCS_EndCha
  001f0	48 8b 44 24 70	 mov	 rax, QWORD PTR pDEVBLK$[rsp]
  001f5	0f b7 40 48	 movzx	 eax, WORD PTR [rax+72]
  001f9	48 c7 44 24 30
	00 00 00 00	 mov	 QWORD PTR [rsp+48], 0
  00202	48 c7 44 24 28
	00 00 00 00	 mov	 QWORD PTR [rsp+40], 0
  0020b	48 8d 0d 00 00
	00 00		 lea	 rcx, OFFSET FLAT:$SG169901
  00212	48 89 4c 24 20	 mov	 QWORD PTR [rsp+32], rcx
  00217	44 8b c8	 mov	 r9d, eax
  0021a	45 33 c0	 xor	 r8d, r8d
  0021d	48 8d 15 00 00
	00 00		 lea	 rdx, OFFSET FLAT:$SG169902
  00224	b9 00 00 02 00	 mov	 ecx, 131072		; 00020000H
  00229	ff 15 00 00 00
	00		 call	 QWORD PTR __imp_ptt_pthread_trace
$LN33@LCS_EndCha:
  0022f	33 c0		 xor	 eax, eax
  00231	85 c0		 test	 eax, eax
  00233	75 a6		 jne	 SHORT $LN13@LCS_EndCha

; 1009 :             release_lock( &pLCSBLK->AttnLock );

  00235	48 8b 44 24 48	 mov	 rax, QWORD PTR pLCSBLK$[rsp]
  0023a	48 83 c0 30	 add	 rax, 48			; 00000030H
  0023e	48 8d 15 00 00
	00 00		 lea	 rdx, OFFSET FLAT:$SG169903
  00245	48 8b c8	 mov	 rcx, rax
  00248	ff 15 00 00 00
	00		 call	 QWORD PTR __imp_hthread_release_lock
$LN16@LCS_EndCha:

; 1010 : 
; 1011 :             /* Signal the LCS_AttnThread to process the LCSATTN block(s) on the chain */
; 1012 :             PTT_DEBUG( "GET  AttnEventLock ", 000, pDEVBLK->devnum, 000 );

  0024e	48 8b 05 00 00
	00 00		 mov	 rax, QWORD PTR __imp_pttclass
  00255	48 8b 00	 mov	 rax, QWORD PTR [rax]
  00258	48 25 00 00 02
	00		 and	 rax, 131072		; 00020000H
  0025e	48 85 c0	 test	 rax, rax
  00261	74 3f		 je	 SHORT $LN34@LCS_EndCha
  00263	48 8b 44 24 70	 mov	 rax, QWORD PTR pDEVBLK$[rsp]
  00268	0f b7 40 48	 movzx	 eax, WORD PTR [rax+72]
  0026c	48 c7 44 24 30
	00 00 00 00	 mov	 QWORD PTR [rsp+48], 0
  00275	48 c7 44 24 28
	00 00 00 00	 mov	 QWORD PTR [rsp+40], 0
  0027e	48 8d 0d 00 00
	00 00		 lea	 rcx, OFFSET FLAT:$SG169905
  00285	48 89 4c 24 20	 mov	 QWORD PTR [rsp+32], rcx
  0028a	44 8b c8	 mov	 r9d, eax
  0028d	45 33 c0	 xor	 r8d, r8d
  00290	48 8d 15 00 00
	00 00		 lea	 rdx, OFFSET FLAT:$SG169906
  00297	b9 00 00 02 00	 mov	 ecx, 131072		; 00020000H
  0029c	ff 15 00 00 00
	00		 call	 QWORD PTR __imp_ptt_pthread_trace
$LN34@LCS_EndCha:
  002a2	33 c0		 xor	 eax, eax
  002a4	85 c0		 test	 eax, eax
  002a6	75 a6		 jne	 SHORT $LN16@LCS_EndCha

; 1013 :             obtain_lock( &pLCSBLK->AttnEventLock );

  002a8	48 8b 44 24 48	 mov	 rax, QWORD PTR pLCSBLK$[rsp]
  002ad	48 83 c0 40	 add	 rax, 64			; 00000040H
  002b1	48 8d 15 00 00
	00 00		 lea	 rdx, OFFSET FLAT:$SG169907
  002b8	48 8b c8	 mov	 rcx, rax
  002bb	ff 15 00 00 00
	00		 call	 QWORD PTR __imp_hthread_obtain_lock
$LN19@LCS_EndCha:

; 1014 :             PTT_DEBUG( "GOT  AttnEventLock ", 000, pDEVBLK->devnum, 000 );

  002c1	48 8b 05 00 00
	00 00		 mov	 rax, QWORD PTR __imp_pttclass
  002c8	48 8b 00	 mov	 rax, QWORD PTR [rax]
  002cb	48 25 00 00 02
	00		 and	 rax, 131072		; 00020000H
  002d1	48 85 c0	 test	 rax, rax
  002d4	74 3f		 je	 SHORT $LN35@LCS_EndCha
  002d6	48 8b 44 24 70	 mov	 rax, QWORD PTR pDEVBLK$[rsp]
  002db	0f b7 40 48	 movzx	 eax, WORD PTR [rax+72]
  002df	48 c7 44 24 30
	00 00 00 00	 mov	 QWORD PTR [rsp+48], 0
  002e8	48 c7 44 24 28
	00 00 00 00	 mov	 QWORD PTR [rsp+40], 0
  002f1	48 8d 0d 00 00
	00 00		 lea	 rcx, OFFSET FLAT:$SG169909
  002f8	48 89 4c 24 20	 mov	 QWORD PTR [rsp+32], rcx
  002fd	44 8b c8	 mov	 r9d, eax
  00300	45 33 c0	 xor	 r8d, r8d
  00303	48 8d 15 00 00
	00 00		 lea	 rdx, OFFSET FLAT:$SG169910
  0030a	b9 00 00 02 00	 mov	 ecx, 131072		; 00020000H
  0030f	ff 15 00 00 00
	00		 call	 QWORD PTR __imp_ptt_pthread_trace
$LN35@LCS_EndCha:
  00315	33 c0		 xor	 eax, eax
  00317	85 c0		 test	 eax, eax
  00319	75 a6		 jne	 SHORT $LN19@LCS_EndCha
$LN22@LCS_EndCha:

; 1015 :             {
; 1016 :                 PTT_DEBUG( "SIG  AttnEvent", 000, pDEVBLK->devnum, 000 );

  0031b	48 8b 05 00 00
	00 00		 mov	 rax, QWORD PTR __imp_pttclass
  00322	48 8b 00	 mov	 rax, QWORD PTR [rax]
  00325	48 25 00 00 02
	00		 and	 rax, 131072		; 00020000H
  0032b	48 85 c0	 test	 rax, rax
  0032e	74 3f		 je	 SHORT $LN36@LCS_EndCha
  00330	48 8b 44 24 70	 mov	 rax, QWORD PTR pDEVBLK$[rsp]
  00335	0f b7 40 48	 movzx	 eax, WORD PTR [rax+72]
  00339	48 c7 44 24 30
	00 00 00 00	 mov	 QWORD PTR [rsp+48], 0
  00342	48 c7 44 24 28
	00 00 00 00	 mov	 QWORD PTR [rsp+40], 0
  0034b	48 8d 0d 00 00
	00 00		 lea	 rcx, OFFSET FLAT:$SG169912
  00352	48 89 4c 24 20	 mov	 QWORD PTR [rsp+32], rcx
  00357	44 8b c8	 mov	 r9d, eax
  0035a	45 33 c0	 xor	 r8d, r8d
  0035d	48 8d 15 00 00
	00 00		 lea	 rdx, OFFSET FLAT:$SG169913
  00364	b9 00 00 02 00	 mov	 ecx, 131072		; 00020000H
  00369	ff 15 00 00 00
	00		 call	 QWORD PTR __imp_ptt_pthread_trace
$LN36@LCS_EndCha:
  0036f	33 c0		 xor	 eax, eax
  00371	85 c0		 test	 eax, eax
  00373	75 a6		 jne	 SHORT $LN22@LCS_EndCha

; 1017 :                 signal_condition( &pLCSBLK->AttnEvent );

  00375	48 8b 44 24 48	 mov	 rax, QWORD PTR pLCSBLK$[rsp]
  0037a	48 83 c0 48	 add	 rax, 72			; 00000048H
  0037e	48 8d 15 00 00
	00 00		 lea	 rdx, OFFSET FLAT:$SG169914
  00385	48 8b c8	 mov	 rcx, rax
  00388	ff 15 00 00 00
	00		 call	 QWORD PTR __imp_hthread_signal_condition
$LN25@LCS_EndCha:

; 1018 :             }
; 1019 :             PTT_DEBUG( "REL  AttnEventLock ", 000, pDEVBLK->devnum, 000 );

  0038e	48 8b 05 00 00
	00 00		 mov	 rax, QWORD PTR __imp_pttclass
  00395	48 8b 00	 mov	 rax, QWORD PTR [rax]
  00398	48 25 00 00 02
	00		 and	 rax, 131072		; 00020000H
  0039e	48 85 c0	 test	 rax, rax
  003a1	74 3f		 je	 SHORT $LN37@LCS_EndCha
  003a3	48 8b 44 24 70	 mov	 rax, QWORD PTR pDEVBLK$[rsp]
  003a8	0f b7 40 48	 movzx	 eax, WORD PTR [rax+72]
  003ac	48 c7 44 24 30
	00 00 00 00	 mov	 QWORD PTR [rsp+48], 0
  003b5	48 c7 44 24 28
	00 00 00 00	 mov	 QWORD PTR [rsp+40], 0
  003be	48 8d 0d 00 00
	00 00		 lea	 rcx, OFFSET FLAT:$SG169916
  003c5	48 89 4c 24 20	 mov	 QWORD PTR [rsp+32], rcx
  003ca	44 8b c8	 mov	 r9d, eax
  003cd	45 33 c0	 xor	 r8d, r8d
  003d0	48 8d 15 00 00
	00 00		 lea	 rdx, OFFSET FLAT:$SG169917
  003d7	b9 00 00 02 00	 mov	 ecx, 131072		; 00020000H
  003dc	ff 15 00 00 00
	00		 call	 QWORD PTR __imp_ptt_pthread_trace
$LN37@LCS_EndCha:
  003e2	33 c0		 xor	 eax, eax
  003e4	85 c0		 test	 eax, eax
  003e6	75 a6		 jne	 SHORT $LN25@LCS_EndCha

; 1020 :             release_lock( &pLCSBLK->AttnEventLock );

  003e8	48 8b 44 24 48	 mov	 rax, QWORD PTR pLCSBLK$[rsp]
  003ed	48 83 c0 40	 add	 rax, 64			; 00000040H
  003f1	48 8d 15 00 00
	00 00		 lea	 rdx, OFFSET FLAT:$SG169918
  003f8	48 8b c8	 mov	 rcx, rax
  003fb	ff 15 00 00 00
	00		 call	 QWORD PTR __imp_hthread_release_lock

; 1021 : 
; 1022 :             pLCSDEV->fAttnRequired = FALSE;

  00401	48 8b 44 24 40	 mov	 rax, QWORD PTR pLCSDEV$[rsp]
  00406	8b 40 5d	 mov	 eax, DWORD PTR [rax+93]
  00409	83 e0 fd	 and	 eax, -3			; fffffffdH
  0040c	48 8b 4c 24 40	 mov	 rcx, QWORD PTR pLCSDEV$[rsp]
  00411	89 41 5d	 mov	 DWORD PTR [rcx+93], eax
$LN28@LCS_EndCha:

; 1023 :         }
; 1024 : 
; 1025 :         pLCSDEV->bFlipFlop = 0;

  00414	48 8b 44 24 40	 mov	 rax, QWORD PTR pLCSDEV$[rsp]
  00419	c6 40 65 00	 mov	 BYTE PTR [rax+101], 0

; 1026 :         pLCSDEV->fChanProgActive = FALSE;

  0041d	48 8b 44 24 40	 mov	 rax, QWORD PTR pLCSDEV$[rsp]
  00422	8b 40 5d	 mov	 eax, DWORD PTR [rax+93]
  00425	83 e0 fe	 and	 eax, -2			; fffffffeH
  00428	48 8b 4c 24 40	 mov	 rcx, QWORD PTR pLCSDEV$[rsp]
  0042d	89 41 5d	 mov	 DWORD PTR [rcx+93], eax
$LN27@LCS_EndCha:
$LN1@LCS_EndCha:

; 1027 :     }
; 1028 : }

  00430	48 83 c4 68	 add	 rsp, 104		; 00000068H
  00434	c3		 ret	 0
LCS_EndChannelProgram ENDP
_TEXT	ENDS
; Function compile flags: /Odtp
; File C:\papa\MyGit\hyperion-zvector\ctc_lcs.c
_TEXT	SEGMENT
pLCSDEV$ = 0
pDEVBLK$ = 32
LCS_StartChannelProgram PROC

; 949  : {

$LN5:
  00000	48 89 4c 24 08	 mov	 QWORD PTR [rsp+8], rcx
  00005	48 83 ec 18	 sub	 rsp, 24

; 950  :     PLCSDEV     pLCSDEV;
; 951  : 
; 952  : 
; 953  :     pLCSDEV = (PLCSDEV)pDEVBLK->dev_data;

  00009	48 8b 44 24 20	 mov	 rax, QWORD PTR pDEVBLK$[rsp]
  0000e	48 8b 80 08 06
	00 00		 mov	 rax, QWORD PTR [rax+1544]
  00015	48 89 04 24	 mov	 QWORD PTR pLCSDEV$[rsp], rax

; 954  :     if (!pLCSDEV) return;  // (incomplete group?)

  00019	48 83 3c 24 00	 cmp	 QWORD PTR pLCSDEV$[rsp], 0
  0001e	75 02		 jne	 SHORT $LN2@LCS_StartC
  00020	eb 26		 jmp	 SHORT $LN1@LCS_StartC
$LN2@LCS_StartC:

; 955  : 
; 956  :     if (pLCSDEV->bMode == LCSDEV_MODE_SNA)

  00022	48 8b 04 24	 mov	 rax, QWORD PTR pLCSDEV$[rsp]
  00026	0f b6 40 22	 movzx	 eax, BYTE PTR [rax+34]
  0002a	83 f8 02	 cmp	 eax, 2
  0002d	75 19		 jne	 SHORT $LN3@LCS_StartC

; 957  :     {
; 958  :         pLCSDEV->fChanProgActive = TRUE;

  0002f	48 8b 04 24	 mov	 rax, QWORD PTR pLCSDEV$[rsp]
  00033	8b 40 5d	 mov	 eax, DWORD PTR [rax+93]
  00036	83 c8 01	 or	 eax, 1
  00039	48 8b 0c 24	 mov	 rcx, QWORD PTR pLCSDEV$[rsp]
  0003d	89 41 5d	 mov	 DWORD PTR [rcx+93], eax

; 959  :         pLCSDEV->bFlipFlop = 0;

  00040	48 8b 04 24	 mov	 rax, QWORD PTR pLCSDEV$[rsp]
  00044	c6 40 65 00	 mov	 BYTE PTR [rax+101], 0
$LN3@LCS_StartC:
$LN1@LCS_StartC:

; 960  :     }
; 961  : 
; 962  : }

  00048	48 83 c4 18	 add	 rsp, 24
  0004c	c3		 ret	 0
LCS_StartChannelProgram ENDP
_TEXT	ENDS
; Function compile flags: /Odtp
; File C:\papa\MyGit\hyperion-zvector\ctc_lcs.c
_TEXT	SEGMENT
i$ = 0
group$ = 32
devnum$ = 40
find_group_device PROC

; 214  : {

  00000	66 89 54 24 10	 mov	 WORD PTR [rsp+16], dx
  00005	48 89 4c 24 08	 mov	 QWORD PTR [rsp+8], rcx
  0000a	48 83 ec 18	 sub	 rsp, 24

; 215  :     int i;
; 216  : 
; 217  :     for (i = 0; i < group->acount; i++)

  0000e	c7 04 24 00 00
	00 00		 mov	 DWORD PTR i$[rsp], 0
  00015	eb 08		 jmp	 SHORT $LN4@find_group
$LN2@find_group:
  00017	8b 04 24	 mov	 eax, DWORD PTR i$[rsp]
  0001a	ff c0		 inc	 eax
  0001c	89 04 24	 mov	 DWORD PTR i$[rsp], eax
$LN4@find_group:
  0001f	48 8b 44 24 20	 mov	 rax, QWORD PTR group$[rsp]
  00024	8b 40 04	 mov	 eax, DWORD PTR [rax+4]
  00027	39 04 24	 cmp	 DWORD PTR i$[rsp], eax
  0002a	7d 2d		 jge	 SHORT $LN3@find_group

; 218  :         if (group->memdev[i]->devnum == devnum)

  0002c	48 63 04 24	 movsxd	 rax, DWORD PTR i$[rsp]
  00030	48 8b 4c 24 20	 mov	 rcx, QWORD PTR group$[rsp]
  00035	48 8b 44 c1 10	 mov	 rax, QWORD PTR [rcx+rax*8+16]
  0003a	0f b7 40 48	 movzx	 eax, WORD PTR [rax+72]
  0003e	0f b7 4c 24 28	 movzx	 ecx, WORD PTR devnum$[rsp]
  00043	3b c1		 cmp	 eax, ecx
  00045	75 10		 jne	 SHORT $LN5@find_group

; 219  :             return group->memdev[i];

  00047	48 63 04 24	 movsxd	 rax, DWORD PTR i$[rsp]
  0004b	48 8b 4c 24 20	 mov	 rcx, QWORD PTR group$[rsp]
  00050	48 8b 44 c1 10	 mov	 rax, QWORD PTR [rcx+rax*8+16]
  00055	eb 04		 jmp	 SHORT $LN1@find_group
$LN5@find_group:
  00057	eb be		 jmp	 SHORT $LN2@find_group
$LN3@find_group:

; 220  : 
; 221  :     return NULL;

  00059	33 c0		 xor	 eax, eax
$LN1@find_group:

; 222  : }

  0005b	48 83 c4 18	 add	 rsp, 24
  0005f	c3		 ret	 0
find_group_device ENDP
_TEXT	ENDS
; Function compile flags: /Odtp
; File C:\papa\MyGit\hyperion-zvector\ctc_lcs.c
_TEXT	SEGMENT
pLCSDEV$ = 48
pLCSCONN$ = 56
free_connection PROC

; 7850 : {

  00000	48 89 54 24 10	 mov	 QWORD PTR [rsp+16], rdx
  00005	48 89 4c 24 08	 mov	 QWORD PTR [rsp+8], rcx
  0000a	57		 push	 rdi
  0000b	48 83 ec 20	 sub	 rsp, 32			; 00000020H
$LN4@free_conne:

; 7851 :     UNREFERENCED( pLCSDEV );

  0000f	33 c0		 xor	 eax, eax
  00011	85 c0		 test	 eax, eax
  00013	75 fa		 jne	 SHORT $LN4@free_conne

; 7852 : 
; 7853 :     memset( pLCSCONN, 0x4f, sizeof(LCSCONN) );

  00015	48 8b 7c 24 38	 mov	 rdi, QWORD PTR pLCSCONN$[rsp]
  0001a	b8 4f 00 00 00	 mov	 eax, 79			; 0000004fH
  0001f	b9 30 00 00 00	 mov	 ecx, 48			; 00000030H
  00024	f3 aa		 rep stosb

; 7854 :     free( pLCSCONN );

  00026	48 8b 4c 24 38	 mov	 rcx, QWORD PTR pLCSCONN$[rsp]
  0002b	ff 15 00 00 00
	00		 call	 QWORD PTR __imp_free

; 7855 :     return;
; 7856 : }

  00031	48 83 c4 20	 add	 rsp, 32			; 00000020H
  00035	5f		 pop	 rdi
  00036	c3		 ret	 0
free_connection ENDP
_TEXT	ENDS
; Function compile flags: /Odtp
; File C:\papa\MyGit\hyperion-zvector\ctc_lcs.c
_TEXT	SEGMENT
pLCSCONN$ = 32
pLCSDEV$ = 64
remove_and_free_any_connections_on_chain PROC

; 7825 : {

  00000	48 89 4c 24 08	 mov	 QWORD PTR [rsp+8], rcx
  00005	48 83 ec 38	 sub	 rsp, 56			; 00000038H

; 7826 :     PLCSCONN    pLCSCONN;
; 7827 : 
; 7828 :     // Obtain the connection chain lock.
; 7829 :     obtain_lock( &pLCSDEV->LCSCONNChainLock );

  00009	48 8b 44 24 40	 mov	 rax, QWORD PTR pLCSDEV$[rsp]
  0000e	48 05 82 00 00
	00		 add	 rax, 130		; 00000082H
  00014	48 8d 15 00 00
	00 00		 lea	 rdx, OFFSET FLAT:$SG175682
  0001b	48 8b c8	 mov	 rcx, rax
  0001e	ff 15 00 00 00
	00		 call	 QWORD PTR __imp_hthread_obtain_lock
$LN2@remove_and:

; 7830 : 
; 7831 :     // Remove and free the first LCSCONN on the chain, if there is one...
; 7832 :     while( pLCSDEV->pFirstLCSCONN )

  00024	48 8b 44 24 40	 mov	 rax, QWORD PTR pLCSDEV$[rsp]
  00029	48 83 b8 8a 00
	00 00 00	 cmp	 QWORD PTR [rax+138], 0
  00031	74 3f		 je	 SHORT $LN3@remove_and

; 7833 :     {
; 7834 :         pLCSCONN = pLCSDEV->pFirstLCSCONN;                 // Pointer to first LCSCONN

  00033	48 8b 44 24 40	 mov	 rax, QWORD PTR pLCSDEV$[rsp]
  00038	48 8b 80 8a 00
	00 00		 mov	 rax, QWORD PTR [rax+138]
  0003f	48 89 44 24 20	 mov	 QWORD PTR pLCSCONN$[rsp], rax

; 7835 :         pLCSDEV->pFirstLCSCONN = pLCSCONN->pNextLCSCONN;   // Make the next the first LCSCONN

  00044	48 8b 44 24 40	 mov	 rax, QWORD PTR pLCSDEV$[rsp]
  00049	48 8b 4c 24 20	 mov	 rcx, QWORD PTR pLCSCONN$[rsp]
  0004e	48 8b 09	 mov	 rcx, QWORD PTR [rcx]
  00051	48 89 88 8a 00
	00 00		 mov	 QWORD PTR [rax+138], rcx

; 7836 :         free_connection( pLCSDEV, pLCSCONN );              // Free the connection

  00058	48 8b 54 24 20	 mov	 rdx, QWORD PTR pLCSCONN$[rsp]
  0005d	48 8b 4c 24 40	 mov	 rcx, QWORD PTR pLCSDEV$[rsp]
  00062	e8 00 00 00 00	 call	 free_connection

; 7837 :         pLCSCONN = NULL;

  00067	48 c7 44 24 20
	00 00 00 00	 mov	 QWORD PTR pLCSCONN$[rsp], 0

; 7838 :     }

  00070	eb b2		 jmp	 SHORT $LN2@remove_and
$LN3@remove_and:

; 7839 : 
; 7840 :     // Release the connection chain lock.
; 7841 :     release_lock( &pLCSDEV->LCSCONNChainLock );

  00072	48 8b 44 24 40	 mov	 rax, QWORD PTR pLCSDEV$[rsp]
  00077	48 05 82 00 00
	00		 add	 rax, 130		; 00000082H
  0007d	48 8d 15 00 00
	00 00		 lea	 rdx, OFFSET FLAT:$SG175683
  00084	48 8b c8	 mov	 rcx, rax
  00087	ff 15 00 00 00
	00		 call	 QWORD PTR __imp_hthread_release_lock

; 7842 : 
; 7843 :     return;
; 7844 : }

  0008d	48 83 c4 38	 add	 rsp, 56			; 00000038H
  00091	c3		 ret	 0
remove_and_free_any_connections_on_chain ENDP
_TEXT	ENDS
; Function compile flags: /Odtp
; File C:\papa\MyGit\hyperion-zvector\ctc_lcs.c
_TEXT	SEGMENT
rc$ = 32
pCurrLCSCONN$ = 40
ppPrevLCSCONN$ = 48
pLCSDEV$ = 80
pLCSCONN$ = 88
remove_connection_from_chain PROC

; 7788 : {

  00000	48 89 54 24 10	 mov	 QWORD PTR [rsp+16], rdx
  00005	48 89 4c 24 08	 mov	 QWORD PTR [rsp+8], rcx
  0000a	48 83 ec 48	 sub	 rsp, 72			; 00000048H

; 7789 :     PLCSCONN   pCurrLCSCONN;
; 7790 :     PLCSCONN* ppPrevLCSCONN;
; 7791 :     int        rc;
; 7792 : 
; 7793 :     // Prepare LCSCONN for removing from chain.
; 7794 :     if (!pLCSCONN)                                    // Any LCSCONN been passed?

  0000e	48 83 7c 24 58
	00		 cmp	 QWORD PTR pLCSCONN$[rsp], 0
  00014	75 0a		 jne	 SHORT $LN5@remove_con

; 7795 :         return -1;                                    // No, the caller is a fool

  00016	b8 ff ff ff ff	 mov	 eax, -1
  0001b	e9 b8 00 00 00	 jmp	 $LN1@remove_con
$LN5@remove_con:

; 7796 : 
; 7797 :     // Obtain the connection chain lock.
; 7798 :     obtain_lock( &pLCSDEV->LCSCONNChainLock );

  00020	48 8b 44 24 50	 mov	 rax, QWORD PTR pLCSDEV$[rsp]
  00025	48 05 82 00 00
	00		 add	 rax, 130		; 00000082H
  0002b	48 8d 15 00 00
	00 00		 lea	 rdx, OFFSET FLAT:$SG175672
  00032	48 8b c8	 mov	 rcx, rax
  00035	ff 15 00 00 00
	00		 call	 QWORD PTR __imp_hthread_obtain_lock

; 7799 : 
; 7800 :     // Remove the LCSCONN from the chain.
; 7801 :     rc = 1;

  0003b	c7 44 24 20 01
	00 00 00	 mov	 DWORD PTR rc$[rsp], 1

; 7802 :     ppPrevLCSCONN = &pLCSDEV->pFirstLCSCONN;

  00043	48 8b 44 24 50	 mov	 rax, QWORD PTR pLCSDEV$[rsp]
  00048	48 05 8a 00 00
	00		 add	 rax, 138		; 0000008aH
  0004e	48 89 44 24 30	 mov	 QWORD PTR ppPrevLCSCONN$[rsp], rax

; 7803 :     for (pCurrLCSCONN = pLCSDEV->pFirstLCSCONN; pCurrLCSCONN; pCurrLCSCONN = pCurrLCSCONN->pNextLCSCONN)

  00053	48 8b 44 24 50	 mov	 rax, QWORD PTR pLCSDEV$[rsp]
  00058	48 8b 80 8a 00
	00 00		 mov	 rax, QWORD PTR [rax+138]
  0005f	48 89 44 24 28	 mov	 QWORD PTR pCurrLCSCONN$[rsp], rax
  00064	eb 0d		 jmp	 SHORT $LN4@remove_con
$LN2@remove_con:
  00066	48 8b 44 24 28	 mov	 rax, QWORD PTR pCurrLCSCONN$[rsp]
  0006b	48 8b 00	 mov	 rax, QWORD PTR [rax]
  0006e	48 89 44 24 28	 mov	 QWORD PTR pCurrLCSCONN$[rsp], rax
$LN4@remove_con:
  00073	48 83 7c 24 28
	00		 cmp	 QWORD PTR pCurrLCSCONN$[rsp], 0
  00079	74 3e		 je	 SHORT $LN3@remove_con

; 7804 :     {
; 7805 :         if (pCurrLCSCONN == pLCSCONN)

  0007b	48 8b 44 24 58	 mov	 rax, QWORD PTR pLCSCONN$[rsp]
  00080	48 39 44 24 28	 cmp	 QWORD PTR pCurrLCSCONN$[rsp], rax
  00085	75 26		 jne	 SHORT $LN6@remove_con

; 7806 :         {
; 7807 :             *ppPrevLCSCONN = pCurrLCSCONN->pNextLCSCONN;

  00087	48 8b 44 24 30	 mov	 rax, QWORD PTR ppPrevLCSCONN$[rsp]
  0008c	48 8b 4c 24 28	 mov	 rcx, QWORD PTR pCurrLCSCONN$[rsp]
  00091	48 8b 09	 mov	 rcx, QWORD PTR [rcx]
  00094	48 89 08	 mov	 QWORD PTR [rax], rcx

; 7808 :             pCurrLCSCONN->pNextLCSCONN = NULL;

  00097	48 8b 44 24 28	 mov	 rax, QWORD PTR pCurrLCSCONN$[rsp]
  0009c	48 c7 00 00 00
	00 00		 mov	 QWORD PTR [rax], 0

; 7809 :             rc = 0;

  000a3	c7 44 24 20 00
	00 00 00	 mov	 DWORD PTR rc$[rsp], 0

; 7810 :             break;

  000ab	eb 0c		 jmp	 SHORT $LN3@remove_con
$LN6@remove_con:

; 7811 :         }
; 7812 :         ppPrevLCSCONN = &pCurrLCSCONN->pNextLCSCONN;

  000ad	48 8b 44 24 28	 mov	 rax, QWORD PTR pCurrLCSCONN$[rsp]
  000b2	48 89 44 24 30	 mov	 QWORD PTR ppPrevLCSCONN$[rsp], rax

; 7813 :     }

  000b7	eb ad		 jmp	 SHORT $LN2@remove_con
$LN3@remove_con:

; 7814 : 
; 7815 :     // Release the connection chain lock.
; 7816 :     release_lock( &pLCSDEV->LCSCONNChainLock );

  000b9	48 8b 44 24 50	 mov	 rax, QWORD PTR pLCSDEV$[rsp]
  000be	48 05 82 00 00
	00		 add	 rax, 130		; 00000082H
  000c4	48 8d 15 00 00
	00 00		 lea	 rdx, OFFSET FLAT:$SG175674
  000cb	48 8b c8	 mov	 rcx, rax
  000ce	ff 15 00 00 00
	00		 call	 QWORD PTR __imp_hthread_release_lock

; 7817 : 
; 7818 :     return rc;

  000d4	8b 44 24 20	 mov	 eax, DWORD PTR rc$[rsp]
$LN1@remove_con:

; 7819 : }

  000d8	48 83 c4 48	 add	 rsp, 72			; 00000048H
  000dc	c3		 ret	 0
remove_connection_from_chain ENDP
_TEXT	ENDS
; Function compile flags: /Odtp
; File C:\papa\MyGit\hyperion-zvector\ctc_lcs.c
_TEXT	SEGMENT
pLCSCONN$ = 32
pLCSDEV$ = 64
pToken$ = 72
find_connection_by_inbound_token PROC

; 7676 : {

  00000	48 89 54 24 10	 mov	 QWORD PTR [rsp+16], rdx
  00005	48 89 4c 24 08	 mov	 QWORD PTR [rsp+8], rcx
  0000a	48 83 ec 38	 sub	 rsp, 56			; 00000038H

; 7677 :     PLCSCONN   pLCSCONN;
; 7678 : 
; 7679 :     for (pLCSCONN = pLCSDEV->pFirstLCSCONN; pLCSCONN; pLCSCONN = pLCSCONN->pNextLCSCONN)

  0000e	48 8b 44 24 40	 mov	 rax, QWORD PTR pLCSDEV$[rsp]
  00013	48 8b 80 8a 00
	00 00		 mov	 rax, QWORD PTR [rax+138]
  0001a	48 89 44 24 20	 mov	 QWORD PTR pLCSCONN$[rsp], rax
  0001f	eb 0d		 jmp	 SHORT $LN4@find_conne
$LN2@find_conne:
  00021	48 8b 44 24 20	 mov	 rax, QWORD PTR pLCSCONN$[rsp]
  00026	48 8b 00	 mov	 rax, QWORD PTR [rax]
  00029	48 89 44 24 20	 mov	 QWORD PTR pLCSCONN$[rsp], rax
$LN4@find_conne:
  0002e	48 83 7c 24 20
	00		 cmp	 QWORD PTR pLCSCONN$[rsp], 0
  00034	74 24		 je	 SHORT $LN3@find_conne

; 7680 :     {
; 7681 :         if ( memcmp( &pLCSCONN->bInToken, pToken, sizeof(pLCSCONN->bInToken) ) == 0 )

  00036	48 8b 44 24 20	 mov	 rax, QWORD PTR pLCSCONN$[rsp]
  0003b	48 83 c0 08	 add	 rax, 8
  0003f	41 b8 04 00 00
	00		 mov	 r8d, 4
  00045	48 8b 54 24 48	 mov	 rdx, QWORD PTR pToken$[rsp]
  0004a	48 8b c8	 mov	 rcx, rax
  0004d	e8 00 00 00 00	 call	 memcmp
  00052	85 c0		 test	 eax, eax
  00054	75 02		 jne	 SHORT $LN5@find_conne

; 7682 :         {
; 7683 :             break;

  00056	eb 02		 jmp	 SHORT $LN3@find_conne
$LN5@find_conne:

; 7684 :         }
; 7685 :     }

  00058	eb c7		 jmp	 SHORT $LN2@find_conne
$LN3@find_conne:

; 7686 : 
; 7687 :     return pLCSCONN;

  0005a	48 8b 44 24 20	 mov	 rax, QWORD PTR pLCSCONN$[rsp]

; 7688 : }

  0005f	48 83 c4 38	 add	 rsp, 56			; 00000038H
  00063	c3		 ret	 0
find_connection_by_inbound_token ENDP
_TEXT	ENDS
; Function compile flags: /Odtp
; File C:\papa\MyGit\hyperion-zvector\ctc_lcs.c
_TEXT	SEGMENT
pLCSCONN$ = 32
pLCSDEV$ = 64
pToken$ = 72
find_connection_by_outbound_token PROC

; 7658 : {

  00000	48 89 54 24 10	 mov	 QWORD PTR [rsp+16], rdx
  00005	48 89 4c 24 08	 mov	 QWORD PTR [rsp+8], rcx
  0000a	48 83 ec 38	 sub	 rsp, 56			; 00000038H

; 7659 :     PLCSCONN   pLCSCONN;
; 7660 : 
; 7661 :     for (pLCSCONN = pLCSDEV->pFirstLCSCONN; pLCSCONN; pLCSCONN = pLCSCONN->pNextLCSCONN)

  0000e	48 8b 44 24 40	 mov	 rax, QWORD PTR pLCSDEV$[rsp]
  00013	48 8b 80 8a 00
	00 00		 mov	 rax, QWORD PTR [rax+138]
  0001a	48 89 44 24 20	 mov	 QWORD PTR pLCSCONN$[rsp], rax
  0001f	eb 0d		 jmp	 SHORT $LN4@find_conne
$LN2@find_conne:
  00021	48 8b 44 24 20	 mov	 rax, QWORD PTR pLCSCONN$[rsp]
  00026	48 8b 00	 mov	 rax, QWORD PTR [rax]
  00029	48 89 44 24 20	 mov	 QWORD PTR pLCSCONN$[rsp], rax
$LN4@find_conne:
  0002e	48 83 7c 24 20
	00		 cmp	 QWORD PTR pLCSCONN$[rsp], 0
  00034	74 24		 je	 SHORT $LN3@find_conne

; 7662 :     {
; 7663 :         if ( memcmp( &pLCSCONN->bOutToken, pToken, sizeof(pLCSCONN->bOutToken) ) == 0 )

  00036	48 8b 44 24 20	 mov	 rax, QWORD PTR pLCSCONN$[rsp]
  0003b	48 83 c0 0c	 add	 rax, 12
  0003f	41 b8 04 00 00
	00		 mov	 r8d, 4
  00045	48 8b 54 24 48	 mov	 rdx, QWORD PTR pToken$[rsp]
  0004a	48 8b c8	 mov	 rcx, rax
  0004d	e8 00 00 00 00	 call	 memcmp
  00052	85 c0		 test	 eax, eax
  00054	75 02		 jne	 SHORT $LN5@find_conne

; 7664 :         {
; 7665 :             break;

  00056	eb 02		 jmp	 SHORT $LN3@find_conne
$LN5@find_conne:

; 7666 :         }
; 7667 :     }

  00058	eb c7		 jmp	 SHORT $LN2@find_conne
$LN3@find_conne:

; 7668 : 
; 7669 :     return pLCSCONN;

  0005a	48 8b 44 24 20	 mov	 rax, QWORD PTR pLCSCONN$[rsp]

; 7670 : }

  0005f	48 83 c4 38	 add	 rsp, 56			; 00000038H
  00063	c3		 ret	 0
find_connection_by_outbound_token ENDP
_TEXT	ENDS
; Function compile flags: /Odtp
; File C:\papa\MyGit\hyperion-zvector\ctc_lcs.c
_TEXT	SEGMENT
pLCSCONN$ = 32
pLCSDEV$ = 64
pMAC$ = 72
find_connection_by_remote_mac PROC

; 7639 : {

  00000	48 89 54 24 10	 mov	 QWORD PTR [rsp+16], rdx
  00005	48 89 4c 24 08	 mov	 QWORD PTR [rsp+8], rcx
  0000a	48 83 ec 38	 sub	 rsp, 56			; 00000038H

; 7640 :     PLCSCONN   pLCSCONN;
; 7641 : 
; 7642 :     // Locate the LCSCONN on the chain.
; 7643 :     for (pLCSCONN = pLCSDEV->pFirstLCSCONN; pLCSCONN; pLCSCONN = pLCSCONN->pNextLCSCONN)

  0000e	48 8b 44 24 40	 mov	 rax, QWORD PTR pLCSDEV$[rsp]
  00013	48 8b 80 8a 00
	00 00		 mov	 rax, QWORD PTR [rax+138]
  0001a	48 89 44 24 20	 mov	 QWORD PTR pLCSCONN$[rsp], rax
  0001f	eb 0d		 jmp	 SHORT $LN4@find_conne
$LN2@find_conne:
  00021	48 8b 44 24 20	 mov	 rax, QWORD PTR pLCSCONN$[rsp]
  00026	48 8b 00	 mov	 rax, QWORD PTR [rax]
  00029	48 89 44 24 20	 mov	 QWORD PTR pLCSCONN$[rsp], rax
$LN4@find_conne:
  0002e	48 83 7c 24 20
	00		 cmp	 QWORD PTR pLCSCONN$[rsp], 0
  00034	74 24		 je	 SHORT $LN3@find_conne

; 7644 :     {
; 7645 :         if ( ( memcmp( &pLCSCONN->bRemoteMAC, pMAC, IFHWADDRLEN ) == 0 ) )

  00036	48 8b 44 24 20	 mov	 rax, QWORD PTR pLCSCONN$[rsp]
  0003b	48 83 c0 16	 add	 rax, 22
  0003f	41 b8 06 00 00
	00		 mov	 r8d, 6
  00045	48 8b 54 24 48	 mov	 rdx, QWORD PTR pMAC$[rsp]
  0004a	48 8b c8	 mov	 rcx, rax
  0004d	e8 00 00 00 00	 call	 memcmp
  00052	85 c0		 test	 eax, eax
  00054	75 02		 jne	 SHORT $LN5@find_conne

; 7646 :         {
; 7647 :             break;

  00056	eb 02		 jmp	 SHORT $LN3@find_conne
$LN5@find_conne:

; 7648 :         }
; 7649 :     }

  00058	eb c7		 jmp	 SHORT $LN2@find_conne
$LN3@find_conne:

; 7650 : 
; 7651 :     return pLCSCONN;

  0005a	48 8b 44 24 20	 mov	 rax, QWORD PTR pLCSCONN$[rsp]

; 7652 : }

  0005f	48 83 c4 38	 add	 rsp, 56			; 00000038H
  00063	c3		 ret	 0
find_connection_by_remote_mac ENDP
_TEXT	ENDS
; Function compile flags: /Odtp
; File C:\papa\MyGit\hyperion-zvector\ctc_lcs.c
_TEXT	SEGMENT
pLCSDEV$ = 48
pLCSCONN$ = 56
add_connection_to_chain PROC

; 7615 : {

  00000	48 89 54 24 10	 mov	 QWORD PTR [rsp+16], rdx
  00005	48 89 4c 24 08	 mov	 QWORD PTR [rsp+8], rcx
  0000a	48 83 ec 28	 sub	 rsp, 40			; 00000028H

; 7616 : 
; 7617 :     // Prepare LCSCONN for adding to chain.
; 7618 :     if (!pLCSCONN)                                       // Any LCSCONN been passed?

  0000e	48 83 7c 24 38
	00		 cmp	 QWORD PTR pLCSCONN$[rsp], 0
  00014	75 02		 jne	 SHORT $LN2@add_connec

; 7619 :         return;                                          // No, the caller is a fool

  00016	eb 67		 jmp	 SHORT $LN1@add_connec
$LN2@add_connec:

; 7620 :     pLCSCONN->pNextLCSCONN = NULL;                       // Clear the pointer to next LCSCONN

  00018	48 8b 44 24 38	 mov	 rax, QWORD PTR pLCSCONN$[rsp]
  0001d	48 c7 00 00 00
	00 00		 mov	 QWORD PTR [rax], 0

; 7621 : 
; 7622 :     // Obtain the connection chain lock.
; 7623 :     obtain_lock( &pLCSDEV->LCSCONNChainLock );

  00024	48 8b 44 24 30	 mov	 rax, QWORD PTR pLCSDEV$[rsp]
  00029	48 05 82 00 00
	00		 add	 rax, 130		; 00000082H
  0002f	48 8d 15 00 00
	00 00		 lea	 rdx, OFFSET FLAT:$SG175627
  00036	48 8b c8	 mov	 rcx, rax
  00039	ff 15 00 00 00
	00		 call	 QWORD PTR __imp_hthread_obtain_lock

; 7624 : 
; 7625 :     // Add the LCSCONN to the start of the chain.
; 7626 :     pLCSCONN->pNextLCSCONN = pLCSDEV->pFirstLCSCONN;

  0003f	48 8b 44 24 38	 mov	 rax, QWORD PTR pLCSCONN$[rsp]
  00044	48 8b 4c 24 30	 mov	 rcx, QWORD PTR pLCSDEV$[rsp]
  00049	48 8b 89 8a 00
	00 00		 mov	 rcx, QWORD PTR [rcx+138]
  00050	48 89 08	 mov	 QWORD PTR [rax], rcx

; 7627 :     pLCSDEV->pFirstLCSCONN = pLCSCONN;

  00053	48 8b 44 24 30	 mov	 rax, QWORD PTR pLCSDEV$[rsp]
  00058	48 8b 4c 24 38	 mov	 rcx, QWORD PTR pLCSCONN$[rsp]
  0005d	48 89 88 8a 00
	00 00		 mov	 QWORD PTR [rax+138], rcx

; 7628 : 
; 7629 :     // Release the connection chain lock.
; 7630 :     release_lock( &pLCSDEV->LCSCONNChainLock );

  00064	48 8b 44 24 30	 mov	 rax, QWORD PTR pLCSDEV$[rsp]
  00069	48 05 82 00 00
	00		 add	 rax, 130		; 00000082H
  0006f	48 8d 15 00 00
	00 00		 lea	 rdx, OFFSET FLAT:$SG175628
  00076	48 8b c8	 mov	 rcx, rax
  00079	ff 15 00 00 00
	00		 call	 QWORD PTR __imp_hthread_release_lock
$LN1@add_connec:

; 7631 : 
; 7632 :     return;
; 7633 : }

  0007f	48 83 c4 28	 add	 rsp, 40			; 00000028H
  00083	c3		 ret	 0
add_connection_to_chain ENDP
_TEXT	ENDS
; Function compile flags: /Odtp
; File C:\papa\MyGit\hyperion-zvector\ctc_lcs.c
_TEXT	SEGMENT
tv86 = 96
tv90 = 100
pDEVBLK$ = 104
pLCSCONN$ = 112
tv74 = 120
etext$ = 128
__$ArrayPad$ = 168
pLCSDEV$ = 192
alloc_connection PROC

; 7591 : {

  00000	48 89 4c 24 08	 mov	 QWORD PTR [rsp+8], rcx
  00005	48 81 ec b8 00
	00 00		 sub	 rsp, 184		; 000000b8H
  0000c	48 8b 05 00 00
	00 00		 mov	 rax, QWORD PTR __security_cookie
  00013	48 33 c4	 xor	 rax, rsp
  00016	48 89 84 24 a8
	00 00 00	 mov	 QWORD PTR __$ArrayPad$[rsp], rax

; 7592 :     DEVBLK*    pDEVBLK;
; 7593 :     PLCSCONN   pLCSCONN;
; 7594 :     char       etext[40];              // malloc text
; 7595 : 
; 7596 : 
; 7597 :     // Allocate the connection.                                                                                                                                                                        d
; 7598 :     pLCSCONN = calloc( sizeof(LCSCONN), 1 );     // Allocate and clear the connection

  0001e	ba 01 00 00 00	 mov	 edx, 1
  00023	b9 30 00 00 00	 mov	 ecx, 48			; 00000030H
  00028	ff 15 00 00 00
	00		 call	 QWORD PTR __imp_calloc
  0002e	48 89 44 24 70	 mov	 QWORD PTR pLCSCONN$[rsp], rax

; 7599 :     if (!pLCSCONN)                               // if the allocate was not successful...

  00033	48 83 7c 24 70
	00		 cmp	 QWORD PTR pLCSCONN$[rsp], 0
  00039	0f 85 e6 00 00
	00		 jne	 $LN2@alloc_conn

; 7600 :     {
; 7601 :         pDEVBLK = pLCSDEV->pDEVBLK[ LCS_READ_SUBCHANN ];

  0003f	b8 08 00 00 00	 mov	 eax, 8
  00044	48 6b c0 00	 imul	 rax, rax, 0
  00048	48 8b 8c 24 c0
	00 00 00	 mov	 rcx, QWORD PTR pLCSDEV$[rsp]
  00050	48 8b 44 01 10	 mov	 rax, QWORD PTR [rcx+rax+16]
  00055	48 89 44 24 68	 mov	 QWORD PTR pDEVBLK$[rsp], rax

; 7602 :         // Report the bad news.
; 7603 :         MSGBUF( etext, "malloc(%d)", (int)sizeof(LCSCONN) );

  0005a	41 b9 30 00 00
	00		 mov	 r9d, 48			; 00000030H
  00060	4c 8d 05 00 00
	00 00		 lea	 r8, OFFSET FLAT:$SG175615
  00067	ba 28 00 00 00	 mov	 edx, 40			; 00000028H
  0006c	48 8d 8c 24 80
	00 00 00	 lea	 rcx, QWORD PTR etext$[rsp]
  00074	ff 15 00 00 00
	00		 call	 QWORD PTR __imp_w32_snprintf

; 7604 :         // HHC00900 "%1d:%04X %s: error in function %s: %s"
; 7605 :         WRMSG(HHC00900, "E", SSID_TO_LCSS(pDEVBLK->ssid), pDEVBLK->devnum, pDEVBLK->typname,

  0007a	ff 15 00 00 00
	00		 call	 QWORD PTR __imp__errno
  00080	8b 08		 mov	 ecx, DWORD PTR [rax]
  00082	ff 15 00 00 00
	00		 call	 QWORD PTR __imp_w32_strerror
  00088	48 89 44 24 78	 mov	 QWORD PTR tv74[rsp], rax
  0008d	48 8b 4c 24 68	 mov	 rcx, QWORD PTR pDEVBLK$[rsp]
  00092	0f b7 49 48	 movzx	 ecx, WORD PTR [rcx+72]
  00096	89 4c 24 60	 mov	 DWORD PTR tv86[rsp], ecx
  0009a	48 8b 54 24 68	 mov	 rdx, QWORD PTR pDEVBLK$[rsp]
  0009f	0f b7 52 44	 movzx	 edx, WORD PTR [rdx+68]
  000a3	d1 fa		 sar	 edx, 1
  000a5	89 54 24 64	 mov	 DWORD PTR tv90[rsp], edx
  000a9	b9 01 00 00 00	 mov	 ecx, 1
  000ae	ff 15 00 00 00
	00		 call	 QWORD PTR __imp___acrt_iob_func
  000b4	48 8b 4c 24 78	 mov	 rcx, QWORD PTR tv74[rsp]
  000b9	48 89 4c 24 58	 mov	 QWORD PTR [rsp+88], rcx
  000be	48 8d 8c 24 80
	00 00 00	 lea	 rcx, QWORD PTR etext$[rsp]
  000c6	48 89 4c 24 50	 mov	 QWORD PTR [rsp+80], rcx
  000cb	48 8b 4c 24 68	 mov	 rcx, QWORD PTR pDEVBLK$[rsp]
  000d0	48 8b 49 50	 mov	 rcx, QWORD PTR [rcx+80]
  000d4	48 89 4c 24 48	 mov	 QWORD PTR [rsp+72], rcx
  000d9	8b 4c 24 60	 mov	 ecx, DWORD PTR tv86[rsp]
  000dd	89 4c 24 40	 mov	 DWORD PTR [rsp+64], ecx
  000e1	8b 4c 24 64	 mov	 ecx, DWORD PTR tv90[rsp]
  000e5	89 4c 24 38	 mov	 DWORD PTR [rsp+56], ecx
  000e9	48 8d 0d 00 00
	00 00		 lea	 rcx, OFFSET FLAT:$SG175616
  000f0	48 89 4c 24 30	 mov	 QWORD PTR [rsp+48], rcx
  000f5	48 8d 0d 00 00
	00 00		 lea	 rcx, OFFSET FLAT:$SG175617
  000fc	48 89 4c 24 28	 mov	 QWORD PTR [rsp+40], rcx
  00101	48 89 44 24 20	 mov	 QWORD PTR [rsp+32], rax
  00106	41 b9 03 00 00
	00		 mov	 r9d, 3
  0010c	4c 8d 05 00 00
	00 00		 lea	 r8, OFFSET FLAT:$SG175618
  00113	ba b6 1d 00 00	 mov	 edx, 7606		; 00001db6H
  00118	48 8d 0d 00 00
	00 00		 lea	 rcx, OFFSET FLAT:$SG175619
  0011f	ff 15 00 00 00
	00		 call	 QWORD PTR __imp_fwritemsg
$LN2@alloc_conn:

; 7606 :                              etext, strerror(errno) );
; 7607 :     }
; 7608 :     return pLCSCONN;

  00125	48 8b 44 24 70	 mov	 rax, QWORD PTR pLCSCONN$[rsp]

; 7609 : }

  0012a	48 8b 8c 24 a8
	00 00 00	 mov	 rcx, QWORD PTR __$ArrayPad$[rsp]
  00132	48 33 cc	 xor	 rcx, rsp
  00135	e8 00 00 00 00	 call	 __security_check_cookie
  0013a	48 81 c4 b8 00
	00 00		 add	 rsp, 184		; 000000b8H
  00141	c3		 ret	 0
alloc_connection ENDP
_TEXT	ENDS
; Function compile flags: /Odtp
; File C:\papa\MyGit\hyperion-zvector\ctc_lcs.c
_TEXT	SEGMENT
pLCSDEV$ = 48
pLCSIBH$ = 56
free_lcs_buffer PROC

; 7579 : {

  00000	48 89 54 24 10	 mov	 QWORD PTR [rsp+16], rdx
  00005	48 89 4c 24 08	 mov	 QWORD PTR [rsp+8], rcx
  0000a	48 83 ec 28	 sub	 rsp, 40			; 00000028H
$LN4@free_lcs_b:

; 7580 :     UNREFERENCED( pLCSDEV );

  0000e	33 c0		 xor	 eax, eax
  00010	85 c0		 test	 eax, eax
  00012	75 fa		 jne	 SHORT $LN4@free_lcs_b

; 7581 : 
; 7582 :     free( pLCSIBH );

  00014	48 8b 4c 24 38	 mov	 rcx, QWORD PTR pLCSIBH$[rsp]
  00019	ff 15 00 00 00
	00		 call	 QWORD PTR __imp_free

; 7583 :     return;
; 7584 : }

  0001f	48 83 c4 28	 add	 rsp, 40			; 00000028H
  00023	c3		 ret	 0
free_lcs_buffer ENDP
_TEXT	ENDS
; Function compile flags: /Odtp
; File C:\papa\MyGit\hyperion-zvector\ctc_lcs.c
_TEXT	SEGMENT
pLCSIBH$ = 32
pLCSDEV$ = 64
remove_and_free_any_lcs_buffers_on_chain PROC

; 7550 : {

  00000	48 89 4c 24 08	 mov	 QWORD PTR [rsp+8], rcx
  00005	48 83 ec 38	 sub	 rsp, 56			; 00000038H

; 7551 :     PLCSIBH    pLCSIBH;                                // LCSIBH
; 7552 : 
; 7553 :     // Obtain the buffer chain lock.
; 7554 :     obtain_lock( &pLCSDEV->LCSIBHChainLock );

  00009	48 8b 44 24 40	 mov	 rax, QWORD PTR pLCSDEV$[rsp]
  0000e	48 83 c0 6a	 add	 rax, 106		; 0000006aH
  00012	48 8d 15 00 00
	00 00		 lea	 rdx, OFFSET FLAT:$SG175594
  00019	48 8b c8	 mov	 rcx, rax
  0001c	ff 15 00 00 00
	00		 call	 QWORD PTR __imp_hthread_obtain_lock
$LN2@remove_and:

; 7555 : 
; 7556 :     // Remove and free the first LCSIBH on the chain, if there is one...
; 7557 :     while(pLCSDEV->pFirstLCSIBH)

  00022	48 8b 44 24 40	 mov	 rax, QWORD PTR pLCSDEV$[rsp]
  00027	48 83 78 72 00	 cmp	 QWORD PTR [rax+114], 0
  0002c	74 39		 je	 SHORT $LN3@remove_and

; 7558 :     {
; 7559 :         pLCSIBH = pLCSDEV->pFirstLCSIBH;               // Pointer to first LCSIBH

  0002e	48 8b 44 24 40	 mov	 rax, QWORD PTR pLCSDEV$[rsp]
  00033	48 8b 40 72	 mov	 rax, QWORD PTR [rax+114]
  00037	48 89 44 24 20	 mov	 QWORD PTR pLCSIBH$[rsp], rax

; 7560 :         pLCSDEV->pFirstLCSIBH = pLCSIBH->pNextLCSIBH;  // Make the next the first LCSIBH

  0003c	48 8b 44 24 40	 mov	 rax, QWORD PTR pLCSDEV$[rsp]
  00041	48 8b 4c 24 20	 mov	 rcx, QWORD PTR pLCSIBH$[rsp]
  00046	48 8b 09	 mov	 rcx, QWORD PTR [rcx]
  00049	48 89 48 72	 mov	 QWORD PTR [rax+114], rcx

; 7561 :         free_lcs_buffer( pLCSDEV, pLCSIBH );           // Free the buffer

  0004d	48 8b 54 24 20	 mov	 rdx, QWORD PTR pLCSIBH$[rsp]
  00052	48 8b 4c 24 40	 mov	 rcx, QWORD PTR pLCSDEV$[rsp]
  00057	e8 00 00 00 00	 call	 free_lcs_buffer

; 7562 :         pLCSIBH = NULL;

  0005c	48 c7 44 24 20
	00 00 00 00	 mov	 QWORD PTR pLCSIBH$[rsp], 0

; 7563 :     }

  00065	eb bb		 jmp	 SHORT $LN2@remove_and
$LN3@remove_and:

; 7564 : 
; 7565 :     // Reset the chain pointers.
; 7566 :     pLCSDEV->pFirstLCSIBH = NULL;                      // Clear the

  00067	48 8b 44 24 40	 mov	 rax, QWORD PTR pLCSDEV$[rsp]
  0006c	48 c7 40 72 00
	00 00 00	 mov	 QWORD PTR [rax+114], 0

; 7567 :     pLCSDEV->pLastLCSIBH = NULL;                       // chain pointers

  00074	48 8b 44 24 40	 mov	 rax, QWORD PTR pLCSDEV$[rsp]
  00079	48 c7 40 7a 00
	00 00 00	 mov	 QWORD PTR [rax+122], 0

; 7568 : 
; 7569 :     // Release the buffer chain lock.
; 7570 :     release_lock( &pLCSDEV->LCSIBHChainLock );

  00081	48 8b 44 24 40	 mov	 rax, QWORD PTR pLCSDEV$[rsp]
  00086	48 83 c0 6a	 add	 rax, 106		; 0000006aH
  0008a	48 8d 15 00 00
	00 00		 lea	 rdx, OFFSET FLAT:$SG175595
  00091	48 8b c8	 mov	 rcx, rax
  00094	ff 15 00 00 00
	00		 call	 QWORD PTR __imp_hthread_release_lock

; 7571 : 
; 7572 :     return;
; 7573 : }

  0009a	48 83 c4 38	 add	 rsp, 56			; 00000038H
  0009e	c3		 ret	 0
remove_and_free_any_lcs_buffers_on_chain ENDP
_TEXT	ENDS
; Function compile flags: /Odtp
; File C:\papa\MyGit\hyperion-zvector\ctc_lcs.c
_TEXT	SEGMENT
pLCSIBH$ = 32
pLCSDEV$ = 64
remove_lcs_buffer_from_chain PROC

; 7519 : {

  00000	48 89 4c 24 08	 mov	 QWORD PTR [rsp+8], rcx
  00005	48 83 ec 38	 sub	 rsp, 56			; 00000038H

; 7520 :     PLCSIBH    pLCSIBH;                                // LCSIBH
; 7521 : 
; 7522 :     // Obtain the buffer chain lock.
; 7523 :     obtain_lock( &pLCSDEV->LCSIBHChainLock );

  00009	48 8b 44 24 40	 mov	 rax, QWORD PTR pLCSDEV$[rsp]
  0000e	48 83 c0 6a	 add	 rax, 106		; 0000006aH
  00012	48 8d 15 00 00
	00 00		 lea	 rdx, OFFSET FLAT:$SG175581
  00019	48 8b c8	 mov	 rcx, rax
  0001c	ff 15 00 00 00
	00		 call	 QWORD PTR __imp_hthread_obtain_lock

; 7524 : 
; 7525 :     // Point to first LCSIBH on the chain.
; 7526 :     pLCSIBH = pLCSDEV->pFirstLCSIBH;                   // Pointer to first LCSIBH

  00022	48 8b 44 24 40	 mov	 rax, QWORD PTR pLCSDEV$[rsp]
  00027	48 8b 40 72	 mov	 rax, QWORD PTR [rax+114]
  0002b	48 89 44 24 20	 mov	 QWORD PTR pLCSIBH$[rsp], rax

; 7527 : 
; 7528 :     // Remove the first LCSIBH from the chain, if there is one...
; 7529 :     if (pLCSIBH)                                       // If there is a LCSIBH

  00030	48 83 7c 24 20
	00		 cmp	 QWORD PTR pLCSIBH$[rsp], 0
  00036	74 36		 je	 SHORT $LN2@remove_lcs

; 7530 :     {
; 7531 :         pLCSDEV->pFirstLCSIBH = pLCSIBH->pNextLCSIBH;  // Make the next the first LCSIBH

  00038	48 8b 44 24 40	 mov	 rax, QWORD PTR pLCSDEV$[rsp]
  0003d	48 8b 4c 24 20	 mov	 rcx, QWORD PTR pLCSIBH$[rsp]
  00042	48 8b 09	 mov	 rcx, QWORD PTR [rcx]
  00045	48 89 48 72	 mov	 QWORD PTR [rax+114], rcx

; 7532 :         if (!pLCSDEV->pFirstLCSIBH)                    // if there are no more LCSIBHs

  00049	48 8b 44 24 40	 mov	 rax, QWORD PTR pLCSDEV$[rsp]
  0004e	48 83 78 72 00	 cmp	 QWORD PTR [rax+114], 0
  00053	75 0d		 jne	 SHORT $LN3@remove_lcs

; 7533 :         {
; 7534 : //          pLCSDEV->pFirstLCSIBH = NULL;              // Clear
; 7535 :             pLCSDEV->pLastLCSIBH = NULL;               // the chain

  00055	48 8b 44 24 40	 mov	 rax, QWORD PTR pLCSDEV$[rsp]
  0005a	48 c7 40 7a 00
	00 00 00	 mov	 QWORD PTR [rax+122], 0
$LN3@remove_lcs:

; 7536 :         }
; 7537 :         pLCSIBH->pNextLCSIBH = NULL;                   // Clear the pointer to next LCSIBH

  00062	48 8b 44 24 20	 mov	 rax, QWORD PTR pLCSIBH$[rsp]
  00067	48 c7 00 00 00
	00 00		 mov	 QWORD PTR [rax], 0
$LN2@remove_lcs:

; 7538 :     }
; 7539 : 
; 7540 :     // Release the buffer chain lock.
; 7541 :     release_lock( &pLCSDEV->LCSIBHChainLock );

  0006e	48 8b 44 24 40	 mov	 rax, QWORD PTR pLCSDEV$[rsp]
  00073	48 83 c0 6a	 add	 rax, 106		; 0000006aH
  00077	48 8d 15 00 00
	00 00		 lea	 rdx, OFFSET FLAT:$SG175584
  0007e	48 8b c8	 mov	 rcx, rax
  00081	ff 15 00 00 00
	00		 call	 QWORD PTR __imp_hthread_release_lock

; 7542 : 
; 7543 :     return pLCSIBH;

  00087	48 8b 44 24 20	 mov	 rax, QWORD PTR pLCSIBH$[rsp]

; 7544 : }

  0008c	48 83 c4 38	 add	 rsp, 56			; 00000038H
  00090	c3		 ret	 0
remove_lcs_buffer_from_chain ENDP
_TEXT	ENDS
; Function compile flags: /Odtp
; File C:\papa\MyGit\hyperion-zvector\ctc_lcs.c
_TEXT	SEGMENT
pLCSDEV$ = 48
pLCSIBH$ = 56
add_lcs_buffer_to_chain PROC

; 7487 : {

  00000	48 89 54 24 10	 mov	 QWORD PTR [rsp+16], rdx
  00005	48 89 4c 24 08	 mov	 QWORD PTR [rsp+8], rcx
  0000a	48 83 ec 28	 sub	 rsp, 40			; 00000028H

; 7488 : 
; 7489 :     // Prepare LCSIBH for adding to chain.
; 7490 :     if (!pLCSIBH)                                      // Any LCSIBH been passed?

  0000e	48 83 7c 24 38
	00		 cmp	 QWORD PTR pLCSIBH$[rsp], 0
  00014	75 05		 jne	 SHORT $LN2@add_lcs_bu

; 7491 :         return;

  00016	e9 87 00 00 00	 jmp	 $LN1@add_lcs_bu
$LN2@add_lcs_bu:

; 7492 :     pLCSIBH->pNextLCSIBH = NULL;                       // Clear the pointer to next LCSIBH

  0001b	48 8b 44 24 38	 mov	 rax, QWORD PTR pLCSIBH$[rsp]
  00020	48 c7 00 00 00
	00 00		 mov	 QWORD PTR [rax], 0

; 7493 : 
; 7494 :     // Obtain the buffer chain lock.
; 7495 :     obtain_lock( &pLCSDEV->LCSIBHChainLock );

  00027	48 8b 44 24 30	 mov	 rax, QWORD PTR pLCSDEV$[rsp]
  0002c	48 83 c0 6a	 add	 rax, 106		; 0000006aH
  00030	48 8d 15 00 00
	00 00		 lea	 rdx, OFFSET FLAT:$SG175571
  00037	48 8b c8	 mov	 rcx, rax
  0003a	ff 15 00 00 00
	00		 call	 QWORD PTR __imp_hthread_obtain_lock

; 7496 : 
; 7497 :     // Add LCSIBH to end of chain.
; 7498 :     if (pLCSDEV->pFirstLCSIBH)                         // if there are already LCSIBHs

  00040	48 8b 44 24 30	 mov	 rax, QWORD PTR pLCSDEV$[rsp]
  00045	48 83 78 72 00	 cmp	 QWORD PTR [rax+114], 0
  0004a	74 21		 je	 SHORT $LN3@add_lcs_bu

; 7499 :     {
; 7500 :         pLCSDEV->pLastLCSIBH->pNextLCSIBH = pLCSIBH;   // Add the LCSIBH to

  0004c	48 8b 44 24 30	 mov	 rax, QWORD PTR pLCSDEV$[rsp]
  00051	48 8b 40 7a	 mov	 rax, QWORD PTR [rax+122]
  00055	48 8b 4c 24 38	 mov	 rcx, QWORD PTR pLCSIBH$[rsp]
  0005a	48 89 08	 mov	 QWORD PTR [rax], rcx

; 7501 :         pLCSDEV->pLastLCSIBH = pLCSIBH;                // the end of the chain

  0005d	48 8b 44 24 30	 mov	 rax, QWORD PTR pLCSDEV$[rsp]
  00062	48 8b 4c 24 38	 mov	 rcx, QWORD PTR pLCSIBH$[rsp]
  00067	48 89 48 7a	 mov	 QWORD PTR [rax+122], rcx

; 7502 :     }

  0006b	eb 1c		 jmp	 SHORT $LN4@add_lcs_bu
$LN3@add_lcs_bu:

; 7503 :     else
; 7504 :     {
; 7505 :         pLCSDEV->pFirstLCSIBH = pLCSIBH;               // Make the LCSIBH

  0006d	48 8b 44 24 30	 mov	 rax, QWORD PTR pLCSDEV$[rsp]
  00072	48 8b 4c 24 38	 mov	 rcx, QWORD PTR pLCSIBH$[rsp]
  00077	48 89 48 72	 mov	 QWORD PTR [rax+114], rcx

; 7506 :         pLCSDEV->pLastLCSIBH = pLCSIBH;                // the only LCSIBH

  0007b	48 8b 44 24 30	 mov	 rax, QWORD PTR pLCSDEV$[rsp]
  00080	48 8b 4c 24 38	 mov	 rcx, QWORD PTR pLCSIBH$[rsp]
  00085	48 89 48 7a	 mov	 QWORD PTR [rax+122], rcx
$LN4@add_lcs_bu:

; 7507 :     }
; 7508 : 
; 7509 :     // Release the buffer chain lock.
; 7510 :     release_lock( &pLCSDEV->LCSIBHChainLock );

  00089	48 8b 44 24 30	 mov	 rax, QWORD PTR pLCSDEV$[rsp]
  0008e	48 83 c0 6a	 add	 rax, 106		; 0000006aH
  00092	48 8d 15 00 00
	00 00		 lea	 rdx, OFFSET FLAT:$SG175574
  00099	48 8b c8	 mov	 rcx, rax
  0009c	ff 15 00 00 00
	00		 call	 QWORD PTR __imp_hthread_release_lock
$LN1@add_lcs_bu:

; 7511 : 
; 7512 :     return;
; 7513 : }

  000a2	48 83 c4 28	 add	 rsp, 40			; 00000028H
  000a6	c3		 ret	 0
add_lcs_buffer_to_chain ENDP
_TEXT	ENDS
; Function compile flags: /Odtp
; File C:\papa\MyGit\hyperion-zvector\ctc_lcs.c
_TEXT	SEGMENT
iBufLen$ = 96
tv91 = 100
tv95 = 104
pDEVBLK$ = 112
pLCSIBH$ = 120
tv79 = 128
etext$ = 136
__$ArrayPad$ = 176
pLCSDEV$ = 208
iSize$ = 216
alloc_lcs_buffer PROC

; 7456 : {

  00000	89 54 24 10	 mov	 DWORD PTR [rsp+16], edx
  00004	48 89 4c 24 08	 mov	 QWORD PTR [rsp+8], rcx
  00009	48 81 ec c8 00
	00 00		 sub	 rsp, 200		; 000000c8H
  00010	48 8b 05 00 00
	00 00		 mov	 rax, QWORD PTR __security_cookie
  00017	48 33 c4	 xor	 rax, rsp
  0001a	48 89 84 24 b0
	00 00 00	 mov	 QWORD PTR __$ArrayPad$[rsp], rax

; 7457 :     DEVBLK*    pDEVBLK;
; 7458 :     PLCSIBH    pLCSIBH;                // LCSIBH
; 7459 :     int        iBufLen;                // Buffer length
; 7460 :     char       etext[40];              // malloc error text
; 7461 : 
; 7462 : 
; 7463 :     // Allocate the buffer.
; 7464 :     iBufLen = sizeof(LCSIBH) + iSize;

  00022	48 63 84 24 d8
	00 00 00	 movsxd	 rax, DWORD PTR iSize$[rsp]
  0002a	48 83 c0 10	 add	 rax, 16
  0002e	89 44 24 60	 mov	 DWORD PTR iBufLen$[rsp], eax

; 7465 :     pLCSIBH = calloc( iBufLen, 1 );    // Allocate and clear the buffer

  00032	48 63 44 24 60	 movsxd	 rax, DWORD PTR iBufLen$[rsp]
  00037	ba 01 00 00 00	 mov	 edx, 1
  0003c	48 8b c8	 mov	 rcx, rax
  0003f	ff 15 00 00 00
	00		 call	 QWORD PTR __imp_calloc
  00045	48 89 44 24 78	 mov	 QWORD PTR pLCSIBH$[rsp], rax

; 7466 :     if (pLCSIBH)                       // if the allocate was successful...

  0004a	48 83 7c 24 78
	00		 cmp	 QWORD PTR pLCSIBH$[rsp], 0
  00050	74 14		 je	 SHORT $LN2@alloc_lcs_

; 7467 :     {
; 7468 :         pLCSIBH->iAreaLen = iSize;

  00052	48 8b 44 24 78	 mov	 rax, QWORD PTR pLCSIBH$[rsp]
  00057	8b 8c 24 d8 00
	00 00		 mov	 ecx, DWORD PTR iSize$[rsp]
  0005e	89 48 08	 mov	 DWORD PTR [rax+8], ecx

; 7469 :     }

  00061	e9 eb 00 00 00	 jmp	 $LN3@alloc_lcs_
$LN2@alloc_lcs_:

; 7470 :     else                               // ohdear, the allocate was not successful...
; 7471 :     {
; 7472 :         pDEVBLK = pLCSDEV->pDEVBLK[ LCS_READ_SUBCHANN ];

  00066	b8 08 00 00 00	 mov	 eax, 8
  0006b	48 6b c0 00	 imul	 rax, rax, 0
  0006f	48 8b 8c 24 d0
	00 00 00	 mov	 rcx, QWORD PTR pLCSDEV$[rsp]
  00077	48 8b 44 01 10	 mov	 rax, QWORD PTR [rcx+rax+16]
  0007c	48 89 44 24 70	 mov	 QWORD PTR pDEVBLK$[rsp], rax

; 7473 :         // Report the bad news.
; 7474 :         MSGBUF( etext, "malloc(%d)", iBufLen );

  00081	44 8b 4c 24 60	 mov	 r9d, DWORD PTR iBufLen$[rsp]
  00086	4c 8d 05 00 00
	00 00		 lea	 r8, OFFSET FLAT:$SG175559
  0008d	ba 28 00 00 00	 mov	 edx, 40			; 00000028H
  00092	48 8d 8c 24 88
	00 00 00	 lea	 rcx, QWORD PTR etext$[rsp]
  0009a	ff 15 00 00 00
	00		 call	 QWORD PTR __imp_w32_snprintf

; 7475 :         // HHC00900 "%1d:%04X %s: error in function %s: %s"
; 7476 :         WRMSG(HHC00900, "E", SSID_TO_LCSS(pDEVBLK->ssid), pDEVBLK->devnum, pDEVBLK->typname,

  000a0	ff 15 00 00 00
	00		 call	 QWORD PTR __imp__errno
  000a6	8b 08		 mov	 ecx, DWORD PTR [rax]
  000a8	ff 15 00 00 00
	00		 call	 QWORD PTR __imp_w32_strerror
  000ae	48 89 84 24 80
	00 00 00	 mov	 QWORD PTR tv79[rsp], rax
  000b6	48 8b 4c 24 70	 mov	 rcx, QWORD PTR pDEVBLK$[rsp]
  000bb	0f b7 49 48	 movzx	 ecx, WORD PTR [rcx+72]
  000bf	89 4c 24 64	 mov	 DWORD PTR tv91[rsp], ecx
  000c3	48 8b 54 24 70	 mov	 rdx, QWORD PTR pDEVBLK$[rsp]
  000c8	0f b7 52 44	 movzx	 edx, WORD PTR [rdx+68]
  000cc	d1 fa		 sar	 edx, 1
  000ce	89 54 24 68	 mov	 DWORD PTR tv95[rsp], edx
  000d2	b9 01 00 00 00	 mov	 ecx, 1
  000d7	ff 15 00 00 00
	00		 call	 QWORD PTR __imp___acrt_iob_func
  000dd	48 8b 8c 24 80
	00 00 00	 mov	 rcx, QWORD PTR tv79[rsp]
  000e5	48 89 4c 24 58	 mov	 QWORD PTR [rsp+88], rcx
  000ea	48 8d 8c 24 88
	00 00 00	 lea	 rcx, QWORD PTR etext$[rsp]
  000f2	48 89 4c 24 50	 mov	 QWORD PTR [rsp+80], rcx
  000f7	48 8b 4c 24 70	 mov	 rcx, QWORD PTR pDEVBLK$[rsp]
  000fc	48 8b 49 50	 mov	 rcx, QWORD PTR [rcx+80]
  00100	48 89 4c 24 48	 mov	 QWORD PTR [rsp+72], rcx
  00105	8b 4c 24 64	 mov	 ecx, DWORD PTR tv91[rsp]
  00109	89 4c 24 40	 mov	 DWORD PTR [rsp+64], ecx
  0010d	8b 4c 24 68	 mov	 ecx, DWORD PTR tv95[rsp]
  00111	89 4c 24 38	 mov	 DWORD PTR [rsp+56], ecx
  00115	48 8d 0d 00 00
	00 00		 lea	 rcx, OFFSET FLAT:$SG175560
  0011c	48 89 4c 24 30	 mov	 QWORD PTR [rsp+48], rcx
  00121	48 8d 0d 00 00
	00 00		 lea	 rcx, OFFSET FLAT:$SG175561
  00128	48 89 4c 24 28	 mov	 QWORD PTR [rsp+40], rcx
  0012d	48 89 44 24 20	 mov	 QWORD PTR [rsp+32], rax
  00132	41 b9 03 00 00
	00		 mov	 r9d, 3
  00138	4c 8d 05 00 00
	00 00		 lea	 r8, OFFSET FLAT:$SG175562
  0013f	ba 35 1d 00 00	 mov	 edx, 7477		; 00001d35H
  00144	48 8d 0d 00 00
	00 00		 lea	 rcx, OFFSET FLAT:$SG175563
  0014b	ff 15 00 00 00
	00		 call	 QWORD PTR __imp_fwritemsg
$LN3@alloc_lcs_:

; 7477 :                              etext, strerror(errno) );
; 7478 :     }
; 7479 : 
; 7480 :     return pLCSIBH;

  00151	48 8b 44 24 78	 mov	 rax, QWORD PTR pLCSIBH$[rsp]

; 7481 : }

  00156	48 8b 8c 24 b0
	00 00 00	 mov	 rcx, QWORD PTR __$ArrayPad$[rsp]
  0015e	48 33 cc	 xor	 rcx, rsp
  00161	e8 00 00 00 00	 call	 __security_check_cookie
  00166	48 81 c4 c8 00
	00 00		 add	 rsp, 200		; 000000c8H
  0016d	c3		 ret	 0
alloc_lcs_buffer ENDP
_TEXT	ENDS
; Function compile flags: /Odtp
; File C:\papa\MyGit\hyperion-zvector\ctc_lcs.c
_TEXT	SEGMENT
hwLenInBaf1$ = 32
pLCSIBH$ = 40
pInBAF1$ = 48
pInHDR$ = 56
pInBAF2$ = 64
pLCSDEV$ = 112
pOutHDR$ = 120
pOutBAF1$ = 128
pOutBAF2$ = 136
hwLenOutBaf1$ = 144
hwLenOutBaf2$ = 152
Process_0C98 PROC

; 5706 : {

  00000	4c 89 4c 24 20	 mov	 QWORD PTR [rsp+32], r9
  00005	4c 89 44 24 18	 mov	 QWORD PTR [rsp+24], r8
  0000a	48 89 54 24 10	 mov	 QWORD PTR [rsp+16], rdx
  0000f	48 89 4c 24 08	 mov	 QWORD PTR [rsp+8], rcx
  00014	56		 push	 rsi
  00015	57		 push	 rdi
  00016	48 83 ec 58	 sub	 rsp, 88			; 00000058H
$LN4@Process_0C:

; 5707 : #define INBOUND_CC98_SIZE 32
; 5708 : static const BYTE Inbound_CC98[INBOUND_CC98_SIZE] =
; 5709 :                  {
; 5710 :                    0x00, 0x20, 0x04, 0x00,                           /* LCSHDR  */
; 5711 :                    0x00, 0x18, 0xCC, 0x98, 0x00, 0x03, 0xC0, 0x00,   /* LCSBAF1 */
; 5712 :                    0x00, 0x00, 0x00, 0x00, 0x00, 0x00, 0x00, 0x00,
; 5713 :                    0x00, 0x00, 0x70, 0x00, 0x00, 0x00, 0x00, 0x00,
; 5714 :                    0x01, 0xff, 0xff,                                 /* LCSBAF2 */
; 5715 :                    0x00                                              /* Filler  */
; 5716 :                  };
; 5717 : 
; 5718 :     PLCSIBH     pLCSIBH;
; 5719 :     PLCSHDR     pInHDR;
; 5720 :     PLCSBAF1    pInBAF1;
; 5721 :     PLCSBAF2    pInBAF2;
; 5722 :     U16         hwLenInBaf1;
; 5723 : //  U16         hwLenInBaf2;
; 5724 : 
; 5725 :     UNREFERENCED( pOutHDR      );

  0001a	33 c0		 xor	 eax, eax
  0001c	85 c0		 test	 eax, eax
  0001e	75 fa		 jne	 SHORT $LN4@Process_0C
$LN7@Process_0C:

; 5726 :     UNREFERENCED( pOutBAF1     );

  00020	33 c0		 xor	 eax, eax
  00022	85 c0		 test	 eax, eax
  00024	75 fa		 jne	 SHORT $LN7@Process_0C
$LN10@Process_0C:

; 5727 :     UNREFERENCED( hwLenOutBaf1 );

  00026	33 c0		 xor	 eax, eax
  00028	85 c0		 test	 eax, eax
  0002a	75 fa		 jne	 SHORT $LN10@Process_0C
$LN13@Process_0C:

; 5728 :     UNREFERENCED( hwLenOutBaf2 );

  0002c	33 c0		 xor	 eax, eax
  0002e	85 c0		 test	 eax, eax
  00030	75 fa		 jne	 SHORT $LN13@Process_0C

; 5729 : 
; 5730 :     pLCSIBH = alloc_lcs_buffer( pLCSDEV, ( INBOUND_CC98_SIZE * 2 ) );

  00032	ba 40 00 00 00	 mov	 edx, 64			; 00000040H
  00037	48 8b 4c 24 70	 mov	 rcx, QWORD PTR pLCSDEV$[rsp]
  0003c	e8 00 00 00 00	 call	 alloc_lcs_buffer
  00041	48 89 44 24 28	 mov	 QWORD PTR pLCSIBH$[rsp], rax

; 5731 : 
; 5732 :     memcpy( &pLCSIBH->bData, Inbound_CC98, INBOUND_CC98_SIZE );

  00046	48 8b 44 24 28	 mov	 rax, QWORD PTR pLCSIBH$[rsp]
  0004b	48 8d 0d 00 00
	00 00		 lea	 rcx, OFFSET FLAT:?Inbound_CC98@?1??Process_0C98@@9@9
  00052	48 8d 78 10	 lea	 rdi, QWORD PTR [rax+16]
  00056	48 8b f1	 mov	 rsi, rcx
  00059	b9 20 00 00 00	 mov	 ecx, 32			; 00000020H
  0005e	f3 a4		 rep movsb

; 5733 :     pLCSIBH->iDataLen = INBOUND_CC98_SIZE;

  00060	48 8b 44 24 28	 mov	 rax, QWORD PTR pLCSIBH$[rsp]
  00065	c7 40 0c 20 00
	00 00		 mov	 DWORD PTR [rax+12], 32	; 00000020H

; 5734 : 
; 5735 :     pInHDR = (PLCSHDR)&pLCSIBH->bData;

  0006c	48 8b 44 24 28	 mov	 rax, QWORD PTR pLCSIBH$[rsp]
  00071	48 83 c0 10	 add	 rax, 16
  00075	48 89 44 24 38	 mov	 QWORD PTR pInHDR$[rsp], rax

; 5736 :     pInBAF1 = (PLCSBAF1)( (BYTE*)pInHDR + sizeof(LCSHDR) );

  0007a	48 8b 44 24 38	 mov	 rax, QWORD PTR pInHDR$[rsp]
  0007f	48 83 c0 04	 add	 rax, 4
  00083	48 89 44 24 30	 mov	 QWORD PTR pInBAF1$[rsp], rax

; 5737 :     FETCH_HW( hwLenInBaf1, pInBAF1->hwLenBaf1 );

  00088	48 8b 44 24 30	 mov	 rax, QWORD PTR pInBAF1$[rsp]
  0008d	48 8b c8	 mov	 rcx, rax
  00090	e8 00 00 00 00	 call	 fetch_hw_noswap
  00095	0f b7 c8	 movzx	 ecx, ax
  00098	e8 00 00 00 00	 call	 _byteswap_ushort
  0009d	66 89 44 24 20	 mov	 WORD PTR hwLenInBaf1$[rsp], ax

; 5738 : //  FETCH_HW( hwLenInBaf2, pInBAF1->hwLenBaf2 );
; 5739 :     pInBAF2 = (PLCSBAF2)( (BYTE*)pInBAF1 + hwLenInBaf1 );

  000a2	0f b7 44 24 20	 movzx	 eax, WORD PTR hwLenInBaf1$[rsp]
  000a7	48 8b 4c 24 30	 mov	 rcx, QWORD PTR pInBAF1$[rsp]
  000ac	48 03 c8	 add	 rcx, rax
  000af	48 8b c1	 mov	 rax, rcx
  000b2	48 89 44 24 40	 mov	 QWORD PTR pInBAF2$[rsp], rax

; 5740 : 
; 5741 :     memcpy( &pInBAF2->hwSeqNum, &pOutBAF2->hwSeqNum, sizeof(pInBAF2->hwSeqNum) );

  000b7	48 8b 44 24 40	 mov	 rax, QWORD PTR pInBAF2$[rsp]
  000bc	48 8b 8c 24 88
	00 00 00	 mov	 rcx, QWORD PTR pOutBAF2$[rsp]
  000c4	0f b7 49 01	 movzx	 ecx, WORD PTR [rcx+1]
  000c8	66 89 48 01	 mov	 WORD PTR [rax+1], cx

; 5742 : 
; 5743 :     add_lcs_buffer_to_chain( pLCSDEV, pLCSIBH );

  000cc	48 8b 54 24 28	 mov	 rdx, QWORD PTR pLCSIBH$[rsp]
  000d1	48 8b 4c 24 70	 mov	 rcx, QWORD PTR pLCSDEV$[rsp]
  000d6	e8 00 00 00 00	 call	 add_lcs_buffer_to_chain

; 5744 : 
; 5745 :     return;
; 5746 : }

  000db	48 83 c4 58	 add	 rsp, 88			; 00000058H
  000df	5f		 pop	 rdi
  000e0	5e		 pop	 rsi
  000e1	c3		 ret	 0
Process_0C98 ENDP
_TEXT	ENDS
; Function compile flags: /Odtp
; File C:\papa\MyGit\hyperion-zvector\ctc_lcs.c
_TEXT	SEGMENT
hwLenInBaf1$ = 32
pLCSIBH$ = 40
pInBAF1$ = 48
pInHDR$ = 56
pInBAF2$ = 64
pLCSDEV$ = 112
pOutHDR$ = 120
pOutBAF1$ = 128
pOutBAF2$ = 136
hwLenOutBaf1$ = 144
hwLenOutBaf2$ = 152
Process_0C0E PROC

; 5652 : {

  00000	4c 89 4c 24 20	 mov	 QWORD PTR [rsp+32], r9
  00005	4c 89 44 24 18	 mov	 QWORD PTR [rsp+24], r8
  0000a	48 89 54 24 10	 mov	 QWORD PTR [rsp+16], rdx
  0000f	48 89 4c 24 08	 mov	 QWORD PTR [rsp+8], rcx
  00014	56		 push	 rsi
  00015	57		 push	 rdi
  00016	48 83 ec 58	 sub	 rsp, 88			; 00000058H
$LN4@Process_0C:

; 5653 : #define INBOUND_CC0E_SIZE 32
; 5654 : static const BYTE Inbound_CC0E[INBOUND_CC0E_SIZE] =
; 5655 :                  {
; 5656 :                    0x00, 0x20, 0x04, 0x00,                           /* LCSHDR  */
; 5657 :                    0x00, 0x18, 0xCC, 0x0E, 0x00, 0x03, 0x60, 0x03,   /* LCSBAF1 */
; 5658 :                    0x00, 0x00, 0x00, 0x01, 0x00, 0x00, 0x00, 0x00,
; 5659 :                    0x00, 0x00, 0x70, 0x00, 0x00, 0x00, 0x00, 0x00,
; 5660 :                    0x01, 0xff, 0xff,                                 /* LCSBAF2 */
; 5661 :                    0x00,                                             /* Filler  */
; 5662 :                  };
; 5663 : 
; 5664 :     PLCSIBH     pLCSIBH;
; 5665 :     PLCSHDR     pInHDR;
; 5666 :     PLCSBAF1    pInBAF1;
; 5667 :     PLCSBAF2    pInBAF2;
; 5668 :     U16         hwLenInBaf1;
; 5669 : //  U16         hwLenInBaf2;
; 5670 : 
; 5671 :     UNREFERENCED( pOutHDR      );

  0001a	33 c0		 xor	 eax, eax
  0001c	85 c0		 test	 eax, eax
  0001e	75 fa		 jne	 SHORT $LN4@Process_0C
$LN7@Process_0C:

; 5672 :     UNREFERENCED( pOutBAF1     );

  00020	33 c0		 xor	 eax, eax
  00022	85 c0		 test	 eax, eax
  00024	75 fa		 jne	 SHORT $LN7@Process_0C
$LN10@Process_0C:

; 5673 :     UNREFERENCED( hwLenOutBaf1 );

  00026	33 c0		 xor	 eax, eax
  00028	85 c0		 test	 eax, eax
  0002a	75 fa		 jne	 SHORT $LN10@Process_0C
$LN13@Process_0C:

; 5674 :     UNREFERENCED( hwLenOutBaf2 );

  0002c	33 c0		 xor	 eax, eax
  0002e	85 c0		 test	 eax, eax
  00030	75 fa		 jne	 SHORT $LN13@Process_0C

; 5675 : 
; 5676 :     pLCSIBH = alloc_lcs_buffer( pLCSDEV, ( INBOUND_CC0E_SIZE * 2 ) );

  00032	ba 40 00 00 00	 mov	 edx, 64			; 00000040H
  00037	48 8b 4c 24 70	 mov	 rcx, QWORD PTR pLCSDEV$[rsp]
  0003c	e8 00 00 00 00	 call	 alloc_lcs_buffer
  00041	48 89 44 24 28	 mov	 QWORD PTR pLCSIBH$[rsp], rax

; 5677 : 
; 5678 :     memcpy( &pLCSIBH->bData, Inbound_CC0E, INBOUND_CC0E_SIZE );

  00046	48 8b 44 24 28	 mov	 rax, QWORD PTR pLCSIBH$[rsp]
  0004b	48 8d 0d 00 00
	00 00		 lea	 rcx, OFFSET FLAT:?Inbound_CC0E@?1??Process_0C0E@@9@9
  00052	48 8d 78 10	 lea	 rdi, QWORD PTR [rax+16]
  00056	48 8b f1	 mov	 rsi, rcx
  00059	b9 20 00 00 00	 mov	 ecx, 32			; 00000020H
  0005e	f3 a4		 rep movsb

; 5679 :     pLCSIBH->iDataLen = INBOUND_CC0E_SIZE;

  00060	48 8b 44 24 28	 mov	 rax, QWORD PTR pLCSIBH$[rsp]
  00065	c7 40 0c 20 00
	00 00		 mov	 DWORD PTR [rax+12], 32	; 00000020H

; 5680 : 
; 5681 :     pInHDR = (PLCSHDR)&pLCSIBH->bData;

  0006c	48 8b 44 24 28	 mov	 rax, QWORD PTR pLCSIBH$[rsp]
  00071	48 83 c0 10	 add	 rax, 16
  00075	48 89 44 24 38	 mov	 QWORD PTR pInHDR$[rsp], rax

; 5682 :     pInBAF1 = (PLCSBAF1)( (BYTE*)pInHDR + sizeof(LCSHDR) );

  0007a	48 8b 44 24 38	 mov	 rax, QWORD PTR pInHDR$[rsp]
  0007f	48 83 c0 04	 add	 rax, 4
  00083	48 89 44 24 30	 mov	 QWORD PTR pInBAF1$[rsp], rax

; 5683 :     FETCH_HW( hwLenInBaf1, pInBAF1->hwLenBaf1 );

  00088	48 8b 44 24 30	 mov	 rax, QWORD PTR pInBAF1$[rsp]
  0008d	48 8b c8	 mov	 rcx, rax
  00090	e8 00 00 00 00	 call	 fetch_hw_noswap
  00095	0f b7 c8	 movzx	 ecx, ax
  00098	e8 00 00 00 00	 call	 _byteswap_ushort
  0009d	66 89 44 24 20	 mov	 WORD PTR hwLenInBaf1$[rsp], ax

; 5684 : //  FETCH_HW( hwLenInBaf2, pInBAF1->hwLenBaf2 );
; 5685 :     pInBAF2 = (PLCSBAF2)( (BYTE*)pInBAF1 + hwLenInBaf1 );

  000a2	0f b7 44 24 20	 movzx	 eax, WORD PTR hwLenInBaf1$[rsp]
  000a7	48 8b 4c 24 30	 mov	 rcx, QWORD PTR pInBAF1$[rsp]
  000ac	48 03 c8	 add	 rcx, rax
  000af	48 8b c1	 mov	 rax, rcx
  000b2	48 89 44 24 40	 mov	 QWORD PTR pInBAF2$[rsp], rax

; 5686 : 
; 5687 :     memcpy( &pInBAF2->hwSeqNum, &pOutBAF2->hwSeqNum, sizeof(pInBAF2->hwSeqNum) );

  000b7	48 8b 44 24 40	 mov	 rax, QWORD PTR pInBAF2$[rsp]
  000bc	48 8b 8c 24 88
	00 00 00	 mov	 rcx, QWORD PTR pOutBAF2$[rsp]
  000c4	0f b7 49 01	 movzx	 ecx, WORD PTR [rcx+1]
  000c8	66 89 48 01	 mov	 WORD PTR [rax+1], cx

; 5688 : 
; 5689 :     add_lcs_buffer_to_chain( pLCSDEV, pLCSIBH );

  000cc	48 8b 54 24 28	 mov	 rdx, QWORD PTR pLCSIBH$[rsp]
  000d1	48 8b 4c 24 70	 mov	 rcx, QWORD PTR pLCSDEV$[rsp]
  000d6	e8 00 00 00 00	 call	 add_lcs_buffer_to_chain

; 5690 : 
; 5691 :     return;
; 5692 : }

  000db	48 83 c4 58	 add	 rsp, 88			; 00000058H
  000df	5f		 pop	 rdi
  000e0	5e		 pop	 rsi
  000e1	c3		 ret	 0
Process_0C0E ENDP
_TEXT	ENDS
; Function compile flags: /Odtp
; File C:\papa\MyGit\hyperion-zvector\ctc_lcs.c
_TEXT	SEGMENT
hwLenInBaf1$ = 32
pLCSIBH$ = 40
pInBAF1$ = 48
pInHDR$ = 56
pInBAF2$ = 64
pLCSDEV$ = 112
pOutHDR$ = 120
pOutBAF1$ = 128
pOutBAF2$ = 136
hwLenOutBaf1$ = 144
hwLenOutBaf2$ = 152
Process_0C0D PROC

; 5595 : {

  00000	4c 89 4c 24 20	 mov	 QWORD PTR [rsp+32], r9
  00005	4c 89 44 24 18	 mov	 QWORD PTR [rsp+24], r8
  0000a	48 89 54 24 10	 mov	 QWORD PTR [rsp+16], rdx
  0000f	48 89 4c 24 08	 mov	 QWORD PTR [rsp+8], rcx
  00014	56		 push	 rsi
  00015	57		 push	 rdi
  00016	48 83 ec 58	 sub	 rsp, 88			; 00000058H
$LN4@Process_0C:

; 5596 : #define INBOUND_CC0D_SIZE 56
; 5597 : static const BYTE Inbound_CC0D[INBOUND_CC0D_SIZE] =
; 5598 :                  {
; 5599 :                    0x00, 0x38, 0x04, 0x00,                           /* LCSHDR  */
; 5600 :                    0x00, 0x2C, 0xCC, 0x0D, 0x00, 0x07, 0x60, 0x03,   /* LCSBAF1 */
; 5601 :                    0x00, 0x00, 0x00, 0x01, 0x00, 0x00, 0x00, 0x00,
; 5602 :                    0x00, 0x00, 0x70, 0x00, 0x00, 0x00, 0x00, 0x00,
; 5603 :                    0x40, 0x00, 0x00, 0xDC, 0x00, 0x00, 0x00, 0x00,
; 5604 :                    0x00, 0x00, 0x00, 0x00, 0x00, 0x00, 0x00, 0x00,
; 5605 :                    0x00, 0x00, 0x00, 0x00,
; 5606 :                    0x01, 0xff, 0xff, 0x00, 0x00, 0x00, 0x00,         /* LCSBAF2 */
; 5607 :                    0x00                                              /* Filler  */
; 5608 :                  };
; 5609 : 
; 5610 :     PLCSIBH     pLCSIBH;
; 5611 :     PLCSHDR     pInHDR;
; 5612 :     PLCSBAF1    pInBAF1;
; 5613 :     PLCSBAF2    pInBAF2;
; 5614 :     U16         hwLenInBaf1;
; 5615 : //  U16         hwLenInBaf2;
; 5616 : 
; 5617 :     UNREFERENCED( pOutHDR      );

  0001a	33 c0		 xor	 eax, eax
  0001c	85 c0		 test	 eax, eax
  0001e	75 fa		 jne	 SHORT $LN4@Process_0C
$LN7@Process_0C:

; 5618 :     UNREFERENCED( pOutBAF1     );

  00020	33 c0		 xor	 eax, eax
  00022	85 c0		 test	 eax, eax
  00024	75 fa		 jne	 SHORT $LN7@Process_0C
$LN10@Process_0C:

; 5619 :     UNREFERENCED( hwLenOutBaf1 );

  00026	33 c0		 xor	 eax, eax
  00028	85 c0		 test	 eax, eax
  0002a	75 fa		 jne	 SHORT $LN10@Process_0C
$LN13@Process_0C:

; 5620 :     UNREFERENCED( hwLenOutBaf2 );

  0002c	33 c0		 xor	 eax, eax
  0002e	85 c0		 test	 eax, eax
  00030	75 fa		 jne	 SHORT $LN13@Process_0C

; 5621 : 
; 5622 :     pLCSIBH = alloc_lcs_buffer( pLCSDEV, ( INBOUND_CC0D_SIZE * 2 ) );

  00032	ba 70 00 00 00	 mov	 edx, 112		; 00000070H
  00037	48 8b 4c 24 70	 mov	 rcx, QWORD PTR pLCSDEV$[rsp]
  0003c	e8 00 00 00 00	 call	 alloc_lcs_buffer
  00041	48 89 44 24 28	 mov	 QWORD PTR pLCSIBH$[rsp], rax

; 5623 : 
; 5624 :     memcpy( &pLCSIBH->bData, Inbound_CC0D, INBOUND_CC0D_SIZE );

  00046	48 8b 44 24 28	 mov	 rax, QWORD PTR pLCSIBH$[rsp]
  0004b	48 8d 0d 00 00
	00 00		 lea	 rcx, OFFSET FLAT:?Inbound_CC0D@?1??Process_0C0D@@9@9
  00052	48 8d 78 10	 lea	 rdi, QWORD PTR [rax+16]
  00056	48 8b f1	 mov	 rsi, rcx
  00059	b9 38 00 00 00	 mov	 ecx, 56			; 00000038H
  0005e	f3 a4		 rep movsb

; 5625 :     pLCSIBH->iDataLen = INBOUND_CC0D_SIZE;

  00060	48 8b 44 24 28	 mov	 rax, QWORD PTR pLCSIBH$[rsp]
  00065	c7 40 0c 38 00
	00 00		 mov	 DWORD PTR [rax+12], 56	; 00000038H

; 5626 : 
; 5627 :     pInHDR = (PLCSHDR)&pLCSIBH->bData;

  0006c	48 8b 44 24 28	 mov	 rax, QWORD PTR pLCSIBH$[rsp]
  00071	48 83 c0 10	 add	 rax, 16
  00075	48 89 44 24 38	 mov	 QWORD PTR pInHDR$[rsp], rax

; 5628 :     pInBAF1 = (PLCSBAF1)( (BYTE*)pInHDR + sizeof(LCSHDR) );

  0007a	48 8b 44 24 38	 mov	 rax, QWORD PTR pInHDR$[rsp]
  0007f	48 83 c0 04	 add	 rax, 4
  00083	48 89 44 24 30	 mov	 QWORD PTR pInBAF1$[rsp], rax

; 5629 :     FETCH_HW( hwLenInBaf1, pInBAF1->hwLenBaf1 );

  00088	48 8b 44 24 30	 mov	 rax, QWORD PTR pInBAF1$[rsp]
  0008d	48 8b c8	 mov	 rcx, rax
  00090	e8 00 00 00 00	 call	 fetch_hw_noswap
  00095	0f b7 c8	 movzx	 ecx, ax
  00098	e8 00 00 00 00	 call	 _byteswap_ushort
  0009d	66 89 44 24 20	 mov	 WORD PTR hwLenInBaf1$[rsp], ax

; 5630 : //  FETCH_HW( hwLenInBaf2, pInBAF1->hwLenBaf2 );
; 5631 :     pInBAF2 = (PLCSBAF2)( (BYTE*)pInBAF1 + hwLenInBaf1 );

  000a2	0f b7 44 24 20	 movzx	 eax, WORD PTR hwLenInBaf1$[rsp]
  000a7	48 8b 4c 24 30	 mov	 rcx, QWORD PTR pInBAF1$[rsp]
  000ac	48 03 c8	 add	 rcx, rax
  000af	48 8b c1	 mov	 rax, rcx
  000b2	48 89 44 24 40	 mov	 QWORD PTR pInBAF2$[rsp], rax

; 5632 : 
; 5633 :     memcpy( &pInBAF2->hwSeqNum, &pOutBAF2->hwSeqNum, sizeof(pInBAF2->hwSeqNum) );

  000b7	48 8b 44 24 40	 mov	 rax, QWORD PTR pInBAF2$[rsp]
  000bc	48 8b 8c 24 88
	00 00 00	 mov	 rcx, QWORD PTR pOutBAF2$[rsp]
  000c4	0f b7 49 01	 movzx	 ecx, WORD PTR [rcx+1]
  000c8	66 89 48 01	 mov	 WORD PTR [rax+1], cx

; 5634 : 
; 5635 :     add_lcs_buffer_to_chain( pLCSDEV, pLCSIBH );

  000cc	48 8b 54 24 28	 mov	 rdx, QWORD PTR pLCSIBH$[rsp]
  000d1	48 8b 4c 24 70	 mov	 rcx, QWORD PTR pLCSDEV$[rsp]
  000d6	e8 00 00 00 00	 call	 add_lcs_buffer_to_chain

; 5636 : 
; 5637 :     return;
; 5638 : }

  000db	48 83 c4 58	 add	 rsp, 88			; 00000058H
  000df	5f		 pop	 rdi
  000e0	5e		 pop	 rsi
  000e1	c3		 ret	 0
Process_0C0D ENDP
_TEXT	ENDS
; Function compile flags: /Odtp
; File C:\papa\MyGit\hyperion-zvector\ctc_lcs.c
_TEXT	SEGMENT
hwLenInBaf1$ = 32
pLCSIBH$ = 40
pInBAF1$ = 48
pInBAF2$ = 56
pLCSBLK$ = 64
pInHDR$ = 72
pInMAC$ = 80
pLCSPORT$ = 88
pLCSDEV$ = 128
pOutHDR$ = 136
pOutBAF1$ = 144
pOutBAF2$ = 152
hwLenOutBaf1$ = 160
hwLenOutBaf2$ = 168
Process_0C99 PROC

; 5527 : {

  00000	4c 89 4c 24 20	 mov	 QWORD PTR [rsp+32], r9
  00005	4c 89 44 24 18	 mov	 QWORD PTR [rsp+24], r8
  0000a	48 89 54 24 10	 mov	 QWORD PTR [rsp+16], rdx
  0000f	48 89 4c 24 08	 mov	 QWORD PTR [rsp+8], rcx
  00014	56		 push	 rsi
  00015	57		 push	 rdi
  00016	48 83 ec 68	 sub	 rsp, 104		; 00000068H
$LN4@Process_0C:

; 5528 : #define INBOUND_CC99_SIZE 50
; 5529 : static const BYTE Inbound_CC99[INBOUND_CC99_SIZE] =
; 5530 :                  {
; 5531 :                    0x00, 0x32, 0x04, 0x00,                           /* LCSHDR  */
; 5532 :                    0x00, 0x18, 0xCC, 0x99, 0x00, 0x15, 0xC0, 0x00,   /* LCSBAF1 */
; 5533 :                    0x00, 0x00, 0x00, 0x00, 0x00, 0x00, 0x00, 0x00,
; 5534 :                    0x00, 0x00, 0x20, 0x1E, 0x00, 0x00, 0x00, 0x00,
; 5535 :                    0x01, 0xff, 0xff, 0x00, 0x00, 0x03, 0x00, 0x00,   /* LCSBAF2 */
; 5536 :                    0x06, 0xff, 0xff, 0xff, 0xff, 0xff, 0xff, 0x00,
; 5537 :                    0x00, 0x05, 0xD5, 0x00, 0x00,                                   /* 0x5D5 = 1493 */
; 5538 :                    0x00                                              /* Filler  */
; 5539 :                  };
; 5540 : 
; 5541 :     PLCSBLK     pLCSBLK;
; 5542 :     PLCSPORT    pLCSPORT;
; 5543 :     PLCSIBH     pLCSIBH;
; 5544 :     PLCSHDR     pInHDR;
; 5545 :     PLCSBAF1    pInBAF1;
; 5546 :     PLCSBAF2    pInBAF2;
; 5547 :     U16         hwLenInBaf1;
; 5548 : //  U16         hwLenInBaf2;
; 5549 :     BYTE*       pInMAC;
; 5550 : 
; 5551 :     UNREFERENCED( pOutHDR      );

  0001a	33 c0		 xor	 eax, eax
  0001c	85 c0		 test	 eax, eax
  0001e	75 fa		 jne	 SHORT $LN4@Process_0C
$LN7@Process_0C:

; 5552 :     UNREFERENCED( pOutBAF1     );

  00020	33 c0		 xor	 eax, eax
  00022	85 c0		 test	 eax, eax
  00024	75 fa		 jne	 SHORT $LN7@Process_0C
$LN10@Process_0C:

; 5553 :     UNREFERENCED( hwLenOutBaf1 );

  00026	33 c0		 xor	 eax, eax
  00028	85 c0		 test	 eax, eax
  0002a	75 fa		 jne	 SHORT $LN10@Process_0C
$LN13@Process_0C:

; 5554 :     UNREFERENCED( hwLenOutBaf2 );

  0002c	33 c0		 xor	 eax, eax
  0002e	85 c0		 test	 eax, eax
  00030	75 fa		 jne	 SHORT $LN13@Process_0C

; 5555 : 
; 5556 :     pLCSBLK = pLCSDEV->pLCSBLK;

  00032	48 8b 84 24 80
	00 00 00	 mov	 rax, QWORD PTR pLCSDEV$[rsp]
  0003a	48 8b 40 08	 mov	 rax, QWORD PTR [rax+8]
  0003e	48 89 44 24 40	 mov	 QWORD PTR pLCSBLK$[rsp], rax

; 5557 :     pLCSPORT = &pLCSBLK->Port[ pLCSDEV->bPort ];

  00043	48 8b 84 24 80
	00 00 00	 mov	 rax, QWORD PTR pLCSDEV$[rsp]
  0004b	0f b6 40 23	 movzx	 eax, BYTE PTR [rax+35]
  0004f	48 69 c0 98 01
	00 00		 imul	 rax, rax, 408		; 00000198H
  00056	48 8b 4c 24 40	 mov	 rcx, QWORD PTR pLCSBLK$[rsp]
  0005b	48 8d 44 01 60	 lea	 rax, QWORD PTR [rcx+rax+96]
  00060	48 89 44 24 58	 mov	 QWORD PTR pLCSPORT$[rsp], rax

; 5558 : 
; 5559 :     pLCSIBH = alloc_lcs_buffer( pLCSDEV, ( INBOUND_CC99_SIZE * 2 ) );

  00065	ba 64 00 00 00	 mov	 edx, 100		; 00000064H
  0006a	48 8b 8c 24 80
	00 00 00	 mov	 rcx, QWORD PTR pLCSDEV$[rsp]
  00072	e8 00 00 00 00	 call	 alloc_lcs_buffer
  00077	48 89 44 24 28	 mov	 QWORD PTR pLCSIBH$[rsp], rax

; 5560 : 
; 5561 :     memcpy( &pLCSIBH->bData, Inbound_CC99, INBOUND_CC99_SIZE );

  0007c	48 8b 44 24 28	 mov	 rax, QWORD PTR pLCSIBH$[rsp]
  00081	48 8d 0d 00 00
	00 00		 lea	 rcx, OFFSET FLAT:?Inbound_CC99@?1??Process_0C99@@9@9
  00088	48 8d 78 10	 lea	 rdi, QWORD PTR [rax+16]
  0008c	48 8b f1	 mov	 rsi, rcx
  0008f	b9 32 00 00 00	 mov	 ecx, 50			; 00000032H
  00094	f3 a4		 rep movsb

; 5562 :     pLCSIBH->iDataLen = INBOUND_CC99_SIZE;

  00096	48 8b 44 24 28	 mov	 rax, QWORD PTR pLCSIBH$[rsp]
  0009b	c7 40 0c 32 00
	00 00		 mov	 DWORD PTR [rax+12], 50	; 00000032H

; 5563 : 
; 5564 :     pInHDR = (PLCSHDR)&pLCSIBH->bData;

  000a2	48 8b 44 24 28	 mov	 rax, QWORD PTR pLCSIBH$[rsp]
  000a7	48 83 c0 10	 add	 rax, 16
  000ab	48 89 44 24 48	 mov	 QWORD PTR pInHDR$[rsp], rax

; 5565 :     pInBAF1 = (PLCSBAF1)( (BYTE*)pInHDR + sizeof(LCSHDR) );

  000b0	48 8b 44 24 48	 mov	 rax, QWORD PTR pInHDR$[rsp]
  000b5	48 83 c0 04	 add	 rax, 4
  000b9	48 89 44 24 30	 mov	 QWORD PTR pInBAF1$[rsp], rax

; 5566 :     FETCH_HW( hwLenInBaf1, pInBAF1->hwLenBaf1 );

  000be	48 8b 44 24 30	 mov	 rax, QWORD PTR pInBAF1$[rsp]
  000c3	48 8b c8	 mov	 rcx, rax
  000c6	e8 00 00 00 00	 call	 fetch_hw_noswap
  000cb	0f b7 c8	 movzx	 ecx, ax
  000ce	e8 00 00 00 00	 call	 _byteswap_ushort
  000d3	66 89 44 24 20	 mov	 WORD PTR hwLenInBaf1$[rsp], ax

; 5567 : //  FETCH_HW( hwLenInBaf2, pInBAF1->hwLenBaf2 );
; 5568 :     pInBAF2 = (PLCSBAF2)( (BYTE*)pInBAF1 + hwLenInBaf1 );

  000d8	0f b7 44 24 20	 movzx	 eax, WORD PTR hwLenInBaf1$[rsp]
  000dd	48 8b 4c 24 30	 mov	 rcx, QWORD PTR pInBAF1$[rsp]
  000e2	48 03 c8	 add	 rcx, rax
  000e5	48 8b c1	 mov	 rax, rcx
  000e8	48 89 44 24 38	 mov	 QWORD PTR pInBAF2$[rsp], rax

; 5569 : 
; 5570 :     memcpy( &pInBAF2->hwSeqNum, &pOutBAF2->hwSeqNum, sizeof(pInBAF2->hwSeqNum) );

  000ed	48 8b 44 24 38	 mov	 rax, QWORD PTR pInBAF2$[rsp]
  000f2	48 8b 8c 24 98
	00 00 00	 mov	 rcx, QWORD PTR pOutBAF2$[rsp]
  000fa	0f b7 49 01	 movzx	 ecx, WORD PTR [rcx+1]
  000fe	66 89 48 01	 mov	 WORD PTR [rax+1], cx

; 5571 : 
; 5572 :     pInMAC = (BYTE*)pInBAF2;

  00102	48 8b 44 24 38	 mov	 rax, QWORD PTR pInBAF2$[rsp]
  00107	48 89 44 24 50	 mov	 QWORD PTR pInMAC$[rsp], rax

; 5573 :     memcpy( pInMAC+9, pLCSPORT->MAC_Address, IFHWADDRLEN );

  0010c	48 8b 44 24 50	 mov	 rax, QWORD PTR pInMAC$[rsp]
  00111	48 8b 4c 24 58	 mov	 rcx, QWORD PTR pLCSPORT$[rsp]
  00116	48 8d 78 09	 lea	 rdi, QWORD PTR [rax+9]
  0011a	48 8d 71 02	 lea	 rsi, QWORD PTR [rcx+2]
  0011e	b9 06 00 00 00	 mov	 ecx, 6
  00123	f3 a4		 rep movsb

; 5574 : #if !defined( OPTION_TUNTAP_LCS_SAME_ADDR )
; 5575 :     pInMAC[9+5]++;
; 5576 : #endif
; 5577 : 
; 5578 :     add_lcs_buffer_to_chain( pLCSDEV, pLCSIBH );

  00125	48 8b 54 24 28	 mov	 rdx, QWORD PTR pLCSIBH$[rsp]
  0012a	48 8b 8c 24 80
	00 00 00	 mov	 rcx, QWORD PTR pLCSDEV$[rsp]
  00132	e8 00 00 00 00	 call	 add_lcs_buffer_to_chain

; 5579 : 
; 5580 :     return;
; 5581 : }

  00137	48 83 c4 68	 add	 rsp, 104		; 00000068H
  0013b	5f		 pop	 rdi
  0013c	5e		 pop	 rsi
  0013d	c3		 ret	 0
Process_0C99 ENDP
_TEXT	ENDS
; Function compile flags: /Odtp
; File C:\papa\MyGit\hyperion-zvector\ctc_lcs.c
_TEXT	SEGMENT
hwLenInBaf1$ = 64
pLCSCONN$ = 72
pLCSIBH$ = 80
pInBAF1$ = 88
pInHDR$ = 96
pInBAF2$ = 104
pLCSDEV$ = 144
pOutHDR$ = 152
pOutBAF1$ = 160
pOutBAF2$ = 168
hwLenOutBaf1$ = 176
hwLenOutBaf2$ = 184
Process_0C0B PROC

; 5438 : {

  00000	4c 89 4c 24 20	 mov	 QWORD PTR [rsp+32], r9
  00005	4c 89 44 24 18	 mov	 QWORD PTR [rsp+24], r8
  0000a	48 89 54 24 10	 mov	 QWORD PTR [rsp+16], rdx
  0000f	48 89 4c 24 08	 mov	 QWORD PTR [rsp+8], rcx
  00014	56		 push	 rsi
  00015	57		 push	 rdi
  00016	48 83 ec 78	 sub	 rsp, 120		; 00000078H
$LN4@Process_0C:

; 5439 : //                   Token
; 5440 : //  00110C0B00076002 40000240 0000000000
; 5441 : //  0 1 2 3 4 5 6 7  8 9 A B  C
; 5442 : //
; 5443 : //  01000900000000
; 5444 : //  0 1 2 3 4 5 6
; 5445 : 
; 5446 : #define INBOUND_CC0B_SIZE 32
; 5447 : static const BYTE Inbound_CC0B[INBOUND_CC0B_SIZE] =
; 5448 :                  {
; 5449 :                    0x00, 0x20, 0x04, 0x00,                           /* LCSHDR  */
; 5450 :                    0x00, 0x18, 0xCC, 0x0B, 0x00, 0x03, 0x60, 0x01,   /* LCSBAF1 */
; 5451 :                    0xff, 0xff, 0xff, 0xff, 0x00, 0x00, 0x00, 0x00,
; 5452 :                    0x00, 0x00, 0x70, 0x00, 0x00, 0x00, 0x00, 0x00,
; 5453 :                    0x01, 0xff, 0xff,                                 /* LCSBAF2 */
; 5454 :                    0x00                                              /* Filler  */
; 5455 :                  };
; 5456 : 
; 5457 :     PLCSCONN    pLCSCONN;
; 5458 :     PLCSIBH     pLCSIBH;
; 5459 :     PLCSHDR     pInHDR;
; 5460 :     PLCSBAF1    pInBAF1;
; 5461 :     PLCSBAF2    pInBAF2;
; 5462 :     U16         hwLenInBaf1;
; 5463 : //  U16         hwLenInBaf2;
; 5464 : 
; 5465 :     UNREFERENCED( pOutHDR      );

  0001a	33 c0		 xor	 eax, eax
  0001c	85 c0		 test	 eax, eax
  0001e	75 fa		 jne	 SHORT $LN4@Process_0C
$LN7@Process_0C:

; 5466 :     UNREFERENCED( pOutBAF1     );

  00020	33 c0		 xor	 eax, eax
  00022	85 c0		 test	 eax, eax
  00024	75 fa		 jne	 SHORT $LN7@Process_0C
$LN10@Process_0C:

; 5467 :     UNREFERENCED( hwLenOutBaf1 );

  00026	33 c0		 xor	 eax, eax
  00028	85 c0		 test	 eax, eax
  0002a	75 fa		 jne	 SHORT $LN10@Process_0C
$LN13@Process_0C:

; 5468 :     UNREFERENCED( hwLenOutBaf2 );

  0002c	33 c0		 xor	 eax, eax
  0002e	85 c0		 test	 eax, eax
  00030	75 fa		 jne	 SHORT $LN13@Process_0C

; 5469 : 
; 5470 :     // Find the connection block.
; 5471 :     // I wish I knew what bByte07 == 0x02 or 0x04 actually meant!
; 5472 :     if (pOutBAF1->bByte07 == 0x02)

  00032	48 8b 84 24 a0
	00 00 00	 mov	 rax, QWORD PTR pOutBAF1$[rsp]
  0003a	0f b6 40 07	 movzx	 eax, BYTE PTR [rax+7]
  0003e	83 f8 02	 cmp	 eax, 2
  00041	75 23		 jne	 SHORT $LN14@Process_0C

; 5473 :     {
; 5474 :         pLCSCONN = find_connection_by_outbound_token( pLCSDEV, pOutBAF1->bTokenA );

  00043	48 8b 84 24 a0
	00 00 00	 mov	 rax, QWORD PTR pOutBAF1$[rsp]
  0004b	48 83 c0 08	 add	 rax, 8
  0004f	48 8b d0	 mov	 rdx, rax
  00052	48 8b 8c 24 90
	00 00 00	 mov	 rcx, QWORD PTR pLCSDEV$[rsp]
  0005a	e8 00 00 00 00	 call	 find_connection_by_outbound_token
  0005f	48 89 44 24 48	 mov	 QWORD PTR pLCSCONN$[rsp], rax

; 5475 :     }

  00064	eb 3d		 jmp	 SHORT $LN15@Process_0C
$LN14@Process_0C:

; 5476 :     else if (pOutBAF1->bByte07 == 0x04)

  00066	48 8b 84 24 a0
	00 00 00	 mov	 rax, QWORD PTR pOutBAF1$[rsp]
  0006e	0f b6 40 07	 movzx	 eax, BYTE PTR [rax+7]
  00072	83 f8 04	 cmp	 eax, 4
  00075	75 23		 jne	 SHORT $LN16@Process_0C

; 5477 :     {
; 5478 :         pLCSCONN = find_connection_by_inbound_token( pLCSDEV, pOutBAF1->bTokenB );

  00077	48 8b 84 24 a0
	00 00 00	 mov	 rax, QWORD PTR pOutBAF1$[rsp]
  0007f	48 83 c0 0c	 add	 rax, 12
  00083	48 8b d0	 mov	 rdx, rax
  00086	48 8b 8c 24 90
	00 00 00	 mov	 rcx, QWORD PTR pLCSDEV$[rsp]
  0008e	e8 00 00 00 00	 call	 find_connection_by_inbound_token
  00093	48 89 44 24 48	 mov	 QWORD PTR pLCSCONN$[rsp], rax

; 5479 :     }

  00098	eb 09		 jmp	 SHORT $LN17@Process_0C
$LN16@Process_0C:

; 5480 :     else
; 5481 :     {
; 5482 :         pLCSCONN = NULL;

  0009a	48 c7 44 24 48
	00 00 00 00	 mov	 QWORD PTR pLCSCONN$[rsp], 0
$LN17@Process_0C:
$LN15@Process_0C:

; 5483 :     }
; 5484 :     if (!pLCSCONN)

  000a3	48 83 7c 24 48
	00		 cmp	 QWORD PTR pLCSCONN$[rsp], 0
  000a9	75 58		 jne	 SHORT $LN18@Process_0C

; 5485 :     {
; 5486 :         WRMSG( HHC03984, "W", "LCSCONN not found");

  000ab	b9 01 00 00 00	 mov	 ecx, 1
  000b0	ff 15 00 00 00
	00		 call	 QWORD PTR __imp___acrt_iob_func
  000b6	48 8d 0d 00 00
	00 00		 lea	 rcx, OFFSET FLAT:$SG174449
  000bd	48 89 4c 24 38	 mov	 QWORD PTR [rsp+56], rcx
  000c2	48 8d 0d 00 00
	00 00		 lea	 rcx, OFFSET FLAT:$SG174450
  000c9	48 89 4c 24 30	 mov	 QWORD PTR [rsp+48], rcx
  000ce	48 8d 0d 00 00
	00 00		 lea	 rcx, OFFSET FLAT:$SG174451
  000d5	48 89 4c 24 28	 mov	 QWORD PTR [rsp+40], rcx
  000da	48 89 44 24 20	 mov	 QWORD PTR [rsp+32], rax
  000df	41 b9 03 00 00
	00		 mov	 r9d, 3
  000e5	4c 8d 05 00 00
	00 00		 lea	 r8, OFFSET FLAT:$SG174452
  000ec	ba 6e 15 00 00	 mov	 edx, 5486		; 0000156eH
  000f1	48 8d 0d 00 00
	00 00		 lea	 rcx, OFFSET FLAT:$SG174453
  000f8	ff 15 00 00 00
	00		 call	 QWORD PTR __imp_fwritemsg

; 5487 :         /* FixMe! Need a proper error message here! */
; 5488 :         return;

  000fe	e9 e3 00 00 00	 jmp	 $LN1@Process_0C
$LN18@Process_0C:

; 5489 :     }
; 5490 : 
; 5491 :     //
; 5492 :     pLCSIBH = alloc_lcs_buffer( pLCSDEV, ( INBOUND_CC0B_SIZE * 2 ) );

  00103	ba 40 00 00 00	 mov	 edx, 64			; 00000040H
  00108	48 8b 8c 24 90
	00 00 00	 mov	 rcx, QWORD PTR pLCSDEV$[rsp]
  00110	e8 00 00 00 00	 call	 alloc_lcs_buffer
  00115	48 89 44 24 50	 mov	 QWORD PTR pLCSIBH$[rsp], rax

; 5493 : 
; 5494 :     memcpy( &pLCSIBH->bData, Inbound_CC0B, INBOUND_CC0B_SIZE );

  0011a	48 8b 44 24 50	 mov	 rax, QWORD PTR pLCSIBH$[rsp]
  0011f	48 8d 0d 00 00
	00 00		 lea	 rcx, OFFSET FLAT:?Inbound_CC0B@?1??Process_0C0B@@9@9
  00126	48 8d 78 10	 lea	 rdi, QWORD PTR [rax+16]
  0012a	48 8b f1	 mov	 rsi, rcx
  0012d	b9 20 00 00 00	 mov	 ecx, 32			; 00000020H
  00132	f3 a4		 rep movsb

; 5495 :     pLCSIBH->iDataLen = INBOUND_CC0B_SIZE;

  00134	48 8b 44 24 50	 mov	 rax, QWORD PTR pLCSIBH$[rsp]
  00139	c7 40 0c 20 00
	00 00		 mov	 DWORD PTR [rax+12], 32	; 00000020H

; 5496 : 
; 5497 :     pInHDR = (PLCSHDR)&pLCSIBH->bData;

  00140	48 8b 44 24 50	 mov	 rax, QWORD PTR pLCSIBH$[rsp]
  00145	48 83 c0 10	 add	 rax, 16
  00149	48 89 44 24 60	 mov	 QWORD PTR pInHDR$[rsp], rax

; 5498 :     pInBAF1 = (PLCSBAF1)( (BYTE*)pInHDR + sizeof(LCSHDR) );

  0014e	48 8b 44 24 60	 mov	 rax, QWORD PTR pInHDR$[rsp]
  00153	48 83 c0 04	 add	 rax, 4
  00157	48 89 44 24 58	 mov	 QWORD PTR pInBAF1$[rsp], rax

; 5499 :     FETCH_HW( hwLenInBaf1, pInBAF1->hwLenBaf1 );

  0015c	48 8b 44 24 58	 mov	 rax, QWORD PTR pInBAF1$[rsp]
  00161	48 8b c8	 mov	 rcx, rax
  00164	e8 00 00 00 00	 call	 fetch_hw_noswap
  00169	0f b7 c8	 movzx	 ecx, ax
  0016c	e8 00 00 00 00	 call	 _byteswap_ushort
  00171	66 89 44 24 40	 mov	 WORD PTR hwLenInBaf1$[rsp], ax

; 5500 : //  FETCH_HW( hwLenInBaf2, pInBAF1->hwLenBaf2 );
; 5501 :     pInBAF2 = (PLCSBAF2)( (BYTE*)pInBAF1 + hwLenInBaf1 );

  00176	0f b7 44 24 40	 movzx	 eax, WORD PTR hwLenInBaf1$[rsp]
  0017b	48 8b 4c 24 58	 mov	 rcx, QWORD PTR pInBAF1$[rsp]
  00180	48 03 c8	 add	 rcx, rax
  00183	48 8b c1	 mov	 rax, rcx
  00186	48 89 44 24 68	 mov	 QWORD PTR pInBAF2$[rsp], rax

; 5502 : 
; 5503 :     memcpy( &pInBAF1->bTokenA, &pLCSCONN->bInToken, sizeof(pLCSCONN->bInToken) );        // Set Inbound token

  0018b	48 8b 44 24 58	 mov	 rax, QWORD PTR pInBAF1$[rsp]
  00190	48 8b 4c 24 48	 mov	 rcx, QWORD PTR pLCSCONN$[rsp]
  00195	8b 49 08	 mov	 ecx, DWORD PTR [rcx+8]
  00198	89 48 08	 mov	 DWORD PTR [rax+8], ecx

; 5504 : 
; 5505 :     memcpy( &pInBAF2->hwSeqNum, &pOutBAF2->hwSeqNum, sizeof(pInBAF2->hwSeqNum) );

  0019b	48 8b 44 24 68	 mov	 rax, QWORD PTR pInBAF2$[rsp]
  001a0	48 8b 8c 24 a8
	00 00 00	 mov	 rcx, QWORD PTR pOutBAF2$[rsp]
  001a8	0f b7 49 01	 movzx	 ecx, WORD PTR [rcx+1]
  001ac	66 89 48 01	 mov	 WORD PTR [rax+1], cx

; 5506 : 
; 5507 :     add_lcs_buffer_to_chain( pLCSDEV, pLCSIBH );

  001b0	48 8b 54 24 50	 mov	 rdx, QWORD PTR pLCSIBH$[rsp]
  001b5	48 8b 8c 24 90
	00 00 00	 mov	 rcx, QWORD PTR pLCSDEV$[rsp]
  001bd	e8 00 00 00 00	 call	 add_lcs_buffer_to_chain

; 5508 : 
; 5509 :     remove_connection_from_chain( pLCSDEV, pLCSCONN );

  001c2	48 8b 54 24 48	 mov	 rdx, QWORD PTR pLCSCONN$[rsp]
  001c7	48 8b 8c 24 90
	00 00 00	 mov	 rcx, QWORD PTR pLCSDEV$[rsp]
  001cf	e8 00 00 00 00	 call	 remove_connection_from_chain

; 5510 :     free_connection( pLCSDEV, pLCSCONN );

