; Listing generated by Microsoft (R) Optimizing Compiler Version 19.34.31937.0 

include listing.inc

INCLUDELIB MSVCRTD
INCLUDELIB OLDNAMES

PUBLIC	ctct_device_hndinfo
PUBLIC	ctce_device_hndinfo
PUBLIC	CTCX_Close
PUBLIC	CTCX_Query
PUBLIC	CTCX_ExecuteCCW
PUBLIC	CTCE_Close
PUBLIC	CTCE_Query
_DATA	SEGMENT
ctct_device_hndinfo DQ FLAT:CTCT_Init
	DQ	FLAT:CTCX_ExecuteCCW
	DQ	FLAT:CTCX_Close
	DQ	FLAT:CTCX_Query
	DQ	0000000000000000H
	DQ	0000000000000000H
	DQ	0000000000000000H
	DQ	0000000000000000H
	DQ	0000000000000000H
	DQ	0000000000000000H
	DQ	0000000000000000H
	DQ	0000000000000000H
	DQ	0000000000000000H
	DQ	0000000000000000H
	DQ	0000000000000000H
	DQ	0000000000000000H
	DQ	0000000000000000H
	DQ	0000000000000000H
	DQ	0000000000000000H
	DQ	0000000000000000H
	DQ	0000000000000000H
	DQ	0000000000000000H
	DQ	0000000000000000H
	DQ	0000000000000000H
	DQ	0000000000000000H
$SG169191 DB	'PRE', 00H
$SG169192 DB	'CTL', 00H
ctce_device_hndinfo DQ FLAT:CTCE_Init
	DQ	FLAT:CTCE_ExecuteCCW
	DQ	FLAT:CTCE_Close
	DQ	FLAT:CTCE_Query
	DQ	0000000000000000H
	DQ	0000000000000000H
	DQ	0000000000000000H
	DQ	0000000000000000H
	DQ	0000000000000000H
	DQ	FLAT:CTCE_Reset
	DQ	0000000000000000H
	DQ	0000000000000000H
	DQ	0000000000000000H
	DQ	0000000000000000H
	DQ	0000000000000000H
	DQ	0000000000000000H
	DQ	FLAT:CTCE_immed_commands
	DQ	0000000000000000H
	DQ	0000000000000000H
	DQ	0000000000000000H
	DQ	0000000000000000H
	DQ	0000000000000000H
	DQ	0000000000000000H
	DQ	0000000000000000H
	DQ	0000000000000000H
$SG169193 DB	'RED', 00H
$SG169194 DB	'WRT', 00H
$SG169195 DB	'SCB', 00H
$SG169196 DB	'???', 00H
$SG169197 DB	'RBK', 00H
$SG169198 DB	'WEF', 00H
$SG169199 DB	'NOP', 00H
$SG169200 DB	'SEM', 00H
$SG169201 DB	'SAS', 00H
$SG169202 DB	'SID', 00H
$SG169203 DB	'RCD', 00H
$SG169204 DB	'INV', 00H
$SG169205 DB	'RST', 00H
$SG169206 DB	'SBM', 00H
$SG169209 DB	'P', 00H
	ORG $+2
$SG169210 DB	'C', 00H
	ORG $+2
$SG169211 DB	'R', 00H
	ORG $+2
$SG169212 DB	'W', 00H
	ORG $+2
$SG169213 DB	'A', 00H
	ORG $+2
$SG169214 DB	'N', 00H
	ORG $+2
$SG169215 DB	'X', 00H
	ORG $+2
$SG169216 DB	'I', 00H
	ORG $+2
CTCE_immed_commands DB 00H
	DB	00H
	DB	00H
	DB	01H
	DB	00H
	DB	00H
	DB	00H
	DB	01H
	DB	00H
	DB	00H
	DB	00H
	DB	01H
	DB	00H
	DB	00H
	DB	00H
	DB	01H
	DB	00H
	DB	00H
	DB	00H
	DB	01H
	DB	00H
	DB	00H
	DB	00H
	DB	01H
	DB	00H
	DB	00H
	DB	00H
	DB	01H
	DB	00H
	DB	00H
	DB	00H
	DB	01H
	DB	00H
	DB	00H
	DB	00H
	DB	01H
	DB	00H
	DB	00H
	DB	00H
	DB	01H
	DB	00H
	DB	00H
	DB	00H
	DB	01H
	DB	00H
	DB	00H
	DB	00H
	DB	01H
	DB	00H
	DB	00H
	DB	00H
	DB	01H
	DB	00H
	DB	00H
	DB	00H
	DB	01H
	DB	00H
	DB	00H
	DB	00H
	DB	01H
	DB	00H
	DB	00H
	DB	00H
	DB	01H
	DB	00H
	DB	00H
	DB	00H
	DB	01H
	DB	00H
	DB	00H
	DB	00H
	DB	01H
	DB	00H
	DB	00H
	DB	00H
	DB	01H
	DB	00H
	DB	00H
	DB	00H
	DB	01H
	DB	00H
	DB	00H
	DB	00H
	DB	01H
	DB	00H
	DB	00H
	DB	00H
	DB	01H
	DB	00H
	DB	00H
	DB	00H
	DB	01H
	DB	00H
	DB	00H
	DB	00H
	DB	01H
	DB	00H
	DB	00H
	DB	00H
	DB	01H
	DB	00H
	DB	00H
	DB	00H
	DB	01H
	DB	00H
	DB	00H
	DB	00H
	DB	01H
	DB	00H
	DB	00H
	DB	00H
	DB	01H
	DB	00H
	DB	00H
	DB	00H
	DB	01H
	DB	00H
	DB	00H
	DB	00H
	DB	01H
	DB	00H
	DB	00H
	DB	00H
	DB	01H
	DB	00H
	DB	00H
	DB	00H
	DB	01H
	DB	00H
	DB	00H
	DB	00H
	DB	01H
	DB	00H
	DB	00H
	DB	00H
	DB	01H
	DB	00H
	DB	00H
	DB	00H
	DB	01H
	DB	00H
	DB	00H
	DB	00H
	DB	01H
	DB	00H
	DB	00H
	DB	00H
	DB	01H
	DB	00H
	DB	00H
	DB	00H
	DB	01H
	DB	00H
	DB	00H
	DB	00H
	DB	01H
	DB	00H
	DB	00H
	DB	00H
	DB	01H
	DB	00H
	DB	00H
	DB	00H
	DB	01H
	DB	00H
	DB	00H
	DB	00H
	DB	01H
	DB	00H
	DB	00H
	DB	00H
	DB	01H
	DB	00H
	DB	00H
	DB	00H
	DB	01H
	DB	00H
	DB	00H
	DB	00H
	DB	01H
	DB	00H
	DB	00H
	DB	00H
	DB	01H
	DB	00H
	DB	00H
	DB	00H
	DB	01H
	DB	00H
	DB	00H
	DB	00H
	DB	01H
	DB	00H
	DB	00H
	DB	00H
	DB	01H
	DB	00H
	DB	00H
	DB	00H
	DB	01H
	DB	00H
	DB	00H
	DB	00H
	DB	00H
	DB	00H
	DB	00H
	DB	00H
	DB	01H
	DB	00H
	DB	00H
	DB	00H
	DB	00H
	DB	00H
	DB	00H
	DB	00H
	DB	01H
	DB	00H
	DB	00H
	DB	00H
	DB	00H
	DB	00H
	DB	00H
	DB	00H
	DB	01H
	DB	00H
	DB	00H
	DB	00H
	DB	01H
	DB	00H
	DB	00H
	DB	00H
	DB	01H
	DB	00H
	DB	00H
	DB	00H
	DB	00H
	DB	00H
	DB	00H
	DB	00H
	DB	01H
	DB	00H
	DB	00H
	DB	00H
	DB	00H
	DB	00H
	DB	00H
	DB	00H
	DB	01H
	DB	00H
	DB	00H
	DB	00H
	DB	00H
	DB	00H
	DB	00H
	DB	00H
	DB	01H
$SG170230 DB	'--', 00H
	ORG $+1
$SG170231 DB	'->', 00H
	ORG $+1
$SG170232 DB	'<-', 00H
	ORG $+1
$SG170233 DB	'-|', 00H
	ORG $+1
$SG170234 DB	'||', 00H
_DATA	ENDS
CONST	SEGMENT
CKD_ENDTRK DB	0ffH
	DB	0ffH
	DB	0ffH
	DB	0ffH
	DB	0ffH
	DB	0ffH
	DB	0ffH
	DB	0ffH
	ORG $+8
CTCE_Fsm DB	04H
	DB	0cH
	DB	00H
	DB	048H
	DB	0ffH
	DB	0cH
	DB	00H
	DB	00H
	DB	0ffH
	DB	0cH
	DB	00H
	DB	00H
	DB	0ffH
	DB	0cH
	DB	00H
	DB	00H
	DB	00H
	DB	08H
	DB	00H
	DB	060H
	DB	04H
	DB	02H
	DB	00H
	DB	040H
	DB	0ffH
	DB	010H
	DB	00H
	DB	00H
	DB	0ffH
	DB	010H
	DB	00H
	DB	00H
	DB	01H
	DB	08H
	DB	00H
	DB	068H
	DB	0ffH
	DB	090H
	DB	00H
	DB	00H
	DB	0ffH
	DB	090H
	DB	00H
	DB	00H
	DB	0ffH
	DB	090H
	DB	00H
	DB	00H
	DB	01H
	DB	00H
	DB	00H
	DB	070H
	DB	04H
	DB	02H
	DB	00H
	DB	040H
	DB	0ffH
	DB	010H
	DB	00H
	DB	00H
	DB	0ffH
	DB	010H
	DB	00H
	DB	00H
	DB	02H
	DB	00H
	DB	00H
	DB	068H
	DB	0ffH
	DB	090H
	DB	00H
	DB	00H
	DB	0ffH
	DB	090H
	DB	00H
	DB	00H
	DB	04H
	DB	0cH
	DB	00H
	DB	048H
	DB	02H
	DB	00H
	DB	00H
	DB	070H
	DB	04H
	DB	02H
	DB	00H
	DB	040H
	DB	0ffH
	DB	010H
	DB	00H
	DB	00H
	DB	0ffH
	DB	010H
	DB	00H
	DB	00H
	DB	03H
	DB	00H
	DB	00H
	DB	068H
	DB	0ffH
	DB	090H
	DB	00H
	DB	00H
	DB	04H
	DB	0cH
	DB	00H
	DB	048H
	DB	0ffH
	DB	090H
	DB	00H
	DB	00H
	DB	03H
	DB	00H
	DB	00H
	DB	070H
	DB	04H
	DB	02H
	DB	00H
	DB	040H
	DB	0ffH
	DB	010H
	DB	00H
	DB	00H
	DB	0ffH
	DB	010H
	DB	00H
	DB	00H
	DB	0ffH
	DB	0cH
	DB	00H
	DB	00H
	DB	04H
	DB	0cH
	DB	00H
	DB	048H
	DB	0ffH
	DB	0cH
	DB	00H
	DB	00H
	DB	0ffH
	DB	0cH
	DB	00H
	DB	00H
	DB	0ffH
	DB	0cH
	DB	00H
	DB	00H
	DB	04H
	DB	02H
	DB	00H
	DB	040H
	DB	0ffH
	DB	010H
	DB	00H
	DB	00H
	DB	0ffH
	DB	010H
	DB	00H
	DB	00H
	DB	0ffH
	DB	02H
	DB	00H
	DB	00H
	DB	0ffH
	DB	02H
	DB	00H
	DB	00H
	DB	0ffH
	DB	02H
	DB	00H
	DB	00H
	DB	0ffH
	DB	02H
	DB	00H
	DB	00H
	DB	0ffH
	DB	02H
	DB	00H
	DB	00H
	DB	0ffH
	DB	02H
	DB	00H
	DB	00H
	DB	0ffH
	DB	010H
	DB	00H
	DB	00H
	DB	0ffH
	DB	010H
	DB	00H
	DB	00H
	DB	02H
	DB	00H
	DB	00H
	DB	068H
	DB	0ffH
	DB	090H
	DB	00H
	DB	00H
	DB	0ffH
	DB	090H
	DB	00H
	DB	00H
	DB	04H
	DB	0cH
	DB	00H
	DB	048H
	DB	02H
	DB	00H
	DB	00H
	DB	070H
	DB	04H
	DB	02H
	DB	00H
	DB	040H
	DB	0ffH
	DB	010H
	DB	00H
	DB	00H
	DB	0ffH
	DB	010H
	DB	00H
	DB	00H
	DB	0ffH
	DB	0cH
	DB	00H
	DB	040H
	DB	0ffH
	DB	090H
	DB	00H
	DB	00H
	DB	04H
	DB	0cH
	DB	00H
	DB	048H
	DB	0ffH
	DB	090H
	DB	00H
	DB	00H
	DB	0ffH
	DB	0cH
	DB	00H
	DB	040H
	DB	04H
	DB	02H
	DB	00H
	DB	040H
	DB	0ffH
	DB	010H
	DB	00H
	DB	00H
	DB	0ffH
	DB	010H
	DB	00H
	DB	00H
	DB	0ffH
	DB	0cH
	DB	00H
	DB	040H
	DB	0ffH
	DB	090H
	DB	00H
	DB	00H
	DB	0ffH
	DB	090H
	DB	00H
	DB	00H
	DB	0ffH
	DB	090H
	DB	00H
	DB	00H
	DB	04H
	DB	0cH
	DB	00H
	DB	040H
	DB	04H
	DB	02H
	DB	00H
	DB	040H
	DB	0ffH
	DB	010H
	DB	00H
	DB	00H
	DB	0ffH
	DB	010H
	DB	00H
	DB	00H
	DB	0ffH
	DB	0cH
	DB	00H
	DB	040H
	DB	0ffH
	DB	090H
	DB	00H
	DB	00H
	DB	0ffH
	DB	090H
	DB	00H
	DB	00H
	DB	0ffH
	DB	090H
	DB	00H
	DB	00H
	DB	04H
	DB	0cH
	DB	00H
	DB	040H
	DB	04H
	DB	02H
	DB	00H
	DB	040H
	DB	0ffH
	DB	010H
	DB	00H
	DB	00H
	DB	0ffH
	DB	010H
	DB	00H
	DB	00H
	DB	0ffH
	DB	0cH
	DB	00H
	DB	00H
	DB	0ffH
	DB	0cH
	DB	00H
	DB	00H
	DB	0ffH
	DB	0cH
	DB	00H
	DB	00H
	DB	0ffH
	DB	0cH
	DB	00H
	DB	00H
	DB	0ffH
	DB	0cH
	DB	00H
	DB	00H
	DB	0ffH
	DB	0cH
	DB	00H
	DB	00H
	DB	0ffH
	DB	010H
	DB	00H
	DB	00H
	DB	0ffH
	DB	010H
	DB	00H
	DB	00H
	DB	0ffH
	DB	0cH
	DB	00H
	DB	00H
	DB	0ffH
	DB	0cH
	DB	00H
	DB	00H
	DB	0ffH
	DB	0cH
	DB	00H
	DB	00H
	DB	0ffH
	DB	0cH
	DB	00H
	DB	00H
	DB	0ffH
	DB	0cH
	DB	00H
	DB	00H
	DB	0ffH
	DB	0cH
	DB	00H
	DB	00H
	DB	0ffH
	DB	010H
	DB	00H
	DB	00H
	DB	0ffH
	DB	010H
	DB	00H
	DB	00H
	DB	0ffH
	DB	0cH
	DB	00H
	DB	00H
	DB	0ffH
	DB	0cH
	DB	00H
	DB	00H
	DB	0ffH
	DB	0cH
	DB	00H
	DB	00H
	DB	0ffH
	DB	0cH
	DB	00H
	DB	00H
	DB	0ffH
	DB	0cH
	DB	00H
	DB	00H
	DB	0ffH
	DB	0cH
	DB	00H
	DB	00H
	DB	0ffH
	DB	010H
	DB	00H
	DB	00H
	DB	0ffH
	DB	010H
	DB	00H
	DB	00H
	DB	0ffH
	DB	02H
	DB	00H
	DB	00H
	DB	0ffH
	DB	02H
	DB	00H
	DB	00H
	DB	0ffH
	DB	02H
	DB	00H
	DB	00H
	DB	0ffH
	DB	02H
	DB	00H
	DB	00H
	DB	0ffH
	DB	02H
	DB	00H
	DB	00H
	DB	0ffH
	DB	02H
	DB	00H
	DB	00H
	DB	0ffH
	DB	010H
	DB	00H
	DB	00H
	DB	0ffH
	DB	010H
	DB	00H
	DB	00H
	DB	05H
	DB	0eH
	DB	00H
	DB	048H
	DB	05H
	DB	0eH
	DB	00H
	DB	048H
	DB	05H
	DB	0eH
	DB	00H
	DB	048H
	DB	05H
	DB	0eH
	DB	00H
	DB	048H
	DB	05H
	DB	00H
	DB	00H
	DB	040H
	DB	05H
	DB	00H
	DB	00H
	DB	040H
	DB	05H
	DB	0eH
	DB	00H
	DB	040H
	DB	05H
	DB	0eH
	DB	00H
	DB	040H
	DB	0ffH
	DB	0cH
	DB	00H
	DB	040H
	DB	0ffH
	DB	090H
	DB	00H
	DB	00H
	DB	0ffH
	DB	090H
	DB	00H
	DB	00H
	DB	0ffH
	DB	090H
	DB	00H
	DB	00H
	DB	04H
	DB	0cH
	DB	00H
	DB	040H
	DB	04H
	DB	02H
	DB	00H
	DB	040H
	DB	0ffH
	DB	010H
	DB	00H
	DB	00H
	DB	0ffH
	DB	010H
	DB	00H
	DB	00H
?cfgdata@?1??CTCE_Build_RCD@@9@9 DB 0c8H		; `CTCE_Build_RCD'::`2'::cfgdata
	DB	01H
	DB	09H
	DB	00H
	DB	0f0H
	DB	0f0H
	DB	0f3H
	DB	0f0H
	DB	0f8H
	DB	0f8H
	DB	0c3H
	DB	0e3H
	DB	0c3H
	DB	0c8H
	DB	0d9H
	DB	0c3H
	DB	0e9H
	DB	0e9H
	DB	0f0H
	DB	0f0H
	DB	0f0H
	DB	0f0H
	DB	0c1H
	DB	0f0H
	DB	0f0H
	DB	0f0H
	DB	0f0H
	DB	0f0H
	DB	0f0H
	DB	0f0H
	DB	00H
	DB	00H
	DB	040H
	DB	00H
	DB	00H
	DB	00H
	DB	0f0H
	DB	0f0H
	DB	0f3H
	DB	0f0H
	DB	0f8H
	DB	0f8H
	DB	0c3H
	DB	0e3H
	DB	0c3H
	DB	0c8H
	DB	0d9H
	DB	0c3H
	DB	0e9H
	DB	0e9H
	DB	0f0H
	DB	0f0H
	DB	0f0H
	DB	0f0H
	DB	0c2H
	DB	0f0H
	DB	0f0H
	DB	0f0H
	DB	0f0H
	DB	0f0H
	DB	0f0H
	DB	0f0H
	DB	00H
	DB	00H
	DB	0e8H
	DB	01H
	DB	09H
	DB	00H
	DB	0f0H
	DB	0f0H
	DB	0f2H
	DB	0f8H
	DB	0f1H
	DB	0f7H
	DB	0c3H
	DB	0e3H
	DB	0c3H
	DB	0c8H
	DB	0d9H
	DB	0c3H
	DB	0e9H
	DB	0e9H
	DB	0f0H
	DB	0f0H
	DB	0f0H
	DB	0f0H
	DB	0f0H
	DB	0f0H
	DB	0f0H
	DB	0f0H
	DB	0f0H
	DB	0f0H
	DB	0f0H
	DB	0f0H
	DB	00H
	DB	0e1H
	DB	080H
	DB	00H
	DB	00H
	DB	01H
	DB	00H
	DB	00H
	DB	00H
	DB	00H
	DB	00H
	DB	00H
	DB	00H
	DB	00H
	DB	00H
	DB	00H
	DB	00H
	DB	00H
	DB	00H
	DB	00H
	DB	00H
	DB	00H
	DB	00H
	DB	00H
	DB	00H
	DB	00H
	DB	00H
	DB	00H
	DB	00H
	DB	00H
	DB	00H
	DB	00H
	DB	00H
	DB	00H
	DB	00H
	DB	00H
	DB	00H
	DB	00H
CONST	ENDS
PUBLIC	__local_stdio_scanf_options
PUBLIC	_vsscanf_l
PUBLIC	sscanf
PUBLIC	fetch_hw_noswap
PUBLIC	store_hw_noswap
PUBLIC	fetch_fw_noswap
EXTRN	__report_rangecheckfailure:PROC
EXTRN	strchr:PROC
EXTRN	strcmp:PROC
EXTRN	strcpy:PROC
EXTRN	__imp__stricmp:PROC
EXTRN	strlen:PROC
EXTRN	__imp_free:PROC
EXTRN	__imp_malloc:PROC
EXTRN	_byteswap_ushort:PROC
EXTRN	_byteswap_ulong:PROC
EXTRN	__imp_strtoul:PROC
EXTRN	__imp_bind:PROC
EXTRN	__imp_connect:PROC
EXTRN	__imp_getsockname:PROC
EXTRN	__imp_htonl:PROC
EXTRN	__imp_htons:PROC
EXTRN	__imp_inet_ntoa:PROC
EXTRN	__imp_listen:PROC
EXTRN	__imp_ntohs:PROC
EXTRN	__imp_setsockopt:PROC
EXTRN	__imp_shutdown:PROC
EXTRN	__imp_gethostbyname:PROC
EXTRN	__imp_WSAGetLastError:PROC
EXTRN	__imp_close:PROC
EXTRN	__imp___acrt_iob_func:PROC
EXTRN	__imp___stdio_common_vsscanf:PROC
EXTRN	__imp_fthread_self:PROC
EXTRN	__imp_hthread_initialize_lock:PROC
EXTRN	__imp_hthread_obtain_lock:PROC
EXTRN	__imp_hthread_release_lock:PROC
EXTRN	__imp_hthread_initialize_condition:PROC
EXTRN	__imp_hthread_signal_condition:PROC
EXTRN	__imp_hthread_create_thread:PROC
EXTRN	__imp_strlcpy:PROC
EXTRN	__imp_strlcat:PROC
EXTRN	__imp_timed_wait_condition_relative_usecs_impl:PROC
EXTRN	__imp_w32_strerror:PROC
EXTRN	__imp_usleep:PROC
EXTRN	__imp_inet_aton:PROC
EXTRN	__imp_socket_is_socket:PROC
EXTRN	__imp_set_socket_keepalive:PROC
EXTRN	__imp_w32_socket:PROC
EXTRN	__imp_w32_accept:PROC
EXTRN	__imp_w32_close_socket:PROC
EXTRN	__imp_w32_FD_SET:PROC
EXTRN	__imp_w32_select:PROC
EXTRN	__imp_w32_snprintf:PROC
EXTRN	__imp_w32_basename:PROC
EXTRN	__imp_guest_to_host:PROC
EXTRN	__imp_read_socket:PROC
EXTRN	__imp_write_socket:PROC
EXTRN	devinit_cmd:PROC
EXTRN	device_attention:PROC
EXTRN	__imp_fwritemsg:PROC
EXTRN	packet_trace:PROC
EXTRN	net_data_trace:PROC
EXTRN	__GSHandlerCheck:PROC
EXTRN	__chkstk:PROC
EXTRN	__security_check_cookie:PROC
EXTRN	__imp_sysblk:BYTE
EXTRN	__ImageBase:BYTE
EXTRN	__security_cookie:QWORD
_DATA	SEGMENT
COMM	?_OptionsStorage@?1??__local_stdio_scanf_options@@9@9:QWORD							; `__local_stdio_scanf_options'::`2'::_OptionsStorage
_DATA	ENDS
_BSS	SEGMENT
$SG169399 DB	01H DUP (?)
	ALIGN	8

?tv@?1??CTCT_Read@@9@9 DQ 01H DUP (?)			; `CTCT_Read'::`2'::tv
$SG169631 DB	01H DUP (?)
	ALIGN	4

$SG169795 DB	01H DUP (?)
	ALIGN	4

$SG169961 DB	01H DUP (?)
	ALIGN	4

$SG170307 DB	01H DUP (?)
	ALIGN	4

$SG170309 DB	01H DUP (?)
	ALIGN	4

$SG170311 DB	01H DUP (?)
	ALIGN	4

$SG170313 DB	01H DUP (?)
	ALIGN	4

$SG170359 DB	01H DUP (?)
	ALIGN	4

$SG170374 DB	01H DUP (?)
_BSS	ENDS
;	COMDAT pdata
pdata	SEGMENT
$pdata$_vsscanf_l DD imagerel $LN3
	DD	imagerel $LN3+80
	DD	imagerel $unwind$_vsscanf_l
pdata	ENDS
;	COMDAT pdata
pdata	SEGMENT
$pdata$sscanf DD imagerel $LN3
	DD	imagerel $LN3+79
	DD	imagerel $unwind$sscanf
pdata	ENDS
;	COMDAT pdata
pdata	SEGMENT
$pdata$fetch_hw_noswap DD imagerel $LN3
	DD	imagerel $LN3+30
	DD	imagerel $unwind$fetch_hw_noswap
pdata	ENDS
;	COMDAT pdata
pdata	SEGMENT
$pdata$fetch_fw_noswap DD imagerel $LN3
	DD	imagerel $LN3+27
	DD	imagerel $unwind$fetch_fw_noswap
pdata	ENDS
pdata	SEGMENT
$pdata$CTCX_Close DD imagerel $LN6
	DD	imagerel $LN6+102
	DD	imagerel $unwind$CTCX_Close
$pdata$CTCX_Query DD imagerel $LN11
	DD	imagerel $LN11+368
	DD	imagerel $unwind$CTCX_Query
$pdata$CTCX_ExecuteCCW DD imagerel $LN64
	DD	imagerel $LN64+1556
	DD	imagerel $unwind$CTCX_ExecuteCCW
$pdata$CTCE_Close DD imagerel $LN5
	DD	imagerel $LN5+160
	DD	imagerel $unwind$CTCE_Close
$pdata$CTCE_Query DD imagerel $LN17
	DD	imagerel $LN17+569
	DD	imagerel $unwind$CTCE_Query
$pdata$SetSIDInfo DD imagerel SetSIDInfo
	DD	imagerel SetSIDInfo+269
	DD	imagerel $unwind$SetSIDInfo
$pdata$SetCIWInfo DD imagerel SetCIWInfo
	DD	imagerel SetCIWInfo+256
	DD	imagerel $unwind$SetCIWInfo
$pdata$CTCT_Init DD imagerel CTCT_Init
	DD	imagerel CTCT_Init+3890
	DD	imagerel $unwind$CTCT_Init
$pdata$CTCT_Read DD imagerel CTCT_Read
	DD	imagerel CTCT_Read+1479
	DD	imagerel $unwind$CTCT_Read
$pdata$CTCT_Write DD imagerel CTCT_Write
	DD	imagerel CTCT_Write+2020
	DD	imagerel $unwind$CTCT_Write
$pdata$CTCT_ListenThread DD imagerel CTCT_ListenThread
	DD	imagerel CTCT_ListenThread+443
	DD	imagerel $unwind$CTCT_ListenThread
$pdata$CTCE_ExecuteCCW DD imagerel CTCE_ExecuteCCW
	DD	imagerel CTCE_ExecuteCCW+5600
	DD	imagerel $unwind$CTCE_ExecuteCCW
$pdata$CTCE_Init DD imagerel CTCE_Init
	DD	imagerel CTCE_Init+3627
	DD	imagerel $unwind$CTCE_Init
$pdata$CTCE_Start_Listen_Connect_Threads DD imagerel CTCE_Start_Listen_Connect_Threads
	DD	imagerel CTCE_Start_Listen_Connect_Threads+1481
	DD	imagerel $unwind$CTCE_Start_Listen_Connect_Threads
$pdata$CTCE_Start_ConnectThread DD imagerel CTCE_Start_ConnectThread
	DD	imagerel CTCE_Start_ConnectThread+956
	DD	imagerel $unwind$CTCE_Start_ConnectThread
$pdata$CTCE_Send DD imagerel CTCE_Send
	DD	imagerel CTCE_Send+2776
	DD	imagerel $unwind$CTCE_Send
$pdata$CTCE_RecvThread DD imagerel CTCE_RecvThread
	DD	imagerel CTCE_RecvThread+6445
	DD	imagerel $unwind$CTCE_RecvThread
$pdata$CTCE_ListenThread DD imagerel CTCE_ListenThread
	DD	imagerel CTCE_ListenThread+2916
	DD	imagerel $unwind$CTCE_ListenThread
$pdata$CTCE_Reset DD imagerel CTCE_Reset
	DD	imagerel CTCE_Reset+3621
	DD	imagerel $unwind$CTCE_Reset
$pdata$CTCE_ChkSum DD imagerel CTCE_ChkSum
	DD	imagerel CTCE_ChkSum+160
	DD	imagerel $unwind$CTCE_ChkSum
$pdata$CTCE_Trace DD imagerel CTCE_Trace
	DD	imagerel CTCE_Trace+6927
	DD	imagerel $unwind$CTCE_Trace
$pdata$CTCE_ConnectThread DD imagerel CTCE_ConnectThread
	DD	imagerel CTCE_ConnectThread+2013
	DD	imagerel $unwind$CTCE_ConnectThread
$pdata$CTCE_Get_Socket DD imagerel CTCE_Get_Socket
	DD	imagerel CTCE_Get_Socket+1775
	DD	imagerel $unwind$CTCE_Get_Socket
$pdata$CTCE_Write_Init DD imagerel CTCE_Write_Init
	DD	imagerel CTCE_Write_Init+722
	DD	imagerel $unwind$CTCE_Write_Init
$pdata$CTCE_Recovery DD imagerel CTCE_Recovery
	DD	imagerel CTCE_Recovery+414
	DD	imagerel $unwind$CTCE_Recovery
$pdata$CTCE_Build_RCD DD imagerel CTCE_Build_RCD
	DD	imagerel CTCE_Build_RCD+351
	DD	imagerel $unwind$CTCE_Build_RCD
pdata	ENDS
_DATA	SEGMENT
	ORG $+13
CTCE_CmdStr DQ	FLAT:$SG169191
	DQ	FLAT:$SG169192
	DQ	FLAT:$SG169193
	DQ	FLAT:$SG169194
	DQ	FLAT:$SG169195
	DQ	FLAT:$SG169196
	DQ	FLAT:$SG169197
	DQ	FLAT:$SG169198
	DQ	FLAT:$SG169199
	DQ	FLAT:$SG169200
	DQ	FLAT:$SG169201
	DQ	FLAT:$SG169202
	DQ	FLAT:$SG169203
	DQ	FLAT:$SG169204
	DQ	FLAT:$SG169205
	DQ	FLAT:$SG169206
CTCE_command DB	0eH
	DB	03H
	DB	02H
	DB	08H
	DB	0aH
	DB	03H
	DB	02H
	DB	01H
	DB	0dH
	DB	03H
	DB	02H
	DB	08H
	DB	06H
	DB	03H
	DB	02H
	DB	01H
	DB	0dH
	DB	03H
	DB	02H
	DB	08H
	DB	04H
	DB	03H
	DB	02H
	DB	01H
	DB	0dH
	DB	03H
	DB	02H
	DB	08H
	DB	06H
	DB	03H
	DB	02H
	DB	01H
	DB	0dH
	DB	03H
	DB	02H
	DB	08H
	DB	0dH
	DB	03H
	DB	02H
	DB	01H
	DB	0dH
	DB	03H
	DB	02H
	DB	08H
	DB	06H
	DB	03H
	DB	02H
	DB	01H
	DB	0dH
	DB	03H
	DB	02H
	DB	08H
	DB	04H
	DB	03H
	DB	02H
	DB	01H
	DB	0dH
	DB	03H
	DB	02H
	DB	08H
	DB	06H
	DB	03H
	DB	02H
	DB	01H
	DB	0dH
	DB	03H
	DB	02H
	DB	0fH
	DB	0dH
	DB	03H
	DB	02H
	DB	01H
	DB	0dH
	DB	03H
	DB	02H
	DB	0fH
	DB	06H
	DB	03H
	DB	02H
	DB	01H
	DB	0dH
	DB	03H
	DB	02H
	DB	0fH
	DB	04H
	DB	03H
	DB	02H
	DB	01H
	DB	0dH
	DB	03H
	DB	02H
	DB	0fH
	DB	06H
	DB	03H
	DB	02H
	DB	01H
	DB	0dH
	DB	03H
	DB	02H
	DB	0fH
	DB	0dH
	DB	03H
	DB	02H
	DB	01H
	DB	0dH
	DB	03H
	DB	02H
	DB	0fH
	DB	06H
	DB	03H
	DB	02H
	DB	01H
	DB	0dH
	DB	03H
	DB	02H
	DB	0fH
	DB	04H
	DB	03H
	DB	02H
	DB	01H
	DB	0dH
	DB	03H
	DB	02H
	DB	0fH
	DB	06H
	DB	03H
	DB	02H
	DB	01H
	DB	0dH
	DB	07H
	DB	02H
	DB	08H
	DB	0dH
	DB	07H
	DB	02H
	DB	01H
	DB	0dH
	DB	07H
	DB	02H
	DB	08H
	DB	06H
	DB	07H
	DB	02H
	DB	01H
	DB	0dH
	DB	07H
	DB	02H
	DB	08H
	DB	04H
	DB	07H
	DB	02H
	DB	01H
	DB	0dH
	DB	07H
	DB	02H
	DB	08H
	DB	06H
	DB	07H
	DB	02H
	DB	01H
	DB	0dH
	DB	07H
	DB	02H
	DB	08H
	DB	0dH
	DB	07H
	DB	02H
	DB	01H
	DB	0dH
	DB	07H
	DB	02H
	DB	08H
	DB	06H
	DB	07H
	DB	02H
	DB	01H
	DB	0dH
	DB	07H
	DB	02H
	DB	08H
	DB	04H
	DB	07H
	DB	02H
	DB	01H
	DB	0dH
	DB	07H
	DB	02H
	DB	08H
	DB	06H
	DB	07H
	DB	02H
	DB	01H
	DB	0dH
	DB	07H
	DB	02H
	DB	09H
	DB	0cH
	DB	07H
	DB	02H
	DB	01H
	DB	0dH
	DB	07H
	DB	02H
	DB	0dH
	DB	06H
	DB	07H
	DB	02H
	DB	01H
	DB	0dH
	DB	07H
	DB	02H
	DB	0dH
	DB	04H
	DB	07H
	DB	02H
	DB	01H
	DB	0dH
	DB	07H
	DB	02H
	DB	0dH
	DB	06H
	DB	07H
	DB	02H
	DB	01H
	DB	0dH
	DB	07H
	DB	02H
	DB	00H
	DB	0bH
	DB	07H
	DB	02H
	DB	01H
	DB	0dH
	DB	07H
	DB	02H
	DB	0dH
	DB	06H
	DB	07H
	DB	02H
	DB	01H
	DB	0dH
	DB	07H
	DB	02H
	DB	0dH
	DB	04H
	DB	07H
	DB	02H
	DB	01H
	DB	0dH
	DB	07H
	DB	02H
	DB	0dH
	DB	06H
	DB	07H
	DB	02H
	DB	01H
CTCE_StaStr DQ	FLAT:$SG169209
	DQ	FLAT:$SG169210
	DQ	FLAT:$SG169211
	DQ	FLAT:$SG169212
	DQ	FLAT:$SG169213
	DQ	FLAT:$SG169214
	DQ	FLAT:$SG169215
	DQ	FLAT:$SG169216
$SG169271 DB	'CTCA', 00H
	ORG $+3
$SG169277 DB	'.', 00H
	ORG $+2
$SG169401 DB	'CTC', 00H
$SG169278 DB	'%s IO[%llu]', 00H
$SG169402 DB	'E', 00H
	ORG $+2
$SG169403 DB	'HHC00915%s %1d:%04X %s: Incorrect number of parameters', 0aH
	DB	00H
$SG169404 DB	'CTCT_Init', 00H
	ORG $+2
$SG169410 DB	'CTC', 00H
$SG169405 DB	'ctcadpt.c', 00H
	ORG $+2
$SG169408 DB	'%u%c', 00H
	ORG $+3
$SG169411 DB	'E', 00H
	ORG $+2
$SG169409 DB	'port number', 00H
$SG169419 DB	'CTC', 00H
$SG169412 DB	'HHC00916%s %1d:%04X %s: Option %s value %s invalid', 0aH
	DB	00H
$SG169420 DB	'E', 00H
	ORG $+2
$SG169413 DB	'CTCT_Init', 00H
	ORG $+2
$SG169428 DB	'CTC', 00H
$SG169414 DB	'ctcadpt.c', 00H
	ORG $+2
$SG169429 DB	'E', 00H
	ORG $+2
$SG169418 DB	'IP address', 00H
	ORG $+1
$SG169437 DB	'CTC', 00H
$SG169421 DB	'HHC00916%s %1d:%04X %s: Option %s value %s invalid', 0aH
	DB	00H
$SG169438 DB	'E', 00H
	ORG $+2
$SG169422 DB	'CTCT_Init', 00H
	ORG $+2
$SG169444 DB	'CTC', 00H
$SG169423 DB	'ctcadpt.c', 00H
	ORG $+2
$SG169426 DB	'%u%c', 00H
	ORG $+3
$SG169445 DB	'E', 00H
	ORG $+2
$SG169427 DB	'port number', 00H
$SG169451 DB	'CTC', 00H
$SG169430 DB	'HHC00916%s %1d:%04X %s: Option %s value %s invalid', 0aH
	DB	00H
$SG169452 DB	'E', 00H
	ORG $+2
$SG169431 DB	'CTCT_Init', 00H
	ORG $+2
$SG169450 DB	'bind()', 00H
	ORG $+1
$SG169458 DB	'I', 00H
	ORG $+2
$SG169432 DB	'ctcadpt.c', 00H
	ORG $+2
$SG169435 DB	'%u%c', 00H
	ORG $+3
$SG169464 DB	'CTC', 00H
$SG169436 DB	'MTU size', 00H
	ORG $+3
$SG169465 DB	'E', 00H
	ORG $+2
$SG169439 DB	'HHC00916%s %1d:%04X %s: Option %s value %s invalid', 0aH
	DB	00H
$SG169471 DB	'CTC', 00H
$SG169440 DB	'CTCT_Init', 00H
	ORG $+2
$SG169470 DB	'bind()', 00H
	ORG $+1
$SG169472 DB	'E', 00H
	ORG $+2
$SG169441 DB	'ctcadpt.c', 00H
	ORG $+2
$SG169478 DB	'CTC', 00H
$SG169443 DB	'socket()', 00H
	ORG $+3
$SG169479 DB	'E', 00H
	ORG $+2
$SG169446 DB	'HHC00900%s %1d:%04X %s: Error in function %s: %s', 0aH, 00H
	ORG $+2
$SG169486 DB	'E', 00H
	ORG $+2
$SG169447 DB	'CTCT_Init', 00H
	ORG $+2
$SG169490 DB	'I', 00H
	ORG $+2
$SG169448 DB	'ctcadpt.c', 00H
	ORG $+2
$SG169537 DB	'E', 00H
	ORG $+2
$SG169453 DB	'HHC00900%s %1d:%04X %s: Error in function %s: %s', 0aH, 00H
	ORG $+2
$SG169542 DB	'I', 00H
	ORG $+2
$SG169454 DB	'CTCT_Init', 00H
	ORG $+2
$SG169548 DB	'E', 00H
	ORG $+2
$SG169455 DB	'ctcadpt.c', 00H
	ORG $+6
$SG169459 DB	'HHC00971%s %1d:%04X CTC: connect to %s:%s failed, starti'
	DB	'ng server', 0aH, 00H
	ORG $+1
$SG169554 DB	'E', 00H
	ORG $+2
$SG169460 DB	'CTCT_Init', 00H
	ORG $+2
$SG169559 DB	'I', 00H
	ORG $+2
$SG169461 DB	'ctcadpt.c', 00H
	ORG $+2
$SG169565 DB	'E', 00H
	ORG $+2
$SG169463 DB	'socket()', 00H
	ORG $+3
$SG169494 DB	'%s:%s', 00H
	ORG $+2
$SG169619 DB	'E', 00H
	ORG $+2
$SG169466 DB	'HHC00900%s %1d:%04X %s: Error in function %s: %s', 0aH, 00H
	ORG $+2
$SG169625 DB	'E', 00H
	ORG $+2
$SG169467 DB	'CTCT_Init', 00H
	ORG $+2
$SG169630 DB	'TUN', 00H
$SG169468 DB	'ctcadpt.c', 00H
	ORG $+2
$SG169632 DB	'CTC', 00H
$SG169473 DB	'HHC00900%s %1d:%04X %s: Error in function %s: %s', 0aH, 00H
	ORG $+2
$SG169633 DB	'I', 00H
	ORG $+2
$SG169474 DB	'CTCT_Init', 00H
	ORG $+2
$SG169655 DB	'E', 00H
	ORG $+2
$SG169475 DB	'ctcadpt.c', 00H
	ORG $+2
$SG169677 DB	'.', 00H
	ORG $+2
$SG169477 DB	'listen()', 00H
	ORG $+3
$SG169652 DB	'%s:%d', 00H
	ORG $+2
$SG169678 DB	'>', 00H
	ORG $+2
$SG169480 DB	'HHC00900%s %1d:%04X %s: Error in function %s: %s', 0aH, 00H
	ORG $+2
$SG169679 DB	'!', 00H
	ORG $+2
$SG169481 DB	'CTCT_Init', 00H
	ORG $+2
$SG169680 DB	'-', 00H
	ORG $+2
$SG169482 DB	'ctcadpt.c', 00H
	ORG $+2
$SG169681 DB	'=', 00H
	ORG $+2
$SG169483 DB	'CTCT %4.4X ListenThread', 00H
$SG169484 DB	'ctcadpt.c:1181', 00H
	ORG $+1
$SG169487 DB	'HHC00102%s Error in function create_thread(): %s', 0aH, 00H
	ORG $+2
$SG169682 DB	'<', 00H
	ORG $+2
$SG169488 DB	'CTCT_Init', 00H
	ORG $+2
$SG169683 DB	'!', 00H
	ORG $+2
$SG169489 DB	'ctcadpt.c', 00H
	ORG $+2
$SG169809 DB	'W', 00H
	ORG $+2
$SG169491 DB	'HHC00972%s %1d:%04X CTC: connected to %s:%s', 0aH, 00H
	ORG $+3
$SG169492 DB	'CTCT_Init', 00H
	ORG $+2
$SG169814 DB	'E', 00H
	ORG $+2
$SG169493 DB	'ctcadpt.c', 00H
	ORG $+2
$SG169824 DB	'E', 00H
	ORG $+2
$SG169538 DB	'HHC00906%s %1d:%04X CTC: write CCW count %u is invalid', 0aH
	DB	00H
$SG169539 DB	'CTCT_Write', 00H
	ORG $+1
$SG169833 DB	'E', 00H
	ORG $+2
$SG169540 DB	'ctcadpt.c', 00H
	ORG $+2
$SG169840 DB	'E', 00H
	ORG $+2
$SG169543 DB	'HHC00907%s %1d:%04X CTC: interface command: %s %8.8X', 0aH
	DB	00H
	ORG $+2
$SG169544 DB	'CTCT_Write', 00H
	ORG $+1
$SG169849 DB	'E', 00H
	ORG $+2
$SG169545 DB	'ctcadpt.c', 00H
	ORG $+6
$SG169549 DB	'HHC00908%s %1d:%04X CTC: incomplete write buffer segment'
	DB	' header at offset %4.4X', 0aH, 00H
	ORG $+3
$SG169801 DB	'FICON', 00H
	ORG $+2
$SG169855 DB	'E', 00H
	ORG $+2
$SG169550 DB	'CTCT_Write', 00H
	ORG $+1
$SG169864 DB	'E', 00H
	ORG $+2
$SG169551 DB	'ctcadpt.c', 00H
	ORG $+6
$SG169555 DB	'HHC00909%s %1d:%04X CTC: invalid write buffer segment le'
	DB	'ngth %u at offset %4.4X', 0aH, 00H
	ORG $+3
$SG169872 DB	'W', 00H
	ORG $+2
$SG169556 DB	'CTCT_Write', 00H
	ORG $+1
$SG169877 DB	'W', 00H
	ORG $+2
$SG169557 DB	'ctcadpt.c', 00H
	ORG $+2
$SG169910 DB	'I', 00H
	ORG $+2
$SG169560 DB	'HHC00934%s %1d:%04X CTC: sending packet to file %s', 0aH
	DB	00H
$SG169914 DB	'E', 00H
	ORG $+2
$SG169561 DB	'CTCT_Write', 00H
	ORG $+1
$SG169918 DB	'E', 00H
	ORG $+2
$SG169562 DB	'ctcadpt.c', 00H
	ORG $+2
$SG169923 DB	'I', 00H
	ORG $+2
$SG169566 DB	'HHC00936%s %1d:%04X CTC: error writing to file %s: %s', 0aH
	DB	00H
	ORG $+1
$SG169567 DB	'CTCT_Write', 00H
	ORG $+1
$SG169987 DB	'E', 00H
	ORG $+2
$SG169568 DB	'ctcadpt.c', 00H
	ORG $+2
$SG169993 DB	'I', 00H
	ORG $+2
$SG169615 DB	'ctcadpt.c', 00H
	ORG $+2
$SG170001 DB	'W', 00H
	ORG $+2
$SG169620 DB	'HHC00973%s %1d:%04X CTC: error reading from file %s: %s', 0aH
	DB	00H
	ORG $+3
$SG170005 DB	'E', 00H
	ORG $+2
$SG169621 DB	'CTCT_Read', 00H
	ORG $+2
$SG170009 DB	'E', 00H
	ORG $+2
$SG169622 DB	'ctcadpt.c', 00H
	ORG $+2
$SG170042 DB	'S', 00H
	ORG $+2
$SG169626 DB	'HHC00973%s %1d:%04X CTC: error reading from file %s: %s', 0aH
	DB	00H
	ORG $+3
$SG170053 DB	'S', 00H
	ORG $+2
$SG169627 DB	'CTCT_Read', 00H
	ORG $+2
$SG170058 DB	'E', 00H
	ORG $+2
$SG169628 DB	'ctcadpt.c', 00H
	ORG $+6
$SG169657 DB	'CTCT_ListenThread', 00H
	ORG $+6
$SG169634 DB	'HHC00913%s %1d:%04X %s: Receive%s packet of size %d byte'
	DB	's from device %s', 0aH, 00H
	ORG $+2
$SG170116 DB	'E', 00H
	ORG $+2
$SG169635 DB	'CTCT_Read', 00H
	ORG $+2
$SG170122 DB	'I', 00H
	ORG $+2
$SG169636 DB	'ctcadpt.c', 00H
	ORG $+6
$SG169656 DB	'HHC00974%s %1d:%04X CTC: incorrect client or config erro'
	DB	'r: config file %s connecting client %s', 0aH, 00H
$SG169658 DB	'ctcadpt.c', 00H
	ORG $+2
$SG169671 DB	'CTCA', 00H
	ORG $+3
$SG170253 DB	' CC=%d', 00H
	ORG $+1
$SG170305 DB	'.', 00H
	ORG $+2
$SG169684 DB	'CTCE %05d/%d %s%s%s %s IO[%llu]', 00H
$SG169735 DB	'ctcadpt.c:1737', 00H
	ORG $+1
$SG169759 DB	'ctcadpt.c:1897', 00H
	ORG $+1
$SG169799 DB	'ctcadpt.c:1930', 00H
	ORG $+1
$SG169800 DB	'ctcadpt.c:1932', 00H
	ORG $+1
$SG169805 DB	'ATTNDELAY', 00H
	ORG $+2
$SG169808 DB	'%u%c', 00H
	ORG $+3
$SG170254 DB	'     ', 00H
	ORG $+2
$SG170259 DB	'->NONE', 00H
	ORG $+1
$SG170314 DB	'I', 00H
	ORG $+2
$SG169810 DB	'HHC05085%s %1d:%04X CTCE: Invalid ATTNDELAY value %s ign'
	DB	'ored', 0aH, 00H
	ORG $+2
$SG169811 DB	'CTCE_Init', 00H
	ORG $+2
$SG170299 DB	' CLEAR', 00H
	ORG $+1
$SG170334 DB	'E', 00H
	ORG $+2
$SG169812 DB	'ctcadpt.c', 00H
	ORG $+6
$SG169815 DB	'HHC05055%s %1d:%04X CTCE: Missing (at least) remote CTCE'
	DB	' IP address parameter', 0aH, 00H
	ORG $+1
$SG169816 DB	'CTCE_Init', 00H
	ORG $+2
$SG170301 DB	' RESET', 00H
	ORG $+1
$SG170369 DB	'I', 00H
	ORG $+2
$SG169817 DB	'ctcadpt.c', 00H
	ORG $+2
$SG169821 DB	'%u%c', 00H
	ORG $+7
$SG169825 DB	'HHC05056%s %1d:%04X CTCE: Local port number outside rang'
	DB	'e 1024-65534: %s', 0aH, 00H
	ORG $+2
$SG170308 DB	' MATCH', 00H
	ORG $+1
$SG170375 DB	'.', 00H
	ORG $+2
$SG169826 DB	'CTCE_Init', 00H
	ORG $+2
$SG170376 DB	'I', 00H
	ORG $+2
$SG169827 DB	'ctcadpt.c', 00H
	ORG $+6
$SG169841 DB	'HHC05058%s %1d:%04X CTCE: Invalid IP address %s', 0aH, 00H
	ORG $+7
$SG169834 DB	'HHC05057%s %1d:%04X CTCE: Remote CCUU address outside ra'
	DB	'nge 0001-FFFF: %4X', 0aH, 00H
$SG170385 DB	'I', 00H
	ORG $+2
$SG169835 DB	'CTCE_Init', 00H
	ORG $+2
$SG170389 DB	'I', 00H
	ORG $+2
$SG169836 DB	'ctcadpt.c', 00H
	ORG $+2
$SG170414 DB	'listen', 00H
	ORG $+1
$SG170416 DB	'E', 00H
	ORG $+2
$SG169842 DB	'CTCE_Init', 00H
	ORG $+2
$SG170421 DB	'listen', 00H
	ORG $+1
$SG170424 DB	'E', 00H
	ORG $+2
$SG169843 DB	'ctcadpt.c', 00H
	ORG $+2
$SG169848 DB	'%u%c', 00H
	ORG $+3
$SG170266 DB	' WEOF', 00H
	ORG $+2
$SG170430 DB	'listen', 00H
	ORG $+1
$SG170433 DB	'E', 00H
	ORG $+2
$SG169850 DB	'HHC05059%s %1d:%04X CTCE: Invalid port number: %s', 0aH, 00H
	ORG $+1
$SG170442 DB	'E', 00H
	ORG $+2
$SG169851 DB	'CTCE_Init', 00H
	ORG $+2
$SG170440 DB	'listen', 00H
	ORG $+1
$SG170451 DB	'E', 00H
	ORG $+2
$SG169852 DB	'ctcadpt.c', 00H
	ORG $+2
$SG169863 DB	'%u%c', 00H
	ORG $+7
$SG169856 DB	'HHC05060%s %1d:%04X CTCE: Both remote listening port and'
	DB	' remote CCUU are missing; at least one is required.', 0aH, 00H
	ORG $+3
$SG169857 DB	'CTCE_Init', 00H
	ORG $+2
$SG170449 DB	'listen', 00H
	ORG $+1
$SG170466 DB	'E', 00H
	ORG $+2
$SG169858 DB	'ctcadpt.c', 00H
	ORG $+2
$SG169871 DB	'%u%c', 00H
	ORG $+7
$SG169865 DB	'HHC05061%s %1d:%04X CTCE: Invalid MTU size %s, allowed r'
	DB	'ange is %d to 65536', 0aH, 00H
	ORG $+3
$SG169866 DB	'CTCE_Init', 00H
	ORG $+2
$SG170481 DB	'I', 00H
	ORG $+2
$SG169867 DB	'ctcadpt.c', 00H
	ORG $+6
$SG169873 DB	'HHC05062%s %1d:%04X CTCE: Invalid Small MTU size %s igno'
	DB	'red', 0aH, 00H
	ORG $+3
$SG169874 DB	'CTCE_Init', 00H
	ORG $+6
$SG169875 DB	'ctcadpt.c', 00H
	ORG $+6
$SG169878 DB	'HHC05064%s %1d:%04X CTCE: Extraneous parameters ignored '
	DB	': %s ...', 0aH, 00H
	ORG $+6
$SG169879 DB	'CTCE_Init', 00H
	ORG $+6
$SG169880 DB	'ctcadpt.c', 00H
	ORG $+6
$SG169899 DB	'%1d:%04X=%s:%d/*', 00H
	ORG $+7
$SG169906 DB	'CTCE %4.4X ListenThread', 00H
$SG169909 DB	'ctcadpt.c:2237', 00H
	ORG $+1
$SG169912 DB	'CTCE_Start_Listen_Connect_Threads', 00H
	ORG $+6
$SG169911 DB	'HHC05063%s %1d:%04X CTCE: Awaiting inbound connection :%'
	DB	'5d <- %s', 0aH, 00H
	ORG $+6
$SG169913 DB	'ctcadpt.c', 00H
	ORG $+6
$SG169915 DB	'HHC05080%s %1d:%04X CTCE: Create listen thread %s error:'
	DB	' %s', 0aH, 00H
	ORG $+3
$SG169916 DB	'CTCE_Start_Listen_Connect_Threads', 00H
	ORG $+6
$SG169917 DB	'ctcadpt.c', 00H
	ORG $+6
$SG169919 DB	'HHC05066%s %1d:%04X CTCE: Error on call to listen (port='
	DB	'%d): %s', 0aH, 00H
	ORG $+7
$SG169920 DB	'CTCE_Start_Listen_Connect_Threads', 00H
	ORG $+6
$SG169921 DB	'ctcadpt.c', 00H
	ORG $+6
$SG169924 DB	'HHC05081%s %1d:%04X CTCE: Already awaiting connection :%'
	DB	'5d <- %s', 0aH, 00H
	ORG $+6
$SG169925 DB	'CTCE_Start_Listen_Connect_Threads', 00H
	ORG $+6
$SG169926 DB	'ctcadpt.c', 00H
	ORG $+6
$SG169969 DB	'ctcadpt.c:2344', 00H
	ORG $+1
$SG169980 DB	'%1d:%04X=%s:%d/%d', 00H
	ORG $+6
$SG169983 DB	'CTCE %04X RecvThread', 00H
	ORG $+3
$SG169986 DB	'ctcadpt.c:2413', 00H
	ORG $+1
$SG169988 DB	'HHC05069%s %1d:%04X CTCE: create_thread %s error: %s', 0aH
	DB	00H
	ORG $+2
$SG169989 DB	'CTCE_ListenThread', 00H
	ORG $+6
$SG169990 DB	'ctcadpt.c', 00H
	ORG $+6
$SG169991 DB	'Renewing', 00H
	ORG $+7
$SG169992 DB	'Accepted', 00H
	ORG $+7
$SG169994 DB	'HHC05070%s %1d:%04X CTCE: %s inbound connection :%5d <- '
	DB	'%1d:%04X=%s:%5d (bufsize=%d,%d)', 0aH, 00H
	ORG $+7
$SG169995 DB	'CTCE_ListenThread', 00H
	ORG $+6
$SG169996 DB	'ctcadpt.c', 00H
	ORG $+6
$SG169998 DB	'ctcadpt.c:2435', 00H
	ORG $+1
$SG170003 DB	'CTCE_ListenThread', 00H
	ORG $+6
$SG170002 DB	'HHC05067%s %1d:%04X CTCE: Ignoring non matching connecti'
	DB	'on from %1d:%04X=%s:%d', 0aH, 00H
$SG170004 DB	'ctcadpt.c', 00H
	ORG $+6
$SG170006 DB	'HHC05068%s %1d:%04X CTCE: TCP_NODELAY error for listenin'
	DB	'g socket %d (port %d): %s', 0aH, 00H
	ORG $+5
$SG170007 DB	'CTCE_ListenThread', 00H
	ORG $+6
$SG170008 DB	'ctcadpt.c', 00H
	ORG $+6
$SG170010 DB	'HHC05083%s %1d:%04X CTCE: Error on accept() for listenin'
	DB	'g socket %d (port %d): %s', 0aH, 00H
	ORG $+5
$SG170011 DB	'CTCE_ListenThread', 00H
	ORG $+6
$SG170012 DB	'ctcadpt.c', 00H
	ORG $+6
$SG170043 DB	'HHC05071%s %1d:%04X CTCE: Internal error, SEND status in'
	DB	'correctly encoded !', 0aH, 00H
	ORG $+3
$SG170044 DB	'CTCE_Send', 00H
	ORG $+6
$SG170045 DB	'ctcadpt.c', 00H
	ORG $+6
$SG170054 DB	'HHC05073%s %1d:%04X CTCE: bufsize parameter %d is too sm'
	DB	'all; increase at least to %d', 0aH, 00H
	ORG $+2
$SG170055 DB	'CTCE_Send', 00H
	ORG $+6
$SG170056 DB	'ctcadpt.c', 00H
	ORG $+6
$SG170059 DB	'HHC05074%s %1d:%04X CTCE: Error writing to %s: %s', 0aH, 00H
	ORG $+5
$SG170060 DB	'CTCE_Send', 00H
	ORG $+6
$SG170061 DB	'ctcadpt.c', 00H
	ORG $+6
$SG170067 DB	'ctcadpt.c:2590', 00H
	ORG $+1
$SG170068 DB	'ctcadpt.c:2591', 00H
	ORG $+1
$SG170069 DB	'ctcadpt.c:2597', 00H
	ORG $+1
$SG170070 DB	'ctcadpt.c:2599', 00H
	ORG $+1
$SG170071 DB	'ctcadpt.c:2600', 00H
	ORG $+1
$SG170110 DB	'ctcadpt.c:2693', 00H
	ORG $+1
$SG170111 DB	'ctcadpt.c:2706', 00H
	ORG $+1
$SG170113 DB	'ctcadpt.c:2727', 00H
	ORG $+1
$SG170117 DB	'HHC05077%s %1d:%04X CTCE: Error reading from %s: %s', 0aH
	DB	00H
	ORG $+3
$SG170118 DB	'CTCE_RecvThread', 00H
$SG170119 DB	'ctcadpt.c', 00H
	ORG $+6
$SG170124 DB	'CTCE_RecvThread', 00H
?CTCE_XfrStr@?1??CTCE_Trace@@9@9 DQ FLAT:$SG170230	; `CTCE_Trace'::`2'::CTCE_XfrStr
	DQ	FLAT:$SG170231
	DQ	FLAT:$SG170232
	DQ	FLAT:$SG170233
	DQ	FLAT:$SG170234
$SG170123 DB	'HHC05076%s %1d:%04X CTCE: Connection closed; %llu MB rec'
	DB	'eived in %llu packets from %s; shutdown=%d', 0aH, 00H
	ORG $+4
$SG170125 DB	'ctcadpt.c', 00H
	ORG $+6
$SG170127 DB	'ctcadpt.c:2759', 00H
	ORG $+1
$SG170134 DB	'ctcadpt.c:2831', 00H
	ORG $+1
$SG170135 DB	'ctcadpt.c:2832', 00H
	ORG $+1
$SG170136 DB	'ctcadpt.c:2833', 00H
	ORG $+1
$SG170148 DB	'ctcadpt.c:2927', 00H
	ORG $+1
$SG170149 DB	'ctcadpt.c:2928', 00H
	ORG $+1
$SG170150 DB	'ctcadpt.c:2929', 00H
	ORG $+1
$SG170152 DB	'ctcadpt.c:2936', 00H
	ORG $+1
$SG170154 DB	'ctcadpt.c:2946', 00H
	ORG $+1
$SG170159 DB	'ctcadpt.c:2980', 00H
	ORG $+1
$SG170165 DB	'ctcadpt.c:3023', 00H
	ORG $+1
$SG170173 DB	'ctcadpt.c:3059', 00H
	ORG $+1
$SG170183 DB	'ctcadpt.c:3096', 00H
	ORG $+1
$SG170184 DB	'ctcadpt.c:3097', 00H
	ORG $+1
$SG170185 DB	'ctcadpt.c:3098', 00H
	ORG $+1
$SG170249 DB	'Stat=%02X', 00H
	ORG $+6
$SG170250 DB	'       ', 00H
$SG170255 DB	' w=%d,r=%d', 00H
	ORG $+5
$SG170261 DB	'->RC=%d', 00H
$SG170263 DB	' DE_READY->RC=%d', 00H
	ORG $+3
$SG170268 DB	'->SET', 00H
	ORG $+2
$SG170270 DB	'->UX', 00H
	ORG $+3
$SG170272 DB	'->CLR', 00H
	ORG $+6
$SG170274 DB	' SCB=%02X=%s', 00H
	ORG $+3
$SG170276 DB	' Busy_Waits=%d', 00H
	ORG $+1
$SG170278 DB	' WAIT->RC=%d', 00H
	ORG $+3
$SG170282 DB	' SENSE=%02X%02X', 00H
$SG170284 DB	' SENSE=%02X%02X', 00H
$SG170287 DB	' CTCE_STATE MISMATCH %s!=%s(:FSM) !', 00H
	ORG $+4
$SG170291 DB	' Stat MISMATCH %02X!=%02X(:FSM) !', 00H
	ORG $+6
$SG170293 DB	' CON_LOSER', 00H
	ORG $+5
$SG170295 DB	' IGNORED / CON_WINNER', 00H
	ORG $+2
$SG170297 DB	' HALT', 00H
	ORG $+2
$SG170306 DB	' ATTN', 00H
	ORG $+2
$SG170310 DB	' WAIT', 00H
	ORG $+2
$SG170312 DB	' WEOF', 00H
	ORG $+2
$SG170315 DB	'HHC05079%s %1d:%04X CTCE: %s %.6s #%04X cmd=%s=%02X xy=%'
	DB	'.2s%s%.2s l=%04X k=%08X %s%s%s%s%s%s', 0aH, 00H
	ORG $+2
$SG170316 DB	'CTCE_Trace', 00H
	ORG $+5
$SG170317 DB	'ctcadpt.c', 00H
	ORG $+6
$SG170319 DB	'%1d:%04X', 00H
	ORG $+7
$SG170328 DB	'ctcadpt.c:3538', 00H
	ORG $+1
$SG170329 DB	'&dev->ctceEventLock', 00H
	ORG $+4
$SG170330 DB	'ctcadpt.c:3539', 00H
	ORG $+1
$SG170331 DB	'CTCE %4.4X ConnectThread', 00H
	ORG $+7
$SG170333 DB	'ctcadpt.c:3567', 00H
	ORG $+1
$SG170335 DB	'HHC05069%s %1d:%04X CTCE: create_thread %s error: %s', 0aH
	DB	00H
	ORG $+2
$SG170336 DB	'CTCE_Start_ConnectThread', 00H
	ORG $+7
$SG170337 DB	'ctcadpt.c', 00H
	ORG $+6
$SG170360 DB	'ctcadpt.c:3605', 00H
	ORG $+1
$SG170362 DB	'ctcadpt.c:3613', 00H
	ORG $+1
$SG170363 DB	'ctcadpt.c:3626', 00H
	ORG $+1
$SG170365 DB	'ctcadpt.c:3633', 00H
	ORG $+1
$SG170370 DB	'HHC05065%s %1d:%04X CTCE: Attempt outbound connection :%'
	DB	'5d -> %1d:%04X=%s:%d', 0aH, 00H
	ORG $+2
$SG170371 DB	'CTCE_ConnectThread', 00H
	ORG $+5
$SG170372 DB	'ctcadpt.c', 00H
	ORG $+6
$SG170378 DB	'CTCE_ConnectThread', 00H
	ORG $+5
$SG170377 DB	'HHC05072%s %1d:%04X CTCE: Still attempting connection :%'
	DB	'5d -> %1d:%04X=%s:%d%s', 0aH, 00H
$SG170379 DB	'ctcadpt.c', 00H
	ORG $+6
$SG170383 DB	'Renewed', 00H
$SG170384 DB	'Started', 00H
$SG170386 DB	'HHC05054%s %1d:%04X CTCE: %s outbound connection :%5d ->'
	DB	' %1d:%04X=%s:%d', 0aH, 00H
	ORG $+7
$SG170387 DB	'CTCE_ConnectThread', 00H
	ORG $+5
$SG170388 DB	'ctcadpt.c', 00H
	ORG $+6
$SG170391 DB	'CTCE_ConnectThread', 00H
	ORG $+5
$SG170390 DB	'HHC05078%s %1d:%04X CTCE: Aborted outbound connection :%'
	DB	'5d -> %1d:%04X=%s:%d', 0aH, 00H
	ORG $+2
$SG170392 DB	'ctcadpt.c', 00H
	ORG $+6
$SG170393 DB	'ctcadpt.c:3686', 00H
	ORG $+1
$SG170415 DB	'connect', 00H
$SG170417 DB	'HHC05050%s %1d:%04X CTCE: Error creating %s socket: %s', 0aH
	DB	00H
$SG170418 DB	'CTCE_Get_Socket', 00H
$SG170419 DB	'ctcadpt.c', 00H
	ORG $+6
$SG170422 DB	'connect', 00H
$SG170423 DB	'SO_REUSEADDR', 00H
	ORG $+3
$SG170426 DB	'CTCE_Get_Socket', 00H
$SG170431 DB	'connect', 00H
$SG170425 DB	'HHC05051%s %1d:%04X CTCE: %s error for %s socket (port %'
	DB	'd): %s', 0aH, 00H
$SG170427 DB	'ctcadpt.c', 00H
	ORG $+6
$SG170432 DB	'TCP_NODELAY', 00H
	ORG $+4
$SG170434 DB	'HHC05051%s %1d:%04X CTCE: %s error for %s socket (port %'
	DB	'd): %s', 0aH, 00H
$SG170435 DB	'CTCE_Get_Socket', 00H
$SG170436 DB	'ctcadpt.c', 00H
	ORG $+6
$SG170441 DB	'connect', 00H
$SG170450 DB	'connect', 00H
$SG170443 DB	'HHC05052%s %1d:%04X CTCE: Error binding to %s socket (po'
	DB	'rt %d): %s', 0aH, 00H
	ORG $+4
$SG170444 DB	'CTCE_Get_Socket', 00H
$SG170445 DB	'ctcadpt.c', 00H
	ORG $+6
$SG170453 DB	'CTCE_Get_Socket', 00H
$SG170479 DB	'DEVINIT', 00H
$SG170452 DB	'HHC05053%s %1d:%04X CTCE: Error on getsockname for %s so'
	DB	'cket (port %d): %s', 0aH, 00H
	ORG $+4
$SG170454 DB	'ctcadpt.c', 00H
	ORG $+6
$SG170467 DB	'HHC05075%s %1d:%04X CTCE: Initial write_socket :%d -> %1'
	DB	'd:%04X=%s:%d ; rc=%d!=%d ; error = %s', 0aH, 00H
	ORG $+1
$SG170468 DB	'CTCE_Write_Init', 00H
$SG170469 DB	'ctcadpt.c', 00H
	ORG $+6
$SG170480 DB	'%1d:%04X', 00H
	ORG $+7
$SG170482 DB	'HHC05086%s %1d:%04X CTCE: Recovery is about to issue Her'
	DB	'cules command: %s %s', 0aH, 00H
	ORG $+2
$SG170483 DB	'CTCE_Recovery', 00H
	ORG $+2
$SG170484 DB	'ctcadpt.c', 00H
	ORG $+6
$SG170485 DB	'ctcadpt.c:3842', 00H
	ORG $+1
$SG170486 DB	'ctcadpt.c:3844', 00H
_DATA	ENDS
voltbl	SEGMENT
_volmd	DD	0ffffffffH
	DDSymXIndex: 	FLAT:CTCE_Build_RCD
	DD	022H
	DD	0145H
_volmd	DD	0ffffffffH
	DDSymXIndex: 	FLAT:CTCE_Recovery
	DD	016H
	DD	0186H
_volmd	DD	0ffffffffH
	DDSymXIndex: 	FLAT:CTCE_Get_Socket
	DD	01bH
	DD	06d6H
_volmd	DD	0ffffffffH
	DDSymXIndex: 	FLAT:CTCE_ConnectThread
	DD	017H
	DD	07c4H
_volmd	DD	0ffffffffH
	DDSymXIndex: 	FLAT:CTCE_Trace
	DD	02cH
	DD	01aefH
_volmd	DD	0ffffffffH
	DDSymXIndex: 	FLAT:CTCE_Reset
	DD	017H
	DD	0e0cH
_volmd	DD	0ffffffffH
	DDSymXIndex: 	FLAT:CTCE_ListenThread
	DD	018H
	DD	0b4aH
_volmd	DD	0ffffffffH
	DDSymXIndex: 	FLAT:CTCE_RecvThread
	DD	016H
	DD	01915H
_volmd	DD	0ffffffffH
	DDSymXIndex: 	FLAT:CTCE_Start_ConnectThread
	DD	016H
	DD	03a4H
_volmd	DD	0ffffffffH
	DDSymXIndex: 	FLAT:CTCE_Start_Listen_Connect_Threads
	DD	018H
	DD	05afH
_volmd	DD	0ffffffffH
	DDSymXIndex: 	FLAT:CTCE_Init
	DD	021H
	DD	0e11H
_volmd	DD	0ffffffffH
	DDSymXIndex: 	FLAT:CTCE_ExecuteCCW
	DD	026H
	DD	01584H
_volmd	DD	0ffffffffH
	DDSymXIndex: 	FLAT:CTCT_ListenThread
	DD	018H
	DD	01a1H
_volmd	DD	0ffffffffH
	DDSymXIndex: 	FLAT:CTCT_Write
	DD	024H
	DD	07ccH
_volmd	DD	0ffffffffH
	DDSymXIndex: 	FLAT:CTCT_Read
	DD	02cH
	DD	05adH
_volmd	DD	0ffffffffH
	DDSymXIndex: 	FLAT:CTCT_Init
	DD	021H
	DD	0f18H
_volmd	DD	0ffffffffH
	DDSymXIndex: 	FLAT:CTCE_Query
	DD	025H
	DD	0221H
_volmd	DD	0ffffffffH
	DDSymXIndex: 	FLAT:CTCX_Query
	DD	025H
	DD	0158H
voltbl	ENDS
xdata	SEGMENT
$unwind$CTCX_Close DD 010901H
	DD	04209H
$unwind$CTCX_Query DD 022d19H
	DD	02d011bH
	DD	imagerel __GSHandlerCheck
	DD	0150H
$unwind$CTCX_ExecuteCCW DD 031901H
	DD	07015a219H
	DD	06014H
$unwind$CTCE_Close DD 010901H
	DD	04209H
$unwind$CTCE_Query DD 022d19H
	DD	033011bH
	DD	imagerel __GSHandlerCheck
	DD	0180H
$unwind$SetSIDInfo DD 021a01H
	DD	07016121aH
$unwind$SetCIWInfo DD 011801H
	DD	02218H
$unwind$CTCT_Init DD 042919H
	DD	03d0117H
	DD	0600f7010H
	DD	imagerel __GSHandlerCheck
	DD	01d0H
$unwind$CTCT_Read DD 043419H
	DD	041f0122H
	DD	060147015H
	DD	imagerel __GSHandlerCheck
	DD	020e0H
$unwind$CTCT_Write DD 022c19H
	DD	023011aH
	DD	imagerel __GSHandlerCheck
	DD	0108H
$unwind$CTCT_ListenThread DD 042019H
	DD	021010eH
	DD	060067007H
	DD	imagerel __GSHandlerCheck
	DD	0f0H
$unwind$CTCE_ExecuteCCW DD 042e19H
	DD	029011cH
	DD	060147015H
	DD	imagerel __GSHandlerCheck
	DD	0138H
$unwind$CTCE_Init DD 042919H
	DD	0290117H
	DD	0600f7010H
	DD	imagerel __GSHandlerCheck
	DD	0130H
$unwind$CTCE_Start_Listen_Connect_Threads DD 042019H
	DD	02f010eH
	DD	060067007H
	DD	imagerel __GSHandlerCheck
	DD	0160H
$unwind$CTCE_Start_ConnectThread DD 021e19H
	DD	01f010cH
	DD	imagerel __GSHandlerCheck
	DD	0e0H
$unwind$CTCE_Send DD 041c01H
	DD	01b011cH
	DD	060147015H
$unwind$CTCE_RecvThread DD 021e19H
	DD	037010cH
	DD	imagerel __GSHandlerCheck
	DD	01a8H
$unwind$CTCE_ListenThread DD 042019H
	DD	03d010eH
	DD	060067007H
	DD	imagerel __GSHandlerCheck
	DD	01d0H
$unwind$CTCE_Reset DD 031f19H
	DD	022010dH
	DD	07006H
	DD	imagerel __GSHandlerCheck
	DD	0100H
$unwind$CTCE_ChkSum DD 010e01H
	DD	0220eH
$unwind$CTCE_Trace DD 083419H
	DD	0830122H
	DD	0e019f01bH
	DD	060167017H
	DD	030145015H
	DD	imagerel __GSHandlerCheck
	DD	0400H
$unwind$CTCE_ConnectThread DD 031f19H
	DD	026010dH
	DD	07006H
	DD	imagerel __GSHandlerCheck
	DD	0128H
$unwind$CTCE_Get_Socket DD 032319H
	DD	0220111H
	DD	0700aH
	DD	imagerel __GSHandlerCheck
	DD	0108H
$unwind$CTCE_Write_Init DD 021001H
	DD	01b0110H
$unwind$CTCE_Recovery DD 021e19H
	DD	015010cH
	DD	imagerel __GSHandlerCheck
	DD	098H
$unwind$CTCE_Build_RCD DD 042a19H
	DD	0170118H
	DD	060107011H
	DD	imagerel __GSHandlerCheck
	DD	0a0H
xdata	ENDS
;	COMDAT xdata
xdata	SEGMENT
$unwind$fetch_fw_noswap DD 010901H
	DD	02209H
xdata	ENDS
;	COMDAT xdata
xdata	SEGMENT
$unwind$fetch_hw_noswap DD 010901H
	DD	02209H
xdata	ENDS
;	COMDAT xdata
xdata	SEGMENT
$unwind$sscanf DD 011801H
	DD	06218H
xdata	ENDS
;	COMDAT xdata
xdata	SEGMENT
$unwind$_vsscanf_l DD 011801H
	DD	06218H
xdata	ENDS
; Function compile flags: /Odtp
; File C:\papa\MyGit\hyperion-zvector\ctcadpt.c
_TEXT	SEGMENT
tv140 = 0
RCD_len$ = 4
work$ = 16
__$ArrayPad$ = 160
dev$ = 208
buffer$ = 216
bufsz$ = 224
CTCE_Build_RCD PROC

; 3855 : {

  00000	44 89 44 24 18	 mov	 DWORD PTR [rsp+24], r8d
  00005	48 89 54 24 10	 mov	 QWORD PTR [rsp+16], rdx
  0000a	48 89 4c 24 08	 mov	 QWORD PTR [rsp+8], rcx
  0000f	56		 push	 rsi
  00010	57		 push	 rdi
  00011	48 81 ec b8 00
	00 00		 sub	 rsp, 184		; 000000b8H
  00018	48 8b 05 00 00
	00 00		 mov	 rax, QWORD PTR __security_cookie
  0001f	48 33 c4	 xor	 rax, rsp
  00022	48 89 84 24 a0
	00 00 00	 mov	 QWORD PTR __$ArrayPad$[rsp], rax

; 3856 : 
; 3857 : /*-------------------------------------------------------------------*/
; 3858 : /* static template/prototype configuration data                      */
; 3859 : /*-------------------------------------------------------------------*/
; 3860 : /*                                                                   */
; 3861 : /*    SB10-7034-05  ESCON and FICON Channel-to-Channel Reference     */
; 3862 : /*                                                                   */
; 3863 : /* Read Configuration Data (X'C4')                                   */
; 3864 : /*                                                                   */
; 3865 : /* A Read Configuration Data command for a CTC device was only ever  */
; 3866 : /* encountered for FICON CTC (FCTC), never for regular CTC Adapters. */
; 3867 : /* (ESCON CTC adapters so far have not been tested yet.)  The RCD    */
; 3868 : /* command was then implemented similar to the code in tapedev.c.    */
; 3869 : /*                                                                   */
; 3870 : /* A Read Configuration Data command for a FCTC causes 132 bytes of  */
; 3871 : /* be transferred from the control unit to the channel.              */
; 3872 : /*                                                                   */
; 3873 : /*-------------------------------------------------------------------*/
; 3874 : static const BYTE cfgdata[] =       // (prototype data)
; 3875 : {
; 3876 : // ---------------- Local NED -----------------------------------------
; 3877 : 0xC8,                               // 0:      NED code
; 3878 : 0x01,                               // 1:      Type  (X'01' = I/O Device)
; 3879 : 0x09,                               // 2:      Class (X'09' = CTCA)
; 3880 : 0x00,                               // 3:      (Reserved)
; 3881 : 0xF0,0xF0,0xF3,0xF0,0xF8,0xF8,      // 4-9:    Type  ('003088')
; 3882 : 0xC3,0xE3,0xC3,                     // 10-12:  Model ('CTC')
; 3883 : 0xC8,0xD9,0xC3,                     // 13-15:  Manufacturer ('HRC' = Hercules)
; 3884 : 0xE9,0xE9,                          // 16-17:  Plant of Manufacture ('ZZ' = Herc)
; 3885 : 0xF0,0xF0,0xF0,0xF0,                // 18-21:  Sequence Number Bytes 0-3
; 3886 : 0xC1,                               // 22:     Sequence Number Byte  4
; 3887 : 0xF0,0xF0,0xF0,0xF0,0xF0,0xF0,0xF0, // 23-29:  Sequence Number Bytes 5-11
; 3888 : 0x00, 0x00,                         // 30-31:  Tag
; 3889 : // ---------------- Specific NED --------------------------------------
; 3890 : 0x40,                               // 32:     Flags
; 3891 : 0x00,0x00,0x00,                     // 33-35:  (Reserved)
; 3892 : 0xF0,0xF0,0xF3,0xF0,0xF8,0xF8,      // 36-41:  Type  ('003088')
; 3893 : 0xC3,0xE3,0xC3,                     // 42-44:  Model ('CTC')
; 3894 : 0xC8,0xD9,0xC3,                     // 45-47:  Manufacturer ('HRC' = Hercules)
; 3895 : 0xE9,0xE9,                          // 48-49:  Plant of Manufacture ('ZZ' = Herc)
; 3896 : 0xF0,0xF0,0xF0,0xF0,                // 50-53:  Sequence Number Bytes 0-3
; 3897 : 0xC2,                               // 54:     Sequence Number Byte  4
; 3898 : 0xF0,0xF0,0xF0,0xF0,0xF0,0xF0,0xF0, // 55-61:  Sequence Number Bytes 5-11
; 3899 : 0x00, 0x00,                         // 62-63:  Tag
; 3900 : // ---------------- Token NED -----------------------------------------
; 3901 : 0xE8,                               // 64:     NED code
; 3902 : 0x01,                               // 65:     Type  (X'01' = I/O Device)
; 3903 : 0x09,                               // 66:     Class (X'09' = CTCA)
; 3904 : 0x00,                               // 67:     (Reserved)
; 3905 : 0xF0,0xF0,0xF2,0xF8,0xF1,0xF7,      // 68-73:  Type  ('002817') (z196)
; 3906 : 0xC3,0xE3,0xC3,                     // 74-76:  Model ('CTC')
; 3907 : 0xC8,0xD9,0xC3,                     // 77-79:  Manufacturer ('HRC' = Hercules)
; 3908 : 0xE9,0xE9,                          // 80-81:  Plant of Manufacture ('ZZ' = Herc)
; 3909 : 0xF0,0xF0,0xF0,0xF0,                // 82-85:  Sequence Number Bytes 0-3
; 3910 : 0xF0,                               // 86:     Sequence Number Byte  4
; 3911 : 0xF0,0xF0,0xF0,0xF0,0xF0,0xF0,0xF0, // 87-93:  Sequence Number Bytes 5-11
; 3912 : 0x00, 0xE1,                         // 94-95:  Tag
; 3913 : // ---------------- General NED ---------------------------------------
; 3914 : 0x80,                               // 96:       NED code
; 3915 : 0x00,                               // 97:       Record Selector
; 3916 : 0x00,0x01,                          // 98-99:    Interface ID
; 3917 :                                     //           x'0001' = local config record
; 3918 :                                     //           x'0002' = remote config record
; 3919 : 0x00,0x00,0x00,0x00,0x00,0x00,0x00, // 100-131:  (Reserved)
; 3920 : 0x00,0x00,0x00,0x00,0x00,0x00,0x00,
; 3921 : 0x00,0x00,0x00,0x00,0x00,0x00,0x00,
; 3922 : 0x00,0x00,0x00,0x00,0x00,0x00,0x00,
; 3923 : 0x00,0x00,0x00,0x00,
; 3924 : };
; 3925 : 
; 3926 : CASSERT( sizeof(cfgdata) == 132, ctcadpt_c );
; 3927 : 
; 3928 :     int   RCD_len;
; 3929 :     BYTE  work[ sizeof( cfgdata ) ];
; 3930 : 
; 3931 :     // Copy prototype Configuration Data to work area.
; 3932 :     memcpy( work, cfgdata, sizeof( work ));

  0002a	48 8d 44 24 10	 lea	 rax, QWORD PTR work$[rsp]
  0002f	48 8d 0d 00 00
	00 00		 lea	 rcx, OFFSET FLAT:?cfgdata@?1??CTCE_Build_RCD@@9@9
  00036	48 8b f8	 mov	 rdi, rax
  00039	48 8b f1	 mov	 rsi, rcx
  0003c	b9 84 00 00 00	 mov	 ecx, 132		; 00000084H
  00041	f3 a4		 rep movsb

; 3933 : 
; 3934 :     // Fixup values for this particular FICON CTCE device.
; 3935 :     work[19]    = (dev->devnum      & 0x0FF);   // (set Inbound  IID)

  00043	48 8b 84 24 d0
	00 00 00	 mov	 rax, QWORD PTR dev$[rsp]
  0004b	0f b7 40 48	 movzx	 eax, WORD PTR [rax+72]
  0004f	25 ff 00 00 00	 and	 eax, 255		; 000000ffH
  00054	b9 01 00 00 00	 mov	 ecx, 1
  00059	48 6b c9 13	 imul	 rcx, rcx, 19
  0005d	88 44 0c 10	 mov	 BYTE PTR work$[rsp+rcx], al

; 3936 :     work[21]    = (dev->ctce_rccuu  & 0x0FF);   // (set Outbound IID)

  00061	48 8b 84 24 d0
	00 00 00	 mov	 rax, QWORD PTR dev$[rsp]
  00069	0f b7 80 64 07
	00 00		 movzx	 eax, WORD PTR [rax+1892]
  00070	25 ff 00 00 00	 and	 eax, 255		; 000000ffH
  00075	b9 01 00 00 00	 mov	 ecx, 1
  0007a	48 6b c9 15	 imul	 rcx, rcx, 21
  0007e	88 44 0c 10	 mov	 BYTE PTR work$[rsp+rcx], al

; 3937 :     work[31]    = (dev->devnum      & 0x0FF);   // (set Unit Address)

  00082	48 8b 84 24 d0
	00 00 00	 mov	 rax, QWORD PTR dev$[rsp]
  0008a	0f b7 40 48	 movzx	 eax, WORD PTR [rax+72]
  0008e	25 ff 00 00 00	 and	 eax, 255		; 000000ffH
  00093	b9 01 00 00 00	 mov	 ecx, 1
  00098	48 6b c9 1f	 imul	 rcx, rcx, 31
  0009c	88 44 0c 10	 mov	 BYTE PTR work$[rsp+rcx], al

; 3938 : 
; 3939 :     work[19+32] = (dev->ctce_rccuu  & 0x0FF);   // (set Inbound  IID)

  000a0	48 8b 84 24 d0
	00 00 00	 mov	 rax, QWORD PTR dev$[rsp]
  000a8	0f b7 80 64 07
	00 00		 movzx	 eax, WORD PTR [rax+1892]
  000af	25 ff 00 00 00	 and	 eax, 255		; 000000ffH
  000b4	b9 01 00 00 00	 mov	 ecx, 1
  000b9	48 6b c9 33	 imul	 rcx, rcx, 51		; 00000033H
  000bd	88 44 0c 10	 mov	 BYTE PTR work$[rsp+rcx], al

; 3940 :     work[21+32] = (dev->devnum      & 0x0FF);   // (set Outbound IID)

  000c1	48 8b 84 24 d0
	00 00 00	 mov	 rax, QWORD PTR dev$[rsp]
  000c9	0f b7 40 48	 movzx	 eax, WORD PTR [rax+72]
  000cd	25 ff 00 00 00	 and	 eax, 255		; 000000ffH
  000d2	b9 01 00 00 00	 mov	 ecx, 1
  000d7	48 6b c9 35	 imul	 rcx, rcx, 53		; 00000035H
  000db	88 44 0c 10	 mov	 BYTE PTR work$[rsp+rcx], al

; 3941 :     work[31+32] = (dev->ctce_rccuu  & 0x0FF);   // (set Unit Address)

  000df	48 8b 84 24 d0
	00 00 00	 mov	 rax, QWORD PTR dev$[rsp]
  000e7	0f b7 80 64 07
	00 00		 movzx	 eax, WORD PTR [rax+1892]
  000ee	25 ff 00 00 00	 and	 eax, 255		; 000000ffH
  000f3	b9 01 00 00 00	 mov	 ecx, 1
  000f8	48 6b c9 3f	 imul	 rcx, rcx, 63		; 0000003fH
  000fc	88 44 0c 10	 mov	 BYTE PTR work$[rsp+rcx], al

; 3942 : 
; 3943 :     // Finally, copy the work area into the caller's buffer.
; 3944 :     RCD_len = bufsz < (int) sizeof( work ) ? bufsz : (int) sizeof( work );

  00100	81 bc 24 e0 00
	00 00 84 00 00
	00		 cmp	 DWORD PTR bufsz$[rsp], 132 ; 00000084H
  0010b	7d 0c		 jge	 SHORT $LN3@CTCE_Build
  0010d	8b 84 24 e0 00
	00 00		 mov	 eax, DWORD PTR bufsz$[rsp]
  00114	89 04 24	 mov	 DWORD PTR tv140[rsp], eax
  00117	eb 07		 jmp	 SHORT $LN4@CTCE_Build
$LN3@CTCE_Build:
  00119	c7 04 24 84 00
	00 00		 mov	 DWORD PTR tv140[rsp], 132 ; 00000084H
$LN4@CTCE_Build:
  00120	8b 04 24	 mov	 eax, DWORD PTR tv140[rsp]
  00123	89 44 24 04	 mov	 DWORD PTR RCD_len$[rsp], eax

; 3945 :     memcpy( buffer, work, RCD_len );

  00127	48 63 44 24 04	 movsxd	 rax, DWORD PTR RCD_len$[rsp]
  0012c	48 8d 4c 24 10	 lea	 rcx, QWORD PTR work$[rsp]
  00131	48 8b bc 24 d8
	00 00 00	 mov	 rdi, QWORD PTR buffer$[rsp]
  00139	48 8b f1	 mov	 rsi, rcx
  0013c	48 8b c8	 mov	 rcx, rax
  0013f	f3 a4		 rep movsb

; 3946 : 
; 3947 :     // Return the number of bytes we provided.
; 3948 :     return RCD_len;

  00141	8b 44 24 04	 mov	 eax, DWORD PTR RCD_len$[rsp]

; 3949 : 
; 3950 : } // CTCE_Build_RCD

  00145	48 8b 8c 24 a0
	00 00 00	 mov	 rcx, QWORD PTR __$ArrayPad$[rsp]
  0014d	48 33 cc	 xor	 rcx, rsp
  00150	e8 00 00 00 00	 call	 __security_check_cookie
  00155	48 81 c4 b8 00
	00 00		 add	 rsp, 184		; 000000b8H
  0015c	5f		 pop	 rdi
  0015d	5e		 pop	 rsi
  0015e	c3		 ret	 0
CTCE_Build_RCD ENDP
_TEXT	ENDS
; Function compile flags: /Odtp
; File C:\papa\MyGit\hyperion-zvector\ctcadpt.c
_TEXT	SEGMENT
tv81 = 96
tv85 = 100
rc$ = 104
argv$ = 112
tv64 = 128
tv77 = 136
devnum$ = 144
__$ArrayPad$ = 152
dev$ = 176
CTCE_Recovery PROC

; 3834 : {

  00000	48 89 4c 24 08	 mov	 QWORD PTR [rsp+8], rcx
  00005	48 81 ec a8 00
	00 00		 sub	 rsp, 168		; 000000a8H
  0000c	48 8b 05 00 00
	00 00		 mov	 rax, QWORD PTR __security_cookie
  00013	48 33 c4	 xor	 rax, rsp
  00016	48 89 84 24 98
	00 00 00	 mov	 QWORD PTR __$ArrayPad$[rsp], rax

; 3835 :     char      devnum[7];                                   // devnum to be recovered
; 3836 :     char     *argv[] = { "DEVINIT", ( char* )&devnum };    // to be passed to  devinit_cmd

  0001e	48 8d 05 00 00
	00 00		 lea	 rax, OFFSET FLAT:$SG170479
  00025	48 89 44 24 70	 mov	 QWORD PTR argv$[rsp], rax
  0002a	48 8d 84 24 90
	00 00 00	 lea	 rax, QWORD PTR devnum$[rsp]
  00032	48 89 44 24 78	 mov	 QWORD PTR argv$[rsp+8], rax

; 3837 :     int       rc;                                          // Return Code from devinit_cmd
; 3838 : 
; 3839 :     MSGBUF( devnum, "%1d:%04X", CTCE_DEVNUM( dev ) );

  00037	48 8b 84 24 b0
	00 00 00	 mov	 rax, QWORD PTR dev$[rsp]
  0003f	0f b7 40 48	 movzx	 eax, WORD PTR [rax+72]
  00043	48 8b 8c 24 b0
	00 00 00	 mov	 rcx, QWORD PTR dev$[rsp]
  0004b	0f b7 49 44	 movzx	 ecx, WORD PTR [rcx+68]
  0004f	d1 f9		 sar	 ecx, 1
  00051	89 44 24 20	 mov	 DWORD PTR [rsp+32], eax
  00055	44 8b c9	 mov	 r9d, ecx
  00058	4c 8d 05 00 00
	00 00		 lea	 r8, OFFSET FLAT:$SG170480
  0005f	ba 07 00 00 00	 mov	 edx, 7
  00064	48 8d 8c 24 90
	00 00 00	 lea	 rcx, QWORD PTR devnum$[rsp]
  0006c	ff 15 00 00 00
	00		 call	 QWORD PTR __imp_w32_snprintf

; 3840 :     WRMSG( HHC05086, "I",  // CTCE: Recovery is about to issue Hercules command: %s %s"

  00072	b8 08 00 00 00	 mov	 eax, 8
  00077	48 6b c0 01	 imul	 rax, rax, 1
  0007b	48 89 84 24 80
	00 00 00	 mov	 QWORD PTR tv64[rsp], rax
  00083	b9 08 00 00 00	 mov	 ecx, 8
  00088	48 6b c9 00	 imul	 rcx, rcx, 0
  0008c	48 89 8c 24 88
	00 00 00	 mov	 QWORD PTR tv77[rsp], rcx
  00094	48 8b 94 24 b0
	00 00 00	 mov	 rdx, QWORD PTR dev$[rsp]
  0009c	0f b7 52 48	 movzx	 edx, WORD PTR [rdx+72]
  000a0	89 54 24 60	 mov	 DWORD PTR tv81[rsp], edx
  000a4	4c 8b 84 24 b0
	00 00 00	 mov	 r8, QWORD PTR dev$[rsp]
  000ac	45 0f b7 40 44	 movzx	 r8d, WORD PTR [r8+68]
  000b1	41 d1 f8	 sar	 r8d, 1
  000b4	44 89 44 24 64	 mov	 DWORD PTR tv85[rsp], r8d
  000b9	b9 01 00 00 00	 mov	 ecx, 1
  000be	ff 15 00 00 00
	00		 call	 QWORD PTR __imp___acrt_iob_func
  000c4	48 8b 8c 24 80
	00 00 00	 mov	 rcx, QWORD PTR tv64[rsp]
  000cc	48 8b 4c 0c 70	 mov	 rcx, QWORD PTR argv$[rsp+rcx]
  000d1	48 89 4c 24 50	 mov	 QWORD PTR [rsp+80], rcx
  000d6	48 8b 8c 24 88
	00 00 00	 mov	 rcx, QWORD PTR tv77[rsp]
  000de	48 8b 4c 0c 70	 mov	 rcx, QWORD PTR argv$[rsp+rcx]
  000e3	48 89 4c 24 48	 mov	 QWORD PTR [rsp+72], rcx
  000e8	8b 4c 24 60	 mov	 ecx, DWORD PTR tv81[rsp]
  000ec	89 4c 24 40	 mov	 DWORD PTR [rsp+64], ecx
  000f0	8b 4c 24 64	 mov	 ecx, DWORD PTR tv85[rsp]
  000f4	89 4c 24 38	 mov	 DWORD PTR [rsp+56], ecx
  000f8	48 8d 0d 00 00
	00 00		 lea	 rcx, OFFSET FLAT:$SG170481
  000ff	48 89 4c 24 30	 mov	 QWORD PTR [rsp+48], rcx
  00104	48 8d 0d 00 00
	00 00		 lea	 rcx, OFFSET FLAT:$SG170482
  0010b	48 89 4c 24 28	 mov	 QWORD PTR [rsp+40], rcx
  00110	48 89 44 24 20	 mov	 QWORD PTR [rsp+32], rax
  00115	41 b9 03 00 00
	00		 mov	 r9d, 3
  0011b	4c 8d 05 00 00
	00 00		 lea	 r8, OFFSET FLAT:$SG170483
  00122	ba 01 0f 00 00	 mov	 edx, 3841		; 00000f01H
  00127	48 8d 0d 00 00
	00 00		 lea	 rcx, OFFSET FLAT:$SG170484
  0012e	ff 15 00 00 00
	00		 call	 QWORD PTR __imp_fwritemsg

; 3841 :         CTCX_DEVNUM( dev ), argv[0], argv[1] );
; 3842 :     release_lock( &dev->lock );

  00134	48 8b 84 24 b0
	00 00 00	 mov	 rax, QWORD PTR dev$[rsp]
  0013c	48 83 c0 38	 add	 rax, 56			; 00000038H
  00140	48 8d 15 00 00
	00 00		 lea	 rdx, OFFSET FLAT:$SG170485
  00147	48 8b c8	 mov	 rcx, rax
  0014a	ff 15 00 00 00
	00		 call	 QWORD PTR __imp_hthread_release_lock

; 3843 :     rc = devinit_cmd( sizeof( argv ) / sizeof( argv[0] ), argv, NULL );

  00150	45 33 c0	 xor	 r8d, r8d
  00153	48 8d 54 24 70	 lea	 rdx, QWORD PTR argv$[rsp]
  00158	b9 02 00 00 00	 mov	 ecx, 2
  0015d	e8 00 00 00 00	 call	 devinit_cmd
  00162	89 44 24 68	 mov	 DWORD PTR rc$[rsp], eax

; 3844 :     obtain_lock( &dev->lock );

  00166	48 8b 84 24 b0
	00 00 00	 mov	 rax, QWORD PTR dev$[rsp]
  0016e	48 83 c0 38	 add	 rax, 56			; 00000038H
  00172	48 8d 15 00 00
	00 00		 lea	 rdx, OFFSET FLAT:$SG170486
  00179	48 8b c8	 mov	 rcx, rax
  0017c	ff 15 00 00 00
	00		 call	 QWORD PTR __imp_hthread_obtain_lock

; 3845 :     return rc;

  00182	8b 44 24 68	 mov	 eax, DWORD PTR rc$[rsp]

; 3846 : 
; 3847 : } // CTCE_Recovery

  00186	48 8b 8c 24 98
	00 00 00	 mov	 rcx, QWORD PTR __$ArrayPad$[rsp]
  0018e	48 33 cc	 xor	 rcx, rsp
  00191	e8 00 00 00 00	 call	 __security_check_cookie
  00196	48 81 c4 a8 00
	00 00		 add	 rsp, 168		; 000000a8H
  0019d	c3		 ret	 0
CTCE_Recovery ENDP
_TEXT	ENDS
; Function compile flags: /Odtp
; File C:\papa\MyGit\hyperion-zvector\ctcadpt.c
_TEXT	SEGMENT
rc$ = 144
pSokBuf$ = 152
tv79 = 160
tv128 = 164
tv138 = 168
tv142 = 172
tv147 = 176
tv151 = 180
tv90 = 184
tv133 = 192
dev$ = 224
fd$ = 232
CTCE_Write_Init PROC

; 3801 : {

  00000	89 54 24 10	 mov	 DWORD PTR [rsp+16], edx
  00004	48 89 4c 24 08	 mov	 QWORD PTR [rsp+8], rcx
  00009	48 81 ec d8 00
	00 00		 sub	 rsp, 216		; 000000d8H

; 3802 :     int                 rc;                           // Return Code
; 3803 :     CTCE_SOKPFX*        pSokBuf;                      // The buffer to be written
; 3804 : 
; 3805 :     pSokBuf = (CTCE_SOKPFX*) dev->buf;

  00010	48 8b 84 24 e0
	00 00 00	 mov	 rax, QWORD PTR dev$[rsp]
  00018	48 8b 80 c8 01
	00 00		 mov	 rax, QWORD PTR [rax+456]
  0001f	48 89 84 24 98
	00 00 00	 mov	 QWORD PTR pSokBuf$[rsp], rax

; 3806 :     pSokBuf->ctce_lport  = dev->ctce_lport;

  00027	48 8b 84 24 98
	00 00 00	 mov	 rax, QWORD PTR pSokBuf$[rsp]
  0002f	48 8b 8c 24 e0
	00 00 00	 mov	 rcx, QWORD PTR dev$[rsp]
  00037	0f b7 89 50 07
	00 00		 movzx	 ecx, WORD PTR [rcx+1872]
  0003e	66 89 48 02	 mov	 WORD PTR [rax+2], cx

; 3807 :     pSokBuf->ctce_ipaddr = dev->ctce_ipaddr;

  00042	48 8b 84 24 e0
	00 00 00	 mov	 rax, QWORD PTR dev$[rsp]
  0004a	8b 80 5c 07 00
	00		 mov	 eax, DWORD PTR [rax+1884]
  00050	48 8b 8c 24 98
	00 00 00	 mov	 rcx, QWORD PTR pSokBuf$[rsp]
  00058	89 41 04	 mov	 DWORD PTR [rcx+4], eax

; 3808 :     pSokBuf->SndLen      = dev->ctceSndSml;

  0005b	48 8b 84 24 98
	00 00 00	 mov	 rax, QWORD PTR pSokBuf$[rsp]
  00063	48 8b 8c 24 e0
	00 00 00	 mov	 rcx, QWORD PTR dev$[rsp]
  0006b	0f b7 89 30 07
	00 00		 movzx	 ecx, WORD PTR [rcx+1840]
  00072	66 89 48 08	 mov	 WORD PTR [rax+8], cx

; 3809 :     pSokBuf->devnum      = dev->devnum;

  00076	48 8b 84 24 98
	00 00 00	 mov	 rax, QWORD PTR pSokBuf$[rsp]
  0007e	48 8b 8c 24 e0
	00 00 00	 mov	 rcx, QWORD PTR dev$[rsp]
  00086	0f b7 49 48	 movzx	 ecx, WORD PTR [rcx+72]
  0008a	66 89 48 0a	 mov	 WORD PTR [rax+10], cx

; 3810 :     pSokBuf->ssid        = dev->ssid;

  0008e	48 8b 84 24 98
	00 00 00	 mov	 rax, QWORD PTR pSokBuf$[rsp]
  00096	48 8b 8c 24 e0
	00 00 00	 mov	 rcx, QWORD PTR dev$[rsp]
  0009e	0f b7 49 44	 movzx	 ecx, WORD PTR [rcx+68]
  000a2	66 89 48 0c	 mov	 WORD PTR [rax+12], cx

; 3811 :     pSokBuf->ctce_herc   = ( dev->ctcefd > 0 ) ? CTCE_HERC_RECV : 0 ; // 0 = we're not yet receiving

  000a6	48 8b 84 24 e0
	00 00 00	 mov	 rax, QWORD PTR dev$[rsp]
  000ae	83 b8 3c 07 00
	00 00		 cmp	 DWORD PTR [rax+1852], 0
  000b5	7e 0d		 jle	 SHORT $LN5@CTCE_Write
  000b7	c7 84 24 a0 00
	00 00 01 80 00
	00		 mov	 DWORD PTR tv79[rsp], 32769 ; 00008001H
  000c2	eb 0b		 jmp	 SHORT $LN6@CTCE_Write
$LN5@CTCE_Write:
  000c4	c7 84 24 a0 00
	00 00 00 00 00
	00		 mov	 DWORD PTR tv79[rsp], 0
$LN6@CTCE_Write:
  000cf	48 8b 84 24 98
	00 00 00	 mov	 rax, QWORD PTR pSokBuf$[rsp]
  000d7	0f b7 8c 24 a0
	00 00 00	 movzx	 ecx, WORD PTR tv79[rsp]
  000df	66 89 08	 mov	 WORD PTR [rax], cx

; 3812 :     if ( ( rc = write_socket( fd, pSokBuf, pSokBuf->SndLen ) ) == pSokBuf->SndLen )

  000e2	48 8b 84 24 98
	00 00 00	 mov	 rax, QWORD PTR pSokBuf$[rsp]
  000ea	0f b7 40 08	 movzx	 eax, WORD PTR [rax+8]
  000ee	44 8b c0	 mov	 r8d, eax
  000f1	48 8b 94 24 98
	00 00 00	 mov	 rdx, QWORD PTR pSokBuf$[rsp]
  000f9	8b 8c 24 e8 00
	00 00		 mov	 ecx, DWORD PTR fd$[rsp]
  00100	ff 15 00 00 00
	00		 call	 QWORD PTR __imp_write_socket
  00106	89 84 24 90 00
	00 00		 mov	 DWORD PTR rc$[rsp], eax
  0010d	48 8b 84 24 98
	00 00 00	 mov	 rax, QWORD PTR pSokBuf$[rsp]
  00115	0f b7 40 08	 movzx	 eax, WORD PTR [rax+8]
  00119	39 84 24 90 00
	00 00		 cmp	 DWORD PTR rc$[rsp], eax
  00120	75 10		 jne	 SHORT $LN2@CTCE_Write

; 3813 :     {
; 3814 :         rc = 0;

  00122	c7 84 24 90 00
	00 00 00 00 00
	00		 mov	 DWORD PTR rc$[rsp], 0

; 3815 :     }

  0012d	e9 91 01 00 00	 jmp	 $LN3@CTCE_Write
$LN2@CTCE_Write:

; 3816 :     else
; 3817 :     {
; 3818 :         close_socket( fd );

  00132	8b 8c 24 e8 00
	00 00		 mov	 ecx, DWORD PTR fd$[rsp]
  00139	ff 15 00 00 00
	00		 call	 QWORD PTR __imp_w32_close_socket

; 3819 :         WRMSG( HHC05075, "E",  // CTCE: Initial write_socket :%d -> %1d:%04X=%s:%d ; rc=%d!=%d ; error = %s"

  0013f	ff 15 00 00 00
	00		 call	 QWORD PTR __imp_WSAGetLastError
  00145	8b c8		 mov	 ecx, eax
  00147	ff 15 00 00 00
	00		 call	 QWORD PTR __imp_w32_strerror
  0014d	48 89 84 24 b8
	00 00 00	 mov	 QWORD PTR tv90[rsp], rax
  00155	48 8b 8c 24 98
	00 00 00	 mov	 rcx, QWORD PTR pSokBuf$[rsp]
  0015d	0f b7 49 08	 movzx	 ecx, WORD PTR [rcx+8]
  00161	89 8c 24 a4 00
	00 00		 mov	 DWORD PTR tv128[rsp], ecx
  00168	48 8b 94 24 e0
	00 00 00	 mov	 rdx, QWORD PTR dev$[rsp]
  00170	8b 8a 5c 07 00
	00		 mov	 ecx, DWORD PTR [rdx+1884]
  00176	ff 15 00 00 00
	00		 call	 QWORD PTR __imp_inet_ntoa
  0017c	48 89 84 24 c0
	00 00 00	 mov	 QWORD PTR tv133[rsp], rax
  00184	48 8b 8c 24 e0
	00 00 00	 mov	 rcx, QWORD PTR dev$[rsp]
  0018c	0f b7 89 64 07
	00 00		 movzx	 ecx, WORD PTR [rcx+1892]
  00193	89 8c 24 a8 00
	00 00		 mov	 DWORD PTR tv138[rsp], ecx
  0019a	48 8b 94 24 e0
	00 00 00	 mov	 rdx, QWORD PTR dev$[rsp]
  001a2	0f b7 52 44	 movzx	 edx, WORD PTR [rdx+68]
  001a6	d1 fa		 sar	 edx, 1
  001a8	89 94 24 ac 00
	00 00		 mov	 DWORD PTR tv142[rsp], edx
  001af	4c 8b 84 24 e0
	00 00 00	 mov	 r8, QWORD PTR dev$[rsp]
  001b7	45 0f b7 40 48	 movzx	 r8d, WORD PTR [r8+72]
  001bc	44 89 84 24 b0
	00 00 00	 mov	 DWORD PTR tv147[rsp], r8d
  001c4	4c 8b 8c 24 e0
	00 00 00	 mov	 r9, QWORD PTR dev$[rsp]
  001cc	45 0f b7 49 44	 movzx	 r9d, WORD PTR [r9+68]
  001d1	41 d1 f9	 sar	 r9d, 1
  001d4	44 89 8c 24 b4
	00 00 00	 mov	 DWORD PTR tv151[rsp], r9d
  001dc	b9 01 00 00 00	 mov	 ecx, 1
  001e1	ff 15 00 00 00
	00		 call	 QWORD PTR __imp___acrt_iob_func
  001e7	48 8b 8c 24 b8
	00 00 00	 mov	 rcx, QWORD PTR tv90[rsp]
  001ef	48 89 8c 24 80
	00 00 00	 mov	 QWORD PTR [rsp+128], rcx
  001f7	8b 8c 24 a4 00
	00 00		 mov	 ecx, DWORD PTR tv128[rsp]
  001fe	89 4c 24 78	 mov	 DWORD PTR [rsp+120], ecx
  00202	8b 8c 24 90 00
	00 00		 mov	 ecx, DWORD PTR rc$[rsp]
  00209	89 4c 24 70	 mov	 DWORD PTR [rsp+112], ecx
  0020d	48 8b 8c 24 e0
	00 00 00	 mov	 rcx, QWORD PTR dev$[rsp]
  00215	8b 89 58 07 00
	00		 mov	 ecx, DWORD PTR [rcx+1880]
  0021b	89 4c 24 68	 mov	 DWORD PTR [rsp+104], ecx
  0021f	48 8b 8c 24 c0
	00 00 00	 mov	 rcx, QWORD PTR tv133[rsp]
  00227	48 89 4c 24 60	 mov	 QWORD PTR [rsp+96], rcx
  0022c	8b 8c 24 a8 00
	00 00		 mov	 ecx, DWORD PTR tv138[rsp]
  00233	89 4c 24 58	 mov	 DWORD PTR [rsp+88], ecx
  00237	8b 8c 24 ac 00
	00 00		 mov	 ecx, DWORD PTR tv142[rsp]
  0023e	89 4c 24 50	 mov	 DWORD PTR [rsp+80], ecx
  00242	48 8b 8c 24 e0
	00 00 00	 mov	 rcx, QWORD PTR dev$[rsp]
  0024a	8b 89 50 07 00
	00		 mov	 ecx, DWORD PTR [rcx+1872]
  00250	89 4c 24 48	 mov	 DWORD PTR [rsp+72], ecx
  00254	8b 8c 24 b0 00
	00 00		 mov	 ecx, DWORD PTR tv147[rsp]
  0025b	89 4c 24 40	 mov	 DWORD PTR [rsp+64], ecx
  0025f	8b 8c 24 b4 00
	00 00		 mov	 ecx, DWORD PTR tv151[rsp]
  00266	89 4c 24 38	 mov	 DWORD PTR [rsp+56], ecx
  0026a	48 8d 0d 00 00
	00 00		 lea	 rcx, OFFSET FLAT:$SG170466
  00271	48 89 4c 24 30	 mov	 QWORD PTR [rsp+48], rcx
  00276	48 8d 0d 00 00
	00 00		 lea	 rcx, OFFSET FLAT:$SG170467
  0027d	48 89 4c 24 28	 mov	 QWORD PTR [rsp+40], rcx
  00282	48 89 44 24 20	 mov	 QWORD PTR [rsp+32], rax
  00287	41 b9 03 00 00
	00		 mov	 r9d, 3
  0028d	4c 8d 05 00 00
	00 00		 lea	 r8, OFFSET FLAT:$SG170468
  00294	ba ed 0e 00 00	 mov	 edx, 3821		; 00000eedH
  00299	48 8d 0d 00 00
	00 00		 lea	 rcx, OFFSET FLAT:$SG170469
  002a0	ff 15 00 00 00
	00		 call	 QWORD PTR __imp_fwritemsg

; 3820 :             CTCX_DEVNUM( dev ), dev->ctce_lport, SSID_TO_LCSS( dev->ssid ),
; 3821 :             dev->ctce_rccuu, inet_ntoa( dev->ctce_ipaddr ), dev->ctce_rport, rc, pSokBuf->SndLen, strerror( HSO_errno ) );
; 3822 :         rc = -1;

  002a6	c7 84 24 90 00
	00 00 ff ff ff
	ff		 mov	 DWORD PTR rc$[rsp], -1

; 3823 :         CTCE_ERROR_CCWTRACE( dev );

  002b1	48 8b 84 24 e0
	00 00 00	 mov	 rax, QWORD PTR dev$[rsp]
  002b9	c7 80 68 07 00
	00 14 00 00 00	 mov	 DWORD PTR [rax+1896], 20
$LN3@CTCE_Write:

; 3824 :     }
; 3825 :     return rc;

  002c3	8b 84 24 90 00
	00 00		 mov	 eax, DWORD PTR rc$[rsp]

; 3826 : 
; 3827 : } // CTCE_Write_Init

  002ca	48 81 c4 d8 00
	00 00		 add	 rsp, 216		; 000000d8H
  002d1	c3		 ret	 0
CTCE_Write_Init ENDP
_TEXT	ENDS
; Function compile flags: /Odtp
; File C:\papa\MyGit\hyperion-zvector\ctcadpt.c
_TEXT	SEGMENT
fd$ = 112
so_value_1$ = 116
addrlen$ = 120
tv77 = 124
tv81 = 128
tv144 = 132
tv148 = 136
tv180 = 140
tv184 = 144
tv224 = 148
tv228 = 152
tv266 = 156
tv270 = 160
tv74 = 168
tv140 = 176
tv176 = 184
tv221 = 192
tv263 = 200
tv69 = 208
tv133 = 216
tv169 = 224
tv214 = 232
tv256 = 240
addr$ = 248
__$ArrayPad$ = 264
dev$ = 288
eCTCE_Sok_Use$ = 296
CTCE_Get_Socket PROC

; 3697 : {

  00000	89 54 24 10	 mov	 DWORD PTR [rsp+16], edx
  00004	48 89 4c 24 08	 mov	 QWORD PTR [rsp+8], rcx
  00009	57		 push	 rdi
  0000a	48 81 ec 10 01
	00 00		 sub	 rsp, 272		; 00000110H
  00011	48 8b 05 00 00
	00 00		 mov	 rax, QWORD PTR __security_cookie
  00018	48 33 c4	 xor	 rax, rsp
  0001b	48 89 84 24 08
	01 00 00	 mov	 QWORD PTR __$ArrayPad$[rsp], rax

; 3698 :     int                 fd;                           // socket file descriptor
; 3699 :     const int           so_value_1 = 1;               // argument for setsockopt

  00023	c7 44 24 74 01
	00 00 00	 mov	 DWORD PTR so_value_1$[rsp], 1

; 3700 :     struct sockaddr_in  addr;                         // socket address info
; 3701 :     socklen_t           addrlen;                      // as needed for getsockname() etc.
; 3702 : 
; 3703 : 
; 3704 :     // Obtain a new socket.
; 3705 :     if( ( fd = socket(AF_INET, SOCK_STREAM, 0) ) < 0 )

  0002b	45 33 c0	 xor	 r8d, r8d
  0002e	ba 01 00 00 00	 mov	 edx, 1
  00033	b9 02 00 00 00	 mov	 ecx, 2
  00038	ff 15 00 00 00
	00		 call	 QWORD PTR __imp_w32_socket
  0003e	89 44 24 70	 mov	 DWORD PTR fd$[rsp], eax
  00042	83 7c 24 70 00	 cmp	 DWORD PTR fd$[rsp], 0
  00047	0f 8d ed 00 00
	00		 jge	 $LN2@CTCE_Get_S

; 3706 :     {
; 3707 :         WRMSG( HHC05050, "E",  // CTCE: Error creating %s socket: %s"

  0004d	83 bc 24 28 01
	00 00 00	 cmp	 DWORD PTR eCTCE_Sok_Use$[rsp], 0
  00055	75 11		 jne	 SHORT $LN13@CTCE_Get_S
  00057	48 8d 05 00 00
	00 00		 lea	 rax, OFFSET FLAT:$SG170414
  0005e	48 89 84 24 a8
	00 00 00	 mov	 QWORD PTR tv74[rsp], rax
  00066	eb 0f		 jmp	 SHORT $LN14@CTCE_Get_S
$LN13@CTCE_Get_S:
  00068	48 8d 05 00 00
	00 00		 lea	 rax, OFFSET FLAT:$SG170415
  0006f	48 89 84 24 a8
	00 00 00	 mov	 QWORD PTR tv74[rsp], rax
$LN14@CTCE_Get_S:
  00077	ff 15 00 00 00
	00		 call	 QWORD PTR __imp_WSAGetLastError
  0007d	8b c8		 mov	 ecx, eax
  0007f	ff 15 00 00 00
	00		 call	 QWORD PTR __imp_w32_strerror
  00085	48 89 84 24 d0
	00 00 00	 mov	 QWORD PTR tv69[rsp], rax
  0008d	48 8b 8c 24 20
	01 00 00	 mov	 rcx, QWORD PTR dev$[rsp]
  00095	0f b7 49 48	 movzx	 ecx, WORD PTR [rcx+72]
  00099	89 4c 24 7c	 mov	 DWORD PTR tv77[rsp], ecx
  0009d	48 8b 94 24 20
	01 00 00	 mov	 rdx, QWORD PTR dev$[rsp]
  000a5	0f b7 52 44	 movzx	 edx, WORD PTR [rdx+68]
  000a9	d1 fa		 sar	 edx, 1
  000ab	89 94 24 80 00
	00 00		 mov	 DWORD PTR tv81[rsp], edx
  000b2	b9 01 00 00 00	 mov	 ecx, 1
  000b7	ff 15 00 00 00
	00		 call	 QWORD PTR __imp___acrt_iob_func
  000bd	48 8b 8c 24 d0
	00 00 00	 mov	 rcx, QWORD PTR tv69[rsp]
  000c5	48 89 4c 24 50	 mov	 QWORD PTR [rsp+80], rcx
  000ca	48 8b 8c 24 a8
	00 00 00	 mov	 rcx, QWORD PTR tv74[rsp]
  000d2	48 89 4c 24 48	 mov	 QWORD PTR [rsp+72], rcx
  000d7	8b 4c 24 7c	 mov	 ecx, DWORD PTR tv77[rsp]
  000db	89 4c 24 40	 mov	 DWORD PTR [rsp+64], ecx
  000df	8b 8c 24 80 00
	00 00		 mov	 ecx, DWORD PTR tv81[rsp]
  000e6	89 4c 24 38	 mov	 DWORD PTR [rsp+56], ecx
  000ea	48 8d 0d 00 00
	00 00		 lea	 rcx, OFFSET FLAT:$SG170416
  000f1	48 89 4c 24 30	 mov	 QWORD PTR [rsp+48], rcx
  000f6	48 8d 0d 00 00
	00 00		 lea	 rcx, OFFSET FLAT:$SG170417
  000fd	48 89 4c 24 28	 mov	 QWORD PTR [rsp+40], rcx
  00102	48 89 44 24 20	 mov	 QWORD PTR [rsp+32], rax
  00107	41 b9 03 00 00
	00		 mov	 r9d, 3
  0010d	4c 8d 05 00 00
	00 00		 lea	 r8, OFFSET FLAT:$SG170418
  00114	ba 7d 0e 00 00	 mov	 edx, 3709		; 00000e7dH
  00119	48 8d 0d 00 00
	00 00		 lea	 rcx, OFFSET FLAT:$SG170419
  00120	ff 15 00 00 00
	00		 call	 QWORD PTR __imp_fwritemsg

; 3708 :             CTCX_DEVNUM( dev ), (eCTCE_Sok_Use == CTCE_SOK_LIS) ? "listen" : "connect",
; 3709 :             strerror( HSO_errno ) );
; 3710 :         close_socket( fd );

  00126	8b 4c 24 70	 mov	 ecx, DWORD PTR fd$[rsp]
  0012a	ff 15 00 00 00
	00		 call	 QWORD PTR __imp_w32_close_socket

; 3711 :         return -1;

  00130	b8 ff ff ff ff	 mov	 eax, -1
  00135	e9 9c 05 00 00	 jmp	 $LN1@CTCE_Get_S
$LN2@CTCE_Get_S:

; 3712 :     }
; 3713 : 
; 3714 :     // Allow previous instance of the socket address to be reused.
; 3715 :     if ( setsockopt( fd, SOL_SOCKET, SO_REUSEADDR,
; 3716 :         ( GETSET_SOCKOPT_T* )&so_value_1, sizeof( so_value_1 ) ) < 0 )

  0013a	48 63 44 24 70	 movsxd	 rax, DWORD PTR fd$[rsp]
  0013f	c7 44 24 20 04
	00 00 00	 mov	 DWORD PTR [rsp+32], 4
  00147	4c 8d 4c 24 74	 lea	 r9, QWORD PTR so_value_1$[rsp]
  0014c	41 b8 04 00 00
	00		 mov	 r8d, 4
  00152	ba ff ff 00 00	 mov	 edx, 65535		; 0000ffffH
  00157	48 8b c8	 mov	 rcx, rax
  0015a	ff 15 00 00 00
	00		 call	 QWORD PTR __imp_setsockopt
  00160	85 c0		 test	 eax, eax
  00162	0f 8d 11 01 00
	00		 jge	 $LN3@CTCE_Get_S

; 3717 :     {
; 3718 :         WRMSG( HHC05051, "E",  // CTCE: %s error for %s socket (port %d): %s"

  00168	83 bc 24 28 01
	00 00 00	 cmp	 DWORD PTR eCTCE_Sok_Use$[rsp], 0
  00170	75 11		 jne	 SHORT $LN15@CTCE_Get_S
  00172	48 8d 05 00 00
	00 00		 lea	 rax, OFFSET FLAT:$SG170421
  00179	48 89 84 24 b0
	00 00 00	 mov	 QWORD PTR tv140[rsp], rax
  00181	eb 0f		 jmp	 SHORT $LN16@CTCE_Get_S
$LN15@CTCE_Get_S:
  00183	48 8d 05 00 00
	00 00		 lea	 rax, OFFSET FLAT:$SG170422
  0018a	48 89 84 24 b0
	00 00 00	 mov	 QWORD PTR tv140[rsp], rax
$LN16@CTCE_Get_S:
  00192	ff 15 00 00 00
	00		 call	 QWORD PTR __imp_WSAGetLastError
  00198	8b c8		 mov	 ecx, eax
  0019a	ff 15 00 00 00
	00		 call	 QWORD PTR __imp_w32_strerror
  001a0	48 89 84 24 d8
	00 00 00	 mov	 QWORD PTR tv133[rsp], rax
  001a8	48 8b 8c 24 20
	01 00 00	 mov	 rcx, QWORD PTR dev$[rsp]
  001b0	0f b7 49 48	 movzx	 ecx, WORD PTR [rcx+72]
  001b4	89 8c 24 84 00
	00 00		 mov	 DWORD PTR tv144[rsp], ecx
  001bb	48 8b 94 24 20
	01 00 00	 mov	 rdx, QWORD PTR dev$[rsp]
  001c3	0f b7 52 44	 movzx	 edx, WORD PTR [rdx+68]
  001c7	d1 fa		 sar	 edx, 1
  001c9	89 94 24 88 00
	00 00		 mov	 DWORD PTR tv148[rsp], edx
  001d0	b9 01 00 00 00	 mov	 ecx, 1
  001d5	ff 15 00 00 00
	00		 call	 QWORD PTR __imp___acrt_iob_func
  001db	48 8b 8c 24 d8
	00 00 00	 mov	 rcx, QWORD PTR tv133[rsp]
  001e3	48 89 4c 24 60	 mov	 QWORD PTR [rsp+96], rcx
  001e8	48 8b 8c 24 20
	01 00 00	 mov	 rcx, QWORD PTR dev$[rsp]
  001f0	8b 89 50 07 00
	00		 mov	 ecx, DWORD PTR [rcx+1872]
  001f6	89 4c 24 58	 mov	 DWORD PTR [rsp+88], ecx
  001fa	48 8b 8c 24 b0
	00 00 00	 mov	 rcx, QWORD PTR tv140[rsp]
  00202	48 89 4c 24 50	 mov	 QWORD PTR [rsp+80], rcx
  00207	48 8d 0d 00 00
	00 00		 lea	 rcx, OFFSET FLAT:$SG170423
  0020e	48 89 4c 24 48	 mov	 QWORD PTR [rsp+72], rcx
  00213	8b 8c 24 84 00
	00 00		 mov	 ecx, DWORD PTR tv144[rsp]
  0021a	89 4c 24 40	 mov	 DWORD PTR [rsp+64], ecx
  0021e	8b 8c 24 88 00
	00 00		 mov	 ecx, DWORD PTR tv148[rsp]
  00225	89 4c 24 38	 mov	 DWORD PTR [rsp+56], ecx
  00229	48 8d 0d 00 00
	00 00		 lea	 rcx, OFFSET FLAT:$SG170424
  00230	48 89 4c 24 30	 mov	 QWORD PTR [rsp+48], rcx
  00235	48 8d 0d 00 00
	00 00		 lea	 rcx, OFFSET FLAT:$SG170425
  0023c	48 89 4c 24 28	 mov	 QWORD PTR [rsp+40], rcx
  00241	48 89 44 24 20	 mov	 QWORD PTR [rsp+32], rax
  00246	41 b9 03 00 00
	00		 mov	 r9d, 3
  0024c	4c 8d 05 00 00
	00 00		 lea	 r8, OFFSET FLAT:$SG170426
  00253	ba 89 0e 00 00	 mov	 edx, 3721		; 00000e89H
  00258	48 8d 0d 00 00
	00 00		 lea	 rcx, OFFSET FLAT:$SG170427
  0025f	ff 15 00 00 00
	00		 call	 QWORD PTR __imp_fwritemsg

; 3719 :             CTCX_DEVNUM( dev ), "SO_REUSEADDR",
; 3720 :             (eCTCE_Sok_Use == CTCE_SOK_LIS) ? "listen" : "connect",
; 3721 :             dev->ctce_lport, strerror( HSO_errno ) );
; 3722 :         close_socket( fd );

  00265	8b 4c 24 70	 mov	 ecx, DWORD PTR fd$[rsp]
  00269	ff 15 00 00 00
	00		 call	 QWORD PTR __imp_w32_close_socket

; 3723 :         return -1;

  0026f	b8 ff ff ff ff	 mov	 eax, -1
  00274	e9 5d 04 00 00	 jmp	 $LN1@CTCE_Get_S
$LN3@CTCE_Get_S:

; 3724 :     }
; 3725 : 
; 3726 : #if defined(CTCE_DISABLE_NAGLE)
; 3727 :     if ( eCTCE_Sok_Use == CTCE_SOK_CON )

  00279	83 bc 24 28 01
	00 00 01	 cmp	 DWORD PTR eCTCE_Sok_Use$[rsp], 1
  00281	0f 85 3f 01 00
	00		 jne	 $LN4@CTCE_Get_S

; 3728 :     {
; 3729 : 
; 3730 :         // Disable the NAGLE protocol as we need responsiveness more than throughput.
; 3731 :         if ( setsockopt( fd, IPPROTO_TCP, TCP_NODELAY,
; 3732 :             ( GETSET_SOCKOPT_T* )&so_value_1, sizeof( so_value_1 ) ) < 0 )

  00287	48 63 44 24 70	 movsxd	 rax, DWORD PTR fd$[rsp]
  0028c	c7 44 24 20 04
	00 00 00	 mov	 DWORD PTR [rsp+32], 4
  00294	4c 8d 4c 24 74	 lea	 r9, QWORD PTR so_value_1$[rsp]
  00299	41 b8 01 00 00
	00		 mov	 r8d, 1
  0029f	ba 06 00 00 00	 mov	 edx, 6
  002a4	48 8b c8	 mov	 rcx, rax
  002a7	ff 15 00 00 00
	00		 call	 QWORD PTR __imp_setsockopt
  002ad	85 c0		 test	 eax, eax
  002af	0f 8d 11 01 00
	00		 jge	 $LN5@CTCE_Get_S

; 3733 :         {
; 3734 :             WRMSG( HHC05051, "E",  // CTCE: %s error for %s socket (port %d): %s"

  002b5	83 bc 24 28 01
	00 00 00	 cmp	 DWORD PTR eCTCE_Sok_Use$[rsp], 0
  002bd	75 11		 jne	 SHORT $LN17@CTCE_Get_S
  002bf	48 8d 05 00 00
	00 00		 lea	 rax, OFFSET FLAT:$SG170430
  002c6	48 89 84 24 b8
	00 00 00	 mov	 QWORD PTR tv176[rsp], rax
  002ce	eb 0f		 jmp	 SHORT $LN18@CTCE_Get_S
$LN17@CTCE_Get_S:
  002d0	48 8d 05 00 00
	00 00		 lea	 rax, OFFSET FLAT:$SG170431
  002d7	48 89 84 24 b8
	00 00 00	 mov	 QWORD PTR tv176[rsp], rax
$LN18@CTCE_Get_S:
  002df	ff 15 00 00 00
	00		 call	 QWORD PTR __imp_WSAGetLastError
  002e5	8b c8		 mov	 ecx, eax
  002e7	ff 15 00 00 00
	00		 call	 QWORD PTR __imp_w32_strerror
  002ed	48 89 84 24 e0
	00 00 00	 mov	 QWORD PTR tv169[rsp], rax
  002f5	48 8b 8c 24 20
	01 00 00	 mov	 rcx, QWORD PTR dev$[rsp]
  002fd	0f b7 49 48	 movzx	 ecx, WORD PTR [rcx+72]
  00301	89 8c 24 8c 00
	00 00		 mov	 DWORD PTR tv180[rsp], ecx
  00308	48 8b 94 24 20
	01 00 00	 mov	 rdx, QWORD PTR dev$[rsp]
  00310	0f b7 52 44	 movzx	 edx, WORD PTR [rdx+68]
  00314	d1 fa		 sar	 edx, 1
  00316	89 94 24 90 00
	00 00		 mov	 DWORD PTR tv184[rsp], edx
  0031d	b9 01 00 00 00	 mov	 ecx, 1
  00322	ff 15 00 00 00
	00		 call	 QWORD PTR __imp___acrt_iob_func
  00328	48 8b 8c 24 e0
	00 00 00	 mov	 rcx, QWORD PTR tv169[rsp]
  00330	48 89 4c 24 60	 mov	 QWORD PTR [rsp+96], rcx
  00335	48 8b 8c 24 20
	01 00 00	 mov	 rcx, QWORD PTR dev$[rsp]
  0033d	8b 89 50 07 00
	00		 mov	 ecx, DWORD PTR [rcx+1872]
  00343	89 4c 24 58	 mov	 DWORD PTR [rsp+88], ecx
  00347	48 8b 8c 24 b8
	00 00 00	 mov	 rcx, QWORD PTR tv176[rsp]
  0034f	48 89 4c 24 50	 mov	 QWORD PTR [rsp+80], rcx
  00354	48 8d 0d 00 00
	00 00		 lea	 rcx, OFFSET FLAT:$SG170432
  0035b	48 89 4c 24 48	 mov	 QWORD PTR [rsp+72], rcx
  00360	8b 8c 24 8c 00
	00 00		 mov	 ecx, DWORD PTR tv180[rsp]
  00367	89 4c 24 40	 mov	 DWORD PTR [rsp+64], ecx
  0036b	8b 8c 24 90 00
	00 00		 mov	 ecx, DWORD PTR tv184[rsp]
  00372	89 4c 24 38	 mov	 DWORD PTR [rsp+56], ecx
  00376	48 8d 0d 00 00
	00 00		 lea	 rcx, OFFSET FLAT:$SG170433
  0037d	48 89 4c 24 30	 mov	 QWORD PTR [rsp+48], rcx
  00382	48 8d 0d 00 00
	00 00		 lea	 rcx, OFFSET FLAT:$SG170434
  00389	48 89 4c 24 28	 mov	 QWORD PTR [rsp+40], rcx
  0038e	48 89 44 24 20	 mov	 QWORD PTR [rsp+32], rax
  00393	41 b9 03 00 00
	00		 mov	 r9d, 3
  00399	4c 8d 05 00 00
	00 00		 lea	 r8, OFFSET FLAT:$SG170435
  003a0	ba 99 0e 00 00	 mov	 edx, 3737		; 00000e99H
  003a5	48 8d 0d 00 00
	00 00		 lea	 rcx, OFFSET FLAT:$SG170436
  003ac	ff 15 00 00 00
	00		 call	 QWORD PTR __imp_fwritemsg

; 3735 :                 CTCX_DEVNUM( dev ), "TCP_NODELAY",
; 3736 :                 (eCTCE_Sok_Use == CTCE_SOK_LIS) ? "listen" : "connect",
; 3737 :                 dev->ctce_lport, strerror( HSO_errno ) );
; 3738 :             close_socket( fd );

  003b2	8b 4c 24 70	 mov	 ecx, DWORD PTR fd$[rsp]
  003b6	ff 15 00 00 00
	00		 call	 QWORD PTR __imp_w32_close_socket

; 3739 :             return -1;

  003bc	b8 ff ff ff ff	 mov	 eax, -1
  003c1	e9 10 03 00 00	 jmp	 $LN1@CTCE_Get_S
$LN5@CTCE_Get_S:
$LN4@CTCE_Get_S:

; 3740 :         }
; 3741 :     }
; 3742 : #endif
; 3743 : 
; 3744 :     // We bind the socket to a local port, which for a listening port
; 3745 :     // is this CTCE device's receiving port, otherwise we bind to a
; 3746 :     // random port (i.e. = 0).
; 3747 :     memset( &( addr ), 0, sizeof( addr ) );

  003c6	48 8d 84 24 f8
	00 00 00	 lea	 rax, QWORD PTR addr$[rsp]
  003ce	48 8b f8	 mov	 rdi, rax
  003d1	33 c0		 xor	 eax, eax
  003d3	b9 10 00 00 00	 mov	 ecx, 16
  003d8	f3 aa		 rep stosb

; 3748 :     addr.sin_family = AF_INET;

  003da	b8 02 00 00 00	 mov	 eax, 2
  003df	66 89 84 24 f8
	00 00 00	 mov	 WORD PTR addr$[rsp], ax

; 3749 :     if ( eCTCE_Sok_Use == CTCE_SOK_LIS )

  003e7	83 bc 24 28 01
	00 00 00	 cmp	 DWORD PTR eCTCE_Sok_Use$[rsp], 0
  003ef	75 1f		 jne	 SHORT $LN6@CTCE_Get_S

; 3750 :     {
; 3751 :         addr.sin_port = htons( dev->ctce_lport );

  003f1	48 8b 84 24 20
	01 00 00	 mov	 rax, QWORD PTR dev$[rsp]
  003f9	0f b7 88 50 07
	00 00		 movzx	 ecx, WORD PTR [rax+1872]
  00400	ff 15 00 00 00
	00		 call	 QWORD PTR __imp_htons
  00406	66 89 84 24 fa
	00 00 00	 mov	 WORD PTR addr$[rsp+2], ax

; 3752 :     }

  0040e	eb 10		 jmp	 SHORT $LN7@CTCE_Get_S
$LN6@CTCE_Get_S:

; 3753 :     else
; 3754 :     {
; 3755 :         addr.sin_port = htons( 0 );

  00410	33 c9		 xor	 ecx, ecx
  00412	ff 15 00 00 00
	00		 call	 QWORD PTR __imp_htons
  00418	66 89 84 24 fa
	00 00 00	 mov	 WORD PTR addr$[rsp+2], ax
$LN7@CTCE_Get_S:

; 3756 :     }
; 3757 : 
; 3758 :     addr.sin_addr.s_addr = htonl( INADDR_ANY );

  00420	33 c9		 xor	 ecx, ecx
  00422	ff 15 00 00 00
	00		 call	 QWORD PTR __imp_htonl
  00428	89 84 24 fc 00
	00 00		 mov	 DWORD PTR addr$[rsp+4], eax

; 3759 :     if ( bind( fd, ( struct sockaddr * )&addr, sizeof( addr ) ) < 0 )

  0042f	48 63 44 24 70	 movsxd	 rax, DWORD PTR fd$[rsp]
  00434	41 b8 10 00 00
	00		 mov	 r8d, 16
  0043a	48 8d 94 24 f8
	00 00 00	 lea	 rdx, QWORD PTR addr$[rsp]
  00442	48 8b c8	 mov	 rcx, rax
  00445	ff 15 00 00 00
	00		 call	 QWORD PTR __imp_bind
  0044b	85 c0		 test	 eax, eax
  0044d	0f 8d 05 01 00
	00		 jge	 $LN8@CTCE_Get_S

; 3760 :     {
; 3761 :         WRMSG( HHC05052, "E",  // CTCE: Error binding to %s socket (port %d): %s"

  00453	83 bc 24 28 01
	00 00 00	 cmp	 DWORD PTR eCTCE_Sok_Use$[rsp], 0
  0045b	75 11		 jne	 SHORT $LN19@CTCE_Get_S
  0045d	48 8d 05 00 00
	00 00		 lea	 rax, OFFSET FLAT:$SG170440
  00464	48 89 84 24 c0
	00 00 00	 mov	 QWORD PTR tv221[rsp], rax
  0046c	eb 0f		 jmp	 SHORT $LN20@CTCE_Get_S
$LN19@CTCE_Get_S:
  0046e	48 8d 05 00 00
	00 00		 lea	 rax, OFFSET FLAT:$SG170441
  00475	48 89 84 24 c0
	00 00 00	 mov	 QWORD PTR tv221[rsp], rax
$LN20@CTCE_Get_S:
  0047d	ff 15 00 00 00
	00		 call	 QWORD PTR __imp_WSAGetLastError
  00483	8b c8		 mov	 ecx, eax
  00485	ff 15 00 00 00
	00		 call	 QWORD PTR __imp_w32_strerror
  0048b	48 89 84 24 e8
	00 00 00	 mov	 QWORD PTR tv214[rsp], rax
  00493	48 8b 8c 24 20
	01 00 00	 mov	 rcx, QWORD PTR dev$[rsp]
  0049b	0f b7 49 48	 movzx	 ecx, WORD PTR [rcx+72]
  0049f	89 8c 24 94 00
	00 00		 mov	 DWORD PTR tv224[rsp], ecx
  004a6	48 8b 94 24 20
	01 00 00	 mov	 rdx, QWORD PTR dev$[rsp]
  004ae	0f b7 52 44	 movzx	 edx, WORD PTR [rdx+68]
  004b2	d1 fa		 sar	 edx, 1
  004b4	89 94 24 98 00
	00 00		 mov	 DWORD PTR tv228[rsp], edx
  004bb	b9 01 00 00 00	 mov	 ecx, 1
  004c0	ff 15 00 00 00
	00		 call	 QWORD PTR __imp___acrt_iob_func
  004c6	48 8b 8c 24 e8
	00 00 00	 mov	 rcx, QWORD PTR tv214[rsp]
  004ce	48 89 4c 24 58	 mov	 QWORD PTR [rsp+88], rcx
  004d3	48 8b 8c 24 20
	01 00 00	 mov	 rcx, QWORD PTR dev$[rsp]
  004db	8b 89 50 07 00
	00		 mov	 ecx, DWORD PTR [rcx+1872]
  004e1	89 4c 24 50	 mov	 DWORD PTR [rsp+80], ecx
  004e5	48 8b 8c 24 c0
	00 00 00	 mov	 rcx, QWORD PTR tv221[rsp]
  004ed	48 89 4c 24 48	 mov	 QWORD PTR [rsp+72], rcx
  004f2	8b 8c 24 94 00
	00 00		 mov	 ecx, DWORD PTR tv224[rsp]
  004f9	89 4c 24 40	 mov	 DWORD PTR [rsp+64], ecx
  004fd	8b 8c 24 98 00
	00 00		 mov	 ecx, DWORD PTR tv228[rsp]
  00504	89 4c 24 38	 mov	 DWORD PTR [rsp+56], ecx
  00508	48 8d 0d 00 00
	00 00		 lea	 rcx, OFFSET FLAT:$SG170442
  0050f	48 89 4c 24 30	 mov	 QWORD PTR [rsp+48], rcx
  00514	48 8d 0d 00 00
	00 00		 lea	 rcx, OFFSET FLAT:$SG170443
  0051b	48 89 4c 24 28	 mov	 QWORD PTR [rsp+40], rcx
  00520	48 89 44 24 20	 mov	 QWORD PTR [rsp+32], rax
  00525	41 b9 03 00 00
	00		 mov	 r9d, 3
  0052b	4c 8d 05 00 00
	00 00		 lea	 r8, OFFSET FLAT:$SG170444
  00532	ba b4 0e 00 00	 mov	 edx, 3764		; 00000eb4H
  00537	48 8d 0d 00 00
	00 00		 lea	 rcx, OFFSET FLAT:$SG170445
  0053e	ff 15 00 00 00
	00		 call	 QWORD PTR __imp_fwritemsg

; 3762 :             CTCX_DEVNUM( dev ),
; 3763 :             ( eCTCE_Sok_Use == CTCE_SOK_LIS ) ? "listen" : "connect",
; 3764 :             dev->ctce_lport, strerror( HSO_errno ) );
; 3765 :         close_socket( fd );

  00544	8b 4c 24 70	 mov	 ecx, DWORD PTR fd$[rsp]
  00548	ff 15 00 00 00
	00		 call	 QWORD PTR __imp_w32_close_socket

; 3766 :         return -1;

  0054e	b8 ff ff ff ff	 mov	 eax, -1
  00553	e9 7e 01 00 00	 jmp	 $LN1@CTCE_Get_S
$LN8@CTCE_Get_S:

; 3767 :     }
; 3768 : 
; 3769 :     // A connect socket is always bound to a random lport, which we determine.
; 3770 :     if ( eCTCE_Sok_Use == CTCE_SOK_CON )

  00558	83 bc 24 28 01
	00 00 01	 cmp	 DWORD PTR eCTCE_Sok_Use$[rsp], 1
  00560	0f 85 6c 01 00
	00		 jne	 $LN9@CTCE_Get_S

; 3771 :     {
; 3772 :         addrlen = sizeof( addr );

  00566	c7 44 24 78 10
	00 00 00	 mov	 DWORD PTR addrlen$[rsp], 16

; 3773 :         if ( 1
; 3774 :             && getsockname ( fd, ( struct sockaddr * )&addr, &addrlen ) == 0
; 3775 :             && addr.sin_family == AF_INET
; 3776 :             && addrlen == sizeof( addr ) )

  0056e	33 c0		 xor	 eax, eax
  00570	83 f8 01	 cmp	 eax, 1
  00573	74 5b		 je	 SHORT $LN10@CTCE_Get_S
  00575	48 63 44 24 70	 movsxd	 rax, DWORD PTR fd$[rsp]
  0057a	4c 8d 44 24 78	 lea	 r8, QWORD PTR addrlen$[rsp]
  0057f	48 8d 94 24 f8
	00 00 00	 lea	 rdx, QWORD PTR addr$[rsp]
  00587	48 8b c8	 mov	 rcx, rax
  0058a	ff 15 00 00 00
	00		 call	 QWORD PTR __imp_getsockname
  00590	85 c0		 test	 eax, eax
  00592	75 3c		 jne	 SHORT $LN10@CTCE_Get_S
  00594	0f b7 84 24 f8
	00 00 00	 movzx	 eax, WORD PTR addr$[rsp]
  0059c	83 f8 02	 cmp	 eax, 2
  0059f	75 2f		 jne	 SHORT $LN10@CTCE_Get_S
  005a1	48 63 44 24 78	 movsxd	 rax, DWORD PTR addrlen$[rsp]
  005a6	48 83 f8 10	 cmp	 rax, 16
  005aa	75 24		 jne	 SHORT $LN10@CTCE_Get_S

; 3777 :         {
; 3778 :             dev->ctce_connect_lport = ntohs( addr.sin_port );

  005ac	0f b7 8c 24 fa
	00 00 00	 movzx	 ecx, WORD PTR addr$[rsp+2]
  005b4	ff 15 00 00 00
	00		 call	 QWORD PTR __imp_ntohs
  005ba	0f b7 c0	 movzx	 eax, ax
  005bd	48 8b 8c 24 20
	01 00 00	 mov	 rcx, QWORD PTR dev$[rsp]
  005c5	89 81 54 07 00
	00		 mov	 DWORD PTR [rcx+1876], eax

; 3779 :         }

  005cb	e9 02 01 00 00	 jmp	 $LN11@CTCE_Get_S
$LN10@CTCE_Get_S:

; 3780 :         else
; 3781 :         {
; 3782 :             WRMSG( HHC05053, "E",  // CTCE: Error on getsockname for %s socket (port %d): %s"

  005d0	83 bc 24 28 01
	00 00 00	 cmp	 DWORD PTR eCTCE_Sok_Use$[rsp], 0
  005d8	75 11		 jne	 SHORT $LN21@CTCE_Get_S
  005da	48 8d 05 00 00
	00 00		 lea	 rax, OFFSET FLAT:$SG170449
  005e1	48 89 84 24 c8
	00 00 00	 mov	 QWORD PTR tv263[rsp], rax
  005e9	eb 0f		 jmp	 SHORT $LN22@CTCE_Get_S
$LN21@CTCE_Get_S:
  005eb	48 8d 05 00 00
	00 00		 lea	 rax, OFFSET FLAT:$SG170450
  005f2	48 89 84 24 c8
	00 00 00	 mov	 QWORD PTR tv263[rsp], rax
$LN22@CTCE_Get_S:
  005fa	ff 15 00 00 00
	00		 call	 QWORD PTR __imp_WSAGetLastError
  00600	8b c8		 mov	 ecx, eax
  00602	ff 15 00 00 00
	00		 call	 QWORD PTR __imp_w32_strerror
  00608	48 89 84 24 f0
	00 00 00	 mov	 QWORD PTR tv256[rsp], rax
  00610	48 8b 8c 24 20
	01 00 00	 mov	 rcx, QWORD PTR dev$[rsp]
  00618	0f b7 49 48	 movzx	 ecx, WORD PTR [rcx+72]
  0061c	89 8c 24 9c 00
	00 00		 mov	 DWORD PTR tv266[rsp], ecx
  00623	48 8b 94 24 20
	01 00 00	 mov	 rdx, QWORD PTR dev$[rsp]
  0062b	0f b7 52 44	 movzx	 edx, WORD PTR [rdx+68]
  0062f	d1 fa		 sar	 edx, 1
  00631	89 94 24 a0 00
	00 00		 mov	 DWORD PTR tv270[rsp], edx
  00638	b9 01 00 00 00	 mov	 ecx, 1
  0063d	ff 15 00 00 00
	00		 call	 QWORD PTR __imp___acrt_iob_func
  00643	48 8b 8c 24 f0
	00 00 00	 mov	 rcx, QWORD PTR tv256[rsp]
  0064b	48 89 4c 24 58	 mov	 QWORD PTR [rsp+88], rcx
  00650	48 8b 8c 24 20
	01 00 00	 mov	 rcx, QWORD PTR dev$[rsp]
  00658	8b 89 50 07 00
	00		 mov	 ecx, DWORD PTR [rcx+1872]
  0065e	89 4c 24 50	 mov	 DWORD PTR [rsp+80], ecx
  00662	48 8b 8c 24 c8
	00 00 00	 mov	 rcx, QWORD PTR tv263[rsp]
  0066a	48 89 4c 24 48	 mov	 QWORD PTR [rsp+72], rcx
  0066f	8b 8c 24 9c 00
	00 00		 mov	 ecx, DWORD PTR tv266[rsp]
  00676	89 4c 24 40	 mov	 DWORD PTR [rsp+64], ecx
  0067a	8b 8c 24 a0 00
	00 00		 mov	 ecx, DWORD PTR tv270[rsp]
  00681	89 4c 24 38	 mov	 DWORD PTR [rsp+56], ecx
  00685	48 8d 0d 00 00
	00 00		 lea	 rcx, OFFSET FLAT:$SG170451
  0068c	48 89 4c 24 30	 mov	 QWORD PTR [rsp+48], rcx
  00691	48 8d 0d 00 00
	00 00		 lea	 rcx, OFFSET FLAT:$SG170452
  00698	48 89 4c 24 28	 mov	 QWORD PTR [rsp+40], rcx
  0069d	48 89 44 24 20	 mov	 QWORD PTR [rsp+32], rax
  006a2	41 b9 03 00 00
	00		 mov	 r9d, 3
  006a8	4c 8d 05 00 00
	00 00		 lea	 r8, OFFSET FLAT:$SG170453
  006af	ba c8 0e 00 00	 mov	 edx, 3784		; 00000ec8H
  006b4	48 8d 0d 00 00
	00 00		 lea	 rcx, OFFSET FLAT:$SG170454
  006bb	ff 15 00 00 00
	00		 call	 QWORD PTR __imp_fwritemsg

; 3783 :                 CTCX_DEVNUM( dev ), (eCTCE_Sok_Use == CTCE_SOK_LIS) ? "listen" : "connect",
; 3784 :                 dev->ctce_lport, strerror( HSO_errno ) );
; 3785 :             close_socket( fd );

  006c1	8b 4c 24 70	 mov	 ecx, DWORD PTR fd$[rsp]
  006c5	ff 15 00 00 00
	00		 call	 QWORD PTR __imp_w32_close_socket

; 3786 :             return -1;

  006cb	b8 ff ff ff ff	 mov	 eax, -1
  006d0	eb 04		 jmp	 SHORT $LN1@CTCE_Get_S
$LN11@CTCE_Get_S:
$LN9@CTCE_Get_S:

; 3787 :         }
; 3788 :     }
; 3789 : 
; 3790 :     // By now all possible error cases have been reported and acted upon.
; 3791 :     return fd;

  006d2	8b 44 24 70	 mov	 eax, DWORD PTR fd$[rsp]
$LN1@CTCE_Get_S:

; 3792 : 
; 3793 : } // CTCE_Get_Socket

  006d6	48 8b 8c 24 08
	01 00 00	 mov	 rcx, QWORD PTR __$ArrayPad$[rsp]
  006de	48 33 cc	 xor	 rcx, rsp
  006e1	e8 00 00 00 00	 call	 __security_check_cookie
  006e6	48 81 c4 10 01
	00 00		 add	 rsp, 272		; 00000110H
  006ed	5f		 pop	 rdi
  006ee	c3		 ret	 0
CTCE_Get_Socket ENDP
_TEXT	ENDS
; Function compile flags: /Odtp
; File C:\papa\MyGit\hyperion-zvector\ctcadpt.c
_TEXT	SEGMENT
dev$ = 128
renewed$ = 136
rc$ = 140
fd$ = 144
attempts_counter$ = 148
connect_retry_interval$ = 152
tv154 = 156
attempts_counter_max$ = 160
tv192 = 164
tv230 = 168
remaddr$ = 176
connect_msg_interval$ = 184
tv163 = 188
tv167 = 192
tv172 = 196
tv200 = 200
tv204 = 204
tv209 = 208
tv237 = 212
tv241 = 216
tv250 = 220
tv269 = 224
tv273 = 228
tv278 = 232
tv194 = 240
tv247 = 248
addr$ = 256
address$ = 272
__$ArrayPad$ = 296
argp$ = 320
CTCE_ConnectThread PROC

; 3588 : {

  00000	48 89 4c 24 08	 mov	 QWORD PTR [rsp+8], rcx
  00005	57		 push	 rdi
  00006	48 81 ec 30 01
	00 00		 sub	 rsp, 304		; 00000130H
  0000d	48 8b 05 00 00
	00 00		 mov	 rax, QWORD PTR __security_cookie
  00014	48 33 c4	 xor	 rax, rsp
  00017	48 89 84 24 28
	01 00 00	 mov	 QWORD PTR __$ArrayPad$[rsp], rax

; 3589 :     DEVBLK             *dev = (DEVBLK*) argp;         // argp is the device block pointer

  0001f	48 8b 84 24 40
	01 00 00	 mov	 rax, QWORD PTR argp$[rsp]
  00027	48 89 84 24 80
	00 00 00	 mov	 QWORD PTR dev$[rsp], rax

; 3590 :     int                 fd;                           // socket file descriptor
; 3591 :     struct sockaddr_in  addr;                         // socket destination address info
; 3592 :     int                 rc = 0;                       // Return Code

  0002f	c7 84 24 8c 00
	00 00 00 00 00
	00		 mov	 DWORD PTR rc$[rsp], 0

; 3593 :     const int           connect_retry_interval = 500; // in msec

  0003a	c7 84 24 98 00
	00 00 f4 01 00
	00		 mov	 DWORD PTR connect_retry_interval$[rsp], 500 ; 000001f4H

; 3594 :     const int           connect_msg_interval = 600;   // in sec, e,g, 10 minutes

  00045	c7 84 24 b8 00
	00 00 58 02 00
	00		 mov	 DWORD PTR connect_msg_interval$[rsp], 600 ; 00000258H

; 3595 :     int                 attempts_counter = 0;         // rotates up to a maximum of ...

  00050	c7 84 24 94 00
	00 00 00 00 00
	00		 mov	 DWORD PTR attempts_counter$[rsp], 0

; 3596 :     const int           attempts_counter_max =        // results in a msg every 10 min

  0005b	69 84 24 b8 00
	00 00 e8 03 00
	00		 imul	 eax, DWORD PTR connect_msg_interval$[rsp], 1000 ; 000003e8H
  00066	99		 cdq
  00067	f7 bc 24 98 00
	00 00		 idiv	 DWORD PTR connect_retry_interval$[rsp]
  0006e	89 84 24 a0 00
	00 00		 mov	 DWORD PTR attempts_counter_max$[rsp], eax

; 3597 :                             connect_msg_interval *
; 3598 :                             1000 / connect_retry_interval;
; 3599 :     BYTE                renewed;                      // When renewing a CTCE connection
; 3600 :     char*               remaddr;                      // Remote IP address
; 3601 :     char                address[20]="";               // temp space for IP address

  00075	0f b6 05 00 00
	00 00		 movzx	 eax, BYTE PTR $SG170359
  0007c	88 84 24 10 01
	00 00		 mov	 BYTE PTR address$[rsp], al
  00083	48 8d 84 24 11
	01 00 00	 lea	 rax, QWORD PTR address$[rsp+1]
  0008b	48 8b f8	 mov	 rdi, rax
  0008e	33 c0		 xor	 eax, eax
  00090	b9 13 00 00 00	 mov	 ecx, 19
  00095	f3 aa		 rep stosb

; 3602 : 
; 3603 : 
; 3604 :     // Obtain a socket to connect to the other end.
; 3605 :     obtain_lock( &dev->lock );

  00097	48 8b 84 24 80
	00 00 00	 mov	 rax, QWORD PTR dev$[rsp]
  0009f	48 83 c0 38	 add	 rax, 56			; 00000038H
  000a3	48 8d 15 00 00
	00 00		 lea	 rdx, OFFSET FLAT:$SG170360
  000aa	48 8b c8	 mov	 rcx, rax
  000ad	ff 15 00 00 00
	00		 call	 QWORD PTR __imp_hthread_obtain_lock
$LN4@CTCE_Conne:

; 3606 : 
; 3607 :     // We must keep on trying to connect until it is successful,
; 3608 :     // which is why we do this in a separate dedicated thread.
; 3609 :     do
; 3610 :     {
; 3611 :         if ( ( fd = CTCE_Get_Socket( dev, CTCE_SOK_CON ) ) < 0 )

  000b3	ba 01 00 00 00	 mov	 edx, 1
  000b8	48 8b 8c 24 80
	00 00 00	 mov	 rcx, QWORD PTR dev$[rsp]
  000c0	e8 00 00 00 00	 call	 CTCE_Get_Socket
  000c5	89 84 24 90 00
	00 00		 mov	 DWORD PTR fd$[rsp], eax
  000cc	83 bc 24 90 00
	00 00 00	 cmp	 DWORD PTR fd$[rsp], 0
  000d4	7d 23		 jge	 SHORT $LN5@CTCE_Conne

; 3612 :         {
; 3613 :             release_lock( &dev->lock );

  000d6	48 8b 84 24 80
	00 00 00	 mov	 rax, QWORD PTR dev$[rsp]
  000de	48 83 c0 38	 add	 rax, 56			; 00000038H
  000e2	48 8d 15 00 00
	00 00		 lea	 rdx, OFFSET FLAT:$SG170362
  000e9	48 8b c8	 mov	 rcx, rax
  000ec	ff 15 00 00 00
	00		 call	 QWORD PTR __imp_hthread_release_lock

; 3614 :             return NULL;

  000f2	33 c0		 xor	 eax, eax
  000f4	e9 cb 06 00 00	 jmp	 $LN1@CTCE_Conne
$LN5@CTCE_Conne:

; 3615 :         }
; 3616 : 
; 3617 :         // Initialise the destination IP address.
; 3618 :         strcpy( address, inet_ntoa( dev->ctce_ipaddr ) );

  000f9	48 8b 84 24 80
	00 00 00	 mov	 rax, QWORD PTR dev$[rsp]
  00101	8b 88 5c 07 00
	00		 mov	 ecx, DWORD PTR [rax+1884]
  00107	ff 15 00 00 00
	00		 call	 QWORD PTR __imp_inet_ntoa
  0010d	48 8b d0	 mov	 rdx, rax
  00110	48 8d 8c 24 10
	01 00 00	 lea	 rcx, QWORD PTR address$[rsp]
  00118	e8 00 00 00 00	 call	 strcpy

; 3619 :         remaddr = address;

  0011d	48 8d 84 24 10
	01 00 00	 lea	 rax, QWORD PTR address$[rsp]
  00125	48 89 84 24 b0
	00 00 00	 mov	 QWORD PTR remaddr$[rsp], rax

; 3620 :         memset( &addr, 0, sizeof( addr ) );

  0012d	48 8d 84 24 00
	01 00 00	 lea	 rax, QWORD PTR addr$[rsp]
  00135	48 8b f8	 mov	 rdi, rax
  00138	33 c0		 xor	 eax, eax
  0013a	b9 10 00 00 00	 mov	 ecx, 16
  0013f	f3 aa		 rep stosb

; 3621 :         addr.sin_family = AF_INET;

  00141	b8 02 00 00 00	 mov	 eax, 2
  00146	66 89 84 24 00
	01 00 00	 mov	 WORD PTR addr$[rsp], ax

; 3622 :         addr.sin_addr = dev->ctce_ipaddr;

  0014e	48 8b 84 24 80
	00 00 00	 mov	 rax, QWORD PTR dev$[rsp]
  00156	8b 80 5c 07 00
	00		 mov	 eax, DWORD PTR [rax+1884]
  0015c	89 84 24 04 01
	00 00		 mov	 DWORD PTR addr$[rsp+4], eax

; 3623 :         addr.sin_port = htons( dev->ctce_rport );

  00163	48 8b 84 24 80
	00 00 00	 mov	 rax, QWORD PTR dev$[rsp]
  0016b	0f b7 88 58 07
	00 00		 movzx	 ecx, WORD PTR [rax+1880]
  00172	ff 15 00 00 00
	00		 call	 QWORD PTR __imp_htons
  00178	66 89 84 24 02
	01 00 00	 mov	 WORD PTR addr$[rsp+2], ax

; 3624 : 
; 3625 :         // During the blocking connect() and a possible retry wait interval we release the device lock.
; 3626 :         release_lock( &dev->lock );

  00180	48 8b 84 24 80
	00 00 00	 mov	 rax, QWORD PTR dev$[rsp]
  00188	48 83 c0 38	 add	 rax, 56			; 00000038H
  0018c	48 8d 15 00 00
	00 00		 lea	 rdx, OFFSET FLAT:$SG170363
  00193	48 8b c8	 mov	 rcx, rax
  00196	ff 15 00 00 00
	00		 call	 QWORD PTR __imp_hthread_release_lock

; 3627 :         rc = connect( fd, ( struct sockaddr * )&addr, sizeof( addr ) );

  0019c	48 63 84 24 90
	00 00 00	 movsxd	 rax, DWORD PTR fd$[rsp]
  001a4	41 b8 10 00 00
	00		 mov	 r8d, 16
  001aa	48 8d 94 24 00
	01 00 00	 lea	 rdx, QWORD PTR addr$[rsp]
  001b2	48 8b c8	 mov	 rcx, rax
  001b5	ff 15 00 00 00
	00		 call	 QWORD PTR __imp_connect
  001bb	89 84 24 8c 00
	00 00		 mov	 DWORD PTR rc$[rsp], eax

; 3628 :         if ( rc < 0 )

  001c2	83 bc 24 8c 00
	00 00 00	 cmp	 DWORD PTR rc$[rsp], 0
  001ca	7d 20		 jge	 SHORT $LN6@CTCE_Conne

; 3629 :         {
; 3630 :             close_socket( fd );

  001cc	8b 8c 24 90 00
	00 00		 mov	 ecx, DWORD PTR fd$[rsp]
  001d3	ff 15 00 00 00
	00		 call	 QWORD PTR __imp_w32_close_socket

; 3631 :             usleep(connect_retry_interval * 1000) ;

  001d9	69 84 24 98 00
	00 00 e8 03 00
	00		 imul	 eax, DWORD PTR connect_retry_interval$[rsp], 1000 ; 000003e8H
  001e4	8b c8		 mov	 ecx, eax
  001e6	ff 15 00 00 00
	00		 call	 QWORD PTR __imp_usleep
$LN6@CTCE_Conne:

; 3632 :         }
; 3633 :         obtain_lock( &dev->lock );

  001ec	48 8b 84 24 80
	00 00 00	 mov	 rax, QWORD PTR dev$[rsp]
  001f4	48 83 c0 38	 add	 rax, 56			; 00000038H
  001f8	48 8d 15 00 00
	00 00		 lea	 rdx, OFFSET FLAT:$SG170365
  001ff	48 8b c8	 mov	 rcx, rax
  00202	ff 15 00 00 00
	00		 call	 QWORD PTR __imp_hthread_obtain_lock

; 3634 : 
; 3635 :         // A successful connect() is immediately followed by a initial write.
; 3636 :         if ( rc == 0 )

  00208	83 bc 24 8c 00
	00 00 00	 cmp	 DWORD PTR rc$[rsp], 0
  00210	75 1b		 jne	 SHORT $LN7@CTCE_Conne

; 3637 :         {
; 3638 :             rc = CTCE_Write_Init( dev, fd );

  00212	8b 94 24 90 00
	00 00		 mov	 edx, DWORD PTR fd$[rsp]
  00219	48 8b 8c 24 80
	00 00 00	 mov	 rcx, QWORD PTR dev$[rsp]
  00221	e8 00 00 00 00	 call	 CTCE_Write_Init
  00226	89 84 24 8c 00
	00 00		 mov	 DWORD PTR rc$[rsp], eax
$LN7@CTCE_Conne:

; 3639 :         }
; 3640 : 
; 3641 :         // The first message appears just once after (each re-)initialisation,
; 3642 :         // attempt, the second one every connect_message_interval. (= 1200*0.5 sec).
; 3643 :         attempts_counter = ( attempts_counter > attempts_counter_max ) ? 2 : ( attempts_counter + 1 ) ;

  0022d	8b 84 24 a0 00
	00 00		 mov	 eax, DWORD PTR attempts_counter_max$[rsp]
  00234	39 84 24 94 00
	00 00		 cmp	 DWORD PTR attempts_counter$[rsp], eax
  0023b	7e 0d		 jle	 SHORT $LN15@CTCE_Conne
  0023d	c7 84 24 9c 00
	00 00 02 00 00
	00		 mov	 DWORD PTR tv154[rsp], 2
  00248	eb 10		 jmp	 SHORT $LN16@CTCE_Conne
$LN15@CTCE_Conne:
  0024a	8b 84 24 94 00
	00 00		 mov	 eax, DWORD PTR attempts_counter$[rsp]
  00251	ff c0		 inc	 eax
  00253	89 84 24 9c 00
	00 00		 mov	 DWORD PTR tv154[rsp], eax
$LN16@CTCE_Conne:
  0025a	8b 84 24 9c 00
	00 00		 mov	 eax, DWORD PTR tv154[rsp]
  00261	89 84 24 94 00
	00 00		 mov	 DWORD PTR attempts_counter$[rsp], eax

; 3644 :         if( ( attempts_counter == 1 ) && ( dev->fd < 0 ) && ( rc < 0 ) )

  00268	83 bc 24 94 00
	00 00 01	 cmp	 DWORD PTR attempts_counter$[rsp], 1
  00270	0f 85 11 01 00
	00		 jne	 $LN8@CTCE_Conne
  00276	48 8b 84 24 80
	00 00 00	 mov	 rax, QWORD PTR dev$[rsp]
  0027e	83 b8 ac 01 00
	00 00		 cmp	 DWORD PTR [rax+428], 0
  00285	0f 8d fc 00 00
	00		 jge	 $LN8@CTCE_Conne
  0028b	83 bc 24 8c 00
	00 00 00	 cmp	 DWORD PTR rc$[rsp], 0
  00293	0f 8d ee 00 00
	00		 jge	 $LN8@CTCE_Conne

; 3645 :         {
; 3646 :             WRMSG( HHC05065, "I",  // CTCE: Attempt outbound connection :%5d -> %1d:%04X=%s:%d"

  00299	48 8b 84 24 80
	00 00 00	 mov	 rax, QWORD PTR dev$[rsp]
  002a1	0f b7 80 64 07
	00 00		 movzx	 eax, WORD PTR [rax+1892]
  002a8	89 84 24 bc 00
	00 00		 mov	 DWORD PTR tv163[rsp], eax
  002af	48 8b 8c 24 80
	00 00 00	 mov	 rcx, QWORD PTR dev$[rsp]
  002b7	0f b7 49 44	 movzx	 ecx, WORD PTR [rcx+68]
  002bb	d1 f9		 sar	 ecx, 1
  002bd	89 8c 24 c0 00
	00 00		 mov	 DWORD PTR tv167[rsp], ecx
  002c4	48 8b 94 24 80
	00 00 00	 mov	 rdx, QWORD PTR dev$[rsp]
  002cc	0f b7 52 48	 movzx	 edx, WORD PTR [rdx+72]
  002d0	89 94 24 c4 00
	00 00		 mov	 DWORD PTR tv172[rsp], edx
  002d7	48 8b bc 24 80
	00 00 00	 mov	 rdi, QWORD PTR dev$[rsp]
  002df	0f b7 7f 44	 movzx	 edi, WORD PTR [rdi+68]
  002e3	d1 ff		 sar	 edi, 1
  002e5	b9 01 00 00 00	 mov	 ecx, 1
  002ea	ff 15 00 00 00
	00		 call	 QWORD PTR __imp___acrt_iob_func
  002f0	48 8b 8c 24 80
	00 00 00	 mov	 rcx, QWORD PTR dev$[rsp]
  002f8	8b 89 58 07 00
	00		 mov	 ecx, DWORD PTR [rcx+1880]
  002fe	89 4c 24 68	 mov	 DWORD PTR [rsp+104], ecx
  00302	48 8b 8c 24 b0
	00 00 00	 mov	 rcx, QWORD PTR remaddr$[rsp]
  0030a	48 89 4c 24 60	 mov	 QWORD PTR [rsp+96], rcx
  0030f	8b 8c 24 bc 00
	00 00		 mov	 ecx, DWORD PTR tv163[rsp]
  00316	89 4c 24 58	 mov	 DWORD PTR [rsp+88], ecx
  0031a	8b 8c 24 c0 00
	00 00		 mov	 ecx, DWORD PTR tv167[rsp]
  00321	89 4c 24 50	 mov	 DWORD PTR [rsp+80], ecx
  00325	48 8b 8c 24 80
	00 00 00	 mov	 rcx, QWORD PTR dev$[rsp]
  0032d	8b 89 50 07 00
	00		 mov	 ecx, DWORD PTR [rcx+1872]
  00333	89 4c 24 48	 mov	 DWORD PTR [rsp+72], ecx
  00337	8b 8c 24 c4 00
	00 00		 mov	 ecx, DWORD PTR tv172[rsp]
  0033e	89 4c 24 40	 mov	 DWORD PTR [rsp+64], ecx
  00342	89 7c 24 38	 mov	 DWORD PTR [rsp+56], edi
  00346	48 8d 0d 00 00
	00 00		 lea	 rcx, OFFSET FLAT:$SG170369
  0034d	48 89 4c 24 30	 mov	 QWORD PTR [rsp+48], rcx
  00352	48 8d 0d 00 00
	00 00		 lea	 rcx, OFFSET FLAT:$SG170370
  00359	48 89 4c 24 28	 mov	 QWORD PTR [rsp+40], rcx
  0035e	48 89 44 24 20	 mov	 QWORD PTR [rsp+32], rax
  00363	41 b9 03 00 00
	00		 mov	 r9d, 3
  00369	4c 8d 05 00 00
	00 00		 lea	 r8, OFFSET FLAT:$SG170371
  00370	ba 40 0e 00 00	 mov	 edx, 3648		; 00000e40H
  00375	48 8d 0d 00 00
	00 00		 lea	 rcx, OFFSET FLAT:$SG170372
  0037c	ff 15 00 00 00
	00		 call	 QWORD PTR __imp_fwritemsg

; 3647 :                 CTCX_DEVNUM( dev ), dev->ctce_lport, SSID_TO_LCSS(dev->ssid),
; 3648 :                 dev->ctce_rccuu, remaddr, dev->ctce_rport );
; 3649 :         }

  00382	e9 75 01 00 00	 jmp	 $LN9@CTCE_Conne
$LN8@CTCE_Conne:

; 3650 :         else if( ( attempts_counter == attempts_counter_max ) && ( dev->ctce_trace_cntr > 0 ) )

  00387	8b 84 24 a0 00
	00 00		 mov	 eax, DWORD PTR attempts_counter_max$[rsp]
  0038e	39 84 24 94 00
	00 00		 cmp	 DWORD PTR attempts_counter$[rsp], eax
  00395	0f 85 61 01 00
	00		 jne	 $LN10@CTCE_Conne
  0039b	48 8b 84 24 80
	00 00 00	 mov	 rax, QWORD PTR dev$[rsp]
  003a3	83 b8 68 07 00
	00 00		 cmp	 DWORD PTR [rax+1896], 0
  003aa	0f 8e 4c 01 00
	00		 jle	 $LN10@CTCE_Conne

; 3651 :         {
; 3652 :             WRMSG( HHC05072, "I",  // CTCE: Still attempting connection :%5d -> %1d:%04X=%s:%d%s"

  003b0	48 8b 84 24 80
	00 00 00	 mov	 rax, QWORD PTR dev$[rsp]
  003b8	8b 80 68 07 00
	00		 mov	 eax, DWORD PTR [rax+1896]
  003be	ff c8		 dec	 eax
  003c0	89 84 24 a4 00
	00 00		 mov	 DWORD PTR tv192[rsp], eax
  003c7	48 8b 84 24 80
	00 00 00	 mov	 rax, QWORD PTR dev$[rsp]
  003cf	8b 8c 24 a4 00
	00 00		 mov	 ecx, DWORD PTR tv192[rsp]
  003d6	89 88 68 07 00
	00		 mov	 DWORD PTR [rax+1896], ecx
  003dc	83 bc 24 a4 00
	00 00 00	 cmp	 DWORD PTR tv192[rsp], 0
  003e4	74 11		 je	 SHORT $LN17@CTCE_Conne
  003e6	48 8d 05 00 00
	00 00		 lea	 rax, OFFSET FLAT:$SG170374
  003ed	48 89 84 24 f0
	00 00 00	 mov	 QWORD PTR tv194[rsp], rax
  003f5	eb 0f		 jmp	 SHORT $LN18@CTCE_Conne
$LN17@CTCE_Conne:
  003f7	48 8d 05 00 00
	00 00		 lea	 rax, OFFSET FLAT:$SG170375
  003fe	48 89 84 24 f0
	00 00 00	 mov	 QWORD PTR tv194[rsp], rax
$LN18@CTCE_Conne:
  00406	48 8b 84 24 80
	00 00 00	 mov	 rax, QWORD PTR dev$[rsp]
  0040e	0f b7 80 64 07
	00 00		 movzx	 eax, WORD PTR [rax+1892]
  00415	89 84 24 c8 00
	00 00		 mov	 DWORD PTR tv200[rsp], eax
  0041c	48 8b 8c 24 80
	00 00 00	 mov	 rcx, QWORD PTR dev$[rsp]
  00424	0f b7 49 44	 movzx	 ecx, WORD PTR [rcx+68]
  00428	d1 f9		 sar	 ecx, 1
  0042a	89 8c 24 cc 00
	00 00		 mov	 DWORD PTR tv204[rsp], ecx
  00431	48 8b 94 24 80
	00 00 00	 mov	 rdx, QWORD PTR dev$[rsp]
  00439	0f b7 52 48	 movzx	 edx, WORD PTR [rdx+72]
  0043d	89 94 24 d0 00
	00 00		 mov	 DWORD PTR tv209[rsp], edx
  00444	48 8b bc 24 80
	00 00 00	 mov	 rdi, QWORD PTR dev$[rsp]
  0044c	0f b7 7f 44	 movzx	 edi, WORD PTR [rdi+68]
  00450	d1 ff		 sar	 edi, 1
  00452	b9 01 00 00 00	 mov	 ecx, 1
  00457	ff 15 00 00 00
	00		 call	 QWORD PTR __imp___acrt_iob_func
  0045d	48 8b 8c 24 f0
	00 00 00	 mov	 rcx, QWORD PTR tv194[rsp]
  00465	48 89 4c 24 70	 mov	 QWORD PTR [rsp+112], rcx
  0046a	48 8b 8c 24 80
	00 00 00	 mov	 rcx, QWORD PTR dev$[rsp]
  00472	8b 89 58 07 00
	00		 mov	 ecx, DWORD PTR [rcx+1880]
  00478	89 4c 24 68	 mov	 DWORD PTR [rsp+104], ecx
  0047c	48 8b 8c 24 b0
	00 00 00	 mov	 rcx, QWORD PTR remaddr$[rsp]
  00484	48 89 4c 24 60	 mov	 QWORD PTR [rsp+96], rcx
  00489	8b 8c 24 c8 00
	00 00		 mov	 ecx, DWORD PTR tv200[rsp]
  00490	89 4c 24 58	 mov	 DWORD PTR [rsp+88], ecx
  00494	8b 8c 24 cc 00
	00 00		 mov	 ecx, DWORD PTR tv204[rsp]
  0049b	89 4c 24 50	 mov	 DWORD PTR [rsp+80], ecx
  0049f	48 8b 8c 24 80
	00 00 00	 mov	 rcx, QWORD PTR dev$[rsp]
  004a7	8b 89 50 07 00
	00		 mov	 ecx, DWORD PTR [rcx+1872]
  004ad	89 4c 24 48	 mov	 DWORD PTR [rsp+72], ecx
  004b1	8b 8c 24 d0 00
	00 00		 mov	 ecx, DWORD PTR tv209[rsp]
  004b8	89 4c 24 40	 mov	 DWORD PTR [rsp+64], ecx
  004bc	89 7c 24 38	 mov	 DWORD PTR [rsp+56], edi
  004c0	48 8d 0d 00 00
	00 00		 lea	 rcx, OFFSET FLAT:$SG170376
  004c7	48 89 4c 24 30	 mov	 QWORD PTR [rsp+48], rcx
  004cc	48 8d 0d 00 00
	00 00		 lea	 rcx, OFFSET FLAT:$SG170377
  004d3	48 89 4c 24 28	 mov	 QWORD PTR [rsp+40], rcx
  004d8	48 89 44 24 20	 mov	 QWORD PTR [rsp+32], rax
  004dd	41 b9 03 00 00
	00		 mov	 r9d, 3
  004e3	4c 8d 05 00 00
	00 00		 lea	 r8, OFFSET FLAT:$SG170378
  004ea	ba 47 0e 00 00	 mov	 edx, 3655		; 00000e47H
  004ef	48 8d 0d 00 00
	00 00		 lea	 rcx, OFFSET FLAT:$SG170379
  004f6	ff 15 00 00 00
	00		 call	 QWORD PTR __imp_fwritemsg
$LN10@CTCE_Conne:
$LN9@CTCE_Conne:

; 3653 :                 CTCX_DEVNUM( dev ), dev->ctce_lport, SSID_TO_LCSS(dev->ssid),
; 3654 :                 dev->ctce_rccuu, remaddr, dev->ctce_rport,
; 3655 :                 --dev->ctce_trace_cntr ? "" : "." );
; 3656 :         }
; 3657 : 
; 3658 :     // We connect to the other side, but this will keep on failing
; 3659 :     // until the other side has started listening with accept(),
; 3660 :     // provided no DETACH or DEVINIT command was issued before.
; 3661 :     } while ( ( rc < 0 ) && dev->allocated);

  004fc	83 bc 24 8c 00
	00 00 00	 cmp	 DWORD PTR rc$[rsp], 0
  00504	7d 12		 jge	 SHORT $LN11@CTCE_Conne
  00506	48 8b 84 24 80
	00 00 00	 mov	 rax, QWORD PTR dev$[rsp]
  0050e	83 78 40 00	 cmp	 DWORD PTR [rax+64], 0
  00512	0f 85 9b fb ff
	ff		 jne	 $LN4@CTCE_Conne
$LN11@CTCE_Conne:

; 3662 : 
; 3663 :     // If we connected OK then send/write socket fd is now known.
; 3664 :     if ( rc == 0 )

  00518	83 bc 24 8c 00
	00 00 00	 cmp	 DWORD PTR rc$[rsp], 0
  00520	0f 85 74 01 00
	00		 jne	 $LN12@CTCE_Conne

; 3665 :     {
; 3666 :         renewed = ( dev->fd != -1 ) ? 1 : 0;

  00526	48 8b 84 24 80
	00 00 00	 mov	 rax, QWORD PTR dev$[rsp]
  0052e	83 b8 ac 01 00
	00 ff		 cmp	 DWORD PTR [rax+428], -1
  00535	74 0d		 je	 SHORT $LN19@CTCE_Conne
  00537	c7 84 24 a8 00
	00 00 01 00 00
	00		 mov	 DWORD PTR tv230[rsp], 1
  00542	eb 0b		 jmp	 SHORT $LN20@CTCE_Conne
$LN19@CTCE_Conne:
  00544	c7 84 24 a8 00
	00 00 00 00 00
	00		 mov	 DWORD PTR tv230[rsp], 0
$LN20@CTCE_Conne:
  0054f	0f b6 84 24 a8
	00 00 00	 movzx	 eax, BYTE PTR tv230[rsp]
  00557	88 84 24 88 00
	00 00		 mov	 BYTE PTR renewed$[rsp], al

; 3667 :         dev->fd = fd;

  0055e	48 8b 84 24 80
	00 00 00	 mov	 rax, QWORD PTR dev$[rsp]
  00566	8b 8c 24 90 00
	00 00		 mov	 ecx, DWORD PTR fd$[rsp]
  0056d	89 88 ac 01 00
	00		 mov	 DWORD PTR [rax+428], ecx

; 3668 : 
; 3669 :         WRMSG( HHC05054, "I",  // CTCE: %s outbound connection :%5d -> %1d:%04X=%s:%d"

  00573	0f b6 84 24 88
	00 00 00	 movzx	 eax, BYTE PTR renewed$[rsp]
  0057b	85 c0		 test	 eax, eax
  0057d	74 11		 je	 SHORT $LN21@CTCE_Conne
  0057f	48 8d 05 00 00
	00 00		 lea	 rax, OFFSET FLAT:$SG170383
  00586	48 89 84 24 f8
	00 00 00	 mov	 QWORD PTR tv247[rsp], rax
  0058e	eb 0f		 jmp	 SHORT $LN22@CTCE_Conne
$LN21@CTCE_Conne:
  00590	48 8d 05 00 00
	00 00		 lea	 rax, OFFSET FLAT:$SG170384
  00597	48 89 84 24 f8
	00 00 00	 mov	 QWORD PTR tv247[rsp], rax
$LN22@CTCE_Conne:
  0059f	48 8b 84 24 80
	00 00 00	 mov	 rax, QWORD PTR dev$[rsp]
  005a7	0f b7 80 64 07
	00 00		 movzx	 eax, WORD PTR [rax+1892]
  005ae	89 84 24 d4 00
	00 00		 mov	 DWORD PTR tv237[rsp], eax
  005b5	48 8b 8c 24 80
	00 00 00	 mov	 rcx, QWORD PTR dev$[rsp]
  005bd	0f b7 49 44	 movzx	 ecx, WORD PTR [rcx+68]
  005c1	d1 f9		 sar	 ecx, 1
  005c3	89 8c 24 d8 00
	00 00		 mov	 DWORD PTR tv241[rsp], ecx
  005ca	48 8b 94 24 80
	00 00 00	 mov	 rdx, QWORD PTR dev$[rsp]
  005d2	0f b7 52 48	 movzx	 edx, WORD PTR [rdx+72]
  005d6	89 94 24 dc 00
	00 00		 mov	 DWORD PTR tv250[rsp], edx
  005dd	48 8b bc 24 80
	00 00 00	 mov	 rdi, QWORD PTR dev$[rsp]
  005e5	0f b7 7f 44	 movzx	 edi, WORD PTR [rdi+68]
  005e9	d1 ff		 sar	 edi, 1
  005eb	b9 01 00 00 00	 mov	 ecx, 1
  005f0	ff 15 00 00 00
	00		 call	 QWORD PTR __imp___acrt_iob_func
  005f6	48 8b 8c 24 80
	00 00 00	 mov	 rcx, QWORD PTR dev$[rsp]
  005fe	8b 89 58 07 00
	00		 mov	 ecx, DWORD PTR [rcx+1880]
  00604	89 4c 24 70	 mov	 DWORD PTR [rsp+112], ecx
  00608	48 8b 8c 24 b0
	00 00 00	 mov	 rcx, QWORD PTR remaddr$[rsp]
  00610	48 89 4c 24 68	 mov	 QWORD PTR [rsp+104], rcx
  00615	8b 8c 24 d4 00
	00 00		 mov	 ecx, DWORD PTR tv237[rsp]
  0061c	89 4c 24 60	 mov	 DWORD PTR [rsp+96], ecx
  00620	8b 8c 24 d8 00
	00 00		 mov	 ecx, DWORD PTR tv241[rsp]
  00627	89 4c 24 58	 mov	 DWORD PTR [rsp+88], ecx
  0062b	48 8b 8c 24 80
	00 00 00	 mov	 rcx, QWORD PTR dev$[rsp]
  00633	8b 89 54 07 00
	00		 mov	 ecx, DWORD PTR [rcx+1876]
  00639	89 4c 24 50	 mov	 DWORD PTR [rsp+80], ecx
  0063d	48 8b 8c 24 f8
	00 00 00	 mov	 rcx, QWORD PTR tv247[rsp]
  00645	48 89 4c 24 48	 mov	 QWORD PTR [rsp+72], rcx
  0064a	8b 8c 24 dc 00
	00 00		 mov	 ecx, DWORD PTR tv250[rsp]
  00651	89 4c 24 40	 mov	 DWORD PTR [rsp+64], ecx
  00655	89 7c 24 38	 mov	 DWORD PTR [rsp+56], edi
  00659	48 8d 0d 00 00
	00 00		 lea	 rcx, OFFSET FLAT:$SG170385
  00660	48 89 4c 24 30	 mov	 QWORD PTR [rsp+48], rcx
  00665	48 8d 0d 00 00
	00 00		 lea	 rcx, OFFSET FLAT:$SG170386
  0066c	48 89 4c 24 28	 mov	 QWORD PTR [rsp+40], rcx
  00671	48 89 44 24 20	 mov	 QWORD PTR [rsp+32], rax
  00676	41 b9 03 00 00
	00		 mov	 r9d, 3
  0067c	4c 8d 05 00 00
	00 00		 lea	 r8, OFFSET FLAT:$SG170387
  00683	ba 58 0e 00 00	 mov	 edx, 3672		; 00000e58H
  00688	48 8d 0d 00 00
	00 00		 lea	 rcx, OFFSET FLAT:$SG170388
  0068f	ff 15 00 00 00
	00		 call	 QWORD PTR __imp_fwritemsg

; 3670 :             CTCX_DEVNUM( dev ), ( renewed ? "Renewed" : "Started" ),
; 3671 :             dev->ctce_connect_lport, SSID_TO_LCSS( dev->ssid ),
; 3672 :             dev->ctce_rccuu, remaddr, dev->ctce_rport );
; 3673 :     }

  00695	e9 0c 01 00 00	 jmp	 $LN13@CTCE_Conne
$LN12@CTCE_Conne:

; 3674 : 
; 3675 :     // If the connection was not successful then we either encountered an
; 3676 :     // error, or the user decided to quit before starting the other side.
; 3677 :     else
; 3678 :     {
; 3679 :         WRMSG( HHC05078, "I",  // CTCE: Aborted outbound connection :%5d -> %1d:%04X=%s:%d"

  0069a	48 8b 84 24 80
	00 00 00	 mov	 rax, QWORD PTR dev$[rsp]
  006a2	0f b7 80 64 07
	00 00		 movzx	 eax, WORD PTR [rax+1892]
  006a9	89 84 24 e0 00
	00 00		 mov	 DWORD PTR tv269[rsp], eax
  006b0	48 8b 8c 24 80
	00 00 00	 mov	 rcx, QWORD PTR dev$[rsp]
  006b8	0f b7 49 44	 movzx	 ecx, WORD PTR [rcx+68]
  006bc	d1 f9		 sar	 ecx, 1
  006be	89 8c 24 e4 00
	00 00		 mov	 DWORD PTR tv273[rsp], ecx
  006c5	48 8b 94 24 80
	00 00 00	 mov	 rdx, QWORD PTR dev$[rsp]
  006cd	0f b7 52 48	 movzx	 edx, WORD PTR [rdx+72]
  006d1	89 94 24 e8 00
	00 00		 mov	 DWORD PTR tv278[rsp], edx
  006d8	48 8b bc 24 80
	00 00 00	 mov	 rdi, QWORD PTR dev$[rsp]
  006e0	0f b7 7f 44	 movzx	 edi, WORD PTR [rdi+68]
  006e4	d1 ff		 sar	 edi, 1
  006e6	b9 01 00 00 00	 mov	 ecx, 1
  006eb	ff 15 00 00 00
	00		 call	 QWORD PTR __imp___acrt_iob_func
  006f1	48 8b 8c 24 80
	00 00 00	 mov	 rcx, QWORD PTR dev$[rsp]
  006f9	8b 89 58 07 00
	00		 mov	 ecx, DWORD PTR [rcx+1880]
  006ff	89 4c 24 68	 mov	 DWORD PTR [rsp+104], ecx
  00703	48 8b 8c 24 b0
	00 00 00	 mov	 rcx, QWORD PTR remaddr$[rsp]
  0070b	48 89 4c 24 60	 mov	 QWORD PTR [rsp+96], rcx
  00710	8b 8c 24 e0 00
	00 00		 mov	 ecx, DWORD PTR tv269[rsp]
  00717	89 4c 24 58	 mov	 DWORD PTR [rsp+88], ecx
  0071b	8b 8c 24 e4 00
	00 00		 mov	 ecx, DWORD PTR tv273[rsp]
  00722	89 4c 24 50	 mov	 DWORD PTR [rsp+80], ecx
  00726	48 8b 8c 24 80
	00 00 00	 mov	 rcx, QWORD PTR dev$[rsp]
  0072e	8b 89 50 07 00
	00		 mov	 ecx, DWORD PTR [rcx+1872]
  00734	89 4c 24 48	 mov	 DWORD PTR [rsp+72], ecx
  00738	8b 8c 24 e8 00
	00 00		 mov	 ecx, DWORD PTR tv278[rsp]
  0073f	89 4c 24 40	 mov	 DWORD PTR [rsp+64], ecx
  00743	89 7c 24 38	 mov	 DWORD PTR [rsp+56], edi
  00747	48 8d 0d 00 00
	00 00		 lea	 rcx, OFFSET FLAT:$SG170389
  0074e	48 89 4c 24 30	 mov	 QWORD PTR [rsp+48], rcx
  00753	48 8d 0d 00 00
	00 00		 lea	 rcx, OFFSET FLAT:$SG170390
  0075a	48 89 4c 24 28	 mov	 QWORD PTR [rsp+40], rcx
  0075f	48 89 44 24 20	 mov	 QWORD PTR [rsp+32], rax
  00764	41 b9 03 00 00
	00		 mov	 r9d, 3
  0076a	4c 8d 05 00 00
	00 00		 lea	 r8, OFFSET FLAT:$SG170391
  00771	ba 61 0e 00 00	 mov	 edx, 3681		; 00000e61H
  00776	48 8d 0d 00 00
	00 00		 lea	 rcx, OFFSET FLAT:$SG170392
  0077d	ff 15 00 00 00
	00		 call	 QWORD PTR __imp_fwritemsg

; 3680 :             CTCX_DEVNUM( dev ), dev->ctce_lport, SSID_TO_LCSS(dev->ssid),
; 3681 :             dev->ctce_rccuu, remaddr, dev->ctce_rport );
; 3682 :         shutdown( fd, SHUT_RDWR );

  00783	48 63 84 24 90
	00 00 00	 movsxd	 rax, DWORD PTR fd$[rsp]
  0078b	ba 02 00 00 00	 mov	 edx, 2
  00790	48 8b c8	 mov	 rcx, rax
  00793	ff 15 00 00 00
	00		 call	 QWORD PTR __imp_shutdown

; 3683 :         close_socket( fd );

  00799	8b 8c 24 90 00
	00 00		 mov	 ecx, DWORD PTR fd$[rsp]
  007a0	ff 15 00 00 00
	00		 call	 QWORD PTR __imp_w32_close_socket
$LN13@CTCE_Conne:

; 3684 :     }
; 3685 : 
; 3686 :     release_lock( &dev->lock );

  007a6	48 8b 84 24 80
	00 00 00	 mov	 rax, QWORD PTR dev$[rsp]
  007ae	48 83 c0 38	 add	 rax, 56			; 00000038H
  007b2	48 8d 15 00 00
	00 00		 lea	 rdx, OFFSET FLAT:$SG170393
  007b9	48 8b c8	 mov	 rcx, rax
  007bc	ff 15 00 00 00
	00		 call	 QWORD PTR __imp_hthread_release_lock

; 3687 :     return NULL;

  007c2	33 c0		 xor	 eax, eax
$LN1@CTCE_Conne:

; 3688 : 
; 3689 : } // CTCE_ConnectThread

  007c4	48 8b 8c 24 28
	01 00 00	 mov	 rcx, QWORD PTR __$ArrayPad$[rsp]
  007cc	48 33 cc	 xor	 rcx, rsp
  007cf	e8 00 00 00 00	 call	 __security_check_cookie
  007d4	48 81 c4 30 01
	00 00		 add	 rsp, 304		; 00000130H
  007db	5f		 pop	 rdi
  007dc	c3		 ret	 0
CTCE_ConnectThread ENDP
_TEXT	ENDS
; Function compile flags: /Odtp
; File C:\papa\MyGit\hyperion-zvector\ctcadpt.c
_TEXT	SEGMENT
ctce_Cmd$ = 208
ctce_state_verify$ = 209
ctce_state_r_xy$ = 212
ctce_state_l_xy$ = 216
ctce_PktSeq$ = 220
pSokBuf$ = 224
tv93 = 232
tv95 = 236
tv132 = 240
tv156 = 244
tv157 = 248
tv184 = 252
tv185 = 256
tv219 = 260
tv220 = 264
tv247 = 268
tv248 = 272
tv279 = 276
tv280 = 280
tv307 = 284
tv308 = 288
tv331 = 292
tv338 = 296
tv362 = 300
tv363 = 304
tv390 = 308
tv391 = 312
tv423 = 316
tv424 = 320
tv451 = 324
tv452 = 328
tv481 = 332
tv482 = 336
tv509 = 340
tv510 = 344
tv678 = 348
tv679 = 352
tv796 = 356
tv894 = 360
tv895 = 364
tv1001 = 368
tv1002 = 372
tv1049 = 376
tv92 = 380
tv965 = 384
tv971 = 388
tv979 = 392
tv333 = 396
$T1 = 400
tv912 = 408
tv918 = 416
tv924 = 424
tv962 = 432
tv1091 = 440
tv974 = 448
tv1092 = 456
tv1003 = 464
ctce_devnum$ = 472
ctce_trace_stat$ = 480
ctce_trace_xtra_temp$ = 512
ctce_trace_xtra$ = 768
__$ArrayPad$ = 1024
pDEVBLK$ = 1104
eCTCE_Cmd_Xfr$ = 1112
pCTCE_Info$ = 1120
pUnitStat$ = 1128
CTCE_Trace PROC

; 3181 : {

  00000	4c 89 4c 24 20	 mov	 QWORD PTR [rsp+32], r9
  00005	4c 89 44 24 18	 mov	 QWORD PTR [rsp+24], r8
  0000a	89 54 24 10	 mov	 DWORD PTR [rsp+16], edx
  0000e	48 89 4c 24 08	 mov	 QWORD PTR [rsp+8], rcx
  00013	53		 push	 rbx
  00014	55		 push	 rbp
  00015	56		 push	 rsi
  00016	57		 push	 rdi
  00017	41 56		 push	 r14
  00019	41 57		 push	 r15
  0001b	48 81 ec 18 04
	00 00		 sub	 rsp, 1048		; 00000418H
  00022	48 8b 05 00 00
	00 00		 mov	 rax, QWORD PTR __security_cookie
  00029	48 33 c4	 xor	 rax, rsp
  0002c	48 89 84 24 00
	04 00 00	 mov	 QWORD PTR __$ArrayPad$[rsp], rax

; 3182 :     static char *CTCE_XfrStr[5] = {
; 3183 :         "--" ,  //  0 = CTCE_LCL
; 3184 :         "->" ,  //  1 = CTCE_SND
; 3185 :         "<-" ,  //  2 = CTCE_RCV
; 3186 :         "-|" ,  //  3 = CTCE_SND_NS
; 3187 :         "||"    //  4 = CTCE_SND_NSR
; 3188 :     };
; 3189 :     BYTE           ctce_Cmd;                   // CTCE command being traced
; 3190 :     BYTE           ctce_PktSeq;                // Packet Sequence number traced
; 3191 :     CTCE_SOKPFX   *pSokBuf;                    // overlay for buf inside DEVBLK
; 3192 :     BYTE           ctce_state_verify;          // CTCE state to be verfified
; 3193 :     char           ctce_state_l_xy[2];         // CTCE X+Y states, left
; 3194 :     char           ctce_state_r_xy[2];         // CTCE X+Y stares, right
; 3195 :     char           ctce_trace_stat[24];        // to contain " Stat=.. CC=. w=.,r=."
; 3196 :     char           ctce_trace_xtra[256];       // to contain extra info when tracing
; 3197 :     char           ctce_trace_xtra_temp[256];  // temporary work area for the above
; 3198 :     char           ctce_devnum[8];             // for ccwtrace packet trace information
; 3199 : 
; 3200 :     // The source for reporting dependings on the Command X-fer
; 3201 :     // direction.  The CTCE states are reported in lower case,
; 3202 :     // but a changed state is highlighted in upper case.
; 3203 :     if( eCTCE_Cmd_Xfr == CTCE_RCV )

  00034	83 bc 24 58 04
	00 00 02	 cmp	 DWORD PTR eCTCE_Cmd_Xfr$[rsp], 2
  0003c	0f 85 21 06 00
	00		 jne	 $LN2@CTCE_Trace

; 3204 :     {
; 3205 :         pSokBuf = ( CTCE_SOKPFX* ) ( pDEVBLK->buf +

  00042	48 8b 84 24 50
	04 00 00	 mov	 rax, QWORD PTR pDEVBLK$[rsp]
  0004a	8b 80 18 07 00
	00		 mov	 eax, DWORD PTR [rax+1816]
  00050	83 e0 01	 and	 eax, 1
  00053	85 c0		 test	 eax, eax
  00055	75 75		 jne	 SHORT $LN50@CTCE_Trace
  00057	48 8b 84 24 50
	04 00 00	 mov	 rax, QWORD PTR pDEVBLK$[rsp]
  0005f	8b 80 74 07 00
	00		 mov	 eax, DWORD PTR [rax+1908]
  00065	c1 e8 03	 shr	 eax, 3
  00068	83 e0 01	 and	 eax, 1
  0006b	85 c0		 test	 eax, eax
  0006d	75 5d		 jne	 SHORT $LN50@CTCE_Trace
  0006f	48 8b 84 24 50
	04 00 00	 mov	 rax, QWORD PTR pDEVBLK$[rsp]
  00077	0f b6 80 37 07
	00 00		 movzx	 eax, BYTE PTR [rax+1847]
  0007e	48 8d 0d 00 00
	00 00		 lea	 rcx, OFFSET FLAT:CTCE_command
  00085	0f b6 04 01	 movzx	 eax, BYTE PTR [rcx+rax]
  00089	83 f8 07	 cmp	 eax, 7
  0008c	75 0d		 jne	 SHORT $LN51@CTCE_Trace
  0008e	c7 84 24 7c 01
	00 00 03 00 00
	00		 mov	 DWORD PTR tv92[rsp], 3
  00099	eb 21		 jmp	 SHORT $LN52@CTCE_Trace
$LN51@CTCE_Trace:
  0009b	48 8b 84 24 50
	04 00 00	 mov	 rax, QWORD PTR pDEVBLK$[rsp]
  000a3	0f b6 80 37 07
	00 00		 movzx	 eax, BYTE PTR [rax+1847]
  000aa	48 8d 0d 00 00
	00 00		 lea	 rcx, OFFSET FLAT:CTCE_command
  000b1	0f b6 04 01	 movzx	 eax, BYTE PTR [rcx+rax]
  000b5	89 84 24 7c 01
	00 00		 mov	 DWORD PTR tv92[rsp], eax
$LN52@CTCE_Trace:
  000bc	8b 84 24 7c 01
	00 00		 mov	 eax, DWORD PTR tv92[rsp]
  000c3	89 84 24 e8 00
	00 00		 mov	 DWORD PTR tv93[rsp], eax
  000ca	eb 21		 jmp	 SHORT $LN53@CTCE_Trace
$LN50@CTCE_Trace:
  000cc	48 8b 84 24 50
	04 00 00	 mov	 rax, QWORD PTR pDEVBLK$[rsp]
  000d4	0f b6 80 37 07
	00 00		 movzx	 eax, BYTE PTR [rax+1847]
  000db	48 8d 0d 00 00
	00 00		 lea	 rcx, OFFSET FLAT:CTCE_command
  000e2	0f b6 04 01	 movzx	 eax, BYTE PTR [rcx+rax]
  000e6	89 84 24 e8 00
	00 00		 mov	 DWORD PTR tv93[rsp], eax
$LN53@CTCE_Trace:
  000ed	83 bc 24 e8 00
	00 00 03	 cmp	 DWORD PTR tv93[rsp], 3
  000f5	75 0d		 jne	 SHORT $LN54@CTCE_Trace
  000f7	c7 84 24 ec 00
	00 00 01 00 00
	00		 mov	 DWORD PTR tv95[rsp], 1
  00102	eb 0b		 jmp	 SHORT $LN55@CTCE_Trace
$LN54@CTCE_Trace:
  00104	c7 84 24 ec 00
	00 00 00 00 00
	00		 mov	 DWORD PTR tv95[rsp], 0
$LN55@CTCE_Trace:
  0010f	48 8b 84 24 50
	04 00 00	 mov	 rax, QWORD PTR pDEVBLK$[rsp]
  00117	8b 80 74 07 00
	00		 mov	 eax, DWORD PTR [rax+1908]
  0011d	c1 e8 06	 shr	 eax, 6
  00120	83 e0 01	 and	 eax, 1
  00123	33 84 24 ec 00
	00 00		 xor	 eax, DWORD PTR tv95[rsp]
  0012a	85 c0		 test	 eax, eax
  0012c	74 0d		 je	 SHORT $LN56@CTCE_Trace
  0012e	c7 84 24 f0 00
	00 00 00 00 00
	00		 mov	 DWORD PTR tv132[rsp], 0
  00139	eb 1a		 jmp	 SHORT $LN57@CTCE_Trace
$LN56@CTCE_Trace:
  0013b	48 8b 84 24 50
	04 00 00	 mov	 rax, QWORD PTR pDEVBLK$[rsp]
  00143	8b 80 d8 01 00
	00		 mov	 eax, DWORD PTR [rax+472]
  00149	99		 cdq
  0014a	2b c2		 sub	 eax, edx
  0014c	d1 f8		 sar	 eax, 1
  0014e	89 84 24 f0 00
	00 00		 mov	 DWORD PTR tv132[rsp], eax
$LN57@CTCE_Trace:
  00155	48 63 84 24 f0
	00 00 00	 movsxd	 rax, DWORD PTR tv132[rsp]
  0015d	48 8b 8c 24 50
	04 00 00	 mov	 rcx, QWORD PTR pDEVBLK$[rsp]
  00165	48 03 81 c8 01
	00 00		 add	 rax, QWORD PTR [rcx+456]
  0016c	48 89 84 24 e0
	00 00 00	 mov	 QWORD PTR pSokBuf$[rsp], rax

; 3206 :             ( pDEVBLK->ctce_buf_next_write ^ IS_CTCE_CCW_WRT( pDEVBLK->ctceyCmd )
; 3207 :             ? 0 : pDEVBLK->bufsize / 2 ) );
; 3208 :         ctce_Cmd    = pSokBuf->CmdReg;

  00174	48 8b 84 24 e0
	00 00 00	 mov	 rax, QWORD PTR pSokBuf$[rsp]
  0017c	0f b6 00	 movzx	 eax, BYTE PTR [rax]
  0017f	88 84 24 d0 00
	00 00		 mov	 BYTE PTR ctce_Cmd$[rsp], al

; 3209 :         ctce_PktSeq = pSokBuf->PktSeq;

  00186	48 8b 84 24 e0
	00 00 00	 mov	 rax, QWORD PTR pSokBuf$[rsp]
  0018e	0f b6 40 04	 movzx	 eax, BYTE PTR [rax+4]
  00192	88 84 24 dc 00
	00 00		 mov	 BYTE PTR ctce_PktSeq$[rsp], al

; 3210 :         ctce_state_r_xy[0] = 32 + *CTCE_StaStr[CTCE_STATE( pCTCE_Info->state_x_prev )];

  00199	48 8b 84 24 50
	04 00 00	 mov	 rax, QWORD PTR pDEVBLK$[rsp]
  001a1	8b 80 18 07 00
	00		 mov	 eax, DWORD PTR [rax+1816]
  001a7	83 e0 01	 and	 eax, 1
  001aa	85 c0		 test	 eax, eax
  001ac	75 5f		 jne	 SHORT $LN58@CTCE_Trace
  001ae	48 8b 84 24 50
	04 00 00	 mov	 rax, QWORD PTR pDEVBLK$[rsp]
  001b6	8b 80 74 07 00
	00		 mov	 eax, DWORD PTR [rax+1908]
  001bc	c1 e8 03	 shr	 eax, 3
  001bf	83 e0 01	 and	 eax, 1
  001c2	85 c0		 test	 eax, eax
  001c4	75 47		 jne	 SHORT $LN58@CTCE_Trace
  001c6	48 8b 84 24 60
	04 00 00	 mov	 rax, QWORD PTR pCTCE_Info$[rsp]
  001ce	0f b6 40 04	 movzx	 eax, BYTE PTR [rax+4]
  001d2	83 e0 07	 and	 eax, 7
  001d5	83 f8 05	 cmp	 eax, 5
  001d8	75 0d		 jne	 SHORT $LN59@CTCE_Trace
  001da	c7 84 24 f4 00
	00 00 04 00 00
	00		 mov	 DWORD PTR tv156[rsp], 4
  001e5	eb 16		 jmp	 SHORT $LN60@CTCE_Trace
$LN59@CTCE_Trace:
  001e7	48 8b 84 24 60
	04 00 00	 mov	 rax, QWORD PTR pCTCE_Info$[rsp]
  001ef	0f b6 40 04	 movzx	 eax, BYTE PTR [rax+4]
  001f3	83 e0 07	 and	 eax, 7
  001f6	89 84 24 f4 00
	00 00		 mov	 DWORD PTR tv156[rsp], eax
$LN60@CTCE_Trace:
  001fd	8b 84 24 f4 00
	00 00		 mov	 eax, DWORD PTR tv156[rsp]
  00204	89 84 24 f8 00
	00 00		 mov	 DWORD PTR tv157[rsp], eax
  0020b	eb 16		 jmp	 SHORT $LN61@CTCE_Trace
$LN58@CTCE_Trace:
  0020d	48 8b 84 24 60
	04 00 00	 mov	 rax, QWORD PTR pCTCE_Info$[rsp]
  00215	0f b6 40 04	 movzx	 eax, BYTE PTR [rax+4]
  00219	83 e0 07	 and	 eax, 7
  0021c	89 84 24 f8 00
	00 00		 mov	 DWORD PTR tv157[rsp], eax
$LN61@CTCE_Trace:
  00223	48 63 84 24 f8
	00 00 00	 movsxd	 rax, DWORD PTR tv157[rsp]
  0022b	48 8d 0d 00 00
	00 00		 lea	 rcx, OFFSET FLAT:CTCE_StaStr
  00232	48 8b 04 c1	 mov	 rax, QWORD PTR [rcx+rax*8]
  00236	0f be 00	 movsx	 eax, BYTE PTR [rax]
  00239	83 c0 20	 add	 eax, 32			; 00000020H
  0023c	b9 01 00 00 00	 mov	 ecx, 1
  00241	48 6b c9 00	 imul	 rcx, rcx, 0
  00245	88 84 0c d4 00
	00 00		 mov	 BYTE PTR ctce_state_r_xy$[rsp+rcx], al

; 3211 :         ctce_state_r_xy[1] = 32 + *CTCE_StaStr[CTCE_STATE( pCTCE_Info->state_y_prev )];

  0024c	48 8b 84 24 50
	04 00 00	 mov	 rax, QWORD PTR pDEVBLK$[rsp]
  00254	8b 80 18 07 00
	00		 mov	 eax, DWORD PTR [rax+1816]
  0025a	83 e0 01	 and	 eax, 1
  0025d	85 c0		 test	 eax, eax
  0025f	75 5f		 jne	 SHORT $LN62@CTCE_Trace
  00261	48 8b 84 24 50
	04 00 00	 mov	 rax, QWORD PTR pDEVBLK$[rsp]
  00269	8b 80 74 07 00
	00		 mov	 eax, DWORD PTR [rax+1908]
  0026f	c1 e8 03	 shr	 eax, 3
  00272	83 e0 01	 and	 eax, 1
  00275	85 c0		 test	 eax, eax
  00277	75 47		 jne	 SHORT $LN62@CTCE_Trace
  00279	48 8b 84 24 60
	04 00 00	 mov	 rax, QWORD PTR pCTCE_Info$[rsp]
  00281	0f b6 40 05	 movzx	 eax, BYTE PTR [rax+5]
  00285	83 e0 07	 and	 eax, 7
  00288	83 f8 05	 cmp	 eax, 5
  0028b	75 0d		 jne	 SHORT $LN63@CTCE_Trace
  0028d	c7 84 24 fc 00
	00 00 04 00 00
	00		 mov	 DWORD PTR tv184[rsp], 4
  00298	eb 16		 jmp	 SHORT $LN64@CTCE_Trace
$LN63@CTCE_Trace:
  0029a	48 8b 84 24 60
	04 00 00	 mov	 rax, QWORD PTR pCTCE_Info$[rsp]
  002a2	0f b6 40 05	 movzx	 eax, BYTE PTR [rax+5]
  002a6	83 e0 07	 and	 eax, 7
  002a9	89 84 24 fc 00
	00 00		 mov	 DWORD PTR tv184[rsp], eax
$LN64@CTCE_Trace:
  002b0	8b 84 24 fc 00
	00 00		 mov	 eax, DWORD PTR tv184[rsp]
  002b7	89 84 24 00 01
	00 00		 mov	 DWORD PTR tv185[rsp], eax
  002be	eb 16		 jmp	 SHORT $LN65@CTCE_Trace
$LN62@CTCE_Trace:
  002c0	48 8b 84 24 60
	04 00 00	 mov	 rax, QWORD PTR pCTCE_Info$[rsp]
  002c8	0f b6 40 05	 movzx	 eax, BYTE PTR [rax+5]
  002cc	83 e0 07	 and	 eax, 7
  002cf	89 84 24 00 01
	00 00		 mov	 DWORD PTR tv185[rsp], eax
$LN65@CTCE_Trace:
  002d6	48 63 84 24 00
	01 00 00	 movsxd	 rax, DWORD PTR tv185[rsp]
  002de	48 8d 0d 00 00
	00 00		 lea	 rcx, OFFSET FLAT:CTCE_StaStr
  002e5	48 8b 04 c1	 mov	 rax, QWORD PTR [rcx+rax*8]
  002e9	0f be 00	 movsx	 eax, BYTE PTR [rax]
  002ec	83 c0 20	 add	 eax, 32			; 00000020H
  002ef	b9 01 00 00 00	 mov	 ecx, 1
  002f4	48 6b c9 01	 imul	 rcx, rcx, 1
  002f8	88 84 0c d4 00
	00 00		 mov	 BYTE PTR ctce_state_r_xy$[rsp+rcx], al

; 3212 :         if( ( pDEVBLK->ctcexState & 0x07 ) == ( pCTCE_Info->state_x_prev & 0x07 ) )

  002ff	48 8b 84 24 50
	04 00 00	 mov	 rax, QWORD PTR pDEVBLK$[rsp]
  00307	0f b6 80 34 07
	00 00		 movzx	 eax, BYTE PTR [rax+1844]
  0030e	83 e0 07	 and	 eax, 7
  00311	48 8b 8c 24 60
	04 00 00	 mov	 rcx, QWORD PTR pCTCE_Info$[rsp]
  00319	0f b6 49 04	 movzx	 ecx, BYTE PTR [rcx+4]
  0031d	83 e1 07	 and	 ecx, 7
  00320	3b c1		 cmp	 eax, ecx
  00322	0f 85 c1 00 00
	00		 jne	 $LN4@CTCE_Trace

; 3213 :         {
; 3214 :             ctce_state_l_xy[0] = 32 + *CTCE_StaStr[CTCE_STATE( pDEVBLK->ctcexState )];

  00328	48 8b 84 24 50
	04 00 00	 mov	 rax, QWORD PTR pDEVBLK$[rsp]
  00330	8b 80 18 07 00
	00		 mov	 eax, DWORD PTR [rax+1816]
  00336	83 e0 01	 and	 eax, 1
  00339	85 c0		 test	 eax, eax
  0033b	75 65		 jne	 SHORT $LN66@CTCE_Trace
  0033d	48 8b 84 24 50
	04 00 00	 mov	 rax, QWORD PTR pDEVBLK$[rsp]
  00345	8b 80 74 07 00
	00		 mov	 eax, DWORD PTR [rax+1908]
  0034b	c1 e8 03	 shr	 eax, 3
  0034e	83 e0 01	 and	 eax, 1
  00351	85 c0		 test	 eax, eax
  00353	75 4d		 jne	 SHORT $LN66@CTCE_Trace
  00355	48 8b 84 24 50
	04 00 00	 mov	 rax, QWORD PTR pDEVBLK$[rsp]
  0035d	0f b6 80 34 07
	00 00		 movzx	 eax, BYTE PTR [rax+1844]
  00364	83 e0 07	 and	 eax, 7
  00367	83 f8 05	 cmp	 eax, 5
  0036a	75 0d		 jne	 SHORT $LN67@CTCE_Trace
  0036c	c7 84 24 04 01
	00 00 04 00 00
	00		 mov	 DWORD PTR tv219[rsp], 4
  00377	eb 19		 jmp	 SHORT $LN68@CTCE_Trace
$LN67@CTCE_Trace:
  00379	48 8b 84 24 50
	04 00 00	 mov	 rax, QWORD PTR pDEVBLK$[rsp]
  00381	0f b6 80 34 07
	00 00		 movzx	 eax, BYTE PTR [rax+1844]
  00388	83 e0 07	 and	 eax, 7
  0038b	89 84 24 04 01
	00 00		 mov	 DWORD PTR tv219[rsp], eax
$LN68@CTCE_Trace:
  00392	8b 84 24 04 01
	00 00		 mov	 eax, DWORD PTR tv219[rsp]
  00399	89 84 24 08 01
	00 00		 mov	 DWORD PTR tv220[rsp], eax
  003a0	eb 19		 jmp	 SHORT $LN69@CTCE_Trace
$LN66@CTCE_Trace:
  003a2	48 8b 84 24 50
	04 00 00	 mov	 rax, QWORD PTR pDEVBLK$[rsp]
  003aa	0f b6 80 34 07
	00 00		 movzx	 eax, BYTE PTR [rax+1844]
  003b1	83 e0 07	 and	 eax, 7
  003b4	89 84 24 08 01
	00 00		 mov	 DWORD PTR tv220[rsp], eax
$LN69@CTCE_Trace:
  003bb	48 63 84 24 08
	01 00 00	 movsxd	 rax, DWORD PTR tv220[rsp]
  003c3	48 8d 0d 00 00
	00 00		 lea	 rcx, OFFSET FLAT:CTCE_StaStr
  003ca	48 8b 04 c1	 mov	 rax, QWORD PTR [rcx+rax*8]
  003ce	0f be 00	 movsx	 eax, BYTE PTR [rax]
  003d1	83 c0 20	 add	 eax, 32			; 00000020H
  003d4	b9 01 00 00 00	 mov	 ecx, 1
  003d9	48 6b c9 00	 imul	 rcx, rcx, 0
  003dd	88 84 0c d8 00
	00 00		 mov	 BYTE PTR ctce_state_l_xy$[rsp+rcx], al

; 3215 :         }

  003e4	e9 b9 00 00 00	 jmp	 $LN5@CTCE_Trace
$LN4@CTCE_Trace:

; 3216 :         else
; 3217 :         {
; 3218 :             ctce_state_l_xy[0] = *CTCE_StaStr[CTCE_STATE( pDEVBLK->ctcexState )];

  003e9	48 8b 84 24 50
	04 00 00	 mov	 rax, QWORD PTR pDEVBLK$[rsp]
  003f1	8b 80 18 07 00
	00		 mov	 eax, DWORD PTR [rax+1816]
  003f7	83 e0 01	 and	 eax, 1
  003fa	85 c0		 test	 eax, eax
  003fc	75 65		 jne	 SHORT $LN70@CTCE_Trace
  003fe	48 8b 84 24 50
	04 00 00	 mov	 rax, QWORD PTR pDEVBLK$[rsp]
  00406	8b 80 74 07 00
	00		 mov	 eax, DWORD PTR [rax+1908]
  0040c	c1 e8 03	 shr	 eax, 3
  0040f	83 e0 01	 and	 eax, 1
  00412	85 c0		 test	 eax, eax
  00414	75 4d		 jne	 SHORT $LN70@CTCE_Trace
  00416	48 8b 84 24 50
	04 00 00	 mov	 rax, QWORD PTR pDEVBLK$[rsp]
  0041e	0f b6 80 34 07
	00 00		 movzx	 eax, BYTE PTR [rax+1844]
  00425	83 e0 07	 and	 eax, 7
  00428	83 f8 05	 cmp	 eax, 5
  0042b	75 0d		 jne	 SHORT $LN71@CTCE_Trace
  0042d	c7 84 24 0c 01
	00 00 04 00 00
	00		 mov	 DWORD PTR tv247[rsp], 4
  00438	eb 19		 jmp	 SHORT $LN72@CTCE_Trace
$LN71@CTCE_Trace:
  0043a	48 8b 84 24 50
	04 00 00	 mov	 rax, QWORD PTR pDEVBLK$[rsp]
  00442	0f b6 80 34 07
	00 00		 movzx	 eax, BYTE PTR [rax+1844]
  00449	83 e0 07	 and	 eax, 7
  0044c	89 84 24 0c 01
	00 00		 mov	 DWORD PTR tv247[rsp], eax
$LN72@CTCE_Trace:
  00453	8b 84 24 0c 01
	00 00		 mov	 eax, DWORD PTR tv247[rsp]
  0045a	89 84 24 10 01
	00 00		 mov	 DWORD PTR tv248[rsp], eax
  00461	eb 19		 jmp	 SHORT $LN73@CTCE_Trace
$LN70@CTCE_Trace:
  00463	48 8b 84 24 50
	04 00 00	 mov	 rax, QWORD PTR pDEVBLK$[rsp]
  0046b	0f b6 80 34 07
	00 00		 movzx	 eax, BYTE PTR [rax+1844]
  00472	83 e0 07	 and	 eax, 7
  00475	89 84 24 10 01
	00 00		 mov	 DWORD PTR tv248[rsp], eax
$LN73@CTCE_Trace:
  0047c	48 63 84 24 10
	01 00 00	 movsxd	 rax, DWORD PTR tv248[rsp]
  00484	48 8d 0d 00 00
	00 00		 lea	 rcx, OFFSET FLAT:CTCE_StaStr
  0048b	48 8b 04 c1	 mov	 rax, QWORD PTR [rcx+rax*8]
  0048f	b9 01 00 00 00	 mov	 ecx, 1
  00494	48 6b c9 00	 imul	 rcx, rcx, 0
  00498	0f b6 00	 movzx	 eax, BYTE PTR [rax]
  0049b	88 84 0c d8 00
	00 00		 mov	 BYTE PTR ctce_state_l_xy$[rsp+rcx], al
$LN5@CTCE_Trace:

; 3219 :         }
; 3220 :         if( ( pDEVBLK->ctceyState & 0x07 ) == ( pCTCE_Info->state_y_prev & 0x07 ) )

  004a2	48 8b 84 24 50
	04 00 00	 mov	 rax, QWORD PTR pDEVBLK$[rsp]
  004aa	0f b6 80 36 07
	00 00		 movzx	 eax, BYTE PTR [rax+1846]
  004b1	83 e0 07	 and	 eax, 7
  004b4	48 8b 8c 24 60
	04 00 00	 mov	 rcx, QWORD PTR pCTCE_Info$[rsp]
  004bc	0f b6 49 05	 movzx	 ecx, BYTE PTR [rcx+5]
  004c0	83 e1 07	 and	 ecx, 7
  004c3	3b c1		 cmp	 eax, ecx
  004c5	0f 85 c1 00 00
	00		 jne	 $LN6@CTCE_Trace

; 3221 :         {
; 3222 :             ctce_state_l_xy[1] = 32 + *CTCE_StaStr[CTCE_STATE( pDEVBLK->ctceyState )];

  004cb	48 8b 84 24 50
	04 00 00	 mov	 rax, QWORD PTR pDEVBLK$[rsp]
  004d3	8b 80 18 07 00
	00		 mov	 eax, DWORD PTR [rax+1816]
  004d9	83 e0 01	 and	 eax, 1
  004dc	85 c0		 test	 eax, eax
  004de	75 65		 jne	 SHORT $LN74@CTCE_Trace
  004e0	48 8b 84 24 50
	04 00 00	 mov	 rax, QWORD PTR pDEVBLK$[rsp]
  004e8	8b 80 74 07 00
	00		 mov	 eax, DWORD PTR [rax+1908]
  004ee	c1 e8 03	 shr	 eax, 3
  004f1	83 e0 01	 and	 eax, 1
  004f4	85 c0		 test	 eax, eax
  004f6	75 4d		 jne	 SHORT $LN74@CTCE_Trace
  004f8	48 8b 84 24 50
	04 00 00	 mov	 rax, QWORD PTR pDEVBLK$[rsp]
  00500	0f b6 80 36 07
	00 00		 movzx	 eax, BYTE PTR [rax+1846]
  00507	83 e0 07	 and	 eax, 7
  0050a	83 f8 05	 cmp	 eax, 5
  0050d	75 0d		 jne	 SHORT $LN75@CTCE_Trace
  0050f	c7 84 24 14 01
	00 00 04 00 00
	00		 mov	 DWORD PTR tv279[rsp], 4
  0051a	eb 19		 jmp	 SHORT $LN76@CTCE_Trace
$LN75@CTCE_Trace:
  0051c	48 8b 84 24 50
	04 00 00	 mov	 rax, QWORD PTR pDEVBLK$[rsp]
  00524	0f b6 80 36 07
	00 00		 movzx	 eax, BYTE PTR [rax+1846]
  0052b	83 e0 07	 and	 eax, 7
  0052e	89 84 24 14 01
	00 00		 mov	 DWORD PTR tv279[rsp], eax
$LN76@CTCE_Trace:
  00535	8b 84 24 14 01
	00 00		 mov	 eax, DWORD PTR tv279[rsp]
  0053c	89 84 24 18 01
	00 00		 mov	 DWORD PTR tv280[rsp], eax
  00543	eb 19		 jmp	 SHORT $LN77@CTCE_Trace
$LN74@CTCE_Trace:
  00545	48 8b 84 24 50
	04 00 00	 mov	 rax, QWORD PTR pDEVBLK$[rsp]
  0054d	0f b6 80 36 07
	00 00		 movzx	 eax, BYTE PTR [rax+1846]
  00554	83 e0 07	 and	 eax, 7
  00557	89 84 24 18 01
	00 00		 mov	 DWORD PTR tv280[rsp], eax
$LN77@CTCE_Trace:
  0055e	48 63 84 24 18
	01 00 00	 movsxd	 rax, DWORD PTR tv280[rsp]
  00566	48 8d 0d 00 00
	00 00		 lea	 rcx, OFFSET FLAT:CTCE_StaStr
  0056d	48 8b 04 c1	 mov	 rax, QWORD PTR [rcx+rax*8]
  00571	0f be 00	 movsx	 eax, BYTE PTR [rax]
  00574	83 c0 20	 add	 eax, 32			; 00000020H
  00577	b9 01 00 00 00	 mov	 ecx, 1
  0057c	48 6b c9 01	 imul	 rcx, rcx, 1
  00580	88 84 0c d8 00
	00 00		 mov	 BYTE PTR ctce_state_l_xy$[rsp+rcx], al

; 3223 :         }

  00587	e9 b9 00 00 00	 jmp	 $LN7@CTCE_Trace
$LN6@CTCE_Trace:

; 3224 :         else
; 3225 :         {
; 3226 :             ctce_state_l_xy[1] = *CTCE_StaStr[CTCE_STATE( pDEVBLK->ctceyState )];

  0058c	48 8b 84 24 50
	04 00 00	 mov	 rax, QWORD PTR pDEVBLK$[rsp]
  00594	8b 80 18 07 00
	00		 mov	 eax, DWORD PTR [rax+1816]
  0059a	83 e0 01	 and	 eax, 1
  0059d	85 c0		 test	 eax, eax
  0059f	75 65		 jne	 SHORT $LN78@CTCE_Trace
  005a1	48 8b 84 24 50
	04 00 00	 mov	 rax, QWORD PTR pDEVBLK$[rsp]
  005a9	8b 80 74 07 00
	00		 mov	 eax, DWORD PTR [rax+1908]
  005af	c1 e8 03	 shr	 eax, 3
  005b2	83 e0 01	 and	 eax, 1
  005b5	85 c0		 test	 eax, eax
  005b7	75 4d		 jne	 SHORT $LN78@CTCE_Trace
  005b9	48 8b 84 24 50
	04 00 00	 mov	 rax, QWORD PTR pDEVBLK$[rsp]
  005c1	0f b6 80 36 07
	00 00		 movzx	 eax, BYTE PTR [rax+1846]
  005c8	83 e0 07	 and	 eax, 7
  005cb	83 f8 05	 cmp	 eax, 5
  005ce	75 0d		 jne	 SHORT $LN79@CTCE_Trace
  005d0	c7 84 24 1c 01
	00 00 04 00 00
	00		 mov	 DWORD PTR tv307[rsp], 4
  005db	eb 19		 jmp	 SHORT $LN80@CTCE_Trace
$LN79@CTCE_Trace:
  005dd	48 8b 84 24 50
	04 00 00	 mov	 rax, QWORD PTR pDEVBLK$[rsp]
  005e5	0f b6 80 36 07
	00 00		 movzx	 eax, BYTE PTR [rax+1846]
  005ec	83 e0 07	 and	 eax, 7
  005ef	89 84 24 1c 01
	00 00		 mov	 DWORD PTR tv307[rsp], eax
$LN80@CTCE_Trace:
  005f6	8b 84 24 1c 01
	00 00		 mov	 eax, DWORD PTR tv307[rsp]
  005fd	89 84 24 20 01
	00 00		 mov	 DWORD PTR tv308[rsp], eax
  00604	eb 19		 jmp	 SHORT $LN81@CTCE_Trace
$LN78@CTCE_Trace:
  00606	48 8b 84 24 50
	04 00 00	 mov	 rax, QWORD PTR pDEVBLK$[rsp]
  0060e	0f b6 80 36 07
	00 00		 movzx	 eax, BYTE PTR [rax+1846]
  00615	83 e0 07	 and	 eax, 7
  00618	89 84 24 20 01
	00 00		 mov	 DWORD PTR tv308[rsp], eax
$LN81@CTCE_Trace:
  0061f	48 63 84 24 20
	01 00 00	 movsxd	 rax, DWORD PTR tv308[rsp]
  00627	48 8d 0d 00 00
	00 00		 lea	 rcx, OFFSET FLAT:CTCE_StaStr
  0062e	48 8b 04 c1	 mov	 rax, QWORD PTR [rcx+rax*8]
  00632	b9 01 00 00 00	 mov	 ecx, 1
  00637	48 6b c9 01	 imul	 rcx, rcx, 1
  0063b	0f b6 00	 movzx	 eax, BYTE PTR [rax]
  0063e	88 84 0c d8 00
	00 00		 mov	 BYTE PTR ctce_state_l_xy$[rsp+rcx], al
$LN7@CTCE_Trace:

; 3227 :         }
; 3228 :         ctce_state_verify = pDEVBLK->ctceyState & 0x07;

  00645	48 8b 84 24 50
	04 00 00	 mov	 rax, QWORD PTR pDEVBLK$[rsp]
  0064d	0f b6 80 36 07
	00 00		 movzx	 eax, BYTE PTR [rax+1846]
  00654	83 e0 07	 and	 eax, 7
  00657	88 84 24 d1 00
	00 00		 mov	 BYTE PTR ctce_state_verify$[rsp], al

; 3229 :     }

  0065e	e9 a7 05 00 00	 jmp	 $LN3@CTCE_Trace
$LN2@CTCE_Trace:

; 3230 :     else
; 3231 :     {
; 3232 :         pSokBuf = ( CTCE_SOKPFX* ) ( pDEVBLK->buf +

  00663	48 8b 84 24 50
	04 00 00	 mov	 rax, QWORD PTR pDEVBLK$[rsp]
  0066b	0f b6 80 35 07
	00 00		 movzx	 eax, BYTE PTR [rax+1845]
  00672	48 8d 0d 00 00
	00 00		 lea	 rcx, OFFSET FLAT:CTCE_command
  00679	0f b6 04 01	 movzx	 eax, BYTE PTR [rcx+rax]
  0067d	83 f8 02	 cmp	 eax, 2
  00680	75 21		 jne	 SHORT $LN82@CTCE_Trace
  00682	48 8b 84 24 60
	04 00 00	 mov	 rax, QWORD PTR pCTCE_Info$[rsp]
  0068a	0f b6 40 06	 movzx	 eax, BYTE PTR [rax+6]
  0068e	83 e0 20	 and	 eax, 32			; 00000020H
  00691	83 f8 20	 cmp	 eax, 32			; 00000020H
  00694	74 0d		 je	 SHORT $LN82@CTCE_Trace
  00696	c7 84 24 24 01
	00 00 01 00 00
	00		 mov	 DWORD PTR tv331[rsp], 1
  006a1	eb 0b		 jmp	 SHORT $LN83@CTCE_Trace
$LN82@CTCE_Trace:
  006a3	c7 84 24 24 01
	00 00 00 00 00
	00		 mov	 DWORD PTR tv331[rsp], 0
$LN83@CTCE_Trace:
  006ae	48 8b 84 24 50
	04 00 00	 mov	 rax, QWORD PTR pDEVBLK$[rsp]
  006b6	8b 80 74 07 00
	00		 mov	 eax, DWORD PTR [rax+1908]
  006bc	c1 e8 05	 shr	 eax, 5
  006bf	83 e0 01	 and	 eax, 1
  006c2	89 84 24 8c 01
	00 00		 mov	 DWORD PTR tv333[rsp], eax
  006c9	8b 84 24 24 01
	00 00		 mov	 eax, DWORD PTR tv331[rsp]
  006d0	8b 8c 24 8c 01
	00 00		 mov	 ecx, DWORD PTR tv333[rsp]
  006d7	33 c8		 xor	 ecx, eax
  006d9	8b c1		 mov	 eax, ecx
  006db	85 c0		 test	 eax, eax
  006dd	74 1c		 je	 SHORT $LN84@CTCE_Trace
  006df	48 8b 84 24 50
	04 00 00	 mov	 rax, QWORD PTR pDEVBLK$[rsp]
  006e7	8b 80 d8 01 00
	00		 mov	 eax, DWORD PTR [rax+472]
  006ed	99		 cdq
  006ee	2b c2		 sub	 eax, edx
  006f0	d1 f8		 sar	 eax, 1
  006f2	89 84 24 28 01
	00 00		 mov	 DWORD PTR tv338[rsp], eax
  006f9	eb 0b		 jmp	 SHORT $LN85@CTCE_Trace
$LN84@CTCE_Trace:
  006fb	c7 84 24 28 01
	00 00 00 00 00
	00		 mov	 DWORD PTR tv338[rsp], 0
$LN85@CTCE_Trace:
  00706	48 63 84 24 28
	01 00 00	 movsxd	 rax, DWORD PTR tv338[rsp]
  0070e	48 8b 8c 24 50
	04 00 00	 mov	 rcx, QWORD PTR pDEVBLK$[rsp]
  00716	48 03 81 c8 01
	00 00		 add	 rax, QWORD PTR [rcx+456]
  0071d	48 89 84 24 e0
	00 00 00	 mov	 QWORD PTR pSokBuf$[rsp], rax

; 3233 :             ( pDEVBLK->ctce_buf_next_read ^ ( IS_CTCE_CCW_RED( pDEVBLK->ctcexCmd )
; 3234 :             && ( !( IS_CTCE_WAIT( pCTCE_Info->actions ) ) ) )
; 3235 :             ? pDEVBLK->bufsize / 2 : 0 ) );
; 3236 :         ctce_Cmd    = pDEVBLK->ctcexCmd;

  00725	48 8b 84 24 50
	04 00 00	 mov	 rax, QWORD PTR pDEVBLK$[rsp]
  0072d	0f b6 80 35 07
	00 00		 movzx	 eax, BYTE PTR [rax+1845]
  00734	88 84 24 d0 00
	00 00		 mov	 BYTE PTR ctce_Cmd$[rsp], al

; 3237 :         ctce_PktSeq = pDEVBLK->ctcePktSeq;

  0073b	48 8b 84 24 50
	04 00 00	 mov	 rax, QWORD PTR pDEVBLK$[rsp]
  00743	0f b6 80 2e 07
	00 00		 movzx	 eax, BYTE PTR [rax+1838]
  0074a	88 84 24 dc 00
	00 00		 mov	 BYTE PTR ctce_PktSeq$[rsp], al

; 3238 :         ctce_state_l_xy[0] = 32 + *CTCE_StaStr[CTCE_STATE( pCTCE_Info->state_x_prev )];

  00751	48 8b 84 24 50
	04 00 00	 mov	 rax, QWORD PTR pDEVBLK$[rsp]
  00759	8b 80 18 07 00
	00		 mov	 eax, DWORD PTR [rax+1816]
  0075f	83 e0 01	 and	 eax, 1
  00762	85 c0		 test	 eax, eax
  00764	75 5f		 jne	 SHORT $LN86@CTCE_Trace
  00766	48 8b 84 24 50
	04 00 00	 mov	 rax, QWORD PTR pDEVBLK$[rsp]
  0076e	8b 80 74 07 00
	00		 mov	 eax, DWORD PTR [rax+1908]
  00774	c1 e8 03	 shr	 eax, 3
  00777	83 e0 01	 and	 eax, 1
  0077a	85 c0		 test	 eax, eax
  0077c	75 47		 jne	 SHORT $LN86@CTCE_Trace
  0077e	48 8b 84 24 60
	04 00 00	 mov	 rax, QWORD PTR pCTCE_Info$[rsp]
  00786	0f b6 40 04	 movzx	 eax, BYTE PTR [rax+4]
  0078a	83 e0 07	 and	 eax, 7
  0078d	83 f8 05	 cmp	 eax, 5
  00790	75 0d		 jne	 SHORT $LN87@CTCE_Trace
  00792	c7 84 24 2c 01
	00 00 04 00 00
	00		 mov	 DWORD PTR tv362[rsp], 4
  0079d	eb 16		 jmp	 SHORT $LN88@CTCE_Trace
$LN87@CTCE_Trace:
  0079f	48 8b 84 24 60
	04 00 00	 mov	 rax, QWORD PTR pCTCE_Info$[rsp]
  007a7	0f b6 40 04	 movzx	 eax, BYTE PTR [rax+4]
  007ab	83 e0 07	 and	 eax, 7
  007ae	89 84 24 2c 01
	00 00		 mov	 DWORD PTR tv362[rsp], eax
$LN88@CTCE_Trace:
  007b5	8b 84 24 2c 01
	00 00		 mov	 eax, DWORD PTR tv362[rsp]
  007bc	89 84 24 30 01
	00 00		 mov	 DWORD PTR tv363[rsp], eax
  007c3	eb 16		 jmp	 SHORT $LN89@CTCE_Trace
$LN86@CTCE_Trace:
  007c5	48 8b 84 24 60
	04 00 00	 mov	 rax, QWORD PTR pCTCE_Info$[rsp]
  007cd	0f b6 40 04	 movzx	 eax, BYTE PTR [rax+4]
  007d1	83 e0 07	 and	 eax, 7
  007d4	89 84 24 30 01
	00 00		 mov	 DWORD PTR tv363[rsp], eax
$LN89@CTCE_Trace:
  007db	48 63 84 24 30
	01 00 00	 movsxd	 rax, DWORD PTR tv363[rsp]
  007e3	48 8d 0d 00 00
	00 00		 lea	 rcx, OFFSET FLAT:CTCE_StaStr
  007ea	48 8b 04 c1	 mov	 rax, QWORD PTR [rcx+rax*8]
  007ee	0f be 00	 movsx	 eax, BYTE PTR [rax]
  007f1	83 c0 20	 add	 eax, 32			; 00000020H
  007f4	b9 01 00 00 00	 mov	 ecx, 1
  007f9	48 6b c9 00	 imul	 rcx, rcx, 0
  007fd	88 84 0c d8 00
	00 00		 mov	 BYTE PTR ctce_state_l_xy$[rsp+rcx], al

; 3239 :         ctce_state_l_xy[1] = 32 + *CTCE_StaStr[CTCE_STATE( pCTCE_Info->state_y_prev )];

  00804	48 8b 84 24 50
	04 00 00	 mov	 rax, QWORD PTR pDEVBLK$[rsp]
  0080c	8b 80 18 07 00
	00		 mov	 eax, DWORD PTR [rax+1816]
  00812	83 e0 01	 and	 eax, 1
  00815	85 c0		 test	 eax, eax
  00817	75 5f		 jne	 SHORT $LN90@CTCE_Trace
  00819	48 8b 84 24 50
	04 00 00	 mov	 rax, QWORD PTR pDEVBLK$[rsp]
  00821	8b 80 74 07 00
	00		 mov	 eax, DWORD PTR [rax+1908]
  00827	c1 e8 03	 shr	 eax, 3
  0082a	83 e0 01	 and	 eax, 1
  0082d	85 c0		 test	 eax, eax
  0082f	75 47		 jne	 SHORT $LN90@CTCE_Trace
  00831	48 8b 84 24 60
	04 00 00	 mov	 rax, QWORD PTR pCTCE_Info$[rsp]
  00839	0f b6 40 05	 movzx	 eax, BYTE PTR [rax+5]
  0083d	83 e0 07	 and	 eax, 7
  00840	83 f8 05	 cmp	 eax, 5
  00843	75 0d		 jne	 SHORT $LN91@CTCE_Trace
  00845	c7 84 24 34 01
	00 00 04 00 00
	00		 mov	 DWORD PTR tv390[rsp], 4
  00850	eb 16		 jmp	 SHORT $LN92@CTCE_Trace
$LN91@CTCE_Trace:
  00852	48 8b 84 24 60
	04 00 00	 mov	 rax, QWORD PTR pCTCE_Info$[rsp]
  0085a	0f b6 40 05	 movzx	 eax, BYTE PTR [rax+5]
  0085e	83 e0 07	 and	 eax, 7
  00861	89 84 24 34 01
	00 00		 mov	 DWORD PTR tv390[rsp], eax
$LN92@CTCE_Trace:
  00868	8b 84 24 34 01
	00 00		 mov	 eax, DWORD PTR tv390[rsp]
  0086f	89 84 24 38 01
	00 00		 mov	 DWORD PTR tv391[rsp], eax
  00876	eb 16		 jmp	 SHORT $LN93@CTCE_Trace
$LN90@CTCE_Trace:
  00878	48 8b 84 24 60
	04 00 00	 mov	 rax, QWORD PTR pCTCE_Info$[rsp]
  00880	0f b6 40 05	 movzx	 eax, BYTE PTR [rax+5]
  00884	83 e0 07	 and	 eax, 7
  00887	89 84 24 38 01
	00 00		 mov	 DWORD PTR tv391[rsp], eax
$LN93@CTCE_Trace:
  0088e	48 63 84 24 38
	01 00 00	 movsxd	 rax, DWORD PTR tv391[rsp]
  00896	48 8d 0d 00 00
	00 00		 lea	 rcx, OFFSET FLAT:CTCE_StaStr
  0089d	48 8b 04 c1	 mov	 rax, QWORD PTR [rcx+rax*8]
  008a1	0f be 00	 movsx	 eax, BYTE PTR [rax]
  008a4	83 c0 20	 add	 eax, 32			; 00000020H
  008a7	b9 01 00 00 00	 mov	 ecx, 1
  008ac	48 6b c9 01	 imul	 rcx, rcx, 1
  008b0	88 84 0c d8 00
	00 00		 mov	 BYTE PTR ctce_state_l_xy$[rsp+rcx], al

; 3240 :         if( pDEVBLK->ctcexState == pCTCE_Info->state_x_prev )

  008b7	48 8b 84 24 50
	04 00 00	 mov	 rax, QWORD PTR pDEVBLK$[rsp]
  008bf	0f b6 80 34 07
	00 00		 movzx	 eax, BYTE PTR [rax+1844]
  008c6	48 8b 8c 24 60
	04 00 00	 mov	 rcx, QWORD PTR pCTCE_Info$[rsp]
  008ce	0f b6 49 04	 movzx	 ecx, BYTE PTR [rcx+4]
  008d2	3b c1		 cmp	 eax, ecx
  008d4	0f 85 c1 00 00
	00		 jne	 $LN8@CTCE_Trace

; 3241 :         {
; 3242 :             ctce_state_r_xy[0] = 32 + *CTCE_StaStr[CTCE_STATE( pDEVBLK->ctcexState )];

  008da	48 8b 84 24 50
	04 00 00	 mov	 rax, QWORD PTR pDEVBLK$[rsp]
  008e2	8b 80 18 07 00
	00		 mov	 eax, DWORD PTR [rax+1816]
  008e8	83 e0 01	 and	 eax, 1
  008eb	85 c0		 test	 eax, eax
  008ed	75 65		 jne	 SHORT $LN94@CTCE_Trace
  008ef	48 8b 84 24 50
	04 00 00	 mov	 rax, QWORD PTR pDEVBLK$[rsp]
  008f7	8b 80 74 07 00
	00		 mov	 eax, DWORD PTR [rax+1908]
  008fd	c1 e8 03	 shr	 eax, 3
  00900	83 e0 01	 and	 eax, 1
  00903	85 c0		 test	 eax, eax
  00905	75 4d		 jne	 SHORT $LN94@CTCE_Trace
  00907	48 8b 84 24 50
	04 00 00	 mov	 rax, QWORD PTR pDEVBLK$[rsp]
  0090f	0f b6 80 34 07
	00 00		 movzx	 eax, BYTE PTR [rax+1844]
  00916	83 e0 07	 and	 eax, 7
  00919	83 f8 05	 cmp	 eax, 5
  0091c	75 0d		 jne	 SHORT $LN95@CTCE_Trace
  0091e	c7 84 24 3c 01
	00 00 04 00 00
	00		 mov	 DWORD PTR tv423[rsp], 4
  00929	eb 19		 jmp	 SHORT $LN96@CTCE_Trace
$LN95@CTCE_Trace:
  0092b	48 8b 84 24 50
	04 00 00	 mov	 rax, QWORD PTR pDEVBLK$[rsp]
  00933	0f b6 80 34 07
	00 00		 movzx	 eax, BYTE PTR [rax+1844]
  0093a	83 e0 07	 and	 eax, 7
  0093d	89 84 24 3c 01
	00 00		 mov	 DWORD PTR tv423[rsp], eax
$LN96@CTCE_Trace:
  00944	8b 84 24 3c 01
	00 00		 mov	 eax, DWORD PTR tv423[rsp]
  0094b	89 84 24 40 01
	00 00		 mov	 DWORD PTR tv424[rsp], eax
  00952	eb 19		 jmp	 SHORT $LN97@CTCE_Trace
$LN94@CTCE_Trace:
  00954	48 8b 84 24 50
	04 00 00	 mov	 rax, QWORD PTR pDEVBLK$[rsp]
  0095c	0f b6 80 34 07
	00 00		 movzx	 eax, BYTE PTR [rax+1844]
  00963	83 e0 07	 and	 eax, 7
  00966	89 84 24 40 01
	00 00		 mov	 DWORD PTR tv424[rsp], eax
$LN97@CTCE_Trace:
  0096d	48 63 84 24 40
	01 00 00	 movsxd	 rax, DWORD PTR tv424[rsp]
  00975	48 8d 0d 00 00
	00 00		 lea	 rcx, OFFSET FLAT:CTCE_StaStr
  0097c	48 8b 04 c1	 mov	 rax, QWORD PTR [rcx+rax*8]
  00980	0f be 00	 movsx	 eax, BYTE PTR [rax]
  00983	83 c0 20	 add	 eax, 32			; 00000020H
  00986	b9 01 00 00 00	 mov	 ecx, 1
  0098b	48 6b c9 00	 imul	 rcx, rcx, 0
  0098f	88 84 0c d4 00
	00 00		 mov	 BYTE PTR ctce_state_r_xy$[rsp+rcx], al

; 3243 :         }

  00996	e9 b9 00 00 00	 jmp	 $LN9@CTCE_Trace
$LN8@CTCE_Trace:

; 3244 :         else
; 3245 :         {
; 3246 :             ctce_state_r_xy[0] = *CTCE_StaStr[CTCE_STATE( pDEVBLK->ctcexState )];

  0099b	48 8b 84 24 50
	04 00 00	 mov	 rax, QWORD PTR pDEVBLK$[rsp]
  009a3	8b 80 18 07 00
	00		 mov	 eax, DWORD PTR [rax+1816]
  009a9	83 e0 01	 and	 eax, 1
  009ac	85 c0		 test	 eax, eax
  009ae	75 65		 jne	 SHORT $LN98@CTCE_Trace
  009b0	48 8b 84 24 50
	04 00 00	 mov	 rax, QWORD PTR pDEVBLK$[rsp]
  009b8	8b 80 74 07 00
	00		 mov	 eax, DWORD PTR [rax+1908]
  009be	c1 e8 03	 shr	 eax, 3
  009c1	83 e0 01	 and	 eax, 1
  009c4	85 c0		 test	 eax, eax
  009c6	75 4d		 jne	 SHORT $LN98@CTCE_Trace
  009c8	48 8b 84 24 50
	04 00 00	 mov	 rax, QWORD PTR pDEVBLK$[rsp]
  009d0	0f b6 80 34 07
	00 00		 movzx	 eax, BYTE PTR [rax+1844]
  009d7	83 e0 07	 and	 eax, 7
  009da	83 f8 05	 cmp	 eax, 5
  009dd	75 0d		 jne	 SHORT $LN99@CTCE_Trace
  009df	c7 84 24 44 01
	00 00 04 00 00
	00		 mov	 DWORD PTR tv451[rsp], 4
  009ea	eb 19		 jmp	 SHORT $LN100@CTCE_Trace
$LN99@CTCE_Trace:
  009ec	48 8b 84 24 50
	04 00 00	 mov	 rax, QWORD PTR pDEVBLK$[rsp]
  009f4	0f b6 80 34 07
	00 00		 movzx	 eax, BYTE PTR [rax+1844]
  009fb	83 e0 07	 and	 eax, 7
  009fe	89 84 24 44 01
	00 00		 mov	 DWORD PTR tv451[rsp], eax
$LN100@CTCE_Trace:
  00a05	8b 84 24 44 01
	00 00		 mov	 eax, DWORD PTR tv451[rsp]
  00a0c	89 84 24 48 01
	00 00		 mov	 DWORD PTR tv452[rsp], eax
  00a13	eb 19		 jmp	 SHORT $LN101@CTCE_Trace
$LN98@CTCE_Trace:
  00a15	48 8b 84 24 50
	04 00 00	 mov	 rax, QWORD PTR pDEVBLK$[rsp]
  00a1d	0f b6 80 34 07
	00 00		 movzx	 eax, BYTE PTR [rax+1844]
  00a24	83 e0 07	 and	 eax, 7
  00a27	89 84 24 48 01
	00 00		 mov	 DWORD PTR tv452[rsp], eax
$LN101@CTCE_Trace:
  00a2e	48 63 84 24 48
	01 00 00	 movsxd	 rax, DWORD PTR tv452[rsp]
  00a36	48 8d 0d 00 00
	00 00		 lea	 rcx, OFFSET FLAT:CTCE_StaStr
  00a3d	48 8b 04 c1	 mov	 rax, QWORD PTR [rcx+rax*8]
  00a41	b9 01 00 00 00	 mov	 ecx, 1
  00a46	48 6b c9 00	 imul	 rcx, rcx, 0
  00a4a	0f b6 00	 movzx	 eax, BYTE PTR [rax]
  00a4d	88 84 0c d4 00
	00 00		 mov	 BYTE PTR ctce_state_r_xy$[rsp+rcx], al
$LN9@CTCE_Trace:

; 3247 :         }
; 3248 :         if( pDEVBLK->ctceyState == pCTCE_Info->state_y_prev )

  00a54	48 8b 84 24 50
	04 00 00	 mov	 rax, QWORD PTR pDEVBLK$[rsp]
  00a5c	0f b6 80 36 07
	00 00		 movzx	 eax, BYTE PTR [rax+1846]
  00a63	48 8b 8c 24 60
	04 00 00	 mov	 rcx, QWORD PTR pCTCE_Info$[rsp]
  00a6b	0f b6 49 05	 movzx	 ecx, BYTE PTR [rcx+5]
  00a6f	3b c1		 cmp	 eax, ecx
  00a71	0f 85 c1 00 00
	00		 jne	 $LN10@CTCE_Trace

; 3249 :         {
; 3250 :             ctce_state_r_xy[1] = 32 + *CTCE_StaStr[CTCE_STATE( pDEVBLK->ctceyState )];

  00a77	48 8b 84 24 50
	04 00 00	 mov	 rax, QWORD PTR pDEVBLK$[rsp]
  00a7f	8b 80 18 07 00
	00		 mov	 eax, DWORD PTR [rax+1816]
  00a85	83 e0 01	 and	 eax, 1
  00a88	85 c0		 test	 eax, eax
  00a8a	75 65		 jne	 SHORT $LN102@CTCE_Trace
  00a8c	48 8b 84 24 50
	04 00 00	 mov	 rax, QWORD PTR pDEVBLK$[rsp]
  00a94	8b 80 74 07 00
	00		 mov	 eax, DWORD PTR [rax+1908]
  00a9a	c1 e8 03	 shr	 eax, 3
  00a9d	83 e0 01	 and	 eax, 1
  00aa0	85 c0		 test	 eax, eax
  00aa2	75 4d		 jne	 SHORT $LN102@CTCE_Trace
  00aa4	48 8b 84 24 50
	04 00 00	 mov	 rax, QWORD PTR pDEVBLK$[rsp]
  00aac	0f b6 80 36 07
	00 00		 movzx	 eax, BYTE PTR [rax+1846]
  00ab3	83 e0 07	 and	 eax, 7
  00ab6	83 f8 05	 cmp	 eax, 5
  00ab9	75 0d		 jne	 SHORT $LN103@CTCE_Trace
  00abb	c7 84 24 4c 01
	00 00 04 00 00
	00		 mov	 DWORD PTR tv481[rsp], 4
  00ac6	eb 19		 jmp	 SHORT $LN104@CTCE_Trace
$LN103@CTCE_Trace:
  00ac8	48 8b 84 24 50
	04 00 00	 mov	 rax, QWORD PTR pDEVBLK$[rsp]
  00ad0	0f b6 80 36 07
	00 00		 movzx	 eax, BYTE PTR [rax+1846]
  00ad7	83 e0 07	 and	 eax, 7
  00ada	89 84 24 4c 01
	00 00		 mov	 DWORD PTR tv481[rsp], eax
$LN104@CTCE_Trace:
  00ae1	8b 84 24 4c 01
	00 00		 mov	 eax, DWORD PTR tv481[rsp]
  00ae8	89 84 24 50 01
	00 00		 mov	 DWORD PTR tv482[rsp], eax
  00aef	eb 19		 jmp	 SHORT $LN105@CTCE_Trace
$LN102@CTCE_Trace:
  00af1	48 8b 84 24 50
	04 00 00	 mov	 rax, QWORD PTR pDEVBLK$[rsp]
  00af9	0f b6 80 36 07
	00 00		 movzx	 eax, BYTE PTR [rax+1846]
  00b00	83 e0 07	 and	 eax, 7
  00b03	89 84 24 50 01
	00 00		 mov	 DWORD PTR tv482[rsp], eax
$LN105@CTCE_Trace:
  00b0a	48 63 84 24 50
	01 00 00	 movsxd	 rax, DWORD PTR tv482[rsp]
  00b12	48 8d 0d 00 00
	00 00		 lea	 rcx, OFFSET FLAT:CTCE_StaStr
  00b19	48 8b 04 c1	 mov	 rax, QWORD PTR [rcx+rax*8]
  00b1d	0f be 00	 movsx	 eax, BYTE PTR [rax]
  00b20	83 c0 20	 add	 eax, 32			; 00000020H
  00b23	b9 01 00 00 00	 mov	 ecx, 1
  00b28	48 6b c9 01	 imul	 rcx, rcx, 1
  00b2c	88 84 0c d4 00
	00 00		 mov	 BYTE PTR ctce_state_r_xy$[rsp+rcx], al

; 3251 :         }

  00b33	e9 b9 00 00 00	 jmp	 $LN11@CTCE_Trace
$LN10@CTCE_Trace:

; 3252 :         else
; 3253 :         {
; 3254 :             ctce_state_r_xy[1] = *CTCE_StaStr[CTCE_STATE( pDEVBLK->ctceyState )];

  00b38	48 8b 84 24 50
	04 00 00	 mov	 rax, QWORD PTR pDEVBLK$[rsp]
  00b40	8b 80 18 07 00
	00		 mov	 eax, DWORD PTR [rax+1816]
  00b46	83 e0 01	 and	 eax, 1
  00b49	85 c0		 test	 eax, eax
  00b4b	75 65		 jne	 SHORT $LN106@CTCE_Trace
  00b4d	48 8b 84 24 50
	04 00 00	 mov	 rax, QWORD PTR pDEVBLK$[rsp]
  00b55	8b 80 74 07 00
	00		 mov	 eax, DWORD PTR [rax+1908]
  00b5b	c1 e8 03	 shr	 eax, 3
  00b5e	83 e0 01	 and	 eax, 1
  00b61	85 c0		 test	 eax, eax
  00b63	75 4d		 jne	 SHORT $LN106@CTCE_Trace
  00b65	48 8b 84 24 50
	04 00 00	 mov	 rax, QWORD PTR pDEVBLK$[rsp]
  00b6d	0f b6 80 36 07
	00 00		 movzx	 eax, BYTE PTR [rax+1846]
  00b74	83 e0 07	 and	 eax, 7
  00b77	83 f8 05	 cmp	 eax, 5
  00b7a	75 0d		 jne	 SHORT $LN107@CTCE_Trace
  00b7c	c7 84 24 54 01
	00 00 04 00 00
	00		 mov	 DWORD PTR tv509[rsp], 4
  00b87	eb 19		 jmp	 SHORT $LN108@CTCE_Trace
$LN107@CTCE_Trace:
  00b89	48 8b 84 24 50
	04 00 00	 mov	 rax, QWORD PTR pDEVBLK$[rsp]
  00b91	0f b6 80 36 07
	00 00		 movzx	 eax, BYTE PTR [rax+1846]
  00b98	83 e0 07	 and	 eax, 7
  00b9b	89 84 24 54 01
	00 00		 mov	 DWORD PTR tv509[rsp], eax
$LN108@CTCE_Trace:
  00ba2	8b 84 24 54 01
	00 00		 mov	 eax, DWORD PTR tv509[rsp]
  00ba9	89 84 24 58 01
	00 00		 mov	 DWORD PTR tv510[rsp], eax
  00bb0	eb 19		 jmp	 SHORT $LN109@CTCE_Trace
$LN106@CTCE_Trace:
  00bb2	48 8b 84 24 50
	04 00 00	 mov	 rax, QWORD PTR pDEVBLK$[rsp]
  00bba	0f b6 80 36 07
	00 00		 movzx	 eax, BYTE PTR [rax+1846]
  00bc1	83 e0 07	 and	 eax, 7
  00bc4	89 84 24 58 01
	00 00		 mov	 DWORD PTR tv510[rsp], eax
$LN109@CTCE_Trace:
  00bcb	48 63 84 24 58
	01 00 00	 movsxd	 rax, DWORD PTR tv510[rsp]
  00bd3	48 8d 0d 00 00
	00 00		 lea	 rcx, OFFSET FLAT:CTCE_StaStr
  00bda	48 8b 04 c1	 mov	 rax, QWORD PTR [rcx+rax*8]
  00bde	b9 01 00 00 00	 mov	 ecx, 1
  00be3	48 6b c9 01	 imul	 rcx, rcx, 1
  00be7	0f b6 00	 movzx	 eax, BYTE PTR [rax]
  00bea	88 84 0c d4 00
	00 00		 mov	 BYTE PTR ctce_state_r_xy$[rsp+rcx], al
$LN11@CTCE_Trace:

; 3255 :         }
; 3256 :         ctce_state_verify = pDEVBLK->ctcexState & 0x07;

  00bf1	48 8b 84 24 50
	04 00 00	 mov	 rax, QWORD PTR pDEVBLK$[rsp]
  00bf9	0f b6 80 34 07
	00 00		 movzx	 eax, BYTE PTR [rax+1844]
  00c00	83 e0 07	 and	 eax, 7
  00c03	88 84 24 d1 00
	00 00		 mov	 BYTE PTR ctce_state_verify$[rsp], al
$LN3@CTCE_Trace:

; 3257 :     }
; 3258 : 
; 3259 :     // Report on the device status and CCW Command Chaining flag.
; 3260 :     if( 0
; 3261 :         || ( eCTCE_Cmd_Xfr != CTCE_RCV && ( !IS_CTCE_RST( ctce_Cmd ) ) )
; 3262 :         || ( *pUnitStat != 0 )
; 3263 :         || ( IS_CTCE_MATCH( pCTCE_Info->actions ) ) )

  00c0a	33 c0		 xor	 eax, eax
  00c0c	85 c0		 test	 eax, eax
  00c0e	75 45		 jne	 SHORT $LN14@CTCE_Trace
  00c10	83 bc 24 58 04
	00 00 02	 cmp	 DWORD PTR eCTCE_Cmd_Xfr$[rsp], 2
  00c18	74 18		 je	 SHORT $LN15@CTCE_Trace
  00c1a	0f b6 84 24 d0
	00 00 00	 movzx	 eax, BYTE PTR ctce_Cmd$[rsp]
  00c22	48 8d 0d 00 00
	00 00		 lea	 rcx, OFFSET FLAT:CTCE_command
  00c29	0f b6 04 01	 movzx	 eax, BYTE PTR [rcx+rax]
  00c2d	83 f8 0e	 cmp	 eax, 14
  00c30	75 23		 jne	 SHORT $LN14@CTCE_Trace
$LN15@CTCE_Trace:
  00c32	48 8b 84 24 68
	04 00 00	 mov	 rax, QWORD PTR pUnitStat$[rsp]
  00c3a	0f b6 00	 movzx	 eax, BYTE PTR [rax]
  00c3d	85 c0		 test	 eax, eax
  00c3f	75 14		 jne	 SHORT $LN14@CTCE_Trace
  00c41	48 8b 84 24 60
	04 00 00	 mov	 rax, QWORD PTR pCTCE_Info$[rsp]
  00c49	0f b6 40 06	 movzx	 eax, BYTE PTR [rax+6]
  00c4d	83 e0 08	 and	 eax, 8
  00c50	83 f8 08	 cmp	 eax, 8
  00c53	75 2a		 jne	 SHORT $LN12@CTCE_Trace
$LN14@CTCE_Trace:

; 3264 :     {
; 3265 :         MSGBUF( ctce_trace_stat,

  00c55	48 8b 84 24 68
	04 00 00	 mov	 rax, QWORD PTR pUnitStat$[rsp]
  00c5d	0f b6 00	 movzx	 eax, BYTE PTR [rax]
  00c60	44 8b c8	 mov	 r9d, eax
  00c63	4c 8d 05 00 00
	00 00		 lea	 r8, OFFSET FLAT:$SG170249
  00c6a	ba 18 00 00 00	 mov	 edx, 24
  00c6f	48 8d 8c 24 e0
	01 00 00	 lea	 rcx, QWORD PTR ctce_trace_stat$[rsp]
  00c77	ff 15 00 00 00
	00		 call	 QWORD PTR __imp_w32_snprintf

; 3266 :             "Stat=%02X", *pUnitStat );
; 3267 :     }

  00c7d	eb 1a		 jmp	 SHORT $LN13@CTCE_Trace
$LN12@CTCE_Trace:

; 3268 :     else
; 3269 :     {
; 3270 :         MSGBUF( ctce_trace_stat,

  00c7f	4c 8d 05 00 00
	00 00		 lea	 r8, OFFSET FLAT:$SG170250
  00c86	ba 18 00 00 00	 mov	 edx, 24
  00c8b	48 8d 8c 24 e0
	01 00 00	 lea	 rcx, QWORD PTR ctce_trace_stat$[rsp]
  00c93	ff 15 00 00 00
	00		 call	 QWORD PTR __imp_w32_snprintf
$LN13@CTCE_Trace:

; 3271 :             "       " );
; 3272 :     }
; 3273 :     if( !IS_CTCE_RST( ctce_Cmd ) )

  00c99	0f b6 84 24 d0
	00 00 00	 movzx	 eax, BYTE PTR ctce_Cmd$[rsp]
  00ca1	48 8d 0d 00 00
	00 00		 lea	 rcx, OFFSET FLAT:CTCE_command
  00ca8	0f b6 04 01	 movzx	 eax, BYTE PTR [rcx+rax]
  00cac	83 f8 0e	 cmp	 eax, 14
  00caf	74 4e		 je	 SHORT $LN16@CTCE_Trace

; 3274 :     {
; 3275 :         MSGBUF( ctce_trace_xtra_temp,

  00cb1	48 8b 84 24 50
	04 00 00	 mov	 rax, QWORD PTR pDEVBLK$[rsp]
  00cb9	8b 80 74 07 00
	00		 mov	 eax, DWORD PTR [rax+1908]
  00cbf	d1 e8		 shr	 eax, 1
  00cc1	83 e0 01	 and	 eax, 1
  00cc4	44 8b c8	 mov	 r9d, eax
  00cc7	4c 8d 05 00 00
	00 00		 lea	 r8, OFFSET FLAT:$SG170253
  00cce	ba 00 01 00 00	 mov	 edx, 256		; 00000100H
  00cd3	48 8d 8c 24 00
	02 00 00	 lea	 rcx, QWORD PTR ctce_trace_xtra_temp$[rsp]
  00cdb	ff 15 00 00 00
	00		 call	 QWORD PTR __imp_w32_snprintf

; 3276 :             " CC=%d", pDEVBLK->ctce_ccw_flags_cc );
; 3277 :         STRLCAT( ctce_trace_stat, ctce_trace_xtra_temp );

  00ce1	41 b8 18 00 00
	00		 mov	 r8d, 24
  00ce7	48 8d 94 24 00
	02 00 00	 lea	 rdx, QWORD PTR ctce_trace_xtra_temp$[rsp]
  00cef	48 8d 8c 24 e0
	01 00 00	 lea	 rcx, QWORD PTR ctce_trace_stat$[rsp]
  00cf7	ff 15 00 00 00
	00		 call	 QWORD PTR __imp_strlcat

; 3278 :     }

  00cfd	eb 1b		 jmp	 SHORT $LN17@CTCE_Trace
$LN16@CTCE_Trace:

; 3279 :     else
; 3280 :     {
; 3281 :         STRLCAT( ctce_trace_stat, "     " );

  00cff	41 b8 18 00 00
	00		 mov	 r8d, 24
  00d05	48 8d 15 00 00
	00 00		 lea	 rdx, OFFSET FLAT:$SG170254
  00d0c	48 8d 8c 24 e0
	01 00 00	 lea	 rcx, QWORD PTR ctce_trace_stat$[rsp]
  00d14	ff 15 00 00 00
	00		 call	 QWORD PTR __imp_strlcat
$LN17@CTCE_Trace:

; 3282 :     }
; 3283 : 
; 3284 :     // Report on the alternating device block buffer usage.
; 3285 :     MSGBUF( ctce_trace_xtra_temp,

  00d1a	48 8b 84 24 50
	04 00 00	 mov	 rax, QWORD PTR pDEVBLK$[rsp]
  00d22	8b 80 74 07 00
	00		 mov	 eax, DWORD PTR [rax+1908]
  00d28	c1 e8 05	 shr	 eax, 5
  00d2b	83 e0 01	 and	 eax, 1
  00d2e	48 8b 8c 24 50
	04 00 00	 mov	 rcx, QWORD PTR pDEVBLK$[rsp]
  00d36	8b 89 74 07 00
	00		 mov	 ecx, DWORD PTR [rcx+1908]
  00d3c	c1 e9 06	 shr	 ecx, 6
  00d3f	83 e1 01	 and	 ecx, 1
  00d42	89 44 24 20	 mov	 DWORD PTR [rsp+32], eax
  00d46	44 8b c9	 mov	 r9d, ecx
  00d49	4c 8d 05 00 00
	00 00		 lea	 r8, OFFSET FLAT:$SG170255
  00d50	ba 00 01 00 00	 mov	 edx, 256		; 00000100H
  00d55	48 8d 8c 24 00
	02 00 00	 lea	 rcx, QWORD PTR ctce_trace_xtra_temp$[rsp]
  00d5d	ff 15 00 00 00
	00		 call	 QWORD PTR __imp_w32_snprintf

; 3286 :         " w=%d,r=%d", pDEVBLK->ctce_buf_next_write, pDEVBLK->ctce_buf_next_read );
; 3287 :     STRLCAT( ctce_trace_stat, ctce_trace_xtra_temp );

  00d63	41 b8 18 00 00
	00		 mov	 r8d, 24
  00d69	48 8d 94 24 00
	02 00 00	 lea	 rdx, QWORD PTR ctce_trace_xtra_temp$[rsp]
  00d71	48 8d 8c 24 e0
	01 00 00	 lea	 rcx, QWORD PTR ctce_trace_stat$[rsp]
  00d79	ff 15 00 00 00
	00		 call	 QWORD PTR __imp_strlcat

; 3288 : 
; 3289 :     ctce_trace_xtra[0] = '\0' ;

  00d7f	b8 01 00 00 00	 mov	 eax, 1
  00d84	48 6b c0 00	 imul	 rax, rax, 0
  00d88	48 89 84 24 90
	01 00 00	 mov	 QWORD PTR $T1[rsp], rax
  00d90	48 81 bc 24 90
	01 00 00 00 01
	00 00		 cmp	 QWORD PTR $T1[rsp], 256	; 00000100H
  00d9c	73 02		 jae	 SHORT $LN110@CTCE_Trace
  00d9e	eb 05		 jmp	 SHORT $LN111@CTCE_Trace
$LN110@CTCE_Trace:
  00da0	e8 00 00 00 00	 call	 __report_rangecheckfailure
$LN111@CTCE_Trace:
  00da5	48 8b 84 24 90
	01 00 00	 mov	 rax, QWORD PTR $T1[rsp]
  00dad	c6 84 04 00 03
	00 00 00	 mov	 BYTE PTR ctce_trace_xtra$[rsp+rax], 0

; 3290 : 
; 3291 :     // The other side's entering a "Working" state may
; 3292 :     // require an Attention or not, which will be shown.
; 3293 :     // Please note that the CTCE_ACTIONS_PRT macro in
; 3294 :     // that case will show "ATTN" at the rightmost end.
; 3295 :     if( IS_CTCE_ATTN( pCTCE_Info->actions ) && ( eCTCE_Cmd_Xfr == CTCE_RCV ) )

  00db5	48 8b 84 24 60
	04 00 00	 mov	 rax, QWORD PTR pCTCE_Info$[rsp]
  00dbd	0f b6 40 06	 movzx	 eax, BYTE PTR [rax+6]
  00dc1	83 e0 10	 and	 eax, 16
  00dc4	83 f8 10	 cmp	 eax, 16
  00dc7	0f 85 8f 00 00
	00		 jne	 $LN18@CTCE_Trace
  00dcd	83 bc 24 58 04
	00 00 02	 cmp	 DWORD PTR eCTCE_Cmd_Xfr$[rsp], 2
  00dd5	0f 85 81 00 00
	00		 jne	 $LN18@CTCE_Trace

; 3296 :     {
; 3297 :         if( pCTCE_Info->attn_can )

  00ddb	48 8b 84 24 60
	04 00 00	 mov	 rax, QWORD PTR pCTCE_Info$[rsp]
  00de3	8b 40 10	 mov	 eax, DWORD PTR [rax+16]
  00de6	d1 e8		 shr	 eax, 1
  00de8	83 e0 01	 and	 eax, 1
  00deb	85 c0		 test	 eax, eax
  00ded	74 1d		 je	 SHORT $LN19@CTCE_Trace

; 3298 :         {
; 3299 :             STRLCAT( ctce_trace_xtra, "->NONE" );

  00def	41 b8 00 01 00
	00		 mov	 r8d, 256		; 00000100H
  00df5	48 8d 15 00 00
	00 00		 lea	 rdx, OFFSET FLAT:$SG170259
  00dfc	48 8d 8c 24 00
	03 00 00	 lea	 rcx, QWORD PTR ctce_trace_xtra$[rsp]
  00e04	ff 15 00 00 00
	00		 call	 QWORD PTR __imp_strlcat

; 3300 :         }

  00e0a	eb 50		 jmp	 SHORT $LN20@CTCE_Trace
$LN19@CTCE_Trace:

; 3301 :         else if( pCTCE_Info->working_attn_rc > -1 )

  00e0c	48 8b 84 24 60
	04 00 00	 mov	 rax, QWORD PTR pCTCE_Info$[rsp]
  00e14	83 78 1c ff	 cmp	 DWORD PTR [rax+28], -1
  00e18	7e 42		 jle	 SHORT $LN21@CTCE_Trace

; 3302 :         {
; 3303 :             MSGBUF( ctce_trace_xtra_temp,

  00e1a	48 8b 84 24 60
	04 00 00	 mov	 rax, QWORD PTR pCTCE_Info$[rsp]
  00e22	44 8b 48 1c	 mov	 r9d, DWORD PTR [rax+28]
  00e26	4c 8d 05 00 00
	00 00		 lea	 r8, OFFSET FLAT:$SG170261
  00e2d	ba 00 01 00 00	 mov	 edx, 256		; 00000100H
  00e32	48 8d 8c 24 00
	02 00 00	 lea	 rcx, QWORD PTR ctce_trace_xtra_temp$[rsp]
  00e3a	ff 15 00 00 00
	00		 call	 QWORD PTR __imp_w32_snprintf

; 3304 :                 "->RC=%d", pCTCE_Info->working_attn_rc );
; 3305 :             STRLCAT( ctce_trace_xtra, ctce_trace_xtra_temp );

  00e40	41 b8 00 01 00
	00		 mov	 r8d, 256		; 00000100H
  00e46	48 8d 94 24 00
	02 00 00	 lea	 rdx, QWORD PTR ctce_trace_xtra_temp$[rsp]
  00e4e	48 8d 8c 24 00
	03 00 00	 lea	 rcx, QWORD PTR ctce_trace_xtra$[rsp]
  00e56	ff 15 00 00 00
	00		 call	 QWORD PTR __imp_strlcat
$LN21@CTCE_Trace:
$LN20@CTCE_Trace:
$LN18@CTCE_Trace:

; 3306 :         }
; 3307 :     }
; 3308 : 
; 3309 :     // The other side's "DE Ready" signalling to be shown.
; 3310 :     if( pCTCE_Info->de_ready )

  00e5c	48 8b 84 24 60
	04 00 00	 mov	 rax, QWORD PTR pCTCE_Info$[rsp]
  00e64	0f b6 40 0d	 movzx	 eax, BYTE PTR [rax+13]
  00e68	85 c0		 test	 eax, eax
  00e6a	74 42		 je	 SHORT $LN22@CTCE_Trace

; 3311 :     {
; 3312 :         MSGBUF( ctce_trace_xtra_temp,

  00e6c	48 8b 84 24 60
	04 00 00	 mov	 rax, QWORD PTR pCTCE_Info$[rsp]
  00e74	44 8b 48 18	 mov	 r9d, DWORD PTR [rax+24]
  00e78	4c 8d 05 00 00
	00 00		 lea	 r8, OFFSET FLAT:$SG170263
  00e7f	ba 00 01 00 00	 mov	 edx, 256		; 00000100H
  00e84	48 8d 8c 24 00
	02 00 00	 lea	 rcx, QWORD PTR ctce_trace_xtra_temp$[rsp]
  00e8c	ff 15 00 00 00
	00		 call	 QWORD PTR __imp_w32_snprintf

; 3313 :             " DE_READY->RC=%d", pCTCE_Info->de_ready_attn_rc );
; 3314 :         STRLCAT( ctce_trace_xtra, ctce_trace_xtra_temp );

  00e92	41 b8 00 01 00
	00		 mov	 r8d, 256		; 00000100H
  00e98	48 8d 94 24 00
	02 00 00	 lea	 rdx, QWORD PTR ctce_trace_xtra_temp$[rsp]
  00ea0	48 8d 8c 24 00
	03 00 00	 lea	 rcx, QWORD PTR ctce_trace_xtra$[rsp]
  00ea8	ff 15 00 00 00
	00		 call	 QWORD PTR __imp_strlcat
$LN22@CTCE_Trace:

; 3315 :     }
; 3316 : 
; 3317 :     // "WEOF" means that the "Write End of File" bit is or was set.
; 3318 :     // "WEOF->SET" means it just got set right now, in which case
; 3319 :     // "WEOF->SET->UX" means an Unit Exception (UX) will follow because
; 3320 :     // it got set because of a WEOF command matching a Read command
; 3321 :     // (which actually will clear the WEOF immediately thereafter).
; 3322 :     // "WEOF->CLR" indicates the WEOF bit just got reset.
; 3323 :     if(  IS_CTCE_WEOF( pCTCE_Info->state_x_prev ) ||

  00eae	48 8b 84 24 60
	04 00 00	 mov	 rax, QWORD PTR pCTCE_Info$[rsp]
  00eb6	0f b6 40 04	 movzx	 eax, BYTE PTR [rax+4]
  00eba	25 80 00 00 00	 and	 eax, 128		; 00000080H
  00ebf	3d 80 00 00 00	 cmp	 eax, 128		; 00000080H
  00ec4	74 1b		 je	 SHORT $LN24@CTCE_Trace
  00ec6	48 8b 84 24 50
	04 00 00	 mov	 rax, QWORD PTR pDEVBLK$[rsp]
  00ece	0f b6 80 34 07
	00 00		 movzx	 eax, BYTE PTR [rax+1844]
  00ed5	25 80 00 00 00	 and	 eax, 128		; 00000080H
  00eda	3d 80 00 00 00	 cmp	 eax, 128		; 00000080H
  00edf	75 1b		 jne	 SHORT $LN23@CTCE_Trace
$LN24@CTCE_Trace:

; 3324 :          IS_CTCE_WEOF( pDEVBLK->ctcexState      ) )
; 3325 :     {
; 3326 :         STRLCAT( ctce_trace_xtra, " WEOF" );

  00ee1	41 b8 00 01 00
	00		 mov	 r8d, 256		; 00000100H
  00ee7	48 8d 15 00 00
	00 00		 lea	 rdx, OFFSET FLAT:$SG170266
  00eee	48 8d 8c 24 00
	03 00 00	 lea	 rcx, QWORD PTR ctce_trace_xtra$[rsp]
  00ef6	ff 15 00 00 00
	00		 call	 QWORD PTR __imp_strlcat
$LN23@CTCE_Trace:

; 3327 :     }
; 3328 :     if( !IS_CTCE_WEOF( pCTCE_Info->state_x_prev ) &&

  00efc	48 8b 84 24 60
	04 00 00	 mov	 rax, QWORD PTR pCTCE_Info$[rsp]
  00f04	0f b6 40 04	 movzx	 eax, BYTE PTR [rax+4]
  00f08	25 80 00 00 00	 and	 eax, 128		; 00000080H
  00f0d	3d 80 00 00 00	 cmp	 eax, 128		; 00000080H
  00f12	74 65		 je	 SHORT $LN25@CTCE_Trace
  00f14	48 8b 84 24 50
	04 00 00	 mov	 rax, QWORD PTR pDEVBLK$[rsp]
  00f1c	0f b6 80 34 07
	00 00		 movzx	 eax, BYTE PTR [rax+1844]
  00f23	25 80 00 00 00	 and	 eax, 128		; 00000080H
  00f28	3d 80 00 00 00	 cmp	 eax, 128		; 00000080H
  00f2d	75 4a		 jne	 SHORT $LN25@CTCE_Trace

; 3329 :          IS_CTCE_WEOF( pDEVBLK->ctcexState      ) )
; 3330 :     {
; 3331 :         STRLCAT( ctce_trace_xtra, "->SET" );

  00f2f	41 b8 00 01 00
	00		 mov	 r8d, 256		; 00000100H
  00f35	48 8d 15 00 00
	00 00		 lea	 rdx, OFFSET FLAT:$SG170268
  00f3c	48 8d 8c 24 00
	03 00 00	 lea	 rcx, QWORD PTR ctce_trace_xtra$[rsp]
  00f44	ff 15 00 00 00
	00		 call	 QWORD PTR __imp_strlcat

; 3332 :         if( IS_CTCE_MATCH( pCTCE_Info->actions ) )

  00f4a	48 8b 84 24 60
	04 00 00	 mov	 rax, QWORD PTR pCTCE_Info$[rsp]
  00f52	0f b6 40 06	 movzx	 eax, BYTE PTR [rax+6]
  00f56	83 e0 08	 and	 eax, 8
  00f59	83 f8 08	 cmp	 eax, 8
  00f5c	75 1b		 jne	 SHORT $LN26@CTCE_Trace

; 3333 :         {
; 3334 :             STRLCAT( ctce_trace_xtra, "->UX" );

  00f5e	41 b8 00 01 00
	00		 mov	 r8d, 256		; 00000100H
  00f64	48 8d 15 00 00
	00 00		 lea	 rdx, OFFSET FLAT:$SG170270
  00f6b	48 8d 8c 24 00
	03 00 00	 lea	 rcx, QWORD PTR ctce_trace_xtra$[rsp]
  00f73	ff 15 00 00 00
	00		 call	 QWORD PTR __imp_strlcat
$LN26@CTCE_Trace:
$LN25@CTCE_Trace:

; 3335 :         }
; 3336 :     }
; 3337 :     if(  IS_CTCE_WEOF( pCTCE_Info->state_x_prev ) &&

  00f79	48 8b 84 24 60
	04 00 00	 mov	 rax, QWORD PTR pCTCE_Info$[rsp]
  00f81	0f b6 40 04	 movzx	 eax, BYTE PTR [rax+4]
  00f85	25 80 00 00 00	 and	 eax, 128		; 00000080H
  00f8a	3d 80 00 00 00	 cmp	 eax, 128		; 00000080H
  00f8f	75 36		 jne	 SHORT $LN27@CTCE_Trace
  00f91	48 8b 84 24 50
	04 00 00	 mov	 rax, QWORD PTR pDEVBLK$[rsp]
  00f99	0f b6 80 34 07
	00 00		 movzx	 eax, BYTE PTR [rax+1844]
  00fa0	25 80 00 00 00	 and	 eax, 128		; 00000080H
  00fa5	3d 80 00 00 00	 cmp	 eax, 128		; 00000080H
  00faa	74 1b		 je	 SHORT $LN27@CTCE_Trace

; 3338 :         !IS_CTCE_WEOF( pDEVBLK->ctcexState      ) )
; 3339 :     {
; 3340 :         STRLCAT( ctce_trace_xtra, "->CLR" );

  00fac	41 b8 00 01 00
	00		 mov	 r8d, 256		; 00000100H
  00fb2	48 8d 15 00 00
	00 00		 lea	 rdx, OFFSET FLAT:$SG170272
  00fb9	48 8d 8c 24 00
	03 00 00	 lea	 rcx, QWORD PTR ctce_trace_xtra$[rsp]
  00fc1	ff 15 00 00 00
	00		 call	 QWORD PTR __imp_strlcat
$LN27@CTCE_Trace:

; 3341 :     }
; 3342 : 
; 3343 :     // Report on the SCB returned if applicable.
; 3344 :     if( ( eCTCE_Cmd_Xfr != CTCE_RCV ) && IS_CTCE_CCW_SCB( ctce_Cmd ) )

  00fc7	83 bc 24 58 04
	00 00 02	 cmp	 DWORD PTR eCTCE_Cmd_Xfr$[rsp], 2
  00fcf	0f 84 1b 01 00
	00		 je	 $LN28@CTCE_Trace
  00fd5	0f b6 84 24 d0
	00 00 00	 movzx	 eax, BYTE PTR ctce_Cmd$[rsp]
  00fdd	48 8d 0d 00 00
	00 00		 lea	 rcx, OFFSET FLAT:CTCE_command
  00fe4	0f b6 04 01	 movzx	 eax, BYTE PTR [rcx+rax]
  00fe8	83 f8 04	 cmp	 eax, 4
  00feb	0f 85 ff 00 00
	00		 jne	 $LN28@CTCE_Trace

; 3345 :     {
; 3346 :         MSGBUF( ctce_trace_xtra_temp,

  00ff1	48 8b 84 24 50
	04 00 00	 mov	 rax, QWORD PTR pDEVBLK$[rsp]
  00ff9	8b 80 18 07 00
	00		 mov	 eax, DWORD PTR [rax+1816]
  00fff	83 e0 01	 and	 eax, 1
  01002	85 c0		 test	 eax, eax
  01004	75 6f		 jne	 SHORT $LN112@CTCE_Trace
  01006	48 8b 84 24 50
	04 00 00	 mov	 rax, QWORD PTR pDEVBLK$[rsp]
  0100e	8b 80 74 07 00
	00		 mov	 eax, DWORD PTR [rax+1908]
  01014	c1 e8 03	 shr	 eax, 3
  01017	83 e0 01	 and	 eax, 1
  0101a	85 c0		 test	 eax, eax
  0101c	75 57		 jne	 SHORT $LN112@CTCE_Trace
  0101e	48 8b 84 24 60
	04 00 00	 mov	 rax, QWORD PTR pCTCE_Info$[rsp]
  01026	0f b6 40 09	 movzx	 eax, BYTE PTR [rax+9]
  0102a	48 8d 0d 00 00
	00 00		 lea	 rcx, OFFSET FLAT:CTCE_command
  01031	0f b6 04 01	 movzx	 eax, BYTE PTR [rcx+rax]
  01035	83 f8 07	 cmp	 eax, 7
  01038	75 0d		 jne	 SHORT $LN113@CTCE_Trace
  0103a	c7 84 24 5c 01
	00 00 03 00 00
	00		 mov	 DWORD PTR tv678[rsp], 3
  01045	eb 1e		 jmp	 SHORT $LN114@CTCE_Trace
$LN113@CTCE_Trace:
  01047	48 8b 84 24 60
	04 00 00	 mov	 rax, QWORD PTR pCTCE_Info$[rsp]
  0104f	0f b6 40 09	 movzx	 eax, BYTE PTR [rax+9]
  01053	48 8d 0d 00 00
	00 00		 lea	 rcx, OFFSET FLAT:CTCE_command
  0105a	0f b6 04 01	 movzx	 eax, BYTE PTR [rcx+rax]
  0105e	89 84 24 5c 01
	00 00		 mov	 DWORD PTR tv678[rsp], eax
$LN114@CTCE_Trace:
  01065	8b 84 24 5c 01
	00 00		 mov	 eax, DWORD PTR tv678[rsp]
  0106c	89 84 24 60 01
	00 00		 mov	 DWORD PTR tv679[rsp], eax
  01073	eb 1e		 jmp	 SHORT $LN115@CTCE_Trace
$LN112@CTCE_Trace:
  01075	48 8b 84 24 60
	04 00 00	 mov	 rax, QWORD PTR pCTCE_Info$[rsp]
  0107d	0f b6 40 09	 movzx	 eax, BYTE PTR [rax+9]
  01081	48 8d 0d 00 00
	00 00		 lea	 rcx, OFFSET FLAT:CTCE_command
  01088	0f b6 04 01	 movzx	 eax, BYTE PTR [rcx+rax]
  0108c	89 84 24 60 01
	00 00		 mov	 DWORD PTR tv679[rsp], eax
$LN115@CTCE_Trace:
  01093	48 63 84 24 60
	01 00 00	 movsxd	 rax, DWORD PTR tv679[rsp]
  0109b	48 8d 0d 00 00
	00 00		 lea	 rcx, OFFSET FLAT:CTCE_CmdStr
  010a2	48 8b 94 24 60
	04 00 00	 mov	 rdx, QWORD PTR pCTCE_Info$[rsp]
  010aa	0f b6 52 09	 movzx	 edx, BYTE PTR [rdx+9]
  010ae	48 8b 04 c1	 mov	 rax, QWORD PTR [rcx+rax*8]
  010b2	48 89 44 24 20	 mov	 QWORD PTR [rsp+32], rax
  010b7	44 8b ca	 mov	 r9d, edx
  010ba	4c 8d 05 00 00
	00 00		 lea	 r8, OFFSET FLAT:$SG170274
  010c1	ba 00 01 00 00	 mov	 edx, 256		; 00000100H
  010c6	48 8d 8c 24 00
	02 00 00	 lea	 rcx, QWORD PTR ctce_trace_xtra_temp$[rsp]
  010ce	ff 15 00 00 00
	00		 call	 QWORD PTR __imp_w32_snprintf

; 3347 :             " SCB=%02X=%s", pCTCE_Info->scb, CTCE_CmdStr[CTCE_CMD( pCTCE_Info->scb )] );
; 3348 :         STRLCAT( ctce_trace_xtra, ctce_trace_xtra_temp );

  010d4	41 b8 00 01 00
	00		 mov	 r8d, 256		; 00000100H
  010da	48 8d 94 24 00
	02 00 00	 lea	 rdx, QWORD PTR ctce_trace_xtra_temp$[rsp]
  010e2	48 8d 8c 24 00
	03 00 00	 lea	 rcx, QWORD PTR ctce_trace_xtra$[rsp]
  010ea	ff 15 00 00 00
	00		 call	 QWORD PTR __imp_strlcat
$LN28@CTCE_Trace:

; 3349 :     }
; 3350 : 
; 3351 :     // Report on the device status.
; 3352 :     if( pCTCE_Info->busy_waits != 0 )

  010f0	48 8b 84 24 60
	04 00 00	 mov	 rax, QWORD PTR pCTCE_Info$[rsp]
  010f8	0f b6 40 0c	 movzx	 eax, BYTE PTR [rax+12]
  010fc	85 c0		 test	 eax, eax
  010fe	74 45		 je	 SHORT $LN29@CTCE_Trace

; 3353 :     {
; 3354 :         MSGBUF( ctce_trace_xtra_temp,

  01100	48 8b 84 24 60
	04 00 00	 mov	 rax, QWORD PTR pCTCE_Info$[rsp]
  01108	0f b6 40 0c	 movzx	 eax, BYTE PTR [rax+12]
  0110c	44 8b c8	 mov	 r9d, eax
  0110f	4c 8d 05 00 00
	00 00		 lea	 r8, OFFSET FLAT:$SG170276
  01116	ba 00 01 00 00	 mov	 edx, 256		; 00000100H
  0111b	48 8d 8c 24 00
	02 00 00	 lea	 rcx, QWORD PTR ctce_trace_xtra_temp$[rsp]
  01123	ff 15 00 00 00
	00		 call	 QWORD PTR __imp_w32_snprintf

; 3355 :             " Busy_Waits=%d", pCTCE_Info->busy_waits );
; 3356 :         STRLCAT( ctce_trace_xtra, ctce_trace_xtra_temp );

  01129	41 b8 00 01 00
	00		 mov	 r8d, 256		; 00000100H
  0112f	48 8d 94 24 00
	02 00 00	 lea	 rdx, QWORD PTR ctce_trace_xtra_temp$[rsp]
  01137	48 8d 8c 24 00
	03 00 00	 lea	 rcx, QWORD PTR ctce_trace_xtra$[rsp]
  0113f	ff 15 00 00 00
	00		 call	 QWORD PTR __imp_strlcat
$LN29@CTCE_Trace:

; 3357 :     }
; 3358 : 
; 3359 :     // Report on the WAIT RC if needed.
; 3360 :     if( ( eCTCE_Cmd_Xfr == CTCE_SND ) && ( pCTCE_Info->wait_rc != 0 ) )

  01145	83 bc 24 58 04
	00 00 01	 cmp	 DWORD PTR eCTCE_Cmd_Xfr$[rsp], 1
  0114d	75 50		 jne	 SHORT $LN30@CTCE_Trace
  0114f	48 8b 84 24 60
	04 00 00	 mov	 rax, QWORD PTR pCTCE_Info$[rsp]
  01157	83 78 14 00	 cmp	 DWORD PTR [rax+20], 0
  0115b	74 42		 je	 SHORT $LN30@CTCE_Trace

; 3361 :     {
; 3362 :         MSGBUF( ctce_trace_xtra_temp,

  0115d	48 8b 84 24 60
	04 00 00	 mov	 rax, QWORD PTR pCTCE_Info$[rsp]
  01165	44 8b 48 14	 mov	 r9d, DWORD PTR [rax+20]
  01169	4c 8d 05 00 00
	00 00		 lea	 r8, OFFSET FLAT:$SG170278
  01170	ba 00 01 00 00	 mov	 edx, 256		; 00000100H
  01175	48 8d 8c 24 00
	02 00 00	 lea	 rcx, QWORD PTR ctce_trace_xtra_temp$[rsp]
  0117d	ff 15 00 00 00
	00		 call	 QWORD PTR __imp_w32_snprintf

; 3363 :             " WAIT->RC=%d", pCTCE_Info->wait_rc );
; 3364 :         STRLCAT( ctce_trace_xtra, ctce_trace_xtra_temp );

  01183	41 b8 00 01 00
	00		 mov	 r8d, 256		; 00000100H
  01189	48 8d 94 24 00
	02 00 00	 lea	 rdx, QWORD PTR ctce_trace_xtra_temp$[rsp]
  01191	48 8d 8c 24 00
	03 00 00	 lea	 rcx, QWORD PTR ctce_trace_xtra$[rsp]
  01199	ff 15 00 00 00
	00		 call	 QWORD PTR __imp_strlcat
$LN30@CTCE_Trace:

; 3365 :     }
; 3366 : 
; 3367 :     // Report on the SENSE byte 1 and 2 if needed.
; 3368 :     if( ( pDEVBLK->sense[0] != 0 ) || ( pDEVBLK->sense[1] != 0 ) )

  0119f	b8 01 00 00 00	 mov	 eax, 1
  011a4	48 6b c0 00	 imul	 rax, rax, 0
  011a8	48 8b 8c 24 50
	04 00 00	 mov	 rcx, QWORD PTR pDEVBLK$[rsp]
  011b0	0f b6 84 01 64
	03 00 00	 movzx	 eax, BYTE PTR [rcx+rax+868]
  011b8	85 c0		 test	 eax, eax
  011ba	75 1d		 jne	 SHORT $LN33@CTCE_Trace
  011bc	b8 01 00 00 00	 mov	 eax, 1
  011c1	48 6b c0 01	 imul	 rax, rax, 1
  011c5	48 8b 8c 24 50
	04 00 00	 mov	 rcx, QWORD PTR pDEVBLK$[rsp]
  011cd	0f b6 84 01 64
	03 00 00	 movzx	 eax, BYTE PTR [rcx+rax+868]
  011d5	85 c0		 test	 eax, eax
  011d7	74 74		 je	 SHORT $LN31@CTCE_Trace
$LN33@CTCE_Trace:

; 3369 :     {
; 3370 :         MSGBUF( ctce_trace_xtra_temp,

  011d9	b8 01 00 00 00	 mov	 eax, 1
  011de	48 6b c0 01	 imul	 rax, rax, 1
  011e2	48 8b 8c 24 50
	04 00 00	 mov	 rcx, QWORD PTR pDEVBLK$[rsp]
  011ea	0f b6 84 01 64
	03 00 00	 movzx	 eax, BYTE PTR [rcx+rax+868]
  011f2	b9 01 00 00 00	 mov	 ecx, 1
  011f7	48 6b c9 00	 imul	 rcx, rcx, 0
  011fb	48 8b 94 24 50
	04 00 00	 mov	 rdx, QWORD PTR pDEVBLK$[rsp]
  01203	0f b6 8c 0a 64
	03 00 00	 movzx	 ecx, BYTE PTR [rdx+rcx+868]
  0120b	89 44 24 20	 mov	 DWORD PTR [rsp+32], eax
  0120f	44 8b c9	 mov	 r9d, ecx
  01212	4c 8d 05 00 00
	00 00		 lea	 r8, OFFSET FLAT:$SG170282
  01219	ba 00 01 00 00	 mov	 edx, 256		; 00000100H
  0121e	48 8d 8c 24 00
	02 00 00	 lea	 rcx, QWORD PTR ctce_trace_xtra_temp$[rsp]
  01226	ff 15 00 00 00
	00		 call	 QWORD PTR __imp_w32_snprintf

; 3371 :             " SENSE=%02X%02X", pDEVBLK->sense[0], pDEVBLK->sense[1] );
; 3372 :         STRLCAT( ctce_trace_xtra, ctce_trace_xtra_temp );

  0122c	41 b8 00 01 00
	00		 mov	 r8d, 256		; 00000100H
  01232	48 8d 94 24 00
	02 00 00	 lea	 rdx, QWORD PTR ctce_trace_xtra_temp$[rsp]
  0123a	48 8d 8c 24 00
	03 00 00	 lea	 rcx, QWORD PTR ctce_trace_xtra$[rsp]
  01242	ff 15 00 00 00
	00		 call	 QWORD PTR __imp_strlcat

; 3373 :     }

  01248	e9 81 00 00 00	 jmp	 $LN32@CTCE_Trace
$LN31@CTCE_Trace:

; 3374 :     else if( IS_CTCE_CCW_SAS( ctce_Cmd ) )

  0124d	0f b6 84 24 d0
	00 00 00	 movzx	 eax, BYTE PTR ctce_Cmd$[rsp]
  01255	48 8d 0d 00 00
	00 00		 lea	 rcx, OFFSET FLAT:CTCE_command
  0125c	0f b6 04 01	 movzx	 eax, BYTE PTR [rcx+rax]
  01260	83 f8 0a	 cmp	 eax, 10
  01263	75 69		 jne	 SHORT $LN34@CTCE_Trace

; 3375 :     {
; 3376 :         MSGBUF( ctce_trace_xtra_temp,

  01265	b8 01 00 00 00	 mov	 eax, 1
  0126a	48 6b c0 01	 imul	 rax, rax, 1
  0126e	48 8b 8c 24 60
	04 00 00	 mov	 rcx, QWORD PTR pCTCE_Info$[rsp]
  01276	0f b6 44 01 0a	 movzx	 eax, BYTE PTR [rcx+rax+10]
  0127b	b9 01 00 00 00	 mov	 ecx, 1
  01280	48 6b c9 00	 imul	 rcx, rcx, 0
  01284	48 8b 94 24 60
	04 00 00	 mov	 rdx, QWORD PTR pCTCE_Info$[rsp]
  0128c	0f b6 4c 0a 0a	 movzx	 ecx, BYTE PTR [rdx+rcx+10]
  01291	89 44 24 20	 mov	 DWORD PTR [rsp+32], eax
  01295	44 8b c9	 mov	 r9d, ecx
  01298	4c 8d 05 00 00
	00 00		 lea	 r8, OFFSET FLAT:$SG170284
  0129f	ba 00 01 00 00	 mov	 edx, 256		; 00000100H
  012a4	48 8d 8c 24 00
	02 00 00	 lea	 rcx, QWORD PTR ctce_trace_xtra_temp$[rsp]
  012ac	ff 15 00 00 00
	00		 call	 QWORD PTR __imp_w32_snprintf

; 3377 :             " SENSE=%02X%02X", pCTCE_Info->sas[0], pCTCE_Info->sas[1] );
; 3378 :         STRLCAT( ctce_trace_xtra, ctce_trace_xtra_temp );

  012b2	41 b8 00 01 00
	00		 mov	 r8d, 256		; 00000100H
  012b8	48 8d 94 24 00
	02 00 00	 lea	 rdx, QWORD PTR ctce_trace_xtra_temp$[rsp]
  012c0	48 8d 8c 24 00
	03 00 00	 lea	 rcx, QWORD PTR ctce_trace_xtra$[rsp]
  012c8	ff 15 00 00 00
	00		 call	 QWORD PTR __imp_strlcat
$LN34@CTCE_Trace:
$LN32@CTCE_Trace:

; 3379 :     }
; 3380 : 
; 3381 :     // The "state mismatch" was used for debugging purposes
; 3382 :     // which would show logic errors.
; 3383 :     if( ( pCTCE_Info->state_new != ctce_state_verify )
; 3384 :         && !( ( !pCTCE_Info->sent ) && ( IS_CTCE_SEND( pCTCE_Info->actions ) ) ) )

  012ce	48 8b 84 24 60
	04 00 00	 mov	 rax, QWORD PTR pCTCE_Info$[rsp]
  012d6	0f b6 40 07	 movzx	 eax, BYTE PTR [rax+7]
  012da	0f b6 8c 24 d1
	00 00 00	 movzx	 ecx, BYTE PTR ctce_state_verify$[rsp]
  012e2	3b c1		 cmp	 eax, ecx
  012e4	0f 84 8b 00 00
	00		 je	 $LN35@CTCE_Trace
  012ea	48 8b 84 24 60
	04 00 00	 mov	 rax, QWORD PTR pCTCE_Info$[rsp]
  012f2	8b 40 10	 mov	 eax, DWORD PTR [rax+16]
  012f5	83 e0 01	 and	 eax, 1
  012f8	85 c0		 test	 eax, eax
  012fa	75 14		 jne	 SHORT $LN36@CTCE_Trace
  012fc	48 8b 84 24 60
	04 00 00	 mov	 rax, QWORD PTR pCTCE_Info$[rsp]
  01304	0f b6 40 06	 movzx	 eax, BYTE PTR [rax+6]
  01308	83 e0 40	 and	 eax, 64			; 00000040H
  0130b	83 f8 40	 cmp	 eax, 64			; 00000040H
  0130e	74 65		 je	 SHORT $LN35@CTCE_Trace
$LN36@CTCE_Trace:

; 3385 :     {
; 3386 :         MSGBUF( ctce_trace_xtra_temp,

  01310	48 8b 84 24 60
	04 00 00	 mov	 rax, QWORD PTR pCTCE_Info$[rsp]
  01318	0f b6 40 07	 movzx	 eax, BYTE PTR [rax+7]
  0131c	48 8d 0d 00 00
	00 00		 lea	 rcx, OFFSET FLAT:CTCE_StaStr
  01323	0f b6 94 24 d1
	00 00 00	 movzx	 edx, BYTE PTR ctce_state_verify$[rsp]
  0132b	4c 8d 05 00 00
	00 00		 lea	 r8, OFFSET FLAT:CTCE_StaStr
  01332	48 8b 04 c1	 mov	 rax, QWORD PTR [rcx+rax*8]
  01336	48 89 44 24 20	 mov	 QWORD PTR [rsp+32], rax
  0133b	4d 8b 0c d0	 mov	 r9, QWORD PTR [r8+rdx*8]
  0133f	4c 8d 05 00 00
	00 00		 lea	 r8, OFFSET FLAT:$SG170287
  01346	ba 00 01 00 00	 mov	 edx, 256		; 00000100H
  0134b	48 8d 8c 24 00
	02 00 00	 lea	 rcx, QWORD PTR ctce_trace_xtra_temp$[rsp]
  01353	ff 15 00 00 00
	00		 call	 QWORD PTR __imp_w32_snprintf

; 3387 :             " CTCE_STATE MISMATCH %s!=%s(:FSM) !",
; 3388 :             CTCE_StaStr[ctce_state_verify],
; 3389 :             CTCE_StaStr[pCTCE_Info->state_new] );
; 3390 :         STRLCAT( ctce_trace_xtra, ctce_trace_xtra_temp );

  01359	41 b8 00 01 00
	00		 mov	 r8d, 256		; 00000100H
  0135f	48 8d 94 24 00
	02 00 00	 lea	 rdx, QWORD PTR ctce_trace_xtra_temp$[rsp]
  01367	48 8d 8c 24 00
	03 00 00	 lea	 rcx, QWORD PTR ctce_trace_xtra$[rsp]
  0136f	ff 15 00 00 00
	00		 call	 QWORD PTR __imp_strlcat
$LN35@CTCE_Trace:

; 3391 :     }
; 3392 : 
; 3393 :     // The unit "State mismatch" was used for debugging purposes
; 3394 :     // which would show logic errors.
; 3395 :     if( ( *pUnitStat !=
; 3396 :         ( ( ( eCTCE_Cmd_Xfr == CTCE_RCV ) && ( IS_CTCE_MATCH( pCTCE_Info->actions ) ) )
; 3397 :         ? ( CSW_CE | CSW_DE ) : ( pCTCE_Info->x_unit_stat ) ) )
; 3398 :         && !( *pUnitStat & ( CSW_UC | CSW_UX | CSW_SM ) )
; 3399 :         && !( ( eCTCE_Cmd_Xfr == CTCE_RCV ) && ( IS_CTCE_WAIT( pCTCE_Info->actions ) ) )
; 3400 :         &&  ( ( eCTCE_Cmd_Xfr != CTCE_RCV ) || ( *pUnitStat != 0 ) )
; 3401 :         && !( pCTCE_Info->de_ready ) )

  01375	83 bc 24 58 04
	00 00 02	 cmp	 DWORD PTR eCTCE_Cmd_Xfr$[rsp], 2
  0137d	75 21		 jne	 SHORT $LN116@CTCE_Trace
  0137f	48 8b 84 24 60
	04 00 00	 mov	 rax, QWORD PTR pCTCE_Info$[rsp]
  01387	0f b6 40 06	 movzx	 eax, BYTE PTR [rax+6]
  0138b	83 e0 08	 and	 eax, 8
  0138e	83 f8 08	 cmp	 eax, 8
  01391	75 0d		 jne	 SHORT $LN116@CTCE_Trace
  01393	c7 84 24 64 01
	00 00 0c 00 00
	00		 mov	 DWORD PTR tv796[rsp], 12
  0139e	eb 13		 jmp	 SHORT $LN117@CTCE_Trace
$LN116@CTCE_Trace:
  013a0	48 8b 84 24 60
	04 00 00	 mov	 rax, QWORD PTR pCTCE_Info$[rsp]
  013a8	0f b6 40 08	 movzx	 eax, BYTE PTR [rax+8]
  013ac	89 84 24 64 01
	00 00		 mov	 DWORD PTR tv796[rsp], eax
$LN117@CTCE_Trace:
  013b3	48 8b 84 24 68
	04 00 00	 mov	 rax, QWORD PTR pUnitStat$[rsp]
  013bb	0f b6 00	 movzx	 eax, BYTE PTR [rax]
  013be	3b 84 24 64 01
	00 00		 cmp	 eax, DWORD PTR tv796[rsp]
  013c5	0f 84 b1 00 00
	00		 je	 $LN37@CTCE_Trace
  013cb	48 8b 84 24 68
	04 00 00	 mov	 rax, QWORD PTR pUnitStat$[rsp]
  013d3	0f b6 00	 movzx	 eax, BYTE PTR [rax]
  013d6	83 e0 43	 and	 eax, 67			; 00000043H
  013d9	85 c0		 test	 eax, eax
  013db	0f 85 9b 00 00
	00		 jne	 $LN37@CTCE_Trace
  013e1	83 bc 24 58 04
	00 00 02	 cmp	 DWORD PTR eCTCE_Cmd_Xfr$[rsp], 2
  013e9	75 14		 jne	 SHORT $LN38@CTCE_Trace
  013eb	48 8b 84 24 60
	04 00 00	 mov	 rax, QWORD PTR pCTCE_Info$[rsp]
  013f3	0f b6 40 06	 movzx	 eax, BYTE PTR [rax+6]
  013f7	83 e0 20	 and	 eax, 32			; 00000020H
  013fa	83 f8 20	 cmp	 eax, 32			; 00000020H
  013fd	74 7d		 je	 SHORT $LN37@CTCE_Trace
$LN38@CTCE_Trace:
  013ff	83 bc 24 58 04
	00 00 02	 cmp	 DWORD PTR eCTCE_Cmd_Xfr$[rsp], 2
  01407	75 0f		 jne	 SHORT $LN39@CTCE_Trace
  01409	48 8b 84 24 68
	04 00 00	 mov	 rax, QWORD PTR pUnitStat$[rsp]
  01411	0f b6 00	 movzx	 eax, BYTE PTR [rax]
  01414	85 c0		 test	 eax, eax
  01416	74 64		 je	 SHORT $LN37@CTCE_Trace
$LN39@CTCE_Trace:
  01418	48 8b 84 24 60
	04 00 00	 mov	 rax, QWORD PTR pCTCE_Info$[rsp]
  01420	0f b6 40 0d	 movzx	 eax, BYTE PTR [rax+13]
  01424	85 c0		 test	 eax, eax
  01426	75 54		 jne	 SHORT $LN37@CTCE_Trace

; 3402 :     {
; 3403 :         MSGBUF( ctce_trace_xtra_temp,

  01428	48 8b 84 24 60
	04 00 00	 mov	 rax, QWORD PTR pCTCE_Info$[rsp]
  01430	0f b6 40 08	 movzx	 eax, BYTE PTR [rax+8]
  01434	48 8b 8c 24 68
	04 00 00	 mov	 rcx, QWORD PTR pUnitStat$[rsp]
  0143c	0f b6 09	 movzx	 ecx, BYTE PTR [rcx]
  0143f	89 44 24 20	 mov	 DWORD PTR [rsp+32], eax
  01443	44 8b c9	 mov	 r9d, ecx
  01446	4c 8d 05 00 00
	00 00		 lea	 r8, OFFSET FLAT:$SG170291
  0144d	ba 00 01 00 00	 mov	 edx, 256		; 00000100H
  01452	48 8d 8c 24 00
	02 00 00	 lea	 rcx, QWORD PTR ctce_trace_xtra_temp$[rsp]
  0145a	ff 15 00 00 00
	00		 call	 QWORD PTR __imp_w32_snprintf

; 3404 :             " Stat MISMATCH %02X!=%02X(:FSM) !",
; 3405 :             *pUnitStat, pCTCE_Info->x_unit_stat );
; 3406 :         STRLCAT( ctce_trace_xtra, ctce_trace_xtra_temp );

  01460	41 b8 00 01 00
	00		 mov	 r8d, 256		; 00000100H
  01466	48 8d 94 24 00
	02 00 00	 lea	 rdx, QWORD PTR ctce_trace_xtra_temp$[rsp]
  0146e	48 8d 8c 24 00
	03 00 00	 lea	 rcx, QWORD PTR ctce_trace_xtra$[rsp]
  01476	ff 15 00 00 00
	00		 call	 QWORD PTR __imp_strlcat
$LN37@CTCE_Trace:

; 3407 :     }
; 3408 : 
; 3409 :     // Report a contention loser situation.
; 3410 :     if( pCTCE_Info->con_lost )

  0147c	48 8b 84 24 60
	04 00 00	 mov	 rax, QWORD PTR pCTCE_Info$[rsp]
  01484	8b 40 10	 mov	 eax, DWORD PTR [rax+16]
  01487	c1 e8 02	 shr	 eax, 2
  0148a	83 e0 01	 and	 eax, 1
  0148d	85 c0		 test	 eax, eax
  0148f	74 1b		 je	 SHORT $LN40@CTCE_Trace

; 3411 :     {
; 3412 :         STRLCAT( ctce_trace_xtra, " CON_LOSER" );

  01491	41 b8 00 01 00
	00		 mov	 r8d, 256		; 00000100H
  01497	48 8d 15 00 00
	00 00		 lea	 rdx, OFFSET FLAT:$SG170293
  0149e	48 8d 8c 24 00
	03 00 00	 lea	 rcx, QWORD PTR ctce_trace_xtra$[rsp]
  014a6	ff 15 00 00 00
	00		 call	 QWORD PTR __imp_strlcat
$LN40@CTCE_Trace:

; 3413 :     }
; 3414 : 
; 3415 :     // Report a contention winner situation.
; 3416 :     if( pCTCE_Info->con_won )

  014ac	48 8b 84 24 60
	04 00 00	 mov	 rax, QWORD PTR pCTCE_Info$[rsp]
  014b4	8b 40 10	 mov	 eax, DWORD PTR [rax+16]
  014b7	c1 e8 03	 shr	 eax, 3
  014ba	83 e0 01	 and	 eax, 1
  014bd	85 c0		 test	 eax, eax
  014bf	74 1b		 je	 SHORT $LN41@CTCE_Trace

; 3417 :     {
; 3418 :         STRLCAT( ctce_trace_xtra, " IGNORED / CON_WINNER" );

  014c1	41 b8 00 01 00
	00		 mov	 r8d, 256		; 00000100H
  014c7	48 8d 15 00 00
	00 00		 lea	 rdx, OFFSET FLAT:$SG170295
  014ce	48 8d 8c 24 00
	03 00 00	 lea	 rcx, QWORD PTR ctce_trace_xtra$[rsp]
  014d6	ff 15 00 00 00
	00		 call	 QWORD PTR __imp_strlcat
$LN41@CTCE_Trace:

; 3419 :     }
; 3420 : 
; 3421 :     // Report a Halt or Clear causing a Reset.
; 3422 :     if( pDEVBLK->scsw.flag2 & SCSW2_FC_HALT )

  014dc	48 8b 84 24 50
	04 00 00	 mov	 rax, QWORD PTR pDEVBLK$[rsp]
  014e4	0f b6 80 0a 03
	00 00		 movzx	 eax, BYTE PTR [rax+778]
  014eb	83 e0 20	 and	 eax, 32			; 00000020H
  014ee	85 c0		 test	 eax, eax
  014f0	74 1b		 je	 SHORT $LN42@CTCE_Trace

; 3423 :     {
; 3424 :         STRLCAT( ctce_trace_xtra, " HALT" );

  014f2	41 b8 00 01 00
	00		 mov	 r8d, 256		; 00000100H
  014f8	48 8d 15 00 00
	00 00		 lea	 rdx, OFFSET FLAT:$SG170297
  014ff	48 8d 8c 24 00
	03 00 00	 lea	 rcx, QWORD PTR ctce_trace_xtra$[rsp]
  01507	ff 15 00 00 00
	00		 call	 QWORD PTR __imp_strlcat
$LN42@CTCE_Trace:

; 3425 :     }
; 3426 :     if( pDEVBLK->scsw.flag2 & SCSW2_FC_CLEAR )

  0150d	48 8b 84 24 50
	04 00 00	 mov	 rax, QWORD PTR pDEVBLK$[rsp]
  01515	0f b6 80 0a 03
	00 00		 movzx	 eax, BYTE PTR [rax+778]
  0151c	83 e0 10	 and	 eax, 16
  0151f	85 c0		 test	 eax, eax
  01521	74 1b		 je	 SHORT $LN43@CTCE_Trace

; 3427 :     {
; 3428 :         STRLCAT( ctce_trace_xtra, " CLEAR" );

  01523	41 b8 00 01 00
	00		 mov	 r8d, 256		; 00000100H
  01529	48 8d 15 00 00
	00 00		 lea	 rdx, OFFSET FLAT:$SG170299
  01530	48 8d 8c 24 00
	03 00 00	 lea	 rcx, QWORD PTR ctce_trace_xtra$[rsp]
  01538	ff 15 00 00 00
	00		 call	 QWORD PTR __imp_strlcat
$LN43@CTCE_Trace:

; 3429 :     }
; 3430 :     if( IS_CTCE_RST( ctce_Cmd ) &&

  0153e	0f b6 84 24 d0
	00 00 00	 movzx	 eax, BYTE PTR ctce_Cmd$[rsp]
  01546	48 8d 0d 00 00
	00 00		 lea	 rcx, OFFSET FLAT:CTCE_command
  0154d	0f b6 04 01	 movzx	 eax, BYTE PTR [rcx+rax]
  01551	83 f8 0e	 cmp	 eax, 14
  01554	75 31		 jne	 SHORT $LN44@CTCE_Trace
  01556	48 8b 84 24 50
	04 00 00	 mov	 rax, QWORD PTR pDEVBLK$[rsp]
  0155e	0f b6 80 0a 03
	00 00		 movzx	 eax, BYTE PTR [rax+778]
  01565	83 e0 30	 and	 eax, 48			; 00000030H
  01568	85 c0		 test	 eax, eax
  0156a	75 1b		 jne	 SHORT $LN44@CTCE_Trace

; 3431 :        !( pDEVBLK->scsw.flag2 & ( SCSW2_FC_HALT | SCSW2_FC_CLEAR ) ) )
; 3432 :     {
; 3433 :         STRLCAT( ctce_trace_xtra, " RESET" );

  0156c	41 b8 00 01 00
	00		 mov	 r8d, 256		; 00000100H
  01572	48 8d 15 00 00
	00 00		 lea	 rdx, OFFSET FLAT:$SG170301
  01579	48 8d 8c 24 00
	03 00 00	 lea	 rcx, QWORD PTR ctce_trace_xtra$[rsp]
  01581	ff 15 00 00 00
	00		 call	 QWORD PTR __imp_strlcat
$LN44@CTCE_Trace:

; 3434 :     }
; 3435 : 
; 3436 :     // Temporarily triggered trace will end prematureley on a matching
; 3437 :     // Read or Write command.
; 3438 :     if( ( pDEVBLK->ctce_trace_cntr > 0 ) && IS_CTCE_MATCH( pCTCE_Info->actions ) &&

  01587	48 8b 84 24 50
	04 00 00	 mov	 rax, QWORD PTR pDEVBLK$[rsp]
  0158f	83 b8 68 07 00
	00 00		 cmp	 DWORD PTR [rax+1896], 0
  01596	0f 8e e6 00 00
	00		 jle	 $LN45@CTCE_Trace
  0159c	48 8b 84 24 60
	04 00 00	 mov	 rax, QWORD PTR pCTCE_Info$[rsp]
  015a4	0f b6 40 06	 movzx	 eax, BYTE PTR [rax+6]
  015a8	83 e0 08	 and	 eax, 8
  015ab	83 f8 08	 cmp	 eax, 8
  015ae	0f 85 ce 00 00
	00		 jne	 $LN45@CTCE_Trace
  015b4	0f b6 84 24 d0
	00 00 00	 movzx	 eax, BYTE PTR ctce_Cmd$[rsp]
  015bc	48 8d 0d 00 00
	00 00		 lea	 rcx, OFFSET FLAT:CTCE_command
  015c3	0f b6 04 01	 movzx	 eax, BYTE PTR [rcx+rax]
  015c7	83 f8 02	 cmp	 eax, 2
  015ca	0f 84 a0 00 00
	00		 je	 $LN46@CTCE_Trace
  015d0	48 8b 84 24 50
	04 00 00	 mov	 rax, QWORD PTR pDEVBLK$[rsp]
  015d8	8b 80 18 07 00
	00		 mov	 eax, DWORD PTR [rax+1816]
  015de	83 e0 01	 and	 eax, 1
  015e1	85 c0		 test	 eax, eax
  015e3	75 67		 jne	 SHORT $LN118@CTCE_Trace
  015e5	48 8b 84 24 50
	04 00 00	 mov	 rax, QWORD PTR pDEVBLK$[rsp]
  015ed	8b 80 74 07 00
	00		 mov	 eax, DWORD PTR [rax+1908]
  015f3	c1 e8 03	 shr	 eax, 3
  015f6	83 e0 01	 and	 eax, 1
  015f9	85 c0		 test	 eax, eax
  015fb	75 4f		 jne	 SHORT $LN118@CTCE_Trace
  015fd	0f b6 84 24 d0
	00 00 00	 movzx	 eax, BYTE PTR ctce_Cmd$[rsp]
  01605	48 8d 0d 00 00
	00 00		 lea	 rcx, OFFSET FLAT:CTCE_command
  0160c	0f b6 04 01	 movzx	 eax, BYTE PTR [rcx+rax]
  01610	83 f8 07	 cmp	 eax, 7
  01613	75 0d		 jne	 SHORT $LN119@CTCE_Trace
  01615	c7 84 24 68 01
	00 00 03 00 00
	00		 mov	 DWORD PTR tv894[rsp], 3
  01620	eb 1a		 jmp	 SHORT $LN120@CTCE_Trace
$LN119@CTCE_Trace:
  01622	0f b6 84 24 d0
	00 00 00	 movzx	 eax, BYTE PTR ctce_Cmd$[rsp]
  0162a	48 8d 0d 00 00
	00 00		 lea	 rcx, OFFSET FLAT:CTCE_command
  01631	0f b6 04 01	 movzx	 eax, BYTE PTR [rcx+rax]
  01635	89 84 24 68 01
	00 00		 mov	 DWORD PTR tv894[rsp], eax
$LN120@CTCE_Trace:
  0163c	8b 84 24 68 01
	00 00		 mov	 eax, DWORD PTR tv894[rsp]
  01643	89 84 24 6c 01
	00 00		 mov	 DWORD PTR tv895[rsp], eax
  0164a	eb 1a		 jmp	 SHORT $LN121@CTCE_Trace
$LN118@CTCE_Trace:
  0164c	0f b6 84 24 d0
	00 00 00	 movzx	 eax, BYTE PTR ctce_Cmd$[rsp]
  01654	48 8d 0d 00 00
	00 00		 lea	 rcx, OFFSET FLAT:CTCE_command
  0165b	0f b6 04 01	 movzx	 eax, BYTE PTR [rcx+rax]
  0165f	89 84 24 6c 01
	00 00		 mov	 DWORD PTR tv895[rsp], eax
$LN121@CTCE_Trace:
  01666	83 bc 24 6c 01
	00 00 03	 cmp	 DWORD PTR tv895[rsp], 3
  0166e	75 12		 jne	 SHORT $LN45@CTCE_Trace
$LN46@CTCE_Trace:

; 3439 :         ( IS_CTCE_CCW_RED( ctce_Cmd ) || IS_CTCE_CCW_WRT( ctce_Cmd ) ) )
; 3440 :     {
; 3441 :         pDEVBLK->ctce_trace_cntr = 0;

  01670	48 8b 84 24 50
	04 00 00	 mov	 rax, QWORD PTR pDEVBLK$[rsp]
  01678	c7 80 68 07 00
	00 00 00 00 00	 mov	 DWORD PTR [rax+1896], 0
$LN45@CTCE_Trace:

; 3442 :     }
; 3443 : 
; 3444 :     // Add an ending dot if this ends a temporarily triggered trace.
; 3445 :     if( !pDEVBLK->ccwtrace && ( pDEVBLK->ctce_trace_cntr == 0 ) )

  01682	48 8b 84 24 50
	04 00 00	 mov	 rax, QWORD PTR pDEVBLK$[rsp]
  0168a	8b 80 f8 05 00
	00		 mov	 eax, DWORD PTR [rax+1528]
  01690	c1 e8 0f	 shr	 eax, 15
  01693	83 e0 01	 and	 eax, 1
  01696	85 c0		 test	 eax, eax
  01698	75 2c		 jne	 SHORT $LN47@CTCE_Trace
  0169a	48 8b 84 24 50
	04 00 00	 mov	 rax, QWORD PTR pDEVBLK$[rsp]
  016a2	83 b8 68 07 00
	00 00		 cmp	 DWORD PTR [rax+1896], 0
  016a9	75 1b		 jne	 SHORT $LN47@CTCE_Trace

; 3446 :     {
; 3447 :         STRLCAT( ctce_trace_xtra, "." );

  016ab	41 b8 00 01 00
	00		 mov	 r8d, 256		; 00000100H
  016b1	48 8d 15 00 00
	00 00		 lea	 rdx, OFFSET FLAT:$SG170305
  016b8	48 8d 8c 24 00
	03 00 00	 lea	 rcx, QWORD PTR ctce_trace_xtra$[rsp]
  016c0	ff 15 00 00 00
	00		 call	 QWORD PTR __imp_strlcat
$LN47@CTCE_Trace:

; 3448 :     }
; 3449 : 
; 3450 : /*
; 3451 : 
; 3452 : HHC05079I <src_dev> CTCE: <direction> <dst_dev> <seq#> cmd=<cmd>=<cmd_hex>
; 3453 :           xy=<x_src><y_src><direction><x_dst><y_dst> l=<length> k=<chksum>
; 3454 :           Stat=<stat> <extra_msgs>
; 3455 : 
; 3456 : Explanation
; 3457 :         The CTCE device <local_dev> processes a <cmd> (hex value <cmd_hex>).
; 3458 :         The <direction> shows whether it originates locally (the x-side),
; 3459 :         and if it needs to be sent (->) to the remote <remote_dev> device
; 3460 :         (the y-side), or if the command was received (<-) from the y-side.
; 3461 :         The command causes a state transition shown in <x_local><y_local>
; 3462 :         <direction> <x_remote><y_remote>, using single-letter presentations
; 3463 :         for these (p, c, r, w, a, n); the change is highlighted in uppercase.
; 3464 :         (p=Prepare, c=Control, r=Read, w=Write, a=Available, n=Not-Ready).
; 3465 :         The resulting unit device status is shown in hex <stat>.  Extra
; 3466 :         action indications are given in <extra_msgs>, .e.g. WAIT for a
; 3467 :         matching command from the other y-side, raise ATTN at the other
; 3468 :         side which results in ATTN->RC=rc or is canceled ATTN->NONE,
; 3469 :         DE_READY->RC=rc showing DE singalling READY from the other side,
; 3470 :         and End-of-File being set (WEOF->SET) or cleared (WEOF->CLR) or
; 3471 :         just found to be set (WEOF).  WEOF->UX shows when it generates a
; 3472 :         device Unit Exception.  Other <extra_msgs> may appear.
; 3473 : 
; 3474 : Action
; 3475 :         None.
; 3476 : 
; 3477 : */
; 3478 : 
; 3479 :     WRMSG( HHC05079, "I",  // CTCE: %s %.6s #%04X cmd=%s=%02X xy=%.2s%s%.2s l=%04X k=%08X %s%s%s%s%s%s

  016c6	48 8b 84 24 60
	04 00 00	 mov	 rax, QWORD PTR pCTCE_Info$[rsp]
  016ce	0f b6 40 06	 movzx	 eax, BYTE PTR [rax+6]
  016d2	83 e0 10	 and	 eax, 16
  016d5	83 f8 10	 cmp	 eax, 16
  016d8	75 11		 jne	 SHORT $LN122@CTCE_Trace
  016da	48 8d 05 00 00
	00 00		 lea	 rax, OFFSET FLAT:$SG170306
  016e1	48 89 84 24 98
	01 00 00	 mov	 QWORD PTR tv912[rsp], rax
  016e9	eb 0f		 jmp	 SHORT $LN123@CTCE_Trace
$LN122@CTCE_Trace:
  016eb	48 8d 05 00 00
	00 00		 lea	 rax, OFFSET FLAT:$SG170307
  016f2	48 89 84 24 98
	01 00 00	 mov	 QWORD PTR tv912[rsp], rax
$LN123@CTCE_Trace:
  016fa	48 8b 84 24 60
	04 00 00	 mov	 rax, QWORD PTR pCTCE_Info$[rsp]
  01702	0f b6 40 06	 movzx	 eax, BYTE PTR [rax+6]
  01706	83 e0 08	 and	 eax, 8
  01709	83 f8 08	 cmp	 eax, 8
  0170c	75 11		 jne	 SHORT $LN124@CTCE_Trace
  0170e	48 8d 05 00 00
	00 00		 lea	 rax, OFFSET FLAT:$SG170308
  01715	48 89 84 24 a0
	01 00 00	 mov	 QWORD PTR tv918[rsp], rax
  0171d	eb 0f		 jmp	 SHORT $LN125@CTCE_Trace
$LN124@CTCE_Trace:
  0171f	48 8d 05 00 00
	00 00		 lea	 rax, OFFSET FLAT:$SG170309
  01726	48 89 84 24 a0
	01 00 00	 mov	 QWORD PTR tv918[rsp], rax
$LN125@CTCE_Trace:
  0172e	48 8b 84 24 60
	04 00 00	 mov	 rax, QWORD PTR pCTCE_Info$[rsp]
  01736	0f b6 40 06	 movzx	 eax, BYTE PTR [rax+6]
  0173a	83 e0 20	 and	 eax, 32			; 00000020H
  0173d	83 f8 20	 cmp	 eax, 32			; 00000020H
  01740	75 11		 jne	 SHORT $LN126@CTCE_Trace
  01742	48 8d 05 00 00
	00 00		 lea	 rax, OFFSET FLAT:$SG170310
  01749	48 89 84 24 a8
	01 00 00	 mov	 QWORD PTR tv924[rsp], rax
  01751	eb 0f		 jmp	 SHORT $LN127@CTCE_Trace
$LN126@CTCE_Trace:
  01753	48 8d 05 00 00
	00 00		 lea	 rax, OFFSET FLAT:$SG170311
  0175a	48 89 84 24 a8
	01 00 00	 mov	 QWORD PTR tv924[rsp], rax
$LN127@CTCE_Trace:
  01762	48 8b 84 24 60
	04 00 00	 mov	 rax, QWORD PTR pCTCE_Info$[rsp]
  0176a	0f b6 40 06	 movzx	 eax, BYTE PTR [rax+6]
  0176e	25 80 00 00 00	 and	 eax, 128		; 00000080H
  01773	3d 80 00 00 00	 cmp	 eax, 128		; 00000080H
  01778	75 11		 jne	 SHORT $LN128@CTCE_Trace
  0177a	48 8d 05 00 00
	00 00		 lea	 rax, OFFSET FLAT:$SG170312
  01781	48 89 84 24 b0
	01 00 00	 mov	 QWORD PTR tv962[rsp], rax
  01789	eb 0f		 jmp	 SHORT $LN129@CTCE_Trace
$LN128@CTCE_Trace:
  0178b	48 8d 05 00 00
	00 00		 lea	 rax, OFFSET FLAT:$SG170313
  01792	48 89 84 24 b0
	01 00 00	 mov	 QWORD PTR tv962[rsp], rax
$LN129@CTCE_Trace:
  0179a	48 8b 84 24 50
	04 00 00	 mov	 rax, QWORD PTR pDEVBLK$[rsp]
  017a2	8b 80 18 07 00
	00		 mov	 eax, DWORD PTR [rax+1816]
  017a8	83 e0 01	 and	 eax, 1
  017ab	85 c0		 test	 eax, eax
  017ad	75 67		 jne	 SHORT $LN130@CTCE_Trace
  017af	48 8b 84 24 50
	04 00 00	 mov	 rax, QWORD PTR pDEVBLK$[rsp]
  017b7	8b 80 74 07 00
	00		 mov	 eax, DWORD PTR [rax+1908]
  017bd	c1 e8 03	 shr	 eax, 3
  017c0	83 e0 01	 and	 eax, 1
  017c3	85 c0		 test	 eax, eax
  017c5	75 4f		 jne	 SHORT $LN130@CTCE_Trace
  017c7	0f b6 84 24 d0
	00 00 00	 movzx	 eax, BYTE PTR ctce_Cmd$[rsp]
  017cf	48 8d 0d 00 00
	00 00		 lea	 rcx, OFFSET FLAT:CTCE_command
  017d6	0f b6 04 01	 movzx	 eax, BYTE PTR [rcx+rax]
  017da	83 f8 07	 cmp	 eax, 7
  017dd	75 0d		 jne	 SHORT $LN131@CTCE_Trace
  017df	c7 84 24 70 01
	00 00 03 00 00
	00		 mov	 DWORD PTR tv1001[rsp], 3
  017ea	eb 1a		 jmp	 SHORT $LN132@CTCE_Trace
$LN131@CTCE_Trace:
  017ec	0f b6 84 24 d0
	00 00 00	 movzx	 eax, BYTE PTR ctce_Cmd$[rsp]
  017f4	48 8d 0d 00 00
	00 00		 lea	 rcx, OFFSET FLAT:CTCE_command
  017fb	0f b6 04 01	 movzx	 eax, BYTE PTR [rcx+rax]
  017ff	89 84 24 70 01
	00 00		 mov	 DWORD PTR tv1001[rsp], eax
$LN132@CTCE_Trace:
  01806	8b 84 24 70 01
	00 00		 mov	 eax, DWORD PTR tv1001[rsp]
  0180d	89 84 24 74 01
	00 00		 mov	 DWORD PTR tv1002[rsp], eax
  01814	eb 1a		 jmp	 SHORT $LN133@CTCE_Trace
$LN130@CTCE_Trace:
  01816	0f b6 84 24 d0
	00 00 00	 movzx	 eax, BYTE PTR ctce_Cmd$[rsp]
  0181e	48 8d 0d 00 00
	00 00		 lea	 rcx, OFFSET FLAT:CTCE_command
  01825	0f b6 04 01	 movzx	 eax, BYTE PTR [rcx+rax]
  01829	89 84 24 74 01
	00 00		 mov	 DWORD PTR tv1002[rsp], eax
$LN133@CTCE_Trace:
  01830	48 8b 84 24 e0
	00 00 00	 mov	 rax, QWORD PTR pSokBuf$[rsp]
  01838	0f b7 50 08	 movzx	 edx, WORD PTR [rax+8]
  0183c	48 8b 8c 24 e0
	00 00 00	 mov	 rcx, QWORD PTR pSokBuf$[rsp]
  01844	e8 00 00 00 00	 call	 CTCE_ChkSum
  01849	89 84 24 80 01
	00 00		 mov	 DWORD PTR tv965[rsp], eax
  01850	48 8b 8c 24 e0
	00 00 00	 mov	 rcx, QWORD PTR pSokBuf$[rsp]
  01858	0f b7 49 02	 movzx	 ecx, WORD PTR [rcx+2]
  0185c	89 8c 24 84 01
	00 00		 mov	 DWORD PTR tv971[rsp], ecx
  01863	48 63 94 24 58
	04 00 00	 movsxd	 rdx, DWORD PTR eCTCE_Cmd_Xfr$[rsp]
  0186b	48 89 94 24 c0
	01 00 00	 mov	 QWORD PTR tv974[rsp], rdx
  01873	4c 8d 05 00 00
	00 00		 lea	 r8, OFFSET FLAT:?CTCE_XfrStr@?1??CTCE_Trace@@9@9
  0187a	4c 89 84 24 b8
	01 00 00	 mov	 QWORD PTR tv1091[rsp], r8
  01882	44 0f b6 8c 24
	d0 00 00 00	 movzx	 r9d, BYTE PTR ctce_Cmd$[rsp]
  0188b	44 89 8c 24 88
	01 00 00	 mov	 DWORD PTR tv979[rsp], r9d
  01893	4c 63 94 24 74
	01 00 00	 movsxd	 r10, DWORD PTR tv1002[rsp]
  0189b	4c 89 94 24 d0
	01 00 00	 mov	 QWORD PTR tv1003[rsp], r10
  018a3	4c 8d 1d 00 00
	00 00		 lea	 r11, OFFSET FLAT:CTCE_CmdStr
  018aa	4c 89 9c 24 c8
	01 00 00	 mov	 QWORD PTR tv1092[rsp], r11
  018b2	0f b6 9c 24 dc
	00 00 00	 movzx	 ebx, BYTE PTR ctce_PktSeq$[rsp]
  018ba	48 8b bc 24 50
	04 00 00	 mov	 rdi, QWORD PTR pDEVBLK$[rsp]
  018c2	48 81 c7 a4 00
	00 00		 add	 rdi, 164		; 000000a4H
  018c9	48 63 b4 24 58
	04 00 00	 movsxd	 rsi, DWORD PTR eCTCE_Cmd_Xfr$[rsp]
  018d1	48 8d 2d 00 00
	00 00		 lea	 rbp, OFFSET FLAT:?CTCE_XfrStr@?1??CTCE_Trace@@9@9
  018d8	4c 8b b4 24 50
	04 00 00	 mov	 r14, QWORD PTR pDEVBLK$[rsp]
  018e0	45 0f b7 76 48	 movzx	 r14d, WORD PTR [r14+72]
  018e5	4c 8b bc 24 50
	04 00 00	 mov	 r15, QWORD PTR pDEVBLK$[rsp]
  018ed	45 0f b7 7f 44	 movzx	 r15d, WORD PTR [r15+68]
  018f2	41 d1 ff	 sar	 r15d, 1
  018f5	b9 01 00 00 00	 mov	 ecx, 1
  018fa	ff 15 00 00 00
	00		 call	 QWORD PTR __imp___acrt_iob_func
  01900	48 8d 8c 24 00
	03 00 00	 lea	 rcx, QWORD PTR ctce_trace_xtra$[rsp]
  01908	48 89 8c 24 c0
	00 00 00	 mov	 QWORD PTR [rsp+192], rcx
  01910	48 8b 8c 24 98
	01 00 00	 mov	 rcx, QWORD PTR tv912[rsp]
  01918	48 89 8c 24 b8
	00 00 00	 mov	 QWORD PTR [rsp+184], rcx
  01920	48 8b 8c 24 a0
	01 00 00	 mov	 rcx, QWORD PTR tv918[rsp]
  01928	48 89 8c 24 b0
	00 00 00	 mov	 QWORD PTR [rsp+176], rcx
  01930	48 8b 8c 24 a8
	01 00 00	 mov	 rcx, QWORD PTR tv924[rsp]
  01938	48 89 8c 24 a8
	00 00 00	 mov	 QWORD PTR [rsp+168], rcx
  01940	48 8b 8c 24 b0
	01 00 00	 mov	 rcx, QWORD PTR tv962[rsp]
  01948	48 89 8c 24 a0
	00 00 00	 mov	 QWORD PTR [rsp+160], rcx
  01950	48 8d 8c 24 e0
	01 00 00	 lea	 rcx, QWORD PTR ctce_trace_stat$[rsp]
  01958	48 89 8c 24 98
	00 00 00	 mov	 QWORD PTR [rsp+152], rcx
  01960	8b 8c 24 80 01
	00 00		 mov	 ecx, DWORD PTR tv965[rsp]
  01967	89 8c 24 90 00
	00 00		 mov	 DWORD PTR [rsp+144], ecx
  0196e	8b 8c 24 84 01
	00 00		 mov	 ecx, DWORD PTR tv971[rsp]
  01975	89 8c 24 88 00
	00 00		 mov	 DWORD PTR [rsp+136], ecx
  0197c	48 8d 8c 24 d4
	00 00 00	 lea	 rcx, QWORD PTR ctce_state_r_xy$[rsp]
  01984	48 89 8c 24 80
	00 00 00	 mov	 QWORD PTR [rsp+128], rcx
  0198c	48 8b 94 24 b8
	01 00 00	 mov	 rdx, QWORD PTR tv1091[rsp]
  01994	48 8b 8c 24 c0
	01 00 00	 mov	 rcx, QWORD PTR tv974[rsp]
  0199c	48 8b 0c ca	 mov	 rcx, QWORD PTR [rdx+rcx*8]
  019a0	48 89 4c 24 78	 mov	 QWORD PTR [rsp+120], rcx
  019a5	48 8d 8c 24 d8
	00 00 00	 lea	 rcx, QWORD PTR ctce_state_l_xy$[rsp]
  019ad	48 89 4c 24 70	 mov	 QWORD PTR [rsp+112], rcx
  019b2	8b 8c 24 88 01
	00 00		 mov	 ecx, DWORD PTR tv979[rsp]
  019b9	89 4c 24 68	 mov	 DWORD PTR [rsp+104], ecx
  019bd	48 8b 8c 24 c8
	01 00 00	 mov	 rcx, QWORD PTR tv1092[rsp]
  019c5	48 8b 94 24 d0
	01 00 00	 mov	 rdx, QWORD PTR tv1003[rsp]
  019cd	48 8b 0c d1	 mov	 rcx, QWORD PTR [rcx+rdx*8]
  019d1	48 89 4c 24 60	 mov	 QWORD PTR [rsp+96], rcx
  019d6	89 5c 24 58	 mov	 DWORD PTR [rsp+88], ebx
  019da	48 89 7c 24 50	 mov	 QWORD PTR [rsp+80], rdi
  019df	48 8b 4c f5 00	 mov	 rcx, QWORD PTR [rbp+rsi*8]
  019e4	48 89 4c 24 48	 mov	 QWORD PTR [rsp+72], rcx
  019e9	44 89 74 24 40	 mov	 DWORD PTR [rsp+64], r14d
  019ee	44 89 7c 24 38	 mov	 DWORD PTR [rsp+56], r15d
  019f3	48 8d 0d 00 00
	00 00		 lea	 rcx, OFFSET FLAT:$SG170314
  019fa	48 89 4c 24 30	 mov	 QWORD PTR [rsp+48], rcx
  019ff	48 8d 0d 00 00
	00 00		 lea	 rcx, OFFSET FLAT:$SG170315
  01a06	48 89 4c 24 28	 mov	 QWORD PTR [rsp+40], rcx
  01a0b	48 89 44 24 20	 mov	 QWORD PTR [rsp+32], rax
  01a10	41 b9 03 00 00
	00		 mov	 r9d, 3
  01a16	4c 8d 05 00 00
	00 00		 lea	 r8, OFFSET FLAT:$SG170316
  01a1d	ba a0 0d 00 00	 mov	 edx, 3488		; 00000da0H
  01a22	48 8d 0d 00 00
	00 00		 lea	 rcx, OFFSET FLAT:$SG170317
  01a29	ff 15 00 00 00
	00		 call	 QWORD PTR __imp_fwritemsg

; 3480 :         CTCX_DEVNUM( pDEVBLK ), CTCE_XfrStr[eCTCE_Cmd_Xfr],
; 3481 :         pDEVBLK->filename, ctce_PktSeq,
; 3482 :         CTCE_CmdStr[CTCE_CMD( ctce_Cmd )], ctce_Cmd,
; 3483 :         ctce_state_l_xy, CTCE_XfrStr[eCTCE_Cmd_Xfr],
; 3484 :         ctce_state_r_xy, pSokBuf->sCount,
; 3485 :         CTCE_ChkSum( ( BYTE * ) pSokBuf, pSokBuf->SndLen ),
; 3486 :         ctce_trace_stat,
; 3487 :         CTCE_ACTIONS_PRT( pCTCE_Info->actions ),
; 3488 :         ctce_trace_xtra );
; 3489 :     if( pDEVBLK->ccwtrace )

  01a2f	48 8b 84 24 50
	04 00 00	 mov	 rax, QWORD PTR pDEVBLK$[rsp]
  01a37	8b 80 f8 05 00
	00		 mov	 eax, DWORD PTR [rax+1528]
  01a3d	c1 e8 0f	 shr	 eax, 15
  01a40	83 e0 01	 and	 eax, 1
  01a43	85 c0		 test	 eax, eax
  01a45	0f 84 a4 00 00
	00		 je	 $LN48@CTCE_Trace

; 3490 :     {
; 3491 :         MSGBUF( ctce_devnum, "%1d:%04X", CTCE_DEVNUM( pDEVBLK ) );

  01a4b	48 8b 84 24 50
	04 00 00	 mov	 rax, QWORD PTR pDEVBLK$[rsp]
  01a53	0f b7 40 48	 movzx	 eax, WORD PTR [rax+72]
  01a57	48 8b 8c 24 50
	04 00 00	 mov	 rcx, QWORD PTR pDEVBLK$[rsp]
  01a5f	0f b7 49 44	 movzx	 ecx, WORD PTR [rcx+68]
  01a63	d1 f9		 sar	 ecx, 1
  01a65	89 44 24 20	 mov	 DWORD PTR [rsp+32], eax
  01a69	44 8b c9	 mov	 r9d, ecx
  01a6c	4c 8d 05 00 00
	00 00		 lea	 r8, OFFSET FLAT:$SG170319
  01a73	ba 08 00 00 00	 mov	 edx, 8
  01a78	48 8d 8c 24 d8
	01 00 00	 lea	 rcx, QWORD PTR ctce_devnum$[rsp]
  01a80	ff 15 00 00 00
	00		 call	 QWORD PTR __imp_w32_snprintf

; 3492 :         net_data_trace( pDEVBLK, ( BYTE * ) pSokBuf, pSokBuf->SndLen ,

  01a86	83 bc 24 58 04
	00 00 02	 cmp	 DWORD PTR eCTCE_Cmd_Xfr$[rsp], 2
  01a8e	75 0d		 jne	 SHORT $LN134@CTCE_Trace
  01a90	c7 84 24 78 01
	00 00 3c 00 00
	00		 mov	 DWORD PTR tv1049[rsp], 60 ; 0000003cH
  01a9b	eb 0b		 jmp	 SHORT $LN135@CTCE_Trace
$LN134@CTCE_Trace:
  01a9d	c7 84 24 78 01
	00 00 3e 00 00
	00		 mov	 DWORD PTR tv1049[rsp], 62 ; 0000003eH
$LN135@CTCE_Trace:
  01aa8	48 8b 84 24 e0
	00 00 00	 mov	 rax, QWORD PTR pSokBuf$[rsp]
  01ab0	0f b7 40 08	 movzx	 eax, WORD PTR [rax+8]
  01ab4	c7 44 24 30 00
	00 00 00	 mov	 DWORD PTR [rsp+48], 0
  01abc	48 8d 8c 24 d8
	01 00 00	 lea	 rcx, QWORD PTR ctce_devnum$[rsp]
  01ac4	48 89 4c 24 28	 mov	 QWORD PTR [rsp+40], rcx
  01ac9	c6 44 24 20 44	 mov	 BYTE PTR [rsp+32], 68	; 00000044H
  01ace	44 0f b6 8c 24
	78 01 00 00	 movzx	 r9d, BYTE PTR tv1049[rsp]
  01ad7	44 8b c0	 mov	 r8d, eax
  01ada	48 8b 94 24 e0
	00 00 00	 mov	 rdx, QWORD PTR pSokBuf$[rsp]
  01ae2	48 8b 8c 24 50
	04 00 00	 mov	 rcx, QWORD PTR pDEVBLK$[rsp]
  01aea	e8 00 00 00 00	 call	 net_data_trace
$LN48@CTCE_Trace:
$LN49@CTCE_Trace:

; 3493 :             ( eCTCE_Cmd_Xfr == CTCE_RCV ) ? '<' : '>', 'D', ctce_devnum, 0 );
; 3494 :     }
; 3495 :     return;
; 3496 : 
; 3497 : } // CTCE_Trace

  01aef	48 8b 8c 24 00
	04 00 00	 mov	 rcx, QWORD PTR __$ArrayPad$[rsp]
  01af7	48 33 cc	 xor	 rcx, rsp
  01afa	e8 00 00 00 00	 call	 __security_check_cookie
  01aff	48 81 c4 18 04
	00 00		 add	 rsp, 1048		; 00000418H
  01b06	41 5f		 pop	 r15
  01b08	41 5e		 pop	 r14
  01b0a	5f		 pop	 rdi
  01b0b	5e		 pop	 rsi
  01b0c	5d		 pop	 rbp
  01b0d	5b		 pop	 rbx
  01b0e	c3		 ret	 0
CTCE_Trace ENDP
_TEXT	ENDS
; Function compile flags: /Odtp
; File C:\papa\MyGit\hyperion-zvector\ctcadpt.c
_TEXT	SEGMENT
i$ = 0
XORChk$ = 4
pXOR$ = 8
pBuf$ = 32
BufLen$ = 40
CTCE_ChkSum PROC

; 3149 : {

  00000	66 89 54 24 10	 mov	 WORD PTR [rsp+16], dx
  00005	48 89 4c 24 08	 mov	 QWORD PTR [rsp+8], rcx
  0000a	48 83 ec 18	 sub	 rsp, 24

; 3150 :     U32            i;
; 3151 :     U32            XORChk = 0;                   // XOR of buffer for checking

  0000e	c7 44 24 04 00
	00 00 00	 mov	 DWORD PTR XORChk$[rsp], 0

; 3152 :     BYTE          *pXOR = (BYTE*)&XORChk;        // -> XORChk

  00016	48 8d 44 24 04	 lea	 rax, QWORD PTR XORChk$[rsp]
  0001b	48 89 44 24 08	 mov	 QWORD PTR pXOR$[rsp], rax

; 3153 : 
; 3154 : 
; 3155 :     // We initialize the result with the buffer length so that
; 3156 :     // different length zero buffers yield a different checksum.
; 3157 :     XORChk = BufLen;

  00020	0f b7 44 24 28	 movzx	 eax, WORD PTR BufLen$[rsp]
  00025	89 44 24 04	 mov	 DWORD PTR XORChk$[rsp], eax

; 3158 :     for(i = 0; i < BufLen; i++)

  00029	c7 04 24 00 00
	00 00		 mov	 DWORD PTR i$[rsp], 0
  00030	eb 08		 jmp	 SHORT $LN4@CTCE_ChkSu
$LN2@CTCE_ChkSu:
  00032	8b 04 24	 mov	 eax, DWORD PTR i$[rsp]
  00035	ff c0		 inc	 eax
  00037	89 04 24	 mov	 DWORD PTR i$[rsp], eax
$LN4@CTCE_ChkSu:
  0003a	0f b7 44 24 28	 movzx	 eax, WORD PTR BufLen$[rsp]
  0003f	39 04 24	 cmp	 DWORD PTR i$[rsp], eax
  00042	73 53		 jae	 SHORT $LN3@CTCE_ChkSu

; 3159 :     {
; 3160 :         if( (i % 4) == 0 )

  00044	33 d2		 xor	 edx, edx
  00046	8b 04 24	 mov	 eax, DWORD PTR i$[rsp]
  00049	b9 04 00 00 00	 mov	 ecx, 4
  0004e	f7 f1		 div	 ecx
  00050	8b c2		 mov	 eax, edx
  00052	85 c0		 test	 eax, eax
  00054	75 0a		 jne	 SHORT $LN5@CTCE_ChkSu

; 3161 :         {
; 3162 :            pXOR = (BYTE*)&XORChk;

  00056	48 8d 44 24 04	 lea	 rax, QWORD PTR XORChk$[rsp]
  0005b	48 89 44 24 08	 mov	 QWORD PTR pXOR$[rsp], rax
$LN5@CTCE_ChkSu:

; 3163 :         }
; 3164 :         *pXOR++ ^= *pBuf++;

  00060	48 8b 44 24 20	 mov	 rax, QWORD PTR pBuf$[rsp]
  00065	0f b6 00	 movzx	 eax, BYTE PTR [rax]
  00068	48 8b 4c 24 08	 mov	 rcx, QWORD PTR pXOR$[rsp]
  0006d	0f b6 09	 movzx	 ecx, BYTE PTR [rcx]
  00070	33 c8		 xor	 ecx, eax
  00072	8b c1		 mov	 eax, ecx
  00074	48 8b 4c 24 08	 mov	 rcx, QWORD PTR pXOR$[rsp]
  00079	88 01		 mov	 BYTE PTR [rcx], al
  0007b	48 8b 44 24 20	 mov	 rax, QWORD PTR pBuf$[rsp]
  00080	48 ff c0	 inc	 rax
  00083	48 89 44 24 20	 mov	 QWORD PTR pBuf$[rsp], rax
  00088	48 8b 44 24 08	 mov	 rax, QWORD PTR pXOR$[rsp]
  0008d	48 ff c0	 inc	 rax
  00090	48 89 44 24 08	 mov	 QWORD PTR pXOR$[rsp], rax

; 3165 :     }

  00095	eb 9b		 jmp	 SHORT $LN2@CTCE_ChkSu
$LN3@CTCE_ChkSu:

; 3166 :     return XORChk;

  00097	8b 44 24 04	 mov	 eax, DWORD PTR XORChk$[rsp]

; 3167 : 
; 3168 : } // CTCE_ChkSum

  0009b	48 83 c4 18	 add	 rsp, 24
  0009f	c3		 ret	 0
CTCE_ChkSum ENDP
_TEXT	ENDS
; Function compile flags: /Odtp
; File C:\papa\MyGit\hyperion-zvector\ctcadpt.c
_TEXT	SEGMENT
UnitStat$ = 48
tv88 = 52
tv167 = 56
tv193 = 60
tv194 = 64
tv168 = 68
tv195 = 72
tv217 = 76
tv243 = 80
tv244 = 84
tv218 = 88
tv245 = 92
tv269 = 96
tv295 = 100
tv296 = 104
tv270 = 108
tv297 = 112
tv306 = 116
tv326 = 120
tv352 = 124
tv353 = 128
tv327 = 132
tv354 = 136
tv378 = 140
tv404 = 144
tv405 = 148
tv379 = 152
tv406 = 156
tv415 = 160
tv434 = 164
tv460 = 168
tv461 = 172
tv435 = 176
tv462 = 180
tv484 = 184
tv510 = 188
tv511 = 192
tv485 = 196
tv512 = 200
tv558 = 204
tv560 = 208
Residual$ = 212
tv552 = 216
CTCE_Info$ = 224
__$ArrayPad$ = 256
pDEVBLK$ = 288
CTCE_Reset PROC

; 3069 : {

  00000	48 89 4c 24 08	 mov	 QWORD PTR [rsp+8], rcx
  00005	57		 push	 rdi
  00006	48 81 ec 10 01
	00 00		 sub	 rsp, 272		; 00000110H
  0000d	48 8b 05 00 00
	00 00		 mov	 rax, QWORD PTR __security_cookie
  00014	48 33 c4	 xor	 rax, rsp
  00017	48 89 84 24 00
	01 00 00	 mov	 QWORD PTR __$ArrayPad$[rsp], rax

; 3070 :     BYTE            UnitStat = 0;           // Only used as CTCE_Send needs it.

  0001f	c6 44 24 30 00	 mov	 BYTE PTR UnitStat$[rsp], 0

; 3071 :     CCWC            Residual = 0;           // Only used as CTCE_Send needs it.

  00024	c7 84 24 d4 00
	00 00 00 00 00
	00		 mov	 DWORD PTR Residual$[rsp], 0

; 3072 :     CTCE_INFO       CTCE_Info = { 0 };      // CTCE information (also for tracing)

  0002f	48 8d 84 24 e0
	00 00 00	 lea	 rax, QWORD PTR CTCE_Info$[rsp]
  00037	48 8b f8	 mov	 rdi, rax
  0003a	33 c0		 xor	 eax, eax
  0003c	b9 20 00 00 00	 mov	 ecx, 32			; 00000020H
  00041	f3 aa		 rep stosb

; 3073 : 
; 3074 :     // The caller already did an obtain_lock( &pDEVBLK->lock ).
; 3075 : 
; 3076 :     // Initialise our CTCE_Info previous x- and y-states for CTCE_Trace.
; 3077 :     CTCE_Info.state_x_prev       = pDEVBLK->ctcexState;

  00043	48 8b 84 24 20
	01 00 00	 mov	 rax, QWORD PTR pDEVBLK$[rsp]
  0004b	0f b6 80 34 07
	00 00		 movzx	 eax, BYTE PTR [rax+1844]
  00052	88 84 24 e4 00
	00 00		 mov	 BYTE PTR CTCE_Info$[rsp+4], al

; 3078 :     CTCE_Info.state_y_prev       = pDEVBLK->ctceyState;

  00059	48 8b 84 24 20
	01 00 00	 mov	 rax, QWORD PTR pDEVBLK$[rsp]
  00061	0f b6 80 36 07
	00 00		 movzx	 eax, BYTE PTR [rax+1846]
  00068	88 84 24 e5 00
	00 00		 mov	 BYTE PTR CTCE_Info$[rsp+5], al

; 3079 : 
; 3080 :     // A system reset at power up initialisation must result in
; 3081 :     // sense byte 0 bit 4 set showing Intervention Required.
; 3082 :     if( pDEVBLK->ctce_system_reset )

  0006f	48 8b 84 24 20
	01 00 00	 mov	 rax, QWORD PTR pDEVBLK$[rsp]
  00077	8b 80 74 07 00
	00		 mov	 eax, DWORD PTR [rax+1908]
  0007d	c1 e8 04	 shr	 eax, 4
  00080	83 e0 01	 and	 eax, 1
  00083	85 c0		 test	 eax, eax
  00085	74 19		 je	 SHORT $LN2@CTCE_Reset

; 3083 :     {
; 3084 :         pDEVBLK->sense[0] = SENSE_IR;

  00087	b8 01 00 00 00	 mov	 eax, 1
  0008c	48 6b c0 00	 imul	 rax, rax, 0
  00090	48 8b 8c 24 20
	01 00 00	 mov	 rcx, QWORD PTR pDEVBLK$[rsp]
  00098	c6 84 01 64 03
	00 00 40	 mov	 BYTE PTR [rcx+rax+868], 64 ; 00000040H
$LN2@CTCE_Reset:

; 3085 :     }
; 3086 : 
; 3087 :     // Reset the y-command register to 0, clear any WEOF state,
; 3088 :     // and reset our (x-)side (only) to initial extended mode.
; 3089 :     pDEVBLK->ctceyCmd = bCode_reset;

  000a0	48 8b 84 24 20
	01 00 00	 mov	 rax, QWORD PTR pDEVBLK$[rsp]
  000a8	c6 80 37 07 00
	00 00		 mov	 BYTE PTR [rax+1847], 0

; 3090 :     CLR_CTCE_WEOF( pDEVBLK->ctcexState );

  000af	48 8b 84 24 20
	01 00 00	 mov	 rax, QWORD PTR pDEVBLK$[rsp]
  000b7	0f b6 80 34 07
	00 00		 movzx	 eax, BYTE PTR [rax+1844]
  000be	0f ba f0 07	 btr	 eax, 7
  000c2	48 8b 8c 24 20
	01 00 00	 mov	 rcx, QWORD PTR pDEVBLK$[rsp]
  000ca	88 81 34 07 00
	00		 mov	 BYTE PTR [rcx+1844], al

; 3091 :     pDEVBLK->ctcxmode = (*(pDEVBLK->devid+6) == 0x00 ) ? 1 : 0 ;

  000d0	48 8b 84 24 20
	01 00 00	 mov	 rax, QWORD PTR pDEVBLK$[rsp]
  000d8	0f b6 80 6e 04
	00 00		 movzx	 eax, BYTE PTR [rax+1134]
  000df	85 c0		 test	 eax, eax
  000e1	75 0a		 jne	 SHORT $LN9@CTCE_Reset
  000e3	c7 44 24 34 01
	00 00 00	 mov	 DWORD PTR tv88[rsp], 1
  000eb	eb 08		 jmp	 SHORT $LN10@CTCE_Reset
$LN9@CTCE_Reset:
  000ed	c7 44 24 34 00
	00 00 00	 mov	 DWORD PTR tv88[rsp], 0
$LN10@CTCE_Reset:
  000f5	8b 44 24 34	 mov	 eax, DWORD PTR tv88[rsp]
  000f9	83 e0 01	 and	 eax, 1
  000fc	48 8b 8c 24 20
	01 00 00	 mov	 rcx, QWORD PTR pDEVBLK$[rsp]
  00104	8b 89 18 07 00
	00		 mov	 ecx, DWORD PTR [rcx+1816]
  0010a	83 e1 fe	 and	 ecx, -2			; fffffffeH
  0010d	0b c8		 or	 ecx, eax
  0010f	8b c1		 mov	 eax, ecx
  00111	48 8b 8c 24 20
	01 00 00	 mov	 rcx, QWORD PTR pDEVBLK$[rsp]
  00119	89 81 18 07 00
	00		 mov	 DWORD PTR [rcx+1816], eax

; 3092 : 
; 3093 :     // We cancel any Working(D) wait state at our (x-)side.
; 3094 :     if( IS_CTCE_YWK( pDEVBLK->ctcexState ) )

  0011f	48 8b 84 24 20
	01 00 00	 mov	 rax, QWORD PTR pDEVBLK$[rsp]
  00127	0f b6 80 34 07
	00 00		 movzx	 eax, BYTE PTR [rax+1844]
  0012e	83 e0 04	 and	 eax, 4
  00131	85 c0		 test	 eax, eax
  00133	75 69		 jne	 SHORT $LN3@CTCE_Reset

; 3095 :     {
; 3096 :         obtain_lock( &pDEVBLK->ctceEventLock );

  00135	48 8b 84 24 20
	01 00 00	 mov	 rax, QWORD PTR pDEVBLK$[rsp]
  0013d	48 05 40 07 00
	00		 add	 rax, 1856		; 00000740H
  00143	48 8d 15 00 00
	00 00		 lea	 rdx, OFFSET FLAT:$SG170183
  0014a	48 8b c8	 mov	 rcx, rax
  0014d	ff 15 00 00 00
	00		 call	 QWORD PTR __imp_hthread_obtain_lock

; 3097 :         signal_condition( &pDEVBLK->ctceEvent );

  00153	48 8b 84 24 20
	01 00 00	 mov	 rax, QWORD PTR pDEVBLK$[rsp]
  0015b	48 05 48 07 00
	00		 add	 rax, 1864		; 00000748H
  00161	48 8d 15 00 00
	00 00		 lea	 rdx, OFFSET FLAT:$SG170184
  00168	48 8b c8	 mov	 rcx, rax
  0016b	ff 15 00 00 00
	00		 call	 QWORD PTR __imp_hthread_signal_condition

; 3098 :         release_lock( &pDEVBLK->ctceEventLock );

  00171	48 8b 84 24 20
	01 00 00	 mov	 rax, QWORD PTR pDEVBLK$[rsp]
  00179	48 05 40 07 00
	00		 add	 rax, 1856		; 00000740H
  0017f	48 8d 15 00 00
	00 00		 lea	 rdx, OFFSET FLAT:$SG170185
  00186	48 8b c8	 mov	 rcx, rax
  00189	ff 15 00 00 00
	00		 call	 QWORD PTR __imp_hthread_release_lock

; 3099 : 
; 3100 :         pDEVBLK->ctce_UnitStat = CSW_CE | CSW_DE;

  0018f	48 8b 84 24 20
	01 00 00	 mov	 rax, QWORD PTR pDEVBLK$[rsp]
  00197	c6 80 39 07 00
	00 0c		 mov	 BYTE PTR [rax+1849], 12
$LN3@CTCE_Reset:

; 3101 :     }
; 3102 :     if( IS_CTCE_YWK( pDEVBLK->ctceyState ) )

  0019e	48 8b 84 24 20
	01 00 00	 mov	 rax, QWORD PTR pDEVBLK$[rsp]
  001a6	0f b6 80 36 07
	00 00		 movzx	 eax, BYTE PTR [rax+1846]
  001ad	83 e0 04	 and	 eax, 4
  001b0	85 c0		 test	 eax, eax
  001b2	75 25		 jne	 SHORT $LN4@CTCE_Reset

; 3103 :     {
; 3104 :         SET_CTCE_YAV( pDEVBLK->ctceyState );

  001b4	48 8b 84 24 20
	01 00 00	 mov	 rax, QWORD PTR pDEVBLK$[rsp]
  001bc	0f b6 80 36 07
	00 00		 movzx	 eax, BYTE PTR [rax+1846]
  001c3	25 f8 00 00 00	 and	 eax, 248		; 000000f8H
  001c8	83 c8 04	 or	 eax, 4
  001cb	48 8b 8c 24 20
	01 00 00	 mov	 rcx, QWORD PTR pDEVBLK$[rsp]
  001d3	88 81 36 07 00
	00		 mov	 BYTE PTR [rcx+1846], al
$LN4@CTCE_Reset:

; 3105 :     }
; 3106 : 
; 3107 :     // The CTCE_Reset is being signaled to our (x-)side as the result of
; 3108 :     // a Halt or Clear subchannel instruction.  We procees this using a
; 3109 :     // synthetic reset (RST) command, which is encdoded as CCW command 0x00
; 3110 :     // because that's what the y command register needs to be set to.  This 0x00
; 3111 :     // comamnd however would be an invalid "bCode" argument for CTCE_ExecuteCCW.
; 3112 :     // Our FSM table however caters for (part of) the work to be done :
; 3113 :     pDEVBLK->ctcexCmd = bCode_reset;

  001d9	48 8b 84 24 20
	01 00 00	 mov	 rax, QWORD PTR pDEVBLK$[rsp]
  001e1	c6 80 35 07 00
	00 00		 mov	 BYTE PTR [rax+1845], 0

; 3114 :     CTCE_Info.fsm         = CTCE_Fsm[CTCE_CMD( bCode_reset )][CTCE_X_STATE_FSM_IDX];

  001e8	48 8b 84 24 20
	01 00 00	 mov	 rax, QWORD PTR pDEVBLK$[rsp]
  001f0	8b 80 18 07 00
	00		 mov	 eax, DWORD PTR [rax+1816]
  001f6	83 e0 01	 and	 eax, 1
  001f9	85 c0		 test	 eax, eax
  001fb	75 5d		 jne	 SHORT $LN11@CTCE_Reset
  001fd	48 8b 84 24 20
	01 00 00	 mov	 rax, QWORD PTR pDEVBLK$[rsp]
  00205	8b 80 74 07 00
	00		 mov	 eax, DWORD PTR [rax+1908]
  0020b	c1 e8 03	 shr	 eax, 3
  0020e	83 e0 01	 and	 eax, 1
  00211	85 c0		 test	 eax, eax
  00213	75 45		 jne	 SHORT $LN11@CTCE_Reset
  00215	b8 01 00 00 00	 mov	 eax, 1
  0021a	48 6b c0 00	 imul	 rax, rax, 0
  0021e	48 8d 0d 00 00
	00 00		 lea	 rcx, OFFSET FLAT:CTCE_command
  00225	0f b6 04 01	 movzx	 eax, BYTE PTR [rcx+rax]
  00229	83 f8 07	 cmp	 eax, 7
  0022c	75 0a		 jne	 SHORT $LN12@CTCE_Reset
  0022e	c7 44 24 38 03
	00 00 00	 mov	 DWORD PTR tv167[rsp], 3
  00236	eb 18		 jmp	 SHORT $LN13@CTCE_Reset
$LN12@CTCE_Reset:
  00238	b8 01 00 00 00	 mov	 eax, 1
  0023d	48 6b c0 00	 imul	 rax, rax, 0
  00241	48 8d 0d 00 00
	00 00		 lea	 rcx, OFFSET FLAT:CTCE_command
  00248	0f b6 04 01	 movzx	 eax, BYTE PTR [rcx+rax]
  0024c	89 44 24 38	 mov	 DWORD PTR tv167[rsp], eax
$LN13@CTCE_Reset:
  00250	8b 44 24 38	 mov	 eax, DWORD PTR tv167[rsp]
  00254	89 44 24 44	 mov	 DWORD PTR tv168[rsp], eax
  00258	eb 18		 jmp	 SHORT $LN14@CTCE_Reset
$LN11@CTCE_Reset:
  0025a	b8 01 00 00 00	 mov	 eax, 1
  0025f	48 6b c0 00	 imul	 rax, rax, 0
  00263	48 8d 0d 00 00
	00 00		 lea	 rcx, OFFSET FLAT:CTCE_command
  0026a	0f b6 04 01	 movzx	 eax, BYTE PTR [rcx+rax]
  0026e	89 44 24 44	 mov	 DWORD PTR tv168[rsp], eax
$LN14@CTCE_Reset:
  00272	48 8b 84 24 20
	01 00 00	 mov	 rax, QWORD PTR pDEVBLK$[rsp]
  0027a	0f b6 80 34 07
	00 00		 movzx	 eax, BYTE PTR [rax+1844]
  00281	83 e0 04	 and	 eax, 4
  00284	85 c0		 test	 eax, eax
  00286	75 0d		 jne	 SHORT $LN19@CTCE_Reset
  00288	c7 44 24 48 06
	00 00 00	 mov	 DWORD PTR tv195[rsp], 6
  00290	e9 8c 00 00 00	 jmp	 $LN20@CTCE_Reset
$LN19@CTCE_Reset:
  00295	48 8b 84 24 20
	01 00 00	 mov	 rax, QWORD PTR pDEVBLK$[rsp]
  0029d	8b 80 18 07 00
	00		 mov	 eax, DWORD PTR [rax+1816]
  002a3	83 e0 01	 and	 eax, 1
  002a6	85 c0		 test	 eax, eax
  002a8	75 59		 jne	 SHORT $LN15@CTCE_Reset
  002aa	48 8b 84 24 20
	01 00 00	 mov	 rax, QWORD PTR pDEVBLK$[rsp]
  002b2	8b 80 74 07 00
	00		 mov	 eax, DWORD PTR [rax+1908]
  002b8	c1 e8 03	 shr	 eax, 3
  002bb	83 e0 01	 and	 eax, 1
  002be	85 c0		 test	 eax, eax
  002c0	75 41		 jne	 SHORT $LN15@CTCE_Reset
  002c2	48 8b 84 24 20
	01 00 00	 mov	 rax, QWORD PTR pDEVBLK$[rsp]
  002ca	0f b6 80 36 07
	00 00		 movzx	 eax, BYTE PTR [rax+1846]
  002d1	83 e0 07	 and	 eax, 7
  002d4	83 f8 05	 cmp	 eax, 5
  002d7	75 0a		 jne	 SHORT $LN16@CTCE_Reset
  002d9	c7 44 24 3c 04
	00 00 00	 mov	 DWORD PTR tv193[rsp], 4
  002e1	eb 16		 jmp	 SHORT $LN17@CTCE_Reset
$LN16@CTCE_Reset:
  002e3	48 8b 84 24 20
	01 00 00	 mov	 rax, QWORD PTR pDEVBLK$[rsp]
  002eb	0f b6 80 36 07
	00 00		 movzx	 eax, BYTE PTR [rax+1846]
  002f2	83 e0 07	 and	 eax, 7
  002f5	89 44 24 3c	 mov	 DWORD PTR tv193[rsp], eax
$LN17@CTCE_Reset:
  002f9	8b 44 24 3c	 mov	 eax, DWORD PTR tv193[rsp]
  002fd	89 44 24 40	 mov	 DWORD PTR tv194[rsp], eax
  00301	eb 16		 jmp	 SHORT $LN18@CTCE_Reset
$LN15@CTCE_Reset:
  00303	48 8b 84 24 20
	01 00 00	 mov	 rax, QWORD PTR pDEVBLK$[rsp]
  0030b	0f b6 80 36 07
	00 00		 movzx	 eax, BYTE PTR [rax+1846]
  00312	83 e0 07	 and	 eax, 7
  00315	89 44 24 40	 mov	 DWORD PTR tv194[rsp], eax
$LN18@CTCE_Reset:
  00319	8b 44 24 40	 mov	 eax, DWORD PTR tv194[rsp]
  0031d	89 44 24 48	 mov	 DWORD PTR tv195[rsp], eax
$LN20@CTCE_Reset:
  00321	48 63 44 24 44	 movsxd	 rax, DWORD PTR tv168[rsp]
  00326	48 6b c0 20	 imul	 rax, rax, 32		; 00000020H
  0032a	48 8d 0d 00 00
	00 00		 lea	 rcx, OFFSET FLAT:CTCE_Fsm
  00331	48 03 c8	 add	 rcx, rax
  00334	48 8b c1	 mov	 rax, rcx
  00337	48 63 4c 24 48	 movsxd	 rcx, DWORD PTR tv195[rsp]
  0033c	8b 04 88	 mov	 eax, DWORD PTR [rax+rcx*4]
  0033f	89 84 24 e0 00
	00 00		 mov	 DWORD PTR CTCE_Info$[rsp], eax

; 3115 : 
; 3116 :     CTCE_Info.state_new   = CTCE_NEW_X_STATE(  bCode_reset ); /* Silly : only need for CTCE_Trace MISMATCH avoidance */

  00346	48 8b 84 24 20
	01 00 00	 mov	 rax, QWORD PTR pDEVBLK$[rsp]
  0034e	8b 80 18 07 00
	00		 mov	 eax, DWORD PTR [rax+1816]
  00354	83 e0 01	 and	 eax, 1
  00357	85 c0		 test	 eax, eax
  00359	75 5d		 jne	 SHORT $LN21@CTCE_Reset
  0035b	48 8b 84 24 20
	01 00 00	 mov	 rax, QWORD PTR pDEVBLK$[rsp]
  00363	8b 80 74 07 00
	00		 mov	 eax, DWORD PTR [rax+1908]
  00369	c1 e8 03	 shr	 eax, 3
  0036c	83 e0 01	 and	 eax, 1
  0036f	85 c0		 test	 eax, eax
  00371	75 45		 jne	 SHORT $LN21@CTCE_Reset
  00373	b8 01 00 00 00	 mov	 eax, 1
  00378	48 6b c0 00	 imul	 rax, rax, 0
  0037c	48 8d 0d 00 00
	00 00		 lea	 rcx, OFFSET FLAT:CTCE_command
  00383	0f b6 04 01	 movzx	 eax, BYTE PTR [rcx+rax]
  00387	83 f8 07	 cmp	 eax, 7
  0038a	75 0a		 jne	 SHORT $LN22@CTCE_Reset
  0038c	c7 44 24 4c 03
	00 00 00	 mov	 DWORD PTR tv217[rsp], 3
  00394	eb 18		 jmp	 SHORT $LN23@CTCE_Reset
$LN22@CTCE_Reset:
  00396	b8 01 00 00 00	 mov	 eax, 1
  0039b	48 6b c0 00	 imul	 rax, rax, 0
  0039f	48 8d 0d 00 00
	00 00		 lea	 rcx, OFFSET FLAT:CTCE_command
  003a6	0f b6 04 01	 movzx	 eax, BYTE PTR [rcx+rax]
  003aa	89 44 24 4c	 mov	 DWORD PTR tv217[rsp], eax
$LN23@CTCE_Reset:
  003ae	8b 44 24 4c	 mov	 eax, DWORD PTR tv217[rsp]
  003b2	89 44 24 58	 mov	 DWORD PTR tv218[rsp], eax
  003b6	eb 18		 jmp	 SHORT $LN24@CTCE_Reset
$LN21@CTCE_Reset:
  003b8	b8 01 00 00 00	 mov	 eax, 1
  003bd	48 6b c0 00	 imul	 rax, rax, 0
  003c1	48 8d 0d 00 00
	00 00		 lea	 rcx, OFFSET FLAT:CTCE_command
  003c8	0f b6 04 01	 movzx	 eax, BYTE PTR [rcx+rax]
  003cc	89 44 24 58	 mov	 DWORD PTR tv218[rsp], eax
$LN24@CTCE_Reset:
  003d0	48 8b 84 24 20
	01 00 00	 mov	 rax, QWORD PTR pDEVBLK$[rsp]
  003d8	0f b6 80 34 07
	00 00		 movzx	 eax, BYTE PTR [rax+1844]
  003df	83 e0 04	 and	 eax, 4
  003e2	85 c0		 test	 eax, eax
  003e4	75 0d		 jne	 SHORT $LN29@CTCE_Reset
  003e6	c7 44 24 5c 06
	00 00 00	 mov	 DWORD PTR tv245[rsp], 6
  003ee	e9 8c 00 00 00	 jmp	 $LN30@CTCE_Reset
$LN29@CTCE_Reset:
  003f3	48 8b 84 24 20
	01 00 00	 mov	 rax, QWORD PTR pDEVBLK$[rsp]
  003fb	8b 80 18 07 00
	00		 mov	 eax, DWORD PTR [rax+1816]
  00401	83 e0 01	 and	 eax, 1
  00404	85 c0		 test	 eax, eax
  00406	75 59		 jne	 SHORT $LN25@CTCE_Reset
  00408	48 8b 84 24 20
	01 00 00	 mov	 rax, QWORD PTR pDEVBLK$[rsp]
  00410	8b 80 74 07 00
	00		 mov	 eax, DWORD PTR [rax+1908]
  00416	c1 e8 03	 shr	 eax, 3
  00419	83 e0 01	 and	 eax, 1
  0041c	85 c0		 test	 eax, eax
  0041e	75 41		 jne	 SHORT $LN25@CTCE_Reset
  00420	48 8b 84 24 20
	01 00 00	 mov	 rax, QWORD PTR pDEVBLK$[rsp]
  00428	0f b6 80 36 07
	00 00		 movzx	 eax, BYTE PTR [rax+1846]
  0042f	83 e0 07	 and	 eax, 7
  00432	83 f8 05	 cmp	 eax, 5
  00435	75 0a		 jne	 SHORT $LN26@CTCE_Reset
  00437	c7 44 24 50 04
	00 00 00	 mov	 DWORD PTR tv243[rsp], 4
  0043f	eb 16		 jmp	 SHORT $LN27@CTCE_Reset
$LN26@CTCE_Reset:
  00441	48 8b 84 24 20
	01 00 00	 mov	 rax, QWORD PTR pDEVBLK$[rsp]
  00449	0f b6 80 36 07
	00 00		 movzx	 eax, BYTE PTR [rax+1846]
  00450	83 e0 07	 and	 eax, 7
  00453	89 44 24 50	 mov	 DWORD PTR tv243[rsp], eax
$LN27@CTCE_Reset:
  00457	8b 44 24 50	 mov	 eax, DWORD PTR tv243[rsp]
  0045b	89 44 24 54	 mov	 DWORD PTR tv244[rsp], eax
  0045f	eb 16		 jmp	 SHORT $LN28@CTCE_Reset
$LN25@CTCE_Reset:
  00461	48 8b 84 24 20
	01 00 00	 mov	 rax, QWORD PTR pDEVBLK$[rsp]
  00469	0f b6 80 36 07
	00 00		 movzx	 eax, BYTE PTR [rax+1846]
  00470	83 e0 07	 and	 eax, 7
  00473	89 44 24 54	 mov	 DWORD PTR tv244[rsp], eax
$LN28@CTCE_Reset:
  00477	8b 44 24 54	 mov	 eax, DWORD PTR tv244[rsp]
  0047b	89 44 24 5c	 mov	 DWORD PTR tv245[rsp], eax
$LN30@CTCE_Reset:
  0047f	48 63 44 24 58	 movsxd	 rax, DWORD PTR tv218[rsp]
  00484	48 6b c0 20	 imul	 rax, rax, 32		; 00000020H
  00488	48 8d 0d 00 00
	00 00		 lea	 rcx, OFFSET FLAT:CTCE_Fsm
  0048f	48 03 c8	 add	 rcx, rax
  00492	48 8b c1	 mov	 rax, rcx
  00495	48 63 4c 24 5c	 movsxd	 rcx, DWORD PTR tv245[rsp]
  0049a	0f b6 04 88	 movzx	 eax, BYTE PTR [rax+rcx*4]
  0049e	3d ff 00 00 00	 cmp	 eax, 255		; 000000ffH
  004a3	0f 84 5e 01 00
	00		 je	 $LN41@CTCE_Reset
  004a9	48 8b 84 24 20
	01 00 00	 mov	 rax, QWORD PTR pDEVBLK$[rsp]
  004b1	8b 80 18 07 00
	00		 mov	 eax, DWORD PTR [rax+1816]
  004b7	83 e0 01	 and	 eax, 1
  004ba	85 c0		 test	 eax, eax
  004bc	75 5d		 jne	 SHORT $LN31@CTCE_Reset
  004be	48 8b 84 24 20
	01 00 00	 mov	 rax, QWORD PTR pDEVBLK$[rsp]
  004c6	8b 80 74 07 00
	00		 mov	 eax, DWORD PTR [rax+1908]
  004cc	c1 e8 03	 shr	 eax, 3
  004cf	83 e0 01	 and	 eax, 1
  004d2	85 c0		 test	 eax, eax
  004d4	75 45		 jne	 SHORT $LN31@CTCE_Reset
  004d6	b8 01 00 00 00	 mov	 eax, 1
  004db	48 6b c0 00	 imul	 rax, rax, 0
  004df	48 8d 0d 00 00
	00 00		 lea	 rcx, OFFSET FLAT:CTCE_command
  004e6	0f b6 04 01	 movzx	 eax, BYTE PTR [rcx+rax]
  004ea	83 f8 07	 cmp	 eax, 7
  004ed	75 0a		 jne	 SHORT $LN32@CTCE_Reset
  004ef	c7 44 24 60 03
	00 00 00	 mov	 DWORD PTR tv269[rsp], 3
  004f7	eb 18		 jmp	 SHORT $LN33@CTCE_Reset
$LN32@CTCE_Reset:
  004f9	b8 01 00 00 00	 mov	 eax, 1
  004fe	48 6b c0 00	 imul	 rax, rax, 0
  00502	48 8d 0d 00 00
	00 00		 lea	 rcx, OFFSET FLAT:CTCE_command
  00509	0f b6 04 01	 movzx	 eax, BYTE PTR [rcx+rax]
  0050d	89 44 24 60	 mov	 DWORD PTR tv269[rsp], eax
$LN33@CTCE_Reset:
  00511	8b 44 24 60	 mov	 eax, DWORD PTR tv269[rsp]
  00515	89 44 24 6c	 mov	 DWORD PTR tv270[rsp], eax
  00519	eb 18		 jmp	 SHORT $LN34@CTCE_Reset
$LN31@CTCE_Reset:
  0051b	b8 01 00 00 00	 mov	 eax, 1
  00520	48 6b c0 00	 imul	 rax, rax, 0
  00524	48 8d 0d 00 00
	00 00		 lea	 rcx, OFFSET FLAT:CTCE_command
  0052b	0f b6 04 01	 movzx	 eax, BYTE PTR [rcx+rax]
  0052f	89 44 24 6c	 mov	 DWORD PTR tv270[rsp], eax
$LN34@CTCE_Reset:
  00533	48 8b 84 24 20
	01 00 00	 mov	 rax, QWORD PTR pDEVBLK$[rsp]
  0053b	0f b6 80 34 07
	00 00		 movzx	 eax, BYTE PTR [rax+1844]
  00542	83 e0 04	 and	 eax, 4
  00545	85 c0		 test	 eax, eax
  00547	75 0d		 jne	 SHORT $LN39@CTCE_Reset
  00549	c7 44 24 70 06
	00 00 00	 mov	 DWORD PTR tv297[rsp], 6
  00551	e9 8c 00 00 00	 jmp	 $LN40@CTCE_Reset
$LN39@CTCE_Reset:
  00556	48 8b 84 24 20
	01 00 00	 mov	 rax, QWORD PTR pDEVBLK$[rsp]
  0055e	8b 80 18 07 00
	00		 mov	 eax, DWORD PTR [rax+1816]
  00564	83 e0 01	 and	 eax, 1
  00567	85 c0		 test	 eax, eax
  00569	75 59		 jne	 SHORT $LN35@CTCE_Reset
  0056b	48 8b 84 24 20
	01 00 00	 mov	 rax, QWORD PTR pDEVBLK$[rsp]
  00573	8b 80 74 07 00
	00		 mov	 eax, DWORD PTR [rax+1908]
  00579	c1 e8 03	 shr	 eax, 3
  0057c	83 e0 01	 and	 eax, 1
  0057f	85 c0		 test	 eax, eax
  00581	75 41		 jne	 SHORT $LN35@CTCE_Reset
  00583	48 8b 84 24 20
	01 00 00	 mov	 rax, QWORD PTR pDEVBLK$[rsp]
  0058b	0f b6 80 36 07
	00 00		 movzx	 eax, BYTE PTR [rax+1846]
  00592	83 e0 07	 and	 eax, 7
  00595	83 f8 05	 cmp	 eax, 5
  00598	75 0a		 jne	 SHORT $LN36@CTCE_Reset
  0059a	c7 44 24 64 04
	00 00 00	 mov	 DWORD PTR tv295[rsp], 4
  005a2	eb 16		 jmp	 SHORT $LN37@CTCE_Reset
$LN36@CTCE_Reset:
  005a4	48 8b 84 24 20
	01 00 00	 mov	 rax, QWORD PTR pDEVBLK$[rsp]
  005ac	0f b6 80 36 07
	00 00		 movzx	 eax, BYTE PTR [rax+1846]
  005b3	83 e0 07	 and	 eax, 7
  005b6	89 44 24 64	 mov	 DWORD PTR tv295[rsp], eax
$LN37@CTCE_Reset:
  005ba	8b 44 24 64	 mov	 eax, DWORD PTR tv295[rsp]
  005be	89 44 24 68	 mov	 DWORD PTR tv296[rsp], eax
  005c2	eb 16		 jmp	 SHORT $LN38@CTCE_Reset
$LN35@CTCE_Reset:
  005c4	48 8b 84 24 20
	01 00 00	 mov	 rax, QWORD PTR pDEVBLK$[rsp]
  005cc	0f b6 80 36 07
	00 00		 movzx	 eax, BYTE PTR [rax+1846]
  005d3	83 e0 07	 and	 eax, 7
  005d6	89 44 24 68	 mov	 DWORD PTR tv296[rsp], eax
$LN38@CTCE_Reset:
  005da	8b 44 24 68	 mov	 eax, DWORD PTR tv296[rsp]
  005de	89 44 24 70	 mov	 DWORD PTR tv297[rsp], eax
$LN40@CTCE_Reset:
  005e2	48 63 44 24 6c	 movsxd	 rax, DWORD PTR tv270[rsp]
  005e7	48 6b c0 20	 imul	 rax, rax, 32		; 00000020H
  005eb	48 8d 0d 00 00
	00 00		 lea	 rcx, OFFSET FLAT:CTCE_Fsm
  005f2	48 03 c8	 add	 rcx, rax
  005f5	48 8b c1	 mov	 rax, rcx
  005f8	48 63 4c 24 70	 movsxd	 rcx, DWORD PTR tv297[rsp]
  005fd	0f b6 04 88	 movzx	 eax, BYTE PTR [rax+rcx*4]
  00601	89 44 24 74	 mov	 DWORD PTR tv306[rsp], eax
  00605	eb 16		 jmp	 SHORT $LN42@CTCE_Reset
$LN41@CTCE_Reset:
  00607	48 8b 84 24 20
	01 00 00	 mov	 rax, QWORD PTR pDEVBLK$[rsp]
  0060f	0f b6 80 34 07
	00 00		 movzx	 eax, BYTE PTR [rax+1844]
  00616	83 e0 07	 and	 eax, 7
  00619	89 44 24 74	 mov	 DWORD PTR tv306[rsp], eax
$LN42@CTCE_Reset:
  0061d	0f b6 44 24 74	 movzx	 eax, BYTE PTR tv306[rsp]
  00622	88 84 24 e7 00
	00 00		 mov	 BYTE PTR CTCE_Info$[rsp+7], al

; 3117 :     pDEVBLK->ctcexState   = CTCE_NEW_X_STATE(  bCode_reset );

  00629	48 8b 84 24 20
	01 00 00	 mov	 rax, QWORD PTR pDEVBLK$[rsp]
  00631	8b 80 18 07 00
	00		 mov	 eax, DWORD PTR [rax+1816]
  00637	83 e0 01	 and	 eax, 1
  0063a	85 c0		 test	 eax, eax
  0063c	75 60		 jne	 SHORT $LN43@CTCE_Reset
  0063e	48 8b 84 24 20
	01 00 00	 mov	 rax, QWORD PTR pDEVBLK$[rsp]
  00646	8b 80 74 07 00
	00		 mov	 eax, DWORD PTR [rax+1908]
  0064c	c1 e8 03	 shr	 eax, 3
  0064f	83 e0 01	 and	 eax, 1
  00652	85 c0		 test	 eax, eax
  00654	75 48		 jne	 SHORT $LN43@CTCE_Reset
  00656	b8 01 00 00 00	 mov	 eax, 1
  0065b	48 6b c0 00	 imul	 rax, rax, 0
  0065f	48 8d 0d 00 00
	00 00		 lea	 rcx, OFFSET FLAT:CTCE_command
  00666	0f b6 04 01	 movzx	 eax, BYTE PTR [rcx+rax]
  0066a	83 f8 07	 cmp	 eax, 7
  0066d	75 0a		 jne	 SHORT $LN44@CTCE_Reset
  0066f	c7 44 24 78 03
	00 00 00	 mov	 DWORD PTR tv326[rsp], 3
  00677	eb 18		 jmp	 SHORT $LN45@CTCE_Reset
$LN44@CTCE_Reset:
  00679	b8 01 00 00 00	 mov	 eax, 1
  0067e	48 6b c0 00	 imul	 rax, rax, 0
  00682	48 8d 0d 00 00
	00 00		 lea	 rcx, OFFSET FLAT:CTCE_command
  00689	0f b6 04 01	 movzx	 eax, BYTE PTR [rcx+rax]
  0068d	89 44 24 78	 mov	 DWORD PTR tv326[rsp], eax
$LN45@CTCE_Reset:
  00691	8b 44 24 78	 mov	 eax, DWORD PTR tv326[rsp]
  00695	89 84 24 84 00
	00 00		 mov	 DWORD PTR tv327[rsp], eax
  0069c	eb 1b		 jmp	 SHORT $LN46@CTCE_Reset
$LN43@CTCE_Reset:
  0069e	b8 01 00 00 00	 mov	 eax, 1
  006a3	48 6b c0 00	 imul	 rax, rax, 0
  006a7	48 8d 0d 00 00
	00 00		 lea	 rcx, OFFSET FLAT:CTCE_command
  006ae	0f b6 04 01	 movzx	 eax, BYTE PTR [rcx+rax]
  006b2	89 84 24 84 00
	00 00		 mov	 DWORD PTR tv327[rsp], eax
$LN46@CTCE_Reset:
  006b9	48 8b 84 24 20
	01 00 00	 mov	 rax, QWORD PTR pDEVBLK$[rsp]
  006c1	0f b6 80 34 07
	00 00		 movzx	 eax, BYTE PTR [rax+1844]
  006c8	83 e0 04	 and	 eax, 4
  006cb	85 c0		 test	 eax, eax
  006cd	75 10		 jne	 SHORT $LN51@CTCE_Reset
  006cf	c7 84 24 88 00
	00 00 06 00 00
	00		 mov	 DWORD PTR tv354[rsp], 6
  006da	e9 98 00 00 00	 jmp	 $LN52@CTCE_Reset
$LN51@CTCE_Reset:
  006df	48 8b 84 24 20
	01 00 00	 mov	 rax, QWORD PTR pDEVBLK$[rsp]
  006e7	8b 80 18 07 00
	00		 mov	 eax, DWORD PTR [rax+1816]
  006ed	83 e0 01	 and	 eax, 1
  006f0	85 c0		 test	 eax, eax
  006f2	75 5c		 jne	 SHORT $LN47@CTCE_Reset
  006f4	48 8b 84 24 20
	01 00 00	 mov	 rax, QWORD PTR pDEVBLK$[rsp]
  006fc	8b 80 74 07 00
	00		 mov	 eax, DWORD PTR [rax+1908]
  00702	c1 e8 03	 shr	 eax, 3
  00705	83 e0 01	 and	 eax, 1
  00708	85 c0		 test	 eax, eax
  0070a	75 44		 jne	 SHORT $LN47@CTCE_Reset
  0070c	48 8b 84 24 20
	01 00 00	 mov	 rax, QWORD PTR pDEVBLK$[rsp]
  00714	0f b6 80 36 07
	00 00		 movzx	 eax, BYTE PTR [rax+1846]
  0071b	83 e0 07	 and	 eax, 7
  0071e	83 f8 05	 cmp	 eax, 5
  00721	75 0a		 jne	 SHORT $LN48@CTCE_Reset
  00723	c7 44 24 7c 04
	00 00 00	 mov	 DWORD PTR tv352[rsp], 4
  0072b	eb 16		 jmp	 SHORT $LN49@CTCE_Reset
$LN48@CTCE_Reset:
  0072d	48 8b 84 24 20
	01 00 00	 mov	 rax, QWORD PTR pDEVBLK$[rsp]
  00735	0f b6 80 36 07
	00 00		 movzx	 eax, BYTE PTR [rax+1846]
  0073c	83 e0 07	 and	 eax, 7
  0073f	89 44 24 7c	 mov	 DWORD PTR tv352[rsp], eax
$LN49@CTCE_Reset:
  00743	8b 44 24 7c	 mov	 eax, DWORD PTR tv352[rsp]
  00747	89 84 24 80 00
	00 00		 mov	 DWORD PTR tv353[rsp], eax
  0074e	eb 19		 jmp	 SHORT $LN50@CTCE_Reset
$LN47@CTCE_Reset:
  00750	48 8b 84 24 20
	01 00 00	 mov	 rax, QWORD PTR pDEVBLK$[rsp]
  00758	0f b6 80 36 07
	00 00		 movzx	 eax, BYTE PTR [rax+1846]
  0075f	83 e0 07	 and	 eax, 7
  00762	89 84 24 80 00
	00 00		 mov	 DWORD PTR tv353[rsp], eax
$LN50@CTCE_Reset:
  00769	8b 84 24 80 00
	00 00		 mov	 eax, DWORD PTR tv353[rsp]
  00770	89 84 24 88 00
	00 00		 mov	 DWORD PTR tv354[rsp], eax
$LN52@CTCE_Reset:
  00777	48 63 84 24 84
	00 00 00	 movsxd	 rax, DWORD PTR tv327[rsp]
  0077f	48 6b c0 20	 imul	 rax, rax, 32		; 00000020H
  00783	48 8d 0d 00 00
	00 00		 lea	 rcx, OFFSET FLAT:CTCE_Fsm
  0078a	48 03 c8	 add	 rcx, rax
  0078d	48 8b c1	 mov	 rax, rcx
  00790	48 63 8c 24 88
	00 00 00	 movsxd	 rcx, DWORD PTR tv354[rsp]
  00798	0f b6 04 88	 movzx	 eax, BYTE PTR [rax+rcx*4]
  0079c	3d ff 00 00 00	 cmp	 eax, 255		; 000000ffH
  007a1	0f 84 8e 01 00
	00		 je	 $LN63@CTCE_Reset
  007a7	48 8b 84 24 20
	01 00 00	 mov	 rax, QWORD PTR pDEVBLK$[rsp]
  007af	8b 80 18 07 00
	00		 mov	 eax, DWORD PTR [rax+1816]
  007b5	83 e0 01	 and	 eax, 1
  007b8	85 c0		 test	 eax, eax
  007ba	75 69		 jne	 SHORT $LN53@CTCE_Reset
  007bc	48 8b 84 24 20
	01 00 00	 mov	 rax, QWORD PTR pDEVBLK$[rsp]
  007c4	8b 80 74 07 00
	00		 mov	 eax, DWORD PTR [rax+1908]
  007ca	c1 e8 03	 shr	 eax, 3
  007cd	83 e0 01	 and	 eax, 1
  007d0	85 c0		 test	 eax, eax
  007d2	75 51		 jne	 SHORT $LN53@CTCE_Reset
  007d4	b8 01 00 00 00	 mov	 eax, 1
  007d9	48 6b c0 00	 imul	 rax, rax, 0
  007dd	48 8d 0d 00 00
	00 00		 lea	 rcx, OFFSET FLAT:CTCE_command
  007e4	0f b6 04 01	 movzx	 eax, BYTE PTR [rcx+rax]
  007e8	83 f8 07	 cmp	 eax, 7
  007eb	75 0d		 jne	 SHORT $LN54@CTCE_Reset
  007ed	c7 84 24 8c 00
	00 00 03 00 00
	00		 mov	 DWORD PTR tv378[rsp], 3
  007f8	eb 1b		 jmp	 SHORT $LN55@CTCE_Reset
$LN54@CTCE_Reset:
  007fa	b8 01 00 00 00	 mov	 eax, 1
  007ff	48 6b c0 00	 imul	 rax, rax, 0
  00803	48 8d 0d 00 00
	00 00		 lea	 rcx, OFFSET FLAT:CTCE_command
  0080a	0f b6 04 01	 movzx	 eax, BYTE PTR [rcx+rax]
  0080e	89 84 24 8c 00
	00 00		 mov	 DWORD PTR tv378[rsp], eax
$LN55@CTCE_Reset:
  00815	8b 84 24 8c 00
	00 00		 mov	 eax, DWORD PTR tv378[rsp]
  0081c	89 84 24 98 00
	00 00		 mov	 DWORD PTR tv379[rsp], eax
  00823	eb 1b		 jmp	 SHORT $LN56@CTCE_Reset
$LN53@CTCE_Reset:
  00825	b8 01 00 00 00	 mov	 eax, 1
  0082a	48 6b c0 00	 imul	 rax, rax, 0
  0082e	48 8d 0d 00 00
	00 00		 lea	 rcx, OFFSET FLAT:CTCE_command
  00835	0f b6 04 01	 movzx	 eax, BYTE PTR [rcx+rax]
  00839	89 84 24 98 00
	00 00		 mov	 DWORD PTR tv379[rsp], eax
$LN56@CTCE_Reset:
  00840	48 8b 84 24 20
	01 00 00	 mov	 rax, QWORD PTR pDEVBLK$[rsp]
  00848	0f b6 80 34 07
	00 00		 movzx	 eax, BYTE PTR [rax+1844]
  0084f	83 e0 04	 and	 eax, 4
  00852	85 c0		 test	 eax, eax
  00854	75 10		 jne	 SHORT $LN61@CTCE_Reset
  00856	c7 84 24 9c 00
	00 00 06 00 00
	00		 mov	 DWORD PTR tv406[rsp], 6
  00861	e9 a1 00 00 00	 jmp	 $LN62@CTCE_Reset
$LN61@CTCE_Reset:
  00866	48 8b 84 24 20
	01 00 00	 mov	 rax, QWORD PTR pDEVBLK$[rsp]
  0086e	8b 80 18 07 00
	00		 mov	 eax, DWORD PTR [rax+1816]
  00874	83 e0 01	 and	 eax, 1
  00877	85 c0		 test	 eax, eax
  00879	75 65		 jne	 SHORT $LN57@CTCE_Reset
  0087b	48 8b 84 24 20
	01 00 00	 mov	 rax, QWORD PTR pDEVBLK$[rsp]
  00883	8b 80 74 07 00
	00		 mov	 eax, DWORD PTR [rax+1908]
  00889	c1 e8 03	 shr	 eax, 3
  0088c	83 e0 01	 and	 eax, 1
  0088f	85 c0		 test	 eax, eax
  00891	75 4d		 jne	 SHORT $LN57@CTCE_Reset
  00893	48 8b 84 24 20
	01 00 00	 mov	 rax, QWORD PTR pDEVBLK$[rsp]
  0089b	0f b6 80 36 07
	00 00		 movzx	 eax, BYTE PTR [rax+1846]
  008a2	83 e0 07	 and	 eax, 7
  008a5	83 f8 05	 cmp	 eax, 5
  008a8	75 0d		 jne	 SHORT $LN58@CTCE_Reset
  008aa	c7 84 24 90 00
	00 00 04 00 00
	00		 mov	 DWORD PTR tv404[rsp], 4
  008b5	eb 19		 jmp	 SHORT $LN59@CTCE_Reset
$LN58@CTCE_Reset:
  008b7	48 8b 84 24 20
	01 00 00	 mov	 rax, QWORD PTR pDEVBLK$[rsp]
  008bf	0f b6 80 36 07
	00 00		 movzx	 eax, BYTE PTR [rax+1846]
  008c6	83 e0 07	 and	 eax, 7
  008c9	89 84 24 90 00
	00 00		 mov	 DWORD PTR tv404[rsp], eax
$LN59@CTCE_Reset:
  008d0	8b 84 24 90 00
	00 00		 mov	 eax, DWORD PTR tv404[rsp]
  008d7	89 84 24 94 00
	00 00		 mov	 DWORD PTR tv405[rsp], eax
  008de	eb 19		 jmp	 SHORT $LN60@CTCE_Reset
$LN57@CTCE_Reset:
  008e0	48 8b 84 24 20
	01 00 00	 mov	 rax, QWORD PTR pDEVBLK$[rsp]
  008e8	0f b6 80 36 07
	00 00		 movzx	 eax, BYTE PTR [rax+1846]
  008ef	83 e0 07	 and	 eax, 7
  008f2	89 84 24 94 00
	00 00		 mov	 DWORD PTR tv405[rsp], eax
$LN60@CTCE_Reset:
  008f9	8b 84 24 94 00
	00 00		 mov	 eax, DWORD PTR tv405[rsp]
  00900	89 84 24 9c 00
	00 00		 mov	 DWORD PTR tv406[rsp], eax
$LN62@CTCE_Reset:
  00907	48 63 84 24 98
	00 00 00	 movsxd	 rax, DWORD PTR tv379[rsp]
  0090f	48 6b c0 20	 imul	 rax, rax, 32		; 00000020H
  00913	48 8d 0d 00 00
	00 00		 lea	 rcx, OFFSET FLAT:CTCE_Fsm
  0091a	48 03 c8	 add	 rcx, rax
  0091d	48 8b c1	 mov	 rax, rcx
  00920	48 63 8c 24 9c
	00 00 00	 movsxd	 rcx, DWORD PTR tv406[rsp]
  00928	0f b6 04 88	 movzx	 eax, BYTE PTR [rax+rcx*4]
  0092c	89 84 24 a0 00
	00 00		 mov	 DWORD PTR tv415[rsp], eax
  00933	eb 19		 jmp	 SHORT $LN64@CTCE_Reset
$LN63@CTCE_Reset:
  00935	48 8b 84 24 20
	01 00 00	 mov	 rax, QWORD PTR pDEVBLK$[rsp]
  0093d	0f b6 80 34 07
	00 00		 movzx	 eax, BYTE PTR [rax+1844]
  00944	83 e0 07	 and	 eax, 7
  00947	89 84 24 a0 00
	00 00		 mov	 DWORD PTR tv415[rsp], eax
$LN64@CTCE_Reset:
  0094e	48 8b 84 24 20
	01 00 00	 mov	 rax, QWORD PTR pDEVBLK$[rsp]
  00956	0f b6 8c 24 a0
	00 00 00	 movzx	 ecx, BYTE PTR tv415[rsp]
  0095e	88 88 34 07 00
	00		 mov	 BYTE PTR [rax+1844], cl

; 3118 : 
; 3119 :     CTCE_Info.actions      = CTCE_Fsm[CTCE_CMD( bCode_reset )][CTCE_X_STATE_FSM_IDX].actions;

  00964	48 8b 84 24 20
	01 00 00	 mov	 rax, QWORD PTR pDEVBLK$[rsp]
  0096c	8b 80 18 07 00
	00		 mov	 eax, DWORD PTR [rax+1816]
  00972	83 e0 01	 and	 eax, 1
  00975	85 c0		 test	 eax, eax
  00977	75 69		 jne	 SHORT $LN65@CTCE_Reset
  00979	48 8b 84 24 20
	01 00 00	 mov	 rax, QWORD PTR pDEVBLK$[rsp]
  00981	8b 80 74 07 00
	00		 mov	 eax, DWORD PTR [rax+1908]
  00987	c1 e8 03	 shr	 eax, 3
  0098a	83 e0 01	 and	 eax, 1
  0098d	85 c0		 test	 eax, eax
  0098f	75 51		 jne	 SHORT $LN65@CTCE_Reset
  00991	b8 01 00 00 00	 mov	 eax, 1
  00996	48 6b c0 00	 imul	 rax, rax, 0
  0099a	48 8d 0d 00 00
	00 00		 lea	 rcx, OFFSET FLAT:CTCE_command
  009a1	0f b6 04 01	 movzx	 eax, BYTE PTR [rcx+rax]
  009a5	83 f8 07	 cmp	 eax, 7
  009a8	75 0d		 jne	 SHORT $LN66@CTCE_Reset
  009aa	c7 84 24 a4 00
	00 00 03 00 00
	00		 mov	 DWORD PTR tv434[rsp], 3
  009b5	eb 1b		 jmp	 SHORT $LN67@CTCE_Reset
$LN66@CTCE_Reset:
  009b7	b8 01 00 00 00	 mov	 eax, 1
  009bc	48 6b c0 00	 imul	 rax, rax, 0
  009c0	48 8d 0d 00 00
	00 00		 lea	 rcx, OFFSET FLAT:CTCE_command
  009c7	0f b6 04 01	 movzx	 eax, BYTE PTR [rcx+rax]
  009cb	89 84 24 a4 00
	00 00		 mov	 DWORD PTR tv434[rsp], eax
$LN67@CTCE_Reset:
  009d2	8b 84 24 a4 00
	00 00		 mov	 eax, DWORD PTR tv434[rsp]
  009d9	89 84 24 b0 00
	00 00		 mov	 DWORD PTR tv435[rsp], eax
  009e0	eb 1b		 jmp	 SHORT $LN68@CTCE_Reset
$LN65@CTCE_Reset:
  009e2	b8 01 00 00 00	 mov	 eax, 1
  009e7	48 6b c0 00	 imul	 rax, rax, 0
  009eb	48 8d 0d 00 00
	00 00		 lea	 rcx, OFFSET FLAT:CTCE_command
  009f2	0f b6 04 01	 movzx	 eax, BYTE PTR [rcx+rax]
  009f6	89 84 24 b0 00
	00 00		 mov	 DWORD PTR tv435[rsp], eax
$LN68@CTCE_Reset:
  009fd	48 8b 84 24 20
	01 00 00	 mov	 rax, QWORD PTR pDEVBLK$[rsp]
  00a05	0f b6 80 34 07
	00 00		 movzx	 eax, BYTE PTR [rax+1844]
  00a0c	83 e0 04	 and	 eax, 4
  00a0f	85 c0		 test	 eax, eax
  00a11	75 10		 jne	 SHORT $LN73@CTCE_Reset
  00a13	c7 84 24 b4 00
	00 00 06 00 00
	00		 mov	 DWORD PTR tv462[rsp], 6
  00a1e	e9 a1 00 00 00	 jmp	 $LN74@CTCE_Reset
$LN73@CTCE_Reset:
  00a23	48 8b 84 24 20
	01 00 00	 mov	 rax, QWORD PTR pDEVBLK$[rsp]
  00a2b	8b 80 18 07 00
	00		 mov	 eax, DWORD PTR [rax+1816]
  00a31	83 e0 01	 and	 eax, 1
  00a34	85 c0		 test	 eax, eax
  00a36	75 65		 jne	 SHORT $LN69@CTCE_Reset
  00a38	48 8b 84 24 20
	01 00 00	 mov	 rax, QWORD PTR pDEVBLK$[rsp]
  00a40	8b 80 74 07 00
	00		 mov	 eax, DWORD PTR [rax+1908]
  00a46	c1 e8 03	 shr	 eax, 3
  00a49	83 e0 01	 and	 eax, 1
  00a4c	85 c0		 test	 eax, eax
  00a4e	75 4d		 jne	 SHORT $LN69@CTCE_Reset
  00a50	48 8b 84 24 20
	01 00 00	 mov	 rax, QWORD PTR pDEVBLK$[rsp]
  00a58	0f b6 80 36 07
	00 00		 movzx	 eax, BYTE PTR [rax+1846]
  00a5f	83 e0 07	 and	 eax, 7
  00a62	83 f8 05	 cmp	 eax, 5
  00a65	75 0d		 jne	 SHORT $LN70@CTCE_Reset
  00a67	c7 84 24 a8 00
	00 00 04 00 00
	00		 mov	 DWORD PTR tv460[rsp], 4
  00a72	eb 19		 jmp	 SHORT $LN71@CTCE_Reset
$LN70@CTCE_Reset:
  00a74	48 8b 84 24 20
	01 00 00	 mov	 rax, QWORD PTR pDEVBLK$[rsp]
  00a7c	0f b6 80 36 07
	00 00		 movzx	 eax, BYTE PTR [rax+1846]
  00a83	83 e0 07	 and	 eax, 7
  00a86	89 84 24 a8 00
	00 00		 mov	 DWORD PTR tv460[rsp], eax
$LN71@CTCE_Reset:
  00a8d	8b 84 24 a8 00
	00 00		 mov	 eax, DWORD PTR tv460[rsp]
  00a94	89 84 24 ac 00
	00 00		 mov	 DWORD PTR tv461[rsp], eax
  00a9b	eb 19		 jmp	 SHORT $LN72@CTCE_Reset
$LN69@CTCE_Reset:
  00a9d	48 8b 84 24 20
	01 00 00	 mov	 rax, QWORD PTR pDEVBLK$[rsp]
  00aa5	0f b6 80 36 07
	00 00		 movzx	 eax, BYTE PTR [rax+1846]
  00aac	83 e0 07	 and	 eax, 7
  00aaf	89 84 24 ac 00
	00 00		 mov	 DWORD PTR tv461[rsp], eax
$LN72@CTCE_Reset:
  00ab6	8b 84 24 ac 00
	00 00		 mov	 eax, DWORD PTR tv461[rsp]
  00abd	89 84 24 b4 00
	00 00		 mov	 DWORD PTR tv462[rsp], eax
$LN74@CTCE_Reset:
  00ac4	48 63 84 24 b0
	00 00 00	 movsxd	 rax, DWORD PTR tv435[rsp]
  00acc	48 6b c0 20	 imul	 rax, rax, 32		; 00000020H
  00ad0	48 8d 0d 00 00
	00 00		 lea	 rcx, OFFSET FLAT:CTCE_Fsm
  00ad7	48 03 c8	 add	 rcx, rax
  00ada	48 8b c1	 mov	 rax, rcx
  00add	48 63 8c 24 b4
	00 00 00	 movsxd	 rcx, DWORD PTR tv462[rsp]
  00ae5	0f b6 44 88 03	 movzx	 eax, BYTE PTR [rax+rcx*4+3]
  00aea	88 84 24 e6 00
	00 00		 mov	 BYTE PTR CTCE_Info$[rsp+6], al

; 3120 :     UnitStat               = CTCE_Fsm[CTCE_CMD( bCode_reset )][CTCE_X_STATE_FSM_IDX].x_unit_stat;

  00af1	48 8b 84 24 20
	01 00 00	 mov	 rax, QWORD PTR pDEVBLK$[rsp]
  00af9	8b 80 18 07 00
	00		 mov	 eax, DWORD PTR [rax+1816]
  00aff	83 e0 01	 and	 eax, 1
  00b02	85 c0		 test	 eax, eax
  00b04	75 69		 jne	 SHORT $LN75@CTCE_Reset
  00b06	48 8b 84 24 20
	01 00 00	 mov	 rax, QWORD PTR pDEVBLK$[rsp]
  00b0e	8b 80 74 07 00
	00		 mov	 eax, DWORD PTR [rax+1908]
  00b14	c1 e8 03	 shr	 eax, 3
  00b17	83 e0 01	 and	 eax, 1
  00b1a	85 c0		 test	 eax, eax
  00b1c	75 51		 jne	 SHORT $LN75@CTCE_Reset
  00b1e	b8 01 00 00 00	 mov	 eax, 1
  00b23	48 6b c0 00	 imul	 rax, rax, 0
  00b27	48 8d 0d 00 00
	00 00		 lea	 rcx, OFFSET FLAT:CTCE_command
  00b2e	0f b6 04 01	 movzx	 eax, BYTE PTR [rcx+rax]
  00b32	83 f8 07	 cmp	 eax, 7
  00b35	75 0d		 jne	 SHORT $LN76@CTCE_Reset
  00b37	c7 84 24 b8 00
	00 00 03 00 00
	00		 mov	 DWORD PTR tv484[rsp], 3
  00b42	eb 1b		 jmp	 SHORT $LN77@CTCE_Reset
$LN76@CTCE_Reset:
  00b44	b8 01 00 00 00	 mov	 eax, 1
  00b49	48 6b c0 00	 imul	 rax, rax, 0
  00b4d	48 8d 0d 00 00
	00 00		 lea	 rcx, OFFSET FLAT:CTCE_command
  00b54	0f b6 04 01	 movzx	 eax, BYTE PTR [rcx+rax]
  00b58	89 84 24 b8 00
	00 00		 mov	 DWORD PTR tv484[rsp], eax
$LN77@CTCE_Reset:
  00b5f	8b 84 24 b8 00
	00 00		 mov	 eax, DWORD PTR tv484[rsp]
  00b66	89 84 24 c4 00
	00 00		 mov	 DWORD PTR tv485[rsp], eax
  00b6d	eb 1b		 jmp	 SHORT $LN78@CTCE_Reset
$LN75@CTCE_Reset:
  00b6f	b8 01 00 00 00	 mov	 eax, 1
  00b74	48 6b c0 00	 imul	 rax, rax, 0
  00b78	48 8d 0d 00 00
	00 00		 lea	 rcx, OFFSET FLAT:CTCE_command
  00b7f	0f b6 04 01	 movzx	 eax, BYTE PTR [rcx+rax]
  00b83	89 84 24 c4 00
	00 00		 mov	 DWORD PTR tv485[rsp], eax
$LN78@CTCE_Reset:
  00b8a	48 8b 84 24 20
	01 00 00	 mov	 rax, QWORD PTR pDEVBLK$[rsp]
  00b92	0f b6 80 34 07
	00 00		 movzx	 eax, BYTE PTR [rax+1844]
  00b99	83 e0 04	 and	 eax, 4
  00b9c	85 c0		 test	 eax, eax
  00b9e	75 10		 jne	 SHORT $LN83@CTCE_Reset
  00ba0	c7 84 24 c8 00
	00 00 06 00 00
	00		 mov	 DWORD PTR tv512[rsp], 6
  00bab	e9 a1 00 00 00	 jmp	 $LN84@CTCE_Reset
$LN83@CTCE_Reset:
  00bb0	48 8b 84 24 20
	01 00 00	 mov	 rax, QWORD PTR pDEVBLK$[rsp]
  00bb8	8b 80 18 07 00
	00		 mov	 eax, DWORD PTR [rax+1816]
  00bbe	83 e0 01	 and	 eax, 1
  00bc1	85 c0		 test	 eax, eax
  00bc3	75 65		 jne	 SHORT $LN79@CTCE_Reset
  00bc5	48 8b 84 24 20
	01 00 00	 mov	 rax, QWORD PTR pDEVBLK$[rsp]
  00bcd	8b 80 74 07 00
	00		 mov	 eax, DWORD PTR [rax+1908]
  00bd3	c1 e8 03	 shr	 eax, 3
  00bd6	83 e0 01	 and	 eax, 1
  00bd9	85 c0		 test	 eax, eax
  00bdb	75 4d		 jne	 SHORT $LN79@CTCE_Reset
  00bdd	48 8b 84 24 20
	01 00 00	 mov	 rax, QWORD PTR pDEVBLK$[rsp]
  00be5	0f b6 80 36 07
	00 00		 movzx	 eax, BYTE PTR [rax+1846]
  00bec	83 e0 07	 and	 eax, 7
  00bef	83 f8 05	 cmp	 eax, 5
  00bf2	75 0d		 jne	 SHORT $LN80@CTCE_Reset
  00bf4	c7 84 24 bc 00
	00 00 04 00 00
	00		 mov	 DWORD PTR tv510[rsp], 4
  00bff	eb 19		 jmp	 SHORT $LN81@CTCE_Reset
$LN80@CTCE_Reset:
  00c01	48 8b 84 24 20
	01 00 00	 mov	 rax, QWORD PTR pDEVBLK$[rsp]
  00c09	0f b6 80 36 07
	00 00		 movzx	 eax, BYTE PTR [rax+1846]
  00c10	83 e0 07	 and	 eax, 7
  00c13	89 84 24 bc 00
	00 00		 mov	 DWORD PTR tv510[rsp], eax
$LN81@CTCE_Reset:
  00c1a	8b 84 24 bc 00
	00 00		 mov	 eax, DWORD PTR tv510[rsp]
  00c21	89 84 24 c0 00
	00 00		 mov	 DWORD PTR tv511[rsp], eax
  00c28	eb 19		 jmp	 SHORT $LN82@CTCE_Reset
$LN79@CTCE_Reset:
  00c2a	48 8b 84 24 20
	01 00 00	 mov	 rax, QWORD PTR pDEVBLK$[rsp]
  00c32	0f b6 80 36 07
	00 00		 movzx	 eax, BYTE PTR [rax+1846]
  00c39	83 e0 07	 and	 eax, 7
  00c3c	89 84 24 c0 00
	00 00		 mov	 DWORD PTR tv511[rsp], eax
$LN82@CTCE_Reset:
  00c43	8b 84 24 c0 00
	00 00		 mov	 eax, DWORD PTR tv511[rsp]
  00c4a	89 84 24 c8 00
	00 00		 mov	 DWORD PTR tv512[rsp], eax
$LN84@CTCE_Reset:
  00c51	48 63 84 24 c4
	00 00 00	 movsxd	 rax, DWORD PTR tv485[rsp]
  00c59	48 6b c0 20	 imul	 rax, rax, 32		; 00000020H
  00c5d	48 8d 0d 00 00
	00 00		 lea	 rcx, OFFSET FLAT:CTCE_Fsm
  00c64	48 03 c8	 add	 rcx, rax
  00c67	48 8b c1	 mov	 rax, rcx
  00c6a	48 63 8c 24 c8
	00 00 00	 movsxd	 rcx, DWORD PTR tv512[rsp]
  00c72	0f b6 44 88 01	 movzx	 eax, BYTE PTR [rax+rcx*4+1]
  00c77	88 44 24 30	 mov	 BYTE PTR UnitStat$[rsp], al

; 3121 : 
; 3122 :     // Any WRITE data in the reception buffer won't be used anymore.
; 3123 :     pDEVBLK->ctce_buf_next_read = pDEVBLK->ctce_buf_next_write;

  00c7b	48 8b 84 24 20
	01 00 00	 mov	 rax, QWORD PTR pDEVBLK$[rsp]
  00c83	8b 80 74 07 00
	00		 mov	 eax, DWORD PTR [rax+1908]
  00c89	c1 e8 06	 shr	 eax, 6
  00c8c	83 e0 01	 and	 eax, 1
  00c8f	83 e0 01	 and	 eax, 1
  00c92	c1 e0 05	 shl	 eax, 5
  00c95	48 8b 8c 24 20
	01 00 00	 mov	 rcx, QWORD PTR pDEVBLK$[rsp]
  00c9d	8b 89 74 07 00
	00		 mov	 ecx, DWORD PTR [rcx+1908]
  00ca3	83 e1 df	 and	 ecx, -33		; ffffffdfH
  00ca6	0b c8		 or	 ecx, eax
  00ca8	8b c1		 mov	 eax, ecx
  00caa	48 8b 8c 24 20
	01 00 00	 mov	 rcx, QWORD PTR pDEVBLK$[rsp]
  00cb2	89 81 74 07 00
	00		 mov	 DWORD PTR [rcx+1908], eax

; 3124 : 
; 3125 :     // In most cases we need to inform the other (y-)side.
; 3126 :     if( IS_CTCE_SEND( CTCE_Info.actions ) )

  00cb8	0f b6 84 24 e6
	00 00 00	 movzx	 eax, BYTE PTR CTCE_Info$[rsp+6]
  00cc0	83 e0 40	 and	 eax, 64			; 00000040H
  00cc3	83 f8 40	 cmp	 eax, 64			; 00000040H
  00cc6	75 31		 jne	 SHORT $LN5@CTCE_Reset

; 3127 :     {
; 3128 :         CTCE_Send( pDEVBLK, 0, NULL, &UnitStat, &Residual, &CTCE_Info );

  00cc8	48 8d 84 24 e0
	00 00 00	 lea	 rax, QWORD PTR CTCE_Info$[rsp]
  00cd0	48 89 44 24 28	 mov	 QWORD PTR [rsp+40], rax
  00cd5	48 8d 84 24 d4
	00 00 00	 lea	 rax, QWORD PTR Residual$[rsp]
  00cdd	48 89 44 24 20	 mov	 QWORD PTR [rsp+32], rax
  00ce2	4c 8d 4c 24 30	 lea	 r9, QWORD PTR UnitStat$[rsp]
  00ce7	45 33 c0	 xor	 r8d, r8d
  00cea	33 d2		 xor	 edx, edx
  00cec	48 8b 8c 24 20
	01 00 00	 mov	 rcx, QWORD PTR pDEVBLK$[rsp]
  00cf4	e8 00 00 00 00	 call	 CTCE_Send
$LN5@CTCE_Reset:

; 3129 :     }
; 3130 : 
; 3131 :     // We restart startup tracing if applicable.
; 3132 :     CTCE_RESTART_CCWTRACE( pDEVBLK ) ;

  00cf9	48 8b 84 24 20
	01 00 00	 mov	 rax, QWORD PTR pDEVBLK$[rsp]
  00d01	83 b8 68 07 00
	00 00		 cmp	 DWORD PTR [rax+1896], 0
  00d08	7c 14		 jl	 SHORT $LN85@CTCE_Reset
  00d0a	48 8b 84 24 20
	01 00 00	 mov	 rax, QWORD PTR pDEVBLK$[rsp]
  00d12	c7 80 68 07 00
	00 14 00 00 00	 mov	 DWORD PTR [rax+1896], 20
  00d1c	33 c0		 xor	 eax, eax
$LN85@CTCE_Reset:

; 3133 :     if( CTCE_CCWTRACE( pDEVBLK ) )

  00d1e	48 8b 84 24 20
	01 00 00	 mov	 rax, QWORD PTR pDEVBLK$[rsp]
  00d26	8b 80 f8 05 00
	00		 mov	 eax, DWORD PTR [rax+1528]
  00d2c	c1 e8 0f	 shr	 eax, 15
  00d2f	83 e0 01	 and	 eax, 1
  00d32	85 c0		 test	 eax, eax
  00d34	75 63		 jne	 SHORT $LN7@CTCE_Reset
  00d36	48 8b 84 24 20
	01 00 00	 mov	 rax, QWORD PTR pDEVBLK$[rsp]
  00d3e	83 b8 68 07 00
	00 ff		 cmp	 DWORD PTR [rax+1896], -1
  00d45	74 52		 je	 SHORT $LN7@CTCE_Reset
  00d47	48 8b 84 24 20
	01 00 00	 mov	 rax, QWORD PTR pDEVBLK$[rsp]
  00d4f	83 b8 68 07 00
	00 00		 cmp	 DWORD PTR [rax+1896], 0
  00d56	0f 8e b0 00 00
	00		 jle	 $LN6@CTCE_Reset
  00d5c	48 8b 84 24 20
	01 00 00	 mov	 rax, QWORD PTR pDEVBLK$[rsp]
  00d64	8b 80 68 07 00
	00		 mov	 eax, DWORD PTR [rax+1896]
  00d6a	89 84 24 d8 00
	00 00		 mov	 DWORD PTR tv552[rsp], eax
  00d71	48 8b 84 24 20
	01 00 00	 mov	 rax, QWORD PTR pDEVBLK$[rsp]
  00d79	8b 80 68 07 00
	00		 mov	 eax, DWORD PTR [rax+1896]
  00d7f	ff c8		 dec	 eax
  00d81	48 8b 8c 24 20
	01 00 00	 mov	 rcx, QWORD PTR pDEVBLK$[rsp]
  00d89	89 81 68 07 00
	00		 mov	 DWORD PTR [rcx+1896], eax
  00d8f	83 bc 24 d8 00
	00 00 00	 cmp	 DWORD PTR tv552[rsp], 0
  00d97	74 73		 je	 SHORT $LN6@CTCE_Reset
$LN7@CTCE_Reset:

; 3134 :     {
; 3135 :         CTCE_Trace( pDEVBLK, ( CTCE_Info.sent ? CTCE_SND :

  00d99	8b 84 24 f0 00
	00 00		 mov	 eax, DWORD PTR CTCE_Info$[rsp+16]
  00da0	83 e0 01	 and	 eax, 1
  00da3	85 c0		 test	 eax, eax
  00da5	74 0d		 je	 SHORT $LN88@CTCE_Reset
  00da7	c7 84 24 d0 00
	00 00 01 00 00
	00		 mov	 DWORD PTR tv560[rsp], 1
  00db2	eb 37		 jmp	 SHORT $LN89@CTCE_Reset
$LN88@CTCE_Reset:
  00db4	48 8b 84 24 20
	01 00 00	 mov	 rax, QWORD PTR pDEVBLK$[rsp]
  00dbc	83 b8 3c 07 00
	00 00		 cmp	 DWORD PTR [rax+1852], 0
  00dc3	7d 0d		 jge	 SHORT $LN86@CTCE_Reset
  00dc5	c7 84 24 cc 00
	00 00 04 00 00
	00		 mov	 DWORD PTR tv558[rsp], 4
  00dd0	eb 0b		 jmp	 SHORT $LN87@CTCE_Reset
$LN86@CTCE_Reset:
  00dd2	c7 84 24 cc 00
	00 00 03 00 00
	00		 mov	 DWORD PTR tv558[rsp], 3
$LN87@CTCE_Reset:
  00ddd	8b 84 24 cc 00
	00 00		 mov	 eax, DWORD PTR tv558[rsp]
  00de4	89 84 24 d0 00
	00 00		 mov	 DWORD PTR tv560[rsp], eax
$LN89@CTCE_Reset:
  00deb	4c 8d 4c 24 30	 lea	 r9, QWORD PTR UnitStat$[rsp]
  00df0	4c 8d 84 24 e0
	00 00 00	 lea	 r8, QWORD PTR CTCE_Info$[rsp]
  00df8	8b 94 24 d0 00
	00 00		 mov	 edx, DWORD PTR tv560[rsp]
  00dff	48 8b 8c 24 20
	01 00 00	 mov	 rcx, QWORD PTR pDEVBLK$[rsp]
  00e07	e8 00 00 00 00	 call	 CTCE_Trace
$LN6@CTCE_Reset:

; 3136 :             ( ( pDEVBLK->ctcefd < 0 ) ? CTCE_SND_NSR : CTCE_SND_NS ) ),
; 3137 :             &CTCE_Info, &UnitStat );
; 3138 :     }
; 3139 : } // CTCE_Reset

  00e0c	48 8b 8c 24 00
	01 00 00	 mov	 rcx, QWORD PTR __$ArrayPad$[rsp]
  00e14	48 33 cc	 xor	 rcx, rsp
  00e17	e8 00 00 00 00	 call	 __security_check_cookie
  00e1c	48 81 c4 10 01
	00 00		 add	 rsp, 272		; 00000110H
  00e23	5f		 pop	 rdi
  00e24	c3		 ret	 0
CTCE_Reset ENDP
_TEXT	ENDS
; Function compile flags: /Odtp
; File C:\papa\MyGit\hyperion-zvector\ctcadpt.c
_TEXT	SEGMENT
dev$ = 144
renewing$ = 152
connect_fd$ = 156
pSokBuf$ = 160
pDEVBLK$ = 168
iLength$ = 176
buf$ = 184
tv289 = 192
tv293 = 196
tv297 = 200
tv301 = 204
tv343 = 208
tv349 = 212
tv353 = 216
tv381 = 220
tv385 = 224
tv405 = 228
tv409 = 232
servlen$ = 236
so_value_1$ = 240
tv271 = 244
tv275 = 248
$T1 = 256
remaddr$ = 264
tv307 = 272
rc$ = 280
tid2$ = 284
tv132 = 288
tv265 = 296
tv345 = 304
tv373 = 312
tv396 = 320
parm_listen$ = 328
address$ = 360
str$ = 384
__$ArrayPad$ = 464
argp$ = 512
CTCE_ListenThread PROC

; 2280 : {

  00000	48 89 4c 24 08	 mov	 QWORD PTR [rsp+8], rcx
  00005	56		 push	 rsi
  00006	57		 push	 rdi
  00007	48 81 ec e8 01
	00 00		 sub	 rsp, 488		; 000001e8H
  0000e	48 8b 05 00 00
	00 00		 mov	 rax, QWORD PTR __security_cookie
  00015	48 33 c4	 xor	 rax, rsp
  00018	48 89 84 24 d0
	01 00 00	 mov	 QWORD PTR __$ArrayPad$[rsp], rax

; 2281 :     DEVBLK        *pDEVBLK;                      // device block pointer
; 2282 :     int            connect_fd;
; 2283 :     int            iLength;                      // length of 1st read_socket
; 2284 :     socklen_t      servlen;
; 2285 :     char           str[80];
; 2286 :     CTCE_PARMBLK   parm_listen;
; 2287 :     TID            tid2;                         // Thread ID for read thread
; 2288 : #if defined( CTCE_DISABLE_NAGLE )
; 2289 :     const int      so_value_1 = 1;               // Argument for setsockopt

  00020	c7 84 24 f0 00
	00 00 01 00 00
	00		 mov	 DWORD PTR so_value_1$[rsp], 1

; 2290 : #endif
; 2291 :     CTCE_SOKPFX   *pSokBuf;                      // Overlay for buf inside DEVBLK
; 2292 :     BYTE          *buf;                          //-> Device 1st recv data buffer
; 2293 :     DEVBLK        *dev;                          // device block pointer to search for
; 2294 :     char*          remaddr;                      // Remote IP address
; 2295 :     char           address[20]="";               // temp space for IP address

  0002b	0f b6 05 00 00
	00 00		 movzx	 eax, BYTE PTR $SG169961
  00032	88 84 24 68 01
	00 00		 mov	 BYTE PTR address$[rsp], al
  00039	48 8d 84 24 69
	01 00 00	 lea	 rax, QWORD PTR address$[rsp+1]
  00041	48 8b f8	 mov	 rdi, rax
  00044	33 c0		 xor	 eax, eax
  00046	b9 13 00 00 00	 mov	 ecx, 19
  0004b	f3 aa		 rep stosb

; 2296 :     BYTE           renewing;                     // When renewing a CTCE connection
; 2297 : #if defined( HAVE_BASIC_KEEPALIVE )
; 2298 :     int            rc;                           // set_socket_keepalive Return Code
; 2299 : #endif // defined( HAVE_BASIC_KEEPALIVE )
; 2300 : 
; 2301 :     // Set up the parameters passed via create_thread.
; 2302 :     parm_listen = *( ( CTCE_PARMBLK* ) argp );

  0004d	48 8d 84 24 48
	01 00 00	 lea	 rax, QWORD PTR parm_listen$[rsp]
  00055	48 8b f8	 mov	 rdi, rax
  00058	48 8b b4 24 00
	02 00 00	 mov	 rsi, QWORD PTR argp$[rsp]
