; Listing generated by Microsoft (R) Optimizing Compiler Version 19.34.31937.0 

include listing.inc

INCLUDELIB MSVCRTD
INCLUDELIB OLDNAMES

PUBLIC	twelvehex00
PUBLIC	cvol_low_key
PUBLIC	infolvl
_BSS	SEGMENT
twelvehex00 DB	0cH DUP (?)
_BSS	ENDS
_DATA	SEGMENT
cvol_low_key DB	00H
	DB	00H
	DB	00H
	DB	00H
	DB	00H
	DB	00H
	DB	00H
	DB	01H
infolvl	DD	01H
$SG162014 DB	'DUMP', 00H
	ORG $+7
$SG162015 DB	'IMAGELIB', 00H
	ORG $+7
$SG162016 DB	'LINKLIB', 00H
$SG162017 DB	'NUCLEUS', 00H
$SG162018 DB	'PARMLIB', 00H
$SG162019 DB	'PROCLIB', 00H
$SG162020 DB	'SAMPLIB', 00H
$SG162021 DB	'SYSJOBQE', 00H
_DATA	ENDS
CONST	SEGMENT
CKD_ENDTRK DB	0ffH
	DB	0ffH
	DB	0ffH
	DB	0ffH
	DB	0ffH
	DB	0ffH
	DB	0ffH
	DB	0ffH
VOL1_KEYA DB	056H
	DB	04fH
	DB	04cH
	DB	031H
VOL1_KEY DB	0e5H
	DB	0d6H
	DB	0d3H
	DB	0f1H
IPL1_KEY DB	0c9H
	DB	0d7H
	DB	0d3H
	DB	0f1H
IPL2_KEY DB	0c9H
	DB	0d7H
	DB	0d3H
	DB	0f2H
iplpsw	DB	00H
	DB	00H
	DB	00H
	DB	00H
	DB	00H
	DB	00H
	DB	00H
	DB	00H
iplccw1	DB	06H
	DB	00H
	DB	03aH
	DB	098H
	DB	060H
	DB	00H
	DB	00H
	DB	060H
iplccw2	DB	08H
	DB	00H
	DB	03aH
	DB	098H
	DB	00H
	DB	00H
	DB	00H
	DB	00H
noiplpsw DB	00H
	DB	02H
	DB	00H
	DB	00H
	DB	00H
	DB	00H
	DB	00H
	DB	0fH
noiplccw1 DB	03H
	DB	00H
	DB	00H
	DB	00H
	DB	00H
	DB	00H
	DB	00H
	DB	01H
noiplccw2 DB	00H
	DB	00H
	DB	00H
	DB	00H
	DB	00H
	DB	00H
	DB	00H
	DB	00H
ipl2data DB	07H
	DB	00H
	DB	03aH
	DB	0b8H
	DB	040H
	DB	00H
	DB	00H
	DB	06H
	DB	031H
	DB	00H
	DB	03aH
	DB	0beH
	DB	040H
	DB	00H
	DB	00H
	DB	05H
	DB	08H
	DB	00H
	DB	03aH
	DB	0a0H
	DB	00H
	DB	00H
	DB	00H
	DB	00H
	DB	06H
	DB	00H
	DB	00H
	DB	00H
	DB	020H
	DB	00H
	DB	07fH
	DB	0ffH
	DB	00H
	DB	00H
	DB	00H
	DB	00H
	DB	00H
	DB	00H
	DB	00H
	DB	00H
	DB	00H
	DB	00H
	DB	04H
CONST	ENDS
PUBLIC	__local_stdio_printf_options
PUBLIC	__local_stdio_scanf_options
PUBLIC	_vfprintf_l
PUBLIC	vprintf
PUBLIC	printf
PUBLIC	_vsnprintf_l
PUBLIC	_vsprintf_l
PUBLIC	sprintf
PUBLIC	_vsscanf_l
PUBLIC	sscanf
PUBLIC	fetch_hw_noswap
PUBLIC	store_hw_noswap
PUBLIC	store_fw_noswap
PUBLIC	main
EXTRN	__imp_isprint:PROC
EXTRN	__imp__errno:PROC
EXTRN	strcmp:PROC
EXTRN	strcpy:PROC
EXTRN	__imp__stricmp:PROC
EXTRN	strlen:PROC
EXTRN	__imp_strncpy:PROC
EXTRN	__imp_free:PROC
EXTRN	__imp_malloc:PROC
EXTRN	__imp_exit:PROC
EXTRN	_byteswap_ushort:PROC
EXTRN	_byteswap_ulong:PROC
EXTRN	__imp_close:PROC
EXTRN	__imp_read:PROC
EXTRN	__imp___acrt_iob_func:PROC
EXTRN	__imp_feof:PROC
EXTRN	__imp_fgets:PROC
EXTRN	__imp_fopen:PROC
EXTRN	__imp__ftelli64:PROC
EXTRN	__imp___stdio_common_vfprintf:PROC
EXTRN	__imp___stdio_common_vsprintf:PROC
EXTRN	__imp___stdio_common_vsscanf:PROC
EXTRN	__imp__localtime64:PROC
EXTRN	__imp__time64:PROC
EXTRN	__imp__fstat64:PROC
EXTRN	__imp_strlcat:PROC
EXTRN	__imp_initialize_utility:PROC
EXTRN	__imp_rtrim:PROC
EXTRN	__imp_string_to_upper:PROC
EXTRN	__imp_convert_to_ebcdic:PROC
EXTRN	__imp_make_asciiz:PROC
EXTRN	__imp_w32_strerror:PROC
EXTRN	__imp_strtok_r:PROC
EXTRN	__imp_hostpath:PROC
EXTRN	__imp_w32_snprintf:PROC
EXTRN	__imp_w32_fprintf:PROC
EXTRN	__imp_w32_fclose:PROC
EXTRN	__imp_w32_hopen:PROC
EXTRN	__imp_guest_to_host:PROC
EXTRN	__imp_dasd_lookup:PROC
EXTRN	__imp_fwritemsg:PROC
EXTRN	__imp_build_vol1:PROC
EXTRN	__imp_data_dump:PROC
EXTRN	__imp_read_track:PROC
EXTRN	__imp_open_ckd64_image:PROC
EXTRN	__imp_close_ckd_image:PROC
EXTRN	__imp_capacity_calc:PROC
EXTRN	__imp_create_ckd64:PROC
EXTRN	__GSHandlerCheck:PROC
EXTRN	__chkstk:PROC
EXTRN	__security_check_cookie:PROC
EXTRN	memcmp:PROC
EXTRN	__imp_extgui:DWORD
EXTRN	__imp_cckdblk:BYTE
EXTRN	__ImageBase:BYTE
EXTRN	__security_cookie:QWORD
_DATA	SEGMENT
COMM	?_OptionsStorage@?1??__local_stdio_printf_options@@9@9:QWORD							; `__local_stdio_printf_options'::`2'::_OptionsStorage
COMM	?_OptionsStorage@?1??__local_stdio_scanf_options@@9@9:QWORD							; `__local_stdio_scanf_options'::`2'::_OptionsStorage
_DATA	ENDS
_BSS	SEGMENT
$SG160475 DB	01H DUP (?)
	ALIGN	4

?name@?1??dsorg_name@@9@9 DB 08H DUP (?)		; `dsorg_name'::`2'::name
?name@?1??recfm_name@@9@9 DB 08H DUP (?)		; `recfm_name'::`2'::name
$SG161150 DB	01H DUP (?)
	ALIGN	4

$SG161158 DB	01H DUP (?)
	ALIGN	4

$SG161172 DB	01H DUP (?)
	ALIGN	4

?stmtno@?1??read_ctrl_stmt@@9@9 DD 01H DUP (?)		; `read_ctrl_stmt'::`2'::stmtno
$SG162617 DB	01H DUP (?)
_BSS	ENDS
;	COMDAT pdata
pdata	SEGMENT
$pdata$_vfprintf_l DD imagerel $LN3
	DD	imagerel $LN3+68
	DD	imagerel $unwind$_vfprintf_l
pdata	ENDS
;	COMDAT pdata
pdata	SEGMENT
$pdata$vprintf DD imagerel $LN3
	DD	imagerel $LN3+51
	DD	imagerel $unwind$vprintf
pdata	ENDS
;	COMDAT pdata
pdata	SEGMENT
$pdata$printf DD imagerel $LN3
	DD	imagerel $LN3+88
	DD	imagerel $unwind$printf
pdata	ENDS
;	COMDAT pdata
pdata	SEGMENT
$pdata$_vsnprintf_l DD imagerel $LN5
	DD	imagerel $LN5+118
	DD	imagerel $unwind$_vsnprintf_l
pdata	ENDS
;	COMDAT pdata
pdata	SEGMENT
$pdata$_vsprintf_l DD imagerel $LN3
	DD	imagerel $LN3+66
	DD	imagerel $unwind$_vsprintf_l
pdata	ENDS
;	COMDAT pdata
pdata	SEGMENT
$pdata$sprintf DD imagerel $LN3
	DD	imagerel $LN3+79
	DD	imagerel $unwind$sprintf
pdata	ENDS
;	COMDAT pdata
pdata	SEGMENT
$pdata$_vsscanf_l DD imagerel $LN3
	DD	imagerel $LN3+80
	DD	imagerel $unwind$_vsscanf_l
pdata	ENDS
;	COMDAT pdata
pdata	SEGMENT
$pdata$sscanf DD imagerel $LN3
	DD	imagerel $LN3+79
	DD	imagerel $unwind$sscanf
pdata	ENDS
pdata	SEGMENT
$pdata$localtime DD imagerel localtime
	DD	imagerel localtime+25
	DD	imagerel $unwind$localtime
$pdata$time DD	imagerel time
	DD	imagerel time+25
	DD	imagerel $unwind$time
pdata	ENDS
;	COMDAT pdata
pdata	SEGMENT
$pdata$fetch_hw_noswap DD imagerel $LN3
	DD	imagerel $LN3+30
	DD	imagerel $unwind$fetch_hw_noswap
pdata	ENDS
pdata	SEGMENT
$pdata$argexit DD imagerel argexit
	DD	imagerel argexit+206
	DD	imagerel $unwind$argexit
$pdata$info_msg DD imagerel info_msg
	DD	imagerel info_msg+65
	DD	imagerel $unwind$info_msg
$pdata$make_int DD imagerel make_int
	DD	imagerel make_int+93
	DD	imagerel $unwind$make_int
$pdata$dsorg_name DD imagerel dsorg_name
	DD	imagerel dsorg_name+259
	DD	imagerel $unwind$dsorg_name
$pdata$recfm_name DD imagerel recfm_name
	DD	imagerel recfm_name+393
	DD	imagerel $unwind$recfm_name
$pdata$dasd_name DD imagerel dasd_name
	DD	imagerel dasd_name+356
	DD	imagerel $unwind$dasd_name
$pdata$ucbtype_code DD imagerel ucbtype_code
	DD	imagerel ucbtype_code+329
	DD	imagerel $unwind$ucbtype_code
$pdata$calculate_ttr DD imagerel calculate_ttr
	DD	imagerel calculate_ttr+385
	DD	imagerel $unwind$calculate_ttr
$pdata$read_ipl_text DD imagerel read_ipl_text
	DD	imagerel read_ipl_text+799
	DD	imagerel $unwind$read_ipl_text
$pdata$init_track DD imagerel init_track
	DD	imagerel init_track+268
	DD	imagerel $unwind$init_track
$pdata$write_track DD imagerel write_track
	DD	imagerel write_track+252
	DD	imagerel $unwind$write_track
$pdata$write_block DD imagerel write_block
	DD	imagerel write_block+1468
	DD	imagerel $unwind$write_block
$pdata$write_track_zero DD imagerel write_track_zero
	DD	imagerel write_track_zero+2016
	DD	imagerel $unwind$write_track_zero
$pdata$update_block DD imagerel update_block
	DD	imagerel update_block+1214
	DD	imagerel $unwind$update_block
$pdata$build_format1_dscb DD imagerel build_format1_dscb
	DD	imagerel build_format1_dscb+1131
	DD	imagerel $unwind$build_format1_dscb
$pdata$build_format4_dscb DD imagerel build_format4_dscb
	DD	imagerel build_format4_dscb+1099
	DD	imagerel $unwind$build_format4_dscb
$pdata$build_format5_dscb DD imagerel build_format5_dscb
	DD	imagerel build_format5_dscb+240
	DD	imagerel $unwind$build_format5_dscb
$pdata$write_vtoc DD imagerel write_vtoc
	DD	imagerel write_vtoc+3133
	DD	imagerel $unwind$write_vtoc
$pdata$tu_name DD imagerel tu_name
	DD	imagerel tu_name+726
	DD	imagerel $unwind$tu_name
$pdata$next_tu DD imagerel next_tu
	DD	imagerel next_tu+1196
	DD	imagerel $unwind$next_tu
$pdata$read_xmit_rec DD imagerel read_xmit_rec
	DD	imagerel read_xmit_rec+701
	DD	imagerel $unwind$read_xmit_rec
$pdata$read_vs_rec DD imagerel read_vs_rec
	DD	imagerel read_vs_rec+602
	DD	imagerel $unwind$read_vs_rec
$pdata$process_inmr02 DD imagerel process_inmr02
	DD	imagerel process_inmr02+1618
	DD	imagerel $unwind$process_inmr02
$pdata$process_inmrxx DD imagerel process_inmrxx
	DD	imagerel process_inmrxx+244
	DD	imagerel $unwind$process_inmrxx
$pdata$process_copyr1 DD imagerel process_copyr1
	DD	imagerel process_copyr1+712
	DD	imagerel $unwind$process_copyr1
$pdata$process_copyr2 DD imagerel process_copyr2
	DD	imagerel process_copyr2+839
	DD	imagerel $unwind$process_copyr2
$pdata$process_dirblk DD imagerel process_dirblk
	DD	imagerel process_dirblk+1433
	DD	imagerel $unwind$process_dirblk
$pdata$replace_ttr DD imagerel replace_ttr
	DD	imagerel replace_ttr+516
	DD	imagerel $unwind$replace_ttr
$pdata$update_note_list DD imagerel update_note_list
	DD	imagerel update_note_list+1606
	DD	imagerel $unwind$update_note_list
$pdata$update_dirblk DD imagerel update_dirblk
	DD	imagerel update_dirblk+744
	DD	imagerel $unwind$update_dirblk
$pdata$process_iebcopy_file DD imagerel process_iebcopy_file
	DD	imagerel process_iebcopy_file+4413
	DD	imagerel $unwind$process_iebcopy_file
$pdata$cvol_initialize DD imagerel cvol_initialize
	DD	imagerel cvol_initialize+3465
	DD	imagerel $unwind$cvol_initialize
$pdata$dip_initialize DD imagerel dip_initialize
	DD	imagerel dip_initialize+1940
	DD	imagerel $unwind$dip_initialize
$pdata$seq_initialize DD imagerel seq_initialize
	DD	imagerel seq_initialize+1963
	DD	imagerel $unwind$seq_initialize
$pdata$empty_initialize DD imagerel empty_initialize
	DD	imagerel empty_initialize+1092
	DD	imagerel $unwind$empty_initialize
$pdata$read_ctrl_stmt DD imagerel read_ctrl_stmt
	DD	imagerel read_ctrl_stmt+627
	DD	imagerel $unwind$read_ctrl_stmt
$pdata$parse_ctrl_stmt DD imagerel parse_ctrl_stmt
	DD	imagerel parse_ctrl_stmt+2287
	DD	imagerel $unwind$parse_ctrl_stmt
$pdata$process_control_file DD imagerel process_control_file
	DD	imagerel process_control_file+4132
	DD	imagerel $unwind$process_control_file
$pdata$main DD	imagerel $LN50
	DD	imagerel $LN50+2878
	DD	imagerel $unwind$main
pdata	ENDS
_DATA	SEGMENT
	ORG $+7
$SG160473 DB	'  -z     compress using zlib [default]', 0aH, 00H
$SG160474 DB	'HHC02496I   -bz2   compress using bzip2', 0aH, 00H
	ORG $+3
$SG160478 DB	'I', 00H
	ORG $+2
$SG160477 DB	'HHC02496I   -lfs   create single large output file', 0aH
	DB	00H
	ORG $+4
$SG160479 DB	'HHC02496%s Usage: %s [options] ctlfile outfile [n]', 0aH
	DB	'HHC02496I options:', 0aH, 'HHC02496I   -0     no compression '
	DB	'(default)', 0aH, 'HHC02496I   -a     output disk will include'
	DB	' alternate cylinders', 0aH, 'HHC02496I   -b     make wait PSW'
	DB	' in IPL1 record a BC-mode PSW', 0aH, 'HHC02496I          (def'
	DB	'ault is EC-mode PSW)', 0aH, 'HHC02496I   -m     enable wait P'
	DB	'SW in IPL1 record for machine checks', 0aH, 'HHC02496I       '
	DB	'   (default is disabled for machine checks)', 0aH, 'HHC02496I'
	DB	' %s%s%sHHC02496I', 0aH, 'HHC02496I ctlfile  name of input con'
	DB	'trol file', 0aH, 'HHC02496I outfile  name of DASD image file '
	DB	'to be created', 0aH, 'HHC02496I n        msglevel ''n'' is a '
	DB	'digit 0 - 5 indicating output verbosity', 0aH, 00H
$SG160510 DB	'IS', 00H
	ORG $+1
$SG160480 DB	'argexit', 00H
$SG160481 DB	'dasdload64.c', 00H
	ORG $+3
$SG160513 DB	'PS', 00H
	ORG $+1
$SG160516 DB	'DA', 00H
	ORG $+1
$SG160518 DB	'PO', 00H
	ORG $+1
$SG160520 DB	'U', 00H
	ORG $+2
$SG160532 DB	'V', 00H
	ORG $+2
$SG160534 DB	'F', 00H
	ORG $+2
$SG160536 DB	'U', 00H
	ORG $+2
$SG160538 DB	'??', 00H
	ORG $+1
$SG160540 DB	'T', 00H
	ORG $+2
$SG160542 DB	'B', 00H
	ORG $+2
$SG160544 DB	'S', 00H
	ORG $+2
$SG160546 DB	'A', 00H
	ORG $+2
$SG160548 DB	'M', 00H
	ORG $+2
$SG160556 DB	'????', 00H
	ORG $+3
$SG160558 DB	'2311', 00H
	ORG $+3
$SG160560 DB	'2301', 00H
	ORG $+3
$SG160562 DB	'2303', 00H
	ORG $+3
$SG160566 DB	'2302', 00H
	ORG $+3
$SG160567 DB	'9345', 00H
	ORG $+3
$SG160569 DB	'2321', 00H
	ORG $+3
$SG160571 DB	'2305-1', 00H
	ORG $+1
$SG160573 DB	'2305-2', 00H
	ORG $+1
$SG160575 DB	'2314', 00H
	ORG $+3
$SG160577 DB	'3330', 00H
	ORG $+3
$SG160579 DB	'3340', 00H
	ORG $+3
$SG160581 DB	'3350', 00H
	ORG $+3
$SG160583 DB	'3375', 00H
	ORG $+3
$SG160633 DB	'E', 00H
	ORG $+2
$SG160585 DB	'3330-11', 00H
$SG160587 DB	'3380', 00H
	ORG $+3
$SG160589 DB	'3390', 00H
	ORG $+3
$SG160590 DB	'????', 00H
	ORG $+3
$SG160634 DB	'HHC02505%s CCHH[%04X%04X] not found in extent table', 0aH
	DB	00H
	ORG $+3
$SG160653 DB	'open', 00H
	ORG $+3
$SG160654 DB	'E', 00H
	ORG $+2
$SG160658 DB	'E', 00H
	ORG $+2
$SG160655 DB	'HHC02506%s Cannot %s file %s; error %s', 0aH, 00H
$SG160657 DB	'read', 00H
	ORG $+3
$SG160659 DB	'HHC02506%s Cannot %s file %s; error %s', 0aH, 00H
$SG160661 DB	'E', 00H
	ORG $+2
$SG160664 DB	0c5H, 0d5H, 0c4H, 00H
$SG160662 DB	'HHC02507%s File %s: invalid object file', 0aH, 00H
	ORG $+3
$SG160666 DB	0e3H, 0e7H, 0e3H, 00H
$SG160667 DB	'I', 00H
	ORG $+2
$SG160670 DB	'E', 00H
	ORG $+2
$SG160668 DB	'HHC02522%s IPL text address=%06X length=%04X', 0aH, 00H
	ORG $+2
$SG160671 DB	'HHC02508%s File %s: TXT record has invalid count of %d', 0aH
	DB	00H
$SG160673 DB	'E', 00H
	ORG $+2
$SG160808 DB	'E', 00H
	ORG $+2
$SG160674 DB	'HHC02509%s File %s: IPL text exceeds %d bytes', 0aH, 00H
	ORG $+1
$SG160809 DB	'HHC02510%s Input record CCHHR[%02X%02X%02X%02X%02X] exce'
	DB	'eds output device track size', 0aH, 00H
	ORG $+2
$SG160811 DB	'E', 00H
	ORG $+2
$SG160815 DB	'E', 00H
	ORG $+2
$SG160812 DB	'HHC02511%s Dataset exceeds extent size: reltrk=%d, maxtr'
	DB	'k=%d', 0aH, 00H
	ORG $+2
$SG160816 DB	'HHC02512%s Input record CCHHR[%02X%02X%02X%02X%02X] exce'
	DB	'eds virtual device track size', 0aH, 00H
	ORG $+1
$SG160872 DB	00H, 00H, 00H, 00H, 00H, 01H, 00H
	ORG $+1
$SG160873 DB	00H, 00H, 00H, 01H, 01H, 00H
	ORG $+2
$SG160875 DB	'** HERCULES **', 00H
	ORG $+1
$SG160932 DB	'E', 00H
	ORG $+2
$SG160936 DB	'E', 00H
	ORG $+2
$SG160933 DB	'HHC02513%s File %s: read error at cyl[%04X/%d] head[%04X'
	DB	'/%d]', 0aH, 00H
	ORG $+2
$SG160937 DB	'HHC02514%s File %s: cyl[%04X/%d] head[%04X/%d]; invalid '
	DB	'track header %02X%02X%02X%02X%02X', 0aH, 00H
	ORG $+1
$SG160939 DB	'E', 00H
	ORG $+2
$SG160940 DB	'HHC02515%s File %s: cyl[%04X/%d] head[%04X/%d] rec[%02X/'
	DB	'%d] record not found', 0aH, 00H
	ORG $+2
$SG160944 DB	'E', 00H
	ORG $+2
$SG160947 DB	'E', 00H
	ORG $+2
$SG161007 DB	'HHC02517%s Error obtaining storage for %sDSCB: %s', 0aH, 00H
	ORG $+5
$SG160945 DB	'HHC02516%s File %s: cyl[%04X/%d] head[%04X/%d] rec[%02X/'
	DB	'%d] unmatched KL/DL', 0aH, 00H
	ORG $+3
$SG160948 DB	'HHC02513%s File %s: read error at cyl[%04X/%d] head[%04X'
	DB	'/%d]', 0aH, 00H
	ORG $+2
$SG160949 DB	'I', 00H
	ORG $+2
$SG161006 DB	'E', 00H
	ORG $+2
$SG161055 DB	'HHC02517%s Error obtaining storage for %sDSCB: %s', 0aH, 00H
	ORG $+5
$SG160950 DB	'HHC02523%s Updating cyl[%04X/%d] head[%04X/%d] rec[%02X/'
	DB	'%d]; kl[%d] dl[%d]', 0aH, 00H
$SG161009 DB	'E', 00H
	ORG $+2
$SG161005 DB	'Format 1 ', 00H
	ORG $+2
$SG161054 DB	'E', 00H
	ORG $+2
$SG161010 DB	'HHC02518%s Internal error: DSCB count exceeds MAXDSCB of'
	DB	' %d', 0aH, 00H
	ORG $+3
$SG161011 DB	'HERCULES', 00H
	ORG $+3
$SG161057 DB	'E', 00H
	ORG $+2
$SG161053 DB	'Format 4 ', 00H
	ORG $+2
$SG161074 DB	'E', 00H
	ORG $+2
$SG161058 DB	'HHC02518%s Internal error: DSCB count exceeds MAXDSCB of'
	DB	' %d', 0aH, 00H
	ORG $+3
$SG161073 DB	'Format 5 ', 00H
	ORG $+2
$SG161077 DB	'E', 00H
	ORG $+2
$SG161075 DB	'HHC02517%s Error obtaining storage for %sDSCB: %s', 0aH, 00H
	ORG $+1
$SG161151 DB	's', 00H
	ORG $+2
$SG161078 DB	'HHC02518%s Internal error: DSCB count exceeds MAXDSCB of'
	DB	' %d', 0aH, 00H
	ORG $+3
$SG161152 DB	'E', 00H
	ORG $+6
$SG161153 DB	'HHC02519%s VTOC requires %d track%s; current allocation '
	DB	'is too small', 0aH, 00H
	ORG $+2
$SG161155 DB	'VTOC', 00H
	ORG $+3
$SG161156 DB	'E', 00H
	ORG $+2
$SG161159 DB	's', 00H
	ORG $+2
$SG161157 DB	'HHC02530%s Error reading %s at cyl[%04X/%d] head[%04X/%d'
	DB	']', 0aH, 00H
	ORG $+1
$SG161160 DB	'I', 00H
	ORG $+2
$SG161179 DB	'track', 00H
	ORG $+2
$SG161161 DB	'HHC02524%s VTOC starts at cyl[%04X/%d] head[%04X/%d] and'
	DB	' is %d track%s', 0aH, 00H
$SG161168 DB	'I', 00H
	ORG $+6
$SG161169 DB	'HHC02525%s Format %d DSCB CCHHR[%04X%04X%02X] (TTR[%04X%'
	DB	'02X]) %s', 0aH, 00H
	ORG $+2
$SG161173 DB	'I', 00H
	ORG $+2
$SG161195 DB	'INMDIR', 00H
	ORG $+1
$SG161174 DB	'HHC02525%s Format %d DSCB CCHHR[%04X%04X%02X] (TTR[%04X%'
	DB	'02X]) %s', 0aH, 00H
	ORG $+2
$SG161180 DB	'E', 00H
	ORG $+2
$SG161181 DB	'HHC02530%s Error reading %s at cyl[%04X/%d] head[%04X/%d'
	DB	']', 0aH, 00H
	ORG $+1
$SG161283 DB	'E', 00H
	ORG $+2
$SG161189 DB	'INMDDNAM', 00H
	ORG $+3
$SG161241 DB	'INMFFM', 00H
	ORG $+1
$SG161285 DB	'I', 00H
	ORG $+2
$SG161191 DB	'INMDSNAM', 00H
	ORG $+3
$SG161288 DB	0aH, 00H
	ORG $+2
$SG161193 DB	'INMMEMBR', 00H
	ORG $+3
$SG161289 DB	'E', 00H
	ORG $+2
$SG161197 DB	'INMEXPDT', 00H
	ORG $+3
$SG161292 DB	0aH, 00H
	ORG $+2
$SG161199 DB	'INMTERM', 00H
$SG161201 DB	'INMBLKSZ', 00H
	ORG $+3
$SG161293 DB	'E', 00H
	ORG $+2
$SG161203 DB	'INMDSORG', 00H
	ORG $+3
$SG161296 DB	0aH, 00H
	ORG $+2
$SG161205 DB	'INMLRECL', 00H
	ORG $+3
$SG161297 DB	'E', 00H
	ORG $+2
$SG161207 DB	'INMRECFM', 00H
	ORG $+3
$SG161300 DB	0aH, 09H, 09H, 09H, 09H, ' ', 00H
	ORG $+1
$SG161307 DB	0aH, 00H
	ORG $+2
$SG161209 DB	'INMTNODE', 00H
	ORG $+3
$SG161301 DB	'%04X ', 00H
	ORG $+2
$SG161329 DB	'E', 00H
	ORG $+2
$SG161211 DB	'INMTUID', 00H
$SG161213 DB	'INMFNODE', 00H
	ORG $+3
$SG161304 DB	'%2.2X', 00H
	ORG $+2
$SG161333 DB	'E', 00H
	ORG $+2
$SG161215 DB	'INMFUID', 00H
$SG161217 DB	'INMLREF', 00H
$SG161219 DB	'INMLCHG', 00H
$SG161221 DB	'INMCREAT', 00H
	ORG $+3
$SG161337 DB	'E', 00H
	ORG $+2
$SG161223 DB	'INMFVERS', 00H
	ORG $+3
$SG161341 DB	'E', 00H
	ORG $+2
$SG161225 DB	'INMFTIME', 00H
	ORG $+3
$SG161344 DB	'E', 00H
	ORG $+2
$SG161227 DB	'INMTTIME', 00H
	ORG $+3
$SG161348 DB	'E', 00H
	ORG $+2
$SG161229 DB	'INMFACK', 00H
$SG161231 DB	'INMERRCD', 00H
	ORG $+3
$SG161372 DB	'E', 00H
	ORG $+2
$SG161233 DB	'INMUTILN', 00H
	ORG $+3
$SG161378 DB	'E', 00H
	ORG $+2
$SG161235 DB	'INMUSERP', 00H
	ORG $+3
$SG161383 DB	'E', 00H
	ORG $+2
$SG161237 DB	'INMRECCT', 00H
	ORG $+3
$SG161387 DB	'E', 00H
	ORG $+2
$SG161239 DB	'INMSIZE', 00H
$SG161243 DB	'INMNUMF', 00H
$SG161245 DB	'INMTYPE', 00H
$SG161246 DB	'????????', 00H
	ORG $+3
$SG161440 DB	'I', 00H
	ORG $+2
$SG161284 DB	'HHC02531%s Incomplete text unit', 0aH, 00H
	ORG $+3
$SG161443 DB	'E', 00H
	ORG $+2
$SG161286 DB	'HHC02526%s ', 09H, '+%04X %-8.8s %04X %04X', 00H
	ORG $+1
$SG161458 DB	'I', 00H
	ORG $+2
$SG161290 DB	'HHC02532%s Too many fields in text unit', 0aH, 00H
	ORG $+3
$SG161460 DB	'I', 00H
	ORG $+2
$SG161294 DB	'HHC02531%s Incomplete text unit', 0aH, 00H
	ORG $+3
$SG161478 DB	'E', 00H
	ORG $+2
$SG161298 DB	'HHC02531%s Incomplete text unit', 0aH, 00H
	ORG $+3
$SG161496 DB	'E', 00H
	ORG $+2
$SG161303 DB	'%-16.16s %-8.8s', 0aH, 09H, 09H, 09H, 09H, '      ', 00H
	ORG $+1
$SG161499 DB	0caH, 'm', 0fH, 00H
$SG161306 DB	'%-16.16s %-8.8s', 00H
$SG161328 DB	'Unexpected end of file', 00H
	ORG $+1
$SG161330 DB	'HHC02533%s File %s: read error: %s', 0aH, 00H
$SG161500 DB	'E', 00H
	ORG $+2
$SG161334 DB	'HHC02534%s File %s: invalid segment header: %02X%02X', 0aH
	DB	00H
	ORG $+2
$SG161338 DB	'HHC02535%s File %s: first segment indicator expected', 0aH
	DB	00H
	ORG $+2
$SG161342 DB	'HHC02536%s File %s: first segment indicator not expected'
	DB	0aH, 00H
	ORG $+2
$SG161503 DB	'E', 00H
	ORG $+2
$SG161345 DB	'HHC02537%s File %s: control record indicator mismatch', 0aH
	DB	00H
	ORG $+1
$SG161347 DB	'Unexpected end of file', 00H
	ORG $+1
$SG161349 DB	'HHC02533%s File %s: read error: %s', 0aH, 00H
$SG161505 DB	'I', 00H
	ORG $+2
$SG161371 DB	'Unexpected end of file', 00H
	ORG $+1
$SG161373 DB	'HHC02533%s File %s: read error: %s', 0aH, 00H
$SG161507 DB	'I', 00H
	ORG $+2
$SG161377 DB	'Unexpected end of file', 00H
	ORG $+1
$SG161379 DB	'HHC02533%s File %s: read error: %s', 0aH, 00H
$SG161509 DB	'I', 00H
	ORG $+2
$SG161382 DB	'Unexpected end of file', 00H
	ORG $+1
$SG161384 DB	'HHC02533%s File %s: read error: %s', 0aH, 00H
$SG161528 DB	'E', 00H
	ORG $+2
$SG161386 DB	'Unexpected end of file', 00H
	ORG $+1
$SG161388 DB	'HHC02533%s File %s: read error: %s', 0aH, 00H
$SG161532 DB	'E', 00H
	ORG $+2
$SG161441 DB	'HHC02527%s File number: %d', 0aH, 00H
$SG161534 DB	'I', 00H
	ORG $+2
$SG161444 DB	'HHC02538%s Invalid text unit at offset %04X', 0aH, 00H
	ORG $+3
$SG161457 DB	'IEBCOPY', 00H
$SG161459 DB	'HHC02528%s File[%04u]: DSNAME=%s', 0aH, 00H
	ORG $+6
$SG161479 DB	'HHC02538%s Invalid text unit at offset %04X', 0aH, 00H
	ORG $+3
$SG161501 DB	'HHC02540%s COPYR%d header identifier not correct', 0aH, 00H
	ORG $+6
$SG161461 DB	'HHC02529%s             DSORG=%s RECFM=%s LRECL=%d BLKSIZ'
	DB	'E=%d KEYLEN=%d DIRBLKS=%d', 0aH, 00H
	ORG $+1
$SG161576 DB	'I', 00H
	ORG $+2
$SG161497 DB	'HHC02539%s COPYR%d record length is invalid', 0aH, 00H
	ORG $+3
$SG161504 DB	'HHC02541%s COPYR%d unload format is unsupported', 0aH, 00H
	ORG $+7
$SG161506 DB	'HHC02550%s Original dataset: DSORG=%s RECFM=%s LRECL=%d '
	DB	'BLKSIZE=%d KEYLEN=%d', 0aH, 00H
	ORG $+2
$SG161508 DB	'HHC02551%s Dataset was unloaded from device type %02X%02'
	DB	'X%02X%02X (%s)', 0aH, 00H
$SG161510 DB	'HHC02552%s Original device was cyls[%04X/%d], heads[%04X'
	DB	'/%d]', 0aH, 00H
	ORG $+2
$SG161529 DB	'HHC02539%s COPYR%d record length is invalid', 0aH, 00H
	ORG $+3
$SG161533 DB	'HHC02542%s Invalid number of extents %d', 0aH, 00H
	ORG $+7
$SG161577 DB	'HHC02554%s End of directory', 0aH, 00H
	ORG $+3
$SG161579 DB	'E', 00H
	ORG $+6
$SG161535 DB	'HHC02553%s Extent %d: Begin CCHH[%04X%04X] End CCHH[%04X'
	DB	'%04X] Tracks=[%04X/%d]', 0aH, 00H
$SG161580 DB	'HHC02543%s Invalid directory block record length', 0aH, 00H
	ORG $+2
$SG161584 DB	'E', 00H
	ORG $+2
$SG161582 DB	'malloc()', 00H
	ORG $+3
$SG161587 DB	'E', 00H
	ORG $+2
$SG161583 DB	'a directory block', 00H
	ORG $+2
$SG161591 DB	'E', 00H
	ORG $+2
$SG161585 DB	'HHC02544%s Storage allocation for %s using %s failed: %s'
	DB	0aH, 00H
	ORG $+6
$SG161588 DB	'HHC02545%s Internal error: Number of directory blocks ex'
	DB	'ceeds MAXDBLK of %d', 0aH, 00H
	ORG $+3
$SG161592 DB	'HHC02546%s Invalid directory block byte count', 0aH, 00H
	ORG $+1
$SG161594 DB	' Alias', 00H
	ORG $+1
$SG161595 DB	'Member', 00H
	ORG $+1
$SG161596 DB	'I', 00H
	ORG $+2
$SG161627 DB	'I', 00H
	ORG $+2
$SG161597 DB	'HHC02555%s %s %-8.8s TTR[%02X%02X%02X] ', 00H
$SG161599 DB	'Userdata=', 00H
	ORG $+2
$SG161629 DB	'I', 00H
	ORG $+2
$SG161604 DB	'%-16.16s %-8.8s', 0aH, '  ', 00H
	ORG $+1
$SG161688 DB	'I', 00H
	ORG $+2
$SG161605 DB	'%-16.16s %-16.16s %16.16s %-24.24s', 0aH, '  ', 00H
	ORG $+2
$SG161606 DB	'%2.2X', 00H
	ORG $+2
$SG161610 DB	'%-16.16s %-8.8s', 0aH, 00H
	ORG $+3
$SG161691 DB	'E', 00H
	ORG $+2
$SG161611 DB	'%-16.16s %-16.16s %-16.16s %-24.24s', 0aH, 00H
	ORG $+3
$SG161692 DB	'HHC02547%s File %s: read error at cyl[%04X/%d] head[%04X'
	DB	'/%d]', 0aH, 00H
	ORG $+2
$SG161748 DB	'HHC02546%s Invalid directory block byte count', 0aH, 00H
	ORG $+1
$SG161868 DB	'open()', 00H
	ORG $+1
$SG161628 DB	'HHC02556%s Member %s TTR[%02X%02X%02X] replaced by TTR[%'
	DB	'02X%02X%02X]', 0aH, 00H
	ORG $+2
$SG161630 DB	'HHC02557%s Member %s TTR[%02X%02X%02X] not found in data'
	DB	'set', 0aH, 00H
	ORG $+3
$SG161695 DB	'E', 00H
	ORG $+6
$SG161689 DB	'HHC02558%s Member %s Updating note list for member at TT'
	DB	'R[%04X%02X] CCHHR[%04X%04X%02X]', 0aH, 00H
	ORG $+7
$SG161696 DB	'HHC02548%s File %s: cyl[%04X/%d] head[%04X/%d] invalid t'
	DB	'rack header %02X%02X%02X%02X%02X', 0aH, 00H
	ORG $+2
$SG161698 DB	'E', 00H
	ORG $+2
$SG161699 DB	'HHC02549%s File %s: cyl[%04X/%d] head[%04X/%d] rec[%02X/'
	DB	'%d] note list record not found', 0aH, 00H
$SG161702 DB	'E', 00H
	ORG $+6
$SG161703 DB	'HHC02559%s Member %s Note list at cyl[%04X/%d] head[%04X'
	DB	'/%d] rec[%02X/%d] dlen[%d] is too short for %d TTRs', 0aH, 00H
	ORG $+3
$SG161706 DB	'E', 00H
	ORG $+2
$SG161708 DB	'I', 00H
	ORG $+2
$SG161707 DB	'HHC02547%s File %s: read error at cyl[%04X/%d] head[%04X'
	DB	'/%d]', 0aH, 00H
	ORG $+2
$SG161870 DB	'HHC02468%s File %s; %s error: %s', 0aH, 00H
	ORG $+6
$SG161709 DB	'HHC02523%s Updating cyl[%04X/%d] head[%04X/%d] rec[%02X/'
	DB	'%d]; kl[%d] dl[%d]', 0aH, 00H
$SG161747 DB	'E', 00H
	ORG $+2
$SG161869 DB	'E', 00H
	ORG $+2
$SG161874 DB	'E', 00H
	ORG $+2
$SG161872 DB	'malloc()', 00H
	ORG $+3
$SG161879 DB	'E', 00H
	ORG $+2
$SG161873 DB	'input buffer', 00H
	ORG $+3
$SG161875 DB	'HHC02544%s Storage allocation for %s using %s failed: %s'
	DB	0aH, 00H
	ORG $+2
$SG161884 DB	'E', 00H
	ORG $+2
$SG161877 DB	'malloc()', 00H
	ORG $+3
$SG161886 DB	'I', 00H
	ORG $+2
$SG161878 DB	'directory block array', 00H
	ORG $+2
$SG161880 DB	'HHC02544%s Storage allocation for %s using %s failed: %s'
	DB	0aH, 00H
	ORG $+2
$SG161895 DB	'I', 00H
	ORG $+2
$SG161882 DB	'malloc()', 00H
	ORG $+3
$SG161898 DB	'INMR06', 00H
	ORG $+1
$SG161908 DB	'I', 00H
	ORG $+2
$SG161883 DB	'TTR table', 00H
	ORG $+2
$SG161901 DB	'INMR02', 00H
	ORG $+1
$SG161910 DB	'I', 00H
	ORG $+2
$SG161885 DB	'HHC02544%s Storage allocation for %s using %s failed: %s'
	DB	0aH, 00H
	ORG $+2
$SG161905 DB	'INMR03', 00H
	ORG $+1
$SG161921 DB	'E', 00H
	ORG $+2
$SG161887 DB	'HHC02560%s File %s: Processing', 0aH, 00H
$SG161896 DB	'HHC02561%s Control record: %s len[%d]', 0aH, 00H
	ORG $+1
$SG161906 DB	'(selected)', 00H
	ORG $+1
$SG161923 DB	'I', 00H
	ORG $+2
$SG161907 DB	'(not selected)', 00H
	ORG $+1
$SG161909 DB	'HHC02562%s File number:    %d %s', 0aH, 00H
	ORG $+2
$SG161930 DB	'E', 00H
	ORG $+2
$SG161911 DB	'HHC02563%s Data record:    len[%d]', 0aH, 00H
$SG161933 DB	'W', 00H
	ORG $+2
$SG161920 DB	'write_block()', 00H
	ORG $+2
$SG161922 DB	'HHC02570%s File %s: %s error: input record CCHHR[%04X%04'
	DB	'X%02X] (TTR[%04X%02X]) kl[%d] dl[%d]', 0aH, 00H
	ORG $+2
$SG161924 DB	'HHC02564%s Input record:   CCHHR[%04X%04X%02X] (TTR[%04X'
	DB	'%02X]) kl[%d] dl[%d]', 0aH, 'HHC02564I relocated to:   CCHHR['
	DB	'%04X%04X%02X] (TTR[%04X%02X])', 0aH, 00H
$SG162024 DB	'I', 00H
	ORG $+2
$SG161931 DB	'HHC02571%s Internal error: TTR count exceeds MAXTTR of %'
	DB	'd', 0aH, 00H
	ORG $+5
$SG161934 DB	'HHC02572%s File %s: XMIT utility file is not in IEBCOPY '
	DB	'format; file is not loaded', 0aH, 00H
$SG162022 DB	'SYS1', 00H
	ORG $+7
?sys1name@?1??cvol_initialize@@9@9 DQ FLAT:$SG162014	; `cvol_initialize'::`2'::sys1name
	DQ	FLAT:$SG162015
	DQ	FLAT:$SG162016
	DQ	FLAT:$SG162017
	DQ	FLAT:$SG162018
	DQ	FLAT:$SG162019
	DQ	FLAT:$SG162020
	DQ	FLAT:$SG162021
$SG162025 DB	'HHC02565%s Catalog block:  cyl[%04X/%d] head[%04X/%d] re'
	DB	'c[%02X/%d]', 0aH, 00H
$SG162028 DB	'I', 00H
	ORG $+2
$SG162178 DB	'open()', 00H
	ORG $+1
$SG162029 DB	'HHC02565%s Catalog block:  cyl[%04X/%d] head[%04X/%d] re'
	DB	'c[%02X/%d]', 0aH, 00H
$SG162032 DB	'I', 00H
	ORG $+2
$SG162180 DB	'HHC02468%s File %s; %s error: %s', 0aH, 00H
	ORG $+6
$SG162033 DB	'HHC02565%s Catalog block:  cyl[%04X/%d] head[%04X/%d] re'
	DB	'c[%02X/%d]', 0aH, 00H
$SG162103 DB	'I', 00H
	ORG $+2
$SG162182 DB	'fstat()', 00H
$SG162104 DB	'HHC02566%s DIP complete:   cyl[%04X/%d] head[%04X/%d] re'
	DB	'c[%02X/%d]', 0aH, 00H
$SG162163 DB	'E', 00H
	ORG $+2
$SG162184 DB	'HHC02468%s File %s; %s error: %s', 0aH, 00H
	ORG $+6
$SG162164 DB	'HHC02573%s File %s: invalid dsorg[0x%02X] for SEQ proces'
	DB	'sing; dsorg must be PS or DA', 0aH, 00H
	ORG $+2
$SG162166 DB	'E', 00H
	ORG $+6
$SG162167 DB	'HHC02574%s File %s: invalid recfm[0x%02X] for SEQ proces'
	DB	'sing; recfm must be F or FB', 0aH, 00H
	ORG $+3
$SG162172 DB	'E', 00H
	ORG $+6
$SG162173 DB	'HHC02575%s File %s: invalid lrecl[%d] or blksize[%d] for'
	DB	' SEQ processing', 0aH, 00H
	ORG $+3
$SG162175 DB	'E', 00H
	ORG $+2
$SG162176 DB	'HHC02576%s File %s: invalid keyln[%d] for SEQ processing'
	DB	'; keyln must be 0 for blocked', 0aH, 00H
	ORG $+1
$SG162179 DB	'E', 00H
	ORG $+2
$SG162183 DB	'E', 00H
	ORG $+2
$SG162186 DB	'E', 00H
	ORG $+2
$SG162189 DB	'read()', 00H
	ORG $+1
$SG162190 DB	'E', 00H
	ORG $+2
$SG162187 DB	'HHC02547%s File %s: read error at cyl[%04X/%d] head[%04X'
	DB	'/%d]', 0aH, 00H
	ORG $+2
$SG162191 DB	'HHC02468%s File %s; %s error: %s', 0aH, 00H
	ORG $+2
$SG162277 DB	'E', 00H
	ORG $+2
$SG162276 DB	'line[%d] fgets()', 00H
	ORG $+3
$SG162284 DB	'E', 00H
	ORG $+2
$SG162278 DB	'HHC02468%s File %s; %s error: %s', 0aH, 00H
	ORG $+2
$SG162286 DB	' ', 09H, 0aH, 0bH, 0cH, 0dH, 00H
	ORG $+1
$SG162287 DB	'I', 00H
	ORG $+2
$SG162280 DB	'IPOS=%lld', 0aH, 00H
	ORG $+1
$SG162360 DB	' ', 09H, 00H
	ORG $+1
$SG162285 DB	'HHC02577%s File %s: line[%04d] error: line length is inv'
	DB	'alid', 0aH, 00H
	ORG $+2
$SG162288 DB	'HHC02567%s File %s[%04d]: %s', 0aH, 00H
	ORG $+2
$SG162361 DB	' ', 09H, 00H
	ORG $+1
$SG162365 DB	'DSNAME', 00H
	ORG $+1
$SG162366 DB	'E', 00H
	ORG $+2
$SG162367 DB	'HHC02578%s %s missing', 0aH, 00H
	ORG $+1
$SG162369 DB	'Initialization method', 00H
	ORG $+2
$SG162370 DB	'E', 00H
	ORG $+2
$SG162377 DB	'VS', 00H
	ORG $+1
$SG162371 DB	'HHC02578%s %s missing', 0aH, 00H
	ORG $+1
$SG162374 DB	'XMIT', 00H
	ORG $+3
$SG162380 DB	'EMPTY', 00H
	ORG $+2
$SG162383 DB	'DIP', 00H
$SG162386 DB	'CVOL', 00H
	ORG $+3
$SG162389 DB	'VTOC', 00H
	ORG $+3
$SG162392 DB	'SEQ', 00H
$SG162393 DB	'E', 00H
	ORG $+2
$SG162397 DB	' ', 09H, 00H
	ORG $+1
$SG162394 DB	'HHC02579%s Initialization method %s is invalid', 0aH, 00H
$SG162399 DB	'E', 00H
	ORG $+2
$SG162401 DB	' ', 09H, 00H
	ORG $+1
$SG162400 DB	'HHC02580%s Initialization file name missing', 0aH, 00H
	ORG $+3
$SG162405 DB	'CYL', 00H
$SG162408 DB	'TRK', 00H
$SG162409 DB	'E', 00H
	ORG $+2
$SG162411 DB	' ', 09H, 00H
	ORG $+1
$SG162410 DB	'HHC02581%s Unit of allocation %s is invalid', 0aH, 00H
	ORG $+3
$SG162414 DB	'%u%c', 00H
	ORG $+3
$SG162415 DB	'Primary', 00H
$SG162416 DB	'E', 00H
	ORG $+2
$SG162418 DB	' ', 09H, 00H
	ORG $+1
$SG162417 DB	'HHC02582%s %s allocation of %s %sS is invalid', 0aH, 00H
	ORG $+1
$SG162421 DB	'%u%c', 00H
	ORG $+3
$SG162422 DB	'Secondary', 00H
	ORG $+2
$SG162423 DB	'E', 00H
	ORG $+2
$SG162424 DB	'HHC02582%s %s allocation of %s %sS is invalid', 0aH, 00H
	ORG $+1
$SG162425 DB	' ', 09H, 00H
	ORG $+1
$SG162428 DB	'%u%c', 00H
	ORG $+3
$SG162429 DB	'E', 00H
	ORG $+2
$SG162430 DB	'HHC02583%s Directory space %s is invalid', 0aH, 00H
	ORG $+2
$SG162431 DB	' ', 09H, 00H
	ORG $+1
$SG162435 DB	'IS', 00H
	ORG $+1
$SG162438 DB	'PS', 00H
	ORG $+1
$SG162441 DB	'DA', 00H
	ORG $+1
$SG162444 DB	'PO', 00H
	ORG $+1
$SG162445 DB	'E', 00H
	ORG $+2
$SG162447 DB	' ', 09H, 00H
	ORG $+1
$SG162446 DB	'HHC02584%s Dataset organization (DSORG) %s is invalid', 0aH
	DB	00H
	ORG $+1
$SG162451 DB	'F', 00H
	ORG $+2
$SG162454 DB	'FB', 00H
	ORG $+1
$SG162457 DB	'FBS', 00H
$SG162460 DB	'V', 00H
	ORG $+2
$SG162463 DB	'VB', 00H
	ORG $+1
$SG162466 DB	'VBS', 00H
$SG162469 DB	'U', 00H
	ORG $+2
$SG162470 DB	'E', 00H
	ORG $+2
$SG162471 DB	'HHC02585%s Record format (RECFM) %s is invalid', 0aH, 00H
$SG162472 DB	' ', 09H, 00H
	ORG $+1
$SG162476 DB	'%u%c', 00H
	ORG $+3
$SG162477 DB	'E', 00H
	ORG $+2
$SG162478 DB	'HHC02586%s Logical record length (LRECL) %s is invalid', 0aH
	DB	00H
$SG162479 DB	' ', 09H, 00H
	ORG $+1
$SG162483 DB	'%u%c', 00H
	ORG $+3
$SG162484 DB	'E', 00H
	ORG $+2
$SG162485 DB	'HHC02587%s Block size (BLKSIZE) %s is invalid', 0aH, 00H
	ORG $+1
$SG162486 DB	' ', 09H, 00H
	ORG $+1
$SG162490 DB	'%u%c', 00H
	ORG $+3
$SG162491 DB	'E', 00H
	ORG $+2
$SG162492 DB	'HHC02588%s Key Length (KEYLEN) %s is invalid', 0aH, 00H
	ORG $+2
$SG162587 DB	'malloc()', 00H
	ORG $+3
$SG162589 DB	'E', 00H
	ORG $+2
$SG162588 DB	'DSCB pointer array', 00H
	ORG $+1
$SG162596 DB	'E', 00H
	ORG $+2
$SG162590 DB	'HHC02544%s Storage allocation for %s using %s failed: %s'
	DB	0aH, 00H
	ORG $+2
$SG162599 DB	'I', 00H
	ORG $+2
$SG162597 DB	'HHC02569%s File %s: line[%04d] error: statement is inval'
	DB	'id', 0aH, 00H
$SG162618 DB	's', 00H
	ORG $+2
$SG162626 DB	'****FREE SPACE****', 00H
	ORG $+5
$SG162600 DB	'HHC02568%s Creating dataset %-44s at cyl[%04X/%d] head[%'
	DB	'04X/%d]', 0aH, 00H
	ORG $+3
$SG162619 DB	'I', 00H
	ORG $+2
$SG162620 DB	'HHC02589%s Dataset %-44s contains %d track%s', 0aH, 00H
	ORG $+2
$SG162627 DB	'I', 00H
	ORG $+6
$SG162628 DB	'HHC02568%s Creating dataset %-44s at cyl[%04X/%d] head[%'
	DB	'04X/%d]', 0aH, 00H
	ORG $+3
$SG162634 DB	'W', 00H
	ORG $+2
$SG162631 DB	'OUTCYL=%d', 0aH, 00H
	ORG $+1
$SG162636 DB	'I', 00H
	ORG $+2
$SG162635 DB	'HHC02590%s Volume exceeds %d cylinders', 0aH, 00H
$SG162637 DB	'HHC02591%s File %s: total cylinders written was %d', 0aH
	DB	00H
$SG162638 DB	'I', 00H
	ORG $+2
$SG162639 DB	'HHC02592%s VTOC pointer [%02X%02X%02X%02X%02X] updated', 0aH
	DB	00H
$SG162641 DB	'E', 00H
	ORG $+2
$SG162710 DB	'0', 00H
	ORG $+2
$SG162642 DB	'HHC02593%s VOL1 record not readable or locatable', 0aH, 00H
	ORG $+2
$SG162713 DB	'z', 00H
	ORG $+2
$SG162706 DB	'Build 64-bit DASD from TSO XMIT files', 00H
	ORG $+2
$SG162707 DB	'dasdload64', 00H
	ORG $+1
$SG162716 DB	'bz2', 00H
$SG162719 DB	'a', 00H
	ORG $+2
$SG162722 DB	'lfs', 00H
$SG162725 DB	'b', 00H
	ORG $+2
$SG162728 DB	'm', 00H
	ORG $+2
$SG162738 DB	'%u%c', 00H
	ORG $+3
$SG162739 DB	'r', 00H
	ORG $+2
$SG162742 DB	'E', 00H
	ORG $+2
$SG162741 DB	'fopen()', 00H
$SG162743 DB	'HHC02468%s File %s; %s error: %s', 0aH, 00H
	ORG $+2
$SG162746 DB	'E', 00H
	ORG $+2
$SG162747 DB	'HHC02500%s Volume serial statement missing from %s', 0aH
	DB	00H
$SG162748 DB	' ', 09H, 00H
	ORG $+1
$SG162749 DB	' ', 09H, 00H
	ORG $+1
$SG162750 DB	' ', 09H, 00H
	ORG $+1
$SG162751 DB	' ', 09H, 00H
	ORG $+1
$SG162754 DB	'E', 00H
	ORG $+2
$SG162755 DB	'HHC02501%s Volume serial %s is invalid; %s line %d', 0aH
	DB	00H
$SG162757 DB	'E', 00H
	ORG $+2
$SG162758 DB	'HHC02502%s Device type %s is not recognized; %s line %d', 0aH
	DB	00H
	ORG $+3
$SG162761 DB	'*', 00H
	ORG $+2
$SG162763 DB	'%u%c', 00H
	ORG $+3
$SG162764 DB	'E', 00H
	ORG $+2
$SG162767 DB	'I', 00H
	ORG $+2
$SG162765 DB	'HHC02503%s Cylinder value %s is invalid; %s line %d', 0aH
	DB	00H
	ORG $+3
$SG162768 DB	'HHC02520%s Creating %4.4X volume %s: %u trks/cyl, %u byt'
	DB	'es/track', 0aH, 00H
	ORG $+2
$SG162773 DB	'E', 00H
	ORG $+2
$SG162770 DB	'REQCYLS=%d', 0aH, 00H
$SG162777 DB	'E', 00H
	ORG $+2
$SG162772 DB	'create_ckd64()', 00H
	ORG $+1
$SG162774 DB	'HHC02504%s Cannot create %s; %s failed', 0aH, 00H
$SG162776 DB	'open_ckd64_image()', 00H
	ORG $+1
$SG162780 DB	'E', 00H
	ORG $+2
$SG162778 DB	'HHC02504%s Cannot create %s; %s failed', 0aH, 00H
$SG162781 DB	'HHC02424%s Dasd image file format unsupported or unrecog'
	DB	'nized: %s', 0aH, 00H
	ORG $+1
$SG162783 DB	'I', 00H
	ORG $+2
$SG162784 DB	'HHC02521%s Loading %4.4X volume %s', 0aH, 00H
_DATA	ENDS
voltbl	SEGMENT
_volmd	DD	0ffffffffH
	DDSymXIndex: 	FLAT:main
	DD	01aH
	DD	0b26H
_volmd	DD	0ffffffffH
	DDSymXIndex: 	FLAT:process_control_file
	DD	027H
	DD	0febH
_volmd	DD	0ffffffffH
	DDSymXIndex: 	FLAT:read_ctrl_stmt
	DD	025H
	DD	025bH
_volmd	DD	0ffffffffH
	DDSymXIndex: 	FLAT:empty_initialize
	DD	02dH
	DD	042bH
_volmd	DD	0ffffffffH
	DDSymXIndex: 	FLAT:seq_initialize
	DD	02dH
	DD	0792H
_volmd	DD	0ffffffffH
	DDSymXIndex: 	FLAT:dip_initialize
	DD	02dH
	DD	077bH
_volmd	DD	0ffffffffH
	DDSymXIndex: 	FLAT:cvol_initialize
	DD	02dH
	DD	0d70H
_volmd	DD	0ffffffffH
	DDSymXIndex: 	FLAT:process_iebcopy_file
	DD	026H
	DD	01125H
_volmd	DD	0ffffffffH
	DDSymXIndex: 	FLAT:update_dirblk
	DD	025H
	DD	02d0H
_volmd	DD	0ffffffffH
	DDSymXIndex: 	FLAT:update_note_list
	DD	027H
	DD	062cH
_volmd	DD	0ffffffffH
	DDSymXIndex: 	FLAT:process_dirblk
	DD	026H
	DD	057fH
_volmd	DD	0ffffffffH
	DDSymXIndex: 	FLAT:process_inmrxx
	DD	01aH
	DD	0dcH
_volmd	DD	0ffffffffH
	DDSymXIndex: 	FLAT:process_inmr02
	DD	026H
	DD	0638H
_volmd	DD	0ffffffffH
	DDSymXIndex: 	FLAT:next_tu
	DD	025H
	DD	0493H
_volmd	DD	0ffffffffH
	DDSymXIndex: 	FLAT:write_vtoc
	DD	025H
	DD	0c24H
_volmd	DD	0ffffffffH
	DDSymXIndex: 	FLAT:update_block
	DD	027H
	DD	04a4H
_volmd	DD	0ffffffffH
	DDSymXIndex: 	FLAT:write_track_zero
	DD	02eH
	DD	07c6H
_volmd	DD	0ffffffffH
	DDSymXIndex: 	FLAT:read_ipl_text
	DD	022H
	DD	0305H
voltbl	ENDS
;	COMDAT xdata
xdata	SEGMENT
$unwind$fetch_hw_noswap DD 010901H
	DD	02209H
xdata	ENDS
xdata	SEGMENT
$unwind$localtime DD 010901H
	DD	04209H
$unwind$time DD	010901H
	DD	04209H
$unwind$argexit DD 021001H
	DD	0110110H
$unwind$info_msg DD 011701H
	DD	06217H
$unwind$make_int DD 010d01H
	DD	0220dH
$unwind$dsorg_name DD 010901H
	DD	04209H
$unwind$recfm_name DD 010901H
	DD	06209H
$unwind$dasd_name DD 010901H
	DD	02209H
$unwind$ucbtype_code DD 010901H
	DD	02209H
$unwind$calculate_ttr DD 011601H
	DD	06216H
$unwind$read_ipl_text DD 042a19H
	DD	0390118H
	DD	060107011H
	DD	imagerel __GSHandlerCheck
	DD	01b0H
$unwind$init_track DD 021801H
	DD	070147218H
$unwind$write_track DD 011801H
	DD	06218H
$unwind$write_block DD 041d01H
	DD	015011dH
	DD	060157016H
$unwind$write_track_zero DD 043619H
	DD	0101b0124H
	DD	060167017H
	DD	imagerel __GSHandlerCheck
	DD	080c0H
$unwind$update_block DD 042f19H
	DD	015011dH
	DD	060157016H
	DD	imagerel __GSHandlerCheck
	DD	090H
$unwind$build_format1_dscb DD 021801H
	DD	07014b218H
$unwind$build_format4_dscb DD 031601H
	DD	01a0116H
	DD	0700fH
$unwind$build_format5_dscb DD 020e01H
	DD	0700a720eH
$unwind$write_vtoc DD 032d19H
	DD	040011bH
	DD	07014H
	DD	imagerel __GSHandlerCheck
	DD	01f0H
$unwind$tu_name DD 010901H
	DD	02209H
$unwind$next_tu DD 032d19H
	DD	014011bH
	DD	07014H
	DD	imagerel __GSHandlerCheck
	DD	090H
$unwind$read_xmit_rec DD 011701H
	DD	0c217H
$unwind$read_vs_rec DD 011701H
	DD	0a217H
$unwind$process_inmr02 DD 042e19H
	DD	037011cH
	DD	060147015H
	DD	imagerel __GSHandlerCheck
	DD	01a8H
$unwind$process_inmrxx DD 022219H
	DD	0270110H
	DD	imagerel __GSHandlerCheck
	DD	0128H
$unwind$process_copyr1 DD 010d01H
	DD	0e20dH
$unwind$process_copyr2 DD 011201H
	DD	0c212H
$unwind$process_dirblk DD 042e19H
	DD	01f011cH
	DD	060147015H
	DD	imagerel __GSHandlerCheck
	DD	0e8H
$unwind$replace_ttr DD 031a01H
	DD	07016c21aH
	DD	06015H
$unwind$update_note_list DD 042f19H
	DD	099011dH
	DD	060157016H
	DD	imagerel __GSHandlerCheck
	DD	04b0H
$unwind$update_dirblk DD 022d19H
	DD	015011bH
	DD	imagerel __GSHandlerCheck
	DD	098H
$unwind$process_iebcopy_file DD 022e19H
	DD	063011cH
	DD	imagerel __GSHandlerCheck
	DD	0300H
$unwind$cvol_initialize DD 033519H
	DD	010200123H
	DD	07016H
	DD	imagerel __GSHandlerCheck
	DD	080f0H
$unwind$dip_initialize DD 033519H
	DD	0101e0123H
	DD	07016H
	DD	imagerel __GSHandlerCheck
	DD	080e0H
$unwind$seq_initialize DD 033519H
	DD	010440123H
	DD	07016H
	DD	imagerel __GSHandlerCheck
	DD	08210H
$unwind$empty_initialize DD 033519H
	DD	0101c0123H
	DD	07016H
	DD	imagerel __GSHandlerCheck
	DD	080d0H
$unwind$read_ctrl_stmt DD 022d19H
	DD	013011bH
	DD	imagerel __GSHandlerCheck
	DD	080H
$unwind$parse_ctrl_stmt DD 031c01H
	DD	014011cH
	DD	07015H
$unwind$process_control_file DD 042f19H
	DD	053011dH
	DD	060157016H
	DD	imagerel __GSHandlerCheck
	DD	0280H
$unwind$main DD	022219H
	DD	0690110H
	DD	imagerel __GSHandlerCheck
	DD	0330H
xdata	ENDS
;	COMDAT xdata
xdata	SEGMENT
$unwind$sscanf DD 011801H
	DD	06218H
xdata	ENDS
;	COMDAT xdata
xdata	SEGMENT
$unwind$_vsscanf_l DD 011801H
	DD	06218H
xdata	ENDS
;	COMDAT xdata
xdata	SEGMENT
$unwind$sprintf DD 011801H
	DD	06218H
xdata	ENDS
;	COMDAT xdata
xdata	SEGMENT
$unwind$_vsprintf_l DD 011801H
	DD	06218H
xdata	ENDS
;	COMDAT xdata
xdata	SEGMENT
$unwind$_vsnprintf_l DD 011801H
	DD	08218H
xdata	ENDS
;	COMDAT xdata
xdata	SEGMENT
$unwind$printf DD 011801H
	DD	06218H
xdata	ENDS
;	COMDAT xdata
xdata	SEGMENT
$unwind$vprintf DD 010e01H
	DD	0420eH
xdata	ENDS
;	COMDAT xdata
xdata	SEGMENT
$unwind$_vfprintf_l DD 011801H
	DD	06218H
xdata	ENDS
; Function compile flags: /Odtp
; File C:\papa\MyGit\hyperion-zvector\dasdload64.c
_TEXT	SEGMENT
comp$ = 112
devtype$ = 116
rc$ = 120
c$ = 124
outtrklv$ = 128
reqcyls$ = 132
volser$ = 136
outheads$ = 144
cfname$ = 152
stmtno$ = 160
devcyls$ = 164
ofname$ = 168
ckd$ = 176
cif$ = 184
altcylflag$ = 192
tv315 = 196
lfs$ = 200
outmaxdl$ = 204
flagMachinecheck$ = 208
flagECmode$ = 212
pgm$ = 216
strtok_str$ = 224
sdevsz$ = 232
cfp$ = 240
outhead$ = 248
outcyl$ = 252
sdevtp$ = 256
reltrk$ = 264
iplfnm$ = 272
stmt$ = 288
pathname$ = 544
__$ArrayPad$ = 816
argc$ = 848
argv$ = 856
main	PROC

; 4216 : {

$LN50:
  00000	48 89 54 24 10	 mov	 QWORD PTR [rsp+16], rdx
  00005	89 4c 24 08	 mov	 DWORD PTR [rsp+8], ecx
  00009	48 81 ec 48 03
	00 00		 sub	 rsp, 840		; 00000348H
  00010	48 8b 05 00 00
	00 00		 mov	 rax, QWORD PTR __security_cookie
  00017	48 33 c4	 xor	 rax, rsp
  0001a	48 89 84 24 30
	03 00 00	 mov	 QWORD PTR __$ArrayPad$[rsp], rax

; 4217 : char           *pgm;                    /* less any extension (.ext) */
; 4218 : int             rc = 0;                 /* Return code               */

  00022	c7 44 24 78 00
	00 00 00	 mov	 DWORD PTR rc$[rsp], 0

; 4219 : char           *cfname;                 /* -> Control file name      */
; 4220 : char           *ofname;                 /* -> Output file name       */
; 4221 : FILE           *cfp;                    /* Control file pointer      */
; 4222 : CIFBLK         *cif;                    /* -> CKD image block        */
; 4223 : CKDDEV         *ckd;                    /* -> CKD table entry        */
; 4224 : char           *volser;                 /* -> Volume serial (ASCIIZ) */
; 4225 : char           *sdevtp;                 /* -> Device type (ASCIIZ)   */
; 4226 : char           *sdevsz;                 /* -> Device size (ASCIIZ)   */
; 4227 : char           *iplfnm;                 /* -> IPL text file or NULL  */
; 4228 : BYTE            c;                      /* Character work area       */
; 4229 : U16             devtype;                /* Output device type        */
; 4230 : int             devcyls;                /* Default device size (cyls)*/
; 4231 : int             reqcyls;                /* Requested device size (cyls)
; 4232 :                                            or 0 = use minimum size   */
; 4233 : int             outheads;               /* Output device trks/cyl    */
; 4234 : int             outmaxdl;               /* Output device maximum size
; 4235 :                                            record data length value  */
; 4236 : int             outtrklv;               /* Output device track length
; 4237 :                                            of virtual device         */
; 4238 : int             reltrk;                 /* Output track number       */
; 4239 : int             outcyl;                 /* Output cylinder number    */
; 4240 : int             outhead;                /* Output head number        */
; 4241 : char            stmt[256];              /* Control file statement    */
; 4242 : int             stmtno;                 /* Statement number          */
; 4243 : BYTE            comp = 0xff;            /* Compression algoritm      */

  0002a	c6 44 24 70 ff	 mov	 BYTE PTR comp$[rsp], 255 ; 000000ffH

; 4244 : int             altcylflag = 0;         /* Alternate cylinders flag  */

  0002f	c7 84 24 c0 00
	00 00 00 00 00
	00		 mov	 DWORD PTR altcylflag$[rsp], 0

; 4245 : int             flagECmode = 1;         /* IPL PSW mode flag         */

  0003a	c7 84 24 d4 00
	00 00 01 00 00
	00		 mov	 DWORD PTR flagECmode$[rsp], 1

; 4246 : int             flagMachinecheck = 0;   /* IPL PSW machine check flag*/

  00045	c7 84 24 d0 00
	00 00 00 00 00
	00		 mov	 DWORD PTR flagMachinecheck$[rsp], 0

; 4247 : int             lfs = 0;                /* 1 = Large file            */

  00050	c7 84 24 c8 00
	00 00 00 00 00
	00		 mov	 DWORD PTR lfs$[rsp], 0

; 4248 : char            pathname[MAX_PATH];     /* cfname in host path format*/
; 4249 : char           *strtok_str = NULL;      /* last token position       */

  0005b	48 c7 84 24 e0
	00 00 00 00 00
	00 00		 mov	 QWORD PTR strtok_str$[rsp], 0

; 4250 : 
; 4251 :     INITIALIZE_UTILITY( UTILITY_NAME, UTILITY_DESC, &pgm );

  00067	48 8d 84 24 d8
	00 00 00	 lea	 rax, QWORD PTR pgm$[rsp]
  0006f	48 89 44 24 20	 mov	 QWORD PTR [rsp+32], rax
  00074	4c 8d 0d 00 00
	00 00		 lea	 r9, OFFSET FLAT:$SG162706
  0007b	4c 8d 05 00 00
	00 00		 lea	 r8, OFFSET FLAT:$SG162707
  00082	48 8b 94 24 58
	03 00 00	 mov	 rdx, QWORD PTR argv$[rsp]
  0008a	8b 8c 24 50 03
	00 00		 mov	 ecx, DWORD PTR argc$[rsp]
  00091	ff 15 00 00 00
	00		 call	 QWORD PTR __imp_initialize_utility
  00097	89 84 24 50 03
	00 00		 mov	 DWORD PTR argc$[rsp], eax

; 4252 : 
; 4253 :     /* Process optional arguments */
; 4254 :     for ( ; argc > 1 && argv[1][0] == '-'; argv++, argc--)

  0009e	eb 24		 jmp	 SHORT $LN4@main
$LN2@main:
  000a0	48 8b 84 24 58
	03 00 00	 mov	 rax, QWORD PTR argv$[rsp]
  000a8	48 83 c0 08	 add	 rax, 8
  000ac	48 89 84 24 58
	03 00 00	 mov	 QWORD PTR argv$[rsp], rax
  000b4	8b 84 24 50 03
	00 00		 mov	 eax, DWORD PTR argc$[rsp]
  000bb	ff c8		 dec	 eax
  000bd	89 84 24 50 03
	00 00		 mov	 DWORD PTR argc$[rsp], eax
$LN4@main:
  000c4	83 bc 24 50 03
	00 00 01	 cmp	 DWORD PTR argc$[rsp], 1
  000cc	0f 8e 0a 02 00
	00		 jle	 $LN3@main
  000d2	b8 08 00 00 00	 mov	 eax, 8
  000d7	48 6b c0 01	 imul	 rax, rax, 1
  000db	b9 01 00 00 00	 mov	 ecx, 1
  000e0	48 6b c9 00	 imul	 rcx, rcx, 0
  000e4	48 8b 94 24 58
	03 00 00	 mov	 rdx, QWORD PTR argv$[rsp]
  000ec	48 8b 04 02	 mov	 rax, QWORD PTR [rdx+rax]
  000f0	0f be 04 08	 movsx	 eax, BYTE PTR [rax+rcx]
  000f4	83 f8 2d	 cmp	 eax, 45			; 0000002dH
  000f7	0f 85 df 01 00
	00		 jne	 $LN3@main

; 4255 :     {
; 4256 :         if (strcmp("0", &argv[1][1]) == 0)

  000fd	b8 08 00 00 00	 mov	 eax, 8
  00102	48 6b c0 01	 imul	 rax, rax, 1
  00106	b9 01 00 00 00	 mov	 ecx, 1
  0010b	48 6b c9 01	 imul	 rcx, rcx, 1
  0010f	48 8b 94 24 58
	03 00 00	 mov	 rdx, QWORD PTR argv$[rsp]
  00117	48 03 0c 02	 add	 rcx, QWORD PTR [rdx+rax]
  0011b	48 8b c1	 mov	 rax, rcx
  0011e	48 8b d0	 mov	 rdx, rax
  00121	48 8d 0d 00 00
	00 00		 lea	 rcx, OFFSET FLAT:$SG162710
  00128	e8 00 00 00 00	 call	 strcmp
  0012d	85 c0		 test	 eax, eax
  0012f	75 0a		 jne	 SHORT $LN8@main

; 4257 :             comp = CCKD_COMPRESS_NONE;

  00131	c6 44 24 70 00	 mov	 BYTE PTR comp$[rsp], 0
  00136	e9 9c 01 00 00	 jmp	 $LN9@main
$LN8@main:

; 4258 : #ifdef CCKD_COMPRESS_ZLIB
; 4259 :         else if (strcmp("z", &argv[1][1]) == 0)

  0013b	b8 08 00 00 00	 mov	 eax, 8
  00140	48 6b c0 01	 imul	 rax, rax, 1
  00144	b9 01 00 00 00	 mov	 ecx, 1
  00149	48 6b c9 01	 imul	 rcx, rcx, 1
  0014d	48 8b 94 24 58
	03 00 00	 mov	 rdx, QWORD PTR argv$[rsp]
  00155	48 03 0c 02	 add	 rcx, QWORD PTR [rdx+rax]
  00159	48 8b c1	 mov	 rax, rcx
  0015c	48 8b d0	 mov	 rdx, rax
  0015f	48 8d 0d 00 00
	00 00		 lea	 rcx, OFFSET FLAT:$SG162713
  00166	e8 00 00 00 00	 call	 strcmp
  0016b	85 c0		 test	 eax, eax
  0016d	75 0a		 jne	 SHORT $LN10@main

; 4260 :             comp = CCKD_COMPRESS_ZLIB;

  0016f	c6 44 24 70 01	 mov	 BYTE PTR comp$[rsp], 1
  00174	e9 5e 01 00 00	 jmp	 $LN11@main
$LN10@main:

; 4261 : #endif
; 4262 : #ifdef CCKD_COMPRESS_BZIP2
; 4263 :         else if (strcmp("bz2", &argv[1][1]) == 0)

  00179	b8 08 00 00 00	 mov	 eax, 8
  0017e	48 6b c0 01	 imul	 rax, rax, 1
  00182	b9 01 00 00 00	 mov	 ecx, 1
  00187	48 6b c9 01	 imul	 rcx, rcx, 1
  0018b	48 8b 94 24 58
	03 00 00	 mov	 rdx, QWORD PTR argv$[rsp]
  00193	48 03 0c 02	 add	 rcx, QWORD PTR [rdx+rax]
  00197	48 8b c1	 mov	 rax, rcx
  0019a	48 8b d0	 mov	 rdx, rax
  0019d	48 8d 0d 00 00
	00 00		 lea	 rcx, OFFSET FLAT:$SG162716
  001a4	e8 00 00 00 00	 call	 strcmp
  001a9	85 c0		 test	 eax, eax
  001ab	75 0a		 jne	 SHORT $LN12@main

; 4264 :             comp = CCKD_COMPRESS_BZIP2;

  001ad	c6 44 24 70 02	 mov	 BYTE PTR comp$[rsp], 2
  001b2	e9 20 01 00 00	 jmp	 $LN13@main
$LN12@main:

; 4265 : #endif
; 4266 :         else if (strcmp("a", &argv[1][1]) == 0)

  001b7	b8 08 00 00 00	 mov	 eax, 8
  001bc	48 6b c0 01	 imul	 rax, rax, 1
  001c0	b9 01 00 00 00	 mov	 ecx, 1
  001c5	48 6b c9 01	 imul	 rcx, rcx, 1
  001c9	48 8b 94 24 58
	03 00 00	 mov	 rdx, QWORD PTR argv$[rsp]
  001d1	48 03 0c 02	 add	 rcx, QWORD PTR [rdx+rax]
  001d5	48 8b c1	 mov	 rax, rcx
  001d8	48 8b d0	 mov	 rdx, rax
  001db	48 8d 0d 00 00
	00 00		 lea	 rcx, OFFSET FLAT:$SG162719
  001e2	e8 00 00 00 00	 call	 strcmp
  001e7	85 c0		 test	 eax, eax
  001e9	75 10		 jne	 SHORT $LN14@main

; 4267 :             altcylflag = 1;

  001eb	c7 84 24 c0 00
	00 00 01 00 00
	00		 mov	 DWORD PTR altcylflag$[rsp], 1
  001f6	e9 dc 00 00 00	 jmp	 $LN15@main
$LN14@main:

; 4268 :         else if (strcmp("lfs", &argv[1][1]) == 0 && sizeof(off_t) > 4)

  001fb	b8 08 00 00 00	 mov	 eax, 8
  00200	48 6b c0 01	 imul	 rax, rax, 1
  00204	b9 01 00 00 00	 mov	 ecx, 1
  00209	48 6b c9 01	 imul	 rcx, rcx, 1
  0020d	48 8b 94 24 58
	03 00 00	 mov	 rdx, QWORD PTR argv$[rsp]
  00215	48 03 0c 02	 add	 rcx, QWORD PTR [rdx+rax]
  00219	48 8b c1	 mov	 rax, rcx
  0021c	48 8b d0	 mov	 rdx, rax
  0021f	48 8d 0d 00 00
	00 00		 lea	 rcx, OFFSET FLAT:$SG162722
  00226	e8 00 00 00 00	 call	 strcmp
  0022b	85 c0		 test	 eax, eax
  0022d	75 17		 jne	 SHORT $LN16@main
  0022f	33 c0		 xor	 eax, eax
  00231	83 f8 01	 cmp	 eax, 1
  00234	74 10		 je	 SHORT $LN16@main

; 4269 :             lfs = 1;

  00236	c7 84 24 c8 00
	00 00 01 00 00
	00		 mov	 DWORD PTR lfs$[rsp], 1
  00241	e9 91 00 00 00	 jmp	 $LN17@main
$LN16@main:

; 4270 :         else if (strcmp("b", &argv[1][1]) == 0)

  00246	b8 08 00 00 00	 mov	 eax, 8
  0024b	48 6b c0 01	 imul	 rax, rax, 1
  0024f	b9 01 00 00 00	 mov	 ecx, 1
  00254	48 6b c9 01	 imul	 rcx, rcx, 1
  00258	48 8b 94 24 58
	03 00 00	 mov	 rdx, QWORD PTR argv$[rsp]
  00260	48 03 0c 02	 add	 rcx, QWORD PTR [rdx+rax]
  00264	48 8b c1	 mov	 rax, rcx
  00267	48 8b d0	 mov	 rdx, rax
  0026a	48 8d 0d 00 00
	00 00		 lea	 rcx, OFFSET FLAT:$SG162725
  00271	e8 00 00 00 00	 call	 strcmp
  00276	85 c0		 test	 eax, eax
  00278	75 0d		 jne	 SHORT $LN18@main

; 4271 :             flagECmode = 0;

  0027a	c7 84 24 d4 00
	00 00 00 00 00
	00		 mov	 DWORD PTR flagECmode$[rsp], 0
  00285	eb 50		 jmp	 SHORT $LN19@main
$LN18@main:

; 4272 :         else if (strcmp("m", &argv[1][1]) == 0)

  00287	b8 08 00 00 00	 mov	 eax, 8
  0028c	48 6b c0 01	 imul	 rax, rax, 1
  00290	b9 01 00 00 00	 mov	 ecx, 1
  00295	48 6b c9 01	 imul	 rcx, rcx, 1
  00299	48 8b 94 24 58
	03 00 00	 mov	 rdx, QWORD PTR argv$[rsp]
  002a1	48 03 0c 02	 add	 rcx, QWORD PTR [rdx+rax]
  002a5	48 8b c1	 mov	 rax, rcx
  002a8	48 8b d0	 mov	 rdx, rax
  002ab	48 8d 0d 00 00
	00 00		 lea	 rcx, OFFSET FLAT:$SG162728
  002b2	e8 00 00 00 00	 call	 strcmp
  002b7	85 c0		 test	 eax, eax
  002b9	75 0d		 jne	 SHORT $LN20@main

; 4273 :             flagMachinecheck = 1;

  002bb	c7 84 24 d0 00
	00 00 01 00 00
	00		 mov	 DWORD PTR flagMachinecheck$[rsp], 1
  002c6	eb 0f		 jmp	 SHORT $LN21@main
$LN20@main:

; 4274 :         else argexit(0, pgm);

  002c8	48 8b 94 24 d8
	00 00 00	 mov	 rdx, QWORD PTR pgm$[rsp]
  002d0	33 c9		 xor	 ecx, ecx
  002d2	e8 00 00 00 00	 call	 argexit
$LN21@main:
$LN19@main:
$LN17@main:
$LN15@main:
$LN13@main:
$LN11@main:
$LN9@main:

; 4275 :     }

  002d7	e9 c4 fd ff ff	 jmp	 $LN2@main
$LN3@main:

; 4276 : 
; 4277 :     /* Check the number of arguments */
; 4278 :     if (argc < 3 || argc > 4)

  002dc	83 bc 24 50 03
	00 00 03	 cmp	 DWORD PTR argc$[rsp], 3
  002e4	7c 0a		 jl	 SHORT $LN23@main
  002e6	83 bc 24 50 03
	00 00 04	 cmp	 DWORD PTR argc$[rsp], 4
  002ee	7e 12		 jle	 SHORT $LN22@main
$LN23@main:

; 4279 :         argexit(4, pgm);

  002f0	48 8b 94 24 d8
	00 00 00	 mov	 rdx, QWORD PTR pgm$[rsp]
  002f8	b9 04 00 00 00	 mov	 ecx, 4
  002fd	e8 00 00 00 00	 call	 argexit
$LN22@main:

; 4280 : 
; 4281 :     /* The first argument is the control file name */
; 4282 :     cfname = argv[1];

  00302	b8 08 00 00 00	 mov	 eax, 8
  00307	48 6b c0 01	 imul	 rax, rax, 1
  0030b	48 8b 8c 24 58
	03 00 00	 mov	 rcx, QWORD PTR argv$[rsp]
  00313	48 8b 04 01	 mov	 rax, QWORD PTR [rcx+rax]
  00317	48 89 84 24 98
	00 00 00	 mov	 QWORD PTR cfname$[rsp], rax

; 4283 :     if (argv[1] == NULL || strlen(argv[1]) == 0)

  0031f	b8 08 00 00 00	 mov	 eax, 8
  00324	48 6b c0 01	 imul	 rax, rax, 1
  00328	48 8b 8c 24 58
	03 00 00	 mov	 rcx, QWORD PTR argv$[rsp]
  00330	48 83 3c 01 00	 cmp	 QWORD PTR [rcx+rax], 0
  00335	74 1f		 je	 SHORT $LN25@main
  00337	b8 08 00 00 00	 mov	 eax, 8
  0033c	48 6b c0 01	 imul	 rax, rax, 1
  00340	48 8b 8c 24 58
	03 00 00	 mov	 rcx, QWORD PTR argv$[rsp]
  00348	48 8b 0c 01	 mov	 rcx, QWORD PTR [rcx+rax]
  0034c	e8 00 00 00 00	 call	 strlen
  00351	48 85 c0	 test	 rax, rax
  00354	75 12		 jne	 SHORT $LN24@main
$LN25@main:

; 4284 :         argexit(1, pgm);

  00356	48 8b 94 24 d8
	00 00 00	 mov	 rdx, QWORD PTR pgm$[rsp]
  0035e	b9 01 00 00 00	 mov	 ecx, 1
  00363	e8 00 00 00 00	 call	 argexit
$LN24@main:

; 4285 : 
; 4286 :     /* The second argument is the DASD image file name */
; 4287 :     ofname = argv[2];

  00368	b8 08 00 00 00	 mov	 eax, 8
  0036d	48 6b c0 02	 imul	 rax, rax, 2
  00371	48 8b 8c 24 58
	03 00 00	 mov	 rcx, QWORD PTR argv$[rsp]
  00379	48 8b 04 01	 mov	 rax, QWORD PTR [rcx+rax]
  0037d	48 89 84 24 a8
	00 00 00	 mov	 QWORD PTR ofname$[rsp], rax

; 4288 :     if (argv[2] == NULL || strlen(argv[2]) == 0)

  00385	b8 08 00 00 00	 mov	 eax, 8
  0038a	48 6b c0 02	 imul	 rax, rax, 2
  0038e	48 8b 8c 24 58
	03 00 00	 mov	 rcx, QWORD PTR argv$[rsp]
  00396	48 83 3c 01 00	 cmp	 QWORD PTR [rcx+rax], 0
  0039b	74 1f		 je	 SHORT $LN27@main
  0039d	b8 08 00 00 00	 mov	 eax, 8
  003a2	48 6b c0 02	 imul	 rax, rax, 2
  003a6	48 8b 8c 24 58
	03 00 00	 mov	 rcx, QWORD PTR argv$[rsp]
  003ae	48 8b 0c 01	 mov	 rcx, QWORD PTR [rcx+rax]
  003b2	e8 00 00 00 00	 call	 strlen
  003b7	48 85 c0	 test	 rax, rax
  003ba	75 12		 jne	 SHORT $LN26@main
$LN27@main:

; 4289 :         argexit(2, pgm);

  003bc	48 8b 94 24 d8
	00 00 00	 mov	 rdx, QWORD PTR pgm$[rsp]
  003c4	b9 02 00 00 00	 mov	 ecx, 2
  003c9	e8 00 00 00 00	 call	 argexit
$LN26@main:

; 4290 : 
; 4291 :     /* The optional third argument is the message level */
; 4292 :     if (argc > 3 && argv[3] != NULL)

  003ce	83 bc 24 50 03
	00 00 03	 cmp	 DWORD PTR argc$[rsp], 3
  003d6	7e 65		 jle	 SHORT $LN28@main
  003d8	b8 08 00 00 00	 mov	 eax, 8
  003dd	48 6b c0 03	 imul	 rax, rax, 3
  003e1	48 8b 8c 24 58
	03 00 00	 mov	 rcx, QWORD PTR argv$[rsp]
  003e9	48 83 3c 01 00	 cmp	 QWORD PTR [rcx+rax], 0
  003ee	74 4d		 je	 SHORT $LN28@main

; 4293 :     {
; 4294 :         if (sscanf(argv[3], "%u%c", &infolvl, &c) != 1
; 4295 :             || infolvl > 5)

  003f0	b8 08 00 00 00	 mov	 eax, 8
  003f5	48 6b c0 03	 imul	 rax, rax, 3
  003f9	4c 8d 4c 24 7c	 lea	 r9, QWORD PTR c$[rsp]
  003fe	4c 8d 05 00 00
	00 00		 lea	 r8, OFFSET FLAT:infolvl
  00405	48 8d 15 00 00
	00 00		 lea	 rdx, OFFSET FLAT:$SG162738
  0040c	48 8b 8c 24 58
	03 00 00	 mov	 rcx, QWORD PTR argv$[rsp]
  00414	48 8b 0c 01	 mov	 rcx, QWORD PTR [rcx+rax]
  00418	e8 00 00 00 00	 call	 sscanf
  0041d	83 f8 01	 cmp	 eax, 1
  00420	75 09		 jne	 SHORT $LN30@main
  00422	83 3d 00 00 00
	00 05		 cmp	 DWORD PTR infolvl, 5
  00429	7e 12		 jle	 SHORT $LN29@main
$LN30@main:

; 4296 :             argexit(3, pgm);

  0042b	48 8b 94 24 d8
	00 00 00	 mov	 rdx, QWORD PTR pgm$[rsp]
  00433	b9 03 00 00 00	 mov	 ecx, 3
  00438	e8 00 00 00 00	 call	 argexit
$LN29@main:
$LN28@main:

; 4297 :     }
; 4298 : 
; 4299 :     /* Open the control file */
; 4300 :     hostpath(pathname, cfname, sizeof(pathname));

  0043d	41 b8 04 01 00
	00		 mov	 r8d, 260		; 00000104H
  00443	48 8b 94 24 98
	00 00 00	 mov	 rdx, QWORD PTR cfname$[rsp]
  0044b	48 8d 8c 24 20
	02 00 00	 lea	 rcx, QWORD PTR pathname$[rsp]
  00453	ff 15 00 00 00
	00		 call	 QWORD PTR __imp_hostpath

; 4301 :     cfp = fopen (pathname, "r");

  00459	48 8d 15 00 00
	00 00		 lea	 rdx, OFFSET FLAT:$SG162739
  00460	48 8d 8c 24 20
	02 00 00	 lea	 rcx, QWORD PTR pathname$[rsp]
  00468	ff 15 00 00 00
	00		 call	 QWORD PTR __imp_fopen
  0046e	48 89 84 24 f0
	00 00 00	 mov	 QWORD PTR cfp$[rsp], rax

; 4302 :     if (cfp == NULL)

  00476	48 83 bc 24 f0
	00 00 00 00	 cmp	 QWORD PTR cfp$[rsp], 0
  0047f	75 3f		 jne	 SHORT $LN31@main

; 4303 :     {
; 4304 :         XMERRF ( MSG( HHC02468, "E", cfname, "fopen()", strerror( errno ) ) );

  00481	ff 15 00 00 00
	00		 call	 QWORD PTR __imp__errno
  00487	8b 08		 mov	 ecx, DWORD PTR [rax]
  00489	ff 15 00 00 00
	00		 call	 QWORD PTR __imp_w32_strerror
  0048f	48 89 44 24 20	 mov	 QWORD PTR [rsp+32], rax
  00494	4c 8d 0d 00 00
	00 00		 lea	 r9, OFFSET FLAT:$SG162741
  0049b	4c 8b 84 24 98
	00 00 00	 mov	 r8, QWORD PTR cfname$[rsp]
  004a3	48 8d 15 00 00
	00 00		 lea	 rdx, OFFSET FLAT:$SG162742
  004aa	48 8d 0d 00 00
	00 00		 lea	 rcx, OFFSET FLAT:$SG162743
  004b1	e8 00 00 00 00	 call	 printf

; 4305 :         return -1;

  004b6	b8 ff ff ff ff	 mov	 eax, -1
  004bb	e9 66 06 00 00	 jmp	 $LN1@main
$LN31@main:

; 4306 :     }
; 4307 : 
; 4308 :     /* Read first statement from control file */
; 4309 :     rc = read_ctrl_stmt (cfp, cfname, stmt, sizeof(stmt), &stmtno);

  004c0	48 8d 84 24 a0
	00 00 00	 lea	 rax, QWORD PTR stmtno$[rsp]
  004c8	48 89 44 24 20	 mov	 QWORD PTR [rsp+32], rax
  004cd	41 b9 00 01 00
	00		 mov	 r9d, 256		; 00000100H
  004d3	4c 8d 84 24 20
	01 00 00	 lea	 r8, QWORD PTR stmt$[rsp]
  004db	48 8b 94 24 98
	00 00 00	 mov	 rdx, QWORD PTR cfname$[rsp]
  004e3	48 8b 8c 24 f0
	00 00 00	 mov	 rcx, QWORD PTR cfp$[rsp]
  004eb	e8 00 00 00 00	 call	 read_ctrl_stmt
  004f0	89 44 24 78	 mov	 DWORD PTR rc$[rsp], eax

; 4310 :     if (rc < 0) return -1;

  004f4	83 7c 24 78 00	 cmp	 DWORD PTR rc$[rsp], 0
  004f9	7d 0a		 jge	 SHORT $LN32@main
  004fb	b8 ff ff ff ff	 mov	 eax, -1
  00500	e9 21 06 00 00	 jmp	 $LN1@main
$LN32@main:

; 4311 : 
; 4312 :     /* Error if end of file */
; 4313 :     if (rc > 0)

  00505	83 7c 24 78 00	 cmp	 DWORD PTR rc$[rsp], 0
  0050a	7e 25		 jle	 SHORT $LN33@main

; 4314 :     {
; 4315 :         XMERRF ( MSG( HHC02500, "E", cfname ) );

  0050c	4c 8b 84 24 98
	00 00 00	 mov	 r8, QWORD PTR cfname$[rsp]
  00514	48 8d 15 00 00
	00 00		 lea	 rdx, OFFSET FLAT:$SG162746
  0051b	48 8d 0d 00 00
	00 00		 lea	 rcx, OFFSET FLAT:$SG162747
  00522	e8 00 00 00 00	 call	 printf

; 4316 :         return -1;

  00527	b8 ff ff ff ff	 mov	 eax, -1
  0052c	e9 f5 05 00 00	 jmp	 $LN1@main
$LN33@main:

; 4317 :     }
; 4318 : 
; 4319 :     /* Parse the volume serial statement */
; 4320 :     volser = strtok_r (stmt, " \t", &strtok_str);

  00531	4c 8d 84 24 e0
	00 00 00	 lea	 r8, QWORD PTR strtok_str$[rsp]
  00539	48 8d 15 00 00
	00 00		 lea	 rdx, OFFSET FLAT:$SG162748
  00540	48 8d 8c 24 20
	01 00 00	 lea	 rcx, QWORD PTR stmt$[rsp]
  00548	ff 15 00 00 00
	00		 call	 QWORD PTR __imp_strtok_r
  0054e	48 89 84 24 88
	00 00 00	 mov	 QWORD PTR volser$[rsp], rax

; 4321 :     sdevtp = strtok_r (NULL, " \t", &strtok_str);

  00556	4c 8d 84 24 e0
	00 00 00	 lea	 r8, QWORD PTR strtok_str$[rsp]
  0055e	48 8d 15 00 00
	00 00		 lea	 rdx, OFFSET FLAT:$SG162749
  00565	33 c9		 xor	 ecx, ecx
  00567	ff 15 00 00 00
	00		 call	 QWORD PTR __imp_strtok_r
  0056d	48 89 84 24 00
	01 00 00	 mov	 QWORD PTR sdevtp$[rsp], rax

; 4322 :     sdevsz = strtok_r (NULL, " \t", &strtok_str);

  00575	4c 8d 84 24 e0
	00 00 00	 lea	 r8, QWORD PTR strtok_str$[rsp]
  0057d	48 8d 15 00 00
	00 00		 lea	 rdx, OFFSET FLAT:$SG162750
  00584	33 c9		 xor	 ecx, ecx
  00586	ff 15 00 00 00
	00		 call	 QWORD PTR __imp_strtok_r
  0058c	48 89 84 24 e8
	00 00 00	 mov	 QWORD PTR sdevsz$[rsp], rax

; 4323 :     iplfnm = strtok_r (NULL, " \t", &strtok_str);

  00594	4c 8d 84 24 e0
	00 00 00	 lea	 r8, QWORD PTR strtok_str$[rsp]
  0059c	48 8d 15 00 00
	00 00		 lea	 rdx, OFFSET FLAT:$SG162751
  005a3	33 c9		 xor	 ecx, ecx
  005a5	ff 15 00 00 00
	00		 call	 QWORD PTR __imp_strtok_r
  005ab	48 89 84 24 10
	01 00 00	 mov	 QWORD PTR iplfnm$[rsp], rax

; 4324 : 
; 4325 :     /* Validate the volume serial number */
; 4326 :     if (volser == NULL || strlen(volser) == 0 || strlen(volser) > 6)

  005b3	48 83 bc 24 88
	00 00 00 00	 cmp	 QWORD PTR volser$[rsp], 0
  005bc	74 25		 je	 SHORT $LN35@main
  005be	48 8b 8c 24 88
	00 00 00	 mov	 rcx, QWORD PTR volser$[rsp]
  005c6	e8 00 00 00 00	 call	 strlen
  005cb	48 85 c0	 test	 rax, rax
  005ce	74 13		 je	 SHORT $LN35@main
  005d0	48 8b 8c 24 88
	00 00 00	 mov	 rcx, QWORD PTR volser$[rsp]
  005d8	e8 00 00 00 00	 call	 strlen
  005dd	48 83 f8 06	 cmp	 rax, 6
  005e1	76 38		 jbe	 SHORT $LN34@main
$LN35@main:

; 4327 :     {
; 4328 :         XMERRF ( MSG( HHC02501, "E", volser, cfname, stmtno ) );

  005e3	8b 84 24 a0 00
	00 00		 mov	 eax, DWORD PTR stmtno$[rsp]
  005ea	89 44 24 20	 mov	 DWORD PTR [rsp+32], eax
  005ee	4c 8b 8c 24 98
	00 00 00	 mov	 r9, QWORD PTR cfname$[rsp]
  005f6	4c 8b 84 24 88
	00 00 00	 mov	 r8, QWORD PTR volser$[rsp]
  005fe	48 8d 15 00 00
	00 00		 lea	 rdx, OFFSET FLAT:$SG162754
  00605	48 8d 0d 00 00
	00 00		 lea	 rcx, OFFSET FLAT:$SG162755
  0060c	e8 00 00 00 00	 call	 printf

; 4329 :         return -1;

  00611	b8 ff ff ff ff	 mov	 eax, -1
  00616	e9 0b 05 00 00	 jmp	 $LN1@main
$LN34@main:

; 4330 :     }
; 4331 :     string_to_upper (volser);

  0061b	48 8b 8c 24 88
	00 00 00	 mov	 rcx, QWORD PTR volser$[rsp]
  00623	ff 15 00 00 00
	00		 call	 QWORD PTR __imp_string_to_upper

; 4332 : 
; 4333 :     /* Validate the device type */
; 4334 :     ckd = dasd_lookup (DASD_CKDDEV, sdevtp, 0, 0);

  00629	45 33 c9	 xor	 r9d, r9d
  0062c	45 33 c0	 xor	 r8d, r8d
  0062f	48 8b 94 24 00
	01 00 00	 mov	 rdx, QWORD PTR sdevtp$[rsp]
  00637	b9 01 00 00 00	 mov	 ecx, 1
  0063c	ff 15 00 00 00
	00		 call	 QWORD PTR __imp_dasd_lookup
  00642	48 89 84 24 b0
	00 00 00	 mov	 QWORD PTR ckd$[rsp], rax

; 4335 :     if (ckd == NULL)

  0064a	48 83 bc 24 b0
	00 00 00 00	 cmp	 QWORD PTR ckd$[rsp], 0
  00653	75 38		 jne	 SHORT $LN36@main

; 4336 :     {
; 4337 :         XMERRF ( MSG( HHC02502, "E", sdevtp, cfname, stmtno ) );

  00655	8b 84 24 a0 00
	00 00		 mov	 eax, DWORD PTR stmtno$[rsp]
  0065c	89 44 24 20	 mov	 DWORD PTR [rsp+32], eax
  00660	4c 8b 8c 24 98
	00 00 00	 mov	 r9, QWORD PTR cfname$[rsp]
  00668	4c 8b 84 24 00
	01 00 00	 mov	 r8, QWORD PTR sdevtp$[rsp]
  00670	48 8d 15 00 00
	00 00		 lea	 rdx, OFFSET FLAT:$SG162757
  00677	48 8d 0d 00 00
	00 00		 lea	 rcx, OFFSET FLAT:$SG162758
  0067e	e8 00 00 00 00	 call	 printf

; 4338 :         return -1;

  00683	b8 ff ff ff ff	 mov	 eax, -1
  00688	e9 99 04 00 00	 jmp	 $LN1@main
$LN36@main:

; 4339 :     }
; 4340 :     devtype = ckd->devt;

  0068d	48 8b 84 24 b0
	00 00 00	 mov	 rax, QWORD PTR ckd$[rsp]
  00695	0f b7 40 08	 movzx	 eax, WORD PTR [rax+8]
  00699	66 89 44 24 74	 mov	 WORD PTR devtype$[rsp], ax

; 4341 : 
; 4342 :     /* Obtain number of heads per cylinder, maximum data length per
; 4343 :        track, and default number of cylinders per device */
; 4344 :     outheads = ckd->heads;

  0069e	48 8b 84 24 b0
	00 00 00	 mov	 rax, QWORD PTR ckd$[rsp]
  006a6	0f b7 40 12	 movzx	 eax, WORD PTR [rax+18]
  006aa	89 84 24 90 00
	00 00		 mov	 DWORD PTR outheads$[rsp], eax

; 4345 :     devcyls = ckd->cyls;

  006b1	48 8b 84 24 b0
	00 00 00	 mov	 rax, QWORD PTR ckd$[rsp]
  006b9	0f b7 40 0e	 movzx	 eax, WORD PTR [rax+14]
  006bd	89 84 24 a4 00
	00 00		 mov	 DWORD PTR devcyls$[rsp], eax

; 4346 :     if (altcylflag) devcyls += ckd->altcyls;

  006c4	83 bc 24 c0 00
	00 00 00	 cmp	 DWORD PTR altcylflag$[rsp], 0
  006cc	74 1e		 je	 SHORT $LN37@main
  006ce	48 8b 84 24 b0
	00 00 00	 mov	 rax, QWORD PTR ckd$[rsp]
  006d6	0f b7 40 10	 movzx	 eax, WORD PTR [rax+16]
  006da	8b 8c 24 a4 00
	00 00		 mov	 ecx, DWORD PTR devcyls$[rsp]
  006e1	03 c8		 add	 ecx, eax
  006e3	8b c1		 mov	 eax, ecx
  006e5	89 84 24 a4 00
	00 00		 mov	 DWORD PTR devcyls$[rsp], eax
$LN37@main:

; 4347 :     outmaxdl = ckd->r1;

  006ec	48 8b 84 24 b0
	00 00 00	 mov	 rax, QWORD PTR ckd$[rsp]
  006f4	0f b7 40 16	 movzx	 eax, WORD PTR [rax+22]
  006f8	89 84 24 cc 00
	00 00		 mov	 DWORD PTR outmaxdl$[rsp], eax

; 4348 : 
; 4349 :     /* Use default device size if requested size is omitted or
; 4350 :        is zero or is "*" */
; 4351 :     reqcyls = 0;

  006ff	c7 84 24 84 00
	00 00 00 00 00
	00		 mov	 DWORD PTR reqcyls$[rsp], 0

; 4352 :     if (sdevsz != NULL && strcmp(sdevsz, "*") != 0)

  0070a	48 83 bc 24 e8
	00 00 00 00	 cmp	 QWORD PTR sdevsz$[rsp], 0
  00713	74 76		 je	 SHORT $LN38@main
  00715	48 8d 15 00 00
	00 00		 lea	 rdx, OFFSET FLAT:$SG162761
  0071c	48 8b 8c 24 e8
	00 00 00	 mov	 rcx, QWORD PTR sdevsz$[rsp]
  00724	e8 00 00 00 00	 call	 strcmp
  00729	85 c0		 test	 eax, eax
  0072b	74 5e		 je	 SHORT $LN38@main

; 4353 :     {
; 4354 :         /* Validate the requested device size in cylinders */
; 4355 :         if (sscanf(sdevsz, "%u%c", &reqcyls, &c) != 1)

  0072d	4c 8d 4c 24 7c	 lea	 r9, QWORD PTR c$[rsp]
  00732	4c 8d 84 24 84
	00 00 00	 lea	 r8, QWORD PTR reqcyls$[rsp]
  0073a	48 8d 15 00 00
	00 00		 lea	 rdx, OFFSET FLAT:$SG162763
  00741	48 8b 8c 24 e8
	00 00 00	 mov	 rcx, QWORD PTR sdevsz$[rsp]
  00749	e8 00 00 00 00	 call	 sscanf
  0074e	83 f8 01	 cmp	 eax, 1
  00751	74 38		 je	 SHORT $LN39@main

; 4356 :         {
; 4357 :             XMERRF ( MSG( HHC02503, "E", sdevsz, cfname, stmtno ) );

  00753	8b 84 24 a0 00
	00 00		 mov	 eax, DWORD PTR stmtno$[rsp]
  0075a	89 44 24 20	 mov	 DWORD PTR [rsp+32], eax
  0075e	4c 8b 8c 24 98
	00 00 00	 mov	 r9, QWORD PTR cfname$[rsp]
  00766	4c 8b 84 24 e8
	00 00 00	 mov	 r8, QWORD PTR sdevsz$[rsp]
  0076e	48 8d 15 00 00
	00 00		 lea	 rdx, OFFSET FLAT:$SG162764
  00775	48 8d 0d 00 00
	00 00		 lea	 rcx, OFFSET FLAT:$SG162765
  0077c	e8 00 00 00 00	 call	 printf

; 4358 :             return -1;

  00781	b8 ff ff ff ff	 mov	 eax, -1
  00786	e9 9b 03 00 00	 jmp	 $LN1@main
$LN39@main:
$LN38@main:

; 4359 :         }
; 4360 :     }
; 4361 :     if (reqcyls == 0)

  0078b	83 bc 24 84 00
	00 00 00	 cmp	 DWORD PTR reqcyls$[rsp], 0
  00793	75 0e		 jne	 SHORT $LN40@main

; 4362 :         reqcyls = devcyls;

  00795	8b 84 24 a4 00
	00 00		 mov	 eax, DWORD PTR devcyls$[rsp]
  0079c	89 84 24 84 00
	00 00		 mov	 DWORD PTR reqcyls$[rsp], eax
$LN40@main:

; 4363 : 
; 4364 :     /* Calculate the track size of the virtual device */
; 4365 :     outtrklv = CKD_TRKHDR_SIZE

  007a3	48 63 84 24 cc
	00 00 00	 movsxd	 rax, DWORD PTR outmaxdl$[rsp]
  007ab	48 83 c0 25	 add	 rax, 37			; 00000025H
  007af	89 84 24 80 00
	00 00		 mov	 DWORD PTR outtrklv$[rsp], eax

; 4366 :              + CKD_R0_SIZE     + CKD_R0_DLEN
; 4367 :              + CKD_RECHDR_SIZE + outmaxdl
; 4368 :              + CKD_ENDTRK_SIZE;
; 4369 :     outtrklv = ROUND_UP( outtrklv, 512 );

  007b6	83 bc 24 80 00
	00 00 00	 cmp	 DWORD PTR outtrklv$[rsp], 0
  007be	74 27		 je	 SHORT $LN48@main
  007c0	8b 84 24 80 00
	00 00		 mov	 eax, DWORD PTR outtrklv$[rsp]
  007c7	05 ff 01 00 00	 add	 eax, 511		; 000001ffH
  007cc	99		 cdq
  007cd	81 e2 ff 01 00
	00		 and	 edx, 511		; 000001ffH
  007d3	03 c2		 add	 eax, edx
  007d5	c1 f8 09	 sar	 eax, 9
  007d8	69 c0 00 02 00
	00		 imul	 eax, eax, 512		; 00000200H
  007de	89 84 24 c4 00
	00 00		 mov	 DWORD PTR tv315[rsp], eax
  007e5	eb 0b		 jmp	 SHORT $LN49@main
$LN48@main:
  007e7	c7 84 24 c4 00
	00 00 00 02 00
	00		 mov	 DWORD PTR tv315[rsp], 512 ; 00000200H
$LN49@main:
  007f2	8b 84 24 c4 00
	00 00		 mov	 eax, DWORD PTR tv315[rsp]
  007f9	89 84 24 80 00
	00 00		 mov	 DWORD PTR outtrklv$[rsp], eax

; 4370 : 
; 4371 :     /* Display progress message */
; 4372 :     XMINFF (0, MSG( HHC02520, "I", devtype, volser, outheads, outtrklv ) );

  00800	0f b7 44 24 74	 movzx	 eax, WORD PTR devtype$[rsp]
  00805	8b 8c 24 80 00
	00 00		 mov	 ecx, DWORD PTR outtrklv$[rsp]
  0080c	89 4c 24 30	 mov	 DWORD PTR [rsp+48], ecx
  00810	8b 8c 24 90 00
	00 00		 mov	 ecx, DWORD PTR outheads$[rsp]
  00817	89 4c 24 28	 mov	 DWORD PTR [rsp+40], ecx
  0081b	48 8b 8c 24 88
	00 00 00	 mov	 rcx, QWORD PTR volser$[rsp]
  00823	48 89 4c 24 20	 mov	 QWORD PTR [rsp+32], rcx
  00828	44 8b c8	 mov	 r9d, eax
  0082b	4c 8d 05 00 00
	00 00		 lea	 r8, OFFSET FLAT:$SG162767
  00832	48 8d 15 00 00
	00 00		 lea	 rdx, OFFSET FLAT:$SG162768
  00839	33 c9		 xor	 ecx, ecx
  0083b	e8 00 00 00 00	 call	 info_msg
$LN7@main:

; 4373 : 
; 4374 :     /* Create the output file */
; 4375 :     EXTGUIMSG( "REQCYLS=%d\n", reqcyls );

  00840	48 8b 05 00 00
	00 00		 mov	 rax, QWORD PTR __imp_extgui
  00847	83 38 00	 cmp	 DWORD PTR [rax], 0
  0084a	74 23		 je	 SHORT $LN41@main
  0084c	b9 02 00 00 00	 mov	 ecx, 2
  00851	ff 15 00 00 00
	00		 call	 QWORD PTR __imp___acrt_iob_func
  00857	44 8b 84 24 84
	00 00 00	 mov	 r8d, DWORD PTR reqcyls$[rsp]
  0085f	48 8d 15 00 00
	00 00		 lea	 rdx, OFFSET FLAT:$SG162770
  00866	48 8b c8	 mov	 rcx, rax
  00869	ff 15 00 00 00
	00		 call	 QWORD PTR __imp_w32_fprintf
$LN41@main:
  0086f	33 c0		 xor	 eax, eax
  00871	85 c0		 test	 eax, eax
  00873	75 cb		 jne	 SHORT $LN7@main

; 4376 :     rc = create_ckd64( ofname, devtype, outheads, outmaxdl, reqcyls,

  00875	c6 44 24 60 00	 mov	 BYTE PTR [rsp+96], 0
  0087a	c6 44 24 58 01	 mov	 BYTE PTR [rsp+88], 1
  0087f	c6 44 24 50 00	 mov	 BYTE PTR [rsp+80], 0
  00884	c6 44 24 48 00	 mov	 BYTE PTR [rsp+72], 0
  00889	c6 44 24 40 00	 mov	 BYTE PTR [rsp+64], 0
  0088e	0f b6 84 24 c8
	00 00 00	 movzx	 eax, BYTE PTR lfs$[rsp]
  00896	88 44 24 38	 mov	 BYTE PTR [rsp+56], al
  0089a	0f b6 44 24 70	 movzx	 eax, BYTE PTR comp$[rsp]
  0089f	88 44 24 30	 mov	 BYTE PTR [rsp+48], al
  008a3	48 8b 84 24 88
	00 00 00	 mov	 rax, QWORD PTR volser$[rsp]
  008ab	48 89 44 24 28	 mov	 QWORD PTR [rsp+40], rax
  008b0	8b 84 24 84 00
	00 00		 mov	 eax, DWORD PTR reqcyls$[rsp]
  008b7	89 44 24 20	 mov	 DWORD PTR [rsp+32], eax
  008bb	44 8b 8c 24 cc
	00 00 00	 mov	 r9d, DWORD PTR outmaxdl$[rsp]
  008c3	44 8b 84 24 90
	00 00 00	 mov	 r8d, DWORD PTR outheads$[rsp]
  008cb	0f b7 54 24 74	 movzx	 edx, WORD PTR devtype$[rsp]
  008d0	48 8b 8c 24 a8
	00 00 00	 mov	 rcx, QWORD PTR ofname$[rsp]
  008d8	ff 15 00 00 00
	00		 call	 QWORD PTR __imp_create_ckd64
  008de	89 44 24 78	 mov	 DWORD PTR rc$[rsp], eax

; 4377 :                        volser, comp, (BYTE) lfs, 0, 0, 0, 1, 0 );
; 4378 :     if (rc < 0)

  008e2	83 7c 24 78 00	 cmp	 DWORD PTR rc$[rsp], 0
  008e7	7d 2c		 jge	 SHORT $LN42@main

; 4379 :     {
; 4380 :         XMERRF ( MSG( HHC02504, "E", ofname, "create_ckd64()" ) );

  008e9	4c 8d 0d 00 00
	00 00		 lea	 r9, OFFSET FLAT:$SG162772
  008f0	4c 8b 84 24 a8
	00 00 00	 mov	 r8, QWORD PTR ofname$[rsp]
  008f8	48 8d 15 00 00
	00 00		 lea	 rdx, OFFSET FLAT:$SG162773
  008ff	48 8d 0d 00 00
	00 00		 lea	 rcx, OFFSET FLAT:$SG162774
  00906	e8 00 00 00 00	 call	 printf

; 4381 :         return -1;

  0090b	b8 ff ff ff ff	 mov	 eax, -1
  00910	e9 11 02 00 00	 jmp	 $LN1@main
$LN42@main:

; 4382 :     }
; 4383 : 
; 4384 :     /* Open the output file */
; 4385 :     cif = open_ckd64_image (ofname, NULL, O_RDWR | O_BINARY, IMAGE_OPEN_NORMAL);

  00915	45 33 c9	 xor	 r9d, r9d
  00918	41 b8 02 80 00
	00		 mov	 r8d, 32770		; 00008002H
  0091e	33 d2		 xor	 edx, edx
  00920	48 8b 8c 24 a8
	00 00 00	 mov	 rcx, QWORD PTR ofname$[rsp]
  00928	ff 15 00 00 00
	00		 call	 QWORD PTR __imp_open_ckd64_image
  0092e	48 89 84 24 b8
	00 00 00	 mov	 QWORD PTR cif$[rsp], rax

; 4386 :     if (!cif)

  00936	48 83 bc 24 b8
	00 00 00 00	 cmp	 QWORD PTR cif$[rsp], 0
  0093f	75 2c		 jne	 SHORT $LN43@main

; 4387 :     {
; 4388 :         XMERRF ( MSG( HHC02504, "E", ofname, "open_ckd64_image()" ) );

  00941	4c 8d 0d 00 00
	00 00		 lea	 r9, OFFSET FLAT:$SG162776
  00948	4c 8b 84 24 a8
	00 00 00	 mov	 r8, QWORD PTR ofname$[rsp]
  00950	48 8d 15 00 00
	00 00		 lea	 rdx, OFFSET FLAT:$SG162777
  00957	48 8d 0d 00 00
	00 00		 lea	 rcx, OFFSET FLAT:$SG162778
  0095e	e8 00 00 00 00	 call	 printf

; 4389 :         return -1;

  00963	b8 ff ff ff ff	 mov	 eax, -1
  00968	e9 b9 01 00 00	 jmp	 $LN1@main
$LN43@main:

; 4390 :     }
; 4391 : 
; 4392 :     if (cif->devblk.cckd64 != 1)

  0096d	48 8b 84 24 b8
	00 00 00	 mov	 rax, QWORD PTR cif$[rsp]
  00975	0f b6 80 40 13
	00 00		 movzx	 eax, BYTE PTR [rax+4928]
  0097c	24 01		 and	 al, 1
  0097e	0f b6 c0	 movzx	 eax, al
  00981	83 f8 01	 cmp	 eax, 1
  00984	74 25		 je	 SHORT $LN44@main

; 4393 :     {
; 4394 :         // "Dasd image file format unsupported or unrecognized: %s"
; 4395 :         XMERRF ( MSG( HHC02424, "E", ofname ) );

  00986	4c 8b 84 24 a8
	00 00 00	 mov	 r8, QWORD PTR ofname$[rsp]
  0098e	48 8d 15 00 00
	00 00		 lea	 rdx, OFFSET FLAT:$SG162780
  00995	48 8d 0d 00 00
	00 00		 lea	 rcx, OFFSET FLAT:$SG162781
  0099c	e8 00 00 00 00	 call	 printf

; 4396 :         return -1;

  009a1	b8 ff ff ff ff	 mov	 eax, -1
  009a6	e9 7b 01 00 00	 jmp	 $LN1@main
$LN44@main:

; 4397 :     }
; 4398 : 
; 4399 :     if (cif->devblk.cckd_ext)        /* have a compressed ckd extension?  */

  009ab	48 8b 84 24 b8
	00 00 00	 mov	 rax, QWORD PTR cif$[rsp]
  009b3	48 83 b8 38 13
	00 00 00	 cmp	 QWORD PTR [rax+4920], 0
  009bb	74 10		 je	 SHORT $LN45@main

; 4400 :         cckdblk.batchml = infolvl;   /* yes, save message level in cckdblk for cckddasd   */

  009bd	48 8b 05 00 00
	00 00		 mov	 rax, QWORD PTR __imp_cckdblk
  009c4	8b 0d 00 00 00
	00		 mov	 ecx, DWORD PTR infolvl
  009ca	89 48 18	 mov	 DWORD PTR [rax+24], ecx
$LN45@main:

; 4401 : 
; 4402 :     /* Display progress message */
; 4403 :     XMINFF (0, MSG( HHC02521, "I", devtype, volser ) );

  009cd	0f b7 44 24 74	 movzx	 eax, WORD PTR devtype$[rsp]
  009d2	48 8b 8c 24 88
	00 00 00	 mov	 rcx, QWORD PTR volser$[rsp]
  009da	48 89 4c 24 20	 mov	 QWORD PTR [rsp+32], rcx
  009df	44 8b c8	 mov	 r9d, eax
  009e2	4c 8d 05 00 00
	00 00		 lea	 r8, OFFSET FLAT:$SG162783
  009e9	48 8d 15 00 00
	00 00		 lea	 rdx, OFFSET FLAT:$SG162784
  009f0	33 c9		 xor	 ecx, ecx
  009f2	e8 00 00 00 00	 call	 info_msg

; 4404 : 
; 4405 :     /* Write track zero to the DASD image file */
; 4406 :     rc = write_track_zero (cif, ofname, volser, devtype,

  009f7	8b 84 24 d0 00
	00 00		 mov	 eax, DWORD PTR flagMachinecheck$[rsp]
  009fe	89 44 24 58	 mov	 DWORD PTR [rsp+88], eax
  00a02	8b 84 24 d4 00
	00 00		 mov	 eax, DWORD PTR flagECmode$[rsp]
  00a09	89 44 24 50	 mov	 DWORD PTR [rsp+80], eax
  00a0d	48 8d 84 24 f8
	00 00 00	 lea	 rax, QWORD PTR outhead$[rsp]
  00a15	48 89 44 24 48	 mov	 QWORD PTR [rsp+72], rax
  00a1a	48 8d 84 24 fc
	00 00 00	 lea	 rax, QWORD PTR outcyl$[rsp]
  00a22	48 89 44 24 40	 mov	 QWORD PTR [rsp+64], rax
  00a27	48 8d 84 24 08
	01 00 00	 lea	 rax, QWORD PTR reltrk$[rsp]
  00a2f	48 89 44 24 38	 mov	 QWORD PTR [rsp+56], rax
  00a34	48 8b 84 24 10
	01 00 00	 mov	 rax, QWORD PTR iplfnm$[rsp]
  00a3c	48 89 44 24 30	 mov	 QWORD PTR [rsp+48], rax
  00a41	8b 84 24 80 00
	00 00		 mov	 eax, DWORD PTR outtrklv$[rsp]
  00a48	89 44 24 28	 mov	 DWORD PTR [rsp+40], eax
  00a4c	8b 84 24 90 00
	00 00		 mov	 eax, DWORD PTR outheads$[rsp]
  00a53	89 44 24 20	 mov	 DWORD PTR [rsp+32], eax
  00a57	44 0f b7 4c 24
	74		 movzx	 r9d, WORD PTR devtype$[rsp]
  00a5d	4c 8b 84 24 88
	00 00 00	 mov	 r8, QWORD PTR volser$[rsp]
  00a65	48 8b 94 24 a8
	00 00 00	 mov	 rdx, QWORD PTR ofname$[rsp]
  00a6d	48 8b 8c 24 b8
	00 00 00	 mov	 rcx, QWORD PTR cif$[rsp]
  00a75	e8 00 00 00 00	 call	 write_track_zero
  00a7a	89 44 24 78	 mov	 DWORD PTR rc$[rsp], eax

; 4407 :                         outheads, outtrklv, iplfnm,
; 4408 :                         &reltrk, &outcyl, &outhead,
; 4409 :                         flagECmode, flagMachinecheck);
; 4410 :     if (rc < 0)

  00a7e	83 7c 24 78 00	 cmp	 DWORD PTR rc$[rsp], 0
  00a83	7d 0a		 jge	 SHORT $LN46@main

; 4411 :         return -1;

  00a85	b8 ff ff ff ff	 mov	 eax, -1
  00a8a	e9 97 00 00 00	 jmp	 $LN1@main
$LN46@main:

; 4412 : 
; 4413 :     /* Process the control file to create the datasets */
; 4414 :     rc = process_control_file (cfp, cfname, ofname, cif, volser,

  00a8f	8b 84 24 f8 00
	00 00		 mov	 eax, DWORD PTR outhead$[rsp]
  00a96	89 44 24 50	 mov	 DWORD PTR [rsp+80], eax
  00a9a	8b 84 24 fc 00
	00 00		 mov	 eax, DWORD PTR outcyl$[rsp]
  00aa1	89 44 24 48	 mov	 DWORD PTR [rsp+72], eax
  00aa5	8b 84 24 80 00
	00 00		 mov	 eax, DWORD PTR outtrklv$[rsp]
  00aac	89 44 24 40	 mov	 DWORD PTR [rsp+64], eax
  00ab0	8b 84 24 90 00
	00 00		 mov	 eax, DWORD PTR outheads$[rsp]
  00ab7	89 44 24 38	 mov	 DWORD PTR [rsp+56], eax
  00abb	8b 84 24 84 00
	00 00		 mov	 eax, DWORD PTR reqcyls$[rsp]
  00ac2	89 44 24 30	 mov	 DWORD PTR [rsp+48], eax
  00ac6	0f b7 44 24 74	 movzx	 eax, WORD PTR devtype$[rsp]
  00acb	66 89 44 24 28	 mov	 WORD PTR [rsp+40], ax
  00ad0	48 8b 84 24 88
	00 00 00	 mov	 rax, QWORD PTR volser$[rsp]
  00ad8	48 89 44 24 20	 mov	 QWORD PTR [rsp+32], rax
  00add	4c 8b 8c 24 b8
	00 00 00	 mov	 r9, QWORD PTR cif$[rsp]
  00ae5	4c 8b 84 24 a8
	00 00 00	 mov	 r8, QWORD PTR ofname$[rsp]
  00aed	48 8b 94 24 98
	00 00 00	 mov	 rdx, QWORD PTR cfname$[rsp]
  00af5	48 8b 8c 24 f0
	00 00 00	 mov	 rcx, QWORD PTR cfp$[rsp]
  00afd	e8 00 00 00 00	 call	 process_control_file
  00b02	89 44 24 78	 mov	 DWORD PTR rc$[rsp], eax

; 4415 :                         devtype, reqcyls, outheads, outtrklv,
; 4416 :                         outcyl, outhead);
; 4417 : 
; 4418 :     /* Close files and release buffers */
; 4419 :     fclose (cfp);

  00b06	48 8b 8c 24 f0
	00 00 00	 mov	 rcx, QWORD PTR cfp$[rsp]
  00b0e	ff 15 00 00 00
	00		 call	 QWORD PTR __imp_w32_fclose

; 4420 :     close_ckd_image (cif);

  00b14	48 8b 8c 24 b8
	00 00 00	 mov	 rcx, QWORD PTR cif$[rsp]
  00b1c	ff 15 00 00 00
	00		 call	 QWORD PTR __imp_close_ckd_image

; 4421 : 
; 4422 :     return rc;

  00b22	8b 44 24 78	 mov	 eax, DWORD PTR rc$[rsp]
$LN1@main:

; 4423 : 
; 4424 : } /* end function main */

  00b26	48 8b 8c 24 30
	03 00 00	 mov	 rcx, QWORD PTR __$ArrayPad$[rsp]
  00b2e	48 33 cc	 xor	 rcx, rsp
  00b31	e8 00 00 00 00	 call	 __security_check_cookie
  00b36	48 81 c4 48 03
	00 00		 add	 rsp, 840		; 00000348H
  00b3d	c3		 ret	 0
main	ENDP
_TEXT	ENDS
; Function compile flags: /Odtp
; File C:\papa\MyGit\hyperion-zvector\dasdload64.c
_TEXT	SEGMENT
rc$ = 176
units$ = 180
dsorg$ = 181
method$ = 182
recfm$ = 183
tracks$ = 184
numdscb$ = 188
mintrks$ = 192
trkbal$ = 196
lastrec$ = 200
outusedv$ = 204
i$ = 208
keyln$ = 212
blksz$ = 216
lrecl$ = 220
dscbtab$ = 224
tv211 = 232
tv213 = 236
n$ = 240
tv345 = 244
tv349 = 248
dirblu$ = 252
vtocext$ = 256
vtoctrk$ = 260
fsflag$ = 264
offset$ = 268
sppri$ = 272
maxtrks$ = 276
spdir$ = 280
ehead$ = 284
ecyl$ = 288
bhead$ = 292
bcyl$ = 296
spsec$ = 300
lasttrk$ = 304
stmtno$ = 308
ifname$ = 312
tv336 = 320
volvtoc$ = 328
dsname$ = 336
stmt$ = 384
__$ArrayPad$ = 640
cfp$ = 688
cfname$ = 696
ofname$ = 704
cif$ = 712
volser$ = 720
devtype$ = 728
reqcyls$ = 736
heads$ = 744
trklen$ = 752
outcyl$ = 760
outhead$ = 768
process_control_file PROC

; 3928 : {

  00000	4c 89 4c 24 20	 mov	 QWORD PTR [rsp+32], r9
  00005	4c 89 44 24 18	 mov	 QWORD PTR [rsp+24], r8
  0000a	48 89 54 24 10	 mov	 QWORD PTR [rsp+16], rdx
  0000f	48 89 4c 24 08	 mov	 QWORD PTR [rsp+8], rcx
  00014	56		 push	 rsi
  00015	57		 push	 rdi
  00016	48 81 ec 98 02
	00 00		 sub	 rsp, 664		; 00000298H
  0001d	48 8b 05 00 00
	00 00		 mov	 rax, QWORD PTR __security_cookie
  00024	48 33 c4	 xor	 rax, rsp
  00027	48 89 84 24 80
	02 00 00	 mov	 QWORD PTR __$ArrayPad$[rsp], rax

; 3929 : int             rc;                     /* Return code               */
; 3930 : int             i;                      /* Array subscript           */
; 3931 : int             n;                      /* Integer work area         */
; 3932 : char            dsname[45];             /* Dataset name (ASCIIZ)     */
; 3933 : BYTE            method;                 /* Initialization method     */
; 3934 : char           *ifname;                 /* ->Initialization file name*/
; 3935 : BYTE            units;                  /* C=CYL, T=TRK              */
; 3936 : int             sppri;                  /* Primary space quantity    */
; 3937 : int             spsec;                  /* Secondary space quantity  */
; 3938 : int             spdir;                  /* Directory space quantity  */
; 3939 : BYTE            dsorg;                  /* Dataset organization      */
; 3940 : BYTE            recfm;                  /* Record format             */
; 3941 : int             lrecl;                  /* Logical record length     */
; 3942 : int             blksz;                  /* Block size                */
; 3943 : int             keyln;                  /* Key length                */
; 3944 : char            stmt[256];              /* Control file statement    */
; 3945 : int             stmtno;                 /* Statement number          */
; 3946 : int             mintrks;                /* Minimum size of dataset   */
; 3947 : int             maxtrks;                /* Maximum size of dataset   */
; 3948 : int             outusedv;               /* Bytes used in track buffer*/
; 3949 : int             tracks = 0;             /* Tracks used in dataset    */

  0002f	c7 84 24 b8 00
	00 00 00 00 00
	00		 mov	 DWORD PTR tracks$[rsp], 0

; 3950 : int             numdscb = 0;            /* Number of DSCBs           */

  0003a	c7 84 24 bc 00
	00 00 00 00 00
	00		 mov	 DWORD PTR numdscb$[rsp], 0

; 3951 : DATABLK       **dscbtab;                /* -> Array of DSCB pointers */
; 3952 : int             dirblu;                 /* Bytes used in last dirblk */
; 3953 : int             lasttrk;                /* Relative track number of
; 3954 :                                            last used track of dataset*/
; 3955 : int             lastrec;                /* Record number of last used
; 3956 :                                            block of dataset          */
; 3957 : int             trkbal;                 /* Bytes unused on last track*/
; 3958 : int             bcyl;                   /* Dataset begin cylinder    */
; 3959 : int             bhead;                  /* Dataset begin head        */
; 3960 : int             ecyl;                   /* Dataset end cylinder      */
; 3961 : int             ehead;                  /* Dataset end head          */
; 3962 : int             vtoctrk = 0;            /* VTOC start relative track */

  00045	c7 84 24 04 01
	00 00 00 00 00
	00		 mov	 DWORD PTR vtoctrk$[rsp], 0

; 3963 : int             vtocext = 0;            /* VTOC extent size (tracks) */

  00050	c7 84 24 00 01
	00 00 00 00 00
	00		 mov	 DWORD PTR vtocext$[rsp], 0

; 3964 : BYTE            volvtoc[5];             /* VTOC begin CCHHR          */
; 3965 : int             offset = 0;             /* Offset into trkbuf        */

  0005b	c7 84 24 0c 01
	00 00 00 00 00
	00		 mov	 DWORD PTR offset$[rsp], 0

; 3966 : int             fsflag = 0;             /* 1=Free space message sent */

  00066	c7 84 24 08 01
	00 00 00 00 00
	00		 mov	 DWORD PTR fsflag$[rsp], 0

; 3967 : 
; 3968 :     /* Obtain storage for the array of DSCB pointers */
; 3969 :     dscbtab = (DATABLK**)malloc (sizeof(DATABLK*) * MAXDSCB);

  00071	b9 40 1f 00 00	 mov	 ecx, 8000		; 00001f40H
  00076	ff 15 00 00 00
	00		 call	 QWORD PTR __imp_malloc
  0007c	48 89 84 24 e0
	00 00 00	 mov	 QWORD PTR dscbtab$[rsp], rax

; 3970 :     if (dscbtab == NULL)

  00084	48 83 bc 24 e0
	00 00 00 00	 cmp	 QWORD PTR dscbtab$[rsp], 0
  0008d	75 3e		 jne	 SHORT $LN18@process_co

; 3971 :     {
; 3972 :         XMERRF ( MSG( HHC02544, "E", "DSCB pointer array", "malloc()", strerror(errno) ) );

  0008f	ff 15 00 00 00
	00		 call	 QWORD PTR __imp__errno
  00095	8b 08		 mov	 ecx, DWORD PTR [rax]
  00097	ff 15 00 00 00
	00		 call	 QWORD PTR __imp_w32_strerror
  0009d	48 89 44 24 20	 mov	 QWORD PTR [rsp+32], rax
  000a2	4c 8d 0d 00 00
	00 00		 lea	 r9, OFFSET FLAT:$SG162587
  000a9	4c 8d 05 00 00
	00 00		 lea	 r8, OFFSET FLAT:$SG162588
  000b0	48 8d 15 00 00
	00 00		 lea	 rdx, OFFSET FLAT:$SG162589
  000b7	48 8d 0d 00 00
	00 00		 lea	 rcx, OFFSET FLAT:$SG162590
  000be	e8 00 00 00 00	 call	 printf

; 3973 :         return -1;

  000c3	b8 ff ff ff ff	 mov	 eax, -1
  000c8	e9 1e 0f 00 00	 jmp	 $LN1@process_co
$LN18@process_co:

; 3974 :     }
; 3975 : 
; 3976 :     /* Initialize the DSCB array with format 4 and format 5 DSCBs */
; 3977 :     rc = build_format4_dscb (dscbtab, numdscb, cif);

  000cd	4c 8b 84 24 c8
	02 00 00	 mov	 r8, QWORD PTR cif$[rsp]
  000d5	8b 94 24 bc 00
	00 00		 mov	 edx, DWORD PTR numdscb$[rsp]
  000dc	48 8b 8c 24 e0
	00 00 00	 mov	 rcx, QWORD PTR dscbtab$[rsp]
  000e4	e8 00 00 00 00	 call	 build_format4_dscb
  000e9	89 84 24 b0 00
	00 00		 mov	 DWORD PTR rc$[rsp], eax

; 3978 :     if (rc < 0) return -1;

  000f0	83 bc 24 b0 00
	00 00 00	 cmp	 DWORD PTR rc$[rsp], 0
  000f8	7d 0a		 jge	 SHORT $LN19@process_co
  000fa	b8 ff ff ff ff	 mov	 eax, -1
  000ff	e9 e7 0e 00 00	 jmp	 $LN1@process_co
$LN19@process_co:

; 3979 :     numdscb++;

  00104	8b 84 24 bc 00
	00 00		 mov	 eax, DWORD PTR numdscb$[rsp]
  0010b	ff c0		 inc	 eax
  0010d	89 84 24 bc 00
	00 00		 mov	 DWORD PTR numdscb$[rsp], eax

; 3980 : 
; 3981 :     rc = build_format5_dscb (dscbtab, numdscb);

  00114	8b 94 24 bc 00
	00 00		 mov	 edx, DWORD PTR numdscb$[rsp]
  0011b	48 8b 8c 24 e0
	00 00 00	 mov	 rcx, QWORD PTR dscbtab$[rsp]
  00123	e8 00 00 00 00	 call	 build_format5_dscb
  00128	89 84 24 b0 00
	00 00		 mov	 DWORD PTR rc$[rsp], eax

; 3982 :     if (rc < 0) return -1;

  0012f	83 bc 24 b0 00
	00 00 00	 cmp	 DWORD PTR rc$[rsp], 0
  00137	7d 0a		 jge	 SHORT $LN20@process_co
  00139	b8 ff ff ff ff	 mov	 eax, -1
  0013e	e9 a8 0e 00 00	 jmp	 $LN1@process_co
$LN20@process_co:

; 3983 :     numdscb++;

  00143	8b 84 24 bc 00
	00 00		 mov	 eax, DWORD PTR numdscb$[rsp]
  0014a	ff c0		 inc	 eax
  0014c	89 84 24 bc 00
	00 00		 mov	 DWORD PTR numdscb$[rsp], eax
$LN2@process_co:

; 3984 : 
; 3985 :     /* Read dataset statements from control file */
; 3986 :     while (1)

  00153	33 c0		 xor	 eax, eax
  00155	83 f8 01	 cmp	 eax, 1
  00158	0f 84 ae 0a 00
	00		 je	 $LN3@process_co

; 3987 :     {
; 3988 :         /* Read next statement from control file */
; 3989 :         rc = read_ctrl_stmt (cfp, cfname, stmt, sizeof(stmt), &stmtno);

  0015e	48 8d 84 24 34
	01 00 00	 lea	 rax, QWORD PTR stmtno$[rsp]
  00166	48 89 44 24 20	 mov	 QWORD PTR [rsp+32], rax
  0016b	41 b9 00 01 00
	00		 mov	 r9d, 256		; 00000100H
  00171	4c 8d 84 24 80
	01 00 00	 lea	 r8, QWORD PTR stmt$[rsp]
  00179	48 8b 94 24 b8
	02 00 00	 mov	 rdx, QWORD PTR cfname$[rsp]
  00181	48 8b 8c 24 b0
	02 00 00	 mov	 rcx, QWORD PTR cfp$[rsp]
  00189	e8 00 00 00 00	 call	 read_ctrl_stmt
  0018e	89 84 24 b0 00
	00 00		 mov	 DWORD PTR rc$[rsp], eax

; 3990 :         if (rc < 0) return -1;

  00195	83 bc 24 b0 00
	00 00 00	 cmp	 DWORD PTR rc$[rsp], 0
  0019d	7d 0a		 jge	 SHORT $LN21@process_co
  0019f	b8 ff ff ff ff	 mov	 eax, -1
  001a4	e9 42 0e 00 00	 jmp	 $LN1@process_co
$LN21@process_co:

; 3991 : 
; 3992 :         /* Exit if end of file */
; 3993 :         if (rc > 0)

  001a9	83 bc 24 b0 00
	00 00 00	 cmp	 DWORD PTR rc$[rsp], 0
  001b1	7e 05		 jle	 SHORT $LN22@process_co

; 3994 :             break;

  001b3	e9 54 0a 00 00	 jmp	 $LN3@process_co
$LN22@process_co:

; 3995 : 
; 3996 :         /* Parse dataset statement from control file */
; 3997 :         rc = parse_ctrl_stmt (stmt, dsname, &method, &ifname,

  001b8	48 8d 84 24 d4
	00 00 00	 lea	 rax, QWORD PTR keyln$[rsp]
  001c0	48 89 44 24 60	 mov	 QWORD PTR [rsp+96], rax
  001c5	48 8d 84 24 d8
	00 00 00	 lea	 rax, QWORD PTR blksz$[rsp]
  001cd	48 89 44 24 58	 mov	 QWORD PTR [rsp+88], rax
  001d2	48 8d 84 24 dc
	00 00 00	 lea	 rax, QWORD PTR lrecl$[rsp]
  001da	48 89 44 24 50	 mov	 QWORD PTR [rsp+80], rax
  001df	48 8d 84 24 b7
	00 00 00	 lea	 rax, QWORD PTR recfm$[rsp]
  001e7	48 89 44 24 48	 mov	 QWORD PTR [rsp+72], rax
  001ec	48 8d 84 24 b5
	00 00 00	 lea	 rax, QWORD PTR dsorg$[rsp]
  001f4	48 89 44 24 40	 mov	 QWORD PTR [rsp+64], rax
  001f9	48 8d 84 24 18
	01 00 00	 lea	 rax, QWORD PTR spdir$[rsp]
  00201	48 89 44 24 38	 mov	 QWORD PTR [rsp+56], rax
  00206	48 8d 84 24 2c
	01 00 00	 lea	 rax, QWORD PTR spsec$[rsp]
  0020e	48 89 44 24 30	 mov	 QWORD PTR [rsp+48], rax
  00213	48 8d 84 24 10
	01 00 00	 lea	 rax, QWORD PTR sppri$[rsp]
  0021b	48 89 44 24 28	 mov	 QWORD PTR [rsp+40], rax
  00220	48 8d 84 24 b4
	00 00 00	 lea	 rax, QWORD PTR units$[rsp]
  00228	48 89 44 24 20	 mov	 QWORD PTR [rsp+32], rax
  0022d	4c 8d 8c 24 38
	01 00 00	 lea	 r9, QWORD PTR ifname$[rsp]
  00235	4c 8d 84 24 b6
	00 00 00	 lea	 r8, QWORD PTR method$[rsp]
  0023d	48 8d 94 24 50
	01 00 00	 lea	 rdx, QWORD PTR dsname$[rsp]
  00245	48 8d 8c 24 80
	01 00 00	 lea	 rcx, QWORD PTR stmt$[rsp]
  0024d	e8 00 00 00 00	 call	 parse_ctrl_stmt
  00252	89 84 24 b0 00
	00 00		 mov	 DWORD PTR rc$[rsp], eax

; 3998 :                 &units, &sppri, &spsec, &spdir,
; 3999 :                 &dsorg, &recfm, &lrecl, &blksz, &keyln);
; 4000 : 
; 4001 :         /* Exit if error in control file */
; 4002 :         if (rc < 0)

  00259	83 bc 24 b0 00
	00 00 00	 cmp	 DWORD PTR rc$[rsp], 0
  00261	7d 2d		 jge	 SHORT $LN23@process_co

; 4003 :         {
; 4004 :             XMERRF ( MSG( HHC02569, "E", cfname, stmtno ) );

  00263	44 8b 8c 24 34
	01 00 00	 mov	 r9d, DWORD PTR stmtno$[rsp]
  0026b	4c 8b 84 24 b8
	02 00 00	 mov	 r8, QWORD PTR cfname$[rsp]
  00273	48 8d 15 00 00
	00 00		 lea	 rdx, OFFSET FLAT:$SG162596
  0027a	48 8d 0d 00 00
	00 00		 lea	 rcx, OFFSET FLAT:$SG162597
  00281	e8 00 00 00 00	 call	 printf

; 4005 :             return -1;

  00286	b8 ff ff ff ff	 mov	 eax, -1
  0028b	e9 5b 0d 00 00	 jmp	 $LN1@process_co
$LN23@process_co:
$LN4@process_co:

; 4006 :         }
; 4007 : 
; 4008 :         /* Write empty tracks if allocation is in cylinders */
; 4009 :         while (units == 'C' && outhead != 0)

  00290	0f b6 84 24 b4
	00 00 00	 movzx	 eax, BYTE PTR units$[rsp]
  00298	83 f8 43	 cmp	 eax, 67			; 00000043H
  0029b	0f 85 b4 00 00
	00		 jne	 $LN5@process_co
  002a1	83 bc 24 00 03
	00 00 00	 cmp	 DWORD PTR outhead$[rsp], 0
  002a9	0f 84 a6 00 00
	00		 je	 $LN5@process_co

; 4010 :         {
; 4011 :             /* Initialize track buffer with empty track */
; 4012 :             init_track (trklen, cif->trkbuf, outcyl, outhead, &outusedv);

  002af	48 8d 84 24 cc
	00 00 00	 lea	 rax, QWORD PTR outusedv$[rsp]
  002b7	48 89 44 24 20	 mov	 QWORD PTR [rsp+32], rax
  002bc	44 8b 8c 24 00
	03 00 00	 mov	 r9d, DWORD PTR outhead$[rsp]
  002c4	44 8b 84 24 f8
	02 00 00	 mov	 r8d, DWORD PTR outcyl$[rsp]
  002cc	48 8b 84 24 c8
	02 00 00	 mov	 rax, QWORD PTR cif$[rsp]
  002d4	48 8b 50 10	 mov	 rdx, QWORD PTR [rax+16]
  002d8	8b 8c 24 f0 02
	00 00		 mov	 ecx, DWORD PTR trklen$[rsp]
  002df	e8 00 00 00 00	 call	 init_track

; 4013 : 
; 4014 :             /* Write track to output file */
; 4015 :             rc = write_track (cif, ofname, heads, trklen,

  002e4	48 8d 84 24 00
	03 00 00	 lea	 rax, QWORD PTR outhead$[rsp]
  002ec	48 89 44 24 38	 mov	 QWORD PTR [rsp+56], rax
  002f1	48 8d 84 24 f8
	02 00 00	 lea	 rax, QWORD PTR outcyl$[rsp]
  002f9	48 89 44 24 30	 mov	 QWORD PTR [rsp+48], rax
  002fe	48 8d 84 24 b8
	00 00 00	 lea	 rax, QWORD PTR tracks$[rsp]
  00306	48 89 44 24 28	 mov	 QWORD PTR [rsp+40], rax
  0030b	48 8d 84 24 cc
	00 00 00	 lea	 rax, QWORD PTR outusedv$[rsp]
  00313	48 89 44 24 20	 mov	 QWORD PTR [rsp+32], rax
  00318	44 8b 8c 24 f0
	02 00 00	 mov	 r9d, DWORD PTR trklen$[rsp]
  00320	44 8b 84 24 e8
	02 00 00	 mov	 r8d, DWORD PTR heads$[rsp]
  00328	48 8b 94 24 c0
	02 00 00	 mov	 rdx, QWORD PTR ofname$[rsp]
  00330	48 8b 8c 24 c8
	02 00 00	 mov	 rcx, QWORD PTR cif$[rsp]
  00338	e8 00 00 00 00	 call	 write_track
  0033d	89 84 24 b0 00
	00 00		 mov	 DWORD PTR rc$[rsp], eax

; 4016 :                             &outusedv, &tracks, &outcyl, &outhead);
; 4017 :             if (rc < 0) break;

  00344	83 bc 24 b0 00
	00 00 00	 cmp	 DWORD PTR rc$[rsp], 0
  0034c	7d 02		 jge	 SHORT $LN24@process_co
  0034e	eb 05		 jmp	 SHORT $LN5@process_co
$LN24@process_co:

; 4018 : 
; 4019 :         } /* end while */

  00350	e9 3b ff ff ff	 jmp	 $LN4@process_co
$LN5@process_co:

; 4020 : 
; 4021 :         XMINFF (1, MSG( HHC02568, "I", dsname, outcyl, outcyl, outhead, outhead ) );

  00355	8b 84 24 00 03
	00 00		 mov	 eax, DWORD PTR outhead$[rsp]
  0035c	89 44 24 38	 mov	 DWORD PTR [rsp+56], eax
  00360	8b 84 24 00 03
	00 00		 mov	 eax, DWORD PTR outhead$[rsp]
  00367	89 44 24 30	 mov	 DWORD PTR [rsp+48], eax
  0036b	8b 84 24 f8 02
	00 00		 mov	 eax, DWORD PTR outcyl$[rsp]
  00372	89 44 24 28	 mov	 DWORD PTR [rsp+40], eax
  00376	8b 84 24 f8 02
	00 00		 mov	 eax, DWORD PTR outcyl$[rsp]
  0037d	89 44 24 20	 mov	 DWORD PTR [rsp+32], eax
  00381	4c 8d 8c 24 50
	01 00 00	 lea	 r9, QWORD PTR dsname$[rsp]
  00389	4c 8d 05 00 00
	00 00		 lea	 r8, OFFSET FLAT:$SG162599
  00390	48 8d 15 00 00
	00 00		 lea	 rdx, OFFSET FLAT:$SG162600
  00397	b9 01 00 00 00	 mov	 ecx, 1
  0039c	e8 00 00 00 00	 call	 info_msg

; 4022 :         bcyl = outcyl;

  003a1	8b 84 24 f8 02
	00 00		 mov	 eax, DWORD PTR outcyl$[rsp]
  003a8	89 84 24 28 01
	00 00		 mov	 DWORD PTR bcyl$[rsp], eax

; 4023 :         bhead = outhead;

  003af	8b 84 24 00 03
	00 00		 mov	 eax, DWORD PTR outhead$[rsp]
  003b6	89 84 24 24 01
	00 00		 mov	 DWORD PTR bhead$[rsp], eax

; 4024 : 
; 4025 :         /* Calculate minimum size of dataset in tracks */
; 4026 :         mintrks = (units == 'C' ? sppri * heads : sppri);

  003bd	0f b6 84 24 b4
	00 00 00	 movzx	 eax, BYTE PTR units$[rsp]
  003c5	83 f8 43	 cmp	 eax, 67			; 00000043H
  003c8	75 18		 jne	 SHORT $LN52@process_co
  003ca	8b 84 24 10 01
	00 00		 mov	 eax, DWORD PTR sppri$[rsp]
  003d1	0f af 84 24 e8
	02 00 00	 imul	 eax, DWORD PTR heads$[rsp]
  003d9	89 84 24 e8 00
	00 00		 mov	 DWORD PTR tv211[rsp], eax
  003e0	eb 0e		 jmp	 SHORT $LN53@process_co
$LN52@process_co:
  003e2	8b 84 24 10 01
	00 00		 mov	 eax, DWORD PTR sppri$[rsp]
  003e9	89 84 24 e8 00
	00 00		 mov	 DWORD PTR tv211[rsp], eax
$LN53@process_co:
  003f0	8b 84 24 e8 00
	00 00		 mov	 eax, DWORD PTR tv211[rsp]
  003f7	89 84 24 c0 00
	00 00		 mov	 DWORD PTR mintrks$[rsp], eax

; 4027 : 
; 4028 :         /* Create dataset according to method specified */
; 4029 :         switch (method) {

  003fe	0f b6 84 24 b6
	00 00 00	 movzx	 eax, BYTE PTR method$[rsp]
  00406	89 84 24 ec 00
	00 00		 mov	 DWORD PTR tv213[rsp], eax
  0040d	83 bc 24 ec 00
	00 00 06	 cmp	 DWORD PTR tv213[rsp], 6
  00415	0f 87 0f 04 00
	00		 ja	 $LN35@process_co
  0041b	48 63 84 24 ec
	00 00 00	 movsxd	 rax, DWORD PTR tv213[rsp]
  00423	48 8d 0d 00 00
	00 00		 lea	 rcx, OFFSET FLAT:__ImageBase
  0042a	8b 84 81 00 00
	00 00		 mov	 eax, DWORD PTR $LN60@process_co[rcx+rax*4]
  00431	48 03 c1	 add	 rax, rcx
  00434	ff e0		 jmp	 rax
$LN25@process_co:
$LN26@process_co:

; 4030 : 
; 4031 :         case METHOD_XMIT:               /* IEBCOPY wrapped in XMIT */
; 4032 :         case METHOD_VS:                 /* "straight" IEBCOPY */
; 4033 :             /* Create dataset using IEBCOPY file as input */
; 4034 :             maxtrks = MAX_TRACKS;

  00436	c7 84 24 14 01
	00 00 ff 7f 00
	00		 mov	 DWORD PTR maxtrks$[rsp], 32767 ; 00007fffH

; 4035 :             rc = process_iebcopy_file (ifname, ofname, cif,

  00441	48 8d 84 24 00
	03 00 00	 lea	 rax, QWORD PTR outhead$[rsp]
  00449	48 89 84 24 a0
	00 00 00	 mov	 QWORD PTR [rsp+160], rax
  00451	48 8d 84 24 f8
	02 00 00	 lea	 rax, QWORD PTR outcyl$[rsp]
  00459	48 89 84 24 98
	00 00 00	 mov	 QWORD PTR [rsp+152], rax
  00461	48 8d 84 24 b8
	00 00 00	 lea	 rax, QWORD PTR tracks$[rsp]
  00469	48 89 84 24 90
	00 00 00	 mov	 QWORD PTR [rsp+144], rax
  00471	48 8d 84 24 c4
	00 00 00	 lea	 rax, QWORD PTR trkbal$[rsp]
  00479	48 89 84 24 88
	00 00 00	 mov	 QWORD PTR [rsp+136], rax
  00481	48 8d 84 24 c8
	00 00 00	 lea	 rax, QWORD PTR lastrec$[rsp]
  00489	48 89 84 24 80
	00 00 00	 mov	 QWORD PTR [rsp+128], rax
  00491	48 8d 84 24 fc
	00 00 00	 lea	 rax, QWORD PTR dirblu$[rsp]
  00499	48 89 44 24 78	 mov	 QWORD PTR [rsp+120], rax
  0049e	48 8d 84 24 d4
	00 00 00	 lea	 rax, QWORD PTR keyln$[rsp]
  004a6	48 89 44 24 70	 mov	 QWORD PTR [rsp+112], rax
  004ab	48 8d 84 24 d8
	00 00 00	 lea	 rax, QWORD PTR blksz$[rsp]
  004b3	48 89 44 24 68	 mov	 QWORD PTR [rsp+104], rax
  004b8	48 8d 84 24 dc
	00 00 00	 lea	 rax, QWORD PTR lrecl$[rsp]
  004c0	48 89 44 24 60	 mov	 QWORD PTR [rsp+96], rax
  004c5	48 8d 84 24 b7
	00 00 00	 lea	 rax, QWORD PTR recfm$[rsp]
  004cd	48 89 44 24 58	 mov	 QWORD PTR [rsp+88], rax
  004d2	48 8d 84 24 b5
	00 00 00	 lea	 rax, QWORD PTR dsorg$[rsp]
  004da	48 89 44 24 50	 mov	 QWORD PTR [rsp+80], rax
  004df	0f b6 84 24 b6
	00 00 00	 movzx	 eax, BYTE PTR method$[rsp]
  004e7	88 44 24 48	 mov	 BYTE PTR [rsp+72], al
  004eb	8b 84 24 14 01
	00 00		 mov	 eax, DWORD PTR maxtrks$[rsp]
  004f2	89 44 24 40	 mov	 DWORD PTR [rsp+64], eax
  004f6	8b 84 24 00 03
	00 00		 mov	 eax, DWORD PTR outhead$[rsp]
  004fd	89 44 24 38	 mov	 DWORD PTR [rsp+56], eax
  00501	8b 84 24 f8 02
	00 00		 mov	 eax, DWORD PTR outcyl$[rsp]
  00508	89 44 24 30	 mov	 DWORD PTR [rsp+48], eax
  0050c	8b 84 24 f0 02
	00 00		 mov	 eax, DWORD PTR trklen$[rsp]
  00513	89 44 24 28	 mov	 DWORD PTR [rsp+40], eax
  00517	8b 84 24 e8 02
	00 00		 mov	 eax, DWORD PTR heads$[rsp]
  0051e	89 44 24 20	 mov	 DWORD PTR [rsp+32], eax
  00522	44 0f b7 8c 24
	d8 02 00 00	 movzx	 r9d, WORD PTR devtype$[rsp]
  0052b	4c 8b 84 24 c8
	02 00 00	 mov	 r8, QWORD PTR cif$[rsp]
  00533	48 8b 94 24 c0
	02 00 00	 mov	 rdx, QWORD PTR ofname$[rsp]
  0053b	48 8b 8c 24 38
	01 00 00	 mov	 rcx, QWORD PTR ifname$[rsp]
  00543	e8 00 00 00 00	 call	 process_iebcopy_file
  00548	89 84 24 b0 00
	00 00		 mov	 DWORD PTR rc$[rsp], eax

; 4036 :                                     devtype, heads, trklen,
; 4037 :                                     outcyl, outhead, maxtrks,
; 4038 :                                     method,
; 4039 :                                     &dsorg, &recfm,
; 4040 :                                     &lrecl, &blksz, &keyln,
; 4041 :                                     &dirblu, &lastrec, &trkbal,
; 4042 :                                     &tracks, &outcyl, &outhead);
; 4043 :             if (rc < 0) return -1;

  0054f	83 bc 24 b0 00
	00 00 00	 cmp	 DWORD PTR rc$[rsp], 0
  00557	7d 0a		 jge	 SHORT $LN27@process_co
  00559	b8 ff ff ff ff	 mov	 eax, -1
  0055e	e9 88 0a 00 00	 jmp	 $LN1@process_co
$LN27@process_co:

; 4044 :             break;

  00563	e9 94 03 00 00	 jmp	 $LN6@process_co
$LN28@process_co:

; 4045 : 
; 4046 :         case METHOD_DIP:
; 4047 :             /* Initialize LOGREC dataset */
; 4048 :             rc = dip_initialize (ofname, cif,

  00568	48 8d 84 24 00
	03 00 00	 lea	 rax, QWORD PTR outhead$[rsp]
  00570	48 89 44 24 60	 mov	 QWORD PTR [rsp+96], rax
  00575	48 8d 84 24 f8
	02 00 00	 lea	 rax, QWORD PTR outcyl$[rsp]
  0057d	48 89 44 24 58	 mov	 QWORD PTR [rsp+88], rax
  00582	48 8d 84 24 b8
	00 00 00	 lea	 rax, QWORD PTR tracks$[rsp]
  0058a	48 89 44 24 50	 mov	 QWORD PTR [rsp+80], rax
  0058f	48 8d 84 24 c4
	00 00 00	 lea	 rax, QWORD PTR trkbal$[rsp]
  00597	48 89 44 24 48	 mov	 QWORD PTR [rsp+72], rax
  0059c	48 8d 84 24 c8
	00 00 00	 lea	 rax, QWORD PTR lastrec$[rsp]
  005a4	48 89 44 24 40	 mov	 QWORD PTR [rsp+64], rax
  005a9	8b 84 24 c0 00
	00 00		 mov	 eax, DWORD PTR mintrks$[rsp]
  005b0	89 44 24 38	 mov	 DWORD PTR [rsp+56], eax
  005b4	8b 84 24 00 03
	00 00		 mov	 eax, DWORD PTR outhead$[rsp]
  005bb	89 44 24 30	 mov	 DWORD PTR [rsp+48], eax
  005bf	8b 84 24 f8 02
	00 00		 mov	 eax, DWORD PTR outcyl$[rsp]
  005c6	89 44 24 28	 mov	 DWORD PTR [rsp+40], eax
  005ca	8b 84 24 f0 02
	00 00		 mov	 eax, DWORD PTR trklen$[rsp]
  005d1	89 44 24 20	 mov	 DWORD PTR [rsp+32], eax
  005d5	44 8b 8c 24 e8
	02 00 00	 mov	 r9d, DWORD PTR heads$[rsp]
  005dd	44 0f b7 84 24
	d8 02 00 00	 movzx	 r8d, WORD PTR devtype$[rsp]
  005e6	48 8b 94 24 c8
	02 00 00	 mov	 rdx, QWORD PTR cif$[rsp]
  005ee	48 8b 8c 24 c0
	02 00 00	 mov	 rcx, QWORD PTR ofname$[rsp]
  005f6	e8 00 00 00 00	 call	 dip_initialize
  005fb	89 84 24 b0 00
	00 00		 mov	 DWORD PTR rc$[rsp], eax

; 4049 :                                     devtype, heads, trklen,
; 4050 :                                     outcyl, outhead, mintrks,
; 4051 :                                     &lastrec, &trkbal,
; 4052 :                                     &tracks, &outcyl, &outhead);
; 4053 :             if (rc < 0) return -1;

  00602	83 bc 24 b0 00
	00 00 00	 cmp	 DWORD PTR rc$[rsp], 0
  0060a	7d 0a		 jge	 SHORT $LN29@process_co
  0060c	b8 ff ff ff ff	 mov	 eax, -1
  00611	e9 d5 09 00 00	 jmp	 $LN1@process_co
$LN29@process_co:

; 4054 :             break;

  00616	e9 e1 02 00 00	 jmp	 $LN6@process_co
$LN30@process_co:

; 4055 : 
; 4056 :         case METHOD_CVOL:
; 4057 :             /* Initialize SYSCTLG dataset */
; 4058 :             rc = cvol_initialize (ofname, cif, volser,

  0061b	48 8d 84 24 00
	03 00 00	 lea	 rax, QWORD PTR outhead$[rsp]
  00623	48 89 44 24 68	 mov	 QWORD PTR [rsp+104], rax
  00628	48 8d 84 24 f8
	02 00 00	 lea	 rax, QWORD PTR outcyl$[rsp]
  00630	48 89 44 24 60	 mov	 QWORD PTR [rsp+96], rax
  00635	48 8d 84 24 b8
	00 00 00	 lea	 rax, QWORD PTR tracks$[rsp]
  0063d	48 89 44 24 58	 mov	 QWORD PTR [rsp+88], rax
  00642	48 8d 84 24 c4
	00 00 00	 lea	 rax, QWORD PTR trkbal$[rsp]
  0064a	48 89 44 24 50	 mov	 QWORD PTR [rsp+80], rax
  0064f	48 8d 84 24 c8
	00 00 00	 lea	 rax, QWORD PTR lastrec$[rsp]
  00657	48 89 44 24 48	 mov	 QWORD PTR [rsp+72], rax
  0065c	8b 84 24 c0 00
	00 00		 mov	 eax, DWORD PTR mintrks$[rsp]
  00663	89 44 24 40	 mov	 DWORD PTR [rsp+64], eax
  00667	8b 84 24 00 03
	00 00		 mov	 eax, DWORD PTR outhead$[rsp]
  0066e	89 44 24 38	 mov	 DWORD PTR [rsp+56], eax
  00672	8b 84 24 f8 02
	00 00		 mov	 eax, DWORD PTR outcyl$[rsp]
  00679	89 44 24 30	 mov	 DWORD PTR [rsp+48], eax
  0067d	8b 84 24 f0 02
	00 00		 mov	 eax, DWORD PTR trklen$[rsp]
  00684	89 44 24 28	 mov	 DWORD PTR [rsp+40], eax
  00688	8b 84 24 e8 02
	00 00		 mov	 eax, DWORD PTR heads$[rsp]
  0068f	89 44 24 20	 mov	 DWORD PTR [rsp+32], eax
  00693	44 0f b7 8c 24
	d8 02 00 00	 movzx	 r9d, WORD PTR devtype$[rsp]
  0069c	4c 8b 84 24 d0
	02 00 00	 mov	 r8, QWORD PTR volser$[rsp]
  006a4	48 8b 94 24 c8
	02 00 00	 mov	 rdx, QWORD PTR cif$[rsp]
  006ac	48 8b 8c 24 c0
	02 00 00	 mov	 rcx, QWORD PTR ofname$[rsp]
  006b4	e8 00 00 00 00	 call	 cvol_initialize
  006b9	89 84 24 b0 00
	00 00		 mov	 DWORD PTR rc$[rsp], eax

; 4059 :                                     devtype, heads, trklen,
; 4060 :                                     outcyl, outhead, mintrks,
; 4061 :                                     &lastrec, &trkbal,
; 4062 :                                     &tracks, &outcyl, &outhead);
; 4063 :             if (rc < 0) return -1;

  006c0	83 bc 24 b0 00
	00 00 00	 cmp	 DWORD PTR rc$[rsp], 0
  006c8	7d 0a		 jge	 SHORT $LN31@process_co
  006ca	b8 ff ff ff ff	 mov	 eax, -1
  006cf	e9 17 09 00 00	 jmp	 $LN1@process_co
$LN31@process_co:

; 4064 :             break;

  006d4	e9 23 02 00 00	 jmp	 $LN6@process_co
$LN32@process_co:

; 4065 : 
; 4066 :         case METHOD_VTOC:
; 4067 :             /* Reserve space for VTOC */
; 4068 :             vtoctrk = (outcyl * heads) + outhead;

  006d9	8b 84 24 f8 02
	00 00		 mov	 eax, DWORD PTR outcyl$[rsp]
  006e0	0f af 84 24 e8
	02 00 00	 imul	 eax, DWORD PTR heads$[rsp]
  006e8	03 84 24 00 03
	00 00		 add	 eax, DWORD PTR outhead$[rsp]
  006ef	89 84 24 04 01
	00 00		 mov	 DWORD PTR vtoctrk$[rsp], eax

; 4069 :             vtocext = mintrks;

  006f6	8b 84 24 c0 00
	00 00		 mov	 eax, DWORD PTR mintrks$[rsp]
  006fd	89 84 24 00 01
	00 00		 mov	 DWORD PTR vtocext$[rsp], eax

; 4070 :             tracks = 0;

  00704	c7 84 24 b8 00
	00 00 00 00 00
	00		 mov	 DWORD PTR tracks$[rsp], 0

; 4071 :             lastrec = 0;

  0070f	c7 84 24 c8 00
	00 00 00 00 00
	00		 mov	 DWORD PTR lastrec$[rsp], 0

; 4072 :             trkbal = 0;

  0071a	c7 84 24 c4 00
	00 00 00 00 00
	00		 mov	 DWORD PTR trkbal$[rsp], 0

; 4073 :             break;

  00725	e9 d2 01 00 00	 jmp	 $LN6@process_co
$LN33@process_co:

; 4074 : 
; 4075 :         case METHOD_SEQ:
; 4076 :             /* Create sequential dataset */
; 4077 :             rc = seq_initialize (ifname, ofname, cif,

  0072a	48 8d 84 24 00
	03 00 00	 lea	 rax, QWORD PTR outhead$[rsp]
  00732	48 89 84 24 90
	00 00 00	 mov	 QWORD PTR [rsp+144], rax
  0073a	48 8d 84 24 f8
	02 00 00	 lea	 rax, QWORD PTR outcyl$[rsp]
  00742	48 89 84 24 88
	00 00 00	 mov	 QWORD PTR [rsp+136], rax
  0074a	48 8d 84 24 b8
	00 00 00	 lea	 rax, QWORD PTR tracks$[rsp]
  00752	48 89 84 24 80
	00 00 00	 mov	 QWORD PTR [rsp+128], rax
  0075a	48 8d 84 24 c4
	00 00 00	 lea	 rax, QWORD PTR trkbal$[rsp]
  00762	48 89 44 24 78	 mov	 QWORD PTR [rsp+120], rax
  00767	48 8d 84 24 c8
	00 00 00	 lea	 rax, QWORD PTR lastrec$[rsp]
  0076f	48 89 44 24 70	 mov	 QWORD PTR [rsp+112], rax
  00774	8b 84 24 d4 00
	00 00		 mov	 eax, DWORD PTR keyln$[rsp]
  0077b	89 44 24 68	 mov	 DWORD PTR [rsp+104], eax
  0077f	8b 84 24 d8 00
	00 00		 mov	 eax, DWORD PTR blksz$[rsp]
  00786	89 44 24 60	 mov	 DWORD PTR [rsp+96], eax
  0078a	8b 84 24 dc 00
	00 00		 mov	 eax, DWORD PTR lrecl$[rsp]
  00791	89 44 24 58	 mov	 DWORD PTR [rsp+88], eax
  00795	0f b6 84 24 b7
	00 00 00	 movzx	 eax, BYTE PTR recfm$[rsp]
  0079d	88 44 24 50	 mov	 BYTE PTR [rsp+80], al
  007a1	0f b6 84 24 b5
	00 00 00	 movzx	 eax, BYTE PTR dsorg$[rsp]
  007a9	88 44 24 48	 mov	 BYTE PTR [rsp+72], al
  007ad	8b 84 24 c0 00
	00 00		 mov	 eax, DWORD PTR mintrks$[rsp]
  007b4	89 44 24 40	 mov	 DWORD PTR [rsp+64], eax
  007b8	8b 84 24 00 03
	00 00		 mov	 eax, DWORD PTR outhead$[rsp]
  007bf	89 44 24 38	 mov	 DWORD PTR [rsp+56], eax
  007c3	8b 84 24 f8 02
	00 00		 mov	 eax, DWORD PTR outcyl$[rsp]
  007ca	89 44 24 30	 mov	 DWORD PTR [rsp+48], eax
  007ce	8b 84 24 f0 02
	00 00		 mov	 eax, DWORD PTR trklen$[rsp]
  007d5	89 44 24 28	 mov	 DWORD PTR [rsp+40], eax
  007d9	8b 84 24 e8 02
	00 00		 mov	 eax, DWORD PTR heads$[rsp]
  007e0	89 44 24 20	 mov	 DWORD PTR [rsp+32], eax
  007e4	44 0f b7 8c 24
	d8 02 00 00	 movzx	 r9d, WORD PTR devtype$[rsp]
  007ed	4c 8b 84 24 c8
	02 00 00	 mov	 r8, QWORD PTR cif$[rsp]
  007f5	48 8b 94 24 c0
	02 00 00	 mov	 rdx, QWORD PTR ofname$[rsp]
  007fd	48 8b 8c 24 38
	01 00 00	 mov	 rcx, QWORD PTR ifname$[rsp]
  00805	e8 00 00 00 00	 call	 seq_initialize
  0080a	89 84 24 b0 00
	00 00		 mov	 DWORD PTR rc$[rsp], eax

; 4078 :                                     devtype, heads, trklen,
; 4079 :                                     outcyl, outhead, mintrks,
; 4080 :                                     dsorg, recfm, lrecl, blksz,
; 4081 :                                     keyln, &lastrec, &trkbal,
; 4082 :                                     &tracks, &outcyl, &outhead);
; 4083 :             if (rc < 0) return -1;

  00811	83 bc 24 b0 00
	00 00 00	 cmp	 DWORD PTR rc$[rsp], 0
  00819	7d 0a		 jge	 SHORT $LN34@process_co
  0081b	b8 ff ff ff ff	 mov	 eax, -1
  00820	e9 c6 07 00 00	 jmp	 $LN1@process_co
$LN34@process_co:

; 4084 :             break;

  00825	e9 d2 00 00 00	 jmp	 $LN6@process_co
$LN35@process_co:
$LN36@process_co:

; 4085 : 
; 4086 :         default:
; 4087 :         case METHOD_EMPTY:
; 4088 :             /* Create empty dataset */
; 4089 :             rc = empty_initialize (ofname, cif,

  0082a	48 8d 84 24 00
	03 00 00	 lea	 rax, QWORD PTR outhead$[rsp]
  00832	48 89 44 24 78	 mov	 QWORD PTR [rsp+120], rax
  00837	48 8d 84 24 f8
	02 00 00	 lea	 rax, QWORD PTR outcyl$[rsp]
  0083f	48 89 44 24 70	 mov	 QWORD PTR [rsp+112], rax
  00844	48 8d 84 24 b8
	00 00 00	 lea	 rax, QWORD PTR tracks$[rsp]
  0084c	48 89 44 24 68	 mov	 QWORD PTR [rsp+104], rax
  00851	48 8d 84 24 c4
	00 00 00	 lea	 rax, QWORD PTR trkbal$[rsp]
  00859	48 89 44 24 60	 mov	 QWORD PTR [rsp+96], rax
  0085e	48 8d 84 24 c8
	00 00 00	 lea	 rax, QWORD PTR lastrec$[rsp]
  00866	48 89 44 24 58	 mov	 QWORD PTR [rsp+88], rax
  0086b	48 8d 84 24 fc
	00 00 00	 lea	 rax, QWORD PTR dirblu$[rsp]
  00873	48 89 44 24 50	 mov	 QWORD PTR [rsp+80], rax
  00878	8b 84 24 18 01
	00 00		 mov	 eax, DWORD PTR spdir$[rsp]
  0087f	89 44 24 48	 mov	 DWORD PTR [rsp+72], eax
  00883	0f b6 84 24 b5
	00 00 00	 movzx	 eax, BYTE PTR dsorg$[rsp]
  0088b	88 44 24 40	 mov	 BYTE PTR [rsp+64], al
  0088f	8b 84 24 c0 00
	00 00		 mov	 eax, DWORD PTR mintrks$[rsp]
  00896	89 44 24 38	 mov	 DWORD PTR [rsp+56], eax
  0089a	8b 84 24 00 03
	00 00		 mov	 eax, DWORD PTR outhead$[rsp]
  008a1	89 44 24 30	 mov	 DWORD PTR [rsp+48], eax
  008a5	8b 84 24 f8 02
	00 00		 mov	 eax, DWORD PTR outcyl$[rsp]
  008ac	89 44 24 28	 mov	 DWORD PTR [rsp+40], eax
  008b0	8b 84 24 f0 02
	00 00		 mov	 eax, DWORD PTR trklen$[rsp]
  008b7	89 44 24 20	 mov	 DWORD PTR [rsp+32], eax
  008bb	44 8b 8c 24 e8
	02 00 00	 mov	 r9d, DWORD PTR heads$[rsp]
  008c3	44 0f b7 84 24
	d8 02 00 00	 movzx	 r8d, WORD PTR devtype$[rsp]
  008cc	48 8b 94 24 c8
	02 00 00	 mov	 rdx, QWORD PTR cif$[rsp]
  008d4	48 8b 8c 24 c0
	02 00 00	 mov	 rcx, QWORD PTR ofname$[rsp]
  008dc	e8 00 00 00 00	 call	 empty_initialize
  008e1	89 84 24 b0 00
	00 00		 mov	 DWORD PTR rc$[rsp], eax

; 4090 :                                     devtype, heads, trklen,
; 4091 :                                     outcyl, outhead, mintrks,
; 4092 :                                     dsorg, spdir,
; 4093 :                                     &dirblu, &lastrec, &trkbal,
; 4094 :                                     &tracks, &outcyl, &outhead);
; 4095 :             if (rc < 0) return -1;

  008e8	83 bc 24 b0 00
	00 00 00	 cmp	 DWORD PTR rc$[rsp], 0
  008f0	7d 0a		 jge	 SHORT $LN37@process_co
  008f2	b8 ff ff ff ff	 mov	 eax, -1
  008f7	e9 ef 06 00 00	 jmp	 $LN1@process_co
$LN37@process_co:
$LN6@process_co:

; 4096 :             break;
; 4097 : 
; 4098 :         } /* end switch(method) */
; 4099 : 
; 4100 :         /* Calculate the relative track number of last used track */
; 4101 :         lasttrk = tracks - 1;

  008fc	8b 84 24 b8 00
	00 00		 mov	 eax, DWORD PTR tracks$[rsp]
  00903	ff c8		 dec	 eax
  00905	89 84 24 30 01
	00 00		 mov	 DWORD PTR lasttrk$[rsp], eax

; 4102 : 
; 4103 :         /* Round up space allocation if allocated in cylinders */
; 4104 :         if (units == 'C')

  0090c	0f b6 84 24 b4
	00 00 00	 movzx	 eax, BYTE PTR units$[rsp]
  00914	83 f8 43	 cmp	 eax, 67			; 00000043H
  00917	75 47		 jne	 SHORT $LN38@process_co

; 4105 :         {
; 4106 :             n = (tracks + heads - 1) / heads * heads;

  00919	8b 84 24 b8 00
	00 00		 mov	 eax, DWORD PTR tracks$[rsp]
  00920	8b 8c 24 e8 02
	00 00		 mov	 ecx, DWORD PTR heads$[rsp]
  00927	8d 44 08 ff	 lea	 eax, DWORD PTR [rax+rcx-1]
  0092b	99		 cdq
  0092c	f7 bc 24 e8 02
	00 00		 idiv	 DWORD PTR heads$[rsp]
  00933	0f af 84 24 e8
	02 00 00	 imul	 eax, DWORD PTR heads$[rsp]
  0093b	89 84 24 f0 00
	00 00		 mov	 DWORD PTR n$[rsp], eax

; 4107 :             if (mintrks < n) mintrks = n;

  00942	8b 84 24 f0 00
	00 00		 mov	 eax, DWORD PTR n$[rsp]
  00949	39 84 24 c0 00
	00 00		 cmp	 DWORD PTR mintrks$[rsp], eax
  00950	7d 0e		 jge	 SHORT $LN39@process_co
  00952	8b 84 24 f0 00
	00 00		 mov	 eax, DWORD PTR n$[rsp]
  00959	89 84 24 c0 00
	00 00		 mov	 DWORD PTR mintrks$[rsp], eax
$LN39@process_co:
$LN38@process_co:
$LN8@process_co:

; 4108 :         }
; 4109 : 
; 4110 :         /* Fill unused space in dataset with empty tracks */
; 4111 :         while (tracks < mintrks)

  00960	8b 84 24 c0 00
	00 00		 mov	 eax, DWORD PTR mintrks$[rsp]
  00967	39 84 24 b8 00
	00 00		 cmp	 DWORD PTR tracks$[rsp], eax
  0096e	0f 8d ae 00 00
	00		 jge	 $LN9@process_co

; 4112 :         {
; 4113 :             /* Initialize track buffer with empty track */
; 4114 :             init_track (trklen, cif->trkbuf, outcyl, outhead, &outusedv);

  00974	48 8d 84 24 cc
	00 00 00	 lea	 rax, QWORD PTR outusedv$[rsp]
  0097c	48 89 44 24 20	 mov	 QWORD PTR [rsp+32], rax
  00981	44 8b 8c 24 00
	03 00 00	 mov	 r9d, DWORD PTR outhead$[rsp]
  00989	44 8b 84 24 f8
	02 00 00	 mov	 r8d, DWORD PTR outcyl$[rsp]
  00991	48 8b 84 24 c8
	02 00 00	 mov	 rax, QWORD PTR cif$[rsp]
  00999	48 8b 50 10	 mov	 rdx, QWORD PTR [rax+16]
  0099d	8b 8c 24 f0 02
	00 00		 mov	 ecx, DWORD PTR trklen$[rsp]
  009a4	e8 00 00 00 00	 call	 init_track

; 4115 : 
; 4116 :             /* Write track to output file */
; 4117 :             rc = write_track (cif, ofname, heads, trklen,

  009a9	48 8d 84 24 00
	03 00 00	 lea	 rax, QWORD PTR outhead$[rsp]
  009b1	48 89 44 24 38	 mov	 QWORD PTR [rsp+56], rax
  009b6	48 8d 84 24 f8
	02 00 00	 lea	 rax, QWORD PTR outcyl$[rsp]
  009be	48 89 44 24 30	 mov	 QWORD PTR [rsp+48], rax
  009c3	48 8d 84 24 b8
	00 00 00	 lea	 rax, QWORD PTR tracks$[rsp]
  009cb	48 89 44 24 28	 mov	 QWORD PTR [rsp+40], rax
  009d0	48 8d 84 24 cc
	00 00 00	 lea	 rax, QWORD PTR outusedv$[rsp]
  009d8	48 89 44 24 20	 mov	 QWORD PTR [rsp+32], rax
  009dd	44 8b 8c 24 f0
	02 00 00	 mov	 r9d, DWORD PTR trklen$[rsp]
  009e5	44 8b 84 24 e8
	02 00 00	 mov	 r8d, DWORD PTR heads$[rsp]
  009ed	48 8b 94 24 c0
	02 00 00	 mov	 rdx, QWORD PTR ofname$[rsp]
  009f5	48 8b 8c 24 c8
	02 00 00	 mov	 rcx, QWORD PTR cif$[rsp]
  009fd	e8 00 00 00 00	 call	 write_track
  00a02	89 84 24 b0 00
	00 00		 mov	 DWORD PTR rc$[rsp], eax

; 4118 :                             &outusedv, &tracks, &outcyl, &outhead);
; 4119 :             if (rc < 0) return -1;

  00a09	83 bc 24 b0 00
	00 00 00	 cmp	 DWORD PTR rc$[rsp], 0
  00a11	7d 0a		 jge	 SHORT $LN40@process_co
  00a13	b8 ff ff ff ff	 mov	 eax, -1
  00a18	e9 ce 05 00 00	 jmp	 $LN1@process_co
$LN40@process_co:

; 4120 : 
; 4121 :         } /* end while(tracks) */

  00a1d	e9 3e ff ff ff	 jmp	 $LN8@process_co
$LN9@process_co:

; 4122 : 
; 4123 :         /* Print number of tracks written to dataset */
; 4124 :         XMINFF (2, MSG( HHC02589, "I", dsname, tracks, (tracks == 1 ? "" : "s") ) );

  00a22	83 bc 24 b8 00
	00 00 01	 cmp	 DWORD PTR tracks$[rsp], 1
  00a2a	75 11		 jne	 SHORT $LN54@process_co
  00a2c	48 8d 05 00 00
	00 00		 lea	 rax, OFFSET FLAT:$SG162617
  00a33	48 89 84 24 40
	01 00 00	 mov	 QWORD PTR tv336[rsp], rax
  00a3b	eb 0f		 jmp	 SHORT $LN55@process_co
$LN54@process_co:
  00a3d	48 8d 05 00 00
	00 00		 lea	 rax, OFFSET FLAT:$SG162618
  00a44	48 89 84 24 40
	01 00 00	 mov	 QWORD PTR tv336[rsp], rax
$LN55@process_co:
  00a4c	48 8b 84 24 40
	01 00 00	 mov	 rax, QWORD PTR tv336[rsp]
  00a54	48 89 44 24 28	 mov	 QWORD PTR [rsp+40], rax
  00a59	8b 84 24 b8 00
	00 00		 mov	 eax, DWORD PTR tracks$[rsp]
  00a60	89 44 24 20	 mov	 DWORD PTR [rsp+32], eax
  00a64	4c 8d 8c 24 50
	01 00 00	 lea	 r9, QWORD PTR dsname$[rsp]
  00a6c	4c 8d 05 00 00
	00 00		 lea	 r8, OFFSET FLAT:$SG162619
  00a73	48 8d 15 00 00
	00 00		 lea	 rdx, OFFSET FLAT:$SG162620
  00a7a	b9 02 00 00 00	 mov	 ecx, 2
  00a7f	e8 00 00 00 00	 call	 info_msg

; 4125 : 
; 4126 :         /* Calculate end of extent cylinder and head */
; 4127 :         ecyl = (outhead > 0 ? outcyl : outcyl - 1);

  00a84	83 bc 24 00 03
	00 00 00	 cmp	 DWORD PTR outhead$[rsp], 0
  00a8c	7e 10		 jle	 SHORT $LN56@process_co
  00a8e	8b 84 24 f8 02
	00 00		 mov	 eax, DWORD PTR outcyl$[rsp]
  00a95	89 84 24 f4 00
	00 00		 mov	 DWORD PTR tv345[rsp], eax
  00a9c	eb 10		 jmp	 SHORT $LN57@process_co
$LN56@process_co:
  00a9e	8b 84 24 f8 02
	00 00		 mov	 eax, DWORD PTR outcyl$[rsp]
  00aa5	ff c8		 dec	 eax
  00aa7	89 84 24 f4 00
	00 00		 mov	 DWORD PTR tv345[rsp], eax
$LN57@process_co:
  00aae	8b 84 24 f4 00
	00 00		 mov	 eax, DWORD PTR tv345[rsp]
  00ab5	89 84 24 20 01
	00 00		 mov	 DWORD PTR ecyl$[rsp], eax

; 4128 :         ehead = (outhead > 0 ? outhead - 1 : heads - 1);

  00abc	83 bc 24 00 03
	00 00 00	 cmp	 DWORD PTR outhead$[rsp], 0
  00ac4	7e 12		 jle	 SHORT $LN58@process_co
  00ac6	8b 84 24 00 03
	00 00		 mov	 eax, DWORD PTR outhead$[rsp]
  00acd	ff c8		 dec	 eax
  00acf	89 84 24 f8 00
	00 00		 mov	 DWORD PTR tv349[rsp], eax
  00ad6	eb 10		 jmp	 SHORT $LN59@process_co
$LN58@process_co:
  00ad8	8b 84 24 e8 02
	00 00		 mov	 eax, DWORD PTR heads$[rsp]
  00adf	ff c8		 dec	 eax
  00ae1	89 84 24 f8 00
	00 00		 mov	 DWORD PTR tv349[rsp], eax
$LN59@process_co:
  00ae8	8b 84 24 f8 00
	00 00		 mov	 eax, DWORD PTR tv349[rsp]
  00aef	89 84 24 1c 01
	00 00		 mov	 DWORD PTR ehead$[rsp], eax

; 4129 : 
; 4130 :         /* Create format 1 DSCB for the dataset */
; 4131 :         if (method != METHOD_VTOC)

  00af6	0f b6 84 24 b6
	00 00 00	 movzx	 eax, BYTE PTR method$[rsp]
  00afe	83 f8 04	 cmp	 eax, 4
  00b01	0f 84 00 01 00
	00		 je	 $LN41@process_co

; 4132 :         {
; 4133 :             rc = build_format1_dscb (dscbtab, numdscb, dsname, volser,

  00b07	8b 84 24 1c 01
	00 00		 mov	 eax, DWORD PTR ehead$[rsp]
  00b0e	89 84 24 90 00
	00 00		 mov	 DWORD PTR [rsp+144], eax
  00b15	8b 84 24 20 01
	00 00		 mov	 eax, DWORD PTR ecyl$[rsp]
  00b1c	89 84 24 88 00
	00 00		 mov	 DWORD PTR [rsp+136], eax
  00b23	8b 84 24 24 01
	00 00		 mov	 eax, DWORD PTR bhead$[rsp]
  00b2a	89 84 24 80 00
	00 00		 mov	 DWORD PTR [rsp+128], eax
  00b31	8b 84 24 28 01
	00 00		 mov	 eax, DWORD PTR bcyl$[rsp]
  00b38	89 44 24 78	 mov	 DWORD PTR [rsp+120], eax
  00b3c	8b 84 24 2c 01
	00 00		 mov	 eax, DWORD PTR spsec$[rsp]
  00b43	89 44 24 70	 mov	 DWORD PTR [rsp+112], eax
  00b47	0f b6 84 24 b4
	00 00 00	 movzx	 eax, BYTE PTR units$[rsp]
  00b4f	88 44 24 68	 mov	 BYTE PTR [rsp+104], al
  00b53	8b 84 24 c4 00
	00 00		 mov	 eax, DWORD PTR trkbal$[rsp]
  00b5a	89 44 24 60	 mov	 DWORD PTR [rsp+96], eax
  00b5e	8b 84 24 c8 00
	00 00		 mov	 eax, DWORD PTR lastrec$[rsp]
  00b65	89 44 24 58	 mov	 DWORD PTR [rsp+88], eax
  00b69	8b 84 24 30 01
	00 00		 mov	 eax, DWORD PTR lasttrk$[rsp]
  00b70	89 44 24 50	 mov	 DWORD PTR [rsp+80], eax
  00b74	8b 84 24 fc 00
	00 00		 mov	 eax, DWORD PTR dirblu$[rsp]
  00b7b	89 44 24 48	 mov	 DWORD PTR [rsp+72], eax
  00b7f	8b 84 24 d4 00
	00 00		 mov	 eax, DWORD PTR keyln$[rsp]
  00b86	89 44 24 40	 mov	 DWORD PTR [rsp+64], eax
  00b8a	8b 84 24 d8 00
	00 00		 mov	 eax, DWORD PTR blksz$[rsp]
  00b91	89 44 24 38	 mov	 DWORD PTR [rsp+56], eax
  00b95	8b 84 24 dc 00
	00 00		 mov	 eax, DWORD PTR lrecl$[rsp]
  00b9c	89 44 24 30	 mov	 DWORD PTR [rsp+48], eax
  00ba0	0f b6 84 24 b7
	00 00 00	 movzx	 eax, BYTE PTR recfm$[rsp]
  00ba8	88 44 24 28	 mov	 BYTE PTR [rsp+40], al
  00bac	0f b6 84 24 b5
	00 00 00	 movzx	 eax, BYTE PTR dsorg$[rsp]
  00bb4	88 44 24 20	 mov	 BYTE PTR [rsp+32], al
  00bb8	4c 8b 8c 24 d0
	02 00 00	 mov	 r9, QWORD PTR volser$[rsp]
  00bc0	4c 8d 84 24 50
	01 00 00	 lea	 r8, QWORD PTR dsname$[rsp]
  00bc8	8b 94 24 bc 00
	00 00		 mov	 edx, DWORD PTR numdscb$[rsp]
  00bcf	48 8b 8c 24 e0
	00 00 00	 mov	 rcx, QWORD PTR dscbtab$[rsp]
  00bd7	e8 00 00 00 00	 call	 build_format1_dscb
  00bdc	89 84 24 b0 00
	00 00		 mov	 DWORD PTR rc$[rsp], eax

; 4134 :                                     dsorg, recfm, lrecl, blksz,
; 4135 :                                     keyln, dirblu, lasttrk, lastrec,
; 4136 :                                     trkbal, units, spsec,
; 4137 :                                     bcyl, bhead, ecyl, ehead);
; 4138 :             if (rc < 0) return -1;

  00be3	83 bc 24 b0 00
	00 00 00	 cmp	 DWORD PTR rc$[rsp], 0
  00beb	7d 0a		 jge	 SHORT $LN42@process_co
  00bed	b8 ff ff ff ff	 mov	 eax, -1
  00bf2	e9 f4 03 00 00	 jmp	 $LN1@process_co
$LN42@process_co:

; 4139 :             numdscb++;

  00bf7	8b 84 24 bc 00
	00 00		 mov	 eax, DWORD PTR numdscb$[rsp]
  00bfe	ff c0		 inc	 eax
  00c00	89 84 24 bc 00
	00 00		 mov	 DWORD PTR numdscb$[rsp], eax
$LN41@process_co:

; 4140 :         }
; 4141 : 
; 4142 :     } /* end while */

  00c07	e9 47 f5 ff ff	 jmp	 $LN2@process_co
$LN3@process_co:

; 4143 : 
; 4144 :     /* Write the VTOC */
; 4145 :     rc = write_vtoc (dscbtab, numdscb, cif, ofname, devtype,

  00c0c	48 8d 84 24 48
	01 00 00	 lea	 rax, QWORD PTR volvtoc$[rsp]
  00c14	48 89 44 24 60	 mov	 QWORD PTR [rsp+96], rax
  00c19	48 8d 84 24 00
	03 00 00	 lea	 rax, QWORD PTR outhead$[rsp]
  00c21	48 89 44 24 58	 mov	 QWORD PTR [rsp+88], rax
  00c26	48 8d 84 24 f8
	02 00 00	 lea	 rax, QWORD PTR outcyl$[rsp]
  00c2e	48 89 44 24 50	 mov	 QWORD PTR [rsp+80], rax
  00c33	8b 84 24 00 01
	00 00		 mov	 eax, DWORD PTR vtocext$[rsp]
  00c3a	89 44 24 48	 mov	 DWORD PTR [rsp+72], eax
  00c3e	8b 84 24 04 01
	00 00		 mov	 eax, DWORD PTR vtoctrk$[rsp]
  00c45	89 44 24 40	 mov	 DWORD PTR [rsp+64], eax
  00c49	8b 84 24 f0 02
	00 00		 mov	 eax, DWORD PTR trklen$[rsp]
  00c50	89 44 24 38	 mov	 DWORD PTR [rsp+56], eax
  00c54	8b 84 24 e8 02
	00 00		 mov	 eax, DWORD PTR heads$[rsp]
  00c5b	89 44 24 30	 mov	 DWORD PTR [rsp+48], eax
  00c5f	8b 84 24 e0 02
	00 00		 mov	 eax, DWORD PTR reqcyls$[rsp]
  00c66	89 44 24 28	 mov	 DWORD PTR [rsp+40], eax
  00c6a	0f b7 84 24 d8
	02 00 00	 movzx	 eax, WORD PTR devtype$[rsp]
  00c72	66 89 44 24 20	 mov	 WORD PTR [rsp+32], ax
  00c77	4c 8b 8c 24 c0
	02 00 00	 mov	 r9, QWORD PTR ofname$[rsp]
  00c7f	4c 8b 84 24 c8
	02 00 00	 mov	 r8, QWORD PTR cif$[rsp]
  00c87	8b 94 24 bc 00
	00 00		 mov	 edx, DWORD PTR numdscb$[rsp]
  00c8e	48 8b 8c 24 e0
	00 00 00	 mov	 rcx, QWORD PTR dscbtab$[rsp]
  00c96	e8 00 00 00 00	 call	 write_vtoc
  00c9b	89 84 24 b0 00
	00 00		 mov	 DWORD PTR rc$[rsp], eax

; 4146 :                     reqcyls, heads, trklen, vtoctrk, vtocext,
; 4147 :                     &outcyl, &outhead, volvtoc);
; 4148 :     if (rc < 0) return -1;

  00ca2	83 bc 24 b0 00
	00 00 00	 cmp	 DWORD PTR rc$[rsp], 0
  00caa	7d 0a		 jge	 SHORT $LN43@process_co
  00cac	b8 ff ff ff ff	 mov	 eax, -1
  00cb1	e9 35 03 00 00	 jmp	 $LN1@process_co
$LN43@process_co:
$LN10@process_co:

; 4149 : 
; 4150 :     /* Write empty tracks up to end of volume */
; 4151 :     while (outhead != 0 || outcyl < reqcyls)

  00cb6	83 bc 24 00 03
	00 00 00	 cmp	 DWORD PTR outhead$[rsp], 0
  00cbe	75 14		 jne	 SHORT $LN44@process_co
  00cc0	8b 84 24 e0 02
	00 00		 mov	 eax, DWORD PTR reqcyls$[rsp]
  00cc7	39 84 24 f8 02
	00 00		 cmp	 DWORD PTR outcyl$[rsp], eax
  00cce	0f 8d 58 01 00
	00		 jge	 $LN11@process_co
$LN44@process_co:

; 4152 :     {
; 4153 :         /* Issue free space information message */
; 4154 :         if (fsflag == 0)

  00cd4	83 bc 24 08 01
	00 00 00	 cmp	 DWORD PTR fsflag$[rsp], 0
  00cdc	75 56		 jne	 SHORT $LN45@process_co

; 4155 :         {
; 4156 :             XMINFF (1, MSG( HHC02568, "I", "****FREE SPACE****", outcyl, outcyl, outhead, outhead ) );

  00cde	8b 84 24 00 03
	00 00		 mov	 eax, DWORD PTR outhead$[rsp]
  00ce5	89 44 24 38	 mov	 DWORD PTR [rsp+56], eax
  00ce9	8b 84 24 00 03
	00 00		 mov	 eax, DWORD PTR outhead$[rsp]
  00cf0	89 44 24 30	 mov	 DWORD PTR [rsp+48], eax
  00cf4	8b 84 24 f8 02
	00 00		 mov	 eax, DWORD PTR outcyl$[rsp]
  00cfb	89 44 24 28	 mov	 DWORD PTR [rsp+40], eax
  00cff	8b 84 24 f8 02
	00 00		 mov	 eax, DWORD PTR outcyl$[rsp]
  00d06	89 44 24 20	 mov	 DWORD PTR [rsp+32], eax
  00d0a	4c 8d 0d 00 00
	00 00		 lea	 r9, OFFSET FLAT:$SG162626
  00d11	4c 8d 05 00 00
	00 00		 lea	 r8, OFFSET FLAT:$SG162627
  00d18	48 8d 15 00 00
	00 00		 lea	 rdx, OFFSET FLAT:$SG162628
  00d1f	b9 01 00 00 00	 mov	 ecx, 1
  00d24	e8 00 00 00 00	 call	 info_msg

; 4157 :             fsflag = 1;

  00d29	c7 84 24 08 01
	00 00 01 00 00
	00		 mov	 DWORD PTR fsflag$[rsp], 1
$LN45@process_co:

; 4158 :         }
; 4159 : 
; 4160 :         /* Indicate output file progess */
; 4161 :         if ((outcyl % 10) == 0)

  00d34	8b 84 24 f8 02
	00 00		 mov	 eax, DWORD PTR outcyl$[rsp]
  00d3b	99		 cdq
  00d3c	b9 0a 00 00 00	 mov	 ecx, 10
  00d41	f7 f9		 idiv	 ecx
  00d43	8b c2		 mov	 eax, edx
  00d45	85 c0		 test	 eax, eax
  00d47	75 35		 jne	 SHORT $LN46@process_co
$LN14@process_co:

; 4162 :         {
; 4163 :             EXTGUIMSG( "OUTCYL=%d\n", outcyl );

  00d49	48 8b 05 00 00
	00 00		 mov	 rax, QWORD PTR __imp_extgui
  00d50	83 38 00	 cmp	 DWORD PTR [rax], 0
  00d53	74 23		 je	 SHORT $LN47@process_co
  00d55	b9 02 00 00 00	 mov	 ecx, 2
  00d5a	ff 15 00 00 00
	00		 call	 QWORD PTR __imp___acrt_iob_func
  00d60	44 8b 84 24 f8
	02 00 00	 mov	 r8d, DWORD PTR outcyl$[rsp]
  00d68	48 8d 15 00 00
	00 00		 lea	 rdx, OFFSET FLAT:$SG162631
  00d6f	48 8b c8	 mov	 rcx, rax
  00d72	ff 15 00 00 00
	00		 call	 QWORD PTR __imp_w32_fprintf
$LN47@process_co:
  00d78	33 c0		 xor	 eax, eax
  00d7a	85 c0		 test	 eax, eax
  00d7c	75 cb		 jne	 SHORT $LN14@process_co
$LN46@process_co:

; 4164 :         }
; 4165 : 
; 4166 :         /* Initialize track buffer with empty track */
; 4167 :         init_track (trklen, cif->trkbuf, outcyl, outhead, &outusedv);

  00d7e	48 8d 84 24 cc
	00 00 00	 lea	 rax, QWORD PTR outusedv$[rsp]
  00d86	48 89 44 24 20	 mov	 QWORD PTR [rsp+32], rax
  00d8b	44 8b 8c 24 00
	03 00 00	 mov	 r9d, DWORD PTR outhead$[rsp]
  00d93	44 8b 84 24 f8
	02 00 00	 mov	 r8d, DWORD PTR outcyl$[rsp]
  00d9b	48 8b 84 24 c8
	02 00 00	 mov	 rax, QWORD PTR cif$[rsp]
  00da3	48 8b 50 10	 mov	 rdx, QWORD PTR [rax+16]
  00da7	8b 8c 24 f0 02
	00 00		 mov	 ecx, DWORD PTR trklen$[rsp]
  00dae	e8 00 00 00 00	 call	 init_track

; 4168 : 
; 4169 :         /* Write track to output file */
; 4170 :         rc = write_track (cif, ofname, heads, trklen,

  00db3	48 8d 84 24 00
	03 00 00	 lea	 rax, QWORD PTR outhead$[rsp]
  00dbb	48 89 44 24 38	 mov	 QWORD PTR [rsp+56], rax
  00dc0	48 8d 84 24 f8
	02 00 00	 lea	 rax, QWORD PTR outcyl$[rsp]
  00dc8	48 89 44 24 30	 mov	 QWORD PTR [rsp+48], rax
  00dcd	48 8d 84 24 b8
	00 00 00	 lea	 rax, QWORD PTR tracks$[rsp]
  00dd5	48 89 44 24 28	 mov	 QWORD PTR [rsp+40], rax
  00dda	48 8d 84 24 cc
	00 00 00	 lea	 rax, QWORD PTR outusedv$[rsp]
  00de2	48 89 44 24 20	 mov	 QWORD PTR [rsp+32], rax
  00de7	44 8b 8c 24 f0
	02 00 00	 mov	 r9d, DWORD PTR trklen$[rsp]
  00def	44 8b 84 24 e8
	02 00 00	 mov	 r8d, DWORD PTR heads$[rsp]
  00df7	48 8b 94 24 c0
	02 00 00	 mov	 rdx, QWORD PTR ofname$[rsp]
  00dff	48 8b 8c 24 c8
	02 00 00	 mov	 rcx, QWORD PTR cif$[rsp]
  00e07	e8 00 00 00 00	 call	 write_track
  00e0c	89 84 24 b0 00
	00 00		 mov	 DWORD PTR rc$[rsp], eax

; 4171 :                         &outusedv, &tracks, &outcyl, &outhead);
; 4172 :         if (rc < 0) return -1;

  00e13	83 bc 24 b0 00
	00 00 00	 cmp	 DWORD PTR rc$[rsp], 0
  00e1b	7d 0a		 jge	 SHORT $LN48@process_co
  00e1d	b8 ff ff ff ff	 mov	 eax, -1
  00e22	e9 c4 01 00 00	 jmp	 $LN1@process_co
$LN48@process_co:

; 4173 : 
; 4174 :     } /* end while */

  00e27	e9 8a fe ff ff	 jmp	 $LN10@process_co
$LN11@process_co:

; 4175 : 
; 4176 :     if (outcyl > reqcyls && reqcyls != 0)

  00e2c	8b 84 24 e0 02
	00 00		 mov	 eax, DWORD PTR reqcyls$[rsp]
  00e33	39 84 24 f8 02
	00 00		 cmp	 DWORD PTR outcyl$[rsp], eax
  00e3a	7e 27		 jle	 SHORT $LN49@process_co
  00e3c	83 bc 24 e0 02
	00 00 00	 cmp	 DWORD PTR reqcyls$[rsp], 0
  00e44	74 1d		 je	 SHORT $LN49@process_co

; 4177 :     {
; 4178 :         XMINFF (0, MSG( HHC02590, "W", reqcyls ) );

  00e46	44 8b 8c 24 e0
	02 00 00	 mov	 r9d, DWORD PTR reqcyls$[rsp]
  00e4e	4c 8d 05 00 00
	00 00		 lea	 r8, OFFSET FLAT:$SG162634
  00e55	48 8d 15 00 00
	00 00		 lea	 rdx, OFFSET FLAT:$SG162635
  00e5c	33 c9		 xor	 ecx, ecx
  00e5e	e8 00 00 00 00	 call	 info_msg
$LN49@process_co:

; 4179 :     }
; 4180 : 
; 4181 :     XMINFF (0, MSG( HHC02591, "I", ofname, outcyl ) );

  00e63	8b 84 24 f8 02
	00 00		 mov	 eax, DWORD PTR outcyl$[rsp]
  00e6a	89 44 24 20	 mov	 DWORD PTR [rsp+32], eax
  00e6e	4c 8b 8c 24 c0
	02 00 00	 mov	 r9, QWORD PTR ofname$[rsp]
  00e76	4c 8d 05 00 00
	00 00		 lea	 r8, OFFSET FLAT:$SG162636
  00e7d	48 8d 15 00 00
	00 00		 lea	 rdx, OFFSET FLAT:$SG162637
  00e84	33 c9		 xor	 ecx, ecx
  00e86	e8 00 00 00 00	 call	 info_msg

; 4182 : 
; 4183 :     /* Update the VTOC pointer in the volume label */
; 4184 :     offset = CKD_TRKHDR_SIZE + CKD_R0_SIZE + CKD_R0_DLEN

  00e8b	c7 84 24 0c 01
	00 00 ec 00 00
	00		 mov	 DWORD PTR offset$[rsp], 236 ; 000000ecH

; 4185 :            + CKD_RECHDR_SIZE + IPL1_KEYLEN + IPL1_DATALEN
; 4186 :            + CKD_RECHDR_SIZE + IPL2_KEYLEN + IPL2_DATALEN
; 4187 :            + CKD_RECHDR_SIZE + VOL1_KEYLEN + offsetof( VOL1_CKD, vtoc_CC );
; 4188 : 
; 4189 :     XMINFF (5, MSG( HHC02592, "I", volvtoc[0], volvtoc[1], volvtoc[2], volvtoc[3], volvtoc[4] ) );

  00e96	b8 01 00 00 00	 mov	 eax, 1
  00e9b	48 6b c0 04	 imul	 rax, rax, 4
  00e9f	0f b6 84 04 48
	01 00 00	 movzx	 eax, BYTE PTR volvtoc$[rsp+rax]
  00ea7	b9 01 00 00 00	 mov	 ecx, 1
  00eac	48 6b c9 03	 imul	 rcx, rcx, 3
  00eb0	0f b6 8c 0c 48
	01 00 00	 movzx	 ecx, BYTE PTR volvtoc$[rsp+rcx]
  00eb8	ba 01 00 00 00	 mov	 edx, 1
  00ebd	48 6b d2 02	 imul	 rdx, rdx, 2
  00ec1	0f b6 94 14 48
	01 00 00	 movzx	 edx, BYTE PTR volvtoc$[rsp+rdx]
  00ec9	41 b8 01 00 00
	00		 mov	 r8d, 1
  00ecf	4d 6b c0 01	 imul	 r8, r8, 1
  00ed3	46 0f b6 84 04
	48 01 00 00	 movzx	 r8d, BYTE PTR volvtoc$[rsp+r8]
  00edc	41 b9 01 00 00
	00		 mov	 r9d, 1
  00ee2	4d 6b c9 00	 imul	 r9, r9, 0
  00ee6	46 0f b6 8c 0c
	48 01 00 00	 movzx	 r9d, BYTE PTR volvtoc$[rsp+r9]
  00eef	89 44 24 38	 mov	 DWORD PTR [rsp+56], eax
  00ef3	89 4c 24 30	 mov	 DWORD PTR [rsp+48], ecx
  00ef7	89 54 24 28	 mov	 DWORD PTR [rsp+40], edx
  00efb	44 89 44 24 20	 mov	 DWORD PTR [rsp+32], r8d
  00f00	4c 8d 05 00 00
	00 00		 lea	 r8, OFFSET FLAT:$SG162638
  00f07	48 8d 15 00 00
	00 00		 lea	 rdx, OFFSET FLAT:$SG162639
  00f0e	b9 05 00 00 00	 mov	 ecx, 5
  00f13	e8 00 00 00 00	 call	 info_msg

; 4190 : 
; 4191 :     rc = read_track (cif, 0, 0);

  00f18	45 33 c0	 xor	 r8d, r8d
  00f1b	33 d2		 xor	 edx, edx
  00f1d	48 8b 8c 24 c8
	02 00 00	 mov	 rcx, QWORD PTR cif$[rsp]
  00f25	ff 15 00 00 00
	00		 call	 QWORD PTR __imp_read_track
  00f2b	89 84 24 b0 00
	00 00		 mov	 DWORD PTR rc$[rsp], eax

; 4192 :     if (rc < 0)

  00f32	83 bc 24 b0 00
	00 00 00	 cmp	 DWORD PTR rc$[rsp], 0
  00f3a	7d 1d		 jge	 SHORT $LN50@process_co

; 4193 :     {
; 4194 :         XMERR ( MSG( HHC02593, "E" ) );

  00f3c	48 8d 15 00 00
	00 00		 lea	 rdx, OFFSET FLAT:$SG162641
  00f43	48 8d 0d 00 00
	00 00		 lea	 rcx, OFFSET FLAT:$SG162642
  00f4a	e8 00 00 00 00	 call	 printf

; 4195 :         return -1;

  00f4f	b8 ff ff ff ff	 mov	 eax, -1
  00f54	e9 92 00 00 00	 jmp	 $LN1@process_co
$LN50@process_co:

; 4196 :     }
; 4197 : 
; 4198 :     memcpy (cif->trkbuf + offset, volvtoc, sizeof(volvtoc));

  00f59	48 63 84 24 0c
	01 00 00	 movsxd	 rax, DWORD PTR offset$[rsp]
  00f61	48 8b 8c 24 c8
	02 00 00	 mov	 rcx, QWORD PTR cif$[rsp]
  00f69	48 8b 49 10	 mov	 rcx, QWORD PTR [rcx+16]
  00f6d	48 8d 94 24 48
	01 00 00	 lea	 rdx, QWORD PTR volvtoc$[rsp]
  00f75	48 8d 3c 01	 lea	 rdi, QWORD PTR [rcx+rax]
  00f79	48 8b f2	 mov	 rsi, rdx
  00f7c	b9 05 00 00 00	 mov	 ecx, 5
  00f81	f3 a4		 rep movsb

; 4199 :     cif->trkmodif = 1;

  00f83	48 8b 84 24 c8
	02 00 00	 mov	 rax, QWORD PTR cif$[rsp]
  00f8b	c7 40 20 01 00
	00 00		 mov	 DWORD PTR [rax+32], 1

; 4200 : 
; 4201 :     /* Release the DSCB buffers */
; 4202 :     for (i = 0; i < numdscb; i++)

  00f92	c7 84 24 d0 00
	00 00 00 00 00
	00		 mov	 DWORD PTR i$[rsp], 0
  00f9d	eb 10		 jmp	 SHORT $LN17@process_co
$LN15@process_co:
  00f9f	8b 84 24 d0 00
	00 00		 mov	 eax, DWORD PTR i$[rsp]
  00fa6	ff c0		 inc	 eax
  00fa8	89 84 24 d0 00
	00 00		 mov	 DWORD PTR i$[rsp], eax
$LN17@process_co:
  00faf	8b 84 24 bc 00
	00 00		 mov	 eax, DWORD PTR numdscb$[rsp]
  00fb6	39 84 24 d0 00
	00 00		 cmp	 DWORD PTR i$[rsp], eax
  00fbd	7d 1c		 jge	 SHORT $LN16@process_co

; 4203 :         free (dscbtab[i]);

  00fbf	48 63 84 24 d0
	00 00 00	 movsxd	 rax, DWORD PTR i$[rsp]
  00fc7	48 8b 8c 24 e0
	00 00 00	 mov	 rcx, QWORD PTR dscbtab$[rsp]
  00fcf	48 8b 0c c1	 mov	 rcx, QWORD PTR [rcx+rax*8]
  00fd3	ff 15 00 00 00
	00		 call	 QWORD PTR __imp_free
  00fd9	eb c4		 jmp	 SHORT $LN15@process_co
$LN16@process_co:

; 4204 : 
; 4205 :     /* Release the array of DSCB pointers */
; 4206 :     free (dscbtab);

  00fdb	48 8b 8c 24 e0
	00 00 00	 mov	 rcx, QWORD PTR dscbtab$[rsp]
  00fe3	ff 15 00 00 00
	00		 call	 QWORD PTR __imp_free

; 4207 : 
; 4208 :     return 0;

  00fe9	33 c0		 xor	 eax, eax
$LN1@process_co:

; 4209 : 
; 4210 : } /* end function process_control_file */

  00feb	48 8b 8c 24 80
	02 00 00	 mov	 rcx, QWORD PTR __$ArrayPad$[rsp]
  00ff3	48 33 cc	 xor	 rcx, rsp
  00ff6	e8 00 00 00 00	 call	 __security_check_cookie
  00ffb	48 81 c4 98 02
	00 00		 add	 rsp, 664		; 00000298H
  01002	5f		 pop	 rdi
  01003	5e		 pop	 rsi
  01004	c3		 ret	 0
  01005	0f 1f 00	 npad	 3
$LN60@process_co:
  01008	00 00 00 00	 DD	 $LN36@process_co
  0100c	00 00 00 00	 DD	 $LN25@process_co
  01010	00 00 00 00	 DD	 $LN28@process_co
  01014	00 00 00 00	 DD	 $LN30@process_co
  01018	00 00 00 00	 DD	 $LN32@process_co
  0101c	00 00 00 00	 DD	 $LN26@process_co
  01020	00 00 00 00	 DD	 $LN33@process_co
process_control_file ENDP
_TEXT	ENDS
; Function compile flags: /Odtp
; File C:\papa\MyGit\hyperion-zvector\dasdload64.c
_TEXT	SEGMENT
c$ = 48
strtok_str$ = 56
pimeth$ = 64
precfm$ = 72
punits$ = 80
pdsorg$ = 88
pdsnam$ = 96
psppri$ = 104
pspsec$ = 112
pspdir$ = 120
plrecl$ = 128
pblksz$ = 136
pkeyln$ = 144
pifile$ = 152
stmt$ = 176
dsname$ = 184
method$ = 192
ifptr$ = 200
units$ = 208
sppri$ = 216
spsec$ = 224
spdir$ = 232
dsorg$ = 240
recfm$ = 248
lrecl$ = 256
blksz$ = 264
keyln$ = 272
parse_ctrl_stmt PROC

; 3701 : {

  00000	4c 89 4c 24 20	 mov	 QWORD PTR [rsp+32], r9
  00005	4c 89 44 24 18	 mov	 QWORD PTR [rsp+24], r8
  0000a	48 89 54 24 10	 mov	 QWORD PTR [rsp+16], rdx
  0000f	48 89 4c 24 08	 mov	 QWORD PTR [rsp+8], rcx
  00014	57		 push	 rdi
  00015	48 81 ec a0 00
	00 00		 sub	 rsp, 160		; 000000a0H

; 3702 : char           *pdsnam;                 /* -> dsname in input stmt   */
; 3703 : char           *punits;                 /* -> allocation units       */
; 3704 : char           *psppri;                 /* -> primary space quantity */
; 3705 : char           *pspsec;                 /* -> secondary space qty.   */
; 3706 : char           *pspdir;                 /* -> directory space qty.   */
; 3707 : char           *pdsorg;                 /* -> dataset organization   */
; 3708 : char           *precfm;                 /* -> record format          */
; 3709 : char           *plrecl;                 /* -> logical record length  */
; 3710 : char           *pblksz;                 /* -> block size             */
; 3711 : char           *pkeyln;                 /* -> key length             */
; 3712 : char           *pimeth;                 /* -> initialization method  */
; 3713 : char           *pifile;                 /* -> initialization filename*/
; 3714 : BYTE            c;                      /* Character work area       */
; 3715 : char           *strtok_str = NULL;      /* last token                */

  0001c	48 c7 44 24 38
	00 00 00 00	 mov	 QWORD PTR strtok_str$[rsp], 0

; 3716 : 
; 3717 :     /* Parse the input statement */
; 3718 :     pdsnam = strtok_r (stmt, " \t", &strtok_str);

  00025	4c 8d 44 24 38	 lea	 r8, QWORD PTR strtok_str$[rsp]
  0002a	48 8d 15 00 00
	00 00		 lea	 rdx, OFFSET FLAT:$SG162360
  00031	48 8b 8c 24 b0
	00 00 00	 mov	 rcx, QWORD PTR stmt$[rsp]
  00039	ff 15 00 00 00
	00		 call	 QWORD PTR __imp_strtok_r
  0003f	48 89 44 24 60	 mov	 QWORD PTR pdsnam$[rsp], rax

; 3719 :     pimeth = strtok_r (NULL, " \t", &strtok_str);

  00044	4c 8d 44 24 38	 lea	 r8, QWORD PTR strtok_str$[rsp]
  00049	48 8d 15 00 00
	00 00		 lea	 rdx, OFFSET FLAT:$SG162361
  00050	33 c9		 xor	 ecx, ecx
  00052	ff 15 00 00 00
	00		 call	 QWORD PTR __imp_strtok_r
  00058	48 89 44 24 40	 mov	 QWORD PTR pimeth$[rsp], rax

; 3720 : 
; 3721 :     /* Check that all mandatory fields are present */
; 3722 :     if (pdsnam == NULL || pimeth == NULL)

  0005d	48 83 7c 24 60
	00		 cmp	 QWORD PTR pdsnam$[rsp], 0
  00063	74 08		 je	 SHORT $LN3@parse_ctrl
  00065	48 83 7c 24 40
	00		 cmp	 QWORD PTR pimeth$[rsp], 0
  0006b	75 4e		 jne	 SHORT $LN2@parse_ctrl
$LN3@parse_ctrl:

; 3723 :     {
; 3724 :         if (pdsnam == NULL)

  0006d	48 83 7c 24 60
	00		 cmp	 QWORD PTR pdsnam$[rsp], 0
  00073	75 1a		 jne	 SHORT $LN4@parse_ctrl

; 3725 :             XMERR ( MSG(HHC02578, "E", "DSNAME" ) );

  00075	4c 8d 05 00 00
	00 00		 lea	 r8, OFFSET FLAT:$SG162365
  0007c	48 8d 15 00 00
	00 00		 lea	 rdx, OFFSET FLAT:$SG162366
  00083	48 8d 0d 00 00
	00 00		 lea	 rcx, OFFSET FLAT:$SG162367
  0008a	e8 00 00 00 00	 call	 printf
$LN4@parse_ctrl:

; 3726 :         if (pimeth == NULL)

  0008f	48 83 7c 24 40
	00		 cmp	 QWORD PTR pimeth$[rsp], 0
  00095	75 1a		 jne	 SHORT $LN5@parse_ctrl

; 3727 :             XMERR ( MSG(HHC02578, "E", "Initialization method" ) );

  00097	4c 8d 05 00 00
	00 00		 lea	 r8, OFFSET FLAT:$SG162369
  0009e	48 8d 15 00 00
	00 00		 lea	 rdx, OFFSET FLAT:$SG162370
  000a5	48 8d 0d 00 00
	00 00		 lea	 rcx, OFFSET FLAT:$SG162371
  000ac	e8 00 00 00 00	 call	 printf
$LN5@parse_ctrl:

; 3728 :         return -1;

  000b1	b8 ff ff ff ff	 mov	 eax, -1
  000b6	e9 2b 08 00 00	 jmp	 $LN1@parse_ctrl
$LN2@parse_ctrl:

; 3729 :     }
; 3730 : 
; 3731 :     /* Return the dataset name in EBCDIC and ASCII */
; 3732 :     string_to_upper (pdsnam);

  000bb	48 8b 4c 24 60	 mov	 rcx, QWORD PTR pdsnam$[rsp]
  000c0	ff 15 00 00 00
	00		 call	 QWORD PTR __imp_string_to_upper

; 3733 :     memset (dsname, 0, 45);

  000c6	48 8b bc 24 b8
	00 00 00	 mov	 rdi, QWORD PTR dsname$[rsp]
  000ce	33 c0		 xor	 eax, eax
  000d0	b9 2d 00 00 00	 mov	 ecx, 45			; 0000002dH
  000d5	f3 aa		 rep stosb

; 3734 :     strncpy (dsname, pdsnam, 44);

  000d7	41 b8 2c 00 00
	00		 mov	 r8d, 44			; 0000002cH
  000dd	48 8b 54 24 60	 mov	 rdx, QWORD PTR pdsnam$[rsp]
  000e2	48 8b 8c 24 b8
	00 00 00	 mov	 rcx, QWORD PTR dsname$[rsp]
  000ea	ff 15 00 00 00
	00		 call	 QWORD PTR __imp_strncpy

; 3735 : 
; 3736 :     /* Set default dataset attribute values */
; 3737 :     *units = 'T';

  000f0	48 8b 84 24 d0
	00 00 00	 mov	 rax, QWORD PTR units$[rsp]
  000f8	c6 00 54	 mov	 BYTE PTR [rax], 84	; 00000054H

; 3738 :     *sppri = 1;

  000fb	48 8b 84 24 d8
	00 00 00	 mov	 rax, QWORD PTR sppri$[rsp]
  00103	c7 00 01 00 00
	00		 mov	 DWORD PTR [rax], 1

; 3739 :     *spsec = 0;

  00109	48 8b 84 24 e0
	00 00 00	 mov	 rax, QWORD PTR spsec$[rsp]
  00111	c7 00 00 00 00
	00		 mov	 DWORD PTR [rax], 0

; 3740 :     *spdir = 0;

  00117	48 8b 84 24 e8
	00 00 00	 mov	 rax, QWORD PTR spdir$[rsp]
  0011f	c7 00 00 00 00
	00		 mov	 DWORD PTR [rax], 0

; 3741 :     *dsorg = 0x00;

  00125	48 8b 84 24 f0
	00 00 00	 mov	 rax, QWORD PTR dsorg$[rsp]
  0012d	c6 00 00	 mov	 BYTE PTR [rax], 0

; 3742 :     *recfm = 0x00;

  00130	48 8b 84 24 f8
	00 00 00	 mov	 rax, QWORD PTR recfm$[rsp]
  00138	c6 00 00	 mov	 BYTE PTR [rax], 0

; 3743 :     *lrecl = 0;

  0013b	48 8b 84 24 00
	01 00 00	 mov	 rax, QWORD PTR lrecl$[rsp]
  00143	c7 00 00 00 00
	00		 mov	 DWORD PTR [rax], 0

; 3744 :     *blksz = 0;

  00149	48 8b 84 24 08
	01 00 00	 mov	 rax, QWORD PTR blksz$[rsp]
  00151	c7 00 00 00 00
	00		 mov	 DWORD PTR [rax], 0

; 3745 :     *keyln = 0;

  00157	48 8b 84 24 10
	01 00 00	 mov	 rax, QWORD PTR keyln$[rsp]
  0015f	c7 00 00 00 00
	00		 mov	 DWORD PTR [rax], 0

; 3746 :     *ifptr = NULL;

  00165	48 8b 84 24 c8
	00 00 00	 mov	 rax, QWORD PTR ifptr$[rsp]
  0016d	48 c7 00 00 00
	00 00		 mov	 QWORD PTR [rax], 0

; 3747 : 
; 3748 :     /* Test for valid initialization method */
; 3749 :     if (strcasecmp(pimeth, "XMIT") == 0)

  00174	48 8d 15 00 00
	00 00		 lea	 rdx, OFFSET FLAT:$SG162374
  0017b	48 8b 4c 24 40	 mov	 rcx, QWORD PTR pimeth$[rsp]
  00180	ff 15 00 00 00
	00		 call	 QWORD PTR __imp__stricmp
  00186	85 c0		 test	 eax, eax
  00188	75 10		 jne	 SHORT $LN6@parse_ctrl

; 3750 :         *method = METHOD_XMIT;

  0018a	48 8b 84 24 c0
	00 00 00	 mov	 rax, QWORD PTR method$[rsp]
  00192	c6 00 01	 mov	 BYTE PTR [rax], 1
  00195	e9 fd 00 00 00	 jmp	 $LN7@parse_ctrl
$LN6@parse_ctrl:

; 3751 :     else if (strcasecmp(pimeth, "VS") == 0)

  0019a	48 8d 15 00 00
	00 00		 lea	 rdx, OFFSET FLAT:$SG162377
  001a1	48 8b 4c 24 40	 mov	 rcx, QWORD PTR pimeth$[rsp]
  001a6	ff 15 00 00 00
	00		 call	 QWORD PTR __imp__stricmp
  001ac	85 c0		 test	 eax, eax
  001ae	75 10		 jne	 SHORT $LN8@parse_ctrl

; 3752 :         *method = METHOD_VS;

  001b0	48 8b 84 24 c0
	00 00 00	 mov	 rax, QWORD PTR method$[rsp]
  001b8	c6 00 05	 mov	 BYTE PTR [rax], 5
  001bb	e9 d7 00 00 00	 jmp	 $LN9@parse_ctrl
$LN8@parse_ctrl:

; 3753 :     else if (strcasecmp(pimeth, "EMPTY") == 0)

  001c0	48 8d 15 00 00
	00 00		 lea	 rdx, OFFSET FLAT:$SG162380
  001c7	48 8b 4c 24 40	 mov	 rcx, QWORD PTR pimeth$[rsp]
  001cc	ff 15 00 00 00
	00		 call	 QWORD PTR __imp__stricmp
  001d2	85 c0		 test	 eax, eax
  001d4	75 10		 jne	 SHORT $LN10@parse_ctrl

; 3754 :         *method = METHOD_EMPTY;

  001d6	48 8b 84 24 c0
	00 00 00	 mov	 rax, QWORD PTR method$[rsp]
  001de	c6 00 00	 mov	 BYTE PTR [rax], 0
  001e1	e9 b1 00 00 00	 jmp	 $LN11@parse_ctrl
$LN10@parse_ctrl:

; 3755 :     else if (strcasecmp(pimeth, "DIP") == 0)

  001e6	48 8d 15 00 00
	00 00		 lea	 rdx, OFFSET FLAT:$SG162383
  001ed	48 8b 4c 24 40	 mov	 rcx, QWORD PTR pimeth$[rsp]
  001f2	ff 15 00 00 00
	00		 call	 QWORD PTR __imp__stricmp
  001f8	85 c0		 test	 eax, eax
  001fa	75 10		 jne	 SHORT $LN12@parse_ctrl

; 3756 :         *method = METHOD_DIP;

  001fc	48 8b 84 24 c0
	00 00 00	 mov	 rax, QWORD PTR method$[rsp]
  00204	c6 00 02	 mov	 BYTE PTR [rax], 2
  00207	e9 8b 00 00 00	 jmp	 $LN13@parse_ctrl
$LN12@parse_ctrl:

; 3757 :     else if (strcasecmp(pimeth, "CVOL") == 0)

  0020c	48 8d 15 00 00
	00 00		 lea	 rdx, OFFSET FLAT:$SG162386
  00213	48 8b 4c 24 40	 mov	 rcx, QWORD PTR pimeth$[rsp]
  00218	ff 15 00 00 00
	00		 call	 QWORD PTR __imp__stricmp
  0021e	85 c0		 test	 eax, eax
  00220	75 0d		 jne	 SHORT $LN14@parse_ctrl

; 3758 :         *method = METHOD_CVOL;

  00222	48 8b 84 24 c0
	00 00 00	 mov	 rax, QWORD PTR method$[rsp]
  0022a	c6 00 03	 mov	 BYTE PTR [rax], 3
  0022d	eb 68		 jmp	 SHORT $LN15@parse_ctrl
$LN14@parse_ctrl:

; 3759 :     else if (strcasecmp(pimeth, "VTOC") == 0)

  0022f	48 8d 15 00 00
	00 00		 lea	 rdx, OFFSET FLAT:$SG162389
  00236	48 8b 4c 24 40	 mov	 rcx, QWORD PTR pimeth$[rsp]
  0023b	ff 15 00 00 00
	00		 call	 QWORD PTR __imp__stricmp
  00241	85 c0		 test	 eax, eax
  00243	75 0d		 jne	 SHORT $LN16@parse_ctrl

; 3760 :         *method = METHOD_VTOC;

  00245	48 8b 84 24 c0
	00 00 00	 mov	 rax, QWORD PTR method$[rsp]
  0024d	c6 00 04	 mov	 BYTE PTR [rax], 4
  00250	eb 45		 jmp	 SHORT $LN17@parse_ctrl
$LN16@parse_ctrl:

; 3761 :     else if (strcasecmp(pimeth, "SEQ") == 0)

  00252	48 8d 15 00 00
	00 00		 lea	 rdx, OFFSET FLAT:$SG162392
  00259	48 8b 4c 24 40	 mov	 rcx, QWORD PTR pimeth$[rsp]
  0025e	ff 15 00 00 00
	00		 call	 QWORD PTR __imp__stricmp
  00264	85 c0		 test	 eax, eax
  00266	75 0d		 jne	 SHORT $LN18@parse_ctrl

; 3762 :         *method = METHOD_SEQ;

  00268	48 8b 84 24 c0
	00 00 00	 mov	 rax, QWORD PTR method$[rsp]
  00270	c6 00 06	 mov	 BYTE PTR [rax], 6
  00273	eb 22		 jmp	 SHORT $LN19@parse_ctrl
$LN18@parse_ctrl:

; 3763 :     else
; 3764 :     {
; 3765 :         XMERRF ( MSG( HHC02579, "E", pimeth ) );

  00275	4c 8b 44 24 40	 mov	 r8, QWORD PTR pimeth$[rsp]
  0027a	48 8d 15 00 00
	00 00		 lea	 rdx, OFFSET FLAT:$SG162393
  00281	48 8d 0d 00 00
	00 00		 lea	 rcx, OFFSET FLAT:$SG162394
  00288	e8 00 00 00 00	 call	 printf

; 3766 :         return -1;

  0028d	b8 ff ff ff ff	 mov	 eax, -1
  00292	e9 4f 06 00 00	 jmp	 $LN1@parse_ctrl
$LN19@parse_ctrl:
$LN17@parse_ctrl:
$LN15@parse_ctrl:
$LN13@parse_ctrl:
$LN11@parse_ctrl:
$LN9@parse_ctrl:
$LN7@parse_ctrl:

; 3767 :     }
; 3768 : 
; 3769 :     /* Locate the initialization file name */
; 3770 :     if (*method == METHOD_XMIT || *method == METHOD_VS || *method == METHOD_SEQ)

  00297	48 8b 84 24 c0
	00 00 00	 mov	 rax, QWORD PTR method$[rsp]
  0029f	0f b6 00	 movzx	 eax, BYTE PTR [rax]
  002a2	83 f8 01	 cmp	 eax, 1
  002a5	74 20		 je	 SHORT $LN21@parse_ctrl
  002a7	48 8b 84 24 c0
	00 00 00	 mov	 rax, QWORD PTR method$[rsp]
  002af	0f b6 00	 movzx	 eax, BYTE PTR [rax]
  002b2	83 f8 05	 cmp	 eax, 5
  002b5	74 10		 je	 SHORT $LN21@parse_ctrl
  002b7	48 8b 84 24 c0
	00 00 00	 mov	 rax, QWORD PTR method$[rsp]
  002bf	0f b6 00	 movzx	 eax, BYTE PTR [rax]
  002c2	83 f8 06	 cmp	 eax, 6
  002c5	75 57		 jne	 SHORT $LN20@parse_ctrl
$LN21@parse_ctrl:

; 3771 :     {
; 3772 :         pifile = strtok_r (NULL, " \t", &strtok_str);

  002c7	4c 8d 44 24 38	 lea	 r8, QWORD PTR strtok_str$[rsp]
  002cc	48 8d 15 00 00
	00 00		 lea	 rdx, OFFSET FLAT:$SG162397
  002d3	33 c9		 xor	 ecx, ecx
  002d5	ff 15 00 00 00
	00		 call	 QWORD PTR __imp_strtok_r
  002db	48 89 84 24 98
	00 00 00	 mov	 QWORD PTR pifile$[rsp], rax

; 3773 :         if (pifile == NULL)

  002e3	48 83 bc 24 98
	00 00 00 00	 cmp	 QWORD PTR pifile$[rsp], 0
  002ec	75 1d		 jne	 SHORT $LN22@parse_ctrl

; 3774 :         {
; 3775 :             XMERR ( MSG( HHC02580, "E" ) );

  002ee	48 8d 15 00 00
	00 00		 lea	 rdx, OFFSET FLAT:$SG162399
  002f5	48 8d 0d 00 00
	00 00		 lea	 rcx, OFFSET FLAT:$SG162400
  002fc	e8 00 00 00 00	 call	 printf

; 3776 :             return -1;

  00301	b8 ff ff ff ff	 mov	 eax, -1
  00306	e9 db 05 00 00	 jmp	 $LN1@parse_ctrl
$LN22@parse_ctrl:

; 3777 :         }
; 3778 :         *ifptr = pifile;

  0030b	48 8b 84 24 c8
	00 00 00	 mov	 rax, QWORD PTR ifptr$[rsp]
  00313	48 8b 8c 24 98
	00 00 00	 mov	 rcx, QWORD PTR pifile$[rsp]
  0031b	48 89 08	 mov	 QWORD PTR [rax], rcx
$LN20@parse_ctrl:

; 3779 :     }
; 3780 : 
; 3781 :     /* Determine the space allocation units */
; 3782 :     punits = strtok_r (NULL, " \t", &strtok_str );

  0031e	4c 8d 44 24 38	 lea	 r8, QWORD PTR strtok_str$[rsp]
  00323	48 8d 15 00 00
	00 00		 lea	 rdx, OFFSET FLAT:$SG162401
  0032a	33 c9		 xor	 ecx, ecx
  0032c	ff 15 00 00 00
	00		 call	 QWORD PTR __imp_strtok_r
  00332	48 89 44 24 50	 mov	 QWORD PTR punits$[rsp], rax

; 3783 :     if (punits == NULL) return 0;

  00337	48 83 7c 24 50
	00		 cmp	 QWORD PTR punits$[rsp], 0
  0033d	75 07		 jne	 SHORT $LN23@parse_ctrl
  0033f	33 c0		 xor	 eax, eax
  00341	e9 a0 05 00 00	 jmp	 $LN1@parse_ctrl
$LN23@parse_ctrl:

; 3784 : 
; 3785 :     string_to_upper (punits);

  00346	48 8b 4c 24 50	 mov	 rcx, QWORD PTR punits$[rsp]
  0034b	ff 15 00 00 00
	00		 call	 QWORD PTR __imp_string_to_upper

; 3786 :     if (strcmp(punits, "CYL") == 0)

  00351	48 8d 15 00 00
	00 00		 lea	 rdx, OFFSET FLAT:$SG162405
  00358	48 8b 4c 24 50	 mov	 rcx, QWORD PTR punits$[rsp]
  0035d	e8 00 00 00 00	 call	 strcmp
  00362	85 c0		 test	 eax, eax
  00364	75 0d		 jne	 SHORT $LN24@parse_ctrl

; 3787 :         *units = 'C';

  00366	48 8b 84 24 d0
	00 00 00	 mov	 rax, QWORD PTR units$[rsp]
  0036e	c6 00 43	 mov	 BYTE PTR [rax], 67	; 00000043H
  00371	eb 44		 jmp	 SHORT $LN25@parse_ctrl
$LN24@parse_ctrl:

; 3788 :     else if (strcmp(punits, "TRK") == 0)

  00373	48 8d 15 00 00
	00 00		 lea	 rdx, OFFSET FLAT:$SG162408
  0037a	48 8b 4c 24 50	 mov	 rcx, QWORD PTR punits$[rsp]
  0037f	e8 00 00 00 00	 call	 strcmp
  00384	85 c0		 test	 eax, eax
  00386	75 0d		 jne	 SHORT $LN26@parse_ctrl

; 3789 :         *units = 'T';

  00388	48 8b 84 24 d0
	00 00 00	 mov	 rax, QWORD PTR units$[rsp]
  00390	c6 00 54	 mov	 BYTE PTR [rax], 84	; 00000054H
  00393	eb 22		 jmp	 SHORT $LN27@parse_ctrl
$LN26@parse_ctrl:

; 3790 :     else
; 3791 :     {
; 3792 :         XMERRF ( MSG( HHC02581, "E", punits ) );

  00395	4c 8b 44 24 50	 mov	 r8, QWORD PTR punits$[rsp]
  0039a	48 8d 15 00 00
	00 00		 lea	 rdx, OFFSET FLAT:$SG162409
  003a1	48 8d 0d 00 00
	00 00		 lea	 rcx, OFFSET FLAT:$SG162410
  003a8	e8 00 00 00 00	 call	 printf

; 3793 :         return -1;

  003ad	b8 ff ff ff ff	 mov	 eax, -1
  003b2	e9 2f 05 00 00	 jmp	 $LN1@parse_ctrl
$LN27@parse_ctrl:
$LN25@parse_ctrl:

; 3794 :     }
; 3795 : 
; 3796 :     /* Determine the primary space allocation quantity */
; 3797 :     psppri = strtok_r (NULL, " \t", &strtok_str);

  003b7	4c 8d 44 24 38	 lea	 r8, QWORD PTR strtok_str$[rsp]
  003bc	48 8d 15 00 00
	00 00		 lea	 rdx, OFFSET FLAT:$SG162411
  003c3	33 c9		 xor	 ecx, ecx
  003c5	ff 15 00 00 00
	00		 call	 QWORD PTR __imp_strtok_r
  003cb	48 89 44 24 68	 mov	 QWORD PTR psppri$[rsp], rax

; 3798 :     if (psppri == NULL) return 0;

  003d0	48 83 7c 24 68
	00		 cmp	 QWORD PTR psppri$[rsp], 0
  003d6	75 07		 jne	 SHORT $LN28@parse_ctrl
  003d8	33 c0		 xor	 eax, eax
  003da	e9 07 05 00 00	 jmp	 $LN1@parse_ctrl
$LN28@parse_ctrl:

; 3799 : 
; 3800 :     if (sscanf(psppri, "%u%c", sppri, &c) != 1)

  003df	4c 8d 4c 24 30	 lea	 r9, QWORD PTR c$[rsp]
  003e4	4c 8b 84 24 d8
	00 00 00	 mov	 r8, QWORD PTR sppri$[rsp]
  003ec	48 8d 15 00 00
	00 00		 lea	 rdx, OFFSET FLAT:$SG162414
  003f3	48 8b 4c 24 68	 mov	 rcx, QWORD PTR psppri$[rsp]
  003f8	e8 00 00 00 00	 call	 sscanf
  003fd	83 f8 01	 cmp	 eax, 1
  00400	74 33		 je	 SHORT $LN29@parse_ctrl

; 3801 :     {
; 3802 :         XMERRF ( MSG( HHC02582, "E", "Primary", psppri, punits ) );

  00402	48 8b 44 24 50	 mov	 rax, QWORD PTR punits$[rsp]
  00407	48 89 44 24 20	 mov	 QWORD PTR [rsp+32], rax
  0040c	4c 8b 4c 24 68	 mov	 r9, QWORD PTR psppri$[rsp]
  00411	4c 8d 05 00 00
	00 00		 lea	 r8, OFFSET FLAT:$SG162415
  00418	48 8d 15 00 00
	00 00		 lea	 rdx, OFFSET FLAT:$SG162416
  0041f	48 8d 0d 00 00
	00 00		 lea	 rcx, OFFSET FLAT:$SG162417
  00426	e8 00 00 00 00	 call	 printf

; 3803 :         return -1;

  0042b	b8 ff ff ff ff	 mov	 eax, -1
  00430	e9 b1 04 00 00	 jmp	 $LN1@parse_ctrl
$LN29@parse_ctrl:

; 3804 :     }
; 3805 : 
; 3806 :     /* Determine the secondary space allocation quantity */
; 3807 :     pspsec = strtok_r (NULL, " \t", &strtok_str);

  00435	4c 8d 44 24 38	 lea	 r8, QWORD PTR strtok_str$[rsp]
  0043a	48 8d 15 00 00
	00 00		 lea	 rdx, OFFSET FLAT:$SG162418
  00441	33 c9		 xor	 ecx, ecx
  00443	ff 15 00 00 00
	00		 call	 QWORD PTR __imp_strtok_r
  00449	48 89 44 24 70	 mov	 QWORD PTR pspsec$[rsp], rax

; 3808 :     if (pspsec == NULL) return 0;

  0044e	48 83 7c 24 70
	00		 cmp	 QWORD PTR pspsec$[rsp], 0
  00454	75 07		 jne	 SHORT $LN30@parse_ctrl
  00456	33 c0		 xor	 eax, eax
  00458	e9 89 04 00 00	 jmp	 $LN1@parse_ctrl
$LN30@parse_ctrl:

; 3809 : 
; 3810 :     if (sscanf(pspsec, "%u%c", spsec, &c) != 1)

  0045d	4c 8d 4c 24 30	 lea	 r9, QWORD PTR c$[rsp]
  00462	4c 8b 84 24 e0
	00 00 00	 mov	 r8, QWORD PTR spsec$[rsp]
  0046a	48 8d 15 00 00
	00 00		 lea	 rdx, OFFSET FLAT:$SG162421
  00471	48 8b 4c 24 70	 mov	 rcx, QWORD PTR pspsec$[rsp]
  00476	e8 00 00 00 00	 call	 sscanf
  0047b	83 f8 01	 cmp	 eax, 1
  0047e	74 33		 je	 SHORT $LN31@parse_ctrl

; 3811 :     {
; 3812 :         XMERRF ( MSG( HHC02582, "E", "Secondary", pspsec, punits ) );

  00480	48 8b 44 24 50	 mov	 rax, QWORD PTR punits$[rsp]
  00485	48 89 44 24 20	 mov	 QWORD PTR [rsp+32], rax
  0048a	4c 8b 4c 24 70	 mov	 r9, QWORD PTR pspsec$[rsp]
  0048f	4c 8d 05 00 00
	00 00		 lea	 r8, OFFSET FLAT:$SG162422
  00496	48 8d 15 00 00
	00 00		 lea	 rdx, OFFSET FLAT:$SG162423
  0049d	48 8d 0d 00 00
	00 00		 lea	 rcx, OFFSET FLAT:$SG162424
  004a4	e8 00 00 00 00	 call	 printf

; 3813 :         return -1;

  004a9	b8 ff ff ff ff	 mov	 eax, -1
  004ae	e9 33 04 00 00	 jmp	 $LN1@parse_ctrl
$LN31@parse_ctrl:

; 3814 :     }
; 3815 : 
; 3816 :     /* Determine the directory space allocation quantity */
; 3817 :     pspdir = strtok_r (NULL, " \t", &strtok_str);

  004b3	4c 8d 44 24 38	 lea	 r8, QWORD PTR strtok_str$[rsp]
  004b8	48 8d 15 00 00
	00 00		 lea	 rdx, OFFSET FLAT:$SG162425
  004bf	33 c9		 xor	 ecx, ecx
  004c1	ff 15 00 00 00
	00		 call	 QWORD PTR __imp_strtok_r
  004c7	48 89 44 24 78	 mov	 QWORD PTR pspdir$[rsp], rax

; 3818 :     if (pspdir == NULL) return 0;

  004cc	48 83 7c 24 78
	00		 cmp	 QWORD PTR pspdir$[rsp], 0
  004d2	75 07		 jne	 SHORT $LN32@parse_ctrl
  004d4	33 c0		 xor	 eax, eax
  004d6	e9 0b 04 00 00	 jmp	 $LN1@parse_ctrl
$LN32@parse_ctrl:

; 3819 : 
; 3820 :     if (sscanf(pspdir, "%u%c", spdir, &c) != 1)

  004db	4c 8d 4c 24 30	 lea	 r9, QWORD PTR c$[rsp]
  004e0	4c 8b 84 24 e8
	00 00 00	 mov	 r8, QWORD PTR spdir$[rsp]
  004e8	48 8d 15 00 00
	00 00		 lea	 rdx, OFFSET FLAT:$SG162428
  004ef	48 8b 4c 24 78	 mov	 rcx, QWORD PTR pspdir$[rsp]
  004f4	e8 00 00 00 00	 call	 sscanf
  004f9	83 f8 01	 cmp	 eax, 1
  004fc	74 22		 je	 SHORT $LN33@parse_ctrl

; 3821 :     {
; 3822 :         XMERRF ( MSG( HHC02583, "E", pspdir ) );

  004fe	4c 8b 44 24 78	 mov	 r8, QWORD PTR pspdir$[rsp]
  00503	48 8d 15 00 00
	00 00		 lea	 rdx, OFFSET FLAT:$SG162429
  0050a	48 8d 0d 00 00
	00 00		 lea	 rcx, OFFSET FLAT:$SG162430
  00511	e8 00 00 00 00	 call	 printf

; 3823 :         return -1;

  00516	b8 ff ff ff ff	 mov	 eax, -1
  0051b	e9 c6 03 00 00	 jmp	 $LN1@parse_ctrl
$LN33@parse_ctrl:

; 3824 :     }
; 3825 : 
; 3826 :     /* Determine the dataset organization */
; 3827 :     pdsorg = strtok_r (NULL, " \t", &strtok_str);

  00520	4c 8d 44 24 38	 lea	 r8, QWORD PTR strtok_str$[rsp]
  00525	48 8d 15 00 00
	00 00		 lea	 rdx, OFFSET FLAT:$SG162431
  0052c	33 c9		 xor	 ecx, ecx
  0052e	ff 15 00 00 00
	00		 call	 QWORD PTR __imp_strtok_r
  00534	48 89 44 24 58	 mov	 QWORD PTR pdsorg$[rsp], rax

; 3828 :     if (pdsorg == NULL) return 0;

  00539	48 83 7c 24 58
	00		 cmp	 QWORD PTR pdsorg$[rsp], 0
  0053f	75 07		 jne	 SHORT $LN34@parse_ctrl
  00541	33 c0		 xor	 eax, eax
  00543	e9 9e 03 00 00	 jmp	 $LN1@parse_ctrl
$LN34@parse_ctrl:

; 3829 : 
; 3830 :     string_to_upper (pdsorg);

  00548	48 8b 4c 24 58	 mov	 rcx, QWORD PTR pdsorg$[rsp]
  0054d	ff 15 00 00 00
	00		 call	 QWORD PTR __imp_string_to_upper

; 3831 :     if (strcmp(pdsorg, "IS") == 0)

  00553	48 8d 15 00 00
	00 00		 lea	 rdx, OFFSET FLAT:$SG162435
  0055a	48 8b 4c 24 58	 mov	 rcx, QWORD PTR pdsorg$[rsp]
  0055f	e8 00 00 00 00	 call	 strcmp
  00564	85 c0		 test	 eax, eax
  00566	75 10		 jne	 SHORT $LN35@parse_ctrl

; 3832 :         *dsorg = DSORG_IS;

  00568	48 8b 84 24 f0
	00 00 00	 mov	 rax, QWORD PTR dsorg$[rsp]
  00570	c6 00 80	 mov	 BYTE PTR [rax], 128	; 00000080H
  00573	e9 88 00 00 00	 jmp	 $LN36@parse_ctrl
$LN35@parse_ctrl:

; 3833 :     else if (strcmp(pdsorg, "PS") == 0)

  00578	48 8d 15 00 00
	00 00		 lea	 rdx, OFFSET FLAT:$SG162438
  0057f	48 8b 4c 24 58	 mov	 rcx, QWORD PTR pdsorg$[rsp]
  00584	e8 00 00 00 00	 call	 strcmp
  00589	85 c0		 test	 eax, eax
  0058b	75 0d		 jne	 SHORT $LN37@parse_ctrl

; 3834 :         *dsorg = DSORG_PS;

  0058d	48 8b 84 24 f0
	00 00 00	 mov	 rax, QWORD PTR dsorg$[rsp]
  00595	c6 00 40	 mov	 BYTE PTR [rax], 64	; 00000040H
  00598	eb 66		 jmp	 SHORT $LN38@parse_ctrl
$LN37@parse_ctrl:

; 3835 :     else if (strcmp(pdsorg, "DA") == 0)

  0059a	48 8d 15 00 00
	00 00		 lea	 rdx, OFFSET FLAT:$SG162441
  005a1	48 8b 4c 24 58	 mov	 rcx, QWORD PTR pdsorg$[rsp]
  005a6	e8 00 00 00 00	 call	 strcmp
  005ab	85 c0		 test	 eax, eax
  005ad	75 0d		 jne	 SHORT $LN39@parse_ctrl

; 3836 :         *dsorg = DSORG_DA;

  005af	48 8b 84 24 f0
	00 00 00	 mov	 rax, QWORD PTR dsorg$[rsp]
  005b7	c6 00 20	 mov	 BYTE PTR [rax], 32	; 00000020H
  005ba	eb 44		 jmp	 SHORT $LN40@parse_ctrl
$LN39@parse_ctrl:

; 3837 :     else if (strcmp(pdsorg, "PO") == 0)

  005bc	48 8d 15 00 00
	00 00		 lea	 rdx, OFFSET FLAT:$SG162444
  005c3	48 8b 4c 24 58	 mov	 rcx, QWORD PTR pdsorg$[rsp]
  005c8	e8 00 00 00 00	 call	 strcmp
  005cd	85 c0		 test	 eax, eax
  005cf	75 0d		 jne	 SHORT $LN41@parse_ctrl

; 3838 :         *dsorg = DSORG_PO;

  005d1	48 8b 84 24 f0
	00 00 00	 mov	 rax, QWORD PTR dsorg$[rsp]
  005d9	c6 00 02	 mov	 BYTE PTR [rax], 2
  005dc	eb 22		 jmp	 SHORT $LN42@parse_ctrl
$LN41@parse_ctrl:

; 3839 :     else
; 3840 :     {
; 3841 :         XMERRF ( MSG( HHC02584, "E", pdsorg ) );

  005de	4c 8b 44 24 58	 mov	 r8, QWORD PTR pdsorg$[rsp]
  005e3	48 8d 15 00 00
	00 00		 lea	 rdx, OFFSET FLAT:$SG162445
  005ea	48 8d 0d 00 00
	00 00		 lea	 rcx, OFFSET FLAT:$SG162446
  005f1	e8 00 00 00 00	 call	 printf

; 3842 :         return -1;

  005f6	b8 ff ff ff ff	 mov	 eax, -1
  005fb	e9 e6 02 00 00	 jmp	 $LN1@parse_ctrl
$LN42@parse_ctrl:
$LN40@parse_ctrl:
$LN38@parse_ctrl:
$LN36@parse_ctrl:

; 3843 :     }
; 3844 : 
; 3845 :     /* Determine the record format */
; 3846 :     precfm = strtok_r (NULL, " \t", &strtok_str);

  00600	4c 8d 44 24 38	 lea	 r8, QWORD PTR strtok_str$[rsp]
  00605	48 8d 15 00 00
	00 00		 lea	 rdx, OFFSET FLAT:$SG162447
  0060c	33 c9		 xor	 ecx, ecx
  0060e	ff 15 00 00 00
	00		 call	 QWORD PTR __imp_strtok_r
  00614	48 89 44 24 48	 mov	 QWORD PTR precfm$[rsp], rax

; 3847 :     if (precfm == NULL) return 0;

  00619	48 83 7c 24 48
	00		 cmp	 QWORD PTR precfm$[rsp], 0
  0061f	75 07		 jne	 SHORT $LN43@parse_ctrl
  00621	33 c0		 xor	 eax, eax
  00623	e9 be 02 00 00	 jmp	 $LN1@parse_ctrl
$LN43@parse_ctrl:

; 3848 : 
; 3849 :     string_to_upper (precfm);

  00628	48 8b 4c 24 48	 mov	 rcx, QWORD PTR precfm$[rsp]
  0062d	ff 15 00 00 00
	00		 call	 QWORD PTR __imp_string_to_upper

; 3850 :     if (strcmp(precfm, "F") == 0)

  00633	48 8d 15 00 00
	00 00		 lea	 rdx, OFFSET FLAT:$SG162451
  0063a	48 8b 4c 24 48	 mov	 rcx, QWORD PTR precfm$[rsp]
  0063f	e8 00 00 00 00	 call	 strcmp
  00644	85 c0		 test	 eax, eax
  00646	75 10		 jne	 SHORT $LN44@parse_ctrl

; 3851 :         *recfm = RECFM_FORMAT_F;

  00648	48 8b 84 24 f8
	00 00 00	 mov	 rax, QWORD PTR recfm$[rsp]
  00650	c6 00 80	 mov	 BYTE PTR [rax], 128	; 00000080H
  00653	e9 f7 00 00 00	 jmp	 $LN45@parse_ctrl
$LN44@parse_ctrl:

; 3852 :     else if (strcmp(precfm, "FB") == 0)

  00658	48 8d 15 00 00
	00 00		 lea	 rdx, OFFSET FLAT:$SG162454
  0065f	48 8b 4c 24 48	 mov	 rcx, QWORD PTR precfm$[rsp]
  00664	e8 00 00 00 00	 call	 strcmp
  00669	85 c0		 test	 eax, eax
  0066b	75 10		 jne	 SHORT $LN46@parse_ctrl

; 3853 :         *recfm = RECFM_FORMAT_F | RECFM_BLOCKED;

  0066d	48 8b 84 24 f8
	00 00 00	 mov	 rax, QWORD PTR recfm$[rsp]
  00675	c6 00 90	 mov	 BYTE PTR [rax], 144	; 00000090H
  00678	e9 d2 00 00 00	 jmp	 $LN47@parse_ctrl
$LN46@parse_ctrl:

; 3854 :     else if (strcmp(precfm, "FBS") == 0)

  0067d	48 8d 15 00 00
	00 00		 lea	 rdx, OFFSET FLAT:$SG162457
  00684	48 8b 4c 24 48	 mov	 rcx, QWORD PTR precfm$[rsp]
  00689	e8 00 00 00 00	 call	 strcmp
  0068e	85 c0		 test	 eax, eax
  00690	75 10		 jne	 SHORT $LN48@parse_ctrl

; 3855 :         *recfm = RECFM_FORMAT_F | RECFM_BLOCKED | RECFM_SPANNED;

  00692	48 8b 84 24 f8
	00 00 00	 mov	 rax, QWORD PTR recfm$[rsp]
  0069a	c6 00 98	 mov	 BYTE PTR [rax], 152	; 00000098H
  0069d	e9 ad 00 00 00	 jmp	 $LN49@parse_ctrl
$LN48@parse_ctrl:

; 3856 :     else if (strcmp(precfm, "V") == 0)

  006a2	48 8d 15 00 00
	00 00		 lea	 rdx, OFFSET FLAT:$SG162460
  006a9	48 8b 4c 24 48	 mov	 rcx, QWORD PTR precfm$[rsp]
  006ae	e8 00 00 00 00	 call	 strcmp
  006b3	85 c0		 test	 eax, eax
  006b5	75 10		 jne	 SHORT $LN50@parse_ctrl

; 3857 :         *recfm = RECFM_FORMAT_V;

  006b7	48 8b 84 24 f8
	00 00 00	 mov	 rax, QWORD PTR recfm$[rsp]
  006bf	c6 00 40	 mov	 BYTE PTR [rax], 64	; 00000040H
  006c2	e9 88 00 00 00	 jmp	 $LN51@parse_ctrl
$LN50@parse_ctrl:

; 3858 :     else if (strcmp(precfm, "VB") == 0)

  006c7	48 8d 15 00 00
	00 00		 lea	 rdx, OFFSET FLAT:$SG162463
  006ce	48 8b 4c 24 48	 mov	 rcx, QWORD PTR precfm$[rsp]
  006d3	e8 00 00 00 00	 call	 strcmp
  006d8	85 c0		 test	 eax, eax
  006da	75 0d		 jne	 SHORT $LN52@parse_ctrl

; 3859 :         *recfm = RECFM_FORMAT_V | RECFM_BLOCKED;

  006dc	48 8b 84 24 f8
	00 00 00	 mov	 rax, QWORD PTR recfm$[rsp]
  006e4	c6 00 50	 mov	 BYTE PTR [rax], 80	; 00000050H
  006e7	eb 66		 jmp	 SHORT $LN53@parse_ctrl
$LN52@parse_ctrl:

; 3860 :     else if (strcmp(precfm, "VBS") == 0)

  006e9	48 8d 15 00 00
	00 00		 lea	 rdx, OFFSET FLAT:$SG162466
  006f0	48 8b 4c 24 48	 mov	 rcx, QWORD PTR precfm$[rsp]
  006f5	e8 00 00 00 00	 call	 strcmp
  006fa	85 c0		 test	 eax, eax
  006fc	75 0d		 jne	 SHORT $LN54@parse_ctrl

; 3861 :         *recfm = RECFM_FORMAT_V | RECFM_BLOCKED | RECFM_SPANNED;

  006fe	48 8b 84 24 f8
	00 00 00	 mov	 rax, QWORD PTR recfm$[rsp]
  00706	c6 00 58	 mov	 BYTE PTR [rax], 88	; 00000058H
  00709	eb 44		 jmp	 SHORT $LN55@parse_ctrl
$LN54@parse_ctrl:

; 3862 :     else if (strcmp(precfm, "U") == 0)

  0070b	48 8d 15 00 00
	00 00		 lea	 rdx, OFFSET FLAT:$SG162469
  00712	48 8b 4c 24 48	 mov	 rcx, QWORD PTR precfm$[rsp]
  00717	e8 00 00 00 00	 call	 strcmp
  0071c	85 c0		 test	 eax, eax
  0071e	75 0d		 jne	 SHORT $LN56@parse_ctrl

; 3863 :         *recfm = RECFM_FORMAT_U;

  00720	48 8b 84 24 f8
	00 00 00	 mov	 rax, QWORD PTR recfm$[rsp]
  00728	c6 00 c0	 mov	 BYTE PTR [rax], 192	; 000000c0H
  0072b	eb 22		 jmp	 SHORT $LN57@parse_ctrl
$LN56@parse_ctrl:

; 3864 :     else
; 3865 :     {
; 3866 :         XMERRF ( MSG( HHC02585, "E", precfm ) );

  0072d	4c 8b 44 24 48	 mov	 r8, QWORD PTR precfm$[rsp]
  00732	48 8d 15 00 00
	00 00		 lea	 rdx, OFFSET FLAT:$SG162470
  00739	48 8d 0d 00 00
	00 00		 lea	 rcx, OFFSET FLAT:$SG162471
  00740	e8 00 00 00 00	 call	 printf

; 3867 :         return -1;

  00745	b8 ff ff ff ff	 mov	 eax, -1
  0074a	e9 97 01 00 00	 jmp	 $LN1@parse_ctrl
$LN57@parse_ctrl:
$LN55@parse_ctrl:
$LN53@parse_ctrl:
$LN51@parse_ctrl:
$LN49@parse_ctrl:
$LN47@parse_ctrl:
$LN45@parse_ctrl:

; 3868 :     }
; 3869 : 
; 3870 :     /* Determine the logical record length */
; 3871 :     plrecl = strtok_r (NULL, " \t", &strtok_str);

  0074f	4c 8d 44 24 38	 lea	 r8, QWORD PTR strtok_str$[rsp]
  00754	48 8d 15 00 00
	00 00		 lea	 rdx, OFFSET FLAT:$SG162472
  0075b	33 c9		 xor	 ecx, ecx
  0075d	ff 15 00 00 00
	00		 call	 QWORD PTR __imp_strtok_r
  00763	48 89 84 24 80
	00 00 00	 mov	 QWORD PTR plrecl$[rsp], rax

; 3872 :     if (plrecl == NULL) return 0;

  0076b	48 83 bc 24 80
	00 00 00 00	 cmp	 QWORD PTR plrecl$[rsp], 0
  00774	75 07		 jne	 SHORT $LN58@parse_ctrl
  00776	33 c0		 xor	 eax, eax
  00778	e9 69 01 00 00	 jmp	 $LN1@parse_ctrl
$LN58@parse_ctrl:

; 3873 : 
; 3874 :     if (sscanf(plrecl, "%u%c", lrecl, &c) != 1
; 3875 :         || *lrecl > MAX_DATALEN)

  0077d	4c 8d 4c 24 30	 lea	 r9, QWORD PTR c$[rsp]
  00782	4c 8b 84 24 00
	01 00 00	 mov	 r8, QWORD PTR lrecl$[rsp]
  0078a	48 8d 15 00 00
	00 00		 lea	 rdx, OFFSET FLAT:$SG162476
  00791	48 8b 8c 24 80
	00 00 00	 mov	 rcx, QWORD PTR plrecl$[rsp]
  00799	e8 00 00 00 00	 call	 sscanf
  0079e	83 f8 01	 cmp	 eax, 1
  007a1	75 10		 jne	 SHORT $LN60@parse_ctrl
  007a3	48 8b 84 24 00
	01 00 00	 mov	 rax, QWORD PTR lrecl$[rsp]
  007ab	81 38 ff 7f 00
	00		 cmp	 DWORD PTR [rax], 32767	; 00007fffH
  007b1	7e 25		 jle	 SHORT $LN59@parse_ctrl
$LN60@parse_ctrl:

; 3876 :     {
; 3877 :         XMERRF ( MSG( HHC02586, "E", plrecl ) );

  007b3	4c 8b 84 24 80
	00 00 00	 mov	 r8, QWORD PTR plrecl$[rsp]
  007bb	48 8d 15 00 00
	00 00		 lea	 rdx, OFFSET FLAT:$SG162477
  007c2	48 8d 0d 00 00
	00 00		 lea	 rcx, OFFSET FLAT:$SG162478
  007c9	e8 00 00 00 00	 call	 printf

; 3878 :         return -1;

  007ce	b8 ff ff ff ff	 mov	 eax, -1
  007d3	e9 0e 01 00 00	 jmp	 $LN1@parse_ctrl
$LN59@parse_ctrl:

; 3879 :     }
; 3880 : 
; 3881 :     /* Determine the block size */
; 3882 :     pblksz = strtok_r (NULL, " \t", &strtok_str);

  007d8	4c 8d 44 24 38	 lea	 r8, QWORD PTR strtok_str$[rsp]
  007dd	48 8d 15 00 00
	00 00		 lea	 rdx, OFFSET FLAT:$SG162479
  007e4	33 c9		 xor	 ecx, ecx
  007e6	ff 15 00 00 00
	00		 call	 QWORD PTR __imp_strtok_r
  007ec	48 89 84 24 88
	00 00 00	 mov	 QWORD PTR pblksz$[rsp], rax

; 3883 :     if (pblksz == NULL) return 0;

  007f4	48 83 bc 24 88
	00 00 00 00	 cmp	 QWORD PTR pblksz$[rsp], 0
  007fd	75 07		 jne	 SHORT $LN61@parse_ctrl
  007ff	33 c0		 xor	 eax, eax
  00801	e9 e0 00 00 00	 jmp	 $LN1@parse_ctrl
$LN61@parse_ctrl:

; 3884 : 
; 3885 :     if (sscanf(pblksz, "%u%c", blksz, &c) != 1
; 3886 :         || *blksz > MAX_DATALEN)

  00806	4c 8d 4c 24 30	 lea	 r9, QWORD PTR c$[rsp]
  0080b	4c 8b 84 24 08
	01 00 00	 mov	 r8, QWORD PTR blksz$[rsp]
  00813	48 8d 15 00 00
	00 00		 lea	 rdx, OFFSET FLAT:$SG162483
  0081a	48 8b 8c 24 88
	00 00 00	 mov	 rcx, QWORD PTR pblksz$[rsp]
  00822	e8 00 00 00 00	 call	 sscanf
  00827	83 f8 01	 cmp	 eax, 1
  0082a	75 10		 jne	 SHORT $LN63@parse_ctrl
  0082c	48 8b 84 24 08
	01 00 00	 mov	 rax, QWORD PTR blksz$[rsp]
  00834	81 38 ff 7f 00
	00		 cmp	 DWORD PTR [rax], 32767	; 00007fffH
  0083a	7e 25		 jle	 SHORT $LN62@parse_ctrl
$LN63@parse_ctrl:

; 3887 :     {
; 3888 :         XMERRF ( MSG( HHC02587, "E", pblksz ) );

  0083c	4c 8b 84 24 88
	00 00 00	 mov	 r8, QWORD PTR pblksz$[rsp]
  00844	48 8d 15 00 00
	00 00		 lea	 rdx, OFFSET FLAT:$SG162484
  0084b	48 8d 0d 00 00
	00 00		 lea	 rcx, OFFSET FLAT:$SG162485
  00852	e8 00 00 00 00	 call	 printf

; 3889 :         return -1;

  00857	b8 ff ff ff ff	 mov	 eax, -1
  0085c	e9 85 00 00 00	 jmp	 $LN1@parse_ctrl
$LN62@parse_ctrl:

; 3890 :     }
; 3891 : 
; 3892 :     /* Determine the key length */
; 3893 :     pkeyln = strtok_r (NULL, " \t", &strtok_str);

  00861	4c 8d 44 24 38	 lea	 r8, QWORD PTR strtok_str$[rsp]
  00866	48 8d 15 00 00
	00 00		 lea	 rdx, OFFSET FLAT:$SG162486
  0086d	33 c9		 xor	 ecx, ecx
  0086f	ff 15 00 00 00
	00		 call	 QWORD PTR __imp_strtok_r
  00875	48 89 84 24 90
	00 00 00	 mov	 QWORD PTR pkeyln$[rsp], rax

; 3894 :     if (pkeyln == NULL) return 0;

  0087d	48 83 bc 24 90
	00 00 00 00	 cmp	 QWORD PTR pkeyln$[rsp], 0
  00886	75 04		 jne	 SHORT $LN64@parse_ctrl
  00888	33 c0		 xor	 eax, eax
  0088a	eb 5a		 jmp	 SHORT $LN1@parse_ctrl
$LN64@parse_ctrl:

; 3895 : 
; 3896 :     if (sscanf(pkeyln, "%u%c", keyln, &c) != 1
; 3897 :         || *keyln > 255)

  0088c	4c 8d 4c 24 30	 lea	 r9, QWORD PTR c$[rsp]
  00891	4c 8b 84 24 10
	01 00 00	 mov	 r8, QWORD PTR keyln$[rsp]
  00899	48 8d 15 00 00
	00 00		 lea	 rdx, OFFSET FLAT:$SG162490
  008a0	48 8b 8c 24 90
	00 00 00	 mov	 rcx, QWORD PTR pkeyln$[rsp]
  008a8	e8 00 00 00 00	 call	 sscanf
  008ad	83 f8 01	 cmp	 eax, 1
  008b0	75 10		 jne	 SHORT $LN66@parse_ctrl
  008b2	48 8b 84 24 10
	01 00 00	 mov	 rax, QWORD PTR keyln$[rsp]
  008ba	81 38 ff 00 00
	00		 cmp	 DWORD PTR [rax], 255	; 000000ffH
  008c0	7e 22		 jle	 SHORT $LN65@parse_ctrl
$LN66@parse_ctrl:

; 3898 :     {
; 3899 :         XMERRF ( MSG( HHC02588, "E", pkeyln ) );

  008c2	4c 8b 84 24 90
	00 00 00	 mov	 r8, QWORD PTR pkeyln$[rsp]
  008ca	48 8d 15 00 00
	00 00		 lea	 rdx, OFFSET FLAT:$SG162491
  008d1	48 8d 0d 00 00
	00 00		 lea	 rcx, OFFSET FLAT:$SG162492
  008d8	e8 00 00 00 00	 call	 printf

; 3900 :         return -1;

  008dd	b8 ff ff ff ff	 mov	 eax, -1
  008e2	eb 02		 jmp	 SHORT $LN1@parse_ctrl
$LN65@parse_ctrl:

; 3901 :     }
; 3902 : 
; 3903 :     return 0;

  008e4	33 c0		 xor	 eax, eax
$LN1@parse_ctrl:

; 3904 : } /* end function parse_ctrl_stmt */

  008e6	48 81 c4 a0 00
	00 00		 add	 rsp, 160		; 000000a0H
  008ed	5f		 pop	 rdi
  008ee	c3		 ret	 0
parse_ctrl_stmt ENDP
_TEXT	ENDS
; Function compile flags: /Odtp
; File C:\papa\MyGit\hyperion-zvector\dasdload64.c
_TEXT	SEGMENT
stmtlen$ = 48
tv88 = 56
msgbuf$1 = 64
__$ArrayPad$ = 128
cfp$ = 160
cfname$ = 168
stmt$ = 176
sbuflen$ = 184
pstmtno$ = 192
read_ctrl_stmt PROC

; 3581 : {

  00000	44 89 4c 24 20	 mov	 DWORD PTR [rsp+32], r9d
  00005	4c 89 44 24 18	 mov	 QWORD PTR [rsp+24], r8
  0000a	48 89 54 24 10	 mov	 QWORD PTR [rsp+16], rdx
  0000f	48 89 4c 24 08	 mov	 QWORD PTR [rsp+8], rcx
  00014	48 81 ec 98 00
	00 00		 sub	 rsp, 152		; 00000098H
  0001b	48 8b 05 00 00
	00 00		 mov	 rax, QWORD PTR __security_cookie
  00022	48 33 c4	 xor	 rax, rsp
  00025	48 89 84 24 80
	00 00 00	 mov	 QWORD PTR __$ArrayPad$[rsp], rax
$LN2@read_ctrl_:

; 3582 :     int         stmtlen;                /* Length of input statement */
; 3583 :     static int  stmtno = 0;             /* Statement number          */
; 3584 : 
; 3585 :     while (1)

  0002d	33 c0		 xor	 eax, eax
  0002f	83 f8 01	 cmp	 eax, 1
  00032	0f 84 21 02 00
	00		 je	 $LN3@read_ctrl_

; 3586 :     {
; 3587 :         /* Read next record from control file */
; 3588 :         stmtno++;

  00038	8b 05 00 00 00
	00		 mov	 eax, DWORD PTR ?stmtno@?1??read_ctrl_stmt@@9@9
  0003e	ff c0		 inc	 eax
  00040	89 05 00 00 00
	00		 mov	 DWORD PTR ?stmtno@?1??read_ctrl_stmt@@9@9, eax

; 3589 :         *pstmtno = stmtno;

  00046	48 8b 84 24 c0
	00 00 00	 mov	 rax, QWORD PTR pstmtno$[rsp]
  0004e	8b 0d 00 00 00
	00		 mov	 ecx, DWORD PTR ?stmtno@?1??read_ctrl_stmt@@9@9
  00054	89 08		 mov	 DWORD PTR [rax], ecx

; 3590 : 
; 3591 :         if (!fgets( stmt, sbuflen, cfp ))

  00056	4c 8b 84 24 a0
	00 00 00	 mov	 r8, QWORD PTR cfp$[rsp]
  0005e	8b 94 24 b8 00
	00 00		 mov	 edx, DWORD PTR sbuflen$[rsp]
  00065	48 8b 8c 24 b0
	00 00 00	 mov	 rcx, QWORD PTR stmt$[rsp]
  0006d	ff 15 00 00 00
	00		 call	 QWORD PTR __imp_fgets
  00073	48 85 c0	 test	 rax, rax
  00076	75 77		 jne	 SHORT $LN7@read_ctrl_

; 3592 :         {
; 3593 :             /* Return +1 when end of control file is reached.
; 3594 :                Else return -1 indicating input file error.
; 3595 :             */
; 3596 :             if (feof( cfp ))

  00078	48 8b 8c 24 a0
	00 00 00	 mov	 rcx, QWORD PTR cfp$[rsp]
  00080	ff 15 00 00 00
	00		 call	 QWORD PTR __imp_feof
  00086	85 c0		 test	 eax, eax
  00088	74 0a		 je	 SHORT $LN8@read_ctrl_

; 3597 :                 return +1;

  0008a	b8 01 00 00 00	 mov	 eax, 1
  0008f	e9 c7 01 00 00	 jmp	 $LN1@read_ctrl_
$LN8@read_ctrl_:

; 3598 : 
; 3599 :             // (error)
; 3600 :             {
; 3601 :                 char msgbuf[64];
; 3602 : 
; 3603 :                 MSGBUF( msgbuf, "line[%d] fgets()", stmtno );

  00094	44 8b 0d 00 00
	00 00		 mov	 r9d, DWORD PTR ?stmtno@?1??read_ctrl_stmt@@9@9
  0009b	4c 8d 05 00 00
	00 00		 lea	 r8, OFFSET FLAT:$SG162276
  000a2	ba 40 00 00 00	 mov	 edx, 64			; 00000040H
  000a7	48 8d 4c 24 40	 lea	 rcx, QWORD PTR msgbuf$1[rsp]
  000ac	ff 15 00 00 00
	00		 call	 QWORD PTR __imp_w32_snprintf

; 3604 :                 // "File %s; %s error: %s"
; 3605 :                 XMERRF( MSG( HHC02468, "E", cfname, msgbuf, strerror( errno )));

  000b2	ff 15 00 00 00
	00		 call	 QWORD PTR __imp__errno
  000b8	8b 08		 mov	 ecx, DWORD PTR [rax]
  000ba	ff 15 00 00 00
	00		 call	 QWORD PTR __imp_w32_strerror
  000c0	48 89 44 24 20	 mov	 QWORD PTR [rsp+32], rax
  000c5	4c 8d 4c 24 40	 lea	 r9, QWORD PTR msgbuf$1[rsp]
  000ca	4c 8b 84 24 a8
	00 00 00	 mov	 r8, QWORD PTR cfname$[rsp]
  000d2	48 8d 15 00 00
	00 00		 lea	 rdx, OFFSET FLAT:$SG162277
  000d9	48 8d 0d 00 00
	00 00		 lea	 rcx, OFFSET FLAT:$SG162278
  000e0	e8 00 00 00 00	 call	 printf

; 3606 :             }
; 3607 :             return -1;

  000e5	b8 ff ff ff ff	 mov	 eax, -1
  000ea	e9 6c 01 00 00	 jmp	 $LN1@read_ctrl_
$LN7@read_ctrl_:
$LN6@read_ctrl_:

; 3608 :         }
; 3609 : 
; 3610 :         /* Indicate input file progess */
; 3611 :         EXTGUIMSG( "IPOS=%"PRId64"\n", (U64) ftell( cfp ));

  000ef	48 8b 05 00 00
	00 00		 mov	 rax, QWORD PTR __imp_extgui
  000f6	83 38 00	 cmp	 DWORD PTR [rax], 0
  000f9	74 36		 je	 SHORT $LN9@read_ctrl_
  000fb	48 8b 8c 24 a0
	00 00 00	 mov	 rcx, QWORD PTR cfp$[rsp]
  00103	ff 15 00 00 00
	00		 call	 QWORD PTR __imp__ftelli64
  00109	48 89 44 24 38	 mov	 QWORD PTR tv88[rsp], rax
  0010e	b9 02 00 00 00	 mov	 ecx, 2
  00113	ff 15 00 00 00
	00		 call	 QWORD PTR __imp___acrt_iob_func
  00119	48 8b 4c 24 38	 mov	 rcx, QWORD PTR tv88[rsp]
  0011e	4c 8b c1	 mov	 r8, rcx
  00121	48 8d 15 00 00
	00 00		 lea	 rdx, OFFSET FLAT:$SG162280
  00128	48 8b c8	 mov	 rcx, rax
  0012b	ff 15 00 00 00
	00		 call	 QWORD PTR __imp_w32_fprintf
$LN9@read_ctrl_:
  00131	33 c0		 xor	 eax, eax
  00133	85 c0		 test	 eax, eax
  00135	75 b8		 jne	 SHORT $LN6@read_ctrl_

; 3612 : 
; 3613 :         /* Check for DOS end of file character */
; 3614 :         if (stmt[0] == '\x1A')

  00137	b8 01 00 00 00	 mov	 eax, 1
  0013c	48 6b c0 00	 imul	 rax, rax, 0
  00140	48 8b 8c 24 b0
	00 00 00	 mov	 rcx, QWORD PTR stmt$[rsp]
  00148	0f be 04 01	 movsx	 eax, BYTE PTR [rcx+rax]
  0014c	83 f8 1a	 cmp	 eax, 26
  0014f	75 0a		 jne	 SHORT $LN10@read_ctrl_

; 3615 :             return +1;

  00151	b8 01 00 00 00	 mov	 eax, 1
  00156	e9 00 01 00 00	 jmp	 $LN1@read_ctrl_
$LN10@read_ctrl_:

; 3616 : 
; 3617 :         /* Check that end of statement has been read */
; 3618 :         stmtlen = (int) strlen( stmt );

  0015b	48 8b 8c 24 b0
	00 00 00	 mov	 rcx, QWORD PTR stmt$[rsp]
  00163	e8 00 00 00 00	 call	 strlen
  00168	89 44 24 30	 mov	 DWORD PTR stmtlen$[rsp], eax

; 3619 :         if (!stmtlen || stmt[ stmtlen-1 ] != '\n')

  0016c	83 7c 24 30 00	 cmp	 DWORD PTR stmtlen$[rsp], 0
  00171	74 19		 je	 SHORT $LN12@read_ctrl_
  00173	8b 44 24 30	 mov	 eax, DWORD PTR stmtlen$[rsp]
  00177	ff c8		 dec	 eax
  00179	48 98		 cdqe
  0017b	48 8b 8c 24 b0
	00 00 00	 mov	 rcx, QWORD PTR stmt$[rsp]
  00183	0f be 04 01	 movsx	 eax, BYTE PTR [rcx+rax]
  00187	83 f8 0a	 cmp	 eax, 10
  0018a	74 2c		 je	 SHORT $LN11@read_ctrl_
$LN12@read_ctrl_:

; 3620 :         {
; 3621 :             // "File %s: line[%04d] error: line length is invalid"
; 3622 :             XMERRF( MSG( HHC02577, "E", cfname, stmtno ));

  0018c	44 8b 0d 00 00
	00 00		 mov	 r9d, DWORD PTR ?stmtno@?1??read_ctrl_stmt@@9@9
  00193	4c 8b 84 24 a8
	00 00 00	 mov	 r8, QWORD PTR cfname$[rsp]
  0019b	48 8d 15 00 00
	00 00		 lea	 rdx, OFFSET FLAT:$SG162284
  001a2	48 8d 0d 00 00
	00 00		 lea	 rcx, OFFSET FLAT:$SG162285
  001a9	e8 00 00 00 00	 call	 printf

; 3623 :             return -1;

  001ae	b8 ff ff ff ff	 mov	 eax, -1
  001b3	e9 a3 00 00 00	 jmp	 $LN1@read_ctrl_
$LN11@read_ctrl_:

; 3624 :         }
; 3625 : 
; 3626 :         /* Remove trailing whitespace */
; 3627 :         RTRIM( stmt );

  001b8	48 8d 15 00 00
	00 00		 lea	 rdx, OFFSET FLAT:$SG162286
  001bf	48 8b 8c 24 b0
	00 00 00	 mov	 rcx, QWORD PTR stmt$[rsp]
  001c7	ff 15 00 00 00
	00		 call	 QWORD PTR __imp_rtrim

; 3628 :         stmtlen = (int) strlen( stmt );

  001cd	48 8b 8c 24 b0
	00 00 00	 mov	 rcx, QWORD PTR stmt$[rsp]
  001d5	e8 00 00 00 00	 call	 strlen
  001da	89 44 24 30	 mov	 DWORD PTR stmtlen$[rsp], eax

; 3629 : 
; 3630 :         /* Print the input statement */
; 3631 :         // "File %s[%04d]: %s"
; 3632 :         XMINFF( 0, MSG( HHC02567, "I", cfname, stmtno, stmt ));

  001de	48 8b 84 24 b0
	00 00 00	 mov	 rax, QWORD PTR stmt$[rsp]
  001e6	48 89 44 24 28	 mov	 QWORD PTR [rsp+40], rax
  001eb	8b 05 00 00 00
	00		 mov	 eax, DWORD PTR ?stmtno@?1??read_ctrl_stmt@@9@9
  001f1	89 44 24 20	 mov	 DWORD PTR [rsp+32], eax
  001f5	4c 8b 8c 24 a8
	00 00 00	 mov	 r9, QWORD PTR cfname$[rsp]
  001fd	4c 8d 05 00 00
	00 00		 lea	 r8, OFFSET FLAT:$SG162287
  00204	48 8d 15 00 00
	00 00		 lea	 rdx, OFFSET FLAT:$SG162288
  0020b	33 c9		 xor	 ecx, ecx
  0020d	e8 00 00 00 00	 call	 info_msg

; 3633 : 
; 3634 :         /* Ignore comment statements */
; 3635 :         if (!stmtlen || stmt[0] == '#' || stmt[0] == '*')

  00212	83 7c 24 30 00	 cmp	 DWORD PTR stmtlen$[rsp], 0
  00217	74 34		 je	 SHORT $LN14@read_ctrl_
  00219	b8 01 00 00 00	 mov	 eax, 1
  0021e	48 6b c0 00	 imul	 rax, rax, 0
  00222	48 8b 8c 24 b0
	00 00 00	 mov	 rcx, QWORD PTR stmt$[rsp]
  0022a	0f be 04 01	 movsx	 eax, BYTE PTR [rcx+rax]
  0022e	83 f8 23	 cmp	 eax, 35			; 00000023H
  00231	74 1a		 je	 SHORT $LN14@read_ctrl_
  00233	b8 01 00 00 00	 mov	 eax, 1
  00238	48 6b c0 00	 imul	 rax, rax, 0
  0023c	48 8b 8c 24 b0
	00 00 00	 mov	 rcx, QWORD PTR stmt$[rsp]
  00244	0f be 04 01	 movsx	 eax, BYTE PTR [rcx+rax]
  00248	83 f8 2a	 cmp	 eax, 42			; 0000002aH
  0024b	75 05		 jne	 SHORT $LN13@read_ctrl_
$LN14@read_ctrl_:

; 3636 :             continue;

  0024d	e9 db fd ff ff	 jmp	 $LN2@read_ctrl_
$LN13@read_ctrl_:

; 3637 : 
; 3638 :         break;

  00252	eb 05		 jmp	 SHORT $LN3@read_ctrl_

; 3639 :     } /* end while */

  00254	e9 d4 fd ff ff	 jmp	 $LN2@read_ctrl_
$LN3@read_ctrl_:

; 3640 : 
; 3641 :     return 0;

  00259	33 c0		 xor	 eax, eax
$LN1@read_ctrl_:

; 3642 : } /* end function read_ctrl_stmt */

  0025b	48 8b 8c 24 80
	00 00 00	 mov	 rcx, QWORD PTR __$ArrayPad$[rsp]
  00263	48 33 cc	 xor	 rcx, rsp
  00266	e8 00 00 00 00	 call	 __security_check_cookie
  0026b	48 81 c4 98 00
	00 00		 add	 rsp, 152		; 00000098H
  00272	c3		 ret	 0
read_ctrl_stmt ENDP
_TEXT	ENDS
; Function compile flags: /Odtp
; File C:\papa\MyGit\hyperion-zvector\dasdload64.c
_TEXT	SEGMENT
keylen$ = 128
datalen$ = 132
rc$ = 136
outtrk$ = 140
i$ = 144
outdblu$ = 148
outrec$ = 152
outtrkbr$ = 156
outusedv$ = 160
outusedr$ = 164
tv70 = 168
tv153 = 176
datablk$ = 192
__$ArrayPad$ = 32976
ofname$ = 33008
cif$ = 33016
devtype$ = 33024
heads$ = 33032
trklen$ = 33040
outcyl$ = 33048
outhead$ = 33056
extsize$ = 33064
dsorg$ = 33072
dirblks$ = 33080
dirblu$ = 33088
lastrec$ = 33096
trkbal$ = 33104
numtrks$ = 33112
nxtcyl$ = 33120
nxthead$ = 33128
empty_initialize PROC

; 3491 : {

  00000	44 89 4c 24 20	 mov	 DWORD PTR [rsp+32], r9d
  00005	66 44 89 44 24
	18		 mov	 WORD PTR [rsp+24], r8w
  0000b	48 89 54 24 10	 mov	 QWORD PTR [rsp+16], rdx
  00010	48 89 4c 24 08	 mov	 QWORD PTR [rsp+8], rcx
  00015	57		 push	 rdi
  00016	b8 e0 80 00 00	 mov	 eax, 32992		; 000080e0H
  0001b	e8 00 00 00 00	 call	 __chkstk
  00020	48 2b e0	 sub	 rsp, rax
  00023	48 8b 05 00 00
	00 00		 mov	 rax, QWORD PTR __security_cookie
  0002a	48 33 c4	 xor	 rax, rsp
  0002d	48 89 84 24 d0
	80 00 00	 mov	 QWORD PTR __$ArrayPad$[rsp], rax

; 3492 : int             rc;                     /* Return code               */
; 3493 : int             i;                      /* Loop counter              */
; 3494 : int             keylen;                 /* Key length of data block  */
; 3495 : int             datalen;                /* Data length of data block */
; 3496 : int             outusedv = 0;           /* Output bytes used on track

  00035	c7 84 24 a0 00
	00 00 00 00 00
	00		 mov	 DWORD PTR outusedv$[rsp], 0

; 3497 :                                            of virtual device         */
; 3498 : int             outusedr = 0;           /* Output bytes used on track

  00040	c7 84 24 a4 00
	00 00 00 00 00
	00		 mov	 DWORD PTR outusedr$[rsp], 0

; 3499 :                                            of real device            */
; 3500 : int             outtrkbr = 0;           /* Output bytes remaining on

  0004b	c7 84 24 9c 00
	00 00 00 00 00
	00		 mov	 DWORD PTR outtrkbr$[rsp], 0

; 3501 :                                            track of real device      */
; 3502 : int             outdblu = 0;            /* Output bytes used in last

  00056	c7 84 24 94 00
	00 00 00 00 00
	00		 mov	 DWORD PTR outdblu$[rsp], 0

; 3503 :                                            directory block           */
; 3504 : int             outtrk = 0;             /* Output relative track     */

  00061	c7 84 24 8c 00
	00 00 00 00 00
	00		 mov	 DWORD PTR outtrk$[rsp], 0

; 3505 : int             outrec = 0;             /* Output record number      */

  0006c	c7 84 24 98 00
	00 00 00 00 00
	00		 mov	 DWORD PTR outrec$[rsp], 0

; 3506 : DATABLK         datablk;                /* Data block                */
; 3507 : 
; 3508 :     /* Initialize the directory if dataset is a PDS */
; 3509 :     if (dsorg & DSORG_PO)

  00077	0f b6 84 24 30
	81 00 00	 movzx	 eax, BYTE PTR dsorg$[rsp]
  0007f	83 e0 02	 and	 eax, 2
  00082	85 c0		 test	 eax, eax
  00084	0f 84 de 01 00
	00		 je	 $LN5@empty_init

; 3510 :     {
; 3511 :         /* Build the first directory block */
; 3512 :         keylen = 8;

  0008a	c7 84 24 80 00
	00 00 08 00 00
	00		 mov	 DWORD PTR keylen$[rsp], 8

; 3513 :         datalen = 256;

  00095	c7 84 24 84 00
	00 00 00 01 00
	00		 mov	 DWORD PTR datalen$[rsp], 256 ; 00000100H

; 3514 :         outdblu = 14;

  000a0	c7 84 24 94 00
	00 00 0e 00 00
	00		 mov	 DWORD PTR outdblu$[rsp], 14

; 3515 :         memset( datablk.kdarea, 0, keylen + datalen);

  000ab	8b 84 24 84 00
	00 00		 mov	 eax, DWORD PTR datalen$[rsp]
  000b2	8b 8c 24 80 00
	00 00		 mov	 ecx, DWORD PTR keylen$[rsp]
  000b9	03 c8		 add	 ecx, eax
  000bb	8b c1		 mov	 eax, ecx
  000bd	48 98		 cdqe
  000bf	48 89 84 24 a8
	00 00 00	 mov	 QWORD PTR tv70[rsp], rax
  000c7	48 8d 8c 24 cc
	00 00 00	 lea	 rcx, QWORD PTR datablk$[rsp+12]
  000cf	48 8b f9	 mov	 rdi, rcx
  000d2	33 c0		 xor	 eax, eax
  000d4	48 8b 8c 24 a8
	00 00 00	 mov	 rcx, QWORD PTR tv70[rsp]
  000dc	f3 aa		 rep stosb

; 3516 :         memcpy( datablk.kdarea, &CKD_ENDTRK, CKD_ENDTRK_SIZE );

  000de	48 8b 05 00 00
	00 00		 mov	 rax, QWORD PTR CKD_ENDTRK
  000e5	48 89 84 24 cc
	00 00 00	 mov	 QWORD PTR datablk$[rsp+12], rax

; 3517 :         store_hw( &datablk.kdarea[ keylen+0 ], outdblu );

  000ed	0f b7 8c 24 94
	00 00 00	 movzx	 ecx, WORD PTR outdblu$[rsp]
  000f5	e8 00 00 00 00	 call	 _byteswap_ushort
  000fa	8b 8c 24 80 00
	00 00		 mov	 ecx, DWORD PTR keylen$[rsp]
  00101	48 63 c9	 movsxd	 rcx, ecx
  00104	48 8d 8c 0c cc
	00 00 00	 lea	 rcx, QWORD PTR datablk$[rsp+rcx+12]
  0010c	0f b7 d0	 movzx	 edx, ax
  0010f	e8 00 00 00 00	 call	 store_hw_noswap

; 3518 :         memcpy( datablk.kdarea + keylen + 2, &CKD_ENDTRK, CKD_ENDTRK_SIZE );

  00114	48 63 84 24 80
	00 00 00	 movsxd	 rax, DWORD PTR keylen$[rsp]
  0011c	48 8b 0d 00 00
	00 00		 mov	 rcx, QWORD PTR CKD_ENDTRK
  00123	48 89 8c 04 ce
	00 00 00	 mov	 QWORD PTR datablk$[rsp+rax+14], rcx

; 3519 : 
; 3520 :         /* Write directory blocks to output dataset */
; 3521 :         for (i = 0; i < dirblks; i++)

  0012b	c7 84 24 90 00
	00 00 00 00 00
	00		 mov	 DWORD PTR i$[rsp], 0
  00136	eb 10		 jmp	 SHORT $LN4@empty_init
$LN2@empty_init:
  00138	8b 84 24 90 00
	00 00		 mov	 eax, DWORD PTR i$[rsp]
  0013f	ff c0		 inc	 eax
  00141	89 84 24 90 00
	00 00		 mov	 DWORD PTR i$[rsp], eax
$LN4@empty_init:
  00148	8b 84 24 38 81
	00 00		 mov	 eax, DWORD PTR dirblks$[rsp]
  0014f	39 84 24 90 00
	00 00		 cmp	 DWORD PTR i$[rsp], eax
  00156	0f 8d 0c 01 00
	00		 jge	 $LN3@empty_init

; 3522 :         {
; 3523 :             /* Write a directory block */
; 3524 :             rc = write_block (cif, ofname, &datablk, keylen, datalen,

  0015c	48 8d 84 24 98
	00 00 00	 lea	 rax, QWORD PTR outrec$[rsp]
  00164	48 89 44 24 78	 mov	 QWORD PTR [rsp+120], rax
  00169	48 8d 84 24 20
	81 00 00	 lea	 rax, QWORD PTR outhead$[rsp]
  00171	48 89 44 24 70	 mov	 QWORD PTR [rsp+112], rax
  00176	48 8d 84 24 18
	81 00 00	 lea	 rax, QWORD PTR outcyl$[rsp]
  0017e	48 89 44 24 68	 mov	 QWORD PTR [rsp+104], rax
  00183	48 8d 84 24 8c
	00 00 00	 lea	 rax, QWORD PTR outtrk$[rsp]
  0018b	48 89 44 24 60	 mov	 QWORD PTR [rsp+96], rax
  00190	48 8d 84 24 9c
	00 00 00	 lea	 rax, QWORD PTR outtrkbr$[rsp]
  00198	48 89 44 24 58	 mov	 QWORD PTR [rsp+88], rax
  0019d	48 8d 84 24 a4
	00 00 00	 lea	 rax, QWORD PTR outusedr$[rsp]
  001a5	48 89 44 24 50	 mov	 QWORD PTR [rsp+80], rax
  001aa	48 8d 84 24 a0
	00 00 00	 lea	 rax, QWORD PTR outusedv$[rsp]
  001b2	48 89 44 24 48	 mov	 QWORD PTR [rsp+72], rax
  001b7	8b 84 24 28 81
	00 00		 mov	 eax, DWORD PTR extsize$[rsp]
  001be	89 44 24 40	 mov	 DWORD PTR [rsp+64], eax
  001c2	8b 84 24 10 81
	00 00		 mov	 eax, DWORD PTR trklen$[rsp]
  001c9	89 44 24 38	 mov	 DWORD PTR [rsp+56], eax
  001cd	8b 84 24 08 81
	00 00		 mov	 eax, DWORD PTR heads$[rsp]
  001d4	89 44 24 30	 mov	 DWORD PTR [rsp+48], eax
  001d8	0f b7 84 24 00
	81 00 00	 movzx	 eax, WORD PTR devtype$[rsp]
  001e0	66 89 44 24 28	 mov	 WORD PTR [rsp+40], ax
  001e5	8b 84 24 84 00
	00 00		 mov	 eax, DWORD PTR datalen$[rsp]
  001ec	89 44 24 20	 mov	 DWORD PTR [rsp+32], eax
  001f0	44 8b 8c 24 80
	00 00 00	 mov	 r9d, DWORD PTR keylen$[rsp]
  001f8	4c 8d 84 24 c0
	00 00 00	 lea	 r8, QWORD PTR datablk$[rsp]
  00200	48 8b 94 24 f0
	80 00 00	 mov	 rdx, QWORD PTR ofname$[rsp]
  00208	48 8b 8c 24 f8
	80 00 00	 mov	 rcx, QWORD PTR cif$[rsp]
  00210	e8 00 00 00 00	 call	 write_block
  00215	89 84 24 88 00
	00 00		 mov	 DWORD PTR rc$[rsp], eax

; 3525 :                         devtype, heads, trklen, extsize,
; 3526 :                         &outusedv, &outusedr, &outtrkbr,
; 3527 :                         &outtrk, &outcyl, &outhead, &outrec);
; 3528 :             if (rc < 0) return -1;

  0021c	83 bc 24 88 00
	00 00 00	 cmp	 DWORD PTR rc$[rsp], 0
  00224	7d 0a		 jge	 SHORT $LN6@empty_init
  00226	b8 ff ff ff ff	 mov	 eax, -1
  0022b	e9 fb 01 00 00	 jmp	 $LN1@empty_init
$LN6@empty_init:

; 3529 : 
; 3530 :             /* Clear subsequent directory blocks to zero */
; 3531 :             memset (datablk.kdarea, 0, keylen + datalen);

  00230	8b 84 24 84 00
	00 00		 mov	 eax, DWORD PTR datalen$[rsp]
  00237	8b 8c 24 80 00
	00 00		 mov	 ecx, DWORD PTR keylen$[rsp]
  0023e	03 c8		 add	 ecx, eax
  00240	8b c1		 mov	 eax, ecx
  00242	48 98		 cdqe
  00244	48 89 84 24 b0
	00 00 00	 mov	 QWORD PTR tv153[rsp], rax
  0024c	48 8d 8c 24 cc
	00 00 00	 lea	 rcx, QWORD PTR datablk$[rsp+12]
  00254	48 8b f9	 mov	 rdi, rcx
  00257	33 c0		 xor	 eax, eax
  00259	48 8b 8c 24 b0
	00 00 00	 mov	 rcx, QWORD PTR tv153[rsp]
  00261	f3 aa		 rep stosb

; 3532 : 
; 3533 :         } /* end for(i) */

  00263	e9 d0 fe ff ff	 jmp	 $LN2@empty_init
$LN3@empty_init:
$LN5@empty_init:

; 3534 : 
; 3535 :     } /* end if(DSORG_PO) */
; 3536 : 
; 3537 :     /* Create the end of file record */
; 3538 :     keylen = 0;

  00268	c7 84 24 80 00
	00 00 00 00 00
	00		 mov	 DWORD PTR keylen$[rsp], 0

; 3539 :     datalen = 0;

  00273	c7 84 24 84 00
	00 00 00 00 00
	00		 mov	 DWORD PTR datalen$[rsp], 0

; 3540 :     rc = write_block (cif, ofname, &datablk, keylen, datalen,

  0027e	48 8d 84 24 98
	00 00 00	 lea	 rax, QWORD PTR outrec$[rsp]
  00286	48 89 44 24 78	 mov	 QWORD PTR [rsp+120], rax
  0028b	48 8d 84 24 20
	81 00 00	 lea	 rax, QWORD PTR outhead$[rsp]
  00293	48 89 44 24 70	 mov	 QWORD PTR [rsp+112], rax
  00298	48 8d 84 24 18
	81 00 00	 lea	 rax, QWORD PTR outcyl$[rsp]
  002a0	48 89 44 24 68	 mov	 QWORD PTR [rsp+104], rax
  002a5	48 8d 84 24 8c
	00 00 00	 lea	 rax, QWORD PTR outtrk$[rsp]
  002ad	48 89 44 24 60	 mov	 QWORD PTR [rsp+96], rax
  002b2	48 8d 84 24 9c
	00 00 00	 lea	 rax, QWORD PTR outtrkbr$[rsp]
  002ba	48 89 44 24 58	 mov	 QWORD PTR [rsp+88], rax
  002bf	48 8d 84 24 a4
	00 00 00	 lea	 rax, QWORD PTR outusedr$[rsp]
  002c7	48 89 44 24 50	 mov	 QWORD PTR [rsp+80], rax
  002cc	48 8d 84 24 a0
	00 00 00	 lea	 rax, QWORD PTR outusedv$[rsp]
  002d4	48 89 44 24 48	 mov	 QWORD PTR [rsp+72], rax
  002d9	8b 84 24 28 81
	00 00		 mov	 eax, DWORD PTR extsize$[rsp]
  002e0	89 44 24 40	 mov	 DWORD PTR [rsp+64], eax
  002e4	8b 84 24 10 81
	00 00		 mov	 eax, DWORD PTR trklen$[rsp]
  002eb	89 44 24 38	 mov	 DWORD PTR [rsp+56], eax
  002ef	8b 84 24 08 81
	00 00		 mov	 eax, DWORD PTR heads$[rsp]
  002f6	89 44 24 30	 mov	 DWORD PTR [rsp+48], eax
  002fa	0f b7 84 24 00
	81 00 00	 movzx	 eax, WORD PTR devtype$[rsp]
  00302	66 89 44 24 28	 mov	 WORD PTR [rsp+40], ax
  00307	8b 84 24 84 00
	00 00		 mov	 eax, DWORD PTR datalen$[rsp]
  0030e	89 44 24 20	 mov	 DWORD PTR [rsp+32], eax
  00312	44 8b 8c 24 80
	00 00 00	 mov	 r9d, DWORD PTR keylen$[rsp]
  0031a	4c 8d 84 24 c0
	00 00 00	 lea	 r8, QWORD PTR datablk$[rsp]
  00322	48 8b 94 24 f0
	80 00 00	 mov	 rdx, QWORD PTR ofname$[rsp]
  0032a	48 8b 8c 24 f8
	80 00 00	 mov	 rcx, QWORD PTR cif$[rsp]
  00332	e8 00 00 00 00	 call	 write_block
  00337	89 84 24 88 00
	00 00		 mov	 DWORD PTR rc$[rsp], eax

; 3541 :                 devtype, heads, trklen, extsize,
; 3542 :                 &outusedv, &outusedr, &outtrkbr,
; 3543 :                 &outtrk, &outcyl, &outhead, &outrec);
; 3544 :     if (rc < 0) return -1;

  0033e	83 bc 24 88 00
	00 00 00	 cmp	 DWORD PTR rc$[rsp], 0
  00346	7d 0a		 jge	 SHORT $LN7@empty_init
  00348	b8 ff ff ff ff	 mov	 eax, -1
  0034d	e9 d9 00 00 00	 jmp	 $LN1@empty_init
$LN7@empty_init:

; 3545 : 
; 3546 :     /* Return number of bytes used in last directory block */
; 3547 :     *dirblu = outdblu;

  00352	48 8b 84 24 40
	81 00 00	 mov	 rax, QWORD PTR dirblu$[rsp]
  0035a	8b 8c 24 94 00
	00 00		 mov	 ecx, DWORD PTR outdblu$[rsp]
  00361	89 08		 mov	 DWORD PTR [rax], ecx

; 3548 : 
; 3549 :     /* Return the last record number and track balance */
; 3550 :     *lastrec = outrec;

  00363	48 8b 84 24 48
	81 00 00	 mov	 rax, QWORD PTR lastrec$[rsp]
  0036b	8b 8c 24 98 00
	00 00		 mov	 ecx, DWORD PTR outrec$[rsp]
  00372	89 08		 mov	 DWORD PTR [rax], ecx

; 3551 :     *trkbal = outtrkbr;

  00374	48 8b 84 24 50
	81 00 00	 mov	 rax, QWORD PTR trkbal$[rsp]
  0037c	8b 8c 24 9c 00
	00 00		 mov	 ecx, DWORD PTR outtrkbr$[rsp]
  00383	89 08		 mov	 DWORD PTR [rax], ecx

; 3552 : 
; 3553 :     /* Write data remaining in track buffer */
; 3554 :     rc = write_track (cif, ofname, heads, trklen,

  00385	48 8d 84 24 20
	81 00 00	 lea	 rax, QWORD PTR outhead$[rsp]
  0038d	48 89 44 24 38	 mov	 QWORD PTR [rsp+56], rax
  00392	48 8d 84 24 18
	81 00 00	 lea	 rax, QWORD PTR outcyl$[rsp]
  0039a	48 89 44 24 30	 mov	 QWORD PTR [rsp+48], rax
  0039f	48 8d 84 24 8c
	00 00 00	 lea	 rax, QWORD PTR outtrk$[rsp]
  003a7	48 89 44 24 28	 mov	 QWORD PTR [rsp+40], rax
  003ac	48 8d 84 24 a0
	00 00 00	 lea	 rax, QWORD PTR outusedv$[rsp]
  003b4	48 89 44 24 20	 mov	 QWORD PTR [rsp+32], rax
  003b9	44 8b 8c 24 10
	81 00 00	 mov	 r9d, DWORD PTR trklen$[rsp]
  003c1	44 8b 84 24 08
	81 00 00	 mov	 r8d, DWORD PTR heads$[rsp]
  003c9	48 8b 94 24 f0
	80 00 00	 mov	 rdx, QWORD PTR ofname$[rsp]
  003d1	48 8b 8c 24 f8
	80 00 00	 mov	 rcx, QWORD PTR cif$[rsp]
  003d9	e8 00 00 00 00	 call	 write_track
  003de	89 84 24 88 00
	00 00		 mov	 DWORD PTR rc$[rsp], eax

; 3555 :                     &outusedv, &outtrk, &outcyl, &outhead);
; 3556 :     if (rc < 0) return -1;

  003e5	83 bc 24 88 00
	00 00 00	 cmp	 DWORD PTR rc$[rsp], 0
  003ed	7d 07		 jge	 SHORT $LN8@empty_init
  003ef	b8 ff ff ff ff	 mov	 eax, -1
  003f4	eb 35		 jmp	 SHORT $LN1@empty_init
$LN8@empty_init:

; 3557 : 
; 3558 :     /* Return number of tracks and starting address of next dataset */
; 3559 :     *numtrks = outtrk;

  003f6	48 8b 84 24 58
	81 00 00	 mov	 rax, QWORD PTR numtrks$[rsp]
  003fe	8b 8c 24 8c 00
	00 00		 mov	 ecx, DWORD PTR outtrk$[rsp]
  00405	89 08		 mov	 DWORD PTR [rax], ecx

; 3560 :     *nxtcyl = outcyl;

  00407	48 8b 84 24 60
	81 00 00	 mov	 rax, QWORD PTR nxtcyl$[rsp]
  0040f	8b 8c 24 18 81
	00 00		 mov	 ecx, DWORD PTR outcyl$[rsp]
  00416	89 08		 mov	 DWORD PTR [rax], ecx

; 3561 :     *nxthead = outhead;

  00418	48 8b 84 24 68
	81 00 00	 mov	 rax, QWORD PTR nxthead$[rsp]
  00420	8b 8c 24 20 81
	00 00		 mov	 ecx, DWORD PTR outhead$[rsp]
  00427	89 08		 mov	 DWORD PTR [rax], ecx

; 3562 :     return 0;

  00429	33 c0		 xor	 eax, eax
$LN1@empty_init:

; 3563 : 
; 3564 : } /* end function empty_initialize */

  0042b	48 8b 8c 24 d0
	80 00 00	 mov	 rcx, QWORD PTR __$ArrayPad$[rsp]
  00433	48 33 cc	 xor	 rcx, rsp
  00436	e8 00 00 00 00	 call	 __security_check_cookie
  0043b	48 81 c4 e0 80
	00 00		 add	 rsp, 32992		; 000080e0H
  00442	5f		 pop	 rdi
  00443	c3		 ret	 0
empty_initialize ENDP
_TEXT	ENDS
; Function compile flags: /Odtp
; File C:\papa\MyGit\hyperion-zvector\dasdload64.c
_TEXT	SEGMENT
rc$ = 128
sfd$ = 132
size$ = 136
outtrk$ = 140
outrec$ = 144
outtrkbr$ = 148
outusedv$ = 152
tv179 = 156
tv184 = 160
outusedr$ = 164
tv236 = 168
st$ = 176
datablk$ = 240
pathname$ = 33024
__$ArrayPad$ = 33296
sfname$ = 33328
ofname$ = 33336
cif$ = 33344
devtype$ = 33352
heads$ = 33360
trklen$ = 33368
outcyl$ = 33376
outhead$ = 33384
extsize$ = 33392
dsorg$ = 33400
recfm$ = 33408
lrecl$ = 33416
blksz$ = 33424
keyln$ = 33432
lastrec$ = 33440
trkbal$ = 33448
numtrks$ = 33456
nxtcyl$ = 33464
nxthead$ = 33472
seq_initialize PROC

; 3335 : {

  00000	66 44 89 4c 24
	20		 mov	 WORD PTR [rsp+32], r9w
  00006	4c 89 44 24 18	 mov	 QWORD PTR [rsp+24], r8
  0000b	48 89 54 24 10	 mov	 QWORD PTR [rsp+16], rdx
  00010	48 89 4c 24 08	 mov	 QWORD PTR [rsp+8], rcx
  00015	57		 push	 rdi
  00016	b8 20 82 00 00	 mov	 eax, 33312		; 00008220H
  0001b	e8 00 00 00 00	 call	 __chkstk
  00020	48 2b e0	 sub	 rsp, rax
  00023	48 8b 05 00 00
	00 00		 mov	 rax, QWORD PTR __security_cookie
  0002a	48 33 c4	 xor	 rax, rsp
  0002d	48 89 84 24 10
	82 00 00	 mov	 QWORD PTR __$ArrayPad$[rsp], rax

; 3336 : int             rc;                     /* Return code               */
; 3337 : int             sfd;                    /* Input seq file descriptor */
; 3338 : int             size;                   /* Size left in input file   */
; 3339 : int             outusedv = 0;           /* Output bytes used on track

  00035	c7 84 24 98 00
	00 00 00 00 00
	00		 mov	 DWORD PTR outusedv$[rsp], 0

; 3340 :                                            of virtual device         */
; 3341 : int             outusedr = 0;           /* Output bytes used on track

  00040	c7 84 24 a4 00
	00 00 00 00 00
	00		 mov	 DWORD PTR outusedr$[rsp], 0

; 3342 :                                            of real device            */
; 3343 : int             outtrkbr = 0;           /* Output bytes remaining on

  0004b	c7 84 24 94 00
	00 00 00 00 00
	00		 mov	 DWORD PTR outtrkbr$[rsp], 0

; 3344 :                                            track of real device      */
; 3345 : int             outtrk = 0;             /* Output relative track     */

  00056	c7 84 24 8c 00
	00 00 00 00 00
	00		 mov	 DWORD PTR outtrk$[rsp], 0

; 3346 : int             outrec = 0;             /* Output record number      */

  00061	c7 84 24 90 00
	00 00 00 00 00
	00		 mov	 DWORD PTR outrec$[rsp], 0

; 3347 : struct stat     st;                     /* Data area for fstat()     */
; 3348 : DATABLK         datablk;                /* Data block                */
; 3349 : char            pathname[MAX_PATH];     /* sfname in host path format*/
; 3350 : 
; 3351 :     /* Perform some checks */
; 3352 :     if (!(dsorg & DSORG_PS) && !(dsorg & DSORG_DA))

  0006c	0f b6 84 24 78
	82 00 00	 movzx	 eax, BYTE PTR dsorg$[rsp]
  00074	83 e0 40	 and	 eax, 64			; 00000040H
  00077	85 c0		 test	 eax, eax
  00079	75 3f		 jne	 SHORT $LN4@seq_initia
  0007b	0f b6 84 24 78
	82 00 00	 movzx	 eax, BYTE PTR dsorg$[rsp]
  00083	83 e0 20	 and	 eax, 32			; 00000020H
  00086	85 c0		 test	 eax, eax
  00088	75 30		 jne	 SHORT $LN4@seq_initia

; 3353 :     {
; 3354 :         XMERRF ( MSG( HHC02573, "E", sfname, dsorg ) );

  0008a	0f b6 84 24 78
	82 00 00	 movzx	 eax, BYTE PTR dsorg$[rsp]
  00092	44 8b c8	 mov	 r9d, eax
  00095	4c 8b 84 24 30
	82 00 00	 mov	 r8, QWORD PTR sfname$[rsp]
  0009d	48 8d 15 00 00
	00 00		 lea	 rdx, OFFSET FLAT:$SG162163
  000a4	48 8d 0d 00 00
	00 00		 lea	 rcx, OFFSET FLAT:$SG162164
  000ab	e8 00 00 00 00	 call	 printf

; 3355 :         return -1;

  000b0	b8 ff ff ff ff	 mov	 eax, -1
  000b5	e9 d8 06 00 00	 jmp	 $LN1@seq_initia
$LN4@seq_initia:

; 3356 :     }
; 3357 :     if (recfm != RECFM_FORMAT_F && recfm != (RECFM_FORMAT_F|RECFM_BLOCKED))

  000ba	0f b6 84 24 80
	82 00 00	 movzx	 eax, BYTE PTR recfm$[rsp]
  000c2	3d 80 00 00 00	 cmp	 eax, 128		; 00000080H
  000c7	74 3f		 je	 SHORT $LN5@seq_initia
  000c9	0f b6 84 24 80
	82 00 00	 movzx	 eax, BYTE PTR recfm$[rsp]
  000d1	3d 90 00 00 00	 cmp	 eax, 144		; 00000090H
  000d6	74 30		 je	 SHORT $LN5@seq_initia

; 3358 :     {
; 3359 :         XMERRF ( MSG( HHC02574, "E", sfname, recfm ) );

  000d8	0f b6 84 24 80
	82 00 00	 movzx	 eax, BYTE PTR recfm$[rsp]
  000e0	44 8b c8	 mov	 r9d, eax
  000e3	4c 8b 84 24 30
	82 00 00	 mov	 r8, QWORD PTR sfname$[rsp]
  000eb	48 8d 15 00 00
	00 00		 lea	 rdx, OFFSET FLAT:$SG162166
  000f2	48 8d 0d 00 00
	00 00		 lea	 rcx, OFFSET FLAT:$SG162167
  000f9	e8 00 00 00 00	 call	 printf

; 3360 :         return -1;

  000fe	b8 ff ff ff ff	 mov	 eax, -1
  00103	e9 8a 06 00 00	 jmp	 $LN1@seq_initia
$LN5@seq_initia:

; 3361 :     }
; 3362 :     if (blksz == 0) blksz = lrecl;

  00108	83 bc 24 90 82
	00 00 00	 cmp	 DWORD PTR blksz$[rsp], 0
  00110	75 0e		 jne	 SHORT $LN6@seq_initia
  00112	8b 84 24 88 82
	00 00		 mov	 eax, DWORD PTR lrecl$[rsp]
  00119	89 84 24 90 82
	00 00		 mov	 DWORD PTR blksz$[rsp], eax
$LN6@seq_initia:

; 3363 :     if (lrecl == 0) lrecl = blksz;

  00120	83 bc 24 88 82
	00 00 00	 cmp	 DWORD PTR lrecl$[rsp], 0
  00128	75 0e		 jne	 SHORT $LN7@seq_initia
  0012a	8b 84 24 90 82
	00 00		 mov	 eax, DWORD PTR blksz$[rsp]
  00131	89 84 24 88 82
	00 00		 mov	 DWORD PTR lrecl$[rsp], eax
$LN7@seq_initia:

; 3364 :     if (lrecl == 0 || blksz % lrecl != 0
; 3365 :      || (blksz != lrecl && recfm == RECFM_FORMAT_F))

  00138	83 bc 24 88 82
	00 00 00	 cmp	 DWORD PTR lrecl$[rsp], 0
  00140	74 34		 je	 SHORT $LN9@seq_initia
  00142	8b 84 24 90 82
	00 00		 mov	 eax, DWORD PTR blksz$[rsp]
  00149	99		 cdq
  0014a	f7 bc 24 88 82
	00 00		 idiv	 DWORD PTR lrecl$[rsp]
  00151	8b c2		 mov	 eax, edx
  00153	85 c0		 test	 eax, eax
  00155	75 1f		 jne	 SHORT $LN9@seq_initia
  00157	8b 84 24 88 82
	00 00		 mov	 eax, DWORD PTR lrecl$[rsp]
  0015e	39 84 24 90 82
	00 00		 cmp	 DWORD PTR blksz$[rsp], eax
  00165	74 47		 je	 SHORT $LN8@seq_initia
  00167	0f b6 84 24 80
	82 00 00	 movzx	 eax, BYTE PTR recfm$[rsp]
  0016f	3d 80 00 00 00	 cmp	 eax, 128		; 00000080H
  00174	75 38		 jne	 SHORT $LN8@seq_initia
$LN9@seq_initia:

; 3366 :     {
; 3367 :         XMERRF ( MSG( HHC02575, "E", sfname, lrecl, blksz ) );

  00176	8b 84 24 90 82
	00 00		 mov	 eax, DWORD PTR blksz$[rsp]
  0017d	89 44 24 20	 mov	 DWORD PTR [rsp+32], eax
  00181	44 8b 8c 24 88
	82 00 00	 mov	 r9d, DWORD PTR lrecl$[rsp]
  00189	4c 8b 84 24 30
	82 00 00	 mov	 r8, QWORD PTR sfname$[rsp]
  00191	48 8d 15 00 00
	00 00		 lea	 rdx, OFFSET FLAT:$SG162172
  00198	48 8d 0d 00 00
	00 00		 lea	 rcx, OFFSET FLAT:$SG162173
  0019f	e8 00 00 00 00	 call	 printf

; 3368 :         return -1;

  001a4	b8 ff ff ff ff	 mov	 eax, -1
  001a9	e9 e4 05 00 00	 jmp	 $LN1@seq_initia
$LN8@seq_initia:

; 3369 :     }
; 3370 :     if (keyln > 0 && blksz > lrecl)

  001ae	83 bc 24 98 82
	00 00 00	 cmp	 DWORD PTR keyln$[rsp], 0
  001b6	7e 3d		 jle	 SHORT $LN10@seq_initia
  001b8	8b 84 24 88 82
	00 00		 mov	 eax, DWORD PTR lrecl$[rsp]
  001bf	39 84 24 90 82
	00 00		 cmp	 DWORD PTR blksz$[rsp], eax
  001c6	7e 2d		 jle	 SHORT $LN10@seq_initia

; 3371 :     {
; 3372 :         XMERR ( MSG( HHC02576, "E", sfname, keyln ) );

  001c8	44 8b 8c 24 98
	82 00 00	 mov	 r9d, DWORD PTR keyln$[rsp]
  001d0	4c 8b 84 24 30
	82 00 00	 mov	 r8, QWORD PTR sfname$[rsp]
  001d8	48 8d 15 00 00
	00 00		 lea	 rdx, OFFSET FLAT:$SG162175
  001df	48 8d 0d 00 00
	00 00		 lea	 rcx, OFFSET FLAT:$SG162176
  001e6	e8 00 00 00 00	 call	 printf

; 3373 :         return -1;

  001eb	b8 ff ff ff ff	 mov	 eax, -1
  001f0	e9 9d 05 00 00	 jmp	 $LN1@seq_initia
$LN10@seq_initia:

; 3374 :     }
; 3375 : 
; 3376 :     /* Open the input file */
; 3377 :     hostpath(pathname, sfname, sizeof(pathname));

  001f5	41 b8 04 01 00
	00		 mov	 r8d, 260		; 00000104H
  001fb	48 8b 94 24 30
	82 00 00	 mov	 rdx, QWORD PTR sfname$[rsp]
  00203	48 8d 8c 24 00
	81 00 00	 lea	 rcx, QWORD PTR pathname$[rsp]
  0020b	ff 15 00 00 00
	00		 call	 QWORD PTR __imp_hostpath

; 3378 :     sfd = HOPEN (pathname, O_RDONLY|O_BINARY);

  00211	ba 00 80 00 00	 mov	 edx, 32768		; 00008000H
  00216	48 8d 8c 24 00
	81 00 00	 lea	 rcx, QWORD PTR pathname$[rsp]
  0021e	ff 15 00 00 00
	00		 call	 QWORD PTR __imp_w32_hopen
  00224	89 84 24 84 00
	00 00		 mov	 DWORD PTR sfd$[rsp], eax

; 3379 :     if (sfd < 0)

  0022b	83 bc 24 84 00
	00 00 00	 cmp	 DWORD PTR sfd$[rsp], 0
  00233	7d 3f		 jge	 SHORT $LN11@seq_initia

; 3380 :     {
; 3381 :         XMERRF ( MSG( HHC02468, "E", sfname, "open()", strerror(errno) ) );

  00235	ff 15 00 00 00
	00		 call	 QWORD PTR __imp__errno
  0023b	8b 08		 mov	 ecx, DWORD PTR [rax]
  0023d	ff 15 00 00 00
	00		 call	 QWORD PTR __imp_w32_strerror
  00243	48 89 44 24 20	 mov	 QWORD PTR [rsp+32], rax
  00248	4c 8d 0d 00 00
	00 00		 lea	 r9, OFFSET FLAT:$SG162178
  0024f	4c 8b 84 24 30
	82 00 00	 mov	 r8, QWORD PTR sfname$[rsp]
  00257	48 8d 15 00 00
	00 00		 lea	 rdx, OFFSET FLAT:$SG162179
  0025e	48 8d 0d 00 00
	00 00		 lea	 rcx, OFFSET FLAT:$SG162180
  00265	e8 00 00 00 00	 call	 printf

; 3382 :         return -1;

  0026a	b8 ff ff ff ff	 mov	 eax, -1
  0026f	e9 1e 05 00 00	 jmp	 $LN1@seq_initia
$LN11@seq_initia:

; 3383 :     }
; 3384 : 
; 3385 :     /* Get input file status */
; 3386 :     rc = fstat(sfd, &st);

  00274	48 8d 94 24 b0
	00 00 00	 lea	 rdx, QWORD PTR st$[rsp]
  0027c	8b 8c 24 84 00
	00 00		 mov	 ecx, DWORD PTR sfd$[rsp]
  00283	ff 15 00 00 00
	00		 call	 QWORD PTR __imp__fstat64
  00289	89 84 24 80 00
	00 00		 mov	 DWORD PTR rc$[rsp], eax

; 3387 :     if (rc < 0)

  00290	83 bc 24 80 00
	00 00 00	 cmp	 DWORD PTR rc$[rsp], 0
  00298	7d 4c		 jge	 SHORT $LN12@seq_initia

; 3388 :     {
; 3389 :         XMERRF ( MSG( HHC02468, "E", sfname, "fstat()", strerror(errno) ) );

  0029a	ff 15 00 00 00
	00		 call	 QWORD PTR __imp__errno
  002a0	8b 08		 mov	 ecx, DWORD PTR [rax]
  002a2	ff 15 00 00 00
	00		 call	 QWORD PTR __imp_w32_strerror
  002a8	48 89 44 24 20	 mov	 QWORD PTR [rsp+32], rax
  002ad	4c 8d 0d 00 00
	00 00		 lea	 r9, OFFSET FLAT:$SG162182
  002b4	4c 8b 84 24 30
	82 00 00	 mov	 r8, QWORD PTR sfname$[rsp]
  002bc	48 8d 15 00 00
	00 00		 lea	 rdx, OFFSET FLAT:$SG162183
  002c3	48 8d 0d 00 00
	00 00		 lea	 rcx, OFFSET FLAT:$SG162184
  002ca	e8 00 00 00 00	 call	 printf

; 3390 :         close (sfd);

  002cf	8b 8c 24 84 00
	00 00		 mov	 ecx, DWORD PTR sfd$[rsp]
  002d6	ff 15 00 00 00
	00		 call	 QWORD PTR __imp_close

; 3391 :         return -1;

  002dc	b8 ff ff ff ff	 mov	 eax, -1
  002e1	e9 ac 04 00 00	 jmp	 $LN1@seq_initia
$LN12@seq_initia:

; 3392 :     }
; 3393 :     size = (int) st.st_size;

  002e6	8b 84 24 c8 00
	00 00		 mov	 eax, DWORD PTR st$[rsp+24]
  002ed	89 84 24 88 00
	00 00		 mov	 DWORD PTR size$[rsp], eax

; 3394 : 
; 3395 :     /* Read the first track */
; 3396 :     rc = read_track( cif, *nxtcyl, (U8) *nxthead );

  002f4	48 8b 84 24 c0
	82 00 00	 mov	 rax, QWORD PTR nxthead$[rsp]
  002fc	44 0f b6 00	 movzx	 r8d, BYTE PTR [rax]
  00300	48 8b 84 24 b8
	82 00 00	 mov	 rax, QWORD PTR nxtcyl$[rsp]
  00308	8b 10		 mov	 edx, DWORD PTR [rax]
  0030a	48 8b 8c 24 40
	82 00 00	 mov	 rcx, QWORD PTR cif$[rsp]
  00312	ff 15 00 00 00
	00		 call	 QWORD PTR __imp_read_track
  00318	89 84 24 80 00
	00 00		 mov	 DWORD PTR rc$[rsp], eax

; 3397 :     if (rc < 0)

  0031f	83 bc 24 80 00
	00 00 00	 cmp	 DWORD PTR rc$[rsp], 0
  00327	7d 67		 jge	 SHORT $LN13@seq_initia

; 3398 :     {
; 3399 :         XMERRF ( MSG( HHC02547, "E", ofname, *nxtcyl, *nxtcyl, *nxthead, *nxthead ) );

  00329	48 8b 84 24 c0
	82 00 00	 mov	 rax, QWORD PTR nxthead$[rsp]
  00331	8b 00		 mov	 eax, DWORD PTR [rax]
  00333	89 44 24 30	 mov	 DWORD PTR [rsp+48], eax
  00337	48 8b 84 24 c0
	82 00 00	 mov	 rax, QWORD PTR nxthead$[rsp]
  0033f	8b 00		 mov	 eax, DWORD PTR [rax]
  00341	89 44 24 28	 mov	 DWORD PTR [rsp+40], eax
  00345	48 8b 84 24 b8
	82 00 00	 mov	 rax, QWORD PTR nxtcyl$[rsp]
  0034d	8b 00		 mov	 eax, DWORD PTR [rax]
  0034f	89 44 24 20	 mov	 DWORD PTR [rsp+32], eax
  00353	48 8b 84 24 b8
	82 00 00	 mov	 rax, QWORD PTR nxtcyl$[rsp]
  0035b	44 8b 08	 mov	 r9d, DWORD PTR [rax]
  0035e	4c 8b 84 24 38
	82 00 00	 mov	 r8, QWORD PTR ofname$[rsp]
  00366	48 8d 15 00 00
	00 00		 lea	 rdx, OFFSET FLAT:$SG162186
  0036d	48 8d 0d 00 00
	00 00		 lea	 rcx, OFFSET FLAT:$SG162187
  00374	e8 00 00 00 00	 call	 printf

; 3400 :         close (sfd);

  00379	8b 8c 24 84 00
	00 00		 mov	 ecx, DWORD PTR sfd$[rsp]
  00380	ff 15 00 00 00
	00		 call	 QWORD PTR __imp_close

; 3401 :         return -1;

  00386	b8 ff ff ff ff	 mov	 eax, -1
  0038b	e9 02 04 00 00	 jmp	 $LN1@seq_initia
$LN13@seq_initia:
$LN2@seq_initia:

; 3402 :     }
; 3403 : 
; 3404 :     while (size > 0)

  00390	83 bc 24 88 00
	00 00 00	 cmp	 DWORD PTR size$[rsp], 0
  00398	0f 8e 53 02 00
	00		 jle	 $LN3@seq_initia

; 3405 :     {
; 3406 :         /* Read a block of data from the input file */
; 3407 :         rc = read (sfd, &datablk.kdarea, blksz < size ? blksz : size);

  0039e	8b 84 24 88 00
	00 00		 mov	 eax, DWORD PTR size$[rsp]
  003a5	39 84 24 90 82
	00 00		 cmp	 DWORD PTR blksz$[rsp], eax
  003ac	7d 10		 jge	 SHORT $LN20@seq_initia
  003ae	8b 84 24 90 82
	00 00		 mov	 eax, DWORD PTR blksz$[rsp]
  003b5	89 84 24 9c 00
	00 00		 mov	 DWORD PTR tv179[rsp], eax
  003bc	eb 0e		 jmp	 SHORT $LN21@seq_initia
$LN20@seq_initia:
  003be	8b 84 24 88 00
	00 00		 mov	 eax, DWORD PTR size$[rsp]
  003c5	89 84 24 9c 00
	00 00		 mov	 DWORD PTR tv179[rsp], eax
$LN21@seq_initia:
  003cc	44 8b 84 24 9c
	00 00 00	 mov	 r8d, DWORD PTR tv179[rsp]
  003d4	48 8d 94 24 fc
	00 00 00	 lea	 rdx, QWORD PTR datablk$[rsp+12]
  003dc	8b 8c 24 84 00
	00 00		 mov	 ecx, DWORD PTR sfd$[rsp]
  003e3	ff 15 00 00 00
	00		 call	 QWORD PTR __imp_read
  003e9	89 84 24 80 00
	00 00		 mov	 DWORD PTR rc$[rsp], eax

; 3408 :         if (rc < (blksz < size ? blksz : size))

  003f0	8b 84 24 88 00
	00 00		 mov	 eax, DWORD PTR size$[rsp]
  003f7	39 84 24 90 82
	00 00		 cmp	 DWORD PTR blksz$[rsp], eax
  003fe	7d 10		 jge	 SHORT $LN22@seq_initia
  00400	8b 84 24 90 82
	00 00		 mov	 eax, DWORD PTR blksz$[rsp]
  00407	89 84 24 a0 00
	00 00		 mov	 DWORD PTR tv184[rsp], eax
  0040e	eb 0e		 jmp	 SHORT $LN23@seq_initia
$LN22@seq_initia:
  00410	8b 84 24 88 00
	00 00		 mov	 eax, DWORD PTR size$[rsp]
  00417	89 84 24 a0 00
	00 00		 mov	 DWORD PTR tv184[rsp], eax
$LN23@seq_initia:
  0041e	8b 84 24 a0 00
	00 00		 mov	 eax, DWORD PTR tv184[rsp]
  00425	39 84 24 80 00
	00 00		 cmp	 DWORD PTR rc$[rsp], eax
  0042c	7d 4c		 jge	 SHORT $LN14@seq_initia

; 3409 :         {
; 3410 :             XMERRF ( MSG( HHC02468, "E", sfname, "read()", strerror(errno) ) );

  0042e	ff 15 00 00 00
	00		 call	 QWORD PTR __imp__errno
  00434	8b 08		 mov	 ecx, DWORD PTR [rax]
  00436	ff 15 00 00 00
	00		 call	 QWORD PTR __imp_w32_strerror
  0043c	48 89 44 24 20	 mov	 QWORD PTR [rsp+32], rax
  00441	4c 8d 0d 00 00
	00 00		 lea	 r9, OFFSET FLAT:$SG162189
  00448	4c 8b 84 24 30
	82 00 00	 mov	 r8, QWORD PTR sfname$[rsp]
  00450	48 8d 15 00 00
	00 00		 lea	 rdx, OFFSET FLAT:$SG162190
  00457	48 8d 0d 00 00
	00 00		 lea	 rcx, OFFSET FLAT:$SG162191
  0045e	e8 00 00 00 00	 call	 printf

; 3411 :             close (sfd);

  00463	8b 8c 24 84 00
	00 00		 mov	 ecx, DWORD PTR sfd$[rsp]
  0046a	ff 15 00 00 00
	00		 call	 QWORD PTR __imp_close

; 3412 :             return -1;

  00470	b8 ff ff ff ff	 mov	 eax, -1
  00475	e9 18 03 00 00	 jmp	 $LN1@seq_initia
$LN14@seq_initia:

; 3413 :         }
; 3414 :         size -= rc;

  0047a	8b 84 24 80 00
	00 00		 mov	 eax, DWORD PTR rc$[rsp]
  00481	8b 8c 24 88 00
	00 00		 mov	 ecx, DWORD PTR size$[rsp]
  00488	2b c8		 sub	 ecx, eax
  0048a	8b c1		 mov	 eax, ecx
  0048c	89 84 24 88 00
	00 00		 mov	 DWORD PTR size$[rsp], eax

; 3415 : 
; 3416 :         /* Pad the block if necessary */
; 3417 :         if (rc < blksz)

  00493	8b 84 24 90 82
	00 00		 mov	 eax, DWORD PTR blksz$[rsp]
  0049a	39 84 24 80 00
	00 00		 cmp	 DWORD PTR rc$[rsp], eax
  004a1	7d 5d		 jge	 SHORT $LN15@seq_initia

; 3418 :         {
; 3419 :             /* Adjust blksize down to next
; 3420 :                highest multiple of lrecl */
; 3421 :             blksz = (((rc-1) / lrecl) + 1) * lrecl;

  004a3	8b 84 24 80 00
	00 00		 mov	 eax, DWORD PTR rc$[rsp]
  004aa	ff c8		 dec	 eax
  004ac	99		 cdq
  004ad	f7 bc 24 88 82
	00 00		 idiv	 DWORD PTR lrecl$[rsp]
  004b4	ff c0		 inc	 eax
  004b6	0f af 84 24 88
	82 00 00	 imul	 eax, DWORD PTR lrecl$[rsp]
  004be	89 84 24 90 82
	00 00		 mov	 DWORD PTR blksz$[rsp], eax

; 3422 :             memset (&datablk.kdarea[rc], 0, blksz - rc);

  004c5	8b 84 24 80 00
	00 00		 mov	 eax, DWORD PTR rc$[rsp]
  004cc	8b 8c 24 90 82
	00 00		 mov	 ecx, DWORD PTR blksz$[rsp]
  004d3	2b c8		 sub	 ecx, eax
  004d5	8b c1		 mov	 eax, ecx
  004d7	48 98		 cdqe
  004d9	48 89 84 24 a8
	00 00 00	 mov	 QWORD PTR tv236[rsp], rax
  004e1	48 63 8c 24 80
	00 00 00	 movsxd	 rcx, DWORD PTR rc$[rsp]
  004e9	48 8d 8c 0c fc
	00 00 00	 lea	 rcx, QWORD PTR datablk$[rsp+rcx+12]
  004f1	48 8b f9	 mov	 rdi, rcx
  004f4	33 c0		 xor	 eax, eax
  004f6	48 8b 8c 24 a8
	00 00 00	 mov	 rcx, QWORD PTR tv236[rsp]
  004fe	f3 aa		 rep stosb
$LN15@seq_initia:

; 3423 :         }
; 3424 : 
; 3425 :         rc = write_block (cif, ofname, &datablk, keyln, blksz - keyln,

  00500	8b 84 24 98 82
	00 00		 mov	 eax, DWORD PTR keyln$[rsp]
  00507	8b 8c 24 90 82
	00 00		 mov	 ecx, DWORD PTR blksz$[rsp]
  0050e	2b c8		 sub	 ecx, eax
  00510	8b c1		 mov	 eax, ecx
  00512	48 8d 8c 24 90
	00 00 00	 lea	 rcx, QWORD PTR outrec$[rsp]
  0051a	48 89 4c 24 78	 mov	 QWORD PTR [rsp+120], rcx
  0051f	48 8d 8c 24 68
	82 00 00	 lea	 rcx, QWORD PTR outhead$[rsp]
  00527	48 89 4c 24 70	 mov	 QWORD PTR [rsp+112], rcx
  0052c	48 8d 8c 24 60
	82 00 00	 lea	 rcx, QWORD PTR outcyl$[rsp]
  00534	48 89 4c 24 68	 mov	 QWORD PTR [rsp+104], rcx
  00539	48 8d 8c 24 8c
	00 00 00	 lea	 rcx, QWORD PTR outtrk$[rsp]
  00541	48 89 4c 24 60	 mov	 QWORD PTR [rsp+96], rcx
  00546	48 8d 8c 24 94
	00 00 00	 lea	 rcx, QWORD PTR outtrkbr$[rsp]
  0054e	48 89 4c 24 58	 mov	 QWORD PTR [rsp+88], rcx
  00553	48 8d 8c 24 a4
	00 00 00	 lea	 rcx, QWORD PTR outusedr$[rsp]
  0055b	48 89 4c 24 50	 mov	 QWORD PTR [rsp+80], rcx
  00560	48 8d 8c 24 98
	00 00 00	 lea	 rcx, QWORD PTR outusedv$[rsp]
  00568	48 89 4c 24 48	 mov	 QWORD PTR [rsp+72], rcx
  0056d	8b 8c 24 70 82
	00 00		 mov	 ecx, DWORD PTR extsize$[rsp]
  00574	89 4c 24 40	 mov	 DWORD PTR [rsp+64], ecx
  00578	8b 8c 24 58 82
	00 00		 mov	 ecx, DWORD PTR trklen$[rsp]
  0057f	89 4c 24 38	 mov	 DWORD PTR [rsp+56], ecx
  00583	8b 8c 24 50 82
	00 00		 mov	 ecx, DWORD PTR heads$[rsp]
  0058a	89 4c 24 30	 mov	 DWORD PTR [rsp+48], ecx
  0058e	0f b7 8c 24 48
	82 00 00	 movzx	 ecx, WORD PTR devtype$[rsp]
  00596	66 89 4c 24 28	 mov	 WORD PTR [rsp+40], cx
  0059b	89 44 24 20	 mov	 DWORD PTR [rsp+32], eax
  0059f	44 8b 8c 24 98
	82 00 00	 mov	 r9d, DWORD PTR keyln$[rsp]
  005a7	4c 8d 84 24 f0
	00 00 00	 lea	 r8, QWORD PTR datablk$[rsp]
  005af	48 8b 94 24 38
	82 00 00	 mov	 rdx, QWORD PTR ofname$[rsp]
  005b7	48 8b 8c 24 40
	82 00 00	 mov	 rcx, QWORD PTR cif$[rsp]
  005bf	e8 00 00 00 00	 call	 write_block
  005c4	89 84 24 80 00
	00 00		 mov	 DWORD PTR rc$[rsp], eax

; 3426 :                         devtype, heads, trklen, extsize,
; 3427 :                         &outusedv, &outusedr, &outtrkbr,
; 3428 :                         &outtrk, &outcyl, &outhead, &outrec);
; 3429 :         if (rc < 0)

  005cb	83 bc 24 80 00
	00 00 00	 cmp	 DWORD PTR rc$[rsp], 0
  005d3	7d 17		 jge	 SHORT $LN16@seq_initia

; 3430 :         {
; 3431 :             close (sfd);

  005d5	8b 8c 24 84 00
	00 00		 mov	 ecx, DWORD PTR sfd$[rsp]
  005dc	ff 15 00 00 00
	00		 call	 QWORD PTR __imp_close

; 3432 :             return -1;

  005e2	b8 ff ff ff ff	 mov	 eax, -1
  005e7	e9 a6 01 00 00	 jmp	 $LN1@seq_initia
$LN16@seq_initia:

; 3433 :         }
; 3434 :     }

  005ec	e9 9f fd ff ff	 jmp	 $LN2@seq_initia
$LN3@seq_initia:

; 3435 : 
; 3436 :     /* Close the input file */
; 3437 :     close (sfd);

  005f1	8b 8c 24 84 00
	00 00		 mov	 ecx, DWORD PTR sfd$[rsp]
  005f8	ff 15 00 00 00
	00		 call	 QWORD PTR __imp_close

; 3438 : 
; 3439 :     /* Create the end of file record */
; 3440 :     rc = write_block (cif, ofname, &datablk, 0, 0,

  005fe	48 8d 84 24 90
	00 00 00	 lea	 rax, QWORD PTR outrec$[rsp]
  00606	48 89 44 24 78	 mov	 QWORD PTR [rsp+120], rax
  0060b	48 8d 84 24 68
	82 00 00	 lea	 rax, QWORD PTR outhead$[rsp]
  00613	48 89 44 24 70	 mov	 QWORD PTR [rsp+112], rax
  00618	48 8d 84 24 60
	82 00 00	 lea	 rax, QWORD PTR outcyl$[rsp]
  00620	48 89 44 24 68	 mov	 QWORD PTR [rsp+104], rax
  00625	48 8d 84 24 8c
	00 00 00	 lea	 rax, QWORD PTR outtrk$[rsp]
  0062d	48 89 44 24 60	 mov	 QWORD PTR [rsp+96], rax
  00632	48 8d 84 24 94
	00 00 00	 lea	 rax, QWORD PTR outtrkbr$[rsp]
  0063a	48 89 44 24 58	 mov	 QWORD PTR [rsp+88], rax
  0063f	48 8d 84 24 a4
	00 00 00	 lea	 rax, QWORD PTR outusedr$[rsp]
  00647	48 89 44 24 50	 mov	 QWORD PTR [rsp+80], rax
  0064c	48 8d 84 24 98
	00 00 00	 lea	 rax, QWORD PTR outusedv$[rsp]
  00654	48 89 44 24 48	 mov	 QWORD PTR [rsp+72], rax
  00659	8b 84 24 70 82
	00 00		 mov	 eax, DWORD PTR extsize$[rsp]
  00660	89 44 24 40	 mov	 DWORD PTR [rsp+64], eax
  00664	8b 84 24 58 82
	00 00		 mov	 eax, DWORD PTR trklen$[rsp]
  0066b	89 44 24 38	 mov	 DWORD PTR [rsp+56], eax
  0066f	8b 84 24 50 82
	00 00		 mov	 eax, DWORD PTR heads$[rsp]
  00676	89 44 24 30	 mov	 DWORD PTR [rsp+48], eax
  0067a	0f b7 84 24 48
	82 00 00	 movzx	 eax, WORD PTR devtype$[rsp]
  00682	66 89 44 24 28	 mov	 WORD PTR [rsp+40], ax
  00687	c7 44 24 20 00
	00 00 00	 mov	 DWORD PTR [rsp+32], 0
  0068f	45 33 c9	 xor	 r9d, r9d
  00692	4c 8d 84 24 f0
	00 00 00	 lea	 r8, QWORD PTR datablk$[rsp]
  0069a	48 8b 94 24 38
	82 00 00	 mov	 rdx, QWORD PTR ofname$[rsp]
  006a2	48 8b 8c 24 40
	82 00 00	 mov	 rcx, QWORD PTR cif$[rsp]
  006aa	e8 00 00 00 00	 call	 write_block
  006af	89 84 24 80 00
	00 00		 mov	 DWORD PTR rc$[rsp], eax

; 3441 :                 devtype, heads, trklen, extsize,
; 3442 :                 &outusedv, &outusedr, &outtrkbr,
; 3443 :                 &outtrk, &outcyl, &outhead, &outrec);
; 3444 :     if (rc < 0) return -1;

  006b6	83 bc 24 80 00
	00 00 00	 cmp	 DWORD PTR rc$[rsp], 0
  006be	7d 0a		 jge	 SHORT $LN17@seq_initia
  006c0	b8 ff ff ff ff	 mov	 eax, -1
  006c5	e9 c8 00 00 00	 jmp	 $LN1@seq_initia
$LN17@seq_initia:

; 3445 : 
; 3446 :     /* Return the last record number and track balance */
; 3447 :     *lastrec = outrec;

  006ca	48 8b 84 24 a0
	82 00 00	 mov	 rax, QWORD PTR lastrec$[rsp]
  006d2	8b 8c 24 90 00
	00 00		 mov	 ecx, DWORD PTR outrec$[rsp]
  006d9	89 08		 mov	 DWORD PTR [rax], ecx

; 3448 :     *trkbal = outtrkbr;

  006db	48 8b 84 24 a8
	82 00 00	 mov	 rax, QWORD PTR trkbal$[rsp]
  006e3	8b 8c 24 94 00
	00 00		 mov	 ecx, DWORD PTR outtrkbr$[rsp]
  006ea	89 08		 mov	 DWORD PTR [rax], ecx

; 3449 : 
; 3450 :     /* Write data remaining in track buffer */
; 3451 :     rc = write_track (cif, ofname, heads, trklen,

  006ec	48 8d 84 24 68
	82 00 00	 lea	 rax, QWORD PTR outhead$[rsp]
  006f4	48 89 44 24 38	 mov	 QWORD PTR [rsp+56], rax
  006f9	48 8d 84 24 60
	82 00 00	 lea	 rax, QWORD PTR outcyl$[rsp]
  00701	48 89 44 24 30	 mov	 QWORD PTR [rsp+48], rax
  00706	48 8d 84 24 8c
	00 00 00	 lea	 rax, QWORD PTR outtrk$[rsp]
  0070e	48 89 44 24 28	 mov	 QWORD PTR [rsp+40], rax
  00713	48 8d 84 24 98
	00 00 00	 lea	 rax, QWORD PTR outusedv$[rsp]
  0071b	48 89 44 24 20	 mov	 QWORD PTR [rsp+32], rax
  00720	44 8b 8c 24 58
	82 00 00	 mov	 r9d, DWORD PTR trklen$[rsp]
  00728	44 8b 84 24 50
	82 00 00	 mov	 r8d, DWORD PTR heads$[rsp]
  00730	48 8b 94 24 38
	82 00 00	 mov	 rdx, QWORD PTR ofname$[rsp]
  00738	48 8b 8c 24 40
	82 00 00	 mov	 rcx, QWORD PTR cif$[rsp]
  00740	e8 00 00 00 00	 call	 write_track
  00745	89 84 24 80 00
	00 00		 mov	 DWORD PTR rc$[rsp], eax

; 3452 :                     &outusedv, &outtrk, &outcyl, &outhead);
; 3453 :     if (rc < 0) return -1;

  0074c	83 bc 24 80 00
	00 00 00	 cmp	 DWORD PTR rc$[rsp], 0
  00754	7d 07		 jge	 SHORT $LN18@seq_initia
  00756	b8 ff ff ff ff	 mov	 eax, -1
  0075b	eb 35		 jmp	 SHORT $LN1@seq_initia
$LN18@seq_initia:

; 3454 : 
; 3455 :     /* Return number of tracks and starting address of next dataset */
; 3456 :     *numtrks = outtrk;

  0075d	48 8b 84 24 b0
	82 00 00	 mov	 rax, QWORD PTR numtrks$[rsp]
  00765	8b 8c 24 8c 00
	00 00		 mov	 ecx, DWORD PTR outtrk$[rsp]
  0076c	89 08		 mov	 DWORD PTR [rax], ecx

; 3457 :     *nxtcyl = outcyl;

  0076e	48 8b 84 24 b8
	82 00 00	 mov	 rax, QWORD PTR nxtcyl$[rsp]
  00776	8b 8c 24 60 82
	00 00		 mov	 ecx, DWORD PTR outcyl$[rsp]
  0077d	89 08		 mov	 DWORD PTR [rax], ecx

; 3458 :     *nxthead = outhead;

  0077f	48 8b 84 24 c0
	82 00 00	 mov	 rax, QWORD PTR nxthead$[rsp]
  00787	8b 8c 24 68 82
	00 00		 mov	 ecx, DWORD PTR outhead$[rsp]
  0078e	89 08		 mov	 DWORD PTR [rax], ecx

; 3459 :     return 0;

  00790	33 c0		 xor	 eax, eax
$LN1@seq_initia:

; 3460 : 
; 3461 : } /* end function seq_initialize */

  00792	48 8b 8c 24 10
	82 00 00	 mov	 rcx, QWORD PTR __$ArrayPad$[rsp]
  0079a	48 33 cc	 xor	 rcx, rsp
  0079d	e8 00 00 00 00	 call	 __security_check_cookie
  007a2	48 81 c4 20 82
	00 00		 add	 rsp, 33312		; 00008220H
  007a9	5f		 pop	 rdi
  007aa	c3		 ret	 0
seq_initialize ENDP
_TEXT	ENDS
; Function compile flags: /Odtp
; File C:\papa\MyGit\hyperion-zvector\dasdload64.c
_TEXT	SEGMENT
diphdr$ = 128
head90$ = 136
endhead$ = 140
cyl90$ = 144
outrec$ = 148
reltrk90$ = 152
endcyl$ = 156
physlen$ = 160
rc$ = 164
outtrk$ = 168
trklen90$ = 172
datalen$ = 176
keylen$ = 180
outtrkbr$ = 184
outusedv$ = 188
remlen$ = 192
lasthead$ = 196
outusedr$ = 200
datablk$ = 208
__$ArrayPad$ = 32992
ofname$ = 33024
cif$ = 33032
devtype$ = 33040
heads$ = 33048
trklen$ = 33056
outcyl$ = 33064
outhead$ = 33072
extsize$ = 33080
lastrec$ = 33088
trkbal$ = 33096
numtrks$ = 33104
nxtcyl$ = 33112
nxthead$ = 33120
dip_initialize PROC

; 3185 : {

  00000	44 89 4c 24 20	 mov	 DWORD PTR [rsp+32], r9d
  00005	66 44 89 44 24
	18		 mov	 WORD PTR [rsp+24], r8w
  0000b	48 89 54 24 10	 mov	 QWORD PTR [rsp+16], rdx
  00010	48 89 4c 24 08	 mov	 QWORD PTR [rsp+8], rcx
  00015	57		 push	 rdi
  00016	b8 f0 80 00 00	 mov	 eax, 33008		; 000080f0H
  0001b	e8 00 00 00 00	 call	 __chkstk
  00020	48 2b e0	 sub	 rsp, rax
  00023	48 8b 05 00 00
	00 00		 mov	 rax, QWORD PTR __security_cookie
  0002a	48 33 c4	 xor	 rax, rsp
  0002d	48 89 84 24 e0
	80 00 00	 mov	 QWORD PTR __$ArrayPad$[rsp], rax

; 3186 : int             rc;                     /* Return code               */
; 3187 : int             keylen;                 /* Key length of data block  */
; 3188 : int             datalen;                /* Data length of data block */
; 3189 : int             outusedv = 0;           /* Output bytes used on track

  00035	c7 84 24 bc 00
	00 00 00 00 00
	00		 mov	 DWORD PTR outusedv$[rsp], 0

; 3190 :                                            of virtual device         */
; 3191 : int             outusedr = 0;           /* Output bytes used on track

  00040	c7 84 24 c8 00
	00 00 00 00 00
	00		 mov	 DWORD PTR outusedr$[rsp], 0

; 3192 :                                            of real device            */
; 3193 : int             outtrkbr = 0;           /* Output bytes remaining on

  0004b	c7 84 24 b8 00
	00 00 00 00 00
	00		 mov	 DWORD PTR outtrkbr$[rsp], 0

; 3194 :                                            track of real device      */
; 3195 : int             outtrk = 0;             /* Output relative track     */

  00056	c7 84 24 a8 00
	00 00 00 00 00
	00		 mov	 DWORD PTR outtrk$[rsp], 0

; 3196 : int             outrec = 0;             /* Output record number      */

  00061	c7 84 24 94 00
	00 00 00 00 00
	00		 mov	 DWORD PTR outrec$[rsp], 0

; 3197 : int             remlen;                 /* Bytes remaining on 1st trk*/
; 3198 : int             physlen;                /* Physical track length     */
; 3199 : int             lasthead;               /* Highest head on cylinder  */
; 3200 : int             endcyl;                 /* Extent end cylinder       */
; 3201 : int             endhead;                /* Extent end head           */
; 3202 : int             trklen90;               /* 90% of track length       */
; 3203 : int             cyl90;                  /* 90% full cylinder number  */
; 3204 : int             head90;                 /* 90% full head number      */
; 3205 : int             reltrk90;               /* 90% full relative track   */
; 3206 : DIPHDR         *diphdr;                 /* -> Record in data block   */
; 3207 : DATABLK         datablk;                /* Data block                */
; 3208 : 
; 3209 :     /* Set the key length and data length for the header record */
; 3210 :     keylen = 0;

  0006c	c7 84 24 b4 00
	00 00 00 00 00
	00		 mov	 DWORD PTR keylen$[rsp], 0

; 3211 :     datalen = sizeof(DIPHDR);

  00077	c7 84 24 b0 00
	00 00 28 00 00
	00		 mov	 DWORD PTR datalen$[rsp], 40 ; 00000028H

; 3212 : 
; 3213 :     /* Obtain the physical track size and the track balance
; 3214 :        remaining on the first track after the header record */
; 3215 :     capacity_calc (cif, 0, keylen, datalen, NULL, &remlen,

  00082	48 c7 44 24 78
	00 00 00 00	 mov	 QWORD PTR [rsp+120], 0
  0008b	48 c7 44 24 70
	00 00 00 00	 mov	 QWORD PTR [rsp+112], 0
  00094	48 c7 44 24 68
	00 00 00 00	 mov	 QWORD PTR [rsp+104], 0
  0009d	48 c7 44 24 60
	00 00 00 00	 mov	 QWORD PTR [rsp+96], 0
  000a6	48 c7 44 24 58
	00 00 00 00	 mov	 QWORD PTR [rsp+88], 0
  000af	48 c7 44 24 50
	00 00 00 00	 mov	 QWORD PTR [rsp+80], 0
  000b8	48 c7 44 24 48
	00 00 00 00	 mov	 QWORD PTR [rsp+72], 0
  000c1	48 c7 44 24 40
	00 00 00 00	 mov	 QWORD PTR [rsp+64], 0
  000ca	48 c7 44 24 38
	00 00 00 00	 mov	 QWORD PTR [rsp+56], 0
  000d3	48 8d 84 24 a0
	00 00 00	 lea	 rax, QWORD PTR physlen$[rsp]
  000db	48 89 44 24 30	 mov	 QWORD PTR [rsp+48], rax
  000e0	48 8d 84 24 c0
	00 00 00	 lea	 rax, QWORD PTR remlen$[rsp]
  000e8	48 89 44 24 28	 mov	 QWORD PTR [rsp+40], rax
  000ed	48 c7 44 24 20
	00 00 00 00	 mov	 QWORD PTR [rsp+32], 0
  000f6	44 8b 8c 24 b0
	00 00 00	 mov	 r9d, DWORD PTR datalen$[rsp]
  000fe	44 8b 84 24 b4
	00 00 00	 mov	 r8d, DWORD PTR keylen$[rsp]
  00106	33 d2		 xor	 edx, edx
  00108	48 8b 8c 24 08
	81 00 00	 mov	 rcx, QWORD PTR cif$[rsp]
  00110	ff 15 00 00 00
	00		 call	 QWORD PTR __imp_capacity_calc

; 3216 :                     &physlen, NULL, NULL, NULL, NULL, NULL,
; 3217 :                     NULL, NULL, NULL, NULL);
; 3218 : 
; 3219 :     /* Calculate the end of extent cylinder and head */
; 3220 :     lasthead = heads - 1;

  00116	8b 84 24 18 81
	00 00		 mov	 eax, DWORD PTR heads$[rsp]
  0011d	ff c8		 dec	 eax
  0011f	89 84 24 c4 00
	00 00		 mov	 DWORD PTR lasthead$[rsp], eax

; 3221 :     endcyl = outcyl;

  00126	8b 84 24 28 81
	00 00		 mov	 eax, DWORD PTR outcyl$[rsp]
  0012d	89 84 24 9c 00
	00 00		 mov	 DWORD PTR endcyl$[rsp], eax

; 3222 :     endhead = outhead + extsize - 1;

  00134	8b 84 24 30 81
	00 00		 mov	 eax, DWORD PTR outhead$[rsp]
  0013b	8b 8c 24 38 81
	00 00		 mov	 ecx, DWORD PTR extsize$[rsp]
  00142	8d 44 08 ff	 lea	 eax, DWORD PTR [rax+rcx-1]
  00146	89 84 24 8c 00
	00 00		 mov	 DWORD PTR endhead$[rsp], eax
$LN2@dip_initia:

; 3223 :     while (endhead >= heads)

  0014d	8b 84 24 18 81
	00 00		 mov	 eax, DWORD PTR heads$[rsp]
  00154	39 84 24 8c 00
	00 00		 cmp	 DWORD PTR endhead$[rsp], eax
  0015b	7c 2b		 jl	 SHORT $LN3@dip_initia

; 3224 :     {
; 3225 :         endhead -= heads;

  0015d	8b 84 24 18 81
	00 00		 mov	 eax, DWORD PTR heads$[rsp]
  00164	8b 8c 24 8c 00
	00 00		 mov	 ecx, DWORD PTR endhead$[rsp]
  0016b	2b c8		 sub	 ecx, eax
  0016d	8b c1		 mov	 eax, ecx
  0016f	89 84 24 8c 00
	00 00		 mov	 DWORD PTR endhead$[rsp], eax

; 3226 :         endcyl++;

  00176	8b 84 24 9c 00
	00 00		 mov	 eax, DWORD PTR endcyl$[rsp]
  0017d	ff c0		 inc	 eax
  0017f	89 84 24 9c 00
	00 00		 mov	 DWORD PTR endcyl$[rsp], eax

; 3227 :     }

  00186	eb c5		 jmp	 SHORT $LN2@dip_initia
$LN3@dip_initia:

; 3228 : 
; 3229 :     /* Calculate the 90% full cylinder and head */
; 3230 :     trklen90 = physlen * 9 / 10;

  00188	6b 84 24 a0 00
	00 00 09	 imul	 eax, DWORD PTR physlen$[rsp], 9
  00190	99		 cdq
  00191	b9 0a 00 00 00	 mov	 ecx, 10
  00196	f7 f9		 idiv	 ecx
  00198	89 84 24 ac 00
	00 00		 mov	 DWORD PTR trklen90$[rsp], eax

; 3231 :     reltrk90 = extsize * trklen90 / physlen;

  0019f	8b 84 24 38 81
	00 00		 mov	 eax, DWORD PTR extsize$[rsp]
  001a6	0f af 84 24 ac
	00 00 00	 imul	 eax, DWORD PTR trklen90$[rsp]
  001ae	99		 cdq
  001af	f7 bc 24 a0 00
	00 00		 idiv	 DWORD PTR physlen$[rsp]
  001b6	89 84 24 98 00
	00 00		 mov	 DWORD PTR reltrk90$[rsp], eax

; 3232 :     if (reltrk90 == 0) reltrk90 = 1;

  001bd	83 bc 24 98 00
	00 00 00	 cmp	 DWORD PTR reltrk90$[rsp], 0
  001c5	75 0b		 jne	 SHORT $LN6@dip_initia
  001c7	c7 84 24 98 00
	00 00 01 00 00
	00		 mov	 DWORD PTR reltrk90$[rsp], 1
$LN6@dip_initia:

; 3233 :     cyl90 = outcyl;

  001d2	8b 84 24 28 81
	00 00		 mov	 eax, DWORD PTR outcyl$[rsp]
  001d9	89 84 24 90 00
	00 00		 mov	 DWORD PTR cyl90$[rsp], eax

; 3234 :     head90 = outhead + reltrk90 - 1;

  001e0	8b 84 24 30 81
	00 00		 mov	 eax, DWORD PTR outhead$[rsp]
  001e7	8b 8c 24 98 00
	00 00		 mov	 ecx, DWORD PTR reltrk90$[rsp]
  001ee	8d 44 08 ff	 lea	 eax, DWORD PTR [rax+rcx-1]
  001f2	89 84 24 88 00
	00 00		 mov	 DWORD PTR head90$[rsp], eax
$LN4@dip_initia:

; 3235 :     while (head90 >= heads)

  001f9	8b 84 24 18 81
	00 00		 mov	 eax, DWORD PTR heads$[rsp]
  00200	39 84 24 88 00
	00 00		 cmp	 DWORD PTR head90$[rsp], eax
  00207	7c 2b		 jl	 SHORT $LN5@dip_initia

; 3236 :     {
; 3237 :         head90 -= heads;

  00209	8b 84 24 18 81
	00 00		 mov	 eax, DWORD PTR heads$[rsp]
  00210	8b 8c 24 88 00
	00 00		 mov	 ecx, DWORD PTR head90$[rsp]
  00217	2b c8		 sub	 ecx, eax
  00219	8b c1		 mov	 eax, ecx
  0021b	89 84 24 88 00
	00 00		 mov	 DWORD PTR head90$[rsp], eax

; 3238 :         cyl90++;

  00222	8b 84 24 90 00
	00 00		 mov	 eax, DWORD PTR cyl90$[rsp]
  00229	ff c0		 inc	 eax
  0022b	89 84 24 90 00
	00 00		 mov	 DWORD PTR cyl90$[rsp], eax

; 3239 :     }

  00232	eb c5		 jmp	 SHORT $LN4@dip_initia
$LN5@dip_initia:

; 3240 : 
; 3241 :     /* Initialize the DIP header record */
; 3242 :     diphdr = (DIPHDR*) (datablk.kdarea);

  00234	48 8d 84 24 dc
	00 00 00	 lea	 rax, QWORD PTR datablk$[rsp+12]
  0023c	48 89 84 24 80
	00 00 00	 mov	 QWORD PTR diphdr$[rsp], rax

; 3243 :     memset( diphdr, 0, sizeof( DIPHDR ));

  00244	48 8b bc 24 80
	00 00 00	 mov	 rdi, QWORD PTR diphdr$[rsp]
  0024c	33 c0		 xor	 eax, eax
  0024e	b9 28 00 00 00	 mov	 ecx, 40			; 00000028H
  00253	f3 aa		 rep stosb

; 3244 : 
; 3245 :     store_hw( diphdr->recid, 0xFFFF );

  00255	66 b9 ff ff	 mov	 cx, 65535		; 0000ffffH
  00259	e8 00 00 00 00	 call	 _byteswap_ushort
  0025e	48 8b 8c 24 80
	00 00 00	 mov	 rcx, QWORD PTR diphdr$[rsp]
  00266	0f b7 d0	 movzx	 edx, ax
  00269	e8 00 00 00 00	 call	 store_hw_noswap

; 3246 :     store_hw( diphdr->bcyl, outcyl  );

  0026e	0f b7 8c 24 28
	81 00 00	 movzx	 ecx, WORD PTR outcyl$[rsp]
  00276	e8 00 00 00 00	 call	 _byteswap_ushort
  0027b	48 8b 8c 24 80
	00 00 00	 mov	 rcx, QWORD PTR diphdr$[rsp]
  00283	48 83 c1 02	 add	 rcx, 2
  00287	0f b7 d0	 movzx	 edx, ax
  0028a	e8 00 00 00 00	 call	 store_hw_noswap

; 3247 :     store_hw( diphdr->btrk, outhead );

  0028f	0f b7 8c 24 30
	81 00 00	 movzx	 ecx, WORD PTR outhead$[rsp]
  00297	e8 00 00 00 00	 call	 _byteswap_ushort
  0029c	48 8b 8c 24 80
	00 00 00	 mov	 rcx, QWORD PTR diphdr$[rsp]
  002a4	48 83 c1 04	 add	 rcx, 4
  002a8	0f b7 d0	 movzx	 edx, ax
  002ab	e8 00 00 00 00	 call	 store_hw_noswap

; 3248 :     store_hw( diphdr->ecyl, endcyl  );

  002b0	0f b7 8c 24 9c
	00 00 00	 movzx	 ecx, WORD PTR endcyl$[rsp]
  002b8	e8 00 00 00 00	 call	 _byteswap_ushort
  002bd	48 8b 8c 24 80
	00 00 00	 mov	 rcx, QWORD PTR diphdr$[rsp]
  002c5	48 83 c1 06	 add	 rcx, 6
  002c9	0f b7 d0	 movzx	 edx, ax
  002cc	e8 00 00 00 00	 call	 store_hw_noswap

; 3249 :     store_hw( diphdr->etrk, endhead );

  002d1	0f b7 8c 24 8c
	00 00 00	 movzx	 ecx, WORD PTR endhead$[rsp]
  002d9	e8 00 00 00 00	 call	 _byteswap_ushort
  002de	48 8b 8c 24 80
	00 00 00	 mov	 rcx, QWORD PTR diphdr$[rsp]
  002e6	48 83 c1 08	 add	 rcx, 8
  002ea	0f b7 d0	 movzx	 edx, ax
  002ed	e8 00 00 00 00	 call	 store_hw_noswap

; 3250 : 
; 3251 :     diphdr->restart[2] = (outcyl >> 8) & 0xFF;

  002f2	8b 84 24 28 81
	00 00		 mov	 eax, DWORD PTR outcyl$[rsp]
  002f9	c1 f8 08	 sar	 eax, 8
  002fc	25 ff 00 00 00	 and	 eax, 255		; 000000ffH
  00301	b9 01 00 00 00	 mov	 ecx, 1
  00306	48 6b c9 02	 imul	 rcx, rcx, 2
  0030a	48 8b 94 24 80
	00 00 00	 mov	 rdx, QWORD PTR diphdr$[rsp]
  00312	88 44 0a 0b	 mov	 BYTE PTR [rdx+rcx+11], al

; 3252 :     diphdr->restart[3] = outcyl & 0xFF;

  00316	8b 84 24 28 81
	00 00		 mov	 eax, DWORD PTR outcyl$[rsp]
  0031d	25 ff 00 00 00	 and	 eax, 255		; 000000ffH
  00322	b9 01 00 00 00	 mov	 ecx, 1
  00327	48 6b c9 03	 imul	 rcx, rcx, 3
  0032b	48 8b 94 24 80
	00 00 00	 mov	 rdx, QWORD PTR diphdr$[rsp]
  00333	88 44 0a 0b	 mov	 BYTE PTR [rdx+rcx+11], al

; 3253 :     diphdr->restart[4] = (outhead >> 8) & 0xFF;

  00337	8b 84 24 30 81
	00 00		 mov	 eax, DWORD PTR outhead$[rsp]
  0033e	c1 f8 08	 sar	 eax, 8
  00341	25 ff 00 00 00	 and	 eax, 255		; 000000ffH
  00346	b9 01 00 00 00	 mov	 ecx, 1
  0034b	48 6b c9 04	 imul	 rcx, rcx, 4
  0034f	48 8b 94 24 80
	00 00 00	 mov	 rdx, QWORD PTR diphdr$[rsp]
  00357	88 44 0a 0b	 mov	 BYTE PTR [rdx+rcx+11], al

; 3254 :     diphdr->restart[5] = outhead & 0xFF;

  0035b	8b 84 24 30 81
	00 00		 mov	 eax, DWORD PTR outhead$[rsp]
  00362	25 ff 00 00 00	 and	 eax, 255		; 000000ffH
  00367	b9 01 00 00 00	 mov	 ecx, 1
  0036c	48 6b c9 05	 imul	 rcx, rcx, 5
  00370	48 8b 94 24 80
	00 00 00	 mov	 rdx, QWORD PTR diphdr$[rsp]
  00378	88 44 0a 0b	 mov	 BYTE PTR [rdx+rcx+11], al

; 3255 :     diphdr->restart[6] = 1;

  0037c	b8 01 00 00 00	 mov	 eax, 1
  00381	48 6b c0 06	 imul	 rax, rax, 6
  00385	48 8b 8c 24 80
	00 00 00	 mov	 rcx, QWORD PTR diphdr$[rsp]
  0038d	c6 44 01 0b 01	 mov	 BYTE PTR [rcx+rax+11], 1

; 3256 : 
; 3257 :     store_hw( diphdr->trkbal, remlen  );

  00392	0f b7 8c 24 c0
	00 00 00	 movzx	 ecx, WORD PTR remlen$[rsp]
  0039a	e8 00 00 00 00	 call	 _byteswap_ushort
  0039f	48 8b 8c 24 80
	00 00 00	 mov	 rcx, QWORD PTR diphdr$[rsp]
  003a7	48 83 c1 12	 add	 rcx, 18
  003ab	0f b7 d0	 movzx	 edx, ax
  003ae	e8 00 00 00 00	 call	 store_hw_noswap

; 3258 :     store_hw( diphdr->trklen, physlen );

  003b3	0f b7 8c 24 a0
	00 00 00	 movzx	 ecx, WORD PTR physlen$[rsp]
  003bb	e8 00 00 00 00	 call	 _byteswap_ushort
  003c0	48 8b 8c 24 80
	00 00 00	 mov	 rcx, QWORD PTR diphdr$[rsp]
  003c8	48 83 c1 14	 add	 rcx, 20
  003cc	0f b7 d0	 movzx	 edx, ax
  003cf	e8 00 00 00 00	 call	 store_hw_noswap

; 3259 : 
; 3260 :     diphdr->reused[2] = (outcyl >> 8) & 0xFF;

  003d4	8b 84 24 28 81
	00 00		 mov	 eax, DWORD PTR outcyl$[rsp]
  003db	c1 f8 08	 sar	 eax, 8
  003de	25 ff 00 00 00	 and	 eax, 255		; 000000ffH
  003e3	b9 01 00 00 00	 mov	 ecx, 1
  003e8	48 6b c9 02	 imul	 rcx, rcx, 2
  003ec	48 8b 94 24 80
	00 00 00	 mov	 rdx, QWORD PTR diphdr$[rsp]
  003f4	88 44 0a 16	 mov	 BYTE PTR [rdx+rcx+22], al

; 3261 :     diphdr->reused[3] = outcyl & 0xFF;

  003f8	8b 84 24 28 81
	00 00		 mov	 eax, DWORD PTR outcyl$[rsp]
  003ff	25 ff 00 00 00	 and	 eax, 255		; 000000ffH
  00404	b9 01 00 00 00	 mov	 ecx, 1
  00409	48 6b c9 03	 imul	 rcx, rcx, 3
  0040d	48 8b 94 24 80
	00 00 00	 mov	 rdx, QWORD PTR diphdr$[rsp]
  00415	88 44 0a 16	 mov	 BYTE PTR [rdx+rcx+22], al

; 3262 :     diphdr->reused[4] = (outhead >> 8) & 0xFF;

  00419	8b 84 24 30 81
	00 00		 mov	 eax, DWORD PTR outhead$[rsp]
  00420	c1 f8 08	 sar	 eax, 8
  00423	25 ff 00 00 00	 and	 eax, 255		; 000000ffH
  00428	b9 01 00 00 00	 mov	 ecx, 1
  0042d	48 6b c9 04	 imul	 rcx, rcx, 4
  00431	48 8b 94 24 80
	00 00 00	 mov	 rdx, QWORD PTR diphdr$[rsp]
  00439	88 44 0a 16	 mov	 BYTE PTR [rdx+rcx+22], al

; 3263 :     diphdr->reused[5] = outhead & 0xFF;

  0043d	8b 84 24 30 81
	00 00		 mov	 eax, DWORD PTR outhead$[rsp]
  00444	25 ff 00 00 00	 and	 eax, 255		; 000000ffH
  00449	b9 01 00 00 00	 mov	 ecx, 1
  0044e	48 6b c9 05	 imul	 rcx, rcx, 5
  00452	48 8b 94 24 80
	00 00 00	 mov	 rdx, QWORD PTR diphdr$[rsp]
  0045a	88 44 0a 16	 mov	 BYTE PTR [rdx+rcx+22], al

; 3264 :     diphdr->reused[6] = 1;

  0045e	b8 01 00 00 00	 mov	 eax, 1
  00463	48 6b c0 06	 imul	 rax, rax, 6
  00467	48 8b 8c 24 80
	00 00 00	 mov	 rcx, QWORD PTR diphdr$[rsp]
  0046f	c6 44 01 16 01	 mov	 BYTE PTR [rcx+rax+22], 1

; 3265 : 
; 3266 :     store_hw( diphdr->lasthead, lasthead );

  00474	0f b7 8c 24 c4
	00 00 00	 movzx	 ecx, WORD PTR lasthead$[rsp]
  0047c	e8 00 00 00 00	 call	 _byteswap_ushort
  00481	48 8b 8c 24 80
	00 00 00	 mov	 rcx, QWORD PTR diphdr$[rsp]
  00489	48 83 c1 1d	 add	 rcx, 29
  0048d	0f b7 d0	 movzx	 edx, ax
  00490	e8 00 00 00 00	 call	 store_hw_noswap

; 3267 :     store_hw( diphdr->trklen90, trklen90 );

  00495	0f b7 8c 24 ac
	00 00 00	 movzx	 ecx, WORD PTR trklen90$[rsp]
  0049d	e8 00 00 00 00	 call	 _byteswap_ushort
  004a2	48 8b 8c 24 80
	00 00 00	 mov	 rcx, QWORD PTR diphdr$[rsp]
  004aa	48 83 c1 1f	 add	 rcx, 31
  004ae	0f b7 d0	 movzx	 edx, ax
  004b1	e8 00 00 00 00	 call	 store_hw_noswap

; 3268 : 
; 3269 :     diphdr->devcode = (ucbtype_code (devtype ) & 0x0F) | 0xF0;

  004b6	0f b7 8c 24 10
	81 00 00	 movzx	 ecx, WORD PTR devtype$[rsp]
  004be	e8 00 00 00 00	 call	 ucbtype_code
  004c3	83 e0 0f	 and	 eax, 15
  004c6	0d f0 00 00 00	 or	 eax, 240		; 000000f0H
  004cb	48 8b 8c 24 80
	00 00 00	 mov	 rcx, QWORD PTR diphdr$[rsp]
  004d3	88 41 21	 mov	 BYTE PTR [rcx+33], al

; 3270 :     diphdr->cchh90[0] = (cyl90  >> 8) & 0xFF;

  004d6	8b 84 24 90 00
	00 00		 mov	 eax, DWORD PTR cyl90$[rsp]
  004dd	c1 f8 08	 sar	 eax, 8
  004e0	25 ff 00 00 00	 and	 eax, 255		; 000000ffH
  004e5	b9 01 00 00 00	 mov	 ecx, 1
  004ea	48 6b c9 00	 imul	 rcx, rcx, 0
  004ee	48 8b 94 24 80
	00 00 00	 mov	 rdx, QWORD PTR diphdr$[rsp]
  004f6	88 44 0a 22	 mov	 BYTE PTR [rdx+rcx+34], al

; 3271 :     diphdr->cchh90[1] =  cyl90        & 0xFF;

  004fa	8b 84 24 90 00
	00 00		 mov	 eax, DWORD PTR cyl90$[rsp]
  00501	25 ff 00 00 00	 and	 eax, 255		; 000000ffH
  00506	b9 01 00 00 00	 mov	 ecx, 1
  0050b	48 6b c9 01	 imul	 rcx, rcx, 1
  0050f	48 8b 94 24 80
	00 00 00	 mov	 rdx, QWORD PTR diphdr$[rsp]
  00517	88 44 0a 22	 mov	 BYTE PTR [rdx+rcx+34], al

; 3272 :     diphdr->cchh90[2] = (head90 >> 8) & 0xFF;

  0051b	8b 84 24 88 00
	00 00		 mov	 eax, DWORD PTR head90$[rsp]
  00522	c1 f8 08	 sar	 eax, 8
  00525	25 ff 00 00 00	 and	 eax, 255		; 000000ffH
  0052a	b9 01 00 00 00	 mov	 ecx, 1
  0052f	48 6b c9 02	 imul	 rcx, rcx, 2
  00533	48 8b 94 24 80
	00 00 00	 mov	 rdx, QWORD PTR diphdr$[rsp]
  0053b	88 44 0a 22	 mov	 BYTE PTR [rdx+rcx+34], al

; 3273 :     diphdr->cchh90[3] =  head90       & 0xFF;

  0053f	8b 84 24 88 00
	00 00		 mov	 eax, DWORD PTR head90$[rsp]
  00546	25 ff 00 00 00	 and	 eax, 255		; 000000ffH
  0054b	b9 01 00 00 00	 mov	 ecx, 1
  00550	48 6b c9 03	 imul	 rcx, rcx, 3
  00554	48 8b 94 24 80
	00 00 00	 mov	 rdx, QWORD PTR diphdr$[rsp]
  0055c	88 44 0a 22	 mov	 BYTE PTR [rdx+rcx+34], al

; 3274 :     diphdr->endid = 0xFF;

  00560	48 8b 84 24 80
	00 00 00	 mov	 rax, QWORD PTR diphdr$[rsp]
  00568	c6 40 27 ff	 mov	 BYTE PTR [rax+39], 255	; 000000ffH

; 3275 : 
; 3276 :     /* Write the data block to the output file */
; 3277 :     rc = write_block (cif, ofname, &datablk, keylen, datalen,

  0056c	48 8d 84 24 94
	00 00 00	 lea	 rax, QWORD PTR outrec$[rsp]
  00574	48 89 44 24 78	 mov	 QWORD PTR [rsp+120], rax
  00579	48 8d 84 24 30
	81 00 00	 lea	 rax, QWORD PTR outhead$[rsp]
  00581	48 89 44 24 70	 mov	 QWORD PTR [rsp+112], rax
  00586	48 8d 84 24 28
	81 00 00	 lea	 rax, QWORD PTR outcyl$[rsp]
  0058e	48 89 44 24 68	 mov	 QWORD PTR [rsp+104], rax
  00593	48 8d 84 24 a8
	00 00 00	 lea	 rax, QWORD PTR outtrk$[rsp]
  0059b	48 89 44 24 60	 mov	 QWORD PTR [rsp+96], rax
  005a0	48 8d 84 24 b8
	00 00 00	 lea	 rax, QWORD PTR outtrkbr$[rsp]
  005a8	48 89 44 24 58	 mov	 QWORD PTR [rsp+88], rax
  005ad	48 8d 84 24 c8
	00 00 00	 lea	 rax, QWORD PTR outusedr$[rsp]
  005b5	48 89 44 24 50	 mov	 QWORD PTR [rsp+80], rax
  005ba	48 8d 84 24 bc
	00 00 00	 lea	 rax, QWORD PTR outusedv$[rsp]
  005c2	48 89 44 24 48	 mov	 QWORD PTR [rsp+72], rax
  005c7	8b 84 24 38 81
	00 00		 mov	 eax, DWORD PTR extsize$[rsp]
  005ce	89 44 24 40	 mov	 DWORD PTR [rsp+64], eax
  005d2	8b 84 24 20 81
	00 00		 mov	 eax, DWORD PTR trklen$[rsp]
  005d9	89 44 24 38	 mov	 DWORD PTR [rsp+56], eax
  005dd	8b 84 24 18 81
	00 00		 mov	 eax, DWORD PTR heads$[rsp]
  005e4	89 44 24 30	 mov	 DWORD PTR [rsp+48], eax
  005e8	0f b7 84 24 10
	81 00 00	 movzx	 eax, WORD PTR devtype$[rsp]
  005f0	66 89 44 24 28	 mov	 WORD PTR [rsp+40], ax
  005f5	8b 84 24 b0 00
	00 00		 mov	 eax, DWORD PTR datalen$[rsp]
  005fc	89 44 24 20	 mov	 DWORD PTR [rsp+32], eax
  00600	44 8b 8c 24 b4
	00 00 00	 mov	 r9d, DWORD PTR keylen$[rsp]
  00608	4c 8d 84 24 d0
	00 00 00	 lea	 r8, QWORD PTR datablk$[rsp]
  00610	48 8b 94 24 00
	81 00 00	 mov	 rdx, QWORD PTR ofname$[rsp]
  00618	48 8b 8c 24 08
	81 00 00	 mov	 rcx, QWORD PTR cif$[rsp]
  00620	e8 00 00 00 00	 call	 write_block
  00625	89 84 24 a4 00
	00 00		 mov	 DWORD PTR rc$[rsp], eax

; 3278 :                 devtype, heads, trklen, extsize,
; 3279 :                 &outusedv, &outusedr, &outtrkbr,
; 3280 :                 &outtrk, &outcyl, &outhead, &outrec);
; 3281 :     if (rc < 0) return -1;

  0062c	83 bc 24 a4 00
	00 00 00	 cmp	 DWORD PTR rc$[rsp], 0
  00634	7d 0a		 jge	 SHORT $LN7@dip_initia
  00636	b8 ff ff ff ff	 mov	 eax, -1
  0063b	e9 3b 01 00 00	 jmp	 $LN1@dip_initia
$LN7@dip_initia:

; 3282 : 
; 3283 :     XMINFF (3, MSG( HHC02566, "I", outcyl, outcyl, outhead, outhead, outrec, outrec ) );

  00640	8b 84 24 94 00
	00 00		 mov	 eax, DWORD PTR outrec$[rsp]
  00647	89 44 24 40	 mov	 DWORD PTR [rsp+64], eax
  0064b	8b 84 24 94 00
	00 00		 mov	 eax, DWORD PTR outrec$[rsp]
  00652	89 44 24 38	 mov	 DWORD PTR [rsp+56], eax
  00656	8b 84 24 30 81
	00 00		 mov	 eax, DWORD PTR outhead$[rsp]
  0065d	89 44 24 30	 mov	 DWORD PTR [rsp+48], eax
  00661	8b 84 24 30 81
	00 00		 mov	 eax, DWORD PTR outhead$[rsp]
  00668	89 44 24 28	 mov	 DWORD PTR [rsp+40], eax
  0066c	8b 84 24 28 81
	00 00		 mov	 eax, DWORD PTR outcyl$[rsp]
  00673	89 44 24 20	 mov	 DWORD PTR [rsp+32], eax
  00677	44 8b 8c 24 28
	81 00 00	 mov	 r9d, DWORD PTR outcyl$[rsp]
  0067f	4c 8d 05 00 00
	00 00		 lea	 r8, OFFSET FLAT:$SG162103
  00686	48 8d 15 00 00
	00 00		 lea	 rdx, OFFSET FLAT:$SG162104
  0068d	b9 03 00 00 00	 mov	 ecx, 3
  00692	e8 00 00 00 00	 call	 info_msg

; 3284 : 
; 3285 :     if (infolvl >= 5) data_dump (diphdr, sizeof(DIPHDR));

  00697	83 3d 00 00 00
	00 05		 cmp	 DWORD PTR infolvl, 5
  0069e	7c 13		 jl	 SHORT $LN8@dip_initia
  006a0	ba 28 00 00 00	 mov	 edx, 40			; 00000028H
  006a5	48 8b 8c 24 80
	00 00 00	 mov	 rcx, QWORD PTR diphdr$[rsp]
  006ad	ff 15 00 00 00
	00		 call	 QWORD PTR __imp_data_dump
$LN8@dip_initia:

; 3286 : 
; 3287 :     /* Return the last record number and track balance */
; 3288 :     *lastrec = outrec;

  006b3	48 8b 84 24 40
	81 00 00	 mov	 rax, QWORD PTR lastrec$[rsp]
  006bb	8b 8c 24 94 00
	00 00		 mov	 ecx, DWORD PTR outrec$[rsp]
  006c2	89 08		 mov	 DWORD PTR [rax], ecx

; 3289 :     *trkbal = outtrkbr;

  006c4	48 8b 84 24 48
	81 00 00	 mov	 rax, QWORD PTR trkbal$[rsp]
  006cc	8b 8c 24 b8 00
	00 00		 mov	 ecx, DWORD PTR outtrkbr$[rsp]
  006d3	89 08		 mov	 DWORD PTR [rax], ecx

; 3290 : 
; 3291 :     /* Write data remaining in track buffer */
; 3292 :     rc = write_track (cif, ofname, heads, trklen,

  006d5	48 8d 84 24 30
	81 00 00	 lea	 rax, QWORD PTR outhead$[rsp]
  006dd	48 89 44 24 38	 mov	 QWORD PTR [rsp+56], rax
  006e2	48 8d 84 24 28
	81 00 00	 lea	 rax, QWORD PTR outcyl$[rsp]
  006ea	48 89 44 24 30	 mov	 QWORD PTR [rsp+48], rax
  006ef	48 8d 84 24 a8
	00 00 00	 lea	 rax, QWORD PTR outtrk$[rsp]
  006f7	48 89 44 24 28	 mov	 QWORD PTR [rsp+40], rax
  006fc	48 8d 84 24 bc
	00 00 00	 lea	 rax, QWORD PTR outusedv$[rsp]
  00704	48 89 44 24 20	 mov	 QWORD PTR [rsp+32], rax
  00709	44 8b 8c 24 20
	81 00 00	 mov	 r9d, DWORD PTR trklen$[rsp]
  00711	44 8b 84 24 18
	81 00 00	 mov	 r8d, DWORD PTR heads$[rsp]
  00719	48 8b 94 24 00
	81 00 00	 mov	 rdx, QWORD PTR ofname$[rsp]
  00721	48 8b 8c 24 08
	81 00 00	 mov	 rcx, QWORD PTR cif$[rsp]
  00729	e8 00 00 00 00	 call	 write_track
  0072e	89 84 24 a4 00
	00 00		 mov	 DWORD PTR rc$[rsp], eax

; 3293 :                     &outusedv, &outtrk, &outcyl, &outhead);
; 3294 :     if (rc < 0) return -1;

  00735	83 bc 24 a4 00
	00 00 00	 cmp	 DWORD PTR rc$[rsp], 0
  0073d	7d 07		 jge	 SHORT $LN9@dip_initia
  0073f	b8 ff ff ff ff	 mov	 eax, -1
  00744	eb 35		 jmp	 SHORT $LN1@dip_initia
$LN9@dip_initia:

; 3295 : 
; 3296 :     /* Return number of tracks and starting address of next dataset */
; 3297 :     *numtrks = outtrk;

  00746	48 8b 84 24 50
	81 00 00	 mov	 rax, QWORD PTR numtrks$[rsp]
  0074e	8b 8c 24 a8 00
	00 00		 mov	 ecx, DWORD PTR outtrk$[rsp]
  00755	89 08		 mov	 DWORD PTR [rax], ecx

; 3298 :     *nxtcyl = outcyl;

  00757	48 8b 84 24 58
	81 00 00	 mov	 rax, QWORD PTR nxtcyl$[rsp]
  0075f	8b 8c 24 28 81
	00 00		 mov	 ecx, DWORD PTR outcyl$[rsp]
  00766	89 08		 mov	 DWORD PTR [rax], ecx

; 3299 :     *nxthead = outhead;

  00768	48 8b 84 24 60
	81 00 00	 mov	 rax, QWORD PTR nxthead$[rsp]
  00770	8b 8c 24 30 81
	00 00		 mov	 ecx, DWORD PTR outhead$[rsp]
  00777	89 08		 mov	 DWORD PTR [rax], ecx

; 3300 :     return 0;

  00779	33 c0		 xor	 eax, eax
$LN1@dip_initia:

; 3301 : 
; 3302 : } /* end function dip_initialize */

  0077b	48 8b 8c 24 e0
	80 00 00	 mov	 rcx, QWORD PTR __$ArrayPad$[rsp]
  00783	48 33 cc	 xor	 rcx, rsp
  00786	e8 00 00 00 00	 call	 __security_check_cookie
  0078b	48 81 c4 f0 80
	00 00		 add	 rsp, 33008		; 000080f0H
  00792	5f		 pop	 rdi
  00793	c3		 ret	 0
dip_initialize ENDP
_TEXT	ENDS
; Function compile flags: /Odtp
; File C:\papa\MyGit\hyperion-zvector\dasdload64.c
_TEXT	SEGMENT
catent$ = 128
bytes$ = 136
keylen$ = 140
datalen$ = 144
outrec$ = 148
totblks$ = 152
rc$ = 156
outtrk$ = 160
i$ = 164
ucbtype$ = 168
outtrkbr$ = 172
outusedv$ = 176
outusedr$ = 180
blkptrk$ = 184
tv86 = 192
tv299 = 200
tv361 = 208
tv475 = 216
datablk$ = 224
__$ArrayPad$ = 33008
ofname$ = 33040
cif$ = 33048
volser$ = 33056
devtype$ = 33064
heads$ = 33072
trklen$ = 33080
outcyl$ = 33088
outhead$ = 33096
extsize$ = 33104
lastrec$ = 33112
trkbal$ = 33120
numtrks$ = 33128
nxtcyl$ = 33136
nxthead$ = 33144
cvol_initialize PROC

; 2883 : {

  00000	66 44 89 4c 24
	20		 mov	 WORD PTR [rsp+32], r9w
  00006	4c 89 44 24 18	 mov	 QWORD PTR [rsp+24], r8
  0000b	48 89 54 24 10	 mov	 QWORD PTR [rsp+16], rdx
  00010	48 89 4c 24 08	 mov	 QWORD PTR [rsp+8], rcx
  00015	57		 push	 rdi
  00016	b8 00 81 00 00	 mov	 eax, 33024		; 00008100H
  0001b	e8 00 00 00 00	 call	 __chkstk
  00020	48 2b e0	 sub	 rsp, rax
  00023	48 8b 05 00 00
	00 00		 mov	 rax, QWORD PTR __security_cookie
  0002a	48 33 c4	 xor	 rax, rsp
  0002d	48 89 84 24 f0
	80 00 00	 mov	 QWORD PTR __$ArrayPad$[rsp], rax

; 2884 : int             rc;                     /* Return code               */
; 2885 : int             i;                      /* Array subscript           */
; 2886 : int             keylen;                 /* Key length of data block  */
; 2887 : int             datalen;                /* Data length of data block */
; 2888 : int             outusedv = 0;           /* Output bytes used on track

  00035	c7 84 24 b0 00
	00 00 00 00 00
	00		 mov	 DWORD PTR outusedv$[rsp], 0

; 2889 :                                            of virtual device         */
; 2890 : int             outusedr = 0;           /* Output bytes used on track

  00040	c7 84 24 b4 00
	00 00 00 00 00
	00		 mov	 DWORD PTR outusedr$[rsp], 0

; 2891 :                                            of real device            */
; 2892 : int             outtrkbr = 0;           /* Output bytes remaining on

  0004b	c7 84 24 ac 00
	00 00 00 00 00
	00		 mov	 DWORD PTR outtrkbr$[rsp], 0

; 2893 :                                            track of real device      */
; 2894 : int             outtrk = 0;             /* Output relative track     */

  00056	c7 84 24 a0 00
	00 00 00 00 00
	00		 mov	 DWORD PTR outtrk$[rsp], 0

; 2895 : int             outrec = 0;             /* Output record number      */

  00061	c7 84 24 94 00
	00 00 00 00 00
	00		 mov	 DWORD PTR outrec$[rsp], 0

; 2896 : int             blkptrk;                /* Number of blocks per track*/
; 2897 : int             totblks;                /* Number of blocks in CVOL  */
; 2898 : int             bytes;                  /* Bytes used in this block  */
; 2899 : U32             ucbtype;                /* UCB device type           */
; 2900 : PDSDIR         *catent;                 /* -> Catalog entry          */
; 2901 : DATABLK         datablk;                /* Data block                */
; 2902 : #define NUM_SYS1_DATASETS       8       /* Number of SYS1 datasets   */
; 2903 : static char    *sys1name[NUM_SYS1_DATASETS] =
; 2904 :                 {"DUMP", "IMAGELIB", "LINKLIB", "NUCLEUS",
; 2905 :                 "PARMLIB", "PROCLIB", "SAMPLIB", "SYSJOBQE"};
; 2906 : 
; 2907 :     /* Set the key length and data length for SYSCTLG dataset */
; 2908 :     keylen = 8;

  0006c	c7 84 24 8c 00
	00 00 08 00 00
	00		 mov	 DWORD PTR keylen$[rsp], 8

; 2909 :     datalen = 256;

  00077	c7 84 24 90 00
	00 00 00 01 00
	00		 mov	 DWORD PTR datalen$[rsp], 256 ; 00000100H

; 2910 : 
; 2911 :     /* Obtain the number of blocks which will fit on a track */
; 2912 :     capacity_calc (cif, 0, keylen, datalen, NULL, NULL,

  00082	48 c7 44 24 78
	00 00 00 00	 mov	 QWORD PTR [rsp+120], 0
  0008b	48 c7 44 24 70
	00 00 00 00	 mov	 QWORD PTR [rsp+112], 0
  00094	48 8d 84 24 b8
	00 00 00	 lea	 rax, QWORD PTR blkptrk$[rsp]
  0009c	48 89 44 24 68	 mov	 QWORD PTR [rsp+104], rax
  000a1	48 c7 44 24 60
	00 00 00 00	 mov	 QWORD PTR [rsp+96], 0
  000aa	48 c7 44 24 58
	00 00 00 00	 mov	 QWORD PTR [rsp+88], 0
  000b3	48 c7 44 24 50
	00 00 00 00	 mov	 QWORD PTR [rsp+80], 0
  000bc	48 c7 44 24 48
	00 00 00 00	 mov	 QWORD PTR [rsp+72], 0
  000c5	48 c7 44 24 40
	00 00 00 00	 mov	 QWORD PTR [rsp+64], 0
  000ce	48 c7 44 24 38
	00 00 00 00	 mov	 QWORD PTR [rsp+56], 0
  000d7	48 c7 44 24 30
	00 00 00 00	 mov	 QWORD PTR [rsp+48], 0
  000e0	48 c7 44 24 28
	00 00 00 00	 mov	 QWORD PTR [rsp+40], 0
  000e9	48 c7 44 24 20
	00 00 00 00	 mov	 QWORD PTR [rsp+32], 0
  000f2	44 8b 8c 24 90
	00 00 00	 mov	 r9d, DWORD PTR datalen$[rsp]
  000fa	44 8b 84 24 8c
	00 00 00	 mov	 r8d, DWORD PTR keylen$[rsp]
  00102	33 d2		 xor	 edx, edx
  00104	48 8b 8c 24 18
	81 00 00	 mov	 rcx, QWORD PTR cif$[rsp]
  0010c	ff 15 00 00 00
	00		 call	 QWORD PTR __imp_capacity_calc

; 2913 :                     NULL, NULL, NULL, NULL, NULL,
; 2914 :                     NULL, NULL, &blkptrk, NULL, NULL);
; 2915 : 
; 2916 :     /* Calculate the total number of blocks in the catalog */
; 2917 :     totblks = extsize * blkptrk;

  00112	8b 84 24 50 81
	00 00		 mov	 eax, DWORD PTR extsize$[rsp]
  00119	0f af 84 24 b8
	00 00 00	 imul	 eax, DWORD PTR blkptrk$[rsp]
  00121	89 84 24 98 00
	00 00		 mov	 DWORD PTR totblks$[rsp], eax

; 2918 : 
; 2919 :     /* Get the UCB device type */
; 2920 :     ucbtype = ucbtype_code (devtype);

  00128	0f b7 8c 24 28
	81 00 00	 movzx	 ecx, WORD PTR devtype$[rsp]
  00130	e8 00 00 00 00	 call	 ucbtype_code
  00135	89 84 24 a8 00
	00 00		 mov	 DWORD PTR ucbtype$[rsp], eax

; 2921 : 
; 2922 :     /*-----------------------------------*/
; 2923 :     /* Initialize the volume index block */
; 2924 :     /*-----------------------------------*/
; 2925 :     memset (datablk.kdarea, 0, keylen + datalen);

  0013c	8b 84 24 90 00
	00 00		 mov	 eax, DWORD PTR datalen$[rsp]
  00143	8b 8c 24 8c 00
	00 00		 mov	 ecx, DWORD PTR keylen$[rsp]
  0014a	03 c8		 add	 ecx, eax
  0014c	8b c1		 mov	 eax, ecx
  0014e	48 98		 cdqe
  00150	48 89 84 24 c0
	00 00 00	 mov	 QWORD PTR tv86[rsp], rax
  00158	48 8d 8c 24 ec
	00 00 00	 lea	 rcx, QWORD PTR datablk$[rsp+12]
  00160	48 8b f9	 mov	 rdi, rcx
  00163	33 c0		 xor	 eax, eax
  00165	48 8b 8c 24 c0
	00 00 00	 mov	 rcx, QWORD PTR tv86[rsp]
  0016d	f3 aa		 rep stosb

; 2926 : 
; 2927 :     /* The key field contains all X'FF' */
; 2928 :     memcpy( datablk.kdarea, &CKD_ENDTRK, CKD_ENDTRK_SIZE );

  0016f	48 8b 05 00 00
	00 00		 mov	 rax, QWORD PTR CKD_ENDTRK
  00176	48 89 84 24 ec
	00 00 00	 mov	 QWORD PTR datablk$[rsp+12], rax

; 2929 : 
; 2930 :     /* The first entry begins after the 2 byte count field */
; 2931 :     bytes = 2;

  0017e	c7 84 24 88 00
	00 00 02 00 00
	00		 mov	 DWORD PTR bytes$[rsp], 2

; 2932 :     catent = (PDSDIR*)(datablk.kdarea + keylen + bytes);

  00189	48 63 84 24 8c
	00 00 00	 movsxd	 rax, DWORD PTR keylen$[rsp]
  00191	48 8d 84 04 ec
	00 00 00	 lea	 rax, QWORD PTR datablk$[rsp+rax+12]
  00199	48 63 8c 24 88
	00 00 00	 movsxd	 rcx, DWORD PTR bytes$[rsp]
  001a1	48 03 c1	 add	 rax, rcx
  001a4	48 89 84 24 80
	00 00 00	 mov	 QWORD PTR catent$[rsp], rax

; 2933 : 
; 2934 :     /* Build the volume index control entry (VICE) */
; 2935 : 
; 2936 :     /* The VICE name is X'0000000000000001' */
; 2937 :     memcpy (catent->pds2name, cvol_low_key, 8);

  001ac	48 8b 84 24 80
	00 00 00	 mov	 rax, QWORD PTR catent$[rsp]
  001b4	48 8b 0d 00 00
	00 00		 mov	 rcx, QWORD PTR cvol_low_key
  001bb	48 89 08	 mov	 QWORD PTR [rax], rcx

; 2938 : 
; 2939 :     /* Set TTR to highest block in volume index, i.e. X'000001' */
; 2940 :     catent->pds2ttrp[0] = 0;

  001be	b8 01 00 00 00	 mov	 eax, 1
  001c3	48 6b c0 00	 imul	 rax, rax, 0
  001c7	48 8b 8c 24 80
	00 00 00	 mov	 rcx, QWORD PTR catent$[rsp]
  001cf	c6 44 01 08 00	 mov	 BYTE PTR [rcx+rax+8], 0

; 2941 :     catent->pds2ttrp[1] = 0;

  001d4	b8 01 00 00 00	 mov	 eax, 1
  001d9	48 6b c0 01	 imul	 rax, rax, 1
  001dd	48 8b 8c 24 80
	00 00 00	 mov	 rcx, QWORD PTR catent$[rsp]
  001e5	c6 44 01 08 00	 mov	 BYTE PTR [rcx+rax+8], 0

; 2942 :     catent->pds2ttrp[2] = 1;

  001ea	b8 01 00 00 00	 mov	 eax, 1
  001ef	48 6b c0 02	 imul	 rax, rax, 2
  001f3	48 8b 8c 24 80
	00 00 00	 mov	 rcx, QWORD PTR catent$[rsp]
  001fb	c6 44 01 08 01	 mov	 BYTE PTR [rcx+rax+8], 1

; 2943 : 
; 2944 :     /* Indicator byte X'05' means 5 user halfwords follow, and
; 2945 :        uniquely identifies this catalog entry as a VICE */
; 2946 :     catent->pds2indc = 5;

  00200	48 8b 84 24 80
	00 00 00	 mov	 rax, QWORD PTR catent$[rsp]
  00208	c6 40 0b 05	 mov	 BYTE PTR [rax+11], 5

; 2947 : 
; 2948 :     /* Set the TTR of the last block of the catalog */
; 2949 :     catent->pds2usrd[0] = ((extsize - 1) >> 8) & 0xFF;

  0020c	8b 84 24 50 81
	00 00		 mov	 eax, DWORD PTR extsize$[rsp]
  00213	ff c8		 dec	 eax
  00215	c1 f8 08	 sar	 eax, 8
  00218	25 ff 00 00 00	 and	 eax, 255		; 000000ffH
  0021d	b9 01 00 00 00	 mov	 ecx, 1
  00222	48 6b c9 00	 imul	 rcx, rcx, 0
  00226	48 8b 94 24 80
	00 00 00	 mov	 rdx, QWORD PTR catent$[rsp]
  0022e	88 44 0a 0c	 mov	 BYTE PTR [rdx+rcx+12], al

; 2950 :     catent->pds2usrd[1] = (extsize - 1) & 0xFF;

  00232	8b 84 24 50 81
	00 00		 mov	 eax, DWORD PTR extsize$[rsp]
  00239	ff c8		 dec	 eax
  0023b	25 ff 00 00 00	 and	 eax, 255		; 000000ffH
  00240	b9 01 00 00 00	 mov	 ecx, 1
  00245	48 6b c9 01	 imul	 rcx, rcx, 1
  00249	48 8b 94 24 80
	00 00 00	 mov	 rdx, QWORD PTR catent$[rsp]
  00251	88 44 0a 0c	 mov	 BYTE PTR [rdx+rcx+12], al

; 2951 :     catent->pds2usrd[2] = (BYTE) blkptrk;

  00255	b8 01 00 00 00	 mov	 eax, 1
  0025a	48 6b c0 02	 imul	 rax, rax, 2
  0025e	48 8b 8c 24 80
	00 00 00	 mov	 rcx, QWORD PTR catent$[rsp]
  00266	0f b6 94 24 b8
	00 00 00	 movzx	 edx, BYTE PTR blkptrk$[rsp]
  0026e	88 54 01 0c	 mov	 BYTE PTR [rcx+rax+12], dl

; 2952 :     catent->pds2usrd[3] = 0;

  00272	b8 01 00 00 00	 mov	 eax, 1
  00277	48 6b c0 03	 imul	 rax, rax, 3
  0027b	48 8b 8c 24 80
	00 00 00	 mov	 rcx, QWORD PTR catent$[rsp]
  00283	c6 44 01 0c 00	 mov	 BYTE PTR [rcx+rax+12], 0

; 2953 : 
; 2954 :     /* Set the TTR of the first unused block (X'000003') */
; 2955 :     catent->pds2usrd[4] = 0;

  00288	b8 01 00 00 00	 mov	 eax, 1
  0028d	48 6b c0 04	 imul	 rax, rax, 4
  00291	48 8b 8c 24 80
	00 00 00	 mov	 rcx, QWORD PTR catent$[rsp]
  00299	c6 44 01 0c 00	 mov	 BYTE PTR [rcx+rax+12], 0

; 2956 :     catent->pds2usrd[5] = 0;

  0029e	b8 01 00 00 00	 mov	 eax, 1
  002a3	48 6b c0 05	 imul	 rax, rax, 5
  002a7	48 8b 8c 24 80
	00 00 00	 mov	 rcx, QWORD PTR catent$[rsp]
  002af	c6 44 01 0c 00	 mov	 BYTE PTR [rcx+rax+12], 0

; 2957 :     catent->pds2usrd[6] = 3;

  002b4	b8 01 00 00 00	 mov	 eax, 1
  002b9	48 6b c0 06	 imul	 rax, rax, 6
  002bd	48 8b 8c 24 80
	00 00 00	 mov	 rcx, QWORD PTR catent$[rsp]
  002c5	c6 44 01 0c 03	 mov	 BYTE PTR [rcx+rax+12], 3

