; Listing generated by Microsoft (R) Optimizing Compiler Version 19.34.31937.0 

include listing.inc

INCLUDELIB MSVCRTD
INCLUDELIB OLDNAMES

CONST	SEGMENT
CKD_ENDTRK DB	0ffH
	DB	0ffH
	DB	0ffH
	DB	0ffH
	DB	0ffH
	DB	0ffH
	DB	0ffH
	DB	0ffH
CONST	ENDS
PUBLIC	fetch_hw_noswap
PUBLIC	store_hw_noswap
PUBLIC	fetch_fw_noswap
PUBLIC	store_fw_noswap
PUBLIC	fetch_dw_noswap
PUBLIC	store_dw_noswap
PUBLIC	s370_invalidate_aia
PUBLIC	s390_invalidate_aia
PUBLIC	z900_invalidate_aia
PUBLIC	s370_set_ic_mask
PUBLIC	s390_set_ic_mask
PUBLIC	z900_set_ic_mask
PUBLIC	s370_set_aea_mode
PUBLIC	s390_set_aea_mode
PUBLIC	z900_set_aea_mode
PUBLIC	s370_invalidate_guest_aia
PUBLIC	s390_invalidate_guest_aia
PUBLIC	z900_invalidate_guest_aia
PUBLIC	s370_set_guest_ic_mask
PUBLIC	s390_set_guest_ic_mask
PUBLIC	z900_set_guest_ic_mask
PUBLIC	s370_set_guest_aea_mode
PUBLIC	s390_set_guest_aea_mode
PUBLIC	z900_set_guest_aea_mode
PUBLIC	s370_set_aea_common
PUBLIC	s390_set_aea_common
PUBLIC	z900_set_aea_common
PUBLIC	s370_set_guest_aea_common
PUBLIC	s390_set_guest_aea_common
PUBLIC	z900_set_guest_aea_common
PUBLIC	s370_do_purge_tlb
PUBLIC	s390_do_purge_tlb
PUBLIC	z900_do_purge_tlb
PUBLIC	s370_purge_tlb
PUBLIC	s390_purge_tlb
PUBLIC	z900_purge_tlb
PUBLIC	s390_do_purge_alb
PUBLIC	z900_do_purge_alb
PUBLIC	s390_purge_alb
PUBLIC	z900_purge_alb
PUBLIC	s370_do_invalidate_tlb
PUBLIC	s390_do_invalidate_tlb
PUBLIC	z900_do_invalidate_tlb
PUBLIC	s370_is_tlbe_match
PUBLIC	s390_is_tlbe_match
PUBLIC	z900_is_tlbe_match
PUBLIC	s370_do_purge_tlbe
PUBLIC	s390_do_purge_tlbe
PUBLIC	z900_do_purge_tlbe
PUBLIC	s370_purge_tlbe
PUBLIC	s390_purge_tlbe
PUBLIC	z900_purge_tlbe
PUBLIC	s370_do_invalidate_tlbe
PUBLIC	s390_do_invalidate_tlbe
PUBLIC	z900_do_invalidate_tlbe
PUBLIC	s370_invalidate_tlbe
PUBLIC	s390_invalidate_tlbe
PUBLIC	z900_invalidate_tlbe
PUBLIC	apply_host_prefixing
PUBLIC	s370_update_psw_ia
PUBLIC	s390_update_psw_ia
PUBLIC	z900_update_psw_ia
PUBLIC	s370_update_guest_psw_ia
PUBLIC	s390_update_guest_psw_ia
PUBLIC	z900_update_guest_psw_ia
PUBLIC	_get_storekey_ptr
PUBLIC	_get_storekey1_ptr
PUBLIC	_get_storekey2_ptr
PUBLIC	s370__get_storage_key
PUBLIC	s370__or_storage_key
PUBLIC	s370_get_ptr_to_2K_storekey
PUBLIC	s370_get_2K_storage_key
PUBLIC	s370_or_2K_storage_key
PUBLIC	s370_or_storage_key
PUBLIC	s370_get_ptr_to_storekey
PUBLIC	s370_get_storekey_by_ptr
PUBLIC	s370_or_storage_key_by_ptr
PUBLIC	s370_logical_to_main_l
PUBLIC	s390_logical_to_main_l
PUBLIC	z900_logical_to_main_l
PUBLIC	s370_is_fetch_protected
PUBLIC	s370_is_low_address_protected
PUBLIC	s370_is_store_protected
PUBLIC	s370_fetch_main_absolute
PUBLIC	s370_fetch_fullword_absolute
PUBLIC	s370_fetch_halfword_absolute
PUBLIC	s370_invalidate_tlb
PUBLIC	s370_invalidate_pte
PUBLIC	s370_translate_asn
PUBLIC	s370_translate_addr
PUBLIC	s390_translate_addr
PUBLIC	z900_translate_addr
PUBLIC	s370_purge_tlb_all
PUBLIC	s370_purge_tlbe_all
PUBLIC	s370_authorize_asn
PUBLIC	s370_maddr_l
PUBLIC	s370_vstore2_full
PUBLIC	s370_vfetch2_full
PUBLIC	s370_vstore2
PUBLIC	s370_vfetch2
PUBLIC	s370_load_address_space_designator
PUBLIC	s390__get_storage_key
PUBLIC	s390__or_storage_key
PUBLIC	s390_get_ptr_to_4K_storekey
PUBLIC	s390_get_4K_storage_key
PUBLIC	s390_or_4K_storage_key
PUBLIC	s390_or_storage_key
PUBLIC	s390_get_ptr_to_storekey
PUBLIC	s390_get_storekey_by_ptr
PUBLIC	s390_or_storage_key_by_ptr
PUBLIC	s390_is_fetch_protected
PUBLIC	s390_is_low_address_protected
PUBLIC	s390_is_store_protected
PUBLIC	s390_fetch_main_absolute
PUBLIC	s390_fetch_fullword_absolute
PUBLIC	s390_invalidate_tlb
PUBLIC	s390_invalidate_pte
PUBLIC	s390_translate_alet
PUBLIC	s390_translate_asn
PUBLIC	s390_purge_tlb_all
PUBLIC	s390_purge_tlbe_all
PUBLIC	s390_purge_alb_all
PUBLIC	s390_authorize_asn
PUBLIC	s390_maddr_l
PUBLIC	s390_vstore4_full
PUBLIC	s390_vfetch4_full
PUBLIC	s390_vstore4
PUBLIC	s390_vfetch4
PUBLIC	s390_load_address_space_designator
PUBLIC	z900__get_storage_key
PUBLIC	z900__or_storage_key
PUBLIC	z900_get_ptr_to_4K_storekey
PUBLIC	z900_get_4K_storage_key
PUBLIC	z900_or_4K_storage_key
PUBLIC	z900_or_storage_key
PUBLIC	z900_get_ptr_to_storekey
PUBLIC	z900_get_storekey_by_ptr
PUBLIC	z900_or_storage_key_by_ptr
PUBLIC	z900_is_fetch_protected
PUBLIC	z900_is_low_address_protected
PUBLIC	z900_is_store_protected
PUBLIC	z900_fetch_main_absolute
PUBLIC	z900_is_per3_event_suppressed
PUBLIC	z900_fetch_doubleword_absolute
PUBLIC	z900_fetch_fullword_absolute
PUBLIC	z900_invalidate_tlb
PUBLIC	z900_invalidate_pte
PUBLIC	z900_translate_alet
PUBLIC	z900_translate_asn
PUBLIC	z900_purge_tlb_all
PUBLIC	z900_purge_tlbe_all
PUBLIC	z900_purge_alb_all
PUBLIC	z900_authorize_asn
PUBLIC	z900_maddr_l
PUBLIC	z900_vstore8_full
PUBLIC	z900_vfetch8_full
PUBLIC	z900_vstore8
PUBLIC	z900_vfetch8
PUBLIC	z900_load_address_space_designator
EXTRN	_byteswap_ushort:PROC
EXTRN	_byteswap_ulong:PROC
EXTRN	_byteswap_uint64:PROC
EXTRN	__imp_ptt_pthread_trace:PROC
EXTRN	s370_fetch_int_timer:PROC
EXTRN	s370_store_int_timer:PROC
EXTRN	txf_maddr_l:PROC
EXTRN	__GSHandlerCheck:PROC
EXTRN	__security_check_cookie:PROC
EXTRN	__imp_pttclass:QWORD
EXTRN	__imp_sysblk:BYTE
EXTRN	__security_cookie:QWORD
;	COMDAT pdata
pdata	SEGMENT
$pdata$fetch_hw_noswap DD imagerel $LN3
	DD	imagerel $LN3+30
	DD	imagerel $unwind$fetch_hw_noswap
pdata	ENDS
;	COMDAT pdata
pdata	SEGMENT
$pdata$fetch_fw_noswap DD imagerel $LN3
	DD	imagerel $LN3+27
	DD	imagerel $unwind$fetch_fw_noswap
pdata	ENDS
;	COMDAT pdata
pdata	SEGMENT
$pdata$fetch_dw_noswap DD imagerel $LN3
	DD	imagerel $LN3+30
	DD	imagerel $unwind$fetch_dw_noswap
pdata	ENDS
pdata	SEGMENT
$pdata$s370_set_ic_mask DD imagerel $LN33
	DD	imagerel $LN33+714
	DD	imagerel $unwind$s370_set_ic_mask
$pdata$s390_set_ic_mask DD imagerel $LN25
	DD	imagerel $LN25+568
	DD	imagerel $unwind$s390_set_ic_mask
$pdata$z900_set_ic_mask DD imagerel $LN25
	DD	imagerel $LN25+589
	DD	imagerel $unwind$z900_set_ic_mask
$pdata$s370_set_aea_mode DD imagerel $LN43
	DD	imagerel $LN43+881
	DD	imagerel $unwind$s370_set_aea_mode
$pdata$s390_set_aea_mode DD imagerel $LN56
	DD	imagerel $LN56+1123
	DD	imagerel $unwind$s390_set_aea_mode
$pdata$z900_set_aea_mode DD imagerel $LN56
	DD	imagerel $LN56+1129
	DD	imagerel $unwind$z900_set_aea_mode
$pdata$s370_invalidate_guest_aia DD imagerel $LN12
	DD	imagerel $LN12+136
	DD	imagerel $unwind$s370_invalidate_guest_aia
$pdata$s390_invalidate_guest_aia DD imagerel $LN12
	DD	imagerel $LN12+136
	DD	imagerel $unwind$s390_invalidate_guest_aia
$pdata$z900_invalidate_guest_aia DD imagerel $LN12
	DD	imagerel $LN12+136
	DD	imagerel $unwind$z900_invalidate_guest_aia
$pdata$s370_set_guest_ic_mask DD imagerel $LN12
	DD	imagerel $LN12+136
	DD	imagerel $unwind$s370_set_guest_ic_mask
$pdata$s390_set_guest_ic_mask DD imagerel $LN12
	DD	imagerel $LN12+136
	DD	imagerel $unwind$s390_set_guest_ic_mask
$pdata$z900_set_guest_ic_mask DD imagerel $LN12
	DD	imagerel $LN12+136
	DD	imagerel $unwind$z900_set_guest_ic_mask
$pdata$s370_set_guest_aea_mode DD imagerel $LN12
	DD	imagerel $LN12+136
	DD	imagerel $unwind$s370_set_guest_aea_mode
$pdata$s390_set_guest_aea_mode DD imagerel $LN12
	DD	imagerel $LN12+136
	DD	imagerel $unwind$s390_set_guest_aea_mode
$pdata$z900_set_guest_aea_mode DD imagerel $LN12
	DD	imagerel $LN12+136
	DD	imagerel $unwind$z900_set_guest_aea_mode
$pdata$s370_set_aea_common DD imagerel $LN10
	DD	imagerel $LN10+165
	DD	imagerel $unwind$s370_set_aea_common
$pdata$s390_set_aea_common DD imagerel $LN12
	DD	imagerel $LN12+243
	DD	imagerel $unwind$s390_set_aea_common
$pdata$z900_set_aea_common DD imagerel $LN12
	DD	imagerel $LN12+252
	DD	imagerel $unwind$z900_set_aea_common
$pdata$s370_set_guest_aea_common DD imagerel $LN12
	DD	imagerel $LN12+136
	DD	imagerel $unwind$s370_set_guest_aea_common
$pdata$s390_set_guest_aea_common DD imagerel $LN12
	DD	imagerel $LN12+136
	DD	imagerel $unwind$s390_set_guest_aea_common
$pdata$z900_set_guest_aea_common DD imagerel $LN12
	DD	imagerel $LN12+136
	DD	imagerel $unwind$z900_set_guest_aea_common
$pdata$s370_do_purge_tlb DD imagerel $LN8
	DD	imagerel $LN8+188
	DD	imagerel $unwind$s370_do_purge_tlb
$pdata$s390_do_purge_tlb DD imagerel $LN8
	DD	imagerel $LN8+196
	DD	imagerel $unwind$s390_do_purge_tlb
$pdata$z900_do_purge_tlb DD imagerel $LN8
	DD	imagerel $LN8+201
	DD	imagerel $unwind$z900_do_purge_tlb
pdata	ENDS
;	COMDAT pdata
pdata	SEGMENT
$pdata$s370_purge_tlb DD imagerel $LN13
	DD	imagerel $LN13+186
	DD	imagerel $unwind$s370_purge_tlb
pdata	ENDS
;	COMDAT pdata
pdata	SEGMENT
$pdata$s390_purge_tlb DD imagerel $LN13
	DD	imagerel $LN13+186
	DD	imagerel $unwind$s390_purge_tlb
pdata	ENDS
;	COMDAT pdata
pdata	SEGMENT
$pdata$z900_purge_tlb DD imagerel $LN13
	DD	imagerel $LN13+186
	DD	imagerel $unwind$z900_purge_tlb
pdata	ENDS
pdata	SEGMENT
$pdata$s390_do_purge_alb DD imagerel $LN7
	DD	imagerel $LN7+86
	DD	imagerel $unwind$s390_do_purge_alb
$pdata$z900_do_purge_alb DD imagerel $LN7
	DD	imagerel $LN7+86
	DD	imagerel $unwind$z900_do_purge_alb
pdata	ENDS
;	COMDAT pdata
pdata	SEGMENT
$pdata$s390_purge_alb DD imagerel $LN13
	DD	imagerel $LN13+165
	DD	imagerel $unwind$s390_purge_alb
pdata	ENDS
;	COMDAT pdata
pdata	SEGMENT
$pdata$z900_purge_alb DD imagerel $LN13
	DD	imagerel $LN13+165
	DD	imagerel $unwind$z900_purge_alb
pdata	ENDS
pdata	SEGMENT
$pdata$s370_do_invalidate_tlb DD imagerel $LN13
	DD	imagerel $LN13+248
	DD	imagerel $unwind$s370_do_invalidate_tlb
$pdata$s390_do_invalidate_tlb DD imagerel $LN13
	DD	imagerel $LN13+256
	DD	imagerel $unwind$s390_do_invalidate_tlb
$pdata$z900_do_invalidate_tlb DD imagerel $LN13
	DD	imagerel $LN13+264
	DD	imagerel $unwind$z900_do_invalidate_tlb
$pdata$s370_is_tlbe_match DD imagerel $LN18
	DD	imagerel $LN18+324
	DD	imagerel $unwind$s370_is_tlbe_match
$pdata$s390_is_tlbe_match DD imagerel $LN16
	DD	imagerel $LN16+268
	DD	imagerel $unwind$s390_is_tlbe_match
$pdata$z900_is_tlbe_match DD imagerel $LN16
	DD	imagerel $LN16+272
	DD	imagerel $unwind$z900_is_tlbe_match
$pdata$s370_do_purge_tlbe DD imagerel $LN11
	DD	imagerel $LN11+219
	DD	imagerel $unwind$s370_do_purge_tlbe
$pdata$s390_do_purge_tlbe DD imagerel $LN11
	DD	imagerel $LN11+227
	DD	imagerel $unwind$s390_do_purge_tlbe
$pdata$z900_do_purge_tlbe DD imagerel $LN11
	DD	imagerel $LN11+233
	DD	imagerel $unwind$z900_do_purge_tlbe
$pdata$s370_purge_tlbe DD imagerel $LN24
	DD	imagerel $LN24+405
	DD	imagerel $unwind$s370_purge_tlbe
$pdata$s390_purge_tlbe DD imagerel $LN24
	DD	imagerel $LN24+405
	DD	imagerel $unwind$s390_purge_tlbe
$pdata$z900_purge_tlbe DD imagerel $LN24
	DD	imagerel $LN24+405
	DD	imagerel $unwind$z900_purge_tlbe
$pdata$s370_do_invalidate_tlbe DD imagerel $LN15
	DD	imagerel $LN15+414
	DD	imagerel $unwind$s370_do_invalidate_tlbe
$pdata$s390_do_invalidate_tlbe DD imagerel $LN14
	DD	imagerel $LN14+360
	DD	imagerel $unwind$s390_do_invalidate_tlbe
$pdata$z900_do_invalidate_tlbe DD imagerel $LN14
	DD	imagerel $LN14+366
	DD	imagerel $unwind$z900_do_invalidate_tlbe
$pdata$s370_invalidate_tlbe DD imagerel $LN24
	DD	imagerel $LN24+382
	DD	imagerel $unwind$s370_invalidate_tlbe
$pdata$s390_invalidate_tlbe DD imagerel $LN24
	DD	imagerel $LN24+382
	DD	imagerel $unwind$s390_invalidate_tlbe
$pdata$z900_invalidate_tlbe DD imagerel $LN24
	DD	imagerel $LN24+382
	DD	imagerel $unwind$z900_invalidate_tlbe
$pdata$apply_host_prefixing DD imagerel $LN18
	DD	imagerel $LN18+403
	DD	imagerel $unwind$apply_host_prefixing
$pdata$s370_update_psw_ia DD imagerel $LN7
	DD	imagerel $LN7+181
	DD	imagerel $unwind$s370_update_psw_ia
$pdata$s390_update_psw_ia DD imagerel $LN7
	DD	imagerel $LN7+189
	DD	imagerel $unwind$s390_update_psw_ia
$pdata$z900_update_psw_ia DD imagerel $LN7
	DD	imagerel $LN7+194
	DD	imagerel $unwind$z900_update_psw_ia
$pdata$s370_update_guest_psw_ia DD imagerel $LN12
	DD	imagerel $LN12+152
	DD	imagerel $unwind$s370_update_guest_psw_ia
$pdata$s390_update_guest_psw_ia DD imagerel $LN12
	DD	imagerel $LN12+152
	DD	imagerel $unwind$s390_update_guest_psw_ia
$pdata$z900_update_guest_psw_ia DD imagerel $LN12
	DD	imagerel $LN12+152
	DD	imagerel $unwind$z900_update_guest_psw_ia
pdata	ENDS
;	COMDAT pdata
pdata	SEGMENT
$pdata$_get_storekey_ptr DD imagerel $LN5
	DD	imagerel $LN5+104
	DD	imagerel $unwind$_get_storekey_ptr
pdata	ENDS
;	COMDAT pdata
pdata	SEGMENT
$pdata$s370__get_storage_key DD imagerel $LN8
	DD	imagerel $LN8+118
	DD	imagerel $unwind$s370__get_storage_key
pdata	ENDS
;	COMDAT pdata
pdata	SEGMENT
$pdata$s370__or_storage_key DD imagerel $LN8
	DD	imagerel $LN8+170
	DD	imagerel $unwind$s370__or_storage_key
pdata	ENDS
;	COMDAT pdata
pdata	SEGMENT
$pdata$s370_get_ptr_to_2K_storekey DD imagerel $LN3
	DD	imagerel $LN3+26
	DD	imagerel $unwind$s370_get_ptr_to_2K_storekey
pdata	ENDS
;	COMDAT pdata
pdata	SEGMENT
$pdata$s370_get_2K_storage_key DD imagerel $LN3
	DD	imagerel $LN3+32
	DD	imagerel $unwind$s370_get_2K_storage_key
pdata	ENDS
;	COMDAT pdata
pdata	SEGMENT
$pdata$s370_or_2K_storage_key DD imagerel $LN3
	DD	imagerel $LN3+42
	DD	imagerel $unwind$s370_or_2K_storage_key
pdata	ENDS
;	COMDAT pdata
pdata	SEGMENT
$pdata$s370_or_storage_key DD imagerel $LN3
	DD	imagerel $LN3+33
	DD	imagerel $unwind$s370_or_storage_key
pdata	ENDS
;	COMDAT pdata
pdata	SEGMENT
$pdata$s370_get_ptr_to_storekey DD imagerel $LN3
	DD	imagerel $LN3+24
	DD	imagerel $unwind$s370_get_ptr_to_storekey
pdata	ENDS
;	COMDAT pdata
pdata	SEGMENT
$pdata$s370_get_storekey_by_ptr DD imagerel $LN3
	DD	imagerel $LN3+58
	DD	imagerel $unwind$s370_get_storekey_by_ptr
pdata	ENDS
;	COMDAT pdata
pdata	SEGMENT
$pdata$s370_or_storage_key_by_ptr DD imagerel $LN3
	DD	imagerel $LN3+67
	DD	imagerel $unwind$s370_or_storage_key_by_ptr
pdata	ENDS
pdata	SEGMENT
$pdata$s370_logical_to_main_l DD imagerel $LN71
	DD	imagerel $LN71+3831
	DD	imagerel $unwind$s370_logical_to_main_l
$pdata$s390_logical_to_main_l DD imagerel $LN87
	DD	imagerel $LN87+4433
	DD	imagerel $unwind$s390_logical_to_main_l
$pdata$z900_logical_to_main_l DD imagerel $LN84
	DD	imagerel $LN84+4327
	DD	imagerel $unwind$z900_logical_to_main_l
pdata	ENDS
;	COMDAT pdata
pdata	SEGMENT
$pdata$s370_is_fetch_protected DD imagerel $LN14
	DD	imagerel $LN14+114
	DD	imagerel $unwind$s370_is_fetch_protected
pdata	ENDS
;	COMDAT pdata
pdata	SEGMENT
$pdata$s370_is_store_protected DD imagerel $LN8
	DD	imagerel $LN8+166
	DD	imagerel $unwind$s370_is_store_protected
pdata	ENDS
;	COMDAT pdata
pdata	SEGMENT
$pdata$s370_fetch_main_absolute DD imagerel $LN7
	DD	imagerel $LN7+184
	DD	imagerel $unwind$s370_fetch_main_absolute
pdata	ENDS
;	COMDAT pdata
pdata	SEGMENT
$pdata$s370_fetch_fullword_absolute DD imagerel $LN3
	DD	imagerel $LN3+49
	DD	imagerel $unwind$s370_fetch_fullword_absolute
pdata	ENDS
;	COMDAT pdata
pdata	SEGMENT
$pdata$s370_fetch_halfword_absolute DD imagerel $LN3
	DD	imagerel $LN3+50
	DD	imagerel $unwind$s370_fetch_halfword_absolute
pdata	ENDS
pdata	SEGMENT
$pdata$s370_invalidate_tlb DD imagerel $LN24
	DD	imagerel $LN24+381
	DD	imagerel $unwind$s370_invalidate_tlb
$pdata$s370_invalidate_pte DD imagerel $LN21
	DD	imagerel $LN21+690
	DD	imagerel $unwind$s370_invalidate_pte
$pdata$s370_translate_asn DD imagerel $LN24
	DD	imagerel $LN24+824
	DD	imagerel $unwind$s370_translate_asn
$pdata$s370_translate_addr DD imagerel $LN63
	DD	imagerel $LN63+3566
	DD	imagerel $unwind$s370_translate_addr
$pdata$s390_translate_addr DD imagerel $LN51
	DD	imagerel $LN51+2692
	DD	imagerel $unwind$s390_translate_addr
$pdata$z900_translate_addr DD imagerel $LN99
	DD	imagerel $LN99+5226
	DD	imagerel $unwind$z900_translate_addr
pdata	ENDS
;	COMDAT pdata
pdata	SEGMENT
$pdata$s370_purge_tlb_all DD imagerel $LN21
	DD	imagerel $LN21+432
	DD	imagerel $unwind$s370_purge_tlb_all
pdata	ENDS
;	COMDAT pdata
pdata	SEGMENT
$pdata$s370_purge_tlbe_all DD imagerel $LN21
	DD	imagerel $LN21+453
	DD	imagerel $unwind$s370_purge_tlbe_all
pdata	ENDS
;	COMDAT pdata
pdata	SEGMENT
$pdata$s370_authorize_asn DD imagerel $LN12
	DD	imagerel $LN12+492
	DD	imagerel $unwind$s370_authorize_asn
pdata	ENDS
;	COMDAT pdata
pdata	SEGMENT
$pdata$s370_maddr_l DD imagerel $LN14
	DD	imagerel $LN14+474
	DD	imagerel $unwind$s370_maddr_l
pdata	ENDS
;	COMDAT pdata
pdata	SEGMENT
$pdata$s370_vstore2_full DD imagerel $LN3
	DD	imagerel $LN3+204
	DD	imagerel $unwind$s370_vstore2_full
pdata	ENDS
;	COMDAT pdata
pdata	SEGMENT
$pdata$s370_vfetch2_full DD imagerel $LN3
	DD	imagerel $LN3+174
	DD	imagerel $unwind$s370_vfetch2_full
pdata	ENDS
;	COMDAT pdata
pdata	SEGMENT
$pdata$s370_vstore2 DD imagerel $LN24
	DD	imagerel $LN24+267
	DD	imagerel $unwind$s370_vstore2
pdata	ENDS
;	COMDAT pdata
pdata	SEGMENT
$pdata$s370_vfetch2 DD imagerel $LN26
	DD	imagerel $LN26+275
	DD	imagerel $unwind$s370_vfetch2
pdata	ENDS
pdata	SEGMENT
$pdata$s370_load_address_space_designator DD imagerel $LN19
	DD	imagerel $LN19+516
	DD	imagerel $unwind$s370_load_address_space_designator
pdata	ENDS
;	COMDAT pdata
pdata	SEGMENT
$pdata$s390__get_storage_key DD imagerel $LN8
	DD	imagerel $LN8+107
	DD	imagerel $unwind$s390__get_storage_key
pdata	ENDS
;	COMDAT pdata
pdata	SEGMENT
$pdata$s390__or_storage_key DD imagerel $LN8
	DD	imagerel $LN8+159
	DD	imagerel $unwind$s390__or_storage_key
pdata	ENDS
;	COMDAT pdata
pdata	SEGMENT
$pdata$s390_get_ptr_to_4K_storekey DD imagerel $LN3
	DD	imagerel $LN3+26
	DD	imagerel $unwind$s390_get_ptr_to_4K_storekey
pdata	ENDS
;	COMDAT pdata
pdata	SEGMENT
$pdata$s390_get_4K_storage_key DD imagerel $LN3
	DD	imagerel $LN3+32
	DD	imagerel $unwind$s390_get_4K_storage_key
pdata	ENDS
;	COMDAT pdata
pdata	SEGMENT
$pdata$s390_or_4K_storage_key DD imagerel $LN3
	DD	imagerel $LN3+42
	DD	imagerel $unwind$s390_or_4K_storage_key
pdata	ENDS
;	COMDAT pdata
pdata	SEGMENT
$pdata$s390_or_storage_key DD imagerel $LN3
	DD	imagerel $LN3+33
	DD	imagerel $unwind$s390_or_storage_key
pdata	ENDS
;	COMDAT pdata
pdata	SEGMENT
$pdata$s390_get_ptr_to_storekey DD imagerel $LN3
	DD	imagerel $LN3+24
	DD	imagerel $unwind$s390_get_ptr_to_storekey
pdata	ENDS
;	COMDAT pdata
pdata	SEGMENT
$pdata$s390_get_storekey_by_ptr DD imagerel $LN3
	DD	imagerel $LN3+58
	DD	imagerel $unwind$s390_get_storekey_by_ptr
pdata	ENDS
;	COMDAT pdata
pdata	SEGMENT
$pdata$s390_or_storage_key_by_ptr DD imagerel $LN3
	DD	imagerel $LN3+67
	DD	imagerel $unwind$s390_or_storage_key_by_ptr
pdata	ENDS
;	COMDAT pdata
pdata	SEGMENT
$pdata$s390_is_fetch_protected DD imagerel $LN16
	DD	imagerel $LN16+244
	DD	imagerel $unwind$s390_is_fetch_protected
pdata	ENDS
;	COMDAT pdata
pdata	SEGMENT
$pdata$s390_is_store_protected DD imagerel $LN9
	DD	imagerel $LN9+230
	DD	imagerel $unwind$s390_is_store_protected
pdata	ENDS
;	COMDAT pdata
pdata	SEGMENT
$pdata$s390_fetch_main_absolute DD imagerel $LN9
	DD	imagerel $LN9+284
	DD	imagerel $unwind$s390_fetch_main_absolute
pdata	ENDS
;	COMDAT pdata
pdata	SEGMENT
$pdata$s390_fetch_fullword_absolute DD imagerel $LN3
	DD	imagerel $LN3+49
	DD	imagerel $unwind$s390_fetch_fullword_absolute
pdata	ENDS
pdata	SEGMENT
$pdata$s390_invalidate_tlb DD imagerel $LN24
	DD	imagerel $LN24+381
	DD	imagerel $unwind$s390_invalidate_tlb
$pdata$s390_invalidate_pte DD imagerel $LN11
	DD	imagerel $LN11+302
	DD	imagerel $unwind$s390_invalidate_pte
$pdata$s390_translate_alet DD imagerel $LN33
	DD	imagerel $LN33+1645
	DD	imagerel $unwind$s390_translate_alet
$pdata$s390_translate_asn DD imagerel $LN24
	DD	imagerel $LN24+900
	DD	imagerel $unwind$s390_translate_asn
pdata	ENDS
;	COMDAT pdata
pdata	SEGMENT
$pdata$s390_purge_tlb_all DD imagerel $LN21
	DD	imagerel $LN21+432
	DD	imagerel $unwind$s390_purge_tlb_all
pdata	ENDS
;	COMDAT pdata
pdata	SEGMENT
$pdata$s390_purge_tlbe_all DD imagerel $LN21
	DD	imagerel $LN21+453
	DD	imagerel $unwind$s390_purge_tlbe_all
pdata	ENDS
;	COMDAT pdata
pdata	SEGMENT
$pdata$s390_purge_alb_all DD imagerel $LN19
	DD	imagerel $LN19+319
	DD	imagerel $unwind$s390_purge_alb_all
pdata	ENDS
;	COMDAT pdata
pdata	SEGMENT
$pdata$s390_authorize_asn DD imagerel $LN14
	DD	imagerel $LN14+589
	DD	imagerel $unwind$s390_authorize_asn
pdata	ENDS
;	COMDAT pdata
pdata	SEGMENT
$pdata$s390_maddr_l DD imagerel $LN14
	DD	imagerel $LN14+474
	DD	imagerel $unwind$s390_maddr_l
pdata	ENDS
;	COMDAT pdata
pdata	SEGMENT
$pdata$s390_vstore4_full DD imagerel $LN3
	DD	imagerel $LN3+321
	DD	imagerel $unwind$s390_vstore4_full
pdata	ENDS
;	COMDAT pdata
pdata	SEGMENT
$pdata$s390_vfetch4_full DD imagerel $LN3
	DD	imagerel $LN3+296
	DD	imagerel $unwind$s390_vfetch4_full
pdata	ENDS
;	COMDAT pdata
pdata	SEGMENT
$pdata$s390_vstore4 DD imagerel $LN12
	DD	imagerel $LN12+200
	DD	imagerel $unwind$s390_vstore4
pdata	ENDS
;	COMDAT pdata
pdata	SEGMENT
$pdata$s390_vfetch4 DD imagerel $LN11
	DD	imagerel $LN11+186
	DD	imagerel $unwind$s390_vfetch4
pdata	ENDS
pdata	SEGMENT
$pdata$s390_load_address_space_designator DD imagerel $LN33
	DD	imagerel $LN33+1636
	DD	imagerel $unwind$s390_load_address_space_designator
$pdata$s390_check_sa_per2 DD imagerel s390_check_sa_per2
	DD	imagerel s390_check_sa_per2+166
	DD	imagerel $unwind$s390_check_sa_per2
pdata	ENDS
;	COMDAT pdata
pdata	SEGMENT
$pdata$z900__get_storage_key DD imagerel $LN8
	DD	imagerel $LN8+107
	DD	imagerel $unwind$z900__get_storage_key
pdata	ENDS
;	COMDAT pdata
pdata	SEGMENT
$pdata$z900__or_storage_key DD imagerel $LN8
	DD	imagerel $LN8+159
	DD	imagerel $unwind$z900__or_storage_key
pdata	ENDS
;	COMDAT pdata
pdata	SEGMENT
$pdata$z900_get_ptr_to_4K_storekey DD imagerel $LN3
	DD	imagerel $LN3+26
	DD	imagerel $unwind$z900_get_ptr_to_4K_storekey
pdata	ENDS
;	COMDAT pdata
pdata	SEGMENT
$pdata$z900_get_4K_storage_key DD imagerel $LN3
	DD	imagerel $LN3+32
	DD	imagerel $unwind$z900_get_4K_storage_key
pdata	ENDS
;	COMDAT pdata
pdata	SEGMENT
$pdata$z900_or_4K_storage_key DD imagerel $LN3
	DD	imagerel $LN3+42
	DD	imagerel $unwind$z900_or_4K_storage_key
pdata	ENDS
;	COMDAT pdata
pdata	SEGMENT
$pdata$z900_or_storage_key DD imagerel $LN3
	DD	imagerel $LN3+33
	DD	imagerel $unwind$z900_or_storage_key
pdata	ENDS
;	COMDAT pdata
pdata	SEGMENT
$pdata$z900_get_ptr_to_storekey DD imagerel $LN3
	DD	imagerel $LN3+24
	DD	imagerel $unwind$z900_get_ptr_to_storekey
pdata	ENDS
;	COMDAT pdata
pdata	SEGMENT
$pdata$z900_get_storekey_by_ptr DD imagerel $LN3
	DD	imagerel $LN3+58
	DD	imagerel $unwind$z900_get_storekey_by_ptr
pdata	ENDS
;	COMDAT pdata
pdata	SEGMENT
$pdata$z900_or_storage_key_by_ptr DD imagerel $LN3
	DD	imagerel $LN3+67
	DD	imagerel $unwind$z900_or_storage_key_by_ptr
pdata	ENDS
;	COMDAT pdata
pdata	SEGMENT
$pdata$z900_is_fetch_protected DD imagerel $LN16
	DD	imagerel $LN16+252
	DD	imagerel $unwind$z900_is_fetch_protected
pdata	ENDS
;	COMDAT pdata
pdata	SEGMENT
$pdata$z900_is_store_protected DD imagerel $LN9
	DD	imagerel $LN9+235
	DD	imagerel $unwind$z900_is_store_protected
pdata	ENDS
;	COMDAT pdata
pdata	SEGMENT
$pdata$z900_fetch_main_absolute DD imagerel $LN7
	DD	imagerel $LN7+185
	DD	imagerel $unwind$z900_fetch_main_absolute
pdata	ENDS
;	COMDAT pdata
pdata	SEGMENT
$pdata$z900_fetch_doubleword_absolute DD imagerel $LN3
	DD	imagerel $LN3+50
	DD	imagerel $unwind$z900_fetch_doubleword_absolute
pdata	ENDS
;	COMDAT pdata
pdata	SEGMENT
$pdata$z900_fetch_fullword_absolute DD imagerel $LN3
	DD	imagerel $LN3+49
	DD	imagerel $unwind$z900_fetch_fullword_absolute
pdata	ENDS
pdata	SEGMENT
$pdata$z900_invalidate_tlb DD imagerel $LN24
	DD	imagerel $LN24+381
	DD	imagerel $unwind$z900_invalidate_tlb
$pdata$z900_invalidate_pte DD imagerel $LN10
	DD	imagerel $LN10+244
	DD	imagerel $unwind$z900_invalidate_pte
$pdata$z900_translate_alet DD imagerel $LN31
	DD	imagerel $LN31+1495
	DD	imagerel $unwind$z900_translate_alet
$pdata$z900_translate_asn DD imagerel $LN18
	DD	imagerel $LN18+694
	DD	imagerel $unwind$z900_translate_asn
pdata	ENDS
;	COMDAT pdata
pdata	SEGMENT
$pdata$z900_purge_tlb_all DD imagerel $LN21
	DD	imagerel $LN21+432
	DD	imagerel $unwind$z900_purge_tlb_all
pdata	ENDS
;	COMDAT pdata
pdata	SEGMENT
$pdata$z900_purge_tlbe_all DD imagerel $LN21
	DD	imagerel $LN21+453
	DD	imagerel $unwind$z900_purge_tlbe_all
pdata	ENDS
;	COMDAT pdata
pdata	SEGMENT
$pdata$z900_purge_alb_all DD imagerel $LN19
	DD	imagerel $LN19+319
	DD	imagerel $unwind$z900_purge_alb_all
pdata	ENDS
;	COMDAT pdata
pdata	SEGMENT
$pdata$z900_authorize_asn DD imagerel $LN12
	DD	imagerel $LN12+495
	DD	imagerel $unwind$z900_authorize_asn
pdata	ENDS
;	COMDAT pdata
pdata	SEGMENT
$pdata$z900_maddr_l DD imagerel $LN18
	DD	imagerel $LN18+657
	DD	imagerel $unwind$z900_maddr_l
pdata	ENDS
;	COMDAT pdata
pdata	SEGMENT
$pdata$z900_vstore8_full DD imagerel $LN3
	DD	imagerel $LN3+375
	DD	imagerel $unwind$z900_vstore8_full
pdata	ENDS
;	COMDAT pdata
pdata	SEGMENT
$pdata$z900_vfetch8_full DD imagerel $LN3
	DD	imagerel $LN3+307
	DD	imagerel $unwind$z900_vfetch8_full
pdata	ENDS
;	COMDAT pdata
pdata	SEGMENT
$pdata$z900_vstore8 DD imagerel $LN9
	DD	imagerel $LN9+174
	DD	imagerel $unwind$z900_vstore8
pdata	ENDS
;	COMDAT pdata
pdata	SEGMENT
$pdata$z900_vfetch8 DD imagerel $LN8
	DD	imagerel $LN8+157
	DD	imagerel $unwind$z900_vfetch8
pdata	ENDS
pdata	SEGMENT
$pdata$z900_load_address_space_designator DD imagerel $LN33
	DD	imagerel $LN33+1667
	DD	imagerel $unwind$z900_load_address_space_designator
$pdata$z900_check_sa_per2 DD imagerel z900_check_sa_per2
	DD	imagerel z900_check_sa_per2+169
	DD	imagerel $unwind$z900_check_sa_per2
pdata	ENDS
_DATA	SEGMENT
$SG169583 DB	'dat.c:73', 00H
	ORG $+7
$SG169584 DB	'PGM IA+-sie', 00H
	ORG $+4
$SG180312 DB	'C:\papa\MyGit\hyperion-zvector\dat.c:73', 00H
$SG180313 DB	'PGM IA+-sie', 00H
	ORG $+4
$SG194037 DB	'C:\papa\MyGit\hyperion-zvector\dat.c:73', 00H
$SG194038 DB	'PGM IA+-sie', 00H
_DATA	ENDS
;	COMDAT xdata
xdata	SEGMENT
$unwind$z900_vfetch8 DD 011201H
	DD	08212H
xdata	ENDS
;	COMDAT xdata
xdata	SEGMENT
$unwind$z900_vstore8 DD 011801H
	DD	08218H
xdata	ENDS
;	COMDAT voltbl
voltbl	SEGMENT
_volmd	DW	01eH
	DW	011fH
voltbl	ENDS
;	COMDAT xdata
xdata	SEGMENT
$unwind$z900_vfetch8_full DD 032319H
	DD	07010c214H
	DD	0600fH
	DD	imagerel __GSHandlerCheck
	DD	050H
xdata	ENDS
;	COMDAT voltbl
voltbl	SEGMENT
_volmd	DW	024H
	DW	0163H
voltbl	ENDS
;	COMDAT xdata
xdata	SEGMENT
$unwind$z900_vstore8_full DD 032919H
	DD	07016c21aH
	DD	06015H
	DD	imagerel __GSHandlerCheck
	DD	058H
xdata	ENDS
;	COMDAT xdata
xdata	SEGMENT
$unwind$z900_maddr_l DD 011801H
	DD	0a218H
xdata	ENDS
;	COMDAT xdata
xdata	SEGMENT
$unwind$z900_authorize_asn DD 011801H
	DD	0a218H
xdata	ENDS
;	COMDAT xdata
xdata	SEGMENT
$unwind$z900_purge_alb_all DD 010901H
	DD	08209H
xdata	ENDS
;	COMDAT xdata
xdata	SEGMENT
$unwind$z900_purge_tlbe_all DD 011401H
	DD	08214H
xdata	ENDS
;	COMDAT xdata
xdata	SEGMENT
$unwind$z900_purge_tlb_all DD 010e01H
	DD	0820eH
xdata	ENDS
;	COMDAT xdata
xdata	SEGMENT
$unwind$z900_fetch_fullword_absolute DD 010e01H
	DD	0420eH
xdata	ENDS
;	COMDAT xdata
xdata	SEGMENT
$unwind$z900_fetch_doubleword_absolute DD 010e01H
	DD	0420eH
xdata	ENDS
;	COMDAT xdata
xdata	SEGMENT
$unwind$z900_fetch_main_absolute DD 010e01H
	DD	0620eH
xdata	ENDS
;	COMDAT xdata
xdata	SEGMENT
$unwind$z900_is_store_protected DD 011701H
	DD	04217H
xdata	ENDS
;	COMDAT xdata
xdata	SEGMENT
$unwind$z900_is_fetch_protected DD 011701H
	DD	02217H
xdata	ENDS
;	COMDAT xdata
xdata	SEGMENT
$unwind$z900_or_storage_key_by_ptr DD 010d01H
	DD	0620dH
xdata	ENDS
;	COMDAT xdata
xdata	SEGMENT
$unwind$z900_get_storekey_by_ptr DD 010901H
	DD	06209H
xdata	ENDS
;	COMDAT xdata
xdata	SEGMENT
$unwind$z900_get_ptr_to_storekey DD 010901H
	DD	04209H
xdata	ENDS
;	COMDAT xdata
xdata	SEGMENT
$unwind$z900_or_storage_key DD 010d01H
	DD	0420dH
xdata	ENDS
;	COMDAT xdata
xdata	SEGMENT
$unwind$z900_or_4K_storage_key DD 010d01H
	DD	0420dH
xdata	ENDS
;	COMDAT xdata
xdata	SEGMENT
$unwind$z900_get_4K_storage_key DD 010901H
	DD	04209H
xdata	ENDS
;	COMDAT xdata
xdata	SEGMENT
$unwind$z900_get_ptr_to_4K_storekey DD 010901H
	DD	04209H
xdata	ENDS
;	COMDAT xdata
xdata	SEGMENT
$unwind$z900__or_storage_key DD 011201H
	DD	08212H
xdata	ENDS
;	COMDAT xdata
xdata	SEGMENT
$unwind$z900__get_storage_key DD 010d01H
	DD	0620dH
xdata	ENDS
;	COMDAT xdata
xdata	SEGMENT
$unwind$s390_vfetch4 DD 011101H
	DD	08211H
xdata	ENDS
;	COMDAT xdata
xdata	SEGMENT
$unwind$s390_vstore4 DD 011601H
	DD	08216H
xdata	ENDS
;	COMDAT voltbl
voltbl	SEGMENT
_volmd	DW	01dH
	DW	0114H
voltbl	ENDS
;	COMDAT xdata
xdata	SEGMENT
$unwind$s390_vfetch4_full DD 032219H
	DD	0700fa213H
	DD	0600eH
	DD	imagerel __GSHandlerCheck
	DD	048H
xdata	ENDS
;	COMDAT xdata
xdata	SEGMENT
$unwind$s390_vstore4_full DD 031801H
	DD	07014a218H
	DD	06013H
xdata	ENDS
;	COMDAT xdata
xdata	SEGMENT
$unwind$s390_maddr_l DD 011701H
	DD	0a217H
xdata	ENDS
;	COMDAT xdata
xdata	SEGMENT
$unwind$s390_authorize_asn DD 011801H
	DD	0a218H
xdata	ENDS
;	COMDAT xdata
xdata	SEGMENT
$unwind$s390_purge_alb_all DD 010901H
	DD	08209H
xdata	ENDS
;	COMDAT xdata
xdata	SEGMENT
$unwind$s390_purge_tlbe_all DD 011401H
	DD	08214H
xdata	ENDS
;	COMDAT xdata
xdata	SEGMENT
$unwind$s390_purge_tlb_all DD 010e01H
	DD	0820eH
xdata	ENDS
voltbl	SEGMENT
_volmd	DD	0ffffffffH
	DDSymXIndex: 	FLAT:z900_load_address_space_designator
	DD	01fH
	DD	066bH
_volmd	DD	0ffffffffH
	DDSymXIndex: 	FLAT:z900_translate_alet
	DD	024H
	DD	05c2H
_volmd	DD	0ffffffffH
	DDSymXIndex: 	FLAT:s390_load_address_space_designator
	DD	01fH
	DD	064cH
_volmd	DD	0ffffffffH
	DDSymXIndex: 	FLAT:s390_translate_alet
	DD	021H
	DD	065bH
voltbl	ENDS
;	COMDAT xdata
xdata	SEGMENT
$unwind$s390_fetch_fullword_absolute DD 010e01H
	DD	0420eH
xdata	ENDS
;	COMDAT xdata
xdata	SEGMENT
$unwind$s390_fetch_main_absolute DD 010e01H
	DD	0820eH
xdata	ENDS
;	COMDAT xdata
xdata	SEGMENT
$unwind$s390_is_store_protected DD 011601H
	DD	04216H
xdata	ENDS
;	COMDAT xdata
xdata	SEGMENT
$unwind$s390_is_fetch_protected DD 011601H
	DD	02216H
xdata	ENDS
;	COMDAT xdata
xdata	SEGMENT
$unwind$s390_or_storage_key_by_ptr DD 010d01H
	DD	0620dH
xdata	ENDS
;	COMDAT xdata
xdata	SEGMENT
$unwind$s390_get_storekey_by_ptr DD 010901H
	DD	06209H
xdata	ENDS
;	COMDAT xdata
xdata	SEGMENT
$unwind$s390_get_ptr_to_storekey DD 010901H
	DD	04209H
xdata	ENDS
;	COMDAT xdata
xdata	SEGMENT
$unwind$s390_or_storage_key DD 010d01H
	DD	0420dH
xdata	ENDS
;	COMDAT xdata
xdata	SEGMENT
$unwind$s390_or_4K_storage_key DD 010d01H
	DD	0420dH
xdata	ENDS
;	COMDAT xdata
xdata	SEGMENT
$unwind$s390_get_4K_storage_key DD 010901H
	DD	04209H
xdata	ENDS
;	COMDAT xdata
xdata	SEGMENT
$unwind$s390_get_ptr_to_4K_storekey DD 010901H
	DD	04209H
xdata	ENDS
;	COMDAT xdata
xdata	SEGMENT
$unwind$s390__or_storage_key DD 011201H
	DD	08212H
xdata	ENDS
;	COMDAT xdata
xdata	SEGMENT
$unwind$s390__get_storage_key DD 010d01H
	DD	0620dH
xdata	ENDS
;	COMDAT xdata
xdata	SEGMENT
$unwind$s370_vfetch2 DD 011101H
	DD	0a211H
xdata	ENDS
;	COMDAT xdata
xdata	SEGMENT
$unwind$s370_vstore2 DD 011701H
	DD	0a217H
xdata	ENDS
;	COMDAT xdata
xdata	SEGMENT
$unwind$s370_vfetch2_full DD 011101H
	DD	08211H
xdata	ENDS
;	COMDAT xdata
xdata	SEGMENT
$unwind$s370_vstore2_full DD 011701H
	DD	0a217H
xdata	ENDS
;	COMDAT xdata
xdata	SEGMENT
$unwind$s370_maddr_l DD 011701H
	DD	0a217H
xdata	ENDS
;	COMDAT xdata
xdata	SEGMENT
$unwind$s370_authorize_asn DD 011801H
	DD	0a218H
xdata	ENDS
;	COMDAT xdata
xdata	SEGMENT
$unwind$s370_purge_tlbe_all DD 011401H
	DD	08214H
xdata	ENDS
;	COMDAT xdata
xdata	SEGMENT
$unwind$s370_purge_tlb_all DD 010e01H
	DD	0820eH
xdata	ENDS
;	COMDAT xdata
xdata	SEGMENT
$unwind$s370_fetch_halfword_absolute DD 010e01H
	DD	0420eH
xdata	ENDS
;	COMDAT xdata
xdata	SEGMENT
$unwind$s370_fetch_fullword_absolute DD 010e01H
	DD	0420eH
xdata	ENDS
;	COMDAT xdata
xdata	SEGMENT
$unwind$s370_fetch_main_absolute DD 010e01H
	DD	0620eH
xdata	ENDS
;	COMDAT xdata
xdata	SEGMENT
$unwind$s370_is_store_protected DD 011601H
	DD	04216H
xdata	ENDS
;	COMDAT xdata
xdata	SEGMENT
$unwind$s370_is_fetch_protected DD 011601H
	DD	02216H
xdata	ENDS
;	COMDAT xdata
xdata	SEGMENT
$unwind$s370_or_storage_key_by_ptr DD 010d01H
	DD	0620dH
xdata	ENDS
;	COMDAT xdata
xdata	SEGMENT
$unwind$s370_get_storekey_by_ptr DD 010901H
	DD	06209H
xdata	ENDS
;	COMDAT xdata
xdata	SEGMENT
$unwind$s370_get_ptr_to_storekey DD 010901H
	DD	04209H
xdata	ENDS
;	COMDAT xdata
xdata	SEGMENT
$unwind$s370_or_storage_key DD 010d01H
	DD	0420dH
xdata	ENDS
;	COMDAT xdata
xdata	SEGMENT
$unwind$s370_or_2K_storage_key DD 010d01H
	DD	0420dH
xdata	ENDS
;	COMDAT xdata
xdata	SEGMENT
$unwind$s370_get_2K_storage_key DD 010901H
	DD	04209H
xdata	ENDS
;	COMDAT xdata
xdata	SEGMENT
$unwind$s370_get_ptr_to_2K_storekey DD 010901H
	DD	04209H
xdata	ENDS
;	COMDAT xdata
xdata	SEGMENT
$unwind$s370__or_storage_key DD 011201H
	DD	08212H
xdata	ENDS
;	COMDAT xdata
xdata	SEGMENT
$unwind$s370__get_storage_key DD 010d01H
	DD	0620dH
xdata	ENDS
;	COMDAT xdata
xdata	SEGMENT
$unwind$_get_storekey_ptr DD 010d01H
	DD	0220dH
xdata	ENDS
;	COMDAT xdata
xdata	SEGMENT
$unwind$z900_purge_alb DD 010901H
	DD	06209H
xdata	ENDS
;	COMDAT xdata
xdata	SEGMENT
$unwind$s390_purge_alb DD 010901H
	DD	06209H
xdata	ENDS
;	COMDAT xdata
xdata	SEGMENT
$unwind$z900_purge_tlb DD 010901H
	DD	06209H
xdata	ENDS
;	COMDAT xdata
xdata	SEGMENT
$unwind$s390_purge_tlb DD 010901H
	DD	06209H
xdata	ENDS
;	COMDAT xdata
xdata	SEGMENT
$unwind$s370_purge_tlb DD 010901H
	DD	06209H
xdata	ENDS
xdata	SEGMENT
$unwind$s370_set_ic_mask DD 010901H
	DD	06209H
$unwind$s390_set_ic_mask DD 010901H
	DD	04209H
$unwind$z900_set_ic_mask DD 010901H
	DD	06209H
$unwind$s370_set_aea_mode DD 010901H
	DD	08209H
$unwind$s390_set_aea_mode DD 010901H
	DD	08209H
$unwind$z900_set_aea_mode DD 010901H
	DD	08209H
$unwind$s370_invalidate_guest_aia DD 010901H
	DD	06209H
$unwind$s390_invalidate_guest_aia DD 010901H
	DD	06209H
$unwind$z900_invalidate_guest_aia DD 010901H
	DD	06209H
$unwind$s370_set_guest_ic_mask DD 010901H
	DD	06209H
$unwind$s390_set_guest_ic_mask DD 010901H
	DD	06209H
$unwind$z900_set_guest_ic_mask DD 010901H
	DD	06209H
$unwind$s370_set_guest_aea_mode DD 010901H
	DD	06209H
$unwind$s390_set_guest_aea_mode DD 010901H
	DD	06209H
$unwind$z900_set_guest_aea_mode DD 010901H
	DD	06209H
$unwind$s370_set_aea_common DD 010901H
	DD	02209H
$unwind$s390_set_aea_common DD 010901H
	DD	02209H
$unwind$z900_set_aea_common DD 010901H
	DD	02209H
$unwind$s370_set_guest_aea_common DD 010901H
	DD	06209H
$unwind$s390_set_guest_aea_common DD 010901H
	DD	06209H
$unwind$z900_set_guest_aea_common DD 010901H
	DD	06209H
$unwind$s370_do_purge_tlb DD 020a01H
	DD	07006120aH
$unwind$s390_do_purge_tlb DD 020a01H
	DD	07006120aH
$unwind$z900_do_purge_tlb DD 020a01H
	DD	07006120aH
$unwind$s390_do_purge_alb DD 010901H
	DD	02209H
$unwind$z900_do_purge_alb DD 010901H
	DD	02209H
$unwind$s370_do_invalidate_tlb DD 020e01H
	DD	0700a120eH
$unwind$s390_do_invalidate_tlb DD 020e01H
	DD	0700a120eH
$unwind$z900_do_invalidate_tlb DD 020e01H
	DD	0700a120eH
$unwind$s370_is_tlbe_match DD 011801H
	DD	0a218H
$unwind$s390_is_tlbe_match DD 011801H
	DD	08218H
$unwind$z900_is_tlbe_match DD 011801H
	DD	08218H
$unwind$s370_do_purge_tlbe DD 011301H
	DD	06213H
$unwind$s390_do_purge_tlbe DD 011301H
	DD	06213H
$unwind$z900_do_purge_tlbe DD 011301H
	DD	06213H
$unwind$s370_purge_tlbe DD 010e01H
	DD	0820eH
$unwind$s390_purge_tlbe DD 010e01H
	DD	0820eH
$unwind$z900_purge_tlbe DD 010e01H
	DD	0820eH
$unwind$s370_do_invalidate_tlbe DD 010e01H
	DD	0820eH
$unwind$s390_do_invalidate_tlbe DD 010e01H
	DD	0820eH
$unwind$z900_do_invalidate_tlbe DD 010e01H
	DD	0820eH
$unwind$s370_invalidate_tlbe DD 010e01H
	DD	0820eH
$unwind$s390_invalidate_tlbe DD 010e01H
	DD	0820eH
$unwind$z900_invalidate_tlbe DD 010e01H
	DD	0820eH
$unwind$apply_host_prefixing DD 010e01H
	DD	0620eH
$unwind$s370_update_psw_ia DD 010d01H
	DD	0820dH
$unwind$s390_update_psw_ia DD 010d01H
	DD	0820dH
$unwind$z900_update_psw_ia DD 010d01H
	DD	0820dH
$unwind$s370_update_guest_psw_ia DD 010d01H
	DD	0620dH
$unwind$s390_update_guest_psw_ia DD 010d01H
	DD	0620dH
$unwind$z900_update_guest_psw_ia DD 010d01H
	DD	0620dH
$unwind$s370_logical_to_main_l DD 021901H
	DD	0110119H
$unwind$s390_logical_to_main_l DD 021901H
	DD	0130119H
$unwind$z900_logical_to_main_l DD 021a01H
	DD	013011aH
$unwind$s370_invalidate_tlb DD 010d01H
	DD	0820dH
$unwind$s370_invalidate_pte DD 011701H
	DD	0a217H
$unwind$s370_translate_asn DD 011801H
	DD	0a218H
$unwind$s370_translate_addr DD 021901H
	DD	0110119H
$unwind$s390_translate_addr DD 011601H
	DD	0e216H
$unwind$z900_translate_addr DD 021a01H
	DD	013011aH
$unwind$s370_load_address_space_designator DD 011201H
	DD	02212H
$unwind$s390_invalidate_tlb DD 010d01H
	DD	0820dH
$unwind$s390_invalidate_pte DD 011701H
	DD	08217H
$unwind$s390_translate_alet DD 012619H
	DD	0e217H
	DD	imagerel __GSHandlerCheck
	DD	068H
$unwind$s390_translate_asn DD 011801H
	DD	0a218H
$unwind$s390_load_address_space_designator DD 022719H
	DD	0150115H
	DD	imagerel __GSHandlerCheck
	DD	090H
$unwind$s390_check_sa_per2 DD 011101H
	DD	02211H
$unwind$z900_invalidate_tlb DD 010d01H
	DD	0820dH
$unwind$z900_invalidate_pte DD 011701H
	DD	08217H
$unwind$z900_translate_alet DD 022919H
	DD	011011aH
	DD	imagerel __GSHandlerCheck
	DD	078H
$unwind$z900_translate_asn DD 011801H
	DD	0a218H
$unwind$z900_load_address_space_designator DD 022719H
	DD	0150115H
	DD	imagerel __GSHandlerCheck
	DD	090H
$unwind$z900_check_sa_per2 DD 011101H
	DD	02211H
xdata	ENDS
;	COMDAT xdata
xdata	SEGMENT
$unwind$fetch_dw_noswap DD 010901H
	DD	02209H
xdata	ENDS
;	COMDAT xdata
xdata	SEGMENT
$unwind$fetch_fw_noswap DD 010901H
	DD	02209H
xdata	ENDS
;	COMDAT xdata
xdata	SEGMENT
$unwind$fetch_hw_noswap DD 010901H
	DD	02209H
xdata	ENDS
; Function compile flags: /Odtp
; File C:\papa\MyGit\hyperion-zvector\dat.c
_TEXT	SEGMENT
tv77 = 0
arn$ = 32
acctype$ = 40
regs$ = 48
z900_check_sa_per2 PROC

; 2302 : {

  00000	4c 89 44 24 18	 mov	 QWORD PTR [rsp+24], r8
  00005	89 54 24 10	 mov	 DWORD PTR [rsp+16], edx
  00009	89 4c 24 08	 mov	 DWORD PTR [rsp+8], ecx
  0000d	48 83 ec 18	 sub	 rsp, 24
$LN4@z900_check:

; 2303 :     UNREFERENCED( acctype );

  00011	33 c0		 xor	 eax, eax
  00013	85 c0		 test	 eax, eax
  00015	75 fa		 jne	 SHORT $LN4@z900_check

; 2304 : 
; 2305 :     if (0
; 2306 :         || (regs->dat.asd & SAEVENT_BIT)
; 2307 :         || !(regs->CR(9) & CR9_SAC)

  00017	33 c0		 xor	 eax, eax
  00019	85 c0		 test	 eax, eax
  0001b	75 38		 jne	 SHORT $LN6@z900_check
  0001d	48 8b 44 24 30	 mov	 rax, QWORD PTR regs$[rsp]
  00022	48 8b 80 18 08
	00 00		 mov	 rax, QWORD PTR [rax+2072]
  00029	48 25 80 00 00
	00		 and	 rax, 128		; 00000080H
  0002f	48 85 c0	 test	 rax, rax
  00032	75 21		 jne	 SHORT $LN6@z900_check
  00034	b8 08 00 00 00	 mov	 eax, 8
  00039	48 6b c0 0a	 imul	 rax, rax, 10
  0003d	48 8b 4c 24 30	 mov	 rcx, QWORD PTR regs$[rsp]
  00042	48 8b 84 01 00
	06 00 00	 mov	 rax, QWORD PTR [rcx+rax+1536]
  0004a	48 25 00 00 20
	00		 and	 rax, 2097152		; 00200000H
  00050	48 85 c0	 test	 rax, rax
  00053	75 4d		 jne	 SHORT $LN5@z900_check
$LN6@z900_check:

; 2308 :     )
; 2309 :     {
; 2310 :         regs->peraid = arn > 0 ? arn : 0;

  00055	83 7c 24 20 00	 cmp	 DWORD PTR arn$[rsp], 0
  0005a	7e 09		 jle	 SHORT $LN8@z900_check
  0005c	8b 44 24 20	 mov	 eax, DWORD PTR arn$[rsp]
  00060	89 04 24	 mov	 DWORD PTR tv77[rsp], eax
  00063	eb 07		 jmp	 SHORT $LN9@z900_check
$LN8@z900_check:
  00065	c7 04 24 00 00
	00 00		 mov	 DWORD PTR tv77[rsp], 0
$LN9@z900_check:
  0006c	48 8b 44 24 30	 mov	 rax, QWORD PTR regs$[rsp]
  00071	0f b6 0c 24	 movzx	 ecx, BYTE PTR tv77[rsp]
  00075	88 88 e0 08 00
	00		 mov	 BYTE PTR [rax+2272], cl

; 2311 :         regs->perc |= regs->dat.stid;

  0007b	48 8b 44 24 30	 mov	 rax, QWORD PTR regs$[rsp]
  00080	0f b7 80 d0 08
	00 00		 movzx	 eax, WORD PTR [rax+2256]
  00087	48 8b 4c 24 30	 mov	 rcx, QWORD PTR regs$[rsp]
  0008c	0b 81 20 08 00
	00		 or	 eax, DWORD PTR [rcx+2080]
  00092	48 8b 4c 24 30	 mov	 rcx, QWORD PTR regs$[rsp]
  00097	66 89 81 d0 08
	00 00		 mov	 WORD PTR [rcx+2256], ax

; 2312 :         return true;

  0009e	b0 01		 mov	 al, 1
  000a0	eb 02		 jmp	 SHORT $LN1@z900_check
$LN5@z900_check:

; 2313 :     }
; 2314 :     return false;

  000a2	32 c0		 xor	 al, al
$LN1@z900_check:

; 2315 : }

  000a4	48 83 c4 18	 add	 rsp, 24
  000a8	c3		 ret	 0
z900_check_sa_per2 ENDP
_TEXT	ENDS
; Function compile flags: /Odtp
; File C:\papa\MyGit\hyperion-zvector\dat.c
_TEXT	SEGMENT
tv64 = 48
eax$ = 52
tv68 = 56
tv147 = 60
tv148 = 64
alet$ = 68
tv249 = 72
asteo$ = 76
aste$ = 80
__$ArrayPad$ = 144
arn$ = 176
regs$ = 184
acctype$ = 192
z900_load_address_space_designator PROC

; 670  : {

$LN33:
  00000	44 89 44 24 18	 mov	 DWORD PTR [rsp+24], r8d
  00005	48 89 54 24 10	 mov	 QWORD PTR [rsp+16], rdx
  0000a	89 4c 24 08	 mov	 DWORD PTR [rsp+8], ecx
  0000e	48 81 ec a8 00
	00 00		 sub	 rsp, 168		; 000000a8H
  00015	48 8b 05 00 00
	00 00		 mov	 rax, QWORD PTR __security_cookie
  0001c	48 33 c4	 xor	 rax, rsp
  0001f	48 89 84 24 90
	00 00 00	 mov	 QWORD PTR __$ArrayPad$[rsp], rax

; 671  : #if defined( FEATURE_ACCESS_REGISTERS )
; 672  : U32     alet;                           /* Access list entry token   */
; 673  : U32     asteo;                          /* Real address of ASTE      */
; 674  : U32     aste[16];                       /* ASN second table entry    */
; 675  : U16     eax;                            /* Authorization index       */
; 676  : #else
; 677  :     UNREFERENCED( acctype );
; 678  : #endif
; 679  : 
; 680  :     switch(arn) {

  00027	8b 84 24 b0 00
	00 00		 mov	 eax, DWORD PTR arn$[rsp]
  0002e	89 44 24 30	 mov	 DWORD PTR tv64[rsp], eax
  00032	83 7c 24 30 fb	 cmp	 DWORD PTR tv64[rsp], -5
  00037	0f 84 51 01 00
	00		 je	 $LN14@z900_load_
  0003d	83 7c 24 30 fc	 cmp	 DWORD PTR tv64[rsp], -4
  00042	0f 84 07 01 00
	00		 je	 $LN13@z900_load_
  00048	83 7c 24 30 fd	 cmp	 DWORD PTR tv64[rsp], -3
  0004d	0f 84 bd 00 00
	00		 je	 $LN12@z900_load_
  00053	83 7c 24 30 fe	 cmp	 DWORD PTR tv64[rsp], -2
  00058	0f 84 6f 01 00
	00		 je	 $LN15@z900_load_
  0005e	83 7c 24 30 ff	 cmp	 DWORD PTR tv64[rsp], -1
  00063	74 05		 je	 SHORT $LN8@z900_load_
  00065	e9 8d 01 00 00	 jmp	 $LN16@z900_load_
$LN8@z900_load_:

; 681  : 
; 682  :     case USE_INST_SPACE:
; 683  :         switch(regs->AEA_AR(USE_INST_SPACE)) {

  0006a	b8 04 00 00 00	 mov	 eax, 4
  0006f	48 6b c0 04	 imul	 rax, rax, 4
  00073	48 8b 8c 24 b8
	00 00 00	 mov	 rcx, QWORD PTR regs$[rsp]
  0007b	8b 84 01 94 0c
	00 00		 mov	 eax, DWORD PTR [rcx+rax+3220]
  00082	89 44 24 38	 mov	 DWORD PTR tv68[rsp], eax
  00086	83 7c 24 38 01	 cmp	 DWORD PTR tv68[rsp], 1
  0008b	74 09		 je	 SHORT $LN9@z900_load_
  0008d	83 7c 24 38 0d	 cmp	 DWORD PTR tv68[rsp], 13
  00092	74 16		 je	 SHORT $LN10@z900_load_
  00094	eb 28		 jmp	 SHORT $LN11@z900_load_
$LN9@z900_load_:

; 684  : 
; 685  :         case 1:
; 686  :             regs->dat.stid = TEA_ST_PRIMARY;

  00096	48 8b 84 24 b8
	00 00 00	 mov	 rax, QWORD PTR regs$[rsp]
  0009e	c7 80 20 08 00
	00 00 00 00 00	 mov	 DWORD PTR [rax+2080], 0

; 687  :             break;

  000a8	eb 26		 jmp	 SHORT $LN4@z900_load_
$LN10@z900_load_:

; 688  : #if defined( FEATURE_LINKAGE_STACK )
; 689  :         case 13:
; 690  :             regs->dat.stid = TEA_ST_HOME;

  000aa	48 8b 84 24 b8
	00 00 00	 mov	 rax, QWORD PTR regs$[rsp]
  000b2	c7 80 20 08 00
	00 03 00 00 00	 mov	 DWORD PTR [rax+2080], 3

; 691  :             break;

  000bc	eb 12		 jmp	 SHORT $LN4@z900_load_
$LN11@z900_load_:

; 692  : #endif
; 693  :         default:
; 694  :             regs->dat.stid = 0;

  000be	48 8b 84 24 b8
	00 00 00	 mov	 rax, QWORD PTR regs$[rsp]
  000c6	c7 80 20 08 00
	00 00 00 00 00	 mov	 DWORD PTR [rax+2080], 0
$LN4@z900_load_:

; 695  :         } /* end switch(regs->AEA_AR(USE_INST_SPACE)) */
; 696  : 
; 697  :         regs->dat.asd = regs->CR(regs->AEA_AR(USE_INST_SPACE));

  000d0	b8 04 00 00 00	 mov	 eax, 4
  000d5	48 6b c0 04	 imul	 rax, rax, 4
  000d9	48 8b 8c 24 b8
	00 00 00	 mov	 rcx, QWORD PTR regs$[rsp]
  000e1	8b 84 01 94 0c
	00 00		 mov	 eax, DWORD PTR [rcx+rax+3220]
  000e8	ff c0		 inc	 eax
  000ea	48 98		 cdqe
  000ec	48 8b 8c 24 b8
	00 00 00	 mov	 rcx, QWORD PTR regs$[rsp]
  000f4	48 8b 94 24 b8
	00 00 00	 mov	 rdx, QWORD PTR regs$[rsp]
  000fc	48 8b 84 c2 00
	06 00 00	 mov	 rax, QWORD PTR [rdx+rax*8+1536]
  00104	48 89 81 18 08
	00 00		 mov	 QWORD PTR [rcx+2072], rax

; 698  :         break;

  0010b	e9 59 05 00 00	 jmp	 $LN2@z900_load_
$LN12@z900_load_:

; 699  : 
; 700  :     case USE_PRIMARY_SPACE:
; 701  :         regs->dat.stid = TEA_ST_PRIMARY;

  00110	48 8b 84 24 b8
	00 00 00	 mov	 rax, QWORD PTR regs$[rsp]
  00118	c7 80 20 08 00
	00 00 00 00 00	 mov	 DWORD PTR [rax+2080], 0

; 702  :         regs->dat.asd = regs->CR(1);

  00122	b8 08 00 00 00	 mov	 eax, 8
  00127	48 6b c0 02	 imul	 rax, rax, 2
  0012b	48 8b 8c 24 b8
	00 00 00	 mov	 rcx, QWORD PTR regs$[rsp]
  00133	48 8b 94 24 b8
	00 00 00	 mov	 rdx, QWORD PTR regs$[rsp]
  0013b	48 8b 84 02 00
	06 00 00	 mov	 rax, QWORD PTR [rdx+rax+1536]
  00143	48 89 81 18 08
	00 00		 mov	 QWORD PTR [rcx+2072], rax

; 703  :         break;

  0014a	e9 1a 05 00 00	 jmp	 $LN2@z900_load_
$LN13@z900_load_:

; 704  : 
; 705  :     case USE_SECONDARY_SPACE:
; 706  :         regs->dat.stid = TEA_ST_SECNDRY;

  0014f	48 8b 84 24 b8
	00 00 00	 mov	 rax, QWORD PTR regs$[rsp]
  00157	c7 80 20 08 00
	00 02 00 00 00	 mov	 DWORD PTR [rax+2080], 2

; 707  :         regs->dat.asd = regs->CR(7);

  00161	b8 08 00 00 00	 mov	 eax, 8
  00166	48 6b c0 08	 imul	 rax, rax, 8
  0016a	48 8b 8c 24 b8
	00 00 00	 mov	 rcx, QWORD PTR regs$[rsp]
  00172	48 8b 94 24 b8
	00 00 00	 mov	 rdx, QWORD PTR regs$[rsp]
  0017a	48 8b 84 02 00
	06 00 00	 mov	 rax, QWORD PTR [rdx+rax+1536]
  00182	48 89 81 18 08
	00 00		 mov	 QWORD PTR [rcx+2072], rax

; 708  :         break;

  00189	e9 db 04 00 00	 jmp	 $LN2@z900_load_
$LN14@z900_load_:

; 709  : 
; 710  :     case USE_HOME_SPACE:
; 711  :         regs->dat.stid = TEA_ST_HOME;

  0018e	48 8b 84 24 b8
	00 00 00	 mov	 rax, QWORD PTR regs$[rsp]
  00196	c7 80 20 08 00
	00 03 00 00 00	 mov	 DWORD PTR [rax+2080], 3

; 712  :         regs->dat.asd = regs->CR(13);

  001a0	b8 08 00 00 00	 mov	 eax, 8
  001a5	48 6b c0 0e	 imul	 rax, rax, 14
  001a9	48 8b 8c 24 b8
	00 00 00	 mov	 rcx, QWORD PTR regs$[rsp]
  001b1	48 8b 94 24 b8
	00 00 00	 mov	 rdx, QWORD PTR regs$[rsp]
  001b9	48 8b 84 02 00
	06 00 00	 mov	 rax, QWORD PTR [rdx+rax+1536]
  001c1	48 89 81 18 08
	00 00		 mov	 QWORD PTR [rcx+2072], rax

; 713  :         break;

  001c8	e9 9c 04 00 00	 jmp	 $LN2@z900_load_
$LN15@z900_load_:

; 714  : 
; 715  :     case USE_REAL_ADDR:
; 716  :         regs->dat.stid = 0;

  001cd	48 8b 84 24 b8
	00 00 00	 mov	 rax, QWORD PTR regs$[rsp]
  001d5	c7 80 20 08 00
	00 00 00 00 00	 mov	 DWORD PTR [rax+2080], 0

; 717  :         regs->dat.asd = TLB_REAL_ASD;

  001df	48 8b 84 24 b8
	00 00 00	 mov	 rax, QWORD PTR regs$[rsp]
  001e7	48 c7 80 18 08
	00 00 ff ff ff
	ff		 mov	 QWORD PTR [rax+2072], -1

; 718  :         break;

  001f2	e9 72 04 00 00	 jmp	 $LN2@z900_load_
$LN16@z900_load_:

; 719  : 
; 720  :     default:
; 721  : 
; 722  : #if defined( FEATURE_ACCESS_REGISTERS )
; 723  :         if (ACCESS_REGISTER_MODE(&regs->psw)
; 724  :          || (SIE_ACTIVE(regs) && MULTIPLE_CONTROLLED_DATA_SPACE(GUESTREGS))
; 725  :          || (arn >= USE_ARMODE)

  001f7	48 8b 84 24 b8
	00 00 00	 mov	 rax, QWORD PTR regs$[rsp]
  001ff	0f b6 40 7b	 movzx	 eax, BYTE PTR [rax+123]
  00203	83 f8 40	 cmp	 eax, 64			; 00000040H
  00206	74 14		 je	 SHORT $LN18@z900_load_
  00208	33 c0		 xor	 eax, eax
  0020a	85 c0		 test	 eax, eax
  0020c	75 0e		 jne	 SHORT $LN18@z900_load_
  0020e	83 bc 24 b0 00
	00 00 10	 cmp	 DWORD PTR arn$[rsp], 16
  00216	0f 8c 72 03 00
	00		 jl	 $LN17@z900_load_
$LN18@z900_load_:

; 726  :            )
; 727  :         {
; 728  :             /* Remove flags giving access register number 0-15 */
; 729  :             arn &= 0xF;

  0021c	8b 84 24 b0 00
	00 00		 mov	 eax, DWORD PTR arn$[rsp]
  00223	83 e0 0f	 and	 eax, 15
  00226	89 84 24 b0 00
	00 00		 mov	 DWORD PTR arn$[rsp], eax

; 730  : 
; 731  :             /* [5.8.4.1] Select the access-list-entry token */
; 732  :             alet = (arn == 0) ? 0 :

  0022d	83 bc 24 b0 00
	00 00 00	 cmp	 DWORD PTR arn$[rsp], 0
  00235	75 0a		 jne	 SHORT $LN29@z900_load_
  00237	c7 44 24 3c 00
	00 00 00	 mov	 DWORD PTR tv147[rsp], 0
  0023f	eb 1b		 jmp	 SHORT $LN30@z900_load_
$LN29@z900_load_:
  00241	48 63 84 24 b0
	00 00 00	 movsxd	 rax, DWORD PTR arn$[rsp]
  00249	48 8b 8c 24 b8
	00 00 00	 mov	 rcx, QWORD PTR regs$[rsp]
  00251	8b 84 81 00 03
	00 00		 mov	 eax, DWORD PTR [rcx+rax*4+768]
  00258	89 44 24 3c	 mov	 DWORD PTR tv147[rsp], eax
$LN30@z900_load_:
  0025c	8b 44 24 3c	 mov	 eax, DWORD PTR tv147[rsp]
  00260	89 44 24 44	 mov	 DWORD PTR alet$[rsp], eax

; 733  :                    /* Guest ALET if XC guest in AR mode */
; 734  :                    (SIE_ACTIVE(regs) && MULTIPLE_CONTROLLED_DATA_SPACE(GUESTREGS))
; 735  :                    ? GUESTREGS->AR(arn) :
; 736  :                    /* If SIE host but not XC guest in AR mode then alet is 0 */
; 737  :                    SIE_ACTIVE(regs) ? 0 :
; 738  :                    /* Otherwise alet is in the access register */
; 739  :                    regs->AR(arn);
; 740  : 
; 741  :             /* Use the ALET to determine the segment table origin */
; 742  :             switch (alet) {

  00264	8b 44 24 44	 mov	 eax, DWORD PTR alet$[rsp]
  00268	89 44 24 40	 mov	 DWORD PTR tv148[rsp], eax
  0026c	83 7c 24 40 00	 cmp	 DWORD PTR tv148[rsp], 0
  00271	74 09		 je	 SHORT $LN19@z900_load_
  00273	83 7c 24 40 01	 cmp	 DWORD PTR tv148[rsp], 1
  00278	74 41		 je	 SHORT $LN20@z900_load_
  0027a	eb 7e		 jmp	 SHORT $LN21@z900_load_
$LN19@z900_load_:

; 743  : 
; 744  :             case ALET_PRIMARY:
; 745  :                 /* [5.8.4.2] Obtain primary segment table designation */
; 746  :                 regs->dat.stid = TEA_ST_PRIMARY;

  0027c	48 8b 84 24 b8
	00 00 00	 mov	 rax, QWORD PTR regs$[rsp]
  00284	c7 80 20 08 00
	00 00 00 00 00	 mov	 DWORD PTR [rax+2080], 0

; 747  :                 regs->dat.asd = regs->CR(1);

  0028e	b8 08 00 00 00	 mov	 eax, 8
  00293	48 6b c0 02	 imul	 rax, rax, 2
  00297	48 8b 8c 24 b8
	00 00 00	 mov	 rcx, QWORD PTR regs$[rsp]
  0029f	48 8b 94 24 b8
	00 00 00	 mov	 rdx, QWORD PTR regs$[rsp]
  002a7	48 8b 84 02 00
	06 00 00	 mov	 rax, QWORD PTR [rdx+rax+1536]
  002af	48 89 81 18 08
	00 00		 mov	 QWORD PTR [rcx+2072], rax

; 748  :                 break;

  002b6	e9 ce 02 00 00	 jmp	 $LN6@z900_load_
$LN20@z900_load_:

; 749  : 
; 750  :             case ALET_SECONDARY:
; 751  :                 /* [5.8.4.2] Obtain secondary segment table designation */
; 752  :                 regs->dat.stid = TEA_ST_SECNDRY;

  002bb	48 8b 84 24 b8
	00 00 00	 mov	 rax, QWORD PTR regs$[rsp]
  002c3	c7 80 20 08 00
	00 02 00 00 00	 mov	 DWORD PTR [rax+2080], 2

; 753  :                 regs->dat.asd = regs->CR(7);

  002cd	b8 08 00 00 00	 mov	 eax, 8
  002d2	48 6b c0 08	 imul	 rax, rax, 8
  002d6	48 8b 8c 24 b8
	00 00 00	 mov	 rcx, QWORD PTR regs$[rsp]
  002de	48 8b 94 24 b8
	00 00 00	 mov	 rdx, QWORD PTR regs$[rsp]
  002e6	48 8b 84 02 00
	06 00 00	 mov	 rax, QWORD PTR [rdx+rax+1536]
  002ee	48 89 81 18 08
	00 00		 mov	 QWORD PTR [rcx+2072], rax

; 754  :                 break;

  002f5	e9 8f 02 00 00	 jmp	 $LN6@z900_load_
$LN21@z900_load_:

; 755  : 
; 756  :             default:
; 757  :                 /* ALB Lookup */
; 758  :                 if(regs->AEA_AR(arn) >= CR_ALB_OFFSET)

  002fa	8b 84 24 b0 00
	00 00		 mov	 eax, DWORD PTR arn$[rsp]
  00301	83 c0 05	 add	 eax, 5
  00304	48 98		 cdqe
  00306	48 8b 8c 24 b8
	00 00 00	 mov	 rcx, QWORD PTR regs$[rsp]
  0030e	83 bc 81 94 0c
	00 00 10	 cmp	 DWORD PTR [rcx+rax*4+3220], 16
  00316	0f 8c 95 00 00
	00		 jl	 $LN22@z900_load_

; 759  :                 {
; 760  :                     regs->dat.asd = regs->CR(regs->AEA_AR(arn));

  0031c	8b 84 24 b0 00
	00 00		 mov	 eax, DWORD PTR arn$[rsp]
  00323	83 c0 05	 add	 eax, 5
  00326	48 98		 cdqe
  00328	48 8b 8c 24 b8
	00 00 00	 mov	 rcx, QWORD PTR regs$[rsp]
  00330	8b 84 81 94 0c
	00 00		 mov	 eax, DWORD PTR [rcx+rax*4+3220]
  00337	ff c0		 inc	 eax
  00339	48 98		 cdqe
  0033b	48 8b 8c 24 b8
	00 00 00	 mov	 rcx, QWORD PTR regs$[rsp]
  00343	48 8b 94 24 b8
	00 00 00	 mov	 rdx, QWORD PTR regs$[rsp]
  0034b	48 8b 84 c2 00
	06 00 00	 mov	 rax, QWORD PTR [rdx+rax*8+1536]
  00353	48 89 81 18 08
	00 00		 mov	 QWORD PTR [rcx+2072], rax

; 761  :                     regs->dat.protect = regs->aea_aleprot[arn];

  0035a	48 63 84 24 b0
	00 00 00	 movsxd	 rax, DWORD PTR arn$[rsp]
  00362	48 8b 8c 24 b8
	00 00 00	 mov	 rcx, QWORD PTR regs$[rsp]
  0036a	0f b6 84 01 09
	0d 00 00	 movzx	 eax, BYTE PTR [rcx+rax+3337]
  00372	83 e0 03	 and	 eax, 3
  00375	d1 e0		 shl	 eax, 1
  00377	48 8b 8c 24 b8
	00 00 00	 mov	 rcx, QWORD PTR regs$[rsp]
  0037f	8b 89 34 08 00
	00		 mov	 ecx, DWORD PTR [rcx+2100]
  00385	83 e1 f9	 and	 ecx, -7			; fffffff9H
  00388	0b c8		 or	 ecx, eax
  0038a	8b c1		 mov	 eax, ecx
  0038c	48 8b 8c 24 b8
	00 00 00	 mov	 rcx, QWORD PTR regs$[rsp]
  00394	89 81 34 08 00
	00		 mov	 DWORD PTR [rcx+2100], eax

; 762  :                     regs->dat.stid = TEA_ST_ARMODE;

  0039a	48 8b 84 24 b8
	00 00 00	 mov	 rax, QWORD PTR regs$[rsp]
  003a2	c7 80 20 08 00
	00 01 00 00 00	 mov	 DWORD PTR [rax+2080], 1

; 763  :                 }

  003ac	e9 d8 01 00 00	 jmp	 $LN23@z900_load_
$LN22@z900_load_:

; 764  :                 else
; 765  :                 {
; 766  :                     /* Extract the extended AX from CR8 bits 0-15 (32-47) */
; 767  :                     eax = regs->CR_LHH(8);

  003b1	b8 08 00 00 00	 mov	 eax, 8
  003b6	48 6b c0 09	 imul	 rax, rax, 9
  003ba	48 8b 8c 24 b8
	00 00 00	 mov	 rcx, QWORD PTR regs$[rsp]
  003c2	0f b7 84 01 02
	06 00 00	 movzx	 eax, WORD PTR [rcx+rax+1538]
  003ca	66 89 44 24 34	 mov	 WORD PTR eax$[rsp], ax

; 768  : 
; 769  :                     /* [5.8.4.3] Perform ALET translation to obtain ASTE */
; 770  :                     if (ARCH_DEP(translate_alet) (alet, eax, acctype,

  003cf	48 8d 44 24 50	 lea	 rax, QWORD PTR aste$[rsp]
  003d4	48 89 44 24 28	 mov	 QWORD PTR [rsp+40], rax
  003d9	48 8d 44 24 4c	 lea	 rax, QWORD PTR asteo$[rsp]
  003de	48 89 44 24 20	 mov	 QWORD PTR [rsp+32], rax
  003e3	4c 8b 8c 24 b8
	00 00 00	 mov	 r9, QWORD PTR regs$[rsp]
  003eb	44 8b 84 24 c0
	00 00 00	 mov	 r8d, DWORD PTR acctype$[rsp]
  003f3	0f b7 54 24 34	 movzx	 edx, WORD PTR eax$[rsp]
  003f8	8b 4c 24 44	 mov	 ecx, DWORD PTR alet$[rsp]
  003fc	e8 00 00 00 00	 call	 z900_translate_alet
  00401	0f b7 c0	 movzx	 eax, ax
  00404	85 c0		 test	 eax, eax
  00406	74 14		 je	 SHORT $LN24@z900_load_

; 771  :                                                   regs, &asteo, aste))
; 772  :                         /* Exit if ALET translation error */
; 773  :                         return regs->dat.xcode;

  00408	48 8b 84 24 b8
	00 00 00	 mov	 rax, QWORD PTR regs$[rsp]
  00410	0f b7 80 30 08
	00 00		 movzx	 eax, WORD PTR [rax+2096]
  00417	e9 4f 02 00 00	 jmp	 $LN1@z900_load_
$LN24@z900_load_:

; 774  : 
; 775  :                     /* [5.8.4.9] Obtain the STD or ASCE from the ASTE */
; 776  :                     regs->dat.asd = ASTE_AS_DESIGNATOR(aste);

  0041c	b8 04 00 00 00	 mov	 eax, 4
  00421	48 6b c0 02	 imul	 rax, rax, 2
  00425	8b 44 04 50	 mov	 eax, DWORD PTR aste$[rsp+rax]
  00429	48 c1 e0 20	 shl	 rax, 32			; 00000020H
  0042d	b9 04 00 00 00	 mov	 ecx, 4
  00432	48 6b c9 03	 imul	 rcx, rcx, 3
  00436	8b 4c 0c 50	 mov	 ecx, DWORD PTR aste$[rsp+rcx]
  0043a	48 0b c1	 or	 rax, rcx
  0043d	48 8b 8c 24 b8
	00 00 00	 mov	 rcx, QWORD PTR regs$[rsp]
  00445	48 89 81 18 08
	00 00		 mov	 QWORD PTR [rcx+2072], rax

; 777  :                     regs->dat.stid = TEA_ST_ARMODE;

  0044c	48 8b 84 24 b8
	00 00 00	 mov	 rax, QWORD PTR regs$[rsp]
  00454	c7 80 20 08 00
	00 01 00 00 00	 mov	 DWORD PTR [rax+2080], 1

; 778  : 
; 779  :                     if (regs->dat.protect & 2)

  0045e	48 8b 84 24 b8
	00 00 00	 mov	 rax, QWORD PTR regs$[rsp]
  00466	8b 80 34 08 00
	00		 mov	 eax, DWORD PTR [rax+2100]
  0046c	d1 e8		 shr	 eax, 1
  0046e	83 e0 03	 and	 eax, 3
  00471	83 e0 02	 and	 eax, 2
  00474	85 c0		 test	 eax, eax
  00476	74 47		 je	 SHORT $LN25@z900_load_

; 780  :                     {
; 781  : #if defined( FEATURE_001_ZARCH_INSTALLED_FACILITY )
; 782  :                        regs->dat.asd ^= ASCE_RESV;

  00478	48 8b 84 24 b8
	00 00 00	 mov	 rax, QWORD PTR regs$[rsp]
  00480	48 8b 80 18 08
	00 00		 mov	 rax, QWORD PTR [rax+2072]
  00487	48 35 10 0c 00
	00		 xor	 rax, 3088		; 00000c10H
  0048d	48 8b 8c 24 b8
	00 00 00	 mov	 rcx, QWORD PTR regs$[rsp]
  00495	48 89 81 18 08
	00 00		 mov	 QWORD PTR [rcx+2072], rax

; 783  :                        regs->dat.asd |= ASCE_P;

  0049c	48 8b 84 24 b8
	00 00 00	 mov	 rax, QWORD PTR regs$[rsp]
  004a4	48 8b 80 18 08
	00 00		 mov	 rax, QWORD PTR [rax+2072]
  004ab	48 0f ba e8 08	 bts	 rax, 8
  004b0	48 8b 8c 24 b8
	00 00 00	 mov	 rcx, QWORD PTR regs$[rsp]
  004b8	48 89 81 18 08
	00 00		 mov	 QWORD PTR [rcx+2072], rax
$LN25@z900_load_:

; 784  : #else
; 785  :                        regs->dat.asd ^= STD_RESV;
; 786  :                        regs->dat.asd |= STD_PRIVATE;
; 787  : #endif
; 788  :                     }
; 789  : 
; 790  :                     /* Update ALB */
; 791  :                     regs->CR(CR_ALB_OFFSET + arn) = regs->dat.asd;

  004bf	8b 84 24 b0 00
	00 00		 mov	 eax, DWORD PTR arn$[rsp]
  004c6	83 c0 11	 add	 eax, 17
  004c9	48 98		 cdqe
  004cb	48 8b 8c 24 b8
	00 00 00	 mov	 rcx, QWORD PTR regs$[rsp]
  004d3	48 8b 94 24 b8
	00 00 00	 mov	 rdx, QWORD PTR regs$[rsp]
  004db	48 8b 92 18 08
	00 00		 mov	 rdx, QWORD PTR [rdx+2072]
  004e2	48 89 94 c1 00
	06 00 00	 mov	 QWORD PTR [rcx+rax*8+1536], rdx

; 792  :                     regs->AEA_AR(arn) = CR_ALB_OFFSET + arn;

  004ea	8b 84 24 b0 00
	00 00		 mov	 eax, DWORD PTR arn$[rsp]
  004f1	83 c0 10	 add	 eax, 16
  004f4	8b 8c 24 b0 00
	00 00		 mov	 ecx, DWORD PTR arn$[rsp]
  004fb	83 c1 05	 add	 ecx, 5
  004fe	48 63 c9	 movsxd	 rcx, ecx
  00501	48 8b 94 24 b8
	00 00 00	 mov	 rdx, QWORD PTR regs$[rsp]
  00509	89 84 8a 94 0c
	00 00		 mov	 DWORD PTR [rdx+rcx*4+3220], eax

; 793  :                     regs->AEA_COMMON(CR_ALB_OFFSET + arn) = (regs->dat.asd & ASD_PRIVATE) == 0;

  00510	48 8b 84 24 b8
	00 00 00	 mov	 rax, QWORD PTR regs$[rsp]
  00518	48 8b 80 18 08
	00 00		 mov	 rax, QWORD PTR [rax+2072]
  0051f	48 25 20 01 00
	00		 and	 rax, 288		; 00000120H
  00525	48 85 c0	 test	 rax, rax
  00528	75 0a		 jne	 SHORT $LN31@z900_load_
  0052a	c7 44 24 48 01
	00 00 00	 mov	 DWORD PTR tv249[rsp], 1
  00532	eb 08		 jmp	 SHORT $LN32@z900_load_
$LN31@z900_load_:
  00534	c7 44 24 48 00
	00 00 00	 mov	 DWORD PTR tv249[rsp], 0
$LN32@z900_load_:
  0053c	8b 84 24 b0 00
	00 00		 mov	 eax, DWORD PTR arn$[rsp]
  00543	83 c0 11	 add	 eax, 17
  00546	48 98		 cdqe
  00548	48 8b 8c 24 b8
	00 00 00	 mov	 rcx, QWORD PTR regs$[rsp]
  00550	0f b6 54 24 48	 movzx	 edx, BYTE PTR tv249[rsp]
  00555	88 94 01 e8 0c
	00 00		 mov	 BYTE PTR [rcx+rax+3304], dl

; 794  :                     regs->aea_aleprot[arn] = regs->dat.protect & 2;

  0055c	48 8b 84 24 b8
	00 00 00	 mov	 rax, QWORD PTR regs$[rsp]
  00564	8b 80 34 08 00
	00		 mov	 eax, DWORD PTR [rax+2100]
  0056a	d1 e8		 shr	 eax, 1
  0056c	83 e0 03	 and	 eax, 3
  0056f	83 e0 02	 and	 eax, 2
  00572	48 63 8c 24 b0
	00 00 00	 movsxd	 rcx, DWORD PTR arn$[rsp]
  0057a	48 8b 94 24 b8
	00 00 00	 mov	 rdx, QWORD PTR regs$[rsp]
  00582	88 84 0a 09 0d
	00 00		 mov	 BYTE PTR [rdx+rcx+3337], al
$LN23@z900_load_:
$LN6@z900_load_:

; 795  :                 }
; 796  : 
; 797  :             } /* end switch(alet) */
; 798  : 
; 799  :             break;

  00589	e9 db 00 00 00	 jmp	 $LN2@z900_load_
$LN17@z900_load_:

; 800  : 
; 801  :         } /* end if(ACCESS_REGISTER_MODE) */
; 802  : #endif /* defined( FEATURE_ACCESS_REGISTERS ) */
; 803  : 
; 804  : #if defined( FEATURE_DUAL_ADDRESS_SPACE )
; 805  :         if (SECONDARY_SPACE_MODE(&regs->psw))

  0058e	48 8b 84 24 b8
	00 00 00	 mov	 rax, QWORD PTR regs$[rsp]
  00596	0f b6 40 7b	 movzx	 eax, BYTE PTR [rax+123]
  0059a	3d 80 00 00 00	 cmp	 eax, 128		; 00000080H
  0059f	75 3f		 jne	 SHORT $LN26@z900_load_

; 806  :         {
; 807  :             regs->dat.stid = TEA_ST_SECNDRY;

  005a1	48 8b 84 24 b8
	00 00 00	 mov	 rax, QWORD PTR regs$[rsp]
  005a9	c7 80 20 08 00
	00 02 00 00 00	 mov	 DWORD PTR [rax+2080], 2

; 808  :             regs->dat.asd = regs->CR(7);

  005b3	b8 08 00 00 00	 mov	 eax, 8
  005b8	48 6b c0 08	 imul	 rax, rax, 8
  005bc	48 8b 8c 24 b8
	00 00 00	 mov	 rcx, QWORD PTR regs$[rsp]
  005c4	48 8b 94 24 b8
	00 00 00	 mov	 rdx, QWORD PTR regs$[rsp]
  005cc	48 8b 84 02 00
	06 00 00	 mov	 rax, QWORD PTR [rdx+rax+1536]
  005d4	48 89 81 18 08
	00 00		 mov	 QWORD PTR [rcx+2072], rax

; 809  :             break;

  005db	e9 89 00 00 00	 jmp	 $LN2@z900_load_
$LN26@z900_load_:

; 810  :         }
; 811  : #endif
; 812  : 
; 813  : #if defined( FEATURE_LINKAGE_STACK )
; 814  :         if (HOME_SPACE_MODE(&regs->psw))

  005e0	48 8b 84 24 b8
	00 00 00	 mov	 rax, QWORD PTR regs$[rsp]
  005e8	0f b6 40 7b	 movzx	 eax, BYTE PTR [rax+123]
  005ec	3d c0 00 00 00	 cmp	 eax, 192		; 000000c0H
  005f1	75 3c		 jne	 SHORT $LN27@z900_load_

; 815  :         {
; 816  :             regs->dat.stid = TEA_ST_HOME;

  005f3	48 8b 84 24 b8
	00 00 00	 mov	 rax, QWORD PTR regs$[rsp]
  005fb	c7 80 20 08 00
	00 03 00 00 00	 mov	 DWORD PTR [rax+2080], 3

; 817  :             regs->dat.asd = regs->CR(13);

  00605	b8 08 00 00 00	 mov	 eax, 8
  0060a	48 6b c0 0e	 imul	 rax, rax, 14
  0060e	48 8b 8c 24 b8
	00 00 00	 mov	 rcx, QWORD PTR regs$[rsp]
  00616	48 8b 94 24 b8
	00 00 00	 mov	 rdx, QWORD PTR regs$[rsp]
  0061e	48 8b 84 02 00
	06 00 00	 mov	 rax, QWORD PTR [rdx+rax+1536]
  00626	48 89 81 18 08
	00 00		 mov	 QWORD PTR [rcx+2072], rax

; 818  :             break;

  0062d	eb 3a		 jmp	 SHORT $LN2@z900_load_
$LN27@z900_load_:

; 819  :         }
; 820  : #endif
; 821  : 
; 822  :         /* Primary space mode */
; 823  :         regs->dat.stid = TEA_ST_PRIMARY;

  0062f	48 8b 84 24 b8
	00 00 00	 mov	 rax, QWORD PTR regs$[rsp]
  00637	c7 80 20 08 00
	00 00 00 00 00	 mov	 DWORD PTR [rax+2080], 0

; 824  :         regs->dat.asd = regs->CR(1);

  00641	b8 08 00 00 00	 mov	 eax, 8
  00646	48 6b c0 02	 imul	 rax, rax, 2
  0064a	48 8b 8c 24 b8
	00 00 00	 mov	 rcx, QWORD PTR regs$[rsp]
  00652	48 8b 94 24 b8
	00 00 00	 mov	 rdx, QWORD PTR regs$[rsp]
  0065a	48 8b 84 02 00
	06 00 00	 mov	 rax, QWORD PTR [rdx+rax+1536]
  00662	48 89 81 18 08
	00 00		 mov	 QWORD PTR [rcx+2072], rax
$LN2@z900_load_:

; 825  :         break;
; 826  : 
; 827  :     } /* switch(arn) */
; 828  : 
; 829  :     return 0;

  00669	33 c0		 xor	 eax, eax
$LN1@z900_load_:

; 830  : 
; 831  : } /* end function load_address_space_designator */

  0066b	48 8b 8c 24 90
	00 00 00	 mov	 rcx, QWORD PTR __$ArrayPad$[rsp]
  00673	48 33 cc	 xor	 rcx, rsp
  00676	e8 00 00 00 00	 call	 __security_check_cookie
  0067b	48 81 c4 a8 00
	00 00		 add	 rsp, 168		; 000000a8H
  00682	c3		 ret	 0
z900_load_address_space_designator ENDP
_TEXT	ENDS
; Function compile flags: /Odtp
; File C:\papa\MyGit\hyperion-zvector\vstore.h
;	COMDAT z900_vfetch8
_TEXT	SEGMENT
tv70 = 48
mn$1 = 56
addr$ = 80
arn$ = 88
regs$ = 96
z900_vfetch8 PROC					; COMDAT

; 711  : {

$LN8:
  00000	4c 89 44 24 18	 mov	 QWORD PTR [rsp+24], r8
  00005	89 54 24 10	 mov	 DWORD PTR [rsp+16], edx
  00009	48 89 4c 24 08	 mov	 QWORD PTR [rsp+8], rcx
  0000e	48 83 ec 48	 sub	 rsp, 72			; 00000048H

; 712  : #if defined( OPTION_SINGLE_CPU_DW ) && defined( ASSIST_STORE_DW )
; 713  :     if(likely(!((VADR_L)addr & 0x07)))
; 714  :     {
; 715  :         /* doubleword aligned fetch */
; 716  :         U64 *mn;
; 717  :         ITIMER_SYNC( addr, 8-1, regs );
; 718  :         mn = (U64*)MADDRL( addr, 8, arn, regs, ACCTYPE_READ, regs->psw.pkey );
; 719  :         if (regs->cpubit == regs->sysblk->started_mask)
; 720  :             return CSWAP64( *mn );
; 721  :         return fetch_dw( mn );
; 722  :     }
; 723  :     else
; 724  : #endif
; 725  :     {
; 726  :         if (likely(((VADR_L)addr & PAGEFRAME_BYTEMASK) <= (PAGEFRAME_BYTEMASK-7)))

  00012	48 8b 44 24 50	 mov	 rax, QWORD PTR addr$[rsp]
  00017	48 25 ff 0f 00
	00		 and	 rax, 4095		; 00000fffH
  0001d	48 3d f8 0f 00
	00		 cmp	 rax, 4088		; 00000ff8H
  00023	77 0a		 ja	 SHORT $LN6@z900_vfetc
  00025	c7 44 24 30 01
	00 00 00	 mov	 DWORD PTR tv70[rsp], 1
  0002d	eb 08		 jmp	 SHORT $LN7@z900_vfetc
$LN6@z900_vfetc:
  0002f	c7 44 24 30 00
	00 00 00	 mov	 DWORD PTR tv70[rsp], 0
$LN7@z900_vfetc:
  00037	83 7c 24 30 00	 cmp	 DWORD PTR tv70[rsp], 0
  0003c	74 47		 je	 SHORT $LN2@z900_vfetc

; 727  :         {
; 728  :             /* unaligned, non-crossing doubleword fetch */
; 729  :             BYTE *mn;
; 730  :             ITIMER_SYNC( addr, 8-1, regs );
; 731  :             mn = MADDRL( addr, 8, arn, regs, ACCTYPE_READ, regs->psw.pkey );

  0003e	48 8b 44 24 60	 mov	 rax, QWORD PTR regs$[rsp]
  00043	0f b6 40 79	 movzx	 eax, BYTE PTR [rax+121]
  00047	88 44 24 28	 mov	 BYTE PTR [rsp+40], al
  0004b	c7 44 24 20 04
	00 00 00	 mov	 DWORD PTR [rsp+32], 4
  00053	4c 8b 4c 24 60	 mov	 r9, QWORD PTR regs$[rsp]
  00058	44 8b 44 24 58	 mov	 r8d, DWORD PTR arn$[rsp]
  0005d	ba 08 00 00 00	 mov	 edx, 8
  00062	48 8b 4c 24 50	 mov	 rcx, QWORD PTR addr$[rsp]
  00067	e8 00 00 00 00	 call	 z900_maddr_l
  0006c	48 89 44 24 38	 mov	 QWORD PTR mn$1[rsp], rax

; 732  :             return fetch_dw( mn );

  00071	48 8b 4c 24 38	 mov	 rcx, QWORD PTR mn$1[rsp]
  00076	e8 00 00 00 00	 call	 fetch_dw_noswap
  0007b	48 8b c8	 mov	 rcx, rax
  0007e	e8 00 00 00 00	 call	 _byteswap_uint64
  00083	eb 13		 jmp	 SHORT $LN1@z900_vfetc
$LN2@z900_vfetc:

; 733  :         }
; 734  :     }
; 735  :     /* page crossing doubleword fetch */
; 736  :     return ARCH_DEP( vfetch8_full )( addr, arn, regs );

  00085	4c 8b 44 24 60	 mov	 r8, QWORD PTR regs$[rsp]
  0008a	8b 54 24 58	 mov	 edx, DWORD PTR arn$[rsp]
  0008e	48 8b 4c 24 50	 mov	 rcx, QWORD PTR addr$[rsp]
  00093	e8 00 00 00 00	 call	 z900_vfetch8_full
$LN1@z900_vfetc:

; 737  : }

  00098	48 83 c4 48	 add	 rsp, 72			; 00000048H
  0009c	c3		 ret	 0
z900_vfetch8 ENDP
_TEXT	ENDS
; Function compile flags: /Odtp
; File C:\papa\MyGit\hyperion-zvector\vstore.h
;	COMDAT z900_vstore8
_TEXT	SEGMENT
tv70 = 48
mn$1 = 56
value$ = 80
addr$ = 88
arn$ = 96
regs$ = 104
z900_vstore8 PROC					; COMDAT

; 577  : {

$LN9:
  00000	4c 89 4c 24 20	 mov	 QWORD PTR [rsp+32], r9
  00005	44 89 44 24 18	 mov	 DWORD PTR [rsp+24], r8d
  0000a	48 89 54 24 10	 mov	 QWORD PTR [rsp+16], rdx
  0000f	48 89 4c 24 08	 mov	 QWORD PTR [rsp+8], rcx
  00014	48 83 ec 48	 sub	 rsp, 72			; 00000048H

; 578  : #if defined( OPTION_SINGLE_CPU_DW ) && defined( ASSIST_STORE_DW )
; 579  :     /* Check alignement. If aligned then we are guaranteed
; 580  :        not to cross a page boundary */
; 581  :     if (likely(!((VADR_L)addr & 0x07)))
; 582  :     {
; 583  :         /* Most common case : Aligned */
; 584  :         U64 *mn;
; 585  :         mn = (U64*)MADDRL( addr, 8, arn, regs, ACCTYPE_WRITE, regs->psw.pkey );
; 586  :         if (regs->cpubit == regs->sysblk->started_mask)
; 587  :             *mn = CSWAP64( value );
; 588  :         else
; 589  :             STORE_DW( mn, value );
; 590  :     }
; 591  :     else
; 592  : #endif
; 593  :     {
; 594  :         /* We're not aligned. So we have to check whether we are
; 595  :            crossing a page boundary. This cannot be the same
; 596  :            code as above because casting U64* to a non aligned
; 597  :            pointer may break on those architectures mandating
; 598  :            strict alignement */
; 599  :         if (likely(((VADR_L)addr & PAGEFRAME_BYTEMASK) <= (PAGEFRAME_BYTEMASK-7)))

  00018	48 8b 44 24 58	 mov	 rax, QWORD PTR addr$[rsp]
  0001d	48 25 ff 0f 00
	00		 and	 rax, 4095		; 00000fffH
  00023	48 3d f8 0f 00
	00		 cmp	 rax, 4088		; 00000ff8H
  00029	77 0a		 ja	 SHORT $LN7@z900_vstor
  0002b	c7 44 24 30 01
	00 00 00	 mov	 DWORD PTR tv70[rsp], 1
  00033	eb 08		 jmp	 SHORT $LN8@z900_vstor
$LN7@z900_vstor:
  00035	c7 44 24 30 00
	00 00 00	 mov	 DWORD PTR tv70[rsp], 0
$LN8@z900_vstor:
  0003d	83 7c 24 30 00	 cmp	 DWORD PTR tv70[rsp], 0
  00042	74 4c		 je	 SHORT $LN2@z900_vstor

; 600  :         {
; 601  :             /* Non aligned but not crossing page boundary */
; 602  :             BYTE *mn;
; 603  :             mn = MADDRL( addr, 8, arn, regs, ACCTYPE_WRITE, regs->psw.pkey );

  00044	48 8b 44 24 68	 mov	 rax, QWORD PTR regs$[rsp]
  00049	0f b6 40 79	 movzx	 eax, BYTE PTR [rax+121]
  0004d	88 44 24 28	 mov	 BYTE PTR [rsp+40], al
  00051	c7 44 24 20 02
	00 00 00	 mov	 DWORD PTR [rsp+32], 2
  00059	4c 8b 4c 24 68	 mov	 r9, QWORD PTR regs$[rsp]
  0005e	44 8b 44 24 60	 mov	 r8d, DWORD PTR arn$[rsp]
  00063	ba 08 00 00 00	 mov	 edx, 8
  00068	48 8b 4c 24 58	 mov	 rcx, QWORD PTR addr$[rsp]
  0006d	e8 00 00 00 00	 call	 z900_maddr_l
  00072	48 89 44 24 38	 mov	 QWORD PTR mn$1[rsp], rax

; 604  :             /* invoking STORE_DW ensures endianness correctness */
; 605  :             STORE_DW( mn, value );

  00077	48 8b 4c 24 50	 mov	 rcx, QWORD PTR value$[rsp]
  0007c	e8 00 00 00 00	 call	 _byteswap_uint64
  00081	48 8b d0	 mov	 rdx, rax
  00084	48 8b 4c 24 38	 mov	 rcx, QWORD PTR mn$1[rsp]
  00089	e8 00 00 00 00	 call	 store_dw_noswap

; 606  :         }

  0008e	eb 19		 jmp	 SHORT $LN3@z900_vstor
$LN2@z900_vstor:

; 607  :         else
; 608  :             /* Crossing page boundary */
; 609  :             ARCH_DEP( vstore8_full )( value, addr, arn, regs );

  00090	4c 8b 4c 24 68	 mov	 r9, QWORD PTR regs$[rsp]
  00095	44 8b 44 24 60	 mov	 r8d, DWORD PTR arn$[rsp]
  0009a	48 8b 54 24 58	 mov	 rdx, QWORD PTR addr$[rsp]
  0009f	48 8b 4c 24 50	 mov	 rcx, QWORD PTR value$[rsp]
  000a4	e8 00 00 00 00	 call	 z900_vstore8_full
$LN3@z900_vstor:

; 610  :     }
; 611  :     ITIMER_UPDATE( addr, 8-1, regs );
; 612  : }

  000a9	48 83 c4 48	 add	 rsp, 72			; 00000048H
  000ad	c3		 ret	 0
z900_vstore8 ENDP
_TEXT	ENDS
; Function compile flags: /Odtp
; File C:\papa\MyGit\hyperion-zvector\vstore.h
;	COMDAT z900_vfetch8_full
_TEXT	SEGMENT
len$ = 48
mn$ = 56
temp$ = 64
__$ArrayPad$ = 80
addr$ = 128
arn$ = 136
regs$ = 144
z900_vfetch8_full PROC					; COMDAT

; 457  : {

$LN3:
  00000	4c 89 44 24 18	 mov	 QWORD PTR [rsp+24], r8
  00005	89 54 24 10	 mov	 DWORD PTR [rsp+16], edx
  00009	48 89 4c 24 08	 mov	 QWORD PTR [rsp+8], rcx
  0000e	56		 push	 rsi
  0000f	57		 push	 rdi
  00010	48 83 ec 68	 sub	 rsp, 104		; 00000068H
  00014	48 8b 05 00 00
	00 00		 mov	 rax, QWORD PTR __security_cookie
  0001b	48 33 c4	 xor	 rax, rsp
  0001e	48 89 44 24 50	 mov	 QWORD PTR __$ArrayPad$[rsp], rax

; 458  : BYTE   *mn;                             /* Main storage addresses    */
; 459  : int     len;                            /* Length to end of page     */
; 460  : BYTE    temp[16];                       /* Copy destination          */
; 461  : 
; 462  :     /* Get absolute address of first byte of operand */
; 463  :     len = PAGEFRAME_PAGESIZE - (addr & PAGEFRAME_BYTEMASK);

  00023	48 8b 84 24 80
	00 00 00	 mov	 rax, QWORD PTR addr$[rsp]
  0002b	48 25 ff 0f 00
	00		 and	 rax, 4095		; 00000fffH
  00031	b9 00 10 00 00	 mov	 ecx, 4096		; 00001000H
  00036	48 2b c8	 sub	 rcx, rax
  00039	48 8b c1	 mov	 rax, rcx
  0003c	89 44 24 30	 mov	 DWORD PTR len$[rsp], eax

; 464  :     mn = MADDRL( addr, len, arn, regs, ACCTYPE_READ, regs->psw.pkey );

  00040	48 63 44 24 30	 movsxd	 rax, DWORD PTR len$[rsp]
  00045	48 8b 8c 24 90
	00 00 00	 mov	 rcx, QWORD PTR regs$[rsp]
  0004d	0f b6 49 79	 movzx	 ecx, BYTE PTR [rcx+121]
  00051	88 4c 24 28	 mov	 BYTE PTR [rsp+40], cl
  00055	c7 44 24 20 04
	00 00 00	 mov	 DWORD PTR [rsp+32], 4
  0005d	4c 8b 8c 24 90
	00 00 00	 mov	 r9, QWORD PTR regs$[rsp]
  00065	44 8b 84 24 88
	00 00 00	 mov	 r8d, DWORD PTR arn$[rsp]
  0006d	48 8b d0	 mov	 rdx, rax
  00070	48 8b 8c 24 80
	00 00 00	 mov	 rcx, QWORD PTR addr$[rsp]
  00078	e8 00 00 00 00	 call	 z900_maddr_l
  0007d	48 89 44 24 38	 mov	 QWORD PTR mn$[rsp], rax

; 465  :     memcpy( temp, mn, len);

  00082	48 63 44 24 30	 movsxd	 rax, DWORD PTR len$[rsp]
  00087	48 8d 4c 24 40	 lea	 rcx, QWORD PTR temp$[rsp]
  0008c	48 8b f9	 mov	 rdi, rcx
  0008f	48 8b 74 24 38	 mov	 rsi, QWORD PTR mn$[rsp]
  00094	48 8b c8	 mov	 rcx, rax
  00097	f3 a4		 rep movsb

; 466  :     mn = MADDRL( (addr + len) & ADDRESS_MAXWRAP( regs ), 8 - len, arn, regs,

  00099	b8 08 00 00 00	 mov	 eax, 8
  0009e	2b 44 24 30	 sub	 eax, DWORD PTR len$[rsp]
  000a2	48 98		 cdqe
  000a4	48 63 4c 24 30	 movsxd	 rcx, DWORD PTR len$[rsp]
  000a9	48 8b 94 24 80
	00 00 00	 mov	 rdx, QWORD PTR addr$[rsp]
  000b1	48 03 d1	 add	 rdx, rcx
  000b4	48 8b ca	 mov	 rcx, rdx
  000b7	48 8b 94 24 90
	00 00 00	 mov	 rdx, QWORD PTR regs$[rsp]
  000bf	48 23 8a 90 00
	00 00		 and	 rcx, QWORD PTR [rdx+144]
  000c6	48 8b 94 24 90
	00 00 00	 mov	 rdx, QWORD PTR regs$[rsp]
  000ce	0f b6 52 79	 movzx	 edx, BYTE PTR [rdx+121]
  000d2	88 54 24 28	 mov	 BYTE PTR [rsp+40], dl
  000d6	c7 44 24 20 04
	00 00 00	 mov	 DWORD PTR [rsp+32], 4
  000de	4c 8b 8c 24 90
	00 00 00	 mov	 r9, QWORD PTR regs$[rsp]
  000e6	44 8b 84 24 88
	00 00 00	 mov	 r8d, DWORD PTR arn$[rsp]
  000ee	48 8b d0	 mov	 rdx, rax
  000f1	e8 00 00 00 00	 call	 z900_maddr_l
  000f6	48 89 44 24 38	 mov	 QWORD PTR mn$[rsp], rax

; 467  :                  ACCTYPE_READ, regs->psw.pkey );
; 468  :     memcpy( temp+len, mn, 8 );

  000fb	48 63 44 24 30	 movsxd	 rax, DWORD PTR len$[rsp]
  00100	48 8b 4c 24 38	 mov	 rcx, QWORD PTR mn$[rsp]
  00105	48 8b 09	 mov	 rcx, QWORD PTR [rcx]
  00108	48 89 4c 04 40	 mov	 QWORD PTR temp$[rsp+rax], rcx

; 469  :     return fetch_dw( temp );

  0010d	48 8d 4c 24 40	 lea	 rcx, QWORD PTR temp$[rsp]
  00112	e8 00 00 00 00	 call	 fetch_dw_noswap
  00117	48 8b c8	 mov	 rcx, rax
  0011a	e8 00 00 00 00	 call	 _byteswap_uint64

; 470  : }

  0011f	48 8b 4c 24 50	 mov	 rcx, QWORD PTR __$ArrayPad$[rsp]
  00124	48 33 cc	 xor	 rcx, rsp
  00127	e8 00 00 00 00	 call	 __security_check_cookie
  0012c	48 83 c4 68	 add	 rsp, 104		; 00000068H
  00130	5f		 pop	 rdi
  00131	5e		 pop	 rsi
  00132	c3		 ret	 0
z900_vfetch8_full ENDP
_TEXT	ENDS
; Function compile flags: /Odtp
; File C:\papa\MyGit\hyperion-zvector\vstore.h
;	COMDAT z900_vstore8_full
_TEXT	SEGMENT
len$ = 48
sk$ = 56
main1$ = 64
main2$ = 72
temp$ = 80
__$ArrayPad$ = 88
value$ = 128
addr$ = 136
arn$ = 144
regs$ = 152
z900_vstore8_full PROC					; COMDAT

; 369  : {

$LN3:
  00000	4c 89 4c 24 20	 mov	 QWORD PTR [rsp+32], r9
  00005	44 89 44 24 18	 mov	 DWORD PTR [rsp+24], r8d
  0000a	48 89 54 24 10	 mov	 QWORD PTR [rsp+16], rdx
  0000f	48 89 4c 24 08	 mov	 QWORD PTR [rsp+8], rcx
  00014	56		 push	 rsi
  00015	57		 push	 rdi
  00016	48 83 ec 68	 sub	 rsp, 104		; 00000068H
  0001a	48 8b 05 00 00
	00 00		 mov	 rax, QWORD PTR __security_cookie
  00021	48 33 c4	 xor	 rax, rsp
  00024	48 89 44 24 58	 mov	 QWORD PTR __$ArrayPad$[rsp], rax

; 370  : BYTE   *main1, *main2;                  /* Mainstor addresses        */
; 371  : BYTE   *sk;                             /* Storage key addresses     */
; 372  : int     len;                            /* Length to end of page     */
; 373  : BYTE    temp[8];                        /* Copied value              */
; 374  : 
; 375  :     len = PAGEFRAME_PAGESIZE - (addr & PAGEFRAME_BYTEMASK);

  00029	48 8b 84 24 88
	00 00 00	 mov	 rax, QWORD PTR addr$[rsp]
  00031	48 25 ff 0f 00
	00		 and	 rax, 4095		; 00000fffH
  00037	b9 00 10 00 00	 mov	 ecx, 4096		; 00001000H
  0003c	48 2b c8	 sub	 rcx, rax
  0003f	48 8b c1	 mov	 rax, rcx
  00042	89 44 24 30	 mov	 DWORD PTR len$[rsp], eax

; 376  :     main1 = MADDRL( addr, len, arn, regs, ACCTYPE_WRITE_SKP, regs->psw.pkey );

  00046	48 63 44 24 30	 movsxd	 rax, DWORD PTR len$[rsp]
  0004b	48 8b 8c 24 98
	00 00 00	 mov	 rcx, QWORD PTR regs$[rsp]
  00053	0f b6 49 79	 movzx	 ecx, BYTE PTR [rcx+121]
  00057	88 4c 24 28	 mov	 BYTE PTR [rsp+40], cl
  0005b	c7 44 24 20 01
	00 00 00	 mov	 DWORD PTR [rsp+32], 1
  00063	4c 8b 8c 24 98
	00 00 00	 mov	 r9, QWORD PTR regs$[rsp]
  0006b	44 8b 84 24 90
	00 00 00	 mov	 r8d, DWORD PTR arn$[rsp]
  00073	48 8b d0	 mov	 rdx, rax
  00076	48 8b 8c 24 88
	00 00 00	 mov	 rcx, QWORD PTR addr$[rsp]
  0007e	e8 00 00 00 00	 call	 z900_maddr_l
  00083	48 89 44 24 40	 mov	 QWORD PTR main1$[rsp], rax

; 377  :     sk = regs->dat.storkey;

  00088	48 8b 84 24 98
	00 00 00	 mov	 rax, QWORD PTR regs$[rsp]
  00090	48 8b 80 28 08
	00 00		 mov	 rax, QWORD PTR [rax+2088]
  00097	48 89 44 24 38	 mov	 QWORD PTR sk$[rsp], rax

; 378  :     main2 = MADDRL( (addr + len) & ADDRESS_MAXWRAP( regs ), 8-len, arn, regs,

  0009c	b8 08 00 00 00	 mov	 eax, 8
  000a1	2b 44 24 30	 sub	 eax, DWORD PTR len$[rsp]
  000a5	48 98		 cdqe
  000a7	48 63 4c 24 30	 movsxd	 rcx, DWORD PTR len$[rsp]
  000ac	48 8b 94 24 88
	00 00 00	 mov	 rdx, QWORD PTR addr$[rsp]
  000b4	48 03 d1	 add	 rdx, rcx
  000b7	48 8b ca	 mov	 rcx, rdx
  000ba	48 8b 94 24 98
	00 00 00	 mov	 rdx, QWORD PTR regs$[rsp]
  000c2	48 23 8a 90 00
	00 00		 and	 rcx, QWORD PTR [rdx+144]
  000c9	48 8b 94 24 98
	00 00 00	 mov	 rdx, QWORD PTR regs$[rsp]
  000d1	0f b6 52 79	 movzx	 edx, BYTE PTR [rdx+121]
  000d5	88 54 24 28	 mov	 BYTE PTR [rsp+40], dl
  000d9	c7 44 24 20 02
	00 00 00	 mov	 DWORD PTR [rsp+32], 2
  000e1	4c 8b 8c 24 98
	00 00 00	 mov	 r9, QWORD PTR regs$[rsp]
  000e9	44 8b 84 24 90
	00 00 00	 mov	 r8d, DWORD PTR arn$[rsp]
  000f1	48 8b d0	 mov	 rdx, rax
  000f4	e8 00 00 00 00	 call	 z900_maddr_l
  000f9	48 89 44 24 48	 mov	 QWORD PTR main2$[rsp], rax

; 379  :                     ACCTYPE_WRITE, regs->psw.pkey );
; 380  :     *sk |= (STORKEY_REF | STORKEY_CHANGE);

  000fe	48 8b 44 24 38	 mov	 rax, QWORD PTR sk$[rsp]
  00103	0f b6 00	 movzx	 eax, BYTE PTR [rax]
  00106	83 c8 06	 or	 eax, 6
  00109	48 8b 4c 24 38	 mov	 rcx, QWORD PTR sk$[rsp]
  0010e	88 01		 mov	 BYTE PTR [rcx], al

; 381  :     STORE_DW( temp, value );

  00110	48 8b 8c 24 80
	00 00 00	 mov	 rcx, QWORD PTR value$[rsp]
  00118	e8 00 00 00 00	 call	 _byteswap_uint64
  0011d	48 8b d0	 mov	 rdx, rax
  00120	48 8d 4c 24 50	 lea	 rcx, QWORD PTR temp$[rsp]
  00125	e8 00 00 00 00	 call	 store_dw_noswap

; 382  :     memcpy( main1, temp,       len );

  0012a	48 63 44 24 30	 movsxd	 rax, DWORD PTR len$[rsp]
  0012f	48 8d 4c 24 50	 lea	 rcx, QWORD PTR temp$[rsp]
  00134	48 8b 7c 24 40	 mov	 rdi, QWORD PTR main1$[rsp]
  00139	48 8b f1	 mov	 rsi, rcx
  0013c	48 8b c8	 mov	 rcx, rax
  0013f	f3 a4		 rep movsb

; 383  :     memcpy( main2, temp+len, 8-len );

  00141	b8 08 00 00 00	 mov	 eax, 8
  00146	2b 44 24 30	 sub	 eax, DWORD PTR len$[rsp]
  0014a	48 98		 cdqe
  0014c	48 63 4c 24 30	 movsxd	 rcx, DWORD PTR len$[rsp]
  00151	48 8d 4c 0c 50	 lea	 rcx, QWORD PTR temp$[rsp+rcx]
  00156	48 8b 7c 24 48	 mov	 rdi, QWORD PTR main2$[rsp]
  0015b	48 8b f1	 mov	 rsi, rcx
  0015e	48 8b c8	 mov	 rcx, rax
  00161	f3 a4		 rep movsb

; 384  : }

  00163	48 8b 4c 24 58	 mov	 rcx, QWORD PTR __$ArrayPad$[rsp]
  00168	48 33 cc	 xor	 rcx, rsp
  0016b	e8 00 00 00 00	 call	 __security_check_cookie
  00170	48 83 c4 68	 add	 rsp, 104		; 00000068H
  00174	5f		 pop	 rdi
  00175	5e		 pop	 rsi
  00176	c3		 ret	 0
z900_vstore8_full ENDP
_TEXT	ENDS
; Function compile flags: /Odtp
; File C:\papa\MyGit\hyperion-zvector\dat.h
;	COMDAT z900_maddr_l
_TEXT	SEGMENT
tlbix$ = 48
aea_crn$ = 52
tv70 = 56
maddr$ = 64
addr$ = 96
len$ = 104
arn$ = 112
regs$ = 120
acctype$ = 128
akey$ = 136
z900_maddr_l PROC					; COMDAT

; 307  : {

$LN18:
  00000	4c 89 4c 24 20	 mov	 QWORD PTR [rsp+32], r9
  00005	44 89 44 24 18	 mov	 DWORD PTR [rsp+24], r8d
  0000a	48 89 54 24 10	 mov	 QWORD PTR [rsp+16], rdx
  0000f	48 89 4c 24 08	 mov	 QWORD PTR [rsp+8], rcx
  00014	48 83 ec 58	 sub	 rsp, 88			; 00000058H

; 308  :     /* Note: ALL of the below conditions must be true for a TLB hit
; 309  :        to occur.  If ANY of them are false, then it's a TLB miss,
; 310  :        requiring us to then perform a full DAT address translation.
; 311  : 
; 312  :        Note too that on the grand scheme of things the order/sequence
; 313  :        of the below tests (if statements) is completely unimportant
; 314  :        since ALL conditions must be checked anyway in order for a hit
; 315  :        to occur, and it doesn't matter that a miss tests a few extra
; 316  :        conditions since it's going to do a full translation anyway!
; 317  :        (which is many, many instructions)
; 318  :     */
; 319  : 
; 320  :     int  aea_crn  = (arn >= USE_ARMODE) ? 0 : regs->AEA_AR( arn );

  00018	83 7c 24 70 10	 cmp	 DWORD PTR arn$[rsp], 16
  0001d	7c 0a		 jl	 SHORT $LN16@z900_maddr
  0001f	c7 44 24 38 00
	00 00 00	 mov	 DWORD PTR tv70[rsp], 0
  00027	eb 19		 jmp	 SHORT $LN17@z900_maddr
$LN16@z900_maddr:
  00029	8b 44 24 70	 mov	 eax, DWORD PTR arn$[rsp]
  0002d	83 c0 05	 add	 eax, 5
  00030	48 98		 cdqe
  00032	48 8b 4c 24 78	 mov	 rcx, QWORD PTR regs$[rsp]
  00037	8b 84 81 94 0c
	00 00		 mov	 eax, DWORD PTR [rcx+rax*4+3220]
  0003e	89 44 24 38	 mov	 DWORD PTR tv70[rsp], eax
$LN17@z900_maddr:
  00042	8b 44 24 38	 mov	 eax, DWORD PTR tv70[rsp]
  00046	89 44 24 34	 mov	 DWORD PTR aea_crn$[rsp], eax

; 321  :     U16  tlbix    = TLBIX( addr );

  0004a	48 8b 44 24 60	 mov	 rax, QWORD PTR addr$[rsp]
  0004f	48 c1 e8 0c	 shr	 rax, 12
  00053	48 25 ff 03 00
	00		 and	 rax, 1023		; 000003ffH
  00059	66 89 44 24 30	 mov	 WORD PTR tlbix$[rsp], ax

; 322  :     BYTE *maddr   = NULL;

  0005e	48 c7 44 24 40
	00 00 00 00	 mov	 QWORD PTR maddr$[rsp], 0

; 323  : 
; 324  :     /* Non-zero AEA Control Register number? */
; 325  :     if (aea_crn)

  00067	83 7c 24 34 00	 cmp	 DWORD PTR aea_crn$[rsp], 0
  0006c	0f 84 2d 01 00
	00		 je	 $LN2@z900_maddr

; 326  :     {
; 327  :         /* Same Addess Space Designator as before? */
; 328  :         /* Or if not, is address in a common segment? */
; 329  :         if (0
; 330  :             || (regs->CR( aea_crn ) == regs->tlb.TLB_ASD( tlbix ))
; 331  :             || (regs->AEA_COMMON( aea_crn ) & regs->tlb.common[ tlbix ])

  00072	33 c0		 xor	 eax, eax
  00074	85 c0		 test	 eax, eax
  00076	75 5a		 jne	 SHORT $LN4@z900_maddr
  00078	8b 44 24 34	 mov	 eax, DWORD PTR aea_crn$[rsp]
  0007c	ff c0		 inc	 eax
  0007e	48 98		 cdqe
  00080	0f b7 4c 24 30	 movzx	 ecx, WORD PTR tlbix$[rsp]
  00085	48 8b 54 24 78	 mov	 rdx, QWORD PTR regs$[rsp]
  0008a	4c 8b 44 24 78	 mov	 r8, QWORD PTR regs$[rsp]
  0008f	49 8b 8c c8 60
	b0 00 00	 mov	 rcx, QWORD PTR [r8+rcx*8+45152]
  00097	48 39 8c c2 00
	06 00 00	 cmp	 QWORD PTR [rdx+rax*8+1536], rcx
  0009f	74 31		 je	 SHORT $LN4@z900_maddr
  000a1	8b 44 24 34	 mov	 eax, DWORD PTR aea_crn$[rsp]
  000a5	ff c0		 inc	 eax
  000a7	48 98		 cdqe
  000a9	48 8b 4c 24 78	 mov	 rcx, QWORD PTR regs$[rsp]
  000ae	0f b6 84 01 e8
	0c 00 00	 movzx	 eax, BYTE PTR [rcx+rax+3304]
  000b6	0f b7 4c 24 30	 movzx	 ecx, WORD PTR tlbix$[rsp]
  000bb	48 8b 54 24 78	 mov	 rdx, QWORD PTR regs$[rsp]
  000c0	0f b6 8c 0a 60
	54 01 00	 movzx	 ecx, BYTE PTR [rdx+rcx+87136]
  000c8	23 c1		 and	 eax, ecx
  000ca	85 c0		 test	 eax, eax
  000cc	0f 84 cd 00 00
	00		 je	 $LN3@z900_maddr
$LN4@z900_maddr:

; 332  :         )
; 333  :         {
; 334  :             /* Storage Key zero? */
; 335  :             /* Or if not, same Storage Key as before? */
; 336  :             if (0
; 337  :                 || akey == 0
; 338  :                 || akey == regs->tlb.skey[ tlbix ]

  000d2	33 c0		 xor	 eax, eax
  000d4	85 c0		 test	 eax, eax
  000d6	75 2e		 jne	 SHORT $LN6@z900_maddr
  000d8	0f b6 84 24 88
	00 00 00	 movzx	 eax, BYTE PTR akey$[rsp]
  000e0	85 c0		 test	 eax, eax
  000e2	74 22		 je	 SHORT $LN6@z900_maddr
  000e4	0f b6 84 24 88
	00 00 00	 movzx	 eax, BYTE PTR akey$[rsp]
  000ec	0f b7 4c 24 30	 movzx	 ecx, WORD PTR tlbix$[rsp]
  000f1	48 8b 54 24 78	 mov	 rdx, QWORD PTR regs$[rsp]
  000f6	0f b6 8c 0a 60
	50 01 00	 movzx	 ecx, BYTE PTR [rdx+rcx+86112]
  000fe	3b c1		 cmp	 eax, ecx
  00100	0f 85 99 00 00
	00		 jne	 $LN5@z900_maddr
$LN6@z900_maddr:

; 339  :             )
; 340  :             {
; 341  :                 /* Does the page address match the one in the TLB? */
; 342  :                 /* (does a TLB entry exist for this page address?) */
; 343  :                 if (
; 344  :                     ((addr & TLBID_PAGEMASK) | regs->tlbID)
; 345  :                     ==

  00106	48 8b 44 24 60	 mov	 rax, QWORD PTR addr$[rsp]
  0010b	48 25 00 00 c0
	ff		 and	 rax, -4194304		; ffffffffffc00000H
  00111	48 8b 4c 24 78	 mov	 rcx, QWORD PTR regs$[rsp]
  00116	8b 89 58 b0 00
	00		 mov	 ecx, DWORD PTR [rcx+45144]
  0011c	48 0b c1	 or	 rax, rcx
  0011f	0f b7 4c 24 30	 movzx	 ecx, WORD PTR tlbix$[rsp]
  00124	48 8b 54 24 78	 mov	 rdx, QWORD PTR regs$[rsp]
  00129	48 3b 84 ca 60
	d0 00 00	 cmp	 rax, QWORD PTR [rdx+rcx*8+53344]
  00131	75 6c		 jne	 SHORT $LN7@z900_maddr

; 346  :                     regs->tlb.TLB_VADDR( tlbix )
; 347  :                 )
; 348  :                 {
; 349  :                     /* Is storage being accessed same way as before? */
; 350  :                     if (acctype & regs->tlb.acc[ tlbix ])

  00133	0f b7 44 24 30	 movzx	 eax, WORD PTR tlbix$[rsp]
  00138	48 8b 4c 24 78	 mov	 rcx, QWORD PTR regs$[rsp]
  0013d	0f b6 84 01 60
	5c 01 00	 movzx	 eax, BYTE PTR [rcx+rax+89184]
  00145	8b 8c 24 80 00
	00 00		 mov	 ecx, DWORD PTR acctype$[rsp]
  0014c	23 c8		 and	 ecx, eax
  0014e	8b c1		 mov	 eax, ecx
  00150	85 c0		 test	 eax, eax
  00152	74 4b		 je	 SHORT $LN8@z900_maddr

; 351  :                     {
; 352  :                         /*------------------------------------------*/
; 353  :                         /* TLB hit: use previously translated value */
; 354  :                         /*------------------------------------------*/
; 355  : 
; 356  :                         if (acctype & ACC_CHECK)

  00154	8b 84 24 80 00
	00 00		 mov	 eax, DWORD PTR acctype$[rsp]
  0015b	83 e0 01	 and	 eax, 1
  0015e	85 c0		 test	 eax, eax
  00160	74 1e		 je	 SHORT $LN9@z900_maddr

; 357  :                             regs->dat.storkey = regs->tlb.storkey[ tlbix ];

  00162	0f b7 44 24 30	 movzx	 eax, WORD PTR tlbix$[rsp]
  00167	48 8b 4c 24 78	 mov	 rcx, QWORD PTR regs$[rsp]
  0016c	48 8b 54 24 78	 mov	 rdx, QWORD PTR regs$[rsp]
  00171	48 8b 84 c2 60
	30 01 00	 mov	 rax, QWORD PTR [rdx+rax*8+77920]
  00179	48 89 81 28 08
	00 00		 mov	 QWORD PTR [rcx+2088], rax
$LN9@z900_maddr:

; 358  : 
; 359  :                         maddr = MAINADDR( regs->tlb.main[tlbix], addr );

  00180	0f b7 44 24 30	 movzx	 eax, WORD PTR tlbix$[rsp]
  00185	48 8b 4c 24 78	 mov	 rcx, QWORD PTR regs$[rsp]
  0018a	48 8b 54 24 60	 mov	 rdx, QWORD PTR addr$[rsp]
  0018f	48 8b 84 c1 60
	10 01 00	 mov	 rax, QWORD PTR [rcx+rax*8+69728]
  00197	48 33 c2	 xor	 rax, rdx
  0019a	48 89 44 24 40	 mov	 QWORD PTR maddr$[rsp], rax
$LN8@z900_maddr:
$LN7@z900_maddr:
$LN5@z900_maddr:
$LN3@z900_maddr:
$LN2@z900_maddr:

; 360  :                     }
; 361  :                 }
; 362  :             }
; 363  :         }
; 364  :     }
; 365  : 
; 366  :     /*---------------------------------------*/
; 367  :     /* TLB miss: do full address translation */
; 368  :     /*---------------------------------------*/
; 369  :     if (!maddr)

  0019f	48 83 7c 24 40
	00		 cmp	 QWORD PTR maddr$[rsp], 0
  001a5	75 36		 jne	 SHORT $LN10@z900_maddr

; 370  :         maddr = ARCH_DEP( logical_to_main_l )( addr, arn, regs, acctype, akey, len );

  001a7	48 8b 44 24 68	 mov	 rax, QWORD PTR len$[rsp]
  001ac	48 89 44 24 28	 mov	 QWORD PTR [rsp+40], rax
  001b1	0f b6 84 24 88
	00 00 00	 movzx	 eax, BYTE PTR akey$[rsp]
  001b9	88 44 24 20	 mov	 BYTE PTR [rsp+32], al
  001bd	44 8b 8c 24 80
	00 00 00	 mov	 r9d, DWORD PTR acctype$[rsp]
  001c5	4c 8b 44 24 78	 mov	 r8, QWORD PTR regs$[rsp]
  001ca	8b 54 24 70	 mov	 edx, DWORD PTR arn$[rsp]
  001ce	48 8b 4c 24 60	 mov	 rcx, QWORD PTR addr$[rsp]
  001d3	e8 00 00 00 00	 call	 z900_logical_to_main_l
  001d8	48 89 44 24 40	 mov	 QWORD PTR maddr$[rsp], rax
$LN10@z900_maddr:

; 371  : 
; 372  : #if defined( FEATURE_073_TRANSACT_EXEC_FACILITY )
; 373  :     if (FACILITY_ENABLED( 073_TRANSACT_EXEC, regs ))

  001dd	b8 01 00 00 00	 mov	 eax, 1
  001e2	48 6b c0 09	 imul	 rax, rax, 9
  001e6	48 8b 4c 24 78	 mov	 rcx, QWORD PTR regs$[rsp]
  001eb	0f b6 84 01 28
	0d 00 00	 movzx	 eax, BYTE PTR [rcx+rax+3368]
  001f3	83 e0 40	 and	 eax, 64			; 00000040H
  001f6	85 c0		 test	 eax, eax
  001f8	0f 84 89 00 00
	00		 je	 $LN11@z900_maddr

; 374  :     {
; 375  :         /* SA22-7832-12 Principles of Operation, page 5-99:
; 376  : 
; 377  :              "Storage accesses for instruction and DAT- and ART-
; 378  :               table fetches follow the non-transactional rules."
; 379  :         */
; 380  :         if (0
; 381  :             || !regs
; 382  :             || !regs->txf_tnd
; 383  :             || arn == USE_INST_SPACE    /* Instruction fetching */
; 384  :             || arn == USE_REAL_ADDR     /* Address translation  */

  001fe	33 c0		 xor	 eax, eax
  00200	85 c0		 test	 eax, eax
  00202	75 26		 jne	 SHORT $LN13@z900_maddr
  00204	48 83 7c 24 78
	00		 cmp	 QWORD PTR regs$[rsp], 0
  0020a	74 1e		 je	 SHORT $LN13@z900_maddr
  0020c	48 8b 44 24 78	 mov	 rax, QWORD PTR regs$[rsp]
  00211	0f b6 80 58 0e
	00 00		 movzx	 eax, BYTE PTR [rax+3672]
  00218	85 c0		 test	 eax, eax
  0021a	74 0e		 je	 SHORT $LN13@z900_maddr
  0021c	83 7c 24 70 ff	 cmp	 DWORD PTR arn$[rsp], -1
  00221	74 07		 je	 SHORT $LN13@z900_maddr
  00223	83 7c 24 70 fe	 cmp	 DWORD PTR arn$[rsp], -2
  00228	75 07		 jne	 SHORT $LN12@z900_maddr
$LN13@z900_maddr:

; 385  :         )
; 386  :             return maddr;

  0022a	48 8b 44 24 40	 mov	 rax, QWORD PTR maddr$[rsp]
  0022f	eb 5b		 jmp	 SHORT $LN1@z900_maddr
$LN12@z900_maddr:

; 387  : 
; 388  :         /* Quick exit if NTSTG call */
; 389  :         if (regs->txf_NTSTG)

  00231	48 8b 44 24 78	 mov	 rax, QWORD PTR regs$[rsp]
  00236	0f b6 80 4b 0e
	00 00		 movzx	 eax, BYTE PTR [rax+3659]
  0023d	85 c0		 test	 eax, eax
  0023f	74 13		 je	 SHORT $LN14@z900_maddr

; 390  :         {
; 391  :             regs->txf_NTSTG = false;

  00241	48 8b 44 24 78	 mov	 rax, QWORD PTR regs$[rsp]
  00246	c6 80 4b 0e 00
	00 00		 mov	 BYTE PTR [rax+3659], 0

; 392  :             return maddr;

  0024d	48 8b 44 24 40	 mov	 rax, QWORD PTR maddr$[rsp]
  00252	eb 38		 jmp	 SHORT $LN1@z900_maddr
$LN14@z900_maddr:

; 393  :         }
; 394  : 
; 395  :         /* Translate to alternate TXF address */
; 396  :         maddr = TXF_MADDRL( addr, len, arn, regs, acctype, maddr );

  00254	48 8b 44 24 40	 mov	 rax, QWORD PTR maddr$[rsp]
  00259	48 89 44 24 28	 mov	 QWORD PTR [rsp+40], rax
  0025e	8b 84 24 80 00
	00 00		 mov	 eax, DWORD PTR acctype$[rsp]
  00265	89 44 24 20	 mov	 DWORD PTR [rsp+32], eax
  00269	4c 8b 4c 24 78	 mov	 r9, QWORD PTR regs$[rsp]
  0026e	44 8b 44 24 70	 mov	 r8d, DWORD PTR arn$[rsp]
  00273	48 8b 54 24 68	 mov	 rdx, QWORD PTR len$[rsp]
  00278	48 8b 4c 24 60	 mov	 rcx, QWORD PTR addr$[rsp]
  0027d	e8 00 00 00 00	 call	 txf_maddr_l
  00282	48 89 44 24 40	 mov	 QWORD PTR maddr$[rsp], rax
$LN11@z900_maddr:

; 397  :     }
; 398  : #endif
; 399  : 
; 400  :     return maddr;

  00287	48 8b 44 24 40	 mov	 rax, QWORD PTR maddr$[rsp]
$LN1@z900_maddr:

; 401  : }

  0028c	48 83 c4 58	 add	 rsp, 88			; 00000058H
  00290	c3		 ret	 0
z900_maddr_l ENDP
_TEXT	ENDS
; Function compile flags: /Odtp
; File C:\papa\MyGit\hyperion-zvector\dat.h
;	COMDAT z900_authorize_asn
_TEXT	SEGMENT
ate$ = 48
atl$ = 52
ato$ = 56
tv88 = 64
ax$ = 96
aste$ = 104
atemask$ = 112
regs$ = 120
z900_authorize_asn PROC					; COMDAT

; 192  : {

$LN12:
  00000	4c 89 4c 24 20	 mov	 QWORD PTR [rsp+32], r9
  00005	44 89 44 24 18	 mov	 DWORD PTR [rsp+24], r8d
  0000a	48 89 54 24 10	 mov	 QWORD PTR [rsp+16], rdx
  0000f	66 89 4c 24 08	 mov	 WORD PTR [rsp+8], cx
  00014	48 83 ec 58	 sub	 rsp, 88			; 00000058H

; 193  : RADR    ato;                            /* Authority table origin    */
; 194  : int     atl;                            /* Authority table length    */
; 195  : BYTE    ate;                            /* Authority table entry     */
; 196  : 
; 197  :     /* [3.10.3.1] Authority table lookup */
; 198  : 
; 199  :     /* Isolate the authority table origin and length */
; 200  :     ato = aste[0] & ASTE0_ATO;

  00018	b8 04 00 00 00	 mov	 eax, 4
  0001d	48 6b c0 00	 imul	 rax, rax, 0
  00021	48 8b 4c 24 68	 mov	 rcx, QWORD PTR aste$[rsp]
  00026	8b 04 01	 mov	 eax, DWORD PTR [rcx+rax]
  00029	25 fc ff ff 7f	 and	 eax, 2147483644		; 7ffffffcH
  0002e	8b c0		 mov	 eax, eax
  00030	48 89 44 24 38	 mov	 QWORD PTR ato$[rsp], rax

; 201  :     atl = aste[1] & ASTE1_ATL;

  00035	b8 04 00 00 00	 mov	 eax, 4
  0003a	48 6b c0 01	 imul	 rax, rax, 1
  0003e	48 8b 4c 24 68	 mov	 rcx, QWORD PTR aste$[rsp]
  00043	8b 04 01	 mov	 eax, DWORD PTR [rcx+rax]
  00046	25 f0 ff 00 00	 and	 eax, 65520		; 0000fff0H
  0004b	89 44 24 34	 mov	 DWORD PTR atl$[rsp], eax

; 202  : 
; 203  :     /* Authorization fails if AX is outside table */
; 204  :     if ((ax & 0xFFF0) > atl)

  0004f	0f b7 44 24 60	 movzx	 eax, WORD PTR ax$[rsp]
  00054	25 f0 ff 00 00	 and	 eax, 65520		; 0000fff0H
  00059	3b 44 24 34	 cmp	 eax, DWORD PTR atl$[rsp]
  0005d	7e 07		 jle	 SHORT $LN5@z900_autho

; 205  :         return true;

  0005f	b0 01		 mov	 al, 1
  00061	e9 84 01 00 00	 jmp	 $LN1@z900_autho
$LN5@z900_autho:

; 206  : 
; 207  :     /* Calculate the address of the byte in the authority
; 208  :        table which contains the 2 bit entry for this AX */
; 209  :     ato += (ax >> 2);

  00066	0f b7 44 24 60	 movzx	 eax, WORD PTR ax$[rsp]
  0006b	c1 f8 02	 sar	 eax, 2
  0006e	48 98		 cdqe
  00070	48 8b 4c 24 38	 mov	 rcx, QWORD PTR ato$[rsp]
  00075	48 03 c8	 add	 rcx, rax
  00078	48 8b c1	 mov	 rax, rcx
  0007b	48 89 44 24 38	 mov	 QWORD PTR ato$[rsp], rax

; 210  : 
; 211  :     /* Ignore carry into bit position 0 */
; 212  :     ato &= 0x7FFFFFFF;

  00080	48 8b 44 24 38	 mov	 rax, QWORD PTR ato$[rsp]
  00085	48 25 ff ff ff
	7f		 and	 rax, 2147483647		; 7fffffffH
  0008b	48 89 44 24 38	 mov	 QWORD PTR ato$[rsp], rax

; 213  : 
; 214  :     /* Addressing exception if ATE is outside main storage */
; 215  :     if (ato > regs->mainlim)

  00090	48 8b 44 24 78	 mov	 rax, QWORD PTR regs$[rsp]
  00095	48 8b 80 58 08
	00 00		 mov	 rax, QWORD PTR [rax+2136]
  0009c	48 39 44 24 38	 cmp	 QWORD PTR ato$[rsp], rax
  000a1	76 05		 jbe	 SHORT $LN6@z900_autho

; 216  :         goto auth_addr_excp;

  000a3	e9 2d 01 00 00	 jmp	 $auth_addr_excp$13
$LN6@z900_autho:

; 217  : 
; 218  :     /* Load the byte containing the authority table entry
; 219  :        and shift the entry into the leftmost 2 bits */
; 220  :     ato = APPLY_PREFIXING( ato, regs->PX );

  000a8	48 8b 44 24 38	 mov	 rax, QWORD PTR ato$[rsp]
  000ad	48 25 00 e0 ff
	ff		 and	 rax, -8192		; ffffffffffffe000H
  000b3	48 85 c0	 test	 rax, rax
  000b6	74 22		 je	 SHORT $LN10@z900_autho
  000b8	48 8b 44 24 38	 mov	 rax, QWORD PTR ato$[rsp]
  000bd	48 25 00 e0 ff
	ff		 and	 rax, -8192		; ffffffffffffe000H
  000c3	48 8b 4c 24 78	 mov	 rcx, QWORD PTR regs$[rsp]
  000c8	48 3b 41 70	 cmp	 rax, QWORD PTR [rcx+112]
  000cc	74 0c		 je	 SHORT $LN10@z900_autho
  000ce	48 8b 44 24 38	 mov	 rax, QWORD PTR ato$[rsp]
  000d3	48 89 44 24 40	 mov	 QWORD PTR tv88[rsp], rax
  000d8	eb 19		 jmp	 SHORT $LN11@z900_autho
$LN10@z900_autho:
  000da	48 8b 44 24 78	 mov	 rax, QWORD PTR regs$[rsp]
  000df	48 8b 40 70	 mov	 rax, QWORD PTR [rax+112]
  000e3	48 8b 4c 24 38	 mov	 rcx, QWORD PTR ato$[rsp]
  000e8	48 33 c8	 xor	 rcx, rax
  000eb	48 8b c1	 mov	 rax, rcx
  000ee	48 89 44 24 40	 mov	 QWORD PTR tv88[rsp], rax
$LN11@z900_autho:
  000f3	48 8b 44 24 40	 mov	 rax, QWORD PTR tv88[rsp]
  000f8	48 89 44 24 38	 mov	 QWORD PTR ato$[rsp], rax
$LN4@z900_autho:

; 221  : 
; 222  :     /* Translate SIE host virt to SIE host abs. Note: macro
; 223  :        is treated as a no-operation if SIE_MODE not active */
; 224  :     SIE_TRANSLATE( &ato, ACCTYPE_SIE, regs );

  000fd	48 8b 44 24 78	 mov	 rax, QWORD PTR regs$[rsp]
  00102	8b 80 c8 08 00
	00		 mov	 eax, DWORD PTR [rax+2248]
  00108	d1 e8		 shr	 eax, 1
  0010a	83 e0 01	 and	 eax, 1
  0010d	85 c0		 test	 eax, eax
  0010f	74 68		 je	 SHORT $LN7@z900_autho
  00111	48 8b 44 24 78	 mov	 rax, QWORD PTR regs$[rsp]
  00116	8b 80 c8 08 00
	00		 mov	 eax, DWORD PTR [rax+2248]
  0011c	c1 e8 02	 shr	 eax, 2
  0011f	83 e0 01	 and	 eax, 1
  00122	85 c0		 test	 eax, eax
  00124	75 53		 jne	 SHORT $LN7@z900_autho
  00126	48 8b 44 24 78	 mov	 rax, QWORD PTR regs$[rsp]
  0012b	48 8b 80 98 08
	00 00		 mov	 rax, QWORD PTR [rax+2200]
  00132	48 03 44 24 38	 add	 rax, QWORD PTR ato$[rsp]
  00137	48 c7 44 24 28
	01 00 00 00	 mov	 QWORD PTR [rsp+40], 1
  00140	c6 44 24 20 00	 mov	 BYTE PTR [rsp+32], 0
  00145	45 33 c9	 xor	 r9d, r9d
  00148	48 8b 4c 24 78	 mov	 rcx, QWORD PTR regs$[rsp]
  0014d	4c 8b 81 68 08
	00 00		 mov	 r8, QWORD PTR [rcx+2152]
  00154	ba fd ff ff ff	 mov	 edx, -3
  00159	48 8b c8	 mov	 rcx, rax
  0015c	e8 00 00 00 00	 call	 z900_logical_to_main_l
  00161	48 8b 44 24 78	 mov	 rax, QWORD PTR regs$[rsp]
  00166	48 8b 80 68 08
	00 00		 mov	 rax, QWORD PTR [rax+2152]
  0016d	48 8b 80 08 08
	00 00		 mov	 rax, QWORD PTR [rax+2056]
  00174	48 89 44 24 38	 mov	 QWORD PTR ato$[rsp], rax
$LN7@z900_autho:
  00179	33 c0		 xor	 eax, eax
  0017b	85 c0		 test	 eax, eax
  0017d	0f 85 7a ff ff
	ff		 jne	 $LN4@z900_autho

; 225  : 
; 226  :     ate = regs->mainstor[ato];

  00183	48 8b 44 24 78	 mov	 rax, QWORD PTR regs$[rsp]
  00188	48 8b 80 48 08
	00 00		 mov	 rax, QWORD PTR [rax+2120]
  0018f	48 8b 4c 24 38	 mov	 rcx, QWORD PTR ato$[rsp]
  00194	0f b6 04 08	 movzx	 eax, BYTE PTR [rax+rcx]
  00198	88 44 24 30	 mov	 BYTE PTR ate$[rsp], al

; 227  :     ate <<= ((ax & 0x03)*2);

  0019c	0f b7 44 24 60	 movzx	 eax, WORD PTR ax$[rsp]
  001a1	83 e0 03	 and	 eax, 3
  001a4	d1 e0		 shl	 eax, 1
  001a6	0f b6 c8	 movzx	 ecx, al
  001a9	0f b6 44 24 30	 movzx	 eax, BYTE PTR ate$[rsp]
  001ae	d2 e0		 shl	 al, cl
  001b0	88 44 24 30	 mov	 BYTE PTR ate$[rsp], al

; 228  : 
; 229  :     /* Set the main storage reference bit */
; 230  :     ARCH_DEP( or_storage_key )( ato, STORKEY_REF );

  001b4	b2 04		 mov	 dl, 4
  001b6	48 8b 4c 24 38	 mov	 rcx, QWORD PTR ato$[rsp]
  001bb	e8 00 00 00 00	 call	 z900_or_storage_key

; 231  : 
; 232  :     /* Authorization fails if the specified bit (either X'80' or
; 233  :        X'40' of the 2 bit authority table entry) is zero */
; 234  :     if ((ate & atemask) == 0)

  001c0	0f b6 44 24 30	 movzx	 eax, BYTE PTR ate$[rsp]
  001c5	23 44 24 70	 and	 eax, DWORD PTR atemask$[rsp]
  001c9	85 c0		 test	 eax, eax
  001cb	75 04		 jne	 SHORT $LN8@z900_autho

; 235  :         return true;

  001cd	b0 01		 mov	 al, 1
  001cf	eb 19		 jmp	 SHORT $LN1@z900_autho
$LN8@z900_autho:

; 236  : 
; 237  :     /* Exit with successful return code */
; 238  :     return false;

  001d1	32 c0		 xor	 al, al
  001d3	eb 15		 jmp	 SHORT $LN1@z900_autho
$auth_addr_excp$13:

; 239  : 
; 240  : /* Conditions which always cause program check */
; 241  : auth_addr_excp:
; 242  :     regs->program_interrupt( regs, PGM_ADDRESSING_EXCEPTION );

  001d5	ba 05 00 00 00	 mov	 edx, 5
  001da	48 8b 4c 24 78	 mov	 rcx, QWORD PTR regs$[rsp]
  001df	48 8b 44 24 78	 mov	 rax, QWORD PTR regs$[rsp]
  001e4	ff 90 20 0d 00
	00		 call	 QWORD PTR [rax+3360]
$LN1@z900_autho:
$LN9@z900_autho:

; 243  :     UNREACHABLE_CODE( return false );
; 244  : }

  001ea	48 83 c4 58	 add	 rsp, 88			; 00000058H
  001ee	c3		 ret	 0
z900_authorize_asn ENDP
_TEXT	ENDS
; Function compile flags: /Odtp
; File C:\papa\MyGit\hyperion-zvector\dat.h
;	COMDAT z900_purge_alb_all
_TEXT	SEGMENT
cpu$ = 32
tv92 = 36
p$1 = 40
p$2 = 48
regs$ = 80
z900_purge_alb_all PROC					; COMDAT

; 136  : {

$LN19:
  00000	48 89 4c 24 08	 mov	 QWORD PTR [rsp+8], rcx
  00005	48 83 ec 48	 sub	 rsp, 72			; 00000048H

; 137  :     int  cpu;
; 138  : 
; 139  :     if (!IS_INTLOCK_HELD( regs ))   // (sanity check)

  00009	48 8b 05 00 00
	00 00		 mov	 rax, QWORD PTR __imp_sysblk
  00010	0f b7 80 62 10
	00 00		 movzx	 eax, WORD PTR [rax+4194]
  00017	48 8b 4c 24 50	 mov	 rcx, QWORD PTR regs$[rsp]
  0001c	0f b7 89 3c 08
	00 00		 movzx	 ecx, WORD PTR [rcx+2108]
  00023	3b c1		 cmp	 eax, ecx
  00025	74 17		 je	 SHORT $LN13@z900_purge
$LN4@z900_purge:

; 140  :         CRASH();                    // (logic error!)

  00027	48 c7 44 24 28
	00 00 00 00	 mov	 QWORD PTR p$1[rsp], 0
  00030	48 8b 44 24 28	 mov	 rax, QWORD PTR p$1[rsp]
  00035	c6 00 00	 mov	 BYTE PTR [rax], 0
  00038	33 c0		 xor	 eax, eax
  0003a	85 c0		 test	 eax, eax
  0003c	75 e9		 jne	 SHORT $LN4@z900_purge
$LN13@z900_purge:

; 141  : 
; 142  :     for (cpu=0; cpu < sysblk.maxcpu; cpu++)

  0003e	c7 44 24 20 00
	00 00 00	 mov	 DWORD PTR cpu$[rsp], 0
  00046	eb 0a		 jmp	 SHORT $LN7@z900_purge
$LN5@z900_purge:
  00048	8b 44 24 20	 mov	 eax, DWORD PTR cpu$[rsp]
  0004c	ff c0		 inc	 eax
  0004e	89 44 24 20	 mov	 DWORD PTR cpu$[rsp], eax
$LN7@z900_purge:
  00052	48 8b 05 00 00
	00 00		 mov	 rax, QWORD PTR __imp_sysblk
  00059	8b 80 00 01 00
	00		 mov	 eax, DWORD PTR [rax+256]
  0005f	39 44 24 20	 cmp	 DWORD PTR cpu$[rsp], eax
  00063	0f 8d d1 00 00
	00		 jge	 $LN6@z900_purge

; 143  :     {
; 144  :         if (1
; 145  :             && IS_CPU_ONLINE(cpu)
; 146  :             && (sysblk.regs[ cpu ]->cpubit & sysblk.started_mask)

  00069	33 c0		 xor	 eax, eax
  0006b	83 f8 01	 cmp	 eax, 1
  0006e	0f 84 c1 00 00
	00		 je	 $LN14@z900_purge
  00074	48 63 44 24 20	 movsxd	 rax, DWORD PTR cpu$[rsp]
  00079	48 8b 0d 00 00
	00 00		 mov	 rcx, QWORD PTR __imp_sysblk
  00080	48 83 bc c1 98
	0b 00 00 00	 cmp	 QWORD PTR [rcx+rax*8+2968], 0
  00089	0f 84 a6 00 00
	00		 je	 $LN14@z900_purge
  0008f	48 63 44 24 20	 movsxd	 rax, DWORD PTR cpu$[rsp]
  00094	48 8b 0d 00 00
	00 00		 mov	 rcx, QWORD PTR __imp_sysblk
  0009b	48 8b 84 c1 98
	0b 00 00	 mov	 rax, QWORD PTR [rcx+rax*8+2968]
  000a3	48 8b 0d 00 00
	00 00		 mov	 rcx, QWORD PTR __imp_sysblk
  000aa	48 8b 89 b0 12
	00 00		 mov	 rcx, QWORD PTR [rcx+4784]
  000b1	48 8b 40 50	 mov	 rax, QWORD PTR [rax+80]
  000b5	48 23 c1	 and	 rax, rcx
  000b8	48 85 c0	 test	 rax, rax
  000bb	74 78		 je	 SHORT $LN14@z900_purge

; 147  :         )
; 148  :         {
; 149  :             switch (sysblk.regs[ cpu ]->arch_mode)

  000bd	48 63 44 24 20	 movsxd	 rax, DWORD PTR cpu$[rsp]
  000c2	48 8b 0d 00 00
	00 00		 mov	 rcx, QWORD PTR __imp_sysblk
  000c9	48 8b 84 c1 98
	0b 00 00	 mov	 rax, QWORD PTR [rcx+rax*8+2968]
  000d1	8b 40 64	 mov	 eax, DWORD PTR [rax+100]
  000d4	89 44 24 24	 mov	 DWORD PTR tv92[rsp], eax
  000d8	83 7c 24 24 01	 cmp	 DWORD PTR tv92[rsp], 1
  000dd	74 09		 je	 SHORT $LN15@z900_purge
  000df	83 7c 24 24 02	 cmp	 DWORD PTR tv92[rsp], 2
  000e4	74 1d		 je	 SHORT $LN16@z900_purge
  000e6	eb 36		 jmp	 SHORT $LN17@z900_purge
$LN15@z900_purge:

; 150  :             {
; 151  :             case ARCH_390_IDX: s390_purge_alb( sysblk.regs[ cpu ]); break;

  000e8	48 63 44 24 20	 movsxd	 rax, DWORD PTR cpu$[rsp]
  000ed	48 8b 0d 00 00
	00 00		 mov	 rcx, QWORD PTR __imp_sysblk
  000f4	48 8b 8c c1 98
	0b 00 00	 mov	 rcx, QWORD PTR [rcx+rax*8+2968]
  000fc	e8 00 00 00 00	 call	 s390_purge_alb
  00101	eb 32		 jmp	 SHORT $LN8@z900_purge
$LN16@z900_purge:

; 152  :             case ARCH_900_IDX: z900_purge_alb( sysblk.regs[ cpu ]); break;

  00103	48 63 44 24 20	 movsxd	 rax, DWORD PTR cpu$[rsp]
  00108	48 8b 0d 00 00
	00 00		 mov	 rcx, QWORD PTR __imp_sysblk
  0010f	48 8b 8c c1 98
	0b 00 00	 mov	 rcx, QWORD PTR [rcx+rax*8+2968]
  00117	e8 00 00 00 00	 call	 z900_purge_alb
  0011c	eb 17		 jmp	 SHORT $LN8@z900_purge
$LN17@z900_purge:
$LN12@z900_purge:

; 153  :             default: CRASH(); // (370 doesn't have access registers)

  0011e	48 c7 44 24 30
	00 00 00 00	 mov	 QWORD PTR p$2[rsp], 0
  00127	48 8b 44 24 30	 mov	 rax, QWORD PTR p$2[rsp]
  0012c	c6 00 00	 mov	 BYTE PTR [rax], 0
  0012f	33 c0		 xor	 eax, eax
  00131	85 c0		 test	 eax, eax
  00133	75 e9		 jne	 SHORT $LN12@z900_purge
$LN8@z900_purge:
$LN14@z900_purge:

; 154  :             }
; 155  :         }
; 156  :     }

  00135	e9 0e ff ff ff	 jmp	 $LN5@z900_purge
$LN6@z900_purge:

; 157  : }

  0013a	48 83 c4 48	 add	 rsp, 72			; 00000048H
  0013e	c3		 ret	 0
z900_purge_alb_all ENDP
_TEXT	ENDS
; Function compile flags: /Odtp
; File C:\papa\MyGit\hyperion-zvector\dat.h
;	COMDAT z900_purge_tlbe_all
_TEXT	SEGMENT
cpu$ = 32
tv137 = 36
p$1 = 40
p$2 = 48
regs$ = 80
pfra$ = 88
cpuad$ = 96
z900_purge_tlbe_all PROC				; COMDAT

; 102  : {

$LN21:
  00000	66 44 89 44 24
	18		 mov	 WORD PTR [rsp+24], r8w
  00006	48 89 54 24 10	 mov	 QWORD PTR [rsp+16], rdx
  0000b	48 89 4c 24 08	 mov	 QWORD PTR [rsp+8], rcx
  00010	48 83 ec 48	 sub	 rsp, 72			; 00000048H

; 103  :     int  cpu;
; 104  : 
; 105  :     if (0xFFFF == cpuad && !IS_INTLOCK_HELD( regs ))  // (sanity check)

  00014	0f b7 44 24 60	 movzx	 eax, WORD PTR cpuad$[rsp]
  00019	3d ff ff 00 00	 cmp	 eax, 65535		; 0000ffffH
  0001e	75 35		 jne	 SHORT $LN13@z900_purge
  00020	48 8b 05 00 00
	00 00		 mov	 rax, QWORD PTR __imp_sysblk
  00027	0f b7 80 62 10
	00 00		 movzx	 eax, WORD PTR [rax+4194]
  0002e	48 8b 4c 24 50	 mov	 rcx, QWORD PTR regs$[rsp]
  00033	0f b7 89 3c 08
	00 00		 movzx	 ecx, WORD PTR [rcx+2108]
  0003a	3b c1		 cmp	 eax, ecx
  0003c	74 17		 je	 SHORT $LN13@z900_purge
$LN4@z900_purge:

; 106  :         CRASH();                                      // (logic error!)

  0003e	48 c7 44 24 28
	00 00 00 00	 mov	 QWORD PTR p$1[rsp], 0
  00047	48 8b 44 24 28	 mov	 rax, QWORD PTR p$1[rsp]
  0004c	c6 00 00	 mov	 BYTE PTR [rax], 0
  0004f	33 c0		 xor	 eax, eax
  00051	85 c0		 test	 eax, eax
  00053	75 e9		 jne	 SHORT $LN4@z900_purge
$LN13@z900_purge:

; 107  : 
; 108  :     for (cpu=0; cpu < sysblk.maxcpu; cpu++)

  00055	c7 44 24 20 00
	00 00 00	 mov	 DWORD PTR cpu$[rsp], 0
  0005d	eb 0a		 jmp	 SHORT $LN7@z900_purge
$LN5@z900_purge:
  0005f	8b 44 24 20	 mov	 eax, DWORD PTR cpu$[rsp]
  00063	ff c0		 inc	 eax
  00065	89 44 24 20	 mov	 DWORD PTR cpu$[rsp], eax
$LN7@z900_purge:
  00069	48 8b 05 00 00
	00 00		 mov	 rax, QWORD PTR __imp_sysblk
  00070	8b 80 00 01 00
	00		 mov	 eax, DWORD PTR [rax+256]
  00076	39 44 24 20	 cmp	 DWORD PTR cpu$[rsp], eax
  0007a	0f 8d 40 01 00
	00		 jge	 $LN6@z900_purge

; 109  :     {
; 110  :         if (1
; 111  :             && IS_CPU_ONLINE(cpu)
; 112  :             && (sysblk.regs[ cpu ]->cpubit & sysblk.started_mask)
; 113  :             && (0

  00080	33 c0		 xor	 eax, eax
  00082	83 f8 01	 cmp	 eax, 1
  00085	0f 84 30 01 00
	00		 je	 $LN14@z900_purge
  0008b	48 63 44 24 20	 movsxd	 rax, DWORD PTR cpu$[rsp]
  00090	48 8b 0d 00 00
	00 00		 mov	 rcx, QWORD PTR __imp_sysblk
  00097	48 83 bc c1 98
	0b 00 00 00	 cmp	 QWORD PTR [rcx+rax*8+2968], 0
  000a0	0f 84 15 01 00
	00		 je	 $LN14@z900_purge
  000a6	48 63 44 24 20	 movsxd	 rax, DWORD PTR cpu$[rsp]
  000ab	48 8b 0d 00 00
	00 00		 mov	 rcx, QWORD PTR __imp_sysblk
  000b2	48 8b 84 c1 98
	0b 00 00	 mov	 rax, QWORD PTR [rcx+rax*8+2968]
  000ba	48 8b 0d 00 00
	00 00		 mov	 rcx, QWORD PTR __imp_sysblk
  000c1	48 8b 89 b0 12
	00 00		 mov	 rcx, QWORD PTR [rcx+4784]
  000c8	48 8b 40 50	 mov	 rax, QWORD PTR [rax+80]
  000cc	48 23 c1	 and	 rax, rcx
  000cf	48 85 c0	 test	 rax, rax
  000d2	0f 84 e3 00 00
	00		 je	 $LN14@z900_purge
  000d8	33 c0		 xor	 eax, eax
  000da	85 c0		 test	 eax, eax
  000dc	75 34		 jne	 SHORT $LN15@z900_purge
  000de	0f b7 44 24 60	 movzx	 eax, WORD PTR cpuad$[rsp]
  000e3	3d ff ff 00 00	 cmp	 eax, 65535		; 0000ffffH
  000e8	74 28		 je	 SHORT $LN15@z900_purge
  000ea	48 63 44 24 20	 movsxd	 rax, DWORD PTR cpu$[rsp]
  000ef	48 8b 0d 00 00
	00 00		 mov	 rcx, QWORD PTR __imp_sysblk
  000f6	48 8b 84 c1 98
	0b 00 00	 mov	 rax, QWORD PTR [rcx+rax*8+2968]
  000fe	0f b7 80 3c 08
	00 00		 movzx	 eax, WORD PTR [rax+2108]
  00105	0f b7 4c 24 60	 movzx	 ecx, WORD PTR cpuad$[rsp]
  0010a	3b c1		 cmp	 eax, ecx
  0010c	0f 85 a9 00 00
	00		 jne	 $LN14@z900_purge
$LN15@z900_purge:

; 114  :                 || 0xFFFF == cpuad
; 115  :                 || sysblk.regs[ cpu ]->cpuad == cpuad
; 116  :                )
; 117  :         )
; 118  :         {
; 119  :             switch (sysblk.regs[ cpu ]->arch_mode)

  00112	48 63 44 24 20	 movsxd	 rax, DWORD PTR cpu$[rsp]
  00117	48 8b 0d 00 00
	00 00		 mov	 rcx, QWORD PTR __imp_sysblk
  0011e	48 8b 84 c1 98
	0b 00 00	 mov	 rax, QWORD PTR [rcx+rax*8+2968]
  00126	8b 40 64	 mov	 eax, DWORD PTR [rax+100]
  00129	89 44 24 24	 mov	 DWORD PTR tv137[rsp], eax
  0012d	83 7c 24 24 00	 cmp	 DWORD PTR tv137[rsp], 0
  00132	74 10		 je	 SHORT $LN16@z900_purge
  00134	83 7c 24 24 01	 cmp	 DWORD PTR tv137[rsp], 1
  00139	74 29		 je	 SHORT $LN17@z900_purge
  0013b	83 7c 24 24 02	 cmp	 DWORD PTR tv137[rsp], 2
  00140	74 42		 je	 SHORT $LN18@z900_purge
  00142	eb 60		 jmp	 SHORT $LN19@z900_purge
$LN16@z900_purge:

; 120  :             {
; 121  :             case ARCH_370_IDX: s370_purge_tlbe( sysblk.regs[ cpu ], pfra ); break;

  00144	48 63 44 24 20	 movsxd	 rax, DWORD PTR cpu$[rsp]
  00149	48 8b 54 24 58	 mov	 rdx, QWORD PTR pfra$[rsp]
  0014e	48 8b 0d 00 00
	00 00		 mov	 rcx, QWORD PTR __imp_sysblk
  00155	48 8b 8c c1 98
	0b 00 00	 mov	 rcx, QWORD PTR [rcx+rax*8+2968]
  0015d	e8 00 00 00 00	 call	 s370_purge_tlbe
  00162	eb 57		 jmp	 SHORT $LN8@z900_purge
$LN17@z900_purge:

; 122  :             case ARCH_390_IDX: s390_purge_tlbe( sysblk.regs[ cpu ], pfra ); break;

  00164	48 63 44 24 20	 movsxd	 rax, DWORD PTR cpu$[rsp]
  00169	48 8b 54 24 58	 mov	 rdx, QWORD PTR pfra$[rsp]
  0016e	48 8b 0d 00 00
	00 00		 mov	 rcx, QWORD PTR __imp_sysblk
  00175	48 8b 8c c1 98
	0b 00 00	 mov	 rcx, QWORD PTR [rcx+rax*8+2968]
  0017d	e8 00 00 00 00	 call	 s390_purge_tlbe
  00182	eb 37		 jmp	 SHORT $LN8@z900_purge
$LN18@z900_purge:

; 123  :             case ARCH_900_IDX: z900_purge_tlbe( sysblk.regs[ cpu ], pfra ); break;

  00184	48 63 44 24 20	 movsxd	 rax, DWORD PTR cpu$[rsp]
  00189	48 8b 54 24 58	 mov	 rdx, QWORD PTR pfra$[rsp]
  0018e	48 8b 0d 00 00
	00 00		 mov	 rcx, QWORD PTR __imp_sysblk
  00195	48 8b 8c c1 98
	0b 00 00	 mov	 rcx, QWORD PTR [rcx+rax*8+2968]
  0019d	e8 00 00 00 00	 call	 z900_purge_tlbe
  001a2	eb 17		 jmp	 SHORT $LN8@z900_purge
$LN19@z900_purge:
$LN12@z900_purge:

; 124  :             default: CRASH();

  001a4	48 c7 44 24 30
	00 00 00 00	 mov	 QWORD PTR p$2[rsp], 0
  001ad	48 8b 44 24 30	 mov	 rax, QWORD PTR p$2[rsp]
  001b2	c6 00 00	 mov	 BYTE PTR [rax], 0
  001b5	33 c0		 xor	 eax, eax
  001b7	85 c0		 test	 eax, eax
  001b9	75 e9		 jne	 SHORT $LN12@z900_purge
$LN8@z900_purge:
$LN14@z900_purge:

; 125  :             }
; 126  :         }
; 127  :     }

  001bb	e9 9f fe ff ff	 jmp	 $LN5@z900_purge
$LN6@z900_purge:

; 128  : }

  001c0	48 83 c4 48	 add	 rsp, 72			; 00000048H
  001c4	c3		 ret	 0
z900_purge_tlbe_all ENDP
_TEXT	ENDS
; Function compile flags: /Odtp
; File C:\papa\MyGit\hyperion-zvector\dat.h
;	COMDAT z900_purge_tlb_all
_TEXT	SEGMENT
cpu$ = 32
tv137 = 36
p$1 = 40
p$2 = 48
regs$ = 80
cpuad$ = 88
z900_purge_tlb_all PROC					; COMDAT

; 69   : {

$LN21:
  00000	66 89 54 24 10	 mov	 WORD PTR [rsp+16], dx
  00005	48 89 4c 24 08	 mov	 QWORD PTR [rsp+8], rcx
  0000a	48 83 ec 48	 sub	 rsp, 72			; 00000048H

; 70   :     int  cpu;
; 71   : 
; 72   :     if (0xFFFF == cpuad && !IS_INTLOCK_HELD( regs ))  // (sanity check)

  0000e	0f b7 44 24 58	 movzx	 eax, WORD PTR cpuad$[rsp]
  00013	3d ff ff 00 00	 cmp	 eax, 65535		; 0000ffffH
  00018	75 35		 jne	 SHORT $LN13@z900_purge
  0001a	48 8b 05 00 00
	00 00		 mov	 rax, QWORD PTR __imp_sysblk
  00021	0f b7 80 62 10
	00 00		 movzx	 eax, WORD PTR [rax+4194]
  00028	48 8b 4c 24 50	 mov	 rcx, QWORD PTR regs$[rsp]
  0002d	0f b7 89 3c 08
	00 00		 movzx	 ecx, WORD PTR [rcx+2108]
  00034	3b c1		 cmp	 eax, ecx
  00036	74 17		 je	 SHORT $LN13@z900_purge
$LN4@z900_purge:

; 73   :         CRASH();                                      // (logic error!)

  00038	48 c7 44 24 28
	00 00 00 00	 mov	 QWORD PTR p$1[rsp], 0
  00041	48 8b 44 24 28	 mov	 rax, QWORD PTR p$1[rsp]
  00046	c6 00 00	 mov	 BYTE PTR [rax], 0
  00049	33 c0		 xor	 eax, eax
  0004b	85 c0		 test	 eax, eax
  0004d	75 e9		 jne	 SHORT $LN4@z900_purge
$LN13@z900_purge:

; 74   : 
; 75   :     for (cpu=0; cpu < sysblk.maxcpu; cpu++)

  0004f	c7 44 24 20 00
	00 00 00	 mov	 DWORD PTR cpu$[rsp], 0
  00057	eb 0a		 jmp	 SHORT $LN7@z900_purge
$LN5@z900_purge:
  00059	8b 44 24 20	 mov	 eax, DWORD PTR cpu$[rsp]
  0005d	ff c0		 inc	 eax
  0005f	89 44 24 20	 mov	 DWORD PTR cpu$[rsp], eax
$LN7@z900_purge:
  00063	48 8b 05 00 00
	00 00		 mov	 rax, QWORD PTR __imp_sysblk
  0006a	8b 80 00 01 00
	00		 mov	 eax, DWORD PTR [rax+256]
  00070	39 44 24 20	 cmp	 DWORD PTR cpu$[rsp], eax
  00074	0f 8d 31 01 00
	00		 jge	 $LN6@z900_purge

; 76   :     {
; 77   :         if (1
; 78   :             && IS_CPU_ONLINE(cpu)
; 79   :             && (sysblk.regs[ cpu ]->cpubit & sysblk.started_mask)
; 80   :             && (0

  0007a	33 c0		 xor	 eax, eax
  0007c	83 f8 01	 cmp	 eax, 1
  0007f	0f 84 21 01 00
	00		 je	 $LN14@z900_purge
  00085	48 63 44 24 20	 movsxd	 rax, DWORD PTR cpu$[rsp]
  0008a	48 8b 0d 00 00
	00 00		 mov	 rcx, QWORD PTR __imp_sysblk
  00091	48 83 bc c1 98
	0b 00 00 00	 cmp	 QWORD PTR [rcx+rax*8+2968], 0
  0009a	0f 84 06 01 00
	00		 je	 $LN14@z900_purge
  000a0	48 63 44 24 20	 movsxd	 rax, DWORD PTR cpu$[rsp]
  000a5	48 8b 0d 00 00
	00 00		 mov	 rcx, QWORD PTR __imp_sysblk
  000ac	48 8b 84 c1 98
	0b 00 00	 mov	 rax, QWORD PTR [rcx+rax*8+2968]
  000b4	48 8b 0d 00 00
	00 00		 mov	 rcx, QWORD PTR __imp_sysblk
  000bb	48 8b 89 b0 12
	00 00		 mov	 rcx, QWORD PTR [rcx+4784]
  000c2	48 8b 40 50	 mov	 rax, QWORD PTR [rax+80]
  000c6	48 23 c1	 and	 rax, rcx
  000c9	48 85 c0	 test	 rax, rax
  000cc	0f 84 d4 00 00
	00		 je	 $LN14@z900_purge
  000d2	33 c0		 xor	 eax, eax
  000d4	85 c0		 test	 eax, eax
  000d6	75 34		 jne	 SHORT $LN15@z900_purge
  000d8	0f b7 44 24 58	 movzx	 eax, WORD PTR cpuad$[rsp]
  000dd	3d ff ff 00 00	 cmp	 eax, 65535		; 0000ffffH
  000e2	74 28		 je	 SHORT $LN15@z900_purge
  000e4	48 63 44 24 20	 movsxd	 rax, DWORD PTR cpu$[rsp]
  000e9	48 8b 0d 00 00
	00 00		 mov	 rcx, QWORD PTR __imp_sysblk
  000f0	48 8b 84 c1 98
	0b 00 00	 mov	 rax, QWORD PTR [rcx+rax*8+2968]
  000f8	0f b7 80 3c 08
	00 00		 movzx	 eax, WORD PTR [rax+2108]
  000ff	0f b7 4c 24 58	 movzx	 ecx, WORD PTR cpuad$[rsp]
  00104	3b c1		 cmp	 eax, ecx
  00106	0f 85 9a 00 00
	00		 jne	 $LN14@z900_purge
$LN15@z900_purge:

; 81   :                 || 0xFFFF == cpuad
; 82   :                 || sysblk.regs[ cpu ]->cpuad == cpuad
; 83   :                )
; 84   :         )
; 85   :         {
; 86   :             switch (sysblk.regs[ cpu ]->arch_mode)

  0010c	48 63 44 24 20	 movsxd	 rax, DWORD PTR cpu$[rsp]
  00111	48 8b 0d 00 00
	00 00		 mov	 rcx, QWORD PTR __imp_sysblk
  00118	48 8b 84 c1 98
	0b 00 00	 mov	 rax, QWORD PTR [rcx+rax*8+2968]
  00120	8b 40 64	 mov	 eax, DWORD PTR [rax+100]
  00123	89 44 24 24	 mov	 DWORD PTR tv137[rsp], eax
  00127	83 7c 24 24 00	 cmp	 DWORD PTR tv137[rsp], 0
  0012c	74 10		 je	 SHORT $LN16@z900_purge
  0012e	83 7c 24 24 01	 cmp	 DWORD PTR tv137[rsp], 1
  00133	74 24		 je	 SHORT $LN17@z900_purge
  00135	83 7c 24 24 02	 cmp	 DWORD PTR tv137[rsp], 2
  0013a	74 38		 je	 SHORT $LN18@z900_purge
  0013c	eb 51		 jmp	 SHORT $LN19@z900_purge
$LN16@z900_purge:

; 87   :             {
; 88   :             case ARCH_370_IDX: s370_purge_tlb( sysblk.regs[ cpu ]); break;

  0013e	48 63 44 24 20	 movsxd	 rax, DWORD PTR cpu$[rsp]
  00143	48 8b 0d 00 00
	00 00		 mov	 rcx, QWORD PTR __imp_sysblk
  0014a	48 8b 8c c1 98
	0b 00 00	 mov	 rcx, QWORD PTR [rcx+rax*8+2968]
  00152	e8 00 00 00 00	 call	 s370_purge_tlb
  00157	eb 4d		 jmp	 SHORT $LN8@z900_purge
$LN17@z900_purge:

; 89   :             case ARCH_390_IDX: s390_purge_tlb( sysblk.regs[ cpu ]); break;

  00159	48 63 44 24 20	 movsxd	 rax, DWORD PTR cpu$[rsp]
  0015e	48 8b 0d 00 00
	00 00		 mov	 rcx, QWORD PTR __imp_sysblk
  00165	48 8b 8c c1 98
	0b 00 00	 mov	 rcx, QWORD PTR [rcx+rax*8+2968]
  0016d	e8 00 00 00 00	 call	 s390_purge_tlb
  00172	eb 32		 jmp	 SHORT $LN8@z900_purge
$LN18@z900_purge:

; 90   :             case ARCH_900_IDX: z900_purge_tlb( sysblk.regs[ cpu ]); break;

  00174	48 63 44 24 20	 movsxd	 rax, DWORD PTR cpu$[rsp]
  00179	48 8b 0d 00 00
	00 00		 mov	 rcx, QWORD PTR __imp_sysblk
  00180	48 8b 8c c1 98
	0b 00 00	 mov	 rcx, QWORD PTR [rcx+rax*8+2968]
  00188	e8 00 00 00 00	 call	 z900_purge_tlb
  0018d	eb 17		 jmp	 SHORT $LN8@z900_purge
$LN19@z900_purge:
$LN12@z900_purge:

; 91   :             default: CRASH();

  0018f	48 c7 44 24 30
	00 00 00 00	 mov	 QWORD PTR p$2[rsp], 0
  00198	48 8b 44 24 30	 mov	 rax, QWORD PTR p$2[rsp]
  0019d	c6 00 00	 mov	 BYTE PTR [rax], 0
  001a0	33 c0		 xor	 eax, eax
  001a2	85 c0		 test	 eax, eax
  001a4	75 e9		 jne	 SHORT $LN12@z900_purge
$LN8@z900_purge:
$LN14@z900_purge:

; 92   :             }
; 93   :         }
; 94   :     }

  001a6	e9 ae fe ff ff	 jmp	 $LN5@z900_purge
$LN6@z900_purge:

; 95   : }

  001ab	48 83 c4 48	 add	 rsp, 72			; 00000048H
  001af	c3		 ret	 0
z900_purge_tlb_all ENDP
_TEXT	ENDS
; Function compile flags: /Odtp
; File C:\papa\MyGit\hyperion-zvector\dat.c
_TEXT	SEGMENT
aste_addr$ = 32
afte_addr$ = 36
i$ = 40
code$ = 44
afte$ = 48
numwords$ = 52
aste_main$ = 56
tv89 = 64
tv155 = 72
asn$ = 96
regs$ = 104
asteo$ = 112
aste$ = 120
z900_translate_asn PROC

; 281  : {

$LN18:
  00000	4c 89 4c 24 20	 mov	 QWORD PTR [rsp+32], r9
  00005	4c 89 44 24 18	 mov	 QWORD PTR [rsp+24], r8
  0000a	48 89 54 24 10	 mov	 QWORD PTR [rsp+16], rdx
  0000f	66 89 4c 24 08	 mov	 WORD PTR [rsp+8], cx
  00014	48 83 ec 58	 sub	 rsp, 88			; 00000058H

; 282  : U32     afte_addr;                      /* Address of AFTE           */
; 283  : U32     afte;                           /* ASN first table entry     */
; 284  : U32     aste_addr;                      /* Address of ASTE           */
; 285  : BYTE   *aste_main;                      /* ASTE mainstor address     */
; 286  : int     code;                           /* Exception code            */
; 287  : int     numwords;                       /* ASTE size (4 or 16 words) */
; 288  : int     i;                              /* Array subscript           */
; 289  : 
; 290  :     /* [3.9.3.1] Use the AFX to obtain the real address of the AFTE */
; 291  :     afte_addr = (regs->CR(14) & CR14_AFTO) << 12;

  00018	b8 08 00 00 00	 mov	 eax, 8
  0001d	48 6b c0 0f	 imul	 rax, rax, 15
  00021	48 8b 4c 24 68	 mov	 rcx, QWORD PTR regs$[rsp]
  00026	48 8b 84 01 00
	06 00 00	 mov	 rax, QWORD PTR [rcx+rax+1536]
  0002e	48 25 ff ff 07
	00		 and	 rax, 524287		; 0007ffffH
  00034	48 c1 e0 0c	 shl	 rax, 12
  00038	89 44 24 24	 mov	 DWORD PTR afte_addr$[rsp], eax

; 292  :     afte_addr += (asn & ASN_AFX) >> 4;

  0003c	0f b7 44 24 60	 movzx	 eax, WORD PTR asn$[rsp]
  00041	25 c0 ff 00 00	 and	 eax, 65472		; 0000ffc0H
  00046	c1 f8 04	 sar	 eax, 4
  00049	8b 4c 24 24	 mov	 ecx, DWORD PTR afte_addr$[rsp]
  0004d	03 c8		 add	 ecx, eax
  0004f	8b c1		 mov	 eax, ecx
  00051	89 44 24 24	 mov	 DWORD PTR afte_addr$[rsp], eax

; 293  : 
; 294  :     /* Addressing exception if AFTE is outside main storage */
; 295  :     if (afte_addr > regs->mainlim)

  00055	8b 44 24 24	 mov	 eax, DWORD PTR afte_addr$[rsp]
  00059	48 8b 4c 24 68	 mov	 rcx, QWORD PTR regs$[rsp]
  0005e	48 3b 81 58 08
	00 00		 cmp	 rax, QWORD PTR [rcx+2136]
  00065	76 05		 jbe	 SHORT $LN7@z900_trans

; 296  :         goto asn_addr_excp;

  00067	e9 eb 01 00 00	 jmp	 $asn_addr_excp$19
$LN7@z900_trans:

; 297  : 
; 298  :     /* Load the AFTE from main storage. All four bytes must be
; 299  :        fetched concurrently as observed by other CPUs */
; 300  :     afte_addr = APPLY_PREFIXING (afte_addr, regs->PX);

  0006c	8b 44 24 24	 mov	 eax, DWORD PTR afte_addr$[rsp]
  00070	48 25 00 e0 ff
	ff		 and	 rax, -8192		; ffffffffffffe000H
  00076	48 85 c0	 test	 rax, rax
  00079	74 20		 je	 SHORT $LN14@z900_trans
  0007b	8b 44 24 24	 mov	 eax, DWORD PTR afte_addr$[rsp]
  0007f	48 25 00 e0 ff
	ff		 and	 rax, -8192		; ffffffffffffe000H
  00085	48 8b 4c 24 68	 mov	 rcx, QWORD PTR regs$[rsp]
  0008a	48 3b 41 70	 cmp	 rax, QWORD PTR [rcx+112]
  0008e	74 0b		 je	 SHORT $LN14@z900_trans
  00090	8b 44 24 24	 mov	 eax, DWORD PTR afte_addr$[rsp]
  00094	48 89 44 24 40	 mov	 QWORD PTR tv89[rsp], rax
  00099	eb 12		 jmp	 SHORT $LN15@z900_trans
$LN14@z900_trans:
  0009b	8b 44 24 24	 mov	 eax, DWORD PTR afte_addr$[rsp]
  0009f	48 8b 4c 24 68	 mov	 rcx, QWORD PTR regs$[rsp]
  000a4	48 33 41 70	 xor	 rax, QWORD PTR [rcx+112]
  000a8	48 89 44 24 40	 mov	 QWORD PTR tv89[rsp], rax
$LN15@z900_trans:
  000ad	8b 44 24 40	 mov	 eax, DWORD PTR tv89[rsp]
  000b1	89 44 24 24	 mov	 DWORD PTR afte_addr$[rsp], eax

; 301  :     afte = ARCH_DEP(fetch_fullword_absolute) (afte_addr, regs);

  000b5	8b 44 24 24	 mov	 eax, DWORD PTR afte_addr$[rsp]
  000b9	48 8b 54 24 68	 mov	 rdx, QWORD PTR regs$[rsp]
  000be	8b c8		 mov	 ecx, eax
  000c0	e8 00 00 00 00	 call	 z900_fetch_fullword_absolute
  000c5	89 44 24 30	 mov	 DWORD PTR afte$[rsp], eax

; 302  : 
; 303  :     /* AFX translation exception if AFTE invalid bit is set */
; 304  :     if (afte & AFTE_INVALID)

  000c9	8b 44 24 30	 mov	 eax, DWORD PTR afte$[rsp]
  000cd	25 00 00 00 80	 and	 eax, -2147483648	; 80000000H
  000d2	85 c0		 test	 eax, eax
  000d4	74 05		 je	 SHORT $LN8@z900_trans

; 305  :         goto asn_afx_tran_excp;

  000d6	e9 98 01 00 00	 jmp	 $asn_afx_tran_excp$20
$LN8@z900_trans:

; 306  : 
; 307  : #if !defined( FEATURE_001_ZARCH_INSTALLED_FACILITY )
; 308  :     /* ASN translation specification exception if reserved bits set */
; 309  :     if (!ASF_ENABLED(regs)) {
; 310  :         if (afte & AFTE_RESV_0)
; 311  :               goto asn_asn_tran_spec_excp;
; 312  :     } else {
; 313  :         if (afte & AFTE_RESV_1)
; 314  :               goto asn_asn_tran_spec_excp;
; 315  :     }
; 316  : #endif
; 317  : 
; 318  :     /* [3.9.3.2] Use AFTE and ASX to obtain real address of ASTE */
; 319  :     if (!ASF_ENABLED(regs)) {

  000db	33 c0		 xor	 eax, eax
  000dd	85 c0		 test	 eax, eax
  000df	74 2e		 je	 SHORT $LN9@z900_trans

; 320  :         aste_addr = afte & AFTE_ASTO_0;

  000e1	8b 44 24 30	 mov	 eax, DWORD PTR afte$[rsp]
  000e5	25 f0 ff ff 7f	 and	 eax, 2147483632		; 7ffffff0H
  000ea	89 44 24 20	 mov	 DWORD PTR aste_addr$[rsp], eax

; 321  :         aste_addr += (asn & ASN_ASX) << 4;

  000ee	0f b7 44 24 60	 movzx	 eax, WORD PTR asn$[rsp]
  000f3	83 e0 3f	 and	 eax, 63			; 0000003fH
  000f6	c1 e0 04	 shl	 eax, 4
  000f9	8b 4c 24 20	 mov	 ecx, DWORD PTR aste_addr$[rsp]
  000fd	03 c8		 add	 ecx, eax
  000ff	8b c1		 mov	 eax, ecx
  00101	89 44 24 20	 mov	 DWORD PTR aste_addr$[rsp], eax

; 322  :         numwords = 4;

  00105	c7 44 24 34 04
	00 00 00	 mov	 DWORD PTR numwords$[rsp], 4

; 323  :     } else {

  0010d	eb 2c		 jmp	 SHORT $LN10@z900_trans
$LN9@z900_trans:

; 324  :         aste_addr = afte & AFTE_ASTO_1;

  0010f	8b 44 24 30	 mov	 eax, DWORD PTR afte$[rsp]
  00113	25 c0 ff ff 7f	 and	 eax, 2147483584		; 7fffffc0H
  00118	89 44 24 20	 mov	 DWORD PTR aste_addr$[rsp], eax

; 325  :         aste_addr += (asn & ASN_ASX) << 6;

  0011c	0f b7 44 24 60	 movzx	 eax, WORD PTR asn$[rsp]
  00121	83 e0 3f	 and	 eax, 63			; 0000003fH
  00124	c1 e0 06	 shl	 eax, 6
  00127	8b 4c 24 20	 mov	 ecx, DWORD PTR aste_addr$[rsp]
  0012b	03 c8		 add	 ecx, eax
  0012d	8b c1		 mov	 eax, ecx
  0012f	89 44 24 20	 mov	 DWORD PTR aste_addr$[rsp], eax

; 326  :         numwords = 16;

  00133	c7 44 24 34 10
	00 00 00	 mov	 DWORD PTR numwords$[rsp], 16
$LN10@z900_trans:

; 327  :     }
; 328  : 
; 329  :     /* Ignore carry into bit position 0 of ASTO */
; 330  :     aste_addr &= 0x7FFFFFFF;

  0013b	8b 44 24 20	 mov	 eax, DWORD PTR aste_addr$[rsp]
  0013f	0f ba f0 1f	 btr	 eax, 31
  00143	89 44 24 20	 mov	 DWORD PTR aste_addr$[rsp], eax

; 331  : 
; 332  :     /* Addressing exception if ASTE is outside main storage */
; 333  :     if (aste_addr > regs->mainlim)

  00147	8b 44 24 20	 mov	 eax, DWORD PTR aste_addr$[rsp]
  0014b	48 8b 4c 24 68	 mov	 rcx, QWORD PTR regs$[rsp]
  00150	48 3b 81 58 08
	00 00		 cmp	 rax, QWORD PTR [rcx+2136]
  00157	76 05		 jbe	 SHORT $LN11@z900_trans

; 334  :         goto asn_addr_excp;

  00159	e9 f9 00 00 00	 jmp	 $asn_addr_excp$19
$LN11@z900_trans:

; 335  : 
; 336  :     /* Return the real address of the ASTE */
; 337  :     *asteo = aste_addr;

  0015e	48 8b 44 24 70	 mov	 rax, QWORD PTR asteo$[rsp]
  00163	8b 4c 24 20	 mov	 ecx, DWORD PTR aste_addr$[rsp]
  00167	89 08		 mov	 DWORD PTR [rax], ecx

; 338  : 
; 339  :     /* Fetch the 16- or 64-byte ASN second table entry from real
; 340  :        storage.  Each fullword of the ASTE must be fetched
; 341  :        concurrently as observed by other CPUs */
; 342  :     aste_addr = APPLY_PREFIXING (aste_addr, regs->PX);

  00169	8b 44 24 20	 mov	 eax, DWORD PTR aste_addr$[rsp]
  0016d	48 25 00 e0 ff
	ff		 and	 rax, -8192		; ffffffffffffe000H
  00173	48 85 c0	 test	 rax, rax
  00176	74 20		 je	 SHORT $LN16@z900_trans
  00178	8b 44 24 20	 mov	 eax, DWORD PTR aste_addr$[rsp]
  0017c	48 25 00 e0 ff
	ff		 and	 rax, -8192		; ffffffffffffe000H
  00182	48 8b 4c 24 68	 mov	 rcx, QWORD PTR regs$[rsp]
  00187	48 3b 41 70	 cmp	 rax, QWORD PTR [rcx+112]
  0018b	74 0b		 je	 SHORT $LN16@z900_trans
  0018d	8b 44 24 20	 mov	 eax, DWORD PTR aste_addr$[rsp]
  00191	48 89 44 24 48	 mov	 QWORD PTR tv155[rsp], rax
  00196	eb 12		 jmp	 SHORT $LN17@z900_trans
$LN16@z900_trans:
  00198	8b 44 24 20	 mov	 eax, DWORD PTR aste_addr$[rsp]
  0019c	48 8b 4c 24 68	 mov	 rcx, QWORD PTR regs$[rsp]
  001a1	48 33 41 70	 xor	 rax, QWORD PTR [rcx+112]
  001a5	48 89 44 24 48	 mov	 QWORD PTR tv155[rsp], rax
$LN17@z900_trans:
  001aa	8b 44 24 48	 mov	 eax, DWORD PTR tv155[rsp]
  001ae	89 44 24 20	 mov	 DWORD PTR aste_addr$[rsp], eax

; 343  :     aste_main = FETCH_MAIN_ABSOLUTE(aste_addr, regs, numwords * 4);

  001b2	8b 44 24 20	 mov	 eax, DWORD PTR aste_addr$[rsp]
  001b6	48 8b 54 24 68	 mov	 rdx, QWORD PTR regs$[rsp]
  001bb	8b c8		 mov	 ecx, eax
  001bd	e8 00 00 00 00	 call	 z900_fetch_main_absolute
  001c2	48 89 44 24 38	 mov	 QWORD PTR aste_main$[rsp], rax

; 344  :     for (i = 0; i < numwords; i++)

  001c7	c7 44 24 28 00
	00 00 00	 mov	 DWORD PTR i$[rsp], 0
  001cf	eb 0a		 jmp	 SHORT $LN4@z900_trans
$LN2@z900_trans:
  001d1	8b 44 24 28	 mov	 eax, DWORD PTR i$[rsp]
  001d5	ff c0		 inc	 eax
  001d7	89 44 24 28	 mov	 DWORD PTR i$[rsp], eax
$LN4@z900_trans:
  001db	8b 44 24 34	 mov	 eax, DWORD PTR numwords$[rsp]
  001df	39 44 24 28	 cmp	 DWORD PTR i$[rsp], eax
  001e3	7d 2e		 jge	 SHORT $LN3@z900_trans

; 345  :     {
; 346  :         aste[i] = fetch_fw(aste_main);

  001e5	48 8b 4c 24 38	 mov	 rcx, QWORD PTR aste_main$[rsp]
  001ea	e8 00 00 00 00	 call	 fetch_fw_noswap
  001ef	8b c8		 mov	 ecx, eax
  001f1	e8 00 00 00 00	 call	 _byteswap_ulong
  001f6	48 63 4c 24 28	 movsxd	 rcx, DWORD PTR i$[rsp]
  001fb	48 8b 54 24 78	 mov	 rdx, QWORD PTR aste$[rsp]
  00200	89 04 8a	 mov	 DWORD PTR [rdx+rcx*4], eax

; 347  :         aste_main += 4;

  00203	48 8b 44 24 38	 mov	 rax, QWORD PTR aste_main$[rsp]
  00208	48 83 c0 04	 add	 rax, 4
  0020c	48 89 44 24 38	 mov	 QWORD PTR aste_main$[rsp], rax

; 348  :     }

  00211	eb be		 jmp	 SHORT $LN2@z900_trans
$LN3@z900_trans:
$LN5@z900_trans:

; 349  :     /* Clear remaining words if fewer than 16 words were loaded */
; 350  :     while (i < 16) aste[i++] = 0;

  00213	83 7c 24 28 10	 cmp	 DWORD PTR i$[rsp], 16
  00218	7d 1d		 jge	 SHORT $LN6@z900_trans
  0021a	48 63 44 24 28	 movsxd	 rax, DWORD PTR i$[rsp]
  0021f	48 8b 4c 24 78	 mov	 rcx, QWORD PTR aste$[rsp]
  00224	c7 04 81 00 00
	00 00		 mov	 DWORD PTR [rcx+rax*4], 0
  0022b	8b 44 24 28	 mov	 eax, DWORD PTR i$[rsp]
  0022f	ff c0		 inc	 eax
  00231	89 44 24 28	 mov	 DWORD PTR i$[rsp], eax
  00235	eb dc		 jmp	 SHORT $LN5@z900_trans
$LN6@z900_trans:

; 351  : 
; 352  : 
; 353  :     /* Check the ASX invalid bit in the ASTE */
; 354  :     if (aste[0] & ASTE0_INVALID)

  00237	b8 04 00 00 00	 mov	 eax, 4
  0023c	48 6b c0 00	 imul	 rax, rax, 0
  00240	48 8b 4c 24 78	 mov	 rcx, QWORD PTR aste$[rsp]
  00245	8b 04 01	 mov	 eax, DWORD PTR [rcx+rax]
  00248	25 00 00 00 80	 and	 eax, -2147483648	; 80000000H
  0024d	85 c0		 test	 eax, eax
  0024f	74 02		 je	 SHORT $LN12@z900_trans

; 355  :         goto asn_asx_tran_excp;

  00251	eb 40		 jmp	 SHORT $asn_asx_tran_excp$21
$LN12@z900_trans:

; 356  : 
; 357  : #if !defined( FEATURE_001_ZARCH_INSTALLED_FACILITY )
; 358  :     /* Check the reserved bits in first two words of ASTE */
; 359  :     if ((aste[0] & ASTE0_RESV) || (aste[1] & ASTE1_RESV)
; 360  :         || ((aste[0] & ASTE0_BASE)
; 361  : #ifdef FEATURE_SUBSPACE_GROUP
; 362  :             && !ASF_ENABLED(regs)
; 363  : #endif
; 364  :             ))
; 365  :         goto asn_asn_tran_spec_excp;
; 366  : #endif
; 367  : 
; 368  :     return 0;

  00253	33 c0		 xor	 eax, eax
  00255	eb 5a		 jmp	 SHORT $LN1@z900_trans
$asn_addr_excp$19:

; 369  : 
; 370  : /* Conditions which always cause program check */
; 371  : asn_addr_excp:
; 372  :     code = PGM_ADDRESSING_EXCEPTION;

  00257	c7 44 24 2c 05
	00 00 00	 mov	 DWORD PTR code$[rsp], 5
$asn_prog_check$22:

; 373  :     goto asn_prog_check;
; 374  : 
; 375  : #if !defined( FEATURE_001_ZARCH_INSTALLED_FACILITY )
; 376  : asn_asn_tran_spec_excp:
; 377  :     code = PGM_ASN_TRANSLATION_SPECIFICATION_EXCEPTION;
; 378  :     goto asn_prog_check;
; 379  : #endif
; 380  : 
; 381  : asn_prog_check:
; 382  :     regs->program_interrupt (regs, code);

  0025f	8b 54 24 2c	 mov	 edx, DWORD PTR code$[rsp]
  00263	48 8b 4c 24 68	 mov	 rcx, QWORD PTR regs$[rsp]
  00268	48 8b 44 24 68	 mov	 rax, QWORD PTR regs$[rsp]
  0026d	ff 90 20 0d 00
	00		 call	 QWORD PTR [rax+3360]
$asn_afx_tran_excp$20:

; 383  : 
; 384  : /* Conditions which the caller may or may not program check */
; 385  : asn_afx_tran_excp:
; 386  :     regs->TEA = asn;

  00273	0f b7 44 24 60	 movzx	 eax, WORD PTR asn$[rsp]
  00278	48 8b 4c 24 68	 mov	 rcx, QWORD PTR regs$[rsp]
  0027d	48 89 81 18 07
	00 00		 mov	 QWORD PTR [rcx+1816], rax

; 387  :     code = PGM_AFX_TRANSLATION_EXCEPTION;

  00284	c7 44 24 2c 20
	00 00 00	 mov	 DWORD PTR code$[rsp], 32 ; 00000020H

; 388  :     return code;

  0028c	0f b7 44 24 2c	 movzx	 eax, WORD PTR code$[rsp]
  00291	eb 1e		 jmp	 SHORT $LN1@z900_trans
$asn_asx_tran_excp$21:

; 389  : 
; 390  : asn_asx_tran_excp:
; 391  :     regs->TEA = asn;

  00293	0f b7 44 24 60	 movzx	 eax, WORD PTR asn$[rsp]
  00298	48 8b 4c 24 68	 mov	 rcx, QWORD PTR regs$[rsp]
  0029d	48 89 81 18 07
	00 00		 mov	 QWORD PTR [rcx+1816], rax

; 392  :     code = PGM_ASX_TRANSLATION_EXCEPTION;

  002a4	c7 44 24 2c 21
	00 00 00	 mov	 DWORD PTR code$[rsp], 33 ; 00000021H

; 393  :     return code;

  002ac	0f b7 44 24 2c	 movzx	 eax, WORD PTR code$[rsp]
$LN1@z900_trans:

; 394  : 
; 395  : } /* end function translate_asn */

  002b1	48 83 c4 58	 add	 rsp, 88			; 00000058H
  002b5	c3		 ret	 0
z900_translate_asn ENDP
_TEXT	ENDS
; Function compile flags: /Odtp
; File C:\papa\MyGit\hyperion-zvector\dat.c
_TEXT	SEGMENT
alo$ = 32
i$ = 36
cb$ = 40
aste_addr$ = 44
mn$ = 48
ald$ = 56
abs$ = 60
all$ = 64
tv81 = 72
tv129 = 80
tv158 = 88
tv199 = 96
ale$ = 104
__$ArrayPad$ = 120
alet$ = 144
eax$ = 152
acctype$ = 160
regs$ = 168
asteo$ = 176
aste$ = 184
z900_translate_alet PROC

; 440  : {

$LN31:
  00000	4c 89 4c 24 20	 mov	 QWORD PTR [rsp+32], r9
  00005	44 89 44 24 18	 mov	 DWORD PTR [rsp+24], r8d
  0000a	66 89 54 24 10	 mov	 WORD PTR [rsp+16], dx
  0000f	89 4c 24 08	 mov	 DWORD PTR [rsp+8], ecx
  00013	48 81 ec 88 00
	00 00		 sub	 rsp, 136		; 00000088H
  0001a	48 8b 05 00 00
	00 00		 mov	 rax, QWORD PTR __security_cookie
  00021	48 33 c4	 xor	 rax, rsp
  00024	48 89 44 24 78	 mov	 QWORD PTR __$ArrayPad$[rsp], rax

; 441  : U32     cb;                             /* DUCT or PASTE address     */
; 442  : U32     ald;                            /* Access-list designation   */
; 443  : U32     alo;                            /* Access-list origin        */
; 444  : U32     all;                            /* Access-list length        */
; 445  : U32     ale[4];                         /* Access-list entry         */
; 446  : U32     aste_addr;                      /* Real address of ASTE      */
; 447  : U32     abs;                            /* Absolute address          */
; 448  : BYTE   *mn;                             /* Mainstor address          */
; 449  : int     i;                              /* Array subscript           */
; 450  : 
; 451  :     regs->dat.protect = 0;

  00029	48 8b 84 24 a8
	00 00 00	 mov	 rax, QWORD PTR regs$[rsp]
  00031	8b 80 34 08 00
	00		 mov	 eax, DWORD PTR [rax+2100]
  00037	83 e0 f9	 and	 eax, -7			; fffffff9H
  0003a	48 8b 8c 24 a8
	00 00 00	 mov	 rcx, QWORD PTR regs$[rsp]
  00042	89 81 34 08 00
	00		 mov	 DWORD PTR [rcx+2100], eax

; 452  : 
; 453  :     /* [5.8.4.3] Check the reserved bits in the ALET */
; 454  :     if ( alet & ALET_RESV )

  00048	8b 84 24 90 00
	00 00		 mov	 eax, DWORD PTR alet$[rsp]
  0004f	25 00 00 00 fe	 and	 eax, -33554432		; fe000000H
  00054	85 c0		 test	 eax, eax
  00056	74 05		 je	 SHORT $LN8@z900_trans

; 455  :         goto alet_spec_excp;

  00058	e9 83 04 00 00	 jmp	 $alet_spec_excp$32
$LN8@z900_trans:

; 456  : 
; 457  :     /* [5.8.4.4] Obtain the effective access-list designation */
; 458  : 
; 459  :     /* Obtain the real address of the control block containing
; 460  :        the effective access-list designation.  This is either
; 461  :        the Primary ASTE or the DUCT */
; 462  :     cb = (alet & ALET_PRI_LIST) ?

  0005d	8b 84 24 90 00
	00 00		 mov	 eax, DWORD PTR alet$[rsp]
  00064	25 00 00 00 01	 and	 eax, 16777216		; 01000000H
  00069	85 c0		 test	 eax, eax
  0006b	74 26		 je	 SHORT $LN23@z900_trans
  0006d	b8 08 00 00 00	 mov	 eax, 8
  00072	48 6b c0 06	 imul	 rax, rax, 6
  00076	48 8b 8c 24 a8
	00 00 00	 mov	 rcx, QWORD PTR regs$[rsp]
  0007e	48 8b 84 01 00
	06 00 00	 mov	 rax, QWORD PTR [rcx+rax+1536]
  00086	48 25 c0 ff ff
	7f		 and	 rax, 2147483584		; 7fffffc0H
  0008c	48 89 44 24 48	 mov	 QWORD PTR tv81[rsp], rax
  00091	eb 24		 jmp	 SHORT $LN24@z900_trans
$LN23@z900_trans:
  00093	b8 08 00 00 00	 mov	 eax, 8
  00098	48 6b c0 03	 imul	 rax, rax, 3
  0009c	48 8b 8c 24 a8
	00 00 00	 mov	 rcx, QWORD PTR regs$[rsp]
  000a4	48 8b 84 01 00
	06 00 00	 mov	 rax, QWORD PTR [rcx+rax+1536]
  000ac	48 25 c0 ff ff
	7f		 and	 rax, 2147483584		; 7fffffc0H
  000b2	48 89 44 24 48	 mov	 QWORD PTR tv81[rsp], rax
$LN24@z900_trans:
  000b7	8b 44 24 48	 mov	 eax, DWORD PTR tv81[rsp]
  000bb	89 44 24 28	 mov	 DWORD PTR cb$[rsp], eax

; 463  :             regs->CR(5) & CR5_PASTEO :
; 464  :             regs->CR(2) & CR2_DUCTO;
; 465  : 
; 466  :     /* Addressing exception if outside main storage */
; 467  :     if (cb > regs->mainlim)

  000bf	8b 44 24 28	 mov	 eax, DWORD PTR cb$[rsp]
  000c3	48 8b 8c 24 a8
	00 00 00	 mov	 rcx, QWORD PTR regs$[rsp]
  000cb	48 3b 81 58 08
	00 00		 cmp	 rax, QWORD PTR [rcx+2136]
  000d2	76 05		 jbe	 SHORT $LN9@z900_trans

; 468  :         goto alet_addr_excp;

  000d4	e9 cc 03 00 00	 jmp	 $alet_addr_excp$33
$LN9@z900_trans:

; 469  : 
; 470  :     /* Load the effective access-list designation (ALD) from
; 471  :        offset 16 in the control block.  All four bytes must be
; 472  :        fetched concurrently as observed by other CPUs.  Note
; 473  :        that the DUCT and the PASTE cannot cross a page boundary */
; 474  :     cb = APPLY_PREFIXING (cb, regs->PX);

  000d9	8b 44 24 28	 mov	 eax, DWORD PTR cb$[rsp]
  000dd	48 25 00 e0 ff
	ff		 and	 rax, -8192		; ffffffffffffe000H
  000e3	48 85 c0	 test	 rax, rax
  000e6	74 23		 je	 SHORT $LN25@z900_trans
  000e8	8b 44 24 28	 mov	 eax, DWORD PTR cb$[rsp]
  000ec	48 25 00 e0 ff
	ff		 and	 rax, -8192		; ffffffffffffe000H
  000f2	48 8b 8c 24 a8
	00 00 00	 mov	 rcx, QWORD PTR regs$[rsp]
  000fa	48 3b 41 70	 cmp	 rax, QWORD PTR [rcx+112]
  000fe	74 0b		 je	 SHORT $LN25@z900_trans
  00100	8b 44 24 28	 mov	 eax, DWORD PTR cb$[rsp]
  00104	48 89 44 24 50	 mov	 QWORD PTR tv129[rsp], rax
  00109	eb 15		 jmp	 SHORT $LN26@z900_trans
$LN25@z900_trans:
  0010b	8b 44 24 28	 mov	 eax, DWORD PTR cb$[rsp]
  0010f	48 8b 8c 24 a8
	00 00 00	 mov	 rcx, QWORD PTR regs$[rsp]
  00117	48 33 41 70	 xor	 rax, QWORD PTR [rcx+112]
  0011b	48 89 44 24 50	 mov	 QWORD PTR tv129[rsp], rax
$LN26@z900_trans:
  00120	8b 44 24 50	 mov	 eax, DWORD PTR tv129[rsp]
  00124	89 44 24 28	 mov	 DWORD PTR cb$[rsp], eax

; 475  :     ald = ARCH_DEP(fetch_fullword_absolute) (cb+16, regs);

  00128	8b 44 24 28	 mov	 eax, DWORD PTR cb$[rsp]
  0012c	83 c0 10	 add	 eax, 16
  0012f	8b c0		 mov	 eax, eax
  00131	48 8b 94 24 a8
	00 00 00	 mov	 rdx, QWORD PTR regs$[rsp]
  00139	8b c8		 mov	 ecx, eax
  0013b	e8 00 00 00 00	 call	 z900_fetch_fullword_absolute
  00140	89 44 24 38	 mov	 DWORD PTR ald$[rsp], eax

; 476  : 
; 477  :     /* [5.8.4.5] Access-list lookup */
; 478  : 
; 479  :     /* Isolate the access-list origin and access-list length */
; 480  :     alo = ald & ALD_ALO;

  00144	8b 44 24 38	 mov	 eax, DWORD PTR ald$[rsp]
  00148	25 80 ff ff 7f	 and	 eax, 2147483520		; 7fffff80H
  0014d	89 44 24 20	 mov	 DWORD PTR alo$[rsp], eax

; 481  :     all = ald & ALD_ALL;

  00151	8b 44 24 38	 mov	 eax, DWORD PTR ald$[rsp]
  00155	83 e0 7f	 and	 eax, 127		; 0000007fH
  00158	89 44 24 40	 mov	 DWORD PTR all$[rsp], eax

; 482  : 
; 483  :     /* Check that the ALEN does not exceed the ALL */
; 484  :     if (((alet & ALET_ALEN) >> ALD_ALL_SHIFT) > all)

  0015c	8b 84 24 90 00
	00 00		 mov	 eax, DWORD PTR alet$[rsp]
  00163	25 ff ff 00 00	 and	 eax, 65535		; 0000ffffH
  00168	c1 e8 03	 shr	 eax, 3
  0016b	3b 44 24 40	 cmp	 eax, DWORD PTR all$[rsp]
  0016f	76 05		 jbe	 SHORT $LN10@z900_trans

; 485  :         goto alen_tran_excp;

  00171	e9 92 03 00 00	 jmp	 $alen_tran_excp$34
$LN10@z900_trans:

; 486  : 
; 487  :     /* Add the ALEN x 16 to the access list origin */
; 488  :     alo += (alet & ALET_ALEN) << 4;

  00176	8b 84 24 90 00
	00 00		 mov	 eax, DWORD PTR alet$[rsp]
  0017d	25 ff ff 00 00	 and	 eax, 65535		; 0000ffffH
  00182	c1 e0 04	 shl	 eax, 4
  00185	8b 4c 24 20	 mov	 ecx, DWORD PTR alo$[rsp]
  00189	03 c8		 add	 ecx, eax
  0018b	8b c1		 mov	 eax, ecx
  0018d	89 44 24 20	 mov	 DWORD PTR alo$[rsp], eax

; 489  : 
; 490  :     /* Addressing exception if outside main storage */
; 491  :     if (alo > regs->mainlim)

  00191	8b 44 24 20	 mov	 eax, DWORD PTR alo$[rsp]
  00195	48 8b 8c 24 a8
	00 00 00	 mov	 rcx, QWORD PTR regs$[rsp]
  0019d	48 3b 81 58 08
	00 00		 cmp	 rax, QWORD PTR [rcx+2136]
  001a4	76 05		 jbe	 SHORT $LN11@z900_trans

; 492  :         goto alet_addr_excp;

  001a6	e9 fa 02 00 00	 jmp	 $alet_addr_excp$33
$LN11@z900_trans:

; 493  : 
; 494  :     /* Fetch the 16-byte access list entry from absolute storage.
; 495  :        Each fullword of the ALE must be fetched concurrently as
; 496  :        observed by other CPUs */
; 497  :     alo = APPLY_PREFIXING (alo, regs->PX);

  001ab	8b 44 24 20	 mov	 eax, DWORD PTR alo$[rsp]
  001af	48 25 00 e0 ff
	ff		 and	 rax, -8192		; ffffffffffffe000H
  001b5	48 85 c0	 test	 rax, rax
  001b8	74 23		 je	 SHORT $LN27@z900_trans
  001ba	8b 44 24 20	 mov	 eax, DWORD PTR alo$[rsp]
  001be	48 25 00 e0 ff
	ff		 and	 rax, -8192		; ffffffffffffe000H
  001c4	48 8b 8c 24 a8
	00 00 00	 mov	 rcx, QWORD PTR regs$[rsp]
  001cc	48 3b 41 70	 cmp	 rax, QWORD PTR [rcx+112]
  001d0	74 0b		 je	 SHORT $LN27@z900_trans
  001d2	8b 44 24 20	 mov	 eax, DWORD PTR alo$[rsp]
  001d6	48 89 44 24 58	 mov	 QWORD PTR tv158[rsp], rax
  001db	eb 15		 jmp	 SHORT $LN28@z900_trans
$LN27@z900_trans:
  001dd	8b 44 24 20	 mov	 eax, DWORD PTR alo$[rsp]
  001e1	48 8b 8c 24 a8
	00 00 00	 mov	 rcx, QWORD PTR regs$[rsp]
  001e9	48 33 41 70	 xor	 rax, QWORD PTR [rcx+112]
  001ed	48 89 44 24 58	 mov	 QWORD PTR tv158[rsp], rax
$LN28@z900_trans:
  001f2	8b 44 24 58	 mov	 eax, DWORD PTR tv158[rsp]
  001f6	89 44 24 20	 mov	 DWORD PTR alo$[rsp], eax

; 498  :     mn = FETCH_MAIN_ABSOLUTE(alo, regs, 16);

  001fa	8b 44 24 20	 mov	 eax, DWORD PTR alo$[rsp]
  001fe	48 8b 94 24 a8
	00 00 00	 mov	 rdx, QWORD PTR regs$[rsp]
  00206	8b c8		 mov	 ecx, eax
  00208	e8 00 00 00 00	 call	 z900_fetch_main_absolute
  0020d	48 89 44 24 30	 mov	 QWORD PTR mn$[rsp], rax

; 499  :     for (i = 0; i < 4; i++)

  00212	c7 44 24 24 00
	00 00 00	 mov	 DWORD PTR i$[rsp], 0
  0021a	eb 0a		 jmp	 SHORT $LN4@z900_trans
$LN2@z900_trans:
  0021c	8b 44 24 24	 mov	 eax, DWORD PTR i$[rsp]
  00220	ff c0		 inc	 eax
  00222	89 44 24 24	 mov	 DWORD PTR i$[rsp], eax
$LN4@z900_trans:
  00226	83 7c 24 24 04	 cmp	 DWORD PTR i$[rsp], 4
  0022b	7d 2a		 jge	 SHORT $LN3@z900_trans

; 500  :     {
; 501  :         ale[i] = fetch_fw (mn);

  0022d	48 8b 4c 24 30	 mov	 rcx, QWORD PTR mn$[rsp]
  00232	e8 00 00 00 00	 call	 fetch_fw_noswap
  00237	8b c8		 mov	 ecx, eax
  00239	e8 00 00 00 00	 call	 _byteswap_ulong
  0023e	48 63 4c 24 24	 movsxd	 rcx, DWORD PTR i$[rsp]
  00243	89 44 8c 68	 mov	 DWORD PTR ale$[rsp+rcx*4], eax

; 502  :         mn += 4;

  00247	48 8b 44 24 30	 mov	 rax, QWORD PTR mn$[rsp]
  0024c	48 83 c0 04	 add	 rax, 4
  00250	48 89 44 24 30	 mov	 QWORD PTR mn$[rsp], rax

; 503  :     }

  00255	eb c5		 jmp	 SHORT $LN2@z900_trans
$LN3@z900_trans:

; 504  : 
; 505  :     /* Check the ALEN invalid bit in the ALE */
; 506  :     if (ale[0] & ALE0_INVALID)

  00257	b8 04 00 00 00	 mov	 eax, 4
  0025c	48 6b c0 00	 imul	 rax, rax, 0
  00260	8b 44 04 68	 mov	 eax, DWORD PTR ale$[rsp+rax]
  00264	25 00 00 00 80	 and	 eax, -2147483648	; 80000000H
  00269	85 c0		 test	 eax, eax
  0026b	74 05		 je	 SHORT $LN12@z900_trans

; 507  :         goto alen_tran_excp;

  0026d	e9 96 02 00 00	 jmp	 $alen_tran_excp$34
$LN12@z900_trans:

; 508  : 
; 509  :     /* For ordinary ART (but not for special ART),
; 510  :        compare the ALE sequence number with the ALET */
; 511  :     if (!(acctype & ACC_SPECIAL_ART)
; 512  :         && (ale[0] & ALE0_ALESN) != (alet & ALET_ALESN))

  00272	8b 84 24 a0 00
	00 00		 mov	 eax, DWORD PTR acctype$[rsp]
  00279	25 00 08 00 00	 and	 eax, 2048		; 00000800H
  0027e	85 c0		 test	 eax, eax
  00280	75 28		 jne	 SHORT $LN13@z900_trans
  00282	b8 04 00 00 00	 mov	 eax, 4
  00287	48 6b c0 00	 imul	 rax, rax, 0
  0028b	8b 44 04 68	 mov	 eax, DWORD PTR ale$[rsp+rax]
  0028f	25 00 00 ff 00	 and	 eax, 16711680		; 00ff0000H
  00294	8b 8c 24 90 00
	00 00		 mov	 ecx, DWORD PTR alet$[rsp]
  0029b	81 e1 00 00 ff
	00		 and	 ecx, 16711680		; 00ff0000H
  002a1	3b c1		 cmp	 eax, ecx
  002a3	74 05		 je	 SHORT $LN13@z900_trans

; 513  :         goto ale_seq_excp;

  002a5	e9 86 02 00 00	 jmp	 $ale_seq_excp$35
$LN13@z900_trans:

; 514  : 
; 515  :     /* [5.8.4.6] Locate the ASN-second-table entry */
; 516  :     aste_addr = ale[2] & ALE2_ASTE;

  002aa	b8 04 00 00 00	 mov	 eax, 4
  002af	48 6b c0 02	 imul	 rax, rax, 2
  002b3	8b 44 04 68	 mov	 eax, DWORD PTR ale$[rsp+rax]
  002b7	25 c0 ff ff 7f	 and	 eax, 2147483584		; 7fffffc0H
  002bc	89 44 24 2c	 mov	 DWORD PTR aste_addr$[rsp], eax

; 517  : 
; 518  :     /* Addressing exception if ASTE is outside main storage */
; 519  :     abs = APPLY_PREFIXING (aste_addr, regs->PX);

  002c0	8b 44 24 2c	 mov	 eax, DWORD PTR aste_addr$[rsp]
  002c4	48 25 00 e0 ff
	ff		 and	 rax, -8192		; ffffffffffffe000H
  002ca	48 85 c0	 test	 rax, rax
  002cd	74 23		 je	 SHORT $LN29@z900_trans
  002cf	8b 44 24 2c	 mov	 eax, DWORD PTR aste_addr$[rsp]
  002d3	48 25 00 e0 ff
	ff		 and	 rax, -8192		; ffffffffffffe000H
  002d9	48 8b 8c 24 a8
	00 00 00	 mov	 rcx, QWORD PTR regs$[rsp]
  002e1	48 3b 41 70	 cmp	 rax, QWORD PTR [rcx+112]
  002e5	74 0b		 je	 SHORT $LN29@z900_trans
  002e7	8b 44 24 2c	 mov	 eax, DWORD PTR aste_addr$[rsp]
  002eb	48 89 44 24 60	 mov	 QWORD PTR tv199[rsp], rax
  002f0	eb 15		 jmp	 SHORT $LN30@z900_trans
$LN29@z900_trans:
  002f2	8b 44 24 2c	 mov	 eax, DWORD PTR aste_addr$[rsp]
  002f6	48 8b 8c 24 a8
	00 00 00	 mov	 rcx, QWORD PTR regs$[rsp]
  002fe	48 33 41 70	 xor	 rax, QWORD PTR [rcx+112]
  00302	48 89 44 24 60	 mov	 QWORD PTR tv199[rsp], rax
$LN30@z900_trans:
  00307	8b 44 24 60	 mov	 eax, DWORD PTR tv199[rsp]
  0030b	89 44 24 3c	 mov	 DWORD PTR abs$[rsp], eax

; 520  :     if (abs > regs->mainlim)

  0030f	8b 44 24 3c	 mov	 eax, DWORD PTR abs$[rsp]
  00313	48 8b 8c 24 a8
	00 00 00	 mov	 rcx, QWORD PTR regs$[rsp]
  0031b	48 3b 81 58 08
	00 00		 cmp	 rax, QWORD PTR [rcx+2136]
  00322	76 05		 jbe	 SHORT $LN14@z900_trans

; 521  :         goto alet_addr_excp;

  00324	e9 7c 01 00 00	 jmp	 $alet_addr_excp$33
$LN14@z900_trans:

; 522  :     mn = FETCH_MAIN_ABSOLUTE(abs, regs, 64);

  00329	8b 44 24 3c	 mov	 eax, DWORD PTR abs$[rsp]
  0032d	48 8b 94 24 a8
	00 00 00	 mov	 rdx, QWORD PTR regs$[rsp]
  00335	8b c8		 mov	 ecx, eax
  00337	e8 00 00 00 00	 call	 z900_fetch_main_absolute
  0033c	48 89 44 24 30	 mov	 QWORD PTR mn$[rsp], rax

; 523  : 
; 524  :     /* Fetch the 64-byte ASN second table entry from real storage.
; 525  :        Each fullword of the ASTE must be fetched concurrently as
; 526  :        observed by other CPUs.  ASTE cannot cross a page boundary */
; 527  :     for (i = 0; i < 16; i++)

  00341	c7 44 24 24 00
	00 00 00	 mov	 DWORD PTR i$[rsp], 0
  00349	eb 0a		 jmp	 SHORT $LN7@z900_trans
$LN5@z900_trans:
  0034b	8b 44 24 24	 mov	 eax, DWORD PTR i$[rsp]
  0034f	ff c0		 inc	 eax
  00351	89 44 24 24	 mov	 DWORD PTR i$[rsp], eax
$LN7@z900_trans:
  00355	83 7c 24 24 10	 cmp	 DWORD PTR i$[rsp], 16
  0035a	7d 31		 jge	 SHORT $LN6@z900_trans

; 528  :     {
; 529  :         aste[i] = fetch_fw(mn);

  0035c	48 8b 4c 24 30	 mov	 rcx, QWORD PTR mn$[rsp]
  00361	e8 00 00 00 00	 call	 fetch_fw_noswap
  00366	8b c8		 mov	 ecx, eax
  00368	e8 00 00 00 00	 call	 _byteswap_ulong
  0036d	48 63 4c 24 24	 movsxd	 rcx, DWORD PTR i$[rsp]
  00372	48 8b 94 24 b8
	00 00 00	 mov	 rdx, QWORD PTR aste$[rsp]
  0037a	89 04 8a	 mov	 DWORD PTR [rdx+rcx*4], eax

; 530  :         mn += 4;

  0037d	48 8b 44 24 30	 mov	 rax, QWORD PTR mn$[rsp]
  00382	48 83 c0 04	 add	 rax, 4
  00386	48 89 44 24 30	 mov	 QWORD PTR mn$[rsp], rax

; 531  :     }

  0038b	eb be		 jmp	 SHORT $LN5@z900_trans
$LN6@z900_trans:

; 532  : 
; 533  :     /* Check the ASX invalid bit in the ASTE */
; 534  :     if (aste[0] & ASTE0_INVALID)

  0038d	b8 04 00 00 00	 mov	 eax, 4
  00392	48 6b c0 00	 imul	 rax, rax, 0
  00396	48 8b 8c 24 b8
	00 00 00	 mov	 rcx, QWORD PTR aste$[rsp]
  0039e	8b 04 01	 mov	 eax, DWORD PTR [rcx+rax]
  003a1	25 00 00 00 80	 and	 eax, -2147483648	; 80000000H
  003a6	85 c0		 test	 eax, eax
  003a8	74 05		 je	 SHORT $LN15@z900_trans

; 535  :         goto aste_vald_excp;

  003aa	e9 a6 01 00 00	 jmp	 $aste_vald_excp$36
$LN15@z900_trans:

; 536  : 
; 537  :     /* Compare the ASTE sequence number with the ALE */
; 538  :     if ((aste[5] & ASTE5_ASTESN) != (ale[3] & ALE3_ASTESN))

  003af	b8 04 00 00 00	 mov	 eax, 4
  003b4	48 6b c0 05	 imul	 rax, rax, 5
  003b8	b9 04 00 00 00	 mov	 ecx, 4
  003bd	48 6b c9 03	 imul	 rcx, rcx, 3
  003c1	48 8b 94 24 b8
	00 00 00	 mov	 rdx, QWORD PTR aste$[rsp]
  003c9	8b 4c 0c 68	 mov	 ecx, DWORD PTR ale$[rsp+rcx]
  003cd	39 0c 02	 cmp	 DWORD PTR [rdx+rax], ecx
  003d0	74 05		 je	 SHORT $LN16@z900_trans

; 539  :         goto aste_seq_excp;

  003d2	e9 a3 01 00 00	 jmp	 $aste_seq_excp$37
$LN16@z900_trans:

; 540  : 
; 541  :     /* [5.8.4.7] For ordinary ART (but not for special ART),
; 542  :        authorize the use of the access-list entry */
; 543  :     if (!(acctype & ACC_SPECIAL_ART))

  003d7	8b 84 24 a0 00
	00 00		 mov	 eax, DWORD PTR acctype$[rsp]
  003de	25 00 08 00 00	 and	 eax, 2048		; 00000800H
  003e3	85 c0		 test	 eax, eax
  003e5	75 63		 jne	 SHORT $LN17@z900_trans

; 544  :     {
; 545  :         /* If ALE private bit is zero, or the ALE AX equals the
; 546  :            EAX, then authorization succeeds.  Otherwise perform
; 547  :            the extended authorization process. */
; 548  :         if ((ale[0] & ALE0_PRIVATE)
; 549  :                 && (ale[0] & ALE0_ALEAX) != eax)

  003e7	b8 04 00 00 00	 mov	 eax, 4
  003ec	48 6b c0 00	 imul	 rax, rax, 0
  003f0	8b 44 04 68	 mov	 eax, DWORD PTR ale$[rsp+rax]
  003f4	25 00 00 00 01	 and	 eax, 16777216		; 01000000H
  003f9	85 c0		 test	 eax, eax
  003fb	74 4d		 je	 SHORT $LN18@z900_trans
  003fd	b8 04 00 00 00	 mov	 eax, 4
  00402	48 6b c0 00	 imul	 rax, rax, 0
  00406	8b 44 04 68	 mov	 eax, DWORD PTR ale$[rsp+rax]
  0040a	25 ff ff 00 00	 and	 eax, 65535		; 0000ffffH
  0040f	0f b7 8c 24 98
	00 00 00	 movzx	 ecx, WORD PTR eax$[rsp]
  00417	3b c1		 cmp	 eax, ecx
  00419	74 2f		 je	 SHORT $LN18@z900_trans

; 550  :         {
; 551  : #if !defined( FEATURE_001_ZARCH_INSTALLED_FACILITY )
; 552  :             /* Check the reserved bits in first two words of ASTE */
; 553  :             if ((aste[0] & ASTE0_RESV) || (aste[1] & ASTE1_RESV)
; 554  :                 || ((aste[0] & ASTE0_BASE)
; 555  : #ifdef FEATURE_SUBSPACE_GROUP
; 556  :                         && !ASF_ENABLED(regs)
; 557  : #endif
; 558  :                    ))
; 559  :                 goto alet_asn_tran_spec_excp;
; 560  : #endif
; 561  : 
; 562  :             /* Perform extended authorization */
; 563  :             if (ARCH_DEP(authorize_asn)(eax, aste, ATE_SECONDARY, regs) != 0)

  0041b	4c 8b 8c 24 a8
	00 00 00	 mov	 r9, QWORD PTR regs$[rsp]
  00423	41 b8 40 00 00
	00		 mov	 r8d, 64			; 00000040H
  00429	48 8b 94 24 b8
	00 00 00	 mov	 rdx, QWORD PTR aste$[rsp]
  00431	0f b7 8c 24 98
	00 00 00	 movzx	 ecx, WORD PTR eax$[rsp]
  00439	e8 00 00 00 00	 call	 z900_authorize_asn
  0043e	0f b6 c0	 movzx	 eax, al
  00441	85 c0		 test	 eax, eax
  00443	74 05		 je	 SHORT $LN19@z900_trans

; 564  :                 goto ext_auth_excp;

  00445	e9 55 01 00 00	 jmp	 $ext_auth_excp$38
$LN19@z900_trans:
$LN18@z900_trans:
$LN17@z900_trans:

; 565  :         }
; 566  : 
; 567  :     } /* end if(!ACC_SPECIAL_ART) */
; 568  : 
; 569  :     /* [5.8.4.8] Check for access-list controlled protection */
; 570  :     if (ale[0] & ALE0_FETCHONLY)

  0044a	b8 04 00 00 00	 mov	 eax, 4
  0044f	48 6b c0 00	 imul	 rax, rax, 0
  00453	8b 44 04 68	 mov	 eax, DWORD PTR ale$[rsp+rax]
  00457	25 00 00 00 02	 and	 eax, 33554432		; 02000000H
  0045c	85 c0		 test	 eax, eax
  0045e	74 30		 je	 SHORT $LN20@z900_trans

; 571  :     {
; 572  :         if (acctype & (ACC_WRITE|ACC_CHECK))

  00460	8b 84 24 a0 00
	00 00		 mov	 eax, DWORD PTR acctype$[rsp]
  00467	83 e0 03	 and	 eax, 3
  0046a	85 c0		 test	 eax, eax
  0046c	74 22		 je	 SHORT $LN21@z900_trans

; 573  :             regs->dat.protect = 2;

  0046e	48 8b 84 24 a8
	00 00 00	 mov	 rax, QWORD PTR regs$[rsp]
  00476	8b 80 34 08 00
	00		 mov	 eax, DWORD PTR [rax+2100]
  0047c	83 e0 f9	 and	 eax, -7			; fffffff9H
  0047f	83 c8 04	 or	 eax, 4
  00482	48 8b 8c 24 a8
	00 00 00	 mov	 rcx, QWORD PTR regs$[rsp]
  0048a	89 81 34 08 00
	00		 mov	 DWORD PTR [rcx+2100], eax
$LN21@z900_trans:
$LN20@z900_trans:

; 574  :     }
; 575  : 
; 576  :     /* Return the ASTE origin address */
; 577  :     *asteo = aste_addr;

  00490	48 8b 84 24 b0
	00 00 00	 mov	 rax, QWORD PTR asteo$[rsp]
  00498	8b 4c 24 2c	 mov	 ecx, DWORD PTR aste_addr$[rsp]
  0049c	89 08		 mov	 DWORD PTR [rax], ecx

; 578  :     return 0;

  0049e	33 c0		 xor	 eax, eax
  004a0	e9 1d 01 00 00	 jmp	 $LN1@z900_trans
$alet_addr_excp$33:

; 579  : 
; 580  : /* Conditions which always cause program check, except
; 581  :    when performing translation for the control panel */
; 582  : alet_addr_excp:
; 583  :     regs->dat.xcode = PGM_ADDRESSING_EXCEPTION;

  004a5	b8 05 00 00 00	 mov	 eax, 5
  004aa	48 8b 8c 24 a8
	00 00 00	 mov	 rcx, QWORD PTR regs$[rsp]
  004b2	66 89 81 30 08
	00 00		 mov	 WORD PTR [rcx+2096], ax
$alet_prog_check$39:

; 584  :     goto alet_prog_check;
; 585  : 
; 586  : #if !defined( FEATURE_001_ZARCH_INSTALLED_FACILITY )
; 587  : alet_asn_tran_spec_excp:
; 588  :     regs->dat.xcode = PGM_ASN_TRANSLATION_SPECIFICATION_EXCEPTION;
; 589  :     goto alet_prog_check;
; 590  : #endif
; 591  : 
; 592  : alet_prog_check:
; 593  :     regs->program_interrupt (regs, regs->dat.xcode);

  004b9	48 8b 84 24 a8
	00 00 00	 mov	 rax, QWORD PTR regs$[rsp]
  004c1	0f b7 80 30 08
	00 00		 movzx	 eax, WORD PTR [rax+2096]
  004c8	8b d0		 mov	 edx, eax
  004ca	48 8b 8c 24 a8
	00 00 00	 mov	 rcx, QWORD PTR regs$[rsp]
  004d2	48 8b 84 24 a8
	00 00 00	 mov	 rax, QWORD PTR regs$[rsp]
  004da	ff 90 20 0d 00
	00		 call	 QWORD PTR [rax+3360]
$alet_spec_excp$32:

; 594  : 
; 595  : /* Conditions which the caller may or may not program check */
; 596  : alet_spec_excp:
; 597  :     regs->dat.xcode = PGM_ALET_SPECIFICATION_EXCEPTION;

  004e0	b8 28 00 00 00	 mov	 eax, 40			; 00000028H
  004e5	48 8b 8c 24 a8
	00 00 00	 mov	 rcx, QWORD PTR regs$[rsp]
  004ed	66 89 81 30 08
	00 00		 mov	 WORD PTR [rcx+2096], ax

; 598  :     return regs->dat.xcode;

  004f4	48 8b 84 24 a8
	00 00 00	 mov	 rax, QWORD PTR regs$[rsp]
  004fc	0f b7 80 30 08
	00 00		 movzx	 eax, WORD PTR [rax+2096]
  00503	e9 ba 00 00 00	 jmp	 $LN1@z900_trans
$alen_tran_excp$34:

; 599  : 
; 600  : alen_tran_excp:
; 601  :     regs->dat.xcode = PGM_ALEN_TRANSLATION_EXCEPTION;

  00508	b8 29 00 00 00	 mov	 eax, 41			; 00000029H
  0050d	48 8b 8c 24 a8
	00 00 00	 mov	 rcx, QWORD PTR regs$[rsp]
  00515	66 89 81 30 08
	00 00		 mov	 WORD PTR [rcx+2096], ax

; 602  :     return regs->dat.xcode;

  0051c	48 8b 84 24 a8
	00 00 00	 mov	 rax, QWORD PTR regs$[rsp]
  00524	0f b7 80 30 08
	00 00		 movzx	 eax, WORD PTR [rax+2096]
  0052b	e9 92 00 00 00	 jmp	 $LN1@z900_trans
$ale_seq_excp$35:

; 603  : 
; 604  : ale_seq_excp:
; 605  :     regs->dat.xcode = PGM_ALE_SEQUENCE_EXCEPTION;

  00530	b8 2a 00 00 00	 mov	 eax, 42			; 0000002aH
  00535	48 8b 8c 24 a8
	00 00 00	 mov	 rcx, QWORD PTR regs$[rsp]
  0053d	66 89 81 30 08
	00 00		 mov	 WORD PTR [rcx+2096], ax

; 606  :     return regs->dat.xcode;

  00544	48 8b 84 24 a8
	00 00 00	 mov	 rax, QWORD PTR regs$[rsp]
  0054c	0f b7 80 30 08
	00 00		 movzx	 eax, WORD PTR [rax+2096]
  00553	eb 6d		 jmp	 SHORT $LN1@z900_trans
$aste_vald_excp$36:

; 607  : 
; 608  : aste_vald_excp:
; 609  :     regs->dat.xcode = PGM_ASTE_VALIDITY_EXCEPTION;

  00555	b8 2b 00 00 00	 mov	 eax, 43			; 0000002bH
  0055a	48 8b 8c 24 a8
	00 00 00	 mov	 rcx, QWORD PTR regs$[rsp]
  00562	66 89 81 30 08
	00 00		 mov	 WORD PTR [rcx+2096], ax

; 610  :     return regs->dat.xcode;

  00569	48 8b 84 24 a8
	00 00 00	 mov	 rax, QWORD PTR regs$[rsp]
  00571	0f b7 80 30 08
	00 00		 movzx	 eax, WORD PTR [rax+2096]
  00578	eb 48		 jmp	 SHORT $LN1@z900_trans
$aste_seq_excp$37:

; 611  : 
; 612  : aste_seq_excp:
; 613  :     regs->dat.xcode = PGM_ASTE_SEQUENCE_EXCEPTION;

  0057a	b8 2c 00 00 00	 mov	 eax, 44			; 0000002cH
  0057f	48 8b 8c 24 a8
	00 00 00	 mov	 rcx, QWORD PTR regs$[rsp]
  00587	66 89 81 30 08
	00 00		 mov	 WORD PTR [rcx+2096], ax

; 614  :     return regs->dat.xcode;

  0058e	48 8b 84 24 a8
	00 00 00	 mov	 rax, QWORD PTR regs$[rsp]
  00596	0f b7 80 30 08
	00 00		 movzx	 eax, WORD PTR [rax+2096]
  0059d	eb 23		 jmp	 SHORT $LN1@z900_trans
$ext_auth_excp$38:

; 615  : 
; 616  : ext_auth_excp:
; 617  :     regs->dat.xcode = PGM_EXTENDED_AUTHORITY_EXCEPTION;

  0059f	b8 2d 00 00 00	 mov	 eax, 45			; 0000002dH
  005a4	48 8b 8c 24 a8
	00 00 00	 mov	 rcx, QWORD PTR regs$[rsp]
  005ac	66 89 81 30 08
	00 00		 mov	 WORD PTR [rcx+2096], ax

; 618  :     return regs->dat.xcode;

  005b3	48 8b 84 24 a8
	00 00 00	 mov	 rax, QWORD PTR regs$[rsp]
  005bb	0f b7 80 30 08
	00 00		 movzx	 eax, WORD PTR [rax+2096]
$LN1@z900_trans:

; 619  : 
; 620  : } /* end function translate_alet */

  005c2	48 8b 4c 24 78	 mov	 rcx, QWORD PTR __$ArrayPad$[rsp]
  005c7	48 33 cc	 xor	 rcx, rsp
  005ca	e8 00 00 00 00	 call	 __security_check_cookie
  005cf	48 81 c4 88 00
	00 00		 add	 rsp, 136		; 00000088H
  005d6	c3		 ret	 0
z900_translate_alet ENDP
_TEXT	ENDS
; Function compile flags: /Odtp
; File C:\papa\MyGit\hyperion-zvector\dat.c
_TEXT	SEGMENT
tv86 = 32
pte$ = 40
raddr$ = 48
pfra$ = 56
ibyte$ = 80
pto$ = 88
vaddr$ = 96
regs$ = 104
local$ = 112
z900_invalidate_pte PROC

; 2147 : {

$LN10:
  00000	4c 89 4c 24 20	 mov	 QWORD PTR [rsp+32], r9
  00005	4c 89 44 24 18	 mov	 QWORD PTR [rsp+24], r8
  0000a	48 89 54 24 10	 mov	 QWORD PTR [rsp+16], rdx
  0000f	88 4c 24 08	 mov	 BYTE PTR [rsp+8], cl
  00013	48 83 ec 48	 sub	 rsp, 72			; 00000048H
$LN4@z900_inval:

; 2148 : RADR    raddr;                          /* Addr of Page Table Entry  */
; 2149 : RADR    pte;                            /* Page Table Entry itself   */
; 2150 : RADR    pfra;                           /* Page Frame Real Address   */
; 2151 : 
; 2152 :     UNREFERENCED_370( ibyte );

  00017	33 c0		 xor	 eax, eax
  00019	85 c0		 test	 eax, eax
  0001b	75 fa		 jne	 SHORT $LN4@z900_inval

; 2153 : 
; 2154 : #if !defined( FEATURE_S390_DAT ) && !defined( FEATURE_001_ZARCH_INSTALLED_FACILITY )
; 2155 :     {
; 2156 :         // SYSTEM/370...
; 2157 : 
; 2158 :         /* Program check if translation format is invalid */
; 2159 :         if (0
; 2160 :             || (((regs->CR(0) & CR0_PAGE_SIZE) != CR0_PAGE_SZ_2K) && ((regs->CR(0) & CR0_PAGE_SIZE) != CR0_PAGE_SZ_4K))
; 2161 :             || (((regs->CR(0) & CR0_SEG_SIZE)  != CR0_SEG_SZ_64K) && ((regs->CR(0) & CR0_SEG_SIZE)  != CR0_SEG_SZ_1M))
; 2162 :         )
; 2163 :             regs->program_interrupt( regs, PGM_TRANSLATION_SPECIFICATION_EXCEPTION );
; 2164 : 
; 2165 :         /* Add the vaddr's page table entry index to the Page Table
; 2166 :            Origin, ignoring any carry, to form the 24-bit real address
; 2167 :            of the Page Table Entry to be invalidated, taking into account
; 2168 :            that each Page Table Entry is 2 bytes wide (shift 1 less bit)
; 2169 :         */
; 2170 :         raddr = (pto & SEGTAB_370_PTO) +
; 2171 :         (
; 2172 :             ((regs->CR(0)  & CR0_SEG_SIZE)  == CR0_SEG_SZ_1M)
; 2173 :             ?
; 2174 :             (((regs->CR(0) & CR0_PAGE_SIZE) == CR0_PAGE_SZ_4K) ?
; 2175 :             ((vaddr & 0x000FF000) >> (SHIFT_4K-1)) : ((vaddr & 0x000FF800) >> (SHIFT_2K-1)))
; 2176 :             :
; 2177 :             (((regs->CR(0) & CR0_PAGE_SIZE) == CR0_PAGE_SZ_4K) ?
; 2178 :             ((vaddr & 0x0000F000) >> (SHIFT_4K-1)) : ((vaddr & 0x0000F800) >> (SHIFT_2K-1)))
; 2179 :         );
; 2180 :         raddr &= MAXADDRESS;
; 2181 : 
; 2182 :         /* Fetch the Page Table Entry from real storage,
; 2183 :            subject to normal storage protection mechanisms
; 2184 :         */
; 2185 :         pte = ARCH_DEP( vfetch2 )( raddr, USE_REAL_ADDR, regs );
; 2186 : 
; 2187 : #if 0 // debug 370 IPTE
; 2188 :         LOGMSG
; 2189 :         (
; 2190 :             "dat.c: IPTE issued for entry %4.4X at %8.8X...\n"
; 2191 :             "       pto %8.8X, vaddr %8.8X, cr0 %8.8X\n"
; 2192 : 
; 2193 :             , pte, raddr
; 2194 :             , pto, vaddr, regs->CR(0)
; 2195 :         );
; 2196 : #endif
; 2197 : 
; 2198 :         /* Set the invalid bit in the Page Table Entry just fetched */
; 2199 :         pte |= ((regs->CR(0) & CR0_PAGE_SIZE) == CR0_PAGE_SZ_2K)
; 2200 :                ? PAGETAB_INV_2K : PAGETAB_INV_4K;
; 2201 : 
; 2202 :         /* Store the now invalidated Page Table Entry back into
; 2203 :            real storage where we originally got it from, subject
; 2204 :            to the same storage protection mechanisms
; 2205 :         */
; 2206 :         ARCH_DEP( vstore2 )( pte, raddr, USE_REAL_ADDR, regs );
; 2207 : 
; 2208 :         /* Extract the Page Frame Address from the Page Table Entry */
; 2209 :         pfra = ((regs->CR(0) & CR0_PAGE_SIZE) == CR0_PAGE_SZ_4K)
; 2210 :             ?
; 2211 : #if defined( FEATURE_S370E_EXTENDED_ADDRESSING )
; 2212 :             (((U32)pte & PAGETAB_EA_4K) << 23) |
; 2213 : #endif
; 2214 :             (((U32)pte & PAGETAB_PFRA_4K) << 8)
; 2215 :             :
; 2216 :             (((U32)pte & PAGETAB_PFRA_2K) << 8);
; 2217 :     }
; 2218 : #elif defined( FEATURE_S390_DAT )
; 2219 :     {
; 2220 :         // SYSTEM/390...
; 2221 : 
; 2222 :         /* Program check if translation format is invalid */
; 2223 :         if ((regs->CR(0) & CR0_TRAN_FMT) != CR0_TRAN_ESA390)
; 2224 :             regs->program_interrupt( regs, PGM_TRANSLATION_SPECIFICATION_EXCEPTION );
; 2225 : 
; 2226 :         /* Add the vaddr's page table entry index to the Page Table
; 2227 :            Origin, ignoring any carry, to form the 31-bit real address
; 2228 :            of the Page Table Entry to be invalidated, taking into account
; 2229 :            that each Page Table Entry is 4 bytes wide (shift 2 fewer bits)
; 2230 :         */
; 2231 :         raddr = (pto & SEGTAB_PTO) + ((vaddr & 0x000FF000) >> (PAGEFRAME_PAGESHIFT-2));
; 2232 :         raddr &= MAXADDRESS;
; 2233 : 
; 2234 :         /* Fetch the Page Table Entry from real storage,
; 2235 :            subject to normal storage protection mechanisms */
; 2236 :         pte = ARCH_DEP( vfetch4 )( raddr, USE_REAL_ADDR, regs );
; 2237 : 
; 2238 :         /* Set the invalid bit in the Page Table Entry just fetched */
; 2239 : #if defined( FEATURE_MOVE_PAGE_FACILITY_2 ) && defined( FEATURE_EXPANDED_STORAGE )
; 2240 :         if (ibyte == 0x59) // (IESBE instruction?)
; 2241 :             pte &= ~PAGETAB_ESVALID;
; 2242 :         else
; 2243 : #endif
; 2244 :             pte |= PAGETAB_INVALID; // (no, IPTE instruction)
; 2245 : 
; 2246 :         /* Store the now invalidated Page Table Entry back into
; 2247 :            real storage where we originally got it from, subject
; 2248 :            to the same storage protection mechanisms
; 2249 :         */
; 2250 :         ARCH_DEP( vstore4 )( pte, raddr, USE_REAL_ADDR, regs );
; 2251 : 
; 2252 :         /* Extract the Page Frame Address from the Page Table Entry */
; 2253 :         pfra = pte & PAGETAB_PFRA;
; 2254 :     }
; 2255 : #else /* defined( FEATURE_001_ZARCH_INSTALLED_FACILITY ) */
; 2256 :     {
; 2257 :         // ESAME = z/Architecture...
; 2258 : 
; 2259 :         /* Add the vaddr's page table entry index to the Page Table
; 2260 :            Origin, ignoring any carry, to form the 64-bit real address
; 2261 :            of the Page Table Entry to be invalidated, taking into account
; 2262 :            that each Page Table Entry is 8 bytes wide (shift 3 fewer bits)
; 2263 :         */
; 2264 :         raddr = (pto & ZSEGTAB_PTO) + ((vaddr & 0x000FF000) >> (PAGEFRAME_PAGESHIFT-3));

  0001d	48 8b 44 24 58	 mov	 rax, QWORD PTR pto$[rsp]
  00022	48 25 00 f8 ff
	ff		 and	 rax, -2048		; fffffffffffff800H
  00028	48 8b 4c 24 60	 mov	 rcx, QWORD PTR vaddr$[rsp]
  0002d	48 81 e1 00 f0
	0f 00		 and	 rcx, 1044480		; 000ff000H
  00034	48 c1 e9 09	 shr	 rcx, 9
  00038	48 03 c1	 add	 rax, rcx
  0003b	48 89 44 24 30	 mov	 QWORD PTR raddr$[rsp], rax

; 2265 :         raddr &= MAXADDRESS;

  00040	48 8b 44 24 30	 mov	 rax, QWORD PTR raddr$[rsp]
  00045	48 89 44 24 30	 mov	 QWORD PTR raddr$[rsp], rax

; 2266 : 
; 2267 :         /* Fetch the Page Table Entry from real storage,
; 2268 :            subject to normal storage protection mechanisms
; 2269 :         */
; 2270 :         pte = ARCH_DEP( vfetch8 )( raddr, USE_REAL_ADDR, regs );

  0004a	4c 8b 44 24 68	 mov	 r8, QWORD PTR regs$[rsp]
  0004f	ba fe ff ff ff	 mov	 edx, -2
  00054	48 8b 4c 24 30	 mov	 rcx, QWORD PTR raddr$[rsp]
  00059	e8 00 00 00 00	 call	 z900_vfetch8
  0005e	48 89 44 24 28	 mov	 QWORD PTR pte$[rsp], rax

; 2271 : 
; 2272 :         /* Set the invalid bit in the Page Table Entry just fetched */
; 2273 : #if defined( FEATURE_MOVE_PAGE_FACILITY_2 ) && defined( FEATURE_EXPANDED_STORAGE )
; 2274 :         if (ibyte == 0x59) // (IESBE instruction?)

  00063	0f b6 44 24 50	 movzx	 eax, BYTE PTR ibyte$[rsp]
  00068	83 f8 59	 cmp	 eax, 89			; 00000059H
  0006b	75 11		 jne	 SHORT $LN5@z900_inval

; 2275 :             pte &= ~ZPGETAB_ESVALID;

  0006d	48 8b 44 24 28	 mov	 rax, QWORD PTR pte$[rsp]
  00072	48 0f ba f0 08	 btr	 rax, 8
  00077	48 89 44 24 28	 mov	 QWORD PTR pte$[rsp], rax
  0007c	eb 0f		 jmp	 SHORT $LN6@z900_inval
$LN5@z900_inval:

; 2276 :         else
; 2277 : #endif
; 2278 :             pte |= ZPGETAB_I; // (no, IPTE instruction)

  0007e	48 8b 44 24 28	 mov	 rax, QWORD PTR pte$[rsp]
  00083	48 0f ba e8 0a	 bts	 rax, 10
  00088	48 89 44 24 28	 mov	 QWORD PTR pte$[rsp], rax
$LN6@z900_inval:

; 2279 : 
; 2280 :         /* Store the now invalidated Page Table Entry back into
; 2281 :            real storage where we originally got it from, subject
; 2282 :            to the same storage protection mechanisms
; 2283 :         */
; 2284 :         ARCH_DEP( vstore8 )( pte, raddr, USE_REAL_ADDR, regs );

  0008d	4c 8b 4c 24 68	 mov	 r9, QWORD PTR regs$[rsp]
  00092	41 b8 fe ff ff
	ff		 mov	 r8d, -2
  00098	48 8b 54 24 30	 mov	 rdx, QWORD PTR raddr$[rsp]
  0009d	48 8b 4c 24 28	 mov	 rcx, QWORD PTR pte$[rsp]
  000a2	e8 00 00 00 00	 call	 z900_vstore8

; 2285 : 
; 2286 :         /* Extract the Page Frame Address from the Page Table Entry */
; 2287 :         pfra = pte & ZPGETAB_PFRA;

  000a7	48 8b 44 24 28	 mov	 rax, QWORD PTR pte$[rsp]
  000ac	48 25 00 f0 ff
	ff		 and	 rax, -4096		; fffffffffffff000H
  000b2	48 89 44 24 38	 mov	 QWORD PTR pfra$[rsp], rax

; 2288 :     }
; 2289 : #endif /* defined( FEATURE_001_ZARCH_INSTALLED_FACILITY ) */
; 2290 : 
; 2291 :     /* Invalidate all TLB entries for this Page Frame Real Address */
; 2292 :     ARCH_DEP( purge_tlbe_all )( regs, pfra, local ? regs->cpuad : 0xFFFF );

  000b7	0f b6 44 24 70	 movzx	 eax, BYTE PTR local$[rsp]
  000bc	85 c0		 test	 eax, eax
  000be	74 12		 je	 SHORT $LN8@z900_inval
  000c0	48 8b 44 24 68	 mov	 rax, QWORD PTR regs$[rsp]
  000c5	0f b7 80 3c 08
	00 00		 movzx	 eax, WORD PTR [rax+2108]
  000cc	89 44 24 20	 mov	 DWORD PTR tv86[rsp], eax
  000d0	eb 08		 jmp	 SHORT $LN9@z900_inval
$LN8@z900_inval:
  000d2	c7 44 24 20 ff
	ff 00 00	 mov	 DWORD PTR tv86[rsp], 65535 ; 0000ffffH
$LN9@z900_inval:
  000da	44 0f b7 44 24
	20		 movzx	 r8d, WORD PTR tv86[rsp]
  000e0	48 8b 54 24 38	 mov	 rdx, QWORD PTR pfra$[rsp]
  000e5	48 8b 4c 24 68	 mov	 rcx, QWORD PTR regs$[rsp]
  000ea	e8 00 00 00 00	 call	 z900_purge_tlbe_all

; 2293 : 
; 2294 : } /* end function invalidate_pte */

  000ef	48 83 c4 48	 add	 rsp, 72			; 00000048H
  000f3	c3		 ret	 0
z900_invalidate_pte ENDP
_TEXT	ENDS
; Function compile flags: /Odtp
; File C:\papa\MyGit\hyperion-zvector\dat.c
_TEXT	SEGMENT
tv74 = 32
tv94 = 36
p$1 = 40
p$2 = 48
regs$ = 80
mask$ = 88
z900_invalidate_tlb PROC

; 1995 : {

$LN24:
  00000	88 54 24 10	 mov	 BYTE PTR [rsp+16], dl
  00004	48 89 4c 24 08	 mov	 QWORD PTR [rsp+8], rcx
  00009	48 83 ec 48	 sub	 rsp, 72			; 00000048H

; 1996 :     /* Do it for the current architecture first */
; 1997 :     ARCH_DEP( do_invalidate_tlb )( regs, mask );

  0000d	0f b6 54 24 58	 movzx	 edx, BYTE PTR mask$[rsp]
  00012	48 8b 4c 24 50	 mov	 rcx, QWORD PTR regs$[rsp]
  00017	e8 00 00 00 00	 call	 z900_do_invalidate_tlb

; 1998 : 
; 1999 : #if defined( _FEATURE_SIE )
; 2000 :     /* Also invalidate the GUEST registers in the SIE copy */
; 2001 :     if (regs->host && GUESTREGS)

  0001c	48 8b 44 24 50	 mov	 rax, QWORD PTR regs$[rsp]
  00021	8b 80 28 07 00
	00		 mov	 eax, DWORD PTR [rax+1832]
  00027	c1 e8 07	 shr	 eax, 7
  0002a	83 e0 01	 and	 eax, 1
  0002d	85 c0		 test	 eax, eax
  0002f	0f 84 a1 00 00
	00		 je	 $LN12@z900_inval
  00035	48 8b 44 24 50	 mov	 rax, QWORD PTR regs$[rsp]
  0003a	48 83 b8 70 08
	00 00 00	 cmp	 QWORD PTR [rax+2160], 0
  00042	0f 84 8e 00 00
	00		 je	 $LN12@z900_inval

; 2002 :     {
; 2003 :         switch (GUESTREGS->arch_mode)

  00048	48 8b 44 24 50	 mov	 rax, QWORD PTR regs$[rsp]
  0004d	48 8b 80 70 08
	00 00		 mov	 rax, QWORD PTR [rax+2160]
  00054	8b 40 64	 mov	 eax, DWORD PTR [rax+100]
  00057	89 44 24 20	 mov	 DWORD PTR tv74[rsp], eax
  0005b	83 7c 24 20 00	 cmp	 DWORD PTR tv74[rsp], 0
  00060	74 10		 je	 SHORT $LN14@z900_inval
  00062	83 7c 24 20 01	 cmp	 DWORD PTR tv74[rsp], 1
  00067	74 21		 je	 SHORT $LN15@z900_inval
  00069	83 7c 24 20 02	 cmp	 DWORD PTR tv74[rsp], 2
  0006e	74 32		 je	 SHORT $LN16@z900_inval
  00070	eb 48		 jmp	 SHORT $LN17@z900_inval
$LN14@z900_inval:

; 2004 :         {
; 2005 :         case ARCH_370_IDX: s370_do_invalidate_tlb( GUESTREGS, mask ); break;

  00072	0f b6 54 24 58	 movzx	 edx, BYTE PTR mask$[rsp]
  00077	48 8b 44 24 50	 mov	 rax, QWORD PTR regs$[rsp]
  0007c	48 8b 88 70 08
	00 00		 mov	 rcx, QWORD PTR [rax+2160]
  00083	e8 00 00 00 00	 call	 s370_do_invalidate_tlb
  00088	eb 47		 jmp	 SHORT $LN2@z900_inval
$LN15@z900_inval:

; 2006 :         case ARCH_390_IDX: s390_do_invalidate_tlb( GUESTREGS, mask ); break;

  0008a	0f b6 54 24 58	 movzx	 edx, BYTE PTR mask$[rsp]
  0008f	48 8b 44 24 50	 mov	 rax, QWORD PTR regs$[rsp]
  00094	48 8b 88 70 08
	00 00		 mov	 rcx, QWORD PTR [rax+2160]
  0009b	e8 00 00 00 00	 call	 s390_do_invalidate_tlb
  000a0	eb 2f		 jmp	 SHORT $LN2@z900_inval
$LN16@z900_inval:

; 2007 :         case ARCH_900_IDX: z900_do_invalidate_tlb( GUESTREGS, mask ); break;

  000a2	0f b6 54 24 58	 movzx	 edx, BYTE PTR mask$[rsp]
  000a7	48 8b 44 24 50	 mov	 rax, QWORD PTR regs$[rsp]
  000ac	48 8b 88 70 08
	00 00		 mov	 rcx, QWORD PTR [rax+2160]
  000b3	e8 00 00 00 00	 call	 z900_do_invalidate_tlb
  000b8	eb 17		 jmp	 SHORT $LN2@z900_inval
$LN17@z900_inval:
$LN6@z900_inval:

; 2008 :         default: CRASH();

  000ba	48 c7 44 24 28
	00 00 00 00	 mov	 QWORD PTR p$1[rsp], 0
  000c3	48 8b 44 24 28	 mov	 rax, QWORD PTR p$1[rsp]
  000c8	c6 00 00	 mov	 BYTE PTR [rax], 0
  000cb	33 c0		 xor	 eax, eax
  000cd	85 c0		 test	 eax, eax
  000cf	75 e9		 jne	 SHORT $LN6@z900_inval
$LN2@z900_inval:

; 2009 :         }
; 2010 :     }

  000d1	e9 a2 00 00 00	 jmp	 $LN13@z900_inval
$LN12@z900_inval:

; 2011 :     else if (regs->guest)  /* For guests, also clear HOST entries */

  000d6	48 8b 44 24 50	 mov	 rax, QWORD PTR regs$[rsp]
  000db	8b 80 28 07 00
	00		 mov	 eax, DWORD PTR [rax+1832]
  000e1	c1 e8 08	 shr	 eax, 8
  000e4	83 e0 01	 and	 eax, 1
  000e7	85 c0		 test	 eax, eax
  000e9	0f 84 89 00 00
	00		 je	 $LN18@z900_inval

; 2012 :     {
; 2013 :         switch (HOSTREGS->arch_mode)

  000ef	48 8b 44 24 50	 mov	 rax, QWORD PTR regs$[rsp]
  000f4	48 8b 80 68 08
	00 00		 mov	 rax, QWORD PTR [rax+2152]
  000fb	8b 40 64	 mov	 eax, DWORD PTR [rax+100]
  000fe	89 44 24 24	 mov	 DWORD PTR tv94[rsp], eax
  00102	83 7c 24 24 00	 cmp	 DWORD PTR tv94[rsp], 0
  00107	74 10		 je	 SHORT $LN19@z900_inval
  00109	83 7c 24 24 01	 cmp	 DWORD PTR tv94[rsp], 1
  0010e	74 21		 je	 SHORT $LN20@z900_inval
  00110	83 7c 24 24 02	 cmp	 DWORD PTR tv94[rsp], 2
  00115	74 32		 je	 SHORT $LN21@z900_inval
  00117	eb 48		 jmp	 SHORT $LN22@z900_inval
$LN19@z900_inval:

; 2014 :         {
; 2015 :         case ARCH_370_IDX: s370_do_invalidate_tlb( HOSTREGS, mask ); break;

  00119	0f b6 54 24 58	 movzx	 edx, BYTE PTR mask$[rsp]
  0011e	48 8b 44 24 50	 mov	 rax, QWORD PTR regs$[rsp]
  00123	48 8b 88 68 08
	00 00		 mov	 rcx, QWORD PTR [rax+2152]
  0012a	e8 00 00 00 00	 call	 s370_do_invalidate_tlb
  0012f	eb 47		 jmp	 SHORT $LN7@z900_inval
$LN20@z900_inval:

; 2016 :         case ARCH_390_IDX: s390_do_invalidate_tlb( HOSTREGS, mask ); break;

  00131	0f b6 54 24 58	 movzx	 edx, BYTE PTR mask$[rsp]
  00136	48 8b 44 24 50	 mov	 rax, QWORD PTR regs$[rsp]
  0013b	48 8b 88 68 08
	00 00		 mov	 rcx, QWORD PTR [rax+2152]
  00142	e8 00 00 00 00	 call	 s390_do_invalidate_tlb
  00147	eb 2f		 jmp	 SHORT $LN7@z900_inval
$LN21@z900_inval:

; 2017 :         case ARCH_900_IDX: z900_do_invalidate_tlb( HOSTREGS, mask ); break;

  00149	0f b6 54 24 58	 movzx	 edx, BYTE PTR mask$[rsp]
  0014e	48 8b 44 24 50	 mov	 rax, QWORD PTR regs$[rsp]
  00153	48 8b 88 68 08
	00 00		 mov	 rcx, QWORD PTR [rax+2152]
  0015a	e8 00 00 00 00	 call	 z900_do_invalidate_tlb
  0015f	eb 17		 jmp	 SHORT $LN7@z900_inval
$LN22@z900_inval:
$LN11@z900_inval:

; 2018 :         default: CRASH();

  00161	48 c7 44 24 30
	00 00 00 00	 mov	 QWORD PTR p$2[rsp], 0
  0016a	48 8b 44 24 30	 mov	 rax, QWORD PTR p$2[rsp]
  0016f	c6 00 00	 mov	 BYTE PTR [rax], 0
  00172	33 c0		 xor	 eax, eax
  00174	85 c0		 test	 eax, eax
  00176	75 e9		 jne	 SHORT $LN11@z900_inval
$LN7@z900_inval:
$LN18@z900_inval:
$LN13@z900_inval:

; 2019 :         }
; 2020 :     }
; 2021 : #endif /* defined( _FEATURE_SIE ) */
; 2022 : } /* end function invalidate_tlb */

  00178	48 83 c4 48	 add	 rsp, 72			; 00000048H
  0017c	c3		 ret	 0
z900_invalidate_tlb ENDP
_TEXT	ENDS
; Function compile flags: /Odtp
; File C:\papa\MyGit\hyperion-zvector\inline.h
;	COMDAT z900_fetch_fullword_absolute
_TEXT	SEGMENT
addr$ = 48
regs$ = 56
z900_fetch_fullword_absolute PROC			; COMDAT

; 835  : {

$LN3:
  00000	48 89 54 24 10	 mov	 QWORD PTR [rsp+16], rdx
  00005	48 89 4c 24 08	 mov	 QWORD PTR [rsp+8], rcx
  0000a	48 83 ec 28	 sub	 rsp, 40			; 00000028H

; 836  :     return fetch_fw( FETCH_MAIN_ABSOLUTE( addr, regs, 4 ));

  0000e	48 8b 54 24 38	 mov	 rdx, QWORD PTR regs$[rsp]
  00013	48 8b 4c 24 30	 mov	 rcx, QWORD PTR addr$[rsp]
  00018	e8 00 00 00 00	 call	 z900_fetch_main_absolute
  0001d	48 8b c8	 mov	 rcx, rax
  00020	e8 00 00 00 00	 call	 fetch_fw_noswap
  00025	8b c8		 mov	 ecx, eax
  00027	e8 00 00 00 00	 call	 _byteswap_ulong

; 837  : }

  0002c	48 83 c4 28	 add	 rsp, 40			; 00000028H
  00030	c3		 ret	 0
z900_fetch_fullword_absolute ENDP
_TEXT	ENDS
; Function compile flags: /Odtp
; File C:\papa\MyGit\hyperion-zvector\inline.h
;	COMDAT z900_fetch_doubleword_absolute
_TEXT	SEGMENT
addr$ = 48
regs$ = 56
z900_fetch_doubleword_absolute PROC			; COMDAT

; 815  : {

$LN3:
  00000	48 89 54 24 10	 mov	 QWORD PTR [rsp+16], rdx
  00005	48 89 4c 24 08	 mov	 QWORD PTR [rsp+8], rcx
  0000a	48 83 ec 28	 sub	 rsp, 40			; 00000028H

; 816  :     // The change below affects 32 bit hosts that use something like
; 817  :     // cmpxchg8b to fetch the doubleword concurrently.
; 818  :     // This routine is mainly called by DAT in 64 bit guest mode
; 819  :     // to access DAT-related values.  In most `well-behaved' OS's,
; 820  :     // other CPUs should not be interfering with these values
; 821  : 
; 822  :     return fetch_dw( FETCH_MAIN_ABSOLUTE( addr, regs, 8 ));

  0000e	48 8b 54 24 38	 mov	 rdx, QWORD PTR regs$[rsp]
  00013	48 8b 4c 24 30	 mov	 rcx, QWORD PTR addr$[rsp]
  00018	e8 00 00 00 00	 call	 z900_fetch_main_absolute
  0001d	48 8b c8	 mov	 rcx, rax
  00020	e8 00 00 00 00	 call	 fetch_dw_noswap
  00025	48 8b c8	 mov	 rcx, rax
  00028	e8 00 00 00 00	 call	 _byteswap_uint64

; 823  : }

  0002d	48 83 c4 28	 add	 rsp, 40			; 00000028H
  00031	c3		 ret	 0
z900_fetch_doubleword_absolute ENDP
_TEXT	ENDS
; Function compile flags: /Odtp
; File C:\papa\MyGit\hyperion-zvector\inline.h
;	COMDAT z900_is_per3_event_suppressed
_TEXT	SEGMENT
regs$ = 8
cr9_per_event$ = 16
z900_is_per3_event_suppressed PROC			; COMDAT

; 566  : {

  00000	89 54 24 10	 mov	 DWORD PTR [rsp+16], edx
  00004	48 89 4c 24 08	 mov	 QWORD PTR [rsp+8], rcx

; 567  : #if !defined( FEATURE_PER3 )
; 568  :     UNREFERENCED( regs );
; 569  :     UNREFERENCED( cr9_per_event );
; 570  : #else
; 571  :     /* DON'T suppress this event if Event Suppression isn't enabled */
; 572  :     if (!(regs->CR_L(9) & CR9_SUPPRESS))

  00009	b8 08 00 00 00	 mov	 eax, 8
  0000e	48 6b c0 0a	 imul	 rax, rax, 10
  00012	48 8b 4c 24 08	 mov	 rcx, QWORD PTR regs$[rsp]
  00017	8b 84 01 00 06
	00 00		 mov	 eax, DWORD PTR [rcx+rax+1536]
  0001e	25 00 00 40 00	 and	 eax, 4194304		; 00400000H
  00023	85 c0		 test	 eax, eax
  00025	75 04		 jne	 SHORT $LN2@z900_is_pe

; 573  :         return false;

  00027	32 c0		 xor	 al, al
  00029	eb 78		 jmp	 SHORT $LN1@z900_is_pe
$LN2@z900_is_pe:

; 574  : 
; 575  :     /* Is this PER event one that is ALLOWED to be suppressed? */
; 576  :     if (cr9_per_event & CR9_SUPPRESSABLE)

  0002b	8b 44 24 10	 mov	 eax, DWORD PTR cr9_per_event$[rsp]
  0002f	25 00 00 00 ed	 and	 eax, -318767104		; ed000000H
  00034	85 c0		 test	 eax, eax
  00036	74 69		 je	 SHORT $LN3@z900_is_pe

; 577  :     {
; 578  :         /* Is there an active transaction? */
; 579  :         if (regs->txf_tnd)

  00038	48 8b 44 24 08	 mov	 rax, QWORD PTR regs$[rsp]
  0003d	0f b6 80 58 0e
	00 00		 movzx	 eax, BYTE PTR [rax+3672]
  00044	85 c0		 test	 eax, eax
  00046	74 04		 je	 SHORT $LN4@z900_is_pe

; 580  :             return true;        /* Yes, then suppress it! */

  00048	b0 01		 mov	 al, 1
  0004a	eb 57		 jmp	 SHORT $LN1@z900_is_pe
$LN4@z900_is_pe:

; 581  : 
; 582  :         /* Suppress instruction-fetch events for TBEGIN/TBEGINC */
; 583  :         if (1
; 584  :             && cr9_per_event & CR9_IF
; 585  :             && *(regs->ip+0) == 0xE5
; 586  :             && (0

  0004c	33 c0		 xor	 eax, eax
  0004e	83 f8 01	 cmp	 eax, 1
  00051	74 4e		 je	 SHORT $LN5@z900_is_pe
  00053	8b 44 24 10	 mov	 eax, DWORD PTR cr9_per_event$[rsp]
  00057	25 00 00 00 40	 and	 eax, 1073741824		; 40000000H
  0005c	85 c0		 test	 eax, eax
  0005e	74 41		 je	 SHORT $LN5@z900_is_pe
  00060	48 8b 44 24 08	 mov	 rax, QWORD PTR regs$[rsp]
  00065	48 8b 40 68	 mov	 rax, QWORD PTR [rax+104]
  00069	0f b6 00	 movzx	 eax, BYTE PTR [rax]
  0006c	3d e5 00 00 00	 cmp	 eax, 229		; 000000e5H
  00071	75 2e		 jne	 SHORT $LN5@z900_is_pe
  00073	33 c0		 xor	 eax, eax
  00075	85 c0		 test	 eax, eax
  00077	75 24		 jne	 SHORT $LN6@z900_is_pe
  00079	48 8b 44 24 08	 mov	 rax, QWORD PTR regs$[rsp]
  0007e	48 8b 40 68	 mov	 rax, QWORD PTR [rax+104]
  00082	0f b6 40 01	 movzx	 eax, BYTE PTR [rax+1]
  00086	83 f8 60	 cmp	 eax, 96			; 00000060H
  00089	74 12		 je	 SHORT $LN6@z900_is_pe
  0008b	48 8b 44 24 08	 mov	 rax, QWORD PTR regs$[rsp]
  00090	48 8b 40 68	 mov	 rax, QWORD PTR [rax+104]
  00094	0f b6 40 01	 movzx	 eax, BYTE PTR [rax+1]
  00098	83 f8 61	 cmp	 eax, 97			; 00000061H
  0009b	75 04		 jne	 SHORT $LN5@z900_is_pe
$LN6@z900_is_pe:

; 587  :                 || *(regs->ip+1) == 0x60
; 588  :                 || *(regs->ip+1) == 0x61
; 589  :                )
; 590  :         )
; 591  :             return true;        /* TBEGIN/TBEGINC: suppress it! */

  0009d	b0 01		 mov	 al, 1
  0009f	eb 02		 jmp	 SHORT $LN1@z900_is_pe
$LN5@z900_is_pe:
$LN3@z900_is_pe:

; 592  :     }
; 593  : #endif
; 594  :     /* Otherwise DON'T suppress this PER event */
; 595  :     return false;

  000a1	32 c0		 xor	 al, al
$LN1@z900_is_pe:

; 596  : }

  000a3	c3		 ret	 0
z900_is_per3_event_suppressed ENDP
_TEXT	ENDS
; Function compile flags: /Odtp
; File C:\papa\MyGit\hyperion-zvector\inline.h
;	COMDAT z900_fetch_main_absolute
_TEXT	SEGMENT
addr$ = 64
regs$ = 72
z900_fetch_main_absolute PROC				; COMDAT

; 524  : {

$LN7:
  00000	48 89 54 24 10	 mov	 QWORD PTR [rsp+16], rdx
  00005	48 89 4c 24 08	 mov	 QWORD PTR [rsp+8], rcx
  0000a	48 83 ec 38	 sub	 rsp, 56			; 00000038H
$LN4@z900_fetch:

; 525  : #if defined( INLINE_STORE_FETCH_ADDR_CHECK )
; 526  :     if (addr > (regs->mainlim - len))
; 527  :         regs->program_interrupt( regs, PGM_ADDRESSING_EXCEPTION );
; 528  : #endif
; 529  : 
; 530  :     /* Translate SIE host virt to SIE host abs. Note: macro
; 531  :        is treated as a no-operation if SIE_MODE not active */
; 532  :     SIE_TRANSLATE( &addr, ACCTYPE_READ, regs );

  0000e	48 8b 44 24 48	 mov	 rax, QWORD PTR regs$[rsp]
  00013	8b 80 c8 08 00
	00		 mov	 eax, DWORD PTR [rax+2248]
  00019	d1 e8		 shr	 eax, 1
  0001b	83 e0 01	 and	 eax, 1
  0001e	85 c0		 test	 eax, eax
  00020	74 6b		 je	 SHORT $LN5@z900_fetch
  00022	48 8b 44 24 48	 mov	 rax, QWORD PTR regs$[rsp]
  00027	8b 80 c8 08 00
	00		 mov	 eax, DWORD PTR [rax+2248]
  0002d	c1 e8 02	 shr	 eax, 2
  00030	83 e0 01	 and	 eax, 1
  00033	85 c0		 test	 eax, eax
  00035	75 56		 jne	 SHORT $LN5@z900_fetch
  00037	48 8b 44 24 48	 mov	 rax, QWORD PTR regs$[rsp]
  0003c	48 8b 80 98 08
	00 00		 mov	 rax, QWORD PTR [rax+2200]
  00043	48 03 44 24 40	 add	 rax, QWORD PTR addr$[rsp]
  00048	48 c7 44 24 28
	01 00 00 00	 mov	 QWORD PTR [rsp+40], 1
  00051	c6 44 24 20 00	 mov	 BYTE PTR [rsp+32], 0
  00056	41 b9 04 00 00
	00		 mov	 r9d, 4
  0005c	48 8b 4c 24 48	 mov	 rcx, QWORD PTR regs$[rsp]
  00061	4c 8b 81 68 08
	00 00		 mov	 r8, QWORD PTR [rcx+2152]
  00068	ba fd ff ff ff	 mov	 edx, -3
  0006d	48 8b c8	 mov	 rcx, rax
  00070	e8 00 00 00 00	 call	 z900_logical_to_main_l
  00075	48 8b 44 24 48	 mov	 rax, QWORD PTR regs$[rsp]
  0007a	48 8b 80 68 08
	00 00		 mov	 rax, QWORD PTR [rax+2152]
  00081	48 8b 80 08 08
	00 00		 mov	 rax, QWORD PTR [rax+2056]
  00088	48 89 44 24 40	 mov	 QWORD PTR addr$[rsp], rax
$LN5@z900_fetch:
  0008d	33 c0		 xor	 eax, eax
  0008f	85 c0		 test	 eax, eax
  00091	0f 85 77 ff ff
	ff		 jne	 $LN4@z900_fetch

; 533  : 
; 534  :     /* Set the main storage reference bit */
; 535  :     ARCH_DEP( or_storage_key )( addr, STORKEY_REF );

  00097	b2 04		 mov	 dl, 4
  00099	48 8b 4c 24 40	 mov	 rcx, QWORD PTR addr$[rsp]
  0009e	e8 00 00 00 00	 call	 z900_or_storage_key

; 536  : 
; 537  :     /* Return absolute storage mainstor address */
; 538  :     return (regs->mainstor + addr);

  000a3	48 8b 44 24 48	 mov	 rax, QWORD PTR regs$[rsp]
  000a8	48 8b 80 48 08
	00 00		 mov	 rax, QWORD PTR [rax+2120]
  000af	48 03 44 24 40	 add	 rax, QWORD PTR addr$[rsp]

; 539  : 
; 540  : } /* end function fetch_main_absolute */

  000b4	48 83 c4 38	 add	 rsp, 56			; 00000038H
  000b8	c3		 ret	 0
z900_fetch_main_absolute ENDP
_TEXT	ENDS
; Function compile flags: /Odtp
; File C:\papa\MyGit\hyperion-zvector\inline.h
;	COMDAT z900_is_store_protected
_TEXT	SEGMENT
addr$ = 48
skey$ = 56
akey$ = 64
regs$ = 72
z900_is_store_protected PROC				; COMDAT

; 469  : {

$LN9:
  00000	4c 89 4c 24 20	 mov	 QWORD PTR [rsp+32], r9
  00005	44 88 44 24 18	 mov	 BYTE PTR [rsp+24], r8b
  0000a	88 54 24 10	 mov	 BYTE PTR [rsp+16], dl
  0000e	48 89 4c 24 08	 mov	 QWORD PTR [rsp+8], rcx
  00013	48 83 ec 28	 sub	 rsp, 40			; 00000028H

; 470  :     /* [3.4.4] Low-address protection prohibits stores into certain
; 471  :        locations in the prefixed storage area of non-private address
; 472  :        address spaces, if the low-address control bit in CR0 is set,
; 473  :        regardless of the access key and storage key */
; 474  :     if (ARCH_DEP( is_low_address_protected )( addr, regs ))

  00017	48 8b 54 24 48	 mov	 rdx, QWORD PTR regs$[rsp]
  0001c	48 8b 4c 24 30	 mov	 rcx, QWORD PTR addr$[rsp]
  00021	e8 00 00 00 00	 call	 z900_is_low_address_protected
  00026	0f b6 c0	 movzx	 eax, al
  00029	85 c0		 test	 eax, eax
  0002b	74 07		 je	 SHORT $LN2@z900_is_st

; 475  :         return true;

  0002d	b0 01		 mov	 al, 1
  0002f	e9 b2 00 00 00	 jmp	 $LN1@z900_is_st
$LN2@z900_is_st:

; 476  : 
; 477  :     /* Access-list controlled protection prohibits all stores into
; 478  :        the address space, and page protection prohibits all stores
; 479  :        into the page, regardless of the access key and storage key */
; 480  :     if (regs->dat.protect)

  00034	48 8b 44 24 48	 mov	 rax, QWORD PTR regs$[rsp]
  00039	8b 80 34 08 00
	00		 mov	 eax, DWORD PTR [rax+2100]
  0003f	d1 e8		 shr	 eax, 1
  00041	83 e0 03	 and	 eax, 3
  00044	85 c0		 test	 eax, eax
  00046	74 07		 je	 SHORT $LN3@z900_is_st

; 481  :         return true;

  00048	b0 01		 mov	 al, 1
  0004a	e9 97 00 00 00	 jmp	 $LN1@z900_is_st
$LN3@z900_is_st:

; 482  : 
; 483  : #if defined( _FEATURE_SIE )
; 484  :     if (SIE_MODE( regs ) && HOSTREGS->dat.protect)

  0004f	48 8b 44 24 48	 mov	 rax, QWORD PTR regs$[rsp]
  00054	8b 80 c8 08 00
	00		 mov	 eax, DWORD PTR [rax+2248]
  0005a	d1 e8		 shr	 eax, 1
  0005c	83 e0 01	 and	 eax, 1
  0005f	85 c0		 test	 eax, eax
  00061	74 1f		 je	 SHORT $LN4@z900_is_st
  00063	48 8b 44 24 48	 mov	 rax, QWORD PTR regs$[rsp]
  00068	48 8b 80 68 08
	00 00		 mov	 rax, QWORD PTR [rax+2152]
  0006f	8b 80 34 08 00
	00		 mov	 eax, DWORD PTR [rax+2100]
  00075	d1 e8		 shr	 eax, 1
  00077	83 e0 03	 and	 eax, 3
  0007a	85 c0		 test	 eax, eax
  0007c	74 04		 je	 SHORT $LN4@z900_is_st

; 485  :         return true;

  0007e	b0 01		 mov	 al, 1
  00080	eb 64		 jmp	 SHORT $LN1@z900_is_st
$LN4@z900_is_st:

; 486  : #endif
; 487  : 
; 488  :     /* [3.4.1] Store is allowed if access key is zero, regardless
; 489  :        of the storage key */
; 490  :     if (akey == 0)

  00082	0f b6 44 24 40	 movzx	 eax, BYTE PTR akey$[rsp]
  00087	85 c0		 test	 eax, eax
  00089	75 04		 jne	 SHORT $LN5@z900_is_st

; 491  :         return false;

  0008b	32 c0		 xor	 al, al
  0008d	eb 57		 jmp	 SHORT $LN1@z900_is_st
$LN5@z900_is_st:

; 492  : 
; 493  : #if defined( FEATURE_STORAGE_PROTECTION_OVERRIDE )
; 494  :     /* [3.4.1.1] Storage protection override allows access to
; 495  :        locations with storage key 9, regardless of the access key,
; 496  :        provided that CR0 bit 7 is set */
; 497  :     if (1
; 498  :         && (skey & STORKEY_KEY) == 0x90
; 499  :         && (regs->CR(0) & CR0_STORE_OVRD)

  0008f	33 c0		 xor	 eax, eax
  00091	83 f8 01	 cmp	 eax, 1
  00094	74 36		 je	 SHORT $LN6@z900_is_st
  00096	0f b6 44 24 38	 movzx	 eax, BYTE PTR skey$[rsp]
  0009b	25 f0 00 00 00	 and	 eax, 240		; 000000f0H
  000a0	3d 90 00 00 00	 cmp	 eax, 144		; 00000090H
  000a5	75 25		 jne	 SHORT $LN6@z900_is_st
  000a7	b8 08 00 00 00	 mov	 eax, 8
  000ac	48 6b c0 01	 imul	 rax, rax, 1
  000b0	48 8b 4c 24 48	 mov	 rcx, QWORD PTR regs$[rsp]
  000b5	48 8b 84 01 00
	06 00 00	 mov	 rax, QWORD PTR [rcx+rax+1536]
  000bd	48 25 00 00 00
	01		 and	 rax, 16777216		; 01000000H
  000c3	48 85 c0	 test	 rax, rax
  000c6	74 04		 je	 SHORT $LN6@z900_is_st

; 500  :     )
; 501  :         return false;

  000c8	32 c0		 xor	 al, al
  000ca	eb 1a		 jmp	 SHORT $LN1@z900_is_st
$LN6@z900_is_st:

; 502  : #endif
; 503  : 
; 504  :     /* [3.4.1] Store protection prohibits stores
; 505  :        if the access key does not match the storage key */
; 506  :     if (akey != (skey & STORKEY_KEY))

  000cc	0f b6 44 24 40	 movzx	 eax, BYTE PTR akey$[rsp]
  000d1	0f b6 4c 24 38	 movzx	 ecx, BYTE PTR skey$[rsp]
  000d6	81 e1 f0 00 00
	00		 and	 ecx, 240		; 000000f0H
  000dc	3b c1		 cmp	 eax, ecx
  000de	74 04		 je	 SHORT $LN7@z900_is_st

; 507  :         return true;

  000e0	b0 01		 mov	 al, 1
  000e2	eb 02		 jmp	 SHORT $LN1@z900_is_st
$LN7@z900_is_st:

; 508  : 
; 509  :     return false;      // (location is *NOT* store protected)

  000e4	32 c0		 xor	 al, al
$LN1@z900_is_st:

; 510  : 
; 511  : } /* end function is_store_protected */

  000e6	48 83 c4 28	 add	 rsp, 40			; 00000028H
  000ea	c3		 ret	 0
z900_is_store_protected ENDP
_TEXT	ENDS
; Function compile flags: /Odtp
; File C:\papa\MyGit\hyperion-zvector\inline.h
;	COMDAT z900_is_low_address_protected
_TEXT	SEGMENT
addr$ = 8
regs$ = 16
z900_is_low_address_protected PROC			; COMDAT

; 419  : {

  00000	48 89 54 24 10	 mov	 QWORD PTR [rsp+16], rdx
  00005	48 89 4c 24 08	 mov	 QWORD PTR [rsp+8], rcx

; 420  : #if defined( FEATURE_001_ZARCH_INSTALLED_FACILITY )
; 421  :     /* For z/Arch, low-address protection applies to locations
; 422  :        0-511 (0000-01FF) and also 4096-4607 (1000-11FF) */
; 423  :     if (addr & 0xFFFFFFFFFFFFEE00ULL)

  0000a	48 8b 44 24 08	 mov	 rax, QWORD PTR addr$[rsp]
  0000f	48 25 00 ee ff
	ff		 and	 rax, -4608		; ffffffffffffee00H
  00015	48 85 c0	 test	 rax, rax
  00018	74 04		 je	 SHORT $LN2@z900_is_lo

; 424  : #else
; 425  :     /* For S/370 and ESA/390, low-address protection applies
; 426  :        only to locations 0-511 */
; 427  :     if (addr > 511)
; 428  : #endif
; 429  :         return false;

  0001a	32 c0		 xor	 al, al
  0001c	eb 53		 jmp	 SHORT $LN1@z900_is_lo
$LN2@z900_is_lo:

; 430  : 
; 431  :     /* Low-address protection applies only if the low-address
; 432  :        protection control bit in control register 0 is set */
; 433  :     if (!(regs->CR(0) & CR0_LOW_PROT))

  0001e	b8 08 00 00 00	 mov	 eax, 8
  00023	48 6b c0 01	 imul	 rax, rax, 1
  00027	48 8b 4c 24 10	 mov	 rcx, QWORD PTR regs$[rsp]
  0002c	48 8b 84 01 00
	06 00 00	 mov	 rax, QWORD PTR [rcx+rax+1536]
  00034	48 25 00 00 00
	10		 and	 rax, 268435456		; 10000000H
  0003a	48 85 c0	 test	 rax, rax
  0003d	75 04		 jne	 SHORT $LN3@z900_is_lo

; 434  :         return false;

  0003f	32 c0		 xor	 al, al
  00041	eb 2e		 jmp	 SHORT $LN1@z900_is_lo
$LN3@z900_is_lo:

; 435  : 
; 436  : #if defined( _FEATURE_SIE )
; 437  :     /* Host low-address protection is not applied to guest
; 438  :        references to guest storage */
; 439  :     if (regs->sie_active)

  00043	48 8b 44 24 10	 mov	 rax, QWORD PTR regs$[rsp]
  00048	8b 80 c8 08 00
	00		 mov	 eax, DWORD PTR [rax+2248]
  0004e	83 e0 01	 and	 eax, 1
  00051	85 c0		 test	 eax, eax
  00053	74 04		 je	 SHORT $LN4@z900_is_lo

; 440  :         return false;

  00055	32 c0		 xor	 al, al
  00057	eb 18		 jmp	 SHORT $LN1@z900_is_lo
$LN4@z900_is_lo:

; 441  : #endif
; 442  : 
; 443  :     /* Low-addr protection doesn't apply to private address spaces */
; 444  :     if (regs->dat.pvtaddr)

  00059	48 8b 44 24 10	 mov	 rax, QWORD PTR regs$[rsp]
  0005e	8b 80 34 08 00
	00		 mov	 eax, DWORD PTR [rax+2100]
  00064	83 e0 01	 and	 eax, 1
  00067	85 c0		 test	 eax, eax
  00069	74 04		 je	 SHORT $LN5@z900_is_lo

; 445  :         return false;

  0006b	32 c0		 xor	 al, al
  0006d	eb 02		 jmp	 SHORT $LN1@z900_is_lo
$LN5@z900_is_lo:

; 446  : 
; 447  :     return true;      // (location *IS* low-address protected)

  0006f	b0 01		 mov	 al, 1
$LN1@z900_is_lo:

; 448  : 
; 449  : } /* end function is_low_address_protected */

  00071	c3		 ret	 0
z900_is_low_address_protected ENDP
_TEXT	ENDS
; Function compile flags: /Odtp
; File C:\papa\MyGit\hyperion-zvector\inline.h
;	COMDAT z900_is_fetch_protected
_TEXT	SEGMENT
tv87 = 0
addr$ = 32
skey$ = 40
akey$ = 48
regs$ = 56
z900_is_fetch_protected PROC				; COMDAT

; 365  : {

$LN16:
  00000	4c 89 4c 24 20	 mov	 QWORD PTR [rsp+32], r9
  00005	44 88 44 24 18	 mov	 BYTE PTR [rsp+24], r8b
  0000a	88 54 24 10	 mov	 BYTE PTR [rsp+16], dl
  0000e	48 89 4c 24 08	 mov	 QWORD PTR [rsp+8], rcx
  00013	48 83 ec 18	 sub	 rsp, 24
$LN4@z900_is_fe:

; 366  :     UNREFERENCED_370( addr );

  00017	33 c0		 xor	 eax, eax
  00019	85 c0		 test	 eax, eax
  0001b	75 fa		 jne	 SHORT $LN4@z900_is_fe
$LN7@z900_is_fe:

; 367  :     UNREFERENCED_370( regs );

  0001d	33 c0		 xor	 eax, eax
  0001f	85 c0		 test	 eax, eax
  00021	75 fa		 jne	 SHORT $LN7@z900_is_fe

; 368  : 
; 369  :     /* [3.4.1] Fetch is allowed if access key is zero, regardless
; 370  :        of the storage key and fetch protection bit */
; 371  :     /* [3.4.1] Fetch protection prohibits fetch if storage key fetch
; 372  :        protect bit is on and access key does not match storage key */
; 373  :     if (likely(0

  00023	33 c0		 xor	 eax, eax
  00025	85 c0		 test	 eax, eax
  00027	75 32		 jne	 SHORT $LN12@z900_is_fe
  00029	0f b6 44 24 30	 movzx	 eax, BYTE PTR akey$[rsp]
  0002e	85 c0		 test	 eax, eax
  00030	74 29		 je	 SHORT $LN12@z900_is_fe
  00032	0f b6 44 24 30	 movzx	 eax, BYTE PTR akey$[rsp]
  00037	0f b6 4c 24 28	 movzx	 ecx, BYTE PTR skey$[rsp]
  0003c	81 e1 f0 00 00
	00		 and	 ecx, 240		; 000000f0H
  00042	3b c1		 cmp	 eax, ecx
  00044	74 15		 je	 SHORT $LN12@z900_is_fe
  00046	0f b6 44 24 28	 movzx	 eax, BYTE PTR skey$[rsp]
  0004b	83 e0 08	 and	 eax, 8
  0004e	85 c0		 test	 eax, eax
  00050	74 09		 je	 SHORT $LN12@z900_is_fe
  00052	c7 04 24 00 00
	00 00		 mov	 DWORD PTR tv87[rsp], 0
  00059	eb 07		 jmp	 SHORT $LN15@z900_is_fe
$LN12@z900_is_fe:
  0005b	c7 04 24 01 00
	00 00		 mov	 DWORD PTR tv87[rsp], 1
$LN15@z900_is_fe:
  00062	83 3c 24 00	 cmp	 DWORD PTR tv87[rsp], 0
  00066	74 07		 je	 SHORT $LN8@z900_is_fe

; 374  :                || akey == 0
; 375  :                || akey == (skey & STORKEY_KEY)
; 376  :                || !(skey & STORKEY_FETCH)
; 377  :               )
; 378  :     )
; 379  :         return false;

  00068	32 c0		 xor	 al, al
  0006a	e9 88 00 00 00	 jmp	 $LN1@z900_is_fe
$LN8@z900_is_fe:

; 380  : 
; 381  : #if defined( FEATURE_FETCH_PROTECTION_OVERRIDE )
; 382  :     /* [3.4.1.2] Fetch protection override allows fetch from first
; 383  :        2K of non-private address spaces if CR0 bit 6 is set */
; 384  :     if (1
; 385  :         && addr < 2048
; 386  :         && (regs->CR(0) & CR0_FETCH_OVRD)
; 387  :         && regs->dat.pvtaddr == 0

  0006f	33 c0		 xor	 eax, eax
  00071	83 f8 01	 cmp	 eax, 1
  00074	74 42		 je	 SHORT $LN9@z900_is_fe
  00076	48 81 7c 24 20
	00 08 00 00	 cmp	 QWORD PTR addr$[rsp], 2048 ; 00000800H
  0007f	73 37		 jae	 SHORT $LN9@z900_is_fe
  00081	b8 08 00 00 00	 mov	 eax, 8
  00086	48 6b c0 01	 imul	 rax, rax, 1
  0008a	48 8b 4c 24 38	 mov	 rcx, QWORD PTR regs$[rsp]
  0008f	48 8b 84 01 00
	06 00 00	 mov	 rax, QWORD PTR [rcx+rax+1536]
  00097	48 25 00 00 00
	02		 and	 rax, 33554432		; 02000000H
  0009d	48 85 c0	 test	 rax, rax
  000a0	74 16		 je	 SHORT $LN9@z900_is_fe
  000a2	48 8b 44 24 38	 mov	 rax, QWORD PTR regs$[rsp]
  000a7	8b 80 34 08 00
	00		 mov	 eax, DWORD PTR [rax+2100]
  000ad	83 e0 01	 and	 eax, 1
  000b0	85 c0		 test	 eax, eax
  000b2	75 04		 jne	 SHORT $LN9@z900_is_fe

; 388  :     )
; 389  :         return false;

  000b4	32 c0		 xor	 al, al
  000b6	eb 3f		 jmp	 SHORT $LN1@z900_is_fe
$LN9@z900_is_fe:

; 390  : #endif
; 391  : 
; 392  : #if defined( FEATURE_STORAGE_PROTECTION_OVERRIDE )
; 393  :     /* [3.4.1.1] Storage protection override allows access to
; 394  :        locations with storage key 9, regardless of the access key,
; 395  :        provided that CR0 bit 7 is set */
; 396  :     if (1
; 397  :         && (skey & STORKEY_KEY) == 0x90
; 398  :         && (regs->CR(0) & CR0_STORE_OVRD)

  000b8	33 c0		 xor	 eax, eax
  000ba	83 f8 01	 cmp	 eax, 1
  000bd	74 36		 je	 SHORT $LN10@z900_is_fe
  000bf	0f b6 44 24 28	 movzx	 eax, BYTE PTR skey$[rsp]
  000c4	25 f0 00 00 00	 and	 eax, 240		; 000000f0H
  000c9	3d 90 00 00 00	 cmp	 eax, 144		; 00000090H
  000ce	75 25		 jne	 SHORT $LN10@z900_is_fe
  000d0	b8 08 00 00 00	 mov	 eax, 8
  000d5	48 6b c0 01	 imul	 rax, rax, 1
  000d9	48 8b 4c 24 38	 mov	 rcx, QWORD PTR regs$[rsp]
  000de	48 8b 84 01 00
	06 00 00	 mov	 rax, QWORD PTR [rcx+rax+1536]
  000e6	48 25 00 00 00
	01		 and	 rax, 16777216		; 01000000H
  000ec	48 85 c0	 test	 rax, rax
  000ef	74 04		 je	 SHORT $LN10@z900_is_fe

; 399  :     )
; 400  :         return false;

  000f1	32 c0		 xor	 al, al
  000f3	eb 02		 jmp	 SHORT $LN1@z900_is_fe
$LN10@z900_is_fe:

; 401  : #endif
; 402  : 
; 403  :     return true;    // (location *IS* fetch protected)

  000f5	b0 01		 mov	 al, 1
$LN1@z900_is_fe:

; 404  : 
; 405  : } /* end function is_fetch_protected */

  000f7	48 83 c4 18	 add	 rsp, 24
  000fb	c3		 ret	 0
z900_is_fetch_protected ENDP
_TEXT	ENDS
; Function compile flags: /Odtp
; File C:\papa\MyGit\hyperion-zvector\skey.h
;	COMDAT z900_or_storage_key_by_ptr
_TEXT	SEGMENT
abs$ = 32
skey_ptr$ = 64
bits$ = 72
z900_or_storage_key_by_ptr PROC				; COMDAT

; 328  : {

$LN3:
  00000	88 54 24 10	 mov	 BYTE PTR [rsp+16], dl
  00004	48 89 4c 24 08	 mov	 QWORD PTR [rsp+8], rcx
  00009	48 83 ec 38	 sub	 rsp, 56			; 00000038H

; 329  :     U64 abs = (skey_ptr - sysblk.storkeys) << _STORKEY_ARRAY_SHIFTAMT;

  0000d	48 8b 05 00 00
	00 00		 mov	 rax, QWORD PTR __imp_sysblk
  00014	48 8b 80 a0 00
	00 00		 mov	 rax, QWORD PTR [rax+160]
  0001b	48 8b 4c 24 40	 mov	 rcx, QWORD PTR skey_ptr$[rsp]
  00020	48 2b c8	 sub	 rcx, rax
  00023	48 8b c1	 mov	 rax, rcx
  00026	48 c1 e0 0b	 shl	 rax, 11
  0002a	48 89 44 24 20	 mov	 QWORD PTR abs$[rsp], rax

; 330  : #if defined( FEATURE_2K_STORAGE_KEYS )
; 331  :     ARCH_DEP( or_2K_storage_key )( abs, bits );
; 332  : #else
; 333  :     ARCH_DEP( or_4K_storage_key )( abs, bits );

  0002f	0f b6 54 24 48	 movzx	 edx, BYTE PTR bits$[rsp]
  00034	48 8b 4c 24 20	 mov	 rcx, QWORD PTR abs$[rsp]
  00039	e8 00 00 00 00	 call	 z900_or_4K_storage_key

; 334  : #endif
; 335  : }

  0003e	48 83 c4 38	 add	 rsp, 56			; 00000038H
  00042	c3		 ret	 0
z900_or_storage_key_by_ptr ENDP
_TEXT	ENDS
; Function compile flags: /Odtp
; File C:\papa\MyGit\hyperion-zvector\skey.h
;	COMDAT z900_get_storekey_by_ptr
_TEXT	SEGMENT
abs$ = 32
skey_ptr$ = 64
z900_get_storekey_by_ptr PROC				; COMDAT

; 317  : {

$LN3:
  00000	48 89 4c 24 08	 mov	 QWORD PTR [rsp+8], rcx
  00005	48 83 ec 38	 sub	 rsp, 56			; 00000038H

; 318  :     U64 abs = (skey_ptr - sysblk.storkeys) << _STORKEY_ARRAY_SHIFTAMT;

  00009	48 8b 05 00 00
	00 00		 mov	 rax, QWORD PTR __imp_sysblk
  00010	48 8b 80 a0 00
	00 00		 mov	 rax, QWORD PTR [rax+160]
  00017	48 8b 4c 24 40	 mov	 rcx, QWORD PTR skey_ptr$[rsp]
  0001c	48 2b c8	 sub	 rcx, rax
  0001f	48 8b c1	 mov	 rax, rcx
  00022	48 c1 e0 0b	 shl	 rax, 11
  00026	48 89 44 24 20	 mov	 QWORD PTR abs$[rsp], rax

; 319  : #if defined( FEATURE_2K_STORAGE_KEYS )
; 320  :     return ARCH_DEP( get_2K_storage_key )( abs );
; 321  : #else
; 322  :     return ARCH_DEP( get_4K_storage_key )( abs );

  0002b	48 8b 4c 24 20	 mov	 rcx, QWORD PTR abs$[rsp]
  00030	e8 00 00 00 00	 call	 z900_get_4K_storage_key

; 323  : #endif
; 324  : }

  00035	48 83 c4 38	 add	 rsp, 56			; 00000038H
  00039	c3		 ret	 0
z900_get_storekey_by_ptr ENDP
_TEXT	ENDS
; Function compile flags: /Odtp
; File C:\papa\MyGit\hyperion-zvector\skey.h
;	COMDAT z900_get_ptr_to_storekey
_TEXT	SEGMENT
abs$ = 48
z900_get_ptr_to_storekey PROC				; COMDAT

; 308  : {

$LN3:
  00000	48 89 4c 24 08	 mov	 QWORD PTR [rsp+8], rcx
  00005	48 83 ec 28	 sub	 rsp, 40			; 00000028H

; 309  : #if defined( FEATURE_2K_STORAGE_KEYS )
; 310  :     return ARCH_DEP( get_ptr_to_2K_storekey )( abs );
; 311  : #else
; 312  :     return ARCH_DEP( get_ptr_to_4K_storekey )( abs );

  00009	48 8b 4c 24 30	 mov	 rcx, QWORD PTR abs$[rsp]
  0000e	e8 00 00 00 00	 call	 z900_get_ptr_to_4K_storekey

; 313  : #endif
; 314  : }

  00013	48 83 c4 28	 add	 rsp, 40			; 00000028H
  00017	c3		 ret	 0
z900_get_ptr_to_storekey ENDP
_TEXT	ENDS
; Function compile flags: /Odtp
; File C:\papa\MyGit\hyperion-zvector\skey.h
;	COMDAT z900_or_storage_key
_TEXT	SEGMENT
abs$ = 48
bits$ = 56
z900_or_storage_key PROC				; COMDAT

; 290  : {

$LN3:
  00000	88 54 24 10	 mov	 BYTE PTR [rsp+16], dl
  00004	48 89 4c 24 08	 mov	 QWORD PTR [rsp+8], rcx
  00009	48 83 ec 28	 sub	 rsp, 40			; 00000028H

; 291  : #if defined( FEATURE_2K_STORAGE_KEYS )
; 292  :     ARCH_DEP( or_2K_storage_key )( abs, bits );
; 293  : #else
; 294  :     ARCH_DEP( or_4K_storage_key )( abs, bits );

  0000d	0f b6 54 24 38	 movzx	 edx, BYTE PTR bits$[rsp]
  00012	48 8b 4c 24 30	 mov	 rcx, QWORD PTR abs$[rsp]
  00017	e8 00 00 00 00	 call	 z900_or_4K_storage_key

; 295  : #endif
; 296  : }

  0001c	48 83 c4 28	 add	 rsp, 40			; 00000028H
  00020	c3		 ret	 0
z900_or_storage_key ENDP
_TEXT	ENDS
; Function compile flags: /Odtp
; File C:\papa\MyGit\hyperion-zvector\skey.h
;	COMDAT z900_or_4K_storage_key
_TEXT	SEGMENT
abs$ = 48
bits$ = 56
z900_or_4K_storage_key PROC				; COMDAT

; 242  :   inline void  ARCH_DEP( or_4K_storage_key )      (              U64 abs, BYTE bits ) {        ARCH_DEP( _or_storage_key      )(      abs, bits & ~STORKEY_BADFRM, 4 ); }

$LN3:
  00000	88 54 24 10	 mov	 BYTE PTR [rsp+16], dl
  00004	48 89 4c 24 08	 mov	 QWORD PTR [rsp+8], rcx
  00009	48 83 ec 28	 sub	 rsp, 40			; 00000028H
  0000d	0f b6 44 24 38	 movzx	 eax, BYTE PTR bits$[rsp]
  00012	83 e0 fe	 and	 eax, -2
  00015	41 b0 04	 mov	 r8b, 4
  00018	0f b6 d0	 movzx	 edx, al
  0001b	48 8b 4c 24 30	 mov	 rcx, QWORD PTR abs$[rsp]
  00020	e8 00 00 00 00	 call	 z900__or_storage_key
  00025	48 83 c4 28	 add	 rsp, 40			; 00000028H
  00029	c3		 ret	 0
z900_or_4K_storage_key ENDP
_TEXT	ENDS
; Function compile flags: /Odtp
; File C:\papa\MyGit\hyperion-zvector\skey.h
;	COMDAT z900_get_4K_storage_key
_TEXT	SEGMENT
abs$ = 48
z900_get_4K_storage_key PROC				; COMDAT

; 239  :   inline BYTE  ARCH_DEP( get_4K_storage_key )     (              U64 abs            ) { return ARCH_DEP( _get_storage_key     )(      abs, 4 )  & ~STORKEY_BADFRM;      }

$LN3:
  00000	48 89 4c 24 08	 mov	 QWORD PTR [rsp+8], rcx
  00005	48 83 ec 28	 sub	 rsp, 40			; 00000028H
  00009	b2 04		 mov	 dl, 4
  0000b	48 8b 4c 24 30	 mov	 rcx, QWORD PTR abs$[rsp]
  00010	e8 00 00 00 00	 call	 z900__get_storage_key
  00015	0f b6 c0	 movzx	 eax, al
  00018	83 e0 fe	 and	 eax, -2
  0001b	48 83 c4 28	 add	 rsp, 40			; 00000028H
  0001f	c3		 ret	 0
z900_get_4K_storage_key ENDP
_TEXT	ENDS
; Function compile flags: /Odtp
; File C:\papa\MyGit\hyperion-zvector\skey.h
;	COMDAT z900_get_ptr_to_4K_storekey
_TEXT	SEGMENT
abs$ = 48
z900_get_ptr_to_4K_storekey PROC			; COMDAT

; 238  :   inline BYTE* ARCH_DEP( get_ptr_to_4K_storekey ) (              U64 abs            ) { return           _get_storekey_ptr     (      abs, 4 );                         }

$LN3:
  00000	48 89 4c 24 08	 mov	 QWORD PTR [rsp+8], rcx
  00005	48 83 ec 28	 sub	 rsp, 40			; 00000028H
  00009	b2 04		 mov	 dl, 4
  0000b	48 8b 4c 24 30	 mov	 rcx, QWORD PTR abs$[rsp]
  00010	e8 00 00 00 00	 call	 _get_storekey_ptr
  00015	48 83 c4 28	 add	 rsp, 40			; 00000028H
  00019	c3		 ret	 0
z900_get_ptr_to_4K_storekey ENDP
_TEXT	ENDS
; Function compile flags: /Odtp
; File C:\papa\MyGit\hyperion-zvector\skey.h
;	COMDAT z900__or_storage_key
_TEXT	SEGMENT
skey1_ptr$1 = 32
skey2_ptr$2 = 40
skey_ptr$3 = 48
abs$ = 80
bits$ = 88
K$ = 96
z900__or_storage_key PROC				; COMDAT

; 189  : {

$LN8:
  00000	44 88 44 24 18	 mov	 BYTE PTR [rsp+24], r8b
  00005	88 54 24 10	 mov	 BYTE PTR [rsp+16], dl
  00009	48 89 4c 24 08	 mov	 QWORD PTR [rsp+8], rcx
  0000e	48 83 ec 48	 sub	 rsp, 72			; 00000048H
$LN4@z900__or_s:

; 190  :     UNREFERENCED( K ); // (for FEATURE_4K_STORAGE_KEYS case)

  00012	33 c0		 xor	 eax, eax
  00014	85 c0		 test	 eax, eax
  00016	75 fa		 jne	 SHORT $LN4@z900__or_s

; 191  :     if (IS_DOUBLE_KEYED_4K_BYTE_BLOCK( K ))

  00018	33 c0		 xor	 eax, eax
  0001a	85 c0		 test	 eax, eax
  0001c	74 50		 je	 SHORT $LN5@z900__or_s

; 192  :     {
; 193  :         BYTE* skey1_ptr = _get_storekey1_ptr( abs );

  0001e	48 8b 4c 24 50	 mov	 rcx, QWORD PTR abs$[rsp]
  00023	e8 00 00 00 00	 call	 _get_storekey1_ptr
  00028	48 89 44 24 20	 mov	 QWORD PTR skey1_ptr$1[rsp], rax

; 194  :         BYTE* skey2_ptr = _get_storekey2_ptr( abs );

  0002d	48 8b 4c 24 50	 mov	 rcx, QWORD PTR abs$[rsp]
  00032	e8 00 00 00 00	 call	 _get_storekey2_ptr
  00037	48 89 44 24 28	 mov	 QWORD PTR skey2_ptr$2[rsp], rax

; 195  :         OR_SKEY( skey1_ptr, bits );

  0003c	0f b6 44 24 58	 movzx	 eax, BYTE PTR bits$[rsp]
  00041	48 8b 4c 24 20	 mov	 rcx, QWORD PTR skey1_ptr$1[rsp]
  00046	0f b6 09	 movzx	 ecx, BYTE PTR [rcx]
  00049	0b c8		 or	 ecx, eax
  0004b	8b c1		 mov	 eax, ecx
  0004d	48 8b 4c 24 20	 mov	 rcx, QWORD PTR skey1_ptr$1[rsp]
  00052	88 01		 mov	 BYTE PTR [rcx], al

; 196  :         OR_SKEY( skey2_ptr, bits );

  00054	0f b6 44 24 58	 movzx	 eax, BYTE PTR bits$[rsp]
  00059	48 8b 4c 24 28	 mov	 rcx, QWORD PTR skey2_ptr$2[rsp]
  0005e	0f b6 09	 movzx	 ecx, BYTE PTR [rcx]
  00061	0b c8		 or	 ecx, eax
  00063	8b c1		 mov	 eax, ecx
  00065	48 8b 4c 24 28	 mov	 rcx, QWORD PTR skey2_ptr$2[rsp]
  0006a	88 01		 mov	 BYTE PTR [rcx], al

; 197  :     }

  0006c	eb 2c		 jmp	 SHORT $LN6@z900__or_s
$LN5@z900__or_s:

; 198  :     else
; 199  :     {
; 200  :         BYTE* skey_ptr  = _get_storekey_ptr( abs, K );

  0006e	0f b6 54 24 60	 movzx	 edx, BYTE PTR K$[rsp]
  00073	48 8b 4c 24 50	 mov	 rcx, QWORD PTR abs$[rsp]
  00078	e8 00 00 00 00	 call	 _get_storekey_ptr
  0007d	48 89 44 24 30	 mov	 QWORD PTR skey_ptr$3[rsp], rax

; 201  :         OR_SKEY( skey_ptr, bits );

  00082	0f b6 44 24 58	 movzx	 eax, BYTE PTR bits$[rsp]
  00087	48 8b 4c 24 30	 mov	 rcx, QWORD PTR skey_ptr$3[rsp]
  0008c	0f b6 09	 movzx	 ecx, BYTE PTR [rcx]
  0008f	0b c8		 or	 ecx, eax
  00091	8b c1		 mov	 eax, ecx
  00093	48 8b 4c 24 30	 mov	 rcx, QWORD PTR skey_ptr$3[rsp]
  00098	88 01		 mov	 BYTE PTR [rcx], al
$LN6@z900__or_s:

; 202  :     }
; 203  : }

  0009a	48 83 c4 48	 add	 rsp, 72			; 00000048H
  0009e	c3		 ret	 0
z900__or_storage_key ENDP
_TEXT	ENDS
; Function compile flags: /Odtp
; File C:\papa\MyGit\hyperion-zvector\skey.h
;	COMDAT z900__get_storage_key
_TEXT	SEGMENT
skey$ = 32
abs$ = 64
K$ = 72
z900__get_storage_key PROC				; COMDAT

; 130  : {

$LN8:
  00000	88 54 24 10	 mov	 BYTE PTR [rsp+16], dl
  00004	48 89 4c 24 08	 mov	 QWORD PTR [rsp+8], rcx
  00009	48 83 ec 38	 sub	 rsp, 56			; 00000038H
$LN4@z900__get_:

; 131  :     BYTE skey;
; 132  :     UNREFERENCED( K ); // (for FEATURE_4K_STORAGE_KEYS case)

  0000d	33 c0		 xor	 eax, eax
  0000f	85 c0		 test	 eax, eax
  00011	75 fa		 jne	 SHORT $LN4@z900__get_

; 133  :     if (IS_DOUBLE_KEYED_4K_BYTE_BLOCK( K ))

  00013	33 c0		 xor	 eax, eax
  00015	85 c0		 test	 eax, eax
  00017	74 32		 je	 SHORT $LN5@z900__get_

; 134  :     {
; 135  :         skey  = *_get_storekey1_ptr( abs );

  00019	48 8b 4c 24 40	 mov	 rcx, QWORD PTR abs$[rsp]
  0001e	e8 00 00 00 00	 call	 _get_storekey1_ptr
  00023	0f b6 00	 movzx	 eax, BYTE PTR [rax]
  00026	88 44 24 20	 mov	 BYTE PTR skey$[rsp], al

; 136  :         skey |= *_get_storekey2_ptr( abs ) & ~(STORKEY_KEY);

  0002a	48 8b 4c 24 40	 mov	 rcx, QWORD PTR abs$[rsp]
  0002f	e8 00 00 00 00	 call	 _get_storekey2_ptr
  00034	0f b6 00	 movzx	 eax, BYTE PTR [rax]
  00037	25 0f ff ff ff	 and	 eax, -241		; ffffffffffffff0fH
  0003c	0f b6 4c 24 20	 movzx	 ecx, BYTE PTR skey$[rsp]
  00041	0b c8		 or	 ecx, eax
  00043	8b c1		 mov	 eax, ecx
  00045	88 44 24 20	 mov	 BYTE PTR skey$[rsp], al

; 137  :     }

  00049	eb 16		 jmp	 SHORT $LN6@z900__get_
$LN5@z900__get_:

; 138  :     else
; 139  :         skey  = *_get_storekey_ptr(  abs, K );

  0004b	0f b6 54 24 48	 movzx	 edx, BYTE PTR K$[rsp]
  00050	48 8b 4c 24 40	 mov	 rcx, QWORD PTR abs$[rsp]
  00055	e8 00 00 00 00	 call	 _get_storekey_ptr
  0005a	0f b6 00	 movzx	 eax, BYTE PTR [rax]
  0005d	88 44 24 20	 mov	 BYTE PTR skey$[rsp], al
$LN6@z900__get_:

; 140  :     return skey;

  00061	0f b6 44 24 20	 movzx	 eax, BYTE PTR skey$[rsp]

; 141  : }

  00066	48 83 c4 38	 add	 rsp, 56			; 00000038H
  0006a	c3		 ret	 0
z900__get_storage_key ENDP
_TEXT	ENDS
; Function compile flags: /Odtp
; File C:\papa\MyGit\hyperion-zvector\dat.c
_TEXT	SEGMENT
tv77 = 0
arn$ = 32
acctype$ = 40
regs$ = 48
s390_check_sa_per2 PROC

; 2302 : {

  00000	4c 89 44 24 18	 mov	 QWORD PTR [rsp+24], r8
  00005	89 54 24 10	 mov	 DWORD PTR [rsp+16], edx
  00009	89 4c 24 08	 mov	 DWORD PTR [rsp+8], ecx
  0000d	48 83 ec 18	 sub	 rsp, 24
$LN4@s390_check:

; 2303 :     UNREFERENCED( acctype );

  00011	33 c0		 xor	 eax, eax
  00013	85 c0		 test	 eax, eax
  00015	75 fa		 jne	 SHORT $LN4@s390_check

; 2304 : 
; 2305 :     if (0
; 2306 :         || (regs->dat.asd & SAEVENT_BIT)
; 2307 :         || !(regs->CR(9) & CR9_SAC)

  00017	33 c0		 xor	 eax, eax
  00019	85 c0		 test	 eax, eax
  0001b	75 35		 jne	 SHORT $LN6@s390_check
  0001d	48 8b 44 24 30	 mov	 rax, QWORD PTR regs$[rsp]
  00022	48 8b 80 18 08
	00 00		 mov	 rax, QWORD PTR [rax+2072]
  00029	48 25 80 00 00
	00		 and	 rax, 128		; 00000080H
  0002f	48 85 c0	 test	 rax, rax
  00032	75 1e		 jne	 SHORT $LN6@s390_check
  00034	b8 08 00 00 00	 mov	 eax, 8
  00039	48 6b c0 0a	 imul	 rax, rax, 10
  0003d	48 8b 4c 24 30	 mov	 rcx, QWORD PTR regs$[rsp]
  00042	8b 84 01 00 06
	00 00		 mov	 eax, DWORD PTR [rcx+rax+1536]
  00049	25 00 00 20 00	 and	 eax, 2097152		; 00200000H
  0004e	85 c0		 test	 eax, eax
  00050	75 4d		 jne	 SHORT $LN5@s390_check
$LN6@s390_check:

; 2308 :     )
; 2309 :     {
; 2310 :         regs->peraid = arn > 0 ? arn : 0;

  00052	83 7c 24 20 00	 cmp	 DWORD PTR arn$[rsp], 0
  00057	7e 09		 jle	 SHORT $LN8@s390_check
  00059	8b 44 24 20	 mov	 eax, DWORD PTR arn$[rsp]
  0005d	89 04 24	 mov	 DWORD PTR tv77[rsp], eax
  00060	eb 07		 jmp	 SHORT $LN9@s390_check
$LN8@s390_check:
  00062	c7 04 24 00 00
	00 00		 mov	 DWORD PTR tv77[rsp], 0
$LN9@s390_check:
  00069	48 8b 44 24 30	 mov	 rax, QWORD PTR regs$[rsp]
  0006e	0f b6 0c 24	 movzx	 ecx, BYTE PTR tv77[rsp]
  00072	88 88 e0 08 00
	00		 mov	 BYTE PTR [rax+2272], cl

; 2311 :         regs->perc |= regs->dat.stid;

  00078	48 8b 44 24 30	 mov	 rax, QWORD PTR regs$[rsp]
  0007d	0f b7 80 d0 08
	00 00		 movzx	 eax, WORD PTR [rax+2256]
  00084	48 8b 4c 24 30	 mov	 rcx, QWORD PTR regs$[rsp]
  00089	0b 81 20 08 00
	00		 or	 eax, DWORD PTR [rcx+2080]
  0008f	48 8b 4c 24 30	 mov	 rcx, QWORD PTR regs$[rsp]
  00094	66 89 81 d0 08
	00 00		 mov	 WORD PTR [rcx+2256], ax

; 2312 :         return true;

  0009b	b0 01		 mov	 al, 1
  0009d	eb 02		 jmp	 SHORT $LN1@s390_check
$LN5@s390_check:

; 2313 :     }
; 2314 :     return false;

  0009f	32 c0		 xor	 al, al
$LN1@s390_check:

; 2315 : }

  000a1	48 83 c4 18	 add	 rsp, 24
  000a5	c3		 ret	 0
s390_check_sa_per2 ENDP
_TEXT	ENDS
; Function compile flags: /Odtp
; File C:\papa\MyGit\hyperion-zvector\dat.c
_TEXT	SEGMENT
tv64 = 48
eax$ = 52
tv68 = 56
tv151 = 60
tv152 = 64
alet$ = 68
tv251 = 72
asteo$ = 76
aste$ = 80
__$ArrayPad$ = 144
arn$ = 176
regs$ = 184
acctype$ = 192
s390_load_address_space_designator PROC

; 670  : {

$LN33:
  00000	44 89 44 24 18	 mov	 DWORD PTR [rsp+24], r8d
  00005	48 89 54 24 10	 mov	 QWORD PTR [rsp+16], rdx
  0000a	89 4c 24 08	 mov	 DWORD PTR [rsp+8], ecx
  0000e	48 81 ec a8 00
	00 00		 sub	 rsp, 168		; 000000a8H
  00015	48 8b 05 00 00
	00 00		 mov	 rax, QWORD PTR __security_cookie
  0001c	48 33 c4	 xor	 rax, rsp
  0001f	48 89 84 24 90
	00 00 00	 mov	 QWORD PTR __$ArrayPad$[rsp], rax

; 671  : #if defined( FEATURE_ACCESS_REGISTERS )
; 672  : U32     alet;                           /* Access list entry token   */
; 673  : U32     asteo;                          /* Real address of ASTE      */
; 674  : U32     aste[16];                       /* ASN second table entry    */
; 675  : U16     eax;                            /* Authorization index       */
; 676  : #else
; 677  :     UNREFERENCED( acctype );
; 678  : #endif
; 679  : 
; 680  :     switch(arn) {

  00027	8b 84 24 b0 00
	00 00		 mov	 eax, DWORD PTR arn$[rsp]
  0002e	89 44 24 30	 mov	 DWORD PTR tv64[rsp], eax
  00032	83 7c 24 30 fb	 cmp	 DWORD PTR tv64[rsp], -5
  00037	0f 84 4e 01 00
	00		 je	 $LN14@s390_load_
  0003d	83 7c 24 30 fc	 cmp	 DWORD PTR tv64[rsp], -4
  00042	0f 84 05 01 00
	00		 je	 $LN13@s390_load_
  00048	83 7c 24 30 fd	 cmp	 DWORD PTR tv64[rsp], -3
  0004d	0f 84 bc 00 00
	00		 je	 $LN12@s390_load_
  00053	83 7c 24 30 fe	 cmp	 DWORD PTR tv64[rsp], -2
  00058	0f 84 6b 01 00
	00		 je	 $LN15@s390_load_
  0005e	83 7c 24 30 ff	 cmp	 DWORD PTR tv64[rsp], -1
  00063	74 05		 je	 SHORT $LN8@s390_load_
  00065	e9 8a 01 00 00	 jmp	 $LN16@s390_load_
$LN8@s390_load_:

; 681  : 
; 682  :     case USE_INST_SPACE:
; 683  :         switch(regs->AEA_AR(USE_INST_SPACE)) {

  0006a	b8 04 00 00 00	 mov	 eax, 4
  0006f	48 6b c0 04	 imul	 rax, rax, 4
  00073	48 8b 8c 24 b8
	00 00 00	 mov	 rcx, QWORD PTR regs$[rsp]
  0007b	8b 84 01 94 0c
	00 00		 mov	 eax, DWORD PTR [rcx+rax+3220]
  00082	89 44 24 38	 mov	 DWORD PTR tv68[rsp], eax
  00086	83 7c 24 38 01	 cmp	 DWORD PTR tv68[rsp], 1
  0008b	74 09		 je	 SHORT $LN9@s390_load_
  0008d	83 7c 24 38 0d	 cmp	 DWORD PTR tv68[rsp], 13
  00092	74 16		 je	 SHORT $LN10@s390_load_
  00094	eb 28		 jmp	 SHORT $LN11@s390_load_
$LN9@s390_load_:

; 684  : 
; 685  :         case 1:
; 686  :             regs->dat.stid = TEA_ST_PRIMARY;

  00096	48 8b 84 24 b8
	00 00 00	 mov	 rax, QWORD PTR regs$[rsp]
  0009e	c7 80 20 08 00
	00 00 00 00 00	 mov	 DWORD PTR [rax+2080], 0

; 687  :             break;

  000a8	eb 26		 jmp	 SHORT $LN4@s390_load_
$LN10@s390_load_:

; 688  : #if defined( FEATURE_LINKAGE_STACK )
; 689  :         case 13:
; 690  :             regs->dat.stid = TEA_ST_HOME;

  000aa	48 8b 84 24 b8
	00 00 00	 mov	 rax, QWORD PTR regs$[rsp]
  000b2	c7 80 20 08 00
	00 03 00 00 00	 mov	 DWORD PTR [rax+2080], 3

; 691  :             break;

  000bc	eb 12		 jmp	 SHORT $LN4@s390_load_
$LN11@s390_load_:

; 692  : #endif
; 693  :         default:
; 694  :             regs->dat.stid = 0;

  000be	48 8b 84 24 b8
	00 00 00	 mov	 rax, QWORD PTR regs$[rsp]
  000c6	c7 80 20 08 00
	00 00 00 00 00	 mov	 DWORD PTR [rax+2080], 0
$LN4@s390_load_:

; 695  :         } /* end switch(regs->AEA_AR(USE_INST_SPACE)) */
; 696  : 
; 697  :         regs->dat.asd = regs->CR(regs->AEA_AR(USE_INST_SPACE));

  000d0	b8 04 00 00 00	 mov	 eax, 4
  000d5	48 6b c0 04	 imul	 rax, rax, 4
  000d9	48 8b 8c 24 b8
	00 00 00	 mov	 rcx, QWORD PTR regs$[rsp]
  000e1	8b 84 01 94 0c
	00 00		 mov	 eax, DWORD PTR [rcx+rax+3220]
  000e8	ff c0		 inc	 eax
  000ea	48 98		 cdqe
  000ec	48 8b 8c 24 b8
	00 00 00	 mov	 rcx, QWORD PTR regs$[rsp]
  000f4	8b 84 c1 00 06
	00 00		 mov	 eax, DWORD PTR [rcx+rax*8+1536]
  000fb	48 8b 8c 24 b8
	00 00 00	 mov	 rcx, QWORD PTR regs$[rsp]
  00103	48 89 81 18 08
	00 00		 mov	 QWORD PTR [rcx+2072], rax

; 698  :         break;

  0010a	e9 3b 05 00 00	 jmp	 $LN2@s390_load_
$LN12@s390_load_:

; 699  : 
; 700  :     case USE_PRIMARY_SPACE:
; 701  :         regs->dat.stid = TEA_ST_PRIMARY;

  0010f	48 8b 84 24 b8
	00 00 00	 mov	 rax, QWORD PTR regs$[rsp]
  00117	c7 80 20 08 00
	00 00 00 00 00	 mov	 DWORD PTR [rax+2080], 0

; 702  :         regs->dat.asd = regs->CR(1);

  00121	b8 08 00 00 00	 mov	 eax, 8
  00126	48 6b c0 02	 imul	 rax, rax, 2
  0012a	48 8b 8c 24 b8
	00 00 00	 mov	 rcx, QWORD PTR regs$[rsp]
  00132	8b 84 01 00 06
	00 00		 mov	 eax, DWORD PTR [rcx+rax+1536]
  00139	48 8b 8c 24 b8
	00 00 00	 mov	 rcx, QWORD PTR regs$[rsp]
  00141	48 89 81 18 08
	00 00		 mov	 QWORD PTR [rcx+2072], rax

; 703  :         break;

  00148	e9 fd 04 00 00	 jmp	 $LN2@s390_load_
$LN13@s390_load_:

; 704  : 
; 705  :     case USE_SECONDARY_SPACE:
; 706  :         regs->dat.stid = TEA_ST_SECNDRY;

  0014d	48 8b 84 24 b8
	00 00 00	 mov	 rax, QWORD PTR regs$[rsp]
  00155	c7 80 20 08 00
	00 02 00 00 00	 mov	 DWORD PTR [rax+2080], 2

; 707  :         regs->dat.asd = regs->CR(7);

  0015f	b8 08 00 00 00	 mov	 eax, 8
  00164	48 6b c0 08	 imul	 rax, rax, 8
  00168	48 8b 8c 24 b8
	00 00 00	 mov	 rcx, QWORD PTR regs$[rsp]
  00170	8b 84 01 00 06
	00 00		 mov	 eax, DWORD PTR [rcx+rax+1536]
  00177	48 8b 8c 24 b8
	00 00 00	 mov	 rcx, QWORD PTR regs$[rsp]
  0017f	48 89 81 18 08
	00 00		 mov	 QWORD PTR [rcx+2072], rax

; 708  :         break;

  00186	e9 bf 04 00 00	 jmp	 $LN2@s390_load_
$LN14@s390_load_:

; 709  : 
; 710  :     case USE_HOME_SPACE:
; 711  :         regs->dat.stid = TEA_ST_HOME;

  0018b	48 8b 84 24 b8
	00 00 00	 mov	 rax, QWORD PTR regs$[rsp]
  00193	c7 80 20 08 00
	00 03 00 00 00	 mov	 DWORD PTR [rax+2080], 3

; 712  :         regs->dat.asd = regs->CR(13);

  0019d	b8 08 00 00 00	 mov	 eax, 8
  001a2	48 6b c0 0e	 imul	 rax, rax, 14
  001a6	48 8b 8c 24 b8
	00 00 00	 mov	 rcx, QWORD PTR regs$[rsp]
  001ae	8b 84 01 00 06
	00 00		 mov	 eax, DWORD PTR [rcx+rax+1536]
  001b5	48 8b 8c 24 b8
	00 00 00	 mov	 rcx, QWORD PTR regs$[rsp]
  001bd	48 89 81 18 08
	00 00		 mov	 QWORD PTR [rcx+2072], rax

; 713  :         break;

  001c4	e9 81 04 00 00	 jmp	 $LN2@s390_load_
$LN15@s390_load_:

; 714  : 
; 715  :     case USE_REAL_ADDR:
; 716  :         regs->dat.stid = 0;

  001c9	48 8b 84 24 b8
	00 00 00	 mov	 rax, QWORD PTR regs$[rsp]
  001d1	c7 80 20 08 00
	00 00 00 00 00	 mov	 DWORD PTR [rax+2080], 0

; 717  :         regs->dat.asd = TLB_REAL_ASD;

  001db	48 8b 84 24 b8
	00 00 00	 mov	 rax, QWORD PTR regs$[rsp]
  001e3	b9 ff ff ff ff	 mov	 ecx, -1			; ffffffffH
  001e8	48 89 88 18 08
	00 00		 mov	 QWORD PTR [rax+2072], rcx

; 718  :         break;

  001ef	e9 56 04 00 00	 jmp	 $LN2@s390_load_
$LN16@s390_load_:

; 719  : 
; 720  :     default:
; 721  : 
; 722  : #if defined( FEATURE_ACCESS_REGISTERS )
; 723  :         if (ACCESS_REGISTER_MODE(&regs->psw)
; 724  :          || (SIE_ACTIVE(regs) && MULTIPLE_CONTROLLED_DATA_SPACE(GUESTREGS))
; 725  :          || (arn >= USE_ARMODE)

  001f4	48 8b 84 24 b8
	00 00 00	 mov	 rax, QWORD PTR regs$[rsp]
  001fc	0f b6 40 7b	 movzx	 eax, BYTE PTR [rax+123]
  00200	83 f8 40	 cmp	 eax, 64			; 00000040H
  00203	74 14		 je	 SHORT $LN18@s390_load_
  00205	33 c0		 xor	 eax, eax
  00207	85 c0		 test	 eax, eax
  00209	75 0e		 jne	 SHORT $LN18@s390_load_
  0020b	83 bc 24 b0 00
	00 00 10	 cmp	 DWORD PTR arn$[rsp], 16
  00213	0f 8c 59 03 00
	00		 jl	 $LN17@s390_load_
$LN18@s390_load_:

; 726  :            )
; 727  :         {
; 728  :             /* Remove flags giving access register number 0-15 */
; 729  :             arn &= 0xF;

  00219	8b 84 24 b0 00
	00 00		 mov	 eax, DWORD PTR arn$[rsp]
  00220	83 e0 0f	 and	 eax, 15
  00223	89 84 24 b0 00
	00 00		 mov	 DWORD PTR arn$[rsp], eax

; 730  : 
; 731  :             /* [5.8.4.1] Select the access-list-entry token */
; 732  :             alet = (arn == 0) ? 0 :

  0022a	83 bc 24 b0 00
	00 00 00	 cmp	 DWORD PTR arn$[rsp], 0
  00232	75 0a		 jne	 SHORT $LN29@s390_load_
  00234	c7 44 24 3c 00
	00 00 00	 mov	 DWORD PTR tv151[rsp], 0
  0023c	eb 1b		 jmp	 SHORT $LN30@s390_load_
$LN29@s390_load_:
  0023e	48 63 84 24 b0
	00 00 00	 movsxd	 rax, DWORD PTR arn$[rsp]
  00246	48 8b 8c 24 b8
	00 00 00	 mov	 rcx, QWORD PTR regs$[rsp]
  0024e	8b 84 81 00 03
	00 00		 mov	 eax, DWORD PTR [rcx+rax*4+768]
  00255	89 44 24 3c	 mov	 DWORD PTR tv151[rsp], eax
$LN30@s390_load_:
  00259	8b 44 24 3c	 mov	 eax, DWORD PTR tv151[rsp]
  0025d	89 44 24 44	 mov	 DWORD PTR alet$[rsp], eax

; 733  :                    /* Guest ALET if XC guest in AR mode */
; 734  :                    (SIE_ACTIVE(regs) && MULTIPLE_CONTROLLED_DATA_SPACE(GUESTREGS))
; 735  :                    ? GUESTREGS->AR(arn) :
; 736  :                    /* If SIE host but not XC guest in AR mode then alet is 0 */
; 737  :                    SIE_ACTIVE(regs) ? 0 :
; 738  :                    /* Otherwise alet is in the access register */
; 739  :                    regs->AR(arn);
; 740  : 
; 741  :             /* Use the ALET to determine the segment table origin */
; 742  :             switch (alet) {

  00261	8b 44 24 44	 mov	 eax, DWORD PTR alet$[rsp]
  00265	89 44 24 40	 mov	 DWORD PTR tv152[rsp], eax
  00269	83 7c 24 40 00	 cmp	 DWORD PTR tv152[rsp], 0
  0026e	74 09		 je	 SHORT $LN19@s390_load_
  00270	83 7c 24 40 01	 cmp	 DWORD PTR tv152[rsp], 1
  00275	74 40		 je	 SHORT $LN20@s390_load_
  00277	eb 7c		 jmp	 SHORT $LN21@s390_load_
$LN19@s390_load_:

; 743  : 
; 744  :             case ALET_PRIMARY:
; 745  :                 /* [5.8.4.2] Obtain primary segment table designation */
; 746  :                 regs->dat.stid = TEA_ST_PRIMARY;

  00279	48 8b 84 24 b8
	00 00 00	 mov	 rax, QWORD PTR regs$[rsp]
  00281	c7 80 20 08 00
	00 00 00 00 00	 mov	 DWORD PTR [rax+2080], 0

; 747  :                 regs->dat.asd = regs->CR(1);

  0028b	b8 08 00 00 00	 mov	 eax, 8
  00290	48 6b c0 02	 imul	 rax, rax, 2
  00294	48 8b 8c 24 b8
	00 00 00	 mov	 rcx, QWORD PTR regs$[rsp]
  0029c	8b 84 01 00 06
	00 00		 mov	 eax, DWORD PTR [rcx+rax+1536]
  002a3	48 8b 8c 24 b8
	00 00 00	 mov	 rcx, QWORD PTR regs$[rsp]
  002ab	48 89 81 18 08
	00 00		 mov	 QWORD PTR [rcx+2072], rax

; 748  :                 break;

  002b2	e9 b6 02 00 00	 jmp	 $LN6@s390_load_
$LN20@s390_load_:

; 749  : 
; 750  :             case ALET_SECONDARY:
; 751  :                 /* [5.8.4.2] Obtain secondary segment table designation */
; 752  :                 regs->dat.stid = TEA_ST_SECNDRY;

  002b7	48 8b 84 24 b8
	00 00 00	 mov	 rax, QWORD PTR regs$[rsp]
  002bf	c7 80 20 08 00
	00 02 00 00 00	 mov	 DWORD PTR [rax+2080], 2

; 753  :                 regs->dat.asd = regs->CR(7);

  002c9	b8 08 00 00 00	 mov	 eax, 8
  002ce	48 6b c0 08	 imul	 rax, rax, 8
  002d2	48 8b 8c 24 b8
	00 00 00	 mov	 rcx, QWORD PTR regs$[rsp]
  002da	8b 84 01 00 06
	00 00		 mov	 eax, DWORD PTR [rcx+rax+1536]
  002e1	48 8b 8c 24 b8
	00 00 00	 mov	 rcx, QWORD PTR regs$[rsp]
  002e9	48 89 81 18 08
	00 00		 mov	 QWORD PTR [rcx+2072], rax

; 754  :                 break;

  002f0	e9 78 02 00 00	 jmp	 $LN6@s390_load_
$LN21@s390_load_:

; 755  : 
; 756  :             default:
; 757  :                 /* ALB Lookup */
; 758  :                 if(regs->AEA_AR(arn) >= CR_ALB_OFFSET)

  002f5	8b 84 24 b0 00
	00 00		 mov	 eax, DWORD PTR arn$[rsp]
  002fc	83 c0 05	 add	 eax, 5
  002ff	48 98		 cdqe
  00301	48 8b 8c 24 b8
	00 00 00	 mov	 rcx, QWORD PTR regs$[rsp]
  00309	83 bc 81 94 0c
	00 00 10	 cmp	 DWORD PTR [rcx+rax*4+3220], 16
  00311	0f 8c 94 00 00
	00		 jl	 $LN22@s390_load_

; 759  :                 {
; 760  :                     regs->dat.asd = regs->CR(regs->AEA_AR(arn));

  00317	8b 84 24 b0 00
	00 00		 mov	 eax, DWORD PTR arn$[rsp]
  0031e	83 c0 05	 add	 eax, 5
  00321	48 98		 cdqe
  00323	48 8b 8c 24 b8
	00 00 00	 mov	 rcx, QWORD PTR regs$[rsp]
  0032b	8b 84 81 94 0c
	00 00		 mov	 eax, DWORD PTR [rcx+rax*4+3220]
  00332	ff c0		 inc	 eax
  00334	48 98		 cdqe
  00336	48 8b 8c 24 b8
	00 00 00	 mov	 rcx, QWORD PTR regs$[rsp]
  0033e	8b 84 c1 00 06
	00 00		 mov	 eax, DWORD PTR [rcx+rax*8+1536]
  00345	48 8b 8c 24 b8
	00 00 00	 mov	 rcx, QWORD PTR regs$[rsp]
  0034d	48 89 81 18 08
	00 00		 mov	 QWORD PTR [rcx+2072], rax

; 761  :                     regs->dat.protect = regs->aea_aleprot[arn];

  00354	48 63 84 24 b0
	00 00 00	 movsxd	 rax, DWORD PTR arn$[rsp]
  0035c	48 8b 8c 24 b8
	00 00 00	 mov	 rcx, QWORD PTR regs$[rsp]
  00364	0f b6 84 01 09
	0d 00 00	 movzx	 eax, BYTE PTR [rcx+rax+3337]
  0036c	83 e0 03	 and	 eax, 3
  0036f	d1 e0		 shl	 eax, 1
  00371	48 8b 8c 24 b8
	00 00 00	 mov	 rcx, QWORD PTR regs$[rsp]
  00379	8b 89 34 08 00
	00		 mov	 ecx, DWORD PTR [rcx+2100]
  0037f	83 e1 f9	 and	 ecx, -7			; fffffff9H
  00382	0b c8		 or	 ecx, eax
  00384	8b c1		 mov	 eax, ecx
  00386	48 8b 8c 24 b8
	00 00 00	 mov	 rcx, QWORD PTR regs$[rsp]
  0038e	89 81 34 08 00
	00		 mov	 DWORD PTR [rcx+2100], eax

; 762  :                     regs->dat.stid = TEA_ST_ARMODE;

  00394	48 8b 84 24 b8
	00 00 00	 mov	 rax, QWORD PTR regs$[rsp]
  0039c	c7 80 20 08 00
	00 01 00 00 00	 mov	 DWORD PTR [rax+2080], 1

; 763  :                 }

  003a6	e9 c2 01 00 00	 jmp	 $LN23@s390_load_
$LN22@s390_load_:

; 764  :                 else
; 765  :                 {
; 766  :                     /* Extract the extended AX from CR8 bits 0-15 (32-47) */
; 767  :                     eax = regs->CR_LHH(8);

  003ab	b8 08 00 00 00	 mov	 eax, 8
  003b0	48 6b c0 09	 imul	 rax, rax, 9
  003b4	48 8b 8c 24 b8
	00 00 00	 mov	 rcx, QWORD PTR regs$[rsp]
  003bc	0f b7 84 01 02
	06 00 00	 movzx	 eax, WORD PTR [rcx+rax+1538]
  003c4	66 89 44 24 34	 mov	 WORD PTR eax$[rsp], ax

; 768  : 
; 769  :                     /* [5.8.4.3] Perform ALET translation to obtain ASTE */
; 770  :                     if (ARCH_DEP(translate_alet) (alet, eax, acctype,

  003c9	48 8d 44 24 50	 lea	 rax, QWORD PTR aste$[rsp]
  003ce	48 89 44 24 28	 mov	 QWORD PTR [rsp+40], rax
  003d3	48 8d 44 24 4c	 lea	 rax, QWORD PTR asteo$[rsp]
  003d8	48 89 44 24 20	 mov	 QWORD PTR [rsp+32], rax
  003dd	4c 8b 8c 24 b8
	00 00 00	 mov	 r9, QWORD PTR regs$[rsp]
  003e5	44 8b 84 24 c0
	00 00 00	 mov	 r8d, DWORD PTR acctype$[rsp]
  003ed	0f b7 54 24 34	 movzx	 edx, WORD PTR eax$[rsp]
  003f2	8b 4c 24 44	 mov	 ecx, DWORD PTR alet$[rsp]
  003f6	e8 00 00 00 00	 call	 s390_translate_alet
  003fb	0f b7 c0	 movzx	 eax, ax
  003fe	85 c0		 test	 eax, eax
  00400	74 14		 je	 SHORT $LN24@s390_load_

; 771  :                                                   regs, &asteo, aste))
; 772  :                         /* Exit if ALET translation error */
; 773  :                         return regs->dat.xcode;

  00402	48 8b 84 24 b8
	00 00 00	 mov	 rax, QWORD PTR regs$[rsp]
  0040a	0f b7 80 30 08
	00 00		 movzx	 eax, WORD PTR [rax+2096]
  00411	e9 36 02 00 00	 jmp	 $LN1@s390_load_
$LN24@s390_load_:

; 774  : 
; 775  :                     /* [5.8.4.9] Obtain the STD or ASCE from the ASTE */
; 776  :                     regs->dat.asd = ASTE_AS_DESIGNATOR(aste);

  00416	b8 04 00 00 00	 mov	 eax, 4
  0041b	48 6b c0 02	 imul	 rax, rax, 2
  0041f	8b 44 04 50	 mov	 eax, DWORD PTR aste$[rsp+rax]
  00423	48 8b 8c 24 b8
	00 00 00	 mov	 rcx, QWORD PTR regs$[rsp]
  0042b	48 89 81 18 08
	00 00		 mov	 QWORD PTR [rcx+2072], rax

; 777  :                     regs->dat.stid = TEA_ST_ARMODE;

  00432	48 8b 84 24 b8
	00 00 00	 mov	 rax, QWORD PTR regs$[rsp]
  0043a	c7 80 20 08 00
	00 01 00 00 00	 mov	 DWORD PTR [rax+2080], 1

; 778  : 
; 779  :                     if (regs->dat.protect & 2)

  00444	48 8b 84 24 b8
	00 00 00	 mov	 rax, QWORD PTR regs$[rsp]
  0044c	8b 80 34 08 00
	00		 mov	 eax, DWORD PTR [rax+2100]
  00452	d1 e8		 shr	 eax, 1
  00454	83 e0 03	 and	 eax, 3
  00457	83 e0 02	 and	 eax, 2
  0045a	85 c0		 test	 eax, eax
  0045c	74 47		 je	 SHORT $LN25@s390_load_

; 780  :                     {
; 781  : #if defined( FEATURE_001_ZARCH_INSTALLED_FACILITY )
; 782  :                        regs->dat.asd ^= ASCE_RESV;
; 783  :                        regs->dat.asd |= ASCE_P;
; 784  : #else
; 785  :                        regs->dat.asd ^= STD_RESV;

  0045e	48 8b 84 24 b8
	00 00 00	 mov	 rax, QWORD PTR regs$[rsp]
  00466	48 8b 80 18 08
	00 00		 mov	 rax, QWORD PTR [rax+2072]
  0046d	48 35 00 0c 00
	00		 xor	 rax, 3072		; 00000c00H
  00473	48 8b 8c 24 b8
	00 00 00	 mov	 rcx, QWORD PTR regs$[rsp]
  0047b	48 89 81 18 08
	00 00		 mov	 QWORD PTR [rcx+2072], rax

; 786  :                        regs->dat.asd |= STD_PRIVATE;

  00482	48 8b 84 24 b8
	00 00 00	 mov	 rax, QWORD PTR regs$[rsp]
  0048a	48 8b 80 18 08
	00 00		 mov	 rax, QWORD PTR [rax+2072]
  00491	48 0f ba e8 08	 bts	 rax, 8
  00496	48 8b 8c 24 b8
	00 00 00	 mov	 rcx, QWORD PTR regs$[rsp]
  0049e	48 89 81 18 08
	00 00		 mov	 QWORD PTR [rcx+2072], rax
$LN25@s390_load_:

; 787  : #endif
; 788  :                     }
; 789  : 
; 790  :                     /* Update ALB */
; 791  :                     regs->CR(CR_ALB_OFFSET + arn) = regs->dat.asd;

  004a5	8b 84 24 b0 00
	00 00		 mov	 eax, DWORD PTR arn$[rsp]
  004ac	83 c0 11	 add	 eax, 17
  004af	48 98		 cdqe
  004b1	48 8b 8c 24 b8
	00 00 00	 mov	 rcx, QWORD PTR regs$[rsp]
  004b9	48 8b 94 24 b8
	00 00 00	 mov	 rdx, QWORD PTR regs$[rsp]
  004c1	8b 92 18 08 00
	00		 mov	 edx, DWORD PTR [rdx+2072]
  004c7	89 94 c1 00 06
	00 00		 mov	 DWORD PTR [rcx+rax*8+1536], edx

; 792  :                     regs->AEA_AR(arn) = CR_ALB_OFFSET + arn;

  004ce	8b 84 24 b0 00
	00 00		 mov	 eax, DWORD PTR arn$[rsp]
  004d5	83 c0 10	 add	 eax, 16
  004d8	8b 8c 24 b0 00
	00 00		 mov	 ecx, DWORD PTR arn$[rsp]
  004df	83 c1 05	 add	 ecx, 5
  004e2	48 63 c9	 movsxd	 rcx, ecx
  004e5	48 8b 94 24 b8
	00 00 00	 mov	 rdx, QWORD PTR regs$[rsp]
  004ed	89 84 8a 94 0c
	00 00		 mov	 DWORD PTR [rdx+rcx*4+3220], eax

; 793  :                     regs->AEA_COMMON(CR_ALB_OFFSET + arn) = (regs->dat.asd & ASD_PRIVATE) == 0;

  004f4	48 8b 84 24 b8
	00 00 00	 mov	 rax, QWORD PTR regs$[rsp]
  004fc	48 8b 80 18 08
	00 00		 mov	 rax, QWORD PTR [rax+2072]
  00503	48 25 00 01 00
	00		 and	 rax, 256		; 00000100H
  00509	48 85 c0	 test	 rax, rax
  0050c	75 0a		 jne	 SHORT $LN31@s390_load_
  0050e	c7 44 24 48 01
	00 00 00	 mov	 DWORD PTR tv251[rsp], 1
  00516	eb 08		 jmp	 SHORT $LN32@s390_load_
$LN31@s390_load_:
  00518	c7 44 24 48 00
	00 00 00	 mov	 DWORD PTR tv251[rsp], 0
$LN32@s390_load_:
  00520	8b 84 24 b0 00
	00 00		 mov	 eax, DWORD PTR arn$[rsp]
  00527	83 c0 11	 add	 eax, 17
  0052a	48 98		 cdqe
  0052c	48 8b 8c 24 b8
	00 00 00	 mov	 rcx, QWORD PTR regs$[rsp]
  00534	0f b6 54 24 48	 movzx	 edx, BYTE PTR tv251[rsp]
  00539	88 94 01 e8 0c
	00 00		 mov	 BYTE PTR [rcx+rax+3304], dl

; 794  :                     regs->aea_aleprot[arn] = regs->dat.protect & 2;

  00540	48 8b 84 24 b8
	00 00 00	 mov	 rax, QWORD PTR regs$[rsp]
  00548	8b 80 34 08 00
	00		 mov	 eax, DWORD PTR [rax+2100]
  0054e	d1 e8		 shr	 eax, 1
  00550	83 e0 03	 and	 eax, 3
  00553	83 e0 02	 and	 eax, 2
  00556	48 63 8c 24 b0
	00 00 00	 movsxd	 rcx, DWORD PTR arn$[rsp]
  0055e	48 8b 94 24 b8
	00 00 00	 mov	 rdx, QWORD PTR regs$[rsp]
  00566	88 84 0a 09 0d
	00 00		 mov	 BYTE PTR [rdx+rcx+3337], al
$LN23@s390_load_:
$LN6@s390_load_:

; 795  :                 }
; 796  : 
; 797  :             } /* end switch(alet) */
; 798  : 
; 799  :             break;

  0056d	e9 d8 00 00 00	 jmp	 $LN2@s390_load_
$LN17@s390_load_:

; 800  : 
; 801  :         } /* end if(ACCESS_REGISTER_MODE) */
; 802  : #endif /* defined( FEATURE_ACCESS_REGISTERS ) */
; 803  : 
; 804  : #if defined( FEATURE_DUAL_ADDRESS_SPACE )
; 805  :         if (SECONDARY_SPACE_MODE(&regs->psw))

  00572	48 8b 84 24 b8
	00 00 00	 mov	 rax, QWORD PTR regs$[rsp]
  0057a	0f b6 40 7b	 movzx	 eax, BYTE PTR [rax+123]
  0057e	3d 80 00 00 00	 cmp	 eax, 128		; 00000080H
  00583	75 3e		 jne	 SHORT $LN26@s390_load_

; 806  :         {
; 807  :             regs->dat.stid = TEA_ST_SECNDRY;

  00585	48 8b 84 24 b8
	00 00 00	 mov	 rax, QWORD PTR regs$[rsp]
  0058d	c7 80 20 08 00
	00 02 00 00 00	 mov	 DWORD PTR [rax+2080], 2

; 808  :             regs->dat.asd = regs->CR(7);

  00597	b8 08 00 00 00	 mov	 eax, 8
  0059c	48 6b c0 08	 imul	 rax, rax, 8
  005a0	48 8b 8c 24 b8
	00 00 00	 mov	 rcx, QWORD PTR regs$[rsp]
  005a8	8b 84 01 00 06
	00 00		 mov	 eax, DWORD PTR [rcx+rax+1536]
  005af	48 8b 8c 24 b8
	00 00 00	 mov	 rcx, QWORD PTR regs$[rsp]
  005b7	48 89 81 18 08
	00 00		 mov	 QWORD PTR [rcx+2072], rax

; 809  :             break;

  005be	e9 87 00 00 00	 jmp	 $LN2@s390_load_
$LN26@s390_load_:

; 810  :         }
; 811  : #endif
; 812  : 
; 813  : #if defined( FEATURE_LINKAGE_STACK )
; 814  :         if (HOME_SPACE_MODE(&regs->psw))

  005c3	48 8b 84 24 b8
	00 00 00	 mov	 rax, QWORD PTR regs$[rsp]
  005cb	0f b6 40 7b	 movzx	 eax, BYTE PTR [rax+123]
  005cf	3d c0 00 00 00	 cmp	 eax, 192		; 000000c0H
  005d4	75 3b		 jne	 SHORT $LN27@s390_load_

; 815  :         {
; 816  :             regs->dat.stid = TEA_ST_HOME;

  005d6	48 8b 84 24 b8
	00 00 00	 mov	 rax, QWORD PTR regs$[rsp]
  005de	c7 80 20 08 00
	00 03 00 00 00	 mov	 DWORD PTR [rax+2080], 3

; 817  :             regs->dat.asd = regs->CR(13);

  005e8	b8 08 00 00 00	 mov	 eax, 8
  005ed	48 6b c0 0e	 imul	 rax, rax, 14
  005f1	48 8b 8c 24 b8
	00 00 00	 mov	 rcx, QWORD PTR regs$[rsp]
  005f9	8b 84 01 00 06
	00 00		 mov	 eax, DWORD PTR [rcx+rax+1536]
  00600	48 8b 8c 24 b8
	00 00 00	 mov	 rcx, QWORD PTR regs$[rsp]
  00608	48 89 81 18 08
	00 00		 mov	 QWORD PTR [rcx+2072], rax

; 818  :             break;

  0060f	eb 39		 jmp	 SHORT $LN2@s390_load_
$LN27@s390_load_:

; 819  :         }
; 820  : #endif
; 821  : 
; 822  :         /* Primary space mode */
; 823  :         regs->dat.stid = TEA_ST_PRIMARY;

  00611	48 8b 84 24 b8
	00 00 00	 mov	 rax, QWORD PTR regs$[rsp]
  00619	c7 80 20 08 00
	00 00 00 00 00	 mov	 DWORD PTR [rax+2080], 0

; 824  :         regs->dat.asd = regs->CR(1);

  00623	b8 08 00 00 00	 mov	 eax, 8
  00628	48 6b c0 02	 imul	 rax, rax, 2
  0062c	48 8b 8c 24 b8
	00 00 00	 mov	 rcx, QWORD PTR regs$[rsp]
  00634	8b 84 01 00 06
	00 00		 mov	 eax, DWORD PTR [rcx+rax+1536]
  0063b	48 8b 8c 24 b8
	00 00 00	 mov	 rcx, QWORD PTR regs$[rsp]
  00643	48 89 81 18 08
	00 00		 mov	 QWORD PTR [rcx+2072], rax
$LN2@s390_load_:

; 825  :         break;
; 826  : 
; 827  :     } /* switch(arn) */
; 828  : 
; 829  :     return 0;

  0064a	33 c0		 xor	 eax, eax
$LN1@s390_load_:

; 830  : 
; 831  : } /* end function load_address_space_designator */

  0064c	48 8b 8c 24 90
	00 00 00	 mov	 rcx, QWORD PTR __$ArrayPad$[rsp]
  00654	48 33 cc	 xor	 rcx, rsp
  00657	e8 00 00 00 00	 call	 __security_check_cookie
  0065c	48 81 c4 a8 00
	00 00		 add	 rsp, 168		; 000000a8H
  00663	c3		 ret	 0
s390_load_address_space_designator ENDP
_TEXT	ENDS
; Function compile flags: /Odtp
; File C:\papa\MyGit\hyperion-zvector\vstore.h
;	COMDAT s390_vfetch4
_TEXT	SEGMENT
tv66 = 48
tv72 = 52
mn$1 = 56
addr$ = 80
arn$ = 88
regs$ = 96
s390_vfetch4 PROC					; COMDAT

; 695  : {

$LN11:
  00000	4c 89 44 24 18	 mov	 QWORD PTR [rsp+24], r8
  00005	89 54 24 10	 mov	 DWORD PTR [rsp+16], edx
  00009	89 4c 24 08	 mov	 DWORD PTR [rsp+8], ecx
  0000d	48 83 ec 48	 sub	 rsp, 72			; 00000048H

; 696  :     if ((likely(!((VADR_L)addr & 0x03))
; 697  :         || (((VADR_L)addr & PAGEFRAME_BYTEMASK) <= (PAGEFRAME_BYTEMASK-3) )))

  00011	8b 44 24 50	 mov	 eax, DWORD PTR addr$[rsp]
  00015	83 e0 03	 and	 eax, 3
  00018	85 c0		 test	 eax, eax
  0001a	75 0a		 jne	 SHORT $LN5@s390_vfetc
  0001c	c7 44 24 30 01
	00 00 00	 mov	 DWORD PTR tv66[rsp], 1
  00024	eb 08		 jmp	 SHORT $LN6@s390_vfetc
$LN5@s390_vfetc:
  00026	c7 44 24 30 00
	00 00 00	 mov	 DWORD PTR tv66[rsp], 0
$LN6@s390_vfetc:
  0002e	83 7c 24 30 00	 cmp	 DWORD PTR tv66[rsp], 0
  00033	74 0a		 je	 SHORT $LN9@s390_vfetc
  00035	c7 44 24 34 01
	00 00 00	 mov	 DWORD PTR tv72[rsp], 1
  0003d	eb 08		 jmp	 SHORT $LN10@s390_vfetc
$LN9@s390_vfetc:
  0003f	c7 44 24 34 00
	00 00 00	 mov	 DWORD PTR tv72[rsp], 0
$LN10@s390_vfetc:
  00047	83 7c 24 34 00	 cmp	 DWORD PTR tv72[rsp], 0
  0004c	75 10		 jne	 SHORT $LN3@s390_vfetc
  0004e	8b 44 24 50	 mov	 eax, DWORD PTR addr$[rsp]
  00052	25 ff 0f 00 00	 and	 eax, 4095		; 00000fffH
  00057	3d fc 0f 00 00	 cmp	 eax, 4092		; 00000ffcH
  0005c	77 45		 ja	 SHORT $LN2@s390_vfetc
$LN3@s390_vfetc:

; 698  :     {
; 699  :         BYTE *mn;
; 700  :         ITIMER_SYNC( addr, 4-1, regs );
; 701  :         mn = MADDRL( addr, 4,arn, regs, ACCTYPE_READ, regs->psw.pkey );

  0005e	48 8b 44 24 60	 mov	 rax, QWORD PTR regs$[rsp]
  00063	0f b6 40 79	 movzx	 eax, BYTE PTR [rax+121]
  00067	88 44 24 28	 mov	 BYTE PTR [rsp+40], al
  0006b	c7 44 24 20 04
	00 00 00	 mov	 DWORD PTR [rsp+32], 4
  00073	4c 8b 4c 24 60	 mov	 r9, QWORD PTR regs$[rsp]
  00078	44 8b 44 24 58	 mov	 r8d, DWORD PTR arn$[rsp]
  0007d	ba 04 00 00 00	 mov	 edx, 4
  00082	8b 4c 24 50	 mov	 ecx, DWORD PTR addr$[rsp]
  00086	e8 00 00 00 00	 call	 s390_maddr_l
  0008b	48 89 44 24 38	 mov	 QWORD PTR mn$1[rsp], rax

; 702  :         return fetch_fw( mn );

  00090	48 8b 4c 24 38	 mov	 rcx, QWORD PTR mn$1[rsp]
  00095	e8 00 00 00 00	 call	 fetch_fw_noswap
  0009a	8b c8		 mov	 ecx, eax
  0009c	e8 00 00 00 00	 call	 _byteswap_ulong
  000a1	eb 12		 jmp	 SHORT $LN1@s390_vfetc
$LN2@s390_vfetc:

; 703  :     }
; 704  :     return ARCH_DEP( vfetch4_full )( addr, arn, regs );

  000a3	4c 8b 44 24 60	 mov	 r8, QWORD PTR regs$[rsp]
  000a8	8b 54 24 58	 mov	 edx, DWORD PTR arn$[rsp]
  000ac	8b 4c 24 50	 mov	 ecx, DWORD PTR addr$[rsp]
  000b0	e8 00 00 00 00	 call	 s390_vfetch4_full
$LN1@s390_vfetc:

; 705  : }

  000b5	48 83 c4 48	 add	 rsp, 72			; 00000048H
  000b9	c3		 ret	 0
s390_vfetch4 ENDP
_TEXT	ENDS
; Function compile flags: /Odtp
; File C:\papa\MyGit\hyperion-zvector\vstore.h
;	COMDAT s390_vstore4
_TEXT	SEGMENT
tv66 = 48
tv72 = 52
mn$1 = 56
value$ = 80
addr$ = 88
arn$ = 96
regs$ = 104
s390_vstore4 PROC					; COMDAT

; 559  : {

$LN12:
  00000	4c 89 4c 24 20	 mov	 QWORD PTR [rsp+32], r9
  00005	44 89 44 24 18	 mov	 DWORD PTR [rsp+24], r8d
  0000a	89 54 24 10	 mov	 DWORD PTR [rsp+16], edx
  0000e	89 4c 24 08	 mov	 DWORD PTR [rsp+8], ecx
  00012	48 83 ec 48	 sub	 rsp, 72			; 00000048H

; 560  :     /* Most common case : Aligned & not crossing page boundary */
; 561  :     if (likely(!((VADR_L)addr & 0x03))
; 562  :         || (((VADR_L)addr & PAGEFRAME_BYTEMASK) <= (PAGEFRAME_BYTEMASK-3)))

  00016	8b 44 24 58	 mov	 eax, DWORD PTR addr$[rsp]
  0001a	83 e0 03	 and	 eax, 3
  0001d	85 c0		 test	 eax, eax
  0001f	75 0a		 jne	 SHORT $LN6@s390_vstor
  00021	c7 44 24 30 01
	00 00 00	 mov	 DWORD PTR tv66[rsp], 1
  00029	eb 08		 jmp	 SHORT $LN7@s390_vstor
$LN6@s390_vstor:
  0002b	c7 44 24 30 00
	00 00 00	 mov	 DWORD PTR tv66[rsp], 0
$LN7@s390_vstor:
  00033	83 7c 24 30 00	 cmp	 DWORD PTR tv66[rsp], 0
  00038	74 0a		 je	 SHORT $LN10@s390_vstor
  0003a	c7 44 24 34 01
	00 00 00	 mov	 DWORD PTR tv72[rsp], 1
  00042	eb 08		 jmp	 SHORT $LN11@s390_vstor
$LN10@s390_vstor:
  00044	c7 44 24 34 00
	00 00 00	 mov	 DWORD PTR tv72[rsp], 0
$LN11@s390_vstor:
  0004c	83 7c 24 34 00	 cmp	 DWORD PTR tv72[rsp], 0
  00051	75 10		 jne	 SHORT $LN4@s390_vstor
  00053	8b 44 24 58	 mov	 eax, DWORD PTR addr$[rsp]
  00057	25 ff 0f 00 00	 and	 eax, 4095		; 00000fffH
  0005c	3d fc 0f 00 00	 cmp	 eax, 4092		; 00000ffcH
  00061	77 49		 ja	 SHORT $LN2@s390_vstor
$LN4@s390_vstor:

; 563  :     {
; 564  :         BYTE *mn;
; 565  :         mn = MADDRL( addr, 4, arn, regs, ACCTYPE_WRITE, regs->psw.pkey );

  00063	48 8b 44 24 68	 mov	 rax, QWORD PTR regs$[rsp]
  00068	0f b6 40 79	 movzx	 eax, BYTE PTR [rax+121]
  0006c	88 44 24 28	 mov	 BYTE PTR [rsp+40], al
  00070	c7 44 24 20 02
	00 00 00	 mov	 DWORD PTR [rsp+32], 2
  00078	4c 8b 4c 24 68	 mov	 r9, QWORD PTR regs$[rsp]
  0007d	44 8b 44 24 60	 mov	 r8d, DWORD PTR arn$[rsp]
  00082	ba 04 00 00 00	 mov	 edx, 4
  00087	8b 4c 24 58	 mov	 ecx, DWORD PTR addr$[rsp]
  0008b	e8 00 00 00 00	 call	 s390_maddr_l
  00090	48 89 44 24 38	 mov	 QWORD PTR mn$1[rsp], rax

; 566  :         STORE_FW( mn, value );

  00095	8b 4c 24 50	 mov	 ecx, DWORD PTR value$[rsp]
  00099	e8 00 00 00 00	 call	 _byteswap_ulong
  0009e	8b d0		 mov	 edx, eax
  000a0	48 8b 4c 24 38	 mov	 rcx, QWORD PTR mn$1[rsp]
  000a5	e8 00 00 00 00	 call	 store_fw_noswap

; 567  :         ITIMER_UPDATE( addr, 4-1, regs );
; 568  :     }

  000aa	eb 17		 jmp	 SHORT $LN3@s390_vstor
$LN2@s390_vstor:

; 569  :     else
; 570  :         ARCH_DEP( vstore4_full )( value, addr, arn, regs );

  000ac	4c 8b 4c 24 68	 mov	 r9, QWORD PTR regs$[rsp]
  000b1	44 8b 44 24 60	 mov	 r8d, DWORD PTR arn$[rsp]
  000b6	8b 54 24 58	 mov	 edx, DWORD PTR addr$[rsp]
  000ba	8b 4c 24 50	 mov	 ecx, DWORD PTR value$[rsp]
  000be	e8 00 00 00 00	 call	 s390_vstore4_full
$LN3@s390_vstor:

; 571  : }

  000c3	48 83 c4 48	 add	 rsp, 72			; 00000048H
  000c7	c3		 ret	 0
s390_vstore4 ENDP
_TEXT	ENDS
; Function compile flags: /Odtp
; File C:\papa\MyGit\hyperion-zvector\vstore.h
;	COMDAT s390_vfetch4_full
_TEXT	SEGMENT
len$ = 48
mn$ = 56
temp$ = 64
__$ArrayPad$ = 72
addr$ = 112
arn$ = 120
regs$ = 128
s390_vfetch4_full PROC					; COMDAT

; 428  : {

$LN3:
  00000	4c 89 44 24 18	 mov	 QWORD PTR [rsp+24], r8
  00005	89 54 24 10	 mov	 DWORD PTR [rsp+16], edx
  00009	89 4c 24 08	 mov	 DWORD PTR [rsp+8], ecx
  0000d	56		 push	 rsi
  0000e	57		 push	 rdi
  0000f	48 83 ec 58	 sub	 rsp, 88			; 00000058H
  00013	48 8b 05 00 00
	00 00		 mov	 rax, QWORD PTR __security_cookie
  0001a	48 33 c4	 xor	 rax, rsp
  0001d	48 89 44 24 48	 mov	 QWORD PTR __$ArrayPad$[rsp], rax

; 429  : BYTE   *mn;                             /* Main storage addresses    */
; 430  : int     len;                            /* Length to end of page     */
; 431  : BYTE    temp[8];                        /* Copy destination          */
; 432  : 
; 433  :     len = PAGEFRAME_PAGESIZE - (addr & PAGEFRAME_BYTEMASK);

  00022	8b 44 24 70	 mov	 eax, DWORD PTR addr$[rsp]
  00026	25 ff 0f 00 00	 and	 eax, 4095		; 00000fffH
  0002b	b9 00 10 00 00	 mov	 ecx, 4096		; 00001000H
  00030	2b c8		 sub	 ecx, eax
  00032	8b c1		 mov	 eax, ecx
  00034	89 44 24 30	 mov	 DWORD PTR len$[rsp], eax

; 434  :     mn = MADDRL( addr, len, arn, regs, ACCTYPE_READ, regs->psw.pkey );

  00038	48 63 44 24 30	 movsxd	 rax, DWORD PTR len$[rsp]
  0003d	48 8b 8c 24 80
	00 00 00	 mov	 rcx, QWORD PTR regs$[rsp]
  00045	0f b6 49 79	 movzx	 ecx, BYTE PTR [rcx+121]
  00049	88 4c 24 28	 mov	 BYTE PTR [rsp+40], cl
  0004d	c7 44 24 20 04
	00 00 00	 mov	 DWORD PTR [rsp+32], 4
  00055	4c 8b 8c 24 80
	00 00 00	 mov	 r9, QWORD PTR regs$[rsp]
  0005d	44 8b 44 24 78	 mov	 r8d, DWORD PTR arn$[rsp]
  00062	48 8b d0	 mov	 rdx, rax
  00065	8b 4c 24 70	 mov	 ecx, DWORD PTR addr$[rsp]
  00069	e8 00 00 00 00	 call	 s390_maddr_l
  0006e	48 89 44 24 38	 mov	 QWORD PTR mn$[rsp], rax

; 435  :     memcpy( temp, mn, len);

  00073	48 63 44 24 30	 movsxd	 rax, DWORD PTR len$[rsp]
  00078	48 8d 4c 24 40	 lea	 rcx, QWORD PTR temp$[rsp]
  0007d	48 8b f9	 mov	 rdi, rcx
  00080	48 8b 74 24 38	 mov	 rsi, QWORD PTR mn$[rsp]
  00085	48 8b c8	 mov	 rcx, rax
  00088	f3 a4		 rep movsb

; 436  :     mn = MADDRL( (addr + len) & ADDRESS_MAXWRAP( regs ), 4 - len, arn, regs,

  0008a	b8 04 00 00 00	 mov	 eax, 4
  0008f	2b 44 24 30	 sub	 eax, DWORD PTR len$[rsp]
  00093	48 98		 cdqe
  00095	8b 4c 24 30	 mov	 ecx, DWORD PTR len$[rsp]
  00099	8b 54 24 70	 mov	 edx, DWORD PTR addr$[rsp]
  0009d	03 d1		 add	 edx, ecx
  0009f	8b ca		 mov	 ecx, edx
  000a1	48 8b 94 24 80
	00 00 00	 mov	 rdx, QWORD PTR regs$[rsp]
  000a9	23 8a 90 00 00
	00		 and	 ecx, DWORD PTR [rdx+144]
  000af	48 8b 94 24 80
	00 00 00	 mov	 rdx, QWORD PTR regs$[rsp]
  000b7	0f b6 52 79	 movzx	 edx, BYTE PTR [rdx+121]
  000bb	88 54 24 28	 mov	 BYTE PTR [rsp+40], dl
  000bf	c7 44 24 20 04
	00 00 00	 mov	 DWORD PTR [rsp+32], 4
  000c7	4c 8b 8c 24 80
	00 00 00	 mov	 r9, QWORD PTR regs$[rsp]
  000cf	44 8b 44 24 78	 mov	 r8d, DWORD PTR arn$[rsp]
  000d4	48 8b d0	 mov	 rdx, rax
  000d7	e8 00 00 00 00	 call	 s390_maddr_l
  000dc	48 89 44 24 38	 mov	 QWORD PTR mn$[rsp], rax

; 437  :                   ACCTYPE_READ, regs->psw.pkey );
; 438  :     memcpy( temp+len, mn, 4 - len);

  000e1	b8 04 00 00 00	 mov	 eax, 4
  000e6	2b 44 24 30	 sub	 eax, DWORD PTR len$[rsp]
  000ea	48 98		 cdqe
  000ec	48 63 4c 24 30	 movsxd	 rcx, DWORD PTR len$[rsp]
  000f1	48 8d 4c 0c 40	 lea	 rcx, QWORD PTR temp$[rsp+rcx]
  000f6	48 8b f9	 mov	 rdi, rcx
  000f9	48 8b 74 24 38	 mov	 rsi, QWORD PTR mn$[rsp]
  000fe	48 8b c8	 mov	 rcx, rax
  00101	f3 a4		 rep movsb

; 439  :     return fetch_fw( temp );

  00103	48 8d 4c 24 40	 lea	 rcx, QWORD PTR temp$[rsp]
  00108	e8 00 00 00 00	 call	 fetch_fw_noswap
  0010d	8b c8		 mov	 ecx, eax
  0010f	e8 00 00 00 00	 call	 _byteswap_ulong

; 440  : }

  00114	48 8b 4c 24 48	 mov	 rcx, QWORD PTR __$ArrayPad$[rsp]
  00119	48 33 cc	 xor	 rcx, rsp
  0011c	e8 00 00 00 00	 call	 __security_check_cookie
  00121	48 83 c4 58	 add	 rsp, 88			; 00000058H
  00125	5f		 pop	 rdi
  00126	5e		 pop	 rsi
  00127	c3		 ret	 0
s390_vfetch4_full ENDP
_TEXT	ENDS
; Function compile flags: /Odtp
; File C:\papa\MyGit\hyperion-zvector\vstore.h
;	COMDAT s390_vstore4_full
_TEXT	SEGMENT
len$ = 48
temp$ = 52
sk$ = 56
main1$ = 64
main2$ = 72
value$ = 112
addr$ = 120
arn$ = 128
regs$ = 136
s390_vstore4_full PROC					; COMDAT

; 335  : {

$LN3:
  00000	4c 89 4c 24 20	 mov	 QWORD PTR [rsp+32], r9
  00005	44 89 44 24 18	 mov	 DWORD PTR [rsp+24], r8d
  0000a	89 54 24 10	 mov	 DWORD PTR [rsp+16], edx
  0000e	89 4c 24 08	 mov	 DWORD PTR [rsp+8], ecx
  00012	56		 push	 rsi
  00013	57		 push	 rdi
  00014	48 83 ec 58	 sub	 rsp, 88			; 00000058H

; 336  : BYTE   *main1, *main2;                  /* Mainstor addresses        */
; 337  : BYTE   *sk;                             /* Storage key addresses     */
; 338  : int     len;                            /* Length to end of page     */
; 339  : BYTE    temp[4];                        /* Copied value              */
; 340  : 
; 341  :     len = PAGEFRAME_PAGESIZE - (addr & PAGEFRAME_BYTEMASK);

  00018	8b 44 24 78	 mov	 eax, DWORD PTR addr$[rsp]
  0001c	25 ff 0f 00 00	 and	 eax, 4095		; 00000fffH
  00021	b9 00 10 00 00	 mov	 ecx, 4096		; 00001000H
  00026	2b c8		 sub	 ecx, eax
  00028	8b c1		 mov	 eax, ecx
  0002a	89 44 24 30	 mov	 DWORD PTR len$[rsp], eax

; 342  :     main1 = MADDRL( addr, len, arn, regs, ACCTYPE_WRITE_SKP, regs->psw.pkey );

  0002e	48 63 44 24 30	 movsxd	 rax, DWORD PTR len$[rsp]
  00033	48 8b 8c 24 88
	00 00 00	 mov	 rcx, QWORD PTR regs$[rsp]
  0003b	0f b6 49 79	 movzx	 ecx, BYTE PTR [rcx+121]
  0003f	88 4c 24 28	 mov	 BYTE PTR [rsp+40], cl
  00043	c7 44 24 20 01
	00 00 00	 mov	 DWORD PTR [rsp+32], 1
  0004b	4c 8b 8c 24 88
	00 00 00	 mov	 r9, QWORD PTR regs$[rsp]
  00053	44 8b 84 24 80
	00 00 00	 mov	 r8d, DWORD PTR arn$[rsp]
  0005b	48 8b d0	 mov	 rdx, rax
  0005e	8b 4c 24 78	 mov	 ecx, DWORD PTR addr$[rsp]
  00062	e8 00 00 00 00	 call	 s390_maddr_l
  00067	48 89 44 24 40	 mov	 QWORD PTR main1$[rsp], rax

; 343  :     sk = regs->dat.storkey;

  0006c	48 8b 84 24 88
	00 00 00	 mov	 rax, QWORD PTR regs$[rsp]
  00074	48 8b 80 28 08
	00 00		 mov	 rax, QWORD PTR [rax+2088]
  0007b	48 89 44 24 38	 mov	 QWORD PTR sk$[rsp], rax

; 344  :     main2 = MADDRL( (addr + len) & ADDRESS_MAXWRAP( regs ), 4-len, arn, regs,

  00080	b8 04 00 00 00	 mov	 eax, 4
  00085	2b 44 24 30	 sub	 eax, DWORD PTR len$[rsp]
  00089	48 98		 cdqe
  0008b	8b 4c 24 30	 mov	 ecx, DWORD PTR len$[rsp]
  0008f	8b 54 24 78	 mov	 edx, DWORD PTR addr$[rsp]
  00093	03 d1		 add	 edx, ecx
  00095	8b ca		 mov	 ecx, edx
  00097	48 8b 94 24 88
	00 00 00	 mov	 rdx, QWORD PTR regs$[rsp]
  0009f	23 8a 90 00 00
	00		 and	 ecx, DWORD PTR [rdx+144]
  000a5	48 8b 94 24 88
	00 00 00	 mov	 rdx, QWORD PTR regs$[rsp]
  000ad	0f b6 52 79	 movzx	 edx, BYTE PTR [rdx+121]
  000b1	88 54 24 28	 mov	 BYTE PTR [rsp+40], dl
  000b5	c7 44 24 20 02
	00 00 00	 mov	 DWORD PTR [rsp+32], 2
  000bd	4c 8b 8c 24 88
	00 00 00	 mov	 r9, QWORD PTR regs$[rsp]
  000c5	44 8b 84 24 80
	00 00 00	 mov	 r8d, DWORD PTR arn$[rsp]
  000cd	48 8b d0	 mov	 rdx, rax
  000d0	e8 00 00 00 00	 call	 s390_maddr_l
  000d5	48 89 44 24 48	 mov	 QWORD PTR main2$[rsp], rax

; 345  :                     ACCTYPE_WRITE, regs->psw.pkey );
; 346  :     *sk |= (STORKEY_REF | STORKEY_CHANGE);

  000da	48 8b 44 24 38	 mov	 rax, QWORD PTR sk$[rsp]
  000df	0f b6 00	 movzx	 eax, BYTE PTR [rax]
  000e2	83 c8 06	 or	 eax, 6
  000e5	48 8b 4c 24 38	 mov	 rcx, QWORD PTR sk$[rsp]
  000ea	88 01		 mov	 BYTE PTR [rcx], al

; 347  :     STORE_FW( temp, value );

  000ec	8b 4c 24 70	 mov	 ecx, DWORD PTR value$[rsp]
  000f0	e8 00 00 00 00	 call	 _byteswap_ulong
  000f5	8b d0		 mov	 edx, eax
  000f7	48 8d 4c 24 34	 lea	 rcx, QWORD PTR temp$[rsp]
  000fc	e8 00 00 00 00	 call	 store_fw_noswap

; 348  :     memcpy( main1, temp,       len );

  00101	48 63 44 24 30	 movsxd	 rax, DWORD PTR len$[rsp]
  00106	48 8d 4c 24 34	 lea	 rcx, QWORD PTR temp$[rsp]
  0010b	48 8b 7c 24 40	 mov	 rdi, QWORD PTR main1$[rsp]
  00110	48 8b f1	 mov	 rsi, rcx
  00113	48 8b c8	 mov	 rcx, rax
  00116	f3 a4		 rep movsb

; 349  :     memcpy( main2, temp+len, 4-len );

  00118	b8 04 00 00 00	 mov	 eax, 4
  0011d	2b 44 24 30	 sub	 eax, DWORD PTR len$[rsp]
  00121	48 98		 cdqe
  00123	48 63 4c 24 30	 movsxd	 rcx, DWORD PTR len$[rsp]
  00128	48 8d 4c 0c 34	 lea	 rcx, QWORD PTR temp$[rsp+rcx]
  0012d	48 8b 7c 24 48	 mov	 rdi, QWORD PTR main2$[rsp]
  00132	48 8b f1	 mov	 rsi, rcx
  00135	48 8b c8	 mov	 rcx, rax
  00138	f3 a4		 rep movsb

; 350  : }

  0013a	48 83 c4 58	 add	 rsp, 88			; 00000058H
  0013e	5f		 pop	 rdi
  0013f	5e		 pop	 rsi
  00140	c3		 ret	 0
s390_vstore4_full ENDP
_TEXT	ENDS
; Function compile flags: /Odtp
; File C:\papa\MyGit\hyperion-zvector\dat.h
;	COMDAT s390_maddr_l
_TEXT	SEGMENT
tlbix$ = 48
aea_crn$ = 52
tv70 = 56
maddr$ = 64
addr$ = 96
len$ = 104
arn$ = 112
regs$ = 120
acctype$ = 128
akey$ = 136
s390_maddr_l PROC					; COMDAT

; 307  : {

$LN14:
  00000	4c 89 4c 24 20	 mov	 QWORD PTR [rsp+32], r9
  00005	44 89 44 24 18	 mov	 DWORD PTR [rsp+24], r8d
  0000a	48 89 54 24 10	 mov	 QWORD PTR [rsp+16], rdx
  0000f	89 4c 24 08	 mov	 DWORD PTR [rsp+8], ecx
  00013	48 83 ec 58	 sub	 rsp, 88			; 00000058H

; 308  :     /* Note: ALL of the below conditions must be true for a TLB hit
; 309  :        to occur.  If ANY of them are false, then it's a TLB miss,
; 310  :        requiring us to then perform a full DAT address translation.
; 311  : 
; 312  :        Note too that on the grand scheme of things the order/sequence
; 313  :        of the below tests (if statements) is completely unimportant
; 314  :        since ALL conditions must be checked anyway in order for a hit
; 315  :        to occur, and it doesn't matter that a miss tests a few extra
; 316  :        conditions since it's going to do a full translation anyway!
; 317  :        (which is many, many instructions)
; 318  :     */
; 319  : 
; 320  :     int  aea_crn  = (arn >= USE_ARMODE) ? 0 : regs->AEA_AR( arn );

  00017	83 7c 24 70 10	 cmp	 DWORD PTR arn$[rsp], 16
  0001c	7c 0a		 jl	 SHORT $LN12@s390_maddr
  0001e	c7 44 24 38 00
	00 00 00	 mov	 DWORD PTR tv70[rsp], 0
  00026	eb 19		 jmp	 SHORT $LN13@s390_maddr
$LN12@s390_maddr:
  00028	8b 44 24 70	 mov	 eax, DWORD PTR arn$[rsp]
  0002c	83 c0 05	 add	 eax, 5
  0002f	48 98		 cdqe
  00031	48 8b 4c 24 78	 mov	 rcx, QWORD PTR regs$[rsp]
  00036	8b 84 81 94 0c
	00 00		 mov	 eax, DWORD PTR [rcx+rax*4+3220]
  0003d	89 44 24 38	 mov	 DWORD PTR tv70[rsp], eax
$LN13@s390_maddr:
  00041	8b 44 24 38	 mov	 eax, DWORD PTR tv70[rsp]
  00045	89 44 24 34	 mov	 DWORD PTR aea_crn$[rsp], eax

; 321  :     U16  tlbix    = TLBIX( addr );

  00049	8b 44 24 60	 mov	 eax, DWORD PTR addr$[rsp]
  0004d	c1 e8 0c	 shr	 eax, 12
  00050	25 ff 03 00 00	 and	 eax, 1023		; 000003ffH
  00055	66 89 44 24 30	 mov	 WORD PTR tlbix$[rsp], ax

; 322  :     BYTE *maddr   = NULL;

  0005a	48 c7 44 24 40
	00 00 00 00	 mov	 QWORD PTR maddr$[rsp], 0

; 323  : 
; 324  :     /* Non-zero AEA Control Register number? */
; 325  :     if (aea_crn)

  00063	83 7c 24 34 00	 cmp	 DWORD PTR aea_crn$[rsp], 0
  00068	0f 84 25 01 00
	00		 je	 $LN2@s390_maddr

; 326  :     {
; 327  :         /* Same Addess Space Designator as before? */
; 328  :         /* Or if not, is address in a common segment? */
; 329  :         if (0
; 330  :             || (regs->CR( aea_crn ) == regs->tlb.TLB_ASD( tlbix ))
; 331  :             || (regs->AEA_COMMON( aea_crn ) & regs->tlb.common[ tlbix ])

  0006e	33 c0		 xor	 eax, eax
  00070	85 c0		 test	 eax, eax
  00072	75 59		 jne	 SHORT $LN4@s390_maddr
  00074	8b 44 24 34	 mov	 eax, DWORD PTR aea_crn$[rsp]
  00078	ff c0		 inc	 eax
  0007a	48 98		 cdqe
  0007c	0f b7 4c 24 30	 movzx	 ecx, WORD PTR tlbix$[rsp]
  00081	48 8b 54 24 78	 mov	 rdx, QWORD PTR regs$[rsp]
  00086	4c 8b 44 24 78	 mov	 r8, QWORD PTR regs$[rsp]
  0008b	41 8b 8c c8 60
	b0 00 00	 mov	 ecx, DWORD PTR [r8+rcx*8+45152]
  00093	39 8c c2 00 06
	00 00		 cmp	 DWORD PTR [rdx+rax*8+1536], ecx
  0009a	74 31		 je	 SHORT $LN4@s390_maddr
  0009c	8b 44 24 34	 mov	 eax, DWORD PTR aea_crn$[rsp]
  000a0	ff c0		 inc	 eax
  000a2	48 98		 cdqe
  000a4	48 8b 4c 24 78	 mov	 rcx, QWORD PTR regs$[rsp]
  000a9	0f b6 84 01 e8
	0c 00 00	 movzx	 eax, BYTE PTR [rcx+rax+3304]
  000b1	0f b7 4c 24 30	 movzx	 ecx, WORD PTR tlbix$[rsp]
  000b6	48 8b 54 24 78	 mov	 rdx, QWORD PTR regs$[rsp]
  000bb	0f b6 8c 0a 60
	54 01 00	 movzx	 ecx, BYTE PTR [rdx+rcx+87136]
  000c3	23 c1		 and	 eax, ecx
  000c5	85 c0		 test	 eax, eax
  000c7	0f 84 c6 00 00
	00		 je	 $LN3@s390_maddr
$LN4@s390_maddr:

; 332  :         )
; 333  :         {
; 334  :             /* Storage Key zero? */
; 335  :             /* Or if not, same Storage Key as before? */
; 336  :             if (0
; 337  :                 || akey == 0
; 338  :                 || akey == regs->tlb.skey[ tlbix ]

  000cd	33 c0		 xor	 eax, eax
  000cf	85 c0		 test	 eax, eax
  000d1	75 2e		 jne	 SHORT $LN6@s390_maddr
  000d3	0f b6 84 24 88
	00 00 00	 movzx	 eax, BYTE PTR akey$[rsp]
  000db	85 c0		 test	 eax, eax
  000dd	74 22		 je	 SHORT $LN6@s390_maddr
  000df	0f b6 84 24 88
	00 00 00	 movzx	 eax, BYTE PTR akey$[rsp]
  000e7	0f b7 4c 24 30	 movzx	 ecx, WORD PTR tlbix$[rsp]
  000ec	48 8b 54 24 78	 mov	 rdx, QWORD PTR regs$[rsp]
  000f1	0f b6 8c 0a 60
	50 01 00	 movzx	 ecx, BYTE PTR [rdx+rcx+86112]
  000f9	3b c1		 cmp	 eax, ecx
