; Listing generated by Microsoft (R) Optimizing Compiler Version 19.34.31937.0 

include listing.inc

INCLUDELIB MSVCRTD
INCLUDELIB OLDNAMES

CONST	SEGMENT
CKD_ENDTRK DB	0ffH
	DB	0ffH
	DB	0ffH
	DB	0ffH
	DB	0ffH
	DB	0ffH
	DB	0ffH
	DB	0ffH
	ORG $+8
dfp_lmdtable DD	00H
	DD	01H
	DD	02H
	DD	03H
	DD	04H
	DD	05H
	DD	06H
	DD	07H
	DD	00H
	DD	01H
	DD	02H
	DD	03H
	DD	04H
	DD	05H
	DD	06H
	DD	07H
	DD	00H
	DD	01H
	DD	02H
	DD	03H
	DD	04H
	DD	05H
	DD	06H
	DD	07H
	DD	08H
	DD	09H
	DD	08H
	DD	09H
	DD	08H
	DD	09H
	DD	00H
	DD	00H
CONST	ENDS
PUBLIC	s370_convert_fix32_to_dfp_ext_reg
PUBLIC	s370_convert_fix32_to_dfp_long_reg
PUBLIC	s370_convert_u32_to_dfp_ext_reg
PUBLIC	s370_convert_u32_to_dfp_long_reg
PUBLIC	s370_convert_u64_to_dfp_ext_reg
PUBLIC	s370_convert_u64_to_dfp_long_reg
PUBLIC	s370_convert_dfp_ext_to_fix32_reg
PUBLIC	s370_convert_dfp_long_to_fix32_reg
PUBLIC	s370_convert_dfp_ext_to_u32_reg
PUBLIC	s370_convert_dfp_long_to_u32_reg
PUBLIC	s370_convert_dfp_ext_to_u64_reg
PUBLIC	s370_convert_dfp_long_to_u64_reg
PUBLIC	s370_set_dfp_rounding_mode
PUBLIC	s370_load_fpr_from_gr_long_reg
PUBLIC	s370_load_gr_from_fpr_long_reg
PUBLIC	s370_copy_sign_fpr_long_reg
PUBLIC	s370_load_complement_fpr_long_reg
PUBLIC	s370_load_negative_fpr_long_reg
PUBLIC	s370_load_positive_fpr_long_reg
PUBLIC	s370_load_fpc_and_signal
PUBLIC	s370_set_fpc_and_signal
PUBLIC	s370_add_dfp_ext_reg
PUBLIC	s370_add_dfp_long_reg
PUBLIC	s370_compare_dfp_ext_reg
PUBLIC	s370_compare_dfp_long_reg
PUBLIC	s370_compare_and_signal_dfp_ext_reg
PUBLIC	s370_compare_and_signal_dfp_long_reg
PUBLIC	s370_compare_exponent_dfp_ext_reg
PUBLIC	s370_compare_exponent_dfp_long_reg
PUBLIC	s370_convert_fix64_to_dfp_ext_reg
PUBLIC	s370_convert_fix64_to_dfp_long_reg
PUBLIC	s370_convert_sbcd128_to_dfp_ext_reg
PUBLIC	s370_convert_sbcd64_to_dfp_long_reg
PUBLIC	s370_convert_ubcd128_to_dfp_ext_reg
PUBLIC	s370_convert_ubcd64_to_dfp_long_reg
PUBLIC	s370_convert_dfp_ext_to_fix64_reg
PUBLIC	s370_convert_dfp_long_to_fix64_reg
PUBLIC	s370_convert_dfp_ext_to_sbcd128_reg
PUBLIC	s370_convert_dfp_long_to_sbcd64_reg
PUBLIC	s370_convert_dfp_ext_to_ubcd128_reg
PUBLIC	s370_convert_dfp_long_to_ubcd64_reg
PUBLIC	s370_divide_dfp_ext_reg
PUBLIC	s370_divide_dfp_long_reg
PUBLIC	s370_extract_biased_exponent_dfp_ext_to_fix64_reg
PUBLIC	s370_extract_biased_exponent_dfp_long_to_fix64_reg
PUBLIC	s370_extract_significance_dfp_ext_reg
PUBLIC	s370_extract_significance_dfp_long_reg
PUBLIC	s370_insert_biased_exponent_fix64_to_dfp_ext_reg
PUBLIC	s370_insert_biased_exponent_fix64_to_dfp_long_reg
PUBLIC	s370_load_and_test_dfp_ext_reg
PUBLIC	s370_load_and_test_dfp_long_reg
PUBLIC	s370_load_fp_int_dfp_ext_reg
PUBLIC	s370_load_fp_int_dfp_long_reg
PUBLIC	s370_load_lengthened_dfp_long_to_ext_reg
PUBLIC	s370_load_lengthened_dfp_short_to_long_reg
PUBLIC	s370_load_rounded_dfp_ext_to_long_reg
PUBLIC	s370_load_rounded_dfp_long_to_short_reg
PUBLIC	s370_multiply_dfp_ext_reg
PUBLIC	s370_multiply_dfp_long_reg
PUBLIC	s370_quantize_dfp_ext_reg
PUBLIC	s370_quantize_dfp_long_reg
PUBLIC	s370_reround_dfp_ext_reg
PUBLIC	s370_reround_dfp_long_reg
PUBLIC	s370_shift_coefficient_left_dfp_ext
PUBLIC	s370_shift_coefficient_left_dfp_long
PUBLIC	s370_shift_coefficient_right_dfp_ext
PUBLIC	s370_shift_coefficient_right_dfp_long
PUBLIC	s370_subtract_dfp_ext_reg
PUBLIC	s370_subtract_dfp_long_reg
PUBLIC	s370_test_data_class_dfp_ext
PUBLIC	s370_test_data_class_dfp_long
PUBLIC	s370_test_data_class_dfp_short
PUBLIC	s370_test_data_group_dfp_ext
PUBLIC	s370_test_data_group_dfp_long
PUBLIC	s370_test_data_group_dfp_short
PUBLIC	fetch_fw_noswap
PUBLIC	fetch_dw_noswap
PUBLIC	store_dw_noswap
PUBLIC	s370_FPC_check
PUBLIC	s370_maddr_l
PUBLIC	s370_vfetch4_full
PUBLIC	s370_vfetch4
PUBLIC	z900_convert_fix32_to_dfp_ext_reg
PUBLIC	z900_convert_fix32_to_dfp_long_reg
PUBLIC	z900_convert_u32_to_dfp_ext_reg
PUBLIC	z900_convert_u32_to_dfp_long_reg
PUBLIC	z900_convert_u64_to_dfp_ext_reg
PUBLIC	z900_convert_u64_to_dfp_long_reg
PUBLIC	z900_convert_dfp_ext_to_fix32_reg
PUBLIC	z900_convert_dfp_long_to_fix32_reg
PUBLIC	z900_convert_dfp_ext_to_u32_reg
PUBLIC	z900_convert_dfp_long_to_u32_reg
PUBLIC	z900_convert_dfp_ext_to_u64_reg
PUBLIC	z900_convert_dfp_long_to_u64_reg
PUBLIC	z900_set_dfp_rounding_mode
PUBLIC	z900_load_fpr_from_gr_long_reg
PUBLIC	z900_load_gr_from_fpr_long_reg
PUBLIC	z900_copy_sign_fpr_long_reg
PUBLIC	z900_load_complement_fpr_long_reg
PUBLIC	z900_load_negative_fpr_long_reg
PUBLIC	z900_load_positive_fpr_long_reg
PUBLIC	z900_load_fpc_and_signal
PUBLIC	z900_set_fpc_and_signal
PUBLIC	z900_add_dfp_ext_reg
PUBLIC	z900_add_dfp_long_reg
PUBLIC	z900_compare_dfp_ext_reg
PUBLIC	z900_compare_dfp_long_reg
PUBLIC	z900_compare_and_signal_dfp_ext_reg
PUBLIC	z900_compare_and_signal_dfp_long_reg
PUBLIC	z900_compare_exponent_dfp_ext_reg
PUBLIC	z900_compare_exponent_dfp_long_reg
PUBLIC	z900_convert_fix64_to_dfp_ext_reg
PUBLIC	z900_convert_fix64_to_dfp_long_reg
PUBLIC	z900_convert_sbcd128_to_dfp_ext_reg
PUBLIC	z900_convert_sbcd64_to_dfp_long_reg
PUBLIC	z900_convert_ubcd128_to_dfp_ext_reg
PUBLIC	z900_convert_ubcd64_to_dfp_long_reg
PUBLIC	z900_convert_dfp_ext_to_fix64_reg
PUBLIC	z900_convert_dfp_long_to_fix64_reg
PUBLIC	z900_convert_dfp_ext_to_sbcd128_reg
PUBLIC	z900_convert_dfp_long_to_sbcd64_reg
PUBLIC	z900_convert_dfp_ext_to_ubcd128_reg
PUBLIC	z900_convert_dfp_long_to_ubcd64_reg
PUBLIC	z900_divide_dfp_ext_reg
PUBLIC	z900_divide_dfp_long_reg
PUBLIC	z900_extract_biased_exponent_dfp_ext_to_fix64_reg
PUBLIC	z900_extract_biased_exponent_dfp_long_to_fix64_reg
PUBLIC	z900_extract_significance_dfp_ext_reg
PUBLIC	z900_extract_significance_dfp_long_reg
PUBLIC	z900_insert_biased_exponent_fix64_to_dfp_ext_reg
PUBLIC	z900_insert_biased_exponent_fix64_to_dfp_long_reg
PUBLIC	z900_load_and_test_dfp_ext_reg
PUBLIC	z900_load_and_test_dfp_long_reg
PUBLIC	z900_load_fp_int_dfp_ext_reg
PUBLIC	z900_load_fp_int_dfp_long_reg
PUBLIC	z900_load_lengthened_dfp_long_to_ext_reg
PUBLIC	z900_load_lengthened_dfp_short_to_long_reg
PUBLIC	z900_load_rounded_dfp_ext_to_long_reg
PUBLIC	z900_load_rounded_dfp_long_to_short_reg
PUBLIC	z900_multiply_dfp_ext_reg
PUBLIC	z900_multiply_dfp_long_reg
PUBLIC	z900_quantize_dfp_ext_reg
PUBLIC	z900_quantize_dfp_long_reg
PUBLIC	z900_reround_dfp_ext_reg
PUBLIC	z900_reround_dfp_long_reg
PUBLIC	z900_shift_coefficient_left_dfp_ext
PUBLIC	z900_shift_coefficient_left_dfp_long
PUBLIC	z900_shift_coefficient_right_dfp_ext
PUBLIC	z900_shift_coefficient_right_dfp_long
PUBLIC	z900_subtract_dfp_ext_reg
PUBLIC	z900_subtract_dfp_long_reg
PUBLIC	z900_test_data_class_dfp_ext
PUBLIC	z900_test_data_class_dfp_long
PUBLIC	z900_test_data_class_dfp_short
PUBLIC	z900_test_data_group_dfp_ext
PUBLIC	z900_test_data_group_dfp_long
PUBLIC	z900_test_data_group_dfp_short
PUBLIC	z900_convert_zoned_to_dfp_ext
PUBLIC	z900_convert_zoned_to_dfp_long
PUBLIC	z900_convert_dfp_ext_to_zoned
PUBLIC	z900_convert_dfp_long_to_zoned
PUBLIC	z900_convert_packed_to_dfp_ext
PUBLIC	z900_convert_packed_to_dfp_long
PUBLIC	z900_convert_dfp_ext_to_packed
PUBLIC	z900_convert_dfp_long_to_packed
PUBLIC	z900_is_per3_event_suppressed
PUBLIC	z900_per3_zero
PUBLIC	z900_per3_zero_xcheck
PUBLIC	z900_FPC_check
PUBLIC	z900_maddr_l
PUBLIC	z900_vfetch4_full
PUBLIC	z900_vstorec
PUBLIC	z900_vfetchc
PUBLIC	z900_vfetch4
EXTRN	__report_rangecheckfailure:PROC
EXTRN	memmove:PROC
EXTRN	strlen:PROC
EXTRN	_byteswap_ulong:PROC
EXTRN	_byteswap_uint64:PROC
EXTRN	longjmp:PROC
EXTRN	s370_store_int_timer:PROC
EXTRN	txf_maddr_l:PROC
EXTRN	z900_abort_transaction:PROC
EXTRN	s370_program_interrupt:PROC
EXTRN	z900_program_interrupt:PROC
EXTRN	s370_logical_to_main_l:PROC
EXTRN	z900_logical_to_main_l:PROC
EXTRN	decContextDefault:PROC
EXTRN	decNumberFromString:PROC
EXTRN	decNumberToString:PROC
EXTRN	decNumberAdd:PROC
EXTRN	decNumberCompare:PROC
EXTRN	decNumberDivide:PROC
EXTRN	decNumberMultiply:PROC
EXTRN	decNumberNormalize:PROC
EXTRN	decNumberPlus:PROC
EXTRN	decNumberQuantize:PROC
EXTRN	decNumberSubtract:PROC
EXTRN	decNumberToIntegralValue:PROC
EXTRN	decNumberCopy:PROC
EXTRN	decimal128FromNumber:PROC
EXTRN	decimal128ToNumber:PROC
EXTRN	decimal64FromNumber:PROC
EXTRN	decimal64ToNumber:PROC
EXTRN	decimal32FromNumber:PROC
EXTRN	decimal32ToNumber:PROC
EXTRN	decPackedFromNumber:PROC
EXTRN	decPackedToNumber:PROC
EXTRN	__GSHandlerCheck:PROC
EXTRN	__security_check_cookie:PROC
EXTRN	__ImageBase:BYTE
EXTRN	__security_cookie:QWORD
_BSS	SEGMENT
?mpflag@?1??dfp_number_to_fix64@@9@9 DB 01H DUP (?)	; `dfp_number_to_fix64'::`2'::mpflag
	ALIGN	4

?mp@?1??dfp_number_to_fix64@@9@9 DB 024H DUP (?)	; `dfp_number_to_fix64'::`2'::mp
?mn@?1??dfp_number_to_fix64@@9@9 DB 024H DUP (?)	; `dfp_number_to_fix64'::`2'::mn
?mp32flag@?1??dfp_number_to_fix32@@9@9 DB 01H DUP (?)	; `dfp_number_to_fix32'::`2'::mp32flag
	ALIGN	4

?mp32dn@?1??dfp_number_to_fix32@@9@9 DB 024H DUP (?)	; `dfp_number_to_fix32'::`2'::mp32dn
?mn32dn@?1??dfp_number_to_fix32@@9@9 DB 024H DUP (?)	; `dfp_number_to_fix32'::`2'::mn32dn
?mu32flag@?1??dfp_number_to_u32@@9@9 DB 01H DUP (?)	; `dfp_number_to_u32'::`2'::mu32flag
	ALIGN	4

?mu32dn@?1??dfp_number_to_u32@@9@9 DB 024H DUP (?)	; `dfp_number_to_u32'::`2'::mu32dn
?mu64flag@?1??dfp_number_to_u64@@9@9 DB 01H DUP (?)	; `dfp_number_to_u64'::`2'::mu64flag
	ALIGN	4

?mu64dn@?1??dfp_number_to_u64@@9@9 DB 024H DUP (?)	; `dfp_number_to_u64'::`2'::mu64dn
_BSS	ENDS
pdata	SEGMENT
$pdata$s370_convert_fix32_to_dfp_ext_reg DD imagerel $LN10
	DD	imagerel $LN10+493
	DD	imagerel $unwind$s370_convert_fix32_to_dfp_ext_reg
$pdata$s370_convert_fix32_to_dfp_long_reg DD imagerel $LN9
	DD	imagerel $LN9+477
	DD	imagerel $unwind$s370_convert_fix32_to_dfp_long_reg
$pdata$s370_convert_u32_to_dfp_ext_reg DD imagerel $LN10
	DD	imagerel $LN10+493
	DD	imagerel $unwind$s370_convert_u32_to_dfp_ext_reg
$pdata$s370_convert_u32_to_dfp_long_reg DD imagerel $LN9
	DD	imagerel $LN9+477
	DD	imagerel $unwind$s370_convert_u32_to_dfp_long_reg
$pdata$s370_convert_u64_to_dfp_ext_reg DD imagerel $LN10
	DD	imagerel $LN10+496
	DD	imagerel $unwind$s370_convert_u64_to_dfp_ext_reg
$pdata$s370_convert_u64_to_dfp_long_reg DD imagerel $LN9
	DD	imagerel $LN9+480
	DD	imagerel $unwind$s370_convert_u64_to_dfp_long_reg
$pdata$s370_convert_dfp_ext_to_fix32_reg DD imagerel $LN17
	DD	imagerel $LN17+696
	DD	imagerel $unwind$s370_convert_dfp_ext_to_fix32_reg
$pdata$s370_convert_dfp_long_to_fix32_reg DD imagerel $LN16
	DD	imagerel $LN16+652
	DD	imagerel $unwind$s370_convert_dfp_long_to_fix32_reg
$pdata$s370_convert_dfp_ext_to_u32_reg DD imagerel $LN17
	DD	imagerel $LN17+696
	DD	imagerel $unwind$s370_convert_dfp_ext_to_u32_reg
$pdata$s370_convert_dfp_long_to_u32_reg DD imagerel $LN16
	DD	imagerel $LN16+652
	DD	imagerel $unwind$s370_convert_dfp_long_to_u32_reg
$pdata$s370_convert_dfp_ext_to_u64_reg DD imagerel $LN17
	DD	imagerel $LN17+699
	DD	imagerel $unwind$s370_convert_dfp_ext_to_u64_reg
$pdata$s370_convert_dfp_long_to_u64_reg DD imagerel $LN16
	DD	imagerel $LN16+664
	DD	imagerel $unwind$s370_convert_dfp_long_to_u64_reg
$pdata$s370_set_dfp_rounding_mode DD imagerel $LN10
	DD	imagerel $LN10+347
	DD	imagerel $unwind$s370_set_dfp_rounding_mode
$pdata$s370_load_fpr_from_gr_long_reg DD imagerel $LN10
	DD	imagerel $LN10+331
	DD	imagerel $unwind$s370_load_fpr_from_gr_long_reg
$pdata$s370_load_gr_from_fpr_long_reg DD imagerel $LN10
	DD	imagerel $LN10+330
	DD	imagerel $unwind$s370_load_gr_from_fpr_long_reg
$pdata$s370_copy_sign_fpr_long_reg DD imagerel $LN14
	DD	imagerel $LN14+616
	DD	imagerel $unwind$s370_copy_sign_fpr_long_reg
$pdata$s370_load_complement_fpr_long_reg DD imagerel $LN11
	DD	imagerel $LN11+358
	DD	imagerel $unwind$s370_load_complement_fpr_long_reg
$pdata$s370_load_negative_fpr_long_reg DD imagerel $LN11
	DD	imagerel $LN11+358
	DD	imagerel $unwind$s370_load_negative_fpr_long_reg
$pdata$s370_load_positive_fpr_long_reg DD imagerel $LN11
	DD	imagerel $LN11+358
	DD	imagerel $unwind$s370_load_positive_fpr_long_reg
$pdata$s370_load_fpc_and_signal DD imagerel $LN13
	DD	imagerel $LN13+488
	DD	imagerel $unwind$s370_load_fpc_and_signal
$pdata$s370_set_fpc_and_signal DD imagerel $LN12
	DD	imagerel $LN12+437
	DD	imagerel $unwind$s370_set_fpc_and_signal
$pdata$s370_add_dfp_ext_reg DD imagerel $LN18
	DD	imagerel $LN18+786
	DD	imagerel $unwind$s370_add_dfp_ext_reg
$pdata$s370_add_dfp_long_reg DD imagerel $LN16
	DD	imagerel $LN16+723
	DD	imagerel $unwind$s370_add_dfp_long_reg
$pdata$s370_compare_dfp_ext_reg DD imagerel $LN18
	DD	imagerel $LN18+691
	DD	imagerel $unwind$s370_compare_dfp_ext_reg
$pdata$s370_compare_dfp_long_reg DD imagerel $LN16
	DD	imagerel $LN16+633
	DD	imagerel $unwind$s370_compare_dfp_long_reg
$pdata$s370_compare_and_signal_dfp_ext_reg DD imagerel $LN19
	DD	imagerel $LN19+719
	DD	imagerel $unwind$s370_compare_and_signal_dfp_ext_reg
$pdata$s370_compare_and_signal_dfp_long_reg DD imagerel $LN17
	DD	imagerel $LN17+664
	DD	imagerel $unwind$s370_compare_and_signal_dfp_long_reg
$pdata$s370_compare_exponent_dfp_ext_reg DD imagerel $LN11
	DD	imagerel $LN11+473
	DD	imagerel $unwind$s370_compare_exponent_dfp_ext_reg
$pdata$s370_compare_exponent_dfp_long_reg DD imagerel $LN9
	DD	imagerel $LN9+424
	DD	imagerel $unwind$s370_compare_exponent_dfp_long_reg
$pdata$s370_convert_fix64_to_dfp_ext_reg DD imagerel $LN10
	DD	imagerel $LN10+467
	DD	imagerel $unwind$s370_convert_fix64_to_dfp_ext_reg
$pdata$s370_convert_fix64_to_dfp_long_reg DD imagerel $LN10
	DD	imagerel $LN10+497
	DD	imagerel $unwind$s370_convert_fix64_to_dfp_long_reg
$pdata$s370_convert_sbcd128_to_dfp_ext_reg DD imagerel $LN12
	DD	imagerel $LN12+611
	DD	imagerel $unwind$s370_convert_sbcd128_to_dfp_ext_reg
$pdata$s370_convert_sbcd64_to_dfp_long_reg DD imagerel $LN10
	DD	imagerel $LN10+490
	DD	imagerel $unwind$s370_convert_sbcd64_to_dfp_long_reg
$pdata$s370_convert_ubcd128_to_dfp_ext_reg DD imagerel $LN17
	DD	imagerel $LN17+767
	DD	imagerel $unwind$s370_convert_ubcd128_to_dfp_ext_reg
$pdata$s370_convert_ubcd64_to_dfp_long_reg DD imagerel $LN15
	DD	imagerel $LN15+646
	DD	imagerel $unwind$s370_convert_ubcd64_to_dfp_long_reg
$pdata$s370_convert_dfp_ext_to_fix64_reg DD imagerel $LN17
	DD	imagerel $LN17+685
	DD	imagerel $unwind$s370_convert_dfp_ext_to_fix64_reg
$pdata$s370_convert_dfp_long_to_fix64_reg DD imagerel $LN16
	DD	imagerel $LN16+641
	DD	imagerel $unwind$s370_convert_dfp_long_to_fix64_reg
$pdata$s370_convert_dfp_ext_to_sbcd128_reg DD imagerel $LN14
	DD	imagerel $LN14+679
	DD	imagerel $unwind$s370_convert_dfp_ext_to_sbcd128_reg
$pdata$s370_convert_dfp_long_to_sbcd64_reg DD imagerel $LN12
	DD	imagerel $LN12+554
	DD	imagerel $unwind$s370_convert_dfp_long_to_sbcd64_reg
$pdata$s370_convert_dfp_ext_to_ubcd128_reg DD imagerel $LN16
	DD	imagerel $LN16+687
	DD	imagerel $unwind$s370_convert_dfp_ext_to_ubcd128_reg
$pdata$s370_convert_dfp_long_to_ubcd64_reg DD imagerel $LN14
	DD	imagerel $LN14+562
	DD	imagerel $unwind$s370_convert_dfp_long_to_ubcd64_reg
$pdata$s370_divide_dfp_ext_reg DD imagerel $LN12
	DD	imagerel $LN12+641
	DD	imagerel $unwind$s370_divide_dfp_ext_reg
$pdata$s370_divide_dfp_long_reg DD imagerel $LN10
	DD	imagerel $LN10+575
	DD	imagerel $unwind$s370_divide_dfp_long_reg
$pdata$s370_extract_biased_exponent_dfp_ext_to_fix64_reg DD imagerel $LN16
	DD	imagerel $LN16+505
	DD	imagerel $unwind$s370_extract_biased_exponent_dfp_ext_to_fix64_reg
$pdata$s370_extract_biased_exponent_dfp_long_to_fix64_reg DD imagerel $LN15
	DD	imagerel $LN15+467
	DD	imagerel $unwind$s370_extract_biased_exponent_dfp_long_to_fix64_reg
$pdata$s370_extract_significance_dfp_ext_reg DD imagerel $LN18
	DD	imagerel $LN18+547
	DD	imagerel $unwind$s370_extract_significance_dfp_ext_reg
$pdata$s370_extract_significance_dfp_long_reg DD imagerel $LN17
	DD	imagerel $LN17+509
	DD	imagerel $unwind$s370_extract_significance_dfp_long_reg
$pdata$s370_insert_biased_exponent_fix64_to_dfp_ext_reg DD imagerel $LN20
	DD	imagerel $LN20+801
	DD	imagerel $unwind$s370_insert_biased_exponent_fix64_to_dfp_ext_reg
$pdata$s370_insert_biased_exponent_fix64_to_dfp_long_reg DD imagerel $LN18
	DD	imagerel $LN18+737
	DD	imagerel $unwind$s370_insert_biased_exponent_fix64_to_dfp_long_reg
$pdata$s370_load_and_test_dfp_ext_reg DD imagerel $LN19
	DD	imagerel $LN19+711
	DD	imagerel $unwind$s370_load_and_test_dfp_ext_reg
$pdata$s370_load_and_test_dfp_long_reg DD imagerel $LN17
	DD	imagerel $LN17+656
	DD	imagerel $unwind$s370_load_and_test_dfp_long_reg
$pdata$s370_load_fp_int_dfp_ext_reg DD imagerel $LN28
	DD	imagerel $LN28+984
	DD	imagerel $unwind$s370_load_fp_int_dfp_ext_reg
$pdata$s370_load_fp_int_dfp_long_reg DD imagerel $LN26
	DD	imagerel $LN26+947
	DD	imagerel $unwind$s370_load_fp_int_dfp_long_reg
$pdata$s370_load_lengthened_dfp_long_to_ext_reg DD imagerel $LN16
	DD	imagerel $LN16+752
	DD	imagerel $unwind$s370_load_lengthened_dfp_long_to_ext_reg
$pdata$s370_load_lengthened_dfp_short_to_long_reg DD imagerel $LN15
	DD	imagerel $LN15+708
	DD	imagerel $unwind$s370_load_lengthened_dfp_short_to_long_reg
$pdata$s370_load_rounded_dfp_ext_to_long_reg DD imagerel $LN21
	DD	imagerel $LN21+882
	DD	imagerel $unwind$s370_load_rounded_dfp_ext_to_long_reg
$pdata$s370_load_rounded_dfp_long_to_short_reg DD imagerel $LN20
	DD	imagerel $LN20+829
	DD	imagerel $unwind$s370_load_rounded_dfp_long_to_short_reg
$pdata$s370_multiply_dfp_ext_reg DD imagerel $LN12
	DD	imagerel $LN12+641
	DD	imagerel $unwind$s370_multiply_dfp_ext_reg
$pdata$s370_multiply_dfp_long_reg DD imagerel $LN10
	DD	imagerel $LN10+575
	DD	imagerel $unwind$s370_multiply_dfp_long_reg
$pdata$s370_quantize_dfp_ext_reg DD imagerel $LN12
	DD	imagerel $LN12+657
	DD	imagerel $unwind$s370_quantize_dfp_ext_reg
$pdata$s370_quantize_dfp_long_reg DD imagerel $LN10
	DD	imagerel $LN10+591
	DD	imagerel $unwind$s370_quantize_dfp_long_reg
$pdata$s370_reround_dfp_ext_reg DD imagerel $LN16
	DD	imagerel $LN16+737
	DD	imagerel $unwind$s370_reround_dfp_ext_reg
$pdata$s370_reround_dfp_long_reg DD imagerel $LN14
	DD	imagerel $LN14+676
	DD	imagerel $unwind$s370_reround_dfp_long_reg
$pdata$s370_shift_coefficient_left_dfp_ext DD imagerel $LN21
	DD	imagerel $LN21+800
	DD	imagerel $unwind$s370_shift_coefficient_left_dfp_ext
$pdata$s370_shift_coefficient_left_dfp_long DD imagerel $LN19
	DD	imagerel $LN19+739
	DD	imagerel $unwind$s370_shift_coefficient_left_dfp_long
$pdata$s370_shift_coefficient_right_dfp_ext DD imagerel $LN21
	DD	imagerel $LN21+804
	DD	imagerel $unwind$s370_shift_coefficient_right_dfp_ext
$pdata$s370_shift_coefficient_right_dfp_long DD imagerel $LN19
	DD	imagerel $LN19+743
	DD	imagerel $unwind$s370_shift_coefficient_right_dfp_long
$pdata$s370_subtract_dfp_ext_reg DD imagerel $LN18
	DD	imagerel $LN18+786
	DD	imagerel $unwind$s370_subtract_dfp_ext_reg
$pdata$s370_subtract_dfp_long_reg DD imagerel $LN16
	DD	imagerel $LN16+723
	DD	imagerel $unwind$s370_subtract_dfp_long_reg
$pdata$s370_test_data_class_dfp_ext DD imagerel $LN12
	DD	imagerel $LN12+560
	DD	imagerel $unwind$s370_test_data_class_dfp_ext
$pdata$s370_test_data_class_dfp_long DD imagerel $LN11
	DD	imagerel $LN11+522
	DD	imagerel $unwind$s370_test_data_class_dfp_long
$pdata$s370_test_data_class_dfp_short DD imagerel $LN11
	DD	imagerel $LN11+522
	DD	imagerel $unwind$s370_test_data_class_dfp_short
$pdata$s370_test_data_group_dfp_ext DD imagerel $LN12
	DD	imagerel $LN12+579
	DD	imagerel $unwind$s370_test_data_group_dfp_ext
$pdata$s370_test_data_group_dfp_long DD imagerel $LN11
	DD	imagerel $LN11+541
	DD	imagerel $unwind$s370_test_data_group_dfp_long
$pdata$s370_test_data_group_dfp_short DD imagerel $LN11
	DD	imagerel $LN11+541
	DD	imagerel $unwind$s370_test_data_group_dfp_short
pdata	ENDS
;	COMDAT pdata
pdata	SEGMENT
$pdata$fetch_fw_noswap DD imagerel $LN3
	DD	imagerel $LN3+27
	DD	imagerel $unwind$fetch_fw_noswap
pdata	ENDS
;	COMDAT pdata
pdata	SEGMENT
$pdata$fetch_dw_noswap DD imagerel $LN3
	DD	imagerel $LN3+30
	DD	imagerel $unwind$fetch_dw_noswap
pdata	ENDS
;	COMDAT pdata
pdata	SEGMENT
$pdata$s370_FPC_check DD imagerel $LN8
	DD	imagerel $LN8+159
	DD	imagerel $unwind$s370_FPC_check
pdata	ENDS
;	COMDAT pdata
pdata	SEGMENT
$pdata$s370_maddr_l DD imagerel $LN14
	DD	imagerel $LN14+474
	DD	imagerel $unwind$s370_maddr_l
pdata	ENDS
;	COMDAT pdata
pdata	SEGMENT
$pdata$s370_vfetch4_full DD imagerel $LN3
	DD	imagerel $LN3+288
	DD	imagerel $unwind$s370_vfetch4_full
pdata	ENDS
;	COMDAT pdata
pdata	SEGMENT
$pdata$s370_vfetch4 DD imagerel $LN26
	DD	imagerel $LN26+275
	DD	imagerel $unwind$s370_vfetch4
pdata	ENDS
pdata	SEGMENT
$pdata$fpc_signal_check DD imagerel fpc_signal_check
	DD	imagerel fpc_signal_check+247
	DD	imagerel $unwind$fpc_signal_check
$pdata$dfp32_extract_lmd DD imagerel dfp32_extract_lmd
	DD	imagerel dfp32_extract_lmd+45
	DD	imagerel $unwind$dfp32_extract_lmd
$pdata$dfp64_extract_lmd DD imagerel dfp64_extract_lmd
	DD	imagerel dfp64_extract_lmd+46
	DD	imagerel $unwind$dfp64_extract_lmd
$pdata$dfp128_extract_lmd DD imagerel dfp128_extract_lmd
	DD	imagerel dfp128_extract_lmd+46
	DD	imagerel $unwind$dfp128_extract_lmd
$pdata$dfp_compare_exponent DD imagerel dfp_compare_exponent
	DD	imagerel dfp_compare_exponent+271
	DD	imagerel $unwind$dfp_compare_exponent
$pdata$dfp_number_from_fix64 DD imagerel dfp_number_from_fix64
	DD	imagerel dfp_number_from_fix64+310
	DD	imagerel $unwind$dfp_number_from_fix64
$pdata$dfp_number_to_fix64 DD imagerel dfp_number_to_fix64
	DD	imagerel dfp_number_to_fix64+1226
	DD	imagerel $unwind$dfp_number_to_fix64
$pdata$dfp_shift_coeff DD imagerel dfp_shift_coeff
	DD	imagerel dfp_shift_coeff+500
	DD	imagerel $unwind$dfp_shift_coeff
$pdata$dfp_test_data_class DD imagerel dfp_test_data_class
	DD	imagerel dfp_test_data_class+304
	DD	imagerel $unwind$dfp_test_data_class
$pdata$dfp_test_data_group DD imagerel dfp_test_data_group
	DD	imagerel dfp_test_data_group+324
	DD	imagerel $unwind$dfp_test_data_group
$pdata$dfp_number_from_fix32 DD imagerel dfp_number_from_fix32
	DD	imagerel dfp_number_from_fix32+293
	DD	imagerel $unwind$dfp_number_from_fix32
$pdata$dfp_number_from_u32 DD imagerel dfp_number_from_u32
	DD	imagerel dfp_number_from_u32+193
	DD	imagerel $unwind$dfp_number_from_u32
$pdata$dfp_number_from_u64 DD imagerel dfp_number_from_u64
	DD	imagerel dfp_number_from_u64+202
	DD	imagerel $unwind$dfp_number_from_u64
$pdata$dfp_number_to_fix32 DD imagerel dfp_number_to_fix32
	DD	imagerel dfp_number_to_fix32+1183
	DD	imagerel $unwind$dfp_number_to_fix32
$pdata$dfp_number_to_u32 DD imagerel dfp_number_to_u32
	DD	imagerel dfp_number_to_u32+845
	DD	imagerel $unwind$dfp_number_to_u32
$pdata$dfp_number_to_u64 DD imagerel dfp_number_to_u64
	DD	imagerel dfp_number_to_u64+871
	DD	imagerel $unwind$dfp_number_to_u64
$pdata$s370_dfp_rounding_mode DD imagerel s370_dfp_rounding_mode
	DD	imagerel s370_dfp_rounding_mode+252
	DD	imagerel $unwind$s370_dfp_rounding_mode
$pdata$s370_dfp_reg_to_decimal32 DD imagerel s370_dfp_reg_to_decimal32
	DD	imagerel s370_dfp_reg_to_decimal32+65
	DD	imagerel $unwind$s370_dfp_reg_to_decimal32
$pdata$s370_dfp_reg_from_decimal32 DD imagerel s370_dfp_reg_from_decimal32
	DD	imagerel s370_dfp_reg_from_decimal32+65
	DD	imagerel $unwind$s370_dfp_reg_from_decimal32
$pdata$s370_dfp_reg_to_decimal64 DD imagerel s370_dfp_reg_to_decimal64
	DD	imagerel s370_dfp_reg_to_decimal64+92
	DD	imagerel $unwind$s370_dfp_reg_to_decimal64
$pdata$s370_dfp_reg_from_decimal64 DD imagerel s370_dfp_reg_from_decimal64
	DD	imagerel s370_dfp_reg_from_decimal64+92
	DD	imagerel $unwind$s370_dfp_reg_from_decimal64
$pdata$s370_dfp_reg_to_decimal128 DD imagerel s370_dfp_reg_to_decimal128
	DD	imagerel s370_dfp_reg_to_decimal128+155
	DD	imagerel $unwind$s370_dfp_reg_to_decimal128
$pdata$s370_dfp_reg_from_decimal128 DD imagerel s370_dfp_reg_from_decimal128
	DD	imagerel s370_dfp_reg_from_decimal128+155
	DD	imagerel $unwind$s370_dfp_reg_from_decimal128
$pdata$s370_dfp_status_check DD imagerel s370_dfp_status_check
	DD	imagerel s370_dfp_status_check+746
	DD	imagerel $unwind$s370_dfp_status_check
$pdata$z900_convert_fix32_to_dfp_ext_reg DD imagerel $LN15
	DD	imagerel $LN15+649
	DD	imagerel $unwind$z900_convert_fix32_to_dfp_ext_reg
$pdata$z900_convert_fix32_to_dfp_long_reg DD imagerel $LN14
	DD	imagerel $LN14+633
	DD	imagerel $unwind$z900_convert_fix32_to_dfp_long_reg
$pdata$z900_convert_u32_to_dfp_ext_reg DD imagerel $LN15
	DD	imagerel $LN15+649
	DD	imagerel $unwind$z900_convert_u32_to_dfp_ext_reg
$pdata$z900_convert_u32_to_dfp_long_reg DD imagerel $LN14
	DD	imagerel $LN14+633
	DD	imagerel $unwind$z900_convert_u32_to_dfp_long_reg
$pdata$z900_convert_u64_to_dfp_ext_reg DD imagerel $LN15
	DD	imagerel $LN15+652
	DD	imagerel $unwind$z900_convert_u64_to_dfp_ext_reg
$pdata$z900_convert_u64_to_dfp_long_reg DD imagerel $LN14
	DD	imagerel $LN14+636
	DD	imagerel $unwind$z900_convert_u64_to_dfp_long_reg
$pdata$z900_convert_dfp_ext_to_fix32_reg DD imagerel $LN22
	DD	imagerel $LN22+852
	DD	imagerel $unwind$z900_convert_dfp_ext_to_fix32_reg
$pdata$z900_convert_dfp_long_to_fix32_reg DD imagerel $LN21
	DD	imagerel $LN21+808
	DD	imagerel $unwind$z900_convert_dfp_long_to_fix32_reg
$pdata$z900_convert_dfp_ext_to_u32_reg DD imagerel $LN22
	DD	imagerel $LN22+852
	DD	imagerel $unwind$z900_convert_dfp_ext_to_u32_reg
$pdata$z900_convert_dfp_long_to_u32_reg DD imagerel $LN21
	DD	imagerel $LN21+808
	DD	imagerel $unwind$z900_convert_dfp_long_to_u32_reg
$pdata$z900_convert_dfp_ext_to_u64_reg DD imagerel $LN22
	DD	imagerel $LN22+855
	DD	imagerel $unwind$z900_convert_dfp_ext_to_u64_reg
$pdata$z900_convert_dfp_long_to_u64_reg DD imagerel $LN21
	DD	imagerel $LN21+820
	DD	imagerel $unwind$z900_convert_dfp_long_to_u64_reg
$pdata$z900_set_dfp_rounding_mode DD imagerel $LN14
	DD	imagerel $LN14+457
	DD	imagerel $unwind$z900_set_dfp_rounding_mode
$pdata$z900_load_fpr_from_gr_long_reg DD imagerel $LN14
	DD	imagerel $LN14+413
	DD	imagerel $unwind$z900_load_fpr_from_gr_long_reg
$pdata$z900_load_gr_from_fpr_long_reg DD imagerel $LN14
	DD	imagerel $LN14+412
	DD	imagerel $unwind$z900_load_gr_from_fpr_long_reg
$pdata$z900_copy_sign_fpr_long_reg DD imagerel $LN18
	DD	imagerel $LN18+704
	DD	imagerel $unwind$z900_copy_sign_fpr_long_reg
$pdata$z900_load_complement_fpr_long_reg DD imagerel $LN15
	DD	imagerel $LN15+440
	DD	imagerel $unwind$z900_load_complement_fpr_long_reg
$pdata$z900_load_negative_fpr_long_reg DD imagerel $LN15
	DD	imagerel $LN15+440
	DD	imagerel $unwind$z900_load_negative_fpr_long_reg
$pdata$z900_load_positive_fpr_long_reg DD imagerel $LN15
	DD	imagerel $LN15+440
	DD	imagerel $unwind$z900_load_positive_fpr_long_reg
$pdata$z900_load_fpc_and_signal DD imagerel $LN17
	DD	imagerel $LN17+608
	DD	imagerel $unwind$z900_load_fpc_and_signal
$pdata$z900_set_fpc_and_signal DD imagerel $LN16
	DD	imagerel $LN16+519
	DD	imagerel $unwind$z900_set_fpc_and_signal
$pdata$z900_add_dfp_ext_reg DD imagerel $LN23
	DD	imagerel $LN23+942
	DD	imagerel $unwind$z900_add_dfp_ext_reg
$pdata$z900_add_dfp_long_reg DD imagerel $LN21
	DD	imagerel $LN21+879
	DD	imagerel $unwind$z900_add_dfp_long_reg
$pdata$z900_compare_dfp_ext_reg DD imagerel $LN23
	DD	imagerel $LN23+847
	DD	imagerel $unwind$z900_compare_dfp_ext_reg
$pdata$z900_compare_dfp_long_reg DD imagerel $LN21
	DD	imagerel $LN21+789
	DD	imagerel $unwind$z900_compare_dfp_long_reg
$pdata$z900_compare_and_signal_dfp_ext_reg DD imagerel $LN24
	DD	imagerel $LN24+875
	DD	imagerel $unwind$z900_compare_and_signal_dfp_ext_reg
$pdata$z900_compare_and_signal_dfp_long_reg DD imagerel $LN22
	DD	imagerel $LN22+820
	DD	imagerel $unwind$z900_compare_and_signal_dfp_long_reg
$pdata$z900_compare_exponent_dfp_ext_reg DD imagerel $LN16
	DD	imagerel $LN16+629
	DD	imagerel $unwind$z900_compare_exponent_dfp_ext_reg
$pdata$z900_compare_exponent_dfp_long_reg DD imagerel $LN14
	DD	imagerel $LN14+580
	DD	imagerel $unwind$z900_compare_exponent_dfp_long_reg
$pdata$z900_convert_fix64_to_dfp_ext_reg DD imagerel $LN15
	DD	imagerel $LN15+623
	DD	imagerel $unwind$z900_convert_fix64_to_dfp_ext_reg
$pdata$z900_convert_fix64_to_dfp_long_reg DD imagerel $LN15
	DD	imagerel $LN15+653
	DD	imagerel $unwind$z900_convert_fix64_to_dfp_long_reg
$pdata$z900_convert_sbcd128_to_dfp_ext_reg DD imagerel $LN17
	DD	imagerel $LN17+767
	DD	imagerel $unwind$z900_convert_sbcd128_to_dfp_ext_reg
$pdata$z900_convert_sbcd64_to_dfp_long_reg DD imagerel $LN15
	DD	imagerel $LN15+646
	DD	imagerel $unwind$z900_convert_sbcd64_to_dfp_long_reg
$pdata$z900_convert_ubcd128_to_dfp_ext_reg DD imagerel $LN22
	DD	imagerel $LN22+923
	DD	imagerel $unwind$z900_convert_ubcd128_to_dfp_ext_reg
$pdata$z900_convert_ubcd64_to_dfp_long_reg DD imagerel $LN20
	DD	imagerel $LN20+802
	DD	imagerel $unwind$z900_convert_ubcd64_to_dfp_long_reg
$pdata$z900_convert_dfp_ext_to_fix64_reg DD imagerel $LN22
	DD	imagerel $LN22+841
	DD	imagerel $unwind$z900_convert_dfp_ext_to_fix64_reg
$pdata$z900_convert_dfp_long_to_fix64_reg DD imagerel $LN21
	DD	imagerel $LN21+797
	DD	imagerel $unwind$z900_convert_dfp_long_to_fix64_reg
$pdata$z900_convert_dfp_ext_to_sbcd128_reg DD imagerel $LN19
	DD	imagerel $LN19+835
	DD	imagerel $unwind$z900_convert_dfp_ext_to_sbcd128_reg
$pdata$z900_convert_dfp_long_to_sbcd64_reg DD imagerel $LN17
	DD	imagerel $LN17+710
	DD	imagerel $unwind$z900_convert_dfp_long_to_sbcd64_reg
$pdata$z900_convert_dfp_ext_to_ubcd128_reg DD imagerel $LN21
	DD	imagerel $LN21+843
	DD	imagerel $unwind$z900_convert_dfp_ext_to_ubcd128_reg
$pdata$z900_convert_dfp_long_to_ubcd64_reg DD imagerel $LN19
	DD	imagerel $LN19+718
	DD	imagerel $unwind$z900_convert_dfp_long_to_ubcd64_reg
$pdata$z900_divide_dfp_ext_reg DD imagerel $LN17
	DD	imagerel $LN17+797
	DD	imagerel $unwind$z900_divide_dfp_ext_reg
$pdata$z900_divide_dfp_long_reg DD imagerel $LN15
	DD	imagerel $LN15+731
	DD	imagerel $unwind$z900_divide_dfp_long_reg
$pdata$z900_extract_biased_exponent_dfp_ext_to_fix64_reg DD imagerel $LN21
	DD	imagerel $LN21+663
	DD	imagerel $unwind$z900_extract_biased_exponent_dfp_ext_to_fix64_reg
$pdata$z900_extract_biased_exponent_dfp_long_to_fix64_reg DD imagerel $LN20
	DD	imagerel $LN20+625
	DD	imagerel $unwind$z900_extract_biased_exponent_dfp_long_to_fix64_reg
$pdata$z900_extract_significance_dfp_ext_reg DD imagerel $LN23
	DD	imagerel $LN23+705
	DD	imagerel $unwind$z900_extract_significance_dfp_ext_reg
$pdata$z900_extract_significance_dfp_long_reg DD imagerel $LN22
	DD	imagerel $LN22+667
	DD	imagerel $unwind$z900_extract_significance_dfp_long_reg
$pdata$z900_insert_biased_exponent_fix64_to_dfp_ext_reg DD imagerel $LN25
	DD	imagerel $LN25+958
	DD	imagerel $unwind$z900_insert_biased_exponent_fix64_to_dfp_ext_reg
$pdata$z900_insert_biased_exponent_fix64_to_dfp_long_reg DD imagerel $LN23
	DD	imagerel $LN23+894
	DD	imagerel $unwind$z900_insert_biased_exponent_fix64_to_dfp_long_reg
$pdata$z900_load_and_test_dfp_ext_reg DD imagerel $LN24
	DD	imagerel $LN24+867
	DD	imagerel $unwind$z900_load_and_test_dfp_ext_reg
$pdata$z900_load_and_test_dfp_long_reg DD imagerel $LN22
	DD	imagerel $LN22+812
	DD	imagerel $unwind$z900_load_and_test_dfp_long_reg
$pdata$z900_load_fp_int_dfp_ext_reg DD imagerel $LN33
	DD	imagerel $LN33+1140
	DD	imagerel $unwind$z900_load_fp_int_dfp_ext_reg
$pdata$z900_load_fp_int_dfp_long_reg DD imagerel $LN31
	DD	imagerel $LN31+1103
	DD	imagerel $unwind$z900_load_fp_int_dfp_long_reg
$pdata$z900_load_lengthened_dfp_long_to_ext_reg DD imagerel $LN21
	DD	imagerel $LN21+908
	DD	imagerel $unwind$z900_load_lengthened_dfp_long_to_ext_reg
$pdata$z900_load_lengthened_dfp_short_to_long_reg DD imagerel $LN20
	DD	imagerel $LN20+864
	DD	imagerel $unwind$z900_load_lengthened_dfp_short_to_long_reg
$pdata$z900_load_rounded_dfp_ext_to_long_reg DD imagerel $LN26
	DD	imagerel $LN26+1038
	DD	imagerel $unwind$z900_load_rounded_dfp_ext_to_long_reg
$pdata$z900_load_rounded_dfp_long_to_short_reg DD imagerel $LN25
	DD	imagerel $LN25+985
	DD	imagerel $unwind$z900_load_rounded_dfp_long_to_short_reg
$pdata$z900_multiply_dfp_ext_reg DD imagerel $LN17
	DD	imagerel $LN17+797
	DD	imagerel $unwind$z900_multiply_dfp_ext_reg
$pdata$z900_multiply_dfp_long_reg DD imagerel $LN15
	DD	imagerel $LN15+731
	DD	imagerel $unwind$z900_multiply_dfp_long_reg
$pdata$z900_quantize_dfp_ext_reg DD imagerel $LN17
	DD	imagerel $LN17+813
	DD	imagerel $unwind$z900_quantize_dfp_ext_reg
$pdata$z900_quantize_dfp_long_reg DD imagerel $LN15
	DD	imagerel $LN15+747
	DD	imagerel $unwind$z900_quantize_dfp_long_reg
$pdata$z900_reround_dfp_ext_reg DD imagerel $LN21
	DD	imagerel $LN21+893
	DD	imagerel $unwind$z900_reround_dfp_ext_reg
$pdata$z900_reround_dfp_long_reg DD imagerel $LN19
	DD	imagerel $LN19+832
	DD	imagerel $unwind$z900_reround_dfp_long_reg
$pdata$z900_shift_coefficient_left_dfp_ext DD imagerel $LN26
	DD	imagerel $LN26+989
	DD	imagerel $unwind$z900_shift_coefficient_left_dfp_ext
$pdata$z900_shift_coefficient_left_dfp_long DD imagerel $LN24
	DD	imagerel $LN24+940
	DD	imagerel $unwind$z900_shift_coefficient_left_dfp_long
$pdata$z900_shift_coefficient_right_dfp_ext DD imagerel $LN26
	DD	imagerel $LN26+993
	DD	imagerel $unwind$z900_shift_coefficient_right_dfp_ext
$pdata$z900_shift_coefficient_right_dfp_long DD imagerel $LN24
	DD	imagerel $LN24+944
	DD	imagerel $unwind$z900_shift_coefficient_right_dfp_long
$pdata$z900_subtract_dfp_ext_reg DD imagerel $LN23
	DD	imagerel $LN23+942
	DD	imagerel $unwind$z900_subtract_dfp_ext_reg
$pdata$z900_subtract_dfp_long_reg DD imagerel $LN21
	DD	imagerel $LN21+879
	DD	imagerel $unwind$z900_subtract_dfp_long_reg
$pdata$z900_test_data_class_dfp_ext DD imagerel $LN17
	DD	imagerel $LN17+749
	DD	imagerel $unwind$z900_test_data_class_dfp_ext
$pdata$z900_test_data_class_dfp_long DD imagerel $LN16
	DD	imagerel $LN16+711
	DD	imagerel $unwind$z900_test_data_class_dfp_long
$pdata$z900_test_data_class_dfp_short DD imagerel $LN16
	DD	imagerel $LN16+711
	DD	imagerel $unwind$z900_test_data_class_dfp_short
$pdata$z900_test_data_group_dfp_ext DD imagerel $LN17
	DD	imagerel $LN17+768
	DD	imagerel $unwind$z900_test_data_group_dfp_ext
$pdata$z900_test_data_group_dfp_long DD imagerel $LN16
	DD	imagerel $LN16+730
	DD	imagerel $unwind$z900_test_data_group_dfp_long
$pdata$z900_test_data_group_dfp_short DD imagerel $LN16
	DD	imagerel $LN16+730
	DD	imagerel $unwind$z900_test_data_group_dfp_short
$pdata$z900_convert_zoned_to_dfp_ext DD imagerel $LN18
	DD	imagerel $LN18+872
	DD	imagerel $unwind$z900_convert_zoned_to_dfp_ext
$pdata$z900_convert_zoned_to_dfp_long DD imagerel $LN17
	DD	imagerel $LN17+834
	DD	imagerel $unwind$z900_convert_zoned_to_dfp_long
$pdata$z900_convert_dfp_ext_to_zoned DD imagerel $LN19
	DD	imagerel $LN19+903
	DD	imagerel $unwind$z900_convert_dfp_ext_to_zoned
$pdata$z900_convert_dfp_long_to_zoned DD imagerel $LN18
	DD	imagerel $LN18+865
	DD	imagerel $unwind$z900_convert_dfp_long_to_zoned
$pdata$z900_convert_packed_to_dfp_ext DD imagerel $LN24
	DD	imagerel $LN24+970
	DD	imagerel $unwind$z900_convert_packed_to_dfp_ext
$pdata$z900_convert_packed_to_dfp_long DD imagerel $LN23
	DD	imagerel $LN23+932
	DD	imagerel $unwind$z900_convert_packed_to_dfp_long
$pdata$z900_convert_dfp_ext_to_packed DD imagerel $LN19
	DD	imagerel $LN19+903
	DD	imagerel $unwind$z900_convert_dfp_ext_to_packed
$pdata$z900_convert_dfp_long_to_packed DD imagerel $LN18
	DD	imagerel $LN18+865
	DD	imagerel $unwind$z900_convert_dfp_long_to_packed
pdata	ENDS
;	COMDAT pdata
pdata	SEGMENT
$pdata$z900_per3_zero DD imagerel $LN12
	DD	imagerel $LN12+215
	DD	imagerel $unwind$z900_per3_zero
pdata	ENDS
;	COMDAT pdata
pdata	SEGMENT
$pdata$z900_per3_zero_xcheck DD imagerel $LN6
	DD	imagerel $LN6+108
	DD	imagerel $unwind$z900_per3_zero_xcheck
pdata	ENDS
;	COMDAT pdata
pdata	SEGMENT
$pdata$z900_FPC_check DD imagerel $LN8
	DD	imagerel $LN8+159
	DD	imagerel $unwind$z900_FPC_check
pdata	ENDS
;	COMDAT pdata
pdata	SEGMENT
$pdata$z900_maddr_l DD imagerel $LN18
	DD	imagerel $LN18+657
	DD	imagerel $unwind$z900_maddr_l
pdata	ENDS
;	COMDAT pdata
pdata	SEGMENT
$pdata$z900_vfetch4_full DD imagerel $LN3
	DD	imagerel $LN3+307
	DD	imagerel $unwind$z900_vfetch4_full
pdata	ENDS
;	COMDAT pdata
pdata	SEGMENT
$pdata$z900_vstorec DD imagerel $LN9
	DD	imagerel $LN9+511
	DD	imagerel $unwind$z900_vstorec
pdata	ENDS
;	COMDAT pdata
pdata	SEGMENT
$pdata$z900_vfetchc DD imagerel $LN9
	DD	imagerel $LN9+445
	DD	imagerel $unwind$z900_vfetchc
pdata	ENDS
;	COMDAT pdata
pdata	SEGMENT
$pdata$z900_vfetch4 DD imagerel $LN11
	DD	imagerel $LN11+195
	DD	imagerel $unwind$z900_vfetch4
pdata	ENDS
pdata	SEGMENT
$pdata$dfp_number_from_zoned DD imagerel dfp_number_from_zoned
	DD	imagerel dfp_number_from_zoned+388
	DD	imagerel $unwind$dfp_number_from_zoned
$pdata$dfp_number_to_zoned DD imagerel dfp_number_to_zoned
	DD	imagerel dfp_number_to_zoned+948
	DD	imagerel $unwind$dfp_number_to_zoned
$pdata$dfp_number_from_packed DD imagerel dfp_number_from_packed
	DD	imagerel dfp_number_from_packed+544
	DD	imagerel $unwind$dfp_number_from_packed
$pdata$dfp_number_to_packed DD imagerel dfp_number_to_packed
	DD	imagerel dfp_number_to_packed+1043
	DD	imagerel $unwind$dfp_number_to_packed
$pdata$z900_dfp_rounding_mode DD imagerel z900_dfp_rounding_mode
	DD	imagerel z900_dfp_rounding_mode+252
	DD	imagerel $unwind$z900_dfp_rounding_mode
$pdata$z900_dfp_reg_to_decimal32 DD imagerel z900_dfp_reg_to_decimal32
	DD	imagerel z900_dfp_reg_to_decimal32+65
	DD	imagerel $unwind$z900_dfp_reg_to_decimal32
$pdata$z900_dfp_reg_from_decimal32 DD imagerel z900_dfp_reg_from_decimal32
	DD	imagerel z900_dfp_reg_from_decimal32+65
	DD	imagerel $unwind$z900_dfp_reg_from_decimal32
$pdata$z900_dfp_reg_to_decimal64 DD imagerel z900_dfp_reg_to_decimal64
	DD	imagerel z900_dfp_reg_to_decimal64+92
	DD	imagerel $unwind$z900_dfp_reg_to_decimal64
$pdata$z900_dfp_reg_from_decimal64 DD imagerel z900_dfp_reg_from_decimal64
	DD	imagerel z900_dfp_reg_from_decimal64+92
	DD	imagerel $unwind$z900_dfp_reg_from_decimal64
$pdata$z900_dfp_reg_to_decimal128 DD imagerel z900_dfp_reg_to_decimal128
	DD	imagerel z900_dfp_reg_to_decimal128+155
	DD	imagerel $unwind$z900_dfp_reg_to_decimal128
$pdata$z900_dfp_reg_from_decimal128 DD imagerel z900_dfp_reg_from_decimal128
	DD	imagerel z900_dfp_reg_from_decimal128+155
	DD	imagerel $unwind$z900_dfp_reg_from_decimal128
$pdata$z900_dfp_status_check DD imagerel z900_dfp_status_check
	DD	imagerel z900_dfp_status_check+746
	DD	imagerel $unwind$z900_dfp_status_check
pdata	ENDS
_DATA	SEGMENT
?maxnegzd@?1??dfp_number_from_fix64@@9@9 DB '-9223372036854775808', 00H ; `dfp_number_from_fix64'::`2'::maxnegzd
	ORG $+3
?maxneg64@?1??dfp_number_from_fix64@@9@9 DQ 8000000000000000H ; `dfp_number_from_fix64'::`2'::maxneg64
?mp64@?1??dfp_number_to_fix64@@9@9 DQ 7fffffffffffffffH	; `dfp_number_to_fix64'::`2'::mp64
?mn64@?1??dfp_number_to_fix64@@9@9 DQ 8000000000000000H	; `dfp_number_to_fix64'::`2'::mn64
?mpzd@?1??dfp_number_to_fix64@@9@9 DB '9223372036854775807', 00H ; `dfp_number_to_fix64'::`2'::mpzd
?maxneg32@?1??dfp_number_from_fix32@@9@9 DD 080000000H	; `dfp_number_from_fix32'::`2'::maxneg32
?mnzd@?1??dfp_number_to_fix64@@9@9 DB '-9223372036854775808', 00H ; `dfp_number_to_fix64'::`2'::mnzd
	ORG $+3
?maxnegzd@?1??dfp_number_from_fix32@@9@9 DB '-2147483648', 00H ; `dfp_number_from_fix32'::`2'::maxnegzd
?mp32@?1??dfp_number_to_fix32@@9@9 DD 07fffffffH	; `dfp_number_to_fix32'::`2'::mp32
?mn32@?1??dfp_number_to_fix32@@9@9 DD 080000000H	; `dfp_number_to_fix32'::`2'::mn32
?mu32@?1??dfp_number_to_u32@@9@9 DD 0ffffffffH		; `dfp_number_to_u32'::`2'::mu32
?mp32zd@?1??dfp_number_to_fix32@@9@9 DB '2147483647', 00H ; `dfp_number_to_fix32'::`2'::mp32zd
	ORG $+5
?mn32zd@?1??dfp_number_to_fix32@@9@9 DB '-2147483648', 00H ; `dfp_number_to_fix32'::`2'::mn32zd
	ORG $+4
?mu32zd@?1??dfp_number_to_u32@@9@9 DB '4294967295', 00H	; `dfp_number_to_u32'::`2'::mu32zd
	ORG $+5
?mu64@?1??dfp_number_to_u64@@9@9 DQ ffffffffffffffffH	; `dfp_number_to_u64'::`2'::mu64
?mu64zd@?1??dfp_number_to_u64@@9@9 DB '18446744073709551615', 00H ; `dfp_number_to_u64'::`2'::mu64zd
	ORG $+3
$SG195237 DB	'C:\papa\MyGit\hyperion-zvector\dfp.c:52', 00H
$SG195260 DB	'C:\papa\MyGit\hyperion-zvector\dfp.c:75', 00H
$SG195286 DB	'C:\papa\MyGit\hyperion-zvector\dfp.c:99', 00H
$SG195312 DB	'C:\papa\MyGit\hyperion-zvector\dfp.c:131', 00H
	ORG $+7
$SG195334 DB	'C:\papa\MyGit\hyperion-zvector\dfp.c:156', 00H
	ORG $+7
$SG195355 DB	'C:\papa\MyGit\hyperion-zvector\dfp.c:178', 00H
	ORG $+7
$SG195376 DB	'C:\papa\MyGit\hyperion-zvector\dfp.c:202', 00H
	ORG $+7
$SG195399 DB	'C:\papa\MyGit\hyperion-zvector\dfp.c:295', 00H
	ORG $+7
$SG195424 DB	'C:\papa\MyGit\hyperion-zvector\dfp.c:339', 00H
	ORG $+7
$SG195720 DB	'C:\papa\MyGit\hyperion-zvector\dfp.c:1991', 00H
	ORG $+6
$SG195752 DB	'C:\papa\MyGit\hyperion-zvector\dfp.c:2041', 00H
	ORG $+6
$SG195780 DB	'C:\papa\MyGit\hyperion-zvector\dfp.c:2090', 00H
	ORG $+6
$SG195810 DB	'C:\papa\MyGit\hyperion-zvector\dfp.c:2135', 00H
	ORG $+6
$SG195838 DB	'C:\papa\MyGit\hyperion-zvector\dfp.c:2179', 00H
	ORG $+6
$SG195869 DB	'C:\papa\MyGit\hyperion-zvector\dfp.c:2228', 00H
	ORG $+6
$SG195896 DB	'C:\papa\MyGit\hyperion-zvector\dfp.c:2275', 00H
	ORG $+6
$SG195923 DB	'C:\papa\MyGit\hyperion-zvector\dfp.c:2306', 00H
	ORG $+6
$SG195950 DB	'C:\papa\MyGit\hyperion-zvector\dfp.c:2339', 00H
	ORG $+6
$SG195979 DB	'C:\papa\MyGit\hyperion-zvector\dfp.c:2375', 00H
	ORG $+6
$SG196005 DB	'C:\papa\MyGit\hyperion-zvector\dfp.c:2412', 00H
	ORG $+6
$SG196033 DB	'C:\papa\MyGit\hyperion-zvector\dfp.c:2448', 00H
	ORG $+6
$SG196058 DB	'C:\papa\MyGit\hyperion-zvector\dfp.c:2485', 00H
	ORG $+6
$SG196085 DB	'C:\papa\MyGit\hyperion-zvector\dfp.c:2520', 00H
	ORG $+6
$SG196112 DB	'C:\papa\MyGit\hyperion-zvector\dfp.c:2565', 00H
	ORG $+6
$SG196140 DB	'C:\papa\MyGit\hyperion-zvector\dfp.c:2601', 00H
	ORG $+6
$SG196167 DB	'C:\papa\MyGit\hyperion-zvector\dfp.c:2639', 00H
	ORG $+6
$SG196197 DB	'C:\papa\MyGit\hyperion-zvector\dfp.c:2684', 00H
	ORG $+6
$SG196230 DB	'C:\papa\MyGit\hyperion-zvector\dfp.c:2727', 00H
	ORG $+6
$SG196265 DB	'C:\papa\MyGit\hyperion-zvector\dfp.c:2779', 00H
	ORG $+6
$SG196295 DB	'C:\papa\MyGit\hyperion-zvector\dfp.c:2832', 00H
	ORG $+6
$SG196327 DB	'C:\papa\MyGit\hyperion-zvector\dfp.c:2885', 00H
	ORG $+6
$SG196358 DB	'C:\papa\MyGit\hyperion-zvector\dfp.c:2939', 00H
	ORG $+6
$SG196396 DB	'C:\papa\MyGit\hyperion-zvector\dfp.c:3005', 00H
	ORG $+6
$SG196431 DB	'C:\papa\MyGit\hyperion-zvector\dfp.c:3069', 00H
	ORG $+6
$SG196460 DB	'C:\papa\MyGit\hyperion-zvector\dfp.c:3120', 00H
	ORG $+6
$SG196488 DB	'C:\papa\MyGit\hyperion-zvector\dfp.c:3170', 00H
	ORG $+6
$SG196517 DB	'C:\papa\MyGit\hyperion-zvector\dfp.c:3221', 00H
	ORG $+6
$SG196544 DB	'C:\papa\MyGit\hyperion-zvector\dfp.c:3272', 00H
	ORG $+6
$SG196572 DB	'C:\papa\MyGit\hyperion-zvector\dfp.c:3323', 00H
	ORG $+6
$SG196600 DB	'C:\papa\MyGit\hyperion-zvector\dfp.c:3374', 00H
	ORG $+6
$SG196629 DB	'C:\papa\MyGit\hyperion-zvector\dfp.c:3425', 00H
	ORG $+6
$SG196656 DB	'C:\papa\MyGit\hyperion-zvector\dfp.c:3476', 00H
	ORG $+6
$SG196687 DB	'C:\papa\MyGit\hyperion-zvector\dfp.c:3525', 00H
	ORG $+6
$SG196719 DB	'C:\papa\MyGit\hyperion-zvector\dfp.c:3571', 00H
	ORG $+6
$SG196752 DB	'C:\papa\MyGit\hyperion-zvector\dfp.c:3620', 00H
	ORG $+6
$SG196784 DB	'C:\papa\MyGit\hyperion-zvector\dfp.c:3670', 00H
	ORG $+6
$SG196818 DB	'C:\papa\MyGit\hyperion-zvector\dfp.c:3724', 00H
	ORG $+6
$SG196851 DB	'C:\papa\MyGit\hyperion-zvector\dfp.c:3779', 00H
	ORG $+6
$SG196885 DB	'C:\papa\MyGit\hyperion-zvector\dfp.c:3833', 00H
	ORG $+6
$SG196917 DB	'C:\papa\MyGit\hyperion-zvector\dfp.c:3882', 00H
	ORG $+6
$SG196949 DB	'C:\papa\MyGit\hyperion-zvector\dfp.c:3927', 00H
	ORG $+6
$SG196974 DB	'C:\papa\MyGit\hyperion-zvector\dfp.c:3971', 00H
	ORG $+6
$SG197005 DB	'C:\papa\MyGit\hyperion-zvector\dfp.c:4013', 00H
	ORG $+6
$SG197035 DB	'C:\papa\MyGit\hyperion-zvector\dfp.c:4054', 00H
	ORG $+6
$SG197068 DB	'C:\papa\MyGit\hyperion-zvector\dfp.c:4098', 00H
	ORG $+6
$SG197103 DB	'C:\papa\MyGit\hyperion-zvector\dfp.c:4141', 00H
	ORG $+6
$SG197141 DB	'C:\papa\MyGit\hyperion-zvector\dfp.c:4212', 00H
	ORG $+6
$SG197175 DB	'C:\papa\MyGit\hyperion-zvector\dfp.c:4282', 00H
	ORG $+6
$SG197204 DB	'C:\papa\MyGit\hyperion-zvector\dfp.c:4336', 00H
	ORG $+6
$SG197235 DB	'C:\papa\MyGit\hyperion-zvector\dfp.c:4389', 00H
	ORG $+6
$SG197273 DB	'C:\papa\MyGit\hyperion-zvector\dfp.c:4465', 00H
	ORG $+6
$SG197307 DB	'C:\papa\MyGit\hyperion-zvector\dfp.c:4541', 00H
	ORG $+6
$SG197341 DB	'C:\papa\MyGit\hyperion-zvector\dfp.c:4610', 00H
	ORG $+6
$SG197377 DB	'C:\papa\MyGit\hyperion-zvector\dfp.c:4680', 00H
	ORG $+6
$SG197419 DB	'C:\papa\MyGit\hyperion-zvector\dfp.c:4767', 00H
	ORG $+6
$SG197459 DB	'C:\papa\MyGit\hyperion-zvector\dfp.c:4850', 00H
	ORG $+6
$SG197491 DB	'C:\papa\MyGit\hyperion-zvector\dfp.c:4895', 00H
	ORG $+6
$SG197522 DB	'C:\papa\MyGit\hyperion-zvector\dfp.c:4939', 00H
	ORG $+6
$SG197555 DB	'C:\papa\MyGit\hyperion-zvector\dfp.c:4984', 00H
	ORG $+6
$SG197585 DB	'C:\papa\MyGit\hyperion-zvector\dfp.c:5029', 00H
	ORG $+6
$SG197621 DB	'C:\papa\MyGit\hyperion-zvector\dfp.c:5086', 00H
	ORG $+6
$SG197657 DB	'C:\papa\MyGit\hyperion-zvector\dfp.c:5144', 00H
	ORG $+6
$SG197698 DB	'C:\papa\MyGit\hyperion-zvector\dfp.c:5207', 00H
	ORG $+6
$SG197737 DB	'C:\papa\MyGit\hyperion-zvector\dfp.c:5269', 00H
	ORG $+6
$SG197778 DB	'C:\papa\MyGit\hyperion-zvector\dfp.c:5332', 00H
	ORG $+6
$SG197815 DB	'C:\papa\MyGit\hyperion-zvector\dfp.c:5391', 00H
	ORG $+6
$SG197847 DB	'C:\papa\MyGit\hyperion-zvector\dfp.c:5441', 00H
	ORG $+6
$SG197876 DB	'C:\papa\MyGit\hyperion-zvector\dfp.c:5493', 00H
	ORG $+6
$SG197905 DB	'C:\papa\MyGit\hyperion-zvector\dfp.c:5529', 00H
	ORG $+6
$SG197933 DB	'C:\papa\MyGit\hyperion-zvector\dfp.c:5564', 00H
	ORG $+6
$SG197962 DB	'C:\papa\MyGit\hyperion-zvector\dfp.c:5600', 00H
	ORG $+6
$SG197992 DB	'C:\papa\MyGit\hyperion-zvector\dfp.c:5642', 00H
	ORG $+6
$SG198021 DB	'C:\papa\MyGit\hyperion-zvector\dfp.c:5683', 00H
_DATA	ENDS
;	COMDAT xdata
xdata	SEGMENT
$unwind$z900_vfetch4 DD 011201H
	DD	08212H
xdata	ENDS
;	COMDAT xdata
xdata	SEGMENT
$unwind$z900_vfetchc DD 031901H
	DD	07015a219H
	DD	06014H
xdata	ENDS
;	COMDAT xdata
xdata	SEGMENT
$unwind$z900_vstorec DD 031901H
	DD	07015c219H
	DD	06014H
xdata	ENDS
;	COMDAT voltbl
voltbl	SEGMENT
_volmd	DW	01eH
	DW	011fH
voltbl	ENDS
;	COMDAT xdata
xdata	SEGMENT
$unwind$z900_vfetch4_full DD 032319H
	DD	07010a214H
	DD	0600fH
	DD	imagerel __GSHandlerCheck
	DD	048H
xdata	ENDS
;	COMDAT xdata
xdata	SEGMENT
$unwind$z900_maddr_l DD 011801H
	DD	0a218H
xdata	ENDS
;	COMDAT xdata
xdata	SEGMENT
$unwind$z900_FPC_check DD 010d01H
	DD	0420dH
xdata	ENDS
;	COMDAT xdata
xdata	SEGMENT
$unwind$z900_per3_zero_xcheck DD 010d01H
	DD	0620dH
xdata	ENDS
;	COMDAT xdata
xdata	SEGMENT
$unwind$z900_per3_zero DD 010901H
	DD	06209H
xdata	ENDS
;	COMDAT xdata
xdata	SEGMENT
$unwind$s370_vfetch4 DD 011101H
	DD	0a211H
xdata	ENDS
;	COMDAT voltbl
voltbl	SEGMENT
_volmd	DW	01dH
	DW	010cH
voltbl	ENDS
;	COMDAT xdata
xdata	SEGMENT
$unwind$s370_vfetch4_full DD 032219H
	DD	0700fa213H
	DD	0600eH
	DD	imagerel __GSHandlerCheck
	DD	048H
xdata	ENDS
;	COMDAT xdata
xdata	SEGMENT
$unwind$s370_maddr_l DD 011701H
	DD	0a217H
xdata	ENDS
;	COMDAT xdata
xdata	SEGMENT
$unwind$s370_FPC_check DD 010d01H
	DD	0420dH
xdata	ENDS
;	COMDAT xdata
xdata	SEGMENT
$unwind$fetch_dw_noswap DD 010901H
	DD	02209H
xdata	ENDS
;	COMDAT xdata
xdata	SEGMENT
$unwind$fetch_fw_noswap DD 010901H
	DD	02209H
xdata	ENDS
voltbl	SEGMENT
_volmd	DD	0ffffffffH
	DDSymXIndex: 	FLAT:dfp_number_to_packed
	DD	025H
	DD	03fbH
_volmd	DD	0ffffffffH
	DDSymXIndex: 	FLAT:dfp_number_from_packed
	DD	025H
	DD	01f0H
_volmd	DD	0ffffffffH
	DDSymXIndex: 	FLAT:dfp_number_to_zoned
	DD	025H
	DD	039cH
_volmd	DD	0ffffffffH
	DDSymXIndex: 	FLAT:dfp_number_from_zoned
	DD	022H
	DD	0159H
_volmd	DD	0ffffffffH
	DDSymXIndex: 	FLAT:z900_convert_dfp_long_to_packed
	DD	01bH
	DD	0349H
_volmd	DD	0ffffffffH
	DDSymXIndex: 	FLAT:z900_convert_dfp_ext_to_packed
	DD	01bH
	DD	036fH
_volmd	DD	0ffffffffH
	DDSymXIndex: 	FLAT:z900_convert_packed_to_dfp_long
	DD	01bH
	DD	038cH
_volmd	DD	0ffffffffH
	DDSymXIndex: 	FLAT:z900_convert_packed_to_dfp_ext
	DD	01bH
	DD	03b2H
_volmd	DD	0ffffffffH
	DDSymXIndex: 	FLAT:z900_convert_dfp_long_to_zoned
	DD	01bH
	DD	0349H
_volmd	DD	0ffffffffH
	DDSymXIndex: 	FLAT:z900_convert_dfp_ext_to_zoned
	DD	01bH
	DD	036fH
_volmd	DD	0ffffffffH
	DDSymXIndex: 	FLAT:z900_convert_zoned_to_dfp_long
	DD	01bH
	DD	032aH
_volmd	DD	0ffffffffH
	DDSymXIndex: 	FLAT:z900_convert_zoned_to_dfp_ext
	DD	01bH
	DD	0350H
_volmd	DD	0ffffffffH
	DDSymXIndex: 	FLAT:z900_test_data_group_dfp_short
	DD	01bH
	DD	02c2H
_volmd	DD	0ffffffffH
	DDSymXIndex: 	FLAT:z900_test_data_group_dfp_long
	DD	01bH
	DD	02c2H
_volmd	DD	0ffffffffH
	DDSymXIndex: 	FLAT:z900_test_data_group_dfp_ext
	DD	01bH
	DD	02e8H
_volmd	DD	0ffffffffH
	DDSymXIndex: 	FLAT:z900_test_data_class_dfp_short
	DD	01bH
	DD	02afH
_volmd	DD	0ffffffffH
	DDSymXIndex: 	FLAT:z900_test_data_class_dfp_long
	DD	01bH
	DD	02afH
_volmd	DD	0ffffffffH
	DDSymXIndex: 	FLAT:z900_test_data_class_dfp_ext
	DD	01bH
	DD	02d5H
_volmd	DD	0ffffffffH
	DDSymXIndex: 	FLAT:z900_subtract_dfp_long_reg
	DD	01bH
	DD	0357H
_volmd	DD	0ffffffffH
	DDSymXIndex: 	FLAT:z900_subtract_dfp_ext_reg
	DD	01bH
	DD	0396H
_volmd	DD	0ffffffffH
	DDSymXIndex: 	FLAT:z900_shift_coefficient_right_dfp_long
	DD	01bH
	DD	0398H
_volmd	DD	0ffffffffH
	DDSymXIndex: 	FLAT:z900_shift_coefficient_right_dfp_ext
	DD	01bH
	DD	03c9H
_volmd	DD	0ffffffffH
	DDSymXIndex: 	FLAT:z900_shift_coefficient_left_dfp_long
	DD	01bH
	DD	0394H
_volmd	DD	0ffffffffH
	DDSymXIndex: 	FLAT:z900_shift_coefficient_left_dfp_ext
	DD	01bH
	DD	03c5H
_volmd	DD	0ffffffffH
	DDSymXIndex: 	FLAT:z900_reround_dfp_long_reg
	DD	01bH
	DD	0328H
_volmd	DD	0ffffffffH
	DDSymXIndex: 	FLAT:z900_reround_dfp_ext_reg
	DD	01bH
	DD	0365H
_volmd	DD	0ffffffffH
	DDSymXIndex: 	FLAT:z900_quantize_dfp_long_reg
	DD	01bH
	DD	02d3H
_volmd	DD	0ffffffffH
	DDSymXIndex: 	FLAT:z900_quantize_dfp_ext_reg
	DD	01bH
	DD	0315H
_volmd	DD	0ffffffffH
	DDSymXIndex: 	FLAT:z900_multiply_dfp_long_reg
	DD	01bH
	DD	02c3H
_volmd	DD	0ffffffffH
	DDSymXIndex: 	FLAT:z900_multiply_dfp_ext_reg
	DD	01bH
	DD	0305H
_volmd	DD	0ffffffffH
	DDSymXIndex: 	FLAT:z900_load_rounded_dfp_long_to_short_reg
	DD	01bH
	DD	03c1H
_volmd	DD	0ffffffffH
	DDSymXIndex: 	FLAT:z900_load_rounded_dfp_ext_to_long_reg
	DD	01bH
	DD	03f6H
_volmd	DD	0ffffffffH
	DDSymXIndex: 	FLAT:z900_load_lengthened_dfp_short_to_long_reg
	DD	01bH
	DD	0348H
_volmd	DD	0ffffffffH
	DDSymXIndex: 	FLAT:z900_load_lengthened_dfp_long_to_ext_reg
	DD	01bH
	DD	0374H
_volmd	DD	0ffffffffH
	DDSymXIndex: 	FLAT:z900_load_fp_int_dfp_long_reg
	DD	01bH
	DD	0437H
_volmd	DD	0ffffffffH
	DDSymXIndex: 	FLAT:z900_load_fp_int_dfp_ext_reg
	DD	01bH
	DD	045cH
_volmd	DD	0ffffffffH
	DDSymXIndex: 	FLAT:z900_load_and_test_dfp_long_reg
	DD	01bH
	DD	0314H
_volmd	DD	0ffffffffH
	DDSymXIndex: 	FLAT:z900_load_and_test_dfp_ext_reg
	DD	01bH
	DD	034bH
_volmd	DD	0ffffffffH
	DDSymXIndex: 	FLAT:z900_insert_biased_exponent_fix64_to_dfp_long_reg
	DD	01bH
	DD	0366H
_volmd	DD	0ffffffffH
	DDSymXIndex: 	FLAT:z900_insert_biased_exponent_fix64_to_dfp_ext_reg
	DD	01bH
	DD	03a6H
_volmd	DD	0ffffffffH
	DDSymXIndex: 	FLAT:z900_extract_significance_dfp_long_reg
	DD	01bH
	DD	0283H
_volmd	DD	0ffffffffH
	DDSymXIndex: 	FLAT:z900_extract_significance_dfp_ext_reg
	DD	01bH
	DD	02a9H
_volmd	DD	0ffffffffH
	DDSymXIndex: 	FLAT:z900_extract_biased_exponent_dfp_long_to_fix64_reg
	DD	01bH
	DD	0259H
_volmd	DD	0ffffffffH
	DDSymXIndex: 	FLAT:z900_extract_biased_exponent_dfp_ext_to_fix64_reg
	DD	01bH
	DD	027fH
_volmd	DD	0ffffffffH
	DDSymXIndex: 	FLAT:z900_divide_dfp_long_reg
	DD	01bH
	DD	02c3H
_volmd	DD	0ffffffffH
	DDSymXIndex: 	FLAT:z900_divide_dfp_ext_reg
	DD	01bH
	DD	0305H
_volmd	DD	0ffffffffH
	DDSymXIndex: 	FLAT:z900_convert_dfp_long_to_ubcd64_reg
	DD	01bH
	DD	02b6H
_volmd	DD	0ffffffffH
	DDSymXIndex: 	FLAT:z900_convert_dfp_ext_to_ubcd128_reg
	DD	01bH
	DD	0333H
_volmd	DD	0ffffffffH
	DDSymXIndex: 	FLAT:z900_convert_dfp_long_to_sbcd64_reg
	DD	01bH
	DD	02aeH
_volmd	DD	0ffffffffH
	DDSymXIndex: 	FLAT:z900_convert_dfp_ext_to_sbcd128_reg
	DD	01bH
	DD	032bH
_volmd	DD	0ffffffffH
	DDSymXIndex: 	FLAT:z900_convert_dfp_long_to_fix64_reg
	DD	01bH
	DD	0305H
_volmd	DD	0ffffffffH
	DDSymXIndex: 	FLAT:z900_convert_dfp_ext_to_fix64_reg
	DD	01bH
	DD	0331H
_volmd	DD	0ffffffffH
	DDSymXIndex: 	FLAT:z900_convert_ubcd64_to_dfp_long_reg
	DD	01bH
	DD	030aH
_volmd	DD	0ffffffffH
	DDSymXIndex: 	FLAT:z900_convert_ubcd128_to_dfp_ext_reg
	DD	01bH
	DD	0383H
_volmd	DD	0ffffffffH
	DDSymXIndex: 	FLAT:z900_convert_sbcd64_to_dfp_long_reg
	DD	01bH
	DD	026eH
_volmd	DD	0ffffffffH
	DDSymXIndex: 	FLAT:z900_convert_sbcd128_to_dfp_ext_reg
	DD	01bH
	DD	02e7H
_volmd	DD	0ffffffffH
	DDSymXIndex: 	FLAT:z900_convert_fix64_to_dfp_long_reg
	DD	01bH
	DD	0275H
_volmd	DD	0ffffffffH
	DDSymXIndex: 	FLAT:z900_convert_fix64_to_dfp_ext_reg
	DD	01bH
	DD	0257H
_volmd	DD	0ffffffffH
	DDSymXIndex: 	FLAT:z900_compare_exponent_dfp_long_reg
	DD	01bH
	DD	022cH
_volmd	DD	0ffffffffH
	DDSymXIndex: 	FLAT:z900_compare_exponent_dfp_ext_reg
	DD	01bH
	DD	025dH
_volmd	DD	0ffffffffH
	DDSymXIndex: 	FLAT:z900_compare_and_signal_dfp_long_reg
	DD	01bH
	DD	031cH
_volmd	DD	0ffffffffH
	DDSymXIndex: 	FLAT:z900_compare_and_signal_dfp_ext_reg
	DD	01bH
	DD	0353H
_volmd	DD	0ffffffffH
	DDSymXIndex: 	FLAT:z900_compare_dfp_long_reg
	DD	01bH
	DD	02fdH
_volmd	DD	0ffffffffH
	DDSymXIndex: 	FLAT:z900_compare_dfp_ext_reg
	DD	01bH
	DD	0337H
_volmd	DD	0ffffffffH
	DDSymXIndex: 	FLAT:z900_add_dfp_long_reg
	DD	01bH
	DD	0357H
_volmd	DD	0ffffffffH
	DDSymXIndex: 	FLAT:z900_add_dfp_ext_reg
	DD	01bH
	DD	0396H
_volmd	DD	0ffffffffH
	DDSymXIndex: 	FLAT:z900_convert_dfp_long_to_u64_reg
	DD	01bH
	DD	031cH
_volmd	DD	0ffffffffH
	DDSymXIndex: 	FLAT:z900_convert_dfp_ext_to_u64_reg
	DD	01bH
	DD	033fH
_volmd	DD	0ffffffffH
	DDSymXIndex: 	FLAT:z900_convert_dfp_long_to_u32_reg
	DD	01bH
	DD	0310H
_volmd	DD	0ffffffffH
	DDSymXIndex: 	FLAT:z900_convert_dfp_ext_to_u32_reg
	DD	01bH
	DD	033cH
_volmd	DD	0ffffffffH
	DDSymXIndex: 	FLAT:z900_convert_dfp_long_to_fix32_reg
	DD	01bH
	DD	0310H
_volmd	DD	0ffffffffH
	DDSymXIndex: 	FLAT:z900_convert_dfp_ext_to_fix32_reg
	DD	01bH
	DD	033cH
_volmd	DD	0ffffffffH
	DDSymXIndex: 	FLAT:z900_convert_u64_to_dfp_long_reg
	DD	01bH
	DD	0264H
_volmd	DD	0ffffffffH
	DDSymXIndex: 	FLAT:z900_convert_u64_to_dfp_ext_reg
	DD	01bH
	DD	0274H
_volmd	DD	0ffffffffH
	DDSymXIndex: 	FLAT:z900_convert_u32_to_dfp_long_reg
	DD	01bH
	DD	0261H
_volmd	DD	0ffffffffH
	DDSymXIndex: 	FLAT:z900_convert_u32_to_dfp_ext_reg
	DD	01bH
	DD	0271H
_volmd	DD	0ffffffffH
	DDSymXIndex: 	FLAT:z900_convert_fix32_to_dfp_long_reg
	DD	01bH
	DD	0261H
_volmd	DD	0ffffffffH
	DDSymXIndex: 	FLAT:z900_convert_fix32_to_dfp_ext_reg
	DD	01bH
	DD	0271H
_volmd	DD	0ffffffffH
	DDSymXIndex: 	FLAT:dfp_number_to_u64
	DD	01bH
	DD	034fH
_volmd	DD	0ffffffffH
	DDSymXIndex: 	FLAT:dfp_number_to_u32
	DD	01bH
	DD	0335H
_volmd	DD	0ffffffffH
	DDSymXIndex: 	FLAT:dfp_number_to_fix32
	DD	01bH
	DD	0487H
_volmd	DD	0ffffffffH
	DDSymXIndex: 	FLAT:dfp_number_from_u64
	DD	01dH
	DD	0b8H
_volmd	DD	0ffffffffH
	DDSymXIndex: 	FLAT:dfp_number_from_u32
	DD	01cH
	DD	0afH
_volmd	DD	0ffffffffH
	DDSymXIndex: 	FLAT:dfp_number_from_fix32
	DD	01cH
	DD	0113H
_volmd	DD	0ffffffffH
	DDSymXIndex: 	FLAT:dfp_test_data_class
	DD	01dH
	DD	011eH
_volmd	DD	0ffffffffH
	DDSymXIndex: 	FLAT:dfp_shift_coeff
	DD	021H
	DD	01dbH
_volmd	DD	0ffffffffH
	DDSymXIndex: 	FLAT:dfp_number_to_fix64
	DD	01bH
	DD	04b2H
_volmd	DD	0ffffffffH
	DDSymXIndex: 	FLAT:dfp_number_from_fix64
	DD	01dH
	DD	0124H
_volmd	DD	0ffffffffH
	DDSymXIndex: 	FLAT:s370_test_data_group_dfp_short
	DD	01bH
	DD	0205H
_volmd	DD	0ffffffffH
	DDSymXIndex: 	FLAT:s370_test_data_group_dfp_long
	DD	01bH
	DD	0205H
_volmd	DD	0ffffffffH
	DDSymXIndex: 	FLAT:s370_test_data_group_dfp_ext
	DD	01bH
	DD	022bH
_volmd	DD	0ffffffffH
	DDSymXIndex: 	FLAT:s370_test_data_class_dfp_short
	DD	01bH
	DD	01f2H
_volmd	DD	0ffffffffH
	DDSymXIndex: 	FLAT:s370_test_data_class_dfp_long
	DD	01bH
	DD	01f2H
_volmd	DD	0ffffffffH
	DDSymXIndex: 	FLAT:s370_test_data_class_dfp_ext
	DD	01bH
	DD	0218H
_volmd	DD	0ffffffffH
	DDSymXIndex: 	FLAT:s370_subtract_dfp_long_reg
	DD	01bH
	DD	02bbH
_volmd	DD	0ffffffffH
	DDSymXIndex: 	FLAT:s370_subtract_dfp_ext_reg
	DD	01bH
	DD	02faH
_volmd	DD	0ffffffffH
	DDSymXIndex: 	FLAT:s370_shift_coefficient_right_dfp_long
	DD	01bH
	DD	02cfH
_volmd	DD	0ffffffffH
	DDSymXIndex: 	FLAT:s370_shift_coefficient_right_dfp_ext
	DD	01bH
	DD	030cH
_volmd	DD	0ffffffffH
	DDSymXIndex: 	FLAT:s370_shift_coefficient_left_dfp_long
	DD	01bH
	DD	02cbH
_volmd	DD	0ffffffffH
	DDSymXIndex: 	FLAT:s370_shift_coefficient_left_dfp_ext
	DD	01bH
	DD	0308H
_volmd	DD	0ffffffffH
	DDSymXIndex: 	FLAT:s370_reround_dfp_long_reg
	DD	01bH
	DD	028cH
_volmd	DD	0ffffffffH
	DDSymXIndex: 	FLAT:s370_reround_dfp_ext_reg
	DD	01bH
	DD	02c9H
_volmd	DD	0ffffffffH
	DDSymXIndex: 	FLAT:s370_quantize_dfp_long_reg
	DD	01bH
	DD	0237H
_volmd	DD	0ffffffffH
	DDSymXIndex: 	FLAT:s370_quantize_dfp_ext_reg
	DD	01bH
	DD	0279H
_volmd	DD	0ffffffffH
	DDSymXIndex: 	FLAT:s370_multiply_dfp_long_reg
	DD	01bH
	DD	0227H
_volmd	DD	0ffffffffH
	DDSymXIndex: 	FLAT:s370_multiply_dfp_ext_reg
	DD	01bH
	DD	0269H
_volmd	DD	0ffffffffH
	DDSymXIndex: 	FLAT:s370_load_rounded_dfp_long_to_short_reg
	DD	01bH
	DD	0325H
_volmd	DD	0ffffffffH
	DDSymXIndex: 	FLAT:s370_load_rounded_dfp_ext_to_long_reg
	DD	01bH
	DD	035aH
_volmd	DD	0ffffffffH
	DDSymXIndex: 	FLAT:s370_load_lengthened_dfp_short_to_long_reg
	DD	01bH
	DD	02acH
_volmd	DD	0ffffffffH
	DDSymXIndex: 	FLAT:s370_load_lengthened_dfp_long_to_ext_reg
	DD	01bH
	DD	02d8H
_volmd	DD	0ffffffffH
	DDSymXIndex: 	FLAT:s370_load_fp_int_dfp_long_reg
	DD	01bH
	DD	039bH
_volmd	DD	0ffffffffH
	DDSymXIndex: 	FLAT:s370_load_fp_int_dfp_ext_reg
	DD	01bH
	DD	03c0H
_volmd	DD	0ffffffffH
	DDSymXIndex: 	FLAT:s370_load_and_test_dfp_long_reg
	DD	01bH
	DD	0278H
_volmd	DD	0ffffffffH
	DDSymXIndex: 	FLAT:s370_load_and_test_dfp_ext_reg
	DD	01bH
	DD	02afH
_volmd	DD	0ffffffffH
	DDSymXIndex: 	FLAT:s370_insert_biased_exponent_fix64_to_dfp_long_reg
	DD	01bH
	DD	02c9H
_volmd	DD	0ffffffffH
	DDSymXIndex: 	FLAT:s370_insert_biased_exponent_fix64_to_dfp_ext_reg
	DD	01bH
	DD	0309H
_volmd	DD	0ffffffffH
	DDSymXIndex: 	FLAT:s370_extract_significance_dfp_long_reg
	DD	01bH
	DD	01e5H
_volmd	DD	0ffffffffH
	DDSymXIndex: 	FLAT:s370_extract_significance_dfp_ext_reg
	DD	01bH
	DD	020bH
_volmd	DD	0ffffffffH
	DDSymXIndex: 	FLAT:s370_extract_biased_exponent_dfp_long_to_fix64_reg
	DD	01bH
	DD	01bbH
_volmd	DD	0ffffffffH
	DDSymXIndex: 	FLAT:s370_extract_biased_exponent_dfp_ext_to_fix64_reg
	DD	01bH
	DD	01e1H
_volmd	DD	0ffffffffH
	DDSymXIndex: 	FLAT:s370_divide_dfp_long_reg
	DD	01bH
	DD	0227H
_volmd	DD	0ffffffffH
	DDSymXIndex: 	FLAT:s370_divide_dfp_ext_reg
	DD	01bH
	DD	0269H
_volmd	DD	0ffffffffH
	DDSymXIndex: 	FLAT:s370_convert_dfp_long_to_ubcd64_reg
	DD	01bH
	DD	021aH
_volmd	DD	0ffffffffH
	DDSymXIndex: 	FLAT:s370_convert_dfp_ext_to_ubcd128_reg
	DD	01bH
	DD	0297H
_volmd	DD	0ffffffffH
	DDSymXIndex: 	FLAT:s370_convert_dfp_long_to_sbcd64_reg
	DD	01bH
	DD	0212H
_volmd	DD	0ffffffffH
	DDSymXIndex: 	FLAT:s370_convert_dfp_ext_to_sbcd128_reg
	DD	01bH
	DD	028fH
_volmd	DD	0ffffffffH
	DDSymXIndex: 	FLAT:s370_convert_dfp_long_to_fix64_reg
	DD	01bH
	DD	0269H
_volmd	DD	0ffffffffH
	DDSymXIndex: 	FLAT:s370_convert_dfp_ext_to_fix64_reg
	DD	01bH
	DD	0295H
_volmd	DD	0ffffffffH
	DDSymXIndex: 	FLAT:s370_convert_ubcd64_to_dfp_long_reg
	DD	01bH
	DD	026eH
_volmd	DD	0ffffffffH
	DDSymXIndex: 	FLAT:s370_convert_ubcd128_to_dfp_ext_reg
	DD	01bH
	DD	02e7H
_volmd	DD	0ffffffffH
	DDSymXIndex: 	FLAT:s370_convert_sbcd64_to_dfp_long_reg
	DD	01bH
	DD	01d2H
_volmd	DD	0ffffffffH
	DDSymXIndex: 	FLAT:s370_convert_sbcd128_to_dfp_ext_reg
	DD	01bH
	DD	024bH
_volmd	DD	0ffffffffH
	DDSymXIndex: 	FLAT:s370_convert_fix64_to_dfp_long_reg
	DD	01bH
	DD	01d9H
_volmd	DD	0ffffffffH
	DDSymXIndex: 	FLAT:s370_convert_fix64_to_dfp_ext_reg
	DD	01bH
	DD	01bbH
_volmd	DD	0ffffffffH
	DDSymXIndex: 	FLAT:s370_compare_exponent_dfp_long_reg
	DD	01bH
	DD	0190H
_volmd	DD	0ffffffffH
	DDSymXIndex: 	FLAT:s370_compare_exponent_dfp_ext_reg
	DD	01bH
	DD	01c1H
_volmd	DD	0ffffffffH
	DDSymXIndex: 	FLAT:s370_compare_and_signal_dfp_long_reg
	DD	01bH
	DD	0280H
_volmd	DD	0ffffffffH
	DDSymXIndex: 	FLAT:s370_compare_and_signal_dfp_ext_reg
	DD	01bH
	DD	02b7H
_volmd	DD	0ffffffffH
	DDSymXIndex: 	FLAT:s370_compare_dfp_long_reg
	DD	01bH
	DD	0261H
_volmd	DD	0ffffffffH
	DDSymXIndex: 	FLAT:s370_compare_dfp_ext_reg
	DD	01bH
	DD	029bH
_volmd	DD	0ffffffffH
	DDSymXIndex: 	FLAT:s370_add_dfp_long_reg
	DD	01bH
	DD	02bbH
_volmd	DD	0ffffffffH
	DDSymXIndex: 	FLAT:s370_add_dfp_ext_reg
	DD	01bH
	DD	02faH
_volmd	DD	0ffffffffH
	DDSymXIndex: 	FLAT:s370_convert_dfp_long_to_u64_reg
	DD	01bH
	DD	0280H
_volmd	DD	0ffffffffH
	DDSymXIndex: 	FLAT:s370_convert_dfp_ext_to_u64_reg
	DD	01bH
	DD	02a3H
_volmd	DD	0ffffffffH
	DDSymXIndex: 	FLAT:s370_convert_dfp_long_to_u32_reg
	DD	01bH
	DD	0274H
_volmd	DD	0ffffffffH
	DDSymXIndex: 	FLAT:s370_convert_dfp_ext_to_u32_reg
	DD	01bH
	DD	02a0H
_volmd	DD	0ffffffffH
	DDSymXIndex: 	FLAT:s370_convert_dfp_long_to_fix32_reg
	DD	01bH
	DD	0274H
_volmd	DD	0ffffffffH
	DDSymXIndex: 	FLAT:s370_convert_dfp_ext_to_fix32_reg
	DD	01bH
	DD	02a0H
_volmd	DD	0ffffffffH
	DDSymXIndex: 	FLAT:s370_convert_u64_to_dfp_long_reg
	DD	01bH
	DD	01c8H
_volmd	DD	0ffffffffH
	DDSymXIndex: 	FLAT:s370_convert_u64_to_dfp_ext_reg
	DD	01bH
	DD	01d8H
_volmd	DD	0ffffffffH
	DDSymXIndex: 	FLAT:s370_convert_u32_to_dfp_long_reg
	DD	01bH
	DD	01c5H
_volmd	DD	0ffffffffH
	DDSymXIndex: 	FLAT:s370_convert_u32_to_dfp_ext_reg
	DD	01bH
	DD	01d5H
_volmd	DD	0ffffffffH
	DDSymXIndex: 	FLAT:s370_convert_fix32_to_dfp_long_reg
	DD	01bH
	DD	01c5H
_volmd	DD	0ffffffffH
	DDSymXIndex: 	FLAT:s370_convert_fix32_to_dfp_ext_reg
	DD	01bH
	DD	01d5H
voltbl	ENDS
xdata	SEGMENT
$unwind$s370_convert_fix32_to_dfp_ext_reg DD 022319H
	DD	0150111H
	DD	imagerel __GSHandlerCheck
	DD	090H
$unwind$s370_convert_fix32_to_dfp_long_reg DD 022319H
	DD	0150111H
	DD	imagerel __GSHandlerCheck
	DD	090H
$unwind$s370_convert_u32_to_dfp_ext_reg DD 022319H
	DD	0150111H
	DD	imagerel __GSHandlerCheck
	DD	090H
$unwind$s370_convert_u32_to_dfp_long_reg DD 022319H
	DD	0150111H
	DD	imagerel __GSHandlerCheck
	DD	090H
$unwind$s370_convert_u64_to_dfp_ext_reg DD 022319H
	DD	0150111H
	DD	imagerel __GSHandlerCheck
	DD	098H
$unwind$s370_convert_u64_to_dfp_long_reg DD 022319H
	DD	0150111H
	DD	imagerel __GSHandlerCheck
	DD	090H
$unwind$s370_convert_dfp_ext_to_fix32_reg DD 022319H
	DD	0170111H
	DD	imagerel __GSHandlerCheck
	DD	0a0H
$unwind$s370_convert_dfp_long_to_fix32_reg DD 022319H
	DD	0150111H
	DD	imagerel __GSHandlerCheck
	DD	098H
$unwind$s370_convert_dfp_ext_to_u32_reg DD 022319H
	DD	0170111H
	DD	imagerel __GSHandlerCheck
	DD	0a0H
$unwind$s370_convert_dfp_long_to_u32_reg DD 022319H
	DD	0150111H
	DD	imagerel __GSHandlerCheck
	DD	098H
$unwind$s370_convert_dfp_ext_to_u64_reg DD 022319H
	DD	0170111H
	DD	imagerel __GSHandlerCheck
	DD	0a8H
$unwind$s370_convert_dfp_long_to_u64_reg DD 022319H
	DD	0170111H
	DD	imagerel __GSHandlerCheck
	DD	0a0H
$unwind$s370_set_dfp_rounding_mode DD 010e01H
	DD	0620eH
$unwind$s370_load_fpr_from_gr_long_reg DD 010e01H
	DD	0620eH
$unwind$s370_load_gr_from_fpr_long_reg DD 010e01H
	DD	0620eH
$unwind$s370_copy_sign_fpr_long_reg DD 010e01H
	DD	0820eH
$unwind$s370_load_complement_fpr_long_reg DD 010e01H
	DD	0820eH
$unwind$s370_load_negative_fpr_long_reg DD 010e01H
	DD	0820eH
$unwind$s370_load_positive_fpr_long_reg DD 010e01H
	DD	0820eH
$unwind$s370_load_fpc_and_signal DD 010e01H
	DD	0820eH
$unwind$s370_set_fpc_and_signal DD 010e01H
	DD	0820eH
$unwind$s370_add_dfp_ext_reg DD 022319H
	DD	0230111H
	DD	imagerel __GSHandlerCheck
	DD	0108H
$unwind$s370_add_dfp_long_reg DD 022319H
	DD	0210111H
	DD	imagerel __GSHandlerCheck
	DD	0f0H
$unwind$s370_compare_dfp_ext_reg DD 022319H
	DD	0210111H
	DD	imagerel __GSHandlerCheck
	DD	0f8H
$unwind$s370_compare_dfp_long_reg DD 022319H
	DD	01f0111H
	DD	imagerel __GSHandlerCheck
	DD	0e8H
$unwind$s370_compare_and_signal_dfp_ext_reg DD 022319H
	DD	0210111H
	DD	imagerel __GSHandlerCheck
	DD	0f8H
$unwind$s370_compare_and_signal_dfp_long_reg DD 022319H
	DD	01f0111H
	DD	imagerel __GSHandlerCheck
	DD	0e8H
$unwind$s370_compare_exponent_dfp_ext_reg DD 022319H
	DD	01b0111H
	DD	imagerel __GSHandlerCheck
	DD	0c0H
$unwind$s370_compare_exponent_dfp_long_reg DD 022319H
	DD	0190111H
	DD	imagerel __GSHandlerCheck
	DD	0b0H
$unwind$s370_convert_fix64_to_dfp_ext_reg DD 022319H
	DD	0150111H
	DD	imagerel __GSHandlerCheck
	DD	090H
$unwind$s370_convert_fix64_to_dfp_long_reg DD 022319H
	DD	0130111H
	DD	imagerel __GSHandlerCheck
	DD	088H
$unwind$s370_convert_sbcd128_to_dfp_ext_reg DD 022319H
	DD	0170111H
	DD	imagerel __GSHandlerCheck
	DD	0a0H
$unwind$s370_convert_sbcd64_to_dfp_long_reg DD 022319H
	DD	0150111H
	DD	imagerel __GSHandlerCheck
	DD	090H
$unwind$s370_convert_ubcd128_to_dfp_ext_reg DD 022319H
	DD	0190111H
	DD	imagerel __GSHandlerCheck
	DD	0b8H
$unwind$s370_convert_ubcd64_to_dfp_long_reg DD 022319H
	DD	0170111H
	DD	imagerel __GSHandlerCheck
	DD	0a8H
$unwind$s370_convert_dfp_ext_to_fix64_reg DD 022319H
	DD	0170111H
	DD	imagerel __GSHandlerCheck
	DD	0a0H
$unwind$s370_convert_dfp_long_to_fix64_reg DD 022319H
	DD	0150111H
	DD	imagerel __GSHandlerCheck
	DD	098H
$unwind$s370_convert_dfp_ext_to_sbcd128_reg DD 022319H
	DD	0170111H
	DD	imagerel __GSHandlerCheck
	DD	0a8H
$unwind$s370_convert_dfp_long_to_sbcd64_reg DD 022319H
	DD	0150111H
	DD	imagerel __GSHandlerCheck
	DD	098H
$unwind$s370_convert_dfp_ext_to_ubcd128_reg DD 022319H
	DD	0170111H
	DD	imagerel __GSHandlerCheck
	DD	0a8H
$unwind$s370_convert_dfp_long_to_ubcd64_reg DD 022319H
	DD	0150111H
	DD	imagerel __GSHandlerCheck
	DD	098H
$unwind$s370_divide_dfp_ext_reg DD 022319H
	DD	0230111H
	DD	imagerel __GSHandlerCheck
	DD	0100H
$unwind$s370_divide_dfp_long_reg DD 022319H
	DD	01f0111H
	DD	imagerel __GSHandlerCheck
	DD	0e8H
$unwind$s370_extract_biased_exponent_dfp_ext_to_fix64_reg DD 022319H
	DD	0150111H
	DD	imagerel __GSHandlerCheck
	DD	090H
$unwind$s370_extract_biased_exponent_dfp_long_to_fix64_reg DD 022319H
	DD	0130111H
	DD	imagerel __GSHandlerCheck
	DD	088H
$unwind$s370_extract_significance_dfp_ext_reg DD 022319H
	DD	0150111H
	DD	imagerel __GSHandlerCheck
	DD	090H
$unwind$s370_extract_significance_dfp_long_reg DD 022319H
	DD	0130111H
	DD	imagerel __GSHandlerCheck
	DD	088H
$unwind$s370_insert_biased_exponent_fix64_to_dfp_ext_reg DD 022319H
	DD	0170111H
	DD	imagerel __GSHandlerCheck
	DD	0a8H
$unwind$s370_insert_biased_exponent_fix64_to_dfp_long_reg DD 022319H
	DD	0150111H
	DD	imagerel __GSHandlerCheck
	DD	098H
$unwind$s370_load_and_test_dfp_ext_reg DD 022319H
	DD	0170111H
	DD	imagerel __GSHandlerCheck
	DD	0a8H
$unwind$s370_load_and_test_dfp_long_reg DD 022319H
	DD	0150111H
	DD	imagerel __GSHandlerCheck
	DD	098H
$unwind$s370_load_fp_int_dfp_ext_reg DD 022319H
	DD	0230111H
	DD	imagerel __GSHandlerCheck
	DD	0108H
$unwind$s370_load_fp_int_dfp_long_reg DD 022319H
	DD	0210111H
	DD	imagerel __GSHandlerCheck
	DD	0f8H
$unwind$s370_load_lengthened_dfp_long_to_ext_reg DD 022319H
	DD	01b0111H
	DD	imagerel __GSHandlerCheck
	DD	0c0H
$unwind$s370_load_lengthened_dfp_short_to_long_reg DD 022319H
	DD	0190111H
	DD	imagerel __GSHandlerCheck
	DD	0b0H
$unwind$s370_load_rounded_dfp_ext_to_long_reg DD 022319H
	DD	01f0111H
	DD	imagerel __GSHandlerCheck
	DD	0e0H
$unwind$s370_load_rounded_dfp_long_to_short_reg DD 022319H
	DD	01b0111H
	DD	imagerel __GSHandlerCheck
	DD	0c8H
$unwind$s370_multiply_dfp_ext_reg DD 022319H
	DD	0230111H
	DD	imagerel __GSHandlerCheck
	DD	0100H
$unwind$s370_multiply_dfp_long_reg DD 022319H
	DD	01f0111H
	DD	imagerel __GSHandlerCheck
	DD	0e8H
$unwind$s370_quantize_dfp_ext_reg DD 022319H
	DD	0230111H
	DD	imagerel __GSHandlerCheck
	DD	0100H
$unwind$s370_quantize_dfp_long_reg DD 022319H
	DD	01f0111H
	DD	imagerel __GSHandlerCheck
	DD	0e8H
$unwind$s370_reround_dfp_ext_reg DD 022319H
	DD	01d0111H
	DD	imagerel __GSHandlerCheck
	DD	0d0H
$unwind$s370_reround_dfp_long_reg DD 022319H
	DD	01b0111H
	DD	imagerel __GSHandlerCheck
	DD	0c0H
$unwind$s370_shift_coefficient_left_dfp_ext DD 022319H
	DD	01d0111H
	DD	imagerel __GSHandlerCheck
	DD	0d0H
$unwind$s370_shift_coefficient_left_dfp_long DD 022319H
	DD	01b0111H
	DD	imagerel __GSHandlerCheck
	DD	0c0H
$unwind$s370_shift_coefficient_right_dfp_ext DD 022319H
	DD	01d0111H
	DD	imagerel __GSHandlerCheck
	DD	0d0H
$unwind$s370_shift_coefficient_right_dfp_long DD 022319H
	DD	01b0111H
	DD	imagerel __GSHandlerCheck
	DD	0c0H
$unwind$s370_subtract_dfp_ext_reg DD 022319H
	DD	0230111H
	DD	imagerel __GSHandlerCheck
	DD	0108H
$unwind$s370_subtract_dfp_long_reg DD 022319H
	DD	0210111H
	DD	imagerel __GSHandlerCheck
	DD	0f0H
$unwind$s370_test_data_class_dfp_ext DD 022319H
	DD	0150111H
	DD	imagerel __GSHandlerCheck
	DD	090H
$unwind$s370_test_data_class_dfp_long DD 022319H
	DD	0130111H
	DD	imagerel __GSHandlerCheck
	DD	088H
$unwind$s370_test_data_class_dfp_short DD 022319H
	DD	0130111H
	DD	imagerel __GSHandlerCheck
	DD	088H
$unwind$s370_test_data_group_dfp_ext DD 022319H
	DD	0150111H
	DD	imagerel __GSHandlerCheck
	DD	098H
$unwind$s370_test_data_group_dfp_long DD 022319H
	DD	0150111H
	DD	imagerel __GSHandlerCheck
	DD	090H
$unwind$s370_test_data_group_dfp_short DD 022319H
	DD	0130111H
	DD	imagerel __GSHandlerCheck
	DD	088H
$unwind$fpc_signal_check DD 010c01H
	DD	0420cH
$unwind$dfp32_extract_lmd DD 010901H
	DD	02209H
$unwind$dfp64_extract_lmd DD 010901H
	DD	02209H
$unwind$dfp128_extract_lmd DD 010901H
	DD	02209H
$unwind$dfp_compare_exponent DD 010e01H
	DD	0220eH
$unwind$dfp_number_from_fix64 DD 012219H
	DD	0c213H
	DD	imagerel __GSHandlerCheck
	DD	050H
$unwind$dfp_number_to_fix64 DD 022319H
	DD	01f0111H
	DD	imagerel __GSHandlerCheck
	DD	0e0H
$unwind$dfp_shift_coeff DD 032919H
	DD	01c0117H
	DD	07010H
	DD	imagerel __GSHandlerCheck
	DD	0d0H
$unwind$dfp_test_data_class DD 012219H
	DD	0c213H
	DD	imagerel __GSHandlerCheck
	DD	050H
$unwind$dfp_test_data_group DD 011801H
	DD	04218H
$unwind$dfp_number_from_fix32 DD 012119H
	DD	0c212H
	DD	imagerel __GSHandlerCheck
	DD	050H
$unwind$dfp_number_from_u32 DD 012119H
	DD	0c212H
	DD	imagerel __GSHandlerCheck
	DD	050H
$unwind$dfp_number_from_u64 DD 012219H
	DD	0c213H
	DD	imagerel __GSHandlerCheck
	DD	050H
$unwind$dfp_number_to_fix32 DD 022319H
	DD	01d0111H
	DD	imagerel __GSHandlerCheck
	DD	0d8H
$unwind$dfp_number_to_u32 DD 022319H
	DD	01d0111H
	DD	imagerel __GSHandlerCheck
	DD	0d0H
$unwind$dfp_number_to_u64 DD 022319H
	DD	01d0111H
	DD	imagerel __GSHandlerCheck
	DD	0d8H
$unwind$s370_dfp_rounding_mode DD 011201H
	DD	02212H
$unwind$s370_dfp_reg_to_decimal32 DD 011201H
	DD	02212H
$unwind$s370_dfp_reg_from_decimal32 DD 011201H
	DD	02212H
$unwind$s370_dfp_reg_to_decimal64 DD 011201H
	DD	02212H
$unwind$s370_dfp_reg_from_decimal64 DD 011201H
	DD	02212H
$unwind$s370_dfp_reg_to_decimal128 DD 011201H
	DD	02212H
$unwind$s370_dfp_reg_from_decimal128 DD 011201H
	DD	02212H
$unwind$s370_dfp_status_check DD 010e01H
	DD	0820eH
$unwind$z900_convert_fix32_to_dfp_ext_reg DD 022319H
	DD	0150111H
	DD	imagerel __GSHandlerCheck
	DD	090H
$unwind$z900_convert_fix32_to_dfp_long_reg DD 022319H
	DD	0150111H
	DD	imagerel __GSHandlerCheck
	DD	090H
$unwind$z900_convert_u32_to_dfp_ext_reg DD 022319H
	DD	0150111H
	DD	imagerel __GSHandlerCheck
	DD	090H
$unwind$z900_convert_u32_to_dfp_long_reg DD 022319H
	DD	0150111H
	DD	imagerel __GSHandlerCheck
	DD	090H
$unwind$z900_convert_u64_to_dfp_ext_reg DD 022319H
	DD	0150111H
	DD	imagerel __GSHandlerCheck
	DD	098H
$unwind$z900_convert_u64_to_dfp_long_reg DD 022319H
	DD	0150111H
	DD	imagerel __GSHandlerCheck
	DD	090H
$unwind$z900_convert_dfp_ext_to_fix32_reg DD 022319H
	DD	0170111H
	DD	imagerel __GSHandlerCheck
	DD	0a0H
$unwind$z900_convert_dfp_long_to_fix32_reg DD 022319H
	DD	0150111H
	DD	imagerel __GSHandlerCheck
	DD	098H
$unwind$z900_convert_dfp_ext_to_u32_reg DD 022319H
	DD	0170111H
	DD	imagerel __GSHandlerCheck
	DD	0a0H
$unwind$z900_convert_dfp_long_to_u32_reg DD 022319H
	DD	0150111H
	DD	imagerel __GSHandlerCheck
	DD	098H
$unwind$z900_convert_dfp_ext_to_u64_reg DD 022319H
	DD	0170111H
	DD	imagerel __GSHandlerCheck
	DD	0a8H
$unwind$z900_convert_dfp_long_to_u64_reg DD 022319H
	DD	0170111H
	DD	imagerel __GSHandlerCheck
	DD	0a0H
$unwind$z900_set_dfp_rounding_mode DD 010e01H
	DD	0620eH
$unwind$z900_load_fpr_from_gr_long_reg DD 010e01H
	DD	0620eH
$unwind$z900_load_gr_from_fpr_long_reg DD 010e01H
	DD	0620eH
$unwind$z900_copy_sign_fpr_long_reg DD 010e01H
	DD	0820eH
$unwind$z900_load_complement_fpr_long_reg DD 010e01H
	DD	0820eH
$unwind$z900_load_negative_fpr_long_reg DD 010e01H
	DD	0820eH
$unwind$z900_load_positive_fpr_long_reg DD 010e01H
	DD	0820eH
$unwind$z900_load_fpc_and_signal DD 010e01H
	DD	0820eH
$unwind$z900_set_fpc_and_signal DD 010e01H
	DD	0820eH
$unwind$z900_add_dfp_ext_reg DD 022319H
	DD	0230111H
	DD	imagerel __GSHandlerCheck
	DD	0108H
$unwind$z900_add_dfp_long_reg DD 022319H
	DD	0210111H
	DD	imagerel __GSHandlerCheck
	DD	0f0H
$unwind$z900_compare_dfp_ext_reg DD 022319H
	DD	0210111H
	DD	imagerel __GSHandlerCheck
	DD	0f8H
$unwind$z900_compare_dfp_long_reg DD 022319H
	DD	01f0111H
	DD	imagerel __GSHandlerCheck
	DD	0e8H
$unwind$z900_compare_and_signal_dfp_ext_reg DD 022319H
	DD	0210111H
	DD	imagerel __GSHandlerCheck
	DD	0f8H
$unwind$z900_compare_and_signal_dfp_long_reg DD 022319H
	DD	01f0111H
	DD	imagerel __GSHandlerCheck
	DD	0e8H
$unwind$z900_compare_exponent_dfp_ext_reg DD 022319H
	DD	01b0111H
	DD	imagerel __GSHandlerCheck
	DD	0c0H
$unwind$z900_compare_exponent_dfp_long_reg DD 022319H
	DD	0190111H
	DD	imagerel __GSHandlerCheck
	DD	0b0H
$unwind$z900_convert_fix64_to_dfp_ext_reg DD 022319H
	DD	0150111H
	DD	imagerel __GSHandlerCheck
	DD	090H
$unwind$z900_convert_fix64_to_dfp_long_reg DD 022319H
	DD	0130111H
	DD	imagerel __GSHandlerCheck
	DD	088H
$unwind$z900_convert_sbcd128_to_dfp_ext_reg DD 022319H
	DD	0170111H
	DD	imagerel __GSHandlerCheck
	DD	0a0H
$unwind$z900_convert_sbcd64_to_dfp_long_reg DD 022319H
	DD	0150111H
	DD	imagerel __GSHandlerCheck
	DD	090H
$unwind$z900_convert_ubcd128_to_dfp_ext_reg DD 022319H
	DD	0190111H
	DD	imagerel __GSHandlerCheck
	DD	0b8H
$unwind$z900_convert_ubcd64_to_dfp_long_reg DD 022319H
	DD	0170111H
	DD	imagerel __GSHandlerCheck
	DD	0a8H
$unwind$z900_convert_dfp_ext_to_fix64_reg DD 022319H
	DD	0170111H
	DD	imagerel __GSHandlerCheck
	DD	0a0H
$unwind$z900_convert_dfp_long_to_fix64_reg DD 022319H
	DD	0150111H
	DD	imagerel __GSHandlerCheck
	DD	098H
$unwind$z900_convert_dfp_ext_to_sbcd128_reg DD 022319H
	DD	0170111H
	DD	imagerel __GSHandlerCheck
	DD	0a8H
$unwind$z900_convert_dfp_long_to_sbcd64_reg DD 022319H
	DD	0150111H
	DD	imagerel __GSHandlerCheck
	DD	098H
$unwind$z900_convert_dfp_ext_to_ubcd128_reg DD 022319H
	DD	0170111H
	DD	imagerel __GSHandlerCheck
	DD	0a8H
$unwind$z900_convert_dfp_long_to_ubcd64_reg DD 022319H
	DD	0150111H
	DD	imagerel __GSHandlerCheck
	DD	098H
$unwind$z900_divide_dfp_ext_reg DD 022319H
	DD	0230111H
	DD	imagerel __GSHandlerCheck
	DD	0100H
$unwind$z900_divide_dfp_long_reg DD 022319H
	DD	01f0111H
	DD	imagerel __GSHandlerCheck
	DD	0e8H
$unwind$z900_extract_biased_exponent_dfp_ext_to_fix64_reg DD 022319H
	DD	0150111H
	DD	imagerel __GSHandlerCheck
	DD	090H
$unwind$z900_extract_biased_exponent_dfp_long_to_fix64_reg DD 022319H
	DD	0130111H
	DD	imagerel __GSHandlerCheck
	DD	088H
$unwind$z900_extract_significance_dfp_ext_reg DD 022319H
	DD	0150111H
	DD	imagerel __GSHandlerCheck
	DD	090H
$unwind$z900_extract_significance_dfp_long_reg DD 022319H
	DD	0130111H
	DD	imagerel __GSHandlerCheck
	DD	088H
$unwind$z900_insert_biased_exponent_fix64_to_dfp_ext_reg DD 022319H
	DD	0170111H
	DD	imagerel __GSHandlerCheck
	DD	0a8H
$unwind$z900_insert_biased_exponent_fix64_to_dfp_long_reg DD 022319H
	DD	0150111H
	DD	imagerel __GSHandlerCheck
	DD	098H
$unwind$z900_load_and_test_dfp_ext_reg DD 022319H
	DD	0170111H
	DD	imagerel __GSHandlerCheck
	DD	0a8H
$unwind$z900_load_and_test_dfp_long_reg DD 022319H
	DD	0150111H
	DD	imagerel __GSHandlerCheck
	DD	098H
$unwind$z900_load_fp_int_dfp_ext_reg DD 022319H
	DD	0230111H
	DD	imagerel __GSHandlerCheck
	DD	0108H
$unwind$z900_load_fp_int_dfp_long_reg DD 022319H
	DD	0210111H
	DD	imagerel __GSHandlerCheck
	DD	0f8H
$unwind$z900_load_lengthened_dfp_long_to_ext_reg DD 022319H
	DD	01b0111H
	DD	imagerel __GSHandlerCheck
	DD	0c0H
$unwind$z900_load_lengthened_dfp_short_to_long_reg DD 022319H
	DD	0190111H
	DD	imagerel __GSHandlerCheck
	DD	0b0H
$unwind$z900_load_rounded_dfp_ext_to_long_reg DD 022319H
	DD	01f0111H
	DD	imagerel __GSHandlerCheck
	DD	0e0H
$unwind$z900_load_rounded_dfp_long_to_short_reg DD 022319H
	DD	01b0111H
	DD	imagerel __GSHandlerCheck
	DD	0c8H
$unwind$z900_multiply_dfp_ext_reg DD 022319H
	DD	0230111H
	DD	imagerel __GSHandlerCheck
	DD	0100H
$unwind$z900_multiply_dfp_long_reg DD 022319H
	DD	01f0111H
	DD	imagerel __GSHandlerCheck
	DD	0e8H
$unwind$z900_quantize_dfp_ext_reg DD 022319H
	DD	0230111H
	DD	imagerel __GSHandlerCheck
	DD	0100H
$unwind$z900_quantize_dfp_long_reg DD 022319H
	DD	01f0111H
	DD	imagerel __GSHandlerCheck
	DD	0e8H
$unwind$z900_reround_dfp_ext_reg DD 022319H
	DD	01d0111H
	DD	imagerel __GSHandlerCheck
	DD	0d0H
$unwind$z900_reround_dfp_long_reg DD 022319H
	DD	01b0111H
	DD	imagerel __GSHandlerCheck
	DD	0c0H
$unwind$z900_shift_coefficient_left_dfp_ext DD 022319H
	DD	01d0111H
	DD	imagerel __GSHandlerCheck
	DD	0d8H
$unwind$z900_shift_coefficient_left_dfp_long DD 022319H
	DD	01b0111H
	DD	imagerel __GSHandlerCheck
	DD	0c8H
$unwind$z900_shift_coefficient_right_dfp_ext DD 022319H
	DD	01d0111H
	DD	imagerel __GSHandlerCheck
	DD	0d8H
$unwind$z900_shift_coefficient_right_dfp_long DD 022319H
	DD	01b0111H
	DD	imagerel __GSHandlerCheck
	DD	0c8H
$unwind$z900_subtract_dfp_ext_reg DD 022319H
	DD	0230111H
	DD	imagerel __GSHandlerCheck
	DD	0108H
$unwind$z900_subtract_dfp_long_reg DD 022319H
	DD	0210111H
	DD	imagerel __GSHandlerCheck
	DD	0f0H
$unwind$z900_test_data_class_dfp_ext DD 022319H
	DD	0150111H
	DD	imagerel __GSHandlerCheck
	DD	098H
$unwind$z900_test_data_class_dfp_long DD 022319H
	DD	0150111H
	DD	imagerel __GSHandlerCheck
	DD	090H
$unwind$z900_test_data_class_dfp_short DD 022319H
	DD	0150111H
	DD	imagerel __GSHandlerCheck
	DD	090H
$unwind$z900_test_data_group_dfp_ext DD 022319H
	DD	0170111H
	DD	imagerel __GSHandlerCheck
	DD	0a0H
$unwind$z900_test_data_group_dfp_long DD 022319H
	DD	0150111H
	DD	imagerel __GSHandlerCheck
	DD	098H
$unwind$z900_test_data_group_dfp_short DD 022319H
	DD	0150111H
	DD	imagerel __GSHandlerCheck
	DD	090H
$unwind$z900_convert_zoned_to_dfp_ext DD 022319H
	DD	01d0111H
	DD	imagerel __GSHandlerCheck
	DD	0d0H
$unwind$z900_convert_zoned_to_dfp_long DD 022319H
	DD	0190111H
	DD	imagerel __GSHandlerCheck
	DD	0b8H
$unwind$z900_convert_dfp_ext_to_zoned DD 022319H
	DD	0210111H
	DD	imagerel __GSHandlerCheck
	DD	0f8H
$unwind$z900_convert_dfp_long_to_zoned DD 022319H
	DD	01f0111H
	DD	imagerel __GSHandlerCheck
	DD	0e0H
$unwind$z900_convert_packed_to_dfp_ext DD 022319H
	DD	01b0111H
	DD	imagerel __GSHandlerCheck
	DD	0c0H
$unwind$z900_convert_packed_to_dfp_long DD 022319H
	DD	0190111H
	DD	imagerel __GSHandlerCheck
	DD	0b8H
$unwind$z900_convert_dfp_ext_to_packed DD 022319H
	DD	01f0111H
	DD	imagerel __GSHandlerCheck
	DD	0e8H
$unwind$z900_convert_dfp_long_to_packed DD 022319H
	DD	01f0111H
	DD	imagerel __GSHandlerCheck
	DD	0e0H
$unwind$dfp_number_from_zoned DD 012719H
	DD	0e218H
	DD	imagerel __GSHandlerCheck
	DD	068H
$unwind$dfp_number_to_zoned DD 022d19H
	DD	01d011bH
	DD	imagerel __GSHandlerCheck
	DD	0d0H
$unwind$dfp_number_from_packed DD 022a19H
	DD	011011bH
	DD	imagerel __GSHandlerCheck
	DD	070H
$unwind$dfp_number_to_packed DD 022d19H
	DD	01f011bH
	DD	imagerel __GSHandlerCheck
	DD	0e0H
$unwind$z900_dfp_rounding_mode DD 011201H
	DD	02212H
$unwind$z900_dfp_reg_to_decimal32 DD 011201H
	DD	02212H
$unwind$z900_dfp_reg_from_decimal32 DD 011201H
	DD	02212H
$unwind$z900_dfp_reg_to_decimal64 DD 011201H
	DD	02212H
$unwind$z900_dfp_reg_from_decimal64 DD 011201H
	DD	02212H
$unwind$z900_dfp_reg_to_decimal128 DD 011201H
	DD	02212H
$unwind$z900_dfp_reg_from_decimal128 DD 011201H
	DD	02212H
$unwind$z900_dfp_status_check DD 010e01H
	DD	0820eH
xdata	ENDS
; Function compile flags: /Odtp
; File C:\papa\MyGit\hyperion-zvector\dfp.c
_TEXT	SEGMENT
dxc$ = 32
suppress$ = 36
tv128 = 40
tv130 = 44
tv153 = 48
tv161 = 52
tv175 = 56
pset$ = 80
regs$ = 88
z900_dfp_status_check PROC

; 1858 : {

  00000	48 89 54 24 10	 mov	 QWORD PTR [rsp+16], rdx
  00005	48 89 4c 24 08	 mov	 QWORD PTR [rsp+8], rcx
  0000a	48 83 ec 48	 sub	 rsp, 72			; 00000048H

; 1859 : BYTE    dxc = 0;                        /* Data exception code       */

  0000e	c6 44 24 20 00	 mov	 BYTE PTR dxc$[rsp], 0

; 1860 : int     suppress = 0;                   /* 1=suppress, 0=complete    */

  00013	c7 44 24 24 00
	00 00 00	 mov	 DWORD PTR suppress$[rsp], 0

; 1861 : 
; 1862 :     if (pset->status & DEC_IEEE_854_Invalid_operation)

  0001b	48 8b 44 24 50	 mov	 rax, QWORD PTR pset$[rsp]
  00020	8b 40 14	 mov	 eax, DWORD PTR [rax+20]
  00023	25 dd 00 00 00	 and	 eax, 221		; 000000ddH
  00028	85 c0		 test	 eax, eax
  0002a	74 42		 je	 SHORT $LN2@z900_dfp_s

; 1863 :     {
; 1864 :         /* An IEEE-invalid-operation condition was recognized */
; 1865 :         if ((regs->fpc & FPC_MASK_IMI) == 0)

  0002c	48 8b 44 24 58	 mov	 rax, QWORD PTR regs$[rsp]
  00031	8b 80 c0 03 00
	00		 mov	 eax, DWORD PTR [rax+960]
  00037	25 00 00 00 80	 and	 eax, -2147483648	; 80000000H
  0003c	85 c0		 test	 eax, eax
  0003e	75 1c		 jne	 SHORT $LN4@z900_dfp_s

; 1866 :         {
; 1867 :             regs->fpc |= FPC_FLAG_SFI;

  00040	48 8b 44 24 58	 mov	 rax, QWORD PTR regs$[rsp]
  00045	8b 80 c0 03 00
	00		 mov	 eax, DWORD PTR [rax+960]
  0004b	0f ba e8 17	 bts	 eax, 23
  0004f	48 8b 4c 24 58	 mov	 rcx, QWORD PTR regs$[rsp]
  00054	89 81 c0 03 00
	00		 mov	 DWORD PTR [rcx+960], eax

; 1868 :         }

  0005a	eb 0d		 jmp	 SHORT $LN5@z900_dfp_s
$LN4@z900_dfp_s:

; 1869 :         else
; 1870 :         {
; 1871 :             dxc = DXC_IEEE_INVALID_OP;

  0005c	c6 44 24 20 80	 mov	 BYTE PTR dxc$[rsp], 128	; 00000080H

; 1872 :             suppress = 1;

  00061	c7 44 24 24 01
	00 00 00	 mov	 DWORD PTR suppress$[rsp], 1
$LN5@z900_dfp_s:

; 1873 :         }
; 1874 :     }

  00069	e9 4c 02 00 00	 jmp	 $LN3@z900_dfp_s
$LN2@z900_dfp_s:

; 1875 :     else if (pset->status & DEC_IEEE_854_Division_by_zero)

  0006e	48 8b 44 24 50	 mov	 rax, QWORD PTR pset$[rsp]
  00073	8b 40 14	 mov	 eax, DWORD PTR [rax+20]
  00076	83 e0 02	 and	 eax, 2
  00079	85 c0		 test	 eax, eax
  0007b	74 42		 je	 SHORT $LN6@z900_dfp_s

; 1876 :     {
; 1877 :         /* An IEEE-division-by-zero condition was recognized */
; 1878 :         if ((regs->fpc & FPC_MASK_IMZ) == 0)

  0007d	48 8b 44 24 58	 mov	 rax, QWORD PTR regs$[rsp]
  00082	8b 80 c0 03 00
	00		 mov	 eax, DWORD PTR [rax+960]
  00088	25 00 00 00 40	 and	 eax, 1073741824		; 40000000H
  0008d	85 c0		 test	 eax, eax
  0008f	75 1c		 jne	 SHORT $LN8@z900_dfp_s

; 1879 :         {
; 1880 :             /* Division-by-zero mask is zero */
; 1881 :             regs->fpc |= FPC_FLAG_SFZ;

  00091	48 8b 44 24 58	 mov	 rax, QWORD PTR regs$[rsp]
  00096	8b 80 c0 03 00
	00		 mov	 eax, DWORD PTR [rax+960]
  0009c	0f ba e8 16	 bts	 eax, 22
  000a0	48 8b 4c 24 58	 mov	 rcx, QWORD PTR regs$[rsp]
  000a5	89 81 c0 03 00
	00		 mov	 DWORD PTR [rcx+960], eax

; 1882 :         }

  000ab	eb 0d		 jmp	 SHORT $LN9@z900_dfp_s
$LN8@z900_dfp_s:

; 1883 :         else
; 1884 :         {
; 1885 :             /* Division-by-zero mask is one */
; 1886 :             dxc = DXC_IEEE_DIV_ZERO;

  000ad	c6 44 24 20 40	 mov	 BYTE PTR dxc$[rsp], 64	; 00000040H

; 1887 :             suppress = 1;

  000b2	c7 44 24 24 01
	00 00 00	 mov	 DWORD PTR suppress$[rsp], 1
$LN9@z900_dfp_s:

; 1888 :         }
; 1889 :     }

  000ba	e9 fb 01 00 00	 jmp	 $LN7@z900_dfp_s
$LN6@z900_dfp_s:

; 1890 :     else if (pset->status & DEC_IEEE_854_Overflow)

  000bf	48 8b 44 24 50	 mov	 rax, QWORD PTR pset$[rsp]
  000c4	8b 40 14	 mov	 eax, DWORD PTR [rax+20]
  000c7	25 00 02 00 00	 and	 eax, 512		; 00000200H
  000cc	85 c0		 test	 eax, eax
  000ce	0f 84 82 00 00
	00		 je	 $LN10@z900_dfp_s

; 1891 :     {
; 1892 :         /* An IEEE-overflow condition was recognized */
; 1893 :         if ((regs->fpc & FPC_MASK_IMO) == 0)

  000d4	48 8b 44 24 58	 mov	 rax, QWORD PTR regs$[rsp]
  000d9	8b 80 c0 03 00
	00		 mov	 eax, DWORD PTR [rax+960]
  000df	25 00 00 00 20	 and	 eax, 536870912		; 20000000H
  000e4	85 c0		 test	 eax, eax
  000e6	75 1c		 jne	 SHORT $LN12@z900_dfp_s

; 1894 :         {
; 1895 :             /* Overflow mask is zero */
; 1896 :             regs->fpc |= FPC_FLAG_SFO;

  000e8	48 8b 44 24 58	 mov	 rax, QWORD PTR regs$[rsp]
  000ed	8b 80 c0 03 00
	00		 mov	 eax, DWORD PTR [rax+960]
  000f3	0f ba e8 15	 bts	 eax, 21
  000f7	48 8b 4c 24 58	 mov	 rcx, QWORD PTR regs$[rsp]
  000fc	89 81 c0 03 00
	00		 mov	 DWORD PTR [rcx+960], eax

; 1897 :         }

  00102	eb 4d		 jmp	 SHORT $LN13@z900_dfp_s
$LN12@z900_dfp_s:

; 1898 :         else
; 1899 :         {
; 1900 :             /* Overflow mask is one */
; 1901 :             dxc = (pset->status & DEC_IEEE_854_Inexact) ?

  00104	48 8b 44 24 50	 mov	 rax, QWORD PTR pset$[rsp]
  00109	8b 40 14	 mov	 eax, DWORD PTR [rax+20]
  0010c	83 e0 20	 and	 eax, 32			; 00000020H
  0010f	85 c0		 test	 eax, eax
  00111	74 2d		 je	 SHORT $LN30@z900_dfp_s
  00113	48 8b 44 24 50	 mov	 rax, QWORD PTR pset$[rsp]
  00118	8b 40 14	 mov	 eax, DWORD PTR [rax+20]
  0011b	25 00 08 00 00	 and	 eax, 2048		; 00000800H
  00120	85 c0		 test	 eax, eax
  00122	74 0a		 je	 SHORT $LN28@z900_dfp_s
  00124	c7 44 24 28 2c
	00 00 00	 mov	 DWORD PTR tv128[rsp], 44 ; 0000002cH
  0012c	eb 08		 jmp	 SHORT $LN29@z900_dfp_s
$LN28@z900_dfp_s:
  0012e	c7 44 24 28 28
	00 00 00	 mov	 DWORD PTR tv128[rsp], 40 ; 00000028H
$LN29@z900_dfp_s:
  00136	8b 44 24 28	 mov	 eax, DWORD PTR tv128[rsp]
  0013a	89 44 24 2c	 mov	 DWORD PTR tv130[rsp], eax
  0013e	eb 08		 jmp	 SHORT $LN31@z900_dfp_s
$LN30@z900_dfp_s:
  00140	c7 44 24 2c 20
	00 00 00	 mov	 DWORD PTR tv130[rsp], 32 ; 00000020H
$LN31@z900_dfp_s:
  00148	0f b6 44 24 2c	 movzx	 eax, BYTE PTR tv130[rsp]
  0014d	88 44 24 20	 mov	 BYTE PTR dxc$[rsp], al
$LN13@z900_dfp_s:

; 1902 :                     ((pset->status & DEC_Rounded) ?
; 1903 :                         DXC_IEEE_OF_INEX_INCR :
; 1904 :                         DXC_IEEE_OF_INEX_TRUNC ) :
; 1905 :                         DXC_IEEE_OF_EXACT ;
; 1906 :         }
; 1907 :     }

  00151	e9 64 01 00 00	 jmp	 $LN11@z900_dfp_s
$LN10@z900_dfp_s:

; 1908 :     else if (pset->status & DEC_IEEE_854_Underflow)

  00156	48 8b 44 24 50	 mov	 rax, QWORD PTR pset$[rsp]
  0015b	8b 40 14	 mov	 eax, DWORD PTR [rax+20]
  0015e	25 00 20 00 00	 and	 eax, 8192		; 00002000H
  00163	85 c0		 test	 eax, eax
  00165	0f 84 e4 00 00
	00		 je	 $LN14@z900_dfp_s

; 1909 :     {
; 1910 :         /* An IEEE-underflow condition was recognized */
; 1911 :         if ((regs->fpc & FPC_MASK_IMU) == 0)

  0016b	48 8b 44 24 58	 mov	 rax, QWORD PTR regs$[rsp]
  00170	8b 80 c0 03 00
	00		 mov	 eax, DWORD PTR [rax+960]
  00176	25 00 00 00 10	 and	 eax, 268435456		; 10000000H
  0017b	85 c0		 test	 eax, eax
  0017d	0f 85 88 00 00
	00		 jne	 $LN16@z900_dfp_s

; 1912 :         {
; 1913 :             /* Underflow mask is zero */
; 1914 :             if (pset->status & DEC_IEEE_854_Inexact)

  00183	48 8b 44 24 50	 mov	 rax, QWORD PTR pset$[rsp]
  00188	8b 40 14	 mov	 eax, DWORD PTR [rax+20]
  0018b	83 e0 20	 and	 eax, 32			; 00000020H
  0018e	85 c0		 test	 eax, eax
  00190	74 77		 je	 SHORT $LN18@z900_dfp_s

; 1915 :             {
; 1916 :                 if ((regs->fpc & FPC_MASK_IMX) == 0)

  00192	48 8b 44 24 58	 mov	 rax, QWORD PTR regs$[rsp]
  00197	8b 80 c0 03 00
	00		 mov	 eax, DWORD PTR [rax+960]
  0019d	25 00 00 00 08	 and	 eax, 134217728		; 08000000H
  001a2	85 c0		 test	 eax, eax
  001a4	75 1d		 jne	 SHORT $LN19@z900_dfp_s

; 1917 :                 {
; 1918 :                     /* Inexact result with inexact mask zero */
; 1919 :                     regs->fpc |= (FPC_FLAG_SFU | FPC_FLAG_SFX);

  001a6	48 8b 44 24 58	 mov	 rax, QWORD PTR regs$[rsp]
  001ab	8b 80 c0 03 00
	00		 mov	 eax, DWORD PTR [rax+960]
  001b1	0d 00 00 18 00	 or	 eax, 1572864		; 00180000H
  001b6	48 8b 4c 24 58	 mov	 rcx, QWORD PTR regs$[rsp]
  001bb	89 81 c0 03 00
	00		 mov	 DWORD PTR [rcx+960], eax

; 1920 :                 }

  001c1	eb 46		 jmp	 SHORT $LN20@z900_dfp_s
$LN19@z900_dfp_s:

; 1921 :                 else
; 1922 :                 {
; 1923 :                     /* Inexact result with inexact mask one */
; 1924 :                     regs->fpc |= FPC_FLAG_SFU;

  001c3	48 8b 44 24 58	 mov	 rax, QWORD PTR regs$[rsp]
  001c8	8b 80 c0 03 00
	00		 mov	 eax, DWORD PTR [rax+960]
  001ce	0f ba e8 14	 bts	 eax, 20
  001d2	48 8b 4c 24 58	 mov	 rcx, QWORD PTR regs$[rsp]
  001d7	89 81 c0 03 00
	00		 mov	 DWORD PTR [rcx+960], eax

; 1925 :                     dxc = (pset->status & DEC_Rounded) ?

  001dd	48 8b 44 24 50	 mov	 rax, QWORD PTR pset$[rsp]
  001e2	8b 40 14	 mov	 eax, DWORD PTR [rax+20]
  001e5	25 00 08 00 00	 and	 eax, 2048		; 00000800H
  001ea	85 c0		 test	 eax, eax
  001ec	74 0a		 je	 SHORT $LN32@z900_dfp_s
  001ee	c7 44 24 30 0c
	00 00 00	 mov	 DWORD PTR tv153[rsp], 12
  001f6	eb 08		 jmp	 SHORT $LN33@z900_dfp_s
$LN32@z900_dfp_s:
  001f8	c7 44 24 30 08
	00 00 00	 mov	 DWORD PTR tv153[rsp], 8
$LN33@z900_dfp_s:
  00200	0f b6 44 24 30	 movzx	 eax, BYTE PTR tv153[rsp]
  00205	88 44 24 20	 mov	 BYTE PTR dxc$[rsp], al
$LN20@z900_dfp_s:
$LN18@z900_dfp_s:

; 1926 :                             DXC_IEEE_INEXACT_INCR :
; 1927 :                             DXC_IEEE_INEXACT_TRUNC ;
; 1928 :                 }
; 1929 :             }
; 1930 :         }

  00209	eb 42		 jmp	 SHORT $LN17@z900_dfp_s
$LN16@z900_dfp_s:

; 1931 :         else
; 1932 :         {
; 1933 :             /* Underflow mask is one */
; 1934 :             if (pset->status & DEC_IEEE_854_Inexact)

  0020b	48 8b 44 24 50	 mov	 rax, QWORD PTR pset$[rsp]
  00210	8b 40 14	 mov	 eax, DWORD PTR [rax+20]
  00213	83 e0 20	 and	 eax, 32			; 00000020H
  00216	85 c0		 test	 eax, eax
  00218	74 2e		 je	 SHORT $LN21@z900_dfp_s

; 1935 :             {
; 1936 :                 /* Underflow with inexact result */
; 1937 :                 dxc = (pset->status & DEC_Rounded) ?

  0021a	48 8b 44 24 50	 mov	 rax, QWORD PTR pset$[rsp]
  0021f	8b 40 14	 mov	 eax, DWORD PTR [rax+20]
  00222	25 00 08 00 00	 and	 eax, 2048		; 00000800H
  00227	85 c0		 test	 eax, eax
  00229	74 0a		 je	 SHORT $LN34@z900_dfp_s
  0022b	c7 44 24 34 1c
	00 00 00	 mov	 DWORD PTR tv161[rsp], 28
  00233	eb 08		 jmp	 SHORT $LN35@z900_dfp_s
$LN34@z900_dfp_s:
  00235	c7 44 24 34 18
	00 00 00	 mov	 DWORD PTR tv161[rsp], 24
$LN35@z900_dfp_s:
  0023d	0f b6 44 24 34	 movzx	 eax, BYTE PTR tv161[rsp]
  00242	88 44 24 20	 mov	 BYTE PTR dxc$[rsp], al

; 1938 :                         DXC_IEEE_UF_INEX_INCR :
; 1939 :                         DXC_IEEE_UF_INEX_TRUNC ;
; 1940 :             }

  00246	eb 05		 jmp	 SHORT $LN22@z900_dfp_s
$LN21@z900_dfp_s:

; 1941 :             else
; 1942 :             {
; 1943 :                 /* Underflow with exact result */
; 1944 :                 dxc = DXC_IEEE_UF_EXACT;

  00248	c6 44 24 20 10	 mov	 BYTE PTR dxc$[rsp], 16
$LN22@z900_dfp_s:
$LN17@z900_dfp_s:

; 1945 :             }
; 1946 :         }
; 1947 :     }

  0024d	eb 6b		 jmp	 SHORT $LN15@z900_dfp_s
$LN14@z900_dfp_s:

; 1948 :     else if (pset->status & DEC_IEEE_854_Inexact)

  0024f	48 8b 44 24 50	 mov	 rax, QWORD PTR pset$[rsp]
  00254	8b 40 14	 mov	 eax, DWORD PTR [rax+20]
  00257	83 e0 20	 and	 eax, 32			; 00000020H
  0025a	85 c0		 test	 eax, eax
  0025c	74 5c		 je	 SHORT $LN23@z900_dfp_s

; 1949 :     {
; 1950 :         /* An IEEE-inexact condition was recognized */
; 1951 :         if ((regs->fpc & FPC_MASK_IMX) == 0)

  0025e	48 8b 44 24 58	 mov	 rax, QWORD PTR regs$[rsp]
  00263	8b 80 c0 03 00
	00		 mov	 eax, DWORD PTR [rax+960]
  00269	25 00 00 00 08	 and	 eax, 134217728		; 08000000H
  0026e	85 c0		 test	 eax, eax
  00270	75 1c		 jne	 SHORT $LN24@z900_dfp_s

; 1952 :         {
; 1953 :             /* Inexact mask is zero */
; 1954 :             regs->fpc |= FPC_FLAG_SFX;

  00272	48 8b 44 24 58	 mov	 rax, QWORD PTR regs$[rsp]
  00277	8b 80 c0 03 00
	00		 mov	 eax, DWORD PTR [rax+960]
  0027d	0f ba e8 13	 bts	 eax, 19
  00281	48 8b 4c 24 58	 mov	 rcx, QWORD PTR regs$[rsp]
  00286	89 81 c0 03 00
	00		 mov	 DWORD PTR [rcx+960], eax

; 1955 :         }

  0028c	eb 2c		 jmp	 SHORT $LN25@z900_dfp_s
$LN24@z900_dfp_s:

; 1956 :         else
; 1957 :         {
; 1958 :             /* Inexact mask is one */
; 1959 :             dxc = (pset->status & DEC_Rounded) ?

  0028e	48 8b 44 24 50	 mov	 rax, QWORD PTR pset$[rsp]
  00293	8b 40 14	 mov	 eax, DWORD PTR [rax+20]
  00296	25 00 08 00 00	 and	 eax, 2048		; 00000800H
  0029b	85 c0		 test	 eax, eax
  0029d	74 0a		 je	 SHORT $LN36@z900_dfp_s
  0029f	c7 44 24 38 0c
	00 00 00	 mov	 DWORD PTR tv175[rsp], 12
  002a7	eb 08		 jmp	 SHORT $LN37@z900_dfp_s
$LN36@z900_dfp_s:
  002a9	c7 44 24 38 08
	00 00 00	 mov	 DWORD PTR tv175[rsp], 8
$LN37@z900_dfp_s:
  002b1	0f b6 44 24 38	 movzx	 eax, BYTE PTR tv175[rsp]
  002b6	88 44 24 20	 mov	 BYTE PTR dxc$[rsp], al
$LN25@z900_dfp_s:
$LN23@z900_dfp_s:
$LN15@z900_dfp_s:
$LN11@z900_dfp_s:
$LN7@z900_dfp_s:
$LN3@z900_dfp_s:

; 1960 :                     DXC_IEEE_INEXACT_INCR :
; 1961 :                     DXC_IEEE_INEXACT_TRUNC ;
; 1962 :         }
; 1963 :     }
; 1964 : 
; 1965 :     /* If suppression is indicated, raise a data exception */
; 1966 :     if (suppress)

  002ba	83 7c 24 24 00	 cmp	 DWORD PTR suppress$[rsp], 0
  002bf	74 1f		 je	 SHORT $LN26@z900_dfp_s

; 1967 :     {
; 1968 :         regs->dxc = dxc;

  002c1	0f b6 44 24 20	 movzx	 eax, BYTE PTR dxc$[rsp]
  002c6	48 8b 4c 24 58	 mov	 rcx, QWORD PTR regs$[rsp]
  002cb	89 81 08 07 00
	00		 mov	 DWORD PTR [rcx+1800], eax

; 1969 :         ARCH_DEP(program_interrupt) (regs, PGM_DATA_EXCEPTION);

  002d1	ba 07 00 00 00	 mov	 edx, 7
  002d6	48 8b 4c 24 58	 mov	 rcx, QWORD PTR regs$[rsp]
  002db	e8 00 00 00 00	 call	 z900_program_interrupt
$LN26@z900_dfp_s:

; 1970 :     }
; 1971 : 
; 1972 :     /* Otherwise return to complete the instruction */
; 1973 :     return dxc;

  002e0	0f b6 44 24 20	 movzx	 eax, BYTE PTR dxc$[rsp]

; 1974 : 
; 1975 : } /* end function dfp_status_check */

  002e5	48 83 c4 48	 add	 rsp, 72			; 00000048H
  002e9	c3		 ret	 0
z900_dfp_status_check ENDP
_TEXT	ENDS
; Function compile flags: /Odtp
; File C:\papa\MyGit\hyperion-zvector\dfp.c
_TEXT	SEGMENT
i$ = 0
j$ = 4
qwp$ = 8
rn$ = 32
xp$ = 40
regs$ = 48
z900_dfp_reg_from_decimal128 PROC

; 1804 : {

  00000	4c 89 44 24 18	 mov	 QWORD PTR [rsp+24], r8
  00005	48 89 54 24 10	 mov	 QWORD PTR [rsp+16], rdx
  0000a	89 4c 24 08	 mov	 DWORD PTR [rsp+8], ecx
  0000e	48 83 ec 18	 sub	 rsp, 24

; 1805 : int     i, j;                           /* FP register subscripts    */
; 1806 : QW      *qwp;                           /* Quadword pointer          */
; 1807 : 
; 1808 :     i = FPR2I(rn);                      /* Left register index       */

  00012	8b 44 24 20	 mov	 eax, DWORD PTR rn$[rsp]
  00016	d1 e0		 shl	 eax, 1
  00018	89 04 24	 mov	 DWORD PTR i$[rsp], eax

; 1809 :     j = i + FPREX;                      /* Right register index      */

  0001b	8b 04 24	 mov	 eax, DWORD PTR i$[rsp]
  0001e	83 c0 04	 add	 eax, 4
  00021	89 44 24 04	 mov	 DWORD PTR j$[rsp], eax

; 1810 :     qwp = (QW*)xp;                      /* Convert to QW pointer     */

  00025	48 8b 44 24 28	 mov	 rax, QWORD PTR xp$[rsp]
  0002a	48 89 44 24 08	 mov	 QWORD PTR qwp$[rsp], rax

; 1811 :     regs->fpr[i]   = qwp->F.HH.F;       /* Load FPR bits 0-31        */

  0002f	48 63 04 24	 movsxd	 rax, DWORD PTR i$[rsp]
  00033	48 8b 4c 24 30	 mov	 rcx, QWORD PTR regs$[rsp]
  00038	48 8b 54 24 08	 mov	 rdx, QWORD PTR qwp$[rsp]
  0003d	8b 52 0c	 mov	 edx, DWORD PTR [rdx+12]
  00040	89 94 81 40 03
	00 00		 mov	 DWORD PTR [rcx+rax*4+832], edx

; 1812 :     regs->fpr[i+1] = qwp->F.HL.F;       /* Load FPR bits 32-63       */

  00047	8b 04 24	 mov	 eax, DWORD PTR i$[rsp]
  0004a	ff c0		 inc	 eax
  0004c	48 98		 cdqe
  0004e	48 8b 4c 24 30	 mov	 rcx, QWORD PTR regs$[rsp]
  00053	48 8b 54 24 08	 mov	 rdx, QWORD PTR qwp$[rsp]
  00058	8b 52 08	 mov	 edx, DWORD PTR [rdx+8]
  0005b	89 94 81 40 03
	00 00		 mov	 DWORD PTR [rcx+rax*4+832], edx

; 1813 :     regs->fpr[j]   = qwp->F.LH.F;       /* Load FPR bits 64-95       */

  00062	48 63 44 24 04	 movsxd	 rax, DWORD PTR j$[rsp]
  00067	48 8b 4c 24 30	 mov	 rcx, QWORD PTR regs$[rsp]
  0006c	48 8b 54 24 08	 mov	 rdx, QWORD PTR qwp$[rsp]
  00071	8b 52 04	 mov	 edx, DWORD PTR [rdx+4]
  00074	89 94 81 40 03
	00 00		 mov	 DWORD PTR [rcx+rax*4+832], edx

; 1814 :     regs->fpr[j+1] = qwp->F.LL.F;       /* Load FPR bits 96-127      */

  0007b	8b 44 24 04	 mov	 eax, DWORD PTR j$[rsp]
  0007f	ff c0		 inc	 eax
  00081	48 98		 cdqe
  00083	48 8b 4c 24 30	 mov	 rcx, QWORD PTR regs$[rsp]
  00088	48 8b 54 24 08	 mov	 rdx, QWORD PTR qwp$[rsp]
  0008d	8b 12		 mov	 edx, DWORD PTR [rdx]
  0008f	89 94 81 40 03
	00 00		 mov	 DWORD PTR [rcx+rax*4+832], edx

; 1815 : 
; 1816 : } /* end function dfp_reg_from_decimal128 */

  00096	48 83 c4 18	 add	 rsp, 24
  0009a	c3		 ret	 0
z900_dfp_reg_from_decimal128 ENDP
_TEXT	ENDS
; Function compile flags: /Odtp
; File C:\papa\MyGit\hyperion-zvector\dfp.c
_TEXT	SEGMENT
i$ = 0
j$ = 4
qwp$ = 8
rn$ = 32
xp$ = 40
regs$ = 48
z900_dfp_reg_to_decimal128 PROC

; 1780 : {

  00000	4c 89 44 24 18	 mov	 QWORD PTR [rsp+24], r8
  00005	48 89 54 24 10	 mov	 QWORD PTR [rsp+16], rdx
  0000a	89 4c 24 08	 mov	 DWORD PTR [rsp+8], ecx
  0000e	48 83 ec 18	 sub	 rsp, 24

; 1781 : int     i, j;                           /* FP register subscripts    */
; 1782 : QW      *qwp;                           /* Quadword pointer          */
; 1783 : 
; 1784 :     i = FPR2I(rn);                      /* Left register index       */

  00012	8b 44 24 20	 mov	 eax, DWORD PTR rn$[rsp]
  00016	d1 e0		 shl	 eax, 1
  00018	89 04 24	 mov	 DWORD PTR i$[rsp], eax

; 1785 :     j = i + FPREX;                      /* Right register index      */

  0001b	8b 04 24	 mov	 eax, DWORD PTR i$[rsp]
  0001e	83 c0 04	 add	 eax, 4
  00021	89 44 24 04	 mov	 DWORD PTR j$[rsp], eax

; 1786 :     qwp = (QW*)xp;                      /* Convert to QW pointer     */

  00025	48 8b 44 24 28	 mov	 rax, QWORD PTR xp$[rsp]
  0002a	48 89 44 24 08	 mov	 QWORD PTR qwp$[rsp], rax

; 1787 :     qwp->F.HH.F = regs->fpr[i];         /* Copy FPR bits 0-31        */

  0002f	48 63 04 24	 movsxd	 rax, DWORD PTR i$[rsp]
  00033	48 8b 4c 24 08	 mov	 rcx, QWORD PTR qwp$[rsp]
  00038	48 8b 54 24 30	 mov	 rdx, QWORD PTR regs$[rsp]
  0003d	8b 84 82 40 03
	00 00		 mov	 eax, DWORD PTR [rdx+rax*4+832]
  00044	89 41 0c	 mov	 DWORD PTR [rcx+12], eax

; 1788 :     qwp->F.HL.F = regs->fpr[i+1];       /* Copy FPR bits 32-63       */

  00047	8b 04 24	 mov	 eax, DWORD PTR i$[rsp]
  0004a	ff c0		 inc	 eax
  0004c	48 98		 cdqe
  0004e	48 8b 4c 24 08	 mov	 rcx, QWORD PTR qwp$[rsp]
  00053	48 8b 54 24 30	 mov	 rdx, QWORD PTR regs$[rsp]
  00058	8b 84 82 40 03
	00 00		 mov	 eax, DWORD PTR [rdx+rax*4+832]
  0005f	89 41 08	 mov	 DWORD PTR [rcx+8], eax

; 1789 :     qwp->F.LH.F = regs->fpr[j];         /* Copy FPR bits 64-95       */

  00062	48 63 44 24 04	 movsxd	 rax, DWORD PTR j$[rsp]
  00067	48 8b 4c 24 08	 mov	 rcx, QWORD PTR qwp$[rsp]
  0006c	48 8b 54 24 30	 mov	 rdx, QWORD PTR regs$[rsp]
  00071	8b 84 82 40 03
	00 00		 mov	 eax, DWORD PTR [rdx+rax*4+832]
  00078	89 41 04	 mov	 DWORD PTR [rcx+4], eax

; 1790 :     qwp->F.LL.F = regs->fpr[j+1];       /* Copy FPR bits 96-127      */

  0007b	8b 44 24 04	 mov	 eax, DWORD PTR j$[rsp]
  0007f	ff c0		 inc	 eax
  00081	48 98		 cdqe
  00083	48 8b 4c 24 08	 mov	 rcx, QWORD PTR qwp$[rsp]
  00088	48 8b 54 24 30	 mov	 rdx, QWORD PTR regs$[rsp]
  0008d	8b 84 82 40 03
	00 00		 mov	 eax, DWORD PTR [rdx+rax*4+832]
  00094	89 01		 mov	 DWORD PTR [rcx], eax

; 1791 : 
; 1792 : } /* end function dfp_reg_to_decimal128 */

  00096	48 83 c4 18	 add	 rsp, 24
  0009a	c3		 ret	 0
z900_dfp_reg_to_decimal128 ENDP
_TEXT	ENDS
; Function compile flags: /Odtp
; File C:\papa\MyGit\hyperion-zvector\dfp.c
_TEXT	SEGMENT
i$ = 0
dwp$ = 8
rn$ = 32
xp$ = 40
regs$ = 48
z900_dfp_reg_from_decimal64 PROC

; 1759 : {

  00000	4c 89 44 24 18	 mov	 QWORD PTR [rsp+24], r8
  00005	48 89 54 24 10	 mov	 QWORD PTR [rsp+16], rdx
  0000a	89 4c 24 08	 mov	 DWORD PTR [rsp+8], ecx
  0000e	48 83 ec 18	 sub	 rsp, 24

; 1760 : int     i;                              /* FP register subscript     */
; 1761 : DW      *dwp;                           /* Doubleword pointer        */
; 1762 : 
; 1763 :     i = FPR2I(rn);                      /* Register index            */

  00012	8b 44 24 20	 mov	 eax, DWORD PTR rn$[rsp]
  00016	d1 e0		 shl	 eax, 1
  00018	89 04 24	 mov	 DWORD PTR i$[rsp], eax

; 1764 :     dwp = (DW*)xp;                      /* Convert to DW pointer     */

  0001b	48 8b 44 24 28	 mov	 rax, QWORD PTR xp$[rsp]
  00020	48 89 44 24 08	 mov	 QWORD PTR dwp$[rsp], rax

; 1765 :     regs->fpr[i]   = dwp->F.H.F;        /* Load FPR bits 0-31        */

  00025	48 63 04 24	 movsxd	 rax, DWORD PTR i$[rsp]
  00029	48 8b 4c 24 30	 mov	 rcx, QWORD PTR regs$[rsp]
  0002e	48 8b 54 24 08	 mov	 rdx, QWORD PTR dwp$[rsp]
  00033	8b 52 04	 mov	 edx, DWORD PTR [rdx+4]
  00036	89 94 81 40 03
	00 00		 mov	 DWORD PTR [rcx+rax*4+832], edx

; 1766 :     regs->fpr[i+1] = dwp->F.L.F;        /* Load FPR bits 32-63       */

  0003d	8b 04 24	 mov	 eax, DWORD PTR i$[rsp]
  00040	ff c0		 inc	 eax
  00042	48 98		 cdqe
  00044	48 8b 4c 24 30	 mov	 rcx, QWORD PTR regs$[rsp]
  00049	48 8b 54 24 08	 mov	 rdx, QWORD PTR dwp$[rsp]
  0004e	8b 12		 mov	 edx, DWORD PTR [rdx]
  00050	89 94 81 40 03
	00 00		 mov	 DWORD PTR [rcx+rax*4+832], edx

; 1767 : 
; 1768 : } /* end function dfp_reg_from_decimal64 */

  00057	48 83 c4 18	 add	 rsp, 24
  0005b	c3		 ret	 0
z900_dfp_reg_from_decimal64 ENDP
_TEXT	ENDS
; Function compile flags: /Odtp
; File C:\papa\MyGit\hyperion-zvector\dfp.c
_TEXT	SEGMENT
i$ = 0
dwp$ = 8
rn$ = 32
xp$ = 40
regs$ = 48
z900_dfp_reg_to_decimal64 PROC

; 1738 : {

  00000	4c 89 44 24 18	 mov	 QWORD PTR [rsp+24], r8
  00005	48 89 54 24 10	 mov	 QWORD PTR [rsp+16], rdx
  0000a	89 4c 24 08	 mov	 DWORD PTR [rsp+8], ecx
  0000e	48 83 ec 18	 sub	 rsp, 24

; 1739 : int     i;                              /* FP register subscript     */
; 1740 : DW      *dwp;                           /* Doubleword pointer        */
; 1741 : 
; 1742 :     i = FPR2I(rn);                      /* Register index            */

  00012	8b 44 24 20	 mov	 eax, DWORD PTR rn$[rsp]
  00016	d1 e0		 shl	 eax, 1
  00018	89 04 24	 mov	 DWORD PTR i$[rsp], eax

; 1743 :     dwp = (DW*)xp;                      /* Convert to DW pointer     */

  0001b	48 8b 44 24 28	 mov	 rax, QWORD PTR xp$[rsp]
  00020	48 89 44 24 08	 mov	 QWORD PTR dwp$[rsp], rax

; 1744 :     dwp->F.H.F = regs->fpr[i];          /* Copy FPR bits 0-31        */

  00025	48 63 04 24	 movsxd	 rax, DWORD PTR i$[rsp]
  00029	48 8b 4c 24 08	 mov	 rcx, QWORD PTR dwp$[rsp]
  0002e	48 8b 54 24 30	 mov	 rdx, QWORD PTR regs$[rsp]
  00033	8b 84 82 40 03
	00 00		 mov	 eax, DWORD PTR [rdx+rax*4+832]
  0003a	89 41 04	 mov	 DWORD PTR [rcx+4], eax

; 1745 :     dwp->F.L.F = regs->fpr[i+1];        /* Copy FPR bits 32-63       */

  0003d	8b 04 24	 mov	 eax, DWORD PTR i$[rsp]
  00040	ff c0		 inc	 eax
  00042	48 98		 cdqe
  00044	48 8b 4c 24 08	 mov	 rcx, QWORD PTR dwp$[rsp]
  00049	48 8b 54 24 30	 mov	 rdx, QWORD PTR regs$[rsp]
  0004e	8b 84 82 40 03
	00 00		 mov	 eax, DWORD PTR [rdx+rax*4+832]
  00055	89 01		 mov	 DWORD PTR [rcx], eax

; 1746 : 
; 1747 : } /* end function dfp_reg_to_decimal64 */

  00057	48 83 c4 18	 add	 rsp, 24
  0005b	c3		 ret	 0
z900_dfp_reg_to_decimal64 ENDP
_TEXT	ENDS
; Function compile flags: /Odtp
; File C:\papa\MyGit\hyperion-zvector\dfp.c
_TEXT	SEGMENT
i$ = 0
fwp$ = 8
rn$ = 32
xp$ = 40
regs$ = 48
z900_dfp_reg_from_decimal32 PROC

; 1718 : {

  00000	4c 89 44 24 18	 mov	 QWORD PTR [rsp+24], r8
  00005	48 89 54 24 10	 mov	 QWORD PTR [rsp+16], rdx
  0000a	89 4c 24 08	 mov	 DWORD PTR [rsp+8], ecx
  0000e	48 83 ec 18	 sub	 rsp, 24

; 1719 : int     i;                              /* FP register subscript     */
; 1720 : FW      *fwp;                           /* Fullword pointer          */
; 1721 : 
; 1722 :     i = FPR2I(rn);                      /* Register index            */

  00012	8b 44 24 20	 mov	 eax, DWORD PTR rn$[rsp]
  00016	d1 e0		 shl	 eax, 1
  00018	89 04 24	 mov	 DWORD PTR i$[rsp], eax

; 1723 :     fwp = (FW*)xp;                      /* Convert to FW pointer     */

  0001b	48 8b 44 24 28	 mov	 rax, QWORD PTR xp$[rsp]
  00020	48 89 44 24 08	 mov	 QWORD PTR fwp$[rsp], rax

; 1724 :     regs->fpr[i] = fwp->F;              /* Load FPR bits 0-31        */

  00025	48 63 04 24	 movsxd	 rax, DWORD PTR i$[rsp]
  00029	48 8b 4c 24 30	 mov	 rcx, QWORD PTR regs$[rsp]
  0002e	48 8b 54 24 08	 mov	 rdx, QWORD PTR fwp$[rsp]
  00033	8b 12		 mov	 edx, DWORD PTR [rdx]
  00035	89 94 81 40 03
	00 00		 mov	 DWORD PTR [rcx+rax*4+832], edx

; 1725 : 
; 1726 : } /* end function dfp_reg_from_decimal32 */

  0003c	48 83 c4 18	 add	 rsp, 24
  00040	c3		 ret	 0
z900_dfp_reg_from_decimal32 ENDP
_TEXT	ENDS
; Function compile flags: /Odtp
; File C:\papa\MyGit\hyperion-zvector\dfp.c
_TEXT	SEGMENT
i$ = 0
fwp$ = 8
rn$ = 32
xp$ = 40
regs$ = 48
z900_dfp_reg_to_decimal32 PROC

; 1698 : {

  00000	4c 89 44 24 18	 mov	 QWORD PTR [rsp+24], r8
  00005	48 89 54 24 10	 mov	 QWORD PTR [rsp+16], rdx
  0000a	89 4c 24 08	 mov	 DWORD PTR [rsp+8], ecx
  0000e	48 83 ec 18	 sub	 rsp, 24

; 1699 : int     i;                              /* FP register subscript     */
; 1700 : FW      *fwp;                           /* Fullword pointer          */
; 1701 : 
; 1702 :     i = FPR2I(rn);                      /* Register index            */

  00012	8b 44 24 20	 mov	 eax, DWORD PTR rn$[rsp]
  00016	d1 e0		 shl	 eax, 1
  00018	89 04 24	 mov	 DWORD PTR i$[rsp], eax

; 1703 :     fwp = (FW*)xp;                      /* Convert to FW pointer     */

  0001b	48 8b 44 24 28	 mov	 rax, QWORD PTR xp$[rsp]
  00020	48 89 44 24 08	 mov	 QWORD PTR fwp$[rsp], rax

; 1704 :     fwp->F = regs->fpr[i];              /* Copy FPR bits 0-31        */

  00025	48 63 04 24	 movsxd	 rax, DWORD PTR i$[rsp]
  00029	48 8b 4c 24 08	 mov	 rcx, QWORD PTR fwp$[rsp]
  0002e	48 8b 54 24 30	 mov	 rdx, QWORD PTR regs$[rsp]
  00033	8b 84 82 40 03
	00 00		 mov	 eax, DWORD PTR [rdx+rax*4+832]
  0003a	89 01		 mov	 DWORD PTR [rcx], eax

; 1705 : 
; 1706 : } /* end function dfp_reg_to_decimal32 */

  0003c	48 83 c4 18	 add	 rsp, 24
  00040	c3		 ret	 0
z900_dfp_reg_to_decimal32 ENDP
_TEXT	ENDS
; Function compile flags: /Odtp
; File C:\papa\MyGit\hyperion-zvector\dfp.c
_TEXT	SEGMENT
drm$ = 0
tv73 = 4
pset$ = 32
mask$ = 40
regs$ = 48
z900_dfp_rounding_mode PROC

; 1661 : {

  00000	4c 89 44 24 18	 mov	 QWORD PTR [rsp+24], r8
  00005	89 54 24 10	 mov	 DWORD PTR [rsp+16], edx
  00009	48 89 4c 24 08	 mov	 QWORD PTR [rsp+8], rcx
  0000e	48 83 ec 18	 sub	 rsp, 24

; 1662 : BYTE    drm;                            /* Decimal rounding mode     */
; 1663 : 
; 1664 :     /* Load DRM from mask or from FPC register */
; 1665 :     if (mask & 0x08)

  00012	8b 44 24 28	 mov	 eax, DWORD PTR mask$[rsp]
  00016	83 e0 08	 and	 eax, 8
  00019	85 c0		 test	 eax, eax
  0001b	74 0c		 je	 SHORT $LN4@z900_dfp_r

; 1666 :         drm = mask & 0x07;

  0001d	8b 44 24 28	 mov	 eax, DWORD PTR mask$[rsp]
  00021	83 e0 07	 and	 eax, 7
  00024	88 04 24	 mov	 BYTE PTR drm$[rsp], al
  00027	eb 14		 jmp	 SHORT $LN5@z900_dfp_r
$LN4@z900_dfp_r:

; 1667 :     else
; 1668 :         drm = (regs->fpc & FPC_DRM) >> FPC_DRM_SHIFT;

  00029	48 8b 44 24 30	 mov	 rax, QWORD PTR regs$[rsp]
  0002e	8b 80 c0 03 00
	00		 mov	 eax, DWORD PTR [rax+960]
  00034	83 e0 70	 and	 eax, 112		; 00000070H
  00037	c1 e8 04	 shr	 eax, 4
  0003a	88 04 24	 mov	 BYTE PTR drm$[rsp], al
$LN5@z900_dfp_r:

; 1669 : 
; 1670 :     /* Set rounding mode according to DRM value */
; 1671 :     switch (drm) {

  0003d	0f b6 04 24	 movzx	 eax, BYTE PTR drm$[rsp]
  00041	89 44 24 04	 mov	 DWORD PTR tv73[rsp], eax
  00045	83 7c 24 04 07	 cmp	 DWORD PTR tv73[rsp], 7
  0004a	0f 87 86 00 00
	00		 ja	 $LN2@z900_dfp_r
  00050	48 63 44 24 04	 movsxd	 rax, DWORD PTR tv73[rsp]
  00055	48 8d 0d 00 00
	00 00		 lea	 rcx, OFFSET FLAT:__ImageBase
  0005c	8b 84 81 00 00
	00 00		 mov	 eax, DWORD PTR $LN15@z900_dfp_r[rcx+rax*4]
  00063	48 03 c1	 add	 rax, rcx
  00066	ff e0		 jmp	 rax
$LN6@z900_dfp_r:

; 1672 :     case DRM_RNE:  pset->round = DEC_ROUND_HALF_EVEN; break;

  00068	48 8b 44 24 20	 mov	 rax, QWORD PTR pset$[rsp]
  0006d	c7 40 0c 03 00
	00 00		 mov	 DWORD PTR [rax+12], 3
  00074	eb 60		 jmp	 SHORT $LN2@z900_dfp_r
$LN7@z900_dfp_r:

; 1673 :     case DRM_RTZ:  pset->round = DEC_ROUND_DOWN; break;

  00076	48 8b 44 24 20	 mov	 rax, QWORD PTR pset$[rsp]
  0007b	c7 40 0c 05 00
	00 00		 mov	 DWORD PTR [rax+12], 5
  00082	eb 52		 jmp	 SHORT $LN2@z900_dfp_r
$LN8@z900_dfp_r:

; 1674 :     case DRM_RTPI: pset->round = DEC_ROUND_CEILING; break;

  00084	48 8b 44 24 20	 mov	 rax, QWORD PTR pset$[rsp]
  00089	c7 40 0c 00 00
	00 00		 mov	 DWORD PTR [rax+12], 0
  00090	eb 44		 jmp	 SHORT $LN2@z900_dfp_r
$LN9@z900_dfp_r:

; 1675 :     case DRM_RTMI: pset->round = DEC_ROUND_FLOOR; break;

  00092	48 8b 44 24 20	 mov	 rax, QWORD PTR pset$[rsp]
  00097	c7 40 0c 06 00
	00 00		 mov	 DWORD PTR [rax+12], 6
  0009e	eb 36		 jmp	 SHORT $LN2@z900_dfp_r
$LN10@z900_dfp_r:

; 1676 :     case DRM_RNAZ: pset->round = DEC_ROUND_HALF_UP; break;

  000a0	48 8b 44 24 20	 mov	 rax, QWORD PTR pset$[rsp]
  000a5	c7 40 0c 02 00
	00 00		 mov	 DWORD PTR [rax+12], 2
  000ac	eb 28		 jmp	 SHORT $LN2@z900_dfp_r
$LN11@z900_dfp_r:

; 1677 :     case DRM_RNTZ: pset->round = DEC_ROUND_HALF_DOWN; break;

  000ae	48 8b 44 24 20	 mov	 rax, QWORD PTR pset$[rsp]
  000b3	c7 40 0c 04 00
	00 00		 mov	 DWORD PTR [rax+12], 4
  000ba	eb 1a		 jmp	 SHORT $LN2@z900_dfp_r
$LN12@z900_dfp_r:

; 1678 :     case DRM_RAFZ: pset->round = DEC_ROUND_UP; break;

  000bc	48 8b 44 24 20	 mov	 rax, QWORD PTR pset$[rsp]
  000c1	c7 40 0c 01 00
	00 00		 mov	 DWORD PTR [rax+12], 1
  000c8	eb 0c		 jmp	 SHORT $LN2@z900_dfp_r
$LN13@z900_dfp_r:

; 1679 :     case DRM_RFSP:
; 1680 :     /* Rounding mode DRM_RFSP is not supported by
; 1681 :        the decNumber library, so we arbitrarily
; 1682 :        convert it to another mode instead... */
; 1683 :         pset->round = DEC_ROUND_DOWN; break;

  000ca	48 8b 44 24 20	 mov	 rax, QWORD PTR pset$[rsp]
  000cf	c7 40 0c 05 00
	00 00		 mov	 DWORD PTR [rax+12], 5
$LN2@z900_dfp_r:

; 1684 :     } /* end switch(drm) */
; 1685 : 
; 1686 : } /* end function dfp_rounding_mode */

  000d6	48 83 c4 18	 add	 rsp, 24
  000da	c3		 ret	 0
  000db	90		 npad	 1
$LN15@z900_dfp_r:
  000dc	00 00 00 00	 DD	 $LN6@z900_dfp_r
  000e0	00 00 00 00	 DD	 $LN7@z900_dfp_r
  000e4	00 00 00 00	 DD	 $LN8@z900_dfp_r
  000e8	00 00 00 00	 DD	 $LN9@z900_dfp_r
  000ec	00 00 00 00	 DD	 $LN10@z900_dfp_r
  000f0	00 00 00 00	 DD	 $LN11@z900_dfp_r
  000f4	00 00 00 00	 DD	 $LN12@z900_dfp_r
  000f8	00 00 00 00	 DD	 $LN13@z900_dfp_r
z900_dfp_rounding_mode ENDP
_TEXT	ENDS
; Function compile flags: /Odtp
; File C:\papa\MyGit\hyperion-zvector\dfp.c
_TEXT	SEGMENT
pSign$ = 32
pad$ = 36
pwind$ = 40
i$ = 44
pDigits$ = 48
pwlen$ = 52
pSigned$ = 56
cc$ = 60
tv67 = 64
tv88 = 68
tv92 = 72
tv160 = 76
tv161 = 80
tv190 = 84
tv206 = 88
tv189 = 92
tv205 = 96
pwork$ = 112
__$ArrayPad$ = 224
dn$ = 256
dc$ = 264
packed$ = 272
len$ = 280
mask$ = 288
pset$ = 296
dfp_number_to_packed PROC

; 1551 : {

  00000	44 89 4c 24 20	 mov	 DWORD PTR [rsp+32], r9d
  00005	4c 89 44 24 18	 mov	 QWORD PTR [rsp+24], r8
  0000a	48 89 54 24 10	 mov	 QWORD PTR [rsp+16], rdx
  0000f	48 89 4c 24 08	 mov	 QWORD PTR [rsp+8], rcx
  00014	48 81 ec f8 00
	00 00		 sub	 rsp, 248		; 000000f8H
  0001b	48 8b 05 00 00
	00 00		 mov	 rax, QWORD PTR __security_cookie
  00022	48 33 c4	 xor	 rax, rsp
  00025	48 89 84 24 e0
	00 00 00	 mov	 QWORD PTR __$ArrayPad$[rsp], rax

; 1552 :     int             i;                      /* Array subscript           */
; 1553 :     int             pad;                    /* Number of padding bytes   */
; 1554 :     int             cc;                     /* Condition code            */
; 1555 :     char            pwork[MAXDECSTRLEN + 64]; /* Decimal string work area  */
; 1556 :     int             pwlen;                  /* Length of pwork string    */
; 1557 :     int             pwind;                  /* Index into pwork string   */
; 1558 :     int             pSigned;                /* packed field is signed    */
; 1559 :     unsigned char   pSign = 0x0C;           /* packed sign               */

  0002d	c6 44 24 20 0c	 mov	 BYTE PTR pSign$[rsp], 12
$LN4@dfp_number:

; 1560 :     int             pDigits;                /* number of packed digits   */
; 1561 : 
; 1562 :     UNREFERENCED(pset);

  00032	33 c0		 xor	 eax, eax
  00034	85 c0		 test	 eax, eax
  00036	75 fa		 jne	 SHORT $LN4@dfp_number

; 1563 : 
; 1564 :     /* determine whether packed value is signed and the sign field */
; 1565 :     pSigned = (m_S) ? 1 : 0;

  00038	8b 84 24 20 01
	00 00		 mov	 eax, DWORD PTR mask$[rsp]
  0003f	83 e0 08	 and	 eax, 8
  00042	85 c0		 test	 eax, eax
  00044	74 0a		 je	 SHORT $LN19@dfp_number
  00046	c7 44 24 40 01
	00 00 00	 mov	 DWORD PTR tv67[rsp], 1
  0004e	eb 08		 jmp	 SHORT $LN20@dfp_number
$LN19@dfp_number:
  00050	c7 44 24 40 00
	00 00 00	 mov	 DWORD PTR tv67[rsp], 0
$LN20@dfp_number:
  00058	8b 44 24 40	 mov	 eax, DWORD PTR tv67[rsp]
  0005c	89 44 24 38	 mov	 DWORD PTR pSigned$[rsp], eax

; 1566 :     if (pSigned) {

  00060	83 7c 24 38 00	 cmp	 DWORD PTR pSigned$[rsp], 0
  00065	0f 84 b6 00 00
	00		 je	 $LN8@dfp_number

; 1567 :         if (decNumberIsNegative(dn)) {

  0006b	48 8b 84 24 00
	01 00 00	 mov	 rax, QWORD PTR dn$[rsp]
  00073	0f b6 40 08	 movzx	 eax, BYTE PTR [rax+8]
  00077	25 80 00 00 00	 and	 eax, 128		; 00000080H
  0007c	85 c0		 test	 eax, eax
  0007e	74 78		 je	 SHORT $LN9@dfp_number

; 1568 :             pSign = 0x0D;

  00080	c6 44 24 20 0d	 mov	 BYTE PTR pSign$[rsp], 13

; 1569 :             /* -0 : force positive sign based on plus-sign-control */
; 1570 :             if ( m_F && decNumberIsZero(dn))

  00085	8b 84 24 20 01
	00 00		 mov	 eax, DWORD PTR mask$[rsp]
  0008c	83 e0 01	 and	 eax, 1
  0008f	85 c0		 test	 eax, eax
  00091	74 63		 je	 SHORT $LN11@dfp_number
  00093	b8 02 00 00 00	 mov	 eax, 2
  00098	48 6b c0 00	 imul	 rax, rax, 0
  0009c	48 8b 8c 24 00
	01 00 00	 mov	 rcx, QWORD PTR dn$[rsp]
  000a4	0f b7 44 01 0a	 movzx	 eax, WORD PTR [rcx+rax+10]
  000a9	85 c0		 test	 eax, eax
  000ab	75 49		 jne	 SHORT $LN11@dfp_number
  000ad	48 8b 84 24 00
	01 00 00	 mov	 rax, QWORD PTR dn$[rsp]
  000b5	83 38 01	 cmp	 DWORD PTR [rax], 1
  000b8	75 3c		 jne	 SHORT $LN11@dfp_number
  000ba	48 8b 84 24 00
	01 00 00	 mov	 rax, QWORD PTR dn$[rsp]
  000c2	0f b6 40 08	 movzx	 eax, BYTE PTR [rax+8]
  000c6	83 e0 70	 and	 eax, 112		; 00000070H
  000c9	85 c0		 test	 eax, eax
  000cb	75 29		 jne	 SHORT $LN11@dfp_number

; 1571 :                 pSign =  (m_P) ? 0x0F : 0x0C;      /* 0b1111 : 0b1100 */

  000cd	8b 84 24 20 01
	00 00		 mov	 eax, DWORD PTR mask$[rsp]
  000d4	83 e0 02	 and	 eax, 2
  000d7	85 c0		 test	 eax, eax
  000d9	74 0a		 je	 SHORT $LN21@dfp_number
  000db	c7 44 24 44 0f
	00 00 00	 mov	 DWORD PTR tv88[rsp], 15
  000e3	eb 08		 jmp	 SHORT $LN22@dfp_number
$LN21@dfp_number:
  000e5	c7 44 24 44 0c
	00 00 00	 mov	 DWORD PTR tv88[rsp], 12
$LN22@dfp_number:
  000ed	0f b6 44 24 44	 movzx	 eax, BYTE PTR tv88[rsp]
  000f2	88 44 24 20	 mov	 BYTE PTR pSign$[rsp], al
$LN11@dfp_number:

; 1572 :         }

  000f6	eb 29		 jmp	 SHORT $LN10@dfp_number
$LN9@dfp_number:

; 1573 :         else {
; 1574 :             /* select plus sign */
; 1575 :             pSign = (m_P) ? 0x0F : 0x0C;            /* 0b1111 : 0b1100 */

  000f8	8b 84 24 20 01
	00 00		 mov	 eax, DWORD PTR mask$[rsp]
  000ff	83 e0 02	 and	 eax, 2
  00102	85 c0		 test	 eax, eax
  00104	74 0a		 je	 SHORT $LN23@dfp_number
  00106	c7 44 24 48 0f
	00 00 00	 mov	 DWORD PTR tv92[rsp], 15
  0010e	eb 08		 jmp	 SHORT $LN24@dfp_number
$LN23@dfp_number:
  00110	c7 44 24 48 0c
	00 00 00	 mov	 DWORD PTR tv92[rsp], 12
$LN24@dfp_number:
  00118	0f b6 44 24 48	 movzx	 eax, BYTE PTR tv92[rsp]
  0011d	88 44 24 20	 mov	 BYTE PTR pSign$[rsp], al
$LN10@dfp_number:
$LN8@dfp_number:

; 1576 :         }
; 1577 :     }
; 1578 : 
; 1579 :     /* the number of packed digits */
; 1580 :     pDigits = 2 * (len + 1) - pSigned;

  00121	8b 84 24 18 01
	00 00		 mov	 eax, DWORD PTR len$[rsp]
  00128	8d 44 00 02	 lea	 eax, DWORD PTR [rax+rax+2]
  0012c	2b 44 24 38	 sub	 eax, DWORD PTR pSigned$[rsp]
  00130	89 44 24 30	 mov	 DWORD PTR pDigits$[rsp], eax

; 1581 : 
; 1582 :     /* Convert decimal number to string */
; 1583 :     /* only sigificant digits, ignore exponent and sign */
; 1584 :     if (decNumberIsNaN(dn) || (decNumberIsInfinite(dn)))

  00134	48 8b 84 24 00
	01 00 00	 mov	 rax, QWORD PTR dn$[rsp]
  0013c	0f b6 40 08	 movzx	 eax, BYTE PTR [rax+8]
  00140	83 e0 30	 and	 eax, 48			; 00000030H
  00143	85 c0		 test	 eax, eax
  00145	75 13		 jne	 SHORT $LN14@dfp_number
  00147	48 8b 84 24 00
	01 00 00	 mov	 rax, QWORD PTR dn$[rsp]
  0014f	0f b6 40 08	 movzx	 eax, BYTE PTR [rax+8]
  00153	83 e0 40	 and	 eax, 64			; 00000040H
  00156	85 c0		 test	 eax, eax
  00158	74 49		 je	 SHORT $LN12@dfp_number
$LN14@dfp_number:

; 1585 :     {
; 1586 :         /* For NaN or Inf set cc=3 and use coefficient only */
; 1587 :         cc = 3;

  0015a	c7 44 24 3c 03
	00 00 00	 mov	 DWORD PTR cc$[rsp], 3

; 1588 :         dc->exponent = 0;

  00162	48 8b 84 24 08
	01 00 00	 mov	 rax, QWORD PTR dc$[rsp]
  0016a	c7 40 04 00 00
	00 00		 mov	 DWORD PTR [rax+4], 0

; 1589 :         dc->bits &= ~(DECNEG);

  00171	48 8b 84 24 08
	01 00 00	 mov	 rax, QWORD PTR dc$[rsp]
  00179	0f b6 40 08	 movzx	 eax, BYTE PTR [rax+8]
  0017d	0f ba f0 07	 btr	 eax, 7
  00181	48 8b 8c 24 08
	01 00 00	 mov	 rcx, QWORD PTR dc$[rsp]
  00189	88 41 08	 mov	 BYTE PTR [rcx+8], al

; 1590 :         decNumberToString(dc, pwork);

  0018c	48 8d 54 24 70	 lea	 rdx, QWORD PTR pwork$[rsp]
  00191	48 8b 8c 24 08
	01 00 00	 mov	 rcx, QWORD PTR dc$[rsp]
  00199	e8 00 00 00 00	 call	 decNumberToString

; 1591 :     }

  0019e	e9 b7 00 00 00	 jmp	 $LN13@dfp_number
$LN12@dfp_number:

; 1592 :     else {
; 1593 :         /* For finite numbers set cc=0, 1, or 2 and convert digits */
; 1594 :         cc = (decNumberIsZero(dn)) ? 0 :

  001a3	b8 02 00 00 00	 mov	 eax, 2
  001a8	48 6b c0 00	 imul	 rax, rax, 0
  001ac	48 8b 8c 24 00
	01 00 00	 mov	 rcx, QWORD PTR dn$[rsp]
  001b4	0f b7 44 01 0a	 movzx	 eax, WORD PTR [rcx+rax+10]
  001b9	85 c0		 test	 eax, eax
  001bb	75 2a		 jne	 SHORT $LN25@dfp_number
  001bd	48 8b 84 24 00
	01 00 00	 mov	 rax, QWORD PTR dn$[rsp]
  001c5	83 38 01	 cmp	 DWORD PTR [rax], 1
  001c8	75 1d		 jne	 SHORT $LN25@dfp_number
  001ca	48 8b 84 24 00
	01 00 00	 mov	 rax, QWORD PTR dn$[rsp]
  001d2	0f b6 40 08	 movzx	 eax, BYTE PTR [rax+8]
  001d6	83 e0 70	 and	 eax, 112		; 00000070H
  001d9	85 c0		 test	 eax, eax
  001db	75 0a		 jne	 SHORT $LN25@dfp_number
  001dd	c7 44 24 50 00
	00 00 00	 mov	 DWORD PTR tv161[rsp], 0
  001e5	eb 2f		 jmp	 SHORT $LN28@dfp_number
$LN25@dfp_number:
  001e7	48 8b 84 24 00
	01 00 00	 mov	 rax, QWORD PTR dn$[rsp]
  001ef	0f b6 40 08	 movzx	 eax, BYTE PTR [rax+8]
  001f3	25 80 00 00 00	 and	 eax, 128		; 00000080H
  001f8	85 c0		 test	 eax, eax
  001fa	74 0a		 je	 SHORT $LN26@dfp_number
  001fc	c7 44 24 4c 01
	00 00 00	 mov	 DWORD PTR tv160[rsp], 1
  00204	eb 08		 jmp	 SHORT $LN27@dfp_number
$LN26@dfp_number:
  00206	c7 44 24 4c 02
	00 00 00	 mov	 DWORD PTR tv160[rsp], 2
$LN27@dfp_number:
  0020e	8b 44 24 4c	 mov	 eax, DWORD PTR tv160[rsp]
  00212	89 44 24 50	 mov	 DWORD PTR tv161[rsp], eax
$LN28@dfp_number:
  00216	8b 44 24 50	 mov	 eax, DWORD PTR tv161[rsp]
  0021a	89 44 24 3c	 mov	 DWORD PTR cc$[rsp], eax

; 1595 :             (decNumberIsNegative(dn)) ? 1 : 2;
; 1596 :         dn->exponent = 0;

  0021e	48 8b 84 24 00
	01 00 00	 mov	 rax, QWORD PTR dn$[rsp]
  00226	c7 40 04 00 00
	00 00		 mov	 DWORD PTR [rax+4], 0

; 1597 :         dn->bits &= ~(DECNEG);

  0022d	48 8b 84 24 00
	01 00 00	 mov	 rax, QWORD PTR dn$[rsp]
  00235	0f b6 40 08	 movzx	 eax, BYTE PTR [rax+8]
  00239	0f ba f0 07	 btr	 eax, 7
  0023d	48 8b 8c 24 00
	01 00 00	 mov	 rcx, QWORD PTR dn$[rsp]
  00245	88 41 08	 mov	 BYTE PTR [rcx+8], al

; 1598 :         decNumberToString(dn, pwork);

  00248	48 8d 54 24 70	 lea	 rdx, QWORD PTR pwork$[rsp]
  0024d	48 8b 8c 24 00
	01 00 00	 mov	 rcx, QWORD PTR dn$[rsp]
  00255	e8 00 00 00 00	 call	 decNumberToString
$LN13@dfp_number:

; 1599 :     }
; 1600 : 
; 1601 :     /* Calculate the number of padding digits needed, and set
; 1602 :        condition code 3 if significant digits will be lost */
; 1603 :     pwlen = (int)(strlen(pwork));

  0025a	48 8d 4c 24 70	 lea	 rcx, QWORD PTR pwork$[rsp]
  0025f	e8 00 00 00 00	 call	 strlen
  00264	89 44 24 34	 mov	 DWORD PTR pwlen$[rsp], eax

; 1604 :     if (pwlen <= pDigits)

  00268	8b 44 24 30	 mov	 eax, DWORD PTR pDigits$[rsp]
  0026c	39 44 24 34	 cmp	 DWORD PTR pwlen$[rsp], eax
  00270	7f 1a		 jg	 SHORT $LN15@dfp_number

; 1605 :     {
; 1606 :         pwind = 0;

  00272	c7 44 24 28 00
	00 00 00	 mov	 DWORD PTR pwind$[rsp], 0

; 1607 :         pad =  pDigits - pwlen;

  0027a	8b 44 24 34	 mov	 eax, DWORD PTR pwlen$[rsp]
  0027e	8b 4c 24 30	 mov	 ecx, DWORD PTR pDigits$[rsp]
  00282	2b c8		 sub	 ecx, eax
  00284	8b c1		 mov	 eax, ecx
  00286	89 44 24 24	 mov	 DWORD PTR pad$[rsp], eax

; 1608 :     }

  0028a	eb 20		 jmp	 SHORT $LN16@dfp_number
$LN15@dfp_number:

; 1609 :     else {
; 1610 :         pwind = pwlen - pDigits ;

  0028c	8b 44 24 30	 mov	 eax, DWORD PTR pDigits$[rsp]
  00290	8b 4c 24 34	 mov	 ecx, DWORD PTR pwlen$[rsp]
  00294	2b c8		 sub	 ecx, eax
  00296	8b c1		 mov	 eax, ecx
  00298	89 44 24 28	 mov	 DWORD PTR pwind$[rsp], eax

; 1611 :         pad = 0;

  0029c	c7 44 24 24 00
	00 00 00	 mov	 DWORD PTR pad$[rsp], 0

; 1612 :         cc = 3;

  002a4	c7 44 24 3c 03
	00 00 00	 mov	 DWORD PTR cc$[rsp], 3
$LN16@dfp_number:

; 1613 :     }
; 1614 : 
; 1615 :     /* Copy digits to packed decimal result area */
; 1616 :     for (i = 0; i <= len; i++)

  002ac	c7 44 24 2c 00
	00 00 00	 mov	 DWORD PTR i$[rsp], 0
  002b4	eb 0a		 jmp	 SHORT $LN7@dfp_number
$LN5@dfp_number:
  002b6	8b 44 24 2c	 mov	 eax, DWORD PTR i$[rsp]
  002ba	ff c0		 inc	 eax
  002bc	89 44 24 2c	 mov	 DWORD PTR i$[rsp], eax
$LN7@dfp_number:
  002c0	8b 84 24 18 01
	00 00		 mov	 eax, DWORD PTR len$[rsp]
  002c7	39 44 24 2c	 cmp	 DWORD PTR i$[rsp], eax
  002cb	0f 8f c5 00 00
	00		 jg	 $LN6@dfp_number

; 1617 :     {
; 1618 :         /* Pad with zero or copy digit from work string */
; 1619 :         packed[i]  = (((pad-- > 0) ? 0x00 : pwork[pwind++] - '0') & 0x0F ) << 4 ;

  002d1	8b 44 24 24	 mov	 eax, DWORD PTR pad$[rsp]
  002d5	89 44 24 5c	 mov	 DWORD PTR tv189[rsp], eax
  002d9	8b 44 24 24	 mov	 eax, DWORD PTR pad$[rsp]
  002dd	ff c8		 dec	 eax
  002df	89 44 24 24	 mov	 DWORD PTR pad$[rsp], eax
  002e3	83 7c 24 5c 00	 cmp	 DWORD PTR tv189[rsp], 0
  002e8	7e 0a		 jle	 SHORT $LN29@dfp_number
  002ea	c7 44 24 54 00
	00 00 00	 mov	 DWORD PTR tv190[rsp], 0
  002f2	eb 1b		 jmp	 SHORT $LN30@dfp_number
$LN29@dfp_number:
  002f4	48 63 44 24 28	 movsxd	 rax, DWORD PTR pwind$[rsp]
  002f9	0f be 44 04 70	 movsx	 eax, BYTE PTR pwork$[rsp+rax]
  002fe	83 e8 30	 sub	 eax, 48			; 00000030H
  00301	89 44 24 54	 mov	 DWORD PTR tv190[rsp], eax
  00305	8b 44 24 28	 mov	 eax, DWORD PTR pwind$[rsp]
  00309	ff c0		 inc	 eax
  0030b	89 44 24 28	 mov	 DWORD PTR pwind$[rsp], eax
$LN30@dfp_number:
  0030f	8b 44 24 54	 mov	 eax, DWORD PTR tv190[rsp]
  00313	83 e0 0f	 and	 eax, 15
  00316	c1 e0 04	 shl	 eax, 4
  00319	48 63 4c 24 2c	 movsxd	 rcx, DWORD PTR i$[rsp]
  0031e	48 8b 94 24 10
	01 00 00	 mov	 rdx, QWORD PTR packed$[rsp]
  00326	88 04 0a	 mov	 BYTE PTR [rdx+rcx], al

; 1620 :         packed[i] |=  ((pad-- > 0) ? 0x00 : pwork[pwind++] - '0') & 0x0F;

  00329	8b 44 24 24	 mov	 eax, DWORD PTR pad$[rsp]
  0032d	89 44 24 60	 mov	 DWORD PTR tv205[rsp], eax
  00331	8b 44 24 24	 mov	 eax, DWORD PTR pad$[rsp]
  00335	ff c8		 dec	 eax
  00337	89 44 24 24	 mov	 DWORD PTR pad$[rsp], eax
  0033b	83 7c 24 60 00	 cmp	 DWORD PTR tv205[rsp], 0
  00340	7e 0a		 jle	 SHORT $LN31@dfp_number
  00342	c7 44 24 58 00
	00 00 00	 mov	 DWORD PTR tv206[rsp], 0
  0034a	eb 1b		 jmp	 SHORT $LN32@dfp_number
$LN31@dfp_number:
  0034c	48 63 44 24 28	 movsxd	 rax, DWORD PTR pwind$[rsp]
  00351	0f be 44 04 70	 movsx	 eax, BYTE PTR pwork$[rsp+rax]
  00356	83 e8 30	 sub	 eax, 48			; 00000030H
  00359	89 44 24 58	 mov	 DWORD PTR tv206[rsp], eax
  0035d	8b 44 24 28	 mov	 eax, DWORD PTR pwind$[rsp]
  00361	ff c0		 inc	 eax
  00363	89 44 24 28	 mov	 DWORD PTR pwind$[rsp], eax
$LN32@dfp_number:
  00367	48 63 44 24 2c	 movsxd	 rax, DWORD PTR i$[rsp]
  0036c	8b 4c 24 58	 mov	 ecx, DWORD PTR tv206[rsp]
  00370	83 e1 0f	 and	 ecx, 15
  00373	48 8b 94 24 10
	01 00 00	 mov	 rdx, QWORD PTR packed$[rsp]
  0037b	0f be 04 02	 movsx	 eax, BYTE PTR [rdx+rax]
  0037f	0b c1		 or	 eax, ecx
  00381	48 63 4c 24 2c	 movsxd	 rcx, DWORD PTR i$[rsp]
  00386	48 8b 94 24 10
	01 00 00	 mov	 rdx, QWORD PTR packed$[rsp]
  0038e	88 04 0a	 mov	 BYTE PTR [rdx+rcx], al

; 1621 :     }

  00391	e9 20 ff ff ff	 jmp	 $LN5@dfp_number
$LN6@dfp_number:

; 1622 : 
; 1623 :     /* if signed, insert sign in final nibble */
; 1624 :     if (pSigned)

  00396	83 7c 24 38 00	 cmp	 DWORD PTR pSigned$[rsp], 0
  0039b	74 5a		 je	 SHORT $LN17@dfp_number

; 1625 :     {
; 1626 :         packed[len] &= 0xF0;

  0039d	48 63 84 24 18
	01 00 00	 movsxd	 rax, DWORD PTR len$[rsp]
  003a5	48 8b 8c 24 10
	01 00 00	 mov	 rcx, QWORD PTR packed$[rsp]
  003ad	0f be 04 01	 movsx	 eax, BYTE PTR [rcx+rax]
  003b1	25 f0 00 00 00	 and	 eax, 240		; 000000f0H
  003b6	48 63 8c 24 18
	01 00 00	 movsxd	 rcx, DWORD PTR len$[rsp]
  003be	48 8b 94 24 10
	01 00 00	 mov	 rdx, QWORD PTR packed$[rsp]
  003c6	88 04 0a	 mov	 BYTE PTR [rdx+rcx], al

; 1627 :         packed[len] |= pSign;

  003c9	48 63 84 24 18
	01 00 00	 movsxd	 rax, DWORD PTR len$[rsp]
  003d1	0f b6 4c 24 20	 movzx	 ecx, BYTE PTR pSign$[rsp]
  003d6	48 8b 94 24 10
	01 00 00	 mov	 rdx, QWORD PTR packed$[rsp]
  003de	0f be 04 02	 movsx	 eax, BYTE PTR [rdx+rax]
  003e2	0b c1		 or	 eax, ecx
  003e4	48 63 8c 24 18
	01 00 00	 movsxd	 rcx, DWORD PTR len$[rsp]
  003ec	48 8b 94 24 10
	01 00 00	 mov	 rdx, QWORD PTR packed$[rsp]
  003f4	88 04 0a	 mov	 BYTE PTR [rdx+rcx], al
$LN17@dfp_number:

; 1628 :     }
; 1629 : 
; 1630 :     /* Return the condition code */
; 1631 :     return cc;

  003f7	8b 44 24 3c	 mov	 eax, DWORD PTR cc$[rsp]

; 1632 : 
; 1633 : } /* end function dfp_number_to_packed */

  003fb	48 8b 8c 24 e0
	00 00 00	 mov	 rcx, QWORD PTR __$ArrayPad$[rsp]
  00403	48 33 cc	 xor	 rcx, rsp
  00406	e8 00 00 00 00	 call	 __security_check_cookie
  0040b	48 81 c4 f8 00
	00 00		 add	 rsp, 248		; 000000f8H
  00412	c3		 ret	 0
dfp_number_to_packed ENDP
_TEXT	ENDS
; Function compile flags: /Odtp
; File C:\papa\MyGit\hyperion-zvector\dfp.c
_TEXT	SEGMENT
c$ = 32
i$ = 36
ppw$ = 40
tv77 = 48
tv66 = 52
tv69 = 56
signflag$ = 60
ignoreflag$ = 64
pwork$ = 72
__$ArrayPad$ = 112
dn$ = 144
packed$ = 152
len$ = 160
mask$ = 168
pset$ = 176
dfp_number_from_packed PROC

; 1471 : {

  00000	44 89 4c 24 20	 mov	 DWORD PTR [rsp+32], r9d
  00005	44 89 44 24 18	 mov	 DWORD PTR [rsp+24], r8d
  0000a	48 89 54 24 10	 mov	 QWORD PTR [rsp+16], rdx
  0000f	48 89 4c 24 08	 mov	 QWORD PTR [rsp+8], rcx
  00014	48 81 ec 88 00
	00 00		 sub	 rsp, 136		; 00000088H
  0001b	48 8b 05 00 00
	00 00		 mov	 rax, QWORD PTR __security_cookie
  00022	48 33 c4	 xor	 rax, rsp
  00025	48 89 44 24 70	 mov	 QWORD PTR __$ArrayPad$[rsp], rax

; 1472 :     int             i;                      /* Array subscript           */
; 1473 :     int             signflag;               /* 1=signed decimal operand  */
; 1474 :     int             ignoreflag;             /* 1=ignore sign             */
; 1475 :     char            pwork[1 + (CXPT_MAXLEN*2) + 1]; /* Sign + digits + null      */
; 1476 :     char*           ppw = pwork;            /* Addr next byte in pwork   */

  0002a	48 8d 44 24 48	 lea	 rax, QWORD PTR pwork$[rsp]
  0002f	48 89 44 24 28	 mov	 QWORD PTR ppw$[rsp], rax

; 1477 :     char            c;                      /* Character work area       */
; 1478 : 
; 1479 :     /* Set the signed & ignore flags as indicated by the mask */
; 1480 :     signflag   = m_S ? 1 : 0;

  00034	8b 84 24 a8 00
	00 00		 mov	 eax, DWORD PTR mask$[rsp]
  0003b	83 e0 08	 and	 eax, 8
  0003e	85 c0		 test	 eax, eax
  00040	74 0a		 je	 SHORT $LN20@dfp_number
  00042	c7 44 24 34 01
	00 00 00	 mov	 DWORD PTR tv66[rsp], 1
  0004a	eb 08		 jmp	 SHORT $LN21@dfp_number
$LN20@dfp_number:
  0004c	c7 44 24 34 00
	00 00 00	 mov	 DWORD PTR tv66[rsp], 0
$LN21@dfp_number:
  00054	8b 44 24 34	 mov	 eax, DWORD PTR tv66[rsp]
  00058	89 44 24 3c	 mov	 DWORD PTR signflag$[rsp], eax

; 1481 :     ignoreflag = m_I ? 1 : 0;

  0005c	8b 84 24 a8 00
	00 00		 mov	 eax, DWORD PTR mask$[rsp]
  00063	83 e0 01	 and	 eax, 1
  00066	85 c0		 test	 eax, eax
  00068	74 0a		 je	 SHORT $LN22@dfp_number
  0006a	c7 44 24 38 01
	00 00 00	 mov	 DWORD PTR tv69[rsp], 1
  00072	eb 08		 jmp	 SHORT $LN23@dfp_number
$LN22@dfp_number:
  00074	c7 44 24 38 00
	00 00 00	 mov	 DWORD PTR tv69[rsp], 0
$LN23@dfp_number:
  0007c	8b 44 24 38	 mov	 eax, DWORD PTR tv69[rsp]
  00080	89 44 24 40	 mov	 DWORD PTR ignoreflag$[rsp], eax

; 1482 : 
; 1483 :     /* Set the sign according to the operand sign code */
; 1484 :     if (signflag) {

  00084	83 7c 24 3c 00	 cmp	 DWORD PTR signflag$[rsp], 0
  00089	74 6f		 je	 SHORT $LN7@dfp_number

; 1485 :         if (!ignoreflag) {

  0008b	83 7c 24 40 00	 cmp	 DWORD PTR ignoreflag$[rsp], 0
  00090	75 68		 jne	 SHORT $LN8@dfp_number

; 1486 :             switch ((packed[len] & 0x0F)) {

  00092	48 63 84 24 a0
	00 00 00	 movsxd	 rax, DWORD PTR len$[rsp]
  0009a	48 8b 8c 24 98
	00 00 00	 mov	 rcx, QWORD PTR packed$[rsp]
  000a2	0f be 04 01	 movsx	 eax, BYTE PTR [rcx+rax]
  000a6	83 e0 0f	 and	 eax, 15
  000a9	89 44 24 30	 mov	 DWORD PTR tv77[rsp], eax
  000ad	8b 44 24 30	 mov	 eax, DWORD PTR tv77[rsp]
  000b1	83 e8 0a	 sub	 eax, 10
  000b4	89 44 24 30	 mov	 DWORD PTR tv77[rsp], eax
  000b8	83 7c 24 30 05	 cmp	 DWORD PTR tv77[rsp], 5
  000bd	77 31		 ja	 SHORT $LN15@dfp_number
  000bf	48 63 44 24 30	 movsxd	 rax, DWORD PTR tv77[rsp]
  000c4	48 8d 0d 00 00
	00 00		 lea	 rcx, OFFSET FLAT:__ImageBase
  000cb	8b 84 81 00 00
	00 00		 mov	 eax, DWORD PTR $LN24@dfp_number[rcx+rax*4]
  000d2	48 03 c1	 add	 rax, rcx
  000d5	ff e0		 jmp	 rax
$LN9@dfp_number:
$LN10@dfp_number:

; 1487 :             case 0xB: case 0xD:
; 1488 :                 *ppw++ = '-'; break;

  000d7	48 8b 44 24 28	 mov	 rax, QWORD PTR ppw$[rsp]
  000dc	c6 00 2d	 mov	 BYTE PTR [rax], 45	; 0000002dH
  000df	48 8b 44 24 28	 mov	 rax, QWORD PTR ppw$[rsp]
  000e4	48 ff c0	 inc	 rax
  000e7	48 89 44 24 28	 mov	 QWORD PTR ppw$[rsp], rax
  000ec	eb 0c		 jmp	 SHORT $LN2@dfp_number
$LN11@dfp_number:
$LN12@dfp_number:
$LN13@dfp_number:
$LN14@dfp_number:

; 1489 :             case 0xA: case 0xC: case 0xE: case 0xF:
; 1490 :                 break;

  000ee	eb 0a		 jmp	 SHORT $LN2@dfp_number
$LN15@dfp_number:

; 1491 :             default:
; 1492 :                 /* Data exception if invalid sign code */
; 1493 :                 return 1;

  000f0	b8 01 00 00 00	 mov	 eax, 1
  000f5	e9 f6 00 00 00	 jmp	 $LN1@dfp_number
$LN2@dfp_number:
$LN8@dfp_number:
$LN7@dfp_number:

; 1494 :             }
; 1495 :         }
; 1496 :     }
; 1497 : 
; 1498 :     /* Convert packed number to a decimal string */
; 1499 :     for (i = 0; i <= len; i++)

  000fa	c7 44 24 24 00
	00 00 00	 mov	 DWORD PTR i$[rsp], 0
  00102	eb 0a		 jmp	 SHORT $LN6@dfp_number
$LN4@dfp_number:
  00104	8b 44 24 24	 mov	 eax, DWORD PTR i$[rsp]
  00108	ff c0		 inc	 eax
  0010a	89 44 24 24	 mov	 DWORD PTR i$[rsp], eax
$LN6@dfp_number:
  0010e	8b 84 24 a0 00
	00 00		 mov	 eax, DWORD PTR len$[rsp]
  00115	39 44 24 24	 cmp	 DWORD PTR i$[rsp], eax
  00119	0f 8f ad 00 00
	00		 jg	 $LN5@dfp_number

; 1500 :     {
; 1501 :         /* 1st digit of byte */
; 1502 :         c = (packed[i] & 0xF0) >> 4;

  0011f	48 63 44 24 24	 movsxd	 rax, DWORD PTR i$[rsp]
  00124	48 8b 8c 24 98
	00 00 00	 mov	 rcx, QWORD PTR packed$[rsp]
  0012c	0f be 04 01	 movsx	 eax, BYTE PTR [rcx+rax]
  00130	25 f0 00 00 00	 and	 eax, 240		; 000000f0H
  00135	c1 f8 04	 sar	 eax, 4
  00138	88 44 24 20	 mov	 BYTE PTR c$[rsp], al

; 1503 :         /* Data exception if invalid digit */
; 1504 :         if (c > 0x09) return 1;

  0013c	0f be 44 24 20	 movsx	 eax, BYTE PTR c$[rsp]
  00141	83 f8 09	 cmp	 eax, 9
  00144	7e 0a		 jle	 SHORT $LN16@dfp_number
  00146	b8 01 00 00 00	 mov	 eax, 1
  0014b	e9 a0 00 00 00	 jmp	 $LN1@dfp_number
$LN16@dfp_number:

; 1505 :         *ppw++ = c + '0';

  00150	0f be 44 24 20	 movsx	 eax, BYTE PTR c$[rsp]
  00155	83 c0 30	 add	 eax, 48			; 00000030H
  00158	48 8b 4c 24 28	 mov	 rcx, QWORD PTR ppw$[rsp]
  0015d	88 01		 mov	 BYTE PTR [rcx], al
  0015f	48 8b 44 24 28	 mov	 rax, QWORD PTR ppw$[rsp]
  00164	48 ff c0	 inc	 rax
  00167	48 89 44 24 28	 mov	 QWORD PTR ppw$[rsp], rax

; 1506 : 
; 1507 :         if (i == len && signflag) break;   /* is last nibble a sign, already done */

  0016c	8b 84 24 a0 00
	00 00		 mov	 eax, DWORD PTR len$[rsp]
  00173	39 44 24 24	 cmp	 DWORD PTR i$[rsp], eax
  00177	75 09		 jne	 SHORT $LN17@dfp_number
  00179	83 7c 24 3c 00	 cmp	 DWORD PTR signflag$[rsp], 0
  0017e	74 02		 je	 SHORT $LN17@dfp_number
  00180	eb 4a		 jmp	 SHORT $LN5@dfp_number
$LN17@dfp_number:

; 1508 : 
; 1509 :         /* 2nd digit of byte */
; 1510 :         c = packed[i] & 0x0F;

  00182	48 63 44 24 24	 movsxd	 rax, DWORD PTR i$[rsp]
  00187	48 8b 8c 24 98
	00 00 00	 mov	 rcx, QWORD PTR packed$[rsp]
  0018f	0f be 04 01	 movsx	 eax, BYTE PTR [rcx+rax]
  00193	83 e0 0f	 and	 eax, 15
  00196	88 44 24 20	 mov	 BYTE PTR c$[rsp], al

; 1511 :         /* Data exception if invalid digit */
; 1512 :         if (c > 0x09) return 1;

  0019a	0f be 44 24 20	 movsx	 eax, BYTE PTR c$[rsp]
  0019f	83 f8 09	 cmp	 eax, 9
  001a2	7e 07		 jle	 SHORT $LN18@dfp_number
  001a4	b8 01 00 00 00	 mov	 eax, 1
  001a9	eb 45		 jmp	 SHORT $LN1@dfp_number
$LN18@dfp_number:

; 1513 :         *ppw++ = c + '0';

  001ab	0f be 44 24 20	 movsx	 eax, BYTE PTR c$[rsp]
  001b0	83 c0 30	 add	 eax, 48			; 00000030H
  001b3	48 8b 4c 24 28	 mov	 rcx, QWORD PTR ppw$[rsp]
  001b8	88 01		 mov	 BYTE PTR [rcx], al
  001ba	48 8b 44 24 28	 mov	 rax, QWORD PTR ppw$[rsp]
  001bf	48 ff c0	 inc	 rax
  001c2	48 89 44 24 28	 mov	 QWORD PTR ppw$[rsp], rax

; 1514 :     }

  001c7	e9 38 ff ff ff	 jmp	 $LN4@dfp_number
$LN5@dfp_number:

; 1515 :     *ppw = '\0';

  001cc	48 8b 44 24 28	 mov	 rax, QWORD PTR ppw$[rsp]
  001d1	c6 00 00	 mov	 BYTE PTR [rax], 0

; 1516 : 
; 1517 :     /* Convert decimal string to decimal number structure */
; 1518 :     decNumberFromString(dn, pwork, pset);

  001d4	4c 8b 84 24 b0
	00 00 00	 mov	 r8, QWORD PTR pset$[rsp]
  001dc	48 8d 54 24 48	 lea	 rdx, QWORD PTR pwork$[rsp]
  001e1	48 8b 8c 24 90
	00 00 00	 mov	 rcx, QWORD PTR dn$[rsp]
  001e9	e8 00 00 00 00	 call	 decNumberFromString

; 1519 : 
; 1520 :     return 0;

  001ee	33 c0		 xor	 eax, eax
$LN1@dfp_number:

; 1521 : 
; 1522 : } /* end function dfp_number_from_packed */

  001f0	48 8b 4c 24 70	 mov	 rcx, QWORD PTR __$ArrayPad$[rsp]
  001f5	48 33 cc	 xor	 rcx, rsp
  001f8	e8 00 00 00 00	 call	 __security_check_cookie
  001fd	48 81 c4 88 00
	00 00		 add	 rsp, 136		; 00000088H
  00204	c3		 ret	 0
  00205	0f 1f 00	 npad	 3
$LN24@dfp_number:
  00208	00 00 00 00	 DD	 $LN11@dfp_number
  0020c	00 00 00 00	 DD	 $LN9@dfp_number
  00210	00 00 00 00	 DD	 $LN12@dfp_number
  00214	00 00 00 00	 DD	 $LN10@dfp_number
  00218	00 00 00 00	 DD	 $LN13@dfp_number
  0021c	00 00 00 00	 DD	 $LN14@dfp_number
dfp_number_from_packed ENDP
_TEXT	ENDS
; Function compile flags: /Odtp
; File C:\papa\MyGit\hyperion-zvector\dfp.c
_TEXT	SEGMENT
i$ = 32
pad$ = 36
zwind$ = 40
zwlen$ = 44
cc$ = 48
tv69 = 52
tv146 = 56
tv147 = 60
tv177 = 64
tv186 = 68
sign$ = 72
tv212 = 76
tv214 = 80
zwork$ = 96
__$ArrayPad$ = 208
dn$ = 240
dc$ = 248
zoned$ = 256
len$ = 264
mask$ = 272
pset$ = 280
dfp_number_to_zoned PROC

; 1364 : {

  00000	44 89 4c 24 20	 mov	 DWORD PTR [rsp+32], r9d
  00005	4c 89 44 24 18	 mov	 QWORD PTR [rsp+24], r8
  0000a	48 89 54 24 10	 mov	 QWORD PTR [rsp+16], rdx
  0000f	48 89 4c 24 08	 mov	 QWORD PTR [rsp+8], rcx
  00014	48 81 ec e8 00
	00 00		 sub	 rsp, 232		; 000000e8H
  0001b	48 8b 05 00 00
	00 00		 mov	 rax, QWORD PTR __security_cookie
  00022	48 33 c4	 xor	 rax, rsp
  00025	48 89 84 24 d0
	00 00 00	 mov	 QWORD PTR __$ArrayPad$[rsp], rax
$LN4@dfp_number:

; 1365 : int             i;                      /* Array subscript           */
; 1366 : int             pad;                    /* Number of padding bytes   */
; 1367 : int             cc;                     /* Condition code            */
; 1368 : int             sign;                   /* 1=negative number         */
; 1369 : char            zwork[MAXDECSTRLEN+64]; /* Decimal string work area  */
; 1370 : int             zwlen;                  /* Length of zwork string    */
; 1371 : int             zwind;                  /* Index into zwork string   */
; 1372 : 
; 1373 :     UNREFERENCED(pset);

  0002d	33 c0		 xor	 eax, eax
  0002f	85 c0		 test	 eax, eax
  00031	75 fa		 jne	 SHORT $LN4@dfp_number

; 1374 : 
; 1375 :     /* Determine if the number is negative or positive */
; 1376 :     sign = (decNumberIsNegative(dn)) ? 1 : 0;

  00033	48 8b 84 24 f0
	00 00 00	 mov	 rax, QWORD PTR dn$[rsp]
  0003b	0f b6 40 08	 movzx	 eax, BYTE PTR [rax+8]
  0003f	25 80 00 00 00	 and	 eax, 128		; 00000080H
  00044	85 c0		 test	 eax, eax
  00046	74 0a		 je	 SHORT $LN17@dfp_number
  00048	c7 44 24 34 01
	00 00 00	 mov	 DWORD PTR tv69[rsp], 1
  00050	eb 08		 jmp	 SHORT $LN18@dfp_number
$LN17@dfp_number:
  00052	c7 44 24 34 00
	00 00 00	 mov	 DWORD PTR tv69[rsp], 0
$LN18@dfp_number:
  0005a	8b 44 24 34	 mov	 eax, DWORD PTR tv69[rsp]
  0005e	89 44 24 48	 mov	 DWORD PTR sign$[rsp], eax

; 1377 : 
; 1378 :     /* Force plus zero if mask bit 3 is set */
; 1379 :     if ((mask & 0x1) && decNumberIsZero(dn)) sign = 0;

  00062	8b 84 24 10 01
	00 00		 mov	 eax, DWORD PTR mask$[rsp]
  00069	83 e0 01	 and	 eax, 1
  0006c	85 c0		 test	 eax, eax
  0006e	74 42		 je	 SHORT $LN8@dfp_number
  00070	b8 02 00 00 00	 mov	 eax, 2
  00075	48 6b c0 00	 imul	 rax, rax, 0
  00079	48 8b 8c 24 f0
	00 00 00	 mov	 rcx, QWORD PTR dn$[rsp]
  00081	0f b7 44 01 0a	 movzx	 eax, WORD PTR [rcx+rax+10]
  00086	85 c0		 test	 eax, eax
  00088	75 28		 jne	 SHORT $LN8@dfp_number
  0008a	48 8b 84 24 f0
	00 00 00	 mov	 rax, QWORD PTR dn$[rsp]
  00092	83 38 01	 cmp	 DWORD PTR [rax], 1
  00095	75 1b		 jne	 SHORT $LN8@dfp_number
  00097	48 8b 84 24 f0
	00 00 00	 mov	 rax, QWORD PTR dn$[rsp]
  0009f	0f b6 40 08	 movzx	 eax, BYTE PTR [rax+8]
  000a3	83 e0 70	 and	 eax, 112		; 00000070H
  000a6	85 c0		 test	 eax, eax
  000a8	75 08		 jne	 SHORT $LN8@dfp_number
  000aa	c7 44 24 48 00
	00 00 00	 mov	 DWORD PTR sign$[rsp], 0
$LN8@dfp_number:

; 1380 : 
; 1381 :     /* Convert decimal number to string */
; 1382 :     if (decNumberIsNaN(dn) || (decNumberIsInfinite(dn)))

  000b2	48 8b 84 24 f0
	00 00 00	 mov	 rax, QWORD PTR dn$[rsp]
  000ba	0f b6 40 08	 movzx	 eax, BYTE PTR [rax+8]
  000be	83 e0 30	 and	 eax, 48			; 00000030H
  000c1	85 c0		 test	 eax, eax
  000c3	75 13		 jne	 SHORT $LN11@dfp_number
  000c5	48 8b 84 24 f0
	00 00 00	 mov	 rax, QWORD PTR dn$[rsp]
  000cd	0f b6 40 08	 movzx	 eax, BYTE PTR [rax+8]
  000d1	83 e0 40	 and	 eax, 64			; 00000040H
  000d4	85 c0		 test	 eax, eax
  000d6	74 49		 je	 SHORT $LN9@dfp_number
$LN11@dfp_number:

; 1383 :     {
; 1384 :         /* For NaN or Inf set cc=3 and use coefficient only */
; 1385 :         cc = 3;

  000d8	c7 44 24 30 03
	00 00 00	 mov	 DWORD PTR cc$[rsp], 3

; 1386 :         dc->exponent = 0;

  000e0	48 8b 84 24 f8
	00 00 00	 mov	 rax, QWORD PTR dc$[rsp]
  000e8	c7 40 04 00 00
	00 00		 mov	 DWORD PTR [rax+4], 0

; 1387 :         dc->bits &= ~(DECNEG);

  000ef	48 8b 84 24 f8
	00 00 00	 mov	 rax, QWORD PTR dc$[rsp]
  000f7	0f b6 40 08	 movzx	 eax, BYTE PTR [rax+8]
  000fb	0f ba f0 07	 btr	 eax, 7
  000ff	48 8b 8c 24 f8
	00 00 00	 mov	 rcx, QWORD PTR dc$[rsp]
  00107	88 41 08	 mov	 BYTE PTR [rcx+8], al

; 1388 :         decNumberToString(dc, zwork);

  0010a	48 8d 54 24 60	 lea	 rdx, QWORD PTR zwork$[rsp]
  0010f	48 8b 8c 24 f8
	00 00 00	 mov	 rcx, QWORD PTR dc$[rsp]
  00117	e8 00 00 00 00	 call	 decNumberToString

; 1389 :     } else {

  0011c	e9 b7 00 00 00	 jmp	 $LN10@dfp_number
$LN9@dfp_number:

; 1390 :         /* For finite numbers set cc=0, 1, or 2 and convert digits */
; 1391 :         cc = (decNumberIsZero(dn)) ? 0 :

  00121	b8 02 00 00 00	 mov	 eax, 2
  00126	48 6b c0 00	 imul	 rax, rax, 0
  0012a	48 8b 8c 24 f0
	00 00 00	 mov	 rcx, QWORD PTR dn$[rsp]
  00132	0f b7 44 01 0a	 movzx	 eax, WORD PTR [rcx+rax+10]
  00137	85 c0		 test	 eax, eax
  00139	75 2a		 jne	 SHORT $LN19@dfp_number
  0013b	48 8b 84 24 f0
	00 00 00	 mov	 rax, QWORD PTR dn$[rsp]
  00143	83 38 01	 cmp	 DWORD PTR [rax], 1
  00146	75 1d		 jne	 SHORT $LN19@dfp_number
  00148	48 8b 84 24 f0
	00 00 00	 mov	 rax, QWORD PTR dn$[rsp]
  00150	0f b6 40 08	 movzx	 eax, BYTE PTR [rax+8]
  00154	83 e0 70	 and	 eax, 112		; 00000070H
  00157	85 c0		 test	 eax, eax
  00159	75 0a		 jne	 SHORT $LN19@dfp_number
  0015b	c7 44 24 3c 00
	00 00 00	 mov	 DWORD PTR tv147[rsp], 0
  00163	eb 2f		 jmp	 SHORT $LN22@dfp_number
$LN19@dfp_number:
  00165	48 8b 84 24 f0
	00 00 00	 mov	 rax, QWORD PTR dn$[rsp]
  0016d	0f b6 40 08	 movzx	 eax, BYTE PTR [rax+8]
  00171	25 80 00 00 00	 and	 eax, 128		; 00000080H
  00176	85 c0		 test	 eax, eax
  00178	74 0a		 je	 SHORT $LN20@dfp_number
  0017a	c7 44 24 38 01
	00 00 00	 mov	 DWORD PTR tv146[rsp], 1
  00182	eb 08		 jmp	 SHORT $LN21@dfp_number
$LN20@dfp_number:
  00184	c7 44 24 38 02
	00 00 00	 mov	 DWORD PTR tv146[rsp], 2
$LN21@dfp_number:
  0018c	8b 44 24 38	 mov	 eax, DWORD PTR tv146[rsp]
  00190	89 44 24 3c	 mov	 DWORD PTR tv147[rsp], eax
$LN22@dfp_number:
  00194	8b 44 24 3c	 mov	 eax, DWORD PTR tv147[rsp]
  00198	89 44 24 30	 mov	 DWORD PTR cc$[rsp], eax

; 1392 :             (decNumberIsNegative(dn)) ? 1 : 2;
; 1393 :         dn->exponent = 0;

  0019c	48 8b 84 24 f0
	00 00 00	 mov	 rax, QWORD PTR dn$[rsp]
  001a4	c7 40 04 00 00
	00 00		 mov	 DWORD PTR [rax+4], 0

; 1394 :         dn->bits &= ~(DECNEG);

  001ab	48 8b 84 24 f0
	00 00 00	 mov	 rax, QWORD PTR dn$[rsp]
  001b3	0f b6 40 08	 movzx	 eax, BYTE PTR [rax+8]
  001b7	0f ba f0 07	 btr	 eax, 7
  001bb	48 8b 8c 24 f0
	00 00 00	 mov	 rcx, QWORD PTR dn$[rsp]
  001c3	88 41 08	 mov	 BYTE PTR [rcx+8], al

; 1395 :         decNumberToString(dn, zwork);

  001c6	48 8d 54 24 60	 lea	 rdx, QWORD PTR zwork$[rsp]
  001cb	48 8b 8c 24 f0
	00 00 00	 mov	 rcx, QWORD PTR dn$[rsp]
  001d3	e8 00 00 00 00	 call	 decNumberToString
$LN10@dfp_number:

; 1396 :     }
; 1397 : 
; 1398 :     /* Calculate the number of padding bytes needed, and set
; 1399 :        condition code 3 if significant digits will be lost */
; 1400 :     zwlen = (int)(strlen(zwork));

  001d8	48 8d 4c 24 60	 lea	 rcx, QWORD PTR zwork$[rsp]
  001dd	e8 00 00 00 00	 call	 strlen
  001e2	89 44 24 2c	 mov	 DWORD PTR zwlen$[rsp], eax

; 1401 :     if (zwlen <= len + 1)

  001e6	8b 84 24 08 01
	00 00		 mov	 eax, DWORD PTR len$[rsp]
  001ed	ff c0		 inc	 eax
  001ef	39 44 24 2c	 cmp	 DWORD PTR zwlen$[rsp], eax
  001f3	7f 1b		 jg	 SHORT $LN12@dfp_number

; 1402 :     {
; 1403 :         zwind = 0;

  001f5	c7 44 24 28 00
	00 00 00	 mov	 DWORD PTR zwind$[rsp], 0

; 1404 :         pad = len + 1 - zwlen;

  001fd	8b 84 24 08 01
	00 00		 mov	 eax, DWORD PTR len$[rsp]
  00204	ff c0		 inc	 eax
  00206	2b 44 24 2c	 sub	 eax, DWORD PTR zwlen$[rsp]
  0020a	89 44 24 24	 mov	 DWORD PTR pad$[rsp], eax

; 1405 :     } else {

  0020e	eb 25		 jmp	 SHORT $LN13@dfp_number
$LN12@dfp_number:

; 1406 :         zwind = zwlen - len - 1;

  00210	8b 84 24 08 01
	00 00		 mov	 eax, DWORD PTR len$[rsp]
  00217	8b 4c 24 2c	 mov	 ecx, DWORD PTR zwlen$[rsp]
  0021b	2b c8		 sub	 ecx, eax
  0021d	8b c1		 mov	 eax, ecx
  0021f	ff c8		 dec	 eax
  00221	89 44 24 28	 mov	 DWORD PTR zwind$[rsp], eax

; 1407 :         pad = 0;

  00225	c7 44 24 24 00
	00 00 00	 mov	 DWORD PTR pad$[rsp], 0

; 1408 :         cc = 3;

  0022d	c7 44 24 30 03
	00 00 00	 mov	 DWORD PTR cc$[rsp], 3
$LN13@dfp_number:

; 1409 :     }
; 1410 : 
; 1411 :     /* Copy digits to zoned decimal result area */
; 1412 :     for (i = 0; i <= len; i++)

  00235	c7 44 24 20 00
	00 00 00	 mov	 DWORD PTR i$[rsp], 0
  0023d	eb 0a		 jmp	 SHORT $LN7@dfp_number
$LN5@dfp_number:
  0023f	8b 44 24 20	 mov	 eax, DWORD PTR i$[rsp]
  00243	ff c0		 inc	 eax
  00245	89 44 24 20	 mov	 DWORD PTR i$[rsp], eax
$LN7@dfp_number:
  00249	8b 84 24 08 01
	00 00		 mov	 eax, DWORD PTR len$[rsp]
  00250	39 44 24 20	 cmp	 DWORD PTR i$[rsp], eax
  00254	0f 8f 9c 00 00
	00		 jg	 $LN6@dfp_number

; 1413 :     {
; 1414 :         /* Pad with zero or copy digit from work string */
; 1415 :         zoned[i] = (pad > 0) ? 0x00 : zwork[zwind++] - '0';

  0025a	83 7c 24 24 00	 cmp	 DWORD PTR pad$[rsp], 0
  0025f	7e 0a		 jle	 SHORT $LN23@dfp_number
  00261	c7 44 24 40 00
	00 00 00	 mov	 DWORD PTR tv177[rsp], 0
  00269	eb 1b		 jmp	 SHORT $LN24@dfp_number
$LN23@dfp_number:
  0026b	48 63 44 24 28	 movsxd	 rax, DWORD PTR zwind$[rsp]
  00270	0f be 44 04 60	 movsx	 eax, BYTE PTR zwork$[rsp+rax]
  00275	83 e8 30	 sub	 eax, 48			; 00000030H
  00278	89 44 24 40	 mov	 DWORD PTR tv177[rsp], eax
  0027c	8b 44 24 28	 mov	 eax, DWORD PTR zwind$[rsp]
  00280	ff c0		 inc	 eax
  00282	89 44 24 28	 mov	 DWORD PTR zwind$[rsp], eax
$LN24@dfp_number:
  00286	48 63 44 24 20	 movsxd	 rax, DWORD PTR i$[rsp]
  0028b	48 8b 8c 24 00
	01 00 00	 mov	 rcx, QWORD PTR zoned$[rsp]
  00293	0f b6 54 24 40	 movzx	 edx, BYTE PTR tv177[rsp]
  00298	88 14 01	 mov	 BYTE PTR [rcx+rax], dl

; 1416 :         if (pad > 0) pad--;

  0029b	83 7c 24 24 00	 cmp	 DWORD PTR pad$[rsp], 0
  002a0	7e 0a		 jle	 SHORT $LN14@dfp_number
  002a2	8b 44 24 24	 mov	 eax, DWORD PTR pad$[rsp]
  002a6	ff c8		 dec	 eax
  002a8	89 44 24 24	 mov	 DWORD PTR pad$[rsp], eax
$LN14@dfp_number:

; 1417 :         /* Set ASCII or EBCDIC zone according to mask bit 1 */
; 1418 :         zoned[i] |= (mask & 0x4) ? 0x30 : 0xF0;

  002ac	8b 84 24 10 01
	00 00		 mov	 eax, DWORD PTR mask$[rsp]
  002b3	83 e0 04	 and	 eax, 4
  002b6	85 c0		 test	 eax, eax
  002b8	74 0a		 je	 SHORT $LN25@dfp_number
  002ba	c7 44 24 44 30
	00 00 00	 mov	 DWORD PTR tv186[rsp], 48 ; 00000030H
  002c2	eb 08		 jmp	 SHORT $LN26@dfp_number
$LN25@dfp_number:
  002c4	c7 44 24 44 f0
	00 00 00	 mov	 DWORD PTR tv186[rsp], 240 ; 000000f0H
$LN26@dfp_number:
  002cc	48 63 44 24 20	 movsxd	 rax, DWORD PTR i$[rsp]
  002d1	48 8b 8c 24 00
	01 00 00	 mov	 rcx, QWORD PTR zoned$[rsp]
  002d9	0f be 04 01	 movsx	 eax, BYTE PTR [rcx+rax]
  002dd	0b 44 24 44	 or	 eax, DWORD PTR tv186[rsp]
  002e1	48 63 4c 24 20	 movsxd	 rcx, DWORD PTR i$[rsp]
  002e6	48 8b 94 24 00
	01 00 00	 mov	 rdx, QWORD PTR zoned$[rsp]
  002ee	88 04 0a	 mov	 BYTE PTR [rdx+rcx], al

; 1419 :     }

  002f1	e9 49 ff ff ff	 jmp	 $LN5@dfp_number
$LN6@dfp_number:

; 1420 : 
; 1421 :     /* Replace final zone by EBCDIC sign if mask bit 0 is one */
; 1422 :     if (mask & 0x8)

  002f6	8b 84 24 10 01
	00 00		 mov	 eax, DWORD PTR mask$[rsp]
  002fd	83 e0 08	 and	 eax, 8
  00300	85 c0		 test	 eax, eax
  00302	0f 84 90 00 00
	00		 je	 $LN15@dfp_number

; 1423 :     {
; 1424 :         /* -ve sign is D, +ve sign is F or C depending on mask bit 2 */
; 1425 :         zoned[i-1] &= 0x0F;

  00308	8b 44 24 20	 mov	 eax, DWORD PTR i$[rsp]
  0030c	ff c8		 dec	 eax
  0030e	48 98		 cdqe
  00310	48 8b 8c 24 00
	01 00 00	 mov	 rcx, QWORD PTR zoned$[rsp]
  00318	0f be 04 01	 movsx	 eax, BYTE PTR [rcx+rax]
  0031c	83 e0 0f	 and	 eax, 15
  0031f	8b 4c 24 20	 mov	 ecx, DWORD PTR i$[rsp]
  00323	ff c9		 dec	 ecx
  00325	48 63 c9	 movsxd	 rcx, ecx
  00328	48 8b 94 24 00
	01 00 00	 mov	 rdx, QWORD PTR zoned$[rsp]
  00330	88 04 0a	 mov	 BYTE PTR [rdx+rcx], al

; 1426 :         zoned[i-1] |= (sign) ? 0xD0 : (mask & 0x2) ? 0xF0 : 0xC0;

  00333	83 7c 24 48 00	 cmp	 DWORD PTR sign$[rsp], 0
  00338	74 0a		 je	 SHORT $LN29@dfp_number
  0033a	c7 44 24 50 d0
	00 00 00	 mov	 DWORD PTR tv214[rsp], 208 ; 000000d0H
  00342	eb 28		 jmp	 SHORT $LN30@dfp_number
$LN29@dfp_number:
  00344	8b 84 24 10 01
	00 00		 mov	 eax, DWORD PTR mask$[rsp]
  0034b	83 e0 02	 and	 eax, 2
  0034e	85 c0		 test	 eax, eax
  00350	74 0a		 je	 SHORT $LN27@dfp_number
  00352	c7 44 24 4c f0
	00 00 00	 mov	 DWORD PTR tv212[rsp], 240 ; 000000f0H
  0035a	eb 08		 jmp	 SHORT $LN28@dfp_number
$LN27@dfp_number:
  0035c	c7 44 24 4c c0
	00 00 00	 mov	 DWORD PTR tv212[rsp], 192 ; 000000c0H
$LN28@dfp_number:
  00364	8b 44 24 4c	 mov	 eax, DWORD PTR tv212[rsp]
  00368	89 44 24 50	 mov	 DWORD PTR tv214[rsp], eax
$LN30@dfp_number:
  0036c	8b 44 24 20	 mov	 eax, DWORD PTR i$[rsp]
  00370	ff c8		 dec	 eax
  00372	48 98		 cdqe
  00374	48 8b 8c 24 00
	01 00 00	 mov	 rcx, QWORD PTR zoned$[rsp]
  0037c	0f be 04 01	 movsx	 eax, BYTE PTR [rcx+rax]
  00380	0b 44 24 50	 or	 eax, DWORD PTR tv214[rsp]
  00384	8b 4c 24 20	 mov	 ecx, DWORD PTR i$[rsp]
  00388	ff c9		 dec	 ecx
  0038a	48 63 c9	 movsxd	 rcx, ecx
  0038d	48 8b 94 24 00
	01 00 00	 mov	 rdx, QWORD PTR zoned$[rsp]
  00395	88 04 0a	 mov	 BYTE PTR [rdx+rcx], al
$LN15@dfp_number:

; 1427 :     }
; 1428 : 
; 1429 :     /* Return the condition code */
; 1430 :     return cc;

  00398	8b 44 24 30	 mov	 eax, DWORD PTR cc$[rsp]

; 1431 : 
; 1432 : } /* end function dfp_number_to_zoned */

  0039c	48 8b 8c 24 d0
	00 00 00	 mov	 rcx, QWORD PTR __$ArrayPad$[rsp]
  003a4	48 33 cc	 xor	 rcx, rsp
  003a7	e8 00 00 00 00	 call	 __security_check_cookie
  003ac	48 81 c4 e8 00
	00 00		 add	 rsp, 232		; 000000e8H
  003b3	c3		 ret	 0
dfp_number_to_zoned ENDP
_TEXT	ENDS
; Function compile flags: /Odtp
; File C:\papa\MyGit\hyperion-zvector\dfp.c
_TEXT	SEGMENT
c$ = 32
tv74 = 36
i$ = 40
pzw$ = 48
tv66 = 56
signflag$ = 60
zwork$ = 64
__$ArrayPad$ = 104
dn$ = 128
zoned$ = 136
len$ = 144
mask$ = 152
pset$ = 160
dfp_number_from_zoned PROC

; 1298 : {

  00000	44 89 4c 24 20	 mov	 DWORD PTR [rsp+32], r9d
  00005	44 89 44 24 18	 mov	 DWORD PTR [rsp+24], r8d
  0000a	48 89 54 24 10	 mov	 QWORD PTR [rsp+16], rdx
  0000f	48 89 4c 24 08	 mov	 QWORD PTR [rsp+8], rcx
  00014	48 83 ec 78	 sub	 rsp, 120		; 00000078H
  00018	48 8b 05 00 00
	00 00		 mov	 rax, QWORD PTR __security_cookie
  0001f	48 33 c4	 xor	 rax, rsp
  00022	48 89 44 24 68	 mov	 QWORD PTR __$ArrayPad$[rsp], rax

; 1299 : int             i;                      /* Array subscript           */
; 1300 : int             signflag;               /* 1=signed decimal operand  */
; 1301 : char            zwork[1+CXZT_MAXLEN+1]; /* Sign + digits + null      */
; 1302 : char            *pzw = zwork;           /* Addr next byte in zwork   */

  00027	48 8d 44 24 40	 lea	 rax, QWORD PTR zwork$[rsp]
  0002c	48 89 44 24 30	 mov	 QWORD PTR pzw$[rsp], rax

; 1303 : char            c;                      /* Character work area       */
; 1304 : 
; 1305 :     /* Set the signed flag if indicated by the mask */
; 1306 :     signflag = (mask & 0x8) ? 1 : 0;

  00031	8b 84 24 98 00
	00 00		 mov	 eax, DWORD PTR mask$[rsp]
  00038	83 e0 08	 and	 eax, 8
  0003b	85 c0		 test	 eax, eax
  0003d	74 0a		 je	 SHORT $LN17@dfp_number
  0003f	c7 44 24 38 01
	00 00 00	 mov	 DWORD PTR tv66[rsp], 1
  00047	eb 08		 jmp	 SHORT $LN18@dfp_number
$LN17@dfp_number:
  00049	c7 44 24 38 00
	00 00 00	 mov	 DWORD PTR tv66[rsp], 0
$LN18@dfp_number:
  00051	8b 44 24 38	 mov	 eax, DWORD PTR tv66[rsp]
  00055	89 44 24 3c	 mov	 DWORD PTR signflag$[rsp], eax

; 1307 : 
; 1308 :     /* Set the sign according to the operand sign code */
; 1309 :     if (signflag) {

  00059	83 7c 24 3c 00	 cmp	 DWORD PTR signflag$[rsp], 0
  0005e	74 6d		 je	 SHORT $LN7@dfp_number

; 1310 :         switch ((zoned[len] & 0xF0) >> 4) {

  00060	48 63 84 24 90
	00 00 00	 movsxd	 rax, DWORD PTR len$[rsp]
  00068	48 8b 8c 24 88
	00 00 00	 mov	 rcx, QWORD PTR zoned$[rsp]
  00070	0f be 04 01	 movsx	 eax, BYTE PTR [rcx+rax]
  00074	25 f0 00 00 00	 and	 eax, 240		; 000000f0H
  00079	c1 f8 04	 sar	 eax, 4
  0007c	89 44 24 24	 mov	 DWORD PTR tv74[rsp], eax
  00080	8b 44 24 24	 mov	 eax, DWORD PTR tv74[rsp]
  00084	83 e8 0a	 sub	 eax, 10
  00087	89 44 24 24	 mov	 DWORD PTR tv74[rsp], eax
  0008b	83 7c 24 24 05	 cmp	 DWORD PTR tv74[rsp], 5
  00090	77 31		 ja	 SHORT $LN14@dfp_number
  00092	48 63 44 24 24	 movsxd	 rax, DWORD PTR tv74[rsp]
  00097	48 8d 0d 00 00
	00 00		 lea	 rcx, OFFSET FLAT:__ImageBase
  0009e	8b 84 81 00 00
	00 00		 mov	 eax, DWORD PTR $LN19@dfp_number[rcx+rax*4]
  000a5	48 03 c1	 add	 rax, rcx
  000a8	ff e0		 jmp	 rax
$LN8@dfp_number:
$LN9@dfp_number:

; 1311 :         case 0xB: case 0xD:
; 1312 :             *pzw++ = '-'; break;

  000aa	48 8b 44 24 30	 mov	 rax, QWORD PTR pzw$[rsp]
  000af	c6 00 2d	 mov	 BYTE PTR [rax], 45	; 0000002dH
  000b2	48 8b 44 24 30	 mov	 rax, QWORD PTR pzw$[rsp]
  000b7	48 ff c0	 inc	 rax
  000ba	48 89 44 24 30	 mov	 QWORD PTR pzw$[rsp], rax
  000bf	eb 0c		 jmp	 SHORT $LN2@dfp_number
$LN10@dfp_number:
$LN11@dfp_number:
$LN12@dfp_number:
$LN13@dfp_number:

; 1313 :         case 0xA: case 0xC: case 0xE: case 0xF:
; 1314 :             break;

  000c1	eb 0a		 jmp	 SHORT $LN2@dfp_number
$LN14@dfp_number:

; 1315 :         default:
; 1316 :             /* Data exception if invalid sign code */
; 1317 :             return 1;

  000c3	b8 01 00 00 00	 mov	 eax, 1
  000c8	e9 8c 00 00 00	 jmp	 $LN1@dfp_number
$LN2@dfp_number:
$LN7@dfp_number:

; 1318 :         }
; 1319 :     }
; 1320 : 
; 1321 :     /* Convert zoned number to a decimal string */
; 1322 :     for (i=0; i <= len; i++)

  000cd	c7 44 24 28 00
	00 00 00	 mov	 DWORD PTR i$[rsp], 0
  000d5	eb 0a		 jmp	 SHORT $LN6@dfp_number
$LN4@dfp_number:
  000d7	8b 44 24 28	 mov	 eax, DWORD PTR i$[rsp]
  000db	ff c0		 inc	 eax
  000dd	89 44 24 28	 mov	 DWORD PTR i$[rsp], eax
$LN6@dfp_number:
  000e1	8b 84 24 90 00
	00 00		 mov	 eax, DWORD PTR len$[rsp]
  000e8	39 44 24 28	 cmp	 DWORD PTR i$[rsp], eax
  000ec	7f 47		 jg	 SHORT $LN5@dfp_number

; 1323 :     {
; 1324 :         c = zoned[i] & 0x0F;

  000ee	48 63 44 24 28	 movsxd	 rax, DWORD PTR i$[rsp]
  000f3	48 8b 8c 24 88
	00 00 00	 mov	 rcx, QWORD PTR zoned$[rsp]
  000fb	0f be 04 01	 movsx	 eax, BYTE PTR [rcx+rax]
  000ff	83 e0 0f	 and	 eax, 15
  00102	88 44 24 20	 mov	 BYTE PTR c$[rsp], al

; 1325 :         /* Data exception if invalid digit */
; 1326 :         if (c > 0x09) return 1;

  00106	0f be 44 24 20	 movsx	 eax, BYTE PTR c$[rsp]
  0010b	83 f8 09	 cmp	 eax, 9
  0010e	7e 07		 jle	 SHORT $LN15@dfp_number
  00110	b8 01 00 00 00	 mov	 eax, 1
  00115	eb 42		 jmp	 SHORT $LN1@dfp_number
$LN15@dfp_number:

; 1327 :         *pzw++ = c + '0';

  00117	0f be 44 24 20	 movsx	 eax, BYTE PTR c$[rsp]
  0011c	83 c0 30	 add	 eax, 48			; 00000030H
  0011f	48 8b 4c 24 30	 mov	 rcx, QWORD PTR pzw$[rsp]
  00124	88 01		 mov	 BYTE PTR [rcx], al
  00126	48 8b 44 24 30	 mov	 rax, QWORD PTR pzw$[rsp]
  0012b	48 ff c0	 inc	 rax
  0012e	48 89 44 24 30	 mov	 QWORD PTR pzw$[rsp], rax

; 1328 :     }

  00133	eb a2		 jmp	 SHORT $LN4@dfp_number
$LN5@dfp_number:

; 1329 :     *pzw = '\0';

  00135	48 8b 44 24 30	 mov	 rax, QWORD PTR pzw$[rsp]
  0013a	c6 00 00	 mov	 BYTE PTR [rax], 0

; 1330 : 
; 1331 :     /* Convert decimal string to decimal number structure */
; 1332 :     decNumberFromString(dn, zwork, pset);

  0013d	4c 8b 84 24 a0
	00 00 00	 mov	 r8, QWORD PTR pset$[rsp]
  00145	48 8d 54 24 40	 lea	 rdx, QWORD PTR zwork$[rsp]
  0014a	48 8b 8c 24 80
	00 00 00	 mov	 rcx, QWORD PTR dn$[rsp]
  00152	e8 00 00 00 00	 call	 decNumberFromString

; 1333 : 
; 1334 :     return 0;

  00157	33 c0		 xor	 eax, eax
$LN1@dfp_number:

; 1335 : 
; 1336 : } /* end function dfp_number_from_zoned */

  00159	48 8b 4c 24 68	 mov	 rcx, QWORD PTR __$ArrayPad$[rsp]
  0015e	48 33 cc	 xor	 rcx, rsp
  00161	e8 00 00 00 00	 call	 __security_check_cookie
  00166	48 83 c4 78	 add	 rsp, 120		; 00000078H
  0016a	c3		 ret	 0
  0016b	90		 npad	 1
$LN19@dfp_number:
  0016c	00 00 00 00	 DD	 $LN10@dfp_number
  00170	00 00 00 00	 DD	 $LN8@dfp_number
  00174	00 00 00 00	 DD	 $LN11@dfp_number
  00178	00 00 00 00	 DD	 $LN9@dfp_number
  0017c	00 00 00 00	 DD	 $LN12@dfp_number
  00180	00 00 00 00	 DD	 $LN13@dfp_number
dfp_number_from_zoned ENDP
_TEXT	ENDS
; Function compile flags: /Odtp
; File C:\papa\MyGit\hyperion-zvector\vstore.h
;	COMDAT z900_vfetch4
_TEXT	SEGMENT
tv66 = 48
tv72 = 52
mn$1 = 56
addr$ = 80
arn$ = 88
regs$ = 96
z900_vfetch4 PROC					; COMDAT

; 695  : {

$LN11:
  00000	4c 89 44 24 18	 mov	 QWORD PTR [rsp+24], r8
  00005	89 54 24 10	 mov	 DWORD PTR [rsp+16], edx
  00009	48 89 4c 24 08	 mov	 QWORD PTR [rsp+8], rcx
  0000e	48 83 ec 48	 sub	 rsp, 72			; 00000048H

; 696  :     if ((likely(!((VADR_L)addr & 0x03))
; 697  :         || (((VADR_L)addr & PAGEFRAME_BYTEMASK) <= (PAGEFRAME_BYTEMASK-3) )))

  00012	48 8b 44 24 50	 mov	 rax, QWORD PTR addr$[rsp]
  00017	48 83 e0 03	 and	 rax, 3
  0001b	48 85 c0	 test	 rax, rax
  0001e	75 0a		 jne	 SHORT $LN5@z900_vfetc
  00020	c7 44 24 30 01
	00 00 00	 mov	 DWORD PTR tv66[rsp], 1
  00028	eb 08		 jmp	 SHORT $LN6@z900_vfetc
$LN5@z900_vfetc:
  0002a	c7 44 24 30 00
	00 00 00	 mov	 DWORD PTR tv66[rsp], 0
$LN6@z900_vfetc:
  00032	83 7c 24 30 00	 cmp	 DWORD PTR tv66[rsp], 0
  00037	74 0a		 je	 SHORT $LN9@z900_vfetc
  00039	c7 44 24 34 01
	00 00 00	 mov	 DWORD PTR tv72[rsp], 1
  00041	eb 08		 jmp	 SHORT $LN10@z900_vfetc
$LN9@z900_vfetc:
  00043	c7 44 24 34 00
	00 00 00	 mov	 DWORD PTR tv72[rsp], 0
$LN10@z900_vfetc:
  0004b	83 7c 24 34 00	 cmp	 DWORD PTR tv72[rsp], 0
  00050	75 13		 jne	 SHORT $LN3@z900_vfetc
  00052	48 8b 44 24 50	 mov	 rax, QWORD PTR addr$[rsp]
  00057	48 25 ff 0f 00
	00		 and	 rax, 4095		; 00000fffH
  0005d	48 3d fc 0f 00
	00		 cmp	 rax, 4092		; 00000ffcH
  00063	77 46		 ja	 SHORT $LN2@z900_vfetc
$LN3@z900_vfetc:

; 698  :     {
; 699  :         BYTE *mn;
; 700  :         ITIMER_SYNC( addr, 4-1, regs );
; 701  :         mn = MADDRL( addr, 4,arn, regs, ACCTYPE_READ, regs->psw.pkey );

  00065	48 8b 44 24 60	 mov	 rax, QWORD PTR regs$[rsp]
  0006a	0f b6 40 79	 movzx	 eax, BYTE PTR [rax+121]
  0006e	88 44 24 28	 mov	 BYTE PTR [rsp+40], al
  00072	c7 44 24 20 04
	00 00 00	 mov	 DWORD PTR [rsp+32], 4
  0007a	4c 8b 4c 24 60	 mov	 r9, QWORD PTR regs$[rsp]
  0007f	44 8b 44 24 58	 mov	 r8d, DWORD PTR arn$[rsp]
  00084	ba 04 00 00 00	 mov	 edx, 4
  00089	48 8b 4c 24 50	 mov	 rcx, QWORD PTR addr$[rsp]
  0008e	e8 00 00 00 00	 call	 z900_maddr_l
  00093	48 89 44 24 38	 mov	 QWORD PTR mn$1[rsp], rax

; 702  :         return fetch_fw( mn );

  00098	48 8b 4c 24 38	 mov	 rcx, QWORD PTR mn$1[rsp]
  0009d	e8 00 00 00 00	 call	 fetch_fw_noswap
  000a2	8b c8		 mov	 ecx, eax
  000a4	e8 00 00 00 00	 call	 _byteswap_ulong
  000a9	eb 13		 jmp	 SHORT $LN1@z900_vfetc
$LN2@z900_vfetc:

; 703  :     }
; 704  :     return ARCH_DEP( vfetch4_full )( addr, arn, regs );

  000ab	4c 8b 44 24 60	 mov	 r8, QWORD PTR regs$[rsp]
  000b0	8b 54 24 58	 mov	 edx, DWORD PTR arn$[rsp]
  000b4	48 8b 4c 24 50	 mov	 rcx, QWORD PTR addr$[rsp]
  000b9	e8 00 00 00 00	 call	 z900_vfetch4_full
$LN1@z900_vfetc:

; 705  : }

  000be	48 83 c4 48	 add	 rsp, 72			; 00000048H
  000c2	c3		 ret	 0
z900_vfetch4 ENDP
_TEXT	ENDS
; Function compile flags: /Odtp
; File C:\papa\MyGit\hyperion-zvector\vstore.h
;	COMDAT z900_vfetchc
_TEXT	SEGMENT
len2$ = 48
tv76 = 52
main1$ = 56
main2$ = 64
dest$ = 112
len$ = 120
addr$ = 128
arn$ = 136
regs$ = 144
z900_vfetchc PROC					; COMDAT

; 631  : {

$LN9:
  00000	44 89 4c 24 20	 mov	 DWORD PTR [rsp+32], r9d
  00005	4c 89 44 24 18	 mov	 QWORD PTR [rsp+24], r8
  0000a	88 54 24 10	 mov	 BYTE PTR [rsp+16], dl
  0000e	48 89 4c 24 08	 mov	 QWORD PTR [rsp+8], rcx
  00013	56		 push	 rsi
  00014	57		 push	 rdi
  00015	48 83 ec 58	 sub	 rsp, 88			; 00000058H

; 632  : BYTE   *main1, *main2;                  /* Main storage addresses    */
; 633  : int     len2;                           /* Length to copy on page    */
; 634  : 
; 635  :     if (NOCROSSPAGE( addr, len ))

  00019	48 8b 84 24 80
	00 00 00	 mov	 rax, QWORD PTR addr$[rsp]
  00021	48 25 ff 0f 00
	00		 and	 rax, 4095		; 00000fffH
  00027	0f b6 4c 24 78	 movzx	 ecx, BYTE PTR len$[rsp]
  0002c	ba ff 0f 00 00	 mov	 edx, 4095		; 00000fffH
  00031	2b d1		 sub	 edx, ecx
  00033	8b ca		 mov	 ecx, edx
  00035	3b c1		 cmp	 eax, ecx
  00037	7f 0a		 jg	 SHORT $LN7@z900_vfetc
  00039	c7 44 24 34 01
	00 00 00	 mov	 DWORD PTR tv76[rsp], 1
  00041	eb 08		 jmp	 SHORT $LN8@z900_vfetc
$LN7@z900_vfetc:
  00043	c7 44 24 34 00
	00 00 00	 mov	 DWORD PTR tv76[rsp], 0
$LN8@z900_vfetc:
  0004b	83 7c 24 34 00	 cmp	 DWORD PTR tv76[rsp], 0
  00050	74 63		 je	 SHORT $LN2@z900_vfetc

; 636  :     {
; 637  :         ITIMER_SYNC( addr, len, regs );
; 638  :         main1 = MADDRL( addr, len + 1, arn, regs, ACCTYPE_READ, regs->psw.pkey );

  00052	0f b6 44 24 78	 movzx	 eax, BYTE PTR len$[rsp]
  00057	ff c0		 inc	 eax
  00059	48 98		 cdqe
  0005b	48 8b 8c 24 90
	00 00 00	 mov	 rcx, QWORD PTR regs$[rsp]
  00063	0f b6 49 79	 movzx	 ecx, BYTE PTR [rcx+121]
  00067	88 4c 24 28	 mov	 BYTE PTR [rsp+40], cl
  0006b	c7 44 24 20 04
	00 00 00	 mov	 DWORD PTR [rsp+32], 4
  00073	4c 8b 8c 24 90
	00 00 00	 mov	 r9, QWORD PTR regs$[rsp]
  0007b	44 8b 84 24 88
	00 00 00	 mov	 r8d, DWORD PTR arn$[rsp]
  00083	48 8b d0	 mov	 rdx, rax
  00086	48 8b 8c 24 80
	00 00 00	 mov	 rcx, QWORD PTR addr$[rsp]
  0008e	e8 00 00 00 00	 call	 z900_maddr_l
  00093	48 89 44 24 38	 mov	 QWORD PTR main1$[rsp], rax

; 639  :         memcpy( dest, main1, len + 1 );

  00098	0f b6 44 24 78	 movzx	 eax, BYTE PTR len$[rsp]
  0009d	ff c0		 inc	 eax
  0009f	48 98		 cdqe
  000a1	48 8b 7c 24 70	 mov	 rdi, QWORD PTR dest$[rsp]
  000a6	48 8b 74 24 38	 mov	 rsi, QWORD PTR main1$[rsp]
  000ab	48 8b c8	 mov	 rcx, rax
  000ae	f3 a4		 rep movsb

; 640  :     }

  000b0	e9 01 01 00 00	 jmp	 $LN3@z900_vfetc
$LN2@z900_vfetc:

; 641  :     else
; 642  :     {
; 643  :         len2 = PAGEFRAME_PAGESIZE - (addr & PAGEFRAME_BYTEMASK);

  000b5	48 8b 84 24 80
	00 00 00	 mov	 rax, QWORD PTR addr$[rsp]
  000bd	48 25 ff 0f 00
	00		 and	 rax, 4095		; 00000fffH
  000c3	b9 00 10 00 00	 mov	 ecx, 4096		; 00001000H
  000c8	48 2b c8	 sub	 rcx, rax
  000cb	48 8b c1	 mov	 rax, rcx
  000ce	89 44 24 30	 mov	 DWORD PTR len2$[rsp], eax

; 644  :         main1 = MADDRL( addr, len2, arn, regs, ACCTYPE_READ, regs->psw.pkey );

  000d2	48 63 44 24 30	 movsxd	 rax, DWORD PTR len2$[rsp]
  000d7	48 8b 8c 24 90
	00 00 00	 mov	 rcx, QWORD PTR regs$[rsp]
  000df	0f b6 49 79	 movzx	 ecx, BYTE PTR [rcx+121]
  000e3	88 4c 24 28	 mov	 BYTE PTR [rsp+40], cl
  000e7	c7 44 24 20 04
	00 00 00	 mov	 DWORD PTR [rsp+32], 4
  000ef	4c 8b 8c 24 90
	00 00 00	 mov	 r9, QWORD PTR regs$[rsp]
  000f7	44 8b 84 24 88
	00 00 00	 mov	 r8d, DWORD PTR arn$[rsp]
  000ff	48 8b d0	 mov	 rdx, rax
  00102	48 8b 8c 24 80
	00 00 00	 mov	 rcx, QWORD PTR addr$[rsp]
  0010a	e8 00 00 00 00	 call	 z900_maddr_l
  0010f	48 89 44 24 38	 mov	 QWORD PTR main1$[rsp], rax

; 645  :         main2 = MADDRL( (addr + len2) & ADDRESS_MAXWRAP( regs ), len + 1 - len2,

  00114	0f b6 44 24 78	 movzx	 eax, BYTE PTR len$[rsp]
  00119	ff c0		 inc	 eax
  0011b	2b 44 24 30	 sub	 eax, DWORD PTR len2$[rsp]
  0011f	48 98		 cdqe
  00121	48 63 4c 24 30	 movsxd	 rcx, DWORD PTR len2$[rsp]
  00126	48 8b 94 24 80
	00 00 00	 mov	 rdx, QWORD PTR addr$[rsp]
  0012e	48 03 d1	 add	 rdx, rcx
  00131	48 8b ca	 mov	 rcx, rdx
  00134	48 8b 94 24 90
	00 00 00	 mov	 rdx, QWORD PTR regs$[rsp]
  0013c	48 23 8a 90 00
	00 00		 and	 rcx, QWORD PTR [rdx+144]
  00143	48 8b 94 24 90
	00 00 00	 mov	 rdx, QWORD PTR regs$[rsp]
  0014b	0f b6 52 79	 movzx	 edx, BYTE PTR [rdx+121]
  0014f	88 54 24 28	 mov	 BYTE PTR [rsp+40], dl
  00153	c7 44 24 20 04
	00 00 00	 mov	 DWORD PTR [rsp+32], 4
  0015b	4c 8b 8c 24 90
	00 00 00	 mov	 r9, QWORD PTR regs$[rsp]
  00163	44 8b 84 24 88
	00 00 00	 mov	 r8d, DWORD PTR arn$[rsp]
  0016b	48 8b d0	 mov	 rdx, rax
  0016e	e8 00 00 00 00	 call	 z900_maddr_l
  00173	48 89 44 24 40	 mov	 QWORD PTR main2$[rsp], rax

; 646  :                         arn, regs, ACCTYPE_READ, regs->psw.pkey );
; 647  :         memcpy(        dest,        main1,           len2 );

  00178	48 63 44 24 30	 movsxd	 rax, DWORD PTR len2$[rsp]
  0017d	48 8b 7c 24 70	 mov	 rdi, QWORD PTR dest$[rsp]
  00182	48 8b 74 24 38	 mov	 rsi, QWORD PTR main1$[rsp]
  00187	48 8b c8	 mov	 rcx, rax
  0018a	f3 a4		 rep movsb

; 648  :         memcpy( (BYTE*)dest + len2, main2, len + 1 - len2 );

  0018c	0f b6 44 24 78	 movzx	 eax, BYTE PTR len$[rsp]
  00191	ff c0		 inc	 eax
  00193	2b 44 24 30	 sub	 eax, DWORD PTR len2$[rsp]
  00197	48 98		 cdqe
  00199	48 63 4c 24 30	 movsxd	 rcx, DWORD PTR len2$[rsp]
  0019e	48 8b 54 24 70	 mov	 rdx, QWORD PTR dest$[rsp]
  001a3	48 03 d1	 add	 rdx, rcx
  001a6	48 8b ca	 mov	 rcx, rdx
  001a9	48 8b f9	 mov	 rdi, rcx
  001ac	48 8b 74 24 40	 mov	 rsi, QWORD PTR main2$[rsp]
  001b1	48 8b c8	 mov	 rcx, rax
  001b4	f3 a4		 rep movsb
$LN3@z900_vfetc:

; 649  :     }
; 650  : }

  001b6	48 83 c4 58	 add	 rsp, 88			; 00000058H
  001ba	5f		 pop	 rdi
  001bb	5e		 pop	 rsi
  001bc	c3		 ret	 0
z900_vfetchc ENDP
_TEXT	ENDS
; Function compile flags: /Odtp
; File C:\papa\MyGit\hyperion-zvector\vstore.h
;	COMDAT z900_vstorec
_TEXT	SEGMENT
len2$ = 48
tv76 = 52
sk$ = 56
tv83 = 64
main1$ = 72
main2$ = 80
src$ = 128
len$ = 136
addr$ = 144
arn$ = 152
regs$ = 160
z900_vstorec PROC					; COMDAT

; 489  : {

$LN9:
  00000	44 89 4c 24 20	 mov	 DWORD PTR [rsp+32], r9d
  00005	4c 89 44 24 18	 mov	 QWORD PTR [rsp+24], r8
  0000a	88 54 24 10	 mov	 BYTE PTR [rsp+16], dl
  0000e	48 89 4c 24 08	 mov	 QWORD PTR [rsp+8], rcx
  00013	56		 push	 rsi
  00014	57		 push	 rdi
  00015	48 83 ec 68	 sub	 rsp, 104		; 00000068H

; 490  : BYTE   *main1, *main2;                  /* Mainstor addresses        */
; 491  : BYTE   *sk;                             /* Storage key addresses     */
; 492  : int     len2;                           /* Length to end of page     */
; 493  : 
; 494  :     if (NOCROSSPAGE( addr,len ))

  00019	48 8b 84 24 90
	00 00 00	 mov	 rax, QWORD PTR addr$[rsp]
  00021	48 25 ff 0f 00
	00		 and	 rax, 4095		; 00000fffH
  00027	0f b6 8c 24 88
	00 00 00	 movzx	 ecx, BYTE PTR len$[rsp]
  0002f	ba ff 0f 00 00	 mov	 edx, 4095		; 00000fffH
  00034	2b d1		 sub	 edx, ecx
  00036	8b ca		 mov	 ecx, edx
  00038	3b c1		 cmp	 eax, ecx
  0003a	7f 0a		 jg	 SHORT $LN7@z900_vstor
  0003c	c7 44 24 34 01
	00 00 00	 mov	 DWORD PTR tv76[rsp], 1
  00044	eb 08		 jmp	 SHORT $LN8@z900_vstor
$LN7@z900_vstor:
  00046	c7 44 24 34 00
	00 00 00	 mov	 DWORD PTR tv76[rsp], 0
$LN8@z900_vstor:
  0004e	83 7c 24 34 00	 cmp	 DWORD PTR tv76[rsp], 0
  00053	74 70		 je	 SHORT $LN2@z900_vstor

; 495  :     {
; 496  :         memcpy( MADDRL( addr, len+1, arn, regs, ACCTYPE_WRITE, regs->psw.pkey ),

  00055	0f b6 84 24 88
	00 00 00	 movzx	 eax, BYTE PTR len$[rsp]
  0005d	ff c0		 inc	 eax
  0005f	48 98		 cdqe
  00061	48 89 44 24 40	 mov	 QWORD PTR tv83[rsp], rax
  00066	0f b6 8c 24 88
	00 00 00	 movzx	 ecx, BYTE PTR len$[rsp]
  0006e	ff c1		 inc	 ecx
  00070	48 63 c9	 movsxd	 rcx, ecx
  00073	48 8b 94 24 a0
	00 00 00	 mov	 rdx, QWORD PTR regs$[rsp]
  0007b	0f b6 52 79	 movzx	 edx, BYTE PTR [rdx+121]
  0007f	88 54 24 28	 mov	 BYTE PTR [rsp+40], dl
  00083	c7 44 24 20 02
	00 00 00	 mov	 DWORD PTR [rsp+32], 2
  0008b	4c 8b 8c 24 a0
	00 00 00	 mov	 r9, QWORD PTR regs$[rsp]
  00093	44 8b 84 24 98
	00 00 00	 mov	 r8d, DWORD PTR arn$[rsp]
  0009b	48 8b d1	 mov	 rdx, rcx
  0009e	48 8b 8c 24 90
	00 00 00	 mov	 rcx, QWORD PTR addr$[rsp]
  000a6	e8 00 00 00 00	 call	 z900_maddr_l
  000ab	48 8b f8	 mov	 rdi, rax
  000ae	48 8b b4 24 80
	00 00 00	 mov	 rsi, QWORD PTR src$[rsp]
  000b6	48 8b 44 24 40	 mov	 rax, QWORD PTR tv83[rsp]
  000bb	48 8b c8	 mov	 rcx, rax
  000be	f3 a4		 rep movsb

; 497  :                src, len + 1);
; 498  :         ITIMER_UPDATE( addr, len, regs );
; 499  :     }

  000c0	e9 33 01 00 00	 jmp	 $LN3@z900_vstor
$LN2@z900_vstor:

; 500  :     else
; 501  :     {
; 502  :         len2 = PAGEFRAME_PAGESIZE - (addr & PAGEFRAME_BYTEMASK);

  000c5	48 8b 84 24 90
	00 00 00	 mov	 rax, QWORD PTR addr$[rsp]
  000cd	48 25 ff 0f 00
	00		 and	 rax, 4095		; 00000fffH
  000d3	b9 00 10 00 00	 mov	 ecx, 4096		; 00001000H
  000d8	48 2b c8	 sub	 rcx, rax
  000db	48 8b c1	 mov	 rax, rcx
  000de	89 44 24 30	 mov	 DWORD PTR len2$[rsp], eax

; 503  :         main1 = MADDRL( addr, len2, arn, regs, ACCTYPE_WRITE_SKP,

  000e2	48 63 44 24 30	 movsxd	 rax, DWORD PTR len2$[rsp]
  000e7	48 8b 8c 24 a0
	00 00 00	 mov	 rcx, QWORD PTR regs$[rsp]
  000ef	0f b6 49 79	 movzx	 ecx, BYTE PTR [rcx+121]
  000f3	88 4c 24 28	 mov	 BYTE PTR [rsp+40], cl
  000f7	c7 44 24 20 01
	00 00 00	 mov	 DWORD PTR [rsp+32], 1
  000ff	4c 8b 8c 24 a0
	00 00 00	 mov	 r9, QWORD PTR regs$[rsp]
  00107	44 8b 84 24 98
	00 00 00	 mov	 r8d, DWORD PTR arn$[rsp]
  0010f	48 8b d0	 mov	 rdx, rax
  00112	48 8b 8c 24 90
	00 00 00	 mov	 rcx, QWORD PTR addr$[rsp]
  0011a	e8 00 00 00 00	 call	 z900_maddr_l
  0011f	48 89 44 24 48	 mov	 QWORD PTR main1$[rsp], rax

; 504  :                         regs->psw.pkey );
; 505  :         sk = regs->dat.storkey;

  00124	48 8b 84 24 a0
	00 00 00	 mov	 rax, QWORD PTR regs$[rsp]
  0012c	48 8b 80 28 08
	00 00		 mov	 rax, QWORD PTR [rax+2088]
  00133	48 89 44 24 38	 mov	 QWORD PTR sk$[rsp], rax

; 506  :         main2 = MADDRL( (addr + len2) & ADDRESS_MAXWRAP( regs ),

  00138	0f b6 84 24 88
	00 00 00	 movzx	 eax, BYTE PTR len$[rsp]
  00140	ff c0		 inc	 eax
  00142	2b 44 24 30	 sub	 eax, DWORD PTR len2$[rsp]
  00146	48 98		 cdqe
  00148	48 63 4c 24 30	 movsxd	 rcx, DWORD PTR len2$[rsp]
  0014d	48 8b 94 24 90
	00 00 00	 mov	 rdx, QWORD PTR addr$[rsp]
  00155	48 03 d1	 add	 rdx, rcx
  00158	48 8b ca	 mov	 rcx, rdx
  0015b	48 8b 94 24 a0
	00 00 00	 mov	 rdx, QWORD PTR regs$[rsp]
  00163	48 23 8a 90 00
	00 00		 and	 rcx, QWORD PTR [rdx+144]
  0016a	48 8b 94 24 a0
	00 00 00	 mov	 rdx, QWORD PTR regs$[rsp]
  00172	0f b6 52 79	 movzx	 edx, BYTE PTR [rdx+121]
  00176	88 54 24 28	 mov	 BYTE PTR [rsp+40], dl
  0017a	c7 44 24 20 02
	00 00 00	 mov	 DWORD PTR [rsp+32], 2
  00182	4c 8b 8c 24 a0
	00 00 00	 mov	 r9, QWORD PTR regs$[rsp]
  0018a	44 8b 84 24 98
	00 00 00	 mov	 r8d, DWORD PTR arn$[rsp]
  00192	48 8b d0	 mov	 rdx, rax
  00195	e8 00 00 00 00	 call	 z900_maddr_l
  0019a	48 89 44 24 50	 mov	 QWORD PTR main2$[rsp], rax

; 507  :                         len+1-len2, arn,
; 508  :                         regs, ACCTYPE_WRITE, regs->psw.pkey );
; 509  :         *sk |= (STORKEY_REF | STORKEY_CHANGE);

  0019f	48 8b 44 24 38	 mov	 rax, QWORD PTR sk$[rsp]
  001a4	0f b6 00	 movzx	 eax, BYTE PTR [rax]
  001a7	83 c8 06	 or	 eax, 6
  001aa	48 8b 4c 24 38	 mov	 rcx, QWORD PTR sk$[rsp]
  001af	88 01		 mov	 BYTE PTR [rcx], al

; 510  :         memcpy( main1, src, len2 );

  001b1	48 63 44 24 30	 movsxd	 rax, DWORD PTR len2$[rsp]
  001b6	48 8b 7c 24 48	 mov	 rdi, QWORD PTR main1$[rsp]
  001bb	48 8b b4 24 80
	00 00 00	 mov	 rsi, QWORD PTR src$[rsp]
  001c3	48 8b c8	 mov	 rcx, rax
  001c6	f3 a4		 rep movsb

; 511  :         memcpy( main2, (BYTE*)src + len2, len + 1 - len2 );

  001c8	0f b6 84 24 88
	00 00 00	 movzx	 eax, BYTE PTR len$[rsp]
  001d0	ff c0		 inc	 eax
  001d2	2b 44 24 30	 sub	 eax, DWORD PTR len2$[rsp]
  001d6	48 98		 cdqe
  001d8	48 63 4c 24 30	 movsxd	 rcx, DWORD PTR len2$[rsp]
  001dd	48 8b 94 24 80
	00 00 00	 mov	 rdx, QWORD PTR src$[rsp]
  001e5	48 03 d1	 add	 rdx, rcx
  001e8	48 8b ca	 mov	 rcx, rdx
  001eb	48 8b 7c 24 50	 mov	 rdi, QWORD PTR main2$[rsp]
  001f0	48 8b f1	 mov	 rsi, rcx
  001f3	48 8b c8	 mov	 rcx, rax
  001f6	f3 a4		 rep movsb
$LN3@z900_vstor:

; 512  :     }
; 513  : }

  001f8	48 83 c4 68	 add	 rsp, 104		; 00000068H
  001fc	5f		 pop	 rdi
  001fd	5e		 pop	 rsi
  001fe	c3		 ret	 0
z900_vstorec ENDP
_TEXT	ENDS
; Function compile flags: /Odtp
; File C:\papa\MyGit\hyperion-zvector\vstore.h
;	COMDAT z900_vfetch4_full
_TEXT	SEGMENT
len$ = 48
mn$ = 56
temp$ = 64
__$ArrayPad$ = 72
addr$ = 112
arn$ = 120
regs$ = 128
z900_vfetch4_full PROC					; COMDAT

; 428  : {

$LN3:
  00000	4c 89 44 24 18	 mov	 QWORD PTR [rsp+24], r8
  00005	89 54 24 10	 mov	 DWORD PTR [rsp+16], edx
  00009	48 89 4c 24 08	 mov	 QWORD PTR [rsp+8], rcx
  0000e	56		 push	 rsi
  0000f	57		 push	 rdi
  00010	48 83 ec 58	 sub	 rsp, 88			; 00000058H
  00014	48 8b 05 00 00
	00 00		 mov	 rax, QWORD PTR __security_cookie
  0001b	48 33 c4	 xor	 rax, rsp
  0001e	48 89 44 24 48	 mov	 QWORD PTR __$ArrayPad$[rsp], rax

; 429  : BYTE   *mn;                             /* Main storage addresses    */
; 430  : int     len;                            /* Length to end of page     */
; 431  : BYTE    temp[8];                        /* Copy destination          */
; 432  : 
; 433  :     len = PAGEFRAME_PAGESIZE - (addr & PAGEFRAME_BYTEMASK);

  00023	48 8b 44 24 70	 mov	 rax, QWORD PTR addr$[rsp]
  00028	48 25 ff 0f 00
	00		 and	 rax, 4095		; 00000fffH
  0002e	b9 00 10 00 00	 mov	 ecx, 4096		; 00001000H
  00033	48 2b c8	 sub	 rcx, rax
  00036	48 8b c1	 mov	 rax, rcx
  00039	89 44 24 30	 mov	 DWORD PTR len$[rsp], eax

; 434  :     mn = MADDRL( addr, len, arn, regs, ACCTYPE_READ, regs->psw.pkey );

  0003d	48 63 44 24 30	 movsxd	 rax, DWORD PTR len$[rsp]
  00042	48 8b 8c 24 80
	00 00 00	 mov	 rcx, QWORD PTR regs$[rsp]
  0004a	0f b6 49 79	 movzx	 ecx, BYTE PTR [rcx+121]
  0004e	88 4c 24 28	 mov	 BYTE PTR [rsp+40], cl
  00052	c7 44 24 20 04
	00 00 00	 mov	 DWORD PTR [rsp+32], 4
  0005a	4c 8b 8c 24 80
	00 00 00	 mov	 r9, QWORD PTR regs$[rsp]
  00062	44 8b 44 24 78	 mov	 r8d, DWORD PTR arn$[rsp]
  00067	48 8b d0	 mov	 rdx, rax
  0006a	48 8b 4c 24 70	 mov	 rcx, QWORD PTR addr$[rsp]
  0006f	e8 00 00 00 00	 call	 z900_maddr_l
  00074	48 89 44 24 38	 mov	 QWORD PTR mn$[rsp], rax

; 435  :     memcpy( temp, mn, len);

  00079	48 63 44 24 30	 movsxd	 rax, DWORD PTR len$[rsp]
  0007e	48 8d 4c 24 40	 lea	 rcx, QWORD PTR temp$[rsp]
  00083	48 8b f9	 mov	 rdi, rcx
  00086	48 8b 74 24 38	 mov	 rsi, QWORD PTR mn$[rsp]
  0008b	48 8b c8	 mov	 rcx, rax
  0008e	f3 a4		 rep movsb

; 436  :     mn = MADDRL( (addr + len) & ADDRESS_MAXWRAP( regs ), 4 - len, arn, regs,

  00090	b8 04 00 00 00	 mov	 eax, 4
  00095	2b 44 24 30	 sub	 eax, DWORD PTR len$[rsp]
  00099	48 98		 cdqe
  0009b	48 63 4c 24 30	 movsxd	 rcx, DWORD PTR len$[rsp]
  000a0	48 8b 54 24 70	 mov	 rdx, QWORD PTR addr$[rsp]
  000a5	48 03 d1	 add	 rdx, rcx
  000a8	48 8b ca	 mov	 rcx, rdx
  000ab	48 8b 94 24 80
	00 00 00	 mov	 rdx, QWORD PTR regs$[rsp]
  000b3	48 23 8a 90 00
	00 00		 and	 rcx, QWORD PTR [rdx+144]
  000ba	48 8b 94 24 80
	00 00 00	 mov	 rdx, QWORD PTR regs$[rsp]
  000c2	0f b6 52 79	 movzx	 edx, BYTE PTR [rdx+121]
  000c6	88 54 24 28	 mov	 BYTE PTR [rsp+40], dl
  000ca	c7 44 24 20 04
	00 00 00	 mov	 DWORD PTR [rsp+32], 4
  000d2	4c 8b 8c 24 80
	00 00 00	 mov	 r9, QWORD PTR regs$[rsp]
  000da	44 8b 44 24 78	 mov	 r8d, DWORD PTR arn$[rsp]
  000df	48 8b d0	 mov	 rdx, rax
  000e2	e8 00 00 00 00	 call	 z900_maddr_l
  000e7	48 89 44 24 38	 mov	 QWORD PTR mn$[rsp], rax

; 437  :                   ACCTYPE_READ, regs->psw.pkey );
; 438  :     memcpy( temp+len, mn, 4 - len);

  000ec	b8 04 00 00 00	 mov	 eax, 4
  000f1	2b 44 24 30	 sub	 eax, DWORD PTR len$[rsp]
  000f5	48 98		 cdqe
  000f7	48 63 4c 24 30	 movsxd	 rcx, DWORD PTR len$[rsp]
  000fc	48 8d 4c 0c 40	 lea	 rcx, QWORD PTR temp$[rsp+rcx]
  00101	48 8b f9	 mov	 rdi, rcx
  00104	48 8b 74 24 38	 mov	 rsi, QWORD PTR mn$[rsp]
  00109	48 8b c8	 mov	 rcx, rax
  0010c	f3 a4		 rep movsb

; 439  :     return fetch_fw( temp );

  0010e	48 8d 4c 24 40	 lea	 rcx, QWORD PTR temp$[rsp]
  00113	e8 00 00 00 00	 call	 fetch_fw_noswap
  00118	8b c8		 mov	 ecx, eax
  0011a	e8 00 00 00 00	 call	 _byteswap_ulong

; 440  : }

  0011f	48 8b 4c 24 48	 mov	 rcx, QWORD PTR __$ArrayPad$[rsp]
  00124	48 33 cc	 xor	 rcx, rsp
  00127	e8 00 00 00 00	 call	 __security_check_cookie
  0012c	48 83 c4 58	 add	 rsp, 88			; 00000058H
  00130	5f		 pop	 rdi
  00131	5e		 pop	 rsi
  00132	c3		 ret	 0
z900_vfetch4_full ENDP
_TEXT	ENDS
; Function compile flags: /Odtp
; File C:\papa\MyGit\hyperion-zvector\dat.h
;	COMDAT z900_maddr_l
_TEXT	SEGMENT
tlbix$ = 48
aea_crn$ = 52
tv70 = 56
maddr$ = 64
addr$ = 96
len$ = 104
arn$ = 112
regs$ = 120
acctype$ = 128
akey$ = 136
z900_maddr_l PROC					; COMDAT

; 307  : {

$LN18:
  00000	4c 89 4c 24 20	 mov	 QWORD PTR [rsp+32], r9
  00005	44 89 44 24 18	 mov	 DWORD PTR [rsp+24], r8d
  0000a	48 89 54 24 10	 mov	 QWORD PTR [rsp+16], rdx
  0000f	48 89 4c 24 08	 mov	 QWORD PTR [rsp+8], rcx
  00014	48 83 ec 58	 sub	 rsp, 88			; 00000058H

; 308  :     /* Note: ALL of the below conditions must be true for a TLB hit
; 309  :        to occur.  If ANY of them are false, then it's a TLB miss,
; 310  :        requiring us to then perform a full DAT address translation.
; 311  : 
; 312  :        Note too that on the grand scheme of things the order/sequence
; 313  :        of the below tests (if statements) is completely unimportant
; 314  :        since ALL conditions must be checked anyway in order for a hit
; 315  :        to occur, and it doesn't matter that a miss tests a few extra
; 316  :        conditions since it's going to do a full translation anyway!
; 317  :        (which is many, many instructions)
; 318  :     */
; 319  : 
; 320  :     int  aea_crn  = (arn >= USE_ARMODE) ? 0 : regs->AEA_AR( arn );

  00018	83 7c 24 70 10	 cmp	 DWORD PTR arn$[rsp], 16
  0001d	7c 0a		 jl	 SHORT $LN16@z900_maddr
  0001f	c7 44 24 38 00
	00 00 00	 mov	 DWORD PTR tv70[rsp], 0
  00027	eb 19		 jmp	 SHORT $LN17@z900_maddr
$LN16@z900_maddr:
  00029	8b 44 24 70	 mov	 eax, DWORD PTR arn$[rsp]
  0002d	83 c0 05	 add	 eax, 5
  00030	48 98		 cdqe
  00032	48 8b 4c 24 78	 mov	 rcx, QWORD PTR regs$[rsp]
  00037	8b 84 81 94 0c
	00 00		 mov	 eax, DWORD PTR [rcx+rax*4+3220]
  0003e	89 44 24 38	 mov	 DWORD PTR tv70[rsp], eax
$LN17@z900_maddr:
  00042	8b 44 24 38	 mov	 eax, DWORD PTR tv70[rsp]
  00046	89 44 24 34	 mov	 DWORD PTR aea_crn$[rsp], eax

; 321  :     U16  tlbix    = TLBIX( addr );

  0004a	48 8b 44 24 60	 mov	 rax, QWORD PTR addr$[rsp]
  0004f	48 c1 e8 0c	 shr	 rax, 12
  00053	48 25 ff 03 00
	00		 and	 rax, 1023		; 000003ffH
  00059	66 89 44 24 30	 mov	 WORD PTR tlbix$[rsp], ax

; 322  :     BYTE *maddr   = NULL;

  0005e	48 c7 44 24 40
	00 00 00 00	 mov	 QWORD PTR maddr$[rsp], 0

; 323  : 
; 324  :     /* Non-zero AEA Control Register number? */
; 325  :     if (aea_crn)

  00067	83 7c 24 34 00	 cmp	 DWORD PTR aea_crn$[rsp], 0
  0006c	0f 84 2d 01 00
	00		 je	 $LN2@z900_maddr

; 326  :     {
; 327  :         /* Same Addess Space Designator as before? */
; 328  :         /* Or if not, is address in a common segment? */
; 329  :         if (0
; 330  :             || (regs->CR( aea_crn ) == regs->tlb.TLB_ASD( tlbix ))
; 331  :             || (regs->AEA_COMMON( aea_crn ) & regs->tlb.common[ tlbix ])

  00072	33 c0		 xor	 eax, eax
  00074	85 c0		 test	 eax, eax
  00076	75 5a		 jne	 SHORT $LN4@z900_maddr
  00078	8b 44 24 34	 mov	 eax, DWORD PTR aea_crn$[rsp]
  0007c	ff c0		 inc	 eax
  0007e	48 98		 cdqe
  00080	0f b7 4c 24 30	 movzx	 ecx, WORD PTR tlbix$[rsp]
  00085	48 8b 54 24 78	 mov	 rdx, QWORD PTR regs$[rsp]
  0008a	4c 8b 44 24 78	 mov	 r8, QWORD PTR regs$[rsp]
  0008f	49 8b 8c c8 60
	b0 00 00	 mov	 rcx, QWORD PTR [r8+rcx*8+45152]
  00097	48 39 8c c2 00
	06 00 00	 cmp	 QWORD PTR [rdx+rax*8+1536], rcx
  0009f	74 31		 je	 SHORT $LN4@z900_maddr
  000a1	8b 44 24 34	 mov	 eax, DWORD PTR aea_crn$[rsp]
  000a5	ff c0		 inc	 eax
  000a7	48 98		 cdqe
  000a9	48 8b 4c 24 78	 mov	 rcx, QWORD PTR regs$[rsp]
  000ae	0f b6 84 01 e8
	0c 00 00	 movzx	 eax, BYTE PTR [rcx+rax+3304]
  000b6	0f b7 4c 24 30	 movzx	 ecx, WORD PTR tlbix$[rsp]
  000bb	48 8b 54 24 78	 mov	 rdx, QWORD PTR regs$[rsp]
  000c0	0f b6 8c 0a 60
	54 01 00	 movzx	 ecx, BYTE PTR [rdx+rcx+87136]
  000c8	23 c1		 and	 eax, ecx
  000ca	85 c0		 test	 eax, eax
  000cc	0f 84 cd 00 00
	00		 je	 $LN3@z900_maddr
$LN4@z900_maddr:

; 332  :         )
; 333  :         {
; 334  :             /* Storage Key zero? */
; 335  :             /* Or if not, same Storage Key as before? */
; 336  :             if (0
; 337  :                 || akey == 0
; 338  :                 || akey == regs->tlb.skey[ tlbix ]

  000d2	33 c0		 xor	 eax, eax
  000d4	85 c0		 test	 eax, eax
  000d6	75 2e		 jne	 SHORT $LN6@z900_maddr
  000d8	0f b6 84 24 88
	00 00 00	 movzx	 eax, BYTE PTR akey$[rsp]
  000e0	85 c0		 test	 eax, eax
  000e2	74 22		 je	 SHORT $LN6@z900_maddr
  000e4	0f b6 84 24 88
	00 00 00	 movzx	 eax, BYTE PTR akey$[rsp]
  000ec	0f b7 4c 24 30	 movzx	 ecx, WORD PTR tlbix$[rsp]
  000f1	48 8b 54 24 78	 mov	 rdx, QWORD PTR regs$[rsp]
  000f6	0f b6 8c 0a 60
	50 01 00	 movzx	 ecx, BYTE PTR [rdx+rcx+86112]
  000fe	3b c1		 cmp	 eax, ecx
  00100	0f 85 99 00 00
	00		 jne	 $LN5@z900_maddr
$LN6@z900_maddr:

; 339  :             )
; 340  :             {
; 341  :                 /* Does the page address match the one in the TLB? */
; 342  :                 /* (does a TLB entry exist for this page address?) */
; 343  :                 if (
; 344  :                     ((addr & TLBID_PAGEMASK) | regs->tlbID)
; 345  :                     ==

  00106	48 8b 44 24 60	 mov	 rax, QWORD PTR addr$[rsp]
  0010b	48 25 00 00 c0
	ff		 and	 rax, -4194304		; ffffffffffc00000H
  00111	48 8b 4c 24 78	 mov	 rcx, QWORD PTR regs$[rsp]
  00116	8b 89 58 b0 00
	00		 mov	 ecx, DWORD PTR [rcx+45144]
  0011c	48 0b c1	 or	 rax, rcx
  0011f	0f b7 4c 24 30	 movzx	 ecx, WORD PTR tlbix$[rsp]
  00124	48 8b 54 24 78	 mov	 rdx, QWORD PTR regs$[rsp]
  00129	48 3b 84 ca 60
	d0 00 00	 cmp	 rax, QWORD PTR [rdx+rcx*8+53344]
  00131	75 6c		 jne	 SHORT $LN7@z900_maddr

; 346  :                     regs->tlb.TLB_VADDR( tlbix )
; 347  :                 )
; 348  :                 {
; 349  :                     /* Is storage being accessed same way as before? */
; 350  :                     if (acctype & regs->tlb.acc[ tlbix ])

  00133	0f b7 44 24 30	 movzx	 eax, WORD PTR tlbix$[rsp]
  00138	48 8b 4c 24 78	 mov	 rcx, QWORD PTR regs$[rsp]
  0013d	0f b6 84 01 60
	5c 01 00	 movzx	 eax, BYTE PTR [rcx+rax+89184]
  00145	8b 8c 24 80 00
	00 00		 mov	 ecx, DWORD PTR acctype$[rsp]
  0014c	23 c8		 and	 ecx, eax
  0014e	8b c1		 mov	 eax, ecx
  00150	85 c0		 test	 eax, eax
  00152	74 4b		 je	 SHORT $LN8@z900_maddr

; 351  :                     {
; 352  :                         /*------------------------------------------*/
; 353  :                         /* TLB hit: use previously translated value */
; 354  :                         /*------------------------------------------*/
; 355  : 
; 356  :                         if (acctype & ACC_CHECK)

  00154	8b 84 24 80 00
	00 00		 mov	 eax, DWORD PTR acctype$[rsp]
  0015b	83 e0 01	 and	 eax, 1
  0015e	85 c0		 test	 eax, eax
  00160	74 1e		 je	 SHORT $LN9@z900_maddr

; 357  :                             regs->dat.storkey = regs->tlb.storkey[ tlbix ];

  00162	0f b7 44 24 30	 movzx	 eax, WORD PTR tlbix$[rsp]
  00167	48 8b 4c 24 78	 mov	 rcx, QWORD PTR regs$[rsp]
  0016c	48 8b 54 24 78	 mov	 rdx, QWORD PTR regs$[rsp]
  00171	48 8b 84 c2 60
	30 01 00	 mov	 rax, QWORD PTR [rdx+rax*8+77920]
  00179	48 89 81 28 08
	00 00		 mov	 QWORD PTR [rcx+2088], rax
$LN9@z900_maddr:

; 358  : 
; 359  :                         maddr = MAINADDR( regs->tlb.main[tlbix], addr );

  00180	0f b7 44 24 30	 movzx	 eax, WORD PTR tlbix$[rsp]
  00185	48 8b 4c 24 78	 mov	 rcx, QWORD PTR regs$[rsp]
  0018a	48 8b 54 24 60	 mov	 rdx, QWORD PTR addr$[rsp]
  0018f	48 8b 84 c1 60
	10 01 00	 mov	 rax, QWORD PTR [rcx+rax*8+69728]
  00197	48 33 c2	 xor	 rax, rdx
  0019a	48 89 44 24 40	 mov	 QWORD PTR maddr$[rsp], rax
$LN8@z900_maddr:
$LN7@z900_maddr:
$LN5@z900_maddr:
$LN3@z900_maddr:
$LN2@z900_maddr:

; 360  :                     }
; 361  :                 }
; 362  :             }
; 363  :         }
; 364  :     }
; 365  : 
; 366  :     /*---------------------------------------*/
; 367  :     /* TLB miss: do full address translation */
; 368  :     /*---------------------------------------*/
; 369  :     if (!maddr)

  0019f	48 83 7c 24 40
	00		 cmp	 QWORD PTR maddr$[rsp], 0
  001a5	75 36		 jne	 SHORT $LN10@z900_maddr

; 370  :         maddr = ARCH_DEP( logical_to_main_l )( addr, arn, regs, acctype, akey, len );

  001a7	48 8b 44 24 68	 mov	 rax, QWORD PTR len$[rsp]
  001ac	48 89 44 24 28	 mov	 QWORD PTR [rsp+40], rax
  001b1	0f b6 84 24 88
	00 00 00	 movzx	 eax, BYTE PTR akey$[rsp]
  001b9	88 44 24 20	 mov	 BYTE PTR [rsp+32], al
  001bd	44 8b 8c 24 80
	00 00 00	 mov	 r9d, DWORD PTR acctype$[rsp]
  001c5	4c 8b 44 24 78	 mov	 r8, QWORD PTR regs$[rsp]
  001ca	8b 54 24 70	 mov	 edx, DWORD PTR arn$[rsp]
  001ce	48 8b 4c 24 60	 mov	 rcx, QWORD PTR addr$[rsp]
  001d3	e8 00 00 00 00	 call	 z900_logical_to_main_l
  001d8	48 89 44 24 40	 mov	 QWORD PTR maddr$[rsp], rax
$LN10@z900_maddr:

; 371  : 
; 372  : #if defined( FEATURE_073_TRANSACT_EXEC_FACILITY )
; 373  :     if (FACILITY_ENABLED( 073_TRANSACT_EXEC, regs ))

  001dd	b8 01 00 00 00	 mov	 eax, 1
  001e2	48 6b c0 09	 imul	 rax, rax, 9
  001e6	48 8b 4c 24 78	 mov	 rcx, QWORD PTR regs$[rsp]
  001eb	0f b6 84 01 28
	0d 00 00	 movzx	 eax, BYTE PTR [rcx+rax+3368]
  001f3	83 e0 40	 and	 eax, 64			; 00000040H
  001f6	85 c0		 test	 eax, eax
  001f8	0f 84 89 00 00
	00		 je	 $LN11@z900_maddr

; 374  :     {
; 375  :         /* SA22-7832-12 Principles of Operation, page 5-99:
; 376  : 
; 377  :              "Storage accesses for instruction and DAT- and ART-
; 378  :               table fetches follow the non-transactional rules."
; 379  :         */
; 380  :         if (0
; 381  :             || !regs
; 382  :             || !regs->txf_tnd
; 383  :             || arn == USE_INST_SPACE    /* Instruction fetching */
; 384  :             || arn == USE_REAL_ADDR     /* Address translation  */

  001fe	33 c0		 xor	 eax, eax
  00200	85 c0		 test	 eax, eax
  00202	75 26		 jne	 SHORT $LN13@z900_maddr
  00204	48 83 7c 24 78
	00		 cmp	 QWORD PTR regs$[rsp], 0
  0020a	74 1e		 je	 SHORT $LN13@z900_maddr
  0020c	48 8b 44 24 78	 mov	 rax, QWORD PTR regs$[rsp]
  00211	0f b6 80 58 0e
	00 00		 movzx	 eax, BYTE PTR [rax+3672]
  00218	85 c0		 test	 eax, eax
  0021a	74 0e		 je	 SHORT $LN13@z900_maddr
  0021c	83 7c 24 70 ff	 cmp	 DWORD PTR arn$[rsp], -1
  00221	74 07		 je	 SHORT $LN13@z900_maddr
  00223	83 7c 24 70 fe	 cmp	 DWORD PTR arn$[rsp], -2
  00228	75 07		 jne	 SHORT $LN12@z900_maddr
$LN13@z900_maddr:

; 385  :         )
; 386  :             return maddr;

  0022a	48 8b 44 24 40	 mov	 rax, QWORD PTR maddr$[rsp]
  0022f	eb 5b		 jmp	 SHORT $LN1@z900_maddr
$LN12@z900_maddr:

; 387  : 
; 388  :         /* Quick exit if NTSTG call */
; 389  :         if (regs->txf_NTSTG)

  00231	48 8b 44 24 78	 mov	 rax, QWORD PTR regs$[rsp]
  00236	0f b6 80 4b 0e
	00 00		 movzx	 eax, BYTE PTR [rax+3659]
  0023d	85 c0		 test	 eax, eax
  0023f	74 13		 je	 SHORT $LN14@z900_maddr

; 390  :         {
; 391  :             regs->txf_NTSTG = false;

  00241	48 8b 44 24 78	 mov	 rax, QWORD PTR regs$[rsp]
  00246	c6 80 4b 0e 00
	00 00		 mov	 BYTE PTR [rax+3659], 0

; 392  :             return maddr;

  0024d	48 8b 44 24 40	 mov	 rax, QWORD PTR maddr$[rsp]
  00252	eb 38		 jmp	 SHORT $LN1@z900_maddr
$LN14@z900_maddr:

; 393  :         }
; 394  : 
; 395  :         /* Translate to alternate TXF address */
; 396  :         maddr = TXF_MADDRL( addr, len, arn, regs, acctype, maddr );

  00254	48 8b 44 24 40	 mov	 rax, QWORD PTR maddr$[rsp]
  00259	48 89 44 24 28	 mov	 QWORD PTR [rsp+40], rax
  0025e	8b 84 24 80 00
	00 00		 mov	 eax, DWORD PTR acctype$[rsp]
  00265	89 44 24 20	 mov	 DWORD PTR [rsp+32], eax
  00269	4c 8b 4c 24 78	 mov	 r9, QWORD PTR regs$[rsp]
  0026e	44 8b 44 24 70	 mov	 r8d, DWORD PTR arn$[rsp]
  00273	48 8b 54 24 68	 mov	 rdx, QWORD PTR len$[rsp]
  00278	48 8b 4c 24 60	 mov	 rcx, QWORD PTR addr$[rsp]
  0027d	e8 00 00 00 00	 call	 txf_maddr_l
  00282	48 89 44 24 40	 mov	 QWORD PTR maddr$[rsp], rax
$LN11@z900_maddr:

; 397  :     }
; 398  : #endif
; 399  : 
; 400  :     return maddr;

  00287	48 8b 44 24 40	 mov	 rax, QWORD PTR maddr$[rsp]
$LN1@z900_maddr:

; 401  : }

  0028c	48 83 c4 58	 add	 rsp, 88			; 00000058H
  00290	c3		 ret	 0
z900_maddr_l ENDP
_TEXT	ENDS
; Function compile flags: /Odtp
; File C:\papa\MyGit\hyperion-zvector\inline.h
;	COMDAT z900_FPC_check
_TEXT	SEGMENT
regs$ = 48
fpc$ = 56
z900_FPC_check PROC					; COMDAT

; 788  : {

$LN8:
  00000	89 54 24 10	 mov	 DWORD PTR [rsp+16], edx
  00004	48 89 4c 24 08	 mov	 QWORD PTR [rsp+8], rcx
  00009	48 83 ec 28	 sub	 rsp, 40			; 00000028H

; 789  :     if (FACILITY_ENABLED( 037_FP_EXTENSION, regs ))

  0000d	b8 01 00 00 00	 mov	 eax, 1
  00012	48 6b c0 04	 imul	 rax, rax, 4
  00016	48 8b 4c 24 30	 mov	 rcx, QWORD PTR regs$[rsp]
  0001b	0f b6 84 01 28
	0d 00 00	 movzx	 eax, BYTE PTR [rcx+rax+3368]
  00023	83 e0 04	 and	 eax, 4
  00026	85 c0		 test	 eax, eax
  00028	74 4e		 je	 SHORT $LN2@z900_FPC_c

; 790  :     {
; 791  :         if (0
; 792  :             || (fpc & FPC_RESV_FPX)
; 793  :             || (fpc & FPC_BRM_3BIT) == BRM_RESV4
; 794  :             || (fpc & FPC_BRM_3BIT) == BRM_RESV5
; 795  :             || (fpc & FPC_BRM_3BIT) == BRM_RESV6

  0002a	33 c0		 xor	 eax, eax
  0002c	85 c0		 test	 eax, eax
  0002e	75 31		 jne	 SHORT $LN5@z900_FPC_c
  00030	8b 44 24 38	 mov	 eax, DWORD PTR fpc$[rsp]
  00034	25 88 00 03 03	 and	 eax, 50528392		; 03030088H
  00039	85 c0		 test	 eax, eax
  0003b	75 24		 jne	 SHORT $LN5@z900_FPC_c
  0003d	8b 44 24 38	 mov	 eax, DWORD PTR fpc$[rsp]
  00041	83 e0 07	 and	 eax, 7
  00044	83 f8 04	 cmp	 eax, 4
  00047	74 18		 je	 SHORT $LN5@z900_FPC_c
  00049	8b 44 24 38	 mov	 eax, DWORD PTR fpc$[rsp]
  0004d	83 e0 07	 and	 eax, 7
  00050	83 f8 05	 cmp	 eax, 5
  00053	74 0c		 je	 SHORT $LN5@z900_FPC_c
  00055	8b 44 24 38	 mov	 eax, DWORD PTR fpc$[rsp]
  00059	83 e0 07	 and	 eax, 7
  0005c	83 f8 06	 cmp	 eax, 6
  0005f	75 15		 jne	 SHORT $LN4@z900_FPC_c
$LN5@z900_FPC_c:

; 796  :         )
; 797  :             regs->program_interrupt( regs, PGM_SPECIFICATION_EXCEPTION );

  00061	ba 06 00 00 00	 mov	 edx, 6
  00066	48 8b 4c 24 30	 mov	 rcx, QWORD PTR regs$[rsp]
  0006b	48 8b 44 24 30	 mov	 rax, QWORD PTR regs$[rsp]
  00070	ff 90 20 0d 00
	00		 call	 QWORD PTR [rax+3360]
$LN4@z900_FPC_c:

; 798  :     }

  00076	eb 22		 jmp	 SHORT $LN3@z900_FPC_c
$LN2@z900_FPC_c:

; 799  :     else
; 800  :     {
; 801  :         if (fpc & FPC_RESERVED)

  00078	8b 44 24 38	 mov	 eax, DWORD PTR fpc$[rsp]
  0007c	25 8c 00 07 07	 and	 eax, 117899404		; 0707008cH
  00081	85 c0		 test	 eax, eax
  00083	74 15		 je	 SHORT $LN6@z900_FPC_c

; 802  :             regs->program_interrupt( regs, PGM_SPECIFICATION_EXCEPTION );

  00085	ba 06 00 00 00	 mov	 edx, 6
  0008a	48 8b 4c 24 30	 mov	 rcx, QWORD PTR regs$[rsp]
  0008f	48 8b 44 24 30	 mov	 rax, QWORD PTR regs$[rsp]
  00094	ff 90 20 0d 00
	00		 call	 QWORD PTR [rax+3360]
$LN6@z900_FPC_c:
$LN3@z900_FPC_c:

; 803  :     }
; 804  : }

  0009a	48 83 c4 28	 add	 rsp, 40			; 00000028H
  0009e	c3		 ret	 0
z900_FPC_check ENDP
_TEXT	ENDS
; Function compile flags: /Odtp
; File C:\papa\MyGit\hyperion-zvector\inline.h
;	COMDAT z900_per3_zero_xcheck
_TEXT	SEGMENT
tv79 = 32
regs$ = 64
b1$ = 72
z900_per3_zero_xcheck PROC				; COMDAT

; 754  : {

$LN6:
  00000	89 54 24 10	 mov	 DWORD PTR [rsp+16], edx
  00004	48 89 4c 24 08	 mov	 QWORD PTR [rsp+8], rcx
  00009	48 83 ec 38	 sub	 rsp, 56			; 00000038H

; 755  : #if defined( FEATURE_PER_ZERO_ADDRESS_DETECTION_FACILITY )
; 756  :     if (b1 && GR_A( b1, regs ) == 0)

  0000d	83 7c 24 48 00	 cmp	 DWORD PTR b1$[rsp], 0
  00012	74 53		 je	 SHORT $LN2@z900_per3_
  00014	48 8b 44 24 40	 mov	 rax, QWORD PTR regs$[rsp]
  00019	8b 80 80 00 00
	00		 mov	 eax, DWORD PTR [rax+128]
  0001f	83 e0 01	 and	 eax, 1
  00022	85 c0		 test	 eax, eax
  00024	74 19		 je	 SHORT $LN4@z900_per3_
  00026	48 63 44 24 48	 movsxd	 rax, DWORD PTR b1$[rsp]
  0002b	48 8b 4c 24 40	 mov	 rcx, QWORD PTR regs$[rsp]
  00030	48 8b 84 c1 80
	02 00 00	 mov	 rax, QWORD PTR [rcx+rax*8+640]
  00038	48 89 44 24 20	 mov	 QWORD PTR tv79[rsp], rax
  0003d	eb 16		 jmp	 SHORT $LN5@z900_per3_
$LN4@z900_per3_:
  0003f	48 63 44 24 48	 movsxd	 rax, DWORD PTR b1$[rsp]
  00044	48 8b 4c 24 40	 mov	 rcx, QWORD PTR regs$[rsp]
  00049	8b 84 c1 80 02
	00 00		 mov	 eax, DWORD PTR [rcx+rax*8+640]
  00050	48 89 44 24 20	 mov	 QWORD PTR tv79[rsp], rax
$LN5@z900_per3_:
  00055	48 83 7c 24 20
	00		 cmp	 QWORD PTR tv79[rsp], 0
  0005b	75 0a		 jne	 SHORT $LN2@z900_per3_

; 757  :         ARCH_DEP( per3_zero )( regs );

  0005d	48 8b 4c 24 40	 mov	 rcx, QWORD PTR regs$[rsp]
  00062	e8 00 00 00 00	 call	 z900_per3_zero
$LN2@z900_per3_:

; 758  : #else
; 759  :     UNREFERENCED( regs );
; 760  :     UNREFERENCED( b1 );
; 761  : #endif
; 762  : }

  00067	48 83 c4 38	 add	 rsp, 56			; 00000038H
  0006b	c3		 ret	 0
z900_per3_zero_xcheck ENDP
_TEXT	ENDS
; Function compile flags: /Odtp
; File C:\papa\MyGit\hyperion-zvector\inline.h
;	COMDAT z900_per3_zero
_TEXT	SEGMENT
tv75 = 32
regs$ = 64
z900_per3_zero PROC					; COMDAT

; 602  : {

$LN12:
  00000	48 89 4c 24 08	 mov	 QWORD PTR [rsp+8], rcx
  00005	48 83 ec 38	 sub	 rsp, 56			; 00000038H

; 603  : #if defined( FEATURE_PER_ZERO_ADDRESS_DETECTION_FACILITY )
; 604  :     if (1
; 605  :         && EN_IC_PER_ZEROADDR( regs )
; 606  :         && !IS_PER_SUPRESS( regs, CR9_ZEROADDR )

  00009	33 c0		 xor	 eax, eax
  0000b	83 f8 01	 cmp	 eax, 1
  0000e	0f 84 be 00 00
	00		 je	 $LN5@z900_per3_
  00014	48 8b 44 24 40	 mov	 rax, QWORD PTR regs$[rsp]
  00019	8b 80 28 07 00
	00		 mov	 eax, DWORD PTR [rax+1832]
  0001f	c1 e8 02	 shr	 eax, 2
  00022	83 e0 01	 and	 eax, 1
  00025	85 c0		 test	 eax, eax
  00027	74 0a		 je	 SHORT $LN10@z900_per3_
  00029	c7 44 24 20 01
	00 00 00	 mov	 DWORD PTR tv75[rsp], 1
  00031	eb 08		 jmp	 SHORT $LN11@z900_per3_
$LN10@z900_per3_:
  00033	c7 44 24 20 00
	00 00 00	 mov	 DWORD PTR tv75[rsp], 0
$LN11@z900_per3_:
  0003b	83 7c 24 20 00	 cmp	 DWORD PTR tv75[rsp], 0
  00040	0f 84 8c 00 00
	00		 je	 $LN5@z900_per3_
  00046	48 8b 44 24 40	 mov	 rax, QWORD PTR regs$[rsp]
  0004b	8b 40 48	 mov	 eax, DWORD PTR [rax+72]
  0004e	25 00 00 04 00	 and	 eax, 262144		; 00040000H
  00053	85 c0		 test	 eax, eax
  00055	74 7b		 je	 SHORT $LN5@z900_per3_
  00057	ba 00 00 00 04	 mov	 edx, 67108864		; 04000000H
  0005c	48 8b 4c 24 40	 mov	 rcx, QWORD PTR regs$[rsp]
  00061	e8 00 00 00 00	 call	 z900_is_per3_event_suppressed
  00066	0f b6 c0	 movzx	 eax, al
  00069	85 c0		 test	 eax, eax
  0006b	75 65		 jne	 SHORT $LN5@z900_per3_

; 607  :     )
; 608  :     {
; 609  :         regs->peradr = regs->periaddr;

  0006d	48 8b 44 24 40	 mov	 rax, QWORD PTR regs$[rsp]
  00072	48 8b 4c 24 40	 mov	 rcx, QWORD PTR regs$[rsp]
  00077	48 8b 89 e8 08
	00 00		 mov	 rcx, QWORD PTR [rcx+2280]
  0007e	48 89 88 d8 08
	00 00		 mov	 QWORD PTR [rax+2264], rcx
$LN4@z900_per3_:

; 610  :         ON_IC_PER_ZEROADDR( regs );

  00085	48 8b 44 24 40	 mov	 rax, QWORD PTR regs$[rsp]
  0008a	8b 40 4c	 mov	 eax, DWORD PTR [rax+76]
  0008d	0f ba e8 12	 bts	 eax, 18
  00091	48 8b 4c 24 40	 mov	 rcx, QWORD PTR regs$[rsp]
  00096	89 41 4c	 mov	 DWORD PTR [rcx+76], eax
  00099	33 c0		 xor	 eax, eax
  0009b	85 c0		 test	 eax, eax
  0009d	75 e6		 jne	 SHORT $LN4@z900_per3_

; 611  :         if (OPEN_IC_PER_ZEROADDR( regs ))

  0009f	48 8b 44 24 40	 mov	 rax, QWORD PTR regs$[rsp]
  000a4	48 8b 4c 24 40	 mov	 rcx, QWORD PTR regs$[rsp]
  000a9	8b 49 4c	 mov	 ecx, DWORD PTR [rcx+76]
  000ac	8b 40 48	 mov	 eax, DWORD PTR [rax+72]
  000af	23 c1		 and	 eax, ecx
  000b1	25 00 00 04 00	 and	 eax, 262144		; 00040000H
  000b6	85 c0		 test	 eax, eax
  000b8	74 18		 je	 SHORT $LN6@z900_per3_

; 612  :             RETURN_INTCHECK( regs );

  000ba	48 8b 44 24 40	 mov	 rax, QWORD PTR regs$[rsp]
  000bf	48 05 80 09 00
	00		 add	 rax, 2432		; 00000980H
  000c5	ba ff ff ff ff	 mov	 edx, -1
  000ca	48 8b c8	 mov	 rcx, rax
  000cd	e8 00 00 00 00	 call	 longjmp
$LN6@z900_per3_:
$LN5@z900_per3_:
$LN7@z900_per3_:

; 613  :     }
; 614  : #else
; 615  :     UNREFERENCED( regs );
; 616  : #endif
; 617  : }

  000d2	48 83 c4 38	 add	 rsp, 56			; 00000038H
  000d6	c3		 ret	 0
z900_per3_zero ENDP
_TEXT	ENDS
; Function compile flags: /Odtp
; File C:\papa\MyGit\hyperion-zvector\inline.h
;	COMDAT z900_is_per3_event_suppressed
_TEXT	SEGMENT
regs$ = 8
cr9_per_event$ = 16
z900_is_per3_event_suppressed PROC			; COMDAT

; 566  : {

  00000	89 54 24 10	 mov	 DWORD PTR [rsp+16], edx
  00004	48 89 4c 24 08	 mov	 QWORD PTR [rsp+8], rcx

; 567  : #if !defined( FEATURE_PER3 )
; 568  :     UNREFERENCED( regs );
; 569  :     UNREFERENCED( cr9_per_event );
; 570  : #else
; 571  :     /* DON'T suppress this event if Event Suppression isn't enabled */
; 572  :     if (!(regs->CR_L(9) & CR9_SUPPRESS))

  00009	b8 08 00 00 00	 mov	 eax, 8
  0000e	48 6b c0 0a	 imul	 rax, rax, 10
  00012	48 8b 4c 24 08	 mov	 rcx, QWORD PTR regs$[rsp]
  00017	8b 84 01 00 06
	00 00		 mov	 eax, DWORD PTR [rcx+rax+1536]
  0001e	25 00 00 40 00	 and	 eax, 4194304		; 00400000H
  00023	85 c0		 test	 eax, eax
  00025	75 04		 jne	 SHORT $LN2@z900_is_pe

; 573  :         return false;

  00027	32 c0		 xor	 al, al
  00029	eb 78		 jmp	 SHORT $LN1@z900_is_pe
$LN2@z900_is_pe:

; 574  : 
; 575  :     /* Is this PER event one that is ALLOWED to be suppressed? */
; 576  :     if (cr9_per_event & CR9_SUPPRESSABLE)

  0002b	8b 44 24 10	 mov	 eax, DWORD PTR cr9_per_event$[rsp]
  0002f	25 00 00 00 ed	 and	 eax, -318767104		; ed000000H
  00034	85 c0		 test	 eax, eax
  00036	74 69		 je	 SHORT $LN3@z900_is_pe

; 577  :     {
; 578  :         /* Is there an active transaction? */
; 579  :         if (regs->txf_tnd)

  00038	48 8b 44 24 08	 mov	 rax, QWORD PTR regs$[rsp]
  0003d	0f b6 80 58 0e
	00 00		 movzx	 eax, BYTE PTR [rax+3672]
  00044	85 c0		 test	 eax, eax
  00046	74 04		 je	 SHORT $LN4@z900_is_pe

; 580  :             return true;        /* Yes, then suppress it! */

  00048	b0 01		 mov	 al, 1
  0004a	eb 57		 jmp	 SHORT $LN1@z900_is_pe
$LN4@z900_is_pe:

; 581  : 
; 582  :         /* Suppress instruction-fetch events for TBEGIN/TBEGINC */
; 583  :         if (1
; 584  :             && cr9_per_event & CR9_IF
; 585  :             && *(regs->ip+0) == 0xE5
; 586  :             && (0

  0004c	33 c0		 xor	 eax, eax
  0004e	83 f8 01	 cmp	 eax, 1
  00051	74 4e		 je	 SHORT $LN5@z900_is_pe
  00053	8b 44 24 10	 mov	 eax, DWORD PTR cr9_per_event$[rsp]
  00057	25 00 00 00 40	 and	 eax, 1073741824		; 40000000H
  0005c	85 c0		 test	 eax, eax
  0005e	74 41		 je	 SHORT $LN5@z900_is_pe
  00060	48 8b 44 24 08	 mov	 rax, QWORD PTR regs$[rsp]
  00065	48 8b 40 68	 mov	 rax, QWORD PTR [rax+104]
  00069	0f b6 00	 movzx	 eax, BYTE PTR [rax]
  0006c	3d e5 00 00 00	 cmp	 eax, 229		; 000000e5H
  00071	75 2e		 jne	 SHORT $LN5@z900_is_pe
  00073	33 c0		 xor	 eax, eax
  00075	85 c0		 test	 eax, eax
  00077	75 24		 jne	 SHORT $LN6@z900_is_pe
  00079	48 8b 44 24 08	 mov	 rax, QWORD PTR regs$[rsp]
  0007e	48 8b 40 68	 mov	 rax, QWORD PTR [rax+104]
  00082	0f b6 40 01	 movzx	 eax, BYTE PTR [rax+1]
  00086	83 f8 60	 cmp	 eax, 96			; 00000060H
  00089	74 12		 je	 SHORT $LN6@z900_is_pe
  0008b	48 8b 44 24 08	 mov	 rax, QWORD PTR regs$[rsp]
  00090	48 8b 40 68	 mov	 rax, QWORD PTR [rax+104]
  00094	0f b6 40 01	 movzx	 eax, BYTE PTR [rax+1]
  00098	83 f8 61	 cmp	 eax, 97			; 00000061H
  0009b	75 04		 jne	 SHORT $LN5@z900_is_pe
$LN6@z900_is_pe:

; 587  :                 || *(regs->ip+1) == 0x60
; 588  :                 || *(regs->ip+1) == 0x61
; 589  :                )
; 590  :         )
; 591  :             return true;        /* TBEGIN/TBEGINC: suppress it! */

  0009d	b0 01		 mov	 al, 1
  0009f	eb 02		 jmp	 SHORT $LN1@z900_is_pe
$LN5@z900_is_pe:
$LN3@z900_is_pe:

; 592  :     }
; 593  : #endif
; 594  :     /* Otherwise DON'T suppress this PER event */
; 595  :     return false;

  000a1	32 c0		 xor	 al, al
$LN1@z900_is_pe:

; 596  : }

  000a3	c3		 ret	 0
z900_is_per3_event_suppressed ENDP
_TEXT	ENDS
; Function compile flags: /Odtp
; File C:\papa\MyGit\hyperion-zvector\dfp.c
_TEXT	SEGMENT
temp$1 = 48
b2$ = 52
l2$ = 56
effective_addr2$ = 64
r1$ = 72
m3$ = 76
cc$ = 80
x1$ = 88
dwork$ = 96
set$ = 136
dcoeff$ = 168
packed$ = 208
__$ArrayPad$ = 224
inst$ = 256
regs$ = 264
z900_convert_dfp_long_to_packed PROC

; 3819 : {

$LN18:
  00000	48 89 54 24 10	 mov	 QWORD PTR [rsp+16], rdx
  00005	48 89 4c 24 08	 mov	 QWORD PTR [rsp+8], rcx
  0000a	48 81 ec f8 00
	00 00		 sub	 rsp, 248		; 000000f8H
  00011	48 8b 05 00 00
	00 00		 mov	 rax, QWORD PTR __security_cookie
  00018	48 33 c4	 xor	 rax, rsp
  0001b	48 89 84 24 e0
	00 00 00	 mov	 QWORD PTR __$ArrayPad$[rsp], rax

; 3820 :     int             r1, m3;                 /* Values of R and M fields  */
; 3821 :     int             l2;                     /* Operand length minus 1    */
; 3822 :     int             b2;                     /* Base of effective addr    */
; 3823 :     VADR            effective_addr2;        /* Effective address         */
; 3824 :     decimal64       x1;                     /* Long DFP value            */
; 3825 :     decNumber       dwork, dcoeff;          /* Working decimal numbers   */
; 3826 :     decContext      set;                    /* Working context           */
; 3827 :     int             cc;                     /* Condition code            */
; 3828 :     char            packed[CPDT_MAXLEN];    /* Packed decimal result     */
; 3829 : 
; 3830 :     RSL_RM(inst, regs, r1, l2, b2, effective_addr2, m3);

  00023	b8 01 00 00 00	 mov	 eax, 1
  00028	48 6b c0 01	 imul	 rax, rax, 1
  0002c	48 8b 8c 24 00
	01 00 00	 mov	 rcx, QWORD PTR inst$[rsp]
  00034	48 03 c8	 add	 rcx, rax
  00037	48 8b c1	 mov	 rax, rcx
  0003a	48 8b c8	 mov	 rcx, rax
  0003d	e8 00 00 00 00	 call	 fetch_fw_noswap
  00042	8b c8		 mov	 ecx, eax
  00044	e8 00 00 00 00	 call	 _byteswap_ulong
  00049	89 44 24 30	 mov	 DWORD PTR temp$1[rsp], eax
  0004d	8b 44 24 30	 mov	 eax, DWORD PTR temp$1[rsp]
  00051	83 e0 0f	 and	 eax, 15
  00054	89 44 24 4c	 mov	 DWORD PTR m3$[rsp], eax
  00058	8b 44 24 30	 mov	 eax, DWORD PTR temp$1[rsp]
  0005c	c1 e8 04	 shr	 eax, 4
  0005f	83 e0 0f	 and	 eax, 15
  00062	89 44 24 48	 mov	 DWORD PTR r1$[rsp], eax
  00066	8b 44 24 30	 mov	 eax, DWORD PTR temp$1[rsp]
  0006a	c1 e8 08	 shr	 eax, 8
  0006d	25 ff 0f 00 00	 and	 eax, 4095		; 00000fffH
  00072	8b c0		 mov	 eax, eax
  00074	48 89 44 24 40	 mov	 QWORD PTR effective_addr2$[rsp], rax
  00079	8b 44 24 30	 mov	 eax, DWORD PTR temp$1[rsp]
  0007d	c1 e8 14	 shr	 eax, 20
  00080	83 e0 0f	 and	 eax, 15
  00083	89 44 24 34	 mov	 DWORD PTR b2$[rsp], eax
  00087	8b 44 24 30	 mov	 eax, DWORD PTR temp$1[rsp]
  0008b	c1 e8 18	 shr	 eax, 24
  0008e	25 ff 00 00 00	 and	 eax, 255		; 000000ffH
  00093	89 44 24 38	 mov	 DWORD PTR l2$[rsp], eax
  00097	83 7c 24 34 00	 cmp	 DWORD PTR b2$[rsp], 0
  0009c	74 44		 je	 SHORT $LN8@z900_conve
  0009e	48 63 44 24 34	 movsxd	 rax, DWORD PTR b2$[rsp]
  000a3	48 8b 8c 24 08
	01 00 00	 mov	 rcx, QWORD PTR regs$[rsp]
  000ab	48 8b 84 c1 80
	02 00 00	 mov	 rax, QWORD PTR [rcx+rax*8+640]
  000b3	48 8b 4c 24 40	 mov	 rcx, QWORD PTR effective_addr2$[rsp]
  000b8	48 03 c8	 add	 rcx, rax
  000bb	48 8b c1	 mov	 rax, rcx
  000be	48 89 44 24 40	 mov	 QWORD PTR effective_addr2$[rsp], rax
  000c3	48 8b 84 24 08
	01 00 00	 mov	 rax, QWORD PTR regs$[rsp]
  000cb	48 8b 80 90 00
	00 00		 mov	 rax, QWORD PTR [rax+144]
  000d2	48 8b 4c 24 40	 mov	 rcx, QWORD PTR effective_addr2$[rsp]
  000d7	48 23 c8	 and	 rcx, rax
  000da	48 8b c1	 mov	 rax, rcx
  000dd	48 89 44 24 40	 mov	 QWORD PTR effective_addr2$[rsp], rax
$LN8@z900_conve:
$LN4@z900_conve:
  000e2	48 8b 84 24 08
	01 00 00	 mov	 rax, QWORD PTR regs$[rsp]
  000ea	48 8b 40 68	 mov	 rax, QWORD PTR [rax+104]
  000ee	48 83 c0 06	 add	 rax, 6
  000f2	48 8b 8c 24 08
	01 00 00	 mov	 rcx, QWORD PTR regs$[rsp]
  000fa	48 89 41 68	 mov	 QWORD PTR [rcx+104], rax
  000fe	33 c0		 xor	 eax, eax
  00100	83 f8 06	 cmp	 eax, 6
  00103	74 0f		 je	 SHORT $LN9@z900_conve
  00105	48 8b 84 24 08
	01 00 00	 mov	 rax, QWORD PTR regs$[rsp]
  0010d	c6 80 9a 00 00
	00 06		 mov	 BYTE PTR [rax+154], 6
$LN9@z900_conve:
  00114	33 c0		 xor	 eax, eax
  00116	85 c0		 test	 eax, eax
  00118	75 c8		 jne	 SHORT $LN4@z900_conve

; 3831 :     PER_ZEROADDR_XCHECK(regs, b2);

  0011a	8b 54 24 34	 mov	 edx, DWORD PTR b2$[rsp]
  0011e	48 8b 8c 24 08
	01 00 00	 mov	 rcx, QWORD PTR regs$[rsp]
  00126	e8 00 00 00 00	 call	 z900_per3_zero_xcheck
$LN7@z900_conve:

; 3832 : 
; 3833 :     TXF_FLOAT_INSTR_CHECK(regs);

  0012b	33 c0		 xor	 eax, eax
  0012d	83 f8 01	 cmp	 eax, 1
  00130	0f 84 81 00 00
	00		 je	 $LN10@z900_conve
  00136	48 8b 84 24 08
	01 00 00	 mov	 rax, QWORD PTR regs$[rsp]
  0013e	0f b6 80 58 0e
	00 00		 movzx	 eax, BYTE PTR [rax+3672]
  00145	85 c0		 test	 eax, eax
  00147	74 6e		 je	 SHORT $LN10@z900_conve
  00149	33 c0		 xor	 eax, eax
  0014b	85 c0		 test	 eax, eax
  0014d	75 29		 jne	 SHORT $LN11@z900_conve
  0014f	48 8b 84 24 08
	01 00 00	 mov	 rax, QWORD PTR regs$[rsp]
  00157	0f b6 80 4c 0e
	00 00		 movzx	 eax, BYTE PTR [rax+3660]
  0015e	85 c0		 test	 eax, eax
  00160	75 16		 jne	 SHORT $LN11@z900_conve
  00162	48 8b 84 24 08
	01 00 00	 mov	 rax, QWORD PTR regs$[rsp]
  0016a	0f b6 80 59 0e
	00 00		 movzx	 eax, BYTE PTR [rax+3673]
  00171	83 e0 04	 and	 eax, 4
  00174	85 c0		 test	 eax, eax
  00176	75 3f		 jne	 SHORT $LN10@z900_conve
$LN11@z900_conve:
  00178	48 8b 84 24 08
	01 00 00	 mov	 rax, QWORD PTR regs$[rsp]
  00180	8b 80 84 af 00
	00		 mov	 eax, DWORD PTR [rax+44932]
  00186	0f ba e8 0b	 bts	 eax, 11
  0018a	48 8b 8c 24 08
	01 00 00	 mov	 rcx, QWORD PTR regs$[rsp]
  00192	89 81 84 af 00
	00		 mov	 DWORD PTR [rcx+44932], eax
  00198	4c 8d 0d 00 00
	00 00		 lea	 r9, OFFSET FLAT:$SG196885
  0019f	41 b8 0b 00 00
	00		 mov	 r8d, 11
  001a5	ba 02 00 00 00	 mov	 edx, 2
  001aa	48 8b 8c 24 08
	01 00 00	 mov	 rcx, QWORD PTR regs$[rsp]
  001b2	e8 00 00 00 00	 call	 z900_abort_transaction
$LN10@z900_conve:
  001b7	33 c0		 xor	 eax, eax
  001b9	85 c0		 test	 eax, eax
  001bb	0f 85 6a ff ff
	ff		 jne	 $LN7@z900_conve

; 3834 :     DFPINST_CHECK(regs);

  001c1	b8 08 00 00 00	 mov	 eax, 8
  001c6	48 6b c0 01	 imul	 rax, rax, 1
  001ca	48 8b 8c 24 08
	01 00 00	 mov	 rcx, QWORD PTR regs$[rsp]
  001d2	48 8b 84 01 00
	06 00 00	 mov	 rax, QWORD PTR [rcx+rax+1536]
  001da	48 25 00 00 04
	00		 and	 rax, 262144		; 00040000H
  001e0	48 85 c0	 test	 rax, rax
  001e3	74 42		 je	 SHORT $LN13@z900_conve
  001e5	48 8b 84 24 08
	01 00 00	 mov	 rax, QWORD PTR regs$[rsp]
  001ed	8b 80 c8 08 00
	00		 mov	 eax, DWORD PTR [rax+2248]
  001f3	d1 e8		 shr	 eax, 1
  001f5	83 e0 01	 and	 eax, 1
  001f8	85 c0		 test	 eax, eax
  001fa	74 58		 je	 SHORT $LN12@z900_conve
  001fc	48 8b 84 24 08
	01 00 00	 mov	 rax, QWORD PTR regs$[rsp]
  00204	48 8b 80 68 08
	00 00		 mov	 rax, QWORD PTR [rax+2152]
  0020b	b9 08 00 00 00	 mov	 ecx, 8
  00210	48 6b c9 01	 imul	 rcx, rcx, 1
  00214	48 8b 84 08 00
	06 00 00	 mov	 rax, QWORD PTR [rax+rcx+1536]
  0021c	48 25 00 00 04
	00		 and	 rax, 262144		; 00040000H
  00222	48 85 c0	 test	 rax, rax
  00225	75 2d		 jne	 SHORT $LN12@z900_conve
$LN13@z900_conve:
  00227	48 8b 84 24 08
	01 00 00	 mov	 rax, QWORD PTR regs$[rsp]
  0022f	c7 80 08 07 00
	00 03 00 00 00	 mov	 DWORD PTR [rax+1800], 3
  00239	ba 07 00 00 00	 mov	 edx, 7
  0023e	48 8b 8c 24 08
	01 00 00	 mov	 rcx, QWORD PTR regs$[rsp]
  00246	48 8b 84 24 08
	01 00 00	 mov	 rax, QWORD PTR regs$[rsp]
  0024e	ff 90 20 0d 00
	00		 call	 QWORD PTR [rax+3360]
$LN12@z900_conve:

; 3835 : 
; 3836 :     /* Program check if operand length exceeds 8 */
; 3837 :     if (l2 > CPDT_MAXLEN - 1)

  00254	83 7c 24 38 08	 cmp	 DWORD PTR l2$[rsp], 8
  00259	7e 12		 jle	 SHORT $LN14@z900_conve

; 3838 :     {
; 3839 :         ARCH_DEP(program_interrupt) (regs, PGM_SPECIFICATION_EXCEPTION);

  0025b	ba 06 00 00 00	 mov	 edx, 6
  00260	48 8b 8c 24 08
	01 00 00	 mov	 rcx, QWORD PTR regs$[rsp]
  00268	e8 00 00 00 00	 call	 z900_program_interrupt
$LN14@z900_conve:

; 3840 :     }
; 3841 : 
; 3842 :     /* Initialise the context for long DFP */
; 3843 :     decContextDefault(&set, DEC_INIT_DECIMAL64);

  0026d	ba 40 00 00 00	 mov	 edx, 64			; 00000040H
  00272	48 8d 8c 24 88
	00 00 00	 lea	 rcx, QWORD PTR set$[rsp]
  0027a	e8 00 00 00 00	 call	 decContextDefault

; 3844 : 
; 3845 :     /* Load DFP long number from FP register r1 */
; 3846 :     ARCH_DEP(dfp_reg_to_decimal64)(r1, &x1, regs);

  0027f	4c 8b 84 24 08
	01 00 00	 mov	 r8, QWORD PTR regs$[rsp]
  00287	48 8d 54 24 58	 lea	 rdx, QWORD PTR x1$[rsp]
  0028c	8b 4c 24 48	 mov	 ecx, DWORD PTR r1$[rsp]
  00290	e8 00 00 00 00	 call	 z900_dfp_reg_to_decimal64

; 3847 :     decimal64ToNumber(&x1, &dwork);

  00295	48 8d 54 24 60	 lea	 rdx, QWORD PTR dwork$[rsp]
  0029a	48 8d 4c 24 58	 lea	 rcx, QWORD PTR x1$[rsp]
  0029f	e8 00 00 00 00	 call	 decimal64ToNumber

; 3848 : 
; 3849 :     /* Extract coefficient only for Inf and NaN */
; 3850 :     if (decNumberIsNaN(&dwork) || (decNumberIsInfinite(&dwork)))

  002a4	0f b6 44 24 68	 movzx	 eax, BYTE PTR dwork$[rsp+8]
  002a9	83 e0 30	 and	 eax, 48			; 00000030H
  002ac	85 c0		 test	 eax, eax
  002ae	75 0c		 jne	 SHORT $LN16@z900_conve
  002b0	0f b6 44 24 68	 movzx	 eax, BYTE PTR dwork$[rsp+8]
  002b5	83 e0 40	 and	 eax, 64			; 00000040H
  002b8	85 c0		 test	 eax, eax
  002ba	74 1c		 je	 SHORT $LN15@z900_conve
$LN16@z900_conve:

; 3851 :     {
; 3852 :         dfp64_clear_cf_and_bxcf(&x1);

  002bc	48 8d 4c 24 58	 lea	 rcx, QWORD PTR x1$[rsp]
  002c1	e8 00 00 00 00	 call	 dfp64_clear_cf_and_bxcf

; 3853 :         decimal64ToNumber(&x1, &dcoeff);

  002c6	48 8d 94 24 a8
	00 00 00	 lea	 rdx, QWORD PTR dcoeff$[rsp]
  002ce	48 8d 4c 24 58	 lea	 rcx, QWORD PTR x1$[rsp]
  002d3	e8 00 00 00 00	 call	 decimal64ToNumber
$LN15@z900_conve:

; 3854 :     }
; 3855 : 
; 3856 :     /* Convert number to zoned decimal and set condition code */
; 3857 :     cc = dfp_number_to_packed(&dwork, &dcoeff, packed, l2, m3, &set);

  002d8	48 8d 84 24 88
	00 00 00	 lea	 rax, QWORD PTR set$[rsp]
  002e0	48 89 44 24 28	 mov	 QWORD PTR [rsp+40], rax
  002e5	8b 44 24 4c	 mov	 eax, DWORD PTR m3$[rsp]
  002e9	89 44 24 20	 mov	 DWORD PTR [rsp+32], eax
  002ed	44 8b 4c 24 38	 mov	 r9d, DWORD PTR l2$[rsp]
  002f2	4c 8d 84 24 d0
	00 00 00	 lea	 r8, QWORD PTR packed$[rsp]
  002fa	48 8d 94 24 a8
	00 00 00	 lea	 rdx, QWORD PTR dcoeff$[rsp]
  00302	48 8d 4c 24 60	 lea	 rcx, QWORD PTR dwork$[rsp]
  00307	e8 00 00 00 00	 call	 dfp_number_to_packed
  0030c	89 44 24 50	 mov	 DWORD PTR cc$[rsp], eax

; 3858 : 
; 3859 :     /* Store the zoned decimal result at the operand location */
; 3860 :     ARCH_DEP(vstorec) (packed, l2, effective_addr2, b2, regs);

  00310	48 8b 84 24 08
	01 00 00	 mov	 rax, QWORD PTR regs$[rsp]
  00318	48 89 44 24 20	 mov	 QWORD PTR [rsp+32], rax
  0031d	44 8b 4c 24 34	 mov	 r9d, DWORD PTR b2$[rsp]
  00322	4c 8b 44 24 40	 mov	 r8, QWORD PTR effective_addr2$[rsp]
  00327	0f b6 54 24 38	 movzx	 edx, BYTE PTR l2$[rsp]
  0032c	48 8d 8c 24 d0
	00 00 00	 lea	 rcx, QWORD PTR packed$[rsp]
  00334	e8 00 00 00 00	 call	 z900_vstorec

; 3861 : 
; 3862 :     /* Set the condition code in the PSW */
; 3863 :     regs->psw.cc = cc;

  00339	48 8b 84 24 08
	01 00 00	 mov	 rax, QWORD PTR regs$[rsp]
  00341	0f b6 4c 24 50	 movzx	 ecx, BYTE PTR cc$[rsp]
  00346	88 48 7c	 mov	 BYTE PTR [rax+124], cl

; 3864 : 
; 3865 : } /* end DEF_INST(convert_dfp_long_to_zoned) */

  00349	48 8b 8c 24 e0
	00 00 00	 mov	 rcx, QWORD PTR __$ArrayPad$[rsp]
  00351	48 33 cc	 xor	 rcx, rsp
  00354	e8 00 00 00 00	 call	 __security_check_cookie
  00359	48 81 c4 f8 00
	00 00		 add	 rsp, 248		; 000000f8H
  00360	c3		 ret	 0
z900_convert_dfp_long_to_packed ENDP
_TEXT	ENDS
; Function compile flags: /Odtp
; File C:\papa\MyGit\hyperion-zvector\dfp.c
_TEXT	SEGMENT
temp$1 = 48
b2$ = 52
l2$ = 56
r1$ = 60
effective_addr2$ = 64
m3$ = 72
cc$ = 76
x1$ = 80
dwork$ = 96
set$ = 136
dcoeff$ = 168
packed$ = 208
__$ArrayPad$ = 232
inst$ = 256
regs$ = 264
z900_convert_dfp_ext_to_packed PROC

; 3765 : {

$LN19:
  00000	48 89 54 24 10	 mov	 QWORD PTR [rsp+16], rdx
  00005	48 89 4c 24 08	 mov	 QWORD PTR [rsp+8], rcx
  0000a	48 81 ec f8 00
	00 00		 sub	 rsp, 248		; 000000f8H
  00011	48 8b 05 00 00
	00 00		 mov	 rax, QWORD PTR __security_cookie
  00018	48 33 c4	 xor	 rax, rsp
  0001b	48 89 84 24 e8
	00 00 00	 mov	 QWORD PTR __$ArrayPad$[rsp], rax

; 3766 :     int             r1, m3;                 /* Values of R and M fields  */
; 3767 :     int             l2;                     /* Operand length minus 1    */
; 3768 :     int             b2;                     /* Base of effective addr    */
; 3769 :     VADR            effective_addr2;        /* Effective address         */
; 3770 :     decimal128      x1;                     /* Extended DFP value        */
; 3771 :     decNumber       dwork, dcoeff;          /* Working decimal numbers   */
; 3772 :     decContext      set;                    /* Working context           */
; 3773 :     int             cc;                     /* Condition code            */
; 3774 :     char            packed[CPXT_MAXLEN];    /* Packed decimal result     */
; 3775 : 
; 3776 :     RSL_RM(inst, regs, r1, l2, b2, effective_addr2, m3);

  00023	b8 01 00 00 00	 mov	 eax, 1
  00028	48 6b c0 01	 imul	 rax, rax, 1
  0002c	48 8b 8c 24 00
	01 00 00	 mov	 rcx, QWORD PTR inst$[rsp]
  00034	48 03 c8	 add	 rcx, rax
  00037	48 8b c1	 mov	 rax, rcx
  0003a	48 8b c8	 mov	 rcx, rax
  0003d	e8 00 00 00 00	 call	 fetch_fw_noswap
  00042	8b c8		 mov	 ecx, eax
  00044	e8 00 00 00 00	 call	 _byteswap_ulong
  00049	89 44 24 30	 mov	 DWORD PTR temp$1[rsp], eax
  0004d	8b 44 24 30	 mov	 eax, DWORD PTR temp$1[rsp]
  00051	83 e0 0f	 and	 eax, 15
  00054	89 44 24 48	 mov	 DWORD PTR m3$[rsp], eax
  00058	8b 44 24 30	 mov	 eax, DWORD PTR temp$1[rsp]
  0005c	c1 e8 04	 shr	 eax, 4
  0005f	83 e0 0f	 and	 eax, 15
  00062	89 44 24 3c	 mov	 DWORD PTR r1$[rsp], eax
  00066	8b 44 24 30	 mov	 eax, DWORD PTR temp$1[rsp]
  0006a	c1 e8 08	 shr	 eax, 8
  0006d	25 ff 0f 00 00	 and	 eax, 4095		; 00000fffH
  00072	8b c0		 mov	 eax, eax
  00074	48 89 44 24 40	 mov	 QWORD PTR effective_addr2$[rsp], rax
  00079	8b 44 24 30	 mov	 eax, DWORD PTR temp$1[rsp]
  0007d	c1 e8 14	 shr	 eax, 20
  00080	83 e0 0f	 and	 eax, 15
  00083	89 44 24 34	 mov	 DWORD PTR b2$[rsp], eax
  00087	8b 44 24 30	 mov	 eax, DWORD PTR temp$1[rsp]
  0008b	c1 e8 18	 shr	 eax, 24
  0008e	25 ff 00 00 00	 and	 eax, 255		; 000000ffH
  00093	89 44 24 38	 mov	 DWORD PTR l2$[rsp], eax
  00097	83 7c 24 34 00	 cmp	 DWORD PTR b2$[rsp], 0
  0009c	74 44		 je	 SHORT $LN8@z900_conve
  0009e	48 63 44 24 34	 movsxd	 rax, DWORD PTR b2$[rsp]
  000a3	48 8b 8c 24 08
	01 00 00	 mov	 rcx, QWORD PTR regs$[rsp]
  000ab	48 8b 84 c1 80
	02 00 00	 mov	 rax, QWORD PTR [rcx+rax*8+640]
  000b3	48 8b 4c 24 40	 mov	 rcx, QWORD PTR effective_addr2$[rsp]
  000b8	48 03 c8	 add	 rcx, rax
  000bb	48 8b c1	 mov	 rax, rcx
  000be	48 89 44 24 40	 mov	 QWORD PTR effective_addr2$[rsp], rax
  000c3	48 8b 84 24 08
	01 00 00	 mov	 rax, QWORD PTR regs$[rsp]
  000cb	48 8b 80 90 00
	00 00		 mov	 rax, QWORD PTR [rax+144]
  000d2	48 8b 4c 24 40	 mov	 rcx, QWORD PTR effective_addr2$[rsp]
  000d7	48 23 c8	 and	 rcx, rax
  000da	48 8b c1	 mov	 rax, rcx
  000dd	48 89 44 24 40	 mov	 QWORD PTR effective_addr2$[rsp], rax
$LN8@z900_conve:
$LN4@z900_conve:
  000e2	48 8b 84 24 08
	01 00 00	 mov	 rax, QWORD PTR regs$[rsp]
  000ea	48 8b 40 68	 mov	 rax, QWORD PTR [rax+104]
  000ee	48 83 c0 06	 add	 rax, 6
  000f2	48 8b 8c 24 08
	01 00 00	 mov	 rcx, QWORD PTR regs$[rsp]
  000fa	48 89 41 68	 mov	 QWORD PTR [rcx+104], rax
  000fe	33 c0		 xor	 eax, eax
  00100	83 f8 06	 cmp	 eax, 6
  00103	74 0f		 je	 SHORT $LN9@z900_conve
  00105	48 8b 84 24 08
	01 00 00	 mov	 rax, QWORD PTR regs$[rsp]
  0010d	c6 80 9a 00 00
	00 06		 mov	 BYTE PTR [rax+154], 6
$LN9@z900_conve:
  00114	33 c0		 xor	 eax, eax
  00116	85 c0		 test	 eax, eax
  00118	75 c8		 jne	 SHORT $LN4@z900_conve

; 3777 :     PER_ZEROADDR_XCHECK(regs, b2);

  0011a	8b 54 24 34	 mov	 edx, DWORD PTR b2$[rsp]
  0011e	48 8b 8c 24 08
	01 00 00	 mov	 rcx, QWORD PTR regs$[rsp]
  00126	e8 00 00 00 00	 call	 z900_per3_zero_xcheck
$LN7@z900_conve:

; 3778 : 
; 3779 :     TXF_FLOAT_INSTR_CHECK(regs);

  0012b	33 c0		 xor	 eax, eax
  0012d	83 f8 01	 cmp	 eax, 1
  00130	0f 84 81 00 00
	00		 je	 $LN10@z900_conve
  00136	48 8b 84 24 08
	01 00 00	 mov	 rax, QWORD PTR regs$[rsp]
  0013e	0f b6 80 58 0e
	00 00		 movzx	 eax, BYTE PTR [rax+3672]
  00145	85 c0		 test	 eax, eax
  00147	74 6e		 je	 SHORT $LN10@z900_conve
  00149	33 c0		 xor	 eax, eax
  0014b	85 c0		 test	 eax, eax
  0014d	75 29		 jne	 SHORT $LN11@z900_conve
  0014f	48 8b 84 24 08
	01 00 00	 mov	 rax, QWORD PTR regs$[rsp]
  00157	0f b6 80 4c 0e
	00 00		 movzx	 eax, BYTE PTR [rax+3660]
  0015e	85 c0		 test	 eax, eax
  00160	75 16		 jne	 SHORT $LN11@z900_conve
  00162	48 8b 84 24 08
	01 00 00	 mov	 rax, QWORD PTR regs$[rsp]
  0016a	0f b6 80 59 0e
	00 00		 movzx	 eax, BYTE PTR [rax+3673]
  00171	83 e0 04	 and	 eax, 4
  00174	85 c0		 test	 eax, eax
  00176	75 3f		 jne	 SHORT $LN10@z900_conve
$LN11@z900_conve:
  00178	48 8b 84 24 08
	01 00 00	 mov	 rax, QWORD PTR regs$[rsp]
  00180	8b 80 84 af 00
	00		 mov	 eax, DWORD PTR [rax+44932]
  00186	0f ba e8 0b	 bts	 eax, 11
  0018a	48 8b 8c 24 08
	01 00 00	 mov	 rcx, QWORD PTR regs$[rsp]
  00192	89 81 84 af 00
	00		 mov	 DWORD PTR [rcx+44932], eax
  00198	4c 8d 0d 00 00
	00 00		 lea	 r9, OFFSET FLAT:$SG196851
  0019f	41 b8 0b 00 00
	00		 mov	 r8d, 11
  001a5	ba 02 00 00 00	 mov	 edx, 2
  001aa	48 8b 8c 24 08
	01 00 00	 mov	 rcx, QWORD PTR regs$[rsp]
  001b2	e8 00 00 00 00	 call	 z900_abort_transaction
$LN10@z900_conve:
  001b7	33 c0		 xor	 eax, eax
  001b9	85 c0		 test	 eax, eax
  001bb	0f 85 6a ff ff
	ff		 jne	 $LN7@z900_conve

; 3780 :     DFPINST_CHECK(regs);

  001c1	b8 08 00 00 00	 mov	 eax, 8
  001c6	48 6b c0 01	 imul	 rax, rax, 1
  001ca	48 8b 8c 24 08
	01 00 00	 mov	 rcx, QWORD PTR regs$[rsp]
  001d2	48 8b 84 01 00
	06 00 00	 mov	 rax, QWORD PTR [rcx+rax+1536]
  001da	48 25 00 00 04
	00		 and	 rax, 262144		; 00040000H
  001e0	48 85 c0	 test	 rax, rax
  001e3	74 42		 je	 SHORT $LN13@z900_conve
  001e5	48 8b 84 24 08
	01 00 00	 mov	 rax, QWORD PTR regs$[rsp]
  001ed	8b 80 c8 08 00
	00		 mov	 eax, DWORD PTR [rax+2248]
  001f3	d1 e8		 shr	 eax, 1
  001f5	83 e0 01	 and	 eax, 1
  001f8	85 c0		 test	 eax, eax
  001fa	74 58		 je	 SHORT $LN12@z900_conve
  001fc	48 8b 84 24 08
	01 00 00	 mov	 rax, QWORD PTR regs$[rsp]
  00204	48 8b 80 68 08
	00 00		 mov	 rax, QWORD PTR [rax+2152]
  0020b	b9 08 00 00 00	 mov	 ecx, 8
  00210	48 6b c9 01	 imul	 rcx, rcx, 1
  00214	48 8b 84 08 00
	06 00 00	 mov	 rax, QWORD PTR [rax+rcx+1536]
  0021c	48 25 00 00 04
	00		 and	 rax, 262144		; 00040000H
  00222	48 85 c0	 test	 rax, rax
  00225	75 2d		 jne	 SHORT $LN12@z900_conve
$LN13@z900_conve:
  00227	48 8b 84 24 08
	01 00 00	 mov	 rax, QWORD PTR regs$[rsp]
  0022f	c7 80 08 07 00
	00 03 00 00 00	 mov	 DWORD PTR [rax+1800], 3
  00239	ba 07 00 00 00	 mov	 edx, 7
  0023e	48 8b 8c 24 08
	01 00 00	 mov	 rcx, QWORD PTR regs$[rsp]
  00246	48 8b 84 24 08
	01 00 00	 mov	 rax, QWORD PTR regs$[rsp]
  0024e	ff 90 20 0d 00
	00		 call	 QWORD PTR [rax+3360]
$LN12@z900_conve:

; 3781 :     DFPREGPAIR_CHECK(r1, regs);

  00254	8b 44 24 3c	 mov	 eax, DWORD PTR r1$[rsp]
  00258	83 e0 02	 and	 eax, 2
  0025b	85 c0		 test	 eax, eax
  0025d	74 1b		 je	 SHORT $LN14@z900_conve
  0025f	ba 06 00 00 00	 mov	 edx, 6
  00264	48 8b 8c 24 08
	01 00 00	 mov	 rcx, QWORD PTR regs$[rsp]
  0026c	48 8b 84 24 08
	01 00 00	 mov	 rax, QWORD PTR regs$[rsp]
  00274	ff 90 20 0d 00
	00		 call	 QWORD PTR [rax+3360]
$LN14@z900_conve:

; 3782 : 
; 3783 :     /* Program check if operand length exceeds 18 */
; 3784 :     if (l2 > CPXT_MAXLEN - 1)

  0027a	83 7c 24 38 11	 cmp	 DWORD PTR l2$[rsp], 17
  0027f	7e 12		 jle	 SHORT $LN15@z900_conve

; 3785 :     {
; 3786 :         ARCH_DEP(program_interrupt) (regs, PGM_SPECIFICATION_EXCEPTION);

  00281	ba 06 00 00 00	 mov	 edx, 6
  00286	48 8b 8c 24 08
	01 00 00	 mov	 rcx, QWORD PTR regs$[rsp]
  0028e	e8 00 00 00 00	 call	 z900_program_interrupt
$LN15@z900_conve:

; 3787 :     }
; 3788 : 
; 3789 :     /* Initialise the context for extended DFP */
; 3790 :     decContextDefault(&set, DEC_INIT_DECIMAL128);

  00293	ba 80 00 00 00	 mov	 edx, 128		; 00000080H
  00298	48 8d 8c 24 88
	00 00 00	 lea	 rcx, QWORD PTR set$[rsp]
  002a0	e8 00 00 00 00	 call	 decContextDefault

; 3791 : 
; 3792 :     /* Load DFP extended number from FP register r1 */
; 3793 :     ARCH_DEP(dfp_reg_to_decimal128)(r1, &x1, regs);

  002a5	4c 8b 84 24 08
	01 00 00	 mov	 r8, QWORD PTR regs$[rsp]
  002ad	48 8d 54 24 50	 lea	 rdx, QWORD PTR x1$[rsp]
  002b2	8b 4c 24 3c	 mov	 ecx, DWORD PTR r1$[rsp]
  002b6	e8 00 00 00 00	 call	 z900_dfp_reg_to_decimal128

; 3794 :     decimal128ToNumber(&x1, &dwork);

  002bb	48 8d 54 24 60	 lea	 rdx, QWORD PTR dwork$[rsp]
  002c0	48 8d 4c 24 50	 lea	 rcx, QWORD PTR x1$[rsp]
  002c5	e8 00 00 00 00	 call	 decimal128ToNumber

; 3795 : 
; 3796 :     /* Extract coefficient only for Inf and NaN */
; 3797 :     if (decNumberIsNaN(&dwork) || (decNumberIsInfinite(&dwork)))

  002ca	0f b6 44 24 68	 movzx	 eax, BYTE PTR dwork$[rsp+8]
  002cf	83 e0 30	 and	 eax, 48			; 00000030H
  002d2	85 c0		 test	 eax, eax
  002d4	75 0c		 jne	 SHORT $LN17@z900_conve
  002d6	0f b6 44 24 68	 movzx	 eax, BYTE PTR dwork$[rsp+8]
  002db	83 e0 40	 and	 eax, 64			; 00000040H
  002de	85 c0		 test	 eax, eax
  002e0	74 1c		 je	 SHORT $LN16@z900_conve
$LN17@z900_conve:

; 3798 :     {
; 3799 :         dfp128_clear_cf_and_bxcf(&x1);

  002e2	48 8d 4c 24 50	 lea	 rcx, QWORD PTR x1$[rsp]
  002e7	e8 00 00 00 00	 call	 dfp128_clear_cf_and_bxcf

; 3800 :         decimal128ToNumber(&x1, &dcoeff);

  002ec	48 8d 94 24 a8
	00 00 00	 lea	 rdx, QWORD PTR dcoeff$[rsp]
  002f4	48 8d 4c 24 50	 lea	 rcx, QWORD PTR x1$[rsp]
  002f9	e8 00 00 00 00	 call	 decimal128ToNumber
$LN16@z900_conve:

; 3801 :     }
; 3802 : 
; 3803 :     /* Convert number to packed decimal and set condition code */
; 3804 :     cc = dfp_number_to_packed(&dwork, &dcoeff, packed, l2, m3, &set);

  002fe	48 8d 84 24 88
	00 00 00	 lea	 rax, QWORD PTR set$[rsp]
  00306	48 89 44 24 28	 mov	 QWORD PTR [rsp+40], rax
  0030b	8b 44 24 48	 mov	 eax, DWORD PTR m3$[rsp]
  0030f	89 44 24 20	 mov	 DWORD PTR [rsp+32], eax
  00313	44 8b 4c 24 38	 mov	 r9d, DWORD PTR l2$[rsp]
  00318	4c 8d 84 24 d0
	00 00 00	 lea	 r8, QWORD PTR packed$[rsp]
  00320	48 8d 94 24 a8
	00 00 00	 lea	 rdx, QWORD PTR dcoeff$[rsp]
  00328	48 8d 4c 24 60	 lea	 rcx, QWORD PTR dwork$[rsp]
  0032d	e8 00 00 00 00	 call	 dfp_number_to_packed
  00332	89 44 24 4c	 mov	 DWORD PTR cc$[rsp], eax

; 3805 : 
; 3806 :     /* Store the zoned decimal result at the operand location */
; 3807 :     ARCH_DEP(vstorec) (packed, l2, effective_addr2, b2, regs);

  00336	48 8b 84 24 08
	01 00 00	 mov	 rax, QWORD PTR regs$[rsp]
  0033e	48 89 44 24 20	 mov	 QWORD PTR [rsp+32], rax
  00343	44 8b 4c 24 34	 mov	 r9d, DWORD PTR b2$[rsp]
  00348	4c 8b 44 24 40	 mov	 r8, QWORD PTR effective_addr2$[rsp]
  0034d	0f b6 54 24 38	 movzx	 edx, BYTE PTR l2$[rsp]
  00352	48 8d 8c 24 d0
	00 00 00	 lea	 rcx, QWORD PTR packed$[rsp]
  0035a	e8 00 00 00 00	 call	 z900_vstorec

; 3808 : 
; 3809 :     /* Set the condition code in the PSW */
; 3810 :     regs->psw.cc = cc;

  0035f	48 8b 84 24 08
	01 00 00	 mov	 rax, QWORD PTR regs$[rsp]
  00367	0f b6 4c 24 4c	 movzx	 ecx, BYTE PTR cc$[rsp]
  0036c	88 48 7c	 mov	 BYTE PTR [rax+124], cl

; 3811 : 
; 3812 : } /* end DEF_INST(convert_dfp_ext_to_zoned) */

  0036f	48 8b 8c 24 e8
	00 00 00	 mov	 rcx, QWORD PTR __$ArrayPad$[rsp]
  00377	48 33 cc	 xor	 rcx, rsp
  0037a	e8 00 00 00 00	 call	 __security_check_cookie
  0037f	48 81 c4 f8 00
	00 00		 add	 rsp, 248		; 000000f8H
  00386	c3		 ret	 0
z900_convert_dfp_ext_to_packed ENDP
_TEXT	ENDS
; Function compile flags: /Odtp
; File C:\papa\MyGit\hyperion-zvector\dfp.c
_TEXT	SEGMENT
temp$1 = 48
rc$ = 52
b2$ = 56
l2$ = 60
m3$ = 64
effective_addr2$ = 72
r1$ = 80
x1$ = 88
set$ = 96
d$ = 128
packed$ = 168
__$ArrayPad$ = 184
inst$ = 208
regs$ = 216
z900_convert_packed_to_dfp_long PROC

; 2991 : {

$LN23:
  00000	48 89 54 24 10	 mov	 QWORD PTR [rsp+16], rdx
  00005	48 89 4c 24 08	 mov	 QWORD PTR [rsp+8], rcx
  0000a	48 81 ec c8 00
	00 00		 sub	 rsp, 200		; 000000c8H
  00011	48 8b 05 00 00
	00 00		 mov	 rax, QWORD PTR __security_cookie
  00018	48 33 c4	 xor	 rax, rsp
  0001b	48 89 84 24 b8
	00 00 00	 mov	 QWORD PTR __$ArrayPad$[rsp], rax

; 2992 :     int             rc;                     /* Return code               */
; 2993 :     int             r1, m3;                 /* Values of R and M fields  */
; 2994 :     int             l2;                     /* Operand length minus 1    */
; 2995 :     int             b2;                     /* Base of effective addr    */
; 2996 :     VADR            effective_addr2;        /* Effective address         */
; 2997 :     decimal64       x1;                     /* Long DFP value            */
; 2998 :     decNumber       d;                      /* Working decimal number    */
; 2999 :     decContext      set;                    /* Working context           */
; 3000 :     char            packed[CDPT_MAXLEN];    /* Packed decimal operand    */
; 3001 : 
; 3002 :     RSL_RM(inst, regs, r1, l2, b2, effective_addr2, m3);

  00023	b8 01 00 00 00	 mov	 eax, 1
  00028	48 6b c0 01	 imul	 rax, rax, 1
  0002c	48 8b 8c 24 d0
	00 00 00	 mov	 rcx, QWORD PTR inst$[rsp]
  00034	48 03 c8	 add	 rcx, rax
  00037	48 8b c1	 mov	 rax, rcx
  0003a	48 8b c8	 mov	 rcx, rax
  0003d	e8 00 00 00 00	 call	 fetch_fw_noswap
  00042	8b c8		 mov	 ecx, eax
  00044	e8 00 00 00 00	 call	 _byteswap_ulong
  00049	89 44 24 30	 mov	 DWORD PTR temp$1[rsp], eax
  0004d	8b 44 24 30	 mov	 eax, DWORD PTR temp$1[rsp]
  00051	83 e0 0f	 and	 eax, 15
  00054	89 44 24 40	 mov	 DWORD PTR m3$[rsp], eax
  00058	8b 44 24 30	 mov	 eax, DWORD PTR temp$1[rsp]
  0005c	c1 e8 04	 shr	 eax, 4
  0005f	83 e0 0f	 and	 eax, 15
  00062	89 44 24 50	 mov	 DWORD PTR r1$[rsp], eax
  00066	8b 44 24 30	 mov	 eax, DWORD PTR temp$1[rsp]
  0006a	c1 e8 08	 shr	 eax, 8
  0006d	25 ff 0f 00 00	 and	 eax, 4095		; 00000fffH
  00072	8b c0		 mov	 eax, eax
  00074	48 89 44 24 48	 mov	 QWORD PTR effective_addr2$[rsp], rax
  00079	8b 44 24 30	 mov	 eax, DWORD PTR temp$1[rsp]
  0007d	c1 e8 14	 shr	 eax, 20
  00080	83 e0 0f	 and	 eax, 15
  00083	89 44 24 38	 mov	 DWORD PTR b2$[rsp], eax
  00087	8b 44 24 30	 mov	 eax, DWORD PTR temp$1[rsp]
  0008b	c1 e8 18	 shr	 eax, 24
  0008e	25 ff 00 00 00	 and	 eax, 255		; 000000ffH
  00093	89 44 24 3c	 mov	 DWORD PTR l2$[rsp], eax
  00097	83 7c 24 38 00	 cmp	 DWORD PTR b2$[rsp], 0
  0009c	74 44		 je	 SHORT $LN8@z900_conve
  0009e	48 63 44 24 38	 movsxd	 rax, DWORD PTR b2$[rsp]
  000a3	48 8b 8c 24 d8
	00 00 00	 mov	 rcx, QWORD PTR regs$[rsp]
  000ab	48 8b 84 c1 80
	02 00 00	 mov	 rax, QWORD PTR [rcx+rax*8+640]
  000b3	48 8b 4c 24 48	 mov	 rcx, QWORD PTR effective_addr2$[rsp]
  000b8	48 03 c8	 add	 rcx, rax
  000bb	48 8b c1	 mov	 rax, rcx
  000be	48 89 44 24 48	 mov	 QWORD PTR effective_addr2$[rsp], rax
  000c3	48 8b 84 24 d8
	00 00 00	 mov	 rax, QWORD PTR regs$[rsp]
  000cb	48 8b 80 90 00
	00 00		 mov	 rax, QWORD PTR [rax+144]
  000d2	48 8b 4c 24 48	 mov	 rcx, QWORD PTR effective_addr2$[rsp]
  000d7	48 23 c8	 and	 rcx, rax
  000da	48 8b c1	 mov	 rax, rcx
  000dd	48 89 44 24 48	 mov	 QWORD PTR effective_addr2$[rsp], rax
$LN8@z900_conve:
$LN4@z900_conve:
  000e2	48 8b 84 24 d8
	00 00 00	 mov	 rax, QWORD PTR regs$[rsp]
  000ea	48 8b 40 68	 mov	 rax, QWORD PTR [rax+104]
  000ee	48 83 c0 06	 add	 rax, 6
  000f2	48 8b 8c 24 d8
	00 00 00	 mov	 rcx, QWORD PTR regs$[rsp]
  000fa	48 89 41 68	 mov	 QWORD PTR [rcx+104], rax
  000fe	33 c0		 xor	 eax, eax
  00100	83 f8 06	 cmp	 eax, 6
  00103	74 0f		 je	 SHORT $LN9@z900_conve
  00105	48 8b 84 24 d8
	00 00 00	 mov	 rax, QWORD PTR regs$[rsp]
  0010d	c6 80 9a 00 00
	00 06		 mov	 BYTE PTR [rax+154], 6
$LN9@z900_conve:
  00114	33 c0		 xor	 eax, eax
  00116	85 c0		 test	 eax, eax
  00118	75 c8		 jne	 SHORT $LN4@z900_conve

; 3003 :     PER_ZEROADDR_XCHECK(regs, b2);

  0011a	8b 54 24 38	 mov	 edx, DWORD PTR b2$[rsp]
  0011e	48 8b 8c 24 d8
	00 00 00	 mov	 rcx, QWORD PTR regs$[rsp]
  00126	e8 00 00 00 00	 call	 z900_per3_zero_xcheck
$LN7@z900_conve:

; 3004 : 
; 3005 :     TXF_FLOAT_INSTR_CHECK(regs);

  0012b	33 c0		 xor	 eax, eax
  0012d	83 f8 01	 cmp	 eax, 1
  00130	0f 84 81 00 00
	00		 je	 $LN10@z900_conve
  00136	48 8b 84 24 d8
	00 00 00	 mov	 rax, QWORD PTR regs$[rsp]
  0013e	0f b6 80 58 0e
	00 00		 movzx	 eax, BYTE PTR [rax+3672]
  00145	85 c0		 test	 eax, eax
  00147	74 6e		 je	 SHORT $LN10@z900_conve
  00149	33 c0		 xor	 eax, eax
  0014b	85 c0		 test	 eax, eax
  0014d	75 29		 jne	 SHORT $LN11@z900_conve
  0014f	48 8b 84 24 d8
	00 00 00	 mov	 rax, QWORD PTR regs$[rsp]
  00157	0f b6 80 4c 0e
	00 00		 movzx	 eax, BYTE PTR [rax+3660]
  0015e	85 c0		 test	 eax, eax
  00160	75 16		 jne	 SHORT $LN11@z900_conve
  00162	48 8b 84 24 d8
	00 00 00	 mov	 rax, QWORD PTR regs$[rsp]
  0016a	0f b6 80 59 0e
	00 00		 movzx	 eax, BYTE PTR [rax+3673]
  00171	83 e0 04	 and	 eax, 4
  00174	85 c0		 test	 eax, eax
  00176	75 3f		 jne	 SHORT $LN10@z900_conve
$LN11@z900_conve:
  00178	48 8b 84 24 d8
	00 00 00	 mov	 rax, QWORD PTR regs$[rsp]
  00180	8b 80 84 af 00
	00		 mov	 eax, DWORD PTR [rax+44932]
  00186	0f ba e8 0b	 bts	 eax, 11
  0018a	48 8b 8c 24 d8
	00 00 00	 mov	 rcx, QWORD PTR regs$[rsp]
  00192	89 81 84 af 00
	00		 mov	 DWORD PTR [rcx+44932], eax
  00198	4c 8d 0d 00 00
	00 00		 lea	 r9, OFFSET FLAT:$SG196396
  0019f	41 b8 0b 00 00
	00		 mov	 r8d, 11
  001a5	ba 02 00 00 00	 mov	 edx, 2
  001aa	48 8b 8c 24 d8
	00 00 00	 mov	 rcx, QWORD PTR regs$[rsp]
  001b2	e8 00 00 00 00	 call	 z900_abort_transaction
$LN10@z900_conve:
  001b7	33 c0		 xor	 eax, eax
  001b9	85 c0		 test	 eax, eax
  001bb	0f 85 6a ff ff
	ff		 jne	 $LN7@z900_conve

; 3006 :     DFPINST_CHECK(regs);

  001c1	b8 08 00 00 00	 mov	 eax, 8
  001c6	48 6b c0 01	 imul	 rax, rax, 1
  001ca	48 8b 8c 24 d8
	00 00 00	 mov	 rcx, QWORD PTR regs$[rsp]
  001d2	48 8b 84 01 00
	06 00 00	 mov	 rax, QWORD PTR [rcx+rax+1536]
  001da	48 25 00 00 04
	00		 and	 rax, 262144		; 00040000H
  001e0	48 85 c0	 test	 rax, rax
  001e3	74 42		 je	 SHORT $LN13@z900_conve
  001e5	48 8b 84 24 d8
	00 00 00	 mov	 rax, QWORD PTR regs$[rsp]
  001ed	8b 80 c8 08 00
	00		 mov	 eax, DWORD PTR [rax+2248]
  001f3	d1 e8		 shr	 eax, 1
  001f5	83 e0 01	 and	 eax, 1
  001f8	85 c0		 test	 eax, eax
  001fa	74 58		 je	 SHORT $LN12@z900_conve
  001fc	48 8b 84 24 d8
	00 00 00	 mov	 rax, QWORD PTR regs$[rsp]
  00204	48 8b 80 68 08
	00 00		 mov	 rax, QWORD PTR [rax+2152]
  0020b	b9 08 00 00 00	 mov	 ecx, 8
  00210	48 6b c9 01	 imul	 rcx, rcx, 1
  00214	48 8b 84 08 00
	06 00 00	 mov	 rax, QWORD PTR [rax+rcx+1536]
  0021c	48 25 00 00 04
	00		 and	 rax, 262144		; 00040000H
  00222	48 85 c0	 test	 rax, rax
  00225	75 2d		 jne	 SHORT $LN12@z900_conve
$LN13@z900_conve:
  00227	48 8b 84 24 d8
	00 00 00	 mov	 rax, QWORD PTR regs$[rsp]
  0022f	c7 80 08 07 00
	00 03 00 00 00	 mov	 DWORD PTR [rax+1800], 3
  00239	ba 07 00 00 00	 mov	 edx, 7
  0023e	48 8b 8c 24 d8
	00 00 00	 mov	 rcx, QWORD PTR regs$[rsp]
  00246	48 8b 84 24 d8
	00 00 00	 mov	 rax, QWORD PTR regs$[rsp]
  0024e	ff 90 20 0d 00
	00		 call	 QWORD PTR [rax+3360]
$LN12@z900_conve:

; 3007 : 
; 3008 :     /* Program check if operand length exceeds maximum */
; 3009 :     if (l2 > CDPT_MAXLEN - 1)

  00254	83 7c 24 3c 08	 cmp	 DWORD PTR l2$[rsp], 8
  00259	7e 12		 jle	 SHORT $LN14@z900_conve

; 3010 :     {
; 3011 :         ARCH_DEP(program_interrupt) (regs, PGM_SPECIFICATION_EXCEPTION);

  0025b	ba 06 00 00 00	 mov	 edx, 6
  00260	48 8b 8c 24 d8
	00 00 00	 mov	 rcx, QWORD PTR regs$[rsp]
  00268	e8 00 00 00 00	 call	 z900_program_interrupt
$LN14@z900_conve:

; 3012 :     }
; 3013 : 
; 3014 :     /* Initialise the context for long DFP */
; 3015 :     decContextDefault(&set, DEC_INIT_DECIMAL64);

  0026d	ba 40 00 00 00	 mov	 edx, 64			; 00000040H
  00272	48 8d 4c 24 60	 lea	 rcx, QWORD PTR set$[rsp]
  00277	e8 00 00 00 00	 call	 decContextDefault

; 3016 : 
; 3017 :     /* Fetch the packed decimal operand into the work area */
; 3018 :     ARCH_DEP(vfetchc) (packed, l2, effective_addr2, b2, regs);

  0027c	48 8b 84 24 d8
	00 00 00	 mov	 rax, QWORD PTR regs$[rsp]
  00284	48 89 44 24 20	 mov	 QWORD PTR [rsp+32], rax
  00289	44 8b 4c 24 38	 mov	 r9d, DWORD PTR b2$[rsp]
  0028e	4c 8b 44 24 48	 mov	 r8, QWORD PTR effective_addr2$[rsp]
  00293	0f b6 54 24 3c	 movzx	 edx, BYTE PTR l2$[rsp]
  00298	48 8d 8c 24 a8
	00 00 00	 lea	 rcx, QWORD PTR packed$[rsp]
  002a0	e8 00 00 00 00	 call	 z900_vfetchc

; 3019 : 
; 3020 :     /* when l2 = 8; check that unused digits are 0 */
; 3021 :     rc = 0;

  002a5	c7 44 24 34 00
	00 00 00	 mov	 DWORD PTR rc$[rsp], 0

; 3022 :     if (l2 == 8) {

  002ad	83 7c 24 3c 08	 cmp	 DWORD PTR l2$[rsp], 8
  002b2	75 4c		 jne	 SHORT $LN15@z900_conve

; 3023 :         if (m3 & 0x8) {

  002b4	8b 44 24 40	 mov	 eax, DWORD PTR m3$[rsp]
  002b8	83 e0 08	 and	 eax, 8
  002bb	85 c0		 test	 eax, eax
  002bd	74 24		 je	 SHORT $LN16@z900_conve

; 3024 :             /* signed - first nibble must be 0 */
; 3025 :             if ( (packed[0] & 0xF0) != 0)  rc = 1;

  002bf	b8 01 00 00 00	 mov	 eax, 1
  002c4	48 6b c0 00	 imul	 rax, rax, 0
  002c8	0f be 84 04 a8
	00 00 00	 movsx	 eax, BYTE PTR packed$[rsp+rax]
  002d0	25 f0 00 00 00	 and	 eax, 240		; 000000f0H
  002d5	85 c0		 test	 eax, eax
  002d7	74 08		 je	 SHORT $LN18@z900_conve
  002d9	c7 44 24 34 01
	00 00 00	 mov	 DWORD PTR rc$[rsp], 1
$LN18@z900_conve:

; 3026 :         }

  002e1	eb 1d		 jmp	 SHORT $LN17@z900_conve
$LN16@z900_conve:

; 3027 :         else {
; 3028 :             /* unsigned - first byte must be 0 */
; 3029 :             if (packed[0] != 0)  rc = 1;

  002e3	b8 01 00 00 00	 mov	 eax, 1
  002e8	48 6b c0 00	 imul	 rax, rax, 0
  002ec	0f be 84 04 a8
	00 00 00	 movsx	 eax, BYTE PTR packed$[rsp+rax]
  002f4	85 c0		 test	 eax, eax
  002f6	74 08		 je	 SHORT $LN19@z900_conve
  002f8	c7 44 24 34 01
	00 00 00	 mov	 DWORD PTR rc$[rsp], 1
$LN19@z900_conve:
$LN17@z900_conve:
$LN15@z900_conve:

; 3030 :         }
; 3031 :     }
; 3032 : 
; 3033 :     /* Convert packed decimal to decimal number structure */
; 3034 :     if (rc == 0) rc = dfp_number_from_packed(&d, packed, l2, m3, &set);

  00300	83 7c 24 34 00	 cmp	 DWORD PTR rc$[rsp], 0
  00305	75 2d		 jne	 SHORT $LN20@z900_conve
  00307	48 8d 44 24 60	 lea	 rax, QWORD PTR set$[rsp]
  0030c	48 89 44 24 20	 mov	 QWORD PTR [rsp+32], rax
  00311	44 8b 4c 24 40	 mov	 r9d, DWORD PTR m3$[rsp]
  00316	44 8b 44 24 3c	 mov	 r8d, DWORD PTR l2$[rsp]
  0031b	48 8d 94 24 a8
	00 00 00	 lea	 rdx, QWORD PTR packed$[rsp]
  00323	48 8d 8c 24 80
	00 00 00	 lea	 rcx, QWORD PTR d$[rsp]
  0032b	e8 00 00 00 00	 call	 dfp_number_from_packed
  00330	89 44 24 34	 mov	 DWORD PTR rc$[rsp], eax
$LN20@z900_conve:

; 3035 : 
; 3036 :     /* Program check if data exception is indicated */
; 3037 :     if (rc != 0)

  00334	83 7c 24 34 00	 cmp	 DWORD PTR rc$[rsp], 0
  00339	74 24		 je	 SHORT $LN21@z900_conve

; 3038 :     {
; 3039 :         regs->dxc = DXC_DECIMAL;

  0033b	48 8b 84 24 d8
	00 00 00	 mov	 rax, QWORD PTR regs$[rsp]
  00343	c7 80 08 07 00
	00 00 00 00 00	 mov	 DWORD PTR [rax+1800], 0

; 3040 :         ARCH_DEP(program_interrupt) (regs, PGM_DATA_EXCEPTION);

  0034d	ba 07 00 00 00	 mov	 edx, 7
  00352	48 8b 8c 24 d8
	00 00 00	 mov	 rcx, QWORD PTR regs$[rsp]
  0035a	e8 00 00 00 00	 call	 z900_program_interrupt
$LN21@z900_conve:

; 3041 :     }
; 3042 : 
; 3043 :     /* Convert decimal number to long DFP format */
; 3044 :     decimal64FromNumber(&x1, &d, &set);

  0035f	4c 8d 44 24 60	 lea	 r8, QWORD PTR set$[rsp]
  00364	48 8d 94 24 80
	00 00 00	 lea	 rdx, QWORD PTR d$[rsp]
  0036c	48 8d 4c 24 58	 lea	 rcx, QWORD PTR x1$[rsp]
  00371	e8 00 00 00 00	 call	 decimal64FromNumber

; 3045 : 
; 3046 :     /* Load result into FP register r1 */
; 3047 :     ARCH_DEP(dfp_reg_from_decimal64)(r1, &x1, regs);

  00376	4c 8b 84 24 d8
	00 00 00	 mov	 r8, QWORD PTR regs$[rsp]
  0037e	48 8d 54 24 58	 lea	 rdx, QWORD PTR x1$[rsp]
  00383	8b 4c 24 50	 mov	 ecx, DWORD PTR r1$[rsp]
  00387	e8 00 00 00 00	 call	 z900_dfp_reg_from_decimal64

; 3048 : 
; 3049 : } /* end DEF_INST(convert_packed_to_dfp_long) */

  0038c	48 8b 8c 24 b8
	00 00 00	 mov	 rcx, QWORD PTR __$ArrayPad$[rsp]
  00394	48 33 cc	 xor	 rcx, rsp
  00397	e8 00 00 00 00	 call	 __security_check_cookie
  0039c	48 81 c4 c8 00
	00 00		 add	 rsp, 200		; 000000c8H
  003a3	c3		 ret	 0
z900_convert_packed_to_dfp_long ENDP
_TEXT	ENDS
; Function compile flags: /Odtp
; File C:\papa\MyGit\hyperion-zvector\dfp.c
_TEXT	SEGMENT
temp$1 = 48
rc$ = 52
b2$ = 56
l2$ = 60
m3$ = 64
r1$ = 68
effective_addr2$ = 72
x1$ = 80
set$ = 96
d$ = 128
packed$ = 168
__$ArrayPad$ = 192
inst$ = 224
regs$ = 232
z900_convert_packed_to_dfp_ext PROC

; 2925 : {

$LN24:
  00000	48 89 54 24 10	 mov	 QWORD PTR [rsp+16], rdx
  00005	48 89 4c 24 08	 mov	 QWORD PTR [rsp+8], rcx
  0000a	48 81 ec d8 00
	00 00		 sub	 rsp, 216		; 000000d8H
  00011	48 8b 05 00 00
	00 00		 mov	 rax, QWORD PTR __security_cookie
  00018	48 33 c4	 xor	 rax, rsp
  0001b	48 89 84 24 c0
	00 00 00	 mov	 QWORD PTR __$ArrayPad$[rsp], rax

; 2926 :     int             rc;                     /* Return code               */
; 2927 :     int             r1, m3;                 /* Values of R and M fields  */
; 2928 :     int             l2;                     /* Operand length minus 1    */
; 2929 :     int             b2;                     /* Base of effective addr    */
; 2930 :     VADR            effective_addr2;        /* Effective address         */
; 2931 :     decimal128      x1;                     /* Extended DFP value        */
; 2932 :     decNumber       d;                      /* Working decimal number    */
; 2933 :     decContext      set;                    /* Working context           */
; 2934 :     char            packed[CXPT_MAXLEN];    /* Packed decimal operand    */
; 2935 : 
; 2936 :     RSL_RM(inst, regs, r1, l2, b2, effective_addr2, m3);

  00023	b8 01 00 00 00	 mov	 eax, 1
  00028	48 6b c0 01	 imul	 rax, rax, 1
  0002c	48 8b 8c 24 e0
	00 00 00	 mov	 rcx, QWORD PTR inst$[rsp]
  00034	48 03 c8	 add	 rcx, rax
  00037	48 8b c1	 mov	 rax, rcx
  0003a	48 8b c8	 mov	 rcx, rax
  0003d	e8 00 00 00 00	 call	 fetch_fw_noswap
  00042	8b c8		 mov	 ecx, eax
  00044	e8 00 00 00 00	 call	 _byteswap_ulong
  00049	89 44 24 30	 mov	 DWORD PTR temp$1[rsp], eax
  0004d	8b 44 24 30	 mov	 eax, DWORD PTR temp$1[rsp]
  00051	83 e0 0f	 and	 eax, 15
  00054	89 44 24 40	 mov	 DWORD PTR m3$[rsp], eax
  00058	8b 44 24 30	 mov	 eax, DWORD PTR temp$1[rsp]
  0005c	c1 e8 04	 shr	 eax, 4
  0005f	83 e0 0f	 and	 eax, 15
  00062	89 44 24 44	 mov	 DWORD PTR r1$[rsp], eax
  00066	8b 44 24 30	 mov	 eax, DWORD PTR temp$1[rsp]
  0006a	c1 e8 08	 shr	 eax, 8
  0006d	25 ff 0f 00 00	 and	 eax, 4095		; 00000fffH
  00072	8b c0		 mov	 eax, eax
  00074	48 89 44 24 48	 mov	 QWORD PTR effective_addr2$[rsp], rax
  00079	8b 44 24 30	 mov	 eax, DWORD PTR temp$1[rsp]
  0007d	c1 e8 14	 shr	 eax, 20
  00080	83 e0 0f	 and	 eax, 15
  00083	89 44 24 38	 mov	 DWORD PTR b2$[rsp], eax
  00087	8b 44 24 30	 mov	 eax, DWORD PTR temp$1[rsp]
  0008b	c1 e8 18	 shr	 eax, 24
  0008e	25 ff 00 00 00	 and	 eax, 255		; 000000ffH
  00093	89 44 24 3c	 mov	 DWORD PTR l2$[rsp], eax
  00097	83 7c 24 38 00	 cmp	 DWORD PTR b2$[rsp], 0
  0009c	74 44		 je	 SHORT $LN8@z900_conve
  0009e	48 63 44 24 38	 movsxd	 rax, DWORD PTR b2$[rsp]
  000a3	48 8b 8c 24 e8
	00 00 00	 mov	 rcx, QWORD PTR regs$[rsp]
  000ab	48 8b 84 c1 80
	02 00 00	 mov	 rax, QWORD PTR [rcx+rax*8+640]
  000b3	48 8b 4c 24 48	 mov	 rcx, QWORD PTR effective_addr2$[rsp]
  000b8	48 03 c8	 add	 rcx, rax
  000bb	48 8b c1	 mov	 rax, rcx
  000be	48 89 44 24 48	 mov	 QWORD PTR effective_addr2$[rsp], rax
  000c3	48 8b 84 24 e8
	00 00 00	 mov	 rax, QWORD PTR regs$[rsp]
  000cb	48 8b 80 90 00
	00 00		 mov	 rax, QWORD PTR [rax+144]
  000d2	48 8b 4c 24 48	 mov	 rcx, QWORD PTR effective_addr2$[rsp]
  000d7	48 23 c8	 and	 rcx, rax
  000da	48 8b c1	 mov	 rax, rcx
  000dd	48 89 44 24 48	 mov	 QWORD PTR effective_addr2$[rsp], rax
$LN8@z900_conve:
$LN4@z900_conve:
  000e2	48 8b 84 24 e8
	00 00 00	 mov	 rax, QWORD PTR regs$[rsp]
  000ea	48 8b 40 68	 mov	 rax, QWORD PTR [rax+104]
  000ee	48 83 c0 06	 add	 rax, 6
  000f2	48 8b 8c 24 e8
	00 00 00	 mov	 rcx, QWORD PTR regs$[rsp]
  000fa	48 89 41 68	 mov	 QWORD PTR [rcx+104], rax
  000fe	33 c0		 xor	 eax, eax
  00100	83 f8 06	 cmp	 eax, 6
  00103	74 0f		 je	 SHORT $LN9@z900_conve
  00105	48 8b 84 24 e8
	00 00 00	 mov	 rax, QWORD PTR regs$[rsp]
  0010d	c6 80 9a 00 00
	00 06		 mov	 BYTE PTR [rax+154], 6
$LN9@z900_conve:
  00114	33 c0		 xor	 eax, eax
  00116	85 c0		 test	 eax, eax
  00118	75 c8		 jne	 SHORT $LN4@z900_conve

; 2937 :     PER_ZEROADDR_XCHECK(regs, b2);

  0011a	8b 54 24 38	 mov	 edx, DWORD PTR b2$[rsp]
  0011e	48 8b 8c 24 e8
	00 00 00	 mov	 rcx, QWORD PTR regs$[rsp]
  00126	e8 00 00 00 00	 call	 z900_per3_zero_xcheck
$LN7@z900_conve:

; 2938 : 
; 2939 :     TXF_FLOAT_INSTR_CHECK(regs);

  0012b	33 c0		 xor	 eax, eax
  0012d	83 f8 01	 cmp	 eax, 1
  00130	0f 84 81 00 00
	00		 je	 $LN10@z900_conve
  00136	48 8b 84 24 e8
	00 00 00	 mov	 rax, QWORD PTR regs$[rsp]
  0013e	0f b6 80 58 0e
	00 00		 movzx	 eax, BYTE PTR [rax+3672]
  00145	85 c0		 test	 eax, eax
  00147	74 6e		 je	 SHORT $LN10@z900_conve
  00149	33 c0		 xor	 eax, eax
  0014b	85 c0		 test	 eax, eax
  0014d	75 29		 jne	 SHORT $LN11@z900_conve
  0014f	48 8b 84 24 e8
	00 00 00	 mov	 rax, QWORD PTR regs$[rsp]
  00157	0f b6 80 4c 0e
	00 00		 movzx	 eax, BYTE PTR [rax+3660]
  0015e	85 c0		 test	 eax, eax
  00160	75 16		 jne	 SHORT $LN11@z900_conve
  00162	48 8b 84 24 e8
	00 00 00	 mov	 rax, QWORD PTR regs$[rsp]
  0016a	0f b6 80 59 0e
	00 00		 movzx	 eax, BYTE PTR [rax+3673]
  00171	83 e0 04	 and	 eax, 4
  00174	85 c0		 test	 eax, eax
  00176	75 3f		 jne	 SHORT $LN10@z900_conve
$LN11@z900_conve:
  00178	48 8b 84 24 e8
	00 00 00	 mov	 rax, QWORD PTR regs$[rsp]
  00180	8b 80 84 af 00
	00		 mov	 eax, DWORD PTR [rax+44932]
  00186	0f ba e8 0b	 bts	 eax, 11
  0018a	48 8b 8c 24 e8
	00 00 00	 mov	 rcx, QWORD PTR regs$[rsp]
  00192	89 81 84 af 00
	00		 mov	 DWORD PTR [rcx+44932], eax
  00198	4c 8d 0d 00 00
	00 00		 lea	 r9, OFFSET FLAT:$SG196358
  0019f	41 b8 0b 00 00
	00		 mov	 r8d, 11
  001a5	ba 02 00 00 00	 mov	 edx, 2
  001aa	48 8b 8c 24 e8
	00 00 00	 mov	 rcx, QWORD PTR regs$[rsp]
  001b2	e8 00 00 00 00	 call	 z900_abort_transaction
$LN10@z900_conve:
  001b7	33 c0		 xor	 eax, eax
  001b9	85 c0		 test	 eax, eax
  001bb	0f 85 6a ff ff
	ff		 jne	 $LN7@z900_conve

; 2940 :     DFPINST_CHECK(regs);

  001c1	b8 08 00 00 00	 mov	 eax, 8
  001c6	48 6b c0 01	 imul	 rax, rax, 1
  001ca	48 8b 8c 24 e8
	00 00 00	 mov	 rcx, QWORD PTR regs$[rsp]
  001d2	48 8b 84 01 00
	06 00 00	 mov	 rax, QWORD PTR [rcx+rax+1536]
  001da	48 25 00 00 04
	00		 and	 rax, 262144		; 00040000H
  001e0	48 85 c0	 test	 rax, rax
  001e3	74 42		 je	 SHORT $LN13@z900_conve
  001e5	48 8b 84 24 e8
	00 00 00	 mov	 rax, QWORD PTR regs$[rsp]
  001ed	8b 80 c8 08 00
	00		 mov	 eax, DWORD PTR [rax+2248]
  001f3	d1 e8		 shr	 eax, 1
  001f5	83 e0 01	 and	 eax, 1
  001f8	85 c0		 test	 eax, eax
  001fa	74 58		 je	 SHORT $LN12@z900_conve
  001fc	48 8b 84 24 e8
	00 00 00	 mov	 rax, QWORD PTR regs$[rsp]
  00204	48 8b 80 68 08
	00 00		 mov	 rax, QWORD PTR [rax+2152]
  0020b	b9 08 00 00 00	 mov	 ecx, 8
  00210	48 6b c9 01	 imul	 rcx, rcx, 1
  00214	48 8b 84 08 00
	06 00 00	 mov	 rax, QWORD PTR [rax+rcx+1536]
  0021c	48 25 00 00 04
	00		 and	 rax, 262144		; 00040000H
  00222	48 85 c0	 test	 rax, rax
  00225	75 2d		 jne	 SHORT $LN12@z900_conve
$LN13@z900_conve:
  00227	48 8b 84 24 e8
	00 00 00	 mov	 rax, QWORD PTR regs$[rsp]
  0022f	c7 80 08 07 00
	00 03 00 00 00	 mov	 DWORD PTR [rax+1800], 3
  00239	ba 07 00 00 00	 mov	 edx, 7
  0023e	48 8b 8c 24 e8
	00 00 00	 mov	 rcx, QWORD PTR regs$[rsp]
  00246	48 8b 84 24 e8
	00 00 00	 mov	 rax, QWORD PTR regs$[rsp]
  0024e	ff 90 20 0d 00
	00		 call	 QWORD PTR [rax+3360]
$LN12@z900_conve:

; 2941 :     DFPREGPAIR_CHECK(r1, regs);

  00254	8b 44 24 44	 mov	 eax, DWORD PTR r1$[rsp]
  00258	83 e0 02	 and	 eax, 2
  0025b	85 c0		 test	 eax, eax
  0025d	74 1b		 je	 SHORT $LN14@z900_conve
  0025f	ba 06 00 00 00	 mov	 edx, 6
  00264	48 8b 8c 24 e8
	00 00 00	 mov	 rcx, QWORD PTR regs$[rsp]
  0026c	48 8b 84 24 e8
	00 00 00	 mov	 rax, QWORD PTR regs$[rsp]
  00274	ff 90 20 0d 00
	00		 call	 QWORD PTR [rax+3360]
$LN14@z900_conve:

; 2942 : 
; 2943 :     /* Program check if operand length exceeds maximum */
; 2944 :     if (l2 > CXPT_MAXLEN - 1)

  0027a	83 7c 24 3c 11	 cmp	 DWORD PTR l2$[rsp], 17
  0027f	7e 12		 jle	 SHORT $LN15@z900_conve

; 2945 :     {
; 2946 :         ARCH_DEP(program_interrupt) (regs, PGM_SPECIFICATION_EXCEPTION);

  00281	ba 06 00 00 00	 mov	 edx, 6
  00286	48 8b 8c 24 e8
	00 00 00	 mov	 rcx, QWORD PTR regs$[rsp]
  0028e	e8 00 00 00 00	 call	 z900_program_interrupt
$LN15@z900_conve:

; 2947 :     }
; 2948 : 
; 2949 :     /* Initialise the context for extended DFP */
; 2950 :     decContextDefault(&set, DEC_INIT_DECIMAL128);

  00293	ba 80 00 00 00	 mov	 edx, 128		; 00000080H
  00298	48 8d 4c 24 60	 lea	 rcx, QWORD PTR set$[rsp]
  0029d	e8 00 00 00 00	 call	 decContextDefault

; 2951 : 
; 2952 :     /* Fetch the packed decimal operand into the work area */
; 2953 :     ARCH_DEP(vfetchc) (packed, l2, effective_addr2, b2, regs);

  002a2	48 8b 84 24 e8
	00 00 00	 mov	 rax, QWORD PTR regs$[rsp]
  002aa	48 89 44 24 20	 mov	 QWORD PTR [rsp+32], rax
  002af	44 8b 4c 24 38	 mov	 r9d, DWORD PTR b2$[rsp]
  002b4	4c 8b 44 24 48	 mov	 r8, QWORD PTR effective_addr2$[rsp]
  002b9	0f b6 54 24 3c	 movzx	 edx, BYTE PTR l2$[rsp]
  002be	48 8d 8c 24 a8
	00 00 00	 lea	 rcx, QWORD PTR packed$[rsp]
  002c6	e8 00 00 00 00	 call	 z900_vfetchc

; 2954 : 
; 2955 :     /* when l2 = 17; check that unused digits are 0 */
; 2956 :     rc = 0;

  002cb	c7 44 24 34 00
	00 00 00	 mov	 DWORD PTR rc$[rsp], 0

; 2957 :     if (l2 == 17) {

  002d3	83 7c 24 3c 11	 cmp	 DWORD PTR l2$[rsp], 17
  002d8	75 4c		 jne	 SHORT $LN16@z900_conve

; 2958 :         if (m3 & 0x8) {

  002da	8b 44 24 40	 mov	 eax, DWORD PTR m3$[rsp]
  002de	83 e0 08	 and	 eax, 8
  002e1	85 c0		 test	 eax, eax
  002e3	74 24		 je	 SHORT $LN17@z900_conve

; 2959 :             /* signed - first nibble must be 0 */
; 2960 :             if (packed[0] & 0xF0)  rc = 1;

  002e5	b8 01 00 00 00	 mov	 eax, 1
  002ea	48 6b c0 00	 imul	 rax, rax, 0
  002ee	0f be 84 04 a8
	00 00 00	 movsx	 eax, BYTE PTR packed$[rsp+rax]
  002f6	25 f0 00 00 00	 and	 eax, 240		; 000000f0H
  002fb	85 c0		 test	 eax, eax
  002fd	74 08		 je	 SHORT $LN19@z900_conve
  002ff	c7 44 24 34 01
	00 00 00	 mov	 DWORD PTR rc$[rsp], 1
$LN19@z900_conve:

; 2961 :         }

  00307	eb 1d		 jmp	 SHORT $LN18@z900_conve
$LN17@z900_conve:

; 2962 :         else {
; 2963 :             /* unsigned - first byte must be 0 */
; 2964 :             if (packed[0]) rc = 1;

  00309	b8 01 00 00 00	 mov	 eax, 1
  0030e	48 6b c0 00	 imul	 rax, rax, 0
  00312	0f be 84 04 a8
	00 00 00	 movsx	 eax, BYTE PTR packed$[rsp+rax]
  0031a	85 c0		 test	 eax, eax
  0031c	74 08		 je	 SHORT $LN20@z900_conve
  0031e	c7 44 24 34 01
	00 00 00	 mov	 DWORD PTR rc$[rsp], 1
$LN20@z900_conve:
$LN18@z900_conve:
$LN16@z900_conve:

; 2965 :         }
; 2966 :     }
; 2967 : 
; 2968 :     /* Convert packed decimal to decimal number structure */
; 2969 :     if (rc == 0)  rc = dfp_number_from_packed(&d, packed, l2, m3, &set);

  00326	83 7c 24 34 00	 cmp	 DWORD PTR rc$[rsp], 0
  0032b	75 2d		 jne	 SHORT $LN21@z900_conve
  0032d	48 8d 44 24 60	 lea	 rax, QWORD PTR set$[rsp]
  00332	48 89 44 24 20	 mov	 QWORD PTR [rsp+32], rax
  00337	44 8b 4c 24 40	 mov	 r9d, DWORD PTR m3$[rsp]
  0033c	44 8b 44 24 3c	 mov	 r8d, DWORD PTR l2$[rsp]
  00341	48 8d 94 24 a8
	00 00 00	 lea	 rdx, QWORD PTR packed$[rsp]
  00349	48 8d 8c 24 80
	00 00 00	 lea	 rcx, QWORD PTR d$[rsp]
  00351	e8 00 00 00 00	 call	 dfp_number_from_packed
  00356	89 44 24 34	 mov	 DWORD PTR rc$[rsp], eax
$LN21@z900_conve:

; 2970 : 
; 2971 :     /* Program check if data exception is indicated */
; 2972 :     if (rc != 0)

  0035a	83 7c 24 34 00	 cmp	 DWORD PTR rc$[rsp], 0
  0035f	74 24		 je	 SHORT $LN22@z900_conve

; 2973 :     {
; 2974 :         regs->dxc = DXC_DECIMAL;

  00361	48 8b 84 24 e8
	00 00 00	 mov	 rax, QWORD PTR regs$[rsp]
  00369	c7 80 08 07 00
	00 00 00 00 00	 mov	 DWORD PTR [rax+1800], 0

; 2975 :         ARCH_DEP(program_interrupt) (regs, PGM_DATA_EXCEPTION);

  00373	ba 07 00 00 00	 mov	 edx, 7
  00378	48 8b 8c 24 e8
	00 00 00	 mov	 rcx, QWORD PTR regs$[rsp]
  00380	e8 00 00 00 00	 call	 z900_program_interrupt
$LN22@z900_conve:

; 2976 :     }
; 2977 : 
; 2978 :     /* Convert decimal number to extended DFP format */
; 2979 :     decimal128FromNumber(&x1, &d, &set);

  00385	4c 8d 44 24 60	 lea	 r8, QWORD PTR set$[rsp]
  0038a	48 8d 94 24 80
	00 00 00	 lea	 rdx, QWORD PTR d$[rsp]
  00392	48 8d 4c 24 50	 lea	 rcx, QWORD PTR x1$[rsp]
  00397	e8 00 00 00 00	 call	 decimal128FromNumber

; 2980 : 
; 2981 :     /* Load result into FP register r1 */
; 2982 :     ARCH_DEP(dfp_reg_from_decimal128)(r1, &x1, regs);

  0039c	4c 8b 84 24 e8
	00 00 00	 mov	 r8, QWORD PTR regs$[rsp]
  003a4	48 8d 54 24 50	 lea	 rdx, QWORD PTR x1$[rsp]
  003a9	8b 4c 24 44	 mov	 ecx, DWORD PTR r1$[rsp]
  003ad	e8 00 00 00 00	 call	 z900_dfp_reg_from_decimal128

; 2983 : 
; 2984 : } /* end DEF_INST(convert_packed_to_dfp_ext) */

  003b2	48 8b 8c 24 c0
	00 00 00	 mov	 rcx, QWORD PTR __$ArrayPad$[rsp]
  003ba	48 33 cc	 xor	 rcx, rsp
  003bd	e8 00 00 00 00	 call	 __security_check_cookie
  003c2	48 81 c4 d8 00
	00 00		 add	 rsp, 216		; 000000d8H
  003c9	c3		 ret	 0
z900_convert_packed_to_dfp_ext ENDP
_TEXT	ENDS
; Function compile flags: /Odtp
; File C:\papa\MyGit\hyperion-zvector\dfp.c
_TEXT	SEGMENT
temp$1 = 48
b2$ = 52
l2$ = 56
effective_addr2$ = 64
r1$ = 72
m3$ = 76
cc$ = 80
x1$ = 88
dwork$ = 96
set$ = 136
dcoeff$ = 168
zoned$ = 208
__$ArrayPad$ = 224
inst$ = 256
regs$ = 264
z900_convert_dfp_long_to_zoned PROC

; 3710 : {

$LN18:
  00000	48 89 54 24 10	 mov	 QWORD PTR [rsp+16], rdx
  00005	48 89 4c 24 08	 mov	 QWORD PTR [rsp+8], rcx
  0000a	48 81 ec f8 00
	00 00		 sub	 rsp, 248		; 000000f8H
  00011	48 8b 05 00 00
	00 00		 mov	 rax, QWORD PTR __security_cookie
  00018	48 33 c4	 xor	 rax, rsp
  0001b	48 89 84 24 e0
	00 00 00	 mov	 QWORD PTR __$ArrayPad$[rsp], rax

; 3711 : int             r1, m3;                 /* Values of R and M fields  */
