; Listing generated by Microsoft (R) Optimizing Compiler Version 19.34.31937.0 

include listing.inc

INCLUDELIB MSVCRTD
INCLUDELIB OLDNAMES

CONST	SEGMENT
CKD_ENDTRK DB	0ffH
	DB	0ffH
	DB	0ffH
	DB	0ffH
	DB	0ffH
	DB	0ffH
	DB	0ffH
	DB	0ffH
mask	DB	080H
	DB	040H
	DB	020H
	DB	010H
	DB	08H
	DB	04H
	DB	02H
	DB	01H
kmctr_wrap DD	00H
	DD	00H
	DD	00H
	DD	00H
	DD	00H
	DD	00H
	DD	00H
	DD	00H
	DD	00H
	DD	01H
	DD	01H
	DD	01H
	DD	00H
	DD	00H
	DD	00H
	DD	00H
	DD	00H
	DD	00H
	DD	00H
	DD	00H
	DD	00H
	DD	00H
	DD	00H
	DD	00H
	DD	00H
	DD	00H
	DD	01H
	DD	01H
	DD	01H
	DD	00H
	DD	00H
	DD	00H
kmctr_keylengths DD 00H
	DD	08H
	DD	010H
	DD	018H
	DD	00H
	DD	00H
	DD	00H
	DD	00H
	DD	00H
	DD	08H
	DD	010H
	DD	018H
	DD	00H
	DD	00H
	DD	00H
	DD	00H
	DD	00H
	DD	00H
	DD	010H
	DD	018H
	DD	020H
	DD	00H
	DD	00H
	DD	00H
	DD	00H
	DD	00H
	DD	010H
	DD	018H
	DD	020H
	DD	00H
	DD	00H
	DD	00H
kmctr_pblens DD	00H
	DD	08H
	DD	010H
	DD	018H
	DD	00H
	DD	00H
	DD	00H
	DD	00H
	DD	00H
	DD	020H
	DD	028H
	DD	030H
	DD	00H
	DD	00H
	DD	00H
	DD	00H
	DD	00H
	DD	00H
	DD	010H
	DD	018H
	DD	020H
	DD	00H
	DD	00H
	DD	00H
	DD	00H
	DD	00H
	DD	030H
	DD	038H
	DD	040H
	DD	00H
	DD	00H
	DD	00H
poly	DB	00H
	DB	0e1H
	ORG $+6
?query_bits@?1??s370_dyn_perform_cryptographic_computation@@9@9 DB 0f0H ; `s370_dyn_perform_cryptographic_computation'::`2'::query_bits
	DB	070H
	DB	038H
	DB	038H
	DB	00H
	DB	00H
	DB	028H
	DB	028H
	DB	00H
	DB	00H
	DB	00H
	DB	00H
	DB	00H
	DB	00H
	DB	00H
	DB	00H
?query_bits@?1??z900_dyn_perform_cryptographic_computation@@9@9 DB 0f0H ; `z900_dyn_perform_cryptographic_computation'::`2'::query_bits
	DB	070H
	DB	038H
	DB	038H
	DB	00H
	DB	00H
	DB	028H
	DB	028H
	DB	00H
	DB	00H
	DB	00H
	DB	00H
	DB	00H
	DB	00H
	DB	00H
	DB	00H
CONST	ENDS
PUBLIC	RtlSecureZeroMemory
PUBLIC	fetch_fw_noswap
PUBLIC	store_fw_noswap
PUBLIC	s370_maddr_l
PUBLIC	s370_vstorec
PUBLIC	s370_vfetchc
PUBLIC	s370_validate_operand
PUBLIC	crypto_fetch32
PUBLIC	crypto_store32
PUBLIC	crypto_cswap32
PUBLIC	crypto_cswap64
PUBLIC	crypto_secure0
PUBLIC	gcm_gf_mult
PUBLIC	xts_mult_x
PUBLIC	xts_gf_mult
PUBLIC	shift_left
PUBLIC	des_set_key
PUBLIC	des_encrypt
PUBLIC	des_decrypt
PUBLIC	des3_set_2keys
PUBLIC	des3_set_3keys
PUBLIC	des3_encrypt
PUBLIC	des3_decrypt
PUBLIC	s370_dyn_compute_intermediate_message_digest
PUBLIC	s370_dyn_compute_last_message_digest
PUBLIC	s370_dyn_cipher_message
PUBLIC	s370_dyn_compute_message_authentication_code
PUBLIC	s370_dyn_cipher_message_with_chaining
PUBLIC	s370_dyn_cipher_message_with_counter
PUBLIC	s370_dyn_cipher_message_with_cipher_feedback
PUBLIC	s370_dyn_cipher_message_with_output_feedback
PUBLIC	s370_dyn_perform_cryptographic_computation
PUBLIC	s370_dyn_perform_cryptographic_key_management_operation
PUBLIC	s390_maddr_l
PUBLIC	s390_vstorec
PUBLIC	s390_vfetchc
PUBLIC	s390_validate_operand
PUBLIC	s390_dyn_compute_intermediate_message_digest
PUBLIC	s390_dyn_compute_last_message_digest
PUBLIC	s390_dyn_cipher_message
PUBLIC	s390_dyn_compute_message_authentication_code
PUBLIC	s390_dyn_cipher_message_with_chaining
PUBLIC	s390_dyn_perform_cryptographic_key_management_operation
PUBLIC	s390_dyn_perform_cryptographic_computation
PUBLIC	s390_dyn_cipher_message_with_cipher_feedback
PUBLIC	s390_dyn_cipher_message_with_output_feedback
PUBLIC	s390_dyn_cipher_message_with_counter
PUBLIC	z900_is_per3_event_suppressed
PUBLIC	z900_per3_zero
PUBLIC	z900_per3_zero_check
PUBLIC	z900_per3_zero_check2
PUBLIC	z900_per3_zero_lcheck
PUBLIC	z900_maddr_l
PUBLIC	z900_vstorec
PUBLIC	z900_vfetchc
PUBLIC	z900_validate_operand
PUBLIC	z900_dyn_compute_intermediate_message_digest
PUBLIC	z900_dyn_compute_last_message_digest
PUBLIC	z900_dyn_cipher_message
PUBLIC	z900_dyn_compute_message_authentication_code
PUBLIC	z900_dyn_cipher_message_with_chaining
PUBLIC	z900_dyn_cipher_message_with_counter
PUBLIC	z900_dyn_cipher_message_with_cipher_feedback
PUBLIC	z900_dyn_cipher_message_with_output_feedback
PUBLIC	z900_dyn_perform_cryptographic_computation
PUBLIC	z900_dyn_perform_cryptographic_key_management_operation
PUBLIC	hdl_check_depends_ep
PUBLIC	hdl_define_instructs_ep
PUBLIC	hdl_register_symbols_ep
EXTRN	__report_rangecheckfailure:PROC
EXTRN	_byteswap_ulong:PROC
EXTRN	_byteswap_uint64:PROC
EXTRN	longjmp:PROC
EXTRN	__imp___acrt_iob_func:PROC
EXTRN	__imp_reverse_bits:PROC
EXTRN	__imp_s370_fetch_int_timer:PROC
EXTRN	__imp_s370_store_int_timer:PROC
EXTRN	__imp_txf_maddr_l:PROC
EXTRN	__imp_z900_abort_transaction:PROC
EXTRN	__imp_s370_program_interrupt:PROC
EXTRN	__imp_s390_program_interrupt:PROC
EXTRN	__imp_z900_program_interrupt:PROC
EXTRN	__imp_fwritemsg:PROC
EXTRN	__imp_s370_logical_to_main_l:PROC
EXTRN	__imp_s390_logical_to_main_l:PROC
EXTRN	__imp_z900_logical_to_main_l:PROC
EXTRN	rijndael_set_key:PROC
EXTRN	rijndael_decrypt:PROC
EXTRN	rijndael_encrypt:PROC
EXTRN	SHA1Transform:PROC
EXTRN	SHA256Transform:PROC
EXTRN	SHA512Transform:PROC
EXTRN	des_key_setup:PROC
EXTRN	des_encipher:PROC
EXTRN	des_decipher:PROC
EXTRN	__GSHandlerCheck:PROC
EXTRN	__security_check_cookie:PROC
EXTRN	memcmp:PROC
EXTRN	__imp_sysblk:BYTE
EXTRN	__ImageBase:BYTE
EXTRN	__security_cookie:QWORD
;	COMDAT pdata
pdata	SEGMENT
$pdata$RtlSecureZeroMemory DD imagerel $LN3
	DD	imagerel $LN3+48
	DD	imagerel $unwind$RtlSecureZeroMemory
pdata	ENDS
;	COMDAT pdata
pdata	SEGMENT
$pdata$fetch_fw_noswap DD imagerel $LN3
	DD	imagerel $LN3+27
	DD	imagerel $unwind$fetch_fw_noswap
pdata	ENDS
;	COMDAT pdata
pdata	SEGMENT
$pdata$s370_maddr_l DD imagerel $LN14
	DD	imagerel $LN14+475
	DD	imagerel $unwind$s370_maddr_l
pdata	ENDS
;	COMDAT pdata
pdata	SEGMENT
$pdata$s370_vstorec DD imagerel $LN24
	DD	imagerel $LN24+598
	DD	imagerel $unwind$s370_vstorec
pdata	ENDS
;	COMDAT pdata
pdata	SEGMENT
$pdata$s370_vfetchc DD imagerel $LN24
	DD	imagerel $LN24+529
	DD	imagerel $unwind$s370_vfetchc
pdata	ENDS
;	COMDAT pdata
pdata	SEGMENT
$pdata$s370_validate_operand DD imagerel $LN24
	DD	imagerel $LN24+272
	DD	imagerel $unwind$s370_validate_operand
pdata	ENDS
pdata	SEGMENT
$pdata$crypto_fetch32 DD imagerel $LN3
	DD	imagerel $LN3+31
	DD	imagerel $unwind$crypto_fetch32
$pdata$crypto_store32 DD imagerel $LN3
	DD	imagerel $LN3+39
	DD	imagerel $unwind$crypto_store32
$pdata$crypto_cswap32 DD imagerel $LN3
	DD	imagerel $LN3+22
	DD	imagerel $unwind$crypto_cswap32
$pdata$crypto_cswap64 DD imagerel $LN3
	DD	imagerel $LN3+24
	DD	imagerel $unwind$crypto_cswap64
$pdata$crypto_secure0 DD imagerel $LN3
	DD	imagerel $LN3+34
	DD	imagerel $unwind$crypto_secure0
$pdata$gcm_rightshift DD imagerel gcm_rightshift
	DD	imagerel gcm_rightshift+131
	DD	imagerel $unwind$gcm_rightshift
$pdata$gcm_gf_mult DD imagerel $LN10
	DD	imagerel $LN10+339
	DD	imagerel $unwind$gcm_gf_mult
$pdata$xts_mult_x DD imagerel $LN7
	DD	imagerel $LN7+165
	DD	imagerel $unwind$xts_mult_x
$pdata$xts_gf_mult DD imagerel $LN9
	DD	imagerel $LN9+220
	DD	imagerel $unwind$xts_gf_mult
$pdata$sha1_getcv DD imagerel sha1_getcv
	DD	imagerel sha1_getcv+223
	DD	imagerel $unwind$sha1_getcv
$pdata$sha1_seticv DD imagerel sha1_seticv
	DD	imagerel sha1_seticv+255
	DD	imagerel $unwind$sha1_seticv
$pdata$sha256_getcv DD imagerel sha256_getcv
	DD	imagerel sha256_getcv+223
	DD	imagerel $unwind$sha256_getcv
$pdata$sha256_seticv DD imagerel sha256_seticv
	DD	imagerel sha256_seticv+255
	DD	imagerel $unwind$sha256_seticv
$pdata$sha512_getcv DD imagerel sha512_getcv
	DD	imagerel sha512_getcv+440
	DD	imagerel $unwind$sha512_getcv
$pdata$sha512_seticv DD imagerel sha512_seticv
	DD	imagerel sha512_seticv+493
	DD	imagerel $unwind$sha512_seticv
$pdata$shift_left DD imagerel $LN8
	DD	imagerel $LN8+261
	DD	imagerel $unwind$shift_left
$pdata$des_set_key DD imagerel $LN3
	DD	imagerel $LN3+114
	DD	imagerel $unwind$des_set_key
$pdata$des_encrypt DD imagerel $LN3
	DD	imagerel $LN3+171
	DD	imagerel $unwind$des_encrypt
$pdata$des_decrypt DD imagerel $LN3
	DD	imagerel $LN3+171
	DD	imagerel $unwind$des_decrypt
$pdata$des3_set_2keys DD imagerel $LN3
	DD	imagerel $LN3+240
	DD	imagerel $unwind$des3_set_2keys
$pdata$des3_set_3keys DD imagerel $LN3
	DD	imagerel $LN3+294
	DD	imagerel $unwind$des3_set_3keys
$pdata$des3_encrypt DD imagerel $LN3
	DD	imagerel $LN3+305
	DD	imagerel $unwind$des3_encrypt
$pdata$des3_decrypt DD imagerel $LN3
	DD	imagerel $LN3+305
	DD	imagerel $unwind$des3_decrypt
$pdata$unwrap_aes DD imagerel unwrap_aes
	DD	imagerel unwrap_aes+666
	DD	imagerel $unwind$unwrap_aes
$pdata$unwrap_dea DD imagerel unwrap_dea
	DD	imagerel unwrap_dea+593
	DD	imagerel $unwind$unwrap_dea
$pdata$wrap_aes DD imagerel wrap_aes
	DD	imagerel wrap_aes+627
	DD	imagerel $unwind$wrap_aes
$pdata$wrap_dea DD imagerel wrap_dea
	DD	imagerel wrap_dea+503
	DD	imagerel $unwind$wrap_dea
$pdata$s370_kimd_sha DD imagerel s370_kimd_sha
	DD	imagerel s370_kimd_sha+1203
	DD	imagerel $unwind$s370_kimd_sha
$pdata$s370_kimd_ghash DD imagerel s370_kimd_ghash
	DD	imagerel s370_kimd_ghash+847
	DD	imagerel $unwind$s370_kimd_ghash
$pdata$s370_klmd_sha DD imagerel s370_klmd_sha
	DD	imagerel s370_klmd_sha+1587
	DD	imagerel $unwind$s370_klmd_sha
$pdata$s370_km_dea DD imagerel s370_km_dea
	DD	imagerel s370_km_dea+1383
	DD	imagerel $unwind$s370_km_dea
$pdata$s370_km_aes DD imagerel s370_km_aes
	DD	imagerel s370_km_aes+1148
	DD	imagerel $unwind$s370_km_aes
$pdata$s370_km_xts_aes DD imagerel s370_km_xts_aes
	DD	imagerel s370_km_xts_aes+1495
	DD	imagerel $unwind$s370_km_xts_aes
$pdata$s370_kmac_dea DD imagerel s370_kmac_dea
	DD	imagerel s370_kmac_dea+1490
	DD	imagerel $unwind$s370_kmac_dea
$pdata$s370_kmac_aes DD imagerel s370_kmac_aes
	DD	imagerel s370_kmac_aes+1098
	DD	imagerel $unwind$s370_kmac_aes
$pdata$s370_kmc_dea DD imagerel s370_kmc_dea
	DD	imagerel s370_kmc_dea+2466
	DD	imagerel $unwind$s370_kmc_dea
$pdata$s370_kmc_aes DD imagerel s370_kmc_aes
	DD	imagerel s370_kmc_aes+1549
	DD	imagerel $unwind$s370_kmc_aes
$pdata$s370_kmc_prng DD imagerel s370_kmc_prng
	DD	imagerel s370_kmc_prng+1482
	DD	imagerel $unwind$s370_kmc_prng
$pdata$s370_kmctr_dea DD imagerel s370_kmctr_dea
	DD	imagerel s370_kmctr_dea+1772
	DD	imagerel $unwind$s370_kmctr_dea
$pdata$s370_kmctr_aes DD imagerel s370_kmctr_aes
	DD	imagerel s370_kmctr_aes+1363
	DD	imagerel $unwind$s370_kmctr_aes
$pdata$s370_kmf_dea DD imagerel s370_kmf_dea
	DD	imagerel s370_kmf_dea+2039
	DD	imagerel $unwind$s370_kmf_dea
$pdata$s370_kmf_aes DD imagerel s370_kmf_aes
	DD	imagerel s370_kmf_aes+1628
	DD	imagerel $unwind$s370_kmf_aes
$pdata$s370_kmo_dea DD imagerel s370_kmo_dea
	DD	imagerel s370_kmo_dea+1699
	DD	imagerel $unwind$s370_kmo_dea
$pdata$s370_kmo_aes DD imagerel s370_kmo_aes
	DD	imagerel s370_kmo_aes+1282
	DD	imagerel $unwind$s370_kmo_aes
$pdata$s370_pcc_cmac_dea DD imagerel s370_pcc_cmac_dea
	DD	imagerel s370_pcc_cmac_dea+2568
	DD	imagerel $unwind$s370_pcc_cmac_dea
$pdata$s370_pcc_cmac_aes DD imagerel s370_pcc_cmac_aes
	DD	imagerel s370_pcc_cmac_aes+1861
	DD	imagerel $unwind$s370_pcc_cmac_aes
$pdata$s370_pcc_xts_aes DD imagerel s370_pcc_xts_aes
	DD	imagerel s370_pcc_xts_aes+1307
	DD	imagerel $unwind$s370_pcc_xts_aes
$pdata$s370_pckmo_dea DD imagerel s370_pckmo_dea
	DD	imagerel s370_pckmo_dea+329
	DD	imagerel $unwind$s370_pckmo_dea
$pdata$s370_pckmo_aes DD imagerel s370_pckmo_aes
	DD	imagerel s370_pckmo_aes+333
	DD	imagerel $unwind$s370_pckmo_aes
$pdata$s370_dyn_compute_intermediate_message_digest DD imagerel $LN31
	DD	imagerel $LN31+1203
	DD	imagerel $unwind$s370_dyn_compute_intermediate_message_digest
$pdata$s370_dyn_compute_last_message_digest DD imagerel $LN28
	DD	imagerel $LN28+1129
	DD	imagerel $unwind$s370_dyn_compute_last_message_digest
$pdata$s370_dyn_cipher_message DD imagerel $LN45
	DD	imagerel $LN45+1385
	DD	imagerel $unwind$s370_dyn_cipher_message
$pdata$s370_dyn_compute_message_authentication_code DD imagerel $LN38
	DD	imagerel $LN38+1240
	DD	imagerel $unwind$s370_dyn_compute_message_authentication_code
$pdata$s370_dyn_cipher_message_with_chaining DD imagerel $LN42
	DD	imagerel $LN42+1380
	DD	imagerel $unwind$s370_dyn_cipher_message_with_chaining
$pdata$s370_dyn_cipher_message_with_counter DD imagerel $LN34
	DD	imagerel $LN34+1216
	DD	imagerel $unwind$s370_dyn_cipher_message_with_counter
$pdata$s370_dyn_cipher_message_with_cipher_feedback DD imagerel $LN34
	DD	imagerel $LN34+1172
	DD	imagerel $unwind$s370_dyn_cipher_message_with_cipher_feedback
$pdata$s370_dyn_cipher_message_with_output_feedback DD imagerel $LN34
	DD	imagerel $LN34+1172
	DD	imagerel $unwind$s370_dyn_cipher_message_with_output_feedback
$pdata$s370_dyn_perform_cryptographic_computation DD imagerel $LN35
	DD	imagerel $LN35+473
	DD	imagerel $unwind$s370_dyn_perform_cryptographic_computation
$pdata$s370_dyn_perform_cryptographic_key_management_operation DD imagerel $LN33
	DD	imagerel $LN33+1192
	DD	imagerel $unwind$s370_dyn_perform_cryptographic_key_management_operation
pdata	ENDS
;	COMDAT pdata
pdata	SEGMENT
$pdata$s390_maddr_l DD imagerel $LN14
	DD	imagerel $LN14+475
	DD	imagerel $unwind$s390_maddr_l
pdata	ENDS
;	COMDAT pdata
pdata	SEGMENT
$pdata$s390_vstorec DD imagerel $LN9
	DD	imagerel $LN9+498
	DD	imagerel $unwind$s390_vstorec
pdata	ENDS
;	COMDAT pdata
pdata	SEGMENT
$pdata$s390_vfetchc DD imagerel $LN9
	DD	imagerel $LN9+432
	DD	imagerel $unwind$s390_vfetchc
pdata	ENDS
;	COMDAT pdata
pdata	SEGMENT
$pdata$s390_validate_operand DD imagerel $LN8
	DD	imagerel $LN8+185
	DD	imagerel $unwind$s390_validate_operand
pdata	ENDS
pdata	SEGMENT
$pdata$s390_kimd_sha DD imagerel s390_kimd_sha
	DD	imagerel s390_kimd_sha+1248
	DD	imagerel $unwind$s390_kimd_sha
$pdata$s390_klmd_sha DD imagerel s390_klmd_sha
	DD	imagerel s390_klmd_sha+1632
	DD	imagerel $unwind$s390_klmd_sha
$pdata$s390_km_dea DD imagerel s390_km_dea
	DD	imagerel s390_km_dea+1371
	DD	imagerel $unwind$s390_km_dea
$pdata$s390_km_aes DD imagerel s390_km_aes
	DD	imagerel s390_km_aes+1136
	DD	imagerel $unwind$s390_km_aes
$pdata$s390_kmac_dea DD imagerel s390_kmac_dea
	DD	imagerel s390_kmac_dea+1477
	DD	imagerel $unwind$s390_kmac_dea
$pdata$s390_kmc_dea DD imagerel s390_kmc_dea
	DD	imagerel s390_kmc_dea+2464
	DD	imagerel $unwind$s390_kmc_dea
$pdata$s390_kmc_aes DD imagerel s390_kmc_aes
	DD	imagerel s390_kmc_aes+1547
	DD	imagerel $unwind$s390_kmc_aes
$pdata$s390_kmc_prng DD imagerel s390_kmc_prng
	DD	imagerel s390_kmc_prng+1537
	DD	imagerel $unwind$s390_kmc_prng
$pdata$s390_dyn_compute_intermediate_message_digest DD imagerel $LN28
	DD	imagerel $LN28+1149
	DD	imagerel $unwind$s390_dyn_compute_intermediate_message_digest
$pdata$s390_dyn_compute_last_message_digest DD imagerel $LN28
	DD	imagerel $LN28+1140
	DD	imagerel $unwind$s390_dyn_compute_last_message_digest
$pdata$s390_dyn_cipher_message DD imagerel $LN28
	DD	imagerel $LN28+1180
	DD	imagerel $unwind$s390_dyn_cipher_message
$pdata$s390_dyn_compute_message_authentication_code DD imagerel $LN24
	DD	imagerel $LN24+1024
	DD	imagerel $unwind$s390_dyn_compute_message_authentication_code
$pdata$s390_dyn_cipher_message_with_chaining DD imagerel $LN32
	DD	imagerel $LN32+1260
	DD	imagerel $unwind$s390_dyn_cipher_message_with_chaining
$pdata$s390_dyn_perform_cryptographic_key_management_operation DD imagerel $LN19
	DD	imagerel $LN19+348
	DD	imagerel $unwind$s390_dyn_perform_cryptographic_key_management_operation
$pdata$s390_dyn_perform_cryptographic_computation DD imagerel $LN19
	DD	imagerel $LN19+348
	DD	imagerel $unwind$s390_dyn_perform_cryptographic_computation
$pdata$s390_dyn_cipher_message_with_cipher_feedback DD imagerel $LN19
	DD	imagerel $LN19+348
	DD	imagerel $unwind$s390_dyn_cipher_message_with_cipher_feedback
$pdata$s390_dyn_cipher_message_with_output_feedback DD imagerel $LN19
	DD	imagerel $LN19+348
	DD	imagerel $unwind$s390_dyn_cipher_message_with_output_feedback
$pdata$s390_dyn_cipher_message_with_counter DD imagerel $LN19
	DD	imagerel $LN19+348
	DD	imagerel $unwind$s390_dyn_cipher_message_with_counter
pdata	ENDS
;	COMDAT pdata
pdata	SEGMENT
$pdata$z900_per3_zero DD imagerel $LN12
	DD	imagerel $LN12+215
	DD	imagerel $unwind$z900_per3_zero
pdata	ENDS
;	COMDAT pdata
pdata	SEGMENT
$pdata$z900_per3_zero_check DD imagerel $LN6
	DD	imagerel $LN6+101
	DD	imagerel $unwind$z900_per3_zero_check
pdata	ENDS
;	COMDAT pdata
pdata	SEGMENT
$pdata$z900_per3_zero_check2 DD imagerel $LN9
	DD	imagerel $LN9+189
	DD	imagerel $unwind$z900_per3_zero_check2
pdata	ENDS
;	COMDAT pdata
pdata	SEGMENT
$pdata$z900_per3_zero_lcheck DD imagerel $LN8
	DD	imagerel $LN8+190
	DD	imagerel $unwind$z900_per3_zero_lcheck
pdata	ENDS
;	COMDAT pdata
pdata	SEGMENT
$pdata$z900_maddr_l DD imagerel $LN18
	DD	imagerel $LN18+659
	DD	imagerel $unwind$z900_maddr_l
pdata	ENDS
;	COMDAT pdata
pdata	SEGMENT
$pdata$z900_vstorec DD imagerel $LN9
	DD	imagerel $LN9+511
	DD	imagerel $unwind$z900_vstorec
pdata	ENDS
;	COMDAT pdata
pdata	SEGMENT
$pdata$z900_vfetchc DD imagerel $LN9
	DD	imagerel $LN9+445
	DD	imagerel $unwind$z900_vfetchc
pdata	ENDS
;	COMDAT pdata
pdata	SEGMENT
$pdata$z900_validate_operand DD imagerel $LN8
	DD	imagerel $LN8+195
	DD	imagerel $unwind$z900_validate_operand
pdata	ENDS
pdata	SEGMENT
$pdata$z900_kimd_sha DD imagerel z900_kimd_sha
	DD	imagerel z900_kimd_sha+2282
	DD	imagerel $unwind$z900_kimd_sha
$pdata$z900_kimd_ghash DD imagerel z900_kimd_ghash
	DD	imagerel z900_kimd_ghash+1871
	DD	imagerel $unwind$z900_kimd_ghash
$pdata$z900_klmd_sha DD imagerel z900_klmd_sha
	DD	imagerel z900_klmd_sha+2701
	DD	imagerel $unwind$z900_klmd_sha
$pdata$z900_km_dea DD imagerel z900_km_dea
	DD	imagerel z900_km_dea+2566
	DD	imagerel $unwind$z900_km_dea
$pdata$z900_km_aes DD imagerel z900_km_aes
	DD	imagerel z900_km_aes+2331
	DD	imagerel $unwind$z900_km_aes
$pdata$z900_km_xts_aes DD imagerel z900_km_xts_aes
	DD	imagerel z900_km_xts_aes+2856
	DD	imagerel $unwind$z900_km_xts_aes
$pdata$z900_kmac_dea DD imagerel z900_kmac_dea
	DD	imagerel z900_kmac_dea+2539
	DD	imagerel $unwind$z900_kmac_dea
$pdata$z900_kmac_aes DD imagerel z900_kmac_aes
	DD	imagerel z900_kmac_aes+2119
	DD	imagerel $unwind$z900_kmac_aes
$pdata$z900_kmc_dea DD imagerel z900_kmc_dea
	DD	imagerel z900_kmc_dea+3835
	DD	imagerel $unwind$z900_kmc_dea
$pdata$z900_kmc_aes DD imagerel z900_kmc_aes
	DD	imagerel z900_kmc_aes+2909
	DD	imagerel $unwind$z900_kmc_aes
$pdata$z900_kmc_prng DD imagerel z900_kmc_prng
	DD	imagerel z900_kmc_prng+2818
	DD	imagerel $unwind$z900_kmc_prng
$pdata$z900_kmctr_dea DD imagerel z900_kmctr_dea
	DD	imagerel z900_kmctr_dea+3282
	DD	imagerel $unwind$z900_kmctr_dea
$pdata$z900_kmctr_aes DD imagerel z900_kmctr_aes
	DD	imagerel z900_kmctr_aes+2876
	DD	imagerel $unwind$z900_kmctr_aes
$pdata$z900_kmf_dea DD imagerel z900_kmf_dea
	DD	imagerel z900_kmf_dea+3486
	DD	imagerel $unwind$z900_kmf_dea
$pdata$z900_kmf_aes DD imagerel z900_kmf_aes
	DD	imagerel z900_kmf_aes+3058
	DD	imagerel $unwind$z900_kmf_aes
$pdata$z900_kmo_dea DD imagerel z900_kmo_dea
	DD	imagerel z900_kmo_dea+3059
	DD	imagerel $unwind$z900_kmo_dea
$pdata$z900_kmo_aes DD imagerel z900_kmo_aes
	DD	imagerel z900_kmo_aes+2639
	DD	imagerel $unwind$z900_kmo_aes
$pdata$z900_pcc_cmac_dea DD imagerel z900_pcc_cmac_dea
	DD	imagerel z900_pcc_cmac_dea+2817
	DD	imagerel $unwind$z900_pcc_cmac_dea
$pdata$z900_pcc_cmac_aes DD imagerel z900_pcc_cmac_aes
	DD	imagerel z900_pcc_cmac_aes+2101
	DD	imagerel $unwind$z900_pcc_cmac_aes
$pdata$z900_pcc_xts_aes DD imagerel z900_pcc_xts_aes
	DD	imagerel z900_pcc_xts_aes+1555
	DD	imagerel $unwind$z900_pcc_xts_aes
$pdata$z900_pckmo_dea DD imagerel z900_pckmo_dea
	DD	imagerel z900_pckmo_dea+565
	DD	imagerel $unwind$z900_pckmo_dea
$pdata$z900_pckmo_aes DD imagerel z900_pckmo_aes
	DD	imagerel z900_pckmo_aes+569
	DD	imagerel $unwind$z900_pckmo_aes
$pdata$z900_dyn_compute_intermediate_message_digest DD imagerel $LN33
	DD	imagerel $LN33+1357
	DD	imagerel $unwind$z900_dyn_compute_intermediate_message_digest
$pdata$z900_dyn_compute_last_message_digest DD imagerel $LN38
	DD	imagerel $LN38+1589
	DD	imagerel $unwind$z900_dyn_compute_last_message_digest
$pdata$z900_dyn_cipher_message DD imagerel $LN55
	DD	imagerel $LN55+1841
	DD	imagerel $unwind$z900_dyn_cipher_message
$pdata$z900_dyn_compute_message_authentication_code DD imagerel $LN40
	DD	imagerel $LN40+1388
	DD	imagerel $unwind$z900_dyn_compute_message_authentication_code
$pdata$z900_dyn_cipher_message_with_chaining DD imagerel $LN52
	DD	imagerel $LN52+1836
	DD	imagerel $unwind$z900_dyn_cipher_message_with_chaining
$pdata$z900_dyn_cipher_message_with_counter DD imagerel $LN36
	DD	imagerel $LN36+1412
	DD	imagerel $unwind$z900_dyn_cipher_message_with_counter
$pdata$z900_dyn_cipher_message_with_cipher_feedback DD imagerel $LN44
	DD	imagerel $LN44+1628
	DD	imagerel $unwind$z900_dyn_cipher_message_with_cipher_feedback
$pdata$z900_dyn_cipher_message_with_output_feedback DD imagerel $LN44
	DD	imagerel $LN44+1628
	DD	imagerel $unwind$z900_dyn_cipher_message_with_output_feedback
$pdata$z900_dyn_perform_cryptographic_computation DD imagerel $LN37
	DD	imagerel $LN37+557
	DD	imagerel $unwind$z900_dyn_perform_cryptographic_computation
$pdata$z900_dyn_perform_cryptographic_key_management_operation DD imagerel $LN39
	DD	imagerel $LN39+1424
	DD	imagerel $unwind$z900_dyn_perform_cryptographic_key_management_operation
$pdata$hdl_check_depends_ep DD imagerel $LN15
	DD	imagerel $LN15+152
	DD	imagerel $unwind$hdl_check_depends_ep
$pdata$hdl_define_instructs_ep DD imagerel $LN153
	DD	imagerel $LN153+1304
	DD	imagerel $unwind$hdl_define_instructs_ep
$pdata$hdl_register_symbols_ep DD imagerel $LN6
	DD	imagerel $LN6+281
	DD	imagerel $unwind$hdl_register_symbols_ep
pdata	ENDS
_DATA	SEGMENT
exp_table DB	0a4H
	DB	06dH
	DB	0dbH
	DB	0b6H
	DB	06dH
	DB	0dbH
	DB	0b6H
	DB	06dH
	DB	092H
	DB	024H
	DB	049H
	DB	092H
	DB	024H
	DB	049H
	DB	092H
	DB	024H
	DB	05aH
	DB	045H
	DB	051H
	DB	014H
	DB	08aH
	DB	0a2H
	DB	028H
	DB	08aH
	DB	061H
	DB	018H
	DB	086H
	DB	061H
	DB	09aH
	DB	0a6H
	DB	069H
	DB	09aH
	DB	0acH
	DB	0b6H
	DB	0f3H
	DB	03cH
	DB	045H
	DB	051H
	DB	0d7H
	DB	075H
	DB	0dbH
	DB	0b6H
	DB	0aeH
	DB	0ebH
	DB	0fbH
	DB	0beH
	DB	0aeH
	DB	0ebH
	DB	092H
	DB	0cfH
	DB	0b6H
	DB	0e7H
	DB	028H
	DB	00H
	DB	049H
	DB	0dbH
	DB	075H
	DB	09eH
	DB	024H
	DB	08H
	DB	0c3H
	DB	071H
	DB	01cH
	DB	0c7H
	DB	098H
	DB	029H
	DB	0b7H
	DB	052H
	DB	03eH
	DB	0d5H
	DB	0acH
	DB	0ebH
	DB	0eaH
	DB	08aH
	DB	092H
	DB	086H
	DB	030H
	DB	04dH
	DB	0d3H
	DB	034H
	DB	0a5H
	DB	075H
	DB	01aH
	DB	0b6H
	DB	081H
	DB	07aH
	DB	063H
	DB	018H
	DB	061H
	DB	06eH
	DB	0a4H
	DB	0e3H
	DB	078H
	DB	0caH
	DB	0b2H
	DB	02cH
	DB	06H
	DB	04fH
	DB	09H
	DB	028H
	DB	0eH
	DB	0bbH
	DB	06H
	DB	086H
	DB	041H
	DB	019H
	DB	0b8H
	DB	020H
	DB	09dH
	DB	018H
	DB	086H
	DB	061H
	DB	0b9H
	DB	017H
	DB	0afH
	DB	07fH
	DB	0e2H
	DB	0abH
	DB	024H
	DB	08aH
	DB	0f9H
	DB	0dH
	DB	0abH
	DB	034H
	DB	069H
	DB	065H
	DB	021H
	DB	08H
	DB	0c5H
	DB	08cH
	DB	03cH
	DB	03eH
	DB	05fH
	DB	0a3H
	DB	015H
	DB	060H
	DB	0b5H
	DB	02aH
	DB	01cH
	DB	014H
	DB	0deH
	DB	041H
	DB	064H
	DB	0dfH
	DB	06cH
	DB	077H
	DB	082H
	DB	02aH
	DB	0ceH
	DB	066H
	DB	02bH
	DB	0abH
	DB	033H
	DB	0fH
	DB	08bH
	DB	064H
	DB	047H
	DB	00H
	DB	093H
	DB	030H
	DB	0acH
	DB	013H
	DB	06fH
	DB	036H
	DB	052H
	DB	0fH
	DB	0bdH
	DB	0ebH
	DB	0bH
	DB	0f1H
	DB	0bcH
	DB	0e2H
	DB	022H
	DB	09aH
	DB	06dH
	DB	09aH
	DB	09dH
	DB	077H
	DB	037H
	DB	05H
	DB	091H
	DB	0afH
	DB	0a7H
	DB	077H
	DB	06eH
	DB	0f4H
	DB	06H
	DB	08eH
	DB	03fH
	DB	0e7H
	DB	0a2H
	DB	0ebH
	DB	068H
	DB	0edH
	DB	0cbH
	DB	05aH
	DB	0c6H
	DB	0a9H
	DB	02bH
	DB	02H
	DB	067H
	DB	0b6H
	DB	055H
	DB	067H
	DB	0e4H
	DB	086H
	DB	08bH
	DB	071H
	DB	0c1H
	DB	0acH
	DB	0e2H
	DB	06H
	DB	02cH
	DB	014H
	DB	0c3H
	DB	012H
	DB	0e0H
	DB	0dcH
	DB	057H
	DB	0fdH
	DB	0c2H
	DB	066H
	DB	0a7H
	DB	0beH
	DB	052H
	DB	0f7H
	DB	0eH
	DB	021H
	DB	067H
	DB	069H
	DB	0b6H
	DB	09cH
	DB	01eH
	DB	0b5H
	DB	0dbH
	DB	027H
	DB	085H
	DB	08dH
	DB	0f5H
	DB	0aaH
	DB	0d5H
	DB	064H
	DB	057H
	DB	05fH
	DB	05bH
	DB	0f8H
	DB	0bdH
	DB	046H
	DB	0c2H
	DB	02dH
	DB	044H
	DB	017H
	DB	01bH
	DB	043H
	DB	07aH
	DB	0c7H
	DB	0caH
	DB	0f4H
	DB	080H
	DB	0ceH
	DB	040H
	DB	011H
	DB	093H
	DB	08dH
	DB	08H
	DB	0f9H
	DB	0c4H
	DB	0d8H
	DB	0d7H
	DB	026H
	DB	02H
	DB	0efH
	DB	062H
	DB	045H
	DB	0eeH
	DB	0bbH
	DB	02bH
	DB	044H
	DB	031H
	DB	0fbH
	DB	088H
	DB	05cH
	DB	092H
	DB	085H
	DB	056H
	DB	07aH
	DB	0aH
	DB	039H
	DB	0fH
	DB	07eH
	DB	0a0H
	DB	029H
	DB	058H
	DB	0daH
	DB	0b3H
	DB	046H
	DB	06dH
	DB	01cH
	DB	0ffH
	DB	0abH
	DB	097H
	DB	0a5H
	DB	0d4H
	DB	0dH
	DB	01dH
	DB	069H
	DB	0f1H
	DB	07aH
	DB	067H
	DB	056H
	DB	0afH
	DB	0ebH
	DB	09dH
	DB	028H
	DB	0ebH
	DB	04aH
	DB	04H
	DB	0c7H
	DB	077H
	DB	0b3H
	DB	00H
	DB	04H
	DB	05aH
	DB	0b7H
	DB	0c9H
	DB	036H
	DB	0efH
	DB	0c3H
	DB	09fH
	DB	0b8H
	DB	090H
	DB	0e3H
	DB	045H
	DB	095H
	DB	034H
	DB	074H
	DB	0a3H
	DB	057H
	DB	077H
	DB	072H
	DB	064H
	DB	0bcH
	DB	0fbH
	DB	027H
	DB	0b6H
	DB	0e6H
	DB	0f5H
	DB	058H
	DB	0e1H
	DB	0e7H
	DB	07fH
	DB	0bfH
	DB	053H
	DB	0beH
	DB	0fdH
	DB	0f9H
	DB	08fH
	DB	01bH
	DB	04bH
	DB	058H
	DB	0b5H
	DB	0d0H
	DB	072H
	DB	0bcH
	DB	018H
	DB	04cH
	DB	0aeH
	DB	0e2H
	DB	026H
	DB	026H
	DB	080H
	DB	072H
	DB	09eH
	DB	020H
	DB	0a9H
	DB	0abH
	DB	039H
	DB	057H
	DB	0b1H
	DB	096H
	DB	0c8H
	DB	03bH
	DB	0fbH
	DB	018H
	DB	098H
	DB	0deH
	DB	073H
	DB	058H
	DB	044H
	DB	08cH
	DB	090H
	DB	042H
	DB	0bdH
	DB	0f5H
	DB	02cH
	DB	0c7H
	DB	090H
	DB	058H
	DB	0b8H
	DB	0faH
	DB	0d8H
	DB	0c1H
	DB	0caH
	DB	05aH
	DB	03H
	DB	0eeH
	DB	0a7H
	DB	08dH
	DB	031H
	DB	04H
	DB	0a0H
	DB	0b5H
	DB	053H
	DB	034H
	DB	021H
	DB	0c7H
	DB	0f1H
	DB	0adH
	DB	031H
	DB	0d1H
	DB	0ffH
	DB	032H
	DB	0adH
	DB	05bH
	DB	0ecH
	DB	0dcH
	DB	08fH
	DB	0a1H
	DB	049H
	DB	03eH
	DB	040H
	DB	0a6H
	DB	055H
	DB	039H
	DB	050H
	DB	01H
	DB	0beH
	DB	03dH
	DB	0cfH
	DB	0b5H
	DB	0e1H
	DB	05bH
	DB	0f5H
	DB	0b1H
	DB	033H
	DB	01aH
	DB	062H
	DB	08bH
	DB	07cH
	DB	0c7H
	DB	0b9H
	DB	038H
	DB	066H
	DB	0c6H
	DB	04fH
	DB	0ffH
	DB	0d6H
	DB	0b6H
	DB	0baH
	DB	03eH
	DB	095H
	DB	088H
	DB	0f9H
	DB	0a2H
	DB	054H
	DB	051H
	DB	02dH
	DB	06bH
	DB	0f0H
	DB	0c0H
	DB	052H
	DB	024H
	DB	0a6H
	DB	0f3H
	DB	082H
	DB	08fH
	DB	075H
	DB	09cH
	DB	0ccH
	DB	018H
	DB	0a1H
	DB	082H
	DB	0b8H
	DB	037H
	DB	04dH
	DB	0eH
	DB	0e3H
	DB	029H
	DB	0dbH
	DB	0f0H
	DB	013H
	DB	09H
	DB	075H
	DB	0eaH
	DB	07bH
	DB	021H
	DB	07bH
	DB	0ddH
	DB	020H
	DB	0d6H
	DB	08eH
	DB	075H
	DB	0a8H
	DB	0dcH
	DB	0caH
	DB	098H
	DB	06H
	DB	045H
	DB	0c1H
	DB	0dfH
	DB	0e2H
	DB	040H
	DB	09dH
	DB	067H
	DB	0eaH
	DB	02H
	DB	0abH
	DB	0dfH
	DB	0aaH
	DB	03cH
	DB	032H
	DB	07dH
	DB	08H
	DB	05eH
	DB	0a1H
	DB	024H
	DB	031H
	DB	06cH
	DB	055H
	DB	0cH
	DB	078H
	DB	074H
	DB	0e3H
	DB	086H
	DB	08eH
	DB	04H
	DB	067H
	DB	0fcH
	DB	078H
	DB	0cH
	DB	0dH
	DB	022H
	DB	065H
	DB	09fH
	DB	0b3H
	DB	040H
	DB	01bH
	DB	097H
	DB	011H
	DB	020H
	DB	0c5H
	DB	0f1H
	DB	04dH
	DB	064H
	DB	0eeH
	DB	06cH
	DB	056H
	DB	04H
	DB	042H
	DB	086H
	DB	097H
	DB	0f3H
	DB	0a8H
	DB	02eH
	DB	06bH
	DB	065H
	DB	043H
	DB	018H
	DB	025H
	DB	082H
	DB	064H
	DB	053H
	DB	040H
	DB	045H
	DB	0dbH
	DB	0efH
	DB	05bH
	DB	05fH
	DB	0a3H
	DB	0f2H
	DB	032H
	DB	06H
	DB	0eH
	DB	0f5H
	DB	08aH
	DB	02aH
	DB	0f6H
	DB	096H
	DB	010H
	DB	0b4H
	DB	06dH
	DB	038H
	DB	0c3H
	DB	085H
	DB	0f8H
	DB	069H
	DB	0c8H
	DB	087H
	DB	092H
	DB	087H
	DB	0ddH
	DB	0c3H
	DB	04bH
	DB	089H
	DB	047H
	DB	0a7H
	DB	0adH
	DB	0bbH
	DB	044H
	DB	0e5H
	DB	0bdH
	DB	06aH
	DB	01aH
	DB	0f9H
	DB	0a6H
	DB	0acH
	DB	037H
	DB	0d7H
	DB	07cH
	DB	0caH
	DB	07cH
	DB	0a0H
	DB	074H
	DB	055H
	DB	06H
	DB	023H
	DB	0f4H
	DB	06dH
	DB	0abH
	DB	0dfH
	DB	04fH
	DB	049H
	DB	0adH
	DB	063H
	DB	0e0H
	DB	03aH
	DB	034H
	DB	0cfH
	DB	0c0H
	DB	092H
	DB	038H
	DB	0aaH
	DB	078H
	DB	0fbH
	DB	03aH
	DB	081H
	DB	03cH
	DB	0cdH
	DB	0f4H
	DB	0f3H
	DB	078H
	DB	020H
	DB	067H
	DB	047H
	DB	086H
	DB	07cH
	DB	031H
	DB	096H
	DB	04eH
	DB	057H
	DB	02cH
	DB	0a0H
	DB	0d1H
	DB	09aH
	DB	01dH
	DB	0c6H
	DB	0c9H
	DB	0a0H
	DB	051H
	DB	064H
	DB	026H
	DB	028H
	DB	03bH
	DB	027H
	DB	02eH
	DB	0c5H
	DB	04cH
	DB	091H
	DB	00H
	DB	078H
	DB	0efH
	DB	0b4H
	DB	01bH
	DB	078H
	DB	059H
	DB	088H
	DB	064H
	DB	0d6H
	DB	0baH
	DB	05eH
	DB	0daH
	DB	0dH
	DB	044H
	DB	08H
	DB	0edH
	DB	00H
	DB	099H
	DB	05bH
	DB	080H
	DB	044H
	DB	0e5H
	DB	044H
	DB	0a0H
	DB	059H
	DB	0edH
	DB	0e9H
	DB	0dcH
	DB	0bfH
	DB	06H
	DB	0ceH
	DB	0c4H
	DB	0dfH
	DB	07H
	DB	0b3H
	DB	04dH
	DB	06cH
	DB	0b1H
	DB	025H
	DB	025H
	DB	05H
	DB	045H
	DB	0edH
	DB	044H
	DB	0c4H
	DB	078H
	DB	0bdH
	DB	041H
	DB	084H
	DB	073H
	DB	071H
	DB	0a2H
	DB	015H
	DB	019H
	DB	0f2H
	DB	0d3H
	DB	092H
	DB	099H
	DB	0f1H
	DB	05dH
	DB	0a9H
	DB	0c7H
	DB	01fH
	DB	058H
	DB	013H
	DB	03bH
	DB	0c9H
	DB	0e0H
	DB	07fH
	DB	0f6H
	DB	0daH
	DB	074H
	DB	0caH
	DB	07aH
	DB	0e4H
	DB	01eH
	DB	081H
	DB	0c2H
	DB	087H
	DB	02aH
	DB	04H
	DB	077H
	DB	0a9H
	DB	0dcH
	DB	0b4H
	DB	032H
	DB	0d5H
	DB	0a3H
	DB	079H
	DB	06eH
	DB	096H
	DB	066H
	DB	0faH
	DB	03eH
	DB	040H
	DB	0c3H
	DB	01eH
	DB	089H
	DB	07fH
	DB	0caH
	DB	049H
	DB	01fH
	DB	01aH
	DB	0edH
	DB	0baH
	DB	0d8H
	DB	05bH
	DB	0eaH
	DB	061H
	DB	08fH
	DB	096H
	DB	0faH
	DB	0b4H
	DB	059H
	DB	08fH
	DB	0dbH
	DB	07H
	DB	02aH
	DB	0faH
	DB	094H
	DB	0aaH
	DB	062H
	DB	0ecH
	DB	03dH
	DB	02eH
	DB	00H
	DB	038H
	DB	051H
	DB	023H
	DB	06aH
	DB	02cH
	DB	0caH
	DB	0c1H
	DB	014H
	DB	03H
	DB	08fH
	DB	01cH
	DB	03dH
	DB	05bH
	DB	03bH
	DB	0b6H
	DB	0e4H
	DB	01bH
	DB	0cbH
	DB	00H
	DB	056H
	DB	0d4H
	DB	0d6H
	DB	066H
	DB	044H
	DB	081H
	DB	0b4H
	DB	0deH
	DB	023H
	DB	022H
	DB	0e5H
	DB	0d1H
	DB	03H
	DB	06bH
	DB	02cH
	DB	02H
	DB	0b0H
	DB	0c2H
	DB	06aH
	DB	048H
	DB	05bH
	DB	043H
	DB	012H
	DB	05cH
	DB	0bbH
	DB	059H
	DB	037H
	DB	05H
	DB	00H
	DB	084H
	DB	040H
	DB	0e9H
	DB	0bdH
	DB	081H
	DB	09dH
	DB	02H
	DB	07cH
	DB	04H
	DB	04bH
	DB	0fbH
	DB	06eH
	DB	036H
	DB	0a0H
	DB	0d5H
	DB	04eH
	DB	02H
	DB	0f4H
	DB	092H
	DB	04cH
	DB	0ffH
	DB	07fH
	DB	03bH
	DB	037H
	DB	03H
	DB	0b6H
	DB	0c6H
	DB	019H
	DB	0c4H
	DB	0d7H
	DB	07cH
	DB	0dcH
	DB	04eH
	DB	010H
	DB	0f9H
	DB	0f4H
	DB	013H
	DB	04bH
	DB	0eeH
	DB	01dH
	DB	0fH
	DB	0fdH
	DB	0caH
	DB	0ecH
	DB	097H
	DB	0cbH
	DB	02fH
	DB	0ecH
	DB	039H
	DB	03cH
	DB	0ddH
	DB	0c9H
	DB	0d7H
	DB	0dcH
	DB	056H
	DB	06eH
	DB	070H
	DB	0f9H
	DB	031H
	DB	035H
	DB	09cH
	DB	095H
	DB	07aH
	DB	0caH
	DB	030H
	DB	0bdH
	DB	044H
	DB	0eeH
	DB	09cH
	DB	0baH
	DB	07bH
	DB	011H
	DB	04aH
	DB	02dH
	DB	0f7H
	DB	06aH
	DB	0fH
	DB	08bH
	DB	013H
	DB	03eH
	DB	0c6H
	DB	055H
	DB	06fH
	DB	0e9H
	DB	047H
	DB	041H
	DB	06cH
	DB	0ccH
	DB	0f1H
	DB	04fH
	DB	074H
	DB	06aH
	DB	054H
	DB	097H
	DB	0afH
	DB	0bH
	DB	064H
	DB	042H
	DB	02bH
	DB	0f9H
	DB	0fcH
	DB	010H
	DB	0f0H
	DB	091H
	DB	044H
	DB	088H
	DB	0bfH
	DB	094H
	DB	0a4H
	DB	061H
	DB	065H
	DB	014H
	DB	032H
	DB	0cbH
	DB	055H
	DB	0ffH
	DB	08eH
	DB	0bfH
	DB	0d4H
	DB	0a8H
	DB	0adH
	DB	025H
	DB	0e3H
	DB	0bcH
	DB	0a3H
	DB	036H
	DB	097H
	DB	07dH
	DB	065H
	DB	07fH
	DB	0d4H
	DB	053H
	DB	0f6H
	DB	02fH
	DB	0daH
	DB	031H
	DB	07eH
	DB	0c5H
	DB	0c2H
	DB	065H
	DB	02aH
	DB	07eH
	DB	0d8H
	DB	0c6H
	DB	092H
	DB	042H
	DB	0eH
	DB	0c3H
	DB	0cbH
	DB	040H
	DB	0edH
	DB	0e6H
	DB	030H
	DB	09dH
	DB	07cH
	DB	0f6H
	DB	099H
	DB	0a2H
	DB	095H
	DB	0a7H
	DB	098H
	DB	0e5H
	DB	044H
	DB	0b9H
	DB	032H
	DB	058H
	DB	06bH
	DB	0eaH
	DB	01fH
	DB	065H
	DB	061H
	DB	0acH
	DB	0f2H
	DB	0a1H
	DB	0a9H
	DB	037H
	DB	0e1H
	DB	0aaH
	DB	081H
	DB	085H
	DB	081H
	DB	0a1H
	DB	01H
	DB	02eH
	DB	02bH
	DB	04eH
	DB	0f6H
	DB	04fH
	DB	0e8H
	DB	0d6H
	DB	092H
	DB	026H
	DB	0a5H
	DB	06eH
	DB	0acH
	DB	075H
	DB	057H
	DB	03fH
	DB	07eH
	DB	013H
	DB	06cH
	DB	0d4H
	DB	03dH
	DB	03aH
	DB	0cbH
	DB	0a8H
	DB	066H
	DB	0f8H
	DB	0f6H
	DB	0deH
	DB	0ddH
	DB	056H
	DB	083H
	DB	089H
	DB	03bH
	DB	0fdH
	DB	0f0H
	DB	0d6H
	DB	09eH
	DB	044H
	DB	064H
	DB	0a8H
	DB	070H
	DB	098H
	DB	042H
	DB	08dH
	DB	0e6H
	DB	0a2H
	DB	043H
	DB	03cH
	DB	07aH
	DB	082H
	DB	0eH
	DB	03eH
	DB	078H
	DB	096H
	DB	0d9H
	DB	05aH
	DB	08bH
	DB	04fH
	DB	0baH
	DB	028H
	DB	067H
	DB	02dH
	DB	0f7H
	DB	0b5H
	DB	0e7H
	DB	04aH
	DB	0d4H
	DB	07H
	DB	09fH
	DB	035H
	DB	097H
	DB	0dbH
	DB	077H
	DB	06fH
	DB	09eH
	DB	05H
	DB	04eH
	DB	0a1H
	DB	086H
	DB	08fH
	DB	042H
	DB	074H
	DB	0e7H
	DB	0a4H
	DB	014H
	DB	0a8H
	DB	055H
	DB	057H
	DB	073H
	DB	013H
	DB	086H
	DB	022H
	DB	0bbH
	DB	082H
	DB	067H
	DB	014H
	DB	0b0H
	DB	011H
	DB	03H
	DB	074H
	DB	0b7H
	DB	073H
	DB	019H
	DB	078H
	DB	0acH
	DB	075H
	DB	0b0H
	DB	013H
	DB	0e2H
	DB	093H
	DB	0bdH
	DB	034H
	DB	054H
	DB	043H
	DB	052H
	DB	02H
	DB	074H
	DB	0f7H
	DB	060H
	DB	0b8H
	DB	018H
	DB	03bH
	DB	051H
	DB	0cfH
	DB	0fbH
	DB	04dH
	DB	0c4H
	DB	052H
	DB	08bH
	DB	0c5H
	DB	092H
	DB	0fdH
	DB	0f6H
	DB	05fH
	DB	090H
	DB	062H
	DB	093H
	DB	046H
	DB	021H
	DB	0a3H
	DB	0abH
	DB	0beH
	DB	0b3H
	DB	092H
	DB	0c7H
	DB	0a4H
	DB	014H
	DB	058H
	DB	03cH
	DB	023H
	DB	04H
	DB	0daH
	DB	058H
	DB	0a4H
	DB	031H
	DB	0bbH
	DB	0ccH
	DB	036H
	DB	034H
	DB	040H
	DB	0c7H
	DB	051H
	DB	083H
	DB	048H
	DB	060H
	DB	096H
	DB	074H
	DB	04bH
	DB	09cH
	DB	011H
	DB	053H
	DB	09bH
	DB	093H
	DB	06dH
	DB	068H
	DB	0f7H
	DB	0e8H
	DB	0d2H
	DB	0a6H
	DB	07dH
	DB	09H
	DB	0dbH
	DB	0e4H
	DB	08H
	DB	066H
	DB	0f1H
	DB	01bH
	DB	0b2H
	DB	0c8H
	DB	0f7H
	DB	084H
	DB	0b4H
	DB	0eeH
	DB	029H
	DB	08cH
	DB	075H
	DB	04dH
	DB	0a6H
	DB	066H
	DB	08fH
	DB	0bdH
	DB	0c0H
	DB	034H
	DB	076H
	DB	068H
	DB	0e5H
	DB	0bdH
	DB	0b1H
	DB	0e8H
	DB	05aH
	DB	08eH
	DB	032H
	DB	04dH
	DB	0c0H
	DB	0e6H
	DB	01dH
	DB	042H
	DB	059H
	DB	011H
	DB	07cH
	DB	0b8H
	DB	0f5H
	DB	08cH
	DB	02cH
	DB	044H
	DB	01eH
	DB	08cH
	DB	0cfH
	DB	0fbH
	DB	0fdH
	DB	081H
	DB	0ebH
	DB	0d9H
	DB	016H
	DB	078H
	DB	01dH
	DB	0feH
	DB	018H
	DB	02H
	DB	092H
	DB	072H
	DB	017H
	DB	0b6H
	DB	016H
	DB	0e3H
	DB	01eH
	DB	03bH
	DB	0bH
	DB	077H
	DB	06fH
	DB	06cH
	DB	021H
	DB	066H
	DB	0c8H
	DB	0a1H
	DB	044H
	DB	070H
	DB	0d9H
	DB	067H
	DB	0c2H
	DB	0afH
	DB	0aaH
	DB	05aH
	DB	067H
	DB	0bH
	DB	05bH
	DB	0d1H
	DB	0a3H
	DB	0abH
	DB	046H
	DB	099H
	DB	0bbH
	DB	099H
	DB	03eH
	DB	09H
	DB	0aH
	DB	071H
	DB	048H
	DB	011H
	DB	030H
	DB	058H
	DB	0baH
	DB	0daH
	DB	01aH
	DB	07dH
	DB	06aH
	DB	06H
	DB	05bH
	DB	0c7H
	DB	05fH
	DB	085H
	DB	0fbH
	DB	064H
	DB	0ecH
	DB	07eH
	DB	020H
	DB	08fH
	DB	042H
	DB	03bH
	DB	0bfH
	DB	0d9H
	DB	049H
	DB	096H
	DB	0a3H
	DB	0d6H
	DB	0d9H
	DB	07dH
	DB	080H
	DB	0d3H
	DB	085H
	DB	0cH
	DB	093H
	DB	058H
	DB	082H
	DB	08H
	DB	085H
	DB	0e3H
	DB	0eH
	DB	014H
	DB	0b9H
	DB	07aH
	DB	059H
	DB	0a7H
	DB	0d7H
	DB	0eeH
	DB	099H
	DB	010H
	DB	0d5H
	DB	0dH
	DB	062H
	DB	0d7H
	DB	07bH
	DB	0e7H
	DB	0b3H
	DB	04cH
	DB	0b3H
	DB	075H
	DB	00H
	DB	0eH
	DB	0c2H
	DB	0c7H
	DB	0a8H
	DB	0eaH
	DB	0c9H
	DB	04cH
	DB	01cH
	DB	037H
	DB	046H
	DB	050H
	DB	06cH
	DB	0b3H
	DB	010H
	DB	0afH
	DB	068H
	DB	0beH
	DB	0ddH
	DB	0a7H
	DB	012H
	DB	0caH
	DB	06bH
	DB	011H
	DB	0c6H
	DB	0c9H
	DB	094H
	DB	017H
	DB	08eH
	DB	0deH
	DB	0f4H
	DB	0b6H
	DB	08bH
	DB	054H
	DB	054H
	DB	018H
	DB	0dH
	DB	0eeH
	DB	014H
	DB	073H
	DB	07H
	DB	09cH
	DB	0e2H
	DB	02eH
	DB	0a2H
	DB	092H
	DB	085H
	DB	0fcH
	DB	05cH
	DB	0aeH
	DB	0feH
	DB	0dfH
	DB	0f8H
	DB	0a6H
	DB	083H
	DB	0e1H
	DB	0a9H
	DB	0adH
	DB	0d3H
	DB	0c1H
	DB	0e2H
	DB	02fH
	DB	0a0H
	DB	0b8H
	DB	058H
	DB	03aH
	DB	0abH
	DB	0eaH
	DB	0deH
	DB	064H
	DB	0a5H
	DB	073H
	DB	0f1H
	DB	062H
	DB	0eaH
	DB	0a5H
	DB	0aeH
	DB	0acH
	DB	073H
	DB	05aH
	DB	047H
	DB	01eH
	DB	062H
	DB	01cH
	DB	0a4H
	DB	017H
	DB	0ffH
	DB	07aH
	DB	00H
	DB	0aaH
	DB	0bbH
	DB	09H
	DB	08H
	DB	0bcH
	DB	0d1H
	DB	0c1H
	DB	0e1H
	DB	022H
	DB	0b0H
	DB	020H
	DB	074H
	DB	0ddH
	DB	090H
	DB	0c1H
	DB	040H
	DB	0c5H
	DB	016H
	DB	070H
	DB	027H
	DB	0eH
	DB	070H
	DB	04cH
	DB	0e0H
	DB	037H
	DB	0f5H
	DB	0d3H
	DB	070H
	DB	07aH
	DB	08eH
	DB	0ddH
	DB	044H
	DB	07bH
	DB	0aH
	DB	080H
	DB	05fH
	DB	05aH
	DB	012H
	DB	09H
	DB	0ddH
	DB	0b2H
	DB	0d1H
	DB	0caH
	DB	0b2H
	DB	0a7H
	DB	011H
	DB	05bH
	DB	0a9H
	DB	074H
	DB	0aH
	DB	0deH
	DB	0fH
	DB	033H
	DB	0b9H
	DB	036H
	DB	022H
	DB	020H
	DB	0c3H
	DB	0ceH
	DB	02aH
	DB	05H
	DB	095H
	DB	06H
	DB	0f8H
	DB	07aH
	DB	077H
	DB	021H
	DB	018H
	DB	0b0H
	DB	0d3H
	DB	05dH
	DB	099H
	DB	0aH
	DB	02dH
	DB	078H
	DB	0b0H
	DB	022H
	DB	0deH
	DB	068H
	DB	069H
	DB	09eH
	DB	060H
	DB	062H
	DB	092H
	DB	0fcH
	DB	0f1H
	DB	0d2H
	DB	0e4H
	DB	0deH
	DB	0dcH
	DB	060H
	DB	0c2H
	DB	0f6H
	DB	038H
	DB	04fH
	DB	071H
	DB	024H
	DB	0b8H
	DB	0fbH
	DB	067H
	DB	028H
	DB	0cfH
	DB	042H
	DB	073H
	DB	0a7H
	DB	031H
	DB	0d3H
	DB	019H
	DB	0d3H
	DB	05aH
	DB	09dH
	DB	0c7H
	DB	038H
	DB	017H
	DB	089H
	DB	08aH
	DB	022H
	DB	02dH
	DB	0c7H
	DB	0bbH
	DB	06eH
	DB	0e6H
	DB	0cbH
	DB	053H
	DB	09cH
	DB	05eH
	DB	02cH
	DB	0c5H
	DB	0efH
	DB	0b7H
	DB	0a5H
	DB	082H
	DB	05fH
	DB	0f3H
	DB	016H
	DB	043H
	DB	034H
	DB	0eH
	DB	015H
	DB	029H
	DB	038H
	DB	0f3H
	DB	0c3H
	DB	095H
	DB	069H
	DB	072H
	DB	01fH
	DB	032H
	DB	0f2H
	DB	0c7H
	DB	053H
	DB	023H
	DB	0fcH
	DB	0f6H
	DB	024H
	DB	044H
	DB	0c2H
	DB	034H
	DB	076H
	DB	083H
	DB	0b3H
	DB	0adH
	DB	05aH
	DB	0dH
	DB	035H
	DB	061H
	DB	06H
	DB	03dH
	DB	0d8H
	DB	03bH
	DB	02cH
	DB	039H
	DB	04cH
	DB	0cfH
	DB	07cH
	DB	068H
	DB	0f5H
	DB	04bH
	DB	0e9H
	DB	0a6H
	DB	099H
	DB	075H
	DB	095H
	DB	0f6H
	DB	04bH
	DB	084H
	DB	0bbH
	DB	01dH
	DB	048H
	DB	0fH
	DB	062H
	DB	06bH
	DB	093H
	DB	097H
	DB	01aH
	DB	04dH
	DB	061H
	DB	0adH
	DB	056H
	DB	017H
	DB	0a4H
	DB	0f8H
	DB	0c7H
	DB	0adH
	DB	045H
	DB	0deH
	DB	0f9H
	DB	080H
	DB	051H
	DB	0d1H
	DB	038H
	DB	0dfH
	DB	0bdH
	DB	082H
	DB	095H
	DB	0f6H
	DB	091H
	DB	0adH
	DB	083H
	DB	04dH
	DB	026H
	DB	0beH
	DB	0eeH
	DB	087H
	DB	045H
	DB	0b1H
	DB	097H
	DB	093H
	DB	057H
	DB	0daH
	DB	09eH
	DB	057H
	DB	013H
	DB	0a5H
	DB	083H
	DB	0edH
	DB	059H
	DB	06H
	DB	09cH
	DB	0f0H
	DB	089H
	DB	082H
	DB	021H
	DB	042H
	DB	055H
	DB	093H
	DB	058H
	DB	03H
	DB	0a3H
	DB	0b4H
	DB	011H
	DB	0b9H
	DB	082H
	DB	0feH
	DB	065H
	DB	0f8H
	DB	0a6H
	DB	0e1H
	DB	054H
	DB	0deH
	DB	05fH
	DB	05eH
	DB	0d3H
	DB	0ffH
	DB	0deH
	DB	0afH
	DB	01H
	DB	0b4H
	DB	011H
	DB	0b3H
	DB	030H
	DB	02dH
	DB	035H
	DB	0d0H
	DB	0caH
	DB	058H
	DB	065H
	DB	075H
	DB	0b7H
	DB	04eH
	DB	059H
	DB	015H
	DB	0b7H
	DB	01eH
	DB	0eaH
	DB	04H
	DB	0dfH
	DB	011H
	DB	08eH
	DB	061H
	DB	0eaH
	DB	01H
	DB	065H
	DB	02dH
	DB	031H
	DB	09bH
	DB	050H
	DB	069H
	DB	08bH
	DB	087H
	DB	079H
	DB	018H
	DB	075H
	DB	0c7H
	DB	092H
	DB	0c6H
	DB	093H
	DB	0c6H
	DB	086H
	DB	014H
	DB	054H
	DB	0d2H
	DB	040H
	DB	01H
	DB	086H
	DB	070H
	DB	0efH
	DB	078H
	DB	069H
	DB	019H
	DB	0e6H
	DB	08fH
	DB	011H
	DB	061H
	DB	09H
	DB	011H
	DB	011H
	DB	011H
	DB	00H
	DB	01H
	DB	010H
	DB	040H
	DB	050H
	DB	055H
	DB	050H
	DB	015H
	DB	055H
	DB	05H
	DB	041H
	DB	054H
	DB	044H
	DB	050H
	DB	01H
	DB	04H
	DB	00H
	DB	00H
	DB	00H
	DB	0c8H
	DB	0cfH
	DB	0f7H
	DB	093H
	DB	0aeH
	DB	01cH
	DB	02H
	DB	00H
	DB	00H
	DB	00H
	DB	00H
	DB	00H
	DB	00H
	DB	00H
	DB	00H
	DB	00H
	DB	086H
	DB	00H
	DB	00H
	DB	00H
	DB	00H
	DB	00H
	DB	00H
	DB	00H
	DB	0eaH
	DB	0caH
	DB	021H
	DB	00H
	DB	00H
	DB	00H
	DB	00H
	DB	00H
	DB	01H
	DB	00H
	DB	00H
	DB	00H
	DB	01H
	DB	00H
	DB	00H
	DB	00H
	DB	01H
	DB	00H
	DB	00H
	DB	00H
	DB	087H
	DB	00H
	DB	00H
	DB	00H
	DB	01H
	DB	00H
	DB	01H
	DB	00H
	DB	01H
	DB	00H
	DB	00H
	DB	00H
	DB	00H
	DB	00H
	DB	00H
	DB	00H
	DB	00H
	DB	00H
	DB	01H
	DB	00H
	DB	01H
	DB	01H
	DB	01H
	DB	00H
	DB	00H
	DB	00H
	DB	00H
	DB	01H
	DB	00H
	DB	00H
	DB	00H
	DB	00H
	DB	00H
	DB	00H
	DB	00H
	DB	00H
	DB	011H
	DB	01H
	DB	00H
	DB	010H
	DB	00H
	DB	00H
	DB	00H
	DB	00H
	DB	00H
	DB	00H
	DB	00H
	DB	00H
	DB	00H
	DB	00H
	DB	00H
	DB	00H
	DB	015H
	DB	040H
	DB	00H
	DB	00H
	DB	00H
	DB	00H
	DB	00H
	DB	00H
	DB	00H
	DB	00H
	DB	00H
	DB	00H
	DB	00H
	DB	00H
	DB	00H
	DB	00H
	DB	087H
	DB	00H
	DB	00H
	DB	00H
	DB	00H
	DB	00H
	DB	00H
	DB	00H
	DB	00H
	DB	00H
	DB	00H
	DB	00H
	DB	00H
	DB	00H
	DB	00H
	DB	00H
	DB	00H
	DB	00H
	DB	00H
	DB	00H
	DB	00H
	DB	00H
	DB	00H
	DB	00H
	DB	01H
	DB	00H
	DB	00H
	DB	00H
	DB	00H
	DB	00H
	DB	00H
	DB	00H
	DB	00H
	DB	00H
	DB	00H
	DB	00H
	DB	01H
	DB	00H
	DB	00H
	DB	00H
	DB	00H
	DB	00H
	DB	00H
	DB	00H
	DB	00H
	DB	00H
	DB	00H
	DB	00H
	DB	00H
	DB	00H
	DB	01H
	DB	00H
	DB	00H
	DB	00H
	DB	00H
	DB	00H
	DB	00H
	DB	00H
	DB	00H
	DB	00H
	DB	00H
	DB	00H
	DB	00H
	DB	00H
	DB	00H
	DB	01H
	DB	00H
	DB	00H
	DB	00H
	DB	00H
	DB	00H
	DB	00H
	DB	00H
	DB	00H
	DB	00H
	DB	00H
	DB	00H
	DB	00H
	DB	00H
	DB	00H
	DB	010H
	DB	00H
	DB	00H
	DB	00H
	DB	00H
	DB	00H
	DB	00H
	DB	00H
	DB	00H
	DB	00H
	DB	00H
	DB	00H
	DB	00H
	DB	00H
	DB	00H
	DB	00H
	DB	04H
	DB	00H
	DB	00H
	DB	00H
	DB	00H
	DB	00H
	DB	00H
	DB	00H
	DB	00H
	DB	00H
	DB	00H
	DB	00H
	DB	00H
	DB	00H
	DB	00H
	DB	00H
	DB	02H
	DB	00H
	DB	00H
	DB	00H
	DB	00H
	DB	00H
	DB	00H
	DB	00H
	DB	00H
	DB	00H
	DB	00H
	DB	00H
	DB	00H
	DB	00H
	DB	00H
	DB	00H
$SG196173 DB	'C:\papa\MyGit\hyperion-zvector\dyncrypt.c:4956', 00H
	ORG $+1
$SG196206 DB	'SDL 4.60', 00H
	ORG $+3
$SG196213 DB	'SYSBLK', 00H
	ORG $+1
$SG196407 DB	'I', 00H
	ORG $+2
$SG196207 DB	'HERCULES', 00H
	ORG $+3
$SG196406 DB	'Crypto', 00H
	ORG $+1
$SG196412 DB	'I', 00H
	ORG $+2
$SG196209 DB	'SDL 4.00', 00H
	ORG $+3
$SG196210 DB	'REGS', 00H
	ORG $+3
$SG196417 DB	'I', 00H
	ORG $+2
$SG196212 DB	'SDL 4.2', 00H
$SG196339 DB	'dyn_compute_intermediate_message_digest', 00H
$SG196341 DB	'dyn_compute_intermediate_message_digest', 00H
$SG196343 DB	'dyn_compute_intermediate_message_digest', 00H
$SG196345 DB	'dyn_compute_last_message_digest', 00H
$SG196347 DB	'dyn_compute_last_message_digest', 00H
$SG196349 DB	'dyn_compute_last_message_digest', 00H
$SG196351 DB	'dyn_cipher_message', 00H
	ORG $+5
$SG196353 DB	'dyn_cipher_message', 00H
	ORG $+5
$SG196355 DB	'dyn_cipher_message', 00H
	ORG $+5
$SG196357 DB	'dyn_compute_message_authentication_code', 00H
$SG196359 DB	'dyn_compute_message_authentication_code', 00H
$SG196361 DB	'dyn_compute_message_authentication_code', 00H
$SG196363 DB	'dyn_cipher_message_with_chaining', 00H
	ORG $+7
$SG196365 DB	'dyn_cipher_message_with_chaining', 00H
	ORG $+7
$SG196367 DB	'dyn_cipher_message_with_chaining', 00H
	ORG $+7
$SG196369 DB	'dyn_perform_cryptographic_key_management_operation', 00H
	ORG $+5
$SG196371 DB	'dyn_perform_cryptographic_key_management_operation', 00H
	ORG $+5
$SG196373 DB	'dyn_perform_cryptographic_key_management_operation', 00H
	ORG $+5
$SG196375 DB	'dyn_cipher_message_with_counter', 00H
$SG196377 DB	'dyn_cipher_message_with_counter', 00H
$SG196379 DB	'dyn_cipher_message_with_counter', 00H
$SG196381 DB	'dyn_cipher_message_with_cipher_feedback', 00H
$SG196383 DB	'dyn_cipher_message_with_cipher_feedback', 00H
$SG196385 DB	'dyn_cipher_message_with_cipher_feedback', 00H
$SG196387 DB	'dyn_cipher_message_with_output_feedback', 00H
$SG196389 DB	'dyn_cipher_message_with_output_feedback', 00H
$SG196391 DB	'dyn_cipher_message_with_output_feedback', 00H
$SG196393 DB	'dyn_perform_cryptographic_computation', 00H
	ORG $+2
$SG196395 DB	'dyn_perform_cryptographic_computation', 00H
	ORG $+2
$SG196397 DB	'dyn_perform_cryptographic_computation', 00H
	ORG $+2
$SG196405 DB	' (C) Copyright 2003-2016 by Bernard van der Helm', 00H
	ORG $+7
$SG196408 DB	'HHC00150%s %s module loaded%s', 0aH, 00H
	ORG $+1
$SG196409 DB	'hdl_register_symbols_ep', 00H
$SG196410 DB	'C:\papa\MyGit\hyperion-zvector\dyncrypt.c', 00H
	ORG $+6
$SG196411 DB	'Message Security Assist', 00H
$SG196413 DB	'HHC00151%s Activated facility: %s', 0aH, 00H
	ORG $+5
$SG196414 DB	'hdl_register_symbols_ep', 00H
$SG196415 DB	'C:\papa\MyGit\hyperion-zvector\dyncrypt.c', 00H
	ORG $+6
$SG196416 DB	'Message Security Assist Extension 1, 2, 3 and 4', 00H
$SG196418 DB	'HHC00151%s Activated facility: %s', 0aH, 00H
	ORG $+5
$SG196419 DB	'hdl_register_symbols_ep', 00H
$SG196420 DB	'C:\papa\MyGit\hyperion-zvector\dyncrypt.c', 00H
_DATA	ENDS
;	COMDAT xdata
xdata	SEGMENT
$unwind$z900_validate_operand DD 011701H
	DD	08217H
xdata	ENDS
;	COMDAT xdata
xdata	SEGMENT
$unwind$z900_vfetchc DD 031901H
	DD	07015a219H
	DD	06014H
xdata	ENDS
;	COMDAT xdata
xdata	SEGMENT
$unwind$z900_vstorec DD 031901H
	DD	07015c219H
	DD	06014H
xdata	ENDS
;	COMDAT xdata
xdata	SEGMENT
$unwind$z900_maddr_l DD 011801H
	DD	0a218H
xdata	ENDS
;	COMDAT xdata
xdata	SEGMENT
$unwind$z900_per3_zero_lcheck DD 011201H
	DD	06212H
xdata	ENDS
;	COMDAT xdata
xdata	SEGMENT
$unwind$z900_per3_zero_check2 DD 011201H
	DD	06212H
xdata	ENDS
;	COMDAT xdata
xdata	SEGMENT
$unwind$z900_per3_zero_check DD 010d01H
	DD	0620dH
xdata	ENDS
;	COMDAT xdata
xdata	SEGMENT
$unwind$z900_per3_zero DD 010901H
	DD	06209H
xdata	ENDS
;	COMDAT xdata
xdata	SEGMENT
$unwind$s390_validate_operand DD 011601H
	DD	08216H
xdata	ENDS
;	COMDAT xdata
xdata	SEGMENT
$unwind$s390_vfetchc DD 031901H
	DD	07015a219H
	DD	06014H
xdata	ENDS
;	COMDAT xdata
xdata	SEGMENT
$unwind$s390_vstorec DD 031901H
	DD	07015c219H
	DD	06014H
xdata	ENDS
;	COMDAT xdata
xdata	SEGMENT
$unwind$s390_maddr_l DD 011701H
	DD	0a217H
xdata	ENDS
voltbl	SEGMENT
_volmd	DD	0ffffffffH
	DDSymXIndex: 	FLAT:z900_dyn_perform_cryptographic_key_management_operation
	DD	01bH
	DD	0523H
_volmd	DD	0ffffffffH
	DDSymXIndex: 	FLAT:z900_dyn_cipher_message_with_output_feedback
	DD	01bH
	DD	05d0H
_volmd	DD	0ffffffffH
	DDSymXIndex: 	FLAT:z900_dyn_cipher_message_with_cipher_feedback
	DD	01bH
	DD	05d0H
_volmd	DD	0ffffffffH
	DDSymXIndex: 	FLAT:z900_dyn_cipher_message_with_counter
	DD	01bH
	DD	04f5H
_volmd	DD	0ffffffffH
	DDSymXIndex: 	FLAT:z900_dyn_cipher_message_with_chaining
	DD	01bH
	DD	0694H
_volmd	DD	0ffffffffH
	DDSymXIndex: 	FLAT:z900_dyn_compute_message_authentication_code
	DD	01bH
	DD	04e0H
_volmd	DD	0ffffffffH
	DDSymXIndex: 	FLAT:z900_dyn_cipher_message
	DD	01bH
	DD	0694H
_volmd	DD	0ffffffffH
	DDSymXIndex: 	FLAT:z900_dyn_compute_last_message_digest
	DD	01bH
	DD	061dH
_volmd	DD	0ffffffffH
	DDSymXIndex: 	FLAT:z900_dyn_compute_intermediate_message_digest
	DD	01bH
	DD	0535H
_volmd	DD	0ffffffffH
	DDSymXIndex: 	FLAT:z900_pckmo_aes
	DD	016H
	DD	0221H
_volmd	DD	0ffffffffH
	DDSymXIndex: 	FLAT:z900_pckmo_dea
	DD	016H
	DD	021dH
_volmd	DD	0ffffffffH
	DDSymXIndex: 	FLAT:z900_pcc_xts_aes
	DD	018H
	DD	05f9H
_volmd	DD	0ffffffffH
	DDSymXIndex: 	FLAT:z900_pcc_cmac_aes
	DD	017H
	DD	081cH
_volmd	DD	0ffffffffH
	DDSymXIndex: 	FLAT:z900_pcc_cmac_dea
	DD	017H
	DD	0ae8H
_volmd	DD	0ffffffffH
	DDSymXIndex: 	FLAT:z900_kmo_aes
	DD	01eH
	DD	0a37H
_volmd	DD	0ffffffffH
	DDSymXIndex: 	FLAT:z900_kmo_dea
	DD	01eH
	DD	0bdbH
_volmd	DD	0ffffffffH
	DDSymXIndex: 	FLAT:z900_kmf_aes
	DD	01eH
	DD	0bdaH
_volmd	DD	0ffffffffH
	DDSymXIndex: 	FLAT:z900_kmf_dea
	DD	01eH
	DD	0d86H
_volmd	DD	0ffffffffH
	DDSymXIndex: 	FLAT:z900_kmctr_aes
	DD	023H
	DD	0b24H
_volmd	DD	0ffffffffH
	DDSymXIndex: 	FLAT:z900_kmctr_dea
	DD	023H
	DD	0cbaH
_volmd	DD	0ffffffffH
	DDSymXIndex: 	FLAT:z900_kmc_prng
	DD	01eH
	DD	0aeaH
_volmd	DD	0ffffffffH
	DDSymXIndex: 	FLAT:z900_kmc_aes
	DD	020H
	DD	0b43H
_volmd	DD	0ffffffffH
	DDSymXIndex: 	FLAT:z900_kmc_dea
	DD	01eH
	DD	0ee3H
_volmd	DD	0ffffffffH
	DDSymXIndex: 	FLAT:z900_kmac_aes
	DD	01eH
	DD	082fH
_volmd	DD	0ffffffffH
	DDSymXIndex: 	FLAT:z900_kmac_dea
	DD	01eH
	DD	09d3H
_volmd	DD	0ffffffffH
	DDSymXIndex: 	FLAT:z900_km_xts_aes
	DD	01eH
	DD	0b10H
_volmd	DD	0ffffffffH
	DDSymXIndex: 	FLAT:z900_km_aes
	DD	01eH
	DD	0903H
_volmd	DD	0ffffffffH
	DDSymXIndex: 	FLAT:z900_km_dea
	DD	01eH
	DD	09eeH
_volmd	DD	0ffffffffH
	DDSymXIndex: 	FLAT:z900_klmd_sha
	DD	020H
	DD	0a73H
_volmd	DD	0ffffffffH
	DDSymXIndex: 	FLAT:z900_kimd_ghash
	DD	01eH
	DD	0737H
_volmd	DD	0ffffffffH
	DDSymXIndex: 	FLAT:z900_kimd_sha
	DD	023H
	DD	08d2H
_volmd	DD	0ffffffffH
	DDSymXIndex: 	FLAT:s390_dyn_cipher_message_with_chaining
	DD	01bH
	DD	046bH
_volmd	DD	0ffffffffH
	DDSymXIndex: 	FLAT:s390_dyn_compute_message_authentication_code
	DD	01bH
	DD	03e8H
_volmd	DD	0ffffffffH
	DDSymXIndex: 	FLAT:s390_dyn_cipher_message
	DD	01bH
	DD	042dH
_volmd	DD	0ffffffffH
	DDSymXIndex: 	FLAT:s390_dyn_compute_last_message_digest
	DD	01bH
	DD	045cH
_volmd	DD	0ffffffffH
	DDSymXIndex: 	FLAT:s390_dyn_compute_intermediate_message_digest
	DD	01bH
	DD	0465H
_volmd	DD	0ffffffffH
	DDSymXIndex: 	FLAT:s390_kmc_prng
	DD	01eH
	DD	05e9H
_volmd	DD	0ffffffffH
	DDSymXIndex: 	FLAT:s390_kmc_aes
	DD	020H
	DD	05f1H
_volmd	DD	0ffffffffH
	DDSymXIndex: 	FLAT:s390_kmc_dea
	DD	01eH
	DD	0988H
_volmd	DD	0ffffffffH
	DDSymXIndex: 	FLAT:s390_kmac_dea
	DD	01eH
	DD	05adH
_volmd	DD	0ffffffffH
	DDSymXIndex: 	FLAT:s390_km_aes
	DD	01eH
	DD	0458H
_volmd	DD	0ffffffffH
	DDSymXIndex: 	FLAT:s390_km_dea
	DD	01eH
	DD	0543H
_volmd	DD	0ffffffffH
	DDSymXIndex: 	FLAT:s390_klmd_sha
	DD	020H
	DD	0646H
_volmd	DD	0ffffffffH
	DDSymXIndex: 	FLAT:s390_kimd_sha
	DD	023H
	DD	04c8H
_volmd	DD	0ffffffffH
	DDSymXIndex: 	FLAT:s370_dyn_perform_cryptographic_key_management_operation
	DD	01bH
	DD	0439H
_volmd	DD	0ffffffffH
	DDSymXIndex: 	FLAT:s370_dyn_cipher_message_with_output_feedback
	DD	01bH
	DD	0408H
_volmd	DD	0ffffffffH
	DDSymXIndex: 	FLAT:s370_dyn_cipher_message_with_cipher_feedback
	DD	01bH
	DD	0408H
_volmd	DD	0ffffffffH
	DDSymXIndex: 	FLAT:s370_dyn_cipher_message_with_counter
	DD	01bH
	DD	0434H
_volmd	DD	0ffffffffH
	DDSymXIndex: 	FLAT:s370_dyn_cipher_message_with_chaining
	DD	01bH
	DD	04ccH
_volmd	DD	0ffffffffH
	DDSymXIndex: 	FLAT:s370_dyn_compute_message_authentication_code
	DD	01bH
	DD	044aH
_volmd	DD	0ffffffffH
	DDSymXIndex: 	FLAT:s370_dyn_cipher_message
	DD	01bH
	DD	04ccH
_volmd	DD	0ffffffffH
	DDSymXIndex: 	FLAT:s370_dyn_compute_last_message_digest
	DD	01bH
	DD	0451H
_volmd	DD	0ffffffffH
	DDSymXIndex: 	FLAT:s370_dyn_compute_intermediate_message_digest
	DD	01bH
	DD	049bH
_volmd	DD	0ffffffffH
	DDSymXIndex: 	FLAT:s370_pckmo_aes
	DD	016H
	DD	0135H
_volmd	DD	0ffffffffH
	DDSymXIndex: 	FLAT:s370_pckmo_dea
	DD	016H
	DD	0131H
_volmd	DD	0ffffffffH
	DDSymXIndex: 	FLAT:s370_pcc_xts_aes
	DD	018H
	DD	0501H
_volmd	DD	0ffffffffH
	DDSymXIndex: 	FLAT:s370_pcc_cmac_aes
	DD	017H
	DD	072cH
_volmd	DD	0ffffffffH
	DDSymXIndex: 	FLAT:s370_pcc_cmac_dea
	DD	017H
	DD	09efH
_volmd	DD	0ffffffffH
	DDSymXIndex: 	FLAT:s370_kmo_aes
	DD	01eH
	DD	04eaH
_volmd	DD	0ffffffffH
	DDSymXIndex: 	FLAT:s370_kmo_dea
	DD	01eH
	DD	068bH
_volmd	DD	0ffffffffH
	DDSymXIndex: 	FLAT:s370_kmf_aes
	DD	01eH
	DD	0644H
_volmd	DD	0ffffffffH
	DDSymXIndex: 	FLAT:s370_kmf_dea
	DD	01eH
	DD	07dfH
_volmd	DD	0ffffffffH
	DDSymXIndex: 	FLAT:s370_kmctr_aes
	DD	023H
	DD	053bH
_volmd	DD	0ffffffffH
	DDSymXIndex: 	FLAT:s370_kmctr_dea
	DD	023H
	DD	06d4H
_volmd	DD	0ffffffffH
	DDSymXIndex: 	FLAT:s370_kmc_prng
	DD	01eH
	DD	05b2H
_volmd	DD	0ffffffffH
	DDSymXIndex: 	FLAT:s370_kmc_aes
	DD	020H
	DD	05f3H
_volmd	DD	0ffffffffH
	DDSymXIndex: 	FLAT:s370_kmc_dea
	DD	01eH
	DD	098aH
_volmd	DD	0ffffffffH
	DDSymXIndex: 	FLAT:s370_kmac_aes
	DD	01eH
	DD	0432H
_volmd	DD	0ffffffffH
	DDSymXIndex: 	FLAT:s370_kmac_dea
	DD	01eH
	DD	05baH
_volmd	DD	0ffffffffH
	DDSymXIndex: 	FLAT:s370_km_xts_aes
	DD	01eH
	DD	05bfH
_volmd	DD	0ffffffffH
	DDSymXIndex: 	FLAT:s370_km_aes
	DD	01eH
	DD	0464H
_volmd	DD	0ffffffffH
	DDSymXIndex: 	FLAT:s370_km_dea
	DD	01eH
	DD	054fH
_volmd	DD	0ffffffffH
	DDSymXIndex: 	FLAT:s370_klmd_sha
	DD	020H
	DD	0619H
_volmd	DD	0ffffffffH
	DDSymXIndex: 	FLAT:s370_kimd_ghash
	DD	01eH
	DD	0337H
_volmd	DD	0ffffffffH
	DDSymXIndex: 	FLAT:s370_kimd_sha
	DD	023H
	DD	049bH
_volmd	DD	0ffffffffH
	DDSymXIndex: 	FLAT:wrap_dea
	DD	01cH
	DD	01ddH
_volmd	DD	0ffffffffH
	DDSymXIndex: 	FLAT:wrap_aes
	DD	01cH
	DD	0259H
_volmd	DD	0ffffffffH
	DDSymXIndex: 	FLAT:unwrap_dea
	DD	01aH
	DD	0239H
_volmd	DD	0ffffffffH
	DDSymXIndex: 	FLAT:unwrap_aes
	DD	01cH
	DD	0280H
_volmd	DD	0ffffffffH
	DDSymXIndex: 	FLAT:xts_gf_mult
	DD	01dH
	DD	0caH
_volmd	DD	0ffffffffH
	DDSymXIndex: 	FLAT:gcm_gf_mult
	DD	01fH
	DD	013fH
voltbl	ENDS
xdata	SEGMENT
$unwind$crypto_fetch32 DD 010901H
	DD	04209H
$unwind$crypto_store32 DD 010d01H
	DD	0420dH
$unwind$crypto_cswap32 DD 010801H
	DD	04208H
$unwind$crypto_cswap64 DD 010901H
	DD	04209H
$unwind$crypto_secure0 DD 010e01H
	DD	0420eH
$unwind$gcm_rightshift DD 010901H
	DD	02209H
$unwind$gcm_gf_mult DD 032419H
	DD	07011a215H
	DD	06010H
	DD	imagerel __GSHandlerCheck
	DD	048H
$unwind$xts_mult_x DD 010901H
	DD	02209H
$unwind$xts_gf_mult DD 012219H
	DD	0c213H
	DD	imagerel __GSHandlerCheck
	DD	058H
$unwind$sha1_getcv DD 010e01H
	DD	0220eH
$unwind$sha1_seticv DD 010e01H
	DD	0220eH
$unwind$sha256_getcv DD 010e01H
	DD	0220eH
$unwind$sha256_seticv DD 010e01H
	DD	0220eH
$unwind$sha512_getcv DD 010e01H
	DD	0220eH
$unwind$sha512_seticv DD 010e01H
	DD	0220eH
$unwind$shift_left DD 011301H
	DD	02213H
$unwind$des_set_key DD 010e01H
	DD	0620eH
$unwind$des_encrypt DD 011301H
	DD	08213H
$unwind$des_decrypt DD 011301H
	DD	08213H
$unwind$des3_set_2keys DD 011301H
	DD	06213H
$unwind$des3_set_3keys DD 011801H
	DD	06218H
$unwind$des3_encrypt DD 011301H
	DD	08213H
$unwind$des3_decrypt DD 011301H
	DD	08213H
$unwind$unwrap_aes DD 042419H
	DD	04b0112H
	DD	0600a700bH
	DD	imagerel __GSHandlerCheck
	DD	0240H
$unwind$unwrap_dea DD 022219H
	DD	03f0110H
	DD	imagerel __GSHandlerCheck
	DD	01e0H
$unwind$wrap_aes DD 042419H
	DD	04b0112H
	DD	0600a700bH
	DD	imagerel __GSHandlerCheck
	DD	0240H
$unwind$wrap_dea DD 042419H
	DD	03d0112H
	DD	0600a700bH
	DD	imagerel __GSHandlerCheck
	DD	01d0H
$unwind$s370_kimd_sha DD 022b19H
	DD	0670119H
	DD	imagerel __GSHandlerCheck
	DD	0320H
$unwind$s370_kimd_ghash DD 022619H
	DD	0130114H
	DD	imagerel __GSHandlerCheck
	DD	080H
$unwind$s370_klmd_sha DD 042819H
	DD	06d0116H
	DD	0600e700fH
	DD	imagerel __GSHandlerCheck
	DD	0350H
$unwind$s370_km_dea DD 022619H
	DD	05f0114H
	DD	imagerel __GSHandlerCheck
	DD	02e8H
$unwind$s370_km_aes DD 022619H
	DD	0590114H
	DD	imagerel __GSHandlerCheck
	DD	02b0H
$unwind$s370_km_xts_aes DD 022619H
	DD	05d0114H
	DD	imagerel __GSHandlerCheck
	DD	02d0H
$unwind$s370_kmac_dea DD 022619H
	DD	04f0114H
	DD	imagerel __GSHandlerCheck
	DD	0260H
$unwind$s370_kmac_aes DD 022619H
	DD	0590114H
	DD	imagerel __GSHandlerCheck
	DD	02b0H
$unwind$s370_kmc_dea DD 022619H
	DD	0510114H
	DD	imagerel __GSHandlerCheck
	DD	0278H
$unwind$s370_kmc_aes DD 042819H
	DD	05f0116H
	DD	0600e700fH
	DD	imagerel __GSHandlerCheck
	DD	02e0H
$unwind$s370_kmc_prng DD 022619H
	DD	04b0114H
	DD	imagerel __GSHandlerCheck
	DD	0248H
$unwind$s370_kmctr_dea DD 022b19H
	DD	0530119H
	DD	imagerel __GSHandlerCheck
	DD	0280H
$unwind$s370_kmctr_aes DD 022b19H
	DD	05d0119H
	DD	imagerel __GSHandlerCheck
	DD	02d0H
$unwind$s370_kmf_dea DD 022619H
	DD	0510114H
	DD	imagerel __GSHandlerCheck
	DD	0278H
$unwind$s370_kmf_aes DD 022619H
	DD	05f0114H
	DD	imagerel __GSHandlerCheck
	DD	02e0H
$unwind$s370_kmo_dea DD 022619H
	DD	0510114H
	DD	imagerel __GSHandlerCheck
	DD	0270H
$unwind$s370_kmo_aes DD 022619H
	DD	05b0114H
	DD	imagerel __GSHandlerCheck
	DD	02c0H
$unwind$s370_pcc_cmac_dea DD 031f19H
	DD	056010dH
	DD	07006H
	DD	imagerel __GSHandlerCheck
	DD	02a0H
$unwind$s370_pcc_cmac_aes DD 031f19H
	DD	064010dH
	DD	07006H
	DD	imagerel __GSHandlerCheck
	DD	0310H
$unwind$s370_pcc_xts_aes DD 042019H
	DD	065010eH
	DD	060067007H
	DD	imagerel __GSHandlerCheck
	DD	0310H
$unwind$s370_pckmo_dea DD 021e19H
	DD	013010cH
	DD	imagerel __GSHandlerCheck
	DD	080H
$unwind$s370_pckmo_aes DD 021e19H
	DD	013010cH
	DD	imagerel __GSHandlerCheck
	DD	080H
$unwind$s370_dyn_compute_intermediate_message_digest DD 022319H
	DD	0170111H
	DD	imagerel __GSHandlerCheck
	DD	0a0H
$unwind$s370_dyn_compute_last_message_digest DD 022319H
	DD	0170111H
	DD	imagerel __GSHandlerCheck
	DD	0a0H
$unwind$s370_dyn_cipher_message DD 022319H
	DD	0170111H
	DD	imagerel __GSHandlerCheck
	DD	0a0H
$unwind$s370_dyn_compute_message_authentication_code DD 022319H
	DD	0170111H
	DD	imagerel __GSHandlerCheck
	DD	0a0H
$unwind$s370_dyn_cipher_message_with_chaining DD 022319H
	DD	0170111H
	DD	imagerel __GSHandlerCheck
	DD	0a0H
$unwind$s370_dyn_cipher_message_with_counter DD 022319H
	DD	0170111H
	DD	imagerel __GSHandlerCheck
	DD	0a0H
$unwind$s370_dyn_cipher_message_with_cipher_feedback DD 022319H
	DD	0170111H
	DD	imagerel __GSHandlerCheck
	DD	0a0H
$unwind$s370_dyn_cipher_message_with_output_feedback DD 022319H
	DD	0170111H
	DD	imagerel __GSHandlerCheck
	DD	0a0H
$unwind$s370_dyn_perform_cryptographic_computation DD 010e01H
	DD	0820eH
$unwind$s370_dyn_perform_cryptographic_key_management_operation DD 022319H
	DD	0170111H
	DD	imagerel __GSHandlerCheck
	DD	0a0H
$unwind$s390_kimd_sha DD 022b19H
	DD	0670119H
	DD	imagerel __GSHandlerCheck
	DD	0320H
$unwind$s390_klmd_sha DD 042819H
	DD	06d0116H
	DD	0600e700fH
	DD	imagerel __GSHandlerCheck
	DD	0350H
$unwind$s390_km_dea DD 022619H
	DD	05f0114H
	DD	imagerel __GSHandlerCheck
	DD	02e8H
$unwind$s390_km_aes DD 022619H
	DD	0590114H
	DD	imagerel __GSHandlerCheck
	DD	02b0H
$unwind$s390_kmac_dea DD 022619H
	DD	04f0114H
	DD	imagerel __GSHandlerCheck
	DD	0260H
$unwind$s390_kmc_dea DD 022619H
	DD	0510114H
	DD	imagerel __GSHandlerCheck
	DD	0278H
$unwind$s390_kmc_aes DD 042819H
	DD	05f0116H
	DD	0600e700fH
	DD	imagerel __GSHandlerCheck
	DD	02e0H
$unwind$s390_kmc_prng DD 022619H
	DD	04b0114H
	DD	imagerel __GSHandlerCheck
	DD	0248H
$unwind$s390_dyn_compute_intermediate_message_digest DD 022319H
	DD	0170111H
	DD	imagerel __GSHandlerCheck
	DD	0a0H
$unwind$s390_dyn_compute_last_message_digest DD 022319H
	DD	0170111H
	DD	imagerel __GSHandlerCheck
	DD	0a0H
$unwind$s390_dyn_cipher_message DD 022319H
	DD	0170111H
	DD	imagerel __GSHandlerCheck
	DD	0a0H
$unwind$s390_dyn_compute_message_authentication_code DD 022319H
	DD	0170111H
	DD	imagerel __GSHandlerCheck
	DD	0a0H
$unwind$s390_dyn_cipher_message_with_chaining DD 022319H
	DD	0170111H
	DD	imagerel __GSHandlerCheck
	DD	0a0H
$unwind$s390_dyn_perform_cryptographic_key_management_operation DD 010e01H
	DD	0820eH
$unwind$s390_dyn_perform_cryptographic_computation DD 010e01H
	DD	0820eH
$unwind$s390_dyn_cipher_message_with_cipher_feedback DD 010e01H
	DD	0820eH
$unwind$s390_dyn_cipher_message_with_output_feedback DD 010e01H
	DD	0820eH
$unwind$s390_dyn_cipher_message_with_counter DD 010e01H
	DD	0820eH
$unwind$z900_kimd_sha DD 022b19H
	DD	0730119H
	DD	imagerel __GSHandlerCheck
	DD	0380H
$unwind$z900_kimd_ghash DD 022619H
	DD	01d0114H
	DD	imagerel __GSHandlerCheck
	DD	0d8H
$unwind$z900_klmd_sha DD 042819H
	DD	0790116H
	DD	0600e700fH
	DD	imagerel __GSHandlerCheck
	DD	03b0H
$unwind$z900_km_dea DD 022619H
	DD	06b0114H
	DD	imagerel __GSHandlerCheck
	DD	0348H
$unwind$z900_km_aes DD 022619H
	DD	0650114H
	DD	imagerel __GSHandlerCheck
	DD	0310H
$unwind$z900_km_xts_aes DD 022619H
	DD	06b0114H
	DD	imagerel __GSHandlerCheck
	DD	0340H
$unwind$z900_kmac_dea DD 022619H
	DD	0590114H
	DD	imagerel __GSHandlerCheck
	DD	02b0H
$unwind$z900_kmac_aes DD 022619H
	DD	0650114H
	DD	imagerel __GSHandlerCheck
	DD	0310H
$unwind$z900_kmc_dea DD 022619H
	DD	05f0114H
	DD	imagerel __GSHandlerCheck
	DD	02e8H
$unwind$z900_kmc_aes DD 042819H
	DD	06d0116H
	DD	0600e700fH
	DD	imagerel __GSHandlerCheck
	DD	0350H
$unwind$z900_kmc_prng DD 022619H
	DD	0590114H
	DD	imagerel __GSHandlerCheck
	DD	02b8H
$unwind$z900_kmctr_dea DD 022b19H
	DD	0610119H
	DD	imagerel __GSHandlerCheck
	DD	02f0H
$unwind$z900_kmctr_aes DD 022b19H
	DD	06d0119H
	DD	imagerel __GSHandlerCheck
	DD	0350H
$unwind$z900_kmf_dea DD 022619H
	DD	0610114H
	DD	imagerel __GSHandlerCheck
	DD	02f8H
$unwind$z900_kmf_aes DD 022619H
	DD	06d0114H
	DD	imagerel __GSHandlerCheck
	DD	0350H
$unwind$z900_kmo_dea DD 022619H
	DD	05f0114H
	DD	imagerel __GSHandlerCheck
	DD	02e0H
$unwind$z900_kmo_aes DD 022619H
	DD	0690114H
	DD	imagerel __GSHandlerCheck
	DD	0330H
$unwind$z900_pcc_cmac_dea DD 031f19H
	DD	05a010dH
	DD	07006H
	DD	imagerel __GSHandlerCheck
	DD	02c0H
$unwind$z900_pcc_cmac_aes DD 031f19H
	DD	066010dH
	DD	07006H
	DD	imagerel __GSHandlerCheck
	DD	0320H
$unwind$z900_pcc_xts_aes DD 042019H
	DD	067010eH
	DD	060067007H
	DD	imagerel __GSHandlerCheck
	DD	0320H
$unwind$z900_pckmo_dea DD 021e19H
	DD	017010cH
	DD	imagerel __GSHandlerCheck
	DD	0a0H
$unwind$z900_pckmo_aes DD 021e19H
	DD	017010cH
	DD	imagerel __GSHandlerCheck
	DD	0a0H
$unwind$z900_dyn_compute_intermediate_message_digest DD 022319H
	DD	0190111H
	DD	imagerel __GSHandlerCheck
	DD	0b0H
$unwind$z900_dyn_compute_last_message_digest DD 022319H
	DD	01b0111H
	DD	imagerel __GSHandlerCheck
	DD	0c0H
$unwind$z900_dyn_cipher_message DD 022319H
	DD	01b0111H
	DD	imagerel __GSHandlerCheck
	DD	0c0H
$unwind$z900_dyn_compute_message_authentication_code DD 022319H
	DD	0190111H
	DD	imagerel __GSHandlerCheck
	DD	0b0H
$unwind$z900_dyn_cipher_message_with_chaining DD 022319H
	DD	01b0111H
	DD	imagerel __GSHandlerCheck
	DD	0c0H
$unwind$z900_dyn_cipher_message_with_counter DD 022319H
	DD	0190111H
	DD	imagerel __GSHandlerCheck
	DD	0b0H
$unwind$z900_dyn_cipher_message_with_cipher_feedback DD 022319H
	DD	01b0111H
	DD	imagerel __GSHandlerCheck
	DD	0c0H
$unwind$z900_dyn_cipher_message_with_output_feedback DD 022319H
	DD	01b0111H
	DD	imagerel __GSHandlerCheck
	DD	0c0H
$unwind$z900_dyn_perform_cryptographic_computation DD 010e01H
	DD	0820eH
$unwind$z900_dyn_perform_cryptographic_key_management_operation DD 022319H
	DD	0190111H
	DD	imagerel __GSHandlerCheck
	DD	0b0H
$unwind$hdl_check_depends_ep DD 010901H
	DD	06209H
$unwind$hdl_define_instructs_ep DD 010901H
	DD	04209H
$unwind$hdl_register_symbols_ep DD 010901H
	DD	0a209H
xdata	ENDS
;	COMDAT xdata
xdata	SEGMENT
$unwind$s370_validate_operand DD 011601H
	DD	08216H
xdata	ENDS
;	COMDAT xdata
xdata	SEGMENT
$unwind$s370_vfetchc DD 031901H
	DD	07015a219H
	DD	06014H
xdata	ENDS
;	COMDAT xdata
xdata	SEGMENT
$unwind$s370_vstorec DD 031901H
	DD	07015c219H
	DD	06014H
xdata	ENDS
;	COMDAT xdata
xdata	SEGMENT
$unwind$s370_maddr_l DD 011701H
	DD	0a217H
xdata	ENDS
;	COMDAT xdata
xdata	SEGMENT
$unwind$fetch_fw_noswap DD 010901H
	DD	02209H
xdata	ENDS
;	COMDAT xdata
xdata	SEGMENT
$unwind$RtlSecureZeroMemory DD 020f01H
	DD	0700b120fH
xdata	ENDS
; Function compile flags: /Odtp
; File C:\papa\MyGit\hyperion-zvector\dyncrypt.c
_TEXT	SEGMENT
regsym$ = 96
hdl_register_symbols_ep PROC

; 5131 : HDL_REGISTER_SECTION;

$LN6:
  00000	48 89 4c 24 08	 mov	 QWORD PTR [rsp+8], rcx
  00005	48 83 ec 58	 sub	 rsp, 88			; 00000058H
$LN4@hdl_regist:

; 5132 : {
; 5133 :   /* Display copyright, version and level of support information */
; 5134 : 
; 5135 :   UNREFERENCED( regsym );   // (HDL_REGISTER_SECTION parameter)

  00009	33 c0		 xor	 eax, eax
  0000b	85 c0		 test	 eax, eax
  0000d	75 fa		 jne	 SHORT $LN4@hdl_regist

; 5136 : 
; 5137 :   // "%s module loaded%s"
; 5138 :   WRMSG( HHC00150, "I", "Crypto", " (C) Copyright 2003-2016 by Bernard van der Helm");

  0000f	b9 01 00 00 00	 mov	 ecx, 1
  00014	ff 15 00 00 00
	00		 call	 QWORD PTR __imp___acrt_iob_func
  0001a	48 8d 0d 00 00
	00 00		 lea	 rcx, OFFSET FLAT:$SG196405
  00021	48 89 4c 24 40	 mov	 QWORD PTR [rsp+64], rcx
  00026	48 8d 0d 00 00
	00 00		 lea	 rcx, OFFSET FLAT:$SG196406
  0002d	48 89 4c 24 38	 mov	 QWORD PTR [rsp+56], rcx
  00032	48 8d 0d 00 00
	00 00		 lea	 rcx, OFFSET FLAT:$SG196407
  00039	48 89 4c 24 30	 mov	 QWORD PTR [rsp+48], rcx
  0003e	48 8d 0d 00 00
	00 00		 lea	 rcx, OFFSET FLAT:$SG196408
  00045	48 89 4c 24 28	 mov	 QWORD PTR [rsp+40], rcx
  0004a	48 89 44 24 20	 mov	 QWORD PTR [rsp+32], rax
  0004f	41 b9 03 00 00
	00		 mov	 r9d, 3
  00055	4c 8d 05 00 00
	00 00		 lea	 r8, OFFSET FLAT:$SG196409
  0005c	ba 12 14 00 00	 mov	 edx, 5138		; 00001412H
  00061	48 8d 0d 00 00
	00 00		 lea	 rcx, OFFSET FLAT:$SG196410
  00068	ff 15 00 00 00
	00		 call	 QWORD PTR __imp_fwritemsg

; 5139 : 
; 5140 :   // "Activated facility: %s"
; 5141 :   WRMSG( HHC00151, "I", "Message Security Assist");

  0006e	b9 01 00 00 00	 mov	 ecx, 1
  00073	ff 15 00 00 00
	00		 call	 QWORD PTR __imp___acrt_iob_func
  00079	48 8d 0d 00 00
	00 00		 lea	 rcx, OFFSET FLAT:$SG196411
  00080	48 89 4c 24 38	 mov	 QWORD PTR [rsp+56], rcx
  00085	48 8d 0d 00 00
	00 00		 lea	 rcx, OFFSET FLAT:$SG196412
  0008c	48 89 4c 24 30	 mov	 QWORD PTR [rsp+48], rcx
  00091	48 8d 0d 00 00
	00 00		 lea	 rcx, OFFSET FLAT:$SG196413
  00098	48 89 4c 24 28	 mov	 QWORD PTR [rsp+40], rcx
  0009d	48 89 44 24 20	 mov	 QWORD PTR [rsp+32], rax
  000a2	41 b9 03 00 00
	00		 mov	 r9d, 3
  000a8	4c 8d 05 00 00
	00 00		 lea	 r8, OFFSET FLAT:$SG196414
  000af	ba 15 14 00 00	 mov	 edx, 5141		; 00001415H
  000b4	48 8d 0d 00 00
	00 00		 lea	 rcx, OFFSET FLAT:$SG196415
  000bb	ff 15 00 00 00
	00		 call	 QWORD PTR __imp_fwritemsg

; 5142 : 
; 5143 : #if defined( _FEATURE_077_MSA_EXTENSION_FACILITY_4 )
; 5144 :   WRMSG( HHC00151, "I", "Message Security Assist Extension 1, 2, 3 and 4");

  000c1	b9 01 00 00 00	 mov	 ecx, 1
  000c6	ff 15 00 00 00
	00		 call	 QWORD PTR __imp___acrt_iob_func
  000cc	48 8d 0d 00 00
	00 00		 lea	 rcx, OFFSET FLAT:$SG196416
  000d3	48 89 4c 24 38	 mov	 QWORD PTR [rsp+56], rcx
  000d8	48 8d 0d 00 00
	00 00		 lea	 rcx, OFFSET FLAT:$SG196417
  000df	48 89 4c 24 30	 mov	 QWORD PTR [rsp+48], rcx
  000e4	48 8d 0d 00 00
	00 00		 lea	 rcx, OFFSET FLAT:$SG196418
  000eb	48 89 4c 24 28	 mov	 QWORD PTR [rsp+40], rcx
  000f0	48 89 44 24 20	 mov	 QWORD PTR [rsp+32], rax
  000f5	41 b9 03 00 00
	00		 mov	 r9d, 3
  000fb	4c 8d 05 00 00
	00 00		 lea	 r8, OFFSET FLAT:$SG196419
  00102	ba 18 14 00 00	 mov	 edx, 5144		; 00001418H
  00107	48 8d 0d 00 00
	00 00		 lea	 rcx, OFFSET FLAT:$SG196420
  0010e	ff 15 00 00 00
	00		 call	 QWORD PTR __imp_fwritemsg

; 5145 : #else
; 5146 :   #if defined( _FEATURE_076_MSA_EXTENSION_FACILITY_3 )
; 5147 :     WRMSG( HHC00151, "I", "Message Security Assist Extension 1, 2 and 3");
; 5148 :   #else
; 5149 :     #if defined( _FEATURE_MSA_EXTENSION_FACILITY_2 )
; 5150 :       WRMSG( HHC00151, "I", "Message Security Assist Extension 1 and 2");
; 5151 :     #else
; 5152 :       #if defined( _FEATURE_MSA_EXTENSION_FACILITY_1 )
; 5153 :         WRMSG( HHC00151, "I", "Message Security Assist Extension 1");
; 5154 :       #endif /* defined( _FEATURE_MSA_EXTENSION_FACILITY_1 ) */
; 5155 :     #endif /* defined( _FEATURE_MSA_EXTENSION_FACILITY_2 ) */
; 5156 :   #endif /* defined( _FEATURE_076_MSA_EXTENSION_FACILITY_3 ) */
; 5157 : #endif /* defined( _FEATURE_077_MSA_EXTENSION_FACILITY_4 ) */
; 5158 : }
; 5159 : END_REGISTER_SECTION;

  00114	48 83 c4 58	 add	 rsp, 88			; 00000058H
  00118	c3		 ret	 0
hdl_register_symbols_ep ENDP
_TEXT	ENDS
; Function compile flags: /Odtp
; File C:\papa\MyGit\hyperion-zvector\dyncrypt.c
_TEXT	SEGMENT
defins$ = 48
hdl_define_instructs_ep PROC

; 5078 : HDL_INSTRUCTION_SECTION;

$LN153:
  00000	48 89 4c 24 08	 mov	 QWORD PTR [rsp+8], rcx
  00005	48 83 ec 28	 sub	 rsp, 40			; 00000028H
$LN4@hdl_define:
$LN7@hdl_define:

; 5079 : {
; 5080 :     // (allows for a much shorter HDL_INST statement)
; 5081 : 
; 5082 : #define HDL_INST            HDL_DEF_INST
; 5083 : #define ARCH_____390_900                       HDL_INSTARCH_390 | HDL_INSTARCH_900
; 5084 : #define ARCH_________900                                          HDL_INSTARCH_900
; 5085 : #define ARCH_370_390_900    HDL_INSTARCH_370 | HDL_INSTARCH_390 | HDL_INSTARCH_900
; 5086 : #define ARCH_370_____900    HDL_INSTARCH_370                    | HDL_INSTARCH_900
; 5087 : #define OPCODE( _opcode )   0x ## _opcode
; 5088 : 
; 5089 :   /* Install our instructions for the architectures we support */
; 5090 : 
; 5091 : #if defined( _FEATURE_017_MSA_FACILITY )
; 5092 :   #if !defined( _FEATURE_370_EXTENSION )
; 5093 :   HDL_INST( ARCH_____390_900, OPCODE( B93E ), dyn_compute_intermediate_message_digest );
; 5094 :   HDL_INST( ARCH_____390_900, OPCODE( B93F ), dyn_compute_last_message_digest         );
; 5095 :   HDL_INST( ARCH_____390_900, OPCODE( B92E ), dyn_cipher_message                      );
; 5096 :   HDL_INST( ARCH_____390_900, OPCODE( B91E ), dyn_compute_message_authentication_code );
; 5097 :   HDL_INST( ARCH_____390_900, OPCODE( B92F ), dyn_cipher_message_with_chaining        );
; 5098 :   #else
; 5099 :   HDL_INST( ARCH_370_390_900, OPCODE( B93E ), dyn_compute_intermediate_message_digest );

  00009	33 c0		 xor	 eax, eax
  0000b	83 f8 01	 cmp	 eax, 1
  0000e	74 1c		 je	 SHORT $LN122@hdl_define
  00010	4c 8d 0d 00 00
	00 00		 lea	 r9, OFFSET FLAT:s370_dyn_compute_intermediate_message_digest
  00017	4c 8d 05 00 00
	00 00		 lea	 r8, OFFSET FLAT:$SG196339
  0001e	ba 3e b9 00 00	 mov	 edx, 47422		; 0000b93eH
  00023	b9 00 00 00 80	 mov	 ecx, -2147483648	; 80000000H
  00028	ff 54 24 30	 call	 QWORD PTR defins$[rsp]
$LN122@hdl_define:
  0002c	33 c0		 xor	 eax, eax
  0002e	85 c0		 test	 eax, eax
  00030	75 d7		 jne	 SHORT $LN7@hdl_define
$LN10@hdl_define:
  00032	33 c0		 xor	 eax, eax
  00034	83 f8 01	 cmp	 eax, 1
  00037	74 1c		 je	 SHORT $LN123@hdl_define
  00039	4c 8d 0d 00 00
	00 00		 lea	 r9, OFFSET FLAT:s390_dyn_compute_intermediate_message_digest
  00040	4c 8d 05 00 00
	00 00		 lea	 r8, OFFSET FLAT:$SG196341
  00047	ba 3e b9 00 00	 mov	 edx, 47422		; 0000b93eH
  0004c	b9 00 00 00 40	 mov	 ecx, 1073741824		; 40000000H
  00051	ff 54 24 30	 call	 QWORD PTR defins$[rsp]
$LN123@hdl_define:
  00055	33 c0		 xor	 eax, eax
  00057	85 c0		 test	 eax, eax
  00059	75 d7		 jne	 SHORT $LN10@hdl_define
$LN13@hdl_define:
  0005b	33 c0		 xor	 eax, eax
  0005d	83 f8 01	 cmp	 eax, 1
  00060	74 1c		 je	 SHORT $LN124@hdl_define
  00062	4c 8d 0d 00 00
	00 00		 lea	 r9, OFFSET FLAT:z900_dyn_compute_intermediate_message_digest
  00069	4c 8d 05 00 00
	00 00		 lea	 r8, OFFSET FLAT:$SG196343
  00070	ba 3e b9 00 00	 mov	 edx, 47422		; 0000b93eH
  00075	b9 00 00 00 20	 mov	 ecx, 536870912		; 20000000H
  0007a	ff 54 24 30	 call	 QWORD PTR defins$[rsp]
$LN124@hdl_define:
  0007e	33 c0		 xor	 eax, eax
  00080	85 c0		 test	 eax, eax
  00082	75 d7		 jne	 SHORT $LN13@hdl_define
  00084	33 c0		 xor	 eax, eax
  00086	85 c0		 test	 eax, eax
  00088	0f 85 7b ff ff
	ff		 jne	 $LN4@hdl_define
$LN16@hdl_define:
$LN19@hdl_define:

; 5100 :   HDL_INST( ARCH_370_390_900, OPCODE( B93F ), dyn_compute_last_message_digest         );

  0008e	33 c0		 xor	 eax, eax
  00090	83 f8 01	 cmp	 eax, 1
  00093	74 1c		 je	 SHORT $LN125@hdl_define
  00095	4c 8d 0d 00 00
	00 00		 lea	 r9, OFFSET FLAT:s370_dyn_compute_last_message_digest
  0009c	4c 8d 05 00 00
	00 00		 lea	 r8, OFFSET FLAT:$SG196345
  000a3	ba 3f b9 00 00	 mov	 edx, 47423		; 0000b93fH
  000a8	b9 00 00 00 80	 mov	 ecx, -2147483648	; 80000000H
  000ad	ff 54 24 30	 call	 QWORD PTR defins$[rsp]
$LN125@hdl_define:
  000b1	33 c0		 xor	 eax, eax
  000b3	85 c0		 test	 eax, eax
  000b5	75 d7		 jne	 SHORT $LN19@hdl_define
$LN22@hdl_define:
  000b7	33 c0		 xor	 eax, eax
  000b9	83 f8 01	 cmp	 eax, 1
  000bc	74 1c		 je	 SHORT $LN126@hdl_define
  000be	4c 8d 0d 00 00
	00 00		 lea	 r9, OFFSET FLAT:s390_dyn_compute_last_message_digest
  000c5	4c 8d 05 00 00
	00 00		 lea	 r8, OFFSET FLAT:$SG196347
  000cc	ba 3f b9 00 00	 mov	 edx, 47423		; 0000b93fH
  000d1	b9 00 00 00 40	 mov	 ecx, 1073741824		; 40000000H
  000d6	ff 54 24 30	 call	 QWORD PTR defins$[rsp]
$LN126@hdl_define:
  000da	33 c0		 xor	 eax, eax
  000dc	85 c0		 test	 eax, eax
  000de	75 d7		 jne	 SHORT $LN22@hdl_define
$LN25@hdl_define:
  000e0	33 c0		 xor	 eax, eax
  000e2	83 f8 01	 cmp	 eax, 1
  000e5	74 1c		 je	 SHORT $LN127@hdl_define
  000e7	4c 8d 0d 00 00
	00 00		 lea	 r9, OFFSET FLAT:z900_dyn_compute_last_message_digest
  000ee	4c 8d 05 00 00
	00 00		 lea	 r8, OFFSET FLAT:$SG196349
  000f5	ba 3f b9 00 00	 mov	 edx, 47423		; 0000b93fH
  000fa	b9 00 00 00 20	 mov	 ecx, 536870912		; 20000000H
  000ff	ff 54 24 30	 call	 QWORD PTR defins$[rsp]
$LN127@hdl_define:
  00103	33 c0		 xor	 eax, eax
  00105	85 c0		 test	 eax, eax
  00107	75 d7		 jne	 SHORT $LN25@hdl_define
  00109	33 c0		 xor	 eax, eax
  0010b	85 c0		 test	 eax, eax
  0010d	0f 85 7b ff ff
	ff		 jne	 $LN16@hdl_define
$LN28@hdl_define:
$LN31@hdl_define:

; 5101 :   HDL_INST( ARCH_370_390_900, OPCODE( B92E ), dyn_cipher_message                      );

  00113	33 c0		 xor	 eax, eax
  00115	83 f8 01	 cmp	 eax, 1
  00118	74 1c		 je	 SHORT $LN128@hdl_define
  0011a	4c 8d 0d 00 00
	00 00		 lea	 r9, OFFSET FLAT:s370_dyn_cipher_message
  00121	4c 8d 05 00 00
	00 00		 lea	 r8, OFFSET FLAT:$SG196351
  00128	ba 2e b9 00 00	 mov	 edx, 47406		; 0000b92eH
  0012d	b9 00 00 00 80	 mov	 ecx, -2147483648	; 80000000H
  00132	ff 54 24 30	 call	 QWORD PTR defins$[rsp]
$LN128@hdl_define:
  00136	33 c0		 xor	 eax, eax
  00138	85 c0		 test	 eax, eax
  0013a	75 d7		 jne	 SHORT $LN31@hdl_define
$LN34@hdl_define:
  0013c	33 c0		 xor	 eax, eax
  0013e	83 f8 01	 cmp	 eax, 1
  00141	74 1c		 je	 SHORT $LN129@hdl_define
  00143	4c 8d 0d 00 00
	00 00		 lea	 r9, OFFSET FLAT:s390_dyn_cipher_message
  0014a	4c 8d 05 00 00
	00 00		 lea	 r8, OFFSET FLAT:$SG196353
  00151	ba 2e b9 00 00	 mov	 edx, 47406		; 0000b92eH
  00156	b9 00 00 00 40	 mov	 ecx, 1073741824		; 40000000H
  0015b	ff 54 24 30	 call	 QWORD PTR defins$[rsp]
$LN129@hdl_define:
  0015f	33 c0		 xor	 eax, eax
  00161	85 c0		 test	 eax, eax
  00163	75 d7		 jne	 SHORT $LN34@hdl_define
$LN37@hdl_define:
  00165	33 c0		 xor	 eax, eax
  00167	83 f8 01	 cmp	 eax, 1
  0016a	74 1c		 je	 SHORT $LN130@hdl_define
  0016c	4c 8d 0d 00 00
	00 00		 lea	 r9, OFFSET FLAT:z900_dyn_cipher_message
  00173	4c 8d 05 00 00
	00 00		 lea	 r8, OFFSET FLAT:$SG196355
  0017a	ba 2e b9 00 00	 mov	 edx, 47406		; 0000b92eH
  0017f	b9 00 00 00 20	 mov	 ecx, 536870912		; 20000000H
  00184	ff 54 24 30	 call	 QWORD PTR defins$[rsp]
$LN130@hdl_define:
  00188	33 c0		 xor	 eax, eax
  0018a	85 c0		 test	 eax, eax
  0018c	75 d7		 jne	 SHORT $LN37@hdl_define
  0018e	33 c0		 xor	 eax, eax
  00190	85 c0		 test	 eax, eax
  00192	0f 85 7b ff ff
	ff		 jne	 $LN28@hdl_define
$LN40@hdl_define:
$LN43@hdl_define:

; 5102 :   HDL_INST( ARCH_370_390_900, OPCODE( B91E ), dyn_compute_message_authentication_code );

  00198	33 c0		 xor	 eax, eax
  0019a	83 f8 01	 cmp	 eax, 1
  0019d	74 1c		 je	 SHORT $LN131@hdl_define
  0019f	4c 8d 0d 00 00
	00 00		 lea	 r9, OFFSET FLAT:s370_dyn_compute_message_authentication_code
  001a6	4c 8d 05 00 00
	00 00		 lea	 r8, OFFSET FLAT:$SG196357
  001ad	ba 1e b9 00 00	 mov	 edx, 47390		; 0000b91eH
  001b2	b9 00 00 00 80	 mov	 ecx, -2147483648	; 80000000H
  001b7	ff 54 24 30	 call	 QWORD PTR defins$[rsp]
$LN131@hdl_define:
  001bb	33 c0		 xor	 eax, eax
  001bd	85 c0		 test	 eax, eax
  001bf	75 d7		 jne	 SHORT $LN43@hdl_define
$LN46@hdl_define:
  001c1	33 c0		 xor	 eax, eax
  001c3	83 f8 01	 cmp	 eax, 1
  001c6	74 1c		 je	 SHORT $LN132@hdl_define
  001c8	4c 8d 0d 00 00
	00 00		 lea	 r9, OFFSET FLAT:s390_dyn_compute_message_authentication_code
  001cf	4c 8d 05 00 00
	00 00		 lea	 r8, OFFSET FLAT:$SG196359
  001d6	ba 1e b9 00 00	 mov	 edx, 47390		; 0000b91eH
  001db	b9 00 00 00 40	 mov	 ecx, 1073741824		; 40000000H
  001e0	ff 54 24 30	 call	 QWORD PTR defins$[rsp]
$LN132@hdl_define:
  001e4	33 c0		 xor	 eax, eax
  001e6	85 c0		 test	 eax, eax
  001e8	75 d7		 jne	 SHORT $LN46@hdl_define
$LN49@hdl_define:
  001ea	33 c0		 xor	 eax, eax
  001ec	83 f8 01	 cmp	 eax, 1
  001ef	74 1c		 je	 SHORT $LN133@hdl_define
  001f1	4c 8d 0d 00 00
	00 00		 lea	 r9, OFFSET FLAT:z900_dyn_compute_message_authentication_code
  001f8	4c 8d 05 00 00
	00 00		 lea	 r8, OFFSET FLAT:$SG196361
  001ff	ba 1e b9 00 00	 mov	 edx, 47390		; 0000b91eH
  00204	b9 00 00 00 20	 mov	 ecx, 536870912		; 20000000H
  00209	ff 54 24 30	 call	 QWORD PTR defins$[rsp]
$LN133@hdl_define:
  0020d	33 c0		 xor	 eax, eax
  0020f	85 c0		 test	 eax, eax
  00211	75 d7		 jne	 SHORT $LN49@hdl_define
  00213	33 c0		 xor	 eax, eax
  00215	85 c0		 test	 eax, eax
  00217	0f 85 7b ff ff
	ff		 jne	 $LN40@hdl_define
$LN52@hdl_define:
$LN55@hdl_define:

; 5103 :   HDL_INST( ARCH_370_390_900, OPCODE( B92F ), dyn_cipher_message_with_chaining        );

  0021d	33 c0		 xor	 eax, eax
  0021f	83 f8 01	 cmp	 eax, 1
  00222	74 1c		 je	 SHORT $LN134@hdl_define
  00224	4c 8d 0d 00 00
	00 00		 lea	 r9, OFFSET FLAT:s370_dyn_cipher_message_with_chaining
  0022b	4c 8d 05 00 00
	00 00		 lea	 r8, OFFSET FLAT:$SG196363
  00232	ba 2f b9 00 00	 mov	 edx, 47407		; 0000b92fH
  00237	b9 00 00 00 80	 mov	 ecx, -2147483648	; 80000000H
  0023c	ff 54 24 30	 call	 QWORD PTR defins$[rsp]
$LN134@hdl_define:
  00240	33 c0		 xor	 eax, eax
  00242	85 c0		 test	 eax, eax
  00244	75 d7		 jne	 SHORT $LN55@hdl_define
$LN58@hdl_define:
  00246	33 c0		 xor	 eax, eax
  00248	83 f8 01	 cmp	 eax, 1
  0024b	74 1c		 je	 SHORT $LN135@hdl_define
  0024d	4c 8d 0d 00 00
	00 00		 lea	 r9, OFFSET FLAT:s390_dyn_cipher_message_with_chaining
  00254	4c 8d 05 00 00
	00 00		 lea	 r8, OFFSET FLAT:$SG196365
  0025b	ba 2f b9 00 00	 mov	 edx, 47407		; 0000b92fH
  00260	b9 00 00 00 40	 mov	 ecx, 1073741824		; 40000000H
  00265	ff 54 24 30	 call	 QWORD PTR defins$[rsp]
$LN135@hdl_define:
  00269	33 c0		 xor	 eax, eax
  0026b	85 c0		 test	 eax, eax
  0026d	75 d7		 jne	 SHORT $LN58@hdl_define
$LN61@hdl_define:
  0026f	33 c0		 xor	 eax, eax
  00271	83 f8 01	 cmp	 eax, 1
  00274	74 1c		 je	 SHORT $LN136@hdl_define
  00276	4c 8d 0d 00 00
	00 00		 lea	 r9, OFFSET FLAT:z900_dyn_cipher_message_with_chaining
  0027d	4c 8d 05 00 00
	00 00		 lea	 r8, OFFSET FLAT:$SG196367
  00284	ba 2f b9 00 00	 mov	 edx, 47407		; 0000b92fH
  00289	b9 00 00 00 20	 mov	 ecx, 536870912		; 20000000H
  0028e	ff 54 24 30	 call	 QWORD PTR defins$[rsp]
$LN136@hdl_define:
  00292	33 c0		 xor	 eax, eax
  00294	85 c0		 test	 eax, eax
  00296	75 d7		 jne	 SHORT $LN61@hdl_define
  00298	33 c0		 xor	 eax, eax
  0029a	85 c0		 test	 eax, eax
  0029c	0f 85 7b ff ff
	ff		 jne	 $LN52@hdl_define
$LN64@hdl_define:
$LN67@hdl_define:

; 5104 :   #endif
; 5105 : #endif
; 5106 : 
; 5107 : #if defined( _FEATURE_076_MSA_EXTENSION_FACILITY_3 )
; 5108 :   #if !defined( _FEATURE_370_EXTENSION )
; 5109 :   HDL_INST( ARCH_________900, OPCODE( B928 ), dyn_perform_cryptographic_key_management_operation );
; 5110 :   #else
; 5111 :   HDL_INST( ARCH_370_____900, OPCODE( B928 ), dyn_perform_cryptographic_key_management_operation );

  002a2	33 c0		 xor	 eax, eax
  002a4	83 f8 01	 cmp	 eax, 1
  002a7	74 1c		 je	 SHORT $LN137@hdl_define
  002a9	4c 8d 0d 00 00
	00 00		 lea	 r9, OFFSET FLAT:s370_dyn_perform_cryptographic_key_management_operation
  002b0	4c 8d 05 00 00
	00 00		 lea	 r8, OFFSET FLAT:$SG196369
  002b7	ba 28 b9 00 00	 mov	 edx, 47400		; 0000b928H
  002bc	b9 00 00 00 80	 mov	 ecx, -2147483648	; 80000000H
  002c1	ff 54 24 30	 call	 QWORD PTR defins$[rsp]
$LN137@hdl_define:
  002c5	33 c0		 xor	 eax, eax
  002c7	85 c0		 test	 eax, eax
  002c9	75 d7		 jne	 SHORT $LN67@hdl_define
$LN70@hdl_define:
  002cb	33 c0		 xor	 eax, eax
  002cd	85 c0		 test	 eax, eax
  002cf	74 19		 je	 SHORT $LN138@hdl_define
  002d1	4c 8d 0d 00 00
	00 00		 lea	 r9, OFFSET FLAT:s390_dyn_perform_cryptographic_key_management_operation
  002d8	4c 8d 05 00 00
	00 00		 lea	 r8, OFFSET FLAT:$SG196371
  002df	ba 28 b9 00 00	 mov	 edx, 47400		; 0000b928H
  002e4	33 c9		 xor	 ecx, ecx
  002e6	ff 54 24 30	 call	 QWORD PTR defins$[rsp]
$LN138@hdl_define:
  002ea	33 c0		 xor	 eax, eax
  002ec	85 c0		 test	 eax, eax
  002ee	75 db		 jne	 SHORT $LN70@hdl_define
$LN73@hdl_define:
  002f0	33 c0		 xor	 eax, eax
  002f2	83 f8 01	 cmp	 eax, 1
  002f5	74 1c		 je	 SHORT $LN139@hdl_define
  002f7	4c 8d 0d 00 00
	00 00		 lea	 r9, OFFSET FLAT:z900_dyn_perform_cryptographic_key_management_operation
  002fe	4c 8d 05 00 00
	00 00		 lea	 r8, OFFSET FLAT:$SG196373
  00305	ba 28 b9 00 00	 mov	 edx, 47400		; 0000b928H
  0030a	b9 00 00 00 20	 mov	 ecx, 536870912		; 20000000H
  0030f	ff 54 24 30	 call	 QWORD PTR defins$[rsp]
$LN139@hdl_define:
  00313	33 c0		 xor	 eax, eax
  00315	85 c0		 test	 eax, eax
  00317	75 d7		 jne	 SHORT $LN73@hdl_define
  00319	33 c0		 xor	 eax, eax
  0031b	85 c0		 test	 eax, eax
  0031d	75 83		 jne	 SHORT $LN64@hdl_define
$LN76@hdl_define:
$LN79@hdl_define:

; 5112 :   #endif
; 5113 : #endif
; 5114 : 
; 5115 : #if defined( _FEATURE_077_MSA_EXTENSION_FACILITY_4 )
; 5116 :   #if !defined( _FEATURE_370_EXTENSION )
; 5117 :   HDL_INST( ARCH_________900, OPCODE( B92D ), dyn_cipher_message_with_counter         );
; 5118 :   HDL_INST( ARCH_________900, OPCODE( B92A ), dyn_cipher_message_with_cipher_feedback );
; 5119 :   HDL_INST( ARCH_________900, OPCODE( B92B ), dyn_cipher_message_with_output_feedback );
; 5120 :   HDL_INST( ARCH_________900, OPCODE( B92C ), dyn_perform_cryptographic_computation   );
; 5121 :   #else
; 5122 :   HDL_INST( ARCH_370_____900, OPCODE( B92D ), dyn_cipher_message_with_counter         );

  0031f	33 c0		 xor	 eax, eax
  00321	83 f8 01	 cmp	 eax, 1
  00324	74 1c		 je	 SHORT $LN140@hdl_define
  00326	4c 8d 0d 00 00
	00 00		 lea	 r9, OFFSET FLAT:s370_dyn_cipher_message_with_counter
  0032d	4c 8d 05 00 00
	00 00		 lea	 r8, OFFSET FLAT:$SG196375
  00334	ba 2d b9 00 00	 mov	 edx, 47405		; 0000b92dH
  00339	b9 00 00 00 80	 mov	 ecx, -2147483648	; 80000000H
  0033e	ff 54 24 30	 call	 QWORD PTR defins$[rsp]
$LN140@hdl_define:
  00342	33 c0		 xor	 eax, eax
  00344	85 c0		 test	 eax, eax
  00346	75 d7		 jne	 SHORT $LN79@hdl_define
$LN82@hdl_define:
  00348	33 c0		 xor	 eax, eax
  0034a	85 c0		 test	 eax, eax
  0034c	74 19		 je	 SHORT $LN141@hdl_define
  0034e	4c 8d 0d 00 00
	00 00		 lea	 r9, OFFSET FLAT:s390_dyn_cipher_message_with_counter
  00355	4c 8d 05 00 00
	00 00		 lea	 r8, OFFSET FLAT:$SG196377
  0035c	ba 2d b9 00 00	 mov	 edx, 47405		; 0000b92dH
  00361	33 c9		 xor	 ecx, ecx
  00363	ff 54 24 30	 call	 QWORD PTR defins$[rsp]
$LN141@hdl_define:
  00367	33 c0		 xor	 eax, eax
  00369	85 c0		 test	 eax, eax
  0036b	75 db		 jne	 SHORT $LN82@hdl_define
$LN85@hdl_define:
  0036d	33 c0		 xor	 eax, eax
  0036f	83 f8 01	 cmp	 eax, 1
  00372	74 1c		 je	 SHORT $LN142@hdl_define
  00374	4c 8d 0d 00 00
	00 00		 lea	 r9, OFFSET FLAT:z900_dyn_cipher_message_with_counter
  0037b	4c 8d 05 00 00
	00 00		 lea	 r8, OFFSET FLAT:$SG196379
  00382	ba 2d b9 00 00	 mov	 edx, 47405		; 0000b92dH
  00387	b9 00 00 00 20	 mov	 ecx, 536870912		; 20000000H
  0038c	ff 54 24 30	 call	 QWORD PTR defins$[rsp]
$LN142@hdl_define:
  00390	33 c0		 xor	 eax, eax
  00392	85 c0		 test	 eax, eax
  00394	75 d7		 jne	 SHORT $LN85@hdl_define
  00396	33 c0		 xor	 eax, eax
  00398	85 c0		 test	 eax, eax
  0039a	75 83		 jne	 SHORT $LN76@hdl_define
$LN88@hdl_define:
$LN91@hdl_define:

; 5123 :   HDL_INST( ARCH_370_____900, OPCODE( B92A ), dyn_cipher_message_with_cipher_feedback );

  0039c	33 c0		 xor	 eax, eax
  0039e	83 f8 01	 cmp	 eax, 1
  003a1	74 1c		 je	 SHORT $LN143@hdl_define
  003a3	4c 8d 0d 00 00
	00 00		 lea	 r9, OFFSET FLAT:s370_dyn_cipher_message_with_cipher_feedback
  003aa	4c 8d 05 00 00
	00 00		 lea	 r8, OFFSET FLAT:$SG196381
  003b1	ba 2a b9 00 00	 mov	 edx, 47402		; 0000b92aH
  003b6	b9 00 00 00 80	 mov	 ecx, -2147483648	; 80000000H
  003bb	ff 54 24 30	 call	 QWORD PTR defins$[rsp]
$LN143@hdl_define:
  003bf	33 c0		 xor	 eax, eax
  003c1	85 c0		 test	 eax, eax
  003c3	75 d7		 jne	 SHORT $LN91@hdl_define
$LN94@hdl_define:
  003c5	33 c0		 xor	 eax, eax
  003c7	85 c0		 test	 eax, eax
  003c9	74 19		 je	 SHORT $LN144@hdl_define
  003cb	4c 8d 0d 00 00
	00 00		 lea	 r9, OFFSET FLAT:s390_dyn_cipher_message_with_cipher_feedback
  003d2	4c 8d 05 00 00
	00 00		 lea	 r8, OFFSET FLAT:$SG196383
  003d9	ba 2a b9 00 00	 mov	 edx, 47402		; 0000b92aH
  003de	33 c9		 xor	 ecx, ecx
  003e0	ff 54 24 30	 call	 QWORD PTR defins$[rsp]
$LN144@hdl_define:
  003e4	33 c0		 xor	 eax, eax
  003e6	85 c0		 test	 eax, eax
  003e8	75 db		 jne	 SHORT $LN94@hdl_define
$LN97@hdl_define:
  003ea	33 c0		 xor	 eax, eax
  003ec	83 f8 01	 cmp	 eax, 1
  003ef	74 1c		 je	 SHORT $LN145@hdl_define
  003f1	4c 8d 0d 00 00
	00 00		 lea	 r9, OFFSET FLAT:z900_dyn_cipher_message_with_cipher_feedback
  003f8	4c 8d 05 00 00
	00 00		 lea	 r8, OFFSET FLAT:$SG196385
  003ff	ba 2a b9 00 00	 mov	 edx, 47402		; 0000b92aH
  00404	b9 00 00 00 20	 mov	 ecx, 536870912		; 20000000H
  00409	ff 54 24 30	 call	 QWORD PTR defins$[rsp]
$LN145@hdl_define:
  0040d	33 c0		 xor	 eax, eax
  0040f	85 c0		 test	 eax, eax
  00411	75 d7		 jne	 SHORT $LN97@hdl_define
  00413	33 c0		 xor	 eax, eax
  00415	85 c0		 test	 eax, eax
  00417	75 83		 jne	 SHORT $LN88@hdl_define
$LN100@hdl_define:
$LN103@hdl_define:

; 5124 :   HDL_INST( ARCH_370_____900, OPCODE( B92B ), dyn_cipher_message_with_output_feedback );

  00419	33 c0		 xor	 eax, eax
  0041b	83 f8 01	 cmp	 eax, 1
  0041e	74 1c		 je	 SHORT $LN146@hdl_define
  00420	4c 8d 0d 00 00
	00 00		 lea	 r9, OFFSET FLAT:s370_dyn_cipher_message_with_output_feedback
  00427	4c 8d 05 00 00
	00 00		 lea	 r8, OFFSET FLAT:$SG196387
  0042e	ba 2b b9 00 00	 mov	 edx, 47403		; 0000b92bH
  00433	b9 00 00 00 80	 mov	 ecx, -2147483648	; 80000000H
  00438	ff 54 24 30	 call	 QWORD PTR defins$[rsp]
$LN146@hdl_define:
  0043c	33 c0		 xor	 eax, eax
  0043e	85 c0		 test	 eax, eax
  00440	75 d7		 jne	 SHORT $LN103@hdl_define
$LN106@hdl_define:
  00442	33 c0		 xor	 eax, eax
  00444	85 c0		 test	 eax, eax
  00446	74 19		 je	 SHORT $LN147@hdl_define
  00448	4c 8d 0d 00 00
	00 00		 lea	 r9, OFFSET FLAT:s390_dyn_cipher_message_with_output_feedback
  0044f	4c 8d 05 00 00
	00 00		 lea	 r8, OFFSET FLAT:$SG196389
  00456	ba 2b b9 00 00	 mov	 edx, 47403		; 0000b92bH
  0045b	33 c9		 xor	 ecx, ecx
  0045d	ff 54 24 30	 call	 QWORD PTR defins$[rsp]
$LN147@hdl_define:
  00461	33 c0		 xor	 eax, eax
  00463	85 c0		 test	 eax, eax
  00465	75 db		 jne	 SHORT $LN106@hdl_define
$LN109@hdl_define:
  00467	33 c0		 xor	 eax, eax
  00469	83 f8 01	 cmp	 eax, 1
  0046c	74 1c		 je	 SHORT $LN148@hdl_define
  0046e	4c 8d 0d 00 00
	00 00		 lea	 r9, OFFSET FLAT:z900_dyn_cipher_message_with_output_feedback
  00475	4c 8d 05 00 00
	00 00		 lea	 r8, OFFSET FLAT:$SG196391
  0047c	ba 2b b9 00 00	 mov	 edx, 47403		; 0000b92bH
  00481	b9 00 00 00 20	 mov	 ecx, 536870912		; 20000000H
  00486	ff 54 24 30	 call	 QWORD PTR defins$[rsp]
$LN148@hdl_define:
  0048a	33 c0		 xor	 eax, eax
  0048c	85 c0		 test	 eax, eax
  0048e	75 d7		 jne	 SHORT $LN109@hdl_define
  00490	33 c0		 xor	 eax, eax
  00492	85 c0		 test	 eax, eax
  00494	75 83		 jne	 SHORT $LN100@hdl_define
$LN112@hdl_define:
$LN115@hdl_define:

; 5125 :   HDL_INST( ARCH_370_____900, OPCODE( B92C ), dyn_perform_cryptographic_computation   );

  00496	33 c0		 xor	 eax, eax
  00498	83 f8 01	 cmp	 eax, 1
  0049b	74 1c		 je	 SHORT $LN149@hdl_define
  0049d	4c 8d 0d 00 00
	00 00		 lea	 r9, OFFSET FLAT:s370_dyn_perform_cryptographic_computation
  004a4	4c 8d 05 00 00
	00 00		 lea	 r8, OFFSET FLAT:$SG196393
  004ab	ba 2c b9 00 00	 mov	 edx, 47404		; 0000b92cH
  004b0	b9 00 00 00 80	 mov	 ecx, -2147483648	; 80000000H
  004b5	ff 54 24 30	 call	 QWORD PTR defins$[rsp]
$LN149@hdl_define:
  004b9	33 c0		 xor	 eax, eax
  004bb	85 c0		 test	 eax, eax
  004bd	75 d7		 jne	 SHORT $LN115@hdl_define
$LN118@hdl_define:
  004bf	33 c0		 xor	 eax, eax
  004c1	85 c0		 test	 eax, eax
  004c3	74 19		 je	 SHORT $LN150@hdl_define
  004c5	4c 8d 0d 00 00
	00 00		 lea	 r9, OFFSET FLAT:s390_dyn_perform_cryptographic_computation
  004cc	4c 8d 05 00 00
	00 00		 lea	 r8, OFFSET FLAT:$SG196395
  004d3	ba 2c b9 00 00	 mov	 edx, 47404		; 0000b92cH
  004d8	33 c9		 xor	 ecx, ecx
  004da	ff 54 24 30	 call	 QWORD PTR defins$[rsp]
$LN150@hdl_define:
  004de	33 c0		 xor	 eax, eax
  004e0	85 c0		 test	 eax, eax
  004e2	75 db		 jne	 SHORT $LN118@hdl_define
$LN121@hdl_define:
  004e4	33 c0		 xor	 eax, eax
  004e6	83 f8 01	 cmp	 eax, 1
  004e9	74 1c		 je	 SHORT $LN151@hdl_define
  004eb	4c 8d 0d 00 00
	00 00		 lea	 r9, OFFSET FLAT:z900_dyn_perform_cryptographic_computation
  004f2	4c 8d 05 00 00
	00 00		 lea	 r8, OFFSET FLAT:$SG196397
  004f9	ba 2c b9 00 00	 mov	 edx, 47404		; 0000b92cH
  004fe	b9 00 00 00 20	 mov	 ecx, 536870912		; 20000000H
  00503	ff 54 24 30	 call	 QWORD PTR defins$[rsp]
$LN151@hdl_define:
  00507	33 c0		 xor	 eax, eax
  00509	85 c0		 test	 eax, eax
  0050b	75 d7		 jne	 SHORT $LN121@hdl_define
  0050d	33 c0		 xor	 eax, eax
  0050f	85 c0		 test	 eax, eax
  00511	75 83		 jne	 SHORT $LN112@hdl_define

; 5126 :   #endif
; 5127 : #endif
; 5128 : }
; 5129 : END_INSTRUCTION_SECTION;

  00513	48 83 c4 28	 add	 rsp, 40			; 00000028H
  00517	c3		 ret	 0
hdl_define_instructs_ep ENDP
_TEXT	ENDS
; Function compile flags: /Odtp
; File C:\papa\MyGit\hyperion-zvector\dyncrypt.c
_TEXT	SEGMENT
depchk_rc$ = 32
depchk$ = 64
hdl_check_depends_ep PROC

; 5068 : HDL_DEPENDENCY_SECTION;

$LN15:
  00000	48 89 4c 24 08	 mov	 QWORD PTR [rsp+8], rcx
  00005	48 83 ec 38	 sub	 rsp, 56			; 00000038H
  00009	c7 44 24 20 00
	00 00 00	 mov	 DWORD PTR depchk_rc$[rsp], 0
$LN4@hdl_check_:

; 5069 : {
; 5070 :    HDL_DEPENDENCY(HERCULES);

  00011	41 b8 08 00 00
	00		 mov	 r8d, 8
  00017	48 8d 15 00 00
	00 00		 lea	 rdx, OFFSET FLAT:$SG196206
  0001e	48 8d 0d 00 00
	00 00		 lea	 rcx, OFFSET FLAT:$SG196207
  00025	ff 54 24 40	 call	 QWORD PTR depchk$[rsp]
  00029	85 c0		 test	 eax, eax
  0002b	74 08		 je	 SHORT $LN11@hdl_check_
  0002d	c7 44 24 20 01
	00 00 00	 mov	 DWORD PTR depchk_rc$[rsp], 1
$LN11@hdl_check_:
  00035	33 c0		 xor	 eax, eax
  00037	85 c0		 test	 eax, eax
  00039	75 d6		 jne	 SHORT $LN4@hdl_check_
$LN7@hdl_check_:

; 5071 :    HDL_DEPENDENCY(REGS);

  0003b	41 b8 80 60 01
	00		 mov	 r8d, 90240		; 00016080H
  00041	48 8d 15 00 00
	00 00		 lea	 rdx, OFFSET FLAT:$SG196209
  00048	48 8d 0d 00 00
	00 00		 lea	 rcx, OFFSET FLAT:$SG196210
  0004f	ff 54 24 40	 call	 QWORD PTR depchk$[rsp]
  00053	85 c0		 test	 eax, eax
  00055	74 08		 je	 SHORT $LN12@hdl_check_
  00057	c7 44 24 20 01
	00 00 00	 mov	 DWORD PTR depchk_rc$[rsp], 1
$LN12@hdl_check_:
  0005f	33 c0		 xor	 eax, eax
  00061	85 c0		 test	 eax, eax
  00063	75 d6		 jne	 SHORT $LN7@hdl_check_
$LN10@hdl_check_:

; 5072 : // HDL_DEPENDENCY(DEVBLK);
; 5073 :    HDL_DEPENDENCY(SYSBLK);

  00065	41 b8 00 76 01
	00		 mov	 r8d, 95744		; 00017600H
  0006b	48 8d 15 00 00
	00 00		 lea	 rdx, OFFSET FLAT:$SG196212
  00072	48 8d 0d 00 00
	00 00		 lea	 rcx, OFFSET FLAT:$SG196213
  00079	ff 54 24 40	 call	 QWORD PTR depchk$[rsp]
  0007d	85 c0		 test	 eax, eax
  0007f	74 08		 je	 SHORT $LN13@hdl_check_
  00081	c7 44 24 20 01
	00 00 00	 mov	 DWORD PTR depchk_rc$[rsp], 1
$LN13@hdl_check_:
  00089	33 c0		 xor	 eax, eax
  0008b	85 c0		 test	 eax, eax
  0008d	75 d6		 jne	 SHORT $LN10@hdl_check_

; 5074 : // HDL_DEPENDENCY(WEBBLK);
; 5075 : }
; 5076 : END_DEPENDENCY_SECTION;

  0008f	8b 44 24 20	 mov	 eax, DWORD PTR depchk_rc$[rsp]
  00093	48 83 c4 38	 add	 rsp, 56			; 00000038H
  00097	c3		 ret	 0
hdl_check_depends_ep ENDP
_TEXT	ENDS
; Function compile flags: /Odtp
; File C:\papa\MyGit\hyperion-zvector\dyncrypt.c
_TEXT	SEGMENT
msa$ = 48
i$1 = 52
tv299 = 56
tv310 = 60
tv319 = 64
fc$ = 68
tv334 = 72
r2$ = 80
r1$ = 84
query_bits$ = 96
__$ArrayPad$ = 176
inst$ = 208
regs$ = 216
z900_dyn_perform_cryptographic_key_management_operation PROC

; 4940 : {

$LN39:
  00000	48 89 54 24 10	 mov	 QWORD PTR [rsp+16], rdx
  00005	48 89 4c 24 08	 mov	 QWORD PTR [rsp+8], rcx
  0000a	48 81 ec c8 00
	00 00		 sub	 rsp, 200		; 000000c8H
  00011	48 8b 05 00 00
	00 00		 mov	 rax, QWORD PTR __security_cookie
  00018	48 33 c4	 xor	 rax, rsp
  0001b	48 89 84 24 b0
	00 00 00	 mov	 QWORD PTR __$ArrayPad$[rsp], rax

; 4941 :   int fc;
; 4942 :   int msa;
; 4943 :   BYTE query_bits[][16] =

  00023	c6 44 24 60 00	 mov	 BYTE PTR query_bits$[rsp], 0
  00028	c6 44 24 61 00	 mov	 BYTE PTR query_bits$[rsp+1], 0
  0002d	c6 44 24 62 00	 mov	 BYTE PTR query_bits$[rsp+2], 0
  00032	c6 44 24 63 00	 mov	 BYTE PTR query_bits$[rsp+3], 0
  00037	c6 44 24 64 00	 mov	 BYTE PTR query_bits$[rsp+4], 0
  0003c	c6 44 24 65 00	 mov	 BYTE PTR query_bits$[rsp+5], 0
  00041	c6 44 24 66 00	 mov	 BYTE PTR query_bits$[rsp+6], 0
  00046	c6 44 24 67 00	 mov	 BYTE PTR query_bits$[rsp+7], 0
  0004b	c6 44 24 68 00	 mov	 BYTE PTR query_bits$[rsp+8], 0
  00050	c6 44 24 69 00	 mov	 BYTE PTR query_bits$[rsp+9], 0
  00055	c6 44 24 6a 00	 mov	 BYTE PTR query_bits$[rsp+10], 0
  0005a	c6 44 24 6b 00	 mov	 BYTE PTR query_bits$[rsp+11], 0
  0005f	c6 44 24 6c 00	 mov	 BYTE PTR query_bits$[rsp+12], 0
  00064	c6 44 24 6d 00	 mov	 BYTE PTR query_bits$[rsp+13], 0
  00069	c6 44 24 6e 00	 mov	 BYTE PTR query_bits$[rsp+14], 0
  0006e	c6 44 24 6f 00	 mov	 BYTE PTR query_bits$[rsp+15], 0
  00073	c6 44 24 70 00	 mov	 BYTE PTR query_bits$[rsp+16], 0
  00078	c6 44 24 71 00	 mov	 BYTE PTR query_bits$[rsp+17], 0
  0007d	c6 44 24 72 00	 mov	 BYTE PTR query_bits$[rsp+18], 0
  00082	c6 44 24 73 00	 mov	 BYTE PTR query_bits$[rsp+19], 0
  00087	c6 44 24 74 00	 mov	 BYTE PTR query_bits$[rsp+20], 0
  0008c	c6 44 24 75 00	 mov	 BYTE PTR query_bits$[rsp+21], 0
  00091	c6 44 24 76 00	 mov	 BYTE PTR query_bits$[rsp+22], 0
  00096	c6 44 24 77 00	 mov	 BYTE PTR query_bits$[rsp+23], 0
  0009b	c6 44 24 78 00	 mov	 BYTE PTR query_bits$[rsp+24], 0
  000a0	c6 44 24 79 00	 mov	 BYTE PTR query_bits$[rsp+25], 0
  000a5	c6 44 24 7a 00	 mov	 BYTE PTR query_bits$[rsp+26], 0
  000aa	c6 44 24 7b 00	 mov	 BYTE PTR query_bits$[rsp+27], 0
  000af	c6 44 24 7c 00	 mov	 BYTE PTR query_bits$[rsp+28], 0
  000b4	c6 44 24 7d 00	 mov	 BYTE PTR query_bits$[rsp+29], 0
  000b9	c6 44 24 7e 00	 mov	 BYTE PTR query_bits$[rsp+30], 0
  000be	c6 44 24 7f 00	 mov	 BYTE PTR query_bits$[rsp+31], 0
  000c3	c6 84 24 80 00
	00 00 00	 mov	 BYTE PTR query_bits$[rsp+32], 0
  000cb	c6 84 24 81 00
	00 00 00	 mov	 BYTE PTR query_bits$[rsp+33], 0
  000d3	c6 84 24 82 00
	00 00 00	 mov	 BYTE PTR query_bits$[rsp+34], 0
  000db	c6 84 24 83 00
	00 00 00	 mov	 BYTE PTR query_bits$[rsp+35], 0
  000e3	c6 84 24 84 00
	00 00 00	 mov	 BYTE PTR query_bits$[rsp+36], 0
  000eb	c6 84 24 85 00
	00 00 00	 mov	 BYTE PTR query_bits$[rsp+37], 0
  000f3	c6 84 24 86 00
	00 00 00	 mov	 BYTE PTR query_bits$[rsp+38], 0
  000fb	c6 84 24 87 00
	00 00 00	 mov	 BYTE PTR query_bits$[rsp+39], 0
  00103	c6 84 24 88 00
	00 00 00	 mov	 BYTE PTR query_bits$[rsp+40], 0
  0010b	c6 84 24 89 00
	00 00 00	 mov	 BYTE PTR query_bits$[rsp+41], 0
  00113	c6 84 24 8a 00
	00 00 00	 mov	 BYTE PTR query_bits$[rsp+42], 0
  0011b	c6 84 24 8b 00
	00 00 00	 mov	 BYTE PTR query_bits$[rsp+43], 0
  00123	c6 84 24 8c 00
	00 00 00	 mov	 BYTE PTR query_bits$[rsp+44], 0
  0012b	c6 84 24 8d 00
	00 00 00	 mov	 BYTE PTR query_bits$[rsp+45], 0
  00133	c6 84 24 8e 00
	00 00 00	 mov	 BYTE PTR query_bits$[rsp+46], 0
  0013b	c6 84 24 8f 00
	00 00 00	 mov	 BYTE PTR query_bits$[rsp+47], 0
  00143	c6 84 24 90 00
	00 00 f0	 mov	 BYTE PTR query_bits$[rsp+48], 240 ; 000000f0H
  0014b	c6 84 24 91 00
	00 00 00	 mov	 BYTE PTR query_bits$[rsp+49], 0
  00153	c6 84 24 92 00
	00 00 38	 mov	 BYTE PTR query_bits$[rsp+50], 56 ; 00000038H
  0015b	c6 84 24 93 00
	00 00 00	 mov	 BYTE PTR query_bits$[rsp+51], 0
  00163	c6 84 24 94 00
	00 00 00	 mov	 BYTE PTR query_bits$[rsp+52], 0
  0016b	c6 84 24 95 00
	00 00 00	 mov	 BYTE PTR query_bits$[rsp+53], 0
  00173	c6 84 24 96 00
	00 00 00	 mov	 BYTE PTR query_bits$[rsp+54], 0
  0017b	c6 84 24 97 00
	00 00 00	 mov	 BYTE PTR query_bits$[rsp+55], 0
  00183	c6 84 24 98 00
	00 00 00	 mov	 BYTE PTR query_bits$[rsp+56], 0
  0018b	c6 84 24 99 00
	00 00 00	 mov	 BYTE PTR query_bits$[rsp+57], 0
  00193	c6 84 24 9a 00
	00 00 00	 mov	 BYTE PTR query_bits$[rsp+58], 0
  0019b	c6 84 24 9b 00
	00 00 00	 mov	 BYTE PTR query_bits$[rsp+59], 0
  001a3	c6 84 24 9c 00
	00 00 00	 mov	 BYTE PTR query_bits$[rsp+60], 0
  001ab	c6 84 24 9d 00
	00 00 00	 mov	 BYTE PTR query_bits$[rsp+61], 0
  001b3	c6 84 24 9e 00
	00 00 00	 mov	 BYTE PTR query_bits$[rsp+62], 0
  001bb	c6 84 24 9f 00
	00 00 00	 mov	 BYTE PTR query_bits$[rsp+63], 0
  001c3	c6 84 24 a0 00
	00 00 f0	 mov	 BYTE PTR query_bits$[rsp+64], 240 ; 000000f0H
  001cb	c6 84 24 a1 00
	00 00 00	 mov	 BYTE PTR query_bits$[rsp+65], 0
  001d3	c6 84 24 a2 00
	00 00 38	 mov	 BYTE PTR query_bits$[rsp+66], 56 ; 00000038H
  001db	c6 84 24 a3 00
	00 00 00	 mov	 BYTE PTR query_bits$[rsp+67], 0
  001e3	c6 84 24 a4 00
	00 00 00	 mov	 BYTE PTR query_bits$[rsp+68], 0
  001eb	c6 84 24 a5 00
	00 00 00	 mov	 BYTE PTR query_bits$[rsp+69], 0
  001f3	c6 84 24 a6 00
	00 00 00	 mov	 BYTE PTR query_bits$[rsp+70], 0
  001fb	c6 84 24 a7 00
	00 00 00	 mov	 BYTE PTR query_bits$[rsp+71], 0
  00203	c6 84 24 a8 00
	00 00 00	 mov	 BYTE PTR query_bits$[rsp+72], 0
  0020b	c6 84 24 a9 00
	00 00 00	 mov	 BYTE PTR query_bits$[rsp+73], 0
  00213	c6 84 24 aa 00
	00 00 00	 mov	 BYTE PTR query_bits$[rsp+74], 0
  0021b	c6 84 24 ab 00
	00 00 00	 mov	 BYTE PTR query_bits$[rsp+75], 0
  00223	c6 84 24 ac 00
	00 00 00	 mov	 BYTE PTR query_bits$[rsp+76], 0
  0022b	c6 84 24 ad 00
	00 00 00	 mov	 BYTE PTR query_bits$[rsp+77], 0
  00233	c6 84 24 ae 00
	00 00 00	 mov	 BYTE PTR query_bits$[rsp+78], 0
  0023b	c6 84 24 af 00
	00 00 00	 mov	 BYTE PTR query_bits$[rsp+79], 0

; 4944 :   {
; 4945 :     { 0, 0, 0, 0, 0, 0, 0, 0, 0, 0, 0, 0, 0, 0, 0, 0 },
; 4946 :     { 0, 0, 0, 0, 0, 0, 0, 0, 0, 0, 0, 0, 0, 0, 0, 0 },
; 4947 :     { 0, 0, 0, 0, 0, 0, 0, 0, 0, 0, 0, 0, 0, 0, 0, 0 },
; 4948 :     { 0xf0, 0x00, 0x38, 0x00, 0x00, 0x00, 0x00, 0x00, 0x00, 0x00, 0x00, 0x00, 0x00, 0x00, 0x00, 0x00 },
; 4949 :     /**/ { 0xf0, 0x00, 0x38, 0x00, 0x00, 0x00, 0x00, 0x00, 0x00, 0x00, 0x00, 0x00, 0x00, 0x00, 0x00, 0x00 }
; 4950 :   };
; 4951 :   int r1;
; 4952 :   int r2;
; 4953 : 
; 4954 :   RRE(inst, regs, r1, r2);

  00243	b8 01 00 00 00	 mov	 eax, 1
  00248	48 6b c0 03	 imul	 rax, rax, 3
  0024c	48 8b 8c 24 d0
	00 00 00	 mov	 rcx, QWORD PTR inst$[rsp]
  00254	0f b6 04 01	 movzx	 eax, BYTE PTR [rcx+rax]
  00258	89 44 24 34	 mov	 DWORD PTR i$1[rsp], eax
  0025c	8b 44 24 34	 mov	 eax, DWORD PTR i$1[rsp]
  00260	83 e0 0f	 and	 eax, 15
  00263	89 44 24 50	 mov	 DWORD PTR r2$[rsp], eax
  00267	8b 44 24 34	 mov	 eax, DWORD PTR i$1[rsp]
  0026b	c1 f8 04	 sar	 eax, 4
  0026e	83 e0 0f	 and	 eax, 15
  00271	89 44 24 54	 mov	 DWORD PTR r1$[rsp], eax
$LN4@z900_dyn_p:
  00275	48 8b 84 24 d8
	00 00 00	 mov	 rax, QWORD PTR regs$[rsp]
  0027d	48 8b 40 68	 mov	 rax, QWORD PTR [rax+104]
  00281	48 83 c0 04	 add	 rax, 4
  00285	48 8b 8c 24 d8
	00 00 00	 mov	 rcx, QWORD PTR regs$[rsp]
  0028d	48 89 41 68	 mov	 QWORD PTR [rcx+104], rax
  00291	33 c0		 xor	 eax, eax
  00293	83 f8 04	 cmp	 eax, 4
  00296	74 0f		 je	 SHORT $LN10@z900_dyn_p
  00298	48 8b 84 24 d8
	00 00 00	 mov	 rax, QWORD PTR regs$[rsp]
  002a0	c6 80 9a 00 00
	00 04		 mov	 BYTE PTR [rax+154], 4
$LN10@z900_dyn_p:
  002a7	33 c0		 xor	 eax, eax
  002a9	85 c0		 test	 eax, eax
  002ab	75 c8		 jne	 SHORT $LN4@z900_dyn_p

; 4955 :   PER_ZEROADDR_CHECK( regs, 1 );

  002ad	ba 01 00 00 00	 mov	 edx, 1
  002b2	48 8b 8c 24 d8
	00 00 00	 mov	 rcx, QWORD PTR regs$[rsp]
  002ba	e8 00 00 00 00	 call	 z900_per3_zero_check
$LN7@z900_dyn_p:

; 4956 :   TXF_INSTR_CHECK( regs );

  002bf	48 8b 84 24 d8
	00 00 00	 mov	 rax, QWORD PTR regs$[rsp]
  002c7	0f b6 80 58 0e
	00 00		 movzx	 eax, BYTE PTR [rax+3672]
  002ce	85 c0		 test	 eax, eax
  002d0	74 40		 je	 SHORT $LN11@z900_dyn_p
  002d2	48 8b 84 24 d8
	00 00 00	 mov	 rax, QWORD PTR regs$[rsp]
  002da	8b 80 84 af 00
	00		 mov	 eax, DWORD PTR [rax+44932]
  002e0	0f ba e8 0c	 bts	 eax, 12
  002e4	48 8b 8c 24 d8
	00 00 00	 mov	 rcx, QWORD PTR regs$[rsp]
  002ec	89 81 84 af 00
	00		 mov	 DWORD PTR [rcx+44932], eax
  002f2	4c 8d 0d 00 00
	00 00		 lea	 r9, OFFSET FLAT:$SG196173
  002f9	41 b8 0b 00 00
	00		 mov	 r8d, 11
  002ff	ba 02 00 00 00	 mov	 edx, 2
  00304	48 8b 8c 24 d8
	00 00 00	 mov	 rcx, QWORD PTR regs$[rsp]
  0030c	ff 15 00 00 00
	00		 call	 QWORD PTR __imp_z900_abort_transaction
$LN11@z900_dyn_p:
  00312	33 c0		 xor	 eax, eax
  00314	85 c0		 test	 eax, eax
  00316	75 a7		 jne	 SHORT $LN7@z900_dyn_p

; 4957 : 
; 4958 :   /* The following is the same as doing a FACILITY_CHECK */
; 4959 :   msa = get_msa(regs);

  00318	48 8b 8c 24 d8
	00 00 00	 mov	 rcx, QWORD PTR regs$[rsp]
  00320	e8 00 00 00 00	 call	 get_msa
  00325	89 44 24 30	 mov	 DWORD PTR msa$[rsp], eax

; 4960 :   if(msa < 3)

  00329	83 7c 24 30 03	 cmp	 DWORD PTR msa$[rsp], 3
  0032e	7d 13		 jge	 SHORT $LN12@z900_dyn_p

; 4961 :     ARCH_DEP(program_interrupt)(regs, PGM_OPERATION_EXCEPTION);

  00330	ba 01 00 00 00	 mov	 edx, 1
  00335	48 8b 8c 24 d8
	00 00 00	 mov	 rcx, QWORD PTR regs$[rsp]
  0033d	ff 15 00 00 00
	00		 call	 QWORD PTR __imp_z900_program_interrupt
$LN12@z900_dyn_p:

; 4962 : 
; 4963 : #ifdef OPTION_PCKMO_DEBUG
; 4964 :   WRMSG(HHC90100, "D", "PCKMO: perform cryptographic key management operation");
; 4965 :   WRMSG(HHC90104, "D", 0, regs->GR(0));
; 4966 :   WRMSG(HHC90105, "D", TRUEFALSE(GR0_m(regs)));
; 4967 :   WRMSG(HHC90106, "D", GR0_fc(regs));
; 4968 :   WRMSG(HHC90104, "D", 1, regs->GR(1));
; 4969 : #endif /* #ifdef OPTION_PCKMO_DEBUG */
; 4970 : 
; 4971 :   /* Privileged operation */
; 4972 :   PRIV_CHECK(regs);

  00343	48 8b 84 24 d8
	00 00 00	 mov	 rax, QWORD PTR regs$[rsp]
  0034b	0f b6 40 7a	 movzx	 eax, BYTE PTR [rax+122]
  0034f	83 e0 01	 and	 eax, 1
  00352	85 c0		 test	 eax, eax
  00354	74 1b		 je	 SHORT $LN13@z900_dyn_p
  00356	ba 02 00 00 00	 mov	 edx, 2
  0035b	48 8b 8c 24 d8
	00 00 00	 mov	 rcx, QWORD PTR regs$[rsp]
  00363	48 8b 84 24 d8
	00 00 00	 mov	 rax, QWORD PTR regs$[rsp]
  0036b	ff 90 20 0d 00
	00		 call	 QWORD PTR [rax+3360]
$LN13@z900_dyn_p:

; 4973 : 
; 4974 :   /* Check special conditions */
; 4975 :   if(unlikely(GR0_m(regs)))

  00371	b8 08 00 00 00	 mov	 eax, 8
  00376	48 6b c0 00	 imul	 rax, rax, 0
  0037a	48 8b 8c 24 d8
	00 00 00	 mov	 rcx, QWORD PTR regs$[rsp]
  00382	8b 84 01 80 02
	00 00		 mov	 eax, DWORD PTR [rcx+rax+640]
  00389	25 80 00 00 00	 and	 eax, 128		; 00000080H
  0038e	85 c0		 test	 eax, eax
  00390	74 0a		 je	 SHORT $LN28@z900_dyn_p
  00392	c7 44 24 38 01
	00 00 00	 mov	 DWORD PTR tv299[rsp], 1
  0039a	eb 08		 jmp	 SHORT $LN29@z900_dyn_p
$LN28@z900_dyn_p:
  0039c	c7 44 24 38 00
	00 00 00	 mov	 DWORD PTR tv299[rsp], 0
$LN29@z900_dyn_p:
  003a4	83 7c 24 38 00	 cmp	 DWORD PTR tv299[rsp], 0
  003a9	74 0a		 je	 SHORT $LN34@z900_dyn_p
  003ab	c7 44 24 3c 01
	00 00 00	 mov	 DWORD PTR tv310[rsp], 1
  003b3	eb 08		 jmp	 SHORT $LN35@z900_dyn_p
$LN34@z900_dyn_p:
  003b5	c7 44 24 3c 00
	00 00 00	 mov	 DWORD PTR tv310[rsp], 0
$LN35@z900_dyn_p:
  003bd	83 7c 24 3c 00	 cmp	 DWORD PTR tv310[rsp], 0
  003c2	74 13		 je	 SHORT $LN14@z900_dyn_p

; 4976 :     ARCH_DEP(program_interrupt)(regs, PGM_SPECIFICATION_EXCEPTION);

  003c4	ba 06 00 00 00	 mov	 edx, 6
  003c9	48 8b 8c 24 d8
	00 00 00	 mov	 rcx, QWORD PTR regs$[rsp]
  003d1	ff 15 00 00 00
	00		 call	 QWORD PTR __imp_z900_program_interrupt
$LN14@z900_dyn_p:

; 4977 : 
; 4978 :   /* Initialize values */
; 4979 :   fc = GR0_fc(regs);

  003d7	b8 08 00 00 00	 mov	 eax, 8
  003dc	48 6b c0 00	 imul	 rax, rax, 0
  003e0	48 8b 8c 24 d8
	00 00 00	 mov	 rcx, QWORD PTR regs$[rsp]
  003e8	8b 84 01 80 02
	00 00		 mov	 eax, DWORD PTR [rcx+rax+640]
  003ef	83 e0 7f	 and	 eax, 127		; 0000007fH
  003f2	89 44 24 44	 mov	 DWORD PTR fc$[rsp], eax

; 4980 :   switch(fc)

  003f6	8b 44 24 44	 mov	 eax, DWORD PTR fc$[rsp]
  003fa	89 44 24 40	 mov	 DWORD PTR tv319[rsp], eax
  003fe	83 7c 24 40 14	 cmp	 DWORD PTR tv319[rsp], 20
  00403	0f 87 07 01 00
	00		 ja	 $LN26@z900_dyn_p
  00409	48 63 44 24 40	 movsxd	 rax, DWORD PTR tv319[rsp]
  0040e	48 8d 0d 00 00
	00 00		 lea	 rcx, OFFSET FLAT:__ImageBase
  00415	8b 84 81 00 00
	00 00		 mov	 eax, DWORD PTR $LN38@z900_dyn_p[rcx+rax*4]
  0041c	48 03 c1	 add	 rax, rcx
  0041f	ff e0		 jmp	 rax
$LN15@z900_dyn_p:

; 4981 :   {
; 4982 :     case 0: /* Query */
; 4983 :     {
; 4984 :       /* Store the parameter block */
; 4985 :       ARCH_DEP(vstorec)(query_bits[msa], 15, GR_A(1, regs) & ADDRESS_MAXWRAP(regs), 1, regs);

  00421	48 8b 84 24 d8
	00 00 00	 mov	 rax, QWORD PTR regs$[rsp]
  00429	8b 80 80 00 00
	00		 mov	 eax, DWORD PTR [rax+128]
  0042f	83 e0 01	 and	 eax, 1
  00432	85 c0		 test	 eax, eax
  00434	74 20		 je	 SHORT $LN36@z900_dyn_p
  00436	b8 08 00 00 00	 mov	 eax, 8
  0043b	48 6b c0 01	 imul	 rax, rax, 1
  0043f	48 8b 8c 24 d8
	00 00 00	 mov	 rcx, QWORD PTR regs$[rsp]
  00447	48 8b 84 01 80
	02 00 00	 mov	 rax, QWORD PTR [rcx+rax+640]
  0044f	48 89 44 24 48	 mov	 QWORD PTR tv334[rsp], rax
  00454	eb 1d		 jmp	 SHORT $LN37@z900_dyn_p
$LN36@z900_dyn_p:
  00456	b8 08 00 00 00	 mov	 eax, 8
  0045b	48 6b c0 01	 imul	 rax, rax, 1
  0045f	48 8b 8c 24 d8
	00 00 00	 mov	 rcx, QWORD PTR regs$[rsp]
  00467	8b 84 01 80 02
	00 00		 mov	 eax, DWORD PTR [rcx+rax+640]
  0046e	48 89 44 24 48	 mov	 QWORD PTR tv334[rsp], rax
$LN37@z900_dyn_p:
  00473	48 8b 84 24 d8
	00 00 00	 mov	 rax, QWORD PTR regs$[rsp]
  0047b	48 8b 80 90 00
	00 00		 mov	 rax, QWORD PTR [rax+144]
  00482	48 8b 4c 24 48	 mov	 rcx, QWORD PTR tv334[rsp]
  00487	48 23 c8	 and	 rcx, rax
  0048a	48 8b c1	 mov	 rax, rcx
  0048d	48 63 4c 24 30	 movsxd	 rcx, DWORD PTR msa$[rsp]
  00492	48 6b c9 10	 imul	 rcx, rcx, 16
  00496	48 8d 4c 0c 60	 lea	 rcx, QWORD PTR query_bits$[rsp+rcx]
  0049b	48 8b 94 24 d8
	00 00 00	 mov	 rdx, QWORD PTR regs$[rsp]
  004a3	48 89 54 24 20	 mov	 QWORD PTR [rsp+32], rdx
  004a8	41 b9 01 00 00
	00		 mov	 r9d, 1
  004ae	4c 8b c0	 mov	 r8, rax
  004b1	b2 0f		 mov	 dl, 15
  004b3	e8 00 00 00 00	 call	 z900_vstorec

; 4986 : 
; 4987 : #ifdef OPTION_PCKMO_DEBUG
; 4988 :       LOGBYTE("output:", query_bits[msa], 16);
; 4989 : #endif /* #ifdef OPTION_PCKMO_DEBUG */
; 4990 : 
; 4991 :       return;

  004b8	eb 69		 jmp	 SHORT $LN1@z900_dyn_p
$LN16@z900_dyn_p:
$LN17@z900_dyn_p:
$LN18@z900_dyn_p:

; 4992 :     }
; 4993 :     case 1: /* encrypt-dea */
; 4994 :     case 2: /* encrypt-tdea-128 */
; 4995 :     case 3: /* encrypt-tdea-192 */
; 4996 :     {
; 4997 :       if(msa >= 3)

  004ba	83 7c 24 30 03	 cmp	 DWORD PTR msa$[rsp], 3
  004bf	7c 0f		 jl	 SHORT $LN19@z900_dyn_p

; 4998 :         ARCH_DEP(pckmo_dea)(regs);

  004c1	48 8b 8c 24 d8
	00 00 00	 mov	 rcx, QWORD PTR regs$[rsp]
  004c9	e8 00 00 00 00	 call	 z900_pckmo_dea
  004ce	eb 13		 jmp	 SHORT $LN20@z900_dyn_p
$LN19@z900_dyn_p:

; 4999 :       else
; 5000 :         ARCH_DEP(program_interrupt)(regs, PGM_SPECIFICATION_EXCEPTION);

  004d0	ba 06 00 00 00	 mov	 edx, 6
  004d5	48 8b 8c 24 d8
	00 00 00	 mov	 rcx, QWORD PTR regs$[rsp]
  004dd	ff 15 00 00 00
	00		 call	 QWORD PTR __imp_z900_program_interrupt
$LN20@z900_dyn_p:

; 5001 :       break;

  004e3	eb 3e		 jmp	 SHORT $LN8@z900_dyn_p
$LN21@z900_dyn_p:
$LN22@z900_dyn_p:
$LN23@z900_dyn_p:

; 5002 :     }
; 5003 :     case 18: /* encrypt-aes-128 */
; 5004 :     case 19: /* encrypt-aes-192 */
; 5005 :     case 20: /* encrypt-aes-256 */
; 5006 :     {
; 5007 :       if(msa >= 3)

  004e5	83 7c 24 30 03	 cmp	 DWORD PTR msa$[rsp], 3
  004ea	7c 0f		 jl	 SHORT $LN24@z900_dyn_p

; 5008 :         ARCH_DEP(pckmo_aes)(regs);

  004ec	48 8b 8c 24 d8
	00 00 00	 mov	 rcx, QWORD PTR regs$[rsp]
  004f4	e8 00 00 00 00	 call	 z900_pckmo_aes
  004f9	eb 13		 jmp	 SHORT $LN25@z900_dyn_p
$LN24@z900_dyn_p:

; 5009 :       else
; 5010 :         ARCH_DEP(program_interrupt)(regs, PGM_SPECIFICATION_EXCEPTION);

  004fb	ba 06 00 00 00	 mov	 edx, 6
  00500	48 8b 8c 24 d8
	00 00 00	 mov	 rcx, QWORD PTR regs$[rsp]
  00508	ff 15 00 00 00
	00		 call	 QWORD PTR __imp_z900_program_interrupt
$LN25@z900_dyn_p:

; 5011 :       break;

  0050e	eb 13		 jmp	 SHORT $LN8@z900_dyn_p
$LN26@z900_dyn_p:

; 5012 :     }
; 5013 :     default:
; 5014 :     {
; 5015 :       ARCH_DEP(program_interrupt)(regs, PGM_SPECIFICATION_EXCEPTION);

  00510	ba 06 00 00 00	 mov	 edx, 6
  00515	48 8b 8c 24 d8
	00 00 00	 mov	 rcx, QWORD PTR regs$[rsp]
  0051d	ff 15 00 00 00
	00		 call	 QWORD PTR __imp_z900_program_interrupt
$LN8@z900_dyn_p:
$LN1@z900_dyn_p:

; 5016 :       break;
; 5017 :     }
; 5018 :   }
; 5019 : }

  00523	48 8b 8c 24 b0
	00 00 00	 mov	 rcx, QWORD PTR __$ArrayPad$[rsp]
  0052b	48 33 cc	 xor	 rcx, rsp
  0052e	e8 00 00 00 00	 call	 __security_check_cookie
  00533	48 81 c4 c8 00
	00 00		 add	 rsp, 200		; 000000c8H
  0053a	c3		 ret	 0
  0053b	90		 npad	 1
$LN38@z900_dyn_p:
  0053c	00 00 00 00	 DD	 $LN15@z900_dyn_p
  00540	00 00 00 00	 DD	 $LN16@z900_dyn_p
  00544	00 00 00 00	 DD	 $LN17@z900_dyn_p
  00548	00 00 00 00	 DD	 $LN18@z900_dyn_p
  0054c	00 00 00 00	 DD	 $LN26@z900_dyn_p
  00550	00 00 00 00	 DD	 $LN26@z900_dyn_p
  00554	00 00 00 00	 DD	 $LN26@z900_dyn_p
  00558	00 00 00 00	 DD	 $LN26@z900_dyn_p
  0055c	00 00 00 00	 DD	 $LN26@z900_dyn_p
  00560	00 00 00 00	 DD	 $LN26@z900_dyn_p
  00564	00 00 00 00	 DD	 $LN26@z900_dyn_p
  00568	00 00 00 00	 DD	 $LN26@z900_dyn_p
  0056c	00 00 00 00	 DD	 $LN26@z900_dyn_p
  00570	00 00 00 00	 DD	 $LN26@z900_dyn_p
  00574	00 00 00 00	 DD	 $LN26@z900_dyn_p
  00578	00 00 00 00	 DD	 $LN26@z900_dyn_p
  0057c	00 00 00 00	 DD	 $LN26@z900_dyn_p
  00580	00 00 00 00	 DD	 $LN26@z900_dyn_p
  00584	00 00 00 00	 DD	 $LN21@z900_dyn_p
  00588	00 00 00 00	 DD	 $LN22@z900_dyn_p
  0058c	00 00 00 00	 DD	 $LN23@z900_dyn_p
z900_dyn_perform_cryptographic_key_management_operation ENDP
_TEXT	ENDS
; Function compile flags: /Odtp
; File C:\papa\MyGit\hyperion-zvector\dyncrypt.c
_TEXT	SEGMENT
msa$ = 48
tv84 = 52
tv131 = 56
inst$ = 80
regs$ = 88
z900_dyn_perform_cryptographic_computation PROC

; 4870 : {

$LN37:
  00000	48 89 54 24 10	 mov	 QWORD PTR [rsp+16], rdx
  00005	48 89 4c 24 08	 mov	 QWORD PTR [rsp+8], rcx
  0000a	48 83 ec 48	 sub	 rsp, 72			; 00000048H

; 4871 :   int msa = get_msa(regs);

  0000e	48 8b 4c 24 58	 mov	 rcx, QWORD PTR regs$[rsp]
  00013	e8 00 00 00 00	 call	 get_msa
  00018	89 44 24 30	 mov	 DWORD PTR msa$[rsp], eax
$LN4@z900_dyn_p:

; 4872 :   static const BYTE query_bits[][16] =
; 4873 :   {
; 4874 :     { 0xf0, 0x70, 0x38, 0x38, 0x00, 0x00, 0x28, 0x28, 0x00, 0x00, 0x00, 0x00, 0x00, 0x00, 0x00, 0x00 }
; 4875 :   };
; 4876 : 
; 4877 :   UNREFERENCED(inst);              /* This operation has no operands */

  0001c	33 c0		 xor	 eax, eax
  0001e	85 c0		 test	 eax, eax
  00020	75 fa		 jne	 SHORT $LN4@z900_dyn_p
$LN7@z900_dyn_p:

; 4878 :   INST_UPDATE_PSW(regs, 4, 4);        /* All operands implied        */

  00022	48 8b 44 24 58	 mov	 rax, QWORD PTR regs$[rsp]
  00027	48 8b 40 68	 mov	 rax, QWORD PTR [rax+104]
  0002b	48 83 c0 04	 add	 rax, 4
  0002f	48 8b 4c 24 58	 mov	 rcx, QWORD PTR regs$[rsp]
  00034	48 89 41 68	 mov	 QWORD PTR [rcx+104], rax
  00038	33 c0		 xor	 eax, eax
  0003a	83 f8 04	 cmp	 eax, 4
  0003d	74 0c		 je	 SHORT $LN10@z900_dyn_p
  0003f	48 8b 44 24 58	 mov	 rax, QWORD PTR regs$[rsp]
  00044	c6 80 9a 00 00
	00 04		 mov	 BYTE PTR [rax+154], 4
$LN10@z900_dyn_p:
  0004b	33 c0		 xor	 eax, eax
  0004d	85 c0		 test	 eax, eax
  0004f	75 d1		 jne	 SHORT $LN7@z900_dyn_p

; 4879 :   PER_ZEROADDR_CHECK( regs, 1 );

  00051	ba 01 00 00 00	 mov	 edx, 1
  00056	48 8b 4c 24 58	 mov	 rcx, QWORD PTR regs$[rsp]
  0005b	e8 00 00 00 00	 call	 z900_per3_zero_check

; 4880 : 
; 4881 :   /* The following is the same as doing a FACILITY_CHECK */
; 4882 :   if(msa < 4)

  00060	83 7c 24 30 04	 cmp	 DWORD PTR msa$[rsp], 4
  00065	7d 12		 jge	 SHORT $LN11@z900_dyn_p

; 4883 :     ARCH_DEP(program_interrupt)(regs, PGM_OPERATION_EXCEPTION);

  00067	ba 01 00 00 00	 mov	 edx, 1
  0006c	48 8b 4c 24 58	 mov	 rcx, QWORD PTR regs$[rsp]
  00071	ff 15 00 00 00
	00		 call	 QWORD PTR __imp_z900_program_interrupt
  00077	eb 0f		 jmp	 SHORT $LN12@z900_dyn_p
$LN11@z900_dyn_p:

; 4884 :   else if (msa > 4) msa = 4;

  00079	83 7c 24 30 04	 cmp	 DWORD PTR msa$[rsp], 4
  0007e	7e 08		 jle	 SHORT $LN13@z900_dyn_p
  00080	c7 44 24 30 04
	00 00 00	 mov	 DWORD PTR msa$[rsp], 4
$LN13@z900_dyn_p:
$LN12@z900_dyn_p:

; 4885 : 
; 4886 : #ifdef OPTION_PCC_DEBUG
; 4887 :   WRMSG(HHC90100, "D", "PCC: perform cryptographic computation");
; 4888 :   WRMSG(HHC90104, "D", 0, regs->GR(0));
; 4889 :   WRMSG(HHC90106, "D", GR0_fc(regs));
; 4890 :   WRMSG(HHC90104, "D", 1, regs->GR(1));
; 4891 : #endif /* #ifdef OPTION_PCC_DEBUG */
; 4892 : 
; 4893 :   switch(GR0_fc(regs))

  00088	b8 08 00 00 00	 mov	 eax, 8
  0008d	48 6b c0 00	 imul	 rax, rax, 0
  00091	48 8b 4c 24 58	 mov	 rcx, QWORD PTR regs$[rsp]
  00096	8b 84 01 80 02
	00 00		 mov	 eax, DWORD PTR [rcx+rax+640]
  0009d	83 e0 7f	 and	 eax, 127		; 0000007fH
  000a0	89 44 24 34	 mov	 DWORD PTR tv84[rsp], eax
  000a4	83 7c 24 34 3c	 cmp	 DWORD PTR tv84[rsp], 60	; 0000003cH
  000a9	0f 87 e3 00 00
	00		 ja	 $LN31@z900_dyn_p
  000af	8b 44 24 34	 mov	 eax, DWORD PTR tv84[rsp]
  000b3	48 8d 0d 00 00
	00 00		 lea	 rcx, OFFSET FLAT:__ImageBase
  000ba	0f b6 84 01 00
	00 00 00	 movzx	 eax, BYTE PTR $LN35@z900_dyn_p[rcx+rax]
  000c2	8b 84 81 00 00
	00 00		 mov	 eax, DWORD PTR $LN36@z900_dyn_p[rcx+rax*4]
  000c9	48 03 c1	 add	 rax, rcx
  000cc	ff e0		 jmp	 rax
$LN14@z900_dyn_p:

; 4894 :   {
; 4895 :     case 0: /* Query */
; 4896 :       /* Store the parameter block */
; 4897 :       ARCH_DEP(vstorec)(query_bits[msa - 4], 15, GR_A(1, regs) & ADDRESS_MAXWRAP(regs), 1, regs);

  000ce	48 8b 44 24 58	 mov	 rax, QWORD PTR regs$[rsp]
  000d3	8b 80 80 00 00
	00		 mov	 eax, DWORD PTR [rax+128]
  000d9	83 e0 01	 and	 eax, 1
  000dc	85 c0		 test	 eax, eax
  000de	74 1d		 je	 SHORT $LN33@z900_dyn_p
  000e0	b8 08 00 00 00	 mov	 eax, 8
  000e5	48 6b c0 01	 imul	 rax, rax, 1
  000e9	48 8b 4c 24 58	 mov	 rcx, QWORD PTR regs$[rsp]
  000ee	48 8b 84 01 80
	02 00 00	 mov	 rax, QWORD PTR [rcx+rax+640]
  000f6	48 89 44 24 38	 mov	 QWORD PTR tv131[rsp], rax
  000fb	eb 1a		 jmp	 SHORT $LN34@z900_dyn_p
$LN33@z900_dyn_p:
  000fd	b8 08 00 00 00	 mov	 eax, 8
  00102	48 6b c0 01	 imul	 rax, rax, 1
  00106	48 8b 4c 24 58	 mov	 rcx, QWORD PTR regs$[rsp]
  0010b	8b 84 01 80 02
	00 00		 mov	 eax, DWORD PTR [rcx+rax+640]
  00112	48 89 44 24 38	 mov	 QWORD PTR tv131[rsp], rax
$LN34@z900_dyn_p:
  00117	48 8b 44 24 58	 mov	 rax, QWORD PTR regs$[rsp]
  0011c	48 8b 80 90 00
	00 00		 mov	 rax, QWORD PTR [rax+144]
  00123	48 8b 4c 24 38	 mov	 rcx, QWORD PTR tv131[rsp]
  00128	48 23 c8	 and	 rcx, rax
  0012b	48 8b c1	 mov	 rax, rcx
  0012e	8b 4c 24 30	 mov	 ecx, DWORD PTR msa$[rsp]
  00132	83 e9 04	 sub	 ecx, 4
  00135	48 63 c9	 movsxd	 rcx, ecx
  00138	48 6b c9 10	 imul	 rcx, rcx, 16
  0013c	48 8d 15 00 00
	00 00		 lea	 rdx, OFFSET FLAT:?query_bits@?1??z900_dyn_perform_cryptographic_computation@@9@9
  00143	48 03 d1	 add	 rdx, rcx
  00146	48 8b ca	 mov	 rcx, rdx
  00149	48 8b 54 24 58	 mov	 rdx, QWORD PTR regs$[rsp]
  0014e	48 89 54 24 20	 mov	 QWORD PTR [rsp+32], rdx
  00153	41 b9 01 00 00
	00		 mov	 r9d, 1
  00159	4c 8b c0	 mov	 r8, rax
  0015c	b2 0f		 mov	 dl, 15
  0015e	e8 00 00 00 00	 call	 z900_vstorec

; 4898 : 
; 4899 : #ifdef OPTION_PCC_DEBUG
; 4900 :       LOGBYTE("output:", query_bits[msa - 4], 16);
; 4901 : #endif /* #ifdef OPTION_PCC_DEBUG */
; 4902 : 
; 4903 :       /* Set condition code 0 */
; 4904 :       regs->psw.cc = 0;

  00163	48 8b 44 24 58	 mov	 rax, QWORD PTR regs$[rsp]
  00168	c6 40 7c 00	 mov	 BYTE PTR [rax+124], 0

; 4905 :       return;

  0016c	eb 34		 jmp	 SHORT $LN1@z900_dyn_p
$LN15@z900_dyn_p:
$LN16@z900_dyn_p:
$LN17@z900_dyn_p:
$LN18@z900_dyn_p:
$LN19@z900_dyn_p:
$LN20@z900_dyn_p:

; 4906 :     case  1: /* dea */
; 4907 :     case  2: /* tdea-128 */
; 4908 :     case  3: /* tdea-192 */
; 4909 :     case  9: /* encrypted dea */
; 4910 :     case 10: /* encrypted tdea-128 */
; 4911 :     case 11: /* encrypted tdea-192 */
; 4912 :       ARCH_DEP(pcc_cmac_dea)(regs);

  0016e	48 8b 4c 24 58	 mov	 rcx, QWORD PTR regs$[rsp]
  00173	e8 00 00 00 00	 call	 z900_pcc_cmac_dea

; 4913 :       break;

  00178	eb 28		 jmp	 SHORT $LN8@z900_dyn_p
$LN21@z900_dyn_p:
$LN22@z900_dyn_p:
$LN23@z900_dyn_p:
$LN24@z900_dyn_p:
$LN25@z900_dyn_p:
$LN26@z900_dyn_p:

; 4914 :     case 18: /* aes-128 */
; 4915 :     case 19: /* aes-192 */
; 4916 :     case 20: /* aes-256 */
; 4917 :     case 26: /* encrypted aes-128 */
; 4918 :     case 27: /* encrypted aes-192 */
; 4919 :     case 28: /* encrypted aes-256 */
; 4920 :       ARCH_DEP(pcc_cmac_aes)(regs);

  0017a	48 8b 4c 24 58	 mov	 rcx, QWORD PTR regs$[rsp]
  0017f	e8 00 00 00 00	 call	 z900_pcc_cmac_aes

; 4921 :       break;

  00184	eb 1c		 jmp	 SHORT $LN8@z900_dyn_p
$LN27@z900_dyn_p:
$LN28@z900_dyn_p:
$LN29@z900_dyn_p:
$LN30@z900_dyn_p:

; 4922 :     case 50: /* aes-128 */
; 4923 :     case 52: /* aes-256 */
; 4924 :     case 58: /* encrypted aes-128 */
; 4925 :     case 60: /* encrypted aes-256 */
; 4926 :       ARCH_DEP(pcc_xts_aes)(regs);

  00186	48 8b 4c 24 58	 mov	 rcx, QWORD PTR regs$[rsp]
  0018b	e8 00 00 00 00	 call	 z900_pcc_xts_aes

; 4927 :       break;

  00190	eb 10		 jmp	 SHORT $LN8@z900_dyn_p
$LN31@z900_dyn_p:

; 4928 :     default:
; 4929 :       ARCH_DEP(program_interrupt)(regs, PGM_SPECIFICATION_EXCEPTION);

  00192	ba 06 00 00 00	 mov	 edx, 6
  00197	48 8b 4c 24 58	 mov	 rcx, QWORD PTR regs$[rsp]
  0019c	ff 15 00 00 00
	00		 call	 QWORD PTR __imp_z900_program_interrupt
$LN8@z900_dyn_p:
$LN1@z900_dyn_p:

; 4930 :       break;
; 4931 :   }
; 4932 : }

  001a2	48 83 c4 48	 add	 rsp, 72			; 00000048H
  001a6	c3		 ret	 0
  001a7	90		 npad	 1
$LN36@z900_dyn_p:
  001a8	00 00 00 00	 DD	 $LN14@z900_dyn_p
  001ac	00 00 00 00	 DD	 $LN15@z900_dyn_p
  001b0	00 00 00 00	 DD	 $LN16@z900_dyn_p
  001b4	00 00 00 00	 DD	 $LN17@z900_dyn_p
  001b8	00 00 00 00	 DD	 $LN18@z900_dyn_p
  001bc	00 00 00 00	 DD	 $LN19@z900_dyn_p
  001c0	00 00 00 00	 DD	 $LN20@z900_dyn_p
  001c4	00 00 00 00	 DD	 $LN21@z900_dyn_p
  001c8	00 00 00 00	 DD	 $LN22@z900_dyn_p
  001cc	00 00 00 00	 DD	 $LN23@z900_dyn_p
  001d0	00 00 00 00	 DD	 $LN24@z900_dyn_p
  001d4	00 00 00 00	 DD	 $LN25@z900_dyn_p
  001d8	00 00 00 00	 DD	 $LN26@z900_dyn_p
  001dc	00 00 00 00	 DD	 $LN27@z900_dyn_p
  001e0	00 00 00 00	 DD	 $LN28@z900_dyn_p
  001e4	00 00 00 00	 DD	 $LN29@z900_dyn_p
  001e8	00 00 00 00	 DD	 $LN30@z900_dyn_p
  001ec	00 00 00 00	 DD	 $LN31@z900_dyn_p
$LN35@z900_dyn_p:
  001f0	00		 DB	 0
  001f1	01		 DB	 1
  001f2	02		 DB	 2
  001f3	03		 DB	 3
  001f4	11		 DB	 17
  001f5	11		 DB	 17
  001f6	11		 DB	 17
  001f7	11		 DB	 17
  001f8	11		 DB	 17
  001f9	04		 DB	 4
  001fa	05		 DB	 5
  001fb	06		 DB	 6
  001fc	11		 DB	 17
  001fd	11		 DB	 17
  001fe	11		 DB	 17
  001ff	11		 DB	 17
  00200	11		 DB	 17
  00201	11		 DB	 17
  00202	07		 DB	 7
  00203	08		 DB	 8
  00204	09		 DB	 9
  00205	11		 DB	 17
  00206	11		 DB	 17
  00207	11		 DB	 17
  00208	11		 DB	 17
  00209	11		 DB	 17
  0020a	0a		 DB	 10
  0020b	0b		 DB	 11
  0020c	0c		 DB	 12
  0020d	11		 DB	 17
  0020e	11		 DB	 17
  0020f	11		 DB	 17
  00210	11		 DB	 17
  00211	11		 DB	 17
  00212	11		 DB	 17
  00213	11		 DB	 17
  00214	11		 DB	 17
  00215	11		 DB	 17
  00216	11		 DB	 17
  00217	11		 DB	 17
  00218	11		 DB	 17
  00219	11		 DB	 17
  0021a	11		 DB	 17
  0021b	11		 DB	 17
  0021c	11		 DB	 17
  0021d	11		 DB	 17
  0021e	11		 DB	 17
  0021f	11		 DB	 17
  00220	11		 DB	 17
  00221	11		 DB	 17
  00222	0d		 DB	 13
  00223	11		 DB	 17
  00224	0e		 DB	 14
  00225	11		 DB	 17
  00226	11		 DB	 17
  00227	11		 DB	 17
  00228	11		 DB	 17
  00229	11		 DB	 17
  0022a	0f		 DB	 15
  0022b	11		 DB	 17
  0022c	10		 DB	 16
z900_dyn_perform_cryptographic_computation ENDP
_TEXT	ENDS
; Function compile flags: /Odtp
; File C:\papa\MyGit\hyperion-zvector\dyncrypt.c
_TEXT	SEGMENT
r2$ = 48
r1$ = 52
msa$ = 56
i$1 = 60
tv338 = 64
tv347 = 68
tv89 = 72
tv297 = 80
tv313 = 88
tv362 = 96
query_bits$ = 112
__$ArrayPad$ = 192
inst$ = 224
regs$ = 232
z900_dyn_cipher_message_with_output_feedback PROC

; 4772 : {

$LN44:
  00000	48 89 54 24 10	 mov	 QWORD PTR [rsp+16], rdx
  00005	48 89 4c 24 08	 mov	 QWORD PTR [rsp+8], rcx
  0000a	48 81 ec d8 00
	00 00		 sub	 rsp, 216		; 000000d8H
  00011	48 8b 05 00 00
	00 00		 mov	 rax, QWORD PTR __security_cookie
  00018	48 33 c4	 xor	 rax, rsp
  0001b	48 89 84 24 c0
	00 00 00	 mov	 QWORD PTR __$ArrayPad$[rsp], rax

; 4773 :   int msa;
; 4774 :   BYTE query_bits[][16] =

  00023	c6 44 24 70 00	 mov	 BYTE PTR query_bits$[rsp], 0
  00028	c6 44 24 71 00	 mov	 BYTE PTR query_bits$[rsp+1], 0
  0002d	c6 44 24 72 00	 mov	 BYTE PTR query_bits$[rsp+2], 0
  00032	c6 44 24 73 00	 mov	 BYTE PTR query_bits$[rsp+3], 0
  00037	c6 44 24 74 00	 mov	 BYTE PTR query_bits$[rsp+4], 0
  0003c	c6 44 24 75 00	 mov	 BYTE PTR query_bits$[rsp+5], 0
  00041	c6 44 24 76 00	 mov	 BYTE PTR query_bits$[rsp+6], 0
  00046	c6 44 24 77 00	 mov	 BYTE PTR query_bits$[rsp+7], 0
  0004b	c6 44 24 78 00	 mov	 BYTE PTR query_bits$[rsp+8], 0
  00050	c6 44 24 79 00	 mov	 BYTE PTR query_bits$[rsp+9], 0
  00055	c6 44 24 7a 00	 mov	 BYTE PTR query_bits$[rsp+10], 0
  0005a	c6 44 24 7b 00	 mov	 BYTE PTR query_bits$[rsp+11], 0
  0005f	c6 44 24 7c 00	 mov	 BYTE PTR query_bits$[rsp+12], 0
  00064	c6 44 24 7d 00	 mov	 BYTE PTR query_bits$[rsp+13], 0
  00069	c6 44 24 7e 00	 mov	 BYTE PTR query_bits$[rsp+14], 0
  0006e	c6 44 24 7f 00	 mov	 BYTE PTR query_bits$[rsp+15], 0
  00073	c6 84 24 80 00
	00 00 00	 mov	 BYTE PTR query_bits$[rsp+16], 0
  0007b	c6 84 24 81 00
	00 00 00	 mov	 BYTE PTR query_bits$[rsp+17], 0
  00083	c6 84 24 82 00
	00 00 00	 mov	 BYTE PTR query_bits$[rsp+18], 0
  0008b	c6 84 24 83 00
	00 00 00	 mov	 BYTE PTR query_bits$[rsp+19], 0
  00093	c6 84 24 84 00
	00 00 00	 mov	 BYTE PTR query_bits$[rsp+20], 0
  0009b	c6 84 24 85 00
	00 00 00	 mov	 BYTE PTR query_bits$[rsp+21], 0
  000a3	c6 84 24 86 00
	00 00 00	 mov	 BYTE PTR query_bits$[rsp+22], 0
  000ab	c6 84 24 87 00
	00 00 00	 mov	 BYTE PTR query_bits$[rsp+23], 0
  000b3	c6 84 24 88 00
	00 00 00	 mov	 BYTE PTR query_bits$[rsp+24], 0
  000bb	c6 84 24 89 00
	00 00 00	 mov	 BYTE PTR query_bits$[rsp+25], 0
  000c3	c6 84 24 8a 00
	00 00 00	 mov	 BYTE PTR query_bits$[rsp+26], 0
  000cb	c6 84 24 8b 00
	00 00 00	 mov	 BYTE PTR query_bits$[rsp+27], 0
  000d3	c6 84 24 8c 00
	00 00 00	 mov	 BYTE PTR query_bits$[rsp+28], 0
  000db	c6 84 24 8d 00
	00 00 00	 mov	 BYTE PTR query_bits$[rsp+29], 0
  000e3	c6 84 24 8e 00
	00 00 00	 mov	 BYTE PTR query_bits$[rsp+30], 0
  000eb	c6 84 24 8f 00
	00 00 00	 mov	 BYTE PTR query_bits$[rsp+31], 0
  000f3	c6 84 24 90 00
	00 00 00	 mov	 BYTE PTR query_bits$[rsp+32], 0
  000fb	c6 84 24 91 00
	00 00 00	 mov	 BYTE PTR query_bits$[rsp+33], 0
  00103	c6 84 24 92 00
	00 00 00	 mov	 BYTE PTR query_bits$[rsp+34], 0
  0010b	c6 84 24 93 00
	00 00 00	 mov	 BYTE PTR query_bits$[rsp+35], 0
  00113	c6 84 24 94 00
	00 00 00	 mov	 BYTE PTR query_bits$[rsp+36], 0
  0011b	c6 84 24 95 00
	00 00 00	 mov	 BYTE PTR query_bits$[rsp+37], 0
  00123	c6 84 24 96 00
	00 00 00	 mov	 BYTE PTR query_bits$[rsp+38], 0
  0012b	c6 84 24 97 00
	00 00 00	 mov	 BYTE PTR query_bits$[rsp+39], 0
  00133	c6 84 24 98 00
	00 00 00	 mov	 BYTE PTR query_bits$[rsp+40], 0
  0013b	c6 84 24 99 00
	00 00 00	 mov	 BYTE PTR query_bits$[rsp+41], 0
  00143	c6 84 24 9a 00
	00 00 00	 mov	 BYTE PTR query_bits$[rsp+42], 0
  0014b	c6 84 24 9b 00
	00 00 00	 mov	 BYTE PTR query_bits$[rsp+43], 0
  00153	c6 84 24 9c 00
	00 00 00	 mov	 BYTE PTR query_bits$[rsp+44], 0
  0015b	c6 84 24 9d 00
	00 00 00	 mov	 BYTE PTR query_bits$[rsp+45], 0
  00163	c6 84 24 9e 00
	00 00 00	 mov	 BYTE PTR query_bits$[rsp+46], 0
  0016b	c6 84 24 9f 00
	00 00 00	 mov	 BYTE PTR query_bits$[rsp+47], 0
  00173	c6 84 24 a0 00
	00 00 00	 mov	 BYTE PTR query_bits$[rsp+48], 0
  0017b	c6 84 24 a1 00
	00 00 00	 mov	 BYTE PTR query_bits$[rsp+49], 0
  00183	c6 84 24 a2 00
	00 00 00	 mov	 BYTE PTR query_bits$[rsp+50], 0
  0018b	c6 84 24 a3 00
	00 00 00	 mov	 BYTE PTR query_bits$[rsp+51], 0
  00193	c6 84 24 a4 00
	00 00 00	 mov	 BYTE PTR query_bits$[rsp+52], 0
  0019b	c6 84 24 a5 00
	00 00 00	 mov	 BYTE PTR query_bits$[rsp+53], 0
  001a3	c6 84 24 a6 00
	00 00 00	 mov	 BYTE PTR query_bits$[rsp+54], 0
  001ab	c6 84 24 a7 00
	00 00 00	 mov	 BYTE PTR query_bits$[rsp+55], 0
  001b3	c6 84 24 a8 00
	00 00 00	 mov	 BYTE PTR query_bits$[rsp+56], 0
  001bb	c6 84 24 a9 00
	00 00 00	 mov	 BYTE PTR query_bits$[rsp+57], 0
  001c3	c6 84 24 aa 00
	00 00 00	 mov	 BYTE PTR query_bits$[rsp+58], 0
  001cb	c6 84 24 ab 00
	00 00 00	 mov	 BYTE PTR query_bits$[rsp+59], 0
  001d3	c6 84 24 ac 00
	00 00 00	 mov	 BYTE PTR query_bits$[rsp+60], 0
  001db	c6 84 24 ad 00
	00 00 00	 mov	 BYTE PTR query_bits$[rsp+61], 0
  001e3	c6 84 24 ae 00
	00 00 00	 mov	 BYTE PTR query_bits$[rsp+62], 0
  001eb	c6 84 24 af 00
	00 00 00	 mov	 BYTE PTR query_bits$[rsp+63], 0
  001f3	c6 84 24 b0 00
	00 00 f0	 mov	 BYTE PTR query_bits$[rsp+64], 240 ; 000000f0H
  001fb	c6 84 24 b1 00
	00 00 70	 mov	 BYTE PTR query_bits$[rsp+65], 112 ; 00000070H
  00203	c6 84 24 b2 00
	00 00 38	 mov	 BYTE PTR query_bits$[rsp+66], 56 ; 00000038H
  0020b	c6 84 24 b3 00
	00 00 38	 mov	 BYTE PTR query_bits$[rsp+67], 56 ; 00000038H
  00213	c6 84 24 b4 00
	00 00 00	 mov	 BYTE PTR query_bits$[rsp+68], 0
  0021b	c6 84 24 b5 00
	00 00 00	 mov	 BYTE PTR query_bits$[rsp+69], 0
  00223	c6 84 24 b6 00
	00 00 00	 mov	 BYTE PTR query_bits$[rsp+70], 0
  0022b	c6 84 24 b7 00
	00 00 00	 mov	 BYTE PTR query_bits$[rsp+71], 0
  00233	c6 84 24 b8 00
	00 00 00	 mov	 BYTE PTR query_bits$[rsp+72], 0
  0023b	c6 84 24 b9 00
	00 00 00	 mov	 BYTE PTR query_bits$[rsp+73], 0
  00243	c6 84 24 ba 00
	00 00 00	 mov	 BYTE PTR query_bits$[rsp+74], 0
  0024b	c6 84 24 bb 00
	00 00 00	 mov	 BYTE PTR query_bits$[rsp+75], 0
  00253	c6 84 24 bc 00
	00 00 00	 mov	 BYTE PTR query_bits$[rsp+76], 0
  0025b	c6 84 24 bd 00
	00 00 00	 mov	 BYTE PTR query_bits$[rsp+77], 0
  00263	c6 84 24 be 00
	00 00 00	 mov	 BYTE PTR query_bits$[rsp+78], 0
  0026b	c6 84 24 bf 00
	00 00 00	 mov	 BYTE PTR query_bits$[rsp+79], 0

; 4775 :   {
; 4776 :     { 0, 0, 0, 0, 0, 0, 0, 0, 0, 0, 0, 0, 0, 0, 0, 0 },
; 4777 :     { 0, 0, 0, 0, 0, 0, 0, 0, 0, 0, 0, 0, 0, 0, 0, 0 },
; 4778 :     { 0, 0, 0, 0, 0, 0, 0, 0, 0, 0, 0, 0, 0, 0, 0, 0 },
; 4779 :     { 0, 0, 0, 0, 0, 0, 0, 0, 0, 0, 0, 0, 0, 0, 0, 0 },
; 4780 :     { 0xf0, 0x70, 0x38, 0x38, 0x00, 0x00, 0x00, 0x00, 0x00, 0x00, 0x00, 0x00, 0x00, 0x00, 0x00, 0x00 }
; 4781 :   };
; 4782 :   int r1;
; 4783 :   int r2;
; 4784 : 
; 4785 :   RRE(inst, regs, r1, r2);

  00273	b8 01 00 00 00	 mov	 eax, 1
  00278	48 6b c0 03	 imul	 rax, rax, 3
  0027c	48 8b 8c 24 e0
	00 00 00	 mov	 rcx, QWORD PTR inst$[rsp]
  00284	0f b6 04 01	 movzx	 eax, BYTE PTR [rcx+rax]
  00288	89 44 24 3c	 mov	 DWORD PTR i$1[rsp], eax
  0028c	8b 44 24 3c	 mov	 eax, DWORD PTR i$1[rsp]
  00290	83 e0 0f	 and	 eax, 15
  00293	89 44 24 30	 mov	 DWORD PTR r2$[rsp], eax
  00297	8b 44 24 3c	 mov	 eax, DWORD PTR i$1[rsp]
  0029b	c1 f8 04	 sar	 eax, 4
  0029e	83 e0 0f	 and	 eax, 15
  002a1	89 44 24 34	 mov	 DWORD PTR r1$[rsp], eax
$LN4@z900_dyn_c:
  002a5	48 8b 84 24 e8
	00 00 00	 mov	 rax, QWORD PTR regs$[rsp]
  002ad	48 8b 40 68	 mov	 rax, QWORD PTR [rax+104]
  002b1	48 83 c0 04	 add	 rax, 4
  002b5	48 8b 8c 24 e8
	00 00 00	 mov	 rcx, QWORD PTR regs$[rsp]
  002bd	48 89 41 68	 mov	 QWORD PTR [rcx+104], rax
  002c1	33 c0		 xor	 eax, eax
  002c3	83 f8 04	 cmp	 eax, 4
  002c6	74 0f		 je	 SHORT $LN7@z900_dyn_c
  002c8	48 8b 84 24 e8
	00 00 00	 mov	 rax, QWORD PTR regs$[rsp]
  002d0	c6 80 9a 00 00
	00 04		 mov	 BYTE PTR [rax+154], 4
$LN7@z900_dyn_c:
  002d7	33 c0		 xor	 eax, eax
  002d9	85 c0		 test	 eax, eax
  002db	75 c8		 jne	 SHORT $LN4@z900_dyn_c

; 4786 : 
; 4787 : #if defined( FEATURE_PER_ZERO_ADDRESS_DETECTION_FACILITY )
; 4788 :     if (0
; 4789 :         || GR_A( 1,  regs ) == 0
; 4790 :         || GR_A( r1, regs ) == 0
; 4791 :         || GR_A( r2, regs ) == 0

  002dd	33 c0		 xor	 eax, eax
  002df	85 c0		 test	 eax, eax
  002e1	0f 85 02 01 00
	00		 jne	 $LN9@z900_dyn_c
  002e7	48 8b 84 24 e8
	00 00 00	 mov	 rax, QWORD PTR regs$[rsp]
  002ef	8b 80 80 00 00
	00		 mov	 eax, DWORD PTR [rax+128]
  002f5	83 e0 01	 and	 eax, 1
  002f8	85 c0		 test	 eax, eax
  002fa	74 20		 je	 SHORT $LN31@z900_dyn_c
  002fc	b8 08 00 00 00	 mov	 eax, 8
  00301	48 6b c0 01	 imul	 rax, rax, 1
  00305	48 8b 8c 24 e8
	00 00 00	 mov	 rcx, QWORD PTR regs$[rsp]
  0030d	48 8b 84 01 80
	02 00 00	 mov	 rax, QWORD PTR [rcx+rax+640]
  00315	48 89 44 24 48	 mov	 QWORD PTR tv89[rsp], rax
  0031a	eb 1d		 jmp	 SHORT $LN32@z900_dyn_c
$LN31@z900_dyn_c:
  0031c	b8 08 00 00 00	 mov	 eax, 8
  00321	48 6b c0 01	 imul	 rax, rax, 1
  00325	48 8b 8c 24 e8
	00 00 00	 mov	 rcx, QWORD PTR regs$[rsp]
  0032d	8b 84 01 80 02
	00 00		 mov	 eax, DWORD PTR [rcx+rax+640]
  00334	48 89 44 24 48	 mov	 QWORD PTR tv89[rsp], rax
$LN32@z900_dyn_c:
  00339	48 83 7c 24 48
	00		 cmp	 QWORD PTR tv89[rsp], 0
  0033f	0f 84 a4 00 00
	00		 je	 $LN9@z900_dyn_c
  00345	48 8b 84 24 e8
	00 00 00	 mov	 rax, QWORD PTR regs$[rsp]
  0034d	8b 80 80 00 00
	00		 mov	 eax, DWORD PTR [rax+128]
  00353	83 e0 01	 and	 eax, 1
  00356	85 c0		 test	 eax, eax
  00358	74 1c		 je	 SHORT $LN33@z900_dyn_c
  0035a	48 63 44 24 34	 movsxd	 rax, DWORD PTR r1$[rsp]
  0035f	48 8b 8c 24 e8
	00 00 00	 mov	 rcx, QWORD PTR regs$[rsp]
  00367	48 8b 84 c1 80
	02 00 00	 mov	 rax, QWORD PTR [rcx+rax*8+640]
  0036f	48 89 44 24 50	 mov	 QWORD PTR tv297[rsp], rax
  00374	eb 19		 jmp	 SHORT $LN34@z900_dyn_c
$LN33@z900_dyn_c:
  00376	48 63 44 24 34	 movsxd	 rax, DWORD PTR r1$[rsp]
  0037b	48 8b 8c 24 e8
	00 00 00	 mov	 rcx, QWORD PTR regs$[rsp]
  00383	8b 84 c1 80 02
	00 00		 mov	 eax, DWORD PTR [rcx+rax*8+640]
  0038a	48 89 44 24 50	 mov	 QWORD PTR tv297[rsp], rax
$LN34@z900_dyn_c:
  0038f	48 83 7c 24 50
	00		 cmp	 QWORD PTR tv297[rsp], 0
  00395	74 52		 je	 SHORT $LN9@z900_dyn_c
  00397	48 8b 84 24 e8
	00 00 00	 mov	 rax, QWORD PTR regs$[rsp]
  0039f	8b 80 80 00 00
	00		 mov	 eax, DWORD PTR [rax+128]
  003a5	83 e0 01	 and	 eax, 1
  003a8	85 c0		 test	 eax, eax
  003aa	74 1c		 je	 SHORT $LN35@z900_dyn_c
  003ac	48 63 44 24 30	 movsxd	 rax, DWORD PTR r2$[rsp]
  003b1	48 8b 8c 24 e8
	00 00 00	 mov	 rcx, QWORD PTR regs$[rsp]
  003b9	48 8b 84 c1 80
	02 00 00	 mov	 rax, QWORD PTR [rcx+rax*8+640]
  003c1	48 89 44 24 58	 mov	 QWORD PTR tv313[rsp], rax
  003c6	eb 19		 jmp	 SHORT $LN36@z900_dyn_c
$LN35@z900_dyn_c:
  003c8	48 63 44 24 30	 movsxd	 rax, DWORD PTR r2$[rsp]
  003cd	48 8b 8c 24 e8
	00 00 00	 mov	 rcx, QWORD PTR regs$[rsp]
  003d5	8b 84 c1 80 02
	00 00		 mov	 eax, DWORD PTR [rcx+rax*8+640]
  003dc	48 89 44 24 58	 mov	 QWORD PTR tv313[rsp], rax
$LN36@z900_dyn_c:
  003e1	48 83 7c 24 58
	00		 cmp	 QWORD PTR tv313[rsp], 0
  003e7	75 0d		 jne	 SHORT $LN8@z900_dyn_c
$LN9@z900_dyn_c:

; 4792 :     )
; 4793 :         ARCH_DEP( per3_zero )( regs );

  003e9	48 8b 8c 24 e8
	00 00 00	 mov	 rcx, QWORD PTR regs$[rsp]
  003f1	e8 00 00 00 00	 call	 z900_per3_zero
$LN8@z900_dyn_c:

; 4794 : #endif
; 4795 : 
; 4796 :   /* The following is the same as doing a FACILITY_CHECK */
; 4797 :   msa = get_msa(regs);

  003f6	48 8b 8c 24 e8
	00 00 00	 mov	 rcx, QWORD PTR regs$[rsp]
  003fe	e8 00 00 00 00	 call	 get_msa
  00403	89 44 24 38	 mov	 DWORD PTR msa$[rsp], eax

; 4798 :   if(msa < 4)

  00407	83 7c 24 38 04	 cmp	 DWORD PTR msa$[rsp], 4
  0040c	7d 13		 jge	 SHORT $LN10@z900_dyn_c

; 4799 :     ARCH_DEP(program_interrupt)(regs, PGM_OPERATION_EXCEPTION);

  0040e	ba 01 00 00 00	 mov	 edx, 1
  00413	48 8b 8c 24 e8
	00 00 00	 mov	 rcx, QWORD PTR regs$[rsp]
  0041b	ff 15 00 00 00
	00		 call	 QWORD PTR __imp_z900_program_interrupt
$LN10@z900_dyn_c:

; 4800 : 
; 4801 : #ifdef OPTION_KMO_DEBUG
; 4802 :   WRMSG(HHC90100, "D", "KMO: cipher message with output feedback");
; 4803 :   WRMSG(HHC90101, "D", 1, r1);
; 4804 :   WRMSG(HHC90102, "D", regs->GR(r1));
; 4805 :   WRMSG(HHC90101, "D", 2, r2);
; 4806 :   WRMSG(HHC90102, "D", regs->GR(r2));
; 4807 :   WRMSG(HHC90103, "D", regs->GR(r2 + 1));
; 4808 :   WRMSG(HHC90104, "D", 0, regs->GR(0));
; 4809 :   WRMSG(HHC90106, "D", GR0_fc(regs));
; 4810 :   WRMSG(HHC90104, "D", 1, regs->GR(1));
; 4811 : #endif /* #ifdef OPTION_KMO_DEBUG */
; 4812 : 
; 4813 :   /* Check special conditions */
; 4814 :   if(unlikely(!r1 || r1 & 0x01 || !r2 || r2 & 0x01))

  00421	83 7c 24 34 00	 cmp	 DWORD PTR r1$[rsp], 0
  00426	74 27		 je	 SHORT $LN37@z900_dyn_c
  00428	8b 44 24 34	 mov	 eax, DWORD PTR r1$[rsp]
  0042c	83 e0 01	 and	 eax, 1
  0042f	85 c0		 test	 eax, eax
  00431	75 1c		 jne	 SHORT $LN37@z900_dyn_c
  00433	83 7c 24 30 00	 cmp	 DWORD PTR r2$[rsp], 0
  00438	74 15		 je	 SHORT $LN37@z900_dyn_c
  0043a	8b 44 24 30	 mov	 eax, DWORD PTR r2$[rsp]
  0043e	83 e0 01	 and	 eax, 1
  00441	85 c0		 test	 eax, eax
  00443	75 0a		 jne	 SHORT $LN37@z900_dyn_c
  00445	c7 44 24 40 00
	00 00 00	 mov	 DWORD PTR tv338[rsp], 0
  0044d	eb 08		 jmp	 SHORT $LN40@z900_dyn_c
$LN37@z900_dyn_c:
  0044f	c7 44 24 40 01
	00 00 00	 mov	 DWORD PTR tv338[rsp], 1
$LN40@z900_dyn_c:
  00457	83 7c 24 40 00	 cmp	 DWORD PTR tv338[rsp], 0
  0045c	74 13		 je	 SHORT $LN11@z900_dyn_c

; 4815 :     ARCH_DEP(program_interrupt)(regs, PGM_SPECIFICATION_EXCEPTION);

  0045e	ba 06 00 00 00	 mov	 edx, 6
  00463	48 8b 8c 24 e8
	00 00 00	 mov	 rcx, QWORD PTR regs$[rsp]
  0046b	ff 15 00 00 00
	00		 call	 QWORD PTR __imp_z900_program_interrupt
$LN11@z900_dyn_c:

; 4816 : 
; 4817 :   switch(GR0_fc(regs))

  00471	b8 08 00 00 00	 mov	 eax, 8
  00476	48 6b c0 00	 imul	 rax, rax, 0
  0047a	48 8b 8c 24 e8
	00 00 00	 mov	 rcx, QWORD PTR regs$[rsp]
  00482	8b 84 01 80 02
	00 00		 mov	 eax, DWORD PTR [rcx+rax+640]
  00489	83 e0 7f	 and	 eax, 127		; 0000007fH
  0048c	89 44 24 44	 mov	 DWORD PTR tv347[rsp], eax
  00490	83 7c 24 44 1c	 cmp	 DWORD PTR tv347[rsp], 28
  00495	0f 87 22 01 00
	00		 ja	 $LN29@z900_dyn_c
  0049b	8b 44 24 44	 mov	 eax, DWORD PTR tv347[rsp]
  0049f	48 8d 0d 00 00
	00 00		 lea	 rcx, OFFSET FLAT:__ImageBase
  004a6	8b 84 81 00 00
	00 00		 mov	 eax, DWORD PTR $LN43@z900_dyn_c[rcx+rax*4]
  004ad	48 03 c1	 add	 rax, rcx
  004b0	ff e0		 jmp	 rax
$LN12@z900_dyn_c:

; 4818 :   {
; 4819 :     case 0: /* Query */
; 4820 :     {
; 4821 :       /* Store the parameter block */
; 4822 :       ARCH_DEP(vstorec)(query_bits[msa], 15, GR_A(1, regs) & ADDRESS_MAXWRAP(regs), 1, regs);

  004b2	48 8b 84 24 e8
	00 00 00	 mov	 rax, QWORD PTR regs$[rsp]
  004ba	8b 80 80 00 00
	00		 mov	 eax, DWORD PTR [rax+128]
  004c0	83 e0 01	 and	 eax, 1
  004c3	85 c0		 test	 eax, eax
  004c5	74 20		 je	 SHORT $LN41@z900_dyn_c
  004c7	b8 08 00 00 00	 mov	 eax, 8
  004cc	48 6b c0 01	 imul	 rax, rax, 1
  004d0	48 8b 8c 24 e8
	00 00 00	 mov	 rcx, QWORD PTR regs$[rsp]
  004d8	48 8b 84 01 80
	02 00 00	 mov	 rax, QWORD PTR [rcx+rax+640]
  004e0	48 89 44 24 60	 mov	 QWORD PTR tv362[rsp], rax
  004e5	eb 1d		 jmp	 SHORT $LN42@z900_dyn_c
$LN41@z900_dyn_c:
  004e7	b8 08 00 00 00	 mov	 eax, 8
  004ec	48 6b c0 01	 imul	 rax, rax, 1
  004f0	48 8b 8c 24 e8
	00 00 00	 mov	 rcx, QWORD PTR regs$[rsp]
  004f8	8b 84 01 80 02
	00 00		 mov	 eax, DWORD PTR [rcx+rax+640]
  004ff	48 89 44 24 60	 mov	 QWORD PTR tv362[rsp], rax
$LN42@z900_dyn_c:
  00504	48 8b 84 24 e8
	00 00 00	 mov	 rax, QWORD PTR regs$[rsp]
  0050c	48 8b 80 90 00
	00 00		 mov	 rax, QWORD PTR [rax+144]
  00513	48 8b 4c 24 60	 mov	 rcx, QWORD PTR tv362[rsp]
  00518	48 23 c8	 and	 rcx, rax
  0051b	48 8b c1	 mov	 rax, rcx
  0051e	48 63 4c 24 38	 movsxd	 rcx, DWORD PTR msa$[rsp]
  00523	48 6b c9 10	 imul	 rcx, rcx, 16
  00527	48 8d 4c 0c 70	 lea	 rcx, QWORD PTR query_bits$[rsp+rcx]
  0052c	48 8b 94 24 e8
	00 00 00	 mov	 rdx, QWORD PTR regs$[rsp]
  00534	48 89 54 24 20	 mov	 QWORD PTR [rsp+32], rdx
  00539	41 b9 01 00 00
	00		 mov	 r9d, 1
  0053f	4c 8b c0	 mov	 r8, rax
  00542	b2 0f		 mov	 dl, 15
  00544	e8 00 00 00 00	 call	 z900_vstorec

; 4823 : 
; 4824 : #ifdef OPTION_KMO_DEBUG
; 4825 :       LOGBYTE("output:", query_bits[msa], 16);
; 4826 : #endif /* #ifdef OPTION_KMO_DEBUG */
; 4827 : 
; 4828 :       /* Set condition code 0 */
; 4829 :       regs->psw.cc = 0;

  00549	48 8b 84 24 e8
	00 00 00	 mov	 rax, QWORD PTR regs$[rsp]
  00551	c6 40 7c 00	 mov	 BYTE PTR [rax+124], 0

; 4830 :       return;

  00555	eb 79		 jmp	 SHORT $LN1@z900_dyn_c
$LN13@z900_dyn_c:
$LN14@z900_dyn_c:
$LN15@z900_dyn_c:
$LN16@z900_dyn_c:
$LN17@z900_dyn_c:
$LN18@z900_dyn_c:

; 4831 :     }
; 4832 :     case 1: /* dea */
; 4833 :     case 2: /* tdea-128 */
; 4834 :     case 3: /* tdea-192 */
; 4835 :     case 9: /* encrypted dea */
; 4836 :     case 10: /* encrypted tdea-128 */
; 4837 :     case 11: /* encrypted tdea-192 */
; 4838 :     {
; 4839 :       if(msa >= 4)

  00557	83 7c 24 38 04	 cmp	 DWORD PTR msa$[rsp], 4
  0055c	7c 17		 jl	 SHORT $LN19@z900_dyn_c

; 4840 :         ARCH_DEP(kmo_dea)(r1, r2, regs);

  0055e	4c 8b 84 24 e8
	00 00 00	 mov	 r8, QWORD PTR regs$[rsp]
  00566	8b 54 24 30	 mov	 edx, DWORD PTR r2$[rsp]
  0056a	8b 4c 24 34	 mov	 ecx, DWORD PTR r1$[rsp]
  0056e	e8 00 00 00 00	 call	 z900_kmo_dea
  00573	eb 13		 jmp	 SHORT $LN20@z900_dyn_c
$LN19@z900_dyn_c:

; 4841 :       else
; 4842 :         ARCH_DEP(program_interrupt)(regs, PGM_SPECIFICATION_EXCEPTION);

  00575	ba 06 00 00 00	 mov	 edx, 6
  0057a	48 8b 8c 24 e8
	00 00 00	 mov	 rcx, QWORD PTR regs$[rsp]
  00582	ff 15 00 00 00
	00		 call	 QWORD PTR __imp_z900_program_interrupt
$LN20@z900_dyn_c:

; 4843 :       break;

  00588	eb 46		 jmp	 SHORT $LN5@z900_dyn_c
$LN21@z900_dyn_c:
$LN22@z900_dyn_c:
$LN23@z900_dyn_c:
$LN24@z900_dyn_c:
$LN25@z900_dyn_c:
$LN26@z900_dyn_c:

; 4844 :     }
; 4845 :     case 18: /* aes-128 */
; 4846 :     case 19: /* aes-192 */
; 4847 :     case 20: /* aes-256 */
; 4848 :     case 26: /* encrypted aes-128 */
; 4849 :     case 27: /* encrypted aes-192 */
; 4850 :     case 28: /* encrypted aes-256 */
; 4851 :     {
; 4852 :       if(msa >= 4)

  0058a	83 7c 24 38 04	 cmp	 DWORD PTR msa$[rsp], 4
  0058f	7c 17		 jl	 SHORT $LN27@z900_dyn_c

; 4853 :         ARCH_DEP(kmo_aes)(r1, r2, regs);

  00591	4c 8b 84 24 e8
	00 00 00	 mov	 r8, QWORD PTR regs$[rsp]
  00599	8b 54 24 30	 mov	 edx, DWORD PTR r2$[rsp]
  0059d	8b 4c 24 34	 mov	 ecx, DWORD PTR r1$[rsp]
  005a1	e8 00 00 00 00	 call	 z900_kmo_aes
  005a6	eb 13		 jmp	 SHORT $LN28@z900_dyn_c
$LN27@z900_dyn_c:

; 4854 :       else
; 4855 :         ARCH_DEP(program_interrupt)(regs, PGM_SPECIFICATION_EXCEPTION);

  005a8	ba 06 00 00 00	 mov	 edx, 6
  005ad	48 8b 8c 24 e8
	00 00 00	 mov	 rcx, QWORD PTR regs$[rsp]
  005b5	ff 15 00 00 00
	00		 call	 QWORD PTR __imp_z900_program_interrupt
$LN28@z900_dyn_c:

; 4856 :       break;

  005bb	eb 13		 jmp	 SHORT $LN5@z900_dyn_c
$LN29@z900_dyn_c:

; 4857 :     }
; 4858 :     default:
; 4859 :     {
; 4860 :       ARCH_DEP(program_interrupt)(regs, PGM_SPECIFICATION_EXCEPTION);

  005bd	ba 06 00 00 00	 mov	 edx, 6
  005c2	48 8b 8c 24 e8
	00 00 00	 mov	 rcx, QWORD PTR regs$[rsp]
  005ca	ff 15 00 00 00
	00		 call	 QWORD PTR __imp_z900_program_interrupt
$LN5@z900_dyn_c:
$LN1@z900_dyn_c:

; 4861 :       break;
; 4862 :     }
; 4863 :   }
; 4864 : }

  005d0	48 8b 8c 24 c0
	00 00 00	 mov	 rcx, QWORD PTR __$ArrayPad$[rsp]
  005d8	48 33 cc	 xor	 rcx, rsp
  005db	e8 00 00 00 00	 call	 __security_check_cookie
  005e0	48 81 c4 d8 00
	00 00		 add	 rsp, 216		; 000000d8H
  005e7	c3		 ret	 0
$LN43@z900_dyn_c:
  005e8	00 00 00 00	 DD	 $LN12@z900_dyn_c
  005ec	00 00 00 00	 DD	 $LN13@z900_dyn_c
  005f0	00 00 00 00	 DD	 $LN14@z900_dyn_c
  005f4	00 00 00 00	 DD	 $LN15@z900_dyn_c
  005f8	00 00 00 00	 DD	 $LN29@z900_dyn_c
  005fc	00 00 00 00	 DD	 $LN29@z900_dyn_c
  00600	00 00 00 00	 DD	 $LN29@z900_dyn_c
  00604	00 00 00 00	 DD	 $LN29@z900_dyn_c
  00608	00 00 00 00	 DD	 $LN29@z900_dyn_c
  0060c	00 00 00 00	 DD	 $LN16@z900_dyn_c
  00610	00 00 00 00	 DD	 $LN17@z900_dyn_c
  00614	00 00 00 00	 DD	 $LN18@z900_dyn_c
  00618	00 00 00 00	 DD	 $LN29@z900_dyn_c
  0061c	00 00 00 00	 DD	 $LN29@z900_dyn_c
  00620	00 00 00 00	 DD	 $LN29@z900_dyn_c
  00624	00 00 00 00	 DD	 $LN29@z900_dyn_c
  00628	00 00 00 00	 DD	 $LN29@z900_dyn_c
  0062c	00 00 00 00	 DD	 $LN29@z900_dyn_c
  00630	00 00 00 00	 DD	 $LN21@z900_dyn_c
  00634	00 00 00 00	 DD	 $LN22@z900_dyn_c
  00638	00 00 00 00	 DD	 $LN23@z900_dyn_c
  0063c	00 00 00 00	 DD	 $LN29@z900_dyn_c
  00640	00 00 00 00	 DD	 $LN29@z900_dyn_c
  00644	00 00 00 00	 DD	 $LN29@z900_dyn_c
  00648	00 00 00 00	 DD	 $LN29@z900_dyn_c
  0064c	00 00 00 00	 DD	 $LN29@z900_dyn_c
  00650	00 00 00 00	 DD	 $LN24@z900_dyn_c
  00654	00 00 00 00	 DD	 $LN25@z900_dyn_c
  00658	00 00 00 00	 DD	 $LN26@z900_dyn_c
z900_dyn_cipher_message_with_output_feedback ENDP
_TEXT	ENDS
; Function compile flags: /Odtp
; File C:\papa\MyGit\hyperion-zvector\dyncrypt.c
_TEXT	SEGMENT
r2$ = 48
r1$ = 52
msa$ = 56
i$1 = 60
tv338 = 64
tv347 = 68
tv89 = 72
tv297 = 80
tv313 = 88
tv362 = 96
query_bits$ = 112
__$ArrayPad$ = 192
inst$ = 224
regs$ = 232
z900_dyn_cipher_message_with_cipher_feedback PROC

; 4671 : {

$LN44:
  00000	48 89 54 24 10	 mov	 QWORD PTR [rsp+16], rdx
  00005	48 89 4c 24 08	 mov	 QWORD PTR [rsp+8], rcx
  0000a	48 81 ec d8 00
	00 00		 sub	 rsp, 216		; 000000d8H
  00011	48 8b 05 00 00
	00 00		 mov	 rax, QWORD PTR __security_cookie
  00018	48 33 c4	 xor	 rax, rsp
  0001b	48 89 84 24 c0
	00 00 00	 mov	 QWORD PTR __$ArrayPad$[rsp], rax

; 4672 :   int msa;
; 4673 :   BYTE query_bits[][16] =

  00023	c6 44 24 70 00	 mov	 BYTE PTR query_bits$[rsp], 0
  00028	c6 44 24 71 00	 mov	 BYTE PTR query_bits$[rsp+1], 0
  0002d	c6 44 24 72 00	 mov	 BYTE PTR query_bits$[rsp+2], 0
  00032	c6 44 24 73 00	 mov	 BYTE PTR query_bits$[rsp+3], 0
  00037	c6 44 24 74 00	 mov	 BYTE PTR query_bits$[rsp+4], 0
  0003c	c6 44 24 75 00	 mov	 BYTE PTR query_bits$[rsp+5], 0
  00041	c6 44 24 76 00	 mov	 BYTE PTR query_bits$[rsp+6], 0
  00046	c6 44 24 77 00	 mov	 BYTE PTR query_bits$[rsp+7], 0
  0004b	c6 44 24 78 00	 mov	 BYTE PTR query_bits$[rsp+8], 0
  00050	c6 44 24 79 00	 mov	 BYTE PTR query_bits$[rsp+9], 0
  00055	c6 44 24 7a 00	 mov	 BYTE PTR query_bits$[rsp+10], 0
  0005a	c6 44 24 7b 00	 mov	 BYTE PTR query_bits$[rsp+11], 0
  0005f	c6 44 24 7c 00	 mov	 BYTE PTR query_bits$[rsp+12], 0
  00064	c6 44 24 7d 00	 mov	 BYTE PTR query_bits$[rsp+13], 0
  00069	c6 44 24 7e 00	 mov	 BYTE PTR query_bits$[rsp+14], 0
  0006e	c6 44 24 7f 00	 mov	 BYTE PTR query_bits$[rsp+15], 0
  00073	c6 84 24 80 00
	00 00 00	 mov	 BYTE PTR query_bits$[rsp+16], 0
  0007b	c6 84 24 81 00
	00 00 00	 mov	 BYTE PTR query_bits$[rsp+17], 0
  00083	c6 84 24 82 00
	00 00 00	 mov	 BYTE PTR query_bits$[rsp+18], 0
  0008b	c6 84 24 83 00
	00 00 00	 mov	 BYTE PTR query_bits$[rsp+19], 0
  00093	c6 84 24 84 00
	00 00 00	 mov	 BYTE PTR query_bits$[rsp+20], 0
  0009b	c6 84 24 85 00
	00 00 00	 mov	 BYTE PTR query_bits$[rsp+21], 0
  000a3	c6 84 24 86 00
	00 00 00	 mov	 BYTE PTR query_bits$[rsp+22], 0
  000ab	c6 84 24 87 00
	00 00 00	 mov	 BYTE PTR query_bits$[rsp+23], 0
  000b3	c6 84 24 88 00
	00 00 00	 mov	 BYTE PTR query_bits$[rsp+24], 0
  000bb	c6 84 24 89 00
	00 00 00	 mov	 BYTE PTR query_bits$[rsp+25], 0
  000c3	c6 84 24 8a 00
	00 00 00	 mov	 BYTE PTR query_bits$[rsp+26], 0
  000cb	c6 84 24 8b 00
	00 00 00	 mov	 BYTE PTR query_bits$[rsp+27], 0
  000d3	c6 84 24 8c 00
	00 00 00	 mov	 BYTE PTR query_bits$[rsp+28], 0
  000db	c6 84 24 8d 00
	00 00 00	 mov	 BYTE PTR query_bits$[rsp+29], 0
  000e3	c6 84 24 8e 00
	00 00 00	 mov	 BYTE PTR query_bits$[rsp+30], 0
  000eb	c6 84 24 8f 00
	00 00 00	 mov	 BYTE PTR query_bits$[rsp+31], 0
  000f3	c6 84 24 90 00
	00 00 00	 mov	 BYTE PTR query_bits$[rsp+32], 0
  000fb	c6 84 24 91 00
	00 00 00	 mov	 BYTE PTR query_bits$[rsp+33], 0
  00103	c6 84 24 92 00
	00 00 00	 mov	 BYTE PTR query_bits$[rsp+34], 0
  0010b	c6 84 24 93 00
	00 00 00	 mov	 BYTE PTR query_bits$[rsp+35], 0
  00113	c6 84 24 94 00
	00 00 00	 mov	 BYTE PTR query_bits$[rsp+36], 0
  0011b	c6 84 24 95 00
	00 00 00	 mov	 BYTE PTR query_bits$[rsp+37], 0
  00123	c6 84 24 96 00
	00 00 00	 mov	 BYTE PTR query_bits$[rsp+38], 0
  0012b	c6 84 24 97 00
	00 00 00	 mov	 BYTE PTR query_bits$[rsp+39], 0
  00133	c6 84 24 98 00
	00 00 00	 mov	 BYTE PTR query_bits$[rsp+40], 0
  0013b	c6 84 24 99 00
	00 00 00	 mov	 BYTE PTR query_bits$[rsp+41], 0
  00143	c6 84 24 9a 00
	00 00 00	 mov	 BYTE PTR query_bits$[rsp+42], 0
  0014b	c6 84 24 9b 00
	00 00 00	 mov	 BYTE PTR query_bits$[rsp+43], 0
  00153	c6 84 24 9c 00
	00 00 00	 mov	 BYTE PTR query_bits$[rsp+44], 0
  0015b	c6 84 24 9d 00
	00 00 00	 mov	 BYTE PTR query_bits$[rsp+45], 0
  00163	c6 84 24 9e 00
	00 00 00	 mov	 BYTE PTR query_bits$[rsp+46], 0
  0016b	c6 84 24 9f 00
	00 00 00	 mov	 BYTE PTR query_bits$[rsp+47], 0
  00173	c6 84 24 a0 00
	00 00 00	 mov	 BYTE PTR query_bits$[rsp+48], 0
  0017b	c6 84 24 a1 00
	00 00 00	 mov	 BYTE PTR query_bits$[rsp+49], 0
  00183	c6 84 24 a2 00
	00 00 00	 mov	 BYTE PTR query_bits$[rsp+50], 0
  0018b	c6 84 24 a3 00
	00 00 00	 mov	 BYTE PTR query_bits$[rsp+51], 0
  00193	c6 84 24 a4 00
	00 00 00	 mov	 BYTE PTR query_bits$[rsp+52], 0
  0019b	c6 84 24 a5 00
	00 00 00	 mov	 BYTE PTR query_bits$[rsp+53], 0
  001a3	c6 84 24 a6 00
	00 00 00	 mov	 BYTE PTR query_bits$[rsp+54], 0
  001ab	c6 84 24 a7 00
	00 00 00	 mov	 BYTE PTR query_bits$[rsp+55], 0
  001b3	c6 84 24 a8 00
	00 00 00	 mov	 BYTE PTR query_bits$[rsp+56], 0
  001bb	c6 84 24 a9 00
	00 00 00	 mov	 BYTE PTR query_bits$[rsp+57], 0
  001c3	c6 84 24 aa 00
	00 00 00	 mov	 BYTE PTR query_bits$[rsp+58], 0
  001cb	c6 84 24 ab 00
	00 00 00	 mov	 BYTE PTR query_bits$[rsp+59], 0
  001d3	c6 84 24 ac 00
	00 00 00	 mov	 BYTE PTR query_bits$[rsp+60], 0
  001db	c6 84 24 ad 00
	00 00 00	 mov	 BYTE PTR query_bits$[rsp+61], 0
  001e3	c6 84 24 ae 00
	00 00 00	 mov	 BYTE PTR query_bits$[rsp+62], 0
  001eb	c6 84 24 af 00
	00 00 00	 mov	 BYTE PTR query_bits$[rsp+63], 0
  001f3	c6 84 24 b0 00
	00 00 f0	 mov	 BYTE PTR query_bits$[rsp+64], 240 ; 000000f0H
  001fb	c6 84 24 b1 00
	00 00 70	 mov	 BYTE PTR query_bits$[rsp+65], 112 ; 00000070H
  00203	c6 84 24 b2 00
	00 00 38	 mov	 BYTE PTR query_bits$[rsp+66], 56 ; 00000038H
  0020b	c6 84 24 b3 00
	00 00 38	 mov	 BYTE PTR query_bits$[rsp+67], 56 ; 00000038H
  00213	c6 84 24 b4 00
	00 00 00	 mov	 BYTE PTR query_bits$[rsp+68], 0
  0021b	c6 84 24 b5 00
	00 00 00	 mov	 BYTE PTR query_bits$[rsp+69], 0
  00223	c6 84 24 b6 00
	00 00 00	 mov	 BYTE PTR query_bits$[rsp+70], 0
  0022b	c6 84 24 b7 00
	00 00 00	 mov	 BYTE PTR query_bits$[rsp+71], 0
  00233	c6 84 24 b8 00
	00 00 00	 mov	 BYTE PTR query_bits$[rsp+72], 0
  0023b	c6 84 24 b9 00
	00 00 00	 mov	 BYTE PTR query_bits$[rsp+73], 0
  00243	c6 84 24 ba 00
	00 00 00	 mov	 BYTE PTR query_bits$[rsp+74], 0
  0024b	c6 84 24 bb 00
	00 00 00	 mov	 BYTE PTR query_bits$[rsp+75], 0
  00253	c6 84 24 bc 00
	00 00 00	 mov	 BYTE PTR query_bits$[rsp+76], 0
  0025b	c6 84 24 bd 00
	00 00 00	 mov	 BYTE PTR query_bits$[rsp+77], 0
  00263	c6 84 24 be 00
	00 00 00	 mov	 BYTE PTR query_bits$[rsp+78], 0
  0026b	c6 84 24 bf 00
	00 00 00	 mov	 BYTE PTR query_bits$[rsp+79], 0

; 4674 :   {
; 4675 :     { 0, 0, 0, 0, 0, 0, 0, 0, 0, 0, 0, 0, 0, 0, 0, 0 },
; 4676 :     { 0, 0, 0, 0, 0, 0, 0, 0, 0, 0, 0, 0, 0, 0, 0, 0 },
; 4677 :     { 0, 0, 0, 0, 0, 0, 0, 0, 0, 0, 0, 0, 0, 0, 0, 0 },
; 4678 :     { 0, 0, 0, 0, 0, 0, 0, 0, 0, 0, 0, 0, 0, 0, 0, 0 },
; 4679 :     { 0xf0, 0x70, 0x38, 0x38, 0x00, 0x00, 0x00, 0x00, 0x00, 0x00, 0x00, 0x00, 0x00, 0x00, 0x00, 0x00 }
; 4680 :   };
; 4681 :   int r1;
; 4682 :   int r2;
; 4683 : 
; 4684 :   RRE(inst, regs, r1, r2);

  00273	b8 01 00 00 00	 mov	 eax, 1
  00278	48 6b c0 03	 imul	 rax, rax, 3
  0027c	48 8b 8c 24 e0
	00 00 00	 mov	 rcx, QWORD PTR inst$[rsp]
  00284	0f b6 04 01	 movzx	 eax, BYTE PTR [rcx+rax]
  00288	89 44 24 3c	 mov	 DWORD PTR i$1[rsp], eax
  0028c	8b 44 24 3c	 mov	 eax, DWORD PTR i$1[rsp]
  00290	83 e0 0f	 and	 eax, 15
  00293	89 44 24 30	 mov	 DWORD PTR r2$[rsp], eax
  00297	8b 44 24 3c	 mov	 eax, DWORD PTR i$1[rsp]
  0029b	c1 f8 04	 sar	 eax, 4
  0029e	83 e0 0f	 and	 eax, 15
  002a1	89 44 24 34	 mov	 DWORD PTR r1$[rsp], eax
$LN4@z900_dyn_c:
  002a5	48 8b 84 24 e8
	00 00 00	 mov	 rax, QWORD PTR regs$[rsp]
  002ad	48 8b 40 68	 mov	 rax, QWORD PTR [rax+104]
  002b1	48 83 c0 04	 add	 rax, 4
  002b5	48 8b 8c 24 e8
	00 00 00	 mov	 rcx, QWORD PTR regs$[rsp]
  002bd	48 89 41 68	 mov	 QWORD PTR [rcx+104], rax
  002c1	33 c0		 xor	 eax, eax
  002c3	83 f8 04	 cmp	 eax, 4
  002c6	74 0f		 je	 SHORT $LN7@z900_dyn_c
  002c8	48 8b 84 24 e8
	00 00 00	 mov	 rax, QWORD PTR regs$[rsp]
  002d0	c6 80 9a 00 00
	00 04		 mov	 BYTE PTR [rax+154], 4
$LN7@z900_dyn_c:
  002d7	33 c0		 xor	 eax, eax
  002d9	85 c0		 test	 eax, eax
  002db	75 c8		 jne	 SHORT $LN4@z900_dyn_c

; 4685 : 
; 4686 : #if defined( FEATURE_PER_ZERO_ADDRESS_DETECTION_FACILITY )
; 4687 :     if (0
; 4688 :         || GR_A( 1,  regs ) == 0
; 4689 :         || GR_A( r1, regs ) == 0
; 4690 :         || GR_A( r2, regs ) == 0

  002dd	33 c0		 xor	 eax, eax
  002df	85 c0		 test	 eax, eax
  002e1	0f 85 02 01 00
	00		 jne	 $LN9@z900_dyn_c
  002e7	48 8b 84 24 e8
	00 00 00	 mov	 rax, QWORD PTR regs$[rsp]
  002ef	8b 80 80 00 00
	00		 mov	 eax, DWORD PTR [rax+128]
  002f5	83 e0 01	 and	 eax, 1
  002f8	85 c0		 test	 eax, eax
  002fa	74 20		 je	 SHORT $LN31@z900_dyn_c
  002fc	b8 08 00 00 00	 mov	 eax, 8
  00301	48 6b c0 01	 imul	 rax, rax, 1
  00305	48 8b 8c 24 e8
	00 00 00	 mov	 rcx, QWORD PTR regs$[rsp]
  0030d	48 8b 84 01 80
	02 00 00	 mov	 rax, QWORD PTR [rcx+rax+640]
  00315	48 89 44 24 48	 mov	 QWORD PTR tv89[rsp], rax
  0031a	eb 1d		 jmp	 SHORT $LN32@z900_dyn_c
$LN31@z900_dyn_c:
  0031c	b8 08 00 00 00	 mov	 eax, 8
  00321	48 6b c0 01	 imul	 rax, rax, 1
  00325	48 8b 8c 24 e8
	00 00 00	 mov	 rcx, QWORD PTR regs$[rsp]
  0032d	8b 84 01 80 02
	00 00		 mov	 eax, DWORD PTR [rcx+rax+640]
  00334	48 89 44 24 48	 mov	 QWORD PTR tv89[rsp], rax
$LN32@z900_dyn_c:
  00339	48 83 7c 24 48
	00		 cmp	 QWORD PTR tv89[rsp], 0
  0033f	0f 84 a4 00 00
	00		 je	 $LN9@z900_dyn_c
  00345	48 8b 84 24 e8
	00 00 00	 mov	 rax, QWORD PTR regs$[rsp]
  0034d	8b 80 80 00 00
	00		 mov	 eax, DWORD PTR [rax+128]
  00353	83 e0 01	 and	 eax, 1
  00356	85 c0		 test	 eax, eax
  00358	74 1c		 je	 SHORT $LN33@z900_dyn_c
  0035a	48 63 44 24 34	 movsxd	 rax, DWORD PTR r1$[rsp]
  0035f	48 8b 8c 24 e8
	00 00 00	 mov	 rcx, QWORD PTR regs$[rsp]
  00367	48 8b 84 c1 80
	02 00 00	 mov	 rax, QWORD PTR [rcx+rax*8+640]
  0036f	48 89 44 24 50	 mov	 QWORD PTR tv297[rsp], rax
  00374	eb 19		 jmp	 SHORT $LN34@z900_dyn_c
$LN33@z900_dyn_c:
  00376	48 63 44 24 34	 movsxd	 rax, DWORD PTR r1$[rsp]
  0037b	48 8b 8c 24 e8
	00 00 00	 mov	 rcx, QWORD PTR regs$[rsp]
  00383	8b 84 c1 80 02
	00 00		 mov	 eax, DWORD PTR [rcx+rax*8+640]
  0038a	48 89 44 24 50	 mov	 QWORD PTR tv297[rsp], rax
$LN34@z900_dyn_c:
  0038f	48 83 7c 24 50
	00		 cmp	 QWORD PTR tv297[rsp], 0
  00395	74 52		 je	 SHORT $LN9@z900_dyn_c
  00397	48 8b 84 24 e8
	00 00 00	 mov	 rax, QWORD PTR regs$[rsp]
  0039f	8b 80 80 00 00
	00		 mov	 eax, DWORD PTR [rax+128]
  003a5	83 e0 01	 and	 eax, 1
  003a8	85 c0		 test	 eax, eax
  003aa	74 1c		 je	 SHORT $LN35@z900_dyn_c
  003ac	48 63 44 24 30	 movsxd	 rax, DWORD PTR r2$[rsp]
  003b1	48 8b 8c 24 e8
	00 00 00	 mov	 rcx, QWORD PTR regs$[rsp]
  003b9	48 8b 84 c1 80
	02 00 00	 mov	 rax, QWORD PTR [rcx+rax*8+640]
  003c1	48 89 44 24 58	 mov	 QWORD PTR tv313[rsp], rax
  003c6	eb 19		 jmp	 SHORT $LN36@z900_dyn_c
$LN35@z900_dyn_c:
  003c8	48 63 44 24 30	 movsxd	 rax, DWORD PTR r2$[rsp]
  003cd	48 8b 8c 24 e8
	00 00 00	 mov	 rcx, QWORD PTR regs$[rsp]
  003d5	8b 84 c1 80 02
	00 00		 mov	 eax, DWORD PTR [rcx+rax*8+640]
  003dc	48 89 44 24 58	 mov	 QWORD PTR tv313[rsp], rax
$LN36@z900_dyn_c:
  003e1	48 83 7c 24 58
	00		 cmp	 QWORD PTR tv313[rsp], 0
  003e7	75 0d		 jne	 SHORT $LN8@z900_dyn_c
$LN9@z900_dyn_c:

; 4691 :     )
; 4692 :         ARCH_DEP( per3_zero )( regs );

  003e9	48 8b 8c 24 e8
	00 00 00	 mov	 rcx, QWORD PTR regs$[rsp]
  003f1	e8 00 00 00 00	 call	 z900_per3_zero
$LN8@z900_dyn_c:

; 4693 : #endif
; 4694 : 
; 4695 :   /* The following is the same as doing a FACILITY_CHECK */
; 4696 :   msa = get_msa(regs);

  003f6	48 8b 8c 24 e8
	00 00 00	 mov	 rcx, QWORD PTR regs$[rsp]
  003fe	e8 00 00 00 00	 call	 get_msa
  00403	89 44 24 38	 mov	 DWORD PTR msa$[rsp], eax

; 4697 :   if(msa < 4)

  00407	83 7c 24 38 04	 cmp	 DWORD PTR msa$[rsp], 4
  0040c	7d 13		 jge	 SHORT $LN10@z900_dyn_c

; 4698 :     ARCH_DEP(program_interrupt)(regs, PGM_OPERATION_EXCEPTION);

  0040e	ba 01 00 00 00	 mov	 edx, 1
  00413	48 8b 8c 24 e8
	00 00 00	 mov	 rcx, QWORD PTR regs$[rsp]
  0041b	ff 15 00 00 00
	00		 call	 QWORD PTR __imp_z900_program_interrupt
$LN10@z900_dyn_c:

; 4699 : 
; 4700 : #ifdef OPTION_KMF_DEBUG
; 4701 :   WRMSG(HHC90100, "D", "KMF: cipher message with cipher feedback");
; 4702 :   WRMSG(HHC90101, "D", 1, r1);
; 4703 :   WRMSG(HHC90102, "D", regs->GR(r1));
; 4704 :   WRMSG(HHC90101, "D", 2, r2);
; 4705 :   WRMSG(HHC90102, "D", regs->GR(r2));
; 4706 :   WRMSG(HHC90103, "D", regs->GR(r2 + 1));
; 4707 :   WRMSG(HHC90104, "D", 0, regs->GR(0));
; 4708 :   WRMSG(HHC90112, "D", GR0_lcfb(regs));
; 4709 :   WRMSG(HHC90107, "D", TRUEFALSE(GR0_m(regs)));
; 4710 :   WRMSG(HHC90106, "D", GR0_fc(regs));
; 4711 :   WRMSG(HHC90104, "D", 1, regs->GR(1));
; 4712 : #endif /* #ifdef OPTION_KMF_DEBUG */
; 4713 : 
; 4714 :   /* Check special conditions */
; 4715 :   if(unlikely(!r1 || r1 & 0x01 || !r2 || r2 & 0x01))

  00421	83 7c 24 34 00	 cmp	 DWORD PTR r1$[rsp], 0
  00426	74 27		 je	 SHORT $LN37@z900_dyn_c
  00428	8b 44 24 34	 mov	 eax, DWORD PTR r1$[rsp]
  0042c	83 e0 01	 and	 eax, 1
  0042f	85 c0		 test	 eax, eax
  00431	75 1c		 jne	 SHORT $LN37@z900_dyn_c
  00433	83 7c 24 30 00	 cmp	 DWORD PTR r2$[rsp], 0
  00438	74 15		 je	 SHORT $LN37@z900_dyn_c
  0043a	8b 44 24 30	 mov	 eax, DWORD PTR r2$[rsp]
  0043e	83 e0 01	 and	 eax, 1
  00441	85 c0		 test	 eax, eax
  00443	75 0a		 jne	 SHORT $LN37@z900_dyn_c
  00445	c7 44 24 40 00
	00 00 00	 mov	 DWORD PTR tv338[rsp], 0
  0044d	eb 08		 jmp	 SHORT $LN40@z900_dyn_c
$LN37@z900_dyn_c:
  0044f	c7 44 24 40 01
	00 00 00	 mov	 DWORD PTR tv338[rsp], 1
$LN40@z900_dyn_c:
  00457	83 7c 24 40 00	 cmp	 DWORD PTR tv338[rsp], 0
  0045c	74 13		 je	 SHORT $LN11@z900_dyn_c

; 4716 :     ARCH_DEP(program_interrupt)(regs, PGM_SPECIFICATION_EXCEPTION);

  0045e	ba 06 00 00 00	 mov	 edx, 6
  00463	48 8b 8c 24 e8
	00 00 00	 mov	 rcx, QWORD PTR regs$[rsp]
  0046b	ff 15 00 00 00
	00		 call	 QWORD PTR __imp_z900_program_interrupt
$LN11@z900_dyn_c:

; 4717 : 
; 4718 :   switch(GR0_fc(regs))

  00471	b8 08 00 00 00	 mov	 eax, 8
  00476	48 6b c0 00	 imul	 rax, rax, 0
  0047a	48 8b 8c 24 e8
	00 00 00	 mov	 rcx, QWORD PTR regs$[rsp]
  00482	8b 84 01 80 02
	00 00		 mov	 eax, DWORD PTR [rcx+rax+640]
  00489	83 e0 7f	 and	 eax, 127		; 0000007fH
  0048c	89 44 24 44	 mov	 DWORD PTR tv347[rsp], eax
  00490	83 7c 24 44 1c	 cmp	 DWORD PTR tv347[rsp], 28
  00495	0f 87 22 01 00
	00		 ja	 $LN29@z900_dyn_c
  0049b	8b 44 24 44	 mov	 eax, DWORD PTR tv347[rsp]
  0049f	48 8d 0d 00 00
	00 00		 lea	 rcx, OFFSET FLAT:__ImageBase
  004a6	8b 84 81 00 00
	00 00		 mov	 eax, DWORD PTR $LN43@z900_dyn_c[rcx+rax*4]
  004ad	48 03 c1	 add	 rax, rcx
  004b0	ff e0		 jmp	 rax
$LN12@z900_dyn_c:

; 4719 :   {
; 4720 :     case 0: /* Query */
; 4721 :     {
; 4722 :       /* Store the parameter block */
; 4723 :       ARCH_DEP(vstorec)(query_bits[msa], 15, GR_A(1, regs) & ADDRESS_MAXWRAP(regs), 1, regs);

  004b2	48 8b 84 24 e8
	00 00 00	 mov	 rax, QWORD PTR regs$[rsp]
  004ba	8b 80 80 00 00
	00		 mov	 eax, DWORD PTR [rax+128]
  004c0	83 e0 01	 and	 eax, 1
  004c3	85 c0		 test	 eax, eax
  004c5	74 20		 je	 SHORT $LN41@z900_dyn_c
  004c7	b8 08 00 00 00	 mov	 eax, 8
  004cc	48 6b c0 01	 imul	 rax, rax, 1
  004d0	48 8b 8c 24 e8
	00 00 00	 mov	 rcx, QWORD PTR regs$[rsp]
  004d8	48 8b 84 01 80
	02 00 00	 mov	 rax, QWORD PTR [rcx+rax+640]
  004e0	48 89 44 24 60	 mov	 QWORD PTR tv362[rsp], rax
  004e5	eb 1d		 jmp	 SHORT $LN42@z900_dyn_c
$LN41@z900_dyn_c:
  004e7	b8 08 00 00 00	 mov	 eax, 8
  004ec	48 6b c0 01	 imul	 rax, rax, 1
  004f0	48 8b 8c 24 e8
	00 00 00	 mov	 rcx, QWORD PTR regs$[rsp]
  004f8	8b 84 01 80 02
	00 00		 mov	 eax, DWORD PTR [rcx+rax+640]
  004ff	48 89 44 24 60	 mov	 QWORD PTR tv362[rsp], rax
$LN42@z900_dyn_c:
  00504	48 8b 84 24 e8
	00 00 00	 mov	 rax, QWORD PTR regs$[rsp]
  0050c	48 8b 80 90 00
	00 00		 mov	 rax, QWORD PTR [rax+144]
  00513	48 8b 4c 24 60	 mov	 rcx, QWORD PTR tv362[rsp]
  00518	48 23 c8	 and	 rcx, rax
  0051b	48 8b c1	 mov	 rax, rcx
  0051e	48 63 4c 24 38	 movsxd	 rcx, DWORD PTR msa$[rsp]
  00523	48 6b c9 10	 imul	 rcx, rcx, 16
  00527	48 8d 4c 0c 70	 lea	 rcx, QWORD PTR query_bits$[rsp+rcx]
  0052c	48 8b 94 24 e8
	00 00 00	 mov	 rdx, QWORD PTR regs$[rsp]
  00534	48 89 54 24 20	 mov	 QWORD PTR [rsp+32], rdx
  00539	41 b9 01 00 00
	00		 mov	 r9d, 1
  0053f	4c 8b c0	 mov	 r8, rax
  00542	b2 0f		 mov	 dl, 15
  00544	e8 00 00 00 00	 call	 z900_vstorec

; 4724 : 
; 4725 : #ifdef OPTION_KMF_DEBUG
; 4726 :       LOGBYTE("output:", query_bits[msa], 16);
; 4727 : #endif /* #ifdef OPTION_KMF_DEBUG */
; 4728 : 
; 4729 :       /* Set condition code 0 */
; 4730 :       regs->psw.cc = 0;

  00549	48 8b 84 24 e8
	00 00 00	 mov	 rax, QWORD PTR regs$[rsp]
  00551	c6 40 7c 00	 mov	 BYTE PTR [rax+124], 0

; 4731 :       return;

  00555	eb 79		 jmp	 SHORT $LN1@z900_dyn_c
$LN13@z900_dyn_c:
$LN14@z900_dyn_c:
$LN15@z900_dyn_c:
$LN16@z900_dyn_c:
$LN17@z900_dyn_c:
$LN18@z900_dyn_c:

; 4732 :     }
; 4733 : 
; 4734 :     case 1: /* dea */
; 4735 :     case 2: /* tdea-128 */
; 4736 :     case 3: /* tdea-192 */
; 4737 :     case 9: /* encrypted dea */
; 4738 :     case 10: /* encrypted tdea-128 */
; 4739 :     case 11: /* encrypted tdea-192 */
; 4740 :     {
; 4741 :       if(msa >= 4)

  00557	83 7c 24 38 04	 cmp	 DWORD PTR msa$[rsp], 4
  0055c	7c 17		 jl	 SHORT $LN19@z900_dyn_c

; 4742 :         ARCH_DEP(kmf_dea)(r1, r2, regs);

  0055e	4c 8b 84 24 e8
	00 00 00	 mov	 r8, QWORD PTR regs$[rsp]
  00566	8b 54 24 30	 mov	 edx, DWORD PTR r2$[rsp]
  0056a	8b 4c 24 34	 mov	 ecx, DWORD PTR r1$[rsp]
  0056e	e8 00 00 00 00	 call	 z900_kmf_dea
  00573	eb 13		 jmp	 SHORT $LN20@z900_dyn_c
$LN19@z900_dyn_c:

; 4743 :       else
; 4744 :         ARCH_DEP(program_interrupt)(regs, PGM_SPECIFICATION_EXCEPTION);

  00575	ba 06 00 00 00	 mov	 edx, 6
  0057a	48 8b 8c 24 e8
	00 00 00	 mov	 rcx, QWORD PTR regs$[rsp]
  00582	ff 15 00 00 00
	00		 call	 QWORD PTR __imp_z900_program_interrupt
$LN20@z900_dyn_c:

; 4745 :       break;

  00588	eb 46		 jmp	 SHORT $LN5@z900_dyn_c
$LN21@z900_dyn_c:
$LN22@z900_dyn_c:
$LN23@z900_dyn_c:
$LN24@z900_dyn_c:
$LN25@z900_dyn_c:
$LN26@z900_dyn_c:

; 4746 :     }
; 4747 :     case 18: /* aes-128 */
; 4748 :     case 19: /* aes-192 */
; 4749 :     case 20: /* aes-256 */
; 4750 :     case 26: /* encrypted aes-128 */
; 4751 :     case 27: /* encrypted aes-192 */
; 4752 :     case 28: /* encrypted aes-256 */
; 4753 :     {
; 4754 :       if(msa >= 4)

  0058a	83 7c 24 38 04	 cmp	 DWORD PTR msa$[rsp], 4
  0058f	7c 17		 jl	 SHORT $LN27@z900_dyn_c

; 4755 :         ARCH_DEP(kmf_aes)(r1, r2, regs);

  00591	4c 8b 84 24 e8
	00 00 00	 mov	 r8, QWORD PTR regs$[rsp]
  00599	8b 54 24 30	 mov	 edx, DWORD PTR r2$[rsp]
  0059d	8b 4c 24 34	 mov	 ecx, DWORD PTR r1$[rsp]
  005a1	e8 00 00 00 00	 call	 z900_kmf_aes
  005a6	eb 13		 jmp	 SHORT $LN28@z900_dyn_c
$LN27@z900_dyn_c:

; 4756 :       else
; 4757 :         ARCH_DEP(program_interrupt)(regs, PGM_SPECIFICATION_EXCEPTION);

  005a8	ba 06 00 00 00	 mov	 edx, 6
  005ad	48 8b 8c 24 e8
	00 00 00	 mov	 rcx, QWORD PTR regs$[rsp]
  005b5	ff 15 00 00 00
	00		 call	 QWORD PTR __imp_z900_program_interrupt
$LN28@z900_dyn_c:

; 4758 :       break;

  005bb	eb 13		 jmp	 SHORT $LN5@z900_dyn_c
$LN29@z900_dyn_c:

; 4759 :     }
; 4760 :     default:
; 4761 :     {
; 4762 :       ARCH_DEP(program_interrupt)(regs, PGM_SPECIFICATION_EXCEPTION);

  005bd	ba 06 00 00 00	 mov	 edx, 6
  005c2	48 8b 8c 24 e8
	00 00 00	 mov	 rcx, QWORD PTR regs$[rsp]
  005ca	ff 15 00 00 00
	00		 call	 QWORD PTR __imp_z900_program_interrupt
$LN5@z900_dyn_c:
$LN1@z900_dyn_c:

; 4763 :       break;
; 4764 :     }
; 4765 :   }
; 4766 : }

  005d0	48 8b 8c 24 c0
	00 00 00	 mov	 rcx, QWORD PTR __$ArrayPad$[rsp]
  005d8	48 33 cc	 xor	 rcx, rsp
  005db	e8 00 00 00 00	 call	 __security_check_cookie
  005e0	48 81 c4 d8 00
	00 00		 add	 rsp, 216		; 000000d8H
  005e7	c3		 ret	 0
$LN43@z900_dyn_c:
  005e8	00 00 00 00	 DD	 $LN12@z900_dyn_c
  005ec	00 00 00 00	 DD	 $LN13@z900_dyn_c
  005f0	00 00 00 00	 DD	 $LN14@z900_dyn_c
  005f4	00 00 00 00	 DD	 $LN15@z900_dyn_c
  005f8	00 00 00 00	 DD	 $LN29@z900_dyn_c
  005fc	00 00 00 00	 DD	 $LN29@z900_dyn_c
  00600	00 00 00 00	 DD	 $LN29@z900_dyn_c
  00604	00 00 00 00	 DD	 $LN29@z900_dyn_c
  00608	00 00 00 00	 DD	 $LN29@z900_dyn_c
  0060c	00 00 00 00	 DD	 $LN16@z900_dyn_c
  00610	00 00 00 00	 DD	 $LN17@z900_dyn_c
  00614	00 00 00 00	 DD	 $LN18@z900_dyn_c
  00618	00 00 00 00	 DD	 $LN29@z900_dyn_c
  0061c	00 00 00 00	 DD	 $LN29@z900_dyn_c
  00620	00 00 00 00	 DD	 $LN29@z900_dyn_c
  00624	00 00 00 00	 DD	 $LN29@z900_dyn_c
  00628	00 00 00 00	 DD	 $LN29@z900_dyn_c
  0062c	00 00 00 00	 DD	 $LN29@z900_dyn_c
  00630	00 00 00 00	 DD	 $LN21@z900_dyn_c
  00634	00 00 00 00	 DD	 $LN22@z900_dyn_c
  00638	00 00 00 00	 DD	 $LN23@z900_dyn_c
  0063c	00 00 00 00	 DD	 $LN29@z900_dyn_c
  00640	00 00 00 00	 DD	 $LN29@z900_dyn_c
  00644	00 00 00 00	 DD	 $LN29@z900_dyn_c
  00648	00 00 00 00	 DD	 $LN29@z900_dyn_c
  0064c	00 00 00 00	 DD	 $LN29@z900_dyn_c
  00650	00 00 00 00	 DD	 $LN24@z900_dyn_c
  00654	00 00 00 00	 DD	 $LN25@z900_dyn_c
  00658	00 00 00 00	 DD	 $LN26@z900_dyn_c
z900_dyn_cipher_message_with_cipher_feedback ENDP
_TEXT	ENDS
; Function compile flags: /Odtp
; File C:\papa\MyGit\hyperion-zvector\dyncrypt.c
_TEXT	SEGMENT
r2$ = 48
r3$ = 52
r1$ = 56
msa$ = 60
temp$1 = 64
tv310 = 68
tv319 = 72
tv334 = 80
query_bits$ = 96
__$ArrayPad$ = 176
inst$ = 208
regs$ = 216
z900_dyn_cipher_message_with_counter PROC

; 4576 : {

$LN36:
  00000	48 89 54 24 10	 mov	 QWORD PTR [rsp+16], rdx
  00005	48 89 4c 24 08	 mov	 QWORD PTR [rsp+8], rcx
  0000a	48 81 ec c8 00
	00 00		 sub	 rsp, 200		; 000000c8H
  00011	48 8b 05 00 00
	00 00		 mov	 rax, QWORD PTR __security_cookie
  00018	48 33 c4	 xor	 rax, rsp
  0001b	48 89 84 24 b0
	00 00 00	 mov	 QWORD PTR __$ArrayPad$[rsp], rax

; 4577 :   int msa;
; 4578 :   BYTE query_bits[][16] =

  00023	c6 44 24 60 00	 mov	 BYTE PTR query_bits$[rsp], 0
  00028	c6 44 24 61 00	 mov	 BYTE PTR query_bits$[rsp+1], 0
  0002d	c6 44 24 62 00	 mov	 BYTE PTR query_bits$[rsp+2], 0
  00032	c6 44 24 63 00	 mov	 BYTE PTR query_bits$[rsp+3], 0
  00037	c6 44 24 64 00	 mov	 BYTE PTR query_bits$[rsp+4], 0
  0003c	c6 44 24 65 00	 mov	 BYTE PTR query_bits$[rsp+5], 0
  00041	c6 44 24 66 00	 mov	 BYTE PTR query_bits$[rsp+6], 0
  00046	c6 44 24 67 00	 mov	 BYTE PTR query_bits$[rsp+7], 0
  0004b	c6 44 24 68 00	 mov	 BYTE PTR query_bits$[rsp+8], 0
  00050	c6 44 24 69 00	 mov	 BYTE PTR query_bits$[rsp+9], 0
  00055	c6 44 24 6a 00	 mov	 BYTE PTR query_bits$[rsp+10], 0
  0005a	c6 44 24 6b 00	 mov	 BYTE PTR query_bits$[rsp+11], 0
  0005f	c6 44 24 6c 00	 mov	 BYTE PTR query_bits$[rsp+12], 0
  00064	c6 44 24 6d 00	 mov	 BYTE PTR query_bits$[rsp+13], 0
  00069	c6 44 24 6e 00	 mov	 BYTE PTR query_bits$[rsp+14], 0
  0006e	c6 44 24 6f 00	 mov	 BYTE PTR query_bits$[rsp+15], 0
  00073	c6 44 24 70 00	 mov	 BYTE PTR query_bits$[rsp+16], 0
  00078	c6 44 24 71 00	 mov	 BYTE PTR query_bits$[rsp+17], 0
  0007d	c6 44 24 72 00	 mov	 BYTE PTR query_bits$[rsp+18], 0
  00082	c6 44 24 73 00	 mov	 BYTE PTR query_bits$[rsp+19], 0
  00087	c6 44 24 74 00	 mov	 BYTE PTR query_bits$[rsp+20], 0
  0008c	c6 44 24 75 00	 mov	 BYTE PTR query_bits$[rsp+21], 0
  00091	c6 44 24 76 00	 mov	 BYTE PTR query_bits$[rsp+22], 0
  00096	c6 44 24 77 00	 mov	 BYTE PTR query_bits$[rsp+23], 0
  0009b	c6 44 24 78 00	 mov	 BYTE PTR query_bits$[rsp+24], 0
  000a0	c6 44 24 79 00	 mov	 BYTE PTR query_bits$[rsp+25], 0
  000a5	c6 44 24 7a 00	 mov	 BYTE PTR query_bits$[rsp+26], 0
  000aa	c6 44 24 7b 00	 mov	 BYTE PTR query_bits$[rsp+27], 0
  000af	c6 44 24 7c 00	 mov	 BYTE PTR query_bits$[rsp+28], 0
  000b4	c6 44 24 7d 00	 mov	 BYTE PTR query_bits$[rsp+29], 0
  000b9	c6 44 24 7e 00	 mov	 BYTE PTR query_bits$[rsp+30], 0
  000be	c6 44 24 7f 00	 mov	 BYTE PTR query_bits$[rsp+31], 0
  000c3	c6 84 24 80 00
	00 00 00	 mov	 BYTE PTR query_bits$[rsp+32], 0
  000cb	c6 84 24 81 00
	00 00 00	 mov	 BYTE PTR query_bits$[rsp+33], 0
  000d3	c6 84 24 82 00
	00 00 00	 mov	 BYTE PTR query_bits$[rsp+34], 0
  000db	c6 84 24 83 00
	00 00 00	 mov	 BYTE PTR query_bits$[rsp+35], 0
  000e3	c6 84 24 84 00
	00 00 00	 mov	 BYTE PTR query_bits$[rsp+36], 0
  000eb	c6 84 24 85 00
	00 00 00	 mov	 BYTE PTR query_bits$[rsp+37], 0
  000f3	c6 84 24 86 00
	00 00 00	 mov	 BYTE PTR query_bits$[rsp+38], 0
  000fb	c6 84 24 87 00
	00 00 00	 mov	 BYTE PTR query_bits$[rsp+39], 0
  00103	c6 84 24 88 00
	00 00 00	 mov	 BYTE PTR query_bits$[rsp+40], 0
  0010b	c6 84 24 89 00
	00 00 00	 mov	 BYTE PTR query_bits$[rsp+41], 0
  00113	c6 84 24 8a 00
	00 00 00	 mov	 BYTE PTR query_bits$[rsp+42], 0
  0011b	c6 84 24 8b 00
	00 00 00	 mov	 BYTE PTR query_bits$[rsp+43], 0
  00123	c6 84 24 8c 00
	00 00 00	 mov	 BYTE PTR query_bits$[rsp+44], 0
  0012b	c6 84 24 8d 00
	00 00 00	 mov	 BYTE PTR query_bits$[rsp+45], 0
  00133	c6 84 24 8e 00
	00 00 00	 mov	 BYTE PTR query_bits$[rsp+46], 0
  0013b	c6 84 24 8f 00
	00 00 00	 mov	 BYTE PTR query_bits$[rsp+47], 0
  00143	c6 84 24 90 00
	00 00 00	 mov	 BYTE PTR query_bits$[rsp+48], 0
  0014b	c6 84 24 91 00
	00 00 00	 mov	 BYTE PTR query_bits$[rsp+49], 0
  00153	c6 84 24 92 00
	00 00 00	 mov	 BYTE PTR query_bits$[rsp+50], 0
  0015b	c6 84 24 93 00
	00 00 00	 mov	 BYTE PTR query_bits$[rsp+51], 0
  00163	c6 84 24 94 00
	00 00 00	 mov	 BYTE PTR query_bits$[rsp+52], 0
  0016b	c6 84 24 95 00
	00 00 00	 mov	 BYTE PTR query_bits$[rsp+53], 0
  00173	c6 84 24 96 00
	00 00 00	 mov	 BYTE PTR query_bits$[rsp+54], 0
  0017b	c6 84 24 97 00
	00 00 00	 mov	 BYTE PTR query_bits$[rsp+55], 0
  00183	c6 84 24 98 00
	00 00 00	 mov	 BYTE PTR query_bits$[rsp+56], 0
  0018b	c6 84 24 99 00
	00 00 00	 mov	 BYTE PTR query_bits$[rsp+57], 0
  00193	c6 84 24 9a 00
	00 00 00	 mov	 BYTE PTR query_bits$[rsp+58], 0
  0019b	c6 84 24 9b 00
	00 00 00	 mov	 BYTE PTR query_bits$[rsp+59], 0
  001a3	c6 84 24 9c 00
	00 00 00	 mov	 BYTE PTR query_bits$[rsp+60], 0
  001ab	c6 84 24 9d 00
	00 00 00	 mov	 BYTE PTR query_bits$[rsp+61], 0
  001b3	c6 84 24 9e 00
	00 00 00	 mov	 BYTE PTR query_bits$[rsp+62], 0
  001bb	c6 84 24 9f 00
	00 00 00	 mov	 BYTE PTR query_bits$[rsp+63], 0
  001c3	c6 84 24 a0 00
	00 00 f0	 mov	 BYTE PTR query_bits$[rsp+64], 240 ; 000000f0H
  001cb	c6 84 24 a1 00
	00 00 70	 mov	 BYTE PTR query_bits$[rsp+65], 112 ; 00000070H
  001d3	c6 84 24 a2 00
	00 00 38	 mov	 BYTE PTR query_bits$[rsp+66], 56 ; 00000038H
  001db	c6 84 24 a3 00
	00 00 38	 mov	 BYTE PTR query_bits$[rsp+67], 56 ; 00000038H
  001e3	c6 84 24 a4 00
	00 00 00	 mov	 BYTE PTR query_bits$[rsp+68], 0
  001eb	c6 84 24 a5 00
	00 00 00	 mov	 BYTE PTR query_bits$[rsp+69], 0
  001f3	c6 84 24 a6 00
	00 00 00	 mov	 BYTE PTR query_bits$[rsp+70], 0
  001fb	c6 84 24 a7 00
	00 00 00	 mov	 BYTE PTR query_bits$[rsp+71], 0
  00203	c6 84 24 a8 00
	00 00 00	 mov	 BYTE PTR query_bits$[rsp+72], 0
  0020b	c6 84 24 a9 00
	00 00 00	 mov	 BYTE PTR query_bits$[rsp+73], 0
  00213	c6 84 24 aa 00
	00 00 00	 mov	 BYTE PTR query_bits$[rsp+74], 0
  0021b	c6 84 24 ab 00
	00 00 00	 mov	 BYTE PTR query_bits$[rsp+75], 0
  00223	c6 84 24 ac 00
	00 00 00	 mov	 BYTE PTR query_bits$[rsp+76], 0
  0022b	c6 84 24 ad 00
	00 00 00	 mov	 BYTE PTR query_bits$[rsp+77], 0
  00233	c6 84 24 ae 00
	00 00 00	 mov	 BYTE PTR query_bits$[rsp+78], 0
  0023b	c6 84 24 af 00
	00 00 00	 mov	 BYTE PTR query_bits$[rsp+79], 0

; 4579 :   {
; 4580 :     { 0, 0, 0, 0, 0, 0, 0, 0, 0, 0, 0, 0, 0, 0, 0, 0 },
; 4581 :     { 0, 0, 0, 0, 0, 0, 0, 0, 0, 0, 0, 0, 0, 0, 0, 0 },
; 4582 :     { 0, 0, 0, 0, 0, 0, 0, 0, 0, 0, 0, 0, 0, 0, 0, 0 },
; 4583 :     { 0, 0, 0, 0, 0, 0, 0, 0, 0, 0, 0, 0, 0, 0, 0, 0 },
; 4584 :     { 0xf0, 0x70, 0x38, 0x38, 0x00, 0x00, 0x00, 0x00, 0x00, 0x00, 0x00, 0x00, 0x00, 0x00, 0x00, 0x00 }
; 4585 :   };
; 4586 :   int r1;
; 4587 :   int r2;
; 4588 :   int r3;
; 4589 : 
; 4590 :   RRF_M(inst, regs, r1, r2, r3);

  00243	48 8b 8c 24 d0
	00 00 00	 mov	 rcx, QWORD PTR inst$[rsp]
  0024b	e8 00 00 00 00	 call	 fetch_fw_noswap
  00250	8b c8		 mov	 ecx, eax
  00252	e8 00 00 00 00	 call	 _byteswap_ulong
  00257	89 44 24 40	 mov	 DWORD PTR temp$1[rsp], eax
  0025b	8b 44 24 40	 mov	 eax, DWORD PTR temp$1[rsp]
  0025f	83 e0 0f	 and	 eax, 15
  00262	89 44 24 30	 mov	 DWORD PTR r2$[rsp], eax
  00266	8b 44 24 40	 mov	 eax, DWORD PTR temp$1[rsp]
  0026a	c1 e8 04	 shr	 eax, 4
  0026d	83 e0 0f	 and	 eax, 15
  00270	89 44 24 38	 mov	 DWORD PTR r1$[rsp], eax
  00274	8b 44 24 40	 mov	 eax, DWORD PTR temp$1[rsp]
  00278	c1 e8 0c	 shr	 eax, 12
  0027b	83 e0 0f	 and	 eax, 15
  0027e	89 44 24 34	 mov	 DWORD PTR r3$[rsp], eax
$LN4@z900_dyn_c:
  00282	48 8b 84 24 d8
	00 00 00	 mov	 rax, QWORD PTR regs$[rsp]
  0028a	48 8b 40 68	 mov	 rax, QWORD PTR [rax+104]
  0028e	48 83 c0 04	 add	 rax, 4
  00292	48 8b 8c 24 d8
	00 00 00	 mov	 rcx, QWORD PTR regs$[rsp]
  0029a	48 89 41 68	 mov	 QWORD PTR [rcx+104], rax
  0029e	33 c0		 xor	 eax, eax
  002a0	83 f8 04	 cmp	 eax, 4
  002a3	74 0f		 je	 SHORT $LN7@z900_dyn_c
  002a5	48 8b 84 24 d8
	00 00 00	 mov	 rax, QWORD PTR regs$[rsp]
  002ad	c6 80 9a 00 00
	00 04		 mov	 BYTE PTR [rax+154], 4
$LN7@z900_dyn_c:
  002b4	33 c0		 xor	 eax, eax
  002b6	85 c0		 test	 eax, eax
  002b8	75 c8		 jne	 SHORT $LN4@z900_dyn_c

; 4591 :   PER_ZEROADDR_CHECK( regs, 1 );

  002ba	ba 01 00 00 00	 mov	 edx, 1
  002bf	48 8b 8c 24 d8
	00 00 00	 mov	 rcx, QWORD PTR regs$[rsp]
  002c7	e8 00 00 00 00	 call	 z900_per3_zero_check

; 4592 :   PER_ZEROADDR_CHECK2( regs, r1, r3 );

  002cc	44 8b 44 24 34	 mov	 r8d, DWORD PTR r3$[rsp]
  002d1	8b 54 24 38	 mov	 edx, DWORD PTR r1$[rsp]
  002d5	48 8b 8c 24 d8
	00 00 00	 mov	 rcx, QWORD PTR regs$[rsp]
  002dd	e8 00 00 00 00	 call	 z900_per3_zero_check2

; 4593 :   PER_ZEROADDR_LCHECK( regs, r2, r2+1 );

  002e2	8b 44 24 30	 mov	 eax, DWORD PTR r2$[rsp]
  002e6	ff c0		 inc	 eax
  002e8	44 8b c0	 mov	 r8d, eax
  002eb	8b 54 24 30	 mov	 edx, DWORD PTR r2$[rsp]
  002ef	48 8b 8c 24 d8
	00 00 00	 mov	 rcx, QWORD PTR regs$[rsp]
  002f7	e8 00 00 00 00	 call	 z900_per3_zero_lcheck

; 4594 : 
; 4595 :   /* The following is the same as doing a FACILITY_CHECK */
; 4596 :   msa = get_msa(regs);

  002fc	48 8b 8c 24 d8
	00 00 00	 mov	 rcx, QWORD PTR regs$[rsp]
  00304	e8 00 00 00 00	 call	 get_msa
  00309	89 44 24 3c	 mov	 DWORD PTR msa$[rsp], eax

; 4597 :   if(msa < 4)

  0030d	83 7c 24 3c 04	 cmp	 DWORD PTR msa$[rsp], 4
  00312	7d 13		 jge	 SHORT $LN8@z900_dyn_c

; 4598 :     ARCH_DEP(program_interrupt)(regs, PGM_OPERATION_EXCEPTION);

  00314	ba 01 00 00 00	 mov	 edx, 1
  00319	48 8b 8c 24 d8
	00 00 00	 mov	 rcx, QWORD PTR regs$[rsp]
  00321	ff 15 00 00 00
	00		 call	 QWORD PTR __imp_z900_program_interrupt
$LN8@z900_dyn_c:

; 4599 : 
; 4600 : #ifdef OPTION_KMCTR_DEBUG
; 4601 :   WRMSG(HHC90100, "D", "KMCTR: cipher message with counter");
; 4602 :   WRMSG(HHC90101, "D", 1, r1);
; 4603 :   WRMSG(HHC90102, "D", regs->GR(r1));
; 4604 :   WRMSG(HHC90101, "D", 2, r2);
; 4605 :   WRMSG(HHC90102, "D", regs->GR(r2));
; 4606 :   WRMSG(HHC90103, "D", regs->GR(r2 + 1));
; 4607 :   WRMSG(HHC90101, "D", 3, r3);
; 4608 :   WRMSG(HHC90104, "D", 0, regs->GR(0));
; 4609 :   WRMSG(HHC90106, "D", GR0_fc(regs));
; 4610 :   WRMSG(HHC90104, "D", 1, regs->GR(1));
; 4611 : #endif /* #ifdef OPTION_KMCTR_DEBUG */
; 4612 : 
; 4613 :   /* Check special conditions */
; 4614 :   if(unlikely(!r1 || r1 & 0x01 || !r2 || r2 & 0x01 || !r3 || r3 & 0x01))

  00327	83 7c 24 38 00	 cmp	 DWORD PTR r1$[rsp], 0
  0032c	74 39		 je	 SHORT $LN29@z900_dyn_c
  0032e	8b 44 24 38	 mov	 eax, DWORD PTR r1$[rsp]
  00332	83 e0 01	 and	 eax, 1
  00335	85 c0		 test	 eax, eax
  00337	75 2e		 jne	 SHORT $LN29@z900_dyn_c
  00339	83 7c 24 30 00	 cmp	 DWORD PTR r2$[rsp], 0
  0033e	74 27		 je	 SHORT $LN29@z900_dyn_c
  00340	8b 44 24 30	 mov	 eax, DWORD PTR r2$[rsp]
  00344	83 e0 01	 and	 eax, 1
  00347	85 c0		 test	 eax, eax
  00349	75 1c		 jne	 SHORT $LN29@z900_dyn_c
  0034b	83 7c 24 34 00	 cmp	 DWORD PTR r3$[rsp], 0
  00350	74 15		 je	 SHORT $LN29@z900_dyn_c
  00352	8b 44 24 34	 mov	 eax, DWORD PTR r3$[rsp]
  00356	83 e0 01	 and	 eax, 1
  00359	85 c0		 test	 eax, eax
  0035b	75 0a		 jne	 SHORT $LN29@z900_dyn_c
  0035d	c7 44 24 44 00
	00 00 00	 mov	 DWORD PTR tv310[rsp], 0
  00365	eb 08		 jmp	 SHORT $LN32@z900_dyn_c
$LN29@z900_dyn_c:
  00367	c7 44 24 44 01
	00 00 00	 mov	 DWORD PTR tv310[rsp], 1
$LN32@z900_dyn_c:
  0036f	83 7c 24 44 00	 cmp	 DWORD PTR tv310[rsp], 0
  00374	74 13		 je	 SHORT $LN9@z900_dyn_c

; 4615 :     ARCH_DEP(program_interrupt)(regs, PGM_SPECIFICATION_EXCEPTION);

  00376	ba 06 00 00 00	 mov	 edx, 6
  0037b	48 8b 8c 24 d8
	00 00 00	 mov	 rcx, QWORD PTR regs$[rsp]
  00383	ff 15 00 00 00
	00		 call	 QWORD PTR __imp_z900_program_interrupt
$LN9@z900_dyn_c:

; 4616 : 
; 4617 :   switch(GR0_fc(regs))

  00389	b8 08 00 00 00	 mov	 eax, 8
  0038e	48 6b c0 00	 imul	 rax, rax, 0
  00392	48 8b 8c 24 d8
	00 00 00	 mov	 rcx, QWORD PTR regs$[rsp]
  0039a	8b 84 01 80 02
	00 00		 mov	 eax, DWORD PTR [rcx+rax+640]
  003a1	83 e0 7f	 and	 eax, 127		; 0000007fH
  003a4	89 44 24 48	 mov	 DWORD PTR tv319[rsp], eax
  003a8	83 7c 24 48 1c	 cmp	 DWORD PTR tv319[rsp], 28
  003ad	0f 87 2f 01 00
	00		 ja	 $LN27@z900_dyn_c
  003b3	8b 44 24 48	 mov	 eax, DWORD PTR tv319[rsp]
  003b7	48 8d 0d 00 00
	00 00		 lea	 rcx, OFFSET FLAT:__ImageBase
  003be	8b 84 81 00 00
	00 00		 mov	 eax, DWORD PTR $LN35@z900_dyn_c[rcx+rax*4]
  003c5	48 03 c1	 add	 rax, rcx
  003c8	ff e0		 jmp	 rax
$LN10@z900_dyn_c:

; 4618 :   {
; 4619 :     case 0: /* Query */
; 4620 :     {
; 4621 :       /* Store the parameter block */
; 4622 :       ARCH_DEP(vstorec)(query_bits[msa], 15, GR_A(1, regs) & ADDRESS_MAXWRAP(regs), 1, regs);

  003ca	48 8b 84 24 d8
	00 00 00	 mov	 rax, QWORD PTR regs$[rsp]
  003d2	8b 80 80 00 00
	00		 mov	 eax, DWORD PTR [rax+128]
  003d8	83 e0 01	 and	 eax, 1
  003db	85 c0		 test	 eax, eax
  003dd	74 20		 je	 SHORT $LN33@z900_dyn_c
  003df	b8 08 00 00 00	 mov	 eax, 8
  003e4	48 6b c0 01	 imul	 rax, rax, 1
  003e8	48 8b 8c 24 d8
	00 00 00	 mov	 rcx, QWORD PTR regs$[rsp]
  003f0	48 8b 84 01 80
	02 00 00	 mov	 rax, QWORD PTR [rcx+rax+640]
  003f8	48 89 44 24 50	 mov	 QWORD PTR tv334[rsp], rax
  003fd	eb 1d		 jmp	 SHORT $LN34@z900_dyn_c
$LN33@z900_dyn_c:
  003ff	b8 08 00 00 00	 mov	 eax, 8
  00404	48 6b c0 01	 imul	 rax, rax, 1
  00408	48 8b 8c 24 d8
	00 00 00	 mov	 rcx, QWORD PTR regs$[rsp]
  00410	8b 84 01 80 02
	00 00		 mov	 eax, DWORD PTR [rcx+rax+640]
  00417	48 89 44 24 50	 mov	 QWORD PTR tv334[rsp], rax
$LN34@z900_dyn_c:
  0041c	48 8b 84 24 d8
	00 00 00	 mov	 rax, QWORD PTR regs$[rsp]
  00424	48 8b 80 90 00
	00 00		 mov	 rax, QWORD PTR [rax+144]
  0042b	48 8b 4c 24 50	 mov	 rcx, QWORD PTR tv334[rsp]
  00430	48 23 c8	 and	 rcx, rax
  00433	48 8b c1	 mov	 rax, rcx
  00436	48 63 4c 24 3c	 movsxd	 rcx, DWORD PTR msa$[rsp]
  0043b	48 6b c9 10	 imul	 rcx, rcx, 16
  0043f	48 8d 4c 0c 60	 lea	 rcx, QWORD PTR query_bits$[rsp+rcx]
  00444	48 8b 94 24 d8
	00 00 00	 mov	 rdx, QWORD PTR regs$[rsp]
  0044c	48 89 54 24 20	 mov	 QWORD PTR [rsp+32], rdx
  00451	41 b9 01 00 00
	00		 mov	 r9d, 1
  00457	4c 8b c0	 mov	 r8, rax
  0045a	b2 0f		 mov	 dl, 15
  0045c	e8 00 00 00 00	 call	 z900_vstorec

; 4623 : 
; 4624 : #ifdef OPTION_KMCTR_DEBUG
; 4625 :       LOGBYTE("output:", query_bits[msa], 16);
; 4626 : #endif /* #ifdef OPTION_KMCTR_DEBUG */
; 4627 : 
; 4628 :       /* Set condition code 0 */
; 4629 :       regs->psw.cc = 0;

  00461	48 8b 84 24 d8
	00 00 00	 mov	 rax, QWORD PTR regs$[rsp]
  00469	c6 40 7c 00	 mov	 BYTE PTR [rax+124], 0

; 4630 :       return;

  0046d	e9 83 00 00 00	 jmp	 $LN1@z900_dyn_c
$LN11@z900_dyn_c:
$LN12@z900_dyn_c:
$LN13@z900_dyn_c:
$LN14@z900_dyn_c:
$LN15@z900_dyn_c:
$LN16@z900_dyn_c:

; 4631 :     }
; 4632 : 
; 4633 :     case 1: /* dea */
; 4634 :     case 2: /* tdea-128 */
; 4635 :     case 3: /* tdea-192 */
; 4636 :     case 9: /* encrypted dea */
; 4637 :     case 10: /* encrypted tdea-128 */
; 4638 :     case 11: /* encrypted tdea-192 */
; 4639 :     {
; 4640 :       if(msa >= 4)

  00472	83 7c 24 3c 04	 cmp	 DWORD PTR msa$[rsp], 4
  00477	7c 1c		 jl	 SHORT $LN17@z900_dyn_c

; 4641 :         ARCH_DEP(kmctr_dea)(r1, r2, r3, regs);

  00479	4c 8b 8c 24 d8
	00 00 00	 mov	 r9, QWORD PTR regs$[rsp]
  00481	44 8b 44 24 34	 mov	 r8d, DWORD PTR r3$[rsp]
  00486	8b 54 24 30	 mov	 edx, DWORD PTR r2$[rsp]
  0048a	8b 4c 24 38	 mov	 ecx, DWORD PTR r1$[rsp]
  0048e	e8 00 00 00 00	 call	 z900_kmctr_dea
  00493	eb 13		 jmp	 SHORT $LN18@z900_dyn_c
$LN17@z900_dyn_c:

; 4642 :       else
; 4643 :         ARCH_DEP(program_interrupt)(regs, PGM_SPECIFICATION_EXCEPTION);

  00495	ba 06 00 00 00	 mov	 edx, 6
  0049a	48 8b 8c 24 d8
	00 00 00	 mov	 rcx, QWORD PTR regs$[rsp]
  004a2	ff 15 00 00 00
	00		 call	 QWORD PTR __imp_z900_program_interrupt
$LN18@z900_dyn_c:

; 4644 :       break;

  004a8	eb 4b		 jmp	 SHORT $LN5@z900_dyn_c
$LN19@z900_dyn_c:
$LN20@z900_dyn_c:
$LN21@z900_dyn_c:
$LN22@z900_dyn_c:
$LN23@z900_dyn_c:
$LN24@z900_dyn_c:

; 4645 :     }
; 4646 :     case 18: /* aes-128 */
; 4647 :     case 19: /* aes-192 */
; 4648 :     case 20: /* aes-256 */
; 4649 :     case 26: /* encrypted aes-128 */
; 4650 :     case 27: /* encrypted aes-192 */
; 4651 :     case 28: /* encrypted aes-256 */
; 4652 :     {
; 4653 :       if(msa >= 4)

  004aa	83 7c 24 3c 04	 cmp	 DWORD PTR msa$[rsp], 4
  004af	7c 1c		 jl	 SHORT $LN25@z900_dyn_c

; 4654 :         ARCH_DEP(kmctr_aes)(r1, r2, r3, regs);

  004b1	4c 8b 8c 24 d8
	00 00 00	 mov	 r9, QWORD PTR regs$[rsp]
  004b9	44 8b 44 24 34	 mov	 r8d, DWORD PTR r3$[rsp]
  004be	8b 54 24 30	 mov	 edx, DWORD PTR r2$[rsp]
  004c2	8b 4c 24 38	 mov	 ecx, DWORD PTR r1$[rsp]
  004c6	e8 00 00 00 00	 call	 z900_kmctr_aes
  004cb	eb 13		 jmp	 SHORT $LN26@z900_dyn_c
$LN25@z900_dyn_c:

; 4655 :       else
; 4656 :         ARCH_DEP(program_interrupt)(regs, PGM_SPECIFICATION_EXCEPTION);

  004cd	ba 06 00 00 00	 mov	 edx, 6
  004d2	48 8b 8c 24 d8
	00 00 00	 mov	 rcx, QWORD PTR regs$[rsp]
  004da	ff 15 00 00 00
	00		 call	 QWORD PTR __imp_z900_program_interrupt
$LN26@z900_dyn_c:

; 4657 :       break;

  004e0	eb 13		 jmp	 SHORT $LN5@z900_dyn_c
$LN27@z900_dyn_c:

; 4658 :     }
; 4659 :     default:
; 4660 :     {
; 4661 :       ARCH_DEP(program_interrupt)(regs, PGM_SPECIFICATION_EXCEPTION);

  004e2	ba 06 00 00 00	 mov	 edx, 6
  004e7	48 8b 8c 24 d8
	00 00 00	 mov	 rcx, QWORD PTR regs$[rsp]
  004ef	ff 15 00 00 00
	00		 call	 QWORD PTR __imp_z900_program_interrupt
$LN5@z900_dyn_c:
$LN1@z900_dyn_c:

; 4662 :       break;
; 4663 :     }
; 4664 :   }
; 4665 : }

  004f5	48 8b 8c 24 b0
	00 00 00	 mov	 rcx, QWORD PTR __$ArrayPad$[rsp]
  004fd	48 33 cc	 xor	 rcx, rsp
  00500	e8 00 00 00 00	 call	 __security_check_cookie
  00505	48 81 c4 c8 00
	00 00		 add	 rsp, 200		; 000000c8H
  0050c	c3		 ret	 0
  0050d	0f 1f 00	 npad	 3
$LN35@z900_dyn_c:
  00510	00 00 00 00	 DD	 $LN10@z900_dyn_c
  00514	00 00 00 00	 DD	 $LN11@z900_dyn_c
  00518	00 00 00 00	 DD	 $LN12@z900_dyn_c
  0051c	00 00 00 00	 DD	 $LN13@z900_dyn_c
  00520	00 00 00 00	 DD	 $LN27@z900_dyn_c
  00524	00 00 00 00	 DD	 $LN27@z900_dyn_c
  00528	00 00 00 00	 DD	 $LN27@z900_dyn_c
  0052c	00 00 00 00	 DD	 $LN27@z900_dyn_c
  00530	00 00 00 00	 DD	 $LN27@z900_dyn_c
  00534	00 00 00 00	 DD	 $LN14@z900_dyn_c
  00538	00 00 00 00	 DD	 $LN15@z900_dyn_c
  0053c	00 00 00 00	 DD	 $LN16@z900_dyn_c
  00540	00 00 00 00	 DD	 $LN27@z900_dyn_c
  00544	00 00 00 00	 DD	 $LN27@z900_dyn_c
  00548	00 00 00 00	 DD	 $LN27@z900_dyn_c
  0054c	00 00 00 00	 DD	 $LN27@z900_dyn_c
  00550	00 00 00 00	 DD	 $LN27@z900_dyn_c
  00554	00 00 00 00	 DD	 $LN27@z900_dyn_c
  00558	00 00 00 00	 DD	 $LN19@z900_dyn_c
  0055c	00 00 00 00	 DD	 $LN20@z900_dyn_c
  00560	00 00 00 00	 DD	 $LN21@z900_dyn_c
  00564	00 00 00 00	 DD	 $LN27@z900_dyn_c
  00568	00 00 00 00	 DD	 $LN27@z900_dyn_c
  0056c	00 00 00 00	 DD	 $LN27@z900_dyn_c
  00570	00 00 00 00	 DD	 $LN27@z900_dyn_c
  00574	00 00 00 00	 DD	 $LN27@z900_dyn_c
  00578	00 00 00 00	 DD	 $LN22@z900_dyn_c
  0057c	00 00 00 00	 DD	 $LN23@z900_dyn_c
  00580	00 00 00 00	 DD	 $LN24@z900_dyn_c
z900_dyn_cipher_message_with_counter ENDP
_TEXT	ENDS
; Function compile flags: /Odtp
; File C:\papa\MyGit\hyperion-zvector\dyncrypt.c
_TEXT	SEGMENT
r2$ = 48
r1$ = 52
msa$ = 56
i$1 = 60
tv338 = 64
tv347 = 68
tv89 = 72
tv297 = 80
tv313 = 88
tv362 = 96
query_bits$ = 112
__$ArrayPad$ = 192
inst$ = 224
regs$ = 232
z900_dyn_cipher_message_with_chaining PROC

; 4434 : {

$LN52:
  00000	48 89 54 24 10	 mov	 QWORD PTR [rsp+16], rdx
  00005	48 89 4c 24 08	 mov	 QWORD PTR [rsp+8], rcx
  0000a	48 81 ec d8 00
	00 00		 sub	 rsp, 216		; 000000d8H
  00011	48 8b 05 00 00
	00 00		 mov	 rax, QWORD PTR __security_cookie
  00018	48 33 c4	 xor	 rax, rsp
  0001b	48 89 84 24 c0
	00 00 00	 mov	 QWORD PTR __$ArrayPad$[rsp], rax

; 4435 :   int msa;
; 4436 :   BYTE query_bits[][16] =

  00023	c6 44 24 70 f0	 mov	 BYTE PTR query_bits$[rsp], 240 ; 000000f0H
  00028	c6 44 24 71 00	 mov	 BYTE PTR query_bits$[rsp+1], 0
  0002d	c6 44 24 72 00	 mov	 BYTE PTR query_bits$[rsp+2], 0
  00032	c6 44 24 73 00	 mov	 BYTE PTR query_bits$[rsp+3], 0
  00037	c6 44 24 74 00	 mov	 BYTE PTR query_bits$[rsp+4], 0
  0003c	c6 44 24 75 00	 mov	 BYTE PTR query_bits$[rsp+5], 0
  00041	c6 44 24 76 00	 mov	 BYTE PTR query_bits$[rsp+6], 0
  00046	c6 44 24 77 00	 mov	 BYTE PTR query_bits$[rsp+7], 0
  0004b	c6 44 24 78 00	 mov	 BYTE PTR query_bits$[rsp+8], 0
  00050	c6 44 24 79 00	 mov	 BYTE PTR query_bits$[rsp+9], 0
  00055	c6 44 24 7a 00	 mov	 BYTE PTR query_bits$[rsp+10], 0
  0005a	c6 44 24 7b 00	 mov	 BYTE PTR query_bits$[rsp+11], 0
  0005f	c6 44 24 7c 00	 mov	 BYTE PTR query_bits$[rsp+12], 0
  00064	c6 44 24 7d 00	 mov	 BYTE PTR query_bits$[rsp+13], 0
  00069	c6 44 24 7e 00	 mov	 BYTE PTR query_bits$[rsp+14], 0
  0006e	c6 44 24 7f 00	 mov	 BYTE PTR query_bits$[rsp+15], 0
  00073	c6 84 24 80 00
	00 00 f0	 mov	 BYTE PTR query_bits$[rsp+16], 240 ; 000000f0H
  0007b	c6 84 24 81 00
	00 00 00	 mov	 BYTE PTR query_bits$[rsp+17], 0
  00083	c6 84 24 82 00
	00 00 20	 mov	 BYTE PTR query_bits$[rsp+18], 32 ; 00000020H
  0008b	c6 84 24 83 00
	00 00 00	 mov	 BYTE PTR query_bits$[rsp+19], 0
  00093	c6 84 24 84 00
	00 00 00	 mov	 BYTE PTR query_bits$[rsp+20], 0
  0009b	c6 84 24 85 00
	00 00 00	 mov	 BYTE PTR query_bits$[rsp+21], 0
  000a3	c6 84 24 86 00
	00 00 00	 mov	 BYTE PTR query_bits$[rsp+22], 0
  000ab	c6 84 24 87 00
	00 00 00	 mov	 BYTE PTR query_bits$[rsp+23], 0
  000b3	c6 84 24 88 00
	00 00 10	 mov	 BYTE PTR query_bits$[rsp+24], 16
  000bb	c6 84 24 89 00
	00 00 00	 mov	 BYTE PTR query_bits$[rsp+25], 0
  000c3	c6 84 24 8a 00
	00 00 00	 mov	 BYTE PTR query_bits$[rsp+26], 0
  000cb	c6 84 24 8b 00
	00 00 00	 mov	 BYTE PTR query_bits$[rsp+27], 0
  000d3	c6 84 24 8c 00
	00 00 00	 mov	 BYTE PTR query_bits$[rsp+28], 0
  000db	c6 84 24 8d 00
	00 00 00	 mov	 BYTE PTR query_bits$[rsp+29], 0
  000e3	c6 84 24 8e 00
	00 00 00	 mov	 BYTE PTR query_bits$[rsp+30], 0
  000eb	c6 84 24 8f 00
	00 00 00	 mov	 BYTE PTR query_bits$[rsp+31], 0
  000f3	c6 84 24 90 00
	00 00 f0	 mov	 BYTE PTR query_bits$[rsp+32], 240 ; 000000f0H
  000fb	c6 84 24 91 00
	00 00 00	 mov	 BYTE PTR query_bits$[rsp+33], 0
  00103	c6 84 24 92 00
	00 00 38	 mov	 BYTE PTR query_bits$[rsp+34], 56 ; 00000038H
  0010b	c6 84 24 93 00
	00 00 00	 mov	 BYTE PTR query_bits$[rsp+35], 0
  00113	c6 84 24 94 00
	00 00 00	 mov	 BYTE PTR query_bits$[rsp+36], 0
  0011b	c6 84 24 95 00
	00 00 00	 mov	 BYTE PTR query_bits$[rsp+37], 0
  00123	c6 84 24 96 00
	00 00 00	 mov	 BYTE PTR query_bits$[rsp+38], 0
  0012b	c6 84 24 97 00
	00 00 00	 mov	 BYTE PTR query_bits$[rsp+39], 0
  00133	c6 84 24 98 00
	00 00 10	 mov	 BYTE PTR query_bits$[rsp+40], 16
  0013b	c6 84 24 99 00
	00 00 00	 mov	 BYTE PTR query_bits$[rsp+41], 0
  00143	c6 84 24 9a 00
	00 00 00	 mov	 BYTE PTR query_bits$[rsp+42], 0
  0014b	c6 84 24 9b 00
	00 00 00	 mov	 BYTE PTR query_bits$[rsp+43], 0
  00153	c6 84 24 9c 00
	00 00 00	 mov	 BYTE PTR query_bits$[rsp+44], 0
  0015b	c6 84 24 9d 00
	00 00 00	 mov	 BYTE PTR query_bits$[rsp+45], 0
  00163	c6 84 24 9e 00
	00 00 00	 mov	 BYTE PTR query_bits$[rsp+46], 0
  0016b	c6 84 24 9f 00
	00 00 00	 mov	 BYTE PTR query_bits$[rsp+47], 0
  00173	c6 84 24 a0 00
	00 00 f0	 mov	 BYTE PTR query_bits$[rsp+48], 240 ; 000000f0H
  0017b	c6 84 24 a1 00
	00 00 70	 mov	 BYTE PTR query_bits$[rsp+49], 112 ; 00000070H
  00183	c6 84 24 a2 00
	00 00 38	 mov	 BYTE PTR query_bits$[rsp+50], 56 ; 00000038H
  0018b	c6 84 24 a3 00
	00 00 38	 mov	 BYTE PTR query_bits$[rsp+51], 56 ; 00000038H
  00193	c6 84 24 a4 00
	00 00 00	 mov	 BYTE PTR query_bits$[rsp+52], 0
  0019b	c6 84 24 a5 00
	00 00 00	 mov	 BYTE PTR query_bits$[rsp+53], 0
  001a3	c6 84 24 a6 00
	00 00 00	 mov	 BYTE PTR query_bits$[rsp+54], 0
  001ab	c6 84 24 a7 00
	00 00 00	 mov	 BYTE PTR query_bits$[rsp+55], 0
  001b3	c6 84 24 a8 00
	00 00 10	 mov	 BYTE PTR query_bits$[rsp+56], 16
  001bb	c6 84 24 a9 00
	00 00 00	 mov	 BYTE PTR query_bits$[rsp+57], 0
  001c3	c6 84 24 aa 00
	00 00 00	 mov	 BYTE PTR query_bits$[rsp+58], 0
  001cb	c6 84 24 ab 00
	00 00 00	 mov	 BYTE PTR query_bits$[rsp+59], 0
  001d3	c6 84 24 ac 00
	00 00 00	 mov	 BYTE PTR query_bits$[rsp+60], 0
  001db	c6 84 24 ad 00
	00 00 00	 mov	 BYTE PTR query_bits$[rsp+61], 0
  001e3	c6 84 24 ae 00
	00 00 00	 mov	 BYTE PTR query_bits$[rsp+62], 0
  001eb	c6 84 24 af 00
	00 00 00	 mov	 BYTE PTR query_bits$[rsp+63], 0
  001f3	c6 84 24 b0 00
	00 00 f0	 mov	 BYTE PTR query_bits$[rsp+64], 240 ; 000000f0H
  001fb	c6 84 24 b1 00
	00 00 70	 mov	 BYTE PTR query_bits$[rsp+65], 112 ; 00000070H
  00203	c6 84 24 b2 00
	00 00 38	 mov	 BYTE PTR query_bits$[rsp+66], 56 ; 00000038H
  0020b	c6 84 24 b3 00
	00 00 38	 mov	 BYTE PTR query_bits$[rsp+67], 56 ; 00000038H
  00213	c6 84 24 b4 00
	00 00 00	 mov	 BYTE PTR query_bits$[rsp+68], 0
  0021b	c6 84 24 b5 00
	00 00 00	 mov	 BYTE PTR query_bits$[rsp+69], 0
  00223	c6 84 24 b6 00
	00 00 00	 mov	 BYTE PTR query_bits$[rsp+70], 0
  0022b	c6 84 24 b7 00
	00 00 00	 mov	 BYTE PTR query_bits$[rsp+71], 0
  00233	c6 84 24 b8 00
	00 00 10	 mov	 BYTE PTR query_bits$[rsp+72], 16
  0023b	c6 84 24 b9 00
	00 00 00	 mov	 BYTE PTR query_bits$[rsp+73], 0
  00243	c6 84 24 ba 00
	00 00 00	 mov	 BYTE PTR query_bits$[rsp+74], 0
  0024b	c6 84 24 bb 00
	00 00 00	 mov	 BYTE PTR query_bits$[rsp+75], 0
  00253	c6 84 24 bc 00
	00 00 00	 mov	 BYTE PTR query_bits$[rsp+76], 0
  0025b	c6 84 24 bd 00
	00 00 00	 mov	 BYTE PTR query_bits$[rsp+77], 0
  00263	c6 84 24 be 00
	00 00 00	 mov	 BYTE PTR query_bits$[rsp+78], 0
  0026b	c6 84 24 bf 00
	00 00 00	 mov	 BYTE PTR query_bits$[rsp+79], 0

; 4437 :   {
; 4438 :     { 0xf0, 0x00, 0x00, 0x00, 0x00, 0x00, 0x00, 0x00, 0x00, 0x00, 0x00, 0x00, 0x00, 0x00, 0x00, 0x00 },
; 4439 :     { 0xf0, 0x00, 0x20, 0x00, 0x00, 0x00, 0x00, 0x00, 0x10, 0x00, 0x00, 0x00, 0x00, 0x00, 0x00, 0x00 },
; 4440 :     { 0xf0, 0x00, 0x38, 0x00, 0x00, 0x00, 0x00, 0x00, 0x10, 0x00, 0x00, 0x00, 0x00, 0x00, 0x00, 0x00 },
; 4441 :     { 0xf0, 0x70, 0x38, 0x38, 0x00, 0x00, 0x00, 0x00, 0x10, 0x00, 0x00, 0x00, 0x00, 0x00, 0x00, 0x00 },
; 4442 :     /**/ { 0xf0, 0x70, 0x38, 0x38, 0x00, 0x00, 0x00, 0x00, 0x10, 0x00, 0x00, 0x00, 0x00, 0x00, 0x00, 0x00 }
; 4443 :   };
; 4444 :   int r1;
; 4445 :   int r2;
; 4446 : 
; 4447 :   RRE(inst, regs, r1, r2);

  00273	b8 01 00 00 00	 mov	 eax, 1
  00278	48 6b c0 03	 imul	 rax, rax, 3
  0027c	48 8b 8c 24 e0
	00 00 00	 mov	 rcx, QWORD PTR inst$[rsp]
  00284	0f b6 04 01	 movzx	 eax, BYTE PTR [rcx+rax]
  00288	89 44 24 3c	 mov	 DWORD PTR i$1[rsp], eax
  0028c	8b 44 24 3c	 mov	 eax, DWORD PTR i$1[rsp]
  00290	83 e0 0f	 and	 eax, 15
  00293	89 44 24 30	 mov	 DWORD PTR r2$[rsp], eax
  00297	8b 44 24 3c	 mov	 eax, DWORD PTR i$1[rsp]
  0029b	c1 f8 04	 sar	 eax, 4
  0029e	83 e0 0f	 and	 eax, 15
  002a1	89 44 24 34	 mov	 DWORD PTR r1$[rsp], eax
$LN4@z900_dyn_c:
  002a5	48 8b 84 24 e8
	00 00 00	 mov	 rax, QWORD PTR regs$[rsp]
  002ad	48 8b 40 68	 mov	 rax, QWORD PTR [rax+104]
  002b1	48 83 c0 04	 add	 rax, 4
  002b5	48 8b 8c 24 e8
	00 00 00	 mov	 rcx, QWORD PTR regs$[rsp]
  002bd	48 89 41 68	 mov	 QWORD PTR [rcx+104], rax
  002c1	33 c0		 xor	 eax, eax
  002c3	83 f8 04	 cmp	 eax, 4
  002c6	74 0f		 je	 SHORT $LN7@z900_dyn_c
  002c8	48 8b 84 24 e8
	00 00 00	 mov	 rax, QWORD PTR regs$[rsp]
  002d0	c6 80 9a 00 00
	00 04		 mov	 BYTE PTR [rax+154], 4
$LN7@z900_dyn_c:
  002d7	33 c0		 xor	 eax, eax
  002d9	85 c0		 test	 eax, eax
  002db	75 c8		 jne	 SHORT $LN4@z900_dyn_c

; 4448 : 
; 4449 : #if defined( FEATURE_PER_ZERO_ADDRESS_DETECTION_FACILITY )
; 4450 :     if (0
; 4451 :         || GR_A( 1,  regs ) == 0
; 4452 :         || GR_A( r1, regs ) == 0
; 4453 :         || GR_A( r2, regs ) == 0

  002dd	33 c0		 xor	 eax, eax
  002df	85 c0		 test	 eax, eax
  002e1	0f 85 02 01 00
	00		 jne	 $LN9@z900_dyn_c
  002e7	48 8b 84 24 e8
	00 00 00	 mov	 rax, QWORD PTR regs$[rsp]
  002ef	8b 80 80 00 00
	00		 mov	 eax, DWORD PTR [rax+128]
  002f5	83 e0 01	 and	 eax, 1
  002f8	85 c0		 test	 eax, eax
  002fa	74 20		 je	 SHORT $LN38@z900_dyn_c
  002fc	b8 08 00 00 00	 mov	 eax, 8
  00301	48 6b c0 01	 imul	 rax, rax, 1
  00305	48 8b 8c 24 e8
	00 00 00	 mov	 rcx, QWORD PTR regs$[rsp]
  0030d	48 8b 84 01 80
	02 00 00	 mov	 rax, QWORD PTR [rcx+rax+640]
  00315	48 89 44 24 48	 mov	 QWORD PTR tv89[rsp], rax
  0031a	eb 1d		 jmp	 SHORT $LN39@z900_dyn_c
$LN38@z900_dyn_c:
  0031c	b8 08 00 00 00	 mov	 eax, 8
  00321	48 6b c0 01	 imul	 rax, rax, 1
  00325	48 8b 8c 24 e8
	00 00 00	 mov	 rcx, QWORD PTR regs$[rsp]
  0032d	8b 84 01 80 02
	00 00		 mov	 eax, DWORD PTR [rcx+rax+640]
  00334	48 89 44 24 48	 mov	 QWORD PTR tv89[rsp], rax
$LN39@z900_dyn_c:
  00339	48 83 7c 24 48
	00		 cmp	 QWORD PTR tv89[rsp], 0
  0033f	0f 84 a4 00 00
	00		 je	 $LN9@z900_dyn_c
  00345	48 8b 84 24 e8
	00 00 00	 mov	 rax, QWORD PTR regs$[rsp]
  0034d	8b 80 80 00 00
	00		 mov	 eax, DWORD PTR [rax+128]
  00353	83 e0 01	 and	 eax, 1
  00356	85 c0		 test	 eax, eax
  00358	74 1c		 je	 SHORT $LN40@z900_dyn_c
  0035a	48 63 44 24 34	 movsxd	 rax, DWORD PTR r1$[rsp]
  0035f	48 8b 8c 24 e8
	00 00 00	 mov	 rcx, QWORD PTR regs$[rsp]
  00367	48 8b 84 c1 80
	02 00 00	 mov	 rax, QWORD PTR [rcx+rax*8+640]
  0036f	48 89 44 24 50	 mov	 QWORD PTR tv297[rsp], rax
  00374	eb 19		 jmp	 SHORT $LN41@z900_dyn_c
$LN40@z900_dyn_c:
  00376	48 63 44 24 34	 movsxd	 rax, DWORD PTR r1$[rsp]
  0037b	48 8b 8c 24 e8
	00 00 00	 mov	 rcx, QWORD PTR regs$[rsp]
  00383	8b 84 c1 80 02
	00 00		 mov	 eax, DWORD PTR [rcx+rax*8+640]
  0038a	48 89 44 24 50	 mov	 QWORD PTR tv297[rsp], rax
$LN41@z900_dyn_c:
  0038f	48 83 7c 24 50
	00		 cmp	 QWORD PTR tv297[rsp], 0
  00395	74 52		 je	 SHORT $LN9@z900_dyn_c
  00397	48 8b 84 24 e8
	00 00 00	 mov	 rax, QWORD PTR regs$[rsp]
  0039f	8b 80 80 00 00
	00		 mov	 eax, DWORD PTR [rax+128]
  003a5	83 e0 01	 and	 eax, 1
  003a8	85 c0		 test	 eax, eax
  003aa	74 1c		 je	 SHORT $LN42@z900_dyn_c
  003ac	48 63 44 24 30	 movsxd	 rax, DWORD PTR r2$[rsp]
  003b1	48 8b 8c 24 e8
	00 00 00	 mov	 rcx, QWORD PTR regs$[rsp]
  003b9	48 8b 84 c1 80
	02 00 00	 mov	 rax, QWORD PTR [rcx+rax*8+640]
  003c1	48 89 44 24 58	 mov	 QWORD PTR tv313[rsp], rax
  003c6	eb 19		 jmp	 SHORT $LN43@z900_dyn_c
$LN42@z900_dyn_c:
  003c8	48 63 44 24 30	 movsxd	 rax, DWORD PTR r2$[rsp]
  003cd	48 8b 8c 24 e8
	00 00 00	 mov	 rcx, QWORD PTR regs$[rsp]
  003d5	8b 84 c1 80 02
	00 00		 mov	 eax, DWORD PTR [rcx+rax*8+640]
  003dc	48 89 44 24 58	 mov	 QWORD PTR tv313[rsp], rax
$LN43@z900_dyn_c:
  003e1	48 83 7c 24 58
	00		 cmp	 QWORD PTR tv313[rsp], 0
  003e7	75 0d		 jne	 SHORT $LN8@z900_dyn_c
$LN9@z900_dyn_c:

; 4454 :     )
; 4455 :         ARCH_DEP( per3_zero )( regs );

  003e9	48 8b 8c 24 e8
	00 00 00	 mov	 rcx, QWORD PTR regs$[rsp]
  003f1	e8 00 00 00 00	 call	 z900_per3_zero
$LN8@z900_dyn_c:

; 4456 : #endif
; 4457 : 
; 4458 :   /* The following is the same as doing a FACILITY_CHECK */
; 4459 :   msa = get_msa(regs);

  003f6	48 8b 8c 24 e8
	00 00 00	 mov	 rcx, QWORD PTR regs$[rsp]
  003fe	e8 00 00 00 00	 call	 get_msa
  00403	89 44 24 38	 mov	 DWORD PTR msa$[rsp], eax

; 4460 :   if(msa < 0)

  00407	83 7c 24 38 00	 cmp	 DWORD PTR msa$[rsp], 0
  0040c	7d 13		 jge	 SHORT $LN10@z900_dyn_c

; 4461 :     ARCH_DEP(program_interrupt)(regs, PGM_OPERATION_EXCEPTION);

  0040e	ba 01 00 00 00	 mov	 edx, 1
  00413	48 8b 8c 24 e8
	00 00 00	 mov	 rcx, QWORD PTR regs$[rsp]
  0041b	ff 15 00 00 00
	00		 call	 QWORD PTR __imp_z900_program_interrupt
$LN10@z900_dyn_c:

; 4462 : 
; 4463 : #ifdef OPTION_KMC_DEBUG
; 4464 :   WRMSG(HHC90100, "D", "KMC: cipher message with chaining");
; 4465 :   WRMSG(HHC90101, "D", 1, r1);
; 4466 :   WRMSG(HHC90102, "D", regs->GR(r1));
; 4467 :   WRMSG(HHC90101, "D", 2, r2);
; 4468 :   WRMSG(HHC90102, "D", regs->GR(r2));
; 4469 :   WRMSG(HHC90103, "D", regs->GR(r2 + 1));
; 4470 :   WRMSG(HHC90104, "D", 0, regs->GR(0));
; 4471 :   WRMSG(HHC90107, "D", TRUEFALSE(GR0_m(regs)));
; 4472 :   WRMSG(HHC90106, "D", GR0_fc(regs));
; 4473 :   WRMSG(HHC90104, "D", 1, regs->GR(1));
; 4474 : #endif /* #ifdef OPTION_KMC_DEBUG */
; 4475 : 
; 4476 :   /* Check special conditions */
; 4477 :   if(unlikely(!r1 || r1 & 0x01 || !r2 || r2 & 0x01))

  00421	83 7c 24 34 00	 cmp	 DWORD PTR r1$[rsp], 0
  00426	74 27		 je	 SHORT $LN44@z900_dyn_c
  00428	8b 44 24 34	 mov	 eax, DWORD PTR r1$[rsp]
  0042c	83 e0 01	 and	 eax, 1
  0042f	85 c0		 test	 eax, eax
  00431	75 1c		 jne	 SHORT $LN44@z900_dyn_c
  00433	83 7c 24 30 00	 cmp	 DWORD PTR r2$[rsp], 0
  00438	74 15		 je	 SHORT $LN44@z900_dyn_c
  0043a	8b 44 24 30	 mov	 eax, DWORD PTR r2$[rsp]
  0043e	83 e0 01	 and	 eax, 1
  00441	85 c0		 test	 eax, eax
  00443	75 0a		 jne	 SHORT $LN44@z900_dyn_c
  00445	c7 44 24 40 00
	00 00 00	 mov	 DWORD PTR tv338[rsp], 0
  0044d	eb 08		 jmp	 SHORT $LN47@z900_dyn_c
$LN44@z900_dyn_c:
  0044f	c7 44 24 40 01
	00 00 00	 mov	 DWORD PTR tv338[rsp], 1
$LN47@z900_dyn_c:
  00457	83 7c 24 40 00	 cmp	 DWORD PTR tv338[rsp], 0
  0045c	74 13		 je	 SHORT $LN11@z900_dyn_c

; 4478 :     ARCH_DEP(program_interrupt)(regs, PGM_SPECIFICATION_EXCEPTION);

  0045e	ba 06 00 00 00	 mov	 edx, 6
  00463	48 8b 8c 24 e8
	00 00 00	 mov	 rcx, QWORD PTR regs$[rsp]
  0046b	ff 15 00 00 00
	00		 call	 QWORD PTR __imp_z900_program_interrupt
$LN11@z900_dyn_c:

; 4479 : 
; 4480 :   switch(GR0_fc(regs))

  00471	b8 08 00 00 00	 mov	 eax, 8
  00476	48 6b c0 00	 imul	 rax, rax, 0
  0047a	48 8b 8c 24 e8
	00 00 00	 mov	 rcx, QWORD PTR regs$[rsp]
  00482	8b 84 01 80 02
	00 00		 mov	 eax, DWORD PTR [rcx+rax+640]
  00489	83 e0 7f	 and	 eax, 127		; 0000007fH
  0048c	89 44 24 44	 mov	 DWORD PTR tv347[rsp], eax
  00490	83 7c 24 44 43	 cmp	 DWORD PTR tv347[rsp], 67 ; 00000043H
  00495	0f 87 e6 01 00
	00		 ja	 $LN36@z900_dyn_c
  0049b	8b 44 24 44	 mov	 eax, DWORD PTR tv347[rsp]
  0049f	48 8d 0d 00 00
	00 00		 lea	 rcx, OFFSET FLAT:__ImageBase
  004a6	0f b6 84 01 00
	00 00 00	 movzx	 eax, BYTE PTR $LN50@z900_dyn_c[rcx+rax]
  004ae	8b 84 81 00 00
	00 00		 mov	 eax, DWORD PTR $LN51@z900_dyn_c[rcx+rax*4]
  004b5	48 03 c1	 add	 rax, rcx
  004b8	ff e0		 jmp	 rax
$LN12@z900_dyn_c:

; 4481 :   {
; 4482 :     case 0: /* Query */
; 4483 :     {
; 4484 :       /* Store the parameter block */
; 4485 :       ARCH_DEP(vstorec)(query_bits[msa], 15, GR_A(1, regs) & ADDRESS_MAXWRAP(regs), 1, regs);

  004ba	48 8b 84 24 e8
	00 00 00	 mov	 rax, QWORD PTR regs$[rsp]
  004c2	8b 80 80 00 00
	00		 mov	 eax, DWORD PTR [rax+128]
  004c8	83 e0 01	 and	 eax, 1
  004cb	85 c0		 test	 eax, eax
  004cd	74 20		 je	 SHORT $LN48@z900_dyn_c
  004cf	b8 08 00 00 00	 mov	 eax, 8
  004d4	48 6b c0 01	 imul	 rax, rax, 1
  004d8	48 8b 8c 24 e8
	00 00 00	 mov	 rcx, QWORD PTR regs$[rsp]
  004e0	48 8b 84 01 80
	02 00 00	 mov	 rax, QWORD PTR [rcx+rax+640]
  004e8	48 89 44 24 60	 mov	 QWORD PTR tv362[rsp], rax
  004ed	eb 1d		 jmp	 SHORT $LN49@z900_dyn_c
$LN48@z900_dyn_c:
  004ef	b8 08 00 00 00	 mov	 eax, 8
  004f4	48 6b c0 01	 imul	 rax, rax, 1
  004f8	48 8b 8c 24 e8
	00 00 00	 mov	 rcx, QWORD PTR regs$[rsp]
  00500	8b 84 01 80 02
	00 00		 mov	 eax, DWORD PTR [rcx+rax+640]
  00507	48 89 44 24 60	 mov	 QWORD PTR tv362[rsp], rax
$LN49@z900_dyn_c:
  0050c	48 8b 84 24 e8
	00 00 00	 mov	 rax, QWORD PTR regs$[rsp]
  00514	48 8b 80 90 00
	00 00		 mov	 rax, QWORD PTR [rax+144]
  0051b	48 8b 4c 24 60	 mov	 rcx, QWORD PTR tv362[rsp]
  00520	48 23 c8	 and	 rcx, rax
  00523	48 8b c1	 mov	 rax, rcx
  00526	48 63 4c 24 38	 movsxd	 rcx, DWORD PTR msa$[rsp]
  0052b	48 6b c9 10	 imul	 rcx, rcx, 16
  0052f	48 8d 4c 0c 70	 lea	 rcx, QWORD PTR query_bits$[rsp+rcx]
  00534	48 8b 94 24 e8
	00 00 00	 mov	 rdx, QWORD PTR regs$[rsp]
  0053c	48 89 54 24 20	 mov	 QWORD PTR [rsp+32], rdx
  00541	41 b9 01 00 00
	00		 mov	 r9d, 1
  00547	4c 8b c0	 mov	 r8, rax
  0054a	b2 0f		 mov	 dl, 15
  0054c	e8 00 00 00 00	 call	 z900_vstorec

; 4486 : 
; 4487 : #ifdef OPTION_KMC_DEBUG
; 4488 :       LOGBYTE("output:", query_bits[msa], 16);
; 4489 : #endif /* #ifdef OPTION_KMC_DEBUG */
; 4490 : 
; 4491 :       /* Set condition code 0 */
; 4492 :       regs->psw.cc = 0;

  00551	48 8b 84 24 e8
	00 00 00	 mov	 rax, QWORD PTR regs$[rsp]
  00559	c6 40 7c 00	 mov	 BYTE PTR [rax+124], 0

; 4493 :       return;

  0055d	e9 32 01 00 00	 jmp	 $LN1@z900_dyn_c
$LN13@z900_dyn_c:
$LN14@z900_dyn_c:
$LN15@z900_dyn_c:

; 4494 :     }
; 4495 :     case 1: /* dea */
; 4496 :     case 2: /* tdea-128 */
; 4497 :     case 3: /* tdea-192 */
; 4498 :     {
; 4499 :       ARCH_DEP(kmc_dea)(r1, r2, regs);

  00562	4c 8b 84 24 e8
	00 00 00	 mov	 r8, QWORD PTR regs$[rsp]
  0056a	8b 54 24 30	 mov	 edx, DWORD PTR r2$[rsp]
  0056e	8b 4c 24 34	 mov	 ecx, DWORD PTR r1$[rsp]
  00572	e8 00 00 00 00	 call	 z900_kmc_dea

; 4500 :       break;

  00577	e9 18 01 00 00	 jmp	 $LN5@z900_dyn_c
$LN16@z900_dyn_c:
$LN17@z900_dyn_c:
$LN18@z900_dyn_c:

; 4501 :     }
; 4502 : 
; 4503 : #if defined( FEATURE_076_MSA_EXTENSION_FACILITY_3 )
; 4504 :     case 9: /* encrypted dea */
; 4505 :     case 10: /* encrypted tdea-128 */
; 4506 :     case 11: /* encrypted tdea-192 */
; 4507 :     {
; 4508 :       if(msa >= 3)

  0057c	83 7c 24 38 03	 cmp	 DWORD PTR msa$[rsp], 3
  00581	7c 17		 jl	 SHORT $LN19@z900_dyn_c

; 4509 :         ARCH_DEP(kmc_dea)(r1, r2, regs);

  00583	4c 8b 84 24 e8
	00 00 00	 mov	 r8, QWORD PTR regs$[rsp]
  0058b	8b 54 24 30	 mov	 edx, DWORD PTR r2$[rsp]
  0058f	8b 4c 24 34	 mov	 ecx, DWORD PTR r1$[rsp]
  00593	e8 00 00 00 00	 call	 z900_kmc_dea
  00598	eb 13		 jmp	 SHORT $LN20@z900_dyn_c
$LN19@z900_dyn_c:

; 4510 :       else
; 4511 :         ARCH_DEP(program_interrupt)(regs, PGM_SPECIFICATION_EXCEPTION);

  0059a	ba 06 00 00 00	 mov	 edx, 6
  0059f	48 8b 8c 24 e8
	00 00 00	 mov	 rcx, QWORD PTR regs$[rsp]
  005a7	ff 15 00 00 00
	00		 call	 QWORD PTR __imp_z900_program_interrupt
$LN20@z900_dyn_c:

; 4512 :       break;

  005ad	e9 e2 00 00 00	 jmp	 $LN5@z900_dyn_c
$LN21@z900_dyn_c:

; 4513 :     }
; 4514 : #endif /* defined( FEATURE_076_MSA_EXTENSION_FACILITY_3 ) */
; 4515 : 
; 4516 : #if defined( FEATURE_MSA_EXTENSION_FACILITY_1 )
; 4517 :     case 18: /* aes-128 */
; 4518 :     {
; 4519 :       if(msa >= 1)

  005b2	83 7c 24 38 01	 cmp	 DWORD PTR msa$[rsp], 1
  005b7	7c 17		 jl	 SHORT $LN22@z900_dyn_c

; 4520 :         ARCH_DEP(kmc_aes)(r1, r2, regs);

  005b9	4c 8b 84 24 e8
	00 00 00	 mov	 r8, QWORD PTR regs$[rsp]
  005c1	8b 54 24 30	 mov	 edx, DWORD PTR r2$[rsp]
  005c5	8b 4c 24 34	 mov	 ecx, DWORD PTR r1$[rsp]
  005c9	e8 00 00 00 00	 call	 z900_kmc_aes
  005ce	eb 13		 jmp	 SHORT $LN23@z900_dyn_c
$LN22@z900_dyn_c:

; 4521 :       else
; 4522 :         ARCH_DEP(program_interrupt)(regs, PGM_SPECIFICATION_EXCEPTION);

  005d0	ba 06 00 00 00	 mov	 edx, 6
  005d5	48 8b 8c 24 e8
	00 00 00	 mov	 rcx, QWORD PTR regs$[rsp]
  005dd	ff 15 00 00 00
	00		 call	 QWORD PTR __imp_z900_program_interrupt
$LN23@z900_dyn_c:

; 4523 :       break;

  005e3	e9 ac 00 00 00	 jmp	 $LN5@z900_dyn_c
$LN24@z900_dyn_c:
$LN25@z900_dyn_c:

; 4524 :     }
; 4525 : #endif /* defined( FEATURE_MSA_EXTENSION_FACILITY_1 ) */
; 4526 : 
; 4527 : #if defined( FEATURE_MSA_EXTENSION_FACILITY_2 )
; 4528 :     case 19: /* aes-192 */
; 4529 :     case 20: /* aes-256 */
; 4530 :     {
; 4531 :       if(msa >= 2)

  005e8	83 7c 24 38 02	 cmp	 DWORD PTR msa$[rsp], 2
  005ed	7c 17		 jl	 SHORT $LN26@z900_dyn_c

; 4532 :         ARCH_DEP(kmc_aes)(r1, r2, regs);

  005ef	4c 8b 84 24 e8
	00 00 00	 mov	 r8, QWORD PTR regs$[rsp]
  005f7	8b 54 24 30	 mov	 edx, DWORD PTR r2$[rsp]
  005fb	8b 4c 24 34	 mov	 ecx, DWORD PTR r1$[rsp]
  005ff	e8 00 00 00 00	 call	 z900_kmc_aes
  00604	eb 13		 jmp	 SHORT $LN27@z900_dyn_c
$LN26@z900_dyn_c:

; 4533 :       else
; 4534 :         ARCH_DEP(program_interrupt)(regs, PGM_SPECIFICATION_EXCEPTION);

  00606	ba 06 00 00 00	 mov	 edx, 6
  0060b	48 8b 8c 24 e8
	00 00 00	 mov	 rcx, QWORD PTR regs$[rsp]
  00613	ff 15 00 00 00
	00		 call	 QWORD PTR __imp_z900_program_interrupt
$LN27@z900_dyn_c:

; 4535 :       break;

  00619	eb 79		 jmp	 SHORT $LN5@z900_dyn_c
$LN28@z900_dyn_c:
$LN29@z900_dyn_c:
$LN30@z900_dyn_c:

; 4536 :     }
; 4537 : #endif /* defined( FEATURE_MSA_EXTENSION_FACILITY_2 ) */
; 4538 : 
; 4539 : #if defined( FEATURE_076_MSA_EXTENSION_FACILITY_3 )
; 4540 :     case 26: /* encrypted aes-128 */
; 4541 :     case 27: /* encrypted aes-192 */
; 4542 :     case 28: /* encrypted aes-256 */
; 4543 :     {
; 4544 :       if(msa >= 3)

  0061b	83 7c 24 38 03	 cmp	 DWORD PTR msa$[rsp], 3
  00620	7c 17		 jl	 SHORT $LN31@z900_dyn_c

; 4545 :         ARCH_DEP(kmc_aes)(r1, r2, regs);

  00622	4c 8b 84 24 e8
	00 00 00	 mov	 r8, QWORD PTR regs$[rsp]
  0062a	8b 54 24 30	 mov	 edx, DWORD PTR r2$[rsp]
  0062e	8b 4c 24 34	 mov	 ecx, DWORD PTR r1$[rsp]
  00632	e8 00 00 00 00	 call	 z900_kmc_aes
  00637	eb 13		 jmp	 SHORT $LN32@z900_dyn_c
$LN31@z900_dyn_c:

; 4546 :       else
; 4547 :         ARCH_DEP(program_interrupt)(regs, PGM_SPECIFICATION_EXCEPTION);

  00639	ba 06 00 00 00	 mov	 edx, 6
  0063e	48 8b 8c 24 e8
	00 00 00	 mov	 rcx, QWORD PTR regs$[rsp]
  00646	ff 15 00 00 00
	00		 call	 QWORD PTR __imp_z900_program_interrupt
$LN32@z900_dyn_c:

; 4548 :       break;

  0064c	eb 46		 jmp	 SHORT $LN5@z900_dyn_c
$LN33@z900_dyn_c:

; 4549 :     }
; 4550 : #endif /* defined( FEATURE_076_MSA_EXTENSION_FACILITY_3 ) */
; 4551 : 
; 4552 : #if defined( FEATURE_MSA_EXTENSION_FACILITY_1 )
; 4553 :     case 67: /* prng */
; 4554 :     {
; 4555 :       if(msa >= 1)

  0064e	83 7c 24 38 01	 cmp	 DWORD PTR msa$[rsp], 1
  00653	7c 17		 jl	 SHORT $LN34@z900_dyn_c

; 4556 :         ARCH_DEP(kmc_prng)(r1, r2, regs);

  00655	4c 8b 84 24 e8
	00 00 00	 mov	 r8, QWORD PTR regs$[rsp]
  0065d	8b 54 24 30	 mov	 edx, DWORD PTR r2$[rsp]
  00661	8b 4c 24 34	 mov	 ecx, DWORD PTR r1$[rsp]
  00665	e8 00 00 00 00	 call	 z900_kmc_prng
  0066a	eb 13		 jmp	 SHORT $LN35@z900_dyn_c
$LN34@z900_dyn_c:

; 4557 :       else
; 4558 :         ARCH_DEP(program_interrupt)(regs, PGM_SPECIFICATION_EXCEPTION);

  0066c	ba 06 00 00 00	 mov	 edx, 6
  00671	48 8b 8c 24 e8
	00 00 00	 mov	 rcx, QWORD PTR regs$[rsp]
  00679	ff 15 00 00 00
	00		 call	 QWORD PTR __imp_z900_program_interrupt
$LN35@z900_dyn_c:

; 4559 :       break;

  0067f	eb 13		 jmp	 SHORT $LN5@z900_dyn_c
$LN36@z900_dyn_c:

; 4560 :     }
; 4561 : #endif /* defined( FEATURE_MSA_EXTENSION_FACILITY_1 ) */
; 4562 : 
; 4563 :     default:
; 4564 :     {
; 4565 :       ARCH_DEP(program_interrupt)(regs, PGM_SPECIFICATION_EXCEPTION);

  00681	ba 06 00 00 00	 mov	 edx, 6
  00686	48 8b 8c 24 e8
	00 00 00	 mov	 rcx, QWORD PTR regs$[rsp]
  0068e	ff 15 00 00 00
	00		 call	 QWORD PTR __imp_z900_program_interrupt
$LN5@z900_dyn_c:
$LN1@z900_dyn_c:

; 4566 :       break;
; 4567 :     }
; 4568 :   }
; 4569 : }

  00694	48 8b 8c 24 c0
	00 00 00	 mov	 rcx, QWORD PTR __$ArrayPad$[rsp]
  0069c	48 33 cc	 xor	 rcx, rsp
  0069f	e8 00 00 00 00	 call	 __security_check_cookie
  006a4	48 81 c4 d8 00
	00 00		 add	 rsp, 216		; 000000d8H
  006ab	c3		 ret	 0
$LN51@z900_dyn_c:
  006ac	00 00 00 00	 DD	 $LN12@z900_dyn_c
  006b0	00 00 00 00	 DD	 $LN13@z900_dyn_c
  006b4	00 00 00 00	 DD	 $LN14@z900_dyn_c
  006b8	00 00 00 00	 DD	 $LN15@z900_dyn_c
  006bc	00 00 00 00	 DD	 $LN16@z900_dyn_c
  006c0	00 00 00 00	 DD	 $LN17@z900_dyn_c
  006c4	00 00 00 00	 DD	 $LN18@z900_dyn_c
  006c8	00 00 00 00	 DD	 $LN21@z900_dyn_c
  006cc	00 00 00 00	 DD	 $LN24@z900_dyn_c
  006d0	00 00 00 00	 DD	 $LN25@z900_dyn_c
  006d4	00 00 00 00	 DD	 $LN28@z900_dyn_c
  006d8	00 00 00 00	 DD	 $LN29@z900_dyn_c
  006dc	00 00 00 00	 DD	 $LN30@z900_dyn_c
  006e0	00 00 00 00	 DD	 $LN33@z900_dyn_c
  006e4	00 00 00 00	 DD	 $LN36@z900_dyn_c
$LN50@z900_dyn_c:
  006e8	00		 DB	 0
  006e9	01		 DB	 1
  006ea	02		 DB	 2
  006eb	03		 DB	 3
  006ec	0e		 DB	 14
  006ed	0e		 DB	 14
  006ee	0e		 DB	 14
  006ef	0e		 DB	 14
  006f0	0e		 DB	 14
  006f1	04		 DB	 4
  006f2	05		 DB	 5
  006f3	06		 DB	 6
  006f4	0e		 DB	 14
  006f5	0e		 DB	 14
  006f6	0e		 DB	 14
  006f7	0e		 DB	 14
  006f8	0e		 DB	 14
  006f9	0e		 DB	 14
  006fa	07		 DB	 7
  006fb	08		 DB	 8
  006fc	09		 DB	 9
  006fd	0e		 DB	 14
  006fe	0e		 DB	 14
  006ff	0e		 DB	 14
  00700	0e		 DB	 14
  00701	0e		 DB	 14
  00702	0a		 DB	 10
  00703	0b		 DB	 11
  00704	0c		 DB	 12
  00705	0e		 DB	 14
  00706	0e		 DB	 14
  00707	0e		 DB	 14
  00708	0e		 DB	 14
  00709	0e		 DB	 14
  0070a	0e		 DB	 14
  0070b	0e		 DB	 14
  0070c	0e		 DB	 14
  0070d	0e		 DB	 14
  0070e	0e		 DB	 14
  0070f	0e		 DB	 14
  00710	0e		 DB	 14
  00711	0e		 DB	 14
  00712	0e		 DB	 14
  00713	0e		 DB	 14
  00714	0e		 DB	 14
  00715	0e		 DB	 14
  00716	0e		 DB	 14
  00717	0e		 DB	 14
  00718	0e		 DB	 14
  00719	0e		 DB	 14
  0071a	0e		 DB	 14
  0071b	0e		 DB	 14
  0071c	0e		 DB	 14
  0071d	0e		 DB	 14
  0071e	0e		 DB	 14
  0071f	0e		 DB	 14
  00720	0e		 DB	 14
  00721	0e		 DB	 14
  00722	0e		 DB	 14
  00723	0e		 DB	 14
  00724	0e		 DB	 14
  00725	0e		 DB	 14
  00726	0e		 DB	 14
  00727	0e		 DB	 14
  00728	0e		 DB	 14
  00729	0e		 DB	 14
  0072a	0e		 DB	 14
  0072b	0d		 DB	 13
z900_dyn_cipher_message_with_chaining ENDP
_TEXT	ENDS
; Function compile flags: /Odtp
; File C:\papa\MyGit\hyperion-zvector\dyncrypt.c
_TEXT	SEGMENT
r2$ = 48
msa$ = 52
r1$ = 56
i$1 = 60
tv93 = 64
tv299 = 68
tv308 = 72
tv323 = 80
query_bits$ = 96
__$ArrayPad$ = 176
inst$ = 208
regs$ = 216
z900_dyn_compute_message_authentication_code PROC

; 4334 : {

$LN40:
  00000	48 89 54 24 10	 mov	 QWORD PTR [rsp+16], rdx
  00005	48 89 4c 24 08	 mov	 QWORD PTR [rsp+8], rcx
  0000a	48 81 ec c8 00
	00 00		 sub	 rsp, 200		; 000000c8H
  00011	48 8b 05 00 00
	00 00		 mov	 rax, QWORD PTR __security_cookie
  00018	48 33 c4	 xor	 rax, rsp
  0001b	48 89 84 24 b0
	00 00 00	 mov	 QWORD PTR __$ArrayPad$[rsp], rax

; 4335 :   int msa;
; 4336 :   BYTE query_bits[][16] =

  00023	c6 44 24 60 f0	 mov	 BYTE PTR query_bits$[rsp], 240 ; 000000f0H
  00028	c6 44 24 61 00	 mov	 BYTE PTR query_bits$[rsp+1], 0
  0002d	c6 44 24 62 00	 mov	 BYTE PTR query_bits$[rsp+2], 0
  00032	c6 44 24 63 00	 mov	 BYTE PTR query_bits$[rsp+3], 0
  00037	c6 44 24 64 00	 mov	 BYTE PTR query_bits$[rsp+4], 0
  0003c	c6 44 24 65 00	 mov	 BYTE PTR query_bits$[rsp+5], 0
  00041	c6 44 24 66 00	 mov	 BYTE PTR query_bits$[rsp+6], 0
  00046	c6 44 24 67 00	 mov	 BYTE PTR query_bits$[rsp+7], 0
  0004b	c6 44 24 68 00	 mov	 BYTE PTR query_bits$[rsp+8], 0
  00050	c6 44 24 69 00	 mov	 BYTE PTR query_bits$[rsp+9], 0
  00055	c6 44 24 6a 00	 mov	 BYTE PTR query_bits$[rsp+10], 0
  0005a	c6 44 24 6b 00	 mov	 BYTE PTR query_bits$[rsp+11], 0
  0005f	c6 44 24 6c 00	 mov	 BYTE PTR query_bits$[rsp+12], 0
  00064	c6 44 24 6d 00	 mov	 BYTE PTR query_bits$[rsp+13], 0
  00069	c6 44 24 6e 00	 mov	 BYTE PTR query_bits$[rsp+14], 0
  0006e	c6 44 24 6f 00	 mov	 BYTE PTR query_bits$[rsp+15], 0
  00073	c6 44 24 70 f0	 mov	 BYTE PTR query_bits$[rsp+16], 240 ; 000000f0H
  00078	c6 44 24 71 00	 mov	 BYTE PTR query_bits$[rsp+17], 0
  0007d	c6 44 24 72 00	 mov	 BYTE PTR query_bits$[rsp+18], 0
  00082	c6 44 24 73 00	 mov	 BYTE PTR query_bits$[rsp+19], 0
  00087	c6 44 24 74 00	 mov	 BYTE PTR query_bits$[rsp+20], 0
  0008c	c6 44 24 75 00	 mov	 BYTE PTR query_bits$[rsp+21], 0
  00091	c6 44 24 76 00	 mov	 BYTE PTR query_bits$[rsp+22], 0
  00096	c6 44 24 77 00	 mov	 BYTE PTR query_bits$[rsp+23], 0
  0009b	c6 44 24 78 00	 mov	 BYTE PTR query_bits$[rsp+24], 0
  000a0	c6 44 24 79 00	 mov	 BYTE PTR query_bits$[rsp+25], 0
  000a5	c6 44 24 7a 00	 mov	 BYTE PTR query_bits$[rsp+26], 0
  000aa	c6 44 24 7b 00	 mov	 BYTE PTR query_bits$[rsp+27], 0
  000af	c6 44 24 7c 00	 mov	 BYTE PTR query_bits$[rsp+28], 0
  000b4	c6 44 24 7d 00	 mov	 BYTE PTR query_bits$[rsp+29], 0
  000b9	c6 44 24 7e 00	 mov	 BYTE PTR query_bits$[rsp+30], 0
  000be	c6 44 24 7f 00	 mov	 BYTE PTR query_bits$[rsp+31], 0
  000c3	c6 84 24 80 00
	00 00 f0	 mov	 BYTE PTR query_bits$[rsp+32], 240 ; 000000f0H
  000cb	c6 84 24 81 00
	00 00 00	 mov	 BYTE PTR query_bits$[rsp+33], 0
  000d3	c6 84 24 82 00
	00 00 00	 mov	 BYTE PTR query_bits$[rsp+34], 0
  000db	c6 84 24 83 00
	00 00 00	 mov	 BYTE PTR query_bits$[rsp+35], 0
  000e3	c6 84 24 84 00
	00 00 00	 mov	 BYTE PTR query_bits$[rsp+36], 0
  000eb	c6 84 24 85 00
	00 00 00	 mov	 BYTE PTR query_bits$[rsp+37], 0
  000f3	c6 84 24 86 00
	00 00 00	 mov	 BYTE PTR query_bits$[rsp+38], 0
  000fb	c6 84 24 87 00
	00 00 00	 mov	 BYTE PTR query_bits$[rsp+39], 0
  00103	c6 84 24 88 00
	00 00 00	 mov	 BYTE PTR query_bits$[rsp+40], 0
  0010b	c6 84 24 89 00
	00 00 00	 mov	 BYTE PTR query_bits$[rsp+41], 0
  00113	c6 84 24 8a 00
	00 00 00	 mov	 BYTE PTR query_bits$[rsp+42], 0
  0011b	c6 84 24 8b 00
	00 00 00	 mov	 BYTE PTR query_bits$[rsp+43], 0
  00123	c6 84 24 8c 00
	00 00 00	 mov	 BYTE PTR query_bits$[rsp+44], 0
  0012b	c6 84 24 8d 00
	00 00 00	 mov	 BYTE PTR query_bits$[rsp+45], 0
  00133	c6 84 24 8e 00
	00 00 00	 mov	 BYTE PTR query_bits$[rsp+46], 0
  0013b	c6 84 24 8f 00
	00 00 00	 mov	 BYTE PTR query_bits$[rsp+47], 0
  00143	c6 84 24 90 00
	00 00 f0	 mov	 BYTE PTR query_bits$[rsp+48], 240 ; 000000f0H
  0014b	c6 84 24 91 00
	00 00 70	 mov	 BYTE PTR query_bits$[rsp+49], 112 ; 00000070H
  00153	c6 84 24 92 00
	00 00 00	 mov	 BYTE PTR query_bits$[rsp+50], 0
  0015b	c6 84 24 93 00
	00 00 00	 mov	 BYTE PTR query_bits$[rsp+51], 0
  00163	c6 84 24 94 00
	00 00 00	 mov	 BYTE PTR query_bits$[rsp+52], 0
  0016b	c6 84 24 95 00
	00 00 00	 mov	 BYTE PTR query_bits$[rsp+53], 0
  00173	c6 84 24 96 00
	00 00 00	 mov	 BYTE PTR query_bits$[rsp+54], 0
  0017b	c6 84 24 97 00
	00 00 00	 mov	 BYTE PTR query_bits$[rsp+55], 0
  00183	c6 84 24 98 00
	00 00 00	 mov	 BYTE PTR query_bits$[rsp+56], 0
  0018b	c6 84 24 99 00
	00 00 00	 mov	 BYTE PTR query_bits$[rsp+57], 0
  00193	c6 84 24 9a 00
	00 00 00	 mov	 BYTE PTR query_bits$[rsp+58], 0
  0019b	c6 84 24 9b 00
	00 00 00	 mov	 BYTE PTR query_bits$[rsp+59], 0
  001a3	c6 84 24 9c 00
	00 00 00	 mov	 BYTE PTR query_bits$[rsp+60], 0
  001ab	c6 84 24 9d 00
	00 00 00	 mov	 BYTE PTR query_bits$[rsp+61], 0
  001b3	c6 84 24 9e 00
	00 00 00	 mov	 BYTE PTR query_bits$[rsp+62], 0
  001bb	c6 84 24 9f 00
	00 00 00	 mov	 BYTE PTR query_bits$[rsp+63], 0
  001c3	c6 84 24 a0 00
	00 00 f0	 mov	 BYTE PTR query_bits$[rsp+64], 240 ; 000000f0H
  001cb	c6 84 24 a1 00
	00 00 70	 mov	 BYTE PTR query_bits$[rsp+65], 112 ; 00000070H
  001d3	c6 84 24 a2 00
	00 00 38	 mov	 BYTE PTR query_bits$[rsp+66], 56 ; 00000038H
  001db	c6 84 24 a3 00
	00 00 38	 mov	 BYTE PTR query_bits$[rsp+67], 56 ; 00000038H
  001e3	c6 84 24 a4 00
	00 00 00	 mov	 BYTE PTR query_bits$[rsp+68], 0
  001eb	c6 84 24 a5 00
	00 00 00	 mov	 BYTE PTR query_bits$[rsp+69], 0
  001f3	c6 84 24 a6 00
	00 00 00	 mov	 BYTE PTR query_bits$[rsp+70], 0
  001fb	c6 84 24 a7 00
	00 00 00	 mov	 BYTE PTR query_bits$[rsp+71], 0
  00203	c6 84 24 a8 00
	00 00 00	 mov	 BYTE PTR query_bits$[rsp+72], 0
  0020b	c6 84 24 a9 00
	00 00 00	 mov	 BYTE PTR query_bits$[rsp+73], 0
  00213	c6 84 24 aa 00
	00 00 00	 mov	 BYTE PTR query_bits$[rsp+74], 0
  0021b	c6 84 24 ab 00
	00 00 00	 mov	 BYTE PTR query_bits$[rsp+75], 0
  00223	c6 84 24 ac 00
	00 00 00	 mov	 BYTE PTR query_bits$[rsp+76], 0
  0022b	c6 84 24 ad 00
	00 00 00	 mov	 BYTE PTR query_bits$[rsp+77], 0
  00233	c6 84 24 ae 00
	00 00 00	 mov	 BYTE PTR query_bits$[rsp+78], 0
  0023b	c6 84 24 af 00
	00 00 00	 mov	 BYTE PTR query_bits$[rsp+79], 0

; 4337 :   {
; 4338 :     { 0xf0, 0x00, 0x00, 0x00, 0x00, 0x00, 0x00, 0x00, 0x00, 0x00, 0x00, 0x00, 0x00, 0x00, 0x00, 0x00 },
; 4339 :     /**/ { 0xf0, 0x00, 0x00, 0x00, 0x00, 0x00, 0x00, 0x00, 0x00, 0x00, 0x00, 0x00, 0x00, 0x00, 0x00, 0x00 },
; 4340 :     /**/ { 0xf0, 0x00, 0x00, 0x00, 0x00, 0x00, 0x00, 0x00, 0x00, 0x00, 0x00, 0x00, 0x00, 0x00, 0x00, 0x00 },
; 4341 :     { 0xf0, 0x70, 0x00, 0x00, 0x00, 0x00, 0x00, 0x00, 0x00, 0x00, 0x00, 0x00, 0x00, 0x00, 0x00, 0x00 },
; 4342 :     { 0xf0, 0x70, 0x38, 0x38, 0x00, 0x00, 0x00, 0x00, 0x00, 0x00, 0x00, 0x00, 0x00, 0x00, 0x00, 0x00 }
; 4343 :   };
; 4344 :   int r1;
; 4345 :   int r2;
; 4346 : 
; 4347 :   RRE(inst, regs, r1, r2);

  00243	b8 01 00 00 00	 mov	 eax, 1
  00248	48 6b c0 03	 imul	 rax, rax, 3
  0024c	48 8b 8c 24 d0
	00 00 00	 mov	 rcx, QWORD PTR inst$[rsp]
  00254	0f b6 04 01	 movzx	 eax, BYTE PTR [rcx+rax]
  00258	89 44 24 3c	 mov	 DWORD PTR i$1[rsp], eax
  0025c	8b 44 24 3c	 mov	 eax, DWORD PTR i$1[rsp]
  00260	83 e0 0f	 and	 eax, 15
  00263	89 44 24 30	 mov	 DWORD PTR r2$[rsp], eax
  00267	8b 44 24 3c	 mov	 eax, DWORD PTR i$1[rsp]
  0026b	c1 f8 04	 sar	 eax, 4
  0026e	83 e0 0f	 and	 eax, 15
  00271	89 44 24 38	 mov	 DWORD PTR r1$[rsp], eax
$LN4@z900_dyn_c:
  00275	48 8b 84 24 d8
	00 00 00	 mov	 rax, QWORD PTR regs$[rsp]
  0027d	48 8b 40 68	 mov	 rax, QWORD PTR [rax+104]
  00281	48 83 c0 04	 add	 rax, 4
  00285	48 8b 8c 24 d8
	00 00 00	 mov	 rcx, QWORD PTR regs$[rsp]
  0028d	48 89 41 68	 mov	 QWORD PTR [rcx+104], rax
  00291	33 c0		 xor	 eax, eax
  00293	83 f8 04	 cmp	 eax, 4
  00296	74 0f		 je	 SHORT $LN7@z900_dyn_c
  00298	48 8b 84 24 d8
	00 00 00	 mov	 rax, QWORD PTR regs$[rsp]
  002a0	c6 80 9a 00 00
	00 04		 mov	 BYTE PTR [rax+154], 4
$LN7@z900_dyn_c:
  002a7	33 c0		 xor	 eax, eax
  002a9	85 c0		 test	 eax, eax
  002ab	75 c8		 jne	 SHORT $LN4@z900_dyn_c

; 4348 :   PER_ZEROADDR_CHECK2( regs, 1, r2 );

  002ad	44 8b 44 24 30	 mov	 r8d, DWORD PTR r2$[rsp]
  002b2	ba 01 00 00 00	 mov	 edx, 1
  002b7	48 8b 8c 24 d8
	00 00 00	 mov	 rcx, QWORD PTR regs$[rsp]
  002bf	e8 00 00 00 00	 call	 z900_per3_zero_check2

; 4349 : 
; 4350 :   /* The following is the same as doing a FACILITY_CHECK */
; 4351 :   msa = get_msa(regs);

  002c4	48 8b 8c 24 d8
	00 00 00	 mov	 rcx, QWORD PTR regs$[rsp]
  002cc	e8 00 00 00 00	 call	 get_msa
  002d1	89 44 24 34	 mov	 DWORD PTR msa$[rsp], eax

; 4352 :   if(msa < 0)

  002d5	83 7c 24 34 00	 cmp	 DWORD PTR msa$[rsp], 0
  002da	7d 13		 jge	 SHORT $LN8@z900_dyn_c

; 4353 :     ARCH_DEP(program_interrupt)(regs, PGM_OPERATION_EXCEPTION);

  002dc	ba 01 00 00 00	 mov	 edx, 1
  002e1	48 8b 8c 24 d8
	00 00 00	 mov	 rcx, QWORD PTR regs$[rsp]
  002e9	ff 15 00 00 00
	00		 call	 QWORD PTR __imp_z900_program_interrupt
$LN8@z900_dyn_c:

; 4354 : 
; 4355 : #ifdef OPTION_KMAC_DEBUG
; 4356 :   WRMSG(HHC90100, "D", "KMAC: compute message authentication code");
; 4357 :   WRMSG(HHC90101, "D", 2, r2);
; 4358 :   WRMSG(HHC90102, "D", regs->GR(r2));
; 4359 :   WRMSG(HHC90103, "D", regs->GR(r2 + 1));
; 4360 :   WRMSG(HHC90104, "D", 0, regs->GR(0));
; 4361 :   WRMSG(HHC90105, "D", TRUEFALSE(GR0_m(regs)));
; 4362 :   WRMSG(HHC90106, "D", GR0_fc(regs));
; 4363 :   WRMSG(HHC90104, "D", 1, regs->GR(1));
; 4364 : #endif /* #ifdef OPTION_KMAC_DEBUG */
; 4365 : 
; 4366 :   /* Check special conditions */
; 4367 :   if(unlikely(!r2 || r2 & 0x01 || GR0_m(regs)))

  002ef	83 7c 24 30 00	 cmp	 DWORD PTR r2$[rsp], 0
  002f4	74 4f		 je	 SHORT $LN29@z900_dyn_c
  002f6	8b 44 24 30	 mov	 eax, DWORD PTR r2$[rsp]
  002fa	83 e0 01	 and	 eax, 1
  002fd	85 c0		 test	 eax, eax
  002ff	75 44		 jne	 SHORT $LN29@z900_dyn_c
  00301	b8 08 00 00 00	 mov	 eax, 8
  00306	48 6b c0 00	 imul	 rax, rax, 0
  0030a	48 8b 8c 24 d8
	00 00 00	 mov	 rcx, QWORD PTR regs$[rsp]
  00312	8b 84 01 80 02
	00 00		 mov	 eax, DWORD PTR [rcx+rax+640]
  00319	25 80 00 00 00	 and	 eax, 128		; 00000080H
  0031e	85 c0		 test	 eax, eax
  00320	74 0a		 je	 SHORT $LN30@z900_dyn_c
  00322	c7 44 24 40 01
	00 00 00	 mov	 DWORD PTR tv93[rsp], 1
  0032a	eb 08		 jmp	 SHORT $LN31@z900_dyn_c
$LN30@z900_dyn_c:
  0032c	c7 44 24 40 00
	00 00 00	 mov	 DWORD PTR tv93[rsp], 0
$LN31@z900_dyn_c:
  00334	83 7c 24 40 00	 cmp	 DWORD PTR tv93[rsp], 0
  00339	75 0a		 jne	 SHORT $LN29@z900_dyn_c
  0033b	c7 44 24 44 00
	00 00 00	 mov	 DWORD PTR tv299[rsp], 0
  00343	eb 08		 jmp	 SHORT $LN36@z900_dyn_c
$LN29@z900_dyn_c:
  00345	c7 44 24 44 01
	00 00 00	 mov	 DWORD PTR tv299[rsp], 1
$LN36@z900_dyn_c:
  0034d	83 7c 24 44 00	 cmp	 DWORD PTR tv299[rsp], 0
  00352	74 13		 je	 SHORT $LN9@z900_dyn_c

; 4368 :     ARCH_DEP(program_interrupt)(regs, PGM_SPECIFICATION_EXCEPTION);

  00354	ba 06 00 00 00	 mov	 edx, 6
  00359	48 8b 8c 24 d8
	00 00 00	 mov	 rcx, QWORD PTR regs$[rsp]
  00361	ff 15 00 00 00
	00		 call	 QWORD PTR __imp_z900_program_interrupt
$LN9@z900_dyn_c:

; 4369 : 
; 4370 :   switch(GR0_fc(regs))

  00367	b8 08 00 00 00	 mov	 eax, 8
  0036c	48 6b c0 00	 imul	 rax, rax, 0
  00370	48 8b 8c 24 d8
	00 00 00	 mov	 rcx, QWORD PTR regs$[rsp]
  00378	8b 84 01 80 02
	00 00		 mov	 eax, DWORD PTR [rcx+rax+640]
  0037f	83 e0 7f	 and	 eax, 127		; 0000007fH
  00382	89 44 24 48	 mov	 DWORD PTR tv308[rsp], eax
  00386	83 7c 24 48 1c	 cmp	 DWORD PTR tv308[rsp], 28
  0038b	0f 87 3c 01 00
	00		 ja	 $LN27@z900_dyn_c
  00391	8b 44 24 48	 mov	 eax, DWORD PTR tv308[rsp]
  00395	48 8d 0d 00 00
	00 00		 lea	 rcx, OFFSET FLAT:__ImageBase
  0039c	8b 84 81 00 00
	00 00		 mov	 eax, DWORD PTR $LN39@z900_dyn_c[rcx+rax*4]
  003a3	48 03 c1	 add	 rax, rcx
  003a6	ff e0		 jmp	 rax
$LN10@z900_dyn_c:

; 4371 :   {
; 4372 :     case 0: /* Query */
; 4373 :     {
; 4374 :       /* Store the parameter block */
; 4375 :       ARCH_DEP(vstorec)(query_bits[msa], 15, GR_A(1, regs) & ADDRESS_MAXWRAP(regs), 1, regs);

  003a8	48 8b 84 24 d8
	00 00 00	 mov	 rax, QWORD PTR regs$[rsp]
  003b0	8b 80 80 00 00
	00		 mov	 eax, DWORD PTR [rax+128]
  003b6	83 e0 01	 and	 eax, 1
  003b9	85 c0		 test	 eax, eax
  003bb	74 20		 je	 SHORT $LN37@z900_dyn_c
  003bd	b8 08 00 00 00	 mov	 eax, 8
  003c2	48 6b c0 01	 imul	 rax, rax, 1
  003c6	48 8b 8c 24 d8
	00 00 00	 mov	 rcx, QWORD PTR regs$[rsp]
  003ce	48 8b 84 01 80
	02 00 00	 mov	 rax, QWORD PTR [rcx+rax+640]
  003d6	48 89 44 24 50	 mov	 QWORD PTR tv323[rsp], rax
  003db	eb 1d		 jmp	 SHORT $LN38@z900_dyn_c
$LN37@z900_dyn_c:
  003dd	b8 08 00 00 00	 mov	 eax, 8
  003e2	48 6b c0 01	 imul	 rax, rax, 1
  003e6	48 8b 8c 24 d8
	00 00 00	 mov	 rcx, QWORD PTR regs$[rsp]
  003ee	8b 84 01 80 02
	00 00		 mov	 eax, DWORD PTR [rcx+rax+640]
  003f5	48 89 44 24 50	 mov	 QWORD PTR tv323[rsp], rax
$LN38@z900_dyn_c:
  003fa	48 8b 84 24 d8
	00 00 00	 mov	 rax, QWORD PTR regs$[rsp]
  00402	48 8b 80 90 00
	00 00		 mov	 rax, QWORD PTR [rax+144]
  00409	48 8b 4c 24 50	 mov	 rcx, QWORD PTR tv323[rsp]
  0040e	48 23 c8	 and	 rcx, rax
  00411	48 8b c1	 mov	 rax, rcx
  00414	48 63 4c 24 34	 movsxd	 rcx, DWORD PTR msa$[rsp]
  00419	48 6b c9 10	 imul	 rcx, rcx, 16
  0041d	48 8d 4c 0c 60	 lea	 rcx, QWORD PTR query_bits$[rsp+rcx]
  00422	48 8b 94 24 d8
	00 00 00	 mov	 rdx, QWORD PTR regs$[rsp]
  0042a	48 89 54 24 20	 mov	 QWORD PTR [rsp+32], rdx
  0042f	41 b9 01 00 00
	00		 mov	 r9d, 1
  00435	4c 8b c0	 mov	 r8, rax
  00438	b2 0f		 mov	 dl, 15
  0043a	e8 00 00 00 00	 call	 z900_vstorec

; 4376 : 
; 4377 : #ifdef OPTION_KMAC_DEBUG
; 4378 :       LOGBYTE("output:", query_bits[msa], 16);
; 4379 : #endif /* #ifdef OPTION_KMAC_DEBUG */
; 4380 : 
; 4381 :       /* Set condition code 0 */
; 4382 :       regs->psw.cc = 0;

  0043f	48 8b 84 24 d8
	00 00 00	 mov	 rax, QWORD PTR regs$[rsp]
  00447	c6 40 7c 00	 mov	 BYTE PTR [rax+124], 0

; 4383 :       return;

  0044b	e9 90 00 00 00	 jmp	 $LN1@z900_dyn_c
$LN11@z900_dyn_c:
$LN12@z900_dyn_c:
$LN13@z900_dyn_c:

; 4384 :     }
; 4385 :     case 1: /* dea */
; 4386 :     case 2: /* tdea-128 */
; 4387 :     case 3: /* tdea-192 */
; 4388 :     {
; 4389 :       ARCH_DEP(kmac_dea)(r1, r2, regs);

  00450	4c 8b 84 24 d8
	00 00 00	 mov	 r8, QWORD PTR regs$[rsp]
  00458	8b 54 24 30	 mov	 edx, DWORD PTR r2$[rsp]
  0045c	8b 4c 24 38	 mov	 ecx, DWORD PTR r1$[rsp]
  00460	e8 00 00 00 00	 call	 z900_kmac_dea

; 4390 :       break;

  00465	eb 79		 jmp	 SHORT $LN5@z900_dyn_c
$LN14@z900_dyn_c:
$LN15@z900_dyn_c:
$LN16@z900_dyn_c:

; 4391 :     }
; 4392 : 
; 4393 : #if defined( FEATURE_076_MSA_EXTENSION_FACILITY_3 )
; 4394 :     case 9: /* encrypted dea */
; 4395 :     case 10: /* encrypted tdea-128 */
; 4396 :     case 11: /* encrypted tdea-192 */
; 4397 :     {
; 4398 :       if(msa >= 3)

  00467	83 7c 24 34 03	 cmp	 DWORD PTR msa$[rsp], 3
  0046c	7c 17		 jl	 SHORT $LN17@z900_dyn_c

; 4399 :         ARCH_DEP(kmac_dea)(r1, r2, regs);

  0046e	4c 8b 84 24 d8
	00 00 00	 mov	 r8, QWORD PTR regs$[rsp]
  00476	8b 54 24 30	 mov	 edx, DWORD PTR r2$[rsp]
  0047a	8b 4c 24 38	 mov	 ecx, DWORD PTR r1$[rsp]
  0047e	e8 00 00 00 00	 call	 z900_kmac_dea
  00483	eb 13		 jmp	 SHORT $LN18@z900_dyn_c
$LN17@z900_dyn_c:

; 4400 :       else
; 4401 :         ARCH_DEP(program_interrupt)(regs, PGM_SPECIFICATION_EXCEPTION);

  00485	ba 06 00 00 00	 mov	 edx, 6
  0048a	48 8b 8c 24 d8
	00 00 00	 mov	 rcx, QWORD PTR regs$[rsp]
  00492	ff 15 00 00 00
	00		 call	 QWORD PTR __imp_z900_program_interrupt
$LN18@z900_dyn_c:

; 4402 :       break;

  00498	eb 46		 jmp	 SHORT $LN5@z900_dyn_c
$LN19@z900_dyn_c:
$LN20@z900_dyn_c:
$LN21@z900_dyn_c:
$LN22@z900_dyn_c:
$LN23@z900_dyn_c:
$LN24@z900_dyn_c:

; 4403 :     }
; 4404 : #endif /* defined( FEATURE_076_MSA_EXTENSION_FACILITY_3 ) */
; 4405 : 
; 4406 : #if defined( FEATURE_077_MSA_EXTENSION_FACILITY_4 )
; 4407 :     case 18: /* aes */
; 4408 :     case 19: /* aes-192 */
; 4409 :     case 20: /* aes-256 */
; 4410 :     case 26: /* encrypted aes */
; 4411 :     case 27: /* encrypted aes-192 */
; 4412 :     case 28: /* encrypted aes-256 */
; 4413 :     {
; 4414 :       if(msa >= 4)

  0049a	83 7c 24 34 04	 cmp	 DWORD PTR msa$[rsp], 4
  0049f	7c 17		 jl	 SHORT $LN25@z900_dyn_c

; 4415 :         ARCH_DEP(kmac_aes)(r1, r2, regs);

  004a1	4c 8b 84 24 d8
	00 00 00	 mov	 r8, QWORD PTR regs$[rsp]
  004a9	8b 54 24 30	 mov	 edx, DWORD PTR r2$[rsp]
  004ad	8b 4c 24 38	 mov	 ecx, DWORD PTR r1$[rsp]
  004b1	e8 00 00 00 00	 call	 z900_kmac_aes
  004b6	eb 13		 jmp	 SHORT $LN26@z900_dyn_c
$LN25@z900_dyn_c:

; 4416 :       else
; 4417 :         ARCH_DEP(program_interrupt)(regs, PGM_SPECIFICATION_EXCEPTION);

  004b8	ba 06 00 00 00	 mov	 edx, 6
  004bd	48 8b 8c 24 d8
	00 00 00	 mov	 rcx, QWORD PTR regs$[rsp]
  004c5	ff 15 00 00 00
	00		 call	 QWORD PTR __imp_z900_program_interrupt
$LN26@z900_dyn_c:

; 4418 :       break;

  004cb	eb 13		 jmp	 SHORT $LN5@z900_dyn_c
$LN27@z900_dyn_c:

; 4419 :     }
; 4420 : #endif /* defined( FEATURE_077_MSA_EXTENSION_FACILITY_4 ) */
; 4421 : 
; 4422 :     default:
; 4423 :     {
; 4424 :       ARCH_DEP(program_interrupt)(regs, PGM_SPECIFICATION_EXCEPTION);

  004cd	ba 06 00 00 00	 mov	 edx, 6
  004d2	48 8b 8c 24 d8
	00 00 00	 mov	 rcx, QWORD PTR regs$[rsp]
  004da	ff 15 00 00 00
	00		 call	 QWORD PTR __imp_z900_program_interrupt
$LN5@z900_dyn_c:
$LN1@z900_dyn_c:

; 4425 :       break;
; 4426 :     }
; 4427 :   }
; 4428 : }

  004e0	48 8b 8c 24 b0
	00 00 00	 mov	 rcx, QWORD PTR __$ArrayPad$[rsp]
  004e8	48 33 cc	 xor	 rcx, rsp
  004eb	e8 00 00 00 00	 call	 __security_check_cookie
  004f0	48 81 c4 c8 00
	00 00		 add	 rsp, 200		; 000000c8H
  004f7	c3		 ret	 0
$LN39@z900_dyn_c:
  004f8	00 00 00 00	 DD	 $LN10@z900_dyn_c
  004fc	00 00 00 00	 DD	 $LN11@z900_dyn_c
  00500	00 00 00 00	 DD	 $LN12@z900_dyn_c
  00504	00 00 00 00	 DD	 $LN13@z900_dyn_c
  00508	00 00 00 00	 DD	 $LN27@z900_dyn_c
  0050c	00 00 00 00	 DD	 $LN27@z900_dyn_c
  00510	00 00 00 00	 DD	 $LN27@z900_dyn_c
  00514	00 00 00 00	 DD	 $LN27@z900_dyn_c
  00518	00 00 00 00	 DD	 $LN27@z900_dyn_c
  0051c	00 00 00 00	 DD	 $LN14@z900_dyn_c
  00520	00 00 00 00	 DD	 $LN15@z900_dyn_c
  00524	00 00 00 00	 DD	 $LN16@z900_dyn_c
  00528	00 00 00 00	 DD	 $LN27@z900_dyn_c
  0052c	00 00 00 00	 DD	 $LN27@z900_dyn_c
  00530	00 00 00 00	 DD	 $LN27@z900_dyn_c
  00534	00 00 00 00	 DD	 $LN27@z900_dyn_c
  00538	00 00 00 00	 DD	 $LN27@z900_dyn_c
  0053c	00 00 00 00	 DD	 $LN27@z900_dyn_c
  00540	00 00 00 00	 DD	 $LN19@z900_dyn_c
  00544	00 00 00 00	 DD	 $LN20@z900_dyn_c
  00548	00 00 00 00	 DD	 $LN21@z900_dyn_c
  0054c	00 00 00 00	 DD	 $LN27@z900_dyn_c
  00550	00 00 00 00	 DD	 $LN27@z900_dyn_c
  00554	00 00 00 00	 DD	 $LN27@z900_dyn_c
  00558	00 00 00 00	 DD	 $LN27@z900_dyn_c
  0055c	00 00 00 00	 DD	 $LN27@z900_dyn_c
  00560	00 00 00 00	 DD	 $LN22@z900_dyn_c
  00564	00 00 00 00	 DD	 $LN23@z900_dyn_c
  00568	00 00 00 00	 DD	 $LN24@z900_dyn_c
z900_dyn_compute_message_authentication_code ENDP
_TEXT	ENDS
; Function compile flags: /Odtp
; File C:\papa\MyGit\hyperion-zvector\dyncrypt.c
_TEXT	SEGMENT
r2$ = 48
r1$ = 52
msa$ = 56
i$1 = 60
tv338 = 64
tv347 = 68
tv89 = 72
tv297 = 80
tv313 = 88
tv362 = 96
query_bits$ = 112
__$ArrayPad$ = 192
inst$ = 224
regs$ = 232
z900_dyn_cipher_message PROC

; 4190 : {

$LN55:
  00000	48 89 54 24 10	 mov	 QWORD PTR [rsp+16], rdx
  00005	48 89 4c 24 08	 mov	 QWORD PTR [rsp+8], rcx
  0000a	48 81 ec d8 00
	00 00		 sub	 rsp, 216		; 000000d8H
  00011	48 8b 05 00 00
	00 00		 mov	 rax, QWORD PTR __security_cookie
  00018	48 33 c4	 xor	 rax, rsp
  0001b	48 89 84 24 c0
	00 00 00	 mov	 QWORD PTR __$ArrayPad$[rsp], rax

; 4191 :   int msa;
; 4192 :   BYTE query_bits[][16] =

  00023	c6 44 24 70 f0	 mov	 BYTE PTR query_bits$[rsp], 240 ; 000000f0H
  00028	c6 44 24 71 00	 mov	 BYTE PTR query_bits$[rsp+1], 0
  0002d	c6 44 24 72 00	 mov	 BYTE PTR query_bits$[rsp+2], 0
  00032	c6 44 24 73 00	 mov	 BYTE PTR query_bits$[rsp+3], 0
  00037	c6 44 24 74 00	 mov	 BYTE PTR query_bits$[rsp+4], 0
  0003c	c6 44 24 75 00	 mov	 BYTE PTR query_bits$[rsp+5], 0
  00041	c6 44 24 76 00	 mov	 BYTE PTR query_bits$[rsp+6], 0
  00046	c6 44 24 77 00	 mov	 BYTE PTR query_bits$[rsp+7], 0
  0004b	c6 44 24 78 00	 mov	 BYTE PTR query_bits$[rsp+8], 0
  00050	c6 44 24 79 00	 mov	 BYTE PTR query_bits$[rsp+9], 0
  00055	c6 44 24 7a 00	 mov	 BYTE PTR query_bits$[rsp+10], 0
  0005a	c6 44 24 7b 00	 mov	 BYTE PTR query_bits$[rsp+11], 0
  0005f	c6 44 24 7c 00	 mov	 BYTE PTR query_bits$[rsp+12], 0
  00064	c6 44 24 7d 00	 mov	 BYTE PTR query_bits$[rsp+13], 0
  00069	c6 44 24 7e 00	 mov	 BYTE PTR query_bits$[rsp+14], 0
  0006e	c6 44 24 7f 00	 mov	 BYTE PTR query_bits$[rsp+15], 0
  00073	c6 84 24 80 00
	00 00 f0	 mov	 BYTE PTR query_bits$[rsp+16], 240 ; 000000f0H
  0007b	c6 84 24 81 00
	00 00 00	 mov	 BYTE PTR query_bits$[rsp+17], 0
  00083	c6 84 24 82 00
	00 00 20	 mov	 BYTE PTR query_bits$[rsp+18], 32 ; 00000020H
  0008b	c6 84 24 83 00
	00 00 00	 mov	 BYTE PTR query_bits$[rsp+19], 0
  00093	c6 84 24 84 00
	00 00 00	 mov	 BYTE PTR query_bits$[rsp+20], 0
  0009b	c6 84 24 85 00
	00 00 00	 mov	 BYTE PTR query_bits$[rsp+21], 0
  000a3	c6 84 24 86 00
	00 00 00	 mov	 BYTE PTR query_bits$[rsp+22], 0
  000ab	c6 84 24 87 00
	00 00 00	 mov	 BYTE PTR query_bits$[rsp+23], 0
  000b3	c6 84 24 88 00
	00 00 00	 mov	 BYTE PTR query_bits$[rsp+24], 0
  000bb	c6 84 24 89 00
	00 00 00	 mov	 BYTE PTR query_bits$[rsp+25], 0
  000c3	c6 84 24 8a 00
	00 00 00	 mov	 BYTE PTR query_bits$[rsp+26], 0
  000cb	c6 84 24 8b 00
	00 00 00	 mov	 BYTE PTR query_bits$[rsp+27], 0
  000d3	c6 84 24 8c 00
	00 00 00	 mov	 BYTE PTR query_bits$[rsp+28], 0
  000db	c6 84 24 8d 00
	00 00 00	 mov	 BYTE PTR query_bits$[rsp+29], 0
  000e3	c6 84 24 8e 00
	00 00 00	 mov	 BYTE PTR query_bits$[rsp+30], 0
  000eb	c6 84 24 8f 00
	00 00 00	 mov	 BYTE PTR query_bits$[rsp+31], 0
  000f3	c6 84 24 90 00
	00 00 f0	 mov	 BYTE PTR query_bits$[rsp+32], 240 ; 000000f0H
  000fb	c6 84 24 91 00
	00 00 00	 mov	 BYTE PTR query_bits$[rsp+33], 0
  00103	c6 84 24 92 00
	00 00 38	 mov	 BYTE PTR query_bits$[rsp+34], 56 ; 00000038H
  0010b	c6 84 24 93 00
	00 00 00	 mov	 BYTE PTR query_bits$[rsp+35], 0
  00113	c6 84 24 94 00
	00 00 00	 mov	 BYTE PTR query_bits$[rsp+36], 0
  0011b	c6 84 24 95 00
	00 00 00	 mov	 BYTE PTR query_bits$[rsp+37], 0
  00123	c6 84 24 96 00
	00 00 00	 mov	 BYTE PTR query_bits$[rsp+38], 0
  0012b	c6 84 24 97 00
	00 00 00	 mov	 BYTE PTR query_bits$[rsp+39], 0
  00133	c6 84 24 98 00
	00 00 00	 mov	 BYTE PTR query_bits$[rsp+40], 0
  0013b	c6 84 24 99 00
	00 00 00	 mov	 BYTE PTR query_bits$[rsp+41], 0
  00143	c6 84 24 9a 00
	00 00 00	 mov	 BYTE PTR query_bits$[rsp+42], 0
  0014b	c6 84 24 9b 00
	00 00 00	 mov	 BYTE PTR query_bits$[rsp+43], 0
  00153	c6 84 24 9c 00
	00 00 00	 mov	 BYTE PTR query_bits$[rsp+44], 0
  0015b	c6 84 24 9d 00
	00 00 00	 mov	 BYTE PTR query_bits$[rsp+45], 0
  00163	c6 84 24 9e 00
	00 00 00	 mov	 BYTE PTR query_bits$[rsp+46], 0
  0016b	c6 84 24 9f 00
	00 00 00	 mov	 BYTE PTR query_bits$[rsp+47], 0
  00173	c6 84 24 a0 00
	00 00 f0	 mov	 BYTE PTR query_bits$[rsp+48], 240 ; 000000f0H
  0017b	c6 84 24 a1 00
	00 00 70	 mov	 BYTE PTR query_bits$[rsp+49], 112 ; 00000070H
  00183	c6 84 24 a2 00
	00 00 38	 mov	 BYTE PTR query_bits$[rsp+50], 56 ; 00000038H
  0018b	c6 84 24 a3 00
	00 00 38	 mov	 BYTE PTR query_bits$[rsp+51], 56 ; 00000038H
  00193	c6 84 24 a4 00
	00 00 00	 mov	 BYTE PTR query_bits$[rsp+52], 0
  0019b	c6 84 24 a5 00
	00 00 00	 mov	 BYTE PTR query_bits$[rsp+53], 0
  001a3	c6 84 24 a6 00
	00 00 00	 mov	 BYTE PTR query_bits$[rsp+54], 0
  001ab	c6 84 24 a7 00
	00 00 00	 mov	 BYTE PTR query_bits$[rsp+55], 0
  001b3	c6 84 24 a8 00
	00 00 00	 mov	 BYTE PTR query_bits$[rsp+56], 0
  001bb	c6 84 24 a9 00
	00 00 00	 mov	 BYTE PTR query_bits$[rsp+57], 0
  001c3	c6 84 24 aa 00
	00 00 00	 mov	 BYTE PTR query_bits$[rsp+58], 0
  001cb	c6 84 24 ab 00
	00 00 00	 mov	 BYTE PTR query_bits$[rsp+59], 0
  001d3	c6 84 24 ac 00
	00 00 00	 mov	 BYTE PTR query_bits$[rsp+60], 0
  001db	c6 84 24 ad 00
	00 00 00	 mov	 BYTE PTR query_bits$[rsp+61], 0
  001e3	c6 84 24 ae 00
	00 00 00	 mov	 BYTE PTR query_bits$[rsp+62], 0
  001eb	c6 84 24 af 00
	00 00 00	 mov	 BYTE PTR query_bits$[rsp+63], 0
  001f3	c6 84 24 b0 00
	00 00 f0	 mov	 BYTE PTR query_bits$[rsp+64], 240 ; 000000f0H
  001fb	c6 84 24 b1 00
	00 00 70	 mov	 BYTE PTR query_bits$[rsp+65], 112 ; 00000070H
  00203	c6 84 24 b2 00
	00 00 38	 mov	 BYTE PTR query_bits$[rsp+66], 56 ; 00000038H
  0020b	c6 84 24 b3 00
	00 00 38	 mov	 BYTE PTR query_bits$[rsp+67], 56 ; 00000038H
  00213	c6 84 24 b4 00
	00 00 00	 mov	 BYTE PTR query_bits$[rsp+68], 0
  0021b	c6 84 24 b5 00
	00 00 00	 mov	 BYTE PTR query_bits$[rsp+69], 0
  00223	c6 84 24 b6 00
	00 00 28	 mov	 BYTE PTR query_bits$[rsp+70], 40 ; 00000028H
  0022b	c6 84 24 b7 00
	00 00 28	 mov	 BYTE PTR query_bits$[rsp+71], 40 ; 00000028H
  00233	c6 84 24 b8 00
	00 00 00	 mov	 BYTE PTR query_bits$[rsp+72], 0
  0023b	c6 84 24 b9 00
	00 00 00	 mov	 BYTE PTR query_bits$[rsp+73], 0
  00243	c6 84 24 ba 00
	00 00 00	 mov	 BYTE PTR query_bits$[rsp+74], 0
  0024b	c6 84 24 bb 00
	00 00 00	 mov	 BYTE PTR query_bits$[rsp+75], 0
  00253	c6 84 24 bc 00
	00 00 00	 mov	 BYTE PTR query_bits$[rsp+76], 0
  0025b	c6 84 24 bd 00
	00 00 00	 mov	 BYTE PTR query_bits$[rsp+77], 0
  00263	c6 84 24 be 00
	00 00 00	 mov	 BYTE PTR query_bits$[rsp+78], 0
  0026b	c6 84 24 bf 00
	00 00 00	 mov	 BYTE PTR query_bits$[rsp+79], 0

; 4193 :   {
; 4194 :     { 0xf0, 0x00, 0x00, 0x00, 0x00, 0x00, 0x00, 0x00, 0x00, 0x00, 0x00, 0x00, 0x00, 0x00, 0x00, 0x00 },
; 4195 :     { 0xf0, 0x00, 0x20, 0x00, 0x00, 0x00, 0x00, 0x00, 0x00, 0x00, 0x00, 0x00, 0x00, 0x00, 0x00, 0x00 },
; 4196 :     { 0xf0, 0x00, 0x38, 0x00, 0x00, 0x00, 0x00, 0x00, 0x00, 0x00, 0x00, 0x00, 0x00, 0x00, 0x00, 0x00 },
; 4197 :     { 0xf0, 0x70, 0x38, 0x38, 0x00, 0x00, 0x00, 0x00, 0x00, 0x00, 0x00, 0x00, 0x00, 0x00, 0x00, 0x00 },
; 4198 :     { 0xf0, 0x70, 0x38, 0x38, 0x00, 0x00, 0x28, 0x28, 0x00, 0x00, 0x00, 0x00, 0x00, 0x00, 0x00, 0x00 }
; 4199 :   };
; 4200 :   int r1;
; 4201 :   int r2;
; 4202 : 
; 4203 :   RRE(inst, regs, r1, r2);

  00273	b8 01 00 00 00	 mov	 eax, 1
  00278	48 6b c0 03	 imul	 rax, rax, 3
  0027c	48 8b 8c 24 e0
	00 00 00	 mov	 rcx, QWORD PTR inst$[rsp]
  00284	0f b6 04 01	 movzx	 eax, BYTE PTR [rcx+rax]
  00288	89 44 24 3c	 mov	 DWORD PTR i$1[rsp], eax
  0028c	8b 44 24 3c	 mov	 eax, DWORD PTR i$1[rsp]
  00290	83 e0 0f	 and	 eax, 15
  00293	89 44 24 30	 mov	 DWORD PTR r2$[rsp], eax
  00297	8b 44 24 3c	 mov	 eax, DWORD PTR i$1[rsp]
  0029b	c1 f8 04	 sar	 eax, 4
  0029e	83 e0 0f	 and	 eax, 15
  002a1	89 44 24 34	 mov	 DWORD PTR r1$[rsp], eax
$LN4@z900_dyn_c:
  002a5	48 8b 84 24 e8
	00 00 00	 mov	 rax, QWORD PTR regs$[rsp]
  002ad	48 8b 40 68	 mov	 rax, QWORD PTR [rax+104]
  002b1	48 83 c0 04	 add	 rax, 4
  002b5	48 8b 8c 24 e8
	00 00 00	 mov	 rcx, QWORD PTR regs$[rsp]
  002bd	48 89 41 68	 mov	 QWORD PTR [rcx+104], rax
  002c1	33 c0		 xor	 eax, eax
  002c3	83 f8 04	 cmp	 eax, 4
  002c6	74 0f		 je	 SHORT $LN7@z900_dyn_c
  002c8	48 8b 84 24 e8
	00 00 00	 mov	 rax, QWORD PTR regs$[rsp]
  002d0	c6 80 9a 00 00
	00 04		 mov	 BYTE PTR [rax+154], 4
$LN7@z900_dyn_c:
  002d7	33 c0		 xor	 eax, eax
  002d9	85 c0		 test	 eax, eax
  002db	75 c8		 jne	 SHORT $LN4@z900_dyn_c

; 4204 : 
; 4205 : #if defined( FEATURE_PER_ZERO_ADDRESS_DETECTION_FACILITY )
; 4206 :     if (0
; 4207 :         || GR_A( 1,  regs ) == 0
; 4208 :         || GR_A( r1, regs ) == 0
; 4209 :         || GR_A( r2, regs ) == 0

  002dd	33 c0		 xor	 eax, eax
  002df	85 c0		 test	 eax, eax
  002e1	0f 85 02 01 00
	00		 jne	 $LN9@z900_dyn_c
  002e7	48 8b 84 24 e8
	00 00 00	 mov	 rax, QWORD PTR regs$[rsp]
  002ef	8b 80 80 00 00
	00		 mov	 eax, DWORD PTR [rax+128]
  002f5	83 e0 01	 and	 eax, 1
  002f8	85 c0		 test	 eax, eax
  002fa	74 20		 je	 SHORT $LN41@z900_dyn_c
  002fc	b8 08 00 00 00	 mov	 eax, 8
  00301	48 6b c0 01	 imul	 rax, rax, 1
  00305	48 8b 8c 24 e8
	00 00 00	 mov	 rcx, QWORD PTR regs$[rsp]
  0030d	48 8b 84 01 80
	02 00 00	 mov	 rax, QWORD PTR [rcx+rax+640]
  00315	48 89 44 24 48	 mov	 QWORD PTR tv89[rsp], rax
  0031a	eb 1d		 jmp	 SHORT $LN42@z900_dyn_c
$LN41@z900_dyn_c:
  0031c	b8 08 00 00 00	 mov	 eax, 8
  00321	48 6b c0 01	 imul	 rax, rax, 1
  00325	48 8b 8c 24 e8
	00 00 00	 mov	 rcx, QWORD PTR regs$[rsp]
  0032d	8b 84 01 80 02
	00 00		 mov	 eax, DWORD PTR [rcx+rax+640]
  00334	48 89 44 24 48	 mov	 QWORD PTR tv89[rsp], rax
$LN42@z900_dyn_c:
  00339	48 83 7c 24 48
	00		 cmp	 QWORD PTR tv89[rsp], 0
  0033f	0f 84 a4 00 00
	00		 je	 $LN9@z900_dyn_c
  00345	48 8b 84 24 e8
	00 00 00	 mov	 rax, QWORD PTR regs$[rsp]
  0034d	8b 80 80 00 00
	00		 mov	 eax, DWORD PTR [rax+128]
  00353	83 e0 01	 and	 eax, 1
  00356	85 c0		 test	 eax, eax
  00358	74 1c		 je	 SHORT $LN43@z900_dyn_c
  0035a	48 63 44 24 34	 movsxd	 rax, DWORD PTR r1$[rsp]
  0035f	48 8b 8c 24 e8
	00 00 00	 mov	 rcx, QWORD PTR regs$[rsp]
  00367	48 8b 84 c1 80
	02 00 00	 mov	 rax, QWORD PTR [rcx+rax*8+640]
  0036f	48 89 44 24 50	 mov	 QWORD PTR tv297[rsp], rax
  00374	eb 19		 jmp	 SHORT $LN44@z900_dyn_c
$LN43@z900_dyn_c:
  00376	48 63 44 24 34	 movsxd	 rax, DWORD PTR r1$[rsp]
  0037b	48 8b 8c 24 e8
	00 00 00	 mov	 rcx, QWORD PTR regs$[rsp]
  00383	8b 84 c1 80 02
	00 00		 mov	 eax, DWORD PTR [rcx+rax*8+640]
  0038a	48 89 44 24 50	 mov	 QWORD PTR tv297[rsp], rax
$LN44@z900_dyn_c:
  0038f	48 83 7c 24 50
	00		 cmp	 QWORD PTR tv297[rsp], 0
  00395	74 52		 je	 SHORT $LN9@z900_dyn_c
  00397	48 8b 84 24 e8
	00 00 00	 mov	 rax, QWORD PTR regs$[rsp]
  0039f	8b 80 80 00 00
	00		 mov	 eax, DWORD PTR [rax+128]
  003a5	83 e0 01	 and	 eax, 1
  003a8	85 c0		 test	 eax, eax
  003aa	74 1c		 je	 SHORT $LN45@z900_dyn_c
  003ac	48 63 44 24 30	 movsxd	 rax, DWORD PTR r2$[rsp]
  003b1	48 8b 8c 24 e8
	00 00 00	 mov	 rcx, QWORD PTR regs$[rsp]
  003b9	48 8b 84 c1 80
	02 00 00	 mov	 rax, QWORD PTR [rcx+rax*8+640]
  003c1	48 89 44 24 58	 mov	 QWORD PTR tv313[rsp], rax
  003c6	eb 19		 jmp	 SHORT $LN46@z900_dyn_c
$LN45@z900_dyn_c:
  003c8	48 63 44 24 30	 movsxd	 rax, DWORD PTR r2$[rsp]
  003cd	48 8b 8c 24 e8
	00 00 00	 mov	 rcx, QWORD PTR regs$[rsp]
  003d5	8b 84 c1 80 02
	00 00		 mov	 eax, DWORD PTR [rcx+rax*8+640]
  003dc	48 89 44 24 58	 mov	 QWORD PTR tv313[rsp], rax
$LN46@z900_dyn_c:
  003e1	48 83 7c 24 58
	00		 cmp	 QWORD PTR tv313[rsp], 0
  003e7	75 0d		 jne	 SHORT $LN8@z900_dyn_c
$LN9@z900_dyn_c:

; 4210 :     )
; 4211 :         ARCH_DEP( per3_zero )( regs );

  003e9	48 8b 8c 24 e8
	00 00 00	 mov	 rcx, QWORD PTR regs$[rsp]
  003f1	e8 00 00 00 00	 call	 z900_per3_zero
$LN8@z900_dyn_c:

; 4212 : #endif
; 4213 : 
; 4214 :   /* The following is the same as doing a FACILITY_CHECK */
; 4215 :   msa = get_msa(regs);

  003f6	48 8b 8c 24 e8
	00 00 00	 mov	 rcx, QWORD PTR regs$[rsp]
  003fe	e8 00 00 00 00	 call	 get_msa
  00403	89 44 24 38	 mov	 DWORD PTR msa$[rsp], eax

; 4216 :   if(msa < 0)

  00407	83 7c 24 38 00	 cmp	 DWORD PTR msa$[rsp], 0
  0040c	7d 13		 jge	 SHORT $LN10@z900_dyn_c

; 4217 :     ARCH_DEP(program_interrupt)(regs, PGM_OPERATION_EXCEPTION);

  0040e	ba 01 00 00 00	 mov	 edx, 1
  00413	48 8b 8c 24 e8
	00 00 00	 mov	 rcx, QWORD PTR regs$[rsp]
  0041b	ff 15 00 00 00
	00		 call	 QWORD PTR __imp_z900_program_interrupt
$LN10@z900_dyn_c:

; 4218 : 
; 4219 : #ifdef OPTION_KM_DEBUG
; 4220 :   WRMSG(HHC90100, "D", "KM: cipher message");
; 4221 :   WRMSG(HHC90101, "D", 1, r1);
; 4222 :   WRMSG(HHC90102, "D", regs->GR(r1));
; 4223 :   WRMSG(HHC90101, "D", 2, r2);
; 4224 :   WRMSG(HHC90102, "D", regs->GR(r2));
; 4225 :   WRMSG(HHC90103, "D", regs->GR(r2 + 1));
; 4226 :   WRMSG(HHC90104, "D", 0, regs->GR(0));
; 4227 :   WRMSG(HHC90107, "D", TRUEFALSE(GR0_m(regs)));
; 4228 :   WRMSG(HHC90106, "D", GR0_fc(regs));
; 4229 :   WRMSG(HHC90104, "D", 1, regs->GR(1));
; 4230 : #endif /* #ifdef OPTION_KM_DEBUG */
; 4231 : 
; 4232 :   /* Check special conditions */
; 4233 :   if(unlikely(!r1 || r1 & 0x01 || !r2 || r2 & 0x01))

  00421	83 7c 24 34 00	 cmp	 DWORD PTR r1$[rsp], 0
  00426	74 27		 je	 SHORT $LN47@z900_dyn_c
  00428	8b 44 24 34	 mov	 eax, DWORD PTR r1$[rsp]
  0042c	83 e0 01	 and	 eax, 1
  0042f	85 c0		 test	 eax, eax
  00431	75 1c		 jne	 SHORT $LN47@z900_dyn_c
  00433	83 7c 24 30 00	 cmp	 DWORD PTR r2$[rsp], 0
  00438	74 15		 je	 SHORT $LN47@z900_dyn_c
  0043a	8b 44 24 30	 mov	 eax, DWORD PTR r2$[rsp]
  0043e	83 e0 01	 and	 eax, 1
  00441	85 c0		 test	 eax, eax
  00443	75 0a		 jne	 SHORT $LN47@z900_dyn_c
  00445	c7 44 24 40 00
	00 00 00	 mov	 DWORD PTR tv338[rsp], 0
  0044d	eb 08		 jmp	 SHORT $LN50@z900_dyn_c
$LN47@z900_dyn_c:
  0044f	c7 44 24 40 01
	00 00 00	 mov	 DWORD PTR tv338[rsp], 1
$LN50@z900_dyn_c:
  00457	83 7c 24 40 00	 cmp	 DWORD PTR tv338[rsp], 0
  0045c	74 13		 je	 SHORT $LN11@z900_dyn_c

; 4234 :     ARCH_DEP(program_interrupt)(regs, PGM_SPECIFICATION_EXCEPTION);

  0045e	ba 06 00 00 00	 mov	 edx, 6
  00463	48 8b 8c 24 e8
	00 00 00	 mov	 rcx, QWORD PTR regs$[rsp]
  0046b	ff 15 00 00 00
	00		 call	 QWORD PTR __imp_z900_program_interrupt
$LN11@z900_dyn_c:

; 4235 : 
; 4236 :   switch(GR0_fc(regs))

  00471	b8 08 00 00 00	 mov	 eax, 8
  00476	48 6b c0 00	 imul	 rax, rax, 0
  0047a	48 8b 8c 24 e8
	00 00 00	 mov	 rcx, QWORD PTR regs$[rsp]
  00482	8b 84 01 80 02
	00 00		 mov	 eax, DWORD PTR [rcx+rax+640]
  00489	83 e0 7f	 and	 eax, 127		; 0000007fH
  0048c	89 44 24 44	 mov	 DWORD PTR tv347[rsp], eax
  00490	83 7c 24 44 3c	 cmp	 DWORD PTR tv347[rsp], 60 ; 0000003cH
  00495	0f 87 e6 01 00
	00		 ja	 $LN39@z900_dyn_c
  0049b	8b 44 24 44	 mov	 eax, DWORD PTR tv347[rsp]
  0049f	48 8d 0d 00 00
	00 00		 lea	 rcx, OFFSET FLAT:__ImageBase
  004a6	0f b6 84 01 00
	00 00 00	 movzx	 eax, BYTE PTR $LN53@z900_dyn_c[rcx+rax]
  004ae	8b 84 81 00 00
	00 00		 mov	 eax, DWORD PTR $LN54@z900_dyn_c[rcx+rax*4]
  004b5	48 03 c1	 add	 rax, rcx
  004b8	ff e0		 jmp	 rax
$LN12@z900_dyn_c:

; 4237 :   {
; 4238 :     case 0: /* Query */
; 4239 :     {
; 4240 :       /* Store the parameter block */
; 4241 :       ARCH_DEP(vstorec)(query_bits[msa], 15, GR_A(1, regs) & ADDRESS_MAXWRAP(regs), 1, regs);

  004ba	48 8b 84 24 e8
	00 00 00	 mov	 rax, QWORD PTR regs$[rsp]
  004c2	8b 80 80 00 00
	00		 mov	 eax, DWORD PTR [rax+128]
  004c8	83 e0 01	 and	 eax, 1
  004cb	85 c0		 test	 eax, eax
  004cd	74 20		 je	 SHORT $LN51@z900_dyn_c
  004cf	b8 08 00 00 00	 mov	 eax, 8
  004d4	48 6b c0 01	 imul	 rax, rax, 1
  004d8	48 8b 8c 24 e8
	00 00 00	 mov	 rcx, QWORD PTR regs$[rsp]
  004e0	48 8b 84 01 80
	02 00 00	 mov	 rax, QWORD PTR [rcx+rax+640]
  004e8	48 89 44 24 60	 mov	 QWORD PTR tv362[rsp], rax
  004ed	eb 1d		 jmp	 SHORT $LN52@z900_dyn_c
$LN51@z900_dyn_c:
  004ef	b8 08 00 00 00	 mov	 eax, 8
  004f4	48 6b c0 01	 imul	 rax, rax, 1
  004f8	48 8b 8c 24 e8
	00 00 00	 mov	 rcx, QWORD PTR regs$[rsp]
  00500	8b 84 01 80 02
	00 00		 mov	 eax, DWORD PTR [rcx+rax+640]
  00507	48 89 44 24 60	 mov	 QWORD PTR tv362[rsp], rax
$LN52@z900_dyn_c:
  0050c	48 8b 84 24 e8
	00 00 00	 mov	 rax, QWORD PTR regs$[rsp]
  00514	48 8b 80 90 00
	00 00		 mov	 rax, QWORD PTR [rax+144]
  0051b	48 8b 4c 24 60	 mov	 rcx, QWORD PTR tv362[rsp]
  00520	48 23 c8	 and	 rcx, rax
  00523	48 8b c1	 mov	 rax, rcx
  00526	48 63 4c 24 38	 movsxd	 rcx, DWORD PTR msa$[rsp]
  0052b	48 6b c9 10	 imul	 rcx, rcx, 16
  0052f	48 8d 4c 0c 70	 lea	 rcx, QWORD PTR query_bits$[rsp+rcx]
  00534	48 8b 94 24 e8
	00 00 00	 mov	 rdx, QWORD PTR regs$[rsp]
  0053c	48 89 54 24 20	 mov	 QWORD PTR [rsp+32], rdx
  00541	41 b9 01 00 00
	00		 mov	 r9d, 1
  00547	4c 8b c0	 mov	 r8, rax
  0054a	b2 0f		 mov	 dl, 15
  0054c	e8 00 00 00 00	 call	 z900_vstorec

; 4242 : 
; 4243 : #ifdef OPTION_KM_DEBUG
; 4244 :       LOGBYTE("output:", query_bits[msa], 16);
; 4245 : #endif /* #ifdef OPTION_KM_DEBUG */
; 4246 : 
; 4247 :       /* Set condition code 0 */
; 4248 :       regs->psw.cc = 0;

  00551	48 8b 84 24 e8
	00 00 00	 mov	 rax, QWORD PTR regs$[rsp]
  00559	c6 40 7c 00	 mov	 BYTE PTR [rax+124], 0

; 4249 :       return;

  0055d	e9 32 01 00 00	 jmp	 $LN1@z900_dyn_c
$LN13@z900_dyn_c:
$LN14@z900_dyn_c:
$LN15@z900_dyn_c:

; 4250 :     }
; 4251 :     case 1: /* dea */
; 4252 :     case 2: /* tdea-128 */
; 4253 :     case 3: /* tdea-192 */
; 4254 :     {
; 4255 :       ARCH_DEP(km_dea)(r1, r2, regs);

  00562	4c 8b 84 24 e8
	00 00 00	 mov	 r8, QWORD PTR regs$[rsp]
  0056a	8b 54 24 30	 mov	 edx, DWORD PTR r2$[rsp]
  0056e	8b 4c 24 34	 mov	 ecx, DWORD PTR r1$[rsp]
  00572	e8 00 00 00 00	 call	 z900_km_dea

; 4256 :       break;

  00577	e9 18 01 00 00	 jmp	 $LN5@z900_dyn_c
$LN16@z900_dyn_c:
$LN17@z900_dyn_c:
$LN18@z900_dyn_c:

; 4257 :     }
; 4258 : 
; 4259 : #if defined( FEATURE_076_MSA_EXTENSION_FACILITY_3 )
; 4260 :     case 9: /* encrypted dea */
; 4261 :     case 10: /* encrypted tdea-128 */
; 4262 :     case 11: /* encrypted tdea-192 */
; 4263 :     {
; 4264 :       if(msa >= 3)

  0057c	83 7c 24 38 03	 cmp	 DWORD PTR msa$[rsp], 3
  00581	7c 17		 jl	 SHORT $LN19@z900_dyn_c

; 4265 :         ARCH_DEP(km_dea)(r1, r2, regs);

  00583	4c 8b 84 24 e8
	00 00 00	 mov	 r8, QWORD PTR regs$[rsp]
  0058b	8b 54 24 30	 mov	 edx, DWORD PTR r2$[rsp]
  0058f	8b 4c 24 34	 mov	 ecx, DWORD PTR r1$[rsp]
  00593	e8 00 00 00 00	 call	 z900_km_dea
  00598	eb 13		 jmp	 SHORT $LN20@z900_dyn_c
$LN19@z900_dyn_c:

; 4266 :       else
; 4267 :         ARCH_DEP(program_interrupt)(regs, PGM_SPECIFICATION_EXCEPTION);

  0059a	ba 06 00 00 00	 mov	 edx, 6
  0059f	48 8b 8c 24 e8
	00 00 00	 mov	 rcx, QWORD PTR regs$[rsp]
  005a7	ff 15 00 00 00
	00		 call	 QWORD PTR __imp_z900_program_interrupt
$LN20@z900_dyn_c:

; 4268 :       break;

  005ad	e9 e2 00 00 00	 jmp	 $LN5@z900_dyn_c
$LN21@z900_dyn_c:

; 4269 :     }
; 4270 : #endif /* defined( FEATURE_076_MSA_EXTENSION_FACILITY_3 ) */
; 4271 : 
; 4272 : #if defined( FEATURE_MSA_EXTENSION_FACILITY_1 )
; 4273 :     case 18: /* aes-128 */
; 4274 :     {
; 4275 :       if(msa >= 1)

  005b2	83 7c 24 38 01	 cmp	 DWORD PTR msa$[rsp], 1
  005b7	7c 17		 jl	 SHORT $LN22@z900_dyn_c

; 4276 :         ARCH_DEP(km_aes)(r1, r2, regs);

  005b9	4c 8b 84 24 e8
	00 00 00	 mov	 r8, QWORD PTR regs$[rsp]
  005c1	8b 54 24 30	 mov	 edx, DWORD PTR r2$[rsp]
  005c5	8b 4c 24 34	 mov	 ecx, DWORD PTR r1$[rsp]
  005c9	e8 00 00 00 00	 call	 z900_km_aes
  005ce	eb 13		 jmp	 SHORT $LN23@z900_dyn_c
$LN22@z900_dyn_c:

; 4277 :       else
; 4278 :         ARCH_DEP(program_interrupt)(regs, PGM_SPECIFICATION_EXCEPTION);

  005d0	ba 06 00 00 00	 mov	 edx, 6
  005d5	48 8b 8c 24 e8
	00 00 00	 mov	 rcx, QWORD PTR regs$[rsp]
  005dd	ff 15 00 00 00
	00		 call	 QWORD PTR __imp_z900_program_interrupt
$LN23@z900_dyn_c:

; 4279 :       break;

  005e3	e9 ac 00 00 00	 jmp	 $LN5@z900_dyn_c
$LN24@z900_dyn_c:
$LN25@z900_dyn_c:

; 4280 :     }
; 4281 : #endif /* defined( FEATURE_MSA_EXTENSION_FACILITY_1 ) */
; 4282 : 
; 4283 : #if defined( FEATURE_MSA_EXTENSION_FACILITY_2 )
; 4284 :     case 19: /* aes-192 */
; 4285 :     case 20: /* aes-256 */
; 4286 :     {
; 4287 :       if(msa >= 2)

  005e8	83 7c 24 38 02	 cmp	 DWORD PTR msa$[rsp], 2
  005ed	7c 17		 jl	 SHORT $LN26@z900_dyn_c

; 4288 :         ARCH_DEP(km_aes)(r1, r2, regs);

  005ef	4c 8b 84 24 e8
	00 00 00	 mov	 r8, QWORD PTR regs$[rsp]
  005f7	8b 54 24 30	 mov	 edx, DWORD PTR r2$[rsp]
  005fb	8b 4c 24 34	 mov	 ecx, DWORD PTR r1$[rsp]
  005ff	e8 00 00 00 00	 call	 z900_km_aes
  00604	eb 13		 jmp	 SHORT $LN27@z900_dyn_c
$LN26@z900_dyn_c:

; 4289 :       else
; 4290 :         ARCH_DEP(program_interrupt)(regs, PGM_SPECIFICATION_EXCEPTION);

  00606	ba 06 00 00 00	 mov	 edx, 6
  0060b	48 8b 8c 24 e8
	00 00 00	 mov	 rcx, QWORD PTR regs$[rsp]
  00613	ff 15 00 00 00
	00		 call	 QWORD PTR __imp_z900_program_interrupt
$LN27@z900_dyn_c:

; 4291 :       break;

  00619	eb 79		 jmp	 SHORT $LN5@z900_dyn_c
$LN28@z900_dyn_c:
$LN29@z900_dyn_c:
$LN30@z900_dyn_c:

; 4292 :     }
; 4293 : #endif /* defined( FEATURE_MSA_EXTENSION_FACILITY_2 ) */
; 4294 : 
; 4295 : #if defined( FEATURE_076_MSA_EXTENSION_FACILITY_3 )
; 4296 :     case 26: /* encrypted aes-128 */
; 4297 :     case 27: /* encrypted aes-192 */
; 4298 :     case 28: /* encrypted aes-256 */
; 4299 :     {
; 4300 :       if(msa >= 3)

  0061b	83 7c 24 38 03	 cmp	 DWORD PTR msa$[rsp], 3
  00620	7c 17		 jl	 SHORT $LN31@z900_dyn_c

; 4301 :         ARCH_DEP(km_aes)(r1, r2, regs);

  00622	4c 8b 84 24 e8
	00 00 00	 mov	 r8, QWORD PTR regs$[rsp]
  0062a	8b 54 24 30	 mov	 edx, DWORD PTR r2$[rsp]
  0062e	8b 4c 24 34	 mov	 ecx, DWORD PTR r1$[rsp]
  00632	e8 00 00 00 00	 call	 z900_km_aes
  00637	eb 13		 jmp	 SHORT $LN32@z900_dyn_c
$LN31@z900_dyn_c:

; 4302 :       else
; 4303 :         ARCH_DEP(program_interrupt)(regs, PGM_SPECIFICATION_EXCEPTION);

  00639	ba 06 00 00 00	 mov	 edx, 6
  0063e	48 8b 8c 24 e8
	00 00 00	 mov	 rcx, QWORD PTR regs$[rsp]
  00646	ff 15 00 00 00
	00		 call	 QWORD PTR __imp_z900_program_interrupt
$LN32@z900_dyn_c:

; 4304 :       break;

  0064c	eb 46		 jmp	 SHORT $LN5@z900_dyn_c
$LN33@z900_dyn_c:
$LN34@z900_dyn_c:
$LN35@z900_dyn_c:
$LN36@z900_dyn_c:

; 4305 :     }
; 4306 : #endif /* defined( FEATURE_076_MSA_EXTENSION_FACILITY_3 ) */
; 4307 : 
; 4308 : #if defined( FEATURE_077_MSA_EXTENSION_FACILITY_4 )
; 4309 :     case 50: /* xts aes-128 */
; 4310 :     case 52: /* xts aes-256 */
; 4311 :     case 58: /* encrypted xts aes-128 */
; 4312 :     case 60: /* encrypted xts aes-256 */
; 4313 :     {
; 4314 :       if(msa >= 4)

  0064e	83 7c 24 38 04	 cmp	 DWORD PTR msa$[rsp], 4
  00653	7c 17		 jl	 SHORT $LN37@z900_dyn_c

; 4315 :         ARCH_DEP(km_xts_aes)(r1, r2, regs);

  00655	4c 8b 84 24 e8
	00 00 00	 mov	 r8, QWORD PTR regs$[rsp]
  0065d	8b 54 24 30	 mov	 edx, DWORD PTR r2$[rsp]
  00661	8b 4c 24 34	 mov	 ecx, DWORD PTR r1$[rsp]
  00665	e8 00 00 00 00	 call	 z900_km_xts_aes
  0066a	eb 13		 jmp	 SHORT $LN38@z900_dyn_c
$LN37@z900_dyn_c:

; 4316 :       else
; 4317 :         ARCH_DEP(program_interrupt)(regs, PGM_SPECIFICATION_EXCEPTION);

  0066c	ba 06 00 00 00	 mov	 edx, 6
  00671	48 8b 8c 24 e8
	00 00 00	 mov	 rcx, QWORD PTR regs$[rsp]
  00679	ff 15 00 00 00
	00		 call	 QWORD PTR __imp_z900_program_interrupt
$LN38@z900_dyn_c:

; 4318 :       break;

  0067f	eb 13		 jmp	 SHORT $LN5@z900_dyn_c
$LN39@z900_dyn_c:

; 4319 :     }
; 4320 : #endif /* defined( FEATURE_077_MSA_EXTENSION_FACILITY_4 ) */
; 4321 : 
; 4322 :     default:
; 4323 :     {
; 4324 :       ARCH_DEP(program_interrupt)(regs, PGM_SPECIFICATION_EXCEPTION);

  00681	ba 06 00 00 00	 mov	 edx, 6
  00686	48 8b 8c 24 e8
	00 00 00	 mov	 rcx, QWORD PTR regs$[rsp]
  0068e	ff 15 00 00 00
	00		 call	 QWORD PTR __imp_z900_program_interrupt
$LN5@z900_dyn_c:
$LN1@z900_dyn_c:

; 4325 :       break;
; 4326 :     }
; 4327 :   }
; 4328 : }

  00694	48 8b 8c 24 c0
	00 00 00	 mov	 rcx, QWORD PTR __$ArrayPad$[rsp]
  0069c	48 33 cc	 xor	 rcx, rsp
  0069f	e8 00 00 00 00	 call	 __security_check_cookie
  006a4	48 81 c4 d8 00
	00 00		 add	 rsp, 216		; 000000d8H
  006ab	c3		 ret	 0
$LN54@z900_dyn_c:
  006ac	00 00 00 00	 DD	 $LN12@z900_dyn_c
  006b0	00 00 00 00	 DD	 $LN13@z900_dyn_c
  006b4	00 00 00 00	 DD	 $LN14@z900_dyn_c
  006b8	00 00 00 00	 DD	 $LN15@z900_dyn_c
  006bc	00 00 00 00	 DD	 $LN16@z900_dyn_c
  006c0	00 00 00 00	 DD	 $LN17@z900_dyn_c
  006c4	00 00 00 00	 DD	 $LN18@z900_dyn_c
  006c8	00 00 00 00	 DD	 $LN21@z900_dyn_c
  006cc	00 00 00 00	 DD	 $LN24@z900_dyn_c
  006d0	00 00 00 00	 DD	 $LN25@z900_dyn_c
  006d4	00 00 00 00	 DD	 $LN28@z900_dyn_c
  006d8	00 00 00 00	 DD	 $LN29@z900_dyn_c
  006dc	00 00 00 00	 DD	 $LN30@z900_dyn_c
  006e0	00 00 00 00	 DD	 $LN33@z900_dyn_c
  006e4	00 00 00 00	 DD	 $LN34@z900_dyn_c
  006e8	00 00 00 00	 DD	 $LN35@z900_dyn_c
  006ec	00 00 00 00	 DD	 $LN36@z900_dyn_c
  006f0	00 00 00 00	 DD	 $LN39@z900_dyn_c
$LN53@z900_dyn_c:
  006f4	00		 DB	 0
  006f5	01		 DB	 1
  006f6	02		 DB	 2
  006f7	03		 DB	 3
  006f8	11		 DB	 17
  006f9	11		 DB	 17
  006fa	11		 DB	 17
  006fb	11		 DB	 17
  006fc	11		 DB	 17
  006fd	04		 DB	 4
  006fe	05		 DB	 5
  006ff	06		 DB	 6
  00700	11		 DB	 17
  00701	11		 DB	 17
  00702	11		 DB	 17
  00703	11		 DB	 17
  00704	11		 DB	 17
  00705	11		 DB	 17
  00706	07		 DB	 7
  00707	08		 DB	 8
  00708	09		 DB	 9
  00709	11		 DB	 17
  0070a	11		 DB	 17
  0070b	11		 DB	 17
  0070c	11		 DB	 17
  0070d	11		 DB	 17
  0070e	0a		 DB	 10
  0070f	0b		 DB	 11
  00710	0c		 DB	 12
  00711	11		 DB	 17
  00712	11		 DB	 17
  00713	11		 DB	 17
  00714	11		 DB	 17
  00715	11		 DB	 17
  00716	11		 DB	 17
  00717	11		 DB	 17
  00718	11		 DB	 17
  00719	11		 DB	 17
  0071a	11		 DB	 17
  0071b	11		 DB	 17
  0071c	11		 DB	 17
  0071d	11		 DB	 17
  0071e	11		 DB	 17
  0071f	11		 DB	 17
  00720	11		 DB	 17
  00721	11		 DB	 17
  00722	11		 DB	 17
  00723	11		 DB	 17
  00724	11		 DB	 17
  00725	11		 DB	 17
  00726	0d		 DB	 13
  00727	11		 DB	 17
  00728	0e		 DB	 14
  00729	11		 DB	 17
  0072a	11		 DB	 17
  0072b	11		 DB	 17
  0072c	11		 DB	 17
  0072d	11		 DB	 17
  0072e	0f		 DB	 15
  0072f	11		 DB	 17
  00730	10		 DB	 16
z900_dyn_cipher_message ENDP
_TEXT	ENDS
; Function compile flags: /Odtp
; File C:\papa\MyGit\hyperion-zvector\dyncrypt.c
_TEXT	SEGMENT
r2$ = 48
r1$ = 52
tv353 = 56
msa$ = 60
i$1 = 64
tv330 = 68
tv344 = 72
tv89 = 80
tv297 = 88
tv313 = 96
tv368 = 104
query_bits$ = 112
__$ArrayPad$ = 192
inst$ = 224
regs$ = 232
z900_dyn_compute_last_message_digest PROC

; 4090 : {

$LN38:
  00000	48 89 54 24 10	 mov	 QWORD PTR [rsp+16], rdx
  00005	48 89 4c 24 08	 mov	 QWORD PTR [rsp+8], rcx
  0000a	48 81 ec d8 00
	00 00		 sub	 rsp, 216		; 000000d8H
  00011	48 8b 05 00 00
	00 00		 mov	 rax, QWORD PTR __security_cookie
  00018	48 33 c4	 xor	 rax, rsp
  0001b	48 89 84 24 c0
	00 00 00	 mov	 QWORD PTR __$ArrayPad$[rsp], rax

; 4091 :   int msa;
; 4092 :   BYTE query_bits[][16] =

  00023	c6 44 24 70 c0	 mov	 BYTE PTR query_bits$[rsp], 192 ; 000000c0H
  00028	c6 44 24 71 00	 mov	 BYTE PTR query_bits$[rsp+1], 0
  0002d	c6 44 24 72 00	 mov	 BYTE PTR query_bits$[rsp+2], 0
  00032	c6 44 24 73 00	 mov	 BYTE PTR query_bits$[rsp+3], 0
  00037	c6 44 24 74 00	 mov	 BYTE PTR query_bits$[rsp+4], 0
  0003c	c6 44 24 75 00	 mov	 BYTE PTR query_bits$[rsp+5], 0
  00041	c6 44 24 76 00	 mov	 BYTE PTR query_bits$[rsp+6], 0
  00046	c6 44 24 77 00	 mov	 BYTE PTR query_bits$[rsp+7], 0
  0004b	c6 44 24 78 00	 mov	 BYTE PTR query_bits$[rsp+8], 0
  00050	c6 44 24 79 00	 mov	 BYTE PTR query_bits$[rsp+9], 0
  00055	c6 44 24 7a 00	 mov	 BYTE PTR query_bits$[rsp+10], 0
  0005a	c6 44 24 7b 00	 mov	 BYTE PTR query_bits$[rsp+11], 0
  0005f	c6 44 24 7c 00	 mov	 BYTE PTR query_bits$[rsp+12], 0
  00064	c6 44 24 7d 00	 mov	 BYTE PTR query_bits$[rsp+13], 0
  00069	c6 44 24 7e 00	 mov	 BYTE PTR query_bits$[rsp+14], 0
  0006e	c6 44 24 7f 00	 mov	 BYTE PTR query_bits$[rsp+15], 0
  00073	c6 84 24 80 00
	00 00 e0	 mov	 BYTE PTR query_bits$[rsp+16], 224 ; 000000e0H
  0007b	c6 84 24 81 00
	00 00 00	 mov	 BYTE PTR query_bits$[rsp+17], 0
  00083	c6 84 24 82 00
	00 00 00	 mov	 BYTE PTR query_bits$[rsp+18], 0
  0008b	c6 84 24 83 00
	00 00 00	 mov	 BYTE PTR query_bits$[rsp+19], 0
  00093	c6 84 24 84 00
	00 00 00	 mov	 BYTE PTR query_bits$[rsp+20], 0
  0009b	c6 84 24 85 00
	00 00 00	 mov	 BYTE PTR query_bits$[rsp+21], 0
  000a3	c6 84 24 86 00
	00 00 00	 mov	 BYTE PTR query_bits$[rsp+22], 0
  000ab	c6 84 24 87 00
	00 00 00	 mov	 BYTE PTR query_bits$[rsp+23], 0
  000b3	c6 84 24 88 00
	00 00 00	 mov	 BYTE PTR query_bits$[rsp+24], 0
  000bb	c6 84 24 89 00
	00 00 00	 mov	 BYTE PTR query_bits$[rsp+25], 0
  000c3	c6 84 24 8a 00
	00 00 00	 mov	 BYTE PTR query_bits$[rsp+26], 0
  000cb	c6 84 24 8b 00
	00 00 00	 mov	 BYTE PTR query_bits$[rsp+27], 0
  000d3	c6 84 24 8c 00
	00 00 00	 mov	 BYTE PTR query_bits$[rsp+28], 0
  000db	c6 84 24 8d 00
	00 00 00	 mov	 BYTE PTR query_bits$[rsp+29], 0
  000e3	c6 84 24 8e 00
	00 00 00	 mov	 BYTE PTR query_bits$[rsp+30], 0
