; Listing generated by Microsoft (R) Optimizing Compiler Version 19.34.31937.0 

include listing.inc

INCLUDELIB MSVCRTD
INCLUDELIB OLDNAMES

PUBLIC	ecpsvm_showstats
PUBLIC	ecpsvm_disable
PUBLIC	ecpsvm_enable
PUBLIC	ecpsvm_debug
PUBLIC	ecpsvm_nodebug
PUBLIC	ecpsvm_level
PUBLIC	ecpsvm_sastats
PUBLIC	ecpsvm_cpstats
_DATA	SEGMENT
$SG175597 DB	'Help', 00H
	ORG $+3
$SG175598 DB	'Show help', 00H
	ORG $+2
$SG175600 DB	'STats', 00H
	ORG $+6
$SG175599 DB	'format : "ecpsvm help [cmd]" Shows help on the specified'
	DB	0aH, '        ECPSVM subcommand', 00H
	ORG $+1
$SG169586 DB	'SVC', 00H
$SG175601 DB	'Show statistical counters', 00H
	ORG $+2
$SG175606 DB	'ENable', 00H
	ORG $+1
$SG169587 DB	'SSM', 00H
$SG175602 DB	'format : ecpsvm stats : Shows various ECPSVM Counters', 00H
	ORG $+2
$SG175603 DB	'DIsable', 00H
$SG175604 DB	'Disable ECPS:VM Features', 00H
	ORG $+3
$SG175609 DB	'DEBUG', 00H
	ORG $+2
$SG169591 DB	'SIO', 00H
$SG175605 DB	'format : ecpsvm disable [ALL|feat1[ feat2|...]', 00H
	ORG $+1
$SG175607 DB	'Enable ECPS:VM Features', 00H
$SG175608 DB	'format : ecpsvm enable [ALL|feat1[ feat2|...]', 00H
	ORG $+2
$SG175610 DB	'Debug ECPS:VM Features', 00H
	ORG $+1
$SG175611 DB	'format : ecpsvm debug [ALL|feat1[ feat2|...]', 00H
	ORG $+3
$SG175612 DB	'NODebug', 00H
$SG175613 DB	'Turn Debug off for ECPS:VM Features', 00H
$SG169597 DB	'LRA', 00H
$SG175614 DB	'format : ecpsvm NODebug [ALL|feat1[ feat2|...]', 00H
	ORG $+1
$SG175615 DB	'Level', 00H
	ORG $+2
$SG175616 DB	'Set/Show ECPS:VM level', 00H
	ORG $+1
$SG175617 DB	'format : ecpsvm Level [nn]', 0aH, 00H
$SG169588 DB	'LPSW', 00H
	ORG $+7
ecpsvm_sastats DQ FLAT:$SG169586
	DQ	0000000000000000H
	DQ	0000000000000000H
	DD	03H
	ORG $+4
	DQ	FLAT:$SG169587
	DQ	0000000000000000H
	DQ	0000000000000000H
	DD	03H
	ORG $+4
	DQ	FLAT:$SG169588
	DQ	0000000000000000H
	DQ	0000000000000000H
	DD	03H
	ORG $+4
	DQ	FLAT:$SG169589
	DQ	0000000000000000H
	DQ	0000000000000000H
	DD	03H
	ORG $+4
	DQ	FLAT:$SG169590
	DQ	0000000000000000H
	DQ	0000000000000000H
	DD	03H
	ORG $+4
	DQ	FLAT:$SG169591
	DQ	0000000000000000H
	DQ	0000000000000000H
	DD	02H
	ORG $+4
	DQ	FLAT:$SG169592
	DQ	0000000000000000H
	DQ	0000000000000000H
	DD	03H
	ORG $+4
	DQ	FLAT:$SG169593
	DQ	0000000000000000H
	DQ	0000000000000000H
	DD	03H
	ORG $+4
	DQ	FLAT:$SG169594
	DQ	0000000000000000H
	DQ	0000000000000000H
	DD	03H
	ORG $+4
	DQ	FLAT:$SG169595
	DQ	0000000000000000H
	DQ	0000000000000000H
	DD	02H
	ORG $+4
	DQ	FLAT:$SG169596
	DQ	0000000000000000H
	DQ	0000000000000000H
	DD	02H
	ORG $+4
	DQ	FLAT:$SG169597
	DQ	0000000000000000H
	DQ	0000000000000000H
	DD	03H
	ORG $+4
$SG169589 DB	'STNSM', 00H
	ORG $+2
$SG169590 DB	'STOSM', 00H
	ORG $+2
$SG169592 DB	'VTIMER', 00H
	ORG $+1
$SG169593 DB	'STCTL', 00H
	ORG $+2
$SG169594 DB	'LCTL', 00H
	ORG $+3
$SG169595 DB	'DIAG', 00H
	ORG $+3
$SG169596 DB	'IUCV', 00H
	ORG $+3
$SG169625 DB	'FREE', 00H
	ORG $+3
ecpsvm_cpstats DQ FLAT:$SG169625
	DQ	0000000000000000H
	DQ	0000000000000000H
	DD	02H
	ORG $+4
	DQ	FLAT:$SG169626
	DQ	0000000000000000H
	DQ	0000000000000000H
	DD	02H
	ORG $+4
	DQ	FLAT:$SG169627
	DQ	0000000000000000H
	DQ	0000000000000000H
	DD	03H
	ORG $+4
	DQ	FLAT:$SG169628
	DQ	0000000000000000H
	DQ	0000000000000000H
	DD	03H
	ORG $+4
	DQ	FLAT:$SG169629
	DQ	0000000000000000H
	DQ	0000000000000000H
	DD	03H
	ORG $+4
	DQ	FLAT:$SG169630
	DQ	0000000000000000H
	DQ	0000000000000000H
	DD	03H
	ORG $+4
	DQ	FLAT:$SG169631
	DQ	0000000000000000H
	DQ	0000000000000000H
	DD	03H
	ORG $+4
	DQ	FLAT:$SG169632
	DQ	0000000000000000H
	DQ	0000000000000000H
	DD	03H
	ORG $+4
	DQ	FLAT:$SG169633
	DQ	0000000000000000H
	DQ	0000000000000000H
	DD	03H
	ORG $+4
	DQ	FLAT:$SG169634
	DQ	0000000000000000H
	DQ	0000000000000000H
	DD	03H
	ORG $+4
	DQ	FLAT:$SG169635
	DQ	0000000000000000H
	DQ	0000000000000000H
	DD	03H
	ORG $+4
	DQ	FLAT:$SG169636
	DQ	0000000000000000H
	DQ	0000000000000000H
	DD	03H
	ORG $+4
	DQ	FLAT:$SG169637
	DQ	0000000000000000H
	DQ	0000000000000000H
	DD	03H
	ORG $+4
	DQ	FLAT:$SG169638
	DQ	0000000000000000H
	DQ	0000000000000000H
	DD	03H
	ORG $+4
	DQ	FLAT:$SG169639
	DQ	0000000000000000H
	DQ	0000000000000000H
	DD	03H
	ORG $+4
	DQ	FLAT:$SG169640
	DQ	0000000000000000H
	DQ	0000000000000000H
	DD	03H
	ORG $+4
	DQ	FLAT:$SG169641
	DQ	0000000000000000H
	DQ	0000000000000000H
	DD	03H
	ORG $+4
	DQ	FLAT:$SG169642
	DQ	0000000000000000H
	DQ	0000000000000000H
	DD	03H
	ORG $+4
	DQ	FLAT:$SG169643
	DQ	0000000000000000H
	DQ	0000000000000000H
	DD	03H
	ORG $+4
	DQ	FLAT:$SG169644
	DQ	0000000000000000H
	DQ	0000000000000000H
	DD	03H
	ORG $+4
	DQ	FLAT:$SG169645
	DQ	0000000000000000H
	DQ	0000000000000000H
	DD	03H
	ORG $+4
	DQ	FLAT:$SG169646
	DQ	0000000000000000H
	DQ	0000000000000000H
	DD	02H
	ORG $+4
	DQ	FLAT:$SG169647
	DQ	0000000000000000H
	DQ	0000000000000000H
	DD	03H
	ORG $+4
	DQ	FLAT:$SG169648
	DQ	0000000000000000H
	DQ	0000000000000000H
	DD	03H
	ORG $+4
	DQ	FLAT:$SG169649
	DQ	0000000000000000H
	DQ	0000000000000000H
	DD	03H
	ORG $+4
$SG169626 DB	'FRET', 00H
	ORG $+3
$SG169627 DB	'LCKPG', 00H
	ORG $+2
$SG169628 DB	'ULKPG', 00H
	ORG $+2
$SG169629 DB	'SCNRU', 00H
	ORG $+2
$SG169630 DB	'SCNVU', 00H
	ORG $+2
$SG169631 DB	'DISP0', 00H
	ORG $+2
$SG169632 DB	'DISP1', 00H
	ORG $+2
$SG169633 DB	'DISP2', 00H
	ORG $+2
$SG169634 DB	'DNCCW', 00H
	ORG $+2
$SG169635 DB	'DFCCW', 00H
	ORG $+2
$SG169636 DB	'FCCWS', 00H
	ORG $+2
$SG169637 DB	'CCWGN', 00H
	ORG $+2
$SG169638 DB	'UXCCW', 00H
	ORG $+2
$SG169639 DB	'TRBRG', 00H
	ORG $+2
$SG169640 DB	'TRLOK', 00H
	ORG $+2
$SG169641 DB	'VIST', 00H
	ORG $+3
$SG169642 DB	'VIPT', 00H
	ORG $+3
$SG169643 DB	'STEVL', 00H
	ORG $+2
$SG169644 DB	'FREEX', 00H
	ORG $+2
$SG169645 DB	'FRETX', 00H
	ORG $+2
$SG169646 DB	'PMASS', 00H
	ORG $+2
$SG169647 DB	'LCSPG', 00H
	ORG $+2
$SG169648 DB	'LINK', 00H
	ORG $+3
$SG169649 DB	'RETRN', 00H
_DATA	ENDS
CONST	SEGMENT
CKD_ENDTRK DB	0ffH
	DB	0ffH
	DB	0ffH
	DB	0ffH
	DB	0ffH
	DB	0ffH
	DB	0ffH
	DB	0ffH
CONST	ENDS
PUBLIC	s370_ecpsvm_basic_freex
PUBLIC	s370_ecpsvm_basic_fretx
PUBLIC	s370_ecpsvm_lock_page
PUBLIC	s370_ecpsvm_unlock_page
PUBLIC	s370_ecpsvm_decode_next_ccw
PUBLIC	s370_ecpsvm_free_ccwstor
PUBLIC	s370_ecpsvm_locate_vblock
PUBLIC	s370_ecpsvm_disp1
PUBLIC	s370_ecpsvm_tpage
PUBLIC	s370_ecpsvm_tpage_lock
PUBLIC	s370_ecpsvm_inval_segtab
PUBLIC	s370_ecpsvm_inval_ptable
PUBLIC	s370_ecpsvm_decode_first_ccw
PUBLIC	s370_ecpsvm_dispatch_main
PUBLIC	s370_ecpsvm_locate_rblock
PUBLIC	s370_ecpsvm_comm_ccwproc
PUBLIC	s370_ecpsvm_unxlate_ccw
PUBLIC	s370_ecpsvm_disp2
PUBLIC	s370_ecpsvm_store_level
PUBLIC	s370_ecpsvm_loc_chgshrpg
PUBLIC	s370_ecpsvm_extended_freex
PUBLIC	s370_ecpsvm_extended_fretx
PUBLIC	s370_ecpsvm_prefmach_assist
PUBLIC	fetch_hw_noswap
PUBLIC	store_hw_noswap
PUBLIC	fetch_fw_noswap
PUBLIC	store_fw_noswap
PUBLIC	fetch_dw_noswap
PUBLIC	store_dw_noswap
PUBLIC	ecpsvm_dosvc
PUBLIC	ecpsvm_dossm
PUBLIC	ecpsvm_dolpsw
PUBLIC	ecpsvm_dostnsm
PUBLIC	ecpsvm_dostosm
PUBLIC	ecpsvm_dosio
PUBLIC	ecpsvm_dodiag
PUBLIC	ecpsvm_dolctl
PUBLIC	ecpsvm_dostctl
PUBLIC	ecpsvm_doiucv
PUBLIC	ecpsvm_dolra
PUBLIC	_get_storekey_ptr
PUBLIC	_get_storekey1_ptr
PUBLIC	_get_storekey2_ptr
PUBLIC	s370__get_storage_key
PUBLIC	s370_get_2K_storage_key
PUBLIC	s370_get_storage_key
PUBLIC	s370_maddr_l
PUBLIC	s370_vstore2_full
PUBLIC	s370_vstore4_full
PUBLIC	s370_vstore8_full
PUBLIC	s370_vfetch2_full
PUBLIC	s370_vfetch4_full
PUBLIC	s370_vfetch8_full
PUBLIC	s370_vstoreb
PUBLIC	s370_vstore2
PUBLIC	s370_vstore4
PUBLIC	s370_vstore8
PUBLIC	s370_vfetchb
PUBLIC	s370_vfetch2
PUBLIC	s370_vfetch4
PUBLIC	s370_vfetch8
PUBLIC	ecpsvm_getcmdent
PUBLIC	ecpsvm_get_trace_entry
PUBLIC	ecpsvm_do_fretx
PUBLIC	ecpsvm_do_deccw1
PUBLIC	ecpsvm_do_scnvu
PUBLIC	ecpsvm_do_disp1
PUBLIC	ecpsvm_do_disp2
PUBLIC	ecpsvm_zappage
PUBLIC	ecpsvm_check_pswtrans
PUBLIC	ecpsvm_doCPlink
PUBLIC	ecpsvm_doCPretrn
PUBLIC	ecpsvm_doassistsvc
PUBLIC	ecpsvm_findstat
PUBLIC	ecpsvm_enadisaall
PUBLIC	ecpsvm_enable_disable
PUBLIC	ecpsvm_command
PUBLIC	__real@3ffe147ae147ae14
EXTRN	__imp__stricmp:PROC
EXTRN	strlen:PROC
EXTRN	__imp__strnicmp:PROC
EXTRN	__imp_free:PROC
EXTRN	__imp_malloc:PROC
EXTRN	__imp_qsort:PROC
EXTRN	_byteswap_ushort:PROC
EXTRN	_byteswap_ulong:PROC
EXTRN	_byteswap_uint64:PROC
EXTRN	__imp_atoi:PROC
EXTRN	longjmp:PROC
EXTRN	__imp___acrt_iob_func:PROC
EXTRN	__imp_hthread_obtain_lock:PROC
EXTRN	__imp_hthread_release_lock:PROC
EXTRN	__imp_hthread_signal_condition:PROC
EXTRN	__imp_hthread_wait_condition:PROC
EXTRN	__imp_strlcat:PROC
EXTRN	__imp_w32_snprintf:PROC
EXTRN	s370_fetch_int_timer:PROC
EXTRN	s370_store_int_timer:PROC
EXTRN	get_cpu_timer:PROC
EXTRN	set_cpu_timer:PROC
EXTRN	s370_store_psw:PROC
EXTRN	s370_load_psw:PROC
EXTRN	display_psw:PROC
EXTRN	display_gregs:PROC
EXTRN	display_cregs:PROC
EXTRN	s370_purge_tlb:PROC
EXTRN	s370_program_interrupt:PROC
EXTRN	__imp_fwritemsg:PROC
EXTRN	s370_logical_to_main_l:PROC
EXTRN	s370_invalidate_tlb:PROC
EXTRN	s370_translate_addr:PROC
EXTRN	__GSHandlerCheck:PROC
EXTRN	__chkstk:PROC
EXTRN	__security_check_cookie:PROC
EXTRN	__imp_sysblk:BYTE
EXTRN	__ImageBase:BYTE
EXTRN	__security_cookie:QWORD
EXTRN	_fltused:DWORD
_BSS	SEGMENT
$SG171077 DB	03H DUP (?)
	ALIGN	4

$SG171079 DB	03H DUP (?)
	ALIGN	4

$SG172839 DB	03H DUP (?)
	ALIGN	4

$SG173427 DB	03H DUP (?)
	ALIGN	4

$SG173442 DB	03H DUP (?)
	ALIGN	4

$SG173734 DB	03H DUP (?)
	ALIGN	4

$SG173749 DB	03H DUP (?)
	ALIGN	4

$SG173918 DB	03H DUP (?)
	ALIGN	4

$SG173941 DB	03H DUP (?)
	ALIGN	4

$SG174060 DB	03H DUP (?)
	ALIGN	4

$SG174181 DB	03H DUP (?)
	ALIGN	4

$SG174196 DB	03H DUP (?)
	ALIGN	4

$SG174344 DB	03H DUP (?)
	ALIGN	4

$SG174359 DB	03H DUP (?)
	ALIGN	4

$SG174497 DB	03H DUP (?)
	ALIGN	4

$SG174651 DB	03H DUP (?)
	ALIGN	4

$SG174855 DB	03H DUP (?)
	ALIGN	4

$SG174964 DB	03H DUP (?)
	ALIGN	4

$SG175105 DB	03H DUP (?)
	ALIGN	4

$SG175293 DB	01H DUP (?)
	ALIGN	4

$SG175457 DB	01H DUP (?)
	ALIGN	4

$SG175520 DB	01H DUP (?)
_BSS	ENDS
pdata	SEGMENT
$pdata$s370_ecpsvm_basic_freex DD imagerel $LN21
	DD	imagerel $LN21+777
	DD	imagerel $unwind$s370_ecpsvm_basic_freex
$pdata$s370_ecpsvm_basic_fretx DD imagerel $LN21
	DD	imagerel $LN21+777
	DD	imagerel $unwind$s370_ecpsvm_basic_fretx
$pdata$s370_ecpsvm_lock_page DD imagerel $LN29
	DD	imagerel $LN29+1269
	DD	imagerel $unwind$s370_ecpsvm_lock_page
$pdata$s370_ecpsvm_unlock_page DD imagerel $LN28
	DD	imagerel $LN28+979
	DD	imagerel $unwind$s370_ecpsvm_unlock_page
$pdata$s370_ecpsvm_decode_next_ccw DD imagerel $LN31
	DD	imagerel $LN31+1635
	DD	imagerel $unwind$s370_ecpsvm_decode_next_ccw
$pdata$s370_ecpsvm_free_ccwstor DD imagerel $LN95
	DD	imagerel $LN95+4757
	DD	imagerel $unwind$s370_ecpsvm_free_ccwstor
$pdata$s370_ecpsvm_locate_vblock DD imagerel $LN28
	DD	imagerel $LN28+1001
	DD	imagerel $unwind$s370_ecpsvm_locate_vblock
$pdata$s370_ecpsvm_disp1 DD imagerel $LN33
	DD	imagerel $LN33+958
	DD	imagerel $unwind$s370_ecpsvm_disp1
$pdata$s370_ecpsvm_tpage DD imagerel $LN30
	DD	imagerel $LN30+1223
	DD	imagerel $unwind$s370_ecpsvm_tpage
$pdata$s370_ecpsvm_tpage_lock DD imagerel $LN30
	DD	imagerel $LN30+1244
	DD	imagerel $unwind$s370_ecpsvm_tpage_lock
$pdata$s370_ecpsvm_inval_segtab DD imagerel $LN32
	DD	imagerel $LN32+1549
	DD	imagerel $unwind$s370_ecpsvm_inval_segtab
$pdata$s370_ecpsvm_inval_ptable DD imagerel $LN27
	DD	imagerel $LN27+970
	DD	imagerel $unwind$s370_ecpsvm_inval_ptable
$pdata$s370_ecpsvm_decode_first_ccw DD imagerel $LN23
	DD	imagerel $LN23+950
	DD	imagerel $unwind$s370_ecpsvm_decode_first_ccw
$pdata$s370_ecpsvm_dispatch_main DD imagerel $LN123
	DD	imagerel $LN123+6597
	DD	imagerel $unwind$s370_ecpsvm_dispatch_main
$pdata$s370_ecpsvm_locate_rblock DD imagerel $LN42
	DD	imagerel $LN42+2529
	DD	imagerel $unwind$s370_ecpsvm_locate_rblock
$pdata$s370_ecpsvm_comm_ccwproc DD imagerel $LN162
	DD	imagerel $LN162+8263
	DD	imagerel $unwind$s370_ecpsvm_comm_ccwproc
$pdata$s370_ecpsvm_unxlate_ccw DD imagerel $LN37
	DD	imagerel $LN37+1486
	DD	imagerel $unwind$s370_ecpsvm_unxlate_ccw
$pdata$s370_ecpsvm_disp2 DD imagerel $LN26
	DD	imagerel $LN26+888
	DD	imagerel $unwind$s370_ecpsvm_disp2
$pdata$s370_ecpsvm_store_level DD imagerel $LN50
	DD	imagerel $LN50+2397
	DD	imagerel $unwind$s370_ecpsvm_store_level
$pdata$s370_ecpsvm_loc_chgshrpg DD imagerel $LN39
	DD	imagerel $LN39+1641
	DD	imagerel $unwind$s370_ecpsvm_loc_chgshrpg
$pdata$s370_ecpsvm_extended_freex DD imagerel $LN44
	DD	imagerel $LN44+2814
	DD	imagerel $unwind$s370_ecpsvm_extended_freex
$pdata$s370_ecpsvm_extended_fretx DD imagerel $LN28
	DD	imagerel $LN28+1157
	DD	imagerel $unwind$s370_ecpsvm_extended_fretx
$pdata$s370_ecpsvm_prefmach_assist DD imagerel $LN21
	DD	imagerel $LN21+777
	DD	imagerel $unwind$s370_ecpsvm_prefmach_assist
pdata	ENDS
;	COMDAT pdata
pdata	SEGMENT
$pdata$fetch_hw_noswap DD imagerel $LN3
	DD	imagerel $LN3+30
	DD	imagerel $unwind$fetch_hw_noswap
pdata	ENDS
;	COMDAT pdata
pdata	SEGMENT
$pdata$fetch_fw_noswap DD imagerel $LN3
	DD	imagerel $LN3+27
	DD	imagerel $unwind$fetch_fw_noswap
pdata	ENDS
;	COMDAT pdata
pdata	SEGMENT
$pdata$fetch_dw_noswap DD imagerel $LN3
	DD	imagerel $LN3+30
	DD	imagerel $unwind$fetch_dw_noswap
pdata	ENDS
pdata	SEGMENT
$pdata$ecpsvm_dosvc DD imagerel $LN8
	DD	imagerel $LN8+229
	DD	imagerel $unwind$ecpsvm_dosvc
$pdata$ecpsvm_dossm DD imagerel $LN58
	DD	imagerel $LN58+3273
	DD	imagerel $unwind$ecpsvm_dossm
$pdata$ecpsvm_dolpsw DD imagerel $LN62
	DD	imagerel $LN62+3348
	DD	imagerel $unwind$ecpsvm_dolpsw
$pdata$ecpsvm_dostnsm DD imagerel $LN58
	DD	imagerel $LN58+3258
	DD	imagerel $unwind$ecpsvm_dostnsm
$pdata$ecpsvm_dostosm DD imagerel $LN58
	DD	imagerel $LN58+3258
	DD	imagerel $unwind$ecpsvm_dostosm
$pdata$ecpsvm_dosio DD imagerel $LN36
	DD	imagerel $LN36+1960
	DD	imagerel $unwind$ecpsvm_dosio
$pdata$ecpsvm_dodiag DD imagerel $LN42
	DD	imagerel $LN42+1977
	DD	imagerel $unwind$ecpsvm_dodiag
$pdata$ecpsvm_dolctl DD imagerel $LN101
	DD	imagerel $LN101+4724
	DD	imagerel $unwind$ecpsvm_dolctl
$pdata$ecpsvm_dostctl DD imagerel $LN48
	DD	imagerel $LN48+2865
	DD	imagerel $unwind$ecpsvm_dostctl
$pdata$ecpsvm_doiucv DD imagerel $LN36
	DD	imagerel $LN36+1960
	DD	imagerel $unwind$ecpsvm_doiucv
$pdata$ecpsvm_dolra DD imagerel $LN91
	DD	imagerel $LN91+6830
	DD	imagerel $unwind$ecpsvm_dolra
$pdata$Interrupt_Lock_Obtained DD imagerel Interrupt_Lock_Obtained
	DD	imagerel Interrupt_Lock_Obtained+269
	DD	imagerel $unwind$Interrupt_Lock_Obtained
$pdata$Obtain_Interrupt_Lock DD imagerel Obtain_Interrupt_Lock
	DD	imagerel Obtain_Interrupt_Lock+88
	DD	imagerel $unwind$Obtain_Interrupt_Lock
$pdata$Release_Interrupt_Lock DD imagerel Release_Interrupt_Lock
	DD	imagerel Release_Interrupt_Lock+71
	DD	imagerel $unwind$Release_Interrupt_Lock
pdata	ENDS
;	COMDAT pdata
pdata	SEGMENT
$pdata$_get_storekey_ptr DD imagerel $LN5
	DD	imagerel $LN5+104
	DD	imagerel $unwind$_get_storekey_ptr
pdata	ENDS
;	COMDAT pdata
pdata	SEGMENT
$pdata$s370__get_storage_key DD imagerel $LN8
	DD	imagerel $LN8+118
	DD	imagerel $unwind$s370__get_storage_key
pdata	ENDS
;	COMDAT pdata
pdata	SEGMENT
$pdata$s370_get_2K_storage_key DD imagerel $LN3
	DD	imagerel $LN3+32
	DD	imagerel $unwind$s370_get_2K_storage_key
pdata	ENDS
;	COMDAT pdata
pdata	SEGMENT
$pdata$s370_get_storage_key DD imagerel $LN3
	DD	imagerel $LN3+24
	DD	imagerel $unwind$s370_get_storage_key
pdata	ENDS
;	COMDAT pdata
pdata	SEGMENT
$pdata$s370_maddr_l DD imagerel $LN14
	DD	imagerel $LN14+474
	DD	imagerel $unwind$s370_maddr_l
pdata	ENDS
;	COMDAT pdata
pdata	SEGMENT
$pdata$s370_vstore2_full DD imagerel $LN3
	DD	imagerel $LN3+204
	DD	imagerel $unwind$s370_vstore2_full
pdata	ENDS
;	COMDAT pdata
pdata	SEGMENT
$pdata$s370_vstore4_full DD imagerel $LN3
	DD	imagerel $LN3+313
	DD	imagerel $unwind$s370_vstore4_full
pdata	ENDS
;	COMDAT pdata
pdata	SEGMENT
$pdata$s370_vstore8_full DD imagerel $LN3
	DD	imagerel $LN3+356
	DD	imagerel $unwind$s370_vstore8_full
pdata	ENDS
;	COMDAT pdata
pdata	SEGMENT
$pdata$s370_vfetch2_full DD imagerel $LN3
	DD	imagerel $LN3+174
	DD	imagerel $unwind$s370_vfetch2_full
pdata	ENDS
;	COMDAT pdata
pdata	SEGMENT
$pdata$s370_vfetch4_full DD imagerel $LN3
	DD	imagerel $LN3+288
	DD	imagerel $unwind$s370_vfetch4_full
pdata	ENDS
;	COMDAT pdata
pdata	SEGMENT
$pdata$s370_vfetch8_full DD imagerel $LN3
	DD	imagerel $LN3+288
	DD	imagerel $unwind$s370_vfetch8_full
pdata	ENDS
;	COMDAT pdata
pdata	SEGMENT
$pdata$s370_vstoreb DD imagerel $LN18
	DD	imagerel $LN18+169
	DD	imagerel $unwind$s370_vstoreb
pdata	ENDS
;	COMDAT pdata
pdata	SEGMENT
$pdata$s370_vstore2 DD imagerel $LN24
	DD	imagerel $LN24+267
	DD	imagerel $unwind$s370_vstore2
pdata	ENDS
;	COMDAT pdata
pdata	SEGMENT
$pdata$s370_vstore4 DD imagerel $LN27
	DD	imagerel $LN27+289
	DD	imagerel $unwind$s370_vstore4
pdata	ENDS
;	COMDAT pdata
pdata	SEGMENT
$pdata$s370_vstore8 DD imagerel $LN24
	DD	imagerel $LN24+253
	DD	imagerel $unwind$s370_vstore8
pdata	ENDS
;	COMDAT pdata
pdata	SEGMENT
$pdata$s370_vfetchb DD imagerel $LN18
	DD	imagerel $LN18+160
	DD	imagerel $unwind$s370_vfetchb
pdata	ENDS
;	COMDAT pdata
pdata	SEGMENT
$pdata$s370_vfetch2 DD imagerel $LN26
	DD	imagerel $LN26+275
	DD	imagerel $unwind$s370_vfetch2
pdata	ENDS
;	COMDAT pdata
pdata	SEGMENT
$pdata$s370_vfetch4 DD imagerel $LN26
	DD	imagerel $LN26+275
	DD	imagerel $unwind$s370_vfetch4
pdata	ENDS
;	COMDAT pdata
pdata	SEGMENT
$pdata$s370_vfetch8 DD imagerel $LN23
	DD	imagerel $LN23+240
	DD	imagerel $unwind$s370_vfetch8
pdata	ENDS
pdata	SEGMENT
$pdata$ecpsvm_getcmdent DD imagerel $LN8
	DD	imagerel $LN8+209
	DD	imagerel $unwind$ecpsvm_getcmdent
$pdata$ecpsvm_int_lra DD imagerel ecpsvm_int_lra
	DD	imagerel ecpsvm_int_lra+76
	DD	imagerel $unwind$ecpsvm_int_lra
$pdata$ecpsvm_tranbrng DD imagerel ecpsvm_tranbrng
	DD	imagerel ecpsvm_tranbrng+977
	DD	imagerel $unwind$ecpsvm_tranbrng
$pdata$ecpsvm_get_trace_entry DD imagerel $LN4
	DD	imagerel $LN4+128
	DD	imagerel $unwind$ecpsvm_get_trace_entry
$pdata$ecpsvm_do_fretx DD imagerel $LN20
	DD	imagerel $LN20+1778
	DD	imagerel $unwind$ecpsvm_do_fretx
$pdata$ecpsvm_lockpage1 DD imagerel ecpsvm_lockpage1
	DD	imagerel ecpsvm_lockpage1+771
	DD	imagerel $unwind$ecpsvm_lockpage1
$pdata$ecpsvm_unlockpage1 DD imagerel ecpsvm_unlockpage1
	DD	imagerel ecpsvm_unlockpage1+1051
	DD	imagerel $unwind$ecpsvm_unlockpage1
$pdata$ecpsvm_do_deccw1 DD imagerel $LN48
	DD	imagerel $LN48+3168
	DD	imagerel $unwind$ecpsvm_do_deccw1
$pdata$ecpsvm_do_scnvu DD imagerel $LN14
	DD	imagerel $LN14+1144
	DD	imagerel $unwind$ecpsvm_do_scnvu
$pdata$ecpsvm_do_disp1 DD imagerel $LN38
	DD	imagerel $LN38+2084
	DD	imagerel $unwind$ecpsvm_do_disp1
$pdata$ecpsvm_do_disp2 DD imagerel $LN333
	DD	imagerel $LN333+15972
	DD	imagerel $unwind$ecpsvm_do_disp2
$pdata$ecpsvm_zappage DD imagerel $LN4
	DD	imagerel $LN4+286
	DD	imagerel $unwind$ecpsvm_zappage
$pdata$ecpsvm_disp_incprobt DD imagerel ecpsvm_disp_incprobt
	DD	imagerel ecpsvm_disp_incprobt+1059
	DD	imagerel $unwind$ecpsvm_disp_incprobt
$pdata$ecpsvm_disp_runtime DD imagerel ecpsvm_disp_runtime
	DD	imagerel ecpsvm_disp_runtime+2937
	DD	imagerel $unwind$ecpsvm_disp_runtime
$pdata$ecpsvm_check_pswtrans DD imagerel $LN40
	DD	imagerel $LN40+1296
	DD	imagerel $unwind$ecpsvm_check_pswtrans
$pdata$ecpsvm_doCPlink DD imagerel $LN18
	DD	imagerel $LN18+1508
	DD	imagerel $unwind$ecpsvm_doCPlink
$pdata$ecpsvm_doCPretrn DD imagerel $LN25
	DD	imagerel $LN25+1981
	DD	imagerel $unwind$ecpsvm_doCPretrn
$pdata$ecpsvm_doassistsvc DD imagerel $LN71
	DD	imagerel $LN71+3550
	DD	imagerel $unwind$ecpsvm_doassistsvc
$pdata$ecpsvm_sortstats DD imagerel ecpsvm_sortstats
	DD	imagerel ecpsvm_sortstats+58
	DD	imagerel $unwind$ecpsvm_sortstats
$pdata$ecpsvm_showstats2 DD imagerel ecpsvm_showstats2
	DD	imagerel ecpsvm_showstats2+1435
	DD	imagerel $unwind$ecpsvm_showstats2
$pdata$ecpsvm_showstats DD imagerel $LN10
	DD	imagerel $LN10+939
	DD	imagerel $unwind$ecpsvm_showstats
$pdata$ecpsvm_findstat DD imagerel $LN11
	DD	imagerel $LN11+265
	DD	imagerel $unwind$ecpsvm_findstat
$pdata$ecpsvm_enadisaall DD imagerel $LN14
	DD	imagerel $LN14+787
	DD	imagerel $unwind$ecpsvm_enadisaall
$pdata$ecpsvm_enable_disable DD imagerel $LN19
	DD	imagerel $LN19+1286
	DD	imagerel $unwind$ecpsvm_enable_disable
$pdata$ecpsvm_disable DD imagerel $LN3
	DD	imagerel $LN3+41
	DD	imagerel $unwind$ecpsvm_disable
$pdata$ecpsvm_enable DD imagerel $LN3
	DD	imagerel $LN3+44
	DD	imagerel $unwind$ecpsvm_enable
$pdata$ecpsvm_debug DD imagerel $LN3
	DD	imagerel $LN3+44
	DD	imagerel $unwind$ecpsvm_debug
$pdata$ecpsvm_nodebug DD imagerel $LN3
	DD	imagerel $LN3+41
	DD	imagerel $unwind$ecpsvm_nodebug
$pdata$ecpsvm_level DD imagerel $LN6
	DD	imagerel $LN6+575
	DD	imagerel $unwind$ecpsvm_level
$pdata$ecpsvm_helpcmd DD imagerel ecpsvm_helpcmd
	DD	imagerel ecpsvm_helpcmd+280
	DD	imagerel $unwind$ecpsvm_helpcmd
$pdata$ecpsvm_helpcmdlist DD imagerel ecpsvm_helpcmdlist
	DD	imagerel ecpsvm_helpcmdlist+186
	DD	imagerel $unwind$ecpsvm_helpcmdlist
$pdata$ecpsvm_command DD imagerel $LN5
	DD	imagerel $LN5+423
	DD	imagerel $unwind$ecpsvm_command
pdata	ENDS
;	COMDAT __real@3ffe147ae147ae14
CONST	SEGMENT
__real@3ffe147ae147ae14 DQ 03ffe147ae147ae14r	; 1.88
CONST	ENDS
_DATA	SEGMENT
	ORG $+2
$SG169702 DB	'CPASSTS FREE ECPS:VM Disabled in configuration', 00H
	ORG $+1
$SG169703 DB	'D', 00H
	ORG $+2
$SG169711 DB	'D', 00H
	ORG $+2
$SG169704 DB	'HHC90000%s DBG: %s', 0aH, 00H
$SG169718 DB	'D', 00H
	ORG $+2
$SG169705 DB	's370_ecpsvm_basic_freex', 00H
$SG169706 DB	'ecpsvm.c', 00H
	ORG $+3
$SG169748 DB	'D', 00H
	ORG $+2
$SG169710 DB	'CPASSTS FREE Disabled by command', 00H
	ORG $+3
$SG169756 DB	'D', 00H
	ORG $+2
$SG169712 DB	'HHC90000%s DBG: %s', 0aH, 00H
$SG169763 DB	'D', 00H
	ORG $+2
$SG169713 DB	's370_ecpsvm_basic_freex', 00H
$SG169714 DB	'ecpsvm.c', 00H
	ORG $+3
$SG169783 DB	'D', 00H
	ORG $+2
$SG169717 DB	'FREE called', 00H
$SG169790 DB	'D', 00H
	ORG $+2
$SG169719 DB	'HHC90000%s DBG: %s', 0aH, 00H
$SG169799 DB	'D', 00H
	ORG $+2
$SG169720 DB	's370_ecpsvm_basic_freex', 00H
$SG169721 DB	'ecpsvm.c', 00H
	ORG $+3
$SG169840 DB	'D', 00H
	ORG $+2
$SG169747 DB	'CPASSTS FRET ECPS:VM Disabled in configuration', 00H
	ORG $+1
$SG169749 DB	'HHC90000%s DBG: %s', 0aH, 00H
$SG169848 DB	'D', 00H
	ORG $+2
$SG169750 DB	's370_ecpsvm_basic_fretx', 00H
$SG169751 DB	'ecpsvm.c', 00H
	ORG $+3
$SG169855 DB	'D', 00H
	ORG $+2
$SG169755 DB	'CPASSTS FRET Disabled by command', 00H
	ORG $+3
$SG169862 DB	'D', 00H
	ORG $+2
$SG169757 DB	'HHC90000%s DBG: %s', 0aH, 00H
$SG169888 DB	'D', 00H
	ORG $+2
$SG169758 DB	's370_ecpsvm_basic_fretx', 00H
$SG169759 DB	'ecpsvm.c', 00H
	ORG $+3
$SG169896 DB	'D', 00H
	ORG $+2
$SG169762 DB	'FRET called', 00H
$SG169904 DB	'D', 00H
	ORG $+2
$SG169764 DB	'HHC90000%s DBG: %s', 0aH, 00H
$SG169912 DB	'D', 00H
	ORG $+2
$SG169765 DB	's370_ecpsvm_basic_fretx', 00H
$SG169766 DB	'ecpsvm.c', 00H
	ORG $+3
$SG169919 DB	'D', 00H
	ORG $+2
$SG169781 DB	'LKPG coreptr = %16.16llX Frame = %16.16llX', 00H
	ORG $+1
$SG169957 DB	'D', 00H
	ORG $+2
$SG169784 DB	'HHC90000%s DBG: %s', 0aH, 00H
$SG169965 DB	'D', 00H
	ORG $+2
$SG169785 DB	'ecpsvm_lockpage1', 00H
	ORG $+3
$SG169972 DB	'D', 00H
	ORG $+2
$SG169786 DB	'ecpsvm.c', 00H
	ORG $+3
$SG170046 DB	'D', 00H
	ORG $+2
$SG169788 DB	'LKPG corete = %6.6X', 00H
$SG170058 DB	'D', 00H
	ORG $+2
$SG169791 DB	'HHC90000%s DBG: %s', 0aH, 00H
$SG170070 DB	'D', 00H
	ORG $+2
$SG169792 DB	'ecpsvm_lockpage1', 00H
	ORG $+3
$SG170079 DB	'D', 00H
	ORG $+2
$SG169793 DB	'ecpsvm.c', 00H
	ORG $+3
$SG170088 DB	'D', 00H
	ORG $+2
$SG169797 DB	'LKPG Page locked. Count = %6.6X', 00H
$SG169800 DB	'HHC90000%s DBG: %s', 0aH, 00H
$SG170133 DB	'D', 00H
	ORG $+2
$SG169801 DB	'ecpsvm_lockpage1', 00H
	ORG $+3
$SG170141 DB	'D', 00H
	ORG $+2
$SG169802 DB	'ecpsvm.c', 00H
	ORG $+3
$SG170148 DB	'D', 00H
	ORG $+2
$SG169839 DB	'CPASSTS LCKPG ECPS:VM Disabled in configuration', 00H
$SG169841 DB	'HHC90000%s DBG: %s', 0aH, 00H
$SG170155 DB	'D', 00H
	ORG $+2
$SG169842 DB	's370_ecpsvm_lock_page', 00H
	ORG $+2
$SG169843 DB	'ecpsvm.c', 00H
	ORG $+3
$SG170162 DB	'D', 00H
	ORG $+2
$SG169847 DB	'CPASSTS LCKPG Disabled by command', 00H
	ORG $+2
$SG170276 DB	'D', 00H
	ORG $+2
$SG169849 DB	'HHC90000%s DBG: %s', 0aH, 00H
$SG170284 DB	'D', 00H
	ORG $+2
$SG169850 DB	's370_ecpsvm_lock_page', 00H
	ORG $+2
$SG169851 DB	'ecpsvm.c', 00H
	ORG $+3
$SG170291 DB	'D', 00H
	ORG $+2
$SG169854 DB	'LCKPG called', 00H
	ORG $+3
$SG169856 DB	'HHC90000%s DBG: %s', 0aH, 00H
$SG170358 DB	'D', 00H
	ORG $+2
$SG169857 DB	's370_ecpsvm_lock_page', 00H
	ORG $+2
$SG169858 DB	'ecpsvm.c', 00H
	ORG $+3
$SG170366 DB	'D', 00H
	ORG $+2
$SG169860 DB	'LKPG PAGE=%6.6X, PTRPL=%6.6X', 00H
	ORG $+3
$SG169863 DB	'HHC90000%s DBG: %s', 0aH, 00H
$SG170374 DB	'D', 00H
	ORG $+2
$SG169864 DB	's370_ecpsvm_lock_page', 00H
	ORG $+2
$SG169865 DB	'ecpsvm.c', 00H
	ORG $+3
$SG170381 DB	'D', 00H
	ORG $+2
$SG169886 DB	'ULKPG PAGE=%6.6X, PTRPL=%6.6X', 00H
	ORG $+2
$SG169889 DB	'HHC90000%s DBG: %s', 0aH, 00H
$SG170419 DB	'D', 00H
	ORG $+2
$SG169890 DB	'ecpsvm_unlockpage1', 00H
	ORG $+1
$SG170427 DB	'D', 00H
	ORG $+2
$SG169891 DB	'ecpsvm.c', 00H
	ORG $+3
$SG170434 DB	'D', 00H
	ORG $+2
$SG169894 DB	'ULKPG Page beyond core size of %6.6X', 00H
	ORG $+3
$SG169897 DB	'HHC90000%s DBG: %s', 0aH, 00H
$SG170487 DB	'D', 00H
	ORG $+2
$SG169898 DB	'ecpsvm_unlockpage1', 00H
	ORG $+1
$SG170495 DB	'D', 00H
	ORG $+2
$SG169899 DB	'ecpsvm.c', 00H
	ORG $+3
$SG170502 DB	'D', 00H
	ORG $+2
$SG169903 DB	'ULKPG Attempting to unlock page that is not locked', 00H
	ORG $+1
$SG170509 DB	'D', 00H
	ORG $+2
$SG169905 DB	'HHC90000%s DBG: %s', 0aH, 00H
$SG170516 DB	'D', 00H
	ORG $+2
$SG169906 DB	'ecpsvm_unlockpage1', 00H
	ORG $+1
$SG170527 DB	'D', 00H
	ORG $+2
$SG169907 DB	'ecpsvm.c', 00H
	ORG $+3
$SG170537 DB	'D', 00H
	ORG $+2
$SG169911 DB	'ULKPG now unlocked', 00H
	ORG $+1
$SG170546 DB	'D', 00H
	ORG $+2
$SG169913 DB	'HHC90000%s DBG: %s', 0aH, 00H
$SG170888 DB	'D', 00H
	ORG $+2
$SG169914 DB	'ecpsvm_unlockpage1', 00H
	ORG $+1
$SG170895 DB	'D', 00H
	ORG $+2
$SG169915 DB	'ecpsvm.c', 00H
	ORG $+3
$SG170905 DB	'D', 00H
	ORG $+2
$SG169917 DB	'ULKPG Page still locked. Count = %6.6X', 00H
	ORG $+1
$SG169920 DB	'HHC90000%s DBG: %s', 0aH, 00H
$SG170916 DB	'D', 00H
	ORG $+2
$SG169921 DB	'ecpsvm_unlockpage1', 00H
	ORG $+1
$SG170932 DB	'D', 00H
	ORG $+2
$SG169922 DB	'ecpsvm.c', 00H
	ORG $+3
$SG170940 DB	'D', 00H
	ORG $+2
$SG169956 DB	'CPASSTS ULKPG ECPS:VM Disabled in configuration', 00H
$SG169958 DB	'HHC90000%s DBG: %s', 0aH, 00H
$SG170954 DB	'D', 00H
	ORG $+2
$SG169959 DB	's370_ecpsvm_unlock_page', 00H
$SG169960 DB	'ecpsvm.c', 00H
	ORG $+3
$SG170967 DB	'D', 00H
	ORG $+2
$SG169964 DB	'CPASSTS ULKPG Disabled by command', 00H
	ORG $+2
$SG170974 DB	'D', 00H
	ORG $+2
$SG169966 DB	'HHC90000%s DBG: %s', 0aH, 00H
$SG170983 DB	'D', 00H
	ORG $+2
$SG169967 DB	's370_ecpsvm_unlock_page', 00H
$SG169968 DB	'ecpsvm.c', 00H
	ORG $+3
$SG170991 DB	'D', 00H
	ORG $+2
$SG169971 DB	'ULKPG called', 00H
	ORG $+3
$SG169973 DB	'HHC90000%s DBG: %s', 0aH, 00H
$SG170999 DB	'D', 00H
	ORG $+2
$SG169974 DB	's370_ecpsvm_unlock_page', 00H
$SG169975 DB	'ecpsvm.c', 00H
	ORG $+3
$SG171007 DB	'D', 00H
	ORG $+2
$SG170045 DB	'DFCCW - Exit CCWTIC1', 00H
	ORG $+3
$SG170047 DB	'HHC90000%s DBG: %s', 0aH, 00H
$SG171015 DB	'D', 00H
	ORG $+2
$SG170048 DB	'ecpsvm_do_deccw1', 00H
	ORG $+3
$SG171025 DB	'D', 00H
	ORG $+2
$SG170049 DB	'ecpsvm.c', 00H
	ORG $+3
$SG171033 DB	'D', 00H
	ORG $+2
$SG170057 DB	'DFCCW - Exit ADDRINVAL', 00H
	ORG $+1
$SG170059 DB	'HHC90000%s DBG: %s', 0aH, 00H
$SG171040 DB	'D', 00H
	ORG $+2
$SG170060 DB	'ecpsvm_do_deccw1', 00H
	ORG $+3
$SG171049 DB	'D', 00H
	ORG $+2
$SG170061 DB	'ecpsvm.c', 00H
	ORG $+3
$SG171066 DB	'D', 00H
	ORG $+2
$SG170069 DB	'DFCCW - Exit CCWBAD', 00H
$SG171087 DB	'D', 00H
	ORG $+2
$SG170071 DB	'HHC90000%s DBG: %s', 0aH, 00H
$SG171093 DB	'W', 00H
	ORG $+2
$SG170072 DB	'ecpsvm_do_deccw1', 00H
	ORG $+3
$SG171105 DB	'D', 00H
	ORG $+2
$SG170073 DB	'ecpsvm.c', 00H
	ORG $+3
$SG171126 DB	'D', 00H
	ORG $+2
$SG170078 DB	'DFCCW - Exit CCWTIC', 00H
$SG171133 DB	'D', 00H
	ORG $+2
$SG170080 DB	'HHC90000%s DBG: %s', 0aH, 00H
$SG171148 DB	'D', 00H
	ORG $+2
$SG170081 DB	'ecpsvm_do_deccw1', 00H
	ORG $+3
$SG171155 DB	'D', 00H
	ORG $+2
$SG170082 DB	'ecpsvm.c', 00H
	ORG $+3
$SG171163 DB	'D', 00H
	ORG $+2
$SG170087 DB	'DFCCW - Complete', 00H
	ORG $+3
$SG171171 DB	'D', 00H
	ORG $+2
$SG170089 DB	'HHC90000%s DBG: %s', 0aH, 00H
$SG171191 DB	0aH, 00H
	ORG $+2
$SG170090 DB	'ecpsvm_do_deccw1', 00H
	ORG $+3
$SG171195 DB	'D', 00H
	ORG $+2
$SG170091 DB	'ecpsvm.c', 00H
	ORG $+3
$SG171201 DB	'D', 00H
	ORG $+2
$SG170132 DB	'CPASSTS DNCCW ECPS:VM Disabled in configuration', 00H
$SG170134 DB	'HHC90000%s DBG: %s', 0aH, 00H
$SG171238 DB	'D', 00H
	ORG $+2
$SG170135 DB	's370_ecpsvm_decode_next_ccw', 00H
$SG171246 DB	'D', 00H
	ORG $+2
$SG170136 DB	'ecpsvm.c', 00H
	ORG $+3
$SG171253 DB	'D', 00H
	ORG $+2
$SG170140 DB	'CPASSTS DNCCW Disabled by command', 00H
	ORG $+2
$SG171292 DB	'D', 00H
	ORG $+2
$SG170142 DB	'HHC90000%s DBG: %s', 0aH, 00H
$SG171300 DB	'D', 00H
	ORG $+2
$SG170143 DB	's370_ecpsvm_decode_next_ccw', 00H
$SG171307 DB	'D', 00H
	ORG $+2
$SG170144 DB	'ecpsvm.c', 00H
	ORG $+3
$SG171315 DB	'D', 00H
	ORG $+2
$SG170147 DB	'DNCCW called', 00H
	ORG $+3
$SG170149 DB	'HHC90000%s DBG: %s', 0aH, 00H
$SG171321 DB	'D', 00H
	ORG $+2
$SG170150 DB	's370_ecpsvm_decode_next_ccw', 00H
$SG171361 DB	'D', 00H
	ORG $+2
$SG170151 DB	'ecpsvm.c', 00H
	ORG $+3
$SG171369 DB	'D', 00H
	ORG $+2
$SG170154 DB	'DNCCW cant translate vaddr; back to CP', 00H
	ORG $+1
$SG170156 DB	'HHC90000%s DBG: %s', 0aH, 00H
$SG171376 DB	'D', 00H
	ORG $+2
$SG170157 DB	's370_ecpsvm_decode_next_ccw', 00H
$SG171382 DB	'D', 00H
	ORG $+2
$SG170158 DB	'ecpsvm.c', 00H
	ORG $+3
$SG171389 DB	'D', 00H
	ORG $+2
$SG170161 DB	'DNCCW - Exit CCWNROOM', 00H
	ORG $+2
$SG170163 DB	'HHC90000%s DBG: %s', 0aH, 00H
$SG171432 DB	'D', 00H
	ORG $+2
$SG170164 DB	's370_ecpsvm_decode_next_ccw', 00H
$SG171440 DB	'D', 00H
	ORG $+2
$SG170165 DB	'ecpsvm.c', 00H
	ORG $+3
$SG171447 DB	'D', 00H
	ORG $+2
$SG170275 DB	'CPASSTS FCCWS ECPS:VM Disabled in configuration', 00H
$SG170277 DB	'HHC90000%s DBG: %s', 0aH, 00H
$SG171453 DB	'D', 00H
	ORG $+2
$SG170278 DB	's370_ecpsvm_free_ccwstor', 00H
	ORG $+3
$SG171460 DB	'D', 00H
	ORG $+2
$SG170279 DB	'ecpsvm.c', 00H
	ORG $+3
$SG171524 DB	'D', 00H
	ORG $+2
$SG170283 DB	'CPASSTS FCCWS Disabled by command', 00H
	ORG $+2
$SG171532 DB	'D', 00H
	ORG $+2
$SG170285 DB	'HHC90000%s DBG: %s', 0aH, 00H
$SG171539 DB	'D', 00H
	ORG $+2
$SG170286 DB	's370_ecpsvm_free_ccwstor', 00H
	ORG $+3
$SG171546 DB	'D', 00H
	ORG $+2
$SG170287 DB	'ecpsvm.c', 00H
	ORG $+3
$SG171587 DB	'D', 00H
	ORG $+2
$SG170290 DB	'FCCWS called', 00H
	ORG $+3
$SG170292 DB	'HHC90000%s DBG: %s', 0aH, 00H
$SG171595 DB	'D', 00H
	ORG $+2
$SG170293 DB	's370_ecpsvm_free_ccwstor', 00H
	ORG $+3
$SG171602 DB	'D', 00H
	ORG $+2
$SG170294 DB	'ecpsvm.c', 00H
	ORG $+3
$SG171636 DB	'D', 00H
	ORG $+2
$SG170356 DB	'SCNVU Virtual Device %4.4X has no VCHAN block', 00H
	ORG $+2
$SG170359 DB	'HHC90000%s DBG: %s', 0aH, 00H
$SG171644 DB	'D', 00H
	ORG $+2
$SG170360 DB	'ecpsvm_do_scnvu', 00H
$SG170361 DB	'ecpsvm.c', 00H
	ORG $+3
$SG171651 DB	'D', 00H
	ORG $+2
$SG170364 DB	'SCNVU Virtual Device %4.4X has no VCU block', 00H
$SG171658 DB	'D', 00H
	ORG $+2
$SG170367 DB	'HHC90000%s DBG: %s', 0aH, 00H
$SG171676 DB	'D', 00H
	ORG $+2
$SG170368 DB	'ecpsvm_do_scnvu', 00H
$SG170369 DB	'ecpsvm.c', 00H
	ORG $+3
$SG171683 DB	'D', 00H
	ORG $+2
$SG170372 DB	'SCNVU Virtual Device %4.4X has no VDEV block', 00H
	ORG $+3
$SG170375 DB	'HHC90000%s DBG: %s', 0aH, 00H
$SG171690 DB	'D', 00H
	ORG $+2
$SG170376 DB	'ecpsvm_do_scnvu', 00H
$SG170377 DB	'ecpsvm.c', 00H
	ORG $+3
$SG171697 DB	'D', 00H
	ORG $+2
$SG170379 DB	'SCNVU %4.4X : VCH = %8.8X, VCU = %8.8X, VDEV = %8.8X', 00H
	ORG $+3
$SG170382 DB	'HHC90000%s DBG: %s', 0aH, 00H
$SG171704 DB	'D', 00H
	ORG $+2
$SG170383 DB	'ecpsvm_do_scnvu', 00H
$SG170384 DB	'ecpsvm.c', 00H
	ORG $+3
$SG171711 DB	'D', 00H
	ORG $+2
$SG170418 DB	'CPASSTS SCNVU ECPS:VM Disabled in configuration', 00H
$SG170420 DB	'HHC90000%s DBG: %s', 0aH, 00H
$SG171772 DB	'D', 00H
	ORG $+2
$SG170421 DB	's370_ecpsvm_locate_vblock', 00H
	ORG $+2
$SG171781 DB	'D', 00H
	ORG $+2
$SG170422 DB	'ecpsvm.c', 00H
	ORG $+3
$SG171794 DB	'D', 00H
	ORG $+2
$SG170426 DB	'CPASSTS SCNVU Disabled by command', 00H
	ORG $+2
$SG171803 DB	'D', 00H
	ORG $+2
$SG170428 DB	'HHC90000%s DBG: %s', 0aH, 00H
$SG171810 DB	'D', 00H
	ORG $+2
$SG170429 DB	's370_ecpsvm_locate_vblock', 00H
	ORG $+2
$SG171817 DB	'D', 00H
	ORG $+2
$SG170430 DB	'ecpsvm.c', 00H
	ORG $+3
$SG171832 DB	'D', 00H
	ORG $+2
$SG170433 DB	'SCNVU called', 00H
	ORG $+3
$SG170435 DB	'HHC90000%s DBG: %s', 0aH, 00H
$SG171838 DB	'D', 00H
	ORG $+2
$SG170436 DB	's370_ecpsvm_locate_vblock', 00H
	ORG $+2
$SG171957 DB	'D', 00H
	ORG $+2
$SG170437 DB	'ecpsvm.c', 00H
	ORG $+3
$SG171965 DB	'D', 00H
	ORG $+2
$SG170485 DB	'DISP1 Data list = %6.6X VM=%6.6X', 00H
	ORG $+3
$SG171972 DB	'D', 00H
	ORG $+2
$SG170488 DB	'HHC90000%s DBG: %s', 0aH, 00H
$SG171980 DB	'D', 00H
	ORG $+2
$SG170489 DB	'ecpsvm_do_disp1', 00H
$SG170490 DB	'ecpsvm.c', 00H
	ORG $+3
$SG171990 DB	'D', 00H
	ORG $+2
$SG170494 DB	'DISP1 Quick Check complete', 00H
	ORG $+1
$SG171997 DB	'D', 00H
	ORG $+2
$SG170496 DB	'HHC90000%s DBG: %s', 0aH, 00H
$SG172006 DB	'D', 00H
	ORG $+2
$SG170497 DB	'ecpsvm_do_disp1', 00H
$SG170498 DB	'ecpsvm.c', 00H
	ORG $+3
$SG172013 DB	'D', 00H
	ORG $+2
$SG170500 DB	'DISP1 Quick Check failed : %8.8X != %8.8X', 00H
	ORG $+2
$SG172023 DB	'D', 00H
	ORG $+2
$SG170503 DB	'HHC90000%s DBG: %s', 0aH, 00H
$SG172031 DB	'D', 00H
	ORG $+2
$SG170504 DB	'ecpsvm_do_disp1', 00H
$SG170505 DB	'ecpsvm.c', 00H
	ORG $+3
$SG172041 DB	'D', 00H
	ORG $+2
$SG170508 DB	'DISP1 VMB is SYSTEM VMBLOCK', 00H
$SG172051 DB	'D', 00H
	ORG $+2
$SG170510 DB	'HHC90000%s DBG: %s', 0aH, 00H
$SG172059 DB	'D', 00H
	ORG $+2
$SG170511 DB	'ecpsvm_do_disp1', 00H
$SG170512 DB	'ecpsvm.c', 00H
	ORG $+3
$SG172066 DB	'D', 00H
	ORG $+2
$SG170515 DB	'DISP1 Call SCHEDULE because VMKILL not set', 00H
	ORG $+1
$SG172074 DB	'D', 00H
	ORG $+2
$SG170517 DB	'HHC90000%s DBG: %s', 0aH, 00H
$SG172081 DB	'D', 00H
	ORG $+2
$SG170518 DB	'ecpsvm_do_disp1', 00H
$SG170519 DB	'ecpsvm.c', 00H
	ORG $+3
$SG172088 DB	'D', 00H
	ORG $+2
$SG170526 DB	'DISP1 Call SCHEDULE because VMKILL & VMCF & !VMCFREAD se'
	DB	't', 00H
	ORG $+2
$SG172098 DB	'D', 00H
	ORG $+2
$SG170528 DB	'HHC90000%s DBG: %s', 0aH, 00H
$SG172113 DB	'D', 00H
	ORG $+2
$SG170529 DB	'ecpsvm_do_disp1', 00H
$SG170530 DB	'ecpsvm.c', 00H
	ORG $+3
$SG172123 DB	'D', 00H
	ORG $+2
$SG170536 DB	'DISP1 Continue because already logging off', 00H
	ORG $+1
$SG172132 DB	'D', 00H
	ORG $+2
$SG170538 DB	'HHC90000%s DBG: %s', 0aH, 00H
$SG172186 DB	'D', 00H
	ORG $+2
$SG170539 DB	'ecpsvm_do_disp1', 00H
$SG170540 DB	'ecpsvm.c', 00H
	ORG $+3
$SG172194 DB	'D', 00H
	ORG $+2
$SG170545 DB	'DISP1 : Call USOFF', 00H
	ORG $+1
$SG172201 DB	'D', 00H
	ORG $+2
$SG170547 DB	'HHC90000%s DBG: %s', 0aH, 00H
$SG172208 DB	'D', 00H
	ORG $+2
$SG170548 DB	'ecpsvm_do_disp1', 00H
$SG170549 DB	'ecpsvm.c', 00H
	ORG $+3
$SG172215 DB	'D', 00H
	ORG $+2
$SG170886 DB	'DISP2 Data list=%6.6X VM=%6.6X', 00H
	ORG $+1
$SG170889 DB	'HHC90000%s DBG: %s', 0aH, 00H
$SG172225 DB	'D', 00H
	ORG $+2
$SG170890 DB	'ecpsvm_do_disp2', 00H
$SG170891 DB	'ecpsvm.c', 00H
	ORG $+3
$SG172234 DB	'D', 00H
	ORG $+2
$SG170894 DB	'DISP2 Exit 8 : System extending', 00H
$SG170896 DB	'HHC90000%s DBG: %s', 0aH, 00H
$SG172241 DB	'D', 00H
	ORG $+2
$SG170897 DB	'ecpsvm_do_disp2', 00H
$SG170898 DB	'ecpsvm.c', 00H
	ORG $+3
$SG172428 DB	'D', 00H
	ORG $+2
$SG170904 DB	'DISP2 Exit 8 : MCH Recovery', 00H
$SG172436 DB	'D', 00H
	ORG $+2
$SG170906 DB	'HHC90000%s DBG: %s', 0aH, 00H
$SG172443 DB	'D', 00H
	ORG $+2
$SG170907 DB	'ecpsvm_do_disp2', 00H
$SG170908 DB	'ecpsvm.c', 00H
	ORG $+3
$SG172450 DB	'D', 00H
	ORG $+2
$SG170914 DB	'DISP2 TRQ/IOB @ %6.6X Exit being routed', 00H
$SG170917 DB	'HHC90000%s DBG: %s', 0aH, 00H
$SG172460 DB	'D', 00H
	ORG $+2
$SG170918 DB	'ecpsvm_do_disp2', 00H
$SG170919 DB	'ecpsvm.c', 00H
	ORG $+3
$SG172471 DB	'D', 00H
	ORG $+2
$SG170920 DB	'ecpsvm.c:1290', 00H
	ORG $+2
$SG170925 DB	'ecpsvm.c:1290', 00H
	ORG $+2
$SG170930 DB	'DISP2 TRQ/IOB @ %6.6X IA = %6.6X', 00H
	ORG $+3
$SG172479 DB	'D', 00H
	ORG $+2
$SG170933 DB	'HHC90000%s DBG: %s', 0aH, 00H
$SG172490 DB	'D', 00H
	ORG $+2
$SG170934 DB	'ecpsvm_do_disp2', 00H
$SG170935 DB	'ecpsvm.c', 00H
	ORG $+3
$SG172500 DB	'D', 00H
	ORG $+2
$SG170938 DB	'DISP2 CPEXBLOK Exit being routed CPEX=%6.6X', 00H
$SG172510 DB	'D', 00H
	ORG $+2
$SG170941 DB	'HHC90000%s DBG: %s', 0aH, 00H
$SG172520 DB	'D', 00H
	ORG $+2
$SG170942 DB	'ecpsvm_do_disp2', 00H
$SG170943 DB	'ecpsvm.c', 00H
	ORG $+3
$SG172530 DB	'D', 00H
	ORG $+2
$SG170944 DB	'ecpsvm.c:1318', 00H
	ORG $+2
$SG170949 DB	'ecpsvm.c:1318', 00H
	ORG $+2
$SG170952 DB	'DISP2 CPEXBLOK CPEX=%6.6X Fret Failed', 00H
	ORG $+2
$SG170955 DB	'HHC90000%s DBG: %s', 0aH, 00H
$SG172540 DB	'D', 00H
	ORG $+2
$SG170956 DB	'ecpsvm_do_disp2', 00H
$SG170957 DB	'ecpsvm.c', 00H
	ORG $+3
$SG172550 DB	'D', 00H
	ORG $+2
$SG170965 DB	'DISP2 CPEXBLOK CPEX=%6.6X IA=%6.6X', 00H
	ORG $+1
$SG172561 DB	'D', 00H
	ORG $+2
$SG170968 DB	'HHC90000%s DBG: %s', 0aH, 00H
$SG172571 DB	'D', 00H
	ORG $+2
$SG170969 DB	'ecpsvm_do_disp2', 00H
$SG170970 DB	'ecpsvm.c', 00H
	ORG $+3
$SG172581 DB	'D', 00H
	ORG $+2
$SG170973 DB	'DISP2 Exit 24 : CPSHRLK Set in CPSTAT2', 00H
	ORG $+1
$SG170975 DB	'HHC90000%s DBG: %s', 0aH, 00H
$SG172591 DB	'D', 00H
	ORG $+2
$SG170976 DB	'ecpsvm_do_disp2', 00H
$SG170977 DB	'ecpsvm.c', 00H
	ORG $+3
$SG172602 DB	'D', 00H
	ORG $+2
$SG170982 DB	'DISP2 : Scanning Scheduler IN-Queue', 00H
$SG172612 DB	'D', 00H
	ORG $+2
$SG170984 DB	'HHC90000%s DBG: %s', 0aH, 00H
$SG172670 DB	'D', 00H
	ORG $+2
$SG170985 DB	'ecpsvm_do_disp2', 00H
$SG170986 DB	'ecpsvm.c', 00H
	ORG $+3
$SG172678 DB	'D', 00H
	ORG $+2
$SG170989 DB	'DISP2 : VMB @ %6.6X Not eligible : User in virtual PSW w'
	DB	'ait', 00H
$SG172685 DB	'D', 00H
	ORG $+2
$SG170992 DB	'HHC90000%s DBG: %s', 0aH, 00H
$SG172725 DB	'D', 00H
	ORG $+2
$SG170993 DB	'ecpsvm_do_disp2', 00H
$SG170994 DB	'ecpsvm.c', 00H
	ORG $+3
$SG172733 DB	'D', 00H
	ORG $+2
$SG170997 DB	'DISP2 : VMB @ %6.6X Not eligible : VMRUN not set', 00H
	ORG $+3
$SG172740 DB	'D', 00H
	ORG $+2
$SG171000 DB	'HHC90000%s DBG: %s', 0aH, 00H
$SG172802 DB	'D', 00H
	ORG $+2
$SG171001 DB	'ecpsvm_do_disp2', 00H
$SG171002 DB	'ecpsvm.c', 00H
	ORG $+3
$SG172810 DB	'D', 00H
	ORG $+2
$SG171005 DB	'DISP2 : VMB @ %6.6X Not eligible : VMCPWAIT set', 00H
$SG171008 DB	'HHC90000%s DBG: %s', 0aH, 00H
$SG172817 DB	'D', 00H
	ORG $+2
$SG171009 DB	'ecpsvm_do_disp2', 00H
$SG171010 DB	'ecpsvm.c', 00H
	ORG $+3
$SG172824 DB	'D', 00H
	ORG $+2
$SG171013 DB	'DISP2 : Exit 20 : VMB @ %6.6X Has VMNOECPS Set to %2.2X', 00H
$SG171016 DB	'HHC90000%s DBG: %s', 0aH, 00H
$SG172842 DB	'D', 00H
	ORG $+2
$SG171017 DB	'ecpsvm_do_disp2', 00H
$SG171018 DB	'ecpsvm.c', 00H
	ORG $+3
$SG172905 DB	'D', 00H
	ORG $+2
$SG171023 DB	'DISP2 : VMB @ %6.6X Will now be dispatched', 00H
	ORG $+1
$SG172913 DB	'D', 00H
	ORG $+2
$SG171026 DB	'HHC90000%s DBG: %s', 0aH, 00H
$SG172920 DB	'D', 00H
	ORG $+2
$SG171027 DB	'ecpsvm_do_disp2', 00H
$SG171028 DB	'ecpsvm.c', 00H
	ORG $+3
$SG172977 DB	'D', 00H
	ORG $+2
$SG171031 DB	'DISP2 : User switch from %6.6X to %6.6X', 00H
$SG171034 DB	'HHC90000%s DBG: %s', 0aH, 00H
$SG172985 DB	'D', 00H
	ORG $+2
$SG171035 DB	'ecpsvm_do_disp2', 00H
$SG171036 DB	'ecpsvm.c', 00H
	ORG $+3
$SG172992 DB	'D', 00H
	ORG $+2
$SG171038 DB	'DISP2 : RUNU=%6.6X, LASTU=%6.6X', 00H
$SG171041 DB	'HHC90000%s DBG: %s', 0aH, 00H
$SG172999 DB	'D', 00H
	ORG $+2
$SG171042 DB	'ecpsvm_do_disp2', 00H
$SG171043 DB	'ecpsvm.c', 00H
	ORG $+3
$SG173007 DB	'D', 00H
	ORG $+2
$SG171047 DB	'DISP2 : Exit 16 : LASTU=%6.6X has shared sys & LCSHPG no'
	DB	't impl', 00H
	ORG $+1
$SG171050 DB	'HHC90000%s DBG: %s', 0aH, 00H
$SG173015 DB	'D', 00H
	ORG $+2
$SG171051 DB	'ecpsvm_do_disp2', 00H
$SG171052 DB	'ecpsvm.c', 00H
	ORG $+3
$SG173022 DB	'D', 00H
	ORG $+2
$SG171053 DB	'ecpsvm.c:1426', 00H
	ORG $+2
$SG171058 DB	'ecpsvm.c:1426', 00H
	ORG $+2
$SG171065 DB	'DISP2 : Restarting Time Slice', 00H
	ORG $+2
$SG171067 DB	'HHC90000%s DBG: %s', 0aH, 00H
$SG173029 DB	'D', 00H
	ORG $+2
$SG171068 DB	'ecpsvm_do_disp2', 00H
$SG171069 DB	'ecpsvm.c', 00H
	ORG $+3
$SG173039 DB	'D', 00H
	ORG $+2
$SG171071 DB	'ecpsvm.c:1446', 00H
	ORG $+2
$SG171076 DB	'ecpsvm.c:1446', 00H
	ORG $+2
$SG171085 DB	'DISP2 : VMB @ %6.6X has ECMODE ON', 00H
	ORG $+2
$SG173069 DB	'D', 00H
	ORG $+2
$SG171088 DB	'HHC90000%s DBG: %s', 0aH, 00H
$SG173076 DB	'D', 00H
	ORG $+2
$SG171089 DB	'ecpsvm_do_disp2', 00H
$SG171090 DB	'ecpsvm.c', 00H
	ORG $+3
$SG173085 DB	'D', 00H
	ORG $+2
$SG171094 DB	'HHC01700%s Abend condition detected in DISP2 instruction'
	DB	0aH, 00H
	ORG $+2
$SG173092 DB	'D', 00H
	ORG $+2
$SG171095 DB	'ecpsvm_do_disp2', 00H
$SG171096 DB	'ecpsvm.c', 00H
	ORG $+3
$SG173099 DB	'D', 00H
	ORG $+2
$SG171103 DB	'DISP2 : VMB @ %6.6X Refusing to simulate DMKVATAB', 00H
	ORG $+2
$SG173106 DB	'D', 00H
	ORG $+2
$SG171106 DB	'HHC90000%s DBG: %s', 0aH, 00H
$SG173151 DB	'D', 00H
	ORG $+2
$SG171107 DB	'ecpsvm_do_disp2', 00H
$SG171108 DB	'ecpsvm.c', 00H
	ORG $+3
$SG173159 DB	'D', 00H
	ORG $+2
$SG171125 DB	'DISP2 : PER ON', 00H
	ORG $+1
$SG171127 DB	'HHC90000%s DBG: %s', 0aH, 00H
$SG173166 DB	'D', 00H
	ORG $+2
$SG171128 DB	'ecpsvm_do_disp2', 00H
$SG171129 DB	'ecpsvm.c', 00H
	ORG $+3
$SG173200 DB	'D', 00H
	ORG $+2
$SG171132 DB	'DISP2 : Purging TLB', 00H
$SG173208 DB	'D', 00H
	ORG $+2
$SG171134 DB	'HHC90000%s DBG: %s', 0aH, 00H
$SG173215 DB	'D', 00H
	ORG $+2
$SG171135 DB	'ecpsvm_do_disp2', 00H
$SG171136 DB	'ecpsvm.c', 00H
	ORG $+3
$SG173262 DB	'D', 00H
	ORG $+2
$SG171137 DB	'ecpsvm.c:1686', 00H
	ORG $+2
$SG171142 DB	'ecpsvm.c:1686', 00H
	ORG $+2
$SG171145 DB	'DISP2 : Entry Real PSW=', 00H
$SG171149 DB	'HHC90000%s DBG: %s', 0aH, 00H
$SG173270 DB	'D', 00H
	ORG $+2
$SG171150 DB	'ecpsvm_do_disp2', 00H
$SG171151 DB	'ecpsvm.c', 00H
	ORG $+3
$SG173280 DB	'D', 00H
	ORG $+2
$SG171153 DB	'DISP2 : VMB @ %6.6X Now being dispatched', 00H
	ORG $+3
$SG173287 DB	'D', 00H
	ORG $+2
$SG171156 DB	'HHC90000%s DBG: %s', 0aH, 00H
$SG173294 DB	'D', 00H
	ORG $+2
$SG171157 DB	'ecpsvm_do_disp2', 00H
$SG171158 DB	'ecpsvm.c', 00H
	ORG $+3
$SG173302 DB	'D', 00H
	ORG $+2
$SG171160 DB	'DISP2 : Real PSW=', 00H
	ORG $+2
$SG173309 DB	'D', 00H
	ORG $+2
$SG171164 DB	'HHC90000%s DBG: %s', 0aH, 00H
$SG173377 DB	'D', 00H
	ORG $+2
$SG171165 DB	'ecpsvm_do_disp2', 00H
$SG171166 DB	'ecpsvm.c', 00H
	ORG $+3
$SG173384 DB	'D', 00H
	ORG $+2
$SG171168 DB	'DISP2 : Virtual PSW=', 00H
	ORG $+3
$SG171172 DB	'HHC90000%s DBG: %s', 0aH, 00H
$SG173391 DB	'D', 00H
	ORG $+2
$SG171173 DB	'ecpsvm_do_disp2', 00H
$SG171174 DB	'ecpsvm.c', 00H
	ORG $+3
$SG173398 DB	'D', 00H
	ORG $+2
$SG171187 DB	'DISP2 - Dispatch...', 0aH, 00H
	ORG $+3
$SG171189 DB	'HHC90000D ', 00H
	ORG $+1
$SG173406 DB	'D', 00H
	ORG $+2
$SG171193 DB	'HHC90000D ', 00H
	ORG $+1
$SG173413 DB	'D', 00H
	ORG $+2
$SG171196 DB	'HHC90000%s DBG: %s', 0aH, 00H
$SG173420 DB	'D', 00H
	ORG $+2
$SG171197 DB	'ecpsvm_do_disp2', 00H
$SG171198 DB	'ecpsvm.c', 00H
	ORG $+3
$SG173428 DB	' PSW=', 00H
	ORG $+2
$SG173431 DB	'D', 00H
	ORG $+2
$SG171200 DB	'DISP2 : Nothing to dispatch - IDLEECPS', 00H
	ORG $+1
$SG171202 DB	'HHC90000%s DBG: %s', 0aH, 00H
$SG173438 DB	'D', 00H
	ORG $+2
$SG171203 DB	'ecpsvm_do_disp2', 00H
$SG171204 DB	'ecpsvm.c', 00H
	ORG $+3
$SG173446 DB	'D', 00H
	ORG $+2
$SG171237 DB	'CPASSTS DISP1 ECPS:VM Disabled in configuration', 00H
$SG171239 DB	'HHC90000%s DBG: %s', 0aH, 00H
$SG173457 DB	'D', 00H
	ORG $+2
$SG171240 DB	's370_ecpsvm_disp1', 00H
	ORG $+2
$SG173465 DB	'D', 00H
	ORG $+2
$SG171241 DB	'ecpsvm.c', 00H
	ORG $+3
$SG173473 DB	'D', 00H
	ORG $+2
$SG171245 DB	'CPASSTS DISP1 Disabled by command', 00H
	ORG $+2
$SG173502 DB	'D', 00H
	ORG $+2
$SG171247 DB	'HHC90000%s DBG: %s', 0aH, 00H
$SG173509 DB	'D', 00H
	ORG $+2
$SG171248 DB	's370_ecpsvm_disp1', 00H
	ORG $+2
$SG173516 DB	'D', 00H
	ORG $+2
$SG171249 DB	'ecpsvm.c', 00H
	ORG $+3
$SG173549 DB	'D', 00H
	ORG $+2
$SG171252 DB	'DISP1 called', 00H
	ORG $+3
$SG171254 DB	'HHC90000%s DBG: %s', 0aH, 00H
$SG173556 DB	'D', 00H
	ORG $+2
$SG171255 DB	's370_ecpsvm_disp1', 00H
	ORG $+2
$SG173563 DB	'D', 00H
	ORG $+2
$SG171256 DB	'ecpsvm.c', 00H
	ORG $+3
$SG173570 DB	'D', 00H
	ORG $+2
$SG171290 DB	'Tranbring : LRA cc = %d', 00H
$SG171293 DB	'HHC90000%s DBG: %s', 0aH, 00H
$SG173577 DB	'D', 00H
	ORG $+2
$SG171294 DB	'ecpsvm_tranbrng', 00H
$SG171295 DB	'ecpsvm.c', 00H
	ORG $+3
$SG173585 DB	'D', 00H
	ORG $+2
$SG171298 DB	'Page not shared - OK %d', 00H
$SG171301 DB	'HHC90000%s DBG: %s', 0aH, 00H
$SG173592 DB	'D', 00H
	ORG $+2
$SG171302 DB	'ecpsvm_tranbrng', 00H
$SG171303 DB	'ecpsvm.c', 00H
	ORG $+3
$SG173684 DB	'D', 00H
	ORG $+2
$SG171305 DB	'Checking 2K Storage keys @%16.16llX & %16.16llX', 00H
$SG171308 DB	'HHC90000%s DBG: %s', 0aH, 00H
$SG173691 DB	'D', 00H
	ORG $+2
$SG171309 DB	'ecpsvm_tranbrng', 00H
$SG171310 DB	'ecpsvm.c', 00H
	ORG $+3
$SG173698 DB	'D', 00H
	ORG $+2
$SG171314 DB	'Page shared and changed', 00H
$SG171316 DB	'HHC90000%s DBG: %s', 0aH, 00H
$SG173705 DB	'D', 00H
	ORG $+2
$SG171317 DB	'ecpsvm_tranbrng', 00H
$SG171318 DB	'ecpsvm.c', 00H
	ORG $+3
$SG173713 DB	'D', 00H
	ORG $+2
$SG171320 DB	'Page shared but not changed', 00H
$SG173720 DB	'D', 00H
	ORG $+2
$SG171322 DB	'HHC90000%s DBG: %s', 0aH, 00H
$SG173727 DB	'D', 00H
	ORG $+2
$SG171323 DB	'ecpsvm_tranbrng', 00H
$SG171324 DB	'ecpsvm.c', 00H
	ORG $+3
$SG173735 DB	' PSW=', 00H
	ORG $+2
$SG173738 DB	'D', 00H
	ORG $+2
$SG171360 DB	'CPASSTS TRBRG ECPS:VM Disabled in configuration', 00H
$SG171362 DB	'HHC90000%s DBG: %s', 0aH, 00H
$SG173745 DB	'D', 00H
	ORG $+2
$SG171363 DB	's370_ecpsvm_tpage', 00H
	ORG $+2
$SG173754 DB	'D', 00H
	ORG $+2
$SG171364 DB	'ecpsvm.c', 00H
	ORG $+3
$SG173766 DB	'D', 00H
	ORG $+2
$SG171368 DB	'CPASSTS TRBRG Disabled by command', 00H
	ORG $+2
$SG173773 DB	'D', 00H
	ORG $+2
$SG171370 DB	'HHC90000%s DBG: %s', 0aH, 00H
$SG173784 DB	'D', 00H
	ORG $+2
$SG171371 DB	's370_ecpsvm_tpage', 00H
	ORG $+2
$SG173797 DB	'D', 00H
	ORG $+2
$SG171372 DB	'ecpsvm.c', 00H
	ORG $+3
$SG173868 DB	'D', 00H
	ORG $+2
$SG171375 DB	'TRBRG called', 00H
	ORG $+3
$SG171377 DB	'HHC90000%s DBG: %s', 0aH, 00H
$SG173875 DB	'D', 00H
	ORG $+2
$SG171378 DB	's370_ecpsvm_tpage', 00H
	ORG $+2
$SG173882 DB	'D', 00H
	ORG $+2
$SG171379 DB	'ecpsvm.c', 00H
	ORG $+3
$SG173889 DB	'D', 00H
	ORG $+2
$SG171381 DB	'TRANBRNG', 00H
	ORG $+3
$SG173897 DB	'D', 00H
	ORG $+2
$SG171383 DB	'HHC90000%s DBG: %s', 0aH, 00H
$SG173904 DB	'D', 00H
	ORG $+2
$SG171384 DB	's370_ecpsvm_tpage', 00H
	ORG $+2
$SG173911 DB	'D', 00H
	ORG $+2
$SG171385 DB	'ecpsvm.c', 00H
	ORG $+3
$SG173919 DB	' PSW=', 00H
	ORG $+2
$SG173922 DB	'D', 00H
	ORG $+2
$SG171388 DB	'TRANBRNG - Back to CP', 00H
	ORG $+2
$SG171390 DB	'HHC90000%s DBG: %s', 0aH, 00H
$SG173929 DB	'D', 00H
	ORG $+2
$SG171391 DB	's370_ecpsvm_tpage', 00H
	ORG $+2
$SG173937 DB	'D', 00H
	ORG $+2
$SG171392 DB	'ecpsvm.c', 00H
	ORG $+3
$SG173945 DB	'D', 00H
	ORG $+2
$SG171431 DB	'CPASSTS TRLOK ECPS:VM Disabled in configuration', 00H
$SG171433 DB	'HHC90000%s DBG: %s', 0aH, 00H
$SG173957 DB	'D', 00H
	ORG $+2
$SG171434 DB	's370_ecpsvm_tpage_lock', 00H
	ORG $+1
$SG171435 DB	'ecpsvm.c', 00H
	ORG $+3
$SG173965 DB	'D', 00H
	ORG $+2
$SG171439 DB	'CPASSTS TRLOK Disabled by command', 00H
	ORG $+2
$SG174010 DB	'D', 00H
	ORG $+2
$SG171441 DB	'HHC90000%s DBG: %s', 0aH, 00H
$SG174017 DB	'D', 00H
	ORG $+2
$SG171442 DB	's370_ecpsvm_tpage_lock', 00H
	ORG $+1
$SG171443 DB	'ecpsvm.c', 00H
	ORG $+3
$SG174024 DB	'D', 00H
	ORG $+2
$SG171446 DB	'TRLOK called', 00H
	ORG $+3
$SG171448 DB	'HHC90000%s DBG: %s', 0aH, 00H
$SG174031 DB	'D', 00H
	ORG $+2
$SG171449 DB	's370_ecpsvm_tpage_lock', 00H
	ORG $+1
$SG171450 DB	'ecpsvm.c', 00H
	ORG $+3
$SG174039 DB	'D', 00H
	ORG $+2
$SG171452 DB	'TRANLOCK', 00H
	ORG $+3
$SG174046 DB	'D', 00H
	ORG $+2
$SG171454 DB	'HHC90000%s DBG: %s', 0aH, 00H
$SG174053 DB	'D', 00H
	ORG $+2
$SG171455 DB	's370_ecpsvm_tpage_lock', 00H
	ORG $+1
$SG171456 DB	'ecpsvm.c', 00H
	ORG $+3
$SG174061 DB	' PSW=', 00H
	ORG $+2
$SG174064 DB	'D', 00H
	ORG $+2
$SG171459 DB	'TRANLOCK - Back to CP', 00H
	ORG $+2
$SG171461 DB	'HHC90000%s DBG: %s', 0aH, 00H
$SG174131 DB	'D', 00H
	ORG $+2
$SG171462 DB	's370_ecpsvm_tpage_lock', 00H
	ORG $+1
$SG171463 DB	'ecpsvm.c', 00H
	ORG $+3
$SG174138 DB	'D', 00H
	ORG $+2
$SG171523 DB	'CPASSTS VIST ECPS:VM Disabled in configuration', 00H
	ORG $+1
$SG171525 DB	'HHC90000%s DBG: %s', 0aH, 00H
$SG174145 DB	'D', 00H
	ORG $+2
$SG171526 DB	's370_ecpsvm_inval_segtab', 00H
	ORG $+3
$SG174152 DB	'D', 00H
	ORG $+2
$SG171527 DB	'ecpsvm.c', 00H
	ORG $+3
$SG174160 DB	'D', 00H
	ORG $+2
$SG171531 DB	'CPASSTS VIST Disabled by command', 00H
	ORG $+3
$SG174167 DB	'D', 00H
	ORG $+2
$SG171533 DB	'HHC90000%s DBG: %s', 0aH, 00H
$SG174174 DB	'D', 00H
	ORG $+2
$SG171534 DB	's370_ecpsvm_inval_segtab', 00H
	ORG $+3
$SG174182 DB	' PSW=', 00H
	ORG $+2
$SG174185 DB	'D', 00H
	ORG $+2
$SG171535 DB	'ecpsvm.c', 00H
	ORG $+3
$SG174192 DB	'D', 00H
	ORG $+2
$SG171538 DB	'VIST called', 00H
$SG174200 DB	'D', 00H
	ORG $+2
$SG171540 DB	'HHC90000%s DBG: %s', 0aH, 00H
$SG174211 DB	'D', 00H
	ORG $+2
$SG171541 DB	's370_ecpsvm_inval_segtab', 00H
	ORG $+3
$SG174219 DB	'D', 00H
	ORG $+2
$SG171542 DB	'ecpsvm.c', 00H
	ORG $+3
$SG174227 DB	'D', 00H
	ORG $+2
$SG171544 DB	'VIST  : Seg table addr = %x,  len = %x', 00H
	ORG $+1
$SG171547 DB	'HHC90000%s DBG: %s', 0aH, 00H
$SG174294 DB	'D', 00H
	ORG $+2
$SG171548 DB	's370_ecpsvm_inval_segtab', 00H
	ORG $+3
$SG174301 DB	'D', 00H
	ORG $+2
$SG171549 DB	'ecpsvm.c', 00H
	ORG $+3
$SG174308 DB	'D', 00H
	ORG $+2
$SG171586 DB	'CPASSTS VIPT ECPS:VM Disabled in configuration', 00H
	ORG $+1
$SG171588 DB	'HHC90000%s DBG: %s', 0aH, 00H
$SG174315 DB	'D', 00H
	ORG $+2
$SG171589 DB	's370_ecpsvm_inval_ptable', 00H
	ORG $+3
$SG174323 DB	'D', 00H
	ORG $+2
$SG171590 DB	'ecpsvm.c', 00H
	ORG $+3
$SG174330 DB	'D', 00H
	ORG $+2
$SG171594 DB	'CPASSTS VIPT Disabled by command', 00H
	ORG $+3
$SG174337 DB	'D', 00H
	ORG $+2
$SG171596 DB	'HHC90000%s DBG: %s', 0aH, 00H
$SG174348 DB	'D', 00H
	ORG $+2
$SG171597 DB	's370_ecpsvm_inval_ptable', 00H
	ORG $+3
$SG174345 DB	' PSW=', 00H
	ORG $+2
$SG174355 DB	'D', 00H
	ORG $+2
$SG171598 DB	'ecpsvm.c', 00H
	ORG $+3
$SG174363 DB	'D', 00H
	ORG $+2
$SG171601 DB	'VIPT called', 00H
$SG174374 DB	'D', 00H
	ORG $+2
$SG171603 DB	'HHC90000%s DBG: %s', 0aH, 00H
$SG174382 DB	'D', 00H
	ORG $+2
$SG171604 DB	's370_ecpsvm_inval_ptable', 00H
	ORG $+3
$SG174390 DB	'D', 00H
	ORG $+2
$SG171605 DB	'ecpsvm.c', 00H
	ORG $+3
$SG174447 DB	'D', 00H
	ORG $+2
$SG171635 DB	'CPASSTS DFCCW ECPS:VM Disabled in configuration', 00H
$SG171637 DB	'HHC90000%s DBG: %s', 0aH, 00H
$SG174454 DB	'D', 00H
	ORG $+2
$SG171638 DB	's370_ecpsvm_decode_first_ccw', 00H
	ORG $+3
$SG171639 DB	'ecpsvm.c', 00H
	ORG $+3
$SG174461 DB	'D', 00H
	ORG $+2
$SG171643 DB	'CPASSTS DFCCW Disabled by command', 00H
	ORG $+2
$SG174468 DB	'D', 00H
	ORG $+2
$SG171645 DB	'HHC90000%s DBG: %s', 0aH, 00H
$SG174476 DB	'D', 00H
	ORG $+2
$SG171646 DB	's370_ecpsvm_decode_first_ccw', 00H
	ORG $+3
$SG171647 DB	'ecpsvm.c', 00H
	ORG $+3
$SG174483 DB	'D', 00H
	ORG $+2
$SG171650 DB	'DFCCW called', 00H
	ORG $+3
$SG171652 DB	'HHC90000%s DBG: %s', 0aH, 00H
$SG174490 DB	'D', 00H
	ORG $+2
$SG171653 DB	's370_ecpsvm_decode_first_ccw', 00H
	ORG $+3
$SG171654 DB	'ecpsvm.c', 00H
	ORG $+3
$SG174498 DB	' PSW=', 00H
	ORG $+2
$SG174501 DB	'D', 00H
	ORG $+2
$SG171657 DB	'DFCCW cant translate vaddr; back to CP', 00H
	ORG $+1
$SG171659 DB	'HHC90000%s DBG: %s', 0aH, 00H
$SG174508 DB	'D', 00H
	ORG $+2
$SG171660 DB	's370_ecpsvm_decode_first_ccw', 00H
	ORG $+3
$SG171661 DB	'ecpsvm.c', 00H
	ORG $+3
$SG174516 DB	'D', 00H
	ORG $+2
$SG171674 DB	'INCPROBT Entry : VMBLOK @ %8.8X', 00H
$SG171677 DB	'HHC90000%s DBG: %s', 0aH, 00H
$SG174528 DB	'D', 00H
	ORG $+2
$SG171678 DB	'ecpsvm_disp_incprobt', 00H
	ORG $+3
$SG171679 DB	'ecpsvm.c', 00H
	ORG $+3
$SG174601 DB	'D', 00H
	ORG $+2
$SG171681 DB	'INCPROBT Entry : VMTMOUTQ = %16.16llx', 00H
	ORG $+2
$SG171684 DB	'HHC90000%s DBG: %s', 0aH, 00H
$SG174608 DB	'D', 00H
	ORG $+2
$SG171685 DB	'ecpsvm_disp_incprobt', 00H
	ORG $+3
$SG171686 DB	'ecpsvm.c', 00H
	ORG $+3
$SG174615 DB	'D', 00H
	ORG $+2
$SG171688 DB	'INCPROBT Entry : PROBSTRT = %16.16llx', 00H
	ORG $+2
$SG171691 DB	'HHC90000%s DBG: %s', 0aH, 00H
$SG174622 DB	'D', 00H
	ORG $+2
$SG171692 DB	'ecpsvm_disp_incprobt', 00H
	ORG $+3
$SG171693 DB	'ecpsvm.c', 00H
	ORG $+3
$SG174630 DB	'D', 00H
	ORG $+2
$SG171696 DB	'INCPROBT Already performed', 00H
	ORG $+1
$SG174637 DB	'D', 00H
	ORG $+2
$SG171698 DB	'HHC90000%s DBG: %s', 0aH, 00H
$SG174644 DB	'D', 00H
	ORG $+2
$SG171699 DB	'ecpsvm_disp_incprobt', 00H
	ORG $+3
$SG171700 DB	'ecpsvm.c', 00H
	ORG $+3
$SG174652 DB	' PSW=', 00H
	ORG $+2
$SG174655 DB	'D', 00H
	ORG $+2
$SG171702 DB	'INCPROBT TSPENT = %16.16llx', 00H
$SG174662 DB	'D', 00H
	ORG $+2
$SG171705 DB	'HHC90000%s DBG: %s', 0aH, 00H
$SG174670 DB	'D', 00H
	ORG $+2
$SG171706 DB	'ecpsvm_disp_incprobt', 00H
	ORG $+3
$SG171707 DB	'ecpsvm.c', 00H
	ORG $+3
$SG174682 DB	'D', 00H
	ORG $+2
$SG171709 DB	'INCPROBT NEW PROBTIME = %16.16llx', 00H
	ORG $+2
$SG174691 DB	'D', 00H
	ORG $+2
$SG171712 DB	'HHC90000%s DBG: %s', 0aH, 00H
$SG174700 DB	'D', 00H
	ORG $+2
$SG171713 DB	'ecpsvm_disp_incprobt', 00H
	ORG $+3
$SG171714 DB	'ecpsvm.c', 00H
	ORG $+3
$SG174708 DB	'D', 00H
	ORG $+2
$SG171770 DB	'RUNTIME Entry : VMBLOK @ %8.8X', 00H
	ORG $+1
$SG171773 DB	'HHC90000%s DBG: %s', 0aH, 00H
$SG174718 DB	'D', 00H
	ORG $+2
$SG171774 DB	'ecpsvm_disp_runtime', 00H
$SG174729 DB	'D', 00H
	ORG $+2
$SG171775 DB	'ecpsvm.c', 00H
	ORG $+3
$SG174737 DB	'D', 00H
	ORG $+2
$SG171779 DB	'RUNTIME Switching to RUNUSER VMBLOK @ %8.8X', 00H
$SG174747 DB	'D', 00H
	ORG $+2
$SG171782 DB	'HHC90000%s DBG: %s', 0aH, 00H
$SG174760 DB	'D', 00H
	ORG $+2
$SG171783 DB	'ecpsvm_disp_runtime', 00H
$SG174805 DB	'D', 00H
	ORG $+2
$SG171784 DB	'ecpsvm.c', 00H
	ORG $+3
$SG174812 DB	'D', 00H
	ORG $+2
$SG171785 DB	'ecpsvm.c:2081', 00H
	ORG $+2
$SG171790 DB	'ecpsvm.c:2081', 00H
	ORG $+2
$SG171792 DB	'RUNTIME : VMBLOK @ %8.8X', 00H
	ORG $+3
$SG174819 DB	'D', 00H
	ORG $+2
$SG171795 DB	'HHC90000%s DBG: %s', 0aH, 00H
$SG174826 DB	'D', 00H
	ORG $+2
$SG171796 DB	'ecpsvm_disp_runtime', 00H
$SG174834 DB	'D', 00H
	ORG $+2
$SG171797 DB	'ecpsvm.c', 00H
	ORG $+3
$SG174841 DB	'D', 00H
	ORG $+2
$SG171802 DB	'RUNTIME : Complete - VTIMER Assist active', 00H
	ORG $+2
$SG174848 DB	'D', 00H
	ORG $+2
$SG171804 DB	'HHC90000%s DBG: %s', 0aH, 00H
$SG174859 DB	'D', 00H
	ORG $+2
$SG171805 DB	'ecpsvm_disp_runtime', 00H
$SG174914 DB	'D', 00H
	ORG $+2
$SG171806 DB	'ecpsvm.c', 00H
	ORG $+3
$SG174856 DB	' PSW=', 00H
	ORG $+2
$SG174921 DB	'D', 00H
	ORG $+2
$SG171809 DB	'RUNTIME : Complete - SET TIMER OFF', 00H
	ORG $+1
$SG174928 DB	'D', 00H
	ORG $+2
$SG171811 DB	'HHC90000%s DBG: %s', 0aH, 00H
$SG174935 DB	'D', 00H
	ORG $+2
$SG171812 DB	'ecpsvm_disp_runtime', 00H
$SG174943 DB	'D', 00H
	ORG $+2
$SG171813 DB	'ecpsvm.c', 00H
	ORG $+3
$SG174950 DB	'D', 00H
	ORG $+2
$SG171816 DB	'RUNTIME : Bad ITIMER - Taking Exit #32', 00H
	ORG $+1
$SG171818 DB	'HHC90000%s DBG: %s', 0aH, 00H
$SG174957 DB	'D', 00H
	ORG $+2
$SG171819 DB	'ecpsvm_disp_runtime', 00H
$SG174968 DB	'D', 00H
	ORG $+2
$SG171820 DB	'ecpsvm.c', 00H
	ORG $+3
$SG174965 DB	' PSW=', 00H
	ORG $+2
$SG175055 DB	'D', 00H
	ORG $+2
$SG171831 DB	'RUNTIME : Complete - Taking exit #8', 00H
$SG175062 DB	'D', 00H
	ORG $+2
$SG171833 DB	'HHC90000%s DBG: %s', 0aH, 00H
$SG175069 DB	'D', 00H
	ORG $+2
$SG171834 DB	'ecpsvm_disp_runtime', 00H
$SG175076 DB	'D', 00H
	ORG $+2
$SG171835 DB	'ecpsvm.c', 00H
	ORG $+3
$SG175084 DB	'D', 00H
	ORG $+2
$SG171837 DB	'RUNTIME : Complete - ITIMER Updated', 00H
$SG175091 DB	'D', 00H
	ORG $+2
$SG171839 DB	'HHC90000%s DBG: %s', 0aH, 00H
$SG175098 DB	'D', 00H
	ORG $+2
$SG171840 DB	'ecpsvm_disp_runtime', 00H
$SG175109 DB	'D', 00H
	ORG $+2
$SG171841 DB	'ecpsvm.c', 00H
	ORG $+3
$SG175106 DB	' PSW=', 00H
	ORG $+2
$SG175116 DB	'D', 00H
	ORG $+2
$SG171956 DB	'CPASSTS DISP0 ECPS:VM Disabled in configuration', 00H
$SG171958 DB	'HHC90000%s DBG: %s', 0aH, 00H
$SG175124 DB	'D', 00H
	ORG $+2
$SG171959 DB	's370_ecpsvm_dispatch_main', 00H
	ORG $+2
$SG175131 DB	'D', 00H
	ORG $+2
$SG171960 DB	'ecpsvm.c', 00H
	ORG $+3
$SG175142 DB	'D', 00H
	ORG $+2
$SG171964 DB	'CPASSTS DISP0 Disabled by command', 00H
	ORG $+2
$SG175151 DB	'D', 00H
	ORG $+2
$SG171966 DB	'HHC90000%s DBG: %s', 0aH, 00H
$SG175159 DB	'D', 00H
	ORG $+2
$SG171967 DB	's370_ecpsvm_dispatch_main', 00H
	ORG $+2
$SG175167 DB	'D', 00H
	ORG $+2
$SG171968 DB	'ecpsvm.c', 00H
	ORG $+3
$SG175174 DB	'D', 00H
	ORG $+2
$SG171971 DB	'DISP0 called', 00H
	ORG $+3
$SG171973 DB	'HHC90000%s DBG: %s', 0aH, 00H
$SG175182 DB	'D', 00H
	ORG $+2
$SG171974 DB	's370_ecpsvm_dispatch_main', 00H
	ORG $+2
$SG175190 DB	'D', 00H
	ORG $+2
$SG171975 DB	'ecpsvm.c', 00H
	ORG $+3
$SG175198 DB	'D', 00H
	ORG $+2
$SG171979 DB	'DISP0 : CPRUN On', 00H
	ORG $+3
$SG175206 DB	'D', 00H
	ORG $+2
$SG171981 DB	'HHC90000%s DBG: %s', 0aH, 00H
$SG175214 DB	'D', 00H
	ORG $+2
$SG171982 DB	's370_ecpsvm_dispatch_main', 00H
	ORG $+2
$SG175222 DB	'D', 00H
	ORG $+2
$SG171983 DB	'ecpsvm.c', 00H
	ORG $+3
$SG175229 DB	'D', 00H
	ORG $+2
$SG171989 DB	'DISP0 : I/O Old as XLATE on', 00H
$SG175237 DB	'D', 00H
	ORG $+2
$SG171991 DB	'HHC90000%s DBG: %s', 0aH, 00H
$SG175245 DB	'D', 00H
	ORG $+2
$SG171992 DB	's370_ecpsvm_dispatch_main', 00H
	ORG $+2
$SG175253 DB	'D', 00H
	ORG $+2
$SG171993 DB	'ecpsvm.c', 00H
	ORG $+3
$SG175260 DB	'D', 00H
	ORG $+2
$SG171996 DB	'DISP0 : VMDSP on in VMBLOK - Clean status (Exit #36)', 00H
	ORG $+3
$SG171998 DB	'HHC90000%s DBG: %s', 0aH, 00H
$SG175294 DB	'*', 00H
	ORG $+2
$SG171999 DB	's370_ecpsvm_dispatch_main', 00H
	ORG $+2
$SG175297 DB	'-', 00H
	ORG $+2
$SG172000 DB	'ecpsvm.c', 00H
	ORG $+3
$SG175299 DB	'%', 00H
	ORG $+2
$SG172005 DB	'DISP0 : CPRUN Off', 00H
	ORG $+2
$SG175301 DB	'+', 00H
	ORG $+2
$SG172007 DB	'HHC90000%s DBG: %s', 0aH, 00H
$SG175302 DB	'I', 00H
	ORG $+2
$SG172008 DB	's370_ecpsvm_dispatch_main', 00H
	ORG $+2
$SG175307 DB	'I', 00H
	ORG $+2
$SG172009 DB	'ecpsvm.c', 00H
	ORG $+3
$SG175311 DB	'Total', 00H
	ORG $+2
$SG175312 DB	'I', 00H
	ORG $+2
$SG172012 DB	'DISP0 : CPWAIT On : Exit #4', 00H
$SG175316 DB	'I', 00H
	ORG $+2
$SG172014 DB	'HHC90000%s DBG: %s', 0aH, 00H
$SG175321 DB	'I', 00H
	ORG $+2
$SG172015 DB	's370_ecpsvm_dispatch_main', 00H
	ORG $+2
$SG175326 DB	'I', 00H
	ORG $+2
$SG172016 DB	'ecpsvm.c', 00H
	ORG $+3
$SG175331 DB	'I', 00H
	ORG $+2
$SG172021 DB	'DISP0 : At UNSTACK : VMBLOK = %8.8X', 00H
$SG175355 DB	'I', 00H
	ORG $+2
$SG172024 DB	'HHC90000%s DBG: %s', 0aH, 00H
$SG175360 DB	'I', 00H
	ORG $+2
$SG172025 DB	's370_ecpsvm_dispatch_main', 00H
	ORG $+2
$SG175364 DB	'I', 00H
	ORG $+2
$SG172026 DB	'ecpsvm.c', 00H
	ORG $+3
$SG175368 DB	'Ratio', 00H
	ORG $+2
$SG175369 DB	'Hits  ', 00H
	ORG $+1
$SG175372 DB	'I', 00H
	ORG $+2
$SG172029 DB	'DISP0 : VMRSTAT VMCPWAIT On (%2.2X) - Taking exit #12', 00H
	ORG $+2
$SG172032 DB	'HHC90000%s DBG: %s', 0aH, 00H
$SG175376 DB	'I', 00H
	ORG $+2
$SG172033 DB	's370_ecpsvm_dispatch_main', 00H
	ORG $+2
$SG175380 DB	'I', 00H
	ORG $+2
$SG172034 DB	'ecpsvm.c', 00H
	ORG $+3
$SG175384 DB	'Ratio', 00H
	ORG $+2
$SG175385 DB	'Hits  ', 00H
	ORG $+1
$SG175388 DB	'I', 00H
	ORG $+2
$SG172040 DB	'DISP0 : PER/PPF Pending - Taking exit #16', 00H
	ORG $+2
$SG175392 DB	'I', 00H
	ORG $+2
$SG172042 DB	'HHC90000%s DBG: %s', 0aH, 00H
$SG175442 DB	'On', 00H
	ORG $+1
$SG172043 DB	's370_ecpsvm_dispatch_main', 00H
	ORG $+2
$SG175443 DB	'Off', 00H
$SG172044 DB	'ecpsvm.c', 00H
	ORG $+3
$SG175445 DB	' ', 00H
	ORG $+2
$SG172049 DB	'DISP0 : Checking for EXT; Base VMPXINT=%8.8X', 00H
	ORG $+3
$SG172052 DB	'HHC90000%s DBG: %s', 0aH, 00H
$SG175446 DB	'I', 00H
	ORG $+2
$SG172053 DB	's370_ecpsvm_dispatch_main', 00H
	ORG $+2
$SG175452 DB	'I', 00H
	ORG $+2
$SG172054 DB	'ecpsvm.c', 00H
	ORG $+3
$SG175458 DB	'I', 00H
	ORG $+2
$SG172057 DB	'DISP0 : VPSW HI = %8.8X', 00H
$SG172060 DB	'HHC90000%s DBG: %s', 0aH, 00H
$SG175464 DB	'I', 00H
	ORG $+2
$SG172061 DB	's370_ecpsvm_dispatch_main', 00H
	ORG $+2
$SG175463 DB	'Debug ', 00H
	ORG $+1
$SG175497 DB	'On', 00H
	ORG $+1
$SG172062 DB	'ecpsvm.c', 00H
	ORG $+3
$SG175498 DB	'Off', 00H
$SG172065 DB	'DISP0 : PSW Enabled for EXT', 00H
$SG175503 DB	'I', 00H
	ORG $+2
$SG172067 DB	'HHC90000%s DBG: %s', 0aH, 00H
$SG175508 DB	'ALL', 00H
$SG172068 DB	's370_ecpsvm_dispatch_main', 00H
	ORG $+2
$SG175512 DB	'VMA', 00H
$SG172069 DB	'ecpsvm.c', 00H
	ORG $+3
$SG175515 DB	'CPA', 00H
$SG172072 DB	'DISP0 : CR0 = %8.8X', 00H
$SG175521 DB	'I', 00H
	ORG $+2
$SG172075 DB	'HHC90000%s DBG: %s', 0aH, 00H
$SG175527 DB	'I', 00H
	ORG $+2
$SG172076 DB	's370_ecpsvm_dispatch_main', 00H
	ORG $+2
$SG175526 DB	'Debug ', 00H
	ORG $+1
$SG175531 DB	'I', 00H
	ORG $+2
$SG172077 DB	'ecpsvm.c', 00H
	ORG $+3
$SG175566 DB	'I', 00H
	ORG $+2
$SG172079 DB	'DISP0 : XINTMASK =  %4.4X', 0aH, 00H
	ORG $+1
$SG175571 DB	'I', 00H
	ORG $+2
$SG172082 DB	'HHC90000%s DBG: %s', 0aH, 00H
$SG175576 DB	'I', 00H
	ORG $+2
$SG172083 DB	's370_ecpsvm_dispatch_main', 00H
	ORG $+2
$SG175581 DB	'W', 00H
	ORG $+2
$SG172084 DB	'ecpsvm.c', 00H
	ORG $+3
$SG175585 DB	'I', 00H
	ORG $+2
$SG172087 DB	'DISP0 : EXT Hit - Taking exit #20', 00H
	ORG $+2
$SG175626 DB	'I', 00H
	ORG $+2
$SG172089 DB	'HHC90000%s DBG: %s', 0aH, 00H
$SG175639 DB	'E', 00H
	ORG $+2
$SG172090 DB	's370_ecpsvm_dispatch_main', 00H
	ORG $+2
$SG175643 DB	'I', 00H
	ORG $+2
$SG172091 DB	'ecpsvm.c', 00H
	ORG $+3
$SG175668 DB	'I', 00H
	ORG $+2
$SG172096 DB	'DISP0 : Checking for I/O; VMIOINT=%8.8X', 00H
$SG172099 DB	'HHC90000%s DBG: %s', 0aH, 00H
$SG175673 DB	'E', 00H
	ORG $+2
$SG172100 DB	's370_ecpsvm_dispatch_main', 00H
	ORG $+2
$SG175678 DB	'E', 00H
	ORG $+2
$SG172101 DB	'ecpsvm.c', 00H
	ORG $+3
$SG175682 DB	'I', 00H
	ORG $+2
$SG172112 DB	'DISP0 : I/O Hit - Taking exit #24', 00H
	ORG $+6
$SG172114 DB	'HHC90000%s DBG: %s', 0aH, 00H
	ORG $+4
$SG172115 DB	's370_ecpsvm_dispatch_main', 00H
	ORG $+6
$SG172116 DB	'ecpsvm.c', 00H
	ORG $+7
$SG172122 DB	'DISP0 : VWAIT - Taking exit #28', 00H
$SG172124 DB	'HHC90000%s DBG: %s', 0aH, 00H
	ORG $+4
$SG172125 DB	's370_ecpsvm_dispatch_main', 00H
	ORG $+6
$SG172126 DB	'ecpsvm.c', 00H
	ORG $+7
$SG172131 DB	'DISP0 : DISPATCH - Taking exit #0', 00H
	ORG $+6
$SG172133 DB	'HHC90000%s DBG: %s', 0aH, 00H
	ORG $+4
$SG172134 DB	's370_ecpsvm_dispatch_main', 00H
	ORG $+6
$SG172135 DB	'ecpsvm.c', 00H
	ORG $+7
$SG172185 DB	'CPASSTS SCNRU ECPS:VM Disabled in configuration', 00H
$SG172187 DB	'HHC90000%s DBG: %s', 0aH, 00H
	ORG $+4
$SG172188 DB	's370_ecpsvm_locate_rblock', 00H
	ORG $+6
$SG172189 DB	'ecpsvm.c', 00H
	ORG $+7
$SG172193 DB	'CPASSTS SCNRU Disabled by command', 00H
	ORG $+6
$SG172195 DB	'HHC90000%s DBG: %s', 0aH, 00H
	ORG $+4
$SG172196 DB	's370_ecpsvm_locate_rblock', 00H
	ORG $+6
$SG172197 DB	'ecpsvm.c', 00H
	ORG $+7
$SG172200 DB	'SCNRU called', 00H
	ORG $+3
$SG172202 DB	'HHC90000%s DBG: %s', 0aH, 00H
	ORG $+4
$SG172203 DB	's370_ecpsvm_locate_rblock', 00H
	ORG $+6
$SG172204 DB	'ecpsvm.c', 00H
	ORG $+7
$SG172206 DB	'ECPS:VM SCNRU called; RDEV=%4.4X ARIOCT=%6.6X', 00H
	ORG $+2
$SG172209 DB	'HHC90000%s DBG: %s', 0aH, 00H
	ORG $+4
$SG172210 DB	's370_ecpsvm_locate_rblock', 00H
	ORG $+6
$SG172211 DB	'ecpsvm.c', 00H
	ORG $+7
$SG172213 DB	'ECPS:VM SCNRU : RCH IX = %x', 00H
	ORG $+4
$SG172216 DB	'HHC90000%s DBG: %s', 0aH, 00H
	ORG $+4
$SG172217 DB	's370_ecpsvm_locate_rblock', 00H
	ORG $+6
$SG172218 DB	'ecpsvm.c', 00H
	ORG $+7
$SG172223 DB	'ECPS:VM SCNRU : RCU IX = %x', 00H
	ORG $+4
$SG172226 DB	'HHC90000%s DBG: %s', 0aH, 00H
	ORG $+4
$SG172227 DB	's370_ecpsvm_locate_rblock', 00H
	ORG $+6
$SG172228 DB	'ecpsvm.c', 00H
	ORG $+7
$SG172232 DB	'ECPS:VM SCNRU : RDV IX = %x', 00H
	ORG $+4
$SG172235 DB	'HHC90000%s DBG: %s', 0aH, 00H
	ORG $+4
$SG172236 DB	's370_ecpsvm_locate_rblock', 00H
	ORG $+6
$SG172237 DB	'ecpsvm.c', 00H
	ORG $+7
$SG172239 DB	'ECPS:VM SCNRU : RCH = %6.6X, RCU = %6.6X, RDV = %6.6X', 00H
	ORG $+2
$SG172242 DB	'HHC90000%s DBG: %s', 0aH, 00H
	ORG $+4
$SG172243 DB	's370_ecpsvm_locate_rblock', 00H
	ORG $+6
$SG172244 DB	'ecpsvm.c', 00H
	ORG $+7
$SG172427 DB	'CPASSTS CCWGN ECPS:VM Disabled in configuration', 00H
$SG172429 DB	'HHC90000%s DBG: %s', 0aH, 00H
	ORG $+4
$SG172430 DB	's370_ecpsvm_comm_ccwproc', 00H
	ORG $+7
$SG172431 DB	'ecpsvm.c', 00H
	ORG $+7
$SG172435 DB	'CPASSTS CCWGN Disabled by command', 00H
	ORG $+6
$SG172437 DB	'HHC90000%s DBG: %s', 0aH, 00H
	ORG $+4
$SG172438 DB	's370_ecpsvm_comm_ccwproc', 00H
	ORG $+7
$SG172439 DB	'ecpsvm.c', 00H
	ORG $+7
$SG172442 DB	'CCWGN called', 00H
	ORG $+3
$SG172444 DB	'HHC90000%s DBG: %s', 0aH, 00H
	ORG $+4
$SG172445 DB	's370_ecpsvm_comm_ccwproc', 00H
	ORG $+7
$SG172446 DB	'ecpsvm.c', 00H
	ORG $+7
$SG172449 DB	'CCWGN - Exit DWDIDAL', 00H
	ORG $+3
$SG172451 DB	'HHC90000%s DBG: %s', 0aH, 00H
	ORG $+4
$SG172452 DB	's370_ecpsvm_comm_ccwproc', 00H
	ORG $+7
$SG172453 DB	'ecpsvm.c', 00H
	ORG $+7
$SG172459 DB	'CCWGN - Exit CCWMANYF', 00H
	ORG $+2
$SG172461 DB	'HHC90000%s DBG: %s', 0aH, 00H
	ORG $+4
$SG172462 DB	's370_ecpsvm_comm_ccwproc', 00H
	ORG $+7
$SG172463 DB	'ecpsvm.c', 00H
	ORG $+7
$SG172470 DB	'CCWGN - Cant bring in the page; back to CP', 00H
	ORG $+5
$SG172472 DB	'HHC90000%s DBG: %s', 0aH, 00H
	ORG $+4
$SG172473 DB	's370_ecpsvm_comm_ccwproc', 00H
	ORG $+7
$SG172474 DB	'ecpsvm.c', 00H
	ORG $+7
$SG172478 DB	'CCWGN - Exit SHRDPAGE', 00H
	ORG $+2
$SG172480 DB	'HHC90000%s DBG: %s', 0aH, 00H
	ORG $+4
$SG172481 DB	's370_ecpsvm_comm_ccwproc', 00H
	ORG $+7
$SG172482 DB	'ecpsvm.c', 00H
	ORG $+7
$SG172489 DB	'CCWGN - Exit CCWNXT10', 00H
	ORG $+2
$SG172491 DB	'HHC90000%s DBG: %s', 0aH, 00H
	ORG $+4
$SG172492 DB	's370_ecpsvm_comm_ccwproc', 00H
	ORG $+7
$SG172493 DB	'ecpsvm.c', 00H
	ORG $+7
$SG172499 DB	'CCWGN - Exit CCWNXT12', 00H
	ORG $+2
$SG172501 DB	'HHC90000%s DBG: %s', 0aH, 00H
	ORG $+4
$SG172502 DB	's370_ecpsvm_comm_ccwproc', 00H
	ORG $+7
$SG172503 DB	'ecpsvm.c', 00H
	ORG $+7
$SG172509 DB	'CCWGN - Exit CCWNEXT', 00H
	ORG $+3
$SG172511 DB	'HHC90000%s DBG: %s', 0aH, 00H
	ORG $+4
$SG172512 DB	's370_ecpsvm_comm_ccwproc', 00H
	ORG $+7
$SG172513 DB	'ecpsvm.c', 00H
	ORG $+7
$SG172519 DB	'CCWGN - Exit CCWNEXT(2)', 00H
$SG172521 DB	'HHC90000%s DBG: %s', 0aH, 00H
	ORG $+4
$SG172522 DB	's370_ecpsvm_comm_ccwproc', 00H
	ORG $+7
$SG172523 DB	'ecpsvm.c', 00H
	ORG $+7
$SG172529 DB	'CCWGN - Exit CCWNEWV2', 00H
	ORG $+2
$SG172531 DB	'HHC90000%s DBG: %s', 0aH, 00H
	ORG $+4
$SG172532 DB	's370_ecpsvm_comm_ccwproc', 00H
	ORG $+7
$SG172533 DB	'ecpsvm.c', 00H
	ORG $+7
$SG172539 DB	'CCWGN - Exit TICSCAN', 00H
	ORG $+3
$SG172541 DB	'HHC90000%s DBG: %s', 0aH, 00H
	ORG $+4
$SG172542 DB	's370_ecpsvm_comm_ccwproc', 00H
	ORG $+7
$SG172543 DB	'ecpsvm.c', 00H
	ORG $+7
$SG172549 DB	'CCWGN - Exit CCWDIAL', 00H
	ORG $+3
$SG172551 DB	'HHC90000%s DBG: %s', 0aH, 00H
	ORG $+4
$SG172552 DB	's370_ecpsvm_comm_ccwproc', 00H
	ORG $+7
$SG172553 DB	'ecpsvm.c', 00H
	ORG $+7
$SG172560 DB	'CCWGN - Exit CCWEXIT', 00H
	ORG $+3
$SG172562 DB	'HHC90000%s DBG: %s', 0aH, 00H
	ORG $+4
$SG172563 DB	's370_ecpsvm_comm_ccwproc', 00H
	ORG $+7
$SG172564 DB	'ecpsvm.c', 00H
	ORG $+7
$SG172570 DB	'CCWGN - Exit CCWDIAL(2)', 00H
$SG172572 DB	'HHC90000%s DBG: %s', 0aH, 00H
	ORG $+4
$SG172573 DB	's370_ecpsvm_comm_ccwproc', 00H
	ORG $+7
$SG172574 DB	'ecpsvm.c', 00H
	ORG $+7
$SG172580 DB	'CCWGN - Exit CCWEXIT(2)', 00H
$SG172582 DB	'HHC90000%s DBG: %s', 0aH, 00H
	ORG $+4
$SG172583 DB	's370_ecpsvm_comm_ccwproc', 00H
	ORG $+7
$SG172584 DB	'ecpsvm.c', 00H
	ORG $+7
$SG172590 DB	'CCWGN - Exit ITSAREL', 00H
	ORG $+3
$SG172592 DB	'HHC90000%s DBG: %s', 0aH, 00H
	ORG $+4
$SG172593 DB	's370_ecpsvm_comm_ccwproc', 00H
	ORG $+7
$SG172594 DB	'ecpsvm.c', 00H
	ORG $+7
$SG172601 DB	'CCWGN - Exit CALLISM', 00H
	ORG $+3
$SG172603 DB	'HHC90000%s DBG: %s', 0aH, 00H
	ORG $+4
$SG172604 DB	's370_ecpsvm_comm_ccwproc', 00H
	ORG $+7
$SG172605 DB	'ecpsvm.c', 00H
	ORG $+7
$SG172611 DB	'CCWGN - Exit CALLISM(2)', 00H
$SG172613 DB	'HHC90000%s DBG: %s', 0aH, 00H
	ORG $+4
$SG172614 DB	's370_ecpsvm_comm_ccwproc', 00H
	ORG $+7
$SG172615 DB	'ecpsvm.c', 00H
	ORG $+7
$SG172669 DB	'CPASSTS UXCCW ECPS:VM Disabled in configuration', 00H
$SG172671 DB	'HHC90000%s DBG: %s', 0aH, 00H
	ORG $+4
$SG172672 DB	's370_ecpsvm_unxlate_ccw', 00H
$SG172673 DB	'ecpsvm.c', 00H
	ORG $+7
$SG172677 DB	'CPASSTS UXCCW Disabled by command', 00H
	ORG $+6
$SG172679 DB	'HHC90000%s DBG: %s', 0aH, 00H
	ORG $+4
$SG172680 DB	's370_ecpsvm_unxlate_ccw', 00H
$SG172681 DB	'ecpsvm.c', 00H
	ORG $+7
$SG172684 DB	'UXCCW called', 00H
	ORG $+3
$SG172686 DB	'HHC90000%s DBG: %s', 0aH, 00H
	ORG $+4
$SG172687 DB	's370_ecpsvm_unxlate_ccw', 00H
$SG172688 DB	'ecpsvm.c', 00H
	ORG $+7
$SG172724 DB	'CPASSTS DISP2 ECPS:VM Disabled in configuration', 00H
$SG172726 DB	'HHC90000%s DBG: %s', 0aH, 00H
	ORG $+4
$SG172727 DB	's370_ecpsvm_disp2', 00H
	ORG $+6
$SG172728 DB	'ecpsvm.c', 00H
	ORG $+7
$SG172732 DB	'CPASSTS DISP2 Disabled by command', 00H
	ORG $+6
$SG172734 DB	'HHC90000%s DBG: %s', 0aH, 00H
	ORG $+4
$SG172735 DB	's370_ecpsvm_disp2', 00H
	ORG $+6
$SG172736 DB	'ecpsvm.c', 00H
	ORG $+7
$SG172739 DB	'DISP2 called', 00H
	ORG $+3
$SG172741 DB	'HHC90000%s DBG: %s', 0aH, 00H
	ORG $+4
$SG172742 DB	's370_ecpsvm_disp2', 00H
	ORG $+6
$SG172743 DB	'ecpsvm.c', 00H
	ORG $+7
$SG172801 DB	'CPASSTS STEVL ECPS:VM Disabled in configuration', 00H
$SG172803 DB	'HHC90000%s DBG: %s', 0aH, 00H
	ORG $+4
$SG172804 DB	's370_ecpsvm_store_level', 00H
$SG172805 DB	'ecpsvm.c', 00H
	ORG $+7
$SG172809 DB	'CPASSTS STEVL Disabled by command', 00H
	ORG $+6
$SG172811 DB	'HHC90000%s DBG: %s', 0aH, 00H
	ORG $+4
$SG172812 DB	's370_ecpsvm_store_level', 00H
$SG172813 DB	'ecpsvm.c', 00H
	ORG $+7
$SG172816 DB	'STEVL called', 00H
	ORG $+3
$SG172818 DB	'HHC90000%s DBG: %s', 0aH, 00H
	ORG $+4
$SG172819 DB	's370_ecpsvm_store_level', 00H
$SG172820 DB	'ecpsvm.c', 00H
	ORG $+7
$SG172822 DB	'ECPS:VM STORE LEVEL %d called', 00H
	ORG $+2
$SG172825 DB	'HHC90000%s DBG: %s', 0aH, 00H
	ORG $+4
$SG172826 DB	's370_ecpsvm_store_level', 00H
$SG172827 DB	'ecpsvm.c', 00H
	ORG $+7
$SG172843 DB	'HHC90000%s DBG: %s', 0aH, 00H
	ORG $+4
$SG172841 DB	'CP FREE/FRET trap detected; assist operational with trap'
	DB	' in effect', 00H
	ORG $+5
$SG172844 DB	's370_ecpsvm_store_level', 00H
$SG172845 DB	'ecpsvm.c', 00H
	ORG $+7
$SG172904 DB	'CPASSTS LCSPG ECPS:VM Disabled in configuration', 00H
$SG172906 DB	'HHC90000%s DBG: %s', 0aH, 00H
	ORG $+4
$SG172907 DB	's370_ecpsvm_loc_chgshrpg', 00H
	ORG $+7
$SG172908 DB	'ecpsvm.c', 00H
	ORG $+7
$SG172912 DB	'CPASSTS LCSPG Disabled by command', 00H
	ORG $+6
$SG172914 DB	'HHC90000%s DBG: %s', 0aH, 00H
	ORG $+4
$SG172915 DB	's370_ecpsvm_loc_chgshrpg', 00H
	ORG $+7
$SG172916 DB	'ecpsvm.c', 00H
	ORG $+7
$SG172919 DB	'LCSPG called', 00H
	ORG $+3
$SG172921 DB	'HHC90000%s DBG: %s', 0aH, 00H
	ORG $+4
$SG172922 DB	's370_ecpsvm_loc_chgshrpg', 00H
	ORG $+7
$SG172923 DB	'ecpsvm.c', 00H
	ORG $+7
$SG172976 DB	'CPASSTS FREEX ECPS:VM Disabled in configuration', 00H
$SG172978 DB	'HHC90000%s DBG: %s', 0aH, 00H
	ORG $+4
$SG172979 DB	's370_ecpsvm_extended_freex', 00H
	ORG $+5
$SG172980 DB	'ecpsvm.c', 00H
	ORG $+7
$SG172984 DB	'CPASSTS FREEX Disabled by command', 00H
	ORG $+6
$SG172986 DB	'HHC90000%s DBG: %s', 0aH, 00H
	ORG $+4
$SG172987 DB	's370_ecpsvm_extended_freex', 00H
	ORG $+5
$SG172988 DB	'ecpsvm.c', 00H
	ORG $+7
$SG172991 DB	'FREEX called', 00H
	ORG $+3
$SG172993 DB	'HHC90000%s DBG: %s', 0aH, 00H
	ORG $+4
$SG172994 DB	's370_ecpsvm_extended_freex', 00H
	ORG $+5
$SG172995 DB	'ecpsvm.c', 00H
	ORG $+7
$SG172997 DB	'ECPS:VM FREEX DW = %4.4X', 00H
	ORG $+7
$SG173000 DB	'HHC90000%s DBG: %s', 0aH, 00H
	ORG $+4
$SG173001 DB	's370_ecpsvm_extended_freex', 00H
	ORG $+5
$SG173002 DB	'ecpsvm.c', 00H
	ORG $+7
$SG173005 DB	'MAXSIZE ADDR = %6.6X, SUBPOOL INDEX TABLE = %6.6X', 00H
	ORG $+6
$SG173008 DB	'HHC90000%s DBG: %s', 0aH, 00H
	ORG $+4
$SG173009 DB	's370_ecpsvm_extended_freex', 00H
	ORG $+5
$SG173010 DB	'ecpsvm.c', 00H
	ORG $+7
$SG173014 DB	'FREEX request beyond subpool capacity', 00H
	ORG $+2
$SG173016 DB	'HHC90000%s DBG: %s', 0aH, 00H
	ORG $+4
$SG173017 DB	's370_ecpsvm_extended_freex', 00H
	ORG $+5
$SG173018 DB	'ecpsvm.c', 00H
	ORG $+7
$SG173020 DB	'Subpool index = %X', 00H
	ORG $+5
$SG173023 DB	'HHC90000%s DBG: %s', 0aH, 00H
	ORG $+4
$SG173024 DB	's370_ecpsvm_extended_freex', 00H
	ORG $+5
$SG173025 DB	'ecpsvm.c', 00H
	ORG $+7
$SG173027 DB	'Value in subpool table = %6.6X', 00H
	ORG $+1
$SG173030 DB	'HHC90000%s DBG: %s', 0aH, 00H
	ORG $+4
$SG173031 DB	's370_ecpsvm_extended_freex', 00H
	ORG $+5
$SG173032 DB	'ecpsvm.c', 00H
	ORG $+7
$SG173037 DB	'New Value in subpool table = %6.6X', 00H
	ORG $+5
$SG173040 DB	'HHC90000%s DBG: %s', 0aH, 00H
	ORG $+4
$SG173041 DB	's370_ecpsvm_extended_freex', 00H
	ORG $+5
$SG173042 DB	'ecpsvm.c', 00H
	ORG $+7
$SG173067 DB	'X fretx called AREA=%6.6X, DW=%4.4X', 00H
	ORG $+4
$SG173070 DB	'HHC90000%s DBG: %s', 0aH, 00H
	ORG $+4
$SG173071 DB	'ecpsvm_do_fretx', 00H
$SG173072 DB	'ecpsvm.c', 00H
	ORG $+7
$SG173075 DB	'ECPS:VM Cannot FRETX : DWORDS = 0', 00H
	ORG $+6
$SG173077 DB	'HHC90000%s DBG: %s', 0aH, 00H
	ORG $+4
$SG173078 DB	'ecpsvm_do_fretx', 00H
$SG173079 DB	'ecpsvm.c', 00H
	ORG $+7
$SG173083 DB	'ECPS:VM Cannot FRETX : DWORDS = %d > MAXDW %d', 00H
	ORG $+2
$SG173086 DB	'HHC90000%s DBG: %s', 0aH, 00H
	ORG $+4
$SG173087 DB	'ecpsvm_do_fretx', 00H
$SG173088 DB	'ecpsvm.c', 00H
	ORG $+7
$SG173091 DB	'ECPS:VM Cannot FRETX : Area not in Core Free area', 00H
	ORG $+6
$SG173093 DB	'HHC90000%s DBG: %s', 0aH, 00H
	ORG $+4
$SG173094 DB	'ecpsvm_do_fretx', 00H
$SG173095 DB	'ecpsvm.c', 00H
	ORG $+7
$SG173098 DB	'ECPS:VM Cannot FRETX : Area flag != 0x02', 00H
	ORG $+7
$SG173100 DB	'HHC90000%s DBG: %s', 0aH, 00H
	ORG $+4
$SG173101 DB	'ecpsvm_do_fretx', 00H
$SG173102 DB	'ecpsvm.c', 00H
	ORG $+7
$SG173105 DB	'ECPS:VM Cannot FRETX : fretted block already on subpool '
	DB	'chain', 00H
	ORG $+2
$SG173107 DB	'HHC90000%s DBG: %s', 0aH, 00H
	ORG $+4
$SG173108 DB	'ecpsvm_do_fretx', 00H
$SG173109 DB	'ecpsvm.c', 00H
	ORG $+7
$SG173150 DB	'CPASSTS FRETX ECPS:VM Disabled in configuration', 00H
$SG173152 DB	'HHC90000%s DBG: %s', 0aH, 00H
	ORG $+4
$SG173153 DB	's370_ecpsvm_extended_fretx', 00H
	ORG $+5
$SG173154 DB	'ecpsvm.c', 00H
	ORG $+7
$SG173158 DB	'CPASSTS FRETX Disabled by command', 00H
	ORG $+6
$SG173160 DB	'HHC90000%s DBG: %s', 0aH, 00H
	ORG $+4
$SG173161 DB	's370_ecpsvm_extended_fretx', 00H
	ORG $+5
$SG173162 DB	'ecpsvm.c', 00H
	ORG $+7
$SG173165 DB	'FRETX called', 00H
	ORG $+3
$SG173167 DB	'HHC90000%s DBG: %s', 0aH, 00H
	ORG $+4
$SG173168 DB	's370_ecpsvm_extended_fretx', 00H
	ORG $+5
$SG173169 DB	'ecpsvm.c', 00H
	ORG $+7
$SG173199 DB	'CPASSTS PMASS ECPS:VM Disabled in configuration', 00H
$SG173201 DB	'HHC90000%s DBG: %s', 0aH, 00H
	ORG $+4
$SG173202 DB	's370_ecpsvm_prefmach_assist', 00H
	ORG $+4
$SG173203 DB	'ecpsvm.c', 00H
	ORG $+7
$SG173207 DB	'CPASSTS PMASS Disabled by command', 00H
	ORG $+6
$SG173209 DB	'HHC90000%s DBG: %s', 0aH, 00H
	ORG $+4
$SG173210 DB	's370_ecpsvm_prefmach_assist', 00H
	ORG $+4
$SG173211 DB	'ecpsvm.c', 00H
	ORG $+7
$SG173214 DB	'PMASS called', 00H
	ORG $+3
$SG173216 DB	'HHC90000%s DBG: %s', 0aH, 00H
	ORG $+4
$SG173217 DB	's370_ecpsvm_prefmach_assist', 00H
	ORG $+4
$SG173218 DB	'ecpsvm.c', 00H
	ORG $+7
$SG173261 DB	'New and Old PSW have a EC/BC transition', 00H
$SG173263 DB	'HHC90000%s DBG: %s', 0aH, 00H
	ORG $+4
$SG173264 DB	'ecpsvm_check_pswtrans', 00H
	ORG $+2
$SG173265 DB	'ecpsvm.c', 00H
	ORG $+7
$SG173269 DB	'New PSW Enables DAT or PER', 00H
	ORG $+5
$SG173271 DB	'HHC90000%s DBG: %s', 0aH, 00H
	ORG $+4
$SG173272 DB	'ecpsvm_check_pswtrans', 00H
	ORG $+2
$SG173273 DB	'ecpsvm.c', 00H
	ORG $+7
$SG173279 DB	'New PSW Enables interrupts and MICPEND (EC)', 00H
	ORG $+4
$SG173281 DB	'HHC90000%s DBG: %s', 0aH, 00H
	ORG $+4
$SG173282 DB	'ecpsvm_check_pswtrans', 00H
	ORG $+2
$SG173283 DB	'ecpsvm.c', 00H
	ORG $+7
$SG173286 DB	'New PSW Enables interrupts and MICPEND (BC)', 00H
	ORG $+4
$SG173288 DB	'HHC90000%s DBG: %s', 0aH, 00H
	ORG $+4
$SG173289 DB	'ecpsvm_check_pswtrans', 00H
	ORG $+2
$SG173290 DB	'ecpsvm.c', 00H
	ORG $+7
$SG173293 DB	'New PSW is a WAIT PSW', 00H
	ORG $+2
$SG173295 DB	'HHC90000%s DBG: %s', 0aH, 00H
	ORG $+4
$SG173296 DB	'ecpsvm_check_pswtrans', 00H
	ORG $+2
$SG173297 DB	'ecpsvm.c', 00H
	ORG $+7
$SG173301 DB	'New PSW sysmask incorrect', 00H
	ORG $+6
$SG173303 DB	'HHC90000%s DBG: %s', 0aH, 00H
	ORG $+4
$SG173304 DB	'ecpsvm_check_pswtrans', 00H
	ORG $+2
$SG173305 DB	'ecpsvm.c', 00H
	ORG $+7
$SG173308 DB	'New PSW has ODD IA', 00H
	ORG $+5
$SG173310 DB	'HHC90000%s DBG: %s', 0aH, 00H
	ORG $+4
$SG173311 DB	'ecpsvm_check_pswtrans', 00H
	ORG $+2
$SG173312 DB	'ecpsvm.c', 00H
	ORG $+7
$SG173376 DB	'SASSIST SSM ECPS:VM Disabled in configuration', 00H
	ORG $+2
$SG173378 DB	'HHC90000%s DBG: %s', 0aH, 00H
	ORG $+4
$SG173379 DB	'ecpsvm_dossm', 00H
	ORG $+3
$SG173380 DB	'ecpsvm.c', 00H
	ORG $+7
$SG173383 DB	'SASSIST SSM ECPS:VM Disabled by command', 00H
$SG173385 DB	'HHC90000%s DBG: %s', 0aH, 00H
	ORG $+4
$SG173386 DB	'ecpsvm_dossm', 00H
	ORG $+3
$SG173387 DB	'ecpsvm.c', 00H
	ORG $+7
$SG173390 DB	'EVMA Disabled by guest', 00H
	ORG $+1
$SG173392 DB	'HHC90000%s DBG: %s', 0aH, 00H
	ORG $+4
$SG173393 DB	'ecpsvm_dossm', 00H
	ORG $+3
$SG173394 DB	'ecpsvm.c', 00H
	ORG $+7
$SG173397 DB	'SASSIST SSM reject : Virtual problem state', 00H
	ORG $+5
$SG173399 DB	'HHC90000%s DBG: %s', 0aH, 00H
	ORG $+4
$SG173400 DB	'ecpsvm_dossm', 00H
	ORG $+3
$SG173401 DB	'ecpsvm.c', 00H
	ORG $+7
$SG173404 DB	'SASSIST SSM VPSWA= %8.8X Virtual', 00H
	ORG $+7
$SG173407 DB	'HHC90000%s DBG: %s', 0aH, 00H
	ORG $+4
$SG173408 DB	'ecpsvm_dossm', 00H
	ORG $+3
$SG173409 DB	'ecpsvm.c', 00H
	ORG $+7
$SG173411 DB	'SASSIST SSM CR6= %8.8X', 00H
	ORG $+1
$SG173414 DB	'HHC90000%s DBG: %s', 0aH, 00H
	ORG $+4
$SG173415 DB	'ecpsvm_dossm', 00H
	ORG $+3
$SG173416 DB	'ecpsvm.c', 00H
	ORG $+7
$SG173418 DB	'SASSIST SSM MICVTMR= %8.8X', 00H
	ORG $+5
$SG173421 DB	'HHC90000%s DBG: %s', 0aH, 00H
	ORG $+4
$SG173422 DB	'ecpsvm_dossm', 00H
	ORG $+3
$SG173423 DB	'ecpsvm.c', 00H
	ORG $+7
$SG173425 DB	'SASSIST SSM Real PSW=', 00H
	ORG $+2
$SG173432 DB	'HHC90000%s DBG: %s', 0aH, 00H
	ORG $+4
$SG173433 DB	'ecpsvm_dossm', 00H
	ORG $+3
$SG173434 DB	'ecpsvm.c', 00H
	ORG $+7
$SG173437 DB	'SASSIST SSM reject : V SSM Suppr', 00H
	ORG $+7
$SG173439 DB	'HHC90000%s DBG: %s', 0aH, 00H
	ORG $+4
$SG173440 DB	'ecpsvm_dossm', 00H
	ORG $+3
$SG173441 DB	'ecpsvm.c', 00H
	ORG $+7
$SG173445 DB	'SASSIST SSM Reject : New PSW too complex', 00H
	ORG $+7
$SG173447 DB	'HHC90000%s DBG: %s', 0aH, 00H
	ORG $+4
$SG173448 DB	'ecpsvm_dossm', 00H
	ORG $+3
$SG173449 DB	'ecpsvm.c', 00H
	ORG $+7
$SG173455 DB	'SASSIST SSM Complete : new SM = %2.2X', 00H
	ORG $+2
$SG173458 DB	'HHC90000%s DBG: %s', 0aH, 00H
	ORG $+4
$SG173459 DB	'ecpsvm_dossm', 00H
	ORG $+3
$SG173460 DB	'ecpsvm.c', 00H
	ORG $+7
$SG173462 DB	'SASSIST SSM New VIRT ', 00H
	ORG $+2
$SG173466 DB	'HHC90000%s DBG: %s', 0aH, 00H
	ORG $+4
$SG173467 DB	'ecpsvm_dossm', 00H
	ORG $+3
$SG173468 DB	'ecpsvm.c', 00H
	ORG $+7
$SG173470 DB	'SASSIST SSM New REAL ', 00H
	ORG $+2
$SG173474 DB	'HHC90000%s DBG: %s', 0aH, 00H
	ORG $+4
$SG173475 DB	'ecpsvm_dossm', 00H
	ORG $+3
$SG173476 DB	'ecpsvm.c', 00H
	ORG $+7
$SG173501 DB	'CPASSTS LINK ECPS:VM Disabled in configuration', 00H
	ORG $+1
$SG173503 DB	'HHC90000%s DBG: %s', 0aH, 00H
	ORG $+4
$SG173504 DB	'ecpsvm_doCPlink', 00H
$SG173505 DB	'ecpsvm.c', 00H
	ORG $+7
$SG173508 DB	'CPASSTS LINK Disabled by command', 00H
	ORG $+7
$SG173510 DB	'HHC90000%s DBG: %s', 0aH, 00H
	ORG $+4
$SG173511 DB	'ecpsvm_doCPlink', 00H
$SG173512 DB	'ecpsvm.c', 00H
	ORG $+7
$SG173515 DB	'LINK called', 00H
	ORG $+4
$SG173517 DB	'HHC90000%s DBG: %s', 0aH, 00H
	ORG $+4
$SG173518 DB	'ecpsvm_doCPlink', 00H
$SG173519 DB	'ecpsvm.c', 00H
	ORG $+7
$SG173548 DB	'CPASSTS RETRN ECPS:VM Disabled in configuration', 00H
$SG173550 DB	'HHC90000%s DBG: %s', 0aH, 00H
	ORG $+4
$SG173551 DB	'ecpsvm_doCPretrn', 00H
	ORG $+7
$SG173552 DB	'ecpsvm.c', 00H
	ORG $+7
$SG173555 DB	'CPASSTS RETRN Disabled by command', 00H
	ORG $+6
$SG173557 DB	'HHC90000%s DBG: %s', 0aH, 00H
	ORG $+4
$SG173558 DB	'ecpsvm_doCPretrn', 00H
	ORG $+7
$SG173559 DB	'ecpsvm.c', 00H
	ORG $+7
$SG173562 DB	'RETRN called', 00H
	ORG $+3
$SG173564 DB	'HHC90000%s DBG: %s', 0aH, 00H
	ORG $+4
$SG173565 DB	'ecpsvm_doCPretrn', 00H
	ORG $+7
$SG173566 DB	'ecpsvm.c', 00H
	ORG $+7
$SG173569 DB	'RETRN reject : module not in nucleus', 00H
	ORG $+3
$SG173571 DB	'HHC90000%s DBG: %s', 0aH, 00H
	ORG $+4
$SG173572 DB	'ecpsvm_doCPretrn', 00H
	ORG $+7
$SG173573 DB	'ecpsvm.c', 00H
	ORG $+7
$SG173576 DB	'RETRN reject : exit from V=R', 00H
	ORG $+3
$SG173578 DB	'HHC90000%s DBG: %s', 0aH, 00H
	ORG $+4
$SG173579 DB	'ecpsvm_doCPretrn', 00H
	ORG $+7
$SG173580 DB	'ecpsvm.c', 00H
	ORG $+7
$SG173584 DB	'RETRN reject : savearea in paging area', 00H
	ORG $+1
$SG173586 DB	'HHC90000%s DBG: %s', 0aH, 00H
	ORG $+4
$SG173587 DB	'ecpsvm_doCPretrn', 00H
	ORG $+7
$SG173588 DB	'ecpsvm.c', 00H
	ORG $+7
$SG173591 DB	'RETRN reject : savearea in V=R area', 00H
	ORG $+4
$SG173593 DB	'HHC90000%s DBG: %s', 0aH, 00H
	ORG $+4
$SG173594 DB	'ecpsvm_doCPretrn', 00H
	ORG $+7
$SG173595 DB	'ecpsvm.c', 00H
	ORG $+7
$SG173683 DB	'SASSIST SVC ECPS:VM Disabled in configuration', 00H
	ORG $+2
$SG173685 DB	'HHC90000%s DBG: %s', 0aH, 00H
	ORG $+4
$SG173686 DB	'ecpsvm_doassistsvc', 00H
	ORG $+5
$SG173687 DB	'ecpsvm.c', 00H
	ORG $+7
$SG173690 DB	'SASSIST SVC ECPS:VM Disabled by command', 00H
$SG173692 DB	'HHC90000%s DBG: %s', 0aH, 00H
	ORG $+4
$SG173693 DB	'ecpsvm_doassistsvc', 00H
	ORG $+5
$SG173694 DB	'ecpsvm.c', 00H
	ORG $+7
$SG173697 DB	'EVMA Disabled by guest', 00H
	ORG $+1
$SG173699 DB	'HHC90000%s DBG: %s', 0aH, 00H
	ORG $+4
$SG173700 DB	'ecpsvm_doassistsvc', 00H
	ORG $+5
$SG173701 DB	'ecpsvm.c', 00H
	ORG $+7
$SG173704 DB	'SASSIST SVC reject : Virtual problem state', 00H
	ORG $+5
$SG173706 DB	'HHC90000%s DBG: %s', 0aH, 00H
	ORG $+4
$SG173707 DB	'ecpsvm_doassistsvc', 00H
	ORG $+5
$SG173708 DB	'ecpsvm.c', 00H
	ORG $+7
$SG173711 DB	'SASSIST SVC VPSWA= %8.8X Virtual', 00H
	ORG $+7
$SG173714 DB	'HHC90000%s DBG: %s', 0aH, 00H
	ORG $+4
$SG173715 DB	'ecpsvm_doassistsvc', 00H
	ORG $+5
$SG173716 DB	'ecpsvm.c', 00H
	ORG $+7
$SG173718 DB	'SASSIST SVC CR6= %8.8X', 00H
	ORG $+1
$SG173721 DB	'HHC90000%s DBG: %s', 0aH, 00H
	ORG $+4
$SG173722 DB	'ecpsvm_doassistsvc', 00H
	ORG $+5
$SG173723 DB	'ecpsvm.c', 00H
	ORG $+7
$SG173725 DB	'SASSIST SVC MICVTMR= %8.8X', 00H
	ORG $+5
$SG173728 DB	'HHC90000%s DBG: %s', 0aH, 00H
	ORG $+4
$SG173729 DB	'ecpsvm_doassistsvc', 00H
	ORG $+5
$SG173730 DB	'ecpsvm.c', 00H
	ORG $+7
$SG173732 DB	'SASSIST SVC Real PSW=', 00H
	ORG $+2
$SG173739 DB	'HHC90000%s DBG: %s', 0aH, 00H
	ORG $+4
$SG173740 DB	'ecpsvm_doassistsvc', 00H
	ORG $+5
$SG173741 DB	'ecpsvm.c', 00H
	ORG $+7
$SG173744 DB	'SASSIST SVC Reject : SVC 76', 00H
	ORG $+4
$SG173746 DB	'HHC90000%s DBG: %s', 0aH, 00H
	ORG $+4
$SG173747 DB	'ecpsvm_doassistsvc', 00H
	ORG $+5
$SG173748 DB	'ecpsvm.c', 00H
	ORG $+7
$SG173751 DB	'SASSIST SVC NEW VIRT ', 00H
	ORG $+2
$SG173755 DB	'HHC90000%s DBG: %s', 0aH, 00H
	ORG $+4
$SG173756 DB	'ecpsvm_doassistsvc', 00H
	ORG $+5
$SG173757 DB	'ecpsvm.c', 00H
	ORG $+7
$SG173763 DB	'SASSIST SVC OLD VIRT ', 00H
	ORG $+2
$SG173767 DB	'HHC90000%s DBG: %s', 0aH, 00H
	ORG $+4
$SG173768 DB	'ecpsvm_doassistsvc', 00H
	ORG $+5
$SG173769 DB	'ecpsvm.c', 00H
	ORG $+7
$SG173772 DB	'SASSIST SVC Reject : Cannot make transition to new PSW', 00H
	ORG $+1
$SG173774 DB	'HHC90000%s DBG: %s', 0aH, 00H
	ORG $+4
$SG173775 DB	'ecpsvm_doassistsvc', 00H
	ORG $+5
$SG173776 DB	'ecpsvm.c', 00H
	ORG $+7
$SG173783 DB	'SASSIST SVC Done', 00H
	ORG $+7
$SG173785 DB	'HHC90000%s DBG: %s', 0aH, 00H
	ORG $+4
$SG173786 DB	'ecpsvm_doassistsvc', 00H
	ORG $+5
$SG173787 DB	'ecpsvm.c', 00H
	ORG $+7
$SG173796 DB	'SASSIST SVC Reject : SVC Assist Inhibit', 00H
$SG173798 DB	'HHC90000%s DBG: %s', 0aH, 00H
	ORG $+4
$SG173799 DB	'ecpsvm_dosvc', 00H
	ORG $+3
$SG173800 DB	'ecpsvm.c', 00H
	ORG $+7
$SG173867 DB	'SASSIST LPSW ECPS:VM Disabled in configuration', 00H
	ORG $+1
$SG173869 DB	'HHC90000%s DBG: %s', 0aH, 00H
	ORG $+4
$SG173870 DB	'ecpsvm_dolpsw', 00H
	ORG $+2
$SG173871 DB	'ecpsvm.c', 00H
	ORG $+7
$SG173874 DB	'SASSIST LPSW ECPS:VM Disabled by command', 00H
	ORG $+7
$SG173876 DB	'HHC90000%s DBG: %s', 0aH, 00H
	ORG $+4
$SG173877 DB	'ecpsvm_dolpsw', 00H
	ORG $+2
$SG173878 DB	'ecpsvm.c', 00H
	ORG $+7
$SG173881 DB	'EVMA Disabled by guest', 00H
	ORG $+1
$SG173883 DB	'HHC90000%s DBG: %s', 0aH, 00H
	ORG $+4
$SG173884 DB	'ecpsvm_dolpsw', 00H
	ORG $+2
$SG173885 DB	'ecpsvm.c', 00H
	ORG $+7
$SG173888 DB	'SASSIST LPSW reject : Virtual problem state', 00H
	ORG $+4
$SG173890 DB	'HHC90000%s DBG: %s', 0aH, 00H
	ORG $+4
$SG173891 DB	'ecpsvm_dolpsw', 00H
	ORG $+2
$SG173892 DB	'ecpsvm.c', 00H
	ORG $+7
$SG173895 DB	'SASSIST LPSW VPSWA= %8.8X Virtual', 00H
	ORG $+6
$SG173898 DB	'HHC90000%s DBG: %s', 0aH, 00H
	ORG $+4
$SG173899 DB	'ecpsvm_dolpsw', 00H
	ORG $+2
$SG173900 DB	'ecpsvm.c', 00H
	ORG $+7
$SG173902 DB	'SASSIST LPSW CR6= %8.8X', 00H
$SG173905 DB	'HHC90000%s DBG: %s', 0aH, 00H
	ORG $+4
$SG173906 DB	'ecpsvm_dolpsw', 00H
	ORG $+2
$SG173907 DB	'ecpsvm.c', 00H
	ORG $+7
$SG173909 DB	'SASSIST LPSW MICVTMR= %8.8X', 00H
	ORG $+4
$SG173912 DB	'HHC90000%s DBG: %s', 0aH, 00H
	ORG $+4
$SG173913 DB	'ecpsvm_dolpsw', 00H
	ORG $+2
$SG173914 DB	'ecpsvm.c', 00H
	ORG $+7
$SG173916 DB	'SASSIST LPSW Real PSW=', 00H
	ORG $+1
$SG173923 DB	'HHC90000%s DBG: %s', 0aH, 00H
	ORG $+4
$SG173924 DB	'ecpsvm_dolpsw', 00H
	ORG $+2
$SG173925 DB	'ecpsvm.c', 00H
	ORG $+7
$SG173928 DB	'SASSIST LPSW reject : LPSW disabled in MICEVMA', 00H
	ORG $+1
$SG173930 DB	'HHC90000%s DBG: %s', 0aH, 00H
	ORG $+4
$SG173931 DB	'ecpsvm_dolpsw', 00H
	ORG $+2
$SG173932 DB	'ecpsvm.c', 00H
	ORG $+7
$SG173935 DB	'SASSIST LPSW %6.6X - Alignement error', 00H
	ORG $+2
$SG173938 DB	'HHC90000%s DBG: %s', 0aH, 00H
	ORG $+4
$SG173939 DB	'ecpsvm_dolpsw', 00H
	ORG $+2
$SG173940 DB	'ecpsvm.c', 00H
	ORG $+7
$SG173944 DB	'SASSIST LPSW Rejected - Cannot make PSW transition', 00H
	ORG $+5
$SG173946 DB	'HHC90000%s DBG: %s', 0aH, 00H
	ORG $+4
$SG173947 DB	'ecpsvm_dolpsw', 00H
	ORG $+2
$SG173948 DB	'ecpsvm.c', 00H
	ORG $+7
$SG173954 DB	'SASSIST LPSW New VIRT ', 00H
	ORG $+1
$SG173958 DB	'HHC90000%s DBG: %s', 0aH, 00H
	ORG $+4
$SG173959 DB	'ecpsvm_dolpsw', 00H
	ORG $+2
$SG173960 DB	'ecpsvm.c', 00H
	ORG $+7
$SG173962 DB	'SASSIST LPSW New REAL ', 00H
	ORG $+1
$SG173966 DB	'HHC90000%s DBG: %s', 0aH, 00H
	ORG $+4
$SG173967 DB	'ecpsvm_dolpsw', 00H
	ORG $+2
$SG173968 DB	'ecpsvm.c', 00H
	ORG $+7
$SG174009 DB	'SASSIST SIO ECPS:VM Disabled in configuration', 00H
	ORG $+2
$SG174011 DB	'HHC90000%s DBG: %s', 0aH, 00H
	ORG $+4
$SG174012 DB	'ecpsvm_dosio', 00H
	ORG $+3
$SG174013 DB	'ecpsvm.c', 00H
	ORG $+7
$SG174016 DB	'SASSIST SIO ECPS:VM Disabled by command', 00H
$SG174018 DB	'HHC90000%s DBG: %s', 0aH, 00H
	ORG $+4
$SG174019 DB	'ecpsvm_dosio', 00H
	ORG $+3
$SG174020 DB	'ecpsvm.c', 00H
	ORG $+7
$SG174023 DB	'EVMA Disabled by guest', 00H
	ORG $+1
$SG174025 DB	'HHC90000%s DBG: %s', 0aH, 00H
	ORG $+4
$SG174026 DB	'ecpsvm_dosio', 00H
	ORG $+3
$SG174027 DB	'ecpsvm.c', 00H
	ORG $+7
$SG174030 DB	'SASSIST SIO reject : Virtual problem state', 00H
	ORG $+5
$SG174032 DB	'HHC90000%s DBG: %s', 0aH, 00H
	ORG $+4
$SG174033 DB	'ecpsvm_dosio', 00H
	ORG $+3
$SG174034 DB	'ecpsvm.c', 00H
	ORG $+7
$SG174037 DB	'SASSIST SIO VPSWA= %8.8X Virtual', 00H
	ORG $+7
$SG174040 DB	'HHC90000%s DBG: %s', 0aH, 00H
	ORG $+4
$SG174041 DB	'ecpsvm_dosio', 00H
	ORG $+3
$SG174042 DB	'ecpsvm.c', 00H
	ORG $+7
$SG174044 DB	'SASSIST SIO CR6= %8.8X', 00H
	ORG $+1
$SG174047 DB	'HHC90000%s DBG: %s', 0aH, 00H
	ORG $+4
$SG174048 DB	'ecpsvm_dosio', 00H
	ORG $+3
$SG174049 DB	'ecpsvm.c', 00H
	ORG $+7
$SG174051 DB	'SASSIST SIO MICVTMR= %8.8X', 00H
	ORG $+5
$SG174054 DB	'HHC90000%s DBG: %s', 0aH, 00H
	ORG $+4
$SG174055 DB	'ecpsvm_dosio', 00H
	ORG $+3
$SG174056 DB	'ecpsvm.c', 00H
	ORG $+7
$SG174058 DB	'SASSIST SIO Real PSW=', 00H
	ORG $+2
$SG174065 DB	'HHC90000%s DBG: %s', 0aH, 00H
	ORG $+4
$SG174066 DB	'ecpsvm_dosio', 00H
	ORG $+3
$SG174067 DB	'ecpsvm.c', 00H
	ORG $+7
$SG174130 DB	'SASSIST STNSM ECPS:VM Disabled in configuration', 00H
$SG174132 DB	'HHC90000%s DBG: %s', 0aH, 00H
	ORG $+4
$SG174133 DB	'ecpsvm_dostnsm', 00H
	ORG $+1
$SG174134 DB	'ecpsvm.c', 00H
	ORG $+7
$SG174137 DB	'SASSIST STNSM ECPS:VM Disabled by command', 00H
	ORG $+6
$SG174139 DB	'HHC90000%s DBG: %s', 0aH, 00H
	ORG $+4
$SG174140 DB	'ecpsvm_dostnsm', 00H
	ORG $+1
$SG174141 DB	'ecpsvm.c', 00H
	ORG $+7
$SG174144 DB	'EVMA Disabled by guest', 00H
	ORG $+1
$SG174146 DB	'HHC90000%s DBG: %s', 0aH, 00H
	ORG $+4
$SG174147 DB	'ecpsvm_dostnsm', 00H
	ORG $+1
$SG174148 DB	'ecpsvm.c', 00H
	ORG $+7
$SG174151 DB	'SASSIST STNSM reject : Virtual problem state', 00H
	ORG $+3
$SG174153 DB	'HHC90000%s DBG: %s', 0aH, 00H
	ORG $+4
$SG174154 DB	'ecpsvm_dostnsm', 00H
	ORG $+1
$SG174155 DB	'ecpsvm.c', 00H
	ORG $+7
$SG174158 DB	'SASSIST STNSM VPSWA= %8.8X Virtual', 00H
	ORG $+5
$SG174161 DB	'HHC90000%s DBG: %s', 0aH, 00H
	ORG $+4
$SG174162 DB	'ecpsvm_dostnsm', 00H
	ORG $+1
$SG174163 DB	'ecpsvm.c', 00H
	ORG $+7
$SG174165 DB	'SASSIST STNSM CR6= %8.8X', 00H
	ORG $+7
$SG174168 DB	'HHC90000%s DBG: %s', 0aH, 00H
	ORG $+4
$SG174169 DB	'ecpsvm_dostnsm', 00H
	ORG $+1
$SG174170 DB	'ecpsvm.c', 00H
	ORG $+7
$SG174172 DB	'SASSIST STNSM MICVTMR= %8.8X', 00H
	ORG $+3
$SG174175 DB	'HHC90000%s DBG: %s', 0aH, 00H
	ORG $+4
$SG174176 DB	'ecpsvm_dostnsm', 00H
	ORG $+1
$SG174177 DB	'ecpsvm.c', 00H
	ORG $+7
$SG174179 DB	'SASSIST STNSM Real PSW=', 00H
$SG174186 DB	'HHC90000%s DBG: %s', 0aH, 00H
	ORG $+4
$SG174187 DB	'ecpsvm_dostnsm', 00H
	ORG $+1
$SG174188 DB	'ecpsvm.c', 00H
	ORG $+7
$SG174191 DB	'SASSIST STNSM reject : STNSM disabled in MICEVMA', 00H
	ORG $+7
$SG174193 DB	'HHC90000%s DBG: %s', 0aH, 00H
	ORG $+4
$SG174194 DB	'ecpsvm_dostnsm', 00H
	ORG $+1
$SG174195 DB	'ecpsvm.c', 00H
	ORG $+7
$SG174199 DB	'SASSIST STNSM Reject : New PSW too complex', 00H
	ORG $+5
$SG174201 DB	'HHC90000%s DBG: %s', 0aH, 00H
	ORG $+4
$SG174202 DB	'ecpsvm_dostnsm', 00H
	ORG $+1
$SG174203 DB	'ecpsvm.c', 00H
	ORG $+7
$SG174212 DB	'HHC90000%s DBG: %s', 0aH, 00H
	ORG $+4
$SG174209 DB	'SASSIST STNSM Complete : old SM = %2.2X mask = %2.2X New'
	DB	' SM = %2.2X', 00H
	ORG $+4
$SG174213 DB	'ecpsvm_dostnsm', 00H
	ORG $+1
$SG174214 DB	'ecpsvm.c', 00H
	ORG $+7
$SG174216 DB	'SASSIST STNSM New VIRT ', 00H
$SG174220 DB	'HHC90000%s DBG: %s', 0aH, 00H
	ORG $+4
$SG174221 DB	'ecpsvm_dostnsm', 00H
	ORG $+1
$SG174222 DB	'ecpsvm.c', 00H
	ORG $+7
$SG174224 DB	'SASSIST STNSM New REAL ', 00H
$SG174228 DB	'HHC90000%s DBG: %s', 0aH, 00H
	ORG $+4
$SG174229 DB	'ecpsvm_dostnsm', 00H
	ORG $+1
$SG174230 DB	'ecpsvm.c', 00H
	ORG $+7
$SG174293 DB	'SASSIST STOSM ECPS:VM Disabled in configuration', 00H
$SG174295 DB	'HHC90000%s DBG: %s', 0aH, 00H
	ORG $+4
$SG174296 DB	'ecpsvm_dostosm', 00H
	ORG $+1
$SG174297 DB	'ecpsvm.c', 00H
	ORG $+7
$SG174300 DB	'SASSIST STOSM ECPS:VM Disabled by command', 00H
	ORG $+6
$SG174302 DB	'HHC90000%s DBG: %s', 0aH, 00H
	ORG $+4
$SG174303 DB	'ecpsvm_dostosm', 00H
	ORG $+1
$SG174304 DB	'ecpsvm.c', 00H
	ORG $+7
$SG174307 DB	'EVMA Disabled by guest', 00H
	ORG $+1
$SG174309 DB	'HHC90000%s DBG: %s', 0aH, 00H
	ORG $+4
$SG174310 DB	'ecpsvm_dostosm', 00H
	ORG $+1
$SG174311 DB	'ecpsvm.c', 00H
	ORG $+7
$SG174314 DB	'SASSIST STOSM reject : Virtual problem state', 00H
	ORG $+3
$SG174316 DB	'HHC90000%s DBG: %s', 0aH, 00H
	ORG $+4
$SG174317 DB	'ecpsvm_dostosm', 00H
	ORG $+1
$SG174318 DB	'ecpsvm.c', 00H
	ORG $+7
$SG174321 DB	'SASSIST STOSM VPSWA= %8.8X Virtual', 00H
	ORG $+5
$SG174324 DB	'HHC90000%s DBG: %s', 0aH, 00H
	ORG $+4
$SG174325 DB	'ecpsvm_dostosm', 00H
	ORG $+1
$SG174326 DB	'ecpsvm.c', 00H
	ORG $+7
$SG174328 DB	'SASSIST STOSM CR6= %8.8X', 00H
	ORG $+7
$SG174331 DB	'HHC90000%s DBG: %s', 0aH, 00H
	ORG $+4
$SG174332 DB	'ecpsvm_dostosm', 00H
	ORG $+1
$SG174333 DB	'ecpsvm.c', 00H
	ORG $+7
$SG174335 DB	'SASSIST STOSM MICVTMR= %8.8X', 00H
	ORG $+3
$SG174338 DB	'HHC90000%s DBG: %s', 0aH, 00H
	ORG $+4
$SG174339 DB	'ecpsvm_dostosm', 00H
	ORG $+1
$SG174340 DB	'ecpsvm.c', 00H
	ORG $+7
$SG174342 DB	'SASSIST STOSM Real PSW=', 00H
$SG174349 DB	'HHC90000%s DBG: %s', 0aH, 00H
	ORG $+4
$SG174350 DB	'ecpsvm_dostosm', 00H
	ORG $+1
$SG174351 DB	'ecpsvm.c', 00H
	ORG $+7
$SG174354 DB	'SASSIST STOSM reject : STOSM disabled in MICEVMA', 00H
	ORG $+7
$SG174356 DB	'HHC90000%s DBG: %s', 0aH, 00H
	ORG $+4
$SG174357 DB	'ecpsvm_dostosm', 00H
	ORG $+1
$SG174358 DB	'ecpsvm.c', 00H
	ORG $+7
$SG174362 DB	'SASSIST STOSM Reject : New PSW too complex', 00H
	ORG $+5
$SG174364 DB	'HHC90000%s DBG: %s', 0aH, 00H
	ORG $+4
$SG174365 DB	'ecpsvm_dostosm', 00H
	ORG $+1
$SG174366 DB	'ecpsvm.c', 00H
	ORG $+7
$SG174375 DB	'HHC90000%s DBG: %s', 0aH, 00H
	ORG $+4
$SG174372 DB	'SASSIST STOSM Complete : old SM = %2.2X mask = %2.2X New'
	DB	' SM = %2.2X', 00H
	ORG $+4
$SG174376 DB	'ecpsvm_dostosm', 00H
	ORG $+1
$SG174377 DB	'ecpsvm.c', 00H
	ORG $+7
$SG174379 DB	'SASSIST STOSM New VIRT ', 00H
$SG174383 DB	'HHC90000%s DBG: %s', 0aH, 00H
	ORG $+4
$SG174384 DB	'ecpsvm_dostosm', 00H
	ORG $+1
$SG174385 DB	'ecpsvm.c', 00H
	ORG $+7
$SG174387 DB	'SASSIST STOSM New REAL ', 00H
$SG174391 DB	'HHC90000%s DBG: %s', 0aH, 00H
	ORG $+4
$SG174392 DB	'ecpsvm_dostosm', 00H
	ORG $+1
$SG174393 DB	'ecpsvm.c', 00H
	ORG $+7
$SG174446 DB	'SASSIST STCTL ECPS:VM Disabled in configuration', 00H
$SG174448 DB	'HHC90000%s DBG: %s', 0aH, 00H
	ORG $+4
$SG174449 DB	'ecpsvm_dostctl', 00H
	ORG $+1
$SG174450 DB	'ecpsvm.c', 00H
	ORG $+7
$SG174453 DB	'SASSIST STCTL ECPS:VM Disabled by command', 00H
	ORG $+6
$SG174455 DB	'HHC90000%s DBG: %s', 0aH, 00H
	ORG $+4
$SG174456 DB	'ecpsvm_dostctl', 00H
	ORG $+1
$SG174457 DB	'ecpsvm.c', 00H
	ORG $+7
$SG174460 DB	'EVMA Disabled by guest', 00H
	ORG $+1
$SG174462 DB	'HHC90000%s DBG: %s', 0aH, 00H
	ORG $+4
$SG174463 DB	'ecpsvm_dostctl', 00H
	ORG $+1
$SG174464 DB	'ecpsvm.c', 00H
	ORG $+7
$SG174467 DB	'SASSIST STCTL reject : Virtual problem state', 00H
	ORG $+3
$SG174469 DB	'HHC90000%s DBG: %s', 0aH, 00H
	ORG $+4
$SG174470 DB	'ecpsvm_dostctl', 00H
	ORG $+1
$SG174471 DB	'ecpsvm.c', 00H
	ORG $+7
$SG174474 DB	'SASSIST STCTL VPSWA= %8.8X Virtual', 00H
	ORG $+5
$SG174477 DB	'HHC90000%s DBG: %s', 0aH, 00H
	ORG $+4
$SG174478 DB	'ecpsvm_dostctl', 00H
	ORG $+1
$SG174479 DB	'ecpsvm.c', 00H
	ORG $+7
$SG174481 DB	'SASSIST STCTL CR6= %8.8X', 00H
	ORG $+7
$SG174484 DB	'HHC90000%s DBG: %s', 0aH, 00H
	ORG $+4
$SG174485 DB	'ecpsvm_dostctl', 00H
	ORG $+1
$SG174486 DB	'ecpsvm.c', 00H
	ORG $+7
$SG174488 DB	'SASSIST STCTL MICVTMR= %8.8X', 00H
	ORG $+3
$SG174491 DB	'HHC90000%s DBG: %s', 0aH, 00H
	ORG $+4
$SG174492 DB	'ecpsvm_dostctl', 00H
	ORG $+1
$SG174493 DB	'ecpsvm.c', 00H
	ORG $+7
$SG174495 DB	'SASSIST STCTL Real PSW=', 00H
$SG174502 DB	'HHC90000%s DBG: %s', 0aH, 00H
	ORG $+4
$SG174503 DB	'ecpsvm_dostctl', 00H
	ORG $+1
$SG174504 DB	'ecpsvm.c', 00H
	ORG $+7
$SG174507 DB	'SASSIST STCTL Reject : Not aligned', 00H
	ORG $+5
$SG174509 DB	'HHC90000%s DBG: %s', 0aH, 00H
	ORG $+4
$SG174510 DB	'ecpsvm_dostctl', 00H
	ORG $+1
$SG174511 DB	'ecpsvm.c', 00H
	ORG $+7
$SG174515 DB	'SASSIST STCTL Reject : BC Mode VM & STCTL != 0,0', 00H
	ORG $+7
$SG174517 DB	'HHC90000%s DBG: %s', 0aH, 00H
	ORG $+4
$SG174518 DB	'ecpsvm_dostctl', 00H
	ORG $+1
$SG174519 DB	'ecpsvm.c', 00H
	ORG $+7
$SG174526 DB	'SASSIST STCTL %d,%d Done', 00H
	ORG $+7
$SG174529 DB	'HHC90000%s DBG: %s', 0aH, 00H
	ORG $+4
$SG174530 DB	'ecpsvm_dostctl', 00H
	ORG $+1
$SG174531 DB	'ecpsvm.c', 00H
	ORG $+7
$SG174600 DB	'SASSIST LCTL ECPS:VM Disabled in configuration', 00H
	ORG $+1
$SG174602 DB	'HHC90000%s DBG: %s', 0aH, 00H
	ORG $+4
$SG174603 DB	'ecpsvm_dolctl', 00H
	ORG $+2
$SG174604 DB	'ecpsvm.c', 00H
	ORG $+7
$SG174607 DB	'SASSIST LCTL ECPS:VM Disabled by command', 00H
	ORG $+7
$SG174609 DB	'HHC90000%s DBG: %s', 0aH, 00H
	ORG $+4
$SG174610 DB	'ecpsvm_dolctl', 00H
	ORG $+2
$SG174611 DB	'ecpsvm.c', 00H
	ORG $+7
$SG174614 DB	'EVMA Disabled by guest', 00H
	ORG $+1
$SG174616 DB	'HHC90000%s DBG: %s', 0aH, 00H
	ORG $+4
$SG174617 DB	'ecpsvm_dolctl', 00H
	ORG $+2
$SG174618 DB	'ecpsvm.c', 00H
	ORG $+7
$SG174621 DB	'SASSIST LCTL reject : Virtual problem state', 00H
	ORG $+4
$SG174623 DB	'HHC90000%s DBG: %s', 0aH, 00H
	ORG $+4
$SG174624 DB	'ecpsvm_dolctl', 00H
	ORG $+2
$SG174625 DB	'ecpsvm.c', 00H
	ORG $+7
$SG174628 DB	'SASSIST LCTL VPSWA= %8.8X Virtual', 00H
	ORG $+6
$SG174631 DB	'HHC90000%s DBG: %s', 0aH, 00H
	ORG $+4
$SG174632 DB	'ecpsvm_dolctl', 00H
	ORG $+2
$SG174633 DB	'ecpsvm.c', 00H
	ORG $+7
$SG174635 DB	'SASSIST LCTL CR6= %8.8X', 00H
$SG174638 DB	'HHC90000%s DBG: %s', 0aH, 00H
	ORG $+4
$SG174639 DB	'ecpsvm_dolctl', 00H
	ORG $+2
$SG174640 DB	'ecpsvm.c', 00H
	ORG $+7
$SG174642 DB	'SASSIST LCTL MICVTMR= %8.8X', 00H
	ORG $+4
$SG174645 DB	'HHC90000%s DBG: %s', 0aH, 00H
	ORG $+4
$SG174646 DB	'ecpsvm_dolctl', 00H
	ORG $+2
$SG174647 DB	'ecpsvm.c', 00H
	ORG $+7
$SG174649 DB	'SASSIST LCTL Real PSW=', 00H
	ORG $+1
$SG174656 DB	'HHC90000%s DBG: %s', 0aH, 00H
	ORG $+4
$SG174657 DB	'ecpsvm_dolctl', 00H
	ORG $+2
$SG174658 DB	'ecpsvm.c', 00H
	ORG $+7
$SG174661 DB	'SASSIST LCTL Reject : Not aligned', 00H
	ORG $+6
$SG174663 DB	'HHC90000%s DBG: %s', 0aH, 00H
	ORG $+4
$SG174664 DB	'ecpsvm_dolctl', 00H
	ORG $+2
$SG174665 DB	'ecpsvm.c', 00H
	ORG $+7
$SG174669 DB	'SASSIST LCTL Reject : BC Mode VM & LCTL != 0,0', 00H
	ORG $+1
$SG174671 DB	'HHC90000%s DBG: %s', 0aH, 00H
	ORG $+4
$SG174672 DB	'ecpsvm_dolctl', 00H
	ORG $+2
$SG174673 DB	'ecpsvm.c', 00H
	ORG $+7
$SG174680 DB	'SASSIST LCTL %d,%d : Modifying %d cregs', 00H
$SG174683 DB	'HHC90000%s DBG: %s', 0aH, 00H
	ORG $+4
$SG174684 DB	'ecpsvm_dolctl', 00H
	ORG $+2
$SG174685 DB	'ecpsvm.c', 00H
	ORG $+7
$SG174690 DB	'SASSIST LCTL Reject : CR0 High changed', 00H
	ORG $+1
$SG174692 DB	'HHC90000%s DBG: %s', 0aH, 00H
	ORG $+4
$SG174693 DB	'ecpsvm_dolctl', 00H
	ORG $+2
$SG174694 DB	'ecpsvm.c', 00H
	ORG $+7
$SG174699 DB	'SASSIST LCTL Reject : CR0 EXTSM Enables new EXTS', 00H
	ORG $+7
$SG174701 DB	'HHC90000%s DBG: %s', 0aH, 00H
	ORG $+4
$SG174702 DB	'ecpsvm_dolctl', 00H
	ORG $+2
$SG174703 DB	'ecpsvm.c', 00H
	ORG $+7
$SG174707 DB	'SASSIST LCTL Reject : CR1 Updates shadow table', 00H
	ORG $+1
$SG174709 DB	'HHC90000%s DBG: %s', 0aH, 00H
	ORG $+4
$SG174710 DB	'ecpsvm_dolctl', 00H
	ORG $+2
$SG174711 DB	'ecpsvm.c', 00H
	ORG $+7
$SG174717 DB	'SASSIST LCTL Reject : CR2 IOCSM Enables I/O Ints', 00H
	ORG $+7
$SG174719 DB	'HHC90000%s DBG: %s', 0aH, 00H
	ORG $+4
$SG174720 DB	'ecpsvm_dolctl', 00H
	ORG $+2
$SG174721 DB	'ecpsvm.c', 00H
	ORG $+7
$SG174727 DB	'SASSIST LCTL Reject : DAS CR%d Update', 00H
	ORG $+2
$SG174730 DB	'HHC90000%s DBG: %s', 0aH, 00H
	ORG $+4
$SG174731 DB	'ecpsvm_dolctl', 00H
	ORG $+2
$SG174732 DB	'ecpsvm.c', 00H
	ORG $+7
$SG174736 DB	'SASSIST LCTL Reject : MC CR8 Update', 00H
	ORG $+4
$SG174738 DB	'HHC90000%s DBG: %s', 0aH, 00H
	ORG $+4
$SG174739 DB	'ecpsvm_dolctl', 00H
	ORG $+2
$SG174740 DB	'ecpsvm.c', 00H
	ORG $+7
$SG174745 DB	'SASSIST LCTL Reject : PER CR%d Update', 00H
	ORG $+2
$SG174748 DB	'HHC90000%s DBG: %s', 0aH, 00H
	ORG $+4
$SG174749 DB	'ecpsvm_dolctl', 00H
	ORG $+2
$SG174750 DB	'ecpsvm.c', 00H
	ORG $+7
$SG174758 DB	'SASSIST LCTL %d,%d Done', 00H
$SG174761 DB	'HHC90000%s DBG: %s', 0aH, 00H
	ORG $+4
$SG174762 DB	'ecpsvm_dolctl', 00H
	ORG $+2
$SG174763 DB	'ecpsvm.c', 00H
	ORG $+7
$SG174804 DB	'SASSIST IUCV ECPS:VM Disabled in configuration', 00H
	ORG $+1
$SG174806 DB	'HHC90000%s DBG: %s', 0aH, 00H
	ORG $+4
$SG174807 DB	'ecpsvm_doiucv', 00H
	ORG $+2
$SG174808 DB	'ecpsvm.c', 00H
	ORG $+7
$SG174811 DB	'SASSIST IUCV ECPS:VM Disabled by command', 00H
	ORG $+7
$SG174813 DB	'HHC90000%s DBG: %s', 0aH, 00H
	ORG $+4
$SG174814 DB	'ecpsvm_doiucv', 00H
	ORG $+2
$SG174815 DB	'ecpsvm.c', 00H
	ORG $+7
$SG174818 DB	'EVMA Disabled by guest', 00H
	ORG $+1
$SG174820 DB	'HHC90000%s DBG: %s', 0aH, 00H
	ORG $+4
$SG174821 DB	'ecpsvm_doiucv', 00H
	ORG $+2
$SG174822 DB	'ecpsvm.c', 00H
	ORG $+7
$SG174825 DB	'SASSIST IUCV reject : Virtual problem state', 00H
	ORG $+4
$SG174827 DB	'HHC90000%s DBG: %s', 0aH, 00H
	ORG $+4
$SG174828 DB	'ecpsvm_doiucv', 00H
	ORG $+2
$SG174829 DB	'ecpsvm.c', 00H
	ORG $+7
$SG174832 DB	'SASSIST IUCV VPSWA= %8.8X Virtual', 00H
	ORG $+6
$SG174835 DB	'HHC90000%s DBG: %s', 0aH, 00H
	ORG $+4
$SG174836 DB	'ecpsvm_doiucv', 00H
	ORG $+2
$SG174837 DB	'ecpsvm.c', 00H
	ORG $+7
$SG174839 DB	'SASSIST IUCV CR6= %8.8X', 00H
$SG174842 DB	'HHC90000%s DBG: %s', 0aH, 00H
	ORG $+4
$SG174843 DB	'ecpsvm_doiucv', 00H
	ORG $+2
$SG174844 DB	'ecpsvm.c', 00H
	ORG $+7
$SG174846 DB	'SASSIST IUCV MICVTMR= %8.8X', 00H
	ORG $+4
$SG174849 DB	'HHC90000%s DBG: %s', 0aH, 00H
	ORG $+4
$SG174850 DB	'ecpsvm_doiucv', 00H
	ORG $+2
$SG174851 DB	'ecpsvm.c', 00H
	ORG $+7
$SG174853 DB	'SASSIST IUCV Real PSW=', 00H
	ORG $+1
$SG174860 DB	'HHC90000%s DBG: %s', 0aH, 00H
	ORG $+4
$SG174861 DB	'ecpsvm_doiucv', 00H
	ORG $+2
$SG174862 DB	'ecpsvm.c', 00H
	ORG $+7
$SG174913 DB	'SASSIST DIAG ECPS:VM Disabled in configuration', 00H
	ORG $+1
$SG174915 DB	'HHC90000%s DBG: %s', 0aH, 00H
	ORG $+4
$SG174916 DB	'ecpsvm_dodiag', 00H
	ORG $+2
$SG174917 DB	'ecpsvm.c', 00H
	ORG $+7
$SG174920 DB	'SASSIST DIAG ECPS:VM Disabled by command', 00H
	ORG $+7
$SG174922 DB	'HHC90000%s DBG: %s', 0aH, 00H
	ORG $+4
$SG174923 DB	'ecpsvm_dodiag', 00H
	ORG $+2
$SG174924 DB	'ecpsvm.c', 00H
	ORG $+7
$SG174927 DB	'EVMA Disabled by guest', 00H
	ORG $+1
$SG174929 DB	'HHC90000%s DBG: %s', 0aH, 00H
	ORG $+4
$SG174930 DB	'ecpsvm_dodiag', 00H
	ORG $+2
$SG174931 DB	'ecpsvm.c', 00H
	ORG $+7
$SG174934 DB	'SASSIST DIAG reject : Virtual problem state', 00H
	ORG $+4
$SG174936 DB	'HHC90000%s DBG: %s', 0aH, 00H
	ORG $+4
$SG174937 DB	'ecpsvm_dodiag', 00H
	ORG $+2
$SG174938 DB	'ecpsvm.c', 00H
	ORG $+7
$SG174941 DB	'SASSIST DIAG VPSWA= %8.8X Virtual', 00H
	ORG $+6
$SG174944 DB	'HHC90000%s DBG: %s', 0aH, 00H
	ORG $+4
$SG174945 DB	'ecpsvm_dodiag', 00H
	ORG $+2
$SG174946 DB	'ecpsvm.c', 00H
	ORG $+7
$SG174948 DB	'SASSIST DIAG CR6= %8.8X', 00H
$SG174951 DB	'HHC90000%s DBG: %s', 0aH, 00H
	ORG $+4
$SG174952 DB	'ecpsvm_dodiag', 00H
	ORG $+2
$SG174953 DB	'ecpsvm.c', 00H
	ORG $+7
$SG174955 DB	'SASSIST DIAG MICVTMR= %8.8X', 00H
	ORG $+4
$SG174958 DB	'HHC90000%s DBG: %s', 0aH, 00H
	ORG $+4
$SG174959 DB	'ecpsvm_dodiag', 00H
	ORG $+2
$SG174960 DB	'ecpsvm.c', 00H
	ORG $+7
$SG174962 DB	'SASSIST DIAG Real PSW=', 00H
	ORG $+1
$SG174969 DB	'HHC90000%s DBG: %s', 0aH, 00H
	ORG $+4
$SG174970 DB	'ecpsvm_dodiag', 00H
	ORG $+2
$SG174971 DB	'ecpsvm.c', 00H
	ORG $+7
$SG175054 DB	'SASSIST LRA ECPS:VM Disabled in configuration', 00H
	ORG $+2
$SG175056 DB	'HHC90000%s DBG: %s', 0aH, 00H
	ORG $+4
$SG175057 DB	'ecpsvm_dolra', 00H
	ORG $+3
$SG175058 DB	'ecpsvm.c', 00H
	ORG $+7
$SG175061 DB	'SASSIST LRA ECPS:VM Disabled by command', 00H
$SG175063 DB	'HHC90000%s DBG: %s', 0aH, 00H
	ORG $+4
$SG175064 DB	'ecpsvm_dolra', 00H
	ORG $+3
$SG175065 DB	'ecpsvm.c', 00H
	ORG $+7
$SG175068 DB	'EVMA Disabled by guest', 00H
	ORG $+1
$SG175070 DB	'HHC90000%s DBG: %s', 0aH, 00H
	ORG $+4
$SG175071 DB	'ecpsvm_dolra', 00H
	ORG $+3
$SG175072 DB	'ecpsvm.c', 00H
	ORG $+7
$SG175075 DB	'SASSIST LRA reject : Virtual problem state', 00H
	ORG $+5
$SG175077 DB	'HHC90000%s DBG: %s', 0aH, 00H
	ORG $+4
$SG175078 DB	'ecpsvm_dolra', 00H
	ORG $+3
$SG175079 DB	'ecpsvm.c', 00H
	ORG $+7
$SG175082 DB	'SASSIST LRA VPSWA= %8.8X Virtual', 00H
	ORG $+7
$SG175085 DB	'HHC90000%s DBG: %s', 0aH, 00H
	ORG $+4
$SG175086 DB	'ecpsvm_dolra', 00H
	ORG $+3
$SG175087 DB	'ecpsvm.c', 00H
	ORG $+7
$SG175089 DB	'SASSIST LRA CR6= %8.8X', 00H
	ORG $+1
$SG175092 DB	'HHC90000%s DBG: %s', 0aH, 00H
	ORG $+4
$SG175093 DB	'ecpsvm_dolra', 00H
	ORG $+3
$SG175094 DB	'ecpsvm.c', 00H
	ORG $+7
$SG175096 DB	'SASSIST LRA MICVTMR= %8.8X', 00H
	ORG $+5
$SG175099 DB	'HHC90000%s DBG: %s', 0aH, 00H
	ORG $+4
$SG175100 DB	'ecpsvm_dolra', 00H
	ORG $+3
$SG175101 DB	'ecpsvm.c', 00H
	ORG $+7
$SG175103 DB	'SASSIST LRA Real PSW=', 00H
	ORG $+2
$SG175110 DB	'HHC90000%s DBG: %s', 0aH, 00H
	ORG $+4
$SG175111 DB	'ecpsvm_dolra', 00H
	ORG $+3
$SG175112 DB	'ecpsvm.c', 00H
	ORG $+7
$SG175115 DB	'SASSIST LRA Reject : VPSW is BC mode', 0aH, 00H
	ORG $+2
$SG175117 DB	'HHC90000%s DBG: %s', 0aH, 00H
	ORG $+4
$SG175118 DB	'ecpsvm_dolra', 00H
	ORG $+3
$SG175119 DB	'ecpsvm.c', 00H
	ORG $+7
$SG175122 DB	'SASSIST LRA Complete: CC=%d; Operands r1=%8.8X, d2(b2)=%'
	DB	'8.8X (STBYPASS)', 0aH, 00H
	ORG $+7
$SG175125 DB	'HHC90000%s DBG: %s', 0aH, 00H
	ORG $+4
$SG175126 DB	'ecpsvm_dolra', 00H
	ORG $+3
$SG175127 DB	'ecpsvm.c', 00H
	ORG $+7
$SG175130 DB	'SASSIST LRA Reject : Invalid STO in virtual CR1', 0aH, 00H
	ORG $+7
$SG175132 DB	'HHC90000%s DBG: %s', 0aH, 00H
	ORG $+4
$SG175133 DB	'ecpsvm_dolra', 00H
	ORG $+3
$SG175134 DB	'ecpsvm.c', 00H
	ORG $+7
$SG175141 DB	'SASSIST LRA Reject : Invalid page/segment bits in virtua'
	DB	'l CR0', 0aH, 00H
	ORG $+1
$SG175143 DB	'HHC90000%s DBG: %s', 0aH, 00H
	ORG $+4
$SG175144 DB	'ecpsvm_dolra', 00H
	ORG $+3
$SG175145 DB	'ecpsvm.c', 00H
	ORG $+7
$SG175149 DB	'SASSIST LRA Complete: CC=3; Operands r1=%8.8X, d2(b2)=%8'
	DB	'.8X', 0aH, 00H
	ORG $+3
$SG175152 DB	'HHC90000%s DBG: %s', 0aH, 00H
	ORG $+4
$SG175153 DB	'ecpsvm_dolra', 00H
	ORG $+3
$SG175154 DB	'ecpsvm.c', 00H
	ORG $+7
$SG175160 DB	'HHC90000%s DBG: %s', 0aH, 00H
	ORG $+4
$SG175158 DB	'SASSIST LRA Reject : V-STE address exceeds real segment '
	DB	'table length', 0aH, 00H
	ORG $+2
$SG175161 DB	'ecpsvm_dolra', 00H
	ORG $+3
$SG175162 DB	'ecpsvm.c', 00H
	ORG $+7
$SG175165 DB	'SASSIST LRA Reject : Real STE at %6.6X is invalid; STE=%'
	DB	'8.8X', 0aH, 00H
	ORG $+2
$SG175168 DB	'HHC90000%s DBG: %s', 0aH, 00H
	ORG $+4
$SG175169 DB	'ecpsvm_dolra', 00H
	ORG $+3
$SG175170 DB	'ecpsvm.c', 00H
	ORG $+7
$SG175173 DB	'SASSIST LRA Reject : V-STE address exceeds real page tab'
	DB	'le length', 0aH, 00H
	ORG $+5
$SG175175 DB	'HHC90000%s DBG: %s', 0aH, 00H
	ORG $+4
$SG175176 DB	'ecpsvm_dolra', 00H
	ORG $+3
$SG175177 DB	'ecpsvm.c', 00H
	ORG $+7
$SG175180 DB	'SASSIST LRA Reject : Real PTE at %6.6X is invalid; PTE=%'
	DB	'4.4X', 0aH, 00H
	ORG $+2
$SG175183 DB	'HHC90000%s DBG: %s', 0aH, 00H
	ORG $+4
$SG175184 DB	'ecpsvm_dolra', 00H
	ORG $+3
$SG175185 DB	'ecpsvm.c', 00H
	ORG $+7
$SG175188 DB	'SASSIST LRA Complete: CC=1; Operands r1=%8.8X, d2(b2)=%8'
	DB	'.8X', 0aH, 00H
	ORG $+3
$SG175191 DB	'HHC90000%s DBG: %s', 0aH, 00H
	ORG $+4
$SG175192 DB	'ecpsvm_dolra', 00H
	ORG $+3
$SG175193 DB	'ecpsvm.c', 00H
	ORG $+7
$SG175196 DB	'SASSIST LRA Reject : Virtual STE at %6.6X is invalid; ST'
	DB	'E=%8.8X', 0aH, 00H
	ORG $+7
$SG175199 DB	'HHC90000%s DBG: %s', 0aH, 00H
	ORG $+4
$SG175200 DB	'ecpsvm_dolra', 00H
	ORG $+3
$SG175201 DB	'ecpsvm.c', 00H
	ORG $+7
$SG175204 DB	'SASSIST LRA Complete: CC=3; Operands r1=%8.8X, d2(b2)=%8'
	DB	'.8X', 0aH, 00H
	ORG $+3
$SG175207 DB	'HHC90000%s DBG: %s', 0aH, 00H
	ORG $+4
$SG175208 DB	'ecpsvm_dolra', 00H
	ORG $+3
$SG175209 DB	'ecpsvm.c', 00H
	ORG $+7
$SG175215 DB	'HHC90000%s DBG: %s', 0aH, 00H
	ORG $+4
$SG175213 DB	'SASSIST LRA Reject : V-PTE address exceeds real segment '
	DB	'table length', 0aH, 00H
	ORG $+2
$SG175216 DB	'ecpsvm_dolra', 00H
	ORG $+3
$SG175217 DB	'ecpsvm.c', 00H
	ORG $+7
$SG175220 DB	'SASSIST LRA Reject : Real STE at %6.6X is invalid; STE=%'
	DB	'8.8X', 0aH, 00H
	ORG $+2
$SG175223 DB	'HHC90000%s DBG: %s', 0aH, 00H
	ORG $+4
$SG175224 DB	'ecpsvm_dolra', 00H
	ORG $+3
$SG175225 DB	'ecpsvm.c', 00H
	ORG $+7
$SG175228 DB	'SASSIST LRA Reject : V-PTE address exceeds real page tab'
	DB	'le length', 0aH, 00H
	ORG $+5
$SG175230 DB	'HHC90000%s DBG: %s', 0aH, 00H
	ORG $+4
$SG175231 DB	'ecpsvm_dolra', 00H
	ORG $+3
$SG175232 DB	'ecpsvm.c', 00H
	ORG $+7
$SG175235 DB	'SASSIST LRA Reject : Real PTE at %6.6X is invalid; PTE=%'
	DB	'4.4X', 0aH, 00H
	ORG $+2
$SG175238 DB	'HHC90000%s DBG: %s', 0aH, 00H
	ORG $+4
$SG175239 DB	'ecpsvm_dolra', 00H
	ORG $+3
$SG175240 DB	'ecpsvm.c', 00H
	ORG $+7
$SG175243 DB	'SASSIST LRA Complete: CC=2; Operands r1=%8.8X, d2(b2)=%8'
	DB	'.8X', 0aH, 00H
	ORG $+3
$SG175246 DB	'HHC90000%s DBG: %s', 0aH, 00H
	ORG $+4
$SG175247 DB	'ecpsvm_dolra', 00H
	ORG $+3
$SG175248 DB	'ecpsvm.c', 00H
	ORG $+7
$SG175251 DB	'SASSIST LRA Reject : Virtual PTE at %6.6X is invalid; ST'
	DB	'E=%8.8X', 0aH, 00H
	ORG $+7
$SG175254 DB	'HHC90000%s DBG: %s', 0aH, 00H
	ORG $+4
$SG175255 DB	'ecpsvm_dolra', 00H
	ORG $+3
$SG175256 DB	'ecpsvm.c', 00H
	ORG $+7
$SG175258 DB	'SASSIST LRA Complete: CC=0; Operands r1=%8.8X, d2(b2)=%8'
	DB	'.8X', 0aH, 00H
	ORG $+3
$SG175261 DB	'HHC90000%s DBG: %s', 0aH, 00H
	ORG $+4
$SG175262 DB	'ecpsvm_dolra', 00H
	ORG $+3
$SG175263 DB	'ecpsvm.c', 00H
	ORG $+3
$SG175295 DB	'%s%s', 00H
	ORG $+7
$SG175303 DB	'HHC01701%s | %-9s | %10llu | %10llu |  %3llu%% |', 0aH, 00H
	ORG $+6
$SG175304 DB	'ecpsvm_showstats2', 00H
	ORG $+6
$SG175305 DB	'ecpsvm.c', 00H
	ORG $+7
$SG175308 DB	'HHC01702%s +-----------+------------+------------+------'
	DB	'-+', 0aH, 00H
	ORG $+4
$SG175309 DB	'ecpsvm_showstats2', 00H
	ORG $+6
$SG175310 DB	'ecpsvm.c', 00H
	ORG $+7
$SG175313 DB	'HHC01701%s | %-9s | %10llu | %10llu |  %3llu%% |', 0aH, 00H
	ORG $+6
$SG175314 DB	'ecpsvm_showstats2', 00H
	ORG $+6
$SG175315 DB	'ecpsvm.c', 00H
	ORG $+7
$SG175317 DB	'HHC01702%s +-----------+------------+------------+------'
	DB	'-+', 0aH, 00H
	ORG $+4
$SG175318 DB	'ecpsvm_showstats2', 00H
	ORG $+6
$SG175319 DB	'ecpsvm.c', 00H
	ORG $+7
$SG175322 DB	'HHC01703%s * : Unsupported, - : Disabled, %% - Debug', 0aH
	DB	00H
	ORG $+2
$SG175323 DB	'ecpsvm_showstats2', 00H
	ORG $+6
$SG175324 DB	'ecpsvm.c', 00H
	ORG $+7
$SG175327 DB	'HHC01704%s %llu entries not shown and never invoked', 0aH
	DB	00H
	ORG $+3
$SG175328 DB	'ecpsvm_showstats2', 00H
	ORG $+6
$SG175329 DB	'ecpsvm.c', 00H
	ORG $+7
$SG175332 DB	'HHC01705%s %llu call(s) were made to unsupported functio'
	DB	'ns', 0aH, 00H
	ORG $+4
$SG175333 DB	'ecpsvm_showstats2', 00H
	ORG $+6
$SG175334 DB	'ecpsvm.c', 00H
	ORG $+7
$SG175356 DB	'HHC01725%s ECPS:VM Code version %.02f', 0aH, 00H
	ORG $+1
$SG175357 DB	'ecpsvm_showstats', 00H
	ORG $+7
$SG175358 DB	'ecpsvm.c', 00H
	ORG $+7
$SG175361 DB	'HHC01724%s ECPS:VM Operating with CP FREE/FRET trap in e'
	DB	'ffect', 0aH, 00H
	ORG $+1
$SG175362 DB	'ecpsvm_showstats', 00H
	ORG $+7
$SG175363 DB	'ecpsvm.c', 00H
	ORG $+7
$SG175365 DB	'HHC01702%s +-----------+------------+------------+------'
	DB	'-+', 0aH, 00H
	ORG $+4
$SG175366 DB	'ecpsvm_showstats', 00H
	ORG $+7
$SG175367 DB	'ecpsvm.c', 00H
	ORG $+7
$SG175370 DB	'Calls  ', 00H
$SG175371 DB	'VM ASSIST', 00H
	ORG $+6
$SG175373 DB	'HHC01706%s | %-9s | %10s | %10s | %-5s |', 0aH, 00H
	ORG $+6
$SG175374 DB	'ecpsvm_showstats', 00H
	ORG $+7
$SG175375 DB	'ecpsvm.c', 00H
	ORG $+7
$SG175377 DB	'HHC01702%s +-----------+------------+------------+------'
	DB	'-+', 0aH, 00H
	ORG $+4
$SG175378 DB	'ecpsvm_showstats', 00H
	ORG $+7
$SG175379 DB	'ecpsvm.c', 00H
	ORG $+7
$SG175381 DB	'HHC01702%s +-----------+------------+------------+------'
	DB	'-+', 0aH, 00H
	ORG $+4
$SG175382 DB	'ecpsvm_showstats', 00H
	ORG $+7
$SG175383 DB	'ecpsvm.c', 00H
	ORG $+7
$SG175386 DB	'Calls  ', 00H
$SG175387 DB	'CP ASSIST', 00H
	ORG $+6
$SG175389 DB	'HHC01706%s | %-9s | %10s | %10s | %-5s |', 0aH, 00H
	ORG $+6
$SG175390 DB	'ecpsvm_showstats', 00H
	ORG $+7
$SG175391 DB	'ecpsvm.c', 00H
	ORG $+7
$SG175393 DB	'HHC01702%s +-----------+------------+------------+------'
	DB	'-+', 0aH, 00H
	ORG $+4
$SG175394 DB	'ecpsvm_showstats', 00H
	ORG $+7
$SG175395 DB	'ecpsvm.c', 00H
	ORG $+7
$SG175418 DB	'VM ASSIST', 00H
	ORG $+6
$SG175420 DB	'CP ASSIST', 00H
	ORG $+6
$SG175440 DB	'Enabled', 00H
$SG175441 DB	'Disabled', 00H
	ORG $+7
$SG175447 DB	'HHC01707%s ECPS:VM %s feature %s%s%s', 0aH, 00H
	ORG $+2
$SG175448 DB	'ecpsvm_enadisaall', 00H
	ORG $+6
$SG175449 DB	'ecpsvm.c', 00H
	ORG $+7
$SG175451 DB	' Debug ', 00H
$SG175453 DB	'HHC01707%s ECPS:VM %s feature %s%s%s', 0aH, 00H
	ORG $+2
$SG175454 DB	'ecpsvm_enadisaall', 00H
	ORG $+6
$SG175455 DB	'ecpsvm.c', 00H
	ORG $+7
$SG175459 DB	'HHC01708%s All ECPS:VM %s features %s%s', 0aH, 00H
	ORG $+7
$SG175460 DB	'ecpsvm_enadisaall', 00H
	ORG $+6
$SG175461 DB	'ecpsvm.c', 00H
	ORG $+7
$SG175465 DB	'HHC01708%s All ECPS:VM %s features %s%s', 0aH, 00H
	ORG $+7
$SG175466 DB	'ecpsvm_enadisaall', 00H
	ORG $+6
$SG175467 DB	'ecpsvm.c', 00H
	ORG $+7
$SG175495 DB	'Enabled', 00H
$SG175496 DB	'Disabled', 00H
	ORG $+7
$SG175500 DB	'VM ASSIST', 00H
	ORG $+6
$SG175501 DB	'CP ASSIST', 00H
	ORG $+6
$SG175504 DB	'HHC01709%s ECPS:VM global debug %s', 0aH, 00H
	ORG $+4
$SG175505 DB	'ecpsvm_enable_disable', 00H
	ORG $+2
$SG175506 DB	'ecpsvm.c', 00H
	ORG $+7
$SG175509 DB	'VM ASSIST', 00H
	ORG $+6
$SG175510 DB	'CP ASSIST', 00H
	ORG $+6
$SG175513 DB	'VM ASSIST', 00H
	ORG $+6
$SG175516 DB	'CP ASSIST', 00H
	ORG $+6
$SG175522 DB	'HHC01710%s ECPS:VM %s feature %s %s%s', 0aH, 00H
	ORG $+1
$SG175523 DB	'ecpsvm_enable_disable', 00H
	ORG $+2
$SG175524 DB	'ecpsvm.c', 00H
	ORG $+7
$SG175528 DB	'HHC01710%s ECPS:VM %s feature %s %s%s', 0aH, 00H
	ORG $+1
$SG175529 DB	'ecpsvm_enable_disable', 00H
	ORG $+2
$SG175530 DB	'ecpsvm.c', 00H
	ORG $+7
$SG175532 DB	'HHC01711%s Unknown ECPS:VM feature %s; ignored', 0aH, 00H
$SG175533 DB	'ecpsvm_enable_disable', 00H
	ORG $+2
$SG175534 DB	'ecpsvm.c', 00H
	ORG $+7
$SG175567 DB	'HHC01712%s Current reported ECPS:VM level is %d', 0aH, 00H
	ORG $+7
$SG175568 DB	'ecpsvm_level', 00H
	ORG $+3
$SG175569 DB	'ecpsvm.c', 00H
	ORG $+7
$SG175572 DB	'HHC01713%s But ECPS:VM is currently disabled', 0aH, 00H
	ORG $+2
$SG175573 DB	'ecpsvm_level', 00H
	ORG $+3
$SG175574 DB	'ecpsvm.c', 00H
	ORG $+7
$SG175577 DB	'HHC01714%s Level reported to guest program is now %d', 0aH
	DB	00H
	ORG $+2
$SG175578 DB	'ecpsvm_level', 00H
	ORG $+3
$SG175579 DB	'ecpsvm.c', 00H
	ORG $+7
$SG175582 DB	'HHC01715%s ECPS:VM level %d is not supported, unpredicta'
	DB	'ble results may occur', 0aH, 00H
	ORG $+1
$SG175583 DB	'ecpsvm_level', 00H
	ORG $+3
$SG175584 DB	'ecpsvm.c', 00H
	ORG $+7
$SG175586 DB	'HHC01716%s The microcode support level is 20', 0aH, 00H
	ORG $+2
$SG175587 DB	'ecpsvm_level', 00H
	ORG $+3
$SG175588 DB	'ecpsvm.c', 00H
	ORG $+7
ecpsvm_cmdtab DQ FLAT:$SG175597
	DD	01H
	ORG $+4
	DQ	FLAT:ecpsvm_helpcmd
	DQ	FLAT:$SG175598
	DQ	FLAT:$SG175599
	DQ	FLAT:$SG175600
	DD	02H
	ORG $+4
	DQ	FLAT:ecpsvm_showstats
	DQ	FLAT:$SG175601
	DQ	FLAT:$SG175602
	DQ	FLAT:$SG175603
	DD	02H
	ORG $+4
	DQ	FLAT:ecpsvm_disable
	DQ	FLAT:$SG175604
	DQ	FLAT:$SG175605
	DQ	FLAT:$SG175606
	DD	02H
	ORG $+4
	DQ	FLAT:ecpsvm_enable
	DQ	FLAT:$SG175607
	DQ	FLAT:$SG175608
	DQ	FLAT:$SG175609
	DD	05H
	ORG $+4
	DQ	FLAT:ecpsvm_debug
	DQ	FLAT:$SG175610
	DQ	FLAT:$SG175611
	DQ	FLAT:$SG175612
	DD	03H
	ORG $+4
	DQ	FLAT:ecpsvm_nodebug
	DQ	FLAT:$SG175613
	DQ	FLAT:$SG175614
	DQ	FLAT:$SG175615
	DD	01H
	ORG $+4
	DQ	FLAT:ecpsvm_level
	DQ	FLAT:$SG175616
	DQ	FLAT:$SG175617
	DQ	0000000000000000H
	DD	00H
	ORG $+4
	DQ	0000000000000000H
	DQ	0000000000000000H
	DQ	0000000000000000H
$SG175627 DB	'HHC01717%s %-9.9s    %s', 0aH, 00H
	ORG $+7
$SG175628 DB	'ecpsvm_helpcmdlist', 00H
	ORG $+5
$SG175629 DB	'ecpsvm.c', 00H
	ORG $+7
$SG175640 DB	'HHC01718%s Unknown subcommand %s, valid subcommands are '
	DB	':', 0aH, 00H
	ORG $+5
$SG175641 DB	'ecpsvm_helpcmd', 00H
	ORG $+1
$SG175642 DB	'ecpsvm.c', 00H
	ORG $+7
$SG175644 DB	'HHC01717%s %-9.9s    %s', 0aH, 00H
	ORG $+7
$SG175645 DB	'ecpsvm_helpcmd', 00H
	ORG $+1
$SG175646 DB	'ecpsvm.c', 00H
	ORG $+7
$SG175669 DB	'HHC01719%s ECPS:VM Command processor invoked', 0aH, 00H
	ORG $+2
$SG175670 DB	'ecpsvm_command', 00H
	ORG $+1
$SG175671 DB	'ecpsvm.c', 00H
	ORG $+7
$SG175675 DB	'ecpsvm_command', 00H
	ORG $+9
$SG175674 DB	'HHC01720%s No ECPS:VM subcommand. Type "ecpsvm help" for'
	DB	' a list of valid subcommands', 0aH, 00H
	ORG $+2
$SG175676 DB	'ecpsvm.c', 00H
	ORG $+7
$SG175679 DB	'HHC01721%s Unknown ECPS:VM subcommand %s', 0aH, 00H
	ORG $+6
$SG175680 DB	'ecpsvm_command', 00H
	ORG $+1
$SG175681 DB	'ecpsvm.c', 00H
	ORG $+7
$SG175683 DB	'HHC01722%s ECPS:VM Command processor complete', 0aH, 00H
	ORG $+1
$SG175684 DB	'ecpsvm_command', 00H
	ORG $+1
$SG175685 DB	'ecpsvm.c', 00H
_DATA	ENDS
;	COMDAT xdata
xdata	SEGMENT
$unwind$s370_vfetch8 DD 011101H
	DD	0a211H
xdata	ENDS
;	COMDAT xdata
xdata	SEGMENT
$unwind$s370_vfetch4 DD 011101H
	DD	0a211H
xdata	ENDS
;	COMDAT xdata
xdata	SEGMENT
$unwind$s370_vfetch2 DD 011101H
	DD	0a211H
xdata	ENDS
;	COMDAT xdata
xdata	SEGMENT
$unwind$s370_vfetchb DD 011101H
	DD	08211H
xdata	ENDS
;	COMDAT xdata
xdata	SEGMENT
$unwind$s370_vstore8 DD 011701H
	DD	0a217H
xdata	ENDS
;	COMDAT xdata
xdata	SEGMENT
$unwind$s370_vstore4 DD 011601H
	DD	0a216H
xdata	ENDS
;	COMDAT xdata
xdata	SEGMENT
$unwind$s370_vstore2 DD 011701H
	DD	0a217H
xdata	ENDS
;	COMDAT xdata
xdata	SEGMENT
$unwind$s370_vstoreb DD 011601H
	DD	08216H
xdata	ENDS
;	COMDAT voltbl
voltbl	SEGMENT
_volmd	DW	01dH
	DW	010cH
voltbl	ENDS
;	COMDAT xdata
xdata	SEGMENT
$unwind$s370_vfetch8_full DD 032219H
	DD	0700fc213H
	DD	0600eH
	DD	imagerel __GSHandlerCheck
	DD	050H
xdata	ENDS
;	COMDAT voltbl
voltbl	SEGMENT
_volmd	DW	01dH
	DW	010cH
voltbl	ENDS
;	COMDAT xdata
xdata	SEGMENT
$unwind$s370_vfetch4_full DD 032219H
	DD	0700fa213H
	DD	0600eH
	DD	imagerel __GSHandlerCheck
	DD	048H
xdata	ENDS
;	COMDAT xdata
xdata	SEGMENT
$unwind$s370_vfetch2_full DD 011101H
	DD	08211H
xdata	ENDS
;	COMDAT voltbl
voltbl	SEGMENT
_volmd	DW	023H
	DW	0150H
voltbl	ENDS
;	COMDAT xdata
xdata	SEGMENT
$unwind$s370_vstore8_full DD 032819H
	DD	07015c219H
	DD	06014H
	DD	imagerel __GSHandlerCheck
	DD	058H
xdata	ENDS
;	COMDAT xdata
xdata	SEGMENT
$unwind$s370_vstore4_full DD 031801H
	DD	07014a218H
	DD	06013H
xdata	ENDS
;	COMDAT xdata
xdata	SEGMENT
$unwind$s370_vstore2_full DD 011701H
	DD	0a217H
xdata	ENDS
;	COMDAT xdata
xdata	SEGMENT
$unwind$s370_maddr_l DD 011701H
	DD	0a217H
xdata	ENDS
;	COMDAT xdata
xdata	SEGMENT
$unwind$s370_get_storage_key DD 010901H
	DD	04209H
xdata	ENDS
;	COMDAT xdata
xdata	SEGMENT
$unwind$s370_get_2K_storage_key DD 010901H
	DD	04209H
xdata	ENDS
;	COMDAT xdata
xdata	SEGMENT
$unwind$s370__get_storage_key DD 010d01H
	DD	0620dH
xdata	ENDS
;	COMDAT xdata
xdata	SEGMENT
$unwind$_get_storekey_ptr DD 010d01H
	DD	0220dH
xdata	ENDS
;	COMDAT xdata
xdata	SEGMENT
$unwind$fetch_dw_noswap DD 010901H
	DD	02209H
xdata	ENDS
;	COMDAT xdata
xdata	SEGMENT
$unwind$fetch_fw_noswap DD 010901H
	DD	02209H
xdata	ENDS
;	COMDAT xdata
xdata	SEGMENT
$unwind$fetch_hw_noswap DD 010901H
	DD	02209H
xdata	ENDS
voltbl	SEGMENT
_volmd	DD	0ffffffffH
	DDSymXIndex: 	FLAT:ecpsvm_showstats2
	DD	01bH
	DD	0583H
_volmd	DD	0ffffffffH
	DDSymXIndex: 	FLAT:ecpsvm_doassistsvc
	DD	02eH
	DD	0dc5H
_volmd	DD	0ffffffffH
	DDSymXIndex: 	FLAT:ecpsvm_disp_runtime
	DD	025H
	DD	0b61H
_volmd	DD	0ffffffffH
	DDSymXIndex: 	FLAT:ecpsvm_disp_incprobt
	DD	01aH
	DD	040bH
_volmd	DD	0ffffffffH
	DDSymXIndex: 	FLAT:ecpsvm_do_disp2
	DD	033H
	DD	03e4bH
_volmd	DD	0ffffffffH
	DDSymXIndex: 	FLAT:ecpsvm_do_disp1
	DD	01fH
	DD	080cH
_volmd	DD	0ffffffffH
	DDSymXIndex: 	FLAT:ecpsvm_do_scnvu
	DD	024H
	DD	0460H
_volmd	DD	0ffffffffH
	DDSymXIndex: 	FLAT:ecpsvm_unlockpage1
	DD	01fH
	DD	0403H
_volmd	DD	0ffffffffH
	DDSymXIndex: 	FLAT:ecpsvm_lockpage1
	DD	020H
	DD	02ebH
_volmd	DD	0ffffffffH
	DDSymXIndex: 	FLAT:ecpsvm_do_fretx
	DD	025H
	DD	06daH
_volmd	DD	0ffffffffH
	DDSymXIndex: 	FLAT:ecpsvm_tranbrng
	DD	024H
	DD	03b9H
_volmd	DD	0ffffffffH
	DDSymXIndex: 	FLAT:ecpsvm_dolra
	DD	038H
	DD	01a95H
_volmd	DD	0ffffffffH
	DDSymXIndex: 	FLAT:ecpsvm_doiucv
	DD	033H
	DD	078fH
_volmd	DD	0ffffffffH
	DDSymXIndex: 	FLAT:ecpsvm_dostctl
	DD	038H
	DD	0b18H
_volmd	DD	0ffffffffH
	DDSymXIndex: 	FLAT:ecpsvm_dolctl
	DD	038H
	DD	0121bH
_volmd	DD	0ffffffffH
	DDSymXIndex: 	FLAT:ecpsvm_dodiag
	DD	038H
	DD	07a0H
_volmd	DD	0ffffffffH
	DDSymXIndex: 	FLAT:ecpsvm_dosio
	DD	033H
	DD	078fH
_volmd	DD	0ffffffffH
	DDSymXIndex: 	FLAT:ecpsvm_dostosm
	DD	038H
	DD	0ca1H
_volmd	DD	0ffffffffH
	DDSymXIndex: 	FLAT:ecpsvm_dostnsm
	DD	038H
	DD	0ca1H
_volmd	DD	0ffffffffH
	DDSymXIndex: 	FLAT:ecpsvm_dolpsw
	DD	033H
	DD	0cfbH
_volmd	DD	0ffffffffH
	DDSymXIndex: 	FLAT:ecpsvm_dossm
	DD	033H
	DD	0cb0H
_volmd	DD	0ffffffffH
	DDSymXIndex: 	FLAT:s370_ecpsvm_extended_freex
	DD	01cH
	DD	0ae5H
_volmd	DD	0ffffffffH
	DDSymXIndex: 	FLAT:s370_ecpsvm_store_level
	DD	02fH
	DD	0944H
_volmd	DD	0ffffffffH
	DDSymXIndex: 	FLAT:s370_ecpsvm_locate_rblock
	DD	01bH
	DD	09c9H
_volmd	DD	0ffffffffH
	DDSymXIndex: 	FLAT:s370_ecpsvm_dispatch_main
	DD	01bH
	DD	019adH
_volmd	DD	0ffffffffH
	DDSymXIndex: 	FLAT:s370_ecpsvm_inval_segtab
	DD	01bH
	DD	05f5H
_volmd	DD	0ffffffffH
	DDSymXIndex: 	FLAT:s370_ecpsvm_lock_page
	DD	01bH
	DD	04ddH
voltbl	ENDS
xdata	SEGMENT
$unwind$s370_ecpsvm_basic_freex DD 010e01H
	DD	0c20eH
$unwind$s370_ecpsvm_basic_fretx DD 010e01H
	DD	0c20eH
$unwind$s370_ecpsvm_lock_page DD 022319H
	DD	02f0111H
	DD	imagerel __GSHandlerCheck
	DD	0160H
$unwind$s370_ecpsvm_unlock_page DD 010e01H
	DD	0c20eH
$unwind$s370_ecpsvm_decode_next_ccw DD 010e01H
	DD	0e20eH
$unwind$s370_ecpsvm_free_ccwstor DD 021101H
	DD	0110111H
$unwind$s370_ecpsvm_locate_vblock DD 010e01H
	DD	0c20eH
$unwind$s370_ecpsvm_disp1 DD 010e01H
	DD	0c20eH
$unwind$s370_ecpsvm_tpage DD 010e01H
	DD	0c20eH
$unwind$s370_ecpsvm_tpage_lock DD 010e01H
	DD	0c20eH
$unwind$s370_ecpsvm_inval_segtab DD 022319H
	DD	0310111H
	DD	imagerel __GSHandlerCheck
	DD	0170H
$unwind$s370_ecpsvm_inval_ptable DD 010e01H
	DD	0c20eH
$unwind$s370_ecpsvm_decode_first_ccw DD 010e01H
	DD	0c20eH
$unwind$s370_ecpsvm_dispatch_main DD 022319H
	DD	0370111H
	DD	imagerel __GSHandlerCheck
	DD	01a0H
$unwind$s370_ecpsvm_locate_rblock DD 022319H
	DD	0350111H
	DD	imagerel __GSHandlerCheck
	DD	0190H
$unwind$s370_ecpsvm_comm_ccwproc DD 021101H
	DD	0170111H
$unwind$s370_ecpsvm_unxlate_ccw DD 010e01H
	DD	0e20eH
$unwind$s370_ecpsvm_disp2 DD 010e01H
	DD	0c20eH
$unwind$s370_ecpsvm_store_level DD 043619H
	DD	02c5b0119H
	DD	0500b700cH
	DD	imagerel __GSHandlerCheck
	DD	016204H
	DD	0c0H
	DD	080H
$unwind$s370_ecpsvm_loc_chgshrpg DD 021101H
	DD	0130111H
$unwind$s370_ecpsvm_extended_freex DD 032419H
	DD	0340112H
	DD	0700bH
	DD	imagerel __GSHandlerCheck
	DD	0190H
$unwind$s370_ecpsvm_extended_fretx DD 010e01H
	DD	0e20eH
$unwind$s370_ecpsvm_prefmach_assist DD 010e01H
	DD	0c20eH
$unwind$ecpsvm_dosvc DD 010d01H
	DD	0820dH
$unwind$ecpsvm_dossm DD 043a19H
	DD	058ab011dH
	DD	0500f7010H
	DD	imagerel __GSHandlerCheck
	DD	02c484H
	DD	0c0H
	DD	080H
$unwind$ecpsvm_dolpsw DD 043a19H
	DD	0588b011dH
	DD	0500f7010H
	DD	imagerel __GSHandlerCheck
	DD	02c384H
	DD	0c0H
	DD	080H
$unwind$ecpsvm_dostnsm DD 043f19H
	DD	0588b0122H
	DD	050147015H
	DD	imagerel __GSHandlerCheck
	DD	02c384H
	DD	0c0H
	DD	080H
$unwind$ecpsvm_dostosm DD 043f19H
	DD	0588b0122H
	DD	050147015H
	DD	imagerel __GSHandlerCheck
	DD	02c384H
	DD	0c0H
	DD	080H
$unwind$ecpsvm_dosio DD 043a19H
	DD	02c7b011dH
	DD	0500f7010H
	DD	imagerel __GSHandlerCheck
	DD	016304H
	DD	0c0H
	DD	080H
$unwind$ecpsvm_dodiag DD 043f19H
	DD	02c7b0122H
	DD	050147015H
	DD	imagerel __GSHandlerCheck
	DD	016304H
	DD	0c0H
	DD	080H
$unwind$ecpsvm_dolctl DD 043f19H
	DD	02c930122H
	DD	050147015H
	DD	imagerel __GSHandlerCheck
	DD	0163c4H
	DD	0c0H
	DD	080H
$unwind$ecpsvm_dostctl DD 043f19H
	DD	02c830122H
	DD	050147015H
	DD	imagerel __GSHandlerCheck
	DD	016344H
	DD	0c0H
	DD	080H
$unwind$ecpsvm_doiucv DD 043a19H
	DD	02c7b011dH
	DD	0500f7010H
	DD	imagerel __GSHandlerCheck
	DD	016304H
	DD	0c0H
	DD	080H
$unwind$ecpsvm_dolra DD 043f19H
	DD	02c8b0122H
	DD	050147015H
	DD	imagerel __GSHandlerCheck
	DD	016384H
	DD	0c0H
	DD	080H
$unwind$Interrupt_Lock_Obtained DD 010e01H
	DD	0420eH
$unwind$Obtain_Interrupt_Lock DD 010e01H
	DD	0420eH
$unwind$Release_Interrupt_Lock DD 010e01H
	DD	0420eH
$unwind$ecpsvm_getcmdent DD 010901H
	DD	08209H
$unwind$ecpsvm_int_lra DD 011201H
	DD	06212H
$unwind$ecpsvm_tranbrng DD 022c19H
	DD	02f011aH
	DD	imagerel __GSHandlerCheck
	DD	0160H
$unwind$ecpsvm_get_trace_entry DD 010901H
	DD	06209H
$unwind$ecpsvm_do_fretx DD 022d19H
	DD	031011bH
	DD	imagerel __GSHandlerCheck
	DD	0170H
$unwind$ecpsvm_lockpage1 DD 022819H
	DD	02f0116H
	DD	imagerel __GSHandlerCheck
	DD	0160H
$unwind$ecpsvm_unlockpage1 DD 022719H
	DD	02f0115H
	DD	imagerel __GSHandlerCheck
	DD	0160H
$unwind$ecpsvm_do_deccw1 DD 011701H
	DD	0e217H
$unwind$ecpsvm_do_scnvu DD 022c19H
	DD	02f011aH
	DD	imagerel __GSHandlerCheck
	DD	0160H
$unwind$ecpsvm_do_disp1 DD 022719H
	DD	02f0115H
	DD	imagerel __GSHandlerCheck
	DD	0160H
$unwind$ecpsvm_do_disp2 DD 043a19H
	DD	058f3011dH
	DD	0500f7010H
	DD	imagerel __GSHandlerCheck
	DD	02c6c4H
	DD	0c0H
	DD	080H
$unwind$ecpsvm_zappage DD 021301H
	DD	0700f7213H
$unwind$ecpsvm_disp_incprobt DD 022219H
	DD	02f0110H
	DD	imagerel __GSHandlerCheck
	DD	0160H
$unwind$ecpsvm_disp_runtime DD 022d19H
	DD	035011bH
	DD	imagerel __GSHandlerCheck
	DD	0190H
$unwind$ecpsvm_check_pswtrans DD 011801H
	DD	0a218H
$unwind$ecpsvm_doCPlink DD 010901H
	DD	0e209H
$unwind$ecpsvm_doCPretrn DD 010901H
	DD	0e209H
$unwind$ecpsvm_doassistsvc DD 043519H
	DD	0588b0118H
	DD	0500a700bH
	DD	imagerel __GSHandlerCheck
	DD	02c384H
	DD	0c0H
	DD	080H
$unwind$ecpsvm_sortstats DD 010e01H
	DD	0220eH
$unwind$ecpsvm_showstats2 DD 022319H
	DD	01d0111H
	DD	imagerel __GSHandlerCheck
	DD	0d0H
$unwind$ecpsvm_showstats DD 030f01H
	DD	0700be20fH
	DD	0600aH
$unwind$ecpsvm_findstat DD 010e01H
	DD	0820eH
$unwind$ecpsvm_enadisaall DD 021b01H
	DD	013011bH
$unwind$ecpsvm_enable_disable DD 021a01H
	DD	019011aH
$unwind$ecpsvm_disable DD 010d01H
	DD	0420dH
$unwind$ecpsvm_enable DD 010d01H
	DD	0420dH
$unwind$ecpsvm_debug DD 010d01H
	DD	0420dH
$unwind$ecpsvm_nodebug DD 010d01H
	DD	0420dH
$unwind$ecpsvm_level DD 010d01H
	DD	0a20dH
$unwind$ecpsvm_helpcmd DD 010d01H
	DD	0c20dH
$unwind$ecpsvm_helpcmdlist DD 010401H
	DD	0c204H
$unwind$ecpsvm_command DD 010d01H
	DD	0a20dH
xdata	ENDS
; Function compile flags: /Odtp
; File C:\papa\MyGit\hyperion-zvector\ecpsvm.c
_TEXT	SEGMENT
ce$ = 64
tv88 = 72
ac$ = 96
av$ = 104
ecpsvm_command PROC

; 5109 : {

$LN5:
  00000	48 89 54 24 10	 mov	 QWORD PTR [rsp+16], rdx
  00005	89 4c 24 08	 mov	 DWORD PTR [rsp+8], ecx
  00009	48 83 ec 58	 sub	 rsp, 88			; 00000058H

; 5110 :     ECPSVM_CMDENT  *ce;
; 5111 : 
; 5112 :     // "ECPS:VM Command processor invoked"
; 5113 :     WRMSG( HHC01719, "I" );

  0000d	b9 01 00 00 00	 mov	 ecx, 1
  00012	ff 15 00 00 00
	00		 call	 QWORD PTR __imp___acrt_iob_func
  00018	48 8d 0d 00 00
	00 00		 lea	 rcx, OFFSET FLAT:$SG175668
  0001f	48 89 4c 24 30	 mov	 QWORD PTR [rsp+48], rcx
  00024	48 8d 0d 00 00
	00 00		 lea	 rcx, OFFSET FLAT:$SG175669
  0002b	48 89 4c 24 28	 mov	 QWORD PTR [rsp+40], rcx
  00030	48 89 44 24 20	 mov	 QWORD PTR [rsp+32], rax
  00035	41 b9 03 00 00
	00		 mov	 r9d, 3
  0003b	4c 8d 05 00 00
	00 00		 lea	 r8, OFFSET FLAT:$SG175670
  00042	ba f9 13 00 00	 mov	 edx, 5113		; 000013f9H
  00047	48 8d 0d 00 00
	00 00		 lea	 rcx, OFFSET FLAT:$SG175671
  0004e	ff 15 00 00 00
	00		 call	 QWORD PTR __imp_fwritemsg

; 5114 : 
; 5115 :     if (ac <= 1)

  00054	83 7c 24 60 01	 cmp	 DWORD PTR ac$[rsp], 1
  00059	7f 51		 jg	 SHORT $LN2@ecpsvm_com

; 5116 :     {
; 5117 :         // "No ECPS:VM subcommand. Type \"ecpsvm help\" for a list of valid subcommands"
; 5118 :         WRMSG( HHC01720, "E" );

  0005b	b9 01 00 00 00	 mov	 ecx, 1
  00060	ff 15 00 00 00
	00		 call	 QWORD PTR __imp___acrt_iob_func
  00066	48 8d 0d 00 00
	00 00		 lea	 rcx, OFFSET FLAT:$SG175673
  0006d	48 89 4c 24 30	 mov	 QWORD PTR [rsp+48], rcx
  00072	48 8d 0d 00 00
	00 00		 lea	 rcx, OFFSET FLAT:$SG175674
  00079	48 89 4c 24 28	 mov	 QWORD PTR [rsp+40], rcx
  0007e	48 89 44 24 20	 mov	 QWORD PTR [rsp+32], rax
  00083	41 b9 03 00 00
	00		 mov	 r9d, 3
  00089	4c 8d 05 00 00
	00 00		 lea	 r8, OFFSET FLAT:$SG175675
  00090	ba fe 13 00 00	 mov	 edx, 5118		; 000013feH
  00095	48 8d 0d 00 00
	00 00		 lea	 rcx, OFFSET FLAT:$SG175676
  0009c	ff 15 00 00 00
	00		 call	 QWORD PTR __imp_fwritemsg

; 5119 :         return -1;

  000a2	b8 ff ff ff ff	 mov	 eax, -1
  000a7	e9 f6 00 00 00	 jmp	 $LN1@ecpsvm_com
$LN2@ecpsvm_com:

; 5120 :     }
; 5121 : 
; 5122 :     if (!(ce = ecpsvm_getcmdent( av[1] )))

  000ac	b8 08 00 00 00	 mov	 eax, 8
  000b1	48 6b c0 01	 imul	 rax, rax, 1
  000b5	48 8b 4c 24 68	 mov	 rcx, QWORD PTR av$[rsp]
  000ba	48 8b 0c 01	 mov	 rcx, QWORD PTR [rcx+rax]
  000be	e8 00 00 00 00	 call	 ecpsvm_getcmdent
  000c3	48 89 44 24 40	 mov	 QWORD PTR ce$[rsp], rax
  000c8	48 83 7c 24 40
	00		 cmp	 QWORD PTR ce$[rsp], 0
  000ce	75 6f		 jne	 SHORT $LN3@ecpsvm_com

; 5123 :     {
; 5124 :         // "Unknown ECPS:VM subcommand %s"
; 5125 :         WRMSG( HHC01721, "E", av[1] );

  000d0	b8 08 00 00 00	 mov	 eax, 8
  000d5	48 6b c0 01	 imul	 rax, rax, 1
  000d9	48 89 44 24 48	 mov	 QWORD PTR tv88[rsp], rax
  000de	b9 01 00 00 00	 mov	 ecx, 1
  000e3	ff 15 00 00 00
	00		 call	 QWORD PTR __imp___acrt_iob_func
  000e9	48 8b 4c 24 68	 mov	 rcx, QWORD PTR av$[rsp]
  000ee	48 8b 54 24 48	 mov	 rdx, QWORD PTR tv88[rsp]
  000f3	48 8b 0c 11	 mov	 rcx, QWORD PTR [rcx+rdx]
  000f7	48 89 4c 24 38	 mov	 QWORD PTR [rsp+56], rcx
  000fc	48 8d 0d 00 00
	00 00		 lea	 rcx, OFFSET FLAT:$SG175678
  00103	48 89 4c 24 30	 mov	 QWORD PTR [rsp+48], rcx
  00108	48 8d 0d 00 00
	00 00		 lea	 rcx, OFFSET FLAT:$SG175679
  0010f	48 89 4c 24 28	 mov	 QWORD PTR [rsp+40], rcx
  00114	48 89 44 24 20	 mov	 QWORD PTR [rsp+32], rax
  00119	41 b9 03 00 00
	00		 mov	 r9d, 3
  0011f	4c 8d 05 00 00
	00 00		 lea	 r8, OFFSET FLAT:$SG175680
  00126	ba 05 14 00 00	 mov	 edx, 5125		; 00001405H
  0012b	48 8d 0d 00 00
	00 00		 lea	 rcx, OFFSET FLAT:$SG175681
  00132	ff 15 00 00 00
	00		 call	 QWORD PTR __imp_fwritemsg

; 5126 :         return -1;

  00138	b8 ff ff ff ff	 mov	 eax, -1
  0013d	eb 63		 jmp	 SHORT $LN1@ecpsvm_com
$LN3@ecpsvm_com:

; 5127 :     }
; 5128 : 
; 5129 :     ce->fun( ac-1, av+1 );

  0013f	48 8b 44 24 68	 mov	 rax, QWORD PTR av$[rsp]
  00144	48 83 c0 08	 add	 rax, 8
  00148	8b 4c 24 60	 mov	 ecx, DWORD PTR ac$[rsp]
  0014c	ff c9		 dec	 ecx
  0014e	48 8b d0	 mov	 rdx, rax
  00151	48 8b 44 24 40	 mov	 rax, QWORD PTR ce$[rsp]
  00156	ff 50 10	 call	 QWORD PTR [rax+16]

; 5130 : 
; 5131 :     // "ECPS:VM Command processor complete"
; 5132 :     WRMSG( HHC01722, "I" );

  00159	b9 01 00 00 00	 mov	 ecx, 1
  0015e	ff 15 00 00 00
	00		 call	 QWORD PTR __imp___acrt_iob_func
  00164	48 8d 0d 00 00
	00 00		 lea	 rcx, OFFSET FLAT:$SG175682
  0016b	48 89 4c 24 30	 mov	 QWORD PTR [rsp+48], rcx
  00170	48 8d 0d 00 00
	00 00		 lea	 rcx, OFFSET FLAT:$SG175683
  00177	48 89 4c 24 28	 mov	 QWORD PTR [rsp+40], rcx
  0017c	48 89 44 24 20	 mov	 QWORD PTR [rsp+32], rax
  00181	41 b9 03 00 00
	00		 mov	 r9d, 3
  00187	4c 8d 05 00 00
	00 00		 lea	 r8, OFFSET FLAT:$SG175684
  0018e	ba 0c 14 00 00	 mov	 edx, 5132		; 0000140cH
  00193	48 8d 0d 00 00
	00 00		 lea	 rcx, OFFSET FLAT:$SG175685
  0019a	ff 15 00 00 00
	00		 call	 QWORD PTR __imp_fwritemsg

; 5133 :     return 0;

  001a0	33 c0		 xor	 eax, eax
$LN1@ecpsvm_com:

; 5134 : }

  001a2	48 83 c4 58	 add	 rsp, 88			; 00000058H
  001a6	c3		 ret	 0
ecpsvm_command ENDP
_TEXT	ENDS
; Function compile flags: /Odtp
; File C:\papa\MyGit\hyperion-zvector\ecpsvm.c
_TEXT	SEGMENT
i$ = 80
ce$ = 88
ecpsvm_helpcmdlist PROC

; 5057 : {

  00000	48 83 ec 68	 sub	 rsp, 104		; 00000068H

; 5058 :     int i;
; 5059 :     ECPSVM_CMDENT *ce;
; 5060 : 
; 5061 :     for(i=0;ecpsvm_cmdtab[i].name;i++)

  00004	c7 44 24 50 00
	00 00 00	 mov	 DWORD PTR i$[rsp], 0
  0000c	eb 0a		 jmp	 SHORT $LN4@ecpsvm_hel
$LN2@ecpsvm_hel:
  0000e	8b 44 24 50	 mov	 eax, DWORD PTR i$[rsp]
  00012	ff c0		 inc	 eax
  00014	89 44 24 50	 mov	 DWORD PTR i$[rsp], eax
$LN4@ecpsvm_hel:
  00018	48 63 44 24 50	 movsxd	 rax, DWORD PTR i$[rsp]
  0001d	48 6b c0 28	 imul	 rax, rax, 40		; 00000028H
  00021	48 8d 0d 00 00
	00 00		 lea	 rcx, OFFSET FLAT:ecpsvm_cmdtab
  00028	48 83 3c 01 00	 cmp	 QWORD PTR [rcx+rax], 0
  0002d	0f 84 82 00 00
	00		 je	 $LN3@ecpsvm_hel

; 5062 :     {
; 5063 :         ce=&ecpsvm_cmdtab[i];

  00033	48 63 44 24 50	 movsxd	 rax, DWORD PTR i$[rsp]
  00038	48 6b c0 28	 imul	 rax, rax, 40		; 00000028H
  0003c	48 8d 0d 00 00
	00 00		 lea	 rcx, OFFSET FLAT:ecpsvm_cmdtab
  00043	48 03 c8	 add	 rcx, rax
  00046	48 8b c1	 mov	 rax, rcx
  00049	48 89 44 24 58	 mov	 QWORD PTR ce$[rsp], rax

; 5064 :         WRMSG(HHC01717,"I",ce->name,ce->expl);

  0004e	b9 01 00 00 00	 mov	 ecx, 1
  00053	ff 15 00 00 00
	00		 call	 QWORD PTR __imp___acrt_iob_func
  00059	48 8b 4c 24 58	 mov	 rcx, QWORD PTR ce$[rsp]
  0005e	48 8b 49 18	 mov	 rcx, QWORD PTR [rcx+24]
  00062	48 89 4c 24 40	 mov	 QWORD PTR [rsp+64], rcx
  00067	48 8b 4c 24 58	 mov	 rcx, QWORD PTR ce$[rsp]
  0006c	48 8b 09	 mov	 rcx, QWORD PTR [rcx]
  0006f	48 89 4c 24 38	 mov	 QWORD PTR [rsp+56], rcx
  00074	48 8d 0d 00 00
	00 00		 lea	 rcx, OFFSET FLAT:$SG175626
  0007b	48 89 4c 24 30	 mov	 QWORD PTR [rsp+48], rcx
  00080	48 8d 0d 00 00
	00 00		 lea	 rcx, OFFSET FLAT:$SG175627
  00087	48 89 4c 24 28	 mov	 QWORD PTR [rsp+40], rcx
  0008c	48 89 44 24 20	 mov	 QWORD PTR [rsp+32], rax
  00091	41 b9 03 00 00
	00		 mov	 r9d, 3
  00097	4c 8d 05 00 00
	00 00		 lea	 r8, OFFSET FLAT:$SG175628
  0009e	ba c8 13 00 00	 mov	 edx, 5064		; 000013c8H
  000a3	48 8d 0d 00 00
	00 00		 lea	 rcx, OFFSET FLAT:$SG175629
  000aa	ff 15 00 00 00
	00		 call	 QWORD PTR __imp_fwritemsg

; 5065 :     }

  000b0	e9 59 ff ff ff	 jmp	 $LN2@ecpsvm_hel
$LN3@ecpsvm_hel:

; 5066 :     return;
; 5067 : }

  000b5	48 83 c4 68	 add	 rsp, 104		; 00000068H
  000b9	c3		 ret	 0
ecpsvm_helpcmdlist ENDP
_TEXT	ENDS
; Function compile flags: /Odtp
; File C:\papa\MyGit\hyperion-zvector\ecpsvm.c
_TEXT	SEGMENT
ce$ = 80
tv70 = 88
ac$ = 112
av$ = 120
ecpsvm_helpcmd PROC

; 5070 : {

  00000	48 89 54 24 10	 mov	 QWORD PTR [rsp+16], rdx
  00005	89 4c 24 08	 mov	 DWORD PTR [rsp+8], ecx
  00009	48 83 ec 68	 sub	 rsp, 104		; 00000068H

; 5071 :     ECPSVM_CMDENT *ce;
; 5072 :     if(ac==1)

  0000d	83 7c 24 70 01	 cmp	 DWORD PTR ac$[rsp], 1
  00012	75 0a		 jne	 SHORT $LN2@ecpsvm_hel

; 5073 :     {
; 5074 :         ecpsvm_helpcmdlist();

  00014	e8 00 00 00 00	 call	 ecpsvm_helpcmdlist

; 5075 :         return;

  00019	e9 f5 00 00 00	 jmp	 $LN1@ecpsvm_hel
$LN2@ecpsvm_hel:

; 5076 :     }
; 5077 :     ce=ecpsvm_getcmdent(av[1]);

  0001e	b8 08 00 00 00	 mov	 eax, 8
  00023	48 6b c0 01	 imul	 rax, rax, 1
  00027	48 8b 4c 24 78	 mov	 rcx, QWORD PTR av$[rsp]
  0002c	48 8b 0c 01	 mov	 rcx, QWORD PTR [rcx+rax]
  00030	e8 00 00 00 00	 call	 ecpsvm_getcmdent
  00035	48 89 44 24 50	 mov	 QWORD PTR ce$[rsp], rax

; 5078 :     if(ce==NULL)

  0003a	48 83 7c 24 50
	00		 cmp	 QWORD PTR ce$[rsp], 0
  00040	75 6f		 jne	 SHORT $LN3@ecpsvm_hel

; 5079 :     {
; 5080 :         WRMSG(HHC01718,"E",av[1]);

  00042	b8 08 00 00 00	 mov	 eax, 8
  00047	48 6b c0 01	 imul	 rax, rax, 1
  0004b	48 89 44 24 58	 mov	 QWORD PTR tv70[rsp], rax
  00050	b9 01 00 00 00	 mov	 ecx, 1
  00055	ff 15 00 00 00
	00		 call	 QWORD PTR __imp___acrt_iob_func
  0005b	48 8b 4c 24 78	 mov	 rcx, QWORD PTR av$[rsp]
  00060	48 8b 54 24 58	 mov	 rdx, QWORD PTR tv70[rsp]
  00065	48 8b 0c 11	 mov	 rcx, QWORD PTR [rcx+rdx]
  00069	48 89 4c 24 38	 mov	 QWORD PTR [rsp+56], rcx
  0006e	48 8d 0d 00 00
	00 00		 lea	 rcx, OFFSET FLAT:$SG175639
  00075	48 89 4c 24 30	 mov	 QWORD PTR [rsp+48], rcx
  0007a	48 8d 0d 00 00
	00 00		 lea	 rcx, OFFSET FLAT:$SG175640
  00081	48 89 4c 24 28	 mov	 QWORD PTR [rsp+40], rcx
  00086	48 89 44 24 20	 mov	 QWORD PTR [rsp+32], rax
  0008b	41 b9 03 00 00
	00		 mov	 r9d, 3
  00091	4c 8d 05 00 00
	00 00		 lea	 r8, OFFSET FLAT:$SG175641
  00098	ba d8 13 00 00	 mov	 edx, 5080		; 000013d8H
  0009d	48 8d 0d 00 00
	00 00		 lea	 rcx, OFFSET FLAT:$SG175642
  000a4	ff 15 00 00 00
	00		 call	 QWORD PTR __imp_fwritemsg

; 5081 :         ecpsvm_helpcmdlist();

  000aa	e8 00 00 00 00	 call	 ecpsvm_helpcmdlist

; 5082 :         return;

  000af	eb 62		 jmp	 SHORT $LN1@ecpsvm_hel
$LN3@ecpsvm_hel:

; 5083 :     }
; 5084 :     WRMSG(HHC01717,"I",ce->name,ce->help);

  000b1	b9 01 00 00 00	 mov	 ecx, 1
  000b6	ff 15 00 00 00
	00		 call	 QWORD PTR __imp___acrt_iob_func
  000bc	48 8b 4c 24 50	 mov	 rcx, QWORD PTR ce$[rsp]
  000c1	48 8b 49 20	 mov	 rcx, QWORD PTR [rcx+32]
  000c5	48 89 4c 24 40	 mov	 QWORD PTR [rsp+64], rcx
  000ca	48 8b 4c 24 50	 mov	 rcx, QWORD PTR ce$[rsp]
  000cf	48 8b 09	 mov	 rcx, QWORD PTR [rcx]
  000d2	48 89 4c 24 38	 mov	 QWORD PTR [rsp+56], rcx
  000d7	48 8d 0d 00 00
	00 00		 lea	 rcx, OFFSET FLAT:$SG175643
  000de	48 89 4c 24 30	 mov	 QWORD PTR [rsp+48], rcx
  000e3	48 8d 0d 00 00
	00 00		 lea	 rcx, OFFSET FLAT:$SG175644
  000ea	48 89 4c 24 28	 mov	 QWORD PTR [rsp+40], rcx
  000ef	48 89 44 24 20	 mov	 QWORD PTR [rsp+32], rax
  000f4	41 b9 03 00 00
	00		 mov	 r9d, 3
  000fa	4c 8d 05 00 00
	00 00		 lea	 r8, OFFSET FLAT:$SG175645
  00101	ba dc 13 00 00	 mov	 edx, 5084		; 000013dcH
  00106	48 8d 0d 00 00
	00 00		 lea	 rcx, OFFSET FLAT:$SG175646
  0010d	ff 15 00 00 00
	00		 call	 QWORD PTR __imp_fwritemsg
$LN1@ecpsvm_hel:

; 5085 :     return;
; 5086 : }

  00113	48 83 c4 68	 add	 rsp, 104		; 00000068H
  00117	c3		 ret	 0
ecpsvm_helpcmd ENDP
_TEXT	ENDS
; Function compile flags: /Odtp
; File C:\papa\MyGit\hyperion-zvector\ecpsvm.c
_TEXT	SEGMENT
lvl$ = 64
tv65 = 68
tv145 = 72
ac$ = 96
av$ = 104
ecpsvm_level PROC

; 5005 : {

$LN6:
  00000	48 89 54 24 10	 mov	 QWORD PTR [rsp+16], rdx
  00005	89 4c 24 08	 mov	 DWORD PTR [rsp+8], ecx
  00009	48 83 ec 58	 sub	 rsp, 88			; 00000058H

; 5006 :     int lvl;
; 5007 : 
; 5008 :     WRMSG(HHC01712,"I",sysblk.ecpsvm.level);

  0000d	48 8b 05 00 00
	00 00		 mov	 rax, QWORD PTR __imp_sysblk
  00014	8b 80 44 13 00
	00		 mov	 eax, DWORD PTR [rax+4932]
  0001a	25 ff ff 00 00	 and	 eax, 65535		; 0000ffffH
  0001f	89 44 24 44	 mov	 DWORD PTR tv65[rsp], eax
  00023	b9 01 00 00 00	 mov	 ecx, 1
  00028	ff 15 00 00 00
	00		 call	 QWORD PTR __imp___acrt_iob_func
  0002e	8b 4c 24 44	 mov	 ecx, DWORD PTR tv65[rsp]
  00032	89 4c 24 38	 mov	 DWORD PTR [rsp+56], ecx
  00036	48 8d 0d 00 00
	00 00		 lea	 rcx, OFFSET FLAT:$SG175566
  0003d	48 89 4c 24 30	 mov	 QWORD PTR [rsp+48], rcx
  00042	48 8d 0d 00 00
	00 00		 lea	 rcx, OFFSET FLAT:$SG175567
  00049	48 89 4c 24 28	 mov	 QWORD PTR [rsp+40], rcx
  0004e	48 89 44 24 20	 mov	 QWORD PTR [rsp+32], rax
  00053	41 b9 03 00 00
	00		 mov	 r9d, 3
  00059	4c 8d 05 00 00
	00 00		 lea	 r8, OFFSET FLAT:$SG175568
  00060	ba 90 13 00 00	 mov	 edx, 5008		; 00001390H
  00065	48 8d 0d 00 00
	00 00		 lea	 rcx, OFFSET FLAT:$SG175569
  0006c	ff 15 00 00 00
	00		 call	 QWORD PTR __imp_fwritemsg

; 5009 :     if(!sysblk.ecpsvm.available)

  00072	48 8b 05 00 00
	00 00		 mov	 rax, QWORD PTR __imp_sysblk
  00079	8b 80 44 13 00
	00		 mov	 eax, DWORD PTR [rax+4932]
  0007f	c1 e8 11	 shr	 eax, 17
  00082	83 e0 01	 and	 eax, 1
  00085	85 c0		 test	 eax, eax
  00087	75 47		 jne	 SHORT $LN2@ecpsvm_lev

; 5010 :         WRMSG(HHC01713,"I");

  00089	b9 01 00 00 00	 mov	 ecx, 1
  0008e	ff 15 00 00 00
	00		 call	 QWORD PTR __imp___acrt_iob_func
  00094	48 8d 0d 00 00
	00 00		 lea	 rcx, OFFSET FLAT:$SG175571
  0009b	48 89 4c 24 30	 mov	 QWORD PTR [rsp+48], rcx
  000a0	48 8d 0d 00 00
	00 00		 lea	 rcx, OFFSET FLAT:$SG175572
  000a7	48 89 4c 24 28	 mov	 QWORD PTR [rsp+40], rcx
  000ac	48 89 44 24 20	 mov	 QWORD PTR [rsp+32], rax
  000b1	41 b9 03 00 00
	00		 mov	 r9d, 3
  000b7	4c 8d 05 00 00
	00 00		 lea	 r8, OFFSET FLAT:$SG175573
  000be	ba 92 13 00 00	 mov	 edx, 5010		; 00001392H
  000c3	48 8d 0d 00 00
	00 00		 lea	 rcx, OFFSET FLAT:$SG175574
  000ca	ff 15 00 00 00
	00		 call	 QWORD PTR __imp_fwritemsg
$LN2@ecpsvm_lev:

; 5011 : 
; 5012 :     if( ac > 1 )

  000d0	83 7c 24 60 01	 cmp	 DWORD PTR ac$[rsp], 1
  000d5	0f 8e 98 00 00
	00		 jle	 $LN3@ecpsvm_lev

; 5013 :     {
; 5014 :         lvl=atoi(av[1]);

  000db	b8 08 00 00 00	 mov	 eax, 8
  000e0	48 6b c0 01	 imul	 rax, rax, 1
  000e4	48 8b 4c 24 68	 mov	 rcx, QWORD PTR av$[rsp]
  000e9	48 8b 0c 01	 mov	 rcx, QWORD PTR [rcx+rax]
  000ed	ff 15 00 00 00
	00		 call	 QWORD PTR __imp_atoi
  000f3	89 44 24 40	 mov	 DWORD PTR lvl$[rsp], eax

; 5015 :         WRMSG(HHC01714,"I",lvl);

  000f7	b9 01 00 00 00	 mov	 ecx, 1
  000fc	ff 15 00 00 00
	00		 call	 QWORD PTR __imp___acrt_iob_func
  00102	8b 4c 24 40	 mov	 ecx, DWORD PTR lvl$[rsp]
  00106	89 4c 24 38	 mov	 DWORD PTR [rsp+56], ecx
  0010a	48 8d 0d 00 00
	00 00		 lea	 rcx, OFFSET FLAT:$SG175576
  00111	48 89 4c 24 30	 mov	 QWORD PTR [rsp+48], rcx
  00116	48 8d 0d 00 00
	00 00		 lea	 rcx, OFFSET FLAT:$SG175577
  0011d	48 89 4c 24 28	 mov	 QWORD PTR [rsp+40], rcx
  00122	48 89 44 24 20	 mov	 QWORD PTR [rsp+32], rax
  00127	41 b9 03 00 00
	00		 mov	 r9d, 3
  0012d	4c 8d 05 00 00
	00 00		 lea	 r8, OFFSET FLAT:$SG175578
  00134	ba 97 13 00 00	 mov	 edx, 5015		; 00001397H
  00139	48 8d 0d 00 00
	00 00		 lea	 rcx, OFFSET FLAT:$SG175579
  00140	ff 15 00 00 00
	00		 call	 QWORD PTR __imp_fwritemsg

; 5016 :         sysblk.ecpsvm.level=lvl;

  00146	8b 44 24 40	 mov	 eax, DWORD PTR lvl$[rsp]
  0014a	25 ff ff 00 00	 and	 eax, 65535		; 0000ffffH
  0014f	48 8b 0d 00 00
	00 00		 mov	 rcx, QWORD PTR __imp_sysblk
  00156	8b 89 44 13 00
	00		 mov	 ecx, DWORD PTR [rcx+4932]
  0015c	81 e1 00 00 ff
	ff		 and	 ecx, -65536		; ffff0000H
  00162	0b c8		 or	 ecx, eax
  00164	8b c1		 mov	 eax, ecx
  00166	48 8b 0d 00 00
	00 00		 mov	 rcx, QWORD PTR __imp_sysblk
  0016d	89 81 44 13 00
	00		 mov	 DWORD PTR [rcx+4932], eax
$LN3@ecpsvm_lev:

; 5017 :     }
; 5018 : 
; 5019 :     if(sysblk.ecpsvm.level!=20)

  00173	48 8b 05 00 00
	00 00		 mov	 rax, QWORD PTR __imp_sysblk
  0017a	8b 80 44 13 00
	00		 mov	 eax, DWORD PTR [rax+4932]
  00180	25 ff ff 00 00	 and	 eax, 65535		; 0000ffffH
  00185	83 f8 14	 cmp	 eax, 20
  00188	0f 84 ac 00 00
	00		 je	 $LN4@ecpsvm_lev

; 5020 :     {
; 5021 :           WRMSG(HHC01715,"W",sysblk.ecpsvm.level);

  0018e	48 8b 05 00 00
	00 00		 mov	 rax, QWORD PTR __imp_sysblk
  00195	8b 80 44 13 00
	00		 mov	 eax, DWORD PTR [rax+4932]
  0019b	25 ff ff 00 00	 and	 eax, 65535		; 0000ffffH
  001a0	89 44 24 48	 mov	 DWORD PTR tv145[rsp], eax
  001a4	b9 01 00 00 00	 mov	 ecx, 1
  001a9	ff 15 00 00 00
	00		 call	 QWORD PTR __imp___acrt_iob_func
  001af	8b 4c 24 48	 mov	 ecx, DWORD PTR tv145[rsp]
  001b3	89 4c 24 38	 mov	 DWORD PTR [rsp+56], ecx
  001b7	48 8d 0d 00 00
	00 00		 lea	 rcx, OFFSET FLAT:$SG175581
  001be	48 89 4c 24 30	 mov	 QWORD PTR [rsp+48], rcx
  001c3	48 8d 0d 00 00
	00 00		 lea	 rcx, OFFSET FLAT:$SG175582
  001ca	48 89 4c 24 28	 mov	 QWORD PTR [rsp+40], rcx
  001cf	48 89 44 24 20	 mov	 QWORD PTR [rsp+32], rax
  001d4	41 b9 03 00 00
	00		 mov	 r9d, 3
  001da	4c 8d 05 00 00
	00 00		 lea	 r8, OFFSET FLAT:$SG175583
  001e1	ba 9d 13 00 00	 mov	 edx, 5021		; 0000139dH
  001e6	48 8d 0d 00 00
	00 00		 lea	 rcx, OFFSET FLAT:$SG175584
  001ed	ff 15 00 00 00
	00		 call	 QWORD PTR __imp_fwritemsg

; 5022 :           WRMSG(HHC01716,"I");

  001f3	b9 01 00 00 00	 mov	 ecx, 1
  001f8	ff 15 00 00 00
	00		 call	 QWORD PTR __imp___acrt_iob_func
  001fe	48 8d 0d 00 00
	00 00		 lea	 rcx, OFFSET FLAT:$SG175585
  00205	48 89 4c 24 30	 mov	 QWORD PTR [rsp+48], rcx
  0020a	48 8d 0d 00 00
	00 00		 lea	 rcx, OFFSET FLAT:$SG175586
  00211	48 89 4c 24 28	 mov	 QWORD PTR [rsp+40], rcx
  00216	48 89 44 24 20	 mov	 QWORD PTR [rsp+32], rax
  0021b	41 b9 03 00 00
	00		 mov	 r9d, 3
  00221	4c 8d 05 00 00
	00 00		 lea	 r8, OFFSET FLAT:$SG175587
  00228	ba 9e 13 00 00	 mov	 edx, 5022		; 0000139eH
  0022d	48 8d 0d 00 00
	00 00		 lea	 rcx, OFFSET FLAT:$SG175588
  00234	ff 15 00 00 00
	00		 call	 QWORD PTR __imp_fwritemsg
$LN4@ecpsvm_lev:

; 5023 :     }
; 5024 : }

  0023a	48 83 c4 58	 add	 rsp, 88			; 00000058H
  0023e	c3		 ret	 0
ecpsvm_level ENDP
_TEXT	ENDS
; Function compile flags: /Odtp
; File C:\papa\MyGit\hyperion-zvector\ecpsvm.c
_TEXT	SEGMENT
ac$ = 48
av$ = 56
ecpsvm_nodebug PROC

; 5002 : void ecpsvm_nodebug (int ac, char **av) { ecpsvm_enable_disable( ac, av, -1,  0 ); }

$LN3:
  00000	48 89 54 24 10	 mov	 QWORD PTR [rsp+16], rdx
  00005	89 4c 24 08	 mov	 DWORD PTR [rsp+8], ecx
  00009	48 83 ec 28	 sub	 rsp, 40			; 00000028H
  0000d	45 33 c9	 xor	 r9d, r9d
  00010	41 b8 ff ff ff
	ff		 mov	 r8d, -1
  00016	48 8b 54 24 38	 mov	 rdx, QWORD PTR av$[rsp]
  0001b	8b 4c 24 30	 mov	 ecx, DWORD PTR ac$[rsp]
  0001f	e8 00 00 00 00	 call	 ecpsvm_enable_disable
  00024	48 83 c4 28	 add	 rsp, 40			; 00000028H
  00028	c3		 ret	 0
ecpsvm_nodebug ENDP
_TEXT	ENDS
; Function compile flags: /Odtp
; File C:\papa\MyGit\hyperion-zvector\ecpsvm.c
_TEXT	SEGMENT
ac$ = 48
av$ = 56
ecpsvm_debug PROC

; 5001 : void ecpsvm_debug   (int ac, char **av) { ecpsvm_enable_disable( ac, av, -1,  1 ); }

$LN3:
  00000	48 89 54 24 10	 mov	 QWORD PTR [rsp+16], rdx
  00005	89 4c 24 08	 mov	 DWORD PTR [rsp+8], ecx
  00009	48 83 ec 28	 sub	 rsp, 40			; 00000028H
  0000d	41 b9 01 00 00
	00		 mov	 r9d, 1
  00013	41 b8 ff ff ff
	ff		 mov	 r8d, -1
  00019	48 8b 54 24 38	 mov	 rdx, QWORD PTR av$[rsp]
  0001e	8b 4c 24 30	 mov	 ecx, DWORD PTR ac$[rsp]
  00022	e8 00 00 00 00	 call	 ecpsvm_enable_disable
  00027	48 83 c4 28	 add	 rsp, 40			; 00000028H
  0002b	c3		 ret	 0
ecpsvm_debug ENDP
_TEXT	ENDS
; Function compile flags: /Odtp
; File C:\papa\MyGit\hyperion-zvector\ecpsvm.c
_TEXT	SEGMENT
ac$ = 48
av$ = 56
ecpsvm_enable PROC

; 5000 : void ecpsvm_enable  (int ac, char **av) { ecpsvm_enable_disable( ac, av,  1, -1 ); }

$LN3:
  00000	48 89 54 24 10	 mov	 QWORD PTR [rsp+16], rdx
  00005	89 4c 24 08	 mov	 DWORD PTR [rsp+8], ecx
  00009	48 83 ec 28	 sub	 rsp, 40			; 00000028H
  0000d	41 b9 ff ff ff
	ff		 mov	 r9d, -1
  00013	41 b8 01 00 00
	00		 mov	 r8d, 1
  00019	48 8b 54 24 38	 mov	 rdx, QWORD PTR av$[rsp]
  0001e	8b 4c 24 30	 mov	 ecx, DWORD PTR ac$[rsp]
  00022	e8 00 00 00 00	 call	 ecpsvm_enable_disable
  00027	48 83 c4 28	 add	 rsp, 40			; 00000028H
  0002b	c3		 ret	 0
ecpsvm_enable ENDP
_TEXT	ENDS
; Function compile flags: /Odtp
; File C:\papa\MyGit\hyperion-zvector\ecpsvm.c
_TEXT	SEGMENT
ac$ = 48
av$ = 56
ecpsvm_disable PROC

; 4999 : void ecpsvm_disable (int ac, char **av) { ecpsvm_enable_disable( ac, av,  0, -1 ); }

$LN3:
  00000	48 89 54 24 10	 mov	 QWORD PTR [rsp+16], rdx
  00005	89 4c 24 08	 mov	 DWORD PTR [rsp+8], ecx
  00009	48 83 ec 28	 sub	 rsp, 40			; 00000028H
  0000d	41 b9 ff ff ff
	ff		 mov	 r9d, -1
  00013	45 33 c0	 xor	 r8d, r8d
  00016	48 8b 54 24 38	 mov	 rdx, QWORD PTR av$[rsp]
  0001b	8b 4c 24 30	 mov	 ecx, DWORD PTR ac$[rsp]
  0001f	e8 00 00 00 00	 call	 ecpsvm_enable_disable
  00024	48 83 c4 28	 add	 rsp, 40			; 00000028H
  00028	c3		 ret	 0
ecpsvm_disable ENDP
_TEXT	ENDS
; Function compile flags: /Odtp
; File C:\papa\MyGit\hyperion-zvector\ecpsvm.c
_TEXT	SEGMENT
i$ = 96
es$ = 104
sacount$ = 112
sal$ = 120
cpcount$ = 128
cpl$ = 136
tv65 = 144
tv67 = 152
debugonoff$ = 160
fclass$ = 168
enadisa$ = 176
tv220 = 184
ac$ = 208
av$ = 216
onoff$ = 224
debug$ = 232
ecpsvm_enable_disable PROC

; 4933 : {

$LN19:
  00000	44 89 4c 24 20	 mov	 DWORD PTR [rsp+32], r9d
  00005	44 89 44 24 18	 mov	 DWORD PTR [rsp+24], r8d
  0000a	48 89 54 24 10	 mov	 QWORD PTR [rsp+16], rdx
  0000f	89 4c 24 08	 mov	 DWORD PTR [rsp+8], ecx
  00013	48 81 ec c8 00
	00 00		 sub	 rsp, 200		; 000000c8H

; 4934 :     char        *fclass;
; 4935 :     char        *enadisa,*debugonoff;
; 4936 :     int i;
; 4937 : 
; 4938 :     size_t      sacount,cpcount;
; 4939 :     ECPSVM_STAT *es;
; 4940 :     ECPSVM_STAT *sal,*cpl;
; 4941 : 
; 4942 :     sal=(ECPSVM_STAT *)&ecpsvm_sastats;

  0001a	48 8d 05 00 00
	00 00		 lea	 rax, OFFSET FLAT:ecpsvm_sastats
  00021	48 89 44 24 78	 mov	 QWORD PTR sal$[rsp], rax

; 4943 :     cpl=(ECPSVM_STAT *)&ecpsvm_cpstats;

  00026	48 8d 05 00 00
	00 00		 lea	 rax, OFFSET FLAT:ecpsvm_cpstats
  0002d	48 89 84 24 88
	00 00 00	 mov	 QWORD PTR cpl$[rsp], rax

; 4944 :     sacount=sizeof(ecpsvm_sastats)/sizeof(ECPSVM_STAT);

  00035	48 c7 44 24 70
	0c 00 00 00	 mov	 QWORD PTR sacount$[rsp], 12

; 4945 :     cpcount=sizeof(ecpsvm_cpstats)/sizeof(ECPSVM_STAT);

  0003e	48 c7 84 24 80
	00 00 00 19 00
	00 00		 mov	 QWORD PTR cpcount$[rsp], 25

; 4946 : 
; 4947 :     enadisa=onoff?"Enabled":"Disabled";

  0004a	83 bc 24 e0 00
	00 00 00	 cmp	 DWORD PTR onoff$[rsp], 0
  00052	74 11		 je	 SHORT $LN15@ecpsvm_ena
  00054	48 8d 05 00 00
	00 00		 lea	 rax, OFFSET FLAT:$SG175495
  0005b	48 89 84 24 90
	00 00 00	 mov	 QWORD PTR tv65[rsp], rax
  00063	eb 0f		 jmp	 SHORT $LN16@ecpsvm_ena
$LN15@ecpsvm_ena:
  00065	48 8d 05 00 00
	00 00		 lea	 rax, OFFSET FLAT:$SG175496
  0006c	48 89 84 24 90
	00 00 00	 mov	 QWORD PTR tv65[rsp], rax
$LN16@ecpsvm_ena:
  00074	48 8b 84 24 90
	00 00 00	 mov	 rax, QWORD PTR tv65[rsp]
  0007c	48 89 84 24 b0
	00 00 00	 mov	 QWORD PTR enadisa$[rsp], rax

; 4948 :     debugonoff=debug?"On":"Off";

  00084	83 bc 24 e8 00
	00 00 00	 cmp	 DWORD PTR debug$[rsp], 0
  0008c	74 11		 je	 SHORT $LN17@ecpsvm_ena
  0008e	48 8d 05 00 00
	00 00		 lea	 rax, OFFSET FLAT:$SG175497
  00095	48 89 84 24 98
	00 00 00	 mov	 QWORD PTR tv67[rsp], rax
  0009d	eb 0f		 jmp	 SHORT $LN18@ecpsvm_ena
$LN17@ecpsvm_ena:
  0009f	48 8d 05 00 00
	00 00		 lea	 rax, OFFSET FLAT:$SG175498
  000a6	48 89 84 24 98
	00 00 00	 mov	 QWORD PTR tv67[rsp], rax
$LN18@ecpsvm_ena:
  000ae	48 8b 84 24 98
	00 00 00	 mov	 rax, QWORD PTR tv67[rsp]
  000b6	48 89 84 24 a0
	00 00 00	 mov	 QWORD PTR debugonoff$[rsp], rax

; 4949 :     if(ac==1)

  000be	83 bc 24 d0 00
	00 00 01	 cmp	 DWORD PTR ac$[rsp], 1
  000c6	0f 85 ee 00 00
	00		 jne	 $LN5@ecpsvm_ena

; 4950 :     {
; 4951 :         ecpsvm_enadisaall("VM ASSIST",sal,sacount,onoff,debug);

  000cc	8b 84 24 e8 00
	00 00		 mov	 eax, DWORD PTR debug$[rsp]
  000d3	89 44 24 20	 mov	 DWORD PTR [rsp+32], eax
  000d7	44 8b 8c 24 e0
	00 00 00	 mov	 r9d, DWORD PTR onoff$[rsp]
  000df	4c 8b 44 24 70	 mov	 r8, QWORD PTR sacount$[rsp]
  000e4	48 8b 54 24 78	 mov	 rdx, QWORD PTR sal$[rsp]
  000e9	48 8d 0d 00 00
	00 00		 lea	 rcx, OFFSET FLAT:$SG175500
  000f0	e8 00 00 00 00	 call	 ecpsvm_enadisaall

; 4952 :         ecpsvm_enadisaall("CP ASSIST",cpl,cpcount,onoff,debug);

  000f5	8b 84 24 e8 00
	00 00		 mov	 eax, DWORD PTR debug$[rsp]
  000fc	89 44 24 20	 mov	 DWORD PTR [rsp+32], eax
  00100	44 8b 8c 24 e0
	00 00 00	 mov	 r9d, DWORD PTR onoff$[rsp]
  00108	4c 8b 84 24 80
	00 00 00	 mov	 r8, QWORD PTR cpcount$[rsp]
  00110	48 8b 94 24 88
	00 00 00	 mov	 rdx, QWORD PTR cpl$[rsp]
  00118	48 8d 0d 00 00
	00 00		 lea	 rcx, OFFSET FLAT:$SG175501
  0011f	e8 00 00 00 00	 call	 ecpsvm_enadisaall

; 4953 :         if(debug>=0)

  00124	83 bc 24 e8 00
	00 00 00	 cmp	 DWORD PTR debug$[rsp], 0
  0012c	0f 8c 83 00 00
	00		 jl	 $LN6@ecpsvm_ena

; 4954 :         {
; 4955 :             sysblk.ecpsvm.debug=debug;

  00132	8b 84 24 e8 00
	00 00		 mov	 eax, DWORD PTR debug$[rsp]
  00139	83 e0 01	 and	 eax, 1
  0013c	c1 e0 10	 shl	 eax, 16
  0013f	48 8b 0d 00 00
	00 00		 mov	 rcx, QWORD PTR __imp_sysblk
  00146	8b 89 44 13 00
	00		 mov	 ecx, DWORD PTR [rcx+4932]
  0014c	0f ba f1 10	 btr	 ecx, 16
  00150	0b c8		 or	 ecx, eax
  00152	8b c1		 mov	 eax, ecx
  00154	48 8b 0d 00 00
	00 00		 mov	 rcx, QWORD PTR __imp_sysblk
  0015b	89 81 44 13 00
	00		 mov	 DWORD PTR [rcx+4932], eax

; 4956 :             WRMSG(HHC01709,"I",debugonoff);

  00161	b9 01 00 00 00	 mov	 ecx, 1
  00166	ff 15 00 00 00
	00		 call	 QWORD PTR __imp___acrt_iob_func
  0016c	48 8b 8c 24 a0
	00 00 00	 mov	 rcx, QWORD PTR debugonoff$[rsp]
  00174	48 89 4c 24 38	 mov	 QWORD PTR [rsp+56], rcx
  00179	48 8d 0d 00 00
	00 00		 lea	 rcx, OFFSET FLAT:$SG175503
  00180	48 89 4c 24 30	 mov	 QWORD PTR [rsp+48], rcx
  00185	48 8d 0d 00 00
	00 00		 lea	 rcx, OFFSET FLAT:$SG175504
  0018c	48 89 4c 24 28	 mov	 QWORD PTR [rsp+40], rcx
  00191	48 89 44 24 20	 mov	 QWORD PTR [rsp+32], rax
  00196	41 b9 03 00 00
	00		 mov	 r9d, 3
  0019c	4c 8d 05 00 00
	00 00		 lea	 r8, OFFSET FLAT:$SG175505
  001a3	ba 5c 13 00 00	 mov	 edx, 4956		; 0000135cH
  001a8	48 8d 0d 00 00
	00 00		 lea	 rcx, OFFSET FLAT:$SG175506
  001af	ff 15 00 00 00
	00		 call	 QWORD PTR __imp_fwritemsg
$LN6@ecpsvm_ena:

; 4957 :         }
; 4958 :         return;

  001b5	e9 44 03 00 00	 jmp	 $LN1@ecpsvm_ena
$LN5@ecpsvm_ena:

; 4959 :     }
; 4960 :     for(i=1;i<ac;i++)

  001ba	c7 44 24 60 01
	00 00 00	 mov	 DWORD PTR i$[rsp], 1
  001c2	eb 0a		 jmp	 SHORT $LN4@ecpsvm_ena
$LN2@ecpsvm_ena:
  001c4	8b 44 24 60	 mov	 eax, DWORD PTR i$[rsp]
  001c8	ff c0		 inc	 eax
  001ca	89 44 24 60	 mov	 DWORD PTR i$[rsp], eax
$LN4@ecpsvm_ena:
  001ce	8b 84 24 d0 00
	00 00		 mov	 eax, DWORD PTR ac$[rsp]
  001d5	39 44 24 60	 cmp	 DWORD PTR i$[rsp], eax
  001d9	0f 8d 1f 03 00
	00		 jge	 $LN3@ecpsvm_ena

; 4961 :     {
; 4962 :         if(strcasecmp(av[i],"ALL")==0)

  001df	48 63 44 24 60	 movsxd	 rax, DWORD PTR i$[rsp]
  001e4	48 8d 15 00 00
	00 00		 lea	 rdx, OFFSET FLAT:$SG175508
  001eb	48 8b 8c 24 d8
	00 00 00	 mov	 rcx, QWORD PTR av$[rsp]
  001f3	48 8b 0c c1	 mov	 rcx, QWORD PTR [rcx+rax*8]
  001f7	ff 15 00 00 00
	00		 call	 QWORD PTR __imp__stricmp
  001fd	85 c0		 test	 eax, eax
  001ff	75 5d		 jne	 SHORT $LN7@ecpsvm_ena

; 4963 :         {
; 4964 :             ecpsvm_enadisaall("VM ASSIST",sal,sacount,onoff,debug);

  00201	8b 84 24 e8 00
	00 00		 mov	 eax, DWORD PTR debug$[rsp]
  00208	89 44 24 20	 mov	 DWORD PTR [rsp+32], eax
  0020c	44 8b 8c 24 e0
	00 00 00	 mov	 r9d, DWORD PTR onoff$[rsp]
  00214	4c 8b 44 24 70	 mov	 r8, QWORD PTR sacount$[rsp]
  00219	48 8b 54 24 78	 mov	 rdx, QWORD PTR sal$[rsp]
  0021e	48 8d 0d 00 00
	00 00		 lea	 rcx, OFFSET FLAT:$SG175509
  00225	e8 00 00 00 00	 call	 ecpsvm_enadisaall

; 4965 :             ecpsvm_enadisaall("CP ASSIST",cpl,cpcount,onoff,debug);

  0022a	8b 84 24 e8 00
	00 00		 mov	 eax, DWORD PTR debug$[rsp]
  00231	89 44 24 20	 mov	 DWORD PTR [rsp+32], eax
  00235	44 8b 8c 24 e0
	00 00 00	 mov	 r9d, DWORD PTR onoff$[rsp]
  0023d	4c 8b 84 24 80
	00 00 00	 mov	 r8, QWORD PTR cpcount$[rsp]
  00245	48 8b 94 24 88
	00 00 00	 mov	 rdx, QWORD PTR cpl$[rsp]
  0024d	48 8d 0d 00 00
	00 00		 lea	 rcx, OFFSET FLAT:$SG175510
  00254	e8 00 00 00 00	 call	 ecpsvm_enadisaall

; 4966 :             return;

  00259	e9 a0 02 00 00	 jmp	 $LN1@ecpsvm_ena
$LN7@ecpsvm_ena:

; 4967 :         }
; 4968 :         if(strcasecmp(av[i],"VMA")==0)

  0025e	48 63 44 24 60	 movsxd	 rax, DWORD PTR i$[rsp]
  00263	48 8d 15 00 00
	00 00		 lea	 rdx, OFFSET FLAT:$SG175512
  0026a	48 8b 8c 24 d8
	00 00 00	 mov	 rcx, QWORD PTR av$[rsp]
  00272	48 8b 0c c1	 mov	 rcx, QWORD PTR [rcx+rax*8]
  00276	ff 15 00 00 00
	00		 call	 QWORD PTR __imp__stricmp
  0027c	85 c0		 test	 eax, eax
  0027e	75 2e		 jne	 SHORT $LN8@ecpsvm_ena

; 4969 :         {
; 4970 :             ecpsvm_enadisaall("VM ASSIST",sal,sacount,onoff,debug);

  00280	8b 84 24 e8 00
	00 00		 mov	 eax, DWORD PTR debug$[rsp]
  00287	89 44 24 20	 mov	 DWORD PTR [rsp+32], eax
  0028b	44 8b 8c 24 e0
	00 00 00	 mov	 r9d, DWORD PTR onoff$[rsp]
  00293	4c 8b 44 24 70	 mov	 r8, QWORD PTR sacount$[rsp]
  00298	48 8b 54 24 78	 mov	 rdx, QWORD PTR sal$[rsp]
  0029d	48 8d 0d 00 00
	00 00		 lea	 rcx, OFFSET FLAT:$SG175513
  002a4	e8 00 00 00 00	 call	 ecpsvm_enadisaall

; 4971 :             return;

  002a9	e9 50 02 00 00	 jmp	 $LN1@ecpsvm_ena
$LN8@ecpsvm_ena:

; 4972 :         }
; 4973 :         if(strcasecmp(av[i],"CPA")==0)

  002ae	48 63 44 24 60	 movsxd	 rax, DWORD PTR i$[rsp]
  002b3	48 8d 15 00 00
	00 00		 lea	 rdx, OFFSET FLAT:$SG175515
  002ba	48 8b 8c 24 d8
	00 00 00	 mov	 rcx, QWORD PTR av$[rsp]
  002c2	48 8b 0c c1	 mov	 rcx, QWORD PTR [rcx+rax*8]
  002c6	ff 15 00 00 00
	00		 call	 QWORD PTR __imp__stricmp
  002cc	85 c0		 test	 eax, eax
  002ce	75 34		 jne	 SHORT $LN9@ecpsvm_ena

; 4974 :         {
; 4975 :             ecpsvm_enadisaall("CP ASSIST",cpl,cpcount,onoff,debug);

  002d0	8b 84 24 e8 00
	00 00		 mov	 eax, DWORD PTR debug$[rsp]
  002d7	89 44 24 20	 mov	 DWORD PTR [rsp+32], eax
  002db	44 8b 8c 24 e0
	00 00 00	 mov	 r9d, DWORD PTR onoff$[rsp]
  002e3	4c 8b 84 24 80
	00 00 00	 mov	 r8, QWORD PTR cpcount$[rsp]
  002eb	48 8b 94 24 88
	00 00 00	 mov	 rdx, QWORD PTR cpl$[rsp]
  002f3	48 8d 0d 00 00
	00 00		 lea	 rcx, OFFSET FLAT:$SG175516
  002fa	e8 00 00 00 00	 call	 ecpsvm_enadisaall

; 4976 :             return;

  002ff	e9 fa 01 00 00	 jmp	 $LN1@ecpsvm_ena
$LN9@ecpsvm_ena:

; 4977 :         }
; 4978 :         es=ecpsvm_findstat(av[i],&fclass);

  00304	48 63 44 24 60	 movsxd	 rax, DWORD PTR i$[rsp]
  00309	48 8d 94 24 a8
	00 00 00	 lea	 rdx, QWORD PTR fclass$[rsp]
  00311	48 8b 8c 24 d8
	00 00 00	 mov	 rcx, QWORD PTR av$[rsp]
  00319	48 8b 0c c1	 mov	 rcx, QWORD PTR [rcx+rax*8]
  0031d	e8 00 00 00 00	 call	 ecpsvm_findstat
  00322	48 89 44 24 68	 mov	 QWORD PTR es$[rsp], rax

; 4979 :         if(es!=NULL)

  00327	48 83 7c 24 68
	00		 cmp	 QWORD PTR es$[rsp], 0
  0032d	0f 84 59 01 00
	00		 je	 $LN10@ecpsvm_ena

; 4980 :         {
; 4981 :             if(onoff>=0)

  00333	83 bc 24 e0 00
	00 00 00	 cmp	 DWORD PTR onoff$[rsp], 0
  0033b	0f 8c 9d 00 00
	00		 jl	 $LN12@ecpsvm_ena

; 4982 :             {
; 4983 :                 es->enabled=onoff;

  00341	8b 84 24 e0 00
	00 00		 mov	 eax, DWORD PTR onoff$[rsp]
  00348	83 e0 01	 and	 eax, 1
  0034b	d1 e0		 shl	 eax, 1
  0034d	48 8b 4c 24 68	 mov	 rcx, QWORD PTR es$[rsp]
  00352	8b 49 18	 mov	 ecx, DWORD PTR [rcx+24]
  00355	83 e1 fd	 and	 ecx, -3			; fffffffdH
  00358	0b c8		 or	 ecx, eax
  0035a	8b c1		 mov	 eax, ecx
  0035c	48 8b 4c 24 68	 mov	 rcx, QWORD PTR es$[rsp]
  00361	89 41 18	 mov	 DWORD PTR [rcx+24], eax

; 4984 :                 WRMSG(HHC01710,"I",fclass,es->name,"",enadisa);

  00364	b9 01 00 00 00	 mov	 ecx, 1
  00369	ff 15 00 00 00
	00		 call	 QWORD PTR __imp___acrt_iob_func
  0036f	48 8b 8c 24 b0
	00 00 00	 mov	 rcx, QWORD PTR enadisa$[rsp]
  00377	48 89 4c 24 50	 mov	 QWORD PTR [rsp+80], rcx
  0037c	48 8d 0d 00 00
	00 00		 lea	 rcx, OFFSET FLAT:$SG175520
  00383	48 89 4c 24 48	 mov	 QWORD PTR [rsp+72], rcx
  00388	48 8b 4c 24 68	 mov	 rcx, QWORD PTR es$[rsp]
  0038d	48 8b 09	 mov	 rcx, QWORD PTR [rcx]
  00390	48 89 4c 24 40	 mov	 QWORD PTR [rsp+64], rcx
  00395	48 8b 8c 24 a8
	00 00 00	 mov	 rcx, QWORD PTR fclass$[rsp]
  0039d	48 89 4c 24 38	 mov	 QWORD PTR [rsp+56], rcx
  003a2	48 8d 0d 00 00
	00 00		 lea	 rcx, OFFSET FLAT:$SG175521
  003a9	48 89 4c 24 30	 mov	 QWORD PTR [rsp+48], rcx
  003ae	48 8d 0d 00 00
	00 00		 lea	 rcx, OFFSET FLAT:$SG175522
  003b5	48 89 4c 24 28	 mov	 QWORD PTR [rsp+40], rcx
  003ba	48 89 44 24 20	 mov	 QWORD PTR [rsp+32], rax
  003bf	41 b9 03 00 00
	00		 mov	 r9d, 3
  003c5	4c 8d 05 00 00
	00 00		 lea	 r8, OFFSET FLAT:$SG175523
  003cc	ba 78 13 00 00	 mov	 edx, 4984		; 00001378H
  003d1	48 8d 0d 00 00
	00 00		 lea	 rcx, OFFSET FLAT:$SG175524
  003d8	ff 15 00 00 00
	00		 call	 QWORD PTR __imp_fwritemsg
$LN12@ecpsvm_ena:

; 4985 :             }
; 4986 :             if(debug>=0)

  003de	83 bc 24 e8 00
	00 00 00	 cmp	 DWORD PTR debug$[rsp], 0
  003e6	0f 8c 9e 00 00
	00		 jl	 $LN13@ecpsvm_ena

; 4987 :             {
; 4988 :                 es->debug=debug;

  003ec	8b 84 24 e8 00
	00 00		 mov	 eax, DWORD PTR debug$[rsp]
  003f3	83 e0 01	 and	 eax, 1
  003f6	c1 e0 02	 shl	 eax, 2
  003f9	48 8b 4c 24 68	 mov	 rcx, QWORD PTR es$[rsp]
  003fe	8b 49 18	 mov	 ecx, DWORD PTR [rcx+24]
  00401	83 e1 fb	 and	 ecx, -5			; fffffffbH
  00404	0b c8		 or	 ecx, eax
  00406	8b c1		 mov	 eax, ecx
  00408	48 8b 4c 24 68	 mov	 rcx, QWORD PTR es$[rsp]
  0040d	89 41 18	 mov	 DWORD PTR [rcx+24], eax

; 4989 :                 WRMSG(HHC01710,"I",fclass,es->name,"Debug ",debugonoff);

  00410	b9 01 00 00 00	 mov	 ecx, 1
  00415	ff 15 00 00 00
	00		 call	 QWORD PTR __imp___acrt_iob_func
  0041b	48 8b 8c 24 a0
	00 00 00	 mov	 rcx, QWORD PTR debugonoff$[rsp]
  00423	48 89 4c 24 50	 mov	 QWORD PTR [rsp+80], rcx
  00428	48 8d 0d 00 00
	00 00		 lea	 rcx, OFFSET FLAT:$SG175526
  0042f	48 89 4c 24 48	 mov	 QWORD PTR [rsp+72], rcx
  00434	48 8b 4c 24 68	 mov	 rcx, QWORD PTR es$[rsp]
  00439	48 8b 09	 mov	 rcx, QWORD PTR [rcx]
  0043c	48 89 4c 24 40	 mov	 QWORD PTR [rsp+64], rcx
  00441	48 8b 8c 24 a8
	00 00 00	 mov	 rcx, QWORD PTR fclass$[rsp]
  00449	48 89 4c 24 38	 mov	 QWORD PTR [rsp+56], rcx
  0044e	48 8d 0d 00 00
	00 00		 lea	 rcx, OFFSET FLAT:$SG175527
  00455	48 89 4c 24 30	 mov	 QWORD PTR [rsp+48], rcx
  0045a	48 8d 0d 00 00
	00 00		 lea	 rcx, OFFSET FLAT:$SG175528
  00461	48 89 4c 24 28	 mov	 QWORD PTR [rsp+40], rcx
  00466	48 89 44 24 20	 mov	 QWORD PTR [rsp+32], rax
  0046b	41 b9 03 00 00
	00		 mov	 r9d, 3
  00471	4c 8d 05 00 00
	00 00		 lea	 r8, OFFSET FLAT:$SG175529
  00478	ba 7d 13 00 00	 mov	 edx, 4989		; 0000137dH
  0047d	48 8d 0d 00 00
	00 00		 lea	 rcx, OFFSET FLAT:$SG175530
  00484	ff 15 00 00 00
	00		 call	 QWORD PTR __imp_fwritemsg
$LN13@ecpsvm_ena:

; 4990 :             }
; 4991 :         }

  0048a	eb 6d		 jmp	 SHORT $LN11@ecpsvm_ena
$LN10@ecpsvm_ena:

; 4992 :         else
; 4993 :         {
; 4994 :             WRMSG(HHC01711,"I",av[i]);

  0048c	48 63 44 24 60	 movsxd	 rax, DWORD PTR i$[rsp]
  00491	48 89 84 24 b8
	00 00 00	 mov	 QWORD PTR tv220[rsp], rax
  00499	b9 01 00 00 00	 mov	 ecx, 1
  0049e	ff 15 00 00 00
	00		 call	 QWORD PTR __imp___acrt_iob_func
  004a4	48 8b 8c 24 d8
	00 00 00	 mov	 rcx, QWORD PTR av$[rsp]
  004ac	48 8b 94 24 b8
	00 00 00	 mov	 rdx, QWORD PTR tv220[rsp]
  004b4	48 8b 0c d1	 mov	 rcx, QWORD PTR [rcx+rdx*8]
  004b8	48 89 4c 24 38	 mov	 QWORD PTR [rsp+56], rcx
  004bd	48 8d 0d 00 00
	00 00		 lea	 rcx, OFFSET FLAT:$SG175531
  004c4	48 89 4c 24 30	 mov	 QWORD PTR [rsp+48], rcx
  004c9	48 8d 0d 00 00
	00 00		 lea	 rcx, OFFSET FLAT:$SG175532
  004d0	48 89 4c 24 28	 mov	 QWORD PTR [rsp+40], rcx
  004d5	48 89 44 24 20	 mov	 QWORD PTR [rsp+32], rax
  004da	41 b9 03 00 00
	00		 mov	 r9d, 3
  004e0	4c 8d 05 00 00
	00 00		 lea	 r8, OFFSET FLAT:$SG175533
  004e7	ba 82 13 00 00	 mov	 edx, 4994		; 00001382H
  004ec	48 8d 0d 00 00
	00 00		 lea	 rcx, OFFSET FLAT:$SG175534
  004f3	ff 15 00 00 00
	00		 call	 QWORD PTR __imp_fwritemsg
$LN11@ecpsvm_ena:

; 4995 :         }
; 4996 :     }

  004f9	e9 c6 fc ff ff	 jmp	 $LN2@ecpsvm_ena
$LN3@ecpsvm_ena:
$LN1@ecpsvm_ena:

; 4997 : }

  004fe	48 81 c4 c8 00
	00 00		 add	 rsp, 200		; 000000c8H
  00505	c3		 ret	 0
ecpsvm_enable_disable ENDP
_TEXT	ENDS
; Function compile flags: /Odtp
; File C:\papa\MyGit\hyperion-zvector\ecpsvm.c
_TEXT	SEGMENT
es$ = 96
i$ = 104
tv65 = 112
tv67 = 120
enadisa$ = 128
debugonoff$ = 136
fclass$ = 160
tbl$ = 168
count$ = 176
onoff$ = 184
debug$ = 192
ecpsvm_enadisaall PROC

; 4902 : {

$LN14:
  00000	44 89 4c 24 20	 mov	 DWORD PTR [rsp+32], r9d
  00005	4c 89 44 24 18	 mov	 QWORD PTR [rsp+24], r8
  0000a	48 89 54 24 10	 mov	 QWORD PTR [rsp+16], rdx
  0000f	48 89 4c 24 08	 mov	 QWORD PTR [rsp+8], rcx
  00014	48 81 ec 98 00
	00 00		 sub	 rsp, 152		; 00000098H

; 4903 :     ECPSVM_STAT *es;
; 4904 :     size_t i;
; 4905 :     char *enadisa,*debugonoff;
; 4906 :     enadisa=onoff?"Enabled":"Disabled";

  0001b	83 bc 24 b8 00
	00 00 00	 cmp	 DWORD PTR onoff$[rsp], 0
  00023	74 0e		 je	 SHORT $LN10@ecpsvm_ena
  00025	48 8d 05 00 00
	00 00		 lea	 rax, OFFSET FLAT:$SG175440
  0002c	48 89 44 24 70	 mov	 QWORD PTR tv65[rsp], rax
  00031	eb 0c		 jmp	 SHORT $LN11@ecpsvm_ena
$LN10@ecpsvm_ena:
  00033	48 8d 05 00 00
	00 00		 lea	 rax, OFFSET FLAT:$SG175441
  0003a	48 89 44 24 70	 mov	 QWORD PTR tv65[rsp], rax
$LN11@ecpsvm_ena:
  0003f	48 8b 44 24 70	 mov	 rax, QWORD PTR tv65[rsp]
  00044	48 89 84 24 80
	00 00 00	 mov	 QWORD PTR enadisa$[rsp], rax

; 4907 :     debugonoff=debug?"On":"Off";

  0004c	83 bc 24 c0 00
	00 00 00	 cmp	 DWORD PTR debug$[rsp], 0
  00054	74 0e		 je	 SHORT $LN12@ecpsvm_ena
  00056	48 8d 05 00 00
	00 00		 lea	 rax, OFFSET FLAT:$SG175442
  0005d	48 89 44 24 78	 mov	 QWORD PTR tv67[rsp], rax
  00062	eb 0c		 jmp	 SHORT $LN13@ecpsvm_ena
$LN12@ecpsvm_ena:
  00064	48 8d 05 00 00
	00 00		 lea	 rax, OFFSET FLAT:$SG175443
  0006b	48 89 44 24 78	 mov	 QWORD PTR tv67[rsp], rax
$LN13@ecpsvm_ena:
  00070	48 8b 44 24 78	 mov	 rax, QWORD PTR tv67[rsp]
  00075	48 89 84 24 88
	00 00 00	 mov	 QWORD PTR debugonoff$[rsp], rax

; 4908 :     for(i=0;i<count;i++)

  0007d	48 c7 44 24 68
	00 00 00 00	 mov	 QWORD PTR i$[rsp], 0
  00086	eb 0d		 jmp	 SHORT $LN4@ecpsvm_ena
$LN2@ecpsvm_ena:
  00088	48 8b 44 24 68	 mov	 rax, QWORD PTR i$[rsp]
  0008d	48 ff c0	 inc	 rax
  00090	48 89 44 24 68	 mov	 QWORD PTR i$[rsp], rax
$LN4@ecpsvm_ena:
  00095	48 8b 84 24 b0
	00 00 00	 mov	 rax, QWORD PTR count$[rsp]
  0009d	48 39 44 24 68	 cmp	 QWORD PTR i$[rsp], rax
  000a2	0f 83 75 01 00
	00		 jae	 $LN3@ecpsvm_ena

; 4909 :     {
; 4910 :         es=&tbl[i];

  000a8	48 6b 44 24 68
	20		 imul	 rax, QWORD PTR i$[rsp], 32 ; 00000020H
  000ae	48 8b 8c 24 a8
	00 00 00	 mov	 rcx, QWORD PTR tbl$[rsp]
  000b6	48 03 c8	 add	 rcx, rax
  000b9	48 8b c1	 mov	 rax, rcx
  000bc	48 89 44 24 60	 mov	 QWORD PTR es$[rsp], rax

; 4911 :         if(onoff>=0)

  000c1	83 bc 24 b8 00
	00 00 00	 cmp	 DWORD PTR onoff$[rsp], 0
  000c9	0f 8c 9d 00 00
	00		 jl	 $LN5@ecpsvm_ena

; 4912 :         {
; 4913 :             es->enabled=onoff;

  000cf	8b 84 24 b8 00
	00 00		 mov	 eax, DWORD PTR onoff$[rsp]
  000d6	83 e0 01	 and	 eax, 1
  000d9	d1 e0		 shl	 eax, 1
  000db	48 8b 4c 24 60	 mov	 rcx, QWORD PTR es$[rsp]
  000e0	8b 49 18	 mov	 ecx, DWORD PTR [rcx+24]
  000e3	83 e1 fd	 and	 ecx, -3			; fffffffdH
  000e6	0b c8		 or	 ecx, eax
  000e8	8b c1		 mov	 eax, ecx
  000ea	48 8b 4c 24 60	 mov	 rcx, QWORD PTR es$[rsp]
  000ef	89 41 18	 mov	 DWORD PTR [rcx+24], eax

; 4914 :             WRMSG(HHC01707,"I",fclass,es->name," ", enadisa);

  000f2	b9 01 00 00 00	 mov	 ecx, 1
  000f7	ff 15 00 00 00
	00		 call	 QWORD PTR __imp___acrt_iob_func
  000fd	48 8b 8c 24 80
	00 00 00	 mov	 rcx, QWORD PTR enadisa$[rsp]
  00105	48 89 4c 24 50	 mov	 QWORD PTR [rsp+80], rcx
  0010a	48 8d 0d 00 00
	00 00		 lea	 rcx, OFFSET FLAT:$SG175445
  00111	48 89 4c 24 48	 mov	 QWORD PTR [rsp+72], rcx
  00116	48 8b 4c 24 60	 mov	 rcx, QWORD PTR es$[rsp]
  0011b	48 8b 09	 mov	 rcx, QWORD PTR [rcx]
  0011e	48 89 4c 24 40	 mov	 QWORD PTR [rsp+64], rcx
  00123	48 8b 8c 24 a0
	00 00 00	 mov	 rcx, QWORD PTR fclass$[rsp]
  0012b	48 89 4c 24 38	 mov	 QWORD PTR [rsp+56], rcx
  00130	48 8d 0d 00 00
	00 00		 lea	 rcx, OFFSET FLAT:$SG175446
  00137	48 89 4c 24 30	 mov	 QWORD PTR [rsp+48], rcx
  0013c	48 8d 0d 00 00
	00 00		 lea	 rcx, OFFSET FLAT:$SG175447
  00143	48 89 4c 24 28	 mov	 QWORD PTR [rsp+40], rcx
  00148	48 89 44 24 20	 mov	 QWORD PTR [rsp+32], rax
  0014d	41 b9 03 00 00
	00		 mov	 r9d, 3
  00153	4c 8d 05 00 00
	00 00		 lea	 r8, OFFSET FLAT:$SG175448
  0015a	ba 32 13 00 00	 mov	 edx, 4914		; 00001332H
  0015f	48 8d 0d 00 00
	00 00		 lea	 rcx, OFFSET FLAT:$SG175449
  00166	ff 15 00 00 00
	00		 call	 QWORD PTR __imp_fwritemsg
$LN5@ecpsvm_ena:

; 4915 :         }
; 4916 :         if(debug>=0)

  0016c	83 bc 24 c0 00
	00 00 00	 cmp	 DWORD PTR debug$[rsp], 0
  00174	0f 8c 9e 00 00
	00		 jl	 $LN6@ecpsvm_ena

; 4917 :         {
; 4918 :             es->debug=debug;

  0017a	8b 84 24 c0 00
	00 00		 mov	 eax, DWORD PTR debug$[rsp]
  00181	83 e0 01	 and	 eax, 1
  00184	c1 e0 02	 shl	 eax, 2
  00187	48 8b 4c 24 60	 mov	 rcx, QWORD PTR es$[rsp]
  0018c	8b 49 18	 mov	 ecx, DWORD PTR [rcx+24]
  0018f	83 e1 fb	 and	 ecx, -5			; fffffffbH
  00192	0b c8		 or	 ecx, eax
  00194	8b c1		 mov	 eax, ecx
  00196	48 8b 4c 24 60	 mov	 rcx, QWORD PTR es$[rsp]
  0019b	89 41 18	 mov	 DWORD PTR [rcx+24], eax

; 4919 :             WRMSG(HHC01707,"I",fclass,es->name," Debug ", debugonoff);

  0019e	b9 01 00 00 00	 mov	 ecx, 1
  001a3	ff 15 00 00 00
	00		 call	 QWORD PTR __imp___acrt_iob_func
  001a9	48 8b 8c 24 88
	00 00 00	 mov	 rcx, QWORD PTR debugonoff$[rsp]
  001b1	48 89 4c 24 50	 mov	 QWORD PTR [rsp+80], rcx
  001b6	48 8d 0d 00 00
	00 00		 lea	 rcx, OFFSET FLAT:$SG175451
  001bd	48 89 4c 24 48	 mov	 QWORD PTR [rsp+72], rcx
  001c2	48 8b 4c 24 60	 mov	 rcx, QWORD PTR es$[rsp]
  001c7	48 8b 09	 mov	 rcx, QWORD PTR [rcx]
  001ca	48 89 4c 24 40	 mov	 QWORD PTR [rsp+64], rcx
  001cf	48 8b 8c 24 a0
	00 00 00	 mov	 rcx, QWORD PTR fclass$[rsp]
  001d7	48 89 4c 24 38	 mov	 QWORD PTR [rsp+56], rcx
  001dc	48 8d 0d 00 00
	00 00		 lea	 rcx, OFFSET FLAT:$SG175452
  001e3	48 89 4c 24 30	 mov	 QWORD PTR [rsp+48], rcx
  001e8	48 8d 0d 00 00
	00 00		 lea	 rcx, OFFSET FLAT:$SG175453
  001ef	48 89 4c 24 28	 mov	 QWORD PTR [rsp+40], rcx
  001f4	48 89 44 24 20	 mov	 QWORD PTR [rsp+32], rax
  001f9	41 b9 03 00 00
	00		 mov	 r9d, 3
  001ff	4c 8d 05 00 00
	00 00		 lea	 r8, OFFSET FLAT:$SG175454
  00206	ba 37 13 00 00	 mov	 edx, 4919		; 00001337H
  0020b	48 8d 0d 00 00
	00 00		 lea	 rcx, OFFSET FLAT:$SG175455
  00212	ff 15 00 00 00
	00		 call	 QWORD PTR __imp_fwritemsg
$LN6@ecpsvm_ena:

; 4920 :         }
; 4921 :     }

  00218	e9 6b fe ff ff	 jmp	 $LN2@ecpsvm_ena
$LN3@ecpsvm_ena:

; 4922 :     if(onoff>=0)

  0021d	83 bc 24 b8 00
	00 00 00	 cmp	 DWORD PTR onoff$[rsp], 0
  00225	7c 6d		 jl	 SHORT $LN7@ecpsvm_ena

; 4923 :     {
; 4924 :         WRMSG(HHC01708,"I",fclass,"",enadisa);

  00227	b9 01 00 00 00	 mov	 ecx, 1
  0022c	ff 15 00 00 00
	00		 call	 QWORD PTR __imp___acrt_iob_func
  00232	48 8b 8c 24 80
	00 00 00	 mov	 rcx, QWORD PTR enadisa$[rsp]
  0023a	48 89 4c 24 48	 mov	 QWORD PTR [rsp+72], rcx
  0023f	48 8d 0d 00 00
	00 00		 lea	 rcx, OFFSET FLAT:$SG175457
  00246	48 89 4c 24 40	 mov	 QWORD PTR [rsp+64], rcx
  0024b	48 8b 8c 24 a0
	00 00 00	 mov	 rcx, QWORD PTR fclass$[rsp]
  00253	48 89 4c 24 38	 mov	 QWORD PTR [rsp+56], rcx
  00258	48 8d 0d 00 00
	00 00		 lea	 rcx, OFFSET FLAT:$SG175458
  0025f	48 89 4c 24 30	 mov	 QWORD PTR [rsp+48], rcx
  00264	48 8d 0d 00 00
	00 00		 lea	 rcx, OFFSET FLAT:$SG175459
  0026b	48 89 4c 24 28	 mov	 QWORD PTR [rsp+40], rcx
  00270	48 89 44 24 20	 mov	 QWORD PTR [rsp+32], rax
  00275	41 b9 03 00 00
	00		 mov	 r9d, 3
  0027b	4c 8d 05 00 00
	00 00		 lea	 r8, OFFSET FLAT:$SG175460
  00282	ba 3c 13 00 00	 mov	 edx, 4924		; 0000133cH
  00287	48 8d 0d 00 00
	00 00		 lea	 rcx, OFFSET FLAT:$SG175461
  0028e	ff 15 00 00 00
	00		 call	 QWORD PTR __imp_fwritemsg
$LN7@ecpsvm_ena:

; 4925 :     }
; 4926 :     if(debug>=0)

  00294	83 bc 24 c0 00
	00 00 00	 cmp	 DWORD PTR debug$[rsp], 0
  0029c	7c 6d		 jl	 SHORT $LN8@ecpsvm_ena

; 4927 :     {
; 4928 :         WRMSG(HHC01708,"I",fclass,"Debug ",debugonoff);

  0029e	b9 01 00 00 00	 mov	 ecx, 1
  002a3	ff 15 00 00 00
	00		 call	 QWORD PTR __imp___acrt_iob_func
  002a9	48 8b 8c 24 88
	00 00 00	 mov	 rcx, QWORD PTR debugonoff$[rsp]
  002b1	48 89 4c 24 48	 mov	 QWORD PTR [rsp+72], rcx
  002b6	48 8d 0d 00 00
	00 00		 lea	 rcx, OFFSET FLAT:$SG175463
  002bd	48 89 4c 24 40	 mov	 QWORD PTR [rsp+64], rcx
  002c2	48 8b 8c 24 a0
	00 00 00	 mov	 rcx, QWORD PTR fclass$[rsp]
  002ca	48 89 4c 24 38	 mov	 QWORD PTR [rsp+56], rcx
  002cf	48 8d 0d 00 00
	00 00		 lea	 rcx, OFFSET FLAT:$SG175464
  002d6	48 89 4c 24 30	 mov	 QWORD PTR [rsp+48], rcx
  002db	48 8d 0d 00 00
	00 00		 lea	 rcx, OFFSET FLAT:$SG175465
  002e2	48 89 4c 24 28	 mov	 QWORD PTR [rsp+40], rcx
  002e7	48 89 44 24 20	 mov	 QWORD PTR [rsp+32], rax
  002ec	41 b9 03 00 00
	00		 mov	 r9d, 3
  002f2	4c 8d 05 00 00
	00 00		 lea	 r8, OFFSET FLAT:$SG175466
  002f9	ba 40 13 00 00	 mov	 edx, 4928		; 00001340H
  002fe	48 8d 0d 00 00
	00 00		 lea	 rcx, OFFSET FLAT:$SG175467
  00305	ff 15 00 00 00
	00		 call	 QWORD PTR __imp_fwritemsg
$LN8@ecpsvm_ena:

; 4929 :     }
; 4930 : }

  0030b	48 81 c4 98 00
	00 00		 add	 rsp, 152		; 00000098H
  00312	c3		 ret	 0
ecpsvm_enadisaall ENDP
_TEXT	ENDS
; Function compile flags: /Odtp
; File C:\papa\MyGit\hyperion-zvector\ecpsvm.c
_TEXT	SEGMENT
i$ = 32
fcount$ = 36
es$ = 40
esl$ = 48
feature$ = 80
fclass$ = 88
ecpsvm_findstat PROC

; 4871 : {

$LN11:
  00000	48 89 54 24 10	 mov	 QWORD PTR [rsp+16], rdx
  00005	48 89 4c 24 08	 mov	 QWORD PTR [rsp+8], rcx
  0000a	48 83 ec 48	 sub	 rsp, 72			; 00000048H

; 4872 :     ECPSVM_STAT *es;
; 4873 :     ECPSVM_STAT *esl;
; 4874 :     int i;
; 4875 :     int fcount;
; 4876 :     fcount=sizeof(ecpsvm_sastats)/sizeof(ECPSVM_STAT);

  0000e	c7 44 24 24 0c
	00 00 00	 mov	 DWORD PTR fcount$[rsp], 12

; 4877 :     esl=(ECPSVM_STAT *)&ecpsvm_sastats;

  00016	48 8d 05 00 00
	00 00		 lea	 rax, OFFSET FLAT:ecpsvm_sastats
  0001d	48 89 44 24 30	 mov	 QWORD PTR esl$[rsp], rax

; 4878 :     for(i=0;i<fcount;i++)

  00022	c7 44 24 20 00
	00 00 00	 mov	 DWORD PTR i$[rsp], 0
  0002a	eb 0a		 jmp	 SHORT $LN4@ecpsvm_fin
$LN2@ecpsvm_fin:
  0002c	8b 44 24 20	 mov	 eax, DWORD PTR i$[rsp]
  00030	ff c0		 inc	 eax
  00032	89 44 24 20	 mov	 DWORD PTR i$[rsp], eax
$LN4@ecpsvm_fin:
  00036	8b 44 24 24	 mov	 eax, DWORD PTR fcount$[rsp]
  0003a	39 44 24 20	 cmp	 DWORD PTR i$[rsp], eax
  0003e	7d 48		 jge	 SHORT $LN3@ecpsvm_fin

; 4879 :     {
; 4880 :         es=&esl[i];

  00040	48 63 44 24 20	 movsxd	 rax, DWORD PTR i$[rsp]
  00045	48 6b c0 20	 imul	 rax, rax, 32		; 00000020H
  00049	48 8b 4c 24 30	 mov	 rcx, QWORD PTR esl$[rsp]
  0004e	48 03 c8	 add	 rcx, rax
  00051	48 8b c1	 mov	 rax, rcx
  00054	48 89 44 24 28	 mov	 QWORD PTR es$[rsp], rax

; 4881 :         if(strcasecmp(feature,es->name)==0)

  00059	48 8b 44 24 28	 mov	 rax, QWORD PTR es$[rsp]
  0005e	48 8b 10	 mov	 rdx, QWORD PTR [rax]
  00061	48 8b 4c 24 50	 mov	 rcx, QWORD PTR feature$[rsp]
  00066	ff 15 00 00 00
	00		 call	 QWORD PTR __imp__stricmp
  0006c	85 c0		 test	 eax, eax
  0006e	75 16		 jne	 SHORT $LN8@ecpsvm_fin

; 4882 :         {
; 4883 :             *fclass="VM ASSIST";

  00070	48 8b 44 24 58	 mov	 rax, QWORD PTR fclass$[rsp]
  00075	48 8d 0d 00 00
	00 00		 lea	 rcx, OFFSET FLAT:$SG175418
  0007c	48 89 08	 mov	 QWORD PTR [rax], rcx

; 4884 :             return(es);

  0007f	48 8b 44 24 28	 mov	 rax, QWORD PTR es$[rsp]
  00084	eb 7e		 jmp	 SHORT $LN1@ecpsvm_fin
$LN8@ecpsvm_fin:

; 4885 :         }
; 4886 :     }

  00086	eb a4		 jmp	 SHORT $LN2@ecpsvm_fin
$LN3@ecpsvm_fin:

; 4887 :     esl=(ECPSVM_STAT *)&ecpsvm_cpstats;

  00088	48 8d 05 00 00
	00 00		 lea	 rax, OFFSET FLAT:ecpsvm_cpstats
  0008f	48 89 44 24 30	 mov	 QWORD PTR esl$[rsp], rax

; 4888 :     fcount=sizeof(ecpsvm_cpstats)/sizeof(ECPSVM_STAT);

  00094	c7 44 24 24 19
	00 00 00	 mov	 DWORD PTR fcount$[rsp], 25

; 4889 :     for(i=0;i<fcount;i++)

  0009c	c7 44 24 20 00
	00 00 00	 mov	 DWORD PTR i$[rsp], 0
  000a4	eb 0a		 jmp	 SHORT $LN7@ecpsvm_fin
$LN5@ecpsvm_fin:
  000a6	8b 44 24 20	 mov	 eax, DWORD PTR i$[rsp]
  000aa	ff c0		 inc	 eax
  000ac	89 44 24 20	 mov	 DWORD PTR i$[rsp], eax
$LN7@ecpsvm_fin:
  000b0	8b 44 24 24	 mov	 eax, DWORD PTR fcount$[rsp]
  000b4	39 44 24 20	 cmp	 DWORD PTR i$[rsp], eax
  000b8	7d 48		 jge	 SHORT $LN6@ecpsvm_fin

; 4890 :     {
; 4891 :         es=&esl[i];

  000ba	48 63 44 24 20	 movsxd	 rax, DWORD PTR i$[rsp]
  000bf	48 6b c0 20	 imul	 rax, rax, 32		; 00000020H
  000c3	48 8b 4c 24 30	 mov	 rcx, QWORD PTR esl$[rsp]
  000c8	48 03 c8	 add	 rcx, rax
  000cb	48 8b c1	 mov	 rax, rcx
  000ce	48 89 44 24 28	 mov	 QWORD PTR es$[rsp], rax

; 4892 :         if(strcasecmp(feature,es->name)==0)

  000d3	48 8b 44 24 28	 mov	 rax, QWORD PTR es$[rsp]
  000d8	48 8b 10	 mov	 rdx, QWORD PTR [rax]
  000db	48 8b 4c 24 50	 mov	 rcx, QWORD PTR feature$[rsp]
  000e0	ff 15 00 00 00
	00		 call	 QWORD PTR __imp__stricmp
  000e6	85 c0		 test	 eax, eax
  000e8	75 16		 jne	 SHORT $LN9@ecpsvm_fin

; 4893 :         {
; 4894 :             *fclass="CP ASSIST";

  000ea	48 8b 44 24 58	 mov	 rax, QWORD PTR fclass$[rsp]
  000ef	48 8d 0d 00 00
	00 00		 lea	 rcx, OFFSET FLAT:$SG175420
  000f6	48 89 08	 mov	 QWORD PTR [rax], rcx

; 4895 :             return(es);

  000f9	48 8b 44 24 28	 mov	 rax, QWORD PTR es$[rsp]
  000fe	eb 04		 jmp	 SHORT $LN1@ecpsvm_fin
$LN9@ecpsvm_fin:

; 4896 :         }
; 4897 :     }

  00100	eb a4		 jmp	 SHORT $LN5@ecpsvm_fin
$LN6@ecpsvm_fin:

; 4898 :     return(NULL);

  00102	33 c0		 xor	 eax, eax
$LN1@ecpsvm_fin:

; 4899 : }

  00104	48 83 c4 48	 add	 rsp, 72			; 00000048H
  00108	c3		 ret	 0
ecpsvm_findstat ENDP
_TEXT	ENDS
; Function compile flags: /Odtp
; File C:\papa\MyGit\hyperion-zvector\ecpsvm.c
_TEXT	SEGMENT
ar$ = 96
asize$ = 104
ac$ = 144
av$ = 152
ecpsvm_showstats PROC

; 4827 : {

$LN10:
  00000	48 89 54 24 10	 mov	 QWORD PTR [rsp+16], rdx
  00005	89 4c 24 08	 mov	 DWORD PTR [rsp+8], ecx
  00009	56		 push	 rsi
  0000a	57		 push	 rdi
  0000b	48 83 ec 78	 sub	 rsp, 120		; 00000078H
$LN4@ecpsvm_sho:

; 4828 :     size_t      asize;
; 4829 :     ECPSVM_STAT *ar;
; 4830 : 
; 4831 :     UNREFERENCED( ac );

  0000f	33 c0		 xor	 eax, eax
  00011	85 c0		 test	 eax, eax
  00013	75 fa		 jne	 SHORT $LN4@ecpsvm_sho
$LN7@ecpsvm_sho:

; 4832 :     UNREFERENCED( av );

  00015	33 c0		 xor	 eax, eax
  00017	85 c0		 test	 eax, eax
  00019	75 fa		 jne	 SHORT $LN7@ecpsvm_sho

; 4833 : 
; 4834 :     WRMSG( HHC01725, "I", ECPSCODEVER);     // ECPS:VM Code version %.02f

  0001b	b9 01 00 00 00	 mov	 ecx, 1
  00020	ff 15 00 00 00
	00		 call	 QWORD PTR __imp___acrt_iob_func
  00026	f2 0f 10 05 00
	00 00 00	 movsd	 xmm0, QWORD PTR __real@3ffe147ae147ae14
  0002e	f2 0f 11 44 24
	38		 movsd	 QWORD PTR [rsp+56], xmm0
  00034	48 8d 0d 00 00
	00 00		 lea	 rcx, OFFSET FLAT:$SG175355
  0003b	48 89 4c 24 30	 mov	 QWORD PTR [rsp+48], rcx
  00040	48 8d 0d 00 00
	00 00		 lea	 rcx, OFFSET FLAT:$SG175356
  00047	48 89 4c 24 28	 mov	 QWORD PTR [rsp+40], rcx
  0004c	48 89 44 24 20	 mov	 QWORD PTR [rsp+32], rax
  00051	41 b9 03 00 00
	00		 mov	 r9d, 3
  00057	4c 8d 05 00 00
	00 00		 lea	 r8, OFFSET FLAT:$SG175357
  0005e	ba e2 12 00 00	 mov	 edx, 4834		; 000012e2H
  00063	48 8d 0d 00 00
	00 00		 lea	 rcx, OFFSET FLAT:$SG175358
  0006a	ff 15 00 00 00
	00		 call	 QWORD PTR __imp_fwritemsg

; 4835 :     if (sysblk.ecpsvm.freetrap)

  00070	48 8b 05 00 00
	00 00		 mov	 rax, QWORD PTR __imp_sysblk
  00077	8b 80 44 13 00
	00		 mov	 eax, DWORD PTR [rax+4932]
  0007d	c1 e8 13	 shr	 eax, 19
  00080	83 e0 01	 and	 eax, 1
  00083	85 c0		 test	 eax, eax
  00085	74 47		 je	 SHORT $LN8@ecpsvm_sho

; 4836 :     {
; 4837 :         // "ECPS:VM Operating with CP FREE/FRET trap in effect"
; 4838 :         WRMSG( HHC01724, "I" );

  00087	b9 01 00 00 00	 mov	 ecx, 1
  0008c	ff 15 00 00 00
	00		 call	 QWORD PTR __imp___acrt_iob_func
  00092	48 8d 0d 00 00
	00 00		 lea	 rcx, OFFSET FLAT:$SG175360
  00099	48 89 4c 24 30	 mov	 QWORD PTR [rsp+48], rcx
  0009e	48 8d 0d 00 00
	00 00		 lea	 rcx, OFFSET FLAT:$SG175361
  000a5	48 89 4c 24 28	 mov	 QWORD PTR [rsp+40], rcx
  000aa	48 89 44 24 20	 mov	 QWORD PTR [rsp+32], rax
  000af	41 b9 03 00 00
	00		 mov	 r9d, 3
  000b5	4c 8d 05 00 00
	00 00		 lea	 r8, OFFSET FLAT:$SG175362
  000bc	ba e6 12 00 00	 mov	 edx, 4838		; 000012e6H
  000c1	48 8d 0d 00 00
	00 00		 lea	 rcx, OFFSET FLAT:$SG175363
  000c8	ff 15 00 00 00
	00		 call	 QWORD PTR __imp_fwritemsg
$LN8@ecpsvm_sho:

; 4839 :     }
; 4840 : 
; 4841 :     // "+-----------+------------+------------+-------+"
; 4842 :     WRMSG( HHC01702, "I" );

  000ce	b9 01 00 00 00	 mov	 ecx, 1
  000d3	ff 15 00 00 00
	00		 call	 QWORD PTR __imp___acrt_iob_func
  000d9	48 8d 0d 00 00
	00 00		 lea	 rcx, OFFSET FLAT:$SG175364
  000e0	48 89 4c 24 30	 mov	 QWORD PTR [rsp+48], rcx
  000e5	48 8d 0d 00 00
	00 00		 lea	 rcx, OFFSET FLAT:$SG175365
  000ec	48 89 4c 24 28	 mov	 QWORD PTR [rsp+40], rcx
  000f1	48 89 44 24 20	 mov	 QWORD PTR [rsp+32], rax
  000f6	41 b9 03 00 00
	00		 mov	 r9d, 3
  000fc	4c 8d 05 00 00
	00 00		 lea	 r8, OFFSET FLAT:$SG175366
  00103	ba ea 12 00 00	 mov	 edx, 4842		; 000012eaH
  00108	48 8d 0d 00 00
	00 00		 lea	 rcx, OFFSET FLAT:$SG175367
  0010f	ff 15 00 00 00
	00		 call	 QWORD PTR __imp_fwritemsg

; 4843 :     // "| %-9s | %10s | %10s | %-5s |"
; 4844 :     WRMSG( HHC01706, "I", "VM ASSIST", "Calls  ", "Hits  ", "Ratio" );

  00115	b9 01 00 00 00	 mov	 ecx, 1
  0011a	ff 15 00 00 00
	00		 call	 QWORD PTR __imp___acrt_iob_func
  00120	48 8d 0d 00 00
	00 00		 lea	 rcx, OFFSET FLAT:$SG175368
  00127	48 89 4c 24 50	 mov	 QWORD PTR [rsp+80], rcx
  0012c	48 8d 0d 00 00
	00 00		 lea	 rcx, OFFSET FLAT:$SG175369
  00133	48 89 4c 24 48	 mov	 QWORD PTR [rsp+72], rcx
  00138	48 8d 0d 00 00
	00 00		 lea	 rcx, OFFSET FLAT:$SG175370
  0013f	48 89 4c 24 40	 mov	 QWORD PTR [rsp+64], rcx
  00144	48 8d 0d 00 00
	00 00		 lea	 rcx, OFFSET FLAT:$SG175371
  0014b	48 89 4c 24 38	 mov	 QWORD PTR [rsp+56], rcx
  00150	48 8d 0d 00 00
	00 00		 lea	 rcx, OFFSET FLAT:$SG175372
  00157	48 89 4c 24 30	 mov	 QWORD PTR [rsp+48], rcx
  0015c	48 8d 0d 00 00
	00 00		 lea	 rcx, OFFSET FLAT:$SG175373
  00163	48 89 4c 24 28	 mov	 QWORD PTR [rsp+40], rcx
  00168	48 89 44 24 20	 mov	 QWORD PTR [rsp+32], rax
  0016d	41 b9 03 00 00
	00		 mov	 r9d, 3
  00173	4c 8d 05 00 00
	00 00		 lea	 r8, OFFSET FLAT:$SG175374
  0017a	ba ec 12 00 00	 mov	 edx, 4844		; 000012ecH
  0017f	48 8d 0d 00 00
	00 00		 lea	 rcx, OFFSET FLAT:$SG175375
  00186	ff 15 00 00 00
	00		 call	 QWORD PTR __imp_fwritemsg

; 4845 :     // "+-----------+------------+------------+-------+"
; 4846 :     WRMSG(HHC01702,"I");

  0018c	b9 01 00 00 00	 mov	 ecx, 1
  00191	ff 15 00 00 00
	00		 call	 QWORD PTR __imp___acrt_iob_func
  00197	48 8d 0d 00 00
	00 00		 lea	 rcx, OFFSET FLAT:$SG175376
  0019e	48 89 4c 24 30	 mov	 QWORD PTR [rsp+48], rcx
  001a3	48 8d 0d 00 00
	00 00		 lea	 rcx, OFFSET FLAT:$SG175377
  001aa	48 89 4c 24 28	 mov	 QWORD PTR [rsp+40], rcx
  001af	48 89 44 24 20	 mov	 QWORD PTR [rsp+32], rax
  001b4	41 b9 03 00 00
	00		 mov	 r9d, 3
  001ba	4c 8d 05 00 00
	00 00		 lea	 r8, OFFSET FLAT:$SG175378
  001c1	ba ee 12 00 00	 mov	 edx, 4846		; 000012eeH
  001c6	48 8d 0d 00 00
	00 00		 lea	 rcx, OFFSET FLAT:$SG175379
  001cd	ff 15 00 00 00
	00		 call	 QWORD PTR __imp_fwritemsg

; 4847 : 
; 4848 :     ar = malloc( sizeof( ecpsvm_sastats ));

  001d3	b9 80 01 00 00	 mov	 ecx, 384		; 00000180H
  001d8	ff 15 00 00 00
	00		 call	 QWORD PTR __imp_malloc
  001de	48 89 44 24 60	 mov	 QWORD PTR ar$[rsp], rax

; 4849 :     memcpy( ar, &ecpsvm_sastats, sizeof( ecpsvm_sastats ));

  001e3	48 8d 05 00 00
	00 00		 lea	 rax, OFFSET FLAT:ecpsvm_sastats
  001ea	48 8b 7c 24 60	 mov	 rdi, QWORD PTR ar$[rsp]
  001ef	48 8b f0	 mov	 rsi, rax
  001f2	b9 80 01 00 00	 mov	 ecx, 384		; 00000180H
  001f7	f3 a4		 rep movsb

; 4850 :     asize = sizeof( ecpsvm_sastats ) / sizeof( ECPSVM_STAT );

  001f9	48 c7 44 24 68
	0c 00 00 00	 mov	 QWORD PTR asize$[rsp], 12

; 4851 :     qsort( ar, asize, sizeof( ECPSVM_STAT ), ecpsvm_sortstats );

  00202	4c 8d 0d 00 00
	00 00		 lea	 r9, OFFSET FLAT:ecpsvm_sortstats
  00209	41 b8 20 00 00
	00		 mov	 r8d, 32			; 00000020H
  0020f	48 8b 54 24 68	 mov	 rdx, QWORD PTR asize$[rsp]
  00214	48 8b 4c 24 60	 mov	 rcx, QWORD PTR ar$[rsp]
  00219	ff 15 00 00 00
	00		 call	 QWORD PTR __imp_qsort

; 4852 :     ecpsvm_showstats2( ar, asize );

  0021f	48 8b 54 24 68	 mov	 rdx, QWORD PTR asize$[rsp]
  00224	48 8b 4c 24 60	 mov	 rcx, QWORD PTR ar$[rsp]
  00229	e8 00 00 00 00	 call	 ecpsvm_showstats2

; 4853 :     free( ar );

  0022e	48 8b 4c 24 60	 mov	 rcx, QWORD PTR ar$[rsp]
  00233	ff 15 00 00 00
	00		 call	 QWORD PTR __imp_free

; 4854 : 
; 4855 :     // "+-----------+------------+------------+-------+"
; 4856 :     WRMSG( HHC01702, "I" );

  00239	b9 01 00 00 00	 mov	 ecx, 1
  0023e	ff 15 00 00 00
	00		 call	 QWORD PTR __imp___acrt_iob_func
  00244	48 8d 0d 00 00
	00 00		 lea	 rcx, OFFSET FLAT:$SG175380
  0024b	48 89 4c 24 30	 mov	 QWORD PTR [rsp+48], rcx
  00250	48 8d 0d 00 00
	00 00		 lea	 rcx, OFFSET FLAT:$SG175381
  00257	48 89 4c 24 28	 mov	 QWORD PTR [rsp+40], rcx
  0025c	48 89 44 24 20	 mov	 QWORD PTR [rsp+32], rax
  00261	41 b9 03 00 00
	00		 mov	 r9d, 3
  00267	4c 8d 05 00 00
	00 00		 lea	 r8, OFFSET FLAT:$SG175382
  0026e	ba f8 12 00 00	 mov	 edx, 4856		; 000012f8H
  00273	48 8d 0d 00 00
	00 00		 lea	 rcx, OFFSET FLAT:$SG175383
  0027a	ff 15 00 00 00
	00		 call	 QWORD PTR __imp_fwritemsg

; 4857 :     // "| %-9s | %10s | %10s | %-5s |"
; 4858 :     WRMSG( HHC01706, "I", "CP ASSIST", "Calls  ", "Hits  ", "Ratio" );

  00280	b9 01 00 00 00	 mov	 ecx, 1
  00285	ff 15 00 00 00
	00		 call	 QWORD PTR __imp___acrt_iob_func
  0028b	48 8d 0d 00 00
	00 00		 lea	 rcx, OFFSET FLAT:$SG175384
  00292	48 89 4c 24 50	 mov	 QWORD PTR [rsp+80], rcx
  00297	48 8d 0d 00 00
	00 00		 lea	 rcx, OFFSET FLAT:$SG175385
  0029e	48 89 4c 24 48	 mov	 QWORD PTR [rsp+72], rcx
  002a3	48 8d 0d 00 00
	00 00		 lea	 rcx, OFFSET FLAT:$SG175386
  002aa	48 89 4c 24 40	 mov	 QWORD PTR [rsp+64], rcx
  002af	48 8d 0d 00 00
	00 00		 lea	 rcx, OFFSET FLAT:$SG175387
  002b6	48 89 4c 24 38	 mov	 QWORD PTR [rsp+56], rcx
  002bb	48 8d 0d 00 00
	00 00		 lea	 rcx, OFFSET FLAT:$SG175388
  002c2	48 89 4c 24 30	 mov	 QWORD PTR [rsp+48], rcx
  002c7	48 8d 0d 00 00
	00 00		 lea	 rcx, OFFSET FLAT:$SG175389
  002ce	48 89 4c 24 28	 mov	 QWORD PTR [rsp+40], rcx
  002d3	48 89 44 24 20	 mov	 QWORD PTR [rsp+32], rax
  002d8	41 b9 03 00 00
	00		 mov	 r9d, 3
  002de	4c 8d 05 00 00
	00 00		 lea	 r8, OFFSET FLAT:$SG175390
  002e5	ba fa 12 00 00	 mov	 edx, 4858		; 000012faH
  002ea	48 8d 0d 00 00
	00 00		 lea	 rcx, OFFSET FLAT:$SG175391
  002f1	ff 15 00 00 00
	00		 call	 QWORD PTR __imp_fwritemsg

; 4859 :     // "+-----------+------------+------------+-------+"
; 4860 :     WRMSG( HHC01702, "I" );

  002f7	b9 01 00 00 00	 mov	 ecx, 1
  002fc	ff 15 00 00 00
	00		 call	 QWORD PTR __imp___acrt_iob_func
  00302	48 8d 0d 00 00
	00 00		 lea	 rcx, OFFSET FLAT:$SG175392
  00309	48 89 4c 24 30	 mov	 QWORD PTR [rsp+48], rcx
  0030e	48 8d 0d 00 00
	00 00		 lea	 rcx, OFFSET FLAT:$SG175393
  00315	48 89 4c 24 28	 mov	 QWORD PTR [rsp+40], rcx
  0031a	48 89 44 24 20	 mov	 QWORD PTR [rsp+32], rax
  0031f	41 b9 03 00 00
	00		 mov	 r9d, 3
  00325	4c 8d 05 00 00
	00 00		 lea	 r8, OFFSET FLAT:$SG175394
  0032c	ba fc 12 00 00	 mov	 edx, 4860		; 000012fcH
  00331	48 8d 0d 00 00
	00 00		 lea	 rcx, OFFSET FLAT:$SG175395
  00338	ff 15 00 00 00
	00		 call	 QWORD PTR __imp_fwritemsg

; 4861 : 
; 4862 :     ar = malloc( sizeof( ecpsvm_cpstats ));

  0033e	b9 20 03 00 00	 mov	 ecx, 800		; 00000320H
  00343	ff 15 00 00 00
	00		 call	 QWORD PTR __imp_malloc
  00349	48 89 44 24 60	 mov	 QWORD PTR ar$[rsp], rax

; 4863 :     memcpy( ar, &ecpsvm_cpstats, sizeof( ecpsvm_cpstats ));

  0034e	48 8d 05 00 00
	00 00		 lea	 rax, OFFSET FLAT:ecpsvm_cpstats
  00355	48 8b 7c 24 60	 mov	 rdi, QWORD PTR ar$[rsp]
  0035a	48 8b f0	 mov	 rsi, rax
  0035d	b9 20 03 00 00	 mov	 ecx, 800		; 00000320H
  00362	f3 a4		 rep movsb

; 4864 :     asize = sizeof( ecpsvm_cpstats ) / sizeof( ECPSVM_STAT );

  00364	48 c7 44 24 68
	19 00 00 00	 mov	 QWORD PTR asize$[rsp], 25

; 4865 :     qsort( ar, asize, sizeof( ECPSVM_STAT ), ecpsvm_sortstats );

  0036d	4c 8d 0d 00 00
	00 00		 lea	 r9, OFFSET FLAT:ecpsvm_sortstats
  00374	41 b8 20 00 00
	00		 mov	 r8d, 32			; 00000020H
  0037a	48 8b 54 24 68	 mov	 rdx, QWORD PTR asize$[rsp]
  0037f	48 8b 4c 24 60	 mov	 rcx, QWORD PTR ar$[rsp]
  00384	ff 15 00 00 00
	00		 call	 QWORD PTR __imp_qsort

; 4866 :     ecpsvm_showstats2( ar, asize );

  0038a	48 8b 54 24 68	 mov	 rdx, QWORD PTR asize$[rsp]
  0038f	48 8b 4c 24 60	 mov	 rcx, QWORD PTR ar$[rsp]
  00394	e8 00 00 00 00	 call	 ecpsvm_showstats2

; 4867 :     free( ar );

  00399	48 8b 4c 24 60	 mov	 rcx, QWORD PTR ar$[rsp]
  0039e	ff 15 00 00 00
	00		 call	 QWORD PTR __imp_free

; 4868 : }

  003a4	48 83 c4 78	 add	 rsp, 120		; 00000078H
  003a8	5f		 pop	 rdi
  003a9	5e		 pop	 rsi
  003aa	c3		 ret	 0
ecpsvm_showstats ENDP
_TEXT	ENDS
; Function compile flags: /Odtp
; File C:\papa\MyGit\hyperion-zvector\ecpsvm.c
_TEXT	SEGMENT
i$ = 96
callt$ = 104
unsupcc$ = 112
hitt$ = 120
notshown$ = 128
tv93 = 136
tv172 = 144
tv206 = 152
tv174 = 160
tv178 = 168
nname$ = 176
__$ArrayPad$ = 208
ar$ = 240
count$ = 248
ecpsvm_showstats2 PROC

; 4763 : {

  00000	48 89 54 24 10	 mov	 QWORD PTR [rsp+16], rdx
  00005	48 89 4c 24 08	 mov	 QWORD PTR [rsp+8], rcx
  0000a	48 81 ec e8 00
	00 00		 sub	 rsp, 232		; 000000e8H
  00011	48 8b 05 00 00
	00 00		 mov	 rax, QWORD PTR __security_cookie
  00018	48 33 c4	 xor	 rax, rsp
  0001b	48 89 84 24 d0
	00 00 00	 mov	 QWORD PTR __$ArrayPad$[rsp], rax

; 4764 :     char nname[32];
; 4765 :     U64  callt    = 0;

  00023	48 c7 44 24 68
	00 00 00 00	 mov	 QWORD PTR callt$[rsp], 0

; 4766 :     U64  hitt     = 0;

  0002c	48 c7 44 24 78
	00 00 00 00	 mov	 QWORD PTR hitt$[rsp], 0

; 4767 :     U64  unsupcc  = 0;

  00035	48 c7 44 24 70
	00 00 00 00	 mov	 QWORD PTR unsupcc$[rsp], 0

; 4768 :     U64  notshown = 0;

  0003e	48 c7 84 24 80
	00 00 00 00 00
	00 00		 mov	 QWORD PTR notshown$[rsp], 0

; 4769 : 
; 4770 :     size_t i;
; 4771 : 
; 4772 :     for (i=0; i < count; i++)

  0004a	48 c7 44 24 60
	00 00 00 00	 mov	 QWORD PTR i$[rsp], 0
  00053	eb 0d		 jmp	 SHORT $LN4@ecpsvm_sho
$LN2@ecpsvm_sho:
  00055	48 8b 44 24 60	 mov	 rax, QWORD PTR i$[rsp]
  0005a	48 ff c0	 inc	 rax
  0005d	48 89 44 24 60	 mov	 QWORD PTR i$[rsp], rax
$LN4@ecpsvm_sho:
  00062	48 8b 84 24 f8
	00 00 00	 mov	 rax, QWORD PTR count$[rsp]
  0006a	48 39 44 24 60	 cmp	 QWORD PTR i$[rsp], rax
  0006f	0f 83 d2 02 00
	00		 jae	 $LN3@ecpsvm_sho

; 4773 :     {
; 4774 :         if (ar[i].call)

  00075	48 6b 44 24 60
	20		 imul	 rax, QWORD PTR i$[rsp], 32 ; 00000020H
  0007b	48 8b 8c 24 f0
	00 00 00	 mov	 rcx, QWORD PTR ar$[rsp]
  00083	48 83 7c 01 08
	00		 cmp	 QWORD PTR [rcx+rax+8], 0
  00089	0f 84 a0 02 00
	00		 je	 $LN5@ecpsvm_sho

; 4775 :         {
; 4776 :             callt += ar[i].call;

  0008f	48 6b 44 24 60
	20		 imul	 rax, QWORD PTR i$[rsp], 32 ; 00000020H
  00095	48 8b 8c 24 f0
	00 00 00	 mov	 rcx, QWORD PTR ar$[rsp]
  0009d	48 8b 44 01 08	 mov	 rax, QWORD PTR [rcx+rax+8]
  000a2	48 8b 4c 24 68	 mov	 rcx, QWORD PTR callt$[rsp]
  000a7	48 03 c8	 add	 rcx, rax
  000aa	48 8b c1	 mov	 rax, rcx
  000ad	48 89 44 24 68	 mov	 QWORD PTR callt$[rsp], rax

; 4777 :             hitt  += ar[i].hit;

  000b2	48 6b 44 24 60
	20		 imul	 rax, QWORD PTR i$[rsp], 32 ; 00000020H
  000b8	48 8b 8c 24 f0
	00 00 00	 mov	 rcx, QWORD PTR ar$[rsp]
  000c0	48 8b 44 01 10	 mov	 rax, QWORD PTR [rcx+rax+16]
  000c5	48 8b 4c 24 78	 mov	 rcx, QWORD PTR hitt$[rsp]
  000ca	48 03 c8	 add	 rcx, rax
  000cd	48 8b c1	 mov	 rax, rcx
  000d0	48 89 44 24 78	 mov	 QWORD PTR hitt$[rsp], rax

; 4778 : 
; 4779 :             if (!ar[i].support)

  000d5	48 6b 44 24 60
	20		 imul	 rax, QWORD PTR i$[rsp], 32 ; 00000020H
  000db	48 8b 8c 24 f0
	00 00 00	 mov	 rcx, QWORD PTR ar$[rsp]
  000e3	8b 44 01 18	 mov	 eax, DWORD PTR [rcx+rax+24]
  000e7	83 e0 01	 and	 eax, 1
  000ea	85 c0		 test	 eax, eax
  000ec	75 23		 jne	 SHORT $LN7@ecpsvm_sho

; 4780 :                 unsupcc += ar[i].call;

  000ee	48 6b 44 24 60
	20		 imul	 rax, QWORD PTR i$[rsp], 32 ; 00000020H
  000f4	48 8b 8c 24 f0
	00 00 00	 mov	 rcx, QWORD PTR ar$[rsp]
  000fc	48 8b 44 01 08	 mov	 rax, QWORD PTR [rcx+rax+8]
  00101	48 8b 4c 24 70	 mov	 rcx, QWORD PTR unsupcc$[rsp]
  00106	48 03 c8	 add	 rcx, rax
  00109	48 8b c1	 mov	 rax, rcx
  0010c	48 89 44 24 70	 mov	 QWORD PTR unsupcc$[rsp], rax
$LN7@ecpsvm_sho:

; 4781 : 
; 4782 :             MSGBUF( nname, "%s%s", ar[i].name, ar[i].support ? "" : "*" );

  00111	48 6b 44 24 60
	20		 imul	 rax, QWORD PTR i$[rsp], 32 ; 00000020H
  00117	48 8b 8c 24 f0
	00 00 00	 mov	 rcx, QWORD PTR ar$[rsp]
  0011f	8b 44 01 18	 mov	 eax, DWORD PTR [rcx+rax+24]
  00123	83 e0 01	 and	 eax, 1
  00126	85 c0		 test	 eax, eax
  00128	74 11		 je	 SHORT $LN16@ecpsvm_sho
  0012a	48 8d 05 00 00
	00 00		 lea	 rax, OFFSET FLAT:$SG175293
  00131	48 89 84 24 88
	00 00 00	 mov	 QWORD PTR tv93[rsp], rax
  00139	eb 0f		 jmp	 SHORT $LN17@ecpsvm_sho
$LN16@ecpsvm_sho:
  0013b	48 8d 05 00 00
	00 00		 lea	 rax, OFFSET FLAT:$SG175294
  00142	48 89 84 24 88
	00 00 00	 mov	 QWORD PTR tv93[rsp], rax
$LN17@ecpsvm_sho:
  0014a	48 6b 44 24 60
	20		 imul	 rax, QWORD PTR i$[rsp], 32 ; 00000020H
  00150	48 8b 8c 24 88
	00 00 00	 mov	 rcx, QWORD PTR tv93[rsp]
  00158	48 89 4c 24 20	 mov	 QWORD PTR [rsp+32], rcx
  0015d	48 8b 8c 24 f0
	00 00 00	 mov	 rcx, QWORD PTR ar$[rsp]
  00165	4c 8b 0c 01	 mov	 r9, QWORD PTR [rcx+rax]
  00169	4c 8d 05 00 00
	00 00		 lea	 r8, OFFSET FLAT:$SG175295
  00170	ba 20 00 00 00	 mov	 edx, 32			; 00000020H
  00175	48 8d 8c 24 b0
	00 00 00	 lea	 rcx, QWORD PTR nname$[rsp]
  0017d	ff 15 00 00 00
	00		 call	 QWORD PTR __imp_w32_snprintf

; 4783 : 
; 4784 :             if (!ar[i].enabled) STRLCAT( nname, "-" );

  00183	48 6b 44 24 60
	20		 imul	 rax, QWORD PTR i$[rsp], 32 ; 00000020H
  00189	48 8b 8c 24 f0
	00 00 00	 mov	 rcx, QWORD PTR ar$[rsp]
  00191	8b 44 01 18	 mov	 eax, DWORD PTR [rcx+rax+24]
  00195	d1 e8		 shr	 eax, 1
  00197	83 e0 01	 and	 eax, 1
  0019a	85 c0		 test	 eax, eax
  0019c	75 1b		 jne	 SHORT $LN8@ecpsvm_sho
  0019e	41 b8 20 00 00
	00		 mov	 r8d, 32			; 00000020H
  001a4	48 8d 15 00 00
	00 00		 lea	 rdx, OFFSET FLAT:$SG175297
  001ab	48 8d 8c 24 b0
	00 00 00	 lea	 rcx, QWORD PTR nname$[rsp]
  001b3	ff 15 00 00 00
	00		 call	 QWORD PTR __imp_strlcat
$LN8@ecpsvm_sho:

; 4785 :             if ( ar[i].debug)   STRLCAT( nname, "%" );

  001b9	48 6b 44 24 60
	20		 imul	 rax, QWORD PTR i$[rsp], 32 ; 00000020H
  001bf	48 8b 8c 24 f0
	00 00 00	 mov	 rcx, QWORD PTR ar$[rsp]
  001c7	8b 44 01 18	 mov	 eax, DWORD PTR [rcx+rax+24]
  001cb	c1 e8 02	 shr	 eax, 2
  001ce	83 e0 01	 and	 eax, 1
  001d1	85 c0		 test	 eax, eax
  001d3	74 1b		 je	 SHORT $LN9@ecpsvm_sho
  001d5	41 b8 20 00 00
	00		 mov	 r8d, 32			; 00000020H
  001db	48 8d 15 00 00
	00 00		 lea	 rdx, OFFSET FLAT:$SG175299
  001e2	48 8d 8c 24 b0
	00 00 00	 lea	 rcx, QWORD PTR nname$[rsp]
  001ea	ff 15 00 00 00
	00		 call	 QWORD PTR __imp_strlcat
$LN9@ecpsvm_sho:

; 4786 :             if ( ar[i].total)   STRLCAT( nname, "+" );

  001f0	48 6b 44 24 60
	20		 imul	 rax, QWORD PTR i$[rsp], 32 ; 00000020H
  001f6	48 8b 8c 24 f0
	00 00 00	 mov	 rcx, QWORD PTR ar$[rsp]
  001fe	8b 44 01 18	 mov	 eax, DWORD PTR [rcx+rax+24]
  00202	c1 e8 03	 shr	 eax, 3
  00205	83 e0 01	 and	 eax, 1
  00208	85 c0		 test	 eax, eax
  0020a	74 1b		 je	 SHORT $LN10@ecpsvm_sho
  0020c	41 b8 20 00 00
	00		 mov	 r8d, 32			; 00000020H
  00212	48 8d 15 00 00
	00 00		 lea	 rdx, OFFSET FLAT:$SG175301
  00219	48 8d 8c 24 b0
	00 00 00	 lea	 rcx, QWORD PTR nname$[rsp]
  00221	ff 15 00 00 00
	00		 call	 QWORD PTR __imp_strlcat
$LN10@ecpsvm_sho:

; 4787 : 
; 4788 :             // "| %-9s | %10"PRIu64" | %10"PRIu64" |  %3"PRIu64"%% |"
; 4789 :             WRMSG( HHC01701, "I", nname, ar[i].call, ar[i].hit,

  00227	48 6b 44 24 60
	20		 imul	 rax, QWORD PTR i$[rsp], 32 ; 00000020H
  0022d	48 8b 8c 24 f0
	00 00 00	 mov	 rcx, QWORD PTR ar$[rsp]
  00235	48 83 7c 01 08
	00		 cmp	 QWORD PTR [rcx+rax+8], 0
  0023b	74 33		 je	 SHORT $LN18@ecpsvm_sho
  0023d	48 6b 44 24 60
	20		 imul	 rax, QWORD PTR i$[rsp], 32 ; 00000020H
  00243	48 8b 8c 24 f0
	00 00 00	 mov	 rcx, QWORD PTR ar$[rsp]
  0024b	48 6b 44 01 10
	64		 imul	 rax, QWORD PTR [rcx+rax+16], 100 ; 00000064H
  00251	48 6b 4c 24 60
	20		 imul	 rcx, QWORD PTR i$[rsp], 32 ; 00000020H
  00257	33 d2		 xor	 edx, edx
  00259	4c 8b 84 24 f0
	00 00 00	 mov	 r8, QWORD PTR ar$[rsp]
  00261	49 f7 74 08 08	 div	 QWORD PTR [r8+rcx+8]
  00266	48 89 84 24 90
	00 00 00	 mov	 QWORD PTR tv172[rsp], rax
  0026e	eb 0c		 jmp	 SHORT $LN19@ecpsvm_sho
$LN18@ecpsvm_sho:
  00270	48 c7 84 24 90
	00 00 00 00 00
	00 00		 mov	 QWORD PTR tv172[rsp], 0
$LN19@ecpsvm_sho:
  0027c	48 6b 44 24 60
	20		 imul	 rax, QWORD PTR i$[rsp], 32 ; 00000020H
  00282	48 89 84 24 a0
	00 00 00	 mov	 QWORD PTR tv174[rsp], rax
  0028a	48 6b 4c 24 60
	20		 imul	 rcx, QWORD PTR i$[rsp], 32 ; 00000020H
  00290	48 89 8c 24 a8
	00 00 00	 mov	 QWORD PTR tv178[rsp], rcx
  00298	b9 01 00 00 00	 mov	 ecx, 1
  0029d	ff 15 00 00 00
	00		 call	 QWORD PTR __imp___acrt_iob_func
  002a3	48 8b 8c 24 90
	00 00 00	 mov	 rcx, QWORD PTR tv172[rsp]
  002ab	48 89 4c 24 50	 mov	 QWORD PTR [rsp+80], rcx
  002b0	48 8b 8c 24 f0
	00 00 00	 mov	 rcx, QWORD PTR ar$[rsp]
  002b8	48 8b 94 24 a0
	00 00 00	 mov	 rdx, QWORD PTR tv174[rsp]
  002c0	48 8b 4c 11 10	 mov	 rcx, QWORD PTR [rcx+rdx+16]
  002c5	48 89 4c 24 48	 mov	 QWORD PTR [rsp+72], rcx
  002ca	48 8b 8c 24 f0
	00 00 00	 mov	 rcx, QWORD PTR ar$[rsp]
  002d2	48 8b 94 24 a8
	00 00 00	 mov	 rdx, QWORD PTR tv178[rsp]
  002da	48 8b 4c 11 08	 mov	 rcx, QWORD PTR [rcx+rdx+8]
  002df	48 89 4c 24 40	 mov	 QWORD PTR [rsp+64], rcx
  002e4	48 8d 8c 24 b0
	00 00 00	 lea	 rcx, QWORD PTR nname$[rsp]
  002ec	48 89 4c 24 38	 mov	 QWORD PTR [rsp+56], rcx
  002f1	48 8d 0d 00 00
	00 00		 lea	 rcx, OFFSET FLAT:$SG175302
  002f8	48 89 4c 24 30	 mov	 QWORD PTR [rsp+48], rcx
  002fd	48 8d 0d 00 00
	00 00		 lea	 rcx, OFFSET FLAT:$SG175303
  00304	48 89 4c 24 28	 mov	 QWORD PTR [rsp+40], rcx
  00309	48 89 44 24 20	 mov	 QWORD PTR [rsp+32], rax
  0030e	41 b9 03 00 00
	00		 mov	 r9d, 3
  00314	4c 8d 05 00 00
	00 00		 lea	 r8, OFFSET FLAT:$SG175304
  0031b	ba b6 12 00 00	 mov	 edx, 4790		; 000012b6H
  00320	48 8d 0d 00 00
	00 00		 lea	 rcx, OFFSET FLAT:$SG175305
  00327	ff 15 00 00 00
	00		 call	 QWORD PTR __imp_fwritemsg

; 4790 :                     ar[i].call ? (ar[i].hit * 100) / ar[i].call : 0 );
; 4791 :         }

  0032d	eb 13		 jmp	 SHORT $LN6@ecpsvm_sho
$LN5@ecpsvm_sho:

; 4792 :         else
; 4793 :             notshown++;

  0032f	48 8b 84 24 80
	00 00 00	 mov	 rax, QWORD PTR notshown$[rsp]
  00337	48 ff c0	 inc	 rax
  0033a	48 89 84 24 80
	00 00 00	 mov	 QWORD PTR notshown$[rsp], rax
$LN6@ecpsvm_sho:

; 4794 :     }

  00342	e9 0e fd ff ff	 jmp	 $LN2@ecpsvm_sho
$LN3@ecpsvm_sho:

; 4795 : 
; 4796 :     if (callt)

  00347	48 83 7c 24 68
	00		 cmp	 QWORD PTR callt$[rsp], 0
  0034d	74 47		 je	 SHORT $LN11@ecpsvm_sho

; 4797 :     {
; 4798 :         // "+-----------+------------+------------+-------+"
; 4799 :         WRMSG( HHC01702, "I" );

  0034f	b9 01 00 00 00	 mov	 ecx, 1
  00354	ff 15 00 00 00
	00		 call	 QWORD PTR __imp___acrt_iob_func
  0035a	48 8d 0d 00 00
	00 00		 lea	 rcx, OFFSET FLAT:$SG175307
  00361	48 89 4c 24 30	 mov	 QWORD PTR [rsp+48], rcx
  00366	48 8d 0d 00 00
	00 00		 lea	 rcx, OFFSET FLAT:$SG175308
  0036d	48 89 4c 24 28	 mov	 QWORD PTR [rsp+40], rcx
  00372	48 89 44 24 20	 mov	 QWORD PTR [rsp+32], rax
  00377	41 b9 03 00 00
	00		 mov	 r9d, 3
  0037d	4c 8d 05 00 00
	00 00		 lea	 r8, OFFSET FLAT:$SG175309
  00384	ba bf 12 00 00	 mov	 edx, 4799		; 000012bfH
  00389	48 8d 0d 00 00
	00 00		 lea	 rcx, OFFSET FLAT:$SG175310
  00390	ff 15 00 00 00
	00		 call	 QWORD PTR __imp_fwritemsg
$LN11@ecpsvm_sho:

; 4800 :     }
; 4801 :     // "| %-9s | %10"PRIu64" | %10"PRIu64" |  %3"PRIu64"%% |"
; 4802 :     WRMSG( HHC01701, "I", "Total", callt, hitt,

  00396	48 83 7c 24 68
	00		 cmp	 QWORD PTR callt$[rsp], 0
  0039c	74 17		 je	 SHORT $LN20@ecpsvm_sho
  0039e	48 6b 44 24 78
	64		 imul	 rax, QWORD PTR hitt$[rsp], 100 ; 00000064H
  003a4	33 d2		 xor	 edx, edx
  003a6	48 f7 74 24 68	 div	 QWORD PTR callt$[rsp]
  003ab	48 89 84 24 98
	00 00 00	 mov	 QWORD PTR tv206[rsp], rax
  003b3	eb 0c		 jmp	 SHORT $LN21@ecpsvm_sho
$LN20@ecpsvm_sho:
  003b5	48 c7 84 24 98
	00 00 00 00 00
	00 00		 mov	 QWORD PTR tv206[rsp], 0
$LN21@ecpsvm_sho:
  003c1	b9 01 00 00 00	 mov	 ecx, 1
  003c6	ff 15 00 00 00
	00		 call	 QWORD PTR __imp___acrt_iob_func
  003cc	48 8b 8c 24 98
	00 00 00	 mov	 rcx, QWORD PTR tv206[rsp]
  003d4	48 89 4c 24 50	 mov	 QWORD PTR [rsp+80], rcx
  003d9	48 8b 4c 24 78	 mov	 rcx, QWORD PTR hitt$[rsp]
  003de	48 89 4c 24 48	 mov	 QWORD PTR [rsp+72], rcx
  003e3	48 8b 4c 24 68	 mov	 rcx, QWORD PTR callt$[rsp]
  003e8	48 89 4c 24 40	 mov	 QWORD PTR [rsp+64], rcx
  003ed	48 8d 0d 00 00
	00 00		 lea	 rcx, OFFSET FLAT:$SG175311
  003f4	48 89 4c 24 38	 mov	 QWORD PTR [rsp+56], rcx
  003f9	48 8d 0d 00 00
	00 00		 lea	 rcx, OFFSET FLAT:$SG175312
  00400	48 89 4c 24 30	 mov	 QWORD PTR [rsp+48], rcx
  00405	48 8d 0d 00 00
	00 00		 lea	 rcx, OFFSET FLAT:$SG175313
  0040c	48 89 4c 24 28	 mov	 QWORD PTR [rsp+40], rcx
  00411	48 89 44 24 20	 mov	 QWORD PTR [rsp+32], rax
  00416	41 b9 03 00 00
	00		 mov	 r9d, 3
  0041c	4c 8d 05 00 00
	00 00		 lea	 r8, OFFSET FLAT:$SG175314
  00423	ba c3 12 00 00	 mov	 edx, 4803		; 000012c3H
  00428	48 8d 0d 00 00
	00 00		 lea	 rcx, OFFSET FLAT:$SG175315
  0042f	ff 15 00 00 00
	00		 call	 QWORD PTR __imp_fwritemsg

; 4803 :             callt ? (hitt * 100) / callt : 0 );
; 4804 :     // "+-----------+------------+------------+-------+"
; 4805 :     WRMSG( HHC01702, "I" );

  00435	b9 01 00 00 00	 mov	 ecx, 1
  0043a	ff 15 00 00 00
	00		 call	 QWORD PTR __imp___acrt_iob_func
  00440	48 8d 0d 00 00
	00 00		 lea	 rcx, OFFSET FLAT:$SG175316
  00447	48 89 4c 24 30	 mov	 QWORD PTR [rsp+48], rcx
  0044c	48 8d 0d 00 00
	00 00		 lea	 rcx, OFFSET FLAT:$SG175317
  00453	48 89 4c 24 28	 mov	 QWORD PTR [rsp+40], rcx
  00458	48 89 44 24 20	 mov	 QWORD PTR [rsp+32], rax
  0045d	41 b9 03 00 00
	00		 mov	 r9d, 3
  00463	4c 8d 05 00 00
	00 00		 lea	 r8, OFFSET FLAT:$SG175318
  0046a	ba c5 12 00 00	 mov	 edx, 4805		; 000012c5H
  0046f	48 8d 0d 00 00
	00 00		 lea	 rcx, OFFSET FLAT:$SG175319
  00476	ff 15 00 00 00
	00		 call	 QWORD PTR __imp_fwritemsg

; 4806 : 
; 4807 :     if (unsupcc)

  0047c	48 83 7c 24 70
	00		 cmp	 QWORD PTR unsupcc$[rsp], 0
  00482	74 47		 je	 SHORT $LN12@ecpsvm_sho

; 4808 :     {
; 4809 :         // "* : Unsupported, - : Disabled, %% - Debug"
; 4810 :         WRMSG( HHC01703, "I" );

  00484	b9 01 00 00 00	 mov	 ecx, 1
  00489	ff 15 00 00 00
	00		 call	 QWORD PTR __imp___acrt_iob_func
  0048f	48 8d 0d 00 00
	00 00		 lea	 rcx, OFFSET FLAT:$SG175321
  00496	48 89 4c 24 30	 mov	 QWORD PTR [rsp+48], rcx
  0049b	48 8d 0d 00 00
	00 00		 lea	 rcx, OFFSET FLAT:$SG175322
  004a2	48 89 4c 24 28	 mov	 QWORD PTR [rsp+40], rcx
  004a7	48 89 44 24 20	 mov	 QWORD PTR [rsp+32], rax
  004ac	41 b9 03 00 00
	00		 mov	 r9d, 3
  004b2	4c 8d 05 00 00
	00 00		 lea	 r8, OFFSET FLAT:$SG175323
  004b9	ba ca 12 00 00	 mov	 edx, 4810		; 000012caH
  004be	48 8d 0d 00 00
	00 00		 lea	 rcx, OFFSET FLAT:$SG175324
  004c5	ff 15 00 00 00
	00		 call	 QWORD PTR __imp_fwritemsg
$LN12@ecpsvm_sho:

; 4811 :     }
; 4812 :     if (notshown)

  004cb	48 83 bc 24 80
	00 00 00 00	 cmp	 QWORD PTR notshown$[rsp], 0
  004d4	74 54		 je	 SHORT $LN13@ecpsvm_sho

; 4813 :     {
; 4814 :         // "%"PRIu64" entries not shown and never invoked"
; 4815 :         WRMSG( HHC01704, "I", notshown );

  004d6	b9 01 00 00 00	 mov	 ecx, 1
  004db	ff 15 00 00 00
	00		 call	 QWORD PTR __imp___acrt_iob_func
  004e1	48 8b 8c 24 80
	00 00 00	 mov	 rcx, QWORD PTR notshown$[rsp]
  004e9	48 89 4c 24 38	 mov	 QWORD PTR [rsp+56], rcx
  004ee	48 8d 0d 00 00
	00 00		 lea	 rcx, OFFSET FLAT:$SG175326
  004f5	48 89 4c 24 30	 mov	 QWORD PTR [rsp+48], rcx
  004fa	48 8d 0d 00 00
	00 00		 lea	 rcx, OFFSET FLAT:$SG175327
  00501	48 89 4c 24 28	 mov	 QWORD PTR [rsp+40], rcx
  00506	48 89 44 24 20	 mov	 QWORD PTR [rsp+32], rax
  0050b	41 b9 03 00 00
	00		 mov	 r9d, 3
  00511	4c 8d 05 00 00
	00 00		 lea	 r8, OFFSET FLAT:$SG175328
  00518	ba cf 12 00 00	 mov	 edx, 4815		; 000012cfH
  0051d	48 8d 0d 00 00
	00 00		 lea	 rcx, OFFSET FLAT:$SG175329
  00524	ff 15 00 00 00
	00		 call	 QWORD PTR __imp_fwritemsg
$LN13@ecpsvm_sho:

; 4816 :     }
; 4817 :     if (unsupcc)

  0052a	48 83 7c 24 70
	00		 cmp	 QWORD PTR unsupcc$[rsp], 0
  00530	74 51		 je	 SHORT $LN14@ecpsvm_sho

; 4818 :     {
; 4819 :         // "%"PRIu64" call(s) were made to unsupported functions"
; 4820 :         WRMSG( HHC01705, "I", unsupcc );

  00532	b9 01 00 00 00	 mov	 ecx, 1
  00537	ff 15 00 00 00
	00		 call	 QWORD PTR __imp___acrt_iob_func
  0053d	48 8b 4c 24 70	 mov	 rcx, QWORD PTR unsupcc$[rsp]
  00542	48 89 4c 24 38	 mov	 QWORD PTR [rsp+56], rcx
  00547	48 8d 0d 00 00
	00 00		 lea	 rcx, OFFSET FLAT:$SG175331
  0054e	48 89 4c 24 30	 mov	 QWORD PTR [rsp+48], rcx
  00553	48 8d 0d 00 00
	00 00		 lea	 rcx, OFFSET FLAT:$SG175332
  0055a	48 89 4c 24 28	 mov	 QWORD PTR [rsp+40], rcx
  0055f	48 89 44 24 20	 mov	 QWORD PTR [rsp+32], rax
  00564	41 b9 03 00 00
	00		 mov	 r9d, 3
  0056a	4c 8d 05 00 00
	00 00		 lea	 r8, OFFSET FLAT:$SG175333
  00571	ba d4 12 00 00	 mov	 edx, 4820		; 000012d4H
  00576	48 8d 0d 00 00
	00 00		 lea	 rcx, OFFSET FLAT:$SG175334
  0057d	ff 15 00 00 00
	00		 call	 QWORD PTR __imp_fwritemsg
$LN14@ecpsvm_sho:

; 4821 :     }
; 4822 :     return;
; 4823 : }

  00583	48 8b 8c 24 d0
	00 00 00	 mov	 rcx, QWORD PTR __$ArrayPad$[rsp]
  0058b	48 33 cc	 xor	 rcx, rsp
  0058e	e8 00 00 00 00	 call	 __security_check_cookie
  00593	48 81 c4 e8 00
	00 00		 add	 rsp, 232		; 000000e8H
  0059a	c3		 ret	 0
ecpsvm_showstats2 ENDP
_TEXT	ENDS
; Function compile flags: /Odtp
; File C:\papa\MyGit\hyperion-zvector\ecpsvm.c
_TEXT	SEGMENT
eb$ = 0
ea$ = 8
a$ = 32
b$ = 40
ecpsvm_sortstats PROC

; 4753 : {

  00000	48 89 54 24 10	 mov	 QWORD PTR [rsp+16], rdx
  00005	48 89 4c 24 08	 mov	 QWORD PTR [rsp+8], rcx
  0000a	48 83 ec 18	 sub	 rsp, 24

; 4754 :     ECPSVM_STAT *ea, *eb;
; 4755 : 
; 4756 :     ea = (ECPSVM_STAT*) a;

  0000e	48 8b 44 24 20	 mov	 rax, QWORD PTR a$[rsp]
  00013	48 89 44 24 08	 mov	 QWORD PTR ea$[rsp], rax

; 4757 :     eb = (ECPSVM_STAT*) b;

  00018	48 8b 44 24 28	 mov	 rax, QWORD PTR b$[rsp]
  0001d	48 89 04 24	 mov	 QWORD PTR eb$[rsp], rax

; 4758 : 
; 4759 :     return (int) (eb->call - ea->call);

  00021	48 8b 04 24	 mov	 rax, QWORD PTR eb$[rsp]
  00025	48 8b 4c 24 08	 mov	 rcx, QWORD PTR ea$[rsp]
  0002a	48 8b 49 08	 mov	 rcx, QWORD PTR [rcx+8]
  0002e	48 8b 40 08	 mov	 rax, QWORD PTR [rax+8]
  00032	48 2b c1	 sub	 rax, rcx

; 4760 : }

  00035	48 83 c4 18	 add	 rsp, 24
  00039	c3		 ret	 0
ecpsvm_sortstats ENDP
_TEXT	ENDS
; Function compile flags: /Odtp
; File C:\papa\MyGit\hyperion-zvector\ecpsvm.c
_TEXT	SEGMENT
micpend$ = 0
amicblok$ = 4
CR6$ = 8
micevma$ = 12
micevma2$ = 13
micevma3$ = 14
micevma4$ = 15
vpswa$ = 16
psa$ = 24
vpswa_p$ = 32
tv343 = 40
tv354 = 48
tv372 = 56
tv417 = 64
tv439 = 72
tv530 = 80
micblok$ = 88
vpregs$ = 128
newr$ = 90368
buf$ = 180608
__$ArrayPad$ = 181120
regs$ = 181360
svccode$ = 181368
ecpsvm_doassistsvc PROC

; 3701 : {

$LN71:
  00000	89 54 24 10	 mov	 DWORD PTR [rsp+16], edx
  00004	48 89 4c 24 08	 mov	 QWORD PTR [rsp+8], rcx
  00009	55		 push	 rbp
  0000a	57		 push	 rdi
  0000b	b8 58 c4 02 00	 mov	 eax, 181336		; 0002c458H
  00010	e8 00 00 00 00	 call	 __chkstk
  00015	48 2b e0	 sub	 rsp, rax
  00018	48 8d ac 24 c0
	00 00 00	 lea	 rbp, QWORD PTR [rsp+192]
  00020	48 83 e5 80	 and	 rbp, -128		; ffffffffffffff80H
  00024	48 8b 05 00 00
	00 00		 mov	 rax, QWORD PTR __security_cookie
  0002b	48 33 c4	 xor	 rax, rsp
  0002e	48 89 85 80 c3
	02 00		 mov	 QWORD PTR __$ArrayPad$[rbp], rax

; 3702 :     PSA_3XX *psa;
; 3703 :     REGS newr;
; 3704 : 
; 3705 :     SASSIST_PROLOG(SVC);

  00035	48 8b 84 24 70
	c4 02 00	 mov	 rax, QWORD PTR regs$[rsp]
  0003d	48 83 b8 80 08
	00 00 00	 cmp	 QWORD PTR [rax+2176], 0
  00045	74 0a		 je	 SHORT $LN29@ecpsvm_doa
  00047	b8 01 00 00 00	 mov	 eax, 1
  0004c	e9 74 0d 00 00	 jmp	 $LN1@ecpsvm_doa
$LN29@ecpsvm_doa:
  00051	48 8b 84 24 70
	c4 02 00	 mov	 rax, QWORD PTR regs$[rsp]
  00059	0f b6 40 7a	 movzx	 eax, BYTE PTR [rax+122]
  0005d	83 e0 01	 and	 eax, 1
  00060	85 c0		 test	 eax, eax
  00062	75 0a		 jne	 SHORT $LN30@ecpsvm_doa
  00064	b8 01 00 00 00	 mov	 eax, 1
  00069	e9 57 0d 00 00	 jmp	 $LN1@ecpsvm_doa
$LN30@ecpsvm_doa:
  0006e	48 8b 05 00 00
	00 00		 mov	 rax, QWORD PTR __imp_sysblk
  00075	8b 80 44 13 00
	00		 mov	 eax, DWORD PTR [rax+4932]
  0007b	c1 e8 11	 shr	 eax, 17
  0007e	83 e0 01	 and	 eax, 1
  00081	85 c0		 test	 eax, eax
  00083	75 6d		 jne	 SHORT $LN31@ecpsvm_doa
  00085	8b 05 18 00 00
	00		 mov	 eax, DWORD PTR ecpsvm_sastats+24
  0008b	c1 e8 02	 shr	 eax, 2
  0008e	83 e0 01	 and	 eax, 1
  00091	85 c0		 test	 eax, eax
  00093	74 53		 je	 SHORT $LN32@ecpsvm_doa
  00095	b9 01 00 00 00	 mov	 ecx, 1
  0009a	ff 15 00 00 00
	00		 call	 QWORD PTR __imp___acrt_iob_func
  000a0	48 8d 0d 00 00
	00 00		 lea	 rcx, OFFSET FLAT:$SG173683
  000a7	48 89 4c 24 38	 mov	 QWORD PTR [rsp+56], rcx
  000ac	48 8d 0d 00 00
	00 00		 lea	 rcx, OFFSET FLAT:$SG173684
  000b3	48 89 4c 24 30	 mov	 QWORD PTR [rsp+48], rcx
  000b8	48 8d 0d 00 00
	00 00		 lea	 rcx, OFFSET FLAT:$SG173685
  000bf	48 89 4c 24 28	 mov	 QWORD PTR [rsp+40], rcx
  000c4	48 89 44 24 20	 mov	 QWORD PTR [rsp+32], rax
  000c9	41 b9 03 00 00
	00		 mov	 r9d, 3
  000cf	4c 8d 05 00 00
	00 00		 lea	 r8, OFFSET FLAT:$SG173686
  000d6	ba 79 0e 00 00	 mov	 edx, 3705		; 00000e79H
  000db	48 8d 0d 00 00
	00 00		 lea	 rcx, OFFSET FLAT:$SG173687
  000e2	ff 15 00 00 00
	00		 call	 QWORD PTR __imp_fwritemsg
$LN32@ecpsvm_doa:
  000e8	b8 01 00 00 00	 mov	 eax, 1
  000ed	e9 d3 0c 00 00	 jmp	 $LN1@ecpsvm_doa
$LN31@ecpsvm_doa:
  000f2	8b 05 18 00 00
	00		 mov	 eax, DWORD PTR ecpsvm_sastats+24
  000f8	d1 e8		 shr	 eax, 1
  000fa	83 e0 01	 and	 eax, 1
  000fd	85 c0		 test	 eax, eax
  000ff	75 6d		 jne	 SHORT $LN33@ecpsvm_doa
  00101	8b 05 18 00 00
	00		 mov	 eax, DWORD PTR ecpsvm_sastats+24
  00107	c1 e8 02	 shr	 eax, 2
  0010a	83 e0 01	 and	 eax, 1
  0010d	85 c0		 test	 eax, eax
  0010f	74 53		 je	 SHORT $LN34@ecpsvm_doa
  00111	b9 01 00 00 00	 mov	 ecx, 1
  00116	ff 15 00 00 00
	00		 call	 QWORD PTR __imp___acrt_iob_func
  0011c	48 8d 0d 00 00
	00 00		 lea	 rcx, OFFSET FLAT:$SG173690
  00123	48 89 4c 24 38	 mov	 QWORD PTR [rsp+56], rcx
  00128	48 8d 0d 00 00
	00 00		 lea	 rcx, OFFSET FLAT:$SG173691
  0012f	48 89 4c 24 30	 mov	 QWORD PTR [rsp+48], rcx
  00134	48 8d 0d 00 00
	00 00		 lea	 rcx, OFFSET FLAT:$SG173692
  0013b	48 89 4c 24 28	 mov	 QWORD PTR [rsp+40], rcx
  00140	48 89 44 24 20	 mov	 QWORD PTR [rsp+32], rax
  00145	41 b9 03 00 00
	00		 mov	 r9d, 3
  0014b	4c 8d 05 00 00
	00 00		 lea	 r8, OFFSET FLAT:$SG173693
  00152	ba 79 0e 00 00	 mov	 edx, 3705		; 00000e79H
  00157	48 8d 0d 00 00
	00 00		 lea	 rcx, OFFSET FLAT:$SG173694
  0015e	ff 15 00 00 00
	00		 call	 QWORD PTR __imp_fwritemsg
$LN34@ecpsvm_doa:
  00164	b8 01 00 00 00	 mov	 eax, 1
  00169	e9 57 0c 00 00	 jmp	 $LN1@ecpsvm_doa
$LN33@ecpsvm_doa:
  0016e	b8 08 00 00 00	 mov	 eax, 8
  00173	48 6b c0 07	 imul	 rax, rax, 7
  00177	48 8b 8c 24 70
	c4 02 00	 mov	 rcx, QWORD PTR regs$[rsp]
  0017f	8b 84 01 00 06
	00 00		 mov	 eax, DWORD PTR [rcx+rax+1536]
  00186	89 45 08	 mov	 DWORD PTR CR6$[rbp], eax
  00189	48 8b 84 24 70
	c4 02 00	 mov	 rax, QWORD PTR regs$[rsp]
  00191	48 c7 80 78 07
	00 00 00 00 00
	00		 mov	 QWORD PTR [rax+1912], 0
  0019c	8b 45 08	 mov	 eax, DWORD PTR CR6$[rbp]
  0019f	25 00 00 00 80	 and	 eax, -2147483648	; 80000000H
  001a4	85 c0		 test	 eax, eax
  001a6	75 6d		 jne	 SHORT $LN35@ecpsvm_doa
  001a8	8b 05 18 00 00
	00		 mov	 eax, DWORD PTR ecpsvm_sastats+24
  001ae	c1 e8 02	 shr	 eax, 2
  001b1	83 e0 01	 and	 eax, 1
  001b4	85 c0		 test	 eax, eax
  001b6	74 53		 je	 SHORT $LN36@ecpsvm_doa
  001b8	b9 01 00 00 00	 mov	 ecx, 1
  001bd	ff 15 00 00 00
	00		 call	 QWORD PTR __imp___acrt_iob_func
  001c3	48 8d 0d 00 00
	00 00		 lea	 rcx, OFFSET FLAT:$SG173697
  001ca	48 89 4c 24 38	 mov	 QWORD PTR [rsp+56], rcx
  001cf	48 8d 0d 00 00
	00 00		 lea	 rcx, OFFSET FLAT:$SG173698
  001d6	48 89 4c 24 30	 mov	 QWORD PTR [rsp+48], rcx
  001db	48 8d 0d 00 00
	00 00		 lea	 rcx, OFFSET FLAT:$SG173699
  001e2	48 89 4c 24 28	 mov	 QWORD PTR [rsp+40], rcx
  001e7	48 89 44 24 20	 mov	 QWORD PTR [rsp+32], rax
  001ec	41 b9 03 00 00
	00		 mov	 r9d, 3
  001f2	4c 8d 05 00 00
	00 00		 lea	 r8, OFFSET FLAT:$SG173700
  001f9	ba 79 0e 00 00	 mov	 edx, 3705		; 00000e79H
  001fe	48 8d 0d 00 00
	00 00		 lea	 rcx, OFFSET FLAT:$SG173701
  00205	ff 15 00 00 00
	00		 call	 QWORD PTR __imp_fwritemsg
$LN36@ecpsvm_doa:
  0020b	b8 01 00 00 00	 mov	 eax, 1
  00210	e9 b0 0b 00 00	 jmp	 $LN1@ecpsvm_doa
$LN35@ecpsvm_doa:
  00215	8b 45 08	 mov	 eax, DWORD PTR CR6$[rbp]
  00218	25 00 00 00 40	 and	 eax, 1073741824		; 40000000H
  0021d	85 c0		 test	 eax, eax
  0021f	74 6d		 je	 SHORT $LN37@ecpsvm_doa
  00221	8b 05 18 00 00
	00		 mov	 eax, DWORD PTR ecpsvm_sastats+24
  00227	c1 e8 02	 shr	 eax, 2
  0022a	83 e0 01	 and	 eax, 1
  0022d	85 c0		 test	 eax, eax
  0022f	74 53		 je	 SHORT $LN38@ecpsvm_doa
  00231	b9 01 00 00 00	 mov	 ecx, 1
  00236	ff 15 00 00 00
	00		 call	 QWORD PTR __imp___acrt_iob_func
  0023c	48 8d 0d 00 00
	00 00		 lea	 rcx, OFFSET FLAT:$SG173704
  00243	48 89 4c 24 38	 mov	 QWORD PTR [rsp+56], rcx
  00248	48 8d 0d 00 00
	00 00		 lea	 rcx, OFFSET FLAT:$SG173705
  0024f	48 89 4c 24 30	 mov	 QWORD PTR [rsp+48], rcx
  00254	48 8d 0d 00 00
	00 00		 lea	 rcx, OFFSET FLAT:$SG173706
  0025b	48 89 4c 24 28	 mov	 QWORD PTR [rsp+40], rcx
  00260	48 89 44 24 20	 mov	 QWORD PTR [rsp+32], rax
  00265	41 b9 03 00 00
	00		 mov	 r9d, 3
  0026b	4c 8d 05 00 00
	00 00		 lea	 r8, OFFSET FLAT:$SG173707
  00272	ba 79 0e 00 00	 mov	 edx, 3705		; 00000e79H
  00277	48 8d 0d 00 00
	00 00		 lea	 rcx, OFFSET FLAT:$SG173708
  0027e	ff 15 00 00 00
	00		 call	 QWORD PTR __imp_fwritemsg
$LN38@ecpsvm_doa:
  00284	b8 01 00 00 00	 mov	 eax, 1
  00289	e9 37 0b 00 00	 jmp	 $LN1@ecpsvm_doa
$LN37@ecpsvm_doa:
  0028e	48 8b 05 08 00
	00 00		 mov	 rax, QWORD PTR ecpsvm_sastats+8
  00295	48 ff c0	 inc	 rax
  00298	48 89 05 08 00
	00 00		 mov	 QWORD PTR ecpsvm_sastats+8, rax
  0029f	8b 45 08	 mov	 eax, DWORD PTR CR6$[rbp]
  002a2	25 f8 ff ff 00	 and	 eax, 16777208		; 00fffff8H
  002a7	89 45 04	 mov	 DWORD PTR amicblok$[rbp], eax
  002aa	8b 45 04	 mov	 eax, DWORD PTR amicblok$[rbp]
  002ad	25 ff ff ff 00	 and	 eax, 16777215		; 00ffffffH
  002b2	4c 8b 84 24 70
	c4 02 00	 mov	 r8, QWORD PTR regs$[rsp]
  002ba	ba fe ff ff ff	 mov	 edx, -2
  002bf	8b c8		 mov	 ecx, eax
  002c1	e8 00 00 00 00	 call	 s370_vfetch4
  002c6	89 45 58	 mov	 DWORD PTR micblok$[rbp], eax
  002c9	8b 45 04	 mov	 eax, DWORD PTR amicblok$[rbp]
  002cc	83 c0 04	 add	 eax, 4
  002cf	25 ff ff ff 00	 and	 eax, 16777215		; 00ffffffH
  002d4	4c 8b 84 24 70
	c4 02 00	 mov	 r8, QWORD PTR regs$[rsp]
  002dc	ba fe ff ff ff	 mov	 edx, -2
  002e1	8b c8		 mov	 ecx, eax
  002e3	e8 00 00 00 00	 call	 s370_vfetch4
  002e8	89 45 5c	 mov	 DWORD PTR micblok$[rbp+4], eax
  002eb	8b 45 04	 mov	 eax, DWORD PTR amicblok$[rbp]
  002ee	83 c0 08	 add	 eax, 8
  002f1	25 ff ff ff 00	 and	 eax, 16777215		; 00ffffffH
  002f6	4c 8b 84 24 70
	c4 02 00	 mov	 r8, QWORD PTR regs$[rsp]
  002fe	ba fe ff ff ff	 mov	 edx, -2
  00303	8b c8		 mov	 ecx, eax
  00305	e8 00 00 00 00	 call	 s370_vfetch4
  0030a	89 45 60	 mov	 DWORD PTR micblok$[rbp+8], eax
  0030d	8b 45 04	 mov	 eax, DWORD PTR amicblok$[rbp]
  00310	83 c0 0c	 add	 eax, 12
  00313	25 ff ff ff 00	 and	 eax, 16777215		; 00ffffffH
  00318	4c 8b 84 24 70
	c4 02 00	 mov	 r8, QWORD PTR regs$[rsp]
  00320	ba fe ff ff ff	 mov	 edx, -2
  00325	8b c8		 mov	 ecx, eax
  00327	e8 00 00 00 00	 call	 s370_vfetch4
  0032c	89 45 64	 mov	 DWORD PTR micblok$[rbp+12], eax
  0032f	8b 45 04	 mov	 eax, DWORD PTR amicblok$[rbp]
  00332	83 c0 10	 add	 eax, 16
  00335	25 ff ff ff 00	 and	 eax, 16777215		; 00ffffffH
  0033a	4c 8b 84 24 70
	c4 02 00	 mov	 r8, QWORD PTR regs$[rsp]
  00342	ba fe ff ff ff	 mov	 edx, -2
  00347	8b c8		 mov	 ecx, eax
  00349	e8 00 00 00 00	 call	 s370_vfetch4
  0034e	89 45 68	 mov	 DWORD PTR micblok$[rbp+16], eax
  00351	8b 45 04	 mov	 eax, DWORD PTR amicblok$[rbp]
  00354	83 c0 14	 add	 eax, 20
  00357	25 ff ff ff 00	 and	 eax, 16777215		; 00ffffffH
  0035c	4c 8b 84 24 70
	c4 02 00	 mov	 r8, QWORD PTR regs$[rsp]
  00364	ba fe ff ff ff	 mov	 edx, -2
  00369	8b c8		 mov	 ecx, eax
  0036b	e8 00 00 00 00	 call	 s370_vfetch4
  00370	89 45 6c	 mov	 DWORD PTR micblok$[rbp+20], eax
  00373	8b 45 60	 mov	 eax, DWORD PTR micblok$[rbp+8]
  00376	c1 e8 18	 shr	 eax, 24
  00379	88 45 00	 mov	 BYTE PTR micpend$[rbp], al
  0037c	8b 45 60	 mov	 eax, DWORD PTR micblok$[rbp+8]
  0037f	25 ff ff ff 00	 and	 eax, 16777215		; 00ffffffH
  00384	89 45 10	 mov	 DWORD PTR vpswa$[rbp], eax
  00387	8b 45 6c	 mov	 eax, DWORD PTR micblok$[rbp+20]
  0038a	c1 e8 18	 shr	 eax, 24
  0038d	88 45 0c	 mov	 BYTE PTR micevma$[rbp], al
  00390	8b 45 6c	 mov	 eax, DWORD PTR micblok$[rbp+20]
  00393	25 00 00 ff 00	 and	 eax, 16711680		; 00ff0000H
  00398	c1 e8 10	 shr	 eax, 16
  0039b	88 45 0d	 mov	 BYTE PTR micevma2$[rbp], al
  0039e	8b 45 6c	 mov	 eax, DWORD PTR micblok$[rbp+20]
  003a1	25 00 ff 00 00	 and	 eax, 65280		; 0000ff00H
  003a6	c1 e8 08	 shr	 eax, 8
  003a9	88 45 0e	 mov	 BYTE PTR micevma3$[rbp], al
  003ac	8b 45 6c	 mov	 eax, DWORD PTR micblok$[rbp+20]
  003af	25 ff 00 00 00	 and	 eax, 255		; 000000ffH
  003b4	88 45 0f	 mov	 BYTE PTR micevma4$[rbp], al
  003b7	8b 45 08	 mov	 eax, DWORD PTR CR6$[rbp]
  003ba	25 00 00 00 01	 and	 eax, 16777216		; 01000000H
  003bf	85 c0		 test	 eax, eax
  003c1	74 37		 je	 SHORT $LN39@ecpsvm_doa
  003c3	c6 44 24 28 00	 mov	 BYTE PTR [rsp+40], 0
  003c8	c7 44 24 20 04
	00 00 00	 mov	 DWORD PTR [rsp+32], 4
  003d0	4c 8b 8c 24 70
	c4 02 00	 mov	 r9, QWORD PTR regs$[rsp]
  003d8	41 b8 fe ff ff
	ff		 mov	 r8d, -2
  003de	ba 01 00 00 00	 mov	 edx, 1
  003e3	8b 4d 68	 mov	 ecx, DWORD PTR micblok$[rbp+16]
  003e6	e8 00 00 00 00	 call	 s370_maddr_l
  003eb	48 8b 8c 24 70
	c4 02 00	 mov	 rcx, QWORD PTR regs$[rsp]
  003f3	48 89 81 78 07
	00 00		 mov	 QWORD PTR [rcx+1912], rax
$LN39@ecpsvm_doa:
  003fa	c6 44 24 28 00	 mov	 BYTE PTR [rsp+40], 0
  003ff	c7 44 24 20 04
	00 00 00	 mov	 DWORD PTR [rsp+32], 4
  00407	4c 8b 8c 24 70
	c4 02 00	 mov	 r9, QWORD PTR regs$[rsp]
  0040f	41 b8 fe ff ff
	ff		 mov	 r8d, -2
  00415	ba 01 00 00 00	 mov	 edx, 1
  0041a	8b 4d 10	 mov	 ecx, DWORD PTR vpswa$[rbp]
  0041d	e8 00 00 00 00	 call	 s370_maddr_l
  00422	48 89 45 20	 mov	 QWORD PTR vpswa_p$[rbp], rax
  00426	8b 05 18 00 00
	00		 mov	 eax, DWORD PTR ecpsvm_sastats+24
  0042c	c1 e8 02	 shr	 eax, 2
  0042f	83 e0 01	 and	 eax, 1
  00432	85 c0		 test	 eax, eax
  00434	74 1d		 je	 SHORT $LN40@ecpsvm_doa
  00436	44 8b 4d 10	 mov	 r9d, DWORD PTR vpswa$[rbp]
  0043a	4c 8d 05 00 00
	00 00		 lea	 r8, OFFSET FLAT:$SG173711
  00441	ba 00 02 00 00	 mov	 edx, 512		; 00000200H
  00446	48 8d 8d 80 c1
	02 00		 lea	 rcx, QWORD PTR buf$[rbp]
  0044d	ff 15 00 00 00
	00		 call	 QWORD PTR __imp_w32_snprintf
$LN40@ecpsvm_doa:
  00453	8b 05 18 00 00
	00		 mov	 eax, DWORD PTR ecpsvm_sastats+24
  00459	c1 e8 02	 shr	 eax, 2
  0045c	83 e0 01	 and	 eax, 1
  0045f	85 c0		 test	 eax, eax
  00461	74 53		 je	 SHORT $LN41@ecpsvm_doa
  00463	b9 01 00 00 00	 mov	 ecx, 1
  00468	ff 15 00 00 00
	00		 call	 QWORD PTR __imp___acrt_iob_func
  0046e	48 8d 8d 80 c1
	02 00		 lea	 rcx, QWORD PTR buf$[rbp]
  00475	48 89 4c 24 38	 mov	 QWORD PTR [rsp+56], rcx
  0047a	48 8d 0d 00 00
	00 00		 lea	 rcx, OFFSET FLAT:$SG173713
  00481	48 89 4c 24 30	 mov	 QWORD PTR [rsp+48], rcx
  00486	48 8d 0d 00 00
	00 00		 lea	 rcx, OFFSET FLAT:$SG173714
  0048d	48 89 4c 24 28	 mov	 QWORD PTR [rsp+40], rcx
  00492	48 89 44 24 20	 mov	 QWORD PTR [rsp+32], rax
  00497	41 b9 03 00 00
	00		 mov	 r9d, 3
  0049d	4c 8d 05 00 00
	00 00		 lea	 r8, OFFSET FLAT:$SG173715
  004a4	ba 79 0e 00 00	 mov	 edx, 3705		; 00000e79H
  004a9	48 8d 0d 00 00
	00 00		 lea	 rcx, OFFSET FLAT:$SG173716
  004b0	ff 15 00 00 00
	00		 call	 QWORD PTR __imp_fwritemsg
$LN41@ecpsvm_doa:
  004b6	8b 05 18 00 00
	00		 mov	 eax, DWORD PTR ecpsvm_sastats+24
  004bc	c1 e8 02	 shr	 eax, 2
  004bf	83 e0 01	 and	 eax, 1
  004c2	85 c0		 test	 eax, eax
  004c4	74 1d		 je	 SHORT $LN42@ecpsvm_doa
  004c6	44 8b 4d 08	 mov	 r9d, DWORD PTR CR6$[rbp]
  004ca	4c 8d 05 00 00
	00 00		 lea	 r8, OFFSET FLAT:$SG173718
  004d1	ba 00 02 00 00	 mov	 edx, 512		; 00000200H
  004d6	48 8d 8d 80 c1
	02 00		 lea	 rcx, QWORD PTR buf$[rbp]
  004dd	ff 15 00 00 00
	00		 call	 QWORD PTR __imp_w32_snprintf
$LN42@ecpsvm_doa:
  004e3	8b 05 18 00 00
	00		 mov	 eax, DWORD PTR ecpsvm_sastats+24
  004e9	c1 e8 02	 shr	 eax, 2
  004ec	83 e0 01	 and	 eax, 1
  004ef	85 c0		 test	 eax, eax
  004f1	74 53		 je	 SHORT $LN43@ecpsvm_doa
  004f3	b9 01 00 00 00	 mov	 ecx, 1
  004f8	ff 15 00 00 00
	00		 call	 QWORD PTR __imp___acrt_iob_func
  004fe	48 8d 8d 80 c1
	02 00		 lea	 rcx, QWORD PTR buf$[rbp]
  00505	48 89 4c 24 38	 mov	 QWORD PTR [rsp+56], rcx
  0050a	48 8d 0d 00 00
	00 00		 lea	 rcx, OFFSET FLAT:$SG173720
  00511	48 89 4c 24 30	 mov	 QWORD PTR [rsp+48], rcx
  00516	48 8d 0d 00 00
	00 00		 lea	 rcx, OFFSET FLAT:$SG173721
  0051d	48 89 4c 24 28	 mov	 QWORD PTR [rsp+40], rcx
  00522	48 89 44 24 20	 mov	 QWORD PTR [rsp+32], rax
  00527	41 b9 03 00 00
	00		 mov	 r9d, 3
  0052d	4c 8d 05 00 00
	00 00		 lea	 r8, OFFSET FLAT:$SG173722
  00534	ba 79 0e 00 00	 mov	 edx, 3705		; 00000e79H
  00539	48 8d 0d 00 00
	00 00		 lea	 rcx, OFFSET FLAT:$SG173723
  00540	ff 15 00 00 00
	00		 call	 QWORD PTR __imp_fwritemsg
$LN43@ecpsvm_doa:
  00546	8b 05 18 00 00
	00		 mov	 eax, DWORD PTR ecpsvm_sastats+24
  0054c	c1 e8 02	 shr	 eax, 2
  0054f	83 e0 01	 and	 eax, 1
  00552	85 c0		 test	 eax, eax
  00554	74 1d		 je	 SHORT $LN44@ecpsvm_doa
  00556	44 8b 4d 68	 mov	 r9d, DWORD PTR micblok$[rbp+16]
  0055a	4c 8d 05 00 00
	00 00		 lea	 r8, OFFSET FLAT:$SG173725
  00561	ba 00 02 00 00	 mov	 edx, 512		; 00000200H
  00566	48 8d 8d 80 c1
	02 00		 lea	 rcx, QWORD PTR buf$[rbp]
  0056d	ff 15 00 00 00
	00		 call	 QWORD PTR __imp_w32_snprintf
$LN44@ecpsvm_doa:
  00573	8b 05 18 00 00
	00		 mov	 eax, DWORD PTR ecpsvm_sastats+24
  00579	c1 e8 02	 shr	 eax, 2
  0057c	83 e0 01	 and	 eax, 1
  0057f	85 c0		 test	 eax, eax
  00581	74 53		 je	 SHORT $LN45@ecpsvm_doa
  00583	b9 01 00 00 00	 mov	 ecx, 1
  00588	ff 15 00 00 00
	00		 call	 QWORD PTR __imp___acrt_iob_func
  0058e	48 8d 8d 80 c1
	02 00		 lea	 rcx, QWORD PTR buf$[rbp]
  00595	48 89 4c 24 38	 mov	 QWORD PTR [rsp+56], rcx
  0059a	48 8d 0d 00 00
	00 00		 lea	 rcx, OFFSET FLAT:$SG173727
  005a1	48 89 4c 24 30	 mov	 QWORD PTR [rsp+48], rcx
  005a6	48 8d 0d 00 00
	00 00		 lea	 rcx, OFFSET FLAT:$SG173728
  005ad	48 89 4c 24 28	 mov	 QWORD PTR [rsp+40], rcx
  005b2	48 89 44 24 20	 mov	 QWORD PTR [rsp+32], rax
  005b7	41 b9 03 00 00
	00		 mov	 r9d, 3
  005bd	4c 8d 05 00 00
	00 00		 lea	 r8, OFFSET FLAT:$SG173729
  005c4	ba 79 0e 00 00	 mov	 edx, 3705		; 00000e79H
  005c9	48 8d 0d 00 00
	00 00		 lea	 rcx, OFFSET FLAT:$SG173730
  005d0	ff 15 00 00 00
	00		 call	 QWORD PTR __imp_fwritemsg
$LN45@ecpsvm_doa:
  005d6	8b 05 18 00 00
	00		 mov	 eax, DWORD PTR ecpsvm_sastats+24
  005dc	c1 e8 02	 shr	 eax, 2
  005df	83 e0 01	 and	 eax, 1
  005e2	85 c0		 test	 eax, eax
  005e4	74 19		 je	 SHORT $LN46@ecpsvm_doa
  005e6	4c 8d 05 00 00
	00 00		 lea	 r8, OFFSET FLAT:$SG173732
  005ed	ba 00 02 00 00	 mov	 edx, 512		; 00000200H
  005f2	48 8d 8d 80 c1
	02 00		 lea	 rcx, QWORD PTR buf$[rbp]
  005f9	ff 15 00 00 00
	00		 call	 QWORD PTR __imp_w32_snprintf
$LN46@ecpsvm_doa:
  005ff	8b 05 18 00 00
	00		 mov	 eax, DWORD PTR ecpsvm_sastats+24
  00605	c1 e8 02	 shr	 eax, 2
  00608	83 e0 01	 and	 eax, 1
  0060b	85 c0		 test	 eax, eax
  0060d	74 48		 je	 SHORT $LN47@ecpsvm_doa
  0060f	48 8d 8d 80 c1
	02 00		 lea	 rcx, QWORD PTR buf$[rbp]
  00616	e8 00 00 00 00	 call	 strlen
  0061b	48 98		 cdqe
  0061d	b9 00 02 00 00	 mov	 ecx, 512		; 00000200H
  00622	48 2b c8	 sub	 rcx, rax
  00625	48 8b c1	 mov	 rax, rcx
  00628	48 89 45 28	 mov	 QWORD PTR tv343[rbp], rax
  0062c	48 8d 8d 80 c1
	02 00		 lea	 rcx, QWORD PTR buf$[rbp]
  00633	e8 00 00 00 00	 call	 strlen
  00638	48 8d 84 05 80
	c1 02 00	 lea	 rax, QWORD PTR buf$[rbp+rax]
  00640	48 8b 4d 28	 mov	 rcx, QWORD PTR tv343[rbp]
  00644	44 8b c1	 mov	 r8d, ecx
  00647	48 8b d0	 mov	 rdx, rax
  0064a	48 8b 8c 24 70
	c4 02 00	 mov	 rcx, QWORD PTR regs$[rsp]
  00652	e8 00 00 00 00	 call	 display_psw
$LN47@ecpsvm_doa:
$LN4@ecpsvm_doa:
  00657	48 8b 05 00 00
	00 00		 mov	 rax, QWORD PTR __imp_sysblk
  0065e	48 63 80 90 14
	00 00		 movsxd	 rax, DWORD PTR [rax+5264]
  00665	48 89 45 30	 mov	 QWORD PTR tv354[rbp], rax
  00669	48 8d 8d 80 00
	00 00		 lea	 rcx, QWORD PTR vpregs$[rbp]
  00670	48 8b f9	 mov	 rdi, rcx
  00673	33 c0		 xor	 eax, eax
  00675	48 8b 4d 30	 mov	 rcx, QWORD PTR tv354[rbp]
  00679	f3 aa		 rep stosb
$LN7@ecpsvm_doa:
  0067b	48 8d 05 00 00
	00 00		 lea	 rax, OFFSET FLAT:$SG173734
  00682	48 89 85 e8 00
	00 00		 mov	 QWORD PTR vpregs$[rbp+104], rax
  00689	33 c0		 xor	 eax, eax
  0068b	85 c0		 test	 eax, eax
  0068d	75 ec		 jne	 SHORT $LN7@ecpsvm_doa
  0068f	33 c0		 xor	 eax, eax
  00691	85 c0		 test	 eax, eax
  00693	75 c2		 jne	 SHORT $LN4@ecpsvm_doa
  00695	48 8b 55 20	 mov	 rdx, QWORD PTR vpswa_p$[rbp]
  00699	48 8d 8d 80 00
	00 00		 lea	 rcx, QWORD PTR vpregs$[rbp]
  006a0	e8 00 00 00 00	 call	 s370_load_psw
  006a5	41 b8 00 02 00
	00		 mov	 r8d, 512		; 00000200H
  006ab	48 8d 15 00 00
	00 00		 lea	 rdx, OFFSET FLAT:$SG173735
  006b2	48 8d 8d 80 c1
	02 00		 lea	 rcx, QWORD PTR buf$[rbp]
  006b9	ff 15 00 00 00
	00		 call	 QWORD PTR __imp_strlcat
  006bf	8b 05 18 00 00
	00		 mov	 eax, DWORD PTR ecpsvm_sastats+24
  006c5	c1 e8 02	 shr	 eax, 2
  006c8	83 e0 01	 and	 eax, 1
  006cb	85 c0		 test	 eax, eax
  006cd	74 47		 je	 SHORT $LN48@ecpsvm_doa
  006cf	48 8d 8d 80 c1
	02 00		 lea	 rcx, QWORD PTR buf$[rbp]
  006d6	e8 00 00 00 00	 call	 strlen
  006db	48 98		 cdqe
  006dd	b9 00 02 00 00	 mov	 ecx, 512		; 00000200H
  006e2	48 2b c8	 sub	 rcx, rax
  006e5	48 8b c1	 mov	 rax, rcx
  006e8	48 89 45 38	 mov	 QWORD PTR tv372[rbp], rax
  006ec	48 8d 8d 80 c1
	02 00		 lea	 rcx, QWORD PTR buf$[rbp]
  006f3	e8 00 00 00 00	 call	 strlen
  006f8	48 8d 84 05 80
	c1 02 00	 lea	 rax, QWORD PTR buf$[rbp+rax]
  00700	48 8b 4d 38	 mov	 rcx, QWORD PTR tv372[rbp]
  00704	44 8b c1	 mov	 r8d, ecx
  00707	48 8b d0	 mov	 rdx, rax
  0070a	48 8d 8d 80 00
	00 00		 lea	 rcx, QWORD PTR vpregs$[rbp]
  00711	e8 00 00 00 00	 call	 display_psw
$LN48@ecpsvm_doa:
  00716	8b 05 18 00 00
	00		 mov	 eax, DWORD PTR ecpsvm_sastats+24
  0071c	c1 e8 02	 shr	 eax, 2
  0071f	83 e0 01	 and	 eax, 1
  00722	85 c0		 test	 eax, eax
  00724	74 53		 je	 SHORT $LN49@ecpsvm_doa
  00726	b9 01 00 00 00	 mov	 ecx, 1
  0072b	ff 15 00 00 00
	00		 call	 QWORD PTR __imp___acrt_iob_func
  00731	48 8d 8d 80 c1
	02 00		 lea	 rcx, QWORD PTR buf$[rbp]
  00738	48 89 4c 24 38	 mov	 QWORD PTR [rsp+56], rcx
  0073d	48 8d 0d 00 00
	00 00		 lea	 rcx, OFFSET FLAT:$SG173738
  00744	48 89 4c 24 30	 mov	 QWORD PTR [rsp+48], rcx
  00749	48 8d 0d 00 00
	00 00		 lea	 rcx, OFFSET FLAT:$SG173739
  00750	48 89 4c 24 28	 mov	 QWORD PTR [rsp+40], rcx
  00755	48 89 44 24 20	 mov	 QWORD PTR [rsp+32], rax
  0075a	41 b9 03 00 00
	00		 mov	 r9d, 3
  00760	4c 8d 05 00 00
	00 00		 lea	 r8, OFFSET FLAT:$SG173740
  00767	ba 79 0e 00 00	 mov	 edx, 3705		; 00000e79H
  0076c	48 8d 0d 00 00
	00 00		 lea	 rcx, OFFSET FLAT:$SG173741
  00773	ff 15 00 00 00
	00		 call	 QWORD PTR __imp_fwritemsg
$LN49@ecpsvm_doa:

; 3706 : 
; 3707 :     if(svccode==76)     /* NEVER trap SVC 76 */

  00779	83 bc 24 78 c4
	02 00 4c	 cmp	 DWORD PTR svccode$[rsp], 76 ; 0000004cH
  00781	75 6d		 jne	 SHORT $LN50@ecpsvm_doa

; 3708 :     {
; 3709 :         DEBUG_SASSISTX(SVC,WRMSG(HHC90000, "D", "SASSIST SVC Reject : SVC 76"));

  00783	8b 05 18 00 00
	00		 mov	 eax, DWORD PTR ecpsvm_sastats+24
  00789	c1 e8 02	 shr	 eax, 2
  0078c	83 e0 01	 and	 eax, 1
  0078f	85 c0		 test	 eax, eax
  00791	74 53		 je	 SHORT $LN51@ecpsvm_doa
  00793	b9 01 00 00 00	 mov	 ecx, 1
  00798	ff 15 00 00 00
	00		 call	 QWORD PTR __imp___acrt_iob_func
  0079e	48 8d 0d 00 00
	00 00		 lea	 rcx, OFFSET FLAT:$SG173744
  007a5	48 89 4c 24 38	 mov	 QWORD PTR [rsp+56], rcx
  007aa	48 8d 0d 00 00
	00 00		 lea	 rcx, OFFSET FLAT:$SG173745
  007b1	48 89 4c 24 30	 mov	 QWORD PTR [rsp+48], rcx
  007b6	48 8d 0d 00 00
	00 00		 lea	 rcx, OFFSET FLAT:$SG173746
  007bd	48 89 4c 24 28	 mov	 QWORD PTR [rsp+40], rcx
  007c2	48 89 44 24 20	 mov	 QWORD PTR [rsp+32], rax
  007c7	41 b9 03 00 00
	00		 mov	 r9d, 3
  007cd	4c 8d 05 00 00
	00 00		 lea	 r8, OFFSET FLAT:$SG173747
  007d4	ba 7d 0e 00 00	 mov	 edx, 3709		; 00000e7dH
  007d9	48 8d 0d 00 00
	00 00		 lea	 rcx, OFFSET FLAT:$SG173748
  007e0	ff 15 00 00 00
	00		 call	 QWORD PTR __imp_fwritemsg
$LN51@ecpsvm_doa:

; 3710 :         return(1);

  007e6	b8 01 00 00 00	 mov	 eax, 1
  007eb	e9 d5 05 00 00	 jmp	 $LN1@ecpsvm_doa
$LN50@ecpsvm_doa:

; 3711 :     }
; 3712 :     /* Get what the NEW PSW should be */
; 3713 : 
; 3714 :     psa=(PSA_3XX *)MADDR((VADR)0 , USE_PRIMARY_SPACE, regs, ACCTYPE_READ, 0);

  007f0	c6 44 24 28 00	 mov	 BYTE PTR [rsp+40], 0
  007f5	c7 44 24 20 04
	00 00 00	 mov	 DWORD PTR [rsp+32], 4
  007fd	4c 8b 8c 24 70
	c4 02 00	 mov	 r9, QWORD PTR regs$[rsp]
  00805	41 b8 fd ff ff
	ff		 mov	 r8d, -3
  0080b	ba 01 00 00 00	 mov	 edx, 1
  00810	33 c9		 xor	 ecx, ecx
  00812	e8 00 00 00 00	 call	 s370_maddr_l
  00817	48 89 45 18	 mov	 QWORD PTR psa$[rbp], rax
$LN10@ecpsvm_doa:

; 3715 :                                                                                        /* Use all around access key 0 */
; 3716 :                                                                                           /* Also sets reference bit     */
; 3717 :     INITPSEUDOREGS(newr);

  0081b	48 8b 05 00 00
	00 00		 mov	 rax, QWORD PTR __imp_sysblk
  00822	48 63 80 90 14
	00 00		 movsxd	 rax, DWORD PTR [rax+5264]
  00829	48 89 45 40	 mov	 QWORD PTR tv417[rbp], rax
  0082d	48 8d 8d 00 61
	01 00		 lea	 rcx, QWORD PTR newr$[rbp]
  00834	48 8b f9	 mov	 rdi, rcx
  00837	33 c0		 xor	 eax, eax
  00839	48 8b 4d 40	 mov	 rcx, QWORD PTR tv417[rbp]
  0083d	f3 aa		 rep stosb
$LN13@ecpsvm_doa:
  0083f	48 8d 05 00 00
	00 00		 lea	 rax, OFFSET FLAT:$SG173749
  00846	48 89 85 68 61
	01 00		 mov	 QWORD PTR newr$[rbp+104], rax
  0084d	33 c0		 xor	 eax, eax
  0084f	85 c0		 test	 eax, eax
  00851	75 ec		 jne	 SHORT $LN13@ecpsvm_doa
  00853	33 c0		 xor	 eax, eax
  00855	85 c0		 test	 eax, eax
  00857	75 c2		 jne	 SHORT $LN10@ecpsvm_doa

; 3718 :     ARCH_DEP(load_psw) (&newr, (BYTE *)&psa->svcnew);   /* Ref bit set above */

  00859	48 8b 45 18	 mov	 rax, QWORD PTR psa$[rbp]
  0085d	48 83 c0 60	 add	 rax, 96			; 00000060H
  00861	48 8b d0	 mov	 rdx, rax
  00864	48 8d 8d 00 61
	01 00		 lea	 rcx, QWORD PTR newr$[rbp]
  0086b	e8 00 00 00 00	 call	 s370_load_psw

; 3719 :     DEBUG_SASSISTX(SVC,MSGBUF(buf, "SASSIST SVC NEW VIRT "));

  00870	8b 05 18 00 00
	00		 mov	 eax, DWORD PTR ecpsvm_sastats+24
  00876	c1 e8 02	 shr	 eax, 2
  00879	83 e0 01	 and	 eax, 1
  0087c	85 c0		 test	 eax, eax
  0087e	74 19		 je	 SHORT $LN52@ecpsvm_doa
  00880	4c 8d 05 00 00
	00 00		 lea	 r8, OFFSET FLAT:$SG173751
  00887	ba 00 02 00 00	 mov	 edx, 512		; 00000200H
  0088c	48 8d 8d 80 c1
	02 00		 lea	 rcx, QWORD PTR buf$[rbp]
  00893	ff 15 00 00 00
	00		 call	 QWORD PTR __imp_w32_snprintf
$LN52@ecpsvm_doa:

; 3720 :     DEBUG_SASSISTX(SVC,display_psw(&newr, &buf[strlen(buf)], sizeof(buf)-(int)strlen(buf)));

  00899	8b 05 18 00 00
	00		 mov	 eax, DWORD PTR ecpsvm_sastats+24
  0089f	c1 e8 02	 shr	 eax, 2
  008a2	83 e0 01	 and	 eax, 1
  008a5	85 c0		 test	 eax, eax
  008a7	74 47		 je	 SHORT $LN53@ecpsvm_doa
  008a9	48 8d 8d 80 c1
	02 00		 lea	 rcx, QWORD PTR buf$[rbp]
  008b0	e8 00 00 00 00	 call	 strlen
  008b5	48 98		 cdqe
  008b7	b9 00 02 00 00	 mov	 ecx, 512		; 00000200H
  008bc	48 2b c8	 sub	 rcx, rax
  008bf	48 8b c1	 mov	 rax, rcx
  008c2	48 89 45 48	 mov	 QWORD PTR tv439[rbp], rax
  008c6	48 8d 8d 80 c1
	02 00		 lea	 rcx, QWORD PTR buf$[rbp]
  008cd	e8 00 00 00 00	 call	 strlen
  008d2	48 8d 84 05 80
	c1 02 00	 lea	 rax, QWORD PTR buf$[rbp+rax]
  008da	48 8b 4d 48	 mov	 rcx, QWORD PTR tv439[rbp]
  008de	44 8b c1	 mov	 r8d, ecx
  008e1	48 8b d0	 mov	 rdx, rax
  008e4	48 8d 8d 00 61
	01 00		 lea	 rcx, QWORD PTR newr$[rbp]
  008eb	e8 00 00 00 00	 call	 display_psw
$LN53@ecpsvm_doa:

; 3721 :     DEBUG_SASSISTX(SVC,WRMSG(HHC90000, "D", buf));

  008f0	8b 05 18 00 00
	00		 mov	 eax, DWORD PTR ecpsvm_sastats+24
  008f6	c1 e8 02	 shr	 eax, 2
  008f9	83 e0 01	 and	 eax, 1
  008fc	85 c0		 test	 eax, eax
  008fe	74 53		 je	 SHORT $LN54@ecpsvm_doa
  00900	b9 01 00 00 00	 mov	 ecx, 1
  00905	ff 15 00 00 00
	00		 call	 QWORD PTR __imp___acrt_iob_func
  0090b	48 8d 8d 80 c1
	02 00		 lea	 rcx, QWORD PTR buf$[rbp]
  00912	48 89 4c 24 38	 mov	 QWORD PTR [rsp+56], rcx
  00917	48 8d 0d 00 00
	00 00		 lea	 rcx, OFFSET FLAT:$SG173754
  0091e	48 89 4c 24 30	 mov	 QWORD PTR [rsp+48], rcx
  00923	48 8d 0d 00 00
	00 00		 lea	 rcx, OFFSET FLAT:$SG173755
  0092a	48 89 4c 24 28	 mov	 QWORD PTR [rsp+40], rcx
  0092f	48 89 44 24 20	 mov	 QWORD PTR [rsp+32], rax
  00934	41 b9 03 00 00
	00		 mov	 r9d, 3
  0093a	4c 8d 05 00 00
	00 00		 lea	 r8, OFFSET FLAT:$SG173756
  00941	ba 89 0e 00 00	 mov	 edx, 3721		; 00000e89H
  00946	48 8d 0d 00 00
	00 00		 lea	 rcx, OFFSET FLAT:$SG173757
  0094d	ff 15 00 00 00
	00		 call	 QWORD PTR __imp_fwritemsg
$LN54@ecpsvm_doa:
$LN16@ecpsvm_doa:

; 3722 :     /* Get some stuff from the REAL Running PSW to put in OLD SVC PSW */
; 3723 :     MAYBE_SET_PSW_IA_FROM_IP(regs);

  00953	48 8b 84 24 70
	c4 02 00	 mov	 rax, QWORD PTR regs$[rsp]
  0095b	48 83 b8 08 02
	00 00 00	 cmp	 QWORD PTR [rax+520], 0
  00963	74 43		 je	 SHORT $LN55@ecpsvm_doa
  00965	48 8b 84 24 70
	c4 02 00	 mov	 rax, QWORD PTR regs$[rsp]
  0096d	8b 80 10 02 00
	00		 mov	 eax, DWORD PTR [rax+528]
  00973	48 8b 8c 24 70
	c4 02 00	 mov	 rcx, QWORD PTR regs$[rsp]
  0097b	48 8b 94 24 70
	c4 02 00	 mov	 rdx, QWORD PTR regs$[rsp]
  00983	48 8b 92 00 02
	00 00		 mov	 rdx, QWORD PTR [rdx+512]
  0098a	48 8b 49 68	 mov	 rcx, QWORD PTR [rcx+104]
  0098e	48 2b ca	 sub	 rcx, rdx
  00991	48 03 c1	 add	 rax, rcx
  00994	48 25 ff ff ff
	00		 and	 rax, 16777215		; 00ffffffH
  0099a	48 8b 8c 24 70
	c4 02 00	 mov	 rcx, QWORD PTR regs$[rsp]
  009a2	89 81 88 00 00
	00		 mov	 DWORD PTR [rcx+136], eax
$LN55@ecpsvm_doa:
  009a8	33 c0		 xor	 eax, eax
  009aa	85 c0		 test	 eax, eax
  009ac	75 a5		 jne	 SHORT $LN16@ecpsvm_doa
$LN19@ecpsvm_doa:

; 3724 :     SET_PSW_IA_AND_MAYBE_IP(&vpregs, regs->psw.IA);            /* Instruction Address */

  009ae	48 8b 84 24 70
	c4 02 00	 mov	 rax, QWORD PTR regs$[rsp]
  009b6	8b 80 88 00 00
	00		 mov	 eax, DWORD PTR [rax+136]
  009bc	25 ff ff ff 00	 and	 eax, 16777215		; 00ffffffH
  009c1	89 85 08 01 00
	00		 mov	 DWORD PTR vpregs$[rbp+136], eax
  009c7	48 83 bd 88 02
	00 00 00	 cmp	 QWORD PTR vpregs$[rbp+520], 0
  009cf	74 41		 je	 SHORT $LN56@ecpsvm_doa
  009d1	8b 85 08 01 00
	00		 mov	 eax, DWORD PTR vpregs$[rbp+136]
  009d7	25 01 f8 ff 7f	 and	 eax, 2147481601		; 7ffff801H
  009dc	39 85 90 02 00
	00		 cmp	 DWORD PTR vpregs$[rbp+528], eax
  009e2	75 23		 jne	 SHORT $LN57@ecpsvm_doa
  009e4	8b 85 08 01 00
	00		 mov	 eax, DWORD PTR vpregs$[rbp+136]
  009ea	25 ff 07 00 00	 and	 eax, 2047		; 000007ffH
  009ef	8b c0		 mov	 eax, eax
  009f1	48 8b 8d 80 02
	00 00		 mov	 rcx, QWORD PTR vpregs$[rbp+512]
  009f8	48 0b c8	 or	 rcx, rax
  009fb	48 8b c1	 mov	 rax, rcx
  009fe	48 89 85 e8 00
	00 00		 mov	 QWORD PTR vpregs$[rbp+104], rax
  00a05	eb 0b		 jmp	 SHORT $LN58@ecpsvm_doa
$LN57@ecpsvm_doa:
  00a07	48 c7 85 88 02
	00 00 00 00 00
	00		 mov	 QWORD PTR vpregs$[rbp+520], 0
$LN58@ecpsvm_doa:
$LN56@ecpsvm_doa:
  00a12	33 c0		 xor	 eax, eax
  00a14	85 c0		 test	 eax, eax
  00a16	75 96		 jne	 SHORT $LN19@ecpsvm_doa

; 3725 :     vpregs.psw.cc=regs->psw.cc;                   /* Condition Code      */

  00a18	48 8b 84 24 70
	c4 02 00	 mov	 rax, QWORD PTR regs$[rsp]
  00a20	0f b6 40 7c	 movzx	 eax, BYTE PTR [rax+124]
  00a24	88 85 fc 00 00
	00		 mov	 BYTE PTR vpregs$[rbp+124], al

; 3726 :     vpregs.psw.pkey=regs->psw.pkey;               /* Protection Key      */

  00a2a	48 8b 84 24 70
	c4 02 00	 mov	 rax, QWORD PTR regs$[rsp]
  00a32	0f b6 40 79	 movzx	 eax, BYTE PTR [rax+121]
  00a36	88 85 f9 00 00
	00		 mov	 BYTE PTR vpregs$[rbp+121], al

; 3727 :     vpregs.psw.progmask=regs->psw.progmask;       /* Program Mask        */

  00a3c	48 8b 84 24 70
	c4 02 00	 mov	 rax, QWORD PTR regs$[rsp]
  00a44	0f b6 40 7d	 movzx	 eax, BYTE PTR [rax+125]
  00a48	88 85 fd 00 00
	00		 mov	 BYTE PTR vpregs$[rbp+125], al

; 3728 :     vpregs.psw.intcode=svccode;                   /* SVC Interrupt code  */

  00a4e	0f b7 84 24 78
	c4 02 00	 movzx	 eax, WORD PTR svccode$[rsp]
  00a56	66 89 85 18 01
	00 00		 mov	 WORD PTR vpregs$[rbp+152], ax

; 3729 :     DEBUG_SASSISTX(SVC,MSGBUF(buf, "SASSIST SVC OLD VIRT "));

  00a5d	8b 05 18 00 00
	00		 mov	 eax, DWORD PTR ecpsvm_sastats+24
  00a63	c1 e8 02	 shr	 eax, 2
  00a66	83 e0 01	 and	 eax, 1
  00a69	85 c0		 test	 eax, eax
  00a6b	74 19		 je	 SHORT $LN59@ecpsvm_doa
  00a6d	4c 8d 05 00 00
	00 00		 lea	 r8, OFFSET FLAT:$SG173763
  00a74	ba 00 02 00 00	 mov	 edx, 512		; 00000200H
  00a79	48 8d 8d 80 c1
	02 00		 lea	 rcx, QWORD PTR buf$[rbp]
  00a80	ff 15 00 00 00
	00		 call	 QWORD PTR __imp_w32_snprintf
$LN59@ecpsvm_doa:

; 3730 :     DEBUG_SASSISTX(SVC,display_psw(&vpregs, &buf[strlen(buf)], sizeof(buf)-(int)strlen(buf)));

  00a86	8b 05 18 00 00
	00		 mov	 eax, DWORD PTR ecpsvm_sastats+24
  00a8c	c1 e8 02	 shr	 eax, 2
  00a8f	83 e0 01	 and	 eax, 1
  00a92	85 c0		 test	 eax, eax
  00a94	74 47		 je	 SHORT $LN60@ecpsvm_doa
  00a96	48 8d 8d 80 c1
	02 00		 lea	 rcx, QWORD PTR buf$[rbp]
  00a9d	e8 00 00 00 00	 call	 strlen
  00aa2	48 98		 cdqe
  00aa4	b9 00 02 00 00	 mov	 ecx, 512		; 00000200H
  00aa9	48 2b c8	 sub	 rcx, rax
  00aac	48 8b c1	 mov	 rax, rcx
  00aaf	48 89 45 50	 mov	 QWORD PTR tv530[rbp], rax
  00ab3	48 8d 8d 80 c1
	02 00		 lea	 rcx, QWORD PTR buf$[rbp]
  00aba	e8 00 00 00 00	 call	 strlen
  00abf	48 8d 84 05 80
	c1 02 00	 lea	 rax, QWORD PTR buf$[rbp+rax]
  00ac7	48 8b 4d 50	 mov	 rcx, QWORD PTR tv530[rbp]
  00acb	44 8b c1	 mov	 r8d, ecx
  00ace	48 8b d0	 mov	 rdx, rax
  00ad1	48 8d 8d 80 00
	00 00		 lea	 rcx, QWORD PTR vpregs$[rbp]
  00ad8	e8 00 00 00 00	 call	 display_psw
$LN60@ecpsvm_doa:

; 3731 :     DEBUG_SASSISTX(SVC,WRMSG(HHC90000, "D", buf));

  00add	8b 05 18 00 00
	00		 mov	 eax, DWORD PTR ecpsvm_sastats+24
  00ae3	c1 e8 02	 shr	 eax, 2
  00ae6	83 e0 01	 and	 eax, 1
  00ae9	85 c0		 test	 eax, eax
  00aeb	74 53		 je	 SHORT $LN61@ecpsvm_doa
  00aed	b9 01 00 00 00	 mov	 ecx, 1
  00af2	ff 15 00 00 00
	00		 call	 QWORD PTR __imp___acrt_iob_func
  00af8	48 8d 8d 80 c1
	02 00		 lea	 rcx, QWORD PTR buf$[rbp]
  00aff	48 89 4c 24 38	 mov	 QWORD PTR [rsp+56], rcx
  00b04	48 8d 0d 00 00
	00 00		 lea	 rcx, OFFSET FLAT:$SG173766
  00b0b	48 89 4c 24 30	 mov	 QWORD PTR [rsp+48], rcx
  00b10	48 8d 0d 00 00
	00 00		 lea	 rcx, OFFSET FLAT:$SG173767
  00b17	48 89 4c 24 28	 mov	 QWORD PTR [rsp+40], rcx
  00b1c	48 89 44 24 20	 mov	 QWORD PTR [rsp+32], rax
  00b21	41 b9 03 00 00
	00		 mov	 r9d, 3
  00b27	4c 8d 05 00 00
	00 00		 lea	 r8, OFFSET FLAT:$SG173768
  00b2e	ba 93 0e 00 00	 mov	 edx, 3731		; 00000e93H
  00b33	48 8d 0d 00 00
	00 00		 lea	 rcx, OFFSET FLAT:$SG173769
  00b3a	ff 15 00 00 00
	00		 call	 QWORD PTR __imp_fwritemsg
$LN61@ecpsvm_doa:

; 3732 :     if(ecpsvm_check_pswtrans(regs,&micblok,micpend,&vpregs,&newr))       /* Check PSW transition capability */

  00b40	48 8d 85 00 61
	01 00		 lea	 rax, QWORD PTR newr$[rbp]
  00b47	48 89 44 24 20	 mov	 QWORD PTR [rsp+32], rax
  00b4c	4c 8d 8d 80 00
	00 00		 lea	 r9, QWORD PTR vpregs$[rbp]
  00b53	44 0f b6 45 00	 movzx	 r8d, BYTE PTR micpend$[rbp]
  00b58	48 8d 55 58	 lea	 rdx, QWORD PTR micblok$[rbp]
  00b5c	48 8b 8c 24 70
	c4 02 00	 mov	 rcx, QWORD PTR regs$[rsp]
  00b64	e8 00 00 00 00	 call	 ecpsvm_check_pswtrans
  00b69	85 c0		 test	 eax, eax
  00b6b	74 6d		 je	 SHORT $LN62@ecpsvm_doa

; 3733 :     {
; 3734 :         DEBUG_SASSISTX(SVC,WRMSG(HHC90000, "D", "SASSIST SVC Reject : Cannot make transition to new PSW"));

  00b6d	8b 05 18 00 00
	00		 mov	 eax, DWORD PTR ecpsvm_sastats+24
  00b73	c1 e8 02	 shr	 eax, 2
  00b76	83 e0 01	 and	 eax, 1
  00b79	85 c0		 test	 eax, eax
  00b7b	74 53		 je	 SHORT $LN63@ecpsvm_doa
  00b7d	b9 01 00 00 00	 mov	 ecx, 1
  00b82	ff 15 00 00 00
	00		 call	 QWORD PTR __imp___acrt_iob_func
  00b88	48 8d 0d 00 00
	00 00		 lea	 rcx, OFFSET FLAT:$SG173772
  00b8f	48 89 4c 24 38	 mov	 QWORD PTR [rsp+56], rcx
  00b94	48 8d 0d 00 00
	00 00		 lea	 rcx, OFFSET FLAT:$SG173773
  00b9b	48 89 4c 24 30	 mov	 QWORD PTR [rsp+48], rcx
  00ba0	48 8d 0d 00 00
	00 00		 lea	 rcx, OFFSET FLAT:$SG173774
  00ba7	48 89 4c 24 28	 mov	 QWORD PTR [rsp+40], rcx
  00bac	48 89 44 24 20	 mov	 QWORD PTR [rsp+32], rax
  00bb1	41 b9 03 00 00
	00		 mov	 r9d, 3
  00bb7	4c 8d 05 00 00
	00 00		 lea	 r8, OFFSET FLAT:$SG173775
  00bbe	ba 96 0e 00 00	 mov	 edx, 3734		; 00000e96H
  00bc3	48 8d 0d 00 00
	00 00		 lea	 rcx, OFFSET FLAT:$SG173776
  00bca	ff 15 00 00 00
	00		 call	 QWORD PTR __imp_fwritemsg
$LN63@ecpsvm_doa:

; 3735 :         return(1); /* Something in the NEW PSW we can't handle.. let CP do it */

  00bd0	b8 01 00 00 00	 mov	 eax, 1
  00bd5	e9 eb 01 00 00	 jmp	 $LN1@ecpsvm_doa
$LN62@ecpsvm_doa:

; 3736 :     }
; 3737 : 
; 3738 :     /* Set intcode in PSW (for BC mode) */
; 3739 :     ARCH_DEP(store_psw) (&vpregs, (BYTE *)&psa->svcold);

  00bda	48 8b 45 18	 mov	 rax, QWORD PTR psa$[rbp]
  00bde	48 83 c0 20	 add	 rax, 32			; 00000020H
  00be2	48 8b d0	 mov	 rdx, rax
  00be5	48 8d 8d 80 00
	00 00		 lea	 rcx, QWORD PTR vpregs$[rbp]
  00bec	e8 00 00 00 00	 call	 s370_store_psw

; 3740 : 
; 3741 :     if(ECMODE(&vpregs.psw))

  00bf1	0f b6 85 fa 00
	00 00		 movzx	 eax, BYTE PTR vpregs$[rbp+122]
  00bf8	83 e0 08	 and	 eax, 8
  00bfb	85 c0		 test	 eax, eax
  00bfd	74 24		 je	 SHORT $LN64@ecpsvm_doa

; 3742 :     {
; 3743 :         /* Also set SVC interrupt code */
; 3744 :         /* and ILC                     */
; 3745 :         STORE_FW((BYTE *)&psa->svcint,0x00020000 | svccode);

  00bff	8b 84 24 78 c4
	02 00		 mov	 eax, DWORD PTR svccode$[rsp]
  00c06	0f ba e8 11	 bts	 eax, 17
  00c0a	8b c8		 mov	 ecx, eax
  00c0c	e8 00 00 00 00	 call	 _byteswap_ulong
  00c11	48 8b 4d 18	 mov	 rcx, QWORD PTR psa$[rbp]
  00c15	48 81 c1 88 00
	00 00		 add	 rcx, 136		; 00000088H
  00c1c	8b d0		 mov	 edx, eax
  00c1e	e8 00 00 00 00	 call	 store_fw_noswap
$LN64@ecpsvm_doa:
$LN22@ecpsvm_doa:
$LN25@ecpsvm_doa:

; 3746 :     }
; 3747 :     /* Now, update some stuff in the REAL PSW */
; 3748 :     SASSIST_LPSW(newr);

  00c23	48 83 bd 08 63
	01 00 00	 cmp	 QWORD PTR newr$[rbp+520], 0
  00c2b	74 29		 je	 SHORT $LN65@ecpsvm_doa
  00c2d	8b 85 10 63 01
	00		 mov	 eax, DWORD PTR newr$[rbp+528]
  00c33	48 8b 8d 00 63
	01 00		 mov	 rcx, QWORD PTR newr$[rbp+512]
  00c3a	48 8b 95 68 61
	01 00		 mov	 rdx, QWORD PTR newr$[rbp+104]
  00c41	48 2b d1	 sub	 rdx, rcx
  00c44	48 8b ca	 mov	 rcx, rdx
  00c47	48 03 c1	 add	 rax, rcx
  00c4a	48 25 ff ff ff
	00		 and	 rax, 16777215		; 00ffffffH
  00c50	89 85 88 61 01
	00		 mov	 DWORD PTR newr$[rbp+136], eax
$LN65@ecpsvm_doa:
  00c56	33 c0		 xor	 eax, eax
  00c58	85 c0		 test	 eax, eax
  00c5a	75 c7		 jne	 SHORT $LN25@ecpsvm_doa
$LN28@ecpsvm_doa:
  00c5c	8b 85 88 61 01
	00		 mov	 eax, DWORD PTR newr$[rbp+136]
  00c62	25 ff ff ff 00	 and	 eax, 16777215		; 00ffffffH
  00c67	48 8b 8c 24 70
	c4 02 00	 mov	 rcx, QWORD PTR regs$[rsp]
  00c6f	89 81 88 00 00
	00		 mov	 DWORD PTR [rcx+136], eax
  00c75	48 8b 84 24 70
	c4 02 00	 mov	 rax, QWORD PTR regs$[rsp]
  00c7d	48 83 b8 08 02
	00 00 00	 cmp	 QWORD PTR [rax+520], 0
  00c85	74 6e		 je	 SHORT $LN66@ecpsvm_doa
  00c87	48 8b 84 24 70
	c4 02 00	 mov	 rax, QWORD PTR regs$[rsp]
  00c8f	8b 80 88 00 00
	00		 mov	 eax, DWORD PTR [rax+136]
  00c95	25 01 f8 ff 7f	 and	 eax, 2147481601		; 7ffff801H
  00c9a	48 8b 8c 24 70
	c4 02 00	 mov	 rcx, QWORD PTR regs$[rsp]
  00ca2	39 81 10 02 00
	00		 cmp	 DWORD PTR [rcx+528], eax
  00ca8	75 38		 jne	 SHORT $LN67@ecpsvm_doa
  00caa	48 8b 84 24 70
	c4 02 00	 mov	 rax, QWORD PTR regs$[rsp]
  00cb2	8b 80 88 00 00
	00		 mov	 eax, DWORD PTR [rax+136]
  00cb8	25 ff 07 00 00	 and	 eax, 2047		; 000007ffH
  00cbd	8b c0		 mov	 eax, eax
  00cbf	48 8b 8c 24 70
	c4 02 00	 mov	 rcx, QWORD PTR regs$[rsp]
  00cc7	48 8b 89 00 02
	00 00		 mov	 rcx, QWORD PTR [rcx+512]
  00cce	48 0b c8	 or	 rcx, rax
  00cd1	48 8b c1	 mov	 rax, rcx
  00cd4	48 8b 8c 24 70
	c4 02 00	 mov	 rcx, QWORD PTR regs$[rsp]
  00cdc	48 89 41 68	 mov	 QWORD PTR [rcx+104], rax
  00ce0	eb 13		 jmp	 SHORT $LN68@ecpsvm_doa
$LN67@ecpsvm_doa:
  00ce2	48 8b 84 24 70
	c4 02 00	 mov	 rax, QWORD PTR regs$[rsp]
  00cea	48 c7 80 08 02
	00 00 00 00 00
	00		 mov	 QWORD PTR [rax+520], 0
$LN68@ecpsvm_doa:
$LN66@ecpsvm_doa:
  00cf5	33 c0		 xor	 eax, eax
  00cf7	85 c0		 test	 eax, eax
  00cf9	0f 85 5d ff ff
	ff		 jne	 $LN28@ecpsvm_doa
  00cff	48 8b 84 24 70
	c4 02 00	 mov	 rax, QWORD PTR regs$[rsp]
  00d07	0f b6 8d 7c 61
	01 00		 movzx	 ecx, BYTE PTR newr$[rbp+124]
  00d0e	88 48 7c	 mov	 BYTE PTR [rax+124], cl
  00d11	48 8b 84 24 70
	c4 02 00	 mov	 rax, QWORD PTR regs$[rsp]
  00d19	0f b6 8d 79 61
	01 00		 movzx	 ecx, BYTE PTR newr$[rbp+121]
  00d20	88 48 79	 mov	 BYTE PTR [rax+121], cl
  00d23	48 8b 84 24 70
	c4 02 00	 mov	 rax, QWORD PTR regs$[rsp]
  00d2b	0f b6 8d 7d 61
	01 00		 movzx	 ecx, BYTE PTR newr$[rbp+125]
  00d32	88 48 7d	 mov	 BYTE PTR [rax+125], cl
  00d35	33 c0		 xor	 eax, eax
  00d37	85 c0		 test	 eax, eax
  00d39	0f 85 e4 fe ff
	ff		 jne	 $LN22@ecpsvm_doa

; 3749 :     /* Now store the new PSW in the area pointed by the MICBLOK */
; 3750 :     ARCH_DEP(store_psw) (&newr,vpswa_p);

  00d3f	48 8b 55 20	 mov	 rdx, QWORD PTR vpswa_p$[rbp]
  00d43	48 8d 8d 00 61
	01 00		 lea	 rcx, QWORD PTR newr$[rbp]
  00d4a	e8 00 00 00 00	 call	 s370_store_psw

; 3751 :     DEBUG_SASSISTX(SVC,WRMSG(HHC90000, "D", "SASSIST SVC Done"));

  00d4f	8b 05 18 00 00
	00		 mov	 eax, DWORD PTR ecpsvm_sastats+24
  00d55	c1 e8 02	 shr	 eax, 2
  00d58	83 e0 01	 and	 eax, 1
  00d5b	85 c0		 test	 eax, eax
  00d5d	74 53		 je	 SHORT $LN69@ecpsvm_doa
  00d5f	b9 01 00 00 00	 mov	 ecx, 1
  00d64	ff 15 00 00 00
	00		 call	 QWORD PTR __imp___acrt_iob_func
  00d6a	48 8d 0d 00 00
	00 00		 lea	 rcx, OFFSET FLAT:$SG173783
  00d71	48 89 4c 24 38	 mov	 QWORD PTR [rsp+56], rcx
  00d76	48 8d 0d 00 00
	00 00		 lea	 rcx, OFFSET FLAT:$SG173784
  00d7d	48 89 4c 24 30	 mov	 QWORD PTR [rsp+48], rcx
  00d82	48 8d 0d 00 00
	00 00		 lea	 rcx, OFFSET FLAT:$SG173785
  00d89	48 89 4c 24 28	 mov	 QWORD PTR [rsp+40], rcx
  00d8e	48 89 44 24 20	 mov	 QWORD PTR [rsp+32], rax
  00d93	41 b9 03 00 00
	00		 mov	 r9d, 3
  00d99	4c 8d 05 00 00
	00 00		 lea	 r8, OFFSET FLAT:$SG173786
  00da0	ba a7 0e 00 00	 mov	 edx, 3751		; 00000ea7H
  00da5	48 8d 0d 00 00
	00 00		 lea	 rcx, OFFSET FLAT:$SG173787
  00dac	ff 15 00 00 00
	00		 call	 QWORD PTR __imp_fwritemsg
$LN69@ecpsvm_doa:

; 3752 :     SASSIST_HIT(SVC);

  00db2	48 8b 05 10 00
	00 00		 mov	 rax, QWORD PTR ecpsvm_sastats+16
  00db9	48 ff c0	 inc	 rax
  00dbc	48 89 05 10 00
	00 00		 mov	 QWORD PTR ecpsvm_sastats+16, rax

; 3753 :     return(0);

  00dc3	33 c0		 xor	 eax, eax
$LN1@ecpsvm_doa:

; 3754 : }

  00dc5	48 8b 8d 80 c3
	02 00		 mov	 rcx, QWORD PTR __$ArrayPad$[rbp]
  00dcc	48 33 cc	 xor	 rcx, rsp
  00dcf	e8 00 00 00 00	 call	 __security_check_cookie
  00dd4	48 81 c4 58 c4
	02 00		 add	 rsp, 181336		; 0002c458H
  00ddb	5f		 pop	 rdi
  00ddc	5d		 pop	 rbp
  00ddd	c3		 ret	 0
ecpsvm_doassistsvc ENDP
_TEXT	ENDS
; Function compile flags: /Odtp
; File C:\papa\MyGit\hyperion-zvector\ecpsvm.c
_TEXT	SEGMENT
svclist$ = 64
traceptr$ = 68
slcadr$ = 72
retaddr$ = 76
svchi$ = 80
svclo$ = 84
tv150 = 88
work_p$ = 96
regs$ = 128
ecpsvm_doCPretrn PROC

; 3620 : {

$LN25:
  00000	48 89 4c 24 08	 mov	 QWORD PTR [rsp+8], rcx
  00005	48 83 ec 78	 sub	 rsp, 120		; 00000078H

; 3621 : VADR svclist;
; 3622 : VADR retaddr;
; 3623 : VADR traceptr;
; 3624 : U32  svchi;
; 3625 : U32  svclo;
; 3626 : U32  slcadr;
; 3627 : BYTE *work_p;
; 3628 : 
; 3629 :     if(!sysblk.ecpsvm.available)

  00009	48 8b 05 00 00
	00 00		 mov	 rax, QWORD PTR __imp_sysblk
  00010	8b 80 44 13 00
	00		 mov	 eax, DWORD PTR [rax+4932]
  00016	c1 e8 11	 shr	 eax, 17
  00019	83 e0 01	 and	 eax, 1
  0001c	85 c0		 test	 eax, eax
  0001e	75 6d		 jne	 SHORT $LN5@ecpsvm_doC

; 3630 :     {
; 3631 :         DEBUG_CPASSISTX(RETRN,WRMSG(HHC90000, "D", "CPASSTS RETRN ECPS:VM Disabled in configuration"));

  00020	8b 05 18 03 00
	00		 mov	 eax, DWORD PTR ecpsvm_cpstats+792
  00026	c1 e8 02	 shr	 eax, 2
  00029	83 e0 01	 and	 eax, 1
  0002c	85 c0		 test	 eax, eax
  0002e	74 53		 je	 SHORT $LN6@ecpsvm_doC
  00030	b9 01 00 00 00	 mov	 ecx, 1
  00035	ff 15 00 00 00
	00		 call	 QWORD PTR __imp___acrt_iob_func
  0003b	48 8d 0d 00 00
	00 00		 lea	 rcx, OFFSET FLAT:$SG173548
  00042	48 89 4c 24 38	 mov	 QWORD PTR [rsp+56], rcx
  00047	48 8d 0d 00 00
	00 00		 lea	 rcx, OFFSET FLAT:$SG173549
  0004e	48 89 4c 24 30	 mov	 QWORD PTR [rsp+48], rcx
  00053	48 8d 0d 00 00
	00 00		 lea	 rcx, OFFSET FLAT:$SG173550
  0005a	48 89 4c 24 28	 mov	 QWORD PTR [rsp+40], rcx
  0005f	48 89 44 24 20	 mov	 QWORD PTR [rsp+32], rax
  00064	41 b9 03 00 00
	00		 mov	 r9d, 3
  0006a	4c 8d 05 00 00
	00 00		 lea	 r8, OFFSET FLAT:$SG173551
  00071	ba 2f 0e 00 00	 mov	 edx, 3631		; 00000e2fH
  00076	48 8d 0d 00 00
	00 00		 lea	 rcx, OFFSET FLAT:$SG173552
  0007d	ff 15 00 00 00
	00		 call	 QWORD PTR __imp_fwritemsg
$LN6@ecpsvm_doC:

; 3632 :         return(1);

  00083	b8 01 00 00 00	 mov	 eax, 1
  00088	e9 2b 07 00 00	 jmp	 $LN1@ecpsvm_doC
$LN5@ecpsvm_doC:

; 3633 :     }
; 3634 :     if(!ecpsvm_cpstats.RETRN.enabled)

  0008d	8b 05 18 03 00
	00		 mov	 eax, DWORD PTR ecpsvm_cpstats+792
  00093	d1 e8		 shr	 eax, 1
  00095	83 e0 01	 and	 eax, 1
  00098	85 c0		 test	 eax, eax
  0009a	75 6d		 jne	 SHORT $LN7@ecpsvm_doC

; 3635 :     {
; 3636 :         DEBUG_CPASSISTX(RETRN,WRMSG(HHC90000, "D", "CPASSTS RETRN Disabled by command"));

  0009c	8b 05 18 03 00
	00		 mov	 eax, DWORD PTR ecpsvm_cpstats+792
  000a2	c1 e8 02	 shr	 eax, 2
  000a5	83 e0 01	 and	 eax, 1
  000a8	85 c0		 test	 eax, eax
  000aa	74 53		 je	 SHORT $LN8@ecpsvm_doC
  000ac	b9 01 00 00 00	 mov	 ecx, 1
  000b1	ff 15 00 00 00
	00		 call	 QWORD PTR __imp___acrt_iob_func
  000b7	48 8d 0d 00 00
	00 00		 lea	 rcx, OFFSET FLAT:$SG173555
  000be	48 89 4c 24 38	 mov	 QWORD PTR [rsp+56], rcx
  000c3	48 8d 0d 00 00
	00 00		 lea	 rcx, OFFSET FLAT:$SG173556
  000ca	48 89 4c 24 30	 mov	 QWORD PTR [rsp+48], rcx
  000cf	48 8d 0d 00 00
	00 00		 lea	 rcx, OFFSET FLAT:$SG173557
  000d6	48 89 4c 24 28	 mov	 QWORD PTR [rsp+40], rcx
  000db	48 89 44 24 20	 mov	 QWORD PTR [rsp+32], rax
  000e0	41 b9 03 00 00
	00		 mov	 r9d, 3
  000e6	4c 8d 05 00 00
	00 00		 lea	 r8, OFFSET FLAT:$SG173558
  000ed	ba 34 0e 00 00	 mov	 edx, 3636		; 00000e34H
  000f2	48 8d 0d 00 00
	00 00		 lea	 rcx, OFFSET FLAT:$SG173559
  000f9	ff 15 00 00 00
	00		 call	 QWORD PTR __imp_fwritemsg
$LN8@ecpsvm_doC:

; 3637 :         return(1);

  000ff	b8 01 00 00 00	 mov	 eax, 1
  00104	e9 af 06 00 00	 jmp	 $LN1@ecpsvm_doC
$LN7@ecpsvm_doC:

; 3638 :     }
; 3639 :     if(!(regs->CR_L(6) & 0x02000000))

  00109	b8 08 00 00 00	 mov	 eax, 8
  0010e	48 6b c0 07	 imul	 rax, rax, 7
  00112	48 8b 8c 24 80
	00 00 00	 mov	 rcx, QWORD PTR regs$[rsp]
  0011a	8b 84 01 00 06
	00 00		 mov	 eax, DWORD PTR [rcx+rax+1536]
  00121	25 00 00 00 02	 and	 eax, 33554432		; 02000000H
  00126	85 c0		 test	 eax, eax
  00128	75 0a		 jne	 SHORT $LN9@ecpsvm_doC

; 3640 :     {
; 3641 :         return(1);

  0012a	b8 01 00 00 00	 mov	 eax, 1
  0012f	e9 84 06 00 00	 jmp	 $LN1@ecpsvm_doC
$LN9@ecpsvm_doC:

; 3642 :     }
; 3643 :     ecpsvm_cpstats.RETRN.call++;

  00134	48 8b 05 08 03
	00 00		 mov	 rax, QWORD PTR ecpsvm_cpstats+776
  0013b	48 ff c0	 inc	 rax
  0013e	48 89 05 08 03
	00 00		 mov	 QWORD PTR ecpsvm_cpstats+776, rax

; 3644 :     DEBUG_CPASSISTX(RETRN,WRMSG(HHC90000, "D", "RETRN called"));

  00145	8b 05 18 03 00
	00		 mov	 eax, DWORD PTR ecpsvm_cpstats+792
  0014b	c1 e8 02	 shr	 eax, 2
  0014e	83 e0 01	 and	 eax, 1
  00151	85 c0		 test	 eax, eax
  00153	74 53		 je	 SHORT $LN10@ecpsvm_doC
  00155	b9 01 00 00 00	 mov	 ecx, 1
  0015a	ff 15 00 00 00
	00		 call	 QWORD PTR __imp___acrt_iob_func
  00160	48 8d 0d 00 00
	00 00		 lea	 rcx, OFFSET FLAT:$SG173562
  00167	48 89 4c 24 38	 mov	 QWORD PTR [rsp+56], rcx
  0016c	48 8d 0d 00 00
	00 00		 lea	 rcx, OFFSET FLAT:$SG173563
  00173	48 89 4c 24 30	 mov	 QWORD PTR [rsp+48], rcx
  00178	48 8d 0d 00 00
	00 00		 lea	 rcx, OFFSET FLAT:$SG173564
  0017f	48 89 4c 24 28	 mov	 QWORD PTR [rsp+40], rcx
  00184	48 89 44 24 20	 mov	 QWORD PTR [rsp+32], rax
  00189	41 b9 03 00 00
	00		 mov	 r9d, 3
  0018f	4c 8d 05 00 00
	00 00		 lea	 r8, OFFSET FLAT:$SG173565
  00196	ba 3c 0e 00 00	 mov	 edx, 3644		; 00000e3cH
  0019b	48 8d 0d 00 00
	00 00		 lea	 rcx, OFFSET FLAT:$SG173566
  001a2	ff 15 00 00 00
	00		 call	 QWORD PTR __imp_fwritemsg
$LN10@ecpsvm_doC:

; 3645 : 
; 3646 :     if(regs->GR_L(12) >= EVM_L(APAGCP))

  001a8	b8 08 00 00 00	 mov	 eax, 8
  001ad	48 6b c0 0c	 imul	 rax, rax, 12
  001b1	48 89 44 24 58	 mov	 QWORD PTR tv150[rsp], rax
  001b6	4c 8b 84 24 80
