; Listing generated by Microsoft (R) Optimizing Compiler Version 19.34.31937.0 

include listing.inc

INCLUDELIB MSVCRTD
INCLUDELIB OLDNAMES

_DATA	SEGMENT
z900_facs_tab DQ 0000000000000000H
	DQ	0000000000000000H
	DQ	FLAT:$SG190813
	DQ	0000000000000000H
	DD	00H
	DD	020H
	DD	020H
	DD	00H
	DQ	0000000000000000H
	DQ	0000000000000000H
	DQ	FLAT:$SG190814
	DQ	0000000000000000H
	DD	01H
	DD	060H
	DD	060H
	DD	060H
	DQ	0000000000000000H
	DQ	0000000000000000H
	DQ	FLAT:$SG190815
	DQ	0000000000000000H
	DD	02H
	DD	020H
	DD	020H
	DD	020H
	DQ	0000000000000000H
	DQ	0000000000000000H
	DQ	FLAT:$SG190816
	DQ	0000000000000000H
	DD	03H
	DD	020H
	DD	020H
	DD	00H
	DQ	0000000000000000H
	DQ	0000000000000000H
	DQ	FLAT:$SG190817
	DQ	0000000000000000H
	DD	06H
	DD	020H
	DD	020H
	DD	00H
	DQ	0000000000000000H
	DQ	0000000000000000H
	DQ	FLAT:$SG190818
	DQ	0000000000000000H
	DD	07H
	DD	020H
	DD	020H
	DD	00H
	DQ	0000000000000000H
	DQ	0000000000000000H
	DQ	FLAT:$SG190819
	DQ	0000000000000000H
	DD	08H
	DD	020H
	DD	020H
	DD	00H
	DQ	0000000000000000H
	DQ	0000000000000000H
	DQ	FLAT:$SG190820
	DQ	0000000000000000H
	DD	09H
	DD	020H
	DD	020H
	DD	00H
	DQ	0000000000000000H
	DQ	0000000000000000H
	DQ	FLAT:$SG190821
	DQ	0000000000000000H
	DD	0aH
	DD	020H
	DD	020H
	DD	00H
	DQ	0000000000000000H
	DQ	0000000000000000H
	DQ	FLAT:$SG190822
	DQ	0000000000000000H
	DD	0bH
	DD	020H
	DD	020H
	DD	00H
	DQ	0000000000000000H
	DQ	0000000000000000H
	DQ	FLAT:$SG190823
	DQ	0000000000000000H
	DD	0cH
	DD	00H
	DD	00H
	DD	00H
	DQ	0000000000000000H
	DQ	0000000000000000H
	DQ	FLAT:$SG190824
	DQ	0000000000000000H
	DD	0dH
	DD	020H
	DD	020H
	DD	00H
	DQ	0000000000000000H
	DQ	0000000000000000H
	DQ	FLAT:$SG190825
	DQ	0000000000000000H
	DD	0eH
	DD	020H
	DD	020H
	DD	00H
	DQ	0000000000000000H
	DQ	0000000000000000H
	DQ	FLAT:$SG190826
	DQ	0000000000000000H
	DD	0fH
	DD	00H
	DD	00H
	DD	00H
	DQ	0000000000000000H
	DQ	0000000000000000H
	DQ	FLAT:$SG190827
	DQ	0000000000000000H
	DD	010H
	DD	020H
	DD	020H
	DD	00H
	DQ	0000000000000000H
	DQ	0000000000000000H
	DQ	FLAT:$SG190828
	DQ	0000000000000000H
	DD	011H
	DD	020H
	DD	020H
	DD	00H
	DQ	0000000000000000H
	DQ	0000000000000000H
	DQ	FLAT:$SG190829
	DQ	0000000000000000H
	DD	012H
	DD	020H
	DD	020H
	DD	020H
	DQ	0000000000000000H
	DQ	0000000000000000H
	DQ	FLAT:$SG190830
	DQ	0000000000000000H
	DD	013H
	DD	020H
	DD	020H
	DD	00H
	DQ	0000000000000000H
	DQ	0000000000000000H
	DQ	FLAT:$SG190831
	DQ	0000000000000000H
	DD	014H
	DD	020H
	DD	020H
	DD	00H
	DQ	0000000000000000H
	DQ	0000000000000000H
	DQ	FLAT:$SG190832
	DQ	0000000000000000H
	DD	015H
	DD	020H
	DD	020H
	DD	00H
	DQ	0000000000000000H
	DQ	0000000000000000H
	DQ	FLAT:$SG190833
	DQ	0000000000000000H
	DD	016H
	DD	020H
	DD	020H
	DD	00H
	DQ	0000000000000000H
	DQ	0000000000000000H
	DQ	FLAT:$SG190834
	DQ	0000000000000000H
	DD	017H
	DD	020H
	DD	020H
	DD	00H
	DQ	0000000000000000H
	DQ	0000000000000000H
	DQ	FLAT:$SG190835
	DQ	0000000000000000H
	DD	018H
	DD	020H
	DD	020H
	DD	00H
	DQ	0000000000000000H
	DQ	0000000000000000H
	DQ	FLAT:$SG190836
	DQ	0000000000000000H
	DD	019H
	DD	020H
	DD	020H
	DD	00H
	DQ	0000000000000000H
	DQ	0000000000000000H
	DQ	FLAT:$SG190837
	DQ	0000000000000000H
	DD	01aH
	DD	020H
	DD	020H
	DD	00H
	DQ	0000000000000000H
	DQ	0000000000000000H
	DQ	FLAT:$SG190838
	DQ	0000000000000000H
	DD	01bH
	DD	020H
	DD	020H
	DD	00H
	DQ	0000000000000000H
	DQ	0000000000000000H
	DQ	FLAT:$SG190839
	DQ	0000000000000000H
	DD	01cH
	DD	020H
	DD	020H
	DD	00H
	DQ	0000000000000000H
	DQ	0000000000000000H
	DQ	FLAT:$SG190840
	DQ	0000000000000000H
	DD	01dH
	DD	00H
	DD	00H
	DD	00H
	DQ	0000000000000000H
	DQ	0000000000000000H
	DQ	FLAT:$SG190841
	DQ	0000000000000000H
	DD	01eH
	DD	020H
	DD	020H
	DD	00H
	DQ	0000000000000000H
	DQ	0000000000000000H
	DQ	FLAT:$SG190842
	DQ	0000000000000000H
	DD	01fH
	DD	020H
	DD	020H
	DD	00H
	DQ	0000000000000000H
	DQ	0000000000000000H
	DQ	FLAT:$SG190843
	DQ	0000000000000000H
	DD	020H
	DD	020H
	DD	020H
	DD	00H
	DQ	0000000000000000H
	DQ	0000000000000000H
	DQ	FLAT:$SG190844
	DQ	0000000000000000H
	DD	021H
	DD	020H
	DD	020H
	DD	00H
	DQ	0000000000000000H
	DQ	0000000000000000H
	DQ	FLAT:$SG190845
	DQ	0000000000000000H
	DD	022H
	DD	020H
	DD	020H
	DD	00H
	DQ	0000000000000000H
	DQ	0000000000000000H
	DQ	FLAT:$SG190846
	DQ	0000000000000000H
	DD	023H
	DD	020H
	DD	020H
	DD	00H
	DQ	0000000000000000H
	DQ	0000000000000000H
	DQ	FLAT:$SG190847
	DQ	0000000000000000H
	DD	024H
	DD	020H
	DD	020H
	DD	00H
	DQ	0000000000000000H
	DQ	0000000000000000H
	DQ	FLAT:$SG190848
	DQ	0000000000000000H
	DD	025H
	DD	020H
	DD	020H
	DD	00H
	DQ	0000000000000000H
	DQ	0000000000000000H
	DQ	FLAT:$SG190849
	DQ	0000000000000000H
	DD	027H
	DD	00H
	DD	00H
	DD	00H
	DQ	0000000000000000H
	DQ	0000000000000000H
	DQ	FLAT:$SG190850
	DQ	0000000000000000H
	DD	028H
	DD	020H
	DD	020H
	DD	00H
	DQ	0000000000000000H
	DQ	0000000000000000H
	DQ	FLAT:$SG190851
	DQ	0000000000000000H
	DD	029H
	DD	020H
	DD	020H
	DD	00H
	DQ	0000000000000000H
	DQ	0000000000000000H
	DQ	FLAT:$SG190852
	DQ	0000000000000000H
	DD	029H
	DD	020H
	DD	020H
	DD	00H
	DQ	0000000000000000H
	DQ	0000000000000000H
	DQ	FLAT:$SG190853
	DQ	0000000000000000H
	DD	029H
	DD	020H
	DD	020H
	DD	00H
	DQ	0000000000000000H
	DQ	0000000000000000H
	DQ	FLAT:$SG190854
	DQ	0000000000000000H
	DD	029H
	DD	020H
	DD	020H
	DD	00H
	DQ	0000000000000000H
	DQ	0000000000000000H
	DQ	FLAT:$SG190855
	DQ	0000000000000000H
	DD	029H
	DD	020H
	DD	020H
	DD	00H
	DQ	0000000000000000H
	DQ	0000000000000000H
	DQ	FLAT:$SG190856
	DQ	0000000000000000H
	DD	02aH
	DD	020H
	DD	020H
	DD	00H
	DQ	0000000000000000H
	DQ	0000000000000000H
	DQ	FLAT:$SG190857
	DQ	0000000000000000H
	DD	02bH
	DD	020H
	DD	020H
	DD	00H
	DQ	0000000000000000H
	DQ	0000000000000000H
	DQ	FLAT:$SG190858
	DQ	0000000000000000H
	DD	02cH
	DD	020H
	DD	020H
	DD	00H
	DQ	0000000000000000H
	DQ	0000000000000000H
	DQ	FLAT:$SG190859
	DQ	0000000000000000H
	DD	02dH
	DD	020H
	DD	020H
	DD	00H
	DQ	0000000000000000H
	DQ	0000000000000000H
	DQ	FLAT:$SG190860
	DQ	0000000000000000H
	DD	02dH
	DD	020H
	DD	020H
	DD	00H
	DQ	0000000000000000H
	DQ	0000000000000000H
	DQ	FLAT:$SG190861
	DQ	0000000000000000H
	DD	02dH
	DD	020H
	DD	020H
	DD	00H
	DQ	0000000000000000H
	DQ	0000000000000000H
	DQ	FLAT:$SG190862
	DQ	0000000000000000H
	DD	02dH
	DD	020H
	DD	020H
	DD	00H
	DQ	0000000000000000H
	DQ	0000000000000000H
	DQ	FLAT:$SG190863
	DQ	0000000000000000H
	DD	02dH
	DD	020H
	DD	020H
	DD	00H
	DQ	0000000000000000H
	DQ	0000000000000000H
	DQ	FLAT:$SG190864
	DQ	0000000000000000H
	DD	02dH
	DD	020H
	DD	020H
	DD	00H
	DQ	0000000000000000H
	DQ	0000000000000000H
	DQ	FLAT:$SG190865
	DQ	0000000000000000H
	DD	02eH
	DD	00H
	DD	00H
	DD	00H
	DQ	0000000000000000H
	DQ	0000000000000000H
	DQ	FLAT:$SG190866
	DQ	0000000000000000H
	DD	02fH
	DD	020H
	DD	020H
	DD	00H
	DQ	0000000000000000H
	DQ	0000000000000000H
	DQ	FLAT:$SG190867
	DQ	0000000000000000H
	DD	030H
	DD	020H
	DD	020H
	DD	00H
	DQ	0000000000000000H
	DQ	0000000000000000H
	DQ	FLAT:$SG190868
	DQ	0000000000000000H
	DD	031H
	DD	020H
	DD	020H
	DD	00H
	DQ	0000000000000000H
	DQ	0000000000000000H
	DQ	FLAT:$SG190869
	DQ	0000000000000000H
	DD	031H
	DD	020H
	DD	020H
	DD	00H
	DQ	0000000000000000H
	DQ	0000000000000000H
	DQ	FLAT:$SG190870
	DQ	0000000000000000H
	DD	031H
	DD	020H
	DD	020H
	DD	00H
	DQ	0000000000000000H
	DQ	0000000000000000H
	DQ	FLAT:$SG190871
	DQ	0000000000000000H
	DD	031H
	DD	020H
	DD	020H
	DD	00H
	DQ	0000000000000000H
	DQ	0000000000000000H
	DQ	FLAT:$SG190872
	DQ	0000000000000000H
	DD	032H
	DD	020H
	DD	020H
	DD	00H
	DQ	0000000000000000H
	DQ	0000000000000000H
	DQ	FLAT:$SG190873
	DQ	0000000000000000H
	DD	033H
	DD	020H
	DD	020H
	DD	00H
	DQ	0000000000000000H
	DQ	0000000000000000H
	DQ	FLAT:$SG190874
	DQ	0000000000000000H
	DD	034H
	DD	020H
	DD	020H
	DD	00H
	DQ	0000000000000000H
	DQ	0000000000000000H
	DQ	FLAT:$SG190875
	DQ	0000000000000000H
	DD	035H
	DD	020H
	DD	020H
	DD	00H
	DQ	0000000000000000H
	DQ	0000000000000000H
	DQ	FLAT:$SG190876
	DQ	0000000000000000H
	DD	035H
	DD	020H
	DD	020H
	DD	00H
	DQ	0000000000000000H
	DQ	0000000000000000H
	DQ	FLAT:$SG190877
	DQ	0000000000000000H
	DD	037H
	DD	00H
	DD	00H
	DD	00H
	DQ	0000000000000000H
	DQ	0000000000000000H
	DQ	FLAT:$SG190878
	DQ	0000000000000000H
	DD	038H
	DD	00H
	DD	00H
	DD	00H
	DQ	0000000000000000H
	DQ	0000000000000000H
	DQ	FLAT:$SG190879
	DQ	0000000000000000H
	DD	03aH
	DD	020H
	DD	020H
	DD	00H
	DQ	0000000000000000H
	DQ	0000000000000000H
	DQ	FLAT:$SG190880
	DQ	0000000000000000H
	DD	03bH
	DD	00H
	DD	00H
	DD	00H
	DQ	0000000000000000H
	DQ	0000000000000000H
	DQ	FLAT:$SG190881
	DQ	0000000000000000H
	DD	03cH
	DD	00H
	DD	00H
	DD	00H
	DQ	0000000000000000H
	DQ	0000000000000000H
	DQ	FLAT:$SG190882
	DQ	0000000000000000H
	DD	03dH
	DD	020H
	DD	020H
	DD	00H
	DQ	0000000000000000H
	DQ	0000000000000000H
	DQ	FLAT:$SG190883
	DQ	0000000000000000H
	DD	03eH
	DD	00H
	DD	00H
	DD	00H
	DQ	0000000000000000H
	DQ	0000000000000000H
	DQ	FLAT:$SG190884
	DQ	0000000000000000H
	DD	03fH
	DD	00H
	DD	00H
	DD	00H
	DQ	0000000000000000H
	DQ	0000000000000000H
	DQ	FLAT:$SG190885
	DQ	0000000000000000H
	DD	040H
	DD	00H
	DD	00H
	DD	00H
	DQ	0000000000000000H
	DQ	0000000000000000H
	DQ	FLAT:$SG190886
	DQ	0000000000000000H
	DD	041H
	DD	00H
	DD	00H
	DD	00H
	DQ	0000000000000000H
	DQ	0000000000000000H
	DQ	FLAT:$SG190887
	DQ	0000000000000000H
	DD	042H
	DD	020H
	DD	020H
	DD	00H
	DQ	0000000000000000H
	DQ	0000000000000000H
	DQ	FLAT:$SG190888
	DQ	0000000000000000H
	DD	045H
	DD	00H
	DD	00H
	DD	00H
	DQ	0000000000000000H
	DQ	0000000000000000H
	DQ	FLAT:$SG190889
	DQ	0000000000000000H
	DD	046H
	DD	00H
	DD	00H
	DD	00H
	DQ	0000000000000000H
	DQ	0000000000000000H
	DQ	FLAT:$SG190890
	DQ	0000000000000000H
	DD	047H
	DD	00H
	DD	00H
	DD	00H
	DQ	0000000000000000H
	DQ	0000000000000000H
	DQ	FLAT:$SG190891
	DQ	0000000000000000H
	DD	048H
	DD	00H
	DD	00H
	DD	00H
	DQ	0000000000000000H
	DQ	0000000000000000H
	DQ	FLAT:$SG190892
	DQ	0000000000000000H
	DD	049H
	DD	020H
	DD	020H
	DD	00H
	DQ	0000000000000000H
	DQ	0000000000000000H
	DQ	FLAT:$SG190893
	DQ	0000000000000000H
	DD	04aH
	DD	020H
	DD	00H
	DD	00H
	DQ	0000000000000000H
	DQ	0000000000000000H
	DQ	FLAT:$SG190894
	DQ	0000000000000000H
	DD	04bH
	DD	020H
	DD	020H
	DD	00H
	DQ	0000000000000000H
	DQ	0000000000000000H
	DQ	FLAT:$SG190895
	DQ	0000000000000000H
	DD	04cH
	DD	020H
	DD	020H
	DD	00H
	DQ	0000000000000000H
	DQ	0000000000000000H
	DQ	FLAT:$SG190896
	DQ	0000000000000000H
	DD	04dH
	DD	020H
	DD	020H
	DD	00H
	DQ	0000000000000000H
	DQ	0000000000000000H
	DQ	FLAT:$SG190897
	DQ	0000000000000000H
	DD	04fH
	DD	00H
	DD	00H
	DD	00H
	DQ	0000000000000000H
	DQ	0000000000000000H
	DQ	FLAT:$SG190898
	DQ	0000000000000000H
	DD	050H
	DD	020H
	DD	020H
	DD	00H
	DQ	0000000000000000H
	DQ	0000000000000000H
	DQ	FLAT:$SG190899
	DQ	0000000000000000H
	DD	051H
	DD	020H
	DD	020H
	DD	00H
	DQ	0000000000000000H
	DQ	0000000000000000H
	DQ	FLAT:$SG190900
	DQ	0000000000000000H
	DD	052H
	DD	00H
	DD	00H
	DD	00H
	DQ	0000000000000000H
	DQ	0000000000000000H
	DQ	FLAT:$SG190901
	DQ	0000000000000000H
	DD	053H
	DD	00H
	DD	00H
	DD	00H
	DQ	0000000000000000H
	DQ	0000000000000000H
	DQ	FLAT:$SG190902
	DQ	0000000000000000H
	DD	054H
	DD	00H
	DD	00H
	DD	00H
	DQ	0000000000000000H
	DQ	0000000000000000H
	DQ	FLAT:$SG190903
	DQ	0000000000000000H
	DD	055H
	DD	00H
	DD	00H
	DD	00H
	DQ	0000000000000000H
	DQ	0000000000000000H
	DQ	FLAT:$SG190904
	DQ	0000000000000000H
	DD	056H
	DD	00H
	DD	00H
	DD	00H
	DQ	0000000000000000H
	DQ	0000000000000000H
	DQ	FLAT:$SG190905
	DQ	0000000000000000H
	DD	057H
	DD	00H
	DD	00H
	DD	00H
	DQ	0000000000000000H
	DQ	0000000000000000H
	DQ	FLAT:$SG190906
	DQ	0000000000000000H
	DD	058H
	DD	00H
	DD	00H
	DD	00H
	DQ	0000000000000000H
	DQ	0000000000000000H
	DQ	FLAT:$SG190907
	DQ	0000000000000000H
	DD	059H
	DD	00H
	DD	00H
	DD	00H
	DQ	0000000000000000H
	DQ	0000000000000000H
	DQ	FLAT:$SG190908
	DQ	0000000000000000H
	DD	05aH
	DD	00H
	DD	00H
	DD	00H
	DQ	0000000000000000H
	DQ	0000000000000000H
	DQ	FLAT:$SG190909
	DQ	0000000000000000H
	DD	05bH
	DD	00H
	DD	00H
	DD	00H
	DQ	0000000000000000H
	DQ	0000000000000000H
	DQ	FLAT:$SG190910
	DQ	0000000000000000H
	DD	05cH
	DD	00H
	DD	00H
	DD	00H
	DQ	0000000000000000H
	DQ	0000000000000000H
	DQ	FLAT:$SG190911
	DQ	0000000000000000H
	DD	05dH
	DD	00H
	DD	00H
	DD	00H
	DQ	0000000000000000H
	DQ	0000000000000000H
	DQ	FLAT:$SG190912
	DQ	0000000000000000H
	DD	05eH
	DD	00H
	DD	00H
	DD	00H
	DQ	0000000000000000H
	DQ	0000000000000000H
	DQ	FLAT:$SG190913
	DQ	0000000000000000H
	DD	05fH
	DD	00H
	DD	00H
	DD	00H
	DQ	0000000000000000H
	DQ	0000000000000000H
	DQ	FLAT:$SG190914
	DQ	0000000000000000H
	DD	060H
	DD	00H
	DD	00H
	DD	00H
	DQ	0000000000000000H
	DQ	0000000000000000H
	DQ	FLAT:$SG190915
	DQ	0000000000000000H
	DD	061H
	DD	00H
	DD	00H
	DD	00H
	DQ	0000000000000000H
	DQ	0000000000000000H
	DQ	FLAT:$SG190916
	DQ	0000000000000000H
	DD	062H
	DD	00H
	DD	00H
	DD	00H
	DQ	0000000000000000H
	DQ	0000000000000000H
	DQ	FLAT:$SG190917
	DQ	0000000000000000H
	DD	063H
	DD	00H
	DD	00H
	DD	00H
	DQ	0000000000000000H
	DQ	0000000000000000H
	DQ	FLAT:$SG190918
	DQ	0000000000000000H
	DD	064H
	DD	00H
	DD	00H
	DD	00H
	DQ	0000000000000000H
	DQ	0000000000000000H
	DQ	FLAT:$SG190919
	DQ	0000000000000000H
	DD	065H
	DD	00H
	DD	00H
	DD	00H
	DQ	0000000000000000H
	DQ	0000000000000000H
	DQ	FLAT:$SG190920
	DQ	0000000000000000H
	DD	066H
	DD	00H
	DD	00H
	DD	00H
	DQ	0000000000000000H
	DQ	0000000000000000H
	DQ	FLAT:$SG190921
	DQ	0000000000000000H
	DD	067H
	DD	00H
	DD	00H
	DD	00H
	DQ	0000000000000000H
	DQ	0000000000000000H
	DQ	FLAT:$SG190922
	DQ	0000000000000000H
	DD	068H
	DD	00H
	DD	00H
	DD	00H
	DQ	0000000000000000H
	DQ	0000000000000000H
	DQ	FLAT:$SG190923
	DQ	0000000000000000H
	DD	069H
	DD	00H
	DD	00H
	DD	00H
	DQ	0000000000000000H
	DQ	0000000000000000H
	DQ	FLAT:$SG190924
	DQ	0000000000000000H
	DD	06aH
	DD	00H
	DD	00H
	DD	00H
	DQ	0000000000000000H
	DQ	0000000000000000H
	DQ	FLAT:$SG190925
	DQ	0000000000000000H
	DD	06bH
	DD	00H
	DD	00H
	DD	00H
	DQ	0000000000000000H
	DQ	0000000000000000H
	DQ	FLAT:$SG190926
	DQ	0000000000000000H
	DD	06cH
	DD	00H
	DD	00H
	DD	00H
	DQ	0000000000000000H
	DQ	0000000000000000H
	DQ	FLAT:$SG190927
	DQ	0000000000000000H
	DD	06dH
	DD	00H
	DD	00H
	DD	00H
	DQ	0000000000000000H
	DQ	0000000000000000H
	DQ	FLAT:$SG190928
	DQ	0000000000000000H
	DD	06eH
	DD	00H
	DD	00H
	DD	00H
	DQ	0000000000000000H
	DQ	0000000000000000H
	DQ	FLAT:$SG190929
	DQ	0000000000000000H
	DD	06fH
	DD	00H
	DD	00H
	DD	00H
	DQ	0000000000000000H
	DQ	0000000000000000H
	DQ	FLAT:$SG190930
	DQ	0000000000000000H
	DD	070H
	DD	00H
	DD	00H
	DD	00H
	DQ	0000000000000000H
	DQ	0000000000000000H
	DQ	FLAT:$SG190931
	DQ	0000000000000000H
	DD	071H
	DD	00H
	DD	00H
	DD	00H
	DQ	0000000000000000H
	DQ	0000000000000000H
	DQ	FLAT:$SG190932
	DQ	0000000000000000H
	DD	072H
	DD	00H
	DD	00H
	DD	00H
	DQ	0000000000000000H
	DQ	0000000000000000H
	DQ	FLAT:$SG190933
	DQ	0000000000000000H
	DD	073H
	DD	00H
	DD	00H
	DD	00H
	DQ	0000000000000000H
	DQ	0000000000000000H
	DQ	FLAT:$SG190934
	DQ	0000000000000000H
	DD	074H
	DD	00H
	DD	00H
	DD	00H
	DQ	0000000000000000H
	DQ	0000000000000000H
	DQ	FLAT:$SG190935
	DQ	0000000000000000H
	DD	075H
	DD	00H
	DD	00H
	DD	00H
	DQ	0000000000000000H
	DQ	0000000000000000H
	DQ	FLAT:$SG190936
	DQ	0000000000000000H
	DD	076H
	DD	00H
	DD	00H
	DD	00H
	DQ	0000000000000000H
	DQ	0000000000000000H
	DQ	FLAT:$SG190937
	DQ	0000000000000000H
	DD	077H
	DD	00H
	DD	00H
	DD	00H
	DQ	0000000000000000H
	DQ	0000000000000000H
	DQ	FLAT:$SG190938
	DQ	0000000000000000H
	DD	078H
	DD	00H
	DD	00H
	DD	00H
	DQ	0000000000000000H
	DQ	0000000000000000H
	DQ	FLAT:$SG190939
	DQ	0000000000000000H
	DD	079H
	DD	00H
	DD	00H
	DD	00H
	DQ	0000000000000000H
	DQ	0000000000000000H
	DQ	FLAT:$SG190940
	DQ	0000000000000000H
	DD	07aH
	DD	00H
	DD	00H
	DD	00H
	DQ	0000000000000000H
	DQ	0000000000000000H
	DQ	FLAT:$SG190941
	DQ	0000000000000000H
	DD	07bH
	DD	00H
	DD	00H
	DD	00H
	DQ	0000000000000000H
	DQ	0000000000000000H
	DQ	FLAT:$SG190942
	DQ	0000000000000000H
	DD	07cH
	DD	00H
	DD	00H
	DD	00H
	DQ	0000000000000000H
	DQ	0000000000000000H
	DQ	FLAT:$SG190943
	DQ	0000000000000000H
	DD	07dH
	DD	00H
	DD	00H
	DD	00H
	DQ	0000000000000000H
	DQ	0000000000000000H
	DQ	FLAT:$SG190944
	DQ	0000000000000000H
	DD	07eH
	DD	00H
	DD	00H
	DD	00H
	DQ	0000000000000000H
	DQ	0000000000000000H
	DQ	FLAT:$SG190945
	DQ	0000000000000000H
	DD	07fH
	DD	00H
	DD	00H
	DD	00H
	DQ	0000000000000000H
	DQ	0000000000000000H
	DQ	FLAT:$SG190946
	DQ	0000000000000000H
	DD	080H
	DD	00H
	DD	00H
	DD	00H
	DQ	0000000000000000H
	DQ	0000000000000000H
	DQ	FLAT:$SG190947
	DQ	0000000000000000H
	DD	081H
	DD	020H
	DD	020H
	DD	00H
	DQ	0000000000000000H
	DQ	0000000000000000H
	DQ	FLAT:$SG190948
	DQ	0000000000000000H
	DD	084H
	DD	00H
	DD	00H
	DD	00H
	DQ	0000000000000000H
	DQ	0000000000000000H
	DQ	FLAT:$SG190949
	DQ	0000000000000000H
	DD	088H
	DD	00H
	DD	00H
	DD	00H
	DQ	0000000000000000H
	DQ	0000000000000000H
	DQ	FLAT:$SG190950
	DQ	0000000000000000H
	DD	089H
	DD	00H
	DD	00H
	DD	00H
	DQ	0000000000000000H
	DQ	0000000000000000H
	DQ	FLAT:$SG190951
	DQ	0000000000000000H
	DD	08cH
	DD	00H
	DD	00H
	DD	00H
	DQ	0000000000000000H
	DQ	0000000000000000H
	DQ	FLAT:$SG190952
	DQ	0000000000000000H
	DD	08dH
	DD	00H
	DD	00H
	DD	00H
	DQ	0000000000000000H
	DQ	0000000000000000H
	DQ	FLAT:$SG190953
	DQ	0000000000000000H
	DD	08fH
	DD	00H
	DD	00H
	DD	00H
	DQ	0000000000000000H
	DQ	0000000000000000H
	DQ	FLAT:$SG190954
	DQ	0000000000000000H
	DD	091H
	DD	020H
	DD	020H
	DD	00H
	DQ	0000000000000000H
	DQ	0000000000000000H
	DQ	FLAT:$SG190955
	DQ	0000000000000000H
	DD	093H
	DD	00H
	DD	00H
	DD	00H
	DQ	0000000000000000H
	DQ	0000000000000000H
	DQ	FLAT:$SG190956
	DQ	0000000000000000H
	DD	099H
	DD	00H
	DD	00H
	DD	00H
	DQ	0000000000000000H
	DQ	0000000000000000H
	DQ	FLAT:$SG190957
	DQ	0000000000000000H
	DD	09aH
	DD	00H
	DD	00H
	DD	00H
	DQ	0000000000000000H
	DQ	0000000000000000H
	DQ	FLAT:$SG190958
	DQ	0000000000000000H
	DD	09cH
	DD	00H
	DD	00H
	DD	00H
	DQ	0000000000000000H
	DQ	0000000000000000H
	DQ	FLAT:$SG190959
	DQ	0000000000000000H
	DD	09dH
	DD	00H
	DD	00H
	DD	00H
	DQ	0000000000000000H
	DQ	0000000000000000H
	DQ	FLAT:$SG190960
	DQ	0000000000000000H
	DD	09fH
	DD	00H
	DD	00H
	DD	00H
	DQ	0000000000000000H
	DQ	0000000000000000H
	DQ	FLAT:$SG190961
	DQ	0000000000000000H
	DD	0a0H
	DD	00H
	DD	00H
	DD	00H
	DQ	0000000000000000H
	DQ	0000000000000000H
	DQ	FLAT:$SG190962
	DQ	0000000000000000H
	DD	0a2H
	DD	00H
	DD	00H
	DD	00H
	DQ	0000000000000000H
	DQ	0000000000000000H
	DQ	FLAT:$SG190963
	DQ	0000000000000000H
	DD	0a3H
	DD	00H
	DD	00H
	DD	00H
	DQ	0000000000000000H
	DQ	0000000000000000H
	DQ	FLAT:$SG190964
	DQ	0000000000000000H
	DD	0a4H
	DD	00H
	DD	00H
	DD	00H
	DQ	0000000000000000H
	DQ	0000000000000000H
	DQ	FLAT:$SG190965
	DQ	0000000000000000H
	DD	0a6H
	DD	00H
	DD	00H
	DD	00H
	DQ	0000000000000000H
	DQ	0000000000000000H
	DQ	FLAT:$SG190966
	DQ	0000000000000000H
	DD	0a7H
	DD	00H
	DD	00H
	DD	00H
	DQ	0000000000000000H
	DQ	0000000000000000H
	DQ	FLAT:$SG190967
	DQ	0000000000000000H
	DD	0aaH
	DD	00H
	DD	00H
	DD	00H
	DQ	0000000000000000H
	DQ	0000000000000000H
	DQ	FLAT:$SG190968
	DQ	0000000000000000H
	DD	0abH
	DD	00H
	DD	00H
	DD	00H
	DQ	0000000000000000H
	DQ	0000000000000000H
	DQ	FLAT:$SG190969
	DQ	0000000000000000H
	DD	0acH
	DD	00H
	DD	00H
	DD	00H
	DQ	0000000000000000H
	DQ	0000000000000000H
	DQ	FLAT:$SG190970
	DQ	0000000000000000H
	DD	0adH
	DD	00H
	DD	00H
	DD	00H
	DQ	0000000000000000H
	DQ	0000000000000000H
	DQ	FLAT:$SG190971
	DQ	0000000000000000H
	DD	0aeH
	DD	00H
	DD	00H
	DD	00H
	DQ	0000000000000000H
	DQ	0000000000000000H
	DQ	FLAT:$SG190972
	DQ	0000000000000000H
	DD	0afH
	DD	00H
	DD	00H
	DD	00H
	DQ	0000000000000000H
	DQ	0000000000000000H
	DQ	FLAT:$SG190973
	DQ	0000000000000000H
	DD	0b0H
	DD	00H
	DD	00H
	DD	00H
	DQ	0000000000000000H
	DQ	0000000000000000H
	DQ	FLAT:$SG190974
	DQ	0000000000000000H
	DD	0b1H
	DD	00H
	DD	00H
	DD	00H
	DQ	0000000000000000H
	DQ	0000000000000000H
	DQ	FLAT:$SG190975
	DQ	0000000000000000H
	DD	0b2H
	DD	00H
	DD	00H
	DD	00H
	DQ	0000000000000000H
	DQ	0000000000000000H
	DQ	FLAT:$SG190976
	DQ	0000000000000000H
	DD	0b3H
	DD	00H
	DD	00H
	DD	00H
	DQ	0000000000000000H
	DQ	0000000000000000H
	DQ	FLAT:$SG190977
	DQ	0000000000000000H
	DD	0b4H
	DD	00H
	DD	00H
	DD	00H
	DQ	0000000000000000H
	DQ	0000000000000000H
	DQ	FLAT:$SG190978
	DQ	0000000000000000H
	DD	0b5H
	DD	00H
	DD	00H
	DD	00H
	DQ	0000000000000000H
	DQ	0000000000000000H
	DQ	FLAT:$SG190979
	DQ	0000000000000000H
	DD	0b6H
	DD	00H
	DD	00H
	DD	00H
	DQ	0000000000000000H
	DQ	0000000000000000H
	DQ	FLAT:$SG190980
	DQ	0000000000000000H
	DD	0b7H
	DD	00H
	DD	00H
	DD	00H
	DQ	0000000000000000H
	DQ	0000000000000000H
	DQ	FLAT:$SG190981
	DQ	0000000000000000H
	DD	0b8H
	DD	00H
	DD	00H
	DD	00H
	DQ	0000000000000000H
	DQ	0000000000000000H
	DQ	FLAT:$SG190982
	DQ	0000000000000000H
	DD	0b9H
	DD	00H
	DD	00H
	DD	00H
	DQ	0000000000000000H
	DQ	0000000000000000H
	DQ	FLAT:$SG190983
	DQ	0000000000000000H
	DD	0baH
	DD	00H
	DD	00H
	DD	00H
	DQ	0000000000000000H
	DQ	0000000000000000H
	DQ	FLAT:$SG190984
	DQ	0000000000000000H
	DD	0bbH
	DD	00H
	DD	00H
	DD	00H
	DQ	0000000000000000H
	DQ	0000000000000000H
	DQ	FLAT:$SG190985
	DQ	0000000000000000H
	DD	0bcH
	DD	00H
	DD	00H
	DD	00H
	DQ	0000000000000000H
	DQ	0000000000000000H
	DQ	FLAT:$SG190986
	DQ	0000000000000000H
	DD	0bdH
	DD	00H
	DD	00H
	DD	00H
	DQ	0000000000000000H
	DQ	0000000000000000H
	DQ	FLAT:$SG190987
	DQ	0000000000000000H
	DD	0beH
	DD	00H
	DD	00H
	DD	00H
	DQ	0000000000000000H
	DQ	0000000000000000H
	DQ	FLAT:$SG190988
	DQ	0000000000000000H
	DD	0bfH
	DD	00H
	DD	00H
	DD	00H
	DQ	0000000000000000H
	DQ	0000000000000000H
	DQ	FLAT:$SG190989
	DQ	0000000000000000H
	DD	0c1H
	DD	020H
	DD	020H
	DD	00H
	DQ	0000000000000000H
	DQ	0000000000000000H
	DQ	FLAT:$SG190990
	DQ	0000000000000000H
	DD	0c3H
	DD	00H
	DD	00H
	DD	00H
	DQ	0000000000000000H
	DQ	0000000000000000H
	DQ	FLAT:$SG190991
	DQ	0000000000000000H
	DD	0c6H
	DD	00H
	DD	00H
	DD	00H
	DQ	0000000000000000H
	DQ	0000000000000000H
	DQ	FLAT:$SG190992
	DQ	0000000000000000H
	DD	0c7H
	DD	00H
	DD	00H
	DD	00H
	DQ	0000000000000000H
	DQ	0000000000000000H
	DQ	FLAT:$SG190993
	DQ	0000000000000000H
	DD	0c8H
	DD	00H
	DD	00H
	DD	00H
	DQ	0000000000000000H
	DQ	0000000000000000H
	DQ	FLAT:$SG190994
	DQ	0000000000000000H
	DD	0101H
	DD	020H
	DD	020H
	DD	00H
	DQ	0000000000000000H
	DQ	0000000000000000H
	DQ	FLAT:$SG190995
	DQ	0000000000000000H
	DD	0102H
	DD	020H
	DD	00H
	DD	00H
	DQ	0000000000000000H
	DQ	0000000000000000H
	DQ	FLAT:$SG190996
	DQ	0000000000000000H
	DD	0104H
	DD	020H
	DD	020H
	DD	00H
	DQ	0000000000000000H
	DQ	0000000000000000H
	DQ	FLAT:$SG190997
	DQ	0000000000000000H
	DD	0105H
	DD	020H
	DD	020H
	DD	020H
	DQ	0000000000000000H
	DQ	0000000000000000H
	DQ	FLAT:$SG190998
	DQ	0000000000000000H
	DD	0106H
	DD	020H
	DD	020H
	DD	00H
	DQ	0000000000000000H
	DQ	0000000000000000H
	DQ	FLAT:$SG190999
	DQ	0000000000000000H
	DD	0107H
	DD	020H
	DD	020H
	DD	00H
	DQ	0000000000000000H
	DQ	0000000000000000H
	DQ	FLAT:$SG191000
	DQ	0000000000000000H
	DD	0108H
	DD	020H
	DD	00H
	DD	00H
	DQ	0000000000000000H
	DQ	0000000000000000H
	DQ	FLAT:$SG191001
	DQ	0000000000000000H
	DD	0109H
	DD	020H
	DD	00H
	DD	00H
	DQ	0000000000000000H
	DQ	0000000000000000H
	DQ	FLAT:$SG191002
	DQ	0000000000000000H
	DD	010aH
	DD	020H
	DD	00H
	DD	00H
	DQ	0000000000000000H
	DQ	0000000000000000H
	DQ	FLAT:$SG191003
	DQ	0000000000000000H
	DD	010bH
	DD	020H
	DD	020H
	DD	00H
	DQ	0000000000000000H
	DQ	0000000000000000H
	DQ	FLAT:$SG191004
	DQ	0000000000000000H
	DD	010cH
	DD	020H
	DD	020H
	DD	00H
	DQ	0000000000000000H
	DQ	0000000000000000H
	DQ	FLAT:$SG191005
	DQ	0000000000000000H
	DD	010dH
	DD	020H
	DD	00H
	DD	00H
	DQ	0000000000000000H
	DQ	0000000000000000H
	DQ	FLAT:$SG191006
	DQ	0000000000000000H
	DD	010eH
	DD	020H
	DD	020H
	DD	00H
	DQ	0000000000000000H
	DQ	0000000000000000H
	DQ	FLAT:$SG191007
	DQ	0000000000000000H
	DD	010fH
	DD	020H
	DD	00H
	DD	00H
	DQ	0000000000000000H
	DQ	0000000000000000H
	DQ	FLAT:$SG191008
	DQ	0000000000000000H
	DD	0112H
	DD	020H
	DD	00H
	DD	00H
$SG190813 DB	'000_N3_INSTR', 00H
	ORG $+3
$SG190814 DB	'001_ZARCH_INSTALLED', 00H
	ORG $+4
$SG190815 DB	'002_ZARCH_ACTIVE', 00H
	ORG $+7
$SG190816 DB	'003_DAT_ENHANCE_1', 00H
	ORG $+6
$SG190817 DB	'006_ASN_LX_REUSE', 00H
	ORG $+7
$SG190818 DB	'007_STFL_EXTENDED', 00H
	ORG $+6
$SG190819 DB	'008_EDAT_1', 00H
	ORG $+5
$SG190820 DB	'009_SENSE_RUN_STATUS', 00H
	ORG $+3
$SG190821 DB	'010_CONDITIONAL_SSKE', 00H
	ORG $+3
$SG190822 DB	'011_CONFIG_TOPOLOGY', 00H
	ORG $+4
$SG190823 DB	'012_IBM_INTERNAL', 00H
	ORG $+7
$SG190824 DB	'013_IPTE_RANGE', 00H
	ORG $+1
$SG190825 DB	'014_NONQ_KEY_SET', 00H
	ORG $+7
$SG190826 DB	'015_IBM_INTERNAL', 00H
	ORG $+7
$SG190827 DB	'016_EXT_TRANSL_2', 00H
	ORG $+7
$SG190828 DB	'017_MSA', 00H
$SG190829 DB	'018_LONG_DISPL_INST', 00H
	ORG $+4
$SG190830 DB	'019_LONG_DISPL_HPERF', 00H
	ORG $+3
$SG190831 DB	'020_HFP_MULT_ADD_SUB', 00H
	ORG $+3
$SG190832 DB	'021_EXTENDED_IMMED', 00H
	ORG $+5
$SG190833 DB	'022_EXT_TRANSL_3', 00H
	ORG $+7
$SG190834 DB	'023_HFP_UNNORM_EXT', 00H
	ORG $+5
$SG190835 DB	'024_ETF2_ENHANCEMENT', 00H
	ORG $+3
$SG190836 DB	'025_STORE_CLOCK_FAST', 00H
	ORG $+3
$SG190837 DB	'026_PARSING_ENHANCE', 00H
	ORG $+4
$SG190838 DB	'027_MVCOS', 00H
	ORG $+6
$SG190839 DB	'028_TOD_CLOCK_STEER', 00H
	ORG $+4
$SG190840 DB	'029_UNDEFINED', 00H
	ORG $+2
$SG190841 DB	'030_ETF3_ENHANCEMENT', 00H
	ORG $+3
$SG190842 DB	'031_EXTRACT_CPU_TIME', 00H
	ORG $+3
$SG190843 DB	'032_CSSF', 00H
	ORG $+7
$SG190844 DB	'033_CSSF2', 00H
	ORG $+6
$SG190845 DB	'034_GEN_INST_EXTN', 00H
	ORG $+6
$SG190846 DB	'035_EXECUTE_EXTN', 00H
	ORG $+7
$SG190847 DB	'036_ENH_MONITOR', 00H
$SG190848 DB	'037_FP_EXTENSION', 00H
	ORG $+7
$SG190849 DB	'039_IBM_INTERNAL', 00H
	ORG $+7
$SG190850 DB	'040_LOAD_PROG_PARAM', 00H
	ORG $+4
$SG190851 DB	'041_FPS_ENHANCEMENT', 00H
	ORG $+4
$SG190852 DB	'041_DFP_ROUNDING', 00H
	ORG $+7
$SG190853 DB	'041_FPR_GR_TRANSFER', 00H
	ORG $+4
$SG190854 DB	'041_FPS_SIGN_HANDLING', 00H
	ORG $+2
$SG190855 DB	'041_IEEE_EXCEPT_SIM', 00H
	ORG $+4
$SG190856 DB	'042_DFP', 00H
$SG190857 DB	'043_DFP_HPERF', 00H
	ORG $+2
$SG190858 DB	'044_PFPO', 00H
	ORG $+7
$SG190859 DB	'045_DISTINCT_OPERANDS', 00H
	ORG $+2
$SG190860 DB	'045_FAST_BCR_SERIAL', 00H
	ORG $+4
$SG190861 DB	'045_HIGH_WORD', 00H
	ORG $+2
$SG190862 DB	'045_INTERLOCKED_ACCESS_1', 00H
	ORG $+7
$SG190863 DB	'045_LOAD_STORE_ON_COND_1', 00H
	ORG $+7
$SG190864 DB	'045_POPULATION_COUNT', 00H
	ORG $+3
$SG190865 DB	'046_IBM_INTERNAL', 00H
	ORG $+7
$SG190866 DB	'047_CMPSC_ENH', 00H
	ORG $+2
$SG190867 DB	'048_DFP_ZONE_CONV', 00H
	ORG $+6
$SG190868 DB	'049_EXECUTION_HINT', 00H
	ORG $+5
$SG190869 DB	'049_LOAD_AND_TRAP', 00H
	ORG $+6
$SG190870 DB	'049_PROCESSOR_ASSIST', 00H
	ORG $+3
$SG190871 DB	'049_MISC_INSTR_EXT_1', 00H
	ORG $+3
$SG190872 DB	'050_CONSTR_TRANSACT', 00H
	ORG $+4
$SG190873 DB	'051_LOCAL_TLB_CLEARING', 00H
	ORG $+1
$SG190874 DB	'052_INTERLOCKED_ACCESS_2', 00H
	ORG $+7
$SG190875 DB	'053_LOAD_STORE_ON_COND_2', 00H
	ORG $+7
$SG190876 DB	'053_LOAD_ZERO_RIGHTMOST', 00H
$SG190877 DB	'055_IBM_INTERNAL', 00H
	ORG $+7
$SG190878 DB	'056_UNDEFINED', 00H
	ORG $+2
$SG190879 DB	'058_MISC_INSTR_EXT_2', 00H
	ORG $+3
$SG190880 DB	'059_IBM_INTERNAL', 00H
	ORG $+7
$SG190881 DB	'060_IBM_INTERNAL', 00H
	ORG $+7
$SG190882 DB	'061_MISC_INSTR_EXT_3', 00H
	ORG $+3
$SG190883 DB	'062_IBM_INTERNAL', 00H
	ORG $+7
$SG190884 DB	'063_IBM_INTERNAL', 00H
	ORG $+7
$SG190885 DB	'064_IBM_INTERNAL', 00H
	ORG $+7
$SG190886 DB	'065_IBM_INTERNAL', 00H
	ORG $+7
$SG190887 DB	'066_RES_REF_BITS_MULT', 00H
	ORG $+2
$SG190888 DB	'069_IBM_INTERNAL', 00H
	ORG $+7
$SG190889 DB	'070_IBM_INTERNAL', 00H
	ORG $+7
$SG190890 DB	'071_IBM_INTERNAL', 00H
	ORG $+7
$SG190891 DB	'072_IBM_INTERNAL', 00H
	ORG $+7
$SG190892 DB	'073_TRANSACT_EXEC', 00H
	ORG $+6
$SG190893 DB	'074_STORE_HYPER_INFO', 00H
	ORG $+3
$SG190894 DB	'075_ACC_EX_FS_INDIC', 00H
	ORG $+4
$SG190895 DB	'076_MSA_EXTENSION_3', 00H
	ORG $+4
$SG190896 DB	'077_MSA_EXTENSION_4', 00H
	ORG $+4
$SG190897 DB	'079_UNDEFINED', 00H
	ORG $+2
$SG190898 DB	'080_DFP_PACK_CONV', 00H
	ORG $+6
$SG190899 DB	'081_PPA_IN_ORDER', 00H
	ORG $+7
$SG190900 DB	'082_IBM_INTERNAL', 00H
	ORG $+7
$SG190901 DB	'083_UNDEFINED', 00H
	ORG $+2
$SG190902 DB	'084_UNDEFINED', 00H
	ORG $+2
$SG190903 DB	'085_UNDEFINED', 00H
	ORG $+2
$SG190904 DB	'086_UNDEFINED', 00H
	ORG $+2
$SG190905 DB	'087_UNDEFINED', 00H
	ORG $+2
$SG190906 DB	'088_UNDEFINED', 00H
	ORG $+2
$SG190907 DB	'089_UNDEFINED', 00H
	ORG $+2
$SG190908 DB	'090_UNDEFINED', 00H
	ORG $+2
$SG190909 DB	'091_UNDEFINED', 00H
	ORG $+2
$SG190910 DB	'092_UNDEFINED', 00H
	ORG $+2
$SG190911 DB	'093_UNDEFINED', 00H
	ORG $+2
$SG190912 DB	'094_UNDEFINED', 00H
	ORG $+2
$SG190913 DB	'095_UNDEFINED', 00H
	ORG $+2
$SG190914 DB	'096_UNDEFINED', 00H
	ORG $+2
$SG190915 DB	'097_UNDEFINED', 00H
	ORG $+2
$SG190916 DB	'098_UNDEFINED', 00H
	ORG $+2
$SG190917 DB	'099_UNDEFINED', 00H
	ORG $+2
$SG190918 DB	'100_UNDEFINED', 00H
	ORG $+2
$SG190919 DB	'101_UNDEFINED', 00H
	ORG $+2
$SG190920 DB	'102_UNDEFINED', 00H
	ORG $+2
$SG190921 DB	'103_UNDEFINED', 00H
	ORG $+2
$SG190922 DB	'104_UNDEFINED', 00H
	ORG $+2
$SG190923 DB	'105_UNDEFINED', 00H
	ORG $+2
$SG190924 DB	'106_UNDEFINED', 00H
	ORG $+2
$SG190925 DB	'107_UNDEFINED', 00H
	ORG $+2
$SG190926 DB	'108_UNDEFINED', 00H
	ORG $+2
$SG190927 DB	'109_UNDEFINED', 00H
	ORG $+2
$SG190928 DB	'110_UNDEFINED', 00H
	ORG $+2
$SG190929 DB	'111_UNDEFINED', 00H
	ORG $+2
$SG190930 DB	'112_UNDEFINED', 00H
	ORG $+2
$SG190931 DB	'113_UNDEFINED', 00H
	ORG $+2
$SG190932 DB	'114_UNDEFINED', 00H
	ORG $+2
$SG190933 DB	'115_UNDEFINED', 00H
	ORG $+2
$SG190934 DB	'116_UNDEFINED', 00H
	ORG $+2
$SG190935 DB	'117_UNDEFINED', 00H
	ORG $+2
$SG190936 DB	'118_UNDEFINED', 00H
	ORG $+2
$SG190937 DB	'119_UNDEFINED', 00H
	ORG $+2
$SG190938 DB	'120_UNDEFINED', 00H
	ORG $+2
$SG190939 DB	'121_UNDEFINED', 00H
	ORG $+2
$SG190940 DB	'122_UNDEFINED', 00H
	ORG $+2
$SG190941 DB	'123_UNDEFINED', 00H
	ORG $+2
$SG190942 DB	'124_UNDEFINED', 00H
	ORG $+2
$SG190943 DB	'125_UNDEFINED', 00H
	ORG $+2
$SG190944 DB	'126_UNDEFINED', 00H
	ORG $+2
$SG190945 DB	'127_UNDEFINED', 00H
	ORG $+2
$SG190946 DB	'128_IBM_INTERNAL', 00H
	ORG $+7
$SG190947 DB	'129_ZVECTOR', 00H
	ORG $+4
$SG190948 DB	'132_UNDEFINED', 00H
	ORG $+2
$SG190949 DB	'136_UNDEFINED', 00H
	ORG $+2
$SG190950 DB	'137_UNDEFINED', 00H
	ORG $+2
$SG190951 DB	'140_IBM_INTERNAL', 00H
	ORG $+7
$SG190952 DB	'141_IBM_INTERNAL', 00H
	ORG $+7
$SG190953 DB	'143_UNDEFINED', 00H
	ORG $+2
$SG190954 DB	'145_INS_REF_BITS_MULT', 00H
	ORG $+2
$SG190955 DB	'147_IBM_RESERVED', 00H
	ORG $+7
$SG190956 DB	'153_IBM_INTERNAL', 00H
	ORG $+7
$SG190957 DB	'154_UNDEFINED', 00H
	ORG $+2
$SG190958 DB	'156_IBM_INTERNAL', 00H
	ORG $+7
$SG190959 DB	'157_UNDEFINED', 00H
	ORG $+2
$SG190960 DB	'159_UNDEFINED', 00H
	ORG $+2
$SG190961 DB	'160_UNDEFINED', 00H
	ORG $+2
$SG190962 DB	'162_UNDEFINED', 00H
	ORG $+2
$SG190963 DB	'163_UNDEFINED', 00H
	ORG $+2
$SG190964 DB	'164_UNDEFINED', 00H
	ORG $+2
$SG190965 DB	'166_UNDEFINED', 00H
	ORG $+2
$SG190966 DB	'167_UNDEFINED', 00H
	ORG $+2
$SG190967 DB	'170_UNDEFINED', 00H
	ORG $+2
$SG190968 DB	'171_UNDEFINED', 00H
	ORG $+2
$SG190969 DB	'172_UNDEFINED', 00H
	ORG $+2
$SG190970 DB	'173_UNDEFINED', 00H
	ORG $+2
$SG190971 DB	'174_UNDEFINED', 00H
	ORG $+2
$SG190972 DB	'175_UNDEFINED', 00H
	ORG $+2
$SG190973 DB	'176_UNDEFINED', 00H
	ORG $+2
$SG190974 DB	'177_UNDEFINED', 00H
	ORG $+2
$SG190975 DB	'178_UNDEFINED', 00H
	ORG $+2
$SG190976 DB	'179_UNDEFINED', 00H
	ORG $+2
$SG190977 DB	'180_UNDEFINED', 00H
	ORG $+2
$SG190978 DB	'181_UNDEFINED', 00H
	ORG $+2
$SG190979 DB	'182_UNDEFINED', 00H
	ORG $+2
$SG190980 DB	'183_UNDEFINED', 00H
	ORG $+2
$SG190981 DB	'184_UNDEFINED', 00H
	ORG $+2
$SG190982 DB	'185_UNDEFINED', 00H
	ORG $+2
$SG190983 DB	'186_UNDEFINED', 00H
	ORG $+2
$SG190984 DB	'187_UNDEFINED', 00H
	ORG $+2
$SG190985 DB	'188_UNDEFINED', 00H
	ORG $+2
$SG190986 DB	'189_UNDEFINED', 00H
	ORG $+2
$SG190987 DB	'190_UNDEFINED', 00H
	ORG $+2
$SG190988 DB	'191_UNDEFINED', 00H
	ORG $+2
$SG190989 DB	'193_BEAR_ENH', 00H
	ORG $+3
$SG190990 DB	'195_UNDEFINED', 00H
	ORG $+2
$SG190991 DB	'198_UNDEFINED', 00H
	ORG $+2
$SG190992 DB	'199_UNDEFINED', 00H
	ORG $+2
$SG190993 DB	'200_UNDEFINED', 00H
	ORG $+2
$SG190994 DB	'HERC_DETECT_PGMINTLOOP', 00H
	ORG $+1
$SG190995 DB	'HERC_HOST_RESOURCE_ACCESS', 00H
	ORG $+6
$SG190996 DB	'HERC_LOGICAL_PARTITION', 00H
	ORG $+1
$SG190997 DB	'HERC_MOVE_INVERSE', 00H
	ORG $+6
$SG190998 DB	'HERC_MSA_EXTENSION_1', 00H
	ORG $+3
$SG190999 DB	'HERC_MSA_EXTENSION_2', 00H
	ORG $+3
$SG191000 DB	'HERC_PROBSTATE_DIAGF08', 00H
	ORG $+1
$SG191001 DB	'HERC_QDIO_ASSIST', 00H
	ORG $+7
$SG191002 DB	'HERC_QDIO_TDD', 00H
	ORG $+2
$SG191003 DB	'HERC_QDIO_THININT', 00H
	ORG $+6
$SG191004 DB	'HERC_QEBSM', 00H
	ORG $+5
$SG191005 DB	'HERC_SIGP_SETARCH_S370', 00H
	ORG $+1
$SG191006 DB	'HERC_SVS', 00H
	ORG $+7
$SG191007 DB	'HERC_VIRTUAL_MACHINE', 00H
	ORG $+3
$SG191008 DB	'HERC_ZVM_ESSA', 00H
	ORG $+2
$SG192546 DB	'000_N3_INSTR', 00H
	ORG $+3
$SG192547 DB	'N3 Instructions are installed', 00H
	ORG $+2
$SG192548 DB	'001_ZARCH_INSTALLED', 00H
	ORG $+4
$SG192549 DB	'z/Architecture architectural mode is installed', 00H
	ORG $+1
$SG192550 DB	'002_ZARCH_ACTIVE', 00H
	ORG $+7
$SG192551 DB	'z/Architecture architectural mode is active', 00H
	ORG $+4
$SG192552 DB	'003_DAT_ENHANCE_1', 00H
	ORG $+6
$SG192553 DB	'DAT-Enhancement Facility 1', 00H
	ORG $+5
$SG192554 DB	'004_IDTE_SC_SEGTAB', 00H
	ORG $+5
$SG192555 DB	'IDTE selective clearing when segment-table invalidated', 00H
	ORG $+1
$SG192556 DB	'005_IDTE_SC_REGTAB', 00H
	ORG $+5
$SG192557 DB	'IDTE selective clearing when region-table invalidated', 00H
	ORG $+2
$SG192558 DB	'006_ASN_LX_REUSE', 00H
	ORG $+7
$SG192559 DB	'ASN-and-LX-Reuse Facility', 00H
	ORG $+6
$SG192560 DB	'007_STFL_EXTENDED', 00H
	ORG $+6
$SG192561 DB	'Store-Facility-List-Extended Facility', 00H
	ORG $+2
$SG192562 DB	'008_EDAT_1', 00H
	ORG $+5
$SG192563 DB	'Enhanced-DAT Facility 1', 00H
$SG192564 DB	'009_SENSE_RUN_STATUS', 00H
	ORG $+3
$SG192565 DB	'Sense-Running-Status Facility', 00H
	ORG $+2
$SG192566 DB	'010_CONDITIONAL_SSKE', 00H
	ORG $+3
$SG192567 DB	'Conditional-SSKE Facility', 00H
	ORG $+6
$SG192568 DB	'011_CONFIG_TOPOLOGY', 00H
	ORG $+4
$SG192569 DB	'Configuration-Topology Facility', 00H
$SG192570 DB	'012_IBM_INTERNAL', 00H
	ORG $+7
$SG192571 DB	'Assigned to IBM internal use', 00H
	ORG $+3
$SG192572 DB	'013_IPTE_RANGE', 00H
	ORG $+1
$SG192573 DB	'IPTE-Range Facility', 00H
	ORG $+4
$SG192574 DB	'014_NONQ_KEY_SET', 00H
	ORG $+7
$SG192575 DB	'Nonquiescing Key-Setting Facility', 00H
	ORG $+6
$SG192576 DB	'015_IBM_INTERNAL', 00H
	ORG $+7
$SG192577 DB	'Assigned to IBM internal use', 00H
	ORG $+3
$SG192578 DB	'016_EXT_TRANSL_2', 00H
	ORG $+7
$SG192579 DB	'Extended-Translation Facility 2', 00H
$SG192580 DB	'017_MSA', 00H
$SG192581 DB	'Message-Security Assist', 00H
$SG192582 DB	'018_LONG_DISPL_INST', 00H
	ORG $+4
$SG192583 DB	'Long-Displacement Facility', 00H
	ORG $+5
$SG192584 DB	'019_LONG_DISPL_HPERF', 00H
	ORG $+3
$SG192585 DB	'Long-Displacement Facility Has High Performance', 00H
$SG192586 DB	'020_HFP_MULT_ADD_SUB', 00H
	ORG $+3
$SG192587 DB	'HFP-Multiply-and-Add/Subtract Facility', 00H
	ORG $+1
$SG192588 DB	'021_EXTENDED_IMMED', 00H
	ORG $+5
$SG192589 DB	'Extended-Immediate Facility', 00H
	ORG $+4
$SG192590 DB	'022_EXT_TRANSL_3', 00H
	ORG $+7
$SG192591 DB	'Extended-Translation Facility 3', 00H
$SG192592 DB	'023_HFP_UNNORM_EXT', 00H
	ORG $+5
$SG192593 DB	'HFP-Unnormalized-Extensions Facility', 00H
	ORG $+3
$SG192594 DB	'024_ETF2_ENHANCEMENT', 00H
	ORG $+3
$SG192595 DB	'ETF2-Enhancement Facility', 00H
	ORG $+6
$SG192596 DB	'025_STORE_CLOCK_FAST', 00H
	ORG $+3
$SG192597 DB	'Store-Clock-Fast Facility', 00H
	ORG $+6
$SG192598 DB	'026_PARSING_ENHANCE', 00H
	ORG $+4
$SG192599 DB	'Parsing-Enhancement Facility', 00H
	ORG $+3
$SG192600 DB	'027_MVCOS', 00H
	ORG $+6
$SG192601 DB	'Move-with-Optional-Specifications Facility', 00H
	ORG $+5
$SG192602 DB	'028_TOD_CLOCK_STEER', 00H
	ORG $+4
$SG192603 DB	'TOD-Clock-Steering Facility', 00H
	ORG $+4
$SG192604 DB	'029_UNDEFINED', 00H
	ORG $+2
$SG192605 DB	'Undefined', 00H
	ORG $+6
$SG192606 DB	'030_ETF3_ENHANCEMENT', 00H
	ORG $+3
$SG192607 DB	'ETF3-Enhancement Facility', 00H
	ORG $+6
$SG192608 DB	'031_EXTRACT_CPU_TIME', 00H
	ORG $+3
$SG192609 DB	'Extract-CPU-Time Facility', 00H
	ORG $+6
$SG192610 DB	'032_CSSF', 00H
	ORG $+7
$SG192611 DB	'Compare-and-Swap-and-Store Facility 1', 00H
	ORG $+2
$SG192612 DB	'033_CSSF2', 00H
	ORG $+6
$SG192613 DB	'Compare-and-Swap-and-Store Facility 2', 00H
	ORG $+2
$SG192614 DB	'034_GEN_INST_EXTN', 00H
	ORG $+6
$SG192615 DB	'General-Instructions-Extension Facility', 00H
$SG192616 DB	'035_EXECUTE_EXTN', 00H
	ORG $+7
$SG192617 DB	'Execute-Extensions Facility', 00H
	ORG $+4
$SG192618 DB	'036_ENH_MONITOR', 00H
$SG192619 DB	'Enhanced-Monitor Facility', 00H
	ORG $+6
$SG192620 DB	'037_FP_EXTENSION', 00H
	ORG $+7
$SG192621 DB	'Floating-Point-Extension Facility', 00H
	ORG $+6
$SG192622 DB	'038_OP_CMPSC', 00H
	ORG $+3
$SG192623 DB	'Order-Preserving-Compression Facility', 00H
	ORG $+2
$SG192624 DB	'039_IBM_INTERNAL', 00H
	ORG $+7
$SG192625 DB	'Assigned to IBM internal use', 00H
	ORG $+3
$SG192626 DB	'040_LOAD_PROG_PARAM', 00H
	ORG $+4
$SG192627 DB	'Load-Program-Parameter Facility', 00H
$SG192628 DB	'041_FPS_ENHANCEMENT', 00H
	ORG $+4
$SG192629 DB	'Floating-Point-Support-Enhancement Facility', 00H
	ORG $+4
$SG192630 DB	'041_DFP_ROUNDING', 00H
	ORG $+7
$SG192631 DB	'Decimal-Floating-Point-Rounding Facility', 00H
	ORG $+7
$SG192632 DB	'041_FPR_GR_TRANSFER', 00H
	ORG $+4
$SG192633 DB	'FPR-GR-Transfer Facility', 00H
	ORG $+7
$SG192634 DB	'041_FPS_SIGN_HANDLING', 00H
	ORG $+2
$SG192635 DB	'Floating-Point-Support-Sign-Handling Facility', 00H
	ORG $+2
$SG192636 DB	'041_IEEE_EXCEPT_SIM', 00H
	ORG $+4
$SG192637 DB	'IEEE-Exception-Simulation Facility', 00H
	ORG $+5
$SG192638 DB	'042_DFP', 00H
$SG192639 DB	'Decimal-Floating-Point Facility', 00H
$SG192640 DB	'043_DFP_HPERF', 00H
	ORG $+2
$SG192641 DB	'Decimal-Floating-Point Facility Has High Performance', 00H
	ORG $+3
$SG192642 DB	'044_PFPO', 00H
	ORG $+7
$SG192643 DB	'PFPO (Perform Floating-Point Operation) Facility', 00H
	ORG $+7
$SG192644 DB	'045_DISTINCT_OPERANDS', 00H
	ORG $+2
$SG192645 DB	'Distinct-Operands Facility', 00H
	ORG $+5
$SG192646 DB	'045_FAST_BCR_SERIAL', 00H
	ORG $+4
$SG192647 DB	'Fast-BCR-Serialization Facility', 00H
$SG192648 DB	'045_HIGH_WORD', 00H
	ORG $+2
$SG192649 DB	'High-Word Facility', 00H
	ORG $+5
$SG192650 DB	'045_INTERLOCKED_ACCESS_1', 00H
	ORG $+7
$SG192651 DB	'Interlocked-Access Facility 1', 00H
	ORG $+2
$SG192652 DB	'045_LOAD_STORE_ON_COND_1', 00H
	ORG $+7
$SG192653 DB	'Load/Store-on-Condition Facility 1', 00H
	ORG $+5
$SG192654 DB	'045_POPULATION_COUNT', 00H
	ORG $+3
$SG192655 DB	'Population-Count Facility', 00H
	ORG $+6
$SG192656 DB	'046_IBM_INTERNAL', 00H
	ORG $+7
$SG192657 DB	'Assigned to IBM internal use', 00H
	ORG $+3
$SG192658 DB	'047_CMPSC_ENH', 00H
	ORG $+2
$SG192659 DB	'CMPSC-Enhancement Facility', 00H
	ORG $+5
$SG192660 DB	'048_DFP_ZONE_CONV', 00H
	ORG $+6
$SG192661 DB	'Decimal-Floating-Point-Zoned-Conversion Facility', 00H
	ORG $+7
$SG192662 DB	'049_EXECUTION_HINT', 00H
	ORG $+5
$SG192663 DB	'Execution-Hint Facility', 00H
$SG192664 DB	'049_LOAD_AND_TRAP', 00H
	ORG $+6
$SG192665 DB	'Load-and-Trap Facility', 00H
	ORG $+1
$SG192666 DB	'049_PROCESSOR_ASSIST', 00H
	ORG $+3
$SG192667 DB	'Processor-Assist Facility', 00H
	ORG $+6
$SG192668 DB	'049_MISC_INSTR_EXT_1', 00H
	ORG $+3
$SG192669 DB	'Miscellaneous-Instruction-Extensions Facility 1', 00H
$SG192670 DB	'050_CONSTR_TRANSACT', 00H
	ORG $+4
$SG192671 DB	'Constrained-Transactional-Execution Facility', 00H
	ORG $+3
$SG192672 DB	'051_LOCAL_TLB_CLEARING', 00H
	ORG $+1
$SG192673 DB	'Local-TLB-Clearing Facility', 00H
	ORG $+4
$SG192674 DB	'052_INTERLOCKED_ACCESS_2', 00H
	ORG $+7
$SG192675 DB	'Interlocked-Access Facility 2', 00H
	ORG $+2
$SG192676 DB	'053_LOAD_STORE_ON_COND_2', 00H
	ORG $+7
$SG192677 DB	'Load/Store-on-Condition Facility 2', 00H
	ORG $+5
$SG192678 DB	'053_LOAD_ZERO_RIGHTMOST', 00H
$SG192679 DB	'Load-and-Zero-Rightmost-Byte Facility', 00H
	ORG $+2
$SG192680 DB	'054_EE_CMPSC', 00H
	ORG $+3
$SG192681 DB	'Entropy-Encoding-Compression Facility', 00H
	ORG $+2
$SG192682 DB	'055_IBM_INTERNAL', 00H
	ORG $+7
$SG192683 DB	'Assigned to IBM internal use', 00H
	ORG $+3
$SG192684 DB	'056_UNDEFINED', 00H
	ORG $+2
$SG192685 DB	'Undefined', 00H
	ORG $+6
$SG192686 DB	'057_MSA_EXTENSION_5', 00H
	ORG $+4
$SG192687 DB	'Message-Security-Assist Extension 5', 00H
	ORG $+4
$SG192688 DB	'058_MISC_INSTR_EXT_2', 00H
	ORG $+3
$SG192689 DB	'Miscellaneous-Instruction-Extensions Facility 2', 00H
$SG192690 DB	'059_IBM_INTERNAL', 00H
	ORG $+7
$SG192691 DB	'Assigned to IBM internal use', 00H
	ORG $+3
$SG192692 DB	'060_IBM_INTERNAL', 00H
	ORG $+7
s370_facs_tab DQ 0000000000000000H
	DQ	0000000000000000H
	DQ	FLAT:$SG168651
	DQ	0000000000000000H
	DD	00H
	DD	080H
	DD	00H
	DD	00H
	DQ	0000000000000000H
	DQ	0000000000000000H
	DQ	FLAT:$SG168652
	DQ	0000000000000000H
	DD	01H
	DD	060H
	DD	060H
	DD	060H
	DQ	0000000000000000H
	DQ	0000000000000000H
	DQ	FLAT:$SG168653
	DQ	0000000000000000H
	DD	0cH
	DD	00H
	DD	00H
	DD	00H
	DQ	0000000000000000H
	DQ	0000000000000000H
	DQ	FLAT:$SG168654
	DQ	0000000000000000H
	DD	0fH
	DD	00H
	DD	00H
	DD	00H
	DQ	0000000000000000H
	DQ	0000000000000000H
	DQ	FLAT:$SG168655
	DQ	0000000000000000H
	DD	010H
	DD	080H
	DD	00H
	DD	00H
	DQ	0000000000000000H
	DQ	0000000000000000H
	DQ	FLAT:$SG168656
	DQ	0000000000000000H
	DD	011H
	DD	080H
	DD	00H
	DD	00H
	DQ	0000000000000000H
	DQ	0000000000000000H
	DQ	FLAT:$SG168657
	DQ	0000000000000000H
	DD	012H
	DD	080H
	DD	00H
	DD	00H
	DQ	0000000000000000H
	DQ	0000000000000000H
	DQ	FLAT:$SG168658
	DQ	0000000000000000H
	DD	014H
	DD	080H
	DD	00H
	DD	00H
	DQ	0000000000000000H
	DQ	0000000000000000H
	DQ	FLAT:$SG168659
	DQ	0000000000000000H
	DD	015H
	DD	080H
	DD	00H
	DD	00H
	DQ	0000000000000000H
	DQ	0000000000000000H
	DQ	FLAT:$SG168660
	DQ	0000000000000000H
	DD	016H
	DD	080H
	DD	00H
	DD	00H
	DQ	0000000000000000H
	DQ	0000000000000000H
	DQ	FLAT:$SG168661
	DQ	0000000000000000H
	DD	017H
	DD	080H
	DD	00H
	DD	00H
	DQ	0000000000000000H
	DQ	0000000000000000H
	DQ	FLAT:$SG168662
	DQ	0000000000000000H
	DD	018H
	DD	00H
	DD	00H
	DD	00H
	DQ	0000000000000000H
	DQ	0000000000000000H
	DQ	FLAT:$SG168663
	DQ	0000000000000000H
	DD	01aH
	DD	080H
	DD	00H
	DD	00H
	DQ	0000000000000000H
	DQ	0000000000000000H
	DQ	FLAT:$SG168664
	DQ	0000000000000000H
	DD	01dH
	DD	00H
	DD	00H
	DD	00H
	DQ	0000000000000000H
	DQ	0000000000000000H
	DQ	FLAT:$SG168665
	DQ	0000000000000000H
	DD	01eH
	DD	00H
	DD	00H
	DD	00H
	DQ	0000000000000000H
	DQ	0000000000000000H
	DQ	FLAT:$SG168666
	DQ	0000000000000000H
	DD	020H
	DD	080H
	DD	00H
	DD	00H
	DQ	0000000000000000H
	DQ	0000000000000000H
	DQ	FLAT:$SG168667
	DQ	0000000000000000H
	DD	022H
	DD	080H
	DD	00H
	DD	00H
	DQ	0000000000000000H
	DQ	0000000000000000H
	DQ	FLAT:$SG168668
	DQ	0000000000000000H
	DD	023H
	DD	080H
	DD	00H
	DD	00H
	DQ	0000000000000000H
	DQ	0000000000000000H
	DQ	FLAT:$SG168669
	DQ	0000000000000000H
	DD	025H
	DD	080H
	DD	00H
	DD	00H
	DQ	0000000000000000H
	DQ	0000000000000000H
	DQ	FLAT:$SG168670
	DQ	0000000000000000H
	DD	027H
	DD	00H
	DD	00H
	DD	00H
	DQ	0000000000000000H
	DQ	0000000000000000H
	DQ	FLAT:$SG168671
	DQ	0000000000000000H
	DD	029H
	DD	080H
	DD	00H
	DD	00H
	DQ	0000000000000000H
	DQ	0000000000000000H
	DQ	FLAT:$SG168672
	DQ	0000000000000000H
	DD	029H
	DD	080H
	DD	00H
	DD	00H
	DQ	0000000000000000H
	DQ	0000000000000000H
	DQ	FLAT:$SG168673
	DQ	0000000000000000H
	DD	029H
	DD	080H
	DD	00H
	DD	00H
	DQ	0000000000000000H
	DQ	0000000000000000H
	DQ	FLAT:$SG168674
	DQ	0000000000000000H
	DD	029H
	DD	080H
	DD	00H
	DD	00H
	DQ	0000000000000000H
	DQ	0000000000000000H
	DQ	FLAT:$SG168675
	DQ	0000000000000000H
	DD	029H
	DD	080H
	DD	00H
	DD	00H
	DQ	0000000000000000H
	DQ	0000000000000000H
	DQ	FLAT:$SG168676
	DQ	0000000000000000H
	DD	02aH
	DD	080H
	DD	00H
	DD	00H
	DQ	0000000000000000H
	DQ	0000000000000000H
	DQ	FLAT:$SG168677
	DQ	0000000000000000H
	DD	02dH
	DD	080H
	DD	00H
	DD	00H
	DQ	0000000000000000H
	DQ	0000000000000000H
	DQ	FLAT:$SG168678
	DQ	0000000000000000H
	DD	02dH
	DD	080H
	DD	00H
	DD	00H
	DQ	0000000000000000H
	DQ	0000000000000000H
	DQ	FLAT:$SG168679
	DQ	0000000000000000H
	DD	02dH
	DD	080H
	DD	00H
	DD	00H
	DQ	0000000000000000H
	DQ	0000000000000000H
	DQ	FLAT:$SG168680
	DQ	0000000000000000H
	DD	02dH
	DD	080H
	DD	00H
	DD	00H
	DQ	0000000000000000H
	DQ	0000000000000000H
	DQ	FLAT:$SG168681
	DQ	0000000000000000H
	DD	02dH
	DD	080H
	DD	00H
	DD	00H
	DQ	0000000000000000H
	DQ	0000000000000000H
	DQ	FLAT:$SG168682
	DQ	0000000000000000H
	DD	02dH
	DD	080H
	DD	00H
	DD	00H
	DQ	0000000000000000H
	DQ	0000000000000000H
	DQ	FLAT:$SG168683
	DQ	0000000000000000H
	DD	02eH
	DD	00H
	DD	00H
	DD	00H
	DQ	0000000000000000H
	DQ	0000000000000000H
	DQ	FLAT:$SG168684
	DQ	0000000000000000H
	DD	037H
	DD	00H
	DD	00H
	DD	00H
	DQ	0000000000000000H
	DQ	0000000000000000H
	DQ	FLAT:$SG168685
	DQ	0000000000000000H
	DD	038H
	DD	00H
	DD	00H
	DD	00H
	DQ	0000000000000000H
	DQ	0000000000000000H
	DQ	FLAT:$SG168686
	DQ	0000000000000000H
	DD	03bH
	DD	00H
	DD	00H
	DD	00H
	DQ	0000000000000000H
	DQ	0000000000000000H
	DQ	FLAT:$SG168687
	DQ	0000000000000000H
	DD	03cH
	DD	00H
	DD	00H
	DD	00H
	DQ	0000000000000000H
	DQ	0000000000000000H
	DQ	FLAT:$SG168688
	DQ	0000000000000000H
	DD	03eH
	DD	00H
	DD	00H
	DD	00H
	DQ	0000000000000000H
	DQ	0000000000000000H
	DQ	FLAT:$SG168689
	DQ	0000000000000000H
	DD	03fH
	DD	00H
	DD	00H
	DD	00H
	DQ	0000000000000000H
	DQ	0000000000000000H
	DQ	FLAT:$SG168690
	DQ	0000000000000000H
	DD	040H
	DD	00H
	DD	00H
	DD	00H
	DQ	0000000000000000H
	DQ	0000000000000000H
	DQ	FLAT:$SG168691
	DQ	0000000000000000H
	DD	041H
	DD	00H
	DD	00H
	DD	00H
	DQ	0000000000000000H
	DQ	0000000000000000H
	DQ	FLAT:$SG168692
	DQ	0000000000000000H
	DD	045H
	DD	00H
	DD	00H
	DD	00H
	DQ	0000000000000000H
	DQ	0000000000000000H
	DQ	FLAT:$SG168693
	DQ	0000000000000000H
	DD	046H
	DD	00H
	DD	00H
	DD	00H
	DQ	0000000000000000H
	DQ	0000000000000000H
	DQ	FLAT:$SG168694
	DQ	0000000000000000H
	DD	047H
	DD	00H
	DD	00H
	DD	00H
	DQ	0000000000000000H
	DQ	0000000000000000H
	DQ	FLAT:$SG168695
	DQ	0000000000000000H
	DD	048H
	DD	00H
	DD	00H
	DD	00H
	DQ	0000000000000000H
	DQ	0000000000000000H
	DQ	FLAT:$SG168696
	DQ	0000000000000000H
	DD	04cH
	DD	080H
	DD	00H
	DD	00H
	DQ	0000000000000000H
	DQ	0000000000000000H
	DQ	FLAT:$SG168697
	DQ	0000000000000000H
	DD	04dH
	DD	080H
	DD	00H
	DD	00H
	DQ	0000000000000000H
	DQ	0000000000000000H
	DQ	FLAT:$SG168698
	DQ	0000000000000000H
	DD	04fH
	DD	00H
	DD	00H
	DD	00H
	DQ	0000000000000000H
	DQ	0000000000000000H
	DQ	FLAT:$SG168699
	DQ	0000000000000000H
	DD	052H
	DD	00H
	DD	00H
	DD	00H
	DQ	0000000000000000H
	DQ	0000000000000000H
	DQ	FLAT:$SG168700
	DQ	0000000000000000H
	DD	053H
	DD	00H
	DD	00H
	DD	00H
	DQ	0000000000000000H
	DQ	0000000000000000H
	DQ	FLAT:$SG168701
	DQ	0000000000000000H
	DD	054H
	DD	00H
	DD	00H
	DD	00H
	DQ	0000000000000000H
	DQ	0000000000000000H
	DQ	FLAT:$SG168702
	DQ	0000000000000000H
	DD	055H
	DD	00H
	DD	00H
	DD	00H
	DQ	0000000000000000H
	DQ	0000000000000000H
	DQ	FLAT:$SG168703
	DQ	0000000000000000H
	DD	056H
	DD	00H
	DD	00H
	DD	00H
	DQ	0000000000000000H
	DQ	0000000000000000H
	DQ	FLAT:$SG168704
	DQ	0000000000000000H
	DD	057H
	DD	00H
	DD	00H
	DD	00H
	DQ	0000000000000000H
	DQ	0000000000000000H
	DQ	FLAT:$SG168705
	DQ	0000000000000000H
	DD	058H
	DD	00H
	DD	00H
	DD	00H
	DQ	0000000000000000H
	DQ	0000000000000000H
	DQ	FLAT:$SG168706
	DQ	0000000000000000H
	DD	059H
	DD	00H
	DD	00H
	DD	00H
	DQ	0000000000000000H
	DQ	0000000000000000H
	DQ	FLAT:$SG168707
	DQ	0000000000000000H
	DD	05aH
	DD	00H
	DD	00H
	DD	00H
	DQ	0000000000000000H
	DQ	0000000000000000H
	DQ	FLAT:$SG168708
	DQ	0000000000000000H
	DD	05bH
	DD	00H
	DD	00H
	DD	00H
	DQ	0000000000000000H
	DQ	0000000000000000H
	DQ	FLAT:$SG168709
	DQ	0000000000000000H
	DD	05cH
	DD	00H
	DD	00H
	DD	00H
	DQ	0000000000000000H
	DQ	0000000000000000H
	DQ	FLAT:$SG168710
	DQ	0000000000000000H
	DD	05dH
	DD	00H
	DD	00H
	DD	00H
	DQ	0000000000000000H
	DQ	0000000000000000H
	DQ	FLAT:$SG168711
	DQ	0000000000000000H
	DD	05eH
	DD	00H
	DD	00H
	DD	00H
	DQ	0000000000000000H
	DQ	0000000000000000H
	DQ	FLAT:$SG168712
	DQ	0000000000000000H
	DD	05fH
	DD	00H
	DD	00H
	DD	00H
	DQ	0000000000000000H
	DQ	0000000000000000H
	DQ	FLAT:$SG168713
	DQ	0000000000000000H
	DD	060H
	DD	00H
	DD	00H
	DD	00H
	DQ	0000000000000000H
	DQ	0000000000000000H
	DQ	FLAT:$SG168714
	DQ	0000000000000000H
	DD	061H
	DD	00H
	DD	00H
	DD	00H
	DQ	0000000000000000H
	DQ	0000000000000000H
	DQ	FLAT:$SG168715
	DQ	0000000000000000H
	DD	062H
	DD	00H
	DD	00H
	DD	00H
	DQ	0000000000000000H
	DQ	0000000000000000H
	DQ	FLAT:$SG168716
	DQ	0000000000000000H
	DD	063H
	DD	00H
	DD	00H
	DD	00H
	DQ	0000000000000000H
	DQ	0000000000000000H
	DQ	FLAT:$SG168717
	DQ	0000000000000000H
	DD	064H
	DD	00H
	DD	00H
	DD	00H
	DQ	0000000000000000H
	DQ	0000000000000000H
	DQ	FLAT:$SG168718
	DQ	0000000000000000H
	DD	065H
	DD	00H
	DD	00H
	DD	00H
	DQ	0000000000000000H
	DQ	0000000000000000H
	DQ	FLAT:$SG168719
	DQ	0000000000000000H
	DD	066H
	DD	00H
	DD	00H
	DD	00H
	DQ	0000000000000000H
	DQ	0000000000000000H
	DQ	FLAT:$SG168720
	DQ	0000000000000000H
	DD	067H
	DD	00H
	DD	00H
	DD	00H
	DQ	0000000000000000H
	DQ	0000000000000000H
	DQ	FLAT:$SG168721
	DQ	0000000000000000H
	DD	068H
	DD	00H
	DD	00H
	DD	00H
	DQ	0000000000000000H
	DQ	0000000000000000H
	DQ	FLAT:$SG168722
	DQ	0000000000000000H
	DD	069H
	DD	00H
	DD	00H
	DD	00H
	DQ	0000000000000000H
	DQ	0000000000000000H
	DQ	FLAT:$SG168723
	DQ	0000000000000000H
	DD	06aH
	DD	00H
	DD	00H
	DD	00H
	DQ	0000000000000000H
	DQ	0000000000000000H
	DQ	FLAT:$SG168724
	DQ	0000000000000000H
	DD	06bH
	DD	00H
	DD	00H
	DD	00H
	DQ	0000000000000000H
	DQ	0000000000000000H
	DQ	FLAT:$SG168725
	DQ	0000000000000000H
	DD	06cH
	DD	00H
	DD	00H
	DD	00H
	DQ	0000000000000000H
	DQ	0000000000000000H
	DQ	FLAT:$SG168726
	DQ	0000000000000000H
	DD	06dH
	DD	00H
	DD	00H
	DD	00H
	DQ	0000000000000000H
	DQ	0000000000000000H
	DQ	FLAT:$SG168727
	DQ	0000000000000000H
	DD	06eH
	DD	00H
	DD	00H
	DD	00H
	DQ	0000000000000000H
	DQ	0000000000000000H
	DQ	FLAT:$SG168728
	DQ	0000000000000000H
	DD	06fH
	DD	00H
	DD	00H
	DD	00H
	DQ	0000000000000000H
	DQ	0000000000000000H
	DQ	FLAT:$SG168729
	DQ	0000000000000000H
	DD	070H
	DD	00H
	DD	00H
	DD	00H
	DQ	0000000000000000H
	DQ	0000000000000000H
	DQ	FLAT:$SG168730
	DQ	0000000000000000H
	DD	071H
	DD	00H
	DD	00H
	DD	00H
	DQ	0000000000000000H
	DQ	0000000000000000H
	DQ	FLAT:$SG168731
	DQ	0000000000000000H
	DD	072H
	DD	00H
	DD	00H
	DD	00H
	DQ	0000000000000000H
	DQ	0000000000000000H
	DQ	FLAT:$SG168732
	DQ	0000000000000000H
	DD	073H
	DD	00H
	DD	00H
	DD	00H
	DQ	0000000000000000H
	DQ	0000000000000000H
	DQ	FLAT:$SG168733
	DQ	0000000000000000H
	DD	074H
	DD	00H
	DD	00H
	DD	00H
	DQ	0000000000000000H
	DQ	0000000000000000H
	DQ	FLAT:$SG168734
	DQ	0000000000000000H
	DD	075H
	DD	00H
	DD	00H
	DD	00H
	DQ	0000000000000000H
	DQ	0000000000000000H
	DQ	FLAT:$SG168735
	DQ	0000000000000000H
	DD	076H
	DD	00H
	DD	00H
	DD	00H
	DQ	0000000000000000H
	DQ	0000000000000000H
	DQ	FLAT:$SG168736
	DQ	0000000000000000H
	DD	077H
	DD	00H
	DD	00H
	DD	00H
	DQ	0000000000000000H
	DQ	0000000000000000H
	DQ	FLAT:$SG168737
	DQ	0000000000000000H
	DD	078H
	DD	00H
	DD	00H
	DD	00H
	DQ	0000000000000000H
	DQ	0000000000000000H
	DQ	FLAT:$SG168738
	DQ	0000000000000000H
	DD	079H
	DD	00H
	DD	00H
	DD	00H
	DQ	0000000000000000H
	DQ	0000000000000000H
	DQ	FLAT:$SG168739
	DQ	0000000000000000H
	DD	07aH
	DD	00H
	DD	00H
	DD	00H
	DQ	0000000000000000H
	DQ	0000000000000000H
	DQ	FLAT:$SG168740
	DQ	0000000000000000H
	DD	07bH
	DD	00H
	DD	00H
	DD	00H
	DQ	0000000000000000H
	DQ	0000000000000000H
	DQ	FLAT:$SG168741
	DQ	0000000000000000H
	DD	07cH
	DD	00H
	DD	00H
	DD	00H
	DQ	0000000000000000H
	DQ	0000000000000000H
	DQ	FLAT:$SG168742
	DQ	0000000000000000H
	DD	07dH
	DD	00H
	DD	00H
	DD	00H
	DQ	0000000000000000H
	DQ	0000000000000000H
	DQ	FLAT:$SG168743
	DQ	0000000000000000H
	DD	07eH
	DD	00H
	DD	00H
	DD	00H
	DQ	0000000000000000H
	DQ	0000000000000000H
	DQ	FLAT:$SG168744
	DQ	0000000000000000H
	DD	07fH
	DD	00H
	DD	00H
	DD	00H
	DQ	0000000000000000H
	DQ	0000000000000000H
	DQ	FLAT:$SG168745
	DQ	0000000000000000H
	DD	080H
	DD	00H
	DD	00H
	DD	00H
	DQ	0000000000000000H
	DQ	0000000000000000H
	DQ	FLAT:$SG168746
	DQ	0000000000000000H
	DD	084H
	DD	00H
	DD	00H
	DD	00H
	DQ	0000000000000000H
	DQ	0000000000000000H
	DQ	FLAT:$SG168747
	DQ	0000000000000000H
	DD	088H
	DD	00H
	DD	00H
	DD	00H
	DQ	0000000000000000H
	DQ	0000000000000000H
	DQ	FLAT:$SG168748
	DQ	0000000000000000H
	DD	089H
	DD	00H
	DD	00H
	DD	00H
	DQ	0000000000000000H
	DQ	0000000000000000H
	DQ	FLAT:$SG168749
	DQ	0000000000000000H
	DD	08cH
	DD	00H
	DD	00H
	DD	00H
	DQ	0000000000000000H
	DQ	0000000000000000H
	DQ	FLAT:$SG168750
	DQ	0000000000000000H
	DD	08dH
	DD	00H
	DD	00H
	DD	00H
	DQ	0000000000000000H
	DQ	0000000000000000H
	DQ	FLAT:$SG168751
	DQ	0000000000000000H
	DD	08fH
	DD	00H
	DD	00H
	DD	00H
	DQ	0000000000000000H
	DQ	0000000000000000H
	DQ	FLAT:$SG168752
	DQ	0000000000000000H
	DD	093H
	DD	00H
	DD	00H
	DD	00H
	DQ	0000000000000000H
	DQ	0000000000000000H
	DQ	FLAT:$SG168753
	DQ	0000000000000000H
	DD	099H
	DD	00H
	DD	00H
	DD	00H
	DQ	0000000000000000H
	DQ	0000000000000000H
	DQ	FLAT:$SG168754
	DQ	0000000000000000H
	DD	09aH
	DD	00H
	DD	00H
	DD	00H
	DQ	0000000000000000H
	DQ	0000000000000000H
	DQ	FLAT:$SG168755
	DQ	0000000000000000H
	DD	09cH
	DD	00H
	DD	00H
	DD	00H
	DQ	0000000000000000H
	DQ	0000000000000000H
	DQ	FLAT:$SG168756
	DQ	0000000000000000H
	DD	09dH
	DD	00H
	DD	00H
	DD	00H
	DQ	0000000000000000H
	DQ	0000000000000000H
	DQ	FLAT:$SG168757
	DQ	0000000000000000H
	DD	09fH
	DD	00H
	DD	00H
	DD	00H
	DQ	0000000000000000H
	DQ	0000000000000000H
	DQ	FLAT:$SG168758
	DQ	0000000000000000H
	DD	0a0H
	DD	00H
	DD	00H
	DD	00H
	DQ	0000000000000000H
	DQ	0000000000000000H
	DQ	FLAT:$SG168759
	DQ	0000000000000000H
	DD	0a2H
	DD	00H
	DD	00H
	DD	00H
	DQ	0000000000000000H
	DQ	0000000000000000H
	DQ	FLAT:$SG168760
	DQ	0000000000000000H
	DD	0a3H
	DD	00H
	DD	00H
	DD	00H
	DQ	0000000000000000H
	DQ	0000000000000000H
	DQ	FLAT:$SG168761
	DQ	0000000000000000H
	DD	0a4H
	DD	00H
	DD	00H
	DD	00H
	DQ	0000000000000000H
	DQ	0000000000000000H
	DQ	FLAT:$SG168762
	DQ	0000000000000000H
	DD	0a6H
	DD	00H
	DD	00H
	DD	00H
	DQ	0000000000000000H
	DQ	0000000000000000H
	DQ	FLAT:$SG168763
	DQ	0000000000000000H
	DD	0a7H
	DD	00H
	DD	00H
	DD	00H
	DQ	0000000000000000H
	DQ	0000000000000000H
	DQ	FLAT:$SG168764
	DQ	0000000000000000H
	DD	0aaH
	DD	00H
	DD	00H
	DD	00H
	DQ	0000000000000000H
	DQ	0000000000000000H
	DQ	FLAT:$SG168765
	DQ	0000000000000000H
	DD	0abH
	DD	00H
	DD	00H
	DD	00H
	DQ	0000000000000000H
	DQ	0000000000000000H
	DQ	FLAT:$SG168766
	DQ	0000000000000000H
	DD	0acH
	DD	00H
	DD	00H
	DD	00H
	DQ	0000000000000000H
	DQ	0000000000000000H
	DQ	FLAT:$SG168767
	DQ	0000000000000000H
	DD	0adH
	DD	00H
	DD	00H
	DD	00H
	DQ	0000000000000000H
	DQ	0000000000000000H
	DQ	FLAT:$SG168768
	DQ	0000000000000000H
	DD	0aeH
	DD	00H
	DD	00H
	DD	00H
	DQ	0000000000000000H
	DQ	0000000000000000H
	DQ	FLAT:$SG168769
	DQ	0000000000000000H
	DD	0afH
	DD	00H
	DD	00H
	DD	00H
	DQ	0000000000000000H
	DQ	0000000000000000H
	DQ	FLAT:$SG168770
	DQ	0000000000000000H
	DD	0b0H
	DD	00H
	DD	00H
	DD	00H
	DQ	0000000000000000H
	DQ	0000000000000000H
	DQ	FLAT:$SG168771
	DQ	0000000000000000H
	DD	0b1H
	DD	00H
	DD	00H
	DD	00H
	DQ	0000000000000000H
	DQ	0000000000000000H
	DQ	FLAT:$SG168772
	DQ	0000000000000000H
	DD	0b2H
	DD	00H
	DD	00H
	DD	00H
	DQ	0000000000000000H
	DQ	0000000000000000H
	DQ	FLAT:$SG168773
	DQ	0000000000000000H
	DD	0b3H
	DD	00H
	DD	00H
	DD	00H
	DQ	0000000000000000H
	DQ	0000000000000000H
	DQ	FLAT:$SG168774
	DQ	0000000000000000H
	DD	0b4H
	DD	00H
	DD	00H
	DD	00H
	DQ	0000000000000000H
	DQ	0000000000000000H
	DQ	FLAT:$SG168775
	DQ	0000000000000000H
	DD	0b5H
	DD	00H
	DD	00H
	DD	00H
	DQ	0000000000000000H
	DQ	0000000000000000H
	DQ	FLAT:$SG168776
	DQ	0000000000000000H
	DD	0b6H
	DD	00H
	DD	00H
	DD	00H
	DQ	0000000000000000H
	DQ	0000000000000000H
	DQ	FLAT:$SG168777
	DQ	0000000000000000H
	DD	0b7H
	DD	00H
	DD	00H
	DD	00H
	DQ	0000000000000000H
	DQ	0000000000000000H
	DQ	FLAT:$SG168778
	DQ	0000000000000000H
	DD	0b8H
	DD	00H
	DD	00H
	DD	00H
	DQ	0000000000000000H
	DQ	0000000000000000H
	DQ	FLAT:$SG168779
	DQ	0000000000000000H
	DD	0b9H
	DD	00H
	DD	00H
	DD	00H
	DQ	0000000000000000H
	DQ	0000000000000000H
	DQ	FLAT:$SG168780
	DQ	0000000000000000H
	DD	0baH
	DD	00H
	DD	00H
	DD	00H
	DQ	0000000000000000H
	DQ	0000000000000000H
	DQ	FLAT:$SG168781
	DQ	0000000000000000H
	DD	0bbH
	DD	00H
	DD	00H
	DD	00H
	DQ	0000000000000000H
	DQ	0000000000000000H
	DQ	FLAT:$SG168782
	DQ	0000000000000000H
	DD	0bcH
	DD	00H
	DD	00H
	DD	00H
	DQ	0000000000000000H
	DQ	0000000000000000H
	DQ	FLAT:$SG168783
	DQ	0000000000000000H
	DD	0bdH
	DD	00H
	DD	00H
	DD	00H
	DQ	0000000000000000H
	DQ	0000000000000000H
	DQ	FLAT:$SG168784
	DQ	0000000000000000H
	DD	0beH
	DD	00H
	DD	00H
	DD	00H
	DQ	0000000000000000H
	DQ	0000000000000000H
	DQ	FLAT:$SG168785
	DQ	0000000000000000H
	DD	0bfH
	DD	00H
	DD	00H
	DD	00H
	DQ	0000000000000000H
	DQ	0000000000000000H
	DQ	FLAT:$SG168786
	DQ	0000000000000000H
	DD	0c3H
	DD	00H
	DD	00H
	DD	00H
	DQ	0000000000000000H
	DQ	0000000000000000H
	DQ	FLAT:$SG168787
	DQ	0000000000000000H
	DD	0c6H
	DD	00H
	DD	00H
	DD	00H
	DQ	0000000000000000H
	DQ	0000000000000000H
	DQ	FLAT:$SG168788
	DQ	0000000000000000H
	DD	0c7H
	DD	00H
	DD	00H
	DD	00H
	DQ	0000000000000000H
	DQ	0000000000000000H
	DQ	FLAT:$SG168789
	DQ	0000000000000000H
	DD	0c8H
	DD	00H
	DD	00H
	DD	00H
	DQ	0000000000000000H
	DQ	0000000000000000H
	DQ	FLAT:$SG168790
	DQ	0000000000000000H
	DD	0100H
	DD	080H
	DD	00H
	DD	00H
	DQ	0000000000000000H
	DQ	0000000000000000H
	DQ	FLAT:$SG168791
	DQ	0000000000000000H
	DD	0101H
	DD	080H
	DD	080H
	DD	00H
	DQ	0000000000000000H
	DQ	0000000000000000H
	DQ	FLAT:$SG168792
	DQ	0000000000000000H
	DD	0102H
	DD	080H
	DD	00H
	DD	00H
	DQ	0000000000000000H
	DQ	0000000000000000H
	DQ	FLAT:$SG168793
	DQ	0000000000000000H
	DD	0103H
	DD	080H
	DD	080H
	DD	00H
	DQ	0000000000000000H
	DQ	0000000000000000H
	DQ	FLAT:$SG168794
	DQ	0000000000000000H
	DD	0105H
	DD	080H
	DD	080H
	DD	00H
	DQ	0000000000000000H
	DQ	0000000000000000H
	DQ	FLAT:$SG168795
	DQ	0000000000000000H
	DD	0106H
	DD	080H
	DD	00H
	DD	00H
	DQ	0000000000000000H
	DQ	0000000000000000H
	DQ	FLAT:$SG168796
	DQ	0000000000000000H
	DD	0107H
	DD	080H
	DD	00H
	DD	00H
	DQ	0000000000000000H
	DQ	0000000000000000H
	DQ	FLAT:$SG168797
	DQ	0000000000000000H
	DD	0108H
	DD	080H
	DD	00H
	DD	00H
	DQ	0000000000000000H
	DQ	0000000000000000H
	DQ	FLAT:$SG168798
	DQ	0000000000000000H
	DD	0109H
	DD	00H
	DD	00H
	DD	00H
	DQ	0000000000000000H
	DQ	0000000000000000H
	DQ	FLAT:$SG168799
	DQ	0000000000000000H
	DD	010dH
	DD	080H
	DD	00H
	DD	00H
	DQ	0000000000000000H
	DQ	0000000000000000H
	DQ	FLAT:$SG168800
	DQ	0000000000000000H
	DD	010fH
	DD	080H
	DD	00H
	DD	00H
	DQ	0000000000000000H
	DQ	0000000000000000H
	DQ	FLAT:$SG168801
	DQ	0000000000000000H
	DD	0110H
	DD	080H
	DD	00H
	DD	00H
	DQ	0000000000000000H
	DQ	0000000000000000H
	DQ	FLAT:$SG168802
	DQ	0000000000000000H
	DD	0111H
	DD	080H
	DD	00H
	DD	00H
$SG192693 DB	'Assigned to IBM internal use', 00H
	ORG $+3
$SG192694 DB	'061_MISC_INSTR_EXT_3', 00H
	ORG $+3
$SG192695 DB	'Miscellaneous-Instruction-Extensions Facility 3', 00H
$SG192696 DB	'062_IBM_INTERNAL', 00H
	ORG $+7
$SG192697 DB	'Assigned to IBM internal use', 00H
	ORG $+3
$SG192698 DB	'063_IBM_INTERNAL', 00H
	ORG $+7
$SG192699 DB	'Assigned to IBM internal use', 00H
	ORG $+3
$SG192700 DB	'064_IBM_INTERNAL', 00H
	ORG $+7
$SG192701 DB	'Assigned to IBM internal use', 00H
	ORG $+3
$SG192702 DB	'065_IBM_INTERNAL', 00H
	ORG $+7
$SG192703 DB	'Assigned to IBM internal use', 00H
	ORG $+3
$SG192704 DB	'066_RES_REF_BITS_MULT', 00H
	ORG $+2
$SG192705 DB	'Reset-Reference-Bits-Multiple Facility', 00H
	ORG $+1
$SG192706 DB	'067_CPU_MEAS_COUNTER', 00H
	ORG $+3
$SG192707 DB	'CPU-Measurement Counter Facility', 00H
	ORG $+7
$SG192708 DB	'068_CPU_MEAS_SAMPLNG', 00H
	ORG $+3
$SG192709 DB	'CPU-Measurement Sampling Facility', 00H
	ORG $+6
$SG192710 DB	'069_IBM_INTERNAL', 00H
	ORG $+7
$SG192711 DB	'Assigned to IBM internal use', 00H
	ORG $+3
$SG192712 DB	'070_IBM_INTERNAL', 00H
	ORG $+7
$SG192713 DB	'Assigned to IBM internal use', 00H
	ORG $+3
$SG192714 DB	'071_IBM_INTERNAL', 00H
	ORG $+7
$SG192715 DB	'Assigned to IBM internal use', 00H
	ORG $+3
$SG192716 DB	'072_IBM_INTERNAL', 00H
	ORG $+7
$SG192717 DB	'Assigned to IBM internal use', 00H
	ORG $+3
$SG192718 DB	'073_TRANSACT_EXEC', 00H
	ORG $+6
$SG192719 DB	'Transactional-Execution Facility', 00H
	ORG $+7
$SG192720 DB	'074_STORE_HYPER_INFO', 00H
	ORG $+3
$SG192721 DB	'Store-Hypervisor-Information Facility', 00H
	ORG $+2
$SG192722 DB	'075_ACC_EX_FS_INDIC', 00H
	ORG $+4
$SG192723 DB	'Access-Exception-Fetch/Store-Indication Facility', 00H
	ORG $+7
$SG192724 DB	'076_MSA_EXTENSION_3', 00H
	ORG $+4
$SG192725 DB	'Message-Security-Assist Extension 3', 00H
	ORG $+4
$SG192726 DB	'077_MSA_EXTENSION_4', 00H
	ORG $+4
$SG192727 DB	'Message-Security-Assist Extension 4', 00H
	ORG $+4
$SG192728 DB	'078_EDAT_2', 00H
	ORG $+5
$SG192729 DB	'Enhanced-DAT Facility 2', 00H
$SG192730 DB	'079_UNDEFINED', 00H
	ORG $+2
$SG192731 DB	'Undefined', 00H
	ORG $+6
$SG192732 DB	'080_DFP_PACK_CONV', 00H
	ORG $+6
$SG192733 DB	'Decimal-Floating-Point-Packed-Conversion Facility', 00H
	ORG $+6
$SG192734 DB	'081_PPA_IN_ORDER', 00H
	ORG $+7
$SG192735 DB	'PPA-in-order Facility', 00H
	ORG $+2
$SG192736 DB	'082_IBM_INTERNAL', 00H
	ORG $+7
$SG192737 DB	'Assigned to IBM internal use', 00H
	ORG $+3
$SG192738 DB	'083_UNDEFINED', 00H
	ORG $+2
$SG192739 DB	'Undefined', 00H
	ORG $+6
$SG192740 DB	'084_UNDEFINED', 00H
	ORG $+2
$SG192741 DB	'Undefined', 00H
	ORG $+6
$SG192742 DB	'085_UNDEFINED', 00H
	ORG $+2
$SG192743 DB	'Undefined', 00H
	ORG $+6
$SG192744 DB	'086_UNDEFINED', 00H
	ORG $+2
$SG192745 DB	'Undefined', 00H
	ORG $+6
$SG192746 DB	'087_UNDEFINED', 00H
	ORG $+2
$SG192747 DB	'Undefined', 00H
	ORG $+6
$SG192748 DB	'088_UNDEFINED', 00H
	ORG $+2
$SG192749 DB	'Undefined', 00H
	ORG $+6
$SG192750 DB	'089_UNDEFINED', 00H
	ORG $+2
$SG192751 DB	'Undefined', 00H
	ORG $+6
$SG192752 DB	'090_UNDEFINED', 00H
	ORG $+2
$SG192753 DB	'Undefined', 00H
	ORG $+6
$SG192754 DB	'091_UNDEFINED', 00H
	ORG $+2
$SG192755 DB	'Undefined', 00H
	ORG $+6
$SG192756 DB	'092_UNDEFINED', 00H
	ORG $+2
$SG192757 DB	'Undefined', 00H
	ORG $+6
$SG192758 DB	'093_UNDEFINED', 00H
	ORG $+2
$SG192759 DB	'Undefined', 00H
	ORG $+6
$SG192760 DB	'094_UNDEFINED', 00H
	ORG $+2
$SG192761 DB	'Undefined', 00H
	ORG $+6
$SG192762 DB	'095_UNDEFINED', 00H
	ORG $+2
$SG192763 DB	'Undefined', 00H
	ORG $+6
$SG192764 DB	'096_UNDEFINED', 00H
	ORG $+2
$SG192765 DB	'Undefined', 00H
	ORG $+6
$SG192766 DB	'097_UNDEFINED', 00H
	ORG $+2
$SG192767 DB	'Undefined', 00H
	ORG $+6
$SG192768 DB	'098_UNDEFINED', 00H
	ORG $+2
$SG192769 DB	'Undefined', 00H
	ORG $+6
$SG192770 DB	'099_UNDEFINED', 00H
	ORG $+2
$SG192771 DB	'Undefined', 00H
	ORG $+6
$SG192772 DB	'100_UNDEFINED', 00H
	ORG $+2
$SG192773 DB	'Undefined', 00H
	ORG $+6
$SG192774 DB	'101_UNDEFINED', 00H
	ORG $+2
$SG192775 DB	'Undefined', 00H
	ORG $+6
$SG192776 DB	'102_UNDEFINED', 00H
	ORG $+2
$SG192777 DB	'Undefined', 00H
	ORG $+6
$SG192778 DB	'103_UNDEFINED', 00H
	ORG $+2
$SG192779 DB	'Undefined', 00H
	ORG $+6
$SG192780 DB	'104_UNDEFINED', 00H
	ORG $+2
$SG192781 DB	'Undefined', 00H
	ORG $+6
$SG192782 DB	'105_UNDEFINED', 00H
	ORG $+2
$SG192783 DB	'Undefined', 00H
	ORG $+6
$SG192784 DB	'106_UNDEFINED', 00H
	ORG $+2
$SG192785 DB	'Undefined', 00H
	ORG $+6
$SG192786 DB	'107_UNDEFINED', 00H
	ORG $+2
$SG192787 DB	'Undefined', 00H
	ORG $+6
$SG192788 DB	'108_UNDEFINED', 00H
	ORG $+2
$SG192789 DB	'Undefined', 00H
	ORG $+6
$SG192790 DB	'109_UNDEFINED', 00H
	ORG $+2
$SG192791 DB	'Undefined', 00H
	ORG $+6
$SG192792 DB	'110_UNDEFINED', 00H
	ORG $+2
$SG192793 DB	'Undefined', 00H
	ORG $+6
$SG192794 DB	'111_UNDEFINED', 00H
	ORG $+2
$SG192795 DB	'Undefined', 00H
	ORG $+6
$SG192796 DB	'112_UNDEFINED', 00H
	ORG $+2
$SG192797 DB	'Undefined', 00H
	ORG $+6
$SG192798 DB	'113_UNDEFINED', 00H
	ORG $+2
$SG192799 DB	'Undefined', 00H
	ORG $+6
$SG192800 DB	'114_UNDEFINED', 00H
	ORG $+2
$SG192801 DB	'Undefined', 00H
	ORG $+6
$SG192802 DB	'115_UNDEFINED', 00H
	ORG $+2
$SG192803 DB	'Undefined', 00H
	ORG $+6
$SG192804 DB	'116_UNDEFINED', 00H
	ORG $+2
$SG192805 DB	'Undefined', 00H
	ORG $+6
$SG192806 DB	'117_UNDEFINED', 00H
	ORG $+2
$SG192807 DB	'Undefined', 00H
	ORG $+6
$SG192808 DB	'118_UNDEFINED', 00H
	ORG $+2
$SG192809 DB	'Undefined', 00H
	ORG $+6
$SG192810 DB	'119_UNDEFINED', 00H
	ORG $+2
$SG192811 DB	'Undefined', 00H
	ORG $+6
$SG192812 DB	'120_UNDEFINED', 00H
	ORG $+2
$SG192813 DB	'Undefined', 00H
	ORG $+6
$SG192814 DB	'121_UNDEFINED', 00H
	ORG $+2
$SG192815 DB	'Undefined', 00H
	ORG $+6
$SG192816 DB	'122_UNDEFINED', 00H
	ORG $+2
$SG192817 DB	'Undefined', 00H
	ORG $+6
$SG192818 DB	'123_UNDEFINED', 00H
	ORG $+2
$SG192819 DB	'Undefined', 00H
	ORG $+6
$SG192820 DB	'124_UNDEFINED', 00H
	ORG $+2
$SG192821 DB	'Undefined', 00H
	ORG $+6
$SG192822 DB	'125_UNDEFINED', 00H
	ORG $+2
$SG192823 DB	'Undefined', 00H
	ORG $+6
$SG192824 DB	'126_UNDEFINED', 00H
	ORG $+2
$SG192825 DB	'Undefined', 00H
	ORG $+6
$SG192826 DB	'127_UNDEFINED', 00H
	ORG $+2
$SG192827 DB	'Undefined', 00H
	ORG $+6
$SG192828 DB	'128_IBM_INTERNAL', 00H
	ORG $+7
$SG192829 DB	'Assigned to IBM internal use', 00H
	ORG $+3
$SG192830 DB	'129_ZVECTOR', 00H
	ORG $+4
$SG192831 DB	'Vector Facility for z/Architecture', 00H
	ORG $+5
$SG192832 DB	'130_INSTR_EXEC_PROT', 00H
	ORG $+4
$SG192833 DB	'Instruction-Execution-Protection Facility', 00H
	ORG $+6
$SG192834 DB	'131_SIDE_EFFECT_ACCESS', 00H
	ORG $+1
$SG192835 DB	'Side-Effect-Access Facility', 00H
	ORG $+4
$SG192836 DB	'131_ENH_SUPP_ON_PROT_2', 00H
	ORG $+1
$SG192837 DB	'Enhanced-Suppression-on-Protection Facility 2', 00H
	ORG $+2
$SG192838 DB	'132_UNDEFINED', 00H
	ORG $+2
$SG192839 DB	'Undefined', 00H
	ORG $+6
$SG192840 DB	'133_GUARDED_STORAGE', 00H
	ORG $+4
$SG192841 DB	'Guarded-Storage Facility', 00H
	ORG $+7
$SG192842 DB	'134_ZVECTOR_PACK_DEC', 00H
	ORG $+3
$SG192843 DB	'Vector Packed-Decimal Facility', 00H
	ORG $+1
$SG192844 DB	'135_ZVECTOR_ENH_1', 00H
	ORG $+6
$SG192845 DB	'Vector-Enhancements Facility 1', 00H
	ORG $+1
$SG192846 DB	'136_UNDEFINED', 00H
	ORG $+2
$SG192847 DB	'Undefined', 00H
	ORG $+6
$SG192848 DB	'137_UNDEFINED', 00H
	ORG $+2
$SG192849 DB	'Undefined', 00H
	ORG $+6
$SG192850 DB	'138_CONFIG_ZARCH_MODE', 00H
	ORG $+2
$SG192851 DB	'CZAM Facility (Configuration-z/Architecture-Architectura'
	DB	'l-Mode)', 00H
$SG192852 DB	'139_MULTIPLE_EPOCH', 00H
	ORG $+5
$SG192853 DB	'Multiple-Epoch Facility', 00H
$SG192854 DB	'140_IBM_INTERNAL', 00H
	ORG $+7
$SG192855 DB	'Assigned to IBM internal use', 00H
	ORG $+3
$SG192856 DB	'141_IBM_INTERNAL', 00H
	ORG $+7
$SG192857 DB	'Assigned to IBM internal use', 00H
	ORG $+3
$SG192858 DB	'142_ST_CPU_COUNTER_MULT', 00H
$SG192859 DB	'Store-CPU-Counter-Multiple Facility', 00H
	ORG $+4
$SG192860 DB	'143_UNDEFINED', 00H
	ORG $+2
$SG192861 DB	'Undefined', 00H
	ORG $+6
$SG192862 DB	'144_TEST_PEND_EXTERNAL', 00H
	ORG $+1
$SG192863 DB	'Test-Pending-External-Interruption Facility', 00H
	ORG $+4
$SG192864 DB	'145_INS_REF_BITS_MULT', 00H
	ORG $+2
$SG192865 DB	'Insert-Reference-Bits-Multiple Facility', 00H
$SG192866 DB	'146_MSA_EXTENSION_8', 00H
	ORG $+4
$SG192867 DB	'Message-Security-Assist Extension 8', 00H
	ORG $+4
$SG192868 DB	'147_IBM_RESERVED', 00H
	ORG $+7
$SG192869 DB	'Reserved for IBM use', 00H
	ORG $+3
$SG192870 DB	'148_VECTOR_ENH_2', 00H
	ORG $+7
$SG192871 DB	'Vector-Enhancements Facility 2', 00H
	ORG $+1
$SG192872 DB	'149_MOVEPAGE_SETKEY', 00H
	ORG $+4
$SG192873 DB	'Move-Page-and-Set-Key Facility', 00H
	ORG $+1
$SG192874 DB	'150_ENH_SORT', 00H
	ORG $+3
$SG192875 DB	'Enhanced-Sort Facility', 00H
	ORG $+1
$SG192876 DB	'151_DEFLATE_CONV', 00H
	ORG $+7
$SG192877 DB	'DEFLATE-Conversion Facility', 00H
	ORG $+4
$SG192878 DB	'152_VECT_PACKDEC_ENH', 00H
	ORG $+3
$SG192879 DB	'Vector-Packed-Decimal-Enhancement Facility', 00H
	ORG $+5
$SG192880 DB	'153_IBM_INTERNAL', 00H
	ORG $+7
$SG192881 DB	'Assigned to IBM internal use', 00H
	ORG $+3
$SG192882 DB	'154_UNDEFINED', 00H
	ORG $+2
$SG192883 DB	'Undefined', 00H
	ORG $+6
$SG192884 DB	'155_MSA_EXTENSION_9', 00H
	ORG $+4
$SG192885 DB	'Message-Security-Assist Extension 9', 00H
	ORG $+4
$SG192886 DB	'156_IBM_INTERNAL', 00H
	ORG $+7
$SG192887 DB	'Assigned to IBM internal use', 00H
	ORG $+3
$SG192888 DB	'157_UNDEFINED', 00H
	ORG $+2
$SG192889 DB	'Undefined', 00H
	ORG $+6
$SG192890 DB	'158_ULTRAV_CALL', 00H
$SG192891 DB	'Ultravisor-Call facility', 00H
	ORG $+7
$SG192892 DB	'159_UNDEFINED', 00H
	ORG $+2
$SG192893 DB	'Undefined', 00H
	ORG $+6
$SG192894 DB	'160_UNDEFINED', 00H
	ORG $+2
$SG192895 DB	'Undefined', 00H
	ORG $+6
$SG192896 DB	'161_SEC_EXE_UNPK', 00H
	ORG $+7
$SG192897 DB	'Secure-Execution-Unpack Facility', 00H
	ORG $+7
$SG192898 DB	'162_UNDEFINED', 00H
	ORG $+2
$SG192899 DB	'Undefined', 00H
	ORG $+6
$SG192900 DB	'163_UNDEFINED', 00H
	ORG $+2
$SG192901 DB	'Undefined', 00H
	ORG $+6
$SG192902 DB	'164_UNDEFINED', 00H
	ORG $+2
$SG192903 DB	'Undefined', 00H
	ORG $+6
$SG192904 DB	'165_NNET_ASSIST', 00H
$SG192905 DB	'Neural-Network-Processing-Assist Facility', 00H
	ORG $+6
$SG192906 DB	'166_UNDEFINED', 00H
	ORG $+2
$SG192907 DB	'Undefined', 00H
	ORG $+6
$SG192908 DB	'167_UNDEFINED', 00H
	ORG $+2
$SG192909 DB	'Undefined', 00H
	ORG $+6
$SG192910 DB	'168_ESA390_COMPAT_MODE', 00H
	ORG $+1
$SG192911 DB	'ESA/390-Compatibility-Mode Facility', 00H
	ORG $+4
$SG192912 DB	'169_SKEY_REMOVAL', 00H
	ORG $+7
$SG192913 DB	'Storage-Key-Removal Facility', 00H
	ORG $+3
$SG192914 DB	'170_UNDEFINED', 00H
	ORG $+2
$SG192915 DB	'Undefined', 00H
	ORG $+6
$SG192916 DB	'171_UNDEFINED', 00H
	ORG $+2
$SG192917 DB	'Undefined', 00H
	ORG $+6
$SG192918 DB	'172_UNDEFINED', 00H
	ORG $+2
$SG192919 DB	'Undefined', 00H
	ORG $+6
$SG192920 DB	'173_UNDEFINED', 00H
	ORG $+2
$SG192921 DB	'Undefined', 00H
	ORG $+6
$SG192922 DB	'174_UNDEFINED', 00H
	ORG $+2
$SG192923 DB	'Undefined', 00H
	ORG $+6
$SG192924 DB	'175_UNDEFINED', 00H
	ORG $+2
$SG192925 DB	'Undefined', 00H
	ORG $+6
$SG192926 DB	'176_UNDEFINED', 00H
	ORG $+2
$SG192927 DB	'Undefined', 00H
	ORG $+6
$SG192928 DB	'177_UNDEFINED', 00H
	ORG $+2
$SG192929 DB	'Undefined', 00H
	ORG $+6
$SG192930 DB	'178_UNDEFINED', 00H
	ORG $+2
$SG192931 DB	'Undefined', 00H
	ORG $+6
$SG192932 DB	'179_UNDEFINED', 00H
	ORG $+2
$SG192933 DB	'Undefined', 00H
	ORG $+6
$SG192934 DB	'180_UNDEFINED', 00H
	ORG $+2
$SG192935 DB	'Undefined', 00H
	ORG $+6
$SG192936 DB	'181_UNDEFINED', 00H
	ORG $+2
$SG192937 DB	'Undefined', 00H
	ORG $+6
$SG192938 DB	'182_UNDEFINED', 00H
	ORG $+2
$SG192939 DB	'Undefined', 00H
	ORG $+6
$SG192940 DB	'183_UNDEFINED', 00H
	ORG $+2
$SG192941 DB	'Undefined', 00H
	ORG $+6
$SG192942 DB	'184_UNDEFINED', 00H
	ORG $+2
$SG192943 DB	'Undefined', 00H
	ORG $+6
$SG192944 DB	'185_UNDEFINED', 00H
	ORG $+2
$SG192945 DB	'Undefined', 00H
	ORG $+6
$SG192946 DB	'186_UNDEFINED', 00H
	ORG $+2
$SG192947 DB	'Undefined', 00H
	ORG $+6
$SG192948 DB	'187_UNDEFINED', 00H
	ORG $+2
$SG192949 DB	'Undefined', 00H
	ORG $+6
$SG192950 DB	'188_UNDEFINED', 00H
	ORG $+2
$SG192951 DB	'Undefined', 00H
	ORG $+6
$SG192952 DB	'189_UNDEFINED', 00H
	ORG $+2
$SG192953 DB	'Undefined', 00H
	ORG $+6
$SG192954 DB	'190_UNDEFINED', 00H
	ORG $+2
$SG192955 DB	'Undefined', 00H
	ORG $+6
$SG192956 DB	'191_UNDEFINED', 00H
	ORG $+2
$SG192957 DB	'Undefined', 00H
	ORG $+6
$SG192958 DB	'192_VECT_PACKDEC_ENH_2', 00H
	ORG $+1
$SG192959 DB	'Vector-Packed-Decimal-Enhancement Facility 2', 00H
	ORG $+3
$SG192960 DB	'193_BEAR_ENH', 00H
	ORG $+3
$SG192961 DB	'BEAR-Enhancement Facility', 00H
	ORG $+6
$SG192962 DB	'194_RESET_DAT_PROT', 00H
	ORG $+5
$SG192963 DB	'Reset-DAT-Protection Facility', 00H
	ORG $+2
$SG192964 DB	'195_UNDEFINED', 00H
	ORG $+2
$SG192965 DB	'Undefined', 00H
	ORG $+6
$SG192966 DB	'196_PROC_ACT', 00H
	ORG $+3
$SG192967 DB	'Processor-Activity-Instrumentation Facility', 00H
	ORG $+4
$SG192968 DB	'197_PROC_ACT_EXT_1', 00H
	ORG $+5
$SG192969 DB	'Processor-Activity-Instrumentation Extension 1 Facility', 00H
$SG192970 DB	'198_UNDEFINED', 00H
	ORG $+2
$SG192971 DB	'Undefined', 00H
	ORG $+6
$SG192972 DB	'199_UNDEFINED', 00H
	ORG $+2
$SG192973 DB	'Undefined', 00H
	ORG $+6
$SG192974 DB	'200_UNDEFINED', 00H
	ORG $+2
$SG192975 DB	'Undefined', 00H
	ORG $+6
$SG192976 DB	'HERC_370_EXTENSION', 00H
	ORG $+5
$SG192977 DB	'Hercules S/370 Instruction Extension Facility', 00H
	ORG $+2
$SG192978 DB	'HERC_DETECT_PGMINTLOOP', 00H
	ORG $+1
$SG192979 DB	'Hercules Detect-Program-Interrupt-Loop Support', 00H
	ORG $+1
$SG192980 DB	'HERC_HOST_RESOURCE_ACCESS', 00H
	ORG $+6
$SG192981 DB	'Hercules Host Resource Access Support', 00H
	ORG $+2
$SG192982 DB	'HERC_INTERVAL_TIMER', 00H
	ORG $+4
$SG192983 DB	'Hercules Interval Timer Support', 00H
$SG192984 DB	'HERC_LOGICAL_PARTITION', 00H
	ORG $+1
$SG192985 DB	'Hercules Logical Partition (LPAR) Support', 00H
	ORG $+6
$SG192986 DB	'HERC_MOVE_INVERSE', 00H
	ORG $+6
$SG192987 DB	'Hercules MVCIN Move Inverse Instruction Support', 00H
$SG192988 DB	'HERC_MSA_EXTENSION_1', 00H
	ORG $+3
$SG192989 DB	'Hercules Message-Security-Assist Extension 1 Support', 00H
	ORG $+3
$SG192990 DB	'HERC_MSA_EXTENSION_2', 00H
	ORG $+3
$SG192991 DB	'Hercules Message-Security-Assist Extension 2 Support', 00H
	ORG $+3
$SG192992 DB	'HERC_PROBSTATE_DIAGF08', 00H
	ORG $+1
$SG192993 DB	'Hercules Problem-State Diagnose X''F08'' Support', 00H
	ORG $+1
$SG192994 DB	'HERC_QDIO_ASSIST', 00H
	ORG $+7
$SG192995 DB	'Hercules QDIO-Assist Support', 00H
	ORG $+3
$SG192996 DB	'HERC_QDIO_TDD', 00H
	ORG $+2
$SG192997 DB	'Hercules QDIO Time-Delayed-Dispatching Support', 00H
	ORG $+1
$SG192998 DB	'HERC_QDIO_THININT', 00H
	ORG $+6
$SG192999 DB	'Hercules QDIO Thin-Interrupts Support', 00H
	ORG $+2
$SG193000 DB	'HERC_QEBSM', 00H
	ORG $+5
$SG193001 DB	'Hercules QDIO Enhanced Buffer-State Management Support', 00H
	ORG $+1
$SG193002 DB	'HERC_SIGP_SETARCH_S370', 00H
	ORG $+1
$SG193003 DB	'Hercules SIGP Set Architecture S/370 Support', 00H
	ORG $+3
$SG193004 DB	'HERC_SVS', 00H
	ORG $+7
$SG193005 DB	'Hercules SVS Set Vector Summary Instruction Support', 00H
	ORG $+4
$SG193006 DB	'HERC_VIRTUAL_MACHINE', 00H
	ORG $+3
$SG193007 DB	'Hercules Emulate Virtual Machine Support', 00H
	ORG $+7
$SG193008 DB	'HERC_TCPIP_EXTENSION', 00H
	ORG $+3
$SG193009 DB	'Hercules Access Host TCP/IP Stack Through X''75'' Instru'
	DB	'ction', 00H
	ORG $+4
$SG193010 DB	'HERC_TCPIP_PROB_STATE', 00H
	ORG $+2
$SG193011 DB	'Hercules Enable X''75'' As Problem State Instruction', 00H
	ORG $+5
$SG193012 DB	'HERC_ZVM_ESSA', 00H
	ORG $+2
$SG193013 DB	'Hercules z/VM ESSA Extract and Set Storage Attributes in'
	DB	'struction', 00H
	ORG $+6
$SG168651 DB	'000_N3_INSTR', 00H
	ORG $+3
$SG168652 DB	'001_ZARCH_INSTALLED', 00H
	ORG $+4
$SG168653 DB	'012_IBM_INTERNAL', 00H
	ORG $+7
$SG168654 DB	'015_IBM_INTERNAL', 00H
	ORG $+7
$SG168655 DB	'016_EXT_TRANSL_2', 00H
	ORG $+7
$SG168656 DB	'017_MSA', 00H
$SG168657 DB	'018_LONG_DISPL_INST', 00H
	ORG $+4
$SG168658 DB	'020_HFP_MULT_ADD_SUB', 00H
	ORG $+3
$SG168659 DB	'021_EXTENDED_IMMED', 00H
	ORG $+5
$SG168660 DB	'022_EXT_TRANSL_3', 00H
	ORG $+7
$SG168661 DB	'023_HFP_UNNORM_EXT', 00H
	ORG $+5
$SG168662 DB	'024_ETF2_ENHANCEMENT', 00H
	ORG $+3
$SG168663 DB	'026_PARSING_ENHANCE', 00H
	ORG $+4
$SG168664 DB	'029_UNDEFINED', 00H
	ORG $+2
$SG168665 DB	'030_ETF3_ENHANCEMENT', 00H
	ORG $+3
$SG168666 DB	'032_CSSF', 00H
	ORG $+7
$SG168667 DB	'034_GEN_INST_EXTN', 00H
	ORG $+6
$SG168668 DB	'035_EXECUTE_EXTN', 00H
	ORG $+7
$SG168669 DB	'037_FP_EXTENSION', 00H
	ORG $+7
$SG168670 DB	'039_IBM_INTERNAL', 00H
	ORG $+7
$SG168671 DB	'041_FPS_ENHANCEMENT', 00H
	ORG $+4
$SG168672 DB	'041_DFP_ROUNDING', 00H
	ORG $+7
$SG168673 DB	'041_FPR_GR_TRANSFER', 00H
	ORG $+4
$SG168674 DB	'041_FPS_SIGN_HANDLING', 00H
	ORG $+2
$SG168675 DB	'041_IEEE_EXCEPT_SIM', 00H
	ORG $+4
$SG168676 DB	'042_DFP', 00H
$SG168677 DB	'045_DISTINCT_OPERANDS', 00H
	ORG $+2
$SG168678 DB	'045_FAST_BCR_SERIAL', 00H
	ORG $+4
$SG168679 DB	'045_HIGH_WORD', 00H
	ORG $+2
$SG168680 DB	'045_INTERLOCKED_ACCESS_1', 00H
	ORG $+7
$SG168681 DB	'045_LOAD_STORE_ON_COND_1', 00H
	ORG $+7
$SG168682 DB	'045_POPULATION_COUNT', 00H
	ORG $+3
$SG168683 DB	'046_IBM_INTERNAL', 00H
	ORG $+7
$SG168684 DB	'055_IBM_INTERNAL', 00H
	ORG $+7
$SG168685 DB	'056_UNDEFINED', 00H
	ORG $+2
$SG168686 DB	'059_IBM_INTERNAL', 00H
	ORG $+7
$SG168687 DB	'060_IBM_INTERNAL', 00H
	ORG $+7
$SG168688 DB	'062_IBM_INTERNAL', 00H
	ORG $+7
$SG168689 DB	'063_IBM_INTERNAL', 00H
	ORG $+7
$SG168690 DB	'064_IBM_INTERNAL', 00H
	ORG $+7
$SG168691 DB	'065_IBM_INTERNAL', 00H
	ORG $+7
$SG168692 DB	'069_IBM_INTERNAL', 00H
	ORG $+7
$SG168693 DB	'070_IBM_INTERNAL', 00H
	ORG $+7
$SG168694 DB	'071_IBM_INTERNAL', 00H
	ORG $+7
$SG168695 DB	'072_IBM_INTERNAL', 00H
	ORG $+7
$SG168696 DB	'076_MSA_EXTENSION_3', 00H
	ORG $+4
$SG168697 DB	'077_MSA_EXTENSION_4', 00H
	ORG $+4
$SG168698 DB	'079_UNDEFINED', 00H
	ORG $+2
$SG168699 DB	'082_IBM_INTERNAL', 00H
	ORG $+7
$SG168700 DB	'083_UNDEFINED', 00H
	ORG $+2
$SG168701 DB	'084_UNDEFINED', 00H
	ORG $+2
$SG168702 DB	'085_UNDEFINED', 00H
	ORG $+2
$SG168703 DB	'086_UNDEFINED', 00H
	ORG $+2
$SG168704 DB	'087_UNDEFINED', 00H
	ORG $+2
$SG168705 DB	'088_UNDEFINED', 00H
	ORG $+2
$SG168706 DB	'089_UNDEFINED', 00H
	ORG $+2
$SG168707 DB	'090_UNDEFINED', 00H
	ORG $+2
$SG168708 DB	'091_UNDEFINED', 00H
	ORG $+2
$SG168709 DB	'092_UNDEFINED', 00H
	ORG $+2
$SG168710 DB	'093_UNDEFINED', 00H
	ORG $+2
$SG168711 DB	'094_UNDEFINED', 00H
	ORG $+2
$SG168712 DB	'095_UNDEFINED', 00H
	ORG $+2
$SG168713 DB	'096_UNDEFINED', 00H
	ORG $+2
$SG168714 DB	'097_UNDEFINED', 00H
	ORG $+2
$SG168715 DB	'098_UNDEFINED', 00H
	ORG $+2
$SG168716 DB	'099_UNDEFINED', 00H
	ORG $+2
$SG168717 DB	'100_UNDEFINED', 00H
	ORG $+2
$SG168718 DB	'101_UNDEFINED', 00H
	ORG $+2
$SG168719 DB	'102_UNDEFINED', 00H
	ORG $+2
$SG168720 DB	'103_UNDEFINED', 00H
	ORG $+2
$SG168721 DB	'104_UNDEFINED', 00H
	ORG $+2
$SG168722 DB	'105_UNDEFINED', 00H
	ORG $+2
$SG168723 DB	'106_UNDEFINED', 00H
	ORG $+2
$SG168724 DB	'107_UNDEFINED', 00H
	ORG $+2
$SG168725 DB	'108_UNDEFINED', 00H
	ORG $+2
$SG168726 DB	'109_UNDEFINED', 00H
	ORG $+2
$SG168727 DB	'110_UNDEFINED', 00H
	ORG $+2
$SG168728 DB	'111_UNDEFINED', 00H
	ORG $+2
$SG168729 DB	'112_UNDEFINED', 00H
	ORG $+2
$SG168730 DB	'113_UNDEFINED', 00H
	ORG $+2
$SG168731 DB	'114_UNDEFINED', 00H
	ORG $+2
$SG168732 DB	'115_UNDEFINED', 00H
	ORG $+2
$SG168733 DB	'116_UNDEFINED', 00H
	ORG $+2
$SG168734 DB	'117_UNDEFINED', 00H
	ORG $+2
$SG168735 DB	'118_UNDEFINED', 00H
	ORG $+2
$SG168736 DB	'119_UNDEFINED', 00H
	ORG $+2
$SG168737 DB	'120_UNDEFINED', 00H
	ORG $+2
$SG168738 DB	'121_UNDEFINED', 00H
	ORG $+2
$SG168739 DB	'122_UNDEFINED', 00H
	ORG $+2
$SG168740 DB	'123_UNDEFINED', 00H
	ORG $+2
$SG168741 DB	'124_UNDEFINED', 00H
	ORG $+2
$SG168742 DB	'125_UNDEFINED', 00H
	ORG $+2
$SG168743 DB	'126_UNDEFINED', 00H
	ORG $+2
$SG168744 DB	'127_UNDEFINED', 00H
	ORG $+2
$SG168745 DB	'128_IBM_INTERNAL', 00H
	ORG $+7
$SG168746 DB	'132_UNDEFINED', 00H
	ORG $+2
$SG168747 DB	'136_UNDEFINED', 00H
	ORG $+2
$SG168748 DB	'137_UNDEFINED', 00H
	ORG $+2
$SG168749 DB	'140_IBM_INTERNAL', 00H
	ORG $+7
$SG168750 DB	'141_IBM_INTERNAL', 00H
	ORG $+7
$SG168751 DB	'143_UNDEFINED', 00H
	ORG $+2
$SG168752 DB	'147_IBM_RESERVED', 00H
	ORG $+7
$SG168753 DB	'153_IBM_INTERNAL', 00H
	ORG $+7
$SG168754 DB	'154_UNDEFINED', 00H
	ORG $+2
$SG168755 DB	'156_IBM_INTERNAL', 00H
	ORG $+7
$SG168756 DB	'157_UNDEFINED', 00H
	ORG $+2
$SG168757 DB	'159_UNDEFINED', 00H
	ORG $+2
$SG168758 DB	'160_UNDEFINED', 00H
	ORG $+2
$SG168759 DB	'162_UNDEFINED', 00H
	ORG $+2
$SG168760 DB	'163_UNDEFINED', 00H
	ORG $+2
$SG168761 DB	'164_UNDEFINED', 00H
	ORG $+2
$SG168762 DB	'166_UNDEFINED', 00H
	ORG $+2
$SG168763 DB	'167_UNDEFINED', 00H
	ORG $+2
$SG168764 DB	'170_UNDEFINED', 00H
	ORG $+2
$SG168765 DB	'171_UNDEFINED', 00H
	ORG $+2
$SG168766 DB	'172_UNDEFINED', 00H
	ORG $+2
$SG168767 DB	'173_UNDEFINED', 00H
	ORG $+2
$SG168768 DB	'174_UNDEFINED', 00H
	ORG $+2
$SG168769 DB	'175_UNDEFINED', 00H
	ORG $+2
$SG168770 DB	'176_UNDEFINED', 00H
	ORG $+2
$SG168771 DB	'177_UNDEFINED', 00H
	ORG $+2
$SG168772 DB	'178_UNDEFINED', 00H
	ORG $+2
$SG168773 DB	'179_UNDEFINED', 00H
	ORG $+2
$SG168774 DB	'180_UNDEFINED', 00H
	ORG $+2
$SG168775 DB	'181_UNDEFINED', 00H
	ORG $+2
$SG168776 DB	'182_UNDEFINED', 00H
	ORG $+2
$SG168777 DB	'183_UNDEFINED', 00H
	ORG $+2
$SG168778 DB	'184_UNDEFINED', 00H
	ORG $+2
$SG168779 DB	'185_UNDEFINED', 00H
	ORG $+2
$SG168780 DB	'186_UNDEFINED', 00H
	ORG $+2
$SG168781 DB	'187_UNDEFINED', 00H
	ORG $+2
$SG168782 DB	'188_UNDEFINED', 00H
	ORG $+2
$SG168783 DB	'189_UNDEFINED', 00H
	ORG $+2
$SG168784 DB	'190_UNDEFINED', 00H
	ORG $+2
$SG168785 DB	'191_UNDEFINED', 00H
	ORG $+2
$SG168786 DB	'195_UNDEFINED', 00H
	ORG $+2
$SG168787 DB	'198_UNDEFINED', 00H
	ORG $+2
$SG168788 DB	'199_UNDEFINED', 00H
	ORG $+2
$SG168789 DB	'200_UNDEFINED', 00H
	ORG $+2
$SG168790 DB	'HERC_370_EXTENSION', 00H
	ORG $+5
$SG168791 DB	'HERC_DETECT_PGMINTLOOP', 00H
	ORG $+1
$SG168792 DB	'HERC_HOST_RESOURCE_ACCESS', 00H
	ORG $+6
$SG168793 DB	'HERC_INTERVAL_TIMER', 00H
	ORG $+4
$SG168794 DB	'HERC_MOVE_INVERSE', 00H
	ORG $+6
$SG168795 DB	'HERC_MSA_EXTENSION_1', 00H
	ORG $+3
$SG168796 DB	'HERC_MSA_EXTENSION_2', 00H
	ORG $+3
$SG168797 DB	'HERC_PROBSTATE_DIAGF08', 00H
	ORG $+1
$SG168798 DB	'HERC_QDIO_ASSIST', 00H
	ORG $+7
$SG168799 DB	'HERC_SIGP_SETARCH_S370', 00H
	ORG $+1
$SG168800 DB	'HERC_VIRTUAL_MACHINE', 00H
	ORG $+3
$SG168801 DB	'HERC_TCPIP_EXTENSION', 00H
	ORG $+3
$SG168802 DB	'HERC_TCPIP_PROB_STATE', 00H
	ORG $+2
s390_facs_tab DQ 0000000000000000H
	DQ	0000000000000000H
	DQ	FLAT:$SG178228
	DQ	0000000000000000H
	DD	00H
	DD	040H
	DD	040H
	DD	00H
	DQ	0000000000000000H
	DQ	0000000000000000H
	DQ	FLAT:$SG178229
	DQ	0000000000000000H
	DD	01H
	DD	060H
	DD	060H
	DD	060H
	DQ	0000000000000000H
	DQ	0000000000000000H
	DQ	FLAT:$SG178230
	DQ	0000000000000000H
	DD	07H
	DD	040H
	DD	040H
	DD	00H
	DQ	0000000000000000H
	DQ	0000000000000000H
	DQ	FLAT:$SG178231
	DQ	0000000000000000H
	DD	0cH
	DD	00H
	DD	00H
	DD	00H
	DQ	0000000000000000H
	DQ	0000000000000000H
	DQ	FLAT:$SG178232
	DQ	0000000000000000H
	DD	0eH
	DD	00H
	DD	00H
	DD	00H
	DQ	0000000000000000H
	DQ	0000000000000000H
	DQ	FLAT:$SG178233
	DQ	0000000000000000H
	DD	0fH
	DD	00H
	DD	00H
	DD	00H
	DQ	0000000000000000H
	DQ	0000000000000000H
	DQ	FLAT:$SG178234
	DQ	0000000000000000H
	DD	010H
	DD	040H
	DD	040H
	DD	00H
	DQ	0000000000000000H
	DQ	0000000000000000H
	DQ	FLAT:$SG178235
	DQ	0000000000000000H
	DD	011H
	DD	040H
	DD	040H
	DD	00H
	DQ	0000000000000000H
	DQ	0000000000000000H
	DQ	FLAT:$SG178236
	DQ	0000000000000000H
	DD	014H
	DD	040H
	DD	040H
	DD	00H
	DQ	0000000000000000H
	DQ	0000000000000000H
	DQ	FLAT:$SG178237
	DQ	0000000000000000H
	DD	018H
	DD	040H
	DD	040H
	DD	00H
	DQ	0000000000000000H
	DQ	0000000000000000H
	DQ	FLAT:$SG178238
	DQ	0000000000000000H
	DD	01dH
	DD	00H
	DD	00H
	DD	00H
	DQ	0000000000000000H
	DQ	0000000000000000H
	DQ	FLAT:$SG178239
	DQ	0000000000000000H
	DD	027H
	DD	00H
	DD	00H
	DD	00H
	DQ	0000000000000000H
	DQ	0000000000000000H
	DQ	FLAT:$SG178240
	DQ	0000000000000000H
	DD	02eH
	DD	00H
	DD	00H
	DD	00H
	DQ	0000000000000000H
	DQ	0000000000000000H
	DQ	FLAT:$SG178241
	DQ	0000000000000000H
	DD	034H
	DD	040H
	DD	040H
	DD	00H
	DQ	0000000000000000H
	DQ	0000000000000000H
	DQ	FLAT:$SG178242
	DQ	0000000000000000H
	DD	037H
	DD	00H
	DD	00H
	DD	00H
	DQ	0000000000000000H
	DQ	0000000000000000H
	DQ	FLAT:$SG178243
	DQ	0000000000000000H
	DD	038H
	DD	00H
	DD	00H
	DD	00H
	DQ	0000000000000000H
	DQ	0000000000000000H
	DQ	FLAT:$SG178244
	DQ	0000000000000000H
	DD	03bH
	DD	00H
	DD	00H
	DD	00H
	DQ	0000000000000000H
	DQ	0000000000000000H
	DQ	FLAT:$SG178245
	DQ	0000000000000000H
	DD	03cH
	DD	00H
	DD	00H
	DD	00H
	DQ	0000000000000000H
	DQ	0000000000000000H
	DQ	FLAT:$SG178246
	DQ	0000000000000000H
	DD	03eH
	DD	00H
	DD	00H
	DD	00H
	DQ	0000000000000000H
	DQ	0000000000000000H
	DQ	FLAT:$SG178247
	DQ	0000000000000000H
	DD	03fH
	DD	00H
	DD	00H
	DD	00H
	DQ	0000000000000000H
	DQ	0000000000000000H
	DQ	FLAT:$SG178248
	DQ	0000000000000000H
	DD	040H
	DD	00H
	DD	00H
	DD	00H
	DQ	0000000000000000H
	DQ	0000000000000000H
	DQ	FLAT:$SG178249
	DQ	0000000000000000H
	DD	041H
	DD	00H
	DD	00H
	DD	00H
	DQ	0000000000000000H
	DQ	0000000000000000H
	DQ	FLAT:$SG178250
	DQ	0000000000000000H
	DD	045H
	DD	00H
	DD	00H
	DD	00H
	DQ	0000000000000000H
	DQ	0000000000000000H
	DQ	FLAT:$SG178251
	DQ	0000000000000000H
	DD	046H
	DD	00H
	DD	00H
	DD	00H
	DQ	0000000000000000H
	DQ	0000000000000000H
	DQ	FLAT:$SG178252
	DQ	0000000000000000H
	DD	047H
	DD	00H
	DD	00H
	DD	00H
	DQ	0000000000000000H
	DQ	0000000000000000H
	DQ	FLAT:$SG178253
	DQ	0000000000000000H
	DD	048H
	DD	00H
	DD	00H
	DD	00H
	DQ	0000000000000000H
	DQ	0000000000000000H
	DQ	FLAT:$SG178254
	DQ	0000000000000000H
	DD	04fH
	DD	00H
	DD	00H
	DD	00H
	DQ	0000000000000000H
	DQ	0000000000000000H
	DQ	FLAT:$SG178255
	DQ	0000000000000000H
	DD	052H
	DD	00H
	DD	00H
	DD	00H
	DQ	0000000000000000H
	DQ	0000000000000000H
	DQ	FLAT:$SG178256
	DQ	0000000000000000H
	DD	053H
	DD	00H
	DD	00H
	DD	00H
	DQ	0000000000000000H
	DQ	0000000000000000H
	DQ	FLAT:$SG178257
	DQ	0000000000000000H
	DD	054H
	DD	00H
	DD	00H
	DD	00H
	DQ	0000000000000000H
	DQ	0000000000000000H
	DQ	FLAT:$SG178258
	DQ	0000000000000000H
	DD	055H
	DD	00H
	DD	00H
	DD	00H
	DQ	0000000000000000H
	DQ	0000000000000000H
	DQ	FLAT:$SG178259
	DQ	0000000000000000H
	DD	056H
	DD	00H
	DD	00H
	DD	00H
	DQ	0000000000000000H
	DQ	0000000000000000H
	DQ	FLAT:$SG178260
	DQ	0000000000000000H
	DD	057H
	DD	00H
	DD	00H
	DD	00H
	DQ	0000000000000000H
	DQ	0000000000000000H
	DQ	FLAT:$SG178261
	DQ	0000000000000000H
	DD	058H
	DD	00H
	DD	00H
	DD	00H
	DQ	0000000000000000H
	DQ	0000000000000000H
	DQ	FLAT:$SG178262
	DQ	0000000000000000H
	DD	059H
	DD	00H
	DD	00H
	DD	00H
	DQ	0000000000000000H
	DQ	0000000000000000H
	DQ	FLAT:$SG178263
	DQ	0000000000000000H
	DD	05aH
	DD	00H
	DD	00H
	DD	00H
	DQ	0000000000000000H
	DQ	0000000000000000H
	DQ	FLAT:$SG178264
	DQ	0000000000000000H
	DD	05bH
	DD	00H
	DD	00H
	DD	00H
	DQ	0000000000000000H
	DQ	0000000000000000H
	DQ	FLAT:$SG178265
	DQ	0000000000000000H
	DD	05cH
	DD	00H
	DD	00H
	DD	00H
	DQ	0000000000000000H
	DQ	0000000000000000H
	DQ	FLAT:$SG178266
	DQ	0000000000000000H
	DD	05dH
	DD	00H
	DD	00H
	DD	00H
	DQ	0000000000000000H
	DQ	0000000000000000H
	DQ	FLAT:$SG178267
	DQ	0000000000000000H
	DD	05eH
	DD	00H
	DD	00H
	DD	00H
	DQ	0000000000000000H
	DQ	0000000000000000H
	DQ	FLAT:$SG178268
	DQ	0000000000000000H
	DD	05fH
	DD	00H
	DD	00H
	DD	00H
	DQ	0000000000000000H
	DQ	0000000000000000H
	DQ	FLAT:$SG178269
	DQ	0000000000000000H
	DD	060H
	DD	00H
	DD	00H
	DD	00H
	DQ	0000000000000000H
	DQ	0000000000000000H
	DQ	FLAT:$SG178270
	DQ	0000000000000000H
	DD	061H
	DD	00H
	DD	00H
	DD	00H
	DQ	0000000000000000H
	DQ	0000000000000000H
	DQ	FLAT:$SG178271
	DQ	0000000000000000H
	DD	062H
	DD	00H
	DD	00H
	DD	00H
	DQ	0000000000000000H
	DQ	0000000000000000H
	DQ	FLAT:$SG178272
	DQ	0000000000000000H
	DD	063H
	DD	00H
	DD	00H
	DD	00H
	DQ	0000000000000000H
	DQ	0000000000000000H
	DQ	FLAT:$SG178273
	DQ	0000000000000000H
	DD	064H
	DD	00H
	DD	00H
	DD	00H
	DQ	0000000000000000H
	DQ	0000000000000000H
	DQ	FLAT:$SG178274
	DQ	0000000000000000H
	DD	065H
	DD	00H
	DD	00H
	DD	00H
	DQ	0000000000000000H
	DQ	0000000000000000H
	DQ	FLAT:$SG178275
	DQ	0000000000000000H
	DD	066H
	DD	00H
	DD	00H
	DD	00H
	DQ	0000000000000000H
	DQ	0000000000000000H
	DQ	FLAT:$SG178276
	DQ	0000000000000000H
	DD	067H
	DD	00H
	DD	00H
	DD	00H
	DQ	0000000000000000H
	DQ	0000000000000000H
	DQ	FLAT:$SG178277
	DQ	0000000000000000H
	DD	068H
	DD	00H
	DD	00H
	DD	00H
	DQ	0000000000000000H
	DQ	0000000000000000H
	DQ	FLAT:$SG178278
	DQ	0000000000000000H
	DD	069H
	DD	00H
	DD	00H
	DD	00H
	DQ	0000000000000000H
	DQ	0000000000000000H
	DQ	FLAT:$SG178279
	DQ	0000000000000000H
	DD	06aH
	DD	00H
	DD	00H
	DD	00H
	DQ	0000000000000000H
	DQ	0000000000000000H
	DQ	FLAT:$SG178280
	DQ	0000000000000000H
	DD	06bH
	DD	00H
	DD	00H
	DD	00H
	DQ	0000000000000000H
	DQ	0000000000000000H
	DQ	FLAT:$SG178281
	DQ	0000000000000000H
	DD	06cH
	DD	00H
	DD	00H
	DD	00H
	DQ	0000000000000000H
	DQ	0000000000000000H
	DQ	FLAT:$SG178282
	DQ	0000000000000000H
	DD	06dH
	DD	00H
	DD	00H
	DD	00H
	DQ	0000000000000000H
	DQ	0000000000000000H
	DQ	FLAT:$SG178283
	DQ	0000000000000000H
	DD	06eH
	DD	00H
	DD	00H
	DD	00H
	DQ	0000000000000000H
	DQ	0000000000000000H
	DQ	FLAT:$SG178284
	DQ	0000000000000000H
	DD	06fH
	DD	00H
	DD	00H
	DD	00H
	DQ	0000000000000000H
	DQ	0000000000000000H
	DQ	FLAT:$SG178285
	DQ	0000000000000000H
	DD	070H
	DD	00H
	DD	00H
	DD	00H
	DQ	0000000000000000H
	DQ	0000000000000000H
	DQ	FLAT:$SG178286
	DQ	0000000000000000H
	DD	071H
	DD	00H
	DD	00H
	DD	00H
	DQ	0000000000000000H
	DQ	0000000000000000H
	DQ	FLAT:$SG178287
	DQ	0000000000000000H
	DD	072H
	DD	00H
	DD	00H
	DD	00H
	DQ	0000000000000000H
	DQ	0000000000000000H
	DQ	FLAT:$SG178288
	DQ	0000000000000000H
	DD	073H
	DD	00H
	DD	00H
	DD	00H
	DQ	0000000000000000H
	DQ	0000000000000000H
	DQ	FLAT:$SG178289
	DQ	0000000000000000H
	DD	074H
	DD	00H
	DD	00H
	DD	00H
	DQ	0000000000000000H
	DQ	0000000000000000H
	DQ	FLAT:$SG178290
	DQ	0000000000000000H
	DD	075H
	DD	00H
	DD	00H
	DD	00H
	DQ	0000000000000000H
	DQ	0000000000000000H
	DQ	FLAT:$SG178291
	DQ	0000000000000000H
	DD	076H
	DD	00H
	DD	00H
	DD	00H
	DQ	0000000000000000H
	DQ	0000000000000000H
	DQ	FLAT:$SG178292
	DQ	0000000000000000H
	DD	077H
	DD	00H
	DD	00H
	DD	00H
	DQ	0000000000000000H
	DQ	0000000000000000H
	DQ	FLAT:$SG178293
	DQ	0000000000000000H
	DD	078H
	DD	00H
	DD	00H
	DD	00H
	DQ	0000000000000000H
	DQ	0000000000000000H
	DQ	FLAT:$SG178294
	DQ	0000000000000000H
	DD	079H
	DD	00H
	DD	00H
	DD	00H
	DQ	0000000000000000H
	DQ	0000000000000000H
	DQ	FLAT:$SG178295
	DQ	0000000000000000H
	DD	07aH
	DD	00H
	DD	00H
	DD	00H
	DQ	0000000000000000H
	DQ	0000000000000000H
	DQ	FLAT:$SG178296
	DQ	0000000000000000H
	DD	07bH
	DD	00H
	DD	00H
	DD	00H
	DQ	0000000000000000H
	DQ	0000000000000000H
	DQ	FLAT:$SG178297
	DQ	0000000000000000H
	DD	07cH
	DD	00H
	DD	00H
	DD	00H
	DQ	0000000000000000H
	DQ	0000000000000000H
	DQ	FLAT:$SG178298
	DQ	0000000000000000H
	DD	07dH
	DD	00H
	DD	00H
	DD	00H
	DQ	0000000000000000H
	DQ	0000000000000000H
	DQ	FLAT:$SG178299
	DQ	0000000000000000H
	DD	07eH
	DD	00H
	DD	00H
	DD	00H
	DQ	0000000000000000H
	DQ	0000000000000000H
	DQ	FLAT:$SG178300
	DQ	0000000000000000H
	DD	07fH
	DD	00H
	DD	00H
	DD	00H
	DQ	0000000000000000H
	DQ	0000000000000000H
	DQ	FLAT:$SG178301
	DQ	0000000000000000H
	DD	080H
	DD	00H
	DD	00H
	DD	00H
	DQ	0000000000000000H
	DQ	0000000000000000H
	DQ	FLAT:$SG178302
	DQ	0000000000000000H
	DD	084H
	DD	00H
	DD	00H
	DD	00H
	DQ	0000000000000000H
	DQ	0000000000000000H
	DQ	FLAT:$SG178303
	DQ	0000000000000000H
	DD	088H
	DD	00H
	DD	00H
	DD	00H
	DQ	0000000000000000H
	DQ	0000000000000000H
	DQ	FLAT:$SG178304
	DQ	0000000000000000H
	DD	089H
	DD	00H
	DD	00H
	DD	00H
	DQ	0000000000000000H
	DQ	0000000000000000H
	DQ	FLAT:$SG178305
	DQ	0000000000000000H
	DD	08cH
	DD	00H
	DD	00H
	DD	00H
	DQ	0000000000000000H
	DQ	0000000000000000H
	DQ	FLAT:$SG178306
	DQ	0000000000000000H
	DD	08dH
	DD	00H
	DD	00H
	DD	00H
	DQ	0000000000000000H
	DQ	0000000000000000H
	DQ	FLAT:$SG178307
	DQ	0000000000000000H
	DD	08fH
	DD	00H
	DD	00H
	DD	00H
	DQ	0000000000000000H
	DQ	0000000000000000H
	DQ	FLAT:$SG178308
	DQ	0000000000000000H
	DD	093H
	DD	00H
	DD	00H
	DD	00H
	DQ	0000000000000000H
	DQ	0000000000000000H
	DQ	FLAT:$SG178309
	DQ	0000000000000000H
	DD	099H
	DD	00H
	DD	00H
	DD	00H
	DQ	0000000000000000H
	DQ	0000000000000000H
	DQ	FLAT:$SG178310
	DQ	0000000000000000H
	DD	09aH
	DD	00H
	DD	00H
	DD	00H
	DQ	0000000000000000H
	DQ	0000000000000000H
	DQ	FLAT:$SG178311
	DQ	0000000000000000H
	DD	09cH
	DD	00H
	DD	00H
	DD	00H
	DQ	0000000000000000H
	DQ	0000000000000000H
	DQ	FLAT:$SG178312
	DQ	0000000000000000H
	DD	09dH
	DD	00H
	DD	00H
	DD	00H
	DQ	0000000000000000H
	DQ	0000000000000000H
	DQ	FLAT:$SG178313
	DQ	0000000000000000H
	DD	09fH
	DD	00H
	DD	00H
	DD	00H
	DQ	0000000000000000H
	DQ	0000000000000000H
	DQ	FLAT:$SG178314
	DQ	0000000000000000H
	DD	0a0H
	DD	00H
	DD	00H
	DD	00H
	DQ	0000000000000000H
	DQ	0000000000000000H
	DQ	FLAT:$SG178315
	DQ	0000000000000000H
	DD	0a2H
	DD	00H
	DD	00H
	DD	00H
	DQ	0000000000000000H
	DQ	0000000000000000H
	DQ	FLAT:$SG178316
	DQ	0000000000000000H
	DD	0a3H
	DD	00H
	DD	00H
	DD	00H
	DQ	0000000000000000H
	DQ	0000000000000000H
	DQ	FLAT:$SG178317
	DQ	0000000000000000H
	DD	0a4H
	DD	00H
	DD	00H
	DD	00H
	DQ	0000000000000000H
	DQ	0000000000000000H
	DQ	FLAT:$SG178318
	DQ	0000000000000000H
	DD	0a6H
	DD	00H
	DD	00H
	DD	00H
	DQ	0000000000000000H
	DQ	0000000000000000H
	DQ	FLAT:$SG178319
	DQ	0000000000000000H
	DD	0a7H
	DD	00H
	DD	00H
	DD	00H
	DQ	0000000000000000H
	DQ	0000000000000000H
	DQ	FLAT:$SG178320
	DQ	0000000000000000H
	DD	0aaH
	DD	00H
	DD	00H
	DD	00H
	DQ	0000000000000000H
	DQ	0000000000000000H
	DQ	FLAT:$SG178321
	DQ	0000000000000000H
	DD	0abH
	DD	00H
	DD	00H
	DD	00H
	DQ	0000000000000000H
	DQ	0000000000000000H
	DQ	FLAT:$SG178322
	DQ	0000000000000000H
	DD	0acH
	DD	00H
	DD	00H
	DD	00H
	DQ	0000000000000000H
	DQ	0000000000000000H
	DQ	FLAT:$SG178323
	DQ	0000000000000000H
	DD	0adH
	DD	00H
	DD	00H
	DD	00H
	DQ	0000000000000000H
	DQ	0000000000000000H
	DQ	FLAT:$SG178324
	DQ	0000000000000000H
	DD	0aeH
	DD	00H
	DD	00H
	DD	00H
	DQ	0000000000000000H
	DQ	0000000000000000H
	DQ	FLAT:$SG178325
	DQ	0000000000000000H
	DD	0afH
	DD	00H
	DD	00H
	DD	00H
	DQ	0000000000000000H
	DQ	0000000000000000H
	DQ	FLAT:$SG178326
	DQ	0000000000000000H
	DD	0b0H
	DD	00H
	DD	00H
	DD	00H
	DQ	0000000000000000H
	DQ	0000000000000000H
	DQ	FLAT:$SG178327
	DQ	0000000000000000H
	DD	0b1H
	DD	00H
	DD	00H
	DD	00H
	DQ	0000000000000000H
	DQ	0000000000000000H
	DQ	FLAT:$SG178328
	DQ	0000000000000000H
	DD	0b2H
	DD	00H
	DD	00H
	DD	00H
	DQ	0000000000000000H
	DQ	0000000000000000H
	DQ	FLAT:$SG178329
	DQ	0000000000000000H
	DD	0b3H
	DD	00H
	DD	00H
	DD	00H
	DQ	0000000000000000H
	DQ	0000000000000000H
	DQ	FLAT:$SG178330
	DQ	0000000000000000H
	DD	0b4H
	DD	00H
	DD	00H
	DD	00H
	DQ	0000000000000000H
	DQ	0000000000000000H
	DQ	FLAT:$SG178331
	DQ	0000000000000000H
	DD	0b5H
	DD	00H
	DD	00H
	DD	00H
	DQ	0000000000000000H
	DQ	0000000000000000H
	DQ	FLAT:$SG178332
	DQ	0000000000000000H
	DD	0b6H
	DD	00H
	DD	00H
	DD	00H
	DQ	0000000000000000H
	DQ	0000000000000000H
	DQ	FLAT:$SG178333
	DQ	0000000000000000H
	DD	0b7H
	DD	00H
	DD	00H
	DD	00H
	DQ	0000000000000000H
	DQ	0000000000000000H
	DQ	FLAT:$SG178334
	DQ	0000000000000000H
	DD	0b8H
	DD	00H
	DD	00H
	DD	00H
	DQ	0000000000000000H
	DQ	0000000000000000H
	DQ	FLAT:$SG178335
	DQ	0000000000000000H
	DD	0b9H
	DD	00H
	DD	00H
	DD	00H
	DQ	0000000000000000H
	DQ	0000000000000000H
	DQ	FLAT:$SG178336
	DQ	0000000000000000H
	DD	0baH
	DD	00H
	DD	00H
	DD	00H
	DQ	0000000000000000H
	DQ	0000000000000000H
	DQ	FLAT:$SG178337
	DQ	0000000000000000H
	DD	0bbH
	DD	00H
	DD	00H
	DD	00H
	DQ	0000000000000000H
	DQ	0000000000000000H
	DQ	FLAT:$SG178338
	DQ	0000000000000000H
	DD	0bcH
	DD	00H
	DD	00H
	DD	00H
	DQ	0000000000000000H
	DQ	0000000000000000H
	DQ	FLAT:$SG178339
	DQ	0000000000000000H
	DD	0bdH
	DD	00H
	DD	00H
	DD	00H
	DQ	0000000000000000H
	DQ	0000000000000000H
	DQ	FLAT:$SG178340
	DQ	0000000000000000H
	DD	0beH
	DD	00H
	DD	00H
	DD	00H
	DQ	0000000000000000H
	DQ	0000000000000000H
	DQ	FLAT:$SG178341
	DQ	0000000000000000H
	DD	0bfH
	DD	00H
	DD	00H
	DD	00H
	DQ	0000000000000000H
	DQ	0000000000000000H
	DQ	FLAT:$SG178342
	DQ	0000000000000000H
	DD	0c3H
	DD	00H
	DD	00H
	DD	00H
	DQ	0000000000000000H
	DQ	0000000000000000H
	DQ	FLAT:$SG178343
	DQ	0000000000000000H
	DD	0c6H
	DD	00H
	DD	00H
	DD	00H
	DQ	0000000000000000H
	DQ	0000000000000000H
	DQ	FLAT:$SG178344
	DQ	0000000000000000H
	DD	0c7H
	DD	00H
	DD	00H
	DD	00H
	DQ	0000000000000000H
	DQ	0000000000000000H
	DQ	FLAT:$SG178345
	DQ	0000000000000000H
	DD	0c8H
	DD	00H
	DD	00H
	DD	00H
	DQ	0000000000000000H
	DQ	0000000000000000H
	DQ	FLAT:$SG178346
	DQ	0000000000000000H
	DD	0101H
	DD	040H
	DD	040H
	DD	00H
	DQ	0000000000000000H
	DQ	0000000000000000H
	DQ	FLAT:$SG178347
	DQ	0000000000000000H
	DD	0102H
	DD	040H
	DD	00H
	DD	00H
	DQ	0000000000000000H
	DQ	0000000000000000H
	DQ	FLAT:$SG178348
	DQ	0000000000000000H
	DD	0104H
	DD	040H
	DD	040H
	DD	00H
	DQ	0000000000000000H
	DQ	0000000000000000H
	DQ	FLAT:$SG178349
	DQ	0000000000000000H
	DD	0105H
	DD	040H
	DD	040H
	DD	00H
	DQ	0000000000000000H
	DQ	0000000000000000H
	DQ	FLAT:$SG178350
	DQ	0000000000000000H
	DD	0106H
	DD	040H
	DD	040H
	DD	00H
	DQ	0000000000000000H
	DQ	0000000000000000H
	DQ	FLAT:$SG178351
	DQ	0000000000000000H
	DD	0107H
	DD	040H
	DD	040H
	DD	00H
	DQ	0000000000000000H
	DQ	0000000000000000H
	DQ	FLAT:$SG178352
	DQ	0000000000000000H
	DD	0108H
	DD	040H
	DD	00H
	DD	00H
	DQ	0000000000000000H
	DQ	0000000000000000H
	DQ	FLAT:$SG178353
	DQ	0000000000000000H
	DD	0109H
	DD	040H
	DD	00H
	DD	00H
	DQ	0000000000000000H
	DQ	0000000000000000H
	DQ	FLAT:$SG178354
	DQ	0000000000000000H
	DD	010dH
	DD	040H
	DD	00H
	DD	00H
	DQ	0000000000000000H
	DQ	0000000000000000H
	DQ	FLAT:$SG178355
	DQ	0000000000000000H
	DD	010fH
	DD	040H
	DD	00H
	DD	00H
$SG178228 DB	'000_N3_INSTR', 00H
	ORG $+3
$SG178229 DB	'001_ZARCH_INSTALLED', 00H
	ORG $+4
$SG178230 DB	'007_STFL_EXTENDED', 00H
	ORG $+6
$SG178231 DB	'012_IBM_INTERNAL', 00H
	ORG $+7
$SG178232 DB	'014_NONQ_KEY_SET', 00H
	ORG $+7
$SG178233 DB	'015_IBM_INTERNAL', 00H
	ORG $+7
$SG178234 DB	'016_EXT_TRANSL_2', 00H
	ORG $+7
$SG178235 DB	'017_MSA', 00H
$SG178236 DB	'020_HFP_MULT_ADD_SUB', 00H
	ORG $+3
$SG178237 DB	'024_ETF2_ENHANCEMENT', 00H
	ORG $+3
$SG178238 DB	'029_UNDEFINED', 00H
	ORG $+2
$SG178239 DB	'039_IBM_INTERNAL', 00H
	ORG $+7
$SG178240 DB	'046_IBM_INTERNAL', 00H
	ORG $+7
$SG178241 DB	'052_INTERLOCKED_ACCESS_2', 00H
	ORG $+7
$SG178242 DB	'055_IBM_INTERNAL', 00H
	ORG $+7
$SG178243 DB	'056_UNDEFINED', 00H
	ORG $+2
$SG178244 DB	'059_IBM_INTERNAL', 00H
	ORG $+7
$SG178245 DB	'060_IBM_INTERNAL', 00H
	ORG $+7
$SG178246 DB	'062_IBM_INTERNAL', 00H
	ORG $+7
$SG178247 DB	'063_IBM_INTERNAL', 00H
	ORG $+7
$SG178248 DB	'064_IBM_INTERNAL', 00H
	ORG $+7
$SG178249 DB	'065_IBM_INTERNAL', 00H
	ORG $+7
$SG178250 DB	'069_IBM_INTERNAL', 00H
	ORG $+7
$SG178251 DB	'070_IBM_INTERNAL', 00H
	ORG $+7
$SG178252 DB	'071_IBM_INTERNAL', 00H
	ORG $+7
$SG178253 DB	'072_IBM_INTERNAL', 00H
	ORG $+7
$SG178254 DB	'079_UNDEFINED', 00H
	ORG $+2
$SG178255 DB	'082_IBM_INTERNAL', 00H
	ORG $+7
$SG178256 DB	'083_UNDEFINED', 00H
	ORG $+2
$SG178257 DB	'084_UNDEFINED', 00H
	ORG $+2
$SG178258 DB	'085_UNDEFINED', 00H
	ORG $+2
$SG178259 DB	'086_UNDEFINED', 00H
	ORG $+2
$SG178260 DB	'087_UNDEFINED', 00H
	ORG $+2
$SG178261 DB	'088_UNDEFINED', 00H
	ORG $+2
$SG178262 DB	'089_UNDEFINED', 00H
	ORG $+2
$SG178263 DB	'090_UNDEFINED', 00H
	ORG $+2
$SG178264 DB	'091_UNDEFINED', 00H
	ORG $+2
$SG178265 DB	'092_UNDEFINED', 00H
	ORG $+2
$SG178266 DB	'093_UNDEFINED', 00H
	ORG $+2
$SG178267 DB	'094_UNDEFINED', 00H
	ORG $+2
$SG178268 DB	'095_UNDEFINED', 00H
	ORG $+2
$SG178269 DB	'096_UNDEFINED', 00H
	ORG $+2
$SG178270 DB	'097_UNDEFINED', 00H
	ORG $+2
$SG178271 DB	'098_UNDEFINED', 00H
	ORG $+2
$SG178272 DB	'099_UNDEFINED', 00H
	ORG $+2
$SG178273 DB	'100_UNDEFINED', 00H
	ORG $+2
$SG178274 DB	'101_UNDEFINED', 00H
	ORG $+2
$SG178275 DB	'102_UNDEFINED', 00H
	ORG $+2
$SG178276 DB	'103_UNDEFINED', 00H
	ORG $+2
$SG178277 DB	'104_UNDEFINED', 00H
	ORG $+2
$SG178278 DB	'105_UNDEFINED', 00H
	ORG $+2
$SG178279 DB	'106_UNDEFINED', 00H
	ORG $+2
$SG178280 DB	'107_UNDEFINED', 00H
	ORG $+2
$SG178281 DB	'108_UNDEFINED', 00H
	ORG $+2
$SG178282 DB	'109_UNDEFINED', 00H
	ORG $+2
$SG178283 DB	'110_UNDEFINED', 00H
	ORG $+2
$SG178284 DB	'111_UNDEFINED', 00H
	ORG $+2
$SG178285 DB	'112_UNDEFINED', 00H
	ORG $+2
$SG178286 DB	'113_UNDEFINED', 00H
	ORG $+2
$SG178287 DB	'114_UNDEFINED', 00H
	ORG $+2
$SG178288 DB	'115_UNDEFINED', 00H
	ORG $+2
$SG178289 DB	'116_UNDEFINED', 00H
	ORG $+2
$SG178290 DB	'117_UNDEFINED', 00H
	ORG $+2
$SG178291 DB	'118_UNDEFINED', 00H
	ORG $+2
$SG178292 DB	'119_UNDEFINED', 00H
	ORG $+2
$SG178293 DB	'120_UNDEFINED', 00H
	ORG $+2
$SG178294 DB	'121_UNDEFINED', 00H
	ORG $+2
$SG178295 DB	'122_UNDEFINED', 00H
	ORG $+2
$SG178296 DB	'123_UNDEFINED', 00H
	ORG $+2
$SG178297 DB	'124_UNDEFINED', 00H
	ORG $+2
$SG178298 DB	'125_UNDEFINED', 00H
	ORG $+2
$SG178299 DB	'126_UNDEFINED', 00H
	ORG $+2
$SG178300 DB	'127_UNDEFINED', 00H
	ORG $+2
$SG178301 DB	'128_IBM_INTERNAL', 00H
	ORG $+7
$SG178302 DB	'132_UNDEFINED', 00H
	ORG $+2
$SG178303 DB	'136_UNDEFINED', 00H
	ORG $+2
$SG178304 DB	'137_UNDEFINED', 00H
	ORG $+2
$SG178305 DB	'140_IBM_INTERNAL', 00H
	ORG $+7
$SG178306 DB	'141_IBM_INTERNAL', 00H
	ORG $+7
$SG178307 DB	'143_UNDEFINED', 00H
	ORG $+2
$SG178308 DB	'147_IBM_RESERVED', 00H
	ORG $+7
$SG178309 DB	'153_IBM_INTERNAL', 00H
	ORG $+7
$SG178310 DB	'154_UNDEFINED', 00H
	ORG $+2
$SG178311 DB	'156_IBM_INTERNAL', 00H
	ORG $+7
$SG178312 DB	'157_UNDEFINED', 00H
	ORG $+2
$SG178313 DB	'159_UNDEFINED', 00H
	ORG $+2
$SG178314 DB	'160_UNDEFINED', 00H
	ORG $+2
$SG178315 DB	'162_UNDEFINED', 00H
	ORG $+2
$SG178316 DB	'163_UNDEFINED', 00H
	ORG $+2
$SG178317 DB	'164_UNDEFINED', 00H
	ORG $+2
$SG178318 DB	'166_UNDEFINED', 00H
	ORG $+2
$SG178319 DB	'167_UNDEFINED', 00H
	ORG $+2
$SG178320 DB	'170_UNDEFINED', 00H
	ORG $+2
$SG178321 DB	'171_UNDEFINED', 00H
	ORG $+2
$SG178322 DB	'172_UNDEFINED', 00H
	ORG $+2
$SG178323 DB	'173_UNDEFINED', 00H
	ORG $+2
$SG178324 DB	'174_UNDEFINED', 00H
	ORG $+2
$SG178325 DB	'175_UNDEFINED', 00H
	ORG $+2
$SG178326 DB	'176_UNDEFINED', 00H
	ORG $+2
$SG178327 DB	'177_UNDEFINED', 00H
	ORG $+2
$SG178328 DB	'178_UNDEFINED', 00H
	ORG $+2
$SG178329 DB	'179_UNDEFINED', 00H
	ORG $+2
$SG178330 DB	'180_UNDEFINED', 00H
	ORG $+2
$SG178331 DB	'181_UNDEFINED', 00H
	ORG $+2
$SG178332 DB	'182_UNDEFINED', 00H
	ORG $+2
$SG178333 DB	'183_UNDEFINED', 00H
	ORG $+2
$SG178334 DB	'184_UNDEFINED', 00H
	ORG $+2
$SG178335 DB	'185_UNDEFINED', 00H
	ORG $+2
$SG178336 DB	'186_UNDEFINED', 00H
	ORG $+2
$SG178337 DB	'187_UNDEFINED', 00H
	ORG $+2
$SG178338 DB	'188_UNDEFINED', 00H
	ORG $+2
$SG178339 DB	'189_UNDEFINED', 00H
	ORG $+2
$SG178340 DB	'190_UNDEFINED', 00H
	ORG $+2
$SG178341 DB	'191_UNDEFINED', 00H
	ORG $+2
$SG178342 DB	'195_UNDEFINED', 00H
	ORG $+2
$SG178343 DB	'198_UNDEFINED', 00H
	ORG $+2
$SG178344 DB	'199_UNDEFINED', 00H
	ORG $+2
$SG178345 DB	'200_UNDEFINED', 00H
	ORG $+2
$SG178346 DB	'HERC_DETECT_PGMINTLOOP', 00H
	ORG $+1
$SG178347 DB	'HERC_HOST_RESOURCE_ACCESS', 00H
	ORG $+6
$SG178348 DB	'HERC_LOGICAL_PARTITION', 00H
	ORG $+1
$SG178349 DB	'HERC_MOVE_INVERSE', 00H
	ORG $+6
$SG178350 DB	'HERC_MSA_EXTENSION_1', 00H
	ORG $+3
$SG178351 DB	'HERC_MSA_EXTENSION_2', 00H
	ORG $+3
$SG178352 DB	'HERC_PROBSTATE_DIAGF08', 00H
	ORG $+1
$SG178353 DB	'HERC_QDIO_ASSIST', 00H
	ORG $+7
$SG178354 DB	'HERC_SIGP_SETARCH_S370', 00H
	ORG $+1
$SG178355 DB	'HERC_VIRTUAL_MACHINE', 00H
_DATA	ENDS
CONST	SEGMENT
CKD_ENDTRK DB	0ffH
	DB	0ffH
	DB	0ffH
	DB	0ffH
	DB	0ffH
	DB	0ffH
	DB	0ffH
	DB	0ffH
num_arch_ft_entries DQ 0000000000000098H
	DQ	0000000000000080H
	DQ	00000000000000c4H
?pgmck_instr_func_tab@?1??dis_fac_ins@@9@9 DQ FLAT:s370_facility_not_enabled ; `dis_fac_ins'::`2'::pgmck_instr_func_tab
	DQ	FLAT:s390_facility_not_enabled
	DQ	FLAT:z900_facility_not_enabled
?arch_to_hdl_arch_tab@?1??dis_fac_ins@@9@9 DD 080000000H ; `dis_fac_ins'::`2'::arch_to_hdl_arch_tab
	DD	040000000H
	DD	020000000H
	ORG $+12
?facils@?1??enable_disable_herc37X@@9@9 DD 00H		; `enable_disable_herc37X'::`2'::facils
	DD	010H
	DD	011H
	DD	012H
	DD	014H
	DD	015H
	DD	016H
	DD	017H
	DD	01aH
	DD	020H
	DD	022H
	DD	023H
	DD	02aH
	DD	025H
	DD	029H
	DD	029H
	DD	029H
	DD	029H
	DD	029H
	DD	02dH
	DD	02dH
	DD	02dH
	DD	02dH
	DD	02dH
	DD	02dH
	DD	04cH
	DD	04dH
CONST	ENDS
PUBLIC	__local_stdio_printf_options
PUBLIC	__local_stdio_scanf_options
PUBLIC	_vsnprintf_s_l
PUBLIC	_vsnprintf_s
PUBLIC	_vsscanf_l
PUBLIC	sscanf
PUBLIC	init_facilities_lists
PUBLIC	init_cpu_facilities
PUBLIC	facility_query
PUBLIC	facility_enable_disable
PUBLIC	facility_cmd
EXTRN	__imp_isdigit:PROC
EXTRN	__imp__stricmp:PROC
EXTRN	__imp__strnicmp:PROC
EXTRN	__imp_strdup:PROC
EXTRN	__imp_IsDebuggerPresent:PROC
EXTRN	__imp_OutputDebugStringA:PROC
EXTRN	__imp_free:PROC
EXTRN	__imp_malloc:PROC
EXTRN	__imp_qsort:PROC
EXTRN	__imp___acrt_iob_func:PROC
EXTRN	__imp___stdio_common_vsnprintf_s:PROC
EXTRN	__imp___stdio_common_vsscanf:PROC
EXTRN	__imp_hthread_obtain_lock:PROC
EXTRN	__imp_hthread_release_lock:PROC
EXTRN	__imp_hthread_signal_condition:PROC
EXTRN	__imp_hthread_wait_condition:PROC
EXTRN	__imp_strlcat:PROC
EXTRN	__imp_rtrim:PROC
EXTRN	__imp_parse_args:PROC
EXTRN	__imp_w32_snprintf:PROC
EXTRN	__imp_hdl_repins:PROC
EXTRN	s370_operation_exception:PROC
EXTRN	txf_model_warning:PROC
EXTRN	txf_set_timerint:PROC
EXTRN	__imp_fwritemsg:PROC
EXTRN	__imp_logmsg:PROC
EXTRN	get_arch_name_by_arch:PROC
EXTRN	get_archtab_by_arch:PROC
EXTRN	get_archtab_by_name:PROC
EXTRN	s390_operation_exception:PROC
EXTRN	z900_operation_exception:PROC
EXTRN	__GSHandlerCheck:PROC
EXTRN	__chkstk:PROC
EXTRN	__security_check_cookie:PROC
EXTRN	__imp_sysblk:BYTE
EXTRN	__security_cookie:QWORD
_DATA	SEGMENT
COMM	?_OptionsStorage@?1??__local_stdio_printf_options@@9@9:QWORD							; `__local_stdio_printf_options'::`2'::_OptionsStorage
COMM	?_OptionsStorage@?1??__local_stdio_scanf_options@@9@9:QWORD							; `__local_stdio_scanf_options'::`2'::_OptionsStorage
_DATA	ENDS
_BSS	SEGMENT
$SG193401 DB	01H DUP (?)
	ALIGN	8

?hdl_ins@?1??instr0@@9@9 DQ 03H DUP (?)			; `instr0'::`2'::hdl_ins
?hdl_ins@?1??instr3@@9@9 DQ 03H DUP (?)			; `instr3'::`2'::hdl_ins
?hdl_ins@?1??instr6@@9@9 DQ 03H DUP (?)			; `instr6'::`2'::hdl_ins
?hdl_ins@?1??instr7@@9@9 DQ 03H DUP (?)			; `instr7'::`2'::hdl_ins
?hdl_ins@?1??instr8@@9@9 DQ 03H DUP (?)			; `instr8'::`2'::hdl_ins
?hdl_ins@?1??instr11@@9@9 DQ 03H DUP (?)		; `instr11'::`2'::hdl_ins
?hdl_ins@?1??instr16@@9@9 DQ 03H DUP (?)		; `instr16'::`2'::hdl_ins
?hdl_ins@?1??instr17@@9@9 DQ 03H DUP (?)		; `instr17'::`2'::hdl_ins
?hdl_ins@?1??instr18@@9@9 DQ 03H DUP (?)		; `instr18'::`2'::hdl_ins
?hdl_ins@?1??instr20@@9@9 DQ 03H DUP (?)		; `instr20'::`2'::hdl_ins
?hdl_ins@?1??instr21@@9@9 DQ 03H DUP (?)		; `instr21'::`2'::hdl_ins
?hdl_ins@?1??instr22@@9@9 DQ 03H DUP (?)		; `instr22'::`2'::hdl_ins
?hdl_ins@?1??instr23@@9@9 DQ 03H DUP (?)		; `instr23'::`2'::hdl_ins
?hdl_ins@?1??instr25@@9@9 DQ 03H DUP (?)		; `instr25'::`2'::hdl_ins
?hdl_ins@?1??instr26@@9@9 DQ 03H DUP (?)		; `instr26'::`2'::hdl_ins
?hdl_ins@?1??instr27@@9@9 DQ 03H DUP (?)		; `instr27'::`2'::hdl_ins
?hdl_ins@?1??instr28@@9@9 DQ 03H DUP (?)		; `instr28'::`2'::hdl_ins
?hdl_ins@?1??instr31@@9@9 DQ 03H DUP (?)		; `instr31'::`2'::hdl_ins
?hdl_ins@?1??instr32@@9@9 DQ 03H DUP (?)		; `instr32'::`2'::hdl_ins
?hdl_ins@?1??instr34@@9@9 DQ 03H DUP (?)		; `instr34'::`2'::hdl_ins
?hdl_ins@?1??instr35@@9@9 DQ 03H DUP (?)		; `instr35'::`2'::hdl_ins
?hdl_ins@?1??instr37@@9@9 DQ 03H DUP (?)		; `instr37'::`2'::hdl_ins
?hdl_ins@?1??instr40@@9@9 DQ 03H DUP (?)		; `instr40'::`2'::hdl_ins
?hdl_ins@?1??instr41@@9@9 DQ 03H DUP (?)		; `instr41'::`2'::hdl_ins
?hdl_ins@?1??instr42@@9@9 DQ 03H DUP (?)		; `instr42'::`2'::hdl_ins
?hdl_ins@?1??instr44@@9@9 DQ 03H DUP (?)		; `instr44'::`2'::hdl_ins
?hdl_ins@?1??instr45@@9@9 DQ 03H DUP (?)		; `instr45'::`2'::hdl_ins
?hdl_ins@?1??instr48@@9@9 DQ 03H DUP (?)		; `instr48'::`2'::hdl_ins
?hdl_ins@?1??instr49@@9@9 DQ 03H DUP (?)		; `instr49'::`2'::hdl_ins
?hdl_ins@?1??instr50@@9@9 DQ 03H DUP (?)		; `instr50'::`2'::hdl_ins
?hdl_ins@?1??instr53@@9@9 DQ 03H DUP (?)		; `instr53'::`2'::hdl_ins
?hdl_ins@?1??instr57@@9@9 DQ 03H DUP (?)		; `instr57'::`2'::hdl_ins
?hdl_ins@?1??instr58@@9@9 DQ 03H DUP (?)		; `instr58'::`2'::hdl_ins
?hdl_ins@?1??instr61@@9@9 DQ 03H DUP (?)		; `instr61'::`2'::hdl_ins
?hdl_ins@?1??instr66@@9@9 DQ 03H DUP (?)		; `instr66'::`2'::hdl_ins
?hdl_ins@?1??instr67@@9@9 DQ 03H DUP (?)		; `instr67'::`2'::hdl_ins
?hdl_ins@?1??instr68@@9@9 DQ 03H DUP (?)		; `instr68'::`2'::hdl_ins
?hdl_ins@?1??instr73@@9@9 DQ 03H DUP (?)		; `instr73'::`2'::hdl_ins
?hdl_ins@?1??instr74@@9@9 DQ 03H DUP (?)		; `instr74'::`2'::hdl_ins
?hdl_ins@?1??instr76@@9@9 DQ 03H DUP (?)		; `instr76'::`2'::hdl_ins
?hdl_ins@?1??instr77@@9@9 DQ 03H DUP (?)		; `instr77'::`2'::hdl_ins
?hdl_ins@?1??instr78@@9@9 DQ 03H DUP (?)		; `instr78'::`2'::hdl_ins
?hdl_ins@?1??instr80@@9@9 DQ 03H DUP (?)		; `instr80'::`2'::hdl_ins
?hdl_ins@?1??instr129@@9@9 DQ 03H DUP (?)		; `instr129'::`2'::hdl_ins
?hdl_ins@?1??instr133@@9@9 DQ 03H DUP (?)		; `instr133'::`2'::hdl_ins
?hdl_ins@?1??instr134@@9@9 DQ 03H DUP (?)		; `instr134'::`2'::hdl_ins
?hdl_ins@?1??instr142@@9@9 DQ 03H DUP (?)		; `instr142'::`2'::hdl_ins
?hdl_ins@?1??instr144@@9@9 DQ 03H DUP (?)		; `instr144'::`2'::hdl_ins
?hdl_ins@?1??instr145@@9@9 DQ 03H DUP (?)		; `instr145'::`2'::hdl_ins
?hdl_ins@?1??instr146@@9@9 DQ 03H DUP (?)		; `instr146'::`2'::hdl_ins
?hdl_ins@?1??instr148@@9@9 DQ 03H DUP (?)		; `instr148'::`2'::hdl_ins
?hdl_ins@?1??instr150@@9@9 DQ 03H DUP (?)		; `instr150'::`2'::hdl_ins
?hdl_ins@?1??instr151@@9@9 DQ 03H DUP (?)		; `instr151'::`2'::hdl_ins
?hdl_ins@?1??instr155@@9@9 DQ 03H DUP (?)		; `instr155'::`2'::hdl_ins
?hdl_ins@?1??instr165@@9@9 DQ 03H DUP (?)		; `instr165'::`2'::hdl_ins
?hdl_ins@?1??instr192@@9@9 DQ 03H DUP (?)		; `instr192'::`2'::hdl_ins
?hdl_ins@?1??instr193@@9@9 DQ 03H DUP (?)		; `instr193'::`2'::hdl_ins
?hdl_ins@?1??instr194@@9@9 DQ 03H DUP (?)		; `instr194'::`2'::hdl_ins
?hdl_ins@?1??instr196@@9@9 DQ 03H DUP (?)		; `instr196'::`2'::hdl_ins
?hdl_ins@?1??hercmvcin@@9@9 DQ 03H DUP (?)		; `hercmvcin'::`2'::hdl_ins
?hdl_ins@?1??hercsvs@@9@9 DQ 03H DUP (?)		; `hercsvs'::`2'::hdl_ins
?hdl_ins@?1??hercessa@@9@9 DQ 03H DUP (?)		; `hercessa'::`2'::hdl_ins
?hdl_ins@?1??herc37X@@9@9 DQ 03H DUP (?)		; `herc37X'::`2'::hdl_ins
?hdl_ins@?1??herctcp@@9@9 DQ 03H DUP (?)		; `herctcp'::`2'::hdl_ins
$SG196359 DB	01H DUP (?)
_BSS	ENDS
;	COMDAT pdata
pdata	SEGMENT
$pdata$_vsnprintf_s_l DD imagerel $LN5
	DD	imagerel $LN5+127
	DD	imagerel $unwind$_vsnprintf_s_l
pdata	ENDS
;	COMDAT pdata
pdata	SEGMENT
$pdata$_vsnprintf_s DD imagerel $LN3
	DD	imagerel $LN3+73
	DD	imagerel $unwind$_vsnprintf_s
pdata	ENDS
;	COMDAT pdata
pdata	SEGMENT
$pdata$_vsscanf_l DD imagerel $LN3
	DD	imagerel $LN3+80
	DD	imagerel $unwind$_vsscanf_l
pdata	ENDS
;	COMDAT pdata
pdata	SEGMENT
$pdata$sscanf DD imagerel $LN3
	DD	imagerel $LN3+79
	DD	imagerel $unwind$sscanf
pdata	ENDS
pdata	SEGMENT
$pdata$DebuggerTrace DD imagerel DebuggerTrace
	DD	imagerel DebuggerTrace+247
	DD	imagerel $unwind$DebuggerTrace
$pdata$strcaseabbrev DD imagerel strcaseabbrev
	DD	imagerel strcaseabbrev+320
	DD	imagerel $unwind$strcaseabbrev
$pdata$strupper DD imagerel strupper
	DD	imagerel strupper+114
	DD	imagerel $unwind$strupper
$pdata$Interrupt_Lock_Obtained DD imagerel Interrupt_Lock_Obtained
	DD	imagerel Interrupt_Lock_Obtained+269
	DD	imagerel $unwind$Interrupt_Lock_Obtained
$pdata$Obtain_Interrupt_Lock DD imagerel Obtain_Interrupt_Lock
	DD	imagerel Obtain_Interrupt_Lock+88
	DD	imagerel $unwind$Obtain_Interrupt_Lock
$pdata$Release_Interrupt_Lock DD imagerel Release_Interrupt_Lock
	DD	imagerel Release_Interrupt_Lock+71
	DD	imagerel $unwind$Release_Interrupt_Lock
$pdata$are_any_cpus_started_intlock_held DD imagerel are_any_cpus_started_intlock_held
	DD	imagerel are_any_cpus_started_intlock_held+118
	DD	imagerel $unwind$are_any_cpus_started_intlock_held
$pdata$are_any_cpus_started DD imagerel are_any_cpus_started
	DD	imagerel are_any_cpus_started+51
	DD	imagerel $unwind$are_any_cpus_started
$pdata$init_facilities_lists DD imagerel $LN51
	DD	imagerel $LN51+1771
	DD	imagerel $unwind$init_facilities_lists
$pdata$init_cpu_facilities DD imagerel $LN6
	DD	imagerel $LN6+92
	DD	imagerel $unwind$init_cpu_facilities
$pdata$facility_query DD imagerel $LN43
	DD	imagerel $LN43+2074
	DD	imagerel $unwind$facility_query
$pdata$facility_enable_disable DD imagerel $LN60
	DD	imagerel $LN60+2929
	DD	imagerel $unwind$facility_enable_disable
$pdata$s370_facility_not_enabled DD imagerel s370_facility_not_enabled
	DD	imagerel s370_facility_not_enabled+34
	DD	imagerel $unwind$s370_facility_not_enabled
$pdata$s390_facility_not_enabled DD imagerel s390_facility_not_enabled
	DD	imagerel s390_facility_not_enabled+34
	DD	imagerel $unwind$s390_facility_not_enabled
$pdata$z900_facility_not_enabled DD imagerel z900_facility_not_enabled
	DD	imagerel z900_facility_not_enabled+34
	DD	imagerel $unwind$z900_facility_not_enabled
$pdata$mod000 DD imagerel mod000
	DD	imagerel mod000+248
	DD	imagerel $unwind$mod000
$pdata$mod002 DD imagerel mod002
	DD	imagerel mod002+250
	DD	imagerel $unwind$mod002
$pdata$mod003 DD imagerel mod003
	DD	imagerel mod003+469
	DD	imagerel $unwind$mod003
$pdata$mod004 DD imagerel mod004
	DD	imagerel mod004+474
	DD	imagerel $unwind$mod004
$pdata$mod005 DD imagerel mod005
	DD	imagerel mod005+469
	DD	imagerel $unwind$mod005
$pdata$mod007 DD imagerel mod007
	DD	imagerel mod007+250
	DD	imagerel $unwind$mod007
$pdata$mod008 DD imagerel mod008
	DD	imagerel mod008+248
	DD	imagerel $unwind$mod008
$pdata$mod010 DD imagerel mod010
	DD	imagerel mod010+248
	DD	imagerel $unwind$mod010
$pdata$mod014 DD imagerel mod014
	DD	imagerel mod014+474
	DD	imagerel $unwind$mod014
$pdata$mod018 DD imagerel mod018
	DD	imagerel mod018+248
	DD	imagerel $unwind$mod018
$pdata$mod019 DD imagerel mod019
	DD	imagerel mod019+248
	DD	imagerel $unwind$mod019
$pdata$mod025 DD imagerel mod025
	DD	imagerel mod025+248
	DD	imagerel $unwind$mod025
$pdata$mod028 DD imagerel mod028
	DD	imagerel mod028+248
	DD	imagerel $unwind$mod028
$pdata$mod037 DD imagerel mod037
	DD	imagerel mod037+248
	DD	imagerel $unwind$mod037
$pdata$mod040 DD imagerel mod040
	DD	imagerel mod040+248
	DD	imagerel $unwind$mod040
$pdata$mod042 DD imagerel mod042
	DD	imagerel mod042+469
	DD	imagerel $unwind$mod042
$pdata$mod043 DD imagerel mod043
	DD	imagerel mod043+248
	DD	imagerel $unwind$mod043
$pdata$mod045 DD imagerel mod045
	DD	imagerel mod045+248
	DD	imagerel $unwind$mod045
$pdata$mod048 DD imagerel mod048
	DD	imagerel mod048+248
	DD	imagerel $unwind$mod048
$pdata$mod049 DD imagerel mod049
	DD	imagerel mod049+469
	DD	imagerel $unwind$mod049
$pdata$mod050 DD imagerel mod050
	DD	imagerel mod050+248
	DD	imagerel $unwind$mod050
$pdata$mod051 DD imagerel mod051
	DD	imagerel mod051+248
	DD	imagerel $unwind$mod051
$pdata$mod061 DD imagerel mod061
	DD	imagerel mod061+248
	DD	imagerel $unwind$mod061
$pdata$mod066 DD imagerel mod066
	DD	imagerel mod066+248
	DD	imagerel $unwind$mod066
$pdata$mod067 DD imagerel mod067
	DD	imagerel mod067+469
	DD	imagerel $unwind$mod067
$pdata$mod068 DD imagerel mod068
	DD	imagerel mod068+471
	DD	imagerel $unwind$mod068
$pdata$mod073 DD imagerel mod073
	DD	imagerel mod073+495
	DD	imagerel $unwind$mod073
$pdata$mod076 DD imagerel mod076
	DD	imagerel mod076+469
	DD	imagerel $unwind$mod076
$pdata$mod077 DD imagerel mod077
	DD	imagerel mod077+248
	DD	imagerel $unwind$mod077
$pdata$mod078 DD imagerel mod078
	DD	imagerel mod078+250
	DD	imagerel $unwind$mod078
$pdata$mod080 DD imagerel mod080
	DD	imagerel mod080+248
	DD	imagerel $unwind$mod080
$pdata$mod081 DD imagerel mod081
	DD	imagerel mod081+248
	DD	imagerel $unwind$mod081
$pdata$mod129 DD imagerel mod129
	DD	imagerel mod129+1366
	DD	imagerel $unwind$mod129
$pdata$mod134 DD imagerel mod134
	DD	imagerel mod134+702
	DD	imagerel $unwind$mod134
$pdata$mod135 DD imagerel mod135
	DD	imagerel mod135+474
	DD	imagerel $unwind$mod135
$pdata$mod139 DD imagerel mod139
	DD	imagerel mod139+469
	DD	imagerel $unwind$mod139
$pdata$mod142 DD imagerel mod142
	DD	imagerel mod142+248
	DD	imagerel $unwind$mod142
$pdata$mod145 DD imagerel mod145
	DD	imagerel mod145+248
	DD	imagerel $unwind$mod145
$pdata$mod146 DD imagerel mod146
	DD	imagerel mod146+248
	DD	imagerel $unwind$mod146
$pdata$mod148 DD imagerel mod148
	DD	imagerel mod148+469
	DD	imagerel $unwind$mod148
$pdata$mod149 DD imagerel mod149
	DD	imagerel mod149+248
	DD	imagerel $unwind$mod149
$pdata$mod152 DD imagerel mod152
	DD	imagerel mod152+700
	DD	imagerel $unwind$mod152
$pdata$mod155 DD imagerel mod155
	DD	imagerel mod155+469
	DD	imagerel $unwind$mod155
$pdata$mod165 DD imagerel mod165
	DD	imagerel mod165+248
	DD	imagerel $unwind$mod165
$pdata$mod168 DD imagerel mod168
	DD	imagerel mod168+248
	DD	imagerel $unwind$mod168
$pdata$mod169 DD imagerel mod169
	DD	imagerel mod169+1129
	DD	imagerel $unwind$mod169
$pdata$mod192 DD imagerel mod192
	DD	imagerel mod192+695
	DD	imagerel $unwind$mod192
$pdata$mod194 DD imagerel mod194
	DD	imagerel mod194+248
	DD	imagerel $unwind$mod194
$pdata$mod196 DD imagerel mod196
	DD	imagerel mod196+248
	DD	imagerel $unwind$mod196
$pdata$mod197 DD imagerel mod197
	DD	imagerel mod197+248
	DD	imagerel $unwind$mod197
$pdata$modtcp DD imagerel modtcp
	DD	imagerel modtcp+510
	DD	imagerel $unwind$modtcp
$pdata$instr0 DD imagerel instr0
	DD	imagerel instr0+972
	DD	imagerel $unwind$instr0
$pdata$instr3 DD imagerel instr3
	DD	imagerel instr3+145
	DD	imagerel $unwind$instr3
$pdata$instr6 DD imagerel instr6
	DD	imagerel instr6+234
	DD	imagerel $unwind$instr6
$pdata$instr7 DD imagerel instr7
	DD	imagerel instr7+104
	DD	imagerel $unwind$instr7
$pdata$instr8 DD imagerel instr8
	DD	imagerel instr8+104
	DD	imagerel $unwind$instr8
$pdata$instr11 DD imagerel instr11
	DD	imagerel instr11+104
	DD	imagerel $unwind$instr11
$pdata$instr16 DD imagerel instr16
	DD	imagerel instr16+521
	DD	imagerel $unwind$instr16
$pdata$instr17 DD imagerel instr17
	DD	imagerel instr17+275
	DD	imagerel $unwind$instr17
$pdata$instr18 DD imagerel instr18
	DD	imagerel instr18+1874
	DD	imagerel $unwind$instr18
$pdata$instr20 DD imagerel instr20
	DD	imagerel instr20+398
	DD	imagerel $unwind$instr20
$pdata$instr21 DD imagerel instr21
	DD	imagerel instr21+1464
	DD	imagerel $unwind$instr21
$pdata$instr22 DD imagerel instr22
	DD	imagerel instr22+316
	DD	imagerel $unwind$instr22
$pdata$instr23 DD imagerel instr23
	DD	imagerel instr23+562
	DD	imagerel $unwind$instr23
$pdata$instr25 DD imagerel instr25
	DD	imagerel instr25+104
	DD	imagerel $unwind$instr25
$pdata$instr26 DD imagerel instr26
	DD	imagerel instr26+145
	DD	imagerel $unwind$instr26
$pdata$instr27 DD imagerel instr27
	DD	imagerel instr27+104
	DD	imagerel $unwind$instr27
$pdata$instr28 DD imagerel instr28
	DD	imagerel instr28+104
	DD	imagerel $unwind$instr28
$pdata$instr31 DD imagerel instr31
	DD	imagerel instr31+104
	DD	imagerel $unwind$instr31
$pdata$instr32 DD imagerel instr32
	DD	imagerel instr32+104
	DD	imagerel $unwind$instr32
$pdata$instr34 DD imagerel instr34
	DD	imagerel instr34+3022
	DD	imagerel $unwind$instr34
$pdata$instr35 DD imagerel instr35
	DD	imagerel instr35+104
	DD	imagerel $unwind$instr35
$pdata$instr37 DD imagerel instr37
	DD	imagerel instr37+1095
	DD	imagerel $unwind$instr37
$pdata$instr40 DD imagerel instr40
	DD	imagerel instr40+104
	DD	imagerel $unwind$instr40
$pdata$instr41 DD imagerel instr41
	DD	imagerel instr41+439
	DD	imagerel $unwind$instr41
$pdata$instr42 DD imagerel instr42
	DD	imagerel instr42+2284
	DD	imagerel $unwind$instr42
$pdata$instr44 DD imagerel instr44
	DD	imagerel instr44+104
	DD	imagerel $unwind$instr44
$pdata$instr45 DD imagerel instr45
	DD	imagerel instr45+2981
	DD	imagerel $unwind$instr45
$pdata$instr48 DD imagerel instr48
	DD	imagerel instr48+234
	DD	imagerel $unwind$instr48
$pdata$instr49 DD imagerel instr49
	DD	imagerel instr49+562
	DD	imagerel $unwind$instr49
$pdata$instr50 DD imagerel instr50
	DD	imagerel instr50+104
	DD	imagerel $unwind$instr50
$pdata$instr53 DD imagerel instr53
	DD	imagerel instr53+439
	DD	imagerel $unwind$instr53
$pdata$instr57 DD imagerel instr57
	DD	imagerel instr57+104
	DD	imagerel $unwind$instr57
$pdata$instr58 DD imagerel instr58
	DD	imagerel instr58+480
	DD	imagerel $unwind$instr58
$pdata$instr61 DD imagerel instr61
	DD	imagerel instr61+644
	DD	imagerel $unwind$instr61
$pdata$instr66 DD imagerel instr66
	DD	imagerel instr66+104
	DD	imagerel $unwind$instr66
$pdata$instr67 DD imagerel instr67
	DD	imagerel instr67+398
	DD	imagerel $unwind$instr67
$pdata$instr68 DD imagerel instr68
	DD	imagerel instr68+145
	DD	imagerel $unwind$instr68
$pdata$instr73 DD imagerel instr73
	DD	imagerel instr73+275
	DD	imagerel $unwind$instr73
$pdata$instr74 DD imagerel instr74
	DD	imagerel instr74+104
	DD	imagerel $unwind$instr74
$pdata$instr76 DD imagerel instr76
	DD	imagerel instr76+104
	DD	imagerel $unwind$instr76
$pdata$instr77 DD imagerel instr77
	DD	imagerel instr77+234
	DD	imagerel $unwind$instr77
$pdata$instr78 DD imagerel instr78
	DD	imagerel instr78+104
	DD	imagerel $unwind$instr78
$pdata$instr80 DD imagerel instr80
	DD	imagerel instr80+234
	DD	imagerel $unwind$instr80
$pdata$instr129 DD imagerel instr129
	DD	imagerel instr129+5769
	DD	imagerel $unwind$instr129
$pdata$instr133 DD imagerel instr133
	DD	imagerel instr133+234
	DD	imagerel $unwind$instr133
$pdata$instr134 DD imagerel instr134
	DD	imagerel instr134+972
	DD	imagerel $unwind$instr134
$pdata$instr142 DD imagerel instr142
	DD	imagerel instr142+104
	DD	imagerel $unwind$instr142
$pdata$instr144 DD imagerel instr144
	DD	imagerel instr144+104
	DD	imagerel $unwind$instr144
$pdata$instr145 DD imagerel instr145
	DD	imagerel instr145+104
	DD	imagerel $unwind$instr145
$pdata$instr146 DD imagerel instr146
	DD	imagerel instr146+104
	DD	imagerel $unwind$instr146
$pdata$instr148 DD imagerel instr148
	DD	imagerel instr148+439
	DD	imagerel $unwind$instr148
$pdata$instr150 DD imagerel instr150
	DD	imagerel instr150+104
	DD	imagerel $unwind$instr150
$pdata$instr151 DD imagerel instr151
	DD	imagerel instr151+104
	DD	imagerel $unwind$instr151
$pdata$instr155 DD imagerel instr155
	DD	imagerel instr155+104
	DD	imagerel $unwind$instr155
$pdata$instr165 DD imagerel instr165
	DD	imagerel instr165+316
	DD	imagerel $unwind$instr165
$pdata$instr192 DD imagerel instr192
	DD	imagerel instr192+398
	DD	imagerel $unwind$instr192
$pdata$instr193 DD imagerel instr193
	DD	imagerel instr193+189
	DD	imagerel $unwind$instr193
$pdata$instr194 DD imagerel instr194
	DD	imagerel instr194+104
	DD	imagerel $unwind$instr194
$pdata$instr196 DD imagerel instr196
	DD	imagerel instr196+104
	DD	imagerel $unwind$instr196
$pdata$hercmvcin DD imagerel hercmvcin
	DD	imagerel hercmvcin+104
	DD	imagerel $unwind$hercmvcin
$pdata$hercsvs DD imagerel hercsvs
	DD	imagerel hercsvs+104
	DD	imagerel $unwind$hercsvs
$pdata$herc37X DD imagerel herc37X
	DD	imagerel herc37X+6589
	DD	imagerel $unwind$herc37X
$pdata$herctcp DD imagerel herctcp
	DD	imagerel herctcp+104
	DD	imagerel $unwind$herctcp
$pdata$hercessa DD imagerel hercessa
	DD	imagerel hercessa+104
	DD	imagerel $unwind$hercessa
$pdata$get_factab_by_bitno DD imagerel get_factab_by_bitno
	DD	imagerel get_factab_by_bitno+117
	DD	imagerel $unwind$get_factab_by_bitno
$pdata$get_factab_by_name DD imagerel get_factab_by_name
	DD	imagerel get_factab_by_name+107
	DD	imagerel $unwind$get_factab_by_name
$pdata$get_facname_by_bitno DD imagerel get_facname_by_bitno
	DD	imagerel get_facname_by_bitno+79
	DD	imagerel $unwind$get_facname_by_bitno
$pdata$sort_ftpp_by_bit_number DD imagerel sort_ftpp_by_bit_number
	DD	imagerel sort_ftpp_by_bit_number+116
	DD	imagerel $unwind$sort_ftpp_by_bit_number
$pdata$sort_ftpp_by_long_name DD imagerel sort_ftpp_by_long_name
	DD	imagerel sort_ftpp_by_long_name+116
	DD	imagerel $unwind$sort_ftpp_by_long_name
$pdata$facility_query_all DD imagerel facility_query_all
	DD	imagerel facility_query_all+2081
	DD	imagerel $unwind$facility_query_all
$pdata$facility_query_raw DD imagerel facility_query_raw
	DD	imagerel facility_query_raw+1148
	DD	imagerel $unwind$facility_query_raw
$pdata$_hhc00890e DD imagerel _hhc00890e
	DD	imagerel _hhc00890e+204
	DD	imagerel $unwind$_hhc00890e
$pdata$ena_fac_ins DD imagerel ena_fac_ins
	DD	imagerel ena_fac_ins+144
	DD	imagerel $unwind$ena_fac_ins
$pdata$dis_fac_ins DD imagerel dis_fac_ins
	DD	imagerel dis_fac_ins+197
	DD	imagerel $unwind$dis_fac_ins
$pdata$enable_disable_herc37X DD imagerel enable_disable_herc37X
	DD	imagerel enable_disable_herc37X+590
	DD	imagerel $unwind$enable_disable_herc37X
$pdata$facility_cmd DD imagerel $LN19
	DD	imagerel $LN19+749
	DD	imagerel $unwind$facility_cmd
pdata	ENDS
_DATA	SEGMENT
	ORG $+3
$SG158966 DB	'C:\papa\MyGit\hyperion-zvector\hinlines.h:534', 00H
	ORG $+2
$SG158967 DB	'C:\papa\MyGit\hyperion-zvector\hinlines.h:538', 00H
	ORG $+2
factab	DQ	FLAT:mod000
	DQ	FLAT:instr0
	DQ	FLAT:$SG192546
	DQ	FLAT:$SG192547
	DD	00H
	DD	00H
	DD	00H
	DD	00H
	DQ	0000000000000000H
	DQ	0000000000000000H
	DQ	FLAT:$SG192548
	DQ	FLAT:$SG192549
	DD	01H
	DD	00H
	DD	00H
	DD	00H
	DQ	FLAT:mod002
	DQ	0000000000000000H
	DQ	FLAT:$SG192550
	DQ	FLAT:$SG192551
	DD	02H
	DD	00H
	DD	00H
	DD	00H
	DQ	FLAT:mod003
	DQ	FLAT:instr3
	DQ	FLAT:$SG192552
	DQ	FLAT:$SG192553
	DD	03H
	DD	00H
	DD	00H
	DD	00H
	DQ	FLAT:mod004
	DQ	0000000000000000H
	DQ	FLAT:$SG192554
	DQ	FLAT:$SG192555
	DD	04H
	DD	00H
	DD	00H
	DD	00H
	DQ	FLAT:mod005
	DQ	0000000000000000H
	DQ	FLAT:$SG192556
	DQ	FLAT:$SG192557
	DD	05H
	DD	00H
	DD	00H
	DD	00H
	DQ	0000000000000000H
	DQ	FLAT:instr6
	DQ	FLAT:$SG192558
	DQ	FLAT:$SG192559
	DD	06H
	DD	00H
	DD	00H
	DD	00H
	DQ	FLAT:mod007
	DQ	FLAT:instr7
	DQ	FLAT:$SG192560
	DQ	FLAT:$SG192561
	DD	07H
	DD	00H
	DD	00H
	DD	00H
	DQ	FLAT:mod008
	DQ	FLAT:instr8
	DQ	FLAT:$SG192562
	DQ	FLAT:$SG192563
	DD	08H
	DD	00H
	DD	00H
	DD	00H
	DQ	0000000000000000H
	DQ	0000000000000000H
	DQ	FLAT:$SG192564
	DQ	FLAT:$SG192565
	DD	09H
	DD	00H
	DD	00H
	DD	00H
	DQ	FLAT:mod010
	DQ	0000000000000000H
	DQ	FLAT:$SG192566
	DQ	FLAT:$SG192567
	DD	0aH
	DD	00H
	DD	00H
	DD	00H
	DQ	0000000000000000H
	DQ	FLAT:instr11
	DQ	FLAT:$SG192568
	DQ	FLAT:$SG192569
	DD	0bH
	DD	00H
	DD	00H
	DD	00H
	DQ	0000000000000000H
	DQ	0000000000000000H
	DQ	FLAT:$SG192570
	DQ	FLAT:$SG192571
	DD	0cH
	DD	00H
	DD	00H
	DD	00H
	DQ	0000000000000000H
	DQ	0000000000000000H
	DQ	FLAT:$SG192572
	DQ	FLAT:$SG192573
	DD	0dH
	DD	00H
	DD	00H
	DD	00H
	DQ	FLAT:mod014
	DQ	0000000000000000H
	DQ	FLAT:$SG192574
	DQ	FLAT:$SG192575
	DD	0eH
	DD	00H
	DD	00H
	DD	00H
	DQ	0000000000000000H
	DQ	0000000000000000H
	DQ	FLAT:$SG192576
	DQ	FLAT:$SG192577
	DD	0fH
	DD	00H
	DD	00H
	DD	00H
	DQ	0000000000000000H
	DQ	FLAT:instr16
	DQ	FLAT:$SG192578
	DQ	FLAT:$SG192579
	DD	010H
	DD	00H
	DD	00H
	DD	00H
	DQ	0000000000000000H
	DQ	FLAT:instr17
	DQ	FLAT:$SG192580
	DQ	FLAT:$SG192581
	DD	011H
	DD	00H
	DD	00H
	DD	00H
	DQ	FLAT:mod018
	DQ	FLAT:instr18
	DQ	FLAT:$SG192582
	DQ	FLAT:$SG192583
	DD	012H
	DD	00H
	DD	00H
	DD	00H
	DQ	FLAT:mod019
	DQ	0000000000000000H
	DQ	FLAT:$SG192584
	DQ	FLAT:$SG192585
	DD	013H
	DD	00H
	DD	00H
	DD	00H
	DQ	0000000000000000H
	DQ	FLAT:instr20
	DQ	FLAT:$SG192586
	DQ	FLAT:$SG192587
	DD	014H
	DD	00H
	DD	00H
	DD	00H
	DQ	0000000000000000H
	DQ	FLAT:instr21
	DQ	FLAT:$SG192588
	DQ	FLAT:$SG192589
	DD	015H
	DD	00H
	DD	00H
	DD	00H
	DQ	0000000000000000H
	DQ	FLAT:instr22
	DQ	FLAT:$SG192590
	DQ	FLAT:$SG192591
	DD	016H
	DD	00H
	DD	00H
	DD	00H
	DQ	0000000000000000H
	DQ	FLAT:instr23
	DQ	FLAT:$SG192592
	DQ	FLAT:$SG192593
	DD	017H
	DD	00H
	DD	00H
	DD	00H
	DQ	0000000000000000H
	DQ	0000000000000000H
	DQ	FLAT:$SG192594
	DQ	FLAT:$SG192595
	DD	018H
	DD	00H
	DD	00H
	DD	00H
	DQ	FLAT:mod025
	DQ	FLAT:instr25
	DQ	FLAT:$SG192596
	DQ	FLAT:$SG192597
	DD	019H
	DD	00H
	DD	00H
	DD	00H
	DQ	0000000000000000H
	DQ	FLAT:instr26
	DQ	FLAT:$SG192598
	DQ	FLAT:$SG192599
	DD	01aH
	DD	00H
	DD	00H
	DD	00H
	DQ	0000000000000000H
	DQ	FLAT:instr27
	DQ	FLAT:$SG192600
	DQ	FLAT:$SG192601
	DD	01bH
	DD	00H
	DD	00H
	DD	00H
	DQ	FLAT:mod028
	DQ	FLAT:instr28
	DQ	FLAT:$SG192602
	DQ	FLAT:$SG192603
	DD	01cH
	DD	00H
	DD	00H
	DD	00H
	DQ	0000000000000000H
	DQ	0000000000000000H
	DQ	FLAT:$SG192604
	DQ	FLAT:$SG192605
	DD	01dH
	DD	00H
	DD	00H
	DD	00H
	DQ	0000000000000000H
	DQ	0000000000000000H
	DQ	FLAT:$SG192606
	DQ	FLAT:$SG192607
	DD	01eH
	DD	00H
	DD	00H
	DD	00H
	DQ	0000000000000000H
	DQ	FLAT:instr31
	DQ	FLAT:$SG192608
	DQ	FLAT:$SG192609
	DD	01fH
	DD	00H
	DD	00H
	DD	00H
	DQ	0000000000000000H
	DQ	FLAT:instr32
	DQ	FLAT:$SG192610
	DQ	FLAT:$SG192611
	DD	020H
	DD	00H
	DD	00H
	DD	00H
	DQ	0000000000000000H
	DQ	0000000000000000H
	DQ	FLAT:$SG192612
	DQ	FLAT:$SG192613
	DD	021H
	DD	00H
	DD	00H
	DD	00H
	DQ	0000000000000000H
	DQ	FLAT:instr34
	DQ	FLAT:$SG192614
	DQ	FLAT:$SG192615
	DD	022H
	DD	00H
	DD	00H
	DD	00H
	DQ	0000000000000000H
	DQ	FLAT:instr35
	DQ	FLAT:$SG192616
	DQ	FLAT:$SG192617
	DD	023H
	DD	00H
	DD	00H
	DD	00H
	DQ	0000000000000000H
	DQ	0000000000000000H
	DQ	FLAT:$SG192618
	DQ	FLAT:$SG192619
	DD	024H
	DD	00H
	DD	00H
	DD	00H
	DQ	FLAT:mod037
	DQ	FLAT:instr37
	DQ	FLAT:$SG192620
	DQ	FLAT:$SG192621
	DD	025H
	DD	00H
	DD	00H
	DD	00H
	DQ	0000000000000000H
	DQ	0000000000000000H
	DQ	FLAT:$SG192622
	DQ	FLAT:$SG192623
	DD	026H
	DD	00H
	DD	00H
	DD	00H
	DQ	0000000000000000H
	DQ	0000000000000000H
	DQ	FLAT:$SG192624
	DQ	FLAT:$SG192625
	DD	027H
	DD	00H
	DD	00H
	DD	00H
	DQ	FLAT:mod040
	DQ	FLAT:instr40
	DQ	FLAT:$SG192626
	DQ	FLAT:$SG192627
	DD	028H
	DD	00H
	DD	00H
	DD	00H
	DQ	0000000000000000H
	DQ	FLAT:instr41
	DQ	FLAT:$SG192628
	DQ	FLAT:$SG192629
	DD	029H
	DD	00H
	DD	00H
	DD	00H
	DQ	0000000000000000H
	DQ	FLAT:instr41
	DQ	FLAT:$SG192630
	DQ	FLAT:$SG192631
	DD	029H
	DD	00H
	DD	00H
	DD	00H
	DQ	0000000000000000H
	DQ	FLAT:instr41
	DQ	FLAT:$SG192632
	DQ	FLAT:$SG192633
	DD	029H
	DD	00H
	DD	00H
	DD	00H
	DQ	0000000000000000H
	DQ	FLAT:instr41
	DQ	FLAT:$SG192634
	DQ	FLAT:$SG192635
	DD	029H
	DD	00H
	DD	00H
	DD	00H
	DQ	0000000000000000H
	DQ	FLAT:instr41
	DQ	FLAT:$SG192636
	DQ	FLAT:$SG192637
	DD	029H
	DD	00H
	DD	00H
	DD	00H
	DQ	FLAT:mod042
	DQ	FLAT:instr42
	DQ	FLAT:$SG192638
	DQ	FLAT:$SG192639
	DD	02aH
	DD	00H
	DD	00H
	DD	00H
	DQ	FLAT:mod043
	DQ	0000000000000000H
	DQ	FLAT:$SG192640
	DQ	FLAT:$SG192641
	DD	02bH
	DD	00H
	DD	00H
	DD	00H
	DQ	0000000000000000H
	DQ	FLAT:instr44
	DQ	FLAT:$SG192642
	DQ	FLAT:$SG192643
	DD	02cH
	DD	00H
	DD	00H
	DD	00H
	DQ	FLAT:mod045
	DQ	FLAT:instr45
	DQ	FLAT:$SG192644
	DQ	FLAT:$SG192645
	DD	02dH
	DD	00H
	DD	00H
	DD	00H
	DQ	FLAT:mod045
	DQ	FLAT:instr45
	DQ	FLAT:$SG192646
	DQ	FLAT:$SG192647
	DD	02dH
	DD	00H
	DD	00H
	DD	00H
	DQ	FLAT:mod045
	DQ	FLAT:instr45
	DQ	FLAT:$SG192648
	DQ	FLAT:$SG192649
	DD	02dH
	DD	00H
	DD	00H
	DD	00H
	DQ	FLAT:mod045
	DQ	FLAT:instr45
	DQ	FLAT:$SG192650
	DQ	FLAT:$SG192651
	DD	02dH
	DD	00H
	DD	00H
	DD	00H
	DQ	FLAT:mod045
	DQ	FLAT:instr45
	DQ	FLAT:$SG192652
	DQ	FLAT:$SG192653
	DD	02dH
	DD	00H
	DD	00H
	DD	00H
	DQ	FLAT:mod045
	DQ	FLAT:instr45
	DQ	FLAT:$SG192654
	DQ	FLAT:$SG192655
	DD	02dH
	DD	00H
	DD	00H
	DD	00H
	DQ	0000000000000000H
	DQ	0000000000000000H
	DQ	FLAT:$SG192656
	DQ	FLAT:$SG192657
	DD	02eH
	DD	00H
	DD	00H
	DD	00H
	DQ	0000000000000000H
	DQ	0000000000000000H
	DQ	FLAT:$SG192658
	DQ	FLAT:$SG192659
	DD	02fH
	DD	00H
	DD	00H
	DD	00H
	DQ	FLAT:mod048
	DQ	FLAT:instr48
	DQ	FLAT:$SG192660
	DQ	FLAT:$SG192661
	DD	030H
	DD	00H
	DD	00H
	DD	00H
	DQ	FLAT:mod049
	DQ	FLAT:instr49
	DQ	FLAT:$SG192662
	DQ	FLAT:$SG192663
	DD	031H
	DD	00H
	DD	00H
	DD	00H
	DQ	FLAT:mod049
	DQ	FLAT:instr49
	DQ	FLAT:$SG192664
	DQ	FLAT:$SG192665
	DD	031H
	DD	00H
	DD	00H
	DD	00H
	DQ	FLAT:mod049
	DQ	FLAT:instr49
	DQ	FLAT:$SG192666
	DQ	FLAT:$SG192667
	DD	031H
	DD	00H
	DD	00H
	DD	00H
	DQ	FLAT:mod049
	DQ	FLAT:instr49
	DQ	FLAT:$SG192668
	DQ	FLAT:$SG192669
	DD	031H
	DD	00H
	DD	00H
	DD	00H
	DQ	FLAT:mod050
	DQ	FLAT:instr50
	DQ	FLAT:$SG192670
	DQ	FLAT:$SG192671
	DD	032H
	DD	00H
	DD	00H
	DD	00H
	DQ	FLAT:mod051
	DQ	0000000000000000H
	DQ	FLAT:$SG192672
	DQ	FLAT:$SG192673
	DD	033H
	DD	00H
	DD	00H
	DD	00H
	DQ	0000000000000000H
	DQ	0000000000000000H
	DQ	FLAT:$SG192674
	DQ	FLAT:$SG192675
	DD	034H
	DD	00H
	DD	00H
	DD	00H
	DQ	0000000000000000H
	DQ	FLAT:instr53
	DQ	FLAT:$SG192676
	DQ	FLAT:$SG192677
	DD	035H
	DD	00H
	DD	00H
	DD	00H
	DQ	0000000000000000H
	DQ	FLAT:instr53
	DQ	FLAT:$SG192678
	DQ	FLAT:$SG192679
	DD	035H
	DD	00H
	DD	00H
	DD	00H
	DQ	0000000000000000H
	DQ	0000000000000000H
	DQ	FLAT:$SG192680
	DQ	FLAT:$SG192681
	DD	036H
	DD	00H
	DD	00H
	DD	00H
	DQ	0000000000000000H
	DQ	0000000000000000H
	DQ	FLAT:$SG192682
	DQ	FLAT:$SG192683
	DD	037H
	DD	00H
	DD	00H
	DD	00H
	DQ	0000000000000000H
	DQ	0000000000000000H
	DQ	FLAT:$SG192684
	DQ	FLAT:$SG192685
	DD	038H
	DD	00H
	DD	00H
	DD	00H
	DQ	0000000000000000H
	DQ	FLAT:instr57
	DQ	FLAT:$SG192686
	DQ	FLAT:$SG192687
	DD	039H
	DD	00H
	DD	00H
	DD	00H
	DQ	0000000000000000H
	DQ	FLAT:instr58
	DQ	FLAT:$SG192688
	DQ	FLAT:$SG192689
	DD	03aH
	DD	00H
	DD	00H
	DD	00H
	DQ	0000000000000000H
	DQ	0000000000000000H
	DQ	FLAT:$SG192690
	DQ	FLAT:$SG192691
	DD	03bH
	DD	00H
	DD	00H
	DD	00H
	DQ	0000000000000000H
	DQ	0000000000000000H
	DQ	FLAT:$SG192692
	DQ	FLAT:$SG192693
	DD	03cH
	DD	00H
	DD	00H
	DD	00H
	DQ	FLAT:mod061
	DQ	FLAT:instr61
	DQ	FLAT:$SG192694
	DQ	FLAT:$SG192695
	DD	03dH
	DD	00H
	DD	00H
	DD	00H
	DQ	0000000000000000H
	DQ	0000000000000000H
	DQ	FLAT:$SG192696
	DQ	FLAT:$SG192697
	DD	03eH
	DD	00H
	DD	00H
	DD	00H
	DQ	0000000000000000H
	DQ	0000000000000000H
	DQ	FLAT:$SG192698
	DQ	FLAT:$SG192699
	DD	03fH
	DD	00H
	DD	00H
	DD	00H
	DQ	0000000000000000H
	DQ	0000000000000000H
	DQ	FLAT:$SG192700
	DQ	FLAT:$SG192701
	DD	040H
	DD	00H
	DD	00H
	DD	00H
	DQ	0000000000000000H
	DQ	0000000000000000H
	DQ	FLAT:$SG192702
	DQ	FLAT:$SG192703
	DD	041H
	DD	00H
	DD	00H
	DD	00H
	DQ	FLAT:mod066
	DQ	FLAT:instr66
	DQ	FLAT:$SG192704
	DQ	FLAT:$SG192705
	DD	042H
	DD	00H
	DD	00H
	DD	00H
	DQ	FLAT:mod067
	DQ	FLAT:instr67
	DQ	FLAT:$SG192706
	DQ	FLAT:$SG192707
	DD	043H
	DD	00H
	DD	00H
	DD	00H
	DQ	FLAT:mod068
	DQ	FLAT:instr68
	DQ	FLAT:$SG192708
	DQ	FLAT:$SG192709
	DD	044H
	DD	00H
	DD	00H
	DD	00H
	DQ	0000000000000000H
	DQ	0000000000000000H
	DQ	FLAT:$SG192710
	DQ	FLAT:$SG192711
	DD	045H
	DD	00H
	DD	00H
	DD	00H
	DQ	0000000000000000H
	DQ	0000000000000000H
	DQ	FLAT:$SG192712
	DQ	FLAT:$SG192713
	DD	046H
	DD	00H
	DD	00H
	DD	00H
	DQ	0000000000000000H
	DQ	0000000000000000H
	DQ	FLAT:$SG192714
	DQ	FLAT:$SG192715
	DD	047H
	DD	00H
	DD	00H
	DD	00H
	DQ	0000000000000000H
	DQ	0000000000000000H
	DQ	FLAT:$SG192716
	DQ	FLAT:$SG192717
	DD	048H
	DD	00H
	DD	00H
	DD	00H
	DQ	FLAT:mod073
	DQ	FLAT:instr73
	DQ	FLAT:$SG192718
	DQ	FLAT:$SG192719
	DD	049H
	DD	00H
	DD	00H
	DD	00H
	DQ	0000000000000000H
	DQ	FLAT:instr74
	DQ	FLAT:$SG192720
	DQ	FLAT:$SG192721
	DD	04aH
	DD	00H
	DD	00H
	DD	00H
	DQ	0000000000000000H
	DQ	0000000000000000H
	DQ	FLAT:$SG192722
	DQ	FLAT:$SG192723
	DD	04bH
	DD	00H
	DD	00H
	DD	00H
	DQ	FLAT:mod076
	DQ	FLAT:instr76
	DQ	FLAT:$SG192724
	DQ	FLAT:$SG192725
	DD	04cH
	DD	00H
	DD	00H
	DD	00H
	DQ	FLAT:mod077
	DQ	FLAT:instr77
	DQ	FLAT:$SG192726
	DQ	FLAT:$SG192727
	DD	04dH
	DD	00H
	DD	00H
	DD	00H
	DQ	FLAT:mod078
	DQ	FLAT:instr78
	DQ	FLAT:$SG192728
	DQ	FLAT:$SG192729
	DD	04eH
	DD	00H
	DD	00H
	DD	00H
	DQ	0000000000000000H
	DQ	0000000000000000H
	DQ	FLAT:$SG192730
	DQ	FLAT:$SG192731
	DD	04fH
	DD	00H
	DD	00H
	DD	00H
	DQ	FLAT:mod080
	DQ	FLAT:instr80
	DQ	FLAT:$SG192732
	DQ	FLAT:$SG192733
	DD	050H
	DD	00H
	DD	00H
	DD	00H
	DQ	FLAT:mod081
	DQ	0000000000000000H
	DQ	FLAT:$SG192734
	DQ	FLAT:$SG192735
	DD	051H
	DD	00H
	DD	00H
	DD	00H
	DQ	0000000000000000H
	DQ	0000000000000000H
	DQ	FLAT:$SG192736
	DQ	FLAT:$SG192737
	DD	052H
	DD	00H
	DD	00H
	DD	00H
	DQ	0000000000000000H
	DQ	0000000000000000H
	DQ	FLAT:$SG192738
	DQ	FLAT:$SG192739
	DD	053H
	DD	00H
	DD	00H
	DD	00H
	DQ	0000000000000000H
	DQ	0000000000000000H
	DQ	FLAT:$SG192740
	DQ	FLAT:$SG192741
	DD	054H
	DD	00H
	DD	00H
	DD	00H
	DQ	0000000000000000H
	DQ	0000000000000000H
	DQ	FLAT:$SG192742
	DQ	FLAT:$SG192743
	DD	055H
	DD	00H
	DD	00H
	DD	00H
	DQ	0000000000000000H
	DQ	0000000000000000H
	DQ	FLAT:$SG192744
	DQ	FLAT:$SG192745
	DD	056H
	DD	00H
	DD	00H
	DD	00H
	DQ	0000000000000000H
	DQ	0000000000000000H
	DQ	FLAT:$SG192746
	DQ	FLAT:$SG192747
	DD	057H
	DD	00H
	DD	00H
	DD	00H
	DQ	0000000000000000H
	DQ	0000000000000000H
	DQ	FLAT:$SG192748
	DQ	FLAT:$SG192749
	DD	058H
	DD	00H
	DD	00H
	DD	00H
	DQ	0000000000000000H
	DQ	0000000000000000H
	DQ	FLAT:$SG192750
	DQ	FLAT:$SG192751
	DD	059H
	DD	00H
	DD	00H
	DD	00H
	DQ	0000000000000000H
	DQ	0000000000000000H
	DQ	FLAT:$SG192752
	DQ	FLAT:$SG192753
	DD	05aH
	DD	00H
	DD	00H
	DD	00H
	DQ	0000000000000000H
	DQ	0000000000000000H
	DQ	FLAT:$SG192754
	DQ	FLAT:$SG192755
	DD	05bH
	DD	00H
	DD	00H
	DD	00H
	DQ	0000000000000000H
	DQ	0000000000000000H
	DQ	FLAT:$SG192756
	DQ	FLAT:$SG192757
	DD	05cH
	DD	00H
	DD	00H
	DD	00H
	DQ	0000000000000000H
	DQ	0000000000000000H
	DQ	FLAT:$SG192758
	DQ	FLAT:$SG192759
	DD	05dH
	DD	00H
	DD	00H
	DD	00H
	DQ	0000000000000000H
	DQ	0000000000000000H
	DQ	FLAT:$SG192760
	DQ	FLAT:$SG192761
	DD	05eH
	DD	00H
	DD	00H
	DD	00H
	DQ	0000000000000000H
	DQ	0000000000000000H
	DQ	FLAT:$SG192762
	DQ	FLAT:$SG192763
	DD	05fH
	DD	00H
	DD	00H
	DD	00H
	DQ	0000000000000000H
	DQ	0000000000000000H
	DQ	FLAT:$SG192764
	DQ	FLAT:$SG192765
	DD	060H
	DD	00H
	DD	00H
	DD	00H
	DQ	0000000000000000H
	DQ	0000000000000000H
	DQ	FLAT:$SG192766
	DQ	FLAT:$SG192767
	DD	061H
	DD	00H
	DD	00H
	DD	00H
	DQ	0000000000000000H
	DQ	0000000000000000H
	DQ	FLAT:$SG192768
	DQ	FLAT:$SG192769
	DD	062H
	DD	00H
	DD	00H
	DD	00H
	DQ	0000000000000000H
	DQ	0000000000000000H
	DQ	FLAT:$SG192770
	DQ	FLAT:$SG192771
	DD	063H
	DD	00H
	DD	00H
	DD	00H
	DQ	0000000000000000H
	DQ	0000000000000000H
	DQ	FLAT:$SG192772
	DQ	FLAT:$SG192773
	DD	064H
	DD	00H
	DD	00H
	DD	00H
	DQ	0000000000000000H
	DQ	0000000000000000H
	DQ	FLAT:$SG192774
	DQ	FLAT:$SG192775
	DD	065H
	DD	00H
	DD	00H
	DD	00H
	DQ	0000000000000000H
	DQ	0000000000000000H
	DQ	FLAT:$SG192776
	DQ	FLAT:$SG192777
	DD	066H
	DD	00H
	DD	00H
	DD	00H
	DQ	0000000000000000H
	DQ	0000000000000000H
	DQ	FLAT:$SG192778
	DQ	FLAT:$SG192779
	DD	067H
	DD	00H
	DD	00H
	DD	00H
	DQ	0000000000000000H
	DQ	0000000000000000H
	DQ	FLAT:$SG192780
	DQ	FLAT:$SG192781
	DD	068H
	DD	00H
	DD	00H
	DD	00H
	DQ	0000000000000000H
	DQ	0000000000000000H
	DQ	FLAT:$SG192782
	DQ	FLAT:$SG192783
	DD	069H
	DD	00H
	DD	00H
	DD	00H
	DQ	0000000000000000H
	DQ	0000000000000000H
	DQ	FLAT:$SG192784
	DQ	FLAT:$SG192785
	DD	06aH
	DD	00H
	DD	00H
	DD	00H
	DQ	0000000000000000H
	DQ	0000000000000000H
	DQ	FLAT:$SG192786
	DQ	FLAT:$SG192787
	DD	06bH
	DD	00H
	DD	00H
	DD	00H
	DQ	0000000000000000H
	DQ	0000000000000000H
	DQ	FLAT:$SG192788
	DQ	FLAT:$SG192789
	DD	06cH
	DD	00H
	DD	00H
	DD	00H
	DQ	0000000000000000H
	DQ	0000000000000000H
	DQ	FLAT:$SG192790
	DQ	FLAT:$SG192791
	DD	06dH
	DD	00H
	DD	00H
	DD	00H
	DQ	0000000000000000H
	DQ	0000000000000000H
	DQ	FLAT:$SG192792
	DQ	FLAT:$SG192793
	DD	06eH
	DD	00H
	DD	00H
	DD	00H
	DQ	0000000000000000H
	DQ	0000000000000000H
	DQ	FLAT:$SG192794
	DQ	FLAT:$SG192795
	DD	06fH
	DD	00H
	DD	00H
	DD	00H
	DQ	0000000000000000H
	DQ	0000000000000000H
	DQ	FLAT:$SG192796
	DQ	FLAT:$SG192797
	DD	070H
	DD	00H
	DD	00H
	DD	00H
	DQ	0000000000000000H
	DQ	0000000000000000H
	DQ	FLAT:$SG192798
	DQ	FLAT:$SG192799
	DD	071H
	DD	00H
	DD	00H
	DD	00H
	DQ	0000000000000000H
	DQ	0000000000000000H
	DQ	FLAT:$SG192800
	DQ	FLAT:$SG192801
	DD	072H
	DD	00H
	DD	00H
	DD	00H
	DQ	0000000000000000H
	DQ	0000000000000000H
	DQ	FLAT:$SG192802
	DQ	FLAT:$SG192803
	DD	073H
	DD	00H
	DD	00H
	DD	00H
	DQ	0000000000000000H
	DQ	0000000000000000H
	DQ	FLAT:$SG192804
	DQ	FLAT:$SG192805
	DD	074H
	DD	00H
	DD	00H
	DD	00H
	DQ	0000000000000000H
	DQ	0000000000000000H
	DQ	FLAT:$SG192806
	DQ	FLAT:$SG192807
	DD	075H
	DD	00H
	DD	00H
	DD	00H
	DQ	0000000000000000H
	DQ	0000000000000000H
	DQ	FLAT:$SG192808
	DQ	FLAT:$SG192809
	DD	076H
	DD	00H
	DD	00H
	DD	00H
	DQ	0000000000000000H
	DQ	0000000000000000H
	DQ	FLAT:$SG192810
	DQ	FLAT:$SG192811
	DD	077H
	DD	00H
	DD	00H
	DD	00H
	DQ	0000000000000000H
	DQ	0000000000000000H
	DQ	FLAT:$SG192812
	DQ	FLAT:$SG192813
	DD	078H
	DD	00H
	DD	00H
	DD	00H
	DQ	0000000000000000H
	DQ	0000000000000000H
	DQ	FLAT:$SG192814
	DQ	FLAT:$SG192815
	DD	079H
	DD	00H
	DD	00H
	DD	00H
	DQ	0000000000000000H
	DQ	0000000000000000H
	DQ	FLAT:$SG192816
	DQ	FLAT:$SG192817
	DD	07aH
	DD	00H
	DD	00H
	DD	00H
	DQ	0000000000000000H
	DQ	0000000000000000H
	DQ	FLAT:$SG192818
	DQ	FLAT:$SG192819
	DD	07bH
	DD	00H
	DD	00H
	DD	00H
	DQ	0000000000000000H
	DQ	0000000000000000H
	DQ	FLAT:$SG192820
	DQ	FLAT:$SG192821
	DD	07cH
	DD	00H
	DD	00H
	DD	00H
	DQ	0000000000000000H
	DQ	0000000000000000H
	DQ	FLAT:$SG192822
	DQ	FLAT:$SG192823
	DD	07dH
	DD	00H
	DD	00H
	DD	00H
	DQ	0000000000000000H
	DQ	0000000000000000H
	DQ	FLAT:$SG192824
	DQ	FLAT:$SG192825
	DD	07eH
	DD	00H
	DD	00H
	DD	00H
	DQ	0000000000000000H
	DQ	0000000000000000H
	DQ	FLAT:$SG192826
	DQ	FLAT:$SG192827
	DD	07fH
	DD	00H
	DD	00H
	DD	00H
	DQ	0000000000000000H
	DQ	0000000000000000H
	DQ	FLAT:$SG192828
	DQ	FLAT:$SG192829
	DD	080H
	DD	00H
	DD	00H
	DD	00H
	DQ	FLAT:mod129
	DQ	FLAT:instr129
	DQ	FLAT:$SG192830
	DQ	FLAT:$SG192831
	DD	081H
	DD	00H
	DD	00H
	DD	00H
	DQ	0000000000000000H
	DQ	0000000000000000H
	DQ	FLAT:$SG192832
	DQ	FLAT:$SG192833
	DD	082H
	DD	00H
	DD	00H
	DD	00H
	DQ	0000000000000000H
	DQ	0000000000000000H
	DQ	FLAT:$SG192834
	DQ	FLAT:$SG192835
	DD	083H
	DD	00H
	DD	00H
	DD	00H
	DQ	0000000000000000H
	DQ	0000000000000000H
	DQ	FLAT:$SG192836
	DQ	FLAT:$SG192837
	DD	083H
	DD	00H
	DD	00H
	DD	00H
	DQ	0000000000000000H
	DQ	0000000000000000H
	DQ	FLAT:$SG192838
	DQ	FLAT:$SG192839
	DD	084H
	DD	00H
	DD	00H
	DD	00H
	DQ	0000000000000000H
	DQ	FLAT:instr133
	DQ	FLAT:$SG192840
	DQ	FLAT:$SG192841
	DD	085H
	DD	00H
	DD	00H
	DD	00H
	DQ	FLAT:mod134
	DQ	FLAT:instr134
	DQ	FLAT:$SG192842
	DQ	FLAT:$SG192843
	DD	086H
	DD	00H
	DD	00H
	DD	00H
	DQ	FLAT:mod135
	DQ	0000000000000000H
	DQ	FLAT:$SG192844
	DQ	FLAT:$SG192845
	DD	087H
	DD	00H
	DD	00H
	DD	00H
	DQ	0000000000000000H
	DQ	0000000000000000H
	DQ	FLAT:$SG192846
	DQ	FLAT:$SG192847
	DD	088H
	DD	00H
	DD	00H
	DD	00H
	DQ	0000000000000000H
	DQ	0000000000000000H
	DQ	FLAT:$SG192848
	DQ	FLAT:$SG192849
	DD	089H
	DD	00H
	DD	00H
	DD	00H
	DQ	0000000000000000H
	DQ	0000000000000000H
	DQ	FLAT:$SG192850
	DQ	FLAT:$SG192851
	DD	08aH
	DD	00H
	DD	00H
	DD	00H
	DQ	FLAT:mod139
	DQ	0000000000000000H
	DQ	FLAT:$SG192852
	DQ	FLAT:$SG192853
	DD	08bH
	DD	00H
	DD	00H
	DD	00H
	DQ	0000000000000000H
	DQ	0000000000000000H
	DQ	FLAT:$SG192854
	DQ	FLAT:$SG192855
	DD	08cH
	DD	00H
	DD	00H
	DD	00H
	DQ	0000000000000000H
	DQ	0000000000000000H
	DQ	FLAT:$SG192856
	DQ	FLAT:$SG192857
	DD	08dH
	DD	00H
	DD	00H
	DD	00H
	DQ	FLAT:mod142
	DQ	FLAT:instr142
	DQ	FLAT:$SG192858
	DQ	FLAT:$SG192859
	DD	08eH
	DD	00H
	DD	00H
	DD	00H
	DQ	0000000000000000H
	DQ	0000000000000000H
	DQ	FLAT:$SG192860
	DQ	FLAT:$SG192861
	DD	08fH
	DD	00H
	DD	00H
	DD	00H
	DQ	0000000000000000H
	DQ	FLAT:instr144
	DQ	FLAT:$SG192862
	DQ	FLAT:$SG192863
	DD	090H
	DD	00H
	DD	00H
	DD	00H
	DQ	FLAT:mod145
	DQ	FLAT:instr145
	DQ	FLAT:$SG192864
	DQ	FLAT:$SG192865
	DD	091H
	DD	00H
	DD	00H
	DD	00H
	DQ	FLAT:mod146
	DQ	FLAT:instr146
	DQ	FLAT:$SG192866
	DQ	FLAT:$SG192867
	DD	092H
	DD	00H
	DD	00H
	DD	00H
	DQ	0000000000000000H
	DQ	0000000000000000H
	DQ	FLAT:$SG192868
	DQ	FLAT:$SG192869
	DD	093H
	DD	00H
	DD	00H
	DD	00H
	DQ	FLAT:mod148
	DQ	FLAT:instr148
	DQ	FLAT:$SG192870
	DQ	FLAT:$SG192871
	DD	094H
	DD	00H
	DD	00H
	DD	00H
	DQ	FLAT:mod149
	DQ	0000000000000000H
	DQ	FLAT:$SG192872
	DQ	FLAT:$SG192873
	DD	095H
	DD	00H
	DD	00H
	DD	00H
	DQ	0000000000000000H
	DQ	FLAT:instr150
	DQ	FLAT:$SG192874
	DQ	FLAT:$SG192875
	DD	096H
	DD	00H
	DD	00H
	DD	00H
	DQ	0000000000000000H
	DQ	FLAT:instr151
	DQ	FLAT:$SG192876
	DQ	FLAT:$SG192877
	DD	097H
	DD	00H
	DD	00H
	DD	00H
	DQ	FLAT:mod152
	DQ	0000000000000000H
	DQ	FLAT:$SG192878
	DQ	FLAT:$SG192879
	DD	098H
	DD	00H
	DD	00H
	DD	00H
	DQ	0000000000000000H
	DQ	0000000000000000H
	DQ	FLAT:$SG192880
	DQ	FLAT:$SG192881
	DD	099H
	DD	00H
	DD	00H
	DD	00H
	DQ	0000000000000000H
	DQ	0000000000000000H
	DQ	FLAT:$SG192882
	DQ	FLAT:$SG192883
	DD	09aH
	DD	00H
	DD	00H
	DD	00H
	DQ	FLAT:mod155
	DQ	FLAT:instr155
	DQ	FLAT:$SG192884
	DQ	FLAT:$SG192885
	DD	09bH
	DD	00H
	DD	00H
	DD	00H
	DQ	0000000000000000H
	DQ	0000000000000000H
	DQ	FLAT:$SG192886
	DQ	FLAT:$SG192887
	DD	09cH
	DD	00H
	DD	00H
	DD	00H
	DQ	0000000000000000H
	DQ	0000000000000000H
	DQ	FLAT:$SG192888
	DQ	FLAT:$SG192889
	DD	09dH
	DD	00H
	DD	00H
	DD	00H
	DQ	0000000000000000H
	DQ	0000000000000000H
	DQ	FLAT:$SG192890
	DQ	FLAT:$SG192891
	DD	09eH
	DD	00H
	DD	00H
	DD	00H
	DQ	0000000000000000H
	DQ	0000000000000000H
	DQ	FLAT:$SG192892
	DQ	FLAT:$SG192893
	DD	09fH
	DD	00H
	DD	00H
	DD	00H
	DQ	0000000000000000H
	DQ	0000000000000000H
	DQ	FLAT:$SG192894
	DQ	FLAT:$SG192895
	DD	0a0H
	DD	00H
	DD	00H
	DD	00H
	DQ	0000000000000000H
	DQ	0000000000000000H
	DQ	FLAT:$SG192896
	DQ	FLAT:$SG192897
	DD	0a1H
	DD	00H
	DD	00H
	DD	00H
	DQ	0000000000000000H
	DQ	0000000000000000H
	DQ	FLAT:$SG192898
	DQ	FLAT:$SG192899
	DD	0a2H
	DD	00H
	DD	00H
	DD	00H
	DQ	0000000000000000H
	DQ	0000000000000000H
	DQ	FLAT:$SG192900
	DQ	FLAT:$SG192901
	DD	0a3H
	DD	00H
	DD	00H
	DD	00H
	DQ	0000000000000000H
	DQ	0000000000000000H
	DQ	FLAT:$SG192902
	DQ	FLAT:$SG192903
	DD	0a4H
	DD	00H
	DD	00H
	DD	00H
	DQ	FLAT:mod165
	DQ	FLAT:instr165
	DQ	FLAT:$SG192904
	DQ	FLAT:$SG192905
	DD	0a5H
	DD	00H
	DD	00H
	DD	00H
	DQ	0000000000000000H
	DQ	0000000000000000H
	DQ	FLAT:$SG192906
	DQ	FLAT:$SG192907
	DD	0a6H
	DD	00H
	DD	00H
	DD	00H
	DQ	0000000000000000H
	DQ	0000000000000000H
	DQ	FLAT:$SG192908
	DQ	FLAT:$SG192909
	DD	0a7H
	DD	00H
	DD	00H
	DD	00H
	DQ	FLAT:mod168
	DQ	0000000000000000H
	DQ	FLAT:$SG192910
	DQ	FLAT:$SG192911
	DD	0a8H
	DD	00H
	DD	00H
	DD	00H
	DQ	FLAT:mod169
	DQ	0000000000000000H
	DQ	FLAT:$SG192912
	DQ	FLAT:$SG192913
	DD	0a9H
	DD	00H
	DD	00H
	DD	00H
	DQ	0000000000000000H
	DQ	0000000000000000H
	DQ	FLAT:$SG192914
	DQ	FLAT:$SG192915
	DD	0aaH
	DD	00H
	DD	00H
	DD	00H
	DQ	0000000000000000H
	DQ	0000000000000000H
	DQ	FLAT:$SG192916
	DQ	FLAT:$SG192917
	DD	0abH
	DD	00H
	DD	00H
	DD	00H
	DQ	0000000000000000H
	DQ	0000000000000000H
	DQ	FLAT:$SG192918
	DQ	FLAT:$SG192919
	DD	0acH
	DD	00H
	DD	00H
	DD	00H
	DQ	0000000000000000H
	DQ	0000000000000000H
	DQ	FLAT:$SG192920
	DQ	FLAT:$SG192921
	DD	0adH
	DD	00H
	DD	00H
	DD	00H
	DQ	0000000000000000H
	DQ	0000000000000000H
	DQ	FLAT:$SG192922
	DQ	FLAT:$SG192923
	DD	0aeH
	DD	00H
	DD	00H
	DD	00H
	DQ	0000000000000000H
	DQ	0000000000000000H
	DQ	FLAT:$SG192924
	DQ	FLAT:$SG192925
	DD	0afH
	DD	00H
	DD	00H
	DD	00H
	DQ	0000000000000000H
	DQ	0000000000000000H
	DQ	FLAT:$SG192926
	DQ	FLAT:$SG192927
	DD	0b0H
	DD	00H
	DD	00H
	DD	00H
	DQ	0000000000000000H
	DQ	0000000000000000H
	DQ	FLAT:$SG192928
	DQ	FLAT:$SG192929
	DD	0b1H
	DD	00H
	DD	00H
	DD	00H
	DQ	0000000000000000H
	DQ	0000000000000000H
	DQ	FLAT:$SG192930
	DQ	FLAT:$SG192931
	DD	0b2H
	DD	00H
	DD	00H
	DD	00H
	DQ	0000000000000000H
	DQ	0000000000000000H
	DQ	FLAT:$SG192932
	DQ	FLAT:$SG192933
	DD	0b3H
	DD	00H
	DD	00H
	DD	00H
	DQ	0000000000000000H
	DQ	0000000000000000H
	DQ	FLAT:$SG192934
	DQ	FLAT:$SG192935
	DD	0b4H
	DD	00H
	DD	00H
	DD	00H
	DQ	0000000000000000H
	DQ	0000000000000000H
	DQ	FLAT:$SG192936
	DQ	FLAT:$SG192937
	DD	0b5H
	DD	00H
	DD	00H
	DD	00H
	DQ	0000000000000000H
	DQ	0000000000000000H
	DQ	FLAT:$SG192938
	DQ	FLAT:$SG192939
	DD	0b6H
	DD	00H
	DD	00H
	DD	00H
	DQ	0000000000000000H
	DQ	0000000000000000H
	DQ	FLAT:$SG192940
	DQ	FLAT:$SG192941
	DD	0b7H
	DD	00H
	DD	00H
	DD	00H
	DQ	0000000000000000H
	DQ	0000000000000000H
	DQ	FLAT:$SG192942
	DQ	FLAT:$SG192943
	DD	0b8H
	DD	00H
	DD	00H
	DD	00H
	DQ	0000000000000000H
	DQ	0000000000000000H
	DQ	FLAT:$SG192944
	DQ	FLAT:$SG192945
	DD	0b9H
	DD	00H
	DD	00H
	DD	00H
	DQ	0000000000000000H
	DQ	0000000000000000H
	DQ	FLAT:$SG192946
	DQ	FLAT:$SG192947
	DD	0baH
	DD	00H
	DD	00H
	DD	00H
	DQ	0000000000000000H
	DQ	0000000000000000H
	DQ	FLAT:$SG192948
	DQ	FLAT:$SG192949
	DD	0bbH
	DD	00H
	DD	00H
	DD	00H
	DQ	0000000000000000H
	DQ	0000000000000000H
	DQ	FLAT:$SG192950
	DQ	FLAT:$SG192951
	DD	0bcH
	DD	00H
	DD	00H
	DD	00H
	DQ	0000000000000000H
	DQ	0000000000000000H
	DQ	FLAT:$SG192952
	DQ	FLAT:$SG192953
	DD	0bdH
	DD	00H
	DD	00H
	DD	00H
	DQ	0000000000000000H
	DQ	0000000000000000H
	DQ	FLAT:$SG192954
	DQ	FLAT:$SG192955
	DD	0beH
	DD	00H
	DD	00H
	DD	00H
	DQ	0000000000000000H
	DQ	0000000000000000H
	DQ	FLAT:$SG192956
	DQ	FLAT:$SG192957
	DD	0bfH
	DD	00H
	DD	00H
	DD	00H
	DQ	FLAT:mod192
	DQ	FLAT:instr192
	DQ	FLAT:$SG192958
	DQ	FLAT:$SG192959
	DD	0c0H
	DD	00H
	DD	00H
	DD	00H
	DQ	0000000000000000H
	DQ	FLAT:instr193
	DQ	FLAT:$SG192960
	DQ	FLAT:$SG192961
	DD	0c1H
	DD	00H
	DD	00H
	DD	00H
	DQ	FLAT:mod194
	DQ	FLAT:instr194
	DQ	FLAT:$SG192962
	DQ	FLAT:$SG192963
	DD	0c2H
	DD	00H
	DD	00H
	DD	00H
	DQ	0000000000000000H
	DQ	0000000000000000H
	DQ	FLAT:$SG192964
	DQ	FLAT:$SG192965
	DD	0c3H
	DD	00H
	DD	00H
	DD	00H
	DQ	FLAT:mod196
	DQ	FLAT:instr196
	DQ	FLAT:$SG192966
	DQ	FLAT:$SG192967
	DD	0c4H
	DD	00H
	DD	00H
	DD	00H
	DQ	FLAT:mod197
	DQ	0000000000000000H
	DQ	FLAT:$SG192968
	DQ	FLAT:$SG192969
	DD	0c5H
	DD	00H
	DD	00H
	DD	00H
	DQ	0000000000000000H
	DQ	0000000000000000H
	DQ	FLAT:$SG192970
	DQ	FLAT:$SG192971
	DD	0c6H
	DD	00H
	DD	00H
	DD	00H
	DQ	0000000000000000H
	DQ	0000000000000000H
	DQ	FLAT:$SG192972
	DQ	FLAT:$SG192973
	DD	0c7H
	DD	00H
	DD	00H
	DD	00H
	DQ	0000000000000000H
	DQ	0000000000000000H
	DQ	FLAT:$SG192974
	DQ	FLAT:$SG192975
	DD	0c8H
	DD	00H
	DD	00H
	DD	00H
	DQ	0000000000000000H
	DQ	FLAT:herc37X
	DQ	FLAT:$SG192976
	DQ	FLAT:$SG192977
	DD	0100H
	DD	00H
	DD	00H
	DD	00H
	DQ	0000000000000000H
	DQ	0000000000000000H
	DQ	FLAT:$SG192978
	DQ	FLAT:$SG192979
	DD	0101H
	DD	00H
	DD	00H
	DD	00H
	DQ	0000000000000000H
	DQ	0000000000000000H
	DQ	FLAT:$SG192980
	DQ	FLAT:$SG192981
	DD	0102H
	DD	00H
	DD	00H
	DD	00H
	DQ	0000000000000000H
	DQ	0000000000000000H
	DQ	FLAT:$SG192982
	DQ	FLAT:$SG192983
	DD	0103H
	DD	00H
	DD	00H
	DD	00H
	DQ	0000000000000000H
	DQ	0000000000000000H
	DQ	FLAT:$SG192984
	DQ	FLAT:$SG192985
	DD	0104H
	DD	00H
	DD	00H
	DD	00H
	DQ	0000000000000000H
	DQ	FLAT:hercmvcin
	DQ	FLAT:$SG192986
	DQ	FLAT:$SG192987
	DD	0105H
	DD	00H
	DD	00H
	DD	00H
	DQ	0000000000000000H
	DQ	0000000000000000H
	DQ	FLAT:$SG192988
	DQ	FLAT:$SG192989
	DD	0106H
	DD	00H
	DD	00H
	DD	00H
	DQ	0000000000000000H
	DQ	0000000000000000H
	DQ	FLAT:$SG192990
	DQ	FLAT:$SG192991
	DD	0107H
	DD	00H
	DD	00H
	DD	00H
	DQ	0000000000000000H
	DQ	0000000000000000H
	DQ	FLAT:$SG192992
	DQ	FLAT:$SG192993
	DD	0108H
	DD	00H
	DD	00H
	DD	00H
	DQ	0000000000000000H
	DQ	0000000000000000H
	DQ	FLAT:$SG192994
	DQ	FLAT:$SG192995
	DD	0109H
	DD	00H
	DD	00H
	DD	00H
	DQ	0000000000000000H
	DQ	0000000000000000H
	DQ	FLAT:$SG192996
	DQ	FLAT:$SG192997
	DD	010aH
	DD	00H
	DD	00H
	DD	00H
	DQ	0000000000000000H
	DQ	0000000000000000H
	DQ	FLAT:$SG192998
	DQ	FLAT:$SG192999
	DD	010bH
	DD	00H
	DD	00H
	DD	00H
	DQ	0000000000000000H
	DQ	0000000000000000H
	DQ	FLAT:$SG193000
	DQ	FLAT:$SG193001
	DD	010cH
	DD	00H
	DD	00H
	DD	00H
	DQ	0000000000000000H
	DQ	0000000000000000H
	DQ	FLAT:$SG193002
	DQ	FLAT:$SG193003
	DD	010dH
	DD	00H
	DD	00H
	DD	00H
	DQ	0000000000000000H
	DQ	FLAT:hercsvs
	DQ	FLAT:$SG193004
	DQ	FLAT:$SG193005
	DD	010eH
	DD	00H
	DD	00H
	DD	00H
	DQ	0000000000000000H
	DQ	0000000000000000H
	DQ	FLAT:$SG193006
	DQ	FLAT:$SG193007
	DD	010fH
	DD	00H
	DD	00H
	DD	00H
	DQ	FLAT:modtcp
	DQ	FLAT:herctcp
	DQ	FLAT:$SG193008
	DQ	FLAT:$SG193009
	DD	0110H
	DD	00H
	DD	00H
	DD	00H
	DQ	FLAT:modtcp
	DQ	0000000000000000H
	DQ	FLAT:$SG193010
	DQ	FLAT:$SG193011
	DD	0111H
	DD	00H
	DD	00H
	DD	00H
	DQ	0000000000000000H
	DQ	FLAT:hercessa
	DQ	FLAT:$SG193012
	DQ	FLAT:$SG193013
	DD	0112H
	DD	00H
	DD	00H
	DD	00H
arch_factab DQ	FLAT:s370_facs_tab
	DQ	FLAT:s390_facs_tab
	DQ	FLAT:z900_facs_tab
$SG193098 DB	'S', 00H
	ORG $+2
$SG193221 DB	'E', 00H
	ORG $+2
$SG193099 DB	'HHC00899%s %s facility %s fails consistency check', 0aH, 00H
	ORG $+1
$SG193251 DB	'W', 00H
	ORG $+2
$SG193100 DB	'init_facilities_lists', 00H
	ORG $+2
$SG193101 DB	'C:\papa\MyGit\hyperion-zvector\facility.c', 00H
	ORG $+2
$SG193252 DB	'I', 00H
	ORG $+2
$SG193222 DB	'HHC00152%s Out of memory', 0aH, 00H
	ORG $+2
$SG193329 DB	' ', 09H, 0aH, 0bH, 0cH, 0dH, 00H
	ORG $+1
$SG193333 DB	'I', 00H
	ORG $+2
$SG193223 DB	'facility_query_all', 00H
	ORG $+1
$SG193363 DB	'E', 00H
	ORG $+2
$SG193224 DB	'C:\papa\MyGit\hyperion-zvector\facility.c', 00H
	ORG $+2
$SG193332 DB	' ', 09H, 0aH, 0bH, 0cH, 0dH, 00H
	ORG $+1
$SG193370 DB	'ALL', 00H
$SG193225 DB	'HHC00891I', 0aH, 00H
	ORG $+1
$SG193380 DB	'RAW', 00H
$SG193226 DB	'facility_query_all', 00H
	ORG $+1
$SG193382 DB	'BIT', 00H
$SG193227 DB	'C:\papa\MyGit\hyperion-zvector\facility.c', 00H
	ORG $+2
$SG193387 DB	'E', 00H
	ORG $+2
$SG193228 DB	'HHC00891I                             %s Facility Table', 0aH
	DB	00H
	ORG $+3
$SG193371 DB	'SHORT', 00H
	ORG $+2
$SG193392 DB	'E', 00H
	ORG $+2
$SG193229 DB	'facility_query_all', 00H
	ORG $+1
$SG193396 DB	'W', 00H
	ORG $+2
$SG193230 DB	'C:\papa\MyGit\hyperion-zvector\facility.c', 00H
	ORG $+2
$SG193397 DB	'I', 00H
	ORG $+2
$SG193231 DB	'HHC00891I', 0aH, 00H
	ORG $+1
$SG193400 DB	'*', 00H
	ORG $+2
$SG193232 DB	'facility_query_all', 00H
	ORG $+1
$SG193424 DB	'E', 00H
	ORG $+2
$SG193233 DB	'C:\papa\MyGit\hyperion-zvector\facility.c', 00H
	ORG $+6
$SG193235 DB	'facility_query_all', 00H
	ORG $+5
$SG193234 DB	'HHC00891I           SRDC* = Supported, Required, Default'
	DB	', Current, Modified.', 0aH, 00H
	ORG $+2
$SG193236 DB	'C:\papa\MyGit\hyperion-zvector\facility.c', 00H
	ORG $+2
$SG193446 DB	'mod000', 00H
	ORG $+1
$SG196287 DB	'E', 00H
	ORG $+2
$SG193237 DB	'HHC00891I', 0aH, 00H
	ORG $+1
$SG196298 DB	'E', 00H
	ORG $+2
$SG193238 DB	'facility_query_all', 00H
	ORG $+1
$SG196303 DB	'E', 00H
	ORG $+2
$SG193239 DB	'C:\papa\MyGit\hyperion-zvector\facility.c', 00H
	ORG $+6
$SG193240 DB	'HHC00891I Bit By Bi SRDC* Facility                    De'
	DB	'scription', 0aH, 00H
	ORG $+1
$SG196309 DB	'E', 00H
	ORG $+2
$SG193241 DB	'facility_query_all', 00H
	ORG $+1
$SG196316 DB	'E', 00H
	ORG $+2
$SG193242 DB	'C:\papa\MyGit\hyperion-zvector\facility.c', 00H
	ORG $+6
$SG193243 DB	'HHC00891I --- -- -- ----- --------------------------- --'
	DB	'-------------------------------------------------------', 0aH
	DB	00H
	ORG $+3
$SG193468 DB	'mod002', 00H
	ORG $+1
$SG196323 DB	'BIT', 00H
$SG193244 DB	'facility_query_all', 00H
	ORG $+1
$SG196327 DB	'E', 00H
	ORG $+2
$SG193245 DB	'C:\papa\MyGit\hyperion-zvector\facility.c', 00H
	ORG $+2
$SG193490 DB	'mod003', 00H
	ORG $+1
$SG196332 DB	'E', 00H
	ORG $+2
$SG193246 DB	'HHC00891I', 0aH, 00H
	ORG $+1
$SG196345 DB	'E', 00H
	ORG $+2
$SG193247 DB	'facility_query_all', 00H
	ORG $+1
$SG196354 DB	'W', 00H
	ORG $+2
$SG193248 DB	'C:\papa\MyGit\hyperion-zvector\facility.c', 00H
	ORG $+2
$SG193493 DB	'mod003', 00H
	ORG $+1
$SG196355 DB	'I', 00H
	ORG $+2
$SG193253 DB	'HHC00891%s %3d %02X %02X %c%c%c%c%c %-27s%c%s', 0aH, 00H
	ORG $+1
$SG193254 DB	'facility_query_all', 00H
	ORG $+1
$SG196358 DB	'*', 00H
	ORG $+2
$SG193255 DB	'C:\papa\MyGit\hyperion-zvector\facility.c', 00H
	ORG $+2
$SG193516 DB	'mod004', 00H
	ORG $+1
$SG196381 DB	'E', 00H
	ORG $+2
$SG193256 DB	'HHC00891I', 0aH, 00H
	ORG $+1
$SG196392 DB	'E', 00H
	ORG $+2
$SG193257 DB	'facility_query_all', 00H
	ORG $+1
$SG196398 DB	'E', 00H
	ORG $+2
$SG193258 DB	'C:\papa\MyGit\hyperion-zvector\facility.c', 00H
	ORG $+6
$SG193260 DB	'facility_query_all', 00H
	ORG $+5
$SG193259 DB	'HHC00891I           SRDC* = Supported, Required, Default'
	DB	', Current, Modified.', 0aH, 00H
	ORG $+2
$SG193261 DB	'C:\papa\MyGit\hyperion-zvector\facility.c', 00H
	ORG $+2
$SG193519 DB	'mod004', 00H
	ORG $+1
$SG196402 DB	'E', 00H
	ORG $+2
$SG193262 DB	'HHC00891I', 0aH, 00H
	ORG $+5
$SG193263 DB	'facility_query_all', 00H
	ORG $+5
$SG193264 DB	'C:\papa\MyGit\hyperion-zvector\facility.c', 00H
	ORG $+6
$SG193328 DB	'%02X%02X%02X%02X %02X%02X%02X%02X ', 00H
	ORG $+5
$SG193330 DB	', HERC: ', 00H
	ORG $+7
$SG193331 DB	'%02X%02X%02X%02X %02X%02X%02X%02X ', 00H
	ORG $+5
$SG193334 DB	'HHC00894%s %s facility list: %s', 0aH, 00H
	ORG $+7
$SG193335 DB	'facility_query_raw', 00H
	ORG $+5
$SG193336 DB	'C:\papa\MyGit\hyperion-zvector\facility.c', 00H
	ORG $+6
$SG193364 DB	'HHC02299%s Invalid command usage. Type ''help %s'' for a'
	DB	'ssistance.', 0aH, 00H
	ORG $+6
$SG193365 DB	'facility_query', 00H
	ORG $+1
$SG193366 DB	'C:\papa\MyGit\hyperion-zvector\facility.c', 00H
	ORG $+2
$SG193372 DB	'LONG', 00H
	ORG $+7
$SG193373 DB	'ENABLED', 00H
$SG193374 DB	'DISABLED', 00H
	ORG $+7
$SG193375 DB	'ENABLED', 00H
$SG193376 DB	'DISABLED', 00H
	ORG $+3
$SG193377 DB	'LONG', 00H
	ORG $+3
$SG193378 DB	'LONG', 00H
	ORG $+3
$SG193385 DB	'%d%c', 00H
	ORG $+7
$SG193388 DB	'HHC00892%s Facility( %s ) does not exist for %s', 0aH, 00H
	ORG $+7
$SG193389 DB	'facility_query', 00H
	ORG $+1
$SG193390 DB	'C:\papa\MyGit\hyperion-zvector\facility.c', 00H
	ORG $+6
$SG193393 DB	'HHC00893%s Facility( %s ) not supported for %s', 0aH, 00H
$SG193394 DB	'facility_query', 00H
	ORG $+1
$SG193395 DB	'C:\papa\MyGit\hyperion-zvector\facility.c', 00H
	ORG $+6
$SG193398 DB	'Enabled', 00H
$SG193399 DB	'Disabled', 00H
	ORG $+7
$SG193402 DB	'HHC00898%s Facility( %s ) %s%s for %s', 0aH, 00H
	ORG $+1
$SG193403 DB	'facility_query', 00H
	ORG $+1
$SG193404 DB	'C:\papa\MyGit\hyperion-zvector\facility.c', 00H
	ORG $+6
$SG193425 DB	'HHC00890%s Cannot %s facility %s without first %s facili'
	DB	'ty %s', 0aH, 00H
	ORG $+1
$SG193447 DB	'C:\papa\MyGit\hyperion-zvector\facility.c', 00H
	ORG $+6
$SG193469 DB	'C:\papa\MyGit\hyperion-zvector\facility.c', 00H
	ORG $+6
$SG193491 DB	'C:\papa\MyGit\hyperion-zvector\facility.c', 00H
	ORG $+6
$SG193494 DB	'C:\papa\MyGit\hyperion-zvector\facility.c', 00H
	ORG $+6
$SG193517 DB	'C:\papa\MyGit\hyperion-zvector\facility.c', 00H
	ORG $+6
$SG193520 DB	'C:\papa\MyGit\hyperion-zvector\facility.c', 00H
	ORG $+2
$SG193541 DB	'mod005', 00H
	ORG $+5
$SG193542 DB	'C:\papa\MyGit\hyperion-zvector\facility.c', 00H
	ORG $+2
$SG193544 DB	'mod005', 00H
	ORG $+5
$SG193545 DB	'C:\papa\MyGit\hyperion-zvector\facility.c', 00H
	ORG $+2
$SG193566 DB	'mod007', 00H
	ORG $+5
$SG193567 DB	'C:\papa\MyGit\hyperion-zvector\facility.c', 00H
	ORG $+2
$SG193588 DB	'mod008', 00H
	ORG $+5
$SG193589 DB	'C:\papa\MyGit\hyperion-zvector\facility.c', 00H
	ORG $+2
$SG193610 DB	'mod010', 00H
	ORG $+5
$SG193611 DB	'C:\papa\MyGit\hyperion-zvector\facility.c', 00H
	ORG $+2
$SG193633 DB	'mod014', 00H
	ORG $+5
$SG193634 DB	'C:\papa\MyGit\hyperion-zvector\facility.c', 00H
	ORG $+2
$SG193636 DB	'mod014', 00H
	ORG $+5
$SG193637 DB	'C:\papa\MyGit\hyperion-zvector\facility.c', 00H
	ORG $+2
$SG193658 DB	'mod018', 00H
	ORG $+5
$SG193659 DB	'C:\papa\MyGit\hyperion-zvector\facility.c', 00H
	ORG $+2
$SG193680 DB	'mod019', 00H
	ORG $+5
$SG193681 DB	'C:\papa\MyGit\hyperion-zvector\facility.c', 00H
	ORG $+2
$SG193702 DB	'mod025', 00H
	ORG $+5
$SG193703 DB	'C:\papa\MyGit\hyperion-zvector\facility.c', 00H
	ORG $+2
$SG193724 DB	'mod028', 00H
	ORG $+5
$SG193725 DB	'C:\papa\MyGit\hyperion-zvector\facility.c', 00H
	ORG $+2
$SG193746 DB	'mod037', 00H
	ORG $+5
$SG193747 DB	'C:\papa\MyGit\hyperion-zvector\facility.c', 00H
	ORG $+2
$SG193768 DB	'mod040', 00H
	ORG $+5
$SG193769 DB	'C:\papa\MyGit\hyperion-zvector\facility.c', 00H
	ORG $+2
$SG193790 DB	'mod042', 00H
	ORG $+5
$SG193791 DB	'C:\papa\MyGit\hyperion-zvector\facility.c', 00H
	ORG $+2
$SG193793 DB	'mod042', 00H
	ORG $+5
$SG193794 DB	'C:\papa\MyGit\hyperion-zvector\facility.c', 00H
	ORG $+2
$SG193815 DB	'mod043', 00H
	ORG $+5
$SG193816 DB	'C:\papa\MyGit\hyperion-zvector\facility.c', 00H
	ORG $+2
$SG193837 DB	'mod045', 00H
	ORG $+5
$SG193838 DB	'C:\papa\MyGit\hyperion-zvector\facility.c', 00H
	ORG $+2
$SG193859 DB	'mod048', 00H
	ORG $+5
$SG193860 DB	'C:\papa\MyGit\hyperion-zvector\facility.c', 00H
	ORG $+2
$SG193881 DB	'mod049', 00H
	ORG $+5
$SG193882 DB	'C:\papa\MyGit\hyperion-zvector\facility.c', 00H
	ORG $+2
$SG193884 DB	'mod049', 00H
	ORG $+5
$SG193885 DB	'C:\papa\MyGit\hyperion-zvector\facility.c', 00H
	ORG $+2
$SG193906 DB	'mod050', 00H
	ORG $+5
$SG193907 DB	'C:\papa\MyGit\hyperion-zvector\facility.c', 00H
	ORG $+2
$SG193928 DB	'mod051', 00H
	ORG $+5
$SG193929 DB	'C:\papa\MyGit\hyperion-zvector\facility.c', 00H
	ORG $+2
$SG193950 DB	'mod061', 00H
	ORG $+5
$SG193951 DB	'C:\papa\MyGit\hyperion-zvector\facility.c', 00H
	ORG $+2
$SG193972 DB	'mod066', 00H
	ORG $+5
$SG193973 DB	'C:\papa\MyGit\hyperion-zvector\facility.c', 00H
	ORG $+2
$SG193994 DB	'mod067', 00H
	ORG $+5
$SG193995 DB	'C:\papa\MyGit\hyperion-zvector\facility.c', 00H
	ORG $+2
$SG193997 DB	'mod067', 00H
	ORG $+5
$SG193998 DB	'C:\papa\MyGit\hyperion-zvector\facility.c', 00H
	ORG $+2
$SG194019 DB	'mod068', 00H
	ORG $+5
$SG194020 DB	'C:\papa\MyGit\hyperion-zvector\facility.c', 00H
	ORG $+2
$SG194022 DB	'mod068', 00H
	ORG $+5
$SG194023 DB	'C:\papa\MyGit\hyperion-zvector\facility.c', 00H
	ORG $+2
$SG194045 DB	'mod073', 00H
	ORG $+5
$SG194046 DB	'C:\papa\MyGit\hyperion-zvector\facility.c', 00H
	ORG $+2
$SG194048 DB	'mod073', 00H
	ORG $+5
$SG194049 DB	'C:\papa\MyGit\hyperion-zvector\facility.c', 00H
	ORG $+2
$SG194070 DB	'mod076', 00H
	ORG $+5
$SG194071 DB	'C:\papa\MyGit\hyperion-zvector\facility.c', 00H
	ORG $+2
$SG194073 DB	'mod076', 00H
	ORG $+5
$SG194074 DB	'C:\papa\MyGit\hyperion-zvector\facility.c', 00H
	ORG $+2
$SG194095 DB	'mod077', 00H
	ORG $+5
$SG194096 DB	'C:\papa\MyGit\hyperion-zvector\facility.c', 00H
	ORG $+2
$SG194117 DB	'mod078', 00H
	ORG $+5
$SG194118 DB	'C:\papa\MyGit\hyperion-zvector\facility.c', 00H
	ORG $+2
$SG194139 DB	'mod080', 00H
	ORG $+5
$SG194140 DB	'C:\papa\MyGit\hyperion-zvector\facility.c', 00H
	ORG $+2
$SG194161 DB	'mod081', 00H
	ORG $+5
$SG194162 DB	'C:\papa\MyGit\hyperion-zvector\facility.c', 00H
	ORG $+2
$SG194183 DB	'mod129', 00H
	ORG $+5
$SG194184 DB	'C:\papa\MyGit\hyperion-zvector\facility.c', 00H
	ORG $+2
$SG194186 DB	'mod129', 00H
	ORG $+5
$SG194187 DB	'C:\papa\MyGit\hyperion-zvector\facility.c', 00H
	ORG $+2
$SG194189 DB	'mod129', 00H
	ORG $+5
$SG194190 DB	'C:\papa\MyGit\hyperion-zvector\facility.c', 00H
	ORG $+2
$SG194192 DB	'mod129', 00H
	ORG $+5
$SG194193 DB	'C:\papa\MyGit\hyperion-zvector\facility.c', 00H
	ORG $+2
$SG194195 DB	'mod129', 00H
	ORG $+5
$SG194196 DB	'C:\papa\MyGit\hyperion-zvector\facility.c', 00H
	ORG $+2
$SG194198 DB	'mod129', 00H
	ORG $+5
$SG194199 DB	'C:\papa\MyGit\hyperion-zvector\facility.c', 00H
	ORG $+2
$SG194221 DB	'mod134', 00H
	ORG $+5
$SG194222 DB	'C:\papa\MyGit\hyperion-zvector\facility.c', 00H
	ORG $+2
$SG194224 DB	'mod134', 00H
	ORG $+5
$SG194225 DB	'C:\papa\MyGit\hyperion-zvector\facility.c', 00H
	ORG $+2
$SG194227 DB	'mod134', 00H
	ORG $+5
$SG194228 DB	'C:\papa\MyGit\hyperion-zvector\facility.c', 00H
	ORG $+2
$SG194250 DB	'mod135', 00H
	ORG $+5
$SG194251 DB	'C:\papa\MyGit\hyperion-zvector\facility.c', 00H
	ORG $+2
$SG194253 DB	'mod135', 00H
	ORG $+5
$SG194254 DB	'C:\papa\MyGit\hyperion-zvector\facility.c', 00H
	ORG $+2
$SG194275 DB	'mod139', 00H
	ORG $+5
$SG194276 DB	'C:\papa\MyGit\hyperion-zvector\facility.c', 00H
	ORG $+2
$SG194278 DB	'mod139', 00H
	ORG $+5
$SG194279 DB	'C:\papa\MyGit\hyperion-zvector\facility.c', 00H
	ORG $+2
$SG194300 DB	'mod142', 00H
	ORG $+5
$SG194301 DB	'C:\papa\MyGit\hyperion-zvector\facility.c', 00H
	ORG $+2
$SG194322 DB	'mod145', 00H
	ORG $+5
$SG194323 DB	'C:\papa\MyGit\hyperion-zvector\facility.c', 00H
	ORG $+2
$SG194344 DB	'mod146', 00H
	ORG $+5
$SG194345 DB	'C:\papa\MyGit\hyperion-zvector\facility.c', 00H
	ORG $+2
$SG194366 DB	'mod148', 00H
	ORG $+5
$SG194367 DB	'C:\papa\MyGit\hyperion-zvector\facility.c', 00H
	ORG $+2
$SG194369 DB	'mod148', 00H
	ORG $+5
$SG194370 DB	'C:\papa\MyGit\hyperion-zvector\facility.c', 00H
	ORG $+2
$SG194391 DB	'mod149', 00H
	ORG $+5
$SG194392 DB	'C:\papa\MyGit\hyperion-zvector\facility.c', 00H
	ORG $+2
$SG194414 DB	'mod152', 00H
	ORG $+5
$SG194415 DB	'C:\papa\MyGit\hyperion-zvector\facility.c', 00H
	ORG $+2
$SG194417 DB	'mod152', 00H
	ORG $+5
$SG194418 DB	'C:\papa\MyGit\hyperion-zvector\facility.c', 00H
	ORG $+2
$SG194420 DB	'mod152', 00H
	ORG $+5
$SG194421 DB	'C:\papa\MyGit\hyperion-zvector\facility.c', 00H
	ORG $+2
$SG194442 DB	'mod155', 00H
	ORG $+5
$SG194443 DB	'C:\papa\MyGit\hyperion-zvector\facility.c', 00H
	ORG $+2
$SG194445 DB	'mod155', 00H
	ORG $+5
$SG194446 DB	'C:\papa\MyGit\hyperion-zvector\facility.c', 00H
	ORG $+2
$SG194467 DB	'mod165', 00H
	ORG $+5
$SG194468 DB	'C:\papa\MyGit\hyperion-zvector\facility.c', 00H
	ORG $+2
$SG194489 DB	'mod168', 00H
	ORG $+5
$SG194490 DB	'C:\papa\MyGit\hyperion-zvector\facility.c', 00H
	ORG $+2
$SG194511 DB	'mod169', 00H
	ORG $+5
$SG194512 DB	'C:\papa\MyGit\hyperion-zvector\facility.c', 00H
	ORG $+2
$SG194514 DB	'mod169', 00H
	ORG $+5
$SG194515 DB	'C:\papa\MyGit\hyperion-zvector\facility.c', 00H
	ORG $+2
$SG194517 DB	'mod169', 00H
	ORG $+5
$SG194518 DB	'C:\papa\MyGit\hyperion-zvector\facility.c', 00H
	ORG $+2
$SG194520 DB	'mod169', 00H
	ORG $+5
$SG194521 DB	'C:\papa\MyGit\hyperion-zvector\facility.c', 00H
	ORG $+2
$SG194523 DB	'mod169', 00H
	ORG $+5
$SG194524 DB	'C:\papa\MyGit\hyperion-zvector\facility.c', 00H
	ORG $+2
$SG194545 DB	'mod192', 00H
	ORG $+5
$SG194546 DB	'C:\papa\MyGit\hyperion-zvector\facility.c', 00H
	ORG $+2
$SG194548 DB	'mod192', 00H
	ORG $+5
$SG194549 DB	'C:\papa\MyGit\hyperion-zvector\facility.c', 00H
	ORG $+2
$SG194551 DB	'mod192', 00H
	ORG $+5
$SG194552 DB	'C:\papa\MyGit\hyperion-zvector\facility.c', 00H
	ORG $+2
$SG194573 DB	'mod194', 00H
	ORG $+5
$SG194574 DB	'C:\papa\MyGit\hyperion-zvector\facility.c', 00H
	ORG $+2
$SG194595 DB	'mod196', 00H
	ORG $+5
$SG194596 DB	'C:\papa\MyGit\hyperion-zvector\facility.c', 00H
	ORG $+2
$SG194617 DB	'mod197', 00H
	ORG $+5
$SG194618 DB	'C:\papa\MyGit\hyperion-zvector\facility.c', 00H
	ORG $+2
$SG194689 DB	'modtcp', 00H
	ORG $+5
$SG194690 DB	'C:\papa\MyGit\hyperion-zvector\facility.c', 00H
	ORG $+2
$SG194693 DB	'modtcp', 00H
	ORG $+5
$SG194694 DB	'C:\papa\MyGit\hyperion-zvector\facility.c', 00H
	ORG $+6
$SG194732 DB	'ALCR    B998  ADD LOGICAL WITH CARRY (32)', 00H
	ORG $+6
$SG194733 DB	'ALC     E398  ADD LOGICAL WITH CARRY (32)', 00H
	ORG $+6
$SG194734 DB	'BRASL   C005  BRANCH RELATIVE AND SAVE LONG', 00H
	ORG $+4
$SG194735 DB	'BRCL    C004  BRANCH RELATIVE ON CONDITION LONG', 00H
$SG194736 DB	'DLR     B997  DIVIDE LOGICAL (32 <- 64)', 00H
$SG194737 DB	'DL      E397  DIVIDE LOGICAL (32 <- 64)', 00H
$SG194738 DB	'EPSW    B98D  EXTRACT PSW', 00H
	ORG $+6
$SG194739 DB	'LARL    C000  LOAD ADDRESS RELATIVE LONG', 00H
	ORG $+7
$SG194740 DB	'LRVR    B91F  LOAD REVERSED (32)', 00H
	ORG $+7
$SG194741 DB	'LRV     E31E  LOAD REVERSED (32)', 00H
	ORG $+7
$SG194742 DB	'LRVH    E31F  LOAD REVERSED (16)', 00H
	ORG $+7
$SG194743 DB	'MLR     B996  MULTIPLY LOGICAL (64 <- 32)', 00H
	ORG $+6
$SG194744 DB	'ML      E396  MULTIPLY LOGICAL (64 <- 32)', 00H
	ORG $+6
$SG194745 DB	'RLL     EB1D  ROTATE LEFT SINGLE LOGICAL (32)', 00H
	ORG $+2
$SG194746 DB	'SAM24   010C  SET ADDRESSING MODE (24)', 00H
	ORG $+1
$SG194747 DB	'SAM31   010D  SET ADDRESSING MODE (31)', 00H
	ORG $+1
$SG194748 DB	'STFL    B2B1  STORE FACILITY LIST', 00H
	ORG $+6
$SG194749 DB	'STRV    E33E  STORE REVERSED (32)', 00H
	ORG $+6
$SG194750 DB	'STRVH   E33F  STORE REVERSED (16)', 00H
	ORG $+6
$SG194751 DB	'SLBR    B999  SUBTRACT LOGICAL WITH BORROW (32)', 00H
$SG194752 DB	'SLB     E399  SUBTRACT LOGICAL WITH BORROW (32)', 00H
$SG194753 DB	'TAM     010B  TEST ADDRESSING MODE', 00H
	ORG $+5
$SG194764 DB	'CSPG    B98A  COMPARE AND SWAP AND PURGE (64)', 00H
	ORG $+2
$SG194765 DB	'IDTE    B98E  INVALIDATE DAT TABLE ENTRY', 00H
	ORG $+7
$SG194776 DB	'EPAIR   B99A  EXTRACT PRIMARY ASN AND INSTANCE', 00H
	ORG $+1
$SG194777 DB	'ESAIR   B99B  EXTRACT SECONDARY ASN AND INSTANCE', 00H
	ORG $+7
$SG194778 DB	'PTI     B99E  PROGRAM TRANSFER WITH INSTANCE', 00H
	ORG $+3
$SG194779 DB	'SSAIR   B99F  SET SECONDARY ASN WITH INSTANCE', 00H
	ORG $+2
$SG194790 DB	'STFLE   B2B0  STORE FACILITY LIST EXTENDED', 00H
	ORG $+5
$SG194801 DB	'PFMF    B9AF  PERFORM FRAME MANAGEMENT FUNCTION', 00H
$SG194812 DB	'PTF     B9A2  PERFORM TOPOLOGY FUNCTION', 00H
$SG194823 DB	'CLCLU   EB8F  COMPARE LOGICAL LONG UNICODE', 00H
	ORG $+5
$SG194824 DB	'MVCLU   EB8E  MOVE LONG UNICODE', 00H
$SG194825 DB	'PKA     E9    PACK ASCII', 00H
	ORG $+7
$SG194826 DB	'PKU     E1    PACK UNICODE', 00H
	ORG $+5
$SG194827 DB	'TP      EBC0  TEST DECIMAL', 00H
	ORG $+5
$SG194828 DB	'TROO    B993  TRANSLATE ONE TO ONE', 00H
	ORG $+5
$SG194829 DB	'TROT    B992  TRANSLATE ONE TO TWO', 00H
	ORG $+5
$SG194830 DB	'TRTO    B991  TRANSLATE TWO TO ONE', 00H
	ORG $+5
$SG194831 DB	'TRTT    B990  TRANSLATE TWO TO TWO', 00H
	ORG $+5
$SG194832 DB	'UNPKA   EA    UNPACK ASCII', 00H
	ORG $+5
$SG194833 DB	'UNPKU   E2    UNPACK UNICODE', 00H
	ORG $+3
$SG194844 DB	'KM      B92E  CIPHER MESSAGE', 00H
	ORG $+3
$SG194845 DB	'KMC     B92F  CIPHER MESSAGE WITH CHAINING', 00H
	ORG $+5
$SG194846 DB	'KIMD    B93E  COMPUTE INTERMEDIATE MESSAGE DIGEST', 00H
	ORG $+6
$SG194847 DB	'KLMD    B93F  COMPUTE LAST MESSAGE DIGEST', 00H
	ORG $+6
$SG194848 DB	'KMAC    B91E  COMPUTE MESSAGE AUTHENTICATION CODE', 00H
	ORG $+6
$SG194859 DB	'AY      E35A  ADD (32)', 00H
	ORG $+1
$SG194860 DB	'AHY     E37A  ADD HALFWORD (32 <- 16)', 00H
	ORG $+2
$SG194861 DB	'ALY     E35E  ADD LOGICAL (32)', 00H
	ORG $+1
$SG194862 DB	'NY      E354  AND (32)', 00H
	ORG $+1
$SG194863 DB	'NIY     EB54  AND (immediate)', 00H
	ORG $+2
$SG194864 DB	'CY      E359  COMPARE (32)', 00H
	ORG $+5
$SG194865 DB	'CSY     EB14  COMPARE AND SWAP (32)', 00H
	ORG $+4
$SG194866 DB	'CDSY    EB31  COMPARE DOUBLE AND SWAP (32)', 00H
	ORG $+5
$SG194867 DB	'CHY     E379  COMPARE HALFWORD (32 <- 16)', 00H
	ORG $+6
$SG194868 DB	'CLY     E355  COMPARE LOGICAL (32)', 00H
	ORG $+5
$SG194869 DB	'CLIY    EB55  COMPARE LOGICAL (immediate)', 00H
	ORG $+6
$SG194870 DB	'CLMY    EB21  COMPARE LOGICAL CHAR. UNDER MASK (low)', 00H
	ORG $+3
$SG194871 DB	'CVBY    E306  CONVERT TO BINARY (32)', 00H
	ORG $+3
$SG194872 DB	'CVDY    E326  CONVERT TO DECIMAL (32)', 00H
	ORG $+2
$SG194873 DB	'XY      E357  EXCLUSIVE OR (32)', 00H
$SG194874 DB	'XIY     EB57  EXCLUSIVE OR (immediate)', 00H
	ORG $+1
$SG194875 DB	'ICY     E373  INSERT CHARACTER', 00H
	ORG $+1
$SG194876 DB	'ICMY    EB81  INSERT CHARACTERS UNDER MASK (low)', 00H
	ORG $+7
$SG194877 DB	'LY      E358  LOAD (32)', 00H
$SG194878 DB	'LEY     ED64  LOAD (short)', 00H
	ORG $+5
$SG194879 DB	'LDY     ED65  LOAD (long)', 00H
	ORG $+6
$SG194880 DB	'LAMY    EB9A  LOAD ACCESS MULTIPLE', 00H
	ORG $+5
$SG194881 DB	'LAY     E371  LOAD ADDRESS', 00H
	ORG $+5
$SG194882 DB	'LB      E376  LOAD BYTE (32 <- 8)', 00H
	ORG $+6
$SG194883 DB	'LGB     E377  LOAD BYTE (64 <- 8)', 00H
	ORG $+6
$SG194884 DB	'LHY     E378  LOAD HALFWORD (32 <- 16)', 00H
	ORG $+1
$SG194885 DB	'LMY     EB98  LOAD MULTIPLE (32)', 00H
	ORG $+7
$SG194886 DB	'LRAY    E313  LOAD REAL ADDRESS (32)', 00H
	ORG $+3
$SG194887 DB	'MVIY    EB52  MOVE (immediate)', 00H
	ORG $+1
$SG194888 DB	'MSY     E351  MULTIPLY SINGLE (32)', 00H
	ORG $+5
$SG194889 DB	'OY      E356  OR (32)', 00H
	ORG $+2
$SG194890 DB	'OIY     EB56  OR (immediate)', 00H
	ORG $+3
$SG194891 DB	'STY     E350  STORE (32)', 00H
	ORG $+7
$SG194892 DB	'STEY    ED66  STORE (short)', 00H
	ORG $+4
$SG194893 DB	'STDY    ED67  STORE (long)', 00H
	ORG $+5
$SG194894 DB	'STAMY   EB9B  STORE ACCESS MULTIPLE', 00H
	ORG $+4
$SG194895 DB	'STCY    E372  STORE CHARACTER', 00H
	ORG $+2
$SG194896 DB	'STCMY   EB2D  STORE CHARACTERS UNDER MASK (low)', 00H
$SG194897 DB	'STHY    E370  STORE HALFWORD (16)', 00H
	ORG $+6
$SG194898 DB	'STMY    EB90  STORE MULTIPLE (32)', 00H
	ORG $+6
$SG194899 DB	'SY      E35B  SUBTRACT (32)', 00H
	ORG $+4
$SG194900 DB	'SHY     E37B  SUBTRACT HALFWORD (32 <- 16)', 00H
	ORG $+5
$SG194901 DB	'SLY     E35F  SUBTRACT LOGICAL (32)', 00H
	ORG $+4
$SG194902 DB	'TMY     EB51  TEST UNDER MASK', 00H
	ORG $+2
$SG194913 DB	'MAER    B32E  MULTIPLY AND ADD (short HFP)', 00H
	ORG $+5
$SG194914 DB	'MADR    B33E  MULTIPLY AND ADD (long HFP)', 00H
	ORG $+6
$SG194915 DB	'MAE     ED2E  MULTIPLY AND ADD (short HFP)', 00H
	ORG $+5
$SG194916 DB	'MAD     ED3E  MULTIPLY AND ADD (long HFP)', 00H
	ORG $+6
$SG194917 DB	'MSER    B32F  MULTIPLY AND SUBTRACT (short HFP)', 00H
$SG194918 DB	'MSDR    B33F  MULTIPLY AND SUBTRACT (long HFP)', 00H
	ORG $+1
$SG194919 DB	'MSE     ED2F  MULTIPLY AND SUBTRACT (short HFP)', 00H
$SG194920 DB	'MSD     ED3F  MULTIPLY AND SUBTRACT (long HFP)', 00H
	ORG $+1
$SG194931 DB	'AGFI    C208  ADD IMMEDIATE (64 <- 32)', 00H
	ORG $+1
$SG194932 DB	'AFI     C209  ADD IMMEDIATE (32)', 00H
	ORG $+7
$SG194933 DB	'ALGFI   C20A  ADD LOGICAL IMMEDIATE (64 <- 32)', 00H
	ORG $+1
$SG194934 DB	'ALFI    C20B  ADD LOGICAL IMMEDIATE (32)', 00H
	ORG $+7
$SG194935 DB	'NIHF    C00A  AND IMMEDIATE (high)', 00H
	ORG $+5
$SG194936 DB	'NILF    C00B  AND IMMEDIATE (low)', 00H
	ORG $+6
$SG194937 DB	'CGFI    C20C  COMPARE IMMEDIATE (64 <- 32)', 00H
	ORG $+5
$SG194938 DB	'CFI     C20D  COMPARE IMMEDIATE (32)', 00H
	ORG $+3
$SG194939 DB	'CLGFI   C20E  COMPARE LOGICAL IMMEDIATE (64 <- 32)', 00H
	ORG $+5
$SG194940 DB	'CLFI    C20F  COMPARE LOGICAL IMMEDIATE (32)', 00H
	ORG $+3
$SG194941 DB	'XIHF    C006  EXCLUSIVE OR IMMEDIATE (high)', 00H
	ORG $+4
$SG194942 DB	'XILF    C007  EXCLUSIVE OR IMMEDIATE (low)', 00H
	ORG $+5
$SG194943 DB	'FLOGR   B983  FIND LEFTMOST ONE', 00H
$SG194944 DB	'IIHF    C008  INSERT IMMEDIATE (high)', 00H
	ORG $+2
$SG194945 DB	'IILF    C009  INSERT IMMEDIATE (low)', 00H
	ORG $+3
$SG194946 DB	'LTG     E302  LOAD AND TEST (64)', 00H
	ORG $+7
$SG194947 DB	'LT      E312  LOAD AND TEST (32)', 00H
	ORG $+7
$SG194948 DB	'LGBR    B906  LOAD BYTE (64 <- 8)', 00H
	ORG $+6
$SG194949 DB	'LBR     B926  LOAD BYTE (32 <- 8)', 00H
	ORG $+6
$SG194950 DB	'LGHR    B907  LOAD HALFWORD (64 <- 16)', 00H
	ORG $+1
$SG194951 DB	'LHR     B927  LOAD HALFWORD (32 <- 16)', 00H
	ORG $+1
$SG194952 DB	'LGFI    C001  LOAD IMMEDIATE (64 <- 32)', 00H
$SG194953 DB	'LLGCR   B984  LOAD LOGICAL CHARACTER (64 <- 8)', 00H
	ORG $+1
$SG194954 DB	'LLCR    B994  LOAD LOGICAL CHARACTER (32 <- 8)', 00H
	ORG $+1
$SG194955 DB	'LLC     E394  LOAD LOGICAL CHARACTER (32 <- 8)', 00H
	ORG $+1
$SG194956 DB	'LLGHR   B985  LOAD LOGICAL HALFWORD (64 <- 16)', 00H
	ORG $+1
$SG194957 DB	'LLHR    B995  LOAD LOGICAL HALFWORD (32 <- 16)', 00H
	ORG $+1
$SG194958 DB	'LLH     E395  LOAD LOGICAL HALFWORD (32 <- 16)', 00H
	ORG $+1
$SG194959 DB	'LLIHF   C00E  LOAD LOGICAL IMMEDIATE (high)', 00H
	ORG $+4
$SG194960 DB	'LLILF   C00F  LOAD LOGICAL IMMEDIATE (low)', 00H
	ORG $+5
$SG194961 DB	'OIHF    C00C  OR IMMEDIATE (high)', 00H
	ORG $+6
$SG194962 DB	'OILF    C00D  OR IMMEDIATE (low)', 00H
	ORG $+7
$SG194963 DB	'SLGFI   C204  SUBTRACT LOGICAL IMMEDIATE (64 <- 32)', 00H
	ORG $+4
$SG194964 DB	'SLFI    C205  SUBTRACT LOGICAL IMMEDIATE (32)', 00H
	ORG $+2
$SG194975 DB	'CU24    B9B1  CONVERT UTF-16 TO UTF-32', 00H
	ORG $+1
$SG194976 DB	'CU42    B9B3  CONVERT UTF-32 TO UTF-16', 00H
	ORG $+1
$SG194977 DB	'CU41    B9B2  CONVERT UTF-32 TO UTF-8', 00H
	ORG $+2
$SG194978 DB	'CU14    B9B0  CONVERT UTF-8 TO UTF-32', 00H
	ORG $+2
$SG194979 DB	'SRSTU   B9BE  SEARCH STRING UNICODE', 00H
	ORG $+4
$SG194980 DB	'TRTR    D0    TRANSLATE AND TEST REVERSE', 00H
	ORG $+7
$SG194991 DB	'MAYR    B33A  MULTIPLY & ADD UNNORMALIZED (long to ext. '
	DB	'HFP)', 00H
	ORG $+3
$SG194992 DB	'MAY     ED3A  MULTIPLY & ADD UNNORMALIZED (long to ext. '
	DB	'HFP)', 00H
	ORG $+3
$SG194993 DB	'MAYLR   B338  MULTIPLY AND ADD UNNRM. (long to ext. low '
	DB	'HFP)', 00H
	ORG $+3
$SG194994 DB	'MAYHR   B33C  MULTIPLY AND ADD UNNRM. (long to ext. high'
	DB	' HFP)', 00H
	ORG $+2
$SG194995 DB	'MAYL    ED38  MULTIPLY AND ADD UNNRM. (long to ext. low '
	DB	'HFP)', 00H
	ORG $+3
$SG194996 DB	'MAYH    ED3C  MULTIPLY AND ADD UNNRM. (long to ext. high'
	DB	' HFP)', 00H
	ORG $+2
$SG194997 DB	'MYLR    B339  MULTIPLY UNNORM. (long to ext. low HFP)', 00H
	ORG $+2
$SG194998 DB	'MYHR    B33D  MULTIPLY UNNORM. (long to ext. high HFP)', 00H
	ORG $+1
$SG194999 DB	'MYL     ED39  MULTIPLY UNNORM. (long to ext. low HFP)', 00H
	ORG $+2
$SG195000 DB	'MYH     ED3D  MULTIPLY UNNORM. (long to ext. high HFP)', 00H
	ORG $+1
$SG195001 DB	'MYR     B33B  MULTIPLY UNNORMALIZED (long to ext. HFP)', 00H
	ORG $+1
$SG195002 DB	'MY      ED3B  MULTIPLY UNNORMALIZED (long to ext. HFP)', 00H
	ORG $+1
$SG195013 DB	'STCKF   B27C  STORE CLOCK FAST', 00H
	ORG $+1
$SG195024 DB	'TRTE    B9BF  TRANSLATE AND TEST EXTENDED', 00H
	ORG $+6
$SG195025 DB	'TRTRE   B9BD  TRANSLATE AND TEST REVERSE EXTENDED', 00H
	ORG $+6
$SG195036 DB	'MVCOS   C800  MOVE WITH OPTIONAL SPECIFICATIONS', 00H
$SG195047 DB	'PTFF    0104  PERFORM TIMING FACILITY FUNCTION', 00H
	ORG $+1
$SG195058 DB	'ECTG    C801  EXTRACT CPU TIME', 00H
	ORG $+1
$SG195069 DB	'CSST    C802  COMPARE AND SWAP AND STORE', 00H
	ORG $+7
$SG195080 DB	'ASI     EB6A  ADD IMMEDIATE (32 <- 8)', 00H
	ORG $+2
$SG195081 DB	'AGSI    EB7A  ADD IMMEDIATE (64 <- 8)', 00H
	ORG $+2
$SG195082 DB	'ALSI    EB6E  ADD LOGICAL WITH SIGNED IMMEDIATE (32 <- 8'
	DB	')', 00H
	ORG $+6
$SG195083 DB	'ALGSI   EB7E  ADD LOGICAL WITH SIGNED IMMEDIATE (64 <- 8'
	DB	')', 00H
	ORG $+6
$SG195084 DB	'CGRB    ECE4  COMPARE AND BRANCH (64)', 00H
	ORG $+2
$SG195085 DB	'CRB     ECF6  COMPARE AND BRANCH (32)', 00H
	ORG $+2
$SG195086 DB	'CGRJ    EC64  COMPARE AND BRANCH RELATIVE (64)', 00H
	ORG $+1
$SG195087 DB	'CRJ     EC76  COMPARE AND BRANCH RELATIVE (32)', 00H
	ORG $+1
$SG195088 DB	'CGRT    B960  COMPARE AND TRAP (64)', 00H
	ORG $+4
$SG195089 DB	'CRT     B972  COMPARE AND TRAP (32)', 00H
	ORG $+4
$SG195090 DB	'CGH     E334  COMPARE HALFWORD (64 <- 16)', 00H
	ORG $+6
$SG195091 DB	'CHHSI   E554  COMPARE HALFWORD IMMEDIATE (16 <- 16)', 00H
	ORG $+4
$SG195092 DB	'CGHSI   E558  COMPARE HALFWORD IMMEDIATE (64 <- 16)', 00H
	ORG $+4
$SG195093 DB	'CHSI    E55C  COMPARE HALFWORD IMMEDIATE (32 <- 16)', 00H
	ORG $+4
$SG195094 DB	'CGHRL   C604  COMPARE HALFWORD RELATIVE LONG (64 <- 16)', 00H
$SG195095 DB	'CHRL    C605  COMPARE HALFWORD RELATIVE LONG (32 <- 16)', 00H
$SG195096 DB	'CGIB    ECFC  COMPARE IMMEDIATE AND BRANCH (64 <- 8)', 00H
	ORG $+3
$SG195097 DB	'CIB     ECFE  COMPARE IMMEDIATE AND BRANCH (32 <- 8)', 00H
	ORG $+3
$SG195098 DB	'CGIJ    EC7C  COMPARE IMMEDIATE AND BRANCH RELATIVE (64 '
	DB	'<- 8)', 00H
	ORG $+2
$SG195099 DB	'CIJ     EC7E  COMPARE IMMEDIATE AND BRANCH RELATIVE (32 '
	DB	'<- 8)', 00H
	ORG $+2
$SG195100 DB	'CGIT    EC70  COMPARE IMMEDIATE AND TRAP (64 <- 16)', 00H
	ORG $+4
$SG195101 DB	'CIT     EC72  COMPARE IMMEDIATE AND TRAP (32 <- 16)', 00H
	ORG $+4
$SG195102 DB	'CLGRB   ECE5  COMPARE LOGICAL AND BRANCH (64)', 00H
	ORG $+2
$SG195103 DB	'CLRB    ECF7  COMPARE LOGICAL AND BRANCH (32)', 00H
	ORG $+2
$SG195104 DB	'CLGRJ   EC65  COMPARE LOGICAL AND BRANCH RELATIVE (64)', 00H
	ORG $+1
$SG195105 DB	'CLRJ    EC77  COMPARE LOGICAL AND BRANCH RELATIVE (32)', 00H
	ORG $+1
$SG195106 DB	'CLGRT   B961  COMPARE LOGICAL AND TRAP (64)', 00H
	ORG $+4
$SG195107 DB	'CLRT    B973  COMPARE LOGICAL AND TRAP (32)', 00H
	ORG $+4
$SG195108 DB	'CLHHSI  E555  COMPARE LOGICAL IMMEDIATE (16 <- 16)', 00H
	ORG $+5
$SG195109 DB	'CLGHSI  E559  COMPARE LOGICAL IMMEDIATE (64 <- 16)', 00H
	ORG $+5
$SG195110 DB	'CLFHSI  E55D  COMPARE LOGICAL IMMEDIATE (32 <- 16)', 00H
	ORG $+5
$SG195111 DB	'CLGIB   ECFD  COMPARE LOGICAL IMMEDIATE AND BRANCH (64 <'
	DB	'- 8)', 00H
	ORG $+3
$SG195112 DB	'CLIB    ECFF  COMPARE LOGICAL IMMEDIATE AND BRANCH (32 <'
	DB	'- 8)', 00H
	ORG $+3
$SG195117 DB	'CLGHRL  C606  COMPARE LOGICAL RELATIVE LONG (64 <- 16)', 00H
	ORG $+1
$SG195113 DB	'CLGIJ   EC7D  COMPARE LOGICAL IMMEDIATE AND BRANCH RELAT'
	DB	'IVE (64 <- 8)', 00H
	ORG $+2
$SG195118 DB	'CLHRL   C607  COMPARE LOGICAL RELATIVE LONG (32 <- 16)', 00H
	ORG $+1
$SG195114 DB	'CLIJ    EC7F  COMPARE LOGICAL IMMEDIATE AND BRANCH RELAT'
	DB	'IVE (32 <- 8)', 00H
	ORG $+2
$SG195115 DB	'CLGIT   EC71  COMPARE LOGICAL IMMEDIATE AND TRAP (64 <- '
	DB	'16)', 00H
	ORG $+4
$SG195116 DB	'CLFIT   EC73  COMPARE LOGICAL IMMEDIATE AND TRAP (32 <- '
	DB	'16)', 00H
	ORG $+4
$SG195119 DB	'CLGRL   C60A  COMPARE LOGICAL RELATIVE LONG (64)', 00H
	ORG $+7
$SG195120 DB	'CLGFRL  C60E  COMPARE LOGICAL RELATIVE LONG (64 <- 32)', 00H
	ORG $+1
$SG195121 DB	'CLRL    C60F  COMPARE LOGICAL RELATIVE LONG (32)', 00H
	ORG $+7
$SG195122 DB	'CGRL    C608  COMPARE RELATIVE LONG (64)', 00H
	ORG $+7
$SG195123 DB	'CGFRL   C60C  COMPARE RELATIVE LONG (64 <- 32)', 00H
	ORG $+1
$SG195124 DB	'CRL     C60D  COMPARE RELATIVE LONG (32)', 00H
	ORG $+7
$SG195125 DB	'ECAG    EB4C  EXTRACT CPU ATTRIBUTE', 00H
	ORG $+4
$SG195126 DB	'LAEY    E375  LOAD ADDRESS EXTENDED', 00H
	ORG $+4
$SG195127 DB	'LTGF    E332  LOAD AND TEST (64 <- 32)', 00H
	ORG $+1
$SG195128 DB	'LGHRL   C404  LOAD HALFWORD RELATIVE LONG (64 <- 16)', 00H
	ORG $+3
$SG195129 DB	'LHRL    C405  LOAD HALFWORD RELATIVE LONG (32 <- 16)', 00H
	ORG $+3
$SG195130 DB	'LLHRL   C402  LOAD LOGICAL HALFWORD RELATIVE LONG (32 <-'
	DB	' 16)', 00H
	ORG $+3
$SG195131 DB	'LLGHRL  C406  LOAD LOGICAL HALFWORD RELATIVE LONG (64 <-'
	DB	' 16)', 00H
	ORG $+3
$SG195132 DB	'LLGFRL  C40E  LOAD LOGICAL RELATIVE LONG (64 <- 32)', 00H
	ORG $+4
$SG195133 DB	'LGRL    C408  LOAD RELATIVE LONG (64)', 00H
	ORG $+2
$SG195134 DB	'LGFRL   C40C  LOAD RELATIVE LONG (64 <- 32)', 00H
	ORG $+4
$SG195135 DB	'LRL     C40D  LOAD RELATIVE LONG (32)', 00H
	ORG $+2
$SG195136 DB	'MVHHI   E544  MOVE (16 <- 16)', 00H
	ORG $+2
$SG195137 DB	'MVGHI   E548  MOVE (64 <- 16)', 00H
	ORG $+2
$SG195138 DB	'MVHI    E54C  MOVE (32 <- 16)', 00H
	ORG $+2
$SG195139 DB	'MFY     E35C  MULTIPLY (64 <- 32)', 00H
	ORG $+6
$SG195140 DB	'MHY     E37C  MULTIPLY HALFWORD (32 <- 16)', 00H
	ORG $+5
$SG195141 DB	'MSGFI   C200  MULTIPLY SINGLE IMMEDIATE (64 <- 32)', 00H
	ORG $+5
$SG195142 DB	'MSFI    C201  MULTIPLY SINGLE IMMEDIATE (32)', 00H
	ORG $+3
$SG195143 DB	'PFD     E336  PREFETCH DATA', 00H
	ORG $+4
$SG195144 DB	'PFDRL   C602  PREFETCH DATA RELATIVE LONG', 00H
	ORG $+6
$SG195145 DB	'RNSBG   EC54  ROTATE THEN AND SELECTED BITS (64)', 00H
	ORG $+7
$SG195146 DB	'RXSBG   EC57  ROTATE THEN EXCLUSIVE OR SELECT. BITS (64)'
	DB	00H
	ORG $+7
$SG195147 DB	'RISBG   EC55  ROTATE THEN INSERT SELECTED BITS (64)', 00H
	ORG $+4
$SG195148 DB	'ROSBG   EC56  ROTATE THEN OR SELECTED BITS (64)', 00H
$SG195149 DB	'STHRL   C407  STORE HALFWORD RELATIVE LONG (16)', 00H
$SG195150 DB	'STGRL   C40B  STORE RELATIVE LONG (64)', 00H
	ORG $+1
$SG195151 DB	'STRL    C40F  STORE RELATIVE LONG (32)', 00H
	ORG $+1
$SG195162 DB	'EXRL    C600  EXECUTE RELATIVE LONG', 00H
	ORG $+4
$SG195173 DB	'CDFTR   B951  CONVERT FROM FIXED (32 to long DFP)', 00H
	ORG $+6
$SG195174 DB	'CXFTR   B959  CONVERT FROM FIXED (32 to extended DFP)', 00H
	ORG $+2
$SG195175 DB	'CELFBR  B390  CONVERT FROM LOGICAL (32 to short BFP)', 00H
	ORG $+3
$SG195176 DB	'CDLFBR  B391  CONVERT FROM LOGICAL (32 to long BFP)', 00H
	ORG $+4
$SG195177 DB	'CXLFBR  B392  CONVERT FROM LOGICAL (32 to extended BFP)', 00H
$SG195178 DB	'CELGBR  B3A0  CONVERT FROM LOGICAL (64 to short BFP)', 00H
	ORG $+3
$SG195179 DB	'CDLGBR  B3A1  CONVERT FROM LOGICAL (64 to long BFP)', 00H
	ORG $+4
$SG195180 DB	'CXLGBR  B3A2  CONVERT FROM LOGICAL (64 to extended BFP)', 00H
$SG195181 DB	'CDLGTR  B952  CONVERT FROM LOGICAL (64 to long DFP)', 00H
	ORG $+4
$SG195182 DB	'CDLFTR  B953  CONVERT FROM LOGICAL (32 to long DFP)', 00H
	ORG $+4
$SG195183 DB	'CXLGTR  B95A  CONVERT FROM LOGICAL (64 to extended DFP)', 00H
$SG195184 DB	'CXLFTR  B95B  CONVERT FROM LOGICAL (32 to extended DFP)', 00H
$SG195185 DB	'CFDTR   B941  CONVERT TO FIXED (long DFP to 32)', 00H
$SG195186 DB	'CFXTR   B949  CONVERT TO FIXED (extended DFP to 32)', 00H
	ORG $+4
$SG195187 DB	'CLFEBR  B39C  CONVERT TO LOGICAL (short BFP to 32)', 00H
	ORG $+5
$SG195188 DB	'CLFDBR  B39D  CONVERT TO LOGICAL (long BFP to 32)', 00H
	ORG $+6
$SG195189 DB	'CLFXBR  B39E  CONVERT TO LOGICAL (extended BFP to 32)', 00H
	ORG $+2
$SG195190 DB	'CLGEBR  B3AC  CONVERT TO LOGICAL (short BFP to 64)', 00H
	ORG $+5
$SG195191 DB	'CLGDBR  B3AD  CONVERT TO LOGICAL (long BFP to 64)', 00H
	ORG $+6
$SG195192 DB	'CLGXBR  B3AE  CONVERT TO LOGICAL (extended BFP to 64)', 00H
	ORG $+2
$SG195193 DB	'CLGDTR  B942  CONVERT TO LOGICAL (long DFP to 64)', 00H
	ORG $+6
$SG195194 DB	'CLFDTR  B943  CONVERT TO LOGICAL (long DFP to 32)', 00H
	ORG $+6
$SG195195 DB	'CLGXTR  B94A  CONVERT TO LOGICAL (extended DFP to 64)', 00H
	ORG $+2
$SG195196 DB	'CLFXTR  B94B  CONVERT TO LOGICAL (extended DFP to 32)', 00H
	ORG $+2
$SG195197 DB	'SRNMB   B2B8  SET BFP ROUNDING MODE (3 bit)', 00H
	ORG $+4
$SG195208 DB	'LPP     B280  LOAD PROGRAM PARAMETER', 00H
	ORG $+3
$SG195219 DB	'SRNMT   B2B9  SET DFP ROUNDING MODE', 00H
	ORG $+4
$SG195220 DB	'LDGR    B3C1  LOAD FPR FROM GR (64 to long)', 00H
	ORG $+4
$SG195221 DB	'LGDR    B3CD  LOAD GR FROM FPR (long to 64)', 00H
	ORG $+4
$SG195222 DB	'CPSDR   B372  COPY SIGN (long)', 00H
	ORG $+1
$SG195223 DB	'LCDFR   B373  LOAD COMPLEMENT (long)', 00H
	ORG $+3
$SG195224 DB	'LNDFR   B371  LOAD NEGATIVE (long)', 00H
	ORG $+5
$SG195225 DB	'LPDFR   B370  LOAD POSITIVE (long)', 00H
	ORG $+5
$SG195226 DB	'LFAS    B2BD  LOAD FPC AND SIGNAL', 00H
	ORG $+6
$SG195227 DB	'SFASR   B385  SET FPC AND SIGNAL', 00H
	ORG $+7
$SG195238 DB	'ADTRA   B3D2  ADD (long DFP)', 00H
	ORG $+3
$SG195239 DB	'AXTRA   B3DA  ADD (extended DFP)', 00H
	ORG $+7
$SG195240 DB	'CDTR    B3E4  COMPARE (long DFP)', 00H
	ORG $+7
$SG195241 DB	'CXTR    B3EC  COMPARE (extended DFP)', 00H
	ORG $+3
$SG195242 DB	'KDTR    B3E0  COMPARE AND SIGNAL (long DFP)', 00H
	ORG $+4
$SG195243 DB	'KXTR    B3E8  COMPARE AND SIGNAL (extended DFP)', 00H
$SG195244 DB	'CEDTR   B3F4  COMPARE BIASED EXPONENT (long DFP)', 00H
	ORG $+7
$SG195245 DB	'CEXTR   B3FC  COMPARE BIASED EXPONENT (extended DFP)', 00H
	ORG $+3
$SG195246 DB	'CDGTRA  B3F1  CONVERT FROM FIXED (64 to long DFP)', 00H
	ORG $+6
$SG195247 DB	'CXGTRA  B3F9  CONVERT FROM FIXED (64 to extended DFP)', 00H
	ORG $+2
$SG195248 DB	'CDSTR   B3F3  CONVERT FROM SIGNED PACKED (64 to long DFP'
	DB	')', 00H
	ORG $+6
$SG195249 DB	'CXSTR   B3FB  CONVERT FROM SIGNED PACKED (128 to extende'
	DB	'd DFP)', 00H
	ORG $+1
$SG195250 DB	'CDUTR   B3F2  CONVERT FROM UNSIGNED PACKED (64 to long D'
	DB	'FP)', 00H
	ORG $+4
$SG195251 DB	'CXUTR   B3FA  CONVERT FROM UNSIGNED PACKED (128 to ext. '
	DB	'DFP)', 00H
	ORG $+3
$SG195252 DB	'CGDTRA  B3E1  CONVERT TO FIXED (long DFP to 64)', 00H
$SG195253 DB	'CGXTRA  B3E9  CONVERT TO FIXED (extended DFP to 64)', 00H
	ORG $+4
$SG195254 DB	'CSDTR   B3E3  CONVERT TO SIGNED PACKED (long DFP to 64)', 00H
$SG195255 DB	'CSXTR   B3EB  CONVERT TO SIGNED PACKED (extended DFP to1'
	DB	'28)', 00H
	ORG $+4
$SG195256 DB	'CUDTR   B3E2  CONVERT TO UNSIGNED PACKED (long DFP to64)'
	DB	00H
	ORG $+7
$SG195257 DB	'CUXTR   B3EA  CONVERT TO UNSIGNED PACKED (extended DFP t'
	DB	'o 128)', 00H
	ORG $+1
$SG195258 DB	'DDTRA   B3D1  DIVIDE (long DFP)', 00H
$SG195259 DB	'DXTRA   B3D9  DIVIDE (extended DFP)', 00H
	ORG $+4
$SG195260 DB	'EEDTR   B3E5  EXTRACT BIASED EXPONENT (long DFP to 64)', 00H
	ORG $+1
$SG195261 DB	'EEXTR   B3ED  EXTRACT BIASED EXPONENT (extended DFP to64'
	DB	')', 00H
	ORG $+6
$SG195262 DB	'ESDTR   B3E7  EXTRACT SIGNIFICANCE (long DFP to 64)', 00H
	ORG $+4
$SG195263 DB	'ESXTR   B3EF  EXTRACT SIGNIFICANCE (extended DFP to 64)', 00H
$SG195264 DB	'IEDTR   B3F6  INSERT BIASED EXPONENT (64 to long DFP)', 00H
	ORG $+2
$SG195265 DB	'IEXTR   B3FE  INSERT BIASED EXPONENT (64 to extended DFP'
	DB	')', 00H
	ORG $+6
$SG195266 DB	'LTDTR   B3D6  LOAD AND TEST (long DFP)', 00H
	ORG $+1
$SG195267 DB	'LTXTR   B3DE  LOAD AND TEST (extended DFP)', 00H
	ORG $+5
$SG195268 DB	'FIDTR   B3D7  LOAD FP INTEGER (long DFP)', 00H
	ORG $+7
$SG195269 DB	'FIXTR   B3DF  LOAD FP INTEGER (extended DFP)', 00H
	ORG $+3
$SG195270 DB	'LDETR   B3D4  LOAD LENGTHENED (short to long DFP)', 00H
	ORG $+6
$SG195271 DB	'LXDTR   B3DC  LOAD LENGTHENED (long to extended DFP)', 00H
	ORG $+3
$SG195272 DB	'LEDTR   B3D5  LOAD ROUNDED (long to short DFP)', 00H
	ORG $+1
$SG195273 DB	'LDXTR   B3DD  LOAD ROUNDED (extended to long DFP)', 00H
	ORG $+6
$SG195274 DB	'MDTRA   B3D0  MULTIPLY (long DFP)', 00H
	ORG $+6
$SG195275 DB	'MXTRA   B3D8  MULTIPLY (extended DFP)', 00H
	ORG $+2
$SG195276 DB	'QADTR   B3F5  QUANTIZE (long DFP)', 00H
	ORG $+6
$SG195277 DB	'QAXTR   B3FD  QUANTIZE (extended DFP)', 00H
	ORG $+2
$SG195278 DB	'RRDTR   B3F7  REROUND (long DFP)', 00H
	ORG $+7
$SG195279 DB	'RRXTR   B3FF  REROUND (extended DFP)', 00H
	ORG $+3
$SG195280 DB	'SLDT    ED40  SHIFT SIGNIFICAND LEFT (long DFP)', 00H
$SG195281 DB	'SLXT    ED48  SHIFT SIGNIFICAND LEFT (extended DFP)', 00H
	ORG $+4
$SG195282 DB	'SRDT    ED41  SHIFT SIGNIFICAND RIGHT (long DFP)', 00H
	ORG $+7
$SG195283 DB	'SRXT    ED49  SHIFT SIGNIFICAND RIGHT (extended DFP)', 00H
	ORG $+3
$SG195284 DB	'SDTRA   B3D3  SUBTRACT (long DFP)', 00H
	ORG $+6
$SG195285 DB	'SXTRA   B3DB  SUBTRACT (extended DFP)', 00H
	ORG $+2
$SG195286 DB	'TDCET   ED50  TEST DATA CLASS (short DFP)', 00H
	ORG $+6
$SG195287 DB	'TDCDT   ED54  TEST DATA CLASS (long DFP)', 00H
	ORG $+7
$SG195288 DB	'TDCXT   ED58  TEST DATA CLASS (extended DFP)', 00H
	ORG $+3
$SG195289 DB	'TDGET   ED51  TEST DATA GROUP (short DFP)', 00H
	ORG $+6
$SG195290 DB	'TDGDT   ED55  TEST DATA GROUP (long DFP)', 00H
	ORG $+7
$SG195291 DB	'TDGXT   ED59  TEST DATA GROUP (extended DFP)', 00H
	ORG $+3
$SG195302 DB	'PFPO    010A  PERFORM FLOATING-POINT OPERATION', 00H
	ORG $+1
$SG195313 DB	'AGRK    B9E8  ADD (64)', 00H
	ORG $+1
$SG195314 DB	'ARK     B9F8  ADD (32)', 00H
	ORG $+1
$SG195315 DB	'AHIK    ECD8  ADD IMMEDIATE (32 <- 16)', 00H
	ORG $+1
$SG195316 DB	'AGHIK   ECD9  ADD IMMEDIATE (64 <- 16)', 00H
	ORG $+1
$SG195317 DB	'ALGRK   B9EA  ADD LOGICAL (64)', 00H
	ORG $+1
$SG195318 DB	'ALRK    B9FA  ADD LOGICAL (32)', 00H
	ORG $+1
$SG195319 DB	'ALHSIK  ECDA  ADD LOGICAL WITH SIGNED IMMEDIATE (32 <- 1'
	DB	'6)', 00H
	ORG $+5
$SG195320 DB	'ALGHSIK ECDB  ADD LOGICAL WITH SIGNED IMMEDIATE (64 <- 1'
	DB	'6)', 00H
	ORG $+5
$SG195321 DB	'NGRK    B9E4  AND (64)', 00H
	ORG $+1
$SG195322 DB	'NRK     B9F4  AND (32)', 00H
	ORG $+1
$SG195323 DB	'XGRK    B9E7  EXCLUSIVE OR (64)', 00H
$SG195324 DB	'XRK     B9F7  EXCLUSIVE OR (32)', 00H
$SG195325 DB	'OGRK    B9E6  OR (64)', 00H
	ORG $+2
$SG195326 DB	'ORK     B9F6  OR (32)', 00H
	ORG $+2
$SG195327 DB	'SLAK    EBDD  SHIFT LEFT SINGLE (32)', 00H
	ORG $+3
$SG195328 DB	'SLLK    EBDF  SHIFT LEFT SINGLE LOGICAL (32)', 00H
	ORG $+3
$SG195329 DB	'SRAK    EBDC  SHIFT RIGHT SINGLE (32)', 00H
	ORG $+2
$SG195330 DB	'SRLK    EBDE  SHIFT RIGHT SINGLE LOGICAL (32)', 00H
	ORG $+2
$SG195331 DB	'SGRK    B9E9  SUBTRACT (64)', 00H
	ORG $+4
$SG195332 DB	'SRK     B9F9  SUBTRACT (32)', 00H
	ORG $+4
$SG195333 DB	'SLGRK   B9EB  SUBTRACT LOGICAL (64)', 00H
	ORG $+4
$SG195334 DB	'SLRK    B9FB  SUBTRACT LOGICAL (32)', 00H
	ORG $+4
$SG195335 DB	'AHHHR   B9C8  ADD HIGH (32)', 00H
	ORG $+4
$SG195336 DB	'AHHLR   B9D8  ADD HIGH (32)', 00H
	ORG $+4
$SG195337 DB	'AIH     CC08  ADD IMMEDIATE HIGH (32)', 00H
	ORG $+2
$SG195338 DB	'ALHHHR  B9CA  ADD LOGICAL HIGH (32)', 00H
	ORG $+4
$SG195339 DB	'ALHHLR  B9DA  ADD LOGICAL HIGH (32)', 00H
	ORG $+4
$SG195340 DB	'ALSIH   CC0A  ADD LOGICAL WITH SIGNED IMMEDIATE HIGH (32'
	DB	')', 00H
	ORG $+6
$SG195341 DB	'ALSIHN  CC0B  ADD LOGICAL WITH SIGNED IMMEDIATE HIGH (32'
	DB	')', 00H
	ORG $+6
$SG195342 DB	'BRCTH   CC06  BRANCH RELATIVE ON COUNT HIGH (32)', 00H
	ORG $+7
$SG195343 DB	'CHHR    B9CD  COMPARE HIGH (32)', 00H
$SG195344 DB	'CHLR    B9DD  COMPARE HIGH (32)', 00H
$SG195345 DB	'CHF     E3CD  COMPARE HIGH (32)', 00H
$SG195346 DB	'CIH     CC0D  COMPARE IMMEDIATE HIGH (32)', 00H
	ORG $+6
$SG195347 DB	'CLHHR   B9CF  COMPARE LOGICAL HIGH (32)', 00H
$SG195348 DB	'CLHLR   B9DF  COMPARE LOGICAL HIGH (32)', 00H
$SG195349 DB	'CLHF    E3CF  COMPARE LOGICAL HIGH (32)', 00H
$SG195350 DB	'CLIH    CC0F  COMPARE LOGICAL IMMEDIATE HIGH (32)', 00H
	ORG $+6
$SG195351 DB	'LBH     E3C0  LOAD BYTE HIGH (32 <- 8)', 00H
	ORG $+1
$SG195352 DB	'LHH     E3C4  LOAD HALFWORD HIGH (32 <- 16)', 00H
	ORG $+4
$SG195353 DB	'LFH     E3CA  LOAD HIGH (32)', 00H
	ORG $+3
$SG195354 DB	'LLCH    E3C2  LOAD LOGICAL CHARACTER HIGH (32 <- 8)', 00H
	ORG $+4
$SG195355 DB	'LLHH    E3C6  LOAD LOGICAL HALFWORD HIGH (32 <- 16)', 00H
	ORG $+4
$SG195356 DB	'RISBHG  EC5D  ROTATE THEN INSERT SELECTED BITS HIGH (64)'
	DB	00H
	ORG $+7
$SG195357 DB	'RISBLG  EC51  ROTATE THEN INSERT SELECTED BITS LOW (64)', 00H
$SG195358 DB	'STCH    E3C3  STORE CHARACTER HIGH (8)', 00H
	ORG $+1
$SG195359 DB	'STHH    E3C7  STORE HALFWORD HIGH (16)', 00H
	ORG $+1
$SG195360 DB	'STFH    E3CB  STORE HIGH (32)', 00H
	ORG $+2
$SG195361 DB	'SHHHR   B9C9  SUBTRACT HIGH (32)', 00H
	ORG $+7
$SG195362 DB	'SHHLR   B9D9  SUBTRACT HIGH (32)', 00H
	ORG $+7
$SG195363 DB	'SLHHHR  B9CB  SUBTRACT LOGICAL HIGH (32)', 00H
	ORG $+7
$SG195364 DB	'SLHHLR  B9DB  SUBTRACT LOGICAL HIGH (32)', 00H
	ORG $+7
$SG195365 DB	'LAAG    EBE8  LOAD AND ADD (64)', 00H
$SG195366 DB	'LAA     EBF8  LOAD AND ADD (32)', 00H
$SG195367 DB	'LAALG   EBEA  LOAD AND ADD LOGICAL (64)', 00H
$SG195368 DB	'LAAL    EBFA  LOAD AND ADD LOGICAL (32)', 00H
$SG195369 DB	'LANG    EBE4  LOAD AND AND (64)', 00H
$SG195370 DB	'LAN     EBF4  LOAD AND AND (32)', 00H
$SG195371 DB	'LAXG    EBE7  LOAD AND EXCLUSIVE OR (64)', 00H
	ORG $+7
$SG195372 DB	'LAX     EBF7  LOAD AND EXCLUSIVE OR (32)', 00H
	ORG $+7
$SG195373 DB	'LAOG    EBE6  LOAD AND OR (64)', 00H
	ORG $+1
$SG195374 DB	'LAO     EBF6  LOAD AND OR (32)', 00H
	ORG $+1
$SG195375 DB	'LPD     C804  LOAD PAIR DISJOINT (32)', 00H
	ORG $+2
$SG195376 DB	'LPDG    C805  LOAD PAIR DISJOINT (64)', 00H
	ORG $+2
$SG195377 DB	'LOCGR   B9E2  LOAD ON CONDITION (64)', 00H
	ORG $+3
$SG195378 DB	'LOCR    B9F2  LOAD ON CONDITION (32)', 00H
	ORG $+3
$SG195379 DB	'LOCG    EBE2  LOAD ON CONDITION (64)', 00H
	ORG $+3
$SG195380 DB	'LOC     EBF2  LOAD ON CONDITION (32)', 00H
	ORG $+3
$SG195381 DB	'STOCG   EBE3  STORE ON CONDITION (64)', 00H
	ORG $+2
$SG195382 DB	'STOC    EBF3  STORE ON CONDITION (32)', 00H
	ORG $+2
$SG195383 DB	'POPCNT  B9E1  POPULATION COUNT', 00H
	ORG $+1
$SG195394 DB	'CDZT    EDAA  CONVERT FROM ZONED (to long DFP)', 00H
	ORG $+1
$SG195395 DB	'CXZT    EDAB  CONVERT FROM ZONED (to extended DFP)', 00H
	ORG $+5
$SG195396 DB	'CZDT    EDA8  CONVERT TO ZONED (from long DFP)', 00H
	ORG $+1
$SG195397 DB	'CZXT    EDA9  CONVERT TO ZONED (from extended DFP)', 00H
	ORG $+5
$SG195408 DB	'BPP     C7    BRANCH PREDICTION PRELOAD', 00H
$SG195409 DB	'BPRP    C5    BRANCH PREDICTION RELATIVE PRELOAD', 00H
	ORG $+7
$SG195410 DB	'NIAI    B2FA  NEXT INSTRUCTION ACCESS INTENT', 00H
	ORG $+3
$SG195411 DB	'LGAT    E385  LOAD AND TRAP (64)', 00H
	ORG $+7
$SG195412 DB	'LAT     E39F  LOAD AND TRAP (32L <- 32)', 00H
$SG195413 DB	'LFHAT   E3C8  LOAD HIGH AND TRAP (32H <- 32)', 00H
	ORG $+3
$SG195414 DB	'LLGFAT  E39D  LOAD LOGICAL AND TRAP (64 <- 32)', 00H
	ORG $+1
$SG195415 DB	'LLGTAT  E39C  LOAD LOGICAL THIRTY ONE BITS AND TRAP (64 '
	DB	'<- 31)', 00H
	ORG $+1
$SG195416 DB	'CLT     EB23  COMPARE LOGICAL AND TRAP (32)', 00H
	ORG $+4
$SG195417 DB	'CLGT    EB2B  COMPARE LOGICAL AND TRAP (64)', 00H
	ORG $+4
$SG195418 DB	'RISBGN  EC59  ROTATE THEN INSERT SELECTED BITS (64)', 00H
	ORG $+4
$SG195419 DB	'PPA     B2E8  PERFORM PROCESSOR ASSIST', 00H
	ORG $+1
$SG195430 DB	'TBEGINC E561  TRANSACTION BEGIN (CONSTRAINED)', 00H
	ORG $+2
$SG195441 DB	'LZRG    E32A  LOAD AND ZERO RIGHTMOST BYTE (64)', 00H
$SG195442 DB	'LZRF    E33B  LOAD AND ZERO RIGHTMOST BYTE (32)', 00H
$SG195443 DB	'LLZRGF  E33A  LOAD LOGICAL AND ZERO RIGHTMOST BYTE (64 <'
	DB	'- 32)', 00H
	ORG $+2
$SG195444 DB	'LOCHHI  EC4E  LOAD HALFWORD HIGH IMMEDIATE ON CONDITION '
	DB	'(32 <- 16)', 00H
	ORG $+5
$SG195445 DB	'LOCHI   EC42  LOAD HALFWORD IMMEDIATE ON CONDITION (32 <'
	DB	'- 16)', 00H
	ORG $+2
$SG195446 DB	'LOCGHI  EC46  LOAD HALFWORD IMMEDIATE ON CONDITION (64 <'
	DB	'- 16)', 00H
	ORG $+2
$SG195447 DB	'LOCFHR  B9E0  LOAD HIGH ON CONDITION (32)', 00H
	ORG $+6
$SG195448 DB	'LOCFH   EBE0  LOAD HIGH ON CONDITION (32)', 00H
	ORG $+6
$SG195449 DB	'STOCFH  EBE1  STORE HIGH ON CONDITION', 00H
	ORG $+2
$SG195460 DB	'PRNO    B93C  PERFORM RANDOM NUMBER OPERATION', 00H
	ORG $+2
$SG195471 DB	'AGH     E338  ADD HALFWORD (64 <- 16)', 00H
	ORG $+2
$SG195472 DB	'BIC     E347  BRANCH INDIRECT ON CONDITION', 00H
	ORG $+5
$SG195473 DB	'MGRK    B9EC  MULTIPLY (128 <- 64)', 00H
	ORG $+5
$SG195474 DB	'MG      E384  MULTIPLY (128 <- 64)', 00H
	ORG $+5
$SG195475 DB	'MGH     E33C  MULTIPLY HALFWORD (64 <- 16)', 00H
	ORG $+5
$SG195476 DB	'MSGRKC  B9ED  MULTIPLY SINGLE (64)', 00H
	ORG $+5
$SG195477 DB	'MSRKC   B9FD  MULTIPLY SINGLE (32)', 00H
	ORG $+5
$SG195478 DB	'MSC     E353  MULTIPLY SINGLE (32)', 00H
	ORG $+5
$SG195479 DB	'MSGC    E383  MULTIPLY SINGLE (64)', 00H
	ORG $+5
$SG195480 DB	'SGH     E339  SUBTRACT HALFWORD (64 <- 16)', 00H
	ORG $+5
$SG195491 DB	'NCRK    B9F5  AND WITH COMPLEMENT (32)', 00H
	ORG $+1
$SG195492 DB	'NCGRK   B9E5  AND WITH COMPLEMENT (64)', 00H
	ORG $+1
$SG195493 DB	'MVCRL   E50A  MOVE RIGHT TO LEFT', 00H
	ORG $+7
$SG195494 DB	'NNRK    B974  NAND (32)', 00H
$SG195495 DB	'NNGRK   B964  NAND (64)', 00H
$SG195496 DB	'NXRK    B977  NOT EXCLUSIVE OR (32)', 00H
	ORG $+4
$SG195497 DB	'NXGRK   B967  NOT EXCLUSIVE OR (64)', 00H
	ORG $+4
$SG195498 DB	'NORK    B976  NOR (32)', 00H
	ORG $+1
$SG195499 DB	'NOGRK   B966  NOR (64)', 00H
	ORG $+1
$SG195500 DB	'OCRK    B975  OR WITH COMPLEMENT (32)', 00H
	ORG $+2
$SG195501 DB	'OCGRK   B965  OR WITH COMPLEMENT (64)', 00H
	ORG $+2
$SG195502 DB	'SELR    B9F0  SELECT (32)', 00H
	ORG $+6
$SG195503 DB	'SELGR   B9E3  SELECT (64)', 00H
	ORG $+6
$SG195504 DB	'SELFHR  B9C0  SELECT HIGH', 00H
	ORG $+6
$SG195515 DB	'RRBM    B9AE  RESET REFERENCE BITS MULTIPLE', 00H
	ORG $+4
$SG195526 DB	'ECPGA   B2ED  EXTRACT COPROCESSOR-GROUP ADDRESS', 00H
$SG195527 DB	'ECCTR   B2E4  EXTRACT CPU COUNTER', 00H
	ORG $+6
$SG195528 DB	'EPCTR   B2E5  EXTRACT PERIPHERAL COUNTER', 00H
	ORG $+7
$SG195529 DB	'LCCTL   B284  LOAD CPU-COUNTER-SET CONTROLS', 00H
	ORG $+4
$SG195530 DB	'LPCTL   B285  LOAD PERIPHERAL-COUNTER-SET CONTROLS', 00H
	ORG $+5
$SG195531 DB	'QCTRI   B28E  QUERY COUNTER INFORMATION', 00H
$SG195532 DB	'SCCTR   B2E0  SET CPU COUNTER', 00H
	ORG $+2
$SG195533 DB	'SPCTR   B2E1  SET PERIPHERAL COUNTER', 00H
	ORG $+3
$SG195544 DB	'LSCTL   B287  LOAD SAMPLING CONTROLS', 00H
	ORG $+3
$SG195545 DB	'QSI     B286  QUERY SAMPLING INFORMATION', 00H
	ORG $+7
$SG195556 DB	'ETND    B2EC  EXTRACT TRANSACTION NESTING DEPTH', 00H
$SG195557 DB	'NTSTG   E325  NONTRANSACTIONAL STORE (64)', 00H
	ORG $+6
$SG195558 DB	'TABORT  B2FC  TRANSACTION ABORT', 00H
$SG195559 DB	'TBEGIN  E560  TRANSACTION BEGIN (unconstrained)', 00H
$SG195560 DB	'TEND    B2F8  TRANSACTION END', 00H
	ORG $+2
$SG195571 DB	'STHYI   B256  STORE HYPERVISOR INFORMATION', 00H
	ORG $+5
$SG195582 DB	'PCKMO   B928  PERFORM CRYPTOGRAPHIC KEY MGMT. OPERATIONS'
	DB	00H
	ORG $+7
$SG195593 DB	'KMF     B92A  CIPHER MESSAGE WITH CIPHER FEEDBACK', 00H
	ORG $+6
$SG195594 DB	'KMCTR   B92D  CIPHER MESSAGE WITH COUNTER', 00H
	ORG $+6
$SG195595 DB	'KMO     B92B  CIPHER MESSAGE WITH OUTPUT FEEDBACK', 00H
	ORG $+6
$SG195596 DB	'PCC     B92C  PERFORM CRYPTOGRAPHIC COMPUTATION', 00H
$SG195607 DB	'CRDTE   B98F  COMPARE AND REPLACE DAT TABLE ENTRY', 00H
	ORG $+6
$SG195618 DB	'CDPT    EDAE  CONVERT FROM PACKED (to long DFP)', 00H
$SG195619 DB	'CXPT    EDAF  CONVERT FROM PACKED (to extended DFP)', 00H
	ORG $+4
$SG195620 DB	'CPDT    EDAC  CONVERT TO PACKED (from long DFP)', 00H
$SG195621 DB	'CPXT    EDAD  CONVERT TO PACKED (from extended DFP)', 00H
	ORG $+4
$SG195632 DB	'LCBB    E727  LOAD COUNT TO BLOCK BOUNDARY', 00H
	ORG $+5
$SG195633 DB	'VA      E7F3  VECTOR ADD', 00H
	ORG $+7
$SG195634 DB	'VACC    E7F1  VECTOR ADD COMPUTE CARRY', 00H
	ORG $+1
$SG195635 DB	'VAC     E7BB  VECTOR ADD WITH CARRY', 00H
	ORG $+4
$SG195636 DB	'VACCC   E7B9  VECTOR ADD WITH CARRY COMPUTE CARRY', 00H
	ORG $+6
$SG195637 DB	'VN      E768  VECTOR AND', 00H
	ORG $+7
$SG195638 DB	'VNC     E769  VECTOR AND WITH COMPLEMENT', 00H
	ORG $+7
$SG195639 DB	'VAVG    E7F2  VECTOR AVERAGE', 00H
	ORG $+3
$SG195640 DB	'VAVGL   E7F0  VECTOR AVERAGE LOGICAL', 00H
	ORG $+3
$SG195641 DB	'VCKSM   E766  VECTOR CHECKSUM', 00H
	ORG $+2
$SG195642 DB	'VCEQ    E7F8  VECTOR COMPARE EQUAL', 00H
	ORG $+5
$SG195643 DB	'VCH     E7FB  VECTOR COMPARE HIGH', 00H
	ORG $+6
$SG195644 DB	'VCHL    E7F9  VECTOR COMPARE HIGH LOGICAL', 00H
	ORG $+6
$SG195645 DB	'VCLZ    E753  VECTOR COUNT LEADING ZEROS', 00H
	ORG $+7
$SG195646 DB	'VCTZ    E752  VECTOR COUNT TRAILING ZEROS', 00H
	ORG $+6
$SG195647 DB	'VEC     E7DB  VECTOR ELEMENT COMPARE', 00H
	ORG $+3
$SG195648 DB	'VECL    E7D9  VECTOR ELEMENT COMPARE LOGICAL', 00H
	ORG $+3
$SG195649 DB	'VERIM   E772  VECTOR ELEMENT ROTATE AND INSERT UNDER MAS'
	DB	'K', 00H
	ORG $+6
$SG195650 DB	'VERLL   E733  VECTOR ELEMENT ROTATE LEFT LOGICAL', 00H
	ORG $+7
$SG195651 DB	'VERLLV  E773  VECTOR ELEMENT ROTATE LEFT LOGICAL', 00H
	ORG $+7
$SG195652 DB	'VESL    E730  VECTOR ELEMENT SHIFT LEFT', 00H
$SG195653 DB	'VESLV   E770  VECTOR ELEMENT SHIFT LEFT', 00H
$SG195654 DB	'VESRA   E73A  VECTOR ELEMENT SHIFT RIGHT ARITHMETIC', 00H
	ORG $+4
$SG195655 DB	'VESRAV  E77A  VECTOR ELEMENT SHIFT RIGHT ARITHMETIC', 00H
	ORG $+4
$SG195656 DB	'VESRL   E738  VECTOR ELEMENT SHIFT RIGHT LOGICAL', 00H
	ORG $+7
$SG195657 DB	'VESRLV  E778  VECTOR ELEMENT SHIFT RIGHT LOGICAL', 00H
	ORG $+7
$SG195658 DB	'VX      E76D  VECTOR EXCLUSIVE OR', 00H
	ORG $+6
$SG195659 DB	'VFAE    E782  VECTOR FIND ANY ELEMENT EQUAL', 00H
	ORG $+4
$SG195660 DB	'VFEE    E780  VECTOR FIND ELEMENT EQUAL', 00H
$SG195661 DB	'VFENE   E781  VECTOR FIND ELEMENT NOT EQUAL', 00H
	ORG $+4
$SG195662 DB	'VFA     E7E3  VECTOR FP ADD', 00H
	ORG $+4
$SG195663 DB	'WFK     E7CA  VECTOR FP COMPARE AND SIGNAL SCALAR', 00H
	ORG $+6
$SG195664 DB	'VFCE    E7E8  VECTOR FP COMPARE EQUAL', 00H
	ORG $+2
$SG195665 DB	'VFCH    E7EB  VECTOR FP COMPARE HIGH', 00H
	ORG $+3
$SG195666 DB	'VFCHE   E7EA  VECTOR FP COMPARE HIGH OR EQUAL', 00H
	ORG $+2
$SG195667 DB	'WFC     E7CB  VECTOR FP COMPARE SCALAR', 00H
	ORG $+1
$SG195668 DB	'VCDG    E7C3  VECTOR FP CONVERT FROM FIXED 64-BIT', 00H
	ORG $+6
$SG195669 DB	'VCDLG   E7C1  VECTOR FP CONVERT FROM LOGICAL 64-BIT', 00H
	ORG $+4
$SG195670 DB	'VCGD    E7C2  VECTOR FP CONVERT TO FIXED 64-BIT', 00H
$SG195671 DB	'VCLGD   E7C0  VECTOR FP CONVERT TO LOGICAL 64-BIT', 00H
	ORG $+6
$SG195672 DB	'VFD     E7E5  VECTOR FP DIVIDE', 00H
	ORG $+1
$SG195673 DB	'VFLL    E7C4  VECTOR FP LOAD LENGTHENED', 00H
$SG195674 DB	'VFLR    E7C5  VECTOR FP LOAD ROUNDED', 00H
	ORG $+3
$SG195675 DB	'VFM     E7E7  VECTOR FP MULTIPLY', 00H
	ORG $+7
$SG195676 DB	'VFMA    E78F  VECTOR FP MULTIPLY AND ADD', 00H
	ORG $+7
$SG195677 DB	'VFMS    E78E  VECTOR FP MULTIPLY AND SUBTRACT', 00H
	ORG $+2
$SG195678 DB	'VFPSO   E7CC  VECTOR FP PERFORM SIGN OPERATION', 00H
	ORG $+1
$SG195679 DB	'VFSQ    E7CE  VECTOR FP SQUARE ROOT', 00H
	ORG $+4
$SG195680 DB	'VFS     E7E2  VECTOR FP SUBTRACT', 00H
	ORG $+7
$SG195681 DB	'VFTCI   E74A  VECTOR FP TEST DATA CLASS IMMEDIATE', 00H
	ORG $+6
$SG195682 DB	'VGFM    E7B4  VECTOR GALOIS FIELD MULTIPLY SUM', 00H
	ORG $+1
$SG195683 DB	'VGFMA   E7BC  VECTOR GALOIS FIELD MULTIPLY SUM AND ACCUM'
	DB	'ULATE', 00H
	ORG $+2
$SG195684 DB	'VGEG    E712  VECTOR GATHER ELEMENT (64)', 00H
	ORG $+7
$SG195685 DB	'VGEF    E713  VECTOR GATHER ELEMENT (32)', 00H
	ORG $+7
$SG195686 DB	'VGBM    E744  VECTOR GENERATE BYTE MASK', 00H
$SG195687 DB	'VGM     E746  VECTOR GENERATE MASK', 00H
	ORG $+5
$SG195688 DB	'VISTR   E75C  VECTOR ISOLATE STRING', 00H
	ORG $+4
$SG195689 DB	'VL      E706  VECTOR LOAD', 00H
	ORG $+6
$SG195690 DB	'VLR     E756  VECTOR LOAD', 00H
	ORG $+6
$SG195691 DB	'VLREP   E705  VECTOR LOAD AND REPLICATE', 00H
$SG195692 DB	'VLC     E7DE  VECTOR LOAD COMPLEMENT', 00H
	ORG $+3
$SG195693 DB	'VLEB    E700  VECTOR LOAD ELEMENT (8)', 00H
	ORG $+2
$SG195694 DB	'VLEH    E701  VECTOR LOAD ELEMENT (16)', 00H
	ORG $+1
$SG195695 DB	'VLEG    E702  VECTOR LOAD ELEMENT (64)', 00H
	ORG $+1
$SG195696 DB	'VLEF    E703  VECTOR LOAD ELEMENT (32)', 00H
	ORG $+1
$SG195697 DB	'VLEIB   E740  VECTOR LOAD ELEMENT IMMEDIATE (8)', 00H
$SG195698 DB	'VLEIH   E741  VECTOR LOAD ELEMENT IMMEDIATE (16)', 00H
	ORG $+7
$SG195699 DB	'VLEIG   E742  VECTOR LOAD ELEMENT IMMEDIATE (64)', 00H
	ORG $+7
$SG195700 DB	'VLEIF   E743  VECTOR LOAD ELEMENT IMMEDIATE (32)', 00H
	ORG $+7
$SG195701 DB	'VFI     E7C7  VECTOR LOAD FP INTEGER', 00H
	ORG $+3
$SG195702 DB	'VLGV    E721  VECTOR LOAD GR FROM VR ELEMENT', 00H
	ORG $+3
$SG195703 DB	'VLLEZ   E704  VECTOR LOAD LOGICAL ELEMENT AND ZERO', 00H
	ORG $+5
$SG195704 DB	'VLM     E736  VECTOR LOAD MULTIPLE', 00H
	ORG $+5
$SG195705 DB	'VLP     E7DF  VECTOR LOAD POSITIVE', 00H
	ORG $+5
$SG195706 DB	'VLBB    E707  VECTOR LOAD TO BLOCK BOUNDARY', 00H
	ORG $+4
$SG195707 DB	'VLVG    E722  VECTOR LOAD VR ELEMENT FROM GR', 00H
	ORG $+3
$SG195708 DB	'VLVGP   E762  VECTOR LOAD VR FROM GRS DISJOINT', 00H
	ORG $+1
$SG195709 DB	'VLL     E737  VECTOR LOAD WITH LENGTH', 00H
	ORG $+2
$SG195710 DB	'VMX     E7FF  VECTOR MAXIMUM', 00H
	ORG $+3
$SG195711 DB	'VMXL    E7FD  VECTOR MAXIMUM LOGICAL', 00H
	ORG $+3
$SG195712 DB	'VMRH    E761  VECTOR MERGE HIGH', 00H
$SG195713 DB	'VMRL    E760  VECTOR MERGE LOW', 00H
	ORG $+1
$SG195714 DB	'VMN     E7FE  VECTOR MINIMUM', 00H
	ORG $+3
$SG195715 DB	'VMNL    E7FC  VECTOR MINIMUM LOGICAL', 00H
	ORG $+3
$SG195716 DB	'VMAE    E7AE  VECTOR MULTIPLY AND ADD EVEN', 00H
	ORG $+5
$SG195717 DB	'VMAH    E7AB  VECTOR MULTIPLY AND ADD HIGH', 00H
	ORG $+5
$SG195718 DB	'VMALE   E7AC  VECTOR MULTIPLY AND ADD LOGICAL EVEN', 00H
	ORG $+5
$SG195719 DB	'VMALH   E7A9  VECTOR MULTIPLY AND ADD LOGICAL HIGH', 00H
	ORG $+5
$SG195720 DB	'VMALO   E7AD  VECTOR MULTIPLY AND ADD LOGICAL ODD', 00H
	ORG $+6
$SG195721 DB	'VMAL    E7AA  VECTOR MULTIPLY AND ADD LOW', 00H
	ORG $+6
$SG195722 DB	'VMAO    E7AF  VECTOR MULTIPLY AND ADD ODD', 00H
	ORG $+6
$SG195723 DB	'VME     E7A6  VECTOR MULTIPLY EVEN', 00H
	ORG $+5
$SG195724 DB	'VMH     E7A3  VECTOR MULTIPLY HIGH', 00H
	ORG $+5
$SG195725 DB	'VMLE    E7A4  VECTOR MULTIPLY LOGICAL EVEN', 00H
	ORG $+5
$SG195726 DB	'VMLH    E7A1  VECTOR MULTIPLY LOGICAL HIGH', 00H
	ORG $+5
$SG195727 DB	'VMLO    E7A5  VECTOR MULTIPLY LOGICAL ODD', 00H
	ORG $+6
$SG195728 DB	'VML     E7A2  VECTOR MULTIPLY LOW', 00H
	ORG $+6
$SG195729 DB	'VMO     E7A7  VECTOR MULTIPLY ODD', 00H
	ORG $+6
$SG195730 DB	'VNO     E76B  VECTOR NOR', 00H
	ORG $+7
$SG195731 DB	'VO      E76A  VECTOR OR', 00H
$SG195732 DB	'VPK     E794  VECTOR PACK', 00H
	ORG $+6
$SG195733 DB	'VPKLS   E795  VECTOR PACK LOGICAL SATURATE', 00H
	ORG $+5
$SG195734 DB	'VPKS    E797  VECTOR PACK SATURATE', 00H
	ORG $+5
$SG195735 DB	'VPERM   E78C  VECTOR PERMUTE', 00H
	ORG $+3
$SG195736 DB	'VPDI    E784  VECTOR PERMUTE DOUBLEWORD IMMEDIATE', 00H
	ORG $+6
$SG195737 DB	'VPOPCT  E750  VECTOR POPULATION COUNT', 00H
	ORG $+2
$SG195738 DB	'VREP    E74D  VECTOR REPLICATE', 00H
	ORG $+1
$SG195739 DB	'VREPI   E745  VECTOR REPLICATE IMMEDIATE', 00H
	ORG $+7
$SG195740 DB	'VSCEG   E71A  VECTOR SCATTER ELEMENT (64)', 00H
	ORG $+6
$SG195741 DB	'VSCEF   E71B  VECTOR SCATTER ELEMENT (32)', 00H
	ORG $+6
$SG195742 DB	'VSEL    E78D  VECTOR SELECT', 00H
	ORG $+4
$SG195743 DB	'VSL     E774  VECTOR SHIFT LEFT', 00H
$SG195744 DB	'VSLB    E775  VECTOR SHIFT LEFT BY BYTE', 00H
$SG195745 DB	'VSLDB   E777  VECTOR SHIFT LEFT DOUBLE BY BYTE', 00H
	ORG $+1
$SG195746 DB	'VSRA    E77E  VECTOR SHIFT RIGHT ARITHMETIC', 00H
	ORG $+4
$SG195747 DB	'VSRAB   E77F  VECTOR SHIFT RIGHT ARITHMETIC BY BYTE', 00H
	ORG $+4
$SG195748 DB	'VSRL    E77C  VECTOR SHIFT RIGHT LOGICAL', 00H
	ORG $+7
$SG195749 DB	'VSRLB   E77D  VECTOR SHIFT RIGHT LOGICAL BY BYTE', 00H
	ORG $+7
$SG195750 DB	'VSEG    E75F  VECTOR SIGN EXTEND TO DOUBLEWORD', 00H
	ORG $+1
$SG195751 DB	'VST     E70E  VECTOR STORE', 00H
	ORG $+5
$SG195752 DB	'VSTEB   E708  VECTOR STORE ELEMENT (8)', 00H
	ORG $+1
$SG195753 DB	'VSTEH   E709  VECTOR STORE ELEMENT (16)', 00H
$SG195754 DB	'VSTEG   E70A  VECTOR STORE ELEMENT (64)', 00H
$SG195755 DB	'VSTEF   E70B  VECTOR STORE ELEMENT (32)', 00H
$SG195756 DB	'VSTM    E73E  VECTOR STORE MULTIPLE', 00H
	ORG $+4
$SG195757 DB	'VSTL    E73F  VECTOR STORE WITH LENGTH', 00H
	ORG $+1
$SG195758 DB	'VSTRC   E78A  VECTOR STRING RANGE COMPARE', 00H
	ORG $+6
$SG195759 DB	'VS      E7F7  VECTOR SUBTRACT', 00H
	ORG $+2
$SG195760 DB	'VSCBI   E7F5  VECTOR SUBTRACT COMPUTE BORROW INDICATION', 00H
$SG195761 DB	'VSBCBI  E7BD  VECTOR SUBTRACT WITH BORROW COMPUTE BORROW'
	DB	' INDICATION', 00H
	ORG $+4
$SG195762 DB	'VSBI    E7BF  VECTOR SUBTRACT WITH BORROW INDICATION', 00H
	ORG $+3
$SG195763 DB	'VSUMG   E765  VECTOR SUM ACROSS DOUBLEWORD', 00H
	ORG $+5
$SG195764 DB	'VSUMQ   E767  VECTOR SUM ACROSS QUADWORD', 00H
	ORG $+7
$SG195765 DB	'VSUM    E764  VECTOR SUM ACROSS WORD', 00H
	ORG $+3
$SG195766 DB	'VTM     E7D8  VECTOR TEST UNDER MASK', 00H
	ORG $+3
$SG195767 DB	'VUPH    E7D7  VECTOR UNPACK HIGH', 00H
	ORG $+7
$SG195768 DB	'VUPLH   E7D5  VECTOR UNPACK LOGICAL HIGH', 00H
	ORG $+7
$SG195769 DB	'VUPLL   E7D4  VECTOR UNPACK LOGICAL LOW', 00H
$SG195770 DB	'VUPL    E7D6  VECTOR UNPACK LOW', 00H
$SG195781 DB	'LGG     E34C  LOAD GUARDED (64)', 00H
$SG195782 DB	'LGSC    E34D  LOAD GUARDED STORAGE CONTROLS', 00H
	ORG $+4
$SG195783 DB	'LLGFSG  E348  LOAD LOGICAL AND SHIFT GUARDED (64 <- 32)', 00H
$SG195784 DB	'STGSC   E349  STORE GUARDED STORAGE CONTROLS', 00H
	ORG $+3
$SG195795 DB	'VAP     E671  VECTOR ADD DECIMAL', 00H
	ORG $+7
$SG195796 DB	'VCP     E677  VECTOR COMPARE DECIMAL', 00H
	ORG $+3
$SG195797 DB	'VCVB    E650  VECTOR CONVERT TO BINARY', 00H
	ORG $+1
$SG195798 DB	'VCVBG   E652  VECTOR CONVERT TO BINARY', 00H
	ORG $+1
$SG195799 DB	'VCVD    E658  VECTOR CONVERT TO DECIMAL', 00H
$SG195800 DB	'VCVDG   E65A  VECTOR CONVERT TO DECIMAL', 00H
$SG195801 DB	'VDP     E67A  VECTOR DIVIDE DECIMAL', 00H
	ORG $+4
$SG195802 DB	'VLIP    E649  VECTOR LOAD IMMEDIATE DECIMAL', 00H
	ORG $+4
$SG195803 DB	'VLRL    E635  VECTOR LOAD RIGHTMOST WITH LENGTH', 00H
$SG195804 DB	'VLRLR   E637  VECTOR LOAD RIGHTMOST WITH LENGTH', 00H
$SG195805 DB	'VMSP    E679  VECTOR MULTIPLY AND SHIFT DECIMAL', 00H
$SG195806 DB	'VMP     E678  VECTOR MULTIPLY DECIMAL', 00H
	ORG $+2
$SG195807 DB	'VPKZ    E634  VECTOR PACK ZONED', 00H
$SG195808 DB	'VPSOP   E65B  VECTOR PERFORM SIGN OPERATION DECIMAL', 00H
	ORG $+4
$SG195809 DB	'VRP     E67B  VECTOR REMAINDER DECIMAL', 00H
	ORG $+1
$SG195810 DB	'VSDP    E67E  VECTOR SHIFT AND DIVIDE DECIMAL', 00H
	ORG $+2
$SG195811 DB	'VSRP    E659  VECTOR SHIFT AND ROUND DECIMAL', 00H
	ORG $+3
$SG195812 DB	'VSTRL   E63D  VECTOR STORE RIGHTMOST WITH LENGTH', 00H
	ORG $+7
$SG195813 DB	'VSTRLR  E63F  VECTOR STORE RIGHTMOST WITH LENGTH', 00H
	ORG $+7
$SG195814 DB	'VSP     E673  VECTOR SUBTRACT DECIMAL', 00H
	ORG $+2
$SG195815 DB	'VTP     E65F  VECTOR TEST DECIMAL', 00H
	ORG $+6
$SG195816 DB	'VUPKZ   E63C  VECTOR UNPACK ZONED', 00H
	ORG $+6
$SG195827 DB	'STCCTM  EB17  STORE CPU COUNTER MULTIPLE', 00H
	ORG $+7
$SG195838 DB	'TPEI    B9A1  TEST PENDING EXTERNAL INTERRUPTION', 00H
	ORG $+7
$SG195849 DB	'IRBM    B9AC  INSERT REFERENCE BITS MULTIPLE', 00H
	ORG $+3
$SG195860 DB	'KMA     B929  CIPHER MESSAGE WITH AUTHENTICATION', 00H
	ORG $+7
$SG195871 DB	'VBPERM  E785  VECTOR BIT PERMUTE', 00H
	ORG $+7
$SG195872 DB	'VFMAX   E7EF  VECTOR FP MAXIMUM', 00H
$SG195873 DB	'VFMIN   E7EE  VECTOR FP MINIMUM', 00H
$SG195874 DB	'VFNMA   E79F  VECTOR FP NEGATIVE MULTIPLY AND ADD', 00H
	ORG $+6
$SG195875 DB	'VFNMS   E79E  VECTOR FP NEGATIVE MULTIPLY AND SUBTRACT', 00H
	ORG $+1
$SG195876 DB	'VMSL    E7B8  VECTOR MULTIPLY SUM LOGICAL', 00H
	ORG $+6
$SG195877 DB	'VNN     E76E  VECTOR NAND', 00H
	ORG $+6
$SG195878 DB	'VNX     E76C  VECTOR NOT EXCLUSIVE OR', 00H
	ORG $+2
$SG195879 DB	'VOC     E76F  VECTOR OR WITH COMPLEMENT', 00H
$SG195890 DB	'SORTL   B938   SORT LISTS', 00H
	ORG $+6
$SG195901 DB	'DFLTCC  B939  DEFLATE CONVERSION CALL', 00H
	ORG $+2
$SG195912 DB	'KDSA    B93A  COMPUTE DIGITAL SIGNATURE AUTHENTICATION', 00H
	ORG $+1
$SG195923 DB	'NNPA    B93B  NEURAL NETWORK PROCESSING ASSIST', 00H
	ORG $+1
$SG195924 DB	'VCLFNH  E656  VECTOR FP CONVERT AND LENGTHEN FROM NNP HI'
	DB	'GH', 00H
	ORG $+5
$SG195925 DB	'VCLFNL  E65E  VECTOR FP CONVERT AND LENGTHEN FROM NNP LO'
	DB	'W', 00H
	ORG $+6
$SG195926 DB	'VCRNF   E675  VECTOR FP CONVERT AND ROUND TO NNP', 00H
	ORG $+7
$SG195927 DB	'VCFN    E65D  VECTOR FP CONVERT FROM NNP', 00H
	ORG $+7
$SG195928 DB	'VCNF    E655  VECTOR FP CONVERT TO NNP', 00H
	ORG $+1
$SG195939 DB	'VSCSHP  E67C  DECIMAL SCALE AND CONVERT AND SPLIT TO HFP'
	DB	00H
	ORG $+7
$SG195940 DB	'VSCHP   E674  DECIMAL SCALE AND CONVERT TO HFP', 00H
	ORG $+1
$SG195941 DB	'VCSPH   E67D  VECTOR CONVERT HFP TO SCALED DECIMAL', 00H
	ORG $+5
$SG195942 DB	'VCLZDP  E651  VECTOR COUNT LEADING ZERO DIGITS', 00H
	ORG $+1
$SG195943 DB	'VPKZR   E670  VECTOR PACK ZONED REGISTER', 00H
	ORG $+7
$SG195944 DB	'VSRPR   E672  VECTOR SHIFT AND ROUND DECIMAL REGISTER', 00H
	ORG $+2
$SG195945 DB	'VUPKZH  E654  VECTOR UNPACK ZONED HIGH', 00H
	ORG $+1
$SG195946 DB	'VUPKZL  E65C  VECTOR UNPACK ZONED LOW', 00H
	ORG $+2
$SG195957 DB	'LBEAR   B200  LOAD BEAR', 00H
$SG195958 DB	'LPSWEY  EB71  LOAD PSW EXTENDED', 00H
$SG195959 DB	'STBEAR  B201  STORE BEAR', 00H
	ORG $+7
$SG195970 DB	'RDP     B98B  RESET DAT PROTECTION', 00H
	ORG $+5
$SG195981 DB	'QPACI   B28F  QUERY PROCESSOR ACTIVITY COUNTER INFORMATI'
	DB	'ON', 00H
	ORG $+5
$SG195992 DB	'MVCIN E8 MOVE INVERSE', 00H
	ORG $+2
$SG196003 DB	'SVS B265 Set Vector Summary', 00H
	ORG $+4
$SG196014 DB	'ESSA    B9AB  EXTRACT AND SET STORAGE ATTRIBUTES', 00H
	ORG $+7
$SG196025 DB	'branch_and_set_mode', 00H
	ORG $+4
$SG196026 DB	'branch_and_save_and_set_mode', 00H
	ORG $+3
$SG196027 DB	'update_tree', 00H
	ORG $+4
$SG196028 DB	'compare_and_form_codeword', 00H
	ORG $+6
$SG196029 DB	'multiply_single', 00H
$SG196030 DB	'branch_relative_on_index_high', 00H
	ORG $+2
$SG196031 DB	'branch_relative_on_index_low_or_equal', 00H
	ORG $+2
$SG196032 DB	'move_long_extended', 00H
	ORG $+5
$SG196033 DB	'compare_logical_long_extended', 00H
	ORG $+2
$SG196034 DB	'insert_immediate_low_high', 00H
	ORG $+6
$SG196035 DB	'insert_immediate_low_low', 00H
	ORG $+7
$SG196036 DB	'and_immediate_low_high', 00H
	ORG $+1
$SG196037 DB	'and_immediate_low_low', 00H
	ORG $+2
$SG196038 DB	'or_immediate_low_high', 00H
	ORG $+2
$SG196039 DB	'or_immediate_low_low', 00H
	ORG $+3
$SG196040 DB	'load_logical_immediate_low_high', 00H
$SG196041 DB	'load_logical_immediate_low_low', 00H
	ORG $+1
$SG196042 DB	'test_under_mask_high', 00H
	ORG $+3
$SG196043 DB	'test_under_mask_low', 00H
	ORG $+4
$SG196044 DB	'branch_relative_on_condition', 00H
	ORG $+3
$SG196045 DB	'branch_relative_and_save', 00H
	ORG $+7
$SG196046 DB	'branch_relative_on_count', 00H
	ORG $+7
$SG196047 DB	'load_halfword_immediate', 00H
$SG196048 DB	'add_halfword_immediate', 00H
	ORG $+1
$SG196049 DB	'multiply_halfword_immediate', 00H
	ORG $+4
$SG196050 DB	'compare_halfword_immediate', 00H
	ORG $+5
$SG196051 DB	'checksum', 00H
	ORG $+7
$SG196052 DB	'squareroot_float_long_reg', 00H
	ORG $+6
$SG196053 DB	'squareroot_float_short_reg', 00H
	ORG $+5
$SG196054 DB	'multiply_single_register', 00H
	ORG $+7
$SG196055 DB	'move_string', 00H
	ORG $+4
$SG196056 DB	'compare_until_substring_equal', 00H
	ORG $+2
$SG196057 DB	'compare_logical_string', 00H
	ORG $+1
$SG196058 DB	'search_string', 00H
	ORG $+2
$SG196059 DB	'cmpsc_2012', 00H
	ORG $+5
$SG196060 DB	'set_bfp_rounding_mode_2bit', 00H
	ORG $+5
$SG196061 DB	'store_fpc', 00H
	ORG $+6
$SG196062 DB	'load_fpc', 00H
	ORG $+7
$SG196063 DB	'translate_extended', 00H
	ORG $+5
$SG196064 DB	'convert_utf16_to_utf8', 00H
	ORG $+2
$SG196065 DB	'convert_utf8_to_utf16', 00H
	ORG $+2
$SG196066 DB	'load_positive_bfp_short_reg', 00H
	ORG $+4
$SG196067 DB	'load_negative_bfp_short_reg', 00H
	ORG $+4
$SG196068 DB	'load_and_test_bfp_short_reg', 00H
	ORG $+4
$SG196069 DB	'load_complement_bfp_short_reg', 00H
	ORG $+2
$SG196070 DB	'load_lengthened_bfp_short_to_long_reg', 00H
	ORG $+2
$SG196071 DB	'load_lengthened_bfp_long_to_ext_reg', 00H
	ORG $+4
$SG196072 DB	'load_lengthened_bfp_short_to_ext_reg', 00H
	ORG $+3
$SG196073 DB	'multiply_bfp_long_to_ext_reg', 00H
	ORG $+3
$SG196074 DB	'compare_and_signal_bfp_short_reg', 00H
	ORG $+7
$SG196075 DB	'compare_bfp_short_reg', 00H
	ORG $+2
$SG196076 DB	'add_bfp_short_reg', 00H
	ORG $+6
$SG196077 DB	'subtract_bfp_short_reg', 00H
	ORG $+1
$SG196078 DB	'multiply_bfp_short_to_long_reg', 00H
	ORG $+1
$SG196079 DB	'divide_bfp_short_reg', 00H
	ORG $+3
$SG196080 DB	'multiply_add_bfp_short_reg', 00H
	ORG $+5
$SG196081 DB	'multiply_subtract_bfp_short_reg', 00H
$SG196082 DB	'load_positive_bfp_long_reg', 00H
	ORG $+5
$SG196083 DB	'load_negative_bfp_long_reg', 00H
	ORG $+5
$SG196084 DB	'load_and_test_bfp_long_reg', 00H
	ORG $+5
$SG196085 DB	'load_complement_bfp_long_reg', 00H
	ORG $+3
$SG196086 DB	'squareroot_bfp_short_reg', 00H
	ORG $+7
$SG196087 DB	'squareroot_bfp_long_reg', 00H
$SG196088 DB	'squareroot_bfp_ext_reg', 00H
	ORG $+1
$SG196089 DB	'multiply_bfp_short_reg', 00H
	ORG $+1
$SG196090 DB	'compare_and_signal_bfp_long_reg', 00H
$SG196091 DB	'compare_bfp_long_reg', 00H
	ORG $+3
$SG196092 DB	'add_bfp_long_reg', 00H
	ORG $+7
$SG196093 DB	'subtract_bfp_long_reg', 00H
	ORG $+2
$SG196094 DB	'multiply_bfp_long_reg', 00H
	ORG $+2
$SG196095 DB	'divide_bfp_long_reg', 00H
	ORG $+4
$SG196096 DB	'multiply_add_bfp_long_reg', 00H
	ORG $+6
$SG196097 DB	'multiply_subtract_bfp_long_reg', 00H
	ORG $+1
$SG196098 DB	'load_lengthened_float_short_to_long_reg', 00H
$SG196099 DB	'load_lengthened_float_long_to_ext_reg', 00H
	ORG $+2
$SG196100 DB	'load_lengthened_float_short_to_ext_reg', 00H
	ORG $+1
$SG196101 DB	'squareroot_float_ext_reg', 00H
	ORG $+7
$SG196102 DB	'multiply_float_short_reg', 00H
	ORG $+7
$SG196103 DB	'load_positive_bfp_ext_reg', 00H
	ORG $+6
$SG196104 DB	'load_negative_bfp_ext_reg', 00H
	ORG $+6
$SG196105 DB	'load_and_test_bfp_ext_reg', 00H
	ORG $+6
$SG196106 DB	'load_complement_bfp_ext_reg', 00H
	ORG $+4
$SG196107 DB	'load_rounded_bfp_long_to_short_reg', 00H
	ORG $+5
$SG196108 DB	'load_rounded_bfp_ext_to_long_reg', 00H
	ORG $+7
$SG196109 DB	'load_rounded_bfp_ext_to_short_reg', 00H
	ORG $+6
$SG196110 DB	'load_fp_int_bfp_ext_reg', 00H
$SG196111 DB	'compare_and_signal_bfp_ext_reg', 00H
	ORG $+1
$SG196112 DB	'compare_bfp_ext_reg', 00H
	ORG $+4
$SG196113 DB	'add_bfp_ext_reg', 00H
$SG196114 DB	'subtract_bfp_ext_reg', 00H
	ORG $+3
$SG196115 DB	'multiply_bfp_ext_reg', 00H
	ORG $+3
$SG196116 DB	'divide_bfp_ext_reg', 00H
	ORG $+5
$SG196117 DB	'convert_float_long_to_bfp_short_reg', 00H
	ORG $+4
$SG196118 DB	'convert_float_long_to_bfp_long_reg', 00H
	ORG $+5
$SG196119 DB	'divide_integer_bfp_short_reg', 00H
	ORG $+3
$SG196120 DB	'load_fp_int_bfp_short_reg', 00H
	ORG $+6
$SG196121 DB	'convert_bfp_short_to_float_long_reg', 00H
	ORG $+4
$SG196122 DB	'convert_bfp_long_to_float_long_reg', 00H
	ORG $+5
$SG196123 DB	'divide_integer_bfp_long_reg', 00H
	ORG $+4
$SG196124 DB	'load_fp_int_bfp_long_reg', 00H
	ORG $+7
$SG196125 DB	'load_positive_float_ext_reg', 00H
	ORG $+4
$SG196126 DB	'load_negative_float_ext_reg', 00H
	ORG $+4
$SG196127 DB	'load_and_test_float_ext_reg', 00H
	ORG $+4
$SG196128 DB	'load_complement_float_ext_reg', 00H
	ORG $+2
$SG196129 DB	'load_float_ext_reg', 00H
	ORG $+5
$SG196130 DB	'load_rounded_float_ext_to_short_reg', 00H
	ORG $+4
$SG196131 DB	'load_fp_int_float_ext_reg', 00H
	ORG $+6
$SG196132 DB	'compare_float_ext_reg', 00H
	ORG $+2
$SG196133 DB	'load_zero_float_short_reg', 00H
	ORG $+6
$SG196134 DB	'load_zero_float_long_reg', 00H
	ORG $+7
$SG196135 DB	'load_zero_float_ext_reg', 00H
$SG196136 DB	'load_fp_int_float_short_reg', 00H
	ORG $+4
$SG196137 DB	'load_fp_int_float_long_reg', 00H
	ORG $+5
$SG196138 DB	'set_fpc', 00H
$SG196139 DB	'extract_fpc', 00H
	ORG $+4
$SG196140 DB	'convert_fix32_to_bfp_short_reg', 00H
	ORG $+1
$SG196141 DB	'convert_fix32_to_bfp_long_reg', 00H
	ORG $+2
$SG196142 DB	'convert_fix32_to_bfp_ext_reg', 00H
	ORG $+3
$SG196143 DB	'convert_bfp_short_to_fix32_reg', 00H
	ORG $+1
$SG196144 DB	'convert_bfp_long_to_fix32_reg', 00H
	ORG $+2
$SG196145 DB	'convert_bfp_ext_to_fix32_reg', 00H
	ORG $+3
$SG196146 DB	'convert_fixed_to_float_short_reg', 00H
	ORG $+7
$SG196147 DB	'convert_fixed_to_float_long_reg', 00H
$SG196148 DB	'convert_fixed_to_float_ext_reg', 00H
	ORG $+1
$SG196149 DB	'convert_float_short_to_fixed_reg', 00H
	ORG $+7
$SG196150 DB	'convert_float_long_to_fixed_reg', 00H
$SG196151 DB	'convert_float_ext_to_fixed_reg', 00H
	ORG $+1
$SG196152 DB	'load_lengthened_bfp_short_to_long', 00H
	ORG $+6
$SG196153 DB	'load_lengthened_bfp_long_to_ext', 00H
$SG196154 DB	'load_lengthened_bfp_short_to_ext', 00H
	ORG $+7
$SG196155 DB	'multiply_bfp_long_to_ext', 00H
	ORG $+7
$SG196156 DB	'compare_and_signal_bfp_short', 00H
	ORG $+3
$SG196157 DB	'compare_bfp_short', 00H
	ORG $+6
$SG196158 DB	'add_bfp_short', 00H
	ORG $+2
$SG196159 DB	'subtract_bfp_short', 00H
	ORG $+5
$SG196160 DB	'multiply_bfp_short_to_long', 00H
	ORG $+5
$SG196161 DB	'divide_bfp_short', 00H
	ORG $+7
$SG196162 DB	'multiply_add_bfp_short', 00H
	ORG $+1
$SG196163 DB	'multiply_subtract_bfp_short', 00H
	ORG $+4
$SG196164 DB	'test_data_class_bfp_short', 00H
	ORG $+6
$SG196165 DB	'test_data_class_bfp_long', 00H
	ORG $+7
$SG196166 DB	'test_data_class_bfp_ext', 00H
$SG196167 DB	'squareroot_bfp_short', 00H
	ORG $+3
$SG196168 DB	'squareroot_bfp_long', 00H
	ORG $+4
$SG196169 DB	'multiply_bfp_short', 00H
	ORG $+5
$SG196170 DB	'compare_and_signal_bfp_long', 00H
	ORG $+4
$SG196171 DB	'compare_bfp_long', 00H
	ORG $+7
$SG196172 DB	'add_bfp_long', 00H
	ORG $+3
$SG196173 DB	'subtract_bfp_long', 00H
	ORG $+6
$SG196174 DB	'multiply_bfp_long', 00H
	ORG $+6
$SG196175 DB	'divide_bfp_long', 00H
$SG196176 DB	'multiply_add_bfp_long', 00H
	ORG $+2
$SG196177 DB	'multiply_subtract_bfp_long', 00H
	ORG $+5
$SG196178 DB	'load_lengthened_float_short_to_long', 00H
	ORG $+4
$SG196179 DB	'load_lengthened_float_long_to_ext', 00H
	ORG $+6
$SG196180 DB	'load_lengthened_float_short_to_ext', 00H
	ORG $+5
$SG196181 DB	'squareroot_float_short', 00H
	ORG $+1
$SG196182 DB	'squareroot_float_long', 00H
	ORG $+2
$SG196183 DB	'multiply_float_short', 00H
	ORG $+3
$SG196194 DB	'TCPIP   75    TCPIP', 00H
	ORG $+4
$SG196227 DB	'facility enable %d', 00H
	ORG $+5
$SG196229 DB	'enable_disable_herc37X', 00H
	ORG $+1
$SG196230 DB	'C:\papa\MyGit\hyperion-zvector\facility.c', 00H
	ORG $+6
$SG196233 DB	'enable_disable_herc37X', 00H
	ORG $+1
$SG196231 DB	'%s(%d) : warning HHC90999W : *** Assertion Failed! *** f'
	DB	'unction: %s', 0aH, 00H
	ORG $+3
$SG196234 DB	'C:\papa\MyGit\hyperion-zvector\facility.c', 00H
	ORG $+6
$SG196237 DB	'facility disable %d', 00H
	ORG $+4
$SG196235 DB	'%s(%d) : warning HHC90999W : *** Assertion Failed! *** f'
	DB	'unction: %s', 0aH, 00H
	ORG $+3
$SG196239 DB	'enable_disable_herc37X', 00H
	ORG $+1
$SG196240 DB	'C:\papa\MyGit\hyperion-zvector\facility.c', 00H
	ORG $+6
$SG196241 DB	'%s(%d) : warning HHC90999W : *** Assertion Failed! *** f'
	DB	'unction: %s', 0aH, 00H
	ORG $+3
$SG196243 DB	'enable_disable_herc37X', 00H
	ORG $+1
$SG196244 DB	'C:\papa\MyGit\hyperion-zvector\facility.c', 00H
	ORG $+6
$SG196245 DB	'%s(%d) : warning HHC90999W : *** Assertion Failed! *** f'
	DB	'unction: %s', 0aH, 00H
	ORG $+3
$SG196289 DB	'facility_enable_disable', 00H
$SG196288 DB	'HHC02299%s Invalid command usage. Type ''help %s'' for a'
	DB	'ssistance.', 0aH, 00H
	ORG $+6
$SG196290 DB	'C:\papa\MyGit\hyperion-zvector\facility.c', 00H
	ORG $+2
$SG196293 DB	'ENABLE', 00H
	ORG $+5
$SG196296 DB	'DISABLE', 00H
$SG196297 DB	'; use ''ENABLE'' or ''DISABLE''', 00H
	ORG $+4
$SG196299 DB	'HHC02205%s Invalid argument %s%s', 0aH, 00H
	ORG $+6
$SG196300 DB	'facility_enable_disable', 00H
$SG196301 DB	'C:\papa\MyGit\hyperion-zvector\facility.c', 00H
	ORG $+6
$SG196305 DB	'facility_enable_disable', 00H
$SG196304 DB	'HHC00889%s Available facilities cannot be changed once s'
	DB	'ystem is IPLed', 0aH, 00H
$SG196306 DB	'C:\papa\MyGit\hyperion-zvector\facility.c', 00H
	ORG $+6
$SG196308 DB	'to ENABLE or DISABLE a facility', 00H
$SG196310 DB	'HHC02253%s All CPU''s must be stopped %s', 0aH, 00H
	ORG $+7
$SG196311 DB	'facility_enable_disable', 00H
$SG196312 DB	'C:\papa\MyGit\hyperion-zvector\facility.c', 00H
	ORG $+6
$SG196317 DB	'HHC00895%s ARCHLVL ''%s'' is invalid', 0aH, 00H
	ORG $+4
$SG196318 DB	'facility_enable_disable', 00H
$SG196319 DB	'C:\papa\MyGit\hyperion-zvector\facility.c', 00H
	ORG $+2
$SG196326 DB	'%d%c', 00H
	ORG $+7
$SG196328 DB	'HHC00892%s Facility( %s ) does not exist for %s', 0aH, 00H
	ORG $+7
$SG196329 DB	'facility_enable_disable', 00H
$SG196330 DB	'C:\papa\MyGit\hyperion-zvector\facility.c', 00H
	ORG $+6
$SG196333 DB	'HHC00896%s Facility( %s ) not supported for %s', 0aH, 00H
$SG196334 DB	'facility_enable_disable', 00H
$SG196335 DB	'C:\papa\MyGit\hyperion-zvector\facility.c', 00H
	ORG $+2
$SG196337 DB	'enable', 00H
	ORG $+5
$SG196338 DB	'disable', 00H
$SG196339 DB	'enabling', 00H
	ORG $+7
$SG196340 DB	'disabling', 00H
	ORG $+6
$SG196341 DB	'DISABLING', 00H
	ORG $+6
$SG196342 DB	'ENABLING', 00H
	ORG $+7
$SG196346 DB	'HHC00897%s Facility( %s ) is required for %s', 0aH, 00H
	ORG $+2
$SG196347 DB	'facility_enable_disable', 00H
$SG196348 DB	'C:\papa\MyGit\hyperion-zvector\facility.c', 00H
	ORG $+6
$SG196356 DB	'Enabled', 00H
$SG196357 DB	'Disabled', 00H
	ORG $+7
$SG196360 DB	'HHC00898%s Facility( %s ) %s%s for %s', 0aH, 00H
	ORG $+1
$SG196361 DB	'facility_enable_disable', 00H
$SG196362 DB	'C:\papa\MyGit\hyperion-zvector\facility.c', 00H
	ORG $+6
$SG196382 DB	'HHC02299%s Invalid command usage. Type ''help %s'' for a'
	DB	'ssistance.', 0aH, 00H
	ORG $+6
$SG196383 DB	'facility_cmd', 00H
	ORG $+3
$SG196384 DB	'C:\papa\MyGit\hyperion-zvector\facility.c', 00H
	ORG $+2
$SG196386 DB	'QUERY', 00H
	ORG $+2
$SG196389 DB	'ENABLE', 00H
	ORG $+5
$SG196390 DB	'DISABLE', 00H
$SG196393 DB	'HHC00889%s Available facilities cannot be changed once s'
	DB	'ystem is IPLed', 0aH, 00H
$SG196394 DB	'facility_cmd', 00H
	ORG $+3
$SG196395 DB	'C:\papa\MyGit\hyperion-zvector\facility.c', 00H
	ORG $+6
$SG196397 DB	'to modify a facility', 00H
	ORG $+3
$SG196399 DB	'HHC02253%s All CPU''s must be stopped %s', 0aH, 00H
	ORG $+7
$SG196400 DB	'facility_cmd', 00H
	ORG $+3
$SG196401 DB	'C:\papa\MyGit\hyperion-zvector\facility.c', 00H
	ORG $+6
$SG196403 DB	'HHC02299%s Invalid command usage. Type ''help %s'' for a'
	DB	'ssistance.', 0aH, 00H
	ORG $+6
$SG196404 DB	'facility_cmd', 00H
	ORG $+3
$SG196405 DB	'C:\papa\MyGit\hyperion-zvector\facility.c', 00H
_DATA	ENDS
voltbl	SEGMENT
_volmd	DD	0ffffffffH
	DDSymXIndex: 	FLAT:enable_disable_herc37X
	DD	01bH
	DD	0236H
_volmd	DD	0ffffffffH
	DDSymXIndex: 	FLAT:facility_query_raw
	DD	018H
	DD	0462H
voltbl	ENDS
xdata	SEGMENT
$unwind$DebuggerTrace DD 011801H
	DD	0a218H
$unwind$strcaseabbrev DD 011301H
	DD	08213H
$unwind$strupper DD 010e01H
	DD	0620eH
$unwind$Interrupt_Lock_Obtained DD 010e01H
	DD	0420eH
$unwind$Obtain_Interrupt_Lock DD 010e01H
	DD	0420eH
$unwind$Release_Interrupt_Lock DD 010e01H
	DD	0420eH
$unwind$are_any_cpus_started_intlock_held DD 010401H
	DD	02204H
$unwind$are_any_cpus_started DD 010401H
	DD	06204H
$unwind$init_facilities_lists DD 020701H
	DD	0190107H
$unwind$init_cpu_facilities DD 010901H
	DD	02209H
$unwind$facility_query DD 021001H
	DD	0210110H
$unwind$facility_enable_disable DD 021001H
	DD	0270110H
$unwind$s370_facility_not_enabled DD 010e01H
	DD	0420eH
$unwind$s390_facility_not_enabled DD 010e01H
	DD	0420eH
$unwind$z900_facility_not_enabled DD 010e01H
	DD	0420eH
$unwind$mod000 DD 011601H
	DD	0a216H
$unwind$mod002 DD 011601H
	DD	0a216H
$unwind$mod003 DD 011601H
	DD	0c216H
$unwind$mod004 DD 011601H
	DD	0c216H
$unwind$mod005 DD 011601H
	DD	0c216H
$unwind$mod007 DD 011601H
	DD	0a216H
$unwind$mod008 DD 011601H
	DD	0a216H
$unwind$mod010 DD 011601H
	DD	0a216H
$unwind$mod014 DD 011601H
	DD	0c216H
$unwind$mod018 DD 011601H
	DD	0a216H
$unwind$mod019 DD 011601H
	DD	0a216H
$unwind$mod025 DD 011601H
	DD	0a216H
$unwind$mod028 DD 011601H
	DD	0a216H
$unwind$mod037 DD 011601H
	DD	0a216H
$unwind$mod040 DD 011601H
	DD	0a216H
$unwind$mod042 DD 011601H
	DD	0c216H
$unwind$mod043 DD 011601H
	DD	0a216H
$unwind$mod045 DD 011601H
	DD	0a216H
$unwind$mod048 DD 011601H
	DD	0a216H
$unwind$mod049 DD 011601H
	DD	0c216H
$unwind$mod050 DD 011601H
	DD	0a216H
$unwind$mod051 DD 011601H
	DD	0a216H
$unwind$mod061 DD 011601H
	DD	0a216H
$unwind$mod066 DD 011601H
	DD	0a216H
$unwind$mod067 DD 011601H
	DD	0c216H
$unwind$mod068 DD 011601H
	DD	0c216H
$unwind$mod073 DD 011601H
	DD	0c216H
$unwind$mod076 DD 011601H
	DD	0c216H
$unwind$mod077 DD 011601H
	DD	0a216H
$unwind$mod078 DD 011601H
	DD	0a216H
$unwind$mod080 DD 011601H
	DD	0a216H
$unwind$mod081 DD 011601H
	DD	0a216H
$unwind$mod129 DD 021901H
	DD	0130119H
$unwind$mod134 DD 011601H
	DD	0e216H
$unwind$mod135 DD 011601H
	DD	0c216H
$unwind$mod139 DD 011601H
	DD	0c216H
$unwind$mod142 DD 011601H
	DD	0a216H
$unwind$mod145 DD 011601H
	DD	0a216H
$unwind$mod146 DD 011601H
	DD	0a216H
$unwind$mod148 DD 011601H
	DD	0c216H
$unwind$mod149 DD 011601H
	DD	0a216H
$unwind$mod152 DD 011601H
	DD	0e216H
$unwind$mod155 DD 011601H
	DD	0c216H
$unwind$mod165 DD 011601H
	DD	0a216H
$unwind$mod168 DD 011601H
	DD	0a216H
$unwind$mod169 DD 021901H
	DD	0110119H
$unwind$mod192 DD 011601H
	DD	0e216H
$unwind$mod194 DD 011601H
	DD	0a216H
$unwind$mod196 DD 011601H
	DD	0a216H
$unwind$mod197 DD 011601H
	DD	0a216H
$unwind$modtcp DD 011601H
	DD	0c216H
$unwind$instr0 DD 010c01H
	DD	0420cH
$unwind$instr3 DD 010c01H
	DD	0420cH
$unwind$instr6 DD 010c01H
	DD	0420cH
$unwind$instr7 DD 010c01H
	DD	0420cH
$unwind$instr8 DD 010c01H
	DD	0420cH
$unwind$instr11 DD 010c01H
	DD	0420cH
$unwind$instr16 DD 010c01H
	DD	0420cH
$unwind$instr17 DD 010c01H
	DD	0420cH
$unwind$instr18 DD 010c01H
	DD	0420cH
$unwind$instr20 DD 010c01H
	DD	0420cH
$unwind$instr21 DD 010c01H
	DD	0420cH
$unwind$instr22 DD 010c01H
	DD	0420cH
$unwind$instr23 DD 010c01H
	DD	0420cH
$unwind$instr25 DD 010c01H
	DD	0420cH
$unwind$instr26 DD 010c01H
	DD	0420cH
$unwind$instr27 DD 010c01H
	DD	0420cH
$unwind$instr28 DD 010c01H
	DD	0420cH
$unwind$instr31 DD 010c01H
	DD	0420cH
$unwind$instr32 DD 010c01H
	DD	0420cH
$unwind$instr34 DD 010c01H
	DD	0420cH
$unwind$instr35 DD 010c01H
	DD	0420cH
$unwind$instr37 DD 010c01H
	DD	0420cH
$unwind$instr40 DD 010c01H
	DD	0420cH
$unwind$instr41 DD 010c01H
	DD	0420cH
$unwind$instr42 DD 010c01H
	DD	0420cH
$unwind$instr44 DD 010c01H
	DD	0420cH
$unwind$instr45 DD 010c01H
	DD	0420cH
$unwind$instr48 DD 010c01H
	DD	0420cH
$unwind$instr49 DD 010c01H
	DD	0420cH
$unwind$instr50 DD 010c01H
	DD	0420cH
$unwind$instr53 DD 010c01H
	DD	0420cH
$unwind$instr57 DD 010c01H
	DD	0420cH
$unwind$instr58 DD 010c01H
	DD	0420cH
$unwind$instr61 DD 010c01H
	DD	0420cH
$unwind$instr66 DD 010c01H
	DD	0420cH
$unwind$instr67 DD 010c01H
	DD	0420cH
$unwind$instr68 DD 010c01H
	DD	0420cH
$unwind$instr73 DD 010c01H
	DD	0420cH
$unwind$instr74 DD 010c01H
	DD	0420cH
$unwind$instr76 DD 010c01H
	DD	0420cH
$unwind$instr77 DD 010c01H
	DD	0420cH
$unwind$instr78 DD 010c01H
	DD	0420cH
$unwind$instr80 DD 010c01H
	DD	0420cH
$unwind$instr129 DD 010c01H
	DD	0420cH
$unwind$instr133 DD 010c01H
	DD	0420cH
$unwind$instr134 DD 010c01H
	DD	0420cH
$unwind$instr142 DD 010c01H
	DD	0420cH
$unwind$instr144 DD 010c01H
	DD	0420cH
$unwind$instr145 DD 010c01H
	DD	0420cH
$unwind$instr146 DD 010c01H
	DD	0420cH
$unwind$instr148 DD 010c01H
	DD	0420cH
$unwind$instr150 DD 010c01H
	DD	0420cH
$unwind$instr151 DD 010c01H
	DD	0420cH
$unwind$instr155 DD 010c01H
	DD	0420cH
$unwind$instr165 DD 010c01H
	DD	0420cH
$unwind$instr192 DD 010c01H
	DD	0420cH
$unwind$instr193 DD 010c01H
	DD	0420cH
$unwind$instr194 DD 010c01H
	DD	0420cH
$unwind$instr196 DD 010c01H
	DD	0420cH
$unwind$hercmvcin DD 010c01H
	DD	0420cH
$unwind$hercsvs DD 010c01H
	DD	0420cH
$unwind$herc37X DD 010c01H
	DD	0420cH
$unwind$herctcp DD 010c01H
	DD	0420cH
$unwind$hercessa DD 010c01H
	DD	0420cH
$unwind$get_factab_by_bitno DD 010801H
	DD	02208H
$unwind$get_factab_by_name DD 010901H
	DD	06209H
$unwind$get_facname_by_bitno DD 010d01H
	DD	0620dH
$unwind$sort_ftpp_by_bit_number DD 010e01H
	DD	0820eH
$unwind$sort_ftpp_by_long_name DD 010e01H
	DD	0820eH
$unwind$facility_query_all DD 021501H
	DD	0230115H
$unwind$facility_query_raw DD 042019H
	DD	025010eH
	DD	030067007H
	DD	imagerel __GSHandlerCheck
	DD	0110H
$unwind$_hhc00890e DD 021a01H
	DD	011011aH
$unwind$ena_fac_ins DD 010d01H
	DD	0620dH
$unwind$dis_fac_ins DD 011701H
	DD	06217H
$unwind$enable_disable_herc37X DD 022319H
	DD	04290111H
	DD	imagerel __GSHandlerCheck
	DD	02130H
$unwind$facility_cmd DD 011201H
	DD	0c212H
xdata	ENDS
;	COMDAT xdata
xdata	SEGMENT
$unwind$sscanf DD 011801H
	DD	06218H
xdata	ENDS
;	COMDAT xdata
xdata	SEGMENT
$unwind$_vsscanf_l DD 011801H
	DD	06218H
xdata	ENDS
;	COMDAT xdata
xdata	SEGMENT
$unwind$_vsnprintf_s DD 011801H
	DD	06218H
xdata	ENDS
;	COMDAT xdata
xdata	SEGMENT
$unwind$_vsnprintf_s_l DD 011801H
	DD	0a218H
xdata	ENDS
; Function compile flags: /Odtp
; File C:\papa\MyGit\hyperion-zvector\facility.c
_TEXT	SEGMENT
tv134 = 64
rc$1 = 68
tv78 = 72
tv179 = 80
argc$ = 112
argv$ = 120
cmdline$ = 128
facility_cmd PROC

; 4629 : {

$LN19:
  00000	4c 89 44 24 18	 mov	 QWORD PTR [rsp+24], r8
  00005	48 89 54 24 10	 mov	 QWORD PTR [rsp+16], rdx
  0000a	89 4c 24 08	 mov	 DWORD PTR [rsp+8], ecx
  0000e	48 83 ec 68	 sub	 rsp, 104		; 00000068H
$LN4@facility_c:

; 4630 :     UNREFERENCED( cmdline );

  00012	33 c0		 xor	 eax, eax
  00014	85 c0		 test	 eax, eax
  00016	75 fa		 jne	 SHORT $LN4@facility_c
$LN7@facility_c:

; 4631 : 
; 4632 :     UPPER_ARGV_0( argv );

  00018	48 83 7c 24 78
	00		 cmp	 QWORD PTR argv$[rsp], 0
  0001e	74 3e		 je	 SHORT $LN8@facility_c
  00020	b8 08 00 00 00	 mov	 eax, 8
  00025	48 6b c0 00	 imul	 rax, rax, 0
  00029	48 8b 4c 24 78	 mov	 rcx, QWORD PTR argv$[rsp]
  0002e	48 83 3c 01 00	 cmp	 QWORD PTR [rcx+rax], 0
  00033	74 29		 je	 SHORT $LN8@facility_c
  00035	b8 08 00 00 00	 mov	 eax, 8
  0003a	48 6b c0 00	 imul	 rax, rax, 0
  0003e	b9 08 00 00 00	 mov	 ecx, 8
  00043	48 6b c9 00	 imul	 rcx, rcx, 0
  00047	48 8b 54 24 78	 mov	 rdx, QWORD PTR argv$[rsp]
  0004c	48 8b 14 02	 mov	 rdx, QWORD PTR [rdx+rax]
  00050	48 8b 44 24 78	 mov	 rax, QWORD PTR argv$[rsp]
  00055	48 8b 0c 08	 mov	 rcx, QWORD PTR [rax+rcx]
  00059	e8 00 00 00 00	 call	 strupper
$LN8@facility_c:
  0005e	33 c0		 xor	 eax, eax
  00060	85 c0		 test	 eax, eax
  00062	75 b4		 jne	 SHORT $LN7@facility_c

; 4633 : 
; 4634 :     /* Correct number of arguments? */
; 4635 : 
; 4636 :     if (argc < 3 || argc > 4)

  00064	83 7c 24 70 03	 cmp	 DWORD PTR argc$[rsp], 3
  00069	7c 07		 jl	 SHORT $LN10@facility_c
  0006b	83 7c 24 70 04	 cmp	 DWORD PTR argc$[rsp], 4
  00070	7e 72		 jle	 SHORT $LN9@facility_c
$LN10@facility_c:

; 4637 :     {
; 4638 :         // "Invalid command usage. Type 'help %s' for assistance."
; 4639 :         WRMSG( HHC02299, "E", argv[0] );

  00072	b8 08 00 00 00	 mov	 eax, 8
  00077	48 6b c0 00	 imul	 rax, rax, 0
  0007b	48 89 44 24 48	 mov	 QWORD PTR tv78[rsp], rax
  00080	b9 01 00 00 00	 mov	 ecx, 1
  00085	ff 15 00 00 00
	00		 call	 QWORD PTR __imp___acrt_iob_func
  0008b	48 8b 4c 24 78	 mov	 rcx, QWORD PTR argv$[rsp]
  00090	48 8b 54 24 48	 mov	 rdx, QWORD PTR tv78[rsp]
  00095	48 8b 0c 11	 mov	 rcx, QWORD PTR [rcx+rdx]
  00099	48 89 4c 24 38	 mov	 QWORD PTR [rsp+56], rcx
  0009e	48 8d 0d 00 00
	00 00		 lea	 rcx, OFFSET FLAT:$SG196381
  000a5	48 89 4c 24 30	 mov	 QWORD PTR [rsp+48], rcx
  000aa	48 8d 0d 00 00
	00 00		 lea	 rcx, OFFSET FLAT:$SG196382
  000b1	48 89 4c 24 28	 mov	 QWORD PTR [rsp+40], rcx
  000b6	48 89 44 24 20	 mov	 QWORD PTR [rsp+32], rax
  000bb	41 b9 03 00 00
	00		 mov	 r9d, 3
  000c1	4c 8d 05 00 00
	00 00		 lea	 r8, OFFSET FLAT:$SG196383
  000c8	ba 1f 12 00 00	 mov	 edx, 4639		; 0000121fH
  000cd	48 8d 0d 00 00
	00 00		 lea	 rcx, OFFSET FLAT:$SG196384
  000d4	ff 15 00 00 00
	00		 call	 QWORD PTR __imp_fwritemsg

; 4640 :         return -1;

  000da	b8 ff ff ff ff	 mov	 eax, -1
  000df	e9 04 02 00 00	 jmp	 $LN1@facility_c
$LN9@facility_c:

; 4641 :     }
; 4642 : 
; 4643 :     /*-----------------------------------------------------*/
; 4644 :     /*                Query Facility?                      */
; 4645 :     /*-----------------------------------------------------*/
; 4646 : 
; 4647 :     if (CMD( argv[1], QUERY, 1 ))

  000e4	b8 08 00 00 00	 mov	 eax, 8
  000e9	48 6b c0 01	 imul	 rax, rax, 1
  000ed	41 b8 01 00 00
	00		 mov	 r8d, 1
  000f3	48 8b 4c 24 78	 mov	 rcx, QWORD PTR argv$[rsp]
  000f8	48 8b 14 01	 mov	 rdx, QWORD PTR [rcx+rax]
  000fc	48 8d 0d 00 00
	00 00		 lea	 rcx, OFFSET FLAT:$SG196386
  00103	e8 00 00 00 00	 call	 strcaseabbrev
  00108	85 c0		 test	 eax, eax
  0010a	74 38		 je	 SHORT $LN11@facility_c

; 4648 :     {
; 4649 :         int rc = facility_query( argc, argv ) ? 0 : -1;

  0010c	48 8b 54 24 78	 mov	 rdx, QWORD PTR argv$[rsp]
  00111	8b 4c 24 70	 mov	 ecx, DWORD PTR argc$[rsp]
  00115	e8 00 00 00 00	 call	 facility_query
  0011a	0f b6 c0	 movzx	 eax, al
  0011d	85 c0		 test	 eax, eax
  0011f	74 0a		 je	 SHORT $LN17@facility_c
  00121	c7 44 24 40 00
	00 00 00	 mov	 DWORD PTR tv134[rsp], 0
  00129	eb 08		 jmp	 SHORT $LN18@facility_c
$LN17@facility_c:
  0012b	c7 44 24 40 ff
	ff ff ff	 mov	 DWORD PTR tv134[rsp], -1
$LN18@facility_c:
  00133	8b 44 24 40	 mov	 eax, DWORD PTR tv134[rsp]
  00137	89 44 24 44	 mov	 DWORD PTR rc$1[rsp], eax

; 4650 :         return rc;

  0013b	8b 44 24 44	 mov	 eax, DWORD PTR rc$1[rsp]
  0013f	e9 a4 01 00 00	 jmp	 $LN1@facility_c
$LN11@facility_c:

; 4651 :     }
; 4652 : 
; 4653 :     /*-----------------------------------------------------*/
; 4654 :     /*             Enable/Disable Facility?                */
; 4655 :     /*-----------------------------------------------------*/
; 4656 : 
; 4657 :     if (0
; 4658 :         || CMD( argv[1], ENABLE,  3 )
; 4659 :         || CMD( argv[1], DISABLE, 3 )

  00144	33 c0		 xor	 eax, eax
  00146	85 c0		 test	 eax, eax
  00148	75 54		 jne	 SHORT $LN13@facility_c
  0014a	b8 08 00 00 00	 mov	 eax, 8
  0014f	48 6b c0 01	 imul	 rax, rax, 1
  00153	41 b8 03 00 00
	00		 mov	 r8d, 3
  00159	48 8b 4c 24 78	 mov	 rcx, QWORD PTR argv$[rsp]
  0015e	48 8b 14 01	 mov	 rdx, QWORD PTR [rcx+rax]
  00162	48 8d 0d 00 00
	00 00		 lea	 rcx, OFFSET FLAT:$SG196389
  00169	e8 00 00 00 00	 call	 strcaseabbrev
  0016e	85 c0		 test	 eax, eax
  00170	75 2c		 jne	 SHORT $LN13@facility_c
  00172	b8 08 00 00 00	 mov	 eax, 8
  00177	48 6b c0 01	 imul	 rax, rax, 1
  0017b	41 b8 03 00 00
	00		 mov	 r8d, 3
  00181	48 8b 4c 24 78	 mov	 rcx, QWORD PTR argv$[rsp]
  00186	48 8b 14 01	 mov	 rdx, QWORD PTR [rcx+rax]
  0018a	48 8d 0d 00 00
	00 00		 lea	 rcx, OFFSET FLAT:$SG196390
  00191	e8 00 00 00 00	 call	 strcaseabbrev
  00196	85 c0		 test	 eax, eax
  00198	0f 84 dd 00 00
	00		 je	 $LN12@facility_c
$LN13@facility_c:

; 4660 :     )
; 4661 :     {
; 4662 :         if (sysblk.ipled)

  0019e	48 8b 05 00 00
	00 00		 mov	 rax, QWORD PTR __imp_sysblk
  001a5	8b 80 94 12 00
	00		 mov	 eax, DWORD PTR [rax+4756]
  001ab	d1 e8		 shr	 eax, 1
  001ad	83 e0 01	 and	 eax, 1
  001b0	85 c0		 test	 eax, eax
  001b2	74 51		 je	 SHORT $LN14@facility_c

; 4663 :         {
; 4664 :             // "Available facilities cannot be changed once system is IPLed"
; 4665 :             WRMSG( HHC00889, "E" );

  001b4	b9 01 00 00 00	 mov	 ecx, 1
  001b9	ff 15 00 00 00
	00		 call	 QWORD PTR __imp___acrt_iob_func
  001bf	48 8d 0d 00 00
	00 00		 lea	 rcx, OFFSET FLAT:$SG196392
  001c6	48 89 4c 24 30	 mov	 QWORD PTR [rsp+48], rcx
  001cb	48 8d 0d 00 00
	00 00		 lea	 rcx, OFFSET FLAT:$SG196393
  001d2	48 89 4c 24 28	 mov	 QWORD PTR [rsp+40], rcx
  001d7	48 89 44 24 20	 mov	 QWORD PTR [rsp+32], rax
  001dc	41 b9 03 00 00
	00		 mov	 r9d, 3
  001e2	4c 8d 05 00 00
	00 00		 lea	 r8, OFFSET FLAT:$SG196394
  001e9	ba 39 12 00 00	 mov	 edx, 4665		; 00001239H
  001ee	48 8d 0d 00 00
	00 00		 lea	 rcx, OFFSET FLAT:$SG196395
  001f5	ff 15 00 00 00
	00		 call	 QWORD PTR __imp_fwritemsg

; 4666 :             return -1;

  001fb	b8 ff ff ff ff	 mov	 eax, -1
  00200	e9 e3 00 00 00	 jmp	 $LN1@facility_c
$LN14@facility_c:

; 4667 :         }
; 4668 : 
; 4669 :         if (are_any_cpus_started())

  00205	e8 00 00 00 00	 call	 are_any_cpus_started
  0020a	0f b6 c0	 movzx	 eax, al
  0020d	85 c0		 test	 eax, eax
  0020f	74 5a		 je	 SHORT $LN15@facility_c

; 4670 :         {
; 4671 :             // "All CPU's must be stopped %s"
; 4672 :             WRMSG( HHC02253, "E", "to modify a facility" );

  00211	b9 01 00 00 00	 mov	 ecx, 1
  00216	ff 15 00 00 00
	00		 call	 QWORD PTR __imp___acrt_iob_func
  0021c	48 8d 0d 00 00
	00 00		 lea	 rcx, OFFSET FLAT:$SG196397
  00223	48 89 4c 24 38	 mov	 QWORD PTR [rsp+56], rcx
  00228	48 8d 0d 00 00
	00 00		 lea	 rcx, OFFSET FLAT:$SG196398
  0022f	48 89 4c 24 30	 mov	 QWORD PTR [rsp+48], rcx
  00234	48 8d 0d 00 00
	00 00		 lea	 rcx, OFFSET FLAT:$SG196399
  0023b	48 89 4c 24 28	 mov	 QWORD PTR [rsp+40], rcx
  00240	48 89 44 24 20	 mov	 QWORD PTR [rsp+32], rax
  00245	41 b9 03 00 00
	00		 mov	 r9d, 3
  0024b	4c 8d 05 00 00
	00 00		 lea	 r8, OFFSET FLAT:$SG196400
  00252	ba 40 12 00 00	 mov	 edx, 4672		; 00001240H
  00257	48 8d 0d 00 00
	00 00		 lea	 rcx, OFFSET FLAT:$SG196401
  0025e	ff 15 00 00 00
	00		 call	 QWORD PTR __imp_fwritemsg

; 4673 :             return HERRCPUONL;

  00264	b8 fd ff ff ff	 mov	 eax, -3
  00269	eb 7d		 jmp	 SHORT $LN1@facility_c
$LN15@facility_c:

; 4674 :         }
; 4675 :         return facility_enable_disable( argc, argv );

  0026b	48 8b 54 24 78	 mov	 rdx, QWORD PTR argv$[rsp]
  00270	8b 4c 24 70	 mov	 ecx, DWORD PTR argc$[rsp]
  00274	e8 00 00 00 00	 call	 facility_enable_disable
  00279	eb 6d		 jmp	 SHORT $LN1@facility_c
$LN12@facility_c:

; 4676 :     }
; 4677 : 
; 4678 :     // "Invalid command usage. Type 'help %s' for assistance."
; 4679 :     WRMSG( HHC02299, "E", argv[0] );

  0027b	b8 08 00 00 00	 mov	 eax, 8
  00280	48 6b c0 00	 imul	 rax, rax, 0
  00284	48 89 44 24 50	 mov	 QWORD PTR tv179[rsp], rax
  00289	b9 01 00 00 00	 mov	 ecx, 1
  0028e	ff 15 00 00 00
	00		 call	 QWORD PTR __imp___acrt_iob_func
  00294	48 8b 4c 24 78	 mov	 rcx, QWORD PTR argv$[rsp]
  00299	48 8b 54 24 50	 mov	 rdx, QWORD PTR tv179[rsp]
  0029e	48 8b 0c 11	 mov	 rcx, QWORD PTR [rcx+rdx]
  002a2	48 89 4c 24 38	 mov	 QWORD PTR [rsp+56], rcx
  002a7	48 8d 0d 00 00
	00 00		 lea	 rcx, OFFSET FLAT:$SG196402
  002ae	48 89 4c 24 30	 mov	 QWORD PTR [rsp+48], rcx
  002b3	48 8d 0d 00 00
	00 00		 lea	 rcx, OFFSET FLAT:$SG196403
  002ba	48 89 4c 24 28	 mov	 QWORD PTR [rsp+40], rcx
  002bf	48 89 44 24 20	 mov	 QWORD PTR [rsp+32], rax
  002c4	41 b9 03 00 00
	00		 mov	 r9d, 3
  002ca	4c 8d 05 00 00
	00 00		 lea	 r8, OFFSET FLAT:$SG196404
  002d1	ba 47 12 00 00	 mov	 edx, 4679		; 00001247H
  002d6	48 8d 0d 00 00
	00 00		 lea	 rcx, OFFSET FLAT:$SG196405
  002dd	ff 15 00 00 00
	00		 call	 QWORD PTR __imp_fwritemsg

; 4680 :     return -1;

  002e3	b8 ff ff ff ff	 mov	 eax, -1
$LN1@facility_c:

; 4681 : }

  002e8	48 83 c4 68	 add	 rsp, 104		; 00000068H
  002ec	c3		 ret	 0
facility_cmd ENDP
_TEXT	ENDS
; Function compile flags: /Odtp
; File C:\papa\MyGit\hyperion-zvector\facility.c
_TEXT	SEGMENT
i$ = 32
argc$ = 36
orig_msglvl$ = 40
argv$ = 48
cmdbuf$ = 8240
__$ArrayPad$ = 8496
enable$ = 8528
enable_disable_herc37X PROC

; 4375 : {

  00000	88 4c 24 08	 mov	 BYTE PTR [rsp+8], cl
  00004	b8 48 21 00 00	 mov	 eax, 8520		; 00002148H
  00009	e8 00 00 00 00	 call	 __chkstk
  0000e	48 2b e0	 sub	 rsp, rax
  00011	48 8b 05 00 00
	00 00		 mov	 rax, QWORD PTR __security_cookie
  00018	48 33 c4	 xor	 rax, rsp
  0001b	48 89 84 24 30
	21 00 00	 mov	 QWORD PTR __$ArrayPad$[rsp], rax

; 4376 :     unsigned int orig_msglvl;
; 4377 :     char   cmdbuf[ 256 ];
; 4378 :     char*  argv[ MAX_ARGS ];
; 4379 :     int    argc, i;
; 4380 :     static const int facils[] =      /* List of dependent facilities */
; 4381 :     {
; 4382 :         STFL_000_N3_INSTR,
; 4383 :         STFL_016_EXT_TRANSL_2,
; 4384 :         STFL_017_MSA,
; 4385 :         STFL_018_LONG_DISPL_INST,
; 4386 :         STFL_020_HFP_MULT_ADD_SUB,
; 4387 :         STFL_021_EXTENDED_IMMED,
; 4388 :         STFL_022_EXT_TRANSL_3,
; 4389 :         STFL_023_HFP_UNNORM_EXT,
; 4390 :         STFL_026_PARSING_ENHANCE,
; 4391 :         STFL_032_CSSF,
; 4392 :         STFL_034_GEN_INST_EXTN,
; 4393 :         STFL_035_EXECUTE_EXTN,
; 4394 : 
; 4395 :         // 42 must be enabled BEFORE 37 or disabled AFTER 37
; 4396 :         STFL_042_DFP,
; 4397 :         STFL_037_FP_EXTENSION,
; 4398 : 
; 4399 :         STFL_041_FPS_ENHANCEMENT,
; 4400 :         STFL_041_DFP_ROUNDING,
; 4401 :         STFL_041_FPR_GR_TRANSFER,
; 4402 :         STFL_041_FPS_SIGN_HANDLING,
; 4403 :         STFL_041_IEEE_EXCEPT_SIM,
; 4404 : //      STFL_042_DFP,
; 4405 :         STFL_045_DISTINCT_OPERANDS,
; 4406 :         STFL_045_FAST_BCR_SERIAL,
; 4407 :         STFL_045_HIGH_WORD,
; 4408 :         STFL_045_INTERLOCKED_ACCESS_1,
; 4409 :         STFL_045_LOAD_STORE_ON_COND_1,
; 4410 :         STFL_045_POPULATION_COUNT,
; 4411 :         STFL_076_MSA_EXTENSION_3,
; 4412 :         STFL_077_MSA_EXTENSION_4,
; 4413 :     };
; 4414 : 
; 4415 :     /* Temporarily suppress logging */
; 4416 :     orig_msglvl = sysblk.msglvl;

  00023	48 8b 05 00 00
	00 00		 mov	 rax, QWORD PTR __imp_sysblk
  0002a	8b 80 80 75 01
	00		 mov	 eax, DWORD PTR [rax+95616]
  00030	89 44 24 28	 mov	 DWORD PTR orig_msglvl$[rsp], eax

; 4417 :     sysblk.msglvl &= ~MLVL_VERBOSE;

  00034	48 8b 05 00 00
	00 00		 mov	 rax, QWORD PTR __imp_sysblk
  0003b	8b 80 80 75 01
	00		 mov	 eax, DWORD PTR [rax+95616]
  00041	0f ba f0 1f	 btr	 eax, 31
  00045	48 8b 0d 00 00
	00 00		 mov	 rcx, QWORD PTR __imp_sysblk
  0004c	89 81 80 75 01
	00		 mov	 DWORD PTR [rcx+95616], eax

; 4418 : 
; 4419 :     /* Enable / disable all dependent facilities in the proper order */
; 4420 :     if (enable)

  00052	0f b6 84 24 50
	21 00 00	 movzx	 eax, BYTE PTR enable$[rsp]
  0005a	85 c0		 test	 eax, eax
  0005c	0f 84 e4 00 00
	00		 je	 $LN20@enable_dis

; 4421 :     {
; 4422 :         for (i=0; i < (int) _countof( facils ); ++i)

  00062	c7 44 24 20 00
	00 00 00	 mov	 DWORD PTR i$[rsp], 0
  0006a	eb 0a		 jmp	 SHORT $LN4@enable_dis
$LN2@enable_dis:
  0006c	8b 44 24 20	 mov	 eax, DWORD PTR i$[rsp]
  00070	ff c0		 inc	 eax
  00072	89 44 24 20	 mov	 DWORD PTR i$[rsp], eax
$LN4@enable_dis:
  00076	83 7c 24 20 1b	 cmp	 DWORD PTR i$[rsp], 27
  0007b	0f 8d c0 00 00
	00		 jge	 $LN3@enable_dis

; 4423 :         {
; 4424 :             MSGBUF( cmdbuf, "facility enable %d", facils[i] );

  00081	48 63 44 24 20	 movsxd	 rax, DWORD PTR i$[rsp]
  00086	48 8d 0d 00 00
	00 00		 lea	 rcx, OFFSET FLAT:?facils@?1??enable_disable_herc37X@@9@9
  0008d	44 8b 0c 81	 mov	 r9d, DWORD PTR [rcx+rax*4]
  00091	4c 8d 05 00 00
	00 00		 lea	 r8, OFFSET FLAT:$SG196227
  00098	ba 00 01 00 00	 mov	 edx, 256		; 00000100H
  0009d	48 8d 8c 24 30
	20 00 00	 lea	 rcx, QWORD PTR cmdbuf$[rsp]
  000a5	ff 15 00 00 00
	00		 call	 QWORD PTR __imp_w32_snprintf

; 4425 :             parse_args( cmdbuf, MAX_ARGS, argv, &argc );

  000ab	4c 8d 4c 24 24	 lea	 r9, QWORD PTR argc$[rsp]
  000b0	4c 8d 44 24 30	 lea	 r8, QWORD PTR argv$[rsp]
  000b5	ba 00 04 00 00	 mov	 edx, 1024		; 00000400H
  000ba	48 8d 8c 24 30
	20 00 00	 lea	 rcx, QWORD PTR cmdbuf$[rsp]
  000c2	ff 15 00 00 00
	00		 call	 QWORD PTR __imp_parse_args
$LN7@enable_dis:

; 4426 :             VERIFY( facility_enable_disable( argc, argv ) == 0);

  000c8	48 8d 54 24 30	 lea	 rdx, QWORD PTR argv$[rsp]
  000cd	8b 4c 24 24	 mov	 ecx, DWORD PTR argc$[rsp]
  000d1	e8 00 00 00 00	 call	 facility_enable_disable
  000d6	85 c0		 test	 eax, eax
  000d8	74 5c		 je	 SHORT $LN22@enable_dis
$LN10@enable_dis:
  000da	4c 8d 0d 00 00
	00 00		 lea	 r9, OFFSET FLAT:$SG196229
  000e1	41 b8 4a 11 00
	00		 mov	 r8d, 4426		; 0000114aH
  000e7	48 8d 15 00 00
	00 00		 lea	 rdx, OFFSET FLAT:$SG196230
  000ee	48 8d 0d 00 00
	00 00		 lea	 rcx, OFFSET FLAT:$SG196231
  000f5	ff 15 00 00 00
	00		 call	 QWORD PTR __imp_logmsg
  000fb	ff 15 00 00 00
	00		 call	 QWORD PTR __imp_IsDebuggerPresent
  00101	85 c0		 test	 eax, eax
  00103	74 20		 je	 SHORT $LN23@enable_dis
  00105	4c 8d 0d 00 00
	00 00		 lea	 r9, OFFSET FLAT:$SG196233
  0010c	41 b8 4a 11 00
	00		 mov	 r8d, 4426		; 0000114aH
  00112	48 8d 15 00 00
	00 00		 lea	 rdx, OFFSET FLAT:$SG196234
  00119	48 8d 0d 00 00
	00 00		 lea	 rcx, OFFSET FLAT:$SG196235
  00120	e8 00 00 00 00	 call	 DebuggerTrace
$LN23@enable_dis:
  00125	33 c0		 xor	 eax, eax
  00127	85 c0		 test	 eax, eax
  00129	75 af		 jne	 SHORT $LN10@enable_dis
  0012b	ff 15 00 00 00
	00		 call	 QWORD PTR __imp_IsDebuggerPresent
  00131	85 c0		 test	 eax, eax
  00133	74 01		 je	 SHORT $LN24@enable_dis
  00135	cc		 int	 3
$LN24@enable_dis:
$LN22@enable_dis:
  00136	33 c0		 xor	 eax, eax
  00138	85 c0		 test	 eax, eax
  0013a	75 8c		 jne	 SHORT $LN7@enable_dis

; 4427 :         }

  0013c	e9 2b ff ff ff	 jmp	 $LN2@enable_dis
$LN3@enable_dis:

; 4428 :     }

  00141	e9 df 00 00 00	 jmp	 $LN21@enable_dis
$LN20@enable_dis:

; 4429 :     else // disable
; 4430 :     {
; 4431 :         for (i = _countof( facils ) - 1; i >= 0; --i)

  00146	c7 44 24 20 1a
	00 00 00	 mov	 DWORD PTR i$[rsp], 26
  0014e	eb 0a		 jmp	 SHORT $LN13@enable_dis
$LN11@enable_dis:
  00150	8b 44 24 20	 mov	 eax, DWORD PTR i$[rsp]
  00154	ff c8		 dec	 eax
  00156	89 44 24 20	 mov	 DWORD PTR i$[rsp], eax
$LN13@enable_dis:
  0015a	83 7c 24 20 00	 cmp	 DWORD PTR i$[rsp], 0
  0015f	0f 8c c0 00 00
	00		 jl	 $LN12@enable_dis

; 4432 :         {
; 4433 :             MSGBUF( cmdbuf, "facility disable %d", facils[i] );

  00165	48 63 44 24 20	 movsxd	 rax, DWORD PTR i$[rsp]
  0016a	48 8d 0d 00 00
	00 00		 lea	 rcx, OFFSET FLAT:?facils@?1??enable_disable_herc37X@@9@9
  00171	44 8b 0c 81	 mov	 r9d, DWORD PTR [rcx+rax*4]
  00175	4c 8d 05 00 00
	00 00		 lea	 r8, OFFSET FLAT:$SG196237
  0017c	ba 00 01 00 00	 mov	 edx, 256		; 00000100H
  00181	48 8d 8c 24 30
	20 00 00	 lea	 rcx, QWORD PTR cmdbuf$[rsp]
  00189	ff 15 00 00 00
	00		 call	 QWORD PTR __imp_w32_snprintf

; 4434 :             parse_args( cmdbuf, MAX_ARGS, argv, &argc );

  0018f	4c 8d 4c 24 24	 lea	 r9, QWORD PTR argc$[rsp]
  00194	4c 8d 44 24 30	 lea	 r8, QWORD PTR argv$[rsp]
  00199	ba 00 04 00 00	 mov	 edx, 1024		; 00000400H
  0019e	48 8d 8c 24 30
	20 00 00	 lea	 rcx, QWORD PTR cmdbuf$[rsp]
  001a6	ff 15 00 00 00
	00		 call	 QWORD PTR __imp_parse_args
$LN16@enable_dis:

; 4435 :             VERIFY( facility_enable_disable( argc, argv ) == 0);

  001ac	48 8d 54 24 30	 lea	 rdx, QWORD PTR argv$[rsp]
  001b1	8b 4c 24 24	 mov	 ecx, DWORD PTR argc$[rsp]
  001b5	e8 00 00 00 00	 call	 facility_enable_disable
  001ba	85 c0		 test	 eax, eax
  001bc	74 5c		 je	 SHORT $LN25@enable_dis
$LN19@enable_dis:
  001be	4c 8d 0d 00 00
	00 00		 lea	 r9, OFFSET FLAT:$SG196239
  001c5	41 b8 53 11 00
	00		 mov	 r8d, 4435		; 00001153H
  001cb	48 8d 15 00 00
	00 00		 lea	 rdx, OFFSET FLAT:$SG196240
  001d2	48 8d 0d 00 00
	00 00		 lea	 rcx, OFFSET FLAT:$SG196241
  001d9	ff 15 00 00 00
	00		 call	 QWORD PTR __imp_logmsg
  001df	ff 15 00 00 00
	00		 call	 QWORD PTR __imp_IsDebuggerPresent
  001e5	85 c0		 test	 eax, eax
  001e7	74 20		 je	 SHORT $LN26@enable_dis
  001e9	4c 8d 0d 00 00
	00 00		 lea	 r9, OFFSET FLAT:$SG196243
  001f0	41 b8 53 11 00
	00		 mov	 r8d, 4435		; 00001153H
  001f6	48 8d 15 00 00
	00 00		 lea	 rdx, OFFSET FLAT:$SG196244
  001fd	48 8d 0d 00 00
	00 00		 lea	 rcx, OFFSET FLAT:$SG196245
  00204	e8 00 00 00 00	 call	 DebuggerTrace
$LN26@enable_dis:
  00209	33 c0		 xor	 eax, eax
  0020b	85 c0		 test	 eax, eax
  0020d	75 af		 jne	 SHORT $LN19@enable_dis
  0020f	ff 15 00 00 00
	00		 call	 QWORD PTR __imp_IsDebuggerPresent
  00215	85 c0		 test	 eax, eax
  00217	74 01		 je	 SHORT $LN27@enable_dis
  00219	cc		 int	 3
$LN27@enable_dis:
$LN25@enable_dis:
  0021a	33 c0		 xor	 eax, eax
  0021c	85 c0		 test	 eax, eax
  0021e	75 8c		 jne	 SHORT $LN16@enable_dis

; 4436 :         }

  00220	e9 2b ff ff ff	 jmp	 $LN11@enable_dis
$LN12@enable_dis:
$LN21@enable_dis:

; 4437 :     }
; 4438 : 
; 4439 :     /* Restore original msglevel */
; 4440 :     sysblk.msglvl = orig_msglvl;

  00225	48 8b 05 00 00
	00 00		 mov	 rax, QWORD PTR __imp_sysblk
  0022c	8b 4c 24 28	 mov	 ecx, DWORD PTR orig_msglvl$[rsp]
  00230	89 88 80 75 01
	00		 mov	 DWORD PTR [rax+95616], ecx

; 4441 : }

  00236	48 8b 8c 24 30
	21 00 00	 mov	 rcx, QWORD PTR __$ArrayPad$[rsp]
  0023e	48 33 cc	 xor	 rcx, rsp
  00241	e8 00 00 00 00	 call	 __security_check_cookie
  00246	48 81 c4 48 21
	00 00		 add	 rsp, 8520		; 00002148H
  0024d	c3		 ret	 0
enable_disable_herc37X ENDP
_TEXT	ENDS
; Function compile flags: /Odtp
; File C:\papa\MyGit\hyperion-zvector\facility.c
_TEXT	SEGMENT
tv79 = 32
newins$ = 40
arch$ = 64
ppHDLINS$ = 72
opcode$ = 80
instname$ = 88
dis_fac_ins PROC

; 2915 : {

  00000	4c 89 4c 24 20	 mov	 QWORD PTR [rsp+32], r9
  00005	44 89 44 24 18	 mov	 DWORD PTR [rsp+24], r8d
  0000a	48 89 54 24 10	 mov	 QWORD PTR [rsp+16], rdx
  0000f	89 4c 24 08	 mov	 DWORD PTR [rsp+8], ecx
  00013	48 83 ec 38	 sub	 rsp, 56			; 00000038H

; 2916 :     static const INSTR_FUNC pgmck_instr_func_tab[ NUM_GEN_ARCHS ] =
; 2917 :     {
; 2918 : #if defined(       _ARCH_NUM_0 )
; 2919 :    #if      370 == _ARCH_NUM_0
; 2920 :           &s370_facility_not_enabled,
; 2921 : 
; 2922 :    #elif    390 == _ARCH_NUM_0
; 2923 :           &s390_facility_not_enabled,
; 2924 : 
; 2925 :    #else // 900 == _ARCH_NUM_0
; 2926 :           &z900_facility_not_enabled,
