; Listing generated by Microsoft (R) Optimizing Compiler Version 19.34.31937.0 

include listing.inc

INCLUDELIB MSVCRTD
INCLUDELIB OLDNAMES

CONST	SEGMENT
CKD_ENDTRK DB	0ffH
	DB	0ffH
	DB	0ffH
	DB	0ffH
	DB	0ffH
	DB	0ffH
	DB	0ffH
	DB	0ffH
?fct_table_lengths@?1??z900_translate_and_test_xxx_extended@@9@9 DD 0100H ; `z900_translate_and_test_xxx_extended'::`2'::fct_table_lengths
	DD	0100H
	DD	0200H
	DD	0200H
	DD	010000H
	DD	0100H
	DD	020000H
	DD	0200H
?fct_table_lengths@?1??s370_translate_and_test_xxx_extended@@9@9 DD 0100H ; `s370_translate_and_test_xxx_extended'::`2'::fct_table_lengths
	DD	0100H
	DD	0200H
	DD	0200H
	DD	010000H
	DD	0100H
	DD	020000H
	DD	0200H
CONST	ENDS
PUBLIC	s370_convert_utf16_to_utf32
PUBLIC	s370_convert_utf32_to_utf16
PUBLIC	s370_convert_utf32_to_utf8
PUBLIC	s370_convert_utf8_to_utf32
PUBLIC	s370_search_string_unicode
PUBLIC	s370_translate_and_test_reverse
PUBLIC	s370_translate_and_test_extended
PUBLIC	s370_translate_and_test_reverse_extended
PUBLIC	s370_translate_extended
PUBLIC	s370_test_under_mask_high
PUBLIC	s370_test_under_mask_low
PUBLIC	s370_search_string
PUBLIC	s370_or
PUBLIC	s370_or_character
PUBLIC	s370_or_immediate
PUBLIC	s370_or_register
PUBLIC	s370_pack
PUBLIC	s370_set_program_mask
PUBLIC	s370_shift_left_double
PUBLIC	s370_shift_left_double_logical
PUBLIC	s370_shift_left_single
PUBLIC	s370_shift_left_single_logical
PUBLIC	s370_shift_right_double
PUBLIC	s370_shift_right_double_logical
PUBLIC	s370_shift_right_single
PUBLIC	s370_shift_right_single_logical
PUBLIC	s370_store_characters_under_mask
PUBLIC	s370_store_clock
PUBLIC	s370_store_halfword
PUBLIC	s370_store_multiple
PUBLIC	s370_subtract
PUBLIC	s370_subtract_halfword
PUBLIC	s370_subtract_logical
PUBLIC	s370_subtract_logical_register
PUBLIC	s370_subtract_register
PUBLIC	s370_supervisor_call
PUBLIC	s370_test_and_set
PUBLIC	s370_test_under_mask
PUBLIC	s370_translate
PUBLIC	s370_translate_and_test
PUBLIC	s370_unpack
PUBLIC	s370_update_tree
PUBLIC	s370_9180
PUBLIC	s370_9140
PUBLIC	s370_9120
PUBLIC	s370_9110
PUBLIC	s370_9108
PUBLIC	s370_9104
PUBLIC	s370_9102
PUBLIC	s370_9101
PUBLIC	s370_1F00
PUBLIC	s370_1F01
PUBLIC	s370_1F02
PUBLIC	s370_1F03
PUBLIC	s370_1F04
PUBLIC	s370_1F05
PUBLIC	s370_1F06
PUBLIC	s370_1F07
PUBLIC	s370_1F08
PUBLIC	s370_1F09
PUBLIC	s370_1F0A
PUBLIC	s370_1F0B
PUBLIC	s370_1F0C
PUBLIC	s370_1F0D
PUBLIC	s370_1F0E
PUBLIC	s370_1F0F
PUBLIC	s370_1F10
PUBLIC	s370_1F11
PUBLIC	s370_1F12
PUBLIC	s370_1F13
PUBLIC	s370_1F14
PUBLIC	s370_1F15
PUBLIC	s370_1F16
PUBLIC	s370_1F17
PUBLIC	s370_1F18
PUBLIC	s370_1F19
PUBLIC	s370_1F1A
PUBLIC	s370_1F1B
PUBLIC	s370_1F1C
PUBLIC	s370_1F1D
PUBLIC	s370_1F1E
PUBLIC	s370_1F1F
PUBLIC	s370_1F20
PUBLIC	s370_1F21
PUBLIC	s370_1F22
PUBLIC	s370_1F23
PUBLIC	s370_1F24
PUBLIC	s370_1F25
PUBLIC	s370_1F26
PUBLIC	s370_1F27
PUBLIC	s370_1F28
PUBLIC	s370_1F29
PUBLIC	s370_1F2A
PUBLIC	s370_1F2B
PUBLIC	s370_1F2C
PUBLIC	s370_1F2D
PUBLIC	s370_1F2E
PUBLIC	s370_1F2F
PUBLIC	s370_1F30
PUBLIC	s370_1F31
PUBLIC	s370_1F32
PUBLIC	s370_1F33
PUBLIC	s370_1F34
PUBLIC	s370_1F35
PUBLIC	s370_1F36
PUBLIC	s370_1F37
PUBLIC	s370_1F38
PUBLIC	s370_1F39
PUBLIC	s370_1F3A
PUBLIC	s370_1F3B
PUBLIC	s370_1F3C
PUBLIC	s370_1F3D
PUBLIC	s370_1F3E
PUBLIC	s370_1F3F
PUBLIC	s370_1F40
PUBLIC	s370_1F41
PUBLIC	s370_1F42
PUBLIC	s370_1F43
PUBLIC	s370_1F44
PUBLIC	s370_1F45
PUBLIC	s370_1F46
PUBLIC	s370_1F47
PUBLIC	s370_1F48
PUBLIC	s370_1F49
PUBLIC	s370_1F4A
PUBLIC	s370_1F4B
PUBLIC	s370_1F4C
PUBLIC	s370_1F4D
PUBLIC	s370_1F4E
PUBLIC	s370_1F4F
PUBLIC	s370_1F50
PUBLIC	s370_1F51
PUBLIC	s370_1F52
PUBLIC	s370_1F53
PUBLIC	s370_1F54
PUBLIC	s370_1F55
PUBLIC	s370_1F56
PUBLIC	s370_1F57
PUBLIC	s370_1F58
PUBLIC	s370_1F59
PUBLIC	s370_1F5A
PUBLIC	s370_1F5B
PUBLIC	s370_1F5C
PUBLIC	s370_1F5D
PUBLIC	s370_1F5E
PUBLIC	s370_1F5F
PUBLIC	s370_1F60
PUBLIC	s370_1F61
PUBLIC	s370_1F62
PUBLIC	s370_1F63
PUBLIC	s370_1F64
PUBLIC	s370_1F65
PUBLIC	s370_1F66
PUBLIC	s370_1F67
PUBLIC	s370_1F68
PUBLIC	s370_1F69
PUBLIC	s370_1F6A
PUBLIC	s370_1F6B
PUBLIC	s370_1F6C
PUBLIC	s370_1F6D
PUBLIC	s370_1F6E
PUBLIC	s370_1F6F
PUBLIC	s370_1F70
PUBLIC	s370_1F71
PUBLIC	s370_1F72
PUBLIC	s370_1F73
PUBLIC	s370_1F74
PUBLIC	s370_1F75
PUBLIC	s370_1F76
PUBLIC	s370_1F77
PUBLIC	s370_1F78
PUBLIC	s370_1F79
PUBLIC	s370_1F7A
PUBLIC	s370_1F7B
PUBLIC	s370_1F7C
PUBLIC	s370_1F7D
PUBLIC	s370_1F7E
PUBLIC	s370_1F7F
PUBLIC	s370_1F80
PUBLIC	s370_1F81
PUBLIC	s370_1F82
PUBLIC	s370_1F83
PUBLIC	s370_1F84
PUBLIC	s370_1F85
PUBLIC	s370_1F86
PUBLIC	s370_1F87
PUBLIC	s370_1F88
PUBLIC	s370_1F89
PUBLIC	s370_1F8A
PUBLIC	s370_1F8B
PUBLIC	s370_1F8C
PUBLIC	s370_1F8D
PUBLIC	s370_1F8E
PUBLIC	s370_1F8F
PUBLIC	s370_1F90
PUBLIC	s370_1F91
PUBLIC	s370_1F92
PUBLIC	s370_1F93
PUBLIC	s370_1F94
PUBLIC	s370_1F95
PUBLIC	s370_1F96
PUBLIC	s370_1F97
PUBLIC	s370_1F98
PUBLIC	s370_1F99
PUBLIC	s370_1F9A
PUBLIC	s370_1F9B
PUBLIC	s370_1F9C
PUBLIC	s370_1F9D
PUBLIC	s370_1F9E
PUBLIC	s370_1F9F
PUBLIC	s370_1FA0
PUBLIC	s370_1FA1
PUBLIC	s370_1FA2
PUBLIC	s370_1FA3
PUBLIC	s370_1FA4
PUBLIC	s370_1FA5
PUBLIC	s370_1FA6
PUBLIC	s370_1FA7
PUBLIC	s370_1FA8
PUBLIC	s370_1FA9
PUBLIC	s370_1FAA
PUBLIC	s370_1FAB
PUBLIC	s370_1FAC
PUBLIC	s370_1FAD
PUBLIC	s370_1FAE
PUBLIC	s370_1FAF
PUBLIC	s370_1FB0
PUBLIC	s370_1FB1
PUBLIC	s370_1FB2
PUBLIC	s370_1FB3
PUBLIC	s370_1FB4
PUBLIC	s370_1FB5
PUBLIC	s370_1FB6
PUBLIC	s370_1FB7
PUBLIC	s370_1FB8
PUBLIC	s370_1FB9
PUBLIC	s370_1FBA
PUBLIC	s370_1FBB
PUBLIC	s370_1FBC
PUBLIC	s370_1FBD
PUBLIC	s370_1FBE
PUBLIC	s370_1FBF
PUBLIC	s370_1FC0
PUBLIC	s370_1FC1
PUBLIC	s370_1FC2
PUBLIC	s370_1FC3
PUBLIC	s370_1FC4
PUBLIC	s370_1FC5
PUBLIC	s370_1FC6
PUBLIC	s370_1FC7
PUBLIC	s370_1FC8
PUBLIC	s370_1FC9
PUBLIC	s370_1FCA
PUBLIC	s370_1FCB
PUBLIC	s370_1FCC
PUBLIC	s370_1FCD
PUBLIC	s370_1FCE
PUBLIC	s370_1FCF
PUBLIC	s370_1FD0
PUBLIC	s370_1FD1
PUBLIC	s370_1FD2
PUBLIC	s370_1FD3
PUBLIC	s370_1FD4
PUBLIC	s370_1FD5
PUBLIC	s370_1FD6
PUBLIC	s370_1FD7
PUBLIC	s370_1FD8
PUBLIC	s370_1FD9
PUBLIC	s370_1FDA
PUBLIC	s370_1FDB
PUBLIC	s370_1FDC
PUBLIC	s370_1FDD
PUBLIC	s370_1FDE
PUBLIC	s370_1FDF
PUBLIC	s370_1FE0
PUBLIC	s370_1FE1
PUBLIC	s370_1FE2
PUBLIC	s370_1FE3
PUBLIC	s370_1FE4
PUBLIC	s370_1FE5
PUBLIC	s370_1FE6
PUBLIC	s370_1FE7
PUBLIC	s370_1FE8
PUBLIC	s370_1FE9
PUBLIC	s370_1FEA
PUBLIC	s370_1FEB
PUBLIC	s370_1FEC
PUBLIC	s370_1FED
PUBLIC	s370_1FEE
PUBLIC	s370_1FEF
PUBLIC	s370_1FF0
PUBLIC	s370_1FF1
PUBLIC	s370_1FF2
PUBLIC	s370_1FF3
PUBLIC	s370_1FF4
PUBLIC	s370_1FF5
PUBLIC	s370_1FF6
PUBLIC	s370_1FF7
PUBLIC	s370_1FF8
PUBLIC	s370_1FF9
PUBLIC	s370_1FFA
PUBLIC	s370_1FFB
PUBLIC	s370_1FFC
PUBLIC	s370_1FFD
PUBLIC	s370_1FFE
PUBLIC	s370_1FFF
PUBLIC	cmpxchg4_x86
PUBLIC	cmpxchg1_x86
PUBLIC	fetch_hw_noswap
PUBLIC	store_hw_noswap
PUBLIC	fetch_fw_noswap
PUBLIC	store_fw_noswap
PUBLIC	fetch_dw_noswap
PUBLIC	store_dw_noswap
PUBLIC	_get_storekey_ptr
PUBLIC	_get_storekey1_ptr
PUBLIC	_get_storekey2_ptr
PUBLIC	s370__or_storage_key
PUBLIC	s370_or_2K_storage_key
PUBLIC	s370_or_storage_key
PUBLIC	s370_or_storage_key_by_ptr
PUBLIC	sub_logical
PUBLIC	sub_signed
PUBLIC	s370_per1_gra
PUBLIC	s370_maddr_l
PUBLIC	s370_vstore2_full
PUBLIC	s370_vstore4_full
PUBLIC	s370_vstore8_full
PUBLIC	s370_vfetch2_full
PUBLIC	s370_vfetch4_full
PUBLIC	s370_vstorec
PUBLIC	s370_vstoreb
PUBLIC	s370_vstore2
PUBLIC	s370_vstore4
PUBLIC	s370_vstore8
PUBLIC	s370_vfetchc
PUBLIC	s370_vfetchb
PUBLIC	s370_vfetch2
PUBLIC	s370_vfetch4
PUBLIC	s370_validate_operand
PUBLIC	s370_translate_and_test_xxx_extended
PUBLIC	s390_set_access_register
PUBLIC	s390_store_access_multiple
PUBLIC	s390_store_clock_extended
PUBLIC	s390_translate_extended
PUBLIC	s390_test_under_mask_high
PUBLIC	s390_test_under_mask_low
PUBLIC	s390_perform_locked_operation
PUBLIC	s390_search_string
PUBLIC	s390_or
PUBLIC	s390_or_character
PUBLIC	s390_or_immediate
PUBLIC	s390_or_register
PUBLIC	s390_pack
PUBLIC	s390_set_program_mask
PUBLIC	s390_shift_left_double
PUBLIC	s390_shift_left_double_logical
PUBLIC	s390_shift_left_single
PUBLIC	s390_shift_left_single_logical
PUBLIC	s390_shift_right_double
PUBLIC	s390_shift_right_double_logical
PUBLIC	s390_shift_right_single
PUBLIC	s390_shift_right_single_logical
PUBLIC	s390_store_characters_under_mask
PUBLIC	s390_store_clock
PUBLIC	s390_store_halfword
PUBLIC	s390_store_multiple
PUBLIC	s390_subtract
PUBLIC	s390_subtract_halfword
PUBLIC	s390_subtract_logical
PUBLIC	s390_subtract_logical_register
PUBLIC	s390_subtract_register
PUBLIC	s390_supervisor_call
PUBLIC	s390_test_and_set
PUBLIC	s390_test_under_mask
PUBLIC	s390_translate
PUBLIC	s390_translate_and_test
PUBLIC	s390_unpack
PUBLIC	s390_update_tree
PUBLIC	s390_9180
PUBLIC	s390_9140
PUBLIC	s390_9120
PUBLIC	s390_9110
PUBLIC	s390_9108
PUBLIC	s390_9104
PUBLIC	s390_9102
PUBLIC	s390_9101
PUBLIC	s390_1F00
PUBLIC	s390_1F01
PUBLIC	s390_1F02
PUBLIC	s390_1F03
PUBLIC	s390_1F04
PUBLIC	s390_1F05
PUBLIC	s390_1F06
PUBLIC	s390_1F07
PUBLIC	s390_1F08
PUBLIC	s390_1F09
PUBLIC	s390_1F0A
PUBLIC	s390_1F0B
PUBLIC	s390_1F0C
PUBLIC	s390_1F0D
PUBLIC	s390_1F0E
PUBLIC	s390_1F0F
PUBLIC	s390_1F10
PUBLIC	s390_1F11
PUBLIC	s390_1F12
PUBLIC	s390_1F13
PUBLIC	s390_1F14
PUBLIC	s390_1F15
PUBLIC	s390_1F16
PUBLIC	s390_1F17
PUBLIC	s390_1F18
PUBLIC	s390_1F19
PUBLIC	s390_1F1A
PUBLIC	s390_1F1B
PUBLIC	s390_1F1C
PUBLIC	s390_1F1D
PUBLIC	s390_1F1E
PUBLIC	s390_1F1F
PUBLIC	s390_1F20
PUBLIC	s390_1F21
PUBLIC	s390_1F22
PUBLIC	s390_1F23
PUBLIC	s390_1F24
PUBLIC	s390_1F25
PUBLIC	s390_1F26
PUBLIC	s390_1F27
PUBLIC	s390_1F28
PUBLIC	s390_1F29
PUBLIC	s390_1F2A
PUBLIC	s390_1F2B
PUBLIC	s390_1F2C
PUBLIC	s390_1F2D
PUBLIC	s390_1F2E
PUBLIC	s390_1F2F
PUBLIC	s390_1F30
PUBLIC	s390_1F31
PUBLIC	s390_1F32
PUBLIC	s390_1F33
PUBLIC	s390_1F34
PUBLIC	s390_1F35
PUBLIC	s390_1F36
PUBLIC	s390_1F37
PUBLIC	s390_1F38
PUBLIC	s390_1F39
PUBLIC	s390_1F3A
PUBLIC	s390_1F3B
PUBLIC	s390_1F3C
PUBLIC	s390_1F3D
PUBLIC	s390_1F3E
PUBLIC	s390_1F3F
PUBLIC	s390_1F40
PUBLIC	s390_1F41
PUBLIC	s390_1F42
PUBLIC	s390_1F43
PUBLIC	s390_1F44
PUBLIC	s390_1F45
PUBLIC	s390_1F46
PUBLIC	s390_1F47
PUBLIC	s390_1F48
PUBLIC	s390_1F49
PUBLIC	s390_1F4A
PUBLIC	s390_1F4B
PUBLIC	s390_1F4C
PUBLIC	s390_1F4D
PUBLIC	s390_1F4E
PUBLIC	s390_1F4F
PUBLIC	s390_1F50
PUBLIC	s390_1F51
PUBLIC	s390_1F52
PUBLIC	s390_1F53
PUBLIC	s390_1F54
PUBLIC	s390_1F55
PUBLIC	s390_1F56
PUBLIC	s390_1F57
PUBLIC	s390_1F58
PUBLIC	s390_1F59
PUBLIC	s390_1F5A
PUBLIC	s390_1F5B
PUBLIC	s390_1F5C
PUBLIC	s390_1F5D
PUBLIC	s390_1F5E
PUBLIC	s390_1F5F
PUBLIC	s390_1F60
PUBLIC	s390_1F61
PUBLIC	s390_1F62
PUBLIC	s390_1F63
PUBLIC	s390_1F64
PUBLIC	s390_1F65
PUBLIC	s390_1F66
PUBLIC	s390_1F67
PUBLIC	s390_1F68
PUBLIC	s390_1F69
PUBLIC	s390_1F6A
PUBLIC	s390_1F6B
PUBLIC	s390_1F6C
PUBLIC	s390_1F6D
PUBLIC	s390_1F6E
PUBLIC	s390_1F6F
PUBLIC	s390_1F70
PUBLIC	s390_1F71
PUBLIC	s390_1F72
PUBLIC	s390_1F73
PUBLIC	s390_1F74
PUBLIC	s390_1F75
PUBLIC	s390_1F76
PUBLIC	s390_1F77
PUBLIC	s390_1F78
PUBLIC	s390_1F79
PUBLIC	s390_1F7A
PUBLIC	s390_1F7B
PUBLIC	s390_1F7C
PUBLIC	s390_1F7D
PUBLIC	s390_1F7E
PUBLIC	s390_1F7F
PUBLIC	s390_1F80
PUBLIC	s390_1F81
PUBLIC	s390_1F82
PUBLIC	s390_1F83
PUBLIC	s390_1F84
PUBLIC	s390_1F85
PUBLIC	s390_1F86
PUBLIC	s390_1F87
PUBLIC	s390_1F88
PUBLIC	s390_1F89
PUBLIC	s390_1F8A
PUBLIC	s390_1F8B
PUBLIC	s390_1F8C
PUBLIC	s390_1F8D
PUBLIC	s390_1F8E
PUBLIC	s390_1F8F
PUBLIC	s390_1F90
PUBLIC	s390_1F91
PUBLIC	s390_1F92
PUBLIC	s390_1F93
PUBLIC	s390_1F94
PUBLIC	s390_1F95
PUBLIC	s390_1F96
PUBLIC	s390_1F97
PUBLIC	s390_1F98
PUBLIC	s390_1F99
PUBLIC	s390_1F9A
PUBLIC	s390_1F9B
PUBLIC	s390_1F9C
PUBLIC	s390_1F9D
PUBLIC	s390_1F9E
PUBLIC	s390_1F9F
PUBLIC	s390_1FA0
PUBLIC	s390_1FA1
PUBLIC	s390_1FA2
PUBLIC	s390_1FA3
PUBLIC	s390_1FA4
PUBLIC	s390_1FA5
PUBLIC	s390_1FA6
PUBLIC	s390_1FA7
PUBLIC	s390_1FA8
PUBLIC	s390_1FA9
PUBLIC	s390_1FAA
PUBLIC	s390_1FAB
PUBLIC	s390_1FAC
PUBLIC	s390_1FAD
PUBLIC	s390_1FAE
PUBLIC	s390_1FAF
PUBLIC	s390_1FB0
PUBLIC	s390_1FB1
PUBLIC	s390_1FB2
PUBLIC	s390_1FB3
PUBLIC	s390_1FB4
PUBLIC	s390_1FB5
PUBLIC	s390_1FB6
PUBLIC	s390_1FB7
PUBLIC	s390_1FB8
PUBLIC	s390_1FB9
PUBLIC	s390_1FBA
PUBLIC	s390_1FBB
PUBLIC	s390_1FBC
PUBLIC	s390_1FBD
PUBLIC	s390_1FBE
PUBLIC	s390_1FBF
PUBLIC	s390_1FC0
PUBLIC	s390_1FC1
PUBLIC	s390_1FC2
PUBLIC	s390_1FC3
PUBLIC	s390_1FC4
PUBLIC	s390_1FC5
PUBLIC	s390_1FC6
PUBLIC	s390_1FC7
PUBLIC	s390_1FC8
PUBLIC	s390_1FC9
PUBLIC	s390_1FCA
PUBLIC	s390_1FCB
PUBLIC	s390_1FCC
PUBLIC	s390_1FCD
PUBLIC	s390_1FCE
PUBLIC	s390_1FCF
PUBLIC	s390_1FD0
PUBLIC	s390_1FD1
PUBLIC	s390_1FD2
PUBLIC	s390_1FD3
PUBLIC	s390_1FD4
PUBLIC	s390_1FD5
PUBLIC	s390_1FD6
PUBLIC	s390_1FD7
PUBLIC	s390_1FD8
PUBLIC	s390_1FD9
PUBLIC	s390_1FDA
PUBLIC	s390_1FDB
PUBLIC	s390_1FDC
PUBLIC	s390_1FDD
PUBLIC	s390_1FDE
PUBLIC	s390_1FDF
PUBLIC	s390_1FE0
PUBLIC	s390_1FE1
PUBLIC	s390_1FE2
PUBLIC	s390_1FE3
PUBLIC	s390_1FE4
PUBLIC	s390_1FE5
PUBLIC	s390_1FE6
PUBLIC	s390_1FE7
PUBLIC	s390_1FE8
PUBLIC	s390_1FE9
PUBLIC	s390_1FEA
PUBLIC	s390_1FEB
PUBLIC	s390_1FEC
PUBLIC	s390_1FED
PUBLIC	s390_1FEE
PUBLIC	s390_1FEF
PUBLIC	s390_1FF0
PUBLIC	s390_1FF1
PUBLIC	s390_1FF2
PUBLIC	s390_1FF3
PUBLIC	s390_1FF4
PUBLIC	s390_1FF5
PUBLIC	s390_1FF6
PUBLIC	s390_1FF7
PUBLIC	s390_1FF8
PUBLIC	s390_1FF9
PUBLIC	s390_1FFA
PUBLIC	s390_1FFB
PUBLIC	s390_1FFC
PUBLIC	s390_1FFD
PUBLIC	s390_1FFE
PUBLIC	s390_1FFF
PUBLIC	s390__or_storage_key
PUBLIC	s390_or_4K_storage_key
PUBLIC	s390_or_storage_key
PUBLIC	s390_or_storage_key_by_ptr
PUBLIC	s390_maddr_l
PUBLIC	s390_vstore2_full
PUBLIC	s390_vstore4_full
PUBLIC	s390_vstore8_full
PUBLIC	s390_vfetch2_full
PUBLIC	s390_vfetch4_full
PUBLIC	s390_vstorec
PUBLIC	s390_vstoreb
PUBLIC	s390_vstore2
PUBLIC	s390_vstore4
PUBLIC	s390_vstore8
PUBLIC	s390_vfetchc
PUBLIC	s390_vfetchb
PUBLIC	s390_vfetch2
PUBLIC	s390_vfetch4
PUBLIC	s390_validate_operand
PUBLIC	z900_convert_utf16_to_utf32
PUBLIC	z900_convert_utf32_to_utf16
PUBLIC	z900_convert_utf32_to_utf8
PUBLIC	z900_convert_utf8_to_utf32
PUBLIC	z900_search_string_unicode
PUBLIC	z900_translate_and_test_reverse
PUBLIC	z900_translate_and_test_extended
PUBLIC	z900_translate_and_test_reverse_extended
PUBLIC	z900_set_access_register
PUBLIC	z900_store_access_multiple
PUBLIC	z900_store_clock_extended
PUBLIC	z900_translate_extended
PUBLIC	z900_test_under_mask_high
PUBLIC	z900_test_under_mask_low
PUBLIC	z900_perform_locked_operation
PUBLIC	z900_search_string
PUBLIC	z900_or
PUBLIC	z900_or_character
PUBLIC	z900_or_immediate
PUBLIC	z900_or_register
PUBLIC	z900_pack
PUBLIC	z900_set_program_mask
PUBLIC	z900_shift_left_double
PUBLIC	z900_shift_left_double_logical
PUBLIC	z900_shift_left_single
PUBLIC	z900_shift_left_single_logical
PUBLIC	z900_shift_right_double
PUBLIC	z900_shift_right_double_logical
PUBLIC	z900_shift_right_single
PUBLIC	z900_shift_right_single_logical
PUBLIC	z900_store_characters_under_mask
PUBLIC	z900_store_clock
PUBLIC	z900_store_halfword
PUBLIC	z900_store_multiple
PUBLIC	z900_subtract
PUBLIC	z900_subtract_halfword
PUBLIC	z900_subtract_logical
PUBLIC	z900_subtract_logical_register
PUBLIC	z900_subtract_register
PUBLIC	z900_supervisor_call
PUBLIC	z900_test_and_set
PUBLIC	z900_test_under_mask
PUBLIC	z900_translate
PUBLIC	z900_translate_and_test
PUBLIC	z900_unpack
PUBLIC	z900_update_tree
PUBLIC	z900_9180
PUBLIC	z900_9140
PUBLIC	z900_9120
PUBLIC	z900_9110
PUBLIC	z900_9108
PUBLIC	z900_9104
PUBLIC	z900_9102
PUBLIC	z900_9101
PUBLIC	z900_1F00
PUBLIC	z900_1F01
PUBLIC	z900_1F02
PUBLIC	z900_1F03
PUBLIC	z900_1F04
PUBLIC	z900_1F05
PUBLIC	z900_1F06
PUBLIC	z900_1F07
PUBLIC	z900_1F08
PUBLIC	z900_1F09
PUBLIC	z900_1F0A
PUBLIC	z900_1F0B
PUBLIC	z900_1F0C
PUBLIC	z900_1F0D
PUBLIC	z900_1F0E
PUBLIC	z900_1F0F
PUBLIC	z900_1F10
PUBLIC	z900_1F11
PUBLIC	z900_1F12
PUBLIC	z900_1F13
PUBLIC	z900_1F14
PUBLIC	z900_1F15
PUBLIC	z900_1F16
PUBLIC	z900_1F17
PUBLIC	z900_1F18
PUBLIC	z900_1F19
PUBLIC	z900_1F1A
PUBLIC	z900_1F1B
PUBLIC	z900_1F1C
PUBLIC	z900_1F1D
PUBLIC	z900_1F1E
PUBLIC	z900_1F1F
PUBLIC	z900_1F20
PUBLIC	z900_1F21
PUBLIC	z900_1F22
PUBLIC	z900_1F23
PUBLIC	z900_1F24
PUBLIC	z900_1F25
PUBLIC	z900_1F26
PUBLIC	z900_1F27
PUBLIC	z900_1F28
PUBLIC	z900_1F29
PUBLIC	z900_1F2A
PUBLIC	z900_1F2B
PUBLIC	z900_1F2C
PUBLIC	z900_1F2D
PUBLIC	z900_1F2E
PUBLIC	z900_1F2F
PUBLIC	z900_1F30
PUBLIC	z900_1F31
PUBLIC	z900_1F32
PUBLIC	z900_1F33
PUBLIC	z900_1F34
PUBLIC	z900_1F35
PUBLIC	z900_1F36
PUBLIC	z900_1F37
PUBLIC	z900_1F38
PUBLIC	z900_1F39
PUBLIC	z900_1F3A
PUBLIC	z900_1F3B
PUBLIC	z900_1F3C
PUBLIC	z900_1F3D
PUBLIC	z900_1F3E
PUBLIC	z900_1F3F
PUBLIC	z900_1F40
PUBLIC	z900_1F41
PUBLIC	z900_1F42
PUBLIC	z900_1F43
PUBLIC	z900_1F44
PUBLIC	z900_1F45
PUBLIC	z900_1F46
PUBLIC	z900_1F47
PUBLIC	z900_1F48
PUBLIC	z900_1F49
PUBLIC	z900_1F4A
PUBLIC	z900_1F4B
PUBLIC	z900_1F4C
PUBLIC	z900_1F4D
PUBLIC	z900_1F4E
PUBLIC	z900_1F4F
PUBLIC	z900_1F50
PUBLIC	z900_1F51
PUBLIC	z900_1F52
PUBLIC	z900_1F53
PUBLIC	z900_1F54
PUBLIC	z900_1F55
PUBLIC	z900_1F56
PUBLIC	z900_1F57
PUBLIC	z900_1F58
PUBLIC	z900_1F59
PUBLIC	z900_1F5A
PUBLIC	z900_1F5B
PUBLIC	z900_1F5C
PUBLIC	z900_1F5D
PUBLIC	z900_1F5E
PUBLIC	z900_1F5F
PUBLIC	z900_1F60
PUBLIC	z900_1F61
PUBLIC	z900_1F62
PUBLIC	z900_1F63
PUBLIC	z900_1F64
PUBLIC	z900_1F65
PUBLIC	z900_1F66
PUBLIC	z900_1F67
PUBLIC	z900_1F68
PUBLIC	z900_1F69
PUBLIC	z900_1F6A
PUBLIC	z900_1F6B
PUBLIC	z900_1F6C
PUBLIC	z900_1F6D
PUBLIC	z900_1F6E
PUBLIC	z900_1F6F
PUBLIC	z900_1F70
PUBLIC	z900_1F71
PUBLIC	z900_1F72
PUBLIC	z900_1F73
PUBLIC	z900_1F74
PUBLIC	z900_1F75
PUBLIC	z900_1F76
PUBLIC	z900_1F77
PUBLIC	z900_1F78
PUBLIC	z900_1F79
PUBLIC	z900_1F7A
PUBLIC	z900_1F7B
PUBLIC	z900_1F7C
PUBLIC	z900_1F7D
PUBLIC	z900_1F7E
PUBLIC	z900_1F7F
PUBLIC	z900_1F80
PUBLIC	z900_1F81
PUBLIC	z900_1F82
PUBLIC	z900_1F83
PUBLIC	z900_1F84
PUBLIC	z900_1F85
PUBLIC	z900_1F86
PUBLIC	z900_1F87
PUBLIC	z900_1F88
PUBLIC	z900_1F89
PUBLIC	z900_1F8A
PUBLIC	z900_1F8B
PUBLIC	z900_1F8C
PUBLIC	z900_1F8D
PUBLIC	z900_1F8E
PUBLIC	z900_1F8F
PUBLIC	z900_1F90
PUBLIC	z900_1F91
PUBLIC	z900_1F92
PUBLIC	z900_1F93
PUBLIC	z900_1F94
PUBLIC	z900_1F95
PUBLIC	z900_1F96
PUBLIC	z900_1F97
PUBLIC	z900_1F98
PUBLIC	z900_1F99
PUBLIC	z900_1F9A
PUBLIC	z900_1F9B
PUBLIC	z900_1F9C
PUBLIC	z900_1F9D
PUBLIC	z900_1F9E
PUBLIC	z900_1F9F
PUBLIC	z900_1FA0
PUBLIC	z900_1FA1
PUBLIC	z900_1FA2
PUBLIC	z900_1FA3
PUBLIC	z900_1FA4
PUBLIC	z900_1FA5
PUBLIC	z900_1FA6
PUBLIC	z900_1FA7
PUBLIC	z900_1FA8
PUBLIC	z900_1FA9
PUBLIC	z900_1FAA
PUBLIC	z900_1FAB
PUBLIC	z900_1FAC
PUBLIC	z900_1FAD
PUBLIC	z900_1FAE
PUBLIC	z900_1FAF
PUBLIC	z900_1FB0
PUBLIC	z900_1FB1
PUBLIC	z900_1FB2
PUBLIC	z900_1FB3
PUBLIC	z900_1FB4
PUBLIC	z900_1FB5
PUBLIC	z900_1FB6
PUBLIC	z900_1FB7
PUBLIC	z900_1FB8
PUBLIC	z900_1FB9
PUBLIC	z900_1FBA
PUBLIC	z900_1FBB
PUBLIC	z900_1FBC
PUBLIC	z900_1FBD
PUBLIC	z900_1FBE
PUBLIC	z900_1FBF
PUBLIC	z900_1FC0
PUBLIC	z900_1FC1
PUBLIC	z900_1FC2
PUBLIC	z900_1FC3
PUBLIC	z900_1FC4
PUBLIC	z900_1FC5
PUBLIC	z900_1FC6
PUBLIC	z900_1FC7
PUBLIC	z900_1FC8
PUBLIC	z900_1FC9
PUBLIC	z900_1FCA
PUBLIC	z900_1FCB
PUBLIC	z900_1FCC
PUBLIC	z900_1FCD
PUBLIC	z900_1FCE
PUBLIC	z900_1FCF
PUBLIC	z900_1FD0
PUBLIC	z900_1FD1
PUBLIC	z900_1FD2
PUBLIC	z900_1FD3
PUBLIC	z900_1FD4
PUBLIC	z900_1FD5
PUBLIC	z900_1FD6
PUBLIC	z900_1FD7
PUBLIC	z900_1FD8
PUBLIC	z900_1FD9
PUBLIC	z900_1FDA
PUBLIC	z900_1FDB
PUBLIC	z900_1FDC
PUBLIC	z900_1FDD
PUBLIC	z900_1FDE
PUBLIC	z900_1FDF
PUBLIC	z900_1FE0
PUBLIC	z900_1FE1
PUBLIC	z900_1FE2
PUBLIC	z900_1FE3
PUBLIC	z900_1FE4
PUBLIC	z900_1FE5
PUBLIC	z900_1FE6
PUBLIC	z900_1FE7
PUBLIC	z900_1FE8
PUBLIC	z900_1FE9
PUBLIC	z900_1FEA
PUBLIC	z900_1FEB
PUBLIC	z900_1FEC
PUBLIC	z900_1FED
PUBLIC	z900_1FEE
PUBLIC	z900_1FEF
PUBLIC	z900_1FF0
PUBLIC	z900_1FF1
PUBLIC	z900_1FF2
PUBLIC	z900_1FF3
PUBLIC	z900_1FF4
PUBLIC	z900_1FF5
PUBLIC	z900_1FF6
PUBLIC	z900_1FF7
PUBLIC	z900_1FF8
PUBLIC	z900_1FF9
PUBLIC	z900_1FFA
PUBLIC	z900_1FFB
PUBLIC	z900_1FFC
PUBLIC	z900_1FFD
PUBLIC	z900_1FFE
PUBLIC	z900_1FFF
PUBLIC	z900__or_storage_key
PUBLIC	z900_or_4K_storage_key
PUBLIC	z900_or_storage_key
PUBLIC	z900_or_storage_key_by_ptr
PUBLIC	z900_is_per3_event_suppressed
PUBLIC	z900_per3_zero
PUBLIC	z900_per3_zero_check
PUBLIC	z900_per3_zero_check2
PUBLIC	z900_per3_zero_lcheck
PUBLIC	z900_per3_zero_lcheck2
PUBLIC	z900_per3_zero_xcheck
PUBLIC	z900_per3_zero_xcheck2
PUBLIC	z900_maddr_l
PUBLIC	z900_vstore2_full
PUBLIC	z900_vstore4_full
PUBLIC	z900_vstore8_full
PUBLIC	z900_vfetch2_full
PUBLIC	z900_vfetch4_full
PUBLIC	z900_vfetch8_full
PUBLIC	z900_vstorec
PUBLIC	z900_vstoreb
PUBLIC	z900_vstore2
PUBLIC	z900_vstore4
PUBLIC	z900_vstore8
PUBLIC	z900_vfetchc
PUBLIC	z900_vfetchb
PUBLIC	z900_vfetch2
PUBLIC	z900_vfetch4
PUBLIC	z900_vfetch8
PUBLIC	z900_validate_operand
PUBLIC	z900_translate_and_test_xxx_extended
PUBLIC	??_C@_0CM@OMLMFJCF@C?3?2papa?2MyGit?2hyperion?9zvector?2@ ; `string'
PUBLIC	??_C@_0CM@JBMLKNGA@C?3?2papa?2MyGit?2hyperion?9zvector?2@ ; `string'
EXTRN	__report_rangecheckfailure:PROC
EXTRN	_byteswap_ushort:PROC
EXTRN	_byteswap_ulong:PROC
EXTRN	_byteswap_uint64:PROC
EXTRN	longjmp:PROC
EXTRN	__imp_hthread_obtain_lock:PROC
EXTRN	__imp_hthread_release_lock:PROC
EXTRN	__imp_hthread_signal_condition:PROC
EXTRN	__imp_hthread_wait_condition:PROC
EXTRN	__imp_ptt_pthread_trace:PROC
EXTRN	__imp_sched_yield:PROC
EXTRN	s370_fetch_int_timer:PROC
EXTRN	s370_store_int_timer:PROC
EXTRN	etod_clock:PROC
EXTRN	s370_store_psw:PROC
EXTRN	s370_load_psw:PROC
EXTRN	s390_load_psw:PROC
EXTRN	s390_store_psw:PROC
EXTRN	z900_load_psw:PROC
EXTRN	z900_store_psw:PROC
EXTRN	txf_maddr_l:PROC
EXTRN	z900_abort_transaction:PROC
EXTRN	ecpsvm_dosvc:PROC
EXTRN	s370_logical_to_main_l:PROC
EXTRN	s390_logical_to_main_l:PROC
EXTRN	z900_logical_to_main_l:PROC
EXTRN	s390_plo_cl:PROC
EXTRN	s390_plo_clg:PROC
EXTRN	s390_plo_cs:PROC
EXTRN	s390_plo_csg:PROC
EXTRN	s390_plo_dcs:PROC
EXTRN	s390_plo_dcsg:PROC
EXTRN	s390_plo_csst:PROC
EXTRN	s390_plo_csstg:PROC
EXTRN	s390_plo_csdst:PROC
EXTRN	s390_plo_csdstg:PROC
EXTRN	s390_plo_cstst:PROC
EXTRN	s390_plo_cststg:PROC
EXTRN	z900_plo_cl:PROC
EXTRN	z900_plo_clg:PROC
EXTRN	z900_plo_clgr:PROC
EXTRN	z900_plo_clx:PROC
EXTRN	z900_plo_cs:PROC
EXTRN	z900_plo_csg:PROC
EXTRN	z900_plo_csgr:PROC
EXTRN	z900_plo_csx:PROC
EXTRN	z900_plo_dcs:PROC
EXTRN	z900_plo_dcsg:PROC
EXTRN	z900_plo_dcsgr:PROC
EXTRN	z900_plo_dcsx:PROC
EXTRN	z900_plo_csst:PROC
EXTRN	z900_plo_csstg:PROC
EXTRN	z900_plo_csstgr:PROC
EXTRN	z900_plo_csstx:PROC
EXTRN	z900_plo_csdst:PROC
EXTRN	z900_plo_csdstg:PROC
EXTRN	z900_plo_csdstgr:PROC
EXTRN	z900_plo_csdstx:PROC
EXTRN	z900_plo_cstst:PROC
EXTRN	z900_plo_cststg:PROC
EXTRN	z900_plo_cststgr:PROC
EXTRN	z900_plo_cststx:PROC
EXTRN	__GSHandlerCheck:PROC
EXTRN	__security_check_cookie:PROC
EXTRN	__imp_pttclass:QWORD
EXTRN	__imp_sysblk:BYTE
EXTRN	__ImageBase:BYTE
EXTRN	__security_cookie:QWORD
pdata	SEGMENT
$pdata$s370_convert_utf16_to_utf32 DD imagerel $LN26
	DD	imagerel $LN26+1167
	DD	imagerel $unwind$s370_convert_utf16_to_utf32
$pdata$s370_convert_utf32_to_utf16 DD imagerel $LN21
	DD	imagerel $LN21+976
	DD	imagerel $unwind$s370_convert_utf32_to_utf16
$pdata$s370_convert_utf32_to_utf8 DD imagerel $LN30
	DD	imagerel $LN30+1348
	DD	imagerel $unwind$s370_convert_utf32_to_utf8
$pdata$s370_convert_utf8_to_utf32 DD imagerel $LN65
	DD	imagerel $LN65+2869
	DD	imagerel $unwind$s370_convert_utf8_to_utf32
$pdata$s370_search_string_unicode DD imagerel $LN14
	DD	imagerel $LN14+466
	DD	imagerel $unwind$s370_search_string_unicode
$pdata$s370_translate_and_test_reverse DD imagerel $LN24
	DD	imagerel $LN24+978
	DD	imagerel $unwind$s370_translate_and_test_reverse
$pdata$s370_translate_and_test_extended DD imagerel $LN3
	DD	imagerel $LN3+34
	DD	imagerel $unwind$s370_translate_and_test_extended
$pdata$s370_translate_and_test_reverse_extended DD imagerel $LN3
	DD	imagerel $LN3+34
	DD	imagerel $unwind$s370_translate_and_test_reverse_extended
$pdata$s370_translate_extended DD imagerel $LN15
	DD	imagerel $LN15+677
	DD	imagerel $unwind$s370_translate_extended
$pdata$s370_test_under_mask_high DD imagerel $LN16
	DD	imagerel $LN16+317
	DD	imagerel $unwind$s370_test_under_mask_high
$pdata$s370_test_under_mask_low DD imagerel $LN16
	DD	imagerel $LN16+317
	DD	imagerel $unwind$s370_test_under_mask_low
$pdata$s370_search_string DD imagerel $LN35
	DD	imagerel $LN35+998
	DD	imagerel $unwind$s370_search_string
$pdata$s370_or DD imagerel $LN26
	DD	imagerel $LN26+541
	DD	imagerel $unwind$s370_or
$pdata$s370_or_character DD imagerel $LN152
	DD	imagerel $LN152+3431
	DD	imagerel $unwind$s370_or_character
$pdata$s370_or_immediate DD imagerel $LN41
	DD	imagerel $LN41+516
	DD	imagerel $unwind$s370_or_immediate
$pdata$s370_or_register DD imagerel $LN17
	DD	imagerel $LN17+362
	DD	imagerel $unwind$s370_or_register
$pdata$s370_pack DD imagerel $LN17
	DD	imagerel $LN17+817
	DD	imagerel $unwind$s370_pack
$pdata$s370_set_program_mask DD imagerel $LN7
	DD	imagerel $LN7+174
	DD	imagerel $unwind$s370_set_program_mask
$pdata$s370_shift_left_double DD imagerel $LN33
	DD	imagerel $LN33+899
	DD	imagerel $unwind$s370_shift_left_double
$pdata$s370_shift_left_double_logical DD imagerel $LN18
	DD	imagerel $LN18+540
	DD	imagerel $unwind$s370_shift_left_double_logical
$pdata$s370_shift_left_single DD imagerel $LN30
	DD	imagerel $LN30+784
	DD	imagerel $unwind$s370_shift_left_single
$pdata$s370_shift_left_single_logical DD imagerel $LN19
	DD	imagerel $LN19+423
	DD	imagerel $unwind$s370_shift_left_single_logical
$pdata$s370_shift_right_double DD imagerel $LN22
	DD	imagerel $LN22+605
	DD	imagerel $unwind$s370_shift_right_double
$pdata$s370_shift_right_double_logical DD imagerel $LN18
	DD	imagerel $LN18+540
	DD	imagerel $unwind$s370_shift_right_double_logical
$pdata$s370_shift_right_single DD imagerel $LN25
	DD	imagerel $LN25+550
	DD	imagerel $unwind$s370_shift_right_single
$pdata$s370_shift_right_single_logical DD imagerel $LN19
	DD	imagerel $LN19+423
	DD	imagerel $unwind$s370_shift_right_single_logical
$pdata$s370_store_characters_under_mask DD imagerel $LN19
	DD	imagerel $LN19+608
	DD	imagerel $unwind$s370_store_characters_under_mask
$pdata$s370_store_clock DD imagerel $LN9
	DD	imagerel $LN9+405
	DD	imagerel $unwind$s370_store_clock
$pdata$s370_store_halfword DD imagerel $LN16
	DD	imagerel $LN16+321
	DD	imagerel $unwind$s370_store_halfword
$pdata$s370_store_multiple DD imagerel $LN67
	DD	imagerel $LN67+1501
	DD	imagerel $unwind$s370_store_multiple
$pdata$s370_subtract DD imagerel $LN25
	DD	imagerel $LN25+559
	DD	imagerel $unwind$s370_subtract
$pdata$s370_subtract_halfword DD imagerel $LN25
	DD	imagerel $LN25+560
	DD	imagerel $unwind$s370_subtract_halfword
$pdata$s370_subtract_logical DD imagerel $LN24
	DD	imagerel $LN24+508
	DD	imagerel $unwind$s370_subtract_logical
$pdata$s370_subtract_logical_register DD imagerel $LN21
	DD	imagerel $LN21+408
	DD	imagerel $unwind$s370_subtract_logical_register
$pdata$s370_subtract_register DD imagerel $LN16
	DD	imagerel $LN16+392
	DD	imagerel $unwind$s370_subtract_register
$pdata$s370_supervisor_call DD imagerel $LN31
	DD	imagerel $LN31+965
	DD	imagerel $unwind$s370_supervisor_call
$pdata$s370_test_and_set DD imagerel $LN48
	DD	imagerel $LN48+619
	DD	imagerel $unwind$s370_test_and_set
$pdata$s370_test_under_mask DD imagerel $LN12
	DD	imagerel $LN12+291
	DD	imagerel $unwind$s370_test_under_mask
$pdata$s370_translate DD imagerel $LN54
	DD	imagerel $LN54+1724
	DD	imagerel $unwind$s370_translate
$pdata$s370_translate_and_test DD imagerel $LN71
	DD	imagerel $LN71+1333
	DD	imagerel $unwind$s370_translate_and_test
$pdata$s370_unpack DD imagerel $LN17
	DD	imagerel $LN17+853
	DD	imagerel $unwind$s370_unpack
$pdata$s370_update_tree DD imagerel $LN35
	DD	imagerel $LN35+986
	DD	imagerel $unwind$s370_update_tree
$pdata$s370_9180 DD imagerel $LN10
	DD	imagerel $LN10+213
	DD	imagerel $unwind$s370_9180
$pdata$s370_9140 DD imagerel $LN10
	DD	imagerel $LN10+211
	DD	imagerel $unwind$s370_9140
$pdata$s370_9120 DD imagerel $LN10
	DD	imagerel $LN10+211
	DD	imagerel $unwind$s370_9120
$pdata$s370_9110 DD imagerel $LN10
	DD	imagerel $LN10+211
	DD	imagerel $unwind$s370_9110
$pdata$s370_9108 DD imagerel $LN10
	DD	imagerel $LN10+211
	DD	imagerel $unwind$s370_9108
$pdata$s370_9104 DD imagerel $LN10
	DD	imagerel $LN10+211
	DD	imagerel $unwind$s370_9104
$pdata$s370_9102 DD imagerel $LN10
	DD	imagerel $LN10+211
	DD	imagerel $unwind$s370_9102
$pdata$s370_9101 DD imagerel $LN10
	DD	imagerel $LN10+211
	DD	imagerel $unwind$s370_9101
$pdata$s370_1F00 DD imagerel $LN18
	DD	imagerel $LN18+284
	DD	imagerel $unwind$s370_1F00
$pdata$s370_1F01 DD imagerel $LN18
	DD	imagerel $LN18+284
	DD	imagerel $unwind$s370_1F01
$pdata$s370_1F02 DD imagerel $LN18
	DD	imagerel $LN18+284
	DD	imagerel $unwind$s370_1F02
$pdata$s370_1F03 DD imagerel $LN18
	DD	imagerel $LN18+284
	DD	imagerel $unwind$s370_1F03
$pdata$s370_1F04 DD imagerel $LN18
	DD	imagerel $LN18+284
	DD	imagerel $unwind$s370_1F04
$pdata$s370_1F05 DD imagerel $LN18
	DD	imagerel $LN18+284
	DD	imagerel $unwind$s370_1F05
$pdata$s370_1F06 DD imagerel $LN18
	DD	imagerel $LN18+284
	DD	imagerel $unwind$s370_1F06
$pdata$s370_1F07 DD imagerel $LN18
	DD	imagerel $LN18+284
	DD	imagerel $unwind$s370_1F07
$pdata$s370_1F08 DD imagerel $LN18
	DD	imagerel $LN18+284
	DD	imagerel $unwind$s370_1F08
$pdata$s370_1F09 DD imagerel $LN18
	DD	imagerel $LN18+284
	DD	imagerel $unwind$s370_1F09
$pdata$s370_1F0A DD imagerel $LN18
	DD	imagerel $LN18+284
	DD	imagerel $unwind$s370_1F0A
$pdata$s370_1F0B DD imagerel $LN18
	DD	imagerel $LN18+284
	DD	imagerel $unwind$s370_1F0B
$pdata$s370_1F0C DD imagerel $LN18
	DD	imagerel $LN18+284
	DD	imagerel $unwind$s370_1F0C
$pdata$s370_1F0D DD imagerel $LN18
	DD	imagerel $LN18+284
	DD	imagerel $unwind$s370_1F0D
$pdata$s370_1F0E DD imagerel $LN18
	DD	imagerel $LN18+284
	DD	imagerel $unwind$s370_1F0E
$pdata$s370_1F0F DD imagerel $LN18
	DD	imagerel $LN18+284
	DD	imagerel $unwind$s370_1F0F
$pdata$s370_1F10 DD imagerel $LN18
	DD	imagerel $LN18+284
	DD	imagerel $unwind$s370_1F10
$pdata$s370_1F11 DD imagerel $LN18
	DD	imagerel $LN18+284
	DD	imagerel $unwind$s370_1F11
$pdata$s370_1F12 DD imagerel $LN18
	DD	imagerel $LN18+284
	DD	imagerel $unwind$s370_1F12
$pdata$s370_1F13 DD imagerel $LN18
	DD	imagerel $LN18+284
	DD	imagerel $unwind$s370_1F13
$pdata$s370_1F14 DD imagerel $LN18
	DD	imagerel $LN18+284
	DD	imagerel $unwind$s370_1F14
$pdata$s370_1F15 DD imagerel $LN18
	DD	imagerel $LN18+284
	DD	imagerel $unwind$s370_1F15
$pdata$s370_1F16 DD imagerel $LN18
	DD	imagerel $LN18+284
	DD	imagerel $unwind$s370_1F16
$pdata$s370_1F17 DD imagerel $LN18
	DD	imagerel $LN18+284
	DD	imagerel $unwind$s370_1F17
$pdata$s370_1F18 DD imagerel $LN18
	DD	imagerel $LN18+284
	DD	imagerel $unwind$s370_1F18
$pdata$s370_1F19 DD imagerel $LN18
	DD	imagerel $LN18+284
	DD	imagerel $unwind$s370_1F19
$pdata$s370_1F1A DD imagerel $LN18
	DD	imagerel $LN18+284
	DD	imagerel $unwind$s370_1F1A
$pdata$s370_1F1B DD imagerel $LN18
	DD	imagerel $LN18+284
	DD	imagerel $unwind$s370_1F1B
$pdata$s370_1F1C DD imagerel $LN18
	DD	imagerel $LN18+284
	DD	imagerel $unwind$s370_1F1C
$pdata$s370_1F1D DD imagerel $LN18
	DD	imagerel $LN18+284
	DD	imagerel $unwind$s370_1F1D
$pdata$s370_1F1E DD imagerel $LN18
	DD	imagerel $LN18+284
	DD	imagerel $unwind$s370_1F1E
$pdata$s370_1F1F DD imagerel $LN18
	DD	imagerel $LN18+284
	DD	imagerel $unwind$s370_1F1F
$pdata$s370_1F20 DD imagerel $LN18
	DD	imagerel $LN18+284
	DD	imagerel $unwind$s370_1F20
$pdata$s370_1F21 DD imagerel $LN18
	DD	imagerel $LN18+284
	DD	imagerel $unwind$s370_1F21
$pdata$s370_1F22 DD imagerel $LN18
	DD	imagerel $LN18+284
	DD	imagerel $unwind$s370_1F22
$pdata$s370_1F23 DD imagerel $LN18
	DD	imagerel $LN18+284
	DD	imagerel $unwind$s370_1F23
$pdata$s370_1F24 DD imagerel $LN18
	DD	imagerel $LN18+284
	DD	imagerel $unwind$s370_1F24
$pdata$s370_1F25 DD imagerel $LN18
	DD	imagerel $LN18+284
	DD	imagerel $unwind$s370_1F25
$pdata$s370_1F26 DD imagerel $LN18
	DD	imagerel $LN18+284
	DD	imagerel $unwind$s370_1F26
$pdata$s370_1F27 DD imagerel $LN18
	DD	imagerel $LN18+284
	DD	imagerel $unwind$s370_1F27
$pdata$s370_1F28 DD imagerel $LN18
	DD	imagerel $LN18+284
	DD	imagerel $unwind$s370_1F28
$pdata$s370_1F29 DD imagerel $LN18
	DD	imagerel $LN18+284
	DD	imagerel $unwind$s370_1F29
$pdata$s370_1F2A DD imagerel $LN18
	DD	imagerel $LN18+284
	DD	imagerel $unwind$s370_1F2A
$pdata$s370_1F2B DD imagerel $LN18
	DD	imagerel $LN18+284
	DD	imagerel $unwind$s370_1F2B
$pdata$s370_1F2C DD imagerel $LN18
	DD	imagerel $LN18+284
	DD	imagerel $unwind$s370_1F2C
$pdata$s370_1F2D DD imagerel $LN18
	DD	imagerel $LN18+284
	DD	imagerel $unwind$s370_1F2D
$pdata$s370_1F2E DD imagerel $LN18
	DD	imagerel $LN18+284
	DD	imagerel $unwind$s370_1F2E
$pdata$s370_1F2F DD imagerel $LN18
	DD	imagerel $LN18+284
	DD	imagerel $unwind$s370_1F2F
$pdata$s370_1F30 DD imagerel $LN18
	DD	imagerel $LN18+284
	DD	imagerel $unwind$s370_1F30
$pdata$s370_1F31 DD imagerel $LN18
	DD	imagerel $LN18+284
	DD	imagerel $unwind$s370_1F31
$pdata$s370_1F32 DD imagerel $LN18
	DD	imagerel $LN18+284
	DD	imagerel $unwind$s370_1F32
$pdata$s370_1F33 DD imagerel $LN18
	DD	imagerel $LN18+284
	DD	imagerel $unwind$s370_1F33
$pdata$s370_1F34 DD imagerel $LN18
	DD	imagerel $LN18+284
	DD	imagerel $unwind$s370_1F34
$pdata$s370_1F35 DD imagerel $LN18
	DD	imagerel $LN18+284
	DD	imagerel $unwind$s370_1F35
$pdata$s370_1F36 DD imagerel $LN18
	DD	imagerel $LN18+284
	DD	imagerel $unwind$s370_1F36
$pdata$s370_1F37 DD imagerel $LN18
	DD	imagerel $LN18+284
	DD	imagerel $unwind$s370_1F37
$pdata$s370_1F38 DD imagerel $LN18
	DD	imagerel $LN18+284
	DD	imagerel $unwind$s370_1F38
$pdata$s370_1F39 DD imagerel $LN18
	DD	imagerel $LN18+284
	DD	imagerel $unwind$s370_1F39
$pdata$s370_1F3A DD imagerel $LN18
	DD	imagerel $LN18+284
	DD	imagerel $unwind$s370_1F3A
$pdata$s370_1F3B DD imagerel $LN18
	DD	imagerel $LN18+284
	DD	imagerel $unwind$s370_1F3B
$pdata$s370_1F3C DD imagerel $LN18
	DD	imagerel $LN18+284
	DD	imagerel $unwind$s370_1F3C
$pdata$s370_1F3D DD imagerel $LN18
	DD	imagerel $LN18+284
	DD	imagerel $unwind$s370_1F3D
$pdata$s370_1F3E DD imagerel $LN18
	DD	imagerel $LN18+284
	DD	imagerel $unwind$s370_1F3E
$pdata$s370_1F3F DD imagerel $LN18
	DD	imagerel $LN18+284
	DD	imagerel $unwind$s370_1F3F
$pdata$s370_1F40 DD imagerel $LN18
	DD	imagerel $LN18+284
	DD	imagerel $unwind$s370_1F40
$pdata$s370_1F41 DD imagerel $LN18
	DD	imagerel $LN18+284
	DD	imagerel $unwind$s370_1F41
$pdata$s370_1F42 DD imagerel $LN18
	DD	imagerel $LN18+284
	DD	imagerel $unwind$s370_1F42
$pdata$s370_1F43 DD imagerel $LN18
	DD	imagerel $LN18+284
	DD	imagerel $unwind$s370_1F43
$pdata$s370_1F44 DD imagerel $LN18
	DD	imagerel $LN18+284
	DD	imagerel $unwind$s370_1F44
$pdata$s370_1F45 DD imagerel $LN18
	DD	imagerel $LN18+284
	DD	imagerel $unwind$s370_1F45
$pdata$s370_1F46 DD imagerel $LN18
	DD	imagerel $LN18+284
	DD	imagerel $unwind$s370_1F46
$pdata$s370_1F47 DD imagerel $LN18
	DD	imagerel $LN18+284
	DD	imagerel $unwind$s370_1F47
$pdata$s370_1F48 DD imagerel $LN18
	DD	imagerel $LN18+284
	DD	imagerel $unwind$s370_1F48
$pdata$s370_1F49 DD imagerel $LN18
	DD	imagerel $LN18+284
	DD	imagerel $unwind$s370_1F49
$pdata$s370_1F4A DD imagerel $LN18
	DD	imagerel $LN18+284
	DD	imagerel $unwind$s370_1F4A
$pdata$s370_1F4B DD imagerel $LN18
	DD	imagerel $LN18+284
	DD	imagerel $unwind$s370_1F4B
$pdata$s370_1F4C DD imagerel $LN18
	DD	imagerel $LN18+284
	DD	imagerel $unwind$s370_1F4C
$pdata$s370_1F4D DD imagerel $LN18
	DD	imagerel $LN18+284
	DD	imagerel $unwind$s370_1F4D
$pdata$s370_1F4E DD imagerel $LN18
	DD	imagerel $LN18+284
	DD	imagerel $unwind$s370_1F4E
$pdata$s370_1F4F DD imagerel $LN18
	DD	imagerel $LN18+284
	DD	imagerel $unwind$s370_1F4F
$pdata$s370_1F50 DD imagerel $LN18
	DD	imagerel $LN18+284
	DD	imagerel $unwind$s370_1F50
$pdata$s370_1F51 DD imagerel $LN18
	DD	imagerel $LN18+284
	DD	imagerel $unwind$s370_1F51
$pdata$s370_1F52 DD imagerel $LN18
	DD	imagerel $LN18+284
	DD	imagerel $unwind$s370_1F52
$pdata$s370_1F53 DD imagerel $LN18
	DD	imagerel $LN18+284
	DD	imagerel $unwind$s370_1F53
$pdata$s370_1F54 DD imagerel $LN18
	DD	imagerel $LN18+284
	DD	imagerel $unwind$s370_1F54
$pdata$s370_1F55 DD imagerel $LN18
	DD	imagerel $LN18+284
	DD	imagerel $unwind$s370_1F55
$pdata$s370_1F56 DD imagerel $LN18
	DD	imagerel $LN18+284
	DD	imagerel $unwind$s370_1F56
$pdata$s370_1F57 DD imagerel $LN18
	DD	imagerel $LN18+284
	DD	imagerel $unwind$s370_1F57
$pdata$s370_1F58 DD imagerel $LN18
	DD	imagerel $LN18+284
	DD	imagerel $unwind$s370_1F58
$pdata$s370_1F59 DD imagerel $LN18
	DD	imagerel $LN18+284
	DD	imagerel $unwind$s370_1F59
$pdata$s370_1F5A DD imagerel $LN18
	DD	imagerel $LN18+284
	DD	imagerel $unwind$s370_1F5A
$pdata$s370_1F5B DD imagerel $LN18
	DD	imagerel $LN18+284
	DD	imagerel $unwind$s370_1F5B
$pdata$s370_1F5C DD imagerel $LN18
	DD	imagerel $LN18+284
	DD	imagerel $unwind$s370_1F5C
$pdata$s370_1F5D DD imagerel $LN18
	DD	imagerel $LN18+284
	DD	imagerel $unwind$s370_1F5D
$pdata$s370_1F5E DD imagerel $LN18
	DD	imagerel $LN18+284
	DD	imagerel $unwind$s370_1F5E
$pdata$s370_1F5F DD imagerel $LN18
	DD	imagerel $LN18+284
	DD	imagerel $unwind$s370_1F5F
$pdata$s370_1F60 DD imagerel $LN18
	DD	imagerel $LN18+284
	DD	imagerel $unwind$s370_1F60
$pdata$s370_1F61 DD imagerel $LN18
	DD	imagerel $LN18+284
	DD	imagerel $unwind$s370_1F61
$pdata$s370_1F62 DD imagerel $LN18
	DD	imagerel $LN18+284
	DD	imagerel $unwind$s370_1F62
$pdata$s370_1F63 DD imagerel $LN18
	DD	imagerel $LN18+284
	DD	imagerel $unwind$s370_1F63
$pdata$s370_1F64 DD imagerel $LN18
	DD	imagerel $LN18+284
	DD	imagerel $unwind$s370_1F64
$pdata$s370_1F65 DD imagerel $LN18
	DD	imagerel $LN18+284
	DD	imagerel $unwind$s370_1F65
$pdata$s370_1F66 DD imagerel $LN18
	DD	imagerel $LN18+284
	DD	imagerel $unwind$s370_1F66
$pdata$s370_1F67 DD imagerel $LN18
	DD	imagerel $LN18+284
	DD	imagerel $unwind$s370_1F67
$pdata$s370_1F68 DD imagerel $LN18
	DD	imagerel $LN18+284
	DD	imagerel $unwind$s370_1F68
$pdata$s370_1F69 DD imagerel $LN18
	DD	imagerel $LN18+284
	DD	imagerel $unwind$s370_1F69
$pdata$s370_1F6A DD imagerel $LN18
	DD	imagerel $LN18+284
	DD	imagerel $unwind$s370_1F6A
$pdata$s370_1F6B DD imagerel $LN18
	DD	imagerel $LN18+284
	DD	imagerel $unwind$s370_1F6B
$pdata$s370_1F6C DD imagerel $LN18
	DD	imagerel $LN18+284
	DD	imagerel $unwind$s370_1F6C
$pdata$s370_1F6D DD imagerel $LN18
	DD	imagerel $LN18+284
	DD	imagerel $unwind$s370_1F6D
$pdata$s370_1F6E DD imagerel $LN18
	DD	imagerel $LN18+284
	DD	imagerel $unwind$s370_1F6E
$pdata$s370_1F6F DD imagerel $LN18
	DD	imagerel $LN18+284
	DD	imagerel $unwind$s370_1F6F
$pdata$s370_1F70 DD imagerel $LN18
	DD	imagerel $LN18+284
	DD	imagerel $unwind$s370_1F70
$pdata$s370_1F71 DD imagerel $LN18
	DD	imagerel $LN18+284
	DD	imagerel $unwind$s370_1F71
$pdata$s370_1F72 DD imagerel $LN18
	DD	imagerel $LN18+284
	DD	imagerel $unwind$s370_1F72
$pdata$s370_1F73 DD imagerel $LN18
	DD	imagerel $LN18+284
	DD	imagerel $unwind$s370_1F73
$pdata$s370_1F74 DD imagerel $LN18
	DD	imagerel $LN18+284
	DD	imagerel $unwind$s370_1F74
$pdata$s370_1F75 DD imagerel $LN18
	DD	imagerel $LN18+284
	DD	imagerel $unwind$s370_1F75
$pdata$s370_1F76 DD imagerel $LN18
	DD	imagerel $LN18+284
	DD	imagerel $unwind$s370_1F76
$pdata$s370_1F77 DD imagerel $LN18
	DD	imagerel $LN18+284
	DD	imagerel $unwind$s370_1F77
$pdata$s370_1F78 DD imagerel $LN18
	DD	imagerel $LN18+284
	DD	imagerel $unwind$s370_1F78
$pdata$s370_1F79 DD imagerel $LN18
	DD	imagerel $LN18+284
	DD	imagerel $unwind$s370_1F79
$pdata$s370_1F7A DD imagerel $LN18
	DD	imagerel $LN18+284
	DD	imagerel $unwind$s370_1F7A
$pdata$s370_1F7B DD imagerel $LN18
	DD	imagerel $LN18+284
	DD	imagerel $unwind$s370_1F7B
$pdata$s370_1F7C DD imagerel $LN18
	DD	imagerel $LN18+284
	DD	imagerel $unwind$s370_1F7C
$pdata$s370_1F7D DD imagerel $LN18
	DD	imagerel $LN18+284
	DD	imagerel $unwind$s370_1F7D
$pdata$s370_1F7E DD imagerel $LN18
	DD	imagerel $LN18+284
	DD	imagerel $unwind$s370_1F7E
$pdata$s370_1F7F DD imagerel $LN18
	DD	imagerel $LN18+284
	DD	imagerel $unwind$s370_1F7F
$pdata$s370_1F80 DD imagerel $LN18
	DD	imagerel $LN18+284
	DD	imagerel $unwind$s370_1F80
$pdata$s370_1F81 DD imagerel $LN18
	DD	imagerel $LN18+284
	DD	imagerel $unwind$s370_1F81
$pdata$s370_1F82 DD imagerel $LN18
	DD	imagerel $LN18+284
	DD	imagerel $unwind$s370_1F82
$pdata$s370_1F83 DD imagerel $LN18
	DD	imagerel $LN18+284
	DD	imagerel $unwind$s370_1F83
$pdata$s370_1F84 DD imagerel $LN18
	DD	imagerel $LN18+284
	DD	imagerel $unwind$s370_1F84
$pdata$s370_1F85 DD imagerel $LN18
	DD	imagerel $LN18+284
	DD	imagerel $unwind$s370_1F85
$pdata$s370_1F86 DD imagerel $LN18
	DD	imagerel $LN18+284
	DD	imagerel $unwind$s370_1F86
$pdata$s370_1F87 DD imagerel $LN18
	DD	imagerel $LN18+284
	DD	imagerel $unwind$s370_1F87
$pdata$s370_1F88 DD imagerel $LN18
	DD	imagerel $LN18+284
	DD	imagerel $unwind$s370_1F88
$pdata$s370_1F89 DD imagerel $LN18
	DD	imagerel $LN18+284
	DD	imagerel $unwind$s370_1F89
$pdata$s370_1F8A DD imagerel $LN18
	DD	imagerel $LN18+284
	DD	imagerel $unwind$s370_1F8A
$pdata$s370_1F8B DD imagerel $LN18
	DD	imagerel $LN18+284
	DD	imagerel $unwind$s370_1F8B
$pdata$s370_1F8C DD imagerel $LN18
	DD	imagerel $LN18+284
	DD	imagerel $unwind$s370_1F8C
$pdata$s370_1F8D DD imagerel $LN18
	DD	imagerel $LN18+284
	DD	imagerel $unwind$s370_1F8D
$pdata$s370_1F8E DD imagerel $LN18
	DD	imagerel $LN18+284
	DD	imagerel $unwind$s370_1F8E
$pdata$s370_1F8F DD imagerel $LN18
	DD	imagerel $LN18+284
	DD	imagerel $unwind$s370_1F8F
$pdata$s370_1F90 DD imagerel $LN18
	DD	imagerel $LN18+282
	DD	imagerel $unwind$s370_1F90
$pdata$s370_1F91 DD imagerel $LN18
	DD	imagerel $LN18+282
	DD	imagerel $unwind$s370_1F91
$pdata$s370_1F92 DD imagerel $LN18
	DD	imagerel $LN18+282
	DD	imagerel $unwind$s370_1F92
$pdata$s370_1F93 DD imagerel $LN18
	DD	imagerel $LN18+282
	DD	imagerel $unwind$s370_1F93
$pdata$s370_1F94 DD imagerel $LN18
	DD	imagerel $LN18+282
	DD	imagerel $unwind$s370_1F94
$pdata$s370_1F95 DD imagerel $LN18
	DD	imagerel $LN18+282
	DD	imagerel $unwind$s370_1F95
$pdata$s370_1F96 DD imagerel $LN18
	DD	imagerel $LN18+282
	DD	imagerel $unwind$s370_1F96
$pdata$s370_1F97 DD imagerel $LN18
	DD	imagerel $LN18+282
	DD	imagerel $unwind$s370_1F97
$pdata$s370_1F98 DD imagerel $LN18
	DD	imagerel $LN18+282
	DD	imagerel $unwind$s370_1F98
$pdata$s370_1F99 DD imagerel $LN18
	DD	imagerel $LN18+282
	DD	imagerel $unwind$s370_1F99
$pdata$s370_1F9A DD imagerel $LN18
	DD	imagerel $LN18+282
	DD	imagerel $unwind$s370_1F9A
$pdata$s370_1F9B DD imagerel $LN18
	DD	imagerel $LN18+282
	DD	imagerel $unwind$s370_1F9B
$pdata$s370_1F9C DD imagerel $LN18
	DD	imagerel $LN18+282
	DD	imagerel $unwind$s370_1F9C
$pdata$s370_1F9D DD imagerel $LN18
	DD	imagerel $LN18+282
	DD	imagerel $unwind$s370_1F9D
$pdata$s370_1F9E DD imagerel $LN18
	DD	imagerel $LN18+282
	DD	imagerel $unwind$s370_1F9E
$pdata$s370_1F9F DD imagerel $LN18
	DD	imagerel $LN18+282
	DD	imagerel $unwind$s370_1F9F
$pdata$s370_1FA0 DD imagerel $LN18
	DD	imagerel $LN18+282
	DD	imagerel $unwind$s370_1FA0
$pdata$s370_1FA1 DD imagerel $LN18
	DD	imagerel $LN18+282
	DD	imagerel $unwind$s370_1FA1
$pdata$s370_1FA2 DD imagerel $LN18
	DD	imagerel $LN18+282
	DD	imagerel $unwind$s370_1FA2
$pdata$s370_1FA3 DD imagerel $LN18
	DD	imagerel $LN18+282
	DD	imagerel $unwind$s370_1FA3
$pdata$s370_1FA4 DD imagerel $LN18
	DD	imagerel $LN18+282
	DD	imagerel $unwind$s370_1FA4
$pdata$s370_1FA5 DD imagerel $LN18
	DD	imagerel $LN18+282
	DD	imagerel $unwind$s370_1FA5
$pdata$s370_1FA6 DD imagerel $LN18
	DD	imagerel $LN18+282
	DD	imagerel $unwind$s370_1FA6
$pdata$s370_1FA7 DD imagerel $LN18
	DD	imagerel $LN18+282
	DD	imagerel $unwind$s370_1FA7
$pdata$s370_1FA8 DD imagerel $LN18
	DD	imagerel $LN18+282
	DD	imagerel $unwind$s370_1FA8
$pdata$s370_1FA9 DD imagerel $LN18
	DD	imagerel $LN18+282
	DD	imagerel $unwind$s370_1FA9
$pdata$s370_1FAA DD imagerel $LN18
	DD	imagerel $LN18+282
	DD	imagerel $unwind$s370_1FAA
$pdata$s370_1FAB DD imagerel $LN18
	DD	imagerel $LN18+282
	DD	imagerel $unwind$s370_1FAB
$pdata$s370_1FAC DD imagerel $LN18
	DD	imagerel $LN18+282
	DD	imagerel $unwind$s370_1FAC
$pdata$s370_1FAD DD imagerel $LN18
	DD	imagerel $LN18+282
	DD	imagerel $unwind$s370_1FAD
$pdata$s370_1FAE DD imagerel $LN18
	DD	imagerel $LN18+282
	DD	imagerel $unwind$s370_1FAE
$pdata$s370_1FAF DD imagerel $LN18
	DD	imagerel $LN18+282
	DD	imagerel $unwind$s370_1FAF
$pdata$s370_1FB0 DD imagerel $LN18
	DD	imagerel $LN18+282
	DD	imagerel $unwind$s370_1FB0
$pdata$s370_1FB1 DD imagerel $LN18
	DD	imagerel $LN18+282
	DD	imagerel $unwind$s370_1FB1
$pdata$s370_1FB2 DD imagerel $LN18
	DD	imagerel $LN18+282
	DD	imagerel $unwind$s370_1FB2
$pdata$s370_1FB3 DD imagerel $LN18
	DD	imagerel $LN18+282
	DD	imagerel $unwind$s370_1FB3
$pdata$s370_1FB4 DD imagerel $LN18
	DD	imagerel $LN18+282
	DD	imagerel $unwind$s370_1FB4
$pdata$s370_1FB5 DD imagerel $LN18
	DD	imagerel $LN18+282
	DD	imagerel $unwind$s370_1FB5
$pdata$s370_1FB6 DD imagerel $LN18
	DD	imagerel $LN18+282
	DD	imagerel $unwind$s370_1FB6
$pdata$s370_1FB7 DD imagerel $LN18
	DD	imagerel $LN18+282
	DD	imagerel $unwind$s370_1FB7
$pdata$s370_1FB8 DD imagerel $LN18
	DD	imagerel $LN18+282
	DD	imagerel $unwind$s370_1FB8
$pdata$s370_1FB9 DD imagerel $LN18
	DD	imagerel $LN18+282
	DD	imagerel $unwind$s370_1FB9
$pdata$s370_1FBA DD imagerel $LN18
	DD	imagerel $LN18+282
	DD	imagerel $unwind$s370_1FBA
$pdata$s370_1FBB DD imagerel $LN18
	DD	imagerel $LN18+282
	DD	imagerel $unwind$s370_1FBB
$pdata$s370_1FBC DD imagerel $LN18
	DD	imagerel $LN18+282
	DD	imagerel $unwind$s370_1FBC
$pdata$s370_1FBD DD imagerel $LN18
	DD	imagerel $LN18+282
	DD	imagerel $unwind$s370_1FBD
$pdata$s370_1FBE DD imagerel $LN18
	DD	imagerel $LN18+282
	DD	imagerel $unwind$s370_1FBE
$pdata$s370_1FBF DD imagerel $LN18
	DD	imagerel $LN18+282
	DD	imagerel $unwind$s370_1FBF
$pdata$s370_1FC0 DD imagerel $LN18
	DD	imagerel $LN18+282
	DD	imagerel $unwind$s370_1FC0
$pdata$s370_1FC1 DD imagerel $LN18
	DD	imagerel $LN18+282
	DD	imagerel $unwind$s370_1FC1
$pdata$s370_1FC2 DD imagerel $LN18
	DD	imagerel $LN18+282
	DD	imagerel $unwind$s370_1FC2
$pdata$s370_1FC3 DD imagerel $LN18
	DD	imagerel $LN18+282
	DD	imagerel $unwind$s370_1FC3
$pdata$s370_1FC4 DD imagerel $LN18
	DD	imagerel $LN18+282
	DD	imagerel $unwind$s370_1FC4
$pdata$s370_1FC5 DD imagerel $LN18
	DD	imagerel $LN18+282
	DD	imagerel $unwind$s370_1FC5
$pdata$s370_1FC6 DD imagerel $LN18
	DD	imagerel $LN18+282
	DD	imagerel $unwind$s370_1FC6
$pdata$s370_1FC7 DD imagerel $LN18
	DD	imagerel $LN18+282
	DD	imagerel $unwind$s370_1FC7
$pdata$s370_1FC8 DD imagerel $LN18
	DD	imagerel $LN18+282
	DD	imagerel $unwind$s370_1FC8
$pdata$s370_1FC9 DD imagerel $LN18
	DD	imagerel $LN18+282
	DD	imagerel $unwind$s370_1FC9
$pdata$s370_1FCA DD imagerel $LN18
	DD	imagerel $LN18+282
	DD	imagerel $unwind$s370_1FCA
$pdata$s370_1FCB DD imagerel $LN18
	DD	imagerel $LN18+282
	DD	imagerel $unwind$s370_1FCB
$pdata$s370_1FCC DD imagerel $LN18
	DD	imagerel $LN18+282
	DD	imagerel $unwind$s370_1FCC
$pdata$s370_1FCD DD imagerel $LN18
	DD	imagerel $LN18+282
	DD	imagerel $unwind$s370_1FCD
$pdata$s370_1FCE DD imagerel $LN18
	DD	imagerel $LN18+282
	DD	imagerel $unwind$s370_1FCE
$pdata$s370_1FCF DD imagerel $LN18
	DD	imagerel $LN18+282
	DD	imagerel $unwind$s370_1FCF
$pdata$s370_1FD0 DD imagerel $LN18
	DD	imagerel $LN18+282
	DD	imagerel $unwind$s370_1FD0
$pdata$s370_1FD1 DD imagerel $LN18
	DD	imagerel $LN18+282
	DD	imagerel $unwind$s370_1FD1
$pdata$s370_1FD2 DD imagerel $LN18
	DD	imagerel $LN18+282
	DD	imagerel $unwind$s370_1FD2
$pdata$s370_1FD3 DD imagerel $LN18
	DD	imagerel $LN18+282
	DD	imagerel $unwind$s370_1FD3
$pdata$s370_1FD4 DD imagerel $LN18
	DD	imagerel $LN18+282
	DD	imagerel $unwind$s370_1FD4
$pdata$s370_1FD5 DD imagerel $LN18
	DD	imagerel $LN18+282
	DD	imagerel $unwind$s370_1FD5
$pdata$s370_1FD6 DD imagerel $LN18
	DD	imagerel $LN18+282
	DD	imagerel $unwind$s370_1FD6
$pdata$s370_1FD7 DD imagerel $LN18
	DD	imagerel $LN18+282
	DD	imagerel $unwind$s370_1FD7
$pdata$s370_1FD8 DD imagerel $LN18
	DD	imagerel $LN18+282
	DD	imagerel $unwind$s370_1FD8
$pdata$s370_1FD9 DD imagerel $LN18
	DD	imagerel $LN18+282
	DD	imagerel $unwind$s370_1FD9
$pdata$s370_1FDA DD imagerel $LN18
	DD	imagerel $LN18+282
	DD	imagerel $unwind$s370_1FDA
$pdata$s370_1FDB DD imagerel $LN18
	DD	imagerel $LN18+282
	DD	imagerel $unwind$s370_1FDB
$pdata$s370_1FDC DD imagerel $LN18
	DD	imagerel $LN18+282
	DD	imagerel $unwind$s370_1FDC
$pdata$s370_1FDD DD imagerel $LN18
	DD	imagerel $LN18+282
	DD	imagerel $unwind$s370_1FDD
$pdata$s370_1FDE DD imagerel $LN18
	DD	imagerel $LN18+282
	DD	imagerel $unwind$s370_1FDE
$pdata$s370_1FDF DD imagerel $LN18
	DD	imagerel $LN18+282
	DD	imagerel $unwind$s370_1FDF
$pdata$s370_1FE0 DD imagerel $LN18
	DD	imagerel $LN18+282
	DD	imagerel $unwind$s370_1FE0
$pdata$s370_1FE1 DD imagerel $LN18
	DD	imagerel $LN18+282
	DD	imagerel $unwind$s370_1FE1
$pdata$s370_1FE2 DD imagerel $LN18
	DD	imagerel $LN18+282
	DD	imagerel $unwind$s370_1FE2
$pdata$s370_1FE3 DD imagerel $LN18
	DD	imagerel $LN18+282
	DD	imagerel $unwind$s370_1FE3
$pdata$s370_1FE4 DD imagerel $LN18
	DD	imagerel $LN18+282
	DD	imagerel $unwind$s370_1FE4
$pdata$s370_1FE5 DD imagerel $LN18
	DD	imagerel $LN18+282
	DD	imagerel $unwind$s370_1FE5
$pdata$s370_1FE6 DD imagerel $LN18
	DD	imagerel $LN18+282
	DD	imagerel $unwind$s370_1FE6
$pdata$s370_1FE7 DD imagerel $LN18
	DD	imagerel $LN18+282
	DD	imagerel $unwind$s370_1FE7
$pdata$s370_1FE8 DD imagerel $LN18
	DD	imagerel $LN18+282
	DD	imagerel $unwind$s370_1FE8
$pdata$s370_1FE9 DD imagerel $LN18
	DD	imagerel $LN18+282
	DD	imagerel $unwind$s370_1FE9
$pdata$s370_1FEA DD imagerel $LN18
	DD	imagerel $LN18+282
	DD	imagerel $unwind$s370_1FEA
$pdata$s370_1FEB DD imagerel $LN18
	DD	imagerel $LN18+282
	DD	imagerel $unwind$s370_1FEB
$pdata$s370_1FEC DD imagerel $LN18
	DD	imagerel $LN18+282
	DD	imagerel $unwind$s370_1FEC
$pdata$s370_1FED DD imagerel $LN18
	DD	imagerel $LN18+282
	DD	imagerel $unwind$s370_1FED
$pdata$s370_1FEE DD imagerel $LN18
	DD	imagerel $LN18+282
	DD	imagerel $unwind$s370_1FEE
$pdata$s370_1FEF DD imagerel $LN18
	DD	imagerel $LN18+282
	DD	imagerel $unwind$s370_1FEF
$pdata$s370_1FF0 DD imagerel $LN18
	DD	imagerel $LN18+282
	DD	imagerel $unwind$s370_1FF0
$pdata$s370_1FF1 DD imagerel $LN18
	DD	imagerel $LN18+282
	DD	imagerel $unwind$s370_1FF1
$pdata$s370_1FF2 DD imagerel $LN18
	DD	imagerel $LN18+282
	DD	imagerel $unwind$s370_1FF2
$pdata$s370_1FF3 DD imagerel $LN18
	DD	imagerel $LN18+282
	DD	imagerel $unwind$s370_1FF3
$pdata$s370_1FF4 DD imagerel $LN18
	DD	imagerel $LN18+282
	DD	imagerel $unwind$s370_1FF4
$pdata$s370_1FF5 DD imagerel $LN18
	DD	imagerel $LN18+282
	DD	imagerel $unwind$s370_1FF5
$pdata$s370_1FF6 DD imagerel $LN18
	DD	imagerel $LN18+282
	DD	imagerel $unwind$s370_1FF6
$pdata$s370_1FF7 DD imagerel $LN18
	DD	imagerel $LN18+282
	DD	imagerel $unwind$s370_1FF7
$pdata$s370_1FF8 DD imagerel $LN18
	DD	imagerel $LN18+282
	DD	imagerel $unwind$s370_1FF8
$pdata$s370_1FF9 DD imagerel $LN18
	DD	imagerel $LN18+282
	DD	imagerel $unwind$s370_1FF9
$pdata$s370_1FFA DD imagerel $LN18
	DD	imagerel $LN18+282
	DD	imagerel $unwind$s370_1FFA
$pdata$s370_1FFB DD imagerel $LN18
	DD	imagerel $LN18+282
	DD	imagerel $unwind$s370_1FFB
$pdata$s370_1FFC DD imagerel $LN18
	DD	imagerel $LN18+282
	DD	imagerel $unwind$s370_1FFC
$pdata$s370_1FFD DD imagerel $LN18
	DD	imagerel $LN18+282
	DD	imagerel $unwind$s370_1FFD
$pdata$s370_1FFE DD imagerel $LN18
	DD	imagerel $LN18+282
	DD	imagerel $unwind$s370_1FFE
$pdata$s370_1FFF DD imagerel $LN18
	DD	imagerel $LN18+282
	DD	imagerel $unwind$s370_1FFF
pdata	ENDS
;	COMDAT pdata
pdata	SEGMENT
$pdata$cmpxchg4_x86 DD imagerel $LN5
	DD	imagerel $LN5+102
	DD	imagerel $unwind$cmpxchg4_x86
pdata	ENDS
;	COMDAT pdata
pdata	SEGMENT
$pdata$cmpxchg1_x86 DD imagerel $LN3
	DD	imagerel $LN3+300
	DD	imagerel $unwind$cmpxchg1_x86
pdata	ENDS
;	COMDAT pdata
pdata	SEGMENT
$pdata$fetch_hw_noswap DD imagerel $LN3
	DD	imagerel $LN3+30
	DD	imagerel $unwind$fetch_hw_noswap
pdata	ENDS
;	COMDAT pdata
pdata	SEGMENT
$pdata$fetch_fw_noswap DD imagerel $LN3
	DD	imagerel $LN3+27
	DD	imagerel $unwind$fetch_fw_noswap
pdata	ENDS
;	COMDAT pdata
pdata	SEGMENT
$pdata$fetch_dw_noswap DD imagerel $LN3
	DD	imagerel $LN3+30
	DD	imagerel $unwind$fetch_dw_noswap
pdata	ENDS
pdata	SEGMENT
$pdata$Interrupt_Lock_Obtained DD imagerel Interrupt_Lock_Obtained
	DD	imagerel Interrupt_Lock_Obtained+269
	DD	imagerel $unwind$Interrupt_Lock_Obtained
$pdata$Obtain_Interrupt_Lock DD imagerel Obtain_Interrupt_Lock
	DD	imagerel Obtain_Interrupt_Lock+88
	DD	imagerel $unwind$Obtain_Interrupt_Lock
$pdata$Release_Interrupt_Lock DD imagerel Release_Interrupt_Lock
	DD	imagerel Release_Interrupt_Lock+71
	DD	imagerel $unwind$Release_Interrupt_Lock
pdata	ENDS
;	COMDAT pdata
pdata	SEGMENT
$pdata$_get_storekey_ptr DD imagerel $LN5
	DD	imagerel $LN5+104
	DD	imagerel $unwind$_get_storekey_ptr
pdata	ENDS
;	COMDAT pdata
pdata	SEGMENT
$pdata$s370__or_storage_key DD imagerel $LN8
	DD	imagerel $LN8+170
	DD	imagerel $unwind$s370__or_storage_key
pdata	ENDS
;	COMDAT pdata
pdata	SEGMENT
$pdata$s370_or_2K_storage_key DD imagerel $LN3
	DD	imagerel $LN3+42
	DD	imagerel $unwind$s370_or_2K_storage_key
pdata	ENDS
;	COMDAT pdata
pdata	SEGMENT
$pdata$s370_or_storage_key DD imagerel $LN3
	DD	imagerel $LN3+33
	DD	imagerel $unwind$s370_or_storage_key
pdata	ENDS
;	COMDAT pdata
pdata	SEGMENT
$pdata$s370_or_storage_key_by_ptr DD imagerel $LN3
	DD	imagerel $LN3+67
	DD	imagerel $unwind$s370_or_storage_key_by_ptr
pdata	ENDS
;	COMDAT pdata
pdata	SEGMENT
$pdata$sub_logical DD imagerel $LN7
	DD	imagerel $LN7+110
	DD	imagerel $unwind$sub_logical
pdata	ENDS
;	COMDAT pdata
pdata	SEGMENT
$pdata$sub_signed DD imagerel $LN11
	DD	imagerel $LN11+186
	DD	imagerel $unwind$sub_signed
pdata	ENDS
;	COMDAT pdata
pdata	SEGMENT
$pdata$s370_per1_gra DD imagerel $LN7
	DD	imagerel $LN7+149
	DD	imagerel $unwind$s370_per1_gra
pdata	ENDS
;	COMDAT pdata
pdata	SEGMENT
$pdata$s370_maddr_l DD imagerel $LN14
	DD	imagerel $LN14+474
	DD	imagerel $unwind$s370_maddr_l
pdata	ENDS
;	COMDAT pdata
pdata	SEGMENT
$pdata$s370_vstore2_full DD imagerel $LN3
	DD	imagerel $LN3+204
	DD	imagerel $unwind$s370_vstore2_full
pdata	ENDS
;	COMDAT pdata
pdata	SEGMENT
$pdata$s370_vstore4_full DD imagerel $LN3
	DD	imagerel $LN3+313
	DD	imagerel $unwind$s370_vstore4_full
pdata	ENDS
;	COMDAT pdata
pdata	SEGMENT
$pdata$s370_vstore8_full DD imagerel $LN3
	DD	imagerel $LN3+356
	DD	imagerel $unwind$s370_vstore8_full
pdata	ENDS
;	COMDAT pdata
pdata	SEGMENT
$pdata$s370_vfetch2_full DD imagerel $LN3
	DD	imagerel $LN3+174
	DD	imagerel $unwind$s370_vfetch2_full
pdata	ENDS
;	COMDAT pdata
pdata	SEGMENT
$pdata$s370_vfetch4_full DD imagerel $LN3
	DD	imagerel $LN3+288
	DD	imagerel $unwind$s370_vfetch4_full
pdata	ENDS
;	COMDAT pdata
pdata	SEGMENT
$pdata$s370_vstorec DD imagerel $LN24
	DD	imagerel $LN24+597
	DD	imagerel $unwind$s370_vstorec
pdata	ENDS
;	COMDAT pdata
pdata	SEGMENT
$pdata$s370_vstoreb DD imagerel $LN18
	DD	imagerel $LN18+169
	DD	imagerel $unwind$s370_vstoreb
pdata	ENDS
;	COMDAT pdata
pdata	SEGMENT
$pdata$s370_vstore2 DD imagerel $LN24
	DD	imagerel $LN24+267
	DD	imagerel $unwind$s370_vstore2
pdata	ENDS
;	COMDAT pdata
pdata	SEGMENT
$pdata$s370_vstore4 DD imagerel $LN27
	DD	imagerel $LN27+289
	DD	imagerel $unwind$s370_vstore4
pdata	ENDS
;	COMDAT pdata
pdata	SEGMENT
$pdata$s370_vstore8 DD imagerel $LN24
	DD	imagerel $LN24+253
	DD	imagerel $unwind$s370_vstore8
pdata	ENDS
;	COMDAT pdata
pdata	SEGMENT
$pdata$s370_vfetchc DD imagerel $LN24
	DD	imagerel $LN24+528
	DD	imagerel $unwind$s370_vfetchc
pdata	ENDS
;	COMDAT pdata
pdata	SEGMENT
$pdata$s370_vfetchb DD imagerel $LN18
	DD	imagerel $LN18+160
	DD	imagerel $unwind$s370_vfetchb
pdata	ENDS
;	COMDAT pdata
pdata	SEGMENT
$pdata$s370_vfetch2 DD imagerel $LN26
	DD	imagerel $LN26+275
	DD	imagerel $unwind$s370_vfetch2
pdata	ENDS
;	COMDAT pdata
pdata	SEGMENT
$pdata$s370_vfetch4 DD imagerel $LN26
	DD	imagerel $LN26+275
	DD	imagerel $unwind$s370_vfetch4
pdata	ENDS
;	COMDAT pdata
pdata	SEGMENT
$pdata$s370_validate_operand DD imagerel $LN24
	DD	imagerel $LN24+271
	DD	imagerel $unwind$s370_validate_operand
pdata	ENDS
pdata	SEGMENT
$pdata$s370_translate_and_test_xxx_extended DD imagerel $LN63
	DD	imagerel $LN63+1705
	DD	imagerel $unwind$s370_translate_and_test_xxx_extended
$pdata$s390_set_access_register DD imagerel $LN15
	DD	imagerel $LN15+290
	DD	imagerel $unwind$s390_set_access_register
$pdata$s390_store_access_multiple DD imagerel $LN22
	DD	imagerel $LN22+713
	DD	imagerel $unwind$s390_store_access_multiple
$pdata$s390_store_clock_extended DD imagerel $LN9
	DD	imagerel $LN9+433
	DD	imagerel $unwind$s390_store_clock_extended
$pdata$s390_translate_extended DD imagerel $LN15
	DD	imagerel $LN15+712
	DD	imagerel $unwind$s390_translate_extended
$pdata$s390_test_under_mask_high DD imagerel $LN16
	DD	imagerel $LN16+317
	DD	imagerel $unwind$s390_test_under_mask_high
$pdata$s390_test_under_mask_low DD imagerel $LN16
	DD	imagerel $LN16+317
	DD	imagerel $unwind$s390_test_under_mask_low
$pdata$s390_perform_locked_operation DD imagerel $LN61
	DD	imagerel $LN61+2180
	DD	imagerel $unwind$s390_perform_locked_operation
$pdata$s390_search_string DD imagerel $LN35
	DD	imagerel $LN35+1054
	DD	imagerel $unwind$s390_search_string
$pdata$s390_or DD imagerel $LN18
	DD	imagerel $LN18+402
	DD	imagerel $unwind$s390_or
$pdata$s390_or_character DD imagerel $LN92
	DD	imagerel $LN92+3037
	DD	imagerel $unwind$s390_or_character
$pdata$s390_or_immediate DD imagerel $LN11
	DD	imagerel $LN11+336
	DD	imagerel $unwind$s390_or_immediate
$pdata$s390_or_register DD imagerel $LN9
	DD	imagerel $LN9+210
	DD	imagerel $unwind$s390_or_register
$pdata$s390_pack DD imagerel $LN17
	DD	imagerel $LN17+867
	DD	imagerel $unwind$s390_pack
$pdata$s390_set_program_mask DD imagerel $LN7
	DD	imagerel $LN7+174
	DD	imagerel $unwind$s390_set_program_mask
$pdata$s390_shift_left_double DD imagerel $LN25
	DD	imagerel $LN25+731
	DD	imagerel $unwind$s390_shift_left_double
$pdata$s390_shift_left_double_logical DD imagerel $LN10
	DD	imagerel $LN10+384
	DD	imagerel $unwind$s390_shift_left_double_logical
$pdata$s390_shift_left_single DD imagerel $LN22
	DD	imagerel $LN22+642
	DD	imagerel $unwind$s390_shift_left_single
$pdata$s390_shift_left_single_logical DD imagerel $LN11
	DD	imagerel $LN11+284
	DD	imagerel $unwind$s390_shift_left_single_logical
$pdata$s390_shift_right_double DD imagerel $LN14
	DD	imagerel $LN14+449
	DD	imagerel $unwind$s390_shift_right_double
$pdata$s390_shift_right_double_logical DD imagerel $LN10
	DD	imagerel $LN10+384
	DD	imagerel $unwind$s390_shift_right_double_logical
$pdata$s390_shift_right_single DD imagerel $LN17
	DD	imagerel $LN17+411
	DD	imagerel $unwind$s390_shift_right_single
$pdata$s390_shift_right_single_logical DD imagerel $LN11
	DD	imagerel $LN11+284
	DD	imagerel $unwind$s390_shift_right_single_logical
$pdata$s390_store_characters_under_mask DD imagerel $LN19
	DD	imagerel $LN19+618
	DD	imagerel $unwind$s390_store_characters_under_mask
$pdata$s390_store_clock DD imagerel $LN9
	DD	imagerel $LN9+418
	DD	imagerel $unwind$s390_store_clock
$pdata$s390_store_halfword DD imagerel $LN16
	DD	imagerel $LN16+331
	DD	imagerel $unwind$s390_store_halfword
$pdata$s390_store_multiple DD imagerel $LN52
	DD	imagerel $LN52+1425
	DD	imagerel $unwind$s390_store_multiple
$pdata$s390_subtract DD imagerel $LN17
	DD	imagerel $LN17+420
	DD	imagerel $unwind$s390_subtract
$pdata$s390_subtract_halfword DD imagerel $LN17
	DD	imagerel $LN17+421
	DD	imagerel $unwind$s390_subtract_halfword
$pdata$s390_subtract_logical DD imagerel $LN16
	DD	imagerel $LN16+369
	DD	imagerel $unwind$s390_subtract_logical
$pdata$s390_subtract_logical_register DD imagerel $LN13
	DD	imagerel $LN13+259
	DD	imagerel $unwind$s390_subtract_logical_register
$pdata$s390_subtract_register DD imagerel $LN8
	DD	imagerel $LN8+243
	DD	imagerel $unwind$s390_subtract_register
$pdata$s390_supervisor_call DD imagerel $LN31
	DD	imagerel $LN31+1115
	DD	imagerel $unwind$s390_supervisor_call
$pdata$s390_test_and_set DD imagerel $LN18
	DD	imagerel $LN18+467
	DD	imagerel $unwind$s390_test_and_set
$pdata$s390_test_under_mask DD imagerel $LN12
	DD	imagerel $LN12+301
	DD	imagerel $unwind$s390_test_under_mask
$pdata$s390_translate DD imagerel $LN54
	DD	imagerel $LN54+1778
	DD	imagerel $unwind$s390_translate
$pdata$s390_translate_and_test DD imagerel $LN62
	DD	imagerel $LN62+1226
	DD	imagerel $unwind$s390_translate_and_test
$pdata$s390_unpack DD imagerel $LN17
	DD	imagerel $LN17+918
	DD	imagerel $unwind$s390_unpack
$pdata$s390_update_tree DD imagerel $LN19
	DD	imagerel $LN19+701
	DD	imagerel $unwind$s390_update_tree
$pdata$s390_9180 DD imagerel $LN10
	DD	imagerel $LN10+223
	DD	imagerel $unwind$s390_9180
$pdata$s390_9140 DD imagerel $LN10
	DD	imagerel $LN10+221
	DD	imagerel $unwind$s390_9140
$pdata$s390_9120 DD imagerel $LN10
	DD	imagerel $LN10+221
	DD	imagerel $unwind$s390_9120
$pdata$s390_9110 DD imagerel $LN10
	DD	imagerel $LN10+221
	DD	imagerel $unwind$s390_9110
$pdata$s390_9108 DD imagerel $LN10
	DD	imagerel $LN10+221
	DD	imagerel $unwind$s390_9108
$pdata$s390_9104 DD imagerel $LN10
	DD	imagerel $LN10+221
	DD	imagerel $unwind$s390_9104
$pdata$s390_9102 DD imagerel $LN10
	DD	imagerel $LN10+221
	DD	imagerel $unwind$s390_9102
$pdata$s390_9101 DD imagerel $LN10
	DD	imagerel $LN10+221
	DD	imagerel $unwind$s390_9101
$pdata$s390_1F00 DD imagerel $LN10
	DD	imagerel $LN10+163
	DD	imagerel $unwind$s390_1F00
$pdata$s390_1F01 DD imagerel $LN10
	DD	imagerel $LN10+163
	DD	imagerel $unwind$s390_1F01
$pdata$s390_1F02 DD imagerel $LN10
	DD	imagerel $LN10+163
	DD	imagerel $unwind$s390_1F02
$pdata$s390_1F03 DD imagerel $LN10
	DD	imagerel $LN10+163
	DD	imagerel $unwind$s390_1F03
$pdata$s390_1F04 DD imagerel $LN10
	DD	imagerel $LN10+163
	DD	imagerel $unwind$s390_1F04
$pdata$s390_1F05 DD imagerel $LN10
	DD	imagerel $LN10+163
	DD	imagerel $unwind$s390_1F05
$pdata$s390_1F06 DD imagerel $LN10
	DD	imagerel $LN10+163
	DD	imagerel $unwind$s390_1F06
$pdata$s390_1F07 DD imagerel $LN10
	DD	imagerel $LN10+163
	DD	imagerel $unwind$s390_1F07
$pdata$s390_1F08 DD imagerel $LN10
	DD	imagerel $LN10+163
	DD	imagerel $unwind$s390_1F08
$pdata$s390_1F09 DD imagerel $LN10
	DD	imagerel $LN10+163
	DD	imagerel $unwind$s390_1F09
$pdata$s390_1F0A DD imagerel $LN10
	DD	imagerel $LN10+163
	DD	imagerel $unwind$s390_1F0A
$pdata$s390_1F0B DD imagerel $LN10
	DD	imagerel $LN10+163
	DD	imagerel $unwind$s390_1F0B
$pdata$s390_1F0C DD imagerel $LN10
	DD	imagerel $LN10+163
	DD	imagerel $unwind$s390_1F0C
$pdata$s390_1F0D DD imagerel $LN10
	DD	imagerel $LN10+163
	DD	imagerel $unwind$s390_1F0D
$pdata$s390_1F0E DD imagerel $LN10
	DD	imagerel $LN10+163
	DD	imagerel $unwind$s390_1F0E
$pdata$s390_1F0F DD imagerel $LN10
	DD	imagerel $LN10+163
	DD	imagerel $unwind$s390_1F0F
$pdata$s390_1F10 DD imagerel $LN10
	DD	imagerel $LN10+163
	DD	imagerel $unwind$s390_1F10
$pdata$s390_1F11 DD imagerel $LN10
	DD	imagerel $LN10+163
	DD	imagerel $unwind$s390_1F11
$pdata$s390_1F12 DD imagerel $LN10
	DD	imagerel $LN10+163
	DD	imagerel $unwind$s390_1F12
$pdata$s390_1F13 DD imagerel $LN10
	DD	imagerel $LN10+163
	DD	imagerel $unwind$s390_1F13
$pdata$s390_1F14 DD imagerel $LN10
	DD	imagerel $LN10+163
	DD	imagerel $unwind$s390_1F14
$pdata$s390_1F15 DD imagerel $LN10
	DD	imagerel $LN10+163
	DD	imagerel $unwind$s390_1F15
$pdata$s390_1F16 DD imagerel $LN10
	DD	imagerel $LN10+163
	DD	imagerel $unwind$s390_1F16
$pdata$s390_1F17 DD imagerel $LN10
	DD	imagerel $LN10+163
	DD	imagerel $unwind$s390_1F17
$pdata$s390_1F18 DD imagerel $LN10
	DD	imagerel $LN10+163
	DD	imagerel $unwind$s390_1F18
$pdata$s390_1F19 DD imagerel $LN10
	DD	imagerel $LN10+163
	DD	imagerel $unwind$s390_1F19
$pdata$s390_1F1A DD imagerel $LN10
	DD	imagerel $LN10+163
	DD	imagerel $unwind$s390_1F1A
$pdata$s390_1F1B DD imagerel $LN10
	DD	imagerel $LN10+163
	DD	imagerel $unwind$s390_1F1B
$pdata$s390_1F1C DD imagerel $LN10
	DD	imagerel $LN10+163
	DD	imagerel $unwind$s390_1F1C
$pdata$s390_1F1D DD imagerel $LN10
	DD	imagerel $LN10+163
	DD	imagerel $unwind$s390_1F1D
$pdata$s390_1F1E DD imagerel $LN10
	DD	imagerel $LN10+163
	DD	imagerel $unwind$s390_1F1E
$pdata$s390_1F1F DD imagerel $LN10
	DD	imagerel $LN10+163
	DD	imagerel $unwind$s390_1F1F
$pdata$s390_1F20 DD imagerel $LN10
	DD	imagerel $LN10+163
	DD	imagerel $unwind$s390_1F20
$pdata$s390_1F21 DD imagerel $LN10
	DD	imagerel $LN10+163
	DD	imagerel $unwind$s390_1F21
$pdata$s390_1F22 DD imagerel $LN10
	DD	imagerel $LN10+163
	DD	imagerel $unwind$s390_1F22
$pdata$s390_1F23 DD imagerel $LN10
	DD	imagerel $LN10+163
	DD	imagerel $unwind$s390_1F23
$pdata$s390_1F24 DD imagerel $LN10
	DD	imagerel $LN10+163
	DD	imagerel $unwind$s390_1F24
$pdata$s390_1F25 DD imagerel $LN10
	DD	imagerel $LN10+163
	DD	imagerel $unwind$s390_1F25
$pdata$s390_1F26 DD imagerel $LN10
	DD	imagerel $LN10+163
	DD	imagerel $unwind$s390_1F26
$pdata$s390_1F27 DD imagerel $LN10
	DD	imagerel $LN10+163
	DD	imagerel $unwind$s390_1F27
$pdata$s390_1F28 DD imagerel $LN10
	DD	imagerel $LN10+163
	DD	imagerel $unwind$s390_1F28
$pdata$s390_1F29 DD imagerel $LN10
	DD	imagerel $LN10+163
	DD	imagerel $unwind$s390_1F29
$pdata$s390_1F2A DD imagerel $LN10
	DD	imagerel $LN10+163
	DD	imagerel $unwind$s390_1F2A
$pdata$s390_1F2B DD imagerel $LN10
	DD	imagerel $LN10+163
	DD	imagerel $unwind$s390_1F2B
$pdata$s390_1F2C DD imagerel $LN10
	DD	imagerel $LN10+163
	DD	imagerel $unwind$s390_1F2C
$pdata$s390_1F2D DD imagerel $LN10
	DD	imagerel $LN10+163
	DD	imagerel $unwind$s390_1F2D
$pdata$s390_1F2E DD imagerel $LN10
	DD	imagerel $LN10+163
	DD	imagerel $unwind$s390_1F2E
$pdata$s390_1F2F DD imagerel $LN10
	DD	imagerel $LN10+163
	DD	imagerel $unwind$s390_1F2F
$pdata$s390_1F30 DD imagerel $LN10
	DD	imagerel $LN10+163
	DD	imagerel $unwind$s390_1F30
$pdata$s390_1F31 DD imagerel $LN10
	DD	imagerel $LN10+163
	DD	imagerel $unwind$s390_1F31
$pdata$s390_1F32 DD imagerel $LN10
	DD	imagerel $LN10+163
	DD	imagerel $unwind$s390_1F32
$pdata$s390_1F33 DD imagerel $LN10
	DD	imagerel $LN10+163
	DD	imagerel $unwind$s390_1F33
$pdata$s390_1F34 DD imagerel $LN10
	DD	imagerel $LN10+163
	DD	imagerel $unwind$s390_1F34
$pdata$s390_1F35 DD imagerel $LN10
	DD	imagerel $LN10+163
	DD	imagerel $unwind$s390_1F35
$pdata$s390_1F36 DD imagerel $LN10
	DD	imagerel $LN10+163
	DD	imagerel $unwind$s390_1F36
$pdata$s390_1F37 DD imagerel $LN10
	DD	imagerel $LN10+163
	DD	imagerel $unwind$s390_1F37
$pdata$s390_1F38 DD imagerel $LN10
	DD	imagerel $LN10+163
	DD	imagerel $unwind$s390_1F38
$pdata$s390_1F39 DD imagerel $LN10
	DD	imagerel $LN10+163
	DD	imagerel $unwind$s390_1F39
$pdata$s390_1F3A DD imagerel $LN10
	DD	imagerel $LN10+163
	DD	imagerel $unwind$s390_1F3A
$pdata$s390_1F3B DD imagerel $LN10
	DD	imagerel $LN10+163
	DD	imagerel $unwind$s390_1F3B
$pdata$s390_1F3C DD imagerel $LN10
	DD	imagerel $LN10+163
	DD	imagerel $unwind$s390_1F3C
$pdata$s390_1F3D DD imagerel $LN10
	DD	imagerel $LN10+163
	DD	imagerel $unwind$s390_1F3D
$pdata$s390_1F3E DD imagerel $LN10
	DD	imagerel $LN10+163
	DD	imagerel $unwind$s390_1F3E
$pdata$s390_1F3F DD imagerel $LN10
	DD	imagerel $LN10+163
	DD	imagerel $unwind$s390_1F3F
$pdata$s390_1F40 DD imagerel $LN10
	DD	imagerel $LN10+163
	DD	imagerel $unwind$s390_1F40
$pdata$s390_1F41 DD imagerel $LN10
	DD	imagerel $LN10+163
	DD	imagerel $unwind$s390_1F41
$pdata$s390_1F42 DD imagerel $LN10
	DD	imagerel $LN10+163
	DD	imagerel $unwind$s390_1F42
$pdata$s390_1F43 DD imagerel $LN10
	DD	imagerel $LN10+163
	DD	imagerel $unwind$s390_1F43
$pdata$s390_1F44 DD imagerel $LN10
	DD	imagerel $LN10+163
	DD	imagerel $unwind$s390_1F44
$pdata$s390_1F45 DD imagerel $LN10
	DD	imagerel $LN10+163
	DD	imagerel $unwind$s390_1F45
$pdata$s390_1F46 DD imagerel $LN10
	DD	imagerel $LN10+163
	DD	imagerel $unwind$s390_1F46
$pdata$s390_1F47 DD imagerel $LN10
	DD	imagerel $LN10+163
	DD	imagerel $unwind$s390_1F47
$pdata$s390_1F48 DD imagerel $LN10
	DD	imagerel $LN10+163
	DD	imagerel $unwind$s390_1F48
$pdata$s390_1F49 DD imagerel $LN10
	DD	imagerel $LN10+163
	DD	imagerel $unwind$s390_1F49
$pdata$s390_1F4A DD imagerel $LN10
	DD	imagerel $LN10+163
	DD	imagerel $unwind$s390_1F4A
$pdata$s390_1F4B DD imagerel $LN10
	DD	imagerel $LN10+163
	DD	imagerel $unwind$s390_1F4B
$pdata$s390_1F4C DD imagerel $LN10
	DD	imagerel $LN10+163
	DD	imagerel $unwind$s390_1F4C
$pdata$s390_1F4D DD imagerel $LN10
	DD	imagerel $LN10+163
	DD	imagerel $unwind$s390_1F4D
$pdata$s390_1F4E DD imagerel $LN10
	DD	imagerel $LN10+163
	DD	imagerel $unwind$s390_1F4E
$pdata$s390_1F4F DD imagerel $LN10
	DD	imagerel $LN10+163
	DD	imagerel $unwind$s390_1F4F
$pdata$s390_1F50 DD imagerel $LN10
	DD	imagerel $LN10+163
	DD	imagerel $unwind$s390_1F50
$pdata$s390_1F51 DD imagerel $LN10
	DD	imagerel $LN10+163
	DD	imagerel $unwind$s390_1F51
$pdata$s390_1F52 DD imagerel $LN10
	DD	imagerel $LN10+163
	DD	imagerel $unwind$s390_1F52
$pdata$s390_1F53 DD imagerel $LN10
	DD	imagerel $LN10+163
	DD	imagerel $unwind$s390_1F53
$pdata$s390_1F54 DD imagerel $LN10
	DD	imagerel $LN10+163
	DD	imagerel $unwind$s390_1F54
$pdata$s390_1F55 DD imagerel $LN10
	DD	imagerel $LN10+163
	DD	imagerel $unwind$s390_1F55
$pdata$s390_1F56 DD imagerel $LN10
	DD	imagerel $LN10+163
	DD	imagerel $unwind$s390_1F56
$pdata$s390_1F57 DD imagerel $LN10
	DD	imagerel $LN10+163
	DD	imagerel $unwind$s390_1F57
$pdata$s390_1F58 DD imagerel $LN10
	DD	imagerel $LN10+163
	DD	imagerel $unwind$s390_1F58
$pdata$s390_1F59 DD imagerel $LN10
	DD	imagerel $LN10+163
	DD	imagerel $unwind$s390_1F59
$pdata$s390_1F5A DD imagerel $LN10
	DD	imagerel $LN10+163
	DD	imagerel $unwind$s390_1F5A
$pdata$s390_1F5B DD imagerel $LN10
	DD	imagerel $LN10+163
	DD	imagerel $unwind$s390_1F5B
$pdata$s390_1F5C DD imagerel $LN10
	DD	imagerel $LN10+163
	DD	imagerel $unwind$s390_1F5C
$pdata$s390_1F5D DD imagerel $LN10
	DD	imagerel $LN10+163
	DD	imagerel $unwind$s390_1F5D
$pdata$s390_1F5E DD imagerel $LN10
	DD	imagerel $LN10+163
	DD	imagerel $unwind$s390_1F5E
$pdata$s390_1F5F DD imagerel $LN10
	DD	imagerel $LN10+163
	DD	imagerel $unwind$s390_1F5F
$pdata$s390_1F60 DD imagerel $LN10
	DD	imagerel $LN10+163
	DD	imagerel $unwind$s390_1F60
$pdata$s390_1F61 DD imagerel $LN10
	DD	imagerel $LN10+163
	DD	imagerel $unwind$s390_1F61
$pdata$s390_1F62 DD imagerel $LN10
	DD	imagerel $LN10+163
	DD	imagerel $unwind$s390_1F62
$pdata$s390_1F63 DD imagerel $LN10
	DD	imagerel $LN10+163
	DD	imagerel $unwind$s390_1F63
$pdata$s390_1F64 DD imagerel $LN10
	DD	imagerel $LN10+163
	DD	imagerel $unwind$s390_1F64
$pdata$s390_1F65 DD imagerel $LN10
	DD	imagerel $LN10+163
	DD	imagerel $unwind$s390_1F65
$pdata$s390_1F66 DD imagerel $LN10
	DD	imagerel $LN10+163
	DD	imagerel $unwind$s390_1F66
$pdata$s390_1F67 DD imagerel $LN10
	DD	imagerel $LN10+163
	DD	imagerel $unwind$s390_1F67
$pdata$s390_1F68 DD imagerel $LN10
	DD	imagerel $LN10+163
	DD	imagerel $unwind$s390_1F68
$pdata$s390_1F69 DD imagerel $LN10
	DD	imagerel $LN10+163
	DD	imagerel $unwind$s390_1F69
$pdata$s390_1F6A DD imagerel $LN10
	DD	imagerel $LN10+163
	DD	imagerel $unwind$s390_1F6A
$pdata$s390_1F6B DD imagerel $LN10
	DD	imagerel $LN10+163
	DD	imagerel $unwind$s390_1F6B
$pdata$s390_1F6C DD imagerel $LN10
	DD	imagerel $LN10+163
	DD	imagerel $unwind$s390_1F6C
$pdata$s390_1F6D DD imagerel $LN10
	DD	imagerel $LN10+163
	DD	imagerel $unwind$s390_1F6D
$pdata$s390_1F6E DD imagerel $LN10
	DD	imagerel $LN10+163
	DD	imagerel $unwind$s390_1F6E
$pdata$s390_1F6F DD imagerel $LN10
	DD	imagerel $LN10+163
	DD	imagerel $unwind$s390_1F6F
$pdata$s390_1F70 DD imagerel $LN10
	DD	imagerel $LN10+163
	DD	imagerel $unwind$s390_1F70
$pdata$s390_1F71 DD imagerel $LN10
	DD	imagerel $LN10+163
	DD	imagerel $unwind$s390_1F71
$pdata$s390_1F72 DD imagerel $LN10
	DD	imagerel $LN10+163
	DD	imagerel $unwind$s390_1F72
$pdata$s390_1F73 DD imagerel $LN10
	DD	imagerel $LN10+163
	DD	imagerel $unwind$s390_1F73
$pdata$s390_1F74 DD imagerel $LN10
	DD	imagerel $LN10+163
	DD	imagerel $unwind$s390_1F74
$pdata$s390_1F75 DD imagerel $LN10
	DD	imagerel $LN10+163
	DD	imagerel $unwind$s390_1F75
$pdata$s390_1F76 DD imagerel $LN10
	DD	imagerel $LN10+163
	DD	imagerel $unwind$s390_1F76
$pdata$s390_1F77 DD imagerel $LN10
	DD	imagerel $LN10+163
	DD	imagerel $unwind$s390_1F77
$pdata$s390_1F78 DD imagerel $LN10
	DD	imagerel $LN10+163
	DD	imagerel $unwind$s390_1F78
$pdata$s390_1F79 DD imagerel $LN10
	DD	imagerel $LN10+163
	DD	imagerel $unwind$s390_1F79
$pdata$s390_1F7A DD imagerel $LN10
	DD	imagerel $LN10+163
	DD	imagerel $unwind$s390_1F7A
$pdata$s390_1F7B DD imagerel $LN10
	DD	imagerel $LN10+163
	DD	imagerel $unwind$s390_1F7B
$pdata$s390_1F7C DD imagerel $LN10
	DD	imagerel $LN10+163
	DD	imagerel $unwind$s390_1F7C
$pdata$s390_1F7D DD imagerel $LN10
	DD	imagerel $LN10+163
	DD	imagerel $unwind$s390_1F7D
$pdata$s390_1F7E DD imagerel $LN10
	DD	imagerel $LN10+163
	DD	imagerel $unwind$s390_1F7E
$pdata$s390_1F7F DD imagerel $LN10
	DD	imagerel $LN10+163
	DD	imagerel $unwind$s390_1F7F
$pdata$s390_1F80 DD imagerel $LN10
	DD	imagerel $LN10+163
	DD	imagerel $unwind$s390_1F80
$pdata$s390_1F81 DD imagerel $LN10
	DD	imagerel $LN10+163
	DD	imagerel $unwind$s390_1F81
$pdata$s390_1F82 DD imagerel $LN10
	DD	imagerel $LN10+163
	DD	imagerel $unwind$s390_1F82
$pdata$s390_1F83 DD imagerel $LN10
	DD	imagerel $LN10+163
	DD	imagerel $unwind$s390_1F83
$pdata$s390_1F84 DD imagerel $LN10
	DD	imagerel $LN10+163
	DD	imagerel $unwind$s390_1F84
$pdata$s390_1F85 DD imagerel $LN10
	DD	imagerel $LN10+163
	DD	imagerel $unwind$s390_1F85
$pdata$s390_1F86 DD imagerel $LN10
	DD	imagerel $LN10+163
	DD	imagerel $unwind$s390_1F86
$pdata$s390_1F87 DD imagerel $LN10
	DD	imagerel $LN10+163
	DD	imagerel $unwind$s390_1F87
$pdata$s390_1F88 DD imagerel $LN10
	DD	imagerel $LN10+163
	DD	imagerel $unwind$s390_1F88
$pdata$s390_1F89 DD imagerel $LN10
	DD	imagerel $LN10+163
	DD	imagerel $unwind$s390_1F89
$pdata$s390_1F8A DD imagerel $LN10
	DD	imagerel $LN10+163
	DD	imagerel $unwind$s390_1F8A
$pdata$s390_1F8B DD imagerel $LN10
	DD	imagerel $LN10+163
	DD	imagerel $unwind$s390_1F8B
$pdata$s390_1F8C DD imagerel $LN10
	DD	imagerel $LN10+163
	DD	imagerel $unwind$s390_1F8C
$pdata$s390_1F8D DD imagerel $LN10
	DD	imagerel $LN10+163
	DD	imagerel $unwind$s390_1F8D
$pdata$s390_1F8E DD imagerel $LN10
	DD	imagerel $LN10+163
	DD	imagerel $unwind$s390_1F8E
$pdata$s390_1F8F DD imagerel $LN10
	DD	imagerel $LN10+163
	DD	imagerel $unwind$s390_1F8F
$pdata$s390_1F90 DD imagerel $LN10
	DD	imagerel $LN10+163
	DD	imagerel $unwind$s390_1F90
$pdata$s390_1F91 DD imagerel $LN10
	DD	imagerel $LN10+163
	DD	imagerel $unwind$s390_1F91
$pdata$s390_1F92 DD imagerel $LN10
	DD	imagerel $LN10+163
	DD	imagerel $unwind$s390_1F92
$pdata$s390_1F93 DD imagerel $LN10
	DD	imagerel $LN10+163
	DD	imagerel $unwind$s390_1F93
$pdata$s390_1F94 DD imagerel $LN10
	DD	imagerel $LN10+163
	DD	imagerel $unwind$s390_1F94
$pdata$s390_1F95 DD imagerel $LN10
	DD	imagerel $LN10+163
	DD	imagerel $unwind$s390_1F95
$pdata$s390_1F96 DD imagerel $LN10
	DD	imagerel $LN10+163
	DD	imagerel $unwind$s390_1F96
$pdata$s390_1F97 DD imagerel $LN10
	DD	imagerel $LN10+163
	DD	imagerel $unwind$s390_1F97
$pdata$s390_1F98 DD imagerel $LN10
	DD	imagerel $LN10+163
	DD	imagerel $unwind$s390_1F98
$pdata$s390_1F99 DD imagerel $LN10
	DD	imagerel $LN10+163
	DD	imagerel $unwind$s390_1F99
$pdata$s390_1F9A DD imagerel $LN10
	DD	imagerel $LN10+163
	DD	imagerel $unwind$s390_1F9A
$pdata$s390_1F9B DD imagerel $LN10
	DD	imagerel $LN10+163
	DD	imagerel $unwind$s390_1F9B
$pdata$s390_1F9C DD imagerel $LN10
	DD	imagerel $LN10+163
	DD	imagerel $unwind$s390_1F9C
$pdata$s390_1F9D DD imagerel $LN10
	DD	imagerel $LN10+163
	DD	imagerel $unwind$s390_1F9D
$pdata$s390_1F9E DD imagerel $LN10
	DD	imagerel $LN10+163
	DD	imagerel $unwind$s390_1F9E
$pdata$s390_1F9F DD imagerel $LN10
	DD	imagerel $LN10+163
	DD	imagerel $unwind$s390_1F9F
$pdata$s390_1FA0 DD imagerel $LN10
	DD	imagerel $LN10+163
	DD	imagerel $unwind$s390_1FA0
$pdata$s390_1FA1 DD imagerel $LN10
	DD	imagerel $LN10+163
	DD	imagerel $unwind$s390_1FA1
$pdata$s390_1FA2 DD imagerel $LN10
	DD	imagerel $LN10+163
	DD	imagerel $unwind$s390_1FA2
$pdata$s390_1FA3 DD imagerel $LN10
	DD	imagerel $LN10+163
	DD	imagerel $unwind$s390_1FA3
$pdata$s390_1FA4 DD imagerel $LN10
	DD	imagerel $LN10+163
	DD	imagerel $unwind$s390_1FA4
$pdata$s390_1FA5 DD imagerel $LN10
	DD	imagerel $LN10+163
	DD	imagerel $unwind$s390_1FA5
$pdata$s390_1FA6 DD imagerel $LN10
	DD	imagerel $LN10+163
	DD	imagerel $unwind$s390_1FA6
$pdata$s390_1FA7 DD imagerel $LN10
	DD	imagerel $LN10+163
	DD	imagerel $unwind$s390_1FA7
$pdata$s390_1FA8 DD imagerel $LN10
	DD	imagerel $LN10+163
	DD	imagerel $unwind$s390_1FA8
$pdata$s390_1FA9 DD imagerel $LN10
	DD	imagerel $LN10+163
	DD	imagerel $unwind$s390_1FA9
$pdata$s390_1FAA DD imagerel $LN10
	DD	imagerel $LN10+163
	DD	imagerel $unwind$s390_1FAA
$pdata$s390_1FAB DD imagerel $LN10
	DD	imagerel $LN10+163
	DD	imagerel $unwind$s390_1FAB
$pdata$s390_1FAC DD imagerel $LN10
	DD	imagerel $LN10+163
	DD	imagerel $unwind$s390_1FAC
$pdata$s390_1FAD DD imagerel $LN10
	DD	imagerel $LN10+163
	DD	imagerel $unwind$s390_1FAD
$pdata$s390_1FAE DD imagerel $LN10
	DD	imagerel $LN10+163
	DD	imagerel $unwind$s390_1FAE
$pdata$s390_1FAF DD imagerel $LN10
	DD	imagerel $LN10+163
	DD	imagerel $unwind$s390_1FAF
$pdata$s390_1FB0 DD imagerel $LN10
	DD	imagerel $LN10+163
	DD	imagerel $unwind$s390_1FB0
$pdata$s390_1FB1 DD imagerel $LN10
	DD	imagerel $LN10+163
	DD	imagerel $unwind$s390_1FB1
$pdata$s390_1FB2 DD imagerel $LN10
	DD	imagerel $LN10+163
	DD	imagerel $unwind$s390_1FB2
$pdata$s390_1FB3 DD imagerel $LN10
	DD	imagerel $LN10+163
	DD	imagerel $unwind$s390_1FB3
$pdata$s390_1FB4 DD imagerel $LN10
	DD	imagerel $LN10+163
	DD	imagerel $unwind$s390_1FB4
$pdata$s390_1FB5 DD imagerel $LN10
	DD	imagerel $LN10+163
	DD	imagerel $unwind$s390_1FB5
$pdata$s390_1FB6 DD imagerel $LN10
	DD	imagerel $LN10+163
	DD	imagerel $unwind$s390_1FB6
$pdata$s390_1FB7 DD imagerel $LN10
	DD	imagerel $LN10+163
	DD	imagerel $unwind$s390_1FB7
$pdata$s390_1FB8 DD imagerel $LN10
	DD	imagerel $LN10+163
	DD	imagerel $unwind$s390_1FB8
$pdata$s390_1FB9 DD imagerel $LN10
	DD	imagerel $LN10+163
	DD	imagerel $unwind$s390_1FB9
$pdata$s390_1FBA DD imagerel $LN10
	DD	imagerel $LN10+163
	DD	imagerel $unwind$s390_1FBA
$pdata$s390_1FBB DD imagerel $LN10
	DD	imagerel $LN10+163
	DD	imagerel $unwind$s390_1FBB
$pdata$s390_1FBC DD imagerel $LN10
	DD	imagerel $LN10+163
	DD	imagerel $unwind$s390_1FBC
$pdata$s390_1FBD DD imagerel $LN10
	DD	imagerel $LN10+163
	DD	imagerel $unwind$s390_1FBD
$pdata$s390_1FBE DD imagerel $LN10
	DD	imagerel $LN10+163
	DD	imagerel $unwind$s390_1FBE
$pdata$s390_1FBF DD imagerel $LN10
	DD	imagerel $LN10+163
	DD	imagerel $unwind$s390_1FBF
$pdata$s390_1FC0 DD imagerel $LN10
	DD	imagerel $LN10+163
	DD	imagerel $unwind$s390_1FC0
$pdata$s390_1FC1 DD imagerel $LN10
	DD	imagerel $LN10+163
	DD	imagerel $unwind$s390_1FC1
$pdata$s390_1FC2 DD imagerel $LN10
	DD	imagerel $LN10+163
	DD	imagerel $unwind$s390_1FC2
$pdata$s390_1FC3 DD imagerel $LN10
	DD	imagerel $LN10+163
	DD	imagerel $unwind$s390_1FC3
$pdata$s390_1FC4 DD imagerel $LN10
	DD	imagerel $LN10+163
	DD	imagerel $unwind$s390_1FC4
$pdata$s390_1FC5 DD imagerel $LN10
	DD	imagerel $LN10+163
	DD	imagerel $unwind$s390_1FC5
$pdata$s390_1FC6 DD imagerel $LN10
	DD	imagerel $LN10+163
	DD	imagerel $unwind$s390_1FC6
$pdata$s390_1FC7 DD imagerel $LN10
	DD	imagerel $LN10+163
	DD	imagerel $unwind$s390_1FC7
$pdata$s390_1FC8 DD imagerel $LN10
	DD	imagerel $LN10+163
	DD	imagerel $unwind$s390_1FC8
$pdata$s390_1FC9 DD imagerel $LN10
	DD	imagerel $LN10+163
	DD	imagerel $unwind$s390_1FC9
$pdata$s390_1FCA DD imagerel $LN10
	DD	imagerel $LN10+163
	DD	imagerel $unwind$s390_1FCA
$pdata$s390_1FCB DD imagerel $LN10
	DD	imagerel $LN10+163
	DD	imagerel $unwind$s390_1FCB
$pdata$s390_1FCC DD imagerel $LN10
	DD	imagerel $LN10+163
	DD	imagerel $unwind$s390_1FCC
$pdata$s390_1FCD DD imagerel $LN10
	DD	imagerel $LN10+163
	DD	imagerel $unwind$s390_1FCD
$pdata$s390_1FCE DD imagerel $LN10
	DD	imagerel $LN10+163
	DD	imagerel $unwind$s390_1FCE
$pdata$s390_1FCF DD imagerel $LN10
	DD	imagerel $LN10+163
	DD	imagerel $unwind$s390_1FCF
$pdata$s390_1FD0 DD imagerel $LN10
	DD	imagerel $LN10+163
	DD	imagerel $unwind$s390_1FD0
$pdata$s390_1FD1 DD imagerel $LN10
	DD	imagerel $LN10+163
	DD	imagerel $unwind$s390_1FD1
$pdata$s390_1FD2 DD imagerel $LN10
	DD	imagerel $LN10+163
	DD	imagerel $unwind$s390_1FD2
$pdata$s390_1FD3 DD imagerel $LN10
	DD	imagerel $LN10+163
	DD	imagerel $unwind$s390_1FD3
$pdata$s390_1FD4 DD imagerel $LN10
	DD	imagerel $LN10+163
	DD	imagerel $unwind$s390_1FD4
$pdata$s390_1FD5 DD imagerel $LN10
	DD	imagerel $LN10+163
	DD	imagerel $unwind$s390_1FD5
$pdata$s390_1FD6 DD imagerel $LN10
	DD	imagerel $LN10+163
	DD	imagerel $unwind$s390_1FD6
$pdata$s390_1FD7 DD imagerel $LN10
	DD	imagerel $LN10+163
	DD	imagerel $unwind$s390_1FD7
$pdata$s390_1FD8 DD imagerel $LN10
	DD	imagerel $LN10+163
	DD	imagerel $unwind$s390_1FD8
$pdata$s390_1FD9 DD imagerel $LN10
	DD	imagerel $LN10+163
	DD	imagerel $unwind$s390_1FD9
$pdata$s390_1FDA DD imagerel $LN10
	DD	imagerel $LN10+163
	DD	imagerel $unwind$s390_1FDA
$pdata$s390_1FDB DD imagerel $LN10
	DD	imagerel $LN10+163
	DD	imagerel $unwind$s390_1FDB
$pdata$s390_1FDC DD imagerel $LN10
	DD	imagerel $LN10+163
	DD	imagerel $unwind$s390_1FDC
$pdata$s390_1FDD DD imagerel $LN10
	DD	imagerel $LN10+163
	DD	imagerel $unwind$s390_1FDD
$pdata$s390_1FDE DD imagerel $LN10
	DD	imagerel $LN10+163
	DD	imagerel $unwind$s390_1FDE
$pdata$s390_1FDF DD imagerel $LN10
	DD	imagerel $LN10+163
	DD	imagerel $unwind$s390_1FDF
$pdata$s390_1FE0 DD imagerel $LN10
	DD	imagerel $LN10+163
	DD	imagerel $unwind$s390_1FE0
$pdata$s390_1FE1 DD imagerel $LN10
	DD	imagerel $LN10+163
	DD	imagerel $unwind$s390_1FE1
$pdata$s390_1FE2 DD imagerel $LN10
	DD	imagerel $LN10+163
	DD	imagerel $unwind$s390_1FE2
$pdata$s390_1FE3 DD imagerel $LN10
	DD	imagerel $LN10+163
	DD	imagerel $unwind$s390_1FE3
$pdata$s390_1FE4 DD imagerel $LN10
	DD	imagerel $LN10+163
	DD	imagerel $unwind$s390_1FE4
$pdata$s390_1FE5 DD imagerel $LN10
	DD	imagerel $LN10+163
	DD	imagerel $unwind$s390_1FE5
$pdata$s390_1FE6 DD imagerel $LN10
	DD	imagerel $LN10+163
	DD	imagerel $unwind$s390_1FE6
$pdata$s390_1FE7 DD imagerel $LN10
	DD	imagerel $LN10+163
	DD	imagerel $unwind$s390_1FE7
$pdata$s390_1FE8 DD imagerel $LN10
	DD	imagerel $LN10+163
	DD	imagerel $unwind$s390_1FE8
$pdata$s390_1FE9 DD imagerel $LN10
	DD	imagerel $LN10+163
	DD	imagerel $unwind$s390_1FE9
$pdata$s390_1FEA DD imagerel $LN10
	DD	imagerel $LN10+163
	DD	imagerel $unwind$s390_1FEA
$pdata$s390_1FEB DD imagerel $LN10
	DD	imagerel $LN10+163
	DD	imagerel $unwind$s390_1FEB
$pdata$s390_1FEC DD imagerel $LN10
	DD	imagerel $LN10+163
	DD	imagerel $unwind$s390_1FEC
$pdata$s390_1FED DD imagerel $LN10
	DD	imagerel $LN10+163
	DD	imagerel $unwind$s390_1FED
$pdata$s390_1FEE DD imagerel $LN10
	DD	imagerel $LN10+163
	DD	imagerel $unwind$s390_1FEE
$pdata$s390_1FEF DD imagerel $LN10
	DD	imagerel $LN10+163
	DD	imagerel $unwind$s390_1FEF
$pdata$s390_1FF0 DD imagerel $LN10
	DD	imagerel $LN10+163
	DD	imagerel $unwind$s390_1FF0
$pdata$s390_1FF1 DD imagerel $LN10
	DD	imagerel $LN10+163
	DD	imagerel $unwind$s390_1FF1
$pdata$s390_1FF2 DD imagerel $LN10
	DD	imagerel $LN10+163
	DD	imagerel $unwind$s390_1FF2
$pdata$s390_1FF3 DD imagerel $LN10
	DD	imagerel $LN10+163
	DD	imagerel $unwind$s390_1FF3
$pdata$s390_1FF4 DD imagerel $LN10
	DD	imagerel $LN10+163
	DD	imagerel $unwind$s390_1FF4
$pdata$s390_1FF5 DD imagerel $LN10
	DD	imagerel $LN10+163
	DD	imagerel $unwind$s390_1FF5
$pdata$s390_1FF6 DD imagerel $LN10
	DD	imagerel $LN10+163
	DD	imagerel $unwind$s390_1FF6
$pdata$s390_1FF7 DD imagerel $LN10
	DD	imagerel $LN10+163
	DD	imagerel $unwind$s390_1FF7
$pdata$s390_1FF8 DD imagerel $LN10
	DD	imagerel $LN10+163
	DD	imagerel $unwind$s390_1FF8
$pdata$s390_1FF9 DD imagerel $LN10
	DD	imagerel $LN10+163
	DD	imagerel $unwind$s390_1FF9
$pdata$s390_1FFA DD imagerel $LN10
	DD	imagerel $LN10+163
	DD	imagerel $unwind$s390_1FFA
$pdata$s390_1FFB DD imagerel $LN10
	DD	imagerel $LN10+163
	DD	imagerel $unwind$s390_1FFB
$pdata$s390_1FFC DD imagerel $LN10
	DD	imagerel $LN10+163
	DD	imagerel $unwind$s390_1FFC
$pdata$s390_1FFD DD imagerel $LN10
	DD	imagerel $LN10+163
	DD	imagerel $unwind$s390_1FFD
$pdata$s390_1FFE DD imagerel $LN10
	DD	imagerel $LN10+163
	DD	imagerel $unwind$s390_1FFE
$pdata$s390_1FFF DD imagerel $LN10
	DD	imagerel $LN10+163
	DD	imagerel $unwind$s390_1FFF
pdata	ENDS
;	COMDAT pdata
pdata	SEGMENT
$pdata$s390__or_storage_key DD imagerel $LN8
	DD	imagerel $LN8+159
	DD	imagerel $unwind$s390__or_storage_key
pdata	ENDS
;	COMDAT pdata
pdata	SEGMENT
$pdata$s390_or_4K_storage_key DD imagerel $LN3
	DD	imagerel $LN3+42
	DD	imagerel $unwind$s390_or_4K_storage_key
pdata	ENDS
;	COMDAT pdata
pdata	SEGMENT
$pdata$s390_or_storage_key DD imagerel $LN3
	DD	imagerel $LN3+33
	DD	imagerel $unwind$s390_or_storage_key
pdata	ENDS
;	COMDAT pdata
pdata	SEGMENT
$pdata$s390_or_storage_key_by_ptr DD imagerel $LN3
	DD	imagerel $LN3+67
	DD	imagerel $unwind$s390_or_storage_key_by_ptr
pdata	ENDS
;	COMDAT pdata
pdata	SEGMENT
$pdata$s390_maddr_l DD imagerel $LN14
	DD	imagerel $LN14+474
	DD	imagerel $unwind$s390_maddr_l
pdata	ENDS
;	COMDAT pdata
pdata	SEGMENT
$pdata$s390_vstore2_full DD imagerel $LN3
	DD	imagerel $LN3+210
	DD	imagerel $unwind$s390_vstore2_full
pdata	ENDS
;	COMDAT pdata
pdata	SEGMENT
$pdata$s390_vstore4_full DD imagerel $LN3
	DD	imagerel $LN3+321
	DD	imagerel $unwind$s390_vstore4_full
pdata	ENDS
;	COMDAT pdata
pdata	SEGMENT
$pdata$s390_vstore8_full DD imagerel $LN3
	DD	imagerel $LN3+364
	DD	imagerel $unwind$s390_vstore8_full
pdata	ENDS
;	COMDAT pdata
pdata	SEGMENT
$pdata$s390_vfetch2_full DD imagerel $LN3
	DD	imagerel $LN3+180
	DD	imagerel $unwind$s390_vfetch2_full
pdata	ENDS
;	COMDAT pdata
pdata	SEGMENT
$pdata$s390_vfetch4_full DD imagerel $LN3
	DD	imagerel $LN3+296
	DD	imagerel $unwind$s390_vfetch4_full
pdata	ENDS
;	COMDAT pdata
pdata	SEGMENT
$pdata$s390_vstorec DD imagerel $LN9
	DD	imagerel $LN9+498
	DD	imagerel $unwind$s390_vstorec
pdata	ENDS
;	COMDAT pdata
pdata	SEGMENT
$pdata$s390_vstoreb DD imagerel $LN3
	DD	imagerel $LN3+89
	DD	imagerel $unwind$s390_vstoreb
pdata	ENDS
;	COMDAT pdata
pdata	SEGMENT
$pdata$s390_vstore2 DD imagerel $LN9
	DD	imagerel $LN9+179
	DD	imagerel $unwind$s390_vstore2
pdata	ENDS
;	COMDAT pdata
pdata	SEGMENT
$pdata$s390_vstore4 DD imagerel $LN12
	DD	imagerel $LN12+200
	DD	imagerel $unwind$s390_vstore4
pdata	ENDS
;	COMDAT pdata
pdata	SEGMENT
$pdata$s390_vstore8 DD imagerel $LN9
	DD	imagerel $LN9+168
	DD	imagerel $unwind$s390_vstore8
pdata	ENDS
;	COMDAT pdata
pdata	SEGMENT
$pdata$s390_vfetchc DD imagerel $LN9
	DD	imagerel $LN9+432
	DD	imagerel $unwind$s390_vfetchc
pdata	ENDS
;	COMDAT pdata
pdata	SEGMENT
$pdata$s390_vfetchb DD imagerel $LN3
	DD	imagerel $LN3+80
	DD	imagerel $unwind$s390_vfetchb
pdata	ENDS
;	COMDAT pdata
pdata	SEGMENT
$pdata$s390_vfetch2 DD imagerel $LN11
	DD	imagerel $LN11+187
	DD	imagerel $unwind$s390_vfetch2
pdata	ENDS
;	COMDAT pdata
pdata	SEGMENT
$pdata$s390_vfetch4 DD imagerel $LN11
	DD	imagerel $LN11+186
	DD	imagerel $unwind$s390_vfetch4
pdata	ENDS
;	COMDAT pdata
pdata	SEGMENT
$pdata$s390_validate_operand DD imagerel $LN8
	DD	imagerel $LN8+185
	DD	imagerel $unwind$s390_validate_operand
pdata	ENDS
pdata	SEGMENT
$pdata$z900_convert_utf16_to_utf32 DD imagerel $LN50
	DD	imagerel $LN50+1799
	DD	imagerel $unwind$z900_convert_utf16_to_utf32
$pdata$z900_convert_utf32_to_utf16 DD imagerel $LN45
	DD	imagerel $LN45+1653
	DD	imagerel $unwind$z900_convert_utf32_to_utf16
$pdata$z900_convert_utf32_to_utf8 DD imagerel $LN54
	DD	imagerel $LN54+2036
	DD	imagerel $unwind$z900_convert_utf32_to_utf8
$pdata$z900_convert_utf8_to_utf32 DD imagerel $LN89
	DD	imagerel $LN89+3515
	DD	imagerel $unwind$z900_convert_utf8_to_utf32
$pdata$z900_search_string_unicode DD imagerel $LN28
	DD	imagerel $LN28+731
	DD	imagerel $unwind$z900_search_string_unicode
$pdata$z900_translate_and_test_reverse DD imagerel $LN30
	DD	imagerel $LN30+1221
	DD	imagerel $unwind$z900_translate_and_test_reverse
$pdata$z900_translate_and_test_extended DD imagerel $LN3
	DD	imagerel $LN3+34
	DD	imagerel $unwind$z900_translate_and_test_extended
$pdata$z900_translate_and_test_reverse_extended DD imagerel $LN3
	DD	imagerel $LN3+34
	DD	imagerel $unwind$z900_translate_and_test_reverse_extended
$pdata$z900_set_access_register DD imagerel $LN19
	DD	imagerel $LN19+400
	DD	imagerel $unwind$z900_set_access_register
$pdata$z900_store_access_multiple DD imagerel $LN22
	DD	imagerel $LN22+762
	DD	imagerel $unwind$z900_store_access_multiple
$pdata$z900_store_clock_extended DD imagerel $LN9
	DD	imagerel $LN9+471
	DD	imagerel $unwind$z900_store_clock_extended
$pdata$z900_translate_extended DD imagerel $LN31
	DD	imagerel $LN31+1048
	DD	imagerel $unwind$z900_translate_extended
$pdata$z900_test_under_mask_high DD imagerel $LN16
	DD	imagerel $LN16+317
	DD	imagerel $unwind$z900_test_under_mask_high
$pdata$z900_test_under_mask_low DD imagerel $LN16
	DD	imagerel $LN16+317
	DD	imagerel $unwind$z900_test_under_mask_low
$pdata$z900_perform_locked_operation DD imagerel $LN89
	DD	imagerel $LN89+3196
	DD	imagerel $unwind$z900_perform_locked_operation
$pdata$z900_search_string DD imagerel $LN59
	DD	imagerel $LN59+1426
	DD	imagerel $unwind$z900_search_string
$pdata$z900_or DD imagerel $LN18
	DD	imagerel $LN18+440
	DD	imagerel $unwind$z900_or
$pdata$z900_or_character DD imagerel $LN96
	DD	imagerel $LN96+3249
	DD	imagerel $unwind$z900_or_character
$pdata$z900_or_immediate DD imagerel $LN11
	DD	imagerel $LN11+364
	DD	imagerel $unwind$z900_or_immediate
$pdata$z900_or_register DD imagerel $LN9
	DD	imagerel $LN9+210
	DD	imagerel $unwind$z900_or_register
$pdata$z900_pack DD imagerel $LN21
	DD	imagerel $LN21+1120
	DD	imagerel $unwind$z900_pack
$pdata$z900_set_program_mask DD imagerel $LN7
	DD	imagerel $LN7+174
	DD	imagerel $unwind$z900_set_program_mask
$pdata$z900_shift_left_double DD imagerel $LN25
	DD	imagerel $LN25+746
	DD	imagerel $unwind$z900_shift_left_double
$pdata$z900_shift_left_double_logical DD imagerel $LN10
	DD	imagerel $LN10+399
	DD	imagerel $unwind$z900_shift_left_double_logical
$pdata$z900_shift_left_single DD imagerel $LN22
	DD	imagerel $LN22+657
	DD	imagerel $unwind$z900_shift_left_single
$pdata$z900_shift_left_single_logical DD imagerel $LN11
	DD	imagerel $LN11+299
	DD	imagerel $unwind$z900_shift_left_single_logical
$pdata$z900_shift_right_double DD imagerel $LN14
	DD	imagerel $LN14+464
	DD	imagerel $unwind$z900_shift_right_double
$pdata$z900_shift_right_double_logical DD imagerel $LN10
	DD	imagerel $LN10+399
	DD	imagerel $unwind$z900_shift_right_double_logical
$pdata$z900_shift_right_single DD imagerel $LN17
	DD	imagerel $LN17+426
	DD	imagerel $unwind$z900_shift_right_single
$pdata$z900_shift_right_single_logical DD imagerel $LN11
	DD	imagerel $LN11+299
	DD	imagerel $unwind$z900_shift_right_single_logical
$pdata$z900_store_characters_under_mask DD imagerel $LN19
	DD	imagerel $LN19+646
	DD	imagerel $unwind$z900_store_characters_under_mask
$pdata$z900_store_clock DD imagerel $LN12
	DD	imagerel $LN12+527
	DD	imagerel $unwind$z900_store_clock
$pdata$z900_store_halfword DD imagerel $LN16
	DD	imagerel $LN16+369
	DD	imagerel $unwind$z900_store_halfword
$pdata$z900_store_multiple DD imagerel $LN52
	DD	imagerel $LN52+1472
	DD	imagerel $unwind$z900_store_multiple
$pdata$z900_subtract DD imagerel $LN17
	DD	imagerel $LN17+458
	DD	imagerel $unwind$z900_subtract
$pdata$z900_subtract_halfword DD imagerel $LN17
	DD	imagerel $LN17+459
	DD	imagerel $unwind$z900_subtract_halfword
$pdata$z900_subtract_logical DD imagerel $LN16
	DD	imagerel $LN16+407
	DD	imagerel $unwind$z900_subtract_logical
$pdata$z900_subtract_logical_register DD imagerel $LN13
	DD	imagerel $LN13+259
	DD	imagerel $unwind$z900_subtract_logical_register
$pdata$z900_subtract_register DD imagerel $LN8
	DD	imagerel $LN8+243
	DD	imagerel $unwind$z900_subtract_register
$pdata$z900_supervisor_call DD imagerel $LN33
	DD	imagerel $LN33+1001
	DD	imagerel $unwind$z900_supervisor_call
$pdata$z900_test_and_set DD imagerel $LN22
	DD	imagerel $LN22+571
	DD	imagerel $unwind$z900_test_and_set
$pdata$z900_test_under_mask DD imagerel $LN12
	DD	imagerel $LN12+329
	DD	imagerel $unwind$z900_test_under_mask
$pdata$z900_translate DD imagerel $LN58
	DD	imagerel $LN58+1986
	DD	imagerel $unwind$z900_translate
$pdata$z900_translate_and_test DD imagerel $LN68
	DD	imagerel $LN68+1444
	DD	imagerel $unwind$z900_translate_and_test
$pdata$z900_unpack DD imagerel $LN21
	DD	imagerel $LN21+1111
	DD	imagerel $unwind$z900_unpack
$pdata$z900_update_tree DD imagerel $LN85
	DD	imagerel $LN85+2439
	DD	imagerel $unwind$z900_update_tree
$pdata$z900_9180 DD imagerel $LN10
	DD	imagerel $LN10+251
	DD	imagerel $unwind$z900_9180
$pdata$z900_9140 DD imagerel $LN10
	DD	imagerel $LN10+249
	DD	imagerel $unwind$z900_9140
$pdata$z900_9120 DD imagerel $LN10
	DD	imagerel $LN10+249
	DD	imagerel $unwind$z900_9120
$pdata$z900_9110 DD imagerel $LN10
	DD	imagerel $LN10+249
	DD	imagerel $unwind$z900_9110
$pdata$z900_9108 DD imagerel $LN10
	DD	imagerel $LN10+249
	DD	imagerel $unwind$z900_9108
$pdata$z900_9104 DD imagerel $LN10
	DD	imagerel $LN10+249
	DD	imagerel $unwind$z900_9104
$pdata$z900_9102 DD imagerel $LN10
	DD	imagerel $LN10+249
	DD	imagerel $unwind$z900_9102
$pdata$z900_9101 DD imagerel $LN10
	DD	imagerel $LN10+249
	DD	imagerel $unwind$z900_9101
$pdata$z900_1F00 DD imagerel $LN10
	DD	imagerel $LN10+163
	DD	imagerel $unwind$z900_1F00
$pdata$z900_1F01 DD imagerel $LN10
	DD	imagerel $LN10+163
	DD	imagerel $unwind$z900_1F01
$pdata$z900_1F02 DD imagerel $LN10
	DD	imagerel $LN10+163
	DD	imagerel $unwind$z900_1F02
$pdata$z900_1F03 DD imagerel $LN10
	DD	imagerel $LN10+163
	DD	imagerel $unwind$z900_1F03
$pdata$z900_1F04 DD imagerel $LN10
	DD	imagerel $LN10+163
	DD	imagerel $unwind$z900_1F04
$pdata$z900_1F05 DD imagerel $LN10
	DD	imagerel $LN10+163
	DD	imagerel $unwind$z900_1F05
$pdata$z900_1F06 DD imagerel $LN10
	DD	imagerel $LN10+163
	DD	imagerel $unwind$z900_1F06
$pdata$z900_1F07 DD imagerel $LN10
	DD	imagerel $LN10+163
	DD	imagerel $unwind$z900_1F07
$pdata$z900_1F08 DD imagerel $LN10
	DD	imagerel $LN10+163
	DD	imagerel $unwind$z900_1F08
$pdata$z900_1F09 DD imagerel $LN10
	DD	imagerel $LN10+163
	DD	imagerel $unwind$z900_1F09
$pdata$z900_1F0A DD imagerel $LN10
	DD	imagerel $LN10+163
	DD	imagerel $unwind$z900_1F0A
$pdata$z900_1F0B DD imagerel $LN10
	DD	imagerel $LN10+163
	DD	imagerel $unwind$z900_1F0B
$pdata$z900_1F0C DD imagerel $LN10
	DD	imagerel $LN10+163
	DD	imagerel $unwind$z900_1F0C
$pdata$z900_1F0D DD imagerel $LN10
	DD	imagerel $LN10+163
	DD	imagerel $unwind$z900_1F0D
$pdata$z900_1F0E DD imagerel $LN10
	DD	imagerel $LN10+163
	DD	imagerel $unwind$z900_1F0E
$pdata$z900_1F0F DD imagerel $LN10
	DD	imagerel $LN10+163
	DD	imagerel $unwind$z900_1F0F
$pdata$z900_1F10 DD imagerel $LN10
	DD	imagerel $LN10+163
	DD	imagerel $unwind$z900_1F10
$pdata$z900_1F11 DD imagerel $LN10
	DD	imagerel $LN10+163
	DD	imagerel $unwind$z900_1F11
$pdata$z900_1F12 DD imagerel $LN10
	DD	imagerel $LN10+163
	DD	imagerel $unwind$z900_1F12
$pdata$z900_1F13 DD imagerel $LN10
	DD	imagerel $LN10+163
	DD	imagerel $unwind$z900_1F13
$pdata$z900_1F14 DD imagerel $LN10
	DD	imagerel $LN10+163
	DD	imagerel $unwind$z900_1F14
$pdata$z900_1F15 DD imagerel $LN10
	DD	imagerel $LN10+163
	DD	imagerel $unwind$z900_1F15
$pdata$z900_1F16 DD imagerel $LN10
	DD	imagerel $LN10+163
	DD	imagerel $unwind$z900_1F16
$pdata$z900_1F17 DD imagerel $LN10
	DD	imagerel $LN10+163
	DD	imagerel $unwind$z900_1F17
$pdata$z900_1F18 DD imagerel $LN10
	DD	imagerel $LN10+163
	DD	imagerel $unwind$z900_1F18
$pdata$z900_1F19 DD imagerel $LN10
	DD	imagerel $LN10+163
	DD	imagerel $unwind$z900_1F19
$pdata$z900_1F1A DD imagerel $LN10
	DD	imagerel $LN10+163
	DD	imagerel $unwind$z900_1F1A
$pdata$z900_1F1B DD imagerel $LN10
	DD	imagerel $LN10+163
	DD	imagerel $unwind$z900_1F1B
$pdata$z900_1F1C DD imagerel $LN10
	DD	imagerel $LN10+163
	DD	imagerel $unwind$z900_1F1C
$pdata$z900_1F1D DD imagerel $LN10
	DD	imagerel $LN10+163
	DD	imagerel $unwind$z900_1F1D
$pdata$z900_1F1E DD imagerel $LN10
	DD	imagerel $LN10+163
	DD	imagerel $unwind$z900_1F1E
$pdata$z900_1F1F DD imagerel $LN10
	DD	imagerel $LN10+163
	DD	imagerel $unwind$z900_1F1F
$pdata$z900_1F20 DD imagerel $LN10
	DD	imagerel $LN10+163
	DD	imagerel $unwind$z900_1F20
$pdata$z900_1F21 DD imagerel $LN10
	DD	imagerel $LN10+163
	DD	imagerel $unwind$z900_1F21
$pdata$z900_1F22 DD imagerel $LN10
	DD	imagerel $LN10+163
	DD	imagerel $unwind$z900_1F22
$pdata$z900_1F23 DD imagerel $LN10
	DD	imagerel $LN10+163
	DD	imagerel $unwind$z900_1F23
$pdata$z900_1F24 DD imagerel $LN10
	DD	imagerel $LN10+163
	DD	imagerel $unwind$z900_1F24
$pdata$z900_1F25 DD imagerel $LN10
	DD	imagerel $LN10+163
	DD	imagerel $unwind$z900_1F25
$pdata$z900_1F26 DD imagerel $LN10
	DD	imagerel $LN10+163
	DD	imagerel $unwind$z900_1F26
$pdata$z900_1F27 DD imagerel $LN10
	DD	imagerel $LN10+163
	DD	imagerel $unwind$z900_1F27
$pdata$z900_1F28 DD imagerel $LN10
	DD	imagerel $LN10+163
	DD	imagerel $unwind$z900_1F28
$pdata$z900_1F29 DD imagerel $LN10
	DD	imagerel $LN10+163
	DD	imagerel $unwind$z900_1F29
$pdata$z900_1F2A DD imagerel $LN10
	DD	imagerel $LN10+163
	DD	imagerel $unwind$z900_1F2A
$pdata$z900_1F2B DD imagerel $LN10
	DD	imagerel $LN10+163
	DD	imagerel $unwind$z900_1F2B
$pdata$z900_1F2C DD imagerel $LN10
	DD	imagerel $LN10+163
	DD	imagerel $unwind$z900_1F2C
$pdata$z900_1F2D DD imagerel $LN10
	DD	imagerel $LN10+163
	DD	imagerel $unwind$z900_1F2D
$pdata$z900_1F2E DD imagerel $LN10
	DD	imagerel $LN10+163
	DD	imagerel $unwind$z900_1F2E
$pdata$z900_1F2F DD imagerel $LN10
	DD	imagerel $LN10+163
	DD	imagerel $unwind$z900_1F2F
$pdata$z900_1F30 DD imagerel $LN10
	DD	imagerel $LN10+163
	DD	imagerel $unwind$z900_1F30
$pdata$z900_1F31 DD imagerel $LN10
	DD	imagerel $LN10+163
	DD	imagerel $unwind$z900_1F31
$pdata$z900_1F32 DD imagerel $LN10
	DD	imagerel $LN10+163
	DD	imagerel $unwind$z900_1F32
$pdata$z900_1F33 DD imagerel $LN10
	DD	imagerel $LN10+163
	DD	imagerel $unwind$z900_1F33
$pdata$z900_1F34 DD imagerel $LN10
	DD	imagerel $LN10+163
	DD	imagerel $unwind$z900_1F34
$pdata$z900_1F35 DD imagerel $LN10
	DD	imagerel $LN10+163
	DD	imagerel $unwind$z900_1F35
$pdata$z900_1F36 DD imagerel $LN10
	DD	imagerel $LN10+163
	DD	imagerel $unwind$z900_1F36
$pdata$z900_1F37 DD imagerel $LN10
	DD	imagerel $LN10+163
	DD	imagerel $unwind$z900_1F37
$pdata$z900_1F38 DD imagerel $LN10
	DD	imagerel $LN10+163
	DD	imagerel $unwind$z900_1F38
$pdata$z900_1F39 DD imagerel $LN10
	DD	imagerel $LN10+163
	DD	imagerel $unwind$z900_1F39
$pdata$z900_1F3A DD imagerel $LN10
	DD	imagerel $LN10+163
	DD	imagerel $unwind$z900_1F3A
$pdata$z900_1F3B DD imagerel $LN10
	DD	imagerel $LN10+163
	DD	imagerel $unwind$z900_1F3B
$pdata$z900_1F3C DD imagerel $LN10
	DD	imagerel $LN10+163
	DD	imagerel $unwind$z900_1F3C
$pdata$z900_1F3D DD imagerel $LN10
	DD	imagerel $LN10+163
	DD	imagerel $unwind$z900_1F3D
$pdata$z900_1F3E DD imagerel $LN10
	DD	imagerel $LN10+163
	DD	imagerel $unwind$z900_1F3E
$pdata$z900_1F3F DD imagerel $LN10
	DD	imagerel $LN10+163
	DD	imagerel $unwind$z900_1F3F
$pdata$z900_1F40 DD imagerel $LN10
	DD	imagerel $LN10+163
	DD	imagerel $unwind$z900_1F40
$pdata$z900_1F41 DD imagerel $LN10
	DD	imagerel $LN10+163
	DD	imagerel $unwind$z900_1F41
$pdata$z900_1F42 DD imagerel $LN10
	DD	imagerel $LN10+163
	DD	imagerel $unwind$z900_1F42
$pdata$z900_1F43 DD imagerel $LN10
	DD	imagerel $LN10+163
	DD	imagerel $unwind$z900_1F43
$pdata$z900_1F44 DD imagerel $LN10
	DD	imagerel $LN10+163
	DD	imagerel $unwind$z900_1F44
$pdata$z900_1F45 DD imagerel $LN10
	DD	imagerel $LN10+163
	DD	imagerel $unwind$z900_1F45
$pdata$z900_1F46 DD imagerel $LN10
	DD	imagerel $LN10+163
	DD	imagerel $unwind$z900_1F46
$pdata$z900_1F47 DD imagerel $LN10
	DD	imagerel $LN10+163
	DD	imagerel $unwind$z900_1F47
$pdata$z900_1F48 DD imagerel $LN10
	DD	imagerel $LN10+163
	DD	imagerel $unwind$z900_1F48
$pdata$z900_1F49 DD imagerel $LN10
	DD	imagerel $LN10+163
	DD	imagerel $unwind$z900_1F49
$pdata$z900_1F4A DD imagerel $LN10
	DD	imagerel $LN10+163
	DD	imagerel $unwind$z900_1F4A
$pdata$z900_1F4B DD imagerel $LN10
	DD	imagerel $LN10+163
	DD	imagerel $unwind$z900_1F4B
$pdata$z900_1F4C DD imagerel $LN10
	DD	imagerel $LN10+163
	DD	imagerel $unwind$z900_1F4C
$pdata$z900_1F4D DD imagerel $LN10
	DD	imagerel $LN10+163
	DD	imagerel $unwind$z900_1F4D
$pdata$z900_1F4E DD imagerel $LN10
	DD	imagerel $LN10+163
	DD	imagerel $unwind$z900_1F4E
$pdata$z900_1F4F DD imagerel $LN10
	DD	imagerel $LN10+163
	DD	imagerel $unwind$z900_1F4F
$pdata$z900_1F50 DD imagerel $LN10
	DD	imagerel $LN10+163
	DD	imagerel $unwind$z900_1F50
$pdata$z900_1F51 DD imagerel $LN10
	DD	imagerel $LN10+163
	DD	imagerel $unwind$z900_1F51
$pdata$z900_1F52 DD imagerel $LN10
	DD	imagerel $LN10+163
	DD	imagerel $unwind$z900_1F52
$pdata$z900_1F53 DD imagerel $LN10
	DD	imagerel $LN10+163
	DD	imagerel $unwind$z900_1F53
$pdata$z900_1F54 DD imagerel $LN10
	DD	imagerel $LN10+163
	DD	imagerel $unwind$z900_1F54
$pdata$z900_1F55 DD imagerel $LN10
	DD	imagerel $LN10+163
	DD	imagerel $unwind$z900_1F55
$pdata$z900_1F56 DD imagerel $LN10
	DD	imagerel $LN10+163
	DD	imagerel $unwind$z900_1F56
$pdata$z900_1F57 DD imagerel $LN10
	DD	imagerel $LN10+163
	DD	imagerel $unwind$z900_1F57
$pdata$z900_1F58 DD imagerel $LN10
	DD	imagerel $LN10+163
	DD	imagerel $unwind$z900_1F58
$pdata$z900_1F59 DD imagerel $LN10
	DD	imagerel $LN10+163
	DD	imagerel $unwind$z900_1F59
$pdata$z900_1F5A DD imagerel $LN10
	DD	imagerel $LN10+163
	DD	imagerel $unwind$z900_1F5A
$pdata$z900_1F5B DD imagerel $LN10
	DD	imagerel $LN10+163
	DD	imagerel $unwind$z900_1F5B
$pdata$z900_1F5C DD imagerel $LN10
	DD	imagerel $LN10+163
	DD	imagerel $unwind$z900_1F5C
$pdata$z900_1F5D DD imagerel $LN10
	DD	imagerel $LN10+163
	DD	imagerel $unwind$z900_1F5D
$pdata$z900_1F5E DD imagerel $LN10
	DD	imagerel $LN10+163
	DD	imagerel $unwind$z900_1F5E
$pdata$z900_1F5F DD imagerel $LN10
	DD	imagerel $LN10+163
	DD	imagerel $unwind$z900_1F5F
$pdata$z900_1F60 DD imagerel $LN10
	DD	imagerel $LN10+163
	DD	imagerel $unwind$z900_1F60
$pdata$z900_1F61 DD imagerel $LN10
	DD	imagerel $LN10+163
	DD	imagerel $unwind$z900_1F61
$pdata$z900_1F62 DD imagerel $LN10
	DD	imagerel $LN10+163
	DD	imagerel $unwind$z900_1F62
$pdata$z900_1F63 DD imagerel $LN10
	DD	imagerel $LN10+163
	DD	imagerel $unwind$z900_1F63
$pdata$z900_1F64 DD imagerel $LN10
	DD	imagerel $LN10+163
	DD	imagerel $unwind$z900_1F64
$pdata$z900_1F65 DD imagerel $LN10
	DD	imagerel $LN10+163
	DD	imagerel $unwind$z900_1F65
$pdata$z900_1F66 DD imagerel $LN10
	DD	imagerel $LN10+163
	DD	imagerel $unwind$z900_1F66
$pdata$z900_1F67 DD imagerel $LN10
	DD	imagerel $LN10+163
	DD	imagerel $unwind$z900_1F67
$pdata$z900_1F68 DD imagerel $LN10
	DD	imagerel $LN10+163
	DD	imagerel $unwind$z900_1F68
$pdata$z900_1F69 DD imagerel $LN10
	DD	imagerel $LN10+163
	DD	imagerel $unwind$z900_1F69
$pdata$z900_1F6A DD imagerel $LN10
	DD	imagerel $LN10+163
	DD	imagerel $unwind$z900_1F6A
$pdata$z900_1F6B DD imagerel $LN10
	DD	imagerel $LN10+163
	DD	imagerel $unwind$z900_1F6B
$pdata$z900_1F6C DD imagerel $LN10
	DD	imagerel $LN10+163
	DD	imagerel $unwind$z900_1F6C
$pdata$z900_1F6D DD imagerel $LN10
	DD	imagerel $LN10+163
	DD	imagerel $unwind$z900_1F6D
$pdata$z900_1F6E DD imagerel $LN10
	DD	imagerel $LN10+163
	DD	imagerel $unwind$z900_1F6E
$pdata$z900_1F6F DD imagerel $LN10
	DD	imagerel $LN10+163
	DD	imagerel $unwind$z900_1F6F
$pdata$z900_1F70 DD imagerel $LN10
	DD	imagerel $LN10+163
	DD	imagerel $unwind$z900_1F70
$pdata$z900_1F71 DD imagerel $LN10
	DD	imagerel $LN10+163
	DD	imagerel $unwind$z900_1F71
$pdata$z900_1F72 DD imagerel $LN10
	DD	imagerel $LN10+163
	DD	imagerel $unwind$z900_1F72
$pdata$z900_1F73 DD imagerel $LN10
	DD	imagerel $LN10+163
	DD	imagerel $unwind$z900_1F73
$pdata$z900_1F74 DD imagerel $LN10
	DD	imagerel $LN10+163
	DD	imagerel $unwind$z900_1F74
$pdata$z900_1F75 DD imagerel $LN10
	DD	imagerel $LN10+163
	DD	imagerel $unwind$z900_1F75
$pdata$z900_1F76 DD imagerel $LN10
	DD	imagerel $LN10+163
	DD	imagerel $unwind$z900_1F76
$pdata$z900_1F77 DD imagerel $LN10
	DD	imagerel $LN10+163
	DD	imagerel $unwind$z900_1F77
$pdata$z900_1F78 DD imagerel $LN10
	DD	imagerel $LN10+163
	DD	imagerel $unwind$z900_1F78
$pdata$z900_1F79 DD imagerel $LN10
	DD	imagerel $LN10+163
	DD	imagerel $unwind$z900_1F79
$pdata$z900_1F7A DD imagerel $LN10
	DD	imagerel $LN10+163
	DD	imagerel $unwind$z900_1F7A
$pdata$z900_1F7B DD imagerel $LN10
	DD	imagerel $LN10+163
	DD	imagerel $unwind$z900_1F7B
$pdata$z900_1F7C DD imagerel $LN10
	DD	imagerel $LN10+163
	DD	imagerel $unwind$z900_1F7C
$pdata$z900_1F7D DD imagerel $LN10
	DD	imagerel $LN10+163
	DD	imagerel $unwind$z900_1F7D
$pdata$z900_1F7E DD imagerel $LN10
	DD	imagerel $LN10+163
	DD	imagerel $unwind$z900_1F7E
$pdata$z900_1F7F DD imagerel $LN10
	DD	imagerel $LN10+163
	DD	imagerel $unwind$z900_1F7F
$pdata$z900_1F80 DD imagerel $LN10
	DD	imagerel $LN10+163
	DD	imagerel $unwind$z900_1F80
$pdata$z900_1F81 DD imagerel $LN10
	DD	imagerel $LN10+163
	DD	imagerel $unwind$z900_1F81
$pdata$z900_1F82 DD imagerel $LN10
	DD	imagerel $LN10+163
	DD	imagerel $unwind$z900_1F82
$pdata$z900_1F83 DD imagerel $LN10
	DD	imagerel $LN10+163
	DD	imagerel $unwind$z900_1F83
$pdata$z900_1F84 DD imagerel $LN10
	DD	imagerel $LN10+163
	DD	imagerel $unwind$z900_1F84
$pdata$z900_1F85 DD imagerel $LN10
	DD	imagerel $LN10+163
	DD	imagerel $unwind$z900_1F85
$pdata$z900_1F86 DD imagerel $LN10
	DD	imagerel $LN10+163
	DD	imagerel $unwind$z900_1F86
$pdata$z900_1F87 DD imagerel $LN10
	DD	imagerel $LN10+163
	DD	imagerel $unwind$z900_1F87
$pdata$z900_1F88 DD imagerel $LN10
	DD	imagerel $LN10+163
	DD	imagerel $unwind$z900_1F88
$pdata$z900_1F89 DD imagerel $LN10
	DD	imagerel $LN10+163
	DD	imagerel $unwind$z900_1F89
$pdata$z900_1F8A DD imagerel $LN10
	DD	imagerel $LN10+163
	DD	imagerel $unwind$z900_1F8A
$pdata$z900_1F8B DD imagerel $LN10
	DD	imagerel $LN10+163
	DD	imagerel $unwind$z900_1F8B
$pdata$z900_1F8C DD imagerel $LN10
	DD	imagerel $LN10+163
	DD	imagerel $unwind$z900_1F8C
$pdata$z900_1F8D DD imagerel $LN10
	DD	imagerel $LN10+163
	DD	imagerel $unwind$z900_1F8D
$pdata$z900_1F8E DD imagerel $LN10
	DD	imagerel $LN10+163
	DD	imagerel $unwind$z900_1F8E
$pdata$z900_1F8F DD imagerel $LN10
	DD	imagerel $LN10+163
	DD	imagerel $unwind$z900_1F8F
$pdata$z900_1F90 DD imagerel $LN10
	DD	imagerel $LN10+163
	DD	imagerel $unwind$z900_1F90
$pdata$z900_1F91 DD imagerel $LN10
	DD	imagerel $LN10+163
	DD	imagerel $unwind$z900_1F91
$pdata$z900_1F92 DD imagerel $LN10
	DD	imagerel $LN10+163
	DD	imagerel $unwind$z900_1F92
$pdata$z900_1F93 DD imagerel $LN10
	DD	imagerel $LN10+163
	DD	imagerel $unwind$z900_1F93
$pdata$z900_1F94 DD imagerel $LN10
	DD	imagerel $LN10+163
	DD	imagerel $unwind$z900_1F94
$pdata$z900_1F95 DD imagerel $LN10
	DD	imagerel $LN10+163
	DD	imagerel $unwind$z900_1F95
$pdata$z900_1F96 DD imagerel $LN10
	DD	imagerel $LN10+163
	DD	imagerel $unwind$z900_1F96
$pdata$z900_1F97 DD imagerel $LN10
	DD	imagerel $LN10+163
	DD	imagerel $unwind$z900_1F97
$pdata$z900_1F98 DD imagerel $LN10
	DD	imagerel $LN10+163
	DD	imagerel $unwind$z900_1F98
$pdata$z900_1F99 DD imagerel $LN10
	DD	imagerel $LN10+163
	DD	imagerel $unwind$z900_1F99
$pdata$z900_1F9A DD imagerel $LN10
	DD	imagerel $LN10+163
	DD	imagerel $unwind$z900_1F9A
$pdata$z900_1F9B DD imagerel $LN10
	DD	imagerel $LN10+163
	DD	imagerel $unwind$z900_1F9B
$pdata$z900_1F9C DD imagerel $LN10
	DD	imagerel $LN10+163
	DD	imagerel $unwind$z900_1F9C
$pdata$z900_1F9D DD imagerel $LN10
	DD	imagerel $LN10+163
	DD	imagerel $unwind$z900_1F9D
$pdata$z900_1F9E DD imagerel $LN10
	DD	imagerel $LN10+163
	DD	imagerel $unwind$z900_1F9E
$pdata$z900_1F9F DD imagerel $LN10
	DD	imagerel $LN10+163
	DD	imagerel $unwind$z900_1F9F
$pdata$z900_1FA0 DD imagerel $LN10
	DD	imagerel $LN10+163
	DD	imagerel $unwind$z900_1FA0
$pdata$z900_1FA1 DD imagerel $LN10
	DD	imagerel $LN10+163
	DD	imagerel $unwind$z900_1FA1
$pdata$z900_1FA2 DD imagerel $LN10
	DD	imagerel $LN10+163
	DD	imagerel $unwind$z900_1FA2
$pdata$z900_1FA3 DD imagerel $LN10
	DD	imagerel $LN10+163
	DD	imagerel $unwind$z900_1FA3
$pdata$z900_1FA4 DD imagerel $LN10
	DD	imagerel $LN10+163
	DD	imagerel $unwind$z900_1FA4
$pdata$z900_1FA5 DD imagerel $LN10
	DD	imagerel $LN10+163
	DD	imagerel $unwind$z900_1FA5
$pdata$z900_1FA6 DD imagerel $LN10
	DD	imagerel $LN10+163
	DD	imagerel $unwind$z900_1FA6
$pdata$z900_1FA7 DD imagerel $LN10
	DD	imagerel $LN10+163
	DD	imagerel $unwind$z900_1FA7
$pdata$z900_1FA8 DD imagerel $LN10
	DD	imagerel $LN10+163
	DD	imagerel $unwind$z900_1FA8
$pdata$z900_1FA9 DD imagerel $LN10
	DD	imagerel $LN10+163
	DD	imagerel $unwind$z900_1FA9
$pdata$z900_1FAA DD imagerel $LN10
	DD	imagerel $LN10+163
	DD	imagerel $unwind$z900_1FAA
$pdata$z900_1FAB DD imagerel $LN10
	DD	imagerel $LN10+163
	DD	imagerel $unwind$z900_1FAB
$pdata$z900_1FAC DD imagerel $LN10
	DD	imagerel $LN10+163
	DD	imagerel $unwind$z900_1FAC
$pdata$z900_1FAD DD imagerel $LN10
	DD	imagerel $LN10+163
	DD	imagerel $unwind$z900_1FAD
$pdata$z900_1FAE DD imagerel $LN10
	DD	imagerel $LN10+163
	DD	imagerel $unwind$z900_1FAE
$pdata$z900_1FAF DD imagerel $LN10
	DD	imagerel $LN10+163
	DD	imagerel $unwind$z900_1FAF
$pdata$z900_1FB0 DD imagerel $LN10
	DD	imagerel $LN10+163
	DD	imagerel $unwind$z900_1FB0
$pdata$z900_1FB1 DD imagerel $LN10
	DD	imagerel $LN10+163
	DD	imagerel $unwind$z900_1FB1
$pdata$z900_1FB2 DD imagerel $LN10
	DD	imagerel $LN10+163
	DD	imagerel $unwind$z900_1FB2
$pdata$z900_1FB3 DD imagerel $LN10
	DD	imagerel $LN10+163
	DD	imagerel $unwind$z900_1FB3
$pdata$z900_1FB4 DD imagerel $LN10
	DD	imagerel $LN10+163
	DD	imagerel $unwind$z900_1FB4
$pdata$z900_1FB5 DD imagerel $LN10
	DD	imagerel $LN10+163
	DD	imagerel $unwind$z900_1FB5
$pdata$z900_1FB6 DD imagerel $LN10
	DD	imagerel $LN10+163
	DD	imagerel $unwind$z900_1FB6
$pdata$z900_1FB7 DD imagerel $LN10
	DD	imagerel $LN10+163
	DD	imagerel $unwind$z900_1FB7
$pdata$z900_1FB8 DD imagerel $LN10
	DD	imagerel $LN10+163
	DD	imagerel $unwind$z900_1FB8
$pdata$z900_1FB9 DD imagerel $LN10
	DD	imagerel $LN10+163
	DD	imagerel $unwind$z900_1FB9
$pdata$z900_1FBA DD imagerel $LN10
	DD	imagerel $LN10+163
	DD	imagerel $unwind$z900_1FBA
$pdata$z900_1FBB DD imagerel $LN10
	DD	imagerel $LN10+163
	DD	imagerel $unwind$z900_1FBB
$pdata$z900_1FBC DD imagerel $LN10
	DD	imagerel $LN10+163
	DD	imagerel $unwind$z900_1FBC
$pdata$z900_1FBD DD imagerel $LN10
	DD	imagerel $LN10+163
	DD	imagerel $unwind$z900_1FBD
$pdata$z900_1FBE DD imagerel $LN10
	DD	imagerel $LN10+163
	DD	imagerel $unwind$z900_1FBE
$pdata$z900_1FBF DD imagerel $LN10
	DD	imagerel $LN10+163
	DD	imagerel $unwind$z900_1FBF
$pdata$z900_1FC0 DD imagerel $LN10
	DD	imagerel $LN10+163
	DD	imagerel $unwind$z900_1FC0
$pdata$z900_1FC1 DD imagerel $LN10
	DD	imagerel $LN10+163
	DD	imagerel $unwind$z900_1FC1
$pdata$z900_1FC2 DD imagerel $LN10
	DD	imagerel $LN10+163
	DD	imagerel $unwind$z900_1FC2
$pdata$z900_1FC3 DD imagerel $LN10
	DD	imagerel $LN10+163
	DD	imagerel $unwind$z900_1FC3
$pdata$z900_1FC4 DD imagerel $LN10
	DD	imagerel $LN10+163
	DD	imagerel $unwind$z900_1FC4
$pdata$z900_1FC5 DD imagerel $LN10
	DD	imagerel $LN10+163
	DD	imagerel $unwind$z900_1FC5
$pdata$z900_1FC6 DD imagerel $LN10
	DD	imagerel $LN10+163
	DD	imagerel $unwind$z900_1FC6
$pdata$z900_1FC7 DD imagerel $LN10
	DD	imagerel $LN10+163
	DD	imagerel $unwind$z900_1FC7
$pdata$z900_1FC8 DD imagerel $LN10
	DD	imagerel $LN10+163
	DD	imagerel $unwind$z900_1FC8
$pdata$z900_1FC9 DD imagerel $LN10
	DD	imagerel $LN10+163
	DD	imagerel $unwind$z900_1FC9
$pdata$z900_1FCA DD imagerel $LN10
	DD	imagerel $LN10+163
	DD	imagerel $unwind$z900_1FCA
$pdata$z900_1FCB DD imagerel $LN10
	DD	imagerel $LN10+163
	DD	imagerel $unwind$z900_1FCB
$pdata$z900_1FCC DD imagerel $LN10
	DD	imagerel $LN10+163
	DD	imagerel $unwind$z900_1FCC
$pdata$z900_1FCD DD imagerel $LN10
	DD	imagerel $LN10+163
	DD	imagerel $unwind$z900_1FCD
$pdata$z900_1FCE DD imagerel $LN10
	DD	imagerel $LN10+163
	DD	imagerel $unwind$z900_1FCE
$pdata$z900_1FCF DD imagerel $LN10
	DD	imagerel $LN10+163
	DD	imagerel $unwind$z900_1FCF
$pdata$z900_1FD0 DD imagerel $LN10
	DD	imagerel $LN10+163
	DD	imagerel $unwind$z900_1FD0
$pdata$z900_1FD1 DD imagerel $LN10
	DD	imagerel $LN10+163
	DD	imagerel $unwind$z900_1FD1
$pdata$z900_1FD2 DD imagerel $LN10
	DD	imagerel $LN10+163
	DD	imagerel $unwind$z900_1FD2
$pdata$z900_1FD3 DD imagerel $LN10
	DD	imagerel $LN10+163
	DD	imagerel $unwind$z900_1FD3
$pdata$z900_1FD4 DD imagerel $LN10
	DD	imagerel $LN10+163
	DD	imagerel $unwind$z900_1FD4
$pdata$z900_1FD5 DD imagerel $LN10
	DD	imagerel $LN10+163
	DD	imagerel $unwind$z900_1FD5
$pdata$z900_1FD6 DD imagerel $LN10
	DD	imagerel $LN10+163
	DD	imagerel $unwind$z900_1FD6
$pdata$z900_1FD7 DD imagerel $LN10
	DD	imagerel $LN10+163
	DD	imagerel $unwind$z900_1FD7
$pdata$z900_1FD8 DD imagerel $LN10
	DD	imagerel $LN10+163
	DD	imagerel $unwind$z900_1FD8
$pdata$z900_1FD9 DD imagerel $LN10
	DD	imagerel $LN10+163
	DD	imagerel $unwind$z900_1FD9
$pdata$z900_1FDA DD imagerel $LN10
	DD	imagerel $LN10+163
	DD	imagerel $unwind$z900_1FDA
$pdata$z900_1FDB DD imagerel $LN10
	DD	imagerel $LN10+163
	DD	imagerel $unwind$z900_1FDB
$pdata$z900_1FDC DD imagerel $LN10
	DD	imagerel $LN10+163
	DD	imagerel $unwind$z900_1FDC
$pdata$z900_1FDD DD imagerel $LN10
	DD	imagerel $LN10+163
	DD	imagerel $unwind$z900_1FDD
$pdata$z900_1FDE DD imagerel $LN10
	DD	imagerel $LN10+163
	DD	imagerel $unwind$z900_1FDE
$pdata$z900_1FDF DD imagerel $LN10
	DD	imagerel $LN10+163
	DD	imagerel $unwind$z900_1FDF
$pdata$z900_1FE0 DD imagerel $LN10
	DD	imagerel $LN10+163
	DD	imagerel $unwind$z900_1FE0
$pdata$z900_1FE1 DD imagerel $LN10
	DD	imagerel $LN10+163
	DD	imagerel $unwind$z900_1FE1
$pdata$z900_1FE2 DD imagerel $LN10
	DD	imagerel $LN10+163
	DD	imagerel $unwind$z900_1FE2
$pdata$z900_1FE3 DD imagerel $LN10
	DD	imagerel $LN10+163
	DD	imagerel $unwind$z900_1FE3
$pdata$z900_1FE4 DD imagerel $LN10
	DD	imagerel $LN10+163
	DD	imagerel $unwind$z900_1FE4
$pdata$z900_1FE5 DD imagerel $LN10
	DD	imagerel $LN10+163
	DD	imagerel $unwind$z900_1FE5
$pdata$z900_1FE6 DD imagerel $LN10
	DD	imagerel $LN10+163
	DD	imagerel $unwind$z900_1FE6
$pdata$z900_1FE7 DD imagerel $LN10
	DD	imagerel $LN10+163
	DD	imagerel $unwind$z900_1FE7
$pdata$z900_1FE8 DD imagerel $LN10
	DD	imagerel $LN10+163
	DD	imagerel $unwind$z900_1FE8
$pdata$z900_1FE9 DD imagerel $LN10
	DD	imagerel $LN10+163
	DD	imagerel $unwind$z900_1FE9
$pdata$z900_1FEA DD imagerel $LN10
	DD	imagerel $LN10+163
	DD	imagerel $unwind$z900_1FEA
$pdata$z900_1FEB DD imagerel $LN10
	DD	imagerel $LN10+163
	DD	imagerel $unwind$z900_1FEB
$pdata$z900_1FEC DD imagerel $LN10
	DD	imagerel $LN10+163
	DD	imagerel $unwind$z900_1FEC
$pdata$z900_1FED DD imagerel $LN10
	DD	imagerel $LN10+163
	DD	imagerel $unwind$z900_1FED
$pdata$z900_1FEE DD imagerel $LN10
	DD	imagerel $LN10+163
	DD	imagerel $unwind$z900_1FEE
$pdata$z900_1FEF DD imagerel $LN10
	DD	imagerel $LN10+163
	DD	imagerel $unwind$z900_1FEF
$pdata$z900_1FF0 DD imagerel $LN10
	DD	imagerel $LN10+163
	DD	imagerel $unwind$z900_1FF0
$pdata$z900_1FF1 DD imagerel $LN10
	DD	imagerel $LN10+163
	DD	imagerel $unwind$z900_1FF1
$pdata$z900_1FF2 DD imagerel $LN10
	DD	imagerel $LN10+163
	DD	imagerel $unwind$z900_1FF2
$pdata$z900_1FF3 DD imagerel $LN10
	DD	imagerel $LN10+163
	DD	imagerel $unwind$z900_1FF3
$pdata$z900_1FF4 DD imagerel $LN10
	DD	imagerel $LN10+163
	DD	imagerel $unwind$z900_1FF4
$pdata$z900_1FF5 DD imagerel $LN10
	DD	imagerel $LN10+163
	DD	imagerel $unwind$z900_1FF5
$pdata$z900_1FF6 DD imagerel $LN10
	DD	imagerel $LN10+163
	DD	imagerel $unwind$z900_1FF6
$pdata$z900_1FF7 DD imagerel $LN10
	DD	imagerel $LN10+163
	DD	imagerel $unwind$z900_1FF7
$pdata$z900_1FF8 DD imagerel $LN10
	DD	imagerel $LN10+163
	DD	imagerel $unwind$z900_1FF8
$pdata$z900_1FF9 DD imagerel $LN10
	DD	imagerel $LN10+163
	DD	imagerel $unwind$z900_1FF9
$pdata$z900_1FFA DD imagerel $LN10
	DD	imagerel $LN10+163
	DD	imagerel $unwind$z900_1FFA
$pdata$z900_1FFB DD imagerel $LN10
	DD	imagerel $LN10+163
	DD	imagerel $unwind$z900_1FFB
$pdata$z900_1FFC DD imagerel $LN10
	DD	imagerel $LN10+163
	DD	imagerel $unwind$z900_1FFC
$pdata$z900_1FFD DD imagerel $LN10
	DD	imagerel $LN10+163
	DD	imagerel $unwind$z900_1FFD
$pdata$z900_1FFE DD imagerel $LN10
	DD	imagerel $LN10+163
	DD	imagerel $unwind$z900_1FFE
$pdata$z900_1FFF DD imagerel $LN10
	DD	imagerel $LN10+163
	DD	imagerel $unwind$z900_1FFF
pdata	ENDS
;	COMDAT pdata
pdata	SEGMENT
$pdata$z900__or_storage_key DD imagerel $LN8
	DD	imagerel $LN8+159
	DD	imagerel $unwind$z900__or_storage_key
pdata	ENDS
;	COMDAT pdata
pdata	SEGMENT
$pdata$z900_or_4K_storage_key DD imagerel $LN3
	DD	imagerel $LN3+42
	DD	imagerel $unwind$z900_or_4K_storage_key
pdata	ENDS
;	COMDAT pdata
pdata	SEGMENT
$pdata$z900_or_storage_key DD imagerel $LN3
	DD	imagerel $LN3+33
	DD	imagerel $unwind$z900_or_storage_key
pdata	ENDS
;	COMDAT pdata
pdata	SEGMENT
$pdata$z900_or_storage_key_by_ptr DD imagerel $LN3
	DD	imagerel $LN3+67
	DD	imagerel $unwind$z900_or_storage_key_by_ptr
pdata	ENDS
;	COMDAT pdata
pdata	SEGMENT
$pdata$z900_per3_zero DD imagerel $LN12
	DD	imagerel $LN12+215
	DD	imagerel $unwind$z900_per3_zero
pdata	ENDS
;	COMDAT pdata
pdata	SEGMENT
$pdata$z900_per3_zero_check DD imagerel $LN6
	DD	imagerel $LN6+101
	DD	imagerel $unwind$z900_per3_zero_check
pdata	ENDS
;	COMDAT pdata
pdata	SEGMENT
$pdata$z900_per3_zero_check2 DD imagerel $LN9
	DD	imagerel $LN9+189
	DD	imagerel $unwind$z900_per3_zero_check2
pdata	ENDS
;	COMDAT pdata
pdata	SEGMENT
$pdata$z900_per3_zero_lcheck DD imagerel $LN8
	DD	imagerel $LN8+190
	DD	imagerel $unwind$z900_per3_zero_lcheck
pdata	ENDS
;	COMDAT pdata
pdata	SEGMENT
$pdata$z900_per3_zero_lcheck2 DD imagerel $LN14
	DD	imagerel $LN14+366
	DD	imagerel $unwind$z900_per3_zero_lcheck2
pdata	ENDS
;	COMDAT pdata
pdata	SEGMENT
$pdata$z900_per3_zero_xcheck DD imagerel $LN6
	DD	imagerel $LN6+108
	DD	imagerel $unwind$z900_per3_zero_xcheck
pdata	ENDS
;	COMDAT pdata
pdata	SEGMENT
$pdata$z900_per3_zero_xcheck2 DD imagerel $LN18
	DD	imagerel $LN18+485
	DD	imagerel $unwind$z900_per3_zero_xcheck2
pdata	ENDS
;	COMDAT pdata
pdata	SEGMENT
$pdata$z900_maddr_l DD imagerel $LN18
	DD	imagerel $LN18+657
	DD	imagerel $unwind$z900_maddr_l
pdata	ENDS
;	COMDAT pdata
pdata	SEGMENT
$pdata$z900_vstore2_full DD imagerel $LN3
	DD	imagerel $LN3+216
	DD	imagerel $unwind$z900_vstore2_full
pdata	ENDS
;	COMDAT pdata
pdata	SEGMENT
$pdata$z900_vstore4_full DD imagerel $LN3
	DD	imagerel $LN3+332
	DD	imagerel $unwind$z900_vstore4_full
pdata	ENDS
;	COMDAT pdata
pdata	SEGMENT
$pdata$z900_vstore8_full DD imagerel $LN3
	DD	imagerel $LN3+375
	DD	imagerel $unwind$z900_vstore8_full
pdata	ENDS
;	COMDAT pdata
pdata	SEGMENT
$pdata$z900_vfetch2_full DD imagerel $LN3
	DD	imagerel $LN3+186
	DD	imagerel $unwind$z900_vfetch2_full
pdata	ENDS
;	COMDAT pdata
pdata	SEGMENT
$pdata$z900_vfetch4_full DD imagerel $LN3
	DD	imagerel $LN3+307
	DD	imagerel $unwind$z900_vfetch4_full
pdata	ENDS
;	COMDAT pdata
pdata	SEGMENT
$pdata$z900_vfetch8_full DD imagerel $LN3
	DD	imagerel $LN3+307
	DD	imagerel $unwind$z900_vfetch8_full
pdata	ENDS
;	COMDAT pdata
pdata	SEGMENT
$pdata$z900_vstorec DD imagerel $LN9
	DD	imagerel $LN9+511
	DD	imagerel $unwind$z900_vstorec
pdata	ENDS
;	COMDAT pdata
pdata	SEGMENT
$pdata$z900_vstoreb DD imagerel $LN3
	DD	imagerel $LN3+91
	DD	imagerel $unwind$z900_vstoreb
pdata	ENDS
;	COMDAT pdata
pdata	SEGMENT
$pdata$z900_vstore2 DD imagerel $LN9
	DD	imagerel $LN9+188
	DD	imagerel $unwind$z900_vstore2
pdata	ENDS
;	COMDAT pdata
pdata	SEGMENT
$pdata$z900_vstore4 DD imagerel $LN12
	DD	imagerel $LN12+209
	DD	imagerel $unwind$z900_vstore4
pdata	ENDS
;	COMDAT pdata
pdata	SEGMENT
$pdata$z900_vstore8 DD imagerel $LN9
	DD	imagerel $LN9+174
	DD	imagerel $unwind$z900_vstore8
pdata	ENDS
;	COMDAT pdata
pdata	SEGMENT
$pdata$z900_vfetchc DD imagerel $LN9
	DD	imagerel $LN9+445
	DD	imagerel $unwind$z900_vfetchc
pdata	ENDS
;	COMDAT pdata
pdata	SEGMENT
$pdata$z900_vfetchb DD imagerel $LN3
	DD	imagerel $LN3+82
	DD	imagerel $unwind$z900_vfetchb
pdata	ENDS
;	COMDAT pdata
pdata	SEGMENT
$pdata$z900_vfetch2 DD imagerel $LN11
	DD	imagerel $LN11+196
	DD	imagerel $unwind$z900_vfetch2
pdata	ENDS
;	COMDAT pdata
pdata	SEGMENT
$pdata$z900_vfetch4 DD imagerel $LN11
	DD	imagerel $LN11+195
	DD	imagerel $unwind$z900_vfetch4
pdata	ENDS
;	COMDAT pdata
pdata	SEGMENT
$pdata$z900_vfetch8 DD imagerel $LN8
	DD	imagerel $LN8+157
	DD	imagerel $unwind$z900_vfetch8
pdata	ENDS
;	COMDAT pdata
pdata	SEGMENT
$pdata$z900_validate_operand DD imagerel $LN8
	DD	imagerel $LN8+195
	DD	imagerel $unwind$z900_validate_operand
pdata	ENDS
pdata	SEGMENT
$pdata$z900_translate_and_test_xxx_extended DD imagerel $LN84
	DD	imagerel $LN84+2316
	DD	imagerel $unwind$z900_translate_and_test_xxx_extended
pdata	ENDS
_DATA	SEGMENT
$SG185707 DB	'C:\papa\MyGit\hyperion-zvector\general2.c:407', 00H
	ORG $+2
$SG185708 DB	'*PLO', 00H
	ORG $+3
$SG185710 DB	'C:\papa\MyGit\hyperion-zvector\general2.c:419', 00H
	ORG $+2
$SG185725 DB	'C:\papa\MyGit\hyperion-zvector\general2.c:526', 00H
	ORG $+2
$SG185728 DB	'C:\papa\MyGit\hyperion-zvector\general2.c:530', 00H
	ORG $+2
$SG185729 DB	'*PLO', 00H
	ORG $+3
$SG202795 DB	'C:\papa\MyGit\hyperion-zvector\general2.c:140', 00H
	ORG $+2
$SG202849 DB	'C:\papa\MyGit\hyperion-zvector\general2.c:302', 00H
	ORG $+2
$SG202905 DB	'C:\papa\MyGit\hyperion-zvector\general2.c:367', 00H
	ORG $+2
$SG202935 DB	'C:\papa\MyGit\hyperion-zvector\general2.c:407', 00H
	ORG $+2
$SG202936 DB	'*PLO', 00H
	ORG $+3
$SG202938 DB	'C:\papa\MyGit\hyperion-zvector\general2.c:419', 00H
	ORG $+2
$SG202965 DB	'C:\papa\MyGit\hyperion-zvector\general2.c:526', 00H
	ORG $+2
$SG202968 DB	'C:\papa\MyGit\hyperion-zvector\general2.c:530', 00H
	ORG $+2
$SG202969 DB	'*PLO', 00H
	ORG $+3
$SG203021 DB	'C:\papa\MyGit\hyperion-zvector\general2.c:555', 00H
	ORG $+2
$SG203057 DB	'C:\papa\MyGit\hyperion-zvector\general2.c:719', 00H
	ORG $+2
$SG206617 DB	'C:\papa\MyGit\hyperion-zvector\general2.c:1557', 00H
	ORG $+1
$SG206654 DB	'C:\papa\MyGit\hyperion-zvector\general2.c:1630', 00H
	ORG $+1
$SG206898 DB	'C:\papa\MyGit\hyperion-zvector\general2.c:1828', 00H
	ORG $+1
$SG206953 DB	'C:\papa\MyGit\hyperion-zvector\general2.c:1904', 00H
	ORG $+1
$SG207006 DB	'C:\papa\MyGit\hyperion-zvector\general2.c:2010', 00H
	ORG $+1
$SG207046 DB	'C:\papa\MyGit\hyperion-zvector\general2.c:2110', 00H
	ORG $+1
$SG207094 DB	'C:\papa\MyGit\hyperion-zvector\general2.c:2183', 00H
	ORG $+1
$SG207421 DB	'C:\papa\MyGit\hyperion-zvector\general2.c:2961', 00H
	ORG $+1
$SG207472 DB	'C:\papa\MyGit\hyperion-zvector\general2.c:3056', 00H
	ORG $+1
$SG207537 DB	'C:\papa\MyGit\hyperion-zvector\general2.c:3209', 00H
_DATA	ENDS
;	COMDAT ??_C@_0CM@JBMLKNGA@C?3?2papa?2MyGit?2hyperion?9zvector?2@
_DATA	SEGMENT
??_C@_0CM@JBMLKNGA@C?3?2papa?2MyGit?2hyperion?9zvector?2@ DB 'C:\papa\MyG'
	DB	'it\hyperion-zvector\inline.h:555', 00H	; `string'
_DATA	ENDS
;	COMDAT ??_C@_0CM@OMLMFJCF@C?3?2papa?2MyGit?2hyperion?9zvector?2@
_DATA	SEGMENT
??_C@_0CM@OMLMFJCF@C?3?2papa?2MyGit?2hyperion?9zvector?2@ DB 'C:\papa\MyG'
	DB	'it\hyperion-zvector\inline.h:550', 00H	; `string'
_DATA	ENDS
;	COMDAT xdata
xdata	SEGMENT
$unwind$z900_validate_operand DD 011701H
	DD	08217H
xdata	ENDS
;	COMDAT xdata
xdata	SEGMENT
$unwind$z900_vfetch8 DD 011201H
	DD	08212H
xdata	ENDS
;	COMDAT xdata
xdata	SEGMENT
$unwind$z900_vfetch4 DD 011201H
	DD	08212H
xdata	ENDS
;	COMDAT xdata
xdata	SEGMENT
$unwind$z900_vfetch2 DD 011201H
	DD	08212H
xdata	ENDS
;	COMDAT xdata
xdata	SEGMENT
$unwind$z900_vfetchb DD 011201H
	DD	08212H
xdata	ENDS
;	COMDAT xdata
xdata	SEGMENT
$unwind$z900_vfetchc DD 031901H
	DD	07015a219H
	DD	06014H
xdata	ENDS
;	COMDAT xdata
xdata	SEGMENT
$unwind$z900_vstore8 DD 011801H
	DD	08218H
xdata	ENDS
;	COMDAT xdata
xdata	SEGMENT
$unwind$z900_vstore4 DD 011701H
	DD	08217H
xdata	ENDS
;	COMDAT xdata
xdata	SEGMENT
$unwind$z900_vstore2 DD 011801H
	DD	08218H
xdata	ENDS
;	COMDAT xdata
xdata	SEGMENT
$unwind$z900_vstoreb DD 011701H
	DD	08217H
xdata	ENDS
;	COMDAT xdata
xdata	SEGMENT
$unwind$z900_vstorec DD 031901H
	DD	07015c219H
	DD	06014H
xdata	ENDS
;	COMDAT voltbl
voltbl	SEGMENT
_volmd	DW	01eH
	DW	011fH
voltbl	ENDS
;	COMDAT xdata
xdata	SEGMENT
$unwind$z900_vfetch8_full DD 032319H
	DD	07010c214H
	DD	0600fH
	DD	imagerel __GSHandlerCheck
	DD	050H
xdata	ENDS
;	COMDAT voltbl
voltbl	SEGMENT
_volmd	DW	01eH
	DW	011fH
voltbl	ENDS
;	COMDAT xdata
xdata	SEGMENT
$unwind$z900_vfetch4_full DD 032319H
	DD	07010a214H
	DD	0600fH
	DD	imagerel __GSHandlerCheck
	DD	048H
xdata	ENDS
;	COMDAT xdata
xdata	SEGMENT
$unwind$z900_vfetch2_full DD 011201H
	DD	08212H
xdata	ENDS
;	COMDAT voltbl
voltbl	SEGMENT
_volmd	DW	024H
	DW	0163H
voltbl	ENDS
;	COMDAT xdata
xdata	SEGMENT
$unwind$z900_vstore8_full DD 032919H
	DD	07016c21aH
	DD	06015H
	DD	imagerel __GSHandlerCheck
	DD	058H
xdata	ENDS
;	COMDAT xdata
xdata	SEGMENT
$unwind$z900_vstore4_full DD 031901H
	DD	07015a219H
	DD	06014H
xdata	ENDS
;	COMDAT xdata
xdata	SEGMENT
$unwind$z900_vstore2_full DD 011801H
	DD	0a218H
xdata	ENDS
;	COMDAT xdata
xdata	SEGMENT
$unwind$z900_maddr_l DD 011801H
	DD	0a218H
xdata	ENDS
;	COMDAT xdata
xdata	SEGMENT
$unwind$z900_per3_zero_xcheck2 DD 011201H
	DD	0a212H
xdata	ENDS
;	COMDAT xdata
xdata	SEGMENT
$unwind$z900_per3_zero_xcheck DD 010d01H
	DD	0620dH
xdata	ENDS
;	COMDAT xdata
xdata	SEGMENT
$unwind$z900_per3_zero_lcheck2 DD 011701H
	DD	08217H
xdata	ENDS
;	COMDAT xdata
xdata	SEGMENT
$unwind$z900_per3_zero_lcheck DD 011201H
	DD	06212H
xdata	ENDS
;	COMDAT xdata
xdata	SEGMENT
$unwind$z900_per3_zero_check2 DD 011201H
	DD	06212H
xdata	ENDS
;	COMDAT xdata
xdata	SEGMENT
$unwind$z900_per3_zero_check DD 010d01H
	DD	0620dH
xdata	ENDS
;	COMDAT xdata
xdata	SEGMENT
$unwind$z900_per3_zero DD 010901H
	DD	06209H
xdata	ENDS
;	COMDAT xdata
xdata	SEGMENT
$unwind$z900_or_storage_key_by_ptr DD 010d01H
	DD	0620dH
xdata	ENDS
;	COMDAT xdata
xdata	SEGMENT
$unwind$z900_or_storage_key DD 010d01H
	DD	0420dH
xdata	ENDS
;	COMDAT xdata
xdata	SEGMENT
$unwind$z900_or_4K_storage_key DD 010d01H
	DD	0420dH
xdata	ENDS
;	COMDAT xdata
xdata	SEGMENT
$unwind$z900__or_storage_key DD 011201H
	DD	08212H
xdata	ENDS
;	COMDAT xdata
xdata	SEGMENT
$unwind$s390_validate_operand DD 011601H
	DD	08216H
xdata	ENDS
;	COMDAT xdata
xdata	SEGMENT
$unwind$s390_vfetch4 DD 011101H
	DD	08211H
xdata	ENDS
;	COMDAT xdata
xdata	SEGMENT
$unwind$s390_vfetch2 DD 011101H
	DD	08211H
xdata	ENDS
;	COMDAT xdata
xdata	SEGMENT
$unwind$s390_vfetchb DD 011101H
	DD	08211H
xdata	ENDS
;	COMDAT xdata
xdata	SEGMENT
$unwind$s390_vfetchc DD 031901H
	DD	07015a219H
	DD	06014H
xdata	ENDS
;	COMDAT xdata
xdata	SEGMENT
$unwind$s390_vstore8 DD 011701H
	DD	08217H
xdata	ENDS
;	COMDAT xdata
xdata	SEGMENT
$unwind$s390_vstore4 DD 011601H
	DD	08216H
xdata	ENDS
;	COMDAT xdata
xdata	SEGMENT
$unwind$s390_vstore2 DD 011701H
	DD	08217H
xdata	ENDS
;	COMDAT xdata
xdata	SEGMENT
$unwind$s390_vstoreb DD 011601H
	DD	08216H
xdata	ENDS
;	COMDAT xdata
xdata	SEGMENT
$unwind$s390_vstorec DD 031901H
	DD	07015c219H
	DD	06014H
xdata	ENDS
;	COMDAT voltbl
voltbl	SEGMENT
_volmd	DW	01dH
	DW	0114H
voltbl	ENDS
;	COMDAT xdata
xdata	SEGMENT
$unwind$s390_vfetch4_full DD 032219H
	DD	0700fa213H
	DD	0600eH
	DD	imagerel __GSHandlerCheck
	DD	048H
xdata	ENDS
;	COMDAT xdata
xdata	SEGMENT
$unwind$s390_vfetch2_full DD 011101H
	DD	08211H
xdata	ENDS
;	COMDAT voltbl
voltbl	SEGMENT
_volmd	DW	023H
	DW	0158H
voltbl	ENDS
;	COMDAT xdata
xdata	SEGMENT
$unwind$s390_vstore8_full DD 032819H
	DD	07015c219H
	DD	06014H
	DD	imagerel __GSHandlerCheck
	DD	058H
xdata	ENDS
;	COMDAT xdata
xdata	SEGMENT
$unwind$s390_vstore4_full DD 031801H
	DD	07014a218H
	DD	06013H
xdata	ENDS
;	COMDAT xdata
xdata	SEGMENT
$unwind$s390_vstore2_full DD 011701H
	DD	0a217H
xdata	ENDS
;	COMDAT xdata
xdata	SEGMENT
$unwind$s390_maddr_l DD 011701H
	DD	0a217H
xdata	ENDS
;	COMDAT xdata
xdata	SEGMENT
$unwind$s390_or_storage_key_by_ptr DD 010d01H
	DD	0620dH
xdata	ENDS
;	COMDAT xdata
xdata	SEGMENT
$unwind$s390_or_storage_key DD 010d01H
	DD	0420dH
xdata	ENDS
;	COMDAT xdata
xdata	SEGMENT
$unwind$s390_or_4K_storage_key DD 010d01H
	DD	0420dH
xdata	ENDS
;	COMDAT xdata
xdata	SEGMENT
$unwind$s390__or_storage_key DD 011201H
	DD	08212H
xdata	ENDS
;	COMDAT xdata
xdata	SEGMENT
$unwind$s370_validate_operand DD 011601H
	DD	08216H
xdata	ENDS
;	COMDAT xdata
xdata	SEGMENT
$unwind$s370_vfetch4 DD 011101H
	DD	0a211H
xdata	ENDS
;	COMDAT xdata
xdata	SEGMENT
$unwind$s370_vfetch2 DD 011101H
	DD	0a211H
xdata	ENDS
;	COMDAT xdata
xdata	SEGMENT
$unwind$s370_vfetchb DD 011101H
	DD	08211H
xdata	ENDS
;	COMDAT xdata
xdata	SEGMENT
$unwind$s370_vfetchc DD 031901H
	DD	07015a219H
	DD	06014H
xdata	ENDS
;	COMDAT xdata
xdata	SEGMENT
$unwind$s370_vstore8 DD 011701H
	DD	0a217H
xdata	ENDS
;	COMDAT xdata
xdata	SEGMENT
$unwind$s370_vstore4 DD 011601H
	DD	0a216H
xdata	ENDS
;	COMDAT xdata
xdata	SEGMENT
$unwind$s370_vstore2 DD 011701H
	DD	0a217H
xdata	ENDS
;	COMDAT xdata
xdata	SEGMENT
$unwind$s370_vstoreb DD 011601H
	DD	08216H
xdata	ENDS
;	COMDAT xdata
xdata	SEGMENT
$unwind$s370_vstorec DD 031901H
	DD	07015c219H
	DD	06014H
xdata	ENDS
;	COMDAT voltbl
voltbl	SEGMENT
_volmd	DW	01dH
	DW	010cH
voltbl	ENDS
;	COMDAT xdata
xdata	SEGMENT
$unwind$s370_vfetch4_full DD 032219H
	DD	0700fa213H
	DD	0600eH
	DD	imagerel __GSHandlerCheck
	DD	048H
xdata	ENDS
;	COMDAT xdata
xdata	SEGMENT
$unwind$s370_vfetch2_full DD 011101H
	DD	08211H
xdata	ENDS
;	COMDAT voltbl
voltbl	SEGMENT
_volmd	DW	023H
	DW	0150H
voltbl	ENDS
;	COMDAT xdata
xdata	SEGMENT
$unwind$s370_vstore8_full DD 032819H
	DD	07015c219H
	DD	06014H
	DD	imagerel __GSHandlerCheck
	DD	058H
xdata	ENDS
;	COMDAT xdata
xdata	SEGMENT
$unwind$s370_vstore4_full DD 031801H
	DD	07014a218H
	DD	06013H
xdata	ENDS
;	COMDAT xdata
xdata	SEGMENT
$unwind$s370_vstore2_full DD 011701H
	DD	0a217H
xdata	ENDS
;	COMDAT xdata
xdata	SEGMENT
$unwind$s370_maddr_l DD 011701H
	DD	0a217H
xdata	ENDS
;	COMDAT xdata
xdata	SEGMENT
$unwind$s370_per1_gra DD 010901H
	DD	04209H
xdata	ENDS
;	COMDAT xdata
xdata	SEGMENT
$unwind$sub_signed DD 011201H
	DD	04212H
xdata	ENDS
;	COMDAT xdata
xdata	SEGMENT
$unwind$sub_logical DD 011201H
	DD	02212H
xdata	ENDS
;	COMDAT xdata
xdata	SEGMENT
$unwind$s370_or_storage_key_by_ptr DD 010d01H
	DD	0620dH
xdata	ENDS
;	COMDAT xdata
xdata	SEGMENT
$unwind$s370_or_storage_key DD 010d01H
	DD	0420dH
xdata	ENDS
;	COMDAT xdata
xdata	SEGMENT
$unwind$s370_or_2K_storage_key DD 010d01H
	DD	0420dH
xdata	ENDS
;	COMDAT xdata
xdata	SEGMENT
$unwind$s370__or_storage_key DD 011201H
	DD	08212H
xdata	ENDS
;	COMDAT xdata
xdata	SEGMENT
$unwind$_get_storekey_ptr DD 010d01H
	DD	0220dH
xdata	ENDS
;	COMDAT xdata
xdata	SEGMENT
$unwind$fetch_dw_noswap DD 010901H
	DD	02209H
xdata	ENDS
;	COMDAT xdata
xdata	SEGMENT
$unwind$fetch_fw_noswap DD 010901H
	DD	02209H
xdata	ENDS
;	COMDAT xdata
xdata	SEGMENT
$unwind$fetch_hw_noswap DD 010901H
	DD	02209H
xdata	ENDS
;	COMDAT xdata
xdata	SEGMENT
$unwind$cmpxchg1_x86 DD 011201H
	DD	0c212H
xdata	ENDS
;	COMDAT voltbl
voltbl	SEGMENT
_volmd	DB	035H
voltbl	ENDS
;	COMDAT xdata
xdata	SEGMENT
$unwind$cmpxchg4_x86 DD 011201H
	DD	02212H
xdata	ENDS
voltbl	SEGMENT
_volmd	DD	0ffffffffH
	DDSymXIndex: 	FLAT:z900_translate_and_test_xxx_extended
	DD	025H
	DD	08f4H
_volmd	DD	0ffffffffH
	DDSymXIndex: 	FLAT:z900_translate_and_test
	DD	025H
	DD	058cH
_volmd	DD	0ffffffffH
	DDSymXIndex: 	FLAT:z900_store_multiple
	DD	01bH
	DD	05a8H
_volmd	DD	0ffffffffH
	DDSymXIndex: 	FLAT:z900_store_clock
	DD	01aH
	DD	01fbH
_volmd	DD	0ffffffffH
	DDSymXIndex: 	FLAT:z900_translate_extended
	DD	025H
	DD	0400H
_volmd	DD	0ffffffffH
	DDSymXIndex: 	FLAT:z900_store_clock_extended
	DD	018H
	DD	01c5H
_volmd	DD	0ffffffffH
	DDSymXIndex: 	FLAT:z900_translate_and_test_reverse
	DD	025H
	DD	04adH
_volmd	DD	0ffffffffH
	DDSymXIndex: 	FLAT:s390_translate_and_test
	DD	025H
	DD	04b2H
_volmd	DD	0ffffffffH
	DDSymXIndex: 	FLAT:s390_store_multiple
	DD	01bH
	DD	0579H
_volmd	DD	0ffffffffH
	DDSymXIndex: 	FLAT:s390_store_clock
	DD	01aH
	DD	018eH
_volmd	DD	0ffffffffH
	DDSymXIndex: 	FLAT:s390_translate_extended
	DD	025H
	DD	02b0H
_volmd	DD	0ffffffffH
	DDSymXIndex: 	FLAT:s390_store_clock_extended
	DD	018H
	DD	019fH
_volmd	DD	0ffffffffH
	DDSymXIndex: 	FLAT:s370_translate_and_test_xxx_extended
	DD	025H
	DD	0691H
_volmd	DD	0ffffffffH
	DDSymXIndex: 	FLAT:s370_translate_and_test
	DD	025H
	DD	051dH
_volmd	DD	0ffffffffH
	DDSymXIndex: 	FLAT:s370_store_multiple
	DD	01bH
	DD	05c5H
_volmd	DD	0ffffffffH
	DDSymXIndex: 	FLAT:s370_store_clock
	DD	01aH
	DD	0181H
_volmd	DD	0ffffffffH
	DDSymXIndex: 	FLAT:s370_translate_extended
	DD	025H
	DD	028dH
_volmd	DD	0ffffffffH
	DDSymXIndex: 	FLAT:s370_translate_and_test_reverse
	DD	025H
	DD	03baH
_volmd	DD	0ffffffffH
	DDSymXIndex: 	FLAT:z900_or_immediate
	DD	0115H
	DD	011dH
	DD	0131H
_volmd	DD	0ffffffffH
	DDSymXIndex: 	FLAT:s390_or_immediate
	DD	0f9H
	DD	0101H
	DD	0115H
_volmd	DD	0ffffffffH
	DDSymXIndex: 	FLAT:s370_or_immediate
	DD	0157H
	DD	015fH
	DD	0173H
voltbl	ENDS
xdata	SEGMENT
$unwind$s370_convert_utf16_to_utf32 DD 021101H
	DD	0110111H
$unwind$s370_convert_utf32_to_utf16 DD 010e01H
	DD	0c20eH
$unwind$s370_convert_utf32_to_utf8 DD 010e01H
	DD	0c20eH
$unwind$s370_convert_utf8_to_utf32 DD 021101H
	DD	0130111H
$unwind$s370_search_string_unicode DD 010e01H
	DD	0820eH
$unwind$s370_translate_and_test_reverse DD 032c19H
	DD	0400112H
	DD	0500bH
	DD	imagerel __GSHandlerCheck
	DD	0184H
	DD	070H
	DD	040H
$unwind$s370_translate_and_test_extended DD 010e01H
	DD	0420eH
$unwind$s370_translate_and_test_reverse_extended DD 010e01H
	DD	0420eH
$unwind$s370_translate_extended DD 032c19H
	DD	0380112H
	DD	0500bH
	DD	imagerel __GSHandlerCheck
	DD	0144H
	DD	070H
	DD	040H
$unwind$s370_test_under_mask_high DD 010e01H
	DD	0a20eH
$unwind$s370_test_under_mask_low DD 010e01H
	DD	0a20eH
$unwind$s370_search_string DD 010e01H
	DD	0e20eH
$unwind$s370_or DD 010e01H
	DD	0a20eH
$unwind$s370_or_character DD 021101H
	DD	0210111H
$unwind$s370_or_immediate DD 010e01H
	DD	0e20eH
$unwind$s370_or_register DD 010e01H
	DD	0820eH
$unwind$s370_pack DD 010e01H
	DD	0c20eH
$unwind$s370_set_program_mask DD 010e01H
	DD	0220eH
$unwind$s370_shift_left_double DD 010e01H
	DD	0e20eH
$unwind$s370_shift_left_double_logical DD 010e01H
	DD	0a20eH
$unwind$s370_shift_left_single DD 010e01H
	DD	0c20eH
$unwind$s370_shift_left_single_logical DD 010e01H
	DD	0a20eH
$unwind$s370_shift_right_double DD 010e01H
	DD	0c20eH
$unwind$s370_shift_right_double_logical DD 010e01H
	DD	0a20eH
$unwind$s370_shift_right_single DD 010e01H
	DD	0a20eH
$unwind$s370_shift_right_single_logical DD 010e01H
	DD	0a20eH
$unwind$s370_store_characters_under_mask DD 010e01H
	DD	0a20eH
$unwind$s370_store_clock DD 031f19H
	DD	0700ce210H
	DD	0600bH
	DD	imagerel __GSHandlerCheck
	DD	060H
$unwind$s370_store_halfword DD 010e01H
	DD	0820eH
$unwind$s370_store_multiple DD 022319H
	DD	0230111H
	DD	imagerel __GSHandlerCheck
	DD	0100H
$unwind$s370_subtract DD 010e01H
	DD	0a20eH
$unwind$s370_subtract_halfword DD 010e01H
	DD	0a20eH
$unwind$s370_subtract_logical DD 010e01H
	DD	0a20eH
$unwind$s370_subtract_logical_register DD 010e01H
	DD	0820eH
$unwind$s370_subtract_register DD 010e01H
	DD	0820eH
$unwind$s370_supervisor_call DD 010e01H
	DD	0c20eH
$unwind$s370_test_and_set DD 010e01H
	DD	0c20eH
$unwind$s370_test_under_mask DD 010e01H
	DD	0820eH
$unwind$s370_translate DD 021101H
	DD	0150111H
$unwind$s370_translate_and_test DD 032c19H
	DD	0600112H
	DD	0500bH
	DD	imagerel __GSHandlerCheck
	DD	0284H
	DD	070H
	DD	040H
$unwind$s370_unpack DD 010e01H
	DD	0e20eH
$unwind$s370_update_tree DD 010e01H
	DD	0820eH
$unwind$s370_9180 DD 010e01H
	DD	0620eH
$unwind$s370_9140 DD 010e01H
	DD	0620eH
$unwind$s370_9120 DD 010e01H
	DD	0620eH
$unwind$s370_9110 DD 010e01H
	DD	0620eH
$unwind$s370_9108 DD 010e01H
	DD	0620eH
$unwind$s370_9104 DD 010e01H
	DD	0620eH
$unwind$s370_9102 DD 010e01H
	DD	0620eH
$unwind$s370_9101 DD 010e01H
	DD	0620eH
$unwind$s370_1F00 DD 010e01H
	DD	0620eH
$unwind$s370_1F01 DD 010e01H
	DD	0620eH
$unwind$s370_1F02 DD 010e01H
	DD	0620eH
$unwind$s370_1F03 DD 010e01H
	DD	0620eH
$unwind$s370_1F04 DD 010e01H
	DD	0620eH
$unwind$s370_1F05 DD 010e01H
	DD	0620eH
$unwind$s370_1F06 DD 010e01H
	DD	0620eH
$unwind$s370_1F07 DD 010e01H
	DD	0620eH
$unwind$s370_1F08 DD 010e01H
	DD	0620eH
$unwind$s370_1F09 DD 010e01H
	DD	0620eH
$unwind$s370_1F0A DD 010e01H
	DD	0620eH
$unwind$s370_1F0B DD 010e01H
	DD	0620eH
$unwind$s370_1F0C DD 010e01H
	DD	0620eH
$unwind$s370_1F0D DD 010e01H
	DD	0620eH
$unwind$s370_1F0E DD 010e01H
	DD	0620eH
$unwind$s370_1F0F DD 010e01H
	DD	0620eH
$unwind$s370_1F10 DD 010e01H
	DD	0620eH
$unwind$s370_1F11 DD 010e01H
	DD	0620eH
$unwind$s370_1F12 DD 010e01H
	DD	0620eH
$unwind$s370_1F13 DD 010e01H
	DD	0620eH
$unwind$s370_1F14 DD 010e01H
	DD	0620eH
$unwind$s370_1F15 DD 010e01H
	DD	0620eH
$unwind$s370_1F16 DD 010e01H
	DD	0620eH
$unwind$s370_1F17 DD 010e01H
	DD	0620eH
$unwind$s370_1F18 DD 010e01H
	DD	0620eH
$unwind$s370_1F19 DD 010e01H
	DD	0620eH
$unwind$s370_1F1A DD 010e01H
	DD	0620eH
$unwind$s370_1F1B DD 010e01H
	DD	0620eH
$unwind$s370_1F1C DD 010e01H
	DD	0620eH
$unwind$s370_1F1D DD 010e01H
	DD	0620eH
$unwind$s370_1F1E DD 010e01H
	DD	0620eH
$unwind$s370_1F1F DD 010e01H
	DD	0620eH
$unwind$s370_1F20 DD 010e01H
	DD	0620eH
$unwind$s370_1F21 DD 010e01H
	DD	0620eH
$unwind$s370_1F22 DD 010e01H
	DD	0620eH
$unwind$s370_1F23 DD 010e01H
	DD	0620eH
$unwind$s370_1F24 DD 010e01H
	DD	0620eH
$unwind$s370_1F25 DD 010e01H
	DD	0620eH
$unwind$s370_1F26 DD 010e01H
	DD	0620eH
$unwind$s370_1F27 DD 010e01H
	DD	0620eH
$unwind$s370_1F28 DD 010e01H
	DD	0620eH
$unwind$s370_1F29 DD 010e01H
	DD	0620eH
$unwind$s370_1F2A DD 010e01H
	DD	0620eH
$unwind$s370_1F2B DD 010e01H
	DD	0620eH
$unwind$s370_1F2C DD 010e01H
	DD	0620eH
$unwind$s370_1F2D DD 010e01H
	DD	0620eH
$unwind$s370_1F2E DD 010e01H
	DD	0620eH
$unwind$s370_1F2F DD 010e01H
	DD	0620eH
$unwind$s370_1F30 DD 010e01H
	DD	0620eH
$unwind$s370_1F31 DD 010e01H
	DD	0620eH
$unwind$s370_1F32 DD 010e01H
	DD	0620eH
$unwind$s370_1F33 DD 010e01H
	DD	0620eH
$unwind$s370_1F34 DD 010e01H
	DD	0620eH
$unwind$s370_1F35 DD 010e01H
	DD	0620eH
$unwind$s370_1F36 DD 010e01H
	DD	0620eH
$unwind$s370_1F37 DD 010e01H
	DD	0620eH
$unwind$s370_1F38 DD 010e01H
	DD	0620eH
$unwind$s370_1F39 DD 010e01H
	DD	0620eH
$unwind$s370_1F3A DD 010e01H
	DD	0620eH
$unwind$s370_1F3B DD 010e01H
	DD	0620eH
$unwind$s370_1F3C DD 010e01H
	DD	0620eH
$unwind$s370_1F3D DD 010e01H
	DD	0620eH
$unwind$s370_1F3E DD 010e01H
	DD	0620eH
$unwind$s370_1F3F DD 010e01H
	DD	0620eH
$unwind$s370_1F40 DD 010e01H
	DD	0620eH
$unwind$s370_1F41 DD 010e01H
	DD	0620eH
$unwind$s370_1F42 DD 010e01H
	DD	0620eH
$unwind$s370_1F43 DD 010e01H
	DD	0620eH
$unwind$s370_1F44 DD 010e01H
	DD	0620eH
$unwind$s370_1F45 DD 010e01H
	DD	0620eH
$unwind$s370_1F46 DD 010e01H
	DD	0620eH
$unwind$s370_1F47 DD 010e01H
	DD	0620eH
$unwind$s370_1F48 DD 010e01H
	DD	0620eH
$unwind$s370_1F49 DD 010e01H
	DD	0620eH
$unwind$s370_1F4A DD 010e01H
	DD	0620eH
$unwind$s370_1F4B DD 010e01H
	DD	0620eH
$unwind$s370_1F4C DD 010e01H
	DD	0620eH
$unwind$s370_1F4D DD 010e01H
	DD	0620eH
$unwind$s370_1F4E DD 010e01H
	DD	0620eH
$unwind$s370_1F4F DD 010e01H
	DD	0620eH
$unwind$s370_1F50 DD 010e01H
	DD	0620eH
$unwind$s370_1F51 DD 010e01H
	DD	0620eH
$unwind$s370_1F52 DD 010e01H
	DD	0620eH
$unwind$s370_1F53 DD 010e01H
	DD	0620eH
$unwind$s370_1F54 DD 010e01H
	DD	0620eH
$unwind$s370_1F55 DD 010e01H
	DD	0620eH
$unwind$s370_1F56 DD 010e01H
	DD	0620eH
$unwind$s370_1F57 DD 010e01H
	DD	0620eH
$unwind$s370_1F58 DD 010e01H
	DD	0620eH
$unwind$s370_1F59 DD 010e01H
	DD	0620eH
$unwind$s370_1F5A DD 010e01H
	DD	0620eH
$unwind$s370_1F5B DD 010e01H
	DD	0620eH
$unwind$s370_1F5C DD 010e01H
	DD	0620eH
$unwind$s370_1F5D DD 010e01H
	DD	0620eH
$unwind$s370_1F5E DD 010e01H
	DD	0620eH
$unwind$s370_1F5F DD 010e01H
	DD	0620eH
$unwind$s370_1F60 DD 010e01H
	DD	0620eH
$unwind$s370_1F61 DD 010e01H
	DD	0620eH
$unwind$s370_1F62 DD 010e01H
	DD	0620eH
$unwind$s370_1F63 DD 010e01H
	DD	0620eH
$unwind$s370_1F64 DD 010e01H
	DD	0620eH
$unwind$s370_1F65 DD 010e01H
	DD	0620eH
$unwind$s370_1F66 DD 010e01H
	DD	0620eH
$unwind$s370_1F67 DD 010e01H
	DD	0620eH
$unwind$s370_1F68 DD 010e01H
	DD	0620eH
$unwind$s370_1F69 DD 010e01H
	DD	0620eH
$unwind$s370_1F6A DD 010e01H
	DD	0620eH
$unwind$s370_1F6B DD 010e01H
	DD	0620eH
$unwind$s370_1F6C DD 010e01H
	DD	0620eH
$unwind$s370_1F6D DD 010e01H
	DD	0620eH
$unwind$s370_1F6E DD 010e01H
	DD	0620eH
$unwind$s370_1F6F DD 010e01H
	DD	0620eH
$unwind$s370_1F70 DD 010e01H
	DD	0620eH
$unwind$s370_1F71 DD 010e01H
	DD	0620eH
$unwind$s370_1F72 DD 010e01H
	DD	0620eH
$unwind$s370_1F73 DD 010e01H
	DD	0620eH
$unwind$s370_1F74 DD 010e01H
	DD	0620eH
$unwind$s370_1F75 DD 010e01H
	DD	0620eH
$unwind$s370_1F76 DD 010e01H
	DD	0620eH
$unwind$s370_1F77 DD 010e01H
	DD	0620eH
$unwind$s370_1F78 DD 010e01H
	DD	0620eH
$unwind$s370_1F79 DD 010e01H
	DD	0620eH
$unwind$s370_1F7A DD 010e01H
	DD	0620eH
$unwind$s370_1F7B DD 010e01H
	DD	0620eH
$unwind$s370_1F7C DD 010e01H
	DD	0620eH
$unwind$s370_1F7D DD 010e01H
	DD	0620eH
$unwind$s370_1F7E DD 010e01H
	DD	0620eH
$unwind$s370_1F7F DD 010e01H
	DD	0620eH
$unwind$s370_1F80 DD 010e01H
	DD	0620eH
$unwind$s370_1F81 DD 010e01H
	DD	0620eH
$unwind$s370_1F82 DD 010e01H
	DD	0620eH
$unwind$s370_1F83 DD 010e01H
	DD	0620eH
$unwind$s370_1F84 DD 010e01H
	DD	0620eH
$unwind$s370_1F85 DD 010e01H
	DD	0620eH
$unwind$s370_1F86 DD 010e01H
	DD	0620eH
$unwind$s370_1F87 DD 010e01H
	DD	0620eH
$unwind$s370_1F88 DD 010e01H
	DD	0620eH
$unwind$s370_1F89 DD 010e01H
	DD	0620eH
$unwind$s370_1F8A DD 010e01H
	DD	0620eH
$unwind$s370_1F8B DD 010e01H
	DD	0620eH
$unwind$s370_1F8C DD 010e01H
	DD	0620eH
$unwind$s370_1F8D DD 010e01H
	DD	0620eH
$unwind$s370_1F8E DD 010e01H
	DD	0620eH
$unwind$s370_1F8F DD 010e01H
	DD	0620eH
$unwind$s370_1F90 DD 010e01H
	DD	0620eH
$unwind$s370_1F91 DD 010e01H
	DD	0620eH
$unwind$s370_1F92 DD 010e01H
	DD	0620eH
$unwind$s370_1F93 DD 010e01H
	DD	0620eH
$unwind$s370_1F94 DD 010e01H
	DD	0620eH
$unwind$s370_1F95 DD 010e01H
	DD	0620eH
$unwind$s370_1F96 DD 010e01H
	DD	0620eH
$unwind$s370_1F97 DD 010e01H
	DD	0620eH
$unwind$s370_1F98 DD 010e01H
	DD	0620eH
$unwind$s370_1F99 DD 010e01H
	DD	0620eH
$unwind$s370_1F9A DD 010e01H
	DD	0620eH
$unwind$s370_1F9B DD 010e01H
	DD	0620eH
$unwind$s370_1F9C DD 010e01H
	DD	0620eH
$unwind$s370_1F9D DD 010e01H
	DD	0620eH
$unwind$s370_1F9E DD 010e01H
	DD	0620eH
$unwind$s370_1F9F DD 010e01H
	DD	0620eH
$unwind$s370_1FA0 DD 010e01H
	DD	0620eH
$unwind$s370_1FA1 DD 010e01H
	DD	0620eH
$unwind$s370_1FA2 DD 010e01H
	DD	0620eH
$unwind$s370_1FA3 DD 010e01H
	DD	0620eH
$unwind$s370_1FA4 DD 010e01H
	DD	0620eH
$unwind$s370_1FA5 DD 010e01H
	DD	0620eH
$unwind$s370_1FA6 DD 010e01H
	DD	0620eH
$unwind$s370_1FA7 DD 010e01H
	DD	0620eH
$unwind$s370_1FA8 DD 010e01H
	DD	0620eH
$unwind$s370_1FA9 DD 010e01H
	DD	0620eH
$unwind$s370_1FAA DD 010e01H
	DD	0620eH
$unwind$s370_1FAB DD 010e01H
	DD	0620eH
$unwind$s370_1FAC DD 010e01H
	DD	0620eH
$unwind$s370_1FAD DD 010e01H
	DD	0620eH
$unwind$s370_1FAE DD 010e01H
	DD	0620eH
$unwind$s370_1FAF DD 010e01H
	DD	0620eH
$unwind$s370_1FB0 DD 010e01H
	DD	0620eH
$unwind$s370_1FB1 DD 010e01H
	DD	0620eH
$unwind$s370_1FB2 DD 010e01H
	DD	0620eH
$unwind$s370_1FB3 DD 010e01H
	DD	0620eH
$unwind$s370_1FB4 DD 010e01H
	DD	0620eH
$unwind$s370_1FB5 DD 010e01H
	DD	0620eH
$unwind$s370_1FB6 DD 010e01H
	DD	0620eH
$unwind$s370_1FB7 DD 010e01H
	DD	0620eH
$unwind$s370_1FB8 DD 010e01H
	DD	0620eH
$unwind$s370_1FB9 DD 010e01H
	DD	0620eH
$unwind$s370_1FBA DD 010e01H
	DD	0620eH
$unwind$s370_1FBB DD 010e01H
	DD	0620eH
$unwind$s370_1FBC DD 010e01H
	DD	0620eH
$unwind$s370_1FBD DD 010e01H
	DD	0620eH
$unwind$s370_1FBE DD 010e01H
	DD	0620eH
$unwind$s370_1FBF DD 010e01H
	DD	0620eH
$unwind$s370_1FC0 DD 010e01H
	DD	0620eH
$unwind$s370_1FC1 DD 010e01H
	DD	0620eH
$unwind$s370_1FC2 DD 010e01H
	DD	0620eH
$unwind$s370_1FC3 DD 010e01H
	DD	0620eH
$unwind$s370_1FC4 DD 010e01H
	DD	0620eH
$unwind$s370_1FC5 DD 010e01H
	DD	0620eH
$unwind$s370_1FC6 DD 010e01H
	DD	0620eH
$unwind$s370_1FC7 DD 010e01H
	DD	0620eH
$unwind$s370_1FC8 DD 010e01H
	DD	0620eH
$unwind$s370_1FC9 DD 010e01H
	DD	0620eH
$unwind$s370_1FCA DD 010e01H
	DD	0620eH
$unwind$s370_1FCB DD 010e01H
	DD	0620eH
$unwind$s370_1FCC DD 010e01H
	DD	0620eH
$unwind$s370_1FCD DD 010e01H
	DD	0620eH
$unwind$s370_1FCE DD 010e01H
	DD	0620eH
$unwind$s370_1FCF DD 010e01H
	DD	0620eH
$unwind$s370_1FD0 DD 010e01H
	DD	0620eH
$unwind$s370_1FD1 DD 010e01H
	DD	0620eH
$unwind$s370_1FD2 DD 010e01H
	DD	0620eH
$unwind$s370_1FD3 DD 010e01H
	DD	0620eH
$unwind$s370_1FD4 DD 010e01H
	DD	0620eH
$unwind$s370_1FD5 DD 010e01H
	DD	0620eH
$unwind$s370_1FD6 DD 010e01H
	DD	0620eH
$unwind$s370_1FD7 DD 010e01H
	DD	0620eH
$unwind$s370_1FD8 DD 010e01H
	DD	0620eH
$unwind$s370_1FD9 DD 010e01H
	DD	0620eH
$unwind$s370_1FDA DD 010e01H
	DD	0620eH
$unwind$s370_1FDB DD 010e01H
	DD	0620eH
$unwind$s370_1FDC DD 010e01H
	DD	0620eH
$unwind$s370_1FDD DD 010e01H
	DD	0620eH
$unwind$s370_1FDE DD 010e01H
	DD	0620eH
$unwind$s370_1FDF DD 010e01H
	DD	0620eH
$unwind$s370_1FE0 DD 010e01H
	DD	0620eH
$unwind$s370_1FE1 DD 010e01H
	DD	0620eH
$unwind$s370_1FE2 DD 010e01H
	DD	0620eH
$unwind$s370_1FE3 DD 010e01H
	DD	0620eH
$unwind$s370_1FE4 DD 010e01H
	DD	0620eH
$unwind$s370_1FE5 DD 010e01H
	DD	0620eH
$unwind$s370_1FE6 DD 010e01H
	DD	0620eH
$unwind$s370_1FE7 DD 010e01H
	DD	0620eH
$unwind$s370_1FE8 DD 010e01H
	DD	0620eH
$unwind$s370_1FE9 DD 010e01H
	DD	0620eH
$unwind$s370_1FEA DD 010e01H
	DD	0620eH
$unwind$s370_1FEB DD 010e01H
	DD	0620eH
$unwind$s370_1FEC DD 010e01H
	DD	0620eH
$unwind$s370_1FED DD 010e01H
	DD	0620eH
$unwind$s370_1FEE DD 010e01H
	DD	0620eH
$unwind$s370_1FEF DD 010e01H
	DD	0620eH
$unwind$s370_1FF0 DD 010e01H
	DD	0620eH
$unwind$s370_1FF1 DD 010e01H
	DD	0620eH
$unwind$s370_1FF2 DD 010e01H
	DD	0620eH
$unwind$s370_1FF3 DD 010e01H
	DD	0620eH
$unwind$s370_1FF4 DD 010e01H
	DD	0620eH
$unwind$s370_1FF5 DD 010e01H
	DD	0620eH
$unwind$s370_1FF6 DD 010e01H
	DD	0620eH
$unwind$s370_1FF7 DD 010e01H
	DD	0620eH
$unwind$s370_1FF8 DD 010e01H
	DD	0620eH
$unwind$s370_1FF9 DD 010e01H
	DD	0620eH
$unwind$s370_1FFA DD 010e01H
	DD	0620eH
$unwind$s370_1FFB DD 010e01H
	DD	0620eH
$unwind$s370_1FFC DD 010e01H
	DD	0620eH
$unwind$s370_1FFD DD 010e01H
	DD	0620eH
$unwind$s370_1FFE DD 010e01H
	DD	0620eH
$unwind$s370_1FFF DD 010e01H
	DD	0620eH
$unwind$Interrupt_Lock_Obtained DD 010e01H
	DD	0420eH
$unwind$Obtain_Interrupt_Lock DD 010e01H
	DD	0420eH
$unwind$Release_Interrupt_Lock DD 010e01H
	DD	0420eH
$unwind$s370_translate_and_test_xxx_extended DD 032c19H
	DD	0700112H
	DD	0500bH
	DD	imagerel __GSHandlerCheck
	DD	0304H
	DD	070H
	DD	040H
$unwind$s390_set_access_register DD 010e01H
	DD	0220eH
$unwind$s390_store_access_multiple DD 021101H
	DD	0110111H
$unwind$s390_store_clock_extended DD 011d19H
	DD	0c20eH
	DD	imagerel __GSHandlerCheck
	DD	050H
$unwind$s390_translate_extended DD 032c19H
	DD	0380112H
	DD	0500bH
	DD	imagerel __GSHandlerCheck
	DD	0144H
	DD	070H
	DD	040H
$unwind$s390_test_under_mask_high DD 010e01H
	DD	0a20eH
$unwind$s390_test_under_mask_low DD 010e01H
	DD	0a20eH
$unwind$s390_perform_locked_operation DD 010e01H
	DD	0e20eH
$unwind$s390_search_string DD 010e01H
	DD	0e20eH
$unwind$s390_or DD 010e01H
	DD	0a20eH
$unwind$s390_or_character DD 021101H
	DD	01d0111H
$unwind$s390_or_immediate DD 010e01H
	DD	0c20eH
$unwind$s390_or_register DD 010e01H
	DD	0420eH
$unwind$s390_pack DD 010e01H
	DD	0c20eH
$unwind$s390_set_program_mask DD 010e01H
	DD	0220eH
$unwind$s390_shift_left_double DD 010e01H
	DD	0e20eH
$unwind$s390_shift_left_double_logical DD 010e01H
	DD	0820eH
$unwind$s390_shift_left_single DD 010e01H
	DD	0c20eH
$unwind$s390_shift_left_single_logical DD 010e01H
	DD	0820eH
$unwind$s390_shift_right_double DD 010e01H
	DD	0a20eH
$unwind$s390_shift_right_double_logical DD 010e01H
	DD	0820eH
$unwind$s390_shift_right_single DD 010e01H
	DD	0a20eH
$unwind$s390_shift_right_single_logical DD 010e01H
	DD	0820eH
$unwind$s390_store_characters_under_mask DD 010e01H
	DD	0a20eH
$unwind$s390_store_clock DD 031f19H
	DD	0700ce210H
	DD	0600bH
	DD	imagerel __GSHandlerCheck
	DD	060H
$unwind$s390_store_halfword DD 010e01H
	DD	0820eH
$unwind$s390_store_multiple DD 022319H
	DD	0210111H
	DD	imagerel __GSHandlerCheck
	DD	0f0H
$unwind$s390_subtract DD 010e01H
	DD	0820eH
$unwind$s390_subtract_halfword DD 010e01H
	DD	0820eH
$unwind$s390_subtract_logical DD 010e01H
	DD	0820eH
$unwind$s390_subtract_logical_register DD 010e01H
	DD	0820eH
$unwind$s390_subtract_register DD 010e01H
	DD	0820eH
$unwind$s390_supervisor_call DD 010e01H
	DD	0e20eH
$unwind$s390_test_and_set DD 010e01H
	DD	0a20eH
$unwind$s390_test_under_mask DD 010e01H
	DD	0820eH
$unwind$s390_translate DD 021101H
	DD	0150111H
$unwind$s390_translate_and_test DD 032c19H
	DD	0600112H
	DD	0500bH
	DD	imagerel __GSHandlerCheck
	DD	0284H
	DD	070H
	DD	040H
$unwind$s390_unpack DD 010e01H
	DD	0e20eH
$unwind$s390_update_tree DD 010e01H
	DD	0620eH
$unwind$s390_9180 DD 010e01H
	DD	0620eH
$unwind$s390_9140 DD 010e01H
	DD	0620eH
$unwind$s390_9120 DD 010e01H
	DD	0620eH
$unwind$s390_9110 DD 010e01H
	DD	0620eH
$unwind$s390_9108 DD 010e01H
	DD	0620eH
$unwind$s390_9104 DD 010e01H
	DD	0620eH
$unwind$s390_9102 DD 010e01H
	DD	0620eH
$unwind$s390_9101 DD 010e01H
	DD	0620eH
$unwind$s390_1F00 DD 010e01H
	DD	0620eH
$unwind$s390_1F01 DD 010e01H
	DD	0620eH
$unwind$s390_1F02 DD 010e01H
	DD	0620eH
$unwind$s390_1F03 DD 010e01H
	DD	0620eH
$unwind$s390_1F04 DD 010e01H
	DD	0620eH
$unwind$s390_1F05 DD 010e01H
	DD	0620eH
$unwind$s390_1F06 DD 010e01H
	DD	0620eH
$unwind$s390_1F07 DD 010e01H
	DD	0620eH
$unwind$s390_1F08 DD 010e01H
	DD	0620eH
$unwind$s390_1F09 DD 010e01H
	DD	0620eH
$unwind$s390_1F0A DD 010e01H
	DD	0620eH
$unwind$s390_1F0B DD 010e01H
	DD	0620eH
$unwind$s390_1F0C DD 010e01H
	DD	0620eH
$unwind$s390_1F0D DD 010e01H
	DD	0620eH
$unwind$s390_1F0E DD 010e01H
	DD	0620eH
$unwind$s390_1F0F DD 010e01H
	DD	0620eH
$unwind$s390_1F10 DD 010e01H
	DD	0620eH
$unwind$s390_1F11 DD 010e01H
	DD	0620eH
$unwind$s390_1F12 DD 010e01H
	DD	0620eH
$unwind$s390_1F13 DD 010e01H
	DD	0620eH
$unwind$s390_1F14 DD 010e01H
	DD	0620eH
$unwind$s390_1F15 DD 010e01H
	DD	0620eH
$unwind$s390_1F16 DD 010e01H
	DD	0620eH
$unwind$s390_1F17 DD 010e01H
	DD	0620eH
$unwind$s390_1F18 DD 010e01H
	DD	0620eH
$unwind$s390_1F19 DD 010e01H
	DD	0620eH
$unwind$s390_1F1A DD 010e01H
	DD	0620eH
$unwind$s390_1F1B DD 010e01H
	DD	0620eH
$unwind$s390_1F1C DD 010e01H
	DD	0620eH
$unwind$s390_1F1D DD 010e01H
	DD	0620eH
$unwind$s390_1F1E DD 010e01H
	DD	0620eH
$unwind$s390_1F1F DD 010e01H
	DD	0620eH
$unwind$s390_1F20 DD 010e01H
	DD	0620eH
$unwind$s390_1F21 DD 010e01H
	DD	0620eH
$unwind$s390_1F22 DD 010e01H
	DD	0620eH
$unwind$s390_1F23 DD 010e01H
	DD	0620eH
$unwind$s390_1F24 DD 010e01H
	DD	0620eH
$unwind$s390_1F25 DD 010e01H
	DD	0620eH
$unwind$s390_1F26 DD 010e01H
	DD	0620eH
$unwind$s390_1F27 DD 010e01H
	DD	0620eH
$unwind$s390_1F28 DD 010e01H
	DD	0620eH
$unwind$s390_1F29 DD 010e01H
	DD	0620eH
$unwind$s390_1F2A DD 010e01H
	DD	0620eH
$unwind$s390_1F2B DD 010e01H
	DD	0620eH
$unwind$s390_1F2C DD 010e01H
	DD	0620eH
$unwind$s390_1F2D DD 010e01H
	DD	0620eH
$unwind$s390_1F2E DD 010e01H
	DD	0620eH
$unwind$s390_1F2F DD 010e01H
	DD	0620eH
$unwind$s390_1F30 DD 010e01H
	DD	0620eH
$unwind$s390_1F31 DD 010e01H
	DD	0620eH
$unwind$s390_1F32 DD 010e01H
	DD	0620eH
$unwind$s390_1F33 DD 010e01H
	DD	0620eH
$unwind$s390_1F34 DD 010e01H
	DD	0620eH
$unwind$s390_1F35 DD 010e01H
	DD	0620eH
$unwind$s390_1F36 DD 010e01H
	DD	0620eH
$unwind$s390_1F37 DD 010e01H
	DD	0620eH
$unwind$s390_1F38 DD 010e01H
	DD	0620eH
$unwind$s390_1F39 DD 010e01H
	DD	0620eH
$unwind$s390_1F3A DD 010e01H
	DD	0620eH
$unwind$s390_1F3B DD 010e01H
	DD	0620eH
$unwind$s390_1F3C DD 010e01H
	DD	0620eH
$unwind$s390_1F3D DD 010e01H
	DD	0620eH
$unwind$s390_1F3E DD 010e01H
	DD	0620eH
$unwind$s390_1F3F DD 010e01H
	DD	0620eH
$unwind$s390_1F40 DD 010e01H
	DD	0620eH
$unwind$s390_1F41 DD 010e01H
	DD	0620eH
$unwind$s390_1F42 DD 010e01H
	DD	0620eH
$unwind$s390_1F43 DD 010e01H
	DD	0620eH
$unwind$s390_1F44 DD 010e01H
	DD	0620eH
$unwind$s390_1F45 DD 010e01H
	DD	0620eH
$unwind$s390_1F46 DD 010e01H
	DD	0620eH
$unwind$s390_1F47 DD 010e01H
	DD	0620eH
$unwind$s390_1F48 DD 010e01H
	DD	0620eH
$unwind$s390_1F49 DD 010e01H
	DD	0620eH
$unwind$s390_1F4A DD 010e01H
	DD	0620eH
$unwind$s390_1F4B DD 010e01H
	DD	0620eH
$unwind$s390_1F4C DD 010e01H
	DD	0620eH
$unwind$s390_1F4D DD 010e01H
	DD	0620eH
$unwind$s390_1F4E DD 010e01H
	DD	0620eH
$unwind$s390_1F4F DD 010e01H
	DD	0620eH
$unwind$s390_1F50 DD 010e01H
	DD	0620eH
$unwind$s390_1F51 DD 010e01H
	DD	0620eH
$unwind$s390_1F52 DD 010e01H
	DD	0620eH
$unwind$s390_1F53 DD 010e01H
	DD	0620eH
$unwind$s390_1F54 DD 010e01H
	DD	0620eH
$unwind$s390_1F55 DD 010e01H
	DD	0620eH
$unwind$s390_1F56 DD 010e01H
	DD	0620eH
$unwind$s390_1F57 DD 010e01H
	DD	0620eH
$unwind$s390_1F58 DD 010e01H
	DD	0620eH
$unwind$s390_1F59 DD 010e01H
	DD	0620eH
$unwind$s390_1F5A DD 010e01H
	DD	0620eH
$unwind$s390_1F5B DD 010e01H
	DD	0620eH
$unwind$s390_1F5C DD 010e01H
	DD	0620eH
$unwind$s390_1F5D DD 010e01H
	DD	0620eH
$unwind$s390_1F5E DD 010e01H
	DD	0620eH
$unwind$s390_1F5F DD 010e01H
	DD	0620eH
$unwind$s390_1F60 DD 010e01H
	DD	0620eH
$unwind$s390_1F61 DD 010e01H
	DD	0620eH
$unwind$s390_1F62 DD 010e01H
	DD	0620eH
$unwind$s390_1F63 DD 010e01H
	DD	0620eH
$unwind$s390_1F64 DD 010e01H
	DD	0620eH
$unwind$s390_1F65 DD 010e01H
	DD	0620eH
$unwind$s390_1F66 DD 010e01H
	DD	0620eH
$unwind$s390_1F67 DD 010e01H
	DD	0620eH
$unwind$s390_1F68 DD 010e01H
	DD	0620eH
$unwind$s390_1F69 DD 010e01H
	DD	0620eH
$unwind$s390_1F6A DD 010e01H
	DD	0620eH
$unwind$s390_1F6B DD 010e01H
	DD	0620eH
$unwind$s390_1F6C DD 010e01H
	DD	0620eH
$unwind$s390_1F6D DD 010e01H
	DD	0620eH
$unwind$s390_1F6E DD 010e01H
	DD	0620eH
$unwind$s390_1F6F DD 010e01H
	DD	0620eH
$unwind$s390_1F70 DD 010e01H
	DD	0620eH
$unwind$s390_1F71 DD 010e01H
	DD	0620eH
$unwind$s390_1F72 DD 010e01H
	DD	0620eH
$unwind$s390_1F73 DD 010e01H
	DD	0620eH
$unwind$s390_1F74 DD 010e01H
	DD	0620eH
$unwind$s390_1F75 DD 010e01H
	DD	0620eH
$unwind$s390_1F76 DD 010e01H
	DD	0620eH
$unwind$s390_1F77 DD 010e01H
	DD	0620eH
$unwind$s390_1F78 DD 010e01H
	DD	0620eH
$unwind$s390_1F79 DD 010e01H
	DD	0620eH
$unwind$s390_1F7A DD 010e01H
	DD	0620eH
$unwind$s390_1F7B DD 010e01H
	DD	0620eH
$unwind$s390_1F7C DD 010e01H
	DD	0620eH
$unwind$s390_1F7D DD 010e01H
	DD	0620eH
$unwind$s390_1F7E DD 010e01H
	DD	0620eH
$unwind$s390_1F7F DD 010e01H
	DD	0620eH
$unwind$s390_1F80 DD 010e01H
	DD	0620eH
$unwind$s390_1F81 DD 010e01H
	DD	0620eH
$unwind$s390_1F82 DD 010e01H
	DD	0620eH
$unwind$s390_1F83 DD 010e01H
	DD	0620eH
$unwind$s390_1F84 DD 010e01H
	DD	0620eH
$unwind$s390_1F85 DD 010e01H
	DD	0620eH
$unwind$s390_1F86 DD 010e01H
	DD	0620eH
$unwind$s390_1F87 DD 010e01H
	DD	0620eH
$unwind$s390_1F88 DD 010e01H
	DD	0620eH
$unwind$s390_1F89 DD 010e01H
	DD	0620eH
$unwind$s390_1F8A DD 010e01H
	DD	0620eH
$unwind$s390_1F8B DD 010e01H
	DD	0620eH
$unwind$s390_1F8C DD 010e01H
	DD	0620eH
$unwind$s390_1F8D DD 010e01H
	DD	0620eH
$unwind$s390_1F8E DD 010e01H
	DD	0620eH
$unwind$s390_1F8F DD 010e01H
	DD	0620eH
$unwind$s390_1F90 DD 010e01H
	DD	0620eH
$unwind$s390_1F91 DD 010e01H
	DD	0620eH
$unwind$s390_1F92 DD 010e01H
	DD	0620eH
$unwind$s390_1F93 DD 010e01H
	DD	0620eH
$unwind$s390_1F94 DD 010e01H
	DD	0620eH
$unwind$s390_1F95 DD 010e01H
	DD	0620eH
$unwind$s390_1F96 DD 010e01H
	DD	0620eH
$unwind$s390_1F97 DD 010e01H
	DD	0620eH
$unwind$s390_1F98 DD 010e01H
	DD	0620eH
$unwind$s390_1F99 DD 010e01H
	DD	0620eH
$unwind$s390_1F9A DD 010e01H
	DD	0620eH
$unwind$s390_1F9B DD 010e01H
	DD	0620eH
$unwind$s390_1F9C DD 010e01H
	DD	0620eH
$unwind$s390_1F9D DD 010e01H
	DD	0620eH
$unwind$s390_1F9E DD 010e01H
	DD	0620eH
$unwind$s390_1F9F DD 010e01H
	DD	0620eH
$unwind$s390_1FA0 DD 010e01H
	DD	0620eH
$unwind$s390_1FA1 DD 010e01H
	DD	0620eH
$unwind$s390_1FA2 DD 010e01H
	DD	0620eH
$unwind$s390_1FA3 DD 010e01H
	DD	0620eH
$unwind$s390_1FA4 DD 010e01H
	DD	0620eH
$unwind$s390_1FA5 DD 010e01H
	DD	0620eH
$unwind$s390_1FA6 DD 010e01H
	DD	0620eH
$unwind$s390_1FA7 DD 010e01H
	DD	0620eH
$unwind$s390_1FA8 DD 010e01H
	DD	0620eH
$unwind$s390_1FA9 DD 010e01H
	DD	0620eH
$unwind$s390_1FAA DD 010e01H
	DD	0620eH
$unwind$s390_1FAB DD 010e01H
	DD	0620eH
$unwind$s390_1FAC DD 010e01H
	DD	0620eH
$unwind$s390_1FAD DD 010e01H
	DD	0620eH
$unwind$s390_1FAE DD 010e01H
	DD	0620eH
$unwind$s390_1FAF DD 010e01H
	DD	0620eH
$unwind$s390_1FB0 DD 010e01H
	DD	0620eH
$unwind$s390_1FB1 DD 010e01H
	DD	0620eH
$unwind$s390_1FB2 DD 010e01H
	DD	0620eH
$unwind$s390_1FB3 DD 010e01H
	DD	0620eH
$unwind$s390_1FB4 DD 010e01H
	DD	0620eH
$unwind$s390_1FB5 DD 010e01H
	DD	0620eH
$unwind$s390_1FB6 DD 010e01H
	DD	0620eH
$unwind$s390_1FB7 DD 010e01H
	DD	0620eH
$unwind$s390_1FB8 DD 010e01H
	DD	0620eH
$unwind$s390_1FB9 DD 010e01H
	DD	0620eH
$unwind$s390_1FBA DD 010e01H
	DD	0620eH
$unwind$s390_1FBB DD 010e01H
	DD	0620eH
$unwind$s390_1FBC DD 010e01H
	DD	0620eH
$unwind$s390_1FBD DD 010e01H
	DD	0620eH
$unwind$s390_1FBE DD 010e01H
	DD	0620eH
$unwind$s390_1FBF DD 010e01H
	DD	0620eH
$unwind$s390_1FC0 DD 010e01H
	DD	0620eH
$unwind$s390_1FC1 DD 010e01H
	DD	0620eH
$unwind$s390_1FC2 DD 010e01H
	DD	0620eH
$unwind$s390_1FC3 DD 010e01H
	DD	0620eH
$unwind$s390_1FC4 DD 010e01H
	DD	0620eH
$unwind$s390_1FC5 DD 010e01H
	DD	0620eH
$unwind$s390_1FC6 DD 010e01H
	DD	0620eH
$unwind$s390_1FC7 DD 010e01H
	DD	0620eH
$unwind$s390_1FC8 DD 010e01H
	DD	0620eH
$unwind$s390_1FC9 DD 010e01H
	DD	0620eH
$unwind$s390_1FCA DD 010e01H
	DD	0620eH
$unwind$s390_1FCB DD 010e01H
	DD	0620eH
$unwind$s390_1FCC DD 010e01H
	DD	0620eH
$unwind$s390_1FCD DD 010e01H
	DD	0620eH
$unwind$s390_1FCE DD 010e01H
	DD	0620eH
$unwind$s390_1FCF DD 010e01H
	DD	0620eH
$unwind$s390_1FD0 DD 010e01H
	DD	0620eH
$unwind$s390_1FD1 DD 010e01H
	DD	0620eH
$unwind$s390_1FD2 DD 010e01H
	DD	0620eH
$unwind$s390_1FD3 DD 010e01H
	DD	0620eH
$unwind$s390_1FD4 DD 010e01H
	DD	0620eH
$unwind$s390_1FD5 DD 010e01H
	DD	0620eH
$unwind$s390_1FD6 DD 010e01H
	DD	0620eH
$unwind$s390_1FD7 DD 010e01H
	DD	0620eH
$unwind$s390_1FD8 DD 010e01H
	DD	0620eH
$unwind$s390_1FD9 DD 010e01H
	DD	0620eH
$unwind$s390_1FDA DD 010e01H
	DD	0620eH
$unwind$s390_1FDB DD 010e01H
	DD	0620eH
$unwind$s390_1FDC DD 010e01H
	DD	0620eH
$unwind$s390_1FDD DD 010e01H
	DD	0620eH
$unwind$s390_1FDE DD 010e01H
	DD	0620eH
$unwind$s390_1FDF DD 010e01H
	DD	0620eH
$unwind$s390_1FE0 DD 010e01H
	DD	0620eH
$unwind$s390_1FE1 DD 010e01H
	DD	0620eH
$unwind$s390_1FE2 DD 010e01H
	DD	0620eH
$unwind$s390_1FE3 DD 010e01H
	DD	0620eH
$unwind$s390_1FE4 DD 010e01H
	DD	0620eH
$unwind$s390_1FE5 DD 010e01H
	DD	0620eH
$unwind$s390_1FE6 DD 010e01H
	DD	0620eH
$unwind$s390_1FE7 DD 010e01H
	DD	0620eH
$unwind$s390_1FE8 DD 010e01H
	DD	0620eH
$unwind$s390_1FE9 DD 010e01H
	DD	0620eH
$unwind$s390_1FEA DD 010e01H
	DD	0620eH
$unwind$s390_1FEB DD 010e01H
	DD	0620eH
$unwind$s390_1FEC DD 010e01H
	DD	0620eH
$unwind$s390_1FED DD 010e01H
	DD	0620eH
$unwind$s390_1FEE DD 010e01H
	DD	0620eH
$unwind$s390_1FEF DD 010e01H
	DD	0620eH
$unwind$s390_1FF0 DD 010e01H
	DD	0620eH
$unwind$s390_1FF1 DD 010e01H
	DD	0620eH
$unwind$s390_1FF2 DD 010e01H
	DD	0620eH
$unwind$s390_1FF3 DD 010e01H
	DD	0620eH
$unwind$s390_1FF4 DD 010e01H
	DD	0620eH
$unwind$s390_1FF5 DD 010e01H
	DD	0620eH
$unwind$s390_1FF6 DD 010e01H
	DD	0620eH
$unwind$s390_1FF7 DD 010e01H
	DD	0620eH
$unwind$s390_1FF8 DD 010e01H
	DD	0620eH
$unwind$s390_1FF9 DD 010e01H
	DD	0620eH
$unwind$s390_1FFA DD 010e01H
	DD	0620eH
$unwind$s390_1FFB DD 010e01H
	DD	0620eH
$unwind$s390_1FFC DD 010e01H
	DD	0620eH
$unwind$s390_1FFD DD 010e01H
	DD	0620eH
$unwind$s390_1FFE DD 010e01H
	DD	0620eH
$unwind$s390_1FFF DD 010e01H
	DD	0620eH
$unwind$z900_convert_utf16_to_utf32 DD 021101H
	DD	0150111H
$unwind$z900_convert_utf32_to_utf16 DD 021101H
	DD	0130111H
$unwind$z900_convert_utf32_to_utf8 DD 021101H
	DD	0130111H
$unwind$z900_convert_utf8_to_utf32 DD 021101H
	DD	0170111H
$unwind$z900_search_string_unicode DD 010e01H
	DD	0a20eH
$unwind$z900_translate_and_test_reverse DD 032c19H
	DD	0400112H
	DD	0500bH
	DD	imagerel __GSHandlerCheck
	DD	0184H
	DD	070H
	DD	040H
$unwind$z900_translate_and_test_extended DD 010e01H
	DD	0420eH
$unwind$z900_translate_and_test_reverse_extended DD 010e01H
	DD	0420eH
$unwind$z900_set_access_register DD 010e01H
	DD	0620eH
$unwind$z900_store_access_multiple DD 021101H
	DD	0110111H
$unwind$z900_store_clock_extended DD 011d19H
	DD	0c20eH
	DD	imagerel __GSHandlerCheck
	DD	058H
$unwind$z900_translate_extended DD 032c19H
	DD	0400112H
	DD	0500bH
	DD	imagerel __GSHandlerCheck
	DD	0184H
	DD	070H
	DD	040H
$unwind$z900_test_under_mask_high DD 010e01H
	DD	0a20eH
$unwind$z900_test_under_mask_low DD 010e01H
	DD	0a20eH
$unwind$z900_perform_locked_operation DD 010e01H
	DD	0e20eH
$unwind$z900_search_string DD 010e01H
	DD	0e20eH
$unwind$z900_or DD 010e01H
	DD	0a20eH
$unwind$z900_or_character DD 021101H
	DD	01f0111H
$unwind$z900_or_immediate DD 010e01H
	DD	0c20eH
$unwind$z900_or_register DD 010e01H
	DD	0420eH
$unwind$z900_pack DD 010e01H
	DD	0e20eH
$unwind$z900_set_program_mask DD 010e01H
	DD	0220eH
$unwind$z900_shift_left_double DD 010e01H
	DD	0e20eH
$unwind$z900_shift_left_double_logical DD 010e01H
	DD	0a20eH
$unwind$z900_shift_left_single DD 010e01H
	DD	0c20eH
$unwind$z900_shift_left_single_logical DD 010e01H
	DD	0820eH
$unwind$z900_shift_right_double DD 010e01H
	DD	0a20eH
$unwind$z900_shift_right_double_logical DD 010e01H
	DD	0a20eH
$unwind$z900_shift_right_single DD 010e01H
	DD	0a20eH
$unwind$z900_shift_right_single_logical DD 010e01H
	DD	0820eH
$unwind$z900_store_characters_under_mask DD 010e01H
	DD	0c20eH
$unwind$z900_store_clock DD 031f19H
	DD	0700ce210H
	DD	0600bH
	DD	imagerel __GSHandlerCheck
	DD	060H
$unwind$z900_store_halfword DD 010e01H
	DD	0820eH
$unwind$z900_store_multiple DD 022319H
	DD	0210111H
	DD	imagerel __GSHandlerCheck
	DD	0f0H
$unwind$z900_subtract DD 010e01H
	DD	0a20eH
$unwind$z900_subtract_halfword DD 010e01H
	DD	0a20eH
$unwind$z900_subtract_logical DD 010e01H
	DD	0a20eH
$unwind$z900_subtract_logical_register DD 010e01H
	DD	0820eH
$unwind$z900_subtract_register DD 010e01H
	DD	0820eH
$unwind$z900_supervisor_call DD 010e01H
	DD	0c20eH
$unwind$z900_test_and_set DD 010e01H
	DD	0a20eH
$unwind$z900_test_under_mask DD 010e01H
	DD	0820eH
$unwind$z900_translate DD 021101H
	DD	0170111H
$unwind$z900_translate_and_test DD 032c19H
	DD	0600112H
	DD	0500bH
	DD	imagerel __GSHandlerCheck
	DD	0284H
	DD	070H
	DD	040H
$unwind$z900_unpack DD 010e01H
	DD	0e20eH
$unwind$z900_update_tree DD 021101H
	DD	0190111H
$unwind$z900_9180 DD 010e01H
	DD	0620eH
$unwind$z900_9140 DD 010e01H
	DD	0620eH
$unwind$z900_9120 DD 010e01H
	DD	0620eH
$unwind$z900_9110 DD 010e01H
	DD	0620eH
$unwind$z900_9108 DD 010e01H
	DD	0620eH
$unwind$z900_9104 DD 010e01H
	DD	0620eH
$unwind$z900_9102 DD 010e01H
	DD	0620eH
$unwind$z900_9101 DD 010e01H
	DD	0620eH
$unwind$z900_1F00 DD 010e01H
	DD	0620eH
$unwind$z900_1F01 DD 010e01H
	DD	0620eH
$unwind$z900_1F02 DD 010e01H
	DD	0620eH
$unwind$z900_1F03 DD 010e01H
	DD	0620eH
$unwind$z900_1F04 DD 010e01H
	DD	0620eH
$unwind$z900_1F05 DD 010e01H
	DD	0620eH
$unwind$z900_1F06 DD 010e01H
	DD	0620eH
$unwind$z900_1F07 DD 010e01H
	DD	0620eH
$unwind$z900_1F08 DD 010e01H
	DD	0620eH
$unwind$z900_1F09 DD 010e01H
	DD	0620eH
$unwind$z900_1F0A DD 010e01H
	DD	0620eH
$unwind$z900_1F0B DD 010e01H
	DD	0620eH
$unwind$z900_1F0C DD 010e01H
	DD	0620eH
$unwind$z900_1F0D DD 010e01H
	DD	0620eH
$unwind$z900_1F0E DD 010e01H
	DD	0620eH
$unwind$z900_1F0F DD 010e01H
	DD	0620eH
$unwind$z900_1F10 DD 010e01H
	DD	0620eH
$unwind$z900_1F11 DD 010e01H
	DD	0620eH
$unwind$z900_1F12 DD 010e01H
	DD	0620eH
$unwind$z900_1F13 DD 010e01H
	DD	0620eH
$unwind$z900_1F14 DD 010e01H
	DD	0620eH
$unwind$z900_1F15 DD 010e01H
	DD	0620eH
$unwind$z900_1F16 DD 010e01H
	DD	0620eH
$unwind$z900_1F17 DD 010e01H
	DD	0620eH
$unwind$z900_1F18 DD 010e01H
	DD	0620eH
$unwind$z900_1F19 DD 010e01H
	DD	0620eH
$unwind$z900_1F1A DD 010e01H
	DD	0620eH
$unwind$z900_1F1B DD 010e01H
	DD	0620eH
$unwind$z900_1F1C DD 010e01H
	DD	0620eH
$unwind$z900_1F1D DD 010e01H
	DD	0620eH
$unwind$z900_1F1E DD 010e01H
	DD	0620eH
$unwind$z900_1F1F DD 010e01H
	DD	0620eH
$unwind$z900_1F20 DD 010e01H
	DD	0620eH
$unwind$z900_1F21 DD 010e01H
	DD	0620eH
$unwind$z900_1F22 DD 010e01H
	DD	0620eH
$unwind$z900_1F23 DD 010e01H
	DD	0620eH
$unwind$z900_1F24 DD 010e01H
	DD	0620eH
$unwind$z900_1F25 DD 010e01H
	DD	0620eH
$unwind$z900_1F26 DD 010e01H
	DD	0620eH
$unwind$z900_1F27 DD 010e01H
	DD	0620eH
$unwind$z900_1F28 DD 010e01H
	DD	0620eH
$unwind$z900_1F29 DD 010e01H
	DD	0620eH
$unwind$z900_1F2A DD 010e01H
	DD	0620eH
$unwind$z900_1F2B DD 010e01H
	DD	0620eH
$unwind$z900_1F2C DD 010e01H
	DD	0620eH
$unwind$z900_1F2D DD 010e01H
	DD	0620eH
$unwind$z900_1F2E DD 010e01H
	DD	0620eH
$unwind$z900_1F2F DD 010e01H
	DD	0620eH
$unwind$z900_1F30 DD 010e01H
	DD	0620eH
$unwind$z900_1F31 DD 010e01H
	DD	0620eH
$unwind$z900_1F32 DD 010e01H
	DD	0620eH
$unwind$z900_1F33 DD 010e01H
	DD	0620eH
$unwind$z900_1F34 DD 010e01H
	DD	0620eH
$unwind$z900_1F35 DD 010e01H
	DD	0620eH
$unwind$z900_1F36 DD 010e01H
	DD	0620eH
$unwind$z900_1F37 DD 010e01H
	DD	0620eH
$unwind$z900_1F38 DD 010e01H
	DD	0620eH
$unwind$z900_1F39 DD 010e01H
	DD	0620eH
$unwind$z900_1F3A DD 010e01H
	DD	0620eH
$unwind$z900_1F3B DD 010e01H
	DD	0620eH
$unwind$z900_1F3C DD 010e01H
	DD	0620eH
$unwind$z900_1F3D DD 010e01H
	DD	0620eH
$unwind$z900_1F3E DD 010e01H
	DD	0620eH
$unwind$z900_1F3F DD 010e01H
	DD	0620eH
$unwind$z900_1F40 DD 010e01H
	DD	0620eH
$unwind$z900_1F41 DD 010e01H
	DD	0620eH
$unwind$z900_1F42 DD 010e01H
	DD	0620eH
$unwind$z900_1F43 DD 010e01H
	DD	0620eH
$unwind$z900_1F44 DD 010e01H
	DD	0620eH
$unwind$z900_1F45 DD 010e01H
	DD	0620eH
$unwind$z900_1F46 DD 010e01H
	DD	0620eH
$unwind$z900_1F47 DD 010e01H
	DD	0620eH
$unwind$z900_1F48 DD 010e01H
	DD	0620eH
$unwind$z900_1F49 DD 010e01H
	DD	0620eH
$unwind$z900_1F4A DD 010e01H
	DD	0620eH
$unwind$z900_1F4B DD 010e01H
	DD	0620eH
$unwind$z900_1F4C DD 010e01H
	DD	0620eH
$unwind$z900_1F4D DD 010e01H
	DD	0620eH
$unwind$z900_1F4E DD 010e01H
	DD	0620eH
$unwind$z900_1F4F DD 010e01H
	DD	0620eH
$unwind$z900_1F50 DD 010e01H
	DD	0620eH
$unwind$z900_1F51 DD 010e01H
	DD	0620eH
$unwind$z900_1F52 DD 010e01H
	DD	0620eH
$unwind$z900_1F53 DD 010e01H
	DD	0620eH
$unwind$z900_1F54 DD 010e01H
	DD	0620eH
$unwind$z900_1F55 DD 010e01H
	DD	0620eH
$unwind$z900_1F56 DD 010e01H
	DD	0620eH
$unwind$z900_1F57 DD 010e01H
	DD	0620eH
$unwind$z900_1F58 DD 010e01H
	DD	0620eH
$unwind$z900_1F59 DD 010e01H
	DD	0620eH
$unwind$z900_1F5A DD 010e01H
	DD	0620eH
$unwind$z900_1F5B DD 010e01H
	DD	0620eH
$unwind$z900_1F5C DD 010e01H
	DD	0620eH
$unwind$z900_1F5D DD 010e01H
	DD	0620eH
$unwind$z900_1F5E DD 010e01H
	DD	0620eH
$unwind$z900_1F5F DD 010e01H
	DD	0620eH
$unwind$z900_1F60 DD 010e01H
	DD	0620eH
$unwind$z900_1F61 DD 010e01H
	DD	0620eH
$unwind$z900_1F62 DD 010e01H
	DD	0620eH
$unwind$z900_1F63 DD 010e01H
	DD	0620eH
$unwind$z900_1F64 DD 010e01H
	DD	0620eH
$unwind$z900_1F65 DD 010e01H
	DD	0620eH
$unwind$z900_1F66 DD 010e01H
	DD	0620eH
$unwind$z900_1F67 DD 010e01H
	DD	0620eH
$unwind$z900_1F68 DD 010e01H
	DD	0620eH
$unwind$z900_1F69 DD 010e01H
	DD	0620eH
$unwind$z900_1F6A DD 010e01H
	DD	0620eH
$unwind$z900_1F6B DD 010e01H
	DD	0620eH
$unwind$z900_1F6C DD 010e01H
	DD	0620eH
$unwind$z900_1F6D DD 010e01H
	DD	0620eH
$unwind$z900_1F6E DD 010e01H
	DD	0620eH
$unwind$z900_1F6F DD 010e01H
	DD	0620eH
$unwind$z900_1F70 DD 010e01H
	DD	0620eH
$unwind$z900_1F71 DD 010e01H
	DD	0620eH
$unwind$z900_1F72 DD 010e01H
	DD	0620eH
$unwind$z900_1F73 DD 010e01H
	DD	0620eH
$unwind$z900_1F74 DD 010e01H
	DD	0620eH
$unwind$z900_1F75 DD 010e01H
	DD	0620eH
$unwind$z900_1F76 DD 010e01H
	DD	0620eH
$unwind$z900_1F77 DD 010e01H
	DD	0620eH
$unwind$z900_1F78 DD 010e01H
	DD	0620eH
$unwind$z900_1F79 DD 010e01H
	DD	0620eH
$unwind$z900_1F7A DD 010e01H
	DD	0620eH
$unwind$z900_1F7B DD 010e01H
	DD	0620eH
$unwind$z900_1F7C DD 010e01H
	DD	0620eH
$unwind$z900_1F7D DD 010e01H
	DD	0620eH
$unwind$z900_1F7E DD 010e01H
	DD	0620eH
$unwind$z900_1F7F DD 010e01H
	DD	0620eH
$unwind$z900_1F80 DD 010e01H
	DD	0620eH
$unwind$z900_1F81 DD 010e01H
	DD	0620eH
$unwind$z900_1F82 DD 010e01H
	DD	0620eH
$unwind$z900_1F83 DD 010e01H
	DD	0620eH
$unwind$z900_1F84 DD 010e01H
	DD	0620eH
$unwind$z900_1F85 DD 010e01H
	DD	0620eH
$unwind$z900_1F86 DD 010e01H
	DD	0620eH
$unwind$z900_1F87 DD 010e01H
	DD	0620eH
$unwind$z900_1F88 DD 010e01H
	DD	0620eH
$unwind$z900_1F89 DD 010e01H
	DD	0620eH
$unwind$z900_1F8A DD 010e01H
	DD	0620eH
$unwind$z900_1F8B DD 010e01H
	DD	0620eH
$unwind$z900_1F8C DD 010e01H
	DD	0620eH
$unwind$z900_1F8D DD 010e01H
	DD	0620eH
$unwind$z900_1F8E DD 010e01H
	DD	0620eH
$unwind$z900_1F8F DD 010e01H
	DD	0620eH
$unwind$z900_1F90 DD 010e01H
	DD	0620eH
$unwind$z900_1F91 DD 010e01H
	DD	0620eH
$unwind$z900_1F92 DD 010e01H
	DD	0620eH
$unwind$z900_1F93 DD 010e01H
	DD	0620eH
$unwind$z900_1F94 DD 010e01H
	DD	0620eH
$unwind$z900_1F95 DD 010e01H
	DD	0620eH
$unwind$z900_1F96 DD 010e01H
	DD	0620eH
$unwind$z900_1F97 DD 010e01H
	DD	0620eH
$unwind$z900_1F98 DD 010e01H
	DD	0620eH
$unwind$z900_1F99 DD 010e01H
	DD	0620eH
$unwind$z900_1F9A DD 010e01H
	DD	0620eH
$unwind$z900_1F9B DD 010e01H
	DD	0620eH
$unwind$z900_1F9C DD 010e01H
	DD	0620eH
$unwind$z900_1F9D DD 010e01H
	DD	0620eH
$unwind$z900_1F9E DD 010e01H
	DD	0620eH
$unwind$z900_1F9F DD 010e01H
	DD	0620eH
$unwind$z900_1FA0 DD 010e01H
	DD	0620eH
$unwind$z900_1FA1 DD 010e01H
	DD	0620eH
$unwind$z900_1FA2 DD 010e01H
	DD	0620eH
$unwind$z900_1FA3 DD 010e01H
	DD	0620eH
$unwind$z900_1FA4 DD 010e01H
	DD	0620eH
$unwind$z900_1FA5 DD 010e01H
	DD	0620eH
$unwind$z900_1FA6 DD 010e01H
	DD	0620eH
$unwind$z900_1FA7 DD 010e01H
	DD	0620eH
$unwind$z900_1FA8 DD 010e01H
	DD	0620eH
$unwind$z900_1FA9 DD 010e01H
	DD	0620eH
$unwind$z900_1FAA DD 010e01H
	DD	0620eH
$unwind$z900_1FAB DD 010e01H
	DD	0620eH
$unwind$z900_1FAC DD 010e01H
	DD	0620eH
$unwind$z900_1FAD DD 010e01H
	DD	0620eH
$unwind$z900_1FAE DD 010e01H
	DD	0620eH
$unwind$z900_1FAF DD 010e01H
	DD	0620eH
$unwind$z900_1FB0 DD 010e01H
	DD	0620eH
$unwind$z900_1FB1 DD 010e01H
	DD	0620eH
$unwind$z900_1FB2 DD 010e01H
	DD	0620eH
$unwind$z900_1FB3 DD 010e01H
	DD	0620eH
$unwind$z900_1FB4 DD 010e01H
	DD	0620eH
$unwind$z900_1FB5 DD 010e01H
	DD	0620eH
$unwind$z900_1FB6 DD 010e01H
	DD	0620eH
$unwind$z900_1FB7 DD 010e01H
	DD	0620eH
$unwind$z900_1FB8 DD 010e01H
	DD	0620eH
$unwind$z900_1FB9 DD 010e01H
	DD	0620eH
$unwind$z900_1FBA DD 010e01H
	DD	0620eH
$unwind$z900_1FBB DD 010e01H
	DD	0620eH
$unwind$z900_1FBC DD 010e01H
	DD	0620eH
$unwind$z900_1FBD DD 010e01H
	DD	0620eH
$unwind$z900_1FBE DD 010e01H
	DD	0620eH
$unwind$z900_1FBF DD 010e01H
	DD	0620eH
$unwind$z900_1FC0 DD 010e01H
	DD	0620eH
$unwind$z900_1FC1 DD 010e01H
	DD	0620eH
$unwind$z900_1FC2 DD 010e01H
	DD	0620eH
$unwind$z900_1FC3 DD 010e01H
	DD	0620eH
$unwind$z900_1FC4 DD 010e01H
	DD	0620eH
$unwind$z900_1FC5 DD 010e01H
	DD	0620eH
$unwind$z900_1FC6 DD 010e01H
	DD	0620eH
$unwind$z900_1FC7 DD 010e01H
	DD	0620eH
$unwind$z900_1FC8 DD 010e01H
	DD	0620eH
$unwind$z900_1FC9 DD 010e01H
	DD	0620eH
$unwind$z900_1FCA DD 010e01H
	DD	0620eH
$unwind$z900_1FCB DD 010e01H
	DD	0620eH
$unwind$z900_1FCC DD 010e01H
	DD	0620eH
$unwind$z900_1FCD DD 010e01H
	DD	0620eH
$unwind$z900_1FCE DD 010e01H
	DD	0620eH
$unwind$z900_1FCF DD 010e01H
	DD	0620eH
$unwind$z900_1FD0 DD 010e01H
	DD	0620eH
$unwind$z900_1FD1 DD 010e01H
	DD	0620eH
$unwind$z900_1FD2 DD 010e01H
	DD	0620eH
$unwind$z900_1FD3 DD 010e01H
	DD	0620eH
$unwind$z900_1FD4 DD 010e01H
	DD	0620eH
$unwind$z900_1FD5 DD 010e01H
	DD	0620eH
$unwind$z900_1FD6 DD 010e01H
	DD	0620eH
$unwind$z900_1FD7 DD 010e01H
	DD	0620eH
$unwind$z900_1FD8 DD 010e01H
	DD	0620eH
$unwind$z900_1FD9 DD 010e01H
	DD	0620eH
$unwind$z900_1FDA DD 010e01H
	DD	0620eH
$unwind$z900_1FDB DD 010e01H
	DD	0620eH
$unwind$z900_1FDC DD 010e01H
	DD	0620eH
$unwind$z900_1FDD DD 010e01H
	DD	0620eH
$unwind$z900_1FDE DD 010e01H
	DD	0620eH
$unwind$z900_1FDF DD 010e01H
	DD	0620eH
$unwind$z900_1FE0 DD 010e01H
	DD	0620eH
$unwind$z900_1FE1 DD 010e01H
	DD	0620eH
$unwind$z900_1FE2 DD 010e01H
	DD	0620eH
$unwind$z900_1FE3 DD 010e01H
	DD	0620eH
$unwind$z900_1FE4 DD 010e01H
	DD	0620eH
$unwind$z900_1FE5 DD 010e01H
	DD	0620eH
$unwind$z900_1FE6 DD 010e01H
	DD	0620eH
$unwind$z900_1FE7 DD 010e01H
	DD	0620eH
$unwind$z900_1FE8 DD 010e01H
	DD	0620eH
$unwind$z900_1FE9 DD 010e01H
	DD	0620eH
$unwind$z900_1FEA DD 010e01H
	DD	0620eH
$unwind$z900_1FEB DD 010e01H
	DD	0620eH
$unwind$z900_1FEC DD 010e01H
	DD	0620eH
$unwind$z900_1FED DD 010e01H
	DD	0620eH
$unwind$z900_1FEE DD 010e01H
	DD	0620eH
$unwind$z900_1FEF DD 010e01H
	DD	0620eH
$unwind$z900_1FF0 DD 010e01H
	DD	0620eH
$unwind$z900_1FF1 DD 010e01H
	DD	0620eH
$unwind$z900_1FF2 DD 010e01H
	DD	0620eH
$unwind$z900_1FF3 DD 010e01H
	DD	0620eH
$unwind$z900_1FF4 DD 010e01H
	DD	0620eH
$unwind$z900_1FF5 DD 010e01H
	DD	0620eH
$unwind$z900_1FF6 DD 010e01H
	DD	0620eH
$unwind$z900_1FF7 DD 010e01H
	DD	0620eH
$unwind$z900_1FF8 DD 010e01H
	DD	0620eH
$unwind$z900_1FF9 DD 010e01H
	DD	0620eH
$unwind$z900_1FFA DD 010e01H
	DD	0620eH
$unwind$z900_1FFB DD 010e01H
	DD	0620eH
$unwind$z900_1FFC DD 010e01H
	DD	0620eH
$unwind$z900_1FFD DD 010e01H
	DD	0620eH
$unwind$z900_1FFE DD 010e01H
	DD	0620eH
$unwind$z900_1FFF DD 010e01H
	DD	0620eH
$unwind$z900_translate_and_test_xxx_extended DD 032c19H
	DD	0580112H
	DD	0500bH
	DD	imagerel __GSHandlerCheck
	DD	0244H
	DD	070H
	DD	040H
xdata	ENDS
; Function compile flags: /Odtp
; File C:\papa\MyGit\hyperion-zvector\general2.c
_TEXT	SEGMENT
a_bit$ = 0
isReverse$ = 1
r1$ = 4
temp_h$ = 8
temp_l$ = 12
fc$ = 16
buf_addr$ = 24
l_bit$ = 32
f_bit$ = 33
buf_main_addr$ = 40
processed$ = 48
buf_len$ = 56
m3$ = 64
arg_ch$ = 68
r2$ = 72
temp$1 = 76
i$ = 80
fc_addr$ = 88
fc_page_no$ = 96
tv144 = 104
tv150 = 108
tv152 = 112
tv191 = 116
max_process$ = 120
tv384 = 124
tv130 = 128
tv132 = 132
tv136 = 136
tv138 = 140
tv142 = 144
fct_page_no$ = 152
fct_work_page_addr$ = 160
fct_addr$ = 168
tv177 = 176
fct_page_addr$ = 184
fct_work_end_addr$ = 192
fct_main_page_addr$ = 256
__$ArrayPad$ = 576
inst$ = 720
regs$ = 728
z900_translate_and_test_xxx_extended PROC

; 3153 : {

$LN84:
  00000	48 89 54 24 10	 mov	 QWORD PTR [rsp+16], rdx
  00005	48 89 4c 24 08	 mov	 QWORD PTR [rsp+8], rcx
  0000a	55		 push	 rbp
  0000b	48 81 ec c0 02
	00 00		 sub	 rsp, 704		; 000002c0H
  00012	48 8d 6c 24 70	 lea	 rbp, QWORD PTR [rsp+112]
  00017	48 83 e5 c0	 and	 rbp, -64		; ffffffffffffffc0H
  0001b	48 8b 05 00 00
	00 00		 mov	 rax, QWORD PTR __security_cookie
  00022	48 33 c4	 xor	 rax, rsp
  00025	48 89 85 40 02
	00 00		 mov	 QWORD PTR __$ArrayPad$[rbp], rax

; 3154 :     int   r1;                   /* Operand-1 register number         */
; 3155 :     int   r2;                   /* Operand-2 register number         */
; 3156 :     int   m3;                   /* Operand-3 mask value              */
; 3157 : 
; 3158 :     bool  a_bit;                /* (A) Argument-Character Control    */
; 3159 :     bool  f_bit;                /* (F) Function-Code Control         */
; 3160 :     bool  l_bit;                /* (L) Argument-Character Limit      */
; 3161 : 
; 3162 :     bool  isReverse;            /* true == TRTRE, false == TRTE      */
; 3163 : 
; 3164 :     U32   arg_ch;               /* Argument character                */
; 3165 :     U32   fc;                   /* Function-Code                     */
; 3166 :     U16   temp_l;               /* Work - low byte                   */
; 3167 :     U16   temp_h;               /* Work - high byte                  */
; 3168 : 
; 3169 :     int   processed;            /* # bytes processed                 */
; 3170 :     int   max_process;          /* Max to process on current page    */
; 3171 :     int   i;                    /* Work iterator                     */
; 3172 : 
; 3173 :     VADR  buf_addr;             /* First argument address            */
; 3174 :     GREG  buf_len;              /* First argument length             */
; 3175 :     BYTE* buf_main_addr;        /* Buffer real address */
; 3176 : 
; 3177 :     VADR  fc_page_no;           /* Function-Code - page number       */
; 3178 :     VADR  fc_addr;              /* Function-Code - address           */
; 3179 : 
; 3180 :     VADR  fct_addr;             /* Function-code table address       */
; 3181 :     VADR  fct_page_no;          /* Function-Code Table - page number */
; 3182 :     VADR  fct_page_addr;        /* Function-Code TABLE - page addr   */
; 3183 : 
; 3184 :     VADR  fct_work_page_addr;   /* Work                              */
; 3185 :     VADR  fct_work_end_addr;    /* Work                              */
; 3186 : 
; 3187 :     CACHE_ALIGN                 /* FC Table - direct mainstor addrs  */
; 3188 :     BYTE* fct_main_page_addr[ FCT_REAL_MAX_PAGES ];
; 3189 : 
; 3190 :     /* Function Code Table Lengths lookup table indexed by 'm3' mask */
; 3191 : 
; 3192 :     static const int fct_table_lengths[ 8 ] =
; 3193 :     {                           /*      A   F   L       (index)      */
; 3194 :                                 /*    -------------    ---------     */
; 3195 :         256,                    /*      0   0   0          0         */
; 3196 :         256,                    /*      0   0   1          1         */
; 3197 :         512,                    /*      0   1   0          2         */
; 3198 :         512,                    /*      0   1   1          3         */
; 3199 :         64*1024,                /*      1   0   0          4         */
; 3200 :         256,                    /*      1   0   1          5         */
; 3201 :         128*1024,               /*      1   1   0          6         */
; 3202 :         512                     /*      1   1   1          7         */
; 3203 :     };
; 3204 : 
; 3205 :     RRF_M( inst, regs, r1, r2, m3 );

  0002c	48 8b 8c 24 d0
	02 00 00	 mov	 rcx, QWORD PTR inst$[rsp]
  00034	e8 00 00 00 00	 call	 fetch_fw_noswap
  00039	8b c8		 mov	 ecx, eax
  0003b	e8 00 00 00 00	 call	 _byteswap_ulong
  00040	89 45 4c	 mov	 DWORD PTR temp$1[rbp], eax
  00043	8b 45 4c	 mov	 eax, DWORD PTR temp$1[rbp]
  00046	83 e0 0f	 and	 eax, 15
  00049	89 45 48	 mov	 DWORD PTR r2$[rbp], eax
  0004c	8b 45 4c	 mov	 eax, DWORD PTR temp$1[rbp]
  0004f	c1 e8 04	 shr	 eax, 4
  00052	83 e0 0f	 and	 eax, 15
  00055	89 45 04	 mov	 DWORD PTR r1$[rbp], eax
  00058	8b 45 4c	 mov	 eax, DWORD PTR temp$1[rbp]
  0005b	c1 e8 0c	 shr	 eax, 12
  0005e	83 e0 0f	 and	 eax, 15
  00061	89 45 40	 mov	 DWORD PTR m3$[rbp], eax
$LN4@z900_trans:
  00064	48 8b 84 24 d8
	02 00 00	 mov	 rax, QWORD PTR regs$[rsp]
  0006c	48 8b 40 68	 mov	 rax, QWORD PTR [rax+104]
  00070	48 83 c0 04	 add	 rax, 4
  00074	48 8b 8c 24 d8
	02 00 00	 mov	 rcx, QWORD PTR regs$[rsp]
  0007c	48 89 41 68	 mov	 QWORD PTR [rcx+104], rax
  00080	33 c0		 xor	 eax, eax
  00082	83 f8 04	 cmp	 eax, 4
  00085	74 0f		 je	 SHORT $LN22@z900_trans
  00087	48 8b 84 24 d8
	02 00 00	 mov	 rax, QWORD PTR regs$[rsp]
  0008f	c6 80 9a 00 00
	00 04		 mov	 BYTE PTR [rax+154], 4
$LN22@z900_trans:
  00096	33 c0		 xor	 eax, eax
  00098	85 c0		 test	 eax, eax
  0009a	75 c8		 jne	 SHORT $LN4@z900_trans

; 3206 :     PER_ZEROADDR_CHECK( regs, 1 );

  0009c	ba 01 00 00 00	 mov	 edx, 1
  000a1	48 8b 8c 24 d8
	02 00 00	 mov	 rcx, QWORD PTR regs$[rsp]
  000a9	e8 00 00 00 00	 call	 z900_per3_zero_check

; 3207 :     PER_ZEROADDR_LCHECK( regs, r1, r1+1 );

  000ae	8b 45 04	 mov	 eax, DWORD PTR r1$[rbp]
  000b1	ff c0		 inc	 eax
  000b3	44 8b c0	 mov	 r8d, eax
  000b6	8b 55 04	 mov	 edx, DWORD PTR r1$[rbp]
  000b9	48 8b 8c 24 d8
	02 00 00	 mov	 rcx, QWORD PTR regs$[rsp]
  000c1	e8 00 00 00 00	 call	 z900_per3_zero_lcheck
$LN7@z900_trans:

; 3208 : 
; 3209 :     TXFC_INSTR_CHECK( regs );

  000c6	48 8b 84 24 d8
	02 00 00	 mov	 rax, QWORD PTR regs$[rsp]
  000ce	0f b6 80 4c 0e
	00 00		 movzx	 eax, BYTE PTR [rax+3660]
  000d5	85 c0		 test	 eax, eax
  000d7	74 3f		 je	 SHORT $LN23@z900_trans
  000d9	48 8b 84 24 d8
	02 00 00	 mov	 rax, QWORD PTR regs$[rsp]
  000e1	8b 80 84 af 00
	00		 mov	 eax, DWORD PTR [rax+44932]
  000e7	0f ba e8 0f	 bts	 eax, 15
  000eb	48 8b 8c 24 d8
	02 00 00	 mov	 rcx, QWORD PTR regs$[rsp]
  000f3	89 81 84 af 00
	00		 mov	 DWORD PTR [rcx+44932], eax
  000f9	4c 8d 0d 00 00
	00 00		 lea	 r9, OFFSET FLAT:$SG207537
  00100	41 b8 0b 00 00
	00		 mov	 r8d, 11
  00106	ba 02 00 00 00	 mov	 edx, 2
  0010b	48 8b 8c 24 d8
	02 00 00	 mov	 rcx, QWORD PTR regs$[rsp]
  00113	e8 00 00 00 00	 call	 z900_abort_transaction
$LN23@z900_trans:
  00118	33 c0		 xor	 eax, eax
  0011a	85 c0		 test	 eax, eax
  0011c	75 a8		 jne	 SHORT $LN7@z900_trans

; 3210 : 
; 3211 :     a_bit = ((m3 & 0x08) ? true : false);

  0011e	8b 45 40	 mov	 eax, DWORD PTR m3$[rbp]
  00121	83 e0 08	 and	 eax, 8
  00124	85 c0		 test	 eax, eax
  00126	74 0c		 je	 SHORT $LN56@z900_trans
  00128	c7 85 80 00 00
	00 01 00 00 00	 mov	 DWORD PTR tv130[rbp], 1
  00132	eb 0a		 jmp	 SHORT $LN57@z900_trans
$LN56@z900_trans:
  00134	c7 85 80 00 00
	00 00 00 00 00	 mov	 DWORD PTR tv130[rbp], 0
$LN57@z900_trans:
  0013e	83 bd 80 00 00
	00 00		 cmp	 DWORD PTR tv130[rbp], 0
  00145	75 0c		 jne	 SHORT $LN58@z900_trans
  00147	c7 85 84 00 00
	00 00 00 00 00	 mov	 DWORD PTR tv132[rbp], 0
  00151	eb 0a		 jmp	 SHORT $LN59@z900_trans
$LN58@z900_trans:
  00153	c7 85 84 00 00
	00 01 00 00 00	 mov	 DWORD PTR tv132[rbp], 1
$LN59@z900_trans:
  0015d	0f b6 85 84 00
	00 00		 movzx	 eax, BYTE PTR tv132[rbp]
  00164	88 45 00	 mov	 BYTE PTR a_bit$[rbp], al

; 3212 :     f_bit = ((m3 & 0x04) ? true : false);

  00167	8b 45 40	 mov	 eax, DWORD PTR m3$[rbp]
  0016a	83 e0 04	 and	 eax, 4
  0016d	85 c0		 test	 eax, eax
  0016f	74 0c		 je	 SHORT $LN60@z900_trans
  00171	c7 85 88 00 00
	00 01 00 00 00	 mov	 DWORD PTR tv136[rbp], 1
  0017b	eb 0a		 jmp	 SHORT $LN61@z900_trans
$LN60@z900_trans:
  0017d	c7 85 88 00 00
	00 00 00 00 00	 mov	 DWORD PTR tv136[rbp], 0
$LN61@z900_trans:
  00187	83 bd 88 00 00
	00 00		 cmp	 DWORD PTR tv136[rbp], 0
  0018e	75 0c		 jne	 SHORT $LN62@z900_trans
  00190	c7 85 8c 00 00
	00 00 00 00 00	 mov	 DWORD PTR tv138[rbp], 0
  0019a	eb 0a		 jmp	 SHORT $LN63@z900_trans
$LN62@z900_trans:
  0019c	c7 85 8c 00 00
	00 01 00 00 00	 mov	 DWORD PTR tv138[rbp], 1
$LN63@z900_trans:
  001a6	0f b6 85 8c 00
	00 00		 movzx	 eax, BYTE PTR tv138[rbp]
  001ad	88 45 21	 mov	 BYTE PTR f_bit$[rbp], al

; 3213 :     l_bit = ((m3 & 0x02) ? true : false);

  001b0	8b 45 40	 mov	 eax, DWORD PTR m3$[rbp]
  001b3	83 e0 02	 and	 eax, 2
  001b6	85 c0		 test	 eax, eax
  001b8	74 0c		 je	 SHORT $LN64@z900_trans
  001ba	c7 85 90 00 00
	00 01 00 00 00	 mov	 DWORD PTR tv142[rbp], 1
  001c4	eb 0a		 jmp	 SHORT $LN65@z900_trans
$LN64@z900_trans:
  001c6	c7 85 90 00 00
	00 00 00 00 00	 mov	 DWORD PTR tv142[rbp], 0
$LN65@z900_trans:
  001d0	83 bd 90 00 00
	00 00		 cmp	 DWORD PTR tv142[rbp], 0
  001d7	75 09		 jne	 SHORT $LN66@z900_trans
  001d9	c7 45 68 00 00
	00 00		 mov	 DWORD PTR tv144[rbp], 0
  001e0	eb 07		 jmp	 SHORT $LN67@z900_trans
$LN66@z900_trans:
  001e2	c7 45 68 01 00
	00 00		 mov	 DWORD PTR tv144[rbp], 1
$LN67@z900_trans:
  001e9	0f b6 45 68	 movzx	 eax, BYTE PTR tv144[rbp]
  001ed	88 45 20	 mov	 BYTE PTR l_bit$[rbp], al

; 3214 : 
; 3215 :     isReverse = (inst[1] == 0XBD);  // TRTRE instruction?

  001f0	b8 01 00 00 00	 mov	 eax, 1
  001f5	48 6b c0 01	 imul	 rax, rax, 1
  001f9	48 8b 8c 24 d0
	02 00 00	 mov	 rcx, QWORD PTR inst$[rsp]
  00201	0f b6 04 01	 movzx	 eax, BYTE PTR [rcx+rax]
  00205	3d bd 00 00 00	 cmp	 eax, 189		; 000000bdH
  0020a	75 09		 jne	 SHORT $LN68@z900_trans
  0020c	c7 45 6c 01 00
	00 00		 mov	 DWORD PTR tv150[rbp], 1
  00213	eb 07		 jmp	 SHORT $LN69@z900_trans
$LN68@z900_trans:
  00215	c7 45 6c 00 00
	00 00		 mov	 DWORD PTR tv150[rbp], 0
$LN69@z900_trans:
  0021c	83 7d 6c 00	 cmp	 DWORD PTR tv150[rbp], 0
  00220	75 09		 jne	 SHORT $LN70@z900_trans
  00222	c7 45 70 00 00
	00 00		 mov	 DWORD PTR tv152[rbp], 0
  00229	eb 07		 jmp	 SHORT $LN71@z900_trans
$LN70@z900_trans:
  0022b	c7 45 70 01 00
	00 00		 mov	 DWORD PTR tv152[rbp], 1
$LN71@z900_trans:
  00232	0f b6 45 70	 movzx	 eax, BYTE PTR tv152[rbp]
  00236	88 45 01	 mov	 BYTE PTR isReverse$[rbp], al

; 3216 : 
; 3217 :     buf_addr = regs->GR( r1 ) & ADDRESS_MAXWRAP( regs );

  00239	48 63 45 04	 movsxd	 rax, DWORD PTR r1$[rbp]
  0023d	48 8b 8c 24 d8
	02 00 00	 mov	 rcx, QWORD PTR regs$[rsp]
  00245	48 8b 94 24 d8
	02 00 00	 mov	 rdx, QWORD PTR regs$[rsp]
  0024d	48 8b 92 90 00
	00 00		 mov	 rdx, QWORD PTR [rdx+144]
  00254	48 8b 84 c1 80
	02 00 00	 mov	 rax, QWORD PTR [rcx+rax*8+640]
  0025c	48 23 c2	 and	 rax, rdx
  0025f	48 89 45 18	 mov	 QWORD PTR buf_addr$[rbp], rax

; 3218 :     buf_len  = GR_A( r1 + 1, regs );

  00263	48 8b 84 24 d8
	02 00 00	 mov	 rax, QWORD PTR regs$[rsp]
  0026b	8b 80 80 00 00
	00		 mov	 eax, DWORD PTR [rax+128]
  00271	83 e0 01	 and	 eax, 1
  00274	85 c0		 test	 eax, eax
  00276	74 20		 je	 SHORT $LN72@z900_trans
  00278	8b 45 04	 mov	 eax, DWORD PTR r1$[rbp]
  0027b	ff c0		 inc	 eax
  0027d	48 98		 cdqe
  0027f	48 8b 8c 24 d8
	02 00 00	 mov	 rcx, QWORD PTR regs$[rsp]
  00287	48 8b 84 c1 80
	02 00 00	 mov	 rax, QWORD PTR [rcx+rax*8+640]
  0028f	48 89 85 b0 00
	00 00		 mov	 QWORD PTR tv177[rbp], rax
  00296	eb 1d		 jmp	 SHORT $LN73@z900_trans
$LN72@z900_trans:
  00298	8b 45 04	 mov	 eax, DWORD PTR r1$[rbp]
  0029b	ff c0		 inc	 eax
  0029d	48 98		 cdqe
  0029f	48 8b 8c 24 d8
	02 00 00	 mov	 rcx, QWORD PTR regs$[rsp]
  002a7	8b 84 c1 80 02
	00 00		 mov	 eax, DWORD PTR [rcx+rax*8+640]
  002ae	48 89 85 b0 00
	00 00		 mov	 QWORD PTR tv177[rbp], rax
$LN73@z900_trans:
  002b5	48 8b 85 b0 00
	00 00		 mov	 rax, QWORD PTR tv177[rbp]
  002bc	48 89 45 38	 mov	 QWORD PTR buf_len$[rbp], rax

; 3219 : 
; 3220 :     if (unlikely((a_bit && (buf_len & 1)) || r1 & 0x01))

  002c0	0f b6 45 00	 movzx	 eax, BYTE PTR a_bit$[rbp]
  002c4	85 c0		 test	 eax, eax
  002c6	74 0d		 je	 SHORT $LN74@z900_trans
  002c8	48 8b 45 38	 mov	 rax, QWORD PTR buf_len$[rbp]
  002cc	48 83 e0 01	 and	 rax, 1
  002d0	48 85 c0	 test	 rax, rax
  002d3	75 13		 jne	 SHORT $LN75@z900_trans
$LN74@z900_trans:
  002d5	8b 45 04	 mov	 eax, DWORD PTR r1$[rbp]
  002d8	83 e0 01	 and	 eax, 1
  002db	85 c0		 test	 eax, eax
  002dd	75 09		 jne	 SHORT $LN75@z900_trans
  002df	c7 45 74 00 00
	00 00		 mov	 DWORD PTR tv191[rbp], 0
  002e6	eb 07		 jmp	 SHORT $LN79@z900_trans
$LN75@z900_trans:
  002e8	c7 45 74 01 00
	00 00		 mov	 DWORD PTR tv191[rbp], 1
$LN79@z900_trans:
  002ef	83 7d 74 00	 cmp	 DWORD PTR tv191[rbp], 0
  002f3	74 1b		 je	 SHORT $LN24@z900_trans

; 3221 :         regs->program_interrupt( regs, PGM_SPECIFICATION_EXCEPTION );

  002f5	ba 06 00 00 00	 mov	 edx, 6
  002fa	48 8b 8c 24 d8
	02 00 00	 mov	 rcx, QWORD PTR regs$[rsp]
  00302	48 8b 84 24 d8
	02 00 00	 mov	 rax, QWORD PTR regs$[rsp]
  0030a	ff 90 20 0d 00
	00		 call	 QWORD PTR [rax+3360]
$LN24@z900_trans:

; 3222 : 
; 3223 :     /* Fast exit path */
; 3224 :     if (buf_len == 0)

  00310	48 83 7d 38 00	 cmp	 QWORD PTR buf_len$[rbp], 0
  00315	75 11		 jne	 SHORT $LN25@z900_trans

; 3225 :     {
; 3226 :         regs->psw.cc =  0;

  00317	48 8b 84 24 d8
	02 00 00	 mov	 rax, QWORD PTR regs$[rsp]
  0031f	c6 40 7c 00	 mov	 BYTE PTR [rax+124], 0

; 3227 :         return;

  00323	e9 cc 05 00 00	 jmp	 $LN1@z900_trans
$LN25@z900_trans:

; 3228 :     }
; 3229 : 
; 3230 :     /* Initialize fct_... variables */
; 3231 : 
; 3232 :     fct_addr           = regs->GR( 1 ) & ADDRESS_MAXWRAP( regs );

  00328	b8 08 00 00 00	 mov	 eax, 8
  0032d	48 6b c0 01	 imul	 rax, rax, 1
  00331	48 8b 8c 24 d8
	02 00 00	 mov	 rcx, QWORD PTR regs$[rsp]
  00339	48 8b 94 24 d8
	02 00 00	 mov	 rdx, QWORD PTR regs$[rsp]
  00341	48 8b 92 90 00
	00 00		 mov	 rdx, QWORD PTR [rdx+144]
  00348	48 8b 84 01 80
	02 00 00	 mov	 rax, QWORD PTR [rcx+rax+640]
  00350	48 23 c2	 and	 rax, rdx
  00353	48 89 85 a8 00
	00 00		 mov	 QWORD PTR fct_addr$[rbp], rax

; 3233 :     fct_work_end_addr  = fct_addr + fct_table_lengths[ m3 >> 1 ];

  0035a	8b 45 40	 mov	 eax, DWORD PTR m3$[rbp]
  0035d	d1 f8		 sar	 eax, 1
  0035f	48 98		 cdqe
  00361	48 8d 0d 00 00
	00 00		 lea	 rcx, OFFSET FLAT:?fct_table_lengths@?1??z900_translate_and_test_xxx_extended@@9@9
  00368	48 63 04 81	 movsxd	 rax, DWORD PTR [rcx+rax*4]
  0036c	48 8b 8d a8 00
	00 00		 mov	 rcx, QWORD PTR fct_addr$[rbp]
  00373	48 03 c8	 add	 rcx, rax
  00376	48 8b c1	 mov	 rax, rcx
  00379	48 89 85 c0 00
	00 00		 mov	 QWORD PTR fct_work_end_addr$[rbp], rax

; 3234 :     fct_page_addr      = fct_addr & PAGEFRAME_PAGEMASK;

  00380	48 8b 85 a8 00
	00 00		 mov	 rax, QWORD PTR fct_addr$[rbp]
  00387	48 25 00 f0 ff
	ff		 and	 rax, -4096		; fffffffffffff000H
  0038d	48 89 85 b8 00
	00 00		 mov	 QWORD PTR fct_page_addr$[rbp], rax

; 3235 :     fct_page_no        = fct_page_addr >> PAGEFRAME_PAGESHIFT;

  00394	48 8b 85 b8 00
	00 00		 mov	 rax, QWORD PTR fct_page_addr$[rbp]
  0039b	48 c1 e8 0c	 shr	 rax, 12
  0039f	48 89 85 98 00
	00 00		 mov	 QWORD PTR fct_page_no$[rbp], rax

; 3236 :     fct_work_page_addr = fct_page_addr;

  003a6	48 8b 85 b8 00
	00 00		 mov	 rax, QWORD PTR fct_page_addr$[rbp]
  003ad	48 89 85 a0 00
	00 00		 mov	 QWORD PTR fct_work_page_addr$[rbp], rax

; 3237 : 
; 3238 :     /* Build function code table mainstor address table
; 3239 :        (but only for the pages that cover the FC table)
; 3240 :     */
; 3241 :     for (i=0; fct_work_page_addr < fct_work_end_addr; fct_work_page_addr += PAGEFRAME_PAGESIZE, ++i)

  003b4	c7 45 50 00 00
	00 00		 mov	 DWORD PTR i$[rbp], 0
  003bb	eb 1c		 jmp	 SHORT $LN10@z900_trans
$LN8@z900_trans:
  003bd	48 8b 85 a0 00
	00 00		 mov	 rax, QWORD PTR fct_work_page_addr$[rbp]
  003c4	48 05 00 10 00
	00		 add	 rax, 4096		; 00001000H
  003ca	48 89 85 a0 00
	00 00		 mov	 QWORD PTR fct_work_page_addr$[rbp], rax
  003d1	8b 45 50	 mov	 eax, DWORD PTR i$[rbp]
  003d4	ff c0		 inc	 eax
  003d6	89 45 50	 mov	 DWORD PTR i$[rbp], eax
$LN10@z900_trans:
  003d9	48 8b 85 c0 00
	00 00		 mov	 rax, QWORD PTR fct_work_end_addr$[rbp]
  003e0	48 39 85 a0 00
	00 00		 cmp	 QWORD PTR fct_work_page_addr$[rbp], rax
  003e7	73 60		 jae	 SHORT $LN9@z900_trans

; 3242 :     {
; 3243 :         fct_main_page_addr[i] = MADDRL( fct_work_page_addr & ADDRESS_MAXWRAP( regs ),

  003e9	48 8b 84 24 d8
	02 00 00	 mov	 rax, QWORD PTR regs$[rsp]
  003f1	48 8b 80 90 00
	00 00		 mov	 rax, QWORD PTR [rax+144]
  003f8	48 8b 8d a0 00
	00 00		 mov	 rcx, QWORD PTR fct_work_page_addr$[rbp]
  003ff	48 23 c8	 and	 rcx, rax
  00402	48 8b c1	 mov	 rax, rcx
  00405	48 8b 8c 24 d8
	02 00 00	 mov	 rcx, QWORD PTR regs$[rsp]
  0040d	0f b6 49 79	 movzx	 ecx, BYTE PTR [rcx+121]
  00411	88 4c 24 28	 mov	 BYTE PTR [rsp+40], cl
  00415	c7 44 24 20 04
	00 00 00	 mov	 DWORD PTR [rsp+32], 4
  0041d	4c 8b 8c 24 d8
	02 00 00	 mov	 r9, QWORD PTR regs$[rsp]
  00425	41 b8 01 00 00
	00		 mov	 r8d, 1
  0042b	ba 00 10 00 00	 mov	 edx, 4096		; 00001000H
  00430	48 8b c8	 mov	 rcx, rax
  00433	e8 00 00 00 00	 call	 z900_maddr_l
  00438	48 63 4d 50	 movsxd	 rcx, DWORD PTR i$[rbp]
  0043c	48 89 84 cd 00
	01 00 00	 mov	 QWORD PTR fct_main_page_addr$[rbp+rcx*8], rax

; 3244 :                                         PAGEFRAME_PAGESIZE, 1, regs, ACCTYPE_READ,
; 3245 :                                         regs->psw.pkey );
; 3246 :     }

  00444	e9 74 ff ff ff	 jmp	 $LN8@z900_trans
$LN9@z900_trans:

; 3247 : 
; 3248 :     /*  Determine CC=3 length:
; 3249 : 
; 3250 :         POP : SA22-7832-13 Page 7-418:
; 3251 : 
; 3252 :            "The amount of processing that results in the setting
; 3253 :             of condition code 3 is determined by the CPU on the
; 3254 :             basis of improving system performance, and it may
; 3255 :             be a different amount each time the instruction is
; 3256 :             executed."
; 3257 : 
; 3258 :         CC=3 :  Processed first operand to end of page and
; 3259 :                 indicate more data remaining.
; 3260 :     */
; 3261 : 
; 3262 :     /* Get on-page maximum process length */
; 3263 :     if (isReverse)

  00449	0f b6 45 01	 movzx	 eax, BYTE PTR isReverse$[rbp]
  0044d	85 c0		 test	 eax, eax
  0044f	74 12		 je	 SHORT $LN26@z900_trans

; 3264 :         /* TRTRE instruction */
; 3265 :         max_process = (buf_addr & PAGEFRAME_BYTEMASK) + 1;

  00451	48 8b 45 18	 mov	 rax, QWORD PTR buf_addr$[rbp]
  00455	48 25 ff 0f 00
	00		 and	 rax, 4095		; 00000fffH
  0045b	48 ff c0	 inc	 rax
  0045e	89 45 78	 mov	 DWORD PTR max_process$[rbp], eax
  00461	eb 18		 jmp	 SHORT $LN27@z900_trans
$LN26@z900_trans:

; 3266 :     else
; 3267 :         /* TRTE instruction */
; 3268 :         max_process = PAGEFRAME_PAGESIZE - ( buf_addr & PAGEFRAME_BYTEMASK );

  00463	48 8b 45 18	 mov	 rax, QWORD PTR buf_addr$[rbp]
  00467	48 25 ff 0f 00
	00		 and	 rax, 4095		; 00000fffH
  0046d	b9 00 10 00 00	 mov	 ecx, 4096		; 00001000H
  00472	48 2b c8	 sub	 rcx, rax
  00475	48 8b c1	 mov	 rax, rcx
  00478	89 45 78	 mov	 DWORD PTR max_process$[rbp], eax
$LN27@z900_trans:

; 3269 : 
; 3270 :     /* Get buffer mainstor address - a bit = 1 page cross checked later */
; 3271 :     buf_main_addr = MADDRL( buf_addr, 1, r1, regs, ACCTYPE_READ, regs->psw.pkey );

  0047b	48 8b 84 24 d8
	02 00 00	 mov	 rax, QWORD PTR regs$[rsp]
  00483	0f b6 40 79	 movzx	 eax, BYTE PTR [rax+121]
  00487	88 44 24 28	 mov	 BYTE PTR [rsp+40], al
  0048b	c7 44 24 20 04
	00 00 00	 mov	 DWORD PTR [rsp+32], 4
  00493	4c 8b 8c 24 d8
	02 00 00	 mov	 r9, QWORD PTR regs$[rsp]
  0049b	44 8b 45 04	 mov	 r8d, DWORD PTR r1$[rbp]
  0049f	ba 01 00 00 00	 mov	 edx, 1
  004a4	48 8b 4d 18	 mov	 rcx, QWORD PTR buf_addr$[rbp]
  004a8	e8 00 00 00 00	 call	 z900_maddr_l
  004ad	48 89 45 28	 mov	 QWORD PTR buf_main_addr$[rbp], rax

; 3272 : 
; 3273 :     fc = 0;

  004b1	c7 45 10 00 00
	00 00		 mov	 DWORD PTR fc$[rbp], 0

; 3274 :     processed = 0;

  004b8	c7 45 30 00 00
	00 00		 mov	 DWORD PTR processed$[rbp], 0
$LN11@z900_trans:

; 3275 :     while (buf_len && !fc && processed < max_process)

  004bf	48 83 7d 38 00	 cmp	 QWORD PTR buf_len$[rbp], 0
  004c4	0f 84 dc 02 00
	00		 je	 $LN12@z900_trans
  004ca	83 7d 10 00	 cmp	 DWORD PTR fc$[rbp], 0
  004ce	0f 85 d2 02 00
	00		 jne	 $LN12@z900_trans
  004d4	8b 45 78	 mov	 eax, DWORD PTR max_process$[rbp]
  004d7	39 45 30	 cmp	 DWORD PTR processed$[rbp], eax
  004da	0f 8d c6 02 00
	00		 jge	 $LN12@z900_trans

; 3276 :     {
; 3277 :         if (a_bit)

  004e0	0f b6 45 00	 movzx	 eax, BYTE PTR a_bit$[rbp]
  004e4	85 c0		 test	 eax, eax
  004e6	0f 84 87 00 00
	00		 je	 $LN28@z900_trans

; 3278 :         {
; 3279 :             /* Does arg cross page boundary? (last byte of page?) */
; 3280 :             if ((buf_addr & PAGEFRAME_BYTEMASK) == PAGEFRAME_BYTEMASK)

  004ec	48 8b 45 18	 mov	 rax, QWORD PTR buf_addr$[rbp]
  004f0	48 25 ff 0f 00
	00		 and	 rax, 4095		; 00000fffH
  004f6	48 3d ff 0f 00
	00		 cmp	 rax, 4095		; 00000fffH
  004fc	75 4c		 jne	 SHORT $LN30@z900_trans

; 3281 :             {
; 3282 :                 /* Yes! Piece together the argument */
; 3283 :                 temp_h  =  *buf_main_addr;

  004fe	48 8b 45 28	 mov	 rax, QWORD PTR buf_main_addr$[rbp]
  00502	0f b6 00	 movzx	 eax, BYTE PTR [rax]
  00505	66 89 45 08	 mov	 WORD PTR temp_h$[rbp], ax

; 3284 :                 temp_l  =  *MADDRL( buf_addr+1, 1 , r1, regs, ACCTYPE_READ, regs->psw.pkey );

  00509	48 8b 45 18	 mov	 rax, QWORD PTR buf_addr$[rbp]
  0050d	48 ff c0	 inc	 rax
  00510	48 8b 8c 24 d8
	02 00 00	 mov	 rcx, QWORD PTR regs$[rsp]
  00518	0f b6 49 79	 movzx	 ecx, BYTE PTR [rcx+121]
  0051c	88 4c 24 28	 mov	 BYTE PTR [rsp+40], cl
  00520	c7 44 24 20 04
	00 00 00	 mov	 DWORD PTR [rsp+32], 4
  00528	4c 8b 8c 24 d8
	02 00 00	 mov	 r9, QWORD PTR regs$[rsp]
  00530	44 8b 45 04	 mov	 r8d, DWORD PTR r1$[rbp]
  00534	ba 01 00 00 00	 mov	 edx, 1
  00539	48 8b c8	 mov	 rcx, rax
  0053c	e8 00 00 00 00	 call	 z900_maddr_l
  00541	0f b6 00	 movzx	 eax, BYTE PTR [rax]
  00544	66 89 45 0c	 mov	 WORD PTR temp_l$[rbp], ax

; 3285 :             }

  00548	eb 17		 jmp	 SHORT $LN31@z900_trans
$LN30@z900_trans:

; 3286 :             else
; 3287 :             {
; 3288 :                 // the following fails on sparc 64 : alignment
; 3289 :                 // arg_ch = CSWAP16( *(U16*) buf_main_addr );
; 3290 :                 // so
; 3291 :                 temp_h  =  *(buf_main_addr +0);

  0054a	48 8b 45 28	 mov	 rax, QWORD PTR buf_main_addr$[rbp]
  0054e	0f b6 00	 movzx	 eax, BYTE PTR [rax]
  00551	66 89 45 08	 mov	 WORD PTR temp_h$[rbp], ax

; 3292 :                 temp_l  =  *(buf_main_addr +1);

  00555	48 8b 45 28	 mov	 rax, QWORD PTR buf_main_addr$[rbp]
  00559	0f b6 40 01	 movzx	 eax, BYTE PTR [rax+1]
  0055d	66 89 45 0c	 mov	 WORD PTR temp_l$[rbp], ax
$LN31@z900_trans:

; 3293 :             }
; 3294 :             arg_ch  =   (temp_h << 8) | temp_l;

  00561	0f b7 45 08	 movzx	 eax, WORD PTR temp_h$[rbp]
  00565	c1 e0 08	 shl	 eax, 8
  00568	0f b7 4d 0c	 movzx	 ecx, WORD PTR temp_l$[rbp]
  0056c	0b c1		 or	 eax, ecx
  0056e	89 45 44	 mov	 DWORD PTR arg_ch$[rbp], eax

; 3295 :         }

  00571	eb 0a		 jmp	 SHORT $LN29@z900_trans
$LN28@z900_trans:

; 3296 :         else
; 3297 :         {
; 3298 :             arg_ch = *buf_main_addr;

  00573	48 8b 45 28	 mov	 rax, QWORD PTR buf_main_addr$[rbp]
  00577	0f b6 00	 movzx	 eax, BYTE PTR [rax]
  0057a	89 45 44	 mov	 DWORD PTR arg_ch$[rbp], eax
$LN29@z900_trans:

; 3299 :         }
; 3300 : 
; 3301 :         if (l_bit && arg_ch > 255)

  0057d	0f b6 45 20	 movzx	 eax, BYTE PTR l_bit$[rbp]
  00581	85 c0		 test	 eax, eax
  00583	74 15		 je	 SHORT $LN32@z900_trans
  00585	81 7d 44 ff 00
	00 00		 cmp	 DWORD PTR arg_ch$[rbp], 255 ; 000000ffH
  0058c	76 0c		 jbe	 SHORT $LN32@z900_trans

; 3302 :             fc = 0;

  0058e	c7 45 10 00 00
	00 00		 mov	 DWORD PTR fc$[rbp], 0
  00595	e9 3e 01 00 00	 jmp	 $LN33@z900_trans
$LN32@z900_trans:

; 3303 :         else
; 3304 :         {
; 3305 :             if (f_bit)

  0059a	0f b6 45 21	 movzx	 eax, BYTE PTR f_bit$[rbp]
  0059e	85 c0		 test	 eax, eax
  005a0	0f 84 e7 00 00
	00		 je	 $LN34@z900_trans

; 3306 :             {
; 3307 :                 fc_addr    = fct_addr + (arg_ch * 2);

  005a6	8b 45 44	 mov	 eax, DWORD PTR arg_ch$[rbp]
  005a9	d1 e0		 shl	 eax, 1
  005ab	8b c0		 mov	 eax, eax
  005ad	48 8b 8d a8 00
	00 00		 mov	 rcx, QWORD PTR fct_addr$[rbp]
  005b4	48 03 c8	 add	 rcx, rax
  005b7	48 8b c1	 mov	 rax, rcx
  005ba	48 89 45 58	 mov	 QWORD PTR fc_addr$[rbp], rax

; 3308 :                 fc_page_no = fc_addr >> PAGEFRAME_PAGESHIFT;

  005be	48 8b 45 58	 mov	 rax, QWORD PTR fc_addr$[rbp]
  005c2	48 c1 e8 0c	 shr	 rax, 12
  005c6	48 89 45 60	 mov	 QWORD PTR fc_page_no$[rbp], rax

; 3309 : 
; 3310 :                 /* NOTE: The user *should* have specified a double-word
; 3311 :                          aligned FC table address, but since they might
; 3312 :                          not have, we still need to always perform the
; 3313 :                          below check. */
; 3314 : 
; 3315 :                 /* Does FC cross page boundary? (last byte of page?) */
; 3316 :                 if ((fc_addr & PAGEFRAME_BYTEMASK) == PAGEFRAME_BYTEMASK)

  005ca	48 8b 45 58	 mov	 rax, QWORD PTR fc_addr$[rbp]
  005ce	48 25 ff 0f 00
	00		 and	 rax, 4095		; 00000fffH
  005d4	48 3d ff 0f 00
	00		 cmp	 rax, 4095		; 00000fffH
  005da	75 46		 jne	 SHORT $LN36@z900_trans

; 3317 :                 {
; 3318 :                     /* Yes! Piece together the FC */
; 3319 :                     temp_h  =  *(fct_main_page_addr[ fc_page_no - fct_page_no + 0 ] + PAGEFRAME_BYTEMASK ); // (last byte of page)

  005dc	48 8b 85 98 00
	00 00		 mov	 rax, QWORD PTR fct_page_no$[rbp]
  005e3	48 8b 4d 60	 mov	 rcx, QWORD PTR fc_page_no$[rbp]
  005e7	48 2b c8	 sub	 rcx, rax
  005ea	48 8b c1	 mov	 rax, rcx
  005ed	48 8b 84 c5 00
	01 00 00	 mov	 rax, QWORD PTR fct_main_page_addr$[rbp+rax*8]
  005f5	0f b6 80 ff 0f
	00 00		 movzx	 eax, BYTE PTR [rax+4095]
  005fc	66 89 45 08	 mov	 WORD PTR temp_h$[rbp], ax

; 3320 :                     temp_l  =  *(fct_main_page_addr[ fc_page_no - fct_page_no + 1 ] );                      // (first byte of next page)

  00600	48 8b 85 98 00
	00 00		 mov	 rax, QWORD PTR fct_page_no$[rbp]
  00607	48 8b 4d 60	 mov	 rcx, QWORD PTR fc_page_no$[rbp]
  0060b	48 2b c8	 sub	 rcx, rax
  0060e	48 8b c1	 mov	 rax, rcx
  00611	48 8b 84 c5 08
	01 00 00	 mov	 rax, QWORD PTR fct_main_page_addr$[rbp+rax*8+8]
  00619	0f b6 00	 movzx	 eax, BYTE PTR [rax]
  0061c	66 89 45 0c	 mov	 WORD PTR temp_l$[rbp], ax

; 3321 :                 }

  00620	eb 59		 jmp	 SHORT $LN37@z900_trans
$LN36@z900_trans:

; 3322 :                 else
; 3323 :                 {
; 3324 :                     // fc =  CSWAP16( *(U16*) (fct_main_page_addr[ fc_page_no - fct_page_no ] + (fc_addr & PAGEFRAME_BYTEMASK)));
; 3325 :                     temp_h  =  *( fct_main_page_addr[ fc_page_no - fct_page_no ] + (fc_addr & PAGEFRAME_BYTEMASK) +0 );

  00622	48 8b 85 98 00
	00 00		 mov	 rax, QWORD PTR fct_page_no$[rbp]
  00629	48 8b 4d 60	 mov	 rcx, QWORD PTR fc_page_no$[rbp]
  0062d	48 2b c8	 sub	 rcx, rax
  00630	48 8b c1	 mov	 rax, rcx
  00633	48 8b 4d 58	 mov	 rcx, QWORD PTR fc_addr$[rbp]
  00637	48 81 e1 ff 0f
	00 00		 and	 rcx, 4095		; 00000fffH
  0063e	48 8b 84 c5 00
	01 00 00	 mov	 rax, QWORD PTR fct_main_page_addr$[rbp+rax*8]
  00646	0f b6 04 08	 movzx	 eax, BYTE PTR [rax+rcx]
  0064a	66 89 45 08	 mov	 WORD PTR temp_h$[rbp], ax

; 3326 :                     temp_l  =  *( fct_main_page_addr[ fc_page_no - fct_page_no ] + (fc_addr & PAGEFRAME_BYTEMASK) +1 );

  0064e	48 8b 85 98 00
	00 00		 mov	 rax, QWORD PTR fct_page_no$[rbp]
  00655	48 8b 4d 60	 mov	 rcx, QWORD PTR fc_page_no$[rbp]
  00659	48 2b c8	 sub	 rcx, rax
  0065c	48 8b c1	 mov	 rax, rcx
  0065f	48 8b 4d 58	 mov	 rcx, QWORD PTR fc_addr$[rbp]
  00663	48 81 e1 ff 0f
	00 00		 and	 rcx, 4095		; 00000fffH
  0066a	48 8b 84 c5 00
	01 00 00	 mov	 rax, QWORD PTR fct_main_page_addr$[rbp+rax*8]
  00672	0f b6 44 08 01	 movzx	 eax, BYTE PTR [rax+rcx+1]
  00677	66 89 45 0c	 mov	 WORD PTR temp_l$[rbp], ax
$LN37@z900_trans:

; 3327 :                 }
; 3328 :                 fc  =   (temp_h << 8) | temp_l;

  0067b	0f b7 45 08	 movzx	 eax, WORD PTR temp_h$[rbp]
  0067f	c1 e0 08	 shl	 eax, 8
  00682	0f b7 4d 0c	 movzx	 ecx, WORD PTR temp_l$[rbp]
  00686	0b c1		 or	 eax, ecx
  00688	89 45 10	 mov	 DWORD PTR fc$[rbp], eax

; 3329 :             }

  0068b	eb 4b		 jmp	 SHORT $LN35@z900_trans
$LN34@z900_trans:

; 3330 :             else
; 3331 :             {
; 3332 :                 fc_addr     =  fct_addr + arg_ch;

  0068d	8b 45 44	 mov	 eax, DWORD PTR arg_ch$[rbp]
  00690	48 8b 8d a8 00
	00 00		 mov	 rcx, QWORD PTR fct_addr$[rbp]
  00697	48 03 c8	 add	 rcx, rax
  0069a	48 8b c1	 mov	 rax, rcx
  0069d	48 89 45 58	 mov	 QWORD PTR fc_addr$[rbp], rax

; 3333 :                 fc_page_no  =  fc_addr >> PAGEFRAME_PAGESHIFT;

  006a1	48 8b 45 58	 mov	 rax, QWORD PTR fc_addr$[rbp]
  006a5	48 c1 e8 0c	 shr	 rax, 12
  006a9	48 89 45 60	 mov	 QWORD PTR fc_page_no$[rbp], rax

; 3334 :                 fc          =  *(fct_main_page_addr[ fc_page_no - fct_page_no ] + (fc_addr & PAGEFRAME_BYTEMASK));

  006ad	48 8b 85 98 00
	00 00		 mov	 rax, QWORD PTR fct_page_no$[rbp]
  006b4	48 8b 4d 60	 mov	 rcx, QWORD PTR fc_page_no$[rbp]
  006b8	48 2b c8	 sub	 rcx, rax
  006bb	48 8b c1	 mov	 rax, rcx
  006be	48 8b 4d 58	 mov	 rcx, QWORD PTR fc_addr$[rbp]
  006c2	48 81 e1 ff 0f
	00 00		 and	 rcx, 4095		; 00000fffH
  006c9	48 8b 84 c5 00
	01 00 00	 mov	 rax, QWORD PTR fct_main_page_addr$[rbp+rax*8]
  006d1	0f b6 04 08	 movzx	 eax, BYTE PTR [rax+rcx]
  006d5	89 45 10	 mov	 DWORD PTR fc$[rbp], eax
$LN35@z900_trans:
$LN33@z900_trans:

; 3335 :             }
; 3336 :         }
; 3337 : 
; 3338 :         if (!fc)

  006d8	83 7d 10 00	 cmp	 DWORD PTR fc$[rbp], 0
  006dc	0f 85 bf 00 00
	00		 jne	 $LN38@z900_trans

; 3339 :         {
; 3340 :             if (a_bit)

  006e2	0f b6 45 00	 movzx	 eax, BYTE PTR a_bit$[rbp]
  006e6	85 c0		 test	 eax, eax
  006e8	74 51		 je	 SHORT $LN39@z900_trans

; 3341 :             {
; 3342 :                 processed          +=  2;

  006ea	8b 45 30	 mov	 eax, DWORD PTR processed$[rbp]
  006ed	83 c0 02	 add	 eax, 2
  006f0	89 45 30	 mov	 DWORD PTR processed$[rbp], eax

; 3343 :                 buf_len            -=  2;

  006f3	48 8b 45 38	 mov	 rax, QWORD PTR buf_len$[rbp]
  006f7	48 83 e8 02	 sub	 rax, 2
  006fb	48 89 45 38	 mov	 QWORD PTR buf_len$[rbp], rax

; 3344 : 
; 3345 :                 if (isReverse)

  006ff	0f b6 45 01	 movzx	 eax, BYTE PTR isReverse$[rbp]
  00703	85 c0		 test	 eax, eax
  00705	74 1a		 je	 SHORT $LN41@z900_trans

; 3346 :                 {
; 3347 :                     buf_main_addr  -=  2;

  00707	48 8b 45 28	 mov	 rax, QWORD PTR buf_main_addr$[rbp]
  0070b	48 83 e8 02	 sub	 rax, 2
  0070f	48 89 45 28	 mov	 QWORD PTR buf_main_addr$[rbp], rax

; 3348 :                     buf_addr       -=  2;

  00713	48 8b 45 18	 mov	 rax, QWORD PTR buf_addr$[rbp]
  00717	48 83 e8 02	 sub	 rax, 2
  0071b	48 89 45 18	 mov	 QWORD PTR buf_addr$[rbp], rax

; 3349 :                 }

  0071f	eb 18		 jmp	 SHORT $LN42@z900_trans
$LN41@z900_trans:

; 3350 :                 else
; 3351 :                 {
; 3352 :                     buf_main_addr  +=  2;

  00721	48 8b 45 28	 mov	 rax, QWORD PTR buf_main_addr$[rbp]
  00725	48 83 c0 02	 add	 rax, 2
  00729	48 89 45 28	 mov	 QWORD PTR buf_main_addr$[rbp], rax

; 3353 :                     buf_addr       +=  2;

  0072d	48 8b 45 18	 mov	 rax, QWORD PTR buf_addr$[rbp]
  00731	48 83 c0 02	 add	 rax, 2
  00735	48 89 45 18	 mov	 QWORD PTR buf_addr$[rbp], rax
$LN42@z900_trans:

; 3354 :                 }
; 3355 :             }

  00739	eb 49		 jmp	 SHORT $LN40@z900_trans
$LN39@z900_trans:

; 3356 :             else
; 3357 :             {
; 3358 :                 processed          +=  1;

  0073b	8b 45 30	 mov	 eax, DWORD PTR processed$[rbp]
  0073e	ff c0		 inc	 eax
  00740	89 45 30	 mov	 DWORD PTR processed$[rbp], eax

; 3359 :                 buf_len            -=  1;

  00743	48 8b 45 38	 mov	 rax, QWORD PTR buf_len$[rbp]
  00747	48 ff c8	 dec	 rax
  0074a	48 89 45 38	 mov	 QWORD PTR buf_len$[rbp], rax

; 3360 : 
; 3361 :                 if (isReverse)

  0074e	0f b6 45 01	 movzx	 eax, BYTE PTR isReverse$[rbp]
  00752	85 c0		 test	 eax, eax
  00754	74 18		 je	 SHORT $LN43@z900_trans

; 3362 :                 {
; 3363 :                     buf_main_addr  -=  1;

  00756	48 8b 45 28	 mov	 rax, QWORD PTR buf_main_addr$[rbp]
  0075a	48 ff c8	 dec	 rax
  0075d	48 89 45 28	 mov	 QWORD PTR buf_main_addr$[rbp], rax

; 3364 :                     buf_addr       -=  1;

  00761	48 8b 45 18	 mov	 rax, QWORD PTR buf_addr$[rbp]
  00765	48 ff c8	 dec	 rax
  00768	48 89 45 18	 mov	 QWORD PTR buf_addr$[rbp], rax

; 3365 :                 }

  0076c	eb 16		 jmp	 SHORT $LN44@z900_trans
$LN43@z900_trans:

; 3366 :                 else
; 3367 :                 {
; 3368 :                     buf_main_addr  +=  1;

  0076e	48 8b 45 28	 mov	 rax, QWORD PTR buf_main_addr$[rbp]
  00772	48 ff c0	 inc	 rax
  00775	48 89 45 28	 mov	 QWORD PTR buf_main_addr$[rbp], rax

; 3369 :                     buf_addr       +=  1;

  00779	48 8b 45 18	 mov	 rax, QWORD PTR buf_addr$[rbp]
  0077d	48 ff c0	 inc	 rax
  00780	48 89 45 18	 mov	 QWORD PTR buf_addr$[rbp], rax
$LN44@z900_trans:
$LN40@z900_trans:

; 3370 :                 }
; 3371 :             }
; 3372 : 
; 3373 :             buf_addr &= ADDRESS_MAXWRAP( regs );

  00784	48 8b 84 24 d8
	02 00 00	 mov	 rax, QWORD PTR regs$[rsp]
  0078c	48 8b 80 90 00
	00 00		 mov	 rax, QWORD PTR [rax+144]
  00793	48 8b 4d 18	 mov	 rcx, QWORD PTR buf_addr$[rbp]
  00797	48 23 c8	 and	 rcx, rax
  0079a	48 8b c1	 mov	 rax, rcx
  0079d	48 89 45 18	 mov	 QWORD PTR buf_addr$[rbp], rax
$LN38@z900_trans:

; 3374 :         }
; 3375 :     } /* end while */

  007a1	e9 19 fd ff ff	 jmp	 $LN11@z900_trans
$LN12@z900_trans:
$LN15@z900_trans:

; 3376 : 
; 3377 :     /* Commit registers */
; 3378 :     SET_GR_A( r1 + 0, regs, buf_addr );

  007a6	48 8b 84 24 d8
	02 00 00	 mov	 rax, QWORD PTR regs$[rsp]
  007ae	8b 80 80 00 00
	00		 mov	 eax, DWORD PTR [rax+128]
  007b4	83 e0 01	 and	 eax, 1
  007b7	85 c0		 test	 eax, eax
  007b9	74 1b		 je	 SHORT $LN45@z900_trans
  007bb	8b 45 04	 mov	 eax, DWORD PTR r1$[rbp]
  007be	48 98		 cdqe
  007c0	48 8b 8c 24 d8
	02 00 00	 mov	 rcx, QWORD PTR regs$[rsp]
  007c8	48 8b 55 18	 mov	 rdx, QWORD PTR buf_addr$[rbp]
  007cc	48 89 94 c1 80
	02 00 00	 mov	 QWORD PTR [rcx+rax*8+640], rdx
  007d4	eb 17		 jmp	 SHORT $LN46@z900_trans
$LN45@z900_trans:
  007d6	8b 45 04	 mov	 eax, DWORD PTR r1$[rbp]
  007d9	48 98		 cdqe
  007db	48 8b 8c 24 d8
	02 00 00	 mov	 rcx, QWORD PTR regs$[rsp]
  007e3	8b 55 18	 mov	 edx, DWORD PTR buf_addr$[rbp]
  007e6	89 94 c1 80 02
	00 00		 mov	 DWORD PTR [rcx+rax*8+640], edx
$LN46@z900_trans:
  007ed	33 c0		 xor	 eax, eax
  007ef	85 c0		 test	 eax, eax
  007f1	75 b3		 jne	 SHORT $LN15@z900_trans
$LN18@z900_trans:

; 3379 :     SET_GR_A( r1 + 1, regs, buf_len );

  007f3	48 8b 84 24 d8
	02 00 00	 mov	 rax, QWORD PTR regs$[rsp]
  007fb	8b 80 80 00 00
	00		 mov	 eax, DWORD PTR [rax+128]
  00801	83 e0 01	 and	 eax, 1
  00804	85 c0		 test	 eax, eax
  00806	74 1d		 je	 SHORT $LN47@z900_trans
  00808	8b 45 04	 mov	 eax, DWORD PTR r1$[rbp]
  0080b	ff c0		 inc	 eax
  0080d	48 98		 cdqe
  0080f	48 8b 8c 24 d8
	02 00 00	 mov	 rcx, QWORD PTR regs$[rsp]
  00817	48 8b 55 38	 mov	 rdx, QWORD PTR buf_len$[rbp]
  0081b	48 89 94 c1 80
	02 00 00	 mov	 QWORD PTR [rcx+rax*8+640], rdx
  00823	eb 19		 jmp	 SHORT $LN48@z900_trans
$LN47@z900_trans:
  00825	8b 45 04	 mov	 eax, DWORD PTR r1$[rbp]
  00828	ff c0		 inc	 eax
  0082a	48 98		 cdqe
  0082c	48 8b 8c 24 d8
	02 00 00	 mov	 rcx, QWORD PTR regs$[rsp]
  00834	8b 55 38	 mov	 edx, DWORD PTR buf_len$[rbp]
  00837	89 94 c1 80 02
	00 00		 mov	 DWORD PTR [rcx+rax*8+640], edx
$LN48@z900_trans:
  0083e	33 c0		 xor	 eax, eax
  00840	85 c0		 test	 eax, eax
  00842	75 af		 jne	 SHORT $LN18@z900_trans

; 3380 : 
; 3381 :     /* Check if CPU determined number of bytes have been processed */
; 3382 :     if (buf_len && !fc)

  00844	48 83 7d 38 00	 cmp	 QWORD PTR buf_len$[rbp], 0
  00849	74 17		 je	 SHORT $LN49@z900_trans
  0084b	83 7d 10 00	 cmp	 DWORD PTR fc$[rbp], 0
  0084f	75 11		 jne	 SHORT $LN49@z900_trans

; 3383 :     {
; 3384 :         regs->psw.cc = 3;

  00851	48 8b 84 24 d8
	02 00 00	 mov	 rax, QWORD PTR regs$[rsp]
  00859	c6 40 7c 03	 mov	 BYTE PTR [rax+124], 3

; 3385 :         return;

  0085d	e9 92 00 00 00	 jmp	 $LN1@z900_trans
$LN49@z900_trans:

; 3386 :     }
; 3387 : 
; 3388 :     /* Set function code */
; 3389 :     if (likely(r2 != r1 && r2 != (r1 + 1)))

  00862	8b 45 04	 mov	 eax, DWORD PTR r1$[rbp]
  00865	39 45 48	 cmp	 DWORD PTR r2$[rbp], eax
  00868	74 13		 je	 SHORT $LN80@z900_trans
  0086a	8b 45 04	 mov	 eax, DWORD PTR r1$[rbp]
  0086d	ff c0		 inc	 eax
  0086f	39 45 48	 cmp	 DWORD PTR r2$[rbp], eax
  00872	74 09		 je	 SHORT $LN80@z900_trans
  00874	c7 45 7c 01 00
	00 00		 mov	 DWORD PTR tv384[rbp], 1
  0087b	eb 07		 jmp	 SHORT $LN83@z900_trans
$LN80@z900_trans:
  0087d	c7 45 7c 00 00
	00 00		 mov	 DWORD PTR tv384[rbp], 0
$LN83@z900_trans:
  00884	83 7d 7c 00	 cmp	 DWORD PTR tv384[rbp], 0
  00888	74 4a		 je	 SHORT $LN50@z900_trans
$LN21@z900_trans:

; 3390 :         SET_GR_A( r2, regs, fc );

  0088a	48 8b 84 24 d8
	02 00 00	 mov	 rax, QWORD PTR regs$[rsp]
  00892	8b 80 80 00 00
	00		 mov	 eax, DWORD PTR [rax+128]
  00898	83 e0 01	 and	 eax, 1
  0089b	85 c0		 test	 eax, eax
  0089d	74 19		 je	 SHORT $LN51@z900_trans
  0089f	48 63 45 48	 movsxd	 rax, DWORD PTR r2$[rbp]
  008a3	8b 4d 10	 mov	 ecx, DWORD PTR fc$[rbp]
  008a6	48 8b 94 24 d8
	02 00 00	 mov	 rdx, QWORD PTR regs$[rsp]
  008ae	48 89 8c c2 80
	02 00 00	 mov	 QWORD PTR [rdx+rax*8+640], rcx
  008b6	eb 16		 jmp	 SHORT $LN52@z900_trans
$LN51@z900_trans:
  008b8	48 63 45 48	 movsxd	 rax, DWORD PTR r2$[rbp]
  008bc	48 8b 8c 24 d8
	02 00 00	 mov	 rcx, QWORD PTR regs$[rsp]
  008c4	8b 55 10	 mov	 edx, DWORD PTR fc$[rbp]
  008c7	89 94 c1 80 02
	00 00		 mov	 DWORD PTR [rcx+rax*8+640], edx
$LN52@z900_trans:
  008ce	33 c0		 xor	 eax, eax
  008d0	85 c0		 test	 eax, eax
  008d2	75 b6		 jne	 SHORT $LN21@z900_trans
$LN50@z900_trans:

; 3391 : 
; 3392 :     /* Set condition code */
; 3393 :     if (fc)

  008d4	83 7d 10 00	 cmp	 DWORD PTR fc$[rbp], 0
  008d8	74 0e		 je	 SHORT $LN53@z900_trans

; 3394 :         regs->psw.cc = 1;

  008da	48 8b 84 24 d8
	02 00 00	 mov	 rax, QWORD PTR regs$[rsp]
  008e2	c6 40 7c 01	 mov	 BYTE PTR [rax+124], 1
  008e6	eb 0c		 jmp	 SHORT $LN54@z900_trans
$LN53@z900_trans:

; 3395 :     else
; 3396 :         regs->psw.cc = 0;

  008e8	48 8b 84 24 d8
	02 00 00	 mov	 rax, QWORD PTR regs$[rsp]
  008f0	c6 40 7c 00	 mov	 BYTE PTR [rax+124], 0
$LN54@z900_trans:
$LN1@z900_trans:

; 3397 : }

  008f4	48 8b 8d 40 02
	00 00		 mov	 rcx, QWORD PTR __$ArrayPad$[rbp]
  008fb	48 33 cc	 xor	 rcx, rsp
  008fe	e8 00 00 00 00	 call	 __security_check_cookie
  00903	48 81 c4 c0 02
	00 00		 add	 rsp, 704		; 000002c0H
  0090a	5d		 pop	 rbp
  0090b	c3		 ret	 0
z900_translate_and_test_xxx_extended ENDP
_TEXT	ENDS
; Function compile flags: /Odtp
; File C:\papa\MyGit\hyperion-zvector\vstore.h
;	COMDAT z900_validate_operand
_TEXT	SEGMENT
tv81 = 48
addr$ = 80
arn$ = 88
len$ = 96
acctype$ = 104
regs$ = 112
z900_validate_operand PROC				; COMDAT

; 1376 : {

$LN8:
  00000	44 89 4c 24 20	 mov	 DWORD PTR [rsp+32], r9d
  00005	44 89 44 24 18	 mov	 DWORD PTR [rsp+24], r8d
  0000a	89 54 24 10	 mov	 DWORD PTR [rsp+16], edx
  0000e	48 89 4c 24 08	 mov	 QWORD PTR [rsp+8], rcx
  00013	48 83 ec 48	 sub	 rsp, 72			; 00000048H

; 1377 :     /* Translate address of leftmost operand byte */
; 1378 :     MADDR( addr, arn, regs, acctype, regs->psw.pkey );

  00017	48 8b 44 24 70	 mov	 rax, QWORD PTR regs$[rsp]
  0001c	0f b6 40 79	 movzx	 eax, BYTE PTR [rax+121]
  00020	88 44 24 28	 mov	 BYTE PTR [rsp+40], al
  00024	8b 44 24 68	 mov	 eax, DWORD PTR acctype$[rsp]
  00028	89 44 24 20	 mov	 DWORD PTR [rsp+32], eax
  0002c	4c 8b 4c 24 70	 mov	 r9, QWORD PTR regs$[rsp]
  00031	44 8b 44 24 58	 mov	 r8d, DWORD PTR arn$[rsp]
  00036	ba 01 00 00 00	 mov	 edx, 1
  0003b	48 8b 4c 24 50	 mov	 rcx, QWORD PTR addr$[rsp]
  00040	e8 00 00 00 00	 call	 z900_maddr_l

; 1379 : 
; 1380 :     /* Translate next page if boundary crossed */
; 1381 :     if (CROSSPAGE( addr, len ))

  00045	48 8b 44 24 50	 mov	 rax, QWORD PTR addr$[rsp]
  0004a	48 25 ff 0f 00
	00		 and	 rax, 4095		; 00000fffH
  00050	b9 ff 0f 00 00	 mov	 ecx, 4095		; 00000fffH
  00055	2b 4c 24 60	 sub	 ecx, DWORD PTR len$[rsp]
  00059	3b c1		 cmp	 eax, ecx
  0005b	7e 0a		 jle	 SHORT $LN6@z900_valid
  0005d	c7 44 24 30 01
	00 00 00	 mov	 DWORD PTR tv81[rsp], 1
  00065	eb 08		 jmp	 SHORT $LN7@z900_valid
$LN6@z900_valid:
  00067	c7 44 24 30 00
	00 00 00	 mov	 DWORD PTR tv81[rsp], 0
$LN7@z900_valid:
  0006f	83 7c 24 30 00	 cmp	 DWORD PTR tv81[rsp], 0
  00074	74 48		 je	 SHORT $LN2@z900_valid

; 1382 :     {
; 1383 :         MADDR( (addr + len) & ADDRESS_MAXWRAP( regs ),

  00076	48 63 44 24 60	 movsxd	 rax, DWORD PTR len$[rsp]
  0007b	48 8b 4c 24 50	 mov	 rcx, QWORD PTR addr$[rsp]
  00080	48 03 c8	 add	 rcx, rax
  00083	48 8b c1	 mov	 rax, rcx
  00086	48 8b 4c 24 70	 mov	 rcx, QWORD PTR regs$[rsp]
  0008b	48 23 81 90 00
	00 00		 and	 rax, QWORD PTR [rcx+144]
  00092	48 8b 4c 24 70	 mov	 rcx, QWORD PTR regs$[rsp]
  00097	0f b6 49 79	 movzx	 ecx, BYTE PTR [rcx+121]
  0009b	88 4c 24 28	 mov	 BYTE PTR [rsp+40], cl
  0009f	8b 4c 24 68	 mov	 ecx, DWORD PTR acctype$[rsp]
  000a3	89 4c 24 20	 mov	 DWORD PTR [rsp+32], ecx
  000a7	4c 8b 4c 24 70	 mov	 r9, QWORD PTR regs$[rsp]
  000ac	44 8b 44 24 58	 mov	 r8d, DWORD PTR arn$[rsp]
  000b1	ba 01 00 00 00	 mov	 edx, 1
  000b6	48 8b c8	 mov	 rcx, rax
  000b9	e8 00 00 00 00	 call	 z900_maddr_l
$LN2@z900_valid:

; 1384 :                arn, regs, acctype, regs->psw.pkey );
; 1385 :     }
; 1386 : #if defined( FEATURE_INTERVAL_TIMER )
; 1387 :     else
; 1388 :         ITIMER_SYNC( addr, len, regs );
; 1389 : #endif
; 1390 : }

  000be	48 83 c4 48	 add	 rsp, 72			; 00000048H
  000c2	c3		 ret	 0
z900_validate_operand ENDP
_TEXT	ENDS
; Function compile flags: /Odtp
; File C:\papa\MyGit\hyperion-zvector\vstore.h
;	COMDAT z900_vfetch8
_TEXT	SEGMENT
tv70 = 48
mn$1 = 56
addr$ = 80
arn$ = 88
regs$ = 96
z900_vfetch8 PROC					; COMDAT

; 711  : {

$LN8:
  00000	4c 89 44 24 18	 mov	 QWORD PTR [rsp+24], r8
  00005	89 54 24 10	 mov	 DWORD PTR [rsp+16], edx
  00009	48 89 4c 24 08	 mov	 QWORD PTR [rsp+8], rcx
  0000e	48 83 ec 48	 sub	 rsp, 72			; 00000048H

; 712  : #if defined( OPTION_SINGLE_CPU_DW ) && defined( ASSIST_STORE_DW )
; 713  :     if(likely(!((VADR_L)addr & 0x07)))
; 714  :     {
; 715  :         /* doubleword aligned fetch */
; 716  :         U64 *mn;
; 717  :         ITIMER_SYNC( addr, 8-1, regs );
; 718  :         mn = (U64*)MADDRL( addr, 8, arn, regs, ACCTYPE_READ, regs->psw.pkey );
; 719  :         if (regs->cpubit == regs->sysblk->started_mask)
; 720  :             return CSWAP64( *mn );
; 721  :         return fetch_dw( mn );
; 722  :     }
; 723  :     else
; 724  : #endif
; 725  :     {
; 726  :         if (likely(((VADR_L)addr & PAGEFRAME_BYTEMASK) <= (PAGEFRAME_BYTEMASK-7)))

  00012	48 8b 44 24 50	 mov	 rax, QWORD PTR addr$[rsp]
  00017	48 25 ff 0f 00
	00		 and	 rax, 4095		; 00000fffH
  0001d	48 3d f8 0f 00
	00		 cmp	 rax, 4088		; 00000ff8H
  00023	77 0a		 ja	 SHORT $LN6@z900_vfetc
  00025	c7 44 24 30 01
	00 00 00	 mov	 DWORD PTR tv70[rsp], 1
  0002d	eb 08		 jmp	 SHORT $LN7@z900_vfetc
$LN6@z900_vfetc:
  0002f	c7 44 24 30 00
	00 00 00	 mov	 DWORD PTR tv70[rsp], 0
$LN7@z900_vfetc:
  00037	83 7c 24 30 00	 cmp	 DWORD PTR tv70[rsp], 0
  0003c	74 47		 je	 SHORT $LN2@z900_vfetc

; 727  :         {
; 728  :             /* unaligned, non-crossing doubleword fetch */
; 729  :             BYTE *mn;
; 730  :             ITIMER_SYNC( addr, 8-1, regs );
; 731  :             mn = MADDRL( addr, 8, arn, regs, ACCTYPE_READ, regs->psw.pkey );

  0003e	48 8b 44 24 60	 mov	 rax, QWORD PTR regs$[rsp]
  00043	0f b6 40 79	 movzx	 eax, BYTE PTR [rax+121]
  00047	88 44 24 28	 mov	 BYTE PTR [rsp+40], al
  0004b	c7 44 24 20 04
	00 00 00	 mov	 DWORD PTR [rsp+32], 4
  00053	4c 8b 4c 24 60	 mov	 r9, QWORD PTR regs$[rsp]
  00058	44 8b 44 24 58	 mov	 r8d, DWORD PTR arn$[rsp]
  0005d	ba 08 00 00 00	 mov	 edx, 8
  00062	48 8b 4c 24 50	 mov	 rcx, QWORD PTR addr$[rsp]
  00067	e8 00 00 00 00	 call	 z900_maddr_l
  0006c	48 89 44 24 38	 mov	 QWORD PTR mn$1[rsp], rax

; 732  :             return fetch_dw( mn );

  00071	48 8b 4c 24 38	 mov	 rcx, QWORD PTR mn$1[rsp]
  00076	e8 00 00 00 00	 call	 fetch_dw_noswap
  0007b	48 8b c8	 mov	 rcx, rax
  0007e	e8 00 00 00 00	 call	 _byteswap_uint64
  00083	eb 13		 jmp	 SHORT $LN1@z900_vfetc
$LN2@z900_vfetc:

; 733  :         }
; 734  :     }
; 735  :     /* page crossing doubleword fetch */
; 736  :     return ARCH_DEP( vfetch8_full )( addr, arn, regs );

  00085	4c 8b 44 24 60	 mov	 r8, QWORD PTR regs$[rsp]
  0008a	8b 54 24 58	 mov	 edx, DWORD PTR arn$[rsp]
  0008e	48 8b 4c 24 50	 mov	 rcx, QWORD PTR addr$[rsp]
  00093	e8 00 00 00 00	 call	 z900_vfetch8_full
$LN1@z900_vfetc:

; 737  : }

  00098	48 83 c4 48	 add	 rsp, 72			; 00000048H
  0009c	c3		 ret	 0
z900_vfetch8 ENDP
_TEXT	ENDS
; Function compile flags: /Odtp
; File C:\papa\MyGit\hyperion-zvector\vstore.h
;	COMDAT z900_vfetch4
_TEXT	SEGMENT
tv66 = 48
tv72 = 52
mn$1 = 56
addr$ = 80
arn$ = 88
regs$ = 96
z900_vfetch4 PROC					; COMDAT

; 695  : {

$LN11:
  00000	4c 89 44 24 18	 mov	 QWORD PTR [rsp+24], r8
  00005	89 54 24 10	 mov	 DWORD PTR [rsp+16], edx
  00009	48 89 4c 24 08	 mov	 QWORD PTR [rsp+8], rcx
  0000e	48 83 ec 48	 sub	 rsp, 72			; 00000048H

; 696  :     if ((likely(!((VADR_L)addr & 0x03))
; 697  :         || (((VADR_L)addr & PAGEFRAME_BYTEMASK) <= (PAGEFRAME_BYTEMASK-3) )))

  00012	48 8b 44 24 50	 mov	 rax, QWORD PTR addr$[rsp]
  00017	48 83 e0 03	 and	 rax, 3
  0001b	48 85 c0	 test	 rax, rax
  0001e	75 0a		 jne	 SHORT $LN5@z900_vfetc
  00020	c7 44 24 30 01
	00 00 00	 mov	 DWORD PTR tv66[rsp], 1
  00028	eb 08		 jmp	 SHORT $LN6@z900_vfetc
$LN5@z900_vfetc:
  0002a	c7 44 24 30 00
	00 00 00	 mov	 DWORD PTR tv66[rsp], 0
$LN6@z900_vfetc:
  00032	83 7c 24 30 00	 cmp	 DWORD PTR tv66[rsp], 0
  00037	74 0a		 je	 SHORT $LN9@z900_vfetc
  00039	c7 44 24 34 01
	00 00 00	 mov	 DWORD PTR tv72[rsp], 1
  00041	eb 08		 jmp	 SHORT $LN10@z900_vfetc
$LN9@z900_vfetc:
  00043	c7 44 24 34 00
	00 00 00	 mov	 DWORD PTR tv72[rsp], 0
$LN10@z900_vfetc:
  0004b	83 7c 24 34 00	 cmp	 DWORD PTR tv72[rsp], 0
  00050	75 13		 jne	 SHORT $LN3@z900_vfetc
  00052	48 8b 44 24 50	 mov	 rax, QWORD PTR addr$[rsp]
  00057	48 25 ff 0f 00
	00		 and	 rax, 4095		; 00000fffH
  0005d	48 3d fc 0f 00
	00		 cmp	 rax, 4092		; 00000ffcH
  00063	77 46		 ja	 SHORT $LN2@z900_vfetc
$LN3@z900_vfetc:

; 698  :     {
; 699  :         BYTE *mn;
; 700  :         ITIMER_SYNC( addr, 4-1, regs );
; 701  :         mn = MADDRL( addr, 4,arn, regs, ACCTYPE_READ, regs->psw.pkey );

  00065	48 8b 44 24 60	 mov	 rax, QWORD PTR regs$[rsp]
  0006a	0f b6 40 79	 movzx	 eax, BYTE PTR [rax+121]
  0006e	88 44 24 28	 mov	 BYTE PTR [rsp+40], al
  00072	c7 44 24 20 04
	00 00 00	 mov	 DWORD PTR [rsp+32], 4
  0007a	4c 8b 4c 24 60	 mov	 r9, QWORD PTR regs$[rsp]
  0007f	44 8b 44 24 58	 mov	 r8d, DWORD PTR arn$[rsp]
  00084	ba 04 00 00 00	 mov	 edx, 4
  00089	48 8b 4c 24 50	 mov	 rcx, QWORD PTR addr$[rsp]
  0008e	e8 00 00 00 00	 call	 z900_maddr_l
  00093	48 89 44 24 38	 mov	 QWORD PTR mn$1[rsp], rax

; 702  :         return fetch_fw( mn );

  00098	48 8b 4c 24 38	 mov	 rcx, QWORD PTR mn$1[rsp]
  0009d	e8 00 00 00 00	 call	 fetch_fw_noswap
  000a2	8b c8		 mov	 ecx, eax
  000a4	e8 00 00 00 00	 call	 _byteswap_ulong
  000a9	eb 13		 jmp	 SHORT $LN1@z900_vfetc
$LN2@z900_vfetc:

; 703  :     }
; 704  :     return ARCH_DEP( vfetch4_full )( addr, arn, regs );

  000ab	4c 8b 44 24 60	 mov	 r8, QWORD PTR regs$[rsp]
  000b0	8b 54 24 58	 mov	 edx, DWORD PTR arn$[rsp]
  000b4	48 8b 4c 24 50	 mov	 rcx, QWORD PTR addr$[rsp]
  000b9	e8 00 00 00 00	 call	 z900_vfetch4_full
$LN1@z900_vfetc:

; 705  : }

  000be	48 83 c4 48	 add	 rsp, 72			; 00000048H
  000c2	c3		 ret	 0
z900_vfetch4 ENDP
_TEXT	ENDS
; Function compile flags: /Odtp
; File C:\papa\MyGit\hyperion-zvector\vstore.h
;	COMDAT z900_vfetch2
_TEXT	SEGMENT
tv66 = 48
tv72 = 52
mn$1 = 56
addr$ = 80
arn$ = 88
regs$ = 96
z900_vfetch2 PROC					; COMDAT

; 679  : {

$LN11:
  00000	4c 89 44 24 18	 mov	 QWORD PTR [rsp+24], r8
  00005	89 54 24 10	 mov	 DWORD PTR [rsp+16], edx
  00009	48 89 4c 24 08	 mov	 QWORD PTR [rsp+8], rcx
  0000e	48 83 ec 48	 sub	 rsp, 72			; 00000048H

; 680  :     if (likely(!((VADR_L)addr & 0x01))
; 681  :         || (((VADR_L)addr & PAGEFRAME_BYTEMASK) != PAGEFRAME_BYTEMASK ))

  00012	48 8b 44 24 50	 mov	 rax, QWORD PTR addr$[rsp]
  00017	48 83 e0 01	 and	 rax, 1
  0001b	48 85 c0	 test	 rax, rax
  0001e	75 0a		 jne	 SHORT $LN5@z900_vfetc
  00020	c7 44 24 30 01
	00 00 00	 mov	 DWORD PTR tv66[rsp], 1
  00028	eb 08		 jmp	 SHORT $LN6@z900_vfetc
$LN5@z900_vfetc:
  0002a	c7 44 24 30 00
	00 00 00	 mov	 DWORD PTR tv66[rsp], 0
$LN6@z900_vfetc:
  00032	83 7c 24 30 00	 cmp	 DWORD PTR tv66[rsp], 0
  00037	74 0a		 je	 SHORT $LN9@z900_vfetc
  00039	c7 44 24 34 01
	00 00 00	 mov	 DWORD PTR tv72[rsp], 1
  00041	eb 08		 jmp	 SHORT $LN10@z900_vfetc
$LN9@z900_vfetc:
  00043	c7 44 24 34 00
	00 00 00	 mov	 DWORD PTR tv72[rsp], 0
$LN10@z900_vfetc:
  0004b	83 7c 24 34 00	 cmp	 DWORD PTR tv72[rsp], 0
  00050	75 13		 jne	 SHORT $LN3@z900_vfetc
  00052	48 8b 44 24 50	 mov	 rax, QWORD PTR addr$[rsp]
  00057	48 25 ff 0f 00
	00		 and	 rax, 4095		; 00000fffH
  0005d	48 3d ff 0f 00
	00		 cmp	 rax, 4095		; 00000fffH
  00063	74 47		 je	 SHORT $LN2@z900_vfetc
$LN3@z900_vfetc:

; 682  :     {
; 683  :         BYTE *mn;
; 684  :         ITIMER_SYNC( addr, 2-1, regs );
; 685  :         mn = MADDRL( addr, 2,arn, regs, ACCTYPE_READ, regs->psw.pkey );

  00065	48 8b 44 24 60	 mov	 rax, QWORD PTR regs$[rsp]
  0006a	0f b6 40 79	 movzx	 eax, BYTE PTR [rax+121]
  0006e	88 44 24 28	 mov	 BYTE PTR [rsp+40], al
  00072	c7 44 24 20 04
	00 00 00	 mov	 DWORD PTR [rsp+32], 4
  0007a	4c 8b 4c 24 60	 mov	 r9, QWORD PTR regs$[rsp]
  0007f	44 8b 44 24 58	 mov	 r8d, DWORD PTR arn$[rsp]
  00084	ba 02 00 00 00	 mov	 edx, 2
  00089	48 8b 4c 24 50	 mov	 rcx, QWORD PTR addr$[rsp]
  0008e	e8 00 00 00 00	 call	 z900_maddr_l
  00093	48 89 44 24 38	 mov	 QWORD PTR mn$1[rsp], rax

; 686  :         return fetch_hw( mn );

  00098	48 8b 4c 24 38	 mov	 rcx, QWORD PTR mn$1[rsp]
  0009d	e8 00 00 00 00	 call	 fetch_hw_noswap
  000a2	0f b7 c8	 movzx	 ecx, ax
  000a5	e8 00 00 00 00	 call	 _byteswap_ushort
  000aa	eb 13		 jmp	 SHORT $LN1@z900_vfetc
$LN2@z900_vfetc:

; 687  :     }
; 688  :     return ARCH_DEP( vfetch2_full )( addr, arn, regs );

  000ac	4c 8b 44 24 60	 mov	 r8, QWORD PTR regs$[rsp]
  000b1	8b 54 24 58	 mov	 edx, DWORD PTR arn$[rsp]
  000b5	48 8b 4c 24 50	 mov	 rcx, QWORD PTR addr$[rsp]
  000ba	e8 00 00 00 00	 call	 z900_vfetch2_full
$LN1@z900_vfetc:

; 689  : }

  000bf	48 83 c4 48	 add	 rsp, 72			; 00000048H
  000c3	c3		 ret	 0
z900_vfetch2 ENDP
_TEXT	ENDS
; Function compile flags: /Odtp
; File C:\papa\MyGit\hyperion-zvector\vstore.h
;	COMDAT z900_vfetchb
_TEXT	SEGMENT
mn$ = 48
addr$ = 80
arn$ = 88
regs$ = 96
z900_vfetchb PROC					; COMDAT

; 667  : {

$LN3:
  00000	4c 89 44 24 18	 mov	 QWORD PTR [rsp+24], r8
  00005	89 54 24 10	 mov	 DWORD PTR [rsp+16], edx
  00009	48 89 4c 24 08	 mov	 QWORD PTR [rsp+8], rcx
  0000e	48 83 ec 48	 sub	 rsp, 72			; 00000048H

; 668  : BYTE   *mn;                             /* Main storage address      */
; 669  : 
; 670  :     ITIMER_SYNC( addr, 1-1, regs );
; 671  :     mn = MADDR( addr, arn, regs, ACCTYPE_READ, regs->psw.pkey );

  00012	48 8b 44 24 60	 mov	 rax, QWORD PTR regs$[rsp]
  00017	0f b6 40 79	 movzx	 eax, BYTE PTR [rax+121]
  0001b	88 44 24 28	 mov	 BYTE PTR [rsp+40], al
  0001f	c7 44 24 20 04
	00 00 00	 mov	 DWORD PTR [rsp+32], 4
  00027	4c 8b 4c 24 60	 mov	 r9, QWORD PTR regs$[rsp]
  0002c	44 8b 44 24 58	 mov	 r8d, DWORD PTR arn$[rsp]
  00031	ba 01 00 00 00	 mov	 edx, 1
  00036	48 8b 4c 24 50	 mov	 rcx, QWORD PTR addr$[rsp]
  0003b	e8 00 00 00 00	 call	 z900_maddr_l
  00040	48 89 44 24 30	 mov	 QWORD PTR mn$[rsp], rax

; 672  :     return *mn;

  00045	48 8b 44 24 30	 mov	 rax, QWORD PTR mn$[rsp]
  0004a	0f b6 00	 movzx	 eax, BYTE PTR [rax]

; 673  : }

  0004d	48 83 c4 48	 add	 rsp, 72			; 00000048H
  00051	c3		 ret	 0
z900_vfetchb ENDP
_TEXT	ENDS
; Function compile flags: /Odtp
; File C:\papa\MyGit\hyperion-zvector\vstore.h
;	COMDAT z900_vfetchc
_TEXT	SEGMENT
len2$ = 48
tv76 = 52
main1$ = 56
main2$ = 64
dest$ = 112
len$ = 120
addr$ = 128
arn$ = 136
regs$ = 144
z900_vfetchc PROC					; COMDAT

; 631  : {

$LN9:
  00000	44 89 4c 24 20	 mov	 DWORD PTR [rsp+32], r9d
  00005	4c 89 44 24 18	 mov	 QWORD PTR [rsp+24], r8
  0000a	88 54 24 10	 mov	 BYTE PTR [rsp+16], dl
  0000e	48 89 4c 24 08	 mov	 QWORD PTR [rsp+8], rcx
  00013	56		 push	 rsi
  00014	57		 push	 rdi
  00015	48 83 ec 58	 sub	 rsp, 88			; 00000058H

; 632  : BYTE   *main1, *main2;                  /* Main storage addresses    */
; 633  : int     len2;                           /* Length to copy on page    */
; 634  : 
; 635  :     if (NOCROSSPAGE( addr, len ))

  00019	48 8b 84 24 80
	00 00 00	 mov	 rax, QWORD PTR addr$[rsp]
  00021	48 25 ff 0f 00
	00		 and	 rax, 4095		; 00000fffH
  00027	0f b6 4c 24 78	 movzx	 ecx, BYTE PTR len$[rsp]
  0002c	ba ff 0f 00 00	 mov	 edx, 4095		; 00000fffH
  00031	2b d1		 sub	 edx, ecx
  00033	8b ca		 mov	 ecx, edx
  00035	3b c1		 cmp	 eax, ecx
  00037	7f 0a		 jg	 SHORT $LN7@z900_vfetc
  00039	c7 44 24 34 01
	00 00 00	 mov	 DWORD PTR tv76[rsp], 1
  00041	eb 08		 jmp	 SHORT $LN8@z900_vfetc
$LN7@z900_vfetc:
  00043	c7 44 24 34 00
	00 00 00	 mov	 DWORD PTR tv76[rsp], 0
$LN8@z900_vfetc:
  0004b	83 7c 24 34 00	 cmp	 DWORD PTR tv76[rsp], 0
  00050	74 63		 je	 SHORT $LN2@z900_vfetc

; 636  :     {
; 637  :         ITIMER_SYNC( addr, len, regs );
; 638  :         main1 = MADDRL( addr, len + 1, arn, regs, ACCTYPE_READ, regs->psw.pkey );

  00052	0f b6 44 24 78	 movzx	 eax, BYTE PTR len$[rsp]
  00057	ff c0		 inc	 eax
  00059	48 98		 cdqe
  0005b	48 8b 8c 24 90
	00 00 00	 mov	 rcx, QWORD PTR regs$[rsp]
  00063	0f b6 49 79	 movzx	 ecx, BYTE PTR [rcx+121]
  00067	88 4c 24 28	 mov	 BYTE PTR [rsp+40], cl
  0006b	c7 44 24 20 04
	00 00 00	 mov	 DWORD PTR [rsp+32], 4
  00073	4c 8b 8c 24 90
	00 00 00	 mov	 r9, QWORD PTR regs$[rsp]
  0007b	44 8b 84 24 88
	00 00 00	 mov	 r8d, DWORD PTR arn$[rsp]
  00083	48 8b d0	 mov	 rdx, rax
  00086	48 8b 8c 24 80
	00 00 00	 mov	 rcx, QWORD PTR addr$[rsp]
  0008e	e8 00 00 00 00	 call	 z900_maddr_l
  00093	48 89 44 24 38	 mov	 QWORD PTR main1$[rsp], rax

; 639  :         memcpy( dest, main1, len + 1 );

  00098	0f b6 44 24 78	 movzx	 eax, BYTE PTR len$[rsp]
  0009d	ff c0		 inc	 eax
  0009f	48 98		 cdqe
  000a1	48 8b 7c 24 70	 mov	 rdi, QWORD PTR dest$[rsp]
  000a6	48 8b 74 24 38	 mov	 rsi, QWORD PTR main1$[rsp]
  000ab	48 8b c8	 mov	 rcx, rax
  000ae	f3 a4		 rep movsb

; 640  :     }

  000b0	e9 01 01 00 00	 jmp	 $LN3@z900_vfetc
$LN2@z900_vfetc:

; 641  :     else
; 642  :     {
; 643  :         len2 = PAGEFRAME_PAGESIZE - (addr & PAGEFRAME_BYTEMASK);

  000b5	48 8b 84 24 80
	00 00 00	 mov	 rax, QWORD PTR addr$[rsp]
  000bd	48 25 ff 0f 00
	00		 and	 rax, 4095		; 00000fffH
  000c3	b9 00 10 00 00	 mov	 ecx, 4096		; 00001000H
  000c8	48 2b c8	 sub	 rcx, rax
  000cb	48 8b c1	 mov	 rax, rcx
  000ce	89 44 24 30	 mov	 DWORD PTR len2$[rsp], eax

; 644  :         main1 = MADDRL( addr, len2, arn, regs, ACCTYPE_READ, regs->psw.pkey );

  000d2	48 63 44 24 30	 movsxd	 rax, DWORD PTR len2$[rsp]
  000d7	48 8b 8c 24 90
	00 00 00	 mov	 rcx, QWORD PTR regs$[rsp]
  000df	0f b6 49 79	 movzx	 ecx, BYTE PTR [rcx+121]
  000e3	88 4c 24 28	 mov	 BYTE PTR [rsp+40], cl
  000e7	c7 44 24 20 04
	00 00 00	 mov	 DWORD PTR [rsp+32], 4
  000ef	4c 8b 8c 24 90
	00 00 00	 mov	 r9, QWORD PTR regs$[rsp]
  000f7	44 8b 84 24 88
	00 00 00	 mov	 r8d, DWORD PTR arn$[rsp]
  000ff	48 8b d0	 mov	 rdx, rax
  00102	48 8b 8c 24 80
	00 00 00	 mov	 rcx, QWORD PTR addr$[rsp]
  0010a	e8 00 00 00 00	 call	 z900_maddr_l
  0010f	48 89 44 24 38	 mov	 QWORD PTR main1$[rsp], rax

; 645  :         main2 = MADDRL( (addr + len2) & ADDRESS_MAXWRAP( regs ), len + 1 - len2,

  00114	0f b6 44 24 78	 movzx	 eax, BYTE PTR len$[rsp]
  00119	ff c0		 inc	 eax
  0011b	2b 44 24 30	 sub	 eax, DWORD PTR len2$[rsp]
  0011f	48 98		 cdqe
  00121	48 63 4c 24 30	 movsxd	 rcx, DWORD PTR len2$[rsp]
  00126	48 8b 94 24 80
	00 00 00	 mov	 rdx, QWORD PTR addr$[rsp]
  0012e	48 03 d1	 add	 rdx, rcx
  00131	48 8b ca	 mov	 rcx, rdx
  00134	48 8b 94 24 90
	00 00 00	 mov	 rdx, QWORD PTR regs$[rsp]
  0013c	48 23 8a 90 00
	00 00		 and	 rcx, QWORD PTR [rdx+144]
  00143	48 8b 94 24 90
	00 00 00	 mov	 rdx, QWORD PTR regs$[rsp]
  0014b	0f b6 52 79	 movzx	 edx, BYTE PTR [rdx+121]
  0014f	88 54 24 28	 mov	 BYTE PTR [rsp+40], dl
  00153	c7 44 24 20 04
	00 00 00	 mov	 DWORD PTR [rsp+32], 4
  0015b	4c 8b 8c 24 90
	00 00 00	 mov	 r9, QWORD PTR regs$[rsp]
  00163	44 8b 84 24 88
	00 00 00	 mov	 r8d, DWORD PTR arn$[rsp]
  0016b	48 8b d0	 mov	 rdx, rax
  0016e	e8 00 00 00 00	 call	 z900_maddr_l
  00173	48 89 44 24 40	 mov	 QWORD PTR main2$[rsp], rax

; 646  :                         arn, regs, ACCTYPE_READ, regs->psw.pkey );
; 647  :         memcpy(        dest,        main1,           len2 );

  00178	48 63 44 24 30	 movsxd	 rax, DWORD PTR len2$[rsp]
  0017d	48 8b 7c 24 70	 mov	 rdi, QWORD PTR dest$[rsp]
  00182	48 8b 74 24 38	 mov	 rsi, QWORD PTR main1$[rsp]
  00187	48 8b c8	 mov	 rcx, rax
  0018a	f3 a4		 rep movsb

; 648  :         memcpy( (BYTE*)dest + len2, main2, len + 1 - len2 );

  0018c	0f b6 44 24 78	 movzx	 eax, BYTE PTR len$[rsp]
  00191	ff c0		 inc	 eax
  00193	2b 44 24 30	 sub	 eax, DWORD PTR len2$[rsp]
  00197	48 98		 cdqe
  00199	48 63 4c 24 30	 movsxd	 rcx, DWORD PTR len2$[rsp]
  0019e	48 8b 54 24 70	 mov	 rdx, QWORD PTR dest$[rsp]
  001a3	48 03 d1	 add	 rdx, rcx
  001a6	48 8b ca	 mov	 rcx, rdx
  001a9	48 8b f9	 mov	 rdi, rcx
  001ac	48 8b 74 24 40	 mov	 rsi, QWORD PTR main2$[rsp]
  001b1	48 8b c8	 mov	 rcx, rax
  001b4	f3 a4		 rep movsb
$LN3@z900_vfetc:

; 649  :     }
; 650  : }

  001b6	48 83 c4 58	 add	 rsp, 88			; 00000058H
  001ba	5f		 pop	 rdi
  001bb	5e		 pop	 rsi
  001bc	c3		 ret	 0
z900_vfetchc ENDP
_TEXT	ENDS
; Function compile flags: /Odtp
; File C:\papa\MyGit\hyperion-zvector\vstore.h
;	COMDAT z900_vstore8
_TEXT	SEGMENT
tv70 = 48
mn$1 = 56
value$ = 80
addr$ = 88
arn$ = 96
regs$ = 104
z900_vstore8 PROC					; COMDAT

; 577  : {

$LN9:
  00000	4c 89 4c 24 20	 mov	 QWORD PTR [rsp+32], r9
  00005	44 89 44 24 18	 mov	 DWORD PTR [rsp+24], r8d
  0000a	48 89 54 24 10	 mov	 QWORD PTR [rsp+16], rdx
  0000f	48 89 4c 24 08	 mov	 QWORD PTR [rsp+8], rcx
  00014	48 83 ec 48	 sub	 rsp, 72			; 00000048H

; 578  : #if defined( OPTION_SINGLE_CPU_DW ) && defined( ASSIST_STORE_DW )
; 579  :     /* Check alignement. If aligned then we are guaranteed
; 580  :        not to cross a page boundary */
; 581  :     if (likely(!((VADR_L)addr & 0x07)))
; 582  :     {
; 583  :         /* Most common case : Aligned */
; 584  :         U64 *mn;
; 585  :         mn = (U64*)MADDRL( addr, 8, arn, regs, ACCTYPE_WRITE, regs->psw.pkey );
; 586  :         if (regs->cpubit == regs->sysblk->started_mask)
; 587  :             *mn = CSWAP64( value );
; 588  :         else
; 589  :             STORE_DW( mn, value );
; 590  :     }
; 591  :     else
; 592  : #endif
; 593  :     {
; 594  :         /* We're not aligned. So we have to check whether we are
; 595  :            crossing a page boundary. This cannot be the same
; 596  :            code as above because casting U64* to a non aligned
; 597  :            pointer may break on those architectures mandating
; 598  :            strict alignement */
; 599  :         if (likely(((VADR_L)addr & PAGEFRAME_BYTEMASK) <= (PAGEFRAME_BYTEMASK-7)))

  00018	48 8b 44 24 58	 mov	 rax, QWORD PTR addr$[rsp]
  0001d	48 25 ff 0f 00
	00		 and	 rax, 4095		; 00000fffH
  00023	48 3d f8 0f 00
	00		 cmp	 rax, 4088		; 00000ff8H
  00029	77 0a		 ja	 SHORT $LN7@z900_vstor
  0002b	c7 44 24 30 01
	00 00 00	 mov	 DWORD PTR tv70[rsp], 1
  00033	eb 08		 jmp	 SHORT $LN8@z900_vstor
$LN7@z900_vstor:
  00035	c7 44 24 30 00
	00 00 00	 mov	 DWORD PTR tv70[rsp], 0
$LN8@z900_vstor:
  0003d	83 7c 24 30 00	 cmp	 DWORD PTR tv70[rsp], 0
  00042	74 4c		 je	 SHORT $LN2@z900_vstor

; 600  :         {
; 601  :             /* Non aligned but not crossing page boundary */
; 602  :             BYTE *mn;
; 603  :             mn = MADDRL( addr, 8, arn, regs, ACCTYPE_WRITE, regs->psw.pkey );

  00044	48 8b 44 24 68	 mov	 rax, QWORD PTR regs$[rsp]
  00049	0f b6 40 79	 movzx	 eax, BYTE PTR [rax+121]
  0004d	88 44 24 28	 mov	 BYTE PTR [rsp+40], al
  00051	c7 44 24 20 02
	00 00 00	 mov	 DWORD PTR [rsp+32], 2
  00059	4c 8b 4c 24 68	 mov	 r9, QWORD PTR regs$[rsp]
  0005e	44 8b 44 24 60	 mov	 r8d, DWORD PTR arn$[rsp]
  00063	ba 08 00 00 00	 mov	 edx, 8
  00068	48 8b 4c 24 58	 mov	 rcx, QWORD PTR addr$[rsp]
  0006d	e8 00 00 00 00	 call	 z900_maddr_l
  00072	48 89 44 24 38	 mov	 QWORD PTR mn$1[rsp], rax

; 604  :             /* invoking STORE_DW ensures endianness correctness */
; 605  :             STORE_DW( mn, value );

  00077	48 8b 4c 24 50	 mov	 rcx, QWORD PTR value$[rsp]
  0007c	e8 00 00 00 00	 call	 _byteswap_uint64
  00081	48 8b d0	 mov	 rdx, rax
  00084	48 8b 4c 24 38	 mov	 rcx, QWORD PTR mn$1[rsp]
  00089	e8 00 00 00 00	 call	 store_dw_noswap

; 606  :         }

  0008e	eb 19		 jmp	 SHORT $LN3@z900_vstor
$LN2@z900_vstor:

; 607  :         else
; 608  :             /* Crossing page boundary */
; 609  :             ARCH_DEP( vstore8_full )( value, addr, arn, regs );

  00090	4c 8b 4c 24 68	 mov	 r9, QWORD PTR regs$[rsp]
  00095	44 8b 44 24 60	 mov	 r8d, DWORD PTR arn$[rsp]
  0009a	48 8b 54 24 58	 mov	 rdx, QWORD PTR addr$[rsp]
  0009f	48 8b 4c 24 50	 mov	 rcx, QWORD PTR value$[rsp]
  000a4	e8 00 00 00 00	 call	 z900_vstore8_full
$LN3@z900_vstor:

; 610  :     }
; 611  :     ITIMER_UPDATE( addr, 8-1, regs );
; 612  : }

  000a9	48 83 c4 48	 add	 rsp, 72			; 00000048H
  000ad	c3		 ret	 0
z900_vstore8 ENDP
_TEXT	ENDS
; Function compile flags: /Odtp
; File C:\papa\MyGit\hyperion-zvector\vstore.h
;	COMDAT z900_vstore4
_TEXT	SEGMENT
tv66 = 48
tv72 = 52
mn$1 = 56
value$ = 80
addr$ = 88
arn$ = 96
regs$ = 104
z900_vstore4 PROC					; COMDAT

; 559  : {

$LN12:
  00000	4c 89 4c 24 20	 mov	 QWORD PTR [rsp+32], r9
  00005	44 89 44 24 18	 mov	 DWORD PTR [rsp+24], r8d
  0000a	48 89 54 24 10	 mov	 QWORD PTR [rsp+16], rdx
  0000f	89 4c 24 08	 mov	 DWORD PTR [rsp+8], ecx
  00013	48 83 ec 48	 sub	 rsp, 72			; 00000048H

; 560  :     /* Most common case : Aligned & not crossing page boundary */
; 561  :     if (likely(!((VADR_L)addr & 0x03))
; 562  :         || (((VADR_L)addr & PAGEFRAME_BYTEMASK) <= (PAGEFRAME_BYTEMASK-3)))

  00017	48 8b 44 24 58	 mov	 rax, QWORD PTR addr$[rsp]
  0001c	48 83 e0 03	 and	 rax, 3
  00020	48 85 c0	 test	 rax, rax
  00023	75 0a		 jne	 SHORT $LN6@z900_vstor
  00025	c7 44 24 30 01
	00 00 00	 mov	 DWORD PTR tv66[rsp], 1
  0002d	eb 08		 jmp	 SHORT $LN7@z900_vstor
$LN6@z900_vstor:
  0002f	c7 44 24 30 00
	00 00 00	 mov	 DWORD PTR tv66[rsp], 0
$LN7@z900_vstor:
  00037	83 7c 24 30 00	 cmp	 DWORD PTR tv66[rsp], 0
  0003c	74 0a		 je	 SHORT $LN10@z900_vstor
  0003e	c7 44 24 34 01
	00 00 00	 mov	 DWORD PTR tv72[rsp], 1
  00046	eb 08		 jmp	 SHORT $LN11@z900_vstor
$LN10@z900_vstor:
  00048	c7 44 24 34 00
	00 00 00	 mov	 DWORD PTR tv72[rsp], 0
$LN11@z900_vstor:
  00050	83 7c 24 34 00	 cmp	 DWORD PTR tv72[rsp], 0
  00055	75 13		 jne	 SHORT $LN4@z900_vstor
  00057	48 8b 44 24 58	 mov	 rax, QWORD PTR addr$[rsp]
  0005c	48 25 ff 0f 00
	00		 and	 rax, 4095		; 00000fffH
  00062	48 3d fc 0f 00
	00		 cmp	 rax, 4092		; 00000ffcH
  00068	77 4a		 ja	 SHORT $LN2@z900_vstor
$LN4@z900_vstor:

; 563  :     {
; 564  :         BYTE *mn;
; 565  :         mn = MADDRL( addr, 4, arn, regs, ACCTYPE_WRITE, regs->psw.pkey );

  0006a	48 8b 44 24 68	 mov	 rax, QWORD PTR regs$[rsp]
  0006f	0f b6 40 79	 movzx	 eax, BYTE PTR [rax+121]
  00073	88 44 24 28	 mov	 BYTE PTR [rsp+40], al
  00077	c7 44 24 20 02
	00 00 00	 mov	 DWORD PTR [rsp+32], 2
  0007f	4c 8b 4c 24 68	 mov	 r9, QWORD PTR regs$[rsp]
  00084	44 8b 44 24 60	 mov	 r8d, DWORD PTR arn$[rsp]
  00089	ba 04 00 00 00	 mov	 edx, 4
  0008e	48 8b 4c 24 58	 mov	 rcx, QWORD PTR addr$[rsp]
  00093	e8 00 00 00 00	 call	 z900_maddr_l
  00098	48 89 44 24 38	 mov	 QWORD PTR mn$1[rsp], rax

; 566  :         STORE_FW( mn, value );

  0009d	8b 4c 24 50	 mov	 ecx, DWORD PTR value$[rsp]
  000a1	e8 00 00 00 00	 call	 _byteswap_ulong
  000a6	8b d0		 mov	 edx, eax
  000a8	48 8b 4c 24 38	 mov	 rcx, QWORD PTR mn$1[rsp]
  000ad	e8 00 00 00 00	 call	 store_fw_noswap

; 567  :         ITIMER_UPDATE( addr, 4-1, regs );
; 568  :     }

  000b2	eb 18		 jmp	 SHORT $LN3@z900_vstor
$LN2@z900_vstor:

; 569  :     else
; 570  :         ARCH_DEP( vstore4_full )( value, addr, arn, regs );

  000b4	4c 8b 4c 24 68	 mov	 r9, QWORD PTR regs$[rsp]
  000b9	44 8b 44 24 60	 mov	 r8d, DWORD PTR arn$[rsp]
  000be	48 8b 54 24 58	 mov	 rdx, QWORD PTR addr$[rsp]
  000c3	8b 4c 24 50	 mov	 ecx, DWORD PTR value$[rsp]
  000c7	e8 00 00 00 00	 call	 z900_vstore4_full
$LN3@z900_vstor:

; 571  : }

  000cc	48 83 c4 48	 add	 rsp, 72			; 00000048H
  000d0	c3		 ret	 0
z900_vstore4 ENDP
_TEXT	ENDS
; Function compile flags: /Odtp
; File C:\papa\MyGit\hyperion-zvector\vstore.h
;	COMDAT z900_vstore2
_TEXT	SEGMENT
tv73 = 48
mn$1 = 56
value$ = 80
addr$ = 88
arn$ = 96
regs$ = 104
z900_vstore2 PROC					; COMDAT

; 541  : {

$LN9:
  00000	4c 89 4c 24 20	 mov	 QWORD PTR [rsp+32], r9
  00005	44 89 44 24 18	 mov	 DWORD PTR [rsp+24], r8d
  0000a	48 89 54 24 10	 mov	 QWORD PTR [rsp+16], rdx
  0000f	66 89 4c 24 08	 mov	 WORD PTR [rsp+8], cx
  00014	48 83 ec 48	 sub	 rsp, 72			; 00000048H

; 542  :     /* Most common case : Aligned & not crossing page boundary */
; 543  :     if (likely(!((VADR_L)addr & 1)

  00018	48 8b 44 24 58	 mov	 rax, QWORD PTR addr$[rsp]
  0001d	48 83 e0 01	 and	 rax, 1
  00021	48 85 c0	 test	 rax, rax
  00024	74 1d		 je	 SHORT $LN5@z900_vstor
  00026	48 8b 44 24 58	 mov	 rax, QWORD PTR addr$[rsp]
  0002b	48 25 ff 0f 00
	00		 and	 rax, 4095		; 00000fffH
  00031	48 3d ff 0f 00
	00		 cmp	 rax, 4095		; 00000fffH
  00037	75 0a		 jne	 SHORT $LN5@z900_vstor
  00039	c7 44 24 30 00
	00 00 00	 mov	 DWORD PTR tv73[rsp], 0
  00041	eb 08		 jmp	 SHORT $LN8@z900_vstor
$LN5@z900_vstor:
  00043	c7 44 24 30 01
	00 00 00	 mov	 DWORD PTR tv73[rsp], 1
$LN8@z900_vstor:
  0004b	83 7c 24 30 00	 cmp	 DWORD PTR tv73[rsp], 0
  00050	74 4c		 je	 SHORT $LN2@z900_vstor

; 544  :         || ((VADR_L)addr & PAGEFRAME_BYTEMASK) != PAGEFRAME_BYTEMASK))
; 545  :     {
; 546  :         BYTE* mn;
; 547  :         mn = MADDRL( addr, 2, arn, regs, ACCTYPE_WRITE, regs->psw.pkey );

  00052	48 8b 44 24 68	 mov	 rax, QWORD PTR regs$[rsp]
  00057	0f b6 40 79	 movzx	 eax, BYTE PTR [rax+121]
  0005b	88 44 24 28	 mov	 BYTE PTR [rsp+40], al
  0005f	c7 44 24 20 02
	00 00 00	 mov	 DWORD PTR [rsp+32], 2
  00067	4c 8b 4c 24 68	 mov	 r9, QWORD PTR regs$[rsp]
  0006c	44 8b 44 24 60	 mov	 r8d, DWORD PTR arn$[rsp]
  00071	ba 02 00 00 00	 mov	 edx, 2
  00076	48 8b 4c 24 58	 mov	 rcx, QWORD PTR addr$[rsp]
  0007b	e8 00 00 00 00	 call	 z900_maddr_l
  00080	48 89 44 24 38	 mov	 QWORD PTR mn$1[rsp], rax

; 548  :         STORE_HW( mn, value );

  00085	0f b7 4c 24 50	 movzx	 ecx, WORD PTR value$[rsp]
  0008a	e8 00 00 00 00	 call	 _byteswap_ushort
  0008f	0f b7 d0	 movzx	 edx, ax
  00092	48 8b 4c 24 38	 mov	 rcx, QWORD PTR mn$1[rsp]
  00097	e8 00 00 00 00	 call	 store_hw_noswap

; 549  :         ITIMER_UPDATE( addr, 2-1, regs );
; 550  :     }

  0009c	eb 19		 jmp	 SHORT $LN3@z900_vstor
$LN2@z900_vstor:

; 551  :     else
; 552  :         ARCH_DEP( vstore2_full )( value, addr, arn, regs );

  0009e	4c 8b 4c 24 68	 mov	 r9, QWORD PTR regs$[rsp]
  000a3	44 8b 44 24 60	 mov	 r8d, DWORD PTR arn$[rsp]
  000a8	48 8b 54 24 58	 mov	 rdx, QWORD PTR addr$[rsp]
  000ad	0f b7 4c 24 50	 movzx	 ecx, WORD PTR value$[rsp]
  000b2	e8 00 00 00 00	 call	 z900_vstore2_full
$LN3@z900_vstor:

; 553  : }

  000b7	48 83 c4 48	 add	 rsp, 72			; 00000048H
  000bb	c3		 ret	 0
z900_vstore2 ENDP
_TEXT	ENDS
; Function compile flags: /Odtp
; File C:\papa\MyGit\hyperion-zvector\vstore.h
;	COMDAT z900_vstoreb
_TEXT	SEGMENT
main1$ = 48
value$ = 80
addr$ = 88
arn$ = 96
regs$ = 104
z900_vstoreb PROC					; COMDAT

; 529  : {

$LN3:
  00000	4c 89 4c 24 20	 mov	 QWORD PTR [rsp+32], r9
  00005	44 89 44 24 18	 mov	 DWORD PTR [rsp+24], r8d
  0000a	48 89 54 24 10	 mov	 QWORD PTR [rsp+16], rdx
  0000f	88 4c 24 08	 mov	 BYTE PTR [rsp+8], cl
  00013	48 83 ec 48	 sub	 rsp, 72			; 00000048H

; 530  : BYTE   *main1;                          /* Mainstor address          */
; 531  : 
; 532  :     main1 = MADDR( addr, arn, regs, ACCTYPE_WRITE, regs->psw.pkey );

  00017	48 8b 44 24 68	 mov	 rax, QWORD PTR regs$[rsp]
  0001c	0f b6 40 79	 movzx	 eax, BYTE PTR [rax+121]
  00020	88 44 24 28	 mov	 BYTE PTR [rsp+40], al
  00024	c7 44 24 20 02
	00 00 00	 mov	 DWORD PTR [rsp+32], 2
  0002c	4c 8b 4c 24 68	 mov	 r9, QWORD PTR regs$[rsp]
  00031	44 8b 44 24 60	 mov	 r8d, DWORD PTR arn$[rsp]
  00036	ba 01 00 00 00	 mov	 edx, 1
  0003b	48 8b 4c 24 58	 mov	 rcx, QWORD PTR addr$[rsp]
  00040	e8 00 00 00 00	 call	 z900_maddr_l
  00045	48 89 44 24 30	 mov	 QWORD PTR main1$[rsp], rax

; 533  :     *main1 = value;

  0004a	48 8b 44 24 30	 mov	 rax, QWORD PTR main1$[rsp]
  0004f	0f b6 4c 24 50	 movzx	 ecx, BYTE PTR value$[rsp]
  00054	88 08		 mov	 BYTE PTR [rax], cl

; 534  :     ITIMER_UPDATE( addr, 1-1, regs );
; 535  : }

  00056	48 83 c4 48	 add	 rsp, 72			; 00000048H
  0005a	c3		 ret	 0
z900_vstoreb ENDP
_TEXT	ENDS
; Function compile flags: /Odtp
; File C:\papa\MyGit\hyperion-zvector\vstore.h
;	COMDAT z900_vstorec
_TEXT	SEGMENT
len2$ = 48
tv76 = 52
sk$ = 56
tv83 = 64
main1$ = 72
main2$ = 80
src$ = 128
len$ = 136
addr$ = 144
arn$ = 152
regs$ = 160
z900_vstorec PROC					; COMDAT

; 489  : {

$LN9:
  00000	44 89 4c 24 20	 mov	 DWORD PTR [rsp+32], r9d
  00005	4c 89 44 24 18	 mov	 QWORD PTR [rsp+24], r8
  0000a	88 54 24 10	 mov	 BYTE PTR [rsp+16], dl
  0000e	48 89 4c 24 08	 mov	 QWORD PTR [rsp+8], rcx
  00013	56		 push	 rsi
  00014	57		 push	 rdi
  00015	48 83 ec 68	 sub	 rsp, 104		; 00000068H

; 490  : BYTE   *main1, *main2;                  /* Mainstor addresses        */
; 491  : BYTE   *sk;                             /* Storage key addresses     */
; 492  : int     len2;                           /* Length to end of page     */
; 493  : 
; 494  :     if (NOCROSSPAGE( addr,len ))

  00019	48 8b 84 24 90
	00 00 00	 mov	 rax, QWORD PTR addr$[rsp]
  00021	48 25 ff 0f 00
	00		 and	 rax, 4095		; 00000fffH
  00027	0f b6 8c 24 88
	00 00 00	 movzx	 ecx, BYTE PTR len$[rsp]
  0002f	ba ff 0f 00 00	 mov	 edx, 4095		; 00000fffH
  00034	2b d1		 sub	 edx, ecx
  00036	8b ca		 mov	 ecx, edx
  00038	3b c1		 cmp	 eax, ecx
  0003a	7f 0a		 jg	 SHORT $LN7@z900_vstor
  0003c	c7 44 24 34 01
	00 00 00	 mov	 DWORD PTR tv76[rsp], 1
  00044	eb 08		 jmp	 SHORT $LN8@z900_vstor
$LN7@z900_vstor:
  00046	c7 44 24 34 00
	00 00 00	 mov	 DWORD PTR tv76[rsp], 0
$LN8@z900_vstor:
  0004e	83 7c 24 34 00	 cmp	 DWORD PTR tv76[rsp], 0
  00053	74 70		 je	 SHORT $LN2@z900_vstor

; 495  :     {
; 496  :         memcpy( MADDRL( addr, len+1, arn, regs, ACCTYPE_WRITE, regs->psw.pkey ),

  00055	0f b6 84 24 88
	00 00 00	 movzx	 eax, BYTE PTR len$[rsp]
  0005d	ff c0		 inc	 eax
  0005f	48 98		 cdqe
  00061	48 89 44 24 40	 mov	 QWORD PTR tv83[rsp], rax
  00066	0f b6 8c 24 88
	00 00 00	 movzx	 ecx, BYTE PTR len$[rsp]
  0006e	ff c1		 inc	 ecx
  00070	48 63 c9	 movsxd	 rcx, ecx
  00073	48 8b 94 24 a0
	00 00 00	 mov	 rdx, QWORD PTR regs$[rsp]
  0007b	0f b6 52 79	 movzx	 edx, BYTE PTR [rdx+121]
  0007f	88 54 24 28	 mov	 BYTE PTR [rsp+40], dl
  00083	c7 44 24 20 02
	00 00 00	 mov	 DWORD PTR [rsp+32], 2
  0008b	4c 8b 8c 24 a0
	00 00 00	 mov	 r9, QWORD PTR regs$[rsp]
  00093	44 8b 84 24 98
	00 00 00	 mov	 r8d, DWORD PTR arn$[rsp]
  0009b	48 8b d1	 mov	 rdx, rcx
  0009e	48 8b 8c 24 90
	00 00 00	 mov	 rcx, QWORD PTR addr$[rsp]
  000a6	e8 00 00 00 00	 call	 z900_maddr_l
  000ab	48 8b f8	 mov	 rdi, rax
  000ae	48 8b b4 24 80
	00 00 00	 mov	 rsi, QWORD PTR src$[rsp]
  000b6	48 8b 44 24 40	 mov	 rax, QWORD PTR tv83[rsp]
  000bb	48 8b c8	 mov	 rcx, rax
  000be	f3 a4		 rep movsb

; 497  :                src, len + 1);
; 498  :         ITIMER_UPDATE( addr, len, regs );
; 499  :     }

  000c0	e9 33 01 00 00	 jmp	 $LN3@z900_vstor
$LN2@z900_vstor:

; 500  :     else
; 501  :     {
; 502  :         len2 = PAGEFRAME_PAGESIZE - (addr & PAGEFRAME_BYTEMASK);

  000c5	48 8b 84 24 90
	00 00 00	 mov	 rax, QWORD PTR addr$[rsp]
  000cd	48 25 ff 0f 00
	00		 and	 rax, 4095		; 00000fffH
  000d3	b9 00 10 00 00	 mov	 ecx, 4096		; 00001000H
  000d8	48 2b c8	 sub	 rcx, rax
  000db	48 8b c1	 mov	 rax, rcx
  000de	89 44 24 30	 mov	 DWORD PTR len2$[rsp], eax

; 503  :         main1 = MADDRL( addr, len2, arn, regs, ACCTYPE_WRITE_SKP,

  000e2	48 63 44 24 30	 movsxd	 rax, DWORD PTR len2$[rsp]
  000e7	48 8b 8c 24 a0
	00 00 00	 mov	 rcx, QWORD PTR regs$[rsp]
  000ef	0f b6 49 79	 movzx	 ecx, BYTE PTR [rcx+121]
  000f3	88 4c 24 28	 mov	 BYTE PTR [rsp+40], cl
  000f7	c7 44 24 20 01
	00 00 00	 mov	 DWORD PTR [rsp+32], 1
  000ff	4c 8b 8c 24 a0
	00 00 00	 mov	 r9, QWORD PTR regs$[rsp]
  00107	44 8b 84 24 98
	00 00 00	 mov	 r8d, DWORD PTR arn$[rsp]
  0010f	48 8b d0	 mov	 rdx, rax
  00112	48 8b 8c 24 90
	00 00 00	 mov	 rcx, QWORD PTR addr$[rsp]
  0011a	e8 00 00 00 00	 call	 z900_maddr_l
  0011f	48 89 44 24 48	 mov	 QWORD PTR main1$[rsp], rax

; 504  :                         regs->psw.pkey );
; 505  :         sk = regs->dat.storkey;

  00124	48 8b 84 24 a0
	00 00 00	 mov	 rax, QWORD PTR regs$[rsp]
  0012c	48 8b 80 28 08
	00 00		 mov	 rax, QWORD PTR [rax+2088]
  00133	48 89 44 24 38	 mov	 QWORD PTR sk$[rsp], rax

; 506  :         main2 = MADDRL( (addr + len2) & ADDRESS_MAXWRAP( regs ),

  00138	0f b6 84 24 88
	00 00 00	 movzx	 eax, BYTE PTR len$[rsp]
  00140	ff c0		 inc	 eax
  00142	2b 44 24 30	 sub	 eax, DWORD PTR len2$[rsp]
  00146	48 98		 cdqe
  00148	48 63 4c 24 30	 movsxd	 rcx, DWORD PTR len2$[rsp]
  0014d	48 8b 94 24 90
	00 00 00	 mov	 rdx, QWORD PTR addr$[rsp]
  00155	48 03 d1	 add	 rdx, rcx
  00158	48 8b ca	 mov	 rcx, rdx
  0015b	48 8b 94 24 a0
	00 00 00	 mov	 rdx, QWORD PTR regs$[rsp]
  00163	48 23 8a 90 00
	00 00		 and	 rcx, QWORD PTR [rdx+144]
  0016a	48 8b 94 24 a0
	00 00 00	 mov	 rdx, QWORD PTR regs$[rsp]
  00172	0f b6 52 79	 movzx	 edx, BYTE PTR [rdx+121]
  00176	88 54 24 28	 mov	 BYTE PTR [rsp+40], dl
  0017a	c7 44 24 20 02
	00 00 00	 mov	 DWORD PTR [rsp+32], 2
  00182	4c 8b 8c 24 a0
	00 00 00	 mov	 r9, QWORD PTR regs$[rsp]
  0018a	44 8b 84 24 98
	00 00 00	 mov	 r8d, DWORD PTR arn$[rsp]
  00192	48 8b d0	 mov	 rdx, rax
  00195	e8 00 00 00 00	 call	 z900_maddr_l
  0019a	48 89 44 24 50	 mov	 QWORD PTR main2$[rsp], rax

; 507  :                         len+1-len2, arn,
; 508  :                         regs, ACCTYPE_WRITE, regs->psw.pkey );
; 509  :         *sk |= (STORKEY_REF | STORKEY_CHANGE);

  0019f	48 8b 44 24 38	 mov	 rax, QWORD PTR sk$[rsp]
  001a4	0f b6 00	 movzx	 eax, BYTE PTR [rax]
  001a7	83 c8 06	 or	 eax, 6
  001aa	48 8b 4c 24 38	 mov	 rcx, QWORD PTR sk$[rsp]
  001af	88 01		 mov	 BYTE PTR [rcx], al

; 510  :         memcpy( main1, src, len2 );

  001b1	48 63 44 24 30	 movsxd	 rax, DWORD PTR len2$[rsp]
  001b6	48 8b 7c 24 48	 mov	 rdi, QWORD PTR main1$[rsp]
  001bb	48 8b b4 24 80
	00 00 00	 mov	 rsi, QWORD PTR src$[rsp]
  001c3	48 8b c8	 mov	 rcx, rax
  001c6	f3 a4		 rep movsb

; 511  :         memcpy( main2, (BYTE*)src + len2, len + 1 - len2 );

  001c8	0f b6 84 24 88
	00 00 00	 movzx	 eax, BYTE PTR len$[rsp]
  001d0	ff c0		 inc	 eax
  001d2	2b 44 24 30	 sub	 eax, DWORD PTR len2$[rsp]
  001d6	48 98		 cdqe
  001d8	48 63 4c 24 30	 movsxd	 rcx, DWORD PTR len2$[rsp]
  001dd	48 8b 94 24 80
	00 00 00	 mov	 rdx, QWORD PTR src$[rsp]
  001e5	48 03 d1	 add	 rdx, rcx
  001e8	48 8b ca	 mov	 rcx, rdx
  001eb	48 8b 7c 24 50	 mov	 rdi, QWORD PTR main2$[rsp]
  001f0	48 8b f1	 mov	 rsi, rcx
  001f3	48 8b c8	 mov	 rcx, rax
  001f6	f3 a4		 rep movsb
$LN3@z900_vstor:

; 512  :     }
; 513  : }

  001f8	48 83 c4 68	 add	 rsp, 104		; 00000068H
  001fc	5f		 pop	 rdi
  001fd	5e		 pop	 rsi
  001fe	c3		 ret	 0
z900_vstorec ENDP
_TEXT	ENDS
; Function compile flags: /Odtp
; File C:\papa\MyGit\hyperion-zvector\vstore.h
;	COMDAT z900_vfetch8_full
_TEXT	SEGMENT
len$ = 48
mn$ = 56
temp$ = 64
__$ArrayPad$ = 80
addr$ = 128
arn$ = 136
regs$ = 144
z900_vfetch8_full PROC					; COMDAT

; 457  : {

$LN3:
  00000	4c 89 44 24 18	 mov	 QWORD PTR [rsp+24], r8
  00005	89 54 24 10	 mov	 DWORD PTR [rsp+16], edx
  00009	48 89 4c 24 08	 mov	 QWORD PTR [rsp+8], rcx
  0000e	56		 push	 rsi
  0000f	57		 push	 rdi
  00010	48 83 ec 68	 sub	 rsp, 104		; 00000068H
  00014	48 8b 05 00 00
	00 00		 mov	 rax, QWORD PTR __security_cookie
  0001b	48 33 c4	 xor	 rax, rsp
  0001e	48 89 44 24 50	 mov	 QWORD PTR __$ArrayPad$[rsp], rax

; 458  : BYTE   *mn;                             /* Main storage addresses    */
; 459  : int     len;                            /* Length to end of page     */
; 460  : BYTE    temp[16];                       /* Copy destination          */
; 461  : 
; 462  :     /* Get absolute address of first byte of operand */
; 463  :     len = PAGEFRAME_PAGESIZE - (addr & PAGEFRAME_BYTEMASK);

  00023	48 8b 84 24 80
	00 00 00	 mov	 rax, QWORD PTR addr$[rsp]
  0002b	48 25 ff 0f 00
	00		 and	 rax, 4095		; 00000fffH
  00031	b9 00 10 00 00	 mov	 ecx, 4096		; 00001000H
  00036	48 2b c8	 sub	 rcx, rax
  00039	48 8b c1	 mov	 rax, rcx
  0003c	89 44 24 30	 mov	 DWORD PTR len$[rsp], eax

; 464  :     mn = MADDRL( addr, len, arn, regs, ACCTYPE_READ, regs->psw.pkey );

  00040	48 63 44 24 30	 movsxd	 rax, DWORD PTR len$[rsp]
  00045	48 8b 8c 24 90
	00 00 00	 mov	 rcx, QWORD PTR regs$[rsp]
  0004d	0f b6 49 79	 movzx	 ecx, BYTE PTR [rcx+121]
  00051	88 4c 24 28	 mov	 BYTE PTR [rsp+40], cl
  00055	c7 44 24 20 04
	00 00 00	 mov	 DWORD PTR [rsp+32], 4
  0005d	4c 8b 8c 24 90
	00 00 00	 mov	 r9, QWORD PTR regs$[rsp]
  00065	44 8b 84 24 88
	00 00 00	 mov	 r8d, DWORD PTR arn$[rsp]
  0006d	48 8b d0	 mov	 rdx, rax
  00070	48 8b 8c 24 80
	00 00 00	 mov	 rcx, QWORD PTR addr$[rsp]
  00078	e8 00 00 00 00	 call	 z900_maddr_l
  0007d	48 89 44 24 38	 mov	 QWORD PTR mn$[rsp], rax

; 465  :     memcpy( temp, mn, len);

  00082	48 63 44 24 30	 movsxd	 rax, DWORD PTR len$[rsp]
  00087	48 8d 4c 24 40	 lea	 rcx, QWORD PTR temp$[rsp]
  0008c	48 8b f9	 mov	 rdi, rcx
  0008f	48 8b 74 24 38	 mov	 rsi, QWORD PTR mn$[rsp]
  00094	48 8b c8	 mov	 rcx, rax
  00097	f3 a4		 rep movsb

