; Listing generated by Microsoft (R) Optimizing Compiler Version 19.34.31937.0 

include listing.inc

INCLUDELIB MSVCRTD
INCLUDELIB OLDNAMES

CONST	SEGMENT
CKD_ENDTRK DB	0ffH
	DB	0ffH
	DB	0ffH
	DB	0ffH
	DB	0ffH
	DB	0ffH
	DB	0ffH
	DB	0ffH
CONST	ENDS
PUBLIC	s370_add_immediate_long_storage
PUBLIC	s370_add_immediate_storage
PUBLIC	s370_add_logical_with_signed_immediate
PUBLIC	s370_add_logical_with_signed_immediate_long
PUBLIC	s370_compare_and_branch_register
PUBLIC	s370_compare_and_branch_relative_register
PUBLIC	s370_compare_and_trap_register
PUBLIC	s370_compare_halfword_immediate_halfword_storage
PUBLIC	s370_compare_halfword_immediate_long_storage
PUBLIC	s370_compare_halfword_immediate_storage
PUBLIC	s370_compare_halfword_relative_long
PUBLIC	s370_compare_immediate_and_branch
PUBLIC	s370_compare_immediate_and_branch_relative
PUBLIC	s370_compare_immediate_and_trap
PUBLIC	s370_compare_logical_and_branch_register
PUBLIC	s370_compare_logical_and_branch_relative_register
PUBLIC	s370_compare_logical_and_trap_register
PUBLIC	s370_compare_logical_immediate_and_branch
PUBLIC	s370_compare_logical_immediate_and_branch_relative
PUBLIC	s370_compare_logical_immediate_and_trap_fullword
PUBLIC	s370_compare_logical_immediate_fullword_storage
PUBLIC	s370_compare_logical_immediate_halfword_storage
PUBLIC	s370_compare_logical_immediate_long_storage
PUBLIC	s370_compare_logical_relative_long
PUBLIC	s370_compare_logical_relative_long_halfword
PUBLIC	s370_compare_relative_long
PUBLIC	s370_load_halfword_relative_long
PUBLIC	s370_load_logical_halfword_relative_long
PUBLIC	s370_load_relative_long
PUBLIC	s370_move_fullword_from_halfword_immediate
PUBLIC	s370_move_halfword_from_halfword_immediate
PUBLIC	s370_move_long_from_halfword_immediate
PUBLIC	s370_multiply_halfword_y
PUBLIC	s370_multiply_single_immediate_fullword
PUBLIC	s370_multiply_y
PUBLIC	s370_prefetch_data
PUBLIC	s370_prefetch_data_relative_long
PUBLIC	s370_store_halfword_relative_long
PUBLIC	s370_store_relative_long
PUBLIC	s370_store_relative_long_long
PUBLIC	s370_add_distinct_register
PUBLIC	s370_add_distinct_halfword_immediate
PUBLIC	s370_add_logical_distinct_register
PUBLIC	s370_add_logical_distinct_signed_halfword_immediate
PUBLIC	s370_and_distinct_register
PUBLIC	s370_exclusive_or_distinct_register
PUBLIC	s370_or_distinct_register
PUBLIC	s370_shift_right_single_distinct
PUBLIC	s370_shift_left_single_distinct
PUBLIC	s370_shift_right_single_logical_distinct
PUBLIC	s370_shift_left_single_logical_distinct
PUBLIC	s370_subtract_distinct_register
PUBLIC	s370_subtract_logical_distinct_register
PUBLIC	s370_add_high_high_high_register
PUBLIC	s370_add_high_high_low_register
PUBLIC	s370_add_high_immediate
PUBLIC	s370_add_logical_high_high_high_register
PUBLIC	s370_add_logical_high_high_low_register
PUBLIC	s370_add_logical_with_signed_immediate_high
PUBLIC	s370_add_logical_with_signed_immediate_high_n
PUBLIC	s370_branch_relative_on_count_high
PUBLIC	s370_compare_high_high_register
PUBLIC	s370_compare_high_low_register
PUBLIC	s370_compare_high_fullword
PUBLIC	s370_compare_high_immediate
PUBLIC	s370_compare_logical_high_high_register
PUBLIC	s370_compare_logical_high_low_register
PUBLIC	s370_compare_logical_high_fullword
PUBLIC	s370_compare_logical_high_immediate
PUBLIC	s370_load_byte_high
PUBLIC	s370_load_fullword_high
PUBLIC	s370_load_halfword_high
PUBLIC	s370_load_logical_character_high
PUBLIC	s370_load_logical_halfword_high
PUBLIC	s370_rotate_then_insert_selected_bits_high_long_reg
PUBLIC	s370_rotate_then_insert_selected_bits_low_long_reg
PUBLIC	s370_store_character_high
PUBLIC	s370_store_fullword_high
PUBLIC	s370_store_halfword_high
PUBLIC	s370_subtract_high_high_high_register
PUBLIC	s370_subtract_high_high_low_register
PUBLIC	s370_subtract_logical_high_high_high_register
PUBLIC	s370_subtract_logical_high_high_low_register
PUBLIC	s370_load_and_add
PUBLIC	s370_load_and_add_logical
PUBLIC	s370_load_and_and
PUBLIC	s370_load_and_exclusive_or
PUBLIC	s370_load_and_or
PUBLIC	s370_load_pair_disjoint
PUBLIC	s370_load_and_add_long
PUBLIC	s370_load_and_add_logical_long
PUBLIC	s370_load_and_and_long
PUBLIC	s370_load_and_exclusive_or_long
PUBLIC	s370_load_and_or_long
PUBLIC	s370_load_pair_disjoint_long
PUBLIC	s370_load_on_condition_register
PUBLIC	s370_load_on_condition
PUBLIC	s370_store_on_condition
PUBLIC	s370_population_count
PUBLIC	cmpxchg8_x86
PUBLIC	cmpxchg4_x86
PUBLIC	fetch_hw_noswap
PUBLIC	store_hw_noswap
PUBLIC	fetch_fw_noswap
PUBLIC	store_fw_noswap
PUBLIC	fetch_dw_noswap
PUBLIC	store_dw_noswap
PUBLIC	add_logical
PUBLIC	sub_logical
PUBLIC	add_signed
PUBLIC	sub_signed
PUBLIC	mul_signed
PUBLIC	mul_unsigned_long
PUBLIC	mul_signed_long
PUBLIC	add_logical_long
PUBLIC	sub_logical_long
PUBLIC	add_signed_long
PUBLIC	sub_signed_long
PUBLIC	s370_maddr_l
PUBLIC	s370_vstore2_full
PUBLIC	s370_vstore4_full
PUBLIC	s370_vstore8_full
PUBLIC	s370_vfetch2_full
PUBLIC	s370_vfetch4_full
PUBLIC	s370_vfetch8_full
PUBLIC	s370_vstoreb
PUBLIC	s370_vstore2
PUBLIC	s370_vstore4
PUBLIC	s370_vstore8
PUBLIC	s370_vfetchb
PUBLIC	s370_vfetch2
PUBLIC	s370_vfetch4
PUBLIC	s370_vfetch8
PUBLIC	s370_perform_interlocked_storage_immediate
PUBLIC	s370_perform_interlocked_long_storage_immediate
PUBLIC	s370_rotate_then_xxx_selected_bits_long_reg
PUBLIC	s370_load_and_perform_interlocked_access
PUBLIC	s370_load_and_perform_interlocked_access_long
PUBLIC	z900_add_immediate_long_storage
PUBLIC	z900_add_immediate_storage
PUBLIC	z900_add_logical_with_signed_immediate
PUBLIC	z900_add_logical_with_signed_immediate_long
PUBLIC	z900_compare_and_branch_register
PUBLIC	z900_compare_and_branch_long_register
PUBLIC	z900_compare_and_branch_relative_register
PUBLIC	z900_compare_and_branch_relative_long_register
PUBLIC	z900_compare_and_trap_long_register
PUBLIC	z900_compare_and_trap_register
PUBLIC	z900_compare_halfword_immediate_halfword_storage
PUBLIC	z900_compare_halfword_immediate_long_storage
PUBLIC	z900_compare_halfword_immediate_storage
PUBLIC	z900_compare_halfword_long
PUBLIC	z900_compare_halfword_relative_long
PUBLIC	z900_compare_halfword_relative_long_long
PUBLIC	z900_compare_immediate_and_branch
PUBLIC	z900_compare_immediate_and_branch_long
PUBLIC	z900_compare_immediate_and_branch_relative
PUBLIC	z900_compare_immediate_and_branch_relative_long
PUBLIC	z900_compare_immediate_and_trap
PUBLIC	z900_compare_immediate_and_trap_long
PUBLIC	z900_compare_logical_and_branch_long_register
PUBLIC	z900_compare_logical_and_branch_register
PUBLIC	z900_compare_logical_and_branch_relative_long_register
PUBLIC	z900_compare_logical_and_branch_relative_register
PUBLIC	z900_compare_logical_and_trap_long_register
PUBLIC	z900_compare_logical_and_trap_register
PUBLIC	z900_compare_logical_immediate_and_branch
PUBLIC	z900_compare_logical_immediate_and_branch_long
PUBLIC	z900_compare_logical_immediate_and_branch_relative
PUBLIC	z900_compare_logical_immediate_and_branch_relative_long
PUBLIC	z900_compare_logical_immediate_and_trap_fullword
PUBLIC	z900_compare_logical_immediate_and_trap_long
PUBLIC	z900_compare_logical_immediate_fullword_storage
PUBLIC	z900_compare_logical_immediate_halfword_storage
PUBLIC	z900_compare_logical_immediate_long_storage
PUBLIC	z900_compare_logical_relative_long
PUBLIC	z900_compare_logical_relative_long_halfword
PUBLIC	z900_compare_logical_relative_long_long
PUBLIC	z900_compare_logical_relative_long_long_fullword
PUBLIC	z900_compare_logical_relative_long_long_halfword
PUBLIC	z900_compare_relative_long
PUBLIC	z900_compare_relative_long_long
PUBLIC	z900_compare_relative_long_long_fullword
PUBLIC	z900_extract_cpu_attribute
PUBLIC	z900_load_address_extended_y
PUBLIC	z900_load_and_test_long_fullword
PUBLIC	z900_load_halfword_relative_long
PUBLIC	z900_load_halfword_relative_long_long
PUBLIC	z900_load_logical_halfword_relative_long
PUBLIC	z900_load_logical_halfword_relative_long_long
PUBLIC	z900_load_logical_relative_long_long_fullword
PUBLIC	z900_load_relative_long
PUBLIC	z900_load_relative_long_long
PUBLIC	z900_load_relative_long_long_fullword
PUBLIC	z900_move_fullword_from_halfword_immediate
PUBLIC	z900_move_halfword_from_halfword_immediate
PUBLIC	z900_move_long_from_halfword_immediate
PUBLIC	z900_multiply_halfword_y
PUBLIC	z900_multiply_single_immediate_fullword
PUBLIC	z900_multiply_single_immediate_long_fullword
PUBLIC	z900_multiply_y
PUBLIC	z900_prefetch_data
PUBLIC	z900_prefetch_data_relative_long
PUBLIC	z900_rotate_then_and_selected_bits_long_reg
PUBLIC	z900_rotate_then_exclusive_or_selected_bits_long_reg
PUBLIC	z900_rotate_then_insert_selected_bits_long_reg
PUBLIC	z900_rotate_then_or_selected_bits_long_reg
PUBLIC	z900_store_halfword_relative_long
PUBLIC	z900_store_relative_long
PUBLIC	z900_store_relative_long_long
PUBLIC	z900_add_distinct_register
PUBLIC	z900_add_distinct_long_register
PUBLIC	z900_add_distinct_halfword_immediate
PUBLIC	z900_add_distinct_long_halfword_immediate
PUBLIC	z900_add_logical_distinct_register
PUBLIC	z900_add_logical_distinct_long_register
PUBLIC	z900_add_logical_distinct_signed_halfword_immediate
PUBLIC	z900_add_logical_distinct_long_signed_halfword_immediate
PUBLIC	z900_and_distinct_register
PUBLIC	z900_and_distinct_long_register
PUBLIC	z900_exclusive_or_distinct_register
PUBLIC	z900_exclusive_or_distinct_long_register
PUBLIC	z900_or_distinct_register
PUBLIC	z900_or_distinct_long_register
PUBLIC	z900_shift_right_single_distinct
PUBLIC	z900_shift_left_single_distinct
PUBLIC	z900_shift_right_single_logical_distinct
PUBLIC	z900_shift_left_single_logical_distinct
PUBLIC	z900_subtract_distinct_register
PUBLIC	z900_subtract_distinct_long_register
PUBLIC	z900_subtract_logical_distinct_register
PUBLIC	z900_subtract_logical_distinct_long_register
PUBLIC	z900_add_high_high_high_register
PUBLIC	z900_add_high_high_low_register
PUBLIC	z900_add_high_immediate
PUBLIC	z900_add_logical_high_high_high_register
PUBLIC	z900_add_logical_high_high_low_register
PUBLIC	z900_add_logical_with_signed_immediate_high
PUBLIC	z900_add_logical_with_signed_immediate_high_n
PUBLIC	z900_branch_relative_on_count_high
PUBLIC	z900_compare_high_high_register
PUBLIC	z900_compare_high_low_register
PUBLIC	z900_compare_high_fullword
PUBLIC	z900_compare_high_immediate
PUBLIC	z900_compare_logical_high_high_register
PUBLIC	z900_compare_logical_high_low_register
PUBLIC	z900_compare_logical_high_fullword
PUBLIC	z900_compare_logical_high_immediate
PUBLIC	z900_load_byte_high
PUBLIC	z900_load_fullword_high
PUBLIC	z900_load_halfword_high
PUBLIC	z900_load_logical_character_high
PUBLIC	z900_load_logical_halfword_high
PUBLIC	z900_rotate_then_insert_selected_bits_high_long_reg
PUBLIC	z900_rotate_then_insert_selected_bits_low_long_reg
PUBLIC	z900_store_character_high
PUBLIC	z900_store_fullword_high
PUBLIC	z900_store_halfword_high
PUBLIC	z900_subtract_high_high_high_register
PUBLIC	z900_subtract_high_high_low_register
PUBLIC	z900_subtract_logical_high_high_high_register
PUBLIC	z900_subtract_logical_high_high_low_register
PUBLIC	z900_load_and_add
PUBLIC	z900_load_and_add_logical
PUBLIC	z900_load_and_and
PUBLIC	z900_load_and_exclusive_or
PUBLIC	z900_load_and_or
PUBLIC	z900_load_pair_disjoint
PUBLIC	z900_load_and_add_long
PUBLIC	z900_load_and_add_logical_long
PUBLIC	z900_load_and_and_long
PUBLIC	z900_load_and_exclusive_or_long
PUBLIC	z900_load_and_or_long
PUBLIC	z900_load_pair_disjoint_long
PUBLIC	z900_load_on_condition_register
PUBLIC	z900_load_on_condition_long_register
PUBLIC	z900_load_on_condition
PUBLIC	z900_load_on_condition_long
PUBLIC	z900_store_on_condition
PUBLIC	z900_store_on_condition_long
PUBLIC	z900_population_count
PUBLIC	z900_branch_prediction_preload
PUBLIC	z900_branch_prediction_relative_preload
PUBLIC	z900_next_instruction_access_intent
PUBLIC	z900_load_and_trap
PUBLIC	z900_load_long_and_trap
PUBLIC	z900_load_fullword_high_and_trap
PUBLIC	z900_load_logical_long_fullword_and_trap
PUBLIC	z900_load_logical_long_thirtyone_and_trap
PUBLIC	z900_compare_logical_and_trap
PUBLIC	z900_compare_logical_and_trap_long
PUBLIC	z900_rotate_then_insert_selected_bits_long_reg_n
PUBLIC	z900_load_halfword_high_immediate_on_condition
PUBLIC	z900_load_halfword_immediate_on_condition
PUBLIC	z900_load_halfword_immediate_on_condition_grande
PUBLIC	z900_load_high_on_condition
PUBLIC	z900_load_high_on_condition_register
PUBLIC	z900_store_high_on_condition
PUBLIC	z900_load_and_zero_rightmost_byte_grande
PUBLIC	z900_load_logical_and_zero_rightmost_byte
PUBLIC	z900_load_and_zero_rightmost_byte
PUBLIC	z900_multiply_long_register
PUBLIC	z900_multiply_long
PUBLIC	z900_multiply_long_halfword
PUBLIC	z900_select_register
PUBLIC	z900_select_register_long
PUBLIC	z900_select_fullword_high_register
PUBLIC	z900_is_per3_event_suppressed
PUBLIC	z900_per3_zero
PUBLIC	z900_per3_zero_xcheck
PUBLIC	z900_per3_zero_xcheck2
PUBLIC	z900_maddr_l
PUBLIC	z900_vstore2_full
PUBLIC	z900_vstore4_full
PUBLIC	z900_vstore8_full
PUBLIC	z900_vfetch2_full
PUBLIC	z900_vfetch4_full
PUBLIC	z900_vfetch8_full
PUBLIC	z900_vstoreb
PUBLIC	z900_vstore2
PUBLIC	z900_vstore4
PUBLIC	z900_vstore8
PUBLIC	z900_vfetchb
PUBLIC	z900_vfetch2
PUBLIC	z900_vfetch4
PUBLIC	z900_vfetch8
PUBLIC	z900_perform_interlocked_storage_immediate
PUBLIC	z900_perform_interlocked_long_storage_immediate
PUBLIC	z900_rotate_then_xxx_selected_bits_long_reg
PUBLIC	z900_load_and_perform_interlocked_access
PUBLIC	z900_load_and_perform_interlocked_access_long
EXTRN	_byteswap_ushort:PROC
EXTRN	_byteswap_ulong:PROC
EXTRN	_byteswap_uint64:PROC
EXTRN	longjmp:PROC
EXTRN	s370_fetch_int_timer:PROC
EXTRN	s370_store_int_timer:PROC
EXTRN	s370_SuccessfulBranch:PROC
EXTRN	s370_SuccessfulRelativeBranch:PROC
EXTRN	txf_maddr_l:PROC
EXTRN	z900_abort_transaction:PROC
EXTRN	s370_program_interrupt:PROC
EXTRN	z900_program_interrupt:PROC
EXTRN	s370_logical_to_main_l:PROC
EXTRN	z900_logical_to_main_l:PROC
EXTRN	z900_SuccessfulBranch:PROC
EXTRN	z900_SuccessfulRelativeBranch:PROC
EXTRN	__GSHandlerCheck:PROC
EXTRN	__security_check_cookie:PROC
EXTRN	__ImageBase:BYTE
EXTRN	__security_cookie:QWORD
pdata	SEGMENT
$pdata$s370_add_immediate_long_storage DD imagerel $LN4
	DD	imagerel $LN4+85
	DD	imagerel $unwind$s370_add_immediate_long_storage
$pdata$s370_add_immediate_storage DD imagerel $LN4
	DD	imagerel $LN4+85
	DD	imagerel $unwind$s370_add_immediate_storage
$pdata$s370_add_logical_with_signed_immediate DD imagerel $LN3
	DD	imagerel $LN3+34
	DD	imagerel $unwind$s370_add_logical_with_signed_immediate
$pdata$s370_add_logical_with_signed_immediate_long DD imagerel $LN3
	DD	imagerel $LN3+34
	DD	imagerel $unwind$s370_add_logical_with_signed_immediate_long
$pdata$s370_compare_and_branch_register DD imagerel $LN14
	DD	imagerel $LN14+396
	DD	imagerel $unwind$s370_compare_and_branch_register
$pdata$s370_compare_and_branch_relative_register DD imagerel $LN13
	DD	imagerel $LN13+349
	DD	imagerel $unwind$s370_compare_and_branch_relative_register
$pdata$s370_compare_and_trap_register DD imagerel $LN12
	DD	imagerel $LN12+304
	DD	imagerel $unwind$s370_compare_and_trap_register
$pdata$s370_compare_halfword_immediate_halfword_storage DD imagerel $LN12
	DD	imagerel $LN12+298
	DD	imagerel $unwind$s370_compare_halfword_immediate_halfword_storage
$pdata$s370_compare_halfword_immediate_long_storage DD imagerel $LN12
	DD	imagerel $LN12+296
	DD	imagerel $unwind$s370_compare_halfword_immediate_long_storage
$pdata$s370_compare_halfword_immediate_storage DD imagerel $LN12
	DD	imagerel $LN12+291
	DD	imagerel $unwind$s370_compare_halfword_immediate_storage
$pdata$s370_compare_halfword_relative_long DD imagerel $LN19
	DD	imagerel $LN19+430
	DD	imagerel $unwind$s370_compare_halfword_relative_long
$pdata$s370_compare_immediate_and_branch DD imagerel $LN14
	DD	imagerel $LN14+364
	DD	imagerel $unwind$s370_compare_immediate_and_branch
$pdata$s370_compare_immediate_and_branch_relative DD imagerel $LN13
	DD	imagerel $LN13+322
	DD	imagerel $unwind$s370_compare_immediate_and_branch_relative
$pdata$s370_compare_immediate_and_trap DD imagerel $LN12
	DD	imagerel $LN12+302
	DD	imagerel $unwind$s370_compare_immediate_and_trap
$pdata$s370_compare_logical_and_branch_register DD imagerel $LN14
	DD	imagerel $LN14+396
	DD	imagerel $unwind$s370_compare_logical_and_branch_register
$pdata$s370_compare_logical_and_branch_relative_register DD imagerel $LN13
	DD	imagerel $LN13+349
	DD	imagerel $unwind$s370_compare_logical_and_branch_relative_register
$pdata$s370_compare_logical_and_trap_register DD imagerel $LN12
	DD	imagerel $LN12+304
	DD	imagerel $unwind$s370_compare_logical_and_trap_register
$pdata$s370_compare_logical_immediate_and_branch DD imagerel $LN14
	DD	imagerel $LN14+364
	DD	imagerel $unwind$s370_compare_logical_immediate_and_branch
$pdata$s370_compare_logical_immediate_and_branch_relative DD imagerel $LN13
	DD	imagerel $LN13+322
	DD	imagerel $unwind$s370_compare_logical_immediate_and_branch_relative
$pdata$s370_compare_logical_immediate_and_trap_fullword DD imagerel $LN12
	DD	imagerel $LN12+302
	DD	imagerel $unwind$s370_compare_logical_immediate_and_trap_fullword
$pdata$s370_compare_logical_immediate_fullword_storage DD imagerel $LN12
	DD	imagerel $LN12+291
	DD	imagerel $unwind$s370_compare_logical_immediate_fullword_storage
$pdata$s370_compare_logical_immediate_halfword_storage DD imagerel $LN12
	DD	imagerel $LN12+298
	DD	imagerel $unwind$s370_compare_logical_immediate_halfword_storage
$pdata$s370_compare_logical_immediate_long_storage DD imagerel $LN12
	DD	imagerel $LN12+294
	DD	imagerel $unwind$s370_compare_logical_immediate_long_storage
$pdata$s370_compare_logical_relative_long DD imagerel $LN20
	DD	imagerel $LN20+459
	DD	imagerel $unwind$s370_compare_logical_relative_long
$pdata$s370_compare_logical_relative_long_halfword DD imagerel $LN19
	DD	imagerel $LN19+430
	DD	imagerel $unwind$s370_compare_logical_relative_long_halfword
$pdata$s370_compare_relative_long DD imagerel $LN20
	DD	imagerel $LN20+459
	DD	imagerel $unwind$s370_compare_relative_long
$pdata$s370_load_halfword_relative_long DD imagerel $LN15
	DD	imagerel $LN15+355
	DD	imagerel $unwind$s370_load_halfword_relative_long
$pdata$s370_load_logical_halfword_relative_long DD imagerel $LN15
	DD	imagerel $LN15+355
	DD	imagerel $unwind$s370_load_logical_halfword_relative_long
$pdata$s370_load_relative_long DD imagerel $LN16
	DD	imagerel $LN16+385
	DD	imagerel $unwind$s370_load_relative_long
$pdata$s370_move_fullword_from_halfword_immediate DD imagerel $LN8
	DD	imagerel $LN8+230
	DD	imagerel $unwind$s370_move_fullword_from_halfword_immediate
$pdata$s370_move_halfword_from_halfword_immediate DD imagerel $LN8
	DD	imagerel $LN8+222
	DD	imagerel $unwind$s370_move_halfword_from_halfword_immediate
$pdata$s370_move_long_from_halfword_immediate DD imagerel $LN8
	DD	imagerel $LN8+233
	DD	imagerel $unwind$s370_move_long_from_halfword_immediate
$pdata$s370_multiply_halfword_y DD imagerel $LN16
	DD	imagerel $LN16+441
	DD	imagerel $unwind$s370_multiply_halfword_y
$pdata$s370_multiply_single_immediate_fullword DD imagerel $LN7
	DD	imagerel $LN7+197
	DD	imagerel $unwind$s370_multiply_single_immediate_fullword
$pdata$s370_multiply_y DD imagerel $LN17
	DD	imagerel $LN17+505
	DD	imagerel $unwind$s370_multiply_y
$pdata$s370_prefetch_data DD imagerel $LN16
	DD	imagerel $LN16+364
	DD	imagerel $unwind$s370_prefetch_data
$pdata$s370_prefetch_data_relative_long DD imagerel $LN15
	DD	imagerel $LN15+309
	DD	imagerel $unwind$s370_prefetch_data_relative_long
$pdata$s370_store_halfword_relative_long DD imagerel $LN15
	DD	imagerel $LN15+347
	DD	imagerel $unwind$s370_store_halfword_relative_long
$pdata$s370_store_relative_long DD imagerel $LN16
	DD	imagerel $LN16+378
	DD	imagerel $unwind$s370_store_relative_long
$pdata$s370_store_relative_long_long DD imagerel $LN16
	DD	imagerel $LN16+379
	DD	imagerel $unwind$s370_store_relative_long_long
$pdata$s370_add_distinct_register DD imagerel $LN8
	DD	imagerel $LN8+256
	DD	imagerel $unwind$s370_add_distinct_register
$pdata$s370_add_distinct_halfword_immediate DD imagerel $LN8
	DD	imagerel $LN8+249
	DD	imagerel $unwind$s370_add_distinct_halfword_immediate
$pdata$s370_add_logical_distinct_register DD imagerel $LN7
	DD	imagerel $LN7+205
	DD	imagerel $unwind$s370_add_logical_distinct_register
$pdata$s370_add_logical_distinct_signed_halfword_immediate DD imagerel $LN9
	DD	imagerel $LN9+285
	DD	imagerel $unwind$s370_add_logical_distinct_signed_halfword_immediate
$pdata$s370_and_distinct_register DD imagerel $LN9
	DD	imagerel $LN9+231
	DD	imagerel $unwind$s370_and_distinct_register
$pdata$s370_exclusive_or_distinct_register DD imagerel $LN9
	DD	imagerel $LN9+231
	DD	imagerel $unwind$s370_exclusive_or_distinct_register
$pdata$s370_or_distinct_register DD imagerel $LN9
	DD	imagerel $LN9+231
	DD	imagerel $unwind$s370_or_distinct_register
$pdata$s370_shift_right_single_distinct DD imagerel $LN23
	DD	imagerel $LN23+531
	DD	imagerel $unwind$s370_shift_right_single_distinct
$pdata$s370_shift_left_single_distinct DD imagerel $LN28
	DD	imagerel $LN28+762
	DD	imagerel $unwind$s370_shift_left_single_distinct
$pdata$s370_shift_right_single_logical_distinct DD imagerel $LN17
	DD	imagerel $LN17+404
	DD	imagerel $unwind$s370_shift_right_single_logical_distinct
$pdata$s370_shift_left_single_logical_distinct DD imagerel $LN17
	DD	imagerel $LN17+404
	DD	imagerel $unwind$s370_shift_left_single_logical_distinct
$pdata$s370_subtract_distinct_register DD imagerel $LN8
	DD	imagerel $LN8+256
	DD	imagerel $unwind$s370_subtract_distinct_register
$pdata$s370_subtract_logical_distinct_register DD imagerel $LN7
	DD	imagerel $LN7+205
	DD	imagerel $unwind$s370_subtract_logical_distinct_register
$pdata$s370_add_high_high_high_register DD imagerel $LN8
	DD	imagerel $LN8+256
	DD	imagerel $unwind$s370_add_high_high_high_register
$pdata$s370_add_high_high_low_register DD imagerel $LN8
	DD	imagerel $LN8+256
	DD	imagerel $unwind$s370_add_high_high_low_register
$pdata$s370_add_high_immediate DD imagerel $LN8
	DD	imagerel $LN8+262
	DD	imagerel $unwind$s370_add_high_immediate
$pdata$s370_add_logical_high_high_high_register DD imagerel $LN7
	DD	imagerel $LN7+205
	DD	imagerel $unwind$s370_add_logical_high_high_high_register
$pdata$s370_add_logical_high_high_low_register DD imagerel $LN7
	DD	imagerel $LN7+205
	DD	imagerel $unwind$s370_add_logical_high_high_low_register
$pdata$s370_add_logical_with_signed_immediate_high DD imagerel $LN9
	DD	imagerel $LN9+295
	DD	imagerel $unwind$s370_add_logical_with_signed_immediate_high
$pdata$s370_add_logical_with_signed_immediate_high_n DD imagerel $LN9
	DD	imagerel $LN9+274
	DD	imagerel $unwind$s370_add_logical_with_signed_immediate_high_n
$pdata$s370_branch_relative_on_count_high DD imagerel $LN9
	DD	imagerel $LN9+245
	DD	imagerel $unwind$s370_branch_relative_on_count_high
$pdata$s370_compare_high_high_register DD imagerel $LN11
	DD	imagerel $LN11+233
	DD	imagerel $unwind$s370_compare_high_high_register
$pdata$s370_compare_high_low_register DD imagerel $LN11
	DD	imagerel $LN11+233
	DD	imagerel $unwind$s370_compare_high_low_register
$pdata$s370_compare_high_fullword DD imagerel $LN20
	DD	imagerel $LN20+481
	DD	imagerel $unwind$s370_compare_high_fullword
$pdata$s370_compare_high_immediate DD imagerel $LN11
	DD	imagerel $LN11+253
	DD	imagerel $unwind$s370_compare_high_immediate
$pdata$s370_compare_logical_high_high_register DD imagerel $LN11
	DD	imagerel $LN11+233
	DD	imagerel $unwind$s370_compare_logical_high_high_register
$pdata$s370_compare_logical_high_low_register DD imagerel $LN11
	DD	imagerel $LN11+233
	DD	imagerel $unwind$s370_compare_logical_high_low_register
$pdata$s370_compare_logical_high_fullword DD imagerel $LN20
	DD	imagerel $LN20+481
	DD	imagerel $unwind$s370_compare_logical_high_fullword
$pdata$s370_compare_logical_high_immediate DD imagerel $LN11
	DD	imagerel $LN11+253
	DD	imagerel $unwind$s370_compare_logical_high_immediate
$pdata$s370_load_byte_high DD imagerel $LN16
	DD	imagerel $LN16+402
	DD	imagerel $unwind$s370_load_byte_high
$pdata$s370_load_fullword_high DD imagerel $LN16
	DD	imagerel $LN16+399
	DD	imagerel $unwind$s370_load_fullword_high
$pdata$s370_load_halfword_high DD imagerel $LN16
	DD	imagerel $LN16+400
	DD	imagerel $unwind$s370_load_halfword_high
$pdata$s370_load_logical_character_high DD imagerel $LN16
	DD	imagerel $LN16+402
	DD	imagerel $unwind$s370_load_logical_character_high
$pdata$s370_load_logical_halfword_high DD imagerel $LN16
	DD	imagerel $LN16+402
	DD	imagerel $unwind$s370_load_logical_halfword_high
$pdata$s370_rotate_then_insert_selected_bits_high_long_reg DD imagerel $LN3
	DD	imagerel $LN3+34
	DD	imagerel $unwind$s370_rotate_then_insert_selected_bits_high_long_reg
$pdata$s370_rotate_then_insert_selected_bits_low_long_reg DD imagerel $LN3
	DD	imagerel $LN3+34
	DD	imagerel $unwind$s370_rotate_then_insert_selected_bits_low_long_reg
$pdata$s370_store_character_high DD imagerel $LN16
	DD	imagerel $LN16+401
	DD	imagerel $unwind$s370_store_character_high
$pdata$s370_store_fullword_high DD imagerel $LN16
	DD	imagerel $LN16+400
	DD	imagerel $unwind$s370_store_fullword_high
$pdata$s370_store_halfword_high DD imagerel $LN16
	DD	imagerel $LN16+401
	DD	imagerel $unwind$s370_store_halfword_high
$pdata$s370_subtract_high_high_high_register DD imagerel $LN8
	DD	imagerel $LN8+256
	DD	imagerel $unwind$s370_subtract_high_high_high_register
$pdata$s370_subtract_high_high_low_register DD imagerel $LN8
	DD	imagerel $LN8+256
	DD	imagerel $unwind$s370_subtract_high_high_low_register
$pdata$s370_subtract_logical_high_high_high_register DD imagerel $LN7
	DD	imagerel $LN7+205
	DD	imagerel $unwind$s370_subtract_logical_high_high_high_register
$pdata$s370_subtract_logical_high_high_low_register DD imagerel $LN7
	DD	imagerel $LN7+205
	DD	imagerel $unwind$s370_subtract_logical_high_high_low_register
$pdata$s370_load_and_add DD imagerel $LN4
	DD	imagerel $LN4+85
	DD	imagerel $unwind$s370_load_and_add
$pdata$s370_load_and_add_logical DD imagerel $LN3
	DD	imagerel $LN3+34
	DD	imagerel $unwind$s370_load_and_add_logical
$pdata$s370_load_and_and DD imagerel $LN3
	DD	imagerel $LN3+34
	DD	imagerel $unwind$s370_load_and_and
$pdata$s370_load_and_exclusive_or DD imagerel $LN3
	DD	imagerel $LN3+34
	DD	imagerel $unwind$s370_load_and_exclusive_or
$pdata$s370_load_and_or DD imagerel $LN3
	DD	imagerel $LN3+34
	DD	imagerel $unwind$s370_load_and_or
$pdata$s370_load_pair_disjoint DD imagerel $LN12
	DD	imagerel $LN12+493
	DD	imagerel $unwind$s370_load_pair_disjoint
$pdata$s370_load_and_add_long DD imagerel $LN4
	DD	imagerel $LN4+85
	DD	imagerel $unwind$s370_load_and_add_long
$pdata$s370_load_and_add_logical_long DD imagerel $LN3
	DD	imagerel $LN3+34
	DD	imagerel $unwind$s370_load_and_add_logical_long
$pdata$s370_load_and_and_long DD imagerel $LN3
	DD	imagerel $LN3+34
	DD	imagerel $unwind$s370_load_and_and_long
$pdata$s370_load_and_exclusive_or_long DD imagerel $LN3
	DD	imagerel $LN3+34
	DD	imagerel $unwind$s370_load_and_exclusive_or_long
$pdata$s370_load_and_or_long DD imagerel $LN3
	DD	imagerel $LN3+34
	DD	imagerel $unwind$s370_load_and_or_long
$pdata$s370_load_pair_disjoint_long DD imagerel $LN12
	DD	imagerel $LN12+505
	DD	imagerel $unwind$s370_load_pair_disjoint_long
$pdata$s370_load_on_condition_register DD imagerel $LN8
	DD	imagerel $LN8+200
	DD	imagerel $unwind$s370_load_on_condition_register
$pdata$s370_load_on_condition DD imagerel $LN16
	DD	imagerel $LN16+410
	DD	imagerel $unwind$s370_load_on_condition
$pdata$s370_store_on_condition DD imagerel $LN16
	DD	imagerel $LN16+403
	DD	imagerel $unwind$s370_store_on_condition
$pdata$s370_population_count DD imagerel $LN12
	DD	imagerel $LN12+309
	DD	imagerel $unwind$s370_population_count
pdata	ENDS
;	COMDAT pdata
pdata	SEGMENT
$pdata$cmpxchg8_x86 DD imagerel $LN5
	DD	imagerel $LN5+113
	DD	imagerel $unwind$cmpxchg8_x86
pdata	ENDS
;	COMDAT pdata
pdata	SEGMENT
$pdata$cmpxchg4_x86 DD imagerel $LN5
	DD	imagerel $LN5+102
	DD	imagerel $unwind$cmpxchg4_x86
pdata	ENDS
;	COMDAT pdata
pdata	SEGMENT
$pdata$fetch_hw_noswap DD imagerel $LN3
	DD	imagerel $LN3+30
	DD	imagerel $unwind$fetch_hw_noswap
pdata	ENDS
;	COMDAT pdata
pdata	SEGMENT
$pdata$fetch_fw_noswap DD imagerel $LN3
	DD	imagerel $LN3+27
	DD	imagerel $unwind$fetch_fw_noswap
pdata	ENDS
;	COMDAT pdata
pdata	SEGMENT
$pdata$fetch_dw_noswap DD imagerel $LN3
	DD	imagerel $LN3+30
	DD	imagerel $unwind$fetch_dw_noswap
pdata	ENDS
;	COMDAT pdata
pdata	SEGMENT
$pdata$add_logical DD imagerel $LN7
	DD	imagerel $LN7+110
	DD	imagerel $unwind$add_logical
pdata	ENDS
;	COMDAT pdata
pdata	SEGMENT
$pdata$sub_logical DD imagerel $LN7
	DD	imagerel $LN7+110
	DD	imagerel $unwind$sub_logical
pdata	ENDS
;	COMDAT pdata
pdata	SEGMENT
$pdata$add_signed DD imagerel $LN11
	DD	imagerel $LN11+186
	DD	imagerel $unwind$add_signed
pdata	ENDS
;	COMDAT pdata
pdata	SEGMENT
$pdata$sub_signed DD imagerel $LN11
	DD	imagerel $LN11+186
	DD	imagerel $unwind$sub_signed
pdata	ENDS
;	COMDAT pdata
pdata	SEGMENT
$pdata$mul_signed DD imagerel $LN3
	DD	imagerel $LN3+84
	DD	imagerel $unwind$mul_signed
pdata	ENDS
;	COMDAT pdata
pdata	SEGMENT
$pdata$mul_unsigned_long DD imagerel $LN3
	DD	imagerel $LN3+255
	DD	imagerel $unwind$mul_unsigned_long
pdata	ENDS
;	COMDAT pdata
pdata	SEGMENT
$pdata$mul_signed_long DD imagerel $LN5
	DD	imagerel $LN5+118
	DD	imagerel $unwind$mul_signed_long
pdata	ENDS
;	COMDAT pdata
pdata	SEGMENT
$pdata$add_logical_long DD imagerel $LN7
	DD	imagerel $LN7+119
	DD	imagerel $unwind$add_logical_long
pdata	ENDS
;	COMDAT pdata
pdata	SEGMENT
$pdata$sub_logical_long DD imagerel $LN7
	DD	imagerel $LN7+119
	DD	imagerel $unwind$sub_logical_long
pdata	ENDS
;	COMDAT pdata
pdata	SEGMENT
$pdata$add_signed_long DD imagerel $LN11
	DD	imagerel $LN11+218
	DD	imagerel $unwind$add_signed_long
pdata	ENDS
;	COMDAT pdata
pdata	SEGMENT
$pdata$sub_signed_long DD imagerel $LN11
	DD	imagerel $LN11+234
	DD	imagerel $unwind$sub_signed_long
pdata	ENDS
;	COMDAT pdata
pdata	SEGMENT
$pdata$s370_maddr_l DD imagerel $LN14
	DD	imagerel $LN14+474
	DD	imagerel $unwind$s370_maddr_l
pdata	ENDS
;	COMDAT pdata
pdata	SEGMENT
$pdata$s370_vstore2_full DD imagerel $LN3
	DD	imagerel $LN3+204
	DD	imagerel $unwind$s370_vstore2_full
pdata	ENDS
;	COMDAT pdata
pdata	SEGMENT
$pdata$s370_vstore4_full DD imagerel $LN3
	DD	imagerel $LN3+313
	DD	imagerel $unwind$s370_vstore4_full
pdata	ENDS
;	COMDAT pdata
pdata	SEGMENT
$pdata$s370_vstore8_full DD imagerel $LN3
	DD	imagerel $LN3+356
	DD	imagerel $unwind$s370_vstore8_full
pdata	ENDS
;	COMDAT pdata
pdata	SEGMENT
$pdata$s370_vfetch2_full DD imagerel $LN3
	DD	imagerel $LN3+174
	DD	imagerel $unwind$s370_vfetch2_full
pdata	ENDS
;	COMDAT pdata
pdata	SEGMENT
$pdata$s370_vfetch4_full DD imagerel $LN3
	DD	imagerel $LN3+288
	DD	imagerel $unwind$s370_vfetch4_full
pdata	ENDS
;	COMDAT pdata
pdata	SEGMENT
$pdata$s370_vfetch8_full DD imagerel $LN3
	DD	imagerel $LN3+288
	DD	imagerel $unwind$s370_vfetch8_full
pdata	ENDS
;	COMDAT pdata
pdata	SEGMENT
$pdata$s370_vstoreb DD imagerel $LN18
	DD	imagerel $LN18+169
	DD	imagerel $unwind$s370_vstoreb
pdata	ENDS
;	COMDAT pdata
pdata	SEGMENT
$pdata$s370_vstore2 DD imagerel $LN24
	DD	imagerel $LN24+267
	DD	imagerel $unwind$s370_vstore2
pdata	ENDS
;	COMDAT pdata
pdata	SEGMENT
$pdata$s370_vstore4 DD imagerel $LN27
	DD	imagerel $LN27+289
	DD	imagerel $unwind$s370_vstore4
pdata	ENDS
;	COMDAT pdata
pdata	SEGMENT
$pdata$s370_vstore8 DD imagerel $LN24
	DD	imagerel $LN24+253
	DD	imagerel $unwind$s370_vstore8
pdata	ENDS
;	COMDAT pdata
pdata	SEGMENT
$pdata$s370_vfetchb DD imagerel $LN18
	DD	imagerel $LN18+160
	DD	imagerel $unwind$s370_vfetchb
pdata	ENDS
;	COMDAT pdata
pdata	SEGMENT
$pdata$s370_vfetch2 DD imagerel $LN26
	DD	imagerel $LN26+275
	DD	imagerel $unwind$s370_vfetch2
pdata	ENDS
;	COMDAT pdata
pdata	SEGMENT
$pdata$s370_vfetch4 DD imagerel $LN26
	DD	imagerel $LN26+275
	DD	imagerel $unwind$s370_vfetch4
pdata	ENDS
;	COMDAT pdata
pdata	SEGMENT
$pdata$s370_vfetch8 DD imagerel $LN23
	DD	imagerel $LN23+240
	DD	imagerel $unwind$s370_vfetch8
pdata	ENDS
pdata	SEGMENT
$pdata$s370_perform_interlocked_storage_immediate DD imagerel $LN25
	DD	imagerel $LN25+704
	DD	imagerel $unwind$s370_perform_interlocked_storage_immediate
$pdata$s370_perform_interlocked_long_storage_immediate DD imagerel $LN25
	DD	imagerel $LN25+725
	DD	imagerel $unwind$s370_perform_interlocked_long_storage_immediate
$pdata$s370_rotate_then_xxx_selected_bits_long_reg DD imagerel $LN44
	DD	imagerel $LN44+1364
	DD	imagerel $unwind$s370_rotate_then_xxx_selected_bits_long_reg
$pdata$s370_load_and_perform_interlocked_access DD imagerel $LN33
	DD	imagerel $LN33+915
	DD	imagerel $unwind$s370_load_and_perform_interlocked_access
$pdata$s370_load_and_perform_interlocked_access_long DD imagerel $LN33
	DD	imagerel $LN33+964
	DD	imagerel $unwind$s370_load_and_perform_interlocked_access_long
$pdata$z900_add_immediate_long_storage DD imagerel $LN4
	DD	imagerel $LN4+85
	DD	imagerel $unwind$z900_add_immediate_long_storage
$pdata$z900_add_immediate_storage DD imagerel $LN4
	DD	imagerel $LN4+85
	DD	imagerel $unwind$z900_add_immediate_storage
$pdata$z900_add_logical_with_signed_immediate DD imagerel $LN3
	DD	imagerel $LN3+34
	DD	imagerel $unwind$z900_add_logical_with_signed_immediate
$pdata$z900_add_logical_with_signed_immediate_long DD imagerel $LN3
	DD	imagerel $LN3+34
	DD	imagerel $unwind$z900_add_logical_with_signed_immediate_long
$pdata$z900_compare_and_branch_register DD imagerel $LN18
	DD	imagerel $LN18+496
	DD	imagerel $unwind$z900_compare_and_branch_register
$pdata$z900_compare_and_branch_long_register DD imagerel $LN18
	DD	imagerel $LN18+498
	DD	imagerel $unwind$z900_compare_and_branch_long_register
$pdata$z900_compare_and_branch_relative_register DD imagerel $LN18
	DD	imagerel $LN18+447
	DD	imagerel $unwind$z900_compare_and_branch_relative_register
$pdata$z900_compare_and_branch_relative_long_register DD imagerel $LN18
	DD	imagerel $LN18+449
	DD	imagerel $unwind$z900_compare_and_branch_relative_long_register
$pdata$z900_compare_and_trap_long_register DD imagerel $LN12
	DD	imagerel $LN12+306
	DD	imagerel $unwind$z900_compare_and_trap_long_register
$pdata$z900_compare_and_trap_register DD imagerel $LN12
	DD	imagerel $LN12+304
	DD	imagerel $unwind$z900_compare_and_trap_register
$pdata$z900_compare_halfword_immediate_halfword_storage DD imagerel $LN12
	DD	imagerel $LN12+336
	DD	imagerel $unwind$z900_compare_halfword_immediate_halfword_storage
$pdata$z900_compare_halfword_immediate_long_storage DD imagerel $LN12
	DD	imagerel $LN12+334
	DD	imagerel $unwind$z900_compare_halfword_immediate_long_storage
$pdata$z900_compare_halfword_immediate_storage DD imagerel $LN12
	DD	imagerel $LN12+329
	DD	imagerel $unwind$z900_compare_halfword_immediate_storage
$pdata$z900_compare_halfword_long DD imagerel $LN20
	DD	imagerel $LN20+541
	DD	imagerel $unwind$z900_compare_halfword_long
$pdata$z900_compare_halfword_relative_long DD imagerel $LN19
	DD	imagerel $LN19+439
	DD	imagerel $unwind$z900_compare_halfword_relative_long
$pdata$z900_compare_halfword_relative_long_long DD imagerel $LN19
	DD	imagerel $LN19+443
	DD	imagerel $unwind$z900_compare_halfword_relative_long_long
$pdata$z900_compare_immediate_and_branch DD imagerel $LN18
	DD	imagerel $LN18+464
	DD	imagerel $unwind$z900_compare_immediate_and_branch
$pdata$z900_compare_immediate_and_branch_long DD imagerel $LN18
	DD	imagerel $LN18+468
	DD	imagerel $unwind$z900_compare_immediate_and_branch_long
$pdata$z900_compare_immediate_and_branch_relative DD imagerel $LN18
	DD	imagerel $LN18+420
	DD	imagerel $unwind$z900_compare_immediate_and_branch_relative
$pdata$z900_compare_immediate_and_branch_relative_long DD imagerel $LN18
	DD	imagerel $LN18+424
	DD	imagerel $unwind$z900_compare_immediate_and_branch_relative_long
$pdata$z900_compare_immediate_and_trap DD imagerel $LN12
	DD	imagerel $LN12+302
	DD	imagerel $unwind$z900_compare_immediate_and_trap
$pdata$z900_compare_immediate_and_trap_long DD imagerel $LN12
	DD	imagerel $LN12+306
	DD	imagerel $unwind$z900_compare_immediate_and_trap_long
$pdata$z900_compare_logical_and_branch_long_register DD imagerel $LN18
	DD	imagerel $LN18+498
	DD	imagerel $unwind$z900_compare_logical_and_branch_long_register
$pdata$z900_compare_logical_and_branch_register DD imagerel $LN18
	DD	imagerel $LN18+496
	DD	imagerel $unwind$z900_compare_logical_and_branch_register
$pdata$z900_compare_logical_and_branch_relative_long_register DD imagerel $LN18
	DD	imagerel $LN18+449
	DD	imagerel $unwind$z900_compare_logical_and_branch_relative_long_register
$pdata$z900_compare_logical_and_branch_relative_register DD imagerel $LN18
	DD	imagerel $LN18+447
	DD	imagerel $unwind$z900_compare_logical_and_branch_relative_register
$pdata$z900_compare_logical_and_trap_long_register DD imagerel $LN12
	DD	imagerel $LN12+306
	DD	imagerel $unwind$z900_compare_logical_and_trap_long_register
$pdata$z900_compare_logical_and_trap_register DD imagerel $LN12
	DD	imagerel $LN12+304
	DD	imagerel $unwind$z900_compare_logical_and_trap_register
$pdata$z900_compare_logical_immediate_and_branch DD imagerel $LN18
	DD	imagerel $LN18+464
	DD	imagerel $unwind$z900_compare_logical_immediate_and_branch
$pdata$z900_compare_logical_immediate_and_branch_long DD imagerel $LN18
	DD	imagerel $LN18+466
	DD	imagerel $unwind$z900_compare_logical_immediate_and_branch_long
$pdata$z900_compare_logical_immediate_and_branch_relative DD imagerel $LN18
	DD	imagerel $LN18+420
	DD	imagerel $unwind$z900_compare_logical_immediate_and_branch_relative
$pdata$z900_compare_logical_immediate_and_branch_relative_long DD imagerel $LN18
	DD	imagerel $LN18+422
	DD	imagerel $unwind$z900_compare_logical_immediate_and_branch_relative_long
$pdata$z900_compare_logical_immediate_and_trap_fullword DD imagerel $LN12
	DD	imagerel $LN12+302
	DD	imagerel $unwind$z900_compare_logical_immediate_and_trap_fullword
$pdata$z900_compare_logical_immediate_and_trap_long DD imagerel $LN12
	DD	imagerel $LN12+304
	DD	imagerel $unwind$z900_compare_logical_immediate_and_trap_long
$pdata$z900_compare_logical_immediate_fullword_storage DD imagerel $LN12
	DD	imagerel $LN12+329
	DD	imagerel $unwind$z900_compare_logical_immediate_fullword_storage
$pdata$z900_compare_logical_immediate_halfword_storage DD imagerel $LN12
	DD	imagerel $LN12+336
	DD	imagerel $unwind$z900_compare_logical_immediate_halfword_storage
$pdata$z900_compare_logical_immediate_long_storage DD imagerel $LN12
	DD	imagerel $LN12+332
	DD	imagerel $unwind$z900_compare_logical_immediate_long_storage
$pdata$z900_compare_logical_relative_long DD imagerel $LN20
	DD	imagerel $LN20+471
	DD	imagerel $unwind$z900_compare_logical_relative_long
$pdata$z900_compare_logical_relative_long_halfword DD imagerel $LN19
	DD	imagerel $LN19+439
	DD	imagerel $unwind$z900_compare_logical_relative_long_halfword
$pdata$z900_compare_logical_relative_long_long DD imagerel $LN20
	DD	imagerel $LN20+476
	DD	imagerel $unwind$z900_compare_logical_relative_long_long
$pdata$z900_compare_logical_relative_long_long_fullword DD imagerel $LN20
	DD	imagerel $LN20+473
	DD	imagerel $unwind$z900_compare_logical_relative_long_long_fullword
$pdata$z900_compare_logical_relative_long_long_halfword DD imagerel $LN19
	DD	imagerel $LN19+441
	DD	imagerel $unwind$z900_compare_logical_relative_long_long_halfword
$pdata$z900_compare_relative_long DD imagerel $LN20
	DD	imagerel $LN20+471
	DD	imagerel $unwind$z900_compare_relative_long
$pdata$z900_compare_relative_long_long DD imagerel $LN20
	DD	imagerel $LN20+476
	DD	imagerel $unwind$z900_compare_relative_long_long
$pdata$z900_compare_relative_long_long_fullword DD imagerel $LN20
	DD	imagerel $LN20+475
	DD	imagerel $unwind$z900_compare_relative_long_long_fullword
$pdata$z900_extract_cpu_attribute DD imagerel $LN24
	DD	imagerel $LN24+702
	DD	imagerel $unwind$z900_extract_cpu_attribute
$pdata$z900_load_address_extended_y DD imagerel $LN37
	DD	imagerel $LN37+791
	DD	imagerel $unwind$z900_load_address_extended_y
$pdata$z900_load_and_test_long_fullword DD imagerel $LN20
	DD	imagerel $LN20+551
	DD	imagerel $unwind$z900_load_and_test_long_fullword
$pdata$z900_load_halfword_relative_long DD imagerel $LN15
	DD	imagerel $LN15+364
	DD	imagerel $unwind$z900_load_halfword_relative_long
$pdata$z900_load_halfword_relative_long_long DD imagerel $LN15
	DD	imagerel $LN15+366
	DD	imagerel $unwind$z900_load_halfword_relative_long_long
$pdata$z900_load_logical_halfword_relative_long DD imagerel $LN15
	DD	imagerel $LN15+364
	DD	imagerel $unwind$z900_load_logical_halfword_relative_long
$pdata$z900_load_logical_halfword_relative_long_long DD imagerel $LN15
	DD	imagerel $LN15+365
	DD	imagerel $unwind$z900_load_logical_halfword_relative_long_long
$pdata$z900_load_logical_relative_long_long_fullword DD imagerel $LN16
	DD	imagerel $LN16+398
	DD	imagerel $unwind$z900_load_logical_relative_long_long_fullword
$pdata$z900_load_relative_long DD imagerel $LN16
	DD	imagerel $LN16+411
	DD	imagerel $unwind$z900_load_relative_long
$pdata$z900_load_relative_long_long DD imagerel $LN16
	DD	imagerel $LN16+400
	DD	imagerel $unwind$z900_load_relative_long_long
$pdata$z900_load_relative_long_long_fullword DD imagerel $LN16
	DD	imagerel $LN16+399
	DD	imagerel $unwind$z900_load_relative_long_long_fullword
$pdata$z900_move_fullword_from_halfword_immediate DD imagerel $LN8
	DD	imagerel $LN8+268
	DD	imagerel $unwind$z900_move_fullword_from_halfword_immediate
$pdata$z900_move_halfword_from_halfword_immediate DD imagerel $LN8
	DD	imagerel $LN8+260
	DD	imagerel $unwind$z900_move_halfword_from_halfword_immediate
$pdata$z900_move_long_from_halfword_immediate DD imagerel $LN8
	DD	imagerel $LN8+271
	DD	imagerel $unwind$z900_move_long_from_halfword_immediate
$pdata$z900_multiply_halfword_y DD imagerel $LN16
	DD	imagerel $LN16+492
	DD	imagerel $unwind$z900_multiply_halfword_y
$pdata$z900_multiply_single_immediate_fullword DD imagerel $LN7
	DD	imagerel $LN7+197
	DD	imagerel $unwind$z900_multiply_single_immediate_fullword
$pdata$z900_multiply_single_immediate_long_fullword DD imagerel $LN7
	DD	imagerel $LN7+203
	DD	imagerel $unwind$z900_multiply_single_immediate_long_fullword
$pdata$z900_multiply_y DD imagerel $LN17
	DD	imagerel $LN17+556
	DD	imagerel $unwind$z900_multiply_y
$pdata$z900_prefetch_data DD imagerel $LN16
	DD	imagerel $LN16+395
	DD	imagerel $unwind$z900_prefetch_data
$pdata$z900_prefetch_data_relative_long DD imagerel $LN15
	DD	imagerel $LN15+317
	DD	imagerel $unwind$z900_prefetch_data_relative_long
$pdata$z900_rotate_then_and_selected_bits_long_reg DD imagerel $LN3
	DD	imagerel $LN3+34
	DD	imagerel $unwind$z900_rotate_then_and_selected_bits_long_reg
$pdata$z900_rotate_then_exclusive_or_selected_bits_long_reg DD imagerel $LN3
	DD	imagerel $LN3+34
	DD	imagerel $unwind$z900_rotate_then_exclusive_or_selected_bits_long_reg
$pdata$z900_rotate_then_insert_selected_bits_long_reg DD imagerel $LN3
	DD	imagerel $LN3+34
	DD	imagerel $unwind$z900_rotate_then_insert_selected_bits_long_reg
$pdata$z900_rotate_then_or_selected_bits_long_reg DD imagerel $LN3
	DD	imagerel $LN3+34
	DD	imagerel $unwind$z900_rotate_then_or_selected_bits_long_reg
$pdata$z900_store_halfword_relative_long DD imagerel $LN15
	DD	imagerel $LN15+356
	DD	imagerel $unwind$z900_store_halfword_relative_long
$pdata$z900_store_relative_long DD imagerel $LN16
	DD	imagerel $LN16+390
	DD	imagerel $unwind$z900_store_relative_long
$pdata$z900_store_relative_long_long DD imagerel $LN16
	DD	imagerel $LN16+391
	DD	imagerel $unwind$z900_store_relative_long_long
$pdata$z900_add_distinct_register DD imagerel $LN8
	DD	imagerel $LN8+256
	DD	imagerel $unwind$z900_add_distinct_register
$pdata$z900_add_distinct_long_register DD imagerel $LN8
	DD	imagerel $LN8+257
	DD	imagerel $unwind$z900_add_distinct_long_register
$pdata$z900_add_distinct_halfword_immediate DD imagerel $LN8
	DD	imagerel $LN8+249
	DD	imagerel $unwind$z900_add_distinct_halfword_immediate
$pdata$z900_add_distinct_long_halfword_immediate DD imagerel $LN8
	DD	imagerel $LN8+251
	DD	imagerel $unwind$z900_add_distinct_long_halfword_immediate
$pdata$z900_add_logical_distinct_register DD imagerel $LN7
	DD	imagerel $LN7+205
	DD	imagerel $unwind$z900_add_logical_distinct_register
$pdata$z900_add_logical_distinct_long_register DD imagerel $LN7
	DD	imagerel $LN7+206
	DD	imagerel $unwind$z900_add_logical_distinct_long_register
$pdata$z900_add_logical_distinct_signed_halfword_immediate DD imagerel $LN9
	DD	imagerel $LN9+285
	DD	imagerel $unwind$z900_add_logical_distinct_signed_halfword_immediate
$pdata$z900_add_logical_distinct_long_signed_halfword_immediate DD imagerel $LN9
	DD	imagerel $LN9+290
	DD	imagerel $unwind$z900_add_logical_distinct_long_signed_halfword_immediate
$pdata$z900_and_distinct_register DD imagerel $LN9
	DD	imagerel $LN9+231
	DD	imagerel $unwind$z900_and_distinct_register
$pdata$z900_and_distinct_long_register DD imagerel $LN9
	DD	imagerel $LN9+235
	DD	imagerel $unwind$z900_and_distinct_long_register
$pdata$z900_exclusive_or_distinct_register DD imagerel $LN9
	DD	imagerel $LN9+231
	DD	imagerel $unwind$z900_exclusive_or_distinct_register
$pdata$z900_exclusive_or_distinct_long_register DD imagerel $LN9
	DD	imagerel $LN9+235
	DD	imagerel $unwind$z900_exclusive_or_distinct_long_register
$pdata$z900_or_distinct_register DD imagerel $LN9
	DD	imagerel $LN9+231
	DD	imagerel $unwind$z900_or_distinct_register
$pdata$z900_or_distinct_long_register DD imagerel $LN9
	DD	imagerel $LN9+235
	DD	imagerel $unwind$z900_or_distinct_long_register
$pdata$z900_shift_right_single_distinct DD imagerel $LN23
	DD	imagerel $LN23+559
	DD	imagerel $unwind$z900_shift_right_single_distinct
$pdata$z900_shift_left_single_distinct DD imagerel $LN28
	DD	imagerel $LN28+859
	DD	imagerel $unwind$z900_shift_left_single_distinct
$pdata$z900_shift_right_single_logical_distinct DD imagerel $LN17
	DD	imagerel $LN17+432
	DD	imagerel $unwind$z900_shift_right_single_logical_distinct
$pdata$z900_shift_left_single_logical_distinct DD imagerel $LN17
	DD	imagerel $LN17+432
	DD	imagerel $unwind$z900_shift_left_single_logical_distinct
$pdata$z900_subtract_distinct_register DD imagerel $LN8
	DD	imagerel $LN8+256
	DD	imagerel $unwind$z900_subtract_distinct_register
$pdata$z900_subtract_distinct_long_register DD imagerel $LN8
	DD	imagerel $LN8+257
	DD	imagerel $unwind$z900_subtract_distinct_long_register
$pdata$z900_subtract_logical_distinct_register DD imagerel $LN7
	DD	imagerel $LN7+205
	DD	imagerel $unwind$z900_subtract_logical_distinct_register
$pdata$z900_subtract_logical_distinct_long_register DD imagerel $LN7
	DD	imagerel $LN7+206
	DD	imagerel $unwind$z900_subtract_logical_distinct_long_register
$pdata$z900_add_high_high_high_register DD imagerel $LN8
	DD	imagerel $LN8+256
	DD	imagerel $unwind$z900_add_high_high_high_register
$pdata$z900_add_high_high_low_register DD imagerel $LN8
	DD	imagerel $LN8+256
	DD	imagerel $unwind$z900_add_high_high_low_register
$pdata$z900_add_high_immediate DD imagerel $LN8
	DD	imagerel $LN8+262
	DD	imagerel $unwind$z900_add_high_immediate
$pdata$z900_add_logical_high_high_high_register DD imagerel $LN7
	DD	imagerel $LN7+205
	DD	imagerel $unwind$z900_add_logical_high_high_high_register
$pdata$z900_add_logical_high_high_low_register DD imagerel $LN7
	DD	imagerel $LN7+205
	DD	imagerel $unwind$z900_add_logical_high_high_low_register
$pdata$z900_add_logical_with_signed_immediate_high DD imagerel $LN9
	DD	imagerel $LN9+295
	DD	imagerel $unwind$z900_add_logical_with_signed_immediate_high
$pdata$z900_add_logical_with_signed_immediate_high_n DD imagerel $LN9
	DD	imagerel $LN9+274
	DD	imagerel $unwind$z900_add_logical_with_signed_immediate_high_n
$pdata$z900_branch_relative_on_count_high DD imagerel $LN13
	DD	imagerel $LN13+321
	DD	imagerel $unwind$z900_branch_relative_on_count_high
$pdata$z900_compare_high_high_register DD imagerel $LN11
	DD	imagerel $LN11+233
	DD	imagerel $unwind$z900_compare_high_high_register
$pdata$z900_compare_high_low_register DD imagerel $LN11
	DD	imagerel $LN11+233
	DD	imagerel $unwind$z900_compare_high_low_register
$pdata$z900_compare_high_fullword DD imagerel $LN20
	DD	imagerel $LN20+532
	DD	imagerel $unwind$z900_compare_high_fullword
$pdata$z900_compare_high_immediate DD imagerel $LN11
	DD	imagerel $LN11+253
	DD	imagerel $unwind$z900_compare_high_immediate
$pdata$z900_compare_logical_high_high_register DD imagerel $LN11
	DD	imagerel $LN11+233
	DD	imagerel $unwind$z900_compare_logical_high_high_register
$pdata$z900_compare_logical_high_low_register DD imagerel $LN11
	DD	imagerel $LN11+233
	DD	imagerel $unwind$z900_compare_logical_high_low_register
$pdata$z900_compare_logical_high_fullword DD imagerel $LN20
	DD	imagerel $LN20+532
	DD	imagerel $unwind$z900_compare_logical_high_fullword
$pdata$z900_compare_logical_high_immediate DD imagerel $LN11
	DD	imagerel $LN11+253
	DD	imagerel $unwind$z900_compare_logical_high_immediate
$pdata$z900_load_byte_high DD imagerel $LN16
	DD	imagerel $LN16+453
	DD	imagerel $unwind$z900_load_byte_high
$pdata$z900_load_fullword_high DD imagerel $LN16
	DD	imagerel $LN16+450
	DD	imagerel $unwind$z900_load_fullword_high
$pdata$z900_load_halfword_high DD imagerel $LN16
	DD	imagerel $LN16+451
	DD	imagerel $unwind$z900_load_halfword_high
$pdata$z900_load_logical_character_high DD imagerel $LN16
	DD	imagerel $LN16+453
	DD	imagerel $unwind$z900_load_logical_character_high
$pdata$z900_load_logical_halfword_high DD imagerel $LN16
	DD	imagerel $LN16+453
	DD	imagerel $unwind$z900_load_logical_halfword_high
$pdata$z900_rotate_then_insert_selected_bits_high_long_reg DD imagerel $LN3
	DD	imagerel $LN3+34
	DD	imagerel $unwind$z900_rotate_then_insert_selected_bits_high_long_reg
$pdata$z900_rotate_then_insert_selected_bits_low_long_reg DD imagerel $LN3
	DD	imagerel $LN3+34
	DD	imagerel $unwind$z900_rotate_then_insert_selected_bits_low_long_reg
$pdata$z900_store_character_high DD imagerel $LN16
	DD	imagerel $LN16+452
	DD	imagerel $unwind$z900_store_character_high
$pdata$z900_store_fullword_high DD imagerel $LN16
	DD	imagerel $LN16+451
	DD	imagerel $unwind$z900_store_fullword_high
$pdata$z900_store_halfword_high DD imagerel $LN16
	DD	imagerel $LN16+452
	DD	imagerel $unwind$z900_store_halfword_high
$pdata$z900_subtract_high_high_high_register DD imagerel $LN8
	DD	imagerel $LN8+256
	DD	imagerel $unwind$z900_subtract_high_high_high_register
$pdata$z900_subtract_high_high_low_register DD imagerel $LN8
	DD	imagerel $LN8+256
	DD	imagerel $unwind$z900_subtract_high_high_low_register
$pdata$z900_subtract_logical_high_high_high_register DD imagerel $LN7
	DD	imagerel $LN7+205
	DD	imagerel $unwind$z900_subtract_logical_high_high_high_register
$pdata$z900_subtract_logical_high_high_low_register DD imagerel $LN7
	DD	imagerel $LN7+205
	DD	imagerel $unwind$z900_subtract_logical_high_high_low_register
$pdata$z900_load_and_add DD imagerel $LN8
	DD	imagerel $LN8+161
	DD	imagerel $unwind$z900_load_and_add
$pdata$z900_load_and_add_logical DD imagerel $LN7
	DD	imagerel $LN7+110
	DD	imagerel $unwind$z900_load_and_add_logical
$pdata$z900_load_and_and DD imagerel $LN7
	DD	imagerel $LN7+110
	DD	imagerel $unwind$z900_load_and_and
$pdata$z900_load_and_exclusive_or DD imagerel $LN7
	DD	imagerel $LN7+110
	DD	imagerel $unwind$z900_load_and_exclusive_or
$pdata$z900_load_and_or DD imagerel $LN7
	DD	imagerel $LN7+110
	DD	imagerel $unwind$z900_load_and_or
$pdata$z900_load_pair_disjoint DD imagerel $LN16
	DD	imagerel $LN16+638
	DD	imagerel $unwind$z900_load_pair_disjoint
$pdata$z900_load_and_add_long DD imagerel $LN8
	DD	imagerel $LN8+161
	DD	imagerel $unwind$z900_load_and_add_long
$pdata$z900_load_and_add_logical_long DD imagerel $LN7
	DD	imagerel $LN7+110
	DD	imagerel $unwind$z900_load_and_add_logical_long
$pdata$z900_load_and_and_long DD imagerel $LN7
	DD	imagerel $LN7+110
	DD	imagerel $unwind$z900_load_and_and_long
$pdata$z900_load_and_exclusive_or_long DD imagerel $LN7
	DD	imagerel $LN7+110
	DD	imagerel $unwind$z900_load_and_exclusive_or_long
$pdata$z900_load_and_or_long DD imagerel $LN7
	DD	imagerel $LN7+110
	DD	imagerel $unwind$z900_load_and_or_long
$pdata$z900_load_pair_disjoint_long DD imagerel $LN16
	DD	imagerel $LN16+719
	DD	imagerel $unwind$z900_load_pair_disjoint_long
$pdata$z900_load_on_condition_register DD imagerel $LN8
	DD	imagerel $LN8+200
	DD	imagerel $unwind$z900_load_on_condition_register
$pdata$z900_load_on_condition_long_register DD imagerel $LN8
	DD	imagerel $LN8+201
	DD	imagerel $unwind$z900_load_on_condition_long_register
$pdata$z900_load_on_condition DD imagerel $LN16
	DD	imagerel $LN16+451
	DD	imagerel $unwind$z900_load_on_condition
$pdata$z900_load_on_condition_long DD imagerel $LN16
	DD	imagerel $LN16+454
	DD	imagerel $unwind$z900_load_on_condition_long
$pdata$z900_store_on_condition DD imagerel $LN17
	DD	imagerel $LN17+492
	DD	imagerel $unwind$z900_store_on_condition
$pdata$z900_store_on_condition_long DD imagerel $LN17
	DD	imagerel $LN17+493
	DD	imagerel $unwind$z900_store_on_condition_long
$pdata$z900_population_count DD imagerel $LN18
	DD	imagerel $LN18+470
	DD	imagerel $unwind$z900_population_count
$pdata$z900_branch_prediction_preload DD imagerel $LN20
	DD	imagerel $LN20+515
	DD	imagerel $unwind$z900_branch_prediction_preload
$pdata$z900_branch_prediction_relative_preload DD imagerel $LN27
	DD	imagerel $LN27+701
	DD	imagerel $unwind$z900_branch_prediction_relative_preload
$pdata$z900_next_instruction_access_intent DD imagerel $LN7
	DD	imagerel $LN7+112
	DD	imagerel $unwind$z900_next_instruction_access_intent
$pdata$z900_load_and_trap DD imagerel $LN17
	DD	imagerel $LN17+500
	DD	imagerel $unwind$z900_load_and_trap
$pdata$z900_load_long_and_trap DD imagerel $LN17
	DD	imagerel $LN17+502
	DD	imagerel $unwind$z900_load_long_and_trap
$pdata$z900_load_fullword_high_and_trap DD imagerel $LN17
	DD	imagerel $LN17+500
	DD	imagerel $unwind$z900_load_fullword_high_and_trap
$pdata$z900_load_logical_long_fullword_and_trap DD imagerel $LN17
	DD	imagerel $LN17+504
	DD	imagerel $unwind$z900_load_logical_long_fullword_and_trap
$pdata$z900_load_logical_long_thirtyone_and_trap DD imagerel $LN17
	DD	imagerel $LN17+508
	DD	imagerel $unwind$z900_load_logical_long_thirtyone_and_trap
$pdata$z900_compare_logical_and_trap DD imagerel $LN20
	DD	imagerel $LN20+541
	DD	imagerel $unwind$z900_compare_logical_and_trap
$pdata$z900_compare_logical_and_trap_long DD imagerel $LN20
	DD	imagerel $LN20+546
	DD	imagerel $unwind$z900_compare_logical_and_trap_long
$pdata$z900_rotate_then_insert_selected_bits_long_reg_n DD imagerel $LN3
	DD	imagerel $LN3+34
	DD	imagerel $unwind$z900_rotate_then_insert_selected_bits_long_reg_n
$pdata$z900_load_halfword_high_immediate_on_condition DD imagerel $LN8
	DD	imagerel $LN8+190
	DD	imagerel $unwind$z900_load_halfword_high_immediate_on_condition
$pdata$z900_load_halfword_immediate_on_condition DD imagerel $LN8
	DD	imagerel $LN8+190
	DD	imagerel $unwind$z900_load_halfword_immediate_on_condition
$pdata$z900_load_halfword_immediate_on_condition_grande DD imagerel $LN8
	DD	imagerel $LN8+192
	DD	imagerel $unwind$z900_load_halfword_immediate_on_condition_grande
$pdata$z900_load_high_on_condition DD imagerel $LN16
	DD	imagerel $LN16+451
	DD	imagerel $unwind$z900_load_high_on_condition
$pdata$z900_load_high_on_condition_register DD imagerel $LN8
	DD	imagerel $LN8+200
	DD	imagerel $unwind$z900_load_high_on_condition_register
$pdata$z900_store_high_on_condition DD imagerel $LN17
	DD	imagerel $LN17+492
	DD	imagerel $unwind$z900_store_high_on_condition
$pdata$z900_load_and_zero_rightmost_byte_grande DD imagerel $LN16
	DD	imagerel $LN16+477
	DD	imagerel $unwind$z900_load_and_zero_rightmost_byte_grande
$pdata$z900_load_logical_and_zero_rightmost_byte DD imagerel $LN16
	DD	imagerel $LN16+492
	DD	imagerel $unwind$z900_load_logical_and_zero_rightmost_byte
$pdata$z900_load_and_zero_rightmost_byte DD imagerel $LN16
	DD	imagerel $LN16+471
	DD	imagerel $unwind$z900_load_and_zero_rightmost_byte
$pdata$z900_multiply_long_register DD imagerel $LN8
	DD	imagerel $LN8+252
	DD	imagerel $unwind$z900_multiply_long_register
$pdata$z900_multiply_long DD imagerel $LN17
	DD	imagerel $LN17+557
	DD	imagerel $unwind$z900_multiply_long
$pdata$z900_multiply_long_halfword DD imagerel $LN16
	DD	imagerel $LN16+493
	DD	imagerel $unwind$z900_multiply_long_halfword
$pdata$z900_select_register DD imagerel $LN9
	DD	imagerel $LN9+241
	DD	imagerel $unwind$z900_select_register
$pdata$z900_select_register_long DD imagerel $LN9
	DD	imagerel $LN9+243
	DD	imagerel $unwind$z900_select_register_long
$pdata$z900_select_fullword_high_register DD imagerel $LN9
	DD	imagerel $LN9+241
	DD	imagerel $unwind$z900_select_fullword_high_register
pdata	ENDS
;	COMDAT pdata
pdata	SEGMENT
$pdata$z900_per3_zero DD imagerel $LN12
	DD	imagerel $LN12+215
	DD	imagerel $unwind$z900_per3_zero
pdata	ENDS
;	COMDAT pdata
pdata	SEGMENT
$pdata$z900_per3_zero_xcheck DD imagerel $LN6
	DD	imagerel $LN6+108
	DD	imagerel $unwind$z900_per3_zero_xcheck
pdata	ENDS
;	COMDAT pdata
pdata	SEGMENT
$pdata$z900_per3_zero_xcheck2 DD imagerel $LN18
	DD	imagerel $LN18+485
	DD	imagerel $unwind$z900_per3_zero_xcheck2
pdata	ENDS
;	COMDAT pdata
pdata	SEGMENT
$pdata$z900_maddr_l DD imagerel $LN18
	DD	imagerel $LN18+657
	DD	imagerel $unwind$z900_maddr_l
pdata	ENDS
;	COMDAT pdata
pdata	SEGMENT
$pdata$z900_vstore2_full DD imagerel $LN3
	DD	imagerel $LN3+216
	DD	imagerel $unwind$z900_vstore2_full
pdata	ENDS
;	COMDAT pdata
pdata	SEGMENT
$pdata$z900_vstore4_full DD imagerel $LN3
	DD	imagerel $LN3+332
	DD	imagerel $unwind$z900_vstore4_full
pdata	ENDS
;	COMDAT pdata
pdata	SEGMENT
$pdata$z900_vstore8_full DD imagerel $LN3
	DD	imagerel $LN3+375
	DD	imagerel $unwind$z900_vstore8_full
pdata	ENDS
;	COMDAT pdata
pdata	SEGMENT
$pdata$z900_vfetch2_full DD imagerel $LN3
	DD	imagerel $LN3+186
	DD	imagerel $unwind$z900_vfetch2_full
pdata	ENDS
;	COMDAT pdata
pdata	SEGMENT
$pdata$z900_vfetch4_full DD imagerel $LN3
	DD	imagerel $LN3+307
	DD	imagerel $unwind$z900_vfetch4_full
pdata	ENDS
;	COMDAT pdata
pdata	SEGMENT
$pdata$z900_vfetch8_full DD imagerel $LN3
	DD	imagerel $LN3+307
	DD	imagerel $unwind$z900_vfetch8_full
pdata	ENDS
;	COMDAT pdata
pdata	SEGMENT
$pdata$z900_vstoreb DD imagerel $LN3
	DD	imagerel $LN3+91
	DD	imagerel $unwind$z900_vstoreb
pdata	ENDS
;	COMDAT pdata
pdata	SEGMENT
$pdata$z900_vstore2 DD imagerel $LN9
	DD	imagerel $LN9+188
	DD	imagerel $unwind$z900_vstore2
pdata	ENDS
;	COMDAT pdata
pdata	SEGMENT
$pdata$z900_vstore4 DD imagerel $LN12
	DD	imagerel $LN12+209
	DD	imagerel $unwind$z900_vstore4
pdata	ENDS
;	COMDAT pdata
pdata	SEGMENT
$pdata$z900_vstore8 DD imagerel $LN9
	DD	imagerel $LN9+174
	DD	imagerel $unwind$z900_vstore8
pdata	ENDS
;	COMDAT pdata
pdata	SEGMENT
$pdata$z900_vfetchb DD imagerel $LN3
	DD	imagerel $LN3+82
	DD	imagerel $unwind$z900_vfetchb
pdata	ENDS
;	COMDAT pdata
pdata	SEGMENT
$pdata$z900_vfetch2 DD imagerel $LN11
	DD	imagerel $LN11+196
	DD	imagerel $unwind$z900_vfetch2
pdata	ENDS
;	COMDAT pdata
pdata	SEGMENT
$pdata$z900_vfetch4 DD imagerel $LN11
	DD	imagerel $LN11+195
	DD	imagerel $unwind$z900_vfetch4
pdata	ENDS
;	COMDAT pdata
pdata	SEGMENT
$pdata$z900_vfetch8 DD imagerel $LN8
	DD	imagerel $LN8+157
	DD	imagerel $unwind$z900_vfetch8
pdata	ENDS
pdata	SEGMENT
$pdata$z900_perform_interlocked_storage_immediate DD imagerel $LN25
	DD	imagerel $LN25+756
	DD	imagerel $unwind$z900_perform_interlocked_storage_immediate
$pdata$z900_perform_interlocked_long_storage_immediate DD imagerel $LN25
	DD	imagerel $LN25+783
	DD	imagerel $unwind$z900_perform_interlocked_long_storage_immediate
$pdata$z900_rotate_then_xxx_selected_bits_long_reg DD imagerel $LN44
	DD	imagerel $LN44+1364
	DD	imagerel $unwind$z900_rotate_then_xxx_selected_bits_long_reg
$pdata$z900_load_and_perform_interlocked_access DD imagerel $LN33
	DD	imagerel $LN33+972
	DD	imagerel $unwind$z900_load_and_perform_interlocked_access
$pdata$z900_load_and_perform_interlocked_access_long DD imagerel $LN33
	DD	imagerel $LN33+1015
	DD	imagerel $unwind$z900_load_and_perform_interlocked_access_long
pdata	ENDS
_DATA	SEGMENT
$SG194354 DB	'C:\papa\MyGit\hyperion-zvector\general3.c:340', 00H
	ORG $+2
$SG194382 DB	'C:\papa\MyGit\hyperion-zvector\general3.c:372', 00H
	ORG $+2
$SG194409 DB	'C:\papa\MyGit\hyperion-zvector\general3.c:403', 00H
	ORG $+2
$SG194436 DB	'C:\papa\MyGit\hyperion-zvector\general3.c:434', 00H
	ORG $+2
$SG194618 DB	'C:\papa\MyGit\hyperion-zvector\general3.c:658', 00H
	ORG $+2
$SG194648 DB	'C:\papa\MyGit\hyperion-zvector\general3.c:691', 00H
	ORG $+2
$SG194677 DB	'C:\papa\MyGit\hyperion-zvector\general3.c:723', 00H
	ORG $+2
$SG194706 DB	'C:\papa\MyGit\hyperion-zvector\general3.c:755', 00H
	ORG $+2
$SG194772 DB	'C:\papa\MyGit\hyperion-zvector\general3.c:841', 00H
	ORG $+2
$SG194796 DB	'C:\papa\MyGit\hyperion-zvector\general3.c:873', 00H
	ORG $+2
$SG194819 DB	'C:\papa\MyGit\hyperion-zvector\general3.c:904', 00H
	ORG $+2
$SG194842 DB	'C:\papa\MyGit\hyperion-zvector\general3.c:935', 00H
	ORG $+2
$SG194896 DB	'C:\papa\MyGit\hyperion-zvector\general3.c:1020', 00H
	ORG $+1
$SG194920 DB	'C:\papa\MyGit\hyperion-zvector\general3.c:1053', 00H
	ORG $+1
$SG194943 DB	'C:\papa\MyGit\hyperion-zvector\general3.c:1085', 00H
	ORG $+1
$SG194966 DB	'C:\papa\MyGit\hyperion-zvector\general3.c:1117', 00H
	ORG $+1
$SG195224 DB	'C:\papa\MyGit\hyperion-zvector\general3.c:1473', 00H
	ORG $+1
$SG195897 DB	'C:\papa\MyGit\hyperion-zvector\general3.c:2456', 00H
	ORG $+1
$SG196350 DB	'C:\papa\MyGit\hyperion-zvector\general3.c:3061', 00H
	ORG $+1
$SG196362 DB	'C:\papa\MyGit\hyperion-zvector\general3.c:3077', 00H
	ORG $+1
$SG196373 DB	'C:\papa\MyGit\hyperion-zvector\general3.c:3093', 00H
	ORG $+1
$SG196383 DB	'C:\papa\MyGit\hyperion-zvector\general3.c:3104', 00H
	ORG $+1
$SG196393 DB	'C:\papa\MyGit\hyperion-zvector\general3.c:3115', 00H
	ORG $+1
$SG196403 DB	'C:\papa\MyGit\hyperion-zvector\general3.c:3126', 00H
	ORG $+1
$SG196413 DB	'C:\papa\MyGit\hyperion-zvector\general3.c:3137', 00H
	ORG $+1
$SG196423 DB	'C:\papa\MyGit\hyperion-zvector\general3.c:3148', 00H
	ORG $+1
$SG196433 DB	'C:\papa\MyGit\hyperion-zvector\general3.c:3159', 00H
	ORG $+1
$SG196443 DB	'C:\papa\MyGit\hyperion-zvector\general3.c:3170', 00H
	ORG $+1
$SG196469 DB	'C:\papa\MyGit\hyperion-zvector\general3.c:3191', 00H
	ORG $+1
$SG196496 DB	'C:\papa\MyGit\hyperion-zvector\general3.c:3229', 00H
	ORG $+1
$SG197217 DB	'C:\papa\MyGit\hyperion-zvector\general3.c:4265', 00H
	ORG $+1
$SG197247 DB	'C:\papa\MyGit\hyperion-zvector\general3.c:4286', 00H
_DATA	ENDS
;	COMDAT xdata
xdata	SEGMENT
$unwind$z900_vfetch8 DD 011201H
	DD	08212H
xdata	ENDS
;	COMDAT xdata
xdata	SEGMENT
$unwind$z900_vfetch4 DD 011201H
	DD	08212H
xdata	ENDS
;	COMDAT xdata
xdata	SEGMENT
$unwind$z900_vfetch2 DD 011201H
	DD	08212H
xdata	ENDS
;	COMDAT xdata
xdata	SEGMENT
$unwind$z900_vfetchb DD 011201H
	DD	08212H
xdata	ENDS
;	COMDAT xdata
xdata	SEGMENT
$unwind$z900_vstore8 DD 011801H
	DD	08218H
xdata	ENDS
;	COMDAT xdata
xdata	SEGMENT
$unwind$z900_vstore4 DD 011701H
	DD	08217H
xdata	ENDS
;	COMDAT xdata
xdata	SEGMENT
$unwind$z900_vstore2 DD 011801H
	DD	08218H
xdata	ENDS
;	COMDAT xdata
xdata	SEGMENT
$unwind$z900_vstoreb DD 011701H
	DD	08217H
xdata	ENDS
;	COMDAT voltbl
voltbl	SEGMENT
_volmd	DW	01eH
	DW	011fH
voltbl	ENDS
;	COMDAT xdata
xdata	SEGMENT
$unwind$z900_vfetch8_full DD 032319H
	DD	07010c214H
	DD	0600fH
	DD	imagerel __GSHandlerCheck
	DD	050H
xdata	ENDS
;	COMDAT voltbl
voltbl	SEGMENT
_volmd	DW	01eH
	DW	011fH
voltbl	ENDS
;	COMDAT xdata
xdata	SEGMENT
$unwind$z900_vfetch4_full DD 032319H
	DD	07010a214H
	DD	0600fH
	DD	imagerel __GSHandlerCheck
	DD	048H
xdata	ENDS
;	COMDAT xdata
xdata	SEGMENT
$unwind$z900_vfetch2_full DD 011201H
	DD	08212H
xdata	ENDS
;	COMDAT voltbl
voltbl	SEGMENT
_volmd	DW	024H
	DW	0163H
voltbl	ENDS
;	COMDAT xdata
xdata	SEGMENT
$unwind$z900_vstore8_full DD 032919H
	DD	07016c21aH
	DD	06015H
	DD	imagerel __GSHandlerCheck
	DD	058H
xdata	ENDS
;	COMDAT xdata
xdata	SEGMENT
$unwind$z900_vstore4_full DD 031901H
	DD	07015a219H
	DD	06014H
xdata	ENDS
;	COMDAT xdata
xdata	SEGMENT
$unwind$z900_vstore2_full DD 011801H
	DD	0a218H
xdata	ENDS
;	COMDAT xdata
xdata	SEGMENT
$unwind$z900_maddr_l DD 011801H
	DD	0a218H
xdata	ENDS
;	COMDAT xdata
xdata	SEGMENT
$unwind$z900_per3_zero_xcheck2 DD 011201H
	DD	0a212H
xdata	ENDS
;	COMDAT xdata
xdata	SEGMENT
$unwind$z900_per3_zero_xcheck DD 010d01H
	DD	0620dH
xdata	ENDS
;	COMDAT xdata
xdata	SEGMENT
$unwind$z900_per3_zero DD 010901H
	DD	06209H
xdata	ENDS
;	COMDAT xdata
xdata	SEGMENT
$unwind$s370_vfetch8 DD 011101H
	DD	0a211H
xdata	ENDS
;	COMDAT xdata
xdata	SEGMENT
$unwind$s370_vfetch4 DD 011101H
	DD	0a211H
xdata	ENDS
;	COMDAT xdata
xdata	SEGMENT
$unwind$s370_vfetch2 DD 011101H
	DD	0a211H
xdata	ENDS
;	COMDAT xdata
xdata	SEGMENT
$unwind$s370_vfetchb DD 011101H
	DD	08211H
xdata	ENDS
;	COMDAT xdata
xdata	SEGMENT
$unwind$s370_vstore8 DD 011701H
	DD	0a217H
xdata	ENDS
;	COMDAT xdata
xdata	SEGMENT
$unwind$s370_vstore4 DD 011601H
	DD	0a216H
xdata	ENDS
;	COMDAT xdata
xdata	SEGMENT
$unwind$s370_vstore2 DD 011701H
	DD	0a217H
xdata	ENDS
;	COMDAT xdata
xdata	SEGMENT
$unwind$s370_vstoreb DD 011601H
	DD	08216H
xdata	ENDS
;	COMDAT voltbl
voltbl	SEGMENT
_volmd	DW	01dH
	DW	010cH
voltbl	ENDS
;	COMDAT xdata
xdata	SEGMENT
$unwind$s370_vfetch8_full DD 032219H
	DD	0700fc213H
	DD	0600eH
	DD	imagerel __GSHandlerCheck
	DD	050H
xdata	ENDS
;	COMDAT voltbl
voltbl	SEGMENT
_volmd	DW	01dH
	DW	010cH
voltbl	ENDS
;	COMDAT xdata
xdata	SEGMENT
$unwind$s370_vfetch4_full DD 032219H
	DD	0700fa213H
	DD	0600eH
	DD	imagerel __GSHandlerCheck
	DD	048H
xdata	ENDS
;	COMDAT xdata
xdata	SEGMENT
$unwind$s370_vfetch2_full DD 011101H
	DD	08211H
xdata	ENDS
;	COMDAT voltbl
voltbl	SEGMENT
_volmd	DW	023H
	DW	0150H
voltbl	ENDS
;	COMDAT xdata
xdata	SEGMENT
$unwind$s370_vstore8_full DD 032819H
	DD	07015c219H
	DD	06014H
	DD	imagerel __GSHandlerCheck
	DD	058H
xdata	ENDS
;	COMDAT xdata
xdata	SEGMENT
$unwind$s370_vstore4_full DD 031801H
	DD	07014a218H
	DD	06013H
xdata	ENDS
;	COMDAT xdata
xdata	SEGMENT
$unwind$s370_vstore2_full DD 011701H
	DD	0a217H
xdata	ENDS
;	COMDAT xdata
xdata	SEGMENT
$unwind$s370_maddr_l DD 011701H
	DD	0a217H
xdata	ENDS
;	COMDAT xdata
xdata	SEGMENT
$unwind$sub_signed_long DD 011301H
	DD	06213H
xdata	ENDS
;	COMDAT xdata
xdata	SEGMENT
$unwind$add_signed_long DD 011301H
	DD	06213H
xdata	ENDS
;	COMDAT xdata
xdata	SEGMENT
$unwind$sub_logical_long DD 011301H
	DD	02213H
xdata	ENDS
;	COMDAT xdata
xdata	SEGMENT
$unwind$add_logical_long DD 011301H
	DD	02213H
xdata	ENDS
;	COMDAT xdata
xdata	SEGMENT
$unwind$mul_signed_long DD 011801H
	DD	04218H
xdata	ENDS
;	COMDAT xdata
xdata	SEGMENT
$unwind$mul_unsigned_long DD 011801H
	DD	0a218H
xdata	ENDS
;	COMDAT xdata
xdata	SEGMENT
$unwind$mul_signed DD 011801H
	DD	02218H
xdata	ENDS
;	COMDAT xdata
xdata	SEGMENT
$unwind$sub_signed DD 011201H
	DD	04212H
xdata	ENDS
;	COMDAT xdata
xdata	SEGMENT
$unwind$add_signed DD 011201H
	DD	04212H
xdata	ENDS
;	COMDAT xdata
xdata	SEGMENT
$unwind$sub_logical DD 011201H
	DD	02212H
xdata	ENDS
;	COMDAT xdata
xdata	SEGMENT
$unwind$add_logical DD 011201H
	DD	02212H
xdata	ENDS
;	COMDAT xdata
xdata	SEGMENT
$unwind$fetch_dw_noswap DD 010901H
	DD	02209H
xdata	ENDS
;	COMDAT xdata
xdata	SEGMENT
$unwind$fetch_fw_noswap DD 010901H
	DD	02209H
xdata	ENDS
;	COMDAT xdata
xdata	SEGMENT
$unwind$fetch_hw_noswap DD 010901H
	DD	02209H
xdata	ENDS
;	COMDAT voltbl
voltbl	SEGMENT
_volmd	DB	035H
voltbl	ENDS
;	COMDAT xdata
xdata	SEGMENT
$unwind$cmpxchg4_x86 DD 011201H
	DD	02212H
xdata	ENDS
;	COMDAT voltbl
voltbl	SEGMENT
_volmd	DB	03cH
voltbl	ENDS
;	COMDAT xdata
xdata	SEGMENT
$unwind$cmpxchg8_x86 DD 011301H
	DD	04213H
xdata	ENDS
xdata	SEGMENT
$unwind$s370_add_immediate_long_storage DD 010e01H
	DD	0420eH
$unwind$s370_add_immediate_storage DD 010e01H
	DD	0420eH
$unwind$s370_add_logical_with_signed_immediate DD 010e01H
	DD	0420eH
$unwind$s370_add_logical_with_signed_immediate_long DD 010e01H
	DD	0420eH
$unwind$s370_compare_and_branch_register DD 010e01H
	DD	0a20eH
$unwind$s370_compare_and_branch_relative_register DD 010e01H
	DD	0a20eH
$unwind$s370_compare_and_trap_register DD 010e01H
	DD	0820eH
$unwind$s370_compare_halfword_immediate_halfword_storage DD 010e01H
	DD	0820eH
$unwind$s370_compare_halfword_immediate_long_storage DD 010e01H
	DD	0820eH
$unwind$s370_compare_halfword_immediate_storage DD 010e01H
	DD	0820eH
$unwind$s370_compare_halfword_relative_long DD 010e01H
	DD	0a20eH
$unwind$s370_compare_immediate_and_branch DD 010e01H
	DD	0a20eH
$unwind$s370_compare_immediate_and_branch_relative DD 010e01H
	DD	0a20eH
$unwind$s370_compare_immediate_and_trap DD 010e01H
	DD	0820eH
$unwind$s370_compare_logical_and_branch_register DD 010e01H
	DD	0a20eH
$unwind$s370_compare_logical_and_branch_relative_register DD 010e01H
	DD	0a20eH
$unwind$s370_compare_logical_and_trap_register DD 010e01H
	DD	0820eH
$unwind$s370_compare_logical_immediate_and_branch DD 010e01H
	DD	0a20eH
$unwind$s370_compare_logical_immediate_and_branch_relative DD 010e01H
	DD	0a20eH
$unwind$s370_compare_logical_immediate_and_trap_fullword DD 010e01H
	DD	0820eH
$unwind$s370_compare_logical_immediate_fullword_storage DD 010e01H
	DD	0820eH
$unwind$s370_compare_logical_immediate_halfword_storage DD 010e01H
	DD	0820eH
$unwind$s370_compare_logical_immediate_long_storage DD 010e01H
	DD	0820eH
$unwind$s370_compare_logical_relative_long DD 010e01H
	DD	0a20eH
$unwind$s370_compare_logical_relative_long_halfword DD 010e01H
	DD	0a20eH
$unwind$s370_compare_relative_long DD 010e01H
	DD	0a20eH
$unwind$s370_load_halfword_relative_long DD 010e01H
	DD	0a20eH
$unwind$s370_load_logical_halfword_relative_long DD 010e01H
	DD	0a20eH
$unwind$s370_load_relative_long DD 010e01H
	DD	0a20eH
$unwind$s370_move_fullword_from_halfword_immediate DD 010e01H
	DD	0820eH
$unwind$s370_move_halfword_from_halfword_immediate DD 010e01H
	DD	0620eH
$unwind$s370_move_long_from_halfword_immediate DD 010e01H
	DD	0820eH
$unwind$s370_multiply_halfword_y DD 010e01H
	DD	0820eH
$unwind$s370_multiply_single_immediate_fullword DD 010e01H
	DD	0620eH
$unwind$s370_multiply_y DD 010e01H
	DD	0a20eH
$unwind$s370_prefetch_data DD 010e01H
	DD	0820eH
$unwind$s370_prefetch_data_relative_long DD 010e01H
	DD	0820eH
$unwind$s370_store_halfword_relative_long DD 010e01H
	DD	0820eH
$unwind$s370_store_relative_long DD 010e01H
	DD	0820eH
$unwind$s370_store_relative_long_long DD 010e01H
	DD	0820eH
$unwind$s370_add_distinct_register DD 010e01H
	DD	0820eH
$unwind$s370_add_distinct_halfword_immediate DD 010e01H
	DD	0820eH
$unwind$s370_add_logical_distinct_register DD 010e01H
	DD	0820eH
$unwind$s370_add_logical_distinct_signed_halfword_immediate DD 010e01H
	DD	0a20eH
$unwind$s370_and_distinct_register DD 010e01H
	DD	0820eH
$unwind$s370_exclusive_or_distinct_register DD 010e01H
	DD	0820eH
$unwind$s370_or_distinct_register DD 010e01H
	DD	0820eH
$unwind$s370_shift_right_single_distinct DD 010e01H
	DD	0a20eH
$unwind$s370_shift_left_single_distinct DD 010e01H
	DD	0c20eH
$unwind$s370_shift_right_single_logical_distinct DD 010e01H
	DD	0a20eH
$unwind$s370_shift_left_single_logical_distinct DD 010e01H
	DD	0a20eH
$unwind$s370_subtract_distinct_register DD 010e01H
	DD	0820eH
$unwind$s370_subtract_logical_distinct_register DD 010e01H
	DD	0820eH
$unwind$s370_add_high_high_high_register DD 010e01H
	DD	0820eH
$unwind$s370_add_high_high_low_register DD 010e01H
	DD	0820eH
$unwind$s370_add_high_immediate DD 010e01H
	DD	0620eH
$unwind$s370_add_logical_high_high_high_register DD 010e01H
	DD	0820eH
$unwind$s370_add_logical_high_high_low_register DD 010e01H
	DD	0820eH
$unwind$s370_add_logical_with_signed_immediate_high DD 010e01H
	DD	0820eH
$unwind$s370_add_logical_with_signed_immediate_high_n DD 010e01H
	DD	0820eH
$unwind$s370_branch_relative_on_count_high DD 010e01H
	DD	0620eH
$unwind$s370_compare_high_high_register DD 010e01H
	DD	0420eH
$unwind$s370_compare_high_low_register DD 010e01H
	DD	0420eH
$unwind$s370_compare_high_fullword DD 010e01H
	DD	0a20eH
$unwind$s370_compare_high_immediate DD 010e01H
	DD	0820eH
$unwind$s370_compare_logical_high_high_register DD 010e01H
	DD	0420eH
$unwind$s370_compare_logical_high_low_register DD 010e01H
	DD	0420eH
$unwind$s370_compare_logical_high_fullword DD 010e01H
	DD	0a20eH
$unwind$s370_compare_logical_high_immediate DD 010e01H
	DD	0820eH
$unwind$s370_load_byte_high DD 010e01H
	DD	0820eH
$unwind$s370_load_fullword_high DD 010e01H
	DD	0820eH
$unwind$s370_load_halfword_high DD 010e01H
	DD	0820eH
$unwind$s370_load_logical_character_high DD 010e01H
	DD	0820eH
$unwind$s370_load_logical_halfword_high DD 010e01H
	DD	0820eH
$unwind$s370_rotate_then_insert_selected_bits_high_long_reg DD 010e01H
	DD	0420eH
$unwind$s370_rotate_then_insert_selected_bits_low_long_reg DD 010e01H
	DD	0420eH
$unwind$s370_store_character_high DD 010e01H
	DD	0820eH
$unwind$s370_store_fullword_high DD 010e01H
	DD	0820eH
$unwind$s370_store_halfword_high DD 010e01H
	DD	0820eH
$unwind$s370_subtract_high_high_high_register DD 010e01H
	DD	0820eH
$unwind$s370_subtract_high_high_low_register DD 010e01H
	DD	0820eH
$unwind$s370_subtract_logical_high_high_high_register DD 010e01H
	DD	0820eH
$unwind$s370_subtract_logical_high_high_low_register DD 010e01H
	DD	0820eH
$unwind$s370_load_and_add DD 010e01H
	DD	0420eH
$unwind$s370_load_and_add_logical DD 010e01H
	DD	0420eH
$unwind$s370_load_and_and DD 010e01H
	DD	0420eH
$unwind$s370_load_and_exclusive_or DD 010e01H
	DD	0420eH
$unwind$s370_load_and_or DD 010e01H
	DD	0420eH
$unwind$s370_load_pair_disjoint DD 010e01H
	DD	0a20eH
$unwind$s370_load_and_add_long DD 010e01H
	DD	0420eH
$unwind$s370_load_and_add_logical_long DD 010e01H
	DD	0420eH
$unwind$s370_load_and_and_long DD 010e01H
	DD	0420eH
$unwind$s370_load_and_exclusive_or_long DD 010e01H
	DD	0420eH
$unwind$s370_load_and_or_long DD 010e01H
	DD	0420eH
$unwind$s370_load_pair_disjoint_long DD 010e01H
	DD	0c20eH
$unwind$s370_load_on_condition_register DD 010e01H
	DD	0820eH
$unwind$s370_load_on_condition DD 010e01H
	DD	0a20eH
$unwind$s370_store_on_condition DD 010e01H
	DD	0820eH
$unwind$s370_population_count DD 010e01H
	DD	0a20eH
$unwind$s370_perform_interlocked_storage_immediate DD 021101H
	DD	0110111H
$unwind$s370_perform_interlocked_long_storage_immediate DD 021101H
	DD	0130111H
$unwind$s370_rotate_then_xxx_selected_bits_long_reg DD 021101H
	DD	0150111H
$unwind$s370_load_and_perform_interlocked_access DD 021101H
	DD	0130111H
$unwind$s370_load_and_perform_interlocked_access_long DD 021101H
	DD	0150111H
$unwind$z900_add_immediate_long_storage DD 010e01H
	DD	0420eH
$unwind$z900_add_immediate_storage DD 010e01H
	DD	0420eH
$unwind$z900_add_logical_with_signed_immediate DD 010e01H
	DD	0420eH
$unwind$z900_add_logical_with_signed_immediate_long DD 010e01H
	DD	0420eH
$unwind$z900_compare_and_branch_register DD 010e01H
	DD	0a20eH
$unwind$z900_compare_and_branch_long_register DD 010e01H
	DD	0a20eH
$unwind$z900_compare_and_branch_relative_register DD 010e01H
	DD	0a20eH
$unwind$z900_compare_and_branch_relative_long_register DD 010e01H
	DD	0a20eH
$unwind$z900_compare_and_trap_long_register DD 010e01H
	DD	0820eH
$unwind$z900_compare_and_trap_register DD 010e01H
	DD	0820eH
$unwind$z900_compare_halfword_immediate_halfword_storage DD 010e01H
	DD	0820eH
$unwind$z900_compare_halfword_immediate_long_storage DD 010e01H
	DD	0a20eH
$unwind$z900_compare_halfword_immediate_storage DD 010e01H
	DD	0820eH
$unwind$z900_compare_halfword_long DD 010e01H
	DD	0c20eH
$unwind$z900_compare_halfword_relative_long DD 010e01H
	DD	0a20eH
$unwind$z900_compare_halfword_relative_long_long DD 010e01H
	DD	0a20eH
$unwind$z900_compare_immediate_and_branch DD 010e01H
	DD	0a20eH
$unwind$z900_compare_immediate_and_branch_long DD 010e01H
	DD	0a20eH
$unwind$z900_compare_immediate_and_branch_relative DD 010e01H
	DD	0a20eH
$unwind$z900_compare_immediate_and_branch_relative_long DD 010e01H
	DD	0a20eH
$unwind$z900_compare_immediate_and_trap DD 010e01H
	DD	0820eH
$unwind$z900_compare_immediate_and_trap_long DD 010e01H
	DD	0820eH
$unwind$z900_compare_logical_and_branch_long_register DD 010e01H
	DD	0a20eH
$unwind$z900_compare_logical_and_branch_register DD 010e01H
	DD	0a20eH
$unwind$z900_compare_logical_and_branch_relative_long_register DD 010e01H
	DD	0a20eH
$unwind$z900_compare_logical_and_branch_relative_register DD 010e01H
	DD	0a20eH
$unwind$z900_compare_logical_and_trap_long_register DD 010e01H
	DD	0820eH
$unwind$z900_compare_logical_and_trap_register DD 010e01H
	DD	0820eH
$unwind$z900_compare_logical_immediate_and_branch DD 010e01H
	DD	0a20eH
$unwind$z900_compare_logical_immediate_and_branch_long DD 010e01H
	DD	0a20eH
$unwind$z900_compare_logical_immediate_and_branch_relative DD 010e01H
	DD	0a20eH
$unwind$z900_compare_logical_immediate_and_branch_relative_long DD 010e01H
	DD	0a20eH
$unwind$z900_compare_logical_immediate_and_trap_fullword DD 010e01H
	DD	0820eH
$unwind$z900_compare_logical_immediate_and_trap_long DD 010e01H
	DD	0820eH
$unwind$z900_compare_logical_immediate_fullword_storage DD 010e01H
	DD	0820eH
$unwind$z900_compare_logical_immediate_halfword_storage DD 010e01H
	DD	0820eH
$unwind$z900_compare_logical_immediate_long_storage DD 010e01H
	DD	0a20eH
$unwind$z900_compare_logical_relative_long DD 010e01H
	DD	0a20eH
$unwind$z900_compare_logical_relative_long_halfword DD 010e01H
	DD	0a20eH
$unwind$z900_compare_logical_relative_long_long DD 010e01H
	DD	0c20eH
$unwind$z900_compare_logical_relative_long_long_fullword DD 010e01H
	DD	0a20eH
$unwind$z900_compare_logical_relative_long_long_halfword DD 010e01H
	DD	0a20eH
$unwind$z900_compare_relative_long DD 010e01H
	DD	0a20eH
$unwind$z900_compare_relative_long_long DD 010e01H
	DD	0c20eH
$unwind$z900_compare_relative_long_long_fullword DD 010e01H
	DD	0a20eH
$unwind$z900_extract_cpu_attribute DD 010e01H
	DD	0a20eH
$unwind$z900_load_address_extended_y DD 010e01H
	DD	0a20eH
$unwind$z900_load_and_test_long_fullword DD 010e01H
	DD	0a20eH
$unwind$z900_load_halfword_relative_long DD 010e01H
	DD	0a20eH
$unwind$z900_load_halfword_relative_long_long DD 010e01H
	DD	0a20eH
$unwind$z900_load_logical_halfword_relative_long DD 010e01H
	DD	0a20eH
$unwind$z900_load_logical_halfword_relative_long_long DD 010e01H
	DD	0a20eH
$unwind$z900_load_logical_relative_long_long_fullword DD 010e01H
	DD	0a20eH
$unwind$z900_load_relative_long DD 010e01H
	DD	0a20eH
$unwind$z900_load_relative_long_long DD 010e01H
	DD	0a20eH
$unwind$z900_load_relative_long_long_fullword DD 010e01H
	DD	0a20eH
$unwind$z900_move_fullword_from_halfword_immediate DD 010e01H
	DD	0820eH
$unwind$z900_move_halfword_from_halfword_immediate DD 010e01H
	DD	0820eH
$unwind$z900_move_long_from_halfword_immediate DD 010e01H
	DD	0820eH
$unwind$z900_multiply_halfword_y DD 010e01H
	DD	0a20eH
$unwind$z900_multiply_single_immediate_fullword DD 010e01H
	DD	0620eH
$unwind$z900_multiply_single_immediate_long_fullword DD 010e01H
	DD	0620eH
$unwind$z900_multiply_y DD 010e01H
	DD	0a20eH
$unwind$z900_prefetch_data DD 010e01H
	DD	0820eH
$unwind$z900_prefetch_data_relative_long DD 010e01H
	DD	0a20eH
$unwind$z900_rotate_then_and_selected_bits_long_reg DD 010e01H
	DD	0420eH
$unwind$z900_rotate_then_exclusive_or_selected_bits_long_reg DD 010e01H
	DD	0420eH
$unwind$z900_rotate_then_insert_selected_bits_long_reg DD 010e01H
	DD	0420eH
$unwind$z900_rotate_then_or_selected_bits_long_reg DD 010e01H
	DD	0420eH
$unwind$z900_store_halfword_relative_long DD 010e01H
	DD	0a20eH
$unwind$z900_store_relative_long DD 010e01H
	DD	0a20eH
$unwind$z900_store_relative_long_long DD 010e01H
	DD	0a20eH
$unwind$z900_add_distinct_register DD 010e01H
	DD	0820eH
$unwind$z900_add_distinct_long_register DD 010e01H
	DD	0820eH
$unwind$z900_add_distinct_halfword_immediate DD 010e01H
	DD	0820eH
$unwind$z900_add_distinct_long_halfword_immediate DD 010e01H
	DD	0820eH
$unwind$z900_add_logical_distinct_register DD 010e01H
	DD	0820eH
$unwind$z900_add_logical_distinct_long_register DD 010e01H
	DD	0820eH
$unwind$z900_add_logical_distinct_signed_halfword_immediate DD 010e01H
	DD	0a20eH
$unwind$z900_add_logical_distinct_long_signed_halfword_immediate DD 010e01H
	DD	0a20eH
$unwind$z900_and_distinct_register DD 010e01H
	DD	0820eH
$unwind$z900_and_distinct_long_register DD 010e01H
	DD	0820eH
$unwind$z900_exclusive_or_distinct_register DD 010e01H
	DD	0820eH
$unwind$z900_exclusive_or_distinct_long_register DD 010e01H
	DD	0820eH
$unwind$z900_or_distinct_register DD 010e01H
	DD	0820eH
$unwind$z900_or_distinct_long_register DD 010e01H
	DD	0820eH
$unwind$z900_shift_right_single_distinct DD 010e01H
	DD	0c20eH
$unwind$z900_shift_left_single_distinct DD 010e01H
	DD	0e20eH
$unwind$z900_shift_right_single_logical_distinct DD 010e01H
	DD	0a20eH
$unwind$z900_shift_left_single_logical_distinct DD 010e01H
	DD	0a20eH
$unwind$z900_subtract_distinct_register DD 010e01H
	DD	0820eH
$unwind$z900_subtract_distinct_long_register DD 010e01H
	DD	0820eH
$unwind$z900_subtract_logical_distinct_register DD 010e01H
	DD	0820eH
$unwind$z900_subtract_logical_distinct_long_register DD 010e01H
	DD	0820eH
$unwind$z900_add_high_high_high_register DD 010e01H
	DD	0820eH
$unwind$z900_add_high_high_low_register DD 010e01H
	DD	0820eH
$unwind$z900_add_high_immediate DD 010e01H
	DD	0620eH
$unwind$z900_add_logical_high_high_high_register DD 010e01H
	DD	0820eH
$unwind$z900_add_logical_high_high_low_register DD 010e01H
	DD	0820eH
$unwind$z900_add_logical_with_signed_immediate_high DD 010e01H
	DD	0820eH
$unwind$z900_add_logical_with_signed_immediate_high_n DD 010e01H
	DD	0820eH
$unwind$z900_branch_relative_on_count_high DD 010e01H
	DD	0620eH
$unwind$z900_compare_high_high_register DD 010e01H
	DD	0420eH
$unwind$z900_compare_high_low_register DD 010e01H
	DD	0420eH
$unwind$z900_compare_high_fullword DD 010e01H
	DD	0a20eH
$unwind$z900_compare_high_immediate DD 010e01H
	DD	0820eH
$unwind$z900_compare_logical_high_high_register DD 010e01H
	DD	0420eH
$unwind$z900_compare_logical_high_low_register DD 010e01H
	DD	0420eH
$unwind$z900_compare_logical_high_fullword DD 010e01H
	DD	0a20eH
$unwind$z900_compare_logical_high_immediate DD 010e01H
	DD	0820eH
$unwind$z900_load_byte_high DD 010e01H
	DD	0820eH
$unwind$z900_load_fullword_high DD 010e01H
	DD	0820eH
$unwind$z900_load_halfword_high DD 010e01H
	DD	0820eH
$unwind$z900_load_logical_character_high DD 010e01H
	DD	0820eH
$unwind$z900_load_logical_halfword_high DD 010e01H
	DD	0820eH
$unwind$z900_rotate_then_insert_selected_bits_high_long_reg DD 010e01H
	DD	0420eH
$unwind$z900_rotate_then_insert_selected_bits_low_long_reg DD 010e01H
	DD	0420eH
$unwind$z900_store_character_high DD 010e01H
	DD	0820eH
$unwind$z900_store_fullword_high DD 010e01H
	DD	0820eH
$unwind$z900_store_halfword_high DD 010e01H
	DD	0820eH
$unwind$z900_subtract_high_high_high_register DD 010e01H
	DD	0820eH
$unwind$z900_subtract_high_high_low_register DD 010e01H
	DD	0820eH
$unwind$z900_subtract_logical_high_high_high_register DD 010e01H
	DD	0820eH
$unwind$z900_subtract_logical_high_high_low_register DD 010e01H
	DD	0820eH
$unwind$z900_load_and_add DD 010e01H
	DD	0420eH
$unwind$z900_load_and_add_logical DD 010e01H
	DD	0420eH
$unwind$z900_load_and_and DD 010e01H
	DD	0420eH
$unwind$z900_load_and_exclusive_or DD 010e01H
	DD	0420eH
$unwind$z900_load_and_or DD 010e01H
	DD	0420eH
$unwind$z900_load_pair_disjoint DD 010e01H
	DD	0c20eH
$unwind$z900_load_and_add_long DD 010e01H
	DD	0420eH
$unwind$z900_load_and_add_logical_long DD 010e01H
	DD	0420eH
$unwind$z900_load_and_and_long DD 010e01H
	DD	0420eH
$unwind$z900_load_and_exclusive_or_long DD 010e01H
	DD	0420eH
$unwind$z900_load_and_or_long DD 010e01H
	DD	0420eH
$unwind$z900_load_pair_disjoint_long DD 010e01H
	DD	0e20eH
$unwind$z900_load_on_condition_register DD 010e01H
	DD	0820eH
$unwind$z900_load_on_condition_long_register DD 010e01H
	DD	0820eH
$unwind$z900_load_on_condition DD 010e01H
	DD	0a20eH
$unwind$z900_load_on_condition_long DD 010e01H
	DD	0a20eH
$unwind$z900_store_on_condition DD 010e01H
	DD	0c20eH
$unwind$z900_store_on_condition_long DD 010e01H
	DD	0c20eH
$unwind$z900_population_count DD 010e01H
	DD	0c20eH
$unwind$z900_branch_prediction_preload DD 010e01H
	DD	0c20eH
$unwind$z900_branch_prediction_relative_preload DD 010e01H
	DD	0e20eH
$unwind$z900_next_instruction_access_intent DD 010e01H
	DD	0220eH
$unwind$z900_load_and_trap DD 010e01H
	DD	0820eH
$unwind$z900_load_long_and_trap DD 010e01H
	DD	0820eH
$unwind$z900_load_fullword_high_and_trap DD 010e01H
	DD	0820eH
$unwind$z900_load_logical_long_fullword_and_trap DD 010e01H
	DD	0820eH
$unwind$z900_load_logical_long_thirtyone_and_trap DD 010e01H
	DD	0820eH
$unwind$z900_compare_logical_and_trap DD 010e01H
	DD	0c20eH
$unwind$z900_compare_logical_and_trap_long DD 010e01H
	DD	0c20eH
$unwind$z900_rotate_then_insert_selected_bits_long_reg_n DD 010e01H
	DD	0420eH
$unwind$z900_load_halfword_high_immediate_on_condition DD 010e01H
	DD	0820eH
$unwind$z900_load_halfword_immediate_on_condition DD 010e01H
	DD	0820eH
$unwind$z900_load_halfword_immediate_on_condition_grande DD 010e01H
	DD	0820eH
$unwind$z900_load_high_on_condition DD 010e01H
	DD	0a20eH
$unwind$z900_load_high_on_condition_register DD 010e01H
	DD	0820eH
$unwind$z900_store_high_on_condition DD 010e01H
	DD	0c20eH
$unwind$z900_load_and_zero_rightmost_byte_grande DD 010e01H
	DD	0a20eH
$unwind$z900_load_logical_and_zero_rightmost_byte DD 010e01H
	DD	0a20eH
$unwind$z900_load_and_zero_rightmost_byte DD 010e01H
	DD	0a20eH
$unwind$z900_multiply_long_register DD 010e01H
	DD	0820eH
$unwind$z900_multiply_long DD 010e01H
	DD	0a20eH
$unwind$z900_multiply_long_halfword DD 010e01H
	DD	0a20eH
$unwind$z900_select_register DD 010e01H
	DD	0820eH
$unwind$z900_select_register_long DD 010e01H
	DD	0820eH
$unwind$z900_select_fullword_high_register DD 010e01H
	DD	0820eH
$unwind$z900_perform_interlocked_storage_immediate DD 021101H
	DD	0110111H
$unwind$z900_perform_interlocked_long_storage_immediate DD 021101H
	DD	0130111H
$unwind$z900_rotate_then_xxx_selected_bits_long_reg DD 021101H
	DD	0150111H
$unwind$z900_load_and_perform_interlocked_access DD 021101H
	DD	0130111H
$unwind$z900_load_and_perform_interlocked_access_long DD 021101H
	DD	0150111H
xdata	ENDS
; Function compile flags: /Odtp
; File C:\papa\MyGit\hyperion-zvector\general3.c
_TEXT	SEGMENT
opcode$ = 48
disp2$1 = 52
cc$ = 56
b2$ = 60
tv172 = 64
temp$2 = 68
effective_addr2$ = 72
result$ = 80
v2$ = 88
tv92 = 96
tv175 = 100
tv178 = 104
tv181 = 108
v3$ = 112
r3$ = 120
rc$ = 124
r1$ = 128
m2$ = 136
new$ = 144
old$ = 152
inst$ = 176
regs$ = 184
z900_load_and_perform_interlocked_access_long PROC

; 2974 : {

$LN33:
  00000	48 89 54 24 10	 mov	 QWORD PTR [rsp+16], rdx
  00005	48 89 4c 24 08	 mov	 QWORD PTR [rsp+8], rcx
  0000a	48 81 ec a8 00
	00 00		 sub	 rsp, 168		; 000000a8H

; 2975 : int     r1, r3;                         /* Register numbers          */
; 2976 : int     b2;                             /* Base of effective addr    */
; 2977 : VADR    effective_addr2;                /* Effective address         */
; 2978 : BYTE    *m2;                            /* Mainstor address          */
; 2979 : U64     v2, v3;                         /* Operand values            */
; 2980 : U64     result;                         /* Result value              */
; 2981 : U64     old, new;                       /* Values for cmpxchg4       */
; 2982 : int     cc;                             /* Condition code            */
; 2983 : int     rc;                             /* Return code               */
; 2984 : BYTE    opcode;                         /* 2nd byte of opcode        */
; 2985 : 
; 2986 :     RSY(inst, regs, r1, r3, b2, effective_addr2);

  00011	48 8b 8c 24 b0
	00 00 00	 mov	 rcx, QWORD PTR inst$[rsp]
  00019	e8 00 00 00 00	 call	 fetch_fw_noswap
  0001e	8b c8		 mov	 ecx, eax
  00020	e8 00 00 00 00	 call	 _byteswap_ulong
  00025	89 44 24 44	 mov	 DWORD PTR temp$2[rsp], eax
  00029	48 c7 44 24 48
	00 00 00 00	 mov	 QWORD PTR effective_addr2$[rsp], 0
  00032	8b 44 24 44	 mov	 eax, DWORD PTR temp$2[rsp]
  00036	25 ff 0f 00 00	 and	 eax, 4095		; 00000fffH
  0003b	89 44 24 34	 mov	 DWORD PTR disp2$1[rsp], eax
  0003f	8b 44 24 44	 mov	 eax, DWORD PTR temp$2[rsp]
  00043	c1 e8 0c	 shr	 eax, 12
  00046	83 e0 0f	 and	 eax, 15
  00049	89 44 24 3c	 mov	 DWORD PTR b2$[rsp], eax
  0004d	8b 44 24 44	 mov	 eax, DWORD PTR temp$2[rsp]
  00051	c1 e8 10	 shr	 eax, 16
  00054	83 e0 0f	 and	 eax, 15
  00057	89 44 24 78	 mov	 DWORD PTR r3$[rsp], eax
  0005b	8b 44 24 44	 mov	 eax, DWORD PTR temp$2[rsp]
  0005f	c1 e8 14	 shr	 eax, 20
  00062	83 e0 0f	 and	 eax, 15
  00065	89 84 24 80 00
	00 00		 mov	 DWORD PTR r1$[rsp], eax
  0006c	83 7c 24 3c 00	 cmp	 DWORD PTR b2$[rsp], 0
  00071	74 25		 je	 SHORT $LN10@z900_load_
  00073	48 63 44 24 3c	 movsxd	 rax, DWORD PTR b2$[rsp]
  00078	48 8b 8c 24 b8
	00 00 00	 mov	 rcx, QWORD PTR regs$[rsp]
  00080	48 8b 84 c1 80
	02 00 00	 mov	 rax, QWORD PTR [rcx+rax*8+640]
  00088	48 8b 4c 24 48	 mov	 rcx, QWORD PTR effective_addr2$[rsp]
  0008d	48 03 c8	 add	 rcx, rax
  00090	48 8b c1	 mov	 rax, rcx
  00093	48 89 44 24 48	 mov	 QWORD PTR effective_addr2$[rsp], rax
$LN10@z900_load_:
  00098	b8 01 00 00 00	 mov	 eax, 1
  0009d	48 6b c0 04	 imul	 rax, rax, 4
  000a1	48 8b 8c 24 b0
	00 00 00	 mov	 rcx, QWORD PTR inst$[rsp]
  000a9	0f b6 04 01	 movzx	 eax, BYTE PTR [rcx+rax]
  000ad	85 c0		 test	 eax, eax
  000af	74 0a		 je	 SHORT $LN25@z900_load_
  000b1	c7 44 24 60 01
	00 00 00	 mov	 DWORD PTR tv92[rsp], 1
  000b9	eb 08		 jmp	 SHORT $LN26@z900_load_
$LN25@z900_load_:
  000bb	c7 44 24 60 00
	00 00 00	 mov	 DWORD PTR tv92[rsp], 0
$LN26@z900_load_:
  000c3	83 7c 24 60 00	 cmp	 DWORD PTR tv92[rsp], 0
  000c8	74 3e		 je	 SHORT $LN11@z900_load_
  000ca	b8 01 00 00 00	 mov	 eax, 1
  000cf	48 6b c0 04	 imul	 rax, rax, 4
  000d3	48 8b 8c 24 b0
	00 00 00	 mov	 rcx, QWORD PTR inst$[rsp]
  000db	0f b6 04 01	 movzx	 eax, BYTE PTR [rcx+rax]
  000df	c1 e0 0c	 shl	 eax, 12
  000e2	8b 4c 24 34	 mov	 ecx, DWORD PTR disp2$1[rsp]
  000e6	0b c8		 or	 ecx, eax
  000e8	8b c1		 mov	 eax, ecx
  000ea	89 44 24 34	 mov	 DWORD PTR disp2$1[rsp], eax
  000ee	8b 44 24 34	 mov	 eax, DWORD PTR disp2$1[rsp]
  000f2	25 00 00 08 00	 and	 eax, 524288		; 00080000H
  000f7	85 c0		 test	 eax, eax
  000f9	74 0d		 je	 SHORT $LN12@z900_load_
  000fb	8b 44 24 34	 mov	 eax, DWORD PTR disp2$1[rsp]
  000ff	0d 00 00 f0 ff	 or	 eax, -1048576		; fff00000H
  00104	89 44 24 34	 mov	 DWORD PTR disp2$1[rsp], eax
$LN12@z900_load_:
$LN11@z900_load_:
  00108	48 63 44 24 34	 movsxd	 rax, DWORD PTR disp2$1[rsp]
  0010d	48 8b 4c 24 48	 mov	 rcx, QWORD PTR effective_addr2$[rsp]
  00112	48 03 c8	 add	 rcx, rax
  00115	48 8b c1	 mov	 rax, rcx
  00118	48 89 44 24 48	 mov	 QWORD PTR effective_addr2$[rsp], rax
  0011d	33 c0		 xor	 eax, eax
  0011f	83 f8 06	 cmp	 eax, 6
  00122	74 1f		 je	 SHORT $LN13@z900_load_
  00124	48 8b 84 24 b8
	00 00 00	 mov	 rax, QWORD PTR regs$[rsp]
  0012c	48 8b 80 90 00
	00 00		 mov	 rax, QWORD PTR [rax+144]
  00133	48 8b 4c 24 48	 mov	 rcx, QWORD PTR effective_addr2$[rsp]
  00138	48 23 c8	 and	 rcx, rax
  0013b	48 8b c1	 mov	 rax, rcx
  0013e	48 89 44 24 48	 mov	 QWORD PTR effective_addr2$[rsp], rax
$LN13@z900_load_:
$LN4@z900_load_:
  00143	48 8b 84 24 b8
	00 00 00	 mov	 rax, QWORD PTR regs$[rsp]
  0014b	48 8b 40 68	 mov	 rax, QWORD PTR [rax+104]
  0014f	48 83 c0 06	 add	 rax, 6
  00153	48 8b 8c 24 b8
	00 00 00	 mov	 rcx, QWORD PTR regs$[rsp]
  0015b	48 89 41 68	 mov	 QWORD PTR [rcx+104], rax
  0015f	33 c0		 xor	 eax, eax
  00161	83 f8 06	 cmp	 eax, 6
  00164	74 0f		 je	 SHORT $LN14@z900_load_
  00166	48 8b 84 24 b8
	00 00 00	 mov	 rax, QWORD PTR regs$[rsp]
  0016e	c6 80 9a 00 00
	00 06		 mov	 BYTE PTR [rax+154], 6
$LN14@z900_load_:
  00175	33 c0		 xor	 eax, eax
  00177	85 c0		 test	 eax, eax
  00179	75 c8		 jne	 SHORT $LN4@z900_load_

; 2987 :     PER_ZEROADDR_XCHECK( regs, b2 );

  0017b	8b 54 24 3c	 mov	 edx, DWORD PTR b2$[rsp]
  0017f	48 8b 8c 24 b8
	00 00 00	 mov	 rcx, QWORD PTR regs$[rsp]
  00187	e8 00 00 00 00	 call	 z900_per3_zero_xcheck

; 2988 : 
; 2989 :     /* Program check if operand not on doubleword boundary */
; 2990 :     DW_CHECK( effective_addr2, regs );

  0018c	48 8b 44 24 48	 mov	 rax, QWORD PTR effective_addr2$[rsp]
  00191	48 83 e0 07	 and	 rax, 7
  00195	48 85 c0	 test	 rax, rax
  00198	74 1b		 je	 SHORT $LN15@z900_load_
  0019a	ba 06 00 00 00	 mov	 edx, 6
  0019f	48 8b 8c 24 b8
	00 00 00	 mov	 rcx, QWORD PTR regs$[rsp]
  001a7	48 8b 84 24 b8
	00 00 00	 mov	 rax, QWORD PTR regs$[rsp]
  001af	ff 90 20 0d 00
	00		 call	 QWORD PTR [rax+3360]
$LN15@z900_load_:

; 2991 : 
; 2992 :     /* Extract second byte of instruction opcode */
; 2993 :     opcode = inst[5];

  001b5	b8 01 00 00 00	 mov	 eax, 1
  001ba	48 6b c0 05	 imul	 rax, rax, 5
  001be	48 8b 8c 24 b0
	00 00 00	 mov	 rcx, QWORD PTR inst$[rsp]
  001c6	0f b6 04 01	 movzx	 eax, BYTE PTR [rcx+rax]
  001ca	88 44 24 30	 mov	 BYTE PTR opcode$[rsp], al

; 2994 : 
; 2995 :     /* Obtain third operand value from R3 register */
; 2996 :     v3 = regs->GR_G(r3);

  001ce	48 63 44 24 78	 movsxd	 rax, DWORD PTR r3$[rsp]
  001d3	48 8b 8c 24 b8
	00 00 00	 mov	 rcx, QWORD PTR regs$[rsp]
  001db	48 8b 84 c1 80
	02 00 00	 mov	 rax, QWORD PTR [rcx+rax*8+640]
  001e3	48 89 44 24 70	 mov	 QWORD PTR v3$[rsp], rax

; 2997 : 
; 2998 :     /* Get mainstor address of storage operand */
; 2999 :     m2 = MADDRL (effective_addr2, 8, b2, regs, ACCTYPE_WRITE, regs->psw.pkey);

  001e8	48 8b 84 24 b8
	00 00 00	 mov	 rax, QWORD PTR regs$[rsp]
  001f0	0f b6 40 79	 movzx	 eax, BYTE PTR [rax+121]
  001f4	88 44 24 28	 mov	 BYTE PTR [rsp+40], al
  001f8	c7 44 24 20 02
	00 00 00	 mov	 DWORD PTR [rsp+32], 2
  00200	4c 8b 8c 24 b8
	00 00 00	 mov	 r9, QWORD PTR regs$[rsp]
  00208	44 8b 44 24 3c	 mov	 r8d, DWORD PTR b2$[rsp]
  0020d	ba 08 00 00 00	 mov	 edx, 8
  00212	48 8b 4c 24 48	 mov	 rcx, QWORD PTR effective_addr2$[rsp]
  00217	e8 00 00 00 00	 call	 z900_maddr_l
  0021c	48 89 84 24 88
	00 00 00	 mov	 QWORD PTR m2$[rsp], rax
$LN7@z900_load_:

; 3000 : 
; 3001 :     do {
; 3002 :         /* Load storage operand value from operand address */
; 3003 :         v2 = ARCH_DEP(vfetch8) ( effective_addr2, b2, regs );

  00224	4c 8b 84 24 b8
	00 00 00	 mov	 r8, QWORD PTR regs$[rsp]
  0022c	8b 54 24 3c	 mov	 edx, DWORD PTR b2$[rsp]
  00230	48 8b 4c 24 48	 mov	 rcx, QWORD PTR effective_addr2$[rsp]
  00235	e8 00 00 00 00	 call	 z900_vfetch8
  0023a	48 89 44 24 58	 mov	 QWORD PTR v2$[rsp], rax

; 3004 : 
; 3005 :         switch (opcode) {

  0023f	0f b6 44 24 30	 movzx	 eax, BYTE PTR opcode$[rsp]
  00244	88 44 24 40	 mov	 BYTE PTR tv172[rsp], al
  00248	80 7c 24 40 e4	 cmp	 BYTE PTR tv172[rsp], 228 ; 000000e4H
  0024d	74 2d		 je	 SHORT $LN16@z900_load_
  0024f	80 7c 24 40 e6	 cmp	 BYTE PTR tv172[rsp], 230 ; 000000e6H
  00254	74 62		 je	 SHORT $LN17@z900_load_
  00256	80 7c 24 40 e7	 cmp	 BYTE PTR tv172[rsp], 231 ; 000000e7H
  0025b	0f 84 90 00 00
	00		 je	 $LN18@z900_load_
  00261	80 7c 24 40 e8	 cmp	 BYTE PTR tv172[rsp], 232 ; 000000e8H
  00266	0f 84 be 00 00
	00		 je	 $LN19@z900_load_
  0026c	80 7c 24 40 ea	 cmp	 BYTE PTR tv172[rsp], 234 ; 000000eaH
  00271	0f 84 cd 00 00
	00		 je	 $LN20@z900_load_
  00277	e9 e2 00 00 00	 jmp	 $LN21@z900_load_
$LN16@z900_load_:

; 3006 :         case 0xE4: /* Load and And Long */
; 3007 :             /* AND operand values and set condition code */
; 3008 :             result = v2 & v3;

  0027c	48 8b 44 24 70	 mov	 rax, QWORD PTR v3$[rsp]
  00281	48 8b 4c 24 58	 mov	 rcx, QWORD PTR v2$[rsp]
  00286	48 23 c8	 and	 rcx, rax
  00289	48 8b c1	 mov	 rax, rcx
  0028c	48 89 44 24 50	 mov	 QWORD PTR result$[rsp], rax

; 3009 :             cc = result ? 1 : 0;

  00291	48 83 7c 24 50
	00		 cmp	 QWORD PTR result$[rsp], 0
  00297	74 0a		 je	 SHORT $LN27@z900_load_
  00299	c7 44 24 64 01
	00 00 00	 mov	 DWORD PTR tv175[rsp], 1
  002a1	eb 08		 jmp	 SHORT $LN28@z900_load_
$LN27@z900_load_:
  002a3	c7 44 24 64 00
	00 00 00	 mov	 DWORD PTR tv175[rsp], 0
$LN28@z900_load_:
  002ab	8b 44 24 64	 mov	 eax, DWORD PTR tv175[rsp]
  002af	89 44 24 38	 mov	 DWORD PTR cc$[rsp], eax

; 3010 :             break;

  002b3	e9 b7 00 00 00	 jmp	 $LN8@z900_load_
$LN17@z900_load_:

; 3011 :         case 0xE6: /* Load and Or Long */
; 3012 :             /* OR operand values and set condition code */
; 3013 :             result = v2 | v3;

  002b8	48 8b 44 24 70	 mov	 rax, QWORD PTR v3$[rsp]
  002bd	48 8b 4c 24 58	 mov	 rcx, QWORD PTR v2$[rsp]
  002c2	48 0b c8	 or	 rcx, rax
  002c5	48 8b c1	 mov	 rax, rcx
  002c8	48 89 44 24 50	 mov	 QWORD PTR result$[rsp], rax

; 3014 :             cc = result ? 1 : 0;

  002cd	48 83 7c 24 50
	00		 cmp	 QWORD PTR result$[rsp], 0
  002d3	74 0a		 je	 SHORT $LN29@z900_load_
  002d5	c7 44 24 68 01
	00 00 00	 mov	 DWORD PTR tv178[rsp], 1
  002dd	eb 08		 jmp	 SHORT $LN30@z900_load_
$LN29@z900_load_:
  002df	c7 44 24 68 00
	00 00 00	 mov	 DWORD PTR tv178[rsp], 0
$LN30@z900_load_:
  002e7	8b 44 24 68	 mov	 eax, DWORD PTR tv178[rsp]
  002eb	89 44 24 38	 mov	 DWORD PTR cc$[rsp], eax

; 3015 :             break;

  002ef	eb 7e		 jmp	 SHORT $LN8@z900_load_
$LN18@z900_load_:

; 3016 :         case 0xE7: /* Load and Exclusive Or Long */
; 3017 :             /* XOR operand values and set condition code */
; 3018 :             result = v2 ^ v3;

  002f1	48 8b 44 24 70	 mov	 rax, QWORD PTR v3$[rsp]
  002f6	48 8b 4c 24 58	 mov	 rcx, QWORD PTR v2$[rsp]
  002fb	48 33 c8	 xor	 rcx, rax
  002fe	48 8b c1	 mov	 rax, rcx
  00301	48 89 44 24 50	 mov	 QWORD PTR result$[rsp], rax

; 3019 :             cc = result ? 1 : 0;

  00306	48 83 7c 24 50
	00		 cmp	 QWORD PTR result$[rsp], 0
  0030c	74 0a		 je	 SHORT $LN31@z900_load_
  0030e	c7 44 24 6c 01
	00 00 00	 mov	 DWORD PTR tv181[rsp], 1
  00316	eb 08		 jmp	 SHORT $LN32@z900_load_
$LN31@z900_load_:
  00318	c7 44 24 6c 00
	00 00 00	 mov	 DWORD PTR tv181[rsp], 0
$LN32@z900_load_:
  00320	8b 44 24 6c	 mov	 eax, DWORD PTR tv181[rsp]
  00324	89 44 24 38	 mov	 DWORD PTR cc$[rsp], eax

; 3020 :             break;

  00328	eb 45		 jmp	 SHORT $LN8@z900_load_
$LN19@z900_load_:

; 3021 :         case 0xE8: /* Load and Add Long */
; 3022 :             /* Add signed operands and set condition code */
; 3023 :             cc = add_signed_long (&result, v2, v3);

  0032a	4c 8b 44 24 70	 mov	 r8, QWORD PTR v3$[rsp]
  0032f	48 8b 54 24 58	 mov	 rdx, QWORD PTR v2$[rsp]
  00334	48 8d 4c 24 50	 lea	 rcx, QWORD PTR result$[rsp]
  00339	e8 00 00 00 00	 call	 add_signed_long
  0033e	89 44 24 38	 mov	 DWORD PTR cc$[rsp], eax

; 3024 :             break;

  00342	eb 2b		 jmp	 SHORT $LN8@z900_load_
$LN20@z900_load_:

; 3025 :         case 0xEA: /* Load and Add Logical Long */
; 3026 :             /* Add unsigned operands and set condition code */
; 3027 :             cc = add_logical_long (&result, v2, v3);

  00344	4c 8b 44 24 70	 mov	 r8, QWORD PTR v3$[rsp]
  00349	48 8b 54 24 58	 mov	 rdx, QWORD PTR v2$[rsp]
  0034e	48 8d 4c 24 50	 lea	 rcx, QWORD PTR result$[rsp]
  00353	e8 00 00 00 00	 call	 add_logical_long
  00358	89 44 24 38	 mov	 DWORD PTR cc$[rsp], eax

; 3028 :             break;

  0035c	eb 11		 jmp	 SHORT $LN8@z900_load_
$LN21@z900_load_:

; 3029 :         default: /* To prevent compiler warnings */
; 3030 :             result = 0;

  0035e	48 c7 44 24 50
	00 00 00 00	 mov	 QWORD PTR result$[rsp], 0

; 3031 :             cc = 0;

  00367	c7 44 24 38 00
	00 00 00	 mov	 DWORD PTR cc$[rsp], 0
$LN8@z900_load_:

; 3032 :         } /* end switch(opcode) */
; 3033 : 
; 3034 :         /* Interlocked exchange to storage location */
; 3035 :         old = CSWAP64(v2);

  0036f	48 8b 4c 24 58	 mov	 rcx, QWORD PTR v2$[rsp]
  00374	e8 00 00 00 00	 call	 _byteswap_uint64
  00379	48 89 84 24 98
	00 00 00	 mov	 QWORD PTR old$[rsp], rax

; 3036 :         new = CSWAP64(result);

  00381	48 8b 4c 24 50	 mov	 rcx, QWORD PTR result$[rsp]
  00386	e8 00 00 00 00	 call	 _byteswap_uint64
  0038b	48 89 84 24 90
	00 00 00	 mov	 QWORD PTR new$[rsp], rax

; 3037 : 
; 3038 :         /* MAINLOCK may be required if cmpxchg assists unavailable */
; 3039 :         OBTAIN_MAINLOCK( regs );
; 3040 :         {
; 3041 :             rc = cmpxchg8( &old, new, m2 );

  00393	4c 8b 84 24 88
	00 00 00	 mov	 r8, QWORD PTR m2$[rsp]
  0039b	48 8b 94 24 90
	00 00 00	 mov	 rdx, QWORD PTR new$[rsp]
  003a3	48 8d 8c 24 98
	00 00 00	 lea	 rcx, QWORD PTR old$[rsp]
  003ab	e8 00 00 00 00	 call	 cmpxchg8_x86
  003b0	0f b6 c0	 movzx	 eax, al
  003b3	89 44 24 7c	 mov	 DWORD PTR rc$[rsp], eax

; 3042 :         }
; 3043 :         RELEASE_MAINLOCK( regs );
; 3044 : 
; 3045 :     } while (rc != 0);

  003b7	83 7c 24 7c 00	 cmp	 DWORD PTR rc$[rsp], 0
  003bc	0f 85 62 fe ff
	ff		 jne	 $LN7@z900_load_

; 3046 : 
; 3047 :     /* Load original storage operand value into R1 register */
; 3048 :     regs->GR_G(r1) = v2;

  003c2	48 63 84 24 80
	00 00 00	 movsxd	 rax, DWORD PTR r1$[rsp]
  003ca	48 8b 8c 24 b8
	00 00 00	 mov	 rcx, QWORD PTR regs$[rsp]
  003d2	48 8b 54 24 58	 mov	 rdx, QWORD PTR v2$[rsp]
  003d7	48 89 94 c1 80
	02 00 00	 mov	 QWORD PTR [rcx+rax*8+640], rdx

; 3049 : 
; 3050 :     /* Set condition code in PSW */
; 3051 :     regs->psw.cc = cc;

  003df	48 8b 84 24 b8
	00 00 00	 mov	 rax, QWORD PTR regs$[rsp]
  003e7	0f b6 4c 24 38	 movzx	 ecx, BYTE PTR cc$[rsp]
  003ec	88 48 7c	 mov	 BYTE PTR [rax+124], cl

; 3052 : 
; 3053 : } /* end DEF_INST(load_and_perform_interlocked_access_long) */

  003ef	48 81 c4 a8 00
	00 00		 add	 rsp, 168		; 000000a8H
  003f6	c3		 ret	 0
z900_load_and_perform_interlocked_access_long ENDP
_TEXT	ENDS
; Function compile flags: /Odtp
; File C:\papa\MyGit\hyperion-zvector\general3.c
_TEXT	SEGMENT
result$ = 48
opcode$ = 52
v2$ = 56
disp2$1 = 60
cc$ = 64
b2$ = 68
tv172 = 72
v3$ = 76
temp$2 = 80
effective_addr2$ = 88
tv92 = 96
tv175 = 100
tv178 = 104
tv181 = 108
r3$ = 112
new$ = 116
old$ = 120
rc$ = 124
r1$ = 128
m2$ = 136
inst$ = 160
regs$ = 168
z900_load_and_perform_interlocked_access PROC

; 2882 : {

$LN33:
  00000	48 89 54 24 10	 mov	 QWORD PTR [rsp+16], rdx
  00005	48 89 4c 24 08	 mov	 QWORD PTR [rsp+8], rcx
  0000a	48 81 ec 98 00
	00 00		 sub	 rsp, 152		; 00000098H

; 2883 : int     r1, r3;                         /* Register numbers          */
; 2884 : int     b2;                             /* Base of effective addr    */
; 2885 : VADR    effective_addr2;                /* Effective address         */
; 2886 : BYTE    *m2;                            /* Mainstor address          */
; 2887 : U32     v2, v3;                         /* Operand values            */
; 2888 : U32     result;                         /* Result value              */
; 2889 : U32     old, new;                       /* Values for cmpxchg4       */
; 2890 : int     cc;                             /* Condition code            */
; 2891 : int     rc;                             /* Return code               */
; 2892 : BYTE    opcode;                         /* 2nd byte of opcode        */
; 2893 : 
; 2894 :     RSY(inst, regs, r1, r3, b2, effective_addr2);

  00011	48 8b 8c 24 a0
	00 00 00	 mov	 rcx, QWORD PTR inst$[rsp]
  00019	e8 00 00 00 00	 call	 fetch_fw_noswap
  0001e	8b c8		 mov	 ecx, eax
  00020	e8 00 00 00 00	 call	 _byteswap_ulong
  00025	89 44 24 50	 mov	 DWORD PTR temp$2[rsp], eax
  00029	48 c7 44 24 58
	00 00 00 00	 mov	 QWORD PTR effective_addr2$[rsp], 0
  00032	8b 44 24 50	 mov	 eax, DWORD PTR temp$2[rsp]
  00036	25 ff 0f 00 00	 and	 eax, 4095		; 00000fffH
  0003b	89 44 24 3c	 mov	 DWORD PTR disp2$1[rsp], eax
  0003f	8b 44 24 50	 mov	 eax, DWORD PTR temp$2[rsp]
  00043	c1 e8 0c	 shr	 eax, 12
  00046	83 e0 0f	 and	 eax, 15
  00049	89 44 24 44	 mov	 DWORD PTR b2$[rsp], eax
  0004d	8b 44 24 50	 mov	 eax, DWORD PTR temp$2[rsp]
  00051	c1 e8 10	 shr	 eax, 16
  00054	83 e0 0f	 and	 eax, 15
  00057	89 44 24 70	 mov	 DWORD PTR r3$[rsp], eax
  0005b	8b 44 24 50	 mov	 eax, DWORD PTR temp$2[rsp]
  0005f	c1 e8 14	 shr	 eax, 20
  00062	83 e0 0f	 and	 eax, 15
  00065	89 84 24 80 00
	00 00		 mov	 DWORD PTR r1$[rsp], eax
  0006c	83 7c 24 44 00	 cmp	 DWORD PTR b2$[rsp], 0
  00071	74 25		 je	 SHORT $LN10@z900_load_
  00073	48 63 44 24 44	 movsxd	 rax, DWORD PTR b2$[rsp]
  00078	48 8b 8c 24 a8
	00 00 00	 mov	 rcx, QWORD PTR regs$[rsp]
  00080	48 8b 84 c1 80
	02 00 00	 mov	 rax, QWORD PTR [rcx+rax*8+640]
  00088	48 8b 4c 24 58	 mov	 rcx, QWORD PTR effective_addr2$[rsp]
  0008d	48 03 c8	 add	 rcx, rax
  00090	48 8b c1	 mov	 rax, rcx
  00093	48 89 44 24 58	 mov	 QWORD PTR effective_addr2$[rsp], rax
$LN10@z900_load_:
  00098	b8 01 00 00 00	 mov	 eax, 1
  0009d	48 6b c0 04	 imul	 rax, rax, 4
  000a1	48 8b 8c 24 a0
	00 00 00	 mov	 rcx, QWORD PTR inst$[rsp]
  000a9	0f b6 04 01	 movzx	 eax, BYTE PTR [rcx+rax]
  000ad	85 c0		 test	 eax, eax
  000af	74 0a		 je	 SHORT $LN25@z900_load_
  000b1	c7 44 24 60 01
	00 00 00	 mov	 DWORD PTR tv92[rsp], 1
  000b9	eb 08		 jmp	 SHORT $LN26@z900_load_
$LN25@z900_load_:
  000bb	c7 44 24 60 00
	00 00 00	 mov	 DWORD PTR tv92[rsp], 0
$LN26@z900_load_:
  000c3	83 7c 24 60 00	 cmp	 DWORD PTR tv92[rsp], 0
  000c8	74 3e		 je	 SHORT $LN11@z900_load_
  000ca	b8 01 00 00 00	 mov	 eax, 1
  000cf	48 6b c0 04	 imul	 rax, rax, 4
  000d3	48 8b 8c 24 a0
	00 00 00	 mov	 rcx, QWORD PTR inst$[rsp]
  000db	0f b6 04 01	 movzx	 eax, BYTE PTR [rcx+rax]
  000df	c1 e0 0c	 shl	 eax, 12
  000e2	8b 4c 24 3c	 mov	 ecx, DWORD PTR disp2$1[rsp]
  000e6	0b c8		 or	 ecx, eax
  000e8	8b c1		 mov	 eax, ecx
  000ea	89 44 24 3c	 mov	 DWORD PTR disp2$1[rsp], eax
  000ee	8b 44 24 3c	 mov	 eax, DWORD PTR disp2$1[rsp]
  000f2	25 00 00 08 00	 and	 eax, 524288		; 00080000H
  000f7	85 c0		 test	 eax, eax
  000f9	74 0d		 je	 SHORT $LN12@z900_load_
  000fb	8b 44 24 3c	 mov	 eax, DWORD PTR disp2$1[rsp]
  000ff	0d 00 00 f0 ff	 or	 eax, -1048576		; fff00000H
  00104	89 44 24 3c	 mov	 DWORD PTR disp2$1[rsp], eax
$LN12@z900_load_:
$LN11@z900_load_:
  00108	48 63 44 24 3c	 movsxd	 rax, DWORD PTR disp2$1[rsp]
  0010d	48 8b 4c 24 58	 mov	 rcx, QWORD PTR effective_addr2$[rsp]
  00112	48 03 c8	 add	 rcx, rax
  00115	48 8b c1	 mov	 rax, rcx
  00118	48 89 44 24 58	 mov	 QWORD PTR effective_addr2$[rsp], rax
  0011d	33 c0		 xor	 eax, eax
  0011f	83 f8 06	 cmp	 eax, 6
  00122	74 1f		 je	 SHORT $LN13@z900_load_
  00124	48 8b 84 24 a8
	00 00 00	 mov	 rax, QWORD PTR regs$[rsp]
  0012c	48 8b 80 90 00
	00 00		 mov	 rax, QWORD PTR [rax+144]
  00133	48 8b 4c 24 58	 mov	 rcx, QWORD PTR effective_addr2$[rsp]
  00138	48 23 c8	 and	 rcx, rax
  0013b	48 8b c1	 mov	 rax, rcx
  0013e	48 89 44 24 58	 mov	 QWORD PTR effective_addr2$[rsp], rax
$LN13@z900_load_:
$LN4@z900_load_:
  00143	48 8b 84 24 a8
	00 00 00	 mov	 rax, QWORD PTR regs$[rsp]
  0014b	48 8b 40 68	 mov	 rax, QWORD PTR [rax+104]
  0014f	48 83 c0 06	 add	 rax, 6
  00153	48 8b 8c 24 a8
	00 00 00	 mov	 rcx, QWORD PTR regs$[rsp]
  0015b	48 89 41 68	 mov	 QWORD PTR [rcx+104], rax
  0015f	33 c0		 xor	 eax, eax
  00161	83 f8 06	 cmp	 eax, 6
  00164	74 0f		 je	 SHORT $LN14@z900_load_
  00166	48 8b 84 24 a8
	00 00 00	 mov	 rax, QWORD PTR regs$[rsp]
  0016e	c6 80 9a 00 00
	00 06		 mov	 BYTE PTR [rax+154], 6
$LN14@z900_load_:
  00175	33 c0		 xor	 eax, eax
  00177	85 c0		 test	 eax, eax
  00179	75 c8		 jne	 SHORT $LN4@z900_load_

; 2895 :     PER_ZEROADDR_XCHECK( regs, b2 );

  0017b	8b 54 24 44	 mov	 edx, DWORD PTR b2$[rsp]
  0017f	48 8b 8c 24 a8
	00 00 00	 mov	 rcx, QWORD PTR regs$[rsp]
  00187	e8 00 00 00 00	 call	 z900_per3_zero_xcheck

; 2896 : 
; 2897 :     /* Program check if operand not on fullword boundary */
; 2898 :     FW_CHECK( effective_addr2, regs );

  0018c	48 8b 44 24 58	 mov	 rax, QWORD PTR effective_addr2$[rsp]
  00191	48 83 e0 03	 and	 rax, 3
  00195	48 85 c0	 test	 rax, rax
  00198	74 1b		 je	 SHORT $LN15@z900_load_
  0019a	ba 06 00 00 00	 mov	 edx, 6
  0019f	48 8b 8c 24 a8
	00 00 00	 mov	 rcx, QWORD PTR regs$[rsp]
  001a7	48 8b 84 24 a8
	00 00 00	 mov	 rax, QWORD PTR regs$[rsp]
  001af	ff 90 20 0d 00
	00		 call	 QWORD PTR [rax+3360]
$LN15@z900_load_:

; 2899 : 
; 2900 :     /* Extract second byte of instruction opcode */
; 2901 :     opcode = inst[5];

  001b5	b8 01 00 00 00	 mov	 eax, 1
  001ba	48 6b c0 05	 imul	 rax, rax, 5
  001be	48 8b 8c 24 a0
	00 00 00	 mov	 rcx, QWORD PTR inst$[rsp]
  001c6	0f b6 04 01	 movzx	 eax, BYTE PTR [rcx+rax]
  001ca	88 44 24 34	 mov	 BYTE PTR opcode$[rsp], al

; 2902 : 
; 2903 :     /* Obtain third operand value from R3 register */
; 2904 :     v3 = regs->GR_L(r3);

  001ce	48 63 44 24 70	 movsxd	 rax, DWORD PTR r3$[rsp]
  001d3	48 8b 8c 24 a8
	00 00 00	 mov	 rcx, QWORD PTR regs$[rsp]
  001db	8b 84 c1 80 02
	00 00		 mov	 eax, DWORD PTR [rcx+rax*8+640]
  001e2	89 44 24 4c	 mov	 DWORD PTR v3$[rsp], eax

; 2905 : 
; 2906 :     /* Get mainstor address of storage operand */
; 2907 :     m2 = MADDRL (effective_addr2, 4, b2, regs, ACCTYPE_WRITE, regs->psw.pkey);

  001e6	48 8b 84 24 a8
	00 00 00	 mov	 rax, QWORD PTR regs$[rsp]
  001ee	0f b6 40 79	 movzx	 eax, BYTE PTR [rax+121]
  001f2	88 44 24 28	 mov	 BYTE PTR [rsp+40], al
  001f6	c7 44 24 20 02
	00 00 00	 mov	 DWORD PTR [rsp+32], 2
  001fe	4c 8b 8c 24 a8
	00 00 00	 mov	 r9, QWORD PTR regs$[rsp]
  00206	44 8b 44 24 44	 mov	 r8d, DWORD PTR b2$[rsp]
  0020b	ba 04 00 00 00	 mov	 edx, 4
  00210	48 8b 4c 24 58	 mov	 rcx, QWORD PTR effective_addr2$[rsp]
  00215	e8 00 00 00 00	 call	 z900_maddr_l
  0021a	48 89 84 24 88
	00 00 00	 mov	 QWORD PTR m2$[rsp], rax
$LN7@z900_load_:

; 2908 : 
; 2909 :     do {
; 2910 :         /* Load storage operand value from operand address */
; 2911 :         v2 = ARCH_DEP(vfetch4) ( effective_addr2, b2, regs );

  00222	4c 8b 84 24 a8
	00 00 00	 mov	 r8, QWORD PTR regs$[rsp]
  0022a	8b 54 24 44	 mov	 edx, DWORD PTR b2$[rsp]
  0022e	48 8b 4c 24 58	 mov	 rcx, QWORD PTR effective_addr2$[rsp]
  00233	e8 00 00 00 00	 call	 z900_vfetch4
  00238	89 44 24 38	 mov	 DWORD PTR v2$[rsp], eax

; 2912 : 
; 2913 :         switch (opcode) {

  0023c	0f b6 44 24 34	 movzx	 eax, BYTE PTR opcode$[rsp]
  00241	88 44 24 48	 mov	 BYTE PTR tv172[rsp], al
  00245	80 7c 24 48 f4	 cmp	 BYTE PTR tv172[rsp], 244 ; 000000f4H
  0024a	74 2d		 je	 SHORT $LN16@z900_load_
  0024c	80 7c 24 48 f6	 cmp	 BYTE PTR tv172[rsp], 246 ; 000000f6H
  00251	74 5c		 je	 SHORT $LN17@z900_load_
  00253	80 7c 24 48 f7	 cmp	 BYTE PTR tv172[rsp], 247 ; 000000f7H
  00258	0f 84 84 00 00
	00		 je	 $LN18@z900_load_
  0025e	80 7c 24 48 f8	 cmp	 BYTE PTR tv172[rsp], 248 ; 000000f8H
  00263	0f 84 ac 00 00
	00		 je	 $LN19@z900_load_
  00269	80 7c 24 48 fa	 cmp	 BYTE PTR tv172[rsp], 250 ; 000000faH
  0026e	0f 84 ba 00 00
	00		 je	 $LN20@z900_load_
  00274	e9 ce 00 00 00	 jmp	 $LN21@z900_load_
$LN16@z900_load_:

; 2914 :         case 0xF4: /* Load and And */
; 2915 :             /* AND operand values and set condition code */
; 2916 :             result = v2 & v3;

  00279	8b 44 24 4c	 mov	 eax, DWORD PTR v3$[rsp]
  0027d	8b 4c 24 38	 mov	 ecx, DWORD PTR v2$[rsp]
  00281	23 c8		 and	 ecx, eax
  00283	8b c1		 mov	 eax, ecx
  00285	89 44 24 30	 mov	 DWORD PTR result$[rsp], eax

; 2917 :             cc = result ? 1 : 0;

  00289	83 7c 24 30 00	 cmp	 DWORD PTR result$[rsp], 0
  0028e	74 0a		 je	 SHORT $LN27@z900_load_
  00290	c7 44 24 64 01
	00 00 00	 mov	 DWORD PTR tv175[rsp], 1
  00298	eb 08		 jmp	 SHORT $LN28@z900_load_
$LN27@z900_load_:
  0029a	c7 44 24 64 00
	00 00 00	 mov	 DWORD PTR tv175[rsp], 0
$LN28@z900_load_:
  002a2	8b 44 24 64	 mov	 eax, DWORD PTR tv175[rsp]
  002a6	89 44 24 40	 mov	 DWORD PTR cc$[rsp], eax

; 2918 :             break;

  002aa	e9 a8 00 00 00	 jmp	 $LN8@z900_load_
$LN17@z900_load_:

; 2919 :         case 0xF6: /* Load and Or */
; 2920 :             /* OR operand values and set condition code */
; 2921 :             result = v2 | v3;

  002af	8b 44 24 4c	 mov	 eax, DWORD PTR v3$[rsp]
  002b3	8b 4c 24 38	 mov	 ecx, DWORD PTR v2$[rsp]
  002b7	0b c8		 or	 ecx, eax
  002b9	8b c1		 mov	 eax, ecx
  002bb	89 44 24 30	 mov	 DWORD PTR result$[rsp], eax

; 2922 :             cc = result ? 1 : 0;

  002bf	83 7c 24 30 00	 cmp	 DWORD PTR result$[rsp], 0
  002c4	74 0a		 je	 SHORT $LN29@z900_load_
  002c6	c7 44 24 68 01
	00 00 00	 mov	 DWORD PTR tv178[rsp], 1
  002ce	eb 08		 jmp	 SHORT $LN30@z900_load_
$LN29@z900_load_:
  002d0	c7 44 24 68 00
	00 00 00	 mov	 DWORD PTR tv178[rsp], 0
$LN30@z900_load_:
  002d8	8b 44 24 68	 mov	 eax, DWORD PTR tv178[rsp]
  002dc	89 44 24 40	 mov	 DWORD PTR cc$[rsp], eax

; 2923 :             break;

  002e0	eb 75		 jmp	 SHORT $LN8@z900_load_
$LN18@z900_load_:

; 2924 :         case 0xF7: /* Load and Exclusive Or */
; 2925 :             /* XOR operand values and set condition code */
; 2926 :             result = v2 ^ v3;

  002e2	8b 44 24 4c	 mov	 eax, DWORD PTR v3$[rsp]
  002e6	8b 4c 24 38	 mov	 ecx, DWORD PTR v2$[rsp]
  002ea	33 c8		 xor	 ecx, eax
  002ec	8b c1		 mov	 eax, ecx
  002ee	89 44 24 30	 mov	 DWORD PTR result$[rsp], eax

; 2927 :             cc = result ? 1 : 0;

  002f2	83 7c 24 30 00	 cmp	 DWORD PTR result$[rsp], 0
  002f7	74 0a		 je	 SHORT $LN31@z900_load_
  002f9	c7 44 24 6c 01
	00 00 00	 mov	 DWORD PTR tv181[rsp], 1
  00301	eb 08		 jmp	 SHORT $LN32@z900_load_
$LN31@z900_load_:
  00303	c7 44 24 6c 00
	00 00 00	 mov	 DWORD PTR tv181[rsp], 0
$LN32@z900_load_:
  0030b	8b 44 24 6c	 mov	 eax, DWORD PTR tv181[rsp]
  0030f	89 44 24 40	 mov	 DWORD PTR cc$[rsp], eax

; 2928 :             break;

  00313	eb 42		 jmp	 SHORT $LN8@z900_load_
$LN19@z900_load_:

; 2929 :         case 0xF8: /* Load and Add */
; 2930 :             /* Add signed operands and set condition code */
; 2931 :             cc = add_signed (&result, v2, v3);

  00315	44 8b 44 24 4c	 mov	 r8d, DWORD PTR v3$[rsp]
  0031a	8b 54 24 38	 mov	 edx, DWORD PTR v2$[rsp]
  0031e	48 8d 4c 24 30	 lea	 rcx, QWORD PTR result$[rsp]
  00323	e8 00 00 00 00	 call	 add_signed
  00328	89 44 24 40	 mov	 DWORD PTR cc$[rsp], eax

; 2932 :             break;

  0032c	eb 29		 jmp	 SHORT $LN8@z900_load_
$LN20@z900_load_:

; 2933 :         case 0xFA: /* Load and Add Logical */
; 2934 :             /* Add unsigned operands and set condition code */
; 2935 :             cc = add_logical (&result, v2, v3);

  0032e	44 8b 44 24 4c	 mov	 r8d, DWORD PTR v3$[rsp]
  00333	8b 54 24 38	 mov	 edx, DWORD PTR v2$[rsp]
  00337	48 8d 4c 24 30	 lea	 rcx, QWORD PTR result$[rsp]
  0033c	e8 00 00 00 00	 call	 add_logical
  00341	89 44 24 40	 mov	 DWORD PTR cc$[rsp], eax

; 2936 :             break;

  00345	eb 10		 jmp	 SHORT $LN8@z900_load_
$LN21@z900_load_:

; 2937 :         default: /* To prevent compiler warnings */
; 2938 :             result = 0;

  00347	c7 44 24 30 00
	00 00 00	 mov	 DWORD PTR result$[rsp], 0

; 2939 :             cc = 0;

  0034f	c7 44 24 40 00
	00 00 00	 mov	 DWORD PTR cc$[rsp], 0
$LN8@z900_load_:

; 2940 :         } /* end switch(opcode) */
; 2941 : 
; 2942 :         /* Interlocked exchange to storage location */
; 2943 :         old = CSWAP32(v2);

  00357	8b 4c 24 38	 mov	 ecx, DWORD PTR v2$[rsp]
  0035b	e8 00 00 00 00	 call	 _byteswap_ulong
  00360	89 44 24 78	 mov	 DWORD PTR old$[rsp], eax

; 2944 :         new = CSWAP32(result);

  00364	8b 4c 24 30	 mov	 ecx, DWORD PTR result$[rsp]
  00368	e8 00 00 00 00	 call	 _byteswap_ulong
  0036d	89 44 24 74	 mov	 DWORD PTR new$[rsp], eax

; 2945 : 
; 2946 :         /* MAINLOCK may be required if cmpxchg assists unavailable */
; 2947 :         OBTAIN_MAINLOCK( regs );
; 2948 :         {
; 2949 :             rc = cmpxchg4( &old, new, m2 );

  00371	4c 8b 84 24 88
	00 00 00	 mov	 r8, QWORD PTR m2$[rsp]
  00379	8b 54 24 74	 mov	 edx, DWORD PTR new$[rsp]
  0037d	48 8d 4c 24 78	 lea	 rcx, QWORD PTR old$[rsp]
  00382	e8 00 00 00 00	 call	 cmpxchg4_x86
  00387	0f b6 c0	 movzx	 eax, al
  0038a	89 44 24 7c	 mov	 DWORD PTR rc$[rsp], eax

; 2950 :         }
; 2951 :         RELEASE_MAINLOCK( regs );
; 2952 : 
; 2953 :     } while (rc != 0);

  0038e	83 7c 24 7c 00	 cmp	 DWORD PTR rc$[rsp], 0
  00393	0f 85 89 fe ff
	ff		 jne	 $LN7@z900_load_

; 2954 : 
; 2955 :     /* Load original storage operand value into R1 register */
; 2956 :     regs->GR_L(r1) = v2;

  00399	48 63 84 24 80
	00 00 00	 movsxd	 rax, DWORD PTR r1$[rsp]
  003a1	48 8b 8c 24 a8
	00 00 00	 mov	 rcx, QWORD PTR regs$[rsp]
  003a9	8b 54 24 38	 mov	 edx, DWORD PTR v2$[rsp]
  003ad	89 94 c1 80 02
	00 00		 mov	 DWORD PTR [rcx+rax*8+640], edx

; 2957 : 
; 2958 :     /* Set condition code in PSW */
; 2959 :     regs->psw.cc = cc;

  003b4	48 8b 84 24 a8
	00 00 00	 mov	 rax, QWORD PTR regs$[rsp]
  003bc	0f b6 4c 24 40	 movzx	 ecx, BYTE PTR cc$[rsp]
  003c1	88 48 7c	 mov	 BYTE PTR [rax+124], cl

; 2960 : 
; 2961 : } /* end DEF_INST(load_and_perform_interlocked_access) */

  003c4	48 81 c4 98 00
	00 00		 add	 rsp, 152		; 00000098H
  003cb	c3		 ret	 0
z900_load_and_perform_interlocked_access ENDP
_TEXT	ENDS
; Function compile flags: /Odtp
; File C:\papa\MyGit\hyperion-zvector\general3.c
_TEXT	SEGMENT
opcode$ = 32
i4$ = 33
i3$ = 34
end$ = 36
start$ = 40
mask$ = 48
r1$ = 56
i5$ = 60
resu$ = 64
temp$1 = 72
tv191 = 76
n$ = 80
rota$ = 88
r2$ = 96
tv203 = 100
t_bit$ = 104
z_bit$ = 108
tv258 = 112
tv259 = 116
tv159 = 120
tv331 = 128
tv345 = 136
p$2 = 144
inst$ = 176
regs$ = 184
z900_rotate_then_xxx_selected_bits_long_reg PROC

; 2062 : {

$LN44:
  00000	48 89 54 24 10	 mov	 QWORD PTR [rsp+16], rdx
  00005	48 89 4c 24 08	 mov	 QWORD PTR [rsp+8], rcx
  0000a	48 81 ec a8 00
	00 00		 sub	 rsp, 168		; 000000a8H

; 2063 : int     r1, r2;                         /* Register numbers          */
; 2064 : int     start, end;                     /* Start and end bit number  */
; 2065 : U64     mask, rota, resu;               /* 64-bit work areas         */
; 2066 : int     n;                              /* Number of bits to shift   */
; 2067 : int     t_bit = 0;                      /* Test-results indicator    */

  00011	c7 44 24 68 00
	00 00 00	 mov	 DWORD PTR t_bit$[rsp], 0

; 2068 : int     z_bit = 0;                      /* Zero-remaining indicator  */

  00019	c7 44 24 6c 00
	00 00 00	 mov	 DWORD PTR z_bit$[rsp], 0

; 2069 : BYTE    i3, i4, i5;                     /* Immediate values          */
; 2070 : BYTE    opcode;                         /* 2nd byte of opcode        */
; 2071 : 
; 2072 :     RIE_RRIII( inst, regs, r1, r2, i3, i4, i5 );

  00021	b8 01 00 00 00	 mov	 eax, 1
  00026	48 6b c0 01	 imul	 rax, rax, 1
  0002a	48 8b 8c 24 b0
	00 00 00	 mov	 rcx, QWORD PTR inst$[rsp]
  00032	48 03 c8	 add	 rcx, rax
  00035	48 8b c1	 mov	 rax, rcx
  00038	48 8b c8	 mov	 rcx, rax
  0003b	e8 00 00 00 00	 call	 fetch_fw_noswap
  00040	8b c8		 mov	 ecx, eax
  00042	e8 00 00 00 00	 call	 _byteswap_ulong
  00047	89 44 24 48	 mov	 DWORD PTR temp$1[rsp], eax
  0004b	8b 44 24 48	 mov	 eax, DWORD PTR temp$1[rsp]
  0004f	25 ff 00 00 00	 and	 eax, 255		; 000000ffH
  00054	88 44 24 3c	 mov	 BYTE PTR i5$[rsp], al
  00058	8b 44 24 48	 mov	 eax, DWORD PTR temp$1[rsp]
  0005c	c1 e8 08	 shr	 eax, 8
  0005f	25 ff 00 00 00	 and	 eax, 255		; 000000ffH
  00064	88 44 24 21	 mov	 BYTE PTR i4$[rsp], al
  00068	8b 44 24 48	 mov	 eax, DWORD PTR temp$1[rsp]
  0006c	c1 e8 10	 shr	 eax, 16
  0006f	25 ff 00 00 00	 and	 eax, 255		; 000000ffH
  00074	88 44 24 22	 mov	 BYTE PTR i3$[rsp], al
  00078	8b 44 24 48	 mov	 eax, DWORD PTR temp$1[rsp]
  0007c	c1 e8 18	 shr	 eax, 24
  0007f	83 e0 0f	 and	 eax, 15
  00082	89 44 24 60	 mov	 DWORD PTR r2$[rsp], eax
  00086	8b 44 24 48	 mov	 eax, DWORD PTR temp$1[rsp]
  0008a	c1 e8 1c	 shr	 eax, 28
  0008d	83 e0 0f	 and	 eax, 15
  00090	89 44 24 38	 mov	 DWORD PTR r1$[rsp], eax
$LN4@z900_rotat:
  00094	48 8b 84 24 b8
	00 00 00	 mov	 rax, QWORD PTR regs$[rsp]
  0009c	48 8b 40 68	 mov	 rax, QWORD PTR [rax+104]
  000a0	48 83 c0 06	 add	 rax, 6
  000a4	48 8b 8c 24 b8
	00 00 00	 mov	 rcx, QWORD PTR regs$[rsp]
  000ac	48 89 41 68	 mov	 QWORD PTR [rcx+104], rax
  000b0	33 c0		 xor	 eax, eax
  000b2	83 f8 06	 cmp	 eax, 6
  000b5	74 0f		 je	 SHORT $LN10@z900_rotat
  000b7	48 8b 84 24 b8
	00 00 00	 mov	 rax, QWORD PTR regs$[rsp]
  000bf	c6 80 9a 00 00
	00 06		 mov	 BYTE PTR [rax+154], 6
$LN10@z900_rotat:
  000c6	33 c0		 xor	 eax, eax
  000c8	85 c0		 test	 eax, eax
  000ca	75 c8		 jne	 SHORT $LN4@z900_rotat

; 2073 : 
; 2074 :     /* Extract second byte of instruction opcode */
; 2075 :     opcode = inst[5];

  000cc	b8 01 00 00 00	 mov	 eax, 1
  000d1	48 6b c0 05	 imul	 rax, rax, 5
  000d5	48 8b 8c 24 b0
	00 00 00	 mov	 rcx, QWORD PTR inst$[rsp]
  000dd	0f b6 04 01	 movzx	 eax, BYTE PTR [rcx+rax]
  000e1	88 44 24 20	 mov	 BYTE PTR opcode$[rsp], al

; 2076 : 
; 2077 :     /* Extract parameters from immediate fields */
; 2078 :     start = i3 & 0x3F;

  000e5	0f b6 44 24 22	 movzx	 eax, BYTE PTR i3$[rsp]
  000ea	83 e0 3f	 and	 eax, 63			; 0000003fH
  000ed	89 44 24 28	 mov	 DWORD PTR start$[rsp], eax

; 2079 :     end   = i4 & 0x3F;

  000f1	0f b6 44 24 21	 movzx	 eax, BYTE PTR i4$[rsp]
  000f6	83 e0 3f	 and	 eax, 63			; 0000003fH
  000f9	89 44 24 24	 mov	 DWORD PTR end$[rsp], eax

; 2080 : 
; 2081 :     n = i5 & 0x3F;

  000fd	0f b6 44 24 3c	 movzx	 eax, BYTE PTR i5$[rsp]
  00102	83 e0 3f	 and	 eax, 63			; 0000003fH
  00105	89 44 24 50	 mov	 DWORD PTR n$[rsp], eax

; 2082 : 
; 2083 :     if ((opcode & 0xFC) == 0x50 /*Low*/ ) {

  00109	0f b6 44 24 20	 movzx	 eax, BYTE PTR opcode$[rsp]
  0010e	25 fc 00 00 00	 and	 eax, 252		; 000000fcH
  00113	83 f8 50	 cmp	 eax, 80			; 00000050H
  00116	75 16		 jne	 SHORT $LN11@z900_rotat

; 2084 :         start |= 0x20;

  00118	8b 44 24 28	 mov	 eax, DWORD PTR start$[rsp]
  0011c	83 c8 20	 or	 eax, 32			; 00000020H
  0011f	89 44 24 28	 mov	 DWORD PTR start$[rsp], eax

; 2085 :         end   |= 0x20;

  00123	8b 44 24 24	 mov	 eax, DWORD PTR end$[rsp]
  00127	83 c8 20	 or	 eax, 32			; 00000020H
  0012a	89 44 24 24	 mov	 DWORD PTR end$[rsp], eax
$LN11@z900_rotat:

; 2086 :     }
; 2087 :     if ((opcode & 0xFC) == 0x5C /*High*/ ) {

  0012e	0f b6 44 24 20	 movzx	 eax, BYTE PTR opcode$[rsp]
  00133	25 fc 00 00 00	 and	 eax, 252		; 000000fcH
  00138	83 f8 5c	 cmp	 eax, 92			; 0000005cH
  0013b	75 16		 jne	 SHORT $LN12@z900_rotat

; 2088 :         start &= 0x1F;

  0013d	8b 44 24 28	 mov	 eax, DWORD PTR start$[rsp]
  00141	83 e0 1f	 and	 eax, 31
  00144	89 44 24 28	 mov	 DWORD PTR start$[rsp], eax

; 2089 :         end   &= 0x1F;

  00148	8b 44 24 24	 mov	 eax, DWORD PTR end$[rsp]
  0014c	83 e0 1f	 and	 eax, 31
  0014f	89 44 24 24	 mov	 DWORD PTR end$[rsp], eax
$LN12@z900_rotat:

; 2090 :     }
; 2091 :     if ((opcode & 0x03) == 0x01 /*Insert*/ )

  00153	0f b6 44 24 20	 movzx	 eax, BYTE PTR opcode$[rsp]
  00158	83 e0 03	 and	 eax, 3
  0015b	83 f8 01	 cmp	 eax, 1
  0015e	75 0e		 jne	 SHORT $LN13@z900_rotat

; 2092 :         z_bit = i4 >> 7;

  00160	0f b6 44 24 21	 movzx	 eax, BYTE PTR i4$[rsp]
  00165	c1 f8 07	 sar	 eax, 7
  00168	89 44 24 6c	 mov	 DWORD PTR z_bit$[rsp], eax
  0016c	eb 0c		 jmp	 SHORT $LN14@z900_rotat
$LN13@z900_rotat:

; 2093 :     else
; 2094 :         t_bit = i3 >> 7;

  0016e	0f b6 44 24 22	 movzx	 eax, BYTE PTR i3$[rsp]
  00173	c1 f8 07	 sar	 eax, 7
  00176	89 44 24 68	 mov	 DWORD PTR t_bit$[rsp], eax
$LN14@z900_rotat:

; 2095 : 
; 2096 :     /* Copy value from R2 register and rotate left n bits */
; 2097 :     rota = (regs->GR_G( r2 ) << n)

  0017a	83 7c 24 50 00	 cmp	 DWORD PTR n$[rsp], 0
  0017f	75 0b		 jne	 SHORT $LN35@z900_rotat
  00181	48 c7 44 24 78
	00 00 00 00	 mov	 QWORD PTR tv159[rsp], 0
  0018a	eb 26		 jmp	 SHORT $LN36@z900_rotat
$LN35@z900_rotat:
  0018c	48 63 44 24 60	 movsxd	 rax, DWORD PTR r2$[rsp]
  00191	b9 40 00 00 00	 mov	 ecx, 64			; 00000040H
  00196	2b 4c 24 50	 sub	 ecx, DWORD PTR n$[rsp]
  0019a	48 8b 94 24 b8
	00 00 00	 mov	 rdx, QWORD PTR regs$[rsp]
  001a2	48 8b 84 c2 80
	02 00 00	 mov	 rax, QWORD PTR [rdx+rax*8+640]
  001aa	48 d3 e8	 shr	 rax, cl
  001ad	48 89 44 24 78	 mov	 QWORD PTR tv159[rsp], rax
$LN36@z900_rotat:
  001b2	48 63 44 24 60	 movsxd	 rax, DWORD PTR r2$[rsp]
  001b7	8b 4c 24 50	 mov	 ecx, DWORD PTR n$[rsp]
  001bb	48 8b 94 24 b8
	00 00 00	 mov	 rdx, QWORD PTR regs$[rsp]
  001c3	48 8b 84 c2 80
	02 00 00	 mov	 rax, QWORD PTR [rdx+rax*8+640]
  001cb	48 d3 e0	 shl	 rax, cl
  001ce	48 0b 44 24 78	 or	 rax, QWORD PTR tv159[rsp]
  001d3	48 89 44 24 58	 mov	 QWORD PTR rota$[rsp], rax

; 2098 :             | ((n == 0) ? 0 : (regs->GR_G( r2 ) >> (64 - n)));
; 2099 : 
; 2100 : #if 0 // (old way; TEMPORARILY retained for reference)
; 2101 : 
; 2102 :     /* Construct mask for selected bits */
; 2103 :     {
; 2104 :         int i;
; 2105 : 
; 2106 :         for (i=0, mask=0; i < 64; i++)
; 2107 :         {
; 2108 :             mask <<= 1;
; 2109 :             if (start <= end) {
; 2110 :                 if (i >= start && i <= end) mask |= 1;
; 2111 :             } else {
; 2112 :                 if (i <= end || i >= start) mask |= 1;
; 2113 :             }
; 2114 :         }
; 2115 :     }
; 2116 : 
; 2117 : #else // (Ivan Warren performance enhancement)
; 2118 : 
; 2119 :     /* Construct mask for selected bits */
; 2120 :     if (start <= end)

  001d8	8b 44 24 24	 mov	 eax, DWORD PTR end$[rsp]
  001dc	39 44 24 28	 cmp	 DWORD PTR start$[rsp], eax
  001e0	7f 76		 jg	 SHORT $LN15@z900_rotat

; 2121 :     {
; 2122 :         // (clear high-order bits)
; 2123 :         mask   = 0xffffffffffffffffll << start;

  001e2	8b 44 24 28	 mov	 eax, DWORD PTR start$[rsp]
  001e6	48 c7 c1 ff ff
	ff ff		 mov	 rcx, -1
  001ed	48 89 8c 24 80
	00 00 00	 mov	 QWORD PTR tv331[rsp], rcx
  001f5	0f b6 c8	 movzx	 ecx, al
  001f8	48 8b 84 24 80
	00 00 00	 mov	 rax, QWORD PTR tv331[rsp]
  00200	48 d3 e0	 shl	 rax, cl
  00203	48 89 44 24 30	 mov	 QWORD PTR mask$[rsp], rax

; 2124 :         mask >>=                         start;

  00208	48 63 44 24 28	 movsxd	 rax, DWORD PTR start$[rsp]
  0020d	0f b6 c8	 movzx	 ecx, al
  00210	48 8b 44 24 30	 mov	 rax, QWORD PTR mask$[rsp]
  00215	48 d3 e8	 shr	 rax, cl
  00218	48 89 44 24 30	 mov	 QWORD PTR mask$[rsp], rax

; 2125 : 
; 2126 :         // (clear low-order bits)
; 2127 :         mask >>= (63 - end);

  0021d	b8 3f 00 00 00	 mov	 eax, 63			; 0000003fH
  00222	2b 44 24 24	 sub	 eax, DWORD PTR end$[rsp]
  00226	48 98		 cdqe
  00228	0f b6 c8	 movzx	 ecx, al
  0022b	48 8b 44 24 30	 mov	 rax, QWORD PTR mask$[rsp]
  00230	48 d3 e8	 shr	 rax, cl
  00233	48 89 44 24 30	 mov	 QWORD PTR mask$[rsp], rax

; 2128 :         mask <<= (63 - end);

  00238	b8 3f 00 00 00	 mov	 eax, 63			; 0000003fH
  0023d	2b 44 24 24	 sub	 eax, DWORD PTR end$[rsp]
  00241	48 98		 cdqe
  00243	0f b6 c8	 movzx	 ecx, al
  00246	48 8b 44 24 30	 mov	 rax, QWORD PTR mask$[rsp]
  0024b	48 d3 e0	 shl	 rax, cl
  0024e	48 89 44 24 30	 mov	 QWORD PTR mask$[rsp], rax

; 2129 :     }

  00253	e9 84 00 00 00	 jmp	 $LN16@z900_rotat
$LN15@z900_rotat:

; 2130 :     else // (start > end)
; 2131 :     {
; 2132 :         // (clear high-order bits)
; 2133 :         mask   = 0xffffffffffffffffll << (end + 1);

  00258	8b 44 24 24	 mov	 eax, DWORD PTR end$[rsp]
  0025c	ff c0		 inc	 eax
  0025e	48 c7 c1 ff ff
	ff ff		 mov	 rcx, -1
  00265	48 89 8c 24 88
	00 00 00	 mov	 QWORD PTR tv345[rsp], rcx
  0026d	0f b6 c8	 movzx	 ecx, al
  00270	48 8b 84 24 88
	00 00 00	 mov	 rax, QWORD PTR tv345[rsp]
  00278	48 d3 e0	 shl	 rax, cl
  0027b	48 89 44 24 30	 mov	 QWORD PTR mask$[rsp], rax

; 2134 :         mask >>=                         (end + 1);

  00280	8b 44 24 24	 mov	 eax, DWORD PTR end$[rsp]
  00284	ff c0		 inc	 eax
  00286	48 98		 cdqe
  00288	0f b6 c8	 movzx	 ecx, al
  0028b	48 8b 44 24 30	 mov	 rax, QWORD PTR mask$[rsp]
  00290	48 d3 e8	 shr	 rax, cl
  00293	48 89 44 24 30	 mov	 QWORD PTR mask$[rsp], rax

; 2135 : 
; 2136 :         // (clear low-order bits)
; 2137 :         mask >>= (64 - start);

  00298	b8 40 00 00 00	 mov	 eax, 64			; 00000040H
  0029d	2b 44 24 28	 sub	 eax, DWORD PTR start$[rsp]
  002a1	48 98		 cdqe
  002a3	0f b6 c8	 movzx	 ecx, al
  002a6	48 8b 44 24 30	 mov	 rax, QWORD PTR mask$[rsp]
  002ab	48 d3 e8	 shr	 rax, cl
  002ae	48 89 44 24 30	 mov	 QWORD PTR mask$[rsp], rax

; 2138 :         mask <<= (64 - start);

  002b3	b8 40 00 00 00	 mov	 eax, 64			; 00000040H
  002b8	2b 44 24 28	 sub	 eax, DWORD PTR start$[rsp]
  002bc	48 98		 cdqe
  002be	0f b6 c8	 movzx	 ecx, al
  002c1	48 8b 44 24 30	 mov	 rax, QWORD PTR mask$[rsp]
  002c6	48 d3 e0	 shl	 rax, cl
  002c9	48 89 44 24 30	 mov	 QWORD PTR mask$[rsp], rax

; 2139 : 
; 2140 :         // (invert mask to select opposite bits)
; 2141 :         mask ^= 0xffffffffffffffffll;

  002ce	48 8b 44 24 30	 mov	 rax, QWORD PTR mask$[rsp]
  002d3	48 83 f0 ff	 xor	 rax, -1
  002d7	48 89 44 24 30	 mov	 QWORD PTR mask$[rsp], rax
$LN16@z900_rotat:

; 2142 :     }
; 2143 : 
; 2144 : #endif
; 2145 : 
; 2146 :     /* Isolate selected bits of rotated second operand */
; 2147 :     rota &= mask;

  002dc	48 8b 44 24 30	 mov	 rax, QWORD PTR mask$[rsp]
  002e1	48 8b 4c 24 58	 mov	 rcx, QWORD PTR rota$[rsp]
  002e6	48 23 c8	 and	 rcx, rax
  002e9	48 8b c1	 mov	 rax, rcx
  002ec	48 89 44 24 58	 mov	 QWORD PTR rota$[rsp], rax

; 2148 : 
; 2149 :     /* Isolate selected bits of first operand */
; 2150 :     resu = regs->GR_G( r1 ) & mask;

  002f1	48 63 44 24 38	 movsxd	 rax, DWORD PTR r1$[rsp]
  002f6	48 8b 8c 24 b8
	00 00 00	 mov	 rcx, QWORD PTR regs$[rsp]
  002fe	48 8b 54 24 30	 mov	 rdx, QWORD PTR mask$[rsp]
  00303	48 8b 84 c1 80
	02 00 00	 mov	 rax, QWORD PTR [rcx+rax*8+640]
  0030b	48 23 c2	 and	 rax, rdx
  0030e	48 89 44 24 40	 mov	 QWORD PTR resu$[rsp], rax

; 2151 : 
; 2152 :     /* Perform operation on selected bits */
; 2153 :     switch (opcode)

  00313	0f b6 44 24 20	 movzx	 eax, BYTE PTR opcode$[rsp]
  00318	89 44 24 4c	 mov	 DWORD PTR tv191[rsp], eax
  0031c	8b 44 24 4c	 mov	 eax, DWORD PTR tv191[rsp]
  00320	83 e8 51	 sub	 eax, 81			; 00000051H
  00323	89 44 24 4c	 mov	 DWORD PTR tv191[rsp], eax
  00327	83 7c 24 4c 0c	 cmp	 DWORD PTR tv191[rsp], 12
  0032c	77 69		 ja	 SHORT $LN24@z900_rotat
  0032e	48 63 44 24 4c	 movsxd	 rax, DWORD PTR tv191[rsp]
  00333	48 8d 0d 00 00
	00 00		 lea	 rcx, OFFSET FLAT:__ImageBase
  0033a	8b 84 81 00 00
	00 00		 mov	 eax, DWORD PTR $LN43@z900_rotat[rcx+rax*4]
  00341	48 03 c1	 add	 rax, rcx
  00344	ff e0		 jmp	 rax
$LN17@z900_rotat:

; 2154 :     {
; 2155 :     case 0x54:  /* And */
; 2156 :         resu &= rota;

  00346	48 8b 44 24 58	 mov	 rax, QWORD PTR rota$[rsp]
  0034b	48 8b 4c 24 40	 mov	 rcx, QWORD PTR resu$[rsp]
  00350	48 23 c8	 and	 rcx, rax
  00353	48 8b c1	 mov	 rax, rcx
  00356	48 89 44 24 40	 mov	 QWORD PTR resu$[rsp], rax

; 2157 :         break;

  0035b	eb 57		 jmp	 SHORT $LN5@z900_rotat
$LN18@z900_rotat:
$LN19@z900_rotat:
$LN20@z900_rotat:
$LN21@z900_rotat:

; 2158 :     case 0x51:  /* Insert Low            */
; 2159 :     case 0x55:  /* Insert                */
; 2160 :     case 0x5D:  /* Insert High           */
; 2161 :     case 0x59:  /* Insert - no CC change */
; 2162 :         resu = rota;

  0035d	48 8b 44 24 58	 mov	 rax, QWORD PTR rota$[rsp]
  00362	48 89 44 24 40	 mov	 QWORD PTR resu$[rsp], rax

; 2163 :         break;

  00367	eb 4b		 jmp	 SHORT $LN5@z900_rotat
$LN22@z900_rotat:

; 2164 :     case 0x56:  /* Or */
; 2165 :         resu |= rota;

  00369	48 8b 44 24 58	 mov	 rax, QWORD PTR rota$[rsp]
  0036e	48 8b 4c 24 40	 mov	 rcx, QWORD PTR resu$[rsp]
  00373	48 0b c8	 or	 rcx, rax
  00376	48 8b c1	 mov	 rax, rcx
  00379	48 89 44 24 40	 mov	 QWORD PTR resu$[rsp], rax

; 2166 :         break;

  0037e	eb 34		 jmp	 SHORT $LN5@z900_rotat
$LN23@z900_rotat:

; 2167 :     case 0x57:  /* Exclusive Or */
; 2168 :         resu ^= rota;

  00380	48 8b 44 24 58	 mov	 rax, QWORD PTR rota$[rsp]
  00385	48 8b 4c 24 40	 mov	 rcx, QWORD PTR resu$[rsp]
  0038a	48 33 c8	 xor	 rcx, rax
  0038d	48 8b c1	 mov	 rax, rcx
  00390	48 89 44 24 40	 mov	 QWORD PTR resu$[rsp], rax

; 2169 :         break;

  00395	eb 1d		 jmp	 SHORT $LN5@z900_rotat
$LN24@z900_rotat:
$LN9@z900_rotat:

; 2170 :     default:    /* Should not EVER occur! */
; 2171 :         CRASH();

  00397	48 c7 84 24 90
	00 00 00 00 00
	00 00		 mov	 QWORD PTR p$2[rsp], 0
  003a3	48 8b 84 24 90
	00 00 00	 mov	 rax, QWORD PTR p$2[rsp]
  003ab	c6 00 00	 mov	 BYTE PTR [rax], 0
  003ae	33 c0		 xor	 eax, eax
  003b0	85 c0		 test	 eax, eax
  003b2	75 e3		 jne	 SHORT $LN9@z900_rotat
$LN5@z900_rotat:

; 2172 :     }
; 2173 : 
; 2174 :     /* And/Or/Xor set condition code according to result bits */
; 2175 :     if ((opcode & 0x03) != 0x01 /*Insert*/ )

  003b4	0f b6 44 24 20	 movzx	 eax, BYTE PTR opcode$[rsp]
  003b9	83 e0 03	 and	 eax, 3
  003bc	83 f8 01	 cmp	 eax, 1
  003bf	74 2a		 je	 SHORT $LN25@z900_rotat

; 2176 :         regs->psw.cc = (resu == 0) ? 0 : 1;

  003c1	48 83 7c 24 40
	00		 cmp	 QWORD PTR resu$[rsp], 0
  003c7	75 0a		 jne	 SHORT $LN37@z900_rotat
  003c9	c7 44 24 64 00
	00 00 00	 mov	 DWORD PTR tv203[rsp], 0
  003d1	eb 08		 jmp	 SHORT $LN38@z900_rotat
$LN37@z900_rotat:
  003d3	c7 44 24 64 01
	00 00 00	 mov	 DWORD PTR tv203[rsp], 1
$LN38@z900_rotat:
  003db	48 8b 84 24 b8
	00 00 00	 mov	 rax, QWORD PTR regs$[rsp]
  003e3	0f b6 4c 24 64	 movzx	 ecx, BYTE PTR tv203[rsp]
  003e8	88 48 7c	 mov	 BYTE PTR [rax+124], cl
$LN25@z900_rotat:

; 2177 : 
; 2178 :     /* Insert result bits into R1 register */
; 2179 :     if (t_bit == 0)

  003eb	83 7c 24 68 00	 cmp	 DWORD PTR t_bit$[rsp], 0
  003f0	0f 85 b4 00 00
	00		 jne	 $LN26@z900_rotat

; 2180 :     {
; 2181 :         if (z_bit == 0)

  003f6	83 7c 24 6c 00	 cmp	 DWORD PTR z_bit$[rsp], 0
  003fb	75 3c		 jne	 SHORT $LN27@z900_rotat

; 2182 :         {
; 2183 :             regs->GR_G( r1 ) = (regs->GR_G( r1 ) & ~mask) | resu;

  003fd	48 63 44 24 38	 movsxd	 rax, DWORD PTR r1$[rsp]
  00402	48 8b 4c 24 30	 mov	 rcx, QWORD PTR mask$[rsp]
  00407	48 f7 d1	 not	 rcx
  0040a	48 8b 94 24 b8
	00 00 00	 mov	 rdx, QWORD PTR regs$[rsp]
  00412	48 8b 84 c2 80
	02 00 00	 mov	 rax, QWORD PTR [rdx+rax*8+640]
  0041a	48 23 c1	 and	 rax, rcx
  0041d	48 0b 44 24 40	 or	 rax, QWORD PTR resu$[rsp]
  00422	48 63 4c 24 38	 movsxd	 rcx, DWORD PTR r1$[rsp]
  00427	48 8b 94 24 b8
	00 00 00	 mov	 rdx, QWORD PTR regs$[rsp]
  0042f	48 89 84 ca 80
	02 00 00	 mov	 QWORD PTR [rdx+rcx*8+640], rax

; 2184 :         }

  00437	eb 71		 jmp	 SHORT $LN28@z900_rotat
$LN27@z900_rotat:

; 2185 :         else if ((opcode & 0xFC) == 0x50 /*Low*/ )

  00439	0f b6 44 24 20	 movzx	 eax, BYTE PTR opcode$[rsp]
  0043e	25 fc 00 00 00	 and	 eax, 252		; 000000fcH
  00443	83 f8 50	 cmp	 eax, 80			; 00000050H
  00446	75 1a		 jne	 SHORT $LN29@z900_rotat

; 2186 :         {
; 2187 :             regs->GR_L( r1 ) = (U32) resu;

  00448	48 63 44 24 38	 movsxd	 rax, DWORD PTR r1$[rsp]
  0044d	48 8b 8c 24 b8
	00 00 00	 mov	 rcx, QWORD PTR regs$[rsp]
  00455	8b 54 24 40	 mov	 edx, DWORD PTR resu$[rsp]
  00459	89 94 c1 80 02
	00 00		 mov	 DWORD PTR [rcx+rax*8+640], edx

; 2188 :         }

  00460	eb 48		 jmp	 SHORT $LN30@z900_rotat
$LN29@z900_rotat:

; 2189 :         else if ((opcode & 0xFC) == 0x5C /*High*/ )

  00462	0f b6 44 24 20	 movzx	 eax, BYTE PTR opcode$[rsp]
  00467	25 fc 00 00 00	 and	 eax, 252		; 000000fcH
  0046c	83 f8 5c	 cmp	 eax, 92			; 0000005cH
  0046f	75 1f		 jne	 SHORT $LN31@z900_rotat

; 2190 :         {
; 2191 :             regs->GR_H( r1 ) = (U32) (resu >> 32);

  00471	48 8b 44 24 40	 mov	 rax, QWORD PTR resu$[rsp]
  00476	48 c1 e8 20	 shr	 rax, 32			; 00000020H
  0047a	48 63 4c 24 38	 movsxd	 rcx, DWORD PTR r1$[rsp]
  0047f	48 8b 94 24 b8
	00 00 00	 mov	 rdx, QWORD PTR regs$[rsp]
  00487	89 84 ca 84 02
	00 00		 mov	 DWORD PTR [rdx+rcx*8+644], eax

; 2192 :         }

  0048e	eb 1a		 jmp	 SHORT $LN32@z900_rotat
$LN31@z900_rotat:

; 2193 :         else
; 2194 :             regs->GR_G( r1 ) = resu;

  00490	48 63 44 24 38	 movsxd	 rax, DWORD PTR r1$[rsp]
  00495	48 8b 8c 24 b8
	00 00 00	 mov	 rcx, QWORD PTR regs$[rsp]
  0049d	48 8b 54 24 40	 mov	 rdx, QWORD PTR resu$[rsp]
  004a2	48 89 94 c1 80
	02 00 00	 mov	 QWORD PTR [rcx+rax*8+640], rdx
$LN32@z900_rotat:
$LN30@z900_rotat:
$LN28@z900_rotat:
$LN26@z900_rotat:

; 2195 :     }
; 2196 : 
; 2197 :     /* For RISBHG, RISBLG the condition code remains unchanged.
; 2198 :        For RISBGN the condition code remains unchanged.
; 2199 :        For RISBG set condition code according to signed result.
; 2200 :     */
; 2201 :     if (opcode == 0x55) // (RISBG?)

  004aa	0f b6 44 24 20	 movzx	 eax, BYTE PTR opcode$[rsp]
  004af	83 f8 55	 cmp	 eax, 85			; 00000055H
  004b2	75 64		 jne	 SHORT $LN33@z900_rotat

; 2202 :         regs->psw.cc =

  004b4	48 63 44 24 38	 movsxd	 rax, DWORD PTR r1$[rsp]
  004b9	48 8b 8c 24 b8
	00 00 00	 mov	 rcx, QWORD PTR regs$[rsp]
  004c1	48 83 bc c1 80
	02 00 00 00	 cmp	 QWORD PTR [rcx+rax*8+640], 0
  004ca	7d 0a		 jge	 SHORT $LN41@z900_rotat
  004cc	c7 44 24 74 01
	00 00 00	 mov	 DWORD PTR tv259[rsp], 1
  004d4	eb 32		 jmp	 SHORT $LN42@z900_rotat
$LN41@z900_rotat:
  004d6	48 63 44 24 38	 movsxd	 rax, DWORD PTR r1$[rsp]
  004db	48 8b 8c 24 b8
	00 00 00	 mov	 rcx, QWORD PTR regs$[rsp]
  004e3	48 83 bc c1 80
	02 00 00 00	 cmp	 QWORD PTR [rcx+rax*8+640], 0
  004ec	7e 0a		 jle	 SHORT $LN39@z900_rotat
  004ee	c7 44 24 70 02
	00 00 00	 mov	 DWORD PTR tv258[rsp], 2
  004f6	eb 08		 jmp	 SHORT $LN40@z900_rotat
$LN39@z900_rotat:
  004f8	c7 44 24 70 00
	00 00 00	 mov	 DWORD PTR tv258[rsp], 0
$LN40@z900_rotat:
  00500	8b 44 24 70	 mov	 eax, DWORD PTR tv258[rsp]
  00504	89 44 24 74	 mov	 DWORD PTR tv259[rsp], eax
$LN42@z900_rotat:
  00508	48 8b 84 24 b8
	00 00 00	 mov	 rax, QWORD PTR regs$[rsp]
  00510	0f b6 4c 24 74	 movzx	 ecx, BYTE PTR tv259[rsp]
  00515	88 48 7c	 mov	 BYTE PTR [rax+124], cl
$LN33@z900_rotat:

; 2203 :                 (((S64) regs->GR_G( r1 )) < 0) ? 1 :
; 2204 :                 (((S64) regs->GR_G( r1 )) > 0) ? 2 : 0;
; 2205 : 
; 2206 : } /* end DEF_INST( rotate_then_xxx_selected_bits_long_reg ) */

  00518	48 81 c4 a8 00
	00 00		 add	 rsp, 168		; 000000a8H
  0051f	c3		 ret	 0
$LN43@z900_rotat:
  00520	00 00 00 00	 DD	 $LN18@z900_rotat
  00524	00 00 00 00	 DD	 $LN24@z900_rotat
  00528	00 00 00 00	 DD	 $LN24@z900_rotat
  0052c	00 00 00 00	 DD	 $LN17@z900_rotat
  00530	00 00 00 00	 DD	 $LN19@z900_rotat
  00534	00 00 00 00	 DD	 $LN22@z900_rotat
  00538	00 00 00 00	 DD	 $LN23@z900_rotat
  0053c	00 00 00 00	 DD	 $LN24@z900_rotat
  00540	00 00 00 00	 DD	 $LN21@z900_rotat
  00544	00 00 00 00	 DD	 $LN24@z900_rotat
  00548	00 00 00 00	 DD	 $LN24@z900_rotat
  0054c	00 00 00 00	 DD	 $LN24@z900_rotat
  00550	00 00 00 00	 DD	 $LN20@z900_rotat
z900_rotate_then_xxx_selected_bits_long_reg ENDP
_TEXT	ENDS
; Function compile flags: /Odtp
; File C:\papa\MyGit\hyperion-zvector\general3.c
_TEXT	SEGMENT
i2$ = 48
opcode$ = 49
disp$1 = 52
b1$ = 56
effective_addr1$ = 64
temp$2 = 72
cc$ = 76
tv91 = 80
tv160 = 84
tv180 = 88
result$ = 96
n$ = 104
rc$ = 112
m1$ = 120
new$ = 128
old$ = 136
inst$ = 160
regs$ = 168
z900_perform_interlocked_long_storage_immediate PROC

; 113  : {

$LN25:
  00000	48 89 54 24 10	 mov	 QWORD PTR [rsp+16], rdx
  00005	48 89 4c 24 08	 mov	 QWORD PTR [rsp+8], rcx
  0000a	48 81 ec 98 00
	00 00		 sub	 rsp, 152		; 00000098H

; 114  : BYTE    opcode;                         /* 2nd byte of opcode        */
; 115  : BYTE    i2;                             /* Immediate byte            */
; 116  : int     b1;                             /* Base of effective addr    */
; 117  : VADR    effective_addr1;                /* Effective address         */
; 118  : BYTE    *m1;                            /* Mainstor address          */
; 119  : U64     n;                              /* 64-bit operand value      */
; 120  : U64     result;                         /* Result value              */
; 121  : U64     old, new;                       /* Values for cmpxchg4       */
; 122  : int     cc;                             /* Condition code            */
; 123  : int     rc;                             /* Return code               */
; 124  : 
; 125  :     SIY(inst, regs, i2, b1, effective_addr1);

  00011	48 8b 8c 24 a0
	00 00 00	 mov	 rcx, QWORD PTR inst$[rsp]
  00019	e8 00 00 00 00	 call	 fetch_fw_noswap
  0001e	8b c8		 mov	 ecx, eax
  00020	e8 00 00 00 00	 call	 _byteswap_ulong
  00025	89 44 24 48	 mov	 DWORD PTR temp$2[rsp], eax
  00029	48 c7 44 24 40
	00 00 00 00	 mov	 QWORD PTR effective_addr1$[rsp], 0
  00032	8b 44 24 48	 mov	 eax, DWORD PTR temp$2[rsp]
  00036	25 ff 0f 00 00	 and	 eax, 4095		; 00000fffH
  0003b	89 44 24 34	 mov	 DWORD PTR disp$1[rsp], eax
  0003f	8b 44 24 48	 mov	 eax, DWORD PTR temp$2[rsp]
  00043	c1 e8 0c	 shr	 eax, 12
  00046	83 e0 0f	 and	 eax, 15
  00049	89 44 24 38	 mov	 DWORD PTR b1$[rsp], eax
  0004d	8b 44 24 48	 mov	 eax, DWORD PTR temp$2[rsp]
  00051	c1 e8 10	 shr	 eax, 16
  00054	25 ff 00 00 00	 and	 eax, 255		; 000000ffH
  00059	88 44 24 30	 mov	 BYTE PTR i2$[rsp], al
  0005d	83 7c 24 38 00	 cmp	 DWORD PTR b1$[rsp], 0
  00062	74 25		 je	 SHORT $LN10@z900_perfo
  00064	48 63 44 24 38	 movsxd	 rax, DWORD PTR b1$[rsp]
  00069	48 8b 8c 24 a8
	00 00 00	 mov	 rcx, QWORD PTR regs$[rsp]
  00071	48 8b 84 c1 80
	02 00 00	 mov	 rax, QWORD PTR [rcx+rax*8+640]
  00079	48 8b 4c 24 40	 mov	 rcx, QWORD PTR effective_addr1$[rsp]
  0007e	48 03 c8	 add	 rcx, rax
  00081	48 8b c1	 mov	 rax, rcx
  00084	48 89 44 24 40	 mov	 QWORD PTR effective_addr1$[rsp], rax
$LN10@z900_perfo:
  00089	b8 01 00 00 00	 mov	 eax, 1
  0008e	48 6b c0 04	 imul	 rax, rax, 4
  00092	48 8b 8c 24 a0
	00 00 00	 mov	 rcx, QWORD PTR inst$[rsp]
  0009a	0f b6 04 01	 movzx	 eax, BYTE PTR [rcx+rax]
  0009e	85 c0		 test	 eax, eax
  000a0	74 0a		 je	 SHORT $LN21@z900_perfo
  000a2	c7 44 24 50 01
	00 00 00	 mov	 DWORD PTR tv91[rsp], 1
  000aa	eb 08		 jmp	 SHORT $LN22@z900_perfo
$LN21@z900_perfo:
  000ac	c7 44 24 50 00
	00 00 00	 mov	 DWORD PTR tv91[rsp], 0
$LN22@z900_perfo:
  000b4	83 7c 24 50 00	 cmp	 DWORD PTR tv91[rsp], 0
  000b9	74 3e		 je	 SHORT $LN11@z900_perfo
  000bb	b8 01 00 00 00	 mov	 eax, 1
  000c0	48 6b c0 04	 imul	 rax, rax, 4
  000c4	48 8b 8c 24 a0
	00 00 00	 mov	 rcx, QWORD PTR inst$[rsp]
  000cc	0f b6 04 01	 movzx	 eax, BYTE PTR [rcx+rax]
  000d0	c1 e0 0c	 shl	 eax, 12
  000d3	8b 4c 24 34	 mov	 ecx, DWORD PTR disp$1[rsp]
  000d7	0b c8		 or	 ecx, eax
  000d9	8b c1		 mov	 eax, ecx
  000db	89 44 24 34	 mov	 DWORD PTR disp$1[rsp], eax
  000df	8b 44 24 34	 mov	 eax, DWORD PTR disp$1[rsp]
  000e3	25 00 00 08 00	 and	 eax, 524288		; 00080000H
  000e8	85 c0		 test	 eax, eax
  000ea	74 0d		 je	 SHORT $LN12@z900_perfo
  000ec	8b 44 24 34	 mov	 eax, DWORD PTR disp$1[rsp]
  000f0	0d 00 00 f0 ff	 or	 eax, -1048576		; fff00000H
  000f5	89 44 24 34	 mov	 DWORD PTR disp$1[rsp], eax
$LN12@z900_perfo:
$LN11@z900_perfo:
  000f9	48 63 44 24 34	 movsxd	 rax, DWORD PTR disp$1[rsp]
  000fe	48 8b 4c 24 40	 mov	 rcx, QWORD PTR effective_addr1$[rsp]
  00103	48 03 c8	 add	 rcx, rax
  00106	48 8b c1	 mov	 rax, rcx
  00109	48 89 44 24 40	 mov	 QWORD PTR effective_addr1$[rsp], rax
  0010e	48 8b 84 24 a8
	00 00 00	 mov	 rax, QWORD PTR regs$[rsp]
  00116	48 8b 80 90 00
	00 00		 mov	 rax, QWORD PTR [rax+144]
  0011d	48 8b 4c 24 40	 mov	 rcx, QWORD PTR effective_addr1$[rsp]
  00122	48 23 c8	 and	 rcx, rax
  00125	48 8b c1	 mov	 rax, rcx
  00128	48 89 44 24 40	 mov	 QWORD PTR effective_addr1$[rsp], rax
$LN4@z900_perfo:
  0012d	48 8b 84 24 a8
	00 00 00	 mov	 rax, QWORD PTR regs$[rsp]
  00135	48 8b 40 68	 mov	 rax, QWORD PTR [rax+104]
  00139	48 83 c0 06	 add	 rax, 6
  0013d	48 8b 8c 24 a8
	00 00 00	 mov	 rcx, QWORD PTR regs$[rsp]
  00145	48 89 41 68	 mov	 QWORD PTR [rcx+104], rax
  00149	33 c0		 xor	 eax, eax
  0014b	83 f8 06	 cmp	 eax, 6
  0014e	74 0f		 je	 SHORT $LN13@z900_perfo
  00150	48 8b 84 24 a8
	00 00 00	 mov	 rax, QWORD PTR regs$[rsp]
  00158	c6 80 9a 00 00
	00 06		 mov	 BYTE PTR [rax+154], 6
$LN13@z900_perfo:
  0015f	33 c0		 xor	 eax, eax
  00161	85 c0		 test	 eax, eax
  00163	75 c8		 jne	 SHORT $LN4@z900_perfo

; 126  :     PER_ZEROADDR_XCHECK( regs, b1 );

  00165	8b 54 24 38	 mov	 edx, DWORD PTR b1$[rsp]
  00169	48 8b 8c 24 a8
	00 00 00	 mov	 rcx, QWORD PTR regs$[rsp]
  00171	e8 00 00 00 00	 call	 z900_per3_zero_xcheck

; 127  : 
; 128  :     /* Extract second byte of instruction opcode */
; 129  :     opcode = inst[5];

  00176	b8 01 00 00 00	 mov	 eax, 1
  0017b	48 6b c0 05	 imul	 rax, rax, 5
  0017f	48 8b 8c 24 a0
	00 00 00	 mov	 rcx, QWORD PTR inst$[rsp]
  00187	0f b6 04 01	 movzx	 eax, BYTE PTR [rcx+rax]
  0018b	88 44 24 31	 mov	 BYTE PTR opcode$[rsp], al

; 130  : 
; 131  :     /* Get mainstor address of storage operand */
; 132  :     m1 = MADDRL (effective_addr1, 8, b1, regs, ACCTYPE_WRITE, regs->psw.pkey);

  0018f	48 8b 84 24 a8
	00 00 00	 mov	 rax, QWORD PTR regs$[rsp]
  00197	0f b6 40 79	 movzx	 eax, BYTE PTR [rax+121]
  0019b	88 44 24 28	 mov	 BYTE PTR [rsp+40], al
  0019f	c7 44 24 20 02
	00 00 00	 mov	 DWORD PTR [rsp+32], 2
  001a7	4c 8b 8c 24 a8
	00 00 00	 mov	 r9, QWORD PTR regs$[rsp]
  001af	44 8b 44 24 38	 mov	 r8d, DWORD PTR b1$[rsp]
  001b4	ba 08 00 00 00	 mov	 edx, 8
  001b9	48 8b 4c 24 40	 mov	 rcx, QWORD PTR effective_addr1$[rsp]
  001be	e8 00 00 00 00	 call	 z900_maddr_l
  001c3	48 89 44 24 78	 mov	 QWORD PTR m1$[rsp], rax
$LN7@z900_perfo:

; 133  : 
; 134  :     do {
; 135  :         /* Load 64-bit operand from operand address */
; 136  :         n = ARCH_DEP(vfetch8) (effective_addr1, b1, regs);

  001c8	4c 8b 84 24 a8
	00 00 00	 mov	 r8, QWORD PTR regs$[rsp]
  001d0	8b 54 24 38	 mov	 edx, DWORD PTR b1$[rsp]
  001d4	48 8b 4c 24 40	 mov	 rcx, QWORD PTR effective_addr1$[rsp]
  001d9	e8 00 00 00 00	 call	 z900_vfetch8
  001de	48 89 44 24 68	 mov	 QWORD PTR n$[rsp], rax

; 137  : 
; 138  :         switch (opcode) {

  001e3	0f b6 44 24 31	 movzx	 eax, BYTE PTR opcode$[rsp]
  001e8	88 44 24 54	 mov	 BYTE PTR tv160[rsp], al
  001ec	80 7c 24 54 7a	 cmp	 BYTE PTR tv160[rsp], 122 ; 0000007aH
  001f1	74 09		 je	 SHORT $LN14@z900_perfo
  001f3	80 7c 24 54 7e	 cmp	 BYTE PTR tv160[rsp], 126 ; 0000007eH
  001f8	74 20		 je	 SHORT $LN15@z900_perfo
  001fa	eb 6e		 jmp	 SHORT $LN16@z900_perfo
$LN14@z900_perfo:

; 139  :         case 0x7A: /* Add Long Storage Immediate */
; 140  :             /* Add signed operands and set condition code */
; 141  :             cc = add_signed_long (&result, n, (S64)(S8)i2);

  001fc	48 0f be 44 24
	30		 movsx	 rax, BYTE PTR i2$[rsp]
  00202	4c 8b c0	 mov	 r8, rax
  00205	48 8b 54 24 68	 mov	 rdx, QWORD PTR n$[rsp]
  0020a	48 8d 4c 24 60	 lea	 rcx, QWORD PTR result$[rsp]
  0020f	e8 00 00 00 00	 call	 add_signed_long
  00214	89 44 24 4c	 mov	 DWORD PTR cc$[rsp], eax

; 142  :             break;

  00218	eb 61		 jmp	 SHORT $LN8@z900_perfo
$LN15@z900_perfo:

; 143  :         case 0x7E: /* Add Logical Long Storage with Signed Immediate */
; 144  :             /* Add operands and set condition code */
; 145  :             cc = (S8)i2 < 0 ?

  0021a	0f be 44 24 30	 movsx	 eax, BYTE PTR i2$[rsp]
  0021f	85 c0		 test	 eax, eax
  00221	7d 21		 jge	 SHORT $LN23@z900_perfo
  00223	0f be 44 24 30	 movsx	 eax, BYTE PTR i2$[rsp]
  00228	f7 d8		 neg	 eax
  0022a	48 98		 cdqe
  0022c	4c 8b c0	 mov	 r8, rax
  0022f	48 8b 54 24 68	 mov	 rdx, QWORD PTR n$[rsp]
  00234	48 8d 4c 24 60	 lea	 rcx, QWORD PTR result$[rsp]
  00239	e8 00 00 00 00	 call	 sub_logical_long
  0023e	89 44 24 58	 mov	 DWORD PTR tv180[rsp], eax
  00242	eb 1c		 jmp	 SHORT $LN24@z900_perfo
$LN23@z900_perfo:
  00244	48 0f be 44 24
	30		 movsx	 rax, BYTE PTR i2$[rsp]
  0024a	4c 8b c0	 mov	 r8, rax
  0024d	48 8b 54 24 68	 mov	 rdx, QWORD PTR n$[rsp]
  00252	48 8d 4c 24 60	 lea	 rcx, QWORD PTR result$[rsp]
  00257	e8 00 00 00 00	 call	 add_logical_long
  0025c	89 44 24 58	 mov	 DWORD PTR tv180[rsp], eax
$LN24@z900_perfo:
  00260	8b 44 24 58	 mov	 eax, DWORD PTR tv180[rsp]
  00264	89 44 24 4c	 mov	 DWORD PTR cc$[rsp], eax

; 146  :                 sub_logical_long (&result, n, (S64)(-(S8)i2)) :
; 147  :                 add_logical_long (&result, n, (S64)(S8)i2);
; 148  :             break;

  00268	eb 11		 jmp	 SHORT $LN8@z900_perfo
$LN16@z900_perfo:

; 149  :         default: /* To prevent compiler warnings */
; 150  :             result = 0;

  0026a	48 c7 44 24 60
	00 00 00 00	 mov	 QWORD PTR result$[rsp], 0

; 151  :             cc = 0;

  00273	c7 44 24 4c 00
	00 00 00	 mov	 DWORD PTR cc$[rsp], 0
$LN8@z900_perfo:

; 152  :         } /* end switch(opcode) */
; 153  : 
; 154  :         /* Regular store if operand is not on a doubleword boundary */
; 155  :         if ((effective_addr1 & 0x07) != 0) {

  0027b	48 8b 44 24 40	 mov	 rax, QWORD PTR effective_addr1$[rsp]
  00280	48 83 e0 07	 and	 rax, 7
  00284	48 85 c0	 test	 rax, rax
  00287	74 1e		 je	 SHORT $LN17@z900_perfo

; 156  :             ARCH_DEP(vstore8) (result, effective_addr1, b1, regs);

  00289	4c 8b 8c 24 a8
	00 00 00	 mov	 r9, QWORD PTR regs$[rsp]
  00291	44 8b 44 24 38	 mov	 r8d, DWORD PTR b1$[rsp]
  00296	48 8b 54 24 40	 mov	 rdx, QWORD PTR effective_addr1$[rsp]
  0029b	48 8b 4c 24 60	 mov	 rcx, QWORD PTR result$[rsp]
  002a0	e8 00 00 00 00	 call	 z900_vstore8

; 157  :             break;

  002a5	eb 50		 jmp	 SHORT $LN6@z900_perfo
$LN17@z900_perfo:

; 158  :         }
; 159  : 
; 160  :         /* Interlocked exchange if operand is on doubleword boundary */
; 161  :         old = CSWAP64(n);

  002a7	48 8b 4c 24 68	 mov	 rcx, QWORD PTR n$[rsp]
  002ac	e8 00 00 00 00	 call	 _byteswap_uint64
  002b1	48 89 84 24 88
	00 00 00	 mov	 QWORD PTR old$[rsp], rax

; 162  :         new = CSWAP64(result);

  002b9	48 8b 4c 24 60	 mov	 rcx, QWORD PTR result$[rsp]
  002be	e8 00 00 00 00	 call	 _byteswap_uint64
  002c3	48 89 84 24 80
	00 00 00	 mov	 QWORD PTR new$[rsp], rax

; 163  : 
; 164  :         /* MAINLOCK may be required if cmpxchg assists unavailable */
; 165  :         OBTAIN_MAINLOCK( regs );
; 166  :         {
; 167  :             rc = cmpxchg8( &old, new, m1 );

  002cb	4c 8b 44 24 78	 mov	 r8, QWORD PTR m1$[rsp]
  002d0	48 8b 94 24 80
	00 00 00	 mov	 rdx, QWORD PTR new$[rsp]
  002d8	48 8d 8c 24 88
	00 00 00	 lea	 rcx, QWORD PTR old$[rsp]
  002e0	e8 00 00 00 00	 call	 cmpxchg8_x86
  002e5	0f b6 c0	 movzx	 eax, al
  002e8	89 44 24 70	 mov	 DWORD PTR rc$[rsp], eax

; 168  :         }
; 169  :         RELEASE_MAINLOCK( regs );
; 170  : 
; 171  :     } while (rc != 0);

  002ec	83 7c 24 70 00	 cmp	 DWORD PTR rc$[rsp], 0
  002f1	0f 85 d1 fe ff
	ff		 jne	 $LN7@z900_perfo
$LN6@z900_perfo:

; 172  : 
; 173  :     /* Set condition code in PSW */
; 174  :     regs->psw.cc = cc;

  002f7	48 8b 84 24 a8
	00 00 00	 mov	 rax, QWORD PTR regs$[rsp]
  002ff	0f b6 4c 24 4c	 movzx	 ecx, BYTE PTR cc$[rsp]
  00304	88 48 7c	 mov	 BYTE PTR [rax+124], cl

; 175  : 
; 176  : } /* end DEF_INST(perform_interlocked_long_storage_immediate) */

  00307	48 81 c4 98 00
	00 00		 add	 rsp, 152		; 00000098H
  0030e	c3		 ret	 0
z900_perform_interlocked_long_storage_immediate ENDP
_TEXT	ENDS
; Function compile flags: /Odtp
; File C:\papa\MyGit\hyperion-zvector\general3.c
_TEXT	SEGMENT
i2$ = 48
opcode$ = 49
disp$1 = 52
b1$ = 56
result$ = 60
effective_addr1$ = 64
n$ = 72
temp$2 = 76
cc$ = 80
tv91 = 84
tv160 = 88
tv179 = 92
new$ = 96
old$ = 100
rc$ = 104
m1$ = 112
inst$ = 144
regs$ = 152
z900_perform_interlocked_storage_immediate PROC

; 40   : {

$LN25:
  00000	48 89 54 24 10	 mov	 QWORD PTR [rsp+16], rdx
  00005	48 89 4c 24 08	 mov	 QWORD PTR [rsp+8], rcx
  0000a	48 81 ec 88 00
	00 00		 sub	 rsp, 136		; 00000088H

; 41   : BYTE    opcode;                         /* 2nd byte of opcode        */
; 42   : BYTE    i2;                             /* Immediate byte            */
; 43   : int     b1;                             /* Base of effective addr    */
; 44   : VADR    effective_addr1;                /* Effective address         */
; 45   : BYTE    *m1;                            /* Mainstor address          */
; 46   : U32     n;                              /* 32-bit operand value      */
; 47   : U32     result;                         /* Result value              */
; 48   : U32     old, new;                       /* Values for cmpxchg4       */
; 49   : int     cc;                             /* Condition code            */
; 50   : int     rc;                             /* Return code               */
; 51   : 
; 52   :     SIY(inst, regs, i2, b1, effective_addr1);

  00011	48 8b 8c 24 90
	00 00 00	 mov	 rcx, QWORD PTR inst$[rsp]
  00019	e8 00 00 00 00	 call	 fetch_fw_noswap
  0001e	8b c8		 mov	 ecx, eax
  00020	e8 00 00 00 00	 call	 _byteswap_ulong
  00025	89 44 24 4c	 mov	 DWORD PTR temp$2[rsp], eax
  00029	48 c7 44 24 40
	00 00 00 00	 mov	 QWORD PTR effective_addr1$[rsp], 0
  00032	8b 44 24 4c	 mov	 eax, DWORD PTR temp$2[rsp]
  00036	25 ff 0f 00 00	 and	 eax, 4095		; 00000fffH
  0003b	89 44 24 34	 mov	 DWORD PTR disp$1[rsp], eax
  0003f	8b 44 24 4c	 mov	 eax, DWORD PTR temp$2[rsp]
  00043	c1 e8 0c	 shr	 eax, 12
  00046	83 e0 0f	 and	 eax, 15
  00049	89 44 24 38	 mov	 DWORD PTR b1$[rsp], eax
  0004d	8b 44 24 4c	 mov	 eax, DWORD PTR temp$2[rsp]
  00051	c1 e8 10	 shr	 eax, 16
  00054	25 ff 00 00 00	 and	 eax, 255		; 000000ffH
  00059	88 44 24 30	 mov	 BYTE PTR i2$[rsp], al
  0005d	83 7c 24 38 00	 cmp	 DWORD PTR b1$[rsp], 0
  00062	74 25		 je	 SHORT $LN10@z900_perfo
  00064	48 63 44 24 38	 movsxd	 rax, DWORD PTR b1$[rsp]
  00069	48 8b 8c 24 98
	00 00 00	 mov	 rcx, QWORD PTR regs$[rsp]
  00071	48 8b 84 c1 80
	02 00 00	 mov	 rax, QWORD PTR [rcx+rax*8+640]
  00079	48 8b 4c 24 40	 mov	 rcx, QWORD PTR effective_addr1$[rsp]
  0007e	48 03 c8	 add	 rcx, rax
  00081	48 8b c1	 mov	 rax, rcx
  00084	48 89 44 24 40	 mov	 QWORD PTR effective_addr1$[rsp], rax
$LN10@z900_perfo:
  00089	b8 01 00 00 00	 mov	 eax, 1
  0008e	48 6b c0 04	 imul	 rax, rax, 4
  00092	48 8b 8c 24 90
	00 00 00	 mov	 rcx, QWORD PTR inst$[rsp]
  0009a	0f b6 04 01	 movzx	 eax, BYTE PTR [rcx+rax]
  0009e	85 c0		 test	 eax, eax
  000a0	74 0a		 je	 SHORT $LN21@z900_perfo
  000a2	c7 44 24 54 01
	00 00 00	 mov	 DWORD PTR tv91[rsp], 1
  000aa	eb 08		 jmp	 SHORT $LN22@z900_perfo
$LN21@z900_perfo:
  000ac	c7 44 24 54 00
	00 00 00	 mov	 DWORD PTR tv91[rsp], 0
$LN22@z900_perfo:
  000b4	83 7c 24 54 00	 cmp	 DWORD PTR tv91[rsp], 0
  000b9	74 3e		 je	 SHORT $LN11@z900_perfo
  000bb	b8 01 00 00 00	 mov	 eax, 1
  000c0	48 6b c0 04	 imul	 rax, rax, 4
  000c4	48 8b 8c 24 90
	00 00 00	 mov	 rcx, QWORD PTR inst$[rsp]
  000cc	0f b6 04 01	 movzx	 eax, BYTE PTR [rcx+rax]
  000d0	c1 e0 0c	 shl	 eax, 12
  000d3	8b 4c 24 34	 mov	 ecx, DWORD PTR disp$1[rsp]
  000d7	0b c8		 or	 ecx, eax
  000d9	8b c1		 mov	 eax, ecx
  000db	89 44 24 34	 mov	 DWORD PTR disp$1[rsp], eax
  000df	8b 44 24 34	 mov	 eax, DWORD PTR disp$1[rsp]
  000e3	25 00 00 08 00	 and	 eax, 524288		; 00080000H
  000e8	85 c0		 test	 eax, eax
  000ea	74 0d		 je	 SHORT $LN12@z900_perfo
  000ec	8b 44 24 34	 mov	 eax, DWORD PTR disp$1[rsp]
  000f0	0d 00 00 f0 ff	 or	 eax, -1048576		; fff00000H
  000f5	89 44 24 34	 mov	 DWORD PTR disp$1[rsp], eax
$LN12@z900_perfo:
$LN11@z900_perfo:
  000f9	48 63 44 24 34	 movsxd	 rax, DWORD PTR disp$1[rsp]
  000fe	48 8b 4c 24 40	 mov	 rcx, QWORD PTR effective_addr1$[rsp]
  00103	48 03 c8	 add	 rcx, rax
  00106	48 8b c1	 mov	 rax, rcx
  00109	48 89 44 24 40	 mov	 QWORD PTR effective_addr1$[rsp], rax
  0010e	48 8b 84 24 98
	00 00 00	 mov	 rax, QWORD PTR regs$[rsp]
  00116	48 8b 80 90 00
	00 00		 mov	 rax, QWORD PTR [rax+144]
  0011d	48 8b 4c 24 40	 mov	 rcx, QWORD PTR effective_addr1$[rsp]
  00122	48 23 c8	 and	 rcx, rax
  00125	48 8b c1	 mov	 rax, rcx
  00128	48 89 44 24 40	 mov	 QWORD PTR effective_addr1$[rsp], rax
$LN4@z900_perfo:
  0012d	48 8b 84 24 98
	00 00 00	 mov	 rax, QWORD PTR regs$[rsp]
  00135	48 8b 40 68	 mov	 rax, QWORD PTR [rax+104]
  00139	48 83 c0 06	 add	 rax, 6
  0013d	48 8b 8c 24 98
	00 00 00	 mov	 rcx, QWORD PTR regs$[rsp]
  00145	48 89 41 68	 mov	 QWORD PTR [rcx+104], rax
  00149	33 c0		 xor	 eax, eax
  0014b	83 f8 06	 cmp	 eax, 6
  0014e	74 0f		 je	 SHORT $LN13@z900_perfo
  00150	48 8b 84 24 98
	00 00 00	 mov	 rax, QWORD PTR regs$[rsp]
  00158	c6 80 9a 00 00
	00 06		 mov	 BYTE PTR [rax+154], 6
$LN13@z900_perfo:
  0015f	33 c0		 xor	 eax, eax
  00161	85 c0		 test	 eax, eax
  00163	75 c8		 jne	 SHORT $LN4@z900_perfo

; 53   :     PER_ZEROADDR_XCHECK( regs, b1 );

  00165	8b 54 24 38	 mov	 edx, DWORD PTR b1$[rsp]
  00169	48 8b 8c 24 98
	00 00 00	 mov	 rcx, QWORD PTR regs$[rsp]
  00171	e8 00 00 00 00	 call	 z900_per3_zero_xcheck

; 54   : 
; 55   :     /* Extract second byte of instruction opcode */
; 56   :     opcode = inst[5];

  00176	b8 01 00 00 00	 mov	 eax, 1
  0017b	48 6b c0 05	 imul	 rax, rax, 5
  0017f	48 8b 8c 24 90
	00 00 00	 mov	 rcx, QWORD PTR inst$[rsp]
  00187	0f b6 04 01	 movzx	 eax, BYTE PTR [rcx+rax]
  0018b	88 44 24 31	 mov	 BYTE PTR opcode$[rsp], al

; 57   : 
; 58   :     /* Get mainstor address of storage operand */
; 59   :     m1 = MADDRL (effective_addr1, 4, b1, regs, ACCTYPE_WRITE, regs->psw.pkey);

  0018f	48 8b 84 24 98
	00 00 00	 mov	 rax, QWORD PTR regs$[rsp]
  00197	0f b6 40 79	 movzx	 eax, BYTE PTR [rax+121]
  0019b	88 44 24 28	 mov	 BYTE PTR [rsp+40], al
  0019f	c7 44 24 20 02
	00 00 00	 mov	 DWORD PTR [rsp+32], 2
  001a7	4c 8b 8c 24 98
	00 00 00	 mov	 r9, QWORD PTR regs$[rsp]
  001af	44 8b 44 24 38	 mov	 r8d, DWORD PTR b1$[rsp]
  001b4	ba 04 00 00 00	 mov	 edx, 4
  001b9	48 8b 4c 24 40	 mov	 rcx, QWORD PTR effective_addr1$[rsp]
  001be	e8 00 00 00 00	 call	 z900_maddr_l
  001c3	48 89 44 24 70	 mov	 QWORD PTR m1$[rsp], rax
$LN7@z900_perfo:

; 60   : 
; 61   :     do {
; 62   :         /* Load 32-bit operand from operand address */
; 63   :         n = ARCH_DEP(vfetch4) (effective_addr1, b1, regs);

  001c8	4c 8b 84 24 98
	00 00 00	 mov	 r8, QWORD PTR regs$[rsp]
  001d0	8b 54 24 38	 mov	 edx, DWORD PTR b1$[rsp]
  001d4	48 8b 4c 24 40	 mov	 rcx, QWORD PTR effective_addr1$[rsp]
  001d9	e8 00 00 00 00	 call	 z900_vfetch4
  001de	89 44 24 48	 mov	 DWORD PTR n$[rsp], eax

; 64   : 
; 65   :         switch (opcode) {

  001e2	0f b6 44 24 31	 movzx	 eax, BYTE PTR opcode$[rsp]
  001e7	88 44 24 58	 mov	 BYTE PTR tv160[rsp], al
  001eb	80 7c 24 58 6a	 cmp	 BYTE PTR tv160[rsp], 106 ; 0000006aH
  001f0	74 09		 je	 SHORT $LN14@z900_perfo
  001f2	80 7c 24 58 6e	 cmp	 BYTE PTR tv160[rsp], 110 ; 0000006eH
  001f7	74 1e		 je	 SHORT $LN15@z900_perfo
  001f9	eb 67		 jmp	 SHORT $LN16@z900_perfo
$LN14@z900_perfo:

; 66   :         case 0x6A: /* Add Storage Immediate */
; 67   :             /* Add signed operands and set condition code */
; 68   :             cc = add_signed (&result, n, (S32)(S8)i2);

  001fb	0f be 44 24 30	 movsx	 eax, BYTE PTR i2$[rsp]
  00200	44 8b c0	 mov	 r8d, eax
  00203	8b 54 24 48	 mov	 edx, DWORD PTR n$[rsp]
  00207	48 8d 4c 24 3c	 lea	 rcx, QWORD PTR result$[rsp]
  0020c	e8 00 00 00 00	 call	 add_signed
  00211	89 44 24 50	 mov	 DWORD PTR cc$[rsp], eax

; 69   :             break;

  00215	eb 5b		 jmp	 SHORT $LN8@z900_perfo
$LN15@z900_perfo:

; 70   :         case 0x6E: /* Add Logical Storage with Signed Immediate */
; 71   :             /* Add operands and set condition code */
; 72   :             cc = (S8)i2 < 0 ?

  00217	0f be 44 24 30	 movsx	 eax, BYTE PTR i2$[rsp]
  0021c	85 c0		 test	 eax, eax
  0021e	7d 1e		 jge	 SHORT $LN23@z900_perfo
  00220	0f be 44 24 30	 movsx	 eax, BYTE PTR i2$[rsp]
  00225	f7 d8		 neg	 eax
  00227	44 8b c0	 mov	 r8d, eax
  0022a	8b 54 24 48	 mov	 edx, DWORD PTR n$[rsp]
  0022e	48 8d 4c 24 3c	 lea	 rcx, QWORD PTR result$[rsp]
  00233	e8 00 00 00 00	 call	 sub_logical
  00238	89 44 24 5c	 mov	 DWORD PTR tv179[rsp], eax
  0023c	eb 1a		 jmp	 SHORT $LN24@z900_perfo
$LN23@z900_perfo:
  0023e	0f be 44 24 30	 movsx	 eax, BYTE PTR i2$[rsp]
  00243	44 8b c0	 mov	 r8d, eax
  00246	8b 54 24 48	 mov	 edx, DWORD PTR n$[rsp]
  0024a	48 8d 4c 24 3c	 lea	 rcx, QWORD PTR result$[rsp]
  0024f	e8 00 00 00 00	 call	 add_logical
  00254	89 44 24 5c	 mov	 DWORD PTR tv179[rsp], eax
$LN24@z900_perfo:
  00258	8b 44 24 5c	 mov	 eax, DWORD PTR tv179[rsp]
  0025c	89 44 24 50	 mov	 DWORD PTR cc$[rsp], eax

; 73   :                 sub_logical (&result, n, (S32)(-(S8)i2)) :
; 74   :                 add_logical (&result, n, (S32)(S8)i2);
; 75   :             break;

  00260	eb 10		 jmp	 SHORT $LN8@z900_perfo
$LN16@z900_perfo:

; 76   :         default: /* To prevent compiler warnings */
; 77   :             result = 0;

  00262	c7 44 24 3c 00
	00 00 00	 mov	 DWORD PTR result$[rsp], 0

; 78   :             cc = 0;

  0026a	c7 44 24 50 00
	00 00 00	 mov	 DWORD PTR cc$[rsp], 0
$LN8@z900_perfo:

; 79   :         } /* end switch(opcode) */
; 80   : 
; 81   :         /* Regular store if operand is not on a fullword boundary */
; 82   :         if ((effective_addr1 & 0x03) != 0) {

  00272	48 8b 44 24 40	 mov	 rax, QWORD PTR effective_addr1$[rsp]
  00277	48 83 e0 03	 and	 rax, 3
  0027b	48 85 c0	 test	 rax, rax
  0027e	74 1d		 je	 SHORT $LN17@z900_perfo

; 83   :             ARCH_DEP(vstore4) (result, effective_addr1, b1, regs);

  00280	4c 8b 8c 24 98
	00 00 00	 mov	 r9, QWORD PTR regs$[rsp]
  00288	44 8b 44 24 38	 mov	 r8d, DWORD PTR b1$[rsp]
  0028d	48 8b 54 24 40	 mov	 rdx, QWORD PTR effective_addr1$[rsp]
  00292	8b 4c 24 3c	 mov	 ecx, DWORD PTR result$[rsp]
  00296	e8 00 00 00 00	 call	 z900_vstore4

; 84   :             break;

  0029b	eb 3f		 jmp	 SHORT $LN6@z900_perfo
$LN17@z900_perfo:

; 85   :         }
; 86   : 
; 87   :         /* Interlocked exchange if operand is on a fullword boundary */
; 88   :         old = CSWAP32(n);

  0029d	8b 4c 24 48	 mov	 ecx, DWORD PTR n$[rsp]
  002a1	e8 00 00 00 00	 call	 _byteswap_ulong
  002a6	89 44 24 64	 mov	 DWORD PTR old$[rsp], eax

; 89   :         new = CSWAP32(result);

  002aa	8b 4c 24 3c	 mov	 ecx, DWORD PTR result$[rsp]
  002ae	e8 00 00 00 00	 call	 _byteswap_ulong
  002b3	89 44 24 60	 mov	 DWORD PTR new$[rsp], eax

; 90   : 
; 91   :         /* MAINLOCK may be required if cmpxchg assists unavailable */
; 92   :         OBTAIN_MAINLOCK( regs );
; 93   :         {
; 94   :             rc = cmpxchg4( &old, new, m1 );

  002b7	4c 8b 44 24 70	 mov	 r8, QWORD PTR m1$[rsp]
  002bc	8b 54 24 60	 mov	 edx, DWORD PTR new$[rsp]
  002c0	48 8d 4c 24 64	 lea	 rcx, QWORD PTR old$[rsp]
  002c5	e8 00 00 00 00	 call	 cmpxchg4_x86
  002ca	0f b6 c0	 movzx	 eax, al
  002cd	89 44 24 68	 mov	 DWORD PTR rc$[rsp], eax

; 95   :         }
; 96   :         RELEASE_MAINLOCK( regs );
; 97   : 
; 98   :     } while (rc != 0);

  002d1	83 7c 24 68 00	 cmp	 DWORD PTR rc$[rsp], 0
  002d6	0f 85 ec fe ff
	ff		 jne	 $LN7@z900_perfo
$LN6@z900_perfo:

; 99   : 
; 100  :     /* Set condition code in PSW */
; 101  :     regs->psw.cc = cc;

  002dc	48 8b 84 24 98
	00 00 00	 mov	 rax, QWORD PTR regs$[rsp]
  002e4	0f b6 4c 24 50	 movzx	 ecx, BYTE PTR cc$[rsp]
  002e9	88 48 7c	 mov	 BYTE PTR [rax+124], cl

; 102  : 
; 103  : } /* end DEF_INST(perform_interlocked_storage_immediate) */

  002ec	48 81 c4 88 00
	00 00		 add	 rsp, 136		; 00000088H
  002f3	c3		 ret	 0
z900_perform_interlocked_storage_immediate ENDP
_TEXT	ENDS
; Function compile flags: /Odtp
; File C:\papa\MyGit\hyperion-zvector\vstore.h
;	COMDAT z900_vfetch8
_TEXT	SEGMENT
tv70 = 48
mn$1 = 56
addr$ = 80
arn$ = 88
regs$ = 96
z900_vfetch8 PROC					; COMDAT

; 711  : {

$LN8:
  00000	4c 89 44 24 18	 mov	 QWORD PTR [rsp+24], r8
  00005	89 54 24 10	 mov	 DWORD PTR [rsp+16], edx
  00009	48 89 4c 24 08	 mov	 QWORD PTR [rsp+8], rcx
  0000e	48 83 ec 48	 sub	 rsp, 72			; 00000048H

; 712  : #if defined( OPTION_SINGLE_CPU_DW ) && defined( ASSIST_STORE_DW )
; 713  :     if(likely(!((VADR_L)addr & 0x07)))
; 714  :     {
; 715  :         /* doubleword aligned fetch */
; 716  :         U64 *mn;
; 717  :         ITIMER_SYNC( addr, 8-1, regs );
; 718  :         mn = (U64*)MADDRL( addr, 8, arn, regs, ACCTYPE_READ, regs->psw.pkey );
; 719  :         if (regs->cpubit == regs->sysblk->started_mask)
; 720  :             return CSWAP64( *mn );
; 721  :         return fetch_dw( mn );
; 722  :     }
; 723  :     else
; 724  : #endif
; 725  :     {
; 726  :         if (likely(((VADR_L)addr & PAGEFRAME_BYTEMASK) <= (PAGEFRAME_BYTEMASK-7)))

  00012	48 8b 44 24 50	 mov	 rax, QWORD PTR addr$[rsp]
  00017	48 25 ff 0f 00
	00		 and	 rax, 4095		; 00000fffH
  0001d	48 3d f8 0f 00
	00		 cmp	 rax, 4088		; 00000ff8H
  00023	77 0a		 ja	 SHORT $LN6@z900_vfetc
  00025	c7 44 24 30 01
	00 00 00	 mov	 DWORD PTR tv70[rsp], 1
  0002d	eb 08		 jmp	 SHORT $LN7@z900_vfetc
$LN6@z900_vfetc:
  0002f	c7 44 24 30 00
	00 00 00	 mov	 DWORD PTR tv70[rsp], 0
$LN7@z900_vfetc:
  00037	83 7c 24 30 00	 cmp	 DWORD PTR tv70[rsp], 0
  0003c	74 47		 je	 SHORT $LN2@z900_vfetc

; 727  :         {
; 728  :             /* unaligned, non-crossing doubleword fetch */
; 729  :             BYTE *mn;
; 730  :             ITIMER_SYNC( addr, 8-1, regs );
; 731  :             mn = MADDRL( addr, 8, arn, regs, ACCTYPE_READ, regs->psw.pkey );

  0003e	48 8b 44 24 60	 mov	 rax, QWORD PTR regs$[rsp]
  00043	0f b6 40 79	 movzx	 eax, BYTE PTR [rax+121]
  00047	88 44 24 28	 mov	 BYTE PTR [rsp+40], al
  0004b	c7 44 24 20 04
	00 00 00	 mov	 DWORD PTR [rsp+32], 4
  00053	4c 8b 4c 24 60	 mov	 r9, QWORD PTR regs$[rsp]
  00058	44 8b 44 24 58	 mov	 r8d, DWORD PTR arn$[rsp]
  0005d	ba 08 00 00 00	 mov	 edx, 8
  00062	48 8b 4c 24 50	 mov	 rcx, QWORD PTR addr$[rsp]
  00067	e8 00 00 00 00	 call	 z900_maddr_l
  0006c	48 89 44 24 38	 mov	 QWORD PTR mn$1[rsp], rax

; 732  :             return fetch_dw( mn );

  00071	48 8b 4c 24 38	 mov	 rcx, QWORD PTR mn$1[rsp]
  00076	e8 00 00 00 00	 call	 fetch_dw_noswap
  0007b	48 8b c8	 mov	 rcx, rax
  0007e	e8 00 00 00 00	 call	 _byteswap_uint64
  00083	eb 13		 jmp	 SHORT $LN1@z900_vfetc
$LN2@z900_vfetc:

; 733  :         }
; 734  :     }
; 735  :     /* page crossing doubleword fetch */
; 736  :     return ARCH_DEP( vfetch8_full )( addr, arn, regs );

  00085	4c 8b 44 24 60	 mov	 r8, QWORD PTR regs$[rsp]
  0008a	8b 54 24 58	 mov	 edx, DWORD PTR arn$[rsp]
  0008e	48 8b 4c 24 50	 mov	 rcx, QWORD PTR addr$[rsp]
  00093	e8 00 00 00 00	 call	 z900_vfetch8_full
$LN1@z900_vfetc:

; 737  : }

  00098	48 83 c4 48	 add	 rsp, 72			; 00000048H
  0009c	c3		 ret	 0
z900_vfetch8 ENDP
_TEXT	ENDS
; Function compile flags: /Odtp
; File C:\papa\MyGit\hyperion-zvector\vstore.h
;	COMDAT z900_vfetch4
_TEXT	SEGMENT
tv66 = 48
tv72 = 52
mn$1 = 56
addr$ = 80
arn$ = 88
regs$ = 96
z900_vfetch4 PROC					; COMDAT

; 695  : {

$LN11:
  00000	4c 89 44 24 18	 mov	 QWORD PTR [rsp+24], r8
  00005	89 54 24 10	 mov	 DWORD PTR [rsp+16], edx
  00009	48 89 4c 24 08	 mov	 QWORD PTR [rsp+8], rcx
  0000e	48 83 ec 48	 sub	 rsp, 72			; 00000048H

; 696  :     if ((likely(!((VADR_L)addr & 0x03))
; 697  :         || (((VADR_L)addr & PAGEFRAME_BYTEMASK) <= (PAGEFRAME_BYTEMASK-3) )))

  00012	48 8b 44 24 50	 mov	 rax, QWORD PTR addr$[rsp]
  00017	48 83 e0 03	 and	 rax, 3
  0001b	48 85 c0	 test	 rax, rax
  0001e	75 0a		 jne	 SHORT $LN5@z900_vfetc
  00020	c7 44 24 30 01
	00 00 00	 mov	 DWORD PTR tv66[rsp], 1
  00028	eb 08		 jmp	 SHORT $LN6@z900_vfetc
$LN5@z900_vfetc:
  0002a	c7 44 24 30 00
	00 00 00	 mov	 DWORD PTR tv66[rsp], 0
$LN6@z900_vfetc:
  00032	83 7c 24 30 00	 cmp	 DWORD PTR tv66[rsp], 0
  00037	74 0a		 je	 SHORT $LN9@z900_vfetc
  00039	c7 44 24 34 01
	00 00 00	 mov	 DWORD PTR tv72[rsp], 1
  00041	eb 08		 jmp	 SHORT $LN10@z900_vfetc
$LN9@z900_vfetc:
  00043	c7 44 24 34 00
	00 00 00	 mov	 DWORD PTR tv72[rsp], 0
$LN10@z900_vfetc:
  0004b	83 7c 24 34 00	 cmp	 DWORD PTR tv72[rsp], 0
  00050	75 13		 jne	 SHORT $LN3@z900_vfetc
  00052	48 8b 44 24 50	 mov	 rax, QWORD PTR addr$[rsp]
  00057	48 25 ff 0f 00
	00		 and	 rax, 4095		; 00000fffH
  0005d	48 3d fc 0f 00
	00		 cmp	 rax, 4092		; 00000ffcH
  00063	77 46		 ja	 SHORT $LN2@z900_vfetc
$LN3@z900_vfetc:

; 698  :     {
; 699  :         BYTE *mn;
; 700  :         ITIMER_SYNC( addr, 4-1, regs );
; 701  :         mn = MADDRL( addr, 4,arn, regs, ACCTYPE_READ, regs->psw.pkey );

  00065	48 8b 44 24 60	 mov	 rax, QWORD PTR regs$[rsp]
  0006a	0f b6 40 79	 movzx	 eax, BYTE PTR [rax+121]
  0006e	88 44 24 28	 mov	 BYTE PTR [rsp+40], al
  00072	c7 44 24 20 04
	00 00 00	 mov	 DWORD PTR [rsp+32], 4
  0007a	4c 8b 4c 24 60	 mov	 r9, QWORD PTR regs$[rsp]
  0007f	44 8b 44 24 58	 mov	 r8d, DWORD PTR arn$[rsp]
  00084	ba 04 00 00 00	 mov	 edx, 4
  00089	48 8b 4c 24 50	 mov	 rcx, QWORD PTR addr$[rsp]
  0008e	e8 00 00 00 00	 call	 z900_maddr_l
  00093	48 89 44 24 38	 mov	 QWORD PTR mn$1[rsp], rax

; 702  :         return fetch_fw( mn );

  00098	48 8b 4c 24 38	 mov	 rcx, QWORD PTR mn$1[rsp]
  0009d	e8 00 00 00 00	 call	 fetch_fw_noswap
  000a2	8b c8		 mov	 ecx, eax
  000a4	e8 00 00 00 00	 call	 _byteswap_ulong
  000a9	eb 13		 jmp	 SHORT $LN1@z900_vfetc
$LN2@z900_vfetc:

; 703  :     }
; 704  :     return ARCH_DEP( vfetch4_full )( addr, arn, regs );

  000ab	4c 8b 44 24 60	 mov	 r8, QWORD PTR regs$[rsp]
  000b0	8b 54 24 58	 mov	 edx, DWORD PTR arn$[rsp]
  000b4	48 8b 4c 24 50	 mov	 rcx, QWORD PTR addr$[rsp]
  000b9	e8 00 00 00 00	 call	 z900_vfetch4_full
$LN1@z900_vfetc:

; 705  : }

  000be	48 83 c4 48	 add	 rsp, 72			; 00000048H
  000c2	c3		 ret	 0
z900_vfetch4 ENDP
_TEXT	ENDS
; Function compile flags: /Odtp
; File C:\papa\MyGit\hyperion-zvector\vstore.h
;	COMDAT z900_vfetch2
_TEXT	SEGMENT
tv66 = 48
tv72 = 52
mn$1 = 56
addr$ = 80
arn$ = 88
regs$ = 96
z900_vfetch2 PROC					; COMDAT

; 679  : {

$LN11:
  00000	4c 89 44 24 18	 mov	 QWORD PTR [rsp+24], r8
  00005	89 54 24 10	 mov	 DWORD PTR [rsp+16], edx
  00009	48 89 4c 24 08	 mov	 QWORD PTR [rsp+8], rcx
  0000e	48 83 ec 48	 sub	 rsp, 72			; 00000048H

; 680  :     if (likely(!((VADR_L)addr & 0x01))
; 681  :         || (((VADR_L)addr & PAGEFRAME_BYTEMASK) != PAGEFRAME_BYTEMASK ))

  00012	48 8b 44 24 50	 mov	 rax, QWORD PTR addr$[rsp]
  00017	48 83 e0 01	 and	 rax, 1
  0001b	48 85 c0	 test	 rax, rax
  0001e	75 0a		 jne	 SHORT $LN5@z900_vfetc
  00020	c7 44 24 30 01
	00 00 00	 mov	 DWORD PTR tv66[rsp], 1
  00028	eb 08		 jmp	 SHORT $LN6@z900_vfetc
$LN5@z900_vfetc:
  0002a	c7 44 24 30 00
	00 00 00	 mov	 DWORD PTR tv66[rsp], 0
$LN6@z900_vfetc:
  00032	83 7c 24 30 00	 cmp	 DWORD PTR tv66[rsp], 0
  00037	74 0a		 je	 SHORT $LN9@z900_vfetc
  00039	c7 44 24 34 01
	00 00 00	 mov	 DWORD PTR tv72[rsp], 1
  00041	eb 08		 jmp	 SHORT $LN10@z900_vfetc
$LN9@z900_vfetc:
  00043	c7 44 24 34 00
	00 00 00	 mov	 DWORD PTR tv72[rsp], 0
$LN10@z900_vfetc:
  0004b	83 7c 24 34 00	 cmp	 DWORD PTR tv72[rsp], 0
  00050	75 13		 jne	 SHORT $LN3@z900_vfetc
  00052	48 8b 44 24 50	 mov	 rax, QWORD PTR addr$[rsp]
  00057	48 25 ff 0f 00
	00		 and	 rax, 4095		; 00000fffH
  0005d	48 3d ff 0f 00
	00		 cmp	 rax, 4095		; 00000fffH
  00063	74 47		 je	 SHORT $LN2@z900_vfetc
$LN3@z900_vfetc:

; 682  :     {
; 683  :         BYTE *mn;
; 684  :         ITIMER_SYNC( addr, 2-1, regs );
; 685  :         mn = MADDRL( addr, 2,arn, regs, ACCTYPE_READ, regs->psw.pkey );

  00065	48 8b 44 24 60	 mov	 rax, QWORD PTR regs$[rsp]
  0006a	0f b6 40 79	 movzx	 eax, BYTE PTR [rax+121]
  0006e	88 44 24 28	 mov	 BYTE PTR [rsp+40], al
  00072	c7 44 24 20 04
	00 00 00	 mov	 DWORD PTR [rsp+32], 4
  0007a	4c 8b 4c 24 60	 mov	 r9, QWORD PTR regs$[rsp]
  0007f	44 8b 44 24 58	 mov	 r8d, DWORD PTR arn$[rsp]
  00084	ba 02 00 00 00	 mov	 edx, 2
  00089	48 8b 4c 24 50	 mov	 rcx, QWORD PTR addr$[rsp]
  0008e	e8 00 00 00 00	 call	 z900_maddr_l
  00093	48 89 44 24 38	 mov	 QWORD PTR mn$1[rsp], rax

; 686  :         return fetch_hw( mn );

  00098	48 8b 4c 24 38	 mov	 rcx, QWORD PTR mn$1[rsp]
  0009d	e8 00 00 00 00	 call	 fetch_hw_noswap
  000a2	0f b7 c8	 movzx	 ecx, ax
  000a5	e8 00 00 00 00	 call	 _byteswap_ushort
  000aa	eb 13		 jmp	 SHORT $LN1@z900_vfetc
$LN2@z900_vfetc:

; 687  :     }
; 688  :     return ARCH_DEP( vfetch2_full )( addr, arn, regs );

  000ac	4c 8b 44 24 60	 mov	 r8, QWORD PTR regs$[rsp]
  000b1	8b 54 24 58	 mov	 edx, DWORD PTR arn$[rsp]
  000b5	48 8b 4c 24 50	 mov	 rcx, QWORD PTR addr$[rsp]
  000ba	e8 00 00 00 00	 call	 z900_vfetch2_full
$LN1@z900_vfetc:

; 689  : }

  000bf	48 83 c4 48	 add	 rsp, 72			; 00000048H
  000c3	c3		 ret	 0
z900_vfetch2 ENDP
_TEXT	ENDS
; Function compile flags: /Odtp
; File C:\papa\MyGit\hyperion-zvector\vstore.h
;	COMDAT z900_vfetchb
_TEXT	SEGMENT
mn$ = 48
addr$ = 80
arn$ = 88
regs$ = 96
z900_vfetchb PROC					; COMDAT

; 667  : {

$LN3:
  00000	4c 89 44 24 18	 mov	 QWORD PTR [rsp+24], r8
  00005	89 54 24 10	 mov	 DWORD PTR [rsp+16], edx
  00009	48 89 4c 24 08	 mov	 QWORD PTR [rsp+8], rcx
  0000e	48 83 ec 48	 sub	 rsp, 72			; 00000048H

; 668  : BYTE   *mn;                             /* Main storage address      */
; 669  : 
; 670  :     ITIMER_SYNC( addr, 1-1, regs );
; 671  :     mn = MADDR( addr, arn, regs, ACCTYPE_READ, regs->psw.pkey );

  00012	48 8b 44 24 60	 mov	 rax, QWORD PTR regs$[rsp]
  00017	0f b6 40 79	 movzx	 eax, BYTE PTR [rax+121]
  0001b	88 44 24 28	 mov	 BYTE PTR [rsp+40], al
  0001f	c7 44 24 20 04
	00 00 00	 mov	 DWORD PTR [rsp+32], 4
  00027	4c 8b 4c 24 60	 mov	 r9, QWORD PTR regs$[rsp]
  0002c	44 8b 44 24 58	 mov	 r8d, DWORD PTR arn$[rsp]
  00031	ba 01 00 00 00	 mov	 edx, 1
  00036	48 8b 4c 24 50	 mov	 rcx, QWORD PTR addr$[rsp]
  0003b	e8 00 00 00 00	 call	 z900_maddr_l
  00040	48 89 44 24 30	 mov	 QWORD PTR mn$[rsp], rax

; 672  :     return *mn;

  00045	48 8b 44 24 30	 mov	 rax, QWORD PTR mn$[rsp]
  0004a	0f b6 00	 movzx	 eax, BYTE PTR [rax]

; 673  : }

  0004d	48 83 c4 48	 add	 rsp, 72			; 00000048H
  00051	c3		 ret	 0
z900_vfetchb ENDP
_TEXT	ENDS
; Function compile flags: /Odtp
; File C:\papa\MyGit\hyperion-zvector\vstore.h
;	COMDAT z900_vstore8
_TEXT	SEGMENT
tv70 = 48
mn$1 = 56
value$ = 80
addr$ = 88
arn$ = 96
regs$ = 104
z900_vstore8 PROC					; COMDAT

; 577  : {

$LN9:
  00000	4c 89 4c 24 20	 mov	 QWORD PTR [rsp+32], r9
  00005	44 89 44 24 18	 mov	 DWORD PTR [rsp+24], r8d
  0000a	48 89 54 24 10	 mov	 QWORD PTR [rsp+16], rdx
  0000f	48 89 4c 24 08	 mov	 QWORD PTR [rsp+8], rcx
  00014	48 83 ec 48	 sub	 rsp, 72			; 00000048H

; 578  : #if defined( OPTION_SINGLE_CPU_DW ) && defined( ASSIST_STORE_DW )
; 579  :     /* Check alignement. If aligned then we are guaranteed
; 580  :        not to cross a page boundary */
; 581  :     if (likely(!((VADR_L)addr & 0x07)))
; 582  :     {
; 583  :         /* Most common case : Aligned */
; 584  :         U64 *mn;
; 585  :         mn = (U64*)MADDRL( addr, 8, arn, regs, ACCTYPE_WRITE, regs->psw.pkey );
; 586  :         if (regs->cpubit == regs->sysblk->started_mask)
; 587  :             *mn = CSWAP64( value );
; 588  :         else
; 589  :             STORE_DW( mn, value );
; 590  :     }
; 591  :     else
; 592  : #endif
; 593  :     {
; 594  :         /* We're not aligned. So we have to check whether we are
; 595  :            crossing a page boundary. This cannot be the same
; 596  :            code as above because casting U64* to a non aligned
; 597  :            pointer may break on those architectures mandating
; 598  :            strict alignement */
; 599  :         if (likely(((VADR_L)addr & PAGEFRAME_BYTEMASK) <= (PAGEFRAME_BYTEMASK-7)))

  00018	48 8b 44 24 58	 mov	 rax, QWORD PTR addr$[rsp]
  0001d	48 25 ff 0f 00
	00		 and	 rax, 4095		; 00000fffH
  00023	48 3d f8 0f 00
	00		 cmp	 rax, 4088		; 00000ff8H
  00029	77 0a		 ja	 SHORT $LN7@z900_vstor
  0002b	c7 44 24 30 01
	00 00 00	 mov	 DWORD PTR tv70[rsp], 1
  00033	eb 08		 jmp	 SHORT $LN8@z900_vstor
$LN7@z900_vstor:
  00035	c7 44 24 30 00
	00 00 00	 mov	 DWORD PTR tv70[rsp], 0
$LN8@z900_vstor:
  0003d	83 7c 24 30 00	 cmp	 DWORD PTR tv70[rsp], 0
  00042	74 4c		 je	 SHORT $LN2@z900_vstor

; 600  :         {
; 601  :             /* Non aligned but not crossing page boundary */
; 602  :             BYTE *mn;
; 603  :             mn = MADDRL( addr, 8, arn, regs, ACCTYPE_WRITE, regs->psw.pkey );

  00044	48 8b 44 24 68	 mov	 rax, QWORD PTR regs$[rsp]
  00049	0f b6 40 79	 movzx	 eax, BYTE PTR [rax+121]
  0004d	88 44 24 28	 mov	 BYTE PTR [rsp+40], al
  00051	c7 44 24 20 02
	00 00 00	 mov	 DWORD PTR [rsp+32], 2
  00059	4c 8b 4c 24 68	 mov	 r9, QWORD PTR regs$[rsp]
  0005e	44 8b 44 24 60	 mov	 r8d, DWORD PTR arn$[rsp]
  00063	ba 08 00 00 00	 mov	 edx, 8
  00068	48 8b 4c 24 58	 mov	 rcx, QWORD PTR addr$[rsp]
  0006d	e8 00 00 00 00	 call	 z900_maddr_l
  00072	48 89 44 24 38	 mov	 QWORD PTR mn$1[rsp], rax

; 604  :             /* invoking STORE_DW ensures endianness correctness */
; 605  :             STORE_DW( mn, value );

  00077	48 8b 4c 24 50	 mov	 rcx, QWORD PTR value$[rsp]
  0007c	e8 00 00 00 00	 call	 _byteswap_uint64
  00081	48 8b d0	 mov	 rdx, rax
  00084	48 8b 4c 24 38	 mov	 rcx, QWORD PTR mn$1[rsp]
  00089	e8 00 00 00 00	 call	 store_dw_noswap

; 606  :         }

  0008e	eb 19		 jmp	 SHORT $LN3@z900_vstor
$LN2@z900_vstor:

; 607  :         else
; 608  :             /* Crossing page boundary */
; 609  :             ARCH_DEP( vstore8_full )( value, addr, arn, regs );

  00090	4c 8b 4c 24 68	 mov	 r9, QWORD PTR regs$[rsp]
  00095	44 8b 44 24 60	 mov	 r8d, DWORD PTR arn$[rsp]
  0009a	48 8b 54 24 58	 mov	 rdx, QWORD PTR addr$[rsp]
  0009f	48 8b 4c 24 50	 mov	 rcx, QWORD PTR value$[rsp]
  000a4	e8 00 00 00 00	 call	 z900_vstore8_full
$LN3@z900_vstor:

; 610  :     }
; 611  :     ITIMER_UPDATE( addr, 8-1, regs );
; 612  : }

  000a9	48 83 c4 48	 add	 rsp, 72			; 00000048H
  000ad	c3		 ret	 0
z900_vstore8 ENDP
_TEXT	ENDS
; Function compile flags: /Odtp
; File C:\papa\MyGit\hyperion-zvector\vstore.h
;	COMDAT z900_vstore4
_TEXT	SEGMENT
tv66 = 48
tv72 = 52
mn$1 = 56
value$ = 80
addr$ = 88
arn$ = 96
regs$ = 104
z900_vstore4 PROC					; COMDAT

; 559  : {

$LN12:
  00000	4c 89 4c 24 20	 mov	 QWORD PTR [rsp+32], r9
  00005	44 89 44 24 18	 mov	 DWORD PTR [rsp+24], r8d
  0000a	48 89 54 24 10	 mov	 QWORD PTR [rsp+16], rdx
  0000f	89 4c 24 08	 mov	 DWORD PTR [rsp+8], ecx
  00013	48 83 ec 48	 sub	 rsp, 72			; 00000048H

; 560  :     /* Most common case : Aligned & not crossing page boundary */
; 561  :     if (likely(!((VADR_L)addr & 0x03))
; 562  :         || (((VADR_L)addr & PAGEFRAME_BYTEMASK) <= (PAGEFRAME_BYTEMASK-3)))

  00017	48 8b 44 24 58	 mov	 rax, QWORD PTR addr$[rsp]
  0001c	48 83 e0 03	 and	 rax, 3
  00020	48 85 c0	 test	 rax, rax
  00023	75 0a		 jne	 SHORT $LN6@z900_vstor
  00025	c7 44 24 30 01
	00 00 00	 mov	 DWORD PTR tv66[rsp], 1
  0002d	eb 08		 jmp	 SHORT $LN7@z900_vstor
$LN6@z900_vstor:
  0002f	c7 44 24 30 00
	00 00 00	 mov	 DWORD PTR tv66[rsp], 0
$LN7@z900_vstor:
  00037	83 7c 24 30 00	 cmp	 DWORD PTR tv66[rsp], 0
  0003c	74 0a		 je	 SHORT $LN10@z900_vstor
  0003e	c7 44 24 34 01
	00 00 00	 mov	 DWORD PTR tv72[rsp], 1
  00046	eb 08		 jmp	 SHORT $LN11@z900_vstor
$LN10@z900_vstor:
  00048	c7 44 24 34 00
	00 00 00	 mov	 DWORD PTR tv72[rsp], 0
$LN11@z900_vstor:
  00050	83 7c 24 34 00	 cmp	 DWORD PTR tv72[rsp], 0
  00055	75 13		 jne	 SHORT $LN4@z900_vstor
  00057	48 8b 44 24 58	 mov	 rax, QWORD PTR addr$[rsp]
  0005c	48 25 ff 0f 00
	00		 and	 rax, 4095		; 00000fffH
  00062	48 3d fc 0f 00
	00		 cmp	 rax, 4092		; 00000ffcH
  00068	77 4a		 ja	 SHORT $LN2@z900_vstor
$LN4@z900_vstor:

; 563  :     {
; 564  :         BYTE *mn;
; 565  :         mn = MADDRL( addr, 4, arn, regs, ACCTYPE_WRITE, regs->psw.pkey );

  0006a	48 8b 44 24 68	 mov	 rax, QWORD PTR regs$[rsp]
  0006f	0f b6 40 79	 movzx	 eax, BYTE PTR [rax+121]
  00073	88 44 24 28	 mov	 BYTE PTR [rsp+40], al
  00077	c7 44 24 20 02
	00 00 00	 mov	 DWORD PTR [rsp+32], 2
  0007f	4c 8b 4c 24 68	 mov	 r9, QWORD PTR regs$[rsp]
  00084	44 8b 44 24 60	 mov	 r8d, DWORD PTR arn$[rsp]
  00089	ba 04 00 00 00	 mov	 edx, 4
  0008e	48 8b 4c 24 58	 mov	 rcx, QWORD PTR addr$[rsp]
  00093	e8 00 00 00 00	 call	 z900_maddr_l
  00098	48 89 44 24 38	 mov	 QWORD PTR mn$1[rsp], rax

; 566  :         STORE_FW( mn, value );

  0009d	8b 4c 24 50	 mov	 ecx, DWORD PTR value$[rsp]
  000a1	e8 00 00 00 00	 call	 _byteswap_ulong
  000a6	8b d0		 mov	 edx, eax
  000a8	48 8b 4c 24 38	 mov	 rcx, QWORD PTR mn$1[rsp]
  000ad	e8 00 00 00 00	 call	 store_fw_noswap

; 567  :         ITIMER_UPDATE( addr, 4-1, regs );
; 568  :     }

  000b2	eb 18		 jmp	 SHORT $LN3@z900_vstor
$LN2@z900_vstor:

; 569  :     else
; 570  :         ARCH_DEP( vstore4_full )( value, addr, arn, regs );

  000b4	4c 8b 4c 24 68	 mov	 r9, QWORD PTR regs$[rsp]
  000b9	44 8b 44 24 60	 mov	 r8d, DWORD PTR arn$[rsp]
  000be	48 8b 54 24 58	 mov	 rdx, QWORD PTR addr$[rsp]
  000c3	8b 4c 24 50	 mov	 ecx, DWORD PTR value$[rsp]
  000c7	e8 00 00 00 00	 call	 z900_vstore4_full
$LN3@z900_vstor:

; 571  : }

  000cc	48 83 c4 48	 add	 rsp, 72			; 00000048H
  000d0	c3		 ret	 0
z900_vstore4 ENDP
_TEXT	ENDS
; Function compile flags: /Odtp
; File C:\papa\MyGit\hyperion-zvector\vstore.h
;	COMDAT z900_vstore2
_TEXT	SEGMENT
tv73 = 48
mn$1 = 56
value$ = 80
addr$ = 88
arn$ = 96
regs$ = 104
z900_vstore2 PROC					; COMDAT

; 541  : {

$LN9:
  00000	4c 89 4c 24 20	 mov	 QWORD PTR [rsp+32], r9
  00005	44 89 44 24 18	 mov	 DWORD PTR [rsp+24], r8d
  0000a	48 89 54 24 10	 mov	 QWORD PTR [rsp+16], rdx
  0000f	66 89 4c 24 08	 mov	 WORD PTR [rsp+8], cx
  00014	48 83 ec 48	 sub	 rsp, 72			; 00000048H

; 542  :     /* Most common case : Aligned & not crossing page boundary */
; 543  :     if (likely(!((VADR_L)addr & 1)

  00018	48 8b 44 24 58	 mov	 rax, QWORD PTR addr$[rsp]
  0001d	48 83 e0 01	 and	 rax, 1
  00021	48 85 c0	 test	 rax, rax
  00024	74 1d		 je	 SHORT $LN5@z900_vstor
  00026	48 8b 44 24 58	 mov	 rax, QWORD PTR addr$[rsp]
  0002b	48 25 ff 0f 00
	00		 and	 rax, 4095		; 00000fffH
  00031	48 3d ff 0f 00
	00		 cmp	 rax, 4095		; 00000fffH
  00037	75 0a		 jne	 SHORT $LN5@z900_vstor
  00039	c7 44 24 30 00
	00 00 00	 mov	 DWORD PTR tv73[rsp], 0
  00041	eb 08		 jmp	 SHORT $LN8@z900_vstor
$LN5@z900_vstor:
  00043	c7 44 24 30 01
	00 00 00	 mov	 DWORD PTR tv73[rsp], 1
$LN8@z900_vstor:
  0004b	83 7c 24 30 00	 cmp	 DWORD PTR tv73[rsp], 0
  00050	74 4c		 je	 SHORT $LN2@z900_vstor

; 544  :         || ((VADR_L)addr & PAGEFRAME_BYTEMASK) != PAGEFRAME_BYTEMASK))
; 545  :     {
; 546  :         BYTE* mn;
; 547  :         mn = MADDRL( addr, 2, arn, regs, ACCTYPE_WRITE, regs->psw.pkey );

  00052	48 8b 44 24 68	 mov	 rax, QWORD PTR regs$[rsp]
  00057	0f b6 40 79	 movzx	 eax, BYTE PTR [rax+121]
  0005b	88 44 24 28	 mov	 BYTE PTR [rsp+40], al
  0005f	c7 44 24 20 02
	00 00 00	 mov	 DWORD PTR [rsp+32], 2
  00067	4c 8b 4c 24 68	 mov	 r9, QWORD PTR regs$[rsp]
  0006c	44 8b 44 24 60	 mov	 r8d, DWORD PTR arn$[rsp]
  00071	ba 02 00 00 00	 mov	 edx, 2
  00076	48 8b 4c 24 58	 mov	 rcx, QWORD PTR addr$[rsp]
  0007b	e8 00 00 00 00	 call	 z900_maddr_l
  00080	48 89 44 24 38	 mov	 QWORD PTR mn$1[rsp], rax

; 548  :         STORE_HW( mn, value );

  00085	0f b7 4c 24 50	 movzx	 ecx, WORD PTR value$[rsp]
  0008a	e8 00 00 00 00	 call	 _byteswap_ushort
  0008f	0f b7 d0	 movzx	 edx, ax
  00092	48 8b 4c 24 38	 mov	 rcx, QWORD PTR mn$1[rsp]
  00097	e8 00 00 00 00	 call	 store_hw_noswap

; 549  :         ITIMER_UPDATE( addr, 2-1, regs );
; 550  :     }

  0009c	eb 19		 jmp	 SHORT $LN3@z900_vstor
$LN2@z900_vstor:

; 551  :     else
; 552  :         ARCH_DEP( vstore2_full )( value, addr, arn, regs );

  0009e	4c 8b 4c 24 68	 mov	 r9, QWORD PTR regs$[rsp]
  000a3	44 8b 44 24 60	 mov	 r8d, DWORD PTR arn$[rsp]
  000a8	48 8b 54 24 58	 mov	 rdx, QWORD PTR addr$[rsp]
  000ad	0f b7 4c 24 50	 movzx	 ecx, WORD PTR value$[rsp]
  000b2	e8 00 00 00 00	 call	 z900_vstore2_full
$LN3@z900_vstor:

; 553  : }

  000b7	48 83 c4 48	 add	 rsp, 72			; 00000048H
  000bb	c3		 ret	 0
z900_vstore2 ENDP
_TEXT	ENDS
; Function compile flags: /Odtp
; File C:\papa\MyGit\hyperion-zvector\vstore.h
;	COMDAT z900_vstoreb
_TEXT	SEGMENT
main1$ = 48
value$ = 80
addr$ = 88
arn$ = 96
regs$ = 104
z900_vstoreb PROC					; COMDAT

; 529  : {

$LN3:
  00000	4c 89 4c 24 20	 mov	 QWORD PTR [rsp+32], r9
  00005	44 89 44 24 18	 mov	 DWORD PTR [rsp+24], r8d
  0000a	48 89 54 24 10	 mov	 QWORD PTR [rsp+16], rdx
  0000f	88 4c 24 08	 mov	 BYTE PTR [rsp+8], cl
  00013	48 83 ec 48	 sub	 rsp, 72			; 00000048H

; 530  : BYTE   *main1;                          /* Mainstor address          */
; 531  : 
; 532  :     main1 = MADDR( addr, arn, regs, ACCTYPE_WRITE, regs->psw.pkey );

  00017	48 8b 44 24 68	 mov	 rax, QWORD PTR regs$[rsp]
  0001c	0f b6 40 79	 movzx	 eax, BYTE PTR [rax+121]
  00020	88 44 24 28	 mov	 BYTE PTR [rsp+40], al
  00024	c7 44 24 20 02
	00 00 00	 mov	 DWORD PTR [rsp+32], 2
  0002c	4c 8b 4c 24 68	 mov	 r9, QWORD PTR regs$[rsp]
  00031	44 8b 44 24 60	 mov	 r8d, DWORD PTR arn$[rsp]
  00036	ba 01 00 00 00	 mov	 edx, 1
  0003b	48 8b 4c 24 58	 mov	 rcx, QWORD PTR addr$[rsp]
  00040	e8 00 00 00 00	 call	 z900_maddr_l
  00045	48 89 44 24 30	 mov	 QWORD PTR main1$[rsp], rax

; 533  :     *main1 = value;

  0004a	48 8b 44 24 30	 mov	 rax, QWORD PTR main1$[rsp]
  0004f	0f b6 4c 24 50	 movzx	 ecx, BYTE PTR value$[rsp]
  00054	88 08		 mov	 BYTE PTR [rax], cl

; 534  :     ITIMER_UPDATE( addr, 1-1, regs );
; 535  : }

  00056	48 83 c4 48	 add	 rsp, 72			; 00000048H
  0005a	c3		 ret	 0
z900_vstoreb ENDP
_TEXT	ENDS
; Function compile flags: /Odtp
; File C:\papa\MyGit\hyperion-zvector\vstore.h
;	COMDAT z900_vfetch8_full
_TEXT	SEGMENT
len$ = 48
mn$ = 56
temp$ = 64
__$ArrayPad$ = 80
addr$ = 128
arn$ = 136
regs$ = 144
z900_vfetch8_full PROC					; COMDAT

; 457  : {

$LN3:
  00000	4c 89 44 24 18	 mov	 QWORD PTR [rsp+24], r8
  00005	89 54 24 10	 mov	 DWORD PTR [rsp+16], edx
  00009	48 89 4c 24 08	 mov	 QWORD PTR [rsp+8], rcx
  0000e	56		 push	 rsi
  0000f	57		 push	 rdi
  00010	48 83 ec 68	 sub	 rsp, 104		; 00000068H
  00014	48 8b 05 00 00
	00 00		 mov	 rax, QWORD PTR __security_cookie
  0001b	48 33 c4	 xor	 rax, rsp
  0001e	48 89 44 24 50	 mov	 QWORD PTR __$ArrayPad$[rsp], rax

; 458  : BYTE   *mn;                             /* Main storage addresses    */
; 459  : int     len;                            /* Length to end of page     */
; 460  : BYTE    temp[16];                       /* Copy destination          */
; 461  : 
; 462  :     /* Get absolute address of first byte of operand */
; 463  :     len = PAGEFRAME_PAGESIZE - (addr & PAGEFRAME_BYTEMASK);

  00023	48 8b 84 24 80
	00 00 00	 mov	 rax, QWORD PTR addr$[rsp]
  0002b	48 25 ff 0f 00
	00		 and	 rax, 4095		; 00000fffH
  00031	b9 00 10 00 00	 mov	 ecx, 4096		; 00001000H
  00036	48 2b c8	 sub	 rcx, rax
  00039	48 8b c1	 mov	 rax, rcx
  0003c	89 44 24 30	 mov	 DWORD PTR len$[rsp], eax

; 464  :     mn = MADDRL( addr, len, arn, regs, ACCTYPE_READ, regs->psw.pkey );

  00040	48 63 44 24 30	 movsxd	 rax, DWORD PTR len$[rsp]
  00045	48 8b 8c 24 90
	00 00 00	 mov	 rcx, QWORD PTR regs$[rsp]
  0004d	0f b6 49 79	 movzx	 ecx, BYTE PTR [rcx+121]
  00051	88 4c 24 28	 mov	 BYTE PTR [rsp+40], cl
  00055	c7 44 24 20 04
	00 00 00	 mov	 DWORD PTR [rsp+32], 4
  0005d	4c 8b 8c 24 90
	00 00 00	 mov	 r9, QWORD PTR regs$[rsp]
  00065	44 8b 84 24 88
	00 00 00	 mov	 r8d, DWORD PTR arn$[rsp]
  0006d	48 8b d0	 mov	 rdx, rax
  00070	48 8b 8c 24 80
	00 00 00	 mov	 rcx, QWORD PTR addr$[rsp]
  00078	e8 00 00 00 00	 call	 z900_maddr_l
  0007d	48 89 44 24 38	 mov	 QWORD PTR mn$[rsp], rax

; 465  :     memcpy( temp, mn, len);

  00082	48 63 44 24 30	 movsxd	 rax, DWORD PTR len$[rsp]
  00087	48 8d 4c 24 40	 lea	 rcx, QWORD PTR temp$[rsp]
  0008c	48 8b f9	 mov	 rdi, rcx
  0008f	48 8b 74 24 38	 mov	 rsi, QWORD PTR mn$[rsp]
  00094	48 8b c8	 mov	 rcx, rax
  00097	f3 a4		 rep movsb

; 466  :     mn = MADDRL( (addr + len) & ADDRESS_MAXWRAP( regs ), 8 - len, arn, regs,

  00099	b8 08 00 00 00	 mov	 eax, 8
  0009e	2b 44 24 30	 sub	 eax, DWORD PTR len$[rsp]
  000a2	48 98		 cdqe
  000a4	48 63 4c 24 30	 movsxd	 rcx, DWORD PTR len$[rsp]
  000a9	48 8b 94 24 80
	00 00 00	 mov	 rdx, QWORD PTR addr$[rsp]
  000b1	48 03 d1	 add	 rdx, rcx
  000b4	48 8b ca	 mov	 rcx, rdx
  000b7	48 8b 94 24 90
	00 00 00	 mov	 rdx, QWORD PTR regs$[rsp]
  000bf	48 23 8a 90 00
	00 00		 and	 rcx, QWORD PTR [rdx+144]
  000c6	48 8b 94 24 90
	00 00 00	 mov	 rdx, QWORD PTR regs$[rsp]
  000ce	0f b6 52 79	 movzx	 edx, BYTE PTR [rdx+121]
  000d2	88 54 24 28	 mov	 BYTE PTR [rsp+40], dl
  000d6	c7 44 24 20 04
	00 00 00	 mov	 DWORD PTR [rsp+32], 4
  000de	4c 8b 8c 24 90
	00 00 00	 mov	 r9, QWORD PTR regs$[rsp]
  000e6	44 8b 84 24 88
	00 00 00	 mov	 r8d, DWORD PTR arn$[rsp]
  000ee	48 8b d0	 mov	 rdx, rax
  000f1	e8 00 00 00 00	 call	 z900_maddr_l
  000f6	48 89 44 24 38	 mov	 QWORD PTR mn$[rsp], rax

; 467  :                  ACCTYPE_READ, regs->psw.pkey );
; 468  :     memcpy( temp+len, mn, 8 );

  000fb	48 63 44 24 30	 movsxd	 rax, DWORD PTR len$[rsp]
  00100	48 8b 4c 24 38	 mov	 rcx, QWORD PTR mn$[rsp]
  00105	48 8b 09	 mov	 rcx, QWORD PTR [rcx]
  00108	48 89 4c 04 40	 mov	 QWORD PTR temp$[rsp+rax], rcx

; 469  :     return fetch_dw( temp );

  0010d	48 8d 4c 24 40	 lea	 rcx, QWORD PTR temp$[rsp]
  00112	e8 00 00 00 00	 call	 fetch_dw_noswap
  00117	48 8b c8	 mov	 rcx, rax
  0011a	e8 00 00 00 00	 call	 _byteswap_uint64

; 470  : }

  0011f	48 8b 4c 24 50	 mov	 rcx, QWORD PTR __$ArrayPad$[rsp]
  00124	48 33 cc	 xor	 rcx, rsp
  00127	e8 00 00 00 00	 call	 __security_check_cookie
  0012c	48 83 c4 68	 add	 rsp, 104		; 00000068H
  00130	5f		 pop	 rdi
  00131	5e		 pop	 rsi
  00132	c3		 ret	 0
z900_vfetch8_full ENDP
_TEXT	ENDS
; Function compile flags: /Odtp
; File C:\papa\MyGit\hyperion-zvector\vstore.h
;	COMDAT z900_vfetch4_full
_TEXT	SEGMENT
len$ = 48
mn$ = 56
temp$ = 64
__$ArrayPad$ = 72
addr$ = 112
arn$ = 120
regs$ = 128
z900_vfetch4_full PROC					; COMDAT

; 428  : {

$LN3:
  00000	4c 89 44 24 18	 mov	 QWORD PTR [rsp+24], r8
  00005	89 54 24 10	 mov	 DWORD PTR [rsp+16], edx
  00009	48 89 4c 24 08	 mov	 QWORD PTR [rsp+8], rcx
  0000e	56		 push	 rsi
  0000f	57		 push	 rdi
  00010	48 83 ec 58	 sub	 rsp, 88			; 00000058H
  00014	48 8b 05 00 00
	00 00		 mov	 rax, QWORD PTR __security_cookie
  0001b	48 33 c4	 xor	 rax, rsp
  0001e	48 89 44 24 48	 mov	 QWORD PTR __$ArrayPad$[rsp], rax

; 429  : BYTE   *mn;                             /* Main storage addresses    */
; 430  : int     len;                            /* Length to end of page     */
; 431  : BYTE    temp[8];                        /* Copy destination          */
; 432  : 
; 433  :     len = PAGEFRAME_PAGESIZE - (addr & PAGEFRAME_BYTEMASK);

  00023	48 8b 44 24 70	 mov	 rax, QWORD PTR addr$[rsp]
  00028	48 25 ff 0f 00
	00		 and	 rax, 4095		; 00000fffH
  0002e	b9 00 10 00 00	 mov	 ecx, 4096		; 00001000H
  00033	48 2b c8	 sub	 rcx, rax
  00036	48 8b c1	 mov	 rax, rcx
  00039	89 44 24 30	 mov	 DWORD PTR len$[rsp], eax

; 434  :     mn = MADDRL( addr, len, arn, regs, ACCTYPE_READ, regs->psw.pkey );

  0003d	48 63 44 24 30	 movsxd	 rax, DWORD PTR len$[rsp]
  00042	48 8b 8c 24 80
	00 00 00	 mov	 rcx, QWORD PTR regs$[rsp]
  0004a	0f b6 49 79	 movzx	 ecx, BYTE PTR [rcx+121]
  0004e	88 4c 24 28	 mov	 BYTE PTR [rsp+40], cl
  00052	c7 44 24 20 04
	00 00 00	 mov	 DWORD PTR [rsp+32], 4
  0005a	4c 8b 8c 24 80
	00 00 00	 mov	 r9, QWORD PTR regs$[rsp]
  00062	44 8b 44 24 78	 mov	 r8d, DWORD PTR arn$[rsp]
  00067	48 8b d0	 mov	 rdx, rax
  0006a	48 8b 4c 24 70	 mov	 rcx, QWORD PTR addr$[rsp]
  0006f	e8 00 00 00 00	 call	 z900_maddr_l
  00074	48 89 44 24 38	 mov	 QWORD PTR mn$[rsp], rax

; 435  :     memcpy( temp, mn, len);

  00079	48 63 44 24 30	 movsxd	 rax, DWORD PTR len$[rsp]
  0007e	48 8d 4c 24 40	 lea	 rcx, QWORD PTR temp$[rsp]
  00083	48 8b f9	 mov	 rdi, rcx
  00086	48 8b 74 24 38	 mov	 rsi, QWORD PTR mn$[rsp]
  0008b	48 8b c8	 mov	 rcx, rax
  0008e	f3 a4		 rep movsb

; 436  :     mn = MADDRL( (addr + len) & ADDRESS_MAXWRAP( regs ), 4 - len, arn, regs,

  00090	b8 04 00 00 00	 mov	 eax, 4
  00095	2b 44 24 30	 sub	 eax, DWORD PTR len$[rsp]
  00099	48 98		 cdqe
  0009b	48 63 4c 24 30	 movsxd	 rcx, DWORD PTR len$[rsp]
  000a0	48 8b 54 24 70	 mov	 rdx, QWORD PTR addr$[rsp]
  000a5	48 03 d1	 add	 rdx, rcx
  000a8	48 8b ca	 mov	 rcx, rdx
  000ab	48 8b 94 24 80
	00 00 00	 mov	 rdx, QWORD PTR regs$[rsp]
  000b3	48 23 8a 90 00
	00 00		 and	 rcx, QWORD PTR [rdx+144]
  000ba	48 8b 94 24 80
	00 00 00	 mov	 rdx, QWORD PTR regs$[rsp]
  000c2	0f b6 52 79	 movzx	 edx, BYTE PTR [rdx+121]
  000c6	88 54 24 28	 mov	 BYTE PTR [rsp+40], dl
  000ca	c7 44 24 20 04
	00 00 00	 mov	 DWORD PTR [rsp+32], 4
  000d2	4c 8b 8c 24 80
	00 00 00	 mov	 r9, QWORD PTR regs$[rsp]
  000da	44 8b 44 24 78	 mov	 r8d, DWORD PTR arn$[rsp]
  000df	48 8b d0	 mov	 rdx, rax
  000e2	e8 00 00 00 00	 call	 z900_maddr_l
  000e7	48 89 44 24 38	 mov	 QWORD PTR mn$[rsp], rax

; 437  :                   ACCTYPE_READ, regs->psw.pkey );
; 438  :     memcpy( temp+len, mn, 4 - len);

  000ec	b8 04 00 00 00	 mov	 eax, 4
  000f1	2b 44 24 30	 sub	 eax, DWORD PTR len$[rsp]
  000f5	48 98		 cdqe
  000f7	48 63 4c 24 30	 movsxd	 rcx, DWORD PTR len$[rsp]
  000fc	48 8d 4c 0c 40	 lea	 rcx, QWORD PTR temp$[rsp+rcx]
  00101	48 8b f9	 mov	 rdi, rcx
  00104	48 8b 74 24 38	 mov	 rsi, QWORD PTR mn$[rsp]
  00109	48 8b c8	 mov	 rcx, rax
  0010c	f3 a4		 rep movsb

; 439  :     return fetch_fw( temp );

  0010e	48 8d 4c 24 40	 lea	 rcx, QWORD PTR temp$[rsp]
  00113	e8 00 00 00 00	 call	 fetch_fw_noswap
  00118	8b c8		 mov	 ecx, eax
  0011a	e8 00 00 00 00	 call	 _byteswap_ulong

; 440  : }

  0011f	48 8b 4c 24 48	 mov	 rcx, QWORD PTR __$ArrayPad$[rsp]
  00124	48 33 cc	 xor	 rcx, rsp
  00127	e8 00 00 00 00	 call	 __security_check_cookie
  0012c	48 83 c4 58	 add	 rsp, 88			; 00000058H
  00130	5f		 pop	 rdi
  00131	5e		 pop	 rsi
  00132	c3		 ret	 0
z900_vfetch4_full ENDP
_TEXT	ENDS
; Function compile flags: /Odtp
; File C:\papa\MyGit\hyperion-zvector\vstore.h
;	COMDAT z900_vfetch2_full
_TEXT	SEGMENT
value$ = 48
mn$ = 56
addr$ = 80
arn$ = 88
regs$ = 96
z900_vfetch2_full PROC					; COMDAT

; 401  : {

$LN3:
  00000	4c 89 44 24 18	 mov	 QWORD PTR [rsp+24], r8
  00005	89 54 24 10	 mov	 DWORD PTR [rsp+16], edx
  00009	48 89 4c 24 08	 mov	 QWORD PTR [rsp+8], rcx
  0000e	48 83 ec 48	 sub	 rsp, 72			; 00000048H

; 402  : BYTE   *mn;                             /* Main storage addresses    */
; 403  : U16     value;
; 404  : 
; 405  :     mn = MADDR( addr, arn, regs, ACCTYPE_READ, regs->psw.pkey );

  00012	48 8b 44 24 60	 mov	 rax, QWORD PTR regs$[rsp]
  00017	0f b6 40 79	 movzx	 eax, BYTE PTR [rax+121]
  0001b	88 44 24 28	 mov	 BYTE PTR [rsp+40], al
  0001f	c7 44 24 20 04
	00 00 00	 mov	 DWORD PTR [rsp+32], 4
  00027	4c 8b 4c 24 60	 mov	 r9, QWORD PTR regs$[rsp]
  0002c	44 8b 44 24 58	 mov	 r8d, DWORD PTR arn$[rsp]
  00031	ba 01 00 00 00	 mov	 edx, 1
  00036	48 8b 4c 24 50	 mov	 rcx, QWORD PTR addr$[rsp]
  0003b	e8 00 00 00 00	 call	 z900_maddr_l
  00040	48 89 44 24 38	 mov	 QWORD PTR mn$[rsp], rax

; 406  :     value = *mn << 8;

  00045	48 8b 44 24 38	 mov	 rax, QWORD PTR mn$[rsp]
  0004a	0f b6 00	 movzx	 eax, BYTE PTR [rax]
  0004d	c1 e0 08	 shl	 eax, 8
  00050	66 89 44 24 30	 mov	 WORD PTR value$[rsp], ax

; 407  :     mn = MADDR( (addr + 1) & ADDRESS_MAXWRAP( regs ), arn, regs,

  00055	48 8b 44 24 50	 mov	 rax, QWORD PTR addr$[rsp]
  0005a	48 ff c0	 inc	 rax
  0005d	48 8b 4c 24 60	 mov	 rcx, QWORD PTR regs$[rsp]
  00062	48 23 81 90 00
	00 00		 and	 rax, QWORD PTR [rcx+144]
  00069	48 8b 4c 24 60	 mov	 rcx, QWORD PTR regs$[rsp]
  0006e	0f b6 49 79	 movzx	 ecx, BYTE PTR [rcx+121]
  00072	88 4c 24 28	 mov	 BYTE PTR [rsp+40], cl
  00076	c7 44 24 20 04
	00 00 00	 mov	 DWORD PTR [rsp+32], 4
  0007e	4c 8b 4c 24 60	 mov	 r9, QWORD PTR regs$[rsp]
  00083	44 8b 44 24 58	 mov	 r8d, DWORD PTR arn$[rsp]
  00088	ba 01 00 00 00	 mov	 edx, 1
  0008d	48 8b c8	 mov	 rcx, rax
  00090	e8 00 00 00 00	 call	 z900_maddr_l
  00095	48 89 44 24 38	 mov	 QWORD PTR mn$[rsp], rax

; 408  :                  ACCTYPE_READ, regs->psw.pkey );
; 409  :     value |= *mn;

  0009a	48 8b 44 24 38	 mov	 rax, QWORD PTR mn$[rsp]
  0009f	0f b6 00	 movzx	 eax, BYTE PTR [rax]
  000a2	0f b7 4c 24 30	 movzx	 ecx, WORD PTR value$[rsp]
  000a7	0b c8		 or	 ecx, eax
  000a9	8b c1		 mov	 eax, ecx
  000ab	66 89 44 24 30	 mov	 WORD PTR value$[rsp], ax

; 410  :     return value;

  000b0	0f b7 44 24 30	 movzx	 eax, WORD PTR value$[rsp]

; 411  : }

  000b5	48 83 c4 48	 add	 rsp, 72			; 00000048H
  000b9	c3		 ret	 0
z900_vfetch2_full ENDP
_TEXT	ENDS
; Function compile flags: /Odtp
; File C:\papa\MyGit\hyperion-zvector\vstore.h
;	COMDAT z900_vstore8_full
_TEXT	SEGMENT
len$ = 48
sk$ = 56
main1$ = 64
main2$ = 72
temp$ = 80
__$ArrayPad$ = 88
value$ = 128
addr$ = 136
arn$ = 144
regs$ = 152
z900_vstore8_full PROC					; COMDAT

; 369  : {

$LN3:
  00000	4c 89 4c 24 20	 mov	 QWORD PTR [rsp+32], r9
  00005	44 89 44 24 18	 mov	 DWORD PTR [rsp+24], r8d
  0000a	48 89 54 24 10	 mov	 QWORD PTR [rsp+16], rdx
  0000f	48 89 4c 24 08	 mov	 QWORD PTR [rsp+8], rcx
  00014	56		 push	 rsi
  00015	57		 push	 rdi
  00016	48 83 ec 68	 sub	 rsp, 104		; 00000068H
  0001a	48 8b 05 00 00
	00 00		 mov	 rax, QWORD PTR __security_cookie
  00021	48 33 c4	 xor	 rax, rsp
  00024	48 89 44 24 58	 mov	 QWORD PTR __$ArrayPad$[rsp], rax

; 370  : BYTE   *main1, *main2;                  /* Mainstor addresses        */
; 371  : BYTE   *sk;                             /* Storage key addresses     */
; 372  : int     len;                            /* Length to end of page     */
; 373  : BYTE    temp[8];                        /* Copied value              */
; 374  : 
; 375  :     len = PAGEFRAME_PAGESIZE - (addr & PAGEFRAME_BYTEMASK);

  00029	48 8b 84 24 88
	00 00 00	 mov	 rax, QWORD PTR addr$[rsp]
  00031	48 25 ff 0f 00
	00		 and	 rax, 4095		; 00000fffH
  00037	b9 00 10 00 00	 mov	 ecx, 4096		; 00001000H
  0003c	48 2b c8	 sub	 rcx, rax
  0003f	48 8b c1	 mov	 rax, rcx
  00042	89 44 24 30	 mov	 DWORD PTR len$[rsp], eax

; 376  :     main1 = MADDRL( addr, len, arn, regs, ACCTYPE_WRITE_SKP, regs->psw.pkey );

  00046	48 63 44 24 30	 movsxd	 rax, DWORD PTR len$[rsp]
  0004b	48 8b 8c 24 98
	00 00 00	 mov	 rcx, QWORD PTR regs$[rsp]
  00053	0f b6 49 79	 movzx	 ecx, BYTE PTR [rcx+121]
  00057	88 4c 24 28	 mov	 BYTE PTR [rsp+40], cl
  0005b	c7 44 24 20 01
	00 00 00	 mov	 DWORD PTR [rsp+32], 1
  00063	4c 8b 8c 24 98
	00 00 00	 mov	 r9, QWORD PTR regs$[rsp]
  0006b	44 8b 84 24 90
	00 00 00	 mov	 r8d, DWORD PTR arn$[rsp]
  00073	48 8b d0	 mov	 rdx, rax
  00076	48 8b 8c 24 88
	00 00 00	 mov	 rcx, QWORD PTR addr$[rsp]
  0007e	e8 00 00 00 00	 call	 z900_maddr_l
  00083	48 89 44 24 40	 mov	 QWORD PTR main1$[rsp], rax

; 377  :     sk = regs->dat.storkey;

  00088	48 8b 84 24 98
	00 00 00	 mov	 rax, QWORD PTR regs$[rsp]
  00090	48 8b 80 28 08
	00 00		 mov	 rax, QWORD PTR [rax+2088]
  00097	48 89 44 24 38	 mov	 QWORD PTR sk$[rsp], rax

; 378  :     main2 = MADDRL( (addr + len) & ADDRESS_MAXWRAP( regs ), 8-len, arn, regs,

  0009c	b8 08 00 00 00	 mov	 eax, 8
  000a1	2b 44 24 30	 sub	 eax, DWORD PTR len$[rsp]
  000a5	48 98		 cdqe
  000a7	48 63 4c 24 30	 movsxd	 rcx, DWORD PTR len$[rsp]
  000ac	48 8b 94 24 88
	00 00 00	 mov	 rdx, QWORD PTR addr$[rsp]
  000b4	48 03 d1	 add	 rdx, rcx
  000b7	48 8b ca	 mov	 rcx, rdx
  000ba	48 8b 94 24 98
	00 00 00	 mov	 rdx, QWORD PTR regs$[rsp]
  000c2	48 23 8a 90 00
	00 00		 and	 rcx, QWORD PTR [rdx+144]
  000c9	48 8b 94 24 98
	00 00 00	 mov	 rdx, QWORD PTR regs$[rsp]
  000d1	0f b6 52 79	 movzx	 edx, BYTE PTR [rdx+121]
  000d5	88 54 24 28	 mov	 BYTE PTR [rsp+40], dl
  000d9	c7 44 24 20 02
	00 00 00	 mov	 DWORD PTR [rsp+32], 2
  000e1	4c 8b 8c 24 98
	00 00 00	 mov	 r9, QWORD PTR regs$[rsp]
  000e9	44 8b 84 24 90
	00 00 00	 mov	 r8d, DWORD PTR arn$[rsp]
  000f1	48 8b d0	 mov	 rdx, rax
  000f4	e8 00 00 00 00	 call	 z900_maddr_l
  000f9	48 89 44 24 48	 mov	 QWORD PTR main2$[rsp], rax

; 379  :                     ACCTYPE_WRITE, regs->psw.pkey );
; 380  :     *sk |= (STORKEY_REF | STORKEY_CHANGE);

  000fe	48 8b 44 24 38	 mov	 rax, QWORD PTR sk$[rsp]
  00103	0f b6 00	 movzx	 eax, BYTE PTR [rax]
  00106	83 c8 06	 or	 eax, 6
  00109	48 8b 4c 24 38	 mov	 rcx, QWORD PTR sk$[rsp]
  0010e	88 01		 mov	 BYTE PTR [rcx], al

; 381  :     STORE_DW( temp, value );

  00110	48 8b 8c 24 80
	00 00 00	 mov	 rcx, QWORD PTR value$[rsp]
  00118	e8 00 00 00 00	 call	 _byteswap_uint64
  0011d	48 8b d0	 mov	 rdx, rax
  00120	48 8d 4c 24 50	 lea	 rcx, QWORD PTR temp$[rsp]
  00125	e8 00 00 00 00	 call	 store_dw_noswap

; 382  :     memcpy( main1, temp,       len );

  0012a	48 63 44 24 30	 movsxd	 rax, DWORD PTR len$[rsp]
  0012f	48 8d 4c 24 50	 lea	 rcx, QWORD PTR temp$[rsp]
  00134	48 8b 7c 24 40	 mov	 rdi, QWORD PTR main1$[rsp]
  00139	48 8b f1	 mov	 rsi, rcx
  0013c	48 8b c8	 mov	 rcx, rax
  0013f	f3 a4		 rep movsb

; 383  :     memcpy( main2, temp+len, 8-len );

  00141	b8 08 00 00 00	 mov	 eax, 8
  00146	2b 44 24 30	 sub	 eax, DWORD PTR len$[rsp]
  0014a	48 98		 cdqe
  0014c	48 63 4c 24 30	 movsxd	 rcx, DWORD PTR len$[rsp]
  00151	48 8d 4c 0c 50	 lea	 rcx, QWORD PTR temp$[rsp+rcx]
  00156	48 8b 7c 24 48	 mov	 rdi, QWORD PTR main2$[rsp]
  0015b	48 8b f1	 mov	 rsi, rcx
  0015e	48 8b c8	 mov	 rcx, rax
  00161	f3 a4		 rep movsb

; 384  : }

  00163	48 8b 4c 24 58	 mov	 rcx, QWORD PTR __$ArrayPad$[rsp]
  00168	48 33 cc	 xor	 rcx, rsp
  0016b	e8 00 00 00 00	 call	 __security_check_cookie
  00170	48 83 c4 68	 add	 rsp, 104		; 00000068H
  00174	5f		 pop	 rdi
  00175	5e		 pop	 rsi
  00176	c3		 ret	 0
z900_vstore8_full ENDP
_TEXT	ENDS
; Function compile flags: /Odtp
; File C:\papa\MyGit\hyperion-zvector\vstore.h
;	COMDAT z900_vstore4_full
_TEXT	SEGMENT
len$ = 48
temp$ = 52
sk$ = 56
main1$ = 64
main2$ = 72
value$ = 112
addr$ = 120
arn$ = 128
regs$ = 136
z900_vstore4_full PROC					; COMDAT

; 335  : {

$LN3:
  00000	4c 89 4c 24 20	 mov	 QWORD PTR [rsp+32], r9
  00005	44 89 44 24 18	 mov	 DWORD PTR [rsp+24], r8d
  0000a	48 89 54 24 10	 mov	 QWORD PTR [rsp+16], rdx
  0000f	89 4c 24 08	 mov	 DWORD PTR [rsp+8], ecx
  00013	56		 push	 rsi
  00014	57		 push	 rdi
  00015	48 83 ec 58	 sub	 rsp, 88			; 00000058H

; 336  : BYTE   *main1, *main2;                  /* Mainstor addresses        */
; 337  : BYTE   *sk;                             /* Storage key addresses     */
; 338  : int     len;                            /* Length to end of page     */
; 339  : BYTE    temp[4];                        /* Copied value              */
; 340  : 
; 341  :     len = PAGEFRAME_PAGESIZE - (addr & PAGEFRAME_BYTEMASK);

  00019	48 8b 44 24 78	 mov	 rax, QWORD PTR addr$[rsp]
  0001e	48 25 ff 0f 00
	00		 and	 rax, 4095		; 00000fffH
  00024	b9 00 10 00 00	 mov	 ecx, 4096		; 00001000H
  00029	48 2b c8	 sub	 rcx, rax
  0002c	48 8b c1	 mov	 rax, rcx
  0002f	89 44 24 30	 mov	 DWORD PTR len$[rsp], eax

; 342  :     main1 = MADDRL( addr, len, arn, regs, ACCTYPE_WRITE_SKP, regs->psw.pkey );

  00033	48 63 44 24 30	 movsxd	 rax, DWORD PTR len$[rsp]
  00038	48 8b 8c 24 88
	00 00 00	 mov	 rcx, QWORD PTR regs$[rsp]
  00040	0f b6 49 79	 movzx	 ecx, BYTE PTR [rcx+121]
  00044	88 4c 24 28	 mov	 BYTE PTR [rsp+40], cl
  00048	c7 44 24 20 01
	00 00 00	 mov	 DWORD PTR [rsp+32], 1
  00050	4c 8b 8c 24 88
	00 00 00	 mov	 r9, QWORD PTR regs$[rsp]
  00058	44 8b 84 24 80
	00 00 00	 mov	 r8d, DWORD PTR arn$[rsp]
  00060	48 8b d0	 mov	 rdx, rax
  00063	48 8b 4c 24 78	 mov	 rcx, QWORD PTR addr$[rsp]
  00068	e8 00 00 00 00	 call	 z900_maddr_l
  0006d	48 89 44 24 40	 mov	 QWORD PTR main1$[rsp], rax

; 343  :     sk = regs->dat.storkey;

  00072	48 8b 84 24 88
	00 00 00	 mov	 rax, QWORD PTR regs$[rsp]
  0007a	48 8b 80 28 08
	00 00		 mov	 rax, QWORD PTR [rax+2088]
  00081	48 89 44 24 38	 mov	 QWORD PTR sk$[rsp], rax

; 344  :     main2 = MADDRL( (addr + len) & ADDRESS_MAXWRAP( regs ), 4-len, arn, regs,

  00086	b8 04 00 00 00	 mov	 eax, 4
  0008b	2b 44 24 30	 sub	 eax, DWORD PTR len$[rsp]
  0008f	48 98		 cdqe
  00091	48 63 4c 24 30	 movsxd	 rcx, DWORD PTR len$[rsp]
  00096	48 8b 54 24 78	 mov	 rdx, QWORD PTR addr$[rsp]
  0009b	48 03 d1	 add	 rdx, rcx
  0009e	48 8b ca	 mov	 rcx, rdx
  000a1	48 8b 94 24 88
	00 00 00	 mov	 rdx, QWORD PTR regs$[rsp]
  000a9	48 23 8a 90 00
	00 00		 and	 rcx, QWORD PTR [rdx+144]
  000b0	48 8b 94 24 88
	00 00 00	 mov	 rdx, QWORD PTR regs$[rsp]
  000b8	0f b6 52 79	 movzx	 edx, BYTE PTR [rdx+121]
  000bc	88 54 24 28	 mov	 BYTE PTR [rsp+40], dl
  000c0	c7 44 24 20 02
	00 00 00	 mov	 DWORD PTR [rsp+32], 2
  000c8	4c 8b 8c 24 88
	00 00 00	 mov	 r9, QWORD PTR regs$[rsp]
  000d0	44 8b 84 24 80
	00 00 00	 mov	 r8d, DWORD PTR arn$[rsp]
  000d8	48 8b d0	 mov	 rdx, rax
  000db	e8 00 00 00 00	 call	 z900_maddr_l
  000e0	48 89 44 24 48	 mov	 QWORD PTR main2$[rsp], rax

; 345  :                     ACCTYPE_WRITE, regs->psw.pkey );
; 346  :     *sk |= (STORKEY_REF | STORKEY_CHANGE);

  000e5	48 8b 44 24 38	 mov	 rax, QWORD PTR sk$[rsp]
  000ea	0f b6 00	 movzx	 eax, BYTE PTR [rax]
  000ed	83 c8 06	 or	 eax, 6
  000f0	48 8b 4c 24 38	 mov	 rcx, QWORD PTR sk$[rsp]
  000f5	88 01		 mov	 BYTE PTR [rcx], al

; 347  :     STORE_FW( temp, value );

  000f7	8b 4c 24 70	 mov	 ecx, DWORD PTR value$[rsp]
  000fb	e8 00 00 00 00	 call	 _byteswap_ulong
  00100	8b d0		 mov	 edx, eax
  00102	48 8d 4c 24 34	 lea	 rcx, QWORD PTR temp$[rsp]
  00107	e8 00 00 00 00	 call	 store_fw_noswap

; 348  :     memcpy( main1, temp,       len );

  0010c	48 63 44 24 30	 movsxd	 rax, DWORD PTR len$[rsp]
  00111	48 8d 4c 24 34	 lea	 rcx, QWORD PTR temp$[rsp]
  00116	48 8b 7c 24 40	 mov	 rdi, QWORD PTR main1$[rsp]
  0011b	48 8b f1	 mov	 rsi, rcx
  0011e	48 8b c8	 mov	 rcx, rax
  00121	f3 a4		 rep movsb

; 349  :     memcpy( main2, temp+len, 4-len );

  00123	b8 04 00 00 00	 mov	 eax, 4
  00128	2b 44 24 30	 sub	 eax, DWORD PTR len$[rsp]
  0012c	48 98		 cdqe
  0012e	48 63 4c 24 30	 movsxd	 rcx, DWORD PTR len$[rsp]
  00133	48 8d 4c 0c 34	 lea	 rcx, QWORD PTR temp$[rsp+rcx]
  00138	48 8b 7c 24 48	 mov	 rdi, QWORD PTR main2$[rsp]
  0013d	48 8b f1	 mov	 rsi, rcx
  00140	48 8b c8	 mov	 rcx, rax
  00143	f3 a4		 rep movsb

; 350  : }

  00145	48 83 c4 58	 add	 rsp, 88			; 00000058H
  00149	5f		 pop	 rdi
  0014a	5e		 pop	 rsi
  0014b	c3		 ret	 0
z900_vstore4_full ENDP
_TEXT	ENDS
; Function compile flags: /Odtp
; File C:\papa\MyGit\hyperion-zvector\vstore.h
;	COMDAT z900_vstore2_full
_TEXT	SEGMENT
sk$ = 48
main1$ = 56
main2$ = 64
value$ = 96
addr$ = 104
arn$ = 112
regs$ = 120
z900_vstore2_full PROC					; COMDAT

; 308  : {

$LN3:
  00000	4c 89 4c 24 20	 mov	 QWORD PTR [rsp+32], r9
  00005	44 89 44 24 18	 mov	 DWORD PTR [rsp+24], r8d
  0000a	48 89 54 24 10	 mov	 QWORD PTR [rsp+16], rdx
  0000f	66 89 4c 24 08	 mov	 WORD PTR [rsp+8], cx
  00014	48 83 ec 58	 sub	 rsp, 88			; 00000058H

; 309  : BYTE   *main1, *main2;                  /* Mainstor addresses        */
; 310  : BYTE   *sk;                             /* Storage key addresses     */
; 311  : 
; 312  :     main1 = MADDR( addr, arn, regs, ACCTYPE_WRITE_SKP, regs->psw.pkey );

  00018	48 8b 44 24 78	 mov	 rax, QWORD PTR regs$[rsp]
  0001d	0f b6 40 79	 movzx	 eax, BYTE PTR [rax+121]
  00021	88 44 24 28	 mov	 BYTE PTR [rsp+40], al
  00025	c7 44 24 20 01
	00 00 00	 mov	 DWORD PTR [rsp+32], 1
  0002d	4c 8b 4c 24 78	 mov	 r9, QWORD PTR regs$[rsp]
  00032	44 8b 44 24 70	 mov	 r8d, DWORD PTR arn$[rsp]
  00037	ba 01 00 00 00	 mov	 edx, 1
  0003c	48 8b 4c 24 68	 mov	 rcx, QWORD PTR addr$[rsp]
  00041	e8 00 00 00 00	 call	 z900_maddr_l
  00046	48 89 44 24 38	 mov	 QWORD PTR main1$[rsp], rax

; 313  :     sk = regs->dat.storkey;

  0004b	48 8b 44 24 78	 mov	 rax, QWORD PTR regs$[rsp]
  00050	48 8b 80 28 08
	00 00		 mov	 rax, QWORD PTR [rax+2088]
  00057	48 89 44 24 30	 mov	 QWORD PTR sk$[rsp], rax

; 314  :     main2 = MADDR( (addr + 1) & ADDRESS_MAXWRAP( regs ), arn, regs,

  0005c	48 8b 44 24 68	 mov	 rax, QWORD PTR addr$[rsp]
  00061	48 ff c0	 inc	 rax
  00064	48 8b 4c 24 78	 mov	 rcx, QWORD PTR regs$[rsp]
  00069	48 23 81 90 00
	00 00		 and	 rax, QWORD PTR [rcx+144]
  00070	48 8b 4c 24 78	 mov	 rcx, QWORD PTR regs$[rsp]
  00075	0f b6 49 79	 movzx	 ecx, BYTE PTR [rcx+121]
  00079	88 4c 24 28	 mov	 BYTE PTR [rsp+40], cl
  0007d	c7 44 24 20 02
	00 00 00	 mov	 DWORD PTR [rsp+32], 2
  00085	4c 8b 4c 24 78	 mov	 r9, QWORD PTR regs$[rsp]
  0008a	44 8b 44 24 70	 mov	 r8d, DWORD PTR arn$[rsp]
  0008f	ba 01 00 00 00	 mov	 edx, 1
  00094	48 8b c8	 mov	 rcx, rax
  00097	e8 00 00 00 00	 call	 z900_maddr_l
  0009c	48 89 44 24 40	 mov	 QWORD PTR main2$[rsp], rax

; 315  :                     ACCTYPE_WRITE, regs->psw.pkey );
; 316  :     *sk |= (STORKEY_REF | STORKEY_CHANGE);

  000a1	48 8b 44 24 30	 mov	 rax, QWORD PTR sk$[rsp]
  000a6	0f b6 00	 movzx	 eax, BYTE PTR [rax]
  000a9	83 c8 06	 or	 eax, 6
  000ac	48 8b 4c 24 30	 mov	 rcx, QWORD PTR sk$[rsp]
  000b1	88 01		 mov	 BYTE PTR [rcx], al

; 317  :     *main1 = value >> 8;

  000b3	0f b7 44 24 60	 movzx	 eax, WORD PTR value$[rsp]
  000b8	c1 f8 08	 sar	 eax, 8
  000bb	48 8b 4c 24 38	 mov	 rcx, QWORD PTR main1$[rsp]
  000c0	88 01		 mov	 BYTE PTR [rcx], al

; 318  :     *main2 = value & 0xFF;

  000c2	0f b7 44 24 60	 movzx	 eax, WORD PTR value$[rsp]
  000c7	25 ff 00 00 00	 and	 eax, 255		; 000000ffH
  000cc	48 8b 4c 24 40	 mov	 rcx, QWORD PTR main2$[rsp]
  000d1	88 01		 mov	 BYTE PTR [rcx], al

; 319  : }

  000d3	48 83 c4 58	 add	 rsp, 88			; 00000058H
  000d7	c3		 ret	 0
z900_vstore2_full ENDP
_TEXT	ENDS
; Function compile flags: /Odtp
; File C:\papa\MyGit\hyperion-zvector\dat.h
;	COMDAT z900_maddr_l
_TEXT	SEGMENT
tlbix$ = 48
aea_crn$ = 52
tv70 = 56
maddr$ = 64
addr$ = 96
len$ = 104
arn$ = 112
regs$ = 120
acctype$ = 128
akey$ = 136
z900_maddr_l PROC					; COMDAT

; 307  : {

$LN18:
  00000	4c 89 4c 24 20	 mov	 QWORD PTR [rsp+32], r9
  00005	44 89 44 24 18	 mov	 DWORD PTR [rsp+24], r8d
  0000a	48 89 54 24 10	 mov	 QWORD PTR [rsp+16], rdx
  0000f	48 89 4c 24 08	 mov	 QWORD PTR [rsp+8], rcx
  00014	48 83 ec 58	 sub	 rsp, 88			; 00000058H

; 308  :     /* Note: ALL of the below conditions must be true for a TLB hit
; 309  :        to occur.  If ANY of them are false, then it's a TLB miss,
; 310  :        requiring us to then perform a full DAT address translation.
; 311  : 
; 312  :        Note too that on the grand scheme of things the order/sequence
; 313  :        of the below tests (if statements) is completely unimportant
; 314  :        since ALL conditions must be checked anyway in order for a hit
; 315  :        to occur, and it doesn't matter that a miss tests a few extra
; 316  :        conditions since it's going to do a full translation anyway!
; 317  :        (which is many, many instructions)
; 318  :     */
; 319  : 
; 320  :     int  aea_crn  = (arn >= USE_ARMODE) ? 0 : regs->AEA_AR( arn );

  00018	83 7c 24 70 10	 cmp	 DWORD PTR arn$[rsp], 16
  0001d	7c 0a		 jl	 SHORT $LN16@z900_maddr
  0001f	c7 44 24 38 00
	00 00 00	 mov	 DWORD PTR tv70[rsp], 0
  00027	eb 19		 jmp	 SHORT $LN17@z900_maddr
$LN16@z900_maddr:
  00029	8b 44 24 70	 mov	 eax, DWORD PTR arn$[rsp]
  0002d	83 c0 05	 add	 eax, 5
  00030	48 98		 cdqe
  00032	48 8b 4c 24 78	 mov	 rcx, QWORD PTR regs$[rsp]
  00037	8b 84 81 94 0c
	00 00		 mov	 eax, DWORD PTR [rcx+rax*4+3220]
  0003e	89 44 24 38	 mov	 DWORD PTR tv70[rsp], eax
$LN17@z900_maddr:
  00042	8b 44 24 38	 mov	 eax, DWORD PTR tv70[rsp]
  00046	89 44 24 34	 mov	 DWORD PTR aea_crn$[rsp], eax

; 321  :     U16  tlbix    = TLBIX( addr );

  0004a	48 8b 44 24 60	 mov	 rax, QWORD PTR addr$[rsp]
  0004f	48 c1 e8 0c	 shr	 rax, 12
  00053	48 25 ff 03 00
	00		 and	 rax, 1023		; 000003ffH
  00059	66 89 44 24 30	 mov	 WORD PTR tlbix$[rsp], ax

; 322  :     BYTE *maddr   = NULL;

  0005e	48 c7 44 24 40
	00 00 00 00	 mov	 QWORD PTR maddr$[rsp], 0

; 323  : 
; 324  :     /* Non-zero AEA Control Register number? */
; 325  :     if (aea_crn)

  00067	83 7c 24 34 00	 cmp	 DWORD PTR aea_crn$[rsp], 0
  0006c	0f 84 2d 01 00
	00		 je	 $LN2@z900_maddr

; 326  :     {
; 327  :         /* Same Addess Space Designator as before? */
; 328  :         /* Or if not, is address in a common segment? */
; 329  :         if (0
; 330  :             || (regs->CR( aea_crn ) == regs->tlb.TLB_ASD( tlbix ))
; 331  :             || (regs->AEA_COMMON( aea_crn ) & regs->tlb.common[ tlbix ])

  00072	33 c0		 xor	 eax, eax
  00074	85 c0		 test	 eax, eax
  00076	75 5a		 jne	 SHORT $LN4@z900_maddr
  00078	8b 44 24 34	 mov	 eax, DWORD PTR aea_crn$[rsp]
  0007c	ff c0		 inc	 eax
  0007e	48 98		 cdqe
  00080	0f b7 4c 24 30	 movzx	 ecx, WORD PTR tlbix$[rsp]
  00085	48 8b 54 24 78	 mov	 rdx, QWORD PTR regs$[rsp]
  0008a	4c 8b 44 24 78	 mov	 r8, QWORD PTR regs$[rsp]
  0008f	49 8b 8c c8 60
	b0 00 00	 mov	 rcx, QWORD PTR [r8+rcx*8+45152]
  00097	48 39 8c c2 00
	06 00 00	 cmp	 QWORD PTR [rdx+rax*8+1536], rcx
  0009f	74 31		 je	 SHORT $LN4@z900_maddr
  000a1	8b 44 24 34	 mov	 eax, DWORD PTR aea_crn$[rsp]
  000a5	ff c0		 inc	 eax
  000a7	48 98		 cdqe
  000a9	48 8b 4c 24 78	 mov	 rcx, QWORD PTR regs$[rsp]
  000ae	0f b6 84 01 e8
	0c 00 00	 movzx	 eax, BYTE PTR [rcx+rax+3304]
  000b6	0f b7 4c 24 30	 movzx	 ecx, WORD PTR tlbix$[rsp]
  000bb	48 8b 54 24 78	 mov	 rdx, QWORD PTR regs$[rsp]
  000c0	0f b6 8c 0a 60
	54 01 00	 movzx	 ecx, BYTE PTR [rdx+rcx+87136]
  000c8	23 c1		 and	 eax, ecx
  000ca	85 c0		 test	 eax, eax
  000cc	0f 84 cd 00 00
	00		 je	 $LN3@z900_maddr
$LN4@z900_maddr:

; 332  :         )
; 333  :         {
; 334  :             /* Storage Key zero? */
; 335  :             /* Or if not, same Storage Key as before? */
; 336  :             if (0
; 337  :                 || akey == 0
; 338  :                 || akey == regs->tlb.skey[ tlbix ]

  000d2	33 c0		 xor	 eax, eax
  000d4	85 c0		 test	 eax, eax
  000d6	75 2e		 jne	 SHORT $LN6@z900_maddr
  000d8	0f b6 84 24 88
	00 00 00	 movzx	 eax, BYTE PTR akey$[rsp]
  000e0	85 c0		 test	 eax, eax
  000e2	74 22		 je	 SHORT $LN6@z900_maddr
  000e4	0f b6 84 24 88
	00 00 00	 movzx	 eax, BYTE PTR akey$[rsp]
  000ec	0f b7 4c 24 30	 movzx	 ecx, WORD PTR tlbix$[rsp]
  000f1	48 8b 54 24 78	 mov	 rdx, QWORD PTR regs$[rsp]
  000f6	0f b6 8c 0a 60
	50 01 00	 movzx	 ecx, BYTE PTR [rdx+rcx+86112]
  000fe	3b c1		 cmp	 eax, ecx
  00100	0f 85 99 00 00
	00		 jne	 $LN5@z900_maddr
$LN6@z900_maddr:

; 339  :             )
; 340  :             {
; 341  :                 /* Does the page address match the one in the TLB? */
; 342  :                 /* (does a TLB entry exist for this page address?) */
; 343  :                 if (
; 344  :                     ((addr & TLBID_PAGEMASK) | regs->tlbID)
; 345  :                     ==

  00106	48 8b 44 24 60	 mov	 rax, QWORD PTR addr$[rsp]
  0010b	48 25 00 00 c0
	ff		 and	 rax, -4194304		; ffffffffffc00000H
  00111	48 8b 4c 24 78	 mov	 rcx, QWORD PTR regs$[rsp]
  00116	8b 89 58 b0 00
	00		 mov	 ecx, DWORD PTR [rcx+45144]
  0011c	48 0b c1	 or	 rax, rcx
  0011f	0f b7 4c 24 30	 movzx	 ecx, WORD PTR tlbix$[rsp]
  00124	48 8b 54 24 78	 mov	 rdx, QWORD PTR regs$[rsp]
  00129	48 3b 84 ca 60
	d0 00 00	 cmp	 rax, QWORD PTR [rdx+rcx*8+53344]
  00131	75 6c		 jne	 SHORT $LN7@z900_maddr

; 346  :                     regs->tlb.TLB_VADDR( tlbix )
; 347  :                 )
; 348  :                 {
; 349  :                     /* Is storage being accessed same way as before? */
; 350  :                     if (acctype & regs->tlb.acc[ tlbix ])

  00133	0f b7 44 24 30	 movzx	 eax, WORD PTR tlbix$[rsp]
  00138	48 8b 4c 24 78	 mov	 rcx, QWORD PTR regs$[rsp]
  0013d	0f b6 84 01 60
	5c 01 00	 movzx	 eax, BYTE PTR [rcx+rax+89184]
  00145	8b 8c 24 80 00
	00 00		 mov	 ecx, DWORD PTR acctype$[rsp]
  0014c	23 c8		 and	 ecx, eax
  0014e	8b c1		 mov	 eax, ecx
  00150	85 c0		 test	 eax, eax
  00152	74 4b		 je	 SHORT $LN8@z900_maddr

; 351  :                     {
; 352  :                         /*------------------------------------------*/
; 353  :                         /* TLB hit: use previously translated value */
; 354  :                         /*------------------------------------------*/
; 355  : 
; 356  :                         if (acctype & ACC_CHECK)

  00154	8b 84 24 80 00
	00 00		 mov	 eax, DWORD PTR acctype$[rsp]
  0015b	83 e0 01	 and	 eax, 1
  0015e	85 c0		 test	 eax, eax
  00160	74 1e		 je	 SHORT $LN9@z900_maddr

; 357  :                             regs->dat.storkey = regs->tlb.storkey[ tlbix ];

  00162	0f b7 44 24 30	 movzx	 eax, WORD PTR tlbix$[rsp]
  00167	48 8b 4c 24 78	 mov	 rcx, QWORD PTR regs$[rsp]
  0016c	48 8b 54 24 78	 mov	 rdx, QWORD PTR regs$[rsp]
  00171	48 8b 84 c2 60
	30 01 00	 mov	 rax, QWORD PTR [rdx+rax*8+77920]
  00179	48 89 81 28 08
	00 00		 mov	 QWORD PTR [rcx+2088], rax
$LN9@z900_maddr:

; 358  : 
; 359  :                         maddr = MAINADDR( regs->tlb.main[tlbix], addr );

  00180	0f b7 44 24 30	 movzx	 eax, WORD PTR tlbix$[rsp]
  00185	48 8b 4c 24 78	 mov	 rcx, QWORD PTR regs$[rsp]
  0018a	48 8b 54 24 60	 mov	 rdx, QWORD PTR addr$[rsp]
  0018f	48 8b 84 c1 60
	10 01 00	 mov	 rax, QWORD PTR [rcx+rax*8+69728]
  00197	48 33 c2	 xor	 rax, rdx
  0019a	48 89 44 24 40	 mov	 QWORD PTR maddr$[rsp], rax
$LN8@z900_maddr:
$LN7@z900_maddr:
$LN5@z900_maddr:
$LN3@z900_maddr:
$LN2@z900_maddr:

; 360  :                     }
; 361  :                 }
; 362  :             }
; 363  :         }
; 364  :     }
; 365  : 
; 366  :     /*---------------------------------------*/
; 367  :     /* TLB miss: do full address translation */
; 368  :     /*---------------------------------------*/
; 369  :     if (!maddr)

  0019f	48 83 7c 24 40
	00		 cmp	 QWORD PTR maddr$[rsp], 0
  001a5	75 36		 jne	 SHORT $LN10@z900_maddr

; 370  :         maddr = ARCH_DEP( logical_to_main_l )( addr, arn, regs, acctype, akey, len );

  001a7	48 8b 44 24 68	 mov	 rax, QWORD PTR len$[rsp]
  001ac	48 89 44 24 28	 mov	 QWORD PTR [rsp+40], rax
  001b1	0f b6 84 24 88
	00 00 00	 movzx	 eax, BYTE PTR akey$[rsp]
  001b9	88 44 24 20	 mov	 BYTE PTR [rsp+32], al
  001bd	44 8b 8c 24 80
	00 00 00	 mov	 r9d, DWORD PTR acctype$[rsp]
  001c5	4c 8b 44 24 78	 mov	 r8, QWORD PTR regs$[rsp]
  001ca	8b 54 24 70	 mov	 edx, DWORD PTR arn$[rsp]
  001ce	48 8b 4c 24 60	 mov	 rcx, QWORD PTR addr$[rsp]
  001d3	e8 00 00 00 00	 call	 z900_logical_to_main_l
  001d8	48 89 44 24 40	 mov	 QWORD PTR maddr$[rsp], rax
$LN10@z900_maddr:

; 371  : 
; 372  : #if defined( FEATURE_073_TRANSACT_EXEC_FACILITY )
; 373  :     if (FACILITY_ENABLED( 073_TRANSACT_EXEC, regs ))

  001dd	b8 01 00 00 00	 mov	 eax, 1
  001e2	48 6b c0 09	 imul	 rax, rax, 9
  001e6	48 8b 4c 24 78	 mov	 rcx, QWORD PTR regs$[rsp]
  001eb	0f b6 84 01 28
	0d 00 00	 movzx	 eax, BYTE PTR [rcx+rax+3368]
  001f3	83 e0 40	 and	 eax, 64			; 00000040H
  001f6	85 c0		 test	 eax, eax
  001f8	0f 84 89 00 00
	00		 je	 $LN11@z900_maddr

; 374  :     {
; 375  :         /* SA22-7832-12 Principles of Operation, page 5-99:
; 376  : 
; 377  :              "Storage accesses for instruction and DAT- and ART-
; 378  :               table fetches follow the non-transactional rules."
; 379  :         */
; 380  :         if (0
; 381  :             || !regs
; 382  :             || !regs->txf_tnd
; 383  :             || arn == USE_INST_SPACE    /* Instruction fetching */
; 384  :             || arn == USE_REAL_ADDR     /* Address translation  */

  001fe	33 c0		 xor	 eax, eax
  00200	85 c0		 test	 eax, eax
  00202	75 26		 jne	 SHORT $LN13@z900_maddr
  00204	48 83 7c 24 78
	00		 cmp	 QWORD PTR regs$[rsp], 0
  0020a	74 1e		 je	 SHORT $LN13@z900_maddr
  0020c	48 8b 44 24 78	 mov	 rax, QWORD PTR regs$[rsp]
  00211	0f b6 80 58 0e
	00 00		 movzx	 eax, BYTE PTR [rax+3672]
  00218	85 c0		 test	 eax, eax
  0021a	74 0e		 je	 SHORT $LN13@z900_maddr
  0021c	83 7c 24 70 ff	 cmp	 DWORD PTR arn$[rsp], -1
  00221	74 07		 je	 SHORT $LN13@z900_maddr
  00223	83 7c 24 70 fe	 cmp	 DWORD PTR arn$[rsp], -2
  00228	75 07		 jne	 SHORT $LN12@z900_maddr
$LN13@z900_maddr:

; 385  :         )
; 386  :             return maddr;

  0022a	48 8b 44 24 40	 mov	 rax, QWORD PTR maddr$[rsp]
  0022f	eb 5b		 jmp	 SHORT $LN1@z900_maddr
$LN12@z900_maddr:

; 387  : 
; 388  :         /* Quick exit if NTSTG call */
; 389  :         if (regs->txf_NTSTG)

  00231	48 8b 44 24 78	 mov	 rax, QWORD PTR regs$[rsp]
  00236	0f b6 80 4b 0e
	00 00		 movzx	 eax, BYTE PTR [rax+3659]
  0023d	85 c0		 test	 eax, eax
  0023f	74 13		 je	 SHORT $LN14@z900_maddr

; 390  :         {
; 391  :             regs->txf_NTSTG = false;

  00241	48 8b 44 24 78	 mov	 rax, QWORD PTR regs$[rsp]
  00246	c6 80 4b 0e 00
	00 00		 mov	 BYTE PTR [rax+3659], 0

; 392  :             return maddr;

  0024d	48 8b 44 24 40	 mov	 rax, QWORD PTR maddr$[rsp]
  00252	eb 38		 jmp	 SHORT $LN1@z900_maddr
$LN14@z900_maddr:

; 393  :         }
; 394  : 
; 395  :         /* Translate to alternate TXF address */
; 396  :         maddr = TXF_MADDRL( addr, len, arn, regs, acctype, maddr );

  00254	48 8b 44 24 40	 mov	 rax, QWORD PTR maddr$[rsp]
  00259	48 89 44 24 28	 mov	 QWORD PTR [rsp+40], rax
  0025e	8b 84 24 80 00
	00 00		 mov	 eax, DWORD PTR acctype$[rsp]
  00265	89 44 24 20	 mov	 DWORD PTR [rsp+32], eax
  00269	4c 8b 4c 24 78	 mov	 r9, QWORD PTR regs$[rsp]
  0026e	44 8b 44 24 70	 mov	 r8d, DWORD PTR arn$[rsp]
  00273	48 8b 54 24 68	 mov	 rdx, QWORD PTR len$[rsp]
  00278	48 8b 4c 24 60	 mov	 rcx, QWORD PTR addr$[rsp]
  0027d	e8 00 00 00 00	 call	 txf_maddr_l
  00282	48 89 44 24 40	 mov	 QWORD PTR maddr$[rsp], rax
$LN11@z900_maddr:

; 397  :     }
; 398  : #endif
; 399  : 
; 400  :     return maddr;

  00287	48 8b 44 24 40	 mov	 rax, QWORD PTR maddr$[rsp]
$LN1@z900_maddr:

; 401  : }

  0028c	48 83 c4 58	 add	 rsp, 88			; 00000058H
  00290	c3		 ret	 0
z900_maddr_l ENDP
_TEXT	ENDS
; Function compile flags: /Odtp
; File C:\papa\MyGit\hyperion-zvector\inline.h
;	COMDAT z900_per3_zero_xcheck2
_TEXT	SEGMENT
tv81 = 32
tv131 = 40
tv150 = 48
tv181 = 56
tv166 = 64
regs$ = 96
x2$ = 104
b2$ = 112
z900_per3_zero_xcheck2 PROC				; COMDAT

; 765  : {

$LN18:
  00000	44 89 44 24 18	 mov	 DWORD PTR [rsp+24], r8d
  00005	89 54 24 10	 mov	 DWORD PTR [rsp+16], edx
  00009	48 89 4c 24 08	 mov	 QWORD PTR [rsp+8], rcx
  0000e	48 83 ec 58	 sub	 rsp, 88			; 00000058H

; 766  : #if defined( FEATURE_PER_ZERO_ADDRESS_DETECTION_FACILITY )
; 767  :     if (0
; 768  :         || (!b2 && x2 && GR_A( x2, regs ) == 0)
; 769  :         || (!x2 && b2 && GR_A( b2, regs ) == 0)
; 770  :         || ( b2 && x2 && (0

  00012	33 c0		 xor	 eax, eax
  00014	85 c0		 test	 eax, eax
  00016	0f 85 ba 01 00
	00		 jne	 $LN3@z900_per3_
  0001c	83 7c 24 70 00	 cmp	 DWORD PTR b2$[rsp], 0
  00021	75 54		 jne	 SHORT $LN4@z900_per3_
  00023	83 7c 24 68 00	 cmp	 DWORD PTR x2$[rsp], 0
  00028	74 4d		 je	 SHORT $LN4@z900_per3_
  0002a	48 8b 44 24 60	 mov	 rax, QWORD PTR regs$[rsp]
  0002f	8b 80 80 00 00
	00		 mov	 eax, DWORD PTR [rax+128]
  00035	83 e0 01	 and	 eax, 1
  00038	85 c0		 test	 eax, eax
  0003a	74 19		 je	 SHORT $LN8@z900_per3_
  0003c	48 63 44 24 68	 movsxd	 rax, DWORD PTR x2$[rsp]
  00041	48 8b 4c 24 60	 mov	 rcx, QWORD PTR regs$[rsp]
  00046	48 8b 84 c1 80
	02 00 00	 mov	 rax, QWORD PTR [rcx+rax*8+640]
  0004e	48 89 44 24 20	 mov	 QWORD PTR tv81[rsp], rax
  00053	eb 16		 jmp	 SHORT $LN9@z900_per3_
$LN8@z900_per3_:
  00055	48 63 44 24 68	 movsxd	 rax, DWORD PTR x2$[rsp]
  0005a	48 8b 4c 24 60	 mov	 rcx, QWORD PTR regs$[rsp]
  0005f	8b 84 c1 80 02
	00 00		 mov	 eax, DWORD PTR [rcx+rax*8+640]
  00066	48 89 44 24 20	 mov	 QWORD PTR tv81[rsp], rax
$LN9@z900_per3_:
  0006b	48 83 7c 24 20
	00		 cmp	 QWORD PTR tv81[rsp], 0
  00071	0f 84 5f 01 00
	00		 je	 $LN3@z900_per3_
$LN4@z900_per3_:
  00077	83 7c 24 68 00	 cmp	 DWORD PTR x2$[rsp], 0
  0007c	75 54		 jne	 SHORT $LN5@z900_per3_
  0007e	83 7c 24 70 00	 cmp	 DWORD PTR b2$[rsp], 0
  00083	74 4d		 je	 SHORT $LN5@z900_per3_
  00085	48 8b 44 24 60	 mov	 rax, QWORD PTR regs$[rsp]
  0008a	8b 80 80 00 00
	00		 mov	 eax, DWORD PTR [rax+128]
  00090	83 e0 01	 and	 eax, 1
  00093	85 c0		 test	 eax, eax
  00095	74 19		 je	 SHORT $LN10@z900_per3_
  00097	48 63 44 24 70	 movsxd	 rax, DWORD PTR b2$[rsp]
  0009c	48 8b 4c 24 60	 mov	 rcx, QWORD PTR regs$[rsp]
  000a1	48 8b 84 c1 80
	02 00 00	 mov	 rax, QWORD PTR [rcx+rax*8+640]
  000a9	48 89 44 24 28	 mov	 QWORD PTR tv131[rsp], rax
  000ae	eb 16		 jmp	 SHORT $LN11@z900_per3_
$LN10@z900_per3_:
  000b0	48 63 44 24 70	 movsxd	 rax, DWORD PTR b2$[rsp]
  000b5	48 8b 4c 24 60	 mov	 rcx, QWORD PTR regs$[rsp]
  000ba	8b 84 c1 80 02
	00 00		 mov	 eax, DWORD PTR [rcx+rax*8+640]
  000c1	48 89 44 24 28	 mov	 QWORD PTR tv131[rsp], rax
$LN11@z900_per3_:
  000c6	48 83 7c 24 28
	00		 cmp	 QWORD PTR tv131[rsp], 0
  000cc	0f 84 04 01 00
	00		 je	 $LN3@z900_per3_
$LN5@z900_per3_:
  000d2	83 7c 24 70 00	 cmp	 DWORD PTR b2$[rsp], 0
  000d7	0f 84 03 01 00
	00		 je	 $LN2@z900_per3_
  000dd	83 7c 24 68 00	 cmp	 DWORD PTR x2$[rsp], 0
  000e2	0f 84 f8 00 00
	00		 je	 $LN2@z900_per3_
  000e8	33 c0		 xor	 eax, eax
  000ea	85 c0		 test	 eax, eax
  000ec	0f 85 e4 00 00
	00		 jne	 $LN6@z900_per3_
  000f2	48 8b 44 24 60	 mov	 rax, QWORD PTR regs$[rsp]
  000f7	8b 80 80 00 00
	00		 mov	 eax, DWORD PTR [rax+128]
  000fd	83 e0 01	 and	 eax, 1
  00100	85 c0		 test	 eax, eax
  00102	74 19		 je	 SHORT $LN12@z900_per3_
  00104	48 63 44 24 70	 movsxd	 rax, DWORD PTR b2$[rsp]
  00109	48 8b 4c 24 60	 mov	 rcx, QWORD PTR regs$[rsp]
  0010e	48 8b 84 c1 80
	02 00 00	 mov	 rax, QWORD PTR [rcx+rax*8+640]
  00116	48 89 44 24 30	 mov	 QWORD PTR tv150[rsp], rax
  0011b	eb 16		 jmp	 SHORT $LN13@z900_per3_
$LN12@z900_per3_:
  0011d	48 63 44 24 70	 movsxd	 rax, DWORD PTR b2$[rsp]
  00122	48 8b 4c 24 60	 mov	 rcx, QWORD PTR regs$[rsp]
  00127	8b 84 c1 80 02
	00 00		 mov	 eax, DWORD PTR [rcx+rax*8+640]
  0012e	48 89 44 24 30	 mov	 QWORD PTR tv150[rsp], rax
$LN13@z900_per3_:
  00133	48 83 7c 24 30
	00		 cmp	 QWORD PTR tv150[rsp], 0
  00139	0f 84 97 00 00
	00		 je	 $LN6@z900_per3_
  0013f	48 8b 44 24 60	 mov	 rax, QWORD PTR regs$[rsp]
  00144	8b 80 80 00 00
	00		 mov	 eax, DWORD PTR [rax+128]
  0014a	83 e0 01	 and	 eax, 1
  0014d	85 c0		 test	 eax, eax
  0014f	74 19		 je	 SHORT $LN14@z900_per3_
  00151	48 63 44 24 70	 movsxd	 rax, DWORD PTR b2$[rsp]
  00156	48 8b 4c 24 60	 mov	 rcx, QWORD PTR regs$[rsp]
  0015b	48 8b 84 c1 80
	02 00 00	 mov	 rax, QWORD PTR [rcx+rax*8+640]
  00163	48 89 44 24 40	 mov	 QWORD PTR tv166[rsp], rax
  00168	eb 16		 jmp	 SHORT $LN15@z900_per3_
$LN14@z900_per3_:
  0016a	48 63 44 24 70	 movsxd	 rax, DWORD PTR b2$[rsp]
  0016f	48 8b 4c 24 60	 mov	 rcx, QWORD PTR regs$[rsp]
  00174	8b 84 c1 80 02
	00 00		 mov	 eax, DWORD PTR [rcx+rax*8+640]
  0017b	48 89 44 24 40	 mov	 QWORD PTR tv166[rsp], rax
$LN15@z900_per3_:
  00180	48 8b 44 24 60	 mov	 rax, QWORD PTR regs$[rsp]
  00185	8b 80 80 00 00
	00		 mov	 eax, DWORD PTR [rax+128]
  0018b	83 e0 01	 and	 eax, 1
  0018e	85 c0		 test	 eax, eax
  00190	74 19		 je	 SHORT $LN16@z900_per3_
  00192	48 63 44 24 68	 movsxd	 rax, DWORD PTR x2$[rsp]
  00197	48 8b 4c 24 60	 mov	 rcx, QWORD PTR regs$[rsp]
  0019c	48 8b 84 c1 80
	02 00 00	 mov	 rax, QWORD PTR [rcx+rax*8+640]
  001a4	48 89 44 24 38	 mov	 QWORD PTR tv181[rsp], rax
  001a9	eb 16		 jmp	 SHORT $LN17@z900_per3_
$LN16@z900_per3_:
  001ab	48 63 44 24 68	 movsxd	 rax, DWORD PTR x2$[rsp]
  001b0	48 8b 4c 24 60	 mov	 rcx, QWORD PTR regs$[rsp]
  001b5	8b 84 c1 80 02
	00 00		 mov	 eax, DWORD PTR [rcx+rax*8+640]
  001bc	48 89 44 24 38	 mov	 QWORD PTR tv181[rsp], rax
$LN17@z900_per3_:
  001c1	48 8b 44 24 38	 mov	 rax, QWORD PTR tv181[rsp]
  001c6	48 8b 4c 24 40	 mov	 rcx, QWORD PTR tv166[rsp]
  001cb	48 03 c8	 add	 rcx, rax
  001ce	48 8b c1	 mov	 rax, rcx
  001d1	48 85 c0	 test	 rax, rax
  001d4	75 0a		 jne	 SHORT $LN2@z900_per3_
$LN6@z900_per3_:
$LN3@z900_per3_:

; 771  :                           || GR_A( b2, regs ) == 0
; 772  :                           || GR_A( b2, regs ) + GR_A( x2, regs ) == 0
; 773  :                          )
; 774  :            )
; 775  :     )
; 776  :         ARCH_DEP( per3_zero )( regs );

  001d6	48 8b 4c 24 60	 mov	 rcx, QWORD PTR regs$[rsp]
  001db	e8 00 00 00 00	 call	 z900_per3_zero
$LN2@z900_per3_:

; 777  : #else
; 778  :     UNREFERENCED( regs );
; 779  :     UNREFERENCED( x2 );
; 780  :     UNREFERENCED( b2 );
; 781  : #endif
; 782  : }

  001e0	48 83 c4 58	 add	 rsp, 88			; 00000058H
  001e4	c3		 ret	 0
z900_per3_zero_xcheck2 ENDP
_TEXT	ENDS
; Function compile flags: /Odtp
; File C:\papa\MyGit\hyperion-zvector\inline.h
;	COMDAT z900_per3_zero_xcheck
_TEXT	SEGMENT
tv79 = 32
regs$ = 64
b1$ = 72
z900_per3_zero_xcheck PROC				; COMDAT

; 754  : {

$LN6:
  00000	89 54 24 10	 mov	 DWORD PTR [rsp+16], edx
  00004	48 89 4c 24 08	 mov	 QWORD PTR [rsp+8], rcx
  00009	48 83 ec 38	 sub	 rsp, 56			; 00000038H

; 755  : #if defined( FEATURE_PER_ZERO_ADDRESS_DETECTION_FACILITY )
; 756  :     if (b1 && GR_A( b1, regs ) == 0)

  0000d	83 7c 24 48 00	 cmp	 DWORD PTR b1$[rsp], 0
  00012	74 53		 je	 SHORT $LN2@z900_per3_
  00014	48 8b 44 24 40	 mov	 rax, QWORD PTR regs$[rsp]
  00019	8b 80 80 00 00
	00		 mov	 eax, DWORD PTR [rax+128]
  0001f	83 e0 01	 and	 eax, 1
  00022	85 c0		 test	 eax, eax
  00024	74 19		 je	 SHORT $LN4@z900_per3_
  00026	48 63 44 24 48	 movsxd	 rax, DWORD PTR b1$[rsp]
  0002b	48 8b 4c 24 40	 mov	 rcx, QWORD PTR regs$[rsp]
  00030	48 8b 84 c1 80
	02 00 00	 mov	 rax, QWORD PTR [rcx+rax*8+640]
  00038	48 89 44 24 20	 mov	 QWORD PTR tv79[rsp], rax
  0003d	eb 16		 jmp	 SHORT $LN5@z900_per3_
$LN4@z900_per3_:
  0003f	48 63 44 24 48	 movsxd	 rax, DWORD PTR b1$[rsp]
  00044	48 8b 4c 24 40	 mov	 rcx, QWORD PTR regs$[rsp]
  00049	8b 84 c1 80 02
	00 00		 mov	 eax, DWORD PTR [rcx+rax*8+640]
  00050	48 89 44 24 20	 mov	 QWORD PTR tv79[rsp], rax
$LN5@z900_per3_:
  00055	48 83 7c 24 20
	00		 cmp	 QWORD PTR tv79[rsp], 0
  0005b	75 0a		 jne	 SHORT $LN2@z900_per3_

; 757  :         ARCH_DEP( per3_zero )( regs );

  0005d	48 8b 4c 24 40	 mov	 rcx, QWORD PTR regs$[rsp]
  00062	e8 00 00 00 00	 call	 z900_per3_zero
$LN2@z900_per3_:

; 758  : #else
; 759  :     UNREFERENCED( regs );
; 760  :     UNREFERENCED( b1 );
; 761  : #endif
; 762  : }

  00067	48 83 c4 38	 add	 rsp, 56			; 00000038H
  0006b	c3		 ret	 0
z900_per3_zero_xcheck ENDP
_TEXT	ENDS
; Function compile flags: /Odtp
; File C:\papa\MyGit\hyperion-zvector\inline.h
;	COMDAT z900_per3_zero
_TEXT	SEGMENT
tv75 = 32
regs$ = 64
z900_per3_zero PROC					; COMDAT

; 602  : {

$LN12:
  00000	48 89 4c 24 08	 mov	 QWORD PTR [rsp+8], rcx
  00005	48 83 ec 38	 sub	 rsp, 56			; 00000038H

; 603  : #if defined( FEATURE_PER_ZERO_ADDRESS_DETECTION_FACILITY )
; 604  :     if (1
; 605  :         && EN_IC_PER_ZEROADDR( regs )
; 606  :         && !IS_PER_SUPRESS( regs, CR9_ZEROADDR )

  00009	33 c0		 xor	 eax, eax
  0000b	83 f8 01	 cmp	 eax, 1
  0000e	0f 84 be 00 00
	00		 je	 $LN5@z900_per3_
  00014	48 8b 44 24 40	 mov	 rax, QWORD PTR regs$[rsp]
  00019	8b 80 28 07 00
	00		 mov	 eax, DWORD PTR [rax+1832]
  0001f	c1 e8 02	 shr	 eax, 2
  00022	83 e0 01	 and	 eax, 1
  00025	85 c0		 test	 eax, eax
  00027	74 0a		 je	 SHORT $LN10@z900_per3_
  00029	c7 44 24 20 01
	00 00 00	 mov	 DWORD PTR tv75[rsp], 1
  00031	eb 08		 jmp	 SHORT $LN11@z900_per3_
$LN10@z900_per3_:
  00033	c7 44 24 20 00
	00 00 00	 mov	 DWORD PTR tv75[rsp], 0
$LN11@z900_per3_:
  0003b	83 7c 24 20 00	 cmp	 DWORD PTR tv75[rsp], 0
  00040	0f 84 8c 00 00
	00		 je	 $LN5@z900_per3_
  00046	48 8b 44 24 40	 mov	 rax, QWORD PTR regs$[rsp]
  0004b	8b 40 48	 mov	 eax, DWORD PTR [rax+72]
  0004e	25 00 00 04 00	 and	 eax, 262144		; 00040000H
  00053	85 c0		 test	 eax, eax
  00055	74 7b		 je	 SHORT $LN5@z900_per3_
  00057	ba 00 00 00 04	 mov	 edx, 67108864		; 04000000H
  0005c	48 8b 4c 24 40	 mov	 rcx, QWORD PTR regs$[rsp]
  00061	e8 00 00 00 00	 call	 z900_is_per3_event_suppressed
  00066	0f b6 c0	 movzx	 eax, al
  00069	85 c0		 test	 eax, eax
  0006b	75 65		 jne	 SHORT $LN5@z900_per3_

; 607  :     )
; 608  :     {
; 609  :         regs->peradr = regs->periaddr;

  0006d	48 8b 44 24 40	 mov	 rax, QWORD PTR regs$[rsp]
  00072	48 8b 4c 24 40	 mov	 rcx, QWORD PTR regs$[rsp]
  00077	48 8b 89 e8 08
	00 00		 mov	 rcx, QWORD PTR [rcx+2280]
  0007e	48 89 88 d8 08
	00 00		 mov	 QWORD PTR [rax+2264], rcx
$LN4@z900_per3_:

; 610  :         ON_IC_PER_ZEROADDR( regs );

  00085	48 8b 44 24 40	 mov	 rax, QWORD PTR regs$[rsp]
  0008a	8b 40 4c	 mov	 eax, DWORD PTR [rax+76]
  0008d	0f ba e8 12	 bts	 eax, 18
  00091	48 8b 4c 24 40	 mov	 rcx, QWORD PTR regs$[rsp]
  00096	89 41 4c	 mov	 DWORD PTR [rcx+76], eax
  00099	33 c0		 xor	 eax, eax
  0009b	85 c0		 test	 eax, eax
  0009d	75 e6		 jne	 SHORT $LN4@z900_per3_

; 611  :         if (OPEN_IC_PER_ZEROADDR( regs ))

  0009f	48 8b 44 24 40	 mov	 rax, QWORD PTR regs$[rsp]
  000a4	48 8b 4c 24 40	 mov	 rcx, QWORD PTR regs$[rsp]
  000a9	8b 49 4c	 mov	 ecx, DWORD PTR [rcx+76]
  000ac	8b 40 48	 mov	 eax, DWORD PTR [rax+72]
  000af	23 c1		 and	 eax, ecx
  000b1	25 00 00 04 00	 and	 eax, 262144		; 00040000H
  000b6	85 c0		 test	 eax, eax
  000b8	74 18		 je	 SHORT $LN6@z900_per3_

; 612  :             RETURN_INTCHECK( regs );

  000ba	48 8b 44 24 40	 mov	 rax, QWORD PTR regs$[rsp]
  000bf	48 05 80 09 00
	00		 add	 rax, 2432		; 00000980H
  000c5	ba ff ff ff ff	 mov	 edx, -1
  000ca	48 8b c8	 mov	 rcx, rax
  000cd	e8 00 00 00 00	 call	 longjmp
$LN6@z900_per3_:
$LN5@z900_per3_:
$LN7@z900_per3_:

; 613  :     }
; 614  : #else
; 615  :     UNREFERENCED( regs );
; 616  : #endif
; 617  : }

  000d2	48 83 c4 38	 add	 rsp, 56			; 00000038H
  000d6	c3		 ret	 0
z900_per3_zero ENDP
_TEXT	ENDS
; Function compile flags: /Odtp
; File C:\papa\MyGit\hyperion-zvector\inline.h
;	COMDAT z900_is_per3_event_suppressed
_TEXT	SEGMENT
regs$ = 8
cr9_per_event$ = 16
z900_is_per3_event_suppressed PROC			; COMDAT

; 566  : {

  00000	89 54 24 10	 mov	 DWORD PTR [rsp+16], edx
  00004	48 89 4c 24 08	 mov	 QWORD PTR [rsp+8], rcx

; 567  : #if !defined( FEATURE_PER3 )
; 568  :     UNREFERENCED( regs );
; 569  :     UNREFERENCED( cr9_per_event );
; 570  : #else
; 571  :     /* DON'T suppress this event if Event Suppression isn't enabled */
; 572  :     if (!(regs->CR_L(9) & CR9_SUPPRESS))

  00009	b8 08 00 00 00	 mov	 eax, 8
  0000e	48 6b c0 0a	 imul	 rax, rax, 10
  00012	48 8b 4c 24 08	 mov	 rcx, QWORD PTR regs$[rsp]
  00017	8b 84 01 00 06
	00 00		 mov	 eax, DWORD PTR [rcx+rax+1536]
  0001e	25 00 00 40 00	 and	 eax, 4194304		; 00400000H
  00023	85 c0		 test	 eax, eax
  00025	75 04		 jne	 SHORT $LN2@z900_is_pe

; 573  :         return false;

  00027	32 c0		 xor	 al, al
  00029	eb 78		 jmp	 SHORT $LN1@z900_is_pe
$LN2@z900_is_pe:

; 574  : 
; 575  :     /* Is this PER event one that is ALLOWED to be suppressed? */
; 576  :     if (cr9_per_event & CR9_SUPPRESSABLE)

  0002b	8b 44 24 10	 mov	 eax, DWORD PTR cr9_per_event$[rsp]
  0002f	25 00 00 00 ed	 and	 eax, -318767104		; ed000000H
  00034	85 c0		 test	 eax, eax
  00036	74 69		 je	 SHORT $LN3@z900_is_pe

; 577  :     {
; 578  :         /* Is there an active transaction? */
; 579  :         if (regs->txf_tnd)

  00038	48 8b 44 24 08	 mov	 rax, QWORD PTR regs$[rsp]
  0003d	0f b6 80 58 0e
	00 00		 movzx	 eax, BYTE PTR [rax+3672]
  00044	85 c0		 test	 eax, eax
  00046	74 04		 je	 SHORT $LN4@z900_is_pe

; 580  :             return true;        /* Yes, then suppress it! */

  00048	b0 01		 mov	 al, 1
  0004a	eb 57		 jmp	 SHORT $LN1@z900_is_pe
$LN4@z900_is_pe:

; 581  : 
; 582  :         /* Suppress instruction-fetch events for TBEGIN/TBEGINC */
; 583  :         if (1
; 584  :             && cr9_per_event & CR9_IF
; 585  :             && *(regs->ip+0) == 0xE5
; 586  :             && (0

  0004c	33 c0		 xor	 eax, eax
  0004e	83 f8 01	 cmp	 eax, 1
  00051	74 4e		 je	 SHORT $LN5@z900_is_pe
  00053	8b 44 24 10	 mov	 eax, DWORD PTR cr9_per_event$[rsp]
  00057	25 00 00 00 40	 and	 eax, 1073741824		; 40000000H
  0005c	85 c0		 test	 eax, eax
  0005e	74 41		 je	 SHORT $LN5@z900_is_pe
  00060	48 8b 44 24 08	 mov	 rax, QWORD PTR regs$[rsp]
  00065	48 8b 40 68	 mov	 rax, QWORD PTR [rax+104]
  00069	0f b6 00	 movzx	 eax, BYTE PTR [rax]
  0006c	3d e5 00 00 00	 cmp	 eax, 229		; 000000e5H
  00071	75 2e		 jne	 SHORT $LN5@z900_is_pe
  00073	33 c0		 xor	 eax, eax
  00075	85 c0		 test	 eax, eax
  00077	75 24		 jne	 SHORT $LN6@z900_is_pe
  00079	48 8b 44 24 08	 mov	 rax, QWORD PTR regs$[rsp]
  0007e	48 8b 40 68	 mov	 rax, QWORD PTR [rax+104]
  00082	0f b6 40 01	 movzx	 eax, BYTE PTR [rax+1]
  00086	83 f8 60	 cmp	 eax, 96			; 00000060H
  00089	74 12		 je	 SHORT $LN6@z900_is_pe
  0008b	48 8b 44 24 08	 mov	 rax, QWORD PTR regs$[rsp]
  00090	48 8b 40 68	 mov	 rax, QWORD PTR [rax+104]
  00094	0f b6 40 01	 movzx	 eax, BYTE PTR [rax+1]
  00098	83 f8 61	 cmp	 eax, 97			; 00000061H
  0009b	75 04		 jne	 SHORT $LN5@z900_is_pe
$LN6@z900_is_pe:

; 587  :                 || *(regs->ip+1) == 0x60
; 588  :                 || *(regs->ip+1) == 0x61
; 589  :                )
; 590  :         )
; 591  :             return true;        /* TBEGIN/TBEGINC: suppress it! */

  0009d	b0 01		 mov	 al, 1
  0009f	eb 02		 jmp	 SHORT $LN1@z900_is_pe
$LN5@z900_is_pe:
$LN3@z900_is_pe:

; 592  :     }
; 593  : #endif
; 594  :     /* Otherwise DON'T suppress this PER event */
; 595  :     return false;

  000a1	32 c0		 xor	 al, al
$LN1@z900_is_pe:

; 596  : }

  000a3	c3		 ret	 0
z900_is_per3_event_suppressed ENDP
_TEXT	ENDS
; Function compile flags: /Odtp
; File C:\papa\MyGit\hyperion-zvector\general3.c
_TEXT	SEGMENT
m4$ = 32
temp$1 = 36
r1$ = 40
r2$ = 44
r3$ = 48
inst$ = 80
regs$ = 88
z900_select_fullword_high_register PROC

; 3461 : {

$LN9:
  00000	48 89 54 24 10	 mov	 QWORD PTR [rsp+16], rdx
  00005	48 89 4c 24 08	 mov	 QWORD PTR [rsp+8], rcx
  0000a	48 83 ec 48	 sub	 rsp, 72			; 00000048H

; 3462 : int     r1, r2, r3;                     /* Value of R fields         */
; 3463 : BYTE    m4;                             /* Value of M field          */
; 3464 : 
; 3465 :     RRF_RM( inst, regs, r1, r2, r3, m4 );

  0000e	48 8b 4c 24 50	 mov	 rcx, QWORD PTR inst$[rsp]
  00013	e8 00 00 00 00	 call	 fetch_fw_noswap
  00018	8b c8		 mov	 ecx, eax
  0001a	e8 00 00 00 00	 call	 _byteswap_ulong
  0001f	89 44 24 24	 mov	 DWORD PTR temp$1[rsp], eax
  00023	8b 44 24 24	 mov	 eax, DWORD PTR temp$1[rsp]
  00027	83 e0 0f	 and	 eax, 15
  0002a	89 44 24 2c	 mov	 DWORD PTR r2$[rsp], eax
  0002e	8b 44 24 24	 mov	 eax, DWORD PTR temp$1[rsp]
  00032	c1 e8 04	 shr	 eax, 4
  00035	83 e0 0f	 and	 eax, 15
  00038	89 44 24 28	 mov	 DWORD PTR r1$[rsp], eax
  0003c	8b 44 24 24	 mov	 eax, DWORD PTR temp$1[rsp]
  00040	c1 e8 08	 shr	 eax, 8
  00043	83 e0 0f	 and	 eax, 15
  00046	88 44 24 20	 mov	 BYTE PTR m4$[rsp], al
  0004a	8b 44 24 24	 mov	 eax, DWORD PTR temp$1[rsp]
  0004e	c1 e8 0c	 shr	 eax, 12
  00051	83 e0 0f	 and	 eax, 15
  00054	89 44 24 30	 mov	 DWORD PTR r3$[rsp], eax
$LN4@z900_selec:
  00058	48 8b 44 24 58	 mov	 rax, QWORD PTR regs$[rsp]
  0005d	48 8b 40 68	 mov	 rax, QWORD PTR [rax+104]
  00061	48 83 c0 04	 add	 rax, 4
  00065	48 8b 4c 24 58	 mov	 rcx, QWORD PTR regs$[rsp]
  0006a	48 89 41 68	 mov	 QWORD PTR [rcx+104], rax
  0006e	33 c0		 xor	 eax, eax
  00070	83 f8 04	 cmp	 eax, 4
  00073	74 0c		 je	 SHORT $LN5@z900_selec
  00075	48 8b 44 24 58	 mov	 rax, QWORD PTR regs$[rsp]
  0007a	c6 80 9a 00 00
	00 04		 mov	 BYTE PTR [rax+154], 4
$LN5@z900_selec:
  00081	33 c0		 xor	 eax, eax
  00083	85 c0		 test	 eax, eax
  00085	75 d1		 jne	 SHORT $LN4@z900_selec

; 3466 : 
; 3467 :     /* Test M4 mask bit corresponding to condition code */
; 3468 :     if (m4 & (0x08 >> regs->psw.cc))

  00087	0f b6 44 24 20	 movzx	 eax, BYTE PTR m4$[rsp]
  0008c	48 8b 4c 24 58	 mov	 rcx, QWORD PTR regs$[rsp]
  00091	0f b6 49 7c	 movzx	 ecx, BYTE PTR [rcx+124]
  00095	ba 08 00 00 00	 mov	 edx, 8
  0009a	d3 fa		 sar	 edx, cl
  0009c	8b ca		 mov	 ecx, edx
  0009e	23 c1		 and	 eax, ecx
  000a0	85 c0		 test	 eax, eax
  000a2	74 25		 je	 SHORT $LN6@z900_selec

; 3469 :     {
; 3470 :         /* Load R1 bits 0-31 with R2 bits 0-31 */
; 3471 :         regs->GR_H(r1) = regs->GR_H(r2);

  000a4	48 63 44 24 2c	 movsxd	 rax, DWORD PTR r2$[rsp]
  000a9	48 63 4c 24 28	 movsxd	 rcx, DWORD PTR r1$[rsp]
  000ae	48 8b 54 24 58	 mov	 rdx, QWORD PTR regs$[rsp]
  000b3	4c 8b 44 24 58	 mov	 r8, QWORD PTR regs$[rsp]
  000b8	41 8b 84 c0 84
	02 00 00	 mov	 eax, DWORD PTR [r8+rax*8+644]
  000c0	89 84 ca 84 02
	00 00		 mov	 DWORD PTR [rdx+rcx*8+644], eax

; 3472 :     }

  000c7	eb 23		 jmp	 SHORT $LN7@z900_selec
$LN6@z900_selec:

; 3473 :     else
; 3474 :     {
; 3475 :         /* Load R1 bits 0-31 with R3 bits 0-31 */
; 3476 :         regs->GR_H(r1) = regs->GR_H(r3);

  000c9	48 63 44 24 30	 movsxd	 rax, DWORD PTR r3$[rsp]
  000ce	48 63 4c 24 28	 movsxd	 rcx, DWORD PTR r1$[rsp]
  000d3	48 8b 54 24 58	 mov	 rdx, QWORD PTR regs$[rsp]
  000d8	4c 8b 44 24 58	 mov	 r8, QWORD PTR regs$[rsp]
  000dd	41 8b 84 c0 84
	02 00 00	 mov	 eax, DWORD PTR [r8+rax*8+644]
  000e5	89 84 ca 84 02
	00 00		 mov	 DWORD PTR [rdx+rcx*8+644], eax
$LN7@z900_selec:

; 3477 :     }
; 3478 : }

  000ec	48 83 c4 48	 add	 rsp, 72			; 00000048H
  000f0	c3		 ret	 0
z900_select_fullword_high_register ENDP
_TEXT	ENDS
; Function compile flags: /Odtp
; File C:\papa\MyGit\hyperion-zvector\general3.c
_TEXT	SEGMENT
m4$ = 32
temp$1 = 36
r1$ = 40
r2$ = 44
r3$ = 48
inst$ = 80
regs$ = 88
z900_select_register_long PROC

; 3438 : {

$LN9:
  00000	48 89 54 24 10	 mov	 QWORD PTR [rsp+16], rdx
  00005	48 89 4c 24 08	 mov	 QWORD PTR [rsp+8], rcx
  0000a	48 83 ec 48	 sub	 rsp, 72			; 00000048H

; 3439 : int     r1, r2, r3;                     /* Value of R fields         */
; 3440 : BYTE    m4;                             /* Value of M field          */
; 3441 : 
; 3442 :     RRF_RM( inst, regs, r1, r2, r3, m4 );

  0000e	48 8b 4c 24 50	 mov	 rcx, QWORD PTR inst$[rsp]
  00013	e8 00 00 00 00	 call	 fetch_fw_noswap
  00018	8b c8		 mov	 ecx, eax
  0001a	e8 00 00 00 00	 call	 _byteswap_ulong
  0001f	89 44 24 24	 mov	 DWORD PTR temp$1[rsp], eax
  00023	8b 44 24 24	 mov	 eax, DWORD PTR temp$1[rsp]
  00027	83 e0 0f	 and	 eax, 15
  0002a	89 44 24 2c	 mov	 DWORD PTR r2$[rsp], eax
  0002e	8b 44 24 24	 mov	 eax, DWORD PTR temp$1[rsp]
  00032	c1 e8 04	 shr	 eax, 4
  00035	83 e0 0f	 and	 eax, 15
  00038	89 44 24 28	 mov	 DWORD PTR r1$[rsp], eax
  0003c	8b 44 24 24	 mov	 eax, DWORD PTR temp$1[rsp]
  00040	c1 e8 08	 shr	 eax, 8
  00043	83 e0 0f	 and	 eax, 15
  00046	88 44 24 20	 mov	 BYTE PTR m4$[rsp], al
  0004a	8b 44 24 24	 mov	 eax, DWORD PTR temp$1[rsp]
  0004e	c1 e8 0c	 shr	 eax, 12
  00051	83 e0 0f	 and	 eax, 15
  00054	89 44 24 30	 mov	 DWORD PTR r3$[rsp], eax
$LN4@z900_selec:
  00058	48 8b 44 24 58	 mov	 rax, QWORD PTR regs$[rsp]
  0005d	48 8b 40 68	 mov	 rax, QWORD PTR [rax+104]
  00061	48 83 c0 04	 add	 rax, 4
  00065	48 8b 4c 24 58	 mov	 rcx, QWORD PTR regs$[rsp]
  0006a	48 89 41 68	 mov	 QWORD PTR [rcx+104], rax
  0006e	33 c0		 xor	 eax, eax
  00070	83 f8 04	 cmp	 eax, 4
  00073	74 0c		 je	 SHORT $LN5@z900_selec
  00075	48 8b 44 24 58	 mov	 rax, QWORD PTR regs$[rsp]
  0007a	c6 80 9a 00 00
	00 04		 mov	 BYTE PTR [rax+154], 4
$LN5@z900_selec:
  00081	33 c0		 xor	 eax, eax
  00083	85 c0		 test	 eax, eax
  00085	75 d1		 jne	 SHORT $LN4@z900_selec

; 3443 : 
; 3444 :     /* Test M4 mask bit corresponding to condition code */
; 3445 :     if (m4 & (0x08 >> regs->psw.cc))

  00087	0f b6 44 24 20	 movzx	 eax, BYTE PTR m4$[rsp]
  0008c	48 8b 4c 24 58	 mov	 rcx, QWORD PTR regs$[rsp]
  00091	0f b6 49 7c	 movzx	 ecx, BYTE PTR [rcx+124]
  00095	ba 08 00 00 00	 mov	 edx, 8
  0009a	d3 fa		 sar	 edx, cl
  0009c	8b ca		 mov	 ecx, edx
  0009e	23 c1		 and	 eax, ecx
  000a0	85 c0		 test	 eax, eax
  000a2	74 26		 je	 SHORT $LN6@z900_selec

; 3446 :     {
; 3447 :         /* Load R1 bits 0-63 with R2 bits 0-63 */
; 3448 :         regs->GR_G(r1) = regs->GR_G(r2);

  000a4	48 63 44 24 2c	 movsxd	 rax, DWORD PTR r2$[rsp]
  000a9	48 63 4c 24 28	 movsxd	 rcx, DWORD PTR r1$[rsp]
  000ae	48 8b 54 24 58	 mov	 rdx, QWORD PTR regs$[rsp]
  000b3	4c 8b 44 24 58	 mov	 r8, QWORD PTR regs$[rsp]
  000b8	49 8b 84 c0 80
	02 00 00	 mov	 rax, QWORD PTR [r8+rax*8+640]
  000c0	48 89 84 ca 80
	02 00 00	 mov	 QWORD PTR [rdx+rcx*8+640], rax

; 3449 :     }

  000c8	eb 24		 jmp	 SHORT $LN7@z900_selec
$LN6@z900_selec:

; 3450 :     else
; 3451 :     {
; 3452 :         /* Load R1 bits 0-63 with R3 bits 0-63 */
; 3453 :         regs->GR_G(r1) = regs->GR_G(r3);

  000ca	48 63 44 24 30	 movsxd	 rax, DWORD PTR r3$[rsp]
  000cf	48 63 4c 24 28	 movsxd	 rcx, DWORD PTR r1$[rsp]
  000d4	48 8b 54 24 58	 mov	 rdx, QWORD PTR regs$[rsp]
  000d9	4c 8b 44 24 58	 mov	 r8, QWORD PTR regs$[rsp]
  000de	49 8b 84 c0 80
	02 00 00	 mov	 rax, QWORD PTR [r8+rax*8+640]
  000e6	48 89 84 ca 80
	02 00 00	 mov	 QWORD PTR [rdx+rcx*8+640], rax
$LN7@z900_selec:

; 3454 :     }
; 3455 : }

  000ee	48 83 c4 48	 add	 rsp, 72			; 00000048H
  000f2	c3		 ret	 0
z900_select_register_long ENDP
_TEXT	ENDS
; Function compile flags: /Odtp
; File C:\papa\MyGit\hyperion-zvector\general3.c
_TEXT	SEGMENT
m4$ = 32
temp$1 = 36
r1$ = 40
r2$ = 44
r3$ = 48
inst$ = 80
regs$ = 88
z900_select_register PROC

; 3415 : {

$LN9:
  00000	48 89 54 24 10	 mov	 QWORD PTR [rsp+16], rdx
  00005	48 89 4c 24 08	 mov	 QWORD PTR [rsp+8], rcx
  0000a	48 83 ec 48	 sub	 rsp, 72			; 00000048H

; 3416 : int     r1, r2, r3;                     /* Value of R fields         */
; 3417 : BYTE    m4;                             /* Value of M field          */
; 3418 : 
; 3419 :     RRF_RM( inst, regs, r1, r2, r3, m4 );

  0000e	48 8b 4c 24 50	 mov	 rcx, QWORD PTR inst$[rsp]
  00013	e8 00 00 00 00	 call	 fetch_fw_noswap
  00018	8b c8		 mov	 ecx, eax
  0001a	e8 00 00 00 00	 call	 _byteswap_ulong
  0001f	89 44 24 24	 mov	 DWORD PTR temp$1[rsp], eax
  00023	8b 44 24 24	 mov	 eax, DWORD PTR temp$1[rsp]
  00027	83 e0 0f	 and	 eax, 15
  0002a	89 44 24 2c	 mov	 DWORD PTR r2$[rsp], eax
  0002e	8b 44 24 24	 mov	 eax, DWORD PTR temp$1[rsp]
  00032	c1 e8 04	 shr	 eax, 4
  00035	83 e0 0f	 and	 eax, 15
  00038	89 44 24 28	 mov	 DWORD PTR r1$[rsp], eax
  0003c	8b 44 24 24	 mov	 eax, DWORD PTR temp$1[rsp]
  00040	c1 e8 08	 shr	 eax, 8
  00043	83 e0 0f	 and	 eax, 15
  00046	88 44 24 20	 mov	 BYTE PTR m4$[rsp], al
  0004a	8b 44 24 24	 mov	 eax, DWORD PTR temp$1[rsp]
  0004e	c1 e8 0c	 shr	 eax, 12
  00051	83 e0 0f	 and	 eax, 15
  00054	89 44 24 30	 mov	 DWORD PTR r3$[rsp], eax
$LN4@z900_selec:
  00058	48 8b 44 24 58	 mov	 rax, QWORD PTR regs$[rsp]
  0005d	48 8b 40 68	 mov	 rax, QWORD PTR [rax+104]
  00061	48 83 c0 04	 add	 rax, 4
  00065	48 8b 4c 24 58	 mov	 rcx, QWORD PTR regs$[rsp]
  0006a	48 89 41 68	 mov	 QWORD PTR [rcx+104], rax
  0006e	33 c0		 xor	 eax, eax
  00070	83 f8 04	 cmp	 eax, 4
  00073	74 0c		 je	 SHORT $LN5@z900_selec
  00075	48 8b 44 24 58	 mov	 rax, QWORD PTR regs$[rsp]
  0007a	c6 80 9a 00 00
	00 04		 mov	 BYTE PTR [rax+154], 4
$LN5@z900_selec:
  00081	33 c0		 xor	 eax, eax
  00083	85 c0		 test	 eax, eax
  00085	75 d1		 jne	 SHORT $LN4@z900_selec

; 3420 : 
; 3421 :     /* Test M4 mask bit corresponding to condition code */
; 3422 :     if (m4 & (0x08 >> regs->psw.cc))

  00087	0f b6 44 24 20	 movzx	 eax, BYTE PTR m4$[rsp]
  0008c	48 8b 4c 24 58	 mov	 rcx, QWORD PTR regs$[rsp]
  00091	0f b6 49 7c	 movzx	 ecx, BYTE PTR [rcx+124]
  00095	ba 08 00 00 00	 mov	 edx, 8
  0009a	d3 fa		 sar	 edx, cl
  0009c	8b ca		 mov	 ecx, edx
  0009e	23 c1		 and	 eax, ecx
  000a0	85 c0		 test	 eax, eax
  000a2	74 25		 je	 SHORT $LN6@z900_selec

; 3423 :     {
; 3424 :         /* Load R1 bits 32-63 with R2 bits 32-63 */
; 3425 :         regs->GR_L(r1) = regs->GR_L(r2);

  000a4	48 63 44 24 2c	 movsxd	 rax, DWORD PTR r2$[rsp]
  000a9	48 63 4c 24 28	 movsxd	 rcx, DWORD PTR r1$[rsp]
  000ae	48 8b 54 24 58	 mov	 rdx, QWORD PTR regs$[rsp]
  000b3	4c 8b 44 24 58	 mov	 r8, QWORD PTR regs$[rsp]
  000b8	41 8b 84 c0 80
	02 00 00	 mov	 eax, DWORD PTR [r8+rax*8+640]
  000c0	89 84 ca 80 02
	00 00		 mov	 DWORD PTR [rdx+rcx*8+640], eax

; 3426 :     }

  000c7	eb 23		 jmp	 SHORT $LN7@z900_selec
$LN6@z900_selec:

; 3427 :     else
; 3428 :     {
; 3429 :         /* Load R1 bits 32-63 with R3 bits 32-63 */
; 3430 :         regs->GR_L(r1) = regs->GR_L(r3);

  000c9	48 63 44 24 30	 movsxd	 rax, DWORD PTR r3$[rsp]
  000ce	48 63 4c 24 28	 movsxd	 rcx, DWORD PTR r1$[rsp]
  000d3	48 8b 54 24 58	 mov	 rdx, QWORD PTR regs$[rsp]
  000d8	4c 8b 44 24 58	 mov	 r8, QWORD PTR regs$[rsp]
  000dd	41 8b 84 c0 80
	02 00 00	 mov	 eax, DWORD PTR [r8+rax*8+640]
  000e5	89 84 ca 80 02
	00 00		 mov	 DWORD PTR [rdx+rcx*8+640], eax
$LN7@z900_selec:

; 3431 :     }
; 3432 : }

  000ec	48 83 c4 48	 add	 rsp, 72			; 00000048H
  000f0	c3		 ret	 0
z900_select_register ENDP
_TEXT	ENDS
; Function compile flags: /Odtp
; File C:\papa\MyGit\hyperion-zvector\general3.c
_TEXT	SEGMENT
disp2$1 = 32
temp$2 = 36
b2$ = 40
effective_addr2$ = 48
op2$ = 56
x2$ = 60
tv131 = 64
r1$ = 68
resulthi$ = 72
inst$ = 96
regs$ = 104
z900_multiply_long_halfword PROC

; 1870 : {

$LN16:
  00000	48 89 54 24 10	 mov	 QWORD PTR [rsp+16], rdx
  00005	48 89 4c 24 08	 mov	 QWORD PTR [rsp+8], rcx
  0000a	48 83 ec 58	 sub	 rsp, 88			; 00000058H

; 1871 : int     r1;                             /* Value of R field          */
; 1872 : int     x2;                             /* Index register            */
; 1873 : int     b2;                             /* Base of effective addr    */
; 1874 : VADR    effective_addr2;                /* Effective address         */
; 1875 : S64     resulthi;                       /* high 64-bits of result    */
; 1876 : S16     op2;                            /* 16-bit operand-2 value    */
; 1877 : 
; 1878 :     RXY( inst, regs, r1, x2, b2, effective_addr2 );

  0000e	48 8b 4c 24 60	 mov	 rcx, QWORD PTR inst$[rsp]
  00013	e8 00 00 00 00	 call	 fetch_fw_noswap
  00018	8b c8		 mov	 ecx, eax
  0001a	e8 00 00 00 00	 call	 _byteswap_ulong
  0001f	89 44 24 24	 mov	 DWORD PTR temp$2[rsp], eax
  00023	48 c7 44 24 30
	00 00 00 00	 mov	 QWORD PTR effective_addr2$[rsp], 0
  0002c	8b 44 24 24	 mov	 eax, DWORD PTR temp$2[rsp]
  00030	25 ff 0f 00 00	 and	 eax, 4095		; 00000fffH
  00035	89 44 24 20	 mov	 DWORD PTR disp2$1[rsp], eax
  00039	8b 44 24 24	 mov	 eax, DWORD PTR temp$2[rsp]
  0003d	c1 e8 10	 shr	 eax, 16
  00040	83 e0 0f	 and	 eax, 15
  00043	89 44 24 3c	 mov	 DWORD PTR x2$[rsp], eax
  00047	8b 44 24 24	 mov	 eax, DWORD PTR temp$2[rsp]
  0004b	c1 e8 14	 shr	 eax, 20
  0004e	83 e0 0f	 and	 eax, 15
  00051	89 44 24 44	 mov	 DWORD PTR r1$[rsp], eax
  00055	83 7c 24 3c 00	 cmp	 DWORD PTR x2$[rsp], 0
  0005a	74 22		 je	 SHORT $LN5@z900_multi
  0005c	48 63 44 24 3c	 movsxd	 rax, DWORD PTR x2$[rsp]
  00061	48 8b 4c 24 68	 mov	 rcx, QWORD PTR regs$[rsp]
  00066	48 8b 84 c1 80
	02 00 00	 mov	 rax, QWORD PTR [rcx+rax*8+640]
  0006e	48 8b 4c 24 30	 mov	 rcx, QWORD PTR effective_addr2$[rsp]
  00073	48 03 c8	 add	 rcx, rax
  00076	48 8b c1	 mov	 rax, rcx
  00079	48 89 44 24 30	 mov	 QWORD PTR effective_addr2$[rsp], rax
$LN5@z900_multi:
  0007e	8b 44 24 24	 mov	 eax, DWORD PTR temp$2[rsp]
  00082	c1 e8 0c	 shr	 eax, 12
  00085	83 e0 0f	 and	 eax, 15
  00088	89 44 24 28	 mov	 DWORD PTR b2$[rsp], eax
  0008c	83 7c 24 28 00	 cmp	 DWORD PTR b2$[rsp], 0
  00091	74 22		 je	 SHORT $LN6@z900_multi
  00093	48 63 44 24 28	 movsxd	 rax, DWORD PTR b2$[rsp]
  00098	48 8b 4c 24 68	 mov	 rcx, QWORD PTR regs$[rsp]
  0009d	48 8b 84 c1 80
	02 00 00	 mov	 rax, QWORD PTR [rcx+rax*8+640]
  000a5	48 8b 4c 24 30	 mov	 rcx, QWORD PTR effective_addr2$[rsp]
  000aa	48 03 c8	 add	 rcx, rax
  000ad	48 8b c1	 mov	 rax, rcx
  000b0	48 89 44 24 30	 mov	 QWORD PTR effective_addr2$[rsp], rax
$LN6@z900_multi:
  000b5	b8 01 00 00 00	 mov	 eax, 1
  000ba	48 6b c0 04	 imul	 rax, rax, 4
  000be	48 8b 4c 24 60	 mov	 rcx, QWORD PTR inst$[rsp]
  000c3	0f b6 04 01	 movzx	 eax, BYTE PTR [rcx+rax]
  000c7	85 c0		 test	 eax, eax
  000c9	74 0a		 je	 SHORT $LN14@z900_multi
  000cb	c7 44 24 40 01
	00 00 00	 mov	 DWORD PTR tv131[rsp], 1
  000d3	eb 08		 jmp	 SHORT $LN15@z900_multi
$LN14@z900_multi:
  000d5	c7 44 24 40 00
	00 00 00	 mov	 DWORD PTR tv131[rsp], 0
$LN15@z900_multi:
  000dd	83 7c 24 40 00	 cmp	 DWORD PTR tv131[rsp], 0
  000e2	74 3b		 je	 SHORT $LN7@z900_multi
  000e4	b8 01 00 00 00	 mov	 eax, 1
  000e9	48 6b c0 04	 imul	 rax, rax, 4
  000ed	48 8b 4c 24 60	 mov	 rcx, QWORD PTR inst$[rsp]
  000f2	0f b6 04 01	 movzx	 eax, BYTE PTR [rcx+rax]
  000f6	c1 e0 0c	 shl	 eax, 12
  000f9	8b 4c 24 20	 mov	 ecx, DWORD PTR disp2$1[rsp]
  000fd	0b c8		 or	 ecx, eax
  000ff	8b c1		 mov	 eax, ecx
  00101	89 44 24 20	 mov	 DWORD PTR disp2$1[rsp], eax
  00105	8b 44 24 20	 mov	 eax, DWORD PTR disp2$1[rsp]
  00109	25 00 00 08 00	 and	 eax, 524288		; 00080000H
  0010e	85 c0		 test	 eax, eax
