; Listing generated by Microsoft (R) Optimizing Compiler Version 19.34.31937.0 

include listing.inc

INCLUDELIB MSVCRTD
INCLUDELIB OLDNAMES

_DATA	SEGMENT
$SG206368 DB	'STARTUP', 00H
$SG206369 DB	'ON', 00H
	ORG $+1
$SG206370 DB	'OFF', 00H
$SG207650 DB	'3270', 00H
	ORG $+3
$SG207744 DB	'3278', 00H
_DATA	ENDS
CONST	SEGMENT
?quitdelay_usecs@?1??quit_thread@@9@9 DD 09c40H		; `quit_thread'::`2'::quitdelay_usecs
?count@?1??ssd_cmd@@9@9 DW 00H				; `ssd_cmd'::`2'::count
?unit@?1??ssd_cmd@@9@9 DB 00H				; `ssd_cmd'::`2'::unit
	ORG $+1
CKD_ENDTRK DB	0ffH
	DB	0ffH
	DB	0ffH
	DB	0ffH
	DB	0ffH
	DB	0ffH
	DB	0ffH
	DB	0ffH
CONST	ENDS
PUBLIC	__local_stdio_printf_options
PUBLIC	__local_stdio_scanf_options
PUBLIC	_vsnprintf_l
PUBLIC	_vsprintf_l
PUBLIC	_vsnprintf_s_l
PUBLIC	_vsnprintf_s
PUBLIC	sprintf
PUBLIC	_vsscanf_l
PUBLIC	sscanf
PUBLIC	quit_cmd
PUBLIC	quitmout_cmd
PUBLIC	devinit_cmd
PUBLIC	qproc_cmd
PUBLIC	_get_storekey_ptr
PUBLIC	_get_storekey1_ptr
PUBLIC	_get_storekey2_ptr
PUBLIC	s370__get_storage_key
PUBLIC	s370__and_storage_key
PUBLIC	s370__or_storage_key
PUBLIC	s370_fquest_cmd
PUBLIC	s370_fonoff_cmd
PUBLIC	s390__get_storage_key
PUBLIC	s390__and_storage_key
PUBLIC	s390__or_storage_key
PUBLIC	s390_fquest_cmd
PUBLIC	s390_fonoff_cmd
PUBLIC	z900__get_storage_key
PUBLIC	z900__and_storage_key
PUBLIC	z900__or_storage_key
PUBLIC	z900_get_4K_storage_key
PUBLIC	z900_fquest_cmd
PUBLIC	z900_fonoff_cmd
PUBLIC	$test_cmd
PUBLIC	maxrates_cmd
PUBLIC	msg_cmd
PUBLIC	comment_cmd
PUBLIC	History
PUBLIC	log_cmd
PUBLIC	logopt_cmd
PUBLIC	uptime_cmd
PUBLIC	version_cmd
PUBLIC	cctape_cmd
PUBLIC	fcb_cmd
PUBLIC	start_cmd
PUBLIC	g_cmd
PUBLIC	stop_cmd
PUBLIC	quiet_cmd
PUBLIC	iodelay_cmd
PUBLIC	autoinit_cmd
PUBLIC	automount_cmd
PUBLIC	scsimount_cmd
PUBLIC	cckd_cmd
PUBLIC	ctc_cmd
PUBLIC	ptp_cmd
PUBLIC	qeth_cmd
PUBLIC	tt32_cmd
PUBLIC	sclproot_cmd
PUBLIC	engines_cmd
PUBLIC	sysepoch_cmd
PUBLIC	yroffset_cmd
PUBLIC	tzoffset_cmd
PUBLIC	qstor_cmd
PUBLIC	mainsize_cmd
PUBLIC	xpndsize_cmd
PUBLIC	hercnice_cmd
PUBLIC	hercprio_cmd
PUBLIC	cpuprio_cmd
PUBLIC	devprio_cmd
PUBLIC	todprio_cmd
PUBLIC	srvprio_cmd
PUBLIC	netdev_cmd
PUBLIC	numcpu_cmd
PUBLIC	maxcpu_cmd
PUBLIC	cnslport_cmd
PUBLIC	sysgport_cmd
PUBLIC	http_cmd
PUBLIC	toddrag_cmd
PUBLIC	panopt_cmd
PUBLIC	panrate_cmd
PUBLIC	pantitle_cmd
PUBLIC	sh_cmd
PUBLIC	pgmprdos_cmd
PUBLIC	diag8_cmd
PUBLIC	shcmdopt_cmd
PUBLIC	legacysenseid_cmd
PUBLIC	cp_updt_cmd
PUBLIC	codepage_cmd
PUBLIC	stsi_model_cmd
PUBLIC	stsi_plant_cmd
PUBLIC	stsi_manufacturer_cmd
PUBLIC	shrdport_cmd
PUBLIC	lparname_cmd
PUBLIC	lparnum_cmd
PUBLIC	cpuverid_cmd
PUBLIC	cpumodel_cmd
PUBLIC	cpuserial_cmd
PUBLIC	cpuidfmt_cmd
PUBLIC	loadparm_cmd
PUBLIC	devlist_cmd
PUBLIC	qd_cmd
PUBLIC	attach_cmd
PUBLIC	detach_cmd
PUBLIC	define_cmd
PUBLIC	pgmtrace_cmd
PUBLIC	ostailor_cmd
PUBLIC	k_cmd
PUBLIC	ds_cmd
PUBLIC	devtmax_cmd
PUBLIC	sf_cmd
PUBLIC	mounted_tape_reinit_cmd
PUBLIC	mt_cmd
PUBLIC	savecore_cmd
PUBLIC	defsym_cmd
PUBLIC	delsym_cmd
PUBLIC	fquest_cmd
PUBLIC	OnOffCommand
PUBLIC	cmdsep_cmd
PUBLIC	ssd_cmd
PUBLIC	scpecho_cmd
PUBLIC	scpimply_cmd
PUBLIC	ldmod_cmd
PUBLIC	rmmod_cmd
PUBLIC	lsmod_cmd
PUBLIC	lsdep_cmd
PUBLIC	lsequ_cmd
PUBLIC	modpath_cmd
PUBLIC	ecpsvm_cmd
PUBLIC	herclogo_cmd
PUBLIC	sizeof_cmd
PUBLIC	conkpalv_cmd
PUBLIC	msglevel_cmd
PUBLIC	qcpuid_cmd
PUBLIC	qpfkeys_cmd
PUBLIC	qpid_cmd
PUBLIC	qports_cmd
PUBLIC	cmdlvl_cmd
PUBLIC	__real@3f1a36e2eb1c432d
PUBLIC	__real@3ff0000000000000
PUBLIC	__real@4000000000000000
PUBLIC	__real@40c3880000000000
PUBLIC	__real@bff0000000000000
PUBLIC	__xmm@80000000000000008000000000000000
EXTRN	__report_rangecheckfailure:PROC
EXTRN	__imp_isupper:PROC
EXTRN	__imp_isdigit:PROC
EXTRN	__imp_isspace:PROC
EXTRN	__imp_isalnum:PROC
EXTRN	__imp_isprint:PROC
EXTRN	__imp_toupper:PROC
EXTRN	__imp__errno:PROC
EXTRN	memmove:PROC
EXTRN	strchr:PROC
EXTRN	strcmp:PROC
EXTRN	__imp__stricmp:PROC
EXTRN	strlen:PROC
EXTRN	__imp_strncmp:PROC
EXTRN	__imp__strnicmp:PROC
EXTRN	__imp_strncpy:PROC
EXTRN	__imp_strpbrk:PROC
EXTRN	__imp_strdup:PROC
EXTRN	__imp_IsDebuggerPresent:PROC
EXTRN	__imp_OutputDebugStringA:PROC
EXTRN	__imp_free:PROC
EXTRN	__imp_malloc:PROC
EXTRN	__imp_qsort:PROC
EXTRN	abs:PROC
EXTRN	__imp_rand:PROC
EXTRN	__imp_atoi:PROC
EXTRN	__imp_strtol:PROC
EXTRN	__imp_strtoul:PROC
EXTRN	__imp_WSAGetLastError:PROC
EXTRN	__imp_access:PROC
EXTRN	__imp_close:PROC
EXTRN	__imp_write:PROC
EXTRN	__imp___acrt_iob_func:PROC
EXTRN	__imp___stdio_common_vsprintf:PROC
EXTRN	__imp___stdio_common_vsnprintf_s:PROC
EXTRN	__imp___stdio_common_vsscanf:PROC
EXTRN	__imp__ctime64:PROC
EXTRN	__imp__difftime64:PROC
EXTRN	__imp__localtime64:PROC
EXTRN	__imp__time64:PROC
EXTRN	__imp_raise:PROC
EXTRN	__imp_getcwd:PROC
EXTRN	__imp_fthread_self:PROC
EXTRN	__imp_hthread_initialize_lock:PROC
EXTRN	__imp_hthread_obtain_lock:PROC
EXTRN	__imp_hthread_release_lock:PROC
EXTRN	__imp_hthread_destroy_lock:PROC
EXTRN	__imp_hthread_signal_condition:PROC
EXTRN	__imp_hthread_broadcast_condition:PROC
EXTRN	__imp_hthread_wait_condition:PROC
EXTRN	__imp_hthread_create_thread:PROC
EXTRN	__imp_hthread_join_thread:PROC
EXTRN	__imp_hthread_set_lock_name:PROC
EXTRN	__imp_display_version:PROC
EXTRN	__imp_display_build_options:PROC
EXTRN	__imp_display_extpkg_vers:PROC
EXTRN	__imp_get_symbol:PROC
EXTRN	__imp_set_symbol:PROC
EXTRN	__imp_del_symbol:PROC
EXTRN	__imp_list_all_symbols:PROC
EXTRN	__imp_strlcpy:PROC
EXTRN	__imp_strlcat:PROC
EXTRN	__imp_fmt_memsize:PROC
EXTRN	__imp_fmt_memsize_KB:PROC
EXTRN	__imp_fmt_memsize_MB:PROC
EXTRN	__imp_FormatFCB:PROC
EXTRN	__imp_FormatCCTAPE:PROC
EXTRN	__imp_rtrim:PROC
EXTRN	__imp_trim:PROC
EXTRN	__imp_ptyp2short:PROC
EXTRN	__imp_short2ptyp:PROC
EXTRN	__imp_w32_strerror:PROC
EXTRN	__imp_strtok_r:PROC
EXTRN	__imp_nanosleep:PROC
EXTRN	__imp_usleep:PROC
EXTRN	__imp_sleep:PROC
EXTRN	__imp_sched_yield:PROC
EXTRN	__imp_getrusage:PROC
EXTRN	__imp_realpath:PROC
EXTRN	__imp_hostpath:PROC
EXTRN	__imp_set_socket_keepalive:PROC
EXTRN	__imp_get_socket_keepalive:PROC
EXTRN	__imp_expand_environ_vars:PROC
EXTRN	__imp_w32_socket:PROC
EXTRN	__imp_w32_close_socket:PROC
EXTRN	__imp_w32_inet_ntop:PROC
EXTRN	__imp_w32_snprintf:PROC
EXTRN	__imp_w32_hopen:PROC
EXTRN	__imp_w32_basename:PROC
EXTRN	set_tod_steering:PROC
EXTRN	get_tod_steering:PROC
EXTRN	__imp_query_codepage:PROC
EXTRN	__imp_valid_codepage_name:PROC
EXTRN	__imp_set_codepage:PROC
EXTRN	__imp_update_codepage:PROC
EXTRN	__imp_guest_to_host:PROC
EXTRN	__imp_buf_guest_to_host:PROC
EXTRN	__imp_str_guest_to_host:PROC
EXTRN	__imp_log_sethrdcpy:PROC
EXTRN	__imp_log_dsphrdcpy:PROC
EXTRN	__imp_hdl_setpath:PROC
EXTRN	__imp_hdl_getpath:PROC
EXTRN	__imp_hdl_loadmod:PROC
EXTRN	__imp_hdl_freemod:PROC
EXTRN	__imp_hdl_listmods:PROC
EXTRN	__imp_hdl_listdeps:PROC
EXTRN	__imp_hdl_listequs:PROC
EXTRN	__imp_dasd_build_ckd_subsys_status:PROC
EXTRN	set_sce_dir:PROC
EXTRN	get_sce_dir:PROC
EXTRN	txf_model_warning:PROC
EXTRN	init_sysblk_netdev:PROC
EXTRN	find_device_by_devnum:PROC
EXTRN	detach_device:PROC
EXTRN	define_device:PROC
EXTRN	configure_numcpu:PROC
EXTRN	configure_maxcpu:PROC
EXTRN	configure_storage:PROC
EXTRN	configure_xstorage:PROC
EXTRN	adjust_mainsize:PROC
EXTRN	configure_shrdport:PROC
EXTRN	parse_and_attach_devices:PROC
EXTRN	parse_single_devnum:PROC
EXTRN	parse_single_devnum_silent:PROC
EXTRN	parse_devnums:PROC
EXTRN	readlogo:PROC
EXTRN	clearlogo:PROC
EXTRN	parse_conkpalv:PROC
EXTRN	is_diag_instr:PROC
EXTRN	set_console_title:PROC
EXTRN	set_panel_colors:PROC
EXTRN	start_cmd_cpu:PROC
EXTRN	stop_cmd_cpu:PROC
EXTRN	setAllCpuIds_lock:PROC
EXTRN	resetAllCpuIds:PROC
EXTRN	setOperationMode:PROC
EXTRN	enable_lparmode:PROC
EXTRN	losc_set:PROC
EXTRN	http_command:PROC
EXTRN	http_get_port:PROC
EXTRN	http_get_portauth:PROC
EXTRN	set_lparname:PROC
EXTRN	str_lparname:PROC
EXTRN	set_manufacturer:PROC
EXTRN	str_manufacturer:PROC
EXTRN	set_plant:PROC
EXTRN	str_plant:PROC
EXTRN	set_model:PROC
EXTRN	str_modelhard:PROC
EXTRN	str_modelcapa:PROC
EXTRN	str_modelperm:PROC
EXTRN	str_modeltemp:PROC
EXTRN	bld_sysib_sequence:PROC
EXTRN	configure_epoch:PROC
EXTRN	configure_yroffset:PROC
EXTRN	configure_tzoffset:PROC
EXTRN	signal_quiesce:PROC
EXTRN	herc_system:PROC
EXTRN	do_shutdown:PROC
EXTRN	display_subchannel:PROC
EXTRN	parse_range:PROC
EXTRN	get_connected_client:PROC
EXTRN	device_attention:PROC
EXTRN	__imp_fwritemsg:PROC
EXTRN	__imp_logmsg:PROC
EXTRN	history_remove:PROC
EXTRN	history_relative_line:PROC
EXTRN	history_absolute_line:PROC
EXTRN	history_show:PROC
EXTRN	__imp_cckd_command:PROC
EXTRN	__imp_cckd_print_itrace:PROC
EXTRN	__imp_cckd_sf_add:PROC
EXTRN	__imp_cckd_sf_remove:PROC
EXTRN	__imp_cckd_sf_comp:PROC
EXTRN	__imp_cckd_sf_chk:PROC
EXTRN	__imp_cckd_sf_stats:PROC
EXTRN	ecpsvm_command:PROC
EXTRN	device_thread:PROC
EXTRN	__GSHandlerCheck:PROC
EXTRN	__chkstk:PROC
EXTRN	__security_check_cookie:PROC
EXTRN	__imp_sysblk:BYTE
EXTRN	__imp_extgui:DWORD
EXTRN	maxrates_rpt_intvl:DWORD
EXTRN	curr_high_mips_rate:DWORD
EXTRN	curr_high_sios_rate:DWORD
EXTRN	prev_high_mips_rate:DWORD
EXTRN	prev_high_sios_rate:DWORD
EXTRN	curr_int_start_time:QWORD
EXTRN	prev_int_start_time:QWORD
EXTRN	__imp_debug_tt32_stats:QWORD
EXTRN	__imp_debug_tt32_tracing:QWORD
EXTRN	history_requested:DWORD
EXTRN	__imp_cckdblk:BYTE
EXTRN	__ImageBase:BYTE
EXTRN	__security_cookie:QWORD
EXTRN	_fltused:DWORD
_DATA	SEGMENT
COMM	?_OptionsStorage@?1??__local_stdio_printf_options@@9@9:QWORD							; `__local_stdio_printf_options'::`2'::_OptionsStorage
COMM	?_OptionsStorage@?1??__local_stdio_scanf_options@@9@9:QWORD							; `__local_stdio_scanf_options'::`2'::_OptionsStorage
_DATA	ENDS
_BSS	SEGMENT
$SG181525 DB	01H DUP (?)
	ALIGN	4

$SG191610 DB	01H DUP (?)
	ALIGN	4

$SG204572 DB	01H DUP (?)
	ALIGN	8

?testlock@?1??test_locks_thread@@9@9 DQ 01H DUP (?)	; `test_locks_thread'::`2'::testlock
deadlocks_a DQ	01H DUP (?)
deadlocks_b DQ	01H DUP (?)
deadlocks_c DQ	01H DUP (?)
?tid@?6??$test_cmd@@9@9 DD 01H DUP (?)			; `$test_cmd'::`7'::tid
?tid@?BB@??$test_cmd@@9@9 DD 01H DUP (?)		; `$test_cmd'::`17'::tid
?testlock@?BF@??$test_cmd@@9@9 DQ 01H DUP (?)		; `$test_cmd'::`21'::testlock
?testlock@?BG@??$test_cmd@@9@9 DQ 01H DUP (?)		; `$test_cmd'::`22'::testlock
?testlock@?BH@??$test_cmd@@9@9 DQ 01H DUP (?)		; `$test_cmd'::`23'::testlock
$SG204784 DB	01H DUP (?)
	ALIGN	4

$SG204987 DB	01H DUP (?)
	ALIGN	4

?tid@?1??quit_cmd@@9@9 DD 01H DUP (?)			; `quit_cmd'::`2'::tid
$SG205193 DB	01H DUP (?)
	ALIGN	4

$SG205348 DB	01H DUP (?)
	ALIGN	4

$SG205391 DB	01H DUP (?)
	ALIGN	4

$SG205393 DB	01H DUP (?)
	ALIGN	4

$SG205401 DB	01H DUP (?)
	ALIGN	4

$SG205731 DB	01H DUP (?)
	ALIGN	4

?cwd@?BG@??automount_cmd@@9@9 DB 0104H DUP (?)		; `automount_cmd'::`22'::cwd
?cwd@?CM@??automount_cmd@@9@9 DB 0104H DUP (?)		; `automount_cmd'::`44'::cwd
$SG206010 DB	01H DUP (?)
	ALIGN	4

$SG206031 DB	01H DUP (?)
	ALIGN	4

$SG206095 DB	01H DUP (?)
	ALIGN	4

$SG206197 DB	01H DUP (?)
	ALIGN	4

$SG206214 DB	01H DUP (?)
	ALIGN	4

$SG207666 DB	01H DUP (?)
	ALIGN	4

$SG207764 DB	01H DUP (?)
	ALIGN	4

$SG207908 DB	01H DUP (?)
	ALIGN	4

$SG207909 DB	01H DUP (?)
	ALIGN	4

$SG207967 DB	01H DUP (?)
	ALIGN	4

$SG207976 DB	01H DUP (?)
	ALIGN	4

$SG207977 DB	01H DUP (?)
	ALIGN	4

$SG208142 DB	01H DUP (?)
	ALIGN	4

$SG208191 DB	01H DUP (?)
	ALIGN	4

$SG208197 DB	01H DUP (?)
	ALIGN	4

$SG208206 DB	01H DUP (?)
	ALIGN	4

$SG208251 DB	01H DUP (?)
	ALIGN	4

$SG208257 DB	01H DUP (?)
	ALIGN	4

$SG208266 DB	01H DUP (?)
	ALIGN	4

$SG208307 DB	01H DUP (?)
	ALIGN	4

$SG208442 DB	01H DUP (?)
	ALIGN	4

$SG208444 DB	01H DUP (?)
	ALIGN	4

$SG208446 DB	01H DUP (?)
	ALIGN	4

$SG208448 DB	01H DUP (?)
	ALIGN	4

$SG208483 DB	01H DUP (?)
	ALIGN	4

$SG208817 DB	01H DUP (?)
	ALIGN	4

$SG209014 DB	01H DUP (?)
	ALIGN	4

$SG209144 DB	01H DUP (?)
	ALIGN	4

$SG209185 DB	01H DUP (?)
	ALIGN	4

$SG209187 DB	01H DUP (?)
	ALIGN	4

$SG209189 DB	01H DUP (?)
	ALIGN	4

$SG209916 DB	01H DUP (?)
	ALIGN	4

$SG209980 DB	01H DUP (?)
	ALIGN	4

$SG210208 DB	01H DUP (?)
	ALIGN	4

$SG210209 DB	01H DUP (?)
	ALIGN	4

$SG210211 DB	01H DUP (?)
	ALIGN	4

$SG210212 DB	01H DUP (?)
	ALIGN	4

$SG210588 DB	01H DUP (?)
	ALIGN	4

$SG210767 DB	01H DUP (?)
	ALIGN	4

$SG210801 DB	01H DUP (?)
	ALIGN	4

$SG210809 DB	01H DUP (?)
	ALIGN	4

$SG210846 DB	01H DUP (?)
	ALIGN	4

$SG210961 DB	01H DUP (?)
	ALIGN	4

$SG211008 DB	01H DUP (?)
	ALIGN	4

$SG211550 DB	01H DUP (?)
	ALIGN	4

$SG211556 DB	01H DUP (?)
	ALIGN	4

$SG211592 DB	01H DUP (?)
	ALIGN	4

$SG211695 DB	01H DUP (?)
	ALIGN	4

$SG211884 DB	01H DUP (?)
	ALIGN	4

$SG211893 DB	01H DUP (?)
	ALIGN	4

$SG211910 DB	01H DUP (?)
	ALIGN	4

$SG211924 DB	01H DUP (?)
	ALIGN	4

$SG211992 DB	01H DUP (?)
	ALIGN	4

$SG211998 DB	01H DUP (?)
	ALIGN	4

$SG212051 DB	01H DUP (?)
	ALIGN	4

$SG212060 DB	01H DUP (?)
	ALIGN	4

$SG212139 DB	01H DUP (?)
	ALIGN	4

$SG212141 DB	01H DUP (?)
	ALIGN	4

$SG212143 DB	01H DUP (?)
	ALIGN	4

$SG212145 DB	01H DUP (?)
	ALIGN	4

$SG212147 DB	01H DUP (?)
	ALIGN	4

$SG212149 DB	01H DUP (?)
_BSS	ENDS
;	COMDAT pdata
pdata	SEGMENT
$pdata$_vsnprintf_l DD imagerel $LN5
	DD	imagerel $LN5+118
	DD	imagerel $unwind$_vsnprintf_l
pdata	ENDS
;	COMDAT pdata
pdata	SEGMENT
$pdata$_vsprintf_l DD imagerel $LN3
	DD	imagerel $LN3+66
	DD	imagerel $unwind$_vsprintf_l
pdata	ENDS
;	COMDAT pdata
pdata	SEGMENT
$pdata$_vsnprintf_s_l DD imagerel $LN5
	DD	imagerel $LN5+127
	DD	imagerel $unwind$_vsnprintf_s_l
pdata	ENDS
;	COMDAT pdata
pdata	SEGMENT
$pdata$_vsnprintf_s DD imagerel $LN3
	DD	imagerel $LN3+73
	DD	imagerel $unwind$_vsnprintf_s
pdata	ENDS
;	COMDAT pdata
pdata	SEGMENT
$pdata$sprintf DD imagerel $LN3
	DD	imagerel $LN3+79
	DD	imagerel $unwind$sprintf
pdata	ENDS
;	COMDAT pdata
pdata	SEGMENT
$pdata$_vsscanf_l DD imagerel $LN3
	DD	imagerel $LN3+80
	DD	imagerel $unwind$_vsscanf_l
pdata	ENDS
;	COMDAT pdata
pdata	SEGMENT
$pdata$sscanf DD imagerel $LN3
	DD	imagerel $LN3+79
	DD	imagerel $unwind$sscanf
pdata	ENDS
pdata	SEGMENT
$pdata$ctime DD	imagerel ctime
	DD	imagerel ctime+25
	DD	imagerel $unwind$ctime
$pdata$difftime DD imagerel difftime
	DD	imagerel difftime+35
	DD	imagerel $unwind$difftime
$pdata$localtime DD imagerel localtime
	DD	imagerel localtime+25
	DD	imagerel $unwind$localtime
$pdata$time DD	imagerel time
	DD	imagerel time+25
	DD	imagerel $unwind$time
$pdata$DebuggerTrace DD imagerel DebuggerTrace
	DD	imagerel DebuggerTrace+247
	DD	imagerel $unwind$DebuggerTrace
$pdata$strabbrev DD imagerel strabbrev
	DD	imagerel strabbrev+218
	DD	imagerel $unwind$strabbrev
$pdata$strcaseabbrev DD imagerel strcaseabbrev
	DD	imagerel strcaseabbrev+320
	DD	imagerel $unwind$strcaseabbrev
$pdata$strupper DD imagerel strupper
	DD	imagerel strupper+114
	DD	imagerel $unwind$strupper
$pdata$strnupper DD imagerel strnupper
	DD	imagerel strnupper+150
	DD	imagerel $unwind$strnupper
$pdata$quit_cmd DD imagerel $LN24
	DD	imagerel $LN24+438
	DD	imagerel $unwind$quit_cmd
$pdata$quitmout_cmd DD imagerel $LN15
	DD	imagerel $LN15+808
	DD	imagerel $unwind$quitmout_cmd
$pdata$devinit_cmd DD imagerel $LN42
	DD	imagerel $LN42+1888
	DD	imagerel $unwind$devinit_cmd
$pdata$qproc_cmd DD imagerel $LN43
	DD	imagerel $LN43+2513
	DD	imagerel $unwind$qproc_cmd
$pdata$wakeup_cpu DD imagerel wakeup_cpu
	DD	imagerel wakeup_cpu+44
	DD	imagerel $unwind$wakeup_cpu
$pdata$Interrupt_Lock_Obtained DD imagerel Interrupt_Lock_Obtained
	DD	imagerel Interrupt_Lock_Obtained+269
	DD	imagerel $unwind$Interrupt_Lock_Obtained
$pdata$Obtain_Interrupt_Lock DD imagerel Obtain_Interrupt_Lock
	DD	imagerel Obtain_Interrupt_Lock+88
	DD	imagerel $unwind$Obtain_Interrupt_Lock
$pdata$Release_Interrupt_Lock DD imagerel Release_Interrupt_Lock
	DD	imagerel Release_Interrupt_Lock+71
	DD	imagerel $unwind$Release_Interrupt_Lock
$pdata$are_any_cpus_started_intlock_held DD imagerel are_any_cpus_started_intlock_held
	DD	imagerel are_any_cpus_started_intlock_held+118
	DD	imagerel $unwind$are_any_cpus_started_intlock_held
$pdata$are_any_cpus_started DD imagerel are_any_cpus_started
	DD	imagerel are_any_cpus_started+51
	DD	imagerel $unwind$are_any_cpus_started
pdata	ENDS
;	COMDAT pdata
pdata	SEGMENT
$pdata$_get_storekey_ptr DD imagerel $LN5
	DD	imagerel $LN5+104
	DD	imagerel $unwind$_get_storekey_ptr
pdata	ENDS
;	COMDAT pdata
pdata	SEGMENT
$pdata$s370__get_storage_key DD imagerel $LN8
	DD	imagerel $LN8+118
	DD	imagerel $unwind$s370__get_storage_key
pdata	ENDS
;	COMDAT pdata
pdata	SEGMENT
$pdata$s370__and_storage_key DD imagerel $LN8
	DD	imagerel $LN8+176
	DD	imagerel $unwind$s370__and_storage_key
pdata	ENDS
;	COMDAT pdata
pdata	SEGMENT
$pdata$s370__or_storage_key DD imagerel $LN8
	DD	imagerel $LN8+170
	DD	imagerel $unwind$s370__or_storage_key
pdata	ENDS
pdata	SEGMENT
$pdata$s370_fquest_cmd DD imagerel $LN14
	DD	imagerel $LN14+532
	DD	imagerel $unwind$s370_fquest_cmd
$pdata$s370_fonoff_cmd DD imagerel $LN16
	DD	imagerel $LN16+696
	DD	imagerel $unwind$s370_fonoff_cmd
pdata	ENDS
;	COMDAT pdata
pdata	SEGMENT
$pdata$s390__get_storage_key DD imagerel $LN8
	DD	imagerel $LN8+107
	DD	imagerel $unwind$s390__get_storage_key
pdata	ENDS
;	COMDAT pdata
pdata	SEGMENT
$pdata$s390__and_storage_key DD imagerel $LN8
	DD	imagerel $LN8+165
	DD	imagerel $unwind$s390__and_storage_key
pdata	ENDS
;	COMDAT pdata
pdata	SEGMENT
$pdata$s390__or_storage_key DD imagerel $LN8
	DD	imagerel $LN8+159
	DD	imagerel $unwind$s390__or_storage_key
pdata	ENDS
pdata	SEGMENT
$pdata$s390_fquest_cmd DD imagerel $LN14
	DD	imagerel $LN14+532
	DD	imagerel $unwind$s390_fquest_cmd
$pdata$s390_fonoff_cmd DD imagerel $LN16
	DD	imagerel $LN16+696
	DD	imagerel $unwind$s390_fonoff_cmd
pdata	ENDS
;	COMDAT pdata
pdata	SEGMENT
$pdata$z900__get_storage_key DD imagerel $LN8
	DD	imagerel $LN8+107
	DD	imagerel $unwind$z900__get_storage_key
pdata	ENDS
;	COMDAT pdata
pdata	SEGMENT
$pdata$z900__and_storage_key DD imagerel $LN8
	DD	imagerel $LN8+165
	DD	imagerel $unwind$z900__and_storage_key
pdata	ENDS
;	COMDAT pdata
pdata	SEGMENT
$pdata$z900__or_storage_key DD imagerel $LN8
	DD	imagerel $LN8+159
	DD	imagerel $unwind$z900__or_storage_key
pdata	ENDS
;	COMDAT pdata
pdata	SEGMENT
$pdata$z900_get_4K_storage_key DD imagerel $LN3
	DD	imagerel $LN3+32
	DD	imagerel $unwind$z900_get_4K_storage_key
pdata	ENDS
pdata	SEGMENT
$pdata$z900_fquest_cmd DD imagerel $LN14
	DD	imagerel $LN14+532
	DD	imagerel $unwind$z900_fquest_cmd
$pdata$z900_fonoff_cmd DD imagerel $LN16
	DD	imagerel $LN16+696
	DD	imagerel $unwind$z900_fonoff_cmd
$pdata$test_thread DD imagerel test_thread
	DD	imagerel test_thread+270
	DD	imagerel $unwind$test_thread
$pdata$test_locks_thread DD imagerel test_locks_thread
	DD	imagerel test_locks_thread+69
	DD	imagerel $unwind$test_locks_thread
$pdata$deadlocks_1 DD imagerel deadlocks_1
	DD	imagerel deadlocks_1+202
	DD	imagerel $unwind$deadlocks_1
$pdata$deadlocks_2 DD imagerel deadlocks_2
	DD	imagerel deadlocks_2+202
	DD	imagerel $unwind$deadlocks_2
$pdata$deadlocks_3 DD imagerel deadlocks_3
	DD	imagerel deadlocks_3+202
	DD	imagerel $unwind$deadlocks_3
$pdata$$test_cmd DD imagerel $LN86
	DD	imagerel $LN86+2783
	DD	imagerel $unwind$$test_cmd
$pdata$devnotfound_msg DD imagerel devnotfound_msg
	DD	imagerel devnotfound_msg+129
	DD	imagerel $unwind$devnotfound_msg
$pdata$missing_devnum DD imagerel missing_devnum
	DD	imagerel missing_devnum+80
	DD	imagerel $unwind$missing_devnum
$pdata$maxrates_cmd DD imagerel $LN33
	DD	imagerel $LN33+2679
	DD	imagerel $unwind$maxrates_cmd
$pdata$message_cmd DD imagerel message_cmd
	DD	imagerel message_cmd+648
	DD	imagerel $unwind$message_cmd
$pdata$msg_cmd DD imagerel $LN13
	DD	imagerel $LN13+348
	DD	imagerel $unwind$msg_cmd
$pdata$quit_thread DD imagerel quit_thread
	DD	imagerel quit_thread+39
	DD	imagerel $unwind$quit_thread
$pdata$History DD imagerel $LN19
	DD	imagerel $LN19+266
	DD	imagerel $unwind$History
$pdata$log_cmd DD imagerel $LN14
	DD	imagerel $LN14+435
	DD	imagerel $unwind$log_cmd
$pdata$logopt_cmd DD imagerel $LN34
	DD	imagerel $LN34+1287
	DD	imagerel $unwind$logopt_cmd
$pdata$uptime_cmd DD imagerel $LN18
	DD	imagerel $LN18+912
	DD	imagerel $unwind$uptime_cmd
$pdata$version_cmd DD imagerel $LN8
	DD	imagerel $LN8+231
	DD	imagerel $unwind$version_cmd
$pdata$cctape_cmd DD imagerel $LN11
	DD	imagerel $LN11+759
	DD	imagerel $unwind$cctape_cmd
$pdata$fcb_cmd DD imagerel $LN11
	DD	imagerel $LN11+774
	DD	imagerel $unwind$fcb_cmd
$pdata$start_cmd DD imagerel $LN27
	DD	imagerel $LN27+1423
	DD	imagerel $unwind$start_cmd
$pdata$g_cmd DD	imagerel $LN19
	DD	imagerel $LN19+519
	DD	imagerel $unwind$g_cmd
$pdata$stop_cmd DD imagerel $LN17
	DD	imagerel $LN17+698
	DD	imagerel $unwind$stop_cmd
$pdata$quiet_cmd DD imagerel $LN21
	DD	imagerel $LN21+471
	DD	imagerel $unwind$quiet_cmd
$pdata$iodelay_cmd DD imagerel $LN18
	DD	imagerel $LN18+833
	DD	imagerel $unwind$iodelay_cmd
$pdata$autoinit_cmd DD imagerel $LN25
	DD	imagerel $LN25+847
	DD	imagerel $unwind$autoinit_cmd
$pdata$check_define_default_automount_dir DD imagerel check_define_default_automount_dir
	DD	imagerel check_define_default_automount_dir+683
	DD	imagerel $unwind$check_define_default_automount_dir
$pdata$add_tamdir DD imagerel add_tamdir
	DD	imagerel add_tamdir+958
	DD	imagerel $unwind$add_tamdir
$pdata$automount_cmd DD imagerel $LN107
	DD	imagerel $LN107+5452
	DD	imagerel $unwind$automount_cmd
$pdata$try_scsi_refresh DD imagerel try_scsi_refresh
	DD	imagerel try_scsi_refresh+164
	DD	imagerel $unwind$try_scsi_refresh
$pdata$scsimount_cmd DD imagerel $LN60
	DD	imagerel $LN60+2652
	DD	imagerel $unwind$scsimount_cmd
$pdata$cckd_cmd DD imagerel $LN10
	DD	imagerel $LN10+341
	DD	imagerel $unwind$cckd_cmd
$pdata$ctc_cmd DD imagerel $LN118
	DD	imagerel $LN118+3866
	DD	imagerel $unwind$ctc_cmd
$pdata$ptp_cmd DD imagerel $LN56
	DD	imagerel $LN56+2449
	DD	imagerel $unwind$ptp_cmd
$pdata$qeth_cmd DD imagerel $LN117
	DD	imagerel $LN117+5353
	DD	imagerel $unwind$qeth_cmd
$pdata$tt32_cmd DD imagerel $LN35
	DD	imagerel $LN35+2327
	DD	imagerel $unwind$tt32_cmd
$pdata$sclproot_cmd DD imagerel $LN18
	DD	imagerel $LN18+715
	DD	imagerel $unwind$sclproot_cmd
$pdata$engines_cmd DD imagerel $LN26
	DD	imagerel $LN26+1195
	DD	imagerel $unwind$engines_cmd
$pdata$sysepoch_cmd DD imagerel $LN23
	DD	imagerel $LN23+885
	DD	imagerel $unwind$sysepoch_cmd
$pdata$yroffset_cmd DD imagerel $LN19
	DD	imagerel $LN19+690
	DD	imagerel $unwind$yroffset_cmd
$pdata$tzoffset_cmd DD imagerel $LN19
	DD	imagerel $LN19+722
	DD	imagerel $unwind$tzoffset_cmd
$pdata$qstor_cmd DD imagerel $LN22
	DD	imagerel $LN22+864
	DD	imagerel $unwind$qstor_cmd
$pdata$mainsize_cmd DD imagerel $LN41
	DD	imagerel $LN41+1984
	DD	imagerel $unwind$mainsize_cmd
$pdata$xpndsize_cmd DD imagerel $LN41
	DD	imagerel $LN41+1676
	DD	imagerel $unwind$xpndsize_cmd
$pdata$deprecated_cmd DD imagerel deprecated_cmd
	DD	imagerel deprecated_cmd+129
	DD	imagerel $unwind$deprecated_cmd
$pdata$hercnice_cmd DD imagerel $LN9
	DD	imagerel $LN9+58
	DD	imagerel $unwind$hercnice_cmd
$pdata$hercprio_cmd DD imagerel $LN9
	DD	imagerel $LN9+58
	DD	imagerel $unwind$hercprio_cmd
$pdata$cpuprio_cmd DD imagerel $LN9
	DD	imagerel $LN9+58
	DD	imagerel $unwind$cpuprio_cmd
$pdata$devprio_cmd DD imagerel $LN9
	DD	imagerel $LN9+58
	DD	imagerel $unwind$devprio_cmd
$pdata$todprio_cmd DD imagerel $LN9
	DD	imagerel $LN9+58
	DD	imagerel $unwind$todprio_cmd
$pdata$srvprio_cmd DD imagerel $LN9
	DD	imagerel $LN9+58
	DD	imagerel $unwind$srvprio_cmd
$pdata$netdev_cmd DD imagerel $LN16
	DD	imagerel $LN16+687
	DD	imagerel $unwind$netdev_cmd
$pdata$numcpu_cmd DD imagerel $LN22
	DD	imagerel $LN22+1257
	DD	imagerel $unwind$numcpu_cmd
$pdata$maxcpu_cmd DD imagerel $LN22
	DD	imagerel $LN22+1108
	DD	imagerel $unwind$maxcpu_cmd
$pdata$cnslport_cmd DD imagerel $LN35
	DD	imagerel $LN35+1840
	DD	imagerel $unwind$cnslport_cmd
$pdata$sysgport_cmd DD imagerel $LN44
	DD	imagerel $LN44+2199
	DD	imagerel $unwind$sysgport_cmd
$pdata$http_cmd DD imagerel $LN6
	DD	imagerel $LN6+83
	DD	imagerel $unwind$http_cmd
$pdata$toddrag_cmd DD imagerel $LN16
	DD	imagerel $LN16+960
	DD	imagerel $unwind$toddrag_cmd
$pdata$panopt_cmd DD imagerel $LN73
	DD	imagerel $LN73+2880
	DD	imagerel $unwind$panopt_cmd
$pdata$panrate_cmd DD imagerel $LN22
	DD	imagerel $LN22+1231
	DD	imagerel $unwind$panrate_cmd
$pdata$pantitle_cmd DD imagerel $LN20
	DD	imagerel $LN20+876
	DD	imagerel $unwind$pantitle_cmd
$pdata$sh_cmd DD imagerel $LN15
	DD	imagerel $LN15+225
	DD	imagerel $unwind$sh_cmd
$pdata$pgmprdos_cmd DD imagerel $LN17
	DD	imagerel $LN17+504
	DD	imagerel $unwind$pgmprdos_cmd
$pdata$diag8_cmd DD imagerel $LN33
	DD	imagerel $LN33+1262
	DD	imagerel $unwind$diag8_cmd
$pdata$shcmdopt_cmd DD imagerel $LN32
	DD	imagerel $LN32+1150
	DD	imagerel $unwind$shcmdopt_cmd
$pdata$legacysenseid_cmd DD imagerel $LN24
	DD	imagerel $LN24+1000
	DD	imagerel $unwind$legacysenseid_cmd
$pdata$cp_updt_cmd DD imagerel $LN25
	DD	imagerel $LN25+1013
	DD	imagerel $unwind$cp_updt_cmd
$pdata$codepage_cmd DD imagerel $LN18
	DD	imagerel $LN18+526
	DD	imagerel $unwind$codepage_cmd
$pdata$stsi_model_cmd DD imagerel $LN29
	DD	imagerel $LN29+1984
	DD	imagerel $unwind$stsi_model_cmd
$pdata$stsi_plant_cmd DD imagerel $LN21
	DD	imagerel $LN21+1223
	DD	imagerel $unwind$stsi_plant_cmd
$pdata$stsi_manufacturer_cmd DD imagerel $LN21
	DD	imagerel $LN21+1223
	DD	imagerel $unwind$stsi_manufacturer_cmd
$pdata$shrdport_cmd DD imagerel $LN22
	DD	imagerel $LN22+1101
	DD	imagerel $unwind$shrdport_cmd
$pdata$lparname_cmd DD imagerel $LN14
	DD	imagerel $LN14+606
	DD	imagerel $unwind$lparname_cmd
$pdata$lparnum_cmd DD imagerel $LN38
	DD	imagerel $LN38+1751
	DD	imagerel $unwind$lparnum_cmd
$pdata$cpuverid_cmd DD imagerel $LN21
	DD	imagerel $LN21+1280
	DD	imagerel $unwind$cpuverid_cmd
$pdata$cpumodel_cmd DD imagerel $LN19
	DD	imagerel $LN19+1105
	DD	imagerel $unwind$cpumodel_cmd
$pdata$cpuserial_cmd DD imagerel $LN17
	DD	imagerel $LN17+1069
	DD	imagerel $unwind$cpuserial_cmd
$pdata$cpuidfmt_cmd DD imagerel $LN34
	DD	imagerel $LN34+2183
	DD	imagerel $unwind$cpuidfmt_cmd
$pdata$loadparm_cmd DD imagerel $LN14
	DD	imagerel $LN14+614
	DD	imagerel $unwind$loadparm_cmd
$pdata$SortDevBlkPtrsAscendingByDevnum DD imagerel SortDevBlkPtrsAscendingByDevnum
	DD	imagerel SortDevBlkPtrsAscendingByDevnum+51
	DD	imagerel $unwind$SortDevBlkPtrsAscendingByDevnum
$pdata$is_devclass_name DD imagerel is_devclass_name
	DD	imagerel is_devclass_name+335
	DD	imagerel $unwind$is_devclass_name
$pdata$devlist_cmd DD imagerel $LN57
	DD	imagerel $LN57+2618
	DD	imagerel $unwind$devlist_cmd
$pdata$qd_cmd DD imagerel $LN94
	DD	imagerel $LN94+4324
	DD	imagerel $unwind$qd_cmd
$pdata$attach_cmd DD imagerel $LN7
	DD	imagerel $LN7+240
	DD	imagerel $unwind$attach_cmd
$pdata$detach_cmd DD imagerel $LN30
	DD	imagerel $LN30+1253
	DD	imagerel $unwind$detach_cmd
$pdata$define_cmd DD imagerel $LN10
	DD	imagerel $LN10+376
	DD	imagerel $unwind$define_cmd
$pdata$pgmtrace_cmd DD imagerel $LN26
	DD	imagerel $LN26+1476
	DD	imagerel $unwind$pgmtrace_cmd
$pdata$ostailor_cmd DD imagerel $LN81
	DD	imagerel $LN81+3282
	DD	imagerel $unwind$ostailor_cmd
$pdata$k_cmd DD	imagerel $LN7
	DD	imagerel $LN7+155
	DD	imagerel $unwind$k_cmd
$pdata$ds_cmd DD imagerel $LN11
	DD	imagerel $LN11+435
	DD	imagerel $unwind$ds_cmd
$pdata$devtmax_cmd DD imagerel $LN15
	DD	imagerel $LN15+895
	DD	imagerel $unwind$devtmax_cmd
$pdata$sf_cmd DD imagerel $LN59
	DD	imagerel $LN59+2589
	DD	imagerel $unwind$sf_cmd
$pdata$mounted_tape_reinit_cmd DD imagerel $LN24
	DD	imagerel $LN24+1000
	DD	imagerel $unwind$mounted_tape_reinit_cmd
$pdata$mt_cmd DD imagerel $LN167
	DD	imagerel $LN167+7176
	DD	imagerel $unwind$mt_cmd
$pdata$savecore_cmd DD imagerel $LN40
	DD	imagerel $LN40+3046
	DD	imagerel $unwind$savecore_cmd
$pdata$is_reserved_symbol DD imagerel is_reserved_symbol
	DD	imagerel is_reserved_symbol+751
	DD	imagerel $unwind$is_reserved_symbol
$pdata$defsym_cmd DD imagerel $LN12
	DD	imagerel $LN12+594
	DD	imagerel $unwind$defsym_cmd
$pdata$delsym_cmd DD imagerel $LN9
	DD	imagerel $LN9+473
	DD	imagerel $unwind$delsym_cmd
$pdata$fquest_cmd DD imagerel $LN21
	DD	imagerel $LN21+125
	DD	imagerel $unwind$fquest_cmd
$pdata$fonoff_cmd DD imagerel fonoff_cmd
	DD	imagerel fonoff_cmd+133
	DD	imagerel $unwind$fonoff_cmd
$pdata$OnOffCommand DD imagerel $LN63
	DD	imagerel $LN63+3873
	DD	imagerel $unwind$OnOffCommand
$pdata$cmdsep_cmd DD imagerel $LN27
	DD	imagerel $LN27+1505
	DD	imagerel $unwind$cmdsep_cmd
$pdata$ssd_cmd DD imagerel $LN12
	DD	imagerel $LN12+62
	DD	imagerel $unwind$ssd_cmd
$pdata$scpecho_cmd DD imagerel $LN23
	DD	imagerel $LN23+893
	DD	imagerel $unwind$scpecho_cmd
$pdata$scpimply_cmd DD imagerel $LN23
	DD	imagerel $LN23+893
	DD	imagerel $unwind$scpimply_cmd
$pdata$ldmod_cmd DD imagerel $LN15
	DD	imagerel $LN15+493
	DD	imagerel $unwind$ldmod_cmd
$pdata$rmmod_cmd DD imagerel $LN15
	DD	imagerel $LN15+491
	DD	imagerel $unwind$rmmod_cmd
$pdata$lsmod_cmd DD imagerel $LN13
	DD	imagerel $LN13+308
	DD	imagerel $unwind$lsmod_cmd
$pdata$lsdep_cmd DD imagerel $LN11
	DD	imagerel $LN11+231
	DD	imagerel $unwind$lsdep_cmd
$pdata$lsequ_cmd DD imagerel $LN11
	DD	imagerel $LN11+229
	DD	imagerel $unwind$lsequ_cmd
$pdata$modpath_cmd DD imagerel $LN14
	DD	imagerel $LN14+574
	DD	imagerel $unwind$modpath_cmd
$pdata$ecpsvm_cmd DD imagerel $LN28
	DD	imagerel $LN28+1834
	DD	imagerel $unwind$ecpsvm_cmd
$pdata$herclogo_cmd DD imagerel $LN10
	DD	imagerel $LN10+649
	DD	imagerel $unwind$herclogo_cmd
$pdata$sizeof_cmd DD imagerel $LN12
	DD	imagerel $LN12+2608
	DD	imagerel $unwind$sizeof_cmd
$pdata$conkpalv_cmd DD imagerel $LN21
	DD	imagerel $LN21+1424
	DD	imagerel $unwind$conkpalv_cmd
$pdata$msglevel_cmd DD imagerel $LN35
	DD	imagerel $LN35+1390
	DD	imagerel $unwind$msglevel_cmd
$pdata$qcpuid_cpuid DD imagerel qcpuid_cpuid
	DD	imagerel qcpuid_cpuid+110
	DD	imagerel $unwind$qcpuid_cpuid
$pdata$qcpuid_cpcsi DD imagerel qcpuid_cpcsi
	DD	imagerel qcpuid_cpcsi+357
	DD	imagerel $unwind$qcpuid_cpcsi
$pdata$qcpuid_cmd DD imagerel $LN27
	DD	imagerel $LN27+1084
	DD	imagerel $unwind$qcpuid_cmd
$pdata$qpfkeys_cmd DD imagerel $LN15
	DD	imagerel $LN15+359
	DD	imagerel $unwind$qpfkeys_cmd
$pdata$qpid_cmd DD imagerel $LN13
	DD	imagerel $LN13+213
	DD	imagerel $unwind$qpid_cmd
$pdata$qports_cmd DD imagerel $LN23
	DD	imagerel $LN23+1373
	DD	imagerel $unwind$qports_cmd
$pdata$cmdlvl_cmd DD imagerel $LN51
	DD	imagerel $LN51+1610
	DD	imagerel $unwind$cmdlvl_cmd
pdata	ENDS
;	COMDAT __xmm@80000000000000008000000000000000
CONST	SEGMENT
__xmm@80000000000000008000000000000000 DB 00H, 00H, 00H, 00H, 00H, 00H, 00H
	DB	080H, 00H, 00H, 00H, 00H, 00H, 00H, 00H, 080H
CONST	ENDS
;	COMDAT __real@bff0000000000000
CONST	SEGMENT
__real@bff0000000000000 DQ 0bff0000000000000r	; -1
CONST	ENDS
;	COMDAT __real@40c3880000000000
CONST	SEGMENT
__real@40c3880000000000 DQ 040c3880000000000r	; 10000
CONST	ENDS
;	COMDAT __real@4000000000000000
CONST	SEGMENT
__real@4000000000000000 DQ 04000000000000000r	; 2
CONST	ENDS
;	COMDAT __real@3ff0000000000000
CONST	SEGMENT
__real@3ff0000000000000 DQ 03ff0000000000000r	; 1
CONST	ENDS
;	COMDAT __real@3f1a36e2eb1c432d
CONST	SEGMENT
__real@3f1a36e2eb1c432d DQ 03f1a36e2eb1c432dr	; 0.0001
CONST	ENDS
_DATA	SEGMENT
	ORG $+3
$SG158966 DB	'C:\papa\MyGit\hyperion-zvector\hinlines.h:534', 00H
	ORG $+2
$SG158967 DB	'C:\papa\MyGit\hyperion-zvector\hinlines.h:538', 00H
	ORG $+2
$SG181485 DB	'hsccmd.c:94', 00H
$SG181489 DB	'I', 00H
	ORG $+2
$SG181490 DB	'HHC02390%s Storage %16.16llX-%16.16llX set to unusable', 0aH
	DB	00H
$SG181491 DB	's370_fquest_cmd', 00H
$SG181492 DB	'hsccmd.c', 00H
	ORG $+3
$SG181496 DB	'I', 00H
	ORG $+2
$SG181493 DB	'hsccmd.c:117', 00H
	ORG $+3
$SG181497 DB	'HHC02390%s Storage %16.16llX-%16.16llX set to unusable', 0aH
	DB	00H
$SG181498 DB	's370_fquest_cmd', 00H
$SG181499 DB	'hsccmd.c', 00H
	ORG $+3
$SG181501 DB	'I', 00H
	ORG $+2
$SG181502 DB	'HHC02391%s No unusable storage found', 0aH, 00H
	ORG $+2
$SG181503 DB	's370_fquest_cmd', 00H
$SG181504 DB	'hsccmd.c', 00H
	ORG $+3
$SG181526 DB	'E', 00H
	ORG $+2
$SG181524 DB	'%16.16llX', 00H
	ORG $+2
$SG181533 DB	'usable', 00H
	ORG $+1
$SG181535 DB	'I', 00H
	ORG $+2
$SG181527 DB	'HHC02205%s Invalid argument %s%s', 0aH, 00H
	ORG $+2
$SG191574 DB	'I', 00H
	ORG $+2
$SG181528 DB	's370_fonoff_cmd', 00H
$SG181529 DB	'hsccmd.c', 00H
	ORG $+3
$SG191581 DB	'I', 00H
	ORG $+2
$SG181532 DB	'Storage %16.16llX-%16.16llX', 00H
$SG191586 DB	'I', 00H
	ORG $+2
$SG181534 DB	'unusable', 00H
	ORG $+3
$SG191611 DB	'E', 00H
	ORG $+2
$SG181536 DB	'HHC02204%s %-14s set to %s', 0aH, 00H
$SG191620 DB	'I', 00H
	ORG $+2
$SG181537 DB	's370_fonoff_cmd', 00H
$SG181538 DB	'hsccmd.c', 00H
	ORG $+3
$SG191618 DB	'usable', 00H
	ORG $+1
$SG204536 DB	'I', 00H
	ORG $+2
$SG191570 DB	'C:\papa\MyGit\hyperion-zvector\hsccmd.c:94', 00H
	ORG $+1
$SG204543 DB	'I', 00H
	ORG $+2
$SG191575 DB	'HHC02390%s Storage %16.16llX-%16.16llX set to unusable', 0aH
	DB	00H
$SG191576 DB	's390_fquest_cmd', 00H
$SG191577 DB	'C:\papa\MyGit\hyperion-zvector\hsccmd.c', 00H
$SG191578 DB	'C:\papa\MyGit\hyperion-zvector\hsccmd.c:117', 00H
$SG204548 DB	'I', 00H
	ORG $+2
$SG191582 DB	'HHC02390%s Storage %16.16llX-%16.16llX set to unusable', 0aH
	DB	00H
$SG191583 DB	's390_fquest_cmd', 00H
$SG191584 DB	'C:\papa\MyGit\hyperion-zvector\hsccmd.c', 00H
$SG191587 DB	'HHC02391%s No unusable storage found', 0aH, 00H
	ORG $+2
$SG191588 DB	's390_fquest_cmd', 00H
$SG191589 DB	'C:\papa\MyGit\hyperion-zvector\hsccmd.c', 00H
$SG191609 DB	'%16.16llX', 00H
	ORG $+2
$SG204573 DB	'E', 00H
	ORG $+2
$SG191612 DB	'HHC02205%s Invalid argument %s%s', 0aH, 00H
	ORG $+2
$SG204580 DB	'usable', 00H
	ORG $+1
$SG204582 DB	'I', 00H
	ORG $+2
$SG191613 DB	's390_fonoff_cmd', 00H
$SG191614 DB	'C:\papa\MyGit\hyperion-zvector\hsccmd.c', 00H
$SG191617 DB	'Storage %16.16llX-%16.16llX', 00H
$SG204785 DB	'E', 00H
	ORG $+2
$SG191619 DB	'unusable', 00H
	ORG $+3
$SG204792 DB	'CRASH', 00H
	ORG $+2
$SG204802 DB	'a', 00H
	ORG $+2
$SG191621 DB	'HHC02204%s %-14s set to %s', 0aH, 00H
$SG204803 DB	'b', 00H
	ORG $+2
$SG191622 DB	's390_fonoff_cmd', 00H
$SG191623 DB	'C:\papa\MyGit\hyperion-zvector\hsccmd.c', 00H
$SG204532 DB	'C:\papa\MyGit\hyperion-zvector\hsccmd.c:94', 00H
	ORG $+1
$SG204804 DB	'c', 00H
	ORG $+2
$SG204537 DB	'HHC02390%s Storage %16.16llX-%16.16llX set to unusable', 0aH
	DB	00H
$SG204538 DB	'z900_fquest_cmd', 00H
$SG204539 DB	'C:\papa\MyGit\hyperion-zvector\hsccmd.c', 00H
$SG204540 DB	'C:\papa\MyGit\hyperion-zvector\hsccmd.c:117', 00H
$SG204807 DB	'#1', 00H
	ORG $+1
$SG204544 DB	'HHC02390%s Storage %16.16llX-%16.16llX set to unusable', 0aH
	DB	00H
$SG204545 DB	'z900_fquest_cmd', 00H
$SG204546 DB	'C:\papa\MyGit\hyperion-zvector\hsccmd.c', 00H
$SG204549 DB	'HHC02391%s No unusable storage found', 0aH, 00H
	ORG $+2
$SG204550 DB	'z900_fquest_cmd', 00H
$SG204551 DB	'C:\papa\MyGit\hyperion-zvector\hsccmd.c', 00H
$SG204571 DB	'%16.16llX', 00H
	ORG $+2
$SG204818 DB	'#2', 00H
	ORG $+1
$SG204574 DB	'HHC02205%s Invalid argument %s%s', 0aH, 00H
	ORG $+2
$SG204829 DB	'#3', 00H
	ORG $+1
$SG204575 DB	'z900_fonoff_cmd', 00H
$SG204576 DB	'C:\papa\MyGit\hyperion-zvector\hsccmd.c', 00H
$SG204579 DB	'Storage %16.16llX-%16.16llX', 00H
$SG204886 DB	'E', 00H
	ORG $+2
$SG204581 DB	'unusable', 00H
	ORG $+3
$SG204840 DB	'LOCKS', 00H
	ORG $+2
$SG204854 DB	'LOCKS2', 00H
	ORG $+1
$SG204916 DB	'E', 00H
	ORG $+2
$SG204583 DB	'HHC02204%s %-14s set to %s', 0aH, 00H
$SG204921 DB	'E', 00H
	ORG $+2
$SG204584 DB	'z900_fonoff_cmd', 00H
$SG204585 DB	'C:\papa\MyGit\hyperion-zvector\hsccmd.c', 00H
$SG204613 DB	'*** $test thread %8.8x: sleeping for %d seconds...', 0aH
	DB	00H
$SG204931 DB	'E', 00H
	ORG $+2
$SG204614 DB	'test_thread', 00H
$SG204937 DB	'E', 00H
	ORG $+2
$SG204615 DB	'C:\papa\MyGit\hyperion-zvector\hsccmd.c', 00H
$SG204616 DB	'*** $test thread %8.8x: %d second sleep done; rc=%d', 0aH
	DB	00H
	ORG $+3
$SG204617 DB	'test_thread', 00H
$SG204988 DB	'E', 00H
	ORG $+2
$SG204618 DB	'C:\papa\MyGit\hyperion-zvector\hsccmd.c', 00H
$SG204629 DB	'C:\papa\MyGit\hyperion-zvector\hsccmd.c:256', 00H
$SG204996 DB	'I', 00H
	ORG $+2
$SG204630 DB	'&testlock', 00H
	ORG $+2
$SG204862 DB	'LOCKS3', 00H
	ORG $+1
$SG205004 DB	'I', 00H
	ORG $+2
$SG204631 DB	'C:\papa\MyGit\hyperion-zvector\hsccmd.c:257', 00H
$SG205013 DB	'E', 00H
	ORG $+2
$SG204655 DB	'C:\papa\MyGit\hyperion-zvector\hsccmd.c:272', 00H
$SG205018 DB	'I', 00H
	ORG $+2
$SG204657 DB	'C:\papa\MyGit\hyperion-zvector\hsccmd.c:276', 00H
$SG205031 DB	'I', 00H
	ORG $+2
$SG204659 DB	'C:\papa\MyGit\hyperion-zvector\hsccmd.c:280', 00H
$SG205037 DB	'I', 00H
	ORG $+2
$SG204660 DB	'C:\papa\MyGit\hyperion-zvector\hsccmd.c:282', 00H
$SG205042 DB	'I', 00H
	ORG $+2
$SG204681 DB	'C:\papa\MyGit\hyperion-zvector\hsccmd.c:292', 00H
$SG205047 DB	'I', 00H
	ORG $+2
$SG204683 DB	'C:\papa\MyGit\hyperion-zvector\hsccmd.c:296', 00H
$SG205052 DB	'I', 00H
	ORG $+2
$SG204685 DB	'C:\papa\MyGit\hyperion-zvector\hsccmd.c:300', 00H
$SG205057 DB	'I', 00H
	ORG $+2
$SG204686 DB	'C:\papa\MyGit\hyperion-zvector\hsccmd.c:302', 00H
$SG205062 DB	'I', 00H
	ORG $+2
$SG204707 DB	'C:\papa\MyGit\hyperion-zvector\hsccmd.c:312', 00H
$SG205067 DB	'I', 00H
	ORG $+2
$SG204709 DB	'C:\papa\MyGit\hyperion-zvector\hsccmd.c:316', 00H
$SG205073 DB	'E', 00H
	ORG $+2
$SG204711 DB	'C:\papa\MyGit\hyperion-zvector\hsccmd.c:320', 00H
$SG205102 DB	'AT', 00H
	ORG $+1
$SG204712 DB	'C:\papa\MyGit\hyperion-zvector\hsccmd.c:322', 00H
$SG205115 DB	'%s', 0aH, 00H
$SG204783 DB	'WRONG! Perhaps you meant ''runtest'' instead?', 00H
$SG205134 DB	'E', 00H
	ORG $+2
$SG204786 DB	'HHC00001%s %s%s', 0aH, 00H
	ORG $+3
$SG204872 DB	'LOCKS4', 00H
	ORG $+1
$SG205194 DB	'E', 00H
	ORG $+2
$SG204787 DB	'$test_cmd', 00H
	ORG $+2
$SG204902 DB	'SIGFPE', 00H
	ORG $+1
$SG205230 DB	'%d', 00H
	ORG $+1
$SG204788 DB	'C:\papa\MyGit\hyperion-zvector\hsccmd.c', 00H
$SG204795 DB	'DEADLOCK', 00H
	ORG $+3
$SG204905 DB	'SIGILL', 00H
	ORG $+1
$SG205231 DB	'I', 00H
	ORG $+2
$SG204796 DB	'C:\papa\MyGit\hyperion-zvector\hsccmd.c:354', 00H
$SG205239 DB	'E', 00H
	ORG $+2
$SG204797 DB	'&deadlocks_a', 00H
	ORG $+3
$SG204798 DB	'C:\papa\MyGit\hyperion-zvector\hsccmd.c:355', 00H
$SG205243 DB	'%d', 00H
	ORG $+1
$SG204799 DB	'&deadlocks_b', 00H
	ORG $+3
$SG204800 DB	'C:\papa\MyGit\hyperion-zvector\hsccmd.c:356', 00H
$SG205244 DB	'I', 00H
	ORG $+2
$SG204801 DB	'&deadlocks_c', 00H
	ORG $+3
$SG204806 DB	'C:\papa\MyGit\hyperion-zvector\hsccmd.c:362', 00H
$SG205288 DB	'E', 00H
	ORG $+2
$SG204808 DB	'$test_cmd', 00H
	ORG $+2
$SG205138 DB	'MSGNOH', 00H
	ORG $+1
$SG205296 DB	'off', 00H
$SG204809 DB	'C:\papa\MyGit\hyperion-zvector\hsccmd.c', 00H
$SG204810 DB	'%s(%d) : warning HHC90999W : *** Assertion Failed! *** f'
	DB	'unction: %s', 0aH, 00H
	ORG $+3
$SG204812 DB	'$test_cmd', 00H
	ORG $+2
$SG205299 DB	'I', 00H
	ORG $+2
$SG204813 DB	'C:\papa\MyGit\hyperion-zvector\hsccmd.c', 00H
$SG204814 DB	'%s(%d) : warning HHC90999W : *** Assertion Failed! *** f'
	DB	'unction: %s', 0aH, 00H
	ORG $+3
$SG204817 DB	'C:\papa\MyGit\hyperion-zvector\hsccmd.c:363', 00H
$SG205303 DB	'I', 00H
	ORG $+2
$SG204819 DB	'$test_cmd', 00H
	ORG $+2
$SG205336 DB	'I', 00H
	ORG $+2
$SG204820 DB	'C:\papa\MyGit\hyperion-zvector\hsccmd.c', 00H
$SG204821 DB	'%s(%d) : warning HHC90999W : *** Assertion Failed! *** f'
	DB	'unction: %s', 0aH, 00H
	ORG $+3
$SG204823 DB	'$test_cmd', 00H
	ORG $+2
$SG205349 DB	'E', 00H
	ORG $+2
$SG204824 DB	'C:\papa\MyGit\hyperion-zvector\hsccmd.c', 00H
$SG204825 DB	'%s(%d) : warning HHC90999W : *** Assertion Failed! *** f'
	DB	'unction: %s', 0aH, 00H
	ORG $+3
$SG204828 DB	'C:\papa\MyGit\hyperion-zvector\hsccmd.c:364', 00H
$SG205358 DB	'I', 00H
	ORG $+2
$SG204830 DB	'$test_cmd', 00H
	ORG $+2
$SG205384 DB	'E', 00H
	ORG $+2
$SG204831 DB	'C:\papa\MyGit\hyperion-zvector\hsccmd.c', 00H
$SG204832 DB	'%s(%d) : warning HHC90999W : *** Assertion Failed! *** f'
	DB	'unction: %s', 0aH, 00H
	ORG $+3
$SG204834 DB	'$test_cmd', 00H
	ORG $+2
$SG205390 DB	's', 00H
	ORG $+2
$SG204835 DB	'C:\papa\MyGit\hyperion-zvector\hsccmd.c', 00H
$SG204836 DB	'%s(%d) : warning HHC90999W : *** Assertion Failed! *** f'
	DB	'unction: %s', 0aH, 00H
	ORG $+3
$SG204842 DB	'C:\papa\MyGit\hyperion-zvector\hsccmd.c:371', 00H
$SG205392 DB	's', 00H
	ORG $+2
$SG204843 DB	'test_locks_thread', 00H
	ORG $+2
$SG205394 DB	'I', 00H
	ORG $+2
$SG204844 DB	'$test_cmd', 00H
	ORG $+2
$SG205400 DB	's', 00H
	ORG $+2
$SG204845 DB	'C:\papa\MyGit\hyperion-zvector\hsccmd.c', 00H
$SG204849 DB	'C:\papa\MyGit\hyperion-zvector\hsccmd.c', 00H
$SG204846 DB	'%s(%d) : warning HHC90999W : *** Assertion Failed! *** f'
	DB	'unction: %s', 0aH, 00H
	ORG $+3
$SG204848 DB	'$test_cmd', 00H
	ORG $+6
$SG204855 DB	'C:\papa\MyGit\hyperion-zvector\hsccmd.c:377', 00H
$SG204879 DB	'NANO', 00H
	ORG $+7
$SG204850 DB	'%s(%d) : warning HHC90999W : *** Assertion Failed! *** f'
	DB	'unction: %s', 0aH, 00H
	ORG $+3
$SG204856 DB	'&testlock', 00H
	ORG $+2
$SG205402 DB	'I', 00H
	ORG $+2
$SG204857 DB	'C:\papa\MyGit\hyperion-zvector\hsccmd.c:378', 00H
$SG205406 DB	'I', 00H
	ORG $+2
$SG204858 DB	'&testlock', 00H
	ORG $+2
$SG205425 DB	'E', 00H
	ORG $+2
$SG204859 DB	'C:\papa\MyGit\hyperion-zvector\hsccmd.c:379', 00H
$SG205448 DB	'E', 00H
	ORG $+2
$SG204863 DB	'C:\papa\MyGit\hyperion-zvector\hsccmd.c:385', 00H
$SG205455 DB	'PRT', 00H
$SG204864 DB	'&testlock', 00H
	ORG $+2
$SG205457 DB	'E', 00H
	ORG $+2
$SG204865 DB	'C:\papa\MyGit\hyperion-zvector\hsccmd.c:386', 00H
$SG205463 DB	'E', 00H
	ORG $+2
$SG204866 DB	'C:\papa\MyGit\hyperion-zvector\hsccmd.c:387', 00H
$SG205467 DB	'I', 00H
	ORG $+2
$SG204867 DB	'&testlock', 00H
	ORG $+2
$SG205462 DB	'cctape', 00H
	ORG $+1
$SG205490 DB	'E', 00H
	ORG $+2
$SG204868 DB	'C:\papa\MyGit\hyperion-zvector\hsccmd.c:388', 00H
$SG205497 DB	'PRT', 00H
$SG204869 DB	'C:\papa\MyGit\hyperion-zvector\hsccmd.c:389', 00H
$SG205499 DB	'E', 00H
	ORG $+2
$SG204873 DB	'C:\papa\MyGit\hyperion-zvector\hsccmd.c:395', 00H
$SG205504 DB	'fcb', 00H
$SG204874 DB	'&testlock', 00H
	ORG $+2
$SG205505 DB	'E', 00H
	ORG $+2
$SG204875 DB	'C:\papa\MyGit\hyperion-zvector\hsccmd.c:396', 00H
$SG205509 DB	'I', 00H
	ORG $+2
$SG204876 DB	'C:\papa\MyGit\hyperion-zvector\hsccmd.c:397', 00H
$SG205544 DB	'PRT', 00H
$SG204880 DB	'*** $test command: creating threads...', 0aH, 00H
$SG204881 DB	'$test_cmd', 00H
	ORG $+2
$SG205545 DB	'PCH', 00H
$SG204882 DB	'C:\papa\MyGit\hyperion-zvector\hsccmd.c', 00H
$SG204884 DB	'C:\papa\MyGit\hyperion-zvector\hsccmd.c:414', 00H
$SG205550 DB	'I', 00H
	ORG $+2
$SG204885 DB	'test_thread', 00H
$SG205556 DB	'E', 00H
	ORG $+2
$SG204887 DB	'HHC00102%s Error in function create_thread(): %s', 0aH, 00H
	ORG $+2
$SG205562 DB	'E', 00H
	ORG $+2
$SG204888 DB	'$test_cmd', 00H
	ORG $+2
$SG205568 DB	'E', 00H
	ORG $+2
$SG204889 DB	'C:\papa\MyGit\hyperion-zvector\hsccmd.c', 00H
$SG204892 DB	'*** $test command: waiting for threads to exit...', 0aH, 00H
	ORG $+1
$SG205574 DB	'W', 00H
	ORG $+2
$SG204893 DB	'$test_cmd', 00H
	ORG $+2
$SG205579 DB	'E', 00H
	ORG $+2
$SG204894 DB	'C:\papa\MyGit\hyperion-zvector\hsccmd.c', 00H
$SG204896 DB	'C:\papa\MyGit\hyperion-zvector\hsccmd.c:432', 00H
$SG205583 DB	'E', 00H
	ORG $+2
$SG204897 DB	'*** $test command: test complete.', 0aH, 00H
	ORG $+1
$SG205622 DB	'E', 00H
	ORG $+2
$SG204898 DB	'$test_cmd', 00H
	ORG $+2
$SG205654 DB	'PRT', 00H
$SG204899 DB	'C:\papa\MyGit\hyperion-zvector\hsccmd.c', 00H
$SG204908 DB	'SIGSEGV', 00H
$SG204911 DB	'SIGUSR1', 00H
$SG204914 DB	'SIGUSR2', 00H
$SG204915 DB	': unknown test', 00H
	ORG $+1
$SG204917 DB	'HHC00001%s %s%s', 0aH, 00H
	ORG $+3
$SG205002 DB	'RESET', 00H
	ORG $+2
$SG205655 DB	'PCH', 00H
$SG204918 DB	'$test_cmd', 00H
	ORG $+2
$SG205656 DB	'I', 00H
	ORG $+2
$SG204919 DB	'C:\papa\MyGit\hyperion-zvector\hsccmd.c', 00H
$SG204920 DB	': missing argument', 00H
	ORG $+1
$SG205661 DB	'E', 00H
	ORG $+2
$SG204922 DB	'HHC00001%s %s%s', 0aH, 00H
	ORG $+3
$SG205003 DB	'Done!', 00H
	ORG $+2
$SG205665 DB	'E', 00H
	ORG $+2
$SG204923 DB	'$test_cmd', 00H
	ORG $+2
$SG205691 DB	'W', 00H
	ORG $+2
$SG204924 DB	'C:\papa\MyGit\hyperion-zvector\hsccmd.c', 00H
$SG204932 DB	'HHC02200%s %1d:%04X device not found', 0aH, 00H
	ORG $+2
$SG204933 DB	'devnotfound_msg', 00H
$SG204934 DB	'C:\papa\MyGit\hyperion-zvector\hsccmd.c', 00H
$SG204938 DB	'HHC02201%s Device number missing', 0aH, 00H
	ORG $+2
$SG205697 DB	'I', 00H
	ORG $+2
$SG204939 DB	'missing_devnum', 00H
	ORG $+1
$SG204940 DB	'C:\papa\MyGit\hyperion-zvector\hsccmd.c', 00H
$SG204989 DB	'HHC02205%s Invalid argument %s%s', 0aH, 00H
	ORG $+2
$SG205721 DB	'E', 00H
	ORG $+2
$SG204990 DB	'maxrates_cmd', 00H
	ORG $+3
$SG204991 DB	'C:\papa\MyGit\hyperion-zvector\hsccmd.c', 00H
$SG204994 DB	'midnight', 00H
	ORG $+3
$SG205192 DB	'FORCE', 00H
	ORG $+2
$SG205732 DB	'E', 00H
	ORG $+2
$SG204995 DB	'midnight', 00H
	ORG $+3
$SG205335 DB	'%s %s', 00H
	ORG $+2
$SG205737 DB	'I', 00H
	ORG $+2
$SG204997 DB	'HHC02204%s %-14s set to %s', 0aH, 00H
$SG205741 DB	'%d', 00H
	ORG $+1
$SG204998 DB	'maxrates_cmd', 00H
	ORG $+3
$SG204999 DB	'C:\papa\MyGit\hyperion-zvector\hsccmd.c', 00H
$SG205005 DB	'HHC02268%s %s', 0aH, 00H
	ORG $+1
$SG205006 DB	'maxrates_cmd', 00H
	ORG $+3
$SG205007 DB	'C:\papa\MyGit\hyperion-zvector\hsccmd.c', 00H
$SG205011 DB	'%d%c', 00H
	ORG $+3
$SG205012 DB	': invalid maxrates interval', 00H
$SG205742 DB	'I', 00H
	ORG $+2
$SG205014 DB	'HHC02205%s Invalid argument %s%s', 0aH, 00H
	ORG $+2
$SG205765 DB	'ON', 00H
	ORG $+1
$SG205015 DB	'maxrates_cmd', 00H
	ORG $+3
$SG205016 DB	'C:\papa\MyGit\hyperion-zvector\hsccmd.c', 00H
$SG205017 DB	'%d minutes', 00H
	ORG $+1
$SG205768 DB	'OFF', 00H
$SG205019 DB	'HHC02204%s %-14s set to %s', 0aH, 00H
$SG205769 DB	'E', 00H
	ORG $+2
$SG205020 DB	'maxrates_cmd', 00H
	ORG $+3
$SG205021 DB	'C:\papa\MyGit\hyperion-zvector\hsccmd.c', 00H
$SG205030 DB	'Highest observed MIPS and IO/s rates:', 00H
	ORG $+2
$SG205032 DB	'HHC02268%s %s', 0aH, 00H
	ORG $+1
$SG205033 DB	'maxrates_cmd', 00H
	ORG $+3
$SG205034 DB	'C:\papa\MyGit\hyperion-zvector\hsccmd.c', 00H
$SG205036 DB	'From %s to %s', 00H
	ORG $+2
$SG205038 DB	'HHC02268%s %s', 0aH, 00H
	ORG $+1
$SG205039 DB	'maxrates_cmd', 00H
	ORG $+3
$SG205040 DB	'C:\papa\MyGit\hyperion-zvector\hsccmd.c', 00H
$SG205041 DB	'MIPS: %d.%02d', 00H
	ORG $+2
$SG205043 DB	'HHC02268%s %s', 0aH, 00H
	ORG $+1
$SG205044 DB	'maxrates_cmd', 00H
	ORG $+3
$SG205045 DB	'C:\papa\MyGit\hyperion-zvector\hsccmd.c', 00H
$SG205046 DB	'IO/s: %d', 00H
	ORG $+3
$SG205357 DB	'%s %s', 00H
	ORG $+2
$SG205775 DB	'E', 00H
	ORG $+2
$SG205048 DB	'HHC02268%s %s', 0aH, 00H
	ORG $+1
$SG205049 DB	'maxrates_cmd', 00H
	ORG $+3
$SG205050 DB	'C:\papa\MyGit\hyperion-zvector\hsccmd.c', 00H
$SG205051 DB	'From %s to %s', 00H
	ORG $+2
$SG205053 DB	'HHC02268%s %s', 0aH, 00H
	ORG $+1
$SG205054 DB	'maxrates_cmd', 00H
	ORG $+3
$SG205055 DB	'C:\papa\MyGit\hyperion-zvector\hsccmd.c', 00H
$SG205056 DB	'MIPS: %d.%02d', 00H
	ORG $+2
$SG205058 DB	'HHC02268%s %s', 0aH, 00H
	ORG $+1
$SG205059 DB	'maxrates_cmd', 00H
	ORG $+3
$SG205060 DB	'C:\papa\MyGit\hyperion-zvector\hsccmd.c', 00H
$SG205061 DB	'IO/s: %d', 00H
	ORG $+3
$SG205624 DB	'g_cmd', 00H
	ORG $+2
$SG205781 DB	'ON', 00H
	ORG $+1
$SG205063 DB	'HHC02268%s %s', 0aH, 00H
	ORG $+1
$SG205064 DB	'maxrates_cmd', 00H
	ORG $+3
$SG205065 DB	'C:\papa\MyGit\hyperion-zvector\hsccmd.c', 00H
$SG205066 DB	'Current interval is %d minutes', 00H
	ORG $+1
$SG205068 DB	'HHC02268%s %s', 0aH, 00H
	ORG $+1
$SG205069 DB	'maxrates_cmd', 00H
	ORG $+3
$SG205070 DB	'C:\papa\MyGit\hyperion-zvector\hsccmd.c', 00H
$SG205071 DB	'zero length', 00H
$SG205782 DB	'OFF', 00H
$SG205072 DB	'strdup()', 00H
	ORG $+3
$SG205783 DB	'I', 00H
	ORG $+2
$SG205074 DB	'HHC02219%s Error in function %s: %s', 0aH, 00H
	ORG $+3
$SG205075 DB	'maxrates_cmd', 00H
	ORG $+3
$SG205076 DB	'C:\papa\MyGit\hyperion-zvector\hsccmd.c', 00H
$SG205113 DB	'HERCULES', 00H
	ORG $+3
$SG205788 DB	'ON', 00H
	ORG $+1
$SG205114 DB	' %2.2d:%2.2d:%2.2d  * MSG FROM %s: %s', 00H
	ORG $+2
$SG205116 DB	'message_cmd', 00H
$SG205789 DB	'OFF', 00H
$SG205117 DB	'C:\papa\MyGit\hyperion-zvector\hsccmd.c', 00H
$SG205136 DB	'msg_cmd', 00H
$SG205135 DB	'HHC02299%s Invalid command usage. Type ''help %s'' for a'
	DB	'ssistance.', 0aH, 00H
	ORG $+2
$SG205790 DB	'I', 00H
	ORG $+2
$SG205137 DB	'C:\papa\MyGit\hyperion-zvector\hsccmd.c', 00H
$SG205195 DB	'HHC02205%s Invalid argument %s%s', 0aH, 00H
	ORG $+2
$SG205815 DB	'E', 00H
	ORG $+2
$SG205196 DB	'quit_cmd', 00H
	ORG $+3
$SG205829 DB	'/', 00H
	ORG $+2
$SG205197 DB	'C:\papa\MyGit\hyperion-zvector\hsccmd.c', 00H
$SG205200 DB	'C:\papa\MyGit\hyperion-zvector\hsccmd.c:787', 00H
$SG205830 DB	'/', 00H
	ORG $+2
$SG205201 DB	'quit_thread', 00H
$SG205831 DB	'I', 00H
	ORG $+2
$SG205202 DB	'quit_cmd', 00H
	ORG $+3
$SG205865 DB	'/', 00H
	ORG $+2
$SG205203 DB	'C:\papa\MyGit\hyperion-zvector\hsccmd.c', 00H
$SG205207 DB	'C:\papa\MyGit\hyperion-zvector\hsccmd.c', 00H
$SG205204 DB	'%s(%d) : warning HHC90999W : *** Assertion Failed! *** f'
	DB	'unction: %s', 0aH, 00H
	ORG $+3
$SG205206 DB	'quit_cmd', 00H
	ORG $+7
$SG205232 DB	'HHC02203%s %-14s: %s', 0aH, 00H
	ORG $+2
$SG205208 DB	'%s(%d) : warning HHC90999W : *** Assertion Failed! *** f'
	DB	'unction: %s', 0aH, 00H
	ORG $+3
$SG205233 DB	'quitmout_cmd', 00H
	ORG $+3
$SG205234 DB	'C:\papa\MyGit\hyperion-zvector\hsccmd.c', 00H
$SG205240 DB	'HHC02211%s Invalid argument(s). Type ''help %s'' for ass'
	DB	'istance.', 0aH, 00H
$SG205241 DB	'quitmout_cmd', 00H
	ORG $+3
$SG205242 DB	'C:\papa\MyGit\hyperion-zvector\hsccmd.c', 00H
$SG205245 DB	'HHC02204%s %-14s set to %s', 0aH, 00H
$SG205866 DB	'/', 00H
	ORG $+2
$SG205246 DB	'quitmout_cmd', 00H
	ORG $+3
$SG205247 DB	'C:\papa\MyGit\hyperion-zvector\hsccmd.c', 00H
$SG205289 DB	'HHC02299%s Invalid command usage. Type ''help %s'' for a'
	DB	'ssistance.', 0aH, 00H
	ORG $+2
$SG205962 DB	'E', 00H
	ORG $+2
$SG205290 DB	'log_cmd', 00H
$SG205291 DB	'C:\papa\MyGit\hyperion-zvector\hsccmd.c', 00H
$SG205300 DB	'HHC02106%s Logger: log switched off', 0aH, 00H
	ORG $+3
$SG205301 DB	'log_cmd', 00H
$SG205302 DB	'C:\papa\MyGit\hyperion-zvector\hsccmd.c', 00H
$SG205304 DB	'HHC02105%s Logger: log to %s', 0aH, 00H
	ORG $+2
$SG205305 DB	'log_cmd', 00H
$SG205306 DB	'C:\papa\MyGit\hyperion-zvector\hsccmd.c', 00H
$SG205331 DB	'TIMESTAMP', 00H
	ORG $+2
$SG205969 DB	'E', 00H
	ORG $+2
$SG205332 DB	'NOTIMESTAMP', 00H
$SG205974 DB	'E', 00H
	ORG $+2
$SG205333 DB	'DATESTAMP', 00H
	ORG $+2
$SG205978 DB	'I', 00H
	ORG $+2
$SG205334 DB	'NODATESTAMP', 00H
$SG205984 DB	'add', 00H
$SG205337 DB	'HHC02203%s %-14s: %s', 0aH, 00H
	ORG $+2
$SG205338 DB	'logopt_cmd', 00H
	ORG $+1
$SG205988 DB	'E', 00H
	ORG $+2
$SG205339 DB	'C:\papa\MyGit\hyperion-zvector\hsccmd.c', 00H
$SG205341 DB	'DATESTAMP', 00H
	ORG $+2
$SG205993 DB	'E', 00H
	ORG $+2
$SG205343 DB	'NODATESTAMP', 00H
$SG205998 DB	'E', 00H
	ORG $+2
$SG205345 DB	'TIMESTAMP', 00H
	ORG $+2
$SG206004 DB	'E', 00H
	ORG $+2
$SG205347 DB	'NOTIMESTAMP', 00H
$SG206011 DB	'E', 00H
	ORG $+2
$SG205350 DB	'HHC02205%s Invalid argument %s%s', 0aH, 00H
	ORG $+2
$SG206017 DB	'E', 00H
	ORG $+2
$SG205351 DB	'logopt_cmd', 00H
	ORG $+1
$SG206023 DB	'E', 00H
	ORG $+2
$SG205352 DB	'C:\papa\MyGit\hyperion-zvector\hsccmd.c', 00H
$SG205353 DB	'TIMESTAMP', 00H
	ORG $+2
$SG206033 DB	'I', 00H
	ORG $+2
$SG205354 DB	'NOTIMESTAMP', 00H
$SG206048 DB	'/', 00H
	ORG $+2
$SG205355 DB	'DATESTAMP', 00H
	ORG $+2
$SG206049 DB	'/', 00H
	ORG $+2
$SG205356 DB	'NODATESTAMP', 00H
$SG206053 DB	'E', 00H
	ORG $+2
$SG205359 DB	'HHC02204%s %-14s set to %s', 0aH, 00H
$SG206058 DB	'I', 00H
	ORG $+2
$SG205360 DB	'logopt_cmd', 00H
	ORG $+1
$SG206064 DB	'del', 00H
$SG205361 DB	'C:\papa\MyGit\hyperion-zvector\hsccmd.c', 00H
$SG205387 DB	'C:\papa\MyGit\hyperion-zvector\hsccmd.c', 00H
$SG205385 DB	'HHC02299%s Invalid command usage. Type ''help %s'' for a'
	DB	'ssistance.', 0aH, 00H
	ORG $+2
$SG206068 DB	'E', 00H
	ORG $+2
$SG205386 DB	'uptime_cmd', 00H
	ORG $+1
$SG206073 DB	'E', 00H
	ORG $+2
$SG205395 DB	'HHC02206%s Uptime %u week%s, %u day%s, %02u:%02u:%02u', 0aH
	DB	00H
	ORG $+1
$SG205396 DB	'uptime_cmd', 00H
	ORG $+1
$SG206087 DB	'/', 00H
	ORG $+2
$SG205397 DB	'C:\papa\MyGit\hyperion-zvector\hsccmd.c', 00H
$SG205403 DB	'HHC02207%s Uptime %u day%s, %02u:%02u:%02u', 0aH, 00H
$SG206088 DB	'/', 00H
	ORG $+2
$SG205404 DB	'uptime_cmd', 00H
	ORG $+1
$SG206090 DB	'/', 00H
	ORG $+2
$SG205405 DB	'C:\papa\MyGit\hyperion-zvector\hsccmd.c', 00H
$SG205407 DB	'HHC02208%s Uptime %02u:%02u:%02u', 0aH, 00H
	ORG $+2
$SG206091 DB	'/', 00H
	ORG $+2
$SG205408 DB	'uptime_cmd', 00H
	ORG $+1
$SG206097 DB	'I', 00H
	ORG $+2
$SG205409 DB	'C:\papa\MyGit\hyperion-zvector\hsccmd.c', 00H
$SG205426 DB	'HHC02299%s Invalid command usage. Type ''help %s'' for a'
	DB	'ssistance.', 0aH, 00H
	ORG $+2
$SG206116 DB	'/', 00H
	ORG $+2
$SG205427 DB	'version_cmd', 00H
$SG206117 DB	'/', 00H
	ORG $+2
$SG205428 DB	'C:\papa\MyGit\hyperion-zvector\hsccmd.c', 00H
$SG205449 DB	'HHC02201%s Device number missing', 0aH, 00H
	ORG $+2
$SG206121 DB	'E', 00H
	ORG $+2
$SG205450 DB	'cctape_cmd', 00H
	ORG $+1
$SG206126 DB	'I', 00H
	ORG $+2
$SG205451 DB	'C:\papa\MyGit\hyperion-zvector\hsccmd.c', 00H
$SG205456 DB	'printer', 00H
$SG205458 DB	'HHC02209%s %1d:%04X device is not a %s', 0aH, 00H
$SG205459 DB	'cctape_cmd', 00H
	ORG $+1
$SG206133 DB	'E', 00H
	ORG $+2
$SG205460 DB	'C:\papa\MyGit\hyperion-zvector\hsccmd.c', 00H
$SG205464 DB	'HHC02239%s command ''%s'' invalid for device type %04X', 0aH
	DB	00H
	ORG $+2
$SG205465 DB	'cctape_cmd', 00H
	ORG $+1
$SG206137 DB	'E', 00H
	ORG $+2
$SG205466 DB	'C:\papa\MyGit\hyperion-zvector\hsccmd.c', 00H
$SG205468 DB	'HHC02210%s %1d:%04X %s', 0aH, 00H
$SG205469 DB	'cctape_cmd', 00H
	ORG $+1
$SG206141 DB	'E', 00H
	ORG $+2
$SG205470 DB	'C:\papa\MyGit\hyperion-zvector\hsccmd.c', 00H
$SG205491 DB	'HHC02201%s Device number missing', 0aH, 00H
	ORG $+2
$SG206200 DB	'E', 00H
	ORG $+2
$SG205492 DB	'fcb_cmd', 00H
$SG205493 DB	'C:\papa\MyGit\hyperion-zvector\hsccmd.c', 00H
$SG205498 DB	'printer', 00H
$SG205500 DB	'HHC02209%s %1d:%04X device is not a %s', 0aH, 00H
$SG205501 DB	'fcb_cmd', 00H
$SG205502 DB	'C:\papa\MyGit\hyperion-zvector\hsccmd.c', 00H
$SG205506 DB	'HHC02239%s command ''%s'' invalid for device type %04X', 0aH
	DB	00H
	ORG $+2
$SG205507 DB	'fcb_cmd', 00H
$SG205508 DB	'C:\papa\MyGit\hyperion-zvector\hsccmd.c', 00H
$SG205510 DB	'HHC02210%s %1d:%04X %s', 0aH, 00H
$SG205511 DB	'fcb_cmd', 00H
$SG205512 DB	'C:\papa\MyGit\hyperion-zvector\hsccmd.c', 00H
$SG205551 DB	'HHC02212%s %1d:%04X device started', 0aH, 00H
$SG206207 DB	'no', 00H
	ORG $+1
$SG205552 DB	'start_cmd', 00H
	ORG $+2
$SG206210 DB	'yes', 00H
$SG205553 DB	'C:\papa\MyGit\hyperion-zvector\hsccmd.c', 00H
$SG205555 DB	': busy or interrupt pending', 00H
$SG206215 DB	'E', 00H
	ORG $+2
$SG205557 DB	'HHC02213%s %1d:%04X device not started%s', 0aH, 00H
	ORG $+2
$SG206220 DB	'I', 00H
	ORG $+2
$SG205558 DB	'start_cmd', 00H
	ORG $+2
$SG206227 DB	'%d', 00H
	ORG $+1
$SG205559 DB	'C:\papa\MyGit\hyperion-zvector\hsccmd.c', 00H
$SG205561 DB	': attention request rejected', 00H
	ORG $+3
$SG205563 DB	'HHC02213%s %1d:%04X device not started%s', 0aH, 00H
	ORG $+2
$SG206228 DB	'I', 00H
	ORG $+2
$SG205564 DB	'start_cmd', 00H
	ORG $+2
$SG206232 DB	'NO', 00H
	ORG $+1
$SG205565 DB	'C:\papa\MyGit\hyperion-zvector\hsccmd.c', 00H
$SG205567 DB	': subchannel not enabled', 00H
	ORG $+3
$SG206233 DB	'I', 00H
	ORG $+2
$SG205569 DB	'HHC02213%s %1d:%04X device not started%s', 0aH, 00H
	ORG $+2
$SG206239 DB	'IS', 00H
	ORG $+1
$SG205570 DB	'start_cmd', 00H
	ORG $+2
$SG206240 DB	'is NOT', 00H
	ORG $+1
$SG206242 DB	'I', 00H
	ORG $+2
$SG205571 DB	'C:\papa\MyGit\hyperion-zvector\hsccmd.c', 00H
$SG205573 DB	': already started', 00H
	ORG $+2
$SG206264 DB	'non', 00H
$SG205575 DB	'HHC02213%s %1d:%04X device not started%s', 0aH, 00H
	ORG $+2
$SG206266 DB	'un', 00H
	ORG $+1
$SG205576 DB	'start_cmd', 00H
	ORG $+2
$SG206268 DB	'??', 00H
	ORG $+1
$SG205577 DB	'C:\papa\MyGit\hyperion-zvector\hsccmd.c', 00H
$SG205578 DB	'printer or punch', 00H
	ORG $+3
$SG206270 DB	'Mount', 00H
	ORG $+2
$SG206272 DB	'I', 00H
	ORG $+2
$SG205580 DB	'HHC02209%s %1d:%04X device is not a %s', 0aH, 00H
$SG205581 DB	'start_cmd', 00H
	ORG $+2
$SG206277 DB	'I', 00H
	ORG $+2
$SG205582 DB	'C:\papa\MyGit\hyperion-zvector\hsccmd.c', 00H
$SG205584 DB	'HHC02299%s Invalid command usage. Type ''help %s'' for a'
	DB	'ssistance.', 0aH, 00H
	ORG $+2
$SG206297 DB	' ', 09H, 00H
	ORG $+1
$SG205585 DB	'start_cmd', 00H
	ORG $+2
$SG206298 DB	'E', 00H
	ORG $+2
$SG205586 DB	'C:\papa\MyGit\hyperion-zvector\hsccmd.c', 00H
$SG205617 DB	'C:\papa\MyGit\hyperion-zvector\hsccmd.c:1284', 00H
	ORG $+3
$SG205620 DB	'C:\papa\MyGit\hyperion-zvector\hsccmd.c:1292', 00H
	ORG $+3
$SG205621 DB	'C:\papa\MyGit\hyperion-zvector\hsccmd.c:1295', 00H
	ORG $+3
$SG205623 DB	'HHC02299%s Invalid command usage. Type ''help %s'' for a'
	DB	'ssistance.', 0aH, 00H
	ORG $+2
$SG206365 DB	'on', 00H
	ORG $+1
$SG205625 DB	'C:\papa\MyGit\hyperion-zvector\hsccmd.c', 00H
$SG205657 DB	'HHC02214%s %1d:%04X device stopped', 0aH, 00H
$SG206367 DB	'off', 00H
$SG205658 DB	'stop_cmd', 00H
	ORG $+3
$SG206357 DB	'debug', 00H
	ORG $+2
$SG206381 DB	'I', 00H
	ORG $+2
$SG205659 DB	'C:\papa\MyGit\hyperion-zvector\hsccmd.c', 00H
$SG205660 DB	'printer or punch', 00H
	ORG $+3
$SG206389 DB	'ALL', 00H
$SG205662 DB	'HHC02209%s %1d:%04X device is not a %s', 0aH, 00H
$SG205663 DB	'stop_cmd', 00H
	ORG $+3
$SG206396 DB	'trace', 00H
	ORG $+2
$SG206409 DB	'E', 00H
	ORG $+2
$SG205664 DB	'C:\papa\MyGit\hyperion-zvector\hsccmd.c', 00H
$SG205668 DB	'C:\papa\MyGit\hyperion-zvector\hsccmd.c', 00H
$SG205666 DB	'HHC02299%s Invalid command usage. Type ''help %s'' for a'
	DB	'ssistance.', 0aH, 00H
	ORG $+2
$SG206429 DB	'on ALL', 00H
	ORG $+1
$SG206432 DB	'I', 00H
	ORG $+2
$SG205667 DB	'stop_cmd', 00H
	ORG $+3
$SG206453 DB	'E', 00H
	ORG $+2
$SG205692 DB	'HHC02215%s Command quiet ignored: external GUI active', 0aH
	DB	00H
	ORG $+1
$SG205693 DB	'quiet_cmd', 00H
	ORG $+2
$SG206460 DB	'LCS', 00H
$SG205694 DB	'C:\papa\MyGit\hyperion-zvector\hsccmd.c', 00H
$SG205695 DB	'DISABLED', 00H
	ORG $+3
$SG206461 DB	'PTP', 00H
$SG205696 DB	'ENABLED', 00H
$SG205698 DB	'HHC02203%s %-14s: %s', 0aH, 00H
	ORG $+2
$SG205699 DB	'quiet_cmd', 00H
	ORG $+2
$SG206464 DB	'ON', 00H
	ORG $+1
$SG205700 DB	'C:\papa\MyGit\hyperion-zvector\hsccmd.c', 00H
$SG205722 DB	'HHC01455%s Invalid number of arguments for %s', 0aH, 00H
	ORG $+1
$SG205723 DB	'iodelay_cmd', 00H
$SG206465 DB	'OFF', 00H
$SG205724 DB	'C:\papa\MyGit\hyperion-zvector\hsccmd.c', 00H
$SG205730 DB	'%d%c', 00H
	ORG $+3
$SG205733 DB	'HHC02205%s Invalid argument %s%s', 0aH, 00H
	ORG $+2
$SG206468 DB	'I', 00H
	ORG $+2
$SG205734 DB	'iodelay_cmd', 00H
$SG206514 DB	'on', 00H
	ORG $+1
$SG205735 DB	'C:\papa\MyGit\hyperion-zvector\hsccmd.c', 00H
$SG205738 DB	'HHC02204%s %-14s set to %s', 0aH, 00H
$SG206517 DB	'off', 00H
$SG205739 DB	'iodelay_cmd', 00H
$SG206518 DB	'E', 00H
	ORG $+2
$SG205740 DB	'C:\papa\MyGit\hyperion-zvector\hsccmd.c', 00H
$SG205743 DB	'HHC02203%s %-14s: %s', 0aH, 00H
	ORG $+2
$SG205744 DB	'iodelay_cmd', 00H
$SG206522 DB	'E', 00H
	ORG $+2
$SG205745 DB	'C:\papa\MyGit\hyperion-zvector\hsccmd.c', 00H
$SG205770 DB	'HHC17000%s Missing or invalid argument(s)', 0aH, 00H
	ORG $+1
$SG206529 DB	'all', 00H
$SG205771 DB	'autoinit_cmd', 00H
	ORG $+3
$SG205772 DB	'C:\papa\MyGit\hyperion-zvector\hsccmd.c', 00H
$SG205776 DB	'HHC17000%s Missing or invalid argument(s)', 0aH, 00H
	ORG $+1
$SG206532 DB	'E', 00H
	ORG $+2
$SG205777 DB	'autoinit_cmd', 00H
	ORG $+3
$SG205778 DB	'C:\papa\MyGit\hyperion-zvector\hsccmd.c', 00H
$SG205784 DB	'HHC02203%s %-14s: %s', 0aH, 00H
	ORG $+2
$SG205785 DB	'autoinit_cmd', 00H
	ORG $+3
$SG205786 DB	'C:\papa\MyGit\hyperion-zvector\hsccmd.c', 00H
$SG205791 DB	'HHC02204%s %-14s set to %s', 0aH, 00H
$SG206553 DB	'ccw', 00H
$SG205792 DB	'autoinit_cmd', 00H
	ORG $+3
$SG205793 DB	'C:\papa\MyGit\hyperion-zvector\hsccmd.c', 00H
$SG205814 DB	'malloc(%d)', 00H
	ORG $+1
$SG206556 DB	'E', 00H
	ORG $+2
$SG205816 DB	'HHC01430%s Error in function %s: %s', 0aH, 00H
	ORG $+3
$SG205817 DB	'check_define_default_automount_dir', 00H
	ORG $+1
$SG206560 DB	'E', 00H
	ORG $+2
$SG205818 DB	'C:\papa\MyGit\hyperion-zvector\hsccmd.c', 00H
$SG205820 DB	'check_define_default_automount_dir', 00H
	ORG $+1
$SG206570 DB	'I', 00H
	ORG $+2
$SG205821 DB	'C:\papa\MyGit\hyperion-zvector\hsccmd.c', 00H
$SG205822 DB	'%s(%d) : warning HHC90999W : *** Assertion Failed! *** f'
	DB	'unction: %s', 0aH, 00H
	ORG $+3
$SG205824 DB	'check_define_default_automount_dir', 00H
	ORG $+1
$SG206577 DB	'PTP', 00H
$SG205825 DB	'C:\papa\MyGit\hyperion-zvector\hsccmd.c', 00H
$SG205832 DB	'HHC01447%s Default allowed AUTOMOUNT directory: %s', 0aH
	DB	00H
	ORG $+4
$SG205826 DB	'%s(%d) : warning HHC90999W : *** Assertion Failed! *** f'
	DB	'unction: %s', 0aH, 00H
	ORG $+3
$SG205833 DB	'check_define_default_automount_dir', 00H
	ORG $+1
$SG206578 DB	'E', 00H
	ORG $+2
$SG205834 DB	'C:\papa\MyGit\hyperion-zvector\hsccmd.c', 00H
$SG205965 DB	'C:\papa\MyGit\hyperion-zvector\hsccmd.c', 00H
$SG205963 DB	'HHC02202%s Missing argument(s). Type ''help %s'' for ass'
	DB	'istance.', 0aH, 00H
$SG205964 DB	'automount_cmd', 00H
	ORG $+2
$SG205967 DB	'list', 00H
	ORG $+3
$SG205971 DB	'automount_cmd', 00H
	ORG $+2
$SG205972 DB	'C:\papa\MyGit\hyperion-zvector\hsccmd.c', 00H
$SG205970 DB	'HHC02202%s Missing argument(s). Type ''help %s'' for ass'
	DB	'istance.', 0aH, 00H
$SG205975 DB	'HHC02216%s Empty list', 0aH, 00H
	ORG $+1
$SG205976 DB	'automount_cmd', 00H
	ORG $+2
$SG205977 DB	'C:\papa\MyGit\hyperion-zvector\hsccmd.c', 00H
$SG205979 DB	'HHC02217%s %c%s', 0aH, 00H
	ORG $+3
$SG206509 DB	'debug', 00H
	ORG $+2
$SG206541 DB	'packet', 00H
	ORG $+1
$SG206582 DB	'PTP', 00H
$SG205980 DB	'automount_cmd', 00H
	ORG $+2
$SG205981 DB	'C:\papa\MyGit\hyperion-zvector\hsccmd.c', 00H
$SG205989 DB	'HHC02202%s Missing argument(s). Type ''help %s'' for ass'
	DB	'istance.', 0aH, 00H
$SG205990 DB	'automount_cmd', 00H
	ORG $+2
$SG205991 DB	'C:\papa\MyGit\hyperion-zvector\hsccmd.c', 00H
$SG205996 DB	'C:\papa\MyGit\hyperion-zvector\hsccmd.c', 00H
$SG205994 DB	'HHC02202%s Missing argument(s). Type ''help %s'' for ass'
	DB	'istance.', 0aH, 00H
$SG205995 DB	'automount_cmd', 00H
	ORG $+2
$SG205999 DB	'HHC02218%s Logic error', 0aH, 00H
$SG206000 DB	'automount_cmd', 00H
	ORG $+2
$SG206001 DB	'C:\papa\MyGit\hyperion-zvector\hsccmd.c', 00H
$SG206003 DB	'malloc()', 00H
	ORG $+3
$SG206547 DB	'expand', 00H
	ORG $+1
$SG206583 DB	'ON', 00H
	ORG $+1
$SG206005 DB	'HHC02219%s Error in function %s: %s', 0aH, 00H
	ORG $+3
$SG206006 DB	'automount_cmd', 00H
	ORG $+2
$SG206007 DB	'C:\papa\MyGit\hyperion-zvector\hsccmd.c', 00H
$SG206012 DB	'HHC02205%s Invalid argument %s%s', 0aH, 00H
	ORG $+2
$SG206550 DB	'updown', 00H
	ORG $+1
$SG206584 DB	'OFF', 00H
$SG206013 DB	'automount_cmd', 00H
	ORG $+2
$SG206014 DB	'C:\papa\MyGit\hyperion-zvector\hsccmd.c', 00H
$SG206016 DB	': ''conflicts with previous specification''', 00H
	ORG $+2
$SG206567 DB	'on ALL', 00H
	ORG $+1
$SG206587 DB	'I', 00H
	ORG $+2
$SG206018 DB	'HHC02205%s Invalid argument %s%s', 0aH, 00H
	ORG $+2
$SG206591 DB	'E', 00H
	ORG $+2
$SG206019 DB	'automount_cmd', 00H
	ORG $+2
$SG206020 DB	'C:\papa\MyGit\hyperion-zvector\hsccmd.c', 00H
$SG206022 DB	': ''duplicates previous specification''', 00H
	ORG $+2
$SG206024 DB	'HHC02205%s Invalid argument %s%s', 0aH, 00H
	ORG $+2
$SG206652 DB	'on', 00H
	ORG $+1
$SG206025 DB	'automount_cmd', 00H
	ORG $+2
$SG206026 DB	'C:\papa\MyGit\hyperion-zvector\hsccmd.c', 00H
$SG206028 DB	'disallowed', 00H
	ORG $+1
$SG206655 DB	'off', 00H
$SG206029 DB	'allowed', 00H
$SG206030 DB	'default ', 00H
	ORG $+3
$SG206647 DB	'debug', 00H
	ORG $+2
$SG206656 DB	'E', 00H
	ORG $+2
$SG206032 DB	'%s%s automount directory', 00H
	ORG $+3
$SG206660 DB	'E', 00H
	ORG $+2
$SG206034 DB	'HHC02203%s %-14s: %s', 0aH, 00H
	ORG $+2
$SG206035 DB	'automount_cmd', 00H
	ORG $+2
$SG206036 DB	'C:\papa\MyGit\hyperion-zvector\hsccmd.c', 00H
$SG206039 DB	'automount_cmd', 00H
	ORG $+2
$SG206040 DB	'C:\papa\MyGit\hyperion-zvector\hsccmd.c', 00H
$SG206044 DB	'C:\papa\MyGit\hyperion-zvector\hsccmd.c', 00H
$SG206041 DB	'%s(%d) : warning HHC90999W : *** Assertion Failed! *** f'
	DB	'unction: %s', 0aH, 00H
	ORG $+3
$SG206043 DB	'automount_cmd', 00H
	ORG $+2
$SG206054 DB	'HHC02219%s Error in function %s: %s', 0aH, 00H
	ORG $+3
$SG206045 DB	'%s(%d) : warning HHC90999W : *** Assertion Failed! *** f'
	DB	'unction: %s', 0aH, 00H
	ORG $+3
$SG206052 DB	'malloc(%d)', 00H
	ORG $+1
$SG206667 DB	'all', 00H
$SG206055 DB	'automount_cmd', 00H
	ORG $+2
$SG206056 DB	'C:\papa\MyGit\hyperion-zvector\hsccmd.c', 00H
$SG206057 DB	'default automount directory', 00H
$SG206670 DB	'E', 00H
	ORG $+2
$SG206059 DB	'HHC02203%s %-14s: %s', 0aH, 00H
	ORG $+2
$SG206060 DB	'automount_cmd', 00H
	ORG $+2
$SG206061 DB	'C:\papa\MyGit\hyperion-zvector\hsccmd.c', 00H
$SG206069 DB	'HHC02202%s Missing argument(s). Type ''help %s'' for ass'
	DB	'istance.', 0aH, 00H
$SG206070 DB	'automount_cmd', 00H
	ORG $+2
$SG206071 DB	'C:\papa\MyGit\hyperion-zvector\hsccmd.c', 00H
$SG206076 DB	'C:\papa\MyGit\hyperion-zvector\hsccmd.c', 00H
$SG206074 DB	'HHC02202%s Missing argument(s). Type ''help %s'' for ass'
	DB	'istance.', 0aH, 00H
$SG206075 DB	'automount_cmd', 00H
	ORG $+2
$SG206096 DB	', list now empty', 00H
	ORG $+3
$SG206681 DB	'ccw', 00H
$SG206098 DB	'HHC02220%s Entry deleted%s', 0aH, 00H
$SG206713 DB	'E', 00H
	ORG $+2
$SG206099 DB	'automount_cmd', 00H
	ORG $+2
$SG206100 DB	'C:\papa\MyGit\hyperion-zvector\hsccmd.c', 00H
$SG206107 DB	'automount_cmd', 00H
	ORG $+2
$SG206108 DB	'C:\papa\MyGit\hyperion-zvector\hsccmd.c', 00H
$SG206112 DB	'C:\papa\MyGit\hyperion-zvector\hsccmd.c', 00H
$SG206109 DB	'%s(%d) : warning HHC90999W : *** Assertion Failed! *** f'
	DB	'unction: %s', 0aH, 00H
	ORG $+3
$SG206111 DB	'automount_cmd', 00H
	ORG $+2
$SG206122 DB	'HHC02219%s Error in function %s: %s', 0aH, 00H
	ORG $+3
$SG206113 DB	'%s(%d) : warning HHC90999W : *** Assertion Failed! *** f'
	DB	'unction: %s', 0aH, 00H
	ORG $+3
$SG206120 DB	'malloc(%d)', 00H
	ORG $+1
$SG206717 DB	'E', 00H
	ORG $+2
$SG206123 DB	'automount_cmd', 00H
	ORG $+2
$SG206124 DB	'C:\papa\MyGit\hyperion-zvector\hsccmd.c', 00H
$SG206125 DB	'default automount directory', 00H
$SG206726 DB	'E', 00H
	ORG $+2
$SG206127 DB	'HHC02203%s %-14s: %s', 0aH, 00H
	ORG $+2
$SG206128 DB	'automount_cmd', 00H
	ORG $+2
$SG206129 DB	'C:\papa\MyGit\hyperion-zvector\hsccmd.c', 00H
$SG206134 DB	'HHC02216%s Empty list', 0aH, 00H
	ORG $+1
$SG206135 DB	'automount_cmd', 00H
	ORG $+2
$SG206136 DB	'C:\papa\MyGit\hyperion-zvector\hsccmd.c', 00H
$SG206138 DB	'HHC02221%s Entry not found', 0aH, 00H
$SG206733 DB	'I', 00H
	ORG $+2
$SG206139 DB	'automount_cmd', 00H
	ORG $+2
$SG206140 DB	'C:\papa\MyGit\hyperion-zvector\hsccmd.c', 00H
$SG206142 DB	'HHC02222%s Unsupported function', 0aH, 00H
	ORG $+3
$SG206690 DB	'expand', 00H
	ORG $+1
$SG206741 DB	'E', 00H
	ORG $+2
$SG206143 DB	'automount_cmd', 00H
	ORG $+2
$SG206144 DB	'C:\papa\MyGit\hyperion-zvector\hsccmd.c', 00H
$SG206157 DB	'try_scsi_refresh', 00H
	ORG $+3
$SG206696 DB	'packet', 00H
	ORG $+1
$SG206746 DB	'ON', 00H
	ORG $+1
$SG206158 DB	'C:\papa\MyGit\hyperion-zvector\hsccmd.c', 00H
$SG206161 DB	'try_scsi_refresh', 00H
	ORG $+7
$SG206159 DB	'%s(%d) : warning HHC90999W : *** Assertion Failed! *** f'
	DB	'unction: %s', 0aH, 00H
	ORG $+3
$SG206162 DB	'C:\papa\MyGit\hyperion-zvector\hsccmd.c', 00H
$SG206163 DB	'%s(%d) : warning HHC90999W : *** Assertion Failed! *** f'
	DB	'unction: %s', 0aH, 00H
	ORG $+3
$SG206202 DB	'scsimount_cmd', 00H
	ORG $+2
$SG206203 DB	'C:\papa\MyGit\hyperion-zvector\hsccmd.c', 00H
$SG206201 DB	'HHC02299%s Invalid command usage. Type ''help %s'' for a'
	DB	'ssistance.', 0aH, 00H
	ORG $+2
$SG206213 DB	'%d%c', 00H
	ORG $+3
$SG206699 DB	'queues', 00H
	ORG $+1
$SG206747 DB	'OFF', 00H
$SG206216 DB	'HHC02205%s Invalid argument %s%s', 0aH, 00H
	ORG $+2
$SG206708 DB	'updown', 00H
	ORG $+1
$SG206750 DB	'I', 00H
	ORG $+2
$SG206217 DB	'scsimount_cmd', 00H
	ORG $+2
$SG206218 DB	'C:\papa\MyGit\hyperion-zvector\hsccmd.c', 00H
$SG206221 DB	'HHC02204%s %-14s set to %s', 0aH, 00H
$SG206760 DB	'all', 00H
$SG206222 DB	'scsimount_cmd', 00H
	ORG $+2
$SG206223 DB	'C:\papa\MyGit\hyperion-zvector\hsccmd.c', 00H
$SG206229 DB	'HHC02203%s %-14s: %s', 0aH, 00H
	ORG $+2
$SG206230 DB	'scsimount_cmd', 00H
	ORG $+2
$SG206231 DB	'C:\papa\MyGit\hyperion-zvector\hsccmd.c', 00H
$SG206234 DB	'HHC02203%s %-14s: %s', 0aH, 00H
	ORG $+2
$SG206235 DB	'scsimount_cmd', 00H
	ORG $+2
$SG206236 DB	'C:\papa\MyGit\hyperion-zvector\hsccmd.c', 00H
$SG206241 DB	'thread %s active for drive %u:%4.4X = %s', 00H
	ORG $+3
$SG206702 DB	'sbale', 00H
	ORG $+2
$SG206730 DB	'ON ALL', 00H
	ORG $+1
$SG206767 DB	'E', 00H
	ORG $+2
$SG206243 DB	'HHC02275%s SCSI auto-mount: %s', 0aH, 00H
$SG206244 DB	'scsimount_cmd', 00H
	ORG $+2
$SG206245 DB	'C:\papa\MyGit\hyperion-zvector\hsccmd.c', 00H
$SG206260 DB	'ascii-standard', 00H
	ORG $+1
$SG206262 DB	'standard', 00H
	ORG $+3
$SG206771 DB	'E', 00H
	ORG $+2
$SG206271 DB	'Dismount', 00H
	ORG $+7
$SG206273 DB	'HHC02223%s %s of %s-labeled volume %s pending for drive '
	DB	'%u:%4.4X %s', 0aH, 00H
	ORG $+3
$SG206274 DB	'scsimount_cmd', 00H
	ORG $+2
$SG206275 DB	'C:\papa\MyGit\hyperion-zvector\hsccmd.c', 00H
$SG206276 DB	'no requests pending for drive %u:%4.4X = %s.', 00H
	ORG $+3
$SG206278 DB	'HHC02275%s SCSI auto-mount: %s', 0aH, 00H
$SG206279 DB	'scsimount_cmd', 00H
	ORG $+2
$SG206280 DB	'C:\papa\MyGit\hyperion-zvector\hsccmd.c', 00H
$SG206301 DB	'C:\papa\MyGit\hyperion-zvector\hsccmd.c', 00H
$SG206299 DB	'HHC02299%s Invalid command usage. Type ''help %s'' for a'
	DB	'ssistance.', 0aH, 00H
	ORG $+2
$SG206776 DB	'E', 00H
	ORG $+2
$SG206300 DB	'cckd_cmd', 00H
	ORG $+3
$SG206787 DB	'I', 00H
	ORG $+2
?yes_startup@?M@??ctc_cmd@@9@9 DQ FLAT:$SG206368	; `ctc_cmd'::`12'::yes_startup
?yes_on@?M@??ctc_cmd@@9@9 DQ FLAT:$SG206369		; `ctc_cmd'::`12'::yes_on
?no_off@?M@??ctc_cmd@@9@9 DQ FLAT:$SG206370		; `ctc_cmd'::`12'::no_off
$SG206362 DB	'startup', 00H
$SG206382 DB	'HHC00903%s %1d:%04X: CTC DEBUG is %s', 0aH, 00H
	ORG $+2
$SG206383 DB	'ctc_cmd', 00H
$SG206384 DB	'C:\papa\MyGit\hyperion-zvector\hsccmd.c', 00H
$SG206403 DB	'discard', 00H
$SG206411 DB	'ctc_cmd', 00H
$SG206410 DB	'HHC02299%s Invalid command usage. Type ''help %s'' for a'
	DB	'ssistance.', 0aH, 00H
	ORG $+2
$SG206792 DB	'I', 00H
	ORG $+2
$SG206412 DB	'C:\papa\MyGit\hyperion-zvector\hsccmd.c', 00H
$SG206428 DB	'startup ALL', 00H
$SG206797 DB	'I', 00H
	ORG $+2
$SG206430 DB	'off ALL', 00H
$SG206431 DB	'CTC DEBUG', 00H
	ORG $+2
$SG206802 DB	'I', 00H
	ORG $+2
$SG206433 DB	'HHC02204%s %-14s set to %s', 0aH, 00H
$SG206808 DB	'E', 00H
	ORG $+2
$SG206434 DB	'ctc_cmd', 00H
$SG206435 DB	'C:\papa\MyGit\hyperion-zvector\hsccmd.c', 00H
$SG206452 DB	'supported CTCI, LSC, PTP or CTCE', 00H
	ORG $+3
$SG206812 DB	'E', 00H
	ORG $+2
$SG206454 DB	'HHC02209%s %1d:%04X device is not a %s', 0aH, 00H
$SG206455 DB	'ctc_cmd', 00H
$SG206456 DB	'C:\papa\MyGit\hyperion-zvector\hsccmd.c', 00H
$SG206458 DB	' group (%d devices)', 00H
$SG206459 DB	'CTCE', 00H
	ORG $+3
$SG206462 DB	'CTCI', 00H
	ORG $+3
$SG206842 DB	'E', 00H
	ORG $+2
$SG206463 DB	'STARTUP', 00H
$SG206466 DB	'%s for %s device %1d:%04X%s', 00H
$SG206850 DB	'E', 00H
	ORG $+2
$SG206467 DB	'CTC DEBUG', 00H
	ORG $+2
$SG206857 DB	'OSA', 00H
$SG206469 DB	'HHC02204%s %-14s set to %s', 0aH, 00H
$SG206862 DB	'E', 00H
	ORG $+2
$SG206470 DB	'ctc_cmd', 00H
$SG206471 DB	'C:\papa\MyGit\hyperion-zvector\hsccmd.c', 00H
$SG206520 DB	'ptp_cmd', 00H
$SG206519 DB	'HHC02299%s Invalid command usage. Type ''help %s'' for a'
	DB	'ssistance.', 0aH, 00H
	ORG $+2
$SG206869 DB	'E', 00H
	ORG $+2
$SG206521 DB	'C:\papa\MyGit\hyperion-zvector\hsccmd.c', 00H
$SG206523 DB	'HHC02299%s Invalid command usage. Type ''help %s'' for a'
	DB	'ssistance.', 0aH, 00H
	ORG $+2
$SG206876 DB	'E', 00H
	ORG $+2
$SG206524 DB	'ptp_cmd', 00H
$SG206525 DB	'C:\papa\MyGit\hyperion-zvector\hsccmd.c', 00H
$SG206534 DB	'ptp_cmd', 00H
$SG206533 DB	'HHC02299%s Invalid command usage. Type ''help %s'' for a'
	DB	'ssistance.', 0aH, 00H
	ORG $+2
$SG206884 DB	'I', 00H
	ORG $+2
$SG206535 DB	'C:\papa\MyGit\hyperion-zvector\hsccmd.c', 00H
$SG206544 DB	'data', 00H
	ORG $+3
$SG206558 DB	'ptp_cmd', 00H
$SG206557 DB	'HHC02299%s Invalid command usage. Type ''help %s'' for a'
	DB	'ssistance.', 0aH, 00H
	ORG $+2
$SG206890 DB	'E', 00H
	ORG $+2
$SG206559 DB	'C:\papa\MyGit\hyperion-zvector\hsccmd.c', 00H
$SG206561 DB	'HHC02299%s Invalid command usage. Type ''help %s'' for a'
	DB	'ssistance.', 0aH, 00H
	ORG $+2
$SG206897 DB	'E', 00H
	ORG $+2
$SG206562 DB	'ptp_cmd', 00H
$SG206563 DB	'C:\papa\MyGit\hyperion-zvector\hsccmd.c', 00H
$SG206568 DB	'off ALL', 00H
$SG206569 DB	'PTP DEBUG', 00H
	ORG $+2
$SG206905 DB	'I', 00H
	ORG $+2
$SG206571 DB	'HHC02204%s %-14s set to %s', 0aH, 00H
$SG206911 DB	'E', 00H
	ORG $+2
$SG206572 DB	'ptp_cmd', 00H
$SG206573 DB	'C:\papa\MyGit\hyperion-zvector\hsccmd.c', 00H
$SG206579 DB	'HHC02209%s %1d:%04X device is not a %s', 0aH, 00H
$SG206580 DB	'ptp_cmd', 00H
$SG206581 DB	'C:\papa\MyGit\hyperion-zvector\hsccmd.c', 00H
$SG206585 DB	'%s for %s device %1d:%04X pair', 00H
	ORG $+1
$SG206586 DB	'PTP DEBUG', 00H
	ORG $+2
$SG206915 DB	'E', 00H
	ORG $+2
$SG206588 DB	'HHC02204%s %-14s set to %s', 0aH, 00H
$SG206945 DB	'I', 00H
	ORG $+2
$SG206589 DB	'ptp_cmd', 00H
$SG206590 DB	'C:\papa\MyGit\hyperion-zvector\hsccmd.c', 00H
$SG206593 DB	'ptp_cmd', 00H
$SG206592 DB	'HHC02299%s Invalid command usage. Type ''help %s'' for a'
	DB	'ssistance.', 0aH, 00H
	ORG $+2
$SG206954 DB	'I', 00H
	ORG $+2
$SG206594 DB	'C:\papa\MyGit\hyperion-zvector\hsccmd.c', 00H
$SG206657 DB	'HHC02299%s Invalid command usage. Type ''help %s'' for a'
	DB	'ssistance.', 0aH, 00H
	ORG $+2
$SG206960 DB	'I', 00H
	ORG $+2
$SG206658 DB	'qeth_cmd', 00H
	ORG $+3
$SG206847 DB	'STATS', 00H
	ORG $+2
$SG206991 DB	',', 00H
	ORG $+2
$SG206659 DB	'C:\papa\MyGit\hyperion-zvector\hsccmd.c', 00H
$SG206663 DB	'C:\papa\MyGit\hyperion-zvector\hsccmd.c', 00H
$SG206661 DB	'HHC02299%s Invalid command usage. Type ''help %s'' for a'
	DB	'ssistance.', 0aH, 00H
	ORG $+2
$SG206996 DB	'E', 00H
	ORG $+2
$SG206662 DB	'qeth_cmd', 00H
	ORG $+7
$SG206673 DB	'C:\papa\MyGit\hyperion-zvector\hsccmd.c', 00H
$SG206671 DB	'HHC02299%s Invalid command usage. Type ''help %s'' for a'
	DB	'ssistance.', 0aH, 00H
	ORG $+2
$SG207002 DB	'CP', 00H
	ORG $+1
$SG206672 DB	'qeth_cmd', 00H
	ORG $+3
$SG206684 DB	'data', 00H
	ORG $+3
$SG206874 DB	'DEBUG', 00H
	ORG $+2
$SG207003 DB	'CP', 00H
	ORG $+1
$SG206687 DB	'dropped', 00H
$SG206693 DB	'interupts', 00H
	ORG $+2
$SG206705 DB	'siga', 00H
	ORG $+7
$SG206716 DB	'C:\papa\MyGit\hyperion-zvector\hsccmd.c', 00H
$SG206714 DB	'HHC02299%s Invalid command usage. Type ''help %s'' for a'
	DB	'ssistance.', 0aH, 00H
	ORG $+2
$SG207006 DB	'CF', 00H
	ORG $+1
$SG206715 DB	'qeth_cmd', 00H
	ORG $+7
$SG206720 DB	'C:\papa\MyGit\hyperion-zvector\hsccmd.c', 00H
$SG206718 DB	'HHC02299%s Invalid command usage. Type ''help %s'' for a'
	DB	'ssistance.', 0aH, 00H
	ORG $+2
$SG207007 DB	'CF', 00H
	ORG $+1
$SG206719 DB	'qeth_cmd', 00H
	ORG $+3
$SG206725 DB	'QETH', 00H
	ORG $+3
$SG207010 DB	'IL', 00H
	ORG $+1
$SG206727 DB	'HHC02347%s No %s devices found', 0aH, 00H
$SG206728 DB	'qeth_cmd', 00H
	ORG $+3
$SG207011 DB	'IL', 00H
	ORG $+1
$SG206729 DB	'C:\papa\MyGit\hyperion-zvector\hsccmd.c', 00H
$SG206731 DB	'OFF ALL', 00H
$SG206732 DB	'QETH DEBUG', 00H
	ORG $+1
$SG207014 DB	'AP', 00H
	ORG $+1
$SG206734 DB	'HHC02204%s %-14s set to %s', 0aH, 00H
$SG207015 DB	'AP', 00H
	ORG $+1
$SG206735 DB	'qeth_cmd', 00H
	ORG $+3
$SG207018 DB	'IP', 00H
	ORG $+1
$SG206736 DB	'C:\papa\MyGit\hyperion-zvector\hsccmd.c', 00H
$SG206740 DB	'QETH', 00H
	ORG $+3
$SG206742 DB	'HHC02209%s %1d:%04X device is not a %s', 0aH, 00H
$SG206743 DB	'qeth_cmd', 00H
	ORG $+3
$SG207019 DB	'IP', 00H
	ORG $+1
$SG206744 DB	'C:\papa\MyGit\hyperion-zvector\hsccmd.c', 00H
$SG206745 DB	'QETH', 00H
	ORG $+3
$SG206748 DB	'%s for %s device %1d:%04X group', 00H
$SG206749 DB	'QETH DEBUG', 00H
	ORG $+1
$SG207020 DB	'E', 00H
	ORG $+2
$SG206751 DB	'HHC02204%s %-14s set to %s', 0aH, 00H
$SG207024 DB	'I', 00H
	ORG $+2
$SG206752 DB	'qeth_cmd', 00H
	ORG $+3
$SG207028 DB	',', 00H
	ORG $+2
$SG206753 DB	'C:\papa\MyGit\hyperion-zvector\hsccmd.c', 00H
$SG206755 DB	'addr', 00H
	ORG $+3
$SG206766 DB	'QETH', 00H
	ORG $+3
$SG206768 DB	'HHC02209%s %1d:%04X device is not a %s', 0aH, 00H
$SG206769 DB	'qeth_cmd', 00H
	ORG $+3
$SG207029 DB	'E', 00H
	ORG $+2
$SG206770 DB	'C:\papa\MyGit\hyperion-zvector\hsccmd.c', 00H
$SG206772 DB	'HHC02299%s Invalid command usage. Type ''help %s'' for a'
	DB	'ssistance.', 0aH, 00H
	ORG $+2
$SG207061 DB	'E', 00H
	ORG $+2
$SG206773 DB	'qeth_cmd', 00H
	ORG $+3
$SG207074 DB	'E', 00H
	ORG $+2
$SG206774 DB	'C:\papa\MyGit\hyperion-zvector\hsccmd.c', 00H
$SG206777 DB	'HHC02299%s Invalid command usage. Type ''help %s'' for a'
	DB	'ssistance.', 0aH, 00H
	ORG $+2
$SG207079 DB	'E', 00H
	ORG $+2
$SG206778 DB	'qeth_cmd', 00H
	ORG $+3
$SG207087 DB	'E', 00H
	ORG $+2
$SG206779 DB	'C:\papa\MyGit\hyperion-zvector\hsccmd.c', 00H
$SG206786 DB	'%2.2X:%2.2X:%2.2X:%2.2X:%2.2X:%2.2X', 00H
$SG206807 DB	'QETH', 00H
	ORG $+7
$SG206788 DB	'HHC02344%s %s device %1d:%04X group has registered MAC a'
	DB	'ddress %s', 0aH, 00H
	ORG $+1
$SG207118 DB	'E', 00H
	ORG $+2
$SG206789 DB	'qeth_cmd', 00H
	ORG $+3
$SG207123 DB	'I', 00H
	ORG $+2
$SG206790 DB	'C:\papa\MyGit\hyperion-zvector\hsccmd.c', 00H
$SG206793 DB	'HHC02345%s %s device %1d:%04X group has registered IP ad'
	DB	'dress %s', 0aH, 00H
	ORG $+2
$SG207127 DB	'E', 00H
	ORG $+2
$SG206794 DB	'qeth_cmd', 00H
	ORG $+3
$SG207158 DB	'E', 00H
	ORG $+2
$SG206795 DB	'C:\papa\MyGit\hyperion-zvector\hsccmd.c', 00H
$SG206798 DB	'HHC02345%s %s device %1d:%04X group has registered IP ad'
	DB	'dress %s', 0aH, 00H
	ORG $+2
$SG207163 DB	'I', 00H
	ORG $+2
$SG206799 DB	'qeth_cmd', 00H
	ORG $+3
$SG207167 DB	'E', 00H
	ORG $+2
$SG206800 DB	'C:\papa\MyGit\hyperion-zvector\hsccmd.c', 00H
$SG206803 DB	'HHC02346%s %s device %1d:%04X group has no registered MA'
	DB	'C or IP addresses', 0aH, 00H
	ORG $+1
$SG207232 DB	'E', 00H
	ORG $+2
$SG206804 DB	'qeth_cmd', 00H
	ORG $+3
$SG207224 DB	'qstor', 00H
	ORG $+2
$SG207249 DB	'E', 00H
	ORG $+2
$SG206805 DB	'C:\papa\MyGit\hyperion-zvector\hsccmd.c', 00H
$SG206809 DB	'HHC02347%s No %s devices found', 0aH, 00H
$SG206810 DB	'qeth_cmd', 00H
	ORG $+3
$SG207254 DB	'E', 00H
	ORG $+2
$SG206811 DB	'C:\papa\MyGit\hyperion-zvector\hsccmd.c', 00H
$SG206815 DB	'C:\papa\MyGit\hyperion-zvector\hsccmd.c', 00H
$SG206813 DB	'HHC02299%s Invalid command usage. Type ''help %s'' for a'
	DB	'ssistance.', 0aH, 00H
	ORG $+2
$SG207261 DB	'E', 00H
	ORG $+2
$SG206814 DB	'qeth_cmd', 00H
	ORG $+3
$SG207271 DB	'E', 00H
	ORG $+2
$SG206840 DB	'. Type ''help %s'' for assistance', 00H
$SG206845 DB	'C:\papa\MyGit\hyperion-zvector\hsccmd.c', 00H
$SG206843 DB	'HHC02202%s Missing argument(s). Type ''help %s'' for ass'
	DB	'istance.', 0aH, 00H
$SG206844 DB	'tt32_cmd', 00H
	ORG $+3
$SG207275 DB	'E', 00H
	ORG $+2
$SG206851 DB	'HHC02205%s Invalid argument %s%s', 0aH, 00H
	ORG $+2
$SG207319 DB	'E', 00H
	ORG $+2
$SG206852 DB	'tt32_cmd', 00H
	ORG $+3
$SG207312 DB	'qstor', 00H
	ORG $+2
$SG207338 DB	'E', 00H
	ORG $+2
$SG206853 DB	'C:\papa\MyGit\hyperion-zvector\hsccmd.c', 00H
$SG206859 DB	'CTCA', 00H
	ORG $+3
$SG206860 DB	'8232', 00H
	ORG $+3
$SG206861 DB	'supported CTCI, LCS or OSA device', 00H
	ORG $+2
$SG207345 DB	'E', 00H
	ORG $+2
$SG206863 DB	'HHC02209%s %1d:%04X device is not a %s', 0aH, 00H
$SG206864 DB	'tt32_cmd', 00H
	ORG $+3
$SG207358 DB	'E', 00H
	ORG $+2
$SG206865 DB	'C:\papa\MyGit\hyperion-zvector\hsccmd.c', 00H
$SG206867 DB	'function itself is NULL', 00H
$SG206868 DB	'debug_tt32_stats()', 00H
	ORG $+1
$SG207362 DB	'E', 00H
	ORG $+2
$SG206870 DB	'HHC02219%s Error in function %s: %s', 0aH, 00H
	ORG $+3
$SG206871 DB	'tt32_cmd', 00H
	ORG $+3
$SG207371 DB	'W', 00H
	ORG $+2
$SG206872 DB	'C:\papa\MyGit\hyperion-zvector\hsccmd.c', 00H
$SG206877 DB	'HHC02205%s Invalid argument %s%s', 0aH, 00H
	ORG $+2
$SG207478 DB	'I', 00H
	ORG $+2
$SG206878 DB	'tt32_cmd', 00H
	ORG $+3
$SG207483 DB	'E', 00H
	ORG $+2
$SG206879 DB	'C:\papa\MyGit\hyperion-zvector\hsccmd.c', 00H
$SG206881 DB	'enabled', 00H
$SG206882 DB	'disabled', 00H
	ORG $+3
$SG207487 DB	' ', 09H, 0aH, 0bH, 0cH, 0dH, 00H
	ORG $+1
$SG207489 DB	'I', 00H
	ORG $+2
$SG206883 DB	'TT32 DEBUG', 00H
	ORG $+1
$SG207515 DB	'E', 00H
	ORG $+2
$SG206885 DB	'HHC02204%s %-14s set to %s', 0aH, 00H
$SG207520 DB	'%d', 00H
	ORG $+1
$SG206886 DB	'tt32_cmd', 00H
	ORG $+3
$SG207521 DB	'I', 00H
	ORG $+2
$SG206887 DB	'C:\papa\MyGit\hyperion-zvector\hsccmd.c', 00H
$SG206888 DB	'function itself is NULL', 00H
$SG206889 DB	'debug_tt32_tracing()', 00H
	ORG $+3
$SG206891 DB	'HHC02219%s Error in function %s: %s', 0aH, 00H
	ORG $+3
$SG206892 DB	'tt32_cmd', 00H
	ORG $+3
$SG207528 DB	'%hu%c', 00H
	ORG $+2
$SG207529 DB	'E', 00H
	ORG $+2
$SG206893 DB	'C:\papa\MyGit\hyperion-zvector\hsccmd.c', 00H
$SG206895 DB	'NODEBUG', 00H
$SG206898 DB	'HHC02205%s Invalid argument %s%s', 0aH, 00H
	ORG $+2
$SG207535 DB	'E', 00H
	ORG $+2
$SG206899 DB	'tt32_cmd', 00H
	ORG $+3
$SG207541 DB	'%d', 00H
	ORG $+1
$SG206900 DB	'C:\papa\MyGit\hyperion-zvector\hsccmd.c', 00H
$SG206902 DB	'enabled', 00H
$SG206903 DB	'disabled', 00H
	ORG $+3
$SG207542 DB	'I', 00H
	ORG $+2
$SG206904 DB	'TT32 DEBUG', 00H
	ORG $+1
$SG207547 DB	'E', 00H
	ORG $+2
$SG206906 DB	'HHC02204%s %-14s set to %s', 0aH, 00H
$SG207552 DB	'E', 00H
	ORG $+2
$SG206907 DB	'tt32_cmd', 00H
	ORG $+3
$SG207578 DB	'E', 00H
	ORG $+2
$SG206908 DB	'C:\papa\MyGit\hyperion-zvector\hsccmd.c', 00H
$SG206909 DB	'function itself is NULL', 00H
$SG206910 DB	'debug_tt32_tracing()', 00H
	ORG $+3
$SG206912 DB	'HHC02219%s Error in function %s: %s', 0aH, 00H
	ORG $+3
$SG206913 DB	'tt32_cmd', 00H
	ORG $+3
$SG207583 DB	'%d', 00H
	ORG $+1
$SG206914 DB	'C:\papa\MyGit\hyperion-zvector\hsccmd.c', 00H
$SG206916 DB	'HHC02205%s Invalid argument %s%s', 0aH, 00H
	ORG $+2
$SG207584 DB	'I', 00H
	ORG $+2
$SG206917 DB	'tt32_cmd', 00H
	ORG $+3
$SG207592 DB	'%hu%c', 00H
	ORG $+2
$SG207593 DB	'E', 00H
	ORG $+2
$SG206918 DB	'C:\papa\MyGit\hyperion-zvector\hsccmd.c', 00H
$SG206941 DB	'NONE', 00H
	ORG $+3
$SG206944 DB	'NONE', 00H
	ORG $+3
$SG206946 DB	'HHC02204%s %-14s set to %s', 0aH, 00H
$SG207599 DB	'%d', 00H
	ORG $+1
$SG206947 DB	'sclproot_cmd', 00H
	ORG $+3
$SG206948 DB	'C:\papa\MyGit\hyperion-zvector\hsccmd.c', 00H
$SG206953 DB	'"%s"', 00H
	ORG $+3
$SG206955 DB	'HHC02203%s %-14s: %s', 0aH, 00H
	ORG $+2
$SG206956 DB	'sclproot_cmd', 00H
	ORG $+3
$SG206957 DB	'C:\papa\MyGit\hyperion-zvector\hsccmd.c', 00H
$SG206958 DB	'disabled', 00H
	ORG $+3
$SG207600 DB	'I', 00H
	ORG $+2
$SG206959 DB	'SCLP disk I/O', 00H
	ORG $+2
$SG206961 DB	'HHC02203%s %-14s: %s', 0aH, 00H
	ORG $+2
$SG206962 DB	'sclproot_cmd', 00H
	ORG $+3
$SG206963 DB	'C:\papa\MyGit\hyperion-zvector\hsccmd.c', 00H
$SG206995 DB	'%d%c', 00H
	ORG $+3
$SG206997 DB	'HHC01456%s Invalid syntax %s for %s', 0aH, 00H
	ORG $+3
$SG206998 DB	'engines_cmd', 00H
$SG207605 DB	'E', 00H
	ORG $+2
$SG206999 DB	'C:\papa\MyGit\hyperion-zvector\hsccmd.c', 00H
$SG207021 DB	'HHC01451%s Invalid value %s specified for %s', 0aH, 00H
	ORG $+2
$SG207022 DB	'engines_cmd', 00H
$SG207610 DB	'E', 00H
	ORG $+2
$SG207023 DB	'C:\papa\MyGit\hyperion-zvector\hsccmd.c', 00H
$SG207025 DB	'HHC00827%s Processor %s%02X: engine %02X type %1d set: %'
	DB	's', 0aH, 00H
	ORG $+1
$SG207654 DB	'E', 00H
	ORG $+2
$SG207026 DB	'engines_cmd', 00H
$SG207668 DB	'I', 00H
	ORG $+2
$SG207027 DB	'C:\papa\MyGit\hyperion-zvector\hsccmd.c', 00H
$SG207030 DB	'HHC01455%s Invalid number of arguments for %s', 0aH, 00H
	ORG $+1
$SG207031 DB	'engines_cmd', 00H
$SG207675 DB	'E', 00H
	ORG $+2
$SG207032 DB	'C:\papa\MyGit\hyperion-zvector\hsccmd.c', 00H
$SG207062 DB	'HHC01455%s Invalid number of arguments for %s', 0aH, 00H
	ORG $+1
$SG207063 DB	'sysepoch_cmd', 00H
	ORG $+3
$SG207064 DB	'C:\papa\MyGit\hyperion-zvector\hsccmd.c', 00H
$SG207070 DB	'%d%c', 00H
	ORG $+3
$SG207075 DB	'HHC01451%s Invalid value %s specified for %s', 0aH, 00H
	ORG $+2
$SG207076 DB	'sysepoch_cmd', 00H
	ORG $+3
$SG207077 DB	'C:\papa\MyGit\hyperion-zvector\hsccmd.c', 00H
$SG207078 DB	'1900|1960', 00H
	ORG $+6
$SG207081 DB	'sysepoch_cmd', 00H
	ORG $+3
$SG207082 DB	'C:\papa\MyGit\hyperion-zvector\hsccmd.c', 00H
$SG207080 DB	'HHC01457%s Valid years for %s are %s; other values no lo'
	DB	'nger supported', 0aH, 00H
$SG207086 DB	'%d%c', 00H
	ORG $+3
$SG207088 DB	'HHC01451%s Invalid value %s specified for %s', 0aH, 00H
	ORG $+2
$SG207089 DB	'sysepoch_cmd', 00H
	ORG $+3
$SG207090 DB	'C:\papa\MyGit\hyperion-zvector\hsccmd.c', 00H
$SG207117 DB	'%d%c', 00H
	ORG $+3
$SG207119 DB	'HHC01451%s Invalid value %s specified for %s', 0aH, 00H
	ORG $+2
$SG207120 DB	'yroffset_cmd', 00H
	ORG $+3
$SG207121 DB	'C:\papa\MyGit\hyperion-zvector\hsccmd.c', 00H
$SG207124 DB	'HHC02204%s %-14s set to %s', 0aH, 00H
$SG207683 DB	'E', 00H
	ORG $+2
$SG207125 DB	'yroffset_cmd', 00H
	ORG $+3
$SG207126 DB	'C:\papa\MyGit\hyperion-zvector\hsccmd.c', 00H
$SG207128 DB	'HHC01455%s Invalid number of arguments for %s', 0aH, 00H
	ORG $+1
$SG207129 DB	'yroffset_cmd', 00H
	ORG $+3
$SG207130 DB	'C:\papa\MyGit\hyperion-zvector\hsccmd.c', 00H
$SG207157 DB	'%d%c', 00H
	ORG $+3
$SG207159 DB	'HHC01451%s Invalid value %s specified for %s', 0aH, 00H
	ORG $+2
$SG207160 DB	'tzoffset_cmd', 00H
	ORG $+3
$SG207161 DB	'C:\papa\MyGit\hyperion-zvector\hsccmd.c', 00H
$SG207164 DB	'HHC02204%s %-14s set to %s', 0aH, 00H
$SG207691 DB	'E', 00H
	ORG $+2
$SG207165 DB	'tzoffset_cmd', 00H
	ORG $+3
$SG207166 DB	'C:\papa\MyGit\hyperion-zvector\hsccmd.c', 00H
$SG207168 DB	'HHC01455%s Invalid number of arguments for %s', 0aH, 00H
	ORG $+1
$SG207169 DB	'tzoffset_cmd', 00H
	ORG $+3
$SG207170 DB	'C:\papa\MyGit\hyperion-zvector\hsccmd.c', 00H
$SG207222 DB	'qstor    main', 00H
	ORG $+2
$SG207226 DB	'main', 00H
	ORG $+3
$SG207229 DB	'%llu%c%c', 00H
	ORG $+3
$SG207697 DB	'W', 00H
	ORG $+2
$SG207233 DB	'HHC01451%s Invalid value %s specified for %s', 0aH, 00H
	ORG $+2
$SG207234 DB	'mainsize_cmd', 00H
	ORG $+3
$SG207235 DB	'C:\papa\MyGit\hyperion-zvector\hsccmd.c', 00H
$SG207250 DB	'HHC01451%s Invalid value %s specified for %s', 0aH, 00H
	ORG $+2
$SG207251 DB	'mainsize_cmd', 00H
	ORG $+3
$SG207252 DB	'C:\papa\MyGit\hyperion-zvector\hsccmd.c', 00H
$SG207255 DB	'HHC01451%s Invalid value %s specified for %s', 0aH, 00H
	ORG $+2
$SG207256 DB	'mainsize_cmd', 00H
	ORG $+3
$SG207257 DB	'C:\papa\MyGit\hyperion-zvector\hsccmd.c', 00H
$SG207260 DB	'UNLOCKED', 00H
	ORG $+3
$SG207701 DB	'I', 00H
	ORG $+2
$SG207262 DB	'HHC01451%s Invalid value %s specified for %s', 0aH, 00H
	ORG $+2
$SG207263 DB	'mainsize_cmd', 00H
	ORG $+3
$SG207264 DB	'C:\papa\MyGit\hyperion-zvector\hsccmd.c', 00H
$SG207272 DB	'HHC02389%s CPUs must be offline or stopped', 0aH, 00H
$SG207748 DB	'E', 00H
	ORG $+2
$SG207273 DB	'mainsize_cmd', 00H
	ORG $+3
$SG207274 DB	'C:\papa\MyGit\hyperion-zvector\hsccmd.c', 00H
$SG207276 DB	'HHC02388%s Configure storage error %d', 0aH, 00H
	ORG $+1
$SG207277 DB	'mainsize_cmd', 00H
	ORG $+3
$SG207278 DB	'C:\papa\MyGit\hyperion-zvector\hsccmd.c', 00H
$SG207314 DB	'xpnd', 00H
	ORG $+3
$SG207316 DB	'qstor xpnd', 00H
	ORG $+1
$SG207766 DB	'I', 00H
	ORG $+2
$SG207317 DB	'%llu%c%c', 00H
	ORG $+3
$SG207773 DB	'I', 00H
	ORG $+2
$SG207320 DB	'HHC01451%s Invalid value %s specified for %s', 0aH, 00H
	ORG $+2
$SG207321 DB	'xpndsize_cmd', 00H
	ORG $+3
$SG207322 DB	'C:\papa\MyGit\hyperion-zvector\hsccmd.c', 00H
$SG207339 DB	'HHC01451%s Invalid value %s specified for %s', 0aH, 00H
	ORG $+2
$SG207340 DB	'xpndsize_cmd', 00H
	ORG $+3
$SG207341 DB	'C:\papa\MyGit\hyperion-zvector\hsccmd.c', 00H
$SG207344 DB	'UNLOCKED', 00H
	ORG $+3
$SG207779 DB	'NO', 00H
	ORG $+1
$SG207346 DB	'HHC01451%s Invalid value %s specified for %s', 0aH, 00H
	ORG $+2
$SG207347 DB	'xpndsize_cmd', 00H
	ORG $+3
$SG207348 DB	'C:\papa\MyGit\hyperion-zvector\hsccmd.c', 00H
$SG207355 DB	'qstor xpnd', 00H
	ORG $+1
$SG207783 DB	'E', 00H
	ORG $+2
$SG207359 DB	'HHC02389%s CPUs must be offline or stopped', 0aH, 00H
$SG207791 DB	'E', 00H
	ORG $+2
$SG207360 DB	'xpndsize_cmd', 00H
	ORG $+3
$SG207361 DB	'C:\papa\MyGit\hyperion-zvector\hsccmd.c', 00H
$SG207363 DB	'HHC02387%s Configure expanded storage error %d', 0aH, 00H
$SG207364 DB	'xpndsize_cmd', 00H
	ORG $+3
$SG207365 DB	'C:\papa\MyGit\hyperion-zvector\hsccmd.c', 00H
$SG207370 DB	' and ignored.', 00H
	ORG $+2
$SG207372 DB	'HHC02256%s Command ''%s'' is deprecated%s', 0aH, 00H
	ORG $+3
$SG207799 DB	'E', 00H
	ORG $+2
$SG207373 DB	'deprecated_cmd', 00H
	ORG $+1
$SG207374 DB	'C:\papa\MyGit\hyperion-zvector\hsccmd.c', 00H
$SG207477 DB	'(empty)', 00H
$SG207479 DB	'HHC02203%s %-14s: %s', 0aH, 00H
	ORG $+2
$SG207480 DB	'netdev_cmd', 00H
	ORG $+1
$SG207805 DB	'W', 00H
	ORG $+2
$SG207481 DB	'C:\papa\MyGit\hyperion-zvector\hsccmd.c', 00H
$SG207484 DB	'HHC01455%s Invalid number of arguments for %s', 0aH, 00H
	ORG $+1
$SG207485 DB	'netdev_cmd', 00H
	ORG $+1
$SG207810 DB	'NO', 00H
	ORG $+1
$SG207486 DB	'C:\papa\MyGit\hyperion-zvector\hsccmd.c', 00H
$SG207488 DB	'(empty)', 00H
$SG207490 DB	'HHC02204%s %-14s set to %s', 0aH, 00H
$SG207811 DB	'I', 00H
	ORG $+2
$SG207491 DB	'netdev_cmd', 00H
	ORG $+1
$SG207845 DB	'E', 00H
	ORG $+2
$SG207492 DB	'C:\papa\MyGit\hyperion-zvector\hsccmd.c', 00H
$SG207516 DB	'HHC01455%s Invalid number of arguments for %s', 0aH, 00H
	ORG $+1
$SG207517 DB	'numcpu_cmd', 00H
	ORG $+1
$SG207851 DB	'%lf', 00H
$SG207518 DB	'C:\papa\MyGit\hyperion-zvector\hsccmd.c', 00H
$SG207522 DB	'HHC02203%s %-14s: %s', 0aH, 00H
	ORG $+2
$SG207523 DB	'numcpu_cmd', 00H
	ORG $+1
$SG207855 DB	'I', 00H
	ORG $+2
$SG207524 DB	'C:\papa\MyGit\hyperion-zvector\hsccmd.c', 00H
$SG207530 DB	'HHC01451%s Invalid value %s specified for %s', 0aH, 00H
	ORG $+2
$SG207531 DB	'numcpu_cmd', 00H
	ORG $+1
$SG207859 DB	'E', 00H
	ORG $+2
$SG207532 DB	'C:\papa\MyGit\hyperion-zvector\hsccmd.c', 00H
$SG207534 DB	'; NUMCPU must be <= MAXCPU', 00H
	ORG $+1
$SG207863 DB	'%lf', 00H
$SG207536 DB	'HHC02205%s Invalid argument %s%s', 0aH, 00H
	ORG $+2
$SG207864 DB	'I', 00H
	ORG $+2
$SG207537 DB	'numcpu_cmd', 00H
	ORG $+1
$SG207907 DB	'"', 00H
	ORG $+2
$SG207538 DB	'C:\papa\MyGit\hyperion-zvector\hsccmd.c', 00H
$SG207543 DB	'HHC02204%s %-14s set to %s', 0aH, 00H
$SG207911 DB	'NO', 00H
	ORG $+1
$SG207544 DB	'numcpu_cmd', 00H
	ORG $+1
$SG207918 DB	'I', 00H
	ORG $+2
$SG207545 DB	'C:\papa\MyGit\hyperion-zvector\hsccmd.c', 00H
$SG207548 DB	'HHC02389%s CPUs must be offline or stopped', 0aH, 00H
$SG207923 DB	'E', 00H
	ORG $+2
$SG207549 DB	'numcpu_cmd', 00H
	ORG $+1
$SG207951 DB	'%d', 00H
	ORG $+1
$SG207550 DB	'C:\papa\MyGit\hyperion-zvector\hsccmd.c', 00H
$SG207553 DB	'HHC02386%s Configure CPU error %d', 0aH, 00H
	ORG $+1
$SG207956 DB	'%s', 00H
	ORG $+1
$SG207554 DB	'numcpu_cmd', 00H
	ORG $+1
$SG207958 DB	'%d', 00H
	ORG $+1
$SG207555 DB	'C:\papa\MyGit\hyperion-zvector\hsccmd.c', 00H
$SG207579 DB	'HHC01455%s Invalid number of arguments for %s', 0aH, 00H
	ORG $+1
$SG207580 DB	'maxcpu_cmd', 00H
	ORG $+1
$SG207960 DB	'E', 00H
	ORG $+2
$SG207581 DB	'C:\papa\MyGit\hyperion-zvector\hsccmd.c', 00H
$SG207585 DB	'HHC02203%s %-14s: %s', 0aH, 00H
	ORG $+2
$SG207586 DB	'maxcpu_cmd', 00H
	ORG $+1
$SG207968 DB	'E', 00H
	ORG $+2
$SG207587 DB	'C:\papa\MyGit\hyperion-zvector\hsccmd.c', 00H
$SG207594 DB	'HHC01451%s Invalid value %s specified for %s', 0aH, 00H
	ORG $+2
$SG207595 DB	'maxcpu_cmd', 00H
	ORG $+1
$SG207975 DB	'"', 00H
	ORG $+2
$SG207596 DB	'C:\papa\MyGit\hyperion-zvector\hsccmd.c', 00H
$SG207601 DB	'HHC02204%s %-14s set to %s', 0aH, 00H
$SG207979 DB	'NO', 00H
	ORG $+1
$SG207602 DB	'maxcpu_cmd', 00H
	ORG $+1
$SG207986 DB	'I', 00H
	ORG $+2
$SG207603 DB	'C:\papa\MyGit\hyperion-zvector\hsccmd.c', 00H
$SG207606 DB	'HHC02389%s CPUs must be offline or stopped', 0aH, 00H
$SG208014 DB	'W', 00H
	ORG $+2
$SG207607 DB	'maxcpu_cmd', 00H
	ORG $+1
$SG208019 DB	'E', 00H
	ORG $+2
$SG207608 DB	'C:\papa\MyGit\hyperion-zvector\hsccmd.c', 00H
$SG207611 DB	'HHC02386%s Configure CPU error %d', 0aH, 00H
	ORG $+1
$SG208031 DB	'%d', 00H
	ORG $+1
$SG207612 DB	'maxcpu_cmd', 00H
	ORG $+1
$SG208036 DB	'%s', 00H
	ORG $+1
$SG207613 DB	'C:\papa\MyGit\hyperion-zvector\hsccmd.c', 00H
?def_port@?1??cnslport_cmd@@9@9 DQ FLAT:$SG207650	; `cnslport_cmd'::`2'::def_port
$SG207655 DB	'HHC01455%s Invalid number of arguments for %s', 0aH, 00H
	ORG $+1
$SG207656 DB	'cnslport_cmd', 00H
	ORG $+3
$SG207657 DB	'C:\papa\MyGit\hyperion-zvector\hsccmd.c', 00H
$SG207662 DB	'on port %s', 00H
	ORG $+1
$SG208038 DB	'%d', 00H
	ORG $+1
$SG207665 DB	'for host %s on port %s', 00H
	ORG $+1
$SG207667 DB	'Console', 00H
$SG207669 DB	'HHC17001%s %s server %slistening %s', 0aH, 00H
	ORG $+3
$SG207670 DB	'cnslport_cmd', 00H
	ORG $+3
$SG207671 DB	'C:\papa\MyGit\hyperion-zvector\hsccmd.c', 00H
$SG207676 DB	'HHC01451%s Invalid value %s specified for %s', 0aH, 00H
	ORG $+2
$SG207677 DB	'cnslport_cmd', 00H
	ORG $+3
$SG207678 DB	'C:\papa\MyGit\hyperion-zvector\hsccmd.c', 00H
$SG207684 DB	'HHC01451%s Invalid value %s specified for %s', 0aH, 00H
	ORG $+2
$SG207685 DB	'cnslport_cmd', 00H
	ORG $+3
$SG207686 DB	'C:\papa\MyGit\hyperion-zvector\hsccmd.c', 00H
$SG207690 DB	'SYSGPORT', 00H
	ORG $+3
$SG207906 DB	' ', 09H, 0aH, 0bH, 0cH, 0dH, 00H
	ORG $+1
$SG208040 DB	'E', 00H
	ORG $+2
$SG207692 DB	'HHC01453%s %s cannot be the same as %s', 0aH, 00H
$SG207693 DB	'cnslport_cmd', 00H
	ORG $+3
$SG207694 DB	'C:\papa\MyGit\hyperion-zvector\hsccmd.c', 00H
$SG207698 DB	'HHC01452%s Default port %s being used for %s', 0aH, 00H
	ORG $+2
$SG207699 DB	'cnslport_cmd', 00H
	ORG $+3
$SG207700 DB	'C:\papa\MyGit\hyperion-zvector\hsccmd.c', 00H
$SG207702 DB	'HHC02204%s %-14s set to %s', 0aH, 00H
$SG208045 DB	'I', 00H
	ORG $+2
$SG207703 DB	'cnslport_cmd', 00H
	ORG $+3
$SG207704 DB	'C:\papa\MyGit\hyperion-zvector\hsccmd.c', 00H
?def_port@?1??sysgport_cmd@@9@9 DQ FLAT:$SG207744	; `sysgport_cmd'::`2'::def_port
$SG207749 DB	'HHC01455%s Invalid number of arguments for %s', 0aH, 00H
	ORG $+1
$SG207750 DB	'sysgport_cmd', 00H
	ORG $+3
$SG207751 DB	'C:\papa\MyGit\hyperion-zvector\hsccmd.c', 00H
$SG207756 DB	'on port %s', 00H
	ORG $+1
$SG208049 DB	'%d', 00H
	ORG $+1
$SG207760 DB	'for host %s on port %s', 00H
	ORG $+1
$SG207765 DB	'SYSG console', 00H
	ORG $+3
$SG207767 DB	'HHC17001%s %s server %slistening %s', 0aH, 00H
	ORG $+3
$SG207768 DB	'sysgport_cmd', 00H
	ORG $+3
$SG207769 DB	'C:\papa\MyGit\hyperion-zvector\hsccmd.c', 00H
$SG207770 DB	'on any port', 00H
$SG207771 DB	'NOT ', 00H
	ORG $+3
$SG207913 DB	'LIGHT', 00H
	ORG $+2
$SG207914 DB	'(err!)', 00H
	ORG $+1
$SG208050 DB	'I', 00H
	ORG $+2
$SG207772 DB	'SYSG console', 00H
	ORG $+3
$SG207774 DB	'HHC17001%s %s server %slistening %s', 0aH, 00H
	ORG $+3
$SG207775 DB	'sysgport_cmd', 00H
	ORG $+3
$SG207776 DB	'C:\papa\MyGit\hyperion-zvector\hsccmd.c', 00H
$SG207784 DB	'HHC01451%s Invalid value %s specified for %s', 0aH, 00H
	ORG $+2
$SG207785 DB	'sysgport_cmd', 00H
	ORG $+3
$SG207786 DB	'C:\papa\MyGit\hyperion-zvector\hsccmd.c', 00H
$SG207792 DB	'HHC01451%s Invalid value %s specified for %s', 0aH, 00H
	ORG $+2
$SG207793 DB	'sysgport_cmd', 00H
	ORG $+3
$SG207794 DB	'C:\papa\MyGit\hyperion-zvector\hsccmd.c', 00H
$SG207798 DB	'CNSLPORT', 00H
	ORG $+3
$SG207950 DB	'RATE=', 00H
	ORG $+2
$SG207966 DB	'TITLE=', 00H
	ORG $+1
$SG208073 DB	'W', 00H
	ORG $+2
$SG207800 DB	'HHC01453%s %s cannot be the same as %s', 0aH, 00H
$SG207801 DB	'sysgport_cmd', 00H
	ORG $+3
$SG207802 DB	'C:\papa\MyGit\hyperion-zvector\hsccmd.c', 00H
$SG207806 DB	'HHC01452%s Default port %s being used for %s', 0aH, 00H
	ORG $+2
$SG207807 DB	'sysgport_cmd', 00H
	ORG $+3
$SG207808 DB	'C:\papa\MyGit\hyperion-zvector\hsccmd.c', 00H
$SG207812 DB	'HHC02204%s %-14s set to %s', 0aH, 00H
$SG208078 DB	'E', 00H
	ORG $+2
$SG207813 DB	'sysgport_cmd', 00H
	ORG $+3
$SG207814 DB	'C:\papa\MyGit\hyperion-zvector\hsccmd.c', 00H
$SG207848 DB	'C:\papa\MyGit\hyperion-zvector\hsccmd.c', 00H
$SG207846 DB	'HHC02299%s Invalid command usage. Type ''help %s'' for a'
	DB	'ssistance.', 0aH, 00H
	ORG $+2
$SG207974 DB	' ', 09H, 0aH, 0bH, 0cH, 0dH, 00H
	ORG $+1
$SG208086 DB	'I', 00H
	ORG $+2
$SG207847 DB	'toddrag_cmd', 00H
$SG208091 DB	'I', 00H
	ORG $+2
$SG207856 DB	'HHC02204%s %-14s set to %s', 0aH, 00H
$SG208113 DB	'E', 00H
	ORG $+2
$SG207857 DB	'toddrag_cmd', 00H
$SG208143 DB	'E', 00H
	ORG $+2
$SG207858 DB	'C:\papa\MyGit\hyperion-zvector\hsccmd.c', 00H
$SG207860 DB	'HHC01451%s Invalid value %s specified for %s', 0aH, 00H
	ORG $+2
$SG207861 DB	'toddrag_cmd', 00H
$SG208147 DB	'E', 00H
	ORG $+2
$SG207862 DB	'C:\papa\MyGit\hyperion-zvector\hsccmd.c', 00H
$SG207865 DB	'HHC02203%s %-14s: %s', 0aH, 00H
	ORG $+2
$SG207866 DB	'toddrag_cmd', 00H
$SG208173 DB	'E', 00H
	ORG $+2
$SG207867 DB	'C:\papa\MyGit\hyperion-zvector\hsccmd.c', 00H
$SG207910 DB	'(default)', 00H
	ORG $+2
$SG207912 DB	'DARK', 00H
	ORG $+3
$SG207981 DB	'LIGHT', 00H
	ORG $+2
$SG207982 DB	'(err!)', 00H
	ORG $+1
$SG208192 DB	'E', 00H
	ORG $+2
$SG207915 DB	'NAMEONLY', 00H
	ORG $+3
$SG208085 DB	'(none)', 00H
	ORG $+1
$SG208198 DB	'NO', 00H
	ORG $+1
$SG207916 DB	'FULLPATH', 00H
	ORG $+3
$SG208090 DB	'(none)', 00H
	ORG $+1
$SG208199 DB	'EN', 00H
	ORG $+1
$SG207917 DB	'%s RATE=%d MSGCOLOR=%s %sTITLE=%s%s', 00H
$SG208200 DB	'DIS', 00H
$SG207919 DB	'HHC02203%s %-14s: %s', 0aH, 00H
	ORG $+2
$SG207920 DB	'panopt_cmd', 00H
	ORG $+1
$SG208202 DB	'I', 00H
	ORG $+2
$SG207921 DB	'C:\papa\MyGit\hyperion-zvector\hsccmd.c', 00H
$SG207924 DB	'HHC02299%s Invalid command usage. Type ''help %s'' for a'
	DB	'ssistance.', 0aH, 00H
	ORG $+2
$SG208115 DB	'sh_cmd', 00H
	ORG $+1
$SG208207 DB	'NO', 00H
	ORG $+1
$SG207925 DB	'panopt_cmd', 00H
	ORG $+1
$SG208208 DB	'EN', 00H
	ORG $+1
$SG207926 DB	'C:\papa\MyGit\hyperion-zvector\hsccmd.c', 00H
$SG207929 DB	'NAMEONLY', 00H
	ORG $+3
$SG208184 DB	'noecho', 00H
	ORG $+1
$SG208209 DB	'DIS', 00H
$SG207932 DB	'FULLPATH', 00H
	ORG $+3
$SG208187 DB	'enable', 00H
	ORG $+1
$SG208212 DB	'I', 00H
	ORG $+2
$SG207935 DB	'MSGCOLOR=NO', 00H
$SG208252 DB	'E', 00H
	ORG $+2
$SG207938 DB	'MSGCOLOR=DARK', 00H
	ORG $+2
$SG207941 DB	'MSGCOLOR=LIGHT', 00H
	ORG $+1
$SG207944 DB	'RATE=FAST', 00H
	ORG $+2
$SG208241 DB	'enable', 00H
	ORG $+1
$SG208258 DB	'NO', 00H
	ORG $+1
$SG207947 DB	'RATE=SLOW', 00H
	ORG $+2
$SG208259 DB	'EN', 00H
	ORG $+1
$SG207957 DB	'; not numeric value', 00H
$SG208260 DB	'DIS', 00H
$SG207959 DB	'; not within range %d to %d inclusive', 00H
	ORG $+2
$SG207961 DB	'HHC02205%s Invalid argument %s%s', 0aH, 00H
	ORG $+2
$SG208262 DB	'I', 00H
	ORG $+2
$SG207962 DB	'panopt_cmd', 00H
	ORG $+1
$SG208267 DB	'NO', 00H
	ORG $+1
$SG207963 DB	'C:\papa\MyGit\hyperion-zvector\hsccmd.c', 00H
$SG207969 DB	'HHC02205%s Invalid argument %s%s', 0aH, 00H
	ORG $+2
$SG208268 DB	'EN', 00H
	ORG $+1
$SG207970 DB	'panopt_cmd', 00H
	ORG $+1
$SG208269 DB	'DIS', 00H
$SG207971 DB	'C:\papa\MyGit\hyperion-zvector\hsccmd.c', 00H
$SG207978 DB	'(default)', 00H
	ORG $+2
$SG207980 DB	'DARK', 00H
	ORG $+3
$SG208244 DB	'diag8', 00H
	ORG $+2
$SG208271 DB	'I', 00H
	ORG $+2
$SG207983 DB	'NAMEONLY', 00H
	ORG $+3
$SG208291 DB	'E', 00H
	ORG $+2
$SG207984 DB	'FULLPATH', 00H
	ORG $+3
$SG208300 DB	'enable', 00H
	ORG $+1
$SG208301 DB	'on', 00H
	ORG $+1
$SG207985 DB	'%s RATE=%d MSGCOLOR=%s %sTITLE=%s%s', 00H
$SG208306 DB	'off', 00H
$SG207987 DB	'HHC02204%s %-14s set to %s', 0aH, 00H
$SG208308 DB	'E', 00H
	ORG $+2
$SG207988 DB	'panopt_cmd', 00H
	ORG $+1
$SG208315 DB	'I', 00H
	ORG $+2
$SG207989 DB	'C:\papa\MyGit\hyperion-zvector\hsccmd.c', 00H
$SG208013 DB	'; use PANOPT RATE=xxx instead', 00H
	ORG $+2
$SG208015 DB	'HHC02256%s Command ''%s'' is deprecated%s', 0aH, 00H
	ORG $+3
$SG208321 DB	'I', 00H
	ORG $+2
$SG208016 DB	'panrate_cmd', 00H
$SG208347 DB	'dsp', 00H
$SG208017 DB	'C:\papa\MyGit\hyperion-zvector\hsccmd.c', 00H
$SG208020 DB	'HHC02299%s Invalid command usage. Type ''help %s'' for a'
	DB	'ssistance.', 0aH, 00H
	ORG $+2
$SG208359 DB	'export', 00H
	ORG $+1
$SG208364 DB	'E', 00H
	ORG $+2
$SG208021 DB	'panrate_cmd', 00H
$SG208394 DB	'I', 00H
	ORG $+2
$SG208022 DB	'C:\papa\MyGit\hyperion-zvector\hsccmd.c', 00H
$SG208027 DB	'FAST', 00H
	ORG $+3
$SG208030 DB	'SLOW', 00H
	ORG $+3
$SG208037 DB	'; not numeric value', 00H
$SG208398 DB	'E', 00H
	ORG $+2
$SG208039 DB	'; not within range %d to 5000 inclusive', 00H
$SG208041 DB	'HHC02205%s Invalid argument %s%s', 0aH, 00H
	ORG $+2
$SG208363 DB	'import', 00H
	ORG $+1
$SG208453 DB	'E', 00H
	ORG $+2
$SG208042 DB	'panrate_cmd', 00H
$SG208460 DB	'E', 00H
	ORG $+2
$SG208043 DB	'C:\papa\MyGit\hyperion-zvector\hsccmd.c', 00H
$SG208046 DB	'HHC02204%s %-14s set to %s', 0aH, 00H
$SG208470 DB	'E', 00H
	ORG $+2
$SG208047 DB	'panrate_cmd', 00H
$SG208479 DB	'E', 00H
	ORG $+2
$SG208048 DB	'C:\papa\MyGit\hyperion-zvector\hsccmd.c', 00H
$SG208051 DB	'HHC02203%s %-14s: %s', 0aH, 00H
	ORG $+2
$SG208052 DB	'panrate_cmd', 00H
$SG208484 DB	'E', 00H
	ORG $+2
$SG208053 DB	'C:\papa\MyGit\hyperion-zvector\hsccmd.c', 00H
$SG208072 DB	'; use PANOPT TITLE=xxx instead', 00H
	ORG $+1
$SG208074 DB	'HHC02256%s Command ''%s'' is deprecated%s', 0aH, 00H
	ORG $+3
$SG208339 DB	'reset', 00H
	ORG $+2
$SG208393 DB	'(NULL)', 00H
	ORG $+1
$SG208491 DB	'I', 00H
	ORG $+2
$SG208075 DB	'pantitle_cmd', 00H
	ORG $+3
$SG208076 DB	'C:\papa\MyGit\hyperion-zvector\hsccmd.c', 00H
$SG208079 DB	'HHC02299%s Invalid command usage. Type ''help %s'' for a'
	DB	'ssistance.', 0aH, 00H
	ORG $+2
$SG208496 DB	'I', 00H
	ORG $+2
$SG208080 DB	'pantitle_cmd', 00H
	ORG $+3
$SG208081 DB	'C:\papa\MyGit\hyperion-zvector\hsccmd.c', 00H
$SG208087 DB	'HHC02204%s %-14s set to %s', 0aH, 00H
$SG208520 DB	'E', 00H
	ORG $+2
$SG208088 DB	'pantitle_cmd', 00H
	ORG $+3
$SG208089 DB	'C:\papa\MyGit\hyperion-zvector\hsccmd.c', 00H
$SG208092 DB	'HHC02203%s %-14s: %s', 0aH, 00H
	ORG $+2
$SG208093 DB	'pantitle_cmd', 00H
	ORG $+3
$SG208094 DB	'C:\papa\MyGit\hyperion-zvector\hsccmd.c', 00H
$SG208114 DB	'HHC02227%s Shell/Exec commands are disabled', 0aH, 00H
	ORG $+3
$SG208116 DB	'C:\papa\MyGit\hyperion-zvector\hsccmd.c', 00H
$SG208137 DB	'LICENSED', 00H
	ORG $+3
$SG208355 DB	'alter', 00H
	ORG $+2
$SG208526 DB	'I', 00H
	ORG $+2
$SG208138 DB	'LICENCED', 00H
	ORG $+3
$SG208388 DB	'MAINT', 00H
	ORG $+2
$SG208532 DB	'E', 00H
	ORG $+2
$SG208141 DB	'RESTRICTED', 00H
	ORG $+1
$SG208539 DB	'E', 00H
	ORG $+2
$SG208144 DB	'HHC02205%s Invalid argument %s%s', 0aH, 00H
	ORG $+2
$SG208545 DB	'E', 00H
	ORG $+2
$SG208145 DB	'pgmprdos_cmd', 00H
	ORG $+3
$SG208146 DB	'C:\papa\MyGit\hyperion-zvector\hsccmd.c', 00H
$SG208148 DB	'HHC01455%s Invalid number of arguments for %s', 0aH, 00H
	ORG $+1
$SG208149 DB	'pgmprdos_cmd', 00H
	ORG $+3
$SG208150 DB	'C:\papa\MyGit\hyperion-zvector\hsccmd.c', 00H
$SG208174 DB	'HHC01455%s Invalid number of arguments for %s', 0aH, 00H
	ORG $+1
$SG208175 DB	'diag8_cmd', 00H
	ORG $+2
$SG208550 DB	'I', 00H
	ORG $+2
$SG208176 DB	'C:\papa\MyGit\hyperion-zvector\hsccmd.c', 00H
$SG208181 DB	'echo', 00H
	ORG $+3
$SG208190 DB	'disable', 00H
$SG208193 DB	'HHC02205%s Invalid argument %s%s', 0aH, 00H
	ORG $+2
$SG208574 DB	'E', 00H
	ORG $+2
$SG208194 DB	'diag8_cmd', 00H
	ORG $+2
$SG208580 DB	'I', 00H
	ORG $+2
$SG208195 DB	'C:\papa\MyGit\hyperion-zvector\hsccmd.c', 00H
$SG208201 DB	'%sABLE  %sECHO', 00H
	ORG $+1
$SG208203 DB	'HHC02204%s %-14s set to %s', 0aH, 00H
$SG208586 DB	'E', 00H
	ORG $+2
$SG208204 DB	'diag8_cmd', 00H
	ORG $+2
$SG208593 DB	'E', 00H
	ORG $+2
$SG208205 DB	'C:\papa\MyGit\hyperion-zvector\hsccmd.c', 00H
$SG208210 DB	'%sABLE  %sECHO', 00H
	ORG $+1
$SG208211 DB	'DIAG8CMD', 00H
	ORG $+3
$SG208490 DB	'MODEL', 00H
	ORG $+2
$SG208599 DB	'E', 00H
	ORG $+2
$SG208213 DB	'HHC02203%s %-14s: %s', 0aH, 00H
	ORG $+2
$SG208214 DB	'diag8_cmd', 00H
	ORG $+2
$SG208604 DB	'I', 00H
	ORG $+2
$SG208215 DB	'C:\papa\MyGit\hyperion-zvector\hsccmd.c', 00H
$SG208247 DB	'disable', 00H
$SG208250 DB	'nodiag8', 00H
$SG208253 DB	'HHC02205%s Invalid argument %s%s', 0aH, 00H
	ORG $+2
?default_shrdport@?1??shrdport_cmd@@9@9 DD 0f96H	; `shrdport_cmd'::`2'::default_shrdport
$SG208254 DB	'shcmdopt_cmd', 00H
	ORG $+3
$SG208255 DB	'C:\papa\MyGit\hyperion-zvector\hsccmd.c', 00H
$SG208261 DB	'%sABLE  %sDIAG8', 00H
$SG208263 DB	'HHC02204%s %-14s set to %s', 0aH, 00H
$SG208630 DB	'E', 00H
	ORG $+2
$SG208264 DB	'shcmdopt_cmd', 00H
	ORG $+3
$SG208265 DB	'C:\papa\MyGit\hyperion-zvector\hsccmd.c', 00H
$SG208270 DB	'%sABLE  %sDIAG8', 00H
$SG208272 DB	'HHC02203%s %-14s: %s', 0aH, 00H
	ORG $+2
$SG208273 DB	'shcmdopt_cmd', 00H
	ORG $+3
$SG208274 DB	'C:\papa\MyGit\hyperion-zvector\hsccmd.c', 00H
$SG208292 DB	'HHC01455%s Invalid number of arguments for %s', 0aH, 00H
	ORG $+1
$SG208293 DB	'legacysenseid_cmd', 00H
	ORG $+2
$SG208635 DB	'%hu', 00H
$SG208294 DB	'C:\papa\MyGit\hyperion-zvector\hsccmd.c', 00H
$SG208305 DB	'disable', 00H
$SG208309 DB	'HHC02205%s Invalid argument %s%s', 0aH, 00H
	ORG $+2
$SG208636 DB	'I', 00H
	ORG $+2
$SG208310 DB	'legacysenseid_cmd', 00H
	ORG $+2
$SG208651 DB	'E', 00H
	ORG $+2
$SG208311 DB	'C:\papa\MyGit\hyperion-zvector\hsccmd.c', 00H
$SG208313 DB	'enabled', 00H
$SG208314 DB	'disabled', 00H
	ORG $+3
$SG208642 DB	'START', 00H
	ORG $+2
$SG208656 DB	'%hu', 00H
$SG208316 DB	'HHC02204%s %-14s set to %s', 0aH, 00H
$SG208657 DB	'I', 00H
	ORG $+2
$SG208317 DB	'legacysenseid_cmd', 00H
	ORG $+2
$SG208678 DB	'E', 00H
	ORG $+2
$SG208318 DB	'C:\papa\MyGit\hyperion-zvector\hsccmd.c', 00H
$SG208319 DB	'enabled', 00H
$SG208320 DB	'disabled', 00H
	ORG $+3
$SG208648 DB	'%hu%c', 00H
	ORG $+2
$SG208683 DB	'I', 00H
	ORG $+2
$SG208322 DB	'HHC02203%s %-14s: %s', 0aH, 00H
	ORG $+2
$SG208323 DB	'legacysenseid_cmd', 00H
	ORG $+2
$SG208689 DB	'I', 00H
	ORG $+2
$SG208324 DB	'C:\papa\MyGit\hyperion-zvector\hsccmd.c', 00H
$SG208343 DB	'reference', 00H
	ORG $+2
$SG208719 DB	'E', 00H
	ORG $+2
$SG208348 DB	'display', 00H
$SG208351 DB	'test', 00H
	ORG $+3
$SG208365 DB	'HHC02299%s Invalid command usage. Type ''help %s'' for a'
	DB	'ssistance.', 0aH, 00H
	ORG $+2
$SG208729 DB	'I', 00H
	ORG $+2
$SG208366 DB	'cp_updt_cmd', 00H
$SG208740 DB	'E', 00H
	ORG $+2
$SG208367 DB	'C:\papa\MyGit\hyperion-zvector\hsccmd.c', 00H
$SG208395 DB	'HHC01476%s Codepage is %s', 0aH, 00H
	ORG $+1
$SG208756 DB	'E', 00H
	ORG $+2
$SG208396 DB	'codepage_cmd', 00H
	ORG $+3
$SG208397 DB	'C:\papa\MyGit\hyperion-zvector\hsccmd.c', 00H
$SG208401 DB	'C:\papa\MyGit\hyperion-zvector\hsccmd.c', 00H
$SG208399 DB	'HHC02299%s Invalid command usage. Type ''help %s'' for a'
	DB	'ssistance.', 0aH, 00H
	ORG $+2
$SG208766 DB	'1', 00H
	ORG $+2
$SG208400 DB	'codepage_cmd', 00H
	ORG $+3
$SG208434 DB	'hardware', 00H
	ORG $+3
$SG208728 DB	'BASIC', 00H
	ORG $+2
$SG208767 DB	'0', 00H
	ORG $+2
$SG208436 DB	'capacity', 00H
	ORG $+3
$SG208438 DB	'perm', 00H
	ORG $+3
$SG208440 DB	'temp', 00H
	ORG $+3
$SG208736 DB	'%hx%c', 00H
	ORG $+2
$SG208773 DB	'I', 00H
	ORG $+2
$SG208454 DB	'HHC01455%s Invalid number of arguments for %s', 0aH, 00H
	ORG $+1
$SG208455 DB	'stsi_model_cmd', 00H
	ORG $+1
$SG208456 DB	'C:\papa\MyGit\hyperion-zvector\hsccmd.c', 00H
$SG208459 DB	'; argument > 16 characters', 00H
	ORG $+1
$SG208799 DB	'E', 00H
	ORG $+2
$SG208461 DB	'HHC02205%s Invalid argument %s%s', 0aH, 00H
	ORG $+2
$SG208805 DB	'I', 00H
	ORG $+2
$SG208462 DB	'stsi_model_cmd', 00H
	ORG $+1
$SG208463 DB	'C:\papa\MyGit\hyperion-zvector\hsccmd.c', 00H
$SG208468 DB	'%s-model = <%s>', 00H
$SG208469 DB	'; argument contains an invalid character (0-9 and upperc'
	DB	'ase A-Z only)', 00H
	ORG $+2
$SG208471 DB	'HHC02205%s Invalid argument %s%s', 0aH, 00H
	ORG $+2
$SG208812 DB	'I', 00H
	ORG $+2
$SG208472 DB	'stsi_model_cmd', 00H
	ORG $+1
$SG208473 DB	'C:\papa\MyGit\hyperion-zvector\hsccmd.c', 00H
$SG208477 DB	'%s-model = <%s>', 00H
$SG208480 DB	'HHC02205%s Invalid argument %s%s', 0aH, 00H
	ORG $+6
$SG208478 DB	'; argument contains an invalid character (0-9 and upperc'
	DB	'ase A-Z only)', 00H
	ORG $+2
$SG208481 DB	'stsi_model_cmd', 00H
	ORG $+1
$SG208482 DB	'C:\papa\MyGit\hyperion-zvector\hsccmd.c', 00H
$SG208485 DB	'HHC02205%s Invalid argument %s%s', 0aH, 00H
	ORG $+2
$SG208818 DB	'E', 00H
	ORG $+2
$SG208486 DB	'stsi_model_cmd', 00H
	ORG $+1
$SG208487 DB	'C:\papa\MyGit\hyperion-zvector\hsccmd.c', 00H
$SG208489 DB	'hardware(%s) capacity(%s) perm(%s) temp(%s)', 00H
$SG208826 DB	'W', 00H
	ORG $+2
$SG208492 DB	'HHC02204%s %-14s set to %s', 0aH, 00H
$SG208832 DB	'E', 00H
	ORG $+2
$SG208493 DB	'stsi_model_cmd', 00H
	ORG $+1
$SG208494 DB	'C:\papa\MyGit\hyperion-zvector\hsccmd.c', 00H
$SG208495 DB	'hardware(%s) capacity(%s) perm(%s) temp(%s)', 00H
$SG208856 DB	'E', 00H
	ORG $+2
$SG208497 DB	'HHC02203%s %-14s: %s', 0aH, 00H
	ORG $+2
$SG208498 DB	'stsi_model_cmd', 00H
	ORG $+1
$SG208499 DB	'C:\papa\MyGit\hyperion-zvector\hsccmd.c', 00H
$SG208521 DB	'HHC01455%s Invalid number of arguments for %s', 0aH, 00H
	ORG $+1
$SG208522 DB	'stsi_plant_cmd', 00H
	ORG $+1
$SG208523 DB	'C:\papa\MyGit\hyperion-zvector\hsccmd.c', 00H
$SG208527 DB	'HHC02203%s %-14s: %s', 0aH, 00H
	ORG $+2
$SG208528 DB	'stsi_plant_cmd', 00H
	ORG $+1
$SG208529 DB	'C:\papa\MyGit\hyperion-zvector\hsccmd.c', 00H
$SG208531 DB	'; argument > 4 characters', 00H
	ORG $+2
$SG208862 DB	'I', 00H
	ORG $+2
$SG208533 DB	'HHC02205%s Invalid argument %s%s', 0aH, 00H
	ORG $+2
$SG208873 DB	'I', 00H
	ORG $+2
$SG208534 DB	'stsi_plant_cmd', 00H
	ORG $+1
$SG208535 DB	'C:\papa\MyGit\hyperion-zvector\hsccmd.c', 00H
$SG208538 DB	'; argument contains an invalid character (0-9 and upperc'
	DB	'ase A-Z only)', 00H
	ORG $+2
$SG208540 DB	'HHC02205%s Invalid argument %s%s', 0aH, 00H
	ORG $+2
$SG208877 DB	'E', 00H
	ORG $+2
$SG208541 DB	'stsi_plant_cmd', 00H
	ORG $+1
$SG208542 DB	'C:\papa\MyGit\hyperion-zvector\hsccmd.c', 00H
$SG208546 DB	'HHC02205%s Invalid argument %s%s', 0aH, 00H
	ORG $+6
$SG208544 DB	'; argument contains an invalid character (0-9 and upperc'
	DB	'ase A-Z only)', 00H
	ORG $+2
$SG208547 DB	'stsi_plant_cmd', 00H
	ORG $+1
$SG208548 DB	'C:\papa\MyGit\hyperion-zvector\hsccmd.c', 00H
$SG208551 DB	'HHC02204%s %-14s set to %s', 0aH, 00H
$SG208903 DB	'E', 00H
	ORG $+2
$SG208552 DB	'stsi_plant_cmd', 00H
	ORG $+1
$SG208553 DB	'C:\papa\MyGit\hyperion-zvector\hsccmd.c', 00H
$SG208575 DB	'HHC01455%s Invalid number of arguments for %s', 0aH, 00H
	ORG $+1
$SG208576 DB	'stsi_manufacturer_cmd', 00H
	ORG $+2
$SG208577 DB	'C:\papa\MyGit\hyperion-zvector\hsccmd.c', 00H
$SG208581 DB	'HHC02203%s %-14s: %s', 0aH, 00H
	ORG $+2
$SG208582 DB	'stsi_manufacturer_cmd', 00H
	ORG $+2
$SG208583 DB	'C:\papa\MyGit\hyperion-zvector\hsccmd.c', 00H
$SG208585 DB	'; argument > 16 characters', 00H
	ORG $+1
$SG208909 DB	'I', 00H
	ORG $+2
$SG208587 DB	'HHC02205%s Invalid argument %s%s', 0aH, 00H
	ORG $+2
$SG208920 DB	'I', 00H
	ORG $+2
$SG208588 DB	'stsi_manufacturer_cmd', 00H
	ORG $+2
$SG208589 DB	'C:\papa\MyGit\hyperion-zvector\hsccmd.c', 00H
$SG208594 DB	'HHC02205%s Invalid argument %s%s', 0aH, 00H
	ORG $+6
$SG208592 DB	'; argument contains an invalid character (0-9 and upperc'
	DB	'ase A-Z only)', 00H
	ORG $+2
$SG208595 DB	'stsi_manufacturer_cmd', 00H
	ORG $+2
$SG208596 DB	'C:\papa\MyGit\hyperion-zvector\hsccmd.c', 00H
$SG208600 DB	'HHC02205%s Invalid argument %s%s', 0aH, 00H
	ORG $+6
$SG208598 DB	'; argument contains an invalid character (0-9 and upperc'
	DB	'ase A-Z only)', 00H
	ORG $+2
$SG208601 DB	'stsi_manufacturer_cmd', 00H
	ORG $+2
$SG208602 DB	'C:\papa\MyGit\hyperion-zvector\hsccmd.c', 00H
$SG208605 DB	'HHC02204%s %-14s set to %s', 0aH, 00H
$SG208924 DB	'E', 00H
	ORG $+2
$SG208606 DB	'stsi_manufacturer_cmd', 00H
	ORG $+2
$SG208607 DB	'C:\papa\MyGit\hyperion-zvector\hsccmd.c', 00H
$SG208631 DB	'HHC01455%s Invalid number of arguments for %s', 0aH, 00H
	ORG $+1
$SG208632 DB	'shrdport_cmd', 00H
	ORG $+3
$SG208633 DB	'C:\papa\MyGit\hyperion-zvector\hsccmd.c', 00H
$SG208637 DB	'HHC02203%s %-14s: %s', 0aH, 00H
	ORG $+2
$SG208638 DB	'shrdport_cmd', 00H
	ORG $+3
$SG208639 DB	'C:\papa\MyGit\hyperion-zvector\hsccmd.c', 00H
$SG208645 DB	'STOP', 00H
	ORG $+3
$SG208652 DB	'HHC01451%s Invalid value %s specified for %s', 0aH, 00H
	ORG $+2
$SG208653 DB	'shrdport_cmd', 00H
	ORG $+3
$SG208654 DB	'C:\papa\MyGit\hyperion-zvector\hsccmd.c', 00H
$SG208658 DB	'HHC02204%s %-14s set to %s', 0aH, 00H
$SG208952 DB	'E', 00H
	ORG $+2
$SG208659 DB	'shrdport_cmd', 00H
	ORG $+3
$SG208660 DB	'C:\papa\MyGit\hyperion-zvector\hsccmd.c', 00H
$SG208681 DB	'C:\papa\MyGit\hyperion-zvector\hsccmd.c', 00H
$SG208679 DB	'HHC02299%s Invalid command usage. Type ''help %s'' for a'
	DB	'ssistance.', 0aH, 00H
	ORG $+2
$SG208959 DB	'%d', 00H
	ORG $+1
$SG208680 DB	'lparname_cmd', 00H
	ORG $+3
$SG208684 DB	'HHC02203%s %-14s: %s', 0aH, 00H
	ORG $+2
$SG208685 DB	'lparname_cmd', 00H
	ORG $+3
$SG208686 DB	'C:\papa\MyGit\hyperion-zvector\hsccmd.c', 00H
$SG208687 DB	'LPARNAME', 00H
	ORG $+3
$SG208753 DB	'BASIC', 00H
	ORG $+2
$SG208961 DB	'I', 00H
	ORG $+2
$SG208690 DB	'HHC02204%s %-14s set to %s', 0aH, 00H
$SG208967 DB	'%u', 00H
	ORG $+1
$SG208691 DB	'lparname_cmd', 00H
	ORG $+3
$SG208692 DB	'C:\papa\MyGit\hyperion-zvector\hsccmd.c', 00H
$SG208722 DB	'C:\papa\MyGit\hyperion-zvector\hsccmd.c', 00H
$SG208720 DB	'HHC02299%s Invalid command usage. Type ''help %s'' for a'
	DB	'ssistance.', 0aH, 00H
	ORG $+2
$SG208970 DB	'E', 00H
	ORG $+2
$SG208721 DB	'lparnum_cmd', 00H
$SG208726 DB	'%02X', 00H
	ORG $+3
$SG208727 DB	'%01X', 00H
	ORG $+3
$SG208764 DB	'BASIC', 00H
	ORG $+2
$SG208976 DB	'E', 00H
	ORG $+2
$SG208730 DB	'HHC02203%s %-14s: %s', 0aH, 00H
	ORG $+2
$SG208731 DB	'lparnum_cmd', 00H
$SG208985 DB	'E', 00H
	ORG $+2
$SG208732 DB	'C:\papa\MyGit\hyperion-zvector\hsccmd.c', 00H
$SG208739 DB	': must be 1 to 10 (hex) for ARCHMODE S370', 00H
	ORG $+2
$SG208991 DB	'E', 00H
	ORG $+2
$SG208741 DB	'HHC02205%s Invalid argument %s%s', 0aH, 00H
	ORG $+2
$SG209002 DB	'E', 00H
	ORG $+2
$SG208742 DB	'lparnum_cmd', 00H
$SG209008 DB	'E', 00H
	ORG $+2
$SG208743 DB	'C:\papa\MyGit\hyperion-zvector\hsccmd.c', 00H
$SG208744 DB	'C:\papa\MyGit\hyperion-zvector\hsccmd.c:5446', 00H
	ORG $+3
$SG208754 DB	'C:\papa\MyGit\hyperion-zvector\hsccmd.c:5468', 00H
	ORG $+3
$SG208755 DB	': must be BASIC, 1 to F (hex) or 00 to FF (hex)', 00H
$SG208757 DB	'HHC02205%s Invalid argument %s%s', 0aH, 00H
	ORG $+2
$SG209015 DB	'E', 00H
	ORG $+2
$SG208758 DB	'lparnum_cmd', 00H
$SG209023 DB	'%d', 00H
	ORG $+1
$SG208759 DB	'C:\papa\MyGit\hyperion-zvector\hsccmd.c', 00H
$SG208760 DB	'C:\papa\MyGit\hyperion-zvector\hsccmd.c:5484', 00H
	ORG $+3
$SG208765 DB	'BASIC', 00H
	ORG $+2
$SG208768 DB	'%02X', 00H
	ORG $+3
$SG208769 DB	'%01X', 00H
	ORG $+3
$SG208770 DB	'CPUIDFMT', 00H
	ORG $+3
$SG208816 DB	'FORCE', 00H
	ORG $+2
$SG209027 DB	'I', 00H
	ORG $+2
$SG208771 DB	'LPARNUM', 00H
$SG208774 DB	'HHC02204%s %-14s set to %s', 0aH, 00H
$SG209047 DB	'E', 00H
	ORG $+2
$SG208775 DB	'lparnum_cmd', 00H
$SG209054 DB	'I', 00H
	ORG $+2
$SG208776 DB	'C:\papa\MyGit\hyperion-zvector\hsccmd.c', 00H
$SG208800 DB	'HHC01455%s Invalid number of arguments for %s', 0aH, 00H
	ORG $+1
$SG208801 DB	'cpuverid_cmd', 00H
	ORG $+3
$SG208802 DB	'C:\papa\MyGit\hyperion-zvector\hsccmd.c', 00H
$SG208804 DB	'%02X', 00H
	ORG $+3
$SG208806 DB	'HHC02203%s %-14s: %s', 0aH, 00H
	ORG $+2
$SG208807 DB	'cpuverid_cmd', 00H
	ORG $+3
$SG208808 DB	'C:\papa\MyGit\hyperion-zvector\hsccmd.c', 00H
$SG208811 DB	'%x%c', 00H
	ORG $+3
$SG208819 DB	'HHC02205%s Invalid argument %s%s', 0aH, 00H
	ORG $+2
$SG209058 DB	'I', 00H
	ORG $+2
$SG208820 DB	'cpuverid_cmd', 00H
	ORG $+3
$SG208821 DB	'C:\papa\MyGit\hyperion-zvector\hsccmd.c', 00H
$SG208823 DB	'%02X', 00H
	ORG $+3
$SG208824 DB	'CPUVERID', 00H
	ORG $+3
$SG208960 DB	'BASIC', 00H
	ORG $+2
$SG209078 DB	'CON', 00H
$SG208827 DB	'%02X (FORCED)', 00H
	ORG $+2
$SG208829 DB	'HHC02204%s %-14s set to %s', 0aH, 00H
$SG209081 DB	'DSP', 00H
$SG208830 DB	'cpuverid_cmd', 00H
	ORG $+3
$SG208831 DB	'C:\papa\MyGit\hyperion-zvector\hsccmd.c', 00H
$SG208833 DB	'HHC01451%s Invalid value %s specified for %s', 0aH, 00H
	ORG $+2
$SG208834 DB	'cpuverid_cmd', 00H
	ORG $+3
$SG208835 DB	'C:\papa\MyGit\hyperion-zvector\hsccmd.c', 00H
$SG208857 DB	'HHC01455%s Invalid number of arguments for %s', 0aH, 00H
	ORG $+1
$SG208858 DB	'cpumodel_cmd', 00H
	ORG $+3
$SG208859 DB	'C:\papa\MyGit\hyperion-zvector\hsccmd.c', 00H
$SG208861 DB	'%04X', 00H
	ORG $+3
$SG208863 DB	'HHC02203%s %-14s: %s', 0aH, 00H
	ORG $+2
$SG208864 DB	'cpumodel_cmd', 00H
	ORG $+3
$SG208865 DB	'C:\papa\MyGit\hyperion-zvector\hsccmd.c', 00H
$SG208868 DB	'%x%c', 00H
	ORG $+3
$SG208870 DB	'%04X', 00H
	ORG $+3
$SG208871 DB	'CPUMODEL', 00H
	ORG $+3
$SG208999 DB	'BASIC', 00H
	ORG $+2
$SG209082 DB	'FCP', 00H
$SG208874 DB	'HHC02204%s %-14s set to %s', 0aH, 00H
$SG209084 DB	'OSA', 00H
$SG208875 DB	'cpumodel_cmd', 00H
	ORG $+3
$SG208876 DB	'C:\papa\MyGit\hyperion-zvector\hsccmd.c', 00H
$SG208878 DB	'HHC01451%s Invalid value %s specified for %s', 0aH, 00H
	ORG $+2
$SG208879 DB	'cpumodel_cmd', 00H
	ORG $+3
$SG208880 DB	'C:\papa\MyGit\hyperion-zvector\hsccmd.c', 00H
$SG208904 DB	'HHC01455%s Invalid number of arguments for %s', 0aH, 00H
	ORG $+1
$SG208905 DB	'cpuserial_cmd', 00H
	ORG $+2
$SG208906 DB	'C:\papa\MyGit\hyperion-zvector\hsccmd.c', 00H
$SG208908 DB	'%06X', 00H
	ORG $+3
$SG208910 DB	'HHC02203%s %-14s: %s', 0aH, 00H
	ORG $+2
$SG208911 DB	'cpuserial_cmd', 00H
	ORG $+2
$SG208912 DB	'C:\papa\MyGit\hyperion-zvector\hsccmd.c', 00H
$SG208915 DB	'%x%c', 00H
	ORG $+3
$SG208917 DB	'%06X', 00H
	ORG $+3
$SG208918 DB	'CPUSERIAL', 00H
	ORG $+2
$SG209085 DB	'PCH', 00H
$SG208921 DB	'HHC02204%s %-14s set to %s', 0aH, 00H
$SG209086 DB	'PRT', 00H
$SG208922 DB	'cpuserial_cmd', 00H
	ORG $+2
$SG208923 DB	'C:\papa\MyGit\hyperion-zvector\hsccmd.c', 00H
$SG208925 DB	'HHC01451%s Invalid value %s specified for %s', 0aH, 00H
	ORG $+2
$SG208926 DB	'cpuserial_cmd', 00H
	ORG $+2
$SG208927 DB	'C:\papa\MyGit\hyperion-zvector\hsccmd.c', 00H
$SG208953 DB	'HHC01455%s Invalid number of arguments for %s', 0aH, 00H
	ORG $+1
$SG208954 DB	'cpuidfmt_cmd', 00H
	ORG $+3
$SG208955 DB	'C:\papa\MyGit\hyperion-zvector\hsccmd.c', 00H
$SG208962 DB	'HHC02203%s %-14s: %s', 0aH, 00H
	ORG $+2
$SG208963 DB	'cpuidfmt_cmd', 00H
	ORG $+3
$SG208964 DB	'C:\papa\MyGit\hyperion-zvector\hsccmd.c', 00H
$SG208969 DB	': must be either 0 or 1', 00H
$SG208971 DB	'HHC02205%s Invalid argument %s%s', 0aH, 00H
	ORG $+2
$SG209087 DB	'RDR', 00H
$SG208972 DB	'cpuidfmt_cmd', 00H
	ORG $+3
$SG208973 DB	'C:\papa\MyGit\hyperion-zvector\hsccmd.c', 00H
$SG208975 DB	': not in LPAR mode', 00H
	ORG $+1
$SG209155 DB	'E', 00H
	ORG $+2
$SG208977 DB	'HHC02205%s Invalid argument %s%s', 0aH, 00H
	ORG $+2
$SG209181 DB	'SYSG  ', 00H
	ORG $+1
$SG209182 DB	'%s', 00H
	ORG $+1
$SG208978 DB	'cpuidfmt_cmd', 00H
	ORG $+3
$SG208979 DB	'C:\papa\MyGit\hyperion-zvector\hsccmd.c', 00H
$SG208984 DB	': LPAR number not in range of 1 to 10 (hex)', 00H
$SG209191 DB	'I', 00H
	ORG $+2
$SG208986 DB	'HHC02205%s Invalid argument %s%s', 0aH, 00H
	ORG $+2
$SG209199 DB	'I', 00H
	ORG $+2
$SG208987 DB	'cpuidfmt_cmd', 00H
	ORG $+3
$SG208988 DB	'C:\papa\MyGit\hyperion-zvector\hsccmd.c', 00H
$SG208990 DB	': must be 0 for System/370', 00H
	ORG $+1
$SG209204 DB	'I', 00H
	ORG $+2
$SG208992 DB	'HHC02205%s Invalid argument %s%s', 0aH, 00H
	ORG $+2
$SG209210 DB	'W', 00H
	ORG $+2
$SG208993 DB	'cpuidfmt_cmd', 00H
	ORG $+3
$SG208994 DB	'C:\papa\MyGit\hyperion-zvector\hsccmd.c', 00H
$SG208995 DB	'C:\papa\MyGit\hyperion-zvector\hsccmd.c:5798', 00H
	ORG $+3
$SG209001 DB	': In LPAR mode', 00H
	ORG $+1
$SG209003 DB	'HHC02205%s Invalid argument %s%s', 0aH, 00H
	ORG $+2
$SG209215 DB	'W', 00H
	ORG $+2
$SG209004 DB	'cpuidfmt_cmd', 00H
	ORG $+3
$SG209005 DB	'C:\papa\MyGit\hyperion-zvector\hsccmd.c', 00H
$SG209007 DB	'to change CPUIDFMT', 00H
	ORG $+1
$SG209291 DB	'E', 00H
	ORG $+2
$SG209009 DB	'HHC02253%s All CPU''s must be stopped %s', 0aH, 00H
	ORG $+3
$SG209024 DB	'BASIC', 00H
	ORG $+2
$SG209293 DB	'qd_cmd', 00H
	ORG $+1
$SG209297 DB	'E', 00H
	ORG $+2
$SG209010 DB	'cpuidfmt_cmd', 00H
	ORG $+3
$SG209011 DB	'C:\papa\MyGit\hyperion-zvector\hsccmd.c', 00H
$SG209012 DB	'C:\papa\MyGit\hyperion-zvector\hsccmd.c:5828', 00H
	ORG $+3
$SG209016 DB	'HHC02205%s Invalid argument %s%s', 0aH, 00H
	ORG $+2
$SG209299 DB	'qd_cmd', 00H
	ORG $+1
$SG209315 DB	'E', 00H
	ORG $+2
$SG209017 DB	'cpuidfmt_cmd', 00H
	ORG $+3
$SG209018 DB	'C:\papa\MyGit\hyperion-zvector\hsccmd.c', 00H
$SG209019 DB	'C:\papa\MyGit\hyperion-zvector\hsccmd.c:5845', 00H
	ORG $+3
$SG209025 DB	'CPUIDFMT', 00H
	ORG $+3
$SG209186 DB	'busy ', 00H
	ORG $+2
$SG209317 DB	'qd_cmd', 00H
	ORG $+1
$SG209323 DB	'W', 00H
	ORG $+2
$SG209028 DB	'HHC02204%s %-14s set to %s', 0aH, 00H
$SG209332 DB	'I', 00H
	ORG $+2
$SG209029 DB	'cpuidfmt_cmd', 00H
	ORG $+3
$SG209030 DB	'C:\papa\MyGit\hyperion-zvector\hsccmd.c', 00H
$SG209048 DB	'HHC01455%s Invalid number of arguments for %s', 0aH, 00H
	ORG $+1
$SG209049 DB	'loadparm_cmd', 00H
	ORG $+3
$SG209050 DB	'C:\papa\MyGit\hyperion-zvector\hsccmd.c', 00H
$SG209055 DB	'HHC02204%s %-14s set to %s', 0aH, 00H
$SG209338 DB	' ', 00H
	ORG $+2
$SG209056 DB	'loadparm_cmd', 00H
	ORG $+3
$SG209057 DB	'C:\papa\MyGit\hyperion-zvector\hsccmd.c', 00H
$SG209059 DB	'HHC02203%s %-14s: %s', 0aH, 00H
	ORG $+2
$SG209060 DB	'loadparm_cmd', 00H
	ORG $+3
$SG209061 DB	'C:\papa\MyGit\hyperion-zvector\hsccmd.c', 00H
$SG209077 DB	'CHAN', 00H
	ORG $+3
$SG209079 DB	'CTCA', 00H
	ORG $+3
$SG209080 DB	'DASD', 00H
	ORG $+3
$SG209083 DB	'LINE', 00H
	ORG $+3
$SG209088 DB	'TAPE', 00H
	ORG $+3
$SG209150 DB	'sysg', 00H
	ORG $+3
$SG209154 DB	'malloc(%d)', 00H
	ORG $+1
$SG209340 DB	'I', 00H
	ORG $+2
$SG209156 DB	'HHC02219%s Error in function %s: %s', 0aH, 00H
	ORG $+3
$SG209157 DB	'devlist_cmd', 00H
$SG209349 DB	'I', 00H
	ORG $+2
$SG209158 DB	'C:\papa\MyGit\hyperion-zvector\hsccmd.c', 00H
$SG209168 DB	'devlist_cmd', 00H
$SG209355 DB	' ', 00H
	ORG $+2
$SG209169 DB	'C:\papa\MyGit\hyperion-zvector\hsccmd.c', 00H
$SG209173 DB	'C:\papa\MyGit\hyperion-zvector\hsccmd.c', 00H
$SG209170 DB	'%s(%d) : warning HHC90999W : *** Assertion Failed! *** f'
	DB	'unction: %s', 0aH, 00H
	ORG $+3
$SG209172 DB	'devlist_cmd', 00H
$SG209188 DB	'open ', 00H
	ORG $+6
$SG209174 DB	'%s(%d) : warning HHC90999W : *** Assertion Failed! *** f'
	DB	'unction: %s', 0aH, 00H
	ORG $+3
$SG209183 DB	'%1d:%04X', 00H
	ORG $+3
$SG209325 DB	'qd_cmd', 00H
	ORG $+1
$SG209357 DB	'I', 00H
	ORG $+2
$SG209184 DB	'pending ', 00H
	ORG $+3
$SG209334 DB	'qd_cmd', 00H
	ORG $+1
$SG209367 DB	'I', 00H
	ORG $+2
$SG209190 DB	'%s %4.4X %s %s%s%s', 00H
	ORG $+1
$SG209373 DB	' ', 00H
	ORG $+2
$SG209192 DB	'HHC02279%s %s', 0aH, 00H
	ORG $+1
$SG209193 DB	'devlist_cmd', 00H
$SG209376 DB	'I', 00H
	ORG $+2
$SG209194 DB	'C:\papa\MyGit\hyperion-zvector\hsccmd.c', 00H
$SG209198 DB	'     (client %s (%s) connected)', 00H
$SG209200 DB	'HHC02279%s %s', 0aH, 00H
	ORG $+1
$SG209201 DB	'devlist_cmd', 00H
$SG209385 DB	'I', 00H
	ORG $+2
$SG209202 DB	'C:\papa\MyGit\hyperion-zvector\hsccmd.c', 00H
$SG209203 DB	'     (no one currently connected)', 00H
	ORG $+2
$SG209342 DB	'qd_cmd', 00H
	ORG $+1
$SG209391 DB	' ', 00H
	ORG $+2
$SG209205 DB	'HHC02279%s %s', 0aH, 00H
	ORG $+1
$SG209206 DB	'devlist_cmd', 00H
$SG209393 DB	'I', 00H
	ORG $+2
$SG209207 DB	'C:\papa\MyGit\hyperion-zvector\hsccmd.c', 00H
$SG209211 DB	'HHC02237%s Not all devices shown (max %d)', 0aH, 00H
	ORG $+1
$SG209398 DB	'W', 00H
	ORG $+2
$SG209212 DB	'devlist_cmd', 00H
$SG209415 DB	'E', 00H
	ORG $+2
$SG209213 DB	'C:\papa\MyGit\hyperion-zvector\hsccmd.c', 00H
$SG209216 DB	'HHC02312%s Empty list', 0aH, 00H
	ORG $+1
$SG209217 DB	'devlist_cmd', 00H
$SG209455 DB	'E', 00H
	ORG $+2
$SG209218 DB	'C:\papa\MyGit\hyperion-zvector\hsccmd.c', 00H
$SG209292 DB	'HHC02299%s Invalid command usage. Type ''help %s'' for a'
	DB	'ssistance.', 0aH, 00H
	ORG $+2
$SG209351 DB	'qd_cmd', 00H
	ORG $+1
$SG209462 DB	'E', 00H
	ORG $+2
$SG209294 DB	'C:\papa\MyGit\hyperion-zvector\hsccmd.c', 00H
$SG209296 DB	'malloc(%d)', 00H
	ORG $+1
$SG209475 DB	'E', 00H
	ORG $+2
$SG209298 DB	'HHC02219%s Error in function %s: %s', 0aH, 00H
	ORG $+3
$SG209300 DB	'C:\papa\MyGit\hyperion-zvector\hsccmd.c', 00H
$SG209318 DB	'C:\papa\MyGit\hyperion-zvector\hsccmd.c', 00H
$SG209316 DB	'HHC02299%s Invalid command usage. Type ''help %s'' for a'
	DB	'ssistance.', 0aH, 00H
	ORG $+2
$SG209359 DB	'qd_cmd', 00H
	ORG $+1
$SG209484 DB	'E', 00H
	ORG $+2
$SG209324 DB	'HHC02312%s Empty list', 0aH, 00H
	ORG $+1
$SG209326 DB	'C:\papa\MyGit\hyperion-zvector\hsccmd.c', 00H
$SG209330 DB	'%1d:%04X SNSID 00 ', 00H
	ORG $+1
$SG209508 DB	'E', 00H
	ORG $+2
$SG209333 DB	'HHC02280%s %s', 0aH, 00H
	ORG $+1
$SG209335 DB	'C:\papa\MyGit\hyperion-zvector\hsccmd.c', 00H
$SG209336 DB	'             %2.2X ', 00H
$SG209339 DB	'%2.2X', 00H
	ORG $+2
$SG209369 DB	'qd_cmd', 00H
	ORG $+1
$SG209515 DB	'E', 00H
	ORG $+2
$SG209341 DB	'HHC02280%s %s', 0aH, 00H
	ORG $+1
$SG209343 DB	'C:\papa\MyGit\hyperion-zvector\hsccmd.c', 00H
$SG209347 DB	'%1d:%04X RDC   00 ', 00H
	ORG $+1
$SG209546 DB	'I', 00H
	ORG $+2
$SG209350 DB	'HHC02280%s %s', 0aH, 00H
	ORG $+1
$SG209352 DB	'C:\papa\MyGit\hyperion-zvector\hsccmd.c', 00H
$SG209353 DB	'             %2.2X ', 00H
$SG209356 DB	'%2.2X', 00H
	ORG $+2
$SG209378 DB	'qd_cmd', 00H
	ORG $+1
$SG209553 DB	'I', 00H
	ORG $+2
$SG209358 DB	'HHC02280%s %s', 0aH, 00H
	ORG $+1
$SG209360 DB	'C:\papa\MyGit\hyperion-zvector\hsccmd.c', 00H
$SG209364 DB	'%1d:%04X RCD   00 ', 00H
	ORG $+1
$SG209366 DB	' |%s|', 00H
	ORG $+2
$SG209387 DB	'qd_cmd', 00H
	ORG $+1
$SG209558 DB	'I', 00H
	ORG $+2
$SG209368 DB	'HHC02280%s %s', 0aH, 00H
	ORG $+1
$SG209370 DB	'C:\papa\MyGit\hyperion-zvector\hsccmd.c', 00H
$SG209371 DB	'             %2.2X ', 00H
$SG209374 DB	'%2.2X', 00H
	ORG $+2
$SG209375 DB	' |%s|', 00H
	ORG $+2
$SG209395 DB	'qd_cmd', 00H
	ORG $+1
$SG209563 DB	'I', 00H
	ORG $+2
$SG209377 DB	'HHC02280%s %s', 0aH, 00H
	ORG $+1
$SG209379 DB	'C:\papa\MyGit\hyperion-zvector\hsccmd.c', 00H
$SG209383 DB	'%1d:%04X SNSS  00 ', 00H
	ORG $+1
$SG209568 DB	'I', 00H
	ORG $+2
$SG209386 DB	'HHC02280%s %s', 0aH, 00H
	ORG $+1
$SG209388 DB	'C:\papa\MyGit\hyperion-zvector\hsccmd.c', 00H
$SG209389 DB	'             %2.2X ', 00H
$SG209392 DB	'%2.2X', 00H
	ORG $+2
$SG209400 DB	'qd_cmd', 00H
	ORG $+1
$SG209572 DB	'I', 00H
	ORG $+2
$SG209394 DB	'HHC02280%s %s', 0aH, 00H
	ORG $+1
$SG209396 DB	'C:\papa\MyGit\hyperion-zvector\hsccmd.c', 00H
$SG209399 DB	'HHC02237%s Not all devices shown (max %d)', 0aH, 00H
	ORG $+1
$SG209577 DB	'E', 00H
	ORG $+2
$SG209401 DB	'C:\papa\MyGit\hyperion-zvector\hsccmd.c', 00H
$SG209416 DB	'HHC02202%s Missing argument(s). Type ''help %s'' for ass'
	DB	'istance.', 0aH, 00H
$SG209417 DB	'attach_cmd', 00H
	ORG $+1
$SG209584 DB	'E', 00H
	ORG $+2
$SG209418 DB	'C:\papa\MyGit\hyperion-zvector\hsccmd.c', 00H
$SG209454 DB	'FORCE', 00H
	ORG $+2
$SG209456 DB	'HHC02299%s Invalid command usage. Type ''help %s'' for a'
	DB	'ssistance.', 0aH, 00H
	ORG $+2
$SG209461 DB	'device', 00H
	ORG $+1
$SG209591 DB	'E', 00H
	ORG $+2
$SG209457 DB	'detach_cmd', 00H
	ORG $+1
$SG209625 DB	'E', 00H
	ORG $+2
$SG209458 DB	'C:\papa\MyGit\hyperion-zvector\hsccmd.c', 00H
$SG209463 DB	'HHC01464%s %1d:%04X %s does not exist', 0aH, 00H
	ORG $+1
$SG209464 DB	'detach_cmd', 00H
	ORG $+1
$SG209631 DB	'VM', 00H
	ORG $+1
$SG209465 DB	'C:\papa\MyGit\hyperion-zvector\hsccmd.c', 00H
$SG209468 DB	'C:\papa\MyGit\hyperion-zvector\hsccmd.c:6489', 00H
	ORG $+3
$SG209470 DB	'C:\papa\MyGit\hyperion-zvector\hsccmd.c:6497', 00H
	ORG $+3
$SG209472 DB	'C:\papa\MyGit\hyperion-zvector\hsccmd.c:6502', 00H
	ORG $+3
$SG209474 DB	'C:\papa\MyGit\hyperion-zvector\hsccmd.c:6504', 00H
	ORG $+3
$SG209476 DB	'HHC02231%s %1d:%04X busy or interrupt pending', 0aH, 00H
	ORG $+1
$SG209477 DB	'detach_cmd', 00H
	ORG $+1
$SG209647 DB	'VSE', 00H
$SG209478 DB	'C:\papa\MyGit\hyperion-zvector\hsccmd.c', 00H
$SG209481 DB	'C:\papa\MyGit\hyperion-zvector\hsccmd.c:6520', 00H
	ORG $+3
$SG209483 DB	'C:\papa\MyGit\hyperion-zvector\hsccmd.c:6522', 00H
	ORG $+3
$SG209485 DB	'HHC02231%s %1d:%04X busy or interrupt pending', 0aH, 00H
	ORG $+1
$SG209486 DB	'detach_cmd', 00H
	ORG $+1
$SG209663 DB	'VM+', 00H
$SG209487 DB	'C:\papa\MyGit\hyperion-zvector\hsccmd.c', 00H
$SG209488 DB	'C:\papa\MyGit\hyperion-zvector\hsccmd.c:6530', 00H
	ORG $+3
$SG209490 DB	'C:\papa\MyGit\hyperion-zvector\hsccmd.c:6540', 00H
	ORG $+3
$SG209511 DB	'C:\papa\MyGit\hyperion-zvector\hsccmd.c', 00H
$SG209509 DB	'HHC02202%s Missing argument(s). Type ''help %s'' for ass'
	DB	'istance.', 0aH, 00H
$SG209510 DB	'define_cmd', 00H
	ORG $+5
$SG209516 DB	'HHC02238%s Device numbers can only be redefined within t'
	DB	'he same Logical Channel SubSystem', 0aH, 00H
	ORG $+1
$SG209681 DB	'+', 00H
	ORG $+2
$SG209517 DB	'define_cmd', 00H
	ORG $+1
$SG209685 DB	'%s', 00H
	ORG $+1
$SG209518 DB	'C:\papa\MyGit\hyperion-zvector\hsccmd.c', 00H
$SG209545 DB	'pgmtrace == all', 00H
$SG209547 DB	'HHC02281%s %s', 0aH, 00H
	ORG $+1
$SG209548 DB	'pgmtrace_cmd', 00H
	ORG $+3
$SG209549 DB	'C:\papa\MyGit\hyperion-zvector\hsccmd.c', 00H
$SG209552 DB	'pgmtrace == none', 00H
	ORG $+3
$SG209635 DB	'QUIET', 00H
	ORG $+2
$SG209639 DB	'OS/390', 00H
	ORG $+1
$SG209686 DB	'I', 00H
	ORG $+2
$SG209554 DB	'HHC02281%s %s', 0aH, 00H
	ORG $+1
$SG209555 DB	'pgmtrace_cmd', 00H
	ORG $+3
$SG209556 DB	'C:\papa\MyGit\hyperion-zvector\hsccmd.c', 00H
$SG209557 DB	'* = Tracing suppressed; otherwise tracing enabled', 00H
	ORG $+2
$SG209667 DB	'QUIET+', 00H
	ORG $+1
$SG209696 DB	'VM', 00H
	ORG $+1
$SG209559 DB	'HHC02281%s %s', 0aH, 00H
	ORG $+1
$SG209560 DB	'pgmtrace_cmd', 00H
	ORG $+3
$SG209561 DB	'C:\papa\MyGit\hyperion-zvector\hsccmd.c', 00H
$SG209566 DB	'C:\papa\MyGit\hyperion-zvector\hsccmd.c', 00H
$SG209562 DB	'00000000000000011111111111111112222222222222222333333333'
	DB	'33333334', 00H
	ORG $+3
$SG209643 DB	'LINUX', 00H
	ORG $+2
$SG209671 DB	'OS390+', 00H
	ORG $+1
$SG209726 DB	'VSE', 00H
$SG209564 DB	'HHC02281%s %s', 0aH, 00H
	ORG $+1
$SG209565 DB	'pgmtrace_cmd', 00H
	ORG $+3
$SG209569 DB	'HHC02281%s %s', 0aH, 00H
	ORG $+1
$SG209571 DB	'C:\papa\MyGit\hyperion-zvector\hsccmd.c', 00H
$SG209567 DB	'123456789ABCDEF0123456789ABCDEF0123456789ABCDEF012345678'
	DB	'9ABCDEF0', 00H
	ORG $+3
$SG209649 DB	'z/VSE', 00H
	ORG $+2
$SG209675 DB	'LINUX+', 00H
	ORG $+1
$SG209731 DB	'E', 00H
	ORG $+2
$SG209570 DB	'pgmtrace_cmd', 00H
	ORG $+3
$SG209573 DB	'HHC02281%s %s', 0aH, 00H
	ORG $+1
$SG209574 DB	'pgmtrace_cmd', 00H
	ORG $+3
$SG209575 DB	'C:\papa\MyGit\hyperion-zvector\hsccmd.c', 00H
$SG209578 DB	'HHC02299%s Invalid command usage. Type ''help %s'' for a'
	DB	'ssistance.', 0aH, 00H
	ORG $+2
$SG209680 DB	'z/VSE+', 00H
	ORG $+1
$SG209751 DB	'E', 00H
	ORG $+2
$SG209579 DB	'pgmtrace_cmd', 00H
	ORG $+3
$SG209580 DB	'C:\papa\MyGit\hyperion-zvector\hsccmd.c', 00H
$SG209582 DB	'%x%c', 00H
	ORG $+3
$SG209583 DB	': program interrupt number is invalid', 00H
	ORG $+2
$SG209585 DB	'HHC02205%s Invalid argument %s%s', 0aH, 00H
	ORG $+2
$SG209723 DB	'OS/390', 00H
	ORG $+1
$SG209774 DB	'E', 00H
	ORG $+2
$SG209586 DB	'pgmtrace_cmd', 00H
	ORG $+3
$SG209587 DB	'C:\papa\MyGit\hyperion-zvector\hsccmd.c', 00H
$SG209590 DB	': program interrupt number is out of range', 00H
	ORG $+1
$SG209781 DB	'%s', 00H
	ORG $+1
$SG209592 DB	'HHC02205%s Invalid argument %s%s', 0aH, 00H
	ORG $+2
$SG209776 DB	'ds_cmd', 00H
	ORG $+1
$SG209804 DB	'E', 00H
	ORG $+2
$SG209593 DB	'pgmtrace_cmd', 00H
	ORG $+3
$SG209594 DB	'C:\papa\MyGit\hyperion-zvector\hsccmd.c', 00H
$SG209628 DB	'C:\papa\MyGit\hyperion-zvector\hsccmd.c', 00H
$SG209626 DB	'HHC02299%s Invalid command usage. Type ''help %s'' for a'
	DB	'ssistance.', 0aH, 00H
	ORG $+2
$SG209782 DB	'ds_cmd', 00H
	ORG $+1
$SG209810 DB	'%d', 00H
	ORG $+1
$SG209627 DB	'ostailor_cmd', 00H
	ORG $+3
$SG209633 DB	'DEFAULT', 00H
$SG209637 DB	'NULL', 00H
	ORG $+3
$SG209641 DB	'z/OS', 00H
	ORG $+3
$SG209645 DB	'OpenSolaris', 00H
$SG209814 DB	'E', 00H
	ORG $+2
$SG209665 DB	'DEFAULT+', 00H
	ORG $+3
$SG209669 DB	'NULL+', 00H
	ORG $+2
$SG209673 DB	'ZOS+', 00H
	ORG $+3
$SG209708 DB	'QUIET', 00H
	ORG $+2
$SG209824 DB	'E', 00H
	ORG $+2
$SG209677 DB	'OPENSOLARIS+', 00H
	ORG $+3
$SG209679 DB	'VSE+', 00H
	ORG $+3
$SG209684 DB	'Custom(0x%16.16llX)', 00H
$SG209830 DB	'I', 00H
	ORG $+2
$SG209687 DB	'HHC02203%s %-14s: %s', 0aH, 00H
	ORG $+2
$SG209688 DB	'ostailor_cmd', 00H
	ORG $+3
$SG209689 DB	'C:\papa\MyGit\hyperion-zvector\hsccmd.c', 00H
$SG209699 DB	'Z/VM', 00H
	ORG $+3
$SG209702 DB	'NONE', 00H
	ORG $+3
$SG209705 DB	'DEFAULT', 00H
$SG209711 DB	'NULL', 00H
	ORG $+3
$SG209714 DB	'Z/OS', 00H
	ORG $+3
$SG209717 DB	'OpenSolaris', 00H
$SG209720 DB	'LINUX', 00H
	ORG $+2
$SG209729 DB	'Z/VSE', 00H
	ORG $+2
$SG209867 DB	'E', 00H
	ORG $+2
$SG209730 DB	': unknown OS tailor specification', 00H
	ORG $+2
$SG209869 DB	'sf_cmd', 00H
	ORG $+1
$SG209877 DB	'*', 00H
	ORG $+2
$SG209732 DB	'HHC02205%s Invalid argument %s%s', 0aH, 00H
	ORG $+2
$SG209879 DB	'E', 00H
	ORG $+2
$SG209733 DB	'ostailor_cmd', 00H
	ORG $+3
$SG209734 DB	'C:\papa\MyGit\hyperion-zvector\hsccmd.c', 00H
$SG209753 DB	'k_cmd', 00H
	ORG $+2
$SG209752 DB	'HHC02299%s Invalid command usage. Type ''help %s'' for a'
	DB	'ssistance.', 0aH, 00H
	ORG $+2
$SG209881 DB	'sf_cmd', 00H
	ORG $+1
$SG209887 DB	'E', 00H
	ORG $+2
$SG209754 DB	'C:\papa\MyGit\hyperion-zvector\hsccmd.c', 00H
$SG209777 DB	'C:\papa\MyGit\hyperion-zvector\hsccmd.c', 00H
$SG209775 DB	'HHC02299%s Invalid command usage. Type ''help %s'' for a'
	DB	'ssistance.', 0aH, 00H
	ORG $+2
$SG209889 DB	'sf_cmd', 00H
	ORG $+1
$SG209902 DB	'E', 00H
	ORG $+2
$SG209780 DB	'HHC02268I ', 00H
	ORG $+1
$SG209911 DB	'E', 00H
	ORG $+2
$SG209783 DB	'C:\papa\MyGit\hyperion-zvector\hsccmd.c', 00H
$SG209807 DB	'C:\papa\MyGit\hyperion-zvector\hsccmd.c', 00H
$SG209805 DB	'HHC02299%s Invalid command usage. Type ''help %s'' for a'
	DB	'ssistance.', 0aH, 00H
	ORG $+2
$SG209904 DB	'sf_cmd', 00H
	ORG $+1
$SG209917 DB	'E', 00H
	ORG $+2
$SG209806 DB	'devtmax_cmd', 00H
$SG209964 DB	'E', 00H
	ORG $+2
$SG209813 DB	': must be -1 to n', 00H
	ORG $+2
$SG209913 DB	'sf_cmd', 00H
	ORG $+1
$SG209981 DB	'E', 00H
	ORG $+2
$SG209815 DB	'HHC02205%s Invalid argument %s%s', 0aH, 00H
	ORG $+2
$SG209919 DB	'sf_cmd', 00H
	ORG $+1
$SG209988 DB	'I', 00H
	ORG $+2
$SG209816 DB	'devtmax_cmd', 00H
$SG209994 DB	'I', 00H
	ORG $+2
$SG209817 DB	'C:\papa\MyGit\hyperion-zvector\hsccmd.c', 00H
$SG209818 DB	'C:\papa\MyGit\hyperion-zvector\hsccmd.c:6931', 00H
	ORG $+3
$SG209821 DB	'C:\papa\MyGit\hyperion-zvector\hsccmd.c:6936', 00H
	ORG $+3
$SG209822 DB	'idle device thread', 00H
	ORG $+1
$SG210066 DB	'E', 00H
	ORG $+2
$SG209825 DB	'HHC00102%s Error in function create_thread(): %s', 0aH, 00H
	ORG $+2
$SG209979 DB	'enable', 00H
	ORG $+1
$SG210071 DB	'E', 00H
	ORG $+2
$SG209826 DB	'devtmax_cmd', 00H
$SG210076 DB	'rew', 00H
$SG209827 DB	'C:\papa\MyGit\hyperion-zvector\hsccmd.c', 00H
$SG209828 DB	'C:\papa\MyGit\hyperion-zvector\hsccmd.c:6943', 00H
	ORG $+3
$SG209829 DB	'C:\papa\MyGit\hyperion-zvector\hsccmd.c:6944', 00H
	ORG $+3
$SG209833 DB	'C:\papa\MyGit\hyperion-zvector\hsccmd.c', 00H
$SG209831 DB	'HHC02242%s Max device threads: %d, current: %d, most: %d'
	DB	', waiting: %d, total I/Os queued: %d', 0aH, 00H
	ORG $+2
$SG209832 DB	'devtmax_cmd', 00H
$SG209865 DB	'+-cdk', 00H
	ORG $+2
$SG210068 DB	'mt_cmd', 00H
	ORG $+1
$SG210077 DB	'fsf', 00H
$SG209866 DB	': must be ''sf+'', ''sf-'', ''sfc'', ''sfk'' or ''sfd''', 00H
	ORG $+2
$SG209868 DB	'HHC02205%s Invalid argument %s%s', 0aH, 00H
	ORG $+2
$SG210073 DB	'mt_cmd', 00H
	ORG $+1
$SG210078 DB	'bsf', 00H
$SG209870 DB	'C:\papa\MyGit\hyperion-zvector\hsccmd.c', 00H
$SG209880 DB	'HHC02216%s Empty list', 0aH, 00H
	ORG $+1
$SG209882 DB	'C:\papa\MyGit\hyperion-zvector\hsccmd.c', 00H
$SG209886 DB	'cckd device', 00H
$SG210079 DB	'fsr', 00H
$SG209888 DB	'HHC02209%s %1d:%04X device is not a %s', 0aH, 00H
$SG209890 DB	'C:\papa\MyGit\hyperion-zvector\hsccmd.c', 00H
$SG209894 DB	'NOMERGE', 00H
$SG209897 DB	'MERGE', 00H
	ORG $+2
$SG209900 DB	'FORCE', 00H
	ORG $+2
$SG209901 DB	': operand must be ''merge'', ''nomerge'' or ''force''', 00H
$SG209903 DB	'HHC02205%s Invalid argument %s%s', 0aH, 00H
	ORG $+2
$SG210080 DB	'bsr', 00H
$SG209905 DB	'C:\papa\MyGit\hyperion-zvector\hsccmd.c', 00H
$SG209909 DB	'%d%c', 00H
	ORG $+3
$SG209910 DB	': operand must be a number -1 .. 4', 00H
	ORG $+1
$SG210081 DB	'asf', 00H
$SG209912 DB	'HHC02205%s Invalid argument %s%s', 0aH, 00H
	ORG $+2
$SG210082 DB	'wtm', 00H
$SG209914 DB	'C:\papa\MyGit\hyperion-zvector\hsccmd.c', 00H
$SG209918 DB	'HHC02205%s Invalid argument %s%s', 0aH, 00H
	ORG $+2
$SG210083 DB	'dse', 00H
$SG209920 DB	'C:\papa\MyGit\hyperion-zvector\hsccmd.c', 00H
$SG209930 DB	'C:\papa\MyGit\hyperion-zvector\hsccmd.c:7109', 00H
	ORG $+3
$SG209931 DB	'sf+ command', 00H
$SG210086 DB	'E', 00H
	ORG $+2
$SG209934 DB	'C:\papa\MyGit\hyperion-zvector\hsccmd.c:7110', 00H
	ORG $+3
$SG209935 DB	'sf- command', 00H
$SG210091 DB	'rew', 00H
$SG209938 DB	'C:\papa\MyGit\hyperion-zvector\hsccmd.c:7111', 00H
	ORG $+3
$SG209939 DB	'sfc command', 00H
$SG210094 DB	'E', 00H
	ORG $+2
$SG209942 DB	'C:\papa\MyGit\hyperion-zvector\hsccmd.c:7112', 00H
	ORG $+3
$SG209943 DB	'sfd command', 00H
$SG210098 DB	'%d', 00H
	ORG $+1
$SG209946 DB	'C:\papa\MyGit\hyperion-zvector\hsccmd.c:7113', 00H
	ORG $+3
$SG209947 DB	'sfk command', 00H
	ORG $+4
$SG209965 DB	'HHC02299%s Invalid command usage. Type ''help %s'' for a'
	DB	'ssistance.', 0aH, 00H
	ORG $+2
$SG210088 DB	'mt_cmd', 00H
	ORG $+1
$SG210102 DB	'E', 00H
	ORG $+2
$SG209966 DB	'mounted_tape_reinit_cmd', 00H
$SG209967 DB	'C:\papa\MyGit\hyperion-zvector\hsccmd.c', 00H
$SG209973 DB	'disallow', 00H
	ORG $+3
$SG209978 DB	'allow', 00H
	ORG $+2
$SG210096 DB	'mt_cmd', 00H
	ORG $+1
$SG210113 DB	'E', 00H
	ORG $+2
$SG209974 DB	'disable', 00H
$SG209982 DB	'HHC02205%s Invalid argument %s%s', 0aH, 00H
	ORG $+2
$SG210104 DB	'mt_cmd', 00H
	ORG $+1
$SG210131 DB	'E', 00H
	ORG $+2
$SG209983 DB	'mounted_tape_reinit_cmd', 00H
$SG209984 DB	'C:\papa\MyGit\hyperion-zvector\hsccmd.c', 00H
$SG209986 DB	'disabled', 00H
	ORG $+3
$SG210084 DB	'dvol1', 00H
	ORG $+2
$SG210115 DB	'mt_cmd', 00H
	ORG $+1
$SG210147 DB	'E', 00H
	ORG $+2
$SG209987 DB	'enabled', 00H
$SG209989 DB	'HHC02204%s %-14s set to %s', 0aH, 00H
$SG210153 DB	'rew', 00H
$SG209990 DB	'mounted_tape_reinit_cmd', 00H
$SG209991 DB	'C:\papa\MyGit\hyperion-zvector\hsccmd.c', 00H
$SG209992 DB	'disabled', 00H
	ORG $+3
$SG210119 DB	'mt_cmd', 00H
	ORG $+1
$SG210156 DB	'E', 00H
	ORG $+2
$SG209993 DB	'enabled', 00H
$SG209995 DB	'HHC02203%s %-14s: %s', 0aH, 00H
	ORG $+2
$SG209996 DB	'mounted_tape_reinit_cmd', 00H
$SG209997 DB	'C:\papa\MyGit\hyperion-zvector\hsccmd.c', 00H
$SG210069 DB	'C:\papa\MyGit\hyperion-zvector\hsccmd.c', 00H
$SG210067 DB	'HHC02202%s Missing argument(s). Type ''help %s'' for ass'
	DB	'istance.', 0aH, 00H
$SG210072 DB	'HHC02299%s Invalid command usage. Type ''help %s'' for a'
	DB	'ssistance.', 0aH, 00H
	ORG $+2
$SG210123 DB	'mt_cmd', 00H
	ORG $+1
$SG210163 DB	'fsf', 00H
$SG210074 DB	'C:\papa\MyGit\hyperion-zvector\hsccmd.c', 00H
$SG210085 DB	'. Type ''help mt'' for assistance.', 00H
	ORG $+3
$SG210133 DB	'mt_cmd', 00H
	ORG $+1
$SG210167 DB	'bsf', 00H
$SG210087 DB	'HHC02205%s Invalid argument %s%s', 0aH, 00H
	ORG $+2
$SG210137 DB	'mt_cmd', 00H
	ORG $+1
$SG210171 DB	'fsr', 00H
$SG210089 DB	'C:\papa\MyGit\hyperion-zvector\hsccmd.c', 00H
$SG210093 DB	'; not in range of 1-9999', 00H
	ORG $+3
$SG210141 DB	'mt_cmd', 00H
	ORG $+1
$SG210175 DB	'bsr', 00H
$SG210095 DB	'HHC02205%s Invalid argument %s%s', 0aH, 00H
	ORG $+2
$SG210149 DB	'mt_cmd', 00H
	ORG $+1
$SG210179 DB	'asf', 00H
$SG210097 DB	'C:\papa\MyGit\hyperion-zvector\hsccmd.c', 00H
$SG210101 DB	'; not in range of 1-9999', 00H
	ORG $+3
$SG210158 DB	'mt_cmd', 00H
	ORG $+1
$SG210187 DB	'E', 00H
	ORG $+2
$SG210103 DB	'HHC02205%s Invalid argument %s%s', 0aH, 00H
	ORG $+2
$SG210189 DB	'mt_cmd', 00H
	ORG $+1
$SG210196 DB	'E', 00H
	ORG $+2
$SG210105 DB	'C:\papa\MyGit\hyperion-zvector\hsccmd.c', 00H
$SG210108 DB	'C:\papa\MyGit\hyperion-zvector\hsccmd.c:7233', 00H
	ORG $+3
$SG210112 DB	'C:\papa\MyGit\hyperion-zvector\hsccmd.c:7240', 00H
	ORG $+3
$SG210114 DB	'HHC02231%s %1d:%04X busy or interrupt pending', 0aH, 00H
	ORG $+1
$SG210116 DB	'C:\papa\MyGit\hyperion-zvector\hsccmd.c', 00H
$SG210120 DB	'C:\papa\MyGit\hyperion-zvector\hsccmd.c', 00H
$SG210121 DB	'%s(%d) : warning HHC90999W : *** Assertion Failed! *** f'
	DB	'unction: %s', 0aH, 00H
	ORG $+3
$SG210124 DB	'C:\papa\MyGit\hyperion-zvector\hsccmd.c', 00H
$SG210125 DB	'%s(%d) : warning HHC90999W : *** Assertion Failed! *** f'
	DB	'unction: %s', 0aH, 00H
	ORG $+3
$SG210128 DB	'TAPE', 00H
	ORG $+3
$SG210129 DB	'C:\papa\MyGit\hyperion-zvector\hsccmd.c:7251', 00H
	ORG $+3
$SG210130 DB	'TAPE', 00H
	ORG $+3
$SG210132 DB	'HHC02209%s %1d:%04X device is not a %s', 0aH, 00H
$SG210134 DB	'C:\papa\MyGit\hyperion-zvector\hsccmd.c', 00H
$SG210138 DB	'C:\papa\MyGit\hyperion-zvector\hsccmd.c', 00H
$SG210139 DB	'%s(%d) : warning HHC90999W : *** Assertion Failed! *** f'
	DB	'unction: %s', 0aH, 00H
	ORG $+3
$SG210142 DB	'C:\papa\MyGit\hyperion-zvector\hsccmd.c', 00H
$SG210143 DB	'%s(%d) : warning HHC90999W : *** Assertion Failed! *** f'
	DB	'unction: %s', 0aH, 00H
	ORG $+3
$SG210146 DB	'C:\papa\MyGit\hyperion-zvector\hsccmd.c:7260', 00H
	ORG $+3
$SG210148 DB	'HHC02298%s %1d:%04X drive is empty', 0aH, 00H
$SG210210 DB	'"', 00H
	ORG $+2
$SG210150 DB	'C:\papa\MyGit\hyperion-zvector\hsccmd.c', 00H
$SG210159 DB	'C:\papa\MyGit\hyperion-zvector\hsccmd.c', 00H
$SG210157 DB	'HHC02299%s Invalid command usage. Type ''help %s'' for a'
	DB	'ssistance.', 0aH, 00H
	ORG $+2
$SG210184 DB	'dvol1', 00H
	ORG $+6
$SG210188 DB	'HHC02299%s Invalid command usage. Type ''help %s'' for a'
	DB	'ssistance.', 0aH, 00H
	ORG $+2
$SG210198 DB	'mt_cmd', 00H
	ORG $+1
$SG210215 DB	'I', 00H
	ORG $+2
$SG210190 DB	'C:\papa\MyGit\hyperion-zvector\hsccmd.c', 00H
$SG210195 DB	'Out of memory', 00H
	ORG $+2
$SG210197 DB	'HHC02801%s %1d:%04X %s failed; %s', 0aH, 00H
	ORG $+1
$SG210219 DB	'I', 00H
	ORG $+2
$SG210199 DB	'C:\papa\MyGit\hyperion-zvector\hsccmd.c', 00H
$SG210203 DB	'VOL1', 00H
	ORG $+3
$SG210206 DB	'VOL1', 00H
	ORG $+3
$SG210207 DB	' (ASCII LABELED) ', 00H
	ORG $+2
$SG210217 DB	'mt_cmd', 00H
	ORG $+1
$SG210223 DB	'I', 00H
	ORG $+2
$SG210213 DB	', Owner = "', 00H
$SG210228 DB	'E', 00H
	ORG $+2
$SG210214 DB	'%s%s%s%s%s', 00H
	ORG $+1
$SG210234 DB	'wtm', 00H
$SG210216 DB	'HHC02805%s %1d:%04X Volser = %s', 0aH, 00H
	ORG $+3
$SG210221 DB	'mt_cmd', 00H
	ORG $+1
$SG210238 DB	'E', 00H
	ORG $+2
$SG210218 DB	'C:\papa\MyGit\hyperion-zvector\hsccmd.c', 00H
$SG210220 DB	'HHC02806%s %1d:%04X Unlabeled tape', 0aH, 00H
$SG210245 DB	'dse', 00H
$SG210222 DB	'C:\papa\MyGit\hyperion-zvector\hsccmd.c', 00H
$SG210224 DB	'HHC02806%s %1d:%04X Unlabeled tape', 0aH, 00H
$SG210225 DB	'mt_cmd', 00H
	ORG $+1
$SG210248 DB	'E', 00H
	ORG $+2
$SG210226 DB	'C:\papa\MyGit\hyperion-zvector\hsccmd.c', 00H
$SG210227 DB	'Tape not at BOT', 00H
$SG210229 DB	'HHC02801%s %1d:%04X %s failed; %s', 0aH, 00H
	ORG $+1
$SG210230 DB	'mt_cmd', 00H
	ORG $+1
$SG210255 DB	'E', 00H
	ORG $+2
$SG210231 DB	'C:\papa\MyGit\hyperion-zvector\hsccmd.c', 00H
$SG210239 DB	'HHC02804%s %1d:%04X File protect enabled', 0aH, 00H
	ORG $+2
$SG210240 DB	'mt_cmd', 00H
	ORG $+1
$SG210262 DB	'I', 00H
	ORG $+2
$SG210241 DB	'C:\papa\MyGit\hyperion-zvector\hsccmd.c', 00H
$SG210249 DB	'HHC02299%s Invalid command usage. Type ''help %s'' for a'
	DB	'ssistance.', 0aH, 00H
	ORG $+2
$SG210250 DB	'mt_cmd', 00H
	ORG $+1
$SG210267 DB	'E', 00H
	ORG $+2
$SG210251 DB	'C:\papa\MyGit\hyperion-zvector\hsccmd.c', 00H
$SG210256 DB	'HHC02804%s %1d:%04X File protect enabled', 0aH, 00H
	ORG $+2
$SG210257 DB	'mt_cmd', 00H
	ORG $+1
$SG210272 DB	'I', 00H
	ORG $+2
$SG210258 DB	'C:\papa\MyGit\hyperion-zvector\hsccmd.c', 00H
$SG210263 DB	'HHC02800%s %1d:%04X %s complete', 0aH, 00H
	ORG $+3
$SG210264 DB	'mt_cmd', 00H
	ORG $+1
$SG210276 DB	'I', 00H
	ORG $+2
$SG210265 DB	'C:\papa\MyGit\hyperion-zvector\hsccmd.c', 00H
$SG210266 DB	'rc = %d', 00H
$SG210268 DB	'HHC02801%s %1d:%04X %s failed; %s', 0aH, 00H
	ORG $+1
$SG210269 DB	'mt_cmd', 00H
	ORG $+1
$SG210327 DB	'E', 00H
	ORG $+2
$SG210270 DB	'C:\papa\MyGit\hyperion-zvector\hsccmd.c', 00H
$SG210271 DB	'C:\papa\MyGit\hyperion-zvector\hsccmd.c:7483', 00H
	ORG $+3
$SG210273 DB	'HHC02802%s %1d:%04X Current file number %d', 0aH, 00H
$SG210274 DB	'mt_cmd', 00H
	ORG $+1
$SG210340 DB	'E', 00H
	ORG $+2
$SG210275 DB	'C:\papa\MyGit\hyperion-zvector\hsccmd.c', 00H
$SG210277 DB	'HHC02803%s %1d:%04X Current block number %d', 0aH, 00H
	ORG $+3
$SG210278 DB	'mt_cmd', 00H
	ORG $+1
$SG210279 DB	'C:\papa\MyGit\hyperion-zvector\hsccmd.c', 00H
$SG210328 DB	'HHC02202%s Missing argument(s). Type ''help %s'' for ass'
	DB	'istance.', 0aH, 00H
$SG210329 DB	'devinit_cmd', 00H
$SG210358 DB	'E', 00H
	ORG $+2
$SG210330 DB	'C:\papa\MyGit\hyperion-zvector\hsccmd.c', 00H
$SG210333 DB	'C:\papa\MyGit\hyperion-zvector\hsccmd.c:7527', 00H
	ORG $+3
$SG210335 DB	'C:\papa\MyGit\hyperion-zvector\hsccmd.c:7536', 00H
	ORG $+3
$SG210336 DB	'C:\papa\MyGit\hyperion-zvector\hsccmd.c:7538', 00H
	ORG $+3
$SG210339 DB	'C:\papa\MyGit\hyperion-zvector\hsccmd.c:7547', 00H
	ORG $+3
$SG210341 DB	'HHC02231%s %1d:%04X busy or interrupt pending', 0aH, 00H
	ORG $+1
$SG210342 DB	'devinit_cmd', 00H
$SG210362 DB	'I', 00H
	ORG $+2
$SG210343 DB	'C:\papa\MyGit\hyperion-zvector\hsccmd.c', 00H
$SG210359 DB	'HHC02244%s %1d:%04X device initialization failed', 0aH, 00H
	ORG $+2
$SG210423 DB	'E', 00H
	ORG $+2
$SG210360 DB	'devinit_cmd', 00H
$SG210431 DB	'W', 00H
	ORG $+2
$SG210361 DB	'C:\papa\MyGit\hyperion-zvector\hsccmd.c', 00H
$SG210363 DB	'HHC02245%s %1d:%04X device initialized', 0aH, 00H
$SG210364 DB	'devinit_cmd', 00H
$SG210446 DB	'E', 00H
	ORG $+2
$SG210365 DB	'C:\papa\MyGit\hyperion-zvector\hsccmd.c', 00H
$SG210366 DB	'C:\papa\MyGit\hyperion-zvector\hsccmd.c:7612', 00H
	ORG $+3
$SG210424 DB	'HHC02202%s Missing argument(s). Type ''help %s'' for ass'
	DB	'istance.', 0aH, 00H
$SG210425 DB	'savecore_cmd', 00H
	ORG $+3
$SG210426 DB	'C:\papa\MyGit\hyperion-zvector\hsccmd.c', 00H
$SG210427 DB	'C:\papa\MyGit\hyperion-zvector\hsccmd.c:7660', 00H
	ORG $+3
$SG210429 DB	'C:\papa\MyGit\hyperion-zvector\hsccmd.c:7664', 00H
	ORG $+3
$SG210430 DB	'online', 00H
	ORG $+1
$SG210432 DB	'HHC00816%s Processor %s%02X: processor is not %s', 0aH, 00H
	ORG $+2
$SG210443 DB	'%llx%c', 00H
	ORG $+1
$SG210456 DB	'E', 00H
	ORG $+2
$SG210433 DB	'savecore_cmd', 00H
	ORG $+3
$SG210434 DB	'C:\papa\MyGit\hyperion-zvector\hsccmd.c', 00H
$SG210444 DB	'C:\papa\MyGit\hyperion-zvector\hsccmd.c:7694', 00H
	ORG $+3
$SG210445 DB	': invalid starting address', 00H
	ORG $+1
$SG210466 DB	'E', 00H
	ORG $+2
$SG210447 DB	'HHC02205%s Invalid argument %s%s', 0aH, 00H
	ORG $+2
$SG210463 DB	'%llx%c', 00H
	ORG $+1
$SG210472 DB	'E', 00H
	ORG $+2
$SG210448 DB	'savecore_cmd', 00H
	ORG $+3
$SG210449 DB	'C:\papa\MyGit\hyperion-zvector\hsccmd.c', 00H
$SG210455 DB	'C:\papa\MyGit\hyperion-zvector\hsccmd.c:7719', 00H
	ORG $+3
$SG210457 DB	'HHC02246%s Savecore: no modified storage found', 0aH, 00H
$SG210458 DB	'savecore_cmd', 00H
	ORG $+3
$SG210459 DB	'C:\papa\MyGit\hyperion-zvector\hsccmd.c', 00H
$SG210464 DB	'C:\papa\MyGit\hyperion-zvector\hsccmd.c:7728', 00H
	ORG $+3
$SG210465 DB	': invalid ending address', 00H
	ORG $+3
$SG210480 DB	'W', 00H
	ORG $+2
$SG210467 DB	'HHC02205%s Invalid argument %s%s', 0aH, 00H
	ORG $+2
$SG210486 DB	'I', 00H
	ORG $+2
$SG210468 DB	'savecore_cmd', 00H
	ORG $+3
$SG210469 DB	'C:\papa\MyGit\hyperion-zvector\hsccmd.c', 00H
$SG210471 DB	'C:\papa\MyGit\hyperion-zvector\hsccmd.c:7738', 00H
	ORG $+3
$SG210473 DB	'HHC02247%s Operation rejected: CPU not stopped', 0aH, 00H
$SG210474 DB	'savecore_cmd', 00H
	ORG $+3
$SG210475 DB	'C:\papa\MyGit\hyperion-zvector\hsccmd.c', 00H
$SG210477 DB	'C:\papa\MyGit\hyperion-zvector\hsccmd.c:7747', 00H
	ORG $+3
$SG210478 DB	'%16.16llX-%16.16llX', 00H
$SG210493 DB	'E', 00H
	ORG $+2
$SG210479 DB	': invalid range', 00H
$SG210481 DB	'HHC02205%s Invalid argument %s%s', 0aH, 00H
	ORG $+2
$SG210492 DB	'open()', 00H
	ORG $+1
$SG210500 DB	'E', 00H
	ORG $+2
$SG210482 DB	'savecore_cmd', 00H
	ORG $+3
$SG210483 DB	'C:\papa\MyGit\hyperion-zvector\hsccmd.c', 00H
$SG210484 DB	'%llX', 00H
	ORG $+3
$SG210485 DB	'%llX', 00H
	ORG $+3
$SG210487 DB	'HHC02248%s Saving locations %s-%s to file %s', 0aH, 00H
	ORG $+2
$SG210488 DB	'savecore_cmd', 00H
	ORG $+3
$SG210489 DB	'C:\papa\MyGit\hyperion-zvector\hsccmd.c', 00H
$SG210491 DB	'C:\papa\MyGit\hyperion-zvector\hsccmd.c:7768', 00H
	ORG $+3
$SG210494 DB	'HHC02219%s Error in function %s: %s', 0aH, 00H
	ORG $+3
$SG210495 DB	'savecore_cmd', 00H
	ORG $+3
$SG210496 DB	'C:\papa\MyGit\hyperion-zvector\hsccmd.c', 00H
$SG210499 DB	'write()', 00H
$SG210501 DB	'HHC02219%s Error in function %s: %s', 0aH, 00H
	ORG $+3
$SG210502 DB	'savecore_cmd', 00H
	ORG $+3
$SG210503 DB	'C:\papa\MyGit\hyperion-zvector\hsccmd.c', 00H
$SG210505 DB	'incomplete', 00H
	ORG $+1
$SG210507 DB	'E', 00H
	ORG $+2
$SG210506 DB	'write()', 00H
$SG210508 DB	'HHC02219%s Error in function %s: %s', 0aH, 00H
	ORG $+3
$SG210509 DB	'savecore_cmd', 00H
	ORG $+3
$SG210510 DB	'C:\papa\MyGit\hyperion-zvector\hsccmd.c', 00H
$SG210512 DB	'saved', 00H
	ORG $+2
$SG210513 DB	'I', 00H
	ORG $+2
$SG210518 DB	'I', 00H
	ORG $+2
$SG210514 DB	'HHC02317%s %s bytes %s so far...', 0aH, 00H
	ORG $+2
$SG210529 DB	'CUU', 00H
$SG210515 DB	'savecore_cmd', 00H
	ORG $+3
$SG210516 DB	'C:\papa\MyGit\hyperion-zvector\hsccmd.c', 00H
$SG210517 DB	'C:\papa\MyGit\hyperion-zvector\hsccmd.c:7823', 00H
	ORG $+3
$SG210519 DB	'HHC02249%s Operation complete', 0aH, 00H
	ORG $+1
$SG210520 DB	'savecore_cmd', 00H
	ORG $+3
$SG210521 DB	'C:\papa\MyGit\hyperion-zvector\hsccmd.c', 00H
$SG210526 DB	'ARCHMODE', 00H
	ORG $+3
$SG210527 DB	'BDATE', 00H
	ORG $+2
$SG210528 DB	'BTIME', 00H
	ORG $+2
$SG210530 DB	'CCUU', 00H
	ORG $+3
$SG210531 DB	'CSS', 00H
$SG210532 DB	'CPUMODEL', 00H
	ORG $+3
$SG210533 DB	'CPUID', 00H
	ORG $+2
$SG210539 DB	'HOSTOS', 00H
	ORG $+1
$SG210573 DB	'E', 00H
	ORG $+2
$SG210534 DB	'CPUSERIAL', 00H
	ORG $+2
$SG210578 DB	'E', 00H
	ORG $+2
$SG210535 DB	'CPUVERID', 00H
	ORG $+3
$SG210536 DB	'DATE', 00H
	ORG $+3
$SG210537 DB	'DEVN', 00H
	ORG $+3
$SG210584 DB	'E', 00H
	ORG $+2
$SG210538 DB	'HOSTNAME', 00H
	ORG $+3
$SG210604 DB	'E', 00H
	ORG $+2
$SG210540 DB	'HOSTOSREL', 00H
	ORG $+2
$SG210610 DB	'E', 00H
	ORG $+2
$SG210541 DB	'HOSTOSVER', 00H
	ORG $+2
$SG210615 DB	'E', 00H
	ORG $+2
$SG210542 DB	'HOSTARCH', 00H
	ORG $+3
$SG210737 DB	'ON', 00H
	ORG $+1
$SG210543 DB	'HOSTNUMCPUS', 00H
$SG210738 DB	'OFF', 00H
$SG210544 DB	'LPARNUM', 00H
$SG210545 DB	'LPARNAME', 00H
	ORG $+3
$SG210742 DB	'online', 00H
	ORG $+1
$SG210743 DB	'W', 00H
	ORG $+2
$SG210546 DB	'MODPATH', 00H
$SG210547 DB	'MODNAME', 00H
$SG210548 DB	'SYSLEVEL', 00H
	ORG $+3
$SG210759 DB	'E', 00H
	ORG $+2
$SG210549 DB	'SYSTYPE', 00H
$SG210550 DB	'SYSNAME', 00H
$SG210551 DB	'SYSPLEX', 00H
$SG210552 DB	'TIME', 00H
	ORG $+3
$SG210553 DB	'VERSION', 00H
$SG210572 DB	'strdup()', 00H
	ORG $+3
$SG210768 DB	'E', 00H
	ORG $+2
$SG210574 DB	'HHC02219%s Error in function %s: %s', 0aH, 00H
	ORG $+3
$SG210575 DB	'defsym_cmd', 00H
	ORG $+1
$SG210778 DB	'E', 00H
	ORG $+2
$SG210576 DB	'C:\papa\MyGit\hyperion-zvector\hsccmd.c', 00H
$SG210579 DB	'HHC02197%s Symbol name %s is reserved', 0aH, 00H
	ORG $+1
$SG210580 DB	'defsym_cmd', 00H
	ORG $+1
$SG210785 DB	'I', 00H
	ORG $+2
$SG210581 DB	'C:\papa\MyGit\hyperion-zvector\hsccmd.c', 00H
$SG210583 DB	': DEFSYM requires a single value (use quotes if necessar'
	DB	'y)', 00H
	ORG $+1
$SG210802 DB	'E', 00H
	ORG $+2
$SG210585 DB	'HHC02205%s Invalid argument %s%s', 0aH, 00H
	ORG $+2
$SG210810 DB	'E', 00H
	ORG $+2
$SG210586 DB	'defsym_cmd', 00H
	ORG $+1
$SG210817 DB	'E', 00H
	ORG $+2
$SG210587 DB	'C:\papa\MyGit\hyperion-zvector\hsccmd.c', 00H
$SG210605 DB	'HHC02202%s Missing argument(s). Type ''help %s'' for ass'
	DB	'istance.', 0aH, 00H
$SG210606 DB	'delsym_cmd', 00H
	ORG $+1
$SG210827 DB	'I', 00H
	ORG $+2
$SG210607 DB	'C:\papa\MyGit\hyperion-zvector\hsccmd.c', 00H
$SG210609 DB	'strdup()', 00H
	ORG $+3
$SG210807 DB	'%hu%c', 00H
	ORG $+2
$SG210840 DB	'I', 00H
	ORG $+2
$SG210611 DB	'HHC02219%s Error in function %s: %s', 0aH, 00H
	ORG $+3
$SG210612 DB	'delsym_cmd', 00H
	ORG $+1
$SG210847 DB	'E', 00H
	ORG $+2
$SG210613 DB	'C:\papa\MyGit\hyperion-zvector\hsccmd.c', 00H
$SG210616 DB	'HHC02197%s Symbol name %s is reserved', 0aH, 00H
	ORG $+1
$SG210617 DB	'delsym_cmd', 00H
	ORG $+1
$SG210876 DB	'I', 00H
	ORG $+2
$SG210618 DB	'C:\papa\MyGit\hyperion-zvector\hsccmd.c', 00H
$SG210739 DB	'C:\papa\MyGit\hyperion-zvector\hsccmd.c:8059', 00H
	ORG $+3
$SG210741 DB	'C:\papa\MyGit\hyperion-zvector\hsccmd.c:8063', 00H
	ORG $+3
$SG210744 DB	'HHC00816%s Processor %s%02X: processor is not %s', 0aH, 00H
	ORG $+2
$SG210880 DB	'I', 00H
	ORG $+2
$SG210745 DB	'OnOffCommand', 00H
	ORG $+3
$SG210746 DB	'C:\papa\MyGit\hyperion-zvector\hsccmd.c', 00H
$SG210748 DB	'C:\papa\MyGit\hyperion-zvector\hsccmd.c:8076', 00H
	ORG $+3
$SG210758 DB	'C:\papa\MyGit\hyperion-zvector\hsccmd.c:8109', 00H
	ORG $+3
$SG210760 DB	'HHC02226%s No dasd devices found', 0aH, 00H
	ORG $+2
$SG210886 DB	'off', 00H
$SG210761 DB	'OnOffCommand', 00H
	ORG $+3
$SG210762 DB	'C:\papa\MyGit\hyperion-zvector\hsccmd.c', 00H
$SG210763 DB	'%s for all dasd devices', 00H
$SG210766 DB	'C:\papa\MyGit\hyperion-zvector\hsccmd.c:8120', 00H
	ORG $+3
$SG210769 DB	'HHC02205%s Invalid argument %s%s', 0aH, 00H
	ORG $+2
$SG210887 DB	'OFF', 00H
$SG210770 DB	'OnOffCommand', 00H
	ORG $+3
$SG210771 DB	'C:\papa\MyGit\hyperion-zvector\hsccmd.c', 00H
$SG210773 DB	'C:\papa\MyGit\hyperion-zvector\hsccmd.c:8136', 00H
	ORG $+3
$SG210775 DB	'C:\papa\MyGit\hyperion-zvector\hsccmd.c:8143', 00H
	ORG $+3
$SG210777 DB	'C:\papa\MyGit\hyperion-zvector\hsccmd.c:8151', 00H
	ORG $+3
$SG210779 DB	'HHC02225%s %1d:%04X is not a dasd device', 0aH, 00H
	ORG $+2
$SG210888 DB	'I', 00H
	ORG $+2
$SG210780 DB	'OnOffCommand', 00H
	ORG $+3
$SG210781 DB	'C:\papa\MyGit\hyperion-zvector\hsccmd.c', 00H
$SG210782 DB	'%s for device %1d:%04X', 00H
	ORG $+1
$SG210783 DB	'C:\papa\MyGit\hyperion-zvector\hsccmd.c:8164', 00H
	ORG $+3
$SG210784 DB	'CKD key trace', 00H
	ORG $+2
$SG210786 DB	'HHC02204%s %-14s set to %s', 0aH, 00H
$SG210898 DB	'E', 00H
	ORG $+2
$SG210787 DB	'OnOffCommand', 00H
	ORG $+3
$SG210788 DB	'C:\papa\MyGit\hyperion-zvector\hsccmd.c', 00H
$SG210797 DB	'%s for all CPUs', 00H
$SG210800 DB	'C:\papa\MyGit\hyperion-zvector\hsccmd.c:8201', 00H
	ORG $+3
$SG210803 DB	'HHC02205%s Invalid argument %s%s', 0aH, 00H
	ORG $+2
$SG210902 DB	'I', 00H
	ORG $+2
$SG210804 DB	'OnOffCommand', 00H
	ORG $+3
$SG210805 DB	'C:\papa\MyGit\hyperion-zvector\hsccmd.c', 00H
$SG210808 DB	'C:\papa\MyGit\hyperion-zvector\hsccmd.c:8219', 00H
	ORG $+3
$SG210811 DB	'HHC02205%s Invalid argument %s%s', 0aH, 00H
	ORG $+2
$SG210908 DB	'E', 00H
	ORG $+2
$SG210812 DB	'OnOffCommand', 00H
	ORG $+3
$SG210813 DB	'C:\papa\MyGit\hyperion-zvector\hsccmd.c', 00H
$SG210816 DB	'C:\papa\MyGit\hyperion-zvector\hsccmd.c:8232', 00H
	ORG $+3
$SG210818 DB	'HHC02254%s CPU %02X is not online', 0aH, 00H
	ORG $+1
$SG210913 DB	'E', 00H
	ORG $+2
$SG210819 DB	'OnOffCommand', 00H
	ORG $+3
$SG210820 DB	'C:\papa\MyGit\hyperion-zvector\hsccmd.c', 00H
$SG210824 DB	'%s for %s%02X', 00H
	ORG $+2
$SG210825 DB	'C:\papa\MyGit\hyperion-zvector\hsccmd.c:8268', 00H
	ORG $+3
$SG210826 DB	'CPU tracing', 00H
$SG210957 DB	'on', 00H
	ORG $+1
$SG210828 DB	'HHC02204%s %-14s set to %s', 0aH, 00H
$SG210960 DB	'off', 00H
$SG210829 DB	'OnOffCommand', 00H
	ORG $+3
$SG210830 DB	'C:\papa\MyGit\hyperion-zvector\hsccmd.c', 00H
$SG210834 DB	'C:\papa\MyGit\hyperion-zvector\hsccmd.c:8290', 00H
	ORG $+3
$SG210837 DB	'ORB trace', 00H
	ORG $+2
$SG210962 DB	'E', 00H
	ORG $+2
$SG210838 DB	'CCW trace', 00H
	ORG $+2
$SG210967 DB	'E', 00H
	ORG $+2
$SG210839 DB	'%s for %1d:%04X', 00H
$SG210841 DB	'HHC02204%s %-14s set to %s', 0aH, 00H
$SG210973 DB	'ON', 00H
	ORG $+1
$SG210842 DB	'OnOffCommand', 00H
	ORG $+3
$SG210843 DB	'C:\papa\MyGit\hyperion-zvector\hsccmd.c', 00H
$SG210844 DB	'C:\papa\MyGit\hyperion-zvector\hsccmd.c:8308', 00H
	ORG $+3
$SG210845 DB	'C:\papa\MyGit\hyperion-zvector\hsccmd.c:8312', 00H
	ORG $+3
$SG210848 DB	'HHC02205%s Invalid argument %s%s', 0aH, 00H
	ORG $+2
$SG210974 DB	'OFF', 00H
$SG210849 DB	'OnOffCommand', 00H
	ORG $+3
$SG210850 DB	'C:\papa\MyGit\hyperion-zvector\hsccmd.c', 00H
$SG210875 DB	'Not set', 00H
$SG210877 DB	'HHC02203%s %-14s: %s', 0aH, 00H
	ORG $+2
$SG210878 DB	'cmdsep_cmd', 00H
	ORG $+1
$SG210975 DB	'I', 00H
	ORG $+2
$SG210879 DB	'C:\papa\MyGit\hyperion-zvector\hsccmd.c', 00H
$SG210881 DB	'HHC02203%s %-14s: %s', 0aH, 00H
	ORG $+2
$SG210882 DB	'cmdsep_cmd', 00H
	ORG $+1
$SG210979 DB	'ON', 00H
	ORG $+1
$SG210883 DB	'C:\papa\MyGit\hyperion-zvector\hsccmd.c', 00H
$SG210889 DB	'HHC02204%s %-14s set to %s', 0aH, 00H
$SG210980 DB	'OFF', 00H
$SG210890 DB	'cmdsep_cmd', 00H
	ORG $+1
$SG210981 DB	'I', 00H
	ORG $+2
$SG210891 DB	'C:\papa\MyGit\hyperion-zvector\hsccmd.c', 00H
$SG210897 DB	'; ''.'', ''-'', and ''!'' are invalid characters', 00H
	ORG $+1
$SG211004 DB	'on', 00H
	ORG $+1
$SG210899 DB	'HHC02205%s Invalid argument %s%s', 0aH, 00H
	ORG $+2
$SG211007 DB	'off', 00H
$SG210900 DB	'cmdsep_cmd', 00H
	ORG $+1
$SG211009 DB	'E', 00H
	ORG $+2
$SG210901 DB	'C:\papa\MyGit\hyperion-zvector\hsccmd.c', 00H
$SG210903 DB	'HHC02204%s %-14s set to %s', 0aH, 00H
$SG211014 DB	'E', 00H
	ORG $+2
$SG210904 DB	'cmdsep_cmd', 00H
	ORG $+1
$SG211020 DB	'ON', 00H
	ORG $+1
$SG210905 DB	'C:\papa\MyGit\hyperion-zvector\hsccmd.c', 00H
$SG210911 DB	'C:\papa\MyGit\hyperion-zvector\hsccmd.c', 00H
$SG210909 DB	'HHC02299%s Invalid command usage. Type ''help %s'' for a'
	DB	'ssistance.', 0aH, 00H
	ORG $+2
$SG211021 DB	'OFF', 00H
$SG210910 DB	'cmdsep_cmd', 00H
	ORG $+1
$SG211022 DB	'I', 00H
	ORG $+2
$SG210912 DB	', must be a single character', 00H
	ORG $+3
$SG210914 DB	'HHC02205%s Invalid argument %s%s', 0aH, 00H
	ORG $+2
$SG211026 DB	'ON', 00H
	ORG $+1
$SG210915 DB	'cmdsep_cmd', 00H
	ORG $+1
$SG211027 DB	'OFF', 00H
$SG210916 DB	'C:\papa\MyGit\hyperion-zvector\hsccmd.c', 00H
$SG210963 DB	'HHC02205%s Invalid argument %s%s', 0aH, 00H
	ORG $+2
$SG211028 DB	'I', 00H
	ORG $+2
$SG210964 DB	'scpecho_cmd', 00H
$SG211052 DB	'E', 00H
	ORG $+2
$SG210965 DB	'C:\papa\MyGit\hyperion-zvector\hsccmd.c', 00H
$SG210970 DB	'C:\papa\MyGit\hyperion-zvector\hsccmd.c', 00H
$SG210968 DB	'HHC02299%s Invalid command usage. Type ''help %s'' for a'
	DB	'ssistance.', 0aH, 00H
	ORG $+2
$SG211056 DB	'I', 00H
	ORG $+2
$SG210969 DB	'scpecho_cmd', 00H
$SG211061 DB	'I', 00H
	ORG $+2
$SG210976 DB	'HHC02203%s %-14s: %s', 0aH, 00H
	ORG $+2
$SG210977 DB	'scpecho_cmd', 00H
$SG211085 DB	'E', 00H
	ORG $+2
$SG210978 DB	'C:\papa\MyGit\hyperion-zvector\hsccmd.c', 00H
$SG210982 DB	'HHC02204%s %-14s set to %s', 0aH, 00H
$SG211089 DB	'I', 00H
	ORG $+2
$SG210983 DB	'scpecho_cmd', 00H
$SG211094 DB	'I', 00H
	ORG $+2
$SG210984 DB	'C:\papa\MyGit\hyperion-zvector\hsccmd.c', 00H
$SG211010 DB	'HHC02205%s Invalid argument %s%s', 0aH, 00H
	ORG $+2
$SG211117 DB	'ALL', 00H
$SG211011 DB	'scpimply_cmd', 00H
	ORG $+3
$SG211012 DB	'C:\papa\MyGit\hyperion-zvector\hsccmd.c', 00H
$SG211015 DB	'HHC02299%s Invalid command usage. Type ''help %s'' for a'
	DB	'ssistance.', 0aH, 00H
	ORG $+2
$SG211118 DB	'E', 00H
	ORG $+2
$SG211016 DB	'scpimply_cmd', 00H
	ORG $+3
$SG211017 DB	'C:\papa\MyGit\hyperion-zvector\hsccmd.c', 00H
$SG211023 DB	'HHC02203%s %-14s: %s', 0aH, 00H
	ORG $+2
$SG211024 DB	'scpimply_cmd', 00H
	ORG $+3
$SG211025 DB	'C:\papa\MyGit\hyperion-zvector\hsccmd.c', 00H
$SG211029 DB	'HHC02204%s %-14s set to %s', 0aH, 00H
$SG211138 DB	'E', 00H
	ORG $+2
$SG211030 DB	'scpimply_cmd', 00H
	ORG $+3
$SG211031 DB	'C:\papa\MyGit\hyperion-zvector\hsccmd.c', 00H
$SG211053 DB	'HHC01525%s HDL: usage: %s <module>', 0aH, 00H
$SG211158 DB	'E', 00H
	ORG $+2
$SG211054 DB	'ldmod_cmd', 00H
	ORG $+2
$SG211179 DB	'E', 00H
	ORG $+2
$SG211055 DB	'C:\papa\MyGit\hyperion-zvector\hsccmd.c', 00H
$SG211057 DB	'HHC01526%s HDL: loading module %s...', 0aH, 00H
	ORG $+2
$SG211058 DB	'ldmod_cmd', 00H
	ORG $+2
$SG211185 DB	'I', 00H
	ORG $+2
$SG211059 DB	'C:\papa\MyGit\hyperion-zvector\hsccmd.c', 00H
$SG211062 DB	'HHC01527%s HDL: module %s loaded', 0aH, 00H
	ORG $+2
$SG211190 DB	'I', 00H
	ORG $+2
$SG211063 DB	'ldmod_cmd', 00H
	ORG $+2
$SG211216 DB	'evm', 00H
$SG211064 DB	'C:\papa\MyGit\hyperion-zvector\hsccmd.c', 00H
$SG211086 DB	'HHC01525%s HDL: usage: %s <module>', 0aH, 00H
$SG211219 DB	'W', 00H
	ORG $+2
$SG211087 DB	'rmmod_cmd', 00H
	ORG $+2
$SG211225 DB	'no', 00H
	ORG $+1
$SG211088 DB	'C:\papa\MyGit\hyperion-zvector\hsccmd.c', 00H
$SG211090 DB	'HHC01528%s HDL: unloading module %s...', 0aH, 00H
$SG211091 DB	'rmmod_cmd', 00H
	ORG $+2
$SG211228 DB	'I', 00H
	ORG $+2
$SG211092 DB	'C:\papa\MyGit\hyperion-zvector\hsccmd.c', 00H
$SG211095 DB	'HHC01529%s HDL: module %s unloaded', 0aH, 00H
$SG211234 DB	'yes', 00H
$SG211096 DB	'rmmod_cmd', 00H
	ORG $+2
$SG211238 DB	'%s', 00H
	ORG $+1
$SG211097 DB	'C:\papa\MyGit\hyperion-zvector\hsccmd.c', 00H
$SG211121 DB	'C:\papa\MyGit\hyperion-zvector\hsccmd.c', 00H
$SG211119 DB	'HHC02299%s Invalid command usage. Type ''help %s'' for a'
	DB	'ssistance.', 0aH, 00H
	ORG $+2
$SG211243 DB	'%s', 00H
	ORG $+1
$SG211120 DB	'lsmod_cmd', 00H
	ORG $+6
$SG211141 DB	'C:\papa\MyGit\hyperion-zvector\hsccmd.c', 00H
$SG211139 DB	'HHC02299%s Invalid command usage. Type ''help %s'' for a'
	DB	'ssistance.', 0aH, 00H
	ORG $+2
$SG211246 DB	'notrap', 00H
	ORG $+1
$SG211248 DB	'%s', 00H
	ORG $+1
$SG211140 DB	'lsdep_cmd', 00H
	ORG $+6
$SG211159 DB	'HHC02299%s Invalid command usage. Type ''help %s'' for a'
	DB	'ssistance.', 0aH, 00H
	ORG $+2
$SG211249 DB	'E', 00H
	ORG $+2
$SG211160 DB	'lsequ_cmd', 00H
	ORG $+2
$SG211254 DB	'I', 00H
	ORG $+2
$SG211161 DB	'C:\papa\MyGit\hyperion-zvector\hsccmd.c', 00H
$SG211180 DB	'HHC01530%s HDL: incorrect syntax. Enter "help %s" for as'
	DB	'sistance', 0aH, 00H
	ORG $+2
$SG211264 DB	'W', 00H
	ORG $+2
$SG211181 DB	'modpath_cmd', 00H
$SG211269 DB	'I', 00H
	ORG $+2
$SG211182 DB	'C:\papa\MyGit\hyperion-zvector\hsccmd.c', 00H
$SG211186 DB	'HHC02203%s %-14s: %s', 0aH, 00H
	ORG $+2
$SG211187 DB	'modpath_cmd', 00H
$SG211291 DB	'E', 00H
	ORG $+2
$SG211188 DB	'C:\papa\MyGit\hyperion-zvector\hsccmd.c', 00H
$SG211191 DB	'HHC02204%s %-14s set to %s', 0aH, 00H
$SG211299 DB	'E', 00H
	ORG $+2
$SG211192 DB	'modpath_cmd', 00H
$SG211420 DB	'I', 00H
	ORG $+2
$SG211193 DB	'C:\papa\MyGit\hyperion-zvector\hsccmd.c', 00H
$SG211217 DB	'ecps:vm', 00H
$SG211218 DB	'; use ECPSVM instead', 00H
	ORG $+3
$SG211220 DB	'HHC02256%s Command ''%s'' is deprecated%s', 0aH, 00H
	ORG $+3
$SG211260 DB	'level', 00H
	ORG $+2
$SG211296 DB	'%s%c%s', 00H
	ORG $+1
$SG211425 DB	'I', 00H
	ORG $+2
$SG211221 DB	'ecpsvm_cmd', 00H
	ORG $+1
$SG211430 DB	'I', 00H
	ORG $+2
$SG211222 DB	'C:\papa\MyGit\hyperion-zvector\hsccmd.c', 00H
$SG211227 DB	'disabled', 00H
	ORG $+3
$SG211435 DB	'I', 00H
	ORG $+2
$SG211229 DB	'HHC02204%s %-14s set to %s', 0aH, 00H
$SG211440 DB	'I', 00H
	ORG $+2
$SG211230 DB	'ecpsvm_cmd', 00H
	ORG $+1
$SG211445 DB	'I', 00H
	ORG $+2
$SG211231 DB	'C:\papa\MyGit\hyperion-zvector\hsccmd.c', 00H
$SG211237 DB	'enabled, trap support enabled', 00H
	ORG $+2
$SG211241 DB	'trap', 00H
	ORG $+3
$SG211242 DB	'enabled, trap support enabled', 00H
	ORG $+2
$SG211247 DB	'enabled, trap support disabled', 00H
	ORG $+1
$SG211250 DB	'HHC01721%s Unknown ECPS:VM subcommand %s', 0aH, 00H
	ORG $+2
$SG211450 DB	'I', 00H
	ORG $+2
$SG211251 DB	'ecpsvm_cmd', 00H
	ORG $+1
$SG211455 DB	'I', 00H
	ORG $+2
$SG211252 DB	'C:\papa\MyGit\hyperion-zvector\hsccmd.c', 00H
$SG211255 DB	'HHC02204%s %-14s set to %s', 0aH, 00H
$SG211460 DB	'I', 00H
	ORG $+2
$SG211256 DB	'ecpsvm_cmd', 00H
	ORG $+1
$SG211465 DB	'I', 00H
	ORG $+2
$SG211257 DB	'C:\papa\MyGit\hyperion-zvector\hsccmd.c', 00H
$SG211263 DB	'%d%c', 00H
	ORG $+3
$SG211267 DB	'C:\papa\MyGit\hyperion-zvector\hsccmd.c', 00H
$SG211265 DB	'HHC01723%s Invalid ECPS:VM level value : %s. Default of '
	DB	'20 used', 0aH, 00H
	ORG $+3
$SG211470 DB	'I', 00H
	ORG $+2
$SG211266 DB	'ecpsvm_cmd', 00H
	ORG $+1
$SG211475 DB	'I', 00H
	ORG $+2
$SG211268 DB	'enabled: level %d', 00H
	ORG $+2
$SG211480 DB	'I', 00H
	ORG $+2
$SG211270 DB	'HHC02204%s %-14s set to %s', 0aH, 00H
$SG211485 DB	'I', 00H
	ORG $+2
$SG211271 DB	'ecpsvm_cmd', 00H
	ORG $+1
$SG211490 DB	'I', 00H
	ORG $+2
$SG211272 DB	'C:\papa\MyGit\hyperion-zvector\hsccmd.c', 00H
$SG211294 DB	'C:\papa\MyGit\hyperion-zvector\hsccmd.c', 00H
$SG211292 DB	'HHC02299%s Invalid command usage. Type ''help %s'' for a'
	DB	'ssistance.', 0aH, 00H
	ORG $+2
$SG211495 DB	'I', 00H
	ORG $+2
$SG211293 DB	'herclogo_cmd', 00H
	ORG $+3
$SG211298 DB	'fopen()', 00H
$SG211300 DB	'HHC01430%s Error in function %s: %s', 0aH, 00H
	ORG $+3
$SG211301 DB	'herclogo_cmd', 00H
	ORG $+3
$SG211302 DB	'C:\papa\MyGit\hyperion-zvector\hsccmd.c', 00H
$SG211419 DB	'(unsigned short) ......', 00H
$SG211421 DB	'HHC02257%s %s%7d', 0aH, 00H
	ORG $+2
$SG211500 DB	'I', 00H
	ORG $+2
$SG211422 DB	'sizeof_cmd', 00H
	ORG $+1
$SG211505 DB	'I', 00H
	ORG $+2
$SG211423 DB	'C:\papa\MyGit\hyperion-zvector\hsccmd.c', 00H
$SG211424 DB	'(void*) ...............', 00H
$SG211426 DB	'HHC02257%s %s%7d', 0aH, 00H
	ORG $+2
$SG211510 DB	'I', 00H
	ORG $+2
$SG211427 DB	'sizeof_cmd', 00H
	ORG $+1
$SG211515 DB	'I', 00H
	ORG $+2
$SG211428 DB	'C:\papa\MyGit\hyperion-zvector\hsccmd.c', 00H
$SG211429 DB	'(unsigned int) ........', 00H
$SG211431 DB	'HHC02257%s %s%7d', 0aH, 00H
	ORG $+2
$SG211520 DB	'I', 00H
	ORG $+2
$SG211432 DB	'sizeof_cmd', 00H
	ORG $+1
$SG211525 DB	'I', 00H
	ORG $+2
$SG211433 DB	'C:\papa\MyGit\hyperion-zvector\hsccmd.c', 00H
$SG211434 DB	'(long) ................', 00H
$SG211436 DB	'HHC02257%s %s%7d', 0aH, 00H
	ORG $+2
$SG211530 DB	'I', 00H
	ORG $+2
$SG211437 DB	'sizeof_cmd', 00H
	ORG $+1
$SG211535 DB	'I', 00H
	ORG $+2
$SG211438 DB	'C:\papa\MyGit\hyperion-zvector\hsccmd.c', 00H
$SG211439 DB	'(long long) ...........', 00H
$SG211441 DB	'HHC02257%s %s%7d', 0aH, 00H
	ORG $+2
$SG211540 DB	'I', 00H
	ORG $+2
$SG211442 DB	'sizeof_cmd', 00H
	ORG $+1
$SG211545 DB	'I', 00H
	ORG $+2
$SG211443 DB	'C:\papa\MyGit\hyperion-zvector\hsccmd.c', 00H
$SG211444 DB	'(size_t) ..............', 00H
$SG211446 DB	'HHC02257%s %s%7d', 0aH, 00H
	ORG $+2
$SG211551 DB	'I', 00H
	ORG $+2
$SG211447 DB	'sizeof_cmd', 00H
	ORG $+1
$SG211557 DB	'I', 00H
	ORG $+2
$SG211448 DB	'C:\papa\MyGit\hyperion-zvector\hsccmd.c', 00H
$SG211449 DB	'(off_t) ...............', 00H
$SG211451 DB	'HHC02257%s %s%7d', 0aH, 00H
	ORG $+2
$SG211585 DB	'W', 00H
	ORG $+2
$SG211452 DB	'sizeof_cmd', 00H
	ORG $+1
$SG211593 DB	'E', 00H
	ORG $+2
$SG211453 DB	'C:\papa\MyGit\hyperion-zvector\hsccmd.c', 00H
$SG211454 DB	'FILENAME_MAX ..........', 00H
$SG211456 DB	'HHC02257%s %s%7d', 0aH, 00H
	ORG $+2
$SG211599 DB	'E', 00H
	ORG $+2
$SG211457 DB	'sizeof_cmd', 00H
	ORG $+1
$SG211607 DB	'E', 00H
	ORG $+2
$SG211458 DB	'C:\papa\MyGit\hyperion-zvector\hsccmd.c', 00H
$SG211459 DB	'PATH_MAX ..............', 00H
$SG211461 DB	'HHC02257%s %s%7d', 0aH, 00H
	ORG $+2
$SG211612 DB	'W', 00H
	ORG $+2
$SG211462 DB	'sizeof_cmd', 00H
	ORG $+1
$SG211618 DB	'E', 00H
	ORG $+2
$SG211463 DB	'C:\papa\MyGit\hyperion-zvector\hsccmd.c', 00H
$SG211464 DB	'SYSBLK ................', 00H
$SG211466 DB	'HHC02257%s %s%7d', 0aH, 00H
	ORG $+2
$SG211626 DB	'I', 00H
	ORG $+2
$SG211467 DB	'sizeof_cmd', 00H
	ORG $+1
$SG211631 DB	'I', 00H
	ORG $+2
$SG211468 DB	'C:\papa\MyGit\hyperion-zvector\hsccmd.c', 00H
$SG211469 DB	'REGS ..................', 00H
$SG211471 DB	'HHC02257%s %s%7d', 0aH, 00H
	ORG $+2
$SG211654 DB	'E', 00H
	ORG $+2
$SG211472 DB	'sizeof_cmd', 00H
	ORG $+1
$SG211696 DB	'E', 00H
	ORG $+2
$SG211473 DB	'C:\papa\MyGit\hyperion-zvector\hsccmd.c', 00H
$SG211474 DB	'REGS (copy len) .......', 00H
$SG211476 DB	'HHC02257%s %s%7d', 0aH, 00H
	ORG $+2
$SG211664 DB	'-TERSE', 00H
	ORG $+1
$SG211712 DB	'I', 00H
	ORG $+2
$SG211477 DB	'sizeof_cmd', 00H
	ORG $+1
$SG211722 DB	'I', 00H
	ORG $+2
$SG211478 DB	'C:\papa\MyGit\hyperion-zvector\hsccmd.c', 00H
$SG211479 DB	'PSW ...................', 00H
$SG211481 DB	'HHC02257%s %s%7d', 0aH, 00H
	ORG $+2
$SG211669 DB	'+TERSE', 00H
	ORG $+1
$SG211735 DB	'I', 00H
	ORG $+2
$SG211482 DB	'sizeof_cmd', 00H
	ORG $+1
$SG211769 DB	'E', 00H
	ORG $+2
$SG211483 DB	'C:\papa\MyGit\hyperion-zvector\hsccmd.c', 00H
$SG211484 DB	'DEVBLK ................', 00H
$SG211486 DB	'HHC02257%s %s%7d', 0aH, 00H
	ORG $+2
$SG211675 DB	'+DEBUG', 00H
	ORG $+1
$SG211776 DB	'ALL', 00H
$SG211487 DB	'sizeof_cmd', 00H
	ORG $+1
$SG211781 DB	'E', 00H
	ORG $+2
$SG211488 DB	'C:\papa\MyGit\hyperion-zvector\hsccmd.c', 00H
$SG211489 DB	'TLB entry .............', 00H
$SG211491 DB	'HHC02257%s %s%7d', 0aH, 00H
	ORG $+2
$SG211682 DB	'-DEBUG', 00H
	ORG $+1
$SG211815 DB	'E', 00H
	ORG $+2
$SG211492 DB	'sizeof_cmd', 00H
	ORG $+1
$SG211823 DB	'I', 00H
	ORG $+2
$SG211493 DB	'C:\papa\MyGit\hyperion-zvector\hsccmd.c', 00H
$SG211494 DB	'TLB table .............', 00H
$SG211496 DB	'HHC02257%s %s%7d', 0aH, 00H
	ORG $+2
$SG211703 DB	' terse', 00H
	ORG $+1
$SG211845 DB	'E', 00H
	ORG $+2
$SG211497 DB	'sizeof_cmd', 00H
	ORG $+1
$SG211849 DB	'I', 00H
	ORG $+2
$SG211498 DB	'C:\papa\MyGit\hyperion-zvector\hsccmd.c', 00H
$SG211499 DB	'CPU_BITMAP ............', 00H
$SG211501 DB	'HHC02257%s %s%7d', 0aH, 00H
	ORG $+2
$SG211706 DB	' debug', 00H
	ORG $+1
$SG211879 DB	'E', 00H
	ORG $+2
$SG211502 DB	'sizeof_cmd', 00H
	ORG $+1
$SG211886 DB	'I', 00H
	ORG $+2
$SG211503 DB	'C:\papa\MyGit\hyperion-zvector\hsccmd.c', 00H
$SG211504 DB	'FD_SETSIZE ............', 00H
$SG211506 DB	'HHC02257%s %s%7d', 0aH, 00H
	ORG $+2
$SG211785 DB	'SYSBLK', 00H
	ORG $+1
$SG211895 DB	'I', 00H
	ORG $+2
$SG211507 DB	'sizeof_cmd', 00H
	ORG $+1
$SG211900 DB	'I', 00H
	ORG $+2
$SG211508 DB	'C:\papa\MyGit\hyperion-zvector\hsccmd.c', 00H
$SG211509 DB	'TID ...................', 00H
$SG211511 DB	'HHC02257%s %s%7d', 0aH, 00H
	ORG $+2
$SG211788 DB	'%s%02X', 00H
	ORG $+1
$SG211912 DB	'I', 00H
	ORG $+2
$SG211512 DB	'sizeof_cmd', 00H
	ORG $+1
$SG211926 DB	'I', 00H
	ORG $+2
$SG211513 DB	'C:\papa\MyGit\hyperion-zvector\hsccmd.c', 00H
$SG211514 DB	'STFL_IBM_LAST_BIT .....', 00H
$SG211516 DB	'HHC02257%s %s%7d', 0aH, 00H
	ORG $+2
$SG211790 DB	'SYSBLK', 00H
	ORG $+1
$SG211983 DB	'E', 00H
	ORG $+2
$SG211517 DB	'sizeof_cmd', 00H
	ORG $+1
$SG211987 DB	'I', 00H
	ORG $+2
$SG211518 DB	'C:\papa\MyGit\hyperion-zvector\hsccmd.c', 00H
$SG211519 DB	'STFL_IBM_BY_SIZE ......', 00H
$SG211521 DB	'HHC02257%s %s%7d', 0aH, 00H
	ORG $+2
$SG211793 DB	'%s%02X', 00H
	ORG $+1
$SG211993 DB	'I', 00H
	ORG $+2
$SG211522 DB	'sizeof_cmd', 00H
	ORG $+1
$SG212009 DB	'I', 00H
	ORG $+2
$SG211523 DB	'C:\papa\MyGit\hyperion-zvector\hsccmd.c', 00H
$SG211524 DB	'STFL_IBM_DW_SIZE ......', 00H
$SG211526 DB	'HHC02257%s %s%7d', 0aH, 00H
	ORG $+2
$SG211819 DB	'PF%02d', 00H
	ORG $+1
$SG212013 DB	'I', 00H
	ORG $+2
$SG211527 DB	'sizeof_cmd', 00H
	ORG $+1
$SG212046 DB	'E', 00H
	ORG $+2
$SG211528 DB	'C:\papa\MyGit\hyperion-zvector\hsccmd.c', 00H
$SG211529 DB	'STFL_HERC_FIRST_BIT ...', 00H
$SG211531 DB	'HHC02257%s %s%7d', 0aH, 00H
	ORG $+2
$SG212055 DB	'I', 00H
	ORG $+2
$SG211532 DB	'sizeof_cmd', 00H
	ORG $+1
$SG212064 DB	'I', 00H
	ORG $+2
$SG211533 DB	'C:\papa\MyGit\hyperion-zvector\hsccmd.c', 00H
$SG211534 DB	'STFL_HERC_LAST_BIT ....', 00H
$SG211536 DB	'HHC02257%s %s%7d', 0aH, 00H
	ORG $+2
$SG212097 DB	'ALL', 00H
$SG211537 DB	'sizeof_cmd', 00H
	ORG $+1
$SG212118 DB	'E', 00H
	ORG $+2
$SG211538 DB	'C:\papa\MyGit\hyperion-zvector\hsccmd.c', 00H
$SG211539 DB	'STFL_HERC_BY_SIZE .....', 00H
$SG211541 DB	'HHC02257%s %s%7d', 0aH, 00H
	ORG $+2
$SG212126 DB	'ALL', 00H
$SG211542 DB	'sizeof_cmd', 00H
	ORG $+1
$SG212127 DB	'I', 00H
	ORG $+2
$SG211543 DB	'C:\papa\MyGit\hyperion-zvector\hsccmd.c', 00H
$SG211544 DB	'STFL_HERC_DW_SIZE .....', 00H
$SG211546 DB	'HHC02257%s %s%7d', 0aH, 00H
	ORG $+2
$SG212134 DB	'I', 00H
	ORG $+2
$SG211547 DB	'sizeof_cmd', 00H
	ORG $+1
$SG212152 DB	'I', 00H
	ORG $+2
$SG211548 DB	'C:\papa\MyGit\hyperion-zvector\hsccmd.c', 00H
$SG211549 DB	'TIDPAT ................ %8.8x', 00H
	ORG $+2
$SG211552 DB	'HHC00001%s %s%s', 0aH, 00H
	ORG $+3
$SG211668 DB	'TERSE', 00H
	ORG $+2
$SG212138 DB	'DEBUG ', 00H
	ORG $+5
$SG211553 DB	'sizeof_cmd', 00H
	ORG $+5
$SG211554 DB	'C:\papa\MyGit\hyperion-zvector\hsccmd.c', 00H
$SG211555 DB	'SCN_TIDPAT ............ %x', 00H
	ORG $+5
$SG211558 DB	'HHC00001%s %s%s', 0aH, 00H
	ORG $+7
$SG211559 DB	'sizeof_cmd', 00H
	ORG $+5
$SG211560 DB	'C:\papa\MyGit\hyperion-zvector\hsccmd.c', 00H
$SG211588 DB	'C:\papa\MyGit\hyperion-zvector\hsccmd.c', 00H
$SG211586 DB	'HHC02323%s This build of Hercules has only partial TCP k'
	DB	'eepalive support', 0aH, 00H
	ORG $+6
$SG211587 DB	'conkpalv_cmd', 00H
	ORG $+3
$SG211594 DB	'HHC02205%s Invalid argument %s%s', 0aH, 00H
	ORG $+6
$SG211595 DB	'conkpalv_cmd', 00H
	ORG $+3
$SG211596 DB	'C:\papa\MyGit\hyperion-zvector\hsccmd.c', 00H
$SG211598 DB	'socket()', 00H
	ORG $+7
$SG211600 DB	'HHC02219%s Error in function %s: %s', 0aH, 00H
	ORG $+3
$SG211601 DB	'conkpalv_cmd', 00H
	ORG $+3
$SG211602 DB	'C:\papa\MyGit\hyperion-zvector\hsccmd.c', 00H
$SG211606 DB	'set_socket_keepalive()', 00H
	ORG $+1
$SG211608 DB	'HHC02219%s Error in function %s: %s', 0aH, 00H
	ORG $+3
$SG211609 DB	'conkpalv_cmd', 00H
	ORG $+3
$SG211610 DB	'C:\papa\MyGit\hyperion-zvector\hsccmd.c', 00H
$SG211613 DB	'HHC02320%s Not all TCP keepalive settings honored', 0aH, 00H
	ORG $+5
$SG211614 DB	'conkpalv_cmd', 00H
	ORG $+3
$SG211615 DB	'C:\papa\MyGit\hyperion-zvector\hsccmd.c', 00H
$SG211617 DB	'get_socket_keepalive()', 00H
	ORG $+1
$SG211619 DB	'HHC02219%s Error in function %s: %s', 0aH, 00H
	ORG $+3
$SG211620 DB	'conkpalv_cmd', 00H
	ORG $+3
$SG211621 DB	'C:\papa\MyGit\hyperion-zvector\hsccmd.c', 00H
$SG211622 DB	'(%d,%d,%d)', 00H
	ORG $+5
$SG211625 DB	'conkpalv', 00H
	ORG $+7
$SG211627 DB	'HHC02204%s %-14s set to %s', 0aH, 00H
	ORG $+4
$SG211628 DB	'conkpalv_cmd', 00H
	ORG $+3
$SG211629 DB	'C:\papa\MyGit\hyperion-zvector\hsccmd.c', 00H
$SG211630 DB	'conkpalv', 00H
	ORG $+7
$SG211632 DB	'HHC02203%s %-14s: %s', 0aH, 00H
	ORG $+2
$SG211633 DB	'conkpalv_cmd', 00H
	ORG $+3
$SG211634 DB	'C:\papa\MyGit\hyperion-zvector\hsccmd.c', 00H
$SG211655 DB	'HHC17000%s Missing or invalid argument(s)', 0aH, 00H
	ORG $+5
$SG211656 DB	'msglevel_cmd', 00H
	ORG $+3
$SG211657 DB	'C:\papa\MyGit\hyperion-zvector\hsccmd.c', 00H
$SG211662 DB	'VERBOSE', 00H
$SG211663 DB	'+VERBOSE', 00H
	ORG $+7
$SG211670 DB	'-VERBOSE', 00H
	ORG $+3
$SG211674 DB	'DEBUG', 00H
	ORG $+6
$SG211676 DB	'-NODEBUG', 00H
	ORG $+7
$SG211680 DB	'NODEBUG', 00H
$SG211681 DB	'+NODEBUG', 00H
	ORG $+7
$SG211686 DB	'EMSGLOC', 00H
$SG211687 DB	'+EMSGLOC', 00H
	ORG $+7
$SG211688 DB	'-NOEMSGLOC', 00H
	ORG $+5
$SG211692 DB	'NOEMSGLOC', 00H
	ORG $+6
$SG211693 DB	'+NOEMSGLOC', 00H
	ORG $+5
$SG211694 DB	'-EMSGLOC', 00H
	ORG $+7
$SG211697 DB	'HHC02205%s Invalid argument %s%s', 0aH, 00H
	ORG $+6
$SG211698 DB	'msglevel_cmd', 00H
	ORG $+3
$SG211699 DB	'C:\papa\MyGit\hyperion-zvector\hsccmd.c', 00H
$SG211702 DB	' verbose', 00H
	ORG $+7
$SG211707 DB	' nodebug', 00H
	ORG $+7
$SG211710 DB	' emsgloc', 00H
	ORG $+7
$SG211711 DB	' noemsgloc', 00H
	ORG $+5
$SG211713 DB	'HHC17012%s MSGLEVEL = %s', 0aH, 00H
	ORG $+6
$SG211714 DB	'msglevel_cmd', 00H
	ORG $+3
$SG211715 DB	'C:\papa\MyGit\hyperion-zvector\hsccmd.c', 00H
$SG211723 DB	'HHC17004%s %-6s: CPUID  = %16.16llX', 0aH, 00H
	ORG $+3
$SG211724 DB	'qcpuid_cpuid', 00H
	ORG $+3
$SG211725 DB	'C:\papa\MyGit\hyperion-zvector\hsccmd.c', 00H
$SG211736 DB	'HHC17005%s %-6s: CPC SI = %4.4X.%s.%s.%s.%s', 0aH, 00H
	ORG $+3
$SG211737 DB	'qcpuid_cpcsi', 00H
	ORG $+3
$SG211738 DB	'C:\papa\MyGit\hyperion-zvector\hsccmd.c', 00H
$SG211770 DB	'HHC02299%s Invalid command usage. Type ''help %s'' for a'
	DB	'ssistance.', 0aH, 00H
	ORG $+6
$SG211771 DB	'qcpuid_cmd', 00H
	ORG $+5
$SG211772 DB	'C:\papa\MyGit\hyperion-zvector\hsccmd.c', 00H
$SG211779 DB	'%x%c', 00H
	ORG $+3
$SG211780 DB	': target processor is invalid', 00H
	ORG $+2
$SG211782 DB	'HHC02205%s Invalid argument %s%s', 0aH, 00H
	ORG $+6
$SG211783 DB	'qcpuid_cmd', 00H
	ORG $+5
$SG211784 DB	'C:\papa\MyGit\hyperion-zvector\hsccmd.c', 00H
$SG211816 DB	'HHC17000%s Missing or invalid argument(s)', 0aH, 00H
	ORG $+5
$SG211817 DB	'qpfkeys_cmd', 00H
	ORG $+4
$SG211818 DB	'C:\papa\MyGit\hyperion-zvector\hsccmd.c', 00H
$SG211822 DB	'UNDEFINED', 00H
	ORG $+6
$SG211824 DB	'HHC17199%s %.4s %s', 0aH, 00H
	ORG $+4
$SG211825 DB	'qpfkeys_cmd', 00H
	ORG $+4
$SG211826 DB	'C:\papa\MyGit\hyperion-zvector\hsccmd.c', 00H
$SG211846 DB	'HHC17000%s Missing or invalid argument(s)', 0aH, 00H
	ORG $+5
$SG211847 DB	'qpid_cmd', 00H
	ORG $+7
$SG211848 DB	'C:\papa\MyGit\hyperion-zvector\hsccmd.c', 00H
$SG211850 DB	'HHC17013%s Process ID = %d', 0aH, 00H
	ORG $+4
$SG211851 DB	'qpid_cmd', 00H
	ORG $+7
$SG211852 DB	'C:\papa\MyGit\hyperion-zvector\hsccmd.c', 00H
$SG211880 DB	'HHC17000%s Missing or invalid argument(s)', 0aH, 00H
	ORG $+5
$SG211881 DB	'qports_cmd', 00H
	ORG $+5
$SG211882 DB	'C:\papa\MyGit\hyperion-zvector\hsccmd.c', 00H
$SG211883 DB	'on port %s with %s', 00H
	ORG $+1
$SG211885 DB	'HTTP', 00H
	ORG $+7
$SG211887 DB	'HHC17001%s %s server %slistening %s', 0aH, 00H
	ORG $+3
$SG211888 DB	'qports_cmd', 00H
	ORG $+5
$SG211889 DB	'C:\papa\MyGit\hyperion-zvector\hsccmd.c', 00H
$SG211892 DB	'on port %u', 00H
	ORG $+5
$SG211894 DB	'Shared DASD', 00H
	ORG $+4
$SG211896 DB	'HHC17001%s %s server %slistening %s', 0aH, 00H
	ORG $+3
$SG211897 DB	'qports_cmd', 00H
	ORG $+5
$SG211898 DB	'C:\papa\MyGit\hyperion-zvector\hsccmd.c', 00H
$SG211899 DB	'Shared DASD', 00H
	ORG $+4
$SG211901 DB	'HHC17002%s %s server inactive', 0aH, 00H
	ORG $+1
$SG211902 DB	'qports_cmd', 00H
	ORG $+5
$SG211903 DB	'C:\papa\MyGit\hyperion-zvector\hsccmd.c', 00H
$SG211906 DB	'on port %s', 00H
	ORG $+5
$SG211909 DB	'for host %s on port %s', 00H
	ORG $+1
$SG211911 DB	'Console', 00H
$SG211913 DB	'HHC17001%s %s server %slistening %s', 0aH, 00H
	ORG $+3
$SG211914 DB	'qports_cmd', 00H
	ORG $+5
$SG211915 DB	'C:\papa\MyGit\hyperion-zvector\hsccmd.c', 00H
$SG211919 DB	'on port %s', 00H
	ORG $+5
$SG211922 DB	'for host %s on port %s', 00H
	ORG $+1
$SG211923 DB	'NOT ', 00H
	ORG $+3
$SG211925 DB	'SYSG console', 00H
	ORG $+3
$SG211927 DB	'HHC17001%s %s server %slistening %s', 0aH, 00H
	ORG $+3
$SG211928 DB	'qports_cmd', 00H
	ORG $+5
$SG211929 DB	'C:\papa\MyGit\hyperion-zvector\hsccmd.c', 00H
$SG211984 DB	'HHC17000%s Missing or invalid argument(s)', 0aH, 00H
	ORG $+5
$SG211985 DB	'qproc_cmd', 00H
	ORG $+6
$SG211986 DB	'C:\papa\MyGit\hyperion-zvector\hsccmd.c', 00H
$SG211990 DB	'C:\papa\MyGit\hyperion-zvector\hsccmd.c', 00H
$SG211988 DB	'HHC17007%s NumCPU = %2.2d, NumVEC = %2.2d, ReservedCPU ='
	DB	' %2.2d, MaxCPU = %2.2d', 0aH, 00H
$SG211989 DB	'qproc_cmd', 00H
	ORG $+6
$SG211994 DB	'HHC17008%s Avgproc  %2.2d %3.3d%%; MIPS[%4d.%2.2d]; SIOS'
	DB	'[%6d]%s', 0aH, 00H
	ORG $+7
$SG211995 DB	'qproc_cmd', 00H
	ORG $+6
$SG211996 DB	'C:\papa\MyGit\hyperion-zvector\hsccmd.c', 00H
$SG212003 DB	'%llu/', 00H
	ORG $+2
$SG212007 DB	'%llu/', 00H
	ORG $+2
$SG212008 DB	' - Host Kernel(%s%02d:%02d:%02d.%03d) User(%s%02d:%02d:%'
	DB	'02d.%03d)', 00H
	ORG $+6
$SG212012 DB	'C:\papa\MyGit\hyperion-zvector\hsccmd.c', 00H
$SG212010 DB	'HHC17009%s PROC %s%2.2X %c %3.3d%%; MIPS[%4d.%2.2d]; SIO'
	DB	'S[%6d]%s', 0aH, 00H
	ORG $+6
$SG212011 DB	'qproc_cmd', 00H
	ORG $+6
$SG212014 DB	'HHC17010%s  - Started        : Stopping        * Stopped'
	DB	0aH, 00H
	ORG $+6
$SG212015 DB	'qproc_cmd', 00H
	ORG $+6
$SG212016 DB	'C:\papa\MyGit\hyperion-zvector\hsccmd.c', 00H
$SG212039 DB	'MAINSIZE', 00H
	ORG $+7
$SG212043 DB	'XPNDSIZE', 00H
	ORG $+7
$SG212044 DB	'EXPANDED', 00H
	ORG $+7
$SG212045 DB	'; either ''mainsize'' or ''xpndsize'' is valid', 00H
	ORG $+5
$SG212047 DB	'HHC02205%s Invalid argument %s%s', 0aH, 00H
	ORG $+6
$SG212048 DB	'qstor_cmd', 00H
	ORG $+6
$SG212049 DB	'C:\papa\MyGit\hyperion-zvector\hsccmd.c', 00H
$SG212052 DB	'not ', 00H
	ORG $+3
$SG212053 DB	'main', 00H
	ORG $+3
$SG212054 DB	'MAIN', 00H
	ORG $+3
$SG212056 DB	'HHC17003%s %-8s storage is %s (%ssize); storage is %sloc'
	DB	'ked', 0aH, 00H
	ORG $+3
$SG212057 DB	'qstor_cmd', 00H
	ORG $+6
$SG212058 DB	'C:\papa\MyGit\hyperion-zvector\hsccmd.c', 00H
$SG212061 DB	'not ', 00H
	ORG $+3
$SG212062 DB	'xpnd', 00H
	ORG $+3
$SG212063 DB	'EXPANDED', 00H
	ORG $+7
$SG212065 DB	'HHC17003%s %-8s storage is %s (%ssize); storage is %sloc'
	DB	'ked', 0aH, 00H
	ORG $+3
$SG212066 DB	'qstor_cmd', 00H
	ORG $+6
$SG212067 DB	'C:\papa\MyGit\hyperion-zvector\hsccmd.c', 00H
$SG212102 DB	'OPERATOR', 00H
	ORG $+7
$SG212105 DB	'MAINTENANCE', 00H
	ORG $+4
$SG212108 DB	'PROGRAMMER', 00H
	ORG $+5
$SG212111 DB	'CONFIGURATION', 00H
	ORG $+2
$SG212114 DB	'DEVELOPER', 00H
	ORG $+2
$SG212117 DB	'DEBUG', 00H
	ORG $+6
$SG212119 DB	'HHC01605%s Invalid cmdlevel option: %s', 0aH, 00H
$SG212120 DB	'cmdlvl_cmd', 00H
	ORG $+5
$SG212121 DB	'C:\papa\MyGit\hyperion-zvector\hsccmd.c', 00H
$SG212128 DB	'HHC01606%s cmdlevel[%2.2X] is %s', 0aH, 00H
	ORG $+6
$SG212129 DB	'cmdlvl_cmd', 00H
	ORG $+5
$SG212130 DB	'C:\papa\MyGit\hyperion-zvector\hsccmd.c', 00H
$SG212133 DB	'NONE', 00H
	ORG $+3
$SG212135 DB	'HHC01606%s cmdlevel[%2.2X] is %s', 0aH, 00H
	ORG $+6
$SG212136 DB	'cmdlvl_cmd', 00H
	ORG $+5
$SG212137 DB	'C:\papa\MyGit\hyperion-zvector\hsccmd.c', 00H
$SG212140 DB	'DEVELOPER ', 00H
	ORG $+5
$SG212142 DB	'CONFIGURATION ', 00H
	ORG $+1
$SG212144 DB	'PROGRAMMER ', 00H
	ORG $+4
$SG212146 DB	'MAINTENANCE ', 00H
	ORG $+3
$SG212148 DB	'OPERATOR ', 00H
	ORG $+6
$SG212150 DB	'%s%s%s%s%s%s', 00H
	ORG $+3
$SG212153 DB	'HHC01606%s cmdlevel[%2.2X] is %s', 0aH, 00H
	ORG $+6
$SG212154 DB	'cmdlvl_cmd', 00H
	ORG $+5
$SG212155 DB	'C:\papa\MyGit\hyperion-zvector\hsccmd.c', 00H
_DATA	ENDS
;	COMDAT xdata
xdata	SEGMENT
$unwind$z900_get_4K_storage_key DD 010901H
	DD	04209H
xdata	ENDS
;	COMDAT xdata
xdata	SEGMENT
$unwind$z900__or_storage_key DD 011201H
	DD	08212H
xdata	ENDS
;	COMDAT xdata
xdata	SEGMENT
$unwind$z900__and_storage_key DD 011201H
	DD	08212H
xdata	ENDS
;	COMDAT xdata
xdata	SEGMENT
$unwind$z900__get_storage_key DD 010d01H
	DD	0620dH
xdata	ENDS
;	COMDAT xdata
xdata	SEGMENT
$unwind$s390__or_storage_key DD 011201H
	DD	08212H
xdata	ENDS
;	COMDAT xdata
xdata	SEGMENT
$unwind$s390__and_storage_key DD 011201H
	DD	08212H
xdata	ENDS
;	COMDAT xdata
xdata	SEGMENT
$unwind$s390__get_storage_key DD 010d01H
	DD	0620dH
xdata	ENDS
;	COMDAT xdata
xdata	SEGMENT
$unwind$s370__or_storage_key DD 011201H
	DD	08212H
xdata	ENDS
;	COMDAT xdata
xdata	SEGMENT
$unwind$s370__and_storage_key DD 011201H
	DD	08212H
xdata	ENDS
;	COMDAT xdata
xdata	SEGMENT
$unwind$s370__get_storage_key DD 010d01H
	DD	0620dH
xdata	ENDS
;	COMDAT xdata
xdata	SEGMENT
$unwind$_get_storekey_ptr DD 010d01H
	DD	0220dH
xdata	ENDS
voltbl	SEGMENT
_volmd	DD	0ffffffffH
	DDSymXIndex: 	FLAT:cmdlvl_cmd
	DD	01fH
	DD	0632H
_volmd	DD	0ffffffffH
	DDSymXIndex: 	FLAT:qports_cmd
	DD	01fH
	DD	0545H
_volmd	DD	0ffffffffH
	DDSymXIndex: 	FLAT:qpfkeys_cmd
	DD	01cH
	DD	0155H
_volmd	DD	0ffffffffH
	DDSymXIndex: 	FLAT:qcpuid_cmd
	DD	01fH
	DD	0424H
_volmd	DD	0ffffffffH
	DDSymXIndex: 	FLAT:qcpuid_cpcsi
	DD	01bH
	DD	014dH
_volmd	DD	0ffffffffH
	DDSymXIndex: 	FLAT:msglevel_cmd
	DD	020H
	DD	0555H
_volmd	DD	0ffffffffH
	DDSymXIndex: 	FLAT:conkpalv_cmd
	DD	01fH
	DD	0578H
_volmd	DD	0ffffffffH
	DDSymXIndex: 	FLAT:herclogo_cmd
	DD	020H
	DD	0270H
_volmd	DD	0ffffffffH
	DDSymXIndex: 	FLAT:ecpsvm_cmd
	DD	01fH
	DD	0712H
_volmd	DD	0ffffffffH
	DDSymXIndex: 	FLAT:OnOffCommand
	DD	01fH
	DD	0f09H
_volmd	DD	0ffffffffH
	DDSymXIndex: 	FLAT:savecore_cmd
	DD	01fH
	DD	0bceH
_volmd	DD	0ffffffffH
	DDSymXIndex: 	FLAT:mt_cmd
	DD	020H
	DD	01befH
_volmd	DD	0ffffffffH
	DDSymXIndex: 	FLAT:ds_cmd
	DD	025H
	DD	019bH
_volmd	DD	0ffffffffH
	DDSymXIndex: 	FLAT:ostailor_cmd
	DD	020H
	DD	0cb9H
_volmd	DD	0ffffffffH
	DDSymXIndex: 	FLAT:pgmtrace_cmd
	DD	01fH
	DD	05acH
_volmd	DD	0ffffffffH
	DDSymXIndex: 	FLAT:qd_cmd
	DD	01fH
	DD	010ccH
_volmd	DD	0ffffffffH
	DDSymXIndex: 	FLAT:devlist_cmd
	DD	020H
	DD	0a21H
_volmd	DD	0ffffffffH
	DDSymXIndex: 	FLAT:cpuidfmt_cmd
	DD	01fH
	DD	086fH
_volmd	DD	0ffffffffH
	DDSymXIndex: 	FLAT:cpuserial_cmd
	DD	01fH
	DD	0415H
_volmd	DD	0ffffffffH
	DDSymXIndex: 	FLAT:cpumodel_cmd
	DD	01fH
	DD	0439H
_volmd	DD	0ffffffffH
	DDSymXIndex: 	FLAT:cpuverid_cmd
	DD	01fH
	DD	04e8H
_volmd	DD	0ffffffffH
	DDSymXIndex: 	FLAT:lparnum_cmd
	DD	01fH
	DD	06bfH
_volmd	DD	0ffffffffH
	DDSymXIndex: 	FLAT:shrdport_cmd
	DD	020H
	DD	0434H
_volmd	DD	0ffffffffH
	DDSymXIndex: 	FLAT:stsi_model_cmd
	DD	01fH
	DD	07a8H
_volmd	DD	0ffffffffH
	DDSymXIndex: 	FLAT:shcmdopt_cmd
	DD	01fH
	DD	0466H
_volmd	DD	0ffffffffH
	DDSymXIndex: 	FLAT:diag8_cmd
	DD	01fH
	DD	04d6H
_volmd	DD	0ffffffffH
	DDSymXIndex: 	FLAT:panrate_cmd
	DD	01fH
	DD	04b7H
_volmd	DD	0ffffffffH
	DDSymXIndex: 	FLAT:panopt_cmd
	DD	01fH
	DD	0b28H
_volmd	DD	0ffffffffH
	DDSymXIndex: 	FLAT:toddrag_cmd
	DD	01fH
	DD	03a8H
_volmd	DD	0ffffffffH
	DDSymXIndex: 	FLAT:sysgport_cmd
	DD	01fH
	DD	087fH
_volmd	DD	0ffffffffH
	DDSymXIndex: 	FLAT:cnslport_cmd
	DD	01fH
	DD	0718H
_volmd	DD	0ffffffffH
	DDSymXIndex: 	FLAT:maxcpu_cmd
	DD	01fH
	DD	043cH
_volmd	DD	0ffffffffH
	DDSymXIndex: 	FLAT:numcpu_cmd
	DD	01fH
	DD	04d1H
_volmd	DD	0ffffffffH
	DDSymXIndex: 	FLAT:xpndsize_cmd
	DD	01fH
	DD	0628H
_volmd	DD	0ffffffffH
	DDSymXIndex: 	FLAT:mainsize_cmd
	DD	01fH
	DD	075aH
_volmd	DD	0ffffffffH
	DDSymXIndex: 	FLAT:qstor_cmd
	DD	01fH
	DD	0348H
_volmd	DD	0ffffffffH
	DDSymXIndex: 	FLAT:sclproot_cmd
	DD	01fH
	DD	02b3H
_volmd	DD	0ffffffffH
	DDSymXIndex: 	FLAT:tt32_cmd
	DD	01fH
	DD	08ffH
_volmd	DD	0ffffffffH
	DDSymXIndex: 	FLAT:qeth_cmd
	DD	01fH
	DD	014d1H
_volmd	DD	0ffffffffH
	DDSymXIndex: 	FLAT:ptp_cmd
	DD	01fH
	DD	0979H
_volmd	DD	0ffffffffH
	DDSymXIndex: 	FLAT:ctc_cmd
	DD	020H
	DD	0f01H
_volmd	DD	0ffffffffH
	DDSymXIndex: 	FLAT:scsimount_cmd
	DD	01fH
	DD	0a44H
_volmd	DD	0ffffffffH
	DDSymXIndex: 	FLAT:automount_cmd
	DD	020H
	DD	0151bH
_volmd	DD	0ffffffffH
	DDSymXIndex: 	FLAT:add_tamdir
	DD	01cH
	DD	03a5H
_volmd	DD	0ffffffffH
	DDSymXIndex: 	FLAT:check_define_default_automount_dir
	DD	011H
	DD	0293H
_volmd	DD	0ffffffffH
	DDSymXIndex: 	FLAT:iodelay_cmd
	DD	01fH
	DD	0329H
_volmd	DD	0ffffffffH
	DDSymXIndex: 	FLAT:fcb_cmd
	DD	01fH
	DD	02eeH
_volmd	DD	0ffffffffH
	DDSymXIndex: 	FLAT:cctape_cmd
	DD	01fH
	DD	02dfH
_volmd	DD	0ffffffffH
	DDSymXIndex: 	FLAT:logopt_cmd
	DD	01fH
	DD	04efH
_volmd	DD	0ffffffffH
	DDSymXIndex: 	FLAT:message_cmd
	DD	024H
	DD	0270H
_volmd	DD	0ffffffffH
	DDSymXIndex: 	FLAT:maxrates_cmd
	DD	01fH
	DD	0a5fH
_volmd	DD	0ffffffffH
	DDSymXIndex: 	FLAT:$test_cmd
	DD	01fH
	DD	0ac7H
_volmd	DD	0ffffffffH
	DDSymXIndex: 	FLAT:test_thread
	DD	016H
	DD	0f9H
_volmd	DD	0ffffffffH
	DDSymXIndex: 	FLAT:z900_fonoff_cmd
	DD	01bH
	DD	02a0H
_volmd	DD	0ffffffffH
	DDSymXIndex: 	FLAT:s390_fonoff_cmd
	DD	01bH
	DD	02a0H
_volmd	DD	0ffffffffH
	DDSymXIndex: 	FLAT:s370_fonoff_cmd
	DD	01bH
	DD	02a0H
_volmd	DD	0ffffffffH
	DDSymXIndex: 	FLAT:qproc_cmd
	DD	01fH
	DD	09b9H
_volmd	DD	0ffffffffH
	DDSymXIndex: 	FLAT:quitmout_cmd
	DD	020H
	DD	030fH
voltbl	ENDS
xdata	SEGMENT
$unwind$ctime DD 010901H
	DD	04209H
$unwind$difftime DD 010e01H
	DD	0420eH
$unwind$localtime DD 010901H
	DD	04209H
$unwind$time DD	010901H
	DD	04209H
$unwind$DebuggerTrace DD 011801H
	DD	0a218H
$unwind$strabbrev DD 011301H
	DD	04213H
$unwind$strcaseabbrev DD 011301H
	DD	08213H
$unwind$strupper DD 010e01H
	DD	0620eH
$unwind$strnupper DD 011301H
	DD	08213H
$unwind$quit_cmd DD 011201H
	DD	0c212H
$unwind$quitmout_cmd DD 032819H
	DD	0120116H
	DD	0700fH
	DD	imagerel __GSHandlerCheck
	DD	088H
$unwind$devinit_cmd DD 021501H
	DD	0170115H
$unwind$qproc_cmd DD 022719H
	DD	0430115H
	DD	imagerel __GSHandlerCheck
	DD	0200H
$unwind$wakeup_cpu DD 010e01H
	DD	0420eH
$unwind$Interrupt_Lock_Obtained DD 010e01H
	DD	0420eH
$unwind$Obtain_Interrupt_Lock DD 010e01H
	DD	0420eH
$unwind$Release_Interrupt_Lock DD 010e01H
	DD	0420eH
$unwind$are_any_cpus_started_intlock_held DD 010401H
	DD	02204H
$unwind$are_any_cpus_started DD 010401H
	DD	06204H
$unwind$s370_fquest_cmd DD 020701H
	DD	0110107H
$unwind$s370_fonoff_cmd DD 022319H
	DD	01d0111H
	DD	imagerel __GSHandlerCheck
	DD	0d0H
$unwind$s390_fquest_cmd DD 020701H
	DD	0110107H
$unwind$s390_fonoff_cmd DD 022319H
	DD	01d0111H
	DD	imagerel __GSHandlerCheck
	DD	0d0H
$unwind$z900_fquest_cmd DD 020701H
	DD	0110107H
$unwind$z900_fonoff_cmd DD 022319H
	DD	01d0111H
	DD	imagerel __GSHandlerCheck
	DD	0d0H
$unwind$test_thread DD 021b19H
	DD	011010cH
	DD	imagerel __GSHandlerCheck
	DD	070H
$unwind$test_locks_thread DD 010901H
	DD	04209H
$unwind$deadlocks_1 DD 010901H
	DD	06209H
$unwind$deadlocks_2 DD 010901H
	DD	06209H
$unwind$deadlocks_3 DD 010901H
	DD	06209H
$unwind$$test_cmd DD 022719H
	DD	0190115H
	DD	imagerel __GSHandlerCheck
	DD	0b0H
$unwind$devnotfound_msg DD 010e01H
	DD	0c20eH
$unwind$missing_devnum DD 010401H
	DD	08204H
$unwind$maxrates_cmd DD 022719H
	DD	02d0115H
	DD	imagerel __GSHandlerCheck
	DD	0150H
$unwind$message_cmd DD 022c19H
	DD	033011aH
	DD	imagerel __GSHandlerCheck
	DD	0180H
$unwind$msg_cmd DD 011201H
	DD	0c212H
$unwind$quit_thread DD 010901H
	DD	04209H
$unwind$History DD 011201H
	DD	06212H
$unwind$log_cmd DD 011201H
	DD	0c212H
$unwind$logopt_cmd DD 022719H
	DD	0210115H
	DD	imagerel __GSHandlerCheck
	DD	0f0H
$unwind$uptime_cmd DD 021501H
	DD	0190115H
$unwind$version_cmd DD 011201H
	DD	0a212H
$unwind$cctape_cmd DD 022719H
	DD	0330115H
	DD	imagerel __GSHandlerCheck
	DD	0180H
$unwind$fcb_cmd DD 022719H
	DD	0330115H
	DD	imagerel __GSHandlerCheck
	DD	0180H
$unwind$start_cmd DD 021501H
	DD	0170115H
$unwind$g_cmd DD 011201H
	DD	0c212H
$unwind$stop_cmd DD 021501H
	DD	0130115H
$unwind$quiet_cmd DD 011201H
	DD	0e212H
$unwind$iodelay_cmd DD 022719H
	DD	0130115H
	DD	imagerel __GSHandlerCheck
	DD	088H
$unwind$autoinit_cmd DD 011201H
	DD	0e212H
$unwind$check_define_default_automount_dir DD 021919H
	DD	0390107H
	DD	imagerel __GSHandlerCheck
	DD	01b0H
$unwind$add_tamdir DD 032419H
	DD	04c0112H
	DD	0700bH
	DD	imagerel __GSHandlerCheck
	DD	0250H
$unwind$automount_cmd DD 032819H
	DD	0e20116H
	DD	0700fH
	DD	imagerel __GSHandlerCheck
	DD	0700H
$unwind$try_scsi_refresh DD 010901H
	DD	08209H
$unwind$scsimount_cmd DD 022719H
	DD	0670115H
	DD	imagerel __GSHandlerCheck
	DD	0320H
$unwind$cckd_cmd DD 011201H
	DD	0e212H
$unwind$ctc_cmd DD 032819H
	DD	03e0116H
	DD	0700fH
	DD	imagerel __GSHandlerCheck
	DD	01e0H
$unwind$ptp_cmd DD 022719H
	DD	02f0115H
	DD	imagerel __GSHandlerCheck
	DD	0160H
$unwind$qeth_cmd DD 022719H
	DD	03f0115H
	DD	imagerel __GSHandlerCheck
	DD	01e0H
$unwind$tt32_cmd DD 022719H
	DD	0230115H
	DD	imagerel __GSHandlerCheck
	DD	0100H
$unwind$sclproot_cmd DD 022719H
	DD	03d0115H
	DD	imagerel __GSHandlerCheck
	DD	01d0H
$unwind$engines_cmd DD 021501H
	DD	0170115H
$unwind$sysepoch_cmd DD 021501H
	DD	0130115H
$unwind$yroffset_cmd DD 021501H
	DD	0130115H
$unwind$tzoffset_cmd DD 021501H
	DD	0130115H
$unwind$qstor_cmd DD 022719H
	DD	0250115H
	DD	imagerel __GSHandlerCheck
	DD	0110H
$unwind$mainsize_cmd DD 022719H
	DD	0210115H
	DD	imagerel __GSHandlerCheck
	DD	0f0H
$unwind$xpndsize_cmd DD 022719H
	DD	01f0115H
	DD	imagerel __GSHandlerCheck
	DD	0e0H
$unwind$deprecated_cmd DD 010901H
	DD	0c209H
$unwind$hercnice_cmd DD 011201H
	DD	04212H
$unwind$hercprio_cmd DD 011201H
	DD	04212H
$unwind$cpuprio_cmd DD 011201H
	DD	04212H
$unwind$devprio_cmd DD 011201H
	DD	04212H
$unwind$todprio_cmd DD 011201H
	DD	04212H
$unwind$srvprio_cmd DD 011201H
	DD	04212H
$unwind$netdev_cmd DD 021501H
	DD	0110115H
$unwind$numcpu_cmd DD 022719H
	DD	0190115H
	DD	imagerel __GSHandlerCheck
	DD	0b0H
$unwind$maxcpu_cmd DD 022719H
	DD	0170115H
	DD	imagerel __GSHandlerCheck
	DD	0a8H
$unwind$cnslport_cmd DD 022719H
	DD	02b0115H
	DD	imagerel __GSHandlerCheck
	DD	0140H
$unwind$sysgport_cmd DD 022719H
	DD	02d0115H
	DD	imagerel __GSHandlerCheck
	DD	0150H
$unwind$http_cmd DD 011201H
	DD	06212H
$unwind$toddrag_cmd DD 022719H
	DD	0170115H
	DD	imagerel __GSHandlerCheck
	DD	0a8H
$unwind$panopt_cmd DD 022719H
	DD	0530115H
	DD	imagerel __GSHandlerCheck
	DD	0280H
$unwind$panrate_cmd DD 022719H
	DD	0210115H
	DD	imagerel __GSHandlerCheck
	DD	0f0H
$unwind$pantitle_cmd DD 021501H
	DD	0130115H
$unwind$sh_cmd DD 011201H
	DD	0a212H
$unwind$pgmprdos_cmd DD 011201H
	DD	0c212H
$unwind$diag8_cmd DD 022719H
	DD	0190115H
	DD	imagerel __GSHandlerCheck
	DD	0b8H
$unwind$shcmdopt_cmd DD 022719H
	DD	0190115H
	DD	imagerel __GSHandlerCheck
	DD	0b8H
$unwind$legacysenseid_cmd DD 021501H
	DD	0110115H
$unwind$cp_updt_cmd DD 011201H
	DD	0a212H
$unwind$codepage_cmd DD 011201H
	DD	0c212H
$unwind$stsi_model_cmd DD 022719H
	DD	0550115H
	DD	imagerel __GSHandlerCheck
	DD	0290H
$unwind$stsi_plant_cmd DD 021501H
	DD	0150115H
$unwind$stsi_manufacturer_cmd DD 021501H
	DD	0150115H
$unwind$shrdport_cmd DD 032819H
	DD	0140116H
	DD	0700fH
	DD	imagerel __GSHandlerCheck
	DD	090H
$unwind$lparname_cmd DD 021501H
	DD	0110115H
$unwind$lparnum_cmd DD 022719H
	DD	01d0115H
	DD	imagerel __GSHandlerCheck
	DD	0d0H
$unwind$cpuverid_cmd DD 022719H
	DD	0170115H
	DD	imagerel __GSHandlerCheck
	DD	0a0H
$unwind$cpumodel_cmd DD 022719H
	DD	0150115H
	DD	imagerel __GSHandlerCheck
	DD	090H
$unwind$cpuserial_cmd DD 022719H
	DD	0130115H
	DD	imagerel __GSHandlerCheck
	DD	088H
$unwind$cpuidfmt_cmd DD 022719H
	DD	01d0115H
	DD	imagerel __GSHandlerCheck
	DD	0d0H
$unwind$loadparm_cmd DD 021501H
	DD	0110115H
$unwind$SortDevBlkPtrsAscendingByDevnum DD 010e01H
	DD	0220eH
$unwind$is_devclass_name DD 010901H
	DD	06209H
$unwind$devlist_cmd DD 032819H
	DD	01220116H
	DD	0700fH
	DD	imagerel __GSHandlerCheck
	DD	0900H
$unwind$qd_cmd DD 022719H
	DD	0590115H
	DD	imagerel __GSHandlerCheck
	DD	02b0H
$unwind$attach_cmd DD 011201H
	DD	0c212H
$unwind$detach_cmd DD 021501H
	DD	0150115H
$unwind$define_cmd DD 011201H
	DD	0c212H
$unwind$pgmtrace_cmd DD 022719H
	DD	0230115H
	DD	imagerel __GSHandlerCheck
	DD	0100H
$unwind$ostailor_cmd DD 032819H
	DD	0280116H
	DD	0700fH
	DD	imagerel __GSHandlerCheck
	DD	0130H
$unwind$k_cmd DD 011201H
	DD	0a212H
$unwind$ds_cmd DD 022d19H
	DD	020f011bH
	DD	imagerel __GSHandlerCheck
	DD	01060H
$unwind$devtmax_cmd DD 021501H
	DD	0130115H
$unwind$sf_cmd DD 021501H
	DD	01d0115H
$unwind$mounted_tape_reinit_cmd DD 021501H
	DD	0110115H
$unwind$mt_cmd DD 032819H
	DD	0440116H
	DD	0700fH
	DD	imagerel __GSHandlerCheck
	DD	0210H
$unwind$savecore_cmd DD 022719H
	DD	0510115H
	DD	imagerel __GSHandlerCheck
	DD	0270H
$unwind$is_reserved_symbol DD 010901H
	DD	06209H
$unwind$defsym_cmd DD 021501H
	DD	0110115H
$unwind$delsym_cmd DD 011201H
	DD	0e212H
$unwind$fquest_cmd DD 011201H
	DD	06212H
$unwind$fonoff_cmd DD 010e01H
	DD	0620eH
$unwind$OnOffCommand DD 022719H
	DD	0330115H
	DD	imagerel __GSHandlerCheck
	DD	0180H
$unwind$cmdsep_cmd DD 021501H
	DD	0170115H
$unwind$ssd_cmd DD 011201H
	DD	04212H
$unwind$scpecho_cmd DD 021501H
	DD	0110115H
$unwind$scpimply_cmd DD 021501H
	DD	0110115H
$unwind$ldmod_cmd DD 011201H
	DD	0c212H
$unwind$rmmod_cmd DD 011201H
	DD	0c212H
$unwind$lsmod_cmd DD 011201H
	DD	0a212H
$unwind$lsdep_cmd DD 011201H
	DD	0a212H
$unwind$lsequ_cmd DD 011201H
	DD	0a212H
$unwind$modpath_cmd DD 021501H
	DD	0110115H
$unwind$ecpsvm_cmd DD 022719H
	DD	01d0115H
	DD	imagerel __GSHandlerCheck
	DD	0d0H
$unwind$herclogo_cmd DD 032819H
	DD	0760116H
	DD	0700fH
	DD	imagerel __GSHandlerCheck
	DD	03a0H
$unwind$sizeof_cmd DD 011201H
	DD	0a212H
$unwind$conkpalv_cmd DD 022719H
	DD	0190115H
	DD	imagerel __GSHandlerCheck
	DD	0b0H
$unwind$msglevel_cmd DD 032819H
	DD	01a0116H
	DD	0700fH
	DD	imagerel __GSHandlerCheck
	DD	0c0H
$unwind$qcpuid_cpuid DD 010e01H
	DD	0a20eH
$unwind$qcpuid_cpcsi DD 022319H
	DD	0190111H
	DD	imagerel __GSHandlerCheck
	DD	0b0H
$unwind$qcpuid_cmd DD 022719H
	DD	0150115H
	DD	imagerel __GSHandlerCheck
	DD	090H
$unwind$qpfkeys_cmd DD 012119H
	DD	0e212H
	DD	imagerel __GSHandlerCheck
	DD	068H
$unwind$qpid_cmd DD 011201H
	DD	08212H
$unwind$qports_cmd DD 022719H
	DD	01d0115H
	DD	imagerel __GSHandlerCheck
	DD	0d0H
$unwind$cmdlvl_cmd DD 022719H
	DD	02b0115H
	DD	imagerel __GSHandlerCheck
	DD	0140H
xdata	ENDS
;	COMDAT xdata
xdata	SEGMENT
$unwind$sscanf DD 011801H
	DD	06218H
xdata	ENDS
;	COMDAT xdata
xdata	SEGMENT
$unwind$_vsscanf_l DD 011801H
	DD	06218H
xdata	ENDS
;	COMDAT xdata
xdata	SEGMENT
$unwind$sprintf DD 011801H
	DD	06218H
xdata	ENDS
;	COMDAT xdata
xdata	SEGMENT
$unwind$_vsnprintf_s DD 011801H
	DD	06218H
xdata	ENDS
;	COMDAT xdata
xdata	SEGMENT
$unwind$_vsnprintf_s_l DD 011801H
	DD	0a218H
xdata	ENDS
;	COMDAT xdata
xdata	SEGMENT
$unwind$_vsprintf_l DD 011801H
	DD	06218H
xdata	ENDS
;	COMDAT xdata
xdata	SEGMENT
$unwind$_vsnprintf_l DD 011801H
	DD	08218H
xdata	ENDS
; Function compile flags: /Odtp
; File C:\papa\MyGit\hyperion-zvector\hsccmd.c
_TEXT	SEGMENT
option$1 = 80
merged_options$2 = 81
on$3 = 82
i$4 = 84
p$5 = 88
tv183 = 96
tv199 = 100
tv291 = 104
tv215 = 112
tv221 = 120
tv227 = 128
tv233 = 136
tv239 = 144
tv245 = 152
$T6 = 160
tv153 = 168
level$7 = 176
buf$8 = 192
__$ArrayPad$ = 320
argc$ = 352
argv$ = 360
cmdline$ = 368
cmdlvl_cmd PROC

; 9550 : {

$LN51:
  00000	4c 89 44 24 18	 mov	 QWORD PTR [rsp+24], r8
  00005	48 89 54 24 10	 mov	 QWORD PTR [rsp+16], rdx
  0000a	89 4c 24 08	 mov	 DWORD PTR [rsp+8], ecx
  0000e	48 81 ec 58 01
	00 00		 sub	 rsp, 344		; 00000158H
  00015	48 8b 05 00 00
	00 00		 mov	 rax, QWORD PTR __security_cookie
  0001c	48 33 c4	 xor	 rax, rsp
  0001f	48 89 84 24 40
	01 00 00	 mov	 QWORD PTR __$ArrayPad$[rsp], rax
$LN4@cmdlvl_cmd:

; 9551 :     UNREFERENCED( cmdline );

  00027	33 c0		 xor	 eax, eax
  00029	85 c0		 test	 eax, eax
  0002b	75 fa		 jne	 SHORT $LN4@cmdlvl_cmd

; 9552 : 
; 9553 :     if (argc > 1)

  0002d	83 bc 24 60 01
	00 00 01	 cmp	 DWORD PTR argc$[rsp], 1
  00035	0f 8e 9e 02 00
	00		 jle	 $LN8@cmdlvl_cmd

; 9554 :     {
; 9555 :         char*  p;
; 9556 :         int    i;
; 9557 :         char   level[16];
; 9558 :         BYTE   on;
; 9559 :         BYTE   option;
; 9560 :         BYTE   merged_options  = sysblk.sysgroup;

  0003b	48 8b 05 00 00
	00 00		 mov	 rax, QWORD PTR __imp_sysblk
  00042	0f b6 80 2d 11
	00 00		 movzx	 eax, BYTE PTR [rax+4397]
  00049	88 44 24 51	 mov	 BYTE PTR merged_options$2[rsp], al

; 9561 : 
; 9562 :         for (i=1; i < argc; i++)

  0004d	c7 44 24 54 01
	00 00 00	 mov	 DWORD PTR i$4[rsp], 1
  00055	eb 0a		 jmp	 SHORT $LN7@cmdlvl_cmd
$LN5@cmdlvl_cmd:
  00057	8b 44 24 54	 mov	 eax, DWORD PTR i$4[rsp]
  0005b	ff c0		 inc	 eax
  0005d	89 44 24 54	 mov	 DWORD PTR i$4[rsp], eax
$LN7@cmdlvl_cmd:
  00061	8b 84 24 60 01
	00 00		 mov	 eax, DWORD PTR argc$[rsp]
  00068	39 44 24 54	 cmp	 DWORD PTR i$4[rsp], eax
  0006c	0f 8d 55 02 00
	00		 jge	 $LN6@cmdlvl_cmd

; 9563 :         {
; 9564 :             p = argv[i];

  00072	48 63 44 24 54	 movsxd	 rax, DWORD PTR i$4[rsp]
  00077	48 8b 8c 24 68
	01 00 00	 mov	 rcx, QWORD PTR argv$[rsp]
  0007f	48 8b 04 c1	 mov	 rax, QWORD PTR [rcx+rax*8]
  00083	48 89 44 24 58	 mov	 QWORD PTR p$5[rsp], rax

; 9565 : 
; 9566 :            if (p[0] == '-')

  00088	b8 01 00 00 00	 mov	 eax, 1
  0008d	48 6b c0 00	 imul	 rax, rax, 0
  00091	48 8b 4c 24 58	 mov	 rcx, QWORD PTR p$5[rsp]
  00096	0f be 04 01	 movsx	 eax, BYTE PTR [rcx+rax]
  0009a	83 f8 2d	 cmp	 eax, 45			; 0000002dH
  0009d	75 14		 jne	 SHORT $LN9@cmdlvl_cmd

; 9567 :            {
; 9568 :                 on = FALSE;

  0009f	c6 44 24 52 00	 mov	 BYTE PTR on$3[rsp], 0

; 9569 :                 p++;

  000a4	48 8b 44 24 58	 mov	 rax, QWORD PTR p$5[rsp]
  000a9	48 ff c0	 inc	 rax
  000ac	48 89 44 24 58	 mov	 QWORD PTR p$5[rsp], rax

; 9570 :             }

  000b1	eb 30		 jmp	 SHORT $LN10@cmdlvl_cmd
$LN9@cmdlvl_cmd:

; 9571 :             else if (p[0] == '+')

  000b3	b8 01 00 00 00	 mov	 eax, 1
  000b8	48 6b c0 00	 imul	 rax, rax, 0
  000bc	48 8b 4c 24 58	 mov	 rcx, QWORD PTR p$5[rsp]
  000c1	0f be 04 01	 movsx	 eax, BYTE PTR [rcx+rax]
  000c5	83 f8 2b	 cmp	 eax, 43			; 0000002bH
  000c8	75 14		 jne	 SHORT $LN11@cmdlvl_cmd

; 9572 :             {
; 9573 :                 on = TRUE;

  000ca	c6 44 24 52 01	 mov	 BYTE PTR on$3[rsp], 1

; 9574 :                 p++;

  000cf	48 8b 44 24 58	 mov	 rax, QWORD PTR p$5[rsp]
  000d4	48 ff c0	 inc	 rax
  000d7	48 89 44 24 58	 mov	 QWORD PTR p$5[rsp], rax

; 9575 :             }

  000dc	eb 05		 jmp	 SHORT $LN12@cmdlvl_cmd
$LN11@cmdlvl_cmd:

; 9576 :             else
; 9577 :                 on = TRUE;

  000de	c6 44 24 52 01	 mov	 BYTE PTR on$3[rsp], 1
$LN12@cmdlvl_cmd:
$LN10@cmdlvl_cmd:

; 9578 : 
; 9579 :             strupper( level, p );

  000e3	48 8b 54 24 58	 mov	 rdx, QWORD PTR p$5[rsp]
  000e8	48 8d 8c 24 b0
	00 00 00	 lea	 rcx, QWORD PTR level$7[rsp]
  000f0	e8 00 00 00 00	 call	 strupper

; 9580 : 
; 9581 :             if (strabbrev( "ALL", level, 1 ))

  000f5	41 b8 01 00 00
	00		 mov	 r8d, 1
  000fb	48 8d 94 24 b0
	00 00 00	 lea	 rdx, QWORD PTR level$7[rsp]
  00103	48 8d 0d 00 00
	00 00		 lea	 rcx, OFFSET FLAT:$SG212097
  0010a	e8 00 00 00 00	 call	 strabbrev
  0010f	85 c0		 test	 eax, eax
  00111	74 1a		 je	 SHORT $LN13@cmdlvl_cmd

; 9582 :             {
; 9583 :                 if (on)                                      option =  SYSGROUP_SYSALL;

  00113	0f b6 44 24 52	 movzx	 eax, BYTE PTR on$3[rsp]
  00118	85 c0		 test	 eax, eax
  0011a	74 07		 je	 SHORT $LN15@cmdlvl_cmd
  0011c	c6 44 24 50 7f	 mov	 BYTE PTR option$1[rsp], 127 ; 0000007fH
  00121	eb 05		 jmp	 SHORT $LN16@cmdlvl_cmd
$LN15@cmdlvl_cmd:

; 9584 :                 else                                         option = ~SYSGROUP_SYSNONE;

  00123	c6 44 24 50 f7	 mov	 BYTE PTR option$1[rsp], 247 ; 000000f7H
$LN16@cmdlvl_cmd:

; 9585 :             }

  00128	e9 64 01 00 00	 jmp	 $LN14@cmdlvl_cmd
$LN13@cmdlvl_cmd:

; 9586 :             else if (strabbrev( "OPERATOR",      level, 4 )) option = SYSGROUP_SYSOPER;

  0012d	41 b8 04 00 00
	00		 mov	 r8d, 4
  00133	48 8d 94 24 b0
	00 00 00	 lea	 rdx, QWORD PTR level$7[rsp]
  0013b	48 8d 0d 00 00
	00 00		 lea	 rcx, OFFSET FLAT:$SG212102
  00142	e8 00 00 00 00	 call	 strabbrev
  00147	85 c0		 test	 eax, eax
  00149	74 0a		 je	 SHORT $LN17@cmdlvl_cmd
  0014b	c6 44 24 50 01	 mov	 BYTE PTR option$1[rsp], 1
  00150	e9 3c 01 00 00	 jmp	 $LN18@cmdlvl_cmd
$LN17@cmdlvl_cmd:

; 9587 :             else if (strabbrev( "MAINTENANCE",   level, 5 )) option = SYSGROUP_SYSMAINT;

  00155	41 b8 05 00 00
	00		 mov	 r8d, 5
  0015b	48 8d 94 24 b0
	00 00 00	 lea	 rdx, QWORD PTR level$7[rsp]
  00163	48 8d 0d 00 00
	00 00		 lea	 rcx, OFFSET FLAT:$SG212105
  0016a	e8 00 00 00 00	 call	 strabbrev
  0016f	85 c0		 test	 eax, eax
  00171	74 0a		 je	 SHORT $LN19@cmdlvl_cmd
  00173	c6 44 24 50 02	 mov	 BYTE PTR option$1[rsp], 2
  00178	e9 14 01 00 00	 jmp	 $LN20@cmdlvl_cmd
$LN19@cmdlvl_cmd:

; 9588 :             else if (strabbrev( "PROGRAMMER",    level, 4 )) option = SYSGROUP_SYSPROG;

  0017d	41 b8 04 00 00
	00		 mov	 r8d, 4
  00183	48 8d 94 24 b0
	00 00 00	 lea	 rdx, QWORD PTR level$7[rsp]
  0018b	48 8d 0d 00 00
	00 00		 lea	 rcx, OFFSET FLAT:$SG212108
  00192	e8 00 00 00 00	 call	 strabbrev
  00197	85 c0		 test	 eax, eax
  00199	74 0a		 je	 SHORT $LN21@cmdlvl_cmd
  0019b	c6 44 24 50 04	 mov	 BYTE PTR option$1[rsp], 4
  001a0	e9 ec 00 00 00	 jmp	 $LN22@cmdlvl_cmd
$LN21@cmdlvl_cmd:

; 9589 :             else if (strabbrev( "CONFIGURATION", level, 6 )) option = SYSGROUP_SYSCONFIG;

  001a5	41 b8 06 00 00
	00		 mov	 r8d, 6
  001ab	48 8d 94 24 b0
	00 00 00	 lea	 rdx, QWORD PTR level$7[rsp]
  001b3	48 8d 0d 00 00
	00 00		 lea	 rcx, OFFSET FLAT:$SG212111
  001ba	e8 00 00 00 00	 call	 strabbrev
  001bf	85 c0		 test	 eax, eax
  001c1	74 0a		 je	 SHORT $LN23@cmdlvl_cmd
  001c3	c6 44 24 50 10	 mov	 BYTE PTR option$1[rsp], 16
  001c8	e9 c4 00 00 00	 jmp	 $LN24@cmdlvl_cmd
$LN23@cmdlvl_cmd:

; 9590 :             else if (strabbrev( "DEVELOPER",     level, 3 )) option = SYSGROUP_SYSDEVEL;

  001cd	41 b8 03 00 00
	00		 mov	 r8d, 3
  001d3	48 8d 94 24 b0
	00 00 00	 lea	 rdx, QWORD PTR level$7[rsp]
  001db	48 8d 0d 00 00
	00 00		 lea	 rcx, OFFSET FLAT:$SG212114
  001e2	e8 00 00 00 00	 call	 strabbrev
  001e7	85 c0		 test	 eax, eax
  001e9	74 0a		 je	 SHORT $LN25@cmdlvl_cmd
  001eb	c6 44 24 50 20	 mov	 BYTE PTR option$1[rsp], 32 ; 00000020H
  001f0	e9 9c 00 00 00	 jmp	 $LN26@cmdlvl_cmd
$LN25@cmdlvl_cmd:

; 9591 :             else if (strabbrev( "DEBUG",         level, 3 )) option = SYSGROUP_SYSDEBUG;

  001f5	41 b8 03 00 00
	00		 mov	 r8d, 3
  001fb	48 8d 94 24 b0
	00 00 00	 lea	 rdx, QWORD PTR level$7[rsp]
  00203	48 8d 0d 00 00
	00 00		 lea	 rcx, OFFSET FLAT:$SG212117
  0020a	e8 00 00 00 00	 call	 strabbrev
  0020f	85 c0		 test	 eax, eax
  00211	74 07		 je	 SHORT $LN27@cmdlvl_cmd
  00213	c6 44 24 50 40	 mov	 BYTE PTR option$1[rsp], 64 ; 00000040H
  00218	eb 77		 jmp	 SHORT $LN28@cmdlvl_cmd
$LN27@cmdlvl_cmd:

; 9592 :             else
; 9593 :             {
; 9594 :                 // "Invalid cmdlevel option: %s"
; 9595 :                 WRMSG( HHC01605,"E", argv[i] );

  0021a	48 63 44 24 54	 movsxd	 rax, DWORD PTR i$4[rsp]
  0021f	48 89 84 24 a8
	00 00 00	 mov	 QWORD PTR tv153[rsp], rax
  00227	b9 01 00 00 00	 mov	 ecx, 1
  0022c	ff 15 00 00 00
	00		 call	 QWORD PTR __imp___acrt_iob_func
  00232	48 8b 8c 24 68
	01 00 00	 mov	 rcx, QWORD PTR argv$[rsp]
  0023a	48 8b 94 24 a8
	00 00 00	 mov	 rdx, QWORD PTR tv153[rsp]
  00242	48 8b 0c d1	 mov	 rcx, QWORD PTR [rcx+rdx*8]
  00246	48 89 4c 24 38	 mov	 QWORD PTR [rsp+56], rcx
  0024b	48 8d 0d 00 00
	00 00		 lea	 rcx, OFFSET FLAT:$SG212118
  00252	48 89 4c 24 30	 mov	 QWORD PTR [rsp+48], rcx
  00257	48 8d 0d 00 00
	00 00		 lea	 rcx, OFFSET FLAT:$SG212119
  0025e	48 89 4c 24 28	 mov	 QWORD PTR [rsp+40], rcx
  00263	48 89 44 24 20	 mov	 QWORD PTR [rsp+32], rax
  00268	41 b9 03 00 00
	00		 mov	 r9d, 3
  0026e	4c 8d 05 00 00
	00 00		 lea	 r8, OFFSET FLAT:$SG212120
  00275	ba 7b 25 00 00	 mov	 edx, 9595		; 0000257bH
  0027a	48 8d 0d 00 00
	00 00		 lea	 rcx, OFFSET FLAT:$SG212121
  00281	ff 15 00 00 00
	00		 call	 QWORD PTR __imp_fwritemsg

; 9596 :                 return -1;

  00287	b8 ff ff ff ff	 mov	 eax, -1
  0028c	e9 a1 03 00 00	 jmp	 $LN1@cmdlvl_cmd
$LN28@cmdlvl_cmd:
$LN26@cmdlvl_cmd:
$LN24@cmdlvl_cmd:
$LN22@cmdlvl_cmd:
$LN20@cmdlvl_cmd:
$LN18@cmdlvl_cmd:
$LN14@cmdlvl_cmd:

; 9597 :             }
; 9598 : 
; 9599 :             if (on) merged_options |=  option;

  00291	0f b6 44 24 52	 movzx	 eax, BYTE PTR on$3[rsp]
  00296	85 c0		 test	 eax, eax
  00298	74 14		 je	 SHORT $LN29@cmdlvl_cmd
  0029a	0f b6 44 24 50	 movzx	 eax, BYTE PTR option$1[rsp]
  0029f	0f b6 4c 24 51	 movzx	 ecx, BYTE PTR merged_options$2[rsp]
  002a4	0b c8		 or	 ecx, eax
  002a6	8b c1		 mov	 eax, ecx
  002a8	88 44 24 51	 mov	 BYTE PTR merged_options$2[rsp], al
  002ac	eb 14		 jmp	 SHORT $LN30@cmdlvl_cmd
$LN29@cmdlvl_cmd:

; 9600 :             else    merged_options &= ~option;

  002ae	0f b6 44 24 50	 movzx	 eax, BYTE PTR option$1[rsp]
  002b3	f7 d0		 not	 eax
  002b5	0f b6 4c 24 51	 movzx	 ecx, BYTE PTR merged_options$2[rsp]
  002ba	23 c8		 and	 ecx, eax
  002bc	8b c1		 mov	 eax, ecx
  002be	88 44 24 51	 mov	 BYTE PTR merged_options$2[rsp], al
$LN30@cmdlvl_cmd:

; 9601 :         }

  002c2	e9 90 fd ff ff	 jmp	 $LN5@cmdlvl_cmd
$LN6@cmdlvl_cmd:

; 9602 : 
; 9603 :         sysblk.sysgroup = merged_options;

  002c7	48 8b 05 00 00
	00 00		 mov	 rax, QWORD PTR __imp_sysblk
  002ce	0f b6 4c 24 51	 movzx	 ecx, BYTE PTR merged_options$2[rsp]
  002d3	88 88 2d 11 00
	00		 mov	 BYTE PTR [rax+4397], cl
$LN8@cmdlvl_cmd:

; 9604 :     }
; 9605 : 
; 9606 :     /* Display the current/new value */
; 9607 : 
; 9608 :     if (sysblk.sysgroup == SYSGROUP_SYSALL)

  002d9	48 8b 05 00 00
	00 00		 mov	 rax, QWORD PTR __imp_sysblk
  002e0	0f b6 80 2d 11
	00 00		 movzx	 eax, BYTE PTR [rax+4397]
  002e7	83 f8 7f	 cmp	 eax, 127		; 0000007fH
  002ea	75 72		 jne	 SHORT $LN31@cmdlvl_cmd

; 9609 :     {
; 9610 :         // "cmdlevel[%2.2X] is %s"
; 9611 :         WRMSG( HHC01606, "I", sysblk.sysgroup, "ALL" );

  002ec	48 8b 05 00 00
	00 00		 mov	 rax, QWORD PTR __imp_sysblk
  002f3	0f b6 80 2d 11
	00 00		 movzx	 eax, BYTE PTR [rax+4397]
  002fa	89 44 24 60	 mov	 DWORD PTR tv183[rsp], eax
  002fe	b9 01 00 00 00	 mov	 ecx, 1
  00303	ff 15 00 00 00
	00		 call	 QWORD PTR __imp___acrt_iob_func
  00309	48 8d 0d 00 00
	00 00		 lea	 rcx, OFFSET FLAT:$SG212126
  00310	48 89 4c 24 40	 mov	 QWORD PTR [rsp+64], rcx
  00315	8b 4c 24 60	 mov	 ecx, DWORD PTR tv183[rsp]
  00319	89 4c 24 38	 mov	 DWORD PTR [rsp+56], ecx
  0031d	48 8d 0d 00 00
	00 00		 lea	 rcx, OFFSET FLAT:$SG212127
  00324	48 89 4c 24 30	 mov	 QWORD PTR [rsp+48], rcx
  00329	48 8d 0d 00 00
	00 00		 lea	 rcx, OFFSET FLAT:$SG212128
  00330	48 89 4c 24 28	 mov	 QWORD PTR [rsp+40], rcx
  00335	48 89 44 24 20	 mov	 QWORD PTR [rsp+32], rax
  0033a	41 b9 03 00 00
	00		 mov	 r9d, 3
  00340	4c 8d 05 00 00
	00 00		 lea	 r8, OFFSET FLAT:$SG212129
  00347	ba 8b 25 00 00	 mov	 edx, 9611		; 0000258bH
  0034c	48 8d 0d 00 00
	00 00		 lea	 rcx, OFFSET FLAT:$SG212130
  00353	ff 15 00 00 00
	00		 call	 QWORD PTR __imp_fwritemsg

; 9612 :     }

  00359	e9 d2 02 00 00	 jmp	 $LN32@cmdlvl_cmd
$LN31@cmdlvl_cmd:

; 9613 :     else if (sysblk.sysgroup == SYSGROUP_SYSNONE)

  0035e	48 8b 05 00 00
	00 00		 mov	 rax, QWORD PTR __imp_sysblk
  00365	0f b6 80 2d 11
	00 00		 movzx	 eax, BYTE PTR [rax+4397]
  0036c	83 f8 08	 cmp	 eax, 8
  0036f	75 72		 jne	 SHORT $LN33@cmdlvl_cmd

; 9614 :     {
; 9615 :         // "cmdlevel[%2.2X] is %s"
; 9616 :         WRMSG( HHC01606, "I", sysblk.sysgroup, "NONE" );

  00371	48 8b 05 00 00
	00 00		 mov	 rax, QWORD PTR __imp_sysblk
  00378	0f b6 80 2d 11
	00 00		 movzx	 eax, BYTE PTR [rax+4397]
  0037f	89 44 24 64	 mov	 DWORD PTR tv199[rsp], eax
  00383	b9 01 00 00 00	 mov	 ecx, 1
  00388	ff 15 00 00 00
	00		 call	 QWORD PTR __imp___acrt_iob_func
  0038e	48 8d 0d 00 00
	00 00		 lea	 rcx, OFFSET FLAT:$SG212133
  00395	48 89 4c 24 40	 mov	 QWORD PTR [rsp+64], rcx
  0039a	8b 4c 24 64	 mov	 ecx, DWORD PTR tv199[rsp]
  0039e	89 4c 24 38	 mov	 DWORD PTR [rsp+56], ecx
  003a2	48 8d 0d 00 00
	00 00		 lea	 rcx, OFFSET FLAT:$SG212134
  003a9	48 89 4c 24 30	 mov	 QWORD PTR [rsp+48], rcx
  003ae	48 8d 0d 00 00
	00 00		 lea	 rcx, OFFSET FLAT:$SG212135
  003b5	48 89 4c 24 28	 mov	 QWORD PTR [rsp+40], rcx
  003ba	48 89 44 24 20	 mov	 QWORD PTR [rsp+32], rax
  003bf	41 b9 03 00 00
	00		 mov	 r9d, 3
  003c5	4c 8d 05 00 00
	00 00		 lea	 r8, OFFSET FLAT:$SG212136
  003cc	ba 90 25 00 00	 mov	 edx, 9616		; 00002590H
  003d1	48 8d 0d 00 00
	00 00		 lea	 rcx, OFFSET FLAT:$SG212137
  003d8	ff 15 00 00 00
	00		 call	 QWORD PTR __imp_fwritemsg

; 9617 :     }

  003de	e9 4d 02 00 00	 jmp	 $LN34@cmdlvl_cmd
$LN33@cmdlvl_cmd:

; 9618 :     else
; 9619 :     {
; 9620 :         char buf[128];
; 9621 : 
; 9622 :         MSGBUF( buf, "%s%s%s%s%s%s",

  003e3	48 8b 05 00 00
	00 00		 mov	 rax, QWORD PTR __imp_sysblk
  003ea	0f b6 80 2d 11
	00 00		 movzx	 eax, BYTE PTR [rax+4397]
  003f1	83 e0 40	 and	 eax, 64			; 00000040H
  003f4	85 c0		 test	 eax, eax
  003f6	74 0e		 je	 SHORT $LN37@cmdlvl_cmd
  003f8	48 8d 05 00 00
	00 00		 lea	 rax, OFFSET FLAT:$SG212138
  003ff	48 89 44 24 70	 mov	 QWORD PTR tv215[rsp], rax
  00404	eb 0c		 jmp	 SHORT $LN38@cmdlvl_cmd
$LN37@cmdlvl_cmd:
  00406	48 8d 05 00 00
	00 00		 lea	 rax, OFFSET FLAT:$SG212139
  0040d	48 89 44 24 70	 mov	 QWORD PTR tv215[rsp], rax
$LN38@cmdlvl_cmd:
  00412	48 8b 05 00 00
	00 00		 mov	 rax, QWORD PTR __imp_sysblk
  00419	0f b6 80 2d 11
	00 00		 movzx	 eax, BYTE PTR [rax+4397]
  00420	83 e0 20	 and	 eax, 32			; 00000020H
  00423	85 c0		 test	 eax, eax
  00425	74 0e		 je	 SHORT $LN39@cmdlvl_cmd
  00427	48 8d 05 00 00
	00 00		 lea	 rax, OFFSET FLAT:$SG212140
  0042e	48 89 44 24 78	 mov	 QWORD PTR tv221[rsp], rax
  00433	eb 0c		 jmp	 SHORT $LN40@cmdlvl_cmd
$LN39@cmdlvl_cmd:
  00435	48 8d 05 00 00
	00 00		 lea	 rax, OFFSET FLAT:$SG212141
  0043c	48 89 44 24 78	 mov	 QWORD PTR tv221[rsp], rax
$LN40@cmdlvl_cmd:
  00441	48 8b 05 00 00
	00 00		 mov	 rax, QWORD PTR __imp_sysblk
  00448	0f b6 80 2d 11
	00 00		 movzx	 eax, BYTE PTR [rax+4397]
  0044f	83 e0 10	 and	 eax, 16
  00452	85 c0		 test	 eax, eax
  00454	74 11		 je	 SHORT $LN41@cmdlvl_cmd
  00456	48 8d 05 00 00
	00 00		 lea	 rax, OFFSET FLAT:$SG212142
  0045d	48 89 84 24 80
	00 00 00	 mov	 QWORD PTR tv227[rsp], rax
  00465	eb 0f		 jmp	 SHORT $LN42@cmdlvl_cmd
$LN41@cmdlvl_cmd:
  00467	48 8d 05 00 00
	00 00		 lea	 rax, OFFSET FLAT:$SG212143
  0046e	48 89 84 24 80
	00 00 00	 mov	 QWORD PTR tv227[rsp], rax
$LN42@cmdlvl_cmd:
  00476	48 8b 05 00 00
	00 00		 mov	 rax, QWORD PTR __imp_sysblk
  0047d	0f b6 80 2d 11
	00 00		 movzx	 eax, BYTE PTR [rax+4397]
  00484	83 e0 04	 and	 eax, 4
  00487	85 c0		 test	 eax, eax
  00489	74 11		 je	 SHORT $LN43@cmdlvl_cmd
  0048b	48 8d 05 00 00
	00 00		 lea	 rax, OFFSET FLAT:$SG212144
  00492	48 89 84 24 88
	00 00 00	 mov	 QWORD PTR tv233[rsp], rax
  0049a	eb 0f		 jmp	 SHORT $LN44@cmdlvl_cmd
$LN43@cmdlvl_cmd:
  0049c	48 8d 05 00 00
	00 00		 lea	 rax, OFFSET FLAT:$SG212145
  004a3	48 89 84 24 88
	00 00 00	 mov	 QWORD PTR tv233[rsp], rax
$LN44@cmdlvl_cmd:
  004ab	48 8b 05 00 00
	00 00		 mov	 rax, QWORD PTR __imp_sysblk
  004b2	0f b6 80 2d 11
	00 00		 movzx	 eax, BYTE PTR [rax+4397]
  004b9	83 e0 02	 and	 eax, 2
  004bc	85 c0		 test	 eax, eax
  004be	74 11		 je	 SHORT $LN45@cmdlvl_cmd
  004c0	48 8d 05 00 00
	00 00		 lea	 rax, OFFSET FLAT:$SG212146
  004c7	48 89 84 24 90
	00 00 00	 mov	 QWORD PTR tv239[rsp], rax
  004cf	eb 0f		 jmp	 SHORT $LN46@cmdlvl_cmd
$LN45@cmdlvl_cmd:
  004d1	48 8d 05 00 00
	00 00		 lea	 rax, OFFSET FLAT:$SG212147
  004d8	48 89 84 24 90
	00 00 00	 mov	 QWORD PTR tv239[rsp], rax
$LN46@cmdlvl_cmd:
  004e0	48 8b 05 00 00
	00 00		 mov	 rax, QWORD PTR __imp_sysblk
  004e7	0f b6 80 2d 11
	00 00		 movzx	 eax, BYTE PTR [rax+4397]
  004ee	83 e0 01	 and	 eax, 1
  004f1	85 c0		 test	 eax, eax
  004f3	74 11		 je	 SHORT $LN47@cmdlvl_cmd
  004f5	48 8d 05 00 00
	00 00		 lea	 rax, OFFSET FLAT:$SG212148
  004fc	48 89 84 24 98
	00 00 00	 mov	 QWORD PTR tv245[rsp], rax
  00504	eb 0f		 jmp	 SHORT $LN48@cmdlvl_cmd
$LN47@cmdlvl_cmd:
  00506	48 8d 05 00 00
	00 00		 lea	 rax, OFFSET FLAT:$SG212149
  0050d	48 89 84 24 98
	00 00 00	 mov	 QWORD PTR tv245[rsp], rax
$LN48@cmdlvl_cmd:
  00515	48 8b 44 24 70	 mov	 rax, QWORD PTR tv215[rsp]
  0051a	48 89 44 24 40	 mov	 QWORD PTR [rsp+64], rax
  0051f	48 8b 44 24 78	 mov	 rax, QWORD PTR tv221[rsp]
  00524	48 89 44 24 38	 mov	 QWORD PTR [rsp+56], rax
  00529	48 8b 84 24 80
	00 00 00	 mov	 rax, QWORD PTR tv227[rsp]
  00531	48 89 44 24 30	 mov	 QWORD PTR [rsp+48], rax
  00536	48 8b 84 24 88
	00 00 00	 mov	 rax, QWORD PTR tv233[rsp]
  0053e	48 89 44 24 28	 mov	 QWORD PTR [rsp+40], rax
  00543	48 8b 84 24 90
	00 00 00	 mov	 rax, QWORD PTR tv239[rsp]
  0054b	48 89 44 24 20	 mov	 QWORD PTR [rsp+32], rax
  00550	4c 8b 8c 24 98
	00 00 00	 mov	 r9, QWORD PTR tv245[rsp]
  00558	4c 8d 05 00 00
	00 00		 lea	 r8, OFFSET FLAT:$SG212150
  0055f	ba 80 00 00 00	 mov	 edx, 128		; 00000080H
  00564	48 8d 8c 24 c0
	00 00 00	 lea	 rcx, QWORD PTR buf$8[rsp]
  0056c	ff 15 00 00 00
	00		 call	 QWORD PTR __imp_w32_snprintf

; 9623 : 
; 9624 :             (sysblk.sysgroup & SYSGROUP_SYSOPER  ) ? "OPERATOR "      : "",
; 9625 :             (sysblk.sysgroup & SYSGROUP_SYSMAINT ) ? "MAINTENANCE "   : "",
; 9626 :             (sysblk.sysgroup & SYSGROUP_SYSPROG  ) ? "PROGRAMMER "    : "",
; 9627 :             (sysblk.sysgroup & SYSGROUP_SYSCONFIG) ? "CONFIGURATION " : "",
; 9628 :             (sysblk.sysgroup & SYSGROUP_SYSDEVEL ) ? "DEVELOPER "     : "",
; 9629 :             (sysblk.sysgroup & SYSGROUP_SYSDEBUG ) ? "DEBUG "         : ""
; 9630 :         );
; 9631 : 
; 9632 :         if (    strlen( buf ) > 1)

  00572	48 8d 8c 24 c0
	00 00 00	 lea	 rcx, QWORD PTR buf$8[rsp]
  0057a	e8 00 00 00 00	 call	 strlen
  0057f	48 83 f8 01	 cmp	 rax, 1
  00583	76 3d		 jbe	 SHORT $LN35@cmdlvl_cmd

; 9633 :             buf[strlen( buf ) - 1] = 0;

  00585	48 8d 8c 24 c0
	00 00 00	 lea	 rcx, QWORD PTR buf$8[rsp]
  0058d	e8 00 00 00 00	 call	 strlen
  00592	48 ff c8	 dec	 rax
  00595	48 89 84 24 a0
	00 00 00	 mov	 QWORD PTR $T6[rsp], rax
  0059d	48 81 bc 24 a0
	00 00 00 80 00
	00 00		 cmp	 QWORD PTR $T6[rsp], 128	; 00000080H
  005a9	73 02		 jae	 SHORT $LN49@cmdlvl_cmd
  005ab	eb 05		 jmp	 SHORT $LN50@cmdlvl_cmd
$LN49@cmdlvl_cmd:
  005ad	e8 00 00 00 00	 call	 __report_rangecheckfailure
$LN50@cmdlvl_cmd:
  005b2	48 8b 84 24 a0
	00 00 00	 mov	 rax, QWORD PTR $T6[rsp]
  005ba	c6 84 04 c0 00
	00 00 00	 mov	 BYTE PTR buf$8[rsp+rax], 0
$LN35@cmdlvl_cmd:

; 9634 : 
; 9635 :         // "cmdlevel[%2.2X] is %s"
; 9636 :         WRMSG( HHC01606, "I", sysblk.sysgroup, buf );

  005c2	48 8b 05 00 00
	00 00		 mov	 rax, QWORD PTR __imp_sysblk
  005c9	0f b6 80 2d 11
	00 00		 movzx	 eax, BYTE PTR [rax+4397]
  005d0	89 44 24 68	 mov	 DWORD PTR tv291[rsp], eax
  005d4	b9 01 00 00 00	 mov	 ecx, 1
  005d9	ff 15 00 00 00
	00		 call	 QWORD PTR __imp___acrt_iob_func
  005df	48 8d 8c 24 c0
	00 00 00	 lea	 rcx, QWORD PTR buf$8[rsp]
  005e7	48 89 4c 24 40	 mov	 QWORD PTR [rsp+64], rcx
  005ec	8b 4c 24 68	 mov	 ecx, DWORD PTR tv291[rsp]
  005f0	89 4c 24 38	 mov	 DWORD PTR [rsp+56], ecx
  005f4	48 8d 0d 00 00
	00 00		 lea	 rcx, OFFSET FLAT:$SG212152
  005fb	48 89 4c 24 30	 mov	 QWORD PTR [rsp+48], rcx
  00600	48 8d 0d 00 00
	00 00		 lea	 rcx, OFFSET FLAT:$SG212153
  00607	48 89 4c 24 28	 mov	 QWORD PTR [rsp+40], rcx
  0060c	48 89 44 24 20	 mov	 QWORD PTR [rsp+32], rax
  00611	41 b9 03 00 00
	00		 mov	 r9d, 3
  00617	4c 8d 05 00 00
	00 00		 lea	 r8, OFFSET FLAT:$SG212154
  0061e	ba a4 25 00 00	 mov	 edx, 9636		; 000025a4H
  00623	48 8d 0d 00 00
	00 00		 lea	 rcx, OFFSET FLAT:$SG212155
  0062a	ff 15 00 00 00
	00		 call	 QWORD PTR __imp_fwritemsg
$LN34@cmdlvl_cmd:
$LN32@cmdlvl_cmd:

; 9637 :     }
; 9638 : 
; 9639 :     return 0;

  00630	33 c0		 xor	 eax, eax
$LN1@cmdlvl_cmd:
$LN36@cmdlvl_cmd:

; 9640 : }

  00632	48 8b 8c 24 40
	01 00 00	 mov	 rcx, QWORD PTR __$ArrayPad$[rsp]
  0063a	48 33 cc	 xor	 rcx, rsp
  0063d	e8 00 00 00 00	 call	 __security_check_cookie
  00642	48 81 c4 58 01
	00 00		 add	 rsp, 344		; 00000158H
  00649	c3		 ret	 0
cmdlvl_cmd ENDP
_TEXT	ENDS
; Function compile flags: /Odtp
; File C:\papa\MyGit\hyperion-zvector\hsccmd.c
_TEXT	SEGMENT
serv$1 = 80
serv$2 = 88
port$3 = 96
port$4 = 104
host$5 = 112
host$6 = 120
tv264 = 128
tv77 = 136
buf$ = 144
__$ArrayPad$ = 208
argc$ = 240
argv$ = 248
cmdline$ = 256
qports_cmd PROC

; 9241 : {

$LN23:
  00000	4c 89 44 24 18	 mov	 QWORD PTR [rsp+24], r8
  00005	48 89 54 24 10	 mov	 QWORD PTR [rsp+16], rdx
  0000a	89 4c 24 08	 mov	 DWORD PTR [rsp+8], ecx
  0000e	48 81 ec e8 00
	00 00		 sub	 rsp, 232		; 000000e8H
  00015	48 8b 05 00 00
	00 00		 mov	 rax, QWORD PTR __security_cookie
  0001c	48 33 c4	 xor	 rax, rsp
  0001f	48 89 84 24 d0
	00 00 00	 mov	 QWORD PTR __$ArrayPad$[rsp], rax
$LN4@qports_cmd:

; 9242 :     char buf[64];
; 9243 : 
; 9244 :     UNREFERENCED( cmdline );

  00027	33 c0		 xor	 eax, eax
  00029	85 c0		 test	 eax, eax
  0002b	75 fa		 jne	 SHORT $LN4@qports_cmd
$LN7@qports_cmd:

; 9245 :     UNREFERENCED( argv );

  0002d	33 c0		 xor	 eax, eax
  0002f	85 c0		 test	 eax, eax
  00031	75 fa		 jne	 SHORT $LN7@qports_cmd

; 9246 : 
; 9247 :     if (argc != 1)

  00033	83 bc 24 f0 00
	00 00 01	 cmp	 DWORD PTR argc$[rsp], 1
  0003b	74 51		 je	 SHORT $LN8@qports_cmd

; 9248 :     {
; 9249 :         // "Missing or invalid argument(s)"
; 9250 :         WRMSG( HHC17000, "E" );

  0003d	b9 01 00 00 00	 mov	 ecx, 1
  00042	ff 15 00 00 00
	00		 call	 QWORD PTR __imp___acrt_iob_func
  00048	48 8d 0d 00 00
	00 00		 lea	 rcx, OFFSET FLAT:$SG211879
  0004f	48 89 4c 24 30	 mov	 QWORD PTR [rsp+48], rcx
  00054	48 8d 0d 00 00
	00 00		 lea	 rcx, OFFSET FLAT:$SG211880
  0005b	48 89 4c 24 28	 mov	 QWORD PTR [rsp+40], rcx
  00060	48 89 44 24 20	 mov	 QWORD PTR [rsp+32], rax
  00065	41 b9 03 00 00
	00		 mov	 r9d, 3
  0006b	4c 8d 05 00 00
	00 00		 lea	 r8, OFFSET FLAT:$SG211881
  00072	ba 22 24 00 00	 mov	 edx, 9250		; 00002422H
  00077	48 8d 0d 00 00
	00 00		 lea	 rcx, OFFSET FLAT:$SG211882
  0007e	ff 15 00 00 00
	00		 call	 QWORD PTR __imp_fwritemsg

; 9251 :         return -1;

  00084	b8 ff ff ff ff	 mov	 eax, -1
  00089	e9 b7 04 00 00	 jmp	 $LN1@qports_cmd
$LN8@qports_cmd:

; 9252 :     }
; 9253 : 
; 9254 : 
; 9255 :     // HTTP SERVER...
; 9256 : 
; 9257 :     MSGBUF( buf, "on port %s with %s", http_get_port(), http_get_portauth() );

  0008e	e8 00 00 00 00	 call	 http_get_portauth
  00093	48 89 84 24 88
	00 00 00	 mov	 QWORD PTR tv77[rsp], rax
  0009b	e8 00 00 00 00	 call	 http_get_port
  000a0	48 8b 8c 24 88
	00 00 00	 mov	 rcx, QWORD PTR tv77[rsp]
  000a8	48 89 4c 24 20	 mov	 QWORD PTR [rsp+32], rcx
  000ad	4c 8b c8	 mov	 r9, rax
  000b0	4c 8d 05 00 00
	00 00		 lea	 r8, OFFSET FLAT:$SG211883
  000b7	ba 40 00 00 00	 mov	 edx, 64			; 00000040H
  000bc	48 8d 8c 24 90
	00 00 00	 lea	 rcx, QWORD PTR buf$[rsp]
  000c4	ff 15 00 00 00
	00		 call	 QWORD PTR __imp_w32_snprintf

; 9258 : 
; 9259 :     // "%s server %slistening %s"
; 9260 :     WRMSG( HHC17001, "I", "HTTP", "", buf );

  000ca	b9 01 00 00 00	 mov	 ecx, 1
  000cf	ff 15 00 00 00
	00		 call	 QWORD PTR __imp___acrt_iob_func
  000d5	48 8d 8c 24 90
	00 00 00	 lea	 rcx, QWORD PTR buf$[rsp]
  000dd	48 89 4c 24 48	 mov	 QWORD PTR [rsp+72], rcx
  000e2	48 8d 0d 00 00
	00 00		 lea	 rcx, OFFSET FLAT:$SG211884
  000e9	48 89 4c 24 40	 mov	 QWORD PTR [rsp+64], rcx
  000ee	48 8d 0d 00 00
	00 00		 lea	 rcx, OFFSET FLAT:$SG211885
  000f5	48 89 4c 24 38	 mov	 QWORD PTR [rsp+56], rcx
  000fa	48 8d 0d 00 00
	00 00		 lea	 rcx, OFFSET FLAT:$SG211886
  00101	48 89 4c 24 30	 mov	 QWORD PTR [rsp+48], rcx
  00106	48 8d 0d 00 00
	00 00		 lea	 rcx, OFFSET FLAT:$SG211887
  0010d	48 89 4c 24 28	 mov	 QWORD PTR [rsp+40], rcx
  00112	48 89 44 24 20	 mov	 QWORD PTR [rsp+32], rax
  00117	41 b9 03 00 00
	00		 mov	 r9d, 3
  0011d	4c 8d 05 00 00
	00 00		 lea	 r8, OFFSET FLAT:$SG211888
  00124	ba 2c 24 00 00	 mov	 edx, 9260		; 0000242cH
  00129	48 8d 0d 00 00
	00 00		 lea	 rcx, OFFSET FLAT:$SG211889
  00130	ff 15 00 00 00
	00		 call	 QWORD PTR __imp_fwritemsg

; 9261 : 
; 9262 : 
; 9263 :     // SHARED DASD SERVER...
; 9264 : 
; 9265 : #if defined( OPTION_SHARED_DEVICES )
; 9266 : 
; 9267 :     if (sysblk.shrdport > 0)

  00136	48 8b 05 00 00
	00 00		 mov	 rax, QWORD PTR __imp_sysblk
  0013d	0f b7 80 ac 13
	00 00		 movzx	 eax, WORD PTR [rax+5036]
  00144	85 c0		 test	 eax, eax
  00146	0f 8e 99 00 00
	00		 jle	 $LN9@qports_cmd

; 9268 :     {
; 9269 :         MSGBUF( buf, "on port %u", sysblk.shrdport );

  0014c	48 8b 05 00 00
	00 00		 mov	 rax, QWORD PTR __imp_sysblk
  00153	0f b7 80 ac 13
	00 00		 movzx	 eax, WORD PTR [rax+5036]
  0015a	44 8b c8	 mov	 r9d, eax
  0015d	4c 8d 05 00 00
	00 00		 lea	 r8, OFFSET FLAT:$SG211892
  00164	ba 40 00 00 00	 mov	 edx, 64			; 00000040H
  00169	48 8d 8c 24 90
	00 00 00	 lea	 rcx, QWORD PTR buf$[rsp]
  00171	ff 15 00 00 00
	00		 call	 QWORD PTR __imp_w32_snprintf

; 9270 : 
; 9271 :         // "%s server %slistening %s"
; 9272 :         WRMSG( HHC17001, "I", "Shared DASD", "", buf );

  00177	b9 01 00 00 00	 mov	 ecx, 1
  0017c	ff 15 00 00 00
	00		 call	 QWORD PTR __imp___acrt_iob_func
  00182	48 8d 8c 24 90
	00 00 00	 lea	 rcx, QWORD PTR buf$[rsp]
  0018a	48 89 4c 24 48	 mov	 QWORD PTR [rsp+72], rcx
  0018f	48 8d 0d 00 00
	00 00		 lea	 rcx, OFFSET FLAT:$SG211893
  00196	48 89 4c 24 40	 mov	 QWORD PTR [rsp+64], rcx
  0019b	48 8d 0d 00 00
	00 00		 lea	 rcx, OFFSET FLAT:$SG211894
  001a2	48 89 4c 24 38	 mov	 QWORD PTR [rsp+56], rcx
  001a7	48 8d 0d 00 00
	00 00		 lea	 rcx, OFFSET FLAT:$SG211895
  001ae	48 89 4c 24 30	 mov	 QWORD PTR [rsp+48], rcx
  001b3	48 8d 0d 00 00
	00 00		 lea	 rcx, OFFSET FLAT:$SG211896
  001ba	48 89 4c 24 28	 mov	 QWORD PTR [rsp+40], rcx
  001bf	48 89 44 24 20	 mov	 QWORD PTR [rsp+32], rax
  001c4	41 b9 03 00 00
	00		 mov	 r9d, 3
  001ca	4c 8d 05 00 00
	00 00		 lea	 r8, OFFSET FLAT:$SG211897
  001d1	ba 38 24 00 00	 mov	 edx, 9272		; 00002438H
  001d6	48 8d 0d 00 00
	00 00		 lea	 rcx, OFFSET FLAT:$SG211898
  001dd	ff 15 00 00 00
	00		 call	 QWORD PTR __imp_fwritemsg

; 9273 :     }

  001e3	eb 53		 jmp	 SHORT $LN10@qports_cmd
$LN9@qports_cmd:

; 9274 :     else
; 9275 :     {
; 9276 :         // "%s server inactive"
; 9277 :         WRMSG( HHC17002, "I", "Shared DASD" );

  001e5	b9 01 00 00 00	 mov	 ecx, 1
  001ea	ff 15 00 00 00
	00		 call	 QWORD PTR __imp___acrt_iob_func
  001f0	48 8d 0d 00 00
	00 00		 lea	 rcx, OFFSET FLAT:$SG211899
  001f7	48 89 4c 24 38	 mov	 QWORD PTR [rsp+56], rcx
  001fc	48 8d 0d 00 00
	00 00		 lea	 rcx, OFFSET FLAT:$SG211900
  00203	48 89 4c 24 30	 mov	 QWORD PTR [rsp+48], rcx
  00208	48 8d 0d 00 00
	00 00		 lea	 rcx, OFFSET FLAT:$SG211901
  0020f	48 89 4c 24 28	 mov	 QWORD PTR [rsp+40], rcx
  00214	48 89 44 24 20	 mov	 QWORD PTR [rsp+32], rax
  00219	41 b9 03 00 00
	00		 mov	 r9d, 3
  0021f	4c 8d 05 00 00
	00 00		 lea	 r8, OFFSET FLAT:$SG211902
  00226	ba 3d 24 00 00	 mov	 edx, 9277		; 0000243dH
  0022b	48 8d 0d 00 00
	00 00		 lea	 rcx, OFFSET FLAT:$SG211903
  00232	ff 15 00 00 00
	00		 call	 QWORD PTR __imp_fwritemsg
$LN10@qports_cmd:

; 9278 :     }
; 9279 : #else // !defined( OPTION_SHARED_DEVICES )
; 9280 : 
; 9281 :     // "%s support not included in this engine build"
; 9282 :     WRMSG( HHC17015, "I", "Shared DASD" );
; 9283 : 
; 9284 : #endif // defined( OPTION_SHARED_DEVICES )
; 9285 : 
; 9286 : 
; 9287 :     // CONSOLE...
; 9288 : 
; 9289 :     if (!strchr( sysblk.cnslport, ':' ))

  00238	ba 3a 00 00 00	 mov	 edx, 58			; 0000003aH
  0023d	48 8b 05 00 00
	00 00		 mov	 rax, QWORD PTR __imp_sysblk
  00244	48 8b 88 e8 13
	00 00		 mov	 rcx, QWORD PTR [rax+5096]
  0024b	e8 00 00 00 00	 call	 strchr
  00250	48 85 c0	 test	 rax, rax
  00253	75 2d		 jne	 SHORT $LN11@qports_cmd

; 9290 :     {
; 9291 :         MSGBUF( buf, "on port %s", sysblk.cnslport );

  00255	48 8b 05 00 00
	00 00		 mov	 rax, QWORD PTR __imp_sysblk
  0025c	4c 8b 88 e8 13
	00 00		 mov	 r9, QWORD PTR [rax+5096]
  00263	4c 8d 05 00 00
	00 00		 lea	 r8, OFFSET FLAT:$SG211906
  0026a	ba 40 00 00 00	 mov	 edx, 64			; 00000040H
  0026f	48 8d 8c 24 90
	00 00 00	 lea	 rcx, QWORD PTR buf$[rsp]
  00277	ff 15 00 00 00
	00		 call	 QWORD PTR __imp_w32_snprintf

; 9292 :     }

  0027d	e9 9d 00 00 00	 jmp	 $LN12@qports_cmd
$LN11@qports_cmd:

; 9293 :     else
; 9294 :     {
; 9295 :         char* serv;
; 9296 :         char* host = NULL;

  00282	48 c7 44 24 70
	00 00 00 00	 mov	 QWORD PTR host$5[rsp], 0

; 9297 :         char* port = strdup( sysblk.cnslport );

  0028b	48 8b 05 00 00
	00 00		 mov	 rax, QWORD PTR __imp_sysblk
  00292	48 8b 88 e8 13
	00 00		 mov	 rcx, QWORD PTR [rax+5096]
  00299	ff 15 00 00 00
	00		 call	 QWORD PTR __imp_strdup
  0029f	48 89 44 24 60	 mov	 QWORD PTR port$3[rsp], rax

; 9298 : 
; 9299 :         if ((serv = strchr( port, ':' )))

  002a4	ba 3a 00 00 00	 mov	 edx, 58			; 0000003aH
  002a9	48 8b 4c 24 60	 mov	 rcx, QWORD PTR port$3[rsp]
  002ae	e8 00 00 00 00	 call	 strchr
  002b3	48 89 44 24 50	 mov	 QWORD PTR serv$1[rsp], rax
  002b8	48 83 7c 24 50
	00		 cmp	 QWORD PTR serv$1[rsp], 0
  002be	74 2b		 je	 SHORT $LN13@qports_cmd

; 9300 :         {
; 9301 :             *serv++ = '\0';

  002c0	48 8b 44 24 50	 mov	 rax, QWORD PTR serv$1[rsp]
  002c5	c6 00 00	 mov	 BYTE PTR [rax], 0
  002c8	48 8b 44 24 50	 mov	 rax, QWORD PTR serv$1[rsp]
  002cd	48 ff c0	 inc	 rax
  002d0	48 89 44 24 50	 mov	 QWORD PTR serv$1[rsp], rax

; 9302 :             if (*port)

  002d5	48 8b 44 24 60	 mov	 rax, QWORD PTR port$3[rsp]
  002da	0f be 00	 movsx	 eax, BYTE PTR [rax]
  002dd	85 c0		 test	 eax, eax
  002df	74 0a		 je	 SHORT $LN14@qports_cmd

; 9303 :                 host = port;

  002e1	48 8b 44 24 60	 mov	 rax, QWORD PTR port$3[rsp]
  002e6	48 89 44 24 70	 mov	 QWORD PTR host$5[rsp], rax
$LN14@qports_cmd:
$LN13@qports_cmd:

; 9304 :         }
; 9305 : 
; 9306 :         MSGBUF( buf, "for host %s on port %s", host, serv );

  002eb	48 8b 44 24 50	 mov	 rax, QWORD PTR serv$1[rsp]
  002f0	48 89 44 24 20	 mov	 QWORD PTR [rsp+32], rax
  002f5	4c 8b 4c 24 70	 mov	 r9, QWORD PTR host$5[rsp]
  002fa	4c 8d 05 00 00
	00 00		 lea	 r8, OFFSET FLAT:$SG211909
  00301	ba 40 00 00 00	 mov	 edx, 64			; 00000040H
  00306	48 8d 8c 24 90
	00 00 00	 lea	 rcx, QWORD PTR buf$[rsp]
  0030e	ff 15 00 00 00
	00		 call	 QWORD PTR __imp_w32_snprintf

; 9307 :         free( port );

  00314	48 8b 4c 24 60	 mov	 rcx, QWORD PTR port$3[rsp]
  00319	ff 15 00 00 00
	00		 call	 QWORD PTR __imp_free
$LN12@qports_cmd:

; 9308 :     }
; 9309 : 
; 9310 :     // "%s server %slistening %s"
; 9311 :     WRMSG( HHC17001, "I", "Console", "", buf );

  0031f	b9 01 00 00 00	 mov	 ecx, 1
  00324	ff 15 00 00 00
	00		 call	 QWORD PTR __imp___acrt_iob_func
  0032a	48 8d 8c 24 90
	00 00 00	 lea	 rcx, QWORD PTR buf$[rsp]
  00332	48 89 4c 24 48	 mov	 QWORD PTR [rsp+72], rcx
  00337	48 8d 0d 00 00
	00 00		 lea	 rcx, OFFSET FLAT:$SG211910
  0033e	48 89 4c 24 40	 mov	 QWORD PTR [rsp+64], rcx
  00343	48 8d 0d 00 00
	00 00		 lea	 rcx, OFFSET FLAT:$SG211911
  0034a	48 89 4c 24 38	 mov	 QWORD PTR [rsp+56], rcx
  0034f	48 8d 0d 00 00
	00 00		 lea	 rcx, OFFSET FLAT:$SG211912
  00356	48 89 4c 24 30	 mov	 QWORD PTR [rsp+48], rcx
  0035b	48 8d 0d 00 00
	00 00		 lea	 rcx, OFFSET FLAT:$SG211913
  00362	48 89 4c 24 28	 mov	 QWORD PTR [rsp+40], rcx
  00367	48 89 44 24 20	 mov	 QWORD PTR [rsp+32], rax
  0036c	41 b9 03 00 00
	00		 mov	 r9d, 3
  00372	4c 8d 05 00 00
	00 00		 lea	 r8, OFFSET FLAT:$SG211914
  00379	ba 5f 24 00 00	 mov	 edx, 9311		; 0000245fH
  0037e	48 8d 0d 00 00
	00 00		 lea	 rcx, OFFSET FLAT:$SG211915
  00385	ff 15 00 00 00
	00		 call	 QWORD PTR __imp_fwritemsg

; 9312 : 
; 9313 : 
; 9314 :     // SYSG CONSOLE...
; 9315 : 
; 9316 :     if (sysblk.sysgport)

  0038b	48 8b 05 00 00
	00 00		 mov	 rax, QWORD PTR __imp_sysblk
  00392	48 83 b8 f0 13
	00 00 00	 cmp	 QWORD PTR [rax+5104], 0
  0039a	0f 84 a3 01 00
	00		 je	 $LN15@qports_cmd

; 9317 :     {
; 9318 :         if (!strchr( sysblk.sysgport, ':' ))

  003a0	ba 3a 00 00 00	 mov	 edx, 58			; 0000003aH
  003a5	48 8b 05 00 00
	00 00		 mov	 rax, QWORD PTR __imp_sysblk
  003ac	48 8b 88 f0 13
	00 00		 mov	 rcx, QWORD PTR [rax+5104]
  003b3	e8 00 00 00 00	 call	 strchr
  003b8	48 85 c0	 test	 rax, rax
  003bb	75 2d		 jne	 SHORT $LN16@qports_cmd

; 9319 :         {
; 9320 :             MSGBUF( buf, "on port %s", sysblk.sysgport );

  003bd	48 8b 05 00 00
	00 00		 mov	 rax, QWORD PTR __imp_sysblk
  003c4	4c 8b 88 f0 13
	00 00		 mov	 r9, QWORD PTR [rax+5104]
  003cb	4c 8d 05 00 00
	00 00		 lea	 r8, OFFSET FLAT:$SG211919
  003d2	ba 40 00 00 00	 mov	 edx, 64			; 00000040H
  003d7	48 8d 8c 24 90
	00 00 00	 lea	 rcx, QWORD PTR buf$[rsp]
  003df	ff 15 00 00 00
	00		 call	 QWORD PTR __imp_w32_snprintf

; 9321 :         }

  003e5	e9 9d 00 00 00	 jmp	 $LN17@qports_cmd
$LN16@qports_cmd:

; 9322 :         else
; 9323 :         {
; 9324 :             char* serv;
; 9325 :             char* host = NULL;

  003ea	48 c7 44 24 78
	00 00 00 00	 mov	 QWORD PTR host$6[rsp], 0

; 9326 :             char* port = strdup( sysblk.sysgport );

  003f3	48 8b 05 00 00
	00 00		 mov	 rax, QWORD PTR __imp_sysblk
  003fa	48 8b 88 f0 13
	00 00		 mov	 rcx, QWORD PTR [rax+5104]
  00401	ff 15 00 00 00
	00		 call	 QWORD PTR __imp_strdup
  00407	48 89 44 24 68	 mov	 QWORD PTR port$4[rsp], rax

; 9327 : 
; 9328 :             if ((serv = strchr( port, ':' )))

  0040c	ba 3a 00 00 00	 mov	 edx, 58			; 0000003aH
  00411	48 8b 4c 24 68	 mov	 rcx, QWORD PTR port$4[rsp]
  00416	e8 00 00 00 00	 call	 strchr
  0041b	48 89 44 24 58	 mov	 QWORD PTR serv$2[rsp], rax
  00420	48 83 7c 24 58
	00		 cmp	 QWORD PTR serv$2[rsp], 0
  00426	74 2b		 je	 SHORT $LN18@qports_cmd

; 9329 :             {
; 9330 :                 *serv++ = '\0';

  00428	48 8b 44 24 58	 mov	 rax, QWORD PTR serv$2[rsp]
  0042d	c6 00 00	 mov	 BYTE PTR [rax], 0
  00430	48 8b 44 24 58	 mov	 rax, QWORD PTR serv$2[rsp]
  00435	48 ff c0	 inc	 rax
  00438	48 89 44 24 58	 mov	 QWORD PTR serv$2[rsp], rax

; 9331 :                 if (*port)

  0043d	48 8b 44 24 68	 mov	 rax, QWORD PTR port$4[rsp]
  00442	0f be 00	 movsx	 eax, BYTE PTR [rax]
  00445	85 c0		 test	 eax, eax
  00447	74 0a		 je	 SHORT $LN19@qports_cmd

; 9332 :                     host = port;

  00449	48 8b 44 24 68	 mov	 rax, QWORD PTR port$4[rsp]
  0044e	48 89 44 24 78	 mov	 QWORD PTR host$6[rsp], rax
$LN19@qports_cmd:
$LN18@qports_cmd:

; 9333 :             }
; 9334 : 
; 9335 :             MSGBUF( buf, "for host %s on port %s", host, serv );

  00453	48 8b 44 24 58	 mov	 rax, QWORD PTR serv$2[rsp]
  00458	48 89 44 24 20	 mov	 QWORD PTR [rsp+32], rax
  0045d	4c 8b 4c 24 78	 mov	 r9, QWORD PTR host$6[rsp]
  00462	4c 8d 05 00 00
	00 00		 lea	 r8, OFFSET FLAT:$SG211922
  00469	ba 40 00 00 00	 mov	 edx, 64			; 00000040H
  0046e	48 8d 8c 24 90
	00 00 00	 lea	 rcx, QWORD PTR buf$[rsp]
  00476	ff 15 00 00 00
	00		 call	 QWORD PTR __imp_w32_snprintf

; 9336 :             free( port );

  0047c	48 8b 4c 24 68	 mov	 rcx, QWORD PTR port$4[rsp]
  00481	ff 15 00 00 00
	00		 call	 QWORD PTR __imp_free
$LN17@qports_cmd:

; 9337 :         }
; 9338 : 
; 9339 :         // "%s server %slistening %s"
; 9340 :         WRMSG( HHC17001, "I", "SYSG console",

  00487	48 8b 05 00 00
	00 00		 mov	 rax, QWORD PTR __imp_sysblk
  0048e	48 83 b8 c8 11
	00 00 00	 cmp	 QWORD PTR [rax+4552], 0
  00496	74 2f		 je	 SHORT $LN21@qports_cmd
  00498	48 8b 05 00 00
	00 00		 mov	 rax, QWORD PTR __imp_sysblk
  0049f	48 8b 80 c8 11
	00 00		 mov	 rax, QWORD PTR [rax+4552]
  004a6	8b 80 f8 05 00
	00		 mov	 eax, DWORD PTR [rax+1528]
  004ac	c1 e8 05	 shr	 eax, 5
  004af	83 e0 01	 and	 eax, 1
  004b2	85 c0		 test	 eax, eax
  004b4	74 11		 je	 SHORT $LN21@qports_cmd
  004b6	48 8d 05 00 00
	00 00		 lea	 rax, OFFSET FLAT:$SG211923
  004bd	48 89 84 24 80
	00 00 00	 mov	 QWORD PTR tv264[rsp], rax
  004c5	eb 0f		 jmp	 SHORT $LN22@qports_cmd
$LN21@qports_cmd:
  004c7	48 8d 05 00 00
	00 00		 lea	 rax, OFFSET FLAT:$SG211924
  004ce	48 89 84 24 80
	00 00 00	 mov	 QWORD PTR tv264[rsp], rax
$LN22@qports_cmd:
  004d6	b9 01 00 00 00	 mov	 ecx, 1
  004db	ff 15 00 00 00
	00		 call	 QWORD PTR __imp___acrt_iob_func
  004e1	48 8d 8c 24 90
	00 00 00	 lea	 rcx, QWORD PTR buf$[rsp]
  004e9	48 89 4c 24 48	 mov	 QWORD PTR [rsp+72], rcx
  004ee	48 8b 8c 24 80
	00 00 00	 mov	 rcx, QWORD PTR tv264[rsp]
  004f6	48 89 4c 24 40	 mov	 QWORD PTR [rsp+64], rcx
  004fb	48 8d 0d 00 00
	00 00		 lea	 rcx, OFFSET FLAT:$SG211925
  00502	48 89 4c 24 38	 mov	 QWORD PTR [rsp+56], rcx
  00507	48 8d 0d 00 00
	00 00		 lea	 rcx, OFFSET FLAT:$SG211926
  0050e	48 89 4c 24 30	 mov	 QWORD PTR [rsp+48], rcx
  00513	48 8d 0d 00 00
	00 00		 lea	 rcx, OFFSET FLAT:$SG211927
  0051a	48 89 4c 24 28	 mov	 QWORD PTR [rsp+40], rcx
  0051f	48 89 44 24 20	 mov	 QWORD PTR [rsp+32], rax
  00524	41 b9 03 00 00
	00		 mov	 r9d, 3
  0052a	4c 8d 05 00 00
	00 00		 lea	 r8, OFFSET FLAT:$SG211928
  00531	ba 7d 24 00 00	 mov	 edx, 9341		; 0000247dH
  00536	48 8d 0d 00 00
	00 00		 lea	 rcx, OFFSET FLAT:$SG211929
  0053d	ff 15 00 00 00
	00		 call	 QWORD PTR __imp_fwritemsg
$LN15@qports_cmd:

; 9341 :             sysblk.sysgdev && sysblk.sysgdev->connected ? "NOT " : "", buf );
; 9342 :     }
; 9343 : 
; 9344 :     return 0;

  00543	33 c0		 xor	 eax, eax
$LN1@qports_cmd:

; 9345 : }

  00545	48 8b 8c 24 d0
	00 00 00	 mov	 rcx, QWORD PTR __$ArrayPad$[rsp]
  0054d	48 33 cc	 xor	 rcx, rsp
  00550	e8 00 00 00 00	 call	 __security_check_cookie
  00555	48 81 c4 e8 00
	00 00		 add	 rsp, 232		; 000000e8H
  0055c	c3		 ret	 0
qports_cmd ENDP
_TEXT	ENDS
; Function compile flags: /Odtp
; File C:\papa\MyGit\hyperion-zvector\hsccmd.c
_TEXT	SEGMENT
argc$ = 80
argv$ = 88
cmdline$ = 96
qpid_cmd PROC

; 9219 : {

$LN13:
  00000	4c 89 44 24 18	 mov	 QWORD PTR [rsp+24], r8
  00005	48 89 54 24 10	 mov	 QWORD PTR [rsp+16], rdx
  0000a	89 4c 24 08	 mov	 DWORD PTR [rsp+8], ecx
  0000e	48 83 ec 48	 sub	 rsp, 72			; 00000048H
$LN4@qpid_cmd:

; 9220 :     UNREFERENCED( cmdline );

  00012	33 c0		 xor	 eax, eax
  00014	85 c0		 test	 eax, eax
  00016	75 fa		 jne	 SHORT $LN4@qpid_cmd
$LN7@qpid_cmd:

; 9221 :     UNREFERENCED( argv );

  00018	33 c0		 xor	 eax, eax
  0001a	85 c0		 test	 eax, eax
  0001c	75 fa		 jne	 SHORT $LN7@qpid_cmd
$LN10@qpid_cmd:

; 9222 :     UNREFERENCED( argc );

  0001e	33 c0		 xor	 eax, eax
  00020	85 c0		 test	 eax, eax
  00022	75 fa		 jne	 SHORT $LN10@qpid_cmd

; 9223 : 
; 9224 :     if (argc != 1)

  00024	83 7c 24 50 01	 cmp	 DWORD PTR argc$[rsp], 1
  00029	74 4e		 je	 SHORT $LN11@qpid_cmd

; 9225 :     {
; 9226 :         // "Missing or invalid argument(s)"
; 9227 :         WRMSG( HHC17000, "E" );

  0002b	b9 01 00 00 00	 mov	 ecx, 1
  00030	ff 15 00 00 00
	00		 call	 QWORD PTR __imp___acrt_iob_func
  00036	48 8d 0d 00 00
	00 00		 lea	 rcx, OFFSET FLAT:$SG211845
  0003d	48 89 4c 24 30	 mov	 QWORD PTR [rsp+48], rcx
  00042	48 8d 0d 00 00
	00 00		 lea	 rcx, OFFSET FLAT:$SG211846
  00049	48 89 4c 24 28	 mov	 QWORD PTR [rsp+40], rcx
  0004e	48 89 44 24 20	 mov	 QWORD PTR [rsp+32], rax
  00053	41 b9 03 00 00
	00		 mov	 r9d, 3
  00059	4c 8d 05 00 00
	00 00		 lea	 r8, OFFSET FLAT:$SG211847
  00060	ba 0b 24 00 00	 mov	 edx, 9227		; 0000240bH
  00065	48 8d 0d 00 00
	00 00		 lea	 rcx, OFFSET FLAT:$SG211848
  0006c	ff 15 00 00 00
	00		 call	 QWORD PTR __imp_fwritemsg

; 9228 :         return -1;

  00072	b8 ff ff ff ff	 mov	 eax, -1
  00077	eb 57		 jmp	 SHORT $LN1@qpid_cmd
$LN11@qpid_cmd:

; 9229 :     }
; 9230 : 
; 9231 :     // "Process ID = %d"
; 9232 :     WRMSG( HHC17013, "I", sysblk.hercules_pid );

  00079	b9 01 00 00 00	 mov	 ecx, 1
  0007e	ff 15 00 00 00
	00		 call	 QWORD PTR __imp___acrt_iob_func
  00084	48 8b 0d 00 00
	00 00		 mov	 rcx, QWORD PTR __imp_sysblk
  0008b	8b 49 6c	 mov	 ecx, DWORD PTR [rcx+108]
  0008e	89 4c 24 38	 mov	 DWORD PTR [rsp+56], ecx
  00092	48 8d 0d 00 00
	00 00		 lea	 rcx, OFFSET FLAT:$SG211849
  00099	48 89 4c 24 30	 mov	 QWORD PTR [rsp+48], rcx
  0009e	48 8d 0d 00 00
	00 00		 lea	 rcx, OFFSET FLAT:$SG211850
  000a5	48 89 4c 24 28	 mov	 QWORD PTR [rsp+40], rcx
  000aa	48 89 44 24 20	 mov	 QWORD PTR [rsp+32], rax
  000af	41 b9 03 00 00
	00		 mov	 r9d, 3
  000b5	4c 8d 05 00 00
	00 00		 lea	 r8, OFFSET FLAT:$SG211851
  000bc	ba 10 24 00 00	 mov	 edx, 9232		; 00002410H
  000c1	48 8d 0d 00 00
	00 00		 lea	 rcx, OFFSET FLAT:$SG211852
  000c8	ff 15 00 00 00
	00		 call	 QWORD PTR __imp_fwritemsg

; 9233 : 
; 9234 :     return 0;

  000ce	33 c0		 xor	 eax, eax
$LN1@qpid_cmd:

; 9235 : }

  000d0	48 83 c4 48	 add	 rsp, 72			; 00000048H
  000d4	c3		 ret	 0
qpid_cmd ENDP
_TEXT	ENDS
; Function compile flags: /Odtp
; File C:\papa\MyGit\hyperion-zvector\hsccmd.c
_TEXT	SEGMENT
i$ = 80
pszVAL$ = 88
szPF$ = 96
__$ArrayPad$ = 104
argc$ = 128
argv$ = 136
cmdline$ = 144
qpfkeys_cmd PROC

; 9183 : {

$LN15:
  00000	4c 89 44 24 18	 mov	 QWORD PTR [rsp+24], r8
  00005	48 89 54 24 10	 mov	 QWORD PTR [rsp+16], rdx
  0000a	89 4c 24 08	 mov	 DWORD PTR [rsp+8], ecx
  0000e	48 83 ec 78	 sub	 rsp, 120		; 00000078H
  00012	48 8b 05 00 00
	00 00		 mov	 rax, QWORD PTR __security_cookie
  00019	48 33 c4	 xor	 rax, rsp
  0001c	48 89 44 24 68	 mov	 QWORD PTR __$ArrayPad$[rsp], rax
$LN4@qpfkeys_cm:

; 9184 :     const char*  pszVAL;
; 9185 :     int          i;
; 9186 :     char         szPF[6];
; 9187 : 
; 9188 :     UNREFERENCED( cmdline );

  00021	33 c0		 xor	 eax, eax
  00023	85 c0		 test	 eax, eax
  00025	75 fa		 jne	 SHORT $LN4@qpfkeys_cm
$LN7@qpfkeys_cm:

; 9189 :     UNREFERENCED( argv );

  00027	33 c0		 xor	 eax, eax
  00029	85 c0		 test	 eax, eax
  0002b	75 fa		 jne	 SHORT $LN7@qpfkeys_cm

; 9190 : 
; 9191 :     if (argc != 1)

  0002d	83 bc 24 80 00
	00 00 01	 cmp	 DWORD PTR argc$[rsp], 1
  00035	74 51		 je	 SHORT $LN11@qpfkeys_cm

; 9192 :     {
; 9193 :         // "Missing or invalid argument(s)"
; 9194 :         WRMSG( HHC17000, "E" );

  00037	b9 01 00 00 00	 mov	 ecx, 1
  0003c	ff 15 00 00 00
	00		 call	 QWORD PTR __imp___acrt_iob_func
  00042	48 8d 0d 00 00
	00 00		 lea	 rcx, OFFSET FLAT:$SG211815
  00049	48 89 4c 24 30	 mov	 QWORD PTR [rsp+48], rcx
  0004e	48 8d 0d 00 00
	00 00		 lea	 rcx, OFFSET FLAT:$SG211816
  00055	48 89 4c 24 28	 mov	 QWORD PTR [rsp+40], rcx
  0005a	48 89 44 24 20	 mov	 QWORD PTR [rsp+32], rax
  0005f	41 b9 03 00 00
	00		 mov	 r9d, 3
  00065	4c 8d 05 00 00
	00 00		 lea	 r8, OFFSET FLAT:$SG211817
  0006c	ba ea 23 00 00	 mov	 edx, 9194		; 000023eaH
  00071	48 8d 0d 00 00
	00 00		 lea	 rcx, OFFSET FLAT:$SG211818
  00078	ff 15 00 00 00
	00		 call	 QWORD PTR __imp_fwritemsg

; 9195 :         return -1;

  0007e	b8 ff ff ff ff	 mov	 eax, -1
  00083	e9 cd 00 00 00	 jmp	 $LN1@qpfkeys_cm
$LN11@qpfkeys_cm:

; 9196 :     }
; 9197 : 
; 9198 : #if defined( _MSVC_ )
; 9199 :     for (i=1; i <= 48; i++)

  00088	c7 44 24 50 01
	00 00 00	 mov	 DWORD PTR i$[rsp], 1
  00090	eb 0a		 jmp	 SHORT $LN10@qpfkeys_cm
$LN8@qpfkeys_cm:
  00092	8b 44 24 50	 mov	 eax, DWORD PTR i$[rsp]
  00096	ff c0		 inc	 eax
  00098	89 44 24 50	 mov	 DWORD PTR i$[rsp], eax
$LN10@qpfkeys_cm:
  0009c	83 7c 24 50 30	 cmp	 DWORD PTR i$[rsp], 48	; 00000030H
  000a1	0f 8f ac 00 00
	00		 jg	 $LN9@qpfkeys_cm

; 9200 : #else // *Nix
; 9201 :     for (i=1; i <= 20; i++)
; 9202 : #endif
; 9203 :     {
; 9204 :         MSGBUF( szPF, "PF%02d", i );                    // (name)

  000a7	44 8b 4c 24 50	 mov	 r9d, DWORD PTR i$[rsp]
  000ac	4c 8d 05 00 00
	00 00		 lea	 r8, OFFSET FLAT:$SG211819
  000b3	ba 06 00 00 00	 mov	 edx, 6
  000b8	48 8d 4c 24 60	 lea	 rcx, QWORD PTR szPF$[rsp]
  000bd	ff 15 00 00 00
	00		 call	 QWORD PTR __imp_w32_snprintf

; 9205 :         if (!(pszVAL = get_symbol( szPF )) || !*pszVAL) // (value)

  000c3	48 8d 4c 24 60	 lea	 rcx, QWORD PTR szPF$[rsp]
  000c8	ff 15 00 00 00
	00		 call	 QWORD PTR __imp_get_symbol
  000ce	48 89 44 24 58	 mov	 QWORD PTR pszVAL$[rsp], rax
  000d3	48 83 7c 24 58
	00		 cmp	 QWORD PTR pszVAL$[rsp], 0
  000d9	74 0c		 je	 SHORT $LN13@qpfkeys_cm
  000db	48 8b 44 24 58	 mov	 rax, QWORD PTR pszVAL$[rsp]
  000e0	0f be 00	 movsx	 eax, BYTE PTR [rax]
  000e3	85 c0		 test	 eax, eax
  000e5	75 0c		 jne	 SHORT $LN12@qpfkeys_cm
$LN13@qpfkeys_cm:

; 9206 :             pszVAL = "UNDEFINED";

  000e7	48 8d 05 00 00
	00 00		 lea	 rax, OFFSET FLAT:$SG211822
  000ee	48 89 44 24 58	 mov	 QWORD PTR pszVAL$[rsp], rax
$LN12@qpfkeys_cm:

; 9207 : 
; 9208 :         // "%.4s %s"
; 9209 :         WRMSG( HHC17199, "I", szPF, pszVAL );

  000f3	b9 01 00 00 00	 mov	 ecx, 1
  000f8	ff 15 00 00 00
	00		 call	 QWORD PTR __imp___acrt_iob_func
  000fe	48 8b 4c 24 58	 mov	 rcx, QWORD PTR pszVAL$[rsp]
  00103	48 89 4c 24 40	 mov	 QWORD PTR [rsp+64], rcx
  00108	48 8d 4c 24 60	 lea	 rcx, QWORD PTR szPF$[rsp]
  0010d	48 89 4c 24 38	 mov	 QWORD PTR [rsp+56], rcx
  00112	48 8d 0d 00 00
	00 00		 lea	 rcx, OFFSET FLAT:$SG211823
  00119	48 89 4c 24 30	 mov	 QWORD PTR [rsp+48], rcx
  0011e	48 8d 0d 00 00
	00 00		 lea	 rcx, OFFSET FLAT:$SG211824
  00125	48 89 4c 24 28	 mov	 QWORD PTR [rsp+40], rcx
  0012a	48 89 44 24 20	 mov	 QWORD PTR [rsp+32], rax
  0012f	41 b9 03 00 00
	00		 mov	 r9d, 3
  00135	4c 8d 05 00 00
	00 00		 lea	 r8, OFFSET FLAT:$SG211825
  0013c	ba f9 23 00 00	 mov	 edx, 9209		; 000023f9H
  00141	48 8d 0d 00 00
	00 00		 lea	 rcx, OFFSET FLAT:$SG211826
  00148	ff 15 00 00 00
	00		 call	 QWORD PTR __imp_fwritemsg

; 9210 :     }

  0014e	e9 3f ff ff ff	 jmp	 $LN8@qpfkeys_cm
$LN9@qpfkeys_cm:

; 9211 : 
; 9212 :     return 0;

  00153	33 c0		 xor	 eax, eax
$LN1@qpfkeys_cm:

; 9213 : }

  00155	48 8b 4c 24 68	 mov	 rcx, QWORD PTR __$ArrayPad$[rsp]
  0015a	48 33 cc	 xor	 rcx, rsp
  0015d	e8 00 00 00 00	 call	 __security_check_cookie
  00162	48 83 c4 78	 add	 rsp, 120		; 00000078H
  00166	c3		 ret	 0
qpfkeys_cmd ENDP
_TEXT	ENDS
; Function compile flags: /Odtp
; File C:\papa\MyGit\hyperion-zvector\hsccmd.c
_TEXT	SEGMENT
cpu$ = 80
cpunum$ = 84
c$ = 88
regs$ = 96
tv170 = 104
tv207 = 108
tv69 = 112
tv138 = 120
buf$ = 128
__$ArrayPad$ = 144
argc$ = 176
argv$ = 184
cmdline$ = 192
qcpuid_cmd PROC

; 9104 : {

$LN27:
  00000	4c 89 44 24 18	 mov	 QWORD PTR [rsp+24], r8
  00005	48 89 54 24 10	 mov	 QWORD PTR [rsp+16], rdx
  0000a	89 4c 24 08	 mov	 DWORD PTR [rsp+8], ecx
  0000e	48 81 ec a8 00
	00 00		 sub	 rsp, 168		; 000000a8H
  00015	48 8b 05 00 00
	00 00		 mov	 rax, QWORD PTR __security_cookie
  0001c	48 33 c4	 xor	 rax, rsp
  0001f	48 89 84 24 90
	00 00 00	 mov	 QWORD PTR __$ArrayPad$[rsp], rax

; 9105 :     REGS* regs;
; 9106 :     int   cpu, cpunum = sysblk.pcpu;

  00027	48 8b 05 00 00
	00 00		 mov	 rax, QWORD PTR __imp_sysblk
  0002e	8b 80 54 13 00
	00		 mov	 eax, DWORD PTR [rax+4948]
  00034	89 44 24 54	 mov	 DWORD PTR cpunum$[rsp], eax
$LN4@qcpuid_cmd:

; 9107 :     char  buf[16];
; 9108 :     BYTE  c;
; 9109 : 
; 9110 :     UNREFERENCED( cmdline );

  00038	33 c0		 xor	 eax, eax
  0003a	85 c0		 test	 eax, eax
  0003c	75 fa		 jne	 SHORT $LN4@qcpuid_cmd
$LN7@qcpuid_cmd:

; 9111 :     UNREFERENCED( argv );

  0003e	33 c0		 xor	 eax, eax
  00040	85 c0		 test	 eax, eax
  00042	75 fa		 jne	 SHORT $LN7@qcpuid_cmd

; 9112 : 
; 9113 :     if (argc < 1 || argc > 2)

  00044	83 bc 24 b0 00
	00 00 01	 cmp	 DWORD PTR argc$[rsp], 1
  0004c	7c 0a		 jl	 SHORT $LN15@qcpuid_cmd
  0004e	83 bc 24 b0 00
	00 00 02	 cmp	 DWORD PTR argc$[rsp], 2
  00056	7e 75		 jle	 SHORT $LN14@qcpuid_cmd
$LN15@qcpuid_cmd:

; 9114 :     {
; 9115 :         // "Invalid command usage. Type 'help %s' for assistance."
; 9116 :         WRMSG( HHC02299, "E", argv[0] );

  00058	b8 08 00 00 00	 mov	 eax, 8
  0005d	48 6b c0 00	 imul	 rax, rax, 0
  00061	48 89 44 24 70	 mov	 QWORD PTR tv69[rsp], rax
  00066	b9 01 00 00 00	 mov	 ecx, 1
  0006b	ff 15 00 00 00
	00		 call	 QWORD PTR __imp___acrt_iob_func
  00071	48 8b 8c 24 b8
	00 00 00	 mov	 rcx, QWORD PTR argv$[rsp]
  00079	48 8b 54 24 70	 mov	 rdx, QWORD PTR tv69[rsp]
  0007e	48 8b 0c 11	 mov	 rcx, QWORD PTR [rcx+rdx]
  00082	48 89 4c 24 38	 mov	 QWORD PTR [rsp+56], rcx
  00087	48 8d 0d 00 00
	00 00		 lea	 rcx, OFFSET FLAT:$SG211769
  0008e	48 89 4c 24 30	 mov	 QWORD PTR [rsp+48], rcx
  00093	48 8d 0d 00 00
	00 00		 lea	 rcx, OFFSET FLAT:$SG211770
  0009a	48 89 4c 24 28	 mov	 QWORD PTR [rsp+40], rcx
  0009f	48 89 44 24 20	 mov	 QWORD PTR [rsp+32], rax
  000a4	41 b9 03 00 00
	00		 mov	 r9d, 3
  000aa	4c 8d 05 00 00
	00 00		 lea	 r8, OFFSET FLAT:$SG211771
  000b1	ba 9c 23 00 00	 mov	 edx, 9116		; 0000239cH
  000b6	48 8d 0d 00 00
	00 00		 lea	 rcx, OFFSET FLAT:$SG211772
  000bd	ff 15 00 00 00
	00		 call	 QWORD PTR __imp_fwritemsg

; 9117 :         return -1;

  000c3	b8 ff ff ff ff	 mov	 eax, -1
  000c8	e9 57 03 00 00	 jmp	 $LN1@qcpuid_cmd
$LN14@qcpuid_cmd:

; 9118 :     }
; 9119 : 
; 9120 :     if (argc == 2)

  000cd	83 bc 24 b0 00
	00 00 02	 cmp	 DWORD PTR argc$[rsp], 2
  000d5	0f 85 1f 01 00
	00		 jne	 $LN16@qcpuid_cmd

; 9121 :     {
; 9122 :         if (strcasecmp( argv[1], "ALL" ) == 0)

  000db	b8 08 00 00 00	 mov	 eax, 8
  000e0	48 6b c0 01	 imul	 rax, rax, 1
  000e4	48 8d 15 00 00
	00 00		 lea	 rdx, OFFSET FLAT:$SG211776
  000eb	48 8b 8c 24 b8
	00 00 00	 mov	 rcx, QWORD PTR argv$[rsp]
  000f3	48 8b 0c 01	 mov	 rcx, QWORD PTR [rcx+rax]
  000f7	ff 15 00 00 00
	00		 call	 QWORD PTR __imp__stricmp
  000fd	85 c0		 test	 eax, eax
  000ff	75 0d		 jne	 SHORT $LN17@qcpuid_cmd

; 9123 :             cpunum = -1;

  00101	c7 44 24 54 ff
	ff ff ff	 mov	 DWORD PTR cpunum$[rsp], -1
  00109	e9 ec 00 00 00	 jmp	 $LN18@qcpuid_cmd
$LN17@qcpuid_cmd:

; 9124 :         else if (0
; 9125 :             || sscanf( argv[1], "%x%c", &cpunum, &c) != 1
; 9126 :             || cpunum < 0
; 9127 :             || cpunum >= sysblk.hicpu
; 9128 :             || !IS_CPU_ONLINE( cpunum )

  0010e	33 c0		 xor	 eax, eax
  00110	85 c0		 test	 eax, eax
  00112	75 65		 jne	 SHORT $LN20@qcpuid_cmd
  00114	b8 08 00 00 00	 mov	 eax, 8
  00119	48 6b c0 01	 imul	 rax, rax, 1
  0011d	4c 8d 4c 24 58	 lea	 r9, QWORD PTR c$[rsp]
  00122	4c 8d 44 24 54	 lea	 r8, QWORD PTR cpunum$[rsp]
  00127	48 8d 15 00 00
	00 00		 lea	 rdx, OFFSET FLAT:$SG211779
  0012e	48 8b 8c 24 b8
	00 00 00	 mov	 rcx, QWORD PTR argv$[rsp]
  00136	48 8b 0c 01	 mov	 rcx, QWORD PTR [rcx+rax]
  0013a	e8 00 00 00 00	 call	 sscanf
  0013f	83 f8 01	 cmp	 eax, 1
  00142	75 35		 jne	 SHORT $LN20@qcpuid_cmd
  00144	83 7c 24 54 00	 cmp	 DWORD PTR cpunum$[rsp], 0
  00149	7c 2e		 jl	 SHORT $LN20@qcpuid_cmd
  0014b	48 8b 05 00 00
	00 00		 mov	 rax, QWORD PTR __imp_sysblk
  00152	8b 80 08 01 00
	00		 mov	 eax, DWORD PTR [rax+264]
  00158	39 44 24 54	 cmp	 DWORD PTR cpunum$[rsp], eax
  0015c	7d 1b		 jge	 SHORT $LN20@qcpuid_cmd
  0015e	48 63 44 24 54	 movsxd	 rax, DWORD PTR cpunum$[rsp]
  00163	48 8b 0d 00 00
	00 00		 mov	 rcx, QWORD PTR __imp_sysblk
  0016a	48 83 bc c1 98
	0b 00 00 00	 cmp	 QWORD PTR [rcx+rax*8+2968], 0
  00173	0f 85 81 00 00
	00		 jne	 $LN19@qcpuid_cmd
$LN20@qcpuid_cmd:

; 9129 :         )
; 9130 :         {
; 9131 :             // "Invalid argument %s%s"
; 9132 :             WRMSG( HHC02205, "E", argv[1], ": target processor is invalid" );

  00179	b8 08 00 00 00	 mov	 eax, 8
  0017e	48 6b c0 01	 imul	 rax, rax, 1
  00182	48 89 44 24 78	 mov	 QWORD PTR tv138[rsp], rax
  00187	b9 01 00 00 00	 mov	 ecx, 1
  0018c	ff 15 00 00 00
	00		 call	 QWORD PTR __imp___acrt_iob_func
  00192	48 8d 0d 00 00
	00 00		 lea	 rcx, OFFSET FLAT:$SG211780
  00199	48 89 4c 24 40	 mov	 QWORD PTR [rsp+64], rcx
  0019e	48 8b 8c 24 b8
	00 00 00	 mov	 rcx, QWORD PTR argv$[rsp]
  001a6	48 8b 54 24 78	 mov	 rdx, QWORD PTR tv138[rsp]
  001ab	48 8b 0c 11	 mov	 rcx, QWORD PTR [rcx+rdx]
  001af	48 89 4c 24 38	 mov	 QWORD PTR [rsp+56], rcx
  001b4	48 8d 0d 00 00
	00 00		 lea	 rcx, OFFSET FLAT:$SG211781
  001bb	48 89 4c 24 30	 mov	 QWORD PTR [rsp+48], rcx
  001c0	48 8d 0d 00 00
	00 00		 lea	 rcx, OFFSET FLAT:$SG211782
  001c7	48 89 4c 24 28	 mov	 QWORD PTR [rsp+40], rcx
  001cc	48 89 44 24 20	 mov	 QWORD PTR [rsp+32], rax
  001d1	41 b9 03 00 00
	00		 mov	 r9d, 3
  001d7	4c 8d 05 00 00
	00 00		 lea	 r8, OFFSET FLAT:$SG211783
  001de	ba ac 23 00 00	 mov	 edx, 9132		; 000023acH
  001e3	48 8d 0d 00 00
	00 00		 lea	 rcx, OFFSET FLAT:$SG211784
  001ea	ff 15 00 00 00
	00		 call	 QWORD PTR __imp_fwritemsg

; 9133 :             return -1;

  001f0	b8 ff ff ff ff	 mov	 eax, -1
  001f5	e9 2a 02 00 00	 jmp	 $LN1@qcpuid_cmd
$LN19@qcpuid_cmd:
$LN18@qcpuid_cmd:
$LN16@qcpuid_cmd:

; 9134 :         }
; 9135 :     }
; 9136 : 
; 9137 :     /* Show 'CPUID' from SYSBLK */
; 9138 :     qcpuid_cpuid( sysblk.cpuid, "SYSBLK" );

  001fa	48 8d 15 00 00
	00 00		 lea	 rdx, OFFSET FLAT:$SG211785
  00201	48 8b 05 00 00
	00 00		 mov	 rax, QWORD PTR __imp_sysblk
  00208	48 8b 88 c8 00
	00 00		 mov	 rcx, QWORD PTR [rax+200]
  0020f	e8 00 00 00 00	 call	 qcpuid_cpuid

; 9139 : 
; 9140 :     /* Show 'CPUID' from REGS */
; 9141 :     for (cpu=0; cpu < sysblk.hicpu; cpu++)

  00214	c7 44 24 50 00
	00 00 00	 mov	 DWORD PTR cpu$[rsp], 0
  0021c	eb 0a		 jmp	 SHORT $LN10@qcpuid_cmd
$LN8@qcpuid_cmd:
  0021e	8b 44 24 50	 mov	 eax, DWORD PTR cpu$[rsp]
  00222	ff c0		 inc	 eax
  00224	89 44 24 50	 mov	 DWORD PTR cpu$[rsp], eax
$LN10@qcpuid_cmd:
  00228	48 8b 05 00 00
	00 00		 mov	 rax, QWORD PTR __imp_sysblk
  0022f	8b 80 08 01 00
	00		 mov	 eax, DWORD PTR [rax+264]
  00235	39 44 24 50	 cmp	 DWORD PTR cpu$[rsp], eax
  00239	0f 8d c5 00 00
	00		 jge	 $LN9@qcpuid_cmd

; 9142 :     {
; 9143 :         if (1
; 9144 :             && IS_CPU_ONLINE( cpu )
; 9145 :             && (cpunum < 0 || cpu == cpunum)

  0023f	33 c0		 xor	 eax, eax
  00241	83 f8 01	 cmp	 eax, 1
  00244	0f 84 b5 00 00
	00		 je	 $LN21@qcpuid_cmd
  0024a	48 63 44 24 50	 movsxd	 rax, DWORD PTR cpu$[rsp]
  0024f	48 8b 0d 00 00
	00 00		 mov	 rcx, QWORD PTR __imp_sysblk
  00256	48 83 bc c1 98
	0b 00 00 00	 cmp	 QWORD PTR [rcx+rax*8+2968], 0
  0025f	0f 84 9a 00 00
	00		 je	 $LN21@qcpuid_cmd
  00265	83 7c 24 54 00	 cmp	 DWORD PTR cpunum$[rsp], 0
  0026a	7c 0e		 jl	 SHORT $LN22@qcpuid_cmd
  0026c	8b 44 24 54	 mov	 eax, DWORD PTR cpunum$[rsp]
  00270	39 44 24 50	 cmp	 DWORD PTR cpu$[rsp], eax
  00274	0f 85 85 00 00
	00		 jne	 $LN21@qcpuid_cmd
$LN22@qcpuid_cmd:

; 9146 :         )
; 9147 :         {
; 9148 :             regs = sysblk.regs[ cpu ];

  0027a	48 63 44 24 50	 movsxd	 rax, DWORD PTR cpu$[rsp]
  0027f	48 8b 0d 00 00
	00 00		 mov	 rcx, QWORD PTR __imp_sysblk
  00286	48 8b 84 c1 98
	0b 00 00	 mov	 rax, QWORD PTR [rcx+rax*8+2968]
  0028e	48 89 44 24 60	 mov	 QWORD PTR regs$[rsp], rax

; 9149 :             MSGBUF( buf, "%s%02X",

  00293	48 8b 44 24 60	 mov	 rax, QWORD PTR regs$[rsp]
  00298	0f b7 80 3c 08
	00 00		 movzx	 eax, WORD PTR [rax+2108]
  0029f	89 44 24 68	 mov	 DWORD PTR tv170[rsp], eax
  002a3	48 8b 4c 24 60	 mov	 rcx, QWORD PTR regs$[rsp]
  002a8	0f b7 89 3c 08
	00 00		 movzx	 ecx, WORD PTR [rcx+2108]
