; Listing generated by Microsoft (R) Optimizing Compiler Version 19.34.31937.0 

include listing.inc

INCLUDELIB MSVCRTD
INCLUDELIB OLDNAMES

_DATA	SEGMENT
$SG159169 DB	'DAT-Off', 00H
$SG159170 DB	'Primary', 00H
$SG159171 DB	'AR', 00H
	ORG $+5
$SG159172 DB	'Secondary', 00H
	ORG $+2
$SG159173 DB	'Home', 00H
	ORG $+7
$SG159174 DB	'PER/DAT-Off', 00H
	ORG $+4
$SG159175 DB	'PER/Primary', 00H
$SG159176 DB	'PER/AR', 00H
	ORG $+5
$SG159177 DB	'PER/Secondary', 00H
	ORG $+2
$SG159178 DB	'PER/Home', 00H
_DATA	ENDS
CONST	SEGMENT
CKD_ENDTRK DB	0ffH
	DB	0ffH
	DB	0ffH
	DB	0ffH
	DB	0ffH
	DB	0ffH
	DB	0ffH
	DB	0ffH
?fbyte@?1??enable_lparmode@@9@9 DD 020H			; `enable_lparmode'::`2'::fbyte
?fbit@?1??enable_lparmode@@9@9 DD 08H			; `enable_lparmode'::`2'::fbit
CONST	ENDS
PUBLIC	__local_stdio_printf_options
PUBLIC	__local_stdio_scanf_options
PUBLIC	_vsnprintf_s_l
PUBLIC	_vsnprintf_s
PUBLIC	_vsscanf_l
PUBLIC	sscanf
PUBLIC	aia_cmd
PUBLIC	createCpuId
PUBLIC	setAllCpuIds
PUBLIC	setAllCpuIds_lock
PUBLIC	setCpuIdregs
PUBLIC	setCpuId
PUBLIC	resetAllCpuIds
PUBLIC	setOperationMode
PUBLIC	enable_lparmode
PUBLIC	s370_archdep_pr_cmd
PUBLIC	s390_archdep_pr_cmd
PUBLIC	z900_archdep_pr_cmd
PUBLIC	aea_cmd
PUBLIC	traceopt_cmd
PUBLIC	tlb_cmd
PUBLIC	ar_cmd
PUBLIC	pr_cmd
PUBLIC	psw_cmd
PUBLIC	abs_or_r_cmd
PUBLIC	u_cmd
PUBLIC	v_cmd
PUBLIC	tf_cmd
PUBLIC	trace_cmd
PUBLIC	txf_cmd
PUBLIC	auto_trace_cmd
PUBLIC	ipending_cmd
PUBLIC	bear_cmd
PUBLIC	gpr_cmd
PUBLIC	fpr_cmd
PUBLIC	fpc_cmd
PUBLIC	cr_cmd
PUBLIC	i_cmd
PUBLIC	__real@4059000000000000
EXTRN	__report_rangecheckfailure:PROC
EXTRN	__imp_tolower:PROC
EXTRN	__imp__errno:PROC
EXTRN	strchr:PROC
EXTRN	strcmp:PROC
EXTRN	__imp__stricmp:PROC
EXTRN	__imp__strnicmp:PROC
EXTRN	__imp_strdup:PROC
EXTRN	__imp_IsDebuggerPresent:PROC
EXTRN	__imp_OutputDebugStringA:PROC
EXTRN	__imp_calloc:PROC
EXTRN	__imp_free:PROC
EXTRN	__imp_malloc:PROC
EXTRN	__imp_atoi:PROC
EXTRN	__imp_strtoul:PROC
EXTRN	__imp___acrt_iob_func:PROC
EXTRN	__imp_fopen:PROC
EXTRN	__imp___stdio_common_vsnprintf_s:PROC
EXTRN	__imp___stdio_common_vsscanf:PROC
EXTRN	__imp_hthread_obtain_lock:PROC
EXTRN	__imp_hthread_try_obtain_lock:PROC
EXTRN	__imp_hthread_test_lock:PROC
EXTRN	__imp_hthread_release_lock:PROC
EXTRN	__imp_hthread_signal_condition:PROC
EXTRN	__imp_hthread_wait_condition:PROC
EXTRN	__imp_strlcpy:PROC
EXTRN	__imp_strlcat:PROC
EXTRN	__imp_rtrim:PROC
EXTRN	__imp_ptyp2short:PROC
EXTRN	__imp_tf_MAX_RECSIZE:PROC
EXTRN	__imp_tf_close_locked:PROC
EXTRN	__imp_tf_autostop:PROC
EXTRN	__imp_w32_strerror:PROC
EXTRN	__imp_w32_snprintf:PROC
EXTRN	__imp_w32_fclose:PROC
EXTRN	copy_psw:PROC
EXTRN	display_psw:PROC
EXTRN	tac2long:PROC
EXTRN	find_device_by_devnum:PROC
EXTRN	parse_single_devnum:PROC
EXTRN	display_gregs:PROC
EXTRN	display_fregs:PROC
EXTRN	display_cregs:PROC
EXTRN	display_aregs:PROC
EXTRN	FormatCRW:PROC
EXTRN	alter_display_real_or_abs:PROC
EXTRN	alter_display_virt:PROC
EXTRN	disasm_stor:PROC
EXTRN	device_attention:PROC
EXTRN	__imp_fwritemsg:PROC
EXTRN	__imp_logmsg:PROC
EXTRN	__GSHandlerCheck:PROC
EXTRN	__security_check_cookie:PROC
EXTRN	__imp_sysblk:BYTE
EXTRN	__imp_panel_command:QWORD
EXTRN	__security_cookie:QWORD
EXTRN	_fltused:DWORD
_DATA	SEGMENT
COMM	?_OptionsStorage@?1??__local_stdio_printf_options@@9@9:QWORD							; `__local_stdio_printf_options'::`2'::_OptionsStorage
COMM	?_OptionsStorage@?1??__local_stdio_scanf_options@@9@9:QWORD							; `__local_stdio_scanf_options'::`2'::_OptionsStorage
_DATA	ENDS
_BSS	SEGMENT
$SG159067 DB	01H DUP (?)
$SG159099 DB	01H DUP (?)
$SG159131 DB	01H DUP (?)
$SG159320 DB	01H DUP (?)
$SG159347 DB	01H DUP (?)
$SG159701 DB	01H DUP (?)
$SG160112 DB	01H DUP (?)
$SG160114 DB	01H DUP (?)
$SG160243 DB	01H DUP (?)
$SG160252 DB	01H DUP (?)
$SG160482 DB	01H DUP (?)
$SG160484 DB	01H DUP (?)
$SG160486 DB	01H DUP (?)
$SG160488 DB	01H DUP (?)
$SG160490 DB	01H DUP (?)
$SG160492 DB	01H DUP (?)
$SG160494 DB	01H DUP (?)
$SG160496 DB	01H DUP (?)
$SG160714 DB	01H DUP (?)
$SG160720 DB	01H DUP (?)
$SG160726 DB	01H DUP (?)
$SG160732 DB	01H DUP (?)
$SG160738 DB	01H DUP (?)
$SG160744 DB	01H DUP (?)
$SG160750 DB	01H DUP (?)
$SG160756 DB	01H DUP (?)
$SG160762 DB	01H DUP (?)
$SG160768 DB	01H DUP (?)
$SG160792 DB	01H DUP (?)
$SG160833 DB	01H DUP (?)
$SG160840 DB	01H DUP (?)
$SG160847 DB	01H DUP (?)
$SG160854 DB	01H DUP (?)
$SG160861 DB	01H DUP (?)
$SG160868 DB	01H DUP (?)
$SG160875 DB	01H DUP (?)
$SG160882 DB	01H DUP (?)
$SG160889 DB	01H DUP (?)
$SG160896 DB	01H DUP (?)
$SG160953 DB	01H DUP (?)
$SG160958 DB	01H DUP (?)
$SG160964 DB	01H DUP (?)
$SG160970 DB	01H DUP (?)
$SG160976 DB	01H DUP (?)
$SG160982 DB	01H DUP (?)
$SG161070 DB	01H DUP (?)
$SG161076 DB	01H DUP (?)
$SG161078 DB	01H DUP (?)
$SG161080 DB	01H DUP (?)
$SG161082 DB	01H DUP (?)
$SG161173 DB	01H DUP (?)
$SG161182 DB	01H DUP (?)
$SG161231 DB	01H DUP (?)
$SG161243 DB	01H DUP (?)
$SG161286 DB	01H DUP (?)
$SG161295 DB	01H DUP (?)
$SG161338 DB	01H DUP (?)
_BSS	ENDS
;	COMDAT pdata
pdata	SEGMENT
$pdata$_vsnprintf_s_l DD imagerel $LN5
	DD	imagerel $LN5+127
	DD	imagerel $unwind$_vsnprintf_s_l
pdata	ENDS
;	COMDAT pdata
pdata	SEGMENT
$pdata$_vsnprintf_s DD imagerel $LN3
	DD	imagerel $LN3+73
	DD	imagerel $unwind$_vsnprintf_s
pdata	ENDS
;	COMDAT pdata
pdata	SEGMENT
$pdata$_vsscanf_l DD imagerel $LN3
	DD	imagerel $LN3+80
	DD	imagerel $unwind$_vsscanf_l
pdata	ENDS
;	COMDAT pdata
pdata	SEGMENT
$pdata$sscanf DD imagerel $LN3
	DD	imagerel $LN3+79
	DD	imagerel $unwind$sscanf
pdata	ENDS
pdata	SEGMENT
$pdata$DebuggerTrace DD imagerel DebuggerTrace
	DD	imagerel DebuggerTrace+247
	DD	imagerel $unwind$DebuggerTrace
$pdata$strcaseabbrev DD imagerel strcaseabbrev
	DD	imagerel strcaseabbrev+320
	DD	imagerel $unwind$strcaseabbrev
$pdata$strupper DD imagerel strupper
	DD	imagerel strupper+114
	DD	imagerel $unwind$strupper
$pdata$aia_cmd DD imagerel $LN14
	DD	imagerel $LN14+867
	DD	imagerel $unwind$aia_cmd
$pdata$createCpuId DD imagerel $LN3
	DD	imagerel $LN3+135
	DD	imagerel $unwind$createCpuId
$pdata$setAllCpuIds DD imagerel $LN17
	DD	imagerel $LN17+434
	DD	imagerel $unwind$setAllCpuIds
$pdata$setAllCpuIds_lock DD imagerel $LN3
	DD	imagerel $LN3+98
	DD	imagerel $unwind$setAllCpuIds_lock
$pdata$setCpuIdregs DD imagerel $LN24
	DD	imagerel $LN24+728
	DD	imagerel $unwind$setCpuIdregs
$pdata$setCpuId DD imagerel $LN5
	DD	imagerel $LN5+127
	DD	imagerel $unwind$setCpuId
$pdata$resetAllCpuIds DD imagerel $LN3
	DD	imagerel $LN3+40
	DD	imagerel $unwind$resetAllCpuIds
$pdata$setOperationMode DD imagerel $LN7
	DD	imagerel $LN7+135
	DD	imagerel $unwind$setOperationMode
$pdata$enable_lparmode DD imagerel $LN5
	DD	imagerel $LN5+539
	DD	imagerel $unwind$enable_lparmode
$pdata$Interrupt_Lock_Obtained DD imagerel Interrupt_Lock_Obtained
	DD	imagerel Interrupt_Lock_Obtained+269
	DD	imagerel $unwind$Interrupt_Lock_Obtained
$pdata$Obtain_Interrupt_Lock DD imagerel Obtain_Interrupt_Lock
	DD	imagerel Obtain_Interrupt_Lock+88
	DD	imagerel $unwind$Obtain_Interrupt_Lock
$pdata$Try_Obtain_Interrupt_Lock DD imagerel Try_Obtain_Interrupt_Lock
	DD	imagerel Try_Obtain_Interrupt_Lock+132
	DD	imagerel $unwind$Try_Obtain_Interrupt_Lock
$pdata$Release_Interrupt_Lock DD imagerel Release_Interrupt_Lock
	DD	imagerel Release_Interrupt_Lock+71
	DD	imagerel $unwind$Release_Interrupt_Lock
$pdata$s370_archdep_pr_cmd DD imagerel $LN7
	DD	imagerel $LN7+553
	DD	imagerel $unwind$s370_archdep_pr_cmd
$pdata$s390_archdep_pr_cmd DD imagerel $LN7
	DD	imagerel $LN7+553
	DD	imagerel $unwind$s390_archdep_pr_cmd
$pdata$z900_archdep_pr_cmd DD imagerel $LN7
	DD	imagerel $LN7+556
	DD	imagerel $unwind$z900_archdep_pr_cmd
$pdata$devnotfound_msg DD imagerel devnotfound_msg
	DD	imagerel devnotfound_msg+129
	DD	imagerel $unwind$devnotfound_msg
$pdata$missing_devnum DD imagerel missing_devnum
	DD	imagerel missing_devnum+80
	DD	imagerel $unwind$missing_devnum
$pdata$aea_mode_str DD imagerel aea_mode_str
	DD	imagerel aea_mode_str+67
	DD	imagerel $unwind$aea_mode_str
$pdata$report_aea DD imagerel report_aea
	DD	imagerel report_aea+1858
	DD	imagerel $unwind$report_aea
$pdata$aea_cmd DD imagerel $LN14
	DD	imagerel $LN14+546
	DD	imagerel $unwind$aea_cmd
$pdata$traceopt_cmd DD imagerel $LN37
	DD	imagerel $LN37+1509
	DD	imagerel $unwind$traceopt_cmd
$pdata$tlb_cmd DD imagerel $LN52
	DD	imagerel $LN52+3432
	DD	imagerel $unwind$tlb_cmd
$pdata$ar_cmd DD imagerel $LN13
	DD	imagerel $LN13+625
	DD	imagerel $unwind$ar_cmd
$pdata$pr_cmd DD imagerel $LN16
	DD	imagerel $LN16+481
	DD	imagerel $unwind$pr_cmd
$pdata$psw_cmd DD imagerel $LN91
	DD	imagerel $LN91+4015
	DD	imagerel $unwind$psw_cmd
$pdata$abs_or_r_cmd DD imagerel $LN10
	DD	imagerel $LN10+423
	DD	imagerel $unwind$abs_or_r_cmd
$pdata$u_cmd DD	imagerel $LN10
	DD	imagerel $LN10+434
	DD	imagerel $unwind$u_cmd
$pdata$v_cmd DD	imagerel $LN10
	DD	imagerel $LN10+434
	DD	imagerel $unwind$v_cmd
$pdata$tf_cmd DD imagerel $LN150
	DD	imagerel $LN150+5018
	DD	imagerel $unwind$tf_cmd
$pdata$trace_cmd DD imagerel $LN146
	DD	imagerel $LN146+5305
	DD	imagerel $unwind$trace_cmd
$pdata$txf_cmd DD imagerel $LN128
	DD	imagerel $LN128+6303
	DD	imagerel $unwind$txf_cmd
$pdata$auto_trace_cmd DD imagerel $LN16
	DD	imagerel $LN16+869
	DD	imagerel $unwind$auto_trace_cmd
$pdata$ipending_cmd DD imagerel $LN163
	DD	imagerel $LN163+15942
	DD	imagerel $unwind$ipending_cmd
$pdata$bear_cmd DD imagerel $LN16
	DD	imagerel $LN16+1273
	DD	imagerel $unwind$bear_cmd
$pdata$gpr_cmd DD imagerel $LN13
	DD	imagerel $LN13+1154
	DD	imagerel $unwind$gpr_cmd
$pdata$fpr_cmd DD imagerel $LN17
	DD	imagerel $LN17+1285
	DD	imagerel $unwind$fpr_cmd
$pdata$fpc_cmd DD imagerel $LN11
	DD	imagerel $LN11+952
	DD	imagerel $unwind$fpc_cmd
$pdata$cr_cmd DD imagerel $LN12
	DD	imagerel $LN12+974
	DD	imagerel $unwind$cr_cmd
$pdata$i_cmd DD	imagerel $LN16
	DD	imagerel $LN16+894
	DD	imagerel $unwind$i_cmd
pdata	ENDS
;	COMDAT __real@4059000000000000
CONST	SEGMENT
__real@4059000000000000 DQ 04059000000000000r	; 100
CONST	ENDS
_DATA	SEGMENT
	ORG $+3
$SG159066 DB	'%llx', 00H
	ORG $+3
$SG159068 DB	'E', 00H
	ORG $+2
$SG159069 DB	'HHC02205%s Invalid argument %s%s', 0aH, 00H
	ORG $+2
$SG159074 DB	'E', 00H
	ORG $+2
$SG159070 DB	's370_archdep_pr_cmd', 00H
$SG159079 DB	'I', 00H
	ORG $+2
$SG159071 DB	'hscemode.c', 00H
	ORG $+1
$SG159100 DB	'E', 00H
	ORG $+2
$SG159073 DB	'A:%16.16llX  Addressing exception', 00H
	ORG $+2
$SG159106 DB	'E', 00H
	ORG $+2
$SG159075 DB	'HHC02290%s %s', 0aH, 00H
	ORG $+1
$SG159076 DB	's370_archdep_pr_cmd', 00H
$SG159111 DB	'I', 00H
	ORG $+2
$SG159077 DB	'hscemode.c', 00H
	ORG $+1
$SG159132 DB	'E', 00H
	ORG $+2
$SG159078 DB	'%16.16llX', 00H
	ORG $+2
$SG159138 DB	'E', 00H
	ORG $+2
$SG159080 DB	'HHC02277%s Prefix register: %s', 0aH, 00H
$SG159081 DB	's370_archdep_pr_cmd', 00H
$SG159143 DB	'I', 00H
	ORG $+2
$SG159082 DB	'hscemode.c', 00H
	ORG $+1
$SG159098 DB	'%llx', 00H
	ORG $+3
$SG159153 DB	'E', 00H
	ORG $+2
$SG159101 DB	'HHC02205%s Invalid argument %s%s', 0aH, 00H
	ORG $+2
$SG159159 DB	'E', 00H
	ORG $+2
$SG159102 DB	's390_archdep_pr_cmd', 00H
$SG159199 DB	'I', 00H
	ORG $+2
$SG159103 DB	'C:\papa\MyGit\hyperion-zvector\hscemode.c', 00H
	ORG $+2
$SG159206 DB	' %2.2X', 00H
	ORG $+1
$SG159212 DB	'I', 00H
	ORG $+2
$SG159105 DB	'A:%16.16llX  Addressing exception', 00H
	ORG $+2
$SG159210 DB	' %2.2X', 00H
	ORG $+1
$SG159225 DB	'I', 00H
	ORG $+2
$SG159107 DB	'HHC02290%s %s', 0aH, 00H
	ORG $+1
$SG159108 DB	's390_archdep_pr_cmd', 00H
$SG159230 DB	'I', 00H
	ORG $+2
$SG159109 DB	'C:\papa\MyGit\hyperion-zvector\hscemode.c', 00H
	ORG $+2
$SG159219 DB	' %2.2X', 00H
	ORG $+1
$SG159235 DB	'I', 00H
	ORG $+2
$SG159110 DB	'%16.16llX', 00H
	ORG $+2
$SG159223 DB	' %2.2X', 00H
	ORG $+1
$SG159240 DB	'I', 00H
	ORG $+2
$SG159112 DB	'HHC02277%s Prefix register: %s', 0aH, 00H
$SG159113 DB	's390_archdep_pr_cmd', 00H
$SG159245 DB	'I', 00H
	ORG $+2
$SG159114 DB	'C:\papa\MyGit\hyperion-zvector\hscemode.c', 00H
	ORG $+2
$SG159130 DB	'%llx', 00H
	ORG $+3
$SG159251 DB	'I', 00H
	ORG $+2
$SG159133 DB	'HHC02205%s Invalid argument %s%s', 0aH, 00H
	ORG $+2
$SG159277 DB	'online', 00H
	ORG $+1
$SG159278 DB	'E', 00H
	ORG $+2
$SG159134 DB	'z900_archdep_pr_cmd', 00H
$SG159284 DB	'I', 00H
	ORG $+2
$SG159135 DB	'C:\papa\MyGit\hyperion-zvector\hscemode.c', 00H
	ORG $+2
$SG159313 DB	'E', 00H
	ORG $+2
$SG159137 DB	'A:%16.16llX  Addressing exception', 00H
	ORG $+2
$SG159321 DB	'NOREGS', 00H
	ORG $+1
$SG159325 DB	'I', 00H
	ORG $+2
$SG159139 DB	'HHC02290%s %s', 0aH, 00H
	ORG $+1
$SG159140 DB	'z900_archdep_pr_cmd', 00H
$SG159341 DB	'E', 00H
	ORG $+2
$SG159141 DB	'C:\papa\MyGit\hyperion-zvector\hscemode.c', 00H
	ORG $+2
$SG159337 DB	'NOREGS', 00H
	ORG $+1
$SG159352 DB	'I', 00H
	ORG $+2
$SG159142 DB	'%16.16llX', 00H
	ORG $+2
$SG159348 DB	'NOREGS', 00H
	ORG $+1
$SG159380 DB	'E', 00H
	ORG $+2
$SG159144 DB	'HHC02277%s Prefix register: %s', 0aH, 00H
$SG159145 DB	'z900_archdep_pr_cmd', 00H
$SG159385 DB	'I', 00H
	ORG $+2
$SG159146 DB	'C:\papa\MyGit\hyperion-zvector\hscemode.c', 00H
	ORG $+2
$SG159379 DB	'online', 00H
	ORG $+1
$SG159392 DB	'I', 00H
	ORG $+2
$SG159154 DB	'HHC02200%s %1d:%04X device not found', 0aH, 00H
	ORG $+2
$SG159155 DB	'devnotfound_msg', 00H
$SG159156 DB	'C:\papa\MyGit\hyperion-zvector\hscemode.c', 00H
	ORG $+2
$SG159443 DB	'online', 00H
	ORG $+1
$SG159444 DB	'W', 00H
	ORG $+2
$SG159160 DB	'HHC02201%s Device number missing', 0aH, 00H
	ORG $+2
$SG159449 DB	'I', 00H
	ORG $+2
$SG159161 DB	'missing_devnum', 00H
	ORG $+1
$SG159162 DB	'C:\papa\MyGit\hyperion-zvector\hscemode.c', 00H
	ORG $+6
$SG159198 DB	'aea mode   %s', 00H
	ORG $+2
$SG159200 DB	'HHC02282%s %s', 0aH, 00H
	ORG $+1
$SG159207 DB	' %2d', 00H
	ORG $+3
?name@?1??aea_mode_str@@9@9 DQ FLAT:$SG159169		; `aea_mode_str'::`2'::name
	DQ	FLAT:$SG159170
	DQ	FLAT:$SG159171
	DQ	FLAT:$SG159172
	DQ	FLAT:$SG159173
	DQ	0000000000000000H
	DQ	0000000000000000H
	DQ	0000000000000000H
	DQ	FLAT:$SG159174
	DQ	FLAT:$SG159175
	DQ	FLAT:$SG159176
	DQ	FLAT:$SG159177
	DQ	FLAT:$SG159178
$SG159201 DB	'report_aea', 00H
	ORG $+1
$SG159454 DB	'I', 00H
	ORG $+2
$SG159202 DB	'C:\papa\MyGit\hyperion-zvector\hscemode.c', 00H
	ORG $+2
$SG159458 DB	'*', 00H
	ORG $+2
$SG159203 DB	'aea ar    ', 00H
	ORG $+1
$SG159211 DB	' %2d', 00H
	ORG $+3
$SG159391 DB	'SIE: ', 00H
	ORG $+2
$SG159459 DB	' ', 00H
	ORG $+2
$SG159213 DB	'HHC02282%s %s', 0aH, 00H
	ORG $+1
$SG159214 DB	'report_aea', 00H
	ORG $+1
$SG159461 DB	'I', 00H
	ORG $+2
$SG159215 DB	'C:\papa\MyGit\hyperion-zvector\hscemode.c', 00H
	ORG $+2
$SG159466 DB	'I', 00H
	ORG $+2
$SG159216 DB	'aea common            ', 00H
	ORG $+1
$SG159220 DB	' %2d', 00H
	ORG $+3
$SG159224 DB	' %2d', 00H
	ORG $+3
$SG159226 DB	'HHC02282%s %s', 0aH, 00H
	ORG $+1
$SG159227 DB	'report_aea', 00H
	ORG $+1
$SG159472 DB	'I', 00H
	ORG $+2
$SG159228 DB	'C:\papa\MyGit\hyperion-zvector\hscemode.c', 00H
	ORG $+2
$SG159477 DB	'I', 00H
	ORG $+2
$SG159229 DB	'aea cr[1]  %16.16llX', 00H
	ORG $+3
$SG159231 DB	'HHC02282%s %s', 0aH, 00H
	ORG $+1
$SG159232 DB	'report_aea', 00H
	ORG $+1
$SG159481 DB	'*', 00H
	ORG $+2
$SG159233 DB	'C:\papa\MyGit\hyperion-zvector\hscemode.c', 00H
	ORG $+2
$SG159482 DB	' ', 00H
	ORG $+2
$SG159234 DB	'    cr[7]  %16.16llX', 00H
	ORG $+3
$SG159236 DB	'HHC02282%s %s', 0aH, 00H
	ORG $+1
$SG159237 DB	'report_aea', 00H
	ORG $+1
$SG159484 DB	'I', 00H
	ORG $+2
$SG159238 DB	'C:\papa\MyGit\hyperion-zvector\hscemode.c', 00H
	ORG $+2
$SG159489 DB	'I', 00H
	ORG $+2
$SG159239 DB	'    cr[13] %16.16llX', 00H
	ORG $+3
$SG159241 DB	'HHC02282%s %s', 0aH, 00H
	ORG $+1
$SG159242 DB	'report_aea', 00H
	ORG $+1
$SG159518 DB	'W', 00H
	ORG $+2
$SG159243 DB	'C:\papa\MyGit\hyperion-zvector\hscemode.c', 00H
	ORG $+2
$SG159517 DB	'online', 00H
	ORG $+1
$SG159524 DB	'I', 00H
	ORG $+2
$SG159244 DB	'    cr[r]  %16.16llX', 00H
	ORG $+3
$SG159246 DB	'HHC02282%s %s', 0aH, 00H
	ORG $+1
$SG159247 DB	'report_aea', 00H
	ORG $+1
$SG159528 DB	'%s', 00H
	ORG $+1
$SG159248 DB	'C:\papa\MyGit\hyperion-zvector\hscemode.c', 00H
	ORG $+2
$SG159520 DB	'ar_cmd', 00H
	ORG $+1
$SG159556 DB	'W', 00H
	ORG $+2
$SG159250 DB	'    alb[%d] %16.16llX', 00H
	ORG $+2
$SG159252 DB	'HHC02282%s %s', 0aH, 00H
	ORG $+1
$SG159253 DB	'report_aea', 00H
	ORG $+1
$SG159631 DB	'W', 00H
	ORG $+2
$SG159254 DB	'C:\papa\MyGit\hyperion-zvector\hscemode.c', 00H
	ORG $+2
$SG159526 DB	'ar_cmd', 00H
	ORG $+1
$SG159637 DB	'sm=', 00H
$SG159274 DB	'C:\papa\MyGit\hyperion-zvector\hscemode.c:217', 00H
	ORG $+2
$SG159276 DB	'C:\papa\MyGit\hyperion-zvector\hscemode.c:221', 00H
	ORG $+2
$SG159279 DB	'HHC00816%s Processor %s%02X: processor is not %s', 0aH, 00H
	ORG $+2
$SG159529 DB	'ar_cmd', 00H
	ORG $+1
$SG159643 DB	'pk=', 00H
$SG159280 DB	'aea_cmd', 00H
$SG159281 DB	'C:\papa\MyGit\hyperion-zvector\hscemode.c', 00H
	ORG $+2
$SG159555 DB	'online', 00H
	ORG $+1
$SG159655 DB	'as=', 00H
$SG159283 DB	'aea SIE', 00H
$SG159285 DB	'HHC02282%s %s', 0aH, 00H
	ORG $+1
$SG159286 DB	'aea_cmd', 00H
$SG159287 DB	'C:\papa\MyGit\hyperion-zvector\hscemode.c', 00H
	ORG $+2
$SG159558 DB	'pr_cmd', 00H
	ORG $+1
$SG159658 DB	'pri', 00H
$SG159288 DB	'C:\papa\MyGit\hyperion-zvector\hscemode.c:239', 00H
	ORG $+2
$SG159324 DB	'%s%s', 00H
	ORG $+3
$SG159314 DB	'HHC02299%s Invalid command usage. Type ''help %s'' for a'
	DB	'ssistance.', 0aH, 00H
	ORG $+2
$SG159630 DB	'online', 00H
	ORG $+1
$SG159661 DB	'ar', 00H
	ORG $+1
$SG159315 DB	'traceopt_cmd', 00H
	ORG $+3
$SG159316 DB	'C:\papa\MyGit\hyperion-zvector\hscemode.c', 00H
	ORG $+2
$SG159664 DB	'sec', 00H
$SG159319 DB	' NOCH9OFLOW', 00H
$SG159671 DB	'cc=', 00H
$SG159322 DB	'REGSFIRST', 00H
	ORG $+2
$SG159677 DB	'pm=', 00H
$SG159323 DB	'TRADITIONAL', 00H
$SG159683 DB	'am=', 00H
$SG159326 DB	'HHC02203%s %-14s: %s', 0aH, 00H
	ORG $+2
$SG159327 DB	'traceopt_cmd', 00H
	ORG $+3
$SG159328 DB	'C:\papa\MyGit\hyperion-zvector\hscemode.c', 00H
	ORG $+2
$SG159686 DB	'24', 00H
	ORG $+1
$SG159331 DB	'TRADITIONAL', 00H
$SG159689 DB	'31', 00H
	ORG $+1
$SG159334 DB	'REGSFIRST', 00H
	ORG $+2
$SG159693 DB	'64', 00H
	ORG $+1
$SG159340 DB	'NOCH9OFLOW', 00H
	ORG $+1
$SG159696 DB	'ia=', 00H
$SG159342 DB	'HHC01451%s Invalid value %s specified for %s', 0aH, 00H
	ORG $+2
$SG159343 DB	'traceopt_cmd', 00H
	ORG $+3
$SG159344 DB	'C:\papa\MyGit\hyperion-zvector\hscemode.c', 00H
	ORG $+2
$SG159699 DB	'%llx%c', 00H
	ORG $+1
$SG159702 DB	'E', 00H
	ORG $+2
$SG159346 DB	' NOCH9OFLOW', 00H
$SG159719 DB	'I', 00H
	ORG $+2
$SG159349 DB	'REGSFIRST', 00H
	ORG $+2
$SG159723 DB	'24', 00H
	ORG $+1
$SG159350 DB	'TRADITIONAL', 00H
$SG159351 DB	'%s%s', 00H
	ORG $+3
$SG159649 DB	'cmwp=', 00H
	ORG $+2
$SG159724 DB	'31', 00H
	ORG $+1
$SG159353 DB	'HHC02204%s %-14s set to %s', 0aH, 00H
$SG159725 DB	'64', 00H
	ORG $+1
$SG159354 DB	'traceopt_cmd', 00H
	ORG $+3
$SG159355 DB	'C:\papa\MyGit\hyperion-zvector\hscemode.c', 00H
	ORG $+2
$SG159726 DB	'???', 00H
$SG159376 DB	'C:\papa\MyGit\hyperion-zvector\hscemode.c:338', 00H
	ORG $+2
$SG159378 DB	'C:\papa\MyGit\hyperion-zvector\hscemode.c:345', 00H
	ORG $+2
$SG159381 DB	'HHC00816%s Processor %s%02X: processor is not %s', 0aH, 00H
	ORG $+2
$SG159727 DB	'pri', 00H
$SG159382 DB	'aia_cmd', 00H
$SG159383 DB	'C:\papa\MyGit\hyperion-zvector\hscemode.c', 00H
	ORG $+2
$SG159728 DB	'ar', 00H
	ORG $+1
$SG159384 DB	'AIV %16.16llx aip %p ip %p aie %p', 00H
	ORG $+2
$SG159729 DB	'sec', 00H
$SG159386 DB	'HHC02283%s %s', 0aH, 00H
	ORG $+1
$SG159387 DB	'aia_cmd', 00H
$SG159388 DB	'C:\papa\MyGit\hyperion-zvector\hscemode.c', 00H
	ORG $+2
$SG159731 DB	'???', 00H
$SG159390 DB	'AIV %16.16llx aip %p ip %p aie %p', 00H
	ORG $+2
$SG159732 DB	'I', 00H
	ORG $+2
$SG159393 DB	'HHC02283%s %s', 0aH, 00H
	ORG $+1
$SG159394 DB	'aia_cmd', 00H
$SG159395 DB	'C:\papa\MyGit\hyperion-zvector\hscemode.c', 00H
	ORG $+2
$SG159764 DB	'online', 00H
	ORG $+1
$SG159765 DB	'W', 00H
	ORG $+2
$SG159396 DB	'C:\papa\MyGit\hyperion-zvector\hscemode.c:387', 00H
	ORG $+2
$SG159440 DB	'C:\papa\MyGit\hyperion-zvector\hscemode.c:420', 00H
	ORG $+2
$SG159442 DB	'C:\papa\MyGit\hyperion-zvector\hscemode.c:424', 00H
	ORG $+2
$SG159445 DB	'HHC00816%s Processor %s%02X: processor is not %s', 0aH, 00H
	ORG $+2
$SG159789 DB	'online', 00H
	ORG $+1
$SG159790 DB	'W', 00H
	ORG $+2
$SG159446 DB	'tlb_cmd', 00H
$SG159447 DB	'C:\papa\MyGit\hyperion-zvector\hscemode.c', 00H
	ORG $+2
$SG159814 DB	'online', 00H
	ORG $+1
$SG159815 DB	'W', 00H
	ORG $+2
$SG159448 DB	'tlbID 0x%6.6X mainstor %p', 00H
	ORG $+2
$SG159933 DB	'"', 00H
	ORG $+2
$SG159450 DB	'HHC02284%s %s', 0aH, 00H
	ORG $+1
$SG159451 DB	'tlb_cmd', 00H
$SG159452 DB	'C:\papa\MyGit\hyperion-zvector\hscemode.c', 00H
	ORG $+6
$SG159453 DB	'  ix              asd            vaddr              pte '
	DB	'  id c p r w ky     main', 00H
	ORG $+3
$SG159792 DB	'u_cmd', 00H
	ORG $+2
$SG159936 DB	'E', 00H
	ORG $+2
$SG159455 DB	'HHC02284%s %s', 0aH, 00H
	ORG $+1
$SG159456 DB	'tlb_cmd', 00H
$SG159457 DB	'C:\papa\MyGit\hyperion-zvector\hscemode.c', 00H
	ORG $+6
$SG159462 DB	'HHC02284%s %s', 0aH, 00H
	ORG $+1
$SG159463 DB	'tlb_cmd', 00H
$SG159460 DB	'%s%3.3X %16.16llX %16.16llX %16.16llX %4.4X %1d %1d %1d '
	DB	'%1d %2.2X %8.8X', 00H
$SG159464 DB	'C:\papa\MyGit\hyperion-zvector\hscemode.c', 00H
	ORG $+2
$SG159938 DB	'tf_cmd', 00H
	ORG $+1
$SG159944 DB	'ON', 00H
	ORG $+1
$SG159465 DB	'%d tlbID matches', 00H
	ORG $+3
$SG159817 DB	'v_cmd', 00H
	ORG $+2
$SG159949 DB	'OFF', 00H
$SG159467 DB	'HHC02284%s %s', 0aH, 00H
	ORG $+1
$SG159468 DB	'tlb_cmd', 00H
$SG159469 DB	'C:\papa\MyGit\hyperion-zvector\hscemode.c', 00H
	ORG $+2
$SG159954 DB	'NOSTOP', 00H
	ORG $+1
$SG159977 DB	'E', 00H
	ORG $+2
$SG159471 DB	'SIE: tlbID 0x%4.4x mainstor %p', 00H
	ORG $+1
$SG159473 DB	'HHC02284%s %s', 0aH, 00H
	ORG $+1
$SG159474 DB	'tlb_cmd', 00H
$SG159475 DB	'C:\papa\MyGit\hyperion-zvector\hscemode.c', 00H
	ORG $+6
$SG159478 DB	'HHC02284%s %s', 0aH, 00H
	ORG $+1
$SG159479 DB	'tlb_cmd', 00H
$SG159476 DB	'  ix              asd            vaddr              pte '
	DB	'  id c p r w ky       main', 00H
	ORG $+1
$SG159992 DB	'wb', 00H
	ORG $+1
$SG159480 DB	'C:\papa\MyGit\hyperion-zvector\hscemode.c', 00H
	ORG $+6
$SG159485 DB	'HHC02284%s %s', 0aH, 00H
	ORG $+1
$SG159486 DB	'tlb_cmd', 00H
$SG159483 DB	'%s%3.3X %16.16llX %16.16llX %16.16llX %4.4X %1d %1d %1d '
	DB	'%1d %2.2X %8.8X', 00H
$SG159487 DB	'C:\papa\MyGit\hyperion-zvector\hscemode.c', 00H
	ORG $+2
$SG159960 DB	'NOCONT', 00H
	ORG $+1
$SG159993 DB	'E', 00H
	ORG $+2
$SG159488 DB	'SIE: %d tlbID matches', 00H
	ORG $+2
$SG159490 DB	'HHC02284%s %s', 0aH, 00H
	ORG $+1
$SG159491 DB	'tlb_cmd', 00H
$SG159492 DB	'C:\papa\MyGit\hyperion-zvector\hscemode.c', 00H
	ORG $+2
$SG159966 DB	'tf_cmd', 00H
	ORG $+1
$SG160003 DB	'E', 00H
	ORG $+2
$SG159493 DB	'C:\papa\MyGit\hyperion-zvector\hscemode.c:489', 00H
	ORG $+2
$SG159514 DB	'C:\papa\MyGit\hyperion-zvector\hscemode.c:524', 00H
	ORG $+2
$SG159516 DB	'C:\papa\MyGit\hyperion-zvector\hscemode.c:528', 00H
	ORG $+2
$SG159519 DB	'HHC00816%s Processor %s%02X: processor is not %s', 0aH, 00H
	ORG $+2
$SG159970 DB	'tf_cmd', 00H
	ORG $+1
$SG160020 DB	'E', 00H
	ORG $+2
$SG159521 DB	'C:\papa\MyGit\hyperion-zvector\hscemode.c', 00H
	ORG $+2
$SG159975 DB	'(null)', 00H
	ORG $+1
$SG160039 DB	'E', 00H
	ORG $+2
$SG159522 DB	'HHC02272I ', 00H
	ORG $+1
$SG160044 DB	'0', 00H
	ORG $+2
$SG159523 DB	'Access registers', 00H
	ORG $+3
$SG159950 DB	'CLOSE', 00H
	ORG $+2
$SG159979 DB	'tf_cmd', 00H
	ORG $+1
$SG160045 DB	'MAX', 00H
$SG159525 DB	'HHC02272%s %s', 0aH, 00H
	ORG $+1
$SG159527 DB	'C:\papa\MyGit\hyperion-zvector\hscemode.c', 00H
	ORG $+2
$SG159983 DB	'tf_cmd', 00H
	ORG $+1
$SG160046 DB	'E', 00H
	ORG $+2
$SG159530 DB	'C:\papa\MyGit\hyperion-zvector\hscemode.c', 00H
	ORG $+2
$SG159987 DB	'tf_cmd', 00H
	ORG $+1
$SG160067 DB	'E', 00H
	ORG $+2
$SG159531 DB	'C:\papa\MyGit\hyperion-zvector\hscemode.c:538', 00H
	ORG $+2
$SG159557 DB	'HHC00816%s Processor %s%02X: processor is not %s', 0aH, 00H
	ORG $+2
$SG159995 DB	'tf_cmd', 00H
	ORG $+1
$SG160086 DB	'wb', 00H
	ORG $+1
$SG159559 DB	'C:\papa\MyGit\hyperion-zvector\hscemode.c', 00H
	ORG $+2
$SG160005 DB	'tf_cmd', 00H
	ORG $+1
$SG160087 DB	'E', 00H
	ORG $+2
$SG159560 DB	'C:\papa\MyGit\hyperion-zvector\hscemode.c:565', 00H
	ORG $+2
$SG159565 DB	'C:\papa\MyGit\hyperion-zvector\hscemode.c:584', 00H
	ORG $+2
$SG159627 DB	'C:\papa\MyGit\hyperion-zvector\hscemode.c:614', 00H
	ORG $+2
$SG159629 DB	'C:\papa\MyGit\hyperion-zvector\hscemode.c:618', 00H
	ORG $+2
$SG159632 DB	'HHC00816%s Processor %s%02X: processor is not %s', 0aH, 00H
	ORG $+2
$SG160009 DB	'tf_cmd', 00H
	ORG $+1
$SG160111 DB	'"', 00H
	ORG $+2
$SG159633 DB	'psw_cmd', 00H
$SG159634 DB	'C:\papa\MyGit\hyperion-zvector\hscemode.c', 00H
	ORG $+2
$SG159640 DB	'%x%c', 00H
	ORG $+3
$SG159646 DB	'%d%c', 00H
	ORG $+3
$SG159652 DB	'%x%c', 00H
	ORG $+3
$SG159667 DB	'home', 00H
	ORG $+3
$SG159674 DB	'%d%c', 00H
	ORG $+3
$SG159680 DB	'%x%c', 00H
	ORG $+3
$SG159963 DB	'FILE=', 00H
	ORG $+2
$SG160013 DB	'tf_cmd', 00H
	ORG $+1
$SG160113 DB	'NO', 00H
	ORG $+1
$SG159703 DB	'HHC02205%s Invalid argument %s%s', 0aH, 00H
	ORG $+2
$SG160022 DB	'tf_cmd', 00H
	ORG $+1
$SG160115 DB	'ON', 00H
	ORG $+1
$SG159704 DB	'psw_cmd', 00H
$SG159705 DB	'C:\papa\MyGit\hyperion-zvector\hscemode.c', 00H
	ORG $+2
$SG160026 DB	'tf_cmd', 00H
	ORG $+1
$SG160116 DB	'OFF', 00H
$SG159706 DB	'C:\papa\MyGit\hyperion-zvector\hscemode.c:721', 00H
	ORG $+2
$SG159720 DB	'HHC02278%s Program status word: %s', 0aH, 00H
$SG160120 DB	'I', 00H
	ORG $+2
$SG159721 DB	'psw_cmd', 00H
$SG159722 DB	'C:\papa\MyGit\hyperion-zvector\hscemode.c', 00H
	ORG $+2
$SG159730 DB	'home', 00H
	ORG $+7
$SG159733 DB	'HHC02300%s sm=%2.2X pk=%d cmwp=%X as=%s cc=%d pm=%X am=%'
	DB	's ia=%llX', 0aH, 00H
	ORG $+1
$SG160124 DB	'I', 00H
	ORG $+2
$SG159734 DB	'psw_cmd', 00H
$SG159735 DB	'C:\papa\MyGit\hyperion-zvector\hscemode.c', 00H
	ORG $+2
$SG160030 DB	'tf_cmd', 00H
	ORG $+1
$SG160131 DB	'I', 00H
	ORG $+2
$SG159744 DB	'C:\papa\MyGit\hyperion-zvector\hscemode.c:823', 00H
	ORG $+2
$SG159761 DB	'C:\papa\MyGit\hyperion-zvector\hscemode.c:839', 00H
	ORG $+2
$SG159763 DB	'C:\papa\MyGit\hyperion-zvector\hscemode.c:843', 00H
	ORG $+2
$SG159766 DB	'HHC00816%s Processor %s%02X: processor is not %s', 0aH, 00H
	ORG $+2
$SG160037 DB	'(null)', 00H
	ORG $+1
$SG160218 DB	'E', 00H
	ORG $+2
$SG159767 DB	'abs_or_r_cmd', 00H
	ORG $+3
$SG159768 DB	'C:\papa\MyGit\hyperion-zvector\hscemode.c', 00H
	ORG $+2
$SG160041 DB	'tf_cmd', 00H
	ORG $+1
$SG160244 DB	'E', 00H
	ORG $+2
$SG159769 DB	'C:\papa\MyGit\hyperion-zvector\hscemode.c:851', 00H
	ORG $+2
$SG159786 DB	'C:\papa\MyGit\hyperion-zvector\hscemode.c:867', 00H
	ORG $+2
$SG159788 DB	'C:\papa\MyGit\hyperion-zvector\hscemode.c:871', 00H
	ORG $+2
$SG159791 DB	'HHC00816%s Processor %s%02X: processor is not %s', 0aH, 00H
	ORG $+2
$SG160048 DB	'tf_cmd', 00H
	ORG $+1
$SG160253 DB	'E', 00H
	ORG $+2
$SG159793 DB	'C:\papa\MyGit\hyperion-zvector\hscemode.c', 00H
	ORG $+2
$SG160052 DB	'tf_cmd', 00H
	ORG $+1
$SG160273 DB	'I', 00H
	ORG $+2
$SG159794 DB	'C:\papa\MyGit\hyperion-zvector\hscemode.c:879', 00H
	ORG $+2
$SG159811 DB	'C:\papa\MyGit\hyperion-zvector\hscemode.c:895', 00H
	ORG $+2
$SG159813 DB	'C:\papa\MyGit\hyperion-zvector\hscemode.c:899', 00H
	ORG $+2
$SG159816 DB	'HHC00816%s Processor %s%02X: processor is not %s', 0aH, 00H
	ORG $+2
$SG160056 DB	'tf_cmd', 00H
	ORG $+1
$SG160286 DB	'on', 00H
	ORG $+1
$SG159818 DB	'C:\papa\MyGit\hyperion-zvector\hscemode.c', 00H
	ORG $+2
$SG160069 DB	'tf_cmd', 00H
	ORG $+1
$SG160287 DB	'off', 00H
$SG159819 DB	'C:\papa\MyGit\hyperion-zvector\hscemode.c:907', 00H
	ORG $+2
$SG159937 DB	'HHC02299%s Invalid command usage. Type ''help %s'' for a'
	DB	'ssistance.', 0aH, 00H
	ORG $+2
$SG160074 DB	'tf_cmd', 00H
	ORG $+1
$SG160292 DB	'I', 00H
	ORG $+2
$SG159939 DB	'C:\papa\MyGit\hyperion-zvector\hscemode.c', 00H
	ORG $+2
$SG159945 DB	'OPEN', 00H
	ORG $+3
$SG159955 DB	'CONT', 00H
	ORG $+3
$SG159959 DB	'STOP', 00H
	ORG $+3
$SG160078 DB	'tf_cmd', 00H
	ORG $+1
$SG160320 DB	'I', 00H
	ORG $+2
$SG159967 DB	'C:\papa\MyGit\hyperion-zvector\hscemode.c', 00H
	ORG $+6
$SG159968 DB	'%s(%d) : warning HHC90999W : *** Assertion Failed! *** f'
	DB	'unction: %s', 0aH, 00H
	ORG $+3
$SG159971 DB	'C:\papa\MyGit\hyperion-zvector\hscemode.c', 00H
	ORG $+2
$SG159976 DB	'FILE', 00H
	ORG $+7
$SG159972 DB	'%s(%d) : warning HHC90999W : *** Assertion Failed! *** f'
	DB	'unction: %s', 0aH, 00H
	ORG $+3
$SG159978 DB	'HHC02380%s Invalid %s= value: %s', 0aH, 00H
	ORG $+2
$SG160089 DB	'tf_cmd', 00H
	ORG $+1
$SG160332 DB	'I', 00H
	ORG $+2
$SG159980 DB	'C:\papa\MyGit\hyperion-zvector\hscemode.c', 00H
	ORG $+2
$SG160094 DB	'tf_cmd', 00H
	ORG $+1
$SG160398 DB	'0', 00H
	ORG $+2
$SG159984 DB	'C:\papa\MyGit\hyperion-zvector\hscemode.c', 00H
	ORG $+6
$SG159985 DB	'%s(%d) : warning HHC90999W : *** Assertion Failed! *** f'
	DB	'unction: %s', 0aH, 00H
	ORG $+3
$SG159988 DB	'C:\papa\MyGit\hyperion-zvector\hscemode.c', 00H
	ORG $+6
$SG159994 DB	'HHC02377%s Trace file open error %s: "%s"', 0aH, 00H
	ORG $+1
$SG159999 DB	'MAX=', 00H
	ORG $+7
$SG159989 DB	'%s(%d) : warning HHC90999W : *** Assertion Failed! *** f'
	DB	'unction: %s', 0aH, 00H
	ORG $+3
$SG159996 DB	'C:\papa\MyGit\hyperion-zvector\hscemode.c', 00H
	ORG $+2
$SG160098 DB	'tf_cmd', 00H
	ORG $+1
$SG160406 DB	'U', 00H
	ORG $+2
$SG160004 DB	'HHC02378%s Invalid MAX= value: %s', 0aH, 00H
	ORG $+1
$SG160409 DB	'C', 00H
	ORG $+2
$SG160006 DB	'C:\papa\MyGit\hyperion-zvector\hscemode.c', 00H
	ORG $+2
$SG160122 DB	'tf_cmd', 00H
	ORG $+1
$SG160418 DB	'BAD', 00H
$SG160010 DB	'C:\papa\MyGit\hyperion-zvector\hscemode.c', 00H
	ORG $+6
$SG160011 DB	'%s(%d) : warning HHC90999W : *** Assertion Failed! *** f'
	DB	'unction: %s', 0aH, 00H
	ORG $+3
$SG160014 DB	'C:\papa\MyGit\hyperion-zvector\hscemode.c', 00H
	ORG $+2
$SG160038 DB	'FILE', 00H
	ORG $+7
$SG160015 DB	'%s(%d) : warning HHC90999W : *** Assertion Failed! *** f'
	DB	'unction: %s', 0aH, 00H
	ORG $+3
$SG160040 DB	'HHC02380%s Invalid %s= value: %s', 0aH, 00H
	ORG $+6
$SG160021 DB	'HHC02299%s Invalid command usage. Type ''help %s'' for a'
	DB	'ssistance.', 0aH, 00H
	ORG $+2
$SG160126 DB	'tf_cmd', 00H
	ORG $+1
$SG160427 DB	'TDB', 00H
$SG160023 DB	'C:\papa\MyGit\hyperion-zvector\hscemode.c', 00H
	ORG $+2
$SG160133 DB	'tf_cmd', 00H
	ORG $+1
$SG160436 DB	'WHY', 00H
$SG160027 DB	'C:\papa\MyGit\hyperion-zvector\hscemode.c', 00H
	ORG $+6
$SG160047 DB	'HHC02380%s Invalid %s= value: %s', 0aH, 00H
	ORG $+6
$SG160028 DB	'%s(%d) : warning HHC90999W : *** Assertion Failed! *** f'
	DB	'unction: %s', 0aH, 00H
	ORG $+3
$SG160031 DB	'C:\papa\MyGit\hyperion-zvector\hscemode.c', 00H
	ORG $+6
$SG160062 DB	'C:\papa\MyGit\hyperion-zvector\hscemode.c:1085', 00H
	ORG $+1
$SG160125 DB	'HHC02203%s %-14s: %s', 0aH, 00H
	ORG $+2
$SG160032 DB	'%s(%d) : warning HHC90999W : *** Assertion Failed! *** f'
	DB	'unction: %s', 0aH, 00H
	ORG $+3
$SG160042 DB	'C:\papa\MyGit\hyperion-zvector\hscemode.c', 00H
	ORG $+2
$SG160440 DB	'TAC', 00H
$SG160049 DB	'C:\papa\MyGit\hyperion-zvector\hscemode.c', 00H
	ORG $+2
$SG160443 DB	'TND', 00H
$SG160053 DB	'C:\papa\MyGit\hyperion-zvector\hscemode.c', 00H
	ORG $+6
$SG160066 DB	'C:\papa\MyGit\hyperion-zvector\hscemode.c:1095', 00H
	ORG $+1
$SG160132 DB	'HHC02381%s File closed, tracing %s', 0aH, 00H
	ORG $+4
$SG160054 DB	'%s(%d) : warning HHC90999W : *** Assertion Failed! *** f'
	DB	'unction: %s', 0aH, 00H
	ORG $+3
$SG160057 DB	'C:\papa\MyGit\hyperion-zvector\hscemode.c', 00H
	ORG $+6
$SG160071 DB	'C:\papa\MyGit\hyperion-zvector\hscemode.c:1099', 00H
	ORG $+1
$SG160245 DB	'HHC02205%s Invalid argument %s%s', 0aH, 00H
	ORG $+6
$SG160058 DB	'%s(%d) : warning HHC90999W : *** Assertion Failed! *** f'
	DB	'unction: %s', 0aH, 00H
	ORG $+3
$SG160068 DB	'HHC00152%s Out of memory', 0aH, 00H
	ORG $+2
$SG160446 DB	'CPU', 00H
$SG160070 DB	'C:\papa\MyGit\hyperion-zvector\hscemode.c', 00H
	ORG $+2
$SG160464 DB	'E', 00H
	ORG $+2
$SG160075 DB	'C:\papa\MyGit\hyperion-zvector\hscemode.c', 00H
	ORG $+6
$SG160088 DB	'HHC02377%s Trace file open error %s: "%s"', 0aH, 00H
	ORG $+5
$SG160091 DB	'C:\papa\MyGit\hyperion-zvector\hscemode.c:1129', 00H
	ORG $+1
$SG160254 DB	'HHC02205%s Invalid argument %s%s', 0aH, 00H
	ORG $+6
$SG160076 DB	'%s(%d) : warning HHC90999W : *** Assertion Failed! *** f'
	DB	'unction: %s', 0aH, 00H
	ORG $+3
$SG160079 DB	'C:\papa\MyGit\hyperion-zvector\hscemode.c', 00H
	ORG $+6
$SG160105 DB	'C:\papa\MyGit\hyperion-zvector\hscemode.c:1167', 00H
	ORG $+1
$SG160274 DB	'HHC02373%s Automatic tracing disabled', 0aH, 00H
	ORG $+1
$SG160080 DB	'%s(%d) : warning HHC90999W : *** Assertion Failed! *** f'
	DB	'unction: %s', 0aH, 00H
	ORG $+3
$SG160090 DB	'C:\papa\MyGit\hyperion-zvector\hscemode.c', 00H
	ORG $+2
$SG160481 DB	'LINES ', 00H
	ORG $+1
$SG160491 DB	'C ', 00H
	ORG $+1
$SG160095 DB	'C:\papa\MyGit\hyperion-zvector\hscemode.c', 00H
	ORG $+6
$SG160096 DB	'%s(%d) : warning HHC90999W : *** Assertion Failed! *** f'
	DB	'unction: %s', 0aH, 00H
	ORG $+3
$SG160099 DB	'C:\papa\MyGit\hyperion-zvector\hscemode.c', 00H
	ORG $+6
$SG160117 DB	'%s MAX=%d%c %sSTOP %sFILE=%s%s', 00H
	ORG $+1
$SG160283 DB	' range %llx%c%llx', 00H
	ORG $+6
$SG160100 DB	'%s(%d) : warning HHC90999W : *** Assertion Failed! *** f'
	DB	'unction: %s', 0aH, 00H
	ORG $+3
$SG160121 DB	'HHC02204%s %-14s set to %s', 0aH, 00H
$SG160493 DB	'U ', 00H
	ORG $+1
$SG160123 DB	'C:\papa\MyGit\hyperion-zvector\hscemode.c', 00H
	ORG $+2
$SG160483 DB	'PAGES ', 00H
	ORG $+1
$SG160502 DB	'I', 00H
	ORG $+2
$SG160127 DB	'C:\papa\MyGit\hyperion-zvector\hscemode.c', 00H
	ORG $+2
$SG160495 DB	'INSTR ', 00H
	ORG $+1
$SG160506 DB	'I', 00H
	ORG $+2
$SG160130 DB	'auto-stopped', 00H
	ORG $+3
$SG160134 DB	'C:\papa\MyGit\hyperion-zvector\hscemode.c', 00H
	ORG $+6
$SG160238 DB	'%llx%c%llx%c', 00H
	ORG $+3
$SG160257 DB	'C:\papa\MyGit\hyperion-zvector\hscemode.c:1372', 00H
	ORG $+1
$SG160285 DB	' asid x''%4.4hx''', 00H
$SG160288 DB	'tracing', 00H
$SG160219 DB	'HHC02211%s Invalid argument(s). Type ''help %s'' for ass'
	DB	'istance.', 0aH, 00H
$SG160220 DB	'trace_cmd', 00H
	ORG $+2
$SG160498 DB	' ', 09H, 0aH, 0bH, 0cH, 0dH, 00H
	ORG $+1
$SG160513 DB	'I', 00H
	ORG $+2
$SG160221 DB	'C:\papa\MyGit\hyperion-zvector\hscemode.c', 00H
	ORG $+2
$SG160517 DB	'I', 00H
	ORG $+2
$SG160228 DB	'trace_cmd', 00H
	ORG $+2
$SG160521 DB	'I', 00H
	ORG $+2
$SG160229 DB	'C:\papa\MyGit\hyperion-zvector\hscemode.c', 00H
	ORG $+6
$SG160280 DB	'C:\papa\MyGit\hyperion-zvector\hscemode.c:1446', 00H
	ORG $+1
$SG160290 DB	'break', 00H
	ORG $+2
$SG160230 DB	'%s(%d) : warning HHC90999W : *** Assertion Failed! *** f'
	DB	'unction: %s', 0aH, 00H
	ORG $+3
$SG160232 DB	'trace_cmd', 00H
	ORG $+2
$SG160525 DB	'I', 00H
	ORG $+2
$SG160233 DB	'C:\papa\MyGit\hyperion-zvector\hscemode.c', 00H
	ORG $+2
$SG160291 DB	'(ERR)', 00H
	ORG $+6
$SG160234 DB	'%s(%d) : warning HHC90999W : *** Assertion Failed! *** f'
	DB	'unction: %s', 0aH, 00H
	ORG $+3
$SG160246 DB	'trace_cmd', 00H
	ORG $+2
$SG160529 DB	'I', 00H
	ORG $+2
$SG160247 DB	'C:\papa\MyGit\hyperion-zvector\hscemode.c', 00H
	ORG $+2
$SG160543 DB	'I', 00H
	ORG $+2
$SG160255 DB	'trace_cmd', 00H
	ORG $+2
$SG160547 DB	'I', 00H
	ORG $+2
$SG160256 DB	'C:\papa\MyGit\hyperion-zvector\hscemode.c', 00H
	ORG $+2
$SG160551 DB	'I', 00H
	ORG $+2
$SG160275 DB	'trace_cmd', 00H
	ORG $+2
$SG160578 DB	'%llu%c', 00H
	ORG $+1
$SG160580 DB	'E', 00H
	ORG $+2
$SG160276 DB	'C:\papa\MyGit\hyperion-zvector\hscemode.c', 00H
	ORG $+2
$SG160579 DB	'%llu%c', 00H
	ORG $+1
$SG160586 DB	'E', 00H
	ORG $+2
$SG160289 DB	'stepping', 00H
	ORG $+3
$SG160393 DB	'STATS', 00H
	ORG $+2
$SG160595 DB	'I', 00H
	ORG $+2
$SG160293 DB	'HHC02229%s Instruction %s %s%s%s', 0aH, 00H
	ORG $+2
$SG160601 DB	'I', 00H
	ORG $+2
$SG160294 DB	'trace_cmd', 00H
	ORG $+2
$SG160605 DB	'I', 00H
	ORG $+2
$SG160295 DB	'C:\papa\MyGit\hyperion-zvector\hscemode.c', 00H
	ORG $+2
$SG160298 DB	'-t+-', 00H
	ORG $+3
$SG160300 DB	'-txf', 00H
	ORG $+3
$SG160403 DB	'INSTR', 00H
	ORG $+2
$SG160702 DB	'I', 00H
	ORG $+2
$SG160302 DB	'C:\papa\MyGit\hyperion-zvector\hscemode.c:1486', 00H
	ORG $+1
$SG160308 DB	'trace_cmd', 00H
	ORG $+2
$SG160706 DB	'I', 00H
	ORG $+2
$SG160309 DB	'C:\papa\MyGit\hyperion-zvector\hscemode.c', 00H
	ORG $+6
$SG160310 DB	'%s(%d) : warning HHC90999W : *** Assertion Failed! *** f'
	DB	'unction: %s', 0aH, 00H
	ORG $+3
$SG160312 DB	'trace_cmd', 00H
	ORG $+2
$SG160710 DB	'I', 00H
	ORG $+2
$SG160313 DB	'C:\papa\MyGit\hyperion-zvector\hscemode.c', 00H
	ORG $+6
$SG160318 DB	'CPU %s%02X', 00H
	ORG $+5
$SG160319 DB	'instruction ', 00H
	ORG $+3
$SG160321 DB	'HHC02382%s %stracing active for %s', 0aH, 00H
	ORG $+4
$SG160314 DB	'%s(%d) : warning HHC90999W : *** Assertion Failed! *** f'
	DB	'unction: %s', 0aH, 00H
	ORG $+3
$SG160322 DB	'trace_cmd', 00H
	ORG $+2
$SG160716 DB	'I', 00H
	ORG $+2
$SG160323 DB	'C:\papa\MyGit\hyperion-zvector\hscemode.c', 00H
	ORG $+2
$SG160325 DB	'ORB ', 00H
	ORG $+3
$SG160327 DB	'CCW ', 00H
	ORG $+3
$SG160329 DB	'CKD ', 00H
	ORG $+3
$SG160430 DB	'PAGES', 00H
	ORG $+2
$SG160722 DB	'I', 00H
	ORG $+2
$SG160331 DB	'device %1d:%04X', 00H
$SG160333 DB	'HHC02382%s %stracing active for %s', 0aH, 00H
$SG160728 DB	'I', 00H
	ORG $+2
$SG160334 DB	'trace_cmd', 00H
	ORG $+2
$SG160734 DB	'I', 00H
	ORG $+2
$SG160335 DB	'C:\papa\MyGit\hyperion-zvector\hscemode.c', 00H
	ORG $+2
$SG160740 DB	'I', 00H
	ORG $+2
$SG160337 DB	'C:\papa\MyGit\hyperion-zvector\hscemode.c:1551', 00H
	ORG $+1
$SG160412 DB	'GOOD', 00H
	ORG $+3
$SG160415 DB	'SUCCESS', 00H
$SG160421 DB	'FAILURE', 00H
$SG160424 DB	'FAIL', 00H
	ORG $+3
$SG160433 DB	'LINES', 00H
	ORG $+2
$SG160437 DB	'%x%c', 00H
	ORG $+3
$SG160449 DB	'FAILS', 00H
	ORG $+2
$SG160466 DB	'txf_cmd', 00H
$SG160465 DB	'HHC02299%s Invalid command usage. Type ''help %s'' for a'
	DB	'ssistance.', 0aH, 00H
	ORG $+2
$SG160746 DB	'I', 00H
	ORG $+2
$SG160467 DB	'C:\papa\MyGit\hyperion-zvector\hscemode.c', 00H
	ORG $+2
$SG160752 DB	'I', 00H
	ORG $+2
$SG160472 DB	'WHY 0x%8.8X ', 00H
	ORG $+3
$SG160474 DB	'TAC %d ', 00H
$SG160476 DB	'TND %d ', 00H
$SG160478 DB	'CPU %d ', 00H
$SG160480 DB	'FAILS %d ', 00H
	ORG $+2
$SG160485 DB	'TDB ', 00H
	ORG $+3
$SG160487 DB	'BAD ', 00H
	ORG $+3
$SG160489 DB	'GOOD ', 00H
	ORG $+2
$SG160758 DB	'I', 00H
	ORG $+2
$SG160497 DB	'%s%s%s%s%s%s%s%s%s%s%s%s%s', 00H
	ORG $+1
$SG160764 DB	'I', 00H
	ORG $+2
$SG160503 DB	'HHC02204%s %-14s set to %s', 0aH, 00H
$SG160770 DB	'I', 00H
	ORG $+2
$SG160504 DB	'txf_cmd', 00H
$SG160505 DB	'C:\papa\MyGit\hyperion-zvector\hscemode.c', 00H
	ORG $+2
$SG160774 DB	'yes', 00H
$SG160507 DB	'HHC02203%s %-14s: %s', 0aH, 00H
	ORG $+2
$SG160508 DB	'txf_cmd', 00H
$SG160509 DB	'C:\papa\MyGit\hyperion-zvector\hscemode.c', 00H
	ORG $+2
$SG160775 DB	'no', 00H
	ORG $+1
$SG160511 DB	'CONSTRAINED', 00H
$SG160776 DB	'I', 00H
	ORG $+2
$SG160512 DB	'UNconstrained', 00H
	ORG $+2
$SG160514 DB	'HHC17730%s Total %s Transactions =%12llu', 0aH, 00H
	ORG $+2
$SG160780 DB	'yes', 00H
$SG160515 DB	'txf_cmd', 00H
$SG160516 DB	'C:\papa\MyGit\hyperion-zvector\hscemode.c', 00H
	ORG $+2
$SG160781 DB	'no', 00H
	ORG $+1
$SG160518 DB	'HHC17731%s Retries for ANY/ALL reason(s):', 0aH, 00H
	ORG $+1
$SG160782 DB	'I', 00H
	ORG $+2
$SG160519 DB	'txf_cmd', 00H
$SG160520 DB	'C:\papa\MyGit\hyperion-zvector\hscemode.c', 00H
	ORG $+2
$SG160786 DB	'yes', 00H
$SG160522 DB	'HHC17732%s %1d%cretries =%12llu  (%4.1f%%)', 0aH, 00H
$SG160787 DB	'no', 00H
	ORG $+1
$SG160523 DB	'txf_cmd', 00H
$SG160524 DB	'C:\papa\MyGit\hyperion-zvector\hscemode.c', 00H
	ORG $+2
$SG160788 DB	'I', 00H
	ORG $+2
$SG160526 DB	'HHC17732%s %1d%cretries =%12llu  (%4.1f%%)', 0aH, 00H
$SG160794 DB	'I', 00H
	ORG $+2
$SG160527 DB	'txf_cmd', 00H
$SG160528 DB	'C:\papa\MyGit\hyperion-zvector\hscemode.c', 00H
	ORG $+2
$SG160803 DB	'I', 00H
	ORG $+2
$SG160530 DB	'HHC17733%s MAXIMUM   =%12llu', 0aH, 00H
	ORG $+2
$SG160531 DB	'txf_cmd', 00H
$SG160532 DB	'C:\papa\MyGit\hyperion-zvector\hscemode.c', 00H
	ORG $+2
$SG160807 DB	'I', 00H
	ORG $+2
$SG160535 DB	'txf_cmd', 00H
$SG160536 DB	'C:\papa\MyGit\hyperion-zvector\hscemode.c', 00H
	ORG $+6
$SG160537 DB	'%s(%d) : warning HHC90999W : *** Assertion Failed! *** f'
	DB	'unction: %s', 0aH, 00H
	ORG $+3
$SG160539 DB	'txf_cmd', 00H
$SG160540 DB	'C:\papa\MyGit\hyperion-zvector\hscemode.c', 00H
	ORG $+6
$SG160541 DB	'%s(%d) : warning HHC90999W : *** Assertion Failed! *** f'
	DB	'unction: %s', 0aH, 00H
	ORG $+3
$SG160544 DB	'HHC17734%s %12llu  (%4.1f%%)  Retries due to TAC %3d %s', 0aH
	DB	00H
	ORG $+3
$SG160802 DB	'%4.4X', 00H
	ORG $+2
$SG160811 DB	'I', 00H
	ORG $+2
$SG160545 DB	'txf_cmd', 00H
$SG160546 DB	'C:\papa\MyGit\hyperion-zvector\hscemode.c', 00H
	ORG $+2
$SG160815 DB	'I', 00H
	ORG $+2
$SG160548 DB	'HHC17734%s %12llu  (%4.1f%%)  Retries due to TAC %3d %s', 0aH
	DB	00H
	ORG $+3
$SG160823 DB	'I', 00H
	ORG $+2
$SG160549 DB	'txf_cmd', 00H
$SG160550 DB	'C:\papa\MyGit\hyperion-zvector\hscemode.c', 00H
	ORG $+2
$SG160828 DB	'IE', 00H
	ORG $+1
$SG160552 DB	'HHC17735%s %12llu  (%4.1f%%)  Retries due to other TAC', 0aH
	DB	00H
$SG160553 DB	'txf_cmd', 00H
$SG160554 DB	'C:\papa\MyGit\hyperion-zvector\hscemode.c', 00H
	ORG $+2
$SG160576 DB	'BEG=', 00H
	ORG $+3
$SG160577 DB	'AMT=', 00H
	ORG $+7
$SG160581 DB	'HHC02299%s Invalid command usage. Type ''help %s'' for a'
	DB	'ssistance.', 0aH, 00H
	ORG $+2
$SG160829 DB	'I', 00H
	ORG $+2
$SG160582 DB	'auto_trace_cmd', 00H
	ORG $+1
$SG160583 DB	'C:\papa\MyGit\hyperion-zvector\hscemode.c', 00H
	ORG $+6
$SG160588 DB	'auto_trace_cmd', 00H
	ORG $+1
$SG160602 DB	'HHC02375%s Automatic tracing is active', 0aH, 00H
$SG160587 DB	'HHC02376%s Automatic tracing value(s) must be greater th'
	DB	'an zero', 0aH, 00H
	ORG $+3
$SG160835 DB	'IE', 00H
	ORG $+1
$SG160589 DB	'C:\papa\MyGit\hyperion-zvector\hscemode.c', 00H
	ORG $+2
$SG160836 DB	'I', 00H
	ORG $+2
$SG160590 DB	'C:\papa\MyGit\hyperion-zvector\hscemode.c:1946', 00H
	ORG $+1
$SG160591 DB	'C:\papa\MyGit\hyperion-zvector\hscemode.c:1954', 00H
	ORG $+1
$SG160592 DB	'C:\papa\MyGit\hyperion-zvector\hscemode.c:1960', 00H
	ORG $+1
$SG160596 DB	'HHC02372%s Automatic tracing not enabled', 0aH, 00H
	ORG $+2
$SG160842 DB	'IE', 00H
	ORG $+1
$SG160597 DB	'auto_trace_cmd', 00H
	ORG $+1
$SG160598 DB	'C:\papa\MyGit\hyperion-zvector\hscemode.c', 00H
	ORG $+2
$SG160843 DB	'I', 00H
	ORG $+2
$SG160603 DB	'auto_trace_cmd', 00H
	ORG $+1
$SG160604 DB	'C:\papa\MyGit\hyperion-zvector\hscemode.c', 00H
	ORG $+2
$SG160849 DB	'IE', 00H
	ORG $+1
$SG160606 DB	'HHC02374%s Automatic tracing enabled: BEG=%llu AMT=%llu', 0aH
	DB	00H
	ORG $+3
$SG160850 DB	'I', 00H
	ORG $+2
$SG160607 DB	'auto_trace_cmd', 00H
	ORG $+1
$SG160608 DB	'C:\papa\MyGit\hyperion-zvector\hscemode.c', 00H
	ORG $+2
$SG160689 DB	'?(0)', 00H
	ORG $+3
$SG160856 DB	'IE', 00H
	ORG $+1
$SG160691 DB	'STARTED', 00H
$SG160693 DB	'STOPPING', 00H
	ORG $+3
$SG160857 DB	'I', 00H
	ORG $+2
$SG160695 DB	'STOPPED', 00H
$SG160703 DB	'HHC00820%s Processor %s%02X: offline', 0aH, 00H
	ORG $+2
$SG160704 DB	'ipending_cmd', 00H
	ORG $+3
$SG160705 DB	'C:\papa\MyGit\hyperion-zvector\hscemode.c', 00H
	ORG $+2
$SG160863 DB	'IE', 00H
	ORG $+1
$SG160707 DB	'HHC00815%s Processors %s%02X through %s%02X are offline', 0aH
	DB	00H
	ORG $+3
$SG160864 DB	'I', 00H
	ORG $+2
$SG160708 DB	'ipending_cmd', 00H
	ORG $+3
$SG160709 DB	'C:\papa\MyGit\hyperion-zvector\hscemode.c', 00H
	ORG $+6
$SG160712 DB	'ipending_cmd', 00H
	ORG $+3
$SG160715 DB	'not ', 00H
	ORG $+3
$SG160711 DB	'HHC00850%s Processor %s%02X: CPUint=%8.8X (State:%8.8X)&'
	DB	'(Mask:%8.8X)', 0aH, 00H
	ORG $+2
$SG160713 DB	'C:\papa\MyGit\hyperion-zvector\hscemode.c', 00H
	ORG $+2
$SG160870 DB	'IE', 00H
	ORG $+1
$SG160717 DB	'HHC00851%s Processor %s%02X: interrupt %spending', 0aH, 00H
	ORG $+2
$SG160871 DB	'I', 00H
	ORG $+2
$SG160718 DB	'ipending_cmd', 00H
	ORG $+3
$SG160719 DB	'C:\papa\MyGit\hyperion-zvector\hscemode.c', 00H
	ORG $+2
$SG160721 DB	'not ', 00H
	ORG $+3
$SG160877 DB	'IE', 00H
	ORG $+1
$SG160723 DB	'HHC00852%s Processor %s%02X: I/O interrupt %spending', 0aH
	DB	00H
	ORG $+2
$SG160724 DB	'ipending_cmd', 00H
	ORG $+3
$SG160725 DB	'C:\papa\MyGit\hyperion-zvector\hscemode.c', 00H
	ORG $+2
$SG160727 DB	'not ', 00H
	ORG $+3
$SG160878 DB	'I', 00H
	ORG $+2
$SG160729 DB	'HHC00853%s Processor %s%02X: clock comparator %spending', 0aH
	DB	00H
	ORG $+3
$SG160884 DB	'IE', 00H
	ORG $+1
$SG160730 DB	'ipending_cmd', 00H
	ORG $+3
$SG160731 DB	'C:\papa\MyGit\hyperion-zvector\hscemode.c', 00H
	ORG $+2
$SG160733 DB	'not ', 00H
	ORG $+3
$SG160885 DB	'I', 00H
	ORG $+2
$SG160735 DB	'HHC00854%s Processor %s%02X: CPU timer %spending', 0aH, 00H
	ORG $+2
$SG160891 DB	'IE', 00H
	ORG $+1
$SG160736 DB	'ipending_cmd', 00H
	ORG $+3
$SG160737 DB	'C:\papa\MyGit\hyperion-zvector\hscemode.c', 00H
	ORG $+2
$SG160739 DB	'not ', 00H
	ORG $+3
$SG160892 DB	'I', 00H
	ORG $+2
$SG160741 DB	'HHC00855%s Processor %s%02X: interval timer %spending', 0aH
	DB	00H
	ORG $+1
$SG160742 DB	'ipending_cmd', 00H
	ORG $+3
$SG160743 DB	'C:\papa\MyGit\hyperion-zvector\hscemode.c', 00H
	ORG $+2
$SG160745 DB	'not ', 00H
	ORG $+3
$SG160898 DB	'IE', 00H
	ORG $+1
$SG160747 DB	'HHC00856%s Processor %s%02X: ECPS vtimer %spending', 0aH
	DB	00H
$SG160899 DB	'I', 00H
	ORG $+2
$SG160748 DB	'ipending_cmd', 00H
	ORG $+3
$SG160749 DB	'C:\papa\MyGit\hyperion-zvector\hscemode.c', 00H
	ORG $+2
$SG160751 DB	'not ', 00H
	ORG $+3
$SG160907 DB	'%4.4X', 00H
	ORG $+2
$SG160908 DB	'IE', 00H
	ORG $+1
$SG160753 DB	'HHC00857%s Processor %s%02X: external call %spending', 0aH
	DB	00H
	ORG $+2
$SG160754 DB	'ipending_cmd', 00H
	ORG $+3
$SG160755 DB	'C:\papa\MyGit\hyperion-zvector\hscemode.c', 00H
	ORG $+2
$SG160757 DB	'not ', 00H
	ORG $+3
$SG160909 DB	'I', 00H
	ORG $+2
$SG160759 DB	'HHC00858%s Processor %s%02X: emergency signal %spending', 0aH
	DB	00H
	ORG $+3
$SG160913 DB	'IE', 00H
	ORG $+1
$SG160760 DB	'ipending_cmd', 00H
	ORG $+3
$SG160761 DB	'C:\papa\MyGit\hyperion-zvector\hscemode.c', 00H
	ORG $+2
$SG160763 DB	'not ', 00H
	ORG $+7
$SG160765 DB	'HHC00859%s Processor %s%02X: machine check interrupt %sp'
	DB	'ending', 0aH, 00H
$SG160766 DB	'ipending_cmd', 00H
	ORG $+3
$SG160767 DB	'C:\papa\MyGit\hyperion-zvector\hscemode.c', 00H
	ORG $+2
$SG160769 DB	'not ', 00H
	ORG $+3
$SG160914 DB	'I', 00H
	ORG $+2
$SG160771 DB	'HHC00860%s Processor %s%02X: service signal %spending', 0aH
	DB	00H
	ORG $+1
$SG160772 DB	'ipending_cmd', 00H
	ORG $+3
$SG160773 DB	'C:\papa\MyGit\hyperion-zvector\hscemode.c', 00H
	ORG $+2
$SG160918 DB	'IE', 00H
	ORG $+1
$SG160777 DB	'HHC00861%s Processor %s%02X: mainlock held: %s', 0aH, 00H
$SG160778 DB	'ipending_cmd', 00H
	ORG $+3
$SG160779 DB	'C:\papa\MyGit\hyperion-zvector\hscemode.c', 00H
	ORG $+2
$SG160919 DB	'I', 00H
	ORG $+2
$SG160783 DB	'HHC00862%s Processor %s%02X: intlock held: %s', 0aH, 00H
	ORG $+1
$SG160784 DB	'ipending_cmd', 00H
	ORG $+3
$SG160785 DB	'C:\papa\MyGit\hyperion-zvector\hscemode.c', 00H
	ORG $+2
$SG160923 DB	'IE', 00H
	ORG $+1
$SG160789 DB	'HHC00863%s Processor %s%02X: waiting for intlock: %s', 0aH
	DB	00H
	ORG $+2
$SG160790 DB	'ipending_cmd', 00H
	ORG $+3
$SG160791 DB	'C:\papa\MyGit\hyperion-zvector\hscemode.c', 00H
	ORG $+2
$SG160793 DB	'not ', 00H
	ORG $+3
$SG160924 DB	'I', 00H
	ORG $+2
$SG160795 DB	'HHC00864%s Processor %s%02X: lock %sheld', 0aH, 00H
	ORG $+2
$SG160932 DB	'IE', 00H
	ORG $+1
$SG160796 DB	'ipending_cmd', 00H
	ORG $+3
$SG160797 DB	'C:\papa\MyGit\hyperion-zvector\hscemode.c', 00H
	ORG $+2
$SG160801 DB	'none', 00H
	ORG $+3
$SG160933 DB	'I', 00H
	ORG $+2
$SG160804 DB	'HHC00865%s Processor %s%02X: connected to channelset %s', 0aH
	DB	00H
	ORG $+3
$SG160940 DB	'I', 00H
	ORG $+2
$SG160805 DB	'ipending_cmd', 00H
	ORG $+3
$SG160806 DB	'C:\papa\MyGit\hyperion-zvector\hscemode.c', 00H
	ORG $+2
$SG160944 DB	'I', 00H
	ORG $+2
$SG160808 DB	'HHC00866%s Processor %s%02X: state %s', 0aH, 00H
	ORG $+1
$SG160809 DB	'ipending_cmd', 00H
	ORG $+3
$SG160810 DB	'C:\papa\MyGit\hyperion-zvector\hscemode.c', 00H
	ORG $+2
$SG160948 DB	'I', 00H
	ORG $+2
$SG160812 DB	'HHC00867%s Processor %s%02X: instcount %lld', 0aH, 00H
	ORG $+3
$SG160813 DB	'ipending_cmd', 00H
	ORG $+3
$SG160814 DB	'C:\papa\MyGit\hyperion-zvector\hscemode.c', 00H
	ORG $+2
$SG160954 DB	'I', 00H
	ORG $+2
$SG160816 DB	'HHC00868%s Processor %s%02X: siocount %lld', 0aH, 00H
$SG160960 DB	'I', 00H
	ORG $+2
$SG160817 DB	'ipending_cmd', 00H
	ORG $+3
$SG160818 DB	'C:\papa\MyGit\hyperion-zvector\hscemode.c', 00H
	ORG $+6
$SG160821 DB	'%2.2X%2.2X%2.2X%2.2X%2.2X%2.2X%2.2X%2.2X %2.2X%2.2X%2.2X'
	DB	'%2.2X%2.2X%2.2X%2.2X%2.2X', 00H
	ORG $+2
$SG160966 DB	'I', 00H
	ORG $+2
$SG160822 DB	'%2.2X%2.2X%2.2X%2.2X%2.2X%2.2X%2.2X%2.2X', 00H
	ORG $+3
$SG160972 DB	'I', 00H
	ORG $+2
$SG160824 DB	'HHC00869%s Processor %s%02X: psw %s', 0aH, 00H
	ORG $+3
$SG160825 DB	'ipending_cmd', 00H
	ORG $+3
$SG160826 DB	'C:\papa\MyGit\hyperion-zvector\hscemode.c', 00H
	ORG $+6
$SG160830 DB	'HHC00850%s Processor %s%02X: CPUint=%8.8X (State:%8.8X)&'
	DB	'(Mask:%8.8X)', 0aH, 00H
	ORG $+2
$SG160831 DB	'ipending_cmd', 00H
	ORG $+3
$SG160832 DB	'C:\papa\MyGit\hyperion-zvector\hscemode.c', 00H
	ORG $+2
$SG160834 DB	'not ', 00H
	ORG $+3
$SG160978 DB	'I', 00H
	ORG $+2
$SG160837 DB	'HHC00851%s Processor %s%02X: interrupt %spending', 0aH, 00H
	ORG $+2
$SG160984 DB	'I', 00H
	ORG $+2
$SG160838 DB	'ipending_cmd', 00H
	ORG $+3
$SG160839 DB	'C:\papa\MyGit\hyperion-zvector\hscemode.c', 00H
	ORG $+2
$SG160841 DB	'not ', 00H
	ORG $+3
$SG160995 DB	'I', 00H
	ORG $+2
$SG160844 DB	'HHC00852%s Processor %s%02X: I/O interrupt %spending', 0aH
	DB	00H
	ORG $+2
$SG160845 DB	'ipending_cmd', 00H
	ORG $+3
$SG160846 DB	'C:\papa\MyGit\hyperion-zvector\hscemode.c', 00H
	ORG $+2
$SG160848 DB	'not ', 00H
	ORG $+3
$SG161001 DB	'I', 00H
	ORG $+2
$SG160851 DB	'HHC00853%s Processor %s%02X: clock comparator %spending', 0aH
	DB	00H
	ORG $+3
$SG161005 DB	'I', 00H
	ORG $+2
$SG160852 DB	'ipending_cmd', 00H
	ORG $+3
$SG160853 DB	'C:\papa\MyGit\hyperion-zvector\hscemode.c', 00H
	ORG $+2
$SG160855 DB	'not ', 00H
	ORG $+3
$SG161009 DB	'I', 00H
	ORG $+2
$SG160858 DB	'HHC00854%s Processor %s%02X: CPU timer %spending', 0aH, 00H
	ORG $+2
$SG161015 DB	'(none)', 00H
	ORG $+1
$SG161023 DB	'I', 00H
	ORG $+2
$SG160859 DB	'ipending_cmd', 00H
	ORG $+3
$SG160860 DB	'C:\papa\MyGit\hyperion-zvector\hscemode.c', 00H
	ORG $+2
$SG160862 DB	'not ', 00H
	ORG $+3
$SG161018 DB	'local', 00H
	ORG $+2
$SG161029 DB	'I', 00H
	ORG $+2
$SG160865 DB	'HHC00855%s Processor %s%02X: interval timer %spending', 0aH
	DB	00H
	ORG $+1
$SG160866 DB	'ipending_cmd', 00H
	ORG $+3
$SG160867 DB	'C:\papa\MyGit\hyperion-zvector\hscemode.c', 00H
	ORG $+2
$SG160869 DB	'not ', 00H
	ORG $+3
$SG161019 DB	'id=%d', 00H
	ORG $+2
$SG161035 DB	'I', 00H
	ORG $+2
$SG160872 DB	'HHC00857%s Processor %s%02X: external call %spending', 0aH
	DB	00H
	ORG $+2
$SG160873 DB	'ipending_cmd', 00H
	ORG $+3
$SG160874 DB	'C:\papa\MyGit\hyperion-zvector\hscemode.c', 00H
	ORG $+2
$SG160876 DB	'not ', 00H
	ORG $+3
$SG161041 DB	'I', 00H
	ORG $+2
$SG160879 DB	'HHC00858%s Processor %s%02X: emergency signal %spending', 0aH
	DB	00H
	ORG $+3
$SG161047 DB	'I', 00H
	ORG $+2
$SG160880 DB	'ipending_cmd', 00H
	ORG $+3
$SG160881 DB	'C:\papa\MyGit\hyperion-zvector\hscemode.c', 00H
	ORG $+2
$SG160883 DB	'not ', 00H
	ORG $+7
$SG160887 DB	'ipending_cmd', 00H
	ORG $+3
$SG160890 DB	'not ', 00H
	ORG $+3
$SG160886 DB	'HHC00859%s Processor %s%02X: machine check interrupt %sp'
	DB	'ending', 0aH, 00H
$SG160888 DB	'C:\papa\MyGit\hyperion-zvector\hscemode.c', 00H
	ORG $+2
$SG161053 DB	'I', 00H
	ORG $+2
$SG160893 DB	'HHC00860%s Processor %s%02X: service signal %spending', 0aH
	DB	00H
	ORG $+1
$SG160894 DB	'ipending_cmd', 00H
	ORG $+3
$SG160895 DB	'C:\papa\MyGit\hyperion-zvector\hscemode.c', 00H
	ORG $+2
$SG160897 DB	'not ', 00H
	ORG $+3
$SG161059 DB	'I', 00H
	ORG $+2
$SG160900 DB	'HHC00864%s Processor %s%02X: lock %sheld', 0aH, 00H
	ORG $+2
$SG161066 DB	'I', 00H
	ORG $+2
$SG160901 DB	'ipending_cmd', 00H
	ORG $+3
$SG160902 DB	'C:\papa\MyGit\hyperion-zvector\hscemode.c', 00H
	ORG $+2
$SG160906 DB	'none', 00H
	ORG $+3
$SG161071 DB	'I', 00H
	ORG $+2
$SG160910 DB	'HHC00865%s Processor %s%02X: connected to channelset %s', 0aH
	DB	00H
	ORG $+3
$SG161083 DB	'I', 00H
	ORG $+2
$SG160911 DB	'ipending_cmd', 00H
	ORG $+3
$SG160912 DB	'C:\papa\MyGit\hyperion-zvector\hscemode.c', 00H
	ORG $+2
$SG161109 DB	'E', 00H
	ORG $+2
$SG160915 DB	'HHC00866%s Processor %s%02X: state %s', 0aH, 00H
	ORG $+1
$SG160916 DB	'ipending_cmd', 00H
	ORG $+3
$SG160917 DB	'C:\papa\MyGit\hyperion-zvector\hscemode.c', 00H
	ORG $+2
$SG161116 DB	'online', 00H
	ORG $+1
$SG161117 DB	'E', 00H
	ORG $+2
$SG160920 DB	'HHC00867%s Processor %s%02X: instcount %lld', 0aH, 00H
	ORG $+3
$SG160921 DB	'ipending_cmd', 00H
	ORG $+3
$SG160922 DB	'C:\papa\MyGit\hyperion-zvector\hscemode.c', 00H
	ORG $+2
$SG161124 DB	'%llx%c', 00H
	ORG $+1
$SG161127 DB	'E', 00H
	ORG $+2
$SG160925 DB	'HHC00868%s Processor %s%02X: siocount %lld', 0aH, 00H
$SG161132 DB	'I', 00H
	ORG $+2
$SG160926 DB	'ipending_cmd', 00H
	ORG $+3
$SG160927 DB	'C:\papa\MyGit\hyperion-zvector\hscemode.c', 00H
	ORG $+6
$SG160930 DB	'%2.2X%2.2X%2.2X%2.2X%2.2X%2.2X%2.2X%2.2X %2.2X%2.2X%2.2X'
	DB	'%2.2X%2.2X%2.2X%2.2X%2.2X', 00H
	ORG $+2
$SG161137 DB	'I', 00H
	ORG $+2
$SG160931 DB	'%2.2X%2.2X%2.2X%2.2X%2.2X%2.2X%2.2X%2.2X', 00H
	ORG $+3
$SG161165 DB	'online', 00H
	ORG $+1
$SG161166 DB	'W', 00H
	ORG $+2
$SG160934 DB	'HHC00869%s Processor %s%02X: psw %s', 0aH, 00H
	ORG $+3
$SG160935 DB	'ipending_cmd', 00H
	ORG $+3
$SG160936 DB	'C:\papa\MyGit\hyperion-zvector\hscemode.c', 00H
	ORG $+2
$SG161174 DB	'E', 00H
	ORG $+2
$SG160941 DB	'HHC00820%s Processor %s%02X: offline', 0aH, 00H
	ORG $+2
$SG160942 DB	'ipending_cmd', 00H
	ORG $+3
$SG160943 DB	'C:\papa\MyGit\hyperion-zvector\hscemode.c', 00H
	ORG $+2
$SG161183 DB	'E', 00H
	ORG $+2
$SG160945 DB	'HHC00815%s Processors %s%02X through %s%02X are offline', 0aH
	DB	00H
	ORG $+3
$SG161191 DB	'I', 00H
	ORG $+2
$SG160946 DB	'ipending_cmd', 00H
	ORG $+3
$SG160947 DB	'C:\papa\MyGit\hyperion-zvector\hscemode.c', 00H
	ORG $+6
$SG160949 DB	'HHC00870%s config mask %16.16llX started mask %16.16llX '
	DB	'waiting mask %16.16llX', 0aH, 00H
$SG160950 DB	'ipending_cmd', 00H
	ORG $+3
$SG160951 DB	'C:\papa\MyGit\hyperion-zvector\hscemode.c', 00H
	ORG $+2
$SG161195 DB	'%s', 00H
	ORG $+1
$SG160952 DB	'sync in progress', 00H
	ORG $+3
$SG161223 DB	'online', 00H
	ORG $+1
$SG161224 DB	'W', 00H
	ORG $+2
$SG160955 DB	'HHC00871%s syncbc mask %16.16llX %s', 0aH, 00H
	ORG $+3
$SG160956 DB	'ipending_cmd', 00H
	ORG $+3
$SG160957 DB	'C:\papa\MyGit\hyperion-zvector\hscemode.c', 00H
	ORG $+2
$SG160959 DB	'not ', 00H
	ORG $+3
$SG161232 DB	'E', 00H
	ORG $+2
$SG160961 DB	'HHC00872%s signaling facility %sbusy', 0aH, 00H
	ORG $+2
$SG160962 DB	'ipending_cmd', 00H
	ORG $+3
$SG160963 DB	'C:\papa\MyGit\hyperion-zvector\hscemode.c', 00H
	ORG $+2
$SG160965 DB	'not ', 00H
	ORG $+3
$SG161244 DB	'E', 00H
	ORG $+2
$SG160967 DB	'HHC00873%s TOD lock %sheld', 0aH, 00H
$SG161251 DB	'I', 00H
	ORG $+2
$SG160968 DB	'ipending_cmd', 00H
	ORG $+3
$SG160969 DB	'C:\papa\MyGit\hyperion-zvector\hscemode.c', 00H
	ORG $+2
$SG160971 DB	'not ', 00H
	ORG $+3
$SG161255 DB	'%s', 00H
	ORG $+1
$SG160973 DB	'HHC00874%s mainlock %sheld; owner %4.4x', 0aH, 00H
	ORG $+3
$SG161278 DB	'online', 00H
	ORG $+1
$SG161279 DB	'W', 00H
	ORG $+2
$SG160974 DB	'ipending_cmd', 00H
	ORG $+3
$SG160975 DB	'C:\papa\MyGit\hyperion-zvector\hscemode.c', 00H
	ORG $+2
$SG160977 DB	'not ', 00H
	ORG $+3
$SG161287 DB	'E', 00H
	ORG $+2
$SG160979 DB	'HHC00875%s intlock %sheld; owner %4.4x', 0aH, 00H
$SG160980 DB	'ipending_cmd', 00H
	ORG $+3
$SG160981 DB	'C:\papa\MyGit\hyperion-zvector\hscemode.c', 00H
	ORG $+2
$SG160983 DB	'not ', 00H
	ORG $+3
$SG161293 DB	'%llx%c', 00H
	ORG $+1
$SG161296 DB	'E', 00H
	ORG $+2
$SG160985 DB	'HHC00876%s ioq lock %sheld', 0aH, 00H
$SG161300 DB	'I', 00H
	ORG $+2
$SG160986 DB	'ipending_cmd', 00H
	ORG $+3
$SG160987 DB	'C:\papa\MyGit\hyperion-zvector\hscemode.c', 00H
	ORG $+2
$SG161328 DB	'online', 00H
	ORG $+1
$SG161329 DB	'W', 00H
	ORG $+2
$SG160988 DB	'C:\papa\MyGit\hyperion-zvector\hscemode.c:2191', 00H
	ORG $+1
$SG160992 DB	'C:\papa\MyGit\hyperion-zvector\hscemode.c:2198', 00H
	ORG $+1
$SG160996 DB	'HHC00883%s Channel Report queue: (NULL)', 0aH, 00H
	ORG $+3
$SG161331 DB	'cr_cmd', 00H
	ORG $+1
$SG161339 DB	'E', 00H
	ORG $+2
$SG160997 DB	'ipending_cmd', 00H
	ORG $+3
$SG160998 DB	'C:\papa\MyGit\hyperion-zvector\hscemode.c', 00H
	ORG $+2
$SG161341 DB	'cr_cmd', 00H
	ORG $+1
$SG161347 DB	'I', 00H
	ORG $+2
$SG161002 DB	'HHC00884%s Channel Report queue: (empty)', 0aH, 00H
	ORG $+2
$SG161349 DB	'cr_cmd', 00H
	ORG $+1
$SG161351 DB	'%s', 00H
	ORG $+1
$SG161003 DB	'ipending_cmd', 00H
	ORG $+3
$SG161004 DB	'C:\papa\MyGit\hyperion-zvector\hscemode.c', 00H
	ORG $+2
$SG161352 DB	'cr_cmd', 00H
	ORG $+1
$SG161378 DB	'I', 00H
	ORG $+2
$SG161006 DB	'HHC00885%s Channel Report queue:', 0aH, 00H
	ORG $+2
$SG161383 DB	'E', 00H
	ORG $+2
$SG161007 DB	'ipending_cmd', 00H
	ORG $+3
$SG161008 DB	'C:\papa\MyGit\hyperion-zvector\hscemode.c', 00H
	ORG $+2
$SG161388 DB	'E', 00H
	ORG $+2
$SG161010 DB	'HHC00886%s CRW 0x%8.8X: %s', 0aH, 00H
$SG161393 DB	'E', 00H
	ORG $+2
$SG161011 DB	'ipending_cmd', 00H
	ORG $+3
$SG161012 DB	'C:\papa\MyGit\hyperion-zvector\hscemode.c', 00H
	ORG $+2
$SG161398 DB	'W', 00H
	ORG $+2
$SG161022 DB	'busy %s', 00H
$SG161024 DB	'HHC00880%s device %1d:%04X: status %s', 0aH, 00H
	ORG $+1
$SG161025 DB	'ipending_cmd', 00H
	ORG $+3
$SG161026 DB	'C:\papa\MyGit\hyperion-zvector\hscemode.c', 00H
	ORG $+6
$SG161028 DB	'reserved %s', 00H
	ORG $+4
$SG161030 DB	'HHC00880%s device %1d:%04X: status %s', 0aH, 00H
	ORG $+1
$SG161031 DB	'ipending_cmd', 00H
	ORG $+3
$SG161032 DB	'C:\papa\MyGit\hyperion-zvector\hscemode.c', 00H
	ORG $+6
$SG161034 DB	'suspended', 00H
	ORG $+6
$SG161036 DB	'HHC00880%s device %1d:%04X: status %s', 0aH, 00H
	ORG $+1
$SG161037 DB	'ipending_cmd', 00H
	ORG $+3
$SG161038 DB	'C:\papa\MyGit\hyperion-zvector\hscemode.c', 00H
	ORG $+6
$SG161040 DB	'I/O pending', 00H
	ORG $+4
$SG161042 DB	'HHC00880%s device %1d:%04X: status %s', 0aH, 00H
	ORG $+1
$SG161043 DB	'ipending_cmd', 00H
	ORG $+3
$SG161044 DB	'C:\papa\MyGit\hyperion-zvector\hscemode.c', 00H
	ORG $+6
$SG161046 DB	'PCI pending', 00H
	ORG $+4
$SG161048 DB	'HHC00880%s device %1d:%04X: status %s', 0aH, 00H
	ORG $+1
$SG161049 DB	'ipending_cmd', 00H
	ORG $+3
$SG161050 DB	'C:\papa\MyGit\hyperion-zvector\hscemode.c', 00H
	ORG $+6
$SG161052 DB	'Attn pending', 00H
	ORG $+3
$SG161054 DB	'HHC00880%s device %1d:%04X: status %s', 0aH, 00H
	ORG $+1
$SG161055 DB	'ipending_cmd', 00H
	ORG $+3
$SG161056 DB	'C:\papa\MyGit\hyperion-zvector\hscemode.c', 00H
	ORG $+6
$SG161058 DB	'lock held', 00H
	ORG $+6
$SG161060 DB	'HHC00880%s device %1d:%04X: status %s', 0aH, 00H
	ORG $+1
$SG161061 DB	'ipending_cmd', 00H
	ORG $+3
$SG161062 DB	'C:\papa\MyGit\hyperion-zvector\hscemode.c', 00H
	ORG $+6
$SG161065 DB	' (NULL)', 00H
$SG161067 DB	'HHC00881%s I/O interrupt queue:%s', 0aH, 00H
	ORG $+5
$SG161068 DB	'ipending_cmd', 00H
	ORG $+3
$SG161069 DB	'C:\papa\MyGit\hyperion-zvector\hscemode.c', 00H
	ORG $+6
$SG161072 DB	'HHC00881%s I/O interrupt queue:%s', 0aH, 00H
	ORG $+5
$SG161073 DB	'ipending_cmd', 00H
	ORG $+3
$SG161074 DB	'C:\papa\MyGit\hyperion-zvector\hscemode.c', 00H
	ORG $+6
$SG161075 DB	' unknown,', 00H
	ORG $+6
$SG161077 DB	' ATTN,   ', 00H
	ORG $+6
$SG161079 DB	' PCI,    ', 00H
	ORG $+6
$SG161081 DB	' normal, ', 00H
	ORG $+6
$SG161085 DB	'ipending_cmd', 00H
	ORG $+3
$SG161113 DB	'C:\papa\MyGit\hyperion-zvector\hscemode.c:2328', 00H
	ORG $+1
$SG161118 DB	'HHC00816%s Processor %s%02X: processor is not %s', 0aH, 00H
	ORG $+6
$SG161084 DB	'HHC00882%s device %1d:%04X: %s%s%s%s pri ISC %02X CSS %0'
	DB	'2X CU %02X', 0aH, 00H
	ORG $+4
$SG161086 DB	'C:\papa\MyGit\hyperion-zvector\hscemode.c', 00H
	ORG $+6
$SG161115 DB	'C:\papa\MyGit\hyperion-zvector\hscemode.c:2335', 00H
	ORG $+1
$SG161126 DB	': invalid address', 00H
	ORG $+6
$SG161110 DB	'HHC02299%s Invalid command usage. Type ''help %s'' for a'
	DB	'ssistance.', 0aH, 00H
	ORG $+6
$SG161111 DB	'bear_cmd', 00H
	ORG $+7
$SG161112 DB	'C:\papa\MyGit\hyperion-zvector\hscemode.c', 00H
	ORG $+6
$SG161119 DB	'bear_cmd', 00H
	ORG $+7
$SG161120 DB	'C:\papa\MyGit\hyperion-zvector\hscemode.c', 00H
	ORG $+6
$SG161125 DB	'C:\papa\MyGit\hyperion-zvector\hscemode.c:2348', 00H
	ORG $+1
$SG161128 DB	'HHC02205%s Invalid argument %s%s', 0aH, 00H
	ORG $+6
$SG161129 DB	'bear_cmd', 00H
	ORG $+7
$SG161130 DB	'C:\papa\MyGit\hyperion-zvector\hscemode.c', 00H
	ORG $+2
$SG161131 DB	'%llx', 00H
	ORG $+7
$SG161133 DB	'HHC02204%s %-14s set to %s', 0aH, 00H
	ORG $+4
$SG161134 DB	'bear_cmd', 00H
	ORG $+7
$SG161135 DB	'C:\papa\MyGit\hyperion-zvector\hscemode.c', 00H
	ORG $+2
$SG161136 DB	'%llx', 00H
	ORG $+7
$SG161138 DB	'HHC02203%s %-14s: %s', 0aH, 00H
	ORG $+2
$SG161139 DB	'bear_cmd', 00H
	ORG $+7
$SG161140 DB	'C:\papa\MyGit\hyperion-zvector\hscemode.c', 00H
	ORG $+6
$SG161141 DB	'C:\papa\MyGit\hyperion-zvector\hscemode.c:2367', 00H
	ORG $+1
$SG161162 DB	'C:\papa\MyGit\hyperion-zvector\hscemode.c:2382', 00H
	ORG $+1
$SG161164 DB	'C:\papa\MyGit\hyperion-zvector\hscemode.c:2386', 00H
	ORG $+1
$SG161167 DB	'HHC00816%s Processor %s%02X: processor is not %s', 0aH, 00H
	ORG $+6
$SG161168 DB	'gpr_cmd', 00H
$SG161169 DB	'C:\papa\MyGit\hyperion-zvector\hscemode.c', 00H
	ORG $+6
$SG161172 DB	'C:\papa\MyGit\hyperion-zvector\hscemode.c:2401', 00H
	ORG $+1
$SG161175 DB	'HHC02205%s Invalid argument %s%s', 0aH, 00H
	ORG $+6
$SG161176 DB	'gpr_cmd', 00H
$SG161177 DB	'C:\papa\MyGit\hyperion-zvector\hscemode.c', 00H
	ORG $+6
$SG161180 DB	'%d%c%llx%c', 00H
	ORG $+5
$SG161181 DB	'C:\papa\MyGit\hyperion-zvector\hscemode.c:2413', 00H
	ORG $+1
$SG161184 DB	'HHC02205%s Invalid argument %s%s', 0aH, 00H
	ORG $+6
$SG161185 DB	'gpr_cmd', 00H
$SG161186 DB	'C:\papa\MyGit\hyperion-zvector\hscemode.c', 00H
	ORG $+6
$SG161189 DB	'HHC02269I ', 00H
	ORG $+5
$SG161190 DB	'General purpose registers', 00H
	ORG $+6
$SG161192 DB	'HHC02269%s %s', 0aH, 00H
	ORG $+1
$SG161193 DB	'gpr_cmd', 00H
$SG161194 DB	'C:\papa\MyGit\hyperion-zvector\hscemode.c', 00H
	ORG $+6
$SG161196 DB	'gpr_cmd', 00H
$SG161197 DB	'C:\papa\MyGit\hyperion-zvector\hscemode.c', 00H
	ORG $+6
$SG161198 DB	'C:\papa\MyGit\hyperion-zvector\hscemode.c:2428', 00H
	ORG $+1
$SG161220 DB	'C:\papa\MyGit\hyperion-zvector\hscemode.c:2444', 00H
	ORG $+1
$SG161222 DB	'C:\papa\MyGit\hyperion-zvector\hscemode.c:2448', 00H
	ORG $+1
$SG161225 DB	'HHC00816%s Processor %s%02X: processor is not %s', 0aH, 00H
	ORG $+6
$SG161226 DB	'fpr_cmd', 00H
$SG161227 DB	'C:\papa\MyGit\hyperion-zvector\hscemode.c', 00H
	ORG $+6
$SG161230 DB	'C:\papa\MyGit\hyperion-zvector\hscemode.c:2463', 00H
	ORG $+1
$SG161233 DB	'HHC02205%s Invalid argument %s%s', 0aH, 00H
	ORG $+6
$SG161234 DB	'fpr_cmd', 00H
$SG161235 DB	'C:\papa\MyGit\hyperion-zvector\hscemode.c', 00H
	ORG $+6
$SG161238 DB	'%d%c%llx%c', 00H
	ORG $+5
$SG161242 DB	'C:\papa\MyGit\hyperion-zvector\hscemode.c:2478', 00H
	ORG $+1
$SG161245 DB	'HHC02205%s Invalid argument %s%s', 0aH, 00H
	ORG $+6
$SG161246 DB	'fpr_cmd', 00H
$SG161247 DB	'C:\papa\MyGit\hyperion-zvector\hscemode.c', 00H
	ORG $+6
$SG161249 DB	'HHC02270I ', 00H
	ORG $+5
$SG161250 DB	'Floating point registers', 00H
	ORG $+7
$SG161252 DB	'HHC02270%s %s', 0aH, 00H
	ORG $+1
$SG161253 DB	'fpr_cmd', 00H
$SG161254 DB	'C:\papa\MyGit\hyperion-zvector\hscemode.c', 00H
	ORG $+6
$SG161256 DB	'fpr_cmd', 00H
$SG161257 DB	'C:\papa\MyGit\hyperion-zvector\hscemode.c', 00H
	ORG $+6
$SG161258 DB	'C:\papa\MyGit\hyperion-zvector\hscemode.c:2493', 00H
	ORG $+1
$SG161275 DB	'C:\papa\MyGit\hyperion-zvector\hscemode.c:2508', 00H
	ORG $+1
$SG161277 DB	'C:\papa\MyGit\hyperion-zvector\hscemode.c:2512', 00H
	ORG $+1
$SG161280 DB	'HHC00816%s Processor %s%02X: processor is not %s', 0aH, 00H
	ORG $+6
$SG161281 DB	'fpc_cmd', 00H
$SG161282 DB	'C:\papa\MyGit\hyperion-zvector\hscemode.c', 00H
	ORG $+6
$SG161285 DB	'C:\papa\MyGit\hyperion-zvector\hscemode.c:2526', 00H
	ORG $+1
$SG161288 DB	'HHC02205%s Invalid argument %s%s', 0aH, 00H
	ORG $+6
$SG161289 DB	'fpc_cmd', 00H
$SG161290 DB	'C:\papa\MyGit\hyperion-zvector\hscemode.c', 00H
	ORG $+6
$SG161294 DB	'C:\papa\MyGit\hyperion-zvector\hscemode.c:2537', 00H
	ORG $+1
$SG161297 DB	'HHC02205%s Invalid argument %s%s', 0aH, 00H
	ORG $+6
$SG161298 DB	'fpc_cmd', 00H
$SG161299 DB	'C:\papa\MyGit\hyperion-zvector\hscemode.c', 00H
	ORG $+6
$SG161301 DB	'HHC02276%s Floating point control register: %08X', 0aH, 00H
	ORG $+6
$SG161302 DB	'fpc_cmd', 00H
$SG161303 DB	'C:\papa\MyGit\hyperion-zvector\hscemode.c', 00H
	ORG $+6
$SG161304 DB	'C:\papa\MyGit\hyperion-zvector\hscemode.c:2549', 00H
	ORG $+1
$SG161325 DB	'C:\papa\MyGit\hyperion-zvector\hscemode.c:2568', 00H
	ORG $+1
$SG161327 DB	'C:\papa\MyGit\hyperion-zvector\hscemode.c:2572', 00H
	ORG $+1
$SG161330 DB	'HHC00816%s Processor %s%02X: processor is not %s', 0aH, 00H
	ORG $+6
$SG161332 DB	'C:\papa\MyGit\hyperion-zvector\hscemode.c', 00H
	ORG $+6
$SG161336 DB	'%d%c%llx%c', 00H
	ORG $+5
$SG161337 DB	'C:\papa\MyGit\hyperion-zvector\hscemode.c:2584', 00H
	ORG $+1
$SG161340 DB	'HHC02205%s Invalid argument %s%s', 0aH, 00H
	ORG $+6
$SG161342 DB	'C:\papa\MyGit\hyperion-zvector\hscemode.c', 00H
	ORG $+6
$SG161345 DB	'HHC02271I ', 00H
	ORG $+5
$SG161346 DB	'Control registers', 00H
	ORG $+6
$SG161348 DB	'HHC02271%s %s', 0aH, 00H
	ORG $+1
$SG161350 DB	'C:\papa\MyGit\hyperion-zvector\hscemode.c', 00H
	ORG $+6
$SG161353 DB	'C:\papa\MyGit\hyperion-zvector\hscemode.c', 00H
	ORG $+6
$SG161354 DB	'C:\papa\MyGit\hyperion-zvector\hscemode.c:2598', 00H
	ORG $+1
$SG161379 DB	'HHC02230%s %1d:%04X attention request raised', 0aH, 00H
	ORG $+2
$SG161380 DB	'i_cmd', 00H
	ORG $+2
$SG161381 DB	'C:\papa\MyGit\hyperion-zvector\hscemode.c', 00H
	ORG $+6
$SG161384 DB	'HHC02231%s %1d:%04X busy or interrupt pending', 0aH, 00H
	ORG $+1
$SG161385 DB	'i_cmd', 00H
	ORG $+2
$SG161386 DB	'C:\papa\MyGit\hyperion-zvector\hscemode.c', 00H
	ORG $+6
$SG161389 DB	'HHC02232%s %1d:%04X attention request rejected', 0aH, 00H
$SG161390 DB	'i_cmd', 00H
	ORG $+2
$SG161391 DB	'C:\papa\MyGit\hyperion-zvector\hscemode.c', 00H
	ORG $+6
$SG161394 DB	'HHC02233%s %1d:%04X subchannel not enabled', 0aH, 00H
$SG161395 DB	'i_cmd', 00H
	ORG $+6
$SG161396 DB	'C:\papa\MyGit\hyperion-zvector\hscemode.c', 00H
	ORG $+6
$SG161399 DB	'HHC02234%s Are you sure you didn''t mean ''ipl %04X''', 0aH
	DB	00H
$SG161400 DB	'i_cmd', 00H
	ORG $+6
$SG161401 DB	'C:\papa\MyGit\hyperion-zvector\hscemode.c', 00H
	ORG $+6
$SG161495 DB	'C:\papa\MyGit\hyperion-zvector\hscemode.c:3107', 00H
	ORG $+1
$SG161496 DB	'C:\papa\MyGit\hyperion-zvector\hscemode.c:3112', 00H
_DATA	ENDS
voltbl	SEGMENT
_volmd	DD	0ffffffffH
	DDSymXIndex: 	FLAT:cr_cmd
	DD	01fH
	DD	03b6H
_volmd	DD	0ffffffffH
	DDSymXIndex: 	FLAT:fpr_cmd
	DD	01fH
	DD	04edH
_volmd	DD	0ffffffffH
	DDSymXIndex: 	FLAT:gpr_cmd
	DD	01fH
	DD	046aH
_volmd	DD	0ffffffffH
	DDSymXIndex: 	FLAT:bear_cmd
	DD	020H
	DD	04e0H
_volmd	DD	0ffffffffH
	DDSymXIndex: 	FLAT:ipending_cmd
	DD	02bH
	DD	03e22H
_volmd	DD	0ffffffffH
	DDSymXIndex: 	FLAT:txf_cmd
	DD	020H
	DD	01886H
_volmd	DD	0ffffffffH
	DDSymXIndex: 	FLAT:trace_cmd
	DD	020H
	DD	014a0H
_volmd	DD	0ffffffffH
	DDSymXIndex: 	FLAT:tf_cmd
	DD	020H
	DD	01381H
_volmd	DD	0ffffffffH
	DDSymXIndex: 	FLAT:psw_cmd
	DD	01fH
	DD	0f97H
_volmd	DD	0ffffffffH
	DDSymXIndex: 	FLAT:ar_cmd
	DD	01fH
	DD	0259H
_volmd	DD	0ffffffffH
	DDSymXIndex: 	FLAT:tlb_cmd
	DD	021H
	DD	0d4eH
_volmd	DD	0ffffffffH
	DDSymXIndex: 	FLAT:traceopt_cmd
	DD	01fH
	DD	05cdH
_volmd	DD	0ffffffffH
	DDSymXIndex: 	FLAT:report_aea
	DD	016H
	DD	072aH
_volmd	DD	0ffffffffH
	DDSymXIndex: 	FLAT:z900_archdep_pr_cmd
	DD	01fH
	DD	0214H
_volmd	DD	0ffffffffH
	DDSymXIndex: 	FLAT:s390_archdep_pr_cmd
	DD	01fH
	DD	0211H
_volmd	DD	0ffffffffH
	DDSymXIndex: 	FLAT:s370_archdep_pr_cmd
	DD	01fH
	DD	0211H
_volmd	DD	0ffffffffH
	DDSymXIndex: 	FLAT:aia_cmd
	DD	01fH
	DD	034bH
voltbl	ENDS
xdata	SEGMENT
$unwind$DebuggerTrace DD 011801H
	DD	0a218H
$unwind$strcaseabbrev DD 011301H
	DD	08213H
$unwind$strupper DD 010e01H
	DD	0620eH
$unwind$aia_cmd DD 022719H
	DD	02f0115H
	DD	imagerel __GSHandlerCheck
	DD	0160H
$unwind$createCpuId DD 011801H
	DD	02218H
$unwind$setAllCpuIds DD 011701H
	DD	0a217H
$unwind$setAllCpuIds_lock DD 011701H
	DD	08217H
$unwind$setCpuIdregs DD 011801H
	DD	0c218H
$unwind$setCpuId DD 011701H
	DD	08217H
$unwind$resetAllCpuIds DD 010401H
	DD	06204H
$unwind$setOperationMode DD 010401H
	DD	02204H
$unwind$enable_lparmode DD 010801H
	DD	04208H
$unwind$Interrupt_Lock_Obtained DD 010e01H
	DD	0420eH
$unwind$Obtain_Interrupt_Lock DD 010e01H
	DD	0420eH
$unwind$Try_Obtain_Interrupt_Lock DD 010e01H
	DD	0620eH
$unwind$Release_Interrupt_Lock DD 010e01H
	DD	0420eH
$unwind$s370_archdep_pr_cmd DD 022719H
	DD	0170115H
	DD	imagerel __GSHandlerCheck
	DD	0a0H
$unwind$s390_archdep_pr_cmd DD 022719H
	DD	0170115H
	DD	imagerel __GSHandlerCheck
	DD	0a0H
$unwind$z900_archdep_pr_cmd DD 022719H
	DD	0170115H
	DD	imagerel __GSHandlerCheck
	DD	0a0H
$unwind$devnotfound_msg DD 010e01H
	DD	0c20eH
$unwind$missing_devnum DD 010401H
	DD	08204H
$unwind$aea_mode_str DD 010801H
	DD	02208H
$unwind$report_aea DD 021e19H
	DD	02d010cH
	DD	imagerel __GSHandlerCheck
	DD	0150H
$unwind$aea_cmd DD 011201H
	DD	0c212H
$unwind$traceopt_cmd DD 022719H
	DD	0210115H
	DD	imagerel __GSHandlerCheck
	DD	0f0H
$unwind$tlb_cmd DD 042919H
	DD	0370117H
	DD	0300f7010H
	DD	imagerel __GSHandlerCheck
	DD	01a0H
$unwind$ar_cmd DD 022719H
	DD	03f0115H
	DD	imagerel __GSHandlerCheck
	DD	01e0H
$unwind$pr_cmd DD 021501H
	DD	0110115H
$unwind$psw_cmd DD 022719H
	DD	06b0115H
	DD	imagerel __GSHandlerCheck
	DD	0340H
$unwind$abs_or_r_cmd DD 011201H
	DD	0c212H
$unwind$u_cmd DD 011201H
	DD	0c212H
$unwind$v_cmd DD 011201H
	DD	0c212H
$unwind$tf_cmd DD 032819H
	DD	06c0116H
	DD	0700fH
	DD	imagerel __GSHandlerCheck
	DD	0350H
$unwind$trace_cmd DD 032819H
	DD	0520116H
	DD	0700fH
	DD	imagerel __GSHandlerCheck
	DD	0280H
$unwind$txf_cmd DD 032819H
	DD	0ee0116H
	DD	0700fH
	DD	imagerel __GSHandlerCheck
	DD	0760H
$unwind$auto_trace_cmd DD 011201H
	DD	0e212H
$unwind$ipending_cmd DD 0a3319H
	DD	0cb0121H
	DD	0e018f01aH
	DD	0c014d016H
	DD	060117012H
	DD	0300f5010H
	DD	imagerel __GSHandlerCheck
	DD	0640H
$unwind$bear_cmd DD 032819H
	DD	0160116H
	DD	0700fH
	DD	imagerel __GSHandlerCheck
	DD	0a8H
$unwind$gpr_cmd DD 022719H
	DD	0550115H
	DD	imagerel __GSHandlerCheck
	DD	0290H
$unwind$fpr_cmd DD 022719H
	DD	0550115H
	DD	imagerel __GSHandlerCheck
	DD	0290H
$unwind$fpc_cmd DD 021501H
	DD	0110115H
$unwind$cr_cmd DD 022719H
	DD	0530115H
	DD	imagerel __GSHandlerCheck
	DD	0280H
$unwind$i_cmd DD 021501H
	DD	0150115H
xdata	ENDS
;	COMDAT xdata
xdata	SEGMENT
$unwind$sscanf DD 011801H
	DD	06218H
xdata	ENDS
;	COMDAT xdata
xdata	SEGMENT
$unwind$_vsscanf_l DD 011801H
	DD	06218H
xdata	ENDS
;	COMDAT xdata
xdata	SEGMENT
$unwind$_vsnprintf_s DD 011801H
	DD	06218H
xdata	ENDS
;	COMDAT xdata
xdata	SEGMENT
$unwind$_vsnprintf_s_l DD 011801H
	DD	0a218H
xdata	ENDS
; Function compile flags: /Odtp
; File C:\papa\MyGit\hyperion-zvector\hscemode.c
_TEXT	SEGMENT
devnum$ = 80
lcss$ = 84
rc$ = 88
tv82 = 92
tv83 = 96
tv85 = 100
tv128 = 104
tv130 = 108
tv141 = 112
tv143 = 116
tv154 = 120
tv156 = 124
tv187 = 128
dev$ = 136
regs$ = 144
argc$ = 176
argv$ = 184
cmdline$ = 192
i_cmd	PROC

; 2608 : {

$LN16:
  00000	4c 89 44 24 18	 mov	 QWORD PTR [rsp+24], r8
  00005	48 89 54 24 10	 mov	 QWORD PTR [rsp+16], rdx
  0000a	89 4c 24 08	 mov	 DWORD PTR [rsp+8], ecx
  0000e	48 81 ec a8 00
	00 00		 sub	 rsp, 168		; 000000a8H

; 2609 :     REGS*    regs;
; 2610 :     DEVBLK*  dev;
; 2611 :     int      rc = 0;

  00015	c7 44 24 58 00
	00 00 00	 mov	 DWORD PTR rc$[rsp], 0
$LN4@i_cmd:

; 2612 :     U16      lcss, devnum;
; 2613 : 
; 2614 :     UNREFERENCED( cmdline );

  0001d	33 c0		 xor	 eax, eax
  0001f	85 c0		 test	 eax, eax
  00021	75 fa		 jne	 SHORT $LN4@i_cmd

; 2615 : 
; 2616 :     if (argc < 2)

  00023	83 bc 24 b0 00
	00 00 02	 cmp	 DWORD PTR argc$[rsp], 2
  0002b	7d 0f		 jge	 SHORT $LN7@i_cmd

; 2617 :     {
; 2618 :         missing_devnum();

  0002d	e8 00 00 00 00	 call	 missing_devnum

; 2619 :         return -1;

  00032	b8 ff ff ff ff	 mov	 eax, -1
  00037	e9 3a 03 00 00	 jmp	 $LN1@i_cmd
$LN7@i_cmd:

; 2620 :     }
; 2621 : 
; 2622 :     rc = parse_single_devnum( argv[1], &lcss, &devnum );

  0003c	b8 08 00 00 00	 mov	 eax, 8
  00041	48 6b c0 01	 imul	 rax, rax, 1
  00045	4c 8d 44 24 50	 lea	 r8, QWORD PTR devnum$[rsp]
  0004a	48 8d 54 24 54	 lea	 rdx, QWORD PTR lcss$[rsp]
  0004f	48 8b 8c 24 b8
	00 00 00	 mov	 rcx, QWORD PTR argv$[rsp]
  00057	48 8b 0c 01	 mov	 rcx, QWORD PTR [rcx+rax]
  0005b	e8 00 00 00 00	 call	 parse_single_devnum
  00060	89 44 24 58	 mov	 DWORD PTR rc$[rsp], eax

; 2623 : 
; 2624 :     if (rc < 0)

  00064	83 7c 24 58 00	 cmp	 DWORD PTR rc$[rsp], 0
  00069	7d 0a		 jge	 SHORT $LN8@i_cmd

; 2625 :         return -1;  // (error message already issued)

  0006b	b8 ff ff ff ff	 mov	 eax, -1
  00070	e9 01 03 00 00	 jmp	 $LN1@i_cmd
$LN8@i_cmd:

; 2626 : 
; 2627 :     if (!(dev = find_device_by_devnum( lcss, devnum )))

  00075	0f b7 54 24 50	 movzx	 edx, WORD PTR devnum$[rsp]
  0007a	0f b7 4c 24 54	 movzx	 ecx, WORD PTR lcss$[rsp]
  0007f	e8 00 00 00 00	 call	 find_device_by_devnum
  00084	48 89 84 24 88
	00 00 00	 mov	 QWORD PTR dev$[rsp], rax
  0008c	48 83 bc 24 88
	00 00 00 00	 cmp	 QWORD PTR dev$[rsp], 0
  00095	75 19		 jne	 SHORT $LN9@i_cmd

; 2628 :     {
; 2629 :         devnotfound_msg( lcss, devnum );

  00097	0f b7 54 24 50	 movzx	 edx, WORD PTR devnum$[rsp]
  0009c	0f b7 4c 24 54	 movzx	 ecx, WORD PTR lcss$[rsp]
  000a1	e8 00 00 00 00	 call	 devnotfound_msg

; 2630 :         return -1;

  000a6	b8 ff ff ff ff	 mov	 eax, -1
  000ab	e9 c6 02 00 00	 jmp	 $LN1@i_cmd
$LN9@i_cmd:

; 2631 :     }
; 2632 : 
; 2633 :     rc = device_attention( dev, CSW_ATTN );

  000b0	b2 80		 mov	 dl, 128			; 00000080H
  000b2	48 8b 8c 24 88
	00 00 00	 mov	 rcx, QWORD PTR dev$[rsp]
  000ba	e8 00 00 00 00	 call	 device_attention
  000bf	89 44 24 58	 mov	 DWORD PTR rc$[rsp], eax

; 2634 : 
; 2635 :     switch (rc)

  000c3	8b 44 24 58	 mov	 eax, DWORD PTR rc$[rsp]
  000c7	89 44 24 5c	 mov	 DWORD PTR tv82[rsp], eax
  000cb	83 7c 24 5c 00	 cmp	 DWORD PTR tv82[rsp], 0
  000d0	74 26		 je	 SHORT $LN10@i_cmd
  000d2	83 7c 24 5c 01	 cmp	 DWORD PTR tv82[rsp], 1
  000d7	0f 84 89 00 00
	00		 je	 $LN11@i_cmd
  000dd	83 7c 24 5c 02	 cmp	 DWORD PTR tv82[rsp], 2
  000e2	0f 84 ec 00 00
	00		 je	 $LN12@i_cmd
  000e8	83 7c 24 5c 03	 cmp	 DWORD PTR tv82[rsp], 3
  000ed	0f 84 4c 01 00
	00		 je	 $LN13@i_cmd
  000f3	e9 b0 01 00 00	 jmp	 $LN5@i_cmd
$LN10@i_cmd:

; 2636 :     {
; 2637 :         // "%1d:%04X attention request raised"
; 2638 :         case 0: WRMSG( HHC02230, "I", lcss, devnum ); break;

  000f8	0f b7 44 24 50	 movzx	 eax, WORD PTR devnum$[rsp]
  000fd	89 44 24 60	 mov	 DWORD PTR tv83[rsp], eax
  00101	0f b7 4c 24 54	 movzx	 ecx, WORD PTR lcss$[rsp]
  00106	89 4c 24 64	 mov	 DWORD PTR tv85[rsp], ecx
  0010a	b9 01 00 00 00	 mov	 ecx, 1
  0010f	ff 15 00 00 00
	00		 call	 QWORD PTR __imp___acrt_iob_func
  00115	8b 4c 24 60	 mov	 ecx, DWORD PTR tv83[rsp]
  00119	89 4c 24 40	 mov	 DWORD PTR [rsp+64], ecx
  0011d	8b 4c 24 64	 mov	 ecx, DWORD PTR tv85[rsp]
  00121	89 4c 24 38	 mov	 DWORD PTR [rsp+56], ecx
  00125	48 8d 0d 00 00
	00 00		 lea	 rcx, OFFSET FLAT:$SG161378
  0012c	48 89 4c 24 30	 mov	 QWORD PTR [rsp+48], rcx
  00131	48 8d 0d 00 00
	00 00		 lea	 rcx, OFFSET FLAT:$SG161379
  00138	48 89 4c 24 28	 mov	 QWORD PTR [rsp+40], rcx
  0013d	48 89 44 24 20	 mov	 QWORD PTR [rsp+32], rax
  00142	41 b9 03 00 00
	00		 mov	 r9d, 3
  00148	4c 8d 05 00 00
	00 00		 lea	 r8, OFFSET FLAT:$SG161380
  0014f	ba 4e 0a 00 00	 mov	 edx, 2638		; 00000a4eH
  00154	48 8d 0d 00 00
	00 00		 lea	 rcx, OFFSET FLAT:$SG161381
  0015b	ff 15 00 00 00
	00		 call	 QWORD PTR __imp_fwritemsg
  00161	e9 42 01 00 00	 jmp	 $LN5@i_cmd
$LN11@i_cmd:

; 2639 : 
; 2640 :         // "%1d:%04X busy or interrupt pending"
; 2641 :         case 1: WRMSG( HHC02231, "E", lcss, devnum ); break;

  00166	0f b7 44 24 50	 movzx	 eax, WORD PTR devnum$[rsp]
  0016b	89 44 24 68	 mov	 DWORD PTR tv128[rsp], eax
  0016f	0f b7 4c 24 54	 movzx	 ecx, WORD PTR lcss$[rsp]
  00174	89 4c 24 6c	 mov	 DWORD PTR tv130[rsp], ecx
  00178	b9 01 00 00 00	 mov	 ecx, 1
  0017d	ff 15 00 00 00
	00		 call	 QWORD PTR __imp___acrt_iob_func
  00183	8b 4c 24 68	 mov	 ecx, DWORD PTR tv128[rsp]
  00187	89 4c 24 40	 mov	 DWORD PTR [rsp+64], ecx
  0018b	8b 4c 24 6c	 mov	 ecx, DWORD PTR tv130[rsp]
  0018f	89 4c 24 38	 mov	 DWORD PTR [rsp+56], ecx
  00193	48 8d 0d 00 00
	00 00		 lea	 rcx, OFFSET FLAT:$SG161383
  0019a	48 89 4c 24 30	 mov	 QWORD PTR [rsp+48], rcx
  0019f	48 8d 0d 00 00
	00 00		 lea	 rcx, OFFSET FLAT:$SG161384
  001a6	48 89 4c 24 28	 mov	 QWORD PTR [rsp+40], rcx
  001ab	48 89 44 24 20	 mov	 QWORD PTR [rsp+32], rax
  001b0	41 b9 03 00 00
	00		 mov	 r9d, 3
  001b6	4c 8d 05 00 00
	00 00		 lea	 r8, OFFSET FLAT:$SG161385
  001bd	ba 51 0a 00 00	 mov	 edx, 2641		; 00000a51H
  001c2	48 8d 0d 00 00
	00 00		 lea	 rcx, OFFSET FLAT:$SG161386
  001c9	ff 15 00 00 00
	00		 call	 QWORD PTR __imp_fwritemsg
  001cf	e9 d4 00 00 00	 jmp	 $LN5@i_cmd
$LN12@i_cmd:

; 2642 : 
; 2643 :         // "%1d:%04X attention request rejected"
; 2644 :         case 2: WRMSG( HHC02232, "E", lcss, devnum ); break;

  001d4	0f b7 44 24 50	 movzx	 eax, WORD PTR devnum$[rsp]
  001d9	89 44 24 70	 mov	 DWORD PTR tv141[rsp], eax
  001dd	0f b7 4c 24 54	 movzx	 ecx, WORD PTR lcss$[rsp]
  001e2	89 4c 24 74	 mov	 DWORD PTR tv143[rsp], ecx
  001e6	b9 01 00 00 00	 mov	 ecx, 1
  001eb	ff 15 00 00 00
	00		 call	 QWORD PTR __imp___acrt_iob_func
  001f1	8b 4c 24 70	 mov	 ecx, DWORD PTR tv141[rsp]
  001f5	89 4c 24 40	 mov	 DWORD PTR [rsp+64], ecx
  001f9	8b 4c 24 74	 mov	 ecx, DWORD PTR tv143[rsp]
  001fd	89 4c 24 38	 mov	 DWORD PTR [rsp+56], ecx
  00201	48 8d 0d 00 00
	00 00		 lea	 rcx, OFFSET FLAT:$SG161388
  00208	48 89 4c 24 30	 mov	 QWORD PTR [rsp+48], rcx
  0020d	48 8d 0d 00 00
	00 00		 lea	 rcx, OFFSET FLAT:$SG161389
  00214	48 89 4c 24 28	 mov	 QWORD PTR [rsp+40], rcx
  00219	48 89 44 24 20	 mov	 QWORD PTR [rsp+32], rax
  0021e	41 b9 03 00 00
	00		 mov	 r9d, 3
  00224	4c 8d 05 00 00
	00 00		 lea	 r8, OFFSET FLAT:$SG161390
  0022b	ba 54 0a 00 00	 mov	 edx, 2644		; 00000a54H
  00230	48 8d 0d 00 00
	00 00		 lea	 rcx, OFFSET FLAT:$SG161391
  00237	ff 15 00 00 00
	00		 call	 QWORD PTR __imp_fwritemsg
  0023d	eb 69		 jmp	 SHORT $LN5@i_cmd
$LN13@i_cmd:

; 2645 : 
; 2646 :         // "%1d:%04X subchannel not enabled"
; 2647 :         case 3: WRMSG( HHC02233, "E", lcss, devnum ); break;

  0023f	0f b7 44 24 50	 movzx	 eax, WORD PTR devnum$[rsp]
  00244	89 44 24 78	 mov	 DWORD PTR tv154[rsp], eax
  00248	0f b7 4c 24 54	 movzx	 ecx, WORD PTR lcss$[rsp]
  0024d	89 4c 24 7c	 mov	 DWORD PTR tv156[rsp], ecx
  00251	b9 01 00 00 00	 mov	 ecx, 1
  00256	ff 15 00 00 00
	00		 call	 QWORD PTR __imp___acrt_iob_func
  0025c	8b 4c 24 78	 mov	 ecx, DWORD PTR tv154[rsp]
  00260	89 4c 24 40	 mov	 DWORD PTR [rsp+64], ecx
  00264	8b 4c 24 7c	 mov	 ecx, DWORD PTR tv156[rsp]
  00268	89 4c 24 38	 mov	 DWORD PTR [rsp+56], ecx
  0026c	48 8d 0d 00 00
	00 00		 lea	 rcx, OFFSET FLAT:$SG161393
  00273	48 89 4c 24 30	 mov	 QWORD PTR [rsp+48], rcx
  00278	48 8d 0d 00 00
	00 00		 lea	 rcx, OFFSET FLAT:$SG161394
  0027f	48 89 4c 24 28	 mov	 QWORD PTR [rsp+40], rcx
  00284	48 89 44 24 20	 mov	 QWORD PTR [rsp+32], rax
  00289	41 b9 03 00 00
	00		 mov	 r9d, 3
  0028f	4c 8d 05 00 00
	00 00		 lea	 r8, OFFSET FLAT:$SG161395
  00296	ba 57 0a 00 00	 mov	 edx, 2647		; 00000a57H
  0029b	48 8d 0d 00 00
	00 00		 lea	 rcx, OFFSET FLAT:$SG161396
  002a2	ff 15 00 00 00
	00		 call	 QWORD PTR __imp_fwritemsg
$LN5@i_cmd:

; 2648 :     }
; 2649 : 
; 2650 :     regs = sysblk.regs[ sysblk.pcpu ];

  002a8	48 8b 05 00 00
	00 00		 mov	 rax, QWORD PTR __imp_sysblk
  002af	48 63 80 54 13
	00 00		 movsxd	 rax, DWORD PTR [rax+4948]
  002b6	48 8b 0d 00 00
	00 00		 mov	 rcx, QWORD PTR __imp_sysblk
  002bd	48 8b 84 c1 98
	0b 00 00	 mov	 rax, QWORD PTR [rcx+rax*8+2968]
  002c5	48 89 84 24 90
	00 00 00	 mov	 QWORD PTR regs$[rsp], rax

; 2651 : 
; 2652 :     if (1
; 2653 :         && rc == 3 /* subchannel is not valid or not enabled */
; 2654 :         && IS_CPU_ONLINE( sysblk.pcpu )
; 2655 :         && CPUSTATE_STOPPED == regs->cpustate

  002cd	33 c0		 xor	 eax, eax
  002cf	83 f8 01	 cmp	 eax, 1
  002d2	0f 84 9a 00 00
	00		 je	 $LN14@i_cmd
  002d8	83 7c 24 58 03	 cmp	 DWORD PTR rc$[rsp], 3
  002dd	0f 85 8f 00 00
	00		 jne	 $LN14@i_cmd
  002e3	48 8b 05 00 00
	00 00		 mov	 rax, QWORD PTR __imp_sysblk
  002ea	48 63 80 54 13
	00 00		 movsxd	 rax, DWORD PTR [rax+4948]
  002f1	48 8b 0d 00 00
	00 00		 mov	 rcx, QWORD PTR __imp_sysblk
  002f8	48 83 bc c1 98
	0b 00 00 00	 cmp	 QWORD PTR [rcx+rax*8+2968], 0
  00301	74 6f		 je	 SHORT $LN14@i_cmd
  00303	48 8b 84 24 90
	00 00 00	 mov	 rax, QWORD PTR regs$[rsp]
  0030b	0f b6 40 60	 movzx	 eax, BYTE PTR [rax+96]
  0030f	83 f8 03	 cmp	 eax, 3
  00312	75 5e		 jne	 SHORT $LN14@i_cmd

; 2656 :     )
; 2657 :     {
; 2658 :         // "Are you sure you didn't mean 'ipl %04X'"
; 2659 :         WRMSG( HHC02234, "W", devnum );

  00314	0f b7 44 24 50	 movzx	 eax, WORD PTR devnum$[rsp]
  00319	89 84 24 80 00
	00 00		 mov	 DWORD PTR tv187[rsp], eax
  00320	b9 01 00 00 00	 mov	 ecx, 1
  00325	ff 15 00 00 00
	00		 call	 QWORD PTR __imp___acrt_iob_func
  0032b	8b 8c 24 80 00
	00 00		 mov	 ecx, DWORD PTR tv187[rsp]
  00332	89 4c 24 38	 mov	 DWORD PTR [rsp+56], ecx
  00336	48 8d 0d 00 00
	00 00		 lea	 rcx, OFFSET FLAT:$SG161398
  0033d	48 89 4c 24 30	 mov	 QWORD PTR [rsp+48], rcx
  00342	48 8d 0d 00 00
	00 00		 lea	 rcx, OFFSET FLAT:$SG161399
  00349	48 89 4c 24 28	 mov	 QWORD PTR [rsp+40], rcx
  0034e	48 89 44 24 20	 mov	 QWORD PTR [rsp+32], rax
  00353	41 b9 03 00 00
	00		 mov	 r9d, 3
  00359	4c 8d 05 00 00
	00 00		 lea	 r8, OFFSET FLAT:$SG161400
  00360	ba 63 0a 00 00	 mov	 edx, 2659		; 00000a63H
  00365	48 8d 0d 00 00
	00 00		 lea	 rcx, OFFSET FLAT:$SG161401
  0036c	ff 15 00 00 00
	00		 call	 QWORD PTR __imp_fwritemsg
$LN14@i_cmd:

; 2660 :     }
; 2661 : 
; 2662 :     return rc;

  00372	8b 44 24 58	 mov	 eax, DWORD PTR rc$[rsp]
$LN1@i_cmd:

; 2663 : }

  00376	48 81 c4 a8 00
	00 00		 add	 rsp, 168		; 000000a8H
  0037d	c3		 ret	 0
i_cmd	ENDP
_TEXT	ENDS
; Function compile flags: /Odtp
; File C:\papa\MyGit\hyperion-zvector\hscemode.c
_TEXT	SEGMENT
equal_sign$ = 80
cr_num$ = 84
c$ = 88
regs$ = 96
cr_value$ = 104
tv88 = 112
tv166 = 120
buf$ = 128
__$ArrayPad$ = 640
argc$ = 672
argv$ = 680
cmdline$ = 688
cr_cmd	PROC

; 2559 : {

$LN12:
  00000	4c 89 44 24 18	 mov	 QWORD PTR [rsp+24], r8
  00005	48 89 54 24 10	 mov	 QWORD PTR [rsp+16], rdx
  0000a	89 4c 24 08	 mov	 DWORD PTR [rsp+8], ecx
  0000e	48 81 ec 98 02
	00 00		 sub	 rsp, 664		; 00000298H
  00015	48 8b 05 00 00
	00 00		 mov	 rax, QWORD PTR __security_cookie
  0001c	48 33 c4	 xor	 rax, rsp
  0001f	48 89 84 24 80
	02 00 00	 mov	 QWORD PTR __$ArrayPad$[rsp], rax
$LN4@cr_cmd:

; 2560 : REGS *regs;
; 2561 : int   cr_num;
; 2562 : BYTE  equal_sign, c;
; 2563 : U64   cr_value;
; 2564 : char buf[512];
; 2565 : 
; 2566 :     UNREFERENCED(cmdline);

  00027	33 c0		 xor	 eax, eax
  00029	85 c0		 test	 eax, eax
  0002b	75 fa		 jne	 SHORT $LN4@cr_cmd

; 2567 : 
; 2568 :     obtain_lock(&sysblk.cpulock[sysblk.pcpu]);

  0002d	48 8b 05 00 00
	00 00		 mov	 rax, QWORD PTR __imp_sysblk
  00034	48 63 80 54 13
	00 00		 movsxd	 rax, DWORD PTR [rax+4948]
  0003b	48 8b 0d 00 00
	00 00		 mov	 rcx, QWORD PTR __imp_sysblk
  00042	48 8d 84 c1 48
	01 00 00	 lea	 rax, QWORD PTR [rcx+rax*8+328]
  0004a	48 8d 15 00 00
	00 00		 lea	 rdx, OFFSET FLAT:$SG161325
  00051	48 8b c8	 mov	 rcx, rax
  00054	ff 15 00 00 00
	00		 call	 QWORD PTR __imp_hthread_obtain_lock

; 2569 : 
; 2570 :     if (!IS_CPU_ONLINE(sysblk.pcpu))

  0005a	48 8b 05 00 00
	00 00		 mov	 rax, QWORD PTR __imp_sysblk
  00061	48 63 80 54 13
	00 00		 movsxd	 rax, DWORD PTR [rax+4948]
  00068	48 8b 0d 00 00
	00 00		 mov	 rcx, QWORD PTR __imp_sysblk
  0006f	48 83 bc c1 98
	0b 00 00 00	 cmp	 QWORD PTR [rcx+rax*8+2968], 0
  00078	0f 85 ca 00 00
	00		 jne	 $LN5@cr_cmd

; 2571 :     {
; 2572 :         release_lock(&sysblk.cpulock[sysblk.pcpu]);

  0007e	48 8b 05 00 00
	00 00		 mov	 rax, QWORD PTR __imp_sysblk
  00085	48 63 80 54 13
	00 00		 movsxd	 rax, DWORD PTR [rax+4948]
  0008c	48 8b 0d 00 00
	00 00		 mov	 rcx, QWORD PTR __imp_sysblk
  00093	48 8d 84 c1 48
	01 00 00	 lea	 rax, QWORD PTR [rcx+rax*8+328]
  0009b	48 8d 15 00 00
	00 00		 lea	 rdx, OFFSET FLAT:$SG161327
  000a2	48 8b c8	 mov	 rcx, rax
  000a5	ff 15 00 00 00
	00		 call	 QWORD PTR __imp_hthread_release_lock

; 2573 :         WRMSG(HHC00816, "W", PTYPSTR(sysblk.pcpu), sysblk.pcpu, "online");

  000ab	48 8b 05 00 00
	00 00		 mov	 rax, QWORD PTR __imp_sysblk
  000b2	48 63 80 54 13
	00 00		 movsxd	 rax, DWORD PTR [rax+4948]
  000b9	48 8b 0d 00 00
	00 00		 mov	 rcx, QWORD PTR __imp_sysblk
  000c0	0f b6 8c 01 48
	0b 00 00	 movzx	 ecx, BYTE PTR [rcx+rax+2888]
  000c8	ff 15 00 00 00
	00		 call	 QWORD PTR __imp_ptyp2short
  000ce	48 89 44 24 70	 mov	 QWORD PTR tv88[rsp], rax
  000d3	b9 01 00 00 00	 mov	 ecx, 1
  000d8	ff 15 00 00 00
	00		 call	 QWORD PTR __imp___acrt_iob_func
  000de	48 8d 0d 00 00
	00 00		 lea	 rcx, OFFSET FLAT:$SG161328
  000e5	48 89 4c 24 48	 mov	 QWORD PTR [rsp+72], rcx
  000ea	48 8b 0d 00 00
	00 00		 mov	 rcx, QWORD PTR __imp_sysblk
  000f1	8b 89 54 13 00
	00		 mov	 ecx, DWORD PTR [rcx+4948]
  000f7	89 4c 24 40	 mov	 DWORD PTR [rsp+64], ecx
  000fb	48 8b 4c 24 70	 mov	 rcx, QWORD PTR tv88[rsp]
  00100	48 89 4c 24 38	 mov	 QWORD PTR [rsp+56], rcx
  00105	48 8d 0d 00 00
	00 00		 lea	 rcx, OFFSET FLAT:$SG161329
  0010c	48 89 4c 24 30	 mov	 QWORD PTR [rsp+48], rcx
  00111	48 8d 0d 00 00
	00 00		 lea	 rcx, OFFSET FLAT:$SG161330
  00118	48 89 4c 24 28	 mov	 QWORD PTR [rsp+40], rcx
  0011d	48 89 44 24 20	 mov	 QWORD PTR [rsp+32], rax
  00122	41 b9 03 00 00
	00		 mov	 r9d, 3
  00128	4c 8d 05 00 00
	00 00		 lea	 r8, OFFSET FLAT:$SG161331
  0012f	ba 0d 0a 00 00	 mov	 edx, 2573		; 00000a0dH
  00134	48 8d 0d 00 00
	00 00		 lea	 rcx, OFFSET FLAT:$SG161332
  0013b	ff 15 00 00 00
	00		 call	 QWORD PTR __imp_fwritemsg

; 2574 :         return 0;

  00141	33 c0		 xor	 eax, eax
  00143	e9 6e 02 00 00	 jmp	 $LN1@cr_cmd
$LN5@cr_cmd:

; 2575 :     }
; 2576 :     regs = sysblk.regs[sysblk.pcpu];

  00148	48 8b 05 00 00
	00 00		 mov	 rax, QWORD PTR __imp_sysblk
  0014f	48 63 80 54 13
	00 00		 movsxd	 rax, DWORD PTR [rax+4948]
  00156	48 8b 0d 00 00
	00 00		 mov	 rcx, QWORD PTR __imp_sysblk
  0015d	48 8b 84 c1 98
	0b 00 00	 mov	 rax, QWORD PTR [rcx+rax*8+2968]
  00165	48 89 44 24 60	 mov	 QWORD PTR regs$[rsp], rax

; 2577 : 
; 2578 :     if (argc > 1)

  0016a	83 bc 24 a0 02
	00 00 01	 cmp	 DWORD PTR argc$[rsp], 1
  00172	0f 8e 55 01 00
	00		 jle	 $LN6@cr_cmd

; 2579 :     {
; 2580 :         if (argc > 2
; 2581 :             || sscanf( argv[1], "%d%c%"SCNx64"%c", &cr_num, &equal_sign, &cr_value, &c ) != 3
; 2582 :             || '=' != equal_sign || cr_num < 0 || cr_num > 15)

  00178	83 bc 24 a0 02
	00 00 02	 cmp	 DWORD PTR argc$[rsp], 2
  00180	7f 60		 jg	 SHORT $LN8@cr_cmd
  00182	b8 08 00 00 00	 mov	 eax, 8
  00187	48 6b c0 01	 imul	 rax, rax, 1
  0018b	48 8d 4c 24 58	 lea	 rcx, QWORD PTR c$[rsp]
  00190	48 89 4c 24 28	 mov	 QWORD PTR [rsp+40], rcx
  00195	48 8d 4c 24 68	 lea	 rcx, QWORD PTR cr_value$[rsp]
  0019a	48 89 4c 24 20	 mov	 QWORD PTR [rsp+32], rcx
  0019f	4c 8d 4c 24 50	 lea	 r9, QWORD PTR equal_sign$[rsp]
  001a4	4c 8d 44 24 54	 lea	 r8, QWORD PTR cr_num$[rsp]
  001a9	48 8d 15 00 00
	00 00		 lea	 rdx, OFFSET FLAT:$SG161336
  001b0	48 8b 8c 24 a8
	02 00 00	 mov	 rcx, QWORD PTR argv$[rsp]
  001b8	48 8b 0c 01	 mov	 rcx, QWORD PTR [rcx+rax]
  001bc	e8 00 00 00 00	 call	 sscanf
  001c1	83 f8 03	 cmp	 eax, 3
  001c4	75 1c		 jne	 SHORT $LN8@cr_cmd
  001c6	0f b6 44 24 50	 movzx	 eax, BYTE PTR equal_sign$[rsp]
  001cb	83 f8 3d	 cmp	 eax, 61			; 0000003dH
  001ce	75 12		 jne	 SHORT $LN8@cr_cmd
  001d0	83 7c 24 54 00	 cmp	 DWORD PTR cr_num$[rsp], 0
  001d5	7c 0b		 jl	 SHORT $LN8@cr_cmd
  001d7	83 7c 24 54 0f	 cmp	 DWORD PTR cr_num$[rsp], 15
  001dc	0f 8e ab 00 00
	00		 jle	 $LN7@cr_cmd
$LN8@cr_cmd:

; 2583 :         {
; 2584 :             release_lock(&sysblk.cpulock[sysblk.pcpu]);

  001e2	48 8b 05 00 00
	00 00		 mov	 rax, QWORD PTR __imp_sysblk
  001e9	48 63 80 54 13
	00 00		 movsxd	 rax, DWORD PTR [rax+4948]
  001f0	48 8b 0d 00 00
	00 00		 mov	 rcx, QWORD PTR __imp_sysblk
  001f7	48 8d 84 c1 48
	01 00 00	 lea	 rax, QWORD PTR [rcx+rax*8+328]
  001ff	48 8d 15 00 00
	00 00		 lea	 rdx, OFFSET FLAT:$SG161337
  00206	48 8b c8	 mov	 rcx, rax
  00209	ff 15 00 00 00
	00		 call	 QWORD PTR __imp_hthread_release_lock

; 2585 :             WRMSG(HHC02205, "E", argv[1], "");

  0020f	b8 08 00 00 00	 mov	 eax, 8
  00214	48 6b c0 01	 imul	 rax, rax, 1
  00218	48 89 44 24 78	 mov	 QWORD PTR tv166[rsp], rax
  0021d	b9 01 00 00 00	 mov	 ecx, 1
  00222	ff 15 00 00 00
	00		 call	 QWORD PTR __imp___acrt_iob_func
  00228	48 8d 0d 00 00
	00 00		 lea	 rcx, OFFSET FLAT:$SG161338
  0022f	48 89 4c 24 40	 mov	 QWORD PTR [rsp+64], rcx
  00234	48 8b 8c 24 a8
	02 00 00	 mov	 rcx, QWORD PTR argv$[rsp]
  0023c	48 8b 54 24 78	 mov	 rdx, QWORD PTR tv166[rsp]
  00241	48 8b 0c 11	 mov	 rcx, QWORD PTR [rcx+rdx]
  00245	48 89 4c 24 38	 mov	 QWORD PTR [rsp+56], rcx
  0024a	48 8d 0d 00 00
	00 00		 lea	 rcx, OFFSET FLAT:$SG161339
  00251	48 89 4c 24 30	 mov	 QWORD PTR [rsp+48], rcx
  00256	48 8d 0d 00 00
	00 00		 lea	 rcx, OFFSET FLAT:$SG161340
  0025d	48 89 4c 24 28	 mov	 QWORD PTR [rsp+40], rcx
  00262	48 89 44 24 20	 mov	 QWORD PTR [rsp+32], rax
  00267	41 b9 03 00 00
	00		 mov	 r9d, 3
  0026d	4c 8d 05 00 00
	00 00		 lea	 r8, OFFSET FLAT:$SG161341
  00274	ba 19 0a 00 00	 mov	 edx, 2585		; 00000a19H
  00279	48 8d 0d 00 00
	00 00		 lea	 rcx, OFFSET FLAT:$SG161342
  00280	ff 15 00 00 00
	00		 call	 QWORD PTR __imp_fwritemsg

; 2586 :             return 0;

  00286	33 c0		 xor	 eax, eax
  00288	e9 29 01 00 00	 jmp	 $LN1@cr_cmd
$LN7@cr_cmd:

; 2587 :         }
; 2588 :         if ( ARCH_900_IDX == regs->arch_mode )

  0028d	48 8b 44 24 60	 mov	 rax, QWORD PTR regs$[rsp]
  00292	83 78 64 02	 cmp	 DWORD PTR [rax+100], 2
  00296	75 1c		 jne	 SHORT $LN9@cr_cmd

; 2589 :             regs->CR_G(cr_num) = (U64)cr_value;

  00298	8b 44 24 54	 mov	 eax, DWORD PTR cr_num$[rsp]
  0029c	ff c0		 inc	 eax
  0029e	48 98		 cdqe
  002a0	48 8b 4c 24 60	 mov	 rcx, QWORD PTR regs$[rsp]
  002a5	48 8b 54 24 68	 mov	 rdx, QWORD PTR cr_value$[rsp]
  002aa	48 89 94 c1 00
	06 00 00	 mov	 QWORD PTR [rcx+rax*8+1536], rdx
  002b2	eb 19		 jmp	 SHORT $LN10@cr_cmd
$LN9@cr_cmd:

; 2590 :         else
; 2591 :             regs->CR_G(cr_num) = (U32)cr_value;

  002b4	8b 44 24 54	 mov	 eax, DWORD PTR cr_num$[rsp]
  002b8	ff c0		 inc	 eax
  002ba	48 98		 cdqe
  002bc	8b 4c 24 68	 mov	 ecx, DWORD PTR cr_value$[rsp]
  002c0	48 8b 54 24 60	 mov	 rdx, QWORD PTR regs$[rsp]
  002c5	48 89 8c c2 00
	06 00 00	 mov	 QWORD PTR [rdx+rax*8+1536], rcx
$LN10@cr_cmd:
$LN6@cr_cmd:

; 2592 :     }
; 2593 : 
; 2594 :     display_cregs( regs, buf, sizeof(buf), "HHC02271I " );

  002cd	4c 8d 0d 00 00
	00 00		 lea	 r9, OFFSET FLAT:$SG161345
  002d4	41 b8 00 02 00
	00		 mov	 r8d, 512		; 00000200H
  002da	48 8d 94 24 80
	00 00 00	 lea	 rdx, QWORD PTR buf$[rsp]
  002e2	48 8b 4c 24 60	 mov	 rcx, QWORD PTR regs$[rsp]
  002e7	e8 00 00 00 00	 call	 display_cregs

; 2595 :     WRMSG(   HHC02271, "I", "Control registers" );

  002ec	b9 01 00 00 00	 mov	 ecx, 1
  002f1	ff 15 00 00 00
	00		 call	 QWORD PTR __imp___acrt_iob_func
  002f7	48 8d 0d 00 00
	00 00		 lea	 rcx, OFFSET FLAT:$SG161346
  002fe	48 89 4c 24 38	 mov	 QWORD PTR [rsp+56], rcx
  00303	48 8d 0d 00 00
	00 00		 lea	 rcx, OFFSET FLAT:$SG161347
  0030a	48 89 4c 24 30	 mov	 QWORD PTR [rsp+48], rcx
  0030f	48 8d 0d 00 00
	00 00		 lea	 rcx, OFFSET FLAT:$SG161348
  00316	48 89 4c 24 28	 mov	 QWORD PTR [rsp+40], rcx
  0031b	48 89 44 24 20	 mov	 QWORD PTR [rsp+32], rax
  00320	41 b9 03 00 00
	00		 mov	 r9d, 3
  00326	4c 8d 05 00 00
	00 00		 lea	 r8, OFFSET FLAT:$SG161349
  0032d	ba 23 0a 00 00	 mov	 edx, 2595		; 00000a23H
  00332	48 8d 0d 00 00
	00 00		 lea	 rcx, OFFSET FLAT:$SG161350
  00339	ff 15 00 00 00
	00		 call	 QWORD PTR __imp_fwritemsg

; 2596 :     LOGMSG( "%s", buf );

  0033f	b9 01 00 00 00	 mov	 ecx, 1
  00344	ff 15 00 00 00
	00		 call	 QWORD PTR __imp___acrt_iob_func
  0034a	48 8d 8c 24 80
	00 00 00	 lea	 rcx, QWORD PTR buf$[rsp]
  00352	48 89 4c 24 30	 mov	 QWORD PTR [rsp+48], rcx
  00357	48 8d 0d 00 00
	00 00		 lea	 rcx, OFFSET FLAT:$SG161351
  0035e	48 89 4c 24 28	 mov	 QWORD PTR [rsp+40], rcx
  00363	48 89 44 24 20	 mov	 QWORD PTR [rsp+32], rax
  00368	41 b9 03 00 00
	00		 mov	 r9d, 3
  0036e	4c 8d 05 00 00
	00 00		 lea	 r8, OFFSET FLAT:$SG161352
  00375	ba 24 0a 00 00	 mov	 edx, 2596		; 00000a24H
  0037a	48 8d 0d 00 00
	00 00		 lea	 rcx, OFFSET FLAT:$SG161353
  00381	ff 15 00 00 00
	00		 call	 QWORD PTR __imp_fwritemsg

; 2597 : 
; 2598 :     release_lock(&sysblk.cpulock[sysblk.pcpu]);

  00387	48 8b 05 00 00
	00 00		 mov	 rax, QWORD PTR __imp_sysblk
  0038e	48 63 80 54 13
	00 00		 movsxd	 rax, DWORD PTR [rax+4948]
  00395	48 8b 0d 00 00
	00 00		 mov	 rcx, QWORD PTR __imp_sysblk
  0039c	48 8d 84 c1 48
	01 00 00	 lea	 rax, QWORD PTR [rcx+rax*8+328]
  003a4	48 8d 15 00 00
	00 00		 lea	 rdx, OFFSET FLAT:$SG161354
  003ab	48 8b c8	 mov	 rcx, rax
  003ae	ff 15 00 00 00
	00		 call	 QWORD PTR __imp_hthread_release_lock

; 2599 : 
; 2600 :     return 0;

  003b4	33 c0		 xor	 eax, eax
$LN1@cr_cmd:

; 2601 : }

  003b6	48 8b 8c 24 80
	02 00 00	 mov	 rcx, QWORD PTR __$ArrayPad$[rsp]
  003be	48 33 cc	 xor	 rcx, rsp
  003c1	e8 00 00 00 00	 call	 __security_check_cookie
  003c6	48 81 c4 98 02
	00 00		 add	 rsp, 664		; 00000298H
  003cd	c3		 ret	 0
cr_cmd	ENDP
_TEXT	ENDS
; Function compile flags: /Odtp
; File C:\papa\MyGit\hyperion-zvector\hscemode.c
_TEXT	SEGMENT
c$1 = 80
reg_value$2 = 88
regs$ = 96
tv88 = 104
tv152 = 112
tv182 = 120
argc$ = 144
argv$ = 152
cmdline$ = 160
fpc_cmd	PROC

; 2503 : {

$LN11:
  00000	4c 89 44 24 18	 mov	 QWORD PTR [rsp+24], r8
  00005	48 89 54 24 10	 mov	 QWORD PTR [rsp+16], rdx
  0000a	89 4c 24 08	 mov	 DWORD PTR [rsp+8], ecx
  0000e	48 81 ec 88 00
	00 00		 sub	 rsp, 136		; 00000088H
$LN4@fpc_cmd:

; 2504 : REGS *regs;
; 2505 : 
; 2506 :     UNREFERENCED(cmdline);

  00015	33 c0		 xor	 eax, eax
  00017	85 c0		 test	 eax, eax
  00019	75 fa		 jne	 SHORT $LN4@fpc_cmd

; 2507 : 
; 2508 :     obtain_lock(&sysblk.cpulock[sysblk.pcpu]);

  0001b	48 8b 05 00 00
	00 00		 mov	 rax, QWORD PTR __imp_sysblk
  00022	48 63 80 54 13
	00 00		 movsxd	 rax, DWORD PTR [rax+4948]
  00029	48 8b 0d 00 00
	00 00		 mov	 rcx, QWORD PTR __imp_sysblk
  00030	48 8d 84 c1 48
	01 00 00	 lea	 rax, QWORD PTR [rcx+rax*8+328]
  00038	48 8d 15 00 00
	00 00		 lea	 rdx, OFFSET FLAT:$SG161275
  0003f	48 8b c8	 mov	 rcx, rax
  00042	ff 15 00 00 00
	00		 call	 QWORD PTR __imp_hthread_obtain_lock

; 2509 : 
; 2510 :     if (!IS_CPU_ONLINE(sysblk.pcpu))

  00048	48 8b 05 00 00
	00 00		 mov	 rax, QWORD PTR __imp_sysblk
  0004f	48 63 80 54 13
	00 00		 movsxd	 rax, DWORD PTR [rax+4948]
  00056	48 8b 0d 00 00
	00 00		 mov	 rcx, QWORD PTR __imp_sysblk
  0005d	48 83 bc c1 98
	0b 00 00 00	 cmp	 QWORD PTR [rcx+rax*8+2968], 0
  00066	0f 85 ca 00 00
	00		 jne	 $LN5@fpc_cmd

; 2511 :     {
; 2512 :         release_lock(&sysblk.cpulock[sysblk.pcpu]);

  0006c	48 8b 05 00 00
	00 00		 mov	 rax, QWORD PTR __imp_sysblk
  00073	48 63 80 54 13
	00 00		 movsxd	 rax, DWORD PTR [rax+4948]
  0007a	48 8b 0d 00 00
	00 00		 mov	 rcx, QWORD PTR __imp_sysblk
  00081	48 8d 84 c1 48
	01 00 00	 lea	 rax, QWORD PTR [rcx+rax*8+328]
  00089	48 8d 15 00 00
	00 00		 lea	 rdx, OFFSET FLAT:$SG161277
  00090	48 8b c8	 mov	 rcx, rax
  00093	ff 15 00 00 00
	00		 call	 QWORD PTR __imp_hthread_release_lock

; 2513 :         // "Processor %s%02X: processor is not %s"
; 2514 :         WRMSG(HHC00816, "W", PTYPSTR(sysblk.pcpu), sysblk.pcpu, "online");

  00099	48 8b 05 00 00
	00 00		 mov	 rax, QWORD PTR __imp_sysblk
  000a0	48 63 80 54 13
	00 00		 movsxd	 rax, DWORD PTR [rax+4948]
  000a7	48 8b 0d 00 00
	00 00		 mov	 rcx, QWORD PTR __imp_sysblk
  000ae	0f b6 8c 01 48
	0b 00 00	 movzx	 ecx, BYTE PTR [rcx+rax+2888]
  000b6	ff 15 00 00 00
	00		 call	 QWORD PTR __imp_ptyp2short
  000bc	48 89 44 24 68	 mov	 QWORD PTR tv88[rsp], rax
  000c1	b9 01 00 00 00	 mov	 ecx, 1
  000c6	ff 15 00 00 00
	00		 call	 QWORD PTR __imp___acrt_iob_func
  000cc	48 8d 0d 00 00
	00 00		 lea	 rcx, OFFSET FLAT:$SG161278
  000d3	48 89 4c 24 48	 mov	 QWORD PTR [rsp+72], rcx
  000d8	48 8b 0d 00 00
	00 00		 mov	 rcx, QWORD PTR __imp_sysblk
  000df	8b 89 54 13 00
	00		 mov	 ecx, DWORD PTR [rcx+4948]
  000e5	89 4c 24 40	 mov	 DWORD PTR [rsp+64], ecx
  000e9	48 8b 4c 24 68	 mov	 rcx, QWORD PTR tv88[rsp]
  000ee	48 89 4c 24 38	 mov	 QWORD PTR [rsp+56], rcx
  000f3	48 8d 0d 00 00
	00 00		 lea	 rcx, OFFSET FLAT:$SG161279
  000fa	48 89 4c 24 30	 mov	 QWORD PTR [rsp+48], rcx
  000ff	48 8d 0d 00 00
	00 00		 lea	 rcx, OFFSET FLAT:$SG161280
  00106	48 89 4c 24 28	 mov	 QWORD PTR [rsp+40], rcx
  0010b	48 89 44 24 20	 mov	 QWORD PTR [rsp+32], rax
  00110	41 b9 03 00 00
	00		 mov	 r9d, 3
  00116	4c 8d 05 00 00
	00 00		 lea	 r8, OFFSET FLAT:$SG161281
  0011d	ba d2 09 00 00	 mov	 edx, 2514		; 000009d2H
  00122	48 8d 0d 00 00
	00 00		 lea	 rcx, OFFSET FLAT:$SG161282
  00129	ff 15 00 00 00
	00		 call	 QWORD PTR __imp_fwritemsg

; 2515 :         return 0;

  0012f	33 c0		 xor	 eax, eax
  00131	e9 7a 02 00 00	 jmp	 $LN1@fpc_cmd
$LN5@fpc_cmd:

; 2516 :     }
; 2517 :     regs = sysblk.regs[sysblk.pcpu];

  00136	48 8b 05 00 00
	00 00		 mov	 rax, QWORD PTR __imp_sysblk
  0013d	48 63 80 54 13
	00 00		 movsxd	 rax, DWORD PTR [rax+4948]
  00144	48 8b 0d 00 00
	00 00		 mov	 rcx, QWORD PTR __imp_sysblk
  0014b	48 8b 84 c1 98
	0b 00 00	 mov	 rax, QWORD PTR [rcx+rax*8+2968]
  00153	48 89 44 24 60	 mov	 QWORD PTR regs$[rsp], rax

; 2518 : 
; 2519 :     if (argc > 1)

  00158	83 bc 24 90 00
	00 00 01	 cmp	 DWORD PTR argc$[rsp], 1
  00160	0f 8e c5 01 00
	00		 jle	 $LN6@fpc_cmd

; 2520 :     {
; 2521 :         BYTE  c;
; 2522 :         U64   reg_value;
; 2523 : 
; 2524 :         if (argc > 2)

  00166	83 bc 24 90 00
	00 00 02	 cmp	 DWORD PTR argc$[rsp], 2
  0016e	0f 8e ab 00 00
	00		 jle	 $LN7@fpc_cmd

; 2525 :         {
; 2526 :             release_lock(&sysblk.cpulock[sysblk.pcpu]);

  00174	48 8b 05 00 00
	00 00		 mov	 rax, QWORD PTR __imp_sysblk
  0017b	48 63 80 54 13
	00 00		 movsxd	 rax, DWORD PTR [rax+4948]
  00182	48 8b 0d 00 00
	00 00		 mov	 rcx, QWORD PTR __imp_sysblk
  00189	48 8d 84 c1 48
	01 00 00	 lea	 rax, QWORD PTR [rcx+rax*8+328]
  00191	48 8d 15 00 00
	00 00		 lea	 rdx, OFFSET FLAT:$SG161285
  00198	48 8b c8	 mov	 rcx, rax
  0019b	ff 15 00 00 00
	00		 call	 QWORD PTR __imp_hthread_release_lock

; 2527 :             // "Invalid argument '%s'%s"
; 2528 :             WRMSG(HHC02205, "E", argv[1], "");

  001a1	b8 08 00 00 00	 mov	 eax, 8
  001a6	48 6b c0 01	 imul	 rax, rax, 1
  001aa	48 89 44 24 70	 mov	 QWORD PTR tv152[rsp], rax
  001af	b9 01 00 00 00	 mov	 ecx, 1
  001b4	ff 15 00 00 00
	00		 call	 QWORD PTR __imp___acrt_iob_func
  001ba	48 8d 0d 00 00
	00 00		 lea	 rcx, OFFSET FLAT:$SG161286
  001c1	48 89 4c 24 40	 mov	 QWORD PTR [rsp+64], rcx
  001c6	48 8b 8c 24 98
	00 00 00	 mov	 rcx, QWORD PTR argv$[rsp]
  001ce	48 8b 54 24 70	 mov	 rdx, QWORD PTR tv152[rsp]
  001d3	48 8b 0c 11	 mov	 rcx, QWORD PTR [rcx+rdx]
  001d7	48 89 4c 24 38	 mov	 QWORD PTR [rsp+56], rcx
  001dc	48 8d 0d 00 00
	00 00		 lea	 rcx, OFFSET FLAT:$SG161287
  001e3	48 89 4c 24 30	 mov	 QWORD PTR [rsp+48], rcx
  001e8	48 8d 0d 00 00
	00 00		 lea	 rcx, OFFSET FLAT:$SG161288
  001ef	48 89 4c 24 28	 mov	 QWORD PTR [rsp+40], rcx
  001f4	48 89 44 24 20	 mov	 QWORD PTR [rsp+32], rax
  001f9	41 b9 03 00 00
	00		 mov	 r9d, 3
  001ff	4c 8d 05 00 00
	00 00		 lea	 r8, OFFSET FLAT:$SG161289
  00206	ba e0 09 00 00	 mov	 edx, 2528		; 000009e0H
  0020b	48 8d 0d 00 00
	00 00		 lea	 rcx, OFFSET FLAT:$SG161290
  00212	ff 15 00 00 00
	00		 call	 QWORD PTR __imp_fwritemsg

; 2529 :             return 0;

  00218	33 c0		 xor	 eax, eax
  0021a	e9 91 01 00 00	 jmp	 $LN1@fpc_cmd
$LN7@fpc_cmd:

; 2530 :         }
; 2531 : 
; 2532 :         if (0
; 2533 :             || sscanf( argv[1], "%"SCNx64"%c", &reg_value, &c ) != 1
; 2534 :             || reg_value > UINT_MAX

  0021f	33 c0		 xor	 eax, eax
  00221	85 c0		 test	 eax, eax
  00223	75 40		 jne	 SHORT $LN9@fpc_cmd
  00225	b8 08 00 00 00	 mov	 eax, 8
  0022a	48 6b c0 01	 imul	 rax, rax, 1
  0022e	4c 8d 4c 24 50	 lea	 r9, QWORD PTR c$1[rsp]
  00233	4c 8d 44 24 58	 lea	 r8, QWORD PTR reg_value$2[rsp]
  00238	48 8d 15 00 00
	00 00		 lea	 rdx, OFFSET FLAT:$SG161293
  0023f	48 8b 8c 24 98
	00 00 00	 mov	 rcx, QWORD PTR argv$[rsp]
  00247	48 8b 0c 01	 mov	 rcx, QWORD PTR [rcx+rax]
  0024b	e8 00 00 00 00	 call	 sscanf
  00250	83 f8 01	 cmp	 eax, 1
  00253	75 10		 jne	 SHORT $LN9@fpc_cmd
  00255	b8 ff ff ff ff	 mov	 eax, -1			; ffffffffH
  0025a	48 39 44 24 58	 cmp	 QWORD PTR reg_value$2[rsp], rax
  0025f	0f 86 ab 00 00
	00		 jbe	 $LN8@fpc_cmd
$LN9@fpc_cmd:

; 2535 :         )
; 2536 :         {
; 2537 :             release_lock(&sysblk.cpulock[sysblk.pcpu]);

  00265	48 8b 05 00 00
	00 00		 mov	 rax, QWORD PTR __imp_sysblk
  0026c	48 63 80 54 13
	00 00		 movsxd	 rax, DWORD PTR [rax+4948]
  00273	48 8b 0d 00 00
	00 00		 mov	 rcx, QWORD PTR __imp_sysblk
  0027a	48 8d 84 c1 48
	01 00 00	 lea	 rax, QWORD PTR [rcx+rax*8+328]
  00282	48 8d 15 00 00
	00 00		 lea	 rdx, OFFSET FLAT:$SG161294
  00289	48 8b c8	 mov	 rcx, rax
  0028c	ff 15 00 00 00
	00		 call	 QWORD PTR __imp_hthread_release_lock

; 2538 :             // "Invalid argument '%s'%s"
; 2539 :             WRMSG(HHC02205, "E", argv[1], "");

  00292	b8 08 00 00 00	 mov	 eax, 8
  00297	48 6b c0 01	 imul	 rax, rax, 1
  0029b	48 89 44 24 78	 mov	 QWORD PTR tv182[rsp], rax
  002a0	b9 01 00 00 00	 mov	 ecx, 1
  002a5	ff 15 00 00 00
	00		 call	 QWORD PTR __imp___acrt_iob_func
  002ab	48 8d 0d 00 00
	00 00		 lea	 rcx, OFFSET FLAT:$SG161295
  002b2	48 89 4c 24 40	 mov	 QWORD PTR [rsp+64], rcx
  002b7	48 8b 8c 24 98
	00 00 00	 mov	 rcx, QWORD PTR argv$[rsp]
  002bf	48 8b 54 24 78	 mov	 rdx, QWORD PTR tv182[rsp]
  002c4	48 8b 0c 11	 mov	 rcx, QWORD PTR [rcx+rdx]
  002c8	48 89 4c 24 38	 mov	 QWORD PTR [rsp+56], rcx
  002cd	48 8d 0d 00 00
	00 00		 lea	 rcx, OFFSET FLAT:$SG161296
  002d4	48 89 4c 24 30	 mov	 QWORD PTR [rsp+48], rcx
  002d9	48 8d 0d 00 00
	00 00		 lea	 rcx, OFFSET FLAT:$SG161297
  002e0	48 89 4c 24 28	 mov	 QWORD PTR [rsp+40], rcx
  002e5	48 89 44 24 20	 mov	 QWORD PTR [rsp+32], rax
  002ea	41 b9 03 00 00
	00		 mov	 r9d, 3
  002f0	4c 8d 05 00 00
	00 00		 lea	 r8, OFFSET FLAT:$SG161298
  002f7	ba eb 09 00 00	 mov	 edx, 2539		; 000009ebH
  002fc	48 8d 0d 00 00
	00 00		 lea	 rcx, OFFSET FLAT:$SG161299
  00303	ff 15 00 00 00
	00		 call	 QWORD PTR __imp_fwritemsg

; 2540 :             return 0;

  00309	33 c0		 xor	 eax, eax
  0030b	e9 a0 00 00 00	 jmp	 $LN1@fpc_cmd
$LN8@fpc_cmd:

; 2541 :         }
; 2542 : 
; 2543 :         regs->fpc = (U32) (reg_value & 0xFFFFFFFFULL);

  00310	b8 ff ff ff ff	 mov	 eax, -1			; ffffffffH
  00315	48 8b 4c 24 58	 mov	 rcx, QWORD PTR reg_value$2[rsp]
  0031a	48 23 c8	 and	 rcx, rax
  0031d	48 8b c1	 mov	 rax, rcx
  00320	48 8b 4c 24 60	 mov	 rcx, QWORD PTR regs$[rsp]
  00325	89 81 c0 03 00
	00		 mov	 DWORD PTR [rcx+960], eax
$LN6@fpc_cmd:

; 2544 :     }
; 2545 : 
; 2546 :     // "Floating point control register: %08"PRIX32
; 2547 :     WRMSG(HHC02276, "I", regs->fpc);

  0032b	b9 01 00 00 00	 mov	 ecx, 1
  00330	ff 15 00 00 00
	00		 call	 QWORD PTR __imp___acrt_iob_func
  00336	48 8b 4c 24 60	 mov	 rcx, QWORD PTR regs$[rsp]
  0033b	8b 89 c0 03 00
	00		 mov	 ecx, DWORD PTR [rcx+960]
  00341	89 4c 24 38	 mov	 DWORD PTR [rsp+56], ecx
  00345	48 8d 0d 00 00
	00 00		 lea	 rcx, OFFSET FLAT:$SG161300
  0034c	48 89 4c 24 30	 mov	 QWORD PTR [rsp+48], rcx
  00351	48 8d 0d 00 00
	00 00		 lea	 rcx, OFFSET FLAT:$SG161301
  00358	48 89 4c 24 28	 mov	 QWORD PTR [rsp+40], rcx
  0035d	48 89 44 24 20	 mov	 QWORD PTR [rsp+32], rax
  00362	41 b9 03 00 00
	00		 mov	 r9d, 3
  00368	4c 8d 05 00 00
	00 00		 lea	 r8, OFFSET FLAT:$SG161302
  0036f	ba f3 09 00 00	 mov	 edx, 2547		; 000009f3H
  00374	48 8d 0d 00 00
	00 00		 lea	 rcx, OFFSET FLAT:$SG161303
  0037b	ff 15 00 00 00
	00		 call	 QWORD PTR __imp_fwritemsg

; 2548 : 
; 2549 :     release_lock(&sysblk.cpulock[sysblk.pcpu]);

  00381	48 8b 05 00 00
	00 00		 mov	 rax, QWORD PTR __imp_sysblk
  00388	48 63 80 54 13
	00 00		 movsxd	 rax, DWORD PTR [rax+4948]
  0038f	48 8b 0d 00 00
	00 00		 mov	 rcx, QWORD PTR __imp_sysblk
  00396	48 8d 84 c1 48
	01 00 00	 lea	 rax, QWORD PTR [rcx+rax*8+328]
  0039e	48 8d 15 00 00
	00 00		 lea	 rdx, OFFSET FLAT:$SG161304
  003a5	48 8b c8	 mov	 rcx, rax
  003a8	ff 15 00 00 00
	00		 call	 QWORD PTR __imp_hthread_release_lock

; 2550 : 
; 2551 :     return 0;

  003ae	33 c0		 xor	 eax, eax
$LN1@fpc_cmd:

; 2552 : }

  003b0	48 81 c4 88 00
	00 00		 add	 rsp, 136		; 00000088H
  003b7	c3		 ret	 0
fpc_cmd	ENDP
_TEXT	ENDS
; Function compile flags: /Odtp
; File C:\papa\MyGit\hyperion-zvector\hscemode.c
_TEXT	SEGMENT
reg_num$1 = 80
equal_sign$2 = 84
afp$3 = 88
c$4 = 92
tv149 = 96
regs$ = 104
reg_value$5 = 112
tv88 = 120
tv159 = 128
tv200 = 136
buf$ = 144
__$ArrayPad$ = 656
argc$ = 688
argv$ = 696
cmdline$ = 704
fpr_cmd	PROC

; 2438 : {

$LN17:
  00000	4c 89 44 24 18	 mov	 QWORD PTR [rsp+24], r8
  00005	48 89 54 24 10	 mov	 QWORD PTR [rsp+16], rdx
  0000a	89 4c 24 08	 mov	 DWORD PTR [rsp+8], ecx
  0000e	48 81 ec a8 02
	00 00		 sub	 rsp, 680		; 000002a8H
  00015	48 8b 05 00 00
	00 00		 mov	 rax, QWORD PTR __security_cookie
  0001c	48 33 c4	 xor	 rax, rsp
  0001f	48 89 84 24 90
	02 00 00	 mov	 QWORD PTR __$ArrayPad$[rsp], rax
$LN4@fpr_cmd:

; 2439 : REGS *regs;
; 2440 : char buf[512];
; 2441 : 
; 2442 :     UNREFERENCED(cmdline);

  00027	33 c0		 xor	 eax, eax
  00029	85 c0		 test	 eax, eax
  0002b	75 fa		 jne	 SHORT $LN4@fpr_cmd

; 2443 : 
; 2444 :     obtain_lock(&sysblk.cpulock[sysblk.pcpu]);

  0002d	48 8b 05 00 00
	00 00		 mov	 rax, QWORD PTR __imp_sysblk
  00034	48 63 80 54 13
	00 00		 movsxd	 rax, DWORD PTR [rax+4948]
  0003b	48 8b 0d 00 00
	00 00		 mov	 rcx, QWORD PTR __imp_sysblk
  00042	48 8d 84 c1 48
	01 00 00	 lea	 rax, QWORD PTR [rcx+rax*8+328]
  0004a	48 8d 15 00 00
	00 00		 lea	 rdx, OFFSET FLAT:$SG161220
  00051	48 8b c8	 mov	 rcx, rax
  00054	ff 15 00 00 00
	00		 call	 QWORD PTR __imp_hthread_obtain_lock

; 2445 : 
; 2446 :     if (!IS_CPU_ONLINE(sysblk.pcpu))

  0005a	48 8b 05 00 00
	00 00		 mov	 rax, QWORD PTR __imp_sysblk
  00061	48 63 80 54 13
	00 00		 movsxd	 rax, DWORD PTR [rax+4948]
  00068	48 8b 0d 00 00
	00 00		 mov	 rcx, QWORD PTR __imp_sysblk
  0006f	48 83 bc c1 98
	0b 00 00 00	 cmp	 QWORD PTR [rcx+rax*8+2968], 0
  00078	0f 85 ca 00 00
	00		 jne	 $LN5@fpr_cmd

; 2447 :     {
; 2448 :         release_lock(&sysblk.cpulock[sysblk.pcpu]);

  0007e	48 8b 05 00 00
	00 00		 mov	 rax, QWORD PTR __imp_sysblk
  00085	48 63 80 54 13
	00 00		 movsxd	 rax, DWORD PTR [rax+4948]
  0008c	48 8b 0d 00 00
	00 00		 mov	 rcx, QWORD PTR __imp_sysblk
  00093	48 8d 84 c1 48
	01 00 00	 lea	 rax, QWORD PTR [rcx+rax*8+328]
  0009b	48 8d 15 00 00
	00 00		 lea	 rdx, OFFSET FLAT:$SG161222
  000a2	48 8b c8	 mov	 rcx, rax
  000a5	ff 15 00 00 00
	00		 call	 QWORD PTR __imp_hthread_release_lock

; 2449 :         // "Processor %s%02X: processor is not %s"
; 2450 :         WRMSG(HHC00816, "W", PTYPSTR(sysblk.pcpu), sysblk.pcpu, "online");

  000ab	48 8b 05 00 00
	00 00		 mov	 rax, QWORD PTR __imp_sysblk
  000b2	48 63 80 54 13
	00 00		 movsxd	 rax, DWORD PTR [rax+4948]
  000b9	48 8b 0d 00 00
	00 00		 mov	 rcx, QWORD PTR __imp_sysblk
  000c0	0f b6 8c 01 48
	0b 00 00	 movzx	 ecx, BYTE PTR [rcx+rax+2888]
  000c8	ff 15 00 00 00
	00		 call	 QWORD PTR __imp_ptyp2short
  000ce	48 89 44 24 78	 mov	 QWORD PTR tv88[rsp], rax
  000d3	b9 01 00 00 00	 mov	 ecx, 1
  000d8	ff 15 00 00 00
	00		 call	 QWORD PTR __imp___acrt_iob_func
  000de	48 8d 0d 00 00
	00 00		 lea	 rcx, OFFSET FLAT:$SG161223
  000e5	48 89 4c 24 48	 mov	 QWORD PTR [rsp+72], rcx
  000ea	48 8b 0d 00 00
	00 00		 mov	 rcx, QWORD PTR __imp_sysblk
  000f1	8b 89 54 13 00
	00		 mov	 ecx, DWORD PTR [rcx+4948]
  000f7	89 4c 24 40	 mov	 DWORD PTR [rsp+64], ecx
  000fb	48 8b 4c 24 78	 mov	 rcx, QWORD PTR tv88[rsp]
  00100	48 89 4c 24 38	 mov	 QWORD PTR [rsp+56], rcx
  00105	48 8d 0d 00 00
	00 00		 lea	 rcx, OFFSET FLAT:$SG161224
  0010c	48 89 4c 24 30	 mov	 QWORD PTR [rsp+48], rcx
  00111	48 8d 0d 00 00
	00 00		 lea	 rcx, OFFSET FLAT:$SG161225
  00118	48 89 4c 24 28	 mov	 QWORD PTR [rsp+40], rcx
  0011d	48 89 44 24 20	 mov	 QWORD PTR [rsp+32], rax
  00122	41 b9 03 00 00
	00		 mov	 r9d, 3
  00128	4c 8d 05 00 00
	00 00		 lea	 r8, OFFSET FLAT:$SG161226
  0012f	ba 92 09 00 00	 mov	 edx, 2450		; 00000992H
  00134	48 8d 0d 00 00
	00 00		 lea	 rcx, OFFSET FLAT:$SG161227
  0013b	ff 15 00 00 00
	00		 call	 QWORD PTR __imp_fwritemsg

; 2451 :         return 0;

  00141	33 c0		 xor	 eax, eax
  00143	e9 a5 03 00 00	 jmp	 $LN1@fpr_cmd
$LN5@fpr_cmd:

; 2452 :     }
; 2453 :     regs = sysblk.regs[sysblk.pcpu];

  00148	48 8b 05 00 00
	00 00		 mov	 rax, QWORD PTR __imp_sysblk
  0014f	48 63 80 54 13
	00 00		 movsxd	 rax, DWORD PTR [rax+4948]
  00156	48 8b 0d 00 00
	00 00		 mov	 rcx, QWORD PTR __imp_sysblk
  0015d	48 8b 84 c1 98
	0b 00 00	 mov	 rax, QWORD PTR [rcx+rax*8+2968]
  00165	48 89 44 24 68	 mov	 QWORD PTR regs$[rsp], rax

; 2454 : 
; 2455 :     if (argc > 1)

  0016a	83 bc 24 b0 02
	00 00 01	 cmp	 DWORD PTR argc$[rsp], 1
  00172	0f 8e 8c 02 00
	00		 jle	 $LN6@fpr_cmd

; 2456 :     {
; 2457 :         U64   reg_value;
; 2458 :         int   reg_num, afp = (regs->CR(0) & CR0_AFP) ? TRUE : FALSE;

  00178	b8 08 00 00 00	 mov	 eax, 8
  0017d	48 6b c0 01	 imul	 rax, rax, 1
  00181	48 8b 4c 24 68	 mov	 rcx, QWORD PTR regs$[rsp]
  00186	48 8b 84 01 00
	06 00 00	 mov	 rax, QWORD PTR [rcx+rax+1536]
  0018e	48 25 00 00 04
	00		 and	 rax, 262144		; 00040000H
  00194	48 85 c0	 test	 rax, rax
  00197	74 0a		 je	 SHORT $LN15@fpr_cmd
  00199	c7 44 24 60 01
	00 00 00	 mov	 DWORD PTR tv149[rsp], 1
  001a1	eb 08		 jmp	 SHORT $LN16@fpr_cmd
$LN15@fpr_cmd:
  001a3	c7 44 24 60 00
	00 00 00	 mov	 DWORD PTR tv149[rsp], 0
$LN16@fpr_cmd:
  001ab	8b 44 24 60	 mov	 eax, DWORD PTR tv149[rsp]
  001af	89 44 24 58	 mov	 DWORD PTR afp$3[rsp], eax

; 2459 :         BYTE  equal_sign, c;
; 2460 : 
; 2461 :         if (argc > 2)

  001b3	83 bc 24 b0 02
	00 00 02	 cmp	 DWORD PTR argc$[rsp], 2
  001bb	0f 8e b1 00 00
	00		 jle	 $LN7@fpr_cmd

; 2462 :         {
; 2463 :             release_lock(&sysblk.cpulock[sysblk.pcpu]);

  001c1	48 8b 05 00 00
	00 00		 mov	 rax, QWORD PTR __imp_sysblk
  001c8	48 63 80 54 13
	00 00		 movsxd	 rax, DWORD PTR [rax+4948]
  001cf	48 8b 0d 00 00
	00 00		 mov	 rcx, QWORD PTR __imp_sysblk
  001d6	48 8d 84 c1 48
	01 00 00	 lea	 rax, QWORD PTR [rcx+rax*8+328]
  001de	48 8d 15 00 00
	00 00		 lea	 rdx, OFFSET FLAT:$SG161230
  001e5	48 8b c8	 mov	 rcx, rax
  001e8	ff 15 00 00 00
	00		 call	 QWORD PTR __imp_hthread_release_lock

; 2464 :             // "Invalid argument '%s'%s"
; 2465 :             WRMSG(HHC02205, "E", argv[1], "");

  001ee	b8 08 00 00 00	 mov	 eax, 8
  001f3	48 6b c0 01	 imul	 rax, rax, 1
  001f7	48 89 84 24 80
	00 00 00	 mov	 QWORD PTR tv159[rsp], rax
  001ff	b9 01 00 00 00	 mov	 ecx, 1
  00204	ff 15 00 00 00
	00		 call	 QWORD PTR __imp___acrt_iob_func
  0020a	48 8d 0d 00 00
	00 00		 lea	 rcx, OFFSET FLAT:$SG161231
  00211	48 89 4c 24 40	 mov	 QWORD PTR [rsp+64], rcx
  00216	48 8b 8c 24 b8
	02 00 00	 mov	 rcx, QWORD PTR argv$[rsp]
  0021e	48 8b 94 24 80
	00 00 00	 mov	 rdx, QWORD PTR tv159[rsp]
  00226	48 8b 0c 11	 mov	 rcx, QWORD PTR [rcx+rdx]
  0022a	48 89 4c 24 38	 mov	 QWORD PTR [rsp+56], rcx
  0022f	48 8d 0d 00 00
	00 00		 lea	 rcx, OFFSET FLAT:$SG161232
  00236	48 89 4c 24 30	 mov	 QWORD PTR [rsp+48], rcx
  0023b	48 8d 0d 00 00
	00 00		 lea	 rcx, OFFSET FLAT:$SG161233
  00242	48 89 4c 24 28	 mov	 QWORD PTR [rsp+40], rcx
  00247	48 89 44 24 20	 mov	 QWORD PTR [rsp+32], rax
  0024c	41 b9 03 00 00
	00		 mov	 r9d, 3
  00252	4c 8d 05 00 00
	00 00		 lea	 r8, OFFSET FLAT:$SG161234
  00259	ba a1 09 00 00	 mov	 edx, 2465		; 000009a1H
  0025e	48 8d 0d 00 00
	00 00		 lea	 rcx, OFFSET FLAT:$SG161235
  00265	ff 15 00 00 00
	00		 call	 QWORD PTR __imp_fwritemsg

; 2466 :             return 0;

  0026b	33 c0		 xor	 eax, eax
  0026d	e9 7b 02 00 00	 jmp	 $LN1@fpr_cmd
$LN7@fpr_cmd:

; 2467 :         }
; 2468 : 
; 2469 :         if (0
; 2470 :             || sscanf( argv[1], "%d%c%"SCNx64"%c", &reg_num, &equal_sign, &reg_value, &c ) != 3
; 2471 :             || reg_num < 0
; 2472 :             || (afp && reg_num > 15)
; 2473 :             || (!afp && reg_num > 6)
; 2474 :             || (!afp && (reg_num & 1))  /* (must be even numbered: 0,2,4,6) */
; 2475 :             || '=' != equal_sign

  00272	33 c0		 xor	 eax, eax
  00274	85 c0		 test	 eax, eax
  00276	0f 85 87 00 00
	00		 jne	 $LN9@fpr_cmd
  0027c	b8 08 00 00 00	 mov	 eax, 8
  00281	48 6b c0 01	 imul	 rax, rax, 1
  00285	48 8d 4c 24 5c	 lea	 rcx, QWORD PTR c$4[rsp]
  0028a	48 89 4c 24 28	 mov	 QWORD PTR [rsp+40], rcx
  0028f	48 8d 4c 24 70	 lea	 rcx, QWORD PTR reg_value$5[rsp]
  00294	48 89 4c 24 20	 mov	 QWORD PTR [rsp+32], rcx
  00299	4c 8d 4c 24 54	 lea	 r9, QWORD PTR equal_sign$2[rsp]
  0029e	4c 8d 44 24 50	 lea	 r8, QWORD PTR reg_num$1[rsp]
  002a3	48 8d 15 00 00
	00 00		 lea	 rdx, OFFSET FLAT:$SG161238
  002aa	48 8b 8c 24 b8
	02 00 00	 mov	 rcx, QWORD PTR argv$[rsp]
  002b2	48 8b 0c 01	 mov	 rcx, QWORD PTR [rcx+rax]
  002b6	e8 00 00 00 00	 call	 sscanf
  002bb	83 f8 03	 cmp	 eax, 3
  002be	75 43		 jne	 SHORT $LN9@fpr_cmd
  002c0	83 7c 24 50 00	 cmp	 DWORD PTR reg_num$1[rsp], 0
  002c5	7c 3c		 jl	 SHORT $LN9@fpr_cmd
  002c7	83 7c 24 58 00	 cmp	 DWORD PTR afp$3[rsp], 0
  002cc	74 07		 je	 SHORT $LN10@fpr_cmd
  002ce	83 7c 24 50 0f	 cmp	 DWORD PTR reg_num$1[rsp], 15
  002d3	7f 2e		 jg	 SHORT $LN9@fpr_cmd
$LN10@fpr_cmd:
  002d5	83 7c 24 58 00	 cmp	 DWORD PTR afp$3[rsp], 0
  002da	75 07		 jne	 SHORT $LN11@fpr_cmd
  002dc	83 7c 24 50 06	 cmp	 DWORD PTR reg_num$1[rsp], 6
  002e1	7f 20		 jg	 SHORT $LN9@fpr_cmd
$LN11@fpr_cmd:
  002e3	83 7c 24 58 00	 cmp	 DWORD PTR afp$3[rsp], 0
  002e8	75 0b		 jne	 SHORT $LN12@fpr_cmd
  002ea	8b 44 24 50	 mov	 eax, DWORD PTR reg_num$1[rsp]
  002ee	83 e0 01	 and	 eax, 1
  002f1	85 c0		 test	 eax, eax
  002f3	75 0e		 jne	 SHORT $LN9@fpr_cmd
$LN12@fpr_cmd:
  002f5	0f b6 44 24 54	 movzx	 eax, BYTE PTR equal_sign$2[rsp]
  002fa	83 f8 3d	 cmp	 eax, 61			; 0000003dH
  002fd	0f 84 b1 00 00
	00		 je	 $LN8@fpr_cmd
$LN9@fpr_cmd:

; 2476 :         )
; 2477 :         {
; 2478 :             release_lock(&sysblk.cpulock[sysblk.pcpu]);

  00303	48 8b 05 00 00
	00 00		 mov	 rax, QWORD PTR __imp_sysblk
  0030a	48 63 80 54 13
	00 00		 movsxd	 rax, DWORD PTR [rax+4948]
  00311	48 8b 0d 00 00
	00 00		 mov	 rcx, QWORD PTR __imp_sysblk
  00318	48 8d 84 c1 48
	01 00 00	 lea	 rax, QWORD PTR [rcx+rax*8+328]
  00320	48 8d 15 00 00
	00 00		 lea	 rdx, OFFSET FLAT:$SG161242
  00327	48 8b c8	 mov	 rcx, rax
  0032a	ff 15 00 00 00
	00		 call	 QWORD PTR __imp_hthread_release_lock

; 2479 :             // "Invalid argument '%s'%s"
; 2480 :             WRMSG(HHC02205, "E", argv[1], "");

  00330	b8 08 00 00 00	 mov	 eax, 8
  00335	48 6b c0 01	 imul	 rax, rax, 1
  00339	48 89 84 24 88
	00 00 00	 mov	 QWORD PTR tv200[rsp], rax
  00341	b9 01 00 00 00	 mov	 ecx, 1
  00346	ff 15 00 00 00
	00		 call	 QWORD PTR __imp___acrt_iob_func
  0034c	48 8d 0d 00 00
	00 00		 lea	 rcx, OFFSET FLAT:$SG161243
  00353	48 89 4c 24 40	 mov	 QWORD PTR [rsp+64], rcx
  00358	48 8b 8c 24 b8
	02 00 00	 mov	 rcx, QWORD PTR argv$[rsp]
  00360	48 8b 94 24 88
	00 00 00	 mov	 rdx, QWORD PTR tv200[rsp]
  00368	48 8b 0c 11	 mov	 rcx, QWORD PTR [rcx+rdx]
  0036c	48 89 4c 24 38	 mov	 QWORD PTR [rsp+56], rcx
  00371	48 8d 0d 00 00
	00 00		 lea	 rcx, OFFSET FLAT:$SG161244
  00378	48 89 4c 24 30	 mov	 QWORD PTR [rsp+48], rcx
  0037d	48 8d 0d 00 00
	00 00		 lea	 rcx, OFFSET FLAT:$SG161245
  00384	48 89 4c 24 28	 mov	 QWORD PTR [rsp+40], rcx
  00389	48 89 44 24 20	 mov	 QWORD PTR [rsp+32], rax
  0038e	41 b9 03 00 00
	00		 mov	 r9d, 3
  00394	4c 8d 05 00 00
	00 00		 lea	 r8, OFFSET FLAT:$SG161246
  0039b	ba b0 09 00 00	 mov	 edx, 2480		; 000009b0H
  003a0	48 8d 0d 00 00
	00 00		 lea	 rcx, OFFSET FLAT:$SG161247
  003a7	ff 15 00 00 00
	00		 call	 QWORD PTR __imp_fwritemsg

; 2481 :             return 0;

  003ad	33 c0		 xor	 eax, eax
  003af	e9 39 01 00 00	 jmp	 $LN1@fpr_cmd
$LN8@fpr_cmd:

; 2482 :         }
; 2483 : 
; 2484 :         if (afp) reg_num <<= 1; /* (double) */

  003b4	83 7c 24 58 00	 cmp	 DWORD PTR afp$3[rsp], 0
  003b9	74 0a		 je	 SHORT $LN13@fpr_cmd
  003bb	8b 44 24 50	 mov	 eax, DWORD PTR reg_num$1[rsp]
  003bf	d1 e0		 shl	 eax, 1
  003c1	89 44 24 50	 mov	 DWORD PTR reg_num$1[rsp], eax
$LN13@fpr_cmd:

; 2485 :         regs->fpr[reg_num]   = (U32) (reg_value >> 32);

  003c5	48 8b 44 24 70	 mov	 rax, QWORD PTR reg_value$5[rsp]
  003ca	48 c1 e8 20	 shr	 rax, 32			; 00000020H
  003ce	48 63 4c 24 50	 movsxd	 rcx, DWORD PTR reg_num$1[rsp]
  003d3	48 8b 54 24 68	 mov	 rdx, QWORD PTR regs$[rsp]
  003d8	89 84 8a 40 03
	00 00		 mov	 DWORD PTR [rdx+rcx*4+832], eax

; 2486 :         regs->fpr[reg_num+1] = (U32) (reg_value & 0xFFFFFFFFULL);

  003df	b8 ff ff ff ff	 mov	 eax, -1			; ffffffffH
  003e4	48 8b 4c 24 70	 mov	 rcx, QWORD PTR reg_value$5[rsp]
  003e9	48 23 c8	 and	 rcx, rax
  003ec	48 8b c1	 mov	 rax, rcx
  003ef	8b 4c 24 50	 mov	 ecx, DWORD PTR reg_num$1[rsp]
  003f3	ff c1		 inc	 ecx
  003f5	48 63 c9	 movsxd	 rcx, ecx
  003f8	48 8b 54 24 68	 mov	 rdx, QWORD PTR regs$[rsp]
  003fd	89 84 8a 40 03
	00 00		 mov	 DWORD PTR [rdx+rcx*4+832], eax
$LN6@fpr_cmd:

; 2487 :     }
; 2488 : 
; 2489 :     display_fregs( regs, buf, sizeof(buf), "HHC02270I " );

  00404	4c 8d 0d 00 00
	00 00		 lea	 r9, OFFSET FLAT:$SG161249
  0040b	41 b8 00 02 00
	00		 mov	 r8d, 512		; 00000200H
  00411	48 8d 94 24 90
	00 00 00	 lea	 rdx, QWORD PTR buf$[rsp]
  00419	48 8b 4c 24 68	 mov	 rcx, QWORD PTR regs$[rsp]
  0041e	e8 00 00 00 00	 call	 display_fregs

; 2490 :     WRMSG(   HHC02270, "I", "Floating point registers" );

  00423	b9 01 00 00 00	 mov	 ecx, 1
  00428	ff 15 00 00 00
	00		 call	 QWORD PTR __imp___acrt_iob_func
  0042e	48 8d 0d 00 00
	00 00		 lea	 rcx, OFFSET FLAT:$SG161250
  00435	48 89 4c 24 38	 mov	 QWORD PTR [rsp+56], rcx
  0043a	48 8d 0d 00 00
	00 00		 lea	 rcx, OFFSET FLAT:$SG161251
  00441	48 89 4c 24 30	 mov	 QWORD PTR [rsp+48], rcx
  00446	48 8d 0d 00 00
	00 00		 lea	 rcx, OFFSET FLAT:$SG161252
  0044d	48 89 4c 24 28	 mov	 QWORD PTR [rsp+40], rcx
  00452	48 89 44 24 20	 mov	 QWORD PTR [rsp+32], rax
  00457	41 b9 03 00 00
	00		 mov	 r9d, 3
  0045d	4c 8d 05 00 00
	00 00		 lea	 r8, OFFSET FLAT:$SG161253
  00464	ba ba 09 00 00	 mov	 edx, 2490		; 000009baH
  00469	48 8d 0d 00 00
	00 00		 lea	 rcx, OFFSET FLAT:$SG161254
  00470	ff 15 00 00 00
	00		 call	 QWORD PTR __imp_fwritemsg

; 2491 :     LOGMSG( "%s", buf );

  00476	b9 01 00 00 00	 mov	 ecx, 1
  0047b	ff 15 00 00 00
	00		 call	 QWORD PTR __imp___acrt_iob_func
  00481	48 8d 8c 24 90
	00 00 00	 lea	 rcx, QWORD PTR buf$[rsp]
  00489	48 89 4c 24 30	 mov	 QWORD PTR [rsp+48], rcx
  0048e	48 8d 0d 00 00
	00 00		 lea	 rcx, OFFSET FLAT:$SG161255
  00495	48 89 4c 24 28	 mov	 QWORD PTR [rsp+40], rcx
  0049a	48 89 44 24 20	 mov	 QWORD PTR [rsp+32], rax
  0049f	41 b9 03 00 00
	00		 mov	 r9d, 3
  004a5	4c 8d 05 00 00
	00 00		 lea	 r8, OFFSET FLAT:$SG161256
  004ac	ba bb 09 00 00	 mov	 edx, 2491		; 000009bbH
  004b1	48 8d 0d 00 00
	00 00		 lea	 rcx, OFFSET FLAT:$SG161257
  004b8	ff 15 00 00 00
	00		 call	 QWORD PTR __imp_fwritemsg

; 2492 : 
; 2493 :     release_lock(&sysblk.cpulock[sysblk.pcpu]);

  004be	48 8b 05 00 00
	00 00		 mov	 rax, QWORD PTR __imp_sysblk
  004c5	48 63 80 54 13
	00 00		 movsxd	 rax, DWORD PTR [rax+4948]
  004cc	48 8b 0d 00 00
	00 00		 mov	 rcx, QWORD PTR __imp_sysblk
  004d3	48 8d 84 c1 48
	01 00 00	 lea	 rax, QWORD PTR [rcx+rax*8+328]
  004db	48 8d 15 00 00
	00 00		 lea	 rdx, OFFSET FLAT:$SG161258
  004e2	48 8b c8	 mov	 rcx, rax
  004e5	ff 15 00 00 00
	00		 call	 QWORD PTR __imp_hthread_release_lock

; 2494 : 
; 2495 :     return 0;

  004eb	33 c0		 xor	 eax, eax
$LN1@fpr_cmd:

; 2496 : }

  004ed	48 8b 8c 24 90
	02 00 00	 mov	 rcx, QWORD PTR __$ArrayPad$[rsp]
  004f5	48 33 cc	 xor	 rcx, rsp
  004f8	e8 00 00 00 00	 call	 __security_check_cookie
  004fd	48 81 c4 a8 02
	00 00		 add	 rsp, 680		; 000002a8H
  00504	c3		 ret	 0
fpr_cmd	ENDP
_TEXT	ENDS
; Function compile flags: /Odtp
; File C:\papa\MyGit\hyperion-zvector\hscemode.c
_TEXT	SEGMENT
equal_sign$1 = 80
reg_num$2 = 84
c$3 = 88
regs$ = 96
reg_value$4 = 104
tv88 = 112
tv152 = 120
tv187 = 128
buf$ = 144
__$ArrayPad$ = 656
argc$ = 688
argv$ = 696
cmdline$ = 704
gpr_cmd	PROC

; 2376 : {

$LN13:
  00000	4c 89 44 24 18	 mov	 QWORD PTR [rsp+24], r8
  00005	48 89 54 24 10	 mov	 QWORD PTR [rsp+16], rdx
  0000a	89 4c 24 08	 mov	 DWORD PTR [rsp+8], ecx
  0000e	48 81 ec a8 02
	00 00		 sub	 rsp, 680		; 000002a8H
  00015	48 8b 05 00 00
	00 00		 mov	 rax, QWORD PTR __security_cookie
  0001c	48 33 c4	 xor	 rax, rsp
  0001f	48 89 84 24 90
	02 00 00	 mov	 QWORD PTR __$ArrayPad$[rsp], rax
$LN4@gpr_cmd:

; 2377 : REGS *regs;
; 2378 : char buf[512];
; 2379 : 
; 2380 :     UNREFERENCED(cmdline);

  00027	33 c0		 xor	 eax, eax
  00029	85 c0		 test	 eax, eax
  0002b	75 fa		 jne	 SHORT $LN4@gpr_cmd

; 2381 : 
; 2382 :     obtain_lock(&sysblk.cpulock[sysblk.pcpu]);

  0002d	48 8b 05 00 00
	00 00		 mov	 rax, QWORD PTR __imp_sysblk
  00034	48 63 80 54 13
	00 00		 movsxd	 rax, DWORD PTR [rax+4948]
  0003b	48 8b 0d 00 00
	00 00		 mov	 rcx, QWORD PTR __imp_sysblk
  00042	48 8d 84 c1 48
	01 00 00	 lea	 rax, QWORD PTR [rcx+rax*8+328]
  0004a	48 8d 15 00 00
	00 00		 lea	 rdx, OFFSET FLAT:$SG161162
  00051	48 8b c8	 mov	 rcx, rax
  00054	ff 15 00 00 00
	00		 call	 QWORD PTR __imp_hthread_obtain_lock

; 2383 : 
; 2384 :     if (!IS_CPU_ONLINE(sysblk.pcpu))

  0005a	48 8b 05 00 00
	00 00		 mov	 rax, QWORD PTR __imp_sysblk
  00061	48 63 80 54 13
	00 00		 movsxd	 rax, DWORD PTR [rax+4948]
  00068	48 8b 0d 00 00
	00 00		 mov	 rcx, QWORD PTR __imp_sysblk
  0006f	48 83 bc c1 98
	0b 00 00 00	 cmp	 QWORD PTR [rcx+rax*8+2968], 0
  00078	0f 85 ca 00 00
	00		 jne	 $LN5@gpr_cmd

; 2385 :     {
; 2386 :         release_lock(&sysblk.cpulock[sysblk.pcpu]);

  0007e	48 8b 05 00 00
	00 00		 mov	 rax, QWORD PTR __imp_sysblk
  00085	48 63 80 54 13
	00 00		 movsxd	 rax, DWORD PTR [rax+4948]
  0008c	48 8b 0d 00 00
	00 00		 mov	 rcx, QWORD PTR __imp_sysblk
  00093	48 8d 84 c1 48
	01 00 00	 lea	 rax, QWORD PTR [rcx+rax*8+328]
  0009b	48 8d 15 00 00
	00 00		 lea	 rdx, OFFSET FLAT:$SG161164
  000a2	48 8b c8	 mov	 rcx, rax
  000a5	ff 15 00 00 00
	00		 call	 QWORD PTR __imp_hthread_release_lock

; 2387 :         WRMSG(HHC00816, "W", PTYPSTR(sysblk.pcpu), sysblk.pcpu, "online");

  000ab	48 8b 05 00 00
	00 00		 mov	 rax, QWORD PTR __imp_sysblk
  000b2	48 63 80 54 13
	00 00		 movsxd	 rax, DWORD PTR [rax+4948]
  000b9	48 8b 0d 00 00
	00 00		 mov	 rcx, QWORD PTR __imp_sysblk
  000c0	0f b6 8c 01 48
	0b 00 00	 movzx	 ecx, BYTE PTR [rcx+rax+2888]
  000c8	ff 15 00 00 00
	00		 call	 QWORD PTR __imp_ptyp2short
  000ce	48 89 44 24 70	 mov	 QWORD PTR tv88[rsp], rax
  000d3	b9 01 00 00 00	 mov	 ecx, 1
  000d8	ff 15 00 00 00
	00		 call	 QWORD PTR __imp___acrt_iob_func
  000de	48 8d 0d 00 00
	00 00		 lea	 rcx, OFFSET FLAT:$SG161165
  000e5	48 89 4c 24 48	 mov	 QWORD PTR [rsp+72], rcx
  000ea	48 8b 0d 00 00
	00 00		 mov	 rcx, QWORD PTR __imp_sysblk
  000f1	8b 89 54 13 00
	00		 mov	 ecx, DWORD PTR [rcx+4948]
  000f7	89 4c 24 40	 mov	 DWORD PTR [rsp+64], ecx
  000fb	48 8b 4c 24 70	 mov	 rcx, QWORD PTR tv88[rsp]
  00100	48 89 4c 24 38	 mov	 QWORD PTR [rsp+56], rcx
  00105	48 8d 0d 00 00
	00 00		 lea	 rcx, OFFSET FLAT:$SG161166
  0010c	48 89 4c 24 30	 mov	 QWORD PTR [rsp+48], rcx
  00111	48 8d 0d 00 00
	00 00		 lea	 rcx, OFFSET FLAT:$SG161167
  00118	48 89 4c 24 28	 mov	 QWORD PTR [rsp+40], rcx
  0011d	48 89 44 24 20	 mov	 QWORD PTR [rsp+32], rax
  00122	41 b9 03 00 00
	00		 mov	 r9d, 3
  00128	4c 8d 05 00 00
	00 00		 lea	 r8, OFFSET FLAT:$SG161168
  0012f	ba 53 09 00 00	 mov	 edx, 2387		; 00000953H
  00134	48 8d 0d 00 00
	00 00		 lea	 rcx, OFFSET FLAT:$SG161169
  0013b	ff 15 00 00 00
	00		 call	 QWORD PTR __imp_fwritemsg

; 2388 :         return 0;

  00141	33 c0		 xor	 eax, eax
  00143	e9 22 03 00 00	 jmp	 $LN1@gpr_cmd
$LN5@gpr_cmd:

; 2389 :     }
; 2390 : 
; 2391 :     regs = sysblk.regs[sysblk.pcpu];

  00148	48 8b 05 00 00
	00 00		 mov	 rax, QWORD PTR __imp_sysblk
  0014f	48 63 80 54 13
	00 00		 movsxd	 rax, DWORD PTR [rax+4948]
  00156	48 8b 0d 00 00
	00 00		 mov	 rcx, QWORD PTR __imp_sysblk
  0015d	48 8b 84 c1 98
	0b 00 00	 mov	 rax, QWORD PTR [rcx+rax*8+2968]
  00165	48 89 44 24 60	 mov	 QWORD PTR regs$[rsp], rax

; 2392 : 
; 2393 :     if (argc > 1)

  0016a	83 bc 24 b0 02
	00 00 01	 cmp	 DWORD PTR argc$[rsp], 1
  00172	0f 8e 09 02 00
	00		 jle	 $LN6@gpr_cmd

; 2394 :     {
; 2395 :         int   reg_num;
; 2396 :         BYTE  equal_sign, c;
; 2397 :         U64   reg_value;
; 2398 : 
; 2399 :         if (argc > 2)

  00178	83 bc 24 b0 02
	00 00 02	 cmp	 DWORD PTR argc$[rsp], 2
  00180	0f 8e ab 00 00
	00		 jle	 $LN7@gpr_cmd

; 2400 :         {
; 2401 :             release_lock(&sysblk.cpulock[sysblk.pcpu]);

  00186	48 8b 05 00 00
	00 00		 mov	 rax, QWORD PTR __imp_sysblk
  0018d	48 63 80 54 13
	00 00		 movsxd	 rax, DWORD PTR [rax+4948]
  00194	48 8b 0d 00 00
	00 00		 mov	 rcx, QWORD PTR __imp_sysblk
  0019b	48 8d 84 c1 48
	01 00 00	 lea	 rax, QWORD PTR [rcx+rax*8+328]
  001a3	48 8d 15 00 00
	00 00		 lea	 rdx, OFFSET FLAT:$SG161172
  001aa	48 8b c8	 mov	 rcx, rax
  001ad	ff 15 00 00 00
	00		 call	 QWORD PTR __imp_hthread_release_lock

; 2402 :             WRMSG(HHC02205, "E", argv[1], "");

  001b3	b8 08 00 00 00	 mov	 eax, 8
  001b8	48 6b c0 01	 imul	 rax, rax, 1
  001bc	48 89 44 24 78	 mov	 QWORD PTR tv152[rsp], rax
  001c1	b9 01 00 00 00	 mov	 ecx, 1
  001c6	ff 15 00 00 00
	00		 call	 QWORD PTR __imp___acrt_iob_func
  001cc	48 8d 0d 00 00
	00 00		 lea	 rcx, OFFSET FLAT:$SG161173
  001d3	48 89 4c 24 40	 mov	 QWORD PTR [rsp+64], rcx
  001d8	48 8b 8c 24 b8
	02 00 00	 mov	 rcx, QWORD PTR argv$[rsp]
  001e0	48 8b 54 24 78	 mov	 rdx, QWORD PTR tv152[rsp]
  001e5	48 8b 0c 11	 mov	 rcx, QWORD PTR [rcx+rdx]
  001e9	48 89 4c 24 38	 mov	 QWORD PTR [rsp+56], rcx
  001ee	48 8d 0d 00 00
	00 00		 lea	 rcx, OFFSET FLAT:$SG161174
  001f5	48 89 4c 24 30	 mov	 QWORD PTR [rsp+48], rcx
  001fa	48 8d 0d 00 00
	00 00		 lea	 rcx, OFFSET FLAT:$SG161175
  00201	48 89 4c 24 28	 mov	 QWORD PTR [rsp+40], rcx
  00206	48 89 44 24 20	 mov	 QWORD PTR [rsp+32], rax
  0020b	41 b9 03 00 00
	00		 mov	 r9d, 3
  00211	4c 8d 05 00 00
	00 00		 lea	 r8, OFFSET FLAT:$SG161176
  00218	ba 62 09 00 00	 mov	 edx, 2402		; 00000962H
  0021d	48 8d 0d 00 00
	00 00		 lea	 rcx, OFFSET FLAT:$SG161177
  00224	ff 15 00 00 00
	00		 call	 QWORD PTR __imp_fwritemsg

; 2403 :             return 0;

  0022a	33 c0		 xor	 eax, eax
  0022c	e9 39 02 00 00	 jmp	 $LN1@gpr_cmd
$LN7@gpr_cmd:

; 2404 :         }
; 2405 : 
; 2406 :         if (0
; 2407 :             || sscanf( argv[1], "%d%c%"SCNx64"%c", &reg_num, &equal_sign, &reg_value, &c ) != 3
; 2408 :             || 0  > reg_num
; 2409 :             || 15 < reg_num
; 2410 :             || '=' != equal_sign

  00231	33 c0		 xor	 eax, eax
  00233	85 c0		 test	 eax, eax
  00235	75 60		 jne	 SHORT $LN9@gpr_cmd
  00237	b8 08 00 00 00	 mov	 eax, 8
  0023c	48 6b c0 01	 imul	 rax, rax, 1
  00240	48 8d 4c 24 58	 lea	 rcx, QWORD PTR c$3[rsp]
  00245	48 89 4c 24 28	 mov	 QWORD PTR [rsp+40], rcx
  0024a	48 8d 4c 24 68	 lea	 rcx, QWORD PTR reg_value$4[rsp]
  0024f	48 89 4c 24 20	 mov	 QWORD PTR [rsp+32], rcx
  00254	4c 8d 4c 24 50	 lea	 r9, QWORD PTR equal_sign$1[rsp]
  00259	4c 8d 44 24 54	 lea	 r8, QWORD PTR reg_num$2[rsp]
  0025e	48 8d 15 00 00
	00 00		 lea	 rdx, OFFSET FLAT:$SG161180
  00265	48 8b 8c 24 b8
	02 00 00	 mov	 rcx, QWORD PTR argv$[rsp]
  0026d	48 8b 0c 01	 mov	 rcx, QWORD PTR [rcx+rax]
  00271	e8 00 00 00 00	 call	 sscanf
  00276	83 f8 03	 cmp	 eax, 3
  00279	75 1c		 jne	 SHORT $LN9@gpr_cmd
  0027b	83 7c 24 54 00	 cmp	 DWORD PTR reg_num$2[rsp], 0
  00280	7c 15		 jl	 SHORT $LN9@gpr_cmd
  00282	83 7c 24 54 0f	 cmp	 DWORD PTR reg_num$2[rsp], 15
  00287	7f 0e		 jg	 SHORT $LN9@gpr_cmd
  00289	0f b6 44 24 50	 movzx	 eax, BYTE PTR equal_sign$1[rsp]
  0028e	83 f8 3d	 cmp	 eax, 61			; 0000003dH
  00291	0f 84 b1 00 00
	00		 je	 $LN8@gpr_cmd
$LN9@gpr_cmd:

; 2411 :         )
; 2412 :         {
; 2413 :             release_lock(&sysblk.cpulock[sysblk.pcpu]);

  00297	48 8b 05 00 00
	00 00		 mov	 rax, QWORD PTR __imp_sysblk
  0029e	48 63 80 54 13
	00 00		 movsxd	 rax, DWORD PTR [rax+4948]
  002a5	48 8b 0d 00 00
	00 00		 mov	 rcx, QWORD PTR __imp_sysblk
  002ac	48 8d 84 c1 48
	01 00 00	 lea	 rax, QWORD PTR [rcx+rax*8+328]
  002b4	48 8d 15 00 00
	00 00		 lea	 rdx, OFFSET FLAT:$SG161181
  002bb	48 8b c8	 mov	 rcx, rax
  002be	ff 15 00 00 00
	00		 call	 QWORD PTR __imp_hthread_release_lock

; 2414 :             WRMSG(HHC02205, "E", argv[1], "");

  002c4	b8 08 00 00 00	 mov	 eax, 8
  002c9	48 6b c0 01	 imul	 rax, rax, 1
  002cd	48 89 84 24 80
	00 00 00	 mov	 QWORD PTR tv187[rsp], rax
  002d5	b9 01 00 00 00	 mov	 ecx, 1
  002da	ff 15 00 00 00
	00		 call	 QWORD PTR __imp___acrt_iob_func
  002e0	48 8d 0d 00 00
	00 00		 lea	 rcx, OFFSET FLAT:$SG161182
  002e7	48 89 4c 24 40	 mov	 QWORD PTR [rsp+64], rcx
  002ec	48 8b 8c 24 b8
	02 00 00	 mov	 rcx, QWORD PTR argv$[rsp]
  002f4	48 8b 94 24 80
	00 00 00	 mov	 rdx, QWORD PTR tv187[rsp]
  002fc	48 8b 0c 11	 mov	 rcx, QWORD PTR [rcx+rdx]
  00300	48 89 4c 24 38	 mov	 QWORD PTR [rsp+56], rcx
  00305	48 8d 0d 00 00
	00 00		 lea	 rcx, OFFSET FLAT:$SG161183
  0030c	48 89 4c 24 30	 mov	 QWORD PTR [rsp+48], rcx
  00311	48 8d 0d 00 00
	00 00		 lea	 rcx, OFFSET FLAT:$SG161184
  00318	48 89 4c 24 28	 mov	 QWORD PTR [rsp+40], rcx
  0031d	48 89 44 24 20	 mov	 QWORD PTR [rsp+32], rax
  00322	41 b9 03 00 00
	00		 mov	 r9d, 3
  00328	4c 8d 05 00 00
	00 00		 lea	 r8, OFFSET FLAT:$SG161185
  0032f	ba 6e 09 00 00	 mov	 edx, 2414		; 0000096eH
  00334	48 8d 0d 00 00
	00 00		 lea	 rcx, OFFSET FLAT:$SG161186
  0033b	ff 15 00 00 00
	00		 call	 QWORD PTR __imp_fwritemsg

; 2415 :             return 0;

  00341	33 c0		 xor	 eax, eax
  00343	e9 22 01 00 00	 jmp	 $LN1@gpr_cmd
$LN8@gpr_cmd:

; 2416 :         }
; 2417 : 
; 2418 :         if ( ARCH_900_IDX == regs->arch_mode )

  00348	48 8b 44 24 60	 mov	 rax, QWORD PTR regs$[rsp]
  0034d	83 78 64 02	 cmp	 DWORD PTR [rax+100], 2
  00351	75 19		 jne	 SHORT $LN10@gpr_cmd

; 2419 :             regs->GR_G(reg_num) = (U64) reg_value;

  00353	48 63 44 24 54	 movsxd	 rax, DWORD PTR reg_num$2[rsp]
  00358	48 8b 4c 24 60	 mov	 rcx, QWORD PTR regs$[rsp]
  0035d	48 8b 54 24 68	 mov	 rdx, QWORD PTR reg_value$4[rsp]
  00362	48 89 94 c1 80
	02 00 00	 mov	 QWORD PTR [rcx+rax*8+640], rdx
  0036a	eb 15		 jmp	 SHORT $LN11@gpr_cmd
$LN10@gpr_cmd:

; 2420 :         else
; 2421 :             regs->GR_L(reg_num) = (U32) reg_value;

  0036c	48 63 44 24 54	 movsxd	 rax, DWORD PTR reg_num$2[rsp]
  00371	48 8b 4c 24 60	 mov	 rcx, QWORD PTR regs$[rsp]
  00376	8b 54 24 68	 mov	 edx, DWORD PTR reg_value$4[rsp]
  0037a	89 94 c1 80 02
	00 00		 mov	 DWORD PTR [rcx+rax*8+640], edx
$LN11@gpr_cmd:
$LN6@gpr_cmd:

; 2422 :     }
; 2423 : 
; 2424 :     display_gregs( regs, buf, sizeof(buf), "HHC02269I " );

  00381	4c 8d 0d 00 00
	00 00		 lea	 r9, OFFSET FLAT:$SG161189
  00388	41 b8 00 02 00
	00		 mov	 r8d, 512		; 00000200H
  0038e	48 8d 94 24 90
	00 00 00	 lea	 rdx, QWORD PTR buf$[rsp]
  00396	48 8b 4c 24 60	 mov	 rcx, QWORD PTR regs$[rsp]
  0039b	e8 00 00 00 00	 call	 display_gregs

; 2425 :     WRMSG(   HHC02269, "I", "General purpose registers" );

  003a0	b9 01 00 00 00	 mov	 ecx, 1
  003a5	ff 15 00 00 00
	00		 call	 QWORD PTR __imp___acrt_iob_func
  003ab	48 8d 0d 00 00
	00 00		 lea	 rcx, OFFSET FLAT:$SG161190
  003b2	48 89 4c 24 38	 mov	 QWORD PTR [rsp+56], rcx
  003b7	48 8d 0d 00 00
	00 00		 lea	 rcx, OFFSET FLAT:$SG161191
  003be	48 89 4c 24 30	 mov	 QWORD PTR [rsp+48], rcx
  003c3	48 8d 0d 00 00
	00 00		 lea	 rcx, OFFSET FLAT:$SG161192
  003ca	48 89 4c 24 28	 mov	 QWORD PTR [rsp+40], rcx
  003cf	48 89 44 24 20	 mov	 QWORD PTR [rsp+32], rax
  003d4	41 b9 03 00 00
	00		 mov	 r9d, 3
  003da	4c 8d 05 00 00
	00 00		 lea	 r8, OFFSET FLAT:$SG161193
  003e1	ba 79 09 00 00	 mov	 edx, 2425		; 00000979H
  003e6	48 8d 0d 00 00
	00 00		 lea	 rcx, OFFSET FLAT:$SG161194
  003ed	ff 15 00 00 00
	00		 call	 QWORD PTR __imp_fwritemsg

; 2426 :     LOGMSG( "%s", buf );

  003f3	b9 01 00 00 00	 mov	 ecx, 1
  003f8	ff 15 00 00 00
	00		 call	 QWORD PTR __imp___acrt_iob_func
  003fe	48 8d 8c 24 90
	00 00 00	 lea	 rcx, QWORD PTR buf$[rsp]
  00406	48 89 4c 24 30	 mov	 QWORD PTR [rsp+48], rcx
  0040b	48 8d 0d 00 00
	00 00		 lea	 rcx, OFFSET FLAT:$SG161195
  00412	48 89 4c 24 28	 mov	 QWORD PTR [rsp+40], rcx
  00417	48 89 44 24 20	 mov	 QWORD PTR [rsp+32], rax
  0041c	41 b9 03 00 00
	00		 mov	 r9d, 3
  00422	4c 8d 05 00 00
	00 00		 lea	 r8, OFFSET FLAT:$SG161196
  00429	ba 7a 09 00 00	 mov	 edx, 2426		; 0000097aH
  0042e	48 8d 0d 00 00
	00 00		 lea	 rcx, OFFSET FLAT:$SG161197
  00435	ff 15 00 00 00
	00		 call	 QWORD PTR __imp_fwritemsg

; 2427 : 
; 2428 :     release_lock(&sysblk.cpulock[sysblk.pcpu]);

  0043b	48 8b 05 00 00
	00 00		 mov	 rax, QWORD PTR __imp_sysblk
  00442	48 63 80 54 13
	00 00		 movsxd	 rax, DWORD PTR [rax+4948]
  00449	48 8b 0d 00 00
	00 00		 mov	 rcx, QWORD PTR __imp_sysblk
  00450	48 8d 84 c1 48
	01 00 00	 lea	 rax, QWORD PTR [rcx+rax*8+328]
  00458	48 8d 15 00 00
	00 00		 lea	 rdx, OFFSET FLAT:$SG161198
  0045f	48 8b c8	 mov	 rcx, rax
  00462	ff 15 00 00 00
	00		 call	 QWORD PTR __imp_hthread_release_lock

; 2429 : 
; 2430 :     return 0;

  00468	33 c0		 xor	 eax, eax
$LN1@gpr_cmd:

; 2431 : }

  0046a	48 8b 8c 24 90
	02 00 00	 mov	 rcx, QWORD PTR __$ArrayPad$[rsp]
  00472	48 33 cc	 xor	 rcx, rsp
  00475	e8 00 00 00 00	 call	 __security_check_cookie
  0047a	48 81 c4 a8 02
	00 00		 add	 rsp, 680		; 000002a8H
  00481	c3		 ret	 0
gpr_cmd	ENDP
_TEXT	ENDS
; Function compile flags: /Odtp
; File C:\papa\MyGit\hyperion-zvector\hscemode.c
_TEXT	SEGMENT
c$1 = 80
regs$2 = 88
tv78 = 96
tv154 = 104
tv188 = 112
bear$3 = 120
tv207 = 128
tv225 = 136
cbear$4 = 144
__$ArrayPad$ = 168
argc$ = 192
argv$ = 200
cmdline$ = 208
bear_cmd PROC

; 2314 : {

$LN16:
  00000	4c 89 44 24 18	 mov	 QWORD PTR [rsp+24], r8
  00005	48 89 54 24 10	 mov	 QWORD PTR [rsp+16], rdx
  0000a	89 4c 24 08	 mov	 DWORD PTR [rsp+8], ecx
  0000e	57		 push	 rdi
  0000f	48 81 ec b0 00
	00 00		 sub	 rsp, 176		; 000000b0H
  00016	48 8b 05 00 00
	00 00		 mov	 rax, QWORD PTR __security_cookie
  0001d	48 33 c4	 xor	 rax, rsp
  00020	48 89 84 24 a8
	00 00 00	 mov	 QWORD PTR __$ArrayPad$[rsp], rax
$LN4@bear_cmd:

; 2315 :     UNREFERENCED( cmdline );

  00028	33 c0		 xor	 eax, eax
  0002a	85 c0		 test	 eax, eax
  0002c	75 fa		 jne	 SHORT $LN4@bear_cmd
$LN7@bear_cmd:

; 2316 : 
; 2317 :     UPPER_ARGV_0( argv );

  0002e	48 83 bc 24 c8
	00 00 00 00	 cmp	 QWORD PTR argv$[rsp], 0
  00037	74 47		 je	 SHORT $LN8@bear_cmd
  00039	b8 08 00 00 00	 mov	 eax, 8
  0003e	48 6b c0 00	 imul	 rax, rax, 0
  00042	48 8b 8c 24 c8
	00 00 00	 mov	 rcx, QWORD PTR argv$[rsp]
  0004a	48 83 3c 01 00	 cmp	 QWORD PTR [rcx+rax], 0
  0004f	74 2f		 je	 SHORT $LN8@bear_cmd
  00051	b8 08 00 00 00	 mov	 eax, 8
  00056	48 6b c0 00	 imul	 rax, rax, 0
  0005a	b9 08 00 00 00	 mov	 ecx, 8
  0005f	48 6b c9 00	 imul	 rcx, rcx, 0
  00063	48 8b 94 24 c8
	00 00 00	 mov	 rdx, QWORD PTR argv$[rsp]
  0006b	48 8b 14 02	 mov	 rdx, QWORD PTR [rdx+rax]
  0006f	48 8b 84 24 c8
	00 00 00	 mov	 rax, QWORD PTR argv$[rsp]
  00077	48 8b 0c 08	 mov	 rcx, QWORD PTR [rax+rcx]
  0007b	e8 00 00 00 00	 call	 strupper
$LN8@bear_cmd:
  00080	33 c0		 xor	 eax, eax
  00082	85 c0		 test	 eax, eax
  00084	75 a8		 jne	 SHORT $LN7@bear_cmd

; 2318 : 
; 2319 :     /* Correct number of arguments? */
; 2320 : 
; 2321 :     if (argc < 1 || argc > 2)

  00086	83 bc 24 c0 00
	00 00 01	 cmp	 DWORD PTR argc$[rsp], 1
  0008e	7c 0a		 jl	 SHORT $LN10@bear_cmd
  00090	83 bc 24 c0 00
	00 00 02	 cmp	 DWORD PTR argc$[rsp], 2
  00098	7e 75		 jle	 SHORT $LN9@bear_cmd
$LN10@bear_cmd:

; 2322 :     {
; 2323 :         // "Invalid command usage. Type 'help %s' for assistance."
; 2324 :         WRMSG( HHC02299, "E", argv[0] );

  0009a	b8 08 00 00 00	 mov	 eax, 8
  0009f	48 6b c0 00	 imul	 rax, rax, 0
  000a3	48 89 44 24 60	 mov	 QWORD PTR tv78[rsp], rax
  000a8	b9 01 00 00 00	 mov	 ecx, 1
  000ad	ff 15 00 00 00
	00		 call	 QWORD PTR __imp___acrt_iob_func
  000b3	48 8b 8c 24 c8
	00 00 00	 mov	 rcx, QWORD PTR argv$[rsp]
  000bb	48 8b 54 24 60	 mov	 rdx, QWORD PTR tv78[rsp]
  000c0	48 8b 0c 11	 mov	 rcx, QWORD PTR [rcx+rdx]
  000c4	48 89 4c 24 38	 mov	 QWORD PTR [rsp+56], rcx
  000c9	48 8d 0d 00 00
	00 00		 lea	 rcx, OFFSET FLAT:$SG161109
  000d0	48 89 4c 24 30	 mov	 QWORD PTR [rsp+48], rcx
  000d5	48 8d 0d 00 00
	00 00		 lea	 rcx, OFFSET FLAT:$SG161110
  000dc	48 89 4c 24 28	 mov	 QWORD PTR [rsp+40], rcx
  000e1	48 89 44 24 20	 mov	 QWORD PTR [rsp+32], rax
  000e6	41 b9 03 00 00
	00		 mov	 r9d, 3
  000ec	4c 8d 05 00 00
	00 00		 lea	 r8, OFFSET FLAT:$SG161111
  000f3	ba 14 09 00 00	 mov	 edx, 2324		; 00000914H
  000f8	48 8d 0d 00 00
	00 00		 lea	 rcx, OFFSET FLAT:$SG161112
  000ff	ff 15 00 00 00
	00		 call	 QWORD PTR __imp_fwritemsg

; 2325 :         return -1;

  00105	b8 ff ff ff ff	 mov	 eax, -1
  0010a	e9 d1 03 00 00	 jmp	 $LN1@bear_cmd
$LN9@bear_cmd:

; 2326 :     }
; 2327 : 
; 2328 :     obtain_lock( &sysblk.cpulock[ sysblk.pcpu ]);

  0010f	48 8b 05 00 00
	00 00		 mov	 rax, QWORD PTR __imp_sysblk
  00116	48 63 80 54 13
	00 00		 movsxd	 rax, DWORD PTR [rax+4948]
  0011d	48 8b 0d 00 00
	00 00		 mov	 rcx, QWORD PTR __imp_sysblk
  00124	48 8d 84 c1 48
	01 00 00	 lea	 rax, QWORD PTR [rcx+rax*8+328]
  0012c	48 8d 15 00 00
	00 00		 lea	 rdx, OFFSET FLAT:$SG161113
  00133	48 8b c8	 mov	 rcx, rax
  00136	ff 15 00 00 00
	00		 call	 QWORD PTR __imp_hthread_obtain_lock

; 2329 :     {
; 2330 :         REGS* regs = sysblk.regs[ sysblk.pcpu ];

  0013c	48 8b 05 00 00
	00 00		 mov	 rax, QWORD PTR __imp_sysblk
  00143	48 63 80 54 13
	00 00		 movsxd	 rax, DWORD PTR [rax+4948]
  0014a	48 8b 0d 00 00
	00 00		 mov	 rcx, QWORD PTR __imp_sysblk
  00151	48 8b 84 c1 98
	0b 00 00	 mov	 rax, QWORD PTR [rcx+rax*8+2968]
  00159	48 89 44 24 58	 mov	 QWORD PTR regs$2[rsp], rax

; 2331 :         char cbear[17] = {0};

  0015e	48 8d 84 24 90
	00 00 00	 lea	 rax, QWORD PTR cbear$4[rsp]
  00166	48 8b f8	 mov	 rdi, rax
  00169	33 c0		 xor	 eax, eax
  0016b	b9 11 00 00 00	 mov	 ecx, 17
  00170	f3 aa		 rep stosb

; 2332 : 
; 2333 :         if (!IS_CPU_ONLINE( sysblk.pcpu ))

  00172	48 8b 05 00 00
	00 00		 mov	 rax, QWORD PTR __imp_sysblk
  00179	48 63 80 54 13
	00 00		 movsxd	 rax, DWORD PTR [rax+4948]
  00180	48 8b 0d 00 00
	00 00		 mov	 rcx, QWORD PTR __imp_sysblk
  00187	48 83 bc c1 98
	0b 00 00 00	 cmp	 QWORD PTR [rcx+rax*8+2968], 0
  00190	0f 85 cd 00 00
	00		 jne	 $LN11@bear_cmd

; 2334 :         {
; 2335 :             release_lock( &sysblk.cpulock[ sysblk.pcpu ]);

  00196	48 8b 05 00 00
	00 00		 mov	 rax, QWORD PTR __imp_sysblk
  0019d	48 63 80 54 13
	00 00		 movsxd	 rax, DWORD PTR [rax+4948]
  001a4	48 8b 0d 00 00
	00 00		 mov	 rcx, QWORD PTR __imp_sysblk
  001ab	48 8d 84 c1 48
	01 00 00	 lea	 rax, QWORD PTR [rcx+rax*8+328]
  001b3	48 8d 15 00 00
	00 00		 lea	 rdx, OFFSET FLAT:$SG161115
  001ba	48 8b c8	 mov	 rcx, rax
  001bd	ff 15 00 00 00
	00		 call	 QWORD PTR __imp_hthread_release_lock

; 2336 :             // "Processor %s%02X: processor is not %s"
; 2337 :             WRMSG( HHC00816, "E", PTYPSTR( sysblk.pcpu ), sysblk.pcpu, "online");

  001c3	48 8b 05 00 00
	00 00		 mov	 rax, QWORD PTR __imp_sysblk
  001ca	48 63 80 54 13
	00 00		 movsxd	 rax, DWORD PTR [rax+4948]
  001d1	48 8b 0d 00 00
	00 00		 mov	 rcx, QWORD PTR __imp_sysblk
  001d8	0f b6 8c 01 48
	0b 00 00	 movzx	 ecx, BYTE PTR [rcx+rax+2888]
  001e0	ff 15 00 00 00
	00		 call	 QWORD PTR __imp_ptyp2short
  001e6	48 89 44 24 68	 mov	 QWORD PTR tv154[rsp], rax
  001eb	b9 01 00 00 00	 mov	 ecx, 1
  001f0	ff 15 00 00 00
	00		 call	 QWORD PTR __imp___acrt_iob_func
  001f6	48 8d 0d 00 00
	00 00		 lea	 rcx, OFFSET FLAT:$SG161116
  001fd	48 89 4c 24 48	 mov	 QWORD PTR [rsp+72], rcx
  00202	48 8b 0d 00 00
	00 00		 mov	 rcx, QWORD PTR __imp_sysblk
  00209	8b 89 54 13 00
	00		 mov	 ecx, DWORD PTR [rcx+4948]
  0020f	89 4c 24 40	 mov	 DWORD PTR [rsp+64], ecx
  00213	48 8b 4c 24 68	 mov	 rcx, QWORD PTR tv154[rsp]
  00218	48 89 4c 24 38	 mov	 QWORD PTR [rsp+56], rcx
  0021d	48 8d 0d 00 00
	00 00		 lea	 rcx, OFFSET FLAT:$SG161117
  00224	48 89 4c 24 30	 mov	 QWORD PTR [rsp+48], rcx
  00229	48 8d 0d 00 00
	00 00		 lea	 rcx, OFFSET FLAT:$SG161118
  00230	48 89 4c 24 28	 mov	 QWORD PTR [rsp+40], rcx
  00235	48 89 44 24 20	 mov	 QWORD PTR [rsp+32], rax
  0023a	41 b9 03 00 00
	00		 mov	 r9d, 3
  00240	4c 8d 05 00 00
	00 00		 lea	 r8, OFFSET FLAT:$SG161119
  00247	ba 21 09 00 00	 mov	 edx, 2337		; 00000921H
  0024c	48 8d 0d 00 00
	00 00		 lea	 rcx, OFFSET FLAT:$SG161120
  00253	ff 15 00 00 00
	00		 call	 QWORD PTR __imp_fwritemsg

; 2338 :             return -1;

  00259	b8 ff ff ff ff	 mov	 eax, -1
  0025e	e9 7d 02 00 00	 jmp	 $LN1@bear_cmd
$LN11@bear_cmd:

; 2339 :         }
; 2340 : 
; 2341 :         if (argc > 1)       // (set new value)

  00263	83 bc 24 c0 00
	00 00 01	 cmp	 DWORD PTR argc$[rsp], 1
  0026b	0f 8e 9c 01 00
	00		 jle	 $LN12@bear_cmd

; 2342 :         {
; 2343 :             U64 bear;
; 2344 :             BYTE c;
; 2345 : 
; 2346 :             if (sscanf( argv[1], "%"SCNx64"%c", &bear, &c) != 1)

  00271	b8 08 00 00 00	 mov	 eax, 8
  00276	48 6b c0 01	 imul	 rax, rax, 1
  0027a	4c 8d 4c 24 50	 lea	 r9, QWORD PTR c$1[rsp]
  0027f	4c 8d 44 24 78	 lea	 r8, QWORD PTR bear$3[rsp]
  00284	48 8d 15 00 00
	00 00		 lea	 rdx, OFFSET FLAT:$SG161124
  0028b	48 8b 8c 24 c8
	00 00 00	 mov	 rcx, QWORD PTR argv$[rsp]
  00293	48 8b 0c 01	 mov	 rcx, QWORD PTR [rcx+rax]
  00297	e8 00 00 00 00	 call	 sscanf
  0029c	83 f8 01	 cmp	 eax, 1
  0029f	0f 84 ae 00 00
	00		 je	 $LN14@bear_cmd

; 2347 :             {
; 2348 :                 release_lock( &sysblk.cpulock[ sysblk.pcpu ]);

  002a5	48 8b 05 00 00
	00 00		 mov	 rax, QWORD PTR __imp_sysblk
  002ac	48 63 80 54 13
	00 00		 movsxd	 rax, DWORD PTR [rax+4948]
  002b3	48 8b 0d 00 00
	00 00		 mov	 rcx, QWORD PTR __imp_sysblk
  002ba	48 8d 84 c1 48
	01 00 00	 lea	 rax, QWORD PTR [rcx+rax*8+328]
  002c2	48 8d 15 00 00
	00 00		 lea	 rdx, OFFSET FLAT:$SG161125
  002c9	48 8b c8	 mov	 rcx, rax
  002cc	ff 15 00 00 00
	00		 call	 QWORD PTR __imp_hthread_release_lock

; 2349 :                 // "Invalid argument %s%s"
; 2350 :                 WRMSG( HHC02205, "E", argv[1], ": invalid address" );

  002d2	b8 08 00 00 00	 mov	 eax, 8
  002d7	48 6b c0 01	 imul	 rax, rax, 1
  002db	48 89 44 24 70	 mov	 QWORD PTR tv188[rsp], rax
  002e0	b9 01 00 00 00	 mov	 ecx, 1
  002e5	ff 15 00 00 00
	00		 call	 QWORD PTR __imp___acrt_iob_func
  002eb	48 8d 0d 00 00
	00 00		 lea	 rcx, OFFSET FLAT:$SG161126
  002f2	48 89 4c 24 40	 mov	 QWORD PTR [rsp+64], rcx
  002f7	48 8b 8c 24 c8
	00 00 00	 mov	 rcx, QWORD PTR argv$[rsp]
  002ff	48 8b 54 24 70	 mov	 rdx, QWORD PTR tv188[rsp]
  00304	48 8b 0c 11	 mov	 rcx, QWORD PTR [rcx+rdx]
  00308	48 89 4c 24 38	 mov	 QWORD PTR [rsp+56], rcx
  0030d	48 8d 0d 00 00
	00 00		 lea	 rcx, OFFSET FLAT:$SG161127
  00314	48 89 4c 24 30	 mov	 QWORD PTR [rsp+48], rcx
  00319	48 8d 0d 00 00
	00 00		 lea	 rcx, OFFSET FLAT:$SG161128
  00320	48 89 4c 24 28	 mov	 QWORD PTR [rsp+40], rcx
  00325	48 89 44 24 20	 mov	 QWORD PTR [rsp+32], rax
  0032a	41 b9 03 00 00
	00		 mov	 r9d, 3
  00330	4c 8d 05 00 00
	00 00		 lea	 r8, OFFSET FLAT:$SG161129
  00337	ba 2e 09 00 00	 mov	 edx, 2350		; 0000092eH
  0033c	48 8d 0d 00 00
	00 00		 lea	 rcx, OFFSET FLAT:$SG161130
  00343	ff 15 00 00 00
	00		 call	 QWORD PTR __imp_fwritemsg

; 2351 :                 return -1;

  00349	b8 ff ff ff ff	 mov	 eax, -1
  0034e	e9 8d 01 00 00	 jmp	 $LN1@bear_cmd
$LN14@bear_cmd:

; 2352 :             }
; 2353 : 
; 2354 :             regs->bear = bear;

  00353	48 8b 44 24 58	 mov	 rax, QWORD PTR regs$2[rsp]
  00358	48 8b 4c 24 78	 mov	 rcx, QWORD PTR bear$3[rsp]
  0035d	48 89 88 18 02
	00 00		 mov	 QWORD PTR [rax+536], rcx

; 2355 : 
; 2356 :             // "%-14s set to %s"
; 2357 :             MSGBUF( cbear, "%"PRIx64, regs->bear );

  00364	48 8b 44 24 58	 mov	 rax, QWORD PTR regs$2[rsp]
  00369	4c 8b 88 18 02
	00 00		 mov	 r9, QWORD PTR [rax+536]
  00370	4c 8d 05 00 00
	00 00		 lea	 r8, OFFSET FLAT:$SG161131
  00377	ba 11 00 00 00	 mov	 edx, 17
  0037c	48 8d 8c 24 90
	00 00 00	 lea	 rcx, QWORD PTR cbear$4[rsp]
  00384	ff 15 00 00 00
	00		 call	 QWORD PTR __imp_w32_snprintf

; 2358 :             WRMSG( HHC02204, "I", argv[0], cbear );

  0038a	b8 08 00 00 00	 mov	 eax, 8
  0038f	48 6b c0 00	 imul	 rax, rax, 0
  00393	48 89 84 24 80
	00 00 00	 mov	 QWORD PTR tv207[rsp], rax
  0039b	b9 01 00 00 00	 mov	 ecx, 1
  003a0	ff 15 00 00 00
	00		 call	 QWORD PTR __imp___acrt_iob_func
  003a6	48 8d 8c 24 90
	00 00 00	 lea	 rcx, QWORD PTR cbear$4[rsp]
  003ae	48 89 4c 24 40	 mov	 QWORD PTR [rsp+64], rcx
  003b3	48 8b 8c 24 c8
	00 00 00	 mov	 rcx, QWORD PTR argv$[rsp]
  003bb	48 8b 94 24 80
	00 00 00	 mov	 rdx, QWORD PTR tv207[rsp]
  003c3	48 8b 0c 11	 mov	 rcx, QWORD PTR [rcx+rdx]
  003c7	48 89 4c 24 38	 mov	 QWORD PTR [rsp+56], rcx
  003cc	48 8d 0d 00 00
	00 00		 lea	 rcx, OFFSET FLAT:$SG161132
  003d3	48 89 4c 24 30	 mov	 QWORD PTR [rsp+48], rcx
  003d8	48 8d 0d 00 00
	00 00		 lea	 rcx, OFFSET FLAT:$SG161133
  003df	48 89 4c 24 28	 mov	 QWORD PTR [rsp+40], rcx
  003e4	48 89 44 24 20	 mov	 QWORD PTR [rsp+32], rax
  003e9	41 b9 03 00 00
	00		 mov	 r9d, 3
  003ef	4c 8d 05 00 00
	00 00		 lea	 r8, OFFSET FLAT:$SG161134
  003f6	ba 36 09 00 00	 mov	 edx, 2358		; 00000936H
  003fb	48 8d 0d 00 00
	00 00		 lea	 rcx, OFFSET FLAT:$SG161135
  00402	ff 15 00 00 00
	00		 call	 QWORD PTR __imp_fwritemsg

; 2359 :         }

  00408	e9 a4 00 00 00	 jmp	 $LN13@bear_cmd
$LN12@bear_cmd:

; 2360 :         else // (display current value)
; 2361 :         {
; 2362 :             // "%-14s: %s"
; 2363 :             MSGBUF( cbear, "%"PRIx64, regs->bear );

  0040d	48 8b 44 24 58	 mov	 rax, QWORD PTR regs$2[rsp]
  00412	4c 8b 88 18 02
	00 00		 mov	 r9, QWORD PTR [rax+536]
  00419	4c 8d 05 00 00
	00 00		 lea	 r8, OFFSET FLAT:$SG161136
  00420	ba 11 00 00 00	 mov	 edx, 17
  00425	48 8d 8c 24 90
	00 00 00	 lea	 rcx, QWORD PTR cbear$4[rsp]
  0042d	ff 15 00 00 00
	00		 call	 QWORD PTR __imp_w32_snprintf

; 2364 :             WRMSG( HHC02203, "I", argv[0], cbear );

  00433	b8 08 00 00 00	 mov	 eax, 8
  00438	48 6b c0 00	 imul	 rax, rax, 0
  0043c	48 89 84 24 88
	00 00 00	 mov	 QWORD PTR tv225[rsp], rax
  00444	b9 01 00 00 00	 mov	 ecx, 1
  00449	ff 15 00 00 00
	00		 call	 QWORD PTR __imp___acrt_iob_func
  0044f	48 8d 8c 24 90
	00 00 00	 lea	 rcx, QWORD PTR cbear$4[rsp]
  00457	48 89 4c 24 40	 mov	 QWORD PTR [rsp+64], rcx
  0045c	48 8b 8c 24 c8
	00 00 00	 mov	 rcx, QWORD PTR argv$[rsp]
  00464	48 8b 94 24 88
	00 00 00	 mov	 rdx, QWORD PTR tv225[rsp]
  0046c	48 8b 0c 11	 mov	 rcx, QWORD PTR [rcx+rdx]
  00470	48 89 4c 24 38	 mov	 QWORD PTR [rsp+56], rcx
  00475	48 8d 0d 00 00
	00 00		 lea	 rcx, OFFSET FLAT:$SG161137
  0047c	48 89 4c 24 30	 mov	 QWORD PTR [rsp+48], rcx
  00481	48 8d 0d 00 00
	00 00		 lea	 rcx, OFFSET FLAT:$SG161138
  00488	48 89 4c 24 28	 mov	 QWORD PTR [rsp+40], rcx
  0048d	48 89 44 24 20	 mov	 QWORD PTR [rsp+32], rax
  00492	41 b9 03 00 00
	00		 mov	 r9d, 3
  00498	4c 8d 05 00 00
	00 00		 lea	 r8, OFFSET FLAT:$SG161139
  0049f	ba 3c 09 00 00	 mov	 edx, 2364		; 0000093cH
  004a4	48 8d 0d 00 00
	00 00		 lea	 rcx, OFFSET FLAT:$SG161140
  004ab	ff 15 00 00 00
	00		 call	 QWORD PTR __imp_fwritemsg
$LN13@bear_cmd:

; 2365 :         }
; 2366 :     }
; 2367 :     release_lock( &sysblk.cpulock[ sysblk.pcpu ]);

  004b1	48 8b 05 00 00
	00 00		 mov	 rax, QWORD PTR __imp_sysblk
  004b8	48 63 80 54 13
	00 00		 movsxd	 rax, DWORD PTR [rax+4948]
  004bf	48 8b 0d 00 00
	00 00		 mov	 rcx, QWORD PTR __imp_sysblk
  004c6	48 8d 84 c1 48
	01 00 00	 lea	 rax, QWORD PTR [rcx+rax*8+328]
  004ce	48 8d 15 00 00
	00 00		 lea	 rdx, OFFSET FLAT:$SG161141
  004d5	48 8b c8	 mov	 rcx, rax
  004d8	ff 15 00 00 00
	00		 call	 QWORD PTR __imp_hthread_release_lock

; 2368 :     return 0;

  004de	33 c0		 xor	 eax, eax
$LN1@bear_cmd:

; 2369 : }

  004e0	48 8b 8c 24 a8
	00 00 00	 mov	 rcx, QWORD PTR __$ArrayPad$[rsp]
  004e8	48 33 cc	 xor	 rcx, rsp
  004eb	e8 00 00 00 00	 call	 __security_check_cookie
  004f0	48 81 c4 b0 00
	00 00		 add	 rsp, 176		; 000000b0H
  004f7	5f		 pop	 rdi
  004f8	c3		 ret	 0
bear_cmd ENDP
_TEXT	ENDS
; Function compile flags: /Odtp
; File C:\papa\MyGit\hyperion-zvector\hscemode.c
_TEXT	SEGMENT
i$ = 160
dev$ = 168
first$ = 176
last$ = 180
io$ = 184
crwcount$ = 192
crwarray$ = 200
crw$1 = 208
tv2139 = 212
tv2145 = 216
tv2168 = 220
tv2174 = 224
tv2193 = 228
tv2199 = 232
tv2222 = 236
tv2228 = 240
tv2251 = 244
tv2257 = 248
tv2312 = 252
tv2318 = 256
tv2341 = 260
tv2347 = 264
tv2405 = 268
tv252 = 272
tv289 = 276
tv358 = 280
tv395 = 284
tv432 = 288
tv469 = 292
tv506 = 296
tv543 = 300
tv608 = 304
tv647 = 308
tv686 = 312
tv727 = 316
tv764 = 320
tv847 = 324
tv884 = 328
tv927 = 332
tv961 = 336
tv1051 = 340
tv1100 = 344
tv1154 = 348
tv1220 = 352
tv1242 = 356
tv1269 = 360
tv1296 = 364
tv1323 = 368
tv1382 = 372
tv1409 = 376
tv175 = 380
tv1458 = 384
tv1516 = 388
tv1558 = 392
tv1585 = 396
tv1610 = 400
tv1634 = 404
tv1714 = 408
tv1436 = 412
tv1913 = 416
tv1963 = 420
tv2384 = 424
tv2388 = 428
tv2392 = 432
tv182 = 436
tv219 = 440
tv1795 = 444
tv212 = 448
tv245 = 456
tv282 = 464
tv319 = 472
tv388 = 480
tv425 = 488
tv462 = 496
tv499 = 504
tv536 = 512
tv601 = 520
tv640 = 528
tv679 = 536
tv720 = 544
tv757 = 552
tv1181 = 560
tv1235 = 568
tv1262 = 576
tv1289 = 584
tv1316 = 592
tv1343 = 600
tv1402 = 608
tv1429 = 616
tv1451 = 624
tv1509 = 632
tv1869 = 640
tv1886 = 648
tv1901 = 656
tv1919 = 664
tv1969 = 672
tv1984 = 680
tv2407 = 688
tv2413 = 696
tv2419 = 704
tv2424 = 712
tv80 = 720
tv129 = 728
tv137 = 736
tv2589 = 744
tv2588 = 752
tv184 = 760
tv221 = 768
tv254 = 776
tv291 = 784
tv360 = 792
tv397 = 800
tv434 = 808
tv471 = 816
tv508 = 824
tv577 = 832
tv610 = 840
tv649 = 848
tv688 = 856
tv2919 = 864
tv729 = 872
tv766 = 880
tv849 = 888
tv875 = 896
tv886 = 904
tv920 = 912
tv929 = 920
tv2530 = 928
tv963 = 936
tv1102 = 944
tv2523 = 952
tv2521 = 960
tv1576 = 968
tv1603 = 976
tv2449 = 984
tv1810 = 992
tv1827 = 1000
tv1835 = 1008
tv2087 = 1016
states$ = 1024
curpsw$ = 1056
sysid$ = 1072
buf$ = 1088
buf$2 = 1344
__$ArrayPad$ = 1600
argc$ = 1696
argv$ = 1704
cmdline$ = 1712
ipending_cmd PROC

; 1991 : {

$LN163:
  00000	4c 89 44 24 18	 mov	 QWORD PTR [rsp+24], r8
  00005	48 89 54 24 10	 mov	 QWORD PTR [rsp+16], rdx
  0000a	89 4c 24 08	 mov	 DWORD PTR [rsp+8], ecx
  0000e	53		 push	 rbx
  0000f	55		 push	 rbp
  00010	56		 push	 rsi
  00011	57		 push	 rdi
  00012	41 54		 push	 r12
  00014	41 55		 push	 r13
  00016	41 56		 push	 r14
  00018	41 57		 push	 r15
  0001a	48 81 ec 58 06
	00 00		 sub	 rsp, 1624		; 00000658H
  00021	48 8b 05 00 00
	00 00		 mov	 rax, QWORD PTR __security_cookie
  00028	48 33 c4	 xor	 rax, rsp
  0002b	48 89 84 24 40
	06 00 00	 mov	 QWORD PTR __$ArrayPad$[rsp], rax

; 1992 :     DEVBLK *dev;                        /* -> Device block           */
; 1993 :     IOINT  *io;                         /* -> I/O interrupt entry    */
; 1994 :     U32    *crwarray;                   /* -> Channel Report queue   */
; 1995 :     unsigned crwcount;
; 1996 :     int     i;
; 1997 :     int first, last;
; 1998 :     char    sysid[12];
; 1999 :     BYTE    curpsw[16];
; 2000 :     char *states[] = { "?(0)", "STARTED", "STOPPING", "STOPPED" };

  00033	48 8d 05 00 00
	00 00		 lea	 rax, OFFSET FLAT:$SG160689
  0003a	48 89 84 24 00
	04 00 00	 mov	 QWORD PTR states$[rsp], rax
  00042	48 8d 05 00 00
	00 00		 lea	 rax, OFFSET FLAT:$SG160691
  00049	48 89 84 24 08
	04 00 00	 mov	 QWORD PTR states$[rsp+8], rax
  00051	48 8d 05 00 00
	00 00		 lea	 rax, OFFSET FLAT:$SG160693
  00058	48 89 84 24 10
	04 00 00	 mov	 QWORD PTR states$[rsp+16], rax
  00060	48 8d 05 00 00
	00 00		 lea	 rax, OFFSET FLAT:$SG160695
  00067	48 89 84 24 18
	04 00 00	 mov	 QWORD PTR states$[rsp+24], rax
$LN4@ipending_c:

; 2001 :     char buf[256];
; 2002 : 
; 2003 :     UNREFERENCED(argc);

  0006f	33 c0		 xor	 eax, eax
  00071	85 c0		 test	 eax, eax
  00073	75 fa		 jne	 SHORT $LN4@ipending_c
$LN7@ipending_c:

; 2004 :     UNREFERENCED(argv);

  00075	33 c0		 xor	 eax, eax
  00077	85 c0		 test	 eax, eax
  00079	75 fa		 jne	 SHORT $LN7@ipending_c
$LN10@ipending_c:

; 2005 :     UNREFERENCED(cmdline);

  0007b	33 c0		 xor	 eax, eax
  0007d	85 c0		 test	 eax, eax
  0007f	75 fa		 jne	 SHORT $LN10@ipending_c

; 2006 : 
; 2007 :     first = last = -1;

  00081	c7 84 24 b4 00
	00 00 ff ff ff
	ff		 mov	 DWORD PTR last$[rsp], -1
  0008c	8b 84 24 b4 00
	00 00		 mov	 eax, DWORD PTR last$[rsp]
  00093	89 84 24 b0 00
	00 00		 mov	 DWORD PTR first$[rsp], eax

; 2008 : 
; 2009 :     for (i = 0; i < sysblk.maxcpu; i++)

  0009a	c7 84 24 a0 00
	00 00 00 00 00
	00		 mov	 DWORD PTR i$[rsp], 0
  000a5	eb 10		 jmp	 SHORT $LN13@ipending_c
$LN11@ipending_c:
  000a7	8b 84 24 a0 00
	00 00		 mov	 eax, DWORD PTR i$[rsp]
  000ae	ff c0		 inc	 eax
  000b0	89 84 24 a0 00
	00 00		 mov	 DWORD PTR i$[rsp], eax
$LN13@ipending_c:
  000b7	48 8b 05 00 00
	00 00		 mov	 rax, QWORD PTR __imp_sysblk
  000be	8b 80 00 01 00
	00		 mov	 eax, DWORD PTR [rax+256]
  000c4	39 84 24 a0 00
	00 00		 cmp	 DWORD PTR i$[rsp], eax
  000cb	0f 8d 61 2a 00
	00		 jge	 $LN12@ipending_c

; 2010 :     {
; 2011 :         if (!IS_CPU_ONLINE(i))

  000d1	48 63 84 24 a0
	00 00 00	 movsxd	 rax, DWORD PTR i$[rsp]
  000d9	48 8b 0d 00 00
	00 00		 mov	 rcx, QWORD PTR __imp_sysblk
  000e0	48 83 bc c1 98
	0b 00 00 00	 cmp	 QWORD PTR [rcx+rax*8+2968], 0
  000e9	75 3a		 jne	 SHORT $LN23@ipending_c

; 2012 :         {
; 2013 :             if ( first == -1 )

  000eb	83 bc 24 b0 00
	00 00 ff	 cmp	 DWORD PTR first$[rsp], -1
  000f3	75 1e		 jne	 SHORT $LN24@ipending_c

; 2014 :                 first = last = i;

  000f5	8b 84 24 a0 00
	00 00		 mov	 eax, DWORD PTR i$[rsp]
  000fc	89 84 24 b4 00
	00 00		 mov	 DWORD PTR last$[rsp], eax
  00103	8b 84 24 b4 00
	00 00		 mov	 eax, DWORD PTR last$[rsp]
  0010a	89 84 24 b0 00
	00 00		 mov	 DWORD PTR first$[rsp], eax
  00111	eb 10		 jmp	 SHORT $LN25@ipending_c
$LN24@ipending_c:

; 2015 :             else
; 2016 :                 last++;

  00113	8b 84 24 b4 00
	00 00		 mov	 eax, DWORD PTR last$[rsp]
  0011a	ff c0		 inc	 eax
  0011c	89 84 24 b4 00
	00 00		 mov	 DWORD PTR last$[rsp], eax
$LN25@ipending_c:

; 2017 :             continue;

  00123	eb 82		 jmp	 SHORT $LN11@ipending_c
$LN23@ipending_c:

; 2018 :         }
; 2019 : 
; 2020 :         /*---------------------*/
; 2021 :         /* CPU state and flags */
; 2022 :         /*---------------------*/
; 2023 : 
; 2024 :         if ( first > 0 )

  00125	83 bc 24 b0 00
	00 00 00	 cmp	 DWORD PTR first$[rsp], 0
  0012d	0f 8e 77 01 00
	00		 jle	 $LN26@ipending_c

; 2025 :         {
; 2026 :             if ( first == last )

  00133	8b 84 24 b4 00
	00 00		 mov	 eax, DWORD PTR last$[rsp]
  0013a	39 84 24 b0 00
	00 00		 cmp	 DWORD PTR first$[rsp], eax
  00141	0f 85 89 00 00
	00		 jne	 $LN27@ipending_c

; 2027 :                 WRMSG( HHC00820, "I", PTYPSTR(first), first );

  00147	48 63 84 24 b0
	00 00 00	 movsxd	 rax, DWORD PTR first$[rsp]
  0014f	48 8b 0d 00 00
	00 00		 mov	 rcx, QWORD PTR __imp_sysblk
  00156	0f b6 8c 01 48
	0b 00 00	 movzx	 ecx, BYTE PTR [rcx+rax+2888]
  0015e	ff 15 00 00 00
	00		 call	 QWORD PTR __imp_ptyp2short
  00164	48 89 84 24 d0
	02 00 00	 mov	 QWORD PTR tv80[rsp], rax
  0016c	b9 01 00 00 00	 mov	 ecx, 1
  00171	ff 15 00 00 00
	00		 call	 QWORD PTR __imp___acrt_iob_func
  00177	8b 8c 24 b0 00
	00 00		 mov	 ecx, DWORD PTR first$[rsp]
  0017e	89 4c 24 40	 mov	 DWORD PTR [rsp+64], ecx
  00182	48 8b 8c 24 d0
	02 00 00	 mov	 rcx, QWORD PTR tv80[rsp]
  0018a	48 89 4c 24 38	 mov	 QWORD PTR [rsp+56], rcx
  0018f	48 8d 0d 00 00
	00 00		 lea	 rcx, OFFSET FLAT:$SG160702
  00196	48 89 4c 24 30	 mov	 QWORD PTR [rsp+48], rcx
  0019b	48 8d 0d 00 00
	00 00		 lea	 rcx, OFFSET FLAT:$SG160703
  001a2	48 89 4c 24 28	 mov	 QWORD PTR [rsp+40], rcx
  001a7	48 89 44 24 20	 mov	 QWORD PTR [rsp+32], rax
  001ac	41 b9 03 00 00
	00		 mov	 r9d, 3
  001b2	4c 8d 05 00 00
	00 00		 lea	 r8, OFFSET FLAT:$SG160704
  001b9	ba eb 07 00 00	 mov	 edx, 2027		; 000007ebH
  001be	48 8d 0d 00 00
	00 00		 lea	 rcx, OFFSET FLAT:$SG160705
  001c5	ff 15 00 00 00
	00		 call	 QWORD PTR __imp_fwritemsg
  001cb	e9 c1 00 00 00	 jmp	 $LN28@ipending_c
$LN27@ipending_c:

; 2028 :             else
; 2029 :                 WRMSG( HHC00815, "I", PTYPSTR(first), first, PTYPSTR(last), last );

  001d0	48 63 84 24 b4
	00 00 00	 movsxd	 rax, DWORD PTR last$[rsp]
  001d8	48 8b 0d 00 00
	00 00		 mov	 rcx, QWORD PTR __imp_sysblk
  001df	0f b6 8c 01 48
	0b 00 00	 movzx	 ecx, BYTE PTR [rcx+rax+2888]
  001e7	ff 15 00 00 00
	00		 call	 QWORD PTR __imp_ptyp2short
  001ed	48 89 84 24 d8
	02 00 00	 mov	 QWORD PTR tv129[rsp], rax
  001f5	48 63 8c 24 b0
	00 00 00	 movsxd	 rcx, DWORD PTR first$[rsp]
  001fd	48 8b 15 00 00
	00 00		 mov	 rdx, QWORD PTR __imp_sysblk
  00204	0f b6 8c 0a 48
	0b 00 00	 movzx	 ecx, BYTE PTR [rdx+rcx+2888]
  0020c	ff 15 00 00 00
	00		 call	 QWORD PTR __imp_ptyp2short
  00212	48 89 84 24 e0
	02 00 00	 mov	 QWORD PTR tv137[rsp], rax
  0021a	b9 01 00 00 00	 mov	 ecx, 1
  0021f	ff 15 00 00 00
	00		 call	 QWORD PTR __imp___acrt_iob_func
  00225	8b 8c 24 b4 00
	00 00		 mov	 ecx, DWORD PTR last$[rsp]
  0022c	89 4c 24 50	 mov	 DWORD PTR [rsp+80], ecx
  00230	48 8b 8c 24 d8
	02 00 00	 mov	 rcx, QWORD PTR tv129[rsp]
  00238	48 89 4c 24 48	 mov	 QWORD PTR [rsp+72], rcx
  0023d	8b 8c 24 b0 00
	00 00		 mov	 ecx, DWORD PTR first$[rsp]
  00244	89 4c 24 40	 mov	 DWORD PTR [rsp+64], ecx
  00248	48 8b 8c 24 e0
	02 00 00	 mov	 rcx, QWORD PTR tv137[rsp]
  00250	48 89 4c 24 38	 mov	 QWORD PTR [rsp+56], rcx
  00255	48 8d 0d 00 00
	00 00		 lea	 rcx, OFFSET FLAT:$SG160706
  0025c	48 89 4c 24 30	 mov	 QWORD PTR [rsp+48], rcx
  00261	48 8d 0d 00 00
	00 00		 lea	 rcx, OFFSET FLAT:$SG160707
  00268	48 89 4c 24 28	 mov	 QWORD PTR [rsp+40], rcx
  0026d	48 89 44 24 20	 mov	 QWORD PTR [rsp+32], rax
  00272	41 b9 03 00 00
	00		 mov	 r9d, 3
  00278	4c 8d 05 00 00
	00 00		 lea	 r8, OFFSET FLAT:$SG160708
  0027f	ba ed 07 00 00	 mov	 edx, 2029		; 000007edH
  00284	48 8d 0d 00 00
	00 00		 lea	 rcx, OFFSET FLAT:$SG160709
  0028b	ff 15 00 00 00
	00		 call	 QWORD PTR __imp_fwritemsg
$LN28@ipending_c:

; 2030 :             first = last = -1;

  00291	c7 84 24 b4 00
	00 00 ff ff ff
	ff		 mov	 DWORD PTR last$[rsp], -1
  0029c	8b 84 24 b4 00
	00 00		 mov	 eax, DWORD PTR last$[rsp]
  002a3	89 84 24 b0 00
	00 00		 mov	 DWORD PTR first$[rsp], eax
$LN26@ipending_c:

; 2031 :         }
; 2032 : 
; 2033 : // /*DEBUG*/logmsg( "hsccmd.c: %s%02X: Any cpu interrupt %spending\n",
; 2034 : // /*DEBUG*/    PTYPSTR(sysblk.regs[i]->cpuad), sysblk.regs[i]->cpuad,
; 2035 : // /*DEBUG*/    sysblk.regs[i]->cpuint ? "" : "not " );
; 2036 : //
; 2037 :         WRMSG( HHC00850, "I", PTYPSTR(sysblk.regs[i]->cpuad), sysblk.regs[i]->cpuad,

  002aa	48 63 84 24 a0
	00 00 00	 movsxd	 rax, DWORD PTR i$[rsp]
  002b2	48 8b 0d 00 00
	00 00		 mov	 rcx, QWORD PTR __imp_sysblk
  002b9	48 8b 84 c1 98
	0b 00 00	 mov	 rax, QWORD PTR [rcx+rax*8+2968]
  002c1	48 89 84 24 e8
	02 00 00	 mov	 QWORD PTR tv2589[rsp], rax
  002c9	48 63 8c 24 a0
	00 00 00	 movsxd	 rcx, DWORD PTR i$[rsp]
  002d1	48 8b 15 00 00
	00 00		 mov	 rdx, QWORD PTR __imp_sysblk
  002d8	48 8b 8c ca 98
	0b 00 00	 mov	 rcx, QWORD PTR [rdx+rcx*8+2968]
  002e0	48 89 8c 24 f0
	02 00 00	 mov	 QWORD PTR tv2588[rsp], rcx
  002e8	48 63 94 24 a0
	00 00 00	 movsxd	 rdx, DWORD PTR i$[rsp]
  002f0	4c 8b 05 00 00
	00 00		 mov	 r8, QWORD PTR __imp_sysblk
  002f7	49 8b 94 d0 98
	0b 00 00	 mov	 rdx, QWORD PTR [r8+rdx*8+2968]
  002ff	4c 63 84 24 a0
	00 00 00	 movsxd	 r8, DWORD PTR i$[rsp]
  00307	4c 8b 0d 00 00
	00 00		 mov	 r9, QWORD PTR __imp_sysblk
  0030e	4f 8b 84 c1 98
	0b 00 00	 mov	 r8, QWORD PTR [r9+r8*8+2968]
  00316	45 8b 40 4c	 mov	 r8d, DWORD PTR [r8+76]
  0031a	8b 52 48	 mov	 edx, DWORD PTR [rdx+72]
  0031d	41 23 d0	 and	 edx, r8d
  00320	89 94 24 7c 01
	00 00		 mov	 DWORD PTR tv175[rsp], edx
  00327	4c 63 84 24 a0
	00 00 00	 movsxd	 r8, DWORD PTR i$[rsp]
  0032f	4c 8b 0d 00 00
	00 00		 mov	 r9, QWORD PTR __imp_sysblk
  00336	4f 8b 84 c1 98
	0b 00 00	 mov	 r8, QWORD PTR [r9+r8*8+2968]
  0033e	45 0f b7 80 3c
	08 00 00	 movzx	 r8d, WORD PTR [r8+2108]
  00346	44 89 84 24 b4
	01 00 00	 mov	 DWORD PTR tv182[rsp], r8d
  0034e	4c 63 8c 24 a0
	00 00 00	 movsxd	 r9, DWORD PTR i$[rsp]
  00356	4c 8b 15 00 00
	00 00		 mov	 r10, QWORD PTR __imp_sysblk
  0035d	4f 8b 8c ca 98
	0b 00 00	 mov	 r9, QWORD PTR [r10+r9*8+2968]
  00365	45 0f b7 89 3c
	08 00 00	 movzx	 r9d, WORD PTR [r9+2108]
  0036d	4c 8b 15 00 00
	00 00		 mov	 r10, QWORD PTR __imp_sysblk
  00374	43 0f b6 8c 0a
	48 0b 00 00	 movzx	 ecx, BYTE PTR [r10+r9+2888]
  0037d	ff 15 00 00 00
	00		 call	 QWORD PTR __imp_ptyp2short
  00383	48 89 84 24 f8
	02 00 00	 mov	 QWORD PTR tv184[rsp], rax
  0038b	b9 01 00 00 00	 mov	 ecx, 1
  00390	ff 15 00 00 00
	00		 call	 QWORD PTR __imp___acrt_iob_func
  00396	48 8b 8c 24 e8
	02 00 00	 mov	 rcx, QWORD PTR tv2589[rsp]
  0039e	8b 49 4c	 mov	 ecx, DWORD PTR [rcx+76]
  003a1	89 4c 24 58	 mov	 DWORD PTR [rsp+88], ecx
  003a5	48 8b 8c 24 f0
	02 00 00	 mov	 rcx, QWORD PTR tv2588[rsp]
  003ad	8b 49 48	 mov	 ecx, DWORD PTR [rcx+72]
  003b0	89 4c 24 50	 mov	 DWORD PTR [rsp+80], ecx
  003b4	8b 8c 24 7c 01
	00 00		 mov	 ecx, DWORD PTR tv175[rsp]
  003bb	89 4c 24 48	 mov	 DWORD PTR [rsp+72], ecx
  003bf	8b 8c 24 b4 01
	00 00		 mov	 ecx, DWORD PTR tv182[rsp]
  003c6	89 4c 24 40	 mov	 DWORD PTR [rsp+64], ecx
  003ca	48 8b 8c 24 f8
	02 00 00	 mov	 rcx, QWORD PTR tv184[rsp]
  003d2	48 89 4c 24 38	 mov	 QWORD PTR [rsp+56], rcx
  003d7	48 8d 0d 00 00
	00 00		 lea	 rcx, OFFSET FLAT:$SG160710
  003de	48 89 4c 24 30	 mov	 QWORD PTR [rsp+48], rcx
  003e3	48 8d 0d 00 00
	00 00		 lea	 rcx, OFFSET FLAT:$SG160711
  003ea	48 89 4c 24 28	 mov	 QWORD PTR [rsp+40], rcx
  003ef	48 89 44 24 20	 mov	 QWORD PTR [rsp+32], rax
  003f4	41 b9 03 00 00
	00		 mov	 r9d, 3
  003fa	4c 8d 05 00 00
	00 00		 lea	 r8, OFFSET FLAT:$SG160712
  00401	ba f8 07 00 00	 mov	 edx, 2040		; 000007f8H
  00406	48 8d 0d 00 00
	00 00		 lea	 rcx, OFFSET FLAT:$SG160713
  0040d	ff 15 00 00 00
	00		 call	 QWORD PTR __imp_fwritemsg

; 2038 :                               IC_INTERRUPT_CPU(sysblk.regs[i]),
; 2039 :                               sysblk.regs[i]->ints_state,
; 2040 :                               sysblk.regs[i]->ints_mask);
; 2041 :         WRMSG( HHC00851, "I", PTYPSTR(sysblk.regs[i]->cpuad), sysblk.regs[i]->cpuad,

  00413	48 63 84 24 a0
	00 00 00	 movsxd	 rax, DWORD PTR i$[rsp]
  0041b	48 8b 0d 00 00
	00 00		 mov	 rcx, QWORD PTR __imp_sysblk
  00422	48 8b 84 c1 98
	0b 00 00	 mov	 rax, QWORD PTR [rcx+rax*8+2968]
  0042a	8b 40 48	 mov	 eax, DWORD PTR [rax+72]
  0042d	25 00 00 00 80	 and	 eax, -2147483648	; 80000000H
  00432	85 c0		 test	 eax, eax
  00434	74 11		 je	 SHORT $LN65@ipending_c
  00436	48 8d 05 00 00
	00 00		 lea	 rax, OFFSET FLAT:$SG160714
  0043d	48 89 84 24 c0
	01 00 00	 mov	 QWORD PTR tv212[rsp], rax
  00445	eb 0f		 jmp	 SHORT $LN66@ipending_c
$LN65@ipending_c:
  00447	48 8d 05 00 00
	00 00		 lea	 rax, OFFSET FLAT:$SG160715
  0044e	48 89 84 24 c0
	01 00 00	 mov	 QWORD PTR tv212[rsp], rax
$LN66@ipending_c:
  00456	48 63 84 24 a0
	00 00 00	 movsxd	 rax, DWORD PTR i$[rsp]
  0045e	48 8b 0d 00 00
	00 00		 mov	 rcx, QWORD PTR __imp_sysblk
  00465	48 8b 84 c1 98
	0b 00 00	 mov	 rax, QWORD PTR [rcx+rax*8+2968]
  0046d	0f b7 80 3c 08
	00 00		 movzx	 eax, WORD PTR [rax+2108]
  00474	89 84 24 b8 01
	00 00		 mov	 DWORD PTR tv219[rsp], eax
  0047b	48 63 8c 24 a0
	00 00 00	 movsxd	 rcx, DWORD PTR i$[rsp]
  00483	48 8b 15 00 00
	00 00		 mov	 rdx, QWORD PTR __imp_sysblk
  0048a	48 8b 8c ca 98
	0b 00 00	 mov	 rcx, QWORD PTR [rdx+rcx*8+2968]
  00492	0f b7 89 3c 08
	00 00		 movzx	 ecx, WORD PTR [rcx+2108]
  00499	48 8b 15 00 00
	00 00		 mov	 rdx, QWORD PTR __imp_sysblk
  004a0	0f b6 8c 0a 48
	0b 00 00	 movzx	 ecx, BYTE PTR [rdx+rcx+2888]
  004a8	ff 15 00 00 00
	00		 call	 QWORD PTR __imp_ptyp2short
  004ae	48 89 84 24 00
	03 00 00	 mov	 QWORD PTR tv221[rsp], rax
  004b6	b9 01 00 00 00	 mov	 ecx, 1
  004bb	ff 15 00 00 00
	00		 call	 QWORD PTR __imp___acrt_iob_func
  004c1	48 8b 8c 24 c0
	01 00 00	 mov	 rcx, QWORD PTR tv212[rsp]
  004c9	48 89 4c 24 48	 mov	 QWORD PTR [rsp+72], rcx
  004ce	8b 8c 24 b8 01
	00 00		 mov	 ecx, DWORD PTR tv219[rsp]
  004d5	89 4c 24 40	 mov	 DWORD PTR [rsp+64], ecx
  004d9	48 8b 8c 24 00
	03 00 00	 mov	 rcx, QWORD PTR tv221[rsp]
  004e1	48 89 4c 24 38	 mov	 QWORD PTR [rsp+56], rcx
  004e6	48 8d 0d 00 00
	00 00		 lea	 rcx, OFFSET FLAT:$SG160716
  004ed	48 89 4c 24 30	 mov	 QWORD PTR [rsp+48], rcx
  004f2	48 8d 0d 00 00
	00 00		 lea	 rcx, OFFSET FLAT:$SG160717
  004f9	48 89 4c 24 28	 mov	 QWORD PTR [rsp+40], rcx
  004fe	48 89 44 24 20	 mov	 QWORD PTR [rsp+32], rax
  00503	41 b9 03 00 00
	00		 mov	 r9d, 3
  00509	4c 8d 05 00 00
	00 00		 lea	 r8, OFFSET FLAT:$SG160718
  00510	ba fa 07 00 00	 mov	 edx, 2042		; 000007faH
  00515	48 8d 0d 00 00
	00 00		 lea	 rcx, OFFSET FLAT:$SG160719
  0051c	ff 15 00 00 00
	00		 call	 QWORD PTR __imp_fwritemsg

; 2042 :                               IS_IC_INTERRUPT(sysblk.regs[i]) ? "" : "not ");
; 2043 :         WRMSG( HHC00852, "I", PTYPSTR(sysblk.regs[i]->cpuad), sysblk.regs[i]->cpuad,

  00522	48 8b 05 00 00
	00 00		 mov	 rax, QWORD PTR __imp_sysblk
  00529	8b 80 a0 12 00
	00		 mov	 eax, DWORD PTR [rax+4768]
  0052f	25 00 00 00 40	 and	 eax, 1073741824		; 40000000H
  00534	85 c0		 test	 eax, eax
  00536	74 11		 je	 SHORT $LN67@ipending_c
  00538	48 8d 05 00 00
	00 00		 lea	 rax, OFFSET FLAT:$SG160720
  0053f	48 89 84 24 c8
	01 00 00	 mov	 QWORD PTR tv245[rsp], rax
  00547	eb 0f		 jmp	 SHORT $LN68@ipending_c
$LN67@ipending_c:
  00549	48 8d 05 00 00
	00 00		 lea	 rax, OFFSET FLAT:$SG160721
  00550	48 89 84 24 c8
	01 00 00	 mov	 QWORD PTR tv245[rsp], rax
$LN68@ipending_c:
  00558	48 63 84 24 a0
	00 00 00	 movsxd	 rax, DWORD PTR i$[rsp]
  00560	48 8b 0d 00 00
	00 00		 mov	 rcx, QWORD PTR __imp_sysblk
  00567	48 8b 84 c1 98
	0b 00 00	 mov	 rax, QWORD PTR [rcx+rax*8+2968]
  0056f	0f b7 80 3c 08
	00 00		 movzx	 eax, WORD PTR [rax+2108]
  00576	89 84 24 10 01
	00 00		 mov	 DWORD PTR tv252[rsp], eax
  0057d	48 63 8c 24 a0
	00 00 00	 movsxd	 rcx, DWORD PTR i$[rsp]
  00585	48 8b 15 00 00
	00 00		 mov	 rdx, QWORD PTR __imp_sysblk
  0058c	48 8b 8c ca 98
	0b 00 00	 mov	 rcx, QWORD PTR [rdx+rcx*8+2968]
  00594	0f b7 89 3c 08
	00 00		 movzx	 ecx, WORD PTR [rcx+2108]
  0059b	48 8b 15 00 00
	00 00		 mov	 rdx, QWORD PTR __imp_sysblk
  005a2	0f b6 8c 0a 48
	0b 00 00	 movzx	 ecx, BYTE PTR [rdx+rcx+2888]
  005aa	ff 15 00 00 00
	00		 call	 QWORD PTR __imp_ptyp2short
  005b0	48 89 84 24 08
	03 00 00	 mov	 QWORD PTR tv254[rsp], rax
  005b8	b9 01 00 00 00	 mov	 ecx, 1
  005bd	ff 15 00 00 00
	00		 call	 QWORD PTR __imp___acrt_iob_func
  005c3	48 8b 8c 24 c8
	01 00 00	 mov	 rcx, QWORD PTR tv245[rsp]
  005cb	48 89 4c 24 48	 mov	 QWORD PTR [rsp+72], rcx
  005d0	8b 8c 24 10 01
	00 00		 mov	 ecx, DWORD PTR tv252[rsp]
  005d7	89 4c 24 40	 mov	 DWORD PTR [rsp+64], ecx
  005db	48 8b 8c 24 08
	03 00 00	 mov	 rcx, QWORD PTR tv254[rsp]
  005e3	48 89 4c 24 38	 mov	 QWORD PTR [rsp+56], rcx
  005e8	48 8d 0d 00 00
	00 00		 lea	 rcx, OFFSET FLAT:$SG160722
  005ef	48 89 4c 24 30	 mov	 QWORD PTR [rsp+48], rcx
  005f4	48 8d 0d 00 00
	00 00		 lea	 rcx, OFFSET FLAT:$SG160723
  005fb	48 89 4c 24 28	 mov	 QWORD PTR [rsp+40], rcx
  00600	48 89 44 24 20	 mov	 QWORD PTR [rsp+32], rax
  00605	41 b9 03 00 00
	00		 mov	 r9d, 3
  0060b	4c 8d 05 00 00
	00 00		 lea	 r8, OFFSET FLAT:$SG160724
  00612	ba fc 07 00 00	 mov	 edx, 2044		; 000007fcH
  00617	48 8d 0d 00 00
	00 00		 lea	 rcx, OFFSET FLAT:$SG160725
  0061e	ff 15 00 00 00
	00		 call	 QWORD PTR __imp_fwritemsg

; 2044 :                               IS_IC_IOPENDING                 ? "" : "not ");
; 2045 :         WRMSG( HHC00853, "I", PTYPSTR(sysblk.regs[i]->cpuad), sysblk.regs[i]->cpuad,

  00624	48 63 84 24 a0
	00 00 00	 movsxd	 rax, DWORD PTR i$[rsp]
  0062c	48 8b 0d 00 00
	00 00		 mov	 rcx, QWORD PTR __imp_sysblk
  00633	48 8b 84 c1 98
	0b 00 00	 mov	 rax, QWORD PTR [rcx+rax*8+2968]
  0063b	8b 40 48	 mov	 eax, DWORD PTR [rax+72]
  0063e	25 00 08 00 00	 and	 eax, 2048		; 00000800H
  00643	85 c0		 test	 eax, eax
  00645	74 11		 je	 SHORT $LN69@ipending_c
  00647	48 8d 05 00 00
	00 00		 lea	 rax, OFFSET FLAT:$SG160726
  0064e	48 89 84 24 d0
	01 00 00	 mov	 QWORD PTR tv282[rsp], rax
  00656	eb 0f		 jmp	 SHORT $LN70@ipending_c
$LN69@ipending_c:
  00658	48 8d 05 00 00
	00 00		 lea	 rax, OFFSET FLAT:$SG160727
  0065f	48 89 84 24 d0
	01 00 00	 mov	 QWORD PTR tv282[rsp], rax
$LN70@ipending_c:
  00667	48 63 84 24 a0
	00 00 00	 movsxd	 rax, DWORD PTR i$[rsp]
  0066f	48 8b 0d 00 00
	00 00		 mov	 rcx, QWORD PTR __imp_sysblk
  00676	48 8b 84 c1 98
	0b 00 00	 mov	 rax, QWORD PTR [rcx+rax*8+2968]
  0067e	0f b7 80 3c 08
	00 00		 movzx	 eax, WORD PTR [rax+2108]
  00685	89 84 24 14 01
	00 00		 mov	 DWORD PTR tv289[rsp], eax
  0068c	48 63 8c 24 a0
	00 00 00	 movsxd	 rcx, DWORD PTR i$[rsp]
  00694	48 8b 15 00 00
	00 00		 mov	 rdx, QWORD PTR __imp_sysblk
  0069b	48 8b 8c ca 98
	0b 00 00	 mov	 rcx, QWORD PTR [rdx+rcx*8+2968]
  006a3	0f b7 89 3c 08
	00 00		 movzx	 ecx, WORD PTR [rcx+2108]
  006aa	48 8b 15 00 00
	00 00		 mov	 rdx, QWORD PTR __imp_sysblk
  006b1	0f b6 8c 0a 48
	0b 00 00	 movzx	 ecx, BYTE PTR [rdx+rcx+2888]
  006b9	ff 15 00 00 00
	00		 call	 QWORD PTR __imp_ptyp2short
  006bf	48 89 84 24 10
	03 00 00	 mov	 QWORD PTR tv291[rsp], rax
  006c7	b9 01 00 00 00	 mov	 ecx, 1
  006cc	ff 15 00 00 00
	00		 call	 QWORD PTR __imp___acrt_iob_func
  006d2	48 8b 8c 24 d0
	01 00 00	 mov	 rcx, QWORD PTR tv282[rsp]
  006da	48 89 4c 24 48	 mov	 QWORD PTR [rsp+72], rcx
  006df	8b 8c 24 14 01
	00 00		 mov	 ecx, DWORD PTR tv289[rsp]
  006e6	89 4c 24 40	 mov	 DWORD PTR [rsp+64], ecx
  006ea	48 8b 8c 24 10
	03 00 00	 mov	 rcx, QWORD PTR tv291[rsp]
  006f2	48 89 4c 24 38	 mov	 QWORD PTR [rsp+56], rcx
  006f7	48 8d 0d 00 00
	00 00		 lea	 rcx, OFFSET FLAT:$SG160728
  006fe	48 89 4c 24 30	 mov	 QWORD PTR [rsp+48], rcx
  00703	48 8d 0d 00 00
	00 00		 lea	 rcx, OFFSET FLAT:$SG160729
  0070a	48 89 4c 24 28	 mov	 QWORD PTR [rsp+40], rcx
  0070f	48 89 44 24 20	 mov	 QWORD PTR [rsp+32], rax
  00714	41 b9 03 00 00
	00		 mov	 r9d, 3
  0071a	4c 8d 05 00 00
	00 00		 lea	 r8, OFFSET FLAT:$SG160730
  00721	ba fe 07 00 00	 mov	 edx, 2046		; 000007feH
  00726	48 8d 0d 00 00
	00 00		 lea	 rcx, OFFSET FLAT:$SG160731
  0072d	ff 15 00 00 00
	00		 call	 QWORD PTR __imp_fwritemsg

; 2046 :                               IS_IC_CLKC(sysblk.regs[i])      ? "" : "not ");
; 2047 :         WRMSG( HHC00854, "I", PTYPSTR(sysblk.regs[i]->cpuad), sysblk.regs[i]->cpuad,

  00733	48 63 84 24 a0
	00 00 00	 movsxd	 rax, DWORD PTR i$[rsp]
  0073b	48 8b 0d 00 00
	00 00		 mov	 rcx, QWORD PTR __imp_sysblk
  00742	48 8b 84 c1 98
	0b 00 00	 mov	 rax, QWORD PTR [rcx+rax*8+2968]
  0074a	8b 40 48	 mov	 eax, DWORD PTR [rax+72]
  0074d	25 00 04 00 00	 and	 eax, 1024		; 00000400H
  00752	85 c0		 test	 eax, eax
  00754	74 11		 je	 SHORT $LN71@ipending_c
  00756	48 8d 05 00 00
	00 00		 lea	 rax, OFFSET FLAT:$SG160732
  0075d	48 89 84 24 d8
	01 00 00	 mov	 QWORD PTR tv319[rsp], rax
  00765	eb 0f		 jmp	 SHORT $LN72@ipending_c
$LN71@ipending_c:
  00767	48 8d 05 00 00
	00 00		 lea	 rax, OFFSET FLAT:$SG160733
  0076e	48 89 84 24 d8
	01 00 00	 mov	 QWORD PTR tv319[rsp], rax
$LN72@ipending_c:
  00776	48 63 84 24 a0
	00 00 00	 movsxd	 rax, DWORD PTR i$[rsp]
  0077e	48 8b 0d 00 00
	00 00		 mov	 rcx, QWORD PTR __imp_sysblk
  00785	48 8b 84 c1 98
	0b 00 00	 mov	 rax, QWORD PTR [rcx+rax*8+2968]
  0078d	0f b7 80 3c 08
	00 00		 movzx	 eax, WORD PTR [rax+2108]
  00794	89 84 24 18 01
	00 00		 mov	 DWORD PTR tv358[rsp], eax
  0079b	48 63 8c 24 a0
	00 00 00	 movsxd	 rcx, DWORD PTR i$[rsp]
  007a3	48 8b 15 00 00
	00 00		 mov	 rdx, QWORD PTR __imp_sysblk
  007aa	48 8b 8c ca 98
	0b 00 00	 mov	 rcx, QWORD PTR [rdx+rcx*8+2968]
  007b2	0f b7 89 3c 08
	00 00		 movzx	 ecx, WORD PTR [rcx+2108]
  007b9	48 8b 15 00 00
	00 00		 mov	 rdx, QWORD PTR __imp_sysblk
  007c0	0f b6 8c 0a 48
	0b 00 00	 movzx	 ecx, BYTE PTR [rdx+rcx+2888]
  007c8	ff 15 00 00 00
	00		 call	 QWORD PTR __imp_ptyp2short
  007ce	48 89 84 24 18
	03 00 00	 mov	 QWORD PTR tv360[rsp], rax
  007d6	b9 01 00 00 00	 mov	 ecx, 1
  007db	ff 15 00 00 00
	00		 call	 QWORD PTR __imp___acrt_iob_func
  007e1	48 8b 8c 24 d8
	01 00 00	 mov	 rcx, QWORD PTR tv319[rsp]
  007e9	48 89 4c 24 48	 mov	 QWORD PTR [rsp+72], rcx
  007ee	8b 8c 24 18 01
	00 00		 mov	 ecx, DWORD PTR tv358[rsp]
  007f5	89 4c 24 40	 mov	 DWORD PTR [rsp+64], ecx
  007f9	48 8b 8c 24 18
	03 00 00	 mov	 rcx, QWORD PTR tv360[rsp]
  00801	48 89 4c 24 38	 mov	 QWORD PTR [rsp+56], rcx
  00806	48 8d 0d 00 00
	00 00		 lea	 rcx, OFFSET FLAT:$SG160734
  0080d	48 89 4c 24 30	 mov	 QWORD PTR [rsp+48], rcx
  00812	48 8d 0d 00 00
	00 00		 lea	 rcx, OFFSET FLAT:$SG160735
  00819	48 89 4c 24 28	 mov	 QWORD PTR [rsp+40], rcx
  0081e	48 89 44 24 20	 mov	 QWORD PTR [rsp+32], rax
  00823	41 b9 03 00 00
	00		 mov	 r9d, 3
  00829	4c 8d 05 00 00
	00 00		 lea	 r8, OFFSET FLAT:$SG160736
  00830	ba 00 08 00 00	 mov	 edx, 2048		; 00000800H
  00835	48 8d 0d 00 00
	00 00		 lea	 rcx, OFFSET FLAT:$SG160737
  0083c	ff 15 00 00 00
	00		 call	 QWORD PTR __imp_fwritemsg

; 2048 :                               IS_IC_PTIMER(sysblk.regs[i])    ? "" : "not ");
; 2049 : 
; 2050 : #if defined(_FEATURE_INTERVAL_TIMER)
; 2051 :         WRMSG( HHC00855, "I", PTYPSTR(sysblk.regs[i]->cpuad), sysblk.regs[i]->cpuad,

  00842	48 63 84 24 a0
	00 00 00	 movsxd	 rax, DWORD PTR i$[rsp]
  0084a	48 8b 0d 00 00
	00 00		 mov	 rcx, QWORD PTR __imp_sysblk
  00851	48 8b 84 c1 98
	0b 00 00	 mov	 rax, QWORD PTR [rcx+rax*8+2968]
  00859	8b 40 48	 mov	 eax, DWORD PTR [rax+72]
  0085c	25 80 00 00 00	 and	 eax, 128		; 00000080H
  00861	85 c0		 test	 eax, eax
  00863	74 11		 je	 SHORT $LN73@ipending_c
  00865	48 8d 05 00 00
	00 00		 lea	 rax, OFFSET FLAT:$SG160738
  0086c	48 89 84 24 e0
	01 00 00	 mov	 QWORD PTR tv388[rsp], rax
  00874	eb 0f		 jmp	 SHORT $LN74@ipending_c
$LN73@ipending_c:
  00876	48 8d 05 00 00
	00 00		 lea	 rax, OFFSET FLAT:$SG160739
  0087d	48 89 84 24 e0
	01 00 00	 mov	 QWORD PTR tv388[rsp], rax
$LN74@ipending_c:
  00885	48 63 84 24 a0
	00 00 00	 movsxd	 rax, DWORD PTR i$[rsp]
  0088d	48 8b 0d 00 00
	00 00		 mov	 rcx, QWORD PTR __imp_sysblk
  00894	48 8b 84 c1 98
	0b 00 00	 mov	 rax, QWORD PTR [rcx+rax*8+2968]
  0089c	0f b7 80 3c 08
	00 00		 movzx	 eax, WORD PTR [rax+2108]
  008a3	89 84 24 1c 01
	00 00		 mov	 DWORD PTR tv395[rsp], eax
  008aa	48 63 8c 24 a0
	00 00 00	 movsxd	 rcx, DWORD PTR i$[rsp]
  008b2	48 8b 15 00 00
	00 00		 mov	 rdx, QWORD PTR __imp_sysblk
  008b9	48 8b 8c ca 98
	0b 00 00	 mov	 rcx, QWORD PTR [rdx+rcx*8+2968]
  008c1	0f b7 89 3c 08
	00 00		 movzx	 ecx, WORD PTR [rcx+2108]
  008c8	48 8b 15 00 00
	00 00		 mov	 rdx, QWORD PTR __imp_sysblk
  008cf	0f b6 8c 0a 48
	0b 00 00	 movzx	 ecx, BYTE PTR [rdx+rcx+2888]
  008d7	ff 15 00 00 00
	00		 call	 QWORD PTR __imp_ptyp2short
  008dd	48 89 84 24 20
	03 00 00	 mov	 QWORD PTR tv397[rsp], rax
  008e5	b9 01 00 00 00	 mov	 ecx, 1
  008ea	ff 15 00 00 00
	00		 call	 QWORD PTR __imp___acrt_iob_func
  008f0	48 8b 8c 24 e0
	01 00 00	 mov	 rcx, QWORD PTR tv388[rsp]
  008f8	48 89 4c 24 48	 mov	 QWORD PTR [rsp+72], rcx
  008fd	8b 8c 24 1c 01
	00 00		 mov	 ecx, DWORD PTR tv395[rsp]
  00904	89 4c 24 40	 mov	 DWORD PTR [rsp+64], ecx
  00908	48 8b 8c 24 20
	03 00 00	 mov	 rcx, QWORD PTR tv397[rsp]
  00910	48 89 4c 24 38	 mov	 QWORD PTR [rsp+56], rcx
  00915	48 8d 0d 00 00
	00 00		 lea	 rcx, OFFSET FLAT:$SG160740
  0091c	48 89 4c 24 30	 mov	 QWORD PTR [rsp+48], rcx
  00921	48 8d 0d 00 00
	00 00		 lea	 rcx, OFFSET FLAT:$SG160741
  00928	48 89 4c 24 28	 mov	 QWORD PTR [rsp+40], rcx
  0092d	48 89 44 24 20	 mov	 QWORD PTR [rsp+32], rax
  00932	41 b9 03 00 00
	00		 mov	 r9d, 3
  00938	4c 8d 05 00 00
	00 00		 lea	 r8, OFFSET FLAT:$SG160742
  0093f	ba 04 08 00 00	 mov	 edx, 2052		; 00000804H
  00944	48 8d 0d 00 00
	00 00		 lea	 rcx, OFFSET FLAT:$SG160743
  0094b	ff 15 00 00 00
	00		 call	 QWORD PTR __imp_fwritemsg

; 2052 :                               IS_IC_ITIMER(sysblk.regs[i])    ? "" : "not ");
; 2053 : #if defined(_FEATURE_ECPSVM)
; 2054 :         WRMSG( HHC00856, "I", PTYPSTR(sysblk.regs[i]->cpuad), sysblk.regs[i]->cpuad,

  00951	48 63 84 24 a0
	00 00 00	 movsxd	 rax, DWORD PTR i$[rsp]
  00959	48 8b 0d 00 00
	00 00		 mov	 rcx, QWORD PTR __imp_sysblk
  00960	48 8b 84 c1 98
	0b 00 00	 mov	 rax, QWORD PTR [rcx+rax*8+2968]
  00968	8b 40 48	 mov	 eax, DWORD PTR [rax+72]
  0096b	25 00 01 00 00	 and	 eax, 256		; 00000100H
  00970	85 c0		 test	 eax, eax
  00972	74 11		 je	 SHORT $LN75@ipending_c
  00974	48 8d 05 00 00
	00 00		 lea	 rax, OFFSET FLAT:$SG160744
  0097b	48 89 84 24 e8
	01 00 00	 mov	 QWORD PTR tv425[rsp], rax
  00983	eb 0f		 jmp	 SHORT $LN76@ipending_c
$LN75@ipending_c:
  00985	48 8d 05 00 00
	00 00		 lea	 rax, OFFSET FLAT:$SG160745
  0098c	48 89 84 24 e8
	01 00 00	 mov	 QWORD PTR tv425[rsp], rax
$LN76@ipending_c:
  00994	48 63 84 24 a0
	00 00 00	 movsxd	 rax, DWORD PTR i$[rsp]
  0099c	48 8b 0d 00 00
	00 00		 mov	 rcx, QWORD PTR __imp_sysblk
  009a3	48 8b 84 c1 98
	0b 00 00	 mov	 rax, QWORD PTR [rcx+rax*8+2968]
  009ab	0f b7 80 3c 08
	00 00		 movzx	 eax, WORD PTR [rax+2108]
  009b2	89 84 24 20 01
	00 00		 mov	 DWORD PTR tv432[rsp], eax
  009b9	48 63 8c 24 a0
	00 00 00	 movsxd	 rcx, DWORD PTR i$[rsp]
  009c1	48 8b 15 00 00
	00 00		 mov	 rdx, QWORD PTR __imp_sysblk
  009c8	48 8b 8c ca 98
	0b 00 00	 mov	 rcx, QWORD PTR [rdx+rcx*8+2968]
  009d0	0f b7 89 3c 08
	00 00		 movzx	 ecx, WORD PTR [rcx+2108]
  009d7	48 8b 15 00 00
	00 00		 mov	 rdx, QWORD PTR __imp_sysblk
  009de	0f b6 8c 0a 48
	0b 00 00	 movzx	 ecx, BYTE PTR [rdx+rcx+2888]
  009e6	ff 15 00 00 00
	00		 call	 QWORD PTR __imp_ptyp2short
  009ec	48 89 84 24 28
	03 00 00	 mov	 QWORD PTR tv434[rsp], rax
  009f4	b9 01 00 00 00	 mov	 ecx, 1
  009f9	ff 15 00 00 00
	00		 call	 QWORD PTR __imp___acrt_iob_func
  009ff	48 8b 8c 24 e8
	01 00 00	 mov	 rcx, QWORD PTR tv425[rsp]
  00a07	48 89 4c 24 48	 mov	 QWORD PTR [rsp+72], rcx
  00a0c	8b 8c 24 20 01
	00 00		 mov	 ecx, DWORD PTR tv432[rsp]
  00a13	89 4c 24 40	 mov	 DWORD PTR [rsp+64], ecx
  00a17	48 8b 8c 24 28
	03 00 00	 mov	 rcx, QWORD PTR tv434[rsp]
  00a1f	48 89 4c 24 38	 mov	 QWORD PTR [rsp+56], rcx
  00a24	48 8d 0d 00 00
	00 00		 lea	 rcx, OFFSET FLAT:$SG160746
  00a2b	48 89 4c 24 30	 mov	 QWORD PTR [rsp+48], rcx
  00a30	48 8d 0d 00 00
	00 00		 lea	 rcx, OFFSET FLAT:$SG160747
  00a37	48 89 4c 24 28	 mov	 QWORD PTR [rsp+40], rcx
  00a3c	48 89 44 24 20	 mov	 QWORD PTR [rsp+32], rax
  00a41	41 b9 03 00 00
	00		 mov	 r9d, 3
  00a47	4c 8d 05 00 00
	00 00		 lea	 r8, OFFSET FLAT:$SG160748
  00a4e	ba 07 08 00 00	 mov	 edx, 2055		; 00000807H
  00a53	48 8d 0d 00 00
	00 00		 lea	 rcx, OFFSET FLAT:$SG160749
  00a5a	ff 15 00 00 00
	00		 call	 QWORD PTR __imp_fwritemsg

; 2055 :                               IS_IC_ECPSVTIMER(sysblk.regs[i])? "" : "not ");
; 2056 : #endif /*defined(_FEATURE_ECPSVM)*/
; 2057 : #endif /*defined(_FEATURE_INTERVAL_TIMER)*/
; 2058 :         WRMSG( HHC00857, "I", PTYPSTR(sysblk.regs[i]->cpuad), sysblk.regs[i]->cpuad,

  00a60	48 63 84 24 a0
	00 00 00	 movsxd	 rax, DWORD PTR i$[rsp]
  00a68	48 8b 0d 00 00
	00 00		 mov	 rcx, QWORD PTR __imp_sysblk
  00a6f	48 8b 84 c1 98
	0b 00 00	 mov	 rax, QWORD PTR [rcx+rax*8+2968]
  00a77	8b 40 48	 mov	 eax, DWORD PTR [rax+72]
  00a7a	25 00 20 00 00	 and	 eax, 8192		; 00002000H
  00a7f	85 c0		 test	 eax, eax
  00a81	74 11		 je	 SHORT $LN77@ipending_c
  00a83	48 8d 05 00 00
	00 00		 lea	 rax, OFFSET FLAT:$SG160750
  00a8a	48 89 84 24 f0
	01 00 00	 mov	 QWORD PTR tv462[rsp], rax
  00a92	eb 0f		 jmp	 SHORT $LN78@ipending_c
$LN77@ipending_c:
  00a94	48 8d 05 00 00
	00 00		 lea	 rax, OFFSET FLAT:$SG160751
  00a9b	48 89 84 24 f0
	01 00 00	 mov	 QWORD PTR tv462[rsp], rax
$LN78@ipending_c:
  00aa3	48 63 84 24 a0
	00 00 00	 movsxd	 rax, DWORD PTR i$[rsp]
  00aab	48 8b 0d 00 00
	00 00		 mov	 rcx, QWORD PTR __imp_sysblk
  00ab2	48 8b 84 c1 98
	0b 00 00	 mov	 rax, QWORD PTR [rcx+rax*8+2968]
  00aba	0f b7 80 3c 08
	00 00		 movzx	 eax, WORD PTR [rax+2108]
  00ac1	89 84 24 24 01
	00 00		 mov	 DWORD PTR tv469[rsp], eax
  00ac8	48 63 8c 24 a0
	00 00 00	 movsxd	 rcx, DWORD PTR i$[rsp]
  00ad0	48 8b 15 00 00
	00 00		 mov	 rdx, QWORD PTR __imp_sysblk
  00ad7	48 8b 8c ca 98
	0b 00 00	 mov	 rcx, QWORD PTR [rdx+rcx*8+2968]
  00adf	0f b7 89 3c 08
	00 00		 movzx	 ecx, WORD PTR [rcx+2108]
  00ae6	48 8b 15 00 00
	00 00		 mov	 rdx, QWORD PTR __imp_sysblk
  00aed	0f b6 8c 0a 48
	0b 00 00	 movzx	 ecx, BYTE PTR [rdx+rcx+2888]
  00af5	ff 15 00 00 00
	00		 call	 QWORD PTR __imp_ptyp2short
  00afb	48 89 84 24 30
	03 00 00	 mov	 QWORD PTR tv471[rsp], rax
  00b03	b9 01 00 00 00	 mov	 ecx, 1
  00b08	ff 15 00 00 00
	00		 call	 QWORD PTR __imp___acrt_iob_func
  00b0e	48 8b 8c 24 f0
	01 00 00	 mov	 rcx, QWORD PTR tv462[rsp]
  00b16	48 89 4c 24 48	 mov	 QWORD PTR [rsp+72], rcx
  00b1b	8b 8c 24 24 01
	00 00		 mov	 ecx, DWORD PTR tv469[rsp]
  00b22	89 4c 24 40	 mov	 DWORD PTR [rsp+64], ecx
  00b26	48 8b 8c 24 30
	03 00 00	 mov	 rcx, QWORD PTR tv471[rsp]
  00b2e	48 89 4c 24 38	 mov	 QWORD PTR [rsp+56], rcx
  00b33	48 8d 0d 00 00
	00 00		 lea	 rcx, OFFSET FLAT:$SG160752
  00b3a	48 89 4c 24 30	 mov	 QWORD PTR [rsp+48], rcx
  00b3f	48 8d 0d 00 00
	00 00		 lea	 rcx, OFFSET FLAT:$SG160753
  00b46	48 89 4c 24 28	 mov	 QWORD PTR [rsp+40], rcx
  00b4b	48 89 44 24 20	 mov	 QWORD PTR [rsp+32], rax
  00b50	41 b9 03 00 00
	00		 mov	 r9d, 3
  00b56	4c 8d 05 00 00
	00 00		 lea	 r8, OFFSET FLAT:$SG160754
  00b5d	ba 0b 08 00 00	 mov	 edx, 2059		; 0000080bH
  00b62	48 8d 0d 00 00
	00 00		 lea	 rcx, OFFSET FLAT:$SG160755
  00b69	ff 15 00 00 00
	00		 call	 QWORD PTR __imp_fwritemsg

; 2059 :                               IS_IC_EXTCALL(sysblk.regs[i]) ? "" : "not ");
; 2060 :         WRMSG( HHC00858, "I", PTYPSTR(sysblk.regs[i]->cpuad), sysblk.regs[i]->cpuad,

  00b6f	48 63 84 24 a0
	00 00 00	 movsxd	 rax, DWORD PTR i$[rsp]
  00b77	48 8b 0d 00 00
	00 00		 mov	 rcx, QWORD PTR __imp_sysblk
  00b7e	48 8b 84 c1 98
	0b 00 00	 mov	 rax, QWORD PTR [rcx+rax*8+2968]
  00b86	8b 40 48	 mov	 eax, DWORD PTR [rax+72]
  00b89	25 00 40 00 00	 and	 eax, 16384		; 00004000H
  00b8e	85 c0		 test	 eax, eax
  00b90	74 11		 je	 SHORT $LN79@ipending_c
  00b92	48 8d 05 00 00
	00 00		 lea	 rax, OFFSET FLAT:$SG160756
  00b99	48 89 84 24 f8
	01 00 00	 mov	 QWORD PTR tv499[rsp], rax
  00ba1	eb 0f		 jmp	 SHORT $LN80@ipending_c
$LN79@ipending_c:
  00ba3	48 8d 05 00 00
	00 00		 lea	 rax, OFFSET FLAT:$SG160757
  00baa	48 89 84 24 f8
	01 00 00	 mov	 QWORD PTR tv499[rsp], rax
$LN80@ipending_c:
  00bb2	48 63 84 24 a0
	00 00 00	 movsxd	 rax, DWORD PTR i$[rsp]
  00bba	48 8b 0d 00 00
	00 00		 mov	 rcx, QWORD PTR __imp_sysblk
  00bc1	48 8b 84 c1 98
	0b 00 00	 mov	 rax, QWORD PTR [rcx+rax*8+2968]
  00bc9	0f b7 80 3c 08
	00 00		 movzx	 eax, WORD PTR [rax+2108]
  00bd0	89 84 24 28 01
	00 00		 mov	 DWORD PTR tv506[rsp], eax
  00bd7	48 63 8c 24 a0
	00 00 00	 movsxd	 rcx, DWORD PTR i$[rsp]
  00bdf	48 8b 15 00 00
	00 00		 mov	 rdx, QWORD PTR __imp_sysblk
  00be6	48 8b 8c ca 98
	0b 00 00	 mov	 rcx, QWORD PTR [rdx+rcx*8+2968]
  00bee	0f b7 89 3c 08
	00 00		 movzx	 ecx, WORD PTR [rcx+2108]
  00bf5	48 8b 15 00 00
	00 00		 mov	 rdx, QWORD PTR __imp_sysblk
  00bfc	0f b6 8c 0a 48
	0b 00 00	 movzx	 ecx, BYTE PTR [rdx+rcx+2888]
  00c04	ff 15 00 00 00
	00		 call	 QWORD PTR __imp_ptyp2short
  00c0a	48 89 84 24 38
	03 00 00	 mov	 QWORD PTR tv508[rsp], rax
  00c12	b9 01 00 00 00	 mov	 ecx, 1
  00c17	ff 15 00 00 00
	00		 call	 QWORD PTR __imp___acrt_iob_func
  00c1d	48 8b 8c 24 f8
	01 00 00	 mov	 rcx, QWORD PTR tv499[rsp]
  00c25	48 89 4c 24 48	 mov	 QWORD PTR [rsp+72], rcx
  00c2a	8b 8c 24 28 01
	00 00		 mov	 ecx, DWORD PTR tv506[rsp]
  00c31	89 4c 24 40	 mov	 DWORD PTR [rsp+64], ecx
  00c35	48 8b 8c 24 38
	03 00 00	 mov	 rcx, QWORD PTR tv508[rsp]
  00c3d	48 89 4c 24 38	 mov	 QWORD PTR [rsp+56], rcx
  00c42	48 8d 0d 00 00
	00 00		 lea	 rcx, OFFSET FLAT:$SG160758
  00c49	48 89 4c 24 30	 mov	 QWORD PTR [rsp+48], rcx
  00c4e	48 8d 0d 00 00
	00 00		 lea	 rcx, OFFSET FLAT:$SG160759
  00c55	48 89 4c 24 28	 mov	 QWORD PTR [rsp+40], rcx
  00c5a	48 89 44 24 20	 mov	 QWORD PTR [rsp+32], rax
  00c5f	41 b9 03 00 00
	00		 mov	 r9d, 3
  00c65	4c 8d 05 00 00
	00 00		 lea	 r8, OFFSET FLAT:$SG160760
  00c6c	ba 0d 08 00 00	 mov	 edx, 2061		; 0000080dH
  00c71	48 8d 0d 00 00
	00 00		 lea	 rcx, OFFSET FLAT:$SG160761
  00c78	ff 15 00 00 00
	00		 call	 QWORD PTR __imp_fwritemsg

; 2061 :                               IS_IC_EMERSIG(sysblk.regs[i]) ? "" : "not ");
; 2062 :         WRMSG( HHC00859, "I", PTYPSTR(sysblk.regs[i]->cpuad), sysblk.regs[i]->cpuad,

  00c7e	48 63 84 24 a0
	00 00 00	 movsxd	 rax, DWORD PTR i$[rsp]
  00c86	48 8b 0d 00 00
	00 00		 mov	 rcx, QWORD PTR __imp_sysblk
  00c8d	48 8b 84 c1 98
	0b 00 00	 mov	 rax, QWORD PTR [rcx+rax*8+2968]
  00c95	8b 40 48	 mov	 eax, DWORD PTR [rax+72]
  00c98	25 00 00 00 1f	 and	 eax, 520093696		; 1f000000H
  00c9d	85 c0		 test	 eax, eax
  00c9f	74 11		 je	 SHORT $LN81@ipending_c
  00ca1	48 8d 05 00 00
	00 00		 lea	 rax, OFFSET FLAT:$SG160762
  00ca8	48 89 84 24 00
	02 00 00	 mov	 QWORD PTR tv536[rsp], rax
  00cb0	eb 0f		 jmp	 SHORT $LN82@ipending_c
$LN81@ipending_c:
  00cb2	48 8d 05 00 00
	00 00		 lea	 rax, OFFSET FLAT:$SG160763
  00cb9	48 89 84 24 00
	02 00 00	 mov	 QWORD PTR tv536[rsp], rax
$LN82@ipending_c:
  00cc1	48 63 84 24 a0
	00 00 00	 movsxd	 rax, DWORD PTR i$[rsp]
  00cc9	48 8b 0d 00 00
	00 00		 mov	 rcx, QWORD PTR __imp_sysblk
  00cd0	48 8b 84 c1 98
	0b 00 00	 mov	 rax, QWORD PTR [rcx+rax*8+2968]
  00cd8	0f b7 80 3c 08
	00 00		 movzx	 eax, WORD PTR [rax+2108]
  00cdf	89 84 24 2c 01
	00 00		 mov	 DWORD PTR tv543[rsp], eax
  00ce6	48 63 8c 24 a0
	00 00 00	 movsxd	 rcx, DWORD PTR i$[rsp]
  00cee	48 8b 15 00 00
	00 00		 mov	 rdx, QWORD PTR __imp_sysblk
  00cf5	48 8b 8c ca 98
	0b 00 00	 mov	 rcx, QWORD PTR [rdx+rcx*8+2968]
  00cfd	0f b7 89 3c 08
	00 00		 movzx	 ecx, WORD PTR [rcx+2108]
  00d04	48 8b 15 00 00
	00 00		 mov	 rdx, QWORD PTR __imp_sysblk
  00d0b	0f b6 8c 0a 48
	0b 00 00	 movzx	 ecx, BYTE PTR [rdx+rcx+2888]
  00d13	ff 15 00 00 00
	00		 call	 QWORD PTR __imp_ptyp2short
  00d19	48 89 84 24 40
	03 00 00	 mov	 QWORD PTR tv577[rsp], rax
  00d21	b9 01 00 00 00	 mov	 ecx, 1
  00d26	ff 15 00 00 00
	00		 call	 QWORD PTR __imp___acrt_iob_func
  00d2c	48 8b 8c 24 00
	02 00 00	 mov	 rcx, QWORD PTR tv536[rsp]
  00d34	48 89 4c 24 48	 mov	 QWORD PTR [rsp+72], rcx
  00d39	8b 8c 24 2c 01
	00 00		 mov	 ecx, DWORD PTR tv543[rsp]
  00d40	89 4c 24 40	 mov	 DWORD PTR [rsp+64], ecx
  00d44	48 8b 8c 24 40
	03 00 00	 mov	 rcx, QWORD PTR tv577[rsp]
  00d4c	48 89 4c 24 38	 mov	 QWORD PTR [rsp+56], rcx
  00d51	48 8d 0d 00 00
	00 00		 lea	 rcx, OFFSET FLAT:$SG160764
  00d58	48 89 4c 24 30	 mov	 QWORD PTR [rsp+48], rcx
  00d5d	48 8d 0d 00 00
	00 00		 lea	 rcx, OFFSET FLAT:$SG160765
  00d64	48 89 4c 24 28	 mov	 QWORD PTR [rsp+40], rcx
  00d69	48 89 44 24 20	 mov	 QWORD PTR [rsp+32], rax
  00d6e	41 b9 03 00 00
	00		 mov	 r9d, 3
  00d74	4c 8d 05 00 00
	00 00		 lea	 r8, OFFSET FLAT:$SG160766
  00d7b	ba 0f 08 00 00	 mov	 edx, 2063		; 0000080fH
  00d80	48 8d 0d 00 00
	00 00		 lea	 rcx, OFFSET FLAT:$SG160767
  00d87	ff 15 00 00 00
	00		 call	 QWORD PTR __imp_fwritemsg

; 2063 :                               IS_IC_MCKPENDING(sysblk.regs[i]) ? "" : "not ");
; 2064 :         WRMSG( HHC00860, "I", PTYPSTR(sysblk.regs[i]->cpuad), sysblk.regs[i]->cpuad,

  00d8d	48 8b 05 00 00
	00 00		 mov	 rax, QWORD PTR __imp_sysblk
  00d94	8b 80 a0 12 00
	00		 mov	 eax, DWORD PTR [rax+4768]
  00d9a	25 00 02 00 00	 and	 eax, 512		; 00000200H
  00d9f	85 c0		 test	 eax, eax
  00da1	74 11		 je	 SHORT $LN83@ipending_c
  00da3	48 8d 05 00 00
	00 00		 lea	 rax, OFFSET FLAT:$SG160768
  00daa	48 89 84 24 08
	02 00 00	 mov	 QWORD PTR tv601[rsp], rax
  00db2	eb 0f		 jmp	 SHORT $LN84@ipending_c
$LN83@ipending_c:
  00db4	48 8d 05 00 00
	00 00		 lea	 rax, OFFSET FLAT:$SG160769
  00dbb	48 89 84 24 08
	02 00 00	 mov	 QWORD PTR tv601[rsp], rax
$LN84@ipending_c:
  00dc3	48 63 84 24 a0
	00 00 00	 movsxd	 rax, DWORD PTR i$[rsp]
  00dcb	48 8b 0d 00 00
	00 00		 mov	 rcx, QWORD PTR __imp_sysblk
  00dd2	48 8b 84 c1 98
	0b 00 00	 mov	 rax, QWORD PTR [rcx+rax*8+2968]
  00dda	0f b7 80 3c 08
	00 00		 movzx	 eax, WORD PTR [rax+2108]
  00de1	89 84 24 30 01
	00 00		 mov	 DWORD PTR tv608[rsp], eax
  00de8	48 63 8c 24 a0
	00 00 00	 movsxd	 rcx, DWORD PTR i$[rsp]
  00df0	48 8b 15 00 00
	00 00		 mov	 rdx, QWORD PTR __imp_sysblk
  00df7	48 8b 8c ca 98
	0b 00 00	 mov	 rcx, QWORD PTR [rdx+rcx*8+2968]
  00dff	0f b7 89 3c 08
	00 00		 movzx	 ecx, WORD PTR [rcx+2108]
  00e06	48 8b 15 00 00
	00 00		 mov	 rdx, QWORD PTR __imp_sysblk
  00e0d	0f b6 8c 0a 48
	0b 00 00	 movzx	 ecx, BYTE PTR [rdx+rcx+2888]
  00e15	ff 15 00 00 00
	00		 call	 QWORD PTR __imp_ptyp2short
  00e1b	48 89 84 24 48
	03 00 00	 mov	 QWORD PTR tv610[rsp], rax
  00e23	b9 01 00 00 00	 mov	 ecx, 1
  00e28	ff 15 00 00 00
	00		 call	 QWORD PTR __imp___acrt_iob_func
  00e2e	48 8b 8c 24 08
	02 00 00	 mov	 rcx, QWORD PTR tv601[rsp]
  00e36	48 89 4c 24 48	 mov	 QWORD PTR [rsp+72], rcx
  00e3b	8b 8c 24 30 01
	00 00		 mov	 ecx, DWORD PTR tv608[rsp]
  00e42	89 4c 24 40	 mov	 DWORD PTR [rsp+64], ecx
  00e46	48 8b 8c 24 48
	03 00 00	 mov	 rcx, QWORD PTR tv610[rsp]
  00e4e	48 89 4c 24 38	 mov	 QWORD PTR [rsp+56], rcx
  00e53	48 8d 0d 00 00
	00 00		 lea	 rcx, OFFSET FLAT:$SG160770
  00e5a	48 89 4c 24 30	 mov	 QWORD PTR [rsp+48], rcx
  00e5f	48 8d 0d 00 00
	00 00		 lea	 rcx, OFFSET FLAT:$SG160771
  00e66	48 89 4c 24 28	 mov	 QWORD PTR [rsp+40], rcx
  00e6b	48 89 44 24 20	 mov	 QWORD PTR [rsp+32], rax
  00e70	41 b9 03 00 00
	00		 mov	 r9d, 3
  00e76	4c 8d 05 00 00
	00 00		 lea	 r8, OFFSET FLAT:$SG160772
  00e7d	ba 11 08 00 00	 mov	 edx, 2065		; 00000811H
  00e82	48 8d 0d 00 00
	00 00		 lea	 rcx, OFFSET FLAT:$SG160773
  00e89	ff 15 00 00 00
	00		 call	 QWORD PTR __imp_fwritemsg

; 2065 :                               IS_IC_SERVSIG ? "" : "not ");
; 2066 :         WRMSG( HHC00861, "I", PTYPSTR(sysblk.regs[i]->cpuad), sysblk.regs[i]->cpuad,

  00e8f	48 63 84 24 a0
	00 00 00	 movsxd	 rax, DWORD PTR i$[rsp]
  00e97	48 8b 0d 00 00
	00 00		 mov	 rcx, QWORD PTR __imp_sysblk
  00e9e	48 8b 84 c1 98
	0b 00 00	 mov	 rax, QWORD PTR [rcx+rax*8+2968]
  00ea6	0f b7 80 3c 08
	00 00		 movzx	 eax, WORD PTR [rax+2108]
  00ead	48 8b 0d 00 00
	00 00		 mov	 rcx, QWORD PTR __imp_sysblk
  00eb4	0f b7 89 60 10
	00 00		 movzx	 ecx, WORD PTR [rcx+4192]
  00ebb	3b c1		 cmp	 eax, ecx
  00ebd	75 11		 jne	 SHORT $LN85@ipending_c
  00ebf	48 8d 05 00 00
	00 00		 lea	 rax, OFFSET FLAT:$SG160774
  00ec6	48 89 84 24 10
	02 00 00	 mov	 QWORD PTR tv640[rsp], rax
  00ece	eb 0f		 jmp	 SHORT $LN86@ipending_c
$LN85@ipending_c:
  00ed0	48 8d 05 00 00
	00 00		 lea	 rax, OFFSET FLAT:$SG160775
  00ed7	48 89 84 24 10
	02 00 00	 mov	 QWORD PTR tv640[rsp], rax
$LN86@ipending_c:
  00edf	48 63 84 24 a0
	00 00 00	 movsxd	 rax, DWORD PTR i$[rsp]
  00ee7	48 8b 0d 00 00
	00 00		 mov	 rcx, QWORD PTR __imp_sysblk
  00eee	48 8b 84 c1 98
	0b 00 00	 mov	 rax, QWORD PTR [rcx+rax*8+2968]
  00ef6	0f b7 80 3c 08
	00 00		 movzx	 eax, WORD PTR [rax+2108]
  00efd	89 84 24 34 01
	00 00		 mov	 DWORD PTR tv647[rsp], eax
  00f04	48 63 8c 24 a0
	00 00 00	 movsxd	 rcx, DWORD PTR i$[rsp]
  00f0c	48 8b 15 00 00
	00 00		 mov	 rdx, QWORD PTR __imp_sysblk
  00f13	48 8b 8c ca 98
	0b 00 00	 mov	 rcx, QWORD PTR [rdx+rcx*8+2968]
  00f1b	0f b7 89 3c 08
	00 00		 movzx	 ecx, WORD PTR [rcx+2108]
  00f22	48 8b 15 00 00
	00 00		 mov	 rdx, QWORD PTR __imp_sysblk
  00f29	0f b6 8c 0a 48
	0b 00 00	 movzx	 ecx, BYTE PTR [rdx+rcx+2888]
  00f31	ff 15 00 00 00
	00		 call	 QWORD PTR __imp_ptyp2short
  00f37	48 89 84 24 50
	03 00 00	 mov	 QWORD PTR tv649[rsp], rax
  00f3f	b9 01 00 00 00	 mov	 ecx, 1
  00f44	ff 15 00 00 00
	00		 call	 QWORD PTR __imp___acrt_iob_func
  00f4a	48 8b 8c 24 10
	02 00 00	 mov	 rcx, QWORD PTR tv640[rsp]
  00f52	48 89 4c 24 48	 mov	 QWORD PTR [rsp+72], rcx
  00f57	8b 8c 24 34 01
	00 00		 mov	 ecx, DWORD PTR tv647[rsp]
  00f5e	89 4c 24 40	 mov	 DWORD PTR [rsp+64], ecx
  00f62	48 8b 8c 24 50
	03 00 00	 mov	 rcx, QWORD PTR tv649[rsp]
  00f6a	48 89 4c 24 38	 mov	 QWORD PTR [rsp+56], rcx
  00f6f	48 8d 0d 00 00
	00 00		 lea	 rcx, OFFSET FLAT:$SG160776
  00f76	48 89 4c 24 30	 mov	 QWORD PTR [rsp+48], rcx
  00f7b	48 8d 0d 00 00
	00 00		 lea	 rcx, OFFSET FLAT:$SG160777
  00f82	48 89 4c 24 28	 mov	 QWORD PTR [rsp+40], rcx
  00f87	48 89 44 24 20	 mov	 QWORD PTR [rsp+32], rax
  00f8c	41 b9 03 00 00
	00		 mov	 r9d, 3
  00f92	4c 8d 05 00 00
	00 00		 lea	 r8, OFFSET FLAT:$SG160778
  00f99	ba 13 08 00 00	 mov	 edx, 2067		; 00000813H
  00f9e	48 8d 0d 00 00
	00 00		 lea	 rcx, OFFSET FLAT:$SG160779
  00fa5	ff 15 00 00 00
	00		 call	 QWORD PTR __imp_fwritemsg

; 2067 :                               sysblk.regs[i]->cpuad == sysblk.mainowner ? "yes" : "no");
; 2068 :         WRMSG( HHC00862, "I", PTYPSTR(sysblk.regs[i]->cpuad), sysblk.regs[i]->cpuad,

  00fab	48 63 84 24 a0
	00 00 00	 movsxd	 rax, DWORD PTR i$[rsp]
  00fb3	48 8b 0d 00 00
	00 00		 mov	 rcx, QWORD PTR __imp_sysblk
  00fba	48 8b 84 c1 98
	0b 00 00	 mov	 rax, QWORD PTR [rcx+rax*8+2968]
  00fc2	0f b7 80 3c 08
	00 00		 movzx	 eax, WORD PTR [rax+2108]
  00fc9	48 8b 0d 00 00
	00 00		 mov	 rcx, QWORD PTR __imp_sysblk
  00fd0	0f b7 89 62 10
	00 00		 movzx	 ecx, WORD PTR [rcx+4194]
  00fd7	3b c1		 cmp	 eax, ecx
  00fd9	75 11		 jne	 SHORT $LN87@ipending_c
  00fdb	48 8d 05 00 00
	00 00		 lea	 rax, OFFSET FLAT:$SG160780
  00fe2	48 89 84 24 18
	02 00 00	 mov	 QWORD PTR tv679[rsp], rax
  00fea	eb 0f		 jmp	 SHORT $LN88@ipending_c
$LN87@ipending_c:
  00fec	48 8d 05 00 00
	00 00		 lea	 rax, OFFSET FLAT:$SG160781
  00ff3	48 89 84 24 18
	02 00 00	 mov	 QWORD PTR tv679[rsp], rax
$LN88@ipending_c:
  00ffb	48 63 84 24 a0
	00 00 00	 movsxd	 rax, DWORD PTR i$[rsp]
  01003	48 8b 0d 00 00
	00 00		 mov	 rcx, QWORD PTR __imp_sysblk
  0100a	48 8b 84 c1 98
	0b 00 00	 mov	 rax, QWORD PTR [rcx+rax*8+2968]
  01012	0f b7 80 3c 08
	00 00		 movzx	 eax, WORD PTR [rax+2108]
  01019	89 84 24 38 01
	00 00		 mov	 DWORD PTR tv686[rsp], eax
  01020	48 63 8c 24 a0
	00 00 00	 movsxd	 rcx, DWORD PTR i$[rsp]
  01028	48 8b 15 00 00
	00 00		 mov	 rdx, QWORD PTR __imp_sysblk
  0102f	48 8b 8c ca 98
	0b 00 00	 mov	 rcx, QWORD PTR [rdx+rcx*8+2968]
  01037	0f b7 89 3c 08
	00 00		 movzx	 ecx, WORD PTR [rcx+2108]
  0103e	48 8b 15 00 00
	00 00		 mov	 rdx, QWORD PTR __imp_sysblk
  01045	0f b6 8c 0a 48
	0b 00 00	 movzx	 ecx, BYTE PTR [rdx+rcx+2888]
  0104d	ff 15 00 00 00
	00		 call	 QWORD PTR __imp_ptyp2short
  01053	48 89 84 24 58
	03 00 00	 mov	 QWORD PTR tv688[rsp], rax
  0105b	b9 01 00 00 00	 mov	 ecx, 1
  01060	ff 15 00 00 00
	00		 call	 QWORD PTR __imp___acrt_iob_func
  01066	48 8b 8c 24 18
	02 00 00	 mov	 rcx, QWORD PTR tv679[rsp]
  0106e	48 89 4c 24 48	 mov	 QWORD PTR [rsp+72], rcx
  01073	8b 8c 24 38 01
	00 00		 mov	 ecx, DWORD PTR tv686[rsp]
  0107a	89 4c 24 40	 mov	 DWORD PTR [rsp+64], ecx
  0107e	48 8b 8c 24 58
	03 00 00	 mov	 rcx, QWORD PTR tv688[rsp]
  01086	48 89 4c 24 38	 mov	 QWORD PTR [rsp+56], rcx
  0108b	48 8d 0d 00 00
	00 00		 lea	 rcx, OFFSET FLAT:$SG160782
  01092	48 89 4c 24 30	 mov	 QWORD PTR [rsp+48], rcx
  01097	48 8d 0d 00 00
	00 00		 lea	 rcx, OFFSET FLAT:$SG160783
  0109e	48 89 4c 24 28	 mov	 QWORD PTR [rsp+40], rcx
  010a3	48 89 44 24 20	 mov	 QWORD PTR [rsp+32], rax
  010a8	41 b9 03 00 00
	00		 mov	 r9d, 3
  010ae	4c 8d 05 00 00
	00 00		 lea	 r8, OFFSET FLAT:$SG160784
  010b5	ba 15 08 00 00	 mov	 edx, 2069		; 00000815H
  010ba	48 8d 0d 00 00
	00 00		 lea	 rcx, OFFSET FLAT:$SG160785
  010c1	ff 15 00 00 00
	00		 call	 QWORD PTR __imp_fwritemsg

; 2069 :                               sysblk.regs[i]->cpuad == sysblk.intowner ? "yes" : "no");
; 2070 :         WRMSG( HHC00863, "I", PTYPSTR(sysblk.regs[i]->cpuad), sysblk.regs[i]->cpuad,

  010c7	48 63 84 24 a0
	00 00 00	 movsxd	 rax, DWORD PTR i$[rsp]
  010cf	48 8b 0d 00 00
	00 00		 mov	 rcx, QWORD PTR __imp_sysblk
  010d6	48 8b 84 c1 98
	0b 00 00	 mov	 rax, QWORD PTR [rcx+rax*8+2968]
  010de	0f b6 80 f0 08
	00 00		 movzx	 eax, BYTE PTR [rax+2288]
  010e5	85 c0		 test	 eax, eax
  010e7	74 4c		 je	 SHORT $LN89@ipending_c
  010e9	8b 84 24 a0 00
	00 00		 mov	 eax, DWORD PTR i$[rsp]
  010f0	b9 01 00 00 00	 mov	 ecx, 1
  010f5	48 89 8c 24 60
	03 00 00	 mov	 QWORD PTR tv2919[rsp], rcx
  010fd	0f b6 c8	 movzx	 ecx, al
  01100	48 8b 84 24 60
	03 00 00	 mov	 rax, QWORD PTR tv2919[rsp]
  01108	48 d3 e0	 shl	 rax, cl
  0110b	48 8b 0d 00 00
	00 00		 mov	 rcx, QWORD PTR __imp_sysblk
  01112	48 8b 89 b8 12
	00 00		 mov	 rcx, QWORD PTR [rcx+4792]
  01119	48 23 c8	 and	 rcx, rax
  0111c	48 8b c1	 mov	 rax, rcx
  0111f	48 85 c0	 test	 rax, rax
  01122	75 11		 jne	 SHORT $LN89@ipending_c
  01124	48 8d 05 00 00
	00 00		 lea	 rax, OFFSET FLAT:$SG160786
  0112b	48 89 84 24 20
	02 00 00	 mov	 QWORD PTR tv720[rsp], rax
  01133	eb 0f		 jmp	 SHORT $LN90@ipending_c
$LN89@ipending_c:
  01135	48 8d 05 00 00
	00 00		 lea	 rax, OFFSET FLAT:$SG160787
  0113c	48 89 84 24 20
	02 00 00	 mov	 QWORD PTR tv720[rsp], rax
$LN90@ipending_c:
  01144	48 63 84 24 a0
	00 00 00	 movsxd	 rax, DWORD PTR i$[rsp]
  0114c	48 8b 0d 00 00
	00 00		 mov	 rcx, QWORD PTR __imp_sysblk
  01153	48 8b 84 c1 98
	0b 00 00	 mov	 rax, QWORD PTR [rcx+rax*8+2968]
  0115b	0f b7 80 3c 08
	00 00		 movzx	 eax, WORD PTR [rax+2108]
  01162	89 84 24 3c 01
	00 00		 mov	 DWORD PTR tv727[rsp], eax
  01169	48 63 8c 24 a0
	00 00 00	 movsxd	 rcx, DWORD PTR i$[rsp]
  01171	48 8b 15 00 00
	00 00		 mov	 rdx, QWORD PTR __imp_sysblk
  01178	48 8b 8c ca 98
	0b 00 00	 mov	 rcx, QWORD PTR [rdx+rcx*8+2968]
  01180	0f b7 89 3c 08
	00 00		 movzx	 ecx, WORD PTR [rcx+2108]
  01187	48 8b 15 00 00
	00 00		 mov	 rdx, QWORD PTR __imp_sysblk
  0118e	0f b6 8c 0a 48
	0b 00 00	 movzx	 ecx, BYTE PTR [rdx+rcx+2888]
  01196	ff 15 00 00 00
	00		 call	 QWORD PTR __imp_ptyp2short
  0119c	48 89 84 24 68
	03 00 00	 mov	 QWORD PTR tv729[rsp], rax
  011a4	b9 01 00 00 00	 mov	 ecx, 1
  011a9	ff 15 00 00 00
	00		 call	 QWORD PTR __imp___acrt_iob_func
  011af	48 8b 8c 24 20
	02 00 00	 mov	 rcx, QWORD PTR tv720[rsp]
  011b7	48 89 4c 24 48	 mov	 QWORD PTR [rsp+72], rcx
  011bc	8b 8c 24 3c 01
	00 00		 mov	 ecx, DWORD PTR tv727[rsp]
  011c3	89 4c 24 40	 mov	 DWORD PTR [rsp+64], ecx
  011c7	48 8b 8c 24 68
	03 00 00	 mov	 rcx, QWORD PTR tv729[rsp]
  011cf	48 89 4c 24 38	 mov	 QWORD PTR [rsp+56], rcx
  011d4	48 8d 0d 00 00
	00 00		 lea	 rcx, OFFSET FLAT:$SG160788
  011db	48 89 4c 24 30	 mov	 QWORD PTR [rsp+48], rcx
  011e0	48 8d 0d 00 00
	00 00		 lea	 rcx, OFFSET FLAT:$SG160789
  011e7	48 89 4c 24 28	 mov	 QWORD PTR [rsp+40], rcx
  011ec	48 89 44 24 20	 mov	 QWORD PTR [rsp+32], rax
  011f1	41 b9 03 00 00
	00		 mov	 r9d, 3
  011f7	4c 8d 05 00 00
	00 00		 lea	 r8, OFFSET FLAT:$SG160790
  011fe	ba 17 08 00 00	 mov	 edx, 2071		; 00000817H
  01203	48 8d 0d 00 00
	00 00		 lea	 rcx, OFFSET FLAT:$SG160791
  0120a	ff 15 00 00 00
	00		 call	 QWORD PTR __imp_fwritemsg

; 2071 :                               sysblk.regs[i]->intwait && !(sysblk.waiting_mask & CPU_BIT(i)) ? "yes" : "no");
; 2072 :         WRMSG( HHC00864, "I", PTYPSTR(sysblk.regs[i]->cpuad), sysblk.regs[i]->cpuad,

  01210	48 63 84 24 a0
	00 00 00	 movsxd	 rax, DWORD PTR i$[rsp]
  01218	48 8b 0d 00 00
	00 00		 mov	 rcx, QWORD PTR __imp_sysblk
  0121f	48 8d 84 c1 48
	01 00 00	 lea	 rax, QWORD PTR [rcx+rax*8+328]
  01227	48 8b c8	 mov	 rcx, rax
  0122a	ff 15 00 00 00
	00		 call	 QWORD PTR __imp_hthread_test_lock
  01230	85 c0		 test	 eax, eax
  01232	74 11		 je	 SHORT $LN91@ipending_c
  01234	48 8d 05 00 00
	00 00		 lea	 rax, OFFSET FLAT:$SG160792
  0123b	48 89 84 24 28
	02 00 00	 mov	 QWORD PTR tv757[rsp], rax
  01243	eb 0f		 jmp	 SHORT $LN92@ipending_c
$LN91@ipending_c:
  01245	48 8d 05 00 00
	00 00		 lea	 rax, OFFSET FLAT:$SG160793
  0124c	48 89 84 24 28
	02 00 00	 mov	 QWORD PTR tv757[rsp], rax
$LN92@ipending_c:
  01254	48 63 84 24 a0
	00 00 00	 movsxd	 rax, DWORD PTR i$[rsp]
  0125c	48 8b 0d 00 00
	00 00		 mov	 rcx, QWORD PTR __imp_sysblk
  01263	48 8b 84 c1 98
	0b 00 00	 mov	 rax, QWORD PTR [rcx+rax*8+2968]
  0126b	0f b7 80 3c 08
	00 00		 movzx	 eax, WORD PTR [rax+2108]
  01272	89 84 24 40 01
	00 00		 mov	 DWORD PTR tv764[rsp], eax
  01279	48 63 8c 24 a0
	00 00 00	 movsxd	 rcx, DWORD PTR i$[rsp]
  01281	48 8b 15 00 00
	00 00		 mov	 rdx, QWORD PTR __imp_sysblk
  01288	48 8b 8c ca 98
	0b 00 00	 mov	 rcx, QWORD PTR [rdx+rcx*8+2968]
  01290	0f b7 89 3c 08
	00 00		 movzx	 ecx, WORD PTR [rcx+2108]
  01297	48 8b 15 00 00
	00 00		 mov	 rdx, QWORD PTR __imp_sysblk
  0129e	0f b6 8c 0a 48
	0b 00 00	 movzx	 ecx, BYTE PTR [rdx+rcx+2888]
  012a6	ff 15 00 00 00
	00		 call	 QWORD PTR __imp_ptyp2short
  012ac	48 89 84 24 70
	03 00 00	 mov	 QWORD PTR tv766[rsp], rax
  012b4	b9 01 00 00 00	 mov	 ecx, 1
  012b9	ff 15 00 00 00
	00		 call	 QWORD PTR __imp___acrt_iob_func
  012bf	48 8b 8c 24 28
	02 00 00	 mov	 rcx, QWORD PTR tv757[rsp]
  012c7	48 89 4c 24 48	 mov	 QWORD PTR [rsp+72], rcx
  012cc	8b 8c 24 40 01
	00 00		 mov	 ecx, DWORD PTR tv764[rsp]
  012d3	89 4c 24 40	 mov	 DWORD PTR [rsp+64], ecx
  012d7	48 8b 8c 24 70
	03 00 00	 mov	 rcx, QWORD PTR tv766[rsp]
  012df	48 89 4c 24 38	 mov	 QWORD PTR [rsp+56], rcx
  012e4	48 8d 0d 00 00
	00 00		 lea	 rcx, OFFSET FLAT:$SG160794
  012eb	48 89 4c 24 30	 mov	 QWORD PTR [rsp+48], rcx
  012f0	48 8d 0d 00 00
	00 00		 lea	 rcx, OFFSET FLAT:$SG160795
  012f7	48 89 4c 24 28	 mov	 QWORD PTR [rsp+40], rcx
  012fc	48 89 44 24 20	 mov	 QWORD PTR [rsp+32], rax
  01301	41 b9 03 00 00
	00		 mov	 r9d, 3
  01307	4c 8d 05 00 00
	00 00		 lea	 r8, OFFSET FLAT:$SG160796
  0130e	ba 19 08 00 00	 mov	 edx, 2073		; 00000819H
  01313	48 8d 0d 00 00
	00 00		 lea	 rcx, OFFSET FLAT:$SG160797
  0131a	ff 15 00 00 00
	00		 call	 QWORD PTR __imp_fwritemsg

; 2073 :                               test_lock(&sysblk.cpulock[i]) ? "" : "not ");
; 2074 :         if (ARCH_370_IDX == sysblk.arch_mode)

  01320	48 8b 05 00 00
	00 00		 mov	 rax, QWORD PTR __imp_sysblk
  01327	83 b8 88 00 00
	00 00		 cmp	 DWORD PTR [rax+136], 0
  0132e	0f 85 48 01 00
	00		 jne	 $LN29@ipending_c

; 2075 :         {
; 2076 :             if (0xFFFF == sysblk.regs[i]->chanset)

  01334	48 63 84 24 a0
	00 00 00	 movsxd	 rax, DWORD PTR i$[rsp]
  0133c	48 8b 0d 00 00
	00 00		 mov	 rcx, QWORD PTR __imp_sysblk
  01343	48 8b 84 c1 98
	0b 00 00	 mov	 rax, QWORD PTR [rcx+rax*8+2968]
  0134b	0f b7 80 38 08
	00 00		 movzx	 eax, WORD PTR [rax+2104]
  01352	3d ff ff 00 00	 cmp	 eax, 65535		; 0000ffffH
  01357	75 1c		 jne	 SHORT $LN30@ipending_c

; 2077 :             {
; 2078 :                 MSGBUF( buf, "none");

  01359	4c 8d 05 00 00
	00 00		 lea	 r8, OFFSET FLAT:$SG160801
  01360	ba 00 01 00 00	 mov	 edx, 256		; 00000100H
  01365	48 8d 8c 24 40
	04 00 00	 lea	 rcx, QWORD PTR buf$[rsp]
  0136d	ff 15 00 00 00
	00		 call	 QWORD PTR __imp_w32_snprintf

; 2079 :             }

  01373	eb 3b		 jmp	 SHORT $LN31@ipending_c
$LN30@ipending_c:

; 2080 :             else
; 2081 :             {
; 2082 :                 MSGBUF( buf, "%4.4X", sysblk.regs[i]->chanset);

  01375	48 63 84 24 a0
	00 00 00	 movsxd	 rax, DWORD PTR i$[rsp]
  0137d	48 8b 0d 00 00
	00 00		 mov	 rcx, QWORD PTR __imp_sysblk
  01384	48 8b 84 c1 98
	0b 00 00	 mov	 rax, QWORD PTR [rcx+rax*8+2968]
  0138c	0f b7 80 38 08
	00 00		 movzx	 eax, WORD PTR [rax+2104]
  01393	44 8b c8	 mov	 r9d, eax
  01396	4c 8d 05 00 00
	00 00		 lea	 r8, OFFSET FLAT:$SG160802
  0139d	ba 00 01 00 00	 mov	 edx, 256		; 00000100H
  013a2	48 8d 8c 24 40
	04 00 00	 lea	 rcx, QWORD PTR buf$[rsp]
  013aa	ff 15 00 00 00
	00		 call	 QWORD PTR __imp_w32_snprintf
$LN31@ipending_c:

; 2083 :             }
; 2084 :             WRMSG( HHC00865, "I", PTYPSTR(sysblk.regs[i]->cpuad), sysblk.regs[i]->cpuad, buf );

  013b0	48 63 84 24 a0
	00 00 00	 movsxd	 rax, DWORD PTR i$[rsp]
  013b8	48 8b 0d 00 00
	00 00		 mov	 rcx, QWORD PTR __imp_sysblk
  013bf	48 8b 84 c1 98
	0b 00 00	 mov	 rax, QWORD PTR [rcx+rax*8+2968]
  013c7	0f b7 80 3c 08
	00 00		 movzx	 eax, WORD PTR [rax+2108]
  013ce	89 84 24 44 01
	00 00		 mov	 DWORD PTR tv847[rsp], eax
  013d5	48 63 8c 24 a0
	00 00 00	 movsxd	 rcx, DWORD PTR i$[rsp]
  013dd	48 8b 15 00 00
	00 00		 mov	 rdx, QWORD PTR __imp_sysblk
  013e4	48 8b 8c ca 98
	0b 00 00	 mov	 rcx, QWORD PTR [rdx+rcx*8+2968]
  013ec	0f b7 89 3c 08
	00 00		 movzx	 ecx, WORD PTR [rcx+2108]
  013f3	48 8b 15 00 00
	00 00		 mov	 rdx, QWORD PTR __imp_sysblk
  013fa	0f b6 8c 0a 48
	0b 00 00	 movzx	 ecx, BYTE PTR [rdx+rcx+2888]
  01402	ff 15 00 00 00
	00		 call	 QWORD PTR __imp_ptyp2short
  01408	48 89 84 24 78
	03 00 00	 mov	 QWORD PTR tv849[rsp], rax
  01410	b9 01 00 00 00	 mov	 ecx, 1
  01415	ff 15 00 00 00
	00		 call	 QWORD PTR __imp___acrt_iob_func
  0141b	48 8d 8c 24 40
	04 00 00	 lea	 rcx, QWORD PTR buf$[rsp]
  01423	48 89 4c 24 48	 mov	 QWORD PTR [rsp+72], rcx
  01428	8b 8c 24 44 01
	00 00		 mov	 ecx, DWORD PTR tv847[rsp]
  0142f	89 4c 24 40	 mov	 DWORD PTR [rsp+64], ecx
  01433	48 8b 8c 24 78
	03 00 00	 mov	 rcx, QWORD PTR tv849[rsp]
  0143b	48 89 4c 24 38	 mov	 QWORD PTR [rsp+56], rcx
  01440	48 8d 0d 00 00
	00 00		 lea	 rcx, OFFSET FLAT:$SG160803
  01447	48 89 4c 24 30	 mov	 QWORD PTR [rsp+48], rcx
  0144c	48 8d 0d 00 00
	00 00		 lea	 rcx, OFFSET FLAT:$SG160804
  01453	48 89 4c 24 28	 mov	 QWORD PTR [rsp+40], rcx
  01458	48 89 44 24 20	 mov	 QWORD PTR [rsp+32], rax
  0145d	41 b9 03 00 00
	00		 mov	 r9d, 3
  01463	4c 8d 05 00 00
	00 00		 lea	 r8, OFFSET FLAT:$SG160805
  0146a	ba 24 08 00 00	 mov	 edx, 2084		; 00000824H
  0146f	48 8d 0d 00 00
	00 00		 lea	 rcx, OFFSET FLAT:$SG160806
  01476	ff 15 00 00 00
	00		 call	 QWORD PTR __imp_fwritemsg
$LN29@ipending_c:

; 2085 :         }
; 2086 :         WRMSG( HHC00866, "I", PTYPSTR(sysblk.regs[i]->cpuad), sysblk.regs[i]->cpuad,

  0147c	48 63 84 24 a0
	00 00 00	 movsxd	 rax, DWORD PTR i$[rsp]
  01484	48 8b 0d 00 00
	00 00		 mov	 rcx, QWORD PTR __imp_sysblk
  0148b	48 8b 84 c1 98
	0b 00 00	 mov	 rax, QWORD PTR [rcx+rax*8+2968]
  01493	0f b6 40 60	 movzx	 eax, BYTE PTR [rax+96]
  01497	48 89 84 24 80
	03 00 00	 mov	 QWORD PTR tv875[rsp], rax
  0149f	48 63 8c 24 a0
	00 00 00	 movsxd	 rcx, DWORD PTR i$[rsp]
  014a7	48 8b 15 00 00
	00 00		 mov	 rdx, QWORD PTR __imp_sysblk
  014ae	48 8b 8c ca 98
	0b 00 00	 mov	 rcx, QWORD PTR [rdx+rcx*8+2968]
  014b6	0f b7 89 3c 08
	00 00		 movzx	 ecx, WORD PTR [rcx+2108]
  014bd	89 8c 24 48 01
	00 00		 mov	 DWORD PTR tv884[rsp], ecx
  014c4	48 63 94 24 a0
	00 00 00	 movsxd	 rdx, DWORD PTR i$[rsp]
  014cc	4c 8b 05 00 00
	00 00		 mov	 r8, QWORD PTR __imp_sysblk
  014d3	49 8b 94 d0 98
	0b 00 00	 mov	 rdx, QWORD PTR [r8+rdx*8+2968]
  014db	0f b7 92 3c 08
	00 00		 movzx	 edx, WORD PTR [rdx+2108]
  014e2	4c 8b 05 00 00
	00 00		 mov	 r8, QWORD PTR __imp_sysblk
  014e9	41 0f b6 8c 10
	48 0b 00 00	 movzx	 ecx, BYTE PTR [r8+rdx+2888]
  014f2	ff 15 00 00 00
	00		 call	 QWORD PTR __imp_ptyp2short
  014f8	48 89 84 24 88
	03 00 00	 mov	 QWORD PTR tv886[rsp], rax
  01500	b9 01 00 00 00	 mov	 ecx, 1
  01505	ff 15 00 00 00
	00		 call	 QWORD PTR __imp___acrt_iob_func
  0150b	48 8b 8c 24 80
	03 00 00	 mov	 rcx, QWORD PTR tv875[rsp]
  01513	48 8b 8c cc 00
	04 00 00	 mov	 rcx, QWORD PTR states$[rsp+rcx*8]
  0151b	48 89 4c 24 48	 mov	 QWORD PTR [rsp+72], rcx
  01520	8b 8c 24 48 01
	00 00		 mov	 ecx, DWORD PTR tv884[rsp]
  01527	89 4c 24 40	 mov	 DWORD PTR [rsp+64], ecx
  0152b	48 8b 8c 24 88
	03 00 00	 mov	 rcx, QWORD PTR tv886[rsp]
  01533	48 89 4c 24 38	 mov	 QWORD PTR [rsp+56], rcx
  01538	48 8d 0d 00 00
	00 00		 lea	 rcx, OFFSET FLAT:$SG160807
  0153f	48 89 4c 24 30	 mov	 QWORD PTR [rsp+48], rcx
  01544	48 8d 0d 00 00
	00 00		 lea	 rcx, OFFSET FLAT:$SG160808
  0154b	48 89 4c 24 28	 mov	 QWORD PTR [rsp+40], rcx
  01550	48 89 44 24 20	 mov	 QWORD PTR [rsp+32], rax
  01555	41 b9 03 00 00
	00		 mov	 r9d, 3
  0155b	4c 8d 05 00 00
	00 00		 lea	 r8, OFFSET FLAT:$SG160809
  01562	ba 27 08 00 00	 mov	 edx, 2087		; 00000827H
  01567	48 8d 0d 00 00
	00 00		 lea	 rcx, OFFSET FLAT:$SG160810
  0156e	ff 15 00 00 00
	00		 call	 QWORD PTR __imp_fwritemsg

; 2087 :                               states[sysblk.regs[i]->cpustate] );
; 2088 :         WRMSG( HHC00867, "I", PTYPSTR(sysblk.regs[i]->cpuad), sysblk.regs[i]->cpuad, INSTCOUNT(sysblk.regs[i]));

  01574	48 63 84 24 a0
	00 00 00	 movsxd	 rax, DWORD PTR i$[rsp]
  0157c	48 8b 0d 00 00
	00 00		 mov	 rcx, QWORD PTR __imp_sysblk
  01583	48 8b 84 c1 98
	0b 00 00	 mov	 rax, QWORD PTR [rcx+rax*8+2968]
  0158b	48 8b 80 68 08
	00 00		 mov	 rax, QWORD PTR [rax+2152]
  01592	48 63 8c 24 a0
	00 00 00	 movsxd	 rcx, DWORD PTR i$[rsp]
  0159a	48 8b 15 00 00
	00 00		 mov	 rdx, QWORD PTR __imp_sysblk
  015a1	48 8b 8c ca 98
	0b 00 00	 mov	 rcx, QWORD PTR [rdx+rcx*8+2968]
  015a9	48 8b 89 68 08
	00 00		 mov	 rcx, QWORD PTR [rcx+2152]
  015b0	8b 89 98 07 00
	00		 mov	 ecx, DWORD PTR [rcx+1944]
  015b6	48 03 88 90 07
	00 00		 add	 rcx, QWORD PTR [rax+1936]
  015bd	48 8b c1	 mov	 rax, rcx
  015c0	48 89 84 24 90
	03 00 00	 mov	 QWORD PTR tv920[rsp], rax
  015c8	48 63 8c 24 a0
	00 00 00	 movsxd	 rcx, DWORD PTR i$[rsp]
  015d0	48 8b 15 00 00
	00 00		 mov	 rdx, QWORD PTR __imp_sysblk
  015d7	48 8b 8c ca 98
	0b 00 00	 mov	 rcx, QWORD PTR [rdx+rcx*8+2968]
  015df	0f b7 89 3c 08
	00 00		 movzx	 ecx, WORD PTR [rcx+2108]
  015e6	89 8c 24 4c 01
	00 00		 mov	 DWORD PTR tv927[rsp], ecx
  015ed	48 63 94 24 a0
	00 00 00	 movsxd	 rdx, DWORD PTR i$[rsp]
  015f5	4c 8b 05 00 00
	00 00		 mov	 r8, QWORD PTR __imp_sysblk
  015fc	49 8b 94 d0 98
	0b 00 00	 mov	 rdx, QWORD PTR [r8+rdx*8+2968]
  01604	0f b7 92 3c 08
	00 00		 movzx	 edx, WORD PTR [rdx+2108]
  0160b	4c 8b 05 00 00
	00 00		 mov	 r8, QWORD PTR __imp_sysblk
  01612	41 0f b6 8c 10
	48 0b 00 00	 movzx	 ecx, BYTE PTR [r8+rdx+2888]
  0161b	ff 15 00 00 00
	00		 call	 QWORD PTR __imp_ptyp2short
  01621	48 89 84 24 98
	03 00 00	 mov	 QWORD PTR tv929[rsp], rax
  01629	b9 01 00 00 00	 mov	 ecx, 1
  0162e	ff 15 00 00 00
	00		 call	 QWORD PTR __imp___acrt_iob_func
  01634	48 8b 8c 24 90
	03 00 00	 mov	 rcx, QWORD PTR tv920[rsp]
  0163c	48 89 4c 24 48	 mov	 QWORD PTR [rsp+72], rcx
  01641	8b 8c 24 4c 01
	00 00		 mov	 ecx, DWORD PTR tv927[rsp]
  01648	89 4c 24 40	 mov	 DWORD PTR [rsp+64], ecx
  0164c	48 8b 8c 24 98
	03 00 00	 mov	 rcx, QWORD PTR tv929[rsp]
  01654	48 89 4c 24 38	 mov	 QWORD PTR [rsp+56], rcx
  01659	48 8d 0d 00 00
	00 00		 lea	 rcx, OFFSET FLAT:$SG160811
  01660	48 89 4c 24 30	 mov	 QWORD PTR [rsp+48], rcx
  01665	48 8d 0d 00 00
	00 00		 lea	 rcx, OFFSET FLAT:$SG160812
  0166c	48 89 4c 24 28	 mov	 QWORD PTR [rsp+40], rcx
  01671	48 89 44 24 20	 mov	 QWORD PTR [rsp+32], rax
  01676	41 b9 03 00 00
	00		 mov	 r9d, 3
  0167c	4c 8d 05 00 00
	00 00		 lea	 r8, OFFSET FLAT:$SG160813
  01683	ba 28 08 00 00	 mov	 edx, 2088		; 00000828H
  01688	48 8d 0d 00 00
	00 00		 lea	 rcx, OFFSET FLAT:$SG160814
  0168f	ff 15 00 00 00
	00		 call	 QWORD PTR __imp_fwritemsg

; 2089 :         WRMSG( HHC00868, "I", PTYPSTR(sysblk.regs[i]->cpuad), sysblk.regs[i]->cpuad, sysblk.regs[i]->siototal);

  01695	48 63 84 24 a0
	00 00 00	 movsxd	 rax, DWORD PTR i$[rsp]
  0169d	48 8b 0d 00 00
	00 00		 mov	 rcx, QWORD PTR __imp_sysblk
  016a4	48 8b 84 c1 98
	0b 00 00	 mov	 rax, QWORD PTR [rcx+rax*8+2968]
  016ac	48 89 84 24 a0
	03 00 00	 mov	 QWORD PTR tv2530[rsp], rax
  016b4	48 63 8c 24 a0
	00 00 00	 movsxd	 rcx, DWORD PTR i$[rsp]
  016bc	48 8b 15 00 00
	00 00		 mov	 rdx, QWORD PTR __imp_sysblk
  016c3	48 8b 8c ca 98
	0b 00 00	 mov	 rcx, QWORD PTR [rdx+rcx*8+2968]
  016cb	0f b7 89 3c 08
	00 00		 movzx	 ecx, WORD PTR [rcx+2108]
  016d2	89 8c 24 50 01
	00 00		 mov	 DWORD PTR tv961[rsp], ecx
  016d9	48 63 94 24 a0
	00 00 00	 movsxd	 rdx, DWORD PTR i$[rsp]
  016e1	4c 8b 05 00 00
	00 00		 mov	 r8, QWORD PTR __imp_sysblk
  016e8	49 8b 94 d0 98
	0b 00 00	 mov	 rdx, QWORD PTR [r8+rdx*8+2968]
  016f0	0f b7 92 3c 08
	00 00		 movzx	 edx, WORD PTR [rdx+2108]
  016f7	4c 8b 05 00 00
	00 00		 mov	 r8, QWORD PTR __imp_sysblk
  016fe	41 0f b6 8c 10
	48 0b 00 00	 movzx	 ecx, BYTE PTR [r8+rdx+2888]
  01707	ff 15 00 00 00
	00		 call	 QWORD PTR __imp_ptyp2short
  0170d	48 89 84 24 a8
	03 00 00	 mov	 QWORD PTR tv963[rsp], rax
  01715	b9 01 00 00 00	 mov	 ecx, 1
  0171a	ff 15 00 00 00
	00		 call	 QWORD PTR __imp___acrt_iob_func
  01720	48 8b 8c 24 a0
	03 00 00	 mov	 rcx, QWORD PTR tv2530[rsp]
  01728	48 8b 89 a8 07
	00 00		 mov	 rcx, QWORD PTR [rcx+1960]
  0172f	48 89 4c 24 48	 mov	 QWORD PTR [rsp+72], rcx
  01734	8b 8c 24 50 01
	00 00		 mov	 ecx, DWORD PTR tv961[rsp]
  0173b	89 4c 24 40	 mov	 DWORD PTR [rsp+64], ecx
  0173f	48 8b 8c 24 a8
	03 00 00	 mov	 rcx, QWORD PTR tv963[rsp]
  01747	48 89 4c 24 38	 mov	 QWORD PTR [rsp+56], rcx
  0174c	48 8d 0d 00 00
	00 00		 lea	 rcx, OFFSET FLAT:$SG160815
  01753	48 89 4c 24 30	 mov	 QWORD PTR [rsp+48], rcx
  01758	48 8d 0d 00 00
	00 00		 lea	 rcx, OFFSET FLAT:$SG160816
  0175f	48 89 4c 24 28	 mov	 QWORD PTR [rsp+40], rcx
  01764	48 89 44 24 20	 mov	 QWORD PTR [rsp+32], rax
  01769	41 b9 03 00 00
	00		 mov	 r9d, 3
  0176f	4c 8d 05 00 00
	00 00		 lea	 r8, OFFSET FLAT:$SG160817
  01776	ba 29 08 00 00	 mov	 edx, 2089		; 00000829H
  0177b	48 8d 0d 00 00
	00 00		 lea	 rcx, OFFSET FLAT:$SG160818
  01782	ff 15 00 00 00
	00		 call	 QWORD PTR __imp_fwritemsg

; 2090 :         copy_psw(sysblk.regs[i], curpsw);

  01788	48 63 84 24 a0
	00 00 00	 movsxd	 rax, DWORD PTR i$[rsp]
  01790	48 8d 94 24 20
	04 00 00	 lea	 rdx, QWORD PTR curpsw$[rsp]
  01798	48 8b 0d 00 00
	00 00		 mov	 rcx, QWORD PTR __imp_sysblk
  0179f	48 8b 8c c1 98
	0b 00 00	 mov	 rcx, QWORD PTR [rcx+rax*8+2968]
  017a7	e8 00 00 00 00	 call	 copy_psw

; 2091 :         if (ARCH_900_IDX == sysblk.arch_mode)

  017ac	48 8b 05 00 00
	00 00		 mov	 rax, QWORD PTR __imp_sysblk
  017b3	83 b8 88 00 00
	00 02		 cmp	 DWORD PTR [rax+136], 2
  017ba	0f 85 9f 01 00
	00		 jne	 $LN32@ipending_c

; 2092 :         {
; 2093 :             MSGBUF( buf, "%2.2X%2.2X%2.2X%2.2X%2.2X%2.2X%2.2X%2.2X %2.2X%2.2X%2.2X%2.2X%2.2X%2.2X%2.2X%2.2X",

  017c0	b8 01 00 00 00	 mov	 eax, 1
  017c5	48 6b c0 0f	 imul	 rax, rax, 15
  017c9	0f b6 84 04 20
	04 00 00	 movzx	 eax, BYTE PTR curpsw$[rsp+rax]
  017d1	b9 01 00 00 00	 mov	 ecx, 1
  017d6	48 6b c9 0e	 imul	 rcx, rcx, 14
  017da	0f b6 8c 0c 20
	04 00 00	 movzx	 ecx, BYTE PTR curpsw$[rsp+rcx]
  017e2	ba 01 00 00 00	 mov	 edx, 1
  017e7	48 6b d2 0d	 imul	 rdx, rdx, 13
  017eb	0f b6 94 14 20
	04 00 00	 movzx	 edx, BYTE PTR curpsw$[rsp+rdx]
  017f3	41 b8 01 00 00
	00		 mov	 r8d, 1
  017f9	4d 6b c0 0c	 imul	 r8, r8, 12
  017fd	46 0f b6 84 04
	20 04 00 00	 movzx	 r8d, BYTE PTR curpsw$[rsp+r8]
  01806	41 b9 01 00 00
	00		 mov	 r9d, 1
  0180c	4d 6b c9 0b	 imul	 r9, r9, 11
  01810	46 0f b6 8c 0c
	20 04 00 00	 movzx	 r9d, BYTE PTR curpsw$[rsp+r9]
  01819	41 ba 01 00 00
	00		 mov	 r10d, 1
  0181f	4d 6b d2 0a	 imul	 r10, r10, 10
  01823	46 0f b6 94 14
	20 04 00 00	 movzx	 r10d, BYTE PTR curpsw$[rsp+r10]
  0182c	41 bb 01 00 00
	00		 mov	 r11d, 1
  01832	4d 6b db 09	 imul	 r11, r11, 9
  01836	46 0f b6 9c 1c
	20 04 00 00	 movzx	 r11d, BYTE PTR curpsw$[rsp+r11]
  0183f	bb 01 00 00 00	 mov	 ebx, 1
  01844	48 6b db 08	 imul	 rbx, rbx, 8
  01848	0f b6 9c 1c 20
	04 00 00	 movzx	 ebx, BYTE PTR curpsw$[rsp+rbx]
  01850	bf 01 00 00 00	 mov	 edi, 1
  01855	48 6b ff 07	 imul	 rdi, rdi, 7
  01859	0f b6 bc 3c 20
	04 00 00	 movzx	 edi, BYTE PTR curpsw$[rsp+rdi]
  01861	be 01 00 00 00	 mov	 esi, 1
  01866	48 6b f6 06	 imul	 rsi, rsi, 6
  0186a	0f b6 b4 34 20
	04 00 00	 movzx	 esi, BYTE PTR curpsw$[rsp+rsi]
  01872	bd 01 00 00 00	 mov	 ebp, 1
  01877	48 6b ed 05	 imul	 rbp, rbp, 5
  0187b	0f b6 ac 2c 20
	04 00 00	 movzx	 ebp, BYTE PTR curpsw$[rsp+rbp]
  01883	41 be 01 00 00
	00		 mov	 r14d, 1
  01889	4d 6b f6 04	 imul	 r14, r14, 4
  0188d	46 0f b6 b4 34
	20 04 00 00	 movzx	 r14d, BYTE PTR curpsw$[rsp+r14]
  01896	41 bf 01 00 00
	00		 mov	 r15d, 1
  0189c	4d 6b ff 03	 imul	 r15, r15, 3
  018a0	46 0f b6 bc 3c
	20 04 00 00	 movzx	 r15d, BYTE PTR curpsw$[rsp+r15]
  018a9	41 bc 01 00 00
	00		 mov	 r12d, 1
  018af	4d 6b e4 02	 imul	 r12, r12, 2
  018b3	46 0f b6 a4 24
	20 04 00 00	 movzx	 r12d, BYTE PTR curpsw$[rsp+r12]
  018bc	41 bd 01 00 00
	00		 mov	 r13d, 1
  018c2	4d 6b ed 01	 imul	 r13, r13, 1
  018c6	46 0f b6 ac 2c
	20 04 00 00	 movzx	 r13d, BYTE PTR curpsw$[rsp+r13]
  018cf	44 89 ac 24 54
	01 00 00	 mov	 DWORD PTR tv1051[rsp], r13d
  018d7	41 bd 01 00 00
	00		 mov	 r13d, 1
  018dd	4d 6b ed 00	 imul	 r13, r13, 0
  018e1	46 0f b6 ac 2c
	20 04 00 00	 movzx	 r13d, BYTE PTR curpsw$[rsp+r13]
  018ea	89 84 24 90 00
	00 00		 mov	 DWORD PTR [rsp+144], eax
  018f1	89 8c 24 88 00
	00 00		 mov	 DWORD PTR [rsp+136], ecx
  018f8	89 94 24 80 00
	00 00		 mov	 DWORD PTR [rsp+128], edx
  018ff	44 89 44 24 78	 mov	 DWORD PTR [rsp+120], r8d
  01904	44 89 4c 24 70	 mov	 DWORD PTR [rsp+112], r9d
  01909	44 89 54 24 68	 mov	 DWORD PTR [rsp+104], r10d
  0190e	44 89 5c 24 60	 mov	 DWORD PTR [rsp+96], r11d
  01913	89 5c 24 58	 mov	 DWORD PTR [rsp+88], ebx
  01917	89 7c 24 50	 mov	 DWORD PTR [rsp+80], edi
  0191b	89 74 24 48	 mov	 DWORD PTR [rsp+72], esi
  0191f	89 6c 24 40	 mov	 DWORD PTR [rsp+64], ebp
  01923	44 89 74 24 38	 mov	 DWORD PTR [rsp+56], r14d
  01928	44 89 7c 24 30	 mov	 DWORD PTR [rsp+48], r15d
  0192d	44 89 64 24 28	 mov	 DWORD PTR [rsp+40], r12d
  01932	8b 84 24 54 01
	00 00		 mov	 eax, DWORD PTR tv1051[rsp]
  01939	89 44 24 20	 mov	 DWORD PTR [rsp+32], eax
  0193d	45 8b cd	 mov	 r9d, r13d
  01940	4c 8d 05 00 00
	00 00		 lea	 r8, OFFSET FLAT:$SG160821
  01947	ba 00 01 00 00	 mov	 edx, 256		; 00000100H
  0194c	48 8d 8c 24 40
	04 00 00	 lea	 rcx, QWORD PTR buf$[rsp]
  01954	ff 15 00 00 00
	00		 call	 QWORD PTR __imp_w32_snprintf

; 2094 :                 curpsw[0], curpsw[1], curpsw[2], curpsw[3],
; 2095 :                 curpsw[4], curpsw[5], curpsw[6], curpsw[7],
; 2096 :                 curpsw[8], curpsw[9], curpsw[10], curpsw[11],
; 2097 :                 curpsw[12], curpsw[13], curpsw[14], curpsw[15]);
; 2098 :         }

  0195a	e9 c3 00 00 00	 jmp	 $LN33@ipending_c
$LN32@ipending_c:

; 2099 :         else
; 2100 :         {
; 2101 :             MSGBUF( buf, "%2.2X%2.2X%2.2X%2.2X%2.2X%2.2X%2.2X%2.2X",

  0195f	b8 01 00 00 00	 mov	 eax, 1
  01964	48 6b c0 07	 imul	 rax, rax, 7
  01968	0f b6 84 04 20
	04 00 00	 movzx	 eax, BYTE PTR curpsw$[rsp+rax]
  01970	b9 01 00 00 00	 mov	 ecx, 1
  01975	48 6b c9 06	 imul	 rcx, rcx, 6
  01979	0f b6 8c 0c 20
	04 00 00	 movzx	 ecx, BYTE PTR curpsw$[rsp+rcx]
  01981	ba 01 00 00 00	 mov	 edx, 1
  01986	48 6b d2 05	 imul	 rdx, rdx, 5
  0198a	0f b6 94 14 20
	04 00 00	 movzx	 edx, BYTE PTR curpsw$[rsp+rdx]
  01992	bb 01 00 00 00	 mov	 ebx, 1
  01997	48 6b db 04	 imul	 rbx, rbx, 4
  0199b	0f b6 9c 1c 20
	04 00 00	 movzx	 ebx, BYTE PTR curpsw$[rsp+rbx]
  019a3	bf 01 00 00 00	 mov	 edi, 1
  019a8	48 6b ff 03	 imul	 rdi, rdi, 3
  019ac	0f b6 bc 3c 20
	04 00 00	 movzx	 edi, BYTE PTR curpsw$[rsp+rdi]
  019b4	be 01 00 00 00	 mov	 esi, 1
  019b9	48 6b f6 02	 imul	 rsi, rsi, 2
  019bd	0f b6 b4 34 20
	04 00 00	 movzx	 esi, BYTE PTR curpsw$[rsp+rsi]
  019c5	bd 01 00 00 00	 mov	 ebp, 1
  019ca	48 6b ed 01	 imul	 rbp, rbp, 1
  019ce	0f b6 ac 2c 20
	04 00 00	 movzx	 ebp, BYTE PTR curpsw$[rsp+rbp]
  019d6	41 b8 01 00 00
	00		 mov	 r8d, 1
  019dc	4d 6b c0 00	 imul	 r8, r8, 0
  019e0	46 0f b6 84 04
	20 04 00 00	 movzx	 r8d, BYTE PTR curpsw$[rsp+r8]
  019e9	89 44 24 50	 mov	 DWORD PTR [rsp+80], eax
  019ed	89 4c 24 48	 mov	 DWORD PTR [rsp+72], ecx
  019f1	89 54 24 40	 mov	 DWORD PTR [rsp+64], edx
  019f5	89 5c 24 38	 mov	 DWORD PTR [rsp+56], ebx
  019f9	89 7c 24 30	 mov	 DWORD PTR [rsp+48], edi
  019fd	89 74 24 28	 mov	 DWORD PTR [rsp+40], esi
  01a01	89 6c 24 20	 mov	 DWORD PTR [rsp+32], ebp
  01a05	45 8b c8	 mov	 r9d, r8d
  01a08	4c 8d 05 00 00
	00 00		 lea	 r8, OFFSET FLAT:$SG160822
  01a0f	ba 00 01 00 00	 mov	 edx, 256		; 00000100H
  01a14	48 8d 8c 24 40
	04 00 00	 lea	 rcx, QWORD PTR buf$[rsp]
  01a1c	ff 15 00 00 00
	00		 call	 QWORD PTR __imp_w32_snprintf
$LN33@ipending_c:

; 2102 :                 curpsw[0], curpsw[1], curpsw[2], curpsw[3],
; 2103 :                 curpsw[4], curpsw[5], curpsw[6], curpsw[7]);
; 2104 :         }
; 2105 :         WRMSG( HHC00869, "I", PTYPSTR(sysblk.regs[i]->cpuad), sysblk.regs[i]->cpuad, buf );

  01a22	48 63 84 24 a0
	00 00 00	 movsxd	 rax, DWORD PTR i$[rsp]
  01a2a	48 8b 0d 00 00
	00 00		 mov	 rcx, QWORD PTR __imp_sysblk
  01a31	48 8b 84 c1 98
	0b 00 00	 mov	 rax, QWORD PTR [rcx+rax*8+2968]
  01a39	0f b7 80 3c 08
	00 00		 movzx	 eax, WORD PTR [rax+2108]
  01a40	89 84 24 58 01
	00 00		 mov	 DWORD PTR tv1100[rsp], eax
  01a47	48 63 8c 24 a0
	00 00 00	 movsxd	 rcx, DWORD PTR i$[rsp]
  01a4f	48 8b 15 00 00
	00 00		 mov	 rdx, QWORD PTR __imp_sysblk
  01a56	48 8b 8c ca 98
	0b 00 00	 mov	 rcx, QWORD PTR [rdx+rcx*8+2968]
  01a5e	0f b7 89 3c 08
	00 00		 movzx	 ecx, WORD PTR [rcx+2108]
  01a65	48 8b 15 00 00
	00 00		 mov	 rdx, QWORD PTR __imp_sysblk
  01a6c	0f b6 8c 0a 48
	0b 00 00	 movzx	 ecx, BYTE PTR [rdx+rcx+2888]
  01a74	ff 15 00 00 00
	00		 call	 QWORD PTR __imp_ptyp2short
  01a7a	48 89 84 24 b0
	03 00 00	 mov	 QWORD PTR tv1102[rsp], rax
  01a82	b9 01 00 00 00	 mov	 ecx, 1
  01a87	ff 15 00 00 00
	00		 call	 QWORD PTR __imp___acrt_iob_func
  01a8d	48 8d 8c 24 40
	04 00 00	 lea	 rcx, QWORD PTR buf$[rsp]
  01a95	48 89 4c 24 48	 mov	 QWORD PTR [rsp+72], rcx
  01a9a	8b 8c 24 58 01
	00 00		 mov	 ecx, DWORD PTR tv1100[rsp]
  01aa1	89 4c 24 40	 mov	 DWORD PTR [rsp+64], ecx
  01aa5	48 8b 8c 24 b0
	03 00 00	 mov	 rcx, QWORD PTR tv1102[rsp]
  01aad	48 89 4c 24 38	 mov	 QWORD PTR [rsp+56], rcx
  01ab2	48 8d 0d 00 00
	00 00		 lea	 rcx, OFFSET FLAT:$SG160823
  01ab9	48 89 4c 24 30	 mov	 QWORD PTR [rsp+48], rcx
  01abe	48 8d 0d 00 00
	00 00		 lea	 rcx, OFFSET FLAT:$SG160824
  01ac5	48 89 4c 24 28	 mov	 QWORD PTR [rsp+40], rcx
  01aca	48 89 44 24 20	 mov	 QWORD PTR [rsp+32], rax
  01acf	41 b9 03 00 00
	00		 mov	 r9d, 3
  01ad5	4c 8d 05 00 00
	00 00		 lea	 r8, OFFSET FLAT:$SG160825
  01adc	ba 39 08 00 00	 mov	 edx, 2105		; 00000839H
  01ae1	48 8d 0d 00 00
	00 00		 lea	 rcx, OFFSET FLAT:$SG160826
  01ae8	ff 15 00 00 00
	00		 call	 QWORD PTR __imp_fwritemsg

; 2106 : 
; 2107 :         /*--------------------------*/
; 2108 :         /* (same thing but for SIE) */
; 2109 :         /*--------------------------*/
; 2110 : 
; 2111 :         if (sysblk.regs[i]->sie_active)

  01aee	48 63 84 24 a0
	00 00 00	 movsxd	 rax, DWORD PTR i$[rsp]
  01af6	48 8b 0d 00 00
	00 00		 mov	 rcx, QWORD PTR __imp_sysblk
  01afd	48 8b 84 c1 98
	0b 00 00	 mov	 rax, QWORD PTR [rcx+rax*8+2968]
  01b05	8b 80 c8 08 00
	00		 mov	 eax, DWORD PTR [rax+2248]
  01b0b	83 e0 01	 and	 eax, 1
  01b0e	85 c0		 test	 eax, eax
  01b10	0f 84 17 10 00
	00		 je	 $LN34@ipending_c

; 2112 :         {
; 2113 :             WRMSG( HHC00850, "I", "IE", sysblk.regs[i]->cpuad,

  01b16	48 63 84 24 a0
	00 00 00	 movsxd	 rax, DWORD PTR i$[rsp]
  01b1e	48 8b 0d 00 00
	00 00		 mov	 rcx, QWORD PTR __imp_sysblk
  01b25	48 8b 84 c1 98
	0b 00 00	 mov	 rax, QWORD PTR [rcx+rax*8+2968]
  01b2d	48 8b 80 70 08
	00 00		 mov	 rax, QWORD PTR [rax+2160]
  01b34	48 89 84 24 b8
	03 00 00	 mov	 QWORD PTR tv2523[rsp], rax
  01b3c	48 63 8c 24 a0
	00 00 00	 movsxd	 rcx, DWORD PTR i$[rsp]
  01b44	48 8b 15 00 00
	00 00		 mov	 rdx, QWORD PTR __imp_sysblk
  01b4b	48 8b 8c ca 98
	0b 00 00	 mov	 rcx, QWORD PTR [rdx+rcx*8+2968]
  01b53	48 8b 89 70 08
	00 00		 mov	 rcx, QWORD PTR [rcx+2160]
  01b5a	48 89 8c 24 c0
	03 00 00	 mov	 QWORD PTR tv2521[rsp], rcx
  01b62	48 63 94 24 a0
	00 00 00	 movsxd	 rdx, DWORD PTR i$[rsp]
  01b6a	48 8b 1d 00 00
	00 00		 mov	 rbx, QWORD PTR __imp_sysblk
  01b71	48 8b 94 d3 98
	0b 00 00	 mov	 rdx, QWORD PTR [rbx+rdx*8+2968]
  01b79	48 63 9c 24 a0
	00 00 00	 movsxd	 rbx, DWORD PTR i$[rsp]
  01b81	48 8b 3d 00 00
	00 00		 mov	 rdi, QWORD PTR __imp_sysblk
  01b88	48 8b 9c df 98
	0b 00 00	 mov	 rbx, QWORD PTR [rdi+rbx*8+2968]
  01b90	8b 5b 4c	 mov	 ebx, DWORD PTR [rbx+76]
  01b93	8b 52 48	 mov	 edx, DWORD PTR [rdx+72]
  01b96	23 d3		 and	 edx, ebx
  01b98	89 94 24 5c 01
	00 00		 mov	 DWORD PTR tv1154[rsp], edx
  01b9f	48 63 9c 24 a0
	00 00 00	 movsxd	 rbx, DWORD PTR i$[rsp]
  01ba7	48 8b 3d 00 00
	00 00		 mov	 rdi, QWORD PTR __imp_sysblk
  01bae	48 8b 9c df 98
	0b 00 00	 mov	 rbx, QWORD PTR [rdi+rbx*8+2968]
  01bb6	0f b7 9b 3c 08
	00 00		 movzx	 ebx, WORD PTR [rbx+2108]
  01bbd	b9 01 00 00 00	 mov	 ecx, 1
  01bc2	ff 15 00 00 00
	00		 call	 QWORD PTR __imp___acrt_iob_func
  01bc8	48 8b 8c 24 b8
	03 00 00	 mov	 rcx, QWORD PTR tv2523[rsp]
  01bd0	8b 49 4c	 mov	 ecx, DWORD PTR [rcx+76]
  01bd3	89 4c 24 58	 mov	 DWORD PTR [rsp+88], ecx
  01bd7	48 8b 8c 24 c0
	03 00 00	 mov	 rcx, QWORD PTR tv2521[rsp]
  01bdf	8b 49 48	 mov	 ecx, DWORD PTR [rcx+72]
  01be2	89 4c 24 50	 mov	 DWORD PTR [rsp+80], ecx
  01be6	8b 8c 24 5c 01
	00 00		 mov	 ecx, DWORD PTR tv1154[rsp]
  01bed	89 4c 24 48	 mov	 DWORD PTR [rsp+72], ecx
  01bf1	89 5c 24 40	 mov	 DWORD PTR [rsp+64], ebx
  01bf5	48 8d 0d 00 00
	00 00		 lea	 rcx, OFFSET FLAT:$SG160828
  01bfc	48 89 4c 24 38	 mov	 QWORD PTR [rsp+56], rcx
  01c01	48 8d 0d 00 00
	00 00		 lea	 rcx, OFFSET FLAT:$SG160829
  01c08	48 89 4c 24 30	 mov	 QWORD PTR [rsp+48], rcx
  01c0d	48 8d 0d 00 00
	00 00		 lea	 rcx, OFFSET FLAT:$SG160830
  01c14	48 89 4c 24 28	 mov	 QWORD PTR [rsp+40], rcx
  01c19	48 89 44 24 20	 mov	 QWORD PTR [rsp+32], rax
  01c1e	41 b9 03 00 00
	00		 mov	 r9d, 3
  01c24	4c 8d 05 00 00
	00 00		 lea	 r8, OFFSET FLAT:$SG160831
  01c2b	ba 44 08 00 00	 mov	 edx, 2116		; 00000844H
  01c30	48 8d 0d 00 00
	00 00		 lea	 rcx, OFFSET FLAT:$SG160832
  01c37	ff 15 00 00 00
	00		 call	 QWORD PTR __imp_fwritemsg

; 2114 :                             IC_INTERRUPT_CPU(sysblk.regs[i]),
; 2115 :                             GUEST( sysblk.regs[i] )->ints_state,
; 2116 :                             GUEST( sysblk.regs[i] )->ints_mask);
; 2117 :             WRMSG( HHC00851, "I", "IE", sysblk.regs[i]->cpuad,

  01c3d	48 63 84 24 a0
	00 00 00	 movsxd	 rax, DWORD PTR i$[rsp]
  01c45	48 8b 0d 00 00
	00 00		 mov	 rcx, QWORD PTR __imp_sysblk
  01c4c	48 8b 84 c1 98
	0b 00 00	 mov	 rax, QWORD PTR [rcx+rax*8+2968]
  01c54	48 8b 80 70 08
	00 00		 mov	 rax, QWORD PTR [rax+2160]
  01c5b	8b 40 48	 mov	 eax, DWORD PTR [rax+72]
  01c5e	25 00 00 00 80	 and	 eax, -2147483648	; 80000000H
  01c63	85 c0		 test	 eax, eax
  01c65	74 11		 je	 SHORT $LN93@ipending_c
  01c67	48 8d 05 00 00
	00 00		 lea	 rax, OFFSET FLAT:$SG160833
  01c6e	48 89 84 24 30
	02 00 00	 mov	 QWORD PTR tv1181[rsp], rax
  01c76	eb 0f		 jmp	 SHORT $LN94@ipending_c
$LN93@ipending_c:
  01c78	48 8d 05 00 00
	00 00		 lea	 rax, OFFSET FLAT:$SG160834
  01c7f	48 89 84 24 30
	02 00 00	 mov	 QWORD PTR tv1181[rsp], rax
$LN94@ipending_c:
  01c87	48 63 84 24 a0
	00 00 00	 movsxd	 rax, DWORD PTR i$[rsp]
  01c8f	48 8b 0d 00 00
	00 00		 mov	 rcx, QWORD PTR __imp_sysblk
  01c96	48 8b 84 c1 98
	0b 00 00	 mov	 rax, QWORD PTR [rcx+rax*8+2968]
  01c9e	0f b7 80 3c 08
	00 00		 movzx	 eax, WORD PTR [rax+2108]
  01ca5	89 84 24 60 01
	00 00		 mov	 DWORD PTR tv1220[rsp], eax
  01cac	b9 01 00 00 00	 mov	 ecx, 1
  01cb1	ff 15 00 00 00
	00		 call	 QWORD PTR __imp___acrt_iob_func
  01cb7	48 8b 8c 24 30
	02 00 00	 mov	 rcx, QWORD PTR tv1181[rsp]
  01cbf	48 89 4c 24 48	 mov	 QWORD PTR [rsp+72], rcx
  01cc4	8b 8c 24 60 01
	00 00		 mov	 ecx, DWORD PTR tv1220[rsp]
  01ccb	89 4c 24 40	 mov	 DWORD PTR [rsp+64], ecx
  01ccf	48 8d 0d 00 00
	00 00		 lea	 rcx, OFFSET FLAT:$SG160835
  01cd6	48 89 4c 24 38	 mov	 QWORD PTR [rsp+56], rcx
  01cdb	48 8d 0d 00 00
	00 00		 lea	 rcx, OFFSET FLAT:$SG160836
  01ce2	48 89 4c 24 30	 mov	 QWORD PTR [rsp+48], rcx
  01ce7	48 8d 0d 00 00
	00 00		 lea	 rcx, OFFSET FLAT:$SG160837
  01cee	48 89 4c 24 28	 mov	 QWORD PTR [rsp+40], rcx
  01cf3	48 89 44 24 20	 mov	 QWORD PTR [rsp+32], rax
  01cf8	41 b9 03 00 00
	00		 mov	 r9d, 3
  01cfe	4c 8d 05 00 00
	00 00		 lea	 r8, OFFSET FLAT:$SG160838
  01d05	ba 46 08 00 00	 mov	 edx, 2118		; 00000846H
  01d0a	48 8d 0d 00 00
	00 00		 lea	 rcx, OFFSET FLAT:$SG160839
  01d11	ff 15 00 00 00
	00		 call	 QWORD PTR __imp_fwritemsg

; 2118 :                             IS_IC_INTERRUPT( GUEST( sysblk.regs[i] )) ? "" : "not ");
; 2119 :             WRMSG( HHC00852, "I", "IE", sysblk.regs[i]->cpuad, IS_IC_IOPENDING ? "" : "not ");

  01d17	48 8b 05 00 00
	00 00		 mov	 rax, QWORD PTR __imp_sysblk
  01d1e	8b 80 a0 12 00
	00		 mov	 eax, DWORD PTR [rax+4768]
  01d24	25 00 00 00 40	 and	 eax, 1073741824		; 40000000H
  01d29	85 c0		 test	 eax, eax
  01d2b	74 11		 je	 SHORT $LN95@ipending_c
  01d2d	48 8d 05 00 00
	00 00		 lea	 rax, OFFSET FLAT:$SG160840
  01d34	48 89 84 24 38
	02 00 00	 mov	 QWORD PTR tv1235[rsp], rax
  01d3c	eb 0f		 jmp	 SHORT $LN96@ipending_c
$LN95@ipending_c:
  01d3e	48 8d 05 00 00
	00 00		 lea	 rax, OFFSET FLAT:$SG160841
  01d45	48 89 84 24 38
	02 00 00	 mov	 QWORD PTR tv1235[rsp], rax
$LN96@ipending_c:
  01d4d	48 63 84 24 a0
	00 00 00	 movsxd	 rax, DWORD PTR i$[rsp]
  01d55	48 8b 0d 00 00
	00 00		 mov	 rcx, QWORD PTR __imp_sysblk
  01d5c	48 8b 84 c1 98
	0b 00 00	 mov	 rax, QWORD PTR [rcx+rax*8+2968]
  01d64	0f b7 80 3c 08
	00 00		 movzx	 eax, WORD PTR [rax+2108]
  01d6b	89 84 24 64 01
	00 00		 mov	 DWORD PTR tv1242[rsp], eax
  01d72	b9 01 00 00 00	 mov	 ecx, 1
  01d77	ff 15 00 00 00
	00		 call	 QWORD PTR __imp___acrt_iob_func
  01d7d	48 8b 8c 24 38
	02 00 00	 mov	 rcx, QWORD PTR tv1235[rsp]
  01d85	48 89 4c 24 48	 mov	 QWORD PTR [rsp+72], rcx
  01d8a	8b 8c 24 64 01
	00 00		 mov	 ecx, DWORD PTR tv1242[rsp]
  01d91	89 4c 24 40	 mov	 DWORD PTR [rsp+64], ecx
  01d95	48 8d 0d 00 00
	00 00		 lea	 rcx, OFFSET FLAT:$SG160842
  01d9c	48 89 4c 24 38	 mov	 QWORD PTR [rsp+56], rcx
  01da1	48 8d 0d 00 00
	00 00		 lea	 rcx, OFFSET FLAT:$SG160843
  01da8	48 89 4c 24 30	 mov	 QWORD PTR [rsp+48], rcx
  01dad	48 8d 0d 00 00
	00 00		 lea	 rcx, OFFSET FLAT:$SG160844
  01db4	48 89 4c 24 28	 mov	 QWORD PTR [rsp+40], rcx
  01db9	48 89 44 24 20	 mov	 QWORD PTR [rsp+32], rax
  01dbe	41 b9 03 00 00
	00		 mov	 r9d, 3
  01dc4	4c 8d 05 00 00
	00 00		 lea	 r8, OFFSET FLAT:$SG160845
  01dcb	ba 47 08 00 00	 mov	 edx, 2119		; 00000847H
  01dd0	48 8d 0d 00 00
	00 00		 lea	 rcx, OFFSET FLAT:$SG160846
  01dd7	ff 15 00 00 00
	00		 call	 QWORD PTR __imp_fwritemsg

; 2120 :             WRMSG( HHC00853, "I", "IE", sysblk.regs[i]->cpuad, IS_IC_CLKC(       GUEST( sysblk.regs[i] )) ? "" : "not ");

  01ddd	48 63 84 24 a0
	00 00 00	 movsxd	 rax, DWORD PTR i$[rsp]
  01de5	48 8b 0d 00 00
	00 00		 mov	 rcx, QWORD PTR __imp_sysblk
  01dec	48 8b 84 c1 98
	0b 00 00	 mov	 rax, QWORD PTR [rcx+rax*8+2968]
  01df4	48 8b 80 70 08
	00 00		 mov	 rax, QWORD PTR [rax+2160]
  01dfb	8b 40 48	 mov	 eax, DWORD PTR [rax+72]
  01dfe	25 00 08 00 00	 and	 eax, 2048		; 00000800H
  01e03	85 c0		 test	 eax, eax
  01e05	74 11		 je	 SHORT $LN97@ipending_c
  01e07	48 8d 05 00 00
	00 00		 lea	 rax, OFFSET FLAT:$SG160847
  01e0e	48 89 84 24 40
	02 00 00	 mov	 QWORD PTR tv1262[rsp], rax
  01e16	eb 0f		 jmp	 SHORT $LN98@ipending_c
$LN97@ipending_c:
  01e18	48 8d 05 00 00
	00 00		 lea	 rax, OFFSET FLAT:$SG160848
  01e1f	48 89 84 24 40
	02 00 00	 mov	 QWORD PTR tv1262[rsp], rax
$LN98@ipending_c:
  01e27	48 63 84 24 a0
	00 00 00	 movsxd	 rax, DWORD PTR i$[rsp]
  01e2f	48 8b 0d 00 00
	00 00		 mov	 rcx, QWORD PTR __imp_sysblk
  01e36	48 8b 84 c1 98
	0b 00 00	 mov	 rax, QWORD PTR [rcx+rax*8+2968]
  01e3e	0f b7 80 3c 08
	00 00		 movzx	 eax, WORD PTR [rax+2108]
  01e45	89 84 24 68 01
	00 00		 mov	 DWORD PTR tv1269[rsp], eax
  01e4c	b9 01 00 00 00	 mov	 ecx, 1
  01e51	ff 15 00 00 00
	00		 call	 QWORD PTR __imp___acrt_iob_func
  01e57	48 8b 8c 24 40
	02 00 00	 mov	 rcx, QWORD PTR tv1262[rsp]
  01e5f	48 89 4c 24 48	 mov	 QWORD PTR [rsp+72], rcx
  01e64	8b 8c 24 68 01
	00 00		 mov	 ecx, DWORD PTR tv1269[rsp]
  01e6b	89 4c 24 40	 mov	 DWORD PTR [rsp+64], ecx
  01e6f	48 8d 0d 00 00
	00 00		 lea	 rcx, OFFSET FLAT:$SG160849
  01e76	48 89 4c 24 38	 mov	 QWORD PTR [rsp+56], rcx
  01e7b	48 8d 0d 00 00
	00 00		 lea	 rcx, OFFSET FLAT:$SG160850
  01e82	48 89 4c 24 30	 mov	 QWORD PTR [rsp+48], rcx
  01e87	48 8d 0d 00 00
	00 00		 lea	 rcx, OFFSET FLAT:$SG160851
  01e8e	48 89 4c 24 28	 mov	 QWORD PTR [rsp+40], rcx
  01e93	48 89 44 24 20	 mov	 QWORD PTR [rsp+32], rax
  01e98	41 b9 03 00 00
	00		 mov	 r9d, 3
  01e9e	4c 8d 05 00 00
	00 00		 lea	 r8, OFFSET FLAT:$SG160852
  01ea5	ba 48 08 00 00	 mov	 edx, 2120		; 00000848H
  01eaa	48 8d 0d 00 00
	00 00		 lea	 rcx, OFFSET FLAT:$SG160853
  01eb1	ff 15 00 00 00
	00		 call	 QWORD PTR __imp_fwritemsg

; 2121 :             WRMSG( HHC00854, "I", "IE", sysblk.regs[i]->cpuad, IS_IC_PTIMER(     GUEST( sysblk.regs[i] )) ? "" : "not ");

  01eb7	48 63 84 24 a0
	00 00 00	 movsxd	 rax, DWORD PTR i$[rsp]
  01ebf	48 8b 0d 00 00
	00 00		 mov	 rcx, QWORD PTR __imp_sysblk
  01ec6	48 8b 84 c1 98
	0b 00 00	 mov	 rax, QWORD PTR [rcx+rax*8+2968]
  01ece	48 8b 80 70 08
	00 00		 mov	 rax, QWORD PTR [rax+2160]
  01ed5	8b 40 48	 mov	 eax, DWORD PTR [rax+72]
  01ed8	25 00 04 00 00	 and	 eax, 1024		; 00000400H
  01edd	85 c0		 test	 eax, eax
  01edf	74 11		 je	 SHORT $LN99@ipending_c
  01ee1	48 8d 05 00 00
	00 00		 lea	 rax, OFFSET FLAT:$SG160854
  01ee8	48 89 84 24 48
	02 00 00	 mov	 QWORD PTR tv1289[rsp], rax
  01ef0	eb 0f		 jmp	 SHORT $LN100@ipending_c
$LN99@ipending_c:
  01ef2	48 8d 05 00 00
	00 00		 lea	 rax, OFFSET FLAT:$SG160855
  01ef9	48 89 84 24 48
	02 00 00	 mov	 QWORD PTR tv1289[rsp], rax
$LN100@ipending_c:
  01f01	48 63 84 24 a0
	00 00 00	 movsxd	 rax, DWORD PTR i$[rsp]
  01f09	48 8b 0d 00 00
	00 00		 mov	 rcx, QWORD PTR __imp_sysblk
  01f10	48 8b 84 c1 98
	0b 00 00	 mov	 rax, QWORD PTR [rcx+rax*8+2968]
  01f18	0f b7 80 3c 08
	00 00		 movzx	 eax, WORD PTR [rax+2108]
  01f1f	89 84 24 6c 01
	00 00		 mov	 DWORD PTR tv1296[rsp], eax
  01f26	b9 01 00 00 00	 mov	 ecx, 1
  01f2b	ff 15 00 00 00
	00		 call	 QWORD PTR __imp___acrt_iob_func
  01f31	48 8b 8c 24 48
	02 00 00	 mov	 rcx, QWORD PTR tv1289[rsp]
  01f39	48 89 4c 24 48	 mov	 QWORD PTR [rsp+72], rcx
  01f3e	8b 8c 24 6c 01
	00 00		 mov	 ecx, DWORD PTR tv1296[rsp]
  01f45	89 4c 24 40	 mov	 DWORD PTR [rsp+64], ecx
  01f49	48 8d 0d 00 00
	00 00		 lea	 rcx, OFFSET FLAT:$SG160856
  01f50	48 89 4c 24 38	 mov	 QWORD PTR [rsp+56], rcx
  01f55	48 8d 0d 00 00
	00 00		 lea	 rcx, OFFSET FLAT:$SG160857
  01f5c	48 89 4c 24 30	 mov	 QWORD PTR [rsp+48], rcx
  01f61	48 8d 0d 00 00
	00 00		 lea	 rcx, OFFSET FLAT:$SG160858
  01f68	48 89 4c 24 28	 mov	 QWORD PTR [rsp+40], rcx
  01f6d	48 89 44 24 20	 mov	 QWORD PTR [rsp+32], rax
  01f72	41 b9 03 00 00
	00		 mov	 r9d, 3
  01f78	4c 8d 05 00 00
	00 00		 lea	 r8, OFFSET FLAT:$SG160859
  01f7f	ba 49 08 00 00	 mov	 edx, 2121		; 00000849H
  01f84	48 8d 0d 00 00
	00 00		 lea	 rcx, OFFSET FLAT:$SG160860
  01f8b	ff 15 00 00 00
	00		 call	 QWORD PTR __imp_fwritemsg

; 2122 :             WRMSG( HHC00855, "I", "IE", sysblk.regs[i]->cpuad, IS_IC_ITIMER(     GUEST( sysblk.regs[i] )) ? "" : "not ");

  01f91	48 63 84 24 a0
	00 00 00	 movsxd	 rax, DWORD PTR i$[rsp]
  01f99	48 8b 0d 00 00
	00 00		 mov	 rcx, QWORD PTR __imp_sysblk
  01fa0	48 8b 84 c1 98
	0b 00 00	 mov	 rax, QWORD PTR [rcx+rax*8+2968]
  01fa8	48 8b 80 70 08
	00 00		 mov	 rax, QWORD PTR [rax+2160]
  01faf	8b 40 48	 mov	 eax, DWORD PTR [rax+72]
  01fb2	25 80 00 00 00	 and	 eax, 128		; 00000080H
  01fb7	85 c0		 test	 eax, eax
  01fb9	74 11		 je	 SHORT $LN101@ipending_c
  01fbb	48 8d 05 00 00
	00 00		 lea	 rax, OFFSET FLAT:$SG160861
  01fc2	48 89 84 24 50
	02 00 00	 mov	 QWORD PTR tv1316[rsp], rax
  01fca	eb 0f		 jmp	 SHORT $LN102@ipending_c
$LN101@ipending_c:
  01fcc	48 8d 05 00 00
	00 00		 lea	 rax, OFFSET FLAT:$SG160862
  01fd3	48 89 84 24 50
	02 00 00	 mov	 QWORD PTR tv1316[rsp], rax
$LN102@ipending_c:
  01fdb	48 63 84 24 a0
	00 00 00	 movsxd	 rax, DWORD PTR i$[rsp]
  01fe3	48 8b 0d 00 00
	00 00		 mov	 rcx, QWORD PTR __imp_sysblk
  01fea	48 8b 84 c1 98
	0b 00 00	 mov	 rax, QWORD PTR [rcx+rax*8+2968]
  01ff2	0f b7 80 3c 08
	00 00		 movzx	 eax, WORD PTR [rax+2108]
  01ff9	89 84 24 70 01
	00 00		 mov	 DWORD PTR tv1323[rsp], eax
  02000	b9 01 00 00 00	 mov	 ecx, 1
  02005	ff 15 00 00 00
	00		 call	 QWORD PTR __imp___acrt_iob_func
  0200b	48 8b 8c 24 50
	02 00 00	 mov	 rcx, QWORD PTR tv1316[rsp]
  02013	48 89 4c 24 48	 mov	 QWORD PTR [rsp+72], rcx
  02018	8b 8c 24 70 01
	00 00		 mov	 ecx, DWORD PTR tv1323[rsp]
  0201f	89 4c 24 40	 mov	 DWORD PTR [rsp+64], ecx
  02023	48 8d 0d 00 00
	00 00		 lea	 rcx, OFFSET FLAT:$SG160863
  0202a	48 89 4c 24 38	 mov	 QWORD PTR [rsp+56], rcx
  0202f	48 8d 0d 00 00
	00 00		 lea	 rcx, OFFSET FLAT:$SG160864
  02036	48 89 4c 24 30	 mov	 QWORD PTR [rsp+48], rcx
  0203b	48 8d 0d 00 00
	00 00		 lea	 rcx, OFFSET FLAT:$SG160865
  02042	48 89 4c 24 28	 mov	 QWORD PTR [rsp+40], rcx
  02047	48 89 44 24 20	 mov	 QWORD PTR [rsp+32], rax
  0204c	41 b9 03 00 00
	00		 mov	 r9d, 3
  02052	4c 8d 05 00 00
	00 00		 lea	 r8, OFFSET FLAT:$SG160866
  02059	ba 4a 08 00 00	 mov	 edx, 2122		; 0000084aH
  0205e	48 8d 0d 00 00
	00 00		 lea	 rcx, OFFSET FLAT:$SG160867
  02065	ff 15 00 00 00
	00		 call	 QWORD PTR __imp_fwritemsg

; 2123 :             WRMSG( HHC00857, "I", "IE", sysblk.regs[i]->cpuad, IS_IC_EXTCALL(    GUEST( sysblk.regs[i] )) ? "" : "not ");

  0206b	48 63 84 24 a0
	00 00 00	 movsxd	 rax, DWORD PTR i$[rsp]
  02073	48 8b 0d 00 00
	00 00		 mov	 rcx, QWORD PTR __imp_sysblk
  0207a	48 8b 84 c1 98
	0b 00 00	 mov	 rax, QWORD PTR [rcx+rax*8+2968]
  02082	48 8b 80 70 08
	00 00		 mov	 rax, QWORD PTR [rax+2160]
  02089	8b 40 48	 mov	 eax, DWORD PTR [rax+72]
  0208c	25 00 20 00 00	 and	 eax, 8192		; 00002000H
  02091	85 c0		 test	 eax, eax
  02093	74 11		 je	 SHORT $LN103@ipending_c
  02095	48 8d 05 00 00
	00 00		 lea	 rax, OFFSET FLAT:$SG160868
  0209c	48 89 84 24 58
	02 00 00	 mov	 QWORD PTR tv1343[rsp], rax
  020a4	eb 0f		 jmp	 SHORT $LN104@ipending_c
$LN103@ipending_c:
  020a6	48 8d 05 00 00
	00 00		 lea	 rax, OFFSET FLAT:$SG160869
  020ad	48 89 84 24 58
	02 00 00	 mov	 QWORD PTR tv1343[rsp], rax
$LN104@ipending_c:
  020b5	48 63 84 24 a0
	00 00 00	 movsxd	 rax, DWORD PTR i$[rsp]
  020bd	48 8b 0d 00 00
	00 00		 mov	 rcx, QWORD PTR __imp_sysblk
  020c4	48 8b 84 c1 98
	0b 00 00	 mov	 rax, QWORD PTR [rcx+rax*8+2968]
  020cc	0f b7 80 3c 08
	00 00		 movzx	 eax, WORD PTR [rax+2108]
  020d3	89 84 24 74 01
	00 00		 mov	 DWORD PTR tv1382[rsp], eax
  020da	b9 01 00 00 00	 mov	 ecx, 1
  020df	ff 15 00 00 00
	00		 call	 QWORD PTR __imp___acrt_iob_func
  020e5	48 8b 8c 24 58
	02 00 00	 mov	 rcx, QWORD PTR tv1343[rsp]
  020ed	48 89 4c 24 48	 mov	 QWORD PTR [rsp+72], rcx
  020f2	8b 8c 24 74 01
	00 00		 mov	 ecx, DWORD PTR tv1382[rsp]
  020f9	89 4c 24 40	 mov	 DWORD PTR [rsp+64], ecx
  020fd	48 8d 0d 00 00
	00 00		 lea	 rcx, OFFSET FLAT:$SG160870
  02104	48 89 4c 24 38	 mov	 QWORD PTR [rsp+56], rcx
  02109	48 8d 0d 00 00
	00 00		 lea	 rcx, OFFSET FLAT:$SG160871
  02110	48 89 4c 24 30	 mov	 QWORD PTR [rsp+48], rcx
  02115	48 8d 0d 00 00
	00 00		 lea	 rcx, OFFSET FLAT:$SG160872
  0211c	48 89 4c 24 28	 mov	 QWORD PTR [rsp+40], rcx
  02121	48 89 44 24 20	 mov	 QWORD PTR [rsp+32], rax
  02126	41 b9 03 00 00
	00		 mov	 r9d, 3
  0212c	4c 8d 05 00 00
	00 00		 lea	 r8, OFFSET FLAT:$SG160873
  02133	ba 4b 08 00 00	 mov	 edx, 2123		; 0000084bH
  02138	48 8d 0d 00 00
	00 00		 lea	 rcx, OFFSET FLAT:$SG160874
  0213f	ff 15 00 00 00
	00		 call	 QWORD PTR __imp_fwritemsg

; 2124 :             WRMSG( HHC00858, "I", "IE", sysblk.regs[i]->cpuad, IS_IC_EMERSIG(    GUEST( sysblk.regs[i] )) ? "" : "not ");

  02145	48 63 84 24 a0
	00 00 00	 movsxd	 rax, DWORD PTR i$[rsp]
  0214d	48 8b 0d 00 00
	00 00		 mov	 rcx, QWORD PTR __imp_sysblk
  02154	48 8b 84 c1 98
	0b 00 00	 mov	 rax, QWORD PTR [rcx+rax*8+2968]
  0215c	48 8b 80 70 08
	00 00		 mov	 rax, QWORD PTR [rax+2160]
  02163	8b 40 48	 mov	 eax, DWORD PTR [rax+72]
  02166	25 00 40 00 00	 and	 eax, 16384		; 00004000H
  0216b	85 c0		 test	 eax, eax
  0216d	74 11		 je	 SHORT $LN105@ipending_c
  0216f	48 8d 05 00 00
	00 00		 lea	 rax, OFFSET FLAT:$SG160875
  02176	48 89 84 24 60
	02 00 00	 mov	 QWORD PTR tv1402[rsp], rax
  0217e	eb 0f		 jmp	 SHORT $LN106@ipending_c
$LN105@ipending_c:
  02180	48 8d 05 00 00
	00 00		 lea	 rax, OFFSET FLAT:$SG160876
  02187	48 89 84 24 60
	02 00 00	 mov	 QWORD PTR tv1402[rsp], rax
$LN106@ipending_c:
  0218f	48 63 84 24 a0
	00 00 00	 movsxd	 rax, DWORD PTR i$[rsp]
  02197	48 8b 0d 00 00
	00 00		 mov	 rcx, QWORD PTR __imp_sysblk
  0219e	48 8b 84 c1 98
	0b 00 00	 mov	 rax, QWORD PTR [rcx+rax*8+2968]
  021a6	0f b7 80 3c 08
	00 00		 movzx	 eax, WORD PTR [rax+2108]
  021ad	89 84 24 78 01
	00 00		 mov	 DWORD PTR tv1409[rsp], eax
  021b4	b9 01 00 00 00	 mov	 ecx, 1
  021b9	ff 15 00 00 00
	00		 call	 QWORD PTR __imp___acrt_iob_func
  021bf	48 8b 8c 24 60
	02 00 00	 mov	 rcx, QWORD PTR tv1402[rsp]
  021c7	48 89 4c 24 48	 mov	 QWORD PTR [rsp+72], rcx
  021cc	8b 8c 24 78 01
	00 00		 mov	 ecx, DWORD PTR tv1409[rsp]
  021d3	89 4c 24 40	 mov	 DWORD PTR [rsp+64], ecx
  021d7	48 8d 0d 00 00
	00 00		 lea	 rcx, OFFSET FLAT:$SG160877
  021de	48 89 4c 24 38	 mov	 QWORD PTR [rsp+56], rcx
  021e3	48 8d 0d 00 00
	00 00		 lea	 rcx, OFFSET FLAT:$SG160878
  021ea	48 89 4c 24 30	 mov	 QWORD PTR [rsp+48], rcx
  021ef	48 8d 0d 00 00
	00 00		 lea	 rcx, OFFSET FLAT:$SG160879
  021f6	48 89 4c 24 28	 mov	 QWORD PTR [rsp+40], rcx
  021fb	48 89 44 24 20	 mov	 QWORD PTR [rsp+32], rax
  02200	41 b9 03 00 00
	00		 mov	 r9d, 3
  02206	4c 8d 05 00 00
	00 00		 lea	 r8, OFFSET FLAT:$SG160880
  0220d	ba 4c 08 00 00	 mov	 edx, 2124		; 0000084cH
  02212	48 8d 0d 00 00
	00 00		 lea	 rcx, OFFSET FLAT:$SG160881
  02219	ff 15 00 00 00
	00		 call	 QWORD PTR __imp_fwritemsg

; 2125 :             WRMSG( HHC00859, "I", "IE", sysblk.regs[i]->cpuad, IS_IC_MCKPENDING( GUEST( sysblk.regs[i] )) ? "" : "not ");

  0221f	48 63 84 24 a0
	00 00 00	 movsxd	 rax, DWORD PTR i$[rsp]
  02227	48 8b 0d 00 00
	00 00		 mov	 rcx, QWORD PTR __imp_sysblk
  0222e	48 8b 84 c1 98
	0b 00 00	 mov	 rax, QWORD PTR [rcx+rax*8+2968]
  02236	48 8b 80 70 08
	00 00		 mov	 rax, QWORD PTR [rax+2160]
  0223d	8b 40 48	 mov	 eax, DWORD PTR [rax+72]
  02240	25 00 00 00 1f	 and	 eax, 520093696		; 1f000000H
  02245	85 c0		 test	 eax, eax
  02247	74 11		 je	 SHORT $LN107@ipending_c
  02249	48 8d 05 00 00
	00 00		 lea	 rax, OFFSET FLAT:$SG160882
  02250	48 89 84 24 68
	02 00 00	 mov	 QWORD PTR tv1429[rsp], rax
  02258	eb 0f		 jmp	 SHORT $LN108@ipending_c
$LN107@ipending_c:
  0225a	48 8d 05 00 00
	00 00		 lea	 rax, OFFSET FLAT:$SG160883
  02261	48 89 84 24 68
	02 00 00	 mov	 QWORD PTR tv1429[rsp], rax
$LN108@ipending_c:
  02269	48 63 84 24 a0
	00 00 00	 movsxd	 rax, DWORD PTR i$[rsp]
  02271	48 8b 0d 00 00
	00 00		 mov	 rcx, QWORD PTR __imp_sysblk
  02278	48 8b 84 c1 98
	0b 00 00	 mov	 rax, QWORD PTR [rcx+rax*8+2968]
  02280	0f b7 80 3c 08
	00 00		 movzx	 eax, WORD PTR [rax+2108]
  02287	89 84 24 9c 01
	00 00		 mov	 DWORD PTR tv1436[rsp], eax
  0228e	b9 01 00 00 00	 mov	 ecx, 1
  02293	ff 15 00 00 00
	00		 call	 QWORD PTR __imp___acrt_iob_func
  02299	48 8b 8c 24 68
	02 00 00	 mov	 rcx, QWORD PTR tv1429[rsp]
  022a1	48 89 4c 24 48	 mov	 QWORD PTR [rsp+72], rcx
  022a6	8b 8c 24 9c 01
	00 00		 mov	 ecx, DWORD PTR tv1436[rsp]
  022ad	89 4c 24 40	 mov	 DWORD PTR [rsp+64], ecx
  022b1	48 8d 0d 00 00
	00 00		 lea	 rcx, OFFSET FLAT:$SG160884
  022b8	48 89 4c 24 38	 mov	 QWORD PTR [rsp+56], rcx
  022bd	48 8d 0d 00 00
	00 00		 lea	 rcx, OFFSET FLAT:$SG160885
  022c4	48 89 4c 24 30	 mov	 QWORD PTR [rsp+48], rcx
  022c9	48 8d 0d 00 00
	00 00		 lea	 rcx, OFFSET FLAT:$SG160886
  022d0	48 89 4c 24 28	 mov	 QWORD PTR [rsp+40], rcx
  022d5	48 89 44 24 20	 mov	 QWORD PTR [rsp+32], rax
  022da	41 b9 03 00 00
	00		 mov	 r9d, 3
  022e0	4c 8d 05 00 00
	00 00		 lea	 r8, OFFSET FLAT:$SG160887
  022e7	ba 4d 08 00 00	 mov	 edx, 2125		; 0000084dH
  022ec	48 8d 0d 00 00
	00 00		 lea	 rcx, OFFSET FLAT:$SG160888
  022f3	ff 15 00 00 00
	00		 call	 QWORD PTR __imp_fwritemsg

; 2126 :             WRMSG( HHC00860, "I", "IE", sysblk.regs[i]->cpuad, IS_IC_SERVSIG ? "" : "not ");

  022f9	48 8b 05 00 00
	00 00		 mov	 rax, QWORD PTR __imp_sysblk
  02300	8b 80 a0 12 00
	00		 mov	 eax, DWORD PTR [rax+4768]
  02306	25 00 02 00 00	 and	 eax, 512		; 00000200H
  0230b	85 c0		 test	 eax, eax
  0230d	74 11		 je	 SHORT $LN109@ipending_c
  0230f	48 8d 05 00 00
	00 00		 lea	 rax, OFFSET FLAT:$SG160889
  02316	48 89 84 24 70
	02 00 00	 mov	 QWORD PTR tv1451[rsp], rax
  0231e	eb 0f		 jmp	 SHORT $LN110@ipending_c
$LN109@ipending_c:
  02320	48 8d 05 00 00
	00 00		 lea	 rax, OFFSET FLAT:$SG160890
  02327	48 89 84 24 70
	02 00 00	 mov	 QWORD PTR tv1451[rsp], rax
$LN110@ipending_c:
  0232f	48 63 84 24 a0
	00 00 00	 movsxd	 rax, DWORD PTR i$[rsp]
  02337	48 8b 0d 00 00
	00 00		 mov	 rcx, QWORD PTR __imp_sysblk
  0233e	48 8b 84 c1 98
	0b 00 00	 mov	 rax, QWORD PTR [rcx+rax*8+2968]
  02346	0f b7 80 3c 08
	00 00		 movzx	 eax, WORD PTR [rax+2108]
  0234d	89 84 24 80 01
	00 00		 mov	 DWORD PTR tv1458[rsp], eax
  02354	b9 01 00 00 00	 mov	 ecx, 1
  02359	ff 15 00 00 00
	00		 call	 QWORD PTR __imp___acrt_iob_func
  0235f	48 8b 8c 24 70
	02 00 00	 mov	 rcx, QWORD PTR tv1451[rsp]
  02367	48 89 4c 24 48	 mov	 QWORD PTR [rsp+72], rcx
  0236c	8b 8c 24 80 01
	00 00		 mov	 ecx, DWORD PTR tv1458[rsp]
  02373	89 4c 24 40	 mov	 DWORD PTR [rsp+64], ecx
  02377	48 8d 0d 00 00
	00 00		 lea	 rcx, OFFSET FLAT:$SG160891
  0237e	48 89 4c 24 38	 mov	 QWORD PTR [rsp+56], rcx
  02383	48 8d 0d 00 00
	00 00		 lea	 rcx, OFFSET FLAT:$SG160892
  0238a	48 89 4c 24 30	 mov	 QWORD PTR [rsp+48], rcx
  0238f	48 8d 0d 00 00
	00 00		 lea	 rcx, OFFSET FLAT:$SG160893
  02396	48 89 4c 24 28	 mov	 QWORD PTR [rsp+40], rcx
  0239b	48 89 44 24 20	 mov	 QWORD PTR [rsp+32], rax
  023a0	41 b9 03 00 00
	00		 mov	 r9d, 3
  023a6	4c 8d 05 00 00
	00 00		 lea	 r8, OFFSET FLAT:$SG160894
  023ad	ba 4e 08 00 00	 mov	 edx, 2126		; 0000084eH
  023b2	48 8d 0d 00 00
	00 00		 lea	 rcx, OFFSET FLAT:$SG160895
  023b9	ff 15 00 00 00
	00		 call	 QWORD PTR __imp_fwritemsg

; 2127 :             WRMSG( HHC00864, "I", "IE", sysblk.regs[i]->cpuad, test_lock(&sysblk.cpulock[i]) ? "" : "not ");

  023bf	48 63 84 24 a0
	00 00 00	 movsxd	 rax, DWORD PTR i$[rsp]
  023c7	48 8b 0d 00 00
	00 00		 mov	 rcx, QWORD PTR __imp_sysblk
  023ce	48 8d 84 c1 48
	01 00 00	 lea	 rax, QWORD PTR [rcx+rax*8+328]
  023d6	48 8b c8	 mov	 rcx, rax
  023d9	ff 15 00 00 00
	00		 call	 QWORD PTR __imp_hthread_test_lock
  023df	85 c0		 test	 eax, eax
  023e1	74 11		 je	 SHORT $LN111@ipending_c
  023e3	48 8d 05 00 00
	00 00		 lea	 rax, OFFSET FLAT:$SG160896
  023ea	48 89 84 24 78
	02 00 00	 mov	 QWORD PTR tv1509[rsp], rax
  023f2	eb 0f		 jmp	 SHORT $LN112@ipending_c
$LN111@ipending_c:
  023f4	48 8d 05 00 00
	00 00		 lea	 rax, OFFSET FLAT:$SG160897
  023fb	48 89 84 24 78
	02 00 00	 mov	 QWORD PTR tv1509[rsp], rax
$LN112@ipending_c:
  02403	48 63 84 24 a0
	00 00 00	 movsxd	 rax, DWORD PTR i$[rsp]
  0240b	48 8b 0d 00 00
	00 00		 mov	 rcx, QWORD PTR __imp_sysblk
  02412	48 8b 84 c1 98
	0b 00 00	 mov	 rax, QWORD PTR [rcx+rax*8+2968]
  0241a	0f b7 80 3c 08
	00 00		 movzx	 eax, WORD PTR [rax+2108]
  02421	89 84 24 84 01
	00 00		 mov	 DWORD PTR tv1516[rsp], eax
  02428	b9 01 00 00 00	 mov	 ecx, 1
  0242d	ff 15 00 00 00
	00		 call	 QWORD PTR __imp___acrt_iob_func
  02433	48 8b 8c 24 78
	02 00 00	 mov	 rcx, QWORD PTR tv1509[rsp]
  0243b	48 89 4c 24 48	 mov	 QWORD PTR [rsp+72], rcx
  02440	8b 8c 24 84 01
	00 00		 mov	 ecx, DWORD PTR tv1516[rsp]
  02447	89 4c 24 40	 mov	 DWORD PTR [rsp+64], ecx
  0244b	48 8d 0d 00 00
	00 00		 lea	 rcx, OFFSET FLAT:$SG160898
  02452	48 89 4c 24 38	 mov	 QWORD PTR [rsp+56], rcx
  02457	48 8d 0d 00 00
	00 00		 lea	 rcx, OFFSET FLAT:$SG160899
  0245e	48 89 4c 24 30	 mov	 QWORD PTR [rsp+48], rcx
  02463	48 8d 0d 00 00
	00 00		 lea	 rcx, OFFSET FLAT:$SG160900
  0246a	48 89 4c 24 28	 mov	 QWORD PTR [rsp+40], rcx
  0246f	48 89 44 24 20	 mov	 QWORD PTR [rsp+32], rax
  02474	41 b9 03 00 00
	00		 mov	 r9d, 3
  0247a	4c 8d 05 00 00
	00 00		 lea	 r8, OFFSET FLAT:$SG160901
  02481	ba 4f 08 00 00	 mov	 edx, 2127		; 0000084fH
  02486	48 8d 0d 00 00
	00 00		 lea	 rcx, OFFSET FLAT:$SG160902
  0248d	ff 15 00 00 00
	00		 call	 QWORD PTR __imp_fwritemsg

; 2128 : 
; 2129 :             if (ARCH_370_IDX == sysblk.arch_mode)

  02493	48 8b 05 00 00
	00 00		 mov	 rax, QWORD PTR __imp_sysblk
  0249a	83 b8 88 00 00
	00 00		 cmp	 DWORD PTR [rax+136], 0
  024a1	0f 85 1a 01 00
	00		 jne	 $LN35@ipending_c

; 2130 :             {
; 2131 :                 if (0xFFFF == GUEST( sysblk.regs[i] )->chanset)

  024a7	48 63 84 24 a0
	00 00 00	 movsxd	 rax, DWORD PTR i$[rsp]
  024af	48 8b 0d 00 00
	00 00		 mov	 rcx, QWORD PTR __imp_sysblk
  024b6	48 8b 84 c1 98
	0b 00 00	 mov	 rax, QWORD PTR [rcx+rax*8+2968]
  024be	48 8b 80 70 08
	00 00		 mov	 rax, QWORD PTR [rax+2160]
  024c5	0f b7 80 38 08
	00 00		 movzx	 eax, WORD PTR [rax+2104]
  024cc	3d ff ff 00 00	 cmp	 eax, 65535		; 0000ffffH
  024d1	75 1c		 jne	 SHORT $LN36@ipending_c

; 2132 :                 {
; 2133 :                     MSGBUF( buf, "none");

  024d3	4c 8d 05 00 00
	00 00		 lea	 r8, OFFSET FLAT:$SG160906
  024da	ba 00 01 00 00	 mov	 edx, 256		; 00000100H
  024df	48 8d 8c 24 40
	04 00 00	 lea	 rcx, QWORD PTR buf$[rsp]
  024e7	ff 15 00 00 00
	00		 call	 QWORD PTR __imp_w32_snprintf

; 2134 :                 }

  024ed	eb 42		 jmp	 SHORT $LN37@ipending_c
$LN36@ipending_c:

; 2135 :                 else
; 2136 :                 {
; 2137 :                     MSGBUF( buf, "%4.4X", GUEST( sysblk.regs[i] )->chanset);

  024ef	48 63 84 24 a0
	00 00 00	 movsxd	 rax, DWORD PTR i$[rsp]
  024f7	48 8b 0d 00 00
	00 00		 mov	 rcx, QWORD PTR __imp_sysblk
  024fe	48 8b 84 c1 98
	0b 00 00	 mov	 rax, QWORD PTR [rcx+rax*8+2968]
  02506	48 8b 80 70 08
	00 00		 mov	 rax, QWORD PTR [rax+2160]
  0250d	0f b7 80 38 08
	00 00		 movzx	 eax, WORD PTR [rax+2104]
  02514	44 8b c8	 mov	 r9d, eax
  02517	4c 8d 05 00 00
	00 00		 lea	 r8, OFFSET FLAT:$SG160907
  0251e	ba 00 01 00 00	 mov	 edx, 256		; 00000100H
  02523	48 8d 8c 24 40
	04 00 00	 lea	 rcx, QWORD PTR buf$[rsp]
  0252b	ff 15 00 00 00
	00		 call	 QWORD PTR __imp_w32_snprintf
$LN37@ipending_c:

; 2138 :                 }
; 2139 :                 WRMSG( HHC00865, "I", "IE", sysblk.regs[i]->cpuad, buf );

  02531	48 63 84 24 a0
	00 00 00	 movsxd	 rax, DWORD PTR i$[rsp]
  02539	48 8b 0d 00 00
	00 00		 mov	 rcx, QWORD PTR __imp_sysblk
  02540	48 8b 84 c1 98
	0b 00 00	 mov	 rax, QWORD PTR [rcx+rax*8+2968]
  02548	0f b7 80 3c 08
	00 00		 movzx	 eax, WORD PTR [rax+2108]
  0254f	89 84 24 88 01
	00 00		 mov	 DWORD PTR tv1558[rsp], eax
  02556	b9 01 00 00 00	 mov	 ecx, 1
