; Listing generated by Microsoft (R) Optimizing Compiler Version 19.34.31937.0 

include listing.inc

INCLUDELIB MSVCRTD
INCLUDELIB OLDNAMES

_DATA	SEGMENT
$SG195236 DB	'Device Status    ', 00H
	ORG $+6
$SG195237 DB	'Unit Status      ', 00H
	ORG $+2
$SG195433 DB	'0', 00H
	ORG $+2
$SG195238 DB	'Subchannel Status', 00H
	ORG $+2
$SG195434 DB	'1', 00H
	ORG $+2
$SG195435 DB	'MONIT', 00H
	ORG $+2
$SG195436 DB	'SUBCH', 00H
	ORG $+2
$SG195437 DB	'CHPID', 00H
	ORG $+2
$SG195438 DB	'5', 00H
	ORG $+2
$SG195439 DB	'6', 00H
	ORG $+2
$SG195440 DB	'7', 00H
	ORG $+2
$SG195441 DB	'8', 00H
	ORG $+2
$SG195442 DB	'CAF', 00H
$SG195443 DB	'10', 00H
	ORG $+1
$SG195444 DB	'CSS', 00H
$SG195445 DB	'NULL', 00H
	ORG $+3
$SG195446 DB	'AVAIL', 00H
	ORG $+2
$SG195447 DB	'INIT', 00H
	ORG $+3
$SG195448 DB	'TEMP', 00H
	ORG $+3
$SG195449 DB	'ALERT', 00H
	ORG $+2
$SG195450 DB	'ABORT', 00H
	ORG $+2
$SG195451 DB	'ERROR', 00H
	ORG $+2
$SG195452 DB	'RESET', 00H
	ORG $+2
$SG195453 DB	'MODFY', 00H
	ORG $+2
$SG195454 DB	'9', 00H
	ORG $+2
$SG195455 DB	'RSTRD', 00H
	ORG $+2
$SG195492 DB	'00', 00H
	ORG $+1
$SG195493 DB	'RD', 00H
	ORG $+1
$SG195494 DB	'WR', 00H
	ORG $+1
$SG195495 DB	'BW', 00H
	ORG $+1
$SG195496 DB	'HA', 00H
	ORG $+1
$SG195497 DB	'ST', 00H
	ORG $+1
$SG195498 DB	'CL', 00H
	ORG $+1
$SG195499 DB	'11', 00H
	ORG $+1
$SG195554 DB	'UNUSED', 00H
	ORG $+1
$SG195555 DB	'NEQ', 00H
$SG195556 DB	'GENEQ', 00H
	ORG $+2
$SG195557 DB	'NED', 00H
$SG195580 DB	'NEXT', 00H
	ORG $+3
$SG195581 DB	'UNIQUE', 00H
	ORG $+1
$SG195582 DB	'NODE', 00H
	ORG $+3
$SG195583 DB	'CODE3', 00H
	ORG $+2
$SG195584 DB	'UNSPEC', 00H
	ORG $+1
$SG195585 DB	'DEVICE', 00H
	ORG $+1
$SG195586 DB	'CTLUNIT', 00H
$SG195587 DB	'UNKNOWN', 00H
$SG195588 DB	'DASD', 00H
	ORG $+3
$SG195589 DB	'TAPE', 00H
	ORG $+3
$SG195590 DB	'READER', 00H
	ORG $+1
$SG195591 DB	'PUNCH', 00H
	ORG $+2
$SG195592 DB	'PRINTER', 00H
$SG195593 DB	'COMM', 00H
	ORG $+3
$SG195594 DB	'DISPLAY', 00H
$SG195595 DB	'CONSOLE', 00H
$SG195596 DB	'CTCA', 00H
	ORG $+3
$SG195597 DB	'SWITCH', 00H
	ORG $+1
$SG195598 DB	'PROTO', 00H
	ORG $+2
$SG195721 DB	'UNKNOWN', 00H
$SG195722 DB	'CHPATH', 00H
	ORG $+1
$SG195723 DB	'CTCA', 00H
	ORG $+3
$SG195724 DB	'VALID', 00H
	ORG $+2
$SG195725 DB	'UNSURE', 00H
	ORG $+1
$SG195726 DB	'INVALID', 00H
$SG195727 DB	'3', 00H
	ORG $+2
$SG195728 DB	'4', 00H
	ORG $+2
$SG195729 DB	'5', 00H
	ORG $+2
$SG195730 DB	'6', 00H
	ORG $+2
$SG195731 DB	'7', 00H
	ORG $+2
$SG195735 DB	'READER', 00H
	ORG $+1
$SG195779 DB	'IIL', 00H
$SG195732 DB	'UNKNOWN', 00H
$SG195733 DB	'DASD', 00H
	ORG $+3
$SG195734 DB	'TAPE', 00H
	ORG $+3
$SG195736 DB	'PUNCH', 00H
	ORG $+2
$SG195737 DB	'PRINTER', 00H
$SG195738 DB	'COMM', 00H
	ORG $+3
$SG195739 DB	'DISPLAY', 00H
$SG195740 DB	'CONSOLE', 00H
$SG195741 DB	'CTCA', 00H
	ORG $+3
$SG195742 DB	'SWITCH', 00H
	ORG $+1
$SG195743 DB	'PROTO', 00H
	ORG $+2
$SG195780 DB	'MODEP', 00H
	ORG $+2
$SG195781 DB	'2', 00H
	ORG $+2
$SG195782 DB	'3', 00H
	ORG $+2
$SG195783 DB	'4', 00H
	ORG $+2
$SG195784 DB	'5', 00H
	ORG $+2
$SG195785 DB	'6', 00H
	ORG $+2
$SG195786 DB	'7', 00H
	ORG $+2
$SG195836 DB	'RCD', 00H
$SG195837 DB	'SII', 00H
$SG195838 DB	'RNI', 00H
$SG195839 DB	'3  ', 00H
$SG195840 DB	'4  ', 00H
$SG195841 DB	'5  ', 00H
$SG195842 DB	'6  ', 00H
$SG195843 DB	'7  ', 00H
$SG195844 DB	'8  ', 00H
$SG195845 DB	'9  ', 00H
$SG195846 DB	'10 ', 00H
$SG195847 DB	'11 ', 00H
$SG195848 DB	'12 ', 00H
$SG195849 DB	'13 ', 00H
$SG195850 DB	'14 ', 00H
$SG195851 DB	'15 ', 00H
_DATA	ENDS
CONST	SEGMENT
CKD_ENDTRK DB	0ffH
	DB	0ffH
	DB	0ffH
	DB	0ffH
	DB	0ffH
	DB	0ffH
	DB	0ffH
	DB	0ffH
?numrsc@?1??FormatCRW@@9@9 DB 0cH			; `FormatCRW'::`2'::numrsc
?numerc@?1??FormatCRW@@9@9 DB 0bH			; `FormatCRW'::`2'::numerc
CONST	ENDS
PUBLIC	__local_stdio_printf_options
PUBLIC	__local_stdio_scanf_options
PUBLIC	_vsnprintf_l
PUBLIC	_vsprintf_l
PUBLIC	_vsnprintf_s_l
PUBLIC	_vsnprintf_s
PUBLIC	sprintf
PUBLIC	_vsscanf_l
PUBLIC	sscanf
PUBLIC	s370_display_inst
PUBLIC	s370_display_pgmint_inst
PUBLIC	fetch_hw_noswap
PUBLIC	fetch_fw_noswap
PUBLIC	herc_system
PUBLIC	do_shutdown
PUBLIC	insttrace_all
PUBLIC	display_gregs
PUBLIC	display_fregs
PUBLIC	display_vregs
PUBLIC	display_cregs
PUBLIC	display_aregs
PUBLIC	display_subchannel
PUBLIC	display_inst_regs
PUBLIC	FormatCRW
PUBLIC	FormatSCL
PUBLIC	FormatERW
PUBLIC	FormatESW
PUBLIC	parse_range
PUBLIC	copy_regs
PUBLIC	FormatSID
PUBLIC	FormatRCD
PUBLIC	FormatRNI
PUBLIC	s370_virt_to_real
PUBLIC	s390_virt_to_real
PUBLIC	z900_virt_to_real
PUBLIC	get_connected_client
PUBLIC	alter_display_real_or_abs
PUBLIC	alter_display_virt
PUBLIC	disasm_stor
PUBLIC	s390_display_inst
PUBLIC	z900_display_inst
PUBLIC	s370_display_guest_inst
PUBLIC	s390_display_guest_inst
PUBLIC	z900_display_guest_inst
PUBLIC	_get_storekey_ptr
PUBLIC	_get_storekey1_ptr
PUBLIC	_get_storekey2_ptr
PUBLIC	s370__get_storage_key
PUBLIC	s390_display_pgmint_inst
PUBLIC	s390__get_storage_key
PUBLIC	z900_display_pgmint_inst
PUBLIC	z900__get_storage_key
PUBLIC	FormatSDC
PUBLIC	FormatNED
PUBLIC	FormatNEQ
PUBLIC	FormatND
PUBLIC	FormatNQ
PUBLIC	FormatCIW
EXTRN	__report_rangecheckfailure:PROC
EXTRN	__imp_isprint:PROC
EXTRN	__imp_isgraph:PROC
EXTRN	__imp_toupper:PROC
EXTRN	__imp__errno:PROC
EXTRN	strchr:PROC
EXTRN	strlen:PROC
EXTRN	__imp_strdup:PROC
EXTRN	__imp_IsDebuggerPresent:PROC
EXTRN	__imp_OutputDebugStringA:PROC
EXTRN	__imp_free:PROC
EXTRN	__imp_malloc:PROC
EXTRN	__imp__aligned_free:PROC
EXTRN	__imp__aligned_malloc:PROC
EXTRN	__imp_exit:PROC
EXTRN	_byteswap_ushort:PROC
EXTRN	_byteswap_ulong:PROC
EXTRN	__imp___acrt_iob_func:PROC
EXTRN	__imp_fflush:PROC
EXTRN	__imp___stdio_common_vsprintf:PROC
EXTRN	__imp___stdio_common_vsnprintf_s:PROC
EXTRN	__imp___stdio_common_vsscanf:PROC
EXTRN	__imp_hthread_obtain_lock:PROC
EXTRN	__imp_hthread_test_lock:PROC
EXTRN	__imp_hthread_release_lock:PROC
EXTRN	__imp_hthread_signal_condition:PROC
EXTRN	__imp_hthread_wait_condition:PROC
EXTRN	__imp_hthread_create_thread:PROC
EXTRN	__imp_ptt_pthread_trace:PROC
EXTRN	__imp_strlcpy:PROC
EXTRN	__imp_strlcat:PROC
EXTRN	__imp_rtrim:PROC
EXTRN	__imp_idx_snprintf:PROC
EXTRN	__imp_ptyp2short:PROC
EXTRN	__imp_PIC2Name:PROC
EXTRN	__imp_tf_2269:PROC
EXTRN	__imp_tf_2270:PROC
EXTRN	__imp_tf_2271:PROC
EXTRN	__imp_tf_2272:PROC
EXTRN	__imp_tf_2276:PROC
EXTRN	__imp_tf_2277:PROC
EXTRN	__imp_tf_2324:PROC
EXTRN	__imp_tf_2326:PROC
EXTRN	__imp_w32_strerror:PROC
EXTRN	__imp_usleep:PROC
EXTRN	__imp_sleep:PROC
EXTRN	__imp_sched_yield:PROC
EXTRN	__imp_socket_deinit:PROC
EXTRN	__imp_w32_snprintf:PROC
EXTRN	__imp_w32_fprintf:PROC
EXTRN	__imp_w32_poor_mans_fork:PROC
EXTRN	s370_store_int_timer:PROC
EXTRN	__imp_host_to_guest:PROC
EXTRN	__imp_guest_to_host:PROC
EXTRN	__imp_hdl_atexit:PROC
EXTRN	iprint_router_func:PROC
EXTRN	copy_psw:PROC
EXTRN	can_signal_quiesce:PROC
EXTRN	signal_quiesce:PROC
EXTRN	__imp_fwritemsg:PROC
EXTRN	__imp_logmsg:PROC
EXTRN	s370_logical_to_main_l:PROC
EXTRN	s390_logical_to_main_l:PROC
EXTRN	z900_logical_to_main_l:PROC
EXTRN	__imp_hexdumpew:PROC
EXTRN	__GSHandlerCheck:PROC
EXTRN	__chkstk:PROC
EXTRN	__security_check_cookie:PROC
EXTRN	_setjmp:PROC
EXTRN	__imp_pttclass:QWORD
EXTRN	__imp_sysblk:BYTE
EXTRN	__imp_daemon_task:QWORD
EXTRN	__security_cookie:QWORD
_DATA	SEGMENT
COMM	?_OptionsStorage@?1??__local_stdio_printf_options@@9@9:QWORD							; `__local_stdio_printf_options'::`2'::_OptionsStorage
COMM	?_OptionsStorage@?1??__local_stdio_scanf_options@@9@9:QWORD							; `__local_stdio_scanf_options'::`2'::_OptionsStorage
_DATA	ENDS
_BSS	SEGMENT
$SG169775 DB	01H DUP (?)
$SG170337 DB	01H DUP (?)
$SG170379 DB	01H DUP (?)
$SG170380 DB	01H DUP (?)
$SG170395 DB	01H DUP (?)
$SG180555 DB	01H DUP (?)
$SG181108 DB	01H DUP (?)
$SG181149 DB	01H DUP (?)
$SG181150 DB	01H DUP (?)
$SG181165 DB	01H DUP (?)
$SG194202 DB	01H DUP (?)
$SG194756 DB	01H DUP (?)
$SG194797 DB	01H DUP (?)
$SG194798 DB	01H DUP (?)
$SG194813 DB	01H DUP (?)
wait_for_quiesce_cancelled DB 01H DUP (?)
$SG195175 DB	01H DUP (?)
$SG195200 DB	01H DUP (?)
$SG195202 DB	01H DUP (?)
$SG195245 DB	01H DUP (?)
$SG195247 DB	01H DUP (?)
$SG195249 DB	01H DUP (?)
$SG195251 DB	01H DUP (?)
$SG195253 DB	01H DUP (?)
$SG195255 DB	01H DUP (?)
$SG195257 DB	01H DUP (?)
$SG195259 DB	01H DUP (?)
$SG195261 DB	01H DUP (?)
$SG195264 DB	01H DUP (?)
$SG195266 DB	01H DUP (?)
$SG195268 DB	01H DUP (?)
$SG195270 DB	01H DUP (?)
$SG195272 DB	01H DUP (?)
$SG195274 DB	01H DUP (?)
$SG195276 DB	01H DUP (?)
$SG195278 DB	01H DUP (?)
$SG195280 DB	01H DUP (?)
$SG195364 DB	01H DUP (?)
$SG195462 DB	01H DUP (?)
$SG195464 DB	01H DUP (?)
$SG195466 DB	01H DUP (?)
$SG195468 DB	01H DUP (?)
$SG195470 DB	01H DUP (?)
$SG195472 DB	01H DUP (?)
$SG195473 DB	01H DUP (?)
$SG195505 DB	01H DUP (?)
$SG195614 DB	01H DUP (?)
$SG195621 DB	01H DUP (?)
_BSS	ENDS
;	COMDAT pdata
pdata	SEGMENT
$pdata$_vsnprintf_l DD imagerel $LN5
	DD	imagerel $LN5+118
	DD	imagerel $unwind$_vsnprintf_l
pdata	ENDS
;	COMDAT pdata
pdata	SEGMENT
$pdata$_vsprintf_l DD imagerel $LN3
	DD	imagerel $LN3+66
	DD	imagerel $unwind$_vsprintf_l
pdata	ENDS
;	COMDAT pdata
pdata	SEGMENT
$pdata$_vsnprintf_s_l DD imagerel $LN5
	DD	imagerel $LN5+127
	DD	imagerel $unwind$_vsnprintf_s_l
pdata	ENDS
;	COMDAT pdata
pdata	SEGMENT
$pdata$_vsnprintf_s DD imagerel $LN3
	DD	imagerel $LN3+73
	DD	imagerel $unwind$_vsnprintf_s
pdata	ENDS
;	COMDAT pdata
pdata	SEGMENT
$pdata$sprintf DD imagerel $LN3
	DD	imagerel $LN3+79
	DD	imagerel $unwind$sprintf
pdata	ENDS
;	COMDAT pdata
pdata	SEGMENT
$pdata$_vsscanf_l DD imagerel $LN3
	DD	imagerel $LN3+80
	DD	imagerel $unwind$_vsscanf_l
pdata	ENDS
;	COMDAT pdata
pdata	SEGMENT
$pdata$sscanf DD imagerel $LN3
	DD	imagerel $LN3+79
	DD	imagerel $unwind$sscanf
pdata	ENDS
pdata	SEGMENT
$pdata$DebuggerTrace DD imagerel DebuggerTrace
	DD	imagerel DebuggerTrace+247
	DD	imagerel $unwind$DebuggerTrace
$pdata$s370_display_inst DD imagerel $LN3
	DD	imagerel $LN3+37
	DD	imagerel $unwind$s370_display_inst
$pdata$s370_display_pgmint_inst DD imagerel $LN3
	DD	imagerel $LN3+37
	DD	imagerel $unwind$s370_display_pgmint_inst
pdata	ENDS
;	COMDAT pdata
pdata	SEGMENT
$pdata$fetch_hw_noswap DD imagerel $LN3
	DD	imagerel $LN3+30
	DD	imagerel $unwind$fetch_hw_noswap
pdata	ENDS
;	COMDAT pdata
pdata	SEGMENT
$pdata$fetch_fw_noswap DD imagerel $LN3
	DD	imagerel $LN3+27
	DD	imagerel $unwind$fetch_fw_noswap
pdata	ENDS
pdata	SEGMENT
$pdata$herc_system DD imagerel $LN3
	DD	imagerel $LN3+156
	DD	imagerel $unwind$herc_system
$pdata$do_shutdown DD imagerel $LN9
	DD	imagerel $LN9+145
	DD	imagerel $unwind$do_shutdown
$pdata$insttrace_all DD imagerel $LN9
	DD	imagerel $LN9+136
	DD	imagerel $unwind$insttrace_all
$pdata$display_gregs DD imagerel $LN11
	DD	imagerel $LN11+387
	DD	imagerel $unwind$display_gregs
$pdata$display_fregs DD imagerel $LN7
	DD	imagerel $LN7+2078
	DD	imagerel $unwind$display_fregs
$pdata$display_vregs DD imagerel $LN8
	DD	imagerel $LN8+2350
	DD	imagerel $unwind$display_vregs
$pdata$display_cregs DD imagerel $LN11
	DD	imagerel $LN11+393
	DD	imagerel $unwind$display_cregs
$pdata$display_aregs DD imagerel $LN6
	DD	imagerel $LN6+210
	DD	imagerel $unwind$display_aregs
$pdata$display_subchannel DD imagerel $LN48
	DD	imagerel $LN48+6038
	DD	imagerel $unwind$display_subchannel
$pdata$display_inst_regs DD imagerel $LN63
	DD	imagerel $LN63+2207
	DD	imagerel $unwind$display_inst_regs
$pdata$FormatCRW DD imagerel $LN26
	DD	imagerel $LN26+906
	DD	imagerel $unwind$FormatCRW
$pdata$FormatSCL DD imagerel $LN41
	DD	imagerel $LN41+1200
	DD	imagerel $unwind$FormatSCL
$pdata$FormatERW DD imagerel $LN27
	DD	imagerel $LN27+666
	DD	imagerel $unwind$FormatERW
$pdata$FormatESW DD imagerel $LN7
	DD	imagerel $LN7+242
	DD	imagerel $unwind$FormatESW
$pdata$parse_range DD imagerel $LN42
	DD	imagerel $LN42+1986
	DD	imagerel $unwind$parse_range
$pdata$copy_regs DD imagerel $LN7
	DD	imagerel $LN7+671
	DD	imagerel $unwind$copy_regs
$pdata$FormatSID DD imagerel $LN13
	DD	imagerel $LN13+674
	DD	imagerel $unwind$FormatSID
$pdata$FormatRCD DD imagerel $LN17
	DD	imagerel $LN17+463
	DD	imagerel $unwind$FormatRCD
$pdata$FormatRNI DD imagerel $LN12
	DD	imagerel $LN12+542
	DD	imagerel $unwind$FormatRNI
$pdata$s370_virt_to_real DD imagerel $LN6
	DD	imagerel $LN6+268
	DD	imagerel $unwind$s370_virt_to_real
$pdata$s390_virt_to_real DD imagerel $LN6
	DD	imagerel $LN6+268
	DD	imagerel $unwind$s390_virt_to_real
$pdata$z900_virt_to_real DD imagerel $LN6
	DD	imagerel $LN6+269
	DD	imagerel $unwind$z900_virt_to_real
$pdata$get_connected_client DD imagerel $LN4
	DD	imagerel $LN4+187
	DD	imagerel $unwind$get_connected_client
$pdata$alter_display_real_or_abs DD imagerel $LN12
	DD	imagerel $LN12+169
	DD	imagerel $unwind$alter_display_real_or_abs
$pdata$alter_display_virt DD imagerel $LN16
	DD	imagerel $LN16+262
	DD	imagerel $unwind$alter_display_virt
$pdata$disasm_stor DD imagerel $LN16
	DD	imagerel $LN16+257
	DD	imagerel $unwind$disasm_stor
$pdata$s390_display_inst DD imagerel $LN3
	DD	imagerel $LN3+37
	DD	imagerel $unwind$s390_display_inst
$pdata$z900_display_inst DD imagerel $LN3
	DD	imagerel $LN3+37
	DD	imagerel $unwind$z900_display_inst
$pdata$s370_display_guest_inst DD imagerel $LN12
	DD	imagerel $LN12+156
	DD	imagerel $unwind$s370_display_guest_inst
$pdata$s390_display_guest_inst DD imagerel $LN12
	DD	imagerel $LN12+156
	DD	imagerel $unwind$s390_display_guest_inst
$pdata$z900_display_guest_inst DD imagerel $LN12
	DD	imagerel $LN12+156
	DD	imagerel $unwind$z900_display_guest_inst
$pdata$Interrupt_Lock_Obtained DD imagerel Interrupt_Lock_Obtained
	DD	imagerel Interrupt_Lock_Obtained+269
	DD	imagerel $unwind$Interrupt_Lock_Obtained
$pdata$Obtain_Interrupt_Lock DD imagerel Obtain_Interrupt_Lock
	DD	imagerel Obtain_Interrupt_Lock+88
	DD	imagerel $unwind$Obtain_Interrupt_Lock
$pdata$Release_Interrupt_Lock DD imagerel Release_Interrupt_Lock
	DD	imagerel Release_Interrupt_Lock+71
	DD	imagerel $unwind$Release_Interrupt_Lock
$pdata$are_all_cpus_stopped_intlock_held DD imagerel are_all_cpus_stopped_intlock_held
	DD	imagerel are_all_cpus_stopped_intlock_held+118
	DD	imagerel $unwind$are_all_cpus_stopped_intlock_held
pdata	ENDS
;	COMDAT pdata
pdata	SEGMENT
$pdata$_get_storekey_ptr DD imagerel $LN5
	DD	imagerel $LN5+104
	DD	imagerel $unwind$_get_storekey_ptr
pdata	ENDS
;	COMDAT pdata
pdata	SEGMENT
$pdata$s370__get_storage_key DD imagerel $LN8
	DD	imagerel $LN8+118
	DD	imagerel $unwind$s370__get_storage_key
pdata	ENDS
pdata	SEGMENT
$pdata$s370_display_real DD imagerel s370_display_real
	DD	imagerel s370_display_real+1151
	DD	imagerel $unwind$s370_display_real
$pdata$s370_display_virt DD imagerel s370_display_virt
	DD	imagerel s370_display_virt+468
	DD	imagerel $unwind$s370_display_virt
$pdata$s370_dump_abs_page DD imagerel s370_dump_abs_page
	DD	imagerel s370_dump_abs_page+1425
	DD	imagerel $unwind$s370_dump_abs_page
$pdata$s370_disasm_stor DD imagerel s370_disasm_stor
	DD	imagerel s370_disasm_stor+1977
	DD	imagerel $unwind$s370_disasm_stor
$pdata$s370_alter_display_real_or_abs DD imagerel s370_alter_display_real_or_abs
	DD	imagerel s370_alter_display_real_or_abs+1823
	DD	imagerel $unwind$s370_alter_display_real_or_abs
$pdata$s370_bldtrans DD imagerel s370_bldtrans
	DD	imagerel s370_bldtrans+289
	DD	imagerel $unwind$s370_bldtrans
$pdata$s370_alter_display_virt DD imagerel s370_alter_display_virt
	DD	imagerel s370_alter_display_virt+2478
	DD	imagerel $unwind$s370_alter_display_virt
$pdata$s370_display_inst_adj DD imagerel s370_display_inst_adj
	DD	imagerel s370_display_inst_adj+6650
	DD	imagerel $unwind$s370_display_inst_adj
$pdata$s390_display_pgmint_inst DD imagerel $LN3
	DD	imagerel $LN3+37
	DD	imagerel $unwind$s390_display_pgmint_inst
pdata	ENDS
;	COMDAT pdata
pdata	SEGMENT
$pdata$s390__get_storage_key DD imagerel $LN8
	DD	imagerel $LN8+107
	DD	imagerel $unwind$s390__get_storage_key
pdata	ENDS
pdata	SEGMENT
$pdata$s390_display_real DD imagerel s390_display_real
	DD	imagerel s390_display_real+1059
	DD	imagerel $unwind$s390_display_real
$pdata$s390_display_virt DD imagerel s390_display_virt
	DD	imagerel s390_display_virt+468
	DD	imagerel $unwind$s390_display_virt
$pdata$s390_dump_abs_page DD imagerel s390_dump_abs_page
	DD	imagerel s390_dump_abs_page+1282
	DD	imagerel $unwind$s390_dump_abs_page
$pdata$s390_disasm_stor DD imagerel s390_disasm_stor
	DD	imagerel s390_disasm_stor+1958
	DD	imagerel $unwind$s390_disasm_stor
$pdata$s390_alter_display_real_or_abs DD imagerel s390_alter_display_real_or_abs
	DD	imagerel s390_alter_display_real_or_abs+1823
	DD	imagerel $unwind$s390_alter_display_real_or_abs
$pdata$s390_bldtrans DD imagerel s390_bldtrans
	DD	imagerel s390_bldtrans+273
	DD	imagerel $unwind$s390_bldtrans
$pdata$s390_alter_display_virt DD imagerel s390_alter_display_virt
	DD	imagerel s390_alter_display_virt+2478
	DD	imagerel $unwind$s390_alter_display_virt
$pdata$s390_display_inst_adj DD imagerel s390_display_inst_adj
	DD	imagerel s390_display_inst_adj+6642
	DD	imagerel $unwind$s390_display_inst_adj
$pdata$z900_display_pgmint_inst DD imagerel $LN3
	DD	imagerel $LN3+37
	DD	imagerel $unwind$z900_display_pgmint_inst
pdata	ENDS
;	COMDAT pdata
pdata	SEGMENT
$pdata$z900__get_storage_key DD imagerel $LN8
	DD	imagerel $LN8+107
	DD	imagerel $unwind$z900__get_storage_key
pdata	ENDS
pdata	SEGMENT
$pdata$z900_display_real DD imagerel z900_display_real
	DD	imagerel z900_display_real+1061
	DD	imagerel $unwind$z900_display_real
$pdata$z900_display_virt DD imagerel z900_display_virt
	DD	imagerel z900_display_virt+473
	DD	imagerel $unwind$z900_display_virt
$pdata$z900_dump_abs_page DD imagerel z900_dump_abs_page
	DD	imagerel z900_dump_abs_page+1282
	DD	imagerel $unwind$z900_dump_abs_page
$pdata$z900_disasm_stor DD imagerel z900_disasm_stor
	DD	imagerel z900_disasm_stor+1960
	DD	imagerel $unwind$z900_disasm_stor
$pdata$z900_alter_display_real_or_abs DD imagerel z900_alter_display_real_or_abs
	DD	imagerel z900_alter_display_real_or_abs+1827
	DD	imagerel $unwind$z900_alter_display_real_or_abs
$pdata$z900_bldtrans DD imagerel z900_bldtrans
	DD	imagerel z900_bldtrans+273
	DD	imagerel $unwind$z900_bldtrans
$pdata$z900_alter_display_virt DD imagerel z900_alter_display_virt
	DD	imagerel z900_alter_display_virt+2486
	DD	imagerel $unwind$z900_alter_display_virt
$pdata$z900_display_inst_adj DD imagerel z900_display_inst_adj
	DD	imagerel z900_display_inst_adj+7075
	DD	imagerel $unwind$z900_display_inst_adj
$pdata$is_guest_quiesced DD imagerel is_guest_quiesced
	DD	imagerel is_guest_quiesced+53
	DD	imagerel $unwind$is_guest_quiesced
$pdata$wait_for_guest_to_quiesce DD imagerel wait_for_guest_to_quiesce
	DD	imagerel wait_for_guest_to_quiesce+252
	DD	imagerel $unwind$wait_for_guest_to_quiesce
$pdata$cancel_wait_for_guest_quiesce DD imagerel cancel_wait_for_guest_quiesce
	DD	imagerel cancel_wait_for_guest_quiesce+51
	DD	imagerel $unwind$cancel_wait_for_guest_quiesce
$pdata$do_shutdown_now DD imagerel do_shutdown_now
	DD	imagerel do_shutdown_now+727
	DD	imagerel $unwind$do_shutdown_now
$pdata$do_shutdown_wait DD imagerel do_shutdown_wait
	DD	imagerel do_shutdown_wait+103
	DD	imagerel $unwind$do_shutdown_wait
$pdata$display_regs32 DD imagerel display_regs32
	DD	imagerel display_regs32+553
	DD	imagerel $unwind$display_regs32
$pdata$display_regs64 DD imagerel display_regs64
	DD	imagerel display_regs64+618
	DD	imagerel $unwind$display_regs64
$pdata$sdcchar DD imagerel sdcchar
	DD	imagerel sdcchar+69
	DD	imagerel $unwind$sdcchar
$pdata$FormatSDC DD imagerel $LN7
	DD	imagerel $LN7+1418
	DD	imagerel $unwind$FormatSDC
$pdata$FormatNED DD imagerel $LN29
	DD	imagerel $LN29+1182
	DD	imagerel $unwind$FormatNED
$pdata$FormatNEQ DD imagerel $LN7
	DD	imagerel $LN7+1588
	DD	imagerel $unwind$FormatNEQ
$pdata$FormatBytes DD imagerel FormatBytes
	DD	imagerel FormatBytes+151
	DD	imagerel $unwind$FormatBytes
$pdata$FormatND DD imagerel $LN22
	DD	imagerel $LN22+819
	DD	imagerel $unwind$FormatND
$pdata$FormatNQ DD imagerel $LN7
	DD	imagerel $LN7+1454
	DD	imagerel $unwind$FormatNQ
$pdata$FormatCIW DD imagerel $LN9
	DD	imagerel $LN9+471
	DD	imagerel $unwind$FormatCIW
pdata	ENDS
_DATA	SEGMENT
$SG169728 DB	'%s', 00H
guest_is_quiesced DB 01H
$SG169741 DB	'%s', 00H
	ORG $+1
$SG169730 DB	'R:%16.16llX:', 00H
	ORG $+3
$SG169736 DB	'A:%16.16llX Guest real address is not valid', 00H
$SG169810 DB	'E', 00H
	ORG $+2
$SG169737 DB	'A:%16.16llX:', 00H
	ORG $+3
$SG169740 DB	' Real address is not valid', 00H
	ORG $+1
$SG169819 DB	'E', 00H
	ORG $+2
$SG169742 DB	'K:%2.2X=', 00H
	ORG $+3
$SG169743 DB	'%2.2X', 00H
	ORG $+2
$SG169823 DB	'E', 00H
	ORG $+2
$SG169747 DB	'%-36.36s %-16.16s', 00H
	ORG $+2
$SG169831 DB	'E', 00H
	ORG $+2
$SG169773 DB	'%sR:%8.8X:', 00H
	ORG $+1
$SG169837 DB	'I', 00H
	ORG $+2
$SG169774 DB	'%sV:%8.8X:R:%16.16llX:', 00H
	ORG $+1
$SG169776 DB	'%s%c:%8.8X:', 00H
$SG169841 DB	'I', 00H
	ORG $+2
$SG169777 DB	' Translation exception %4.4hX (%s)', 00H
	ORG $+1
$SG169886 DB	'E', 00H
	ORG $+2
$SG169804 DB	'HHC02290', 00H
	ORG $+3
$SG169896 DB	'I', 00H
	ORG $+2
$SG169805 DB	'HHC02291', 00H
	ORG $+3
$SG169905 DB	'I', 00H
	ORG $+2
$SG169808 DB	'invalid parameters', 00H
	ORG $+1
$SG169911 DB	'I', 00H
	ORG $+2
$SG169809 DB	'dump_abs_page()', 00H
$SG169811 DB	'HHC02219%s Error in function %s: %s', 0aH, 00H
	ORG $+3
$SG169812 DB	's370_dump_abs_page', 00H
	ORG $+1
$SG169917 DB	'I', 00H
	ORG $+2
$SG169813 DB	'hscmisc.c', 00H
	ORG $+2
$SG169930 DB	'I', 00H
	ORG $+2
$SG169816 DB	'%c:%16.16llX  Addressing exception', 00H
	ORG $+1
$SG169995 DB	'E', 00H
	ORG $+2
$SG169820 DB	'HHC02290%s %s', 0aH, 00H
	ORG $+1
$SG169821 DB	's370_dump_abs_page', 00H
	ORG $+1
$SG170001 DB	'E', 00H
	ORG $+2
$SG169822 DB	'hscmisc.c', 00H
	ORG $+2
$SG170009 DB	'E', 00H
	ORG $+2
$SG169824 DB	'HHC02291%s %s', 0aH, 00H
	ORG $+1
$SG169825 DB	's370_dump_abs_page', 00H
	ORG $+1
$SG170019 DB	'E', 00H
	ORG $+2
$SG169826 DB	'hscmisc.c', 00H
	ORG $+2
$SG170024 DB	'I', 00H
	ORG $+2
$SG169827 DB	'%sI %c:', 00H
$SG169829 DB	'hexdumpew failed', 00H
	ORG $+3
$SG169928 DB	'     ', 00H
	ORG $+2
$SG170056 DB	'%s', 00H
	ORG $+1
$SG169830 DB	'dump_abs_page()', 00H
$SG169832 DB	'HHC02219%s Error in function %s: %s', 0aH, 00H
	ORG $+3
$SG169833 DB	's370_dump_abs_page', 00H
	ORG $+1
$SG170060 DB	'%s', 00H
	ORG $+1
$SG169834 DB	'hscmisc.c', 00H
	ORG $+2
$SG170064 DB	'%s', 00H
	ORG $+1
$SG169838 DB	'HHC02290%s %s', 0aH, 00H
	ORG $+1
$SG169839 DB	's370_dump_abs_page', 00H
	ORG $+1
$SG170068 DB	'%s', 00H
	ORG $+1
$SG169840 DB	'hscmisc.c', 00H
	ORG $+2
$SG170067 DB	'(home)', 00H
	ORG $+1
$SG170131 DB	'E', 00H
	ORG $+2
$SG169842 DB	'HHC02291%s %s', 0aH, 00H
	ORG $+1
$SG169843 DB	's370_dump_abs_page', 00H
	ORG $+1
$SG170142 DB	'E', 00H
	ORG $+2
$SG169844 DB	'hscmisc.c', 00H
	ORG $+2
$SG170148 DB	'E', 00H
	ORG $+2
$SG169887 DB	'HHC17000%s Missing or invalid argument(s)', 0aH, 00H
	ORG $+1
$SG170153 DB	'E', 00H
	ORG $+2
$SG169888 DB	's370_disasm_stor', 00H
	ORG $+3
$SG170162 DB	'E', 00H
	ORG $+2
$SG169889 DB	'hscmisc.c', 00H
	ORG $+2
$SG170167 DB	'E', 00H
	ORG $+2
$SG169895 DB	'Real address is not valid', 00H
	ORG $+2
$SG170172 DB	'I', 00H
	ORG $+2
$SG169897 DB	'HHC02289%s %s', 0aH, 00H
	ORG $+1
$SG169898 DB	's370_disasm_stor', 00H
	ORG $+3
$SG170289 DB	'dinst', 00H
	ORG $+2
$SG170296 DB	'I', 00H
	ORG $+2
$SG169899 DB	'hscmisc.c', 00H
	ORG $+2
$SG170311 DB	'E', 00H
	ORG $+2
$SG169904 DB	'R:%16.16llX  Storage not accessible code = %4.4X (%s)', 00H
	ORG $+2
$SG169906 DB	'HHC02289%s %s', 0aH, 00H
	ORG $+1
$SG169907 DB	's370_disasm_stor', 00H
	ORG $+3
$SG170304 DB	'SIE: ', 00H
	ORG $+2
$SG170338 DB	' %s', 00H
$SG169908 DB	'hscmisc.c', 00H
	ORG $+2
$SG170339 DB	'I', 00H
	ORG $+2
$SG169910 DB	'R:%16.16llX  Addressing exception', 00H
	ORG $+2
$SG170381 DB	' ', 09H, 0aH, 0bH, 0cH, 0dH, 00H
	ORG $+1
$SG170382 DB	'I', 00H
	ORG $+2
$SG169912 DB	'HHC02289%s %s', 0aH, 00H
	ORG $+1
$SG169913 DB	's370_disasm_stor', 00H
	ORG $+3
$SG170373 DB	'SIE: ', 00H
	ORG $+2
$SG170396 DB	' ', 09H, 0aH, 0bH, 0cH, 0dH, 00H
	ORG $+1
$SG170397 DB	'I', 00H
	ORG $+2
$SG169914 DB	'hscmisc.c', 00H
	ORG $+2
$SG180508 DB	'%s', 00H
	ORG $+1
$SG169916 DB	'R:%16.16llX  Addressing exception', 00H
	ORG $+2
$SG180521 DB	'%s', 00H
	ORG $+1
$SG169918 DB	'HHC02289%s %s', 0aH, 00H
	ORG $+1
$SG169919 DB	's370_disasm_stor', 00H
	ORG $+3
$SG170386 DB	'SIE: ', 00H
	ORG $+2
$SG180587 DB	'E', 00H
	ORG $+2
$SG169920 DB	'hscmisc.c', 00H
	ORG $+2
$SG180595 DB	'E', 00H
	ORG $+2
$SG169921 DB	'%c:%16.16llX  %2.2X%2.2X', 00H
	ORG $+3
$SG180523 DB	'%2.2X', 00H
	ORG $+2
$SG180599 DB	'E', 00H
	ORG $+2
$SG169924 DB	'%2.2X%2.2X', 00H
	ORG $+1
$SG180607 DB	'E', 00H
	ORG $+2
$SG169927 DB	'%2.2X%2.2X ', 00H
$SG180613 DB	'I', 00H
	ORG $+2
$SG169929 DB	'         ', 00H
	ORG $+2
$SG180617 DB	'I', 00H
	ORG $+2
$SG169931 DB	'HHC02289%s %s', 0aH, 00H
	ORG $+1
$SG169932 DB	's370_disasm_stor', 00H
	ORG $+3
$SG180661 DB	'E', 00H
	ORG $+2
$SG169933 DB	'hscmisc.c', 00H
	ORG $+2
$SG180671 DB	'I', 00H
	ORG $+2
$SG169996 DB	'HHC17000%s Missing or invalid argument(s)', 0aH, 00H
	ORG $+1
$SG180680 DB	'I', 00H
	ORG $+2
$SG169997 DB	's370_alter_display_real_or_abs', 00H
	ORG $+1
$SG169998 DB	'hscmisc.c', 00H
	ORG $+2
$SG180686 DB	'I', 00H
	ORG $+2
$SG170002 DB	'HHC02327%s %c:%16.16llX  Storage address is not valid', 0aH
	DB	00H
	ORG $+1
$SG170003 DB	's370_alter_display_real_or_abs', 00H
	ORG $+1
$SG170004 DB	'hscmisc.c', 00H
	ORG $+2
$SG180692 DB	'I', 00H
	ORG $+2
$SG170010 DB	'HHC02328%s %c:%16.16llX  Addressing exception', 0aH, 00H
	ORG $+1
$SG170011 DB	's370_alter_display_real_or_abs', 00H
	ORG $+1
$SG170012 DB	'hscmisc.c', 00H
	ORG $+2
$SG180705 DB	'I', 00H
	ORG $+2
$SG170020 DB	'HHC02328%s %c:%16.16llX  Addressing exception', 0aH, 00H
	ORG $+1
$SG170021 DB	's370_alter_display_real_or_abs', 00H
	ORG $+1
$SG170022 DB	'hscmisc.c', 00H
	ORG $+2
$SG180770 DB	'E', 00H
	ORG $+2
$SG170023 DB	'A:%16.16llX  K:%2.2X', 00H
	ORG $+3
$SG170025 DB	'HHC02290%s %s', 0aH, 00H
	ORG $+1
$SG170026 DB	's370_alter_display_real_or_abs', 00H
	ORG $+1
$SG170027 DB	'hscmisc.c', 00H
	ORG $+2
$SG180776 DB	'E', 00H
	ORG $+2
$SG170029 DB	's370_alter_display_real_or_abs', 00H
	ORG $+1
$SG170030 DB	'hscmisc.c', 00H
	ORG $+6
$SG170031 DB	'%s(%d) : warning HHC90999W : *** Assertion Failed! *** f'
	DB	'unction: %s', 0aH, 00H
	ORG $+3
$SG170033 DB	's370_alter_display_real_or_abs', 00H
	ORG $+1
$SG170034 DB	'hscmisc.c', 00H
	ORG $+6
$SG170063 DB	'(secondary)', 00H
$SG170336 DB	'    ', 00H
	ORG $+7
$SG170035 DB	'%s(%d) : warning HHC90999W : *** Assertion Failed! *** f'
	DB	'unction: %s', 0aH, 00H
	ORG $+3
$SG170055 DB	'(dat off)', 00H
	ORG $+2
$SG180784 DB	'E', 00H
	ORG $+2
$SG170059 DB	'(primary)', 00H
	ORG $+2
$SG180794 DB	'E', 00H
	ORG $+2
$SG170069 DB	'(AR%2.2d)', 00H
	ORG $+2
$SG180799 DB	'I', 00H
	ORG $+2
$SG170132 DB	'HHC17000%s Missing or invalid argument(s)', 0aH, 00H
	ORG $+1
$SG180829 DB	'%s', 00H
	ORG $+1
$SG170133 DB	's370_alter_display_virt', 00H
$SG170134 DB	'hscmisc.c', 00H
	ORG $+2
$SG180833 DB	'%s', 00H
	ORG $+1
$SG170143 DB	'HHC02327%s %c:%16.16llX  Storage address is not valid', 0aH
	DB	00H
	ORG $+1
$SG170144 DB	's370_alter_display_virt', 00H
$SG170145 DB	'hscmisc.c', 00H
	ORG $+2
$SG180837 DB	'%s', 00H
	ORG $+1
$SG170149 DB	'HHC02329%s %c:%8.8X  Translation exception %4.4hX (%s)  '
	DB	'%s', 0aH, 00H
$SG180841 DB	'%s', 00H
	ORG $+1
$SG170150 DB	's370_alter_display_virt', 00H
$SG170151 DB	'hscmisc.c', 00H
	ORG $+2
$SG180840 DB	'(home)', 00H
	ORG $+1
$SG180904 DB	'E', 00H
	ORG $+2
$SG170154 DB	'HHC02328%s %c:%16.16llX  Addressing exception', 0aH, 00H
	ORG $+1
$SG170155 DB	's370_alter_display_virt', 00H
$SG170156 DB	'hscmisc.c', 00H
	ORG $+2
$SG180915 DB	'E', 00H
	ORG $+2
$SG170163 DB	'HHC02329%s %c:%8.8X  Translation exception %4.4hX (%s)  '
	DB	'%s', 0aH, 00H
$SG180921 DB	'E', 00H
	ORG $+2
$SG170164 DB	's370_alter_display_virt', 00H
$SG170165 DB	'hscmisc.c', 00H
	ORG $+2
$SG180926 DB	'E', 00H
	ORG $+2
$SG170168 DB	'HHC02328%s %c:%16.16llX  Addressing exception', 0aH, 00H
	ORG $+1
$SG170169 DB	's370_alter_display_virt', 00H
$SG170170 DB	'hscmisc.c', 00H
	ORG $+2
$SG180935 DB	'E', 00H
	ORG $+2
$SG170171 DB	'R:%16.16llX  K:%2.2X  %s', 00H
	ORG $+3
$SG180703 DB	'     ', 00H
	ORG $+2
$SG180940 DB	'E', 00H
	ORG $+2
$SG170173 DB	'HHC02291%s %s', 0aH, 00H
	ORG $+1
$SG170174 DB	's370_alter_display_virt', 00H
$SG170175 DB	'hscmisc.c', 00H
	ORG $+2
$SG180945 DB	'I', 00H
	ORG $+2
$SG170177 DB	's370_alter_display_virt', 00H
$SG170178 DB	'hscmisc.c', 00H
	ORG $+6
$SG170179 DB	'%s(%d) : warning HHC90999W : *** Assertion Failed! *** f'
	DB	'unction: %s', 0aH, 00H
	ORG $+3
$SG170181 DB	's370_alter_display_virt', 00H
$SG170182 DB	'hscmisc.c', 00H
	ORG $+6
$SG170183 DB	'%s(%d) : warning HHC90999W : *** Assertion Failed! *** f'
	DB	'unction: %s', 0aH, 00H
	ORG $+3
$SG170288 DB	'hscmisc.c:832', 00H
	ORG $+2
$SG170290 DB	'hscmisc.c:834', 00H
	ORG $+2
$SG170291 DB	'hscmisc.c:838', 00H
	ORG $+2
$SG170295 DB	'Real address is not valid', 00H
	ORG $+2
$SG181067 DB	'I', 00H
	ORG $+2
$SG170297 DB	'HHC02267%s %s', 0aH, 00H
	ORG $+1
$SG170298 DB	's370_display_inst_adj', 00H
	ORG $+2
$SG170299 DB	'hscmisc.c', 00H
	ORG $+2
$SG181082 DB	'E', 00H
	ORG $+2
$SG170308 DB	'%s Instruction fetch error', 0aH, 00H
$SG181109 DB	' %s', 00H
$SG170309 DB	'HHC02269I ', 00H
	ORG $+1
$SG181110 DB	'I', 00H
	ORG $+2
$SG170312 DB	'HHC02325%s %s%s', 0aH, 00H
	ORG $+3
$SG181060 DB	'dinst', 00H
	ORG $+2
$SG181151 DB	' ', 09H, 0aH, 0bH, 0cH, 0dH, 00H
	ORG $+1
$SG181152 DB	'I', 00H
	ORG $+2
$SG170313 DB	's370_display_inst_adj', 00H
	ORG $+2
$SG170314 DB	'hscmisc.c', 00H
	ORG $+2
$SG181166 DB	' ', 09H, 0aH, 0bH, 0cH, 0dH, 00H
	ORG $+1
$SG181167 DB	'I', 00H
	ORG $+2
$SG170317 DB	'hscmisc.c:892', 00H
	ORG $+2
$SG170318 DB	'dinst op,ilc', 00H
	ORG $+3
$SG170320 DB	'hscmisc.c:901', 00H
	ORG $+2
$SG170321 DB	'dinst ip,IA', 00H
$SG194155 DB	'%s', 00H
	ORG $+1
$SG170324 DB	'hscmisc.c:907', 00H
	ORG $+2
$SG170325 DB	'dinst ip,IA', 00H
$SG194168 DB	'%s', 00H
	ORG $+1
$SG170328 DB	'%s%02X: ', 00H
	ORG $+3
$SG181075 DB	'SIE: ', 00H
	ORG $+2
$SG194234 DB	'E', 00H
	ORG $+2
$SG170329 DB	'PSW=%2.2X%2.2X%2.2X%2.2X%2.2X%2.2X%2.2X%2.2X ', 00H
	ORG $+2
$SG170330 DB	'INST=%2.2X%2.2X', 00H
$SG170332 DB	'%2.2X%2.2X', 00H
	ORG $+1
$SG194242 DB	'E', 00H
	ORG $+2
$SG170334 DB	'%2.2X%2.2X', 00H
	ORG $+1
$SG194246 DB	'E', 00H
	ORG $+2
$SG170335 DB	'        ', 00H
	ORG $+3
$SG181144 DB	'SIE: ', 00H
	ORG $+2
$SG194254 DB	'E', 00H
	ORG $+2
$SG170340 DB	'HHC02324%s %s', 0aH, 00H
	ORG $+1
$SG170364 DB	'hscmisc.c:1062', 00H
	ORG $+1
$SG170365 DB	'dinst rel1:', 00H
$SG194260 DB	'I', 00H
	ORG $+2
$SG170367 DB	'hscmisc.c:1068', 00H
	ORG $+1
$SG170368 DB	'dinst rel1=', 00H
$SG194264 DB	'I', 00H
	ORG $+2
$SG170375 DB	'%s%02X: ', 00H
	ORG $+3
$SG181156 DB	'SIE: ', 00H
	ORG $+2
$SG194308 DB	'E', 00H
	ORG $+2
$SG170383 DB	'HHC02326%s %s', 0aH, 00H
	ORG $+1
$SG170388 DB	'%s%02X: ', 00H
	ORG $+3
$SG194170 DB	'%2.2X', 00H
	ORG $+2
$SG194318 DB	'I', 00H
	ORG $+2
$SG170398 DB	'HHC02326%s %s', 0aH, 00H
	ORG $+1
$SG170406 DB	'%s%s%s%s', 00H
	ORG $+3
$SG194327 DB	'I', 00H
	ORG $+2
$SG170407 DB	's370_display_inst_adj', 00H
	ORG $+2
$SG170408 DB	'hscmisc.c', 00H
	ORG $+2
$SG194333 DB	'I', 00H
	ORG $+2
$SG170409 DB	'%s%s%s%s', 00H
	ORG $+3
$SG194339 DB	'I', 00H
	ORG $+2
$SG170410 DB	's370_display_inst_adj', 00H
	ORG $+2
$SG170411 DB	'hscmisc.c', 00H
	ORG $+2
$SG194352 DB	'I', 00H
	ORG $+2
$SG180510 DB	'R:%16.16llX:', 00H
	ORG $+3
$SG180516 DB	'A:%16.16llX Guest real address is not valid', 00H
$SG194417 DB	'E', 00H
	ORG $+2
$SG180517 DB	'A:%16.16llX:', 00H
	ORG $+3
$SG180520 DB	' Real address is not valid', 00H
	ORG $+1
$SG194423 DB	'E', 00H
	ORG $+2
$SG180522 DB	'K:%2.2X=', 00H
	ORG $+3
$SG194350 DB	'     ', 00H
	ORG $+2
$SG194431 DB	'E', 00H
	ORG $+2
$SG180527 DB	'%-36.36s %-16.16s', 00H
	ORG $+2
$SG194441 DB	'E', 00H
	ORG $+2
$SG180553 DB	'%sR:%8.8X:', 00H
	ORG $+1
$SG194446 DB	'I', 00H
	ORG $+2
$SG180554 DB	'%sV:%8.8X:R:%16.16llX:', 00H
	ORG $+1
$SG180556 DB	'%s%c:%8.8X:', 00H
$SG194476 DB	'%s', 00H
	ORG $+1
$SG180557 DB	' Translation exception %4.4hX (%s)', 00H
	ORG $+1
$SG194480 DB	'%s', 00H
	ORG $+1
$SG180581 DB	'HHC02290', 00H
	ORG $+3
$SG194484 DB	'%s', 00H
	ORG $+1
$SG180582 DB	'HHC02291', 00H
	ORG $+3
$SG194487 DB	'(home)', 00H
	ORG $+1
$SG194488 DB	'%s', 00H
	ORG $+1
$SG180585 DB	'invalid parameters', 00H
	ORG $+1
$SG194551 DB	'E', 00H
	ORG $+2
$SG180586 DB	'dump_abs_page()', 00H
$SG180588 DB	'HHC02219%s Error in function %s: %s', 0aH, 00H
	ORG $+3
$SG180589 DB	's390_dump_abs_page', 00H
	ORG $+1
$SG194562 DB	'E', 00H
	ORG $+2
$SG180590 DB	'C:\papa\MyGit\hyperion-zvector\hscmisc.c', 00H
	ORG $+3
$SG194568 DB	'E', 00H
	ORG $+2
$SG180592 DB	'%c:%16.16llX  Addressing exception', 00H
	ORG $+1
$SG194573 DB	'E', 00H
	ORG $+2
$SG180596 DB	'HHC02290%s %s', 0aH, 00H
	ORG $+1
$SG180597 DB	's390_dump_abs_page', 00H
	ORG $+1
$SG194582 DB	'E', 00H
	ORG $+2
$SG180598 DB	'C:\papa\MyGit\hyperion-zvector\hscmisc.c', 00H
	ORG $+3
$SG194587 DB	'E', 00H
	ORG $+2
$SG180600 DB	'HHC02291%s %s', 0aH, 00H
	ORG $+1
$SG180601 DB	's390_dump_abs_page', 00H
	ORG $+1
$SG194592 DB	'I', 00H
	ORG $+2
$SG180602 DB	'C:\papa\MyGit\hyperion-zvector\hscmisc.c', 00H
	ORG $+3
$SG194707 DB	'dinst', 00H
	ORG $+2
$SG194714 DB	'I', 00H
	ORG $+2
$SG180603 DB	'%sI %c:', 00H
$SG180605 DB	'hexdumpew failed', 00H
	ORG $+3
$SG194722 DB	'SIE: ', 00H
	ORG $+2
$SG194729 DB	'E', 00H
	ORG $+2
$SG180606 DB	'dump_abs_page()', 00H
$SG180608 DB	'HHC02219%s Error in function %s: %s', 0aH, 00H
	ORG $+3
$SG180609 DB	's390_dump_abs_page', 00H
	ORG $+1
$SG194757 DB	' %s', 00H
$SG180610 DB	'C:\papa\MyGit\hyperion-zvector\hscmisc.c', 00H
	ORG $+3
$SG194758 DB	'I', 00H
	ORG $+2
$SG180614 DB	'HHC02290%s %s', 0aH, 00H
	ORG $+1
$SG180615 DB	's390_dump_abs_page', 00H
	ORG $+1
$SG194800 DB	'I', 00H
	ORG $+2
$SG180616 DB	'C:\papa\MyGit\hyperion-zvector\hscmisc.c', 00H
	ORG $+3
$SG194792 DB	'SIE: ', 00H
	ORG $+2
$SG194799 DB	' ', 09H, 0aH, 0bH, 0cH, 0dH, 00H
	ORG $+1
$SG194815 DB	'I', 00H
	ORG $+2
$SG180618 DB	'HHC02291%s %s', 0aH, 00H
	ORG $+1
$SG180619 DB	's390_dump_abs_page', 00H
	ORG $+1
$SG194905 DB	'I', 00H
	ORG $+2
$SG180620 DB	'C:\papa\MyGit\hyperion-zvector\hscmisc.c', 00H
	ORG $+3
$SG194804 DB	'SIE: ', 00H
	ORG $+2
$SG194814 DB	' ', 09H, 0aH, 0bH, 0cH, 0dH, 00H
	ORG $+1
$SG194919 DB	'I', 00H
	ORG $+2
$SG180662 DB	'HHC17000%s Missing or invalid argument(s)', 0aH, 00H
	ORG $+1
$SG194923 DB	'I', 00H
	ORG $+2
$SG180663 DB	's390_disasm_stor', 00H
	ORG $+3
$SG194925 DB	'I', 00H
	ORG $+2
$SG180664 DB	'C:\papa\MyGit\hyperion-zvector\hscmisc.c', 00H
	ORG $+3
$SG194927 DB	'I', 00H
	ORG $+2
$SG180670 DB	'Real address is not valid', 00H
	ORG $+2
$SG194938 DB	'I', 00H
	ORG $+2
$SG180672 DB	'HHC02289%s %s', 0aH, 00H
	ORG $+1
$SG180673 DB	's390_disasm_stor', 00H
	ORG $+3
$SG194976 DB	0aH, 00H
	ORG $+2
$SG180674 DB	'C:\papa\MyGit\hyperion-zvector\hscmisc.c', 00H
	ORG $+3
$SG194977 DB	'%s', 00H
	ORG $+1
$SG180679 DB	'R:%16.16llX  Storage not accessible code = %4.4X (%s)', 00H
	ORG $+2
$SG180681 DB	'HHC02289%s %s', 0aH, 00H
	ORG $+1
$SG180682 DB	's390_disasm_stor', 00H
	ORG $+3
$SG194978 DB	'%s', 00H
	ORG $+1
$SG180683 DB	'C:\papa\MyGit\hyperion-zvector\hscmisc.c', 00H
	ORG $+3
$SG194982 DB	' ', 00H
	ORG $+2
$SG180685 DB	'R:%16.16llX  Addressing exception', 00H
	ORG $+2
$SG194983 DB	'%s', 00H
	ORG $+1
$SG180687 DB	'HHC02289%s %s', 0aH, 00H
	ORG $+1
$SG180688 DB	's390_disasm_stor', 00H
	ORG $+3
$SG194985 DB	0aH, 00H
	ORG $+2
$SG180689 DB	'C:\papa\MyGit\hyperion-zvector\hscmisc.c', 00H
	ORG $+3
$SG194986 DB	'%s', 00H
	ORG $+1
$SG180691 DB	'R:%16.16llX  Addressing exception', 00H
	ORG $+2
$SG195013 DB	0aH, 00H
	ORG $+2
$SG180693 DB	'HHC02289%s %s', 0aH, 00H
	ORG $+1
$SG180694 DB	's390_disasm_stor', 00H
	ORG $+3
$SG195014 DB	'%s', 00H
	ORG $+1
$SG180695 DB	'C:\papa\MyGit\hyperion-zvector\hscmisc.c', 00H
	ORG $+3
$SG195015 DB	'%s', 00H
	ORG $+1
$SG180696 DB	'%c:%16.16llX  %2.2X%2.2X', 00H
	ORG $+3
$SG195019 DB	' ', 00H
	ORG $+2
$SG180699 DB	'%2.2X%2.2X', 00H
	ORG $+1
$SG195020 DB	'%s', 00H
	ORG $+1
$SG180702 DB	'%2.2X%2.2X ', 00H
$SG195022 DB	0aH, 00H
	ORG $+2
$SG180704 DB	'         ', 00H
	ORG $+2
$SG195023 DB	'%s', 00H
	ORG $+1
$SG180706 DB	'HHC02289%s %s', 0aH, 00H
	ORG $+1
$SG180707 DB	's390_disasm_stor', 00H
	ORG $+3
$SG195081 DB	'I', 00H
	ORG $+2
$SG180708 DB	'C:\papa\MyGit\hyperion-zvector\hscmisc.c', 00H
	ORG $+3
$SG195105 DB	0aH, 00H
	ORG $+2
$SG180771 DB	'HHC17000%s Missing or invalid argument(s)', 0aH, 00H
	ORG $+1
$SG195126 DB	'GR', 00H
	ORG $+1
$SG180772 DB	's390_alter_display_real_or_abs', 00H
	ORG $+1
$SG180773 DB	'C:\papa\MyGit\hyperion-zvector\hscmisc.c', 00H
	ORG $+3
$SG195127 DB	'R', 00H
	ORG $+2
$SG180777 DB	'HHC02327%s %c:%16.16llX  Storage address is not valid', 0aH
	DB	00H
	ORG $+1
$SG180778 DB	's390_alter_display_real_or_abs', 00H
	ORG $+1
$SG180779 DB	'C:\papa\MyGit\hyperion-zvector\hscmisc.c', 00H
	ORG $+3
$SG195148 DB	'CR', 00H
	ORG $+1
$SG180785 DB	'HHC02328%s %c:%16.16llX  Addressing exception', 0aH, 00H
	ORG $+1
$SG180786 DB	's390_alter_display_real_or_abs', 00H
	ORG $+1
$SG180787 DB	'C:\papa\MyGit\hyperion-zvector\hscmisc.c', 00H
	ORG $+3
$SG195149 DB	'C', 00H
	ORG $+2
$SG180795 DB	'HHC02328%s %c:%16.16llX  Addressing exception', 0aH, 00H
	ORG $+1
$SG180796 DB	's390_alter_display_real_or_abs', 00H
	ORG $+1
$SG180797 DB	'C:\papa\MyGit\hyperion-zvector\hscmisc.c', 00H
	ORG $+3
$SG195164 DB	'AR', 00H
	ORG $+1
$SG180798 DB	'A:%16.16llX  K:%2.2X', 00H
	ORG $+3
$SG180800 DB	'HHC02290%s %s', 0aH, 00H
	ORG $+1
$SG180801 DB	's390_alter_display_real_or_abs', 00H
	ORG $+1
$SG180802 DB	'C:\papa\MyGit\hyperion-zvector\hscmisc.c', 00H
	ORG $+3
$SG195179 DB	'%s', 00H
	ORG $+1
$SG180804 DB	's390_alter_display_real_or_abs', 00H
	ORG $+1
$SG180805 DB	'C:\papa\MyGit\hyperion-zvector\hscmisc.c', 00H
	ORG $+7
$SG180808 DB	's390_alter_display_real_or_abs', 00H
	ORG $+1
$SG180906 DB	's390_alter_display_virt', 00H
$SG180806 DB	'%s(%d) : warning HHC90999W : *** Assertion Failed! *** f'
	DB	'unction: %s', 0aH, 00H
	ORG $+3
$SG180809 DB	'C:\papa\MyGit\hyperion-zvector\hscmisc.c', 00H
	ORG $+7
$SG180828 DB	'(dat off)', 00H
	ORG $+6
$SG180836 DB	'(secondary)', 00H
$SG181107 DB	'    ', 00H
	ORG $+7
$SG180810 DB	'%s(%d) : warning HHC90999W : *** Assertion Failed! *** f'
	DB	'unction: %s', 0aH, 00H
	ORG $+3
$SG180832 DB	'(primary)', 00H
	ORG $+2
$SG195206 DB	'%s', 00H
	ORG $+1
$SG180842 DB	'(AR%2.2d)', 00H
	ORG $+2
$SG195244 DB	'UE ', 00H
$SG180905 DB	'HHC17000%s Missing or invalid argument(s)', 0aH, 00H
	ORG $+1
$SG195246 DB	'UC ', 00H
$SG180907 DB	'C:\papa\MyGit\hyperion-zvector\hscmisc.c', 00H
	ORG $+3
$SG195248 DB	'DE ', 00H
$SG180916 DB	'HHC02327%s %c:%16.16llX  Storage address is not valid', 0aH
	DB	00H
	ORG $+1
$SG180917 DB	's390_alter_display_virt', 00H
$SG180918 DB	'C:\papa\MyGit\hyperion-zvector\hscmisc.c', 00H
	ORG $+3
$SG195250 DB	'CE ', 00H
$SG180922 DB	'HHC02329%s %c:%8.8X  Translation exception %4.4hX (%s)  '
	DB	'%s', 0aH, 00H
$SG195256 DB	'SM ', 00H
$SG180923 DB	's390_alter_display_virt', 00H
$SG180924 DB	'C:\papa\MyGit\hyperion-zvector\hscmisc.c', 00H
	ORG $+3
$SG195252 DB	'Busy ', 00H
	ORG $+2
$SG195263 DB	'CC ', 00H
$SG180927 DB	'HHC02328%s %c:%16.16llX  Addressing exception', 0aH, 00H
	ORG $+1
$SG180928 DB	's390_alter_display_virt', 00H
$SG180929 DB	'C:\papa\MyGit\hyperion-zvector\hscmisc.c', 00H
	ORG $+3
$SG195271 DB	'ProtC ', 00H
	ORG $+1
$SG195273 DB	'PC ', 00H
$SG180936 DB	'HHC02329%s %c:%8.8X  Translation exception %4.4hX (%s)  '
	DB	'%s', 0aH, 00H
$SG195275 DB	'IL ', 00H
$SG180937 DB	's390_alter_display_virt', 00H
$SG180938 DB	'C:\papa\MyGit\hyperion-zvector\hscmisc.c', 00H
	ORG $+3
$SG195312 DB	'E', 00H
	ORG $+2
$SG180941 DB	'HHC02328%s %c:%16.16llX  Addressing exception', 0aH, 00H
	ORG $+1
$SG180942 DB	's390_alter_display_virt', 00H
$SG180943 DB	'C:\papa\MyGit\hyperion-zvector\hscmisc.c', 00H
	ORG $+3
$SG195323 DB	'"', 00H
	ORG $+2
$SG180944 DB	'R:%16.16llX  K:%2.2X  %s', 00H
	ORG $+3
$SG195324 DB	'E', 00H
	ORG $+2
$SG180946 DB	'HHC02291%s %s', 0aH, 00H
	ORG $+1
$SG180947 DB	's390_alter_display_virt', 00H
$SG180948 DB	'C:\papa\MyGit\hyperion-zvector\hscmisc.c', 00H
	ORG $+3
$SG195330 DB	'"', 00H
	ORG $+2
$SG180950 DB	's390_alter_display_virt', 00H
$SG180951 DB	'C:\papa\MyGit\hyperion-zvector\hscmisc.c', 00H
	ORG $+7
$SG180954 DB	's390_alter_display_virt', 00H
$SG180952 DB	'%s(%d) : warning HHC90999W : *** Assertion Failed! *** f'
	DB	'unction: %s', 0aH, 00H
	ORG $+3
$SG180955 DB	'C:\papa\MyGit\hyperion-zvector\hscmisc.c', 00H
	ORG $+7
$SG181059 DB	'C:\papa\MyGit\hyperion-zvector\hscmisc.c:832', 00H
	ORG $+3
$SG181068 DB	'HHC02267%s %s', 0aH, 00H
	ORG $+1
$SG181069 DB	's390_display_inst_adj', 00H
	ORG $+2
$SG180956 DB	'%s(%d) : warning HHC90999W : *** Assertion Failed! *** f'
	DB	'unction: %s', 0aH, 00H
	ORG $+3
$SG181061 DB	'C:\papa\MyGit\hyperion-zvector\hscmisc.c:834', 00H
	ORG $+3
$SG181062 DB	'C:\papa\MyGit\hyperion-zvector\hscmisc.c:838', 00H
	ORG $+3
$SG181066 DB	'Real address is not valid', 00H
	ORG $+2
$SG195331 DB	'E', 00H
	ORG $+2
$SG181070 DB	'C:\papa\MyGit\hyperion-zvector\hscmisc.c', 00H
	ORG $+3
$SG195343 DB	'E', 00H
	ORG $+2
$SG181079 DB	'%s Instruction fetch error', 0aH, 00H
$SG195349 DB	'E', 00H
	ORG $+2
$SG181080 DB	'HHC02269I ', 00H
	ORG $+1
$SG195355 DB	'E', 00H
	ORG $+2
$SG181083 DB	'HHC02325%s %s%s', 0aH, 00H
	ORG $+3
$SG195365 DB	'E', 00H
	ORG $+2
$SG181084 DB	's390_display_inst_adj', 00H
	ORG $+2
$SG181085 DB	'C:\papa\MyGit\hyperion-zvector\hscmisc.c', 00H
	ORG $+3
$SG195372 DB	'E', 00H
	ORG $+2
$SG181088 DB	'C:\papa\MyGit\hyperion-zvector\hscmisc.c:892', 00H
	ORG $+3
$SG181089 DB	'dinst op,ilc', 00H
	ORG $+3
$SG181091 DB	'C:\papa\MyGit\hyperion-zvector\hscmisc.c:901', 00H
	ORG $+3
$SG181092 DB	'dinst ip,IA', 00H
$SG195404 DB	'E', 00H
	ORG $+2
$SG181095 DB	'C:\papa\MyGit\hyperion-zvector\hscmisc.c:907', 00H
	ORG $+3
$SG181096 DB	'dinst ip,IA', 00H
$SG195463 DB	'AR,', 00H
$SG181099 DB	'%s%02X: ', 00H
	ORG $+3
$SG195465 DB	'CHAIN,', 00H
	ORG $+1
$SG195474 DB	'0', 00H
	ORG $+2
$SG181100 DB	'PSW=%2.2X%2.2X%2.2X%2.2X%2.2X%2.2X%2.2X%2.2X ', 00H
	ORG $+2
$SG181101 DB	'INST=%2.2X%2.2X', 00H
$SG181103 DB	'%2.2X%2.2X', 00H
	ORG $+1
$SG195475 DB	'???', 00H
$SG181105 DB	'%2.2X%2.2X', 00H
	ORG $+1
$SG195476 DB	'???', 00H
$SG181106 DB	'        ', 00H
	ORG $+3
$SG195467 DB	'OFLOW,', 00H
	ORG $+1
$SG195478 DB	',', 00H
	ORG $+2
$SG181111 DB	'HHC02324%s %s', 0aH, 00H
	ORG $+1
$SG181135 DB	'C:\papa\MyGit\hyperion-zvector\hscmisc.c:1062', 00H
	ORG $+2
$SG181136 DB	'dinst rel1:', 00H
$SG195605 DB	'%u', 00H
	ORG $+1
$SG181138 DB	'C:\papa\MyGit\hyperion-zvector\hscmisc.c:1068', 00H
	ORG $+2
$SG181139 DB	'dinst rel1=', 00H
$SG195610 DB	'%u', 00H
	ORG $+1
$SG181146 DB	'%s%02X: ', 00H
	ORG $+3
$SG195479 DB	'(end)', 00H
	ORG $+2
$SG195615 DB	'*', 00H
	ORG $+2
$SG181153 DB	'HHC02326%s %s', 0aH, 00H
	ORG $+1
$SG181158 DB	'%s%02X: ', 00H
	ORG $+3
$SG195616 DB	' ', 00H
	ORG $+2
$SG181168 DB	'HHC02326%s %s', 0aH, 00H
	ORG $+1
$SG181176 DB	'%s%s%s%s', 00H
	ORG $+3
$SG195622 DB	'*', 00H
	ORG $+2
$SG181177 DB	's390_display_inst_adj', 00H
	ORG $+2
$SG181178 DB	'C:\papa\MyGit\hyperion-zvector\hscmisc.c', 00H
	ORG $+3
$SG195623 DB	' ', 00H
	ORG $+2
$SG181179 DB	'%s%s%s%s', 00H
	ORG $+3
$SG195660 DB	' ', 00H
	ORG $+2
$SG181180 DB	's390_display_inst_adj', 00H
	ORG $+2
$SG181181 DB	'C:\papa\MyGit\hyperion-zvector\hscmisc.c', 00H
	ORG $+3
$SG195694 DB	' ', 09H, 0aH, 0bH, 0cH, 0dH, 00H
	ORG $+1
$SG195752 DB	'CSS', 00H
$SG194157 DB	'R:%16.16llX:', 00H
	ORG $+3
$SG194163 DB	'A:%16.16llX Guest real address is not valid', 00H
$SG195755 DB	'DEV', 00H
$SG194164 DB	'A:%16.16llX:', 00H
	ORG $+3
$SG194167 DB	' Real address is not valid', 00H
	ORG $+1
$SG195760 DB	'%u', 00H
	ORG $+1
$SG194169 DB	'K:%2.2X=', 00H
	ORG $+3
$SG195753 DB	'CHPID', 00H
	ORG $+2
$SG195824 DB	' ', 09H, 0aH, 0bH, 0cH, 0dH, 00H
	ORG $+5
$SG194174 DB	'%-36.36s %-16.16s', 00H
	ORG $+6
$SG194200 DB	'%sR:%16.16llX:', 00H
	ORG $+1
$SG194201 DB	'%sV:%16.16llX:R:%16.16llX:', 00H
	ORG $+5
$SG194203 DB	'%s%c:%16.16llX:', 00H
$SG194204 DB	' Translation exception %4.4hX (%s)', 00H
	ORG $+5
$SG194228 DB	'HHC02290', 00H
	ORG $+7
$SG194229 DB	'HHC02291', 00H
	ORG $+7
$SG194232 DB	'invalid parameters', 00H
	ORG $+5
$SG194233 DB	'dump_abs_page()', 00H
$SG194235 DB	'HHC02219%s Error in function %s: %s', 0aH, 00H
	ORG $+3
$SG194236 DB	'z900_dump_abs_page', 00H
	ORG $+5
$SG194237 DB	'C:\papa\MyGit\hyperion-zvector\hscmisc.c', 00H
	ORG $+7
$SG194239 DB	'%c:%16.16llX  Addressing exception', 00H
	ORG $+5
$SG194243 DB	'HHC02290%s %s', 0aH, 00H
	ORG $+1
$SG194244 DB	'z900_dump_abs_page', 00H
	ORG $+5
$SG194245 DB	'C:\papa\MyGit\hyperion-zvector\hscmisc.c', 00H
	ORG $+7
$SG194247 DB	'HHC02291%s %s', 0aH, 00H
	ORG $+1
$SG194248 DB	'z900_dump_abs_page', 00H
	ORG $+5
$SG194249 DB	'C:\papa\MyGit\hyperion-zvector\hscmisc.c', 00H
	ORG $+7
$SG194250 DB	'%sI %c:', 00H
$SG194252 DB	'hexdumpew failed', 00H
	ORG $+7
$SG194253 DB	'dump_abs_page()', 00H
$SG194255 DB	'HHC02219%s Error in function %s: %s', 0aH, 00H
	ORG $+3
$SG194256 DB	'z900_dump_abs_page', 00H
	ORG $+5
$SG194257 DB	'C:\papa\MyGit\hyperion-zvector\hscmisc.c', 00H
	ORG $+7
$SG194261 DB	'HHC02290%s %s', 0aH, 00H
	ORG $+1
$SG194262 DB	'z900_dump_abs_page', 00H
	ORG $+5
$SG194263 DB	'C:\papa\MyGit\hyperion-zvector\hscmisc.c', 00H
	ORG $+7
$SG194265 DB	'HHC02291%s %s', 0aH, 00H
	ORG $+1
$SG194266 DB	'z900_dump_abs_page', 00H
	ORG $+5
$SG194267 DB	'C:\papa\MyGit\hyperion-zvector\hscmisc.c', 00H
	ORG $+7
$SG194309 DB	'HHC17000%s Missing or invalid argument(s)', 0aH, 00H
	ORG $+5
$SG194310 DB	'z900_disasm_stor', 00H
	ORG $+7
$SG194311 DB	'C:\papa\MyGit\hyperion-zvector\hscmisc.c', 00H
	ORG $+7
$SG194317 DB	'Real address is not valid', 00H
	ORG $+6
$SG194319 DB	'HHC02289%s %s', 0aH, 00H
	ORG $+1
$SG194320 DB	'z900_disasm_stor', 00H
	ORG $+7
$SG194321 DB	'C:\papa\MyGit\hyperion-zvector\hscmisc.c', 00H
	ORG $+7
$SG194326 DB	'R:%16.16llX  Storage not accessible code = %4.4X (%s)', 00H
	ORG $+2
$SG194328 DB	'HHC02289%s %s', 0aH, 00H
	ORG $+1
$SG194329 DB	'z900_disasm_stor', 00H
	ORG $+7
$SG194330 DB	'C:\papa\MyGit\hyperion-zvector\hscmisc.c', 00H
	ORG $+7
$SG194332 DB	'R:%16.16llX  Addressing exception', 00H
	ORG $+6
$SG194334 DB	'HHC02289%s %s', 0aH, 00H
	ORG $+1
$SG194335 DB	'z900_disasm_stor', 00H
	ORG $+7
$SG194336 DB	'C:\papa\MyGit\hyperion-zvector\hscmisc.c', 00H
	ORG $+7
$SG194338 DB	'R:%16.16llX  Addressing exception', 00H
	ORG $+6
$SG194340 DB	'HHC02289%s %s', 0aH, 00H
	ORG $+1
$SG194341 DB	'z900_disasm_stor', 00H
	ORG $+7
$SG194342 DB	'C:\papa\MyGit\hyperion-zvector\hscmisc.c', 00H
	ORG $+7
$SG194343 DB	'%c:%16.16llX  %2.2X%2.2X', 00H
	ORG $+7
$SG194346 DB	'%2.2X%2.2X', 00H
	ORG $+5
$SG194349 DB	'%2.2X%2.2X ', 00H
	ORG $+4
$SG194351 DB	'         ', 00H
	ORG $+6
$SG194353 DB	'HHC02289%s %s', 0aH, 00H
	ORG $+1
$SG194354 DB	'z900_disasm_stor', 00H
	ORG $+7
$SG194355 DB	'C:\papa\MyGit\hyperion-zvector\hscmisc.c', 00H
	ORG $+7
$SG194418 DB	'HHC17000%s Missing or invalid argument(s)', 0aH, 00H
	ORG $+5
$SG194419 DB	'z900_alter_display_real_or_abs', 00H
	ORG $+1
$SG194420 DB	'C:\papa\MyGit\hyperion-zvector\hscmisc.c', 00H
	ORG $+7
$SG194424 DB	'HHC02327%s %c:%16.16llX  Storage address is not valid', 0aH
	DB	00H
	ORG $+1
$SG194425 DB	'z900_alter_display_real_or_abs', 00H
	ORG $+1
$SG194426 DB	'C:\papa\MyGit\hyperion-zvector\hscmisc.c', 00H
	ORG $+7
$SG194432 DB	'HHC02328%s %c:%16.16llX  Addressing exception', 0aH, 00H
	ORG $+1
$SG194433 DB	'z900_alter_display_real_or_abs', 00H
	ORG $+1
$SG194434 DB	'C:\papa\MyGit\hyperion-zvector\hscmisc.c', 00H
	ORG $+7
$SG194442 DB	'HHC02328%s %c:%16.16llX  Addressing exception', 0aH, 00H
	ORG $+1
$SG194443 DB	'z900_alter_display_real_or_abs', 00H
	ORG $+1
$SG194444 DB	'C:\papa\MyGit\hyperion-zvector\hscmisc.c', 00H
	ORG $+7
$SG194445 DB	'A:%16.16llX  K:%2.2X', 00H
	ORG $+3
$SG194447 DB	'HHC02290%s %s', 0aH, 00H
	ORG $+1
$SG194448 DB	'z900_alter_display_real_or_abs', 00H
	ORG $+1
$SG194449 DB	'C:\papa\MyGit\hyperion-zvector\hscmisc.c', 00H
	ORG $+7
$SG194451 DB	'z900_alter_display_real_or_abs', 00H
	ORG $+1
$SG194452 DB	'C:\papa\MyGit\hyperion-zvector\hscmisc.c', 00H
	ORG $+7
$SG194453 DB	'%s(%d) : warning HHC90999W : *** Assertion Failed! *** f'
	DB	'unction: %s', 0aH, 00H
	ORG $+3
$SG194455 DB	'z900_alter_display_real_or_abs', 00H
	ORG $+1
$SG194456 DB	'C:\papa\MyGit\hyperion-zvector\hscmisc.c', 00H
	ORG $+7
$SG194475 DB	'(dat off)', 00H
	ORG $+6
$SG194483 DB	'(secondary)', 00H
$SG194755 DB	'    ', 00H
	ORG $+7
$SG194457 DB	'%s(%d) : warning HHC90999W : *** Assertion Failed! *** f'
	DB	'unction: %s', 0aH, 00H
	ORG $+3
$SG194479 DB	'(primary)', 00H
	ORG $+6
$SG194489 DB	'(AR%2.2d)', 00H
	ORG $+6
$SG194552 DB	'HHC17000%s Missing or invalid argument(s)', 0aH, 00H
	ORG $+5
$SG194553 DB	'z900_alter_display_virt', 00H
$SG194554 DB	'C:\papa\MyGit\hyperion-zvector\hscmisc.c', 00H
	ORG $+7
$SG194563 DB	'HHC02327%s %c:%16.16llX  Storage address is not valid', 0aH
	DB	00H
	ORG $+1
$SG194564 DB	'z900_alter_display_virt', 00H
$SG194565 DB	'C:\papa\MyGit\hyperion-zvector\hscmisc.c', 00H
	ORG $+7
$SG194569 DB	'HHC02329%s %c:%16.16llX  Translation exception %4.4hX (%'
	DB	's)  %s', 0aH, 00H
$SG194570 DB	'z900_alter_display_virt', 00H
$SG194571 DB	'C:\papa\MyGit\hyperion-zvector\hscmisc.c', 00H
	ORG $+7
$SG194574 DB	'HHC02328%s %c:%16.16llX  Addressing exception', 0aH, 00H
	ORG $+1
$SG194575 DB	'z900_alter_display_virt', 00H
$SG194576 DB	'C:\papa\MyGit\hyperion-zvector\hscmisc.c', 00H
	ORG $+7
$SG194583 DB	'HHC02329%s %c:%16.16llX  Translation exception %4.4hX (%'
	DB	's)  %s', 0aH, 00H
$SG194584 DB	'z900_alter_display_virt', 00H
$SG194585 DB	'C:\papa\MyGit\hyperion-zvector\hscmisc.c', 00H
	ORG $+7
$SG194588 DB	'HHC02328%s %c:%16.16llX  Addressing exception', 0aH, 00H
	ORG $+1
$SG194589 DB	'z900_alter_display_virt', 00H
$SG194590 DB	'C:\papa\MyGit\hyperion-zvector\hscmisc.c', 00H
	ORG $+7
$SG194591 DB	'R:%16.16llX  K:%2.2X  %s', 00H
	ORG $+7
$SG194593 DB	'HHC02291%s %s', 0aH, 00H
	ORG $+1
$SG194594 DB	'z900_alter_display_virt', 00H
$SG194595 DB	'C:\papa\MyGit\hyperion-zvector\hscmisc.c', 00H
	ORG $+7
$SG194597 DB	'z900_alter_display_virt', 00H
$SG194598 DB	'C:\papa\MyGit\hyperion-zvector\hscmisc.c', 00H
	ORG $+7
$SG194599 DB	'%s(%d) : warning HHC90999W : *** Assertion Failed! *** f'
	DB	'unction: %s', 0aH, 00H
	ORG $+3
$SG194601 DB	'z900_alter_display_virt', 00H
$SG194602 DB	'C:\papa\MyGit\hyperion-zvector\hscmisc.c', 00H
	ORG $+7
$SG194603 DB	'%s(%d) : warning HHC90999W : *** Assertion Failed! *** f'
	DB	'unction: %s', 0aH, 00H
	ORG $+3
$SG194706 DB	'C:\papa\MyGit\hyperion-zvector\hscmisc.c:832', 00H
	ORG $+3
$SG194708 DB	'C:\papa\MyGit\hyperion-zvector\hscmisc.c:834', 00H
	ORG $+3
$SG194709 DB	'C:\papa\MyGit\hyperion-zvector\hscmisc.c:838', 00H
	ORG $+3
$SG194713 DB	'Real address is not valid', 00H
	ORG $+6
$SG194715 DB	'HHC02267%s %s', 0aH, 00H
	ORG $+1
$SG194716 DB	'z900_display_inst_adj', 00H
	ORG $+2
$SG194717 DB	'C:\papa\MyGit\hyperion-zvector\hscmisc.c', 00H
	ORG $+7
$SG194726 DB	'%s Instruction fetch error', 0aH, 00H
	ORG $+4
$SG194727 DB	'HHC02269I ', 00H
	ORG $+5
$SG194730 DB	'HHC02325%s %s%s', 0aH, 00H
	ORG $+7
$SG194731 DB	'z900_display_inst_adj', 00H
	ORG $+2
$SG194732 DB	'C:\papa\MyGit\hyperion-zvector\hscmisc.c', 00H
	ORG $+7
$SG194735 DB	'C:\papa\MyGit\hyperion-zvector\hscmisc.c:892', 00H
	ORG $+3
$SG194736 DB	'dinst op,ilc', 00H
	ORG $+3
$SG194738 DB	'C:\papa\MyGit\hyperion-zvector\hscmisc.c:901', 00H
	ORG $+3
$SG194739 DB	'dinst ip,IA', 00H
	ORG $+4
$SG194742 DB	'C:\papa\MyGit\hyperion-zvector\hscmisc.c:907', 00H
	ORG $+3
$SG194743 DB	'dinst ip,IA', 00H
	ORG $+4
$SG194746 DB	'%s%02X: ', 00H
	ORG $+7
$SG194747 DB	'PSW=%2.2X%2.2X%2.2X%2.2X%2.2X%2.2X%2.2X%2.2X ', 00H
	ORG $+2
$SG194748 DB	'%2.2X%2.2X%2.2X%2.2X%2.2X%2.2X%2.2X%2.2X ', 00H
	ORG $+6
$SG194749 DB	'INST=%2.2X%2.2X', 00H
$SG194751 DB	'%2.2X%2.2X', 00H
	ORG $+5
$SG194753 DB	'%2.2X%2.2X', 00H
	ORG $+5
$SG194754 DB	'        ', 00H
	ORG $+7
$SG194759 DB	'HHC02324%s %s', 0aH, 00H
	ORG $+1
$SG194783 DB	'C:\papa\MyGit\hyperion-zvector\hscmisc.c:1062', 00H
	ORG $+2
$SG194784 DB	'dinst rel1:', 00H
	ORG $+4
$SG194786 DB	'C:\papa\MyGit\hyperion-zvector\hscmisc.c:1068', 00H
	ORG $+2
$SG194787 DB	'dinst rel1=', 00H
	ORG $+4
$SG194794 DB	'%s%02X: ', 00H
	ORG $+7
$SG194801 DB	'HHC02326%s %s', 0aH, 00H
	ORG $+1
$SG194806 DB	'%s%02X: ', 00H
	ORG $+7
$SG194816 DB	'HHC02326%s %s', 0aH, 00H
	ORG $+1
$SG194824 DB	'%s%s%s%s', 00H
	ORG $+7
$SG194825 DB	'z900_display_inst_adj', 00H
	ORG $+2
$SG194826 DB	'C:\papa\MyGit\hyperion-zvector\hscmisc.c', 00H
	ORG $+7
$SG194827 DB	'%s%s%s%s', 00H
	ORG $+7
$SG194828 DB	'z900_display_inst_adj', 00H
	ORG $+2
$SG194829 DB	'C:\papa\MyGit\hyperion-zvector\hscmisc.c', 00H
	ORG $+7
$SG194864 DB	'C:\papa\MyGit\hyperion-zvector\hscmisc.c:1252', 00H
	ORG $+2
$SG194865 DB	'C:\papa\MyGit\hyperion-zvector\hscmisc.c:1256', 00H
	ORG $+2
$SG194884 DB	'C:\papa\MyGit\hyperion-zvector\hscmisc.c:1276', 00H
	ORG $+2
$SG194886 DB	'C:\papa\MyGit\hyperion-zvector\hscmisc.c:1283', 00H
	ORG $+2
$SG194891 DB	'C:\papa\MyGit\hyperion-zvector\hscmisc.c:1291', 00H
	ORG $+2
$SG194892 DB	'C:\papa\MyGit\hyperion-zvector\hscmisc.c:1301', 00H
	ORG $+2
$SG194906 DB	'HHC01420%s Begin Hercules shutdown', 0aH, 00H
	ORG $+4
$SG194907 DB	'do_shutdown_now', 00H
$SG194908 DB	'C:\papa\MyGit\hyperion-zvector\hscmisc.c', 00H
	ORG $+7
$SG194910 DB	'do_shutdown_now', 00H
$SG194911 DB	'C:\papa\MyGit\hyperion-zvector\hscmisc.c', 00H
	ORG $+7
$SG194914 DB	'do_shutdown_now', 00H
$SG194926 DB	'HHC01425%s Hercules shutdown complete', 0aH, 00H
	ORG $+1
$SG194912 DB	'%s(%d) : warning HHC90999W : *** Assertion Failed! *** f'
	DB	'unction: %s', 0aH, 00H
	ORG $+3
$SG194915 DB	'C:\papa\MyGit\hyperion-zvector\hscmisc.c', 00H
	ORG $+7
$SG194918 DB	'C:\papa\MyGit\hyperion-zvector\hscmisc.c:1370', 00H
	ORG $+2
$SG194921 DB	'do_shutdown_now', 00H
$SG194940 DB	'do_shutdown_wait', 00H
	ORG $+7
$SG194916 DB	'%s(%d) : warning HHC90999W : *** Assertion Failed! *** f'
	DB	'unction: %s', 0aH, 00H
	ORG $+3
$SG194920 DB	'HHC01423%s Calling termination routines', 0aH, 00H
	ORG $+7
$SG194922 DB	'C:\papa\MyGit\hyperion-zvector\hscmisc.c', 00H
	ORG $+7
$SG194924 DB	'HHC01424%s All termination routines complete', 0aH, 00H
	ORG $+2
$SG194928 DB	'HHC01412%s Hercules terminated', 0aH, 00H
$SG194939 DB	'HHC01426%s Shutdown initiated', 0aH, 00H
	ORG $+1
$SG194941 DB	'C:\papa\MyGit\hyperion-zvector\hscmisc.c', 00H
	ORG $+7
$SG194951 DB	'C:\papa\MyGit\hyperion-zvector\hscmisc.c:1502', 00H
	ORG $+2
$SG194952 DB	'do_shutdown_wait', 00H
	ORG $+7
$SG194980 DB	'%s%02X: ', 00H
	ORG $+7
$SG194984 DB	'%s%2.2d=%8.8X', 00H
	ORG $+2
$SG195017 DB	'%s%02X: ', 00H
	ORG $+7
$SG195021 DB	'%s%1.1X=%16.16llX', 00H
	ORG $+6
$SG195045 DB	'HHC02269I ', 00H
	ORG $+5
$SG195050 DB	'HHC02271I ', 00H
	ORG $+5
$SG195054 DB	'HHC02272I ', 00H
	ORG $+5
$SG195082 DB	'HHC02276%s Floating point control register: %08X', 0aH, 00H
	ORG $+6
$SG195099 DB	'HHC02270I ', 00H
	ORG $+5
$SG195103 DB	'HHC02277I ', 00H
	ORG $+5
$SG195178 DB	'%s%s%02X: ', 00H
	ORG $+5
$SG195182 DB	'%sFPR0=%8.8X%8.8X FPR2=%8.8X%8.8X', 0aH, '%sFPR1=%8.8X%8'
	DB	'.8X FPR3=%8.8X%8.8X', 0aH, '%sFPR4=%8.8X%8.8X FPR6=%8.8X%8.8X'
	DB	0aH, '%sFPR5=%8.8X%8.8X FPR7=%8.8X%8.8X', 0aH, '%sFPR8=%8.8X%8'
	DB	'.8X FP10=%8.8X%8.8X', 0aH, '%sFPR9=%8.8X%8.8X FP11=%8.8X%8.8X'
	DB	0aH, '%sFP12=%8.8X%8.8X FP14=%8.8X%8.8X', 0aH, '%sFP13=%8.8X%8'
	DB	'.8X FP15=%8.8X%8.8X', 0aH, 00H
	ORG $+7
$SG195205 DB	'%s%s%02X: ', 00H
	ORG $+5
?status_type@?1??display_subchannel@@9@9 DQ FLAT:$SG195236 ; `display_subchannel'::`2'::status_type
	DQ	FLAT:$SG195237
	DQ	FLAT:$SG195238
$SG195183 DB	'%sFPR0=%8.8X%8.8X FPR2=%8.8X%8.8X', 0aH, '%sFPR4=%8.8X%8'
	DB	'.8X FPR6=%8.8X%8.8X', 0aH, 00H
	ORG $+3
$SG195239 DB	'%s%1d:%04X D/T%04X', 0aH, 00H
	ORG $+4
$SG195207 DB	'VR%02d=%02X%02X%02X%02X%02X%02X%02X%02X%02X%02X%02X%02X%'
	DB	'02X%02X%02X%02X', 00H
$SG195254 DB	'CUE ', 00H
	ORG $+3
$SG195208 DB	'%s%s %s', 0aH, '%s%s %s', 0aH, '%s%s %s', 0aH, '%s%s %s', 0aH
	DB	'%s%s %s', 0aH, '%s%s %s', 0aH, '%s%s %s', 0aH, '%s%s %s', 0aH
	DB	'%s%s %s', 0aH, '%s%s %s', 0aH, '%s%s %s', 0aH, '%s%s %s', 0aH
	DB	'%s%s %s', 0aH, '%s%s %s', 0aH, '%s%s %s', 0aH, '%s%s %s', 0aH
	DB	00H
	ORG $+7
$SG195258 DB	'Attention ', 00H
	ORG $+5
$SG195262 DB	'%s    %s %s%s%s%s%s%s%s%s%s', 0aH, 00H
	ORG $+3
$SG195265 DB	'ICC ', 00H
	ORG $+3
$SG195241 DB	'%s  CSW Flags:%2.2X CCW:%2.2X%2.2X%2.2X            Flags'
	DB	0aH, '%s         US:%2.2X  CS:%2.2X Count:%2.2X%2.2X       (Ke'
	DB	'y) Subchannel key          %1.1X', 0aH, '%s                  '
	DB	'                     (S)   Suspend control         %1.1X', 0aH
	DB	'%s                                       (L)   Extended forma'
	DB	't         %1.1X', 0aH, '%s  Subchannel Internal Management   '
	DB	'    (CC)  Deferred condition code %1.1X', 0aH, 00H
	ORG $+6
$SG195242 DB	'%s  Subchannel Number[%04X]', 0aH, '%s    Path Managemen'
	DB	't Control Word (PMCW)', 0aH, '%s  IntParm:%2.2X%2.2X%2.2X%2.2'
	DB	'X', 0aH, '%s    Flags:%2.2X%2.2X        Dev:%2.2X%2.2X', 0aH, '%'
	DB	's      LPM:%2.2X PNOM:%2.2X LPUM:%2.2X PIM:%2.2X', 0aH, '%s  '
	DB	'    MBI:%2.2X%2.2X        POM:%2.2X PAM:%2.2X', 0aH, '%s  CHP'
	DB	'ID 0:%2.2X    1:%2.2X    2:%2.2X   3:%2.2X', 0aH, '%s        '
	DB	'4:%2.2X    5:%2.2X    6:%2.2X   7:%2.2X', 0aH, '%s     Misc:%'
	DB	'2.2X%2.2X%2.2X%2.2X', 0aH, 00H
	ORG $+2
$SG195243 DB	'%s  Subchannel Status Word (SCSW)', 0aH, '%s    Flags: %'
	DB	'2.2X%2.2X  Subchan Ctl: %2.2X%2.2X     (FC)  Function Control'
	DB	0aH, '%s      CCW: %2.2X%2.2X%2.2X%2.2X                       '
	DB	'   Start                   %1.1X', 0aH, '%s       DS: %2.2X  '
	DB	'SS: %2.2X  Count: %2.2X%2.2X           Halt                  '
	DB	'  %1.1X', 0aH, '%s                                           '
	DB	'  Clear                   %1.1X', 0aH, '%s    Flags          '
	DB	'                    (AC)  Activity Control', 0aH, '%s      (K'
	DB	'ey) Subchannel key          %1.1X        Resume pending      '
	DB	'    %1.1X', 0aH, '%s      (S)   Suspend control         %1.1X'
	DB	'        Start pending           %1.1X', 0aH, '%s      (L)   E'
	DB	'xtended format         %1.1X        Halt pending            %'
	DB	'1.1X', 0aH, '%s      (CC)  Deferred condition code %1.1X     '
	DB	'   Clear pending           %1.1X', 0aH, '%s      (F)   CCW-fo'
	DB	'rmat control      %1.1X        Subchannel active       %1.1X', 0aH
	DB	'%s      (P)   Prefetch control        %1.1X        Device act'
	DB	'ive           %1.1X', 0aH, '%s      (I)   Initial-status cont'
	DB	'rol  %1.1X        Suspended               %1.1X', 0aH, '%s   '
	DB	'   (A)   Address-limit control   %1.1X  (SC)  Status Control', 0aH
	DB	'%s      (U)   Suppress-suspend int.   %1.1X        Alert     '
	DB	'              %1.1X', 0aH, '%s    Subchannel Control         '
	DB	'              Intermediate            %1.1X', 0aH, '%s      ('
	DB	'Z)   Zero condition code     %1.1X        Primary            '
	DB	'     %1.1X', 0aH, '%s      (E)   Extended control (ECW)  %1.1'
	DB	'X        Secondary               %1.1X', 0aH, '%s      (N)   '
	DB	'Path not operational    %1.1X        Status pending          '
	DB	'%1.1X', 0aH, '%s      (Q)   QDIO active             %1.1X', 0aH
	DB	00H
	ORG $+4
$SG195260 DB	'is Normal', 00H
	ORG $+2
$SG195267 DB	'CCC ', 00H
	ORG $+3
$SG195269 DB	'CDC ', 00H
	ORG $+3
$SG195277 DB	'PCI ', 00H
	ORG $+7
$SG195279 DB	'is Normal', 00H
	ORG $+6
$SG195281 DB	'%s    %s %s%s%s%s%s%s%s%s%s', 0aH, 00H
	ORG $+3
$SG195282 DB	'%s  DEVBLK Status', 0aH, '%s    busy             %1.1X  '
	DB	'  shareable     %1.1X', 0aH, '%s    suspended        %1.1X   '
	DB	' console       %1.1X    rlen3270 %5d', 0aH, '%s    pending   '
	DB	'       %1.1X    connected     %1.1X', 0aH, '%s    pcipending '
	DB	'      %1.1X    readpending   %1.1X', 0aH, '%s    attnpending '
	DB	'     %1.1X    connecting    %1.1X', 0aH, '%s    startpending '
	DB	'    %1.1X    localhost     %1.1X', 0aH, '%s    resumesuspende'
	DB	'd  %1.1X    reserved      %1.1X', 0aH, '%s    tschpending    '
	DB	'  %1.1X    locked        %1.1X', 0aH, 00H
	ORG $+5
$SG195313 DB	'HHC17000%s Missing or invalid argument(s)', 0aH, 00H
	ORG $+5
$SG195314 DB	'parse_range', 00H
	ORG $+4
$SG195315 DB	'C:\papa\MyGit\hyperion-zvector\hscmisc.c', 00H
	ORG $+7
$SG195316 DB	'%llx%c%llx%c', 00H
	ORG $+3
$SG195322 DB	': string expected', 00H
	ORG $+6
$SG195325 DB	'HHC02205%s Invalid argument %s%s', 0aH, 00H
	ORG $+6
$SG195326 DB	'parse_range', 00H
	ORG $+4
$SG195327 DB	'C:\papa\MyGit\hyperion-zvector\hscmisc.c', 00H
	ORG $+7
$SG195329 DB	': maximum string length is 32 characters', 00H
	ORG $+7
$SG195332 DB	'HHC02205%s Invalid argument %s%s', 0aH, 00H
	ORG $+6
$SG195333 DB	'parse_range', 00H
	ORG $+4
$SG195334 DB	'C:\papa\MyGit\hyperion-zvector\hscmisc.c', 00H
	ORG $+7
$SG195342 DB	': invalid hex digit', 00H
	ORG $+4
$SG195344 DB	'HHC02205%s Invalid argument %s%s', 0aH, 00H
	ORG $+6
$SG195345 DB	'parse_range', 00H
	ORG $+4
$SG195346 DB	'C:\papa\MyGit\hyperion-zvector\hscmisc.c', 00H
	ORG $+7
$SG195348 DB	': invalid hex pair', 00H
	ORG $+5
$SG195350 DB	'HHC02205%s Invalid argument %s%s', 0aH, 00H
	ORG $+6
$SG195351 DB	'parse_range', 00H
	ORG $+4
$SG195352 DB	'C:\papa\MyGit\hyperion-zvector\hscmisc.c', 00H
	ORG $+7
$SG195354 DB	': only a maximum of 32 bytes may be altered', 00H
	ORG $+4
$SG195356 DB	'HHC02205%s Invalid argument %s%s', 0aH, 00H
	ORG $+6
$SG195357 DB	'parse_range', 00H
	ORG $+4
$SG195358 DB	'C:\papa\MyGit\hyperion-zvector\hscmisc.c', 00H
	ORG $+7
$SG195366 DB	'HHC02205%s Invalid argument %s%s', 0aH, 00H
	ORG $+6
$SG195367 DB	'parse_range', 00H
	ORG $+4
$SG195368 DB	'C:\papa\MyGit\hyperion-zvector\hscmisc.c', 00H
	ORG $+7
$SG195371 DB	': invalid range', 00H
$SG195373 DB	'HHC02205%s Invalid argument %s%s', 0aH, 00H
	ORG $+6
$SG195374 DB	'parse_range', 00H
	ORG $+4
$SG195375 DB	'C:\papa\MyGit\hyperion-zvector\hscmisc.c', 00H
	ORG $+7
$SG195385 DB	'C:\papa\MyGit\hyperion-zvector\hscmisc.c:2213', 00H
	ORG $+2
$SG195387 DB	'C:\papa\MyGit\hyperion-zvector\hscmisc.c:2222', 00H
	ORG $+2
$SG195403 DB	'malloc(%d)', 00H
	ORG $+5
$SG195405 DB	'HHC00075%s Error in function %s: %s', 0aH, 00H
	ORG $+3
$SG195406 DB	'copy_regs', 00H
	ORG $+6
$SG195407 DB	'C:\papa\MyGit\hyperion-zvector\hscmisc.c', 00H
	ORG $+7
?rsctab@?1??FormatCRW@@9@9 DQ FLAT:$SG195433		; `FormatCRW'::`2'::rsctab
	DQ	FLAT:$SG195434
	DQ	FLAT:$SG195435
	DQ	FLAT:$SG195436
	DQ	FLAT:$SG195437
	DQ	FLAT:$SG195438
	DQ	FLAT:$SG195439
	DQ	FLAT:$SG195440
	DQ	FLAT:$SG195441
	DQ	FLAT:$SG195442
	DQ	FLAT:$SG195443
	DQ	FLAT:$SG195444
?erctab@?1??FormatCRW@@9@9 DQ FLAT:$SG195445		; `FormatCRW'::`2'::erctab
	DQ	FLAT:$SG195446
	DQ	FLAT:$SG195447
	DQ	FLAT:$SG195448
	DQ	FLAT:$SG195449
	DQ	FLAT:$SG195450
	DQ	FLAT:$SG195451
	DQ	FLAT:$SG195452
	DQ	FLAT:$SG195453
	DQ	FLAT:$SG195454
	DQ	FLAT:$SG195455
$SG195461 DB	'0x00400000,', 00H
$SG195469 DB	'SOL,', 00H
	ORG $+7
$SG195471 DB	'0x80000000,', 00H
	ORG $+4
$SG195477 DB	'RSC:%d=%s, ERC:%d=%s, RSID:%d=0x%4.4X Flags:%s%s%s%s%s%s'
	DB	'%s', 00H
	ORG $+5
?sa@?1??FormatSCL@@9@9 DQ FLAT:$SG195492		; `FormatSCL'::`2'::sa
	DQ	FLAT:$SG195493
	DQ	FLAT:$SG195494
	DQ	FLAT:$SG195495
?tc@?1??FormatSCL@@9@9 DQ FLAT:$SG195496		; `FormatSCL'::`2'::tc
	DQ	FLAT:$SG195497
	DQ	FLAT:$SG195498
	DQ	FLAT:$SG195499
$SG195504 DB	' (R)', 00H
	ORG $+3
$SG195519 DB	'Flags:%c%c%c%c%c%c%c%c %c%c SCNT:%d', 00H
	ORG $+4
$SG195506 DB	'ESF:%c%c%c%c%c%c%c%c%s FVF:%c%c%c%c%c LPUM:%2.2X SA:%s T'
	DB	'C:%s Flgs:%c%c%c SC=%d', 00H
	ORG $+1
$SG195534 DB	'SCL = %s, ERW = %s', 00H
	ORG $+5
NED_NEQ_type DQ	FLAT:$SG195554
	DQ	FLAT:$SG195555
	DQ	FLAT:$SG195556
	DQ	FLAT:$SG195557
?ned_type@?1??FormatNED@@9@9 DQ FLAT:$SG195584		; `FormatNED'::`2'::ned_type
	DQ	FLAT:$SG195585
	DQ	FLAT:$SG195586
$SG195552 DB	'SDC: type/model:%c%c%c%c%c%c-%c%c%c mfg:%c%c%c plant:%c%'
	DB	'c seq/serial:%c%c%c%c%c%c%c%c%c%c%c%c', 0aH, 00H
	ORG $+1
?sn_ind@?1??FormatNED@@9@9 DQ FLAT:$SG195580		; `FormatNED'::`2'::sn_ind
	DQ	FLAT:$SG195581
	DQ	FLAT:$SG195582
	DQ	FLAT:$SG195583
?dev_class@?1??FormatNED@@9@9 DQ FLAT:$SG195587		; `FormatNED'::`2'::dev_class
	DQ	FLAT:$SG195588
	DQ	FLAT:$SG195589
	DQ	FLAT:$SG195590
	DQ	FLAT:$SG195591
	DQ	FLAT:$SG195592
	DQ	FLAT:$SG195593
	DQ	FLAT:$SG195594
	DQ	FLAT:$SG195595
	DQ	FLAT:$SG195596
	DQ	FLAT:$SG195597
	DQ	FLAT:$SG195598
$SG195611 DB	'UNRELATED', 00H
	ORG $+6
$SG195612 DB	'RELATED', 00H
$SG195613 DB	'(EMULATED) ', 00H
	ORG $+4
$SG195617 DB	'NED:%s%styp:%s cls:%s lvl:%s sn:%s tag:%02X%02X', 0aH, ' '
	DB	'    %s', 00H
$SG195618 DB	'UNRELATED', 00H
	ORG $+6
$SG195619 DB	'RELATED', 00H
$SG195620 DB	'(EMULATED) ', 00H
	ORG $+4
$SG195624 DB	'NED:%s%styp:%s lvl:%s sn:%s tag:%02X%02X', 0aH, '     %s'
	DB	00H
	ORG $+7
$SG195643 DB	'NEQ: typ:%s IID:%02X%02X DDTO:%u', 0aH, '     %02X%02X%0'
	DB	'2X%02X %02X%02X%02X%02X', 0aH, '     %02X%02X%02X%02X %02X%02'
	DB	'X%02X%02X', 0aH, '     %02X%02X%02X%02X %02X%02X%02X%02X', 0aH
	DB	'     %02X%02X%02X%02X %02X%02X%02X%02X', 0aH, 00H
	ORG $+2
$SG195661 DB	'%02X', 00H
	ORG $+3
$SG195693 DB	'n/a', 0aH, 00H
	ORG $+3
?css_class@?1??FormatND@@9@9 DQ FLAT:$SG195721		; `FormatND'::`2'::css_class
	DQ	FLAT:$SG195722
	DQ	FLAT:$SG195723
$SG195756 DB	'LINK', 00H
	ORG $+3
?val_type@?1??FormatND@@9@9 DQ FLAT:$SG195724		; `FormatND'::`2'::val_type
	DQ	FLAT:$SG195725
	DQ	FLAT:$SG195726
	DQ	FLAT:$SG195727
	DQ	FLAT:$SG195728
	DQ	FLAT:$SG195729
	DQ	FLAT:$SG195730
	DQ	FLAT:$SG195731
?dev_class@?1??FormatND@@9@9 DQ FLAT:$SG195732		; `FormatND'::`2'::dev_class
	DQ	FLAT:$SG195733
	DQ	FLAT:$SG195734
	DQ	FLAT:$SG195735
	DQ	FLAT:$SG195736
	DQ	FLAT:$SG195737
	DQ	FLAT:$SG195738
	DQ	FLAT:$SG195739
	DQ	FLAT:$SG195740
	DQ	FLAT:$SG195741
	DQ	FLAT:$SG195742
	DQ	FLAT:$SG195743
$SG195757 DB	'BYTE3', 00H
	ORG $+2
$SG195761 DB	'ND:  val:%s typ:%s cls:%s %s:%02X tag:%02X%02X', 0aH, ' '
	DB	'    %s', 00H
	ORG $+1
$SG195763 DB	'ND:  val:INVALID', 0aH, 00H
	ORG $+6
$SG195765 DB	'ND:  val:%u (invalid)', 0aH, 00H
	ORG $+1
?type@?1??FormatNQ@@9@9 DQ FLAT:$SG195779		; `FormatNQ'::`2'::type
	DQ	FLAT:$SG195780
	DQ	FLAT:$SG195781
	DQ	FLAT:$SG195782
	DQ	FLAT:$SG195783
	DQ	FLAT:$SG195784
	DQ	FLAT:$SG195785
	DQ	FLAT:$SG195786
$SG195791 DB	'NQ:  %02X%02X%02X%02X %02X%02X%02X%02X  (typ:%s)', 0aH, ' '
	DB	'    %02X%02X%02X%02X %02X%02X%02X%02X', 0aH, '     %02X%02X%0'
	DB	'2X%02X %02X%02X%02X%02X', 0aH, '     %02X%02X%02X%02X %02X%02'
	DB	'X%02X%02X', 0aH, 00H
	ORG $+1
$SG195859 DB	'CIW: %02X%02X%02X%02X  not a CIW', 0aH, 00H
	ORG $+6
?type@?1??FormatCIW@@9@9 DQ FLAT:$SG195836		; `FormatCIW'::`2'::type
	DQ	FLAT:$SG195837
	DQ	FLAT:$SG195838
	DQ	FLAT:$SG195839
	DQ	FLAT:$SG195840
	DQ	FLAT:$SG195841
	DQ	FLAT:$SG195842
	DQ	FLAT:$SG195843
	DQ	FLAT:$SG195844
	DQ	FLAT:$SG195845
	DQ	FLAT:$SG195846
	DQ	FLAT:$SG195847
	DQ	FLAT:$SG195848
	DQ	FLAT:$SG195849
	DQ	FLAT:$SG195850
	DQ	FLAT:$SG195851
$SG195858 DB	'CIW: %02X%02X%02X%02X  typ:%s op:%02X len:%u', 0aH, 00H
	ORG $+2
$SG195880 DB	'%02X CU=%02X%02X-%02X DEV=%02X%02X-%02X %02X', 0aH, 00H
	ORG $+2
$SG195882 DB	' ', 09H, 0aH, 0bH, 0cH, 0dH, 00H
	ORG $+1
$SG195963 DB	'conspawn ', 00H
	ORG $+6
$SG195964 DB	'conspawn ', 00H
_DATA	ENDS
;	COMDAT xdata
xdata	SEGMENT
$unwind$z900__get_storage_key DD 010d01H
	DD	0620dH
xdata	ENDS
;	COMDAT xdata
xdata	SEGMENT
$unwind$s390__get_storage_key DD 010d01H
	DD	0620dH
xdata	ENDS
;	COMDAT xdata
xdata	SEGMENT
$unwind$s370__get_storage_key DD 010d01H
	DD	0620dH
xdata	ENDS
;	COMDAT xdata
xdata	SEGMENT
$unwind$_get_storekey_ptr DD 010d01H
	DD	0220dH
xdata	ENDS
voltbl	SEGMENT
_volmd	DD	0ffffffffH
	DDSymXIndex: 	FLAT:FormatND
	DD	020H
	DD	031bH
_volmd	DD	0ffffffffH
	DDSymXIndex: 	FLAT:FormatNED
	DD	020H
	DD	0486H
_volmd	DD	0ffffffffH
	DDSymXIndex: 	FLAT:z900_display_inst_adj
	DD	027H
	DD	01b8aH
_volmd	DD	0ffffffffH
	DDSymXIndex: 	FLAT:z900_alter_display_virt
	DD	024H
	DD	099eH
_volmd	DD	0ffffffffH
	DDSymXIndex: 	FLAT:z900_bldtrans
	DD	021H
	DD	0ffH
_volmd	DD	0ffffffffH
	DDSymXIndex: 	FLAT:z900_alter_display_real_or_abs
	DD	024H
	DD	070bH
_volmd	DD	0ffffffffH
	DDSymXIndex: 	FLAT:z900_disasm_stor
	DD	026H
	DD	078eH
_volmd	DD	0ffffffffH
	DDSymXIndex: 	FLAT:z900_dump_abs_page
	DD	025H
	DD	04eaH
_volmd	DD	0ffffffffH
	DDSymXIndex: 	FLAT:z900_display_real
	DD	026H
	DD	040cH
_volmd	DD	0ffffffffH
	DDSymXIndex: 	FLAT:s390_display_inst_adj
	DD	027H
	DD	019d9H
_volmd	DD	0ffffffffH
	DDSymXIndex: 	FLAT:s390_alter_display_virt
	DD	024H
	DD	0996H
_volmd	DD	0ffffffffH
	DDSymXIndex: 	FLAT:s390_bldtrans
	DD	021H
	DD	0ffH
_volmd	DD	0ffffffffH
	DDSymXIndex: 	FLAT:s390_alter_display_real_or_abs
	DD	024H
	DD	0707H
_volmd	DD	0ffffffffH
	DDSymXIndex: 	FLAT:s390_disasm_stor
	DD	026H
	DD	078cH
_volmd	DD	0ffffffffH
	DDSymXIndex: 	FLAT:s390_dump_abs_page
	DD	025H
	DD	04eaH
_volmd	DD	0ffffffffH
	DDSymXIndex: 	FLAT:s390_display_real
	DD	026H
	DD	040aH
_volmd	DD	0ffffffffH
	DDSymXIndex: 	FLAT:s370_display_inst_adj
	DD	027H
	DD	019e1H
_volmd	DD	0ffffffffH
	DDSymXIndex: 	FLAT:s370_alter_display_virt
	DD	024H
	DD	0996H
_volmd	DD	0ffffffffH
	DDSymXIndex: 	FLAT:s370_bldtrans
	DD	021H
	DD	010fH
_volmd	DD	0ffffffffH
	DDSymXIndex: 	FLAT:s370_alter_display_real_or_abs
	DD	024H
	DD	0707H
_volmd	DD	0ffffffffH
	DDSymXIndex: 	FLAT:s370_disasm_stor
	DD	026H
	DD	079fH
_volmd	DD	0ffffffffH
	DDSymXIndex: 	FLAT:s370_dump_abs_page
	DD	025H
	DD	0579H
_volmd	DD	0ffffffffH
	DDSymXIndex: 	FLAT:s370_display_real
	DD	026H
	DD	0466H
_volmd	DD	0ffffffffH
	DDSymXIndex: 	FLAT:FormatRNI
	DD	024H
	DD	0206H
_volmd	DD	0ffffffffH
	DDSymXIndex: 	FLAT:FormatRCD
	DD	024H
	DD	01b7H
_volmd	DD	0ffffffffH
	DDSymXIndex: 	FLAT:FormatSID
	DD	026H
	DD	0288H
_volmd	DD	0ffffffffH
	DDSymXIndex: 	FLAT:copy_regs
	DD	018H
	DD	0285H
_volmd	DD	0ffffffffH
	DDSymXIndex: 	FLAT:FormatESW
	DD	020H
	DD	0daH
_volmd	DD	0ffffffffH
	DDSymXIndex: 	FLAT:display_aregs
	DD	025H
	DD	0baH
_volmd	DD	0ffffffffH
	DDSymXIndex: 	FLAT:display_cregs
	DD	025H
	DD	0171H
_volmd	DD	0ffffffffH
	DDSymXIndex: 	FLAT:display_vregs
	DD	031H
	DD	090aH
_volmd	DD	0ffffffffH
	DDSymXIndex: 	FLAT:display_fregs
	DD	031H
	DD	07faH
_volmd	DD	0ffffffffH
	DDSymXIndex: 	FLAT:display_gregs
	DD	025H
	DD	016bH
voltbl	ENDS
;	COMDAT xdata
xdata	SEGMENT
$unwind$fetch_fw_noswap DD 010901H
	DD	02209H
xdata	ENDS
;	COMDAT xdata
xdata	SEGMENT
$unwind$fetch_hw_noswap DD 010901H
	DD	02209H
xdata	ENDS
xdata	SEGMENT
$unwind$DebuggerTrace DD 011801H
	DD	0a218H
$unwind$s370_display_inst DD 010e01H
	DD	0420eH
$unwind$s370_display_pgmint_inst DD 010e01H
	DD	0420eH
$unwind$herc_system DD 010901H
	DD	08209H
$unwind$do_shutdown DD 010401H
	DD	08204H
$unwind$insttrace_all DD 010401H
	DD	02204H
$unwind$display_gregs DD 022d19H
	DD	025011bH
	DD	imagerel __GSHandlerCheck
	DD	0110H
$unwind$display_fregs DD 0a3919H
	DD	0470127H
	DD	0e01ef020H
	DD	0c01ad01cH
	DD	060177018H
	DD	030155016H
	DD	imagerel __GSHandlerCheck
	DD	0228H
$unwind$display_vregs DD 0a3919H
	DD	0d50127H
	DD	0e01ef020H
	DD	0c01ad01cH
	DD	060177018H
	DD	030155016H
	DD	imagerel __GSHandlerCheck
	DD	0690H
$unwind$display_cregs DD 022d19H
	DD	025011bH
	DD	imagerel __GSHandlerCheck
	DD	0110H
$unwind$display_aregs DD 022d19H
	DD	015011bH
	DD	imagerel __GSHandlerCheck
	DD	090H
$unwind$display_subchannel DD 0a2701H
	DD	06d0127H
	DD	0e01ef020H
	DD	0c01ad01cH
	DD	060177018H
	DD	030155016H
$unwind$display_inst_regs DD 011701H
	DD	08217H
$unwind$FormatCRW DD 021501H
	DD	01d0115H
$unwind$FormatSCL DD 021601H
	DD	0230116H
$unwind$FormatERW DD 021601H
	DD	0150116H
$unwind$FormatESW DD 022819H
	DD	01b0116H
	DD	imagerel __GSHandlerCheck
	DD	0c0H
$unwind$parse_range DD 021b01H
	DD	019011bH
$unwind$copy_regs DD 042019H
	DD	01b010eH
	DD	060067007H
	DD	imagerel __GSHandlerCheck
	DD	0c0H
$unwind$FormatSID DD 042e19H
	DD	01f011cH
	DD	030147015H
	DD	imagerel __GSHandlerCheck
	DD	0e0H
$unwind$FormatRCD DD 022c19H
	DD	029011aH
	DD	imagerel __GSHandlerCheck
	DD	0130H
$unwind$FormatRNI DD 022c19H
	DD	029011aH
	DD	imagerel __GSHandlerCheck
	DD	0130H
$unwind$s370_virt_to_real DD 031a01H
	DD	07016821aH
	DD	06015H
$unwind$s390_virt_to_real DD 031a01H
	DD	07016821aH
	DD	06015H
$unwind$z900_virt_to_real DD 031a01H
	DD	07016821aH
	DD	06015H
$unwind$get_connected_client DD 011301H
	DD	04213H
$unwind$alter_display_real_or_abs DD 011701H
	DD	06217H
$unwind$alter_display_virt DD 011701H
	DD	08217H
$unwind$disasm_stor DD 011701H
	DD	08217H
$unwind$s390_display_inst DD 010e01H
	DD	0420eH
$unwind$z900_display_inst DD 010e01H
	DD	0420eH
$unwind$s370_display_guest_inst DD 010e01H
	DD	0620eH
$unwind$s390_display_guest_inst DD 010e01H
	DD	0620eH
$unwind$z900_display_guest_inst DD 010e01H
	DD	0620eH
$unwind$Interrupt_Lock_Obtained DD 010e01H
	DD	0420eH
$unwind$Obtain_Interrupt_Lock DD 010e01H
	DD	0420eH
$unwind$Release_Interrupt_Lock DD 010e01H
	DD	0420eH
$unwind$are_all_cpus_stopped_intlock_held DD 010401H
	DD	02204H
$unwind$s370_display_real DD 032e19H
	DD	01a011cH
	DD	07015H
	DD	imagerel __GSHandlerCheck
	DD	0c0H
$unwind$s370_display_virt DD 011701H
	DD	0a217H
$unwind$s370_dump_abs_page DD 022d19H
	DD	01d011bH
	DD	imagerel __GSHandlerCheck
	DD	0d0H
$unwind$s370_disasm_stor DD 042e19H
	DD	059011cH
	DD	060147015H
	DD	imagerel __GSHandlerCheck
	DD	02b0H
$unwind$s370_alter_display_real_or_abs DD 022c19H
	DD	02b011aH
	DD	imagerel __GSHandlerCheck
	DD	0140H
$unwind$s370_bldtrans DD 012619H
	DD	08217H
	DD	imagerel __GSHandlerCheck
	DD	030H
$unwind$s370_alter_display_virt DD 022c19H
	DD	037011aH
	DD	imagerel __GSHandlerCheck
	DD	01a0H
$unwind$s370_display_inst_adj DD 032f19H
	DD	02aa011dH
	DD	07010H
	DD	imagerel __GSHandlerCheck
	DD	01540H
$unwind$s390_display_pgmint_inst DD 010e01H
	DD	0420eH
$unwind$s390_display_real DD 032e19H
	DD	01a011cH
	DD	07015H
	DD	imagerel __GSHandlerCheck
	DD	0c0H
$unwind$s390_display_virt DD 011701H
	DD	0a217H
$unwind$s390_dump_abs_page DD 022d19H
	DD	01d011bH
	DD	imagerel __GSHandlerCheck
	DD	0d0H
$unwind$s390_disasm_stor DD 042e19H
	DD	059011cH
	DD	060147015H
	DD	imagerel __GSHandlerCheck
	DD	02b0H
$unwind$s390_alter_display_real_or_abs DD 022c19H
	DD	02b011aH
	DD	imagerel __GSHandlerCheck
	DD	0140H
$unwind$s390_bldtrans DD 012619H
	DD	08217H
	DD	imagerel __GSHandlerCheck
	DD	030H
$unwind$s390_alter_display_virt DD 022c19H
	DD	037011aH
	DD	imagerel __GSHandlerCheck
	DD	01a0H
$unwind$s390_display_inst_adj DD 032f19H
	DD	02aa011dH
	DD	07010H
	DD	imagerel __GSHandlerCheck
	DD	01540H
$unwind$z900_display_pgmint_inst DD 010e01H
	DD	0420eH
$unwind$z900_display_real DD 032e19H
	DD	01a011cH
	DD	07015H
	DD	imagerel __GSHandlerCheck
	DD	0c0H
$unwind$z900_display_virt DD 011801H
	DD	0a218H
$unwind$z900_dump_abs_page DD 022d19H
	DD	01d011bH
	DD	imagerel __GSHandlerCheck
	DD	0d0H
$unwind$z900_disasm_stor DD 042e19H
	DD	059011cH
	DD	060147015H
	DD	imagerel __GSHandlerCheck
	DD	02b0H
$unwind$z900_alter_display_real_or_abs DD 022c19H
	DD	02b011aH
	DD	imagerel __GSHandlerCheck
	DD	0140H
$unwind$z900_bldtrans DD 012619H
	DD	08217H
	DD	imagerel __GSHandlerCheck
	DD	030H
$unwind$z900_alter_display_virt DD 022c19H
	DD	037011aH
	DD	imagerel __GSHandlerCheck
	DD	01a0H
$unwind$z900_display_inst_adj DD 032f19H
	DD	02ac011dH
	DD	07010H
	DD	imagerel __GSHandlerCheck
	DD	01550H
$unwind$is_guest_quiesced DD 010401H
	DD	06204H
$unwind$wait_for_guest_to_quiesce DD 010401H
	DD	06204H
$unwind$cancel_wait_for_guest_quiesce DD 010401H
	DD	04204H
$unwind$do_shutdown_now DD 010401H
	DD	0a204H
$unwind$do_shutdown_wait DD 010901H
	DD	08209H
$unwind$display_regs32 DD 011801H
	DD	0a218H
$unwind$display_regs64 DD 011801H
	DD	0a218H
$unwind$sdcchar DD 010801H
	DD	06208H
$unwind$FormatSDC DD 021601H
	DD	02d0116H
$unwind$FormatNED DD 022819H
	DD	03b0116H
	DD	imagerel __GSHandlerCheck
	DD	01c0H
$unwind$FormatNEQ DD 0a2201H
	DD	0370122H
	DD	0e019f01bH
	DD	0c015d017H
	DD	060127013H
	DD	030105011H
$unwind$FormatBytes DD 011701H
	DD	06217H
$unwind$FormatND DD 022819H
	DD	0370116H
	DD	imagerel __GSHandlerCheck
	DD	01a0H
$unwind$FormatNQ DD 0a2201H
	DD	0310122H
	DD	0e019f01bH
	DD	0c015d017H
	DD	060127013H
	DD	030105011H
$unwind$FormatCIW DD 031501H
	DD	07011a215H
	DD	03010H
xdata	ENDS
;	COMDAT xdata
xdata	SEGMENT
$unwind$sscanf DD 011801H
	DD	06218H
xdata	ENDS
;	COMDAT xdata
xdata	SEGMENT
$unwind$_vsscanf_l DD 011801H
	DD	06218H
xdata	ENDS
;	COMDAT xdata
xdata	SEGMENT
$unwind$sprintf DD 011801H
	DD	06218H
xdata	ENDS
;	COMDAT xdata
xdata	SEGMENT
$unwind$_vsnprintf_s DD 011801H
	DD	06218H
xdata	ENDS
;	COMDAT xdata
xdata	SEGMENT
$unwind$_vsnprintf_s_l DD 011801H
	DD	0a218H
xdata	ENDS
;	COMDAT xdata
xdata	SEGMENT
$unwind$_vsprintf_l DD 011801H
	DD	06218H
xdata	ENDS
;	COMDAT xdata
xdata	SEGMENT
$unwind$_vsnprintf_l DD 011801H
	DD	08218H
xdata	ENDS
; Function compile flags: /Odtp
; File C:\papa\MyGit\hyperion-zvector\hscmisc.c
_TEXT	SEGMENT
ciw$ = 112
buf$ = 120
bufsz$ = 128
FormatCIW PROC

; 2916 : {

$LN9:
  00000	4c 89 44 24 18	 mov	 QWORD PTR [rsp+24], r8
  00005	48 89 54 24 10	 mov	 QWORD PTR [rsp+16], rdx
  0000a	48 89 4c 24 08	 mov	 QWORD PTR [rsp+8], rcx
  0000f	53		 push	 rbx
  00010	57		 push	 rdi
  00011	48 83 ec 58	 sub	 rsp, 88			; 00000058H

; 2917 :     static const char* type[] =
; 2918 :     {
; 2919 :         "RCD", "SII", "RNI", "3  ", "4  ", "5  ", "6  ", "7  ",
; 2920 :         "8  ", "9  ", "10 ", "11 ", "12 ", "13 ", "14 ", "15 ",
; 2921 :     };
; 2922 : 
; 2923 :     if (!buf)

  00015	48 83 7c 24 78
	00		 cmp	 QWORD PTR buf$[rsp], 0
  0001b	75 07		 jne	 SHORT $LN2@FormatCIW

; 2924 :         return NULL;

  0001d	33 c0		 xor	 eax, eax
  0001f	e9 ac 01 00 00	 jmp	 $LN1@FormatCIW
$LN2@FormatCIW:

; 2925 :     if (bufsz)

  00024	48 83 bc 24 80
	00 00 00 00	 cmp	 QWORD PTR bufsz$[rsp], 0
  0002d	74 12		 je	 SHORT $LN3@FormatCIW

; 2926 :         buf[0] = 0;

  0002f	b8 01 00 00 00	 mov	 eax, 1
  00034	48 6b c0 00	 imul	 rax, rax, 0
  00038	48 8b 4c 24 78	 mov	 rcx, QWORD PTR buf$[rsp]
  0003d	c6 04 01 00	 mov	 BYTE PTR [rcx+rax], 0
$LN3@FormatCIW:

; 2927 :     if (bufsz <= 1 || !ciw)

  00041	48 83 bc 24 80
	00 00 00 01	 cmp	 QWORD PTR bufsz$[rsp], 1
  0004a	76 08		 jbe	 SHORT $LN5@FormatCIW
  0004c	48 83 7c 24 70
	00		 cmp	 QWORD PTR ciw$[rsp], 0
  00052	75 0a		 jne	 SHORT $LN4@FormatCIW
$LN5@FormatCIW:

; 2928 :         return buf;

  00054	48 8b 44 24 78	 mov	 rax, QWORD PTR buf$[rsp]
  00059	e9 72 01 00 00	 jmp	 $LN1@FormatCIW
$LN4@FormatCIW:

; 2929 : 
; 2930 :     if ((ciw[0] & 0xC0) == 0x40)

  0005e	b8 01 00 00 00	 mov	 eax, 1
  00063	48 6b c0 00	 imul	 rax, rax, 0
  00067	48 8b 4c 24 70	 mov	 rcx, QWORD PTR ciw$[rsp]
  0006c	0f b6 04 01	 movzx	 eax, BYTE PTR [rcx+rax]
  00070	25 c0 00 00 00	 and	 eax, 192		; 000000c0H
  00075	83 f8 40	 cmp	 eax, 64			; 00000040H
  00078	0f 85 dc 00 00
	00		 jne	 $LN6@FormatCIW

; 2931 :     {
; 2932 :         snprintf( buf, bufsz,

  0007e	48 8b 44 24 70	 mov	 rax, QWORD PTR ciw$[rsp]
  00083	48 83 c0 02	 add	 rax, 2
  00087	48 8b c8	 mov	 rcx, rax
  0008a	e8 00 00 00 00	 call	 fetch_hw_noswap
  0008f	0f b7 c8	 movzx	 ecx, ax
  00092	e8 00 00 00 00	 call	 _byteswap_ushort
  00097	0f b7 c0	 movzx	 eax, ax
  0009a	b9 01 00 00 00	 mov	 ecx, 1
  0009f	48 6b c9 01	 imul	 rcx, rcx, 1
  000a3	48 8b 54 24 70	 mov	 rdx, QWORD PTR ciw$[rsp]
  000a8	0f b6 0c 0a	 movzx	 ecx, BYTE PTR [rdx+rcx]
  000ac	ba 01 00 00 00	 mov	 edx, 1
  000b1	48 6b d2 00	 imul	 rdx, rdx, 0
  000b5	4c 8b 44 24 70	 mov	 r8, QWORD PTR ciw$[rsp]
  000ba	41 0f b6 14 10	 movzx	 edx, BYTE PTR [r8+rdx]
  000bf	83 e2 0f	 and	 edx, 15
  000c2	48 63 d2	 movsxd	 rdx, edx
  000c5	4c 8d 05 00 00
	00 00		 lea	 r8, OFFSET FLAT:?type@?1??FormatCIW@@9@9
  000cc	41 b9 01 00 00
	00		 mov	 r9d, 1
  000d2	4d 6b c9 03	 imul	 r9, r9, 3
  000d6	4c 8b 54 24 70	 mov	 r10, QWORD PTR ciw$[rsp]
  000db	47 0f b6 0c 0a	 movzx	 r9d, BYTE PTR [r10+r9]
  000e0	41 ba 01 00 00
	00		 mov	 r10d, 1
  000e6	4d 6b d2 02	 imul	 r10, r10, 2
  000ea	4c 8b 5c 24 70	 mov	 r11, QWORD PTR ciw$[rsp]
  000ef	47 0f b6 14 13	 movzx	 r10d, BYTE PTR [r11+r10]
  000f4	41 bb 01 00 00
	00		 mov	 r11d, 1
  000fa	4d 6b db 01	 imul	 r11, r11, 1
  000fe	48 8b 5c 24 70	 mov	 rbx, QWORD PTR ciw$[rsp]
  00103	42 0f b6 1c 1b	 movzx	 ebx, BYTE PTR [rbx+r11]
  00108	41 bb 01 00 00
	00		 mov	 r11d, 1
  0010e	4d 6b db 00	 imul	 r11, r11, 0
  00112	48 8b 7c 24 70	 mov	 rdi, QWORD PTR ciw$[rsp]
  00117	42 0f b6 3c 1f	 movzx	 edi, BYTE PTR [rdi+r11]
  0011c	89 44 24 48	 mov	 DWORD PTR [rsp+72], eax
  00120	89 4c 24 40	 mov	 DWORD PTR [rsp+64], ecx
  00124	49 8b 04 d0	 mov	 rax, QWORD PTR [r8+rdx*8]
  00128	48 89 44 24 38	 mov	 QWORD PTR [rsp+56], rax
  0012d	44 89 4c 24 30	 mov	 DWORD PTR [rsp+48], r9d
  00132	44 89 54 24 28	 mov	 DWORD PTR [rsp+40], r10d
  00137	89 5c 24 20	 mov	 DWORD PTR [rsp+32], ebx
  0013b	44 8b cf	 mov	 r9d, edi
  0013e	4c 8d 05 00 00
	00 00		 lea	 r8, OFFSET FLAT:$SG195858
  00145	48 8b 94 24 80
	00 00 00	 mov	 rdx, QWORD PTR bufsz$[rsp]
  0014d	48 8b 4c 24 78	 mov	 rcx, QWORD PTR buf$[rsp]
  00152	ff 15 00 00 00
	00		 call	 QWORD PTR __imp_w32_snprintf

; 2933 : 
; 2934 :             "CIW: %02X%02X%02X%02X  typ:%s op:%02X len:%u\n"
; 2935 : 
; 2936 :             , ciw[0], ciw[1], ciw[2], ciw[3]
; 2937 :             , type[ ciw[0] & 0x0F ]
; 2938 :             , ciw[1]
; 2939 :             , fetch_hw( ciw+2 )
; 2940 :         );
; 2941 :     }

  00158	eb 71		 jmp	 SHORT $LN7@FormatCIW
$LN6@FormatCIW:

; 2942 :     else
; 2943 :     {
; 2944 :         snprintf( buf, bufsz,

  0015a	b8 01 00 00 00	 mov	 eax, 1
  0015f	48 6b c0 03	 imul	 rax, rax, 3
  00163	48 8b 4c 24 70	 mov	 rcx, QWORD PTR ciw$[rsp]
  00168	0f b6 04 01	 movzx	 eax, BYTE PTR [rcx+rax]
  0016c	b9 01 00 00 00	 mov	 ecx, 1
  00171	48 6b c9 02	 imul	 rcx, rcx, 2
  00175	48 8b 54 24 70	 mov	 rdx, QWORD PTR ciw$[rsp]
  0017a	0f b6 0c 0a	 movzx	 ecx, BYTE PTR [rdx+rcx]
  0017e	ba 01 00 00 00	 mov	 edx, 1
  00183	48 6b d2 01	 imul	 rdx, rdx, 1
  00187	48 8b 5c 24 70	 mov	 rbx, QWORD PTR ciw$[rsp]
  0018c	0f b6 14 13	 movzx	 edx, BYTE PTR [rbx+rdx]
  00190	bb 01 00 00 00	 mov	 ebx, 1
  00195	48 6b db 00	 imul	 rbx, rbx, 0
  00199	48 8b 7c 24 70	 mov	 rdi, QWORD PTR ciw$[rsp]
  0019e	0f b6 1c 1f	 movzx	 ebx, BYTE PTR [rdi+rbx]
  001a2	89 44 24 30	 mov	 DWORD PTR [rsp+48], eax
  001a6	89 4c 24 28	 mov	 DWORD PTR [rsp+40], ecx
  001aa	89 54 24 20	 mov	 DWORD PTR [rsp+32], edx
  001ae	44 8b cb	 mov	 r9d, ebx
  001b1	4c 8d 05 00 00
	00 00		 lea	 r8, OFFSET FLAT:$SG195859
  001b8	48 8b 94 24 80
	00 00 00	 mov	 rdx, QWORD PTR bufsz$[rsp]
  001c0	48 8b 4c 24 78	 mov	 rcx, QWORD PTR buf$[rsp]
  001c5	ff 15 00 00 00
	00		 call	 QWORD PTR __imp_w32_snprintf
$LN7@FormatCIW:

; 2945 : 
; 2946 :             "CIW: %02X%02X%02X%02X  not a CIW\n"
; 2947 : 
; 2948 :             , ciw[0]
; 2949 :             , ciw[1]
; 2950 :             , ciw[2]
; 2951 :             , ciw[3]
; 2952 :         );
; 2953 :     }
; 2954 : 
; 2955 :     return buf;

  001cb	48 8b 44 24 78	 mov	 rax, QWORD PTR buf$[rsp]
$LN1@FormatCIW:

; 2956 : }

  001d0	48 83 c4 58	 add	 rsp, 88			; 00000058H
  001d4	5f		 pop	 rdi
  001d5	5b		 pop	 rbx
  001d6	c3		 ret	 0
FormatCIW ENDP
_TEXT	ENDS
; Function compile flags: /Odtp
; File C:\papa\MyGit\hyperion-zvector\hscmisc.c
_TEXT	SEGMENT
byte$ = 288
tv157 = 296
tv161 = 300
tv165 = 304
tv169 = 308
tv173 = 312
tv177 = 316
tv181 = 320
tv185 = 324
tv189 = 328
tv193 = 332
tv197 = 336
tv208 = 340
tv212 = 344
tv216 = 348
tv220 = 352
tv224 = 356
tv228 = 360
tv232 = 364
tv70 = 368
tv202 = 376
nq$ = 464
buf$ = 472
bufsz$ = 480
FormatNQ PROC

; 2831 : {

$LN7:
  00000	4c 89 44 24 18	 mov	 QWORD PTR [rsp+24], r8
  00005	48 89 54 24 10	 mov	 QWORD PTR [rsp+16], rdx
  0000a	48 89 4c 24 08	 mov	 QWORD PTR [rsp+8], rcx
  0000f	53		 push	 rbx
  00010	55		 push	 rbp
  00011	56		 push	 rsi
  00012	57		 push	 rdi
  00013	41 54		 push	 r12
  00015	41 55		 push	 r13
  00017	41 56		 push	 r14
  00019	41 57		 push	 r15
  0001b	48 81 ec 88 01
	00 00		 sub	 rsp, 392		; 00000188H

; 2832 :     BYTE* byte = (BYTE*) nq;

  00022	48 8b 84 24 d0
	01 00 00	 mov	 rax, QWORD PTR nq$[rsp]
  0002a	48 89 84 24 20
	01 00 00	 mov	 QWORD PTR byte$[rsp], rax

; 2833 :     static const char* type[] =
; 2834 :     {
; 2835 :         "IIL", "MODEP", "2", "3", "4", "5", "6", "7",
; 2836 :     };
; 2837 : 
; 2838 :     if (!buf)

  00032	48 83 bc 24 d8
	01 00 00 00	 cmp	 QWORD PTR buf$[rsp], 0
  0003b	75 07		 jne	 SHORT $LN2@FormatNQ

; 2839 :         return NULL;

  0003d	33 c0		 xor	 eax, eax
  0003f	e9 56 05 00 00	 jmp	 $LN1@FormatNQ
$LN2@FormatNQ:

; 2840 :     if (bufsz)

  00044	48 83 bc 24 e0
	01 00 00 00	 cmp	 QWORD PTR bufsz$[rsp], 0
  0004d	74 15		 je	 SHORT $LN3@FormatNQ

; 2841 :         buf[0] = 0;

  0004f	b8 01 00 00 00	 mov	 eax, 1
  00054	48 6b c0 00	 imul	 rax, rax, 0
  00058	48 8b 8c 24 d8
	01 00 00	 mov	 rcx, QWORD PTR buf$[rsp]
  00060	c6 04 01 00	 mov	 BYTE PTR [rcx+rax], 0
$LN3@FormatNQ:

; 2842 :     if (bufsz <= 1 || !nq)

  00064	48 83 bc 24 e0
	01 00 00 01	 cmp	 QWORD PTR bufsz$[rsp], 1
  0006d	76 0b		 jbe	 SHORT $LN5@FormatNQ
  0006f	48 83 bc 24 d0
	01 00 00 00	 cmp	 QWORD PTR nq$[rsp], 0
  00078	75 0d		 jne	 SHORT $LN4@FormatNQ
$LN5@FormatNQ:

; 2843 :         return buf;

  0007a	48 8b 84 24 d8
	01 00 00	 mov	 rax, QWORD PTR buf$[rsp]
  00082	e9 13 05 00 00	 jmp	 $LN1@FormatNQ
$LN4@FormatNQ:

; 2844 : 
; 2845 :     snprintf( buf, bufsz,

  00087	b8 01 00 00 00	 mov	 eax, 1
  0008c	48 6b c0 1f	 imul	 rax, rax, 31
  00090	48 8b 8c 24 20
	01 00 00	 mov	 rcx, QWORD PTR byte$[rsp]
  00098	0f b6 04 01	 movzx	 eax, BYTE PTR [rcx+rax]
  0009c	b9 01 00 00 00	 mov	 ecx, 1
  000a1	48 6b c9 1e	 imul	 rcx, rcx, 30
  000a5	48 8b 94 24 20
	01 00 00	 mov	 rdx, QWORD PTR byte$[rsp]
  000ad	0f b6 0c 0a	 movzx	 ecx, BYTE PTR [rdx+rcx]
  000b1	ba 01 00 00 00	 mov	 edx, 1
  000b6	48 6b d2 1d	 imul	 rdx, rdx, 29
  000ba	4c 8b 84 24 20
	01 00 00	 mov	 r8, QWORD PTR byte$[rsp]
  000c2	41 0f b6 14 10	 movzx	 edx, BYTE PTR [r8+rdx]
  000c7	41 b8 01 00 00
	00		 mov	 r8d, 1
  000cd	4d 6b c0 1c	 imul	 r8, r8, 28
  000d1	4c 8b 8c 24 20
	01 00 00	 mov	 r9, QWORD PTR byte$[rsp]
  000d9	47 0f b6 04 01	 movzx	 r8d, BYTE PTR [r9+r8]
  000de	41 b9 01 00 00
	00		 mov	 r9d, 1
  000e4	4d 6b c9 1b	 imul	 r9, r9, 27
  000e8	4c 8b 94 24 20
	01 00 00	 mov	 r10, QWORD PTR byte$[rsp]
  000f0	47 0f b6 0c 0a	 movzx	 r9d, BYTE PTR [r10+r9]
  000f5	41 ba 01 00 00
	00		 mov	 r10d, 1
  000fb	4d 6b d2 1a	 imul	 r10, r10, 26
  000ff	4c 8b 9c 24 20
	01 00 00	 mov	 r11, QWORD PTR byte$[rsp]
  00107	47 0f b6 14 13	 movzx	 r10d, BYTE PTR [r11+r10]
  0010c	41 bb 01 00 00
	00		 mov	 r11d, 1
  00112	4d 6b db 19	 imul	 r11, r11, 25
  00116	48 8b 9c 24 20
	01 00 00	 mov	 rbx, QWORD PTR byte$[rsp]
  0011e	42 0f b6 1c 1b	 movzx	 ebx, BYTE PTR [rbx+r11]
  00123	41 bb 01 00 00
	00		 mov	 r11d, 1
  00129	4d 6b db 18	 imul	 r11, r11, 24
  0012d	48 8b bc 24 20
	01 00 00	 mov	 rdi, QWORD PTR byte$[rsp]
  00135	42 0f b6 3c 1f	 movzx	 edi, BYTE PTR [rdi+r11]
  0013a	41 bb 01 00 00
	00		 mov	 r11d, 1
  00140	4d 6b db 17	 imul	 r11, r11, 23
  00144	48 8b b4 24 20
	01 00 00	 mov	 rsi, QWORD PTR byte$[rsp]
  0014c	42 0f b6 34 1e	 movzx	 esi, BYTE PTR [rsi+r11]
  00151	41 bb 01 00 00
	00		 mov	 r11d, 1
  00157	4d 6b db 16	 imul	 r11, r11, 22
  0015b	48 8b ac 24 20
	01 00 00	 mov	 rbp, QWORD PTR byte$[rsp]
  00163	41 0f b6 2c 2b	 movzx	 ebp, BYTE PTR [r11+rbp]
  00168	41 bb 01 00 00
	00		 mov	 r11d, 1
  0016e	4d 6b db 15	 imul	 r11, r11, 21
  00172	4c 8b b4 24 20
	01 00 00	 mov	 r14, QWORD PTR byte$[rsp]
  0017a	47 0f b6 1c 1e	 movzx	 r11d, BYTE PTR [r14+r11]
  0017f	41 be 01 00 00
	00		 mov	 r14d, 1
  00185	4d 6b f6 14	 imul	 r14, r14, 20
  00189	4c 8b bc 24 20
	01 00 00	 mov	 r15, QWORD PTR byte$[rsp]
  00191	47 0f b6 34 37	 movzx	 r14d, BYTE PTR [r15+r14]
  00196	41 bf 01 00 00
	00		 mov	 r15d, 1
  0019c	4d 6b ff 13	 imul	 r15, r15, 19
  001a0	4c 8b a4 24 20
	01 00 00	 mov	 r12, QWORD PTR byte$[rsp]
  001a8	47 0f b6 3c 3c	 movzx	 r15d, BYTE PTR [r12+r15]
  001ad	41 bc 01 00 00
	00		 mov	 r12d, 1
  001b3	4d 6b e4 12	 imul	 r12, r12, 18
  001b7	4c 8b ac 24 20
	01 00 00	 mov	 r13, QWORD PTR byte$[rsp]
  001bf	47 0f b6 24 2c	 movzx	 r12d, BYTE PTR [r12+r13]
  001c4	44 89 a4 24 28
	01 00 00	 mov	 DWORD PTR tv157[rsp], r12d
  001cc	41 bd 01 00 00
	00		 mov	 r13d, 1
  001d2	4d 6b ed 11	 imul	 r13, r13, 17
  001d6	4c 8b a4 24 20
	01 00 00	 mov	 r12, QWORD PTR byte$[rsp]
  001de	47 0f b6 24 2c	 movzx	 r12d, BYTE PTR [r12+r13]
  001e3	44 89 a4 24 2c
	01 00 00	 mov	 DWORD PTR tv161[rsp], r12d
  001eb	41 bd 01 00 00
	00		 mov	 r13d, 1
  001f1	4d 6b ed 10	 imul	 r13, r13, 16
  001f5	4c 8b a4 24 20
	01 00 00	 mov	 r12, QWORD PTR byte$[rsp]
  001fd	47 0f b6 24 2c	 movzx	 r12d, BYTE PTR [r12+r13]
  00202	44 89 a4 24 30
	01 00 00	 mov	 DWORD PTR tv165[rsp], r12d
  0020a	41 bd 01 00 00
	00		 mov	 r13d, 1
  00210	4d 6b ed 0f	 imul	 r13, r13, 15
  00214	4c 8b a4 24 20
	01 00 00	 mov	 r12, QWORD PTR byte$[rsp]
  0021c	47 0f b6 24 2c	 movzx	 r12d, BYTE PTR [r12+r13]
  00221	44 89 a4 24 34
	01 00 00	 mov	 DWORD PTR tv169[rsp], r12d
  00229	41 bd 01 00 00
	00		 mov	 r13d, 1
  0022f	4d 6b ed 0e	 imul	 r13, r13, 14
  00233	4c 8b a4 24 20
	01 00 00	 mov	 r12, QWORD PTR byte$[rsp]
  0023b	47 0f b6 24 2c	 movzx	 r12d, BYTE PTR [r12+r13]
  00240	44 89 a4 24 38
	01 00 00	 mov	 DWORD PTR tv173[rsp], r12d
  00248	41 bd 01 00 00
	00		 mov	 r13d, 1
  0024e	4d 6b ed 0d	 imul	 r13, r13, 13
  00252	4c 8b a4 24 20
	01 00 00	 mov	 r12, QWORD PTR byte$[rsp]
  0025a	47 0f b6 24 2c	 movzx	 r12d, BYTE PTR [r12+r13]
  0025f	44 89 a4 24 3c
	01 00 00	 mov	 DWORD PTR tv177[rsp], r12d
  00267	41 bd 01 00 00
	00		 mov	 r13d, 1
  0026d	4d 6b ed 0c	 imul	 r13, r13, 12
  00271	4c 8b a4 24 20
	01 00 00	 mov	 r12, QWORD PTR byte$[rsp]
  00279	47 0f b6 24 2c	 movzx	 r12d, BYTE PTR [r12+r13]
  0027e	44 89 a4 24 40
	01 00 00	 mov	 DWORD PTR tv181[rsp], r12d
  00286	41 bd 01 00 00
	00		 mov	 r13d, 1
  0028c	4d 6b ed 0b	 imul	 r13, r13, 11
  00290	4c 8b a4 24 20
	01 00 00	 mov	 r12, QWORD PTR byte$[rsp]
  00298	47 0f b6 24 2c	 movzx	 r12d, BYTE PTR [r12+r13]
  0029d	44 89 a4 24 44
	01 00 00	 mov	 DWORD PTR tv185[rsp], r12d
  002a5	41 bd 01 00 00
	00		 mov	 r13d, 1
  002ab	4d 6b ed 0a	 imul	 r13, r13, 10
  002af	4c 8b a4 24 20
	01 00 00	 mov	 r12, QWORD PTR byte$[rsp]
  002b7	47 0f b6 24 2c	 movzx	 r12d, BYTE PTR [r12+r13]
  002bc	44 89 a4 24 48
	01 00 00	 mov	 DWORD PTR tv189[rsp], r12d
  002c4	41 bd 01 00 00
	00		 mov	 r13d, 1
  002ca	4d 6b ed 09	 imul	 r13, r13, 9
  002ce	4c 8b a4 24 20
	01 00 00	 mov	 r12, QWORD PTR byte$[rsp]
  002d6	47 0f b6 24 2c	 movzx	 r12d, BYTE PTR [r12+r13]
  002db	44 89 a4 24 4c
	01 00 00	 mov	 DWORD PTR tv193[rsp], r12d
  002e3	41 bd 01 00 00
	00		 mov	 r13d, 1
  002e9	4d 6b ed 08	 imul	 r13, r13, 8
  002ed	4c 8b a4 24 20
	01 00 00	 mov	 r12, QWORD PTR byte$[rsp]
  002f5	47 0f b6 24 2c	 movzx	 r12d, BYTE PTR [r12+r13]
  002fa	44 89 a4 24 50
	01 00 00	 mov	 DWORD PTR tv197[rsp], r12d
  00302	4c 8b ac 24 d0
	01 00 00	 mov	 r13, QWORD PTR nq$[rsp]
  0030a	45 0f b6 6d 00	 movzx	 r13d, BYTE PTR [r13]
  0030f	41 c1 fd 05	 sar	 r13d, 5
  00313	4d 63 ed	 movsxd	 r13, r13d
  00316	4c 89 ac 24 78
	01 00 00	 mov	 QWORD PTR tv202[rsp], r13
  0031e	4c 8d 2d 00 00
	00 00		 lea	 r13, OFFSET FLAT:?type@?1??FormatNQ@@9@9
  00325	4c 89 ac 24 70
	01 00 00	 mov	 QWORD PTR tv70[rsp], r13
  0032d	41 bd 01 00 00
	00		 mov	 r13d, 1
  00333	4d 6b ed 07	 imul	 r13, r13, 7
  00337	4c 8b a4 24 20
	01 00 00	 mov	 r12, QWORD PTR byte$[rsp]
  0033f	47 0f b6 24 2c	 movzx	 r12d, BYTE PTR [r12+r13]
  00344	44 89 a4 24 54
	01 00 00	 mov	 DWORD PTR tv208[rsp], r12d
  0034c	41 bd 01 00 00
	00		 mov	 r13d, 1
  00352	4d 6b ed 06	 imul	 r13, r13, 6
  00356	4c 8b a4 24 20
	01 00 00	 mov	 r12, QWORD PTR byte$[rsp]
  0035e	47 0f b6 24 2c	 movzx	 r12d, BYTE PTR [r12+r13]
  00363	44 89 a4 24 58
	01 00 00	 mov	 DWORD PTR tv212[rsp], r12d
  0036b	41 bd 01 00 00
	00		 mov	 r13d, 1
  00371	4d 6b ed 05	 imul	 r13, r13, 5
  00375	4c 8b a4 24 20
	01 00 00	 mov	 r12, QWORD PTR byte$[rsp]
  0037d	47 0f b6 24 2c	 movzx	 r12d, BYTE PTR [r12+r13]
  00382	44 89 a4 24 5c
	01 00 00	 mov	 DWORD PTR tv216[rsp], r12d
  0038a	41 bd 01 00 00
	00		 mov	 r13d, 1
  00390	4d 6b ed 04	 imul	 r13, r13, 4
  00394	4c 8b a4 24 20
	01 00 00	 mov	 r12, QWORD PTR byte$[rsp]
  0039c	47 0f b6 24 2c	 movzx	 r12d, BYTE PTR [r12+r13]
  003a1	44 89 a4 24 60
	01 00 00	 mov	 DWORD PTR tv220[rsp], r12d
  003a9	41 bd 01 00 00
	00		 mov	 r13d, 1
  003af	4d 6b ed 03	 imul	 r13, r13, 3
  003b3	4c 8b a4 24 20
	01 00 00	 mov	 r12, QWORD PTR byte$[rsp]
  003bb	47 0f b6 24 2c	 movzx	 r12d, BYTE PTR [r12+r13]
  003c0	44 89 a4 24 64
	01 00 00	 mov	 DWORD PTR tv224[rsp], r12d
  003c8	41 bd 01 00 00
	00		 mov	 r13d, 1
  003ce	4d 6b ed 02	 imul	 r13, r13, 2
  003d2	4c 8b a4 24 20
	01 00 00	 mov	 r12, QWORD PTR byte$[rsp]
  003da	47 0f b6 24 2c	 movzx	 r12d, BYTE PTR [r12+r13]
  003df	44 89 a4 24 68
	01 00 00	 mov	 DWORD PTR tv228[rsp], r12d
  003e7	41 bd 01 00 00
	00		 mov	 r13d, 1
  003ed	4d 6b ed 01	 imul	 r13, r13, 1
  003f1	4c 8b a4 24 20
	01 00 00	 mov	 r12, QWORD PTR byte$[rsp]
  003f9	47 0f b6 24 2c	 movzx	 r12d, BYTE PTR [r12+r13]
  003fe	44 89 a4 24 6c
	01 00 00	 mov	 DWORD PTR tv232[rsp], r12d
  00406	41 bd 01 00 00
	00		 mov	 r13d, 1
  0040c	4d 6b ed 00	 imul	 r13, r13, 0
  00410	4c 8b a4 24 20
	01 00 00	 mov	 r12, QWORD PTR byte$[rsp]
  00418	47 0f b6 24 2c	 movzx	 r12d, BYTE PTR [r12+r13]
  0041d	89 84 24 18 01
	00 00		 mov	 DWORD PTR [rsp+280], eax
  00424	89 8c 24 10 01
	00 00		 mov	 DWORD PTR [rsp+272], ecx
  0042b	89 94 24 08 01
	00 00		 mov	 DWORD PTR [rsp+264], edx
  00432	44 89 84 24 00
	01 00 00	 mov	 DWORD PTR [rsp+256], r8d
  0043a	44 89 8c 24 f8
	00 00 00	 mov	 DWORD PTR [rsp+248], r9d
  00442	44 89 94 24 f0
	00 00 00	 mov	 DWORD PTR [rsp+240], r10d
  0044a	89 9c 24 e8 00
	00 00		 mov	 DWORD PTR [rsp+232], ebx
  00451	89 bc 24 e0 00
	00 00		 mov	 DWORD PTR [rsp+224], edi
  00458	89 b4 24 d8 00
	00 00		 mov	 DWORD PTR [rsp+216], esi
  0045f	89 ac 24 d0 00
	00 00		 mov	 DWORD PTR [rsp+208], ebp
  00466	44 89 9c 24 c8
	00 00 00	 mov	 DWORD PTR [rsp+200], r11d
  0046e	44 89 b4 24 c0
	00 00 00	 mov	 DWORD PTR [rsp+192], r14d
  00476	44 89 bc 24 b8
	00 00 00	 mov	 DWORD PTR [rsp+184], r15d
  0047e	8b 84 24 28 01
	00 00		 mov	 eax, DWORD PTR tv157[rsp]
  00485	89 84 24 b0 00
	00 00		 mov	 DWORD PTR [rsp+176], eax
  0048c	8b 84 24 2c 01
	00 00		 mov	 eax, DWORD PTR tv161[rsp]
  00493	89 84 24 a8 00
	00 00		 mov	 DWORD PTR [rsp+168], eax
  0049a	8b 84 24 30 01
	00 00		 mov	 eax, DWORD PTR tv165[rsp]
  004a1	89 84 24 a0 00
	00 00		 mov	 DWORD PTR [rsp+160], eax
  004a8	8b 84 24 34 01
	00 00		 mov	 eax, DWORD PTR tv169[rsp]
  004af	89 84 24 98 00
	00 00		 mov	 DWORD PTR [rsp+152], eax
  004b6	8b 84 24 38 01
	00 00		 mov	 eax, DWORD PTR tv173[rsp]
  004bd	89 84 24 90 00
	00 00		 mov	 DWORD PTR [rsp+144], eax
  004c4	8b 84 24 3c 01
	00 00		 mov	 eax, DWORD PTR tv177[rsp]
  004cb	89 84 24 88 00
	00 00		 mov	 DWORD PTR [rsp+136], eax
  004d2	8b 84 24 40 01
	00 00		 mov	 eax, DWORD PTR tv181[rsp]
  004d9	89 84 24 80 00
	00 00		 mov	 DWORD PTR [rsp+128], eax
  004e0	8b 84 24 44 01
	00 00		 mov	 eax, DWORD PTR tv185[rsp]
  004e7	89 44 24 78	 mov	 DWORD PTR [rsp+120], eax
  004eb	8b 84 24 48 01
	00 00		 mov	 eax, DWORD PTR tv189[rsp]
  004f2	89 44 24 70	 mov	 DWORD PTR [rsp+112], eax
  004f6	8b 84 24 4c 01
	00 00		 mov	 eax, DWORD PTR tv193[rsp]
  004fd	89 44 24 68	 mov	 DWORD PTR [rsp+104], eax
  00501	8b 84 24 50 01
	00 00		 mov	 eax, DWORD PTR tv197[rsp]
  00508	89 44 24 60	 mov	 DWORD PTR [rsp+96], eax
  0050c	48 8b 84 24 70
	01 00 00	 mov	 rax, QWORD PTR tv70[rsp]
  00514	48 8b 8c 24 78
	01 00 00	 mov	 rcx, QWORD PTR tv202[rsp]
  0051c	48 8b 04 c8	 mov	 rax, QWORD PTR [rax+rcx*8]
  00520	48 89 44 24 58	 mov	 QWORD PTR [rsp+88], rax
  00525	8b 84 24 54 01
	00 00		 mov	 eax, DWORD PTR tv208[rsp]
  0052c	89 44 24 50	 mov	 DWORD PTR [rsp+80], eax
  00530	8b 84 24 58 01
	00 00		 mov	 eax, DWORD PTR tv212[rsp]
  00537	89 44 24 48	 mov	 DWORD PTR [rsp+72], eax
  0053b	8b 84 24 5c 01
	00 00		 mov	 eax, DWORD PTR tv216[rsp]
  00542	89 44 24 40	 mov	 DWORD PTR [rsp+64], eax
  00546	8b 84 24 60 01
	00 00		 mov	 eax, DWORD PTR tv220[rsp]
  0054d	89 44 24 38	 mov	 DWORD PTR [rsp+56], eax
  00551	8b 84 24 64 01
	00 00		 mov	 eax, DWORD PTR tv224[rsp]
  00558	89 44 24 30	 mov	 DWORD PTR [rsp+48], eax
  0055c	8b 84 24 68 01
	00 00		 mov	 eax, DWORD PTR tv228[rsp]
  00563	89 44 24 28	 mov	 DWORD PTR [rsp+40], eax
  00567	8b 84 24 6c 01
	00 00		 mov	 eax, DWORD PTR tv232[rsp]
  0056e	89 44 24 20	 mov	 DWORD PTR [rsp+32], eax
  00572	45 8b cc	 mov	 r9d, r12d
  00575	4c 8d 05 00 00
	00 00		 lea	 r8, OFFSET FLAT:$SG195791
  0057c	48 8b 94 24 e0
	01 00 00	 mov	 rdx, QWORD PTR bufsz$[rsp]
  00584	48 8b 8c 24 d8
	01 00 00	 mov	 rcx, QWORD PTR buf$[rsp]
  0058c	ff 15 00 00 00
	00		 call	 QWORD PTR __imp_w32_snprintf

; 2846 : 
; 2847 :         "NQ:  %02X%02X%02X%02X %02X%02X%02X%02X  (typ:%s)\n"
; 2848 :         "     %02X%02X%02X%02X %02X%02X%02X%02X\n"
; 2849 :         "     %02X%02X%02X%02X %02X%02X%02X%02X\n"
; 2850 :         "     %02X%02X%02X%02X %02X%02X%02X%02X\n"
; 2851 : 
; 2852 :         , byte[ 0],byte[ 1],byte[ 2],byte[ 3],  byte[ 4],byte[ 5],byte[ 6],byte[ 7]
; 2853 :         , type[ nq->flags >> 5 ]
; 2854 :         , byte[ 8],byte[ 9],byte[10],byte[11],  byte[12],byte[13],byte[14],byte[15]
; 2855 :         , byte[16],byte[17],byte[18],byte[19],  byte[20],byte[21],byte[22],byte[23]
; 2856 :         , byte[24],byte[25],byte[26],byte[27],  byte[28],byte[29],byte[30],byte[31]
; 2857 :     );
; 2858 : 
; 2859 :     return buf;

  00592	48 8b 84 24 d8
	01 00 00	 mov	 rax, QWORD PTR buf$[rsp]
$LN1@FormatNQ:

; 2860 : }

  0059a	48 81 c4 88 01
	00 00		 add	 rsp, 392		; 00000188H
  005a1	41 5f		 pop	 r15
  005a3	41 5e		 pop	 r14
  005a5	41 5d		 pop	 r13
  005a7	41 5c		 pop	 r12
  005a9	5f		 pop	 rdi
  005aa	5e		 pop	 rsi
  005ab	5d		 pop	 rbp
  005ac	5b		 pop	 rbx
  005ad	c3		 ret	 0
FormatNQ ENDP
_TEXT	ENDS
; Function compile flags: /Odtp
; File C:\papa\MyGit\hyperion-zvector\hscmisc.c
_TEXT	SEGMENT
tv79 = 96
bad_cls$ = 100
cls$ = 104
tv94 = 112
$T1 = 120
by3$ = 128
typ$ = 136
val$ = 144
sdc_info$ = 160
__$ArrayPad$ = 416
nd$ = 448
buf$ = 456
bufsz$ = 464
FormatND PROC

; 2735 : {

$LN22:
  00000	4c 89 44 24 18	 mov	 QWORD PTR [rsp+24], r8
  00005	48 89 54 24 10	 mov	 QWORD PTR [rsp+16], rdx
  0000a	48 89 4c 24 08	 mov	 QWORD PTR [rsp+8], rcx
  0000f	48 81 ec b8 01
	00 00		 sub	 rsp, 440		; 000001b8H
  00016	48 8b 05 00 00
	00 00		 mov	 rax, QWORD PTR __security_cookie
  0001d	48 33 c4	 xor	 rax, rsp
  00020	48 89 84 24 a0
	01 00 00	 mov	 QWORD PTR __$ArrayPad$[rsp], rax

; 2736 :     const char* val;
; 2737 :     const char* cls;
; 2738 :     const char* by3;
; 2739 :     const char* typ;
; 2740 :     char bad_cls[4];
; 2741 :     char sdc_info[256];
; 2742 :     static const char* css_class[] = { "UNKNOWN", "CHPATH", "CTCA" };
; 2743 :     static const char* val_type[] =
; 2744 :     {
; 2745 :         "VALID", "UNSURE", "INVALID", "3", "4", "5", "6", "7",
; 2746 :     };
; 2747 :     static const char* dev_class[] =
; 2748 :     {
; 2749 :         "UNKNOWN",
; 2750 :         "DASD",
; 2751 :         "TAPE",
; 2752 :         "READER",
; 2753 :         "PUNCH",
; 2754 :         "PRINTER",
; 2755 :         "COMM",
; 2756 :         "DISPLAY",
; 2757 :         "CONSOLE",
; 2758 :         "CTCA",
; 2759 :         "SWITCH",
; 2760 :         "PROTO",
; 2761 :     };
; 2762 : 
; 2763 :     if (!buf)

  00028	48 83 bc 24 c8
	01 00 00 00	 cmp	 QWORD PTR buf$[rsp], 0
  00031	75 07		 jne	 SHORT $LN4@FormatND

; 2764 :         return NULL;

  00033	33 c0		 xor	 eax, eax
  00035	e9 e1 02 00 00	 jmp	 $LN1@FormatND
$LN4@FormatND:

; 2765 :     if (bufsz)

  0003a	48 83 bc 24 d0
	01 00 00 00	 cmp	 QWORD PTR bufsz$[rsp], 0
  00043	74 15		 je	 SHORT $LN5@FormatND

; 2766 :         buf[0] = 0;

  00045	b8 01 00 00 00	 mov	 eax, 1
  0004a	48 6b c0 00	 imul	 rax, rax, 0
  0004e	48 8b 8c 24 c8
	01 00 00	 mov	 rcx, QWORD PTR buf$[rsp]
  00056	c6 04 01 00	 mov	 BYTE PTR [rcx+rax], 0
$LN5@FormatND:

; 2767 :     if (bufsz <= 1 || !nd)

  0005a	48 83 bc 24 d0
	01 00 00 01	 cmp	 QWORD PTR bufsz$[rsp], 1
  00063	76 0b		 jbe	 SHORT $LN7@FormatND
  00065	48 83 bc 24 c0
	01 00 00 00	 cmp	 QWORD PTR nd$[rsp], 0
  0006e	75 0d		 jne	 SHORT $LN6@FormatND
$LN7@FormatND:

; 2768 :         return buf;

  00070	48 8b 84 24 c8
	01 00 00	 mov	 rax, QWORD PTR buf$[rsp]
  00078	e9 9e 02 00 00	 jmp	 $LN1@FormatND
$LN6@FormatND:

; 2769 : 
; 2770 :     val = val_type[ nd->flags >> 5 ];

  0007d	48 8b 84 24 c0
	01 00 00	 mov	 rax, QWORD PTR nd$[rsp]
  00085	0f b6 00	 movzx	 eax, BYTE PTR [rax]
  00088	c1 f8 05	 sar	 eax, 5
  0008b	48 98		 cdqe
  0008d	48 8d 0d 00 00
	00 00		 lea	 rcx, OFFSET FLAT:?val_type@?1??FormatND@@9@9
  00094	48 8b 04 c1	 mov	 rax, QWORD PTR [rcx+rax*8]
  00098	48 89 84 24 90
	00 00 00	 mov	 QWORD PTR val$[rsp], rax

; 2771 : 
; 2772 :     switch (nd->flags >> 5)

  000a0	48 8b 84 24 c0
	01 00 00	 mov	 rax, QWORD PTR nd$[rsp]
  000a8	0f b6 00	 movzx	 eax, BYTE PTR [rax]
  000ab	c1 f8 05	 sar	 eax, 5
  000ae	89 44 24 60	 mov	 DWORD PTR tv79[rsp], eax
  000b2	83 7c 24 60 00	 cmp	 DWORD PTR tv79[rsp], 0
  000b7	74 17		 je	 SHORT $LN8@FormatND
  000b9	83 7c 24 60 01	 cmp	 DWORD PTR tv79[rsp], 1
  000be	74 10		 je	 SHORT $LN9@FormatND
  000c0	83 7c 24 60 02	 cmp	 DWORD PTR tv79[rsp], 2
  000c5	0f 84 fb 01 00
	00		 je	 $LN15@FormatND
  000cb	e9 15 02 00 00	 jmp	 $LN16@FormatND
$LN8@FormatND:
$LN9@FormatND:

; 2773 :     {
; 2774 :     case ND_VAL_VALID:
; 2775 :     case ND_VAL_UNSURE:
; 2776 : 
; 2777 :         cls = NULL;

  000d0	48 c7 44 24 68
	00 00 00 00	 mov	 QWORD PTR cls$[rsp], 0

; 2778 :         if (nd->flags & 0x01)

  000d9	48 8b 84 24 c0
	01 00 00	 mov	 rax, QWORD PTR nd$[rsp]
  000e1	0f b6 00	 movzx	 eax, BYTE PTR [rax]
  000e4	83 e0 01	 and	 eax, 1
  000e7	85 c0		 test	 eax, eax
  000e9	74 4e		 je	 SHORT $LN10@FormatND

; 2779 :         {
; 2780 :             typ = "CSS";

  000eb	48 8d 05 00 00
	00 00		 lea	 rax, OFFSET FLAT:$SG195752
  000f2	48 89 84 24 88
	00 00 00	 mov	 QWORD PTR typ$[rsp], rax

; 2781 :             by3 = "CHPID";

  000fa	48 8d 05 00 00
	00 00		 lea	 rax, OFFSET FLAT:$SG195753
  00101	48 89 84 24 80
	00 00 00	 mov	 QWORD PTR by3$[rsp], rax

; 2782 :             if (nd->cls < _countof( css_class ))

  00109	48 8b 84 24 c0
	01 00 00	 mov	 rax, QWORD PTR nd$[rsp]
  00111	0f b6 40 02	 movzx	 eax, BYTE PTR [rax+2]
  00115	48 83 f8 03	 cmp	 rax, 3
  00119	73 1c		 jae	 SHORT $LN12@FormatND

; 2783 :                 cls = css_class[ nd->cls ];

  0011b	48 8b 84 24 c0
	01 00 00	 mov	 rax, QWORD PTR nd$[rsp]
  00123	0f b6 40 02	 movzx	 eax, BYTE PTR [rax+2]
  00127	48 8d 0d 00 00
	00 00		 lea	 rcx, OFFSET FLAT:?css_class@?1??FormatND@@9@9
  0012e	48 8b 04 c1	 mov	 rax, QWORD PTR [rcx+rax*8]
  00132	48 89 44 24 68	 mov	 QWORD PTR cls$[rsp], rax
$LN12@FormatND:

; 2784 :         }

  00137	eb 75		 jmp	 SHORT $LN11@FormatND
$LN10@FormatND:

; 2785 :         else
; 2786 :         {
; 2787 :             typ = "DEV";

  00139	48 8d 05 00 00
	00 00		 lea	 rax, OFFSET FLAT:$SG195755
  00140	48 89 84 24 88
	00 00 00	 mov	 QWORD PTR typ$[rsp], rax

; 2788 :             by3 = (nd->cls == ND_DEV_PROTO) ? "LINK" : "BYTE3";

  00148	48 8b 84 24 c0
	01 00 00	 mov	 rax, QWORD PTR nd$[rsp]
  00150	0f b6 40 02	 movzx	 eax, BYTE PTR [rax+2]
  00154	83 f8 0b	 cmp	 eax, 11
  00157	75 0e		 jne	 SHORT $LN18@FormatND
  00159	48 8d 05 00 00
	00 00		 lea	 rax, OFFSET FLAT:$SG195756
  00160	48 89 44 24 70	 mov	 QWORD PTR tv94[rsp], rax
  00165	eb 0c		 jmp	 SHORT $LN19@FormatND
$LN18@FormatND:
  00167	48 8d 05 00 00
	00 00		 lea	 rax, OFFSET FLAT:$SG195757
  0016e	48 89 44 24 70	 mov	 QWORD PTR tv94[rsp], rax
$LN19@FormatND:
  00173	48 8b 44 24 70	 mov	 rax, QWORD PTR tv94[rsp]
  00178	48 89 84 24 80
	00 00 00	 mov	 QWORD PTR by3$[rsp], rax

; 2789 :             if (nd->cls < _countof( dev_class ))

  00180	48 8b 84 24 c0
	01 00 00	 mov	 rax, QWORD PTR nd$[rsp]
  00188	0f b6 40 02	 movzx	 eax, BYTE PTR [rax+2]
  0018c	48 83 f8 0c	 cmp	 rax, 12
  00190	73 1c		 jae	 SHORT $LN13@FormatND

; 2790 :                 cls = dev_class[ nd->cls ];

  00192	48 8b 84 24 c0
	01 00 00	 mov	 rax, QWORD PTR nd$[rsp]
  0019a	0f b6 40 02	 movzx	 eax, BYTE PTR [rax+2]
  0019e	48 8d 0d 00 00
	00 00		 lea	 rcx, OFFSET FLAT:?dev_class@?1??FormatND@@9@9
  001a5	48 8b 04 c1	 mov	 rax, QWORD PTR [rcx+rax*8]
  001a9	48 89 44 24 68	 mov	 QWORD PTR cls$[rsp], rax
$LN13@FormatND:
$LN11@FormatND:

; 2791 :         }
; 2792 :         if (!cls)

  001ae	48 83 7c 24 68
	00		 cmp	 QWORD PTR cls$[rsp], 0
  001b4	75 57		 jne	 SHORT $LN14@FormatND

; 2793 :         {
; 2794 :             snprintf( bad_cls, sizeof(bad_cls), "%u", nd->cls );

  001b6	48 8b 84 24 c0
	01 00 00	 mov	 rax, QWORD PTR nd$[rsp]
  001be	0f b6 40 02	 movzx	 eax, BYTE PTR [rax+2]
  001c2	44 8b c8	 mov	 r9d, eax
  001c5	4c 8d 05 00 00
	00 00		 lea	 r8, OFFSET FLAT:$SG195760
  001cc	ba 04 00 00 00	 mov	 edx, 4
  001d1	48 8d 4c 24 64	 lea	 rcx, QWORD PTR bad_cls$[rsp]
  001d6	ff 15 00 00 00
	00		 call	 QWORD PTR __imp_w32_snprintf

; 2795 :             bad_cls[3] = 0;

  001dc	b8 01 00 00 00	 mov	 eax, 1
  001e1	48 6b c0 03	 imul	 rax, rax, 3
  001e5	48 89 44 24 78	 mov	 QWORD PTR $T1[rsp], rax
  001ea	48 83 7c 24 78
	04		 cmp	 QWORD PTR $T1[rsp], 4
  001f0	73 02		 jae	 SHORT $LN20@FormatND
  001f2	eb 05		 jmp	 SHORT $LN21@FormatND
$LN20@FormatND:
  001f4	e8 00 00 00 00	 call	 __report_rangecheckfailure
$LN21@FormatND:
  001f9	48 8b 44 24 78	 mov	 rax, QWORD PTR $T1[rsp]
  001fe	c6 44 04 64 00	 mov	 BYTE PTR bad_cls$[rsp+rax], 0

; 2796 :             cls = bad_cls;

  00203	48 8d 44 24 64	 lea	 rax, QWORD PTR bad_cls$[rsp]
  00208	48 89 44 24 68	 mov	 QWORD PTR cls$[rsp], rax
$LN14@FormatND:

; 2797 :         }
; 2798 :         snprintf( buf, bufsz,

  0020d	48 8b 84 24 c0
	01 00 00	 mov	 rax, QWORD PTR nd$[rsp]
  00215	48 83 c0 04	 add	 rax, 4
  00219	41 b8 00 01 00
	00		 mov	 r8d, 256		; 00000100H
  0021f	48 8d 94 24 a0
	00 00 00	 lea	 rdx, QWORD PTR sdc_info$[rsp]
  00227	48 8b c8	 mov	 rcx, rax
  0022a	e8 00 00 00 00	 call	 FormatSDC
  0022f	b9 01 00 00 00	 mov	 ecx, 1
  00234	48 6b c9 01	 imul	 rcx, rcx, 1
  00238	48 8b 94 24 c0
	01 00 00	 mov	 rdx, QWORD PTR nd$[rsp]
  00240	0f b6 4c 0a 1e	 movzx	 ecx, BYTE PTR [rdx+rcx+30]
  00245	ba 01 00 00 00	 mov	 edx, 1
  0024a	48 6b d2 00	 imul	 rdx, rdx, 0
  0024e	4c 8b 84 24 c0
	01 00 00	 mov	 r8, QWORD PTR nd$[rsp]
  00256	41 0f b6 54 10
	1e		 movzx	 edx, BYTE PTR [r8+rdx+30]
  0025c	4c 8b 84 24 c0
	01 00 00	 mov	 r8, QWORD PTR nd$[rsp]
  00264	45 0f b6 40 03	 movzx	 r8d, BYTE PTR [r8+3]
  00269	48 89 44 24 50	 mov	 QWORD PTR [rsp+80], rax
  0026e	89 4c 24 48	 mov	 DWORD PTR [rsp+72], ecx
  00272	89 54 24 40	 mov	 DWORD PTR [rsp+64], edx
  00276	44 89 44 24 38	 mov	 DWORD PTR [rsp+56], r8d
  0027b	48 8b 84 24 80
	00 00 00	 mov	 rax, QWORD PTR by3$[rsp]
  00283	48 89 44 24 30	 mov	 QWORD PTR [rsp+48], rax
  00288	48 8b 44 24 68	 mov	 rax, QWORD PTR cls$[rsp]
  0028d	48 89 44 24 28	 mov	 QWORD PTR [rsp+40], rax
  00292	48 8b 84 24 88
	00 00 00	 mov	 rax, QWORD PTR typ$[rsp]
  0029a	48 89 44 24 20	 mov	 QWORD PTR [rsp+32], rax
  0029f	4c 8b 8c 24 90
	00 00 00	 mov	 r9, QWORD PTR val$[rsp]
  002a7	4c 8d 05 00 00
	00 00		 lea	 r8, OFFSET FLAT:$SG195761
  002ae	48 8b 94 24 d0
	01 00 00	 mov	 rdx, QWORD PTR bufsz$[rsp]
  002b6	48 8b 8c 24 c8
	01 00 00	 mov	 rcx, QWORD PTR buf$[rsp]
  002be	ff 15 00 00 00
	00		 call	 QWORD PTR __imp_w32_snprintf

; 2799 : 
; 2800 :             "ND:  val:%s typ:%s cls:%s %s:%02X tag:%02X%02X\n     %s"
; 2801 : 
; 2802 :             , val
; 2803 :             , typ
; 2804 :             , cls
; 2805 :             , by3, nd->ua
; 2806 :             , nd->tag[0], nd->tag[1]
; 2807 :             , FormatSDC( &nd->info, sdc_info, sizeof(sdc_info))
; 2808 :         );
; 2809 :         break;

  002c4	eb 4d		 jmp	 SHORT $LN2@FormatND
$LN15@FormatND:

; 2810 : 
; 2811 :     case ND_VAL_INVALID:
; 2812 : 
; 2813 :         snprintf( buf, bufsz, "ND:  val:INVALID\n" );

  002c6	4c 8d 05 00 00
	00 00		 lea	 r8, OFFSET FLAT:$SG195763
  002cd	48 8b 94 24 d0
	01 00 00	 mov	 rdx, QWORD PTR bufsz$[rsp]
  002d5	48 8b 8c 24 c8
	01 00 00	 mov	 rcx, QWORD PTR buf$[rsp]
  002dd	ff 15 00 00 00
	00		 call	 QWORD PTR __imp_w32_snprintf

; 2814 :         break;

  002e3	eb 2e		 jmp	 SHORT $LN2@FormatND
$LN16@FormatND:

; 2815 : 
; 2816 :     default:
; 2817 : 
; 2818 :         snprintf( buf, bufsz, "ND:  val:%u (invalid)\n",

  002e5	48 8b 84 24 c0
	01 00 00	 mov	 rax, QWORD PTR nd$[rsp]
  002ed	0f b6 00	 movzx	 eax, BYTE PTR [rax]
  002f0	c1 f8 05	 sar	 eax, 5
  002f3	44 8b c8	 mov	 r9d, eax
  002f6	4c 8d 05 00 00
	00 00		 lea	 r8, OFFSET FLAT:$SG195765
  002fd	48 8b 94 24 d0
	01 00 00	 mov	 rdx, QWORD PTR bufsz$[rsp]
  00305	48 8b 8c 24 c8
	01 00 00	 mov	 rcx, QWORD PTR buf$[rsp]
  0030d	ff 15 00 00 00
	00		 call	 QWORD PTR __imp_w32_snprintf
$LN2@FormatND:

; 2819 :             (int)(nd->flags >> 5) );
; 2820 :         break;
; 2821 :     }
; 2822 : 
; 2823 :     return buf;

  00313	48 8b 84 24 c8
	01 00 00	 mov	 rax, QWORD PTR buf$[rsp]
$LN1@FormatND:
$LN17@FormatND:

; 2824 : }

  0031b	48 8b 8c 24 a0
	01 00 00	 mov	 rcx, QWORD PTR __$ArrayPad$[rsp]
  00323	48 33 cc	 xor	 rcx, rsp
  00326	e8 00 00 00 00	 call	 __security_check_cookie
  0032b	48 81 c4 b8 01
	00 00		 add	 rsp, 440		; 000001b8H
  00332	c3		 ret	 0
FormatND ENDP
_TEXT	ENDS
; Function compile flags: /Odtp
; File C:\papa\MyGit\hyperion-zvector\hscmisc.c
_TEXT	SEGMENT
i$ = 32
temp$ = 36
data$ = 64
len$ = 72
buf$ = 80
bufsz$ = 88
FormatBytes PROC

; 2667 : {

  00000	4c 89 4c 24 20	 mov	 QWORD PTR [rsp+32], r9
  00005	4c 89 44 24 18	 mov	 QWORD PTR [rsp+24], r8
  0000a	89 54 24 10	 mov	 DWORD PTR [rsp+16], edx
  0000e	48 89 4c 24 08	 mov	 QWORD PTR [rsp+8], rcx
  00013	48 83 ec 38	 sub	 rsp, 56			; 00000038H

; 2668 :     char temp[4];
; 2669 :     int  i;
; 2670 : 
; 2671 :     for (i=0; i < len; ++i)

  00017	c7 44 24 20 00
	00 00 00	 mov	 DWORD PTR i$[rsp], 0
  0001f	eb 0a		 jmp	 SHORT $LN4@FormatByte
$LN2@FormatByte:
  00021	8b 44 24 20	 mov	 eax, DWORD PTR i$[rsp]
  00025	ff c0		 inc	 eax
  00027	89 44 24 20	 mov	 DWORD PTR i$[rsp], eax
$LN4@FormatByte:
  0002b	8b 44 24 48	 mov	 eax, DWORD PTR len$[rsp]
  0002f	39 44 24 20	 cmp	 DWORD PTR i$[rsp], eax
  00033	7d 5d		 jge	 SHORT $LN3@FormatByte

; 2672 :     {
; 2673 :         if (i == 4)

  00035	83 7c 24 20 04	 cmp	 DWORD PTR i$[rsp], 4
  0003a	75 17		 jne	 SHORT $LN5@FormatByte

; 2674 :             strlcat( buf, " ", bufsz );

  0003c	4c 8b 44 24 58	 mov	 r8, QWORD PTR bufsz$[rsp]
  00041	48 8d 15 00 00
	00 00		 lea	 rdx, OFFSET FLAT:$SG195660
  00048	48 8b 4c 24 50	 mov	 rcx, QWORD PTR buf$[rsp]
  0004d	ff 15 00 00 00
	00		 call	 QWORD PTR __imp_strlcat
$LN5@FormatByte:

; 2675 :         MSGBUF( temp, "%02X", data[i] );

  00053	48 63 44 24 20	 movsxd	 rax, DWORD PTR i$[rsp]
  00058	48 8b 4c 24 40	 mov	 rcx, QWORD PTR data$[rsp]
  0005d	0f b6 04 01	 movzx	 eax, BYTE PTR [rcx+rax]
  00061	44 8b c8	 mov	 r9d, eax
  00064	4c 8d 05 00 00
	00 00		 lea	 r8, OFFSET FLAT:$SG195661
  0006b	ba 04 00 00 00	 mov	 edx, 4
  00070	48 8d 4c 24 24	 lea	 rcx, QWORD PTR temp$[rsp]
  00075	ff 15 00 00 00
	00		 call	 QWORD PTR __imp_w32_snprintf

; 2676 :         strlcat( buf, temp, bufsz );

  0007b	4c 8b 44 24 58	 mov	 r8, QWORD PTR bufsz$[rsp]
  00080	48 8d 54 24 24	 lea	 rdx, QWORD PTR temp$[rsp]
  00085	48 8b 4c 24 50	 mov	 rcx, QWORD PTR buf$[rsp]
  0008a	ff 15 00 00 00
	00		 call	 QWORD PTR __imp_strlcat

; 2677 :     }

  00090	eb 8f		 jmp	 SHORT $LN2@FormatByte
$LN3@FormatByte:

; 2678 : }

  00092	48 83 c4 38	 add	 rsp, 56			; 00000038H
  00096	c3		 ret	 0
FormatBytes ENDP
_TEXT	ENDS
; Function compile flags: /Odtp
; File C:\papa\MyGit\hyperion-zvector\hscmisc.c
_TEXT	SEGMENT
byte$ = 320
iid$ = 328
tv162 = 332
tv166 = 336
tv170 = 340
tv174 = 344
tv178 = 348
tv182 = 352
tv186 = 356
tv190 = 360
tv194 = 364
tv198 = 368
tv202 = 372
tv206 = 376
tv210 = 380
tv214 = 384
tv218 = 388
tv222 = 392
tv226 = 396
tv230 = 400
tv237 = 404
tv242 = 408
tv247 = 412
tv252 = 416
neq$ = 512
buf$ = 520
bufsz$ = 528
FormatNEQ PROC

; 2629 : {

$LN7:
  00000	4c 89 44 24 18	 mov	 QWORD PTR [rsp+24], r8
  00005	48 89 54 24 10	 mov	 QWORD PTR [rsp+16], rdx
  0000a	48 89 4c 24 08	 mov	 QWORD PTR [rsp+8], rcx
  0000f	53		 push	 rbx
  00010	55		 push	 rbp
  00011	56		 push	 rsi
  00012	57		 push	 rdi
  00013	41 54		 push	 r12
  00015	41 55		 push	 r13
  00017	41 56		 push	 r14
  00019	41 57		 push	 r15
  0001b	48 81 ec b8 01
	00 00		 sub	 rsp, 440		; 000001b8H

; 2630 :     BYTE* byte = (BYTE*) neq;

  00022	48 8b 84 24 00
	02 00 00	 mov	 rax, QWORD PTR neq$[rsp]
  0002a	48 89 84 24 40
	01 00 00	 mov	 QWORD PTR byte$[rsp], rax

; 2631 :     U16 iid;
; 2632 : 
; 2633 :     if (!buf)

  00032	48 83 bc 24 08
	02 00 00 00	 cmp	 QWORD PTR buf$[rsp], 0
  0003b	75 07		 jne	 SHORT $LN2@FormatNEQ

; 2634 :         return NULL;

  0003d	33 c0		 xor	 eax, eax
  0003f	e9 dc 05 00 00	 jmp	 $LN1@FormatNEQ
$LN2@FormatNEQ:

; 2635 :     if (bufsz)

  00044	48 83 bc 24 10
	02 00 00 00	 cmp	 QWORD PTR bufsz$[rsp], 0
  0004d	74 15		 je	 SHORT $LN3@FormatNEQ

; 2636 :         buf[0] = 0;

  0004f	b8 01 00 00 00	 mov	 eax, 1
  00054	48 6b c0 00	 imul	 rax, rax, 0
  00058	48 8b 8c 24 08
	02 00 00	 mov	 rcx, QWORD PTR buf$[rsp]
  00060	c6 04 01 00	 mov	 BYTE PTR [rcx+rax], 0
$LN3@FormatNEQ:

; 2637 :     if (bufsz <= 1 || !neq)

  00064	48 83 bc 24 10
	02 00 00 01	 cmp	 QWORD PTR bufsz$[rsp], 1
  0006d	76 0b		 jbe	 SHORT $LN5@FormatNEQ
  0006f	48 83 bc 24 00
	02 00 00 00	 cmp	 QWORD PTR neq$[rsp], 0
  00078	75 0d		 jne	 SHORT $LN4@FormatNEQ
$LN5@FormatNEQ:

; 2638 :         return buf;

  0007a	48 8b 84 24 08
	02 00 00	 mov	 rax, QWORD PTR buf$[rsp]
  00082	e9 99 05 00 00	 jmp	 $LN1@FormatNEQ
$LN4@FormatNEQ:

; 2639 : 
; 2640 :     iid = fetch_hw( &neq->iid );

  00087	48 8b 84 24 00
	02 00 00	 mov	 rax, QWORD PTR neq$[rsp]
  0008f	48 83 c0 02	 add	 rax, 2
  00093	48 8b c8	 mov	 rcx, rax
  00096	e8 00 00 00 00	 call	 fetch_hw_noswap
  0009b	0f b7 c8	 movzx	 ecx, ax
  0009e	e8 00 00 00 00	 call	 _byteswap_ushort
  000a3	66 89 84 24 48
	01 00 00	 mov	 WORD PTR iid$[rsp], ax

; 2641 : 
; 2642 :     snprintf( buf, bufsz,

  000ab	b8 01 00 00 00	 mov	 eax, 1
  000b0	48 6b c0 1f	 imul	 rax, rax, 31
  000b4	48 8b 8c 24 40
	01 00 00	 mov	 rcx, QWORD PTR byte$[rsp]
  000bc	0f b6 04 01	 movzx	 eax, BYTE PTR [rcx+rax]
  000c0	b9 01 00 00 00	 mov	 ecx, 1
  000c5	48 6b c9 1e	 imul	 rcx, rcx, 30
  000c9	48 8b 94 24 40
	01 00 00	 mov	 rdx, QWORD PTR byte$[rsp]
  000d1	0f b6 0c 0a	 movzx	 ecx, BYTE PTR [rdx+rcx]
  000d5	ba 01 00 00 00	 mov	 edx, 1
  000da	48 6b d2 1d	 imul	 rdx, rdx, 29
  000de	4c 8b 84 24 40
	01 00 00	 mov	 r8, QWORD PTR byte$[rsp]
  000e6	41 0f b6 14 10	 movzx	 edx, BYTE PTR [r8+rdx]
  000eb	41 b8 01 00 00
	00		 mov	 r8d, 1
  000f1	4d 6b c0 1c	 imul	 r8, r8, 28
  000f5	4c 8b 8c 24 40
	01 00 00	 mov	 r9, QWORD PTR byte$[rsp]
  000fd	47 0f b6 04 01	 movzx	 r8d, BYTE PTR [r9+r8]
  00102	41 b9 01 00 00
	00		 mov	 r9d, 1
  00108	4d 6b c9 1b	 imul	 r9, r9, 27
  0010c	4c 8b 94 24 40
	01 00 00	 mov	 r10, QWORD PTR byte$[rsp]
  00114	47 0f b6 0c 0a	 movzx	 r9d, BYTE PTR [r10+r9]
  00119	41 ba 01 00 00
	00		 mov	 r10d, 1
  0011f	4d 6b d2 1a	 imul	 r10, r10, 26
  00123	4c 8b 9c 24 40
	01 00 00	 mov	 r11, QWORD PTR byte$[rsp]
  0012b	47 0f b6 14 13	 movzx	 r10d, BYTE PTR [r11+r10]
  00130	41 bb 01 00 00
	00		 mov	 r11d, 1
  00136	4d 6b db 19	 imul	 r11, r11, 25
  0013a	48 8b 9c 24 40
	01 00 00	 mov	 rbx, QWORD PTR byte$[rsp]
  00142	42 0f b6 1c 1b	 movzx	 ebx, BYTE PTR [rbx+r11]
  00147	41 bb 01 00 00
	00		 mov	 r11d, 1
  0014d	4d 6b db 18	 imul	 r11, r11, 24
  00151	48 8b bc 24 40
	01 00 00	 mov	 rdi, QWORD PTR byte$[rsp]
  00159	42 0f b6 3c 1f	 movzx	 edi, BYTE PTR [rdi+r11]
  0015e	41 bb 01 00 00
	00		 mov	 r11d, 1
  00164	4d 6b db 17	 imul	 r11, r11, 23
  00168	48 8b b4 24 40
	01 00 00	 mov	 rsi, QWORD PTR byte$[rsp]
  00170	42 0f b6 34 1e	 movzx	 esi, BYTE PTR [rsi+r11]
  00175	41 bb 01 00 00
	00		 mov	 r11d, 1
  0017b	4d 6b db 16	 imul	 r11, r11, 22
  0017f	48 8b ac 24 40
	01 00 00	 mov	 rbp, QWORD PTR byte$[rsp]
  00187	41 0f b6 2c 2b	 movzx	 ebp, BYTE PTR [r11+rbp]
  0018c	41 bb 01 00 00
	00		 mov	 r11d, 1
  00192	4d 6b db 15	 imul	 r11, r11, 21
  00196	4c 8b b4 24 40
	01 00 00	 mov	 r14, QWORD PTR byte$[rsp]
  0019e	47 0f b6 1c 1e	 movzx	 r11d, BYTE PTR [r14+r11]
  001a3	41 be 01 00 00
	00		 mov	 r14d, 1
  001a9	4d 6b f6 14	 imul	 r14, r14, 20
  001ad	4c 8b bc 24 40
	01 00 00	 mov	 r15, QWORD PTR byte$[rsp]
  001b5	47 0f b6 34 37	 movzx	 r14d, BYTE PTR [r15+r14]
  001ba	41 bf 01 00 00
	00		 mov	 r15d, 1
  001c0	4d 6b ff 13	 imul	 r15, r15, 19
  001c4	4c 8b a4 24 40
	01 00 00	 mov	 r12, QWORD PTR byte$[rsp]
  001cc	47 0f b6 3c 3c	 movzx	 r15d, BYTE PTR [r12+r15]
  001d1	41 bc 01 00 00
	00		 mov	 r12d, 1
  001d7	4d 6b e4 12	 imul	 r12, r12, 18
  001db	4c 8b ac 24 40
	01 00 00	 mov	 r13, QWORD PTR byte$[rsp]
  001e3	47 0f b6 24 2c	 movzx	 r12d, BYTE PTR [r12+r13]
  001e8	44 89 a4 24 4c
	01 00 00	 mov	 DWORD PTR tv162[rsp], r12d
  001f0	41 bd 01 00 00
	00		 mov	 r13d, 1
  001f6	4d 6b ed 11	 imul	 r13, r13, 17
  001fa	4c 8b a4 24 40
	01 00 00	 mov	 r12, QWORD PTR byte$[rsp]
  00202	47 0f b6 24 2c	 movzx	 r12d, BYTE PTR [r12+r13]
  00207	44 89 a4 24 50
	01 00 00	 mov	 DWORD PTR tv166[rsp], r12d
  0020f	41 bd 01 00 00
	00		 mov	 r13d, 1
  00215	4d 6b ed 10	 imul	 r13, r13, 16
  00219	4c 8b a4 24 40
	01 00 00	 mov	 r12, QWORD PTR byte$[rsp]
  00221	47 0f b6 24 2c	 movzx	 r12d, BYTE PTR [r12+r13]
  00226	44 89 a4 24 54
	01 00 00	 mov	 DWORD PTR tv170[rsp], r12d
  0022e	41 bd 01 00 00
	00		 mov	 r13d, 1
  00234	4d 6b ed 0f	 imul	 r13, r13, 15
  00238	4c 8b a4 24 40
	01 00 00	 mov	 r12, QWORD PTR byte$[rsp]
  00240	47 0f b6 24 2c	 movzx	 r12d, BYTE PTR [r12+r13]
  00245	44 89 a4 24 58
	01 00 00	 mov	 DWORD PTR tv174[rsp], r12d
  0024d	41 bd 01 00 00
	00		 mov	 r13d, 1
  00253	4d 6b ed 0e	 imul	 r13, r13, 14
  00257	4c 8b a4 24 40
	01 00 00	 mov	 r12, QWORD PTR byte$[rsp]
  0025f	47 0f b6 24 2c	 movzx	 r12d, BYTE PTR [r12+r13]
  00264	44 89 a4 24 5c
	01 00 00	 mov	 DWORD PTR tv178[rsp], r12d
  0026c	41 bd 01 00 00
	00		 mov	 r13d, 1
  00272	4d 6b ed 0d	 imul	 r13, r13, 13
  00276	4c 8b a4 24 40
	01 00 00	 mov	 r12, QWORD PTR byte$[rsp]
  0027e	47 0f b6 24 2c	 movzx	 r12d, BYTE PTR [r12+r13]
  00283	44 89 a4 24 60
	01 00 00	 mov	 DWORD PTR tv182[rsp], r12d
  0028b	41 bd 01 00 00
	00		 mov	 r13d, 1
  00291	4d 6b ed 0c	 imul	 r13, r13, 12
  00295	4c 8b a4 24 40
	01 00 00	 mov	 r12, QWORD PTR byte$[rsp]
  0029d	47 0f b6 24 2c	 movzx	 r12d, BYTE PTR [r12+r13]
  002a2	44 89 a4 24 64
	01 00 00	 mov	 DWORD PTR tv186[rsp], r12d
  002aa	41 bd 01 00 00
	00		 mov	 r13d, 1
  002b0	4d 6b ed 0b	 imul	 r13, r13, 11
  002b4	4c 8b a4 24 40
	01 00 00	 mov	 r12, QWORD PTR byte$[rsp]
  002bc	47 0f b6 24 2c	 movzx	 r12d, BYTE PTR [r12+r13]
  002c1	44 89 a4 24 68
	01 00 00	 mov	 DWORD PTR tv190[rsp], r12d
  002c9	41 bd 01 00 00
	00		 mov	 r13d, 1
  002cf	4d 6b ed 0a	 imul	 r13, r13, 10
  002d3	4c 8b a4 24 40
	01 00 00	 mov	 r12, QWORD PTR byte$[rsp]
  002db	47 0f b6 24 2c	 movzx	 r12d, BYTE PTR [r12+r13]
  002e0	44 89 a4 24 6c
	01 00 00	 mov	 DWORD PTR tv194[rsp], r12d
  002e8	41 bd 01 00 00
	00		 mov	 r13d, 1
  002ee	4d 6b ed 09	 imul	 r13, r13, 9
  002f2	4c 8b a4 24 40
	01 00 00	 mov	 r12, QWORD PTR byte$[rsp]
  002fa	47 0f b6 24 2c	 movzx	 r12d, BYTE PTR [r12+r13]
  002ff	44 89 a4 24 70
	01 00 00	 mov	 DWORD PTR tv198[rsp], r12d
  00307	41 bd 01 00 00
	00		 mov	 r13d, 1
  0030d	4d 6b ed 08	 imul	 r13, r13, 8
  00311	4c 8b a4 24 40
	01 00 00	 mov	 r12, QWORD PTR byte$[rsp]
  00319	47 0f b6 24 2c	 movzx	 r12d, BYTE PTR [r12+r13]
  0031e	44 89 a4 24 74
	01 00 00	 mov	 DWORD PTR tv202[rsp], r12d
  00326	41 bd 01 00 00
	00		 mov	 r13d, 1
  0032c	4d 6b ed 07	 imul	 r13, r13, 7
  00330	4c 8b a4 24 40
	01 00 00	 mov	 r12, QWORD PTR byte$[rsp]
  00338	47 0f b6 24 2c	 movzx	 r12d, BYTE PTR [r12+r13]
  0033d	44 89 a4 24 78
	01 00 00	 mov	 DWORD PTR tv206[rsp], r12d
  00345	41 bd 01 00 00
	00		 mov	 r13d, 1
  0034b	4d 6b ed 06	 imul	 r13, r13, 6
  0034f	4c 8b a4 24 40
	01 00 00	 mov	 r12, QWORD PTR byte$[rsp]
  00357	47 0f b6 24 2c	 movzx	 r12d, BYTE PTR [r12+r13]
  0035c	44 89 a4 24 7c
	01 00 00	 mov	 DWORD PTR tv210[rsp], r12d
  00364	41 bd 01 00 00
	00		 mov	 r13d, 1
  0036a	4d 6b ed 05	 imul	 r13, r13, 5
  0036e	4c 8b a4 24 40
	01 00 00	 mov	 r12, QWORD PTR byte$[rsp]
  00376	47 0f b6 24 2c	 movzx	 r12d, BYTE PTR [r12+r13]
  0037b	44 89 a4 24 80
	01 00 00	 mov	 DWORD PTR tv214[rsp], r12d
  00383	41 bd 01 00 00
	00		 mov	 r13d, 1
  00389	4d 6b ed 04	 imul	 r13, r13, 4
  0038d	4c 8b a4 24 40
	01 00 00	 mov	 r12, QWORD PTR byte$[rsp]
  00395	47 0f b6 24 2c	 movzx	 r12d, BYTE PTR [r12+r13]
  0039a	44 89 a4 24 84
	01 00 00	 mov	 DWORD PTR tv218[rsp], r12d
  003a2	41 bd 01 00 00
	00		 mov	 r13d, 1
  003a8	4d 6b ed 03	 imul	 r13, r13, 3
  003ac	4c 8b a4 24 40
	01 00 00	 mov	 r12, QWORD PTR byte$[rsp]
  003b4	47 0f b6 24 2c	 movzx	 r12d, BYTE PTR [r12+r13]
  003b9	44 89 a4 24 88
	01 00 00	 mov	 DWORD PTR tv222[rsp], r12d
  003c1	41 bd 01 00 00
	00		 mov	 r13d, 1
  003c7	4d 6b ed 02	 imul	 r13, r13, 2
  003cb	4c 8b a4 24 40
	01 00 00	 mov	 r12, QWORD PTR byte$[rsp]
  003d3	47 0f b6 24 2c	 movzx	 r12d, BYTE PTR [r12+r13]
  003d8	44 89 a4 24 8c
	01 00 00	 mov	 DWORD PTR tv226[rsp], r12d
  003e0	41 bd 01 00 00
	00		 mov	 r13d, 1
  003e6	4d 6b ed 01	 imul	 r13, r13, 1
  003ea	4c 8b a4 24 40
	01 00 00	 mov	 r12, QWORD PTR byte$[rsp]
  003f2	47 0f b6 24 2c	 movzx	 r12d, BYTE PTR [r12+r13]
  003f7	44 89 a4 24 90
	01 00 00	 mov	 DWORD PTR tv230[rsp], r12d
  003ff	41 bd 01 00 00
	00		 mov	 r13d, 1
  00405	4d 6b ed 00	 imul	 r13, r13, 0
  00409	4c 8b a4 24 40
	01 00 00	 mov	 r12, QWORD PTR byte$[rsp]
  00411	47 0f b6 24 2c	 movzx	 r12d, BYTE PTR [r12+r13]
  00416	4c 8b ac 24 00
	02 00 00	 mov	 r13, QWORD PTR neq$[rsp]
  0041e	45 0f b6 6d 04	 movzx	 r13d, BYTE PTR [r13+4]
  00423	44 89 ac 24 94
	01 00 00	 mov	 DWORD PTR tv237[rsp], r13d
  0042b	44 0f b7 ac 24
	48 01 00 00	 movzx	 r13d, WORD PTR iid$[rsp]
  00434	41 81 e5 ff 00
	00 00		 and	 r13d, 255		; 000000ffH
  0043b	45 0f b6 ed	 movzx	 r13d, r13b
  0043f	44 89 ac 24 98
	01 00 00	 mov	 DWORD PTR tv242[rsp], r13d
  00447	44 0f b7 ac 24
	48 01 00 00	 movzx	 r13d, WORD PTR iid$[rsp]
  00450	41 c1 fd 08	 sar	 r13d, 8
  00454	45 0f b6 ed	 movzx	 r13d, r13b
  00458	44 89 ac 24 9c
	01 00 00	 mov	 DWORD PTR tv247[rsp], r13d
  00460	4c 8b ac 24 00
	02 00 00	 mov	 r13, QWORD PTR neq$[rsp]
  00468	45 0f b6 6d 00	 movzx	 r13d, BYTE PTR [r13]
  0046d	41 c1 fd 06	 sar	 r13d, 6
  00471	4d 63 ed	 movsxd	 r13, r13d
  00474	4c 89 ac 24 a0
	01 00 00	 mov	 QWORD PTR tv252[rsp], r13
  0047c	4c 8d 2d 00 00
	00 00		 lea	 r13, OFFSET FLAT:NED_NEQ_type
  00483	89 84 24 30 01
	00 00		 mov	 DWORD PTR [rsp+304], eax
  0048a	89 8c 24 28 01
	00 00		 mov	 DWORD PTR [rsp+296], ecx
  00491	89 94 24 20 01
	00 00		 mov	 DWORD PTR [rsp+288], edx
  00498	44 89 84 24 18
	01 00 00	 mov	 DWORD PTR [rsp+280], r8d
  004a0	44 89 8c 24 10
	01 00 00	 mov	 DWORD PTR [rsp+272], r9d
  004a8	44 89 94 24 08
	01 00 00	 mov	 DWORD PTR [rsp+264], r10d
  004b0	89 9c 24 00 01
	00 00		 mov	 DWORD PTR [rsp+256], ebx
  004b7	89 bc 24 f8 00
	00 00		 mov	 DWORD PTR [rsp+248], edi
  004be	89 b4 24 f0 00
	00 00		 mov	 DWORD PTR [rsp+240], esi
  004c5	89 ac 24 e8 00
	00 00		 mov	 DWORD PTR [rsp+232], ebp
  004cc	44 89 9c 24 e0
	00 00 00	 mov	 DWORD PTR [rsp+224], r11d
  004d4	44 89 b4 24 d8
	00 00 00	 mov	 DWORD PTR [rsp+216], r14d
  004dc	44 89 bc 24 d0
	00 00 00	 mov	 DWORD PTR [rsp+208], r15d
  004e4	8b 84 24 4c 01
	00 00		 mov	 eax, DWORD PTR tv162[rsp]
  004eb	89 84 24 c8 00
	00 00		 mov	 DWORD PTR [rsp+200], eax
  004f2	8b 84 24 50 01
	00 00		 mov	 eax, DWORD PTR tv166[rsp]
  004f9	89 84 24 c0 00
	00 00		 mov	 DWORD PTR [rsp+192], eax
  00500	8b 84 24 54 01
	00 00		 mov	 eax, DWORD PTR tv170[rsp]
  00507	89 84 24 b8 00
	00 00		 mov	 DWORD PTR [rsp+184], eax
  0050e	8b 84 24 58 01
	00 00		 mov	 eax, DWORD PTR tv174[rsp]
  00515	89 84 24 b0 00
	00 00		 mov	 DWORD PTR [rsp+176], eax
  0051c	8b 84 24 5c 01
	00 00		 mov	 eax, DWORD PTR tv178[rsp]
  00523	89 84 24 a8 00
	00 00		 mov	 DWORD PTR [rsp+168], eax
  0052a	8b 84 24 60 01
	00 00		 mov	 eax, DWORD PTR tv182[rsp]
  00531	89 84 24 a0 00
	00 00		 mov	 DWORD PTR [rsp+160], eax
  00538	8b 84 24 64 01
	00 00		 mov	 eax, DWORD PTR tv186[rsp]
  0053f	89 84 24 98 00
	00 00		 mov	 DWORD PTR [rsp+152], eax
  00546	8b 84 24 68 01
	00 00		 mov	 eax, DWORD PTR tv190[rsp]
  0054d	89 84 24 90 00
	00 00		 mov	 DWORD PTR [rsp+144], eax
  00554	8b 84 24 6c 01
	00 00		 mov	 eax, DWORD PTR tv194[rsp]
  0055b	89 84 24 88 00
	00 00		 mov	 DWORD PTR [rsp+136], eax
  00562	8b 84 24 70 01
	00 00		 mov	 eax, DWORD PTR tv198[rsp]
  00569	89 84 24 80 00
	00 00		 mov	 DWORD PTR [rsp+128], eax
  00570	8b 84 24 74 01
	00 00		 mov	 eax, DWORD PTR tv202[rsp]
  00577	89 44 24 78	 mov	 DWORD PTR [rsp+120], eax
  0057b	8b 84 24 78 01
	00 00		 mov	 eax, DWORD PTR tv206[rsp]
  00582	89 44 24 70	 mov	 DWORD PTR [rsp+112], eax
  00586	8b 84 24 7c 01
	00 00		 mov	 eax, DWORD PTR tv210[rsp]
  0058d	89 44 24 68	 mov	 DWORD PTR [rsp+104], eax
  00591	8b 84 24 80 01
	00 00		 mov	 eax, DWORD PTR tv214[rsp]
  00598	89 44 24 60	 mov	 DWORD PTR [rsp+96], eax
  0059c	8b 84 24 84 01
	00 00		 mov	 eax, DWORD PTR tv218[rsp]
  005a3	89 44 24 58	 mov	 DWORD PTR [rsp+88], eax
  005a7	8b 84 24 88 01
	00 00		 mov	 eax, DWORD PTR tv222[rsp]
  005ae	89 44 24 50	 mov	 DWORD PTR [rsp+80], eax
  005b2	8b 84 24 8c 01
	00 00		 mov	 eax, DWORD PTR tv226[rsp]
  005b9	89 44 24 48	 mov	 DWORD PTR [rsp+72], eax
  005bd	8b 84 24 90 01
	00 00		 mov	 eax, DWORD PTR tv230[rsp]
  005c4	89 44 24 40	 mov	 DWORD PTR [rsp+64], eax
  005c8	44 89 64 24 38	 mov	 DWORD PTR [rsp+56], r12d
  005cd	8b 84 24 94 01
	00 00		 mov	 eax, DWORD PTR tv237[rsp]
  005d4	89 44 24 30	 mov	 DWORD PTR [rsp+48], eax
  005d8	8b 84 24 98 01
	00 00		 mov	 eax, DWORD PTR tv242[rsp]
  005df	89 44 24 28	 mov	 DWORD PTR [rsp+40], eax
  005e3	8b 84 24 9c 01
	00 00		 mov	 eax, DWORD PTR tv247[rsp]
  005ea	89 44 24 20	 mov	 DWORD PTR [rsp+32], eax
  005ee	48 8b 84 24 a0
	01 00 00	 mov	 rax, QWORD PTR tv252[rsp]
  005f6	4d 8b 4c c5 00	 mov	 r9, QWORD PTR [r13+rax*8]
  005fb	4c 8d 05 00 00
	00 00		 lea	 r8, OFFSET FLAT:$SG195643
  00602	48 8b 94 24 10
	02 00 00	 mov	 rdx, QWORD PTR bufsz$[rsp]
  0060a	48 8b 8c 24 08
	02 00 00	 mov	 rcx, QWORD PTR buf$[rsp]
  00612	ff 15 00 00 00
	00		 call	 QWORD PTR __imp_w32_snprintf

; 2643 : 
; 2644 :         "NEQ: typ:%s IID:%02X%02X DDTO:%u\n"
; 2645 :         "     %02X%02X%02X%02X %02X%02X%02X%02X\n"
; 2646 :         "     %02X%02X%02X%02X %02X%02X%02X%02X\n"
; 2647 :         "     %02X%02X%02X%02X %02X%02X%02X%02X\n"
; 2648 :         "     %02X%02X%02X%02X %02X%02X%02X%02X\n"
; 2649 : 
; 2650 :         , NED_NEQ_type[ neq->flags >> 6 ]
; 2651 :         , (BYTE)(iid >> 8), (BYTE)(iid & 0xFF)
; 2652 :         , neq->ddto
; 2653 :         , byte[ 0],byte[ 1],byte[ 2],byte[ 3],  byte[ 4],byte[ 5],byte[ 6],byte[ 7]
; 2654 :         , byte[ 8],byte[ 9],byte[10],byte[11],  byte[12],byte[13],byte[14],byte[15]
; 2655 :         , byte[16],byte[17],byte[18],byte[19],  byte[20],byte[21],byte[22],byte[23]
; 2656 :         , byte[24],byte[25],byte[26],byte[27],  byte[28],byte[29],byte[30],byte[31]
; 2657 :     );
; 2658 : 
; 2659 :     return buf;

  00618	48 8b 84 24 08
	02 00 00	 mov	 rax, QWORD PTR buf$[rsp]
$LN1@FormatNEQ:

; 2660 : }

  00620	48 81 c4 b8 01
	00 00		 add	 rsp, 440		; 000001b8H
  00627	41 5f		 pop	 r15
  00629	41 5e		 pop	 r14
  0062b	41 5d		 pop	 r13
  0062d	41 5c		 pop	 r12
  0062f	5f		 pop	 rdi
  00630	5e		 pop	 rsi
  00631	5d		 pop	 rbp
  00632	5b		 pop	 rbx
  00633	c3		 ret	 0
FormatNEQ ENDP
_TEXT	ENDS
; Function compile flags: /Odtp
; File C:\papa\MyGit\hyperion-zvector\hscmisc.c
_TEXT	SEGMENT
bad_typ$ = 96
bad_class$1 = 100
typ$ = 104
$T2 = 112
$T3 = 120
tv166 = 128
cls$4 = 136
tv174 = 144
tv180 = 152
tv213 = 160
tv220 = 168
tv226 = 176
sdc_info$ = 192
__$ArrayPad$ = 448
ned$ = 480
buf$ = 488
bufsz$ = 496
FormatNED PROC

; 2538 : {

$LN29:
  00000	4c 89 44 24 18	 mov	 QWORD PTR [rsp+24], r8
  00005	48 89 54 24 10	 mov	 QWORD PTR [rsp+16], rdx
  0000a	48 89 4c 24 08	 mov	 QWORD PTR [rsp+8], rcx
  0000f	48 81 ec d8 01
	00 00		 sub	 rsp, 472		; 000001d8H
  00016	48 8b 05 00 00
	00 00		 mov	 rax, QWORD PTR __security_cookie
  0001d	48 33 c4	 xor	 rax, rsp
  00020	48 89 84 24 c0
	01 00 00	 mov	 QWORD PTR __$ArrayPad$[rsp], rax

; 2539 :     const char* typ;
; 2540 :     char bad_typ[4];
; 2541 :     char sdc_info[256];
; 2542 :     static const char* sn_ind[] = { "NEXT", "UNIQUE", "NODE", "CODE3" };
; 2543 :     static const char* ned_type[] = { "UNSPEC", "DEVICE", "CTLUNIT" };
; 2544 :     static const char* dev_class[] =
; 2545 :     {
; 2546 :         "UNKNOWN",
; 2547 :         "DASD",
; 2548 :         "TAPE",
; 2549 :         "READER",
; 2550 :         "PUNCH",
; 2551 :         "PRINTER",
; 2552 :         "COMM",
; 2553 :         "DISPLAY",
; 2554 :         "CONSOLE",
; 2555 :         "CTCA",
; 2556 :         "SWITCH",
; 2557 :         "PROTO",
; 2558 :     };
; 2559 : 
; 2560 :     if (!buf)

  00028	48 83 bc 24 e8
	01 00 00 00	 cmp	 QWORD PTR buf$[rsp], 0
  00031	75 07		 jne	 SHORT $LN2@FormatNED

; 2561 :         return NULL;

  00033	33 c0		 xor	 eax, eax
  00035	e9 4c 04 00 00	 jmp	 $LN1@FormatNED
$LN2@FormatNED:

; 2562 :     if (bufsz)

  0003a	48 83 bc 24 f0
	01 00 00 00	 cmp	 QWORD PTR bufsz$[rsp], 0
  00043	74 15		 je	 SHORT $LN3@FormatNED

; 2563 :         buf[0] = 0;

  00045	b8 01 00 00 00	 mov	 eax, 1
  0004a	48 6b c0 00	 imul	 rax, rax, 0
  0004e	48 8b 8c 24 e8
	01 00 00	 mov	 rcx, QWORD PTR buf$[rsp]
  00056	c6 04 01 00	 mov	 BYTE PTR [rcx+rax], 0
$LN3@FormatNED:

; 2564 :     if (bufsz <= 1 || !ned)

  0005a	48 83 bc 24 f0
	01 00 00 01	 cmp	 QWORD PTR bufsz$[rsp], 1
  00063	76 0b		 jbe	 SHORT $LN5@FormatNED
  00065	48 83 bc 24 e0
	01 00 00 00	 cmp	 QWORD PTR ned$[rsp], 0
  0006e	75 0d		 jne	 SHORT $LN4@FormatNED
$LN5@FormatNED:

; 2565 :         return buf;

  00070	48 8b 84 24 e8
	01 00 00	 mov	 rax, QWORD PTR buf$[rsp]
  00078	e9 09 04 00 00	 jmp	 $LN1@FormatNED
$LN4@FormatNED:

; 2566 : 
; 2567 :     if (ned->type < _countof( ned_type ))

  0007d	48 8b 84 24 e0
	01 00 00	 mov	 rax, QWORD PTR ned$[rsp]
  00085	0f b6 40 01	 movzx	 eax, BYTE PTR [rax+1]
  00089	48 83 f8 03	 cmp	 rax, 3
  0008d	73 1e		 jae	 SHORT $LN6@FormatNED

; 2568 :         typ = ned_type[ ned->type ];

  0008f	48 8b 84 24 e0
	01 00 00	 mov	 rax, QWORD PTR ned$[rsp]
  00097	0f b6 40 01	 movzx	 eax, BYTE PTR [rax+1]
  0009b	48 8d 0d 00 00
	00 00		 lea	 rcx, OFFSET FLAT:?ned_type@?1??FormatNED@@9@9
  000a2	48 8b 04 c1	 mov	 rax, QWORD PTR [rcx+rax*8]
  000a6	48 89 44 24 68	 mov	 QWORD PTR typ$[rsp], rax
  000ab	eb 57		 jmp	 SHORT $LN7@FormatNED
$LN6@FormatNED:

; 2569 :     else
; 2570 :     {
; 2571 :         snprintf( bad_typ, sizeof(bad_typ), "%u", ned->type );

  000ad	48 8b 84 24 e0
	01 00 00	 mov	 rax, QWORD PTR ned$[rsp]
  000b5	0f b6 40 01	 movzx	 eax, BYTE PTR [rax+1]
  000b9	44 8b c8	 mov	 r9d, eax
  000bc	4c 8d 05 00 00
	00 00		 lea	 r8, OFFSET FLAT:$SG195605
  000c3	ba 04 00 00 00	 mov	 edx, 4
  000c8	48 8d 4c 24 60	 lea	 rcx, QWORD PTR bad_typ$[rsp]
  000cd	ff 15 00 00 00
	00		 call	 QWORD PTR __imp_w32_snprintf

; 2572 :         bad_typ[3] = 0;

  000d3	b8 01 00 00 00	 mov	 eax, 1
  000d8	48 6b c0 03	 imul	 rax, rax, 3
  000dc	48 89 44 24 70	 mov	 QWORD PTR $T2[rsp], rax
  000e1	48 83 7c 24 70
	04		 cmp	 QWORD PTR $T2[rsp], 4
  000e7	73 02		 jae	 SHORT $LN13@FormatNED
  000e9	eb 05		 jmp	 SHORT $LN14@FormatNED
$LN13@FormatNED:
  000eb	e8 00 00 00 00	 call	 __report_rangecheckfailure
$LN14@FormatNED:
  000f0	48 8b 44 24 70	 mov	 rax, QWORD PTR $T2[rsp]
  000f5	c6 44 04 60 00	 mov	 BYTE PTR bad_typ$[rsp+rax], 0

; 2573 :         typ = bad_typ;

  000fa	48 8d 44 24 60	 lea	 rax, QWORD PTR bad_typ$[rsp]
  000ff	48 89 44 24 68	 mov	 QWORD PTR typ$[rsp], rax
$LN7@FormatNED:

; 2574 :     }
; 2575 : 
; 2576 : 
; 2577 :     if (ned->type == NED_TYP_DEVICE)

  00104	48 8b 84 24 e0
	01 00 00	 mov	 rax, QWORD PTR ned$[rsp]
  0010c	0f b6 40 01	 movzx	 eax, BYTE PTR [rax+1]
  00110	83 f8 01	 cmp	 eax, 1
  00113	0f 85 02 02 00
	00		 jne	 $LN8@FormatNED

; 2578 :     {
; 2579 :         const char* cls;
; 2580 :         char bad_class[4];
; 2581 : 
; 2582 :         if (ned->cls < _countof( dev_class ))

  00119	48 8b 84 24 e0
	01 00 00	 mov	 rax, QWORD PTR ned$[rsp]
  00121	0f b6 40 02	 movzx	 eax, BYTE PTR [rax+2]
  00125	48 83 f8 0c	 cmp	 rax, 12
  00129	73 21		 jae	 SHORT $LN10@FormatNED

; 2583 :             cls = dev_class[ ned->cls ];

  0012b	48 8b 84 24 e0
	01 00 00	 mov	 rax, QWORD PTR ned$[rsp]
  00133	0f b6 40 02	 movzx	 eax, BYTE PTR [rax+2]
  00137	48 8d 0d 00 00
	00 00		 lea	 rcx, OFFSET FLAT:?dev_class@?1??FormatNED@@9@9
  0013e	48 8b 04 c1	 mov	 rax, QWORD PTR [rcx+rax*8]
  00142	48 89 84 24 88
	00 00 00	 mov	 QWORD PTR cls$4[rsp], rax
  0014a	eb 5a		 jmp	 SHORT $LN11@FormatNED
$LN10@FormatNED:

; 2584 :         else
; 2585 :         {
; 2586 :             snprintf( bad_class, sizeof(bad_class), "%u", ned->cls );

  0014c	48 8b 84 24 e0
	01 00 00	 mov	 rax, QWORD PTR ned$[rsp]
  00154	0f b6 40 02	 movzx	 eax, BYTE PTR [rax+2]
  00158	44 8b c8	 mov	 r9d, eax
  0015b	4c 8d 05 00 00
	00 00		 lea	 r8, OFFSET FLAT:$SG195610
  00162	ba 04 00 00 00	 mov	 edx, 4
  00167	48 8d 4c 24 64	 lea	 rcx, QWORD PTR bad_class$1[rsp]
  0016c	ff 15 00 00 00
	00		 call	 QWORD PTR __imp_w32_snprintf

; 2587 :             bad_class[3] = 0;

  00172	b8 01 00 00 00	 mov	 eax, 1
  00177	48 6b c0 03	 imul	 rax, rax, 3
  0017b	48 89 44 24 78	 mov	 QWORD PTR $T3[rsp], rax
  00180	48 83 7c 24 78
	04		 cmp	 QWORD PTR $T3[rsp], 4
  00186	73 02		 jae	 SHORT $LN15@FormatNED
  00188	eb 05		 jmp	 SHORT $LN16@FormatNED
$LN15@FormatNED:
  0018a	e8 00 00 00 00	 call	 __report_rangecheckfailure
$LN16@FormatNED:
  0018f	48 8b 44 24 78	 mov	 rax, QWORD PTR $T3[rsp]
  00194	c6 44 04 64 00	 mov	 BYTE PTR bad_class$1[rsp+rax], 0

; 2588 :             cls = bad_class;

  00199	48 8d 44 24 64	 lea	 rax, QWORD PTR bad_class$1[rsp]
  0019e	48 89 84 24 88
	00 00 00	 mov	 QWORD PTR cls$4[rsp], rax
$LN11@FormatNED:

; 2589 :         }
; 2590 : 
; 2591 :         snprintf( buf, bufsz,

  001a6	48 8b 84 24 e0
	01 00 00	 mov	 rax, QWORD PTR ned$[rsp]
  001ae	0f b6 40 03	 movzx	 eax, BYTE PTR [rax+3]
  001b2	83 e0 01	 and	 eax, 1
  001b5	85 c0		 test	 eax, eax
  001b7	74 11		 je	 SHORT $LN17@FormatNED
  001b9	48 8d 05 00 00
	00 00		 lea	 rax, OFFSET FLAT:$SG195611
  001c0	48 89 84 24 80
	00 00 00	 mov	 QWORD PTR tv166[rsp], rax
  001c8	eb 0f		 jmp	 SHORT $LN18@FormatNED
$LN17@FormatNED:
  001ca	48 8d 05 00 00
	00 00		 lea	 rax, OFFSET FLAT:$SG195612
  001d1	48 89 84 24 80
	00 00 00	 mov	 QWORD PTR tv166[rsp], rax
$LN18@FormatNED:
  001d9	48 8b 84 24 e0
	01 00 00	 mov	 rax, QWORD PTR ned$[rsp]
  001e1	0f b6 00	 movzx	 eax, BYTE PTR [rax]
  001e4	83 e0 01	 and	 eax, 1
  001e7	85 c0		 test	 eax, eax
  001e9	74 11		 je	 SHORT $LN19@FormatNED
  001eb	48 8d 05 00 00
	00 00		 lea	 rax, OFFSET FLAT:$SG195613
  001f2	48 89 84 24 90
	00 00 00	 mov	 QWORD PTR tv174[rsp], rax
  001fa	eb 0f		 jmp	 SHORT $LN20@FormatNED
$LN19@FormatNED:
  001fc	48 8d 05 00 00
	00 00		 lea	 rax, OFFSET FLAT:$SG195614
  00203	48 89 84 24 90
	00 00 00	 mov	 QWORD PTR tv174[rsp], rax
$LN20@FormatNED:
  0020b	48 8b 84 24 e0
	01 00 00	 mov	 rax, QWORD PTR ned$[rsp]
  00213	0f b6 00	 movzx	 eax, BYTE PTR [rax]
  00216	83 e0 20	 and	 eax, 32			; 00000020H
  00219	85 c0		 test	 eax, eax
  0021b	74 11		 je	 SHORT $LN21@FormatNED
  0021d	48 8d 05 00 00
	00 00		 lea	 rax, OFFSET FLAT:$SG195615
  00224	48 89 84 24 98
	00 00 00	 mov	 QWORD PTR tv180[rsp], rax
  0022c	eb 0f		 jmp	 SHORT $LN22@FormatNED
$LN21@FormatNED:
  0022e	48 8d 05 00 00
	00 00		 lea	 rax, OFFSET FLAT:$SG195616
  00235	48 89 84 24 98
	00 00 00	 mov	 QWORD PTR tv180[rsp], rax
$LN22@FormatNED:
  0023d	48 8b 84 24 e0
	01 00 00	 mov	 rax, QWORD PTR ned$[rsp]
  00245	48 83 c0 04	 add	 rax, 4
  00249	41 b8 00 01 00
	00		 mov	 r8d, 256		; 00000100H
  0024f	48 8d 94 24 c0
	00 00 00	 lea	 rdx, QWORD PTR sdc_info$[rsp]
  00257	48 8b c8	 mov	 rcx, rax
  0025a	e8 00 00 00 00	 call	 FormatSDC
  0025f	b9 01 00 00 00	 mov	 ecx, 1
  00264	48 6b c9 01	 imul	 rcx, rcx, 1
  00268	48 8b 94 24 e0
	01 00 00	 mov	 rdx, QWORD PTR ned$[rsp]
  00270	0f b6 4c 0a 1e	 movzx	 ecx, BYTE PTR [rdx+rcx+30]
  00275	ba 01 00 00 00	 mov	 edx, 1
  0027a	48 6b d2 00	 imul	 rdx, rdx, 0
  0027e	4c 8b 84 24 e0
	01 00 00	 mov	 r8, QWORD PTR ned$[rsp]
  00286	41 0f b6 54 10
	1e		 movzx	 edx, BYTE PTR [r8+rdx+30]
  0028c	4c 8b 84 24 e0
	01 00 00	 mov	 r8, QWORD PTR ned$[rsp]
  00294	45 0f b6 00	 movzx	 r8d, BYTE PTR [r8]
  00298	41 c1 f8 03	 sar	 r8d, 3
  0029c	41 83 e0 03	 and	 r8d, 3
  002a0	4d 63 c0	 movsxd	 r8, r8d
  002a3	4c 8d 0d 00 00
	00 00		 lea	 r9, OFFSET FLAT:?sn_ind@?1??FormatNED@@9@9
  002aa	48 89 44 24 58	 mov	 QWORD PTR [rsp+88], rax
  002af	89 4c 24 50	 mov	 DWORD PTR [rsp+80], ecx
  002b3	89 54 24 48	 mov	 DWORD PTR [rsp+72], edx
  002b7	4b 8b 04 c1	 mov	 rax, QWORD PTR [r9+r8*8]
  002bb	48 89 44 24 40	 mov	 QWORD PTR [rsp+64], rax
  002c0	48 8b 84 24 80
	00 00 00	 mov	 rax, QWORD PTR tv166[rsp]
  002c8	48 89 44 24 38	 mov	 QWORD PTR [rsp+56], rax
  002cd	48 8b 84 24 88
	00 00 00	 mov	 rax, QWORD PTR cls$4[rsp]
  002d5	48 89 44 24 30	 mov	 QWORD PTR [rsp+48], rax
  002da	48 8b 44 24 68	 mov	 rax, QWORD PTR typ$[rsp]
  002df	48 89 44 24 28	 mov	 QWORD PTR [rsp+40], rax
  002e4	48 8b 84 24 90
	00 00 00	 mov	 rax, QWORD PTR tv174[rsp]
  002ec	48 89 44 24 20	 mov	 QWORD PTR [rsp+32], rax
  002f1	4c 8b 8c 24 98
	00 00 00	 mov	 r9, QWORD PTR tv180[rsp]
  002f9	4c 8d 05 00 00
	00 00		 lea	 r8, OFFSET FLAT:$SG195617
  00300	48 8b 94 24 f0
	01 00 00	 mov	 rdx, QWORD PTR bufsz$[rsp]
  00308	48 8b 8c 24 e8
	01 00 00	 mov	 rcx, QWORD PTR buf$[rsp]
  00310	ff 15 00 00 00
	00		 call	 QWORD PTR __imp_w32_snprintf

; 2592 : 
; 2593 :             "NED:%s%styp:%s cls:%s lvl:%s sn:%s tag:%02X%02X\n     %s"
; 2594 : 
; 2595 :             , (ned->flags & 0x20) ? "*" : " "
; 2596 :             , (ned->flags & 0x01) ? "(EMULATED) " : ""
; 2597 :             , typ
; 2598 :             , cls
; 2599 :             , (ned->lvl & 0x01) ? "UNRELATED" : "RELATED"
; 2600 :             , sn_ind[ (ned->flags >> 3) & 0x03 ]
; 2601 :             , ned->tag[0], ned->tag[1]
; 2602 :             , FormatSDC( &ned->info, sdc_info, sizeof(sdc_info))
; 2603 :         );
; 2604 :     }

  00316	e9 63 01 00 00	 jmp	 $LN9@FormatNED
$LN8@FormatNED:

; 2605 :     else
; 2606 :     {
; 2607 :         snprintf( buf, bufsz,

  0031b	48 8b 84 24 e0
	01 00 00	 mov	 rax, QWORD PTR ned$[rsp]
  00323	0f b6 40 03	 movzx	 eax, BYTE PTR [rax+3]
  00327	83 e0 01	 and	 eax, 1
  0032a	85 c0		 test	 eax, eax
  0032c	74 11		 je	 SHORT $LN23@FormatNED
  0032e	48 8d 05 00 00
	00 00		 lea	 rax, OFFSET FLAT:$SG195618
  00335	48 89 84 24 a0
	00 00 00	 mov	 QWORD PTR tv213[rsp], rax
  0033d	eb 0f		 jmp	 SHORT $LN24@FormatNED
$LN23@FormatNED:
  0033f	48 8d 05 00 00
	00 00		 lea	 rax, OFFSET FLAT:$SG195619
  00346	48 89 84 24 a0
	00 00 00	 mov	 QWORD PTR tv213[rsp], rax
$LN24@FormatNED:
  0034e	48 8b 84 24 e0
	01 00 00	 mov	 rax, QWORD PTR ned$[rsp]
  00356	0f b6 00	 movzx	 eax, BYTE PTR [rax]
  00359	83 e0 01	 and	 eax, 1
  0035c	85 c0		 test	 eax, eax
  0035e	74 11		 je	 SHORT $LN25@FormatNED
  00360	48 8d 05 00 00
	00 00		 lea	 rax, OFFSET FLAT:$SG195620
  00367	48 89 84 24 a8
	00 00 00	 mov	 QWORD PTR tv220[rsp], rax
  0036f	eb 0f		 jmp	 SHORT $LN26@FormatNED
$LN25@FormatNED:
  00371	48 8d 05 00 00
	00 00		 lea	 rax, OFFSET FLAT:$SG195621
  00378	48 89 84 24 a8
	00 00 00	 mov	 QWORD PTR tv220[rsp], rax
$LN26@FormatNED:
  00380	48 8b 84 24 e0
	01 00 00	 mov	 rax, QWORD PTR ned$[rsp]
  00388	0f b6 00	 movzx	 eax, BYTE PTR [rax]
  0038b	83 e0 20	 and	 eax, 32			; 00000020H
  0038e	85 c0		 test	 eax, eax
  00390	74 11		 je	 SHORT $LN27@FormatNED
  00392	48 8d 05 00 00
	00 00		 lea	 rax, OFFSET FLAT:$SG195622
  00399	48 89 84 24 b0
	00 00 00	 mov	 QWORD PTR tv226[rsp], rax
  003a1	eb 0f		 jmp	 SHORT $LN28@FormatNED
$LN27@FormatNED:
  003a3	48 8d 05 00 00
	00 00		 lea	 rax, OFFSET FLAT:$SG195623
  003aa	48 89 84 24 b0
	00 00 00	 mov	 QWORD PTR tv226[rsp], rax
$LN28@FormatNED:
  003b2	48 8b 84 24 e0
	01 00 00	 mov	 rax, QWORD PTR ned$[rsp]
  003ba	48 83 c0 04	 add	 rax, 4
  003be	41 b8 00 01 00
	00		 mov	 r8d, 256		; 00000100H
  003c4	48 8d 94 24 c0
	00 00 00	 lea	 rdx, QWORD PTR sdc_info$[rsp]
  003cc	48 8b c8	 mov	 rcx, rax
  003cf	e8 00 00 00 00	 call	 FormatSDC
  003d4	b9 01 00 00 00	 mov	 ecx, 1
  003d9	48 6b c9 01	 imul	 rcx, rcx, 1
  003dd	48 8b 94 24 e0
	01 00 00	 mov	 rdx, QWORD PTR ned$[rsp]
  003e5	0f b6 4c 0a 1e	 movzx	 ecx, BYTE PTR [rdx+rcx+30]
  003ea	ba 01 00 00 00	 mov	 edx, 1
  003ef	48 6b d2 00	 imul	 rdx, rdx, 0
  003f3	4c 8b 84 24 e0
	01 00 00	 mov	 r8, QWORD PTR ned$[rsp]
  003fb	41 0f b6 54 10
	1e		 movzx	 edx, BYTE PTR [r8+rdx+30]
  00401	4c 8b 84 24 e0
	01 00 00	 mov	 r8, QWORD PTR ned$[rsp]
  00409	45 0f b6 00	 movzx	 r8d, BYTE PTR [r8]
  0040d	41 c1 f8 03	 sar	 r8d, 3
  00411	41 83 e0 03	 and	 r8d, 3
  00415	4d 63 c0	 movsxd	 r8, r8d
  00418	4c 8d 0d 00 00
	00 00		 lea	 r9, OFFSET FLAT:?sn_ind@?1??FormatNED@@9@9
  0041f	48 89 44 24 50	 mov	 QWORD PTR [rsp+80], rax
  00424	89 4c 24 48	 mov	 DWORD PTR [rsp+72], ecx
  00428	89 54 24 40	 mov	 DWORD PTR [rsp+64], edx
  0042c	4b 8b 04 c1	 mov	 rax, QWORD PTR [r9+r8*8]
  00430	48 89 44 24 38	 mov	 QWORD PTR [rsp+56], rax
  00435	48 8b 84 24 a0
	00 00 00	 mov	 rax, QWORD PTR tv213[rsp]
  0043d	48 89 44 24 30	 mov	 QWORD PTR [rsp+48], rax
  00442	48 8b 44 24 68	 mov	 rax, QWORD PTR typ$[rsp]
  00447	48 89 44 24 28	 mov	 QWORD PTR [rsp+40], rax
  0044c	48 8b 84 24 a8
	00 00 00	 mov	 rax, QWORD PTR tv220[rsp]
  00454	48 89 44 24 20	 mov	 QWORD PTR [rsp+32], rax
  00459	4c 8b 8c 24 b0
	00 00 00	 mov	 r9, QWORD PTR tv226[rsp]
  00461	4c 8d 05 00 00
	00 00		 lea	 r8, OFFSET FLAT:$SG195624
  00468	48 8b 94 24 f0
	01 00 00	 mov	 rdx, QWORD PTR bufsz$[rsp]
  00470	48 8b 8c 24 e8
	01 00 00	 mov	 rcx, QWORD PTR buf$[rsp]
  00478	ff 15 00 00 00
	00		 call	 QWORD PTR __imp_w32_snprintf
$LN9@FormatNED:

; 2608 : 
; 2609 :             "NED:%s%styp:%s lvl:%s sn:%s tag:%02X%02X\n     %s"
; 2610 : 
; 2611 :             , (ned->flags & 0x20) ? "*" : " "
; 2612 :             , (ned->flags & 0x01) ? "(EMULATED) " : ""
; 2613 :             , typ
; 2614 :             , (ned->lvl & 0x01) ? "UNRELATED" : "RELATED"
; 2615 :             , sn_ind[ (ned->flags >> 3) & 0x03 ]
; 2616 :             , ned->tag[0], ned->tag[1]
; 2617 :             , FormatSDC( &ned->info, sdc_info, sizeof(sdc_info))
; 2618 :         );
; 2619 :     }
; 2620 : 
; 2621 :     return buf;

  0047e	48 8b 84 24 e8
	01 00 00	 mov	 rax, QWORD PTR buf$[rsp]
$LN1@FormatNED:
$LN12@FormatNED:

; 2622 : }

  00486	48 8b 8c 24 c0
	01 00 00	 mov	 rcx, QWORD PTR __$ArrayPad$[rsp]
  0048e	48 33 cc	 xor	 rcx, rsp
  00491	e8 00 00 00 00	 call	 __security_check_cookie
  00496	48 81 c4 d8 01
	00 00		 add	 rsp, 472		; 000001d8H
  0049d	c3		 ret	 0
FormatNED ENDP
_TEXT	ENDS
; Function compile flags: /Odtp
; File C:\papa\MyGit\hyperion-zvector\hscmisc.c
_TEXT	SEGMENT
tv76 = 240
tv83 = 244
tv90 = 248
tv129 = 252
tv136 = 256
tv143 = 260
tv150 = 264
tv157 = 268
tv164 = 272
tv171 = 276
tv178 = 280
tv185 = 284
tv192 = 288
tv199 = 292
tv206 = 296
tv213 = 300
tv220 = 304
tv227 = 308
tv234 = 312
tv241 = 316
tv248 = 320
tv255 = 324
tv262 = 328
tv269 = 332
tv276 = 336
sdc$ = 368
buf$ = 376
bufsz$ = 384
FormatSDC PROC

; 2499 : {

$LN7:
  00000	4c 89 44 24 18	 mov	 QWORD PTR [rsp+24], r8
  00005	48 89 54 24 10	 mov	 QWORD PTR [rsp+16], rdx
  0000a	48 89 4c 24 08	 mov	 QWORD PTR [rsp+8], rcx
  0000f	48 81 ec 68 01
	00 00		 sub	 rsp, 360		; 00000168H

; 2500 :     if (!buf)

  00016	48 83 bc 24 78
	01 00 00 00	 cmp	 QWORD PTR buf$[rsp], 0
  0001f	75 07		 jne	 SHORT $LN2@FormatSDC

; 2501 :         return NULL;

  00021	33 c0		 xor	 eax, eax
  00023	e9 5a 05 00 00	 jmp	 $LN1@FormatSDC
$LN2@FormatSDC:

; 2502 :     if (bufsz)

  00028	48 83 bc 24 80
	01 00 00 00	 cmp	 QWORD PTR bufsz$[rsp], 0
  00031	74 15		 je	 SHORT $LN3@FormatSDC

; 2503 :         buf[0] = 0;

  00033	b8 01 00 00 00	 mov	 eax, 1
  00038	48 6b c0 00	 imul	 rax, rax, 0
  0003c	48 8b 8c 24 78
	01 00 00	 mov	 rcx, QWORD PTR buf$[rsp]
  00044	c6 04 01 00	 mov	 BYTE PTR [rcx+rax], 0
$LN3@FormatSDC:

; 2504 :     if (bufsz <= 1 || !sdc)

  00048	48 83 bc 24 80
	01 00 00 01	 cmp	 QWORD PTR bufsz$[rsp], 1
  00051	76 0b		 jbe	 SHORT $LN5@FormatSDC
  00053	48 83 bc 24 70
	01 00 00 00	 cmp	 QWORD PTR sdc$[rsp], 0
  0005c	75 0d		 jne	 SHORT $LN4@FormatSDC
$LN5@FormatSDC:

; 2505 :         return buf;

  0005e	48 8b 84 24 78
	01 00 00	 mov	 rax, QWORD PTR buf$[rsp]
  00066	e9 17 05 00 00	 jmp	 $LN1@FormatSDC
$LN4@FormatSDC:

; 2506 : 
; 2507 :     #define SDCCHAR(fld, n) sdcchar(sdc->fld[n])
; 2508 : 
; 2509 :     snprintf( buf, bufsz,

  0006b	b8 01 00 00 00	 mov	 eax, 1
  00070	48 6b c0 0b	 imul	 rax, rax, 11
  00074	48 8b 8c 24 70
	01 00 00	 mov	 rcx, QWORD PTR sdc$[rsp]
  0007c	0f b6 4c 01 0e	 movzx	 ecx, BYTE PTR [rcx+rax+14]
  00081	e8 00 00 00 00	 call	 sdcchar
  00086	0f b6 c0	 movzx	 eax, al
  00089	89 84 24 f0 00
	00 00		 mov	 DWORD PTR tv76[rsp], eax
  00090	b9 01 00 00 00	 mov	 ecx, 1
  00095	48 6b c9 0a	 imul	 rcx, rcx, 10
  00099	48 8b 94 24 70
	01 00 00	 mov	 rdx, QWORD PTR sdc$[rsp]
  000a1	0f b6 4c 0a 0e	 movzx	 ecx, BYTE PTR [rdx+rcx+14]
  000a6	e8 00 00 00 00	 call	 sdcchar
  000ab	0f b6 c0	 movzx	 eax, al
  000ae	89 84 24 f4 00
	00 00		 mov	 DWORD PTR tv83[rsp], eax
  000b5	b9 01 00 00 00	 mov	 ecx, 1
  000ba	48 6b c9 09	 imul	 rcx, rcx, 9
  000be	48 8b 94 24 70
	01 00 00	 mov	 rdx, QWORD PTR sdc$[rsp]
  000c6	0f b6 4c 0a 0e	 movzx	 ecx, BYTE PTR [rdx+rcx+14]
  000cb	e8 00 00 00 00	 call	 sdcchar
  000d0	0f b6 c0	 movzx	 eax, al
  000d3	89 84 24 f8 00
	00 00		 mov	 DWORD PTR tv90[rsp], eax
  000da	b9 01 00 00 00	 mov	 ecx, 1
  000df	48 6b c9 08	 imul	 rcx, rcx, 8
  000e3	48 8b 94 24 70
	01 00 00	 mov	 rdx, QWORD PTR sdc$[rsp]
  000eb	0f b6 4c 0a 0e	 movzx	 ecx, BYTE PTR [rdx+rcx+14]
  000f0	e8 00 00 00 00	 call	 sdcchar
  000f5	0f b6 c0	 movzx	 eax, al
  000f8	89 84 24 fc 00
	00 00		 mov	 DWORD PTR tv129[rsp], eax
  000ff	b9 01 00 00 00	 mov	 ecx, 1
  00104	48 6b c9 07	 imul	 rcx, rcx, 7
  00108	48 8b 94 24 70
	01 00 00	 mov	 rdx, QWORD PTR sdc$[rsp]
  00110	0f b6 4c 0a 0e	 movzx	 ecx, BYTE PTR [rdx+rcx+14]
  00115	e8 00 00 00 00	 call	 sdcchar
  0011a	0f b6 c0	 movzx	 eax, al
  0011d	89 84 24 00 01
	00 00		 mov	 DWORD PTR tv136[rsp], eax
  00124	b9 01 00 00 00	 mov	 ecx, 1
  00129	48 6b c9 06	 imul	 rcx, rcx, 6
  0012d	48 8b 94 24 70
	01 00 00	 mov	 rdx, QWORD PTR sdc$[rsp]
  00135	0f b6 4c 0a 0e	 movzx	 ecx, BYTE PTR [rdx+rcx+14]
  0013a	e8 00 00 00 00	 call	 sdcchar
  0013f	0f b6 c0	 movzx	 eax, al
  00142	89 84 24 04 01
	00 00		 mov	 DWORD PTR tv143[rsp], eax
  00149	b9 01 00 00 00	 mov	 ecx, 1
  0014e	48 6b c9 05	 imul	 rcx, rcx, 5
  00152	48 8b 94 24 70
	01 00 00	 mov	 rdx, QWORD PTR sdc$[rsp]
  0015a	0f b6 4c 0a 0e	 movzx	 ecx, BYTE PTR [rdx+rcx+14]
  0015f	e8 00 00 00 00	 call	 sdcchar
  00164	0f b6 c0	 movzx	 eax, al
  00167	89 84 24 08 01
	00 00		 mov	 DWORD PTR tv150[rsp], eax
  0016e	b9 01 00 00 00	 mov	 ecx, 1
  00173	48 6b c9 04	 imul	 rcx, rcx, 4
  00177	48 8b 94 24 70
	01 00 00	 mov	 rdx, QWORD PTR sdc$[rsp]
  0017f	0f b6 4c 0a 0e	 movzx	 ecx, BYTE PTR [rdx+rcx+14]
  00184	e8 00 00 00 00	 call	 sdcchar
  00189	0f b6 c0	 movzx	 eax, al
  0018c	89 84 24 0c 01
	00 00		 mov	 DWORD PTR tv157[rsp], eax
  00193	b9 01 00 00 00	 mov	 ecx, 1
  00198	48 6b c9 03	 imul	 rcx, rcx, 3
  0019c	48 8b 94 24 70
	01 00 00	 mov	 rdx, QWORD PTR sdc$[rsp]
  001a4	0f b6 4c 0a 0e	 movzx	 ecx, BYTE PTR [rdx+rcx+14]
  001a9	e8 00 00 00 00	 call	 sdcchar
  001ae	0f b6 c0	 movzx	 eax, al
  001b1	89 84 24 10 01
	00 00		 mov	 DWORD PTR tv164[rsp], eax
  001b8	b9 01 00 00 00	 mov	 ecx, 1
  001bd	48 6b c9 02	 imul	 rcx, rcx, 2
  001c1	48 8b 94 24 70
	01 00 00	 mov	 rdx, QWORD PTR sdc$[rsp]
  001c9	0f b6 4c 0a 0e	 movzx	 ecx, BYTE PTR [rdx+rcx+14]
  001ce	e8 00 00 00 00	 call	 sdcchar
  001d3	0f b6 c0	 movzx	 eax, al
  001d6	89 84 24 14 01
	00 00		 mov	 DWORD PTR tv171[rsp], eax
  001dd	b9 01 00 00 00	 mov	 ecx, 1
  001e2	48 6b c9 01	 imul	 rcx, rcx, 1
  001e6	48 8b 94 24 70
	01 00 00	 mov	 rdx, QWORD PTR sdc$[rsp]
  001ee	0f b6 4c 0a 0e	 movzx	 ecx, BYTE PTR [rdx+rcx+14]
  001f3	e8 00 00 00 00	 call	 sdcchar
  001f8	0f b6 c0	 movzx	 eax, al
  001fb	89 84 24 18 01
	00 00		 mov	 DWORD PTR tv178[rsp], eax
  00202	b9 01 00 00 00	 mov	 ecx, 1
  00207	48 6b c9 00	 imul	 rcx, rcx, 0
  0020b	48 8b 94 24 70
	01 00 00	 mov	 rdx, QWORD PTR sdc$[rsp]
  00213	0f b6 4c 0a 0e	 movzx	 ecx, BYTE PTR [rdx+rcx+14]
  00218	e8 00 00 00 00	 call	 sdcchar
  0021d	0f b6 c0	 movzx	 eax, al
  00220	89 84 24 1c 01
	00 00		 mov	 DWORD PTR tv185[rsp], eax
  00227	b9 01 00 00 00	 mov	 ecx, 1
  0022c	48 6b c9 01	 imul	 rcx, rcx, 1
  00230	48 8b 94 24 70
	01 00 00	 mov	 rdx, QWORD PTR sdc$[rsp]
  00238	0f b6 4c 0a 0c	 movzx	 ecx, BYTE PTR [rdx+rcx+12]
  0023d	e8 00 00 00 00	 call	 sdcchar
  00242	0f b6 c0	 movzx	 eax, al
  00245	89 84 24 20 01
	00 00		 mov	 DWORD PTR tv192[rsp], eax
  0024c	b9 01 00 00 00	 mov	 ecx, 1
  00251	48 6b c9 00	 imul	 rcx, rcx, 0
  00255	48 8b 94 24 70
	01 00 00	 mov	 rdx, QWORD PTR sdc$[rsp]
  0025d	0f b6 4c 0a 0c	 movzx	 ecx, BYTE PTR [rdx+rcx+12]
  00262	e8 00 00 00 00	 call	 sdcchar
  00267	0f b6 c0	 movzx	 eax, al
  0026a	89 84 24 24 01
	00 00		 mov	 DWORD PTR tv199[rsp], eax
  00271	b9 01 00 00 00	 mov	 ecx, 1
  00276	48 6b c9 02	 imul	 rcx, rcx, 2
  0027a	48 8b 94 24 70
	01 00 00	 mov	 rdx, QWORD PTR sdc$[rsp]
  00282	0f b6 4c 0a 09	 movzx	 ecx, BYTE PTR [rdx+rcx+9]
  00287	e8 00 00 00 00	 call	 sdcchar
  0028c	0f b6 c0	 movzx	 eax, al
  0028f	89 84 24 28 01
	00 00		 mov	 DWORD PTR tv206[rsp], eax
  00296	b9 01 00 00 00	 mov	 ecx, 1
  0029b	48 6b c9 01	 imul	 rcx, rcx, 1
  0029f	48 8b 94 24 70
	01 00 00	 mov	 rdx, QWORD PTR sdc$[rsp]
  002a7	0f b6 4c 0a 09	 movzx	 ecx, BYTE PTR [rdx+rcx+9]
  002ac	e8 00 00 00 00	 call	 sdcchar
  002b1	0f b6 c0	 movzx	 eax, al
  002b4	89 84 24 2c 01
	00 00		 mov	 DWORD PTR tv213[rsp], eax
  002bb	b9 01 00 00 00	 mov	 ecx, 1
  002c0	48 6b c9 00	 imul	 rcx, rcx, 0
  002c4	48 8b 94 24 70
	01 00 00	 mov	 rdx, QWORD PTR sdc$[rsp]
  002cc	0f b6 4c 0a 09	 movzx	 ecx, BYTE PTR [rdx+rcx+9]
  002d1	e8 00 00 00 00	 call	 sdcchar
  002d6	0f b6 c0	 movzx	 eax, al
  002d9	89 84 24 30 01
	00 00		 mov	 DWORD PTR tv220[rsp], eax
  002e0	b9 01 00 00 00	 mov	 ecx, 1
  002e5	48 6b c9 02	 imul	 rcx, rcx, 2
  002e9	48 8b 94 24 70
	01 00 00	 mov	 rdx, QWORD PTR sdc$[rsp]
  002f1	0f b6 4c 0a 06	 movzx	 ecx, BYTE PTR [rdx+rcx+6]
  002f6	e8 00 00 00 00	 call	 sdcchar
  002fb	0f b6 c0	 movzx	 eax, al
  002fe	89 84 24 34 01
	00 00		 mov	 DWORD PTR tv227[rsp], eax
  00305	b9 01 00 00 00	 mov	 ecx, 1
  0030a	48 6b c9 01	 imul	 rcx, rcx, 1
  0030e	48 8b 94 24 70
	01 00 00	 mov	 rdx, QWORD PTR sdc$[rsp]
  00316	0f b6 4c 0a 06	 movzx	 ecx, BYTE PTR [rdx+rcx+6]
  0031b	e8 00 00 00 00	 call	 sdcchar
  00320	0f b6 c0	 movzx	 eax, al
  00323	89 84 24 38 01
	00 00		 mov	 DWORD PTR tv234[rsp], eax
  0032a	b9 01 00 00 00	 mov	 ecx, 1
  0032f	48 6b c9 00	 imul	 rcx, rcx, 0
  00333	48 8b 94 24 70
	01 00 00	 mov	 rdx, QWORD PTR sdc$[rsp]
  0033b	0f b6 4c 0a 06	 movzx	 ecx, BYTE PTR [rdx+rcx+6]
  00340	e8 00 00 00 00	 call	 sdcchar
  00345	0f b6 c0	 movzx	 eax, al
  00348	89 84 24 3c 01
	00 00		 mov	 DWORD PTR tv241[rsp], eax
  0034f	b9 01 00 00 00	 mov	 ecx, 1
  00354	48 6b c9 05	 imul	 rcx, rcx, 5
  00358	48 8b 94 24 70
	01 00 00	 mov	 rdx, QWORD PTR sdc$[rsp]
  00360	0f b6 0c 0a	 movzx	 ecx, BYTE PTR [rdx+rcx]
  00364	e8 00 00 00 00	 call	 sdcchar
  00369	0f b6 c0	 movzx	 eax, al
  0036c	89 84 24 40 01
	00 00		 mov	 DWORD PTR tv248[rsp], eax
  00373	b9 01 00 00 00	 mov	 ecx, 1
  00378	48 6b c9 04	 imul	 rcx, rcx, 4
  0037c	48 8b 94 24 70
	01 00 00	 mov	 rdx, QWORD PTR sdc$[rsp]
  00384	0f b6 0c 0a	 movzx	 ecx, BYTE PTR [rdx+rcx]
  00388	e8 00 00 00 00	 call	 sdcchar
  0038d	0f b6 c0	 movzx	 eax, al
  00390	89 84 24 44 01
	00 00		 mov	 DWORD PTR tv255[rsp], eax
  00397	b9 01 00 00 00	 mov	 ecx, 1
  0039c	48 6b c9 03	 imul	 rcx, rcx, 3
  003a0	48 8b 94 24 70
	01 00 00	 mov	 rdx, QWORD PTR sdc$[rsp]
  003a8	0f b6 0c 0a	 movzx	 ecx, BYTE PTR [rdx+rcx]
  003ac	e8 00 00 00 00	 call	 sdcchar
  003b1	0f b6 c0	 movzx	 eax, al
  003b4	89 84 24 48 01
	00 00		 mov	 DWORD PTR tv262[rsp], eax
  003bb	b9 01 00 00 00	 mov	 ecx, 1
  003c0	48 6b c9 02	 imul	 rcx, rcx, 2
  003c4	48 8b 94 24 70
	01 00 00	 mov	 rdx, QWORD PTR sdc$[rsp]
  003cc	0f b6 0c 0a	 movzx	 ecx, BYTE PTR [rdx+rcx]
  003d0	e8 00 00 00 00	 call	 sdcchar
  003d5	0f b6 c0	 movzx	 eax, al
  003d8	89 84 24 4c 01
	00 00		 mov	 DWORD PTR tv269[rsp], eax
  003df	b9 01 00 00 00	 mov	 ecx, 1
  003e4	48 6b c9 01	 imul	 rcx, rcx, 1
  003e8	48 8b 94 24 70
	01 00 00	 mov	 rdx, QWORD PTR sdc$[rsp]
  003f0	0f b6 0c 0a	 movzx	 ecx, BYTE PTR [rdx+rcx]
  003f4	e8 00 00 00 00	 call	 sdcchar
  003f9	0f b6 c0	 movzx	 eax, al
  003fc	89 84 24 50 01
	00 00		 mov	 DWORD PTR tv276[rsp], eax
  00403	b9 01 00 00 00	 mov	 ecx, 1
  00408	48 6b c9 00	 imul	 rcx, rcx, 0
  0040c	48 8b 94 24 70
	01 00 00	 mov	 rdx, QWORD PTR sdc$[rsp]
  00414	0f b6 0c 0a	 movzx	 ecx, BYTE PTR [rdx+rcx]
  00418	e8 00 00 00 00	 call	 sdcchar
  0041d	0f b6 c0	 movzx	 eax, al
  00420	8b 8c 24 f0 00
	00 00		 mov	 ecx, DWORD PTR tv76[rsp]
  00427	89 8c 24 e0 00
	00 00		 mov	 DWORD PTR [rsp+224], ecx
  0042e	8b 8c 24 f4 00
	00 00		 mov	 ecx, DWORD PTR tv83[rsp]
  00435	89 8c 24 d8 00
	00 00		 mov	 DWORD PTR [rsp+216], ecx
  0043c	8b 8c 24 f8 00
	00 00		 mov	 ecx, DWORD PTR tv90[rsp]
  00443	89 8c 24 d0 00
	00 00		 mov	 DWORD PTR [rsp+208], ecx
  0044a	8b 8c 24 fc 00
	00 00		 mov	 ecx, DWORD PTR tv129[rsp]
  00451	89 8c 24 c8 00
	00 00		 mov	 DWORD PTR [rsp+200], ecx
  00458	8b 8c 24 00 01
	00 00		 mov	 ecx, DWORD PTR tv136[rsp]
  0045f	89 8c 24 c0 00
	00 00		 mov	 DWORD PTR [rsp+192], ecx
  00466	8b 8c 24 04 01
	00 00		 mov	 ecx, DWORD PTR tv143[rsp]
  0046d	89 8c 24 b8 00
	00 00		 mov	 DWORD PTR [rsp+184], ecx
  00474	8b 8c 24 08 01
	00 00		 mov	 ecx, DWORD PTR tv150[rsp]
  0047b	89 8c 24 b0 00
	00 00		 mov	 DWORD PTR [rsp+176], ecx
  00482	8b 8c 24 0c 01
	00 00		 mov	 ecx, DWORD PTR tv157[rsp]
  00489	89 8c 24 a8 00
	00 00		 mov	 DWORD PTR [rsp+168], ecx
  00490	8b 8c 24 10 01
	00 00		 mov	 ecx, DWORD PTR tv164[rsp]
  00497	89 8c 24 a0 00
	00 00		 mov	 DWORD PTR [rsp+160], ecx
  0049e	8b 8c 24 14 01
	00 00		 mov	 ecx, DWORD PTR tv171[rsp]
  004a5	89 8c 24 98 00
	00 00		 mov	 DWORD PTR [rsp+152], ecx
  004ac	8b 8c 24 18 01
	00 00		 mov	 ecx, DWORD PTR tv178[rsp]
  004b3	89 8c 24 90 00
	00 00		 mov	 DWORD PTR [rsp+144], ecx
  004ba	8b 8c 24 1c 01
	00 00		 mov	 ecx, DWORD PTR tv185[rsp]
  004c1	89 8c 24 88 00
	00 00		 mov	 DWORD PTR [rsp+136], ecx
  004c8	8b 8c 24 20 01
	00 00		 mov	 ecx, DWORD PTR tv192[rsp]
  004cf	89 8c 24 80 00
	00 00		 mov	 DWORD PTR [rsp+128], ecx
  004d6	8b 8c 24 24 01
	00 00		 mov	 ecx, DWORD PTR tv199[rsp]
  004dd	89 4c 24 78	 mov	 DWORD PTR [rsp+120], ecx
  004e1	8b 8c 24 28 01
	00 00		 mov	 ecx, DWORD PTR tv206[rsp]
  004e8	89 4c 24 70	 mov	 DWORD PTR [rsp+112], ecx
  004ec	8b 8c 24 2c 01
	00 00		 mov	 ecx, DWORD PTR tv213[rsp]
  004f3	89 4c 24 68	 mov	 DWORD PTR [rsp+104], ecx
  004f7	8b 8c 24 30 01
	00 00		 mov	 ecx, DWORD PTR tv220[rsp]
  004fe	89 4c 24 60	 mov	 DWORD PTR [rsp+96], ecx
  00502	8b 8c 24 34 01
	00 00		 mov	 ecx, DWORD PTR tv227[rsp]
  00509	89 4c 24 58	 mov	 DWORD PTR [rsp+88], ecx
  0050d	8b 8c 24 38 01
	00 00		 mov	 ecx, DWORD PTR tv234[rsp]
  00514	89 4c 24 50	 mov	 DWORD PTR [rsp+80], ecx
  00518	8b 8c 24 3c 01
	00 00		 mov	 ecx, DWORD PTR tv241[rsp]
  0051f	89 4c 24 48	 mov	 DWORD PTR [rsp+72], ecx
  00523	8b 8c 24 40 01
	00 00		 mov	 ecx, DWORD PTR tv248[rsp]
  0052a	89 4c 24 40	 mov	 DWORD PTR [rsp+64], ecx
  0052e	8b 8c 24 44 01
	00 00		 mov	 ecx, DWORD PTR tv255[rsp]
  00535	89 4c 24 38	 mov	 DWORD PTR [rsp+56], ecx
  00539	8b 8c 24 48 01
	00 00		 mov	 ecx, DWORD PTR tv262[rsp]
  00540	89 4c 24 30	 mov	 DWORD PTR [rsp+48], ecx
  00544	8b 8c 24 4c 01
	00 00		 mov	 ecx, DWORD PTR tv269[rsp]
  0054b	89 4c 24 28	 mov	 DWORD PTR [rsp+40], ecx
  0054f	8b 8c 24 50 01
	00 00		 mov	 ecx, DWORD PTR tv276[rsp]
  00556	89 4c 24 20	 mov	 DWORD PTR [rsp+32], ecx
  0055a	44 8b c8	 mov	 r9d, eax
  0055d	4c 8d 05 00 00
	00 00		 lea	 r8, OFFSET FLAT:$SG195552
  00564	48 8b 94 24 80
	01 00 00	 mov	 rdx, QWORD PTR bufsz$[rsp]
  0056c	48 8b 8c 24 78
	01 00 00	 mov	 rcx, QWORD PTR buf$[rsp]
  00574	ff 15 00 00 00
	00		 call	 QWORD PTR __imp_w32_snprintf

; 2510 : 
; 2511 :         "SDC: type/model:%c%c%c%c%c%c-%c%c%c mfg:%c%c%c plant:%c%c seq/serial:%c%c%c%c%c%c%c%c%c%c%c%c\n"
; 2512 : 
; 2513 :         , SDCCHAR(type,0),SDCCHAR(type,1),SDCCHAR(type,2),SDCCHAR(type,3),SDCCHAR(type,4),SDCCHAR(type,5)
; 2514 :         , SDCCHAR(model,0),SDCCHAR(model,1),SDCCHAR(model,2)
; 2515 :         , SDCCHAR(mfr,0),SDCCHAR(mfr,1),SDCCHAR(mfr,2)
; 2516 :         , SDCCHAR(plant,0),SDCCHAR(plant,1)
; 2517 :         , SDCCHAR(serial,0),SDCCHAR(serial,1),SDCCHAR(serial,2),SDCCHAR(serial,3),SDCCHAR(serial,4),SDCCHAR(serial,5)
; 2518 :         , SDCCHAR(serial,6),SDCCHAR(serial,7),SDCCHAR(serial,8),SDCCHAR(serial,9),SDCCHAR(serial,10),SDCCHAR(serial,11)
; 2519 :     );
; 2520 : 
; 2521 :     return buf;

  0057a	48 8b 84 24 78
	01 00 00	 mov	 rax, QWORD PTR buf$[rsp]
$LN1@FormatSDC:

; 2522 : }

  00582	48 81 c4 68 01
	00 00		 add	 rsp, 360		; 00000168H
  00589	c3		 ret	 0
FormatSDC ENDP
_TEXT	ENDS
; Function compile flags: /Odtp
; File C:\papa\MyGit\hyperion-zvector\hscmisc.c
_TEXT	SEGMENT
tv71 = 32
c$ = 64
sdcchar	PROC

; 2491 : {

  00000	88 4c 24 08	 mov	 BYTE PTR [rsp+8], cl
  00004	48 83 ec 38	 sub	 rsp, 56			; 00000038H

; 2492 :     /* This  suberfuge  resolved a compiler bug that leads to a slew */
; 2493 :     /* of warnings about c possibly being undefined.                 */
; 2494 :     c = guest_to_host( c );

  00008	0f b6 4c 24 40	 movzx	 ecx, BYTE PTR c$[rsp]
  0000d	ff 15 00 00 00
	00		 call	 QWORD PTR __imp_guest_to_host
  00013	88 44 24 40	 mov	 BYTE PTR c$[rsp], al

; 2495 :     return isgraph(c) ? c : '?';

  00017	0f b6 44 24 40	 movzx	 eax, BYTE PTR c$[rsp]
  0001c	8b c8		 mov	 ecx, eax
  0001e	ff 15 00 00 00
	00		 call	 QWORD PTR __imp_isgraph
  00024	85 c0		 test	 eax, eax
  00026	74 0b		 je	 SHORT $LN3@sdcchar
  00028	0f b6 44 24 40	 movzx	 eax, BYTE PTR c$[rsp]
  0002d	89 44 24 20	 mov	 DWORD PTR tv71[rsp], eax
  00031	eb 08		 jmp	 SHORT $LN4@sdcchar
$LN3@sdcchar:
  00033	c7 44 24 20 3f
	00 00 00	 mov	 DWORD PTR tv71[rsp], 63	; 0000003fH
$LN4@sdcchar:
  0003b	0f b6 44 24 20	 movzx	 eax, BYTE PTR tv71[rsp]

; 2496 : }

  00040	48 83 c4 38	 add	 rsp, 56			; 00000038H
  00044	c3		 ret	 0
sdcchar	ENDP
_TEXT	ENDS
; Function compile flags: /Odtp
; File C:\papa\MyGit\hyperion-zvector\hscmisc.c
_TEXT	SEGMENT
len$ = 64
i$ = 68
rpl$ = 72
tv128 = 76
hdr$ = 96
cpuad$ = 104
r$ = 112
numcpus$ = 120
buf$ = 128
buflen$ = 136
msghdr$ = 144
display_regs64 PROC

; 1562 : {

  00000	44 89 4c 24 20	 mov	 DWORD PTR [rsp+32], r9d
  00005	4c 89 44 24 18	 mov	 QWORD PTR [rsp+24], r8
  0000a	66 89 54 24 10	 mov	 WORD PTR [rsp+16], dx
  0000f	48 89 4c 24 08	 mov	 QWORD PTR [rsp+8], rcx
  00014	48 83 ec 58	 sub	 rsp, 88			; 00000058H

; 1563 :     int i;
; 1564 :     int rpl;
; 1565 :     int len=0;

  00018	c7 44 24 40 00
	00 00 00	 mov	 DWORD PTR len$[rsp], 0

; 1566 :     if(numcpus>1 && !(sysblk.insttrace || sysblk.instbreak) )

  00020	83 7c 24 78 01	 cmp	 DWORD PTR numcpus$[rsp], 1
  00025	7e 38		 jle	 SHORT $LN5@display_re
  00027	48 8b 05 00 00
	00 00		 mov	 rax, QWORD PTR __imp_sysblk
  0002e	8b 80 94 12 00
	00		 mov	 eax, DWORD PTR [rax+4756]
  00034	c1 e8 08	 shr	 eax, 8
  00037	83 e0 01	 and	 eax, 1
  0003a	85 c0		 test	 eax, eax
  0003c	75 21		 jne	 SHORT $LN5@display_re
  0003e	48 8b 05 00 00
	00 00		 mov	 rax, QWORD PTR __imp_sysblk
  00045	8b 80 94 12 00
	00		 mov	 eax, DWORD PTR [rax+4756]
  0004b	c1 e8 0a	 shr	 eax, 10
  0004e	83 e0 01	 and	 eax, 1
  00051	85 c0		 test	 eax, eax
  00053	75 0a		 jne	 SHORT $LN5@display_re

; 1567 :     {
; 1568 :         rpl=2;

  00055	c7 44 24 48 02
	00 00 00	 mov	 DWORD PTR rpl$[rsp], 2

; 1569 :     }

  0005d	eb 08		 jmp	 SHORT $LN6@display_re
$LN5@display_re:

; 1570 :     else // (numcpus <= 1 || sysblk.insttrace || sysblk.instbreak)
; 1571 :     {
; 1572 :         rpl=4;

  0005f	c7 44 24 48 04
	00 00 00	 mov	 DWORD PTR rpl$[rsp], 4
$LN6@display_re:

; 1573 :     }
; 1574 :     for(i=0;i<16;i++)

  00067	c7 44 24 44 00
	00 00 00	 mov	 DWORD PTR i$[rsp], 0
  0006f	eb 0a		 jmp	 SHORT $LN4@display_re
$LN2@display_re:
  00071	8b 44 24 44	 mov	 eax, DWORD PTR i$[rsp]
  00075	ff c0		 inc	 eax
  00077	89 44 24 44	 mov	 DWORD PTR i$[rsp], eax
$LN4@display_re:
  0007b	83 7c 24 44 10	 cmp	 DWORD PTR i$[rsp], 16
  00080	0f 8d 9f 01 00
	00		 jge	 $LN3@display_re

; 1575 :     {
; 1576 :         if(!(i%rpl))

  00086	8b 44 24 44	 mov	 eax, DWORD PTR i$[rsp]
  0008a	99		 cdq
  0008b	f7 7c 24 48	 idiv	 DWORD PTR rpl$[rsp]
  0008f	8b c2		 mov	 eax, edx
  00091	85 c0		 test	 eax, eax
  00093	0f 85 e7 00 00
	00		 jne	 $LN7@display_re

; 1577 :         {
; 1578 :             if(i)

  00099	83 7c 24 44 00	 cmp	 DWORD PTR i$[rsp], 0
  0009e	74 3c		 je	 SHORT $LN8@display_re

; 1579 :             {
; 1580 :                 len += idx_snprintf( len, buf, buflen, "%s", "\n" );

  000a0	48 63 84 24 88
	00 00 00	 movsxd	 rax, DWORD PTR buflen$[rsp]
  000a8	48 8d 0d 00 00
	00 00		 lea	 rcx, OFFSET FLAT:$SG195013
  000af	48 89 4c 24 20	 mov	 QWORD PTR [rsp+32], rcx
  000b4	4c 8d 0d 00 00
	00 00		 lea	 r9, OFFSET FLAT:$SG195014
  000bb	4c 8b c0	 mov	 r8, rax
  000be	48 8b 94 24 80
	00 00 00	 mov	 rdx, QWORD PTR buf$[rsp]
  000c6	8b 4c 24 40	 mov	 ecx, DWORD PTR len$[rsp]
  000ca	ff 15 00 00 00
	00		 call	 QWORD PTR __imp_idx_snprintf
  000d0	8b 4c 24 40	 mov	 ecx, DWORD PTR len$[rsp]
  000d4	03 c8		 add	 ecx, eax
  000d6	8b c1		 mov	 eax, ecx
  000d8	89 44 24 40	 mov	 DWORD PTR len$[rsp], eax
$LN8@display_re:

; 1581 :             }
; 1582 :             len += idx_snprintf( len, buf, buflen, "%s", msghdr );

  000dc	48 63 84 24 88
	00 00 00	 movsxd	 rax, DWORD PTR buflen$[rsp]
  000e4	48 8b 8c 24 90
	00 00 00	 mov	 rcx, QWORD PTR msghdr$[rsp]
  000ec	48 89 4c 24 20	 mov	 QWORD PTR [rsp+32], rcx
  000f1	4c 8d 0d 00 00
	00 00		 lea	 r9, OFFSET FLAT:$SG195015
  000f8	4c 8b c0	 mov	 r8, rax
  000fb	48 8b 94 24 80
	00 00 00	 mov	 rdx, QWORD PTR buf$[rsp]
  00103	8b 4c 24 40	 mov	 ecx, DWORD PTR len$[rsp]
  00107	ff 15 00 00 00
	00		 call	 QWORD PTR __imp_idx_snprintf
  0010d	8b 4c 24 40	 mov	 ecx, DWORD PTR len$[rsp]
  00111	03 c8		 add	 ecx, eax
  00113	8b c1		 mov	 eax, ecx
  00115	89 44 24 40	 mov	 DWORD PTR len$[rsp], eax

; 1583 :             if(numcpus>1)

  00119	83 7c 24 78 01	 cmp	 DWORD PTR numcpus$[rsp], 1
  0011e	7e 60		 jle	 SHORT $LN9@display_re

; 1584 :             {
; 1585 :                 len += idx_snprintf( len, buf, buflen, "%s%02X: ", PTYPSTR(cpuad), cpuad );

  00120	0f b7 44 24 68	 movzx	 eax, WORD PTR cpuad$[rsp]
  00125	89 44 24 4c	 mov	 DWORD PTR tv128[rsp], eax
  00129	0f b7 4c 24 68	 movzx	 ecx, WORD PTR cpuad$[rsp]
  0012e	48 8b 15 00 00
	00 00		 mov	 rdx, QWORD PTR __imp_sysblk
  00135	0f b6 8c 0a 48
	0b 00 00	 movzx	 ecx, BYTE PTR [rdx+rcx+2888]
  0013d	ff 15 00 00 00
	00		 call	 QWORD PTR __imp_ptyp2short
  00143	48 63 8c 24 88
	00 00 00	 movsxd	 rcx, DWORD PTR buflen$[rsp]
  0014b	8b 54 24 4c	 mov	 edx, DWORD PTR tv128[rsp]
  0014f	89 54 24 28	 mov	 DWORD PTR [rsp+40], edx
  00153	48 89 44 24 20	 mov	 QWORD PTR [rsp+32], rax
  00158	4c 8d 0d 00 00
	00 00		 lea	 r9, OFFSET FLAT:$SG195017
  0015f	4c 8b c1	 mov	 r8, rcx
  00162	48 8b 94 24 80
	00 00 00	 mov	 rdx, QWORD PTR buf$[rsp]
  0016a	8b 4c 24 40	 mov	 ecx, DWORD PTR len$[rsp]
  0016e	ff 15 00 00 00
	00		 call	 QWORD PTR __imp_idx_snprintf
  00174	8b 4c 24 40	 mov	 ecx, DWORD PTR len$[rsp]
  00178	03 c8		 add	 ecx, eax
  0017a	8b c1		 mov	 eax, ecx
  0017c	89 44 24 40	 mov	 DWORD PTR len$[rsp], eax
$LN9@display_re:
$LN7@display_re:

; 1586 :             }
; 1587 :         }
; 1588 :         if(i%rpl)

  00180	8b 44 24 44	 mov	 eax, DWORD PTR i$[rsp]
  00184	99		 cdq
  00185	f7 7c 24 48	 idiv	 DWORD PTR rpl$[rsp]
  00189	8b c2		 mov	 eax, edx
  0018b	85 c0		 test	 eax, eax
  0018d	74 3c		 je	 SHORT $LN10@display_re

; 1589 :         {
; 1590 :             len += idx_snprintf( len, buf, buflen, "%s", " " );

  0018f	48 63 84 24 88
	00 00 00	 movsxd	 rax, DWORD PTR buflen$[rsp]
  00197	48 8d 0d 00 00
	00 00		 lea	 rcx, OFFSET FLAT:$SG195019
  0019e	48 89 4c 24 20	 mov	 QWORD PTR [rsp+32], rcx
  001a3	4c 8d 0d 00 00
	00 00		 lea	 r9, OFFSET FLAT:$SG195020
  001aa	4c 8b c0	 mov	 r8, rax
  001ad	48 8b 94 24 80
	00 00 00	 mov	 rdx, QWORD PTR buf$[rsp]
  001b5	8b 4c 24 40	 mov	 ecx, DWORD PTR len$[rsp]
  001b9	ff 15 00 00 00
	00		 call	 QWORD PTR __imp_idx_snprintf
  001bf	8b 4c 24 40	 mov	 ecx, DWORD PTR len$[rsp]
  001c3	03 c8		 add	 ecx, eax
  001c5	8b c1		 mov	 eax, ecx
  001c7	89 44 24 40	 mov	 DWORD PTR len$[rsp], eax
$LN10@display_re:

; 1591 :         }
; 1592 :         len += idx_snprintf( len, buf, buflen, "%s%1.1X=%16.16"PRIX64, hdr, i, r[i] );

  001cb	48 63 44 24 44	 movsxd	 rax, DWORD PTR i$[rsp]
  001d0	48 63 8c 24 88
	00 00 00	 movsxd	 rcx, DWORD PTR buflen$[rsp]
  001d8	48 8b 54 24 70	 mov	 rdx, QWORD PTR r$[rsp]
  001dd	48 8b 04 c2	 mov	 rax, QWORD PTR [rdx+rax*8]
  001e1	48 89 44 24 30	 mov	 QWORD PTR [rsp+48], rax
  001e6	8b 44 24 44	 mov	 eax, DWORD PTR i$[rsp]
  001ea	89 44 24 28	 mov	 DWORD PTR [rsp+40], eax
  001ee	48 8b 44 24 60	 mov	 rax, QWORD PTR hdr$[rsp]
  001f3	48 89 44 24 20	 mov	 QWORD PTR [rsp+32], rax
  001f8	4c 8d 0d 00 00
	00 00		 lea	 r9, OFFSET FLAT:$SG195021
  001ff	4c 8b c1	 mov	 r8, rcx
  00202	48 8b 94 24 80
	00 00 00	 mov	 rdx, QWORD PTR buf$[rsp]
  0020a	8b 4c 24 40	 mov	 ecx, DWORD PTR len$[rsp]
  0020e	ff 15 00 00 00
	00		 call	 QWORD PTR __imp_idx_snprintf
  00214	8b 4c 24 40	 mov	 ecx, DWORD PTR len$[rsp]
  00218	03 c8		 add	 ecx, eax
  0021a	8b c1		 mov	 eax, ecx
  0021c	89 44 24 40	 mov	 DWORD PTR len$[rsp], eax

; 1593 :     }

  00220	e9 4c fe ff ff	 jmp	 $LN2@display_re
$LN3@display_re:

; 1594 :     len += idx_snprintf( len, buf, buflen, "%s", "\n" );

  00225	48 63 84 24 88
	00 00 00	 movsxd	 rax, DWORD PTR buflen$[rsp]
  0022d	48 8d 0d 00 00
	00 00		 lea	 rcx, OFFSET FLAT:$SG195022
  00234	48 89 4c 24 20	 mov	 QWORD PTR [rsp+32], rcx
  00239	4c 8d 0d 00 00
	00 00		 lea	 r9, OFFSET FLAT:$SG195023
  00240	4c 8b c0	 mov	 r8, rax
  00243	48 8b 94 24 80
	00 00 00	 mov	 rdx, QWORD PTR buf$[rsp]
  0024b	8b 4c 24 40	 mov	 ecx, DWORD PTR len$[rsp]
  0024f	ff 15 00 00 00
	00		 call	 QWORD PTR __imp_idx_snprintf
  00255	8b 4c 24 40	 mov	 ecx, DWORD PTR len$[rsp]
  00259	03 c8		 add	 ecx, eax
  0025b	8b c1		 mov	 eax, ecx
  0025d	89 44 24 40	 mov	 DWORD PTR len$[rsp], eax

; 1595 :     return(len);

  00261	8b 44 24 40	 mov	 eax, DWORD PTR len$[rsp]

; 1596 : }

  00265	48 83 c4 58	 add	 rsp, 88			; 00000058H
  00269	c3		 ret	 0
display_regs64 ENDP
_TEXT	ENDS
; Function compile flags: /Odtp
; File C:\papa\MyGit\hyperion-zvector\hscmisc.c
_TEXT	SEGMENT
len$ = 64
i$ = 68
tv87 = 72
hdr$ = 96
cpuad$ = 104
r$ = 112
numcpus$ = 120
buf$ = 128
buflen$ = 136
msghdr$ = 144
display_regs32 PROC

; 1532 : {

  00000	44 89 4c 24 20	 mov	 DWORD PTR [rsp+32], r9d
  00005	4c 89 44 24 18	 mov	 QWORD PTR [rsp+24], r8
  0000a	66 89 54 24 10	 mov	 WORD PTR [rsp+16], dx
  0000f	48 89 4c 24 08	 mov	 QWORD PTR [rsp+8], rcx
  00014	48 83 ec 58	 sub	 rsp, 88			; 00000058H

; 1533 :     int i;
; 1534 :     int len=0;

  00018	c7 44 24 40 00
	00 00 00	 mov	 DWORD PTR len$[rsp], 0

; 1535 :     for(i=0;i<16;i++)

  00020	c7 44 24 44 00
	00 00 00	 mov	 DWORD PTR i$[rsp], 0
  00028	eb 0a		 jmp	 SHORT $LN4@display_re
$LN2@display_re:
  0002a	8b 44 24 44	 mov	 eax, DWORD PTR i$[rsp]
  0002e	ff c0		 inc	 eax
  00030	89 44 24 44	 mov	 DWORD PTR i$[rsp], eax
$LN4@display_re:
  00034	83 7c 24 44 10	 cmp	 DWORD PTR i$[rsp], 16
  00039	0f 8d a5 01 00
	00		 jge	 $LN3@display_re

; 1536 :     {
; 1537 :         if(!(i%4))

  0003f	8b 44 24 44	 mov	 eax, DWORD PTR i$[rsp]
  00043	99		 cdq
  00044	83 e2 03	 and	 edx, 3
  00047	03 c2		 add	 eax, edx
  00049	83 e0 03	 and	 eax, 3
  0004c	2b c2		 sub	 eax, edx
  0004e	85 c0		 test	 eax, eax
  00050	0f 85 e7 00 00
	00		 jne	 $LN5@display_re

; 1538 :         {
; 1539 :             if(i)

  00056	83 7c 24 44 00	 cmp	 DWORD PTR i$[rsp], 0
  0005b	74 3c		 je	 SHORT $LN6@display_re

; 1540 :             {
; 1541 :                 len += idx_snprintf( len, buf, buflen, "%s", "\n" );

  0005d	48 63 84 24 88
	00 00 00	 movsxd	 rax, DWORD PTR buflen$[rsp]
  00065	48 8d 0d 00 00
	00 00		 lea	 rcx, OFFSET FLAT:$SG194976
  0006c	48 89 4c 24 20	 mov	 QWORD PTR [rsp+32], rcx
  00071	4c 8d 0d 00 00
	00 00		 lea	 r9, OFFSET FLAT:$SG194977
  00078	4c 8b c0	 mov	 r8, rax
  0007b	48 8b 94 24 80
	00 00 00	 mov	 rdx, QWORD PTR buf$[rsp]
  00083	8b 4c 24 40	 mov	 ecx, DWORD PTR len$[rsp]
  00087	ff 15 00 00 00
	00		 call	 QWORD PTR __imp_idx_snprintf
  0008d	8b 4c 24 40	 mov	 ecx, DWORD PTR len$[rsp]
  00091	03 c8		 add	 ecx, eax
  00093	8b c1		 mov	 eax, ecx
  00095	89 44 24 40	 mov	 DWORD PTR len$[rsp], eax
$LN6@display_re:

; 1542 :             }
; 1543 :             len += idx_snprintf( len, buf, buflen, "%s", msghdr );

  00099	48 63 84 24 88
	00 00 00	 movsxd	 rax, DWORD PTR buflen$[rsp]
  000a1	48 8b 8c 24 90
	00 00 00	 mov	 rcx, QWORD PTR msghdr$[rsp]
  000a9	48 89 4c 24 20	 mov	 QWORD PTR [rsp+32], rcx
  000ae	4c 8d 0d 00 00
	00 00		 lea	 r9, OFFSET FLAT:$SG194978
  000b5	4c 8b c0	 mov	 r8, rax
  000b8	48 8b 94 24 80
	00 00 00	 mov	 rdx, QWORD PTR buf$[rsp]
  000c0	8b 4c 24 40	 mov	 ecx, DWORD PTR len$[rsp]
  000c4	ff 15 00 00 00
	00		 call	 QWORD PTR __imp_idx_snprintf
  000ca	8b 4c 24 40	 mov	 ecx, DWORD PTR len$[rsp]
  000ce	03 c8		 add	 ecx, eax
  000d0	8b c1		 mov	 eax, ecx
  000d2	89 44 24 40	 mov	 DWORD PTR len$[rsp], eax

; 1544 :             if(numcpus>1)

  000d6	83 7c 24 78 01	 cmp	 DWORD PTR numcpus$[rsp], 1
  000db	7e 60		 jle	 SHORT $LN7@display_re

; 1545 :             {
; 1546 :                 len += idx_snprintf( len, buf, buflen, "%s%02X: ", PTYPSTR(cpuad), cpuad );

  000dd	0f b7 44 24 68	 movzx	 eax, WORD PTR cpuad$[rsp]
  000e2	89 44 24 48	 mov	 DWORD PTR tv87[rsp], eax
  000e6	0f b7 4c 24 68	 movzx	 ecx, WORD PTR cpuad$[rsp]
  000eb	48 8b 15 00 00
	00 00		 mov	 rdx, QWORD PTR __imp_sysblk
  000f2	0f b6 8c 0a 48
	0b 00 00	 movzx	 ecx, BYTE PTR [rdx+rcx+2888]
  000fa	ff 15 00 00 00
	00		 call	 QWORD PTR __imp_ptyp2short
  00100	48 63 8c 24 88
	00 00 00	 movsxd	 rcx, DWORD PTR buflen$[rsp]
  00108	8b 54 24 48	 mov	 edx, DWORD PTR tv87[rsp]
  0010c	89 54 24 28	 mov	 DWORD PTR [rsp+40], edx
  00110	48 89 44 24 20	 mov	 QWORD PTR [rsp+32], rax
  00115	4c 8d 0d 00 00
	00 00		 lea	 r9, OFFSET FLAT:$SG194980
  0011c	4c 8b c1	 mov	 r8, rcx
  0011f	48 8b 94 24 80
	00 00 00	 mov	 rdx, QWORD PTR buf$[rsp]
  00127	8b 4c 24 40	 mov	 ecx, DWORD PTR len$[rsp]
  0012b	ff 15 00 00 00
	00		 call	 QWORD PTR __imp_idx_snprintf
  00131	8b 4c 24 40	 mov	 ecx, DWORD PTR len$[rsp]
  00135	03 c8		 add	 ecx, eax
  00137	8b c1		 mov	 eax, ecx
  00139	89 44 24 40	 mov	 DWORD PTR len$[rsp], eax
$LN7@display_re:
$LN5@display_re:

; 1547 :             }
; 1548 :         }
; 1549 :         if(i%4)

  0013d	8b 44 24 44	 mov	 eax, DWORD PTR i$[rsp]
  00141	99		 cdq
  00142	83 e2 03	 and	 edx, 3
  00145	03 c2		 add	 eax, edx
  00147	83 e0 03	 and	 eax, 3
  0014a	2b c2		 sub	 eax, edx
  0014c	85 c0		 test	 eax, eax
  0014e	74 3c		 je	 SHORT $LN8@display_re

; 1550 :         {
; 1551 :             len += idx_snprintf( len, buf, buflen, "%s", " ");

  00150	48 63 84 24 88
	00 00 00	 movsxd	 rax, DWORD PTR buflen$[rsp]
  00158	48 8d 0d 00 00
	00 00		 lea	 rcx, OFFSET FLAT:$SG194982
  0015f	48 89 4c 24 20	 mov	 QWORD PTR [rsp+32], rcx
  00164	4c 8d 0d 00 00
	00 00		 lea	 r9, OFFSET FLAT:$SG194983
  0016b	4c 8b c0	 mov	 r8, rax
  0016e	48 8b 94 24 80
	00 00 00	 mov	 rdx, QWORD PTR buf$[rsp]
  00176	8b 4c 24 40	 mov	 ecx, DWORD PTR len$[rsp]
  0017a	ff 15 00 00 00
	00		 call	 QWORD PTR __imp_idx_snprintf
  00180	8b 4c 24 40	 mov	 ecx, DWORD PTR len$[rsp]
  00184	03 c8		 add	 ecx, eax
  00186	8b c1		 mov	 eax, ecx
  00188	89 44 24 40	 mov	 DWORD PTR len$[rsp], eax
$LN8@display_re:

; 1552 :         }
; 1553 :         len += idx_snprintf( len, buf, buflen, "%s%2.2d=%8.8"PRIX32, hdr, i, r[i] );

  0018c	48 63 44 24 44	 movsxd	 rax, DWORD PTR i$[rsp]
  00191	48 63 8c 24 88
	00 00 00	 movsxd	 rcx, DWORD PTR buflen$[rsp]
  00199	48 8b 54 24 70	 mov	 rdx, QWORD PTR r$[rsp]
  0019e	8b 04 82	 mov	 eax, DWORD PTR [rdx+rax*4]
  001a1	89 44 24 30	 mov	 DWORD PTR [rsp+48], eax
  001a5	8b 44 24 44	 mov	 eax, DWORD PTR i$[rsp]
  001a9	89 44 24 28	 mov	 DWORD PTR [rsp+40], eax
  001ad	48 8b 44 24 60	 mov	 rax, QWORD PTR hdr$[rsp]
  001b2	48 89 44 24 20	 mov	 QWORD PTR [rsp+32], rax
  001b7	4c 8d 0d 00 00
	00 00		 lea	 r9, OFFSET FLAT:$SG194984
  001be	4c 8b c1	 mov	 r8, rcx
  001c1	48 8b 94 24 80
	00 00 00	 mov	 rdx, QWORD PTR buf$[rsp]
  001c9	8b 4c 24 40	 mov	 ecx, DWORD PTR len$[rsp]
  001cd	ff 15 00 00 00
	00		 call	 QWORD PTR __imp_idx_snprintf
  001d3	8b 4c 24 40	 mov	 ecx, DWORD PTR len$[rsp]
  001d7	03 c8		 add	 ecx, eax
  001d9	8b c1		 mov	 eax, ecx
  001db	89 44 24 40	 mov	 DWORD PTR len$[rsp], eax

; 1554 :     }

  001df	e9 46 fe ff ff	 jmp	 $LN2@display_re
$LN3@display_re:

; 1555 :     len += idx_snprintf( len, buf, buflen, "%s", "\n" );

  001e4	48 63 84 24 88
	00 00 00	 movsxd	 rax, DWORD PTR buflen$[rsp]
  001ec	48 8d 0d 00 00
	00 00		 lea	 rcx, OFFSET FLAT:$SG194985
  001f3	48 89 4c 24 20	 mov	 QWORD PTR [rsp+32], rcx
  001f8	4c 8d 0d 00 00
	00 00		 lea	 r9, OFFSET FLAT:$SG194986
  001ff	4c 8b c0	 mov	 r8, rax
  00202	48 8b 94 24 80
	00 00 00	 mov	 rdx, QWORD PTR buf$[rsp]
  0020a	8b 4c 24 40	 mov	 ecx, DWORD PTR len$[rsp]
  0020e	ff 15 00 00 00
	00		 call	 QWORD PTR __imp_idx_snprintf
  00214	8b 4c 24 40	 mov	 ecx, DWORD PTR len$[rsp]
  00218	03 c8		 add	 ecx, eax
  0021a	8b c1		 mov	 eax, ecx
  0021c	89 44 24 40	 mov	 DWORD PTR len$[rsp], eax

; 1556 :     return(len);

  00220	8b 44 24 40	 mov	 eax, DWORD PTR len$[rsp]

; 1557 : }

  00224	48 83 c4 58	 add	 rsp, 88			; 00000058H
  00228	c3		 ret	 0
display_regs32 ENDP
_TEXT	ENDS
; Function compile flags: /Odtp
; File C:\papa\MyGit\hyperion-zvector\hscmisc.c
_TEXT	SEGMENT
arg$ = 80
do_shutdown_wait PROC

; 1444 : {

  00000	48 89 4c 24 08	 mov	 QWORD PTR [rsp+8], rcx
  00005	48 83 ec 48	 sub	 rsp, 72			; 00000048H
$LN4@do_shutdow:

; 1445 :     UNREFERENCED( arg );

  00009	33 c0		 xor	 eax, eax
  0000b	85 c0		 test	 eax, eax
  0000d	75 fa		 jne	 SHORT $LN4@do_shutdow

; 1446 :     // "Shutdown initiated"
; 1447 :     WRMSG( HHC01426, "I" );

  0000f	b9 01 00 00 00	 mov	 ecx, 1
  00014	ff 15 00 00 00
	00		 call	 QWORD PTR __imp___acrt_iob_func
  0001a	48 8d 0d 00 00
	00 00		 lea	 rcx, OFFSET FLAT:$SG194938
  00021	48 89 4c 24 30	 mov	 QWORD PTR [rsp+48], rcx
  00026	48 8d 0d 00 00
	00 00		 lea	 rcx, OFFSET FLAT:$SG194939
  0002d	48 89 4c 24 28	 mov	 QWORD PTR [rsp+40], rcx
  00032	48 89 44 24 20	 mov	 QWORD PTR [rsp+32], rax
  00037	41 b9 03 00 00
	00		 mov	 r9d, 3
  0003d	4c 8d 05 00 00
	00 00		 lea	 r8, OFFSET FLAT:$SG194940
  00044	ba a7 05 00 00	 mov	 edx, 1447		; 000005a7H
  00049	48 8d 0d 00 00
	00 00		 lea	 rcx, OFFSET FLAT:$SG194941
  00050	ff 15 00 00 00
	00		 call	 QWORD PTR __imp_fwritemsg

; 1448 :     wait_for_guest_to_quiesce();

  00056	e8 00 00 00 00	 call	 wait_for_guest_to_quiesce

; 1449 :     do_shutdown_now();

  0005b	e8 00 00 00 00	 call	 do_shutdown_now

; 1450 :     return NULL;

  00060	33 c0		 xor	 eax, eax

; 1451 : }

  00062	48 83 c4 48	 add	 rsp, 72			; 00000048H
  00066	c3		 ret	 0
do_shutdown_wait ENDP
_TEXT	ENDS
; Function compile flags: /Odtp
; File C:\papa\MyGit\hyperion-zvector\hscmisc.c
_TEXT	SEGMENT
n$1 = 64
do_shutdown_now PROC

; 1352 : {

  00000	48 83 ec 58	 sub	 rsp, 88			; 00000058H

; 1353 :     // "Begin Hercules shutdown"
; 1354 :     WRMSG( HHC01420, "I" );

  00004	b9 01 00 00 00	 mov	 ecx, 1
  00009	ff 15 00 00 00
	00		 call	 QWORD PTR __imp___acrt_iob_func
  0000f	48 8d 0d 00 00
	00 00		 lea	 rcx, OFFSET FLAT:$SG194905
  00016	48 89 4c 24 30	 mov	 QWORD PTR [rsp+48], rcx
  0001b	48 8d 0d 00 00
	00 00		 lea	 rcx, OFFSET FLAT:$SG194906
  00022	48 89 4c 24 28	 mov	 QWORD PTR [rsp+40], rcx
  00027	48 89 44 24 20	 mov	 QWORD PTR [rsp+32], rax
  0002c	41 b9 03 00 00
	00		 mov	 r9d, 3
  00032	4c 8d 05 00 00
	00 00		 lea	 r8, OFFSET FLAT:$SG194907
  00039	ba 4a 05 00 00	 mov	 edx, 1354		; 0000054aH
  0003e	48 8d 0d 00 00
	00 00		 lea	 rcx, OFFSET FLAT:$SG194908
  00045	ff 15 00 00 00
	00		 call	 QWORD PTR __imp_fwritemsg

; 1355 : 
; 1356 :     // (hack to prevent minor message glitch during shutdown)
; 1357 :     fflush( stdout );

  0004b	b9 01 00 00 00	 mov	 ecx, 1
  00050	ff 15 00 00 00
	00		 call	 QWORD PTR __imp___acrt_iob_func
  00056	48 8b c8	 mov	 rcx, rax
  00059	ff 15 00 00 00
	00		 call	 QWORD PTR __imp_fflush

; 1358 :     fflush( stderr );

  0005f	b9 02 00 00 00	 mov	 ecx, 2
  00064	ff 15 00 00 00
	00		 call	 QWORD PTR __imp___acrt_iob_func
  0006a	48 8b c8	 mov	 rcx, rax
  0006d	ff 15 00 00 00
	00		 call	 QWORD PTR __imp_fflush

; 1359 :     usleep( 10000 );

  00073	b9 10 27 00 00	 mov	 ecx, 10000		; 00002710H
  00078	ff 15 00 00 00
	00		 call	 QWORD PTR __imp_usleep
$LN4@do_shutdow:

; 1360 : 
; 1361 :     ASSERT( !sysblk.shutfini );   // (sanity check)

  0007e	48 8b 05 00 00
	00 00		 mov	 rax, QWORD PTR __imp_sysblk
  00085	8b 80 94 12 00
	00		 mov	 eax, DWORD PTR [rax+4756]
  0008b	c1 e8 0c	 shr	 eax, 12
  0008e	83 e0 01	 and	 eax, 1
  00091	85 c0		 test	 eax, eax
  00093	74 5c		 je	 SHORT $LN11@do_shutdow
$LN7@do_shutdow:
  00095	4c 8d 0d 00 00
	00 00		 lea	 r9, OFFSET FLAT:$SG194910
  0009c	41 b8 51 05 00
	00		 mov	 r8d, 1361		; 00000551H
  000a2	48 8d 15 00 00
	00 00		 lea	 rdx, OFFSET FLAT:$SG194911
  000a9	48 8d 0d 00 00
	00 00		 lea	 rcx, OFFSET FLAT:$SG194912
  000b0	ff 15 00 00 00
	00		 call	 QWORD PTR __imp_logmsg
  000b6	ff 15 00 00 00
	00		 call	 QWORD PTR __imp_IsDebuggerPresent
  000bc	85 c0		 test	 eax, eax
  000be	74 20		 je	 SHORT $LN12@do_shutdow
  000c0	4c 8d 0d 00 00
	00 00		 lea	 r9, OFFSET FLAT:$SG194914
  000c7	41 b8 51 05 00
	00		 mov	 r8d, 1361		; 00000551H
  000cd	48 8d 15 00 00
	00 00		 lea	 rdx, OFFSET FLAT:$SG194915
  000d4	48 8d 0d 00 00
	00 00		 lea	 rcx, OFFSET FLAT:$SG194916
  000db	e8 00 00 00 00	 call	 DebuggerTrace
$LN12@do_shutdow:
  000e0	33 c0		 xor	 eax, eax
  000e2	85 c0		 test	 eax, eax
  000e4	75 af		 jne	 SHORT $LN7@do_shutdow
  000e6	ff 15 00 00 00
	00		 call	 QWORD PTR __imp_IsDebuggerPresent
  000ec	85 c0		 test	 eax, eax
  000ee	74 01		 je	 SHORT $LN13@do_shutdow
  000f0	cc		 int	 3
$LN13@do_shutdow:
$LN11@do_shutdow:
  000f1	33 c0		 xor	 eax, eax
  000f3	85 c0		 test	 eax, eax
  000f5	75 87		 jne	 SHORT $LN4@do_shutdow

; 1362 :     sysblk.shutfini = FALSE;      // (shutdown NOT finished yet)

  000f7	48 8b 05 00 00
	00 00		 mov	 rax, QWORD PTR __imp_sysblk
  000fe	8b 80 94 12 00
	00		 mov	 eax, DWORD PTR [rax+4756]
  00104	0f ba f0 0c	 btr	 eax, 12
  00108	48 8b 0d 00 00
	00 00		 mov	 rcx, QWORD PTR __imp_sysblk
  0010f	89 81 94 12 00
	00		 mov	 DWORD PTR [rcx+4756], eax

; 1363 :     sysblk.shutdown = TRUE;       // (system shutdown initiated)

  00115	48 8b 05 00 00
	00 00		 mov	 rax, QWORD PTR __imp_sysblk
  0011c	8b 80 94 12 00
	00		 mov	 eax, DWORD PTR [rax+4756]
  00122	0f ba e8 0b	 bts	 eax, 11
  00126	48 8b 0d 00 00
	00 00		 mov	 rcx, QWORD PTR __imp_sysblk
  0012d	89 81 94 12 00
	00		 mov	 DWORD PTR [rcx+4756], eax

; 1364 : 
; 1365 :     /* Wakeup I/O subsystem to start I/O subsystem shutdown */
; 1366 :     {
; 1367 :         int  n;
; 1368 :         for (n=0; sysblk.devtnbr && n < 100; ++n)

  00133	c7 44 24 40 00
	00 00 00	 mov	 DWORD PTR n$1[rsp], 0
  0013b	eb 0a		 jmp	 SHORT $LN10@do_shutdow
$LN8@do_shutdow:
  0013d	8b 44 24 40	 mov	 eax, DWORD PTR n$1[rsp]
  00141	ff c0		 inc	 eax
  00143	89 44 24 40	 mov	 DWORD PTR n$1[rsp], eax
$LN10@do_shutdow:
  00147	48 8b 05 00 00
	00 00		 mov	 rax, QWORD PTR __imp_sysblk
  0014e	83 b8 4c 12 00
	00 00		 cmp	 DWORD PTR [rax+4684], 0
  00155	74 31		 je	 SHORT $LN9@do_shutdow
  00157	83 7c 24 40 64	 cmp	 DWORD PTR n$1[rsp], 100	; 00000064H
  0015c	7d 2a		 jge	 SHORT $LN9@do_shutdow

; 1369 :         {
; 1370 :             signal_condition( &sysblk.ioqcond );

  0015e	48 8b 05 00 00
	00 00		 mov	 rax, QWORD PTR __imp_sysblk
  00165	48 05 40 12 00
	00		 add	 rax, 4672		; 00001240H
  0016b	48 8d 15 00 00
	00 00		 lea	 rdx, OFFSET FLAT:$SG194918
  00172	48 8b c8	 mov	 rcx, rax
  00175	ff 15 00 00 00
	00		 call	 QWORD PTR __imp_hthread_signal_condition

; 1371 :             usleep( 10000 );

  0017b	b9 10 27 00 00	 mov	 ecx, 10000		; 00002710H
  00180	ff 15 00 00 00
	00		 call	 QWORD PTR __imp_usleep

; 1372 :         }

  00186	eb b5		 jmp	 SHORT $LN8@do_shutdow
$LN9@do_shutdow:

; 1373 :     }
; 1374 : 
; 1375 :     // "Calling termination routines"
; 1376 :     WRMSG( HHC01423, "I" );

  00188	b9 01 00 00 00	 mov	 ecx, 1
  0018d	ff 15 00 00 00
	00		 call	 QWORD PTR __imp___acrt_iob_func
  00193	48 8d 0d 00 00
	00 00		 lea	 rcx, OFFSET FLAT:$SG194919
  0019a	48 89 4c 24 30	 mov	 QWORD PTR [rsp+48], rcx
  0019f	48 8d 0d 00 00
	00 00		 lea	 rcx, OFFSET FLAT:$SG194920
  001a6	48 89 4c 24 28	 mov	 QWORD PTR [rsp+40], rcx
  001ab	48 89 44 24 20	 mov	 QWORD PTR [rsp+32], rax
  001b0	41 b9 03 00 00
	00		 mov	 r9d, 3
  001b6	4c 8d 05 00 00
	00 00		 lea	 r8, OFFSET FLAT:$SG194921
  001bd	ba 60 05 00 00	 mov	 edx, 1376		; 00000560H
  001c2	48 8d 0d 00 00
	00 00		 lea	 rcx, OFFSET FLAT:$SG194922
  001c9	ff 15 00 00 00
	00		 call	 QWORD PTR __imp_fwritemsg

; 1377 : 
; 1378 :     // (hack to prevent minor message glitch during shutdown)
; 1379 :     fflush( stdout );

  001cf	b9 01 00 00 00	 mov	 ecx, 1
  001d4	ff 15 00 00 00
	00		 call	 QWORD PTR __imp___acrt_iob_func
  001da	48 8b c8	 mov	 rcx, rax
  001dd	ff 15 00 00 00
	00		 call	 QWORD PTR __imp_fflush

; 1380 :     fflush( stderr );

  001e3	b9 02 00 00 00	 mov	 ecx, 2
  001e8	ff 15 00 00 00
	00		 call	 QWORD PTR __imp___acrt_iob_func
  001ee	48 8b c8	 mov	 rcx, rax
  001f1	ff 15 00 00 00
	00		 call	 QWORD PTR __imp_fflush

; 1381 :     usleep( 10000 );

  001f7	b9 10 27 00 00	 mov	 ecx, 10000		; 00002710H
  001fc	ff 15 00 00 00
	00		 call	 QWORD PTR __imp_usleep

; 1382 : 
; 1383 : #if !defined( _MSVC_ )
; 1384 :     logger_unredirect();
; 1385 : #endif
; 1386 : 
; 1387 :     hdl_atexit();

  00202	ff 15 00 00 00
	00		 call	 QWORD PTR __imp_hdl_atexit

; 1388 : 
; 1389 :     // "All termination routines complete"
; 1390 :     fprintf( stdout, MSG( HHC01424, "I" ));

  00208	b9 01 00 00 00	 mov	 ecx, 1
  0020d	ff 15 00 00 00
	00		 call	 QWORD PTR __imp___acrt_iob_func
  00213	4c 8d 05 00 00
	00 00		 lea	 r8, OFFSET FLAT:$SG194923
  0021a	48 8d 15 00 00
	00 00		 lea	 rdx, OFFSET FLAT:$SG194924
  00221	48 8b c8	 mov	 rcx, rax
  00224	ff 15 00 00 00
	00		 call	 QWORD PTR __imp_w32_fprintf

; 1391 : 
; 1392 :     /*
; 1393 :     logmsg("Terminating threads\n");
; 1394 :     {
; 1395 :         // (none we really care about at the moment...)
; 1396 :     }
; 1397 :     logmsg("Threads terminations complete\n");
; 1398 :     */
; 1399 : 
; 1400 :     // "Hercules shutdown complete"
; 1401 :     fprintf( stdout, MSG( HHC01425, "I" ));

  0022a	b9 01 00 00 00	 mov	 ecx, 1
  0022f	ff 15 00 00 00
	00		 call	 QWORD PTR __imp___acrt_iob_func
  00235	4c 8d 05 00 00
	00 00		 lea	 r8, OFFSET FLAT:$SG194925
  0023c	48 8d 15 00 00
	00 00		 lea	 rdx, OFFSET FLAT:$SG194926
  00243	48 8b c8	 mov	 rcx, rax
  00246	ff 15 00 00 00
	00		 call	 QWORD PTR __imp_w32_fprintf

; 1402 : 
; 1403 :     sysblk.shutfini = TRUE;    // (shutdown is now complete)

  0024c	48 8b 05 00 00
	00 00		 mov	 rax, QWORD PTR __imp_sysblk
  00253	8b 80 94 12 00
	00		 mov	 eax, DWORD PTR [rax+4756]
  00259	0f ba e8 0c	 bts	 eax, 12
  0025d	48 8b 0d 00 00
	00 00		 mov	 rcx, QWORD PTR __imp_sysblk
  00264	89 81 94 12 00
	00		 mov	 DWORD PTR [rcx+4756], eax

; 1404 : 
; 1405 :     // "Hercules terminated"
; 1406 :     fprintf( stdout, MSG( HHC01412, "I" ));

  0026a	b9 01 00 00 00	 mov	 ecx, 1
  0026f	ff 15 00 00 00
	00		 call	 QWORD PTR __imp___acrt_iob_func
  00275	4c 8d 05 00 00
	00 00		 lea	 r8, OFFSET FLAT:$SG194927
  0027c	48 8d 15 00 00
	00 00		 lea	 rdx, OFFSET FLAT:$SG194928
  00283	48 8b c8	 mov	 rcx, rax
  00286	ff 15 00 00 00
	00		 call	 QWORD PTR __imp_w32_fprintf

; 1407 : 
; 1408 :     //                     PROGRAMMING NOTE
; 1409 : 
; 1410 :     // If we're NOT in "daemon_mode" (i.e. panel_display in control),
; 1411 :     // -OR- if a daemon_task DOES exist, then THEY are in control of
; 1412 :     // shutdown; THEY are responsible for exiting the system whenever
; 1413 :     // THEY feel it's proper to do so (by simply returning back to the
; 1414 :     // caller thereby allowing 'main' to return back to the operating
; 1415 :     // system).
; 1416 : 
; 1417 :     // OTHEWRWISE we ARE in "daemon_mode", but a daemon_task does NOT
; 1418 :     // exist, which means the main thread (tail end of 'impl.c') is
; 1419 :     // stuck in a loop reading log messages and writing them to the
; 1420 :     // logfile, so we need to do the exiting here since it obviously
; 1421 :     // cannot.
; 1422 : 
; 1423 :     if (sysblk.daemon_mode && !daemon_task)

  0028c	48 8b 05 00 00
	00 00		 mov	 rax, QWORD PTR __imp_sysblk
  00293	8b 80 94 12 00
	00		 mov	 eax, DWORD PTR [rax+4756]
  00299	c1 e8 02	 shr	 eax, 2
  0029c	83 e0 01	 and	 eax, 1
  0029f	85 c0		 test	 eax, eax
  002a1	74 2f		 je	 SHORT $LN14@do_shutdow
  002a3	48 8b 05 00 00
	00 00		 mov	 rax, QWORD PTR __imp_daemon_task
  002aa	48 83 38 00	 cmp	 QWORD PTR [rax], 0
  002ae	75 22		 jne	 SHORT $LN14@do_shutdow

; 1424 :     {
; 1425 : #ifdef _MSVC_
; 1426 :         socket_deinit();

  002b0	ff 15 00 00 00
	00		 call	 QWORD PTR __imp_socket_deinit

; 1427 : #endif
; 1428 :         fflush( stdout );

  002b6	b9 01 00 00 00	 mov	 ecx, 1
  002bb	ff 15 00 00 00
	00		 call	 QWORD PTR __imp___acrt_iob_func
  002c1	48 8b c8	 mov	 rcx, rax
  002c4	ff 15 00 00 00
	00		 call	 QWORD PTR __imp_fflush

; 1429 :         exit(0);

  002ca	33 c9		 xor	 ecx, ecx
  002cc	ff 15 00 00 00
	00		 call	 QWORD PTR __imp_exit
$LN14@do_shutdow:
$LN15@do_shutdow:

; 1430 :     }
; 1431 : }

  002d2	48 83 c4 58	 add	 rsp, 88			; 00000058H
  002d6	c3		 ret	 0
do_shutdown_now ENDP
_TEXT	ENDS
; Function compile flags: /Odtp
; File C:\papa\MyGit\hyperion-zvector\hscmisc.c
_TEXT	SEGMENT
cancel_wait_for_guest_quiesce PROC

; 1290 : {

  00000	48 83 ec 28	 sub	 rsp, 40			; 00000028H

; 1291 :     OBTAIN_INTLOCK( NULL );

  00004	48 8d 15 00 00
	00 00		 lea	 rdx, OFFSET FLAT:$SG194891
  0000b	33 c9		 xor	 ecx, ecx
  0000d	e8 00 00 00 00	 call	 Obtain_Interrupt_Lock

; 1292 :     {
; 1293 :         /* Purposely LIE by setting the flag indicating the guest has
; 1294 :            finished quiescing (regardless of whether it actually has
; 1295 :            or not!) so as to cause the above "wait_for_guest_to_quiesce"
; 1296 :            function to break out of its wait loop and return.
; 1297 :         */
; 1298 :         wait_for_quiesce_cancelled = true;  // (if anyone's interested)

  00012	c6 05 00 00 00
	00 01		 mov	 BYTE PTR wait_for_quiesce_cancelled, 1

; 1299 :         guest_is_quiesced = true;           // PURPOSELY LIE! (maybe)

  00019	c6 05 00 00 00
	00 01		 mov	 BYTE PTR guest_is_quiesced, 1

; 1300 :     }
; 1301 :     RELEASE_INTLOCK( NULL );

  00020	48 8d 15 00 00
	00 00		 lea	 rdx, OFFSET FLAT:$SG194892
  00027	33 c9		 xor	 ecx, ecx
  00029	e8 00 00 00 00	 call	 Release_Interrupt_Lock

; 1302 : }

  0002e	48 83 c4 28	 add	 rsp, 40			; 00000028H
  00032	c3		 ret	 0
cancel_wait_for_guest_quiesce ENDP
_TEXT	ENDS
; Function compile flags: /Odtp
; File C:\papa\MyGit\hyperion-zvector\hscmisc.c
_TEXT	SEGMENT
keep_waiting$ = 32
i$ = 36
rc$1 = 40
tv86 = 44
wait_for_guest_to_quiesce PROC

; 1262 : {

  00000	48 83 ec 38	 sub	 rsp, 56			; 00000038H

; 1263 :     int  i;
; 1264 :     bool keep_waiting = true;

  00004	c6 44 24 20 01	 mov	 BYTE PTR keep_waiting$[rsp], 1

; 1265 : 
; 1266 :     guest_is_quiesced = false;

  00009	c6 05 00 00 00
	00 00		 mov	 BYTE PTR guest_is_quiesced, 0

; 1267 : 
; 1268 :     /* Wait for all CPU's to stop or time has expired */
; 1269 :     for (i=0; keep_waiting && (!sysblk.quitmout || i < sysblk.quitmout); ++i)

  00010	c7 44 24 24 00
	00 00 00	 mov	 DWORD PTR i$[rsp], 0
  00018	eb 0a		 jmp	 SHORT $LN4@wait_for_g
$LN2@wait_for_g:
  0001a	8b 44 24 24	 mov	 eax, DWORD PTR i$[rsp]
  0001e	ff c0		 inc	 eax
  00020	89 44 24 24	 mov	 DWORD PTR i$[rsp], eax
$LN4@wait_for_g:
  00024	0f b6 44 24 20	 movzx	 eax, BYTE PTR keep_waiting$[rsp]
  00029	85 c0		 test	 eax, eax
  0002b	0f 84 c6 00 00
	00		 je	 $LN3@wait_for_g
  00031	48 8b 05 00 00
	00 00		 mov	 rax, QWORD PTR __imp_sysblk
  00038	83 b8 9c 12 00
	00 00		 cmp	 DWORD PTR [rax+4764], 0
  0003f	74 17		 je	 SHORT $LN10@wait_for_g
  00041	48 8b 05 00 00
	00 00		 mov	 rax, QWORD PTR __imp_sysblk
  00048	8b 80 9c 12 00
	00		 mov	 eax, DWORD PTR [rax+4764]
  0004e	39 44 24 24	 cmp	 DWORD PTR i$[rsp], eax
  00052	0f 8d 9f 00 00
	00		 jge	 $LN3@wait_for_g
$LN10@wait_for_g:

; 1270 :     {
; 1271 :         /* If not the first time, wait a bit before checking again */
; 1272 :         if (i != 0 && !is_guest_quiesced())

  00058	83 7c 24 24 00	 cmp	 DWORD PTR i$[rsp], 0
  0005d	74 3b		 je	 SHORT $LN11@wait_for_g
  0005f	e8 00 00 00 00	 call	 is_guest_quiesced
  00064	85 c0		 test	 eax, eax
  00066	75 32		 jne	 SHORT $LN11@wait_for_g
$LN7@wait_for_g:

; 1273 :             SLEEP( 1 );

  00068	c7 44 24 28 01
	00 00 00	 mov	 DWORD PTR rc$1[rsp], 1
$LN8@wait_for_g:
  00070	83 7c 24 28 00	 cmp	 DWORD PTR rc$1[rsp], 0
  00075	74 1d		 je	 SHORT $LN9@wait_for_g
  00077	8b 4c 24 28	 mov	 ecx, DWORD PTR rc$1[rsp]
  0007b	ff 15 00 00 00
	00		 call	 QWORD PTR __imp_sleep
  00081	89 44 24 28	 mov	 DWORD PTR rc$1[rsp], eax
  00085	83 7c 24 28 00	 cmp	 DWORD PTR rc$1[rsp], 0
  0008a	74 06		 je	 SHORT $LN12@wait_for_g
  0008c	ff 15 00 00 00
	00		 call	 QWORD PTR __imp_sched_yield
$LN12@wait_for_g:
  00092	eb dc		 jmp	 SHORT $LN8@wait_for_g
$LN9@wait_for_g:
  00094	33 c0		 xor	 eax, eax
  00096	85 c0		 test	 eax, eax
  00098	75 ce		 jne	 SHORT $LN7@wait_for_g
$LN11@wait_for_g:

; 1274 : 
; 1275 :         /* Check if guest has finally quiesced itself */
; 1276 :         OBTAIN_INTLOCK( NULL );

  0009a	48 8d 15 00 00
	00 00		 lea	 rdx, OFFSET FLAT:$SG194884
  000a1	33 c9		 xor	 ecx, ecx
  000a3	e8 00 00 00 00	 call	 Obtain_Interrupt_Lock

; 1277 :         {
; 1278 :             if (!guest_is_quiesced)

  000a8	0f b6 05 00 00
	00 00		 movzx	 eax, BYTE PTR guest_is_quiesced
  000af	85 c0		 test	 eax, eax
  000b1	75 0b		 jne	 SHORT $LN13@wait_for_g

; 1279 :                  guest_is_quiesced = are_all_cpus_stopped_intlock_held();

  000b3	e8 00 00 00 00	 call	 are_all_cpus_stopped_intlock_held
  000b8	88 05 00 00 00
	00		 mov	 BYTE PTR guest_is_quiesced, al
$LN13@wait_for_g:

; 1280 : 
; 1281 :             keep_waiting = !guest_is_quiesced;

  000be	0f b6 05 00 00
	00 00		 movzx	 eax, BYTE PTR guest_is_quiesced
  000c5	85 c0		 test	 eax, eax
  000c7	75 0a		 jne	 SHORT $LN15@wait_for_g
  000c9	c7 44 24 2c 01
	00 00 00	 mov	 DWORD PTR tv86[rsp], 1
  000d1	eb 08		 jmp	 SHORT $LN16@wait_for_g
$LN15@wait_for_g:
  000d3	c7 44 24 2c 00
	00 00 00	 mov	 DWORD PTR tv86[rsp], 0
$LN16@wait_for_g:
  000db	0f b6 44 24 2c	 movzx	 eax, BYTE PTR tv86[rsp]
  000e0	88 44 24 20	 mov	 BYTE PTR keep_waiting$[rsp], al

; 1282 :         }
; 1283 :         RELEASE_INTLOCK( NULL );

  000e4	48 8d 15 00 00
	00 00		 lea	 rdx, OFFSET FLAT:$SG194886
  000eb	33 c9		 xor	 ecx, ecx
  000ed	e8 00 00 00 00	 call	 Release_Interrupt_Lock

; 1284 :     }

  000f2	e9 23 ff ff ff	 jmp	 $LN2@wait_for_g
$LN3@wait_for_g:

; 1285 : 
; 1286 :     /* Guest has finished quiescing itself or else we lost patience */
; 1287 : }

  000f7	48 83 c4 38	 add	 rsp, 56			; 00000038H
  000fb	c3		 ret	 0
wait_for_guest_to_quiesce ENDP
_TEXT	ENDS
; Function compile flags: /Odtp
; File C:\papa\MyGit\hyperion-zvector\hscmisc.c
_TEXT	SEGMENT
quiesced$ = 32
is_guest_quiesced PROC

; 1249 : {

  00000	48 83 ec 38	 sub	 rsp, 56			; 00000038H

; 1250 :     bool quiesced;
; 1251 : 
; 1252 :     OBTAIN_INTLOCK( NULL );

  00004	48 8d 15 00 00
	00 00		 lea	 rdx, OFFSET FLAT:$SG194864
  0000b	33 c9		 xor	 ecx, ecx
  0000d	e8 00 00 00 00	 call	 Obtain_Interrupt_Lock

; 1253 :     {
; 1254 :         quiesced = guest_is_quiesced;

  00012	0f b6 05 00 00
	00 00		 movzx	 eax, BYTE PTR guest_is_quiesced
  00019	88 44 24 20	 mov	 BYTE PTR quiesced$[rsp], al

; 1255 :     }
; 1256 :     RELEASE_INTLOCK( NULL );

  0001d	48 8d 15 00 00
	00 00		 lea	 rdx, OFFSET FLAT:$SG194865
  00024	33 c9		 xor	 ecx, ecx
  00026	e8 00 00 00 00	 call	 Release_Interrupt_Lock

; 1257 : 
; 1258 :     return quiesced;

  0002b	0f b6 44 24 20	 movzx	 eax, BYTE PTR quiesced$[rsp]

; 1259 : }

  00030	48 83 c4 38	 add	 rsp, 56			; 00000038H
  00034	c3		 ret	 0
is_guest_quiesced ENDP
_TEXT	ENDS
; Function compile flags: /Odtp
; File C:\papa\MyGit\hyperion-zvector\hscmisc.c
_TEXT	SEGMENT
opcode$ = 96
n$ = 100
regs$ = 104
trace2file$ = 112
b1$ = 116
b2$ = 120
addr1$ = 128
ilc$ = 136
xcode$ = 140
addr2$ = 144
relative_long_operand$1 = 152
tv136 = 156
tv138 = 160
tv145 = 164
tv181 = 168
tv232 = 172
tv233 = 176
x1$ = 180
tv887 = 184
ar$2 = 188
tv888 = 192
tv299 = 196
tv925 = 200
tv835 = 204
offset$3 = 208
$T4 = 216
len$5 = 224
$T6 = 232
tv437 = 240
tv438 = 248
$T7 = 256
$T8 = 264
$T9 = 272
len$10 = 280
$T11 = 288
tf2326$ = 304
qword$ = 416
psw_inst_msg$ = 432
op2_stor_msg$ = 592
op1_stor_msg$ = 720
buf2$ = 848
buf$ = 1360
regs_msg_buf$ = 3408
__$ArrayPad$ = 5456
iregs$ = 5488
inst$ = 5496
pgmint$ = 5504
z900_display_inst_adj PROC

; 812  : {

  00000	44 88 44 24 18	 mov	 BYTE PTR [rsp+24], r8b
  00005	48 89 54 24 10	 mov	 QWORD PTR [rsp+16], rdx
  0000a	48 89 4c 24 08	 mov	 QWORD PTR [rsp+8], rcx
  0000f	57		 push	 rdi
  00010	b8 60 15 00 00	 mov	 eax, 5472		; 00001560H
  00015	e8 00 00 00 00	 call	 __chkstk
  0001a	48 2b e0	 sub	 rsp, rax
  0001d	48 8b 05 00 00
	00 00		 mov	 rax, QWORD PTR __security_cookie
  00024	48 33 c4	 xor	 rax, rsp
  00027	48 89 84 24 50
	15 00 00	 mov	 QWORD PTR __$ArrayPad$[rsp], rax

; 813  : QWORD   qword;                          /* Doubleword work area      */
; 814  : BYTE    opcode;                         /* Instruction operation code*/
; 815  : int     ilc;                            /* Instruction length        */
; 816  : int     b1=-1, b2=-1, x1;               /* Register numbers          */

  0002f	c7 44 24 74 ff
	ff ff ff	 mov	 DWORD PTR b1$[rsp], -1
  00037	c7 44 24 78 ff
	ff ff ff	 mov	 DWORD PTR b2$[rsp], -1

; 817  : U16     xcode = 0;                      /* Exception code            */

  0003f	33 c0		 xor	 eax, eax
  00041	66 89 84 24 8c
	00 00 00	 mov	 WORD PTR xcode$[rsp], ax

; 818  : VADR    addr1 = 0, addr2 = 0;           /* Operand addresses         */

  00049	48 c7 84 24 80
	00 00 00 00 00
	00 00		 mov	 QWORD PTR addr1$[rsp], 0
  00055	48 c7 84 24 90
	00 00 00 00 00
	00 00		 mov	 QWORD PTR addr2$[rsp], 0

; 819  : char    buf[2048];                      /* Message buffer            */
; 820  : char    buf2[512];
; 821  : int     n;                              /* Number of bytes in buffer */
; 822  : REGS*   regs;                           /* Copied regs               */
; 823  : 
; 824  : TF02326 tf2326 = {0};

  00061	48 8d 84 24 30
	01 00 00	 lea	 rax, QWORD PTR tf2326$[rsp]
  00069	48 8b f8	 mov	 rdi, rax
  0006c	33 c0		 xor	 eax, eax
  0006e	b9 70 00 00 00	 mov	 ecx, 112		; 00000070H
  00073	f3 aa		 rep stosb

; 825  : bool    trace2file;
; 826  : 
; 827  : char    psw_inst_msg[160]   = {0};

  00075	48 8d 84 24 b0
	01 00 00	 lea	 rax, QWORD PTR psw_inst_msg$[rsp]
  0007d	48 8b f8	 mov	 rdi, rax
  00080	33 c0		 xor	 eax, eax
  00082	b9 a0 00 00 00	 mov	 ecx, 160		; 000000a0H
  00087	f3 aa		 rep stosb

; 828  : char    op1_stor_msg[128]   = {0};

  00089	48 8d 84 24 d0
	02 00 00	 lea	 rax, QWORD PTR op1_stor_msg$[rsp]
  00091	48 8b f8	 mov	 rdi, rax
  00094	33 c0		 xor	 eax, eax
  00096	b9 80 00 00 00	 mov	 ecx, 128		; 00000080H
  0009b	f3 aa		 rep stosb

; 829  : char    op2_stor_msg[128]   = {0};

  0009d	48 8d 84 24 50
	02 00 00	 lea	 rax, QWORD PTR op2_stor_msg$[rsp]
  000a5	48 8b f8	 mov	 rdi, rax
  000a8	33 c0		 xor	 eax, eax
  000aa	b9 80 00 00 00	 mov	 ecx, 128		; 00000080H
  000af	f3 aa		 rep stosb

; 830  : char    regs_msg_buf[4*512] = {0};

  000b1	48 8d 84 24 50
	0d 00 00	 lea	 rax, QWORD PTR regs_msg_buf$[rsp]
  000b9	48 8b f8	 mov	 rdi, rax
  000bc	33 c0		 xor	 eax, eax
  000be	b9 00 08 00 00	 mov	 ecx, 2048		; 00000800H
  000c3	f3 aa		 rep stosb
$LN4@z900_displ:

; 831  : 
; 832  :     PTT_PGM( "dinst", inst, 0, pgmint );

  000c5	48 8b 05 00 00
	00 00		 mov	 rax, QWORD PTR __imp_pttclass
  000cc	48 8b 00	 mov	 rax, QWORD PTR [rax]
  000cf	48 83 e0 20	 and	 rax, 32			; 00000020H
  000d3	48 85 c0	 test	 rax, rax
  000d6	74 3f		 je	 SHORT $LN20@z900_displ
  000d8	0f b6 84 24 80
	15 00 00	 movzx	 eax, BYTE PTR pgmint$[rsp]
  000e0	48 c7 44 24 30
	00 00 00 00	 mov	 QWORD PTR [rsp+48], 0
  000e9	48 89 44 24 28	 mov	 QWORD PTR [rsp+40], rax
  000ee	48 8d 05 00 00
	00 00		 lea	 rax, OFFSET FLAT:$SG194706
  000f5	48 89 44 24 20	 mov	 QWORD PTR [rsp+32], rax
  000fa	45 33 c9	 xor	 r9d, r9d
  000fd	4c 8b 84 24 78
	15 00 00	 mov	 r8, QWORD PTR inst$[rsp]
  00105	48 8d 15 00 00
	00 00		 lea	 rdx, OFFSET FLAT:$SG194707
  0010c	b9 20 00 00 00	 mov	 ecx, 32			; 00000020H
  00111	ff 15 00 00 00
	00		 call	 QWORD PTR __imp_ptt_pthread_trace
$LN20@z900_displ:
  00117	33 c0		 xor	 eax, eax
  00119	85 c0		 test	 eax, eax
  0011b	75 a8		 jne	 SHORT $LN4@z900_displ

; 833  : 
; 834  :     OBTAIN_TRACEFILE_LOCK();

  0011d	48 8b 05 00 00
	00 00		 mov	 rax, QWORD PTR __imp_sysblk
  00124	48 05 10 14 00
	00		 add	 rax, 5136		; 00001410H
  0012a	48 8d 15 00 00
	00 00		 lea	 rdx, OFFSET FLAT:$SG194708
  00131	48 8b c8	 mov	 rcx, rax
  00134	ff 15 00 00 00
	00		 call	 QWORD PTR __imp_hthread_obtain_lock

; 835  :     {
; 836  :         trace2file = (iregs->insttrace && sysblk.traceFILE) ? true : false;

  0013a	48 8b 84 24 70
	15 00 00	 mov	 rax, QWORD PTR iregs$[rsp]
  00142	8b 80 28 07 00
	00		 mov	 eax, DWORD PTR [rax+1832]
  00148	c1 e8 0f	 shr	 eax, 15
  0014b	83 e0 01	 and	 eax, 1
  0014e	85 c0		 test	 eax, eax
  00150	74 1e		 je	 SHORT $LN90@z900_displ
  00152	48 8b 05 00 00
	00 00		 mov	 rax, QWORD PTR __imp_sysblk
  00159	48 83 b8 20 14
	00 00 00	 cmp	 QWORD PTR [rax+5152], 0
  00161	74 0d		 je	 SHORT $LN90@z900_displ
  00163	c7 84 24 9c 00
	00 00 01 00 00
	00		 mov	 DWORD PTR tv136[rsp], 1
  0016e	eb 0b		 jmp	 SHORT $LN91@z900_displ
$LN90@z900_displ:
  00170	c7 84 24 9c 00
	00 00 00 00 00
	00		 mov	 DWORD PTR tv136[rsp], 0
$LN91@z900_displ:
  0017b	83 bc 24 9c 00
	00 00 00	 cmp	 DWORD PTR tv136[rsp], 0
  00183	75 0d		 jne	 SHORT $LN92@z900_displ
  00185	c7 84 24 a0 00
	00 00 00 00 00
	00		 mov	 DWORD PTR tv138[rsp], 0
  00190	eb 0b		 jmp	 SHORT $LN93@z900_displ
$LN92@z900_displ:
  00192	c7 84 24 a0 00
	00 00 01 00 00
	00		 mov	 DWORD PTR tv138[rsp], 1
$LN93@z900_displ:
  0019d	0f b6 84 24 a0
	00 00 00	 movzx	 eax, BYTE PTR tv138[rsp]
  001a5	88 44 24 70	 mov	 BYTE PTR trace2file$[rsp], al

; 837  :     }
; 838  :     RELEASE_TRACEFILE_LOCK();

  001a9	48 8b 05 00 00
	00 00		 mov	 rax, QWORD PTR __imp_sysblk
  001b0	48 05 10 14 00
	00		 add	 rax, 5136		; 00001410H
  001b6	48 8d 15 00 00
	00 00		 lea	 rdx, OFFSET FLAT:$SG194709
  001bd	48 8b c8	 mov	 rcx, rax
  001c0	ff 15 00 00 00
	00		 call	 QWORD PTR __imp_hthread_release_lock

; 839  : 
; 840  :     /* Ensure storage exists to attempt the display */
; 841  :     tf2326.valid = (iregs->mainlim != 0);

  001c6	48 8b 84 24 70
	15 00 00	 mov	 rax, QWORD PTR iregs$[rsp]
  001ce	48 83 b8 58 08
	00 00 00	 cmp	 QWORD PTR [rax+2136], 0
  001d6	74 0d		 je	 SHORT $LN94@z900_displ
  001d8	c7 84 24 a4 00
	00 00 01 00 00
	00		 mov	 DWORD PTR tv145[rsp], 1
  001e3	eb 0b		 jmp	 SHORT $LN95@z900_displ
$LN94@z900_displ:
  001e5	c7 84 24 a4 00
	00 00 00 00 00
	00		 mov	 DWORD PTR tv145[rsp], 0
$LN95@z900_displ:
  001f0	0f b6 84 24 a4
	00 00 00	 movzx	 eax, BYTE PTR tv145[rsp]
  001f8	88 84 24 48 01
	00 00		 mov	 BYTE PTR tf2326$[rsp+24], al

; 842  :     if (!tf2326.valid)

  001ff	0f b6 84 24 48
	01 00 00	 movzx	 eax, BYTE PTR tf2326$[rsp+24]
  00207	85 c0		 test	 eax, eax
  00209	0f 85 8f 00 00
	00		 jne	 $LN21@z900_displ

; 843  :     {
; 844  :         if (trace2file)

  0020f	0f b6 44 24 70	 movzx	 eax, BYTE PTR trace2file$[rsp]
  00214	85 c0		 test	 eax, eax
  00216	74 2e		 je	 SHORT $LN22@z900_displ

; 845  :             tf_2326( iregs, &tf2326, 0,0,0,0 );

  00218	c7 44 24 28 00
	00 00 00	 mov	 DWORD PTR [rsp+40], 0
  00220	c7 44 24 20 00
	00 00 00	 mov	 DWORD PTR [rsp+32], 0
  00228	45 33 c9	 xor	 r9d, r9d
  0022b	45 33 c0	 xor	 r8d, r8d
  0022e	48 8d 94 24 30
	01 00 00	 lea	 rdx, QWORD PTR tf2326$[rsp]
  00236	48 8b 8c 24 70
	15 00 00	 mov	 rcx, QWORD PTR iregs$[rsp]
  0023e	ff 15 00 00 00
	00		 call	 QWORD PTR __imp_tf_2326
  00244	eb 53		 jmp	 SHORT $LN23@z900_displ
$LN22@z900_displ:

; 846  :         else
; 847  :             WRMSG( HHC02267, "I", "Real address is not valid" );

  00246	b9 01 00 00 00	 mov	 ecx, 1
  0024b	ff 15 00 00 00
	00		 call	 QWORD PTR __imp___acrt_iob_func
  00251	48 8d 0d 00 00
	00 00		 lea	 rcx, OFFSET FLAT:$SG194713
  00258	48 89 4c 24 38	 mov	 QWORD PTR [rsp+56], rcx
  0025d	48 8d 0d 00 00
	00 00		 lea	 rcx, OFFSET FLAT:$SG194714
  00264	48 89 4c 24 30	 mov	 QWORD PTR [rsp+48], rcx
  00269	48 8d 0d 00 00
	00 00		 lea	 rcx, OFFSET FLAT:$SG194715
  00270	48 89 4c 24 28	 mov	 QWORD PTR [rsp+40], rcx
  00275	48 89 44 24 20	 mov	 QWORD PTR [rsp+32], rax
  0027a	41 b9 03 00 00
	00		 mov	 r9d, 3
  00280	4c 8d 05 00 00
	00 00		 lea	 r8, OFFSET FLAT:$SG194716
  00287	ba 4f 03 00 00	 mov	 edx, 847		; 0000034fH
  0028c	48 8d 0d 00 00
	00 00		 lea	 rcx, OFFSET FLAT:$SG194717
  00293	ff 15 00 00 00
	00		 call	 QWORD PTR __imp_fwritemsg
$LN23@z900_displ:

; 848  :         return;

  00299	e9 ec 18 00 00	 jmp	 $LN1@z900_displ
$LN21@z900_displ:

; 849  :     }
; 850  : 
; 851  :     n = 0;

  0029e	c7 44 24 64 00
	00 00 00	 mov	 DWORD PTR n$[rsp], 0

; 852  :     buf[0] = '\0';

  002a6	b8 01 00 00 00	 mov	 eax, 1
  002ab	48 6b c0 00	 imul	 rax, rax, 0
  002af	48 89 84 24 d8
	00 00 00	 mov	 QWORD PTR $T4[rsp], rax
  002b7	48 81 bc 24 d8
	00 00 00 00 08
	00 00		 cmp	 QWORD PTR $T4[rsp], 2048 ; 00000800H
  002c3	73 02		 jae	 SHORT $LN96@z900_displ
  002c5	eb 05		 jmp	 SHORT $LN97@z900_displ
$LN96@z900_displ:
  002c7	e8 00 00 00 00	 call	 __report_rangecheckfailure
$LN97@z900_displ:
  002cc	48 8b 84 24 d8
	00 00 00	 mov	 rax, QWORD PTR $T4[rsp]
  002d4	c6 84 04 50 05
	00 00 00	 mov	 BYTE PTR buf$[rsp+rax], 0

; 853  : 
; 854  :     /* Get a working (modifiable) copy of the REGS */
; 855  :     if (iregs->ghostregs)

  002dc	48 8b 84 24 70
	15 00 00	 mov	 rax, QWORD PTR iregs$[rsp]
  002e4	8b 80 28 07 00
	00		 mov	 eax, DWORD PTR [rax+1832]
  002ea	c1 e8 0d	 shr	 eax, 13
  002ed	83 e0 01	 and	 eax, 1
  002f0	85 c0		 test	 eax, eax
  002f2	74 0f		 je	 SHORT $LN24@z900_displ

; 856  :         regs = iregs;

  002f4	48 8b 84 24 70
	15 00 00	 mov	 rax, QWORD PTR iregs$[rsp]
  002fc	48 89 44 24 68	 mov	 QWORD PTR regs$[rsp], rax
  00301	eb 1f		 jmp	 SHORT $LN25@z900_displ
$LN24@z900_displ:

; 857  :     else if (!(regs = copy_regs( iregs )))

  00303	48 8b 8c 24 70
	15 00 00	 mov	 rcx, QWORD PTR iregs$[rsp]
  0030b	e8 00 00 00 00	 call	 copy_regs
  00310	48 89 44 24 68	 mov	 QWORD PTR regs$[rsp], rax
  00315	48 83 7c 24 68
	00		 cmp	 QWORD PTR regs$[rsp], 0
  0031b	75 05		 jne	 SHORT $LN26@z900_displ

; 858  :         return;

  0031d	e9 68 18 00 00	 jmp	 $LN1@z900_displ
$LN26@z900_displ:
$LN25@z900_displ:

; 859  : 
; 860  : #if defined( _FEATURE_SIE )
; 861  :     tf2326.sie = SIE_MODE( regs ) ? true : false;

  00322	48 8b 44 24 68	 mov	 rax, QWORD PTR regs$[rsp]
  00327	8b 80 c8 08 00
	00		 mov	 eax, DWORD PTR [rax+2248]
  0032d	d1 e8		 shr	 eax, 1
  0032f	83 e0 01	 and	 eax, 1
  00332	85 c0		 test	 eax, eax
  00334	74 0d		 je	 SHORT $LN98@z900_displ
  00336	c7 84 24 a8 00
	00 00 01 00 00
	00		 mov	 DWORD PTR tv181[rsp], 1
  00341	eb 0b		 jmp	 SHORT $LN99@z900_displ
$LN98@z900_displ:
  00343	c7 84 24 a8 00
	00 00 00 00 00
	00		 mov	 DWORD PTR tv181[rsp], 0
$LN99@z900_displ:
  0034e	0f b6 84 24 a8
	00 00 00	 movzx	 eax, BYTE PTR tv181[rsp]
  00356	88 84 24 49 01
	00 00		 mov	 BYTE PTR tf2326$[rsp+25], al

; 862  :     if (tf2326.sie)

  0035d	0f b6 84 24 49
	01 00 00	 movzx	 eax, BYTE PTR tf2326$[rsp+25]
  00365	85 c0		 test	 eax, eax
  00367	74 2b		 je	 SHORT $LN27@z900_displ

; 863  :         n += idx_snprintf( n, buf, sizeof( buf ), "SIE: " );

  00369	4c 8d 0d 00 00
	00 00		 lea	 r9, OFFSET FLAT:$SG194722
  00370	41 b8 00 08 00
	00		 mov	 r8d, 2048		; 00000800H
  00376	48 8d 94 24 50
	05 00 00	 lea	 rdx, QWORD PTR buf$[rsp]
  0037e	8b 4c 24 64	 mov	 ecx, DWORD PTR n$[rsp]
  00382	ff 15 00 00 00
	00		 call	 QWORD PTR __imp_idx_snprintf
  00388	8b 4c 24 64	 mov	 ecx, DWORD PTR n$[rsp]
  0038c	03 c8		 add	 ecx, eax
  0038e	8b c1		 mov	 eax, ecx
  00390	89 44 24 64	 mov	 DWORD PTR n$[rsp], eax
$LN27@z900_displ:

; 864  : #endif
; 865  : 
; 866  :     /* Exit if instruction is not valid */
; 867  :     if (!inst)

  00394	48 83 bc 24 78
	15 00 00 00	 cmp	 QWORD PTR inst$[rsp], 0
  0039d	0f 85 43 01 00
	00		 jne	 $LN28@z900_displ

; 868  :     {
; 869  :         if (trace2file)

  003a3	0f b6 44 24 70	 movzx	 eax, BYTE PTR trace2file$[rsp]
  003a8	85 c0		 test	 eax, eax
  003aa	74 18		 je	 SHORT $LN29@z900_displ

; 870  :             tf_2269( regs, inst );

  003ac	48 8b 94 24 78
	15 00 00	 mov	 rdx, QWORD PTR inst$[rsp]
  003b4	48 8b 4c 24 68	 mov	 rcx, QWORD PTR regs$[rsp]
  003b9	ff 15 00 00 00
	00		 call	 QWORD PTR __imp_tf_2269
  003bf	e9 1d 01 00 00	 jmp	 $LN30@z900_displ
$LN29@z900_displ:

; 871  :         else
; 872  :         {
; 873  :             size_t len;
; 874  :             MSGBUF( psw_inst_msg, "%s Instruction fetch error\n", buf );

  003c4	4c 8d 8c 24 50
	05 00 00	 lea	 r9, QWORD PTR buf$[rsp]
  003cc	4c 8d 05 00 00
	00 00		 lea	 r8, OFFSET FLAT:$SG194726
  003d3	ba a0 00 00 00	 mov	 edx, 160		; 000000a0H
  003d8	48 8d 8c 24 b0
	01 00 00	 lea	 rcx, QWORD PTR psw_inst_msg$[rsp]
  003e0	ff 15 00 00 00
	00		 call	 QWORD PTR __imp_w32_snprintf

; 875  :             display_gregs( regs, regs_msg_buf, sizeof(regs_msg_buf)-1, "HHC02269I " );

  003e6	4c 8d 0d 00 00
	00 00		 lea	 r9, OFFSET FLAT:$SG194727
  003ed	41 b8 ff 07 00
	00		 mov	 r8d, 2047		; 000007ffH
  003f3	48 8d 94 24 50
	0d 00 00	 lea	 rdx, QWORD PTR regs_msg_buf$[rsp]
  003fb	48 8b 4c 24 68	 mov	 rcx, QWORD PTR regs$[rsp]
  00400	e8 00 00 00 00	 call	 display_gregs

; 876  :             /* Remove unwanted extra trailing newline from regs_msg_buf */
; 877  :             len = strlen( regs_msg_buf );

  00405	48 8d 8c 24 50
	0d 00 00	 lea	 rcx, QWORD PTR regs_msg_buf$[rsp]
  0040d	e8 00 00 00 00	 call	 strlen
  00412	48 89 84 24 e0
	00 00 00	 mov	 QWORD PTR len$5[rsp], rax

; 878  :             if (len)

  0041a	48 83 bc 24 e0
	00 00 00 00	 cmp	 QWORD PTR len$5[rsp], 0
  00423	74 38		 je	 SHORT $LN31@z900_displ

; 879  :                 regs_msg_buf[ len-1 ] = 0;

  00425	48 8b 84 24 e0
	00 00 00	 mov	 rax, QWORD PTR len$5[rsp]
  0042d	48 ff c8	 dec	 rax
  00430	48 89 84 24 e8
	00 00 00	 mov	 QWORD PTR $T6[rsp], rax
  00438	48 81 bc 24 e8
	00 00 00 00 08
	00 00		 cmp	 QWORD PTR $T6[rsp], 2048 ; 00000800H
  00444	73 02		 jae	 SHORT $LN100@z900_displ
  00446	eb 05		 jmp	 SHORT $LN101@z900_displ
$LN100@z900_displ:
  00448	e8 00 00 00 00	 call	 __report_rangecheckfailure
$LN101@z900_displ:
  0044d	48 8b 84 24 e8
	00 00 00	 mov	 rax, QWORD PTR $T6[rsp]
  00455	c6 84 04 50 0d
	00 00 00	 mov	 BYTE PTR regs_msg_buf$[rsp+rax], 0
$LN31@z900_displ:

; 880  :             // "%s%s" // (instruction fetch error + regs)
; 881  :             WRMSG( HHC02325, "E", psw_inst_msg, regs_msg_buf );

  0045d	b9 01 00 00 00	 mov	 ecx, 1
  00462	ff 15 00 00 00
	00		 call	 QWORD PTR __imp___acrt_iob_func
  00468	48 8d 8c 24 50
	0d 00 00	 lea	 rcx, QWORD PTR regs_msg_buf$[rsp]
  00470	48 89 4c 24 40	 mov	 QWORD PTR [rsp+64], rcx
  00475	48 8d 8c 24 b0
	01 00 00	 lea	 rcx, QWORD PTR psw_inst_msg$[rsp]
  0047d	48 89 4c 24 38	 mov	 QWORD PTR [rsp+56], rcx
  00482	48 8d 0d 00 00
	00 00		 lea	 rcx, OFFSET FLAT:$SG194729
  00489	48 89 4c 24 30	 mov	 QWORD PTR [rsp+48], rcx
  0048e	48 8d 0d 00 00
	00 00		 lea	 rcx, OFFSET FLAT:$SG194730
  00495	48 89 4c 24 28	 mov	 QWORD PTR [rsp+40], rcx
  0049a	48 89 44 24 20	 mov	 QWORD PTR [rsp+32], rax
  0049f	41 b9 03 00 00
	00		 mov	 r9d, 3
  004a5	4c 8d 05 00 00
	00 00		 lea	 r8, OFFSET FLAT:$SG194731
  004ac	ba 71 03 00 00	 mov	 edx, 881		; 00000371H
  004b1	48 8d 0d 00 00
	00 00		 lea	 rcx, OFFSET FLAT:$SG194732
  004b8	ff 15 00 00 00
	00		 call	 QWORD PTR __imp_fwritemsg

; 882  :             if (!iregs->ghostregs)

  004be	48 8b 84 24 70
	15 00 00	 mov	 rax, QWORD PTR iregs$[rsp]
  004c6	8b 80 28 07 00
	00		 mov	 eax, DWORD PTR [rax+1832]
  004cc	c1 e8 0d	 shr	 eax, 13
  004cf	83 e0 01	 and	 eax, 1
  004d2	85 c0		 test	 eax, eax
  004d4	75 0b		 jne	 SHORT $LN32@z900_displ

; 883  :                 free_aligned( regs );

  004d6	48 8b 4c 24 68	 mov	 rcx, QWORD PTR regs$[rsp]
  004db	ff 15 00 00 00
	00		 call	 QWORD PTR __imp__aligned_free
$LN32@z900_displ:
$LN30@z900_displ:

; 884  :         }
; 885  :         return;

  004e1	e9 a4 16 00 00	 jmp	 $LN1@z900_displ
$LN28@z900_displ:

; 886  :     }
; 887  : 
; 888  :     /* Save the opcode and determine the instruction length */
; 889  :     opcode = inst[0];

  004e6	b8 01 00 00 00	 mov	 eax, 1
  004eb	48 6b c0 00	 imul	 rax, rax, 0
  004ef	48 8b 8c 24 78
	15 00 00	 mov	 rcx, QWORD PTR inst$[rsp]
  004f7	0f b6 04 01	 movzx	 eax, BYTE PTR [rcx+rax]
  004fb	88 44 24 60	 mov	 BYTE PTR opcode$[rsp], al

; 890  :     ilc = ILC( opcode );

  004ff	0f b6 44 24 60	 movzx	 eax, BYTE PTR opcode$[rsp]
  00504	83 f8 40	 cmp	 eax, 64			; 00000040H
  00507	7d 0d		 jge	 SHORT $LN104@z900_displ
  00509	c7 84 24 b0 00
	00 00 02 00 00
	00		 mov	 DWORD PTR tv233[rsp], 2
  00514	eb 32		 jmp	 SHORT $LN105@z900_displ
$LN104@z900_displ:
  00516	0f b6 44 24 60	 movzx	 eax, BYTE PTR opcode$[rsp]
  0051b	3d c0 00 00 00	 cmp	 eax, 192		; 000000c0H
  00520	7d 0d		 jge	 SHORT $LN102@z900_displ
  00522	c7 84 24 ac 00
	00 00 04 00 00
	00		 mov	 DWORD PTR tv232[rsp], 4
  0052d	eb 0b		 jmp	 SHORT $LN103@z900_displ
$LN102@z900_displ:
  0052f	c7 84 24 ac 00
	00 00 06 00 00
	00		 mov	 DWORD PTR tv232[rsp], 6
$LN103@z900_displ:
  0053a	8b 84 24 ac 00
	00 00		 mov	 eax, DWORD PTR tv232[rsp]
  00541	89 84 24 b0 00
	00 00		 mov	 DWORD PTR tv233[rsp], eax
$LN105@z900_displ:
  00548	8b 84 24 b0 00
	00 00		 mov	 eax, DWORD PTR tv233[rsp]
  0054f	89 84 24 88 00
	00 00		 mov	 DWORD PTR ilc$[rsp], eax
$LN7@z900_displ:

; 891  : 
; 892  :     PTT_PGM( "dinst op,ilc", opcode, ilc, pgmint );

  00556	48 8b 05 00 00
	00 00		 mov	 rax, QWORD PTR __imp_pttclass
  0055d	48 8b 00	 mov	 rax, QWORD PTR [rax]
  00560	48 83 e0 20	 and	 rax, 32			; 00000020H
  00564	48 85 c0	 test	 rax, rax
  00567	74 47		 je	 SHORT $LN33@z900_displ
  00569	0f b6 84 24 80
	15 00 00	 movzx	 eax, BYTE PTR pgmint$[rsp]
  00571	48 63 8c 24 88
	00 00 00	 movsxd	 rcx, DWORD PTR ilc$[rsp]
  00579	0f b6 54 24 60	 movzx	 edx, BYTE PTR opcode$[rsp]
  0057e	48 c7 44 24 30
	00 00 00 00	 mov	 QWORD PTR [rsp+48], 0
  00587	48 89 44 24 28	 mov	 QWORD PTR [rsp+40], rax
  0058c	48 8d 05 00 00
	00 00		 lea	 rax, OFFSET FLAT:$SG194735
  00593	48 89 44 24 20	 mov	 QWORD PTR [rsp+32], rax
  00598	4c 8b c9	 mov	 r9, rcx
  0059b	44 8b c2	 mov	 r8d, edx
  0059e	48 8d 15 00 00
	00 00		 lea	 rdx, OFFSET FLAT:$SG194736
  005a5	b9 20 00 00 00	 mov	 ecx, 32			; 00000020H
  005aa	ff 15 00 00 00
	00		 call	 QWORD PTR __imp_ptt_pthread_trace
$LN33@z900_displ:
  005b0	33 c0		 xor	 eax, eax
  005b2	85 c0		 test	 eax, eax
  005b4	75 a0		 jne	 SHORT $LN7@z900_displ
$LN10@z900_displ:

; 893  : 
; 894  :     /* If we were called to display the instruction that program
; 895  :        checked, then since the "iregs" REGS value that was passed
; 896  :        to us (that we made a working copy of) was pointing PAST
; 897  :        the instruction that actually program checked (not at it),
; 898  :        we need to backup by the ilc amount so that it points at
; 899  :        the instruction that program checked, not past it.
; 900  :     */
; 901  :     PTT_PGM( "dinst ip,IA", regs->ip, regs->psw.IA, pgmint );

  005b6	48 8b 05 00 00
	00 00		 mov	 rax, QWORD PTR __imp_pttclass
  005bd	48 8b 00	 mov	 rax, QWORD PTR [rax]
  005c0	48 83 e0 20	 and	 rax, 32			; 00000020H
  005c4	48 85 c0	 test	 rax, rax
  005c7	74 49		 je	 SHORT $LN34@z900_displ
  005c9	0f b6 84 24 80
	15 00 00	 movzx	 eax, BYTE PTR pgmint$[rsp]
  005d1	48 c7 44 24 30
	00 00 00 00	 mov	 QWORD PTR [rsp+48], 0
  005da	48 89 44 24 28	 mov	 QWORD PTR [rsp+40], rax
  005df	48 8d 05 00 00
	00 00		 lea	 rax, OFFSET FLAT:$SG194738
  005e6	48 89 44 24 20	 mov	 QWORD PTR [rsp+32], rax
  005eb	48 8b 44 24 68	 mov	 rax, QWORD PTR regs$[rsp]
  005f0	4c 8b 88 88 00
	00 00		 mov	 r9, QWORD PTR [rax+136]
  005f7	48 8b 44 24 68	 mov	 rax, QWORD PTR regs$[rsp]
  005fc	4c 8b 40 68	 mov	 r8, QWORD PTR [rax+104]
  00600	48 8d 15 00 00
	00 00		 lea	 rdx, OFFSET FLAT:$SG194739
  00607	b9 20 00 00 00	 mov	 ecx, 32			; 00000020H
  0060c	ff 15 00 00 00
	00		 call	 QWORD PTR __imp_ptt_pthread_trace
$LN34@z900_displ:
  00612	33 c0		 xor	 eax, eax
  00614	85 c0		 test	 eax, eax
  00616	75 9e		 jne	 SHORT $LN10@z900_displ

; 902  :     if (pgmint)

  00618	0f b6 84 24 80
	15 00 00	 movzx	 eax, BYTE PTR pgmint$[rsp]
  00620	85 c0		 test	 eax, eax
  00622	74 62		 je	 SHORT $LN35@z900_displ

; 903  :     {
; 904  :         regs->ip -= ilc;

  00624	48 63 84 24 88
	00 00 00	 movsxd	 rax, DWORD PTR ilc$[rsp]
  0062c	48 8b 4c 24 68	 mov	 rcx, QWORD PTR regs$[rsp]
  00631	48 8b 49 68	 mov	 rcx, QWORD PTR [rcx+104]
  00635	48 2b c8	 sub	 rcx, rax
  00638	48 8b c1	 mov	 rax, rcx
  0063b	48 8b 4c 24 68	 mov	 rcx, QWORD PTR regs$[rsp]
  00640	48 89 41 68	 mov	 QWORD PTR [rcx+104], rax

; 905  :         regs->psw.IA = PSW_IA_FROM_IP( regs, 0 );

  00644	48 8b 44 24 68	 mov	 rax, QWORD PTR regs$[rsp]
  00649	48 8b 4c 24 68	 mov	 rcx, QWORD PTR regs$[rsp]
  0064e	48 8b 89 00 02
	00 00		 mov	 rcx, QWORD PTR [rcx+512]
  00655	48 8b 40 68	 mov	 rax, QWORD PTR [rax+104]
  00659	48 2b c1	 sub	 rax, rcx
  0065c	48 8b 4c 24 68	 mov	 rcx, QWORD PTR regs$[rsp]
  00661	48 8b 89 10 02
	00 00		 mov	 rcx, QWORD PTR [rcx+528]
  00668	48 03 c8	 add	 rcx, rax
  0066b	48 8b c1	 mov	 rax, rcx
  0066e	48 8b 4c 24 68	 mov	 rcx, QWORD PTR regs$[rsp]
  00673	48 23 81 90 00
	00 00		 and	 rax, QWORD PTR [rcx+144]
  0067a	48 8b 4c 24 68	 mov	 rcx, QWORD PTR regs$[rsp]
  0067f	48 89 81 88 00
	00 00		 mov	 QWORD PTR [rcx+136], rax
$LN35@z900_displ:
$LN13@z900_displ:

; 906  :     }
; 907  :     PTT_PGM( "dinst ip,IA", regs->ip, regs->psw.IA, pgmint );

  00686	48 8b 05 00 00
	00 00		 mov	 rax, QWORD PTR __imp_pttclass
  0068d	48 8b 00	 mov	 rax, QWORD PTR [rax]
  00690	48 83 e0 20	 and	 rax, 32			; 00000020H
  00694	48 85 c0	 test	 rax, rax
  00697	74 49		 je	 SHORT $LN36@z900_displ
  00699	0f b6 84 24 80
	15 00 00	 movzx	 eax, BYTE PTR pgmint$[rsp]
  006a1	48 c7 44 24 30
	00 00 00 00	 mov	 QWORD PTR [rsp+48], 0
  006aa	48 89 44 24 28	 mov	 QWORD PTR [rsp+40], rax
  006af	48 8d 05 00 00
	00 00		 lea	 rax, OFFSET FLAT:$SG194742
  006b6	48 89 44 24 20	 mov	 QWORD PTR [rsp+32], rax
  006bb	48 8b 44 24 68	 mov	 rax, QWORD PTR regs$[rsp]
  006c0	4c 8b 88 88 00
	00 00		 mov	 r9, QWORD PTR [rax+136]
  006c7	48 8b 44 24 68	 mov	 rax, QWORD PTR regs$[rsp]
  006cc	4c 8b 40 68	 mov	 r8, QWORD PTR [rax+104]
  006d0	48 8d 15 00 00
	00 00		 lea	 rdx, OFFSET FLAT:$SG194743
  006d7	b9 20 00 00 00	 mov	 ecx, 32			; 00000020H
  006dc	ff 15 00 00 00
	00		 call	 QWORD PTR __imp_ptt_pthread_trace
$LN36@z900_displ:
  006e2	33 c0		 xor	 eax, eax
  006e4	85 c0		 test	 eax, eax
  006e6	75 9e		 jne	 SHORT $LN13@z900_displ

; 908  : 
; 909  :     /* Display the PSW */
; 910  :     memset( qword, 0, sizeof( qword ));

  006e8	48 8d 84 24 a0
	01 00 00	 lea	 rax, QWORD PTR qword$[rsp]
  006f0	48 8b f8	 mov	 rdi, rax
  006f3	33 c0		 xor	 eax, eax
  006f5	b9 10 00 00 00	 mov	 ecx, 16
  006fa	f3 aa		 rep stosb

; 911  :     copy_psw( regs, qword );

  006fc	48 8d 94 24 a0
	01 00 00	 lea	 rdx, QWORD PTR qword$[rsp]
  00704	48 8b 4c 24 68	 mov	 rcx, QWORD PTR regs$[rsp]
  00709	e8 00 00 00 00	 call	 copy_psw

; 912  : 
; 913  :     if (!trace2file)

  0070e	0f b6 44 24 70	 movzx	 eax, BYTE PTR trace2file$[rsp]
  00713	85 c0		 test	 eax, eax
  00715	0f 85 57 04 00
	00		 jne	 $LN37@z900_displ

; 914  :     {
; 915  :         if (sysblk.cpus > 1)

  0071b	48 8b 05 00 00
	00 00		 mov	 rax, QWORD PTR __imp_sysblk
  00722	83 b8 04 01 00
	00 01		 cmp	 DWORD PTR [rax+260], 1
  00729	7e 6f		 jle	 SHORT $LN38@z900_displ

; 916  :             n += idx_snprintf( n, buf, sizeof( buf ), "%s%02X: ", PTYPSTR( regs->cpuad ), regs->cpuad );

  0072b	48 8b 44 24 68	 mov	 rax, QWORD PTR regs$[rsp]
  00730	0f b7 80 3c 08
	00 00		 movzx	 eax, WORD PTR [rax+2108]
  00737	89 84 24 c4 00
	00 00		 mov	 DWORD PTR tv299[rsp], eax
  0073e	48 8b 4c 24 68	 mov	 rcx, QWORD PTR regs$[rsp]
  00743	0f b7 89 3c 08
	00 00		 movzx	 ecx, WORD PTR [rcx+2108]
  0074a	48 8b 15 00 00
	00 00		 mov	 rdx, QWORD PTR __imp_sysblk
  00751	0f b6 8c 0a 48
	0b 00 00	 movzx	 ecx, BYTE PTR [rdx+rcx+2888]
  00759	ff 15 00 00 00
	00		 call	 QWORD PTR __imp_ptyp2short
  0075f	8b 8c 24 c4 00
	00 00		 mov	 ecx, DWORD PTR tv299[rsp]
  00766	89 4c 24 28	 mov	 DWORD PTR [rsp+40], ecx
  0076a	48 89 44 24 20	 mov	 QWORD PTR [rsp+32], rax
  0076f	4c 8d 0d 00 00
	00 00		 lea	 r9, OFFSET FLAT:$SG194746
  00776	41 b8 00 08 00
	00		 mov	 r8d, 2048		; 00000800H
  0077c	48 8d 94 24 50
	05 00 00	 lea	 rdx, QWORD PTR buf$[rsp]
  00784	8b 4c 24 64	 mov	 ecx, DWORD PTR n$[rsp]
  00788	ff 15 00 00 00
	00		 call	 QWORD PTR __imp_idx_snprintf
  0078e	8b 4c 24 64	 mov	 ecx, DWORD PTR n$[rsp]
  00792	03 c8		 add	 ecx, eax
  00794	8b c1		 mov	 eax, ecx
  00796	89 44 24 64	 mov	 DWORD PTR n$[rsp], eax
$LN38@z900_displ:

; 917  : 
; 918  :         n += idx_snprintf( n, buf, sizeof( buf ),

  0079a	b8 01 00 00 00	 mov	 eax, 1
  0079f	48 6b c0 07	 imul	 rax, rax, 7
  007a3	0f b6 84 04 a0
	01 00 00	 movzx	 eax, BYTE PTR qword$[rsp+rax]
  007ab	b9 01 00 00 00	 mov	 ecx, 1
  007b0	48 6b c9 06	 imul	 rcx, rcx, 6
  007b4	0f b6 8c 0c a0
	01 00 00	 movzx	 ecx, BYTE PTR qword$[rsp+rcx]
  007bc	ba 01 00 00 00	 mov	 edx, 1
  007c1	48 6b d2 05	 imul	 rdx, rdx, 5
  007c5	0f b6 94 14 a0
	01 00 00	 movzx	 edx, BYTE PTR qword$[rsp+rdx]
  007cd	bf 01 00 00 00	 mov	 edi, 1
  007d2	48 6b ff 04	 imul	 rdi, rdi, 4
  007d6	0f b6 bc 3c a0
	01 00 00	 movzx	 edi, BYTE PTR qword$[rsp+rdi]
  007de	41 b8 01 00 00
	00		 mov	 r8d, 1
  007e4	4d 6b c0 03	 imul	 r8, r8, 3
  007e8	46 0f b6 84 04
	a0 01 00 00	 movzx	 r8d, BYTE PTR qword$[rsp+r8]
  007f1	41 b9 01 00 00
	00		 mov	 r9d, 1
  007f7	4d 6b c9 02	 imul	 r9, r9, 2
  007fb	46 0f b6 8c 0c
	a0 01 00 00	 movzx	 r9d, BYTE PTR qword$[rsp+r9]
  00804	41 ba 01 00 00
	00		 mov	 r10d, 1
  0080a	4d 6b d2 01	 imul	 r10, r10, 1
  0080e	46 0f b6 94 14
	a0 01 00 00	 movzx	 r10d, BYTE PTR qword$[rsp+r10]
  00817	41 bb 01 00 00
	00		 mov	 r11d, 1
  0081d	4d 6b db 00	 imul	 r11, r11, 0
  00821	46 0f b6 9c 1c
	a0 01 00 00	 movzx	 r11d, BYTE PTR qword$[rsp+r11]
  0082a	89 44 24 58	 mov	 DWORD PTR [rsp+88], eax
  0082e	89 4c 24 50	 mov	 DWORD PTR [rsp+80], ecx
  00832	89 54 24 48	 mov	 DWORD PTR [rsp+72], edx
  00836	89 7c 24 40	 mov	 DWORD PTR [rsp+64], edi
  0083a	44 89 44 24 38	 mov	 DWORD PTR [rsp+56], r8d
  0083f	44 89 4c 24 30	 mov	 DWORD PTR [rsp+48], r9d
  00844	44 89 54 24 28	 mov	 DWORD PTR [rsp+40], r10d
  00849	44 89 5c 24 20	 mov	 DWORD PTR [rsp+32], r11d
  0084e	4c 8d 0d 00 00
	00 00		 lea	 r9, OFFSET FLAT:$SG194747
  00855	41 b8 00 08 00
	00		 mov	 r8d, 2048		; 00000800H
  0085b	48 8d 94 24 50
	05 00 00	 lea	 rdx, QWORD PTR buf$[rsp]
  00863	8b 4c 24 64	 mov	 ecx, DWORD PTR n$[rsp]
  00867	ff 15 00 00 00
	00		 call	 QWORD PTR __imp_idx_snprintf
  0086d	8b 4c 24 64	 mov	 ecx, DWORD PTR n$[rsp]
  00871	03 c8		 add	 ecx, eax
  00873	8b c1		 mov	 eax, ecx
  00875	89 44 24 64	 mov	 DWORD PTR n$[rsp], eax

; 919  :                     "PSW=%2.2X%2.2X%2.2X%2.2X%2.2X%2.2X%2.2X%2.2X ",
; 920  :                     qword[0], qword[1], qword[2], qword[3],
; 921  :                     qword[4], qword[5], qword[6], qword[7] );
; 922  : 
; 923  : #if defined( FEATURE_001_ZARCH_INSTALLED_FACILITY )
; 924  :         n += idx_snprintf( n, buf, sizeof(buf),

  00879	b8 01 00 00 00	 mov	 eax, 1
  0087e	48 6b c0 0f	 imul	 rax, rax, 15
  00882	0f b6 84 04 a0
	01 00 00	 movzx	 eax, BYTE PTR qword$[rsp+rax]
  0088a	b9 01 00 00 00	 mov	 ecx, 1
  0088f	48 6b c9 0e	 imul	 rcx, rcx, 14
  00893	0f b6 8c 0c a0
	01 00 00	 movzx	 ecx, BYTE PTR qword$[rsp+rcx]
  0089b	ba 01 00 00 00	 mov	 edx, 1
  008a0	48 6b d2 0d	 imul	 rdx, rdx, 13
  008a4	0f b6 94 14 a0
	01 00 00	 movzx	 edx, BYTE PTR qword$[rsp+rdx]
  008ac	bf 01 00 00 00	 mov	 edi, 1
  008b1	48 6b ff 0c	 imul	 rdi, rdi, 12
  008b5	0f b6 bc 3c a0
	01 00 00	 movzx	 edi, BYTE PTR qword$[rsp+rdi]
  008bd	41 b8 01 00 00
	00		 mov	 r8d, 1
  008c3	4d 6b c0 0b	 imul	 r8, r8, 11
  008c7	46 0f b6 84 04
	a0 01 00 00	 movzx	 r8d, BYTE PTR qword$[rsp+r8]
  008d0	41 b9 01 00 00
	00		 mov	 r9d, 1
  008d6	4d 6b c9 0a	 imul	 r9, r9, 10
  008da	46 0f b6 8c 0c
	a0 01 00 00	 movzx	 r9d, BYTE PTR qword$[rsp+r9]
  008e3	41 ba 01 00 00
	00		 mov	 r10d, 1
  008e9	4d 6b d2 09	 imul	 r10, r10, 9
  008ed	46 0f b6 94 14
	a0 01 00 00	 movzx	 r10d, BYTE PTR qword$[rsp+r10]
  008f6	41 bb 01 00 00
	00		 mov	 r11d, 1
  008fc	4d 6b db 08	 imul	 r11, r11, 8
  00900	46 0f b6 9c 1c
	a0 01 00 00	 movzx	 r11d, BYTE PTR qword$[rsp+r11]
  00909	89 44 24 58	 mov	 DWORD PTR [rsp+88], eax
  0090d	89 4c 24 50	 mov	 DWORD PTR [rsp+80], ecx
  00911	89 54 24 48	 mov	 DWORD PTR [rsp+72], edx
  00915	89 7c 24 40	 mov	 DWORD PTR [rsp+64], edi
  00919	44 89 44 24 38	 mov	 DWORD PTR [rsp+56], r8d
  0091e	44 89 4c 24 30	 mov	 DWORD PTR [rsp+48], r9d
  00923	44 89 54 24 28	 mov	 DWORD PTR [rsp+40], r10d
  00928	44 89 5c 24 20	 mov	 DWORD PTR [rsp+32], r11d
  0092d	4c 8d 0d 00 00
	00 00		 lea	 r9, OFFSET FLAT:$SG194748
  00934	41 b8 00 08 00
	00		 mov	 r8d, 2048		; 00000800H
  0093a	48 8d 94 24 50
	05 00 00	 lea	 rdx, QWORD PTR buf$[rsp]
  00942	8b 4c 24 64	 mov	 ecx, DWORD PTR n$[rsp]
  00946	ff 15 00 00 00
	00		 call	 QWORD PTR __imp_idx_snprintf
  0094c	8b 4c 24 64	 mov	 ecx, DWORD PTR n$[rsp]
  00950	03 c8		 add	 ecx, eax
  00952	8b c1		 mov	 eax, ecx
  00954	89 44 24 64	 mov	 DWORD PTR n$[rsp], eax

; 925  :                     "%2.2X%2.2X%2.2X%2.2X%2.2X%2.2X%2.2X%2.2X ",
; 926  :                     qword[8], qword[9], qword[10], qword[11],
; 927  :                     qword[12], qword[13], qword[14], qword[15]);
; 928  : #endif
; 929  : 
; 930  :         /* Format instruction line */
; 931  :                      n += idx_snprintf( n, buf, sizeof( buf ), "INST=%2.2X%2.2X", inst[0], inst[1] );

  00958	b8 01 00 00 00	 mov	 eax, 1
  0095d	48 6b c0 01	 imul	 rax, rax, 1
  00961	48 8b 8c 24 78
	15 00 00	 mov	 rcx, QWORD PTR inst$[rsp]
  00969	0f b6 04 01	 movzx	 eax, BYTE PTR [rcx+rax]
  0096d	b9 01 00 00 00	 mov	 ecx, 1
  00972	48 6b c9 00	 imul	 rcx, rcx, 0
  00976	48 8b 94 24 78
	15 00 00	 mov	 rdx, QWORD PTR inst$[rsp]
  0097e	0f b6 0c 0a	 movzx	 ecx, BYTE PTR [rdx+rcx]
  00982	89 44 24 28	 mov	 DWORD PTR [rsp+40], eax
  00986	89 4c 24 20	 mov	 DWORD PTR [rsp+32], ecx
  0098a	4c 8d 0d 00 00
	00 00		 lea	 r9, OFFSET FLAT:$SG194749
  00991	41 b8 00 08 00
	00		 mov	 r8d, 2048		; 00000800H
  00997	48 8d 94 24 50
	05 00 00	 lea	 rdx, QWORD PTR buf$[rsp]
  0099f	8b 4c 24 64	 mov	 ecx, DWORD PTR n$[rsp]
  009a3	ff 15 00 00 00
	00		 call	 QWORD PTR __imp_idx_snprintf
  009a9	8b 4c 24 64	 mov	 ecx, DWORD PTR n$[rsp]
  009ad	03 c8		 add	 ecx, eax
  009af	8b c1		 mov	 eax, ecx
  009b1	89 44 24 64	 mov	 DWORD PTR n$[rsp], eax

; 932  :         if (ilc > 2){n += idx_snprintf( n, buf, sizeof( buf ), "%2.2X%2.2X",      inst[2], inst[3] );}

  009b5	83 bc 24 88 00
	00 00 02	 cmp	 DWORD PTR ilc$[rsp], 2
  009bd	7e 5d		 jle	 SHORT $LN39@z900_displ
  009bf	b8 01 00 00 00	 mov	 eax, 1
  009c4	48 6b c0 03	 imul	 rax, rax, 3
  009c8	48 8b 8c 24 78
	15 00 00	 mov	 rcx, QWORD PTR inst$[rsp]
  009d0	0f b6 04 01	 movzx	 eax, BYTE PTR [rcx+rax]
  009d4	b9 01 00 00 00	 mov	 ecx, 1
  009d9	48 6b c9 02	 imul	 rcx, rcx, 2
  009dd	48 8b 94 24 78
	15 00 00	 mov	 rdx, QWORD PTR inst$[rsp]
  009e5	0f b6 0c 0a	 movzx	 ecx, BYTE PTR [rdx+rcx]
  009e9	89 44 24 28	 mov	 DWORD PTR [rsp+40], eax
  009ed	89 4c 24 20	 mov	 DWORD PTR [rsp+32], ecx
  009f1	4c 8d 0d 00 00
	00 00		 lea	 r9, OFFSET FLAT:$SG194751
  009f8	41 b8 00 08 00
	00		 mov	 r8d, 2048		; 00000800H
  009fe	48 8d 94 24 50
	05 00 00	 lea	 rdx, QWORD PTR buf$[rsp]
  00a06	8b 4c 24 64	 mov	 ecx, DWORD PTR n$[rsp]
  00a0a	ff 15 00 00 00
	00		 call	 QWORD PTR __imp_idx_snprintf
  00a10	8b 4c 24 64	 mov	 ecx, DWORD PTR n$[rsp]
  00a14	03 c8		 add	 ecx, eax
  00a16	8b c1		 mov	 eax, ecx
  00a18	89 44 24 64	 mov	 DWORD PTR n$[rsp], eax
$LN39@z900_displ:

; 933  :         if (ilc > 4){n += idx_snprintf( n, buf, sizeof( buf ), "%2.2X%2.2X",      inst[4], inst[5] );}

  00a1c	83 bc 24 88 00
	00 00 04	 cmp	 DWORD PTR ilc$[rsp], 4
  00a24	7e 5d		 jle	 SHORT $LN40@z900_displ
  00a26	b8 01 00 00 00	 mov	 eax, 1
  00a2b	48 6b c0 05	 imul	 rax, rax, 5
  00a2f	48 8b 8c 24 78
	15 00 00	 mov	 rcx, QWORD PTR inst$[rsp]
  00a37	0f b6 04 01	 movzx	 eax, BYTE PTR [rcx+rax]
  00a3b	b9 01 00 00 00	 mov	 ecx, 1
  00a40	48 6b c9 04	 imul	 rcx, rcx, 4
  00a44	48 8b 94 24 78
	15 00 00	 mov	 rdx, QWORD PTR inst$[rsp]
  00a4c	0f b6 0c 0a	 movzx	 ecx, BYTE PTR [rdx+rcx]
  00a50	89 44 24 28	 mov	 DWORD PTR [rsp+40], eax
  00a54	89 4c 24 20	 mov	 DWORD PTR [rsp+32], ecx
  00a58	4c 8d 0d 00 00
	00 00		 lea	 r9, OFFSET FLAT:$SG194753
  00a5f	41 b8 00 08 00
	00		 mov	 r8d, 2048		; 00000800H
  00a65	48 8d 94 24 50
	05 00 00	 lea	 rdx, QWORD PTR buf$[rsp]
  00a6d	8b 4c 24 64	 mov	 ecx, DWORD PTR n$[rsp]
  00a71	ff 15 00 00 00
	00		 call	 QWORD PTR __imp_idx_snprintf
  00a77	8b 4c 24 64	 mov	 ecx, DWORD PTR n$[rsp]
  00a7b	03 c8		 add	 ecx, eax
  00a7d	8b c1		 mov	 eax, ecx
  00a7f	89 44 24 64	 mov	 DWORD PTR n$[rsp], eax
$LN40@z900_displ:

; 934  :                      n += idx_snprintf( n, buf, sizeof( buf ), " %s", (ilc < 4) ? "        " :

  00a83	83 bc 24 88 00
	00 00 04	 cmp	 DWORD PTR ilc$[rsp], 4
  00a8b	7d 11		 jge	 SHORT $LN108@z900_displ
  00a8d	48 8d 05 00 00
	00 00		 lea	 rax, OFFSET FLAT:$SG194754
  00a94	48 89 84 24 f8
	00 00 00	 mov	 QWORD PTR tv438[rsp], rax
  00a9c	eb 3a		 jmp	 SHORT $LN109@z900_displ
$LN108@z900_displ:
  00a9e	83 bc 24 88 00
	00 00 06	 cmp	 DWORD PTR ilc$[rsp], 6
  00aa6	7d 11		 jge	 SHORT $LN106@z900_displ
  00aa8	48 8d 05 00 00
	00 00		 lea	 rax, OFFSET FLAT:$SG194755
  00aaf	48 89 84 24 f0
	00 00 00	 mov	 QWORD PTR tv437[rsp], rax
  00ab7	eb 0f		 jmp	 SHORT $LN107@z900_displ
$LN106@z900_displ:
  00ab9	48 8d 05 00 00
	00 00		 lea	 rax, OFFSET FLAT:$SG194756
  00ac0	48 89 84 24 f0
	00 00 00	 mov	 QWORD PTR tv437[rsp], rax
$LN107@z900_displ:
  00ac8	48 8b 84 24 f0
	00 00 00	 mov	 rax, QWORD PTR tv437[rsp]
  00ad0	48 89 84 24 f8
	00 00 00	 mov	 QWORD PTR tv438[rsp], rax
$LN109@z900_displ:
  00ad8	48 8b 84 24 f8
	00 00 00	 mov	 rax, QWORD PTR tv438[rsp]
  00ae0	48 89 44 24 20	 mov	 QWORD PTR [rsp+32], rax
  00ae5	4c 8d 0d 00 00
	00 00		 lea	 r9, OFFSET FLAT:$SG194757
  00aec	41 b8 00 08 00
	00		 mov	 r8d, 2048		; 00000800H
  00af2	48 8d 94 24 50
	05 00 00	 lea	 rdx, QWORD PTR buf$[rsp]
  00afa	8b 4c 24 64	 mov	 ecx, DWORD PTR n$[rsp]
  00afe	ff 15 00 00 00
	00		 call	 QWORD PTR __imp_idx_snprintf
  00b04	8b 4c 24 64	 mov	 ecx, DWORD PTR n$[rsp]
  00b08	03 c8		 add	 ecx, eax
  00b0a	8b c1		 mov	 eax, ecx
  00b0c	89 44 24 64	 mov	 DWORD PTR n$[rsp], eax

; 935  :                                                                       (ilc < 6) ? "    " : "" );
; 936  :         n += PRINT_INST( regs->arch_mode, inst, buf + n );

  00b10	48 63 44 24 64	 movsxd	 rax, DWORD PTR n$[rsp]
  00b15	48 8d 84 04 50
	05 00 00	 lea	 rax, QWORD PTR buf$[rsp+rax]
  00b1d	4c 8b c8	 mov	 r9, rax
  00b20	45 33 c0	 xor	 r8d, r8d
  00b23	48 8b 94 24 78
	15 00 00	 mov	 rdx, QWORD PTR inst$[rsp]
  00b2b	48 8b 44 24 68	 mov	 rax, QWORD PTR regs$[rsp]
  00b30	8b 48 64	 mov	 ecx, DWORD PTR [rax+100]
  00b33	e8 00 00 00 00	 call	 iprint_router_func
  00b38	8b 4c 24 64	 mov	 ecx, DWORD PTR n$[rsp]
  00b3c	03 c8		 add	 ecx, eax
  00b3e	8b c1		 mov	 eax, ecx
  00b40	89 44 24 64	 mov	 DWORD PTR n$[rsp], eax

; 937  :         MSGBUF( psw_inst_msg, MSG( HHC02324, "I", buf ));

  00b44	48 8d 84 24 50
	05 00 00	 lea	 rax, QWORD PTR buf$[rsp]
  00b4c	48 89 44 24 20	 mov	 QWORD PTR [rsp+32], rax
  00b51	4c 8d 0d 00 00
	00 00		 lea	 r9, OFFSET FLAT:$SG194758
  00b58	4c 8d 05 00 00
	00 00		 lea	 r8, OFFSET FLAT:$SG194759
  00b5f	ba a0 00 00 00	 mov	 edx, 160		; 000000a0H
  00b64	48 8d 8c 24 b0
	01 00 00	 lea	 rcx, QWORD PTR psw_inst_msg$[rsp]
  00b6c	ff 15 00 00 00
	00		 call	 QWORD PTR __imp_w32_snprintf
$LN37@z900_displ:

; 938  :     }
; 939  : 
; 940  :     n = 0;

  00b72	c7 44 24 64 00
	00 00 00	 mov	 DWORD PTR n$[rsp], 0

; 941  :     buf[0] = '\0';

  00b7a	b8 01 00 00 00	 mov	 eax, 1
  00b7f	48 6b c0 00	 imul	 rax, rax, 0
  00b83	48 89 84 24 00
	01 00 00	 mov	 QWORD PTR $T7[rsp], rax
  00b8b	48 81 bc 24 00
	01 00 00 00 08
	00 00		 cmp	 QWORD PTR $T7[rsp], 2048 ; 00000800H
  00b97	73 02		 jae	 SHORT $LN110@z900_displ
  00b99	eb 05		 jmp	 SHORT $LN111@z900_displ
$LN110@z900_displ:
  00b9b	e8 00 00 00 00	 call	 __report_rangecheckfailure
$LN111@z900_displ:
  00ba0	48 8b 84 24 00
	01 00 00	 mov	 rax, QWORD PTR $T7[rsp]
  00ba8	c6 84 04 50 05
	00 00 00	 mov	 BYTE PTR buf$[rsp+rax], 0

; 942  : 
; 943  :     /* Process the first storage operand */
; 944  :     if (1
; 945  :         && ilc > 2
; 946  :         && opcode != 0x84   // BRXH
; 947  :         && opcode != 0x85   // BRXLE
; 948  :         && opcode != 0xA5   // RI-x     (relative)
; 949  :         && opcode != 0xA7   // RI-x     (relative)
; 950  :         && opcode != 0xB3   // RRE/RRF
; 951  :         && opcode != 0xC0   // RIL-x    (relative)
; 952  :         && opcode != 0xC4   // RIL-x    (relative)
; 953  :         && opcode != 0xC6   // RIL-x    (relative)
; 954  :         && opcode != 0xEC   // RIE-x

  00bb0	33 c0		 xor	 eax, eax
  00bb2	83 f8 01	 cmp	 eax, 1
  00bb5	0f 84 fb 01 00
	00		 je	 $LN41@z900_displ
  00bbb	83 bc 24 88 00
	00 00 02	 cmp	 DWORD PTR ilc$[rsp], 2
  00bc3	0f 8e ed 01 00
	00		 jle	 $LN41@z900_displ
  00bc9	0f b6 44 24 60	 movzx	 eax, BYTE PTR opcode$[rsp]
  00bce	3d 84 00 00 00	 cmp	 eax, 132		; 00000084H
  00bd3	0f 84 dd 01 00
	00		 je	 $LN41@z900_displ
  00bd9	0f b6 44 24 60	 movzx	 eax, BYTE PTR opcode$[rsp]
  00bde	3d 85 00 00 00	 cmp	 eax, 133		; 00000085H
  00be3	0f 84 cd 01 00
	00		 je	 $LN41@z900_displ
  00be9	0f b6 44 24 60	 movzx	 eax, BYTE PTR opcode$[rsp]
  00bee	3d a5 00 00 00	 cmp	 eax, 165		; 000000a5H
  00bf3	0f 84 bd 01 00
	00		 je	 $LN41@z900_displ
  00bf9	0f b6 44 24 60	 movzx	 eax, BYTE PTR opcode$[rsp]
  00bfe	3d a7 00 00 00	 cmp	 eax, 167		; 000000a7H
  00c03	0f 84 ad 01 00
	00		 je	 $LN41@z900_displ
  00c09	0f b6 44 24 60	 movzx	 eax, BYTE PTR opcode$[rsp]
  00c0e	3d b3 00 00 00	 cmp	 eax, 179		; 000000b3H
  00c13	0f 84 9d 01 00
	00		 je	 $LN41@z900_displ
  00c19	0f b6 44 24 60	 movzx	 eax, BYTE PTR opcode$[rsp]
  00c1e	3d c0 00 00 00	 cmp	 eax, 192		; 000000c0H
  00c23	0f 84 8d 01 00
	00		 je	 $LN41@z900_displ
  00c29	0f b6 44 24 60	 movzx	 eax, BYTE PTR opcode$[rsp]
  00c2e	3d c4 00 00 00	 cmp	 eax, 196		; 000000c4H
  00c33	0f 84 7d 01 00
	00		 je	 $LN41@z900_displ
  00c39	0f b6 44 24 60	 movzx	 eax, BYTE PTR opcode$[rsp]
  00c3e	3d c6 00 00 00	 cmp	 eax, 198		; 000000c6H
  00c43	0f 84 6d 01 00
	00		 je	 $LN41@z900_displ
  00c49	0f b6 44 24 60	 movzx	 eax, BYTE PTR opcode$[rsp]
  00c4e	3d ec 00 00 00	 cmp	 eax, 236		; 000000ecH
  00c53	0f 84 5d 01 00
	00		 je	 $LN41@z900_displ

; 955  :     )
; 956  :     {
; 957  :         /* Calculate the effective address of the first operand */
; 958  :         b1 = inst[2] >> 4;

  00c59	b8 01 00 00 00	 mov	 eax, 1
  00c5e	48 6b c0 02	 imul	 rax, rax, 2
  00c62	48 8b 8c 24 78
	15 00 00	 mov	 rcx, QWORD PTR inst$[rsp]
  00c6a	0f b6 04 01	 movzx	 eax, BYTE PTR [rcx+rax]
  00c6e	c1 f8 04	 sar	 eax, 4
  00c71	89 44 24 74	 mov	 DWORD PTR b1$[rsp], eax

; 959  :         addr1 = ((inst[2] & 0x0F) << 8) | inst[3];

  00c75	b8 01 00 00 00	 mov	 eax, 1
  00c7a	48 6b c0 02	 imul	 rax, rax, 2
  00c7e	48 8b 8c 24 78
	15 00 00	 mov	 rcx, QWORD PTR inst$[rsp]
  00c86	0f b6 04 01	 movzx	 eax, BYTE PTR [rcx+rax]
  00c8a	83 e0 0f	 and	 eax, 15
  00c8d	c1 e0 08	 shl	 eax, 8
  00c90	b9 01 00 00 00	 mov	 ecx, 1
  00c95	48 6b c9 03	 imul	 rcx, rcx, 3
  00c99	48 8b 94 24 78
	15 00 00	 mov	 rdx, QWORD PTR inst$[rsp]
  00ca1	0f b6 0c 0a	 movzx	 ecx, BYTE PTR [rdx+rcx]
  00ca5	0b c1		 or	 eax, ecx
  00ca7	48 98		 cdqe
  00ca9	48 89 84 24 80
	00 00 00	 mov	 QWORD PTR addr1$[rsp], rax

; 960  :         if (b1 != 0)

  00cb1	83 7c 24 74 00	 cmp	 DWORD PTR b1$[rsp], 0
  00cb6	74 4a		 je	 SHORT $LN42@z900_displ

; 961  :         {
; 962  :             addr1 += regs->GR( b1 );

  00cb8	48 63 44 24 74	 movsxd	 rax, DWORD PTR b1$[rsp]
  00cbd	48 8b 4c 24 68	 mov	 rcx, QWORD PTR regs$[rsp]
  00cc2	48 8b 84 c1 80
	02 00 00	 mov	 rax, QWORD PTR [rcx+rax*8+640]
  00cca	48 8b 8c 24 80
	00 00 00	 mov	 rcx, QWORD PTR addr1$[rsp]
  00cd2	48 03 c8	 add	 rcx, rax
  00cd5	48 8b c1	 mov	 rax, rcx
  00cd8	48 89 84 24 80
	00 00 00	 mov	 QWORD PTR addr1$[rsp], rax

; 963  :             addr1 &= ADDRESS_MAXWRAP( regs );

  00ce0	48 8b 44 24 68	 mov	 rax, QWORD PTR regs$[rsp]
  00ce5	48 8b 80 90 00
	00 00		 mov	 rax, QWORD PTR [rax+144]
  00cec	48 8b 8c 24 80
	00 00 00	 mov	 rcx, QWORD PTR addr1$[rsp]
  00cf4	48 23 c8	 and	 rcx, rax
  00cf7	48 8b c1	 mov	 rax, rcx
  00cfa	48 89 84 24 80
	00 00 00	 mov	 QWORD PTR addr1$[rsp], rax
$LN42@z900_displ:

; 964  :         }
; 965  : 
; 966  :         /* Apply indexing for RX/RXE/RXF instructions */
; 967  :         if (0
; 968  :             || (opcode >= 0x40 && opcode <= 0x7F)
; 969  :             ||  opcode == 0xB1   // LRA
; 970  :             ||  opcode == 0xE3   // RXY-x
; 971  :             ||  opcode == 0xED   // RXE-x, RXF-x, RXY-x, RSL-x

  00d02	33 c0		 xor	 eax, eax
  00d04	85 c0		 test	 eax, eax
  00d06	75 38		 jne	 SHORT $LN44@z900_displ
  00d08	0f b6 44 24 60	 movzx	 eax, BYTE PTR opcode$[rsp]
  00d0d	83 f8 40	 cmp	 eax, 64			; 00000040H
  00d10	7c 0a		 jl	 SHORT $LN45@z900_displ
  00d12	0f b6 44 24 60	 movzx	 eax, BYTE PTR opcode$[rsp]
  00d17	83 f8 7f	 cmp	 eax, 127		; 0000007fH
  00d1a	7e 24		 jle	 SHORT $LN44@z900_displ
$LN45@z900_displ:
  00d1c	0f b6 44 24 60	 movzx	 eax, BYTE PTR opcode$[rsp]
  00d21	3d b1 00 00 00	 cmp	 eax, 177		; 000000b1H
  00d26	74 18		 je	 SHORT $LN44@z900_displ
  00d28	0f b6 44 24 60	 movzx	 eax, BYTE PTR opcode$[rsp]
  00d2d	3d e3 00 00 00	 cmp	 eax, 227		; 000000e3H
  00d32	74 0c		 je	 SHORT $LN44@z900_displ
  00d34	0f b6 44 24 60	 movzx	 eax, BYTE PTR opcode$[rsp]
  00d39	3d ed 00 00 00	 cmp	 eax, 237		; 000000edH
  00d3e	75 76		 jne	 SHORT $LN43@z900_displ
$LN44@z900_displ:

; 972  :         )
; 973  :         {
; 974  :             x1 = inst[1] & 0x0F;

  00d40	b8 01 00 00 00	 mov	 eax, 1
  00d45	48 6b c0 01	 imul	 rax, rax, 1
  00d49	48 8b 8c 24 78
	15 00 00	 mov	 rcx, QWORD PTR inst$[rsp]
  00d51	0f b6 04 01	 movzx	 eax, BYTE PTR [rcx+rax]
  00d55	83 e0 0f	 and	 eax, 15
  00d58	89 84 24 b4 00
	00 00		 mov	 DWORD PTR x1$[rsp], eax

; 975  :             if (x1 != 0)

  00d5f	83 bc 24 b4 00
	00 00 00	 cmp	 DWORD PTR x1$[rsp], 0
  00d67	74 4d		 je	 SHORT $LN46@z900_displ

; 976  :             {
; 977  :                 addr1 += regs->GR( x1 );

  00d69	48 63 84 24 b4
	00 00 00	 movsxd	 rax, DWORD PTR x1$[rsp]
  00d71	48 8b 4c 24 68	 mov	 rcx, QWORD PTR regs$[rsp]
  00d76	48 8b 84 c1 80
	02 00 00	 mov	 rax, QWORD PTR [rcx+rax*8+640]
  00d7e	48 8b 8c 24 80
	00 00 00	 mov	 rcx, QWORD PTR addr1$[rsp]
  00d86	48 03 c8	 add	 rcx, rax
  00d89	48 8b c1	 mov	 rax, rcx
  00d8c	48 89 84 24 80
	00 00 00	 mov	 QWORD PTR addr1$[rsp], rax

; 978  :                 addr1 &= ADDRESS_MAXWRAP( regs );

  00d94	48 8b 44 24 68	 mov	 rax, QWORD PTR regs$[rsp]
  00d99	48 8b 80 90 00
	00 00		 mov	 rax, QWORD PTR [rax+144]
  00da0	48 8b 8c 24 80
	00 00 00	 mov	 rcx, QWORD PTR addr1$[rsp]
  00da8	48 23 c8	 and	 rcx, rax
  00dab	48 8b c1	 mov	 rax, rcx
  00dae	48 89 84 24 80
	00 00 00	 mov	 QWORD PTR addr1$[rsp], rax
$LN46@z900_displ:
$LN43@z900_displ:
$LN41@z900_displ:

; 979  :             }
; 980  :         }
; 981  :     }
; 982  : 
; 983  :     /* Process the second storage operand */
; 984  :     if (1
; 985  :         && ilc > 4
; 986  :         && opcode != 0xC0   // RIL-x    (relative)
; 987  :         && opcode != 0xC4   // RIL-x    (relative)
; 988  :         && opcode != 0xC6   // RIL-x    (relative)
; 989  :         && opcode != 0xE3   // RXY-x
; 990  :         && opcode != 0xEB   // RSY-x, SIY-x
; 991  :         && opcode != 0xEC   // RIE-x
; 992  :         && opcode != 0xED   // RXE-x, RXF-x, RXY-x, RSL-x

  00db6	33 c0		 xor	 eax, eax
  00db8	83 f8 01	 cmp	 eax, 1
  00dbb	0f 84 27 01 00
	00		 je	 $LN47@z900_displ
  00dc1	83 bc 24 88 00
	00 00 04	 cmp	 DWORD PTR ilc$[rsp], 4
  00dc9	0f 8e 19 01 00
	00		 jle	 $LN47@z900_displ
  00dcf	0f b6 44 24 60	 movzx	 eax, BYTE PTR opcode$[rsp]
  00dd4	3d c0 00 00 00	 cmp	 eax, 192		; 000000c0H
  00dd9	0f 84 09 01 00
	00		 je	 $LN47@z900_displ
  00ddf	0f b6 44 24 60	 movzx	 eax, BYTE PTR opcode$[rsp]
  00de4	3d c4 00 00 00	 cmp	 eax, 196		; 000000c4H
  00de9	0f 84 f9 00 00
	00		 je	 $LN47@z900_displ
  00def	0f b6 44 24 60	 movzx	 eax, BYTE PTR opcode$[rsp]
  00df4	3d c6 00 00 00	 cmp	 eax, 198		; 000000c6H
  00df9	0f 84 e9 00 00
	00		 je	 $LN47@z900_displ
  00dff	0f b6 44 24 60	 movzx	 eax, BYTE PTR opcode$[rsp]
  00e04	3d e3 00 00 00	 cmp	 eax, 227		; 000000e3H
  00e09	0f 84 d9 00 00
	00		 je	 $LN47@z900_displ
  00e0f	0f b6 44 24 60	 movzx	 eax, BYTE PTR opcode$[rsp]
  00e14	3d eb 00 00 00	 cmp	 eax, 235		; 000000ebH
  00e19	0f 84 c9 00 00
	00		 je	 $LN47@z900_displ
  00e1f	0f b6 44 24 60	 movzx	 eax, BYTE PTR opcode$[rsp]
  00e24	3d ec 00 00 00	 cmp	 eax, 236		; 000000ecH
  00e29	0f 84 b9 00 00
	00		 je	 $LN47@z900_displ
  00e2f	0f b6 44 24 60	 movzx	 eax, BYTE PTR opcode$[rsp]
  00e34	3d ed 00 00 00	 cmp	 eax, 237		; 000000edH
  00e39	0f 84 a9 00 00
	00		 je	 $LN47@z900_displ

; 993  :     )
; 994  :     {
; 995  :         /* Calculate the effective address of the second operand */
; 996  :         b2 = inst[4] >> 4;

  00e3f	b8 01 00 00 00	 mov	 eax, 1
  00e44	48 6b c0 04	 imul	 rax, rax, 4
  00e48	48 8b 8c 24 78
	15 00 00	 mov	 rcx, QWORD PTR inst$[rsp]
  00e50	0f b6 04 01	 movzx	 eax, BYTE PTR [rcx+rax]
  00e54	c1 f8 04	 sar	 eax, 4
  00e57	89 44 24 78	 mov	 DWORD PTR b2$[rsp], eax

; 997  :         addr2 = ((inst[4] & 0x0F) << 8) | inst[5];

  00e5b	b8 01 00 00 00	 mov	 eax, 1
  00e60	48 6b c0 04	 imul	 rax, rax, 4
  00e64	48 8b 8c 24 78
	15 00 00	 mov	 rcx, QWORD PTR inst$[rsp]
  00e6c	0f b6 04 01	 movzx	 eax, BYTE PTR [rcx+rax]
  00e70	83 e0 0f	 and	 eax, 15
  00e73	c1 e0 08	 shl	 eax, 8
  00e76	b9 01 00 00 00	 mov	 ecx, 1
  00e7b	48 6b c9 05	 imul	 rcx, rcx, 5
  00e7f	48 8b 94 24 78
	15 00 00	 mov	 rdx, QWORD PTR inst$[rsp]
  00e87	0f b6 0c 0a	 movzx	 ecx, BYTE PTR [rdx+rcx]
  00e8b	0b c1		 or	 eax, ecx
  00e8d	48 98		 cdqe
  00e8f	48 89 84 24 90
	00 00 00	 mov	 QWORD PTR addr2$[rsp], rax

; 998  :         if (b2 != 0)

  00e97	83 7c 24 78 00	 cmp	 DWORD PTR b2$[rsp], 0
  00e9c	74 4a		 je	 SHORT $LN48@z900_displ

; 999  :         {
; 1000 :             addr2 += regs->GR( b2 );

  00e9e	48 63 44 24 78	 movsxd	 rax, DWORD PTR b2$[rsp]
  00ea3	48 8b 4c 24 68	 mov	 rcx, QWORD PTR regs$[rsp]
  00ea8	48 8b 84 c1 80
	02 00 00	 mov	 rax, QWORD PTR [rcx+rax*8+640]
  00eb0	48 8b 8c 24 90
	00 00 00	 mov	 rcx, QWORD PTR addr2$[rsp]
  00eb8	48 03 c8	 add	 rcx, rax
  00ebb	48 8b c1	 mov	 rax, rcx
  00ebe	48 89 84 24 90
	00 00 00	 mov	 QWORD PTR addr2$[rsp], rax

; 1001 :             addr2 &= ADDRESS_MAXWRAP( regs );

  00ec6	48 8b 44 24 68	 mov	 rax, QWORD PTR regs$[rsp]
  00ecb	48 8b 80 90 00
	00 00		 mov	 rax, QWORD PTR [rax+144]
  00ed2	48 8b 8c 24 90
	00 00 00	 mov	 rcx, QWORD PTR addr2$[rsp]
  00eda	48 23 c8	 and	 rcx, rax
  00edd	48 8b c1	 mov	 rax, rcx
  00ee0	48 89 84 24 90
	00 00 00	 mov	 QWORD PTR addr2$[rsp], rax
$LN48@z900_displ:
$LN47@z900_displ:

; 1002 :         }
; 1003 :     }
; 1004 : 
; 1005 :     /* Calculate the operand addresses for MVCL(E) and CLCL(E) */
; 1006 :     if (0
; 1007 :         || opcode == 0x0E   // MVCL
; 1008 :         || opcode == 0x0F   // CLCL
; 1009 :         || opcode == 0xA8   // MVCLE
; 1010 :         || opcode == 0xA9   // CLCLE

  00ee8	33 c0		 xor	 eax, eax
  00eea	85 c0		 test	 eax, eax
  00eec	75 30		 jne	 SHORT $LN50@z900_displ
  00eee	0f b6 44 24 60	 movzx	 eax, BYTE PTR opcode$[rsp]
  00ef3	83 f8 0e	 cmp	 eax, 14
  00ef6	74 26		 je	 SHORT $LN50@z900_displ
  00ef8	0f b6 44 24 60	 movzx	 eax, BYTE PTR opcode$[rsp]
  00efd	83 f8 0f	 cmp	 eax, 15
  00f00	74 1c		 je	 SHORT $LN50@z900_displ
  00f02	0f b6 44 24 60	 movzx	 eax, BYTE PTR opcode$[rsp]
  00f07	3d a8 00 00 00	 cmp	 eax, 168		; 000000a8H
  00f0c	74 10		 je	 SHORT $LN50@z900_displ
  00f0e	0f b6 44 24 60	 movzx	 eax, BYTE PTR opcode$[rsp]
  00f13	3d a9 00 00 00	 cmp	 eax, 169		; 000000a9H
  00f18	0f 85 8a 00 00
	00		 jne	 $LN49@z900_displ
$LN50@z900_displ:

; 1011 :     )
; 1012 :     {
; 1013 :         b1 = inst[1] >> 4;   addr1 = regs->GR( b1 ) & ADDRESS_MAXWRAP( regs );

  00f1e	b8 01 00 00 00	 mov	 eax, 1
  00f23	48 6b c0 01	 imul	 rax, rax, 1
  00f27	48 8b 8c 24 78
	15 00 00	 mov	 rcx, QWORD PTR inst$[rsp]
  00f2f	0f b6 04 01	 movzx	 eax, BYTE PTR [rcx+rax]
  00f33	c1 f8 04	 sar	 eax, 4
  00f36	89 44 24 74	 mov	 DWORD PTR b1$[rsp], eax
  00f3a	48 63 44 24 74	 movsxd	 rax, DWORD PTR b1$[rsp]
  00f3f	48 8b 4c 24 68	 mov	 rcx, QWORD PTR regs$[rsp]
  00f44	48 8b 54 24 68	 mov	 rdx, QWORD PTR regs$[rsp]
  00f49	48 8b 92 90 00
	00 00		 mov	 rdx, QWORD PTR [rdx+144]
  00f50	48 8b 84 c1 80
	02 00 00	 mov	 rax, QWORD PTR [rcx+rax*8+640]
  00f58	48 23 c2	 and	 rax, rdx
  00f5b	48 89 84 24 80
	00 00 00	 mov	 QWORD PTR addr1$[rsp], rax

; 1014 :         b2 = inst[1] & 0x0F; addr2 = regs->GR( b2 ) & ADDRESS_MAXWRAP( regs );

  00f63	b8 01 00 00 00	 mov	 eax, 1
  00f68	48 6b c0 01	 imul	 rax, rax, 1
  00f6c	48 8b 8c 24 78
	15 00 00	 mov	 rcx, QWORD PTR inst$[rsp]
  00f74	0f b6 04 01	 movzx	 eax, BYTE PTR [rcx+rax]
  00f78	83 e0 0f	 and	 eax, 15
  00f7b	89 44 24 78	 mov	 DWORD PTR b2$[rsp], eax
  00f7f	48 63 44 24 78	 movsxd	 rax, DWORD PTR b2$[rsp]
  00f84	48 8b 4c 24 68	 mov	 rcx, QWORD PTR regs$[rsp]
  00f89	48 8b 54 24 68	 mov	 rdx, QWORD PTR regs$[rsp]
  00f8e	48 8b 92 90 00
	00 00		 mov	 rdx, QWORD PTR [rdx+144]
  00f95	48 8b 84 c1 80
	02 00 00	 mov	 rax, QWORD PTR [rcx+rax*8+640]
  00f9d	48 23 c2	 and	 rax, rdx
  00fa0	48 89 84 24 90
	00 00 00	 mov	 QWORD PTR addr2$[rsp], rax
$LN49@z900_displ:

; 1015 :     }
; 1016 : 
; 1017 :     /* Calculate the operand addresses for RRE instructions */
; 1018 :     if (0
; 1019 :         || (opcode == 0xB2 &&
; 1020 :             (0
; 1021 :              || (inst[1] >= 0x20 && inst[1] <= 0x2F)
; 1022 :              || (inst[1] >= 0x40 && inst[1] <= 0x6F)
; 1023 :              || (inst[1] >= 0xA0 && inst[1] <= 0xAF)
; 1024 :             )
; 1025 :            )
; 1026 :         || (opcode == 0xB9 &&

  00fa8	33 c0		 xor	 eax, eax
  00faa	85 c0		 test	 eax, eax
  00fac	0f 85 2a 01 00
	00		 jne	 $LN52@z900_displ
  00fb2	0f b6 44 24 60	 movzx	 eax, BYTE PTR opcode$[rsp]
  00fb7	3d b2 00 00 00	 cmp	 eax, 178		; 000000b2H
  00fbc	0f 85 b2 00 00
	00		 jne	 $LN53@z900_displ
  00fc2	33 c0		 xor	 eax, eax
  00fc4	85 c0		 test	 eax, eax
  00fc6	0f 85 10 01 00
	00		 jne	 $LN52@z900_displ
  00fcc	b8 01 00 00 00	 mov	 eax, 1
  00fd1	48 6b c0 01	 imul	 rax, rax, 1
  00fd5	48 8b 8c 24 78
	15 00 00	 mov	 rcx, QWORD PTR inst$[rsp]
  00fdd	0f b6 04 01	 movzx	 eax, BYTE PTR [rcx+rax]
  00fe1	83 f8 20	 cmp	 eax, 32			; 00000020H
  00fe4	7c 1e		 jl	 SHORT $LN54@z900_displ
  00fe6	b8 01 00 00 00	 mov	 eax, 1
  00feb	48 6b c0 01	 imul	 rax, rax, 1
  00fef	48 8b 8c 24 78
	15 00 00	 mov	 rcx, QWORD PTR inst$[rsp]
  00ff7	0f b6 04 01	 movzx	 eax, BYTE PTR [rcx+rax]
  00ffb	83 f8 2f	 cmp	 eax, 47			; 0000002fH
  00ffe	0f 8e d8 00 00
	00		 jle	 $LN52@z900_displ
$LN54@z900_displ:
  01004	b8 01 00 00 00	 mov	 eax, 1
  01009	48 6b c0 01	 imul	 rax, rax, 1
  0100d	48 8b 8c 24 78
	15 00 00	 mov	 rcx, QWORD PTR inst$[rsp]
  01015	0f b6 04 01	 movzx	 eax, BYTE PTR [rcx+rax]
  01019	83 f8 40	 cmp	 eax, 64			; 00000040H
  0101c	7c 1e		 jl	 SHORT $LN55@z900_displ
  0101e	b8 01 00 00 00	 mov	 eax, 1
  01023	48 6b c0 01	 imul	 rax, rax, 1
  01027	48 8b 8c 24 78
	15 00 00	 mov	 rcx, QWORD PTR inst$[rsp]
  0102f	0f b6 04 01	 movzx	 eax, BYTE PTR [rcx+rax]
  01033	83 f8 6f	 cmp	 eax, 111		; 0000006fH
  01036	0f 8e a0 00 00
	00		 jle	 $LN52@z900_displ
$LN55@z900_displ:
  0103c	b8 01 00 00 00	 mov	 eax, 1
  01041	48 6b c0 01	 imul	 rax, rax, 1
  01045	48 8b 8c 24 78
	15 00 00	 mov	 rcx, QWORD PTR inst$[rsp]
  0104d	0f b6 04 01	 movzx	 eax, BYTE PTR [rcx+rax]
  01051	3d a0 00 00 00	 cmp	 eax, 160		; 000000a0H
  01056	7c 1c		 jl	 SHORT $LN56@z900_displ
  01058	b8 01 00 00 00	 mov	 eax, 1
  0105d	48 6b c0 01	 imul	 rax, rax, 1
  01061	48 8b 8c 24 78
	15 00 00	 mov	 rcx, QWORD PTR inst$[rsp]
  01069	0f b6 04 01	 movzx	 eax, BYTE PTR [rcx+rax]
  0106d	3d af 00 00 00	 cmp	 eax, 175		; 000000afH
  01072	7e 68		 jle	 SHORT $LN52@z900_displ
$LN56@z900_displ:
$LN53@z900_displ:
  01074	0f b6 44 24 60	 movzx	 eax, BYTE PTR opcode$[rsp]
  01079	3d b9 00 00 00	 cmp	 eax, 185		; 000000b9H
  0107e	0f 85 41 01 00
	00		 jne	 $LN51@z900_displ
  01084	33 c0		 xor	 eax, eax
  01086	85 c0		 test	 eax, eax
  01088	75 52		 jne	 SHORT $LN57@z900_displ
  0108a	b8 01 00 00 00	 mov	 eax, 1
  0108f	48 6b c0 01	 imul	 rax, rax, 1
  01093	48 8b 8c 24 78
	15 00 00	 mov	 rcx, QWORD PTR inst$[rsp]
  0109b	0f b6 04 01	 movzx	 eax, BYTE PTR [rcx+rax]
  0109f	83 f8 05	 cmp	 eax, 5
  010a2	74 38		 je	 SHORT $LN57@z900_displ
  010a4	b8 01 00 00 00	 mov	 eax, 1
  010a9	48 6b c0 01	 imul	 rax, rax, 1
  010ad	48 8b 8c 24 78
	15 00 00	 mov	 rcx, QWORD PTR inst$[rsp]
  010b5	0f b6 04 01	 movzx	 eax, BYTE PTR [rcx+rax]
  010b9	83 f8 25	 cmp	 eax, 37			; 00000025H
  010bc	74 1e		 je	 SHORT $LN57@z900_displ
  010be	b8 01 00 00 00	 mov	 eax, 1
  010c3	48 6b c0 01	 imul	 rax, rax, 1
  010c7	48 8b 8c 24 78
	15 00 00	 mov	 rcx, QWORD PTR inst$[rsp]
  010cf	0f b6 04 01	 movzx	 eax, BYTE PTR [rcx+rax]
  010d3	83 f8 31	 cmp	 eax, 49			; 00000031H
  010d6	0f 8c e9 00 00
	00		 jl	 $LN51@z900_displ
$LN57@z900_displ:
$LN52@z900_displ:

; 1027 :             (0
; 1028 :              || (inst[1] == 0x05)   // LURAG
; 1029 :              || (inst[1] == 0x25)   // STURG
; 1030 :              || (inst[1] >= 0x31)   // CLGFR
; 1031 :             )
; 1032 :            )
; 1033 :     )
; 1034 :     {
; 1035 :         b1 = inst[3] >> 4;

  010dc	b8 01 00 00 00	 mov	 eax, 1
  010e1	48 6b c0 03	 imul	 rax, rax, 3
  010e5	48 8b 8c 24 78
	15 00 00	 mov	 rcx, QWORD PTR inst$[rsp]
  010ed	0f b6 04 01	 movzx	 eax, BYTE PTR [rcx+rax]
  010f1	c1 f8 04	 sar	 eax, 4
  010f4	89 44 24 74	 mov	 DWORD PTR b1$[rsp], eax

; 1036 :         addr1 = regs->GR( b1 ) & ADDRESS_MAXWRAP( regs );

  010f8	48 63 44 24 74	 movsxd	 rax, DWORD PTR b1$[rsp]
  010fd	48 8b 4c 24 68	 mov	 rcx, QWORD PTR regs$[rsp]
  01102	48 8b 54 24 68	 mov	 rdx, QWORD PTR regs$[rsp]
  01107	48 8b 92 90 00
	00 00		 mov	 rdx, QWORD PTR [rdx+144]
  0110e	48 8b 84 c1 80
	02 00 00	 mov	 rax, QWORD PTR [rcx+rax*8+640]
  01116	48 23 c2	 and	 rax, rdx
  01119	48 89 84 24 80
	00 00 00	 mov	 QWORD PTR addr1$[rsp], rax

; 1037 :         b2 = inst[3] & 0x0F;

  01121	b8 01 00 00 00	 mov	 eax, 1
  01126	48 6b c0 03	 imul	 rax, rax, 3
  0112a	48 8b 8c 24 78
	15 00 00	 mov	 rcx, QWORD PTR inst$[rsp]
  01132	0f b6 04 01	 movzx	 eax, BYTE PTR [rcx+rax]
  01136	83 e0 0f	 and	 eax, 15
  01139	89 44 24 78	 mov	 DWORD PTR b2$[rsp], eax

; 1038 :         if (inst[1] >= 0x29 && inst[1] <= 0x2C)

  0113d	b8 01 00 00 00	 mov	 eax, 1
  01142	48 6b c0 01	 imul	 rax, rax, 1
  01146	48 8b 8c 24 78
	15 00 00	 mov	 rcx, QWORD PTR inst$[rsp]
  0114e	0f b6 04 01	 movzx	 eax, BYTE PTR [rcx+rax]
  01152	83 f8 29	 cmp	 eax, 41			; 00000029H
  01155	7c 45		 jl	 SHORT $LN58@z900_displ
  01157	b8 01 00 00 00	 mov	 eax, 1
  0115c	48 6b c0 01	 imul	 rax, rax, 1
  01160	48 8b 8c 24 78
	15 00 00	 mov	 rcx, QWORD PTR inst$[rsp]
  01168	0f b6 04 01	 movzx	 eax, BYTE PTR [rcx+rax]
  0116c	83 f8 2c	 cmp	 eax, 44			; 0000002cH
  0116f	7f 2b		 jg	 SHORT $LN58@z900_displ

; 1039 :             addr2 = regs->GR( b2 ) & ADDRESS_MAXWRAP_E( regs );

  01171	48 63 44 24 78	 movsxd	 rax, DWORD PTR b2$[rsp]
  01176	48 8b 4c 24 68	 mov	 rcx, QWORD PTR regs$[rsp]
  0117b	48 8b 54 24 68	 mov	 rdx, QWORD PTR regs$[rsp]
  01180	48 8b 92 90 00
	00 00		 mov	 rdx, QWORD PTR [rdx+144]
  01187	48 8b 84 c1 80
	02 00 00	 mov	 rax, QWORD PTR [rcx+rax*8+640]
  0118f	48 23 c2	 and	 rax, rdx
  01192	48 89 84 24 90
	00 00 00	 mov	 QWORD PTR addr2$[rsp], rax
  0119a	eb 29		 jmp	 SHORT $LN59@z900_displ
$LN58@z900_displ:

; 1040 :         else
; 1041 :             addr2 = regs->GR( b2 ) & ADDRESS_MAXWRAP( regs );

  0119c	48 63 44 24 78	 movsxd	 rax, DWORD PTR b2$[rsp]
  011a1	48 8b 4c 24 68	 mov	 rcx, QWORD PTR regs$[rsp]
  011a6	48 8b 54 24 68	 mov	 rdx, QWORD PTR regs$[rsp]
  011ab	48 8b 92 90 00
	00 00		 mov	 rdx, QWORD PTR [rdx+144]
  011b2	48 8b 84 c1 80
	02 00 00	 mov	 rax, QWORD PTR [rcx+rax*8+640]
  011ba	48 23 c2	 and	 rax, rdx
  011bd	48 89 84 24 90
	00 00 00	 mov	 QWORD PTR addr2$[rsp], rax
$LN59@z900_displ:
$LN51@z900_displ:

; 1042 :     }
