; Listing generated by Microsoft (R) Optimizing Compiler Version 19.34.31937.0 

include listing.inc

INCLUDELIB MSVCRTD
INCLUDELIB OLDNAMES

_DATA	SEGMENT
$SG159831 DB	'CP', 00H
	ORG $+5
$SG159832 DB	'CP              ', 00H
	ORG $+3
$SG159833 DB	'??', 00H
	ORG $+1
$SG159834 DB	'                ', 00H
	ORG $+3
$SG159835 DB	'AP', 00H
	ORG $+1
$SG159836 DB	'ZAAP            ', 00H
	ORG $+3
$SG159837 DB	'IL', 00H
	ORG $+1
$SG159838 DB	'IFL             ', 00H
	ORG $+3
$SG159839 DB	'CF', 00H
	ORG $+1
$SG159840 DB	'ICF             ', 00H
	ORG $+3
$SG159841 DB	'IP', 00H
	ORG $+1
$SG159842 DB	'ZIIP            ', 00H
	ORG $+3
$SG160004 DB	'Sense', 00H
	ORG $+6
$SG159928 DB	'Operation exception', 00H
	ORG $+4
$SG159929 DB	'Privileged-operation exception', 00H
	ORG $+1
$SG159930 DB	'Execute exception', 00H
	ORG $+6
$SG159931 DB	'Protection exception', 00H
	ORG $+3
$SG159932 DB	'Addressing exception', 00H
	ORG $+3
$SG159933 DB	'Specification exception', 00H
$SG159934 DB	'Data exception', 00H
	ORG $+1
$SG159935 DB	'Fixed-point-overflow exception', 00H
	ORG $+1
$SG159936 DB	'Fixed-point-divide exception', 00H
	ORG $+3
$SG159937 DB	'Decimal-overflow exception', 00H
	ORG $+5
$SG159938 DB	'Decimal-divide exception', 00H
	ORG $+7
$SG159939 DB	'HFP-exponent-overflow exception', 00H
$SG159940 DB	'HFP-exponent-underflow exception', 00H
	ORG $+7
$SG159941 DB	'HFP-significance exception', 00H
	ORG $+5
$SG159942 DB	'HFP-floating-point-divide exception', 00H
	ORG $+4
$SG159943 DB	'Segment-translation exception', 00H
	ORG $+2
$SG159944 DB	'Page-translation exception', 00H
	ORG $+5
$SG159945 DB	'Translation-specification exception', 00H
	ORG $+4
$SG159946 DB	'Special-operation exception', 00H
	ORG $+4
$SG159947 DB	'Pseudo-page-fault exception', 00H
	ORG $+4
$SG159948 DB	'Operand exception', 00H
	ORG $+6
$SG159949 DB	'Trace-table exception', 00H
	ORG $+2
$SG159950 DB	'ASN-translation exception', 00H
	ORG $+6
$SG159951 DB	'Transaction constraint exception', 00H
	ORG $+7
$SG159952 DB	'Vector/Crypto operation exception', 00H
	ORG $+6
$SG159953 DB	'Page state exception', 00H
	ORG $+3
$SG159954 DB	'Vector processing exception', 00H
	ORG $+4
$SG159955 DB	'Space-switch event', 00H
	ORG $+5
$SG159956 DB	'Square-root exception', 00H
	ORG $+2
$SG159957 DB	'Unnormalized-operand exception', 00H
	ORG $+1
$SG159958 DB	'PC-translation specification exception', 00H
	ORG $+1
$SG159959 DB	'AFX-translation exception', 00H
	ORG $+6
$SG159960 DB	'ASX-translation exception', 00H
	ORG $+6
$SG159961 DB	'LX-translation exception', 00H
	ORG $+7
$SG159962 DB	'EX-translation exception', 00H
	ORG $+7
$SG159963 DB	'Primary-authority exception', 00H
	ORG $+4
$SG159964 DB	'Secondary-authority exception', 00H
	ORG $+2
$SG159965 DB	'LFX-translation exception', 00H
	ORG $+6
$SG159966 DB	'LSX-translation exception', 00H
	ORG $+6
$SG159967 DB	'ALET-specification exception', 00H
	ORG $+3
$SG159968 DB	'ALEN-translation exception', 00H
	ORG $+5
$SG159969 DB	'ALE-sequence exception', 00H
	ORG $+1
$SG159970 DB	'ASTE-validity exception', 00H
$SG159971 DB	'ASTE-sequence exception', 00H
$SG159972 DB	'Extended-authority exception', 00H
	ORG $+3
$SG159973 DB	'LSTE-sequence exception', 00H
$SG159974 DB	'ASTE-instance exception', 00H
$SG159975 DB	'Stack-full exception', 00H
	ORG $+3
$SG159976 DB	'Stack-empty exception', 00H
	ORG $+2
$SG159977 DB	'Stack-specification exception', 00H
	ORG $+2
$SG159978 DB	'Stack-type exception', 00H
	ORG $+3
$SG159979 DB	'Stack-operation exception', 00H
	ORG $+6
$SG159980 DB	'Unassigned exception', 00H
	ORG $+3
$SG159981 DB	'Unassigned exception', 00H
	ORG $+3
$SG159982 DB	'Unassigned exception', 00H
	ORG $+3
$SG159983 DB	'ASCE-type exception', 00H
	ORG $+4
$SG159984 DB	'Region-first-translation exception', 00H
	ORG $+5
$SG159985 DB	'Region-second-translation exception', 00H
	ORG $+4
$SG159986 DB	'Region-third-translation exception', 00H
	ORG $+5
$SG159987 DB	'Unassigned exception', 00H
	ORG $+3
$SG159988 DB	'Unassigned exception', 00H
	ORG $+3
$SG159989 DB	'Unassigned exception', 00H
	ORG $+3
$SG159990 DB	'Unassigned exception', 00H
	ORG $+3
$SG159991 DB	'Monitor event', 00H
	ORG $+2
$SG160003 DB	'Unassigned', 00H
	ORG $+5
$SG160005 DB	'External call', 00H
	ORG $+2
$SG160006 DB	'Emergency signal', 00H
	ORG $+3
$SG160007 DB	'Start', 00H
	ORG $+2
$SG160008 DB	'Stop', 00H
	ORG $+7
$SG160009 DB	'Restart', 00H
$SG160010 DB	'Initial program reset', 00H
	ORG $+2
$SG160011 DB	'Program reset', 00H
	ORG $+2
$SG160012 DB	'Stop and store status', 00H
	ORG $+2
$SG160013 DB	'Initial microprogram load', 00H
	ORG $+6
$SG160014 DB	'Initial CPU reset', 00H
	ORG $+6
$SG160015 DB	'CPU reset', 00H
	ORG $+6
$SG160016 DB	'Set prefix', 00H
	ORG $+5
$SG160017 DB	'Store status', 00H
	ORG $+3
$SG160018 DB	'Unassigned', 00H
	ORG $+5
$SG160019 DB	'Unassigned', 00H
	ORG $+5
$SG160020 DB	'Store extended status at address', 00H
	ORG $+7
$SG160021 DB	'Set architecture mode', 00H
	ORG $+2
$SG160022 DB	'Conditional emergency', 00H
	ORG $+2
$SG160023 DB	'Unassigned', 00H
	ORG $+5
$SG160024 DB	'Sense running state', 00H
_DATA	ENDS
CONST	SEGMENT
CKD_ENDTRK DB	0ffH
	DB	0ffH
	DB	0ffH
	DB	0ffH
	DB	0ffH
	DB	0ffH
	DB	0ffH
	DB	0ffH
tfsys_size DQ	00000000000000f0H
CONST	ENDS
PUBLIC	__local_stdio_printf_options
PUBLIC	_vsnprintf_s_l
PUBLIC	_vsnprintf_s
PUBLIC	get_symbol
PUBLIC	resolve_symbol_string
PUBLIC	set_symbol
PUBLIC	del_symbol
PUBLIC	list_all_symbols
PUBLIC	strlcpy
PUBLIC	strlcat
PUBLIC	timeval_subtract
PUBLIC	timeval_add
PUBLIC	timed_wait_condition_relative_usecs_impl
PUBLIC	hprintf
PUBLIC	hwrite
PUBLIC	hgetc
PUBLIC	hgets
PUBLIC	hpcalloc
PUBLIC	hpcfree
PUBLIC	trimloc
PUBLIC	FormatTIMEVAL
PUBLIC	fmt_memsize
PUBLIC	fmt_memsize_KB
PUBLIC	fmt_memsize_MB
PUBLIC	fmt_S64
PUBLIC	initialize_utility
PUBLIC	reverse_bits
PUBLIC	FormatFCB
PUBLIC	FormatCCTAPE
PUBLIC	tkcount
PUBLIC	ltrim
PUBLIC	rtrim
PUBLIC	trim
PUBLIC	parse_args
PUBLIC	init_random
PUBLIC	is_numeric
PUBLIC	is_numeric_l
PUBLIC	is_hex
PUBLIC	is_hex_l
PUBLIC	string_to_upper
PUBLIC	string_to_lower
PUBLIC	convert_to_ebcdic
PUBLIC	make_asciiz
PUBLIC	idx_snprintf
PUBLIC	ptyp2long
PUBLIC	ptyp2short
PUBLIC	short2ptyp
PUBLIC	do_make_psw64
PUBLIC	PIC2Name
PUBLIC	order2name
PUBLIC	perc2name
PUBLIC	FormatORB
PUBLIC	are_big_endian
PUBLIC	tf_0423
PUBLIC	tf_0424
PUBLIC	tf_0425
PUBLIC	tf_0426
PUBLIC	tf_0427
PUBLIC	tf_0428
PUBLIC	tf_0429
PUBLIC	tf_0430
PUBLIC	tf_0431
PUBLIC	tf_0432
PUBLIC	tf_0433
PUBLIC	tf_0434
PUBLIC	tf_0435
PUBLIC	tf_0436
PUBLIC	tf_0437
PUBLIC	tf_0438
PUBLIC	tf_0439
PUBLIC	tf_0440
PUBLIC	tf_0441
PUBLIC	tf_0442
PUBLIC	tf_0516
PUBLIC	tf_0517
PUBLIC	tf_0518
PUBLIC	tf_0519
PUBLIC	tf_0520
PUBLIC	tf_0800
PUBLIC	tf_0801
PUBLIC	tf_0802
PUBLIC	tf_0803
PUBLIC	tf_0804
PUBLIC	tf_0806
PUBLIC	tf_0807
PUBLIC	tf_0808
PUBLIC	tf_0809
PUBLIC	tf_0811
PUBLIC	tf_0812
PUBLIC	tf_0814
PUBLIC	tf_0840
PUBLIC	tf_0844
PUBLIC	tf_0845
PUBLIC	tf_0846
PUBLIC	tf_1300
PUBLIC	tf_1301
PUBLIC	tf_1304
PUBLIC	tf_1305
PUBLIC	tf_1306
PUBLIC	tf_1307
PUBLIC	tf_1308
PUBLIC	tf_1309
PUBLIC	tf_1310
PUBLIC	tf_1311
PUBLIC	tf_1312
PUBLIC	tf_1313
PUBLIC	tf_1315
PUBLIC	tf_1316
PUBLIC	tf_1317
PUBLIC	tf_1318
PUBLIC	tf_1320
PUBLIC	tf_1321
PUBLIC	tf_1329
PUBLIC	tf_1330
PUBLIC	tf_1331
PUBLIC	tf_1332
PUBLIC	tf_1333
PUBLIC	tf_1334
PUBLIC	tf_1336
PUBLIC	tf_2269
PUBLIC	tf_2270
PUBLIC	tf_2271
PUBLIC	tf_2272
PUBLIC	tf_2276
PUBLIC	tf_2277
PUBLIC	tf_2324
PUBLIC	tf_2326
PUBLIC	tf_MAX_RECSIZE
PUBLIC	tf_close
PUBLIC	tf_close_locked
PUBLIC	tf_autostop
PUBLIC	tf_are_swaps_needed
PUBLIC	tf_swap_sys
PUBLIC	tf_swap_hdr
PUBLIC	tf_swap_rec
EXTRN	__report_rangecheckfailure:PROC
EXTRN	__imp_isspace:PROC
EXTRN	__imp_toupper:PROC
EXTRN	__imp_tolower:PROC
EXTRN	__imp__errno:PROC
EXTRN	strrchr:PROC
EXTRN	strstr:PROC
EXTRN	__imp__stricmp:PROC
EXTRN	strlen:PROC
EXTRN	__imp_strncmp:PROC
EXTRN	__imp_strncpy:PROC
EXTRN	__imp_strtok:PROC
EXTRN	__imp_strdup:PROC
EXTRN	__imp_IsDebuggerPresent:PROC
EXTRN	__imp_OutputDebugStringA:PROC
EXTRN	__imp_GetCurrentThreadId:PROC
EXTRN	__imp_GetModuleFileNameA:PROC
EXTRN	__imp_calloc:PROC
EXTRN	__imp_free:PROC
EXTRN	__imp_malloc:PROC
EXTRN	__imp_realloc:PROC
EXTRN	_byteswap_ushort:PROC
EXTRN	_byteswap_ulong:PROC
EXTRN	_byteswap_uint64:PROC
EXTRN	__imp_srand:PROC
EXTRN	__imp_getenv:PROC
EXTRN	__imp_recv:PROC
EXTRN	__imp_send:PROC
EXTRN	__imp___acrt_iob_func:PROC
EXTRN	__imp__fseeki64:PROC
EXTRN	__imp_setvbuf:PROC
EXTRN	__imp___stdio_common_vsnprintf_s:PROC
EXTRN	__imp__localtime64:PROC
EXTRN	__imp_strftime:PROC
EXTRN	__imp__time64:PROC
EXTRN	hthreads_internal_init:PROC
EXTRN	hthread_initialize_lock:PROC
EXTRN	hthread_obtain_lock:PROC
EXTRN	hthread_release_lock:PROC
EXTRN	hthread_initialize_condition:PROC
EXTRN	hthread_signal_condition:PROC
EXTRN	hthread_wait_condition:PROC
EXTRN	hthread_timed_wait_condition:PROC
EXTRN	hthread_initialize_join_attr:PROC
EXTRN	hthread_initialize_detach_attr:PROC
EXTRN	hthread_set_thread_name:PROC
EXTRN	init_hostinfo:PROC
EXTRN	init_sysblk_version_str_arrays:PROC
EXTRN	display_version:PROC
EXTRN	w32_strerror:PROC
EXTRN	strtok_r:PROC
EXTRN	gettimeofday:PROC
EXTRN	w32_fwrite:PROC
EXTRN	w32_vsnprintf:PROC
EXTRN	w32_snprintf:PROC
EXTRN	w32_fclose:PROC
EXTRN	w32_set_thread_name:PROC
EXTRN	w32_hpagesize:PROC
EXTRN	w32_basename:PROC
EXTRN	set_codepage:PROC
EXTRN	host_to_guest:PROC
EXTRN	guest_to_host:PROC
EXTRN	hdl_addshut:PROC
EXTRN	fwritemsg:PROC
EXTRN	logmsg:PROC
EXTRN	__GSHandlerCheck:PROC
EXTRN	__chkstk:PROC
EXTRN	__security_check_cookie:PROC
EXTRN	hostinfo:BYTE
EXTRN	__imp_sysblk:BYTE
EXTRN	__imp_extgui:DWORD
EXTRN	__ImageBase:BYTE
EXTRN	__security_cookie:QWORD
_DATA	SEGMENT
COMM	?_OptionsStorage@?1??__local_stdio_printf_options@@9@9:QWORD							; `__local_stdio_printf_options'::`2'::_OptionsStorage
_DATA	ENDS
_BSS	SEGMENT
symbols	DQ	01H DUP (?)
symbol_count DD	01H DUP (?)
symbol_max DD	01H DUP (?)
$SG159187 DB	01H DUP (?)
	ALIGN	4

$SG159262 DB	01H DUP (?)
	ALIGN	4

$SG159617 DB	01H DUP (?)
	ALIGN	4

$SG159619 DB	01H DUP (?)
	ALIGN	4

tfsys	DB	0f0H DUP (?)
?bufsize@?1??tf_write@@9@9 DQ 01H DUP (?)		; `tf_write'::`2'::bufsize
?prev@?1??tf_write@@9@9 DW 01H DUP (?)			; `tf_write'::`2'::prev
_BSS	ENDS
;	COMDAT pdata
pdata	SEGMENT
$pdata$_vsnprintf_s_l DD imagerel $LN5
	DD	imagerel $LN5+127
	DD	imagerel $unwind$_vsnprintf_s_l
pdata	ENDS
;	COMDAT pdata
pdata	SEGMENT
$pdata$_vsnprintf_s DD imagerel $LN3
	DD	imagerel $LN3+73
	DD	imagerel $unwind$_vsnprintf_s
pdata	ENDS
pdata	SEGMENT
$pdata$localtime DD imagerel localtime
	DD	imagerel localtime+25
	DD	imagerel $unwind$localtime
$pdata$time DD	imagerel time
	DD	imagerel time+25
	DD	imagerel $unwind$time
$pdata$DebuggerTrace DD imagerel DebuggerTrace
	DD	imagerel DebuggerTrace+247
	DD	imagerel $unwind$DebuggerTrace
$pdata$strcaseabbrev DD imagerel strcaseabbrev
	DD	imagerel strcaseabbrev+320
	DD	imagerel $unwind$strcaseabbrev
$pdata$get_symbol DD imagerel $LN9
	DD	imagerel $LN9+433
	DD	imagerel $unwind$get_symbol
$pdata$resolve_symbol_string DD imagerel $LN39
	DD	imagerel $LN39+1208
	DD	imagerel $unwind$resolve_symbol_string
$pdata$set_symbol DD imagerel $LN8
	DD	imagerel $LN8+188
	DD	imagerel $unwind$set_symbol
$pdata$del_symbol DD imagerel $LN10
	DD	imagerel $LN10+205
	DD	imagerel $unwind$del_symbol
$pdata$list_all_symbols DD imagerel $LN9
	DD	imagerel $LN9+216
	DD	imagerel $unwind$list_all_symbols
$pdata$strlcpy DD imagerel $LN12
	DD	imagerel $LN12+241
	DD	imagerel $unwind$strlcpy
$pdata$strlcat DD imagerel $LN9
	DD	imagerel $LN9+296
	DD	imagerel $unwind$strlcat
$pdata$timeval_subtract DD imagerel $LN27
	DD	imagerel $LN27+417
	DD	imagerel $unwind$timeval_subtract
$pdata$timeval_add DD imagerel $LN26
	DD	imagerel $LN26+423
	DD	imagerel $unwind$timeval_add
$pdata$timed_wait_condition_relative_usecs_impl DD imagerel $LN5
	DD	imagerel $LN5+240
	DD	imagerel $unwind$timed_wait_condition_relative_usecs_impl
$pdata$hprintf DD imagerel $LN7
	DD	imagerel $LN7+223
	DD	imagerel $unwind$hprintf
$pdata$hwrite DD imagerel $LN3
	DD	imagerel $LN3+50
	DD	imagerel $unwind$hwrite
$pdata$hgetc DD	imagerel $LN4
	DD	imagerel $LN4+64
	DD	imagerel $unwind$hgetc
$pdata$hgets DD	imagerel $LN7
	DD	imagerel $LN7+171
	DD	imagerel $unwind$hgets
$pdata$hpcalloc DD imagerel $LN6
	DD	imagerel $LN6+246
	DD	imagerel $unwind$hpcalloc
$pdata$hpcfree DD imagerel $LN5
	DD	imagerel $LN5+123
	DD	imagerel $unwind$hpcfree
$pdata$trimloc DD imagerel $LN5
	DD	imagerel $LN5+88
	DD	imagerel $unwind$trimloc
$pdata$FormatTIMEVAL DD imagerel $LN7
	DD	imagerel $LN7+217
	DD	imagerel $unwind$FormatTIMEVAL
$pdata$fmt_memsize DD imagerel $LN3
	DD	imagerel $LN3+46
	DD	imagerel $unwind$fmt_memsize
$pdata$fmt_memsize_KB DD imagerel $LN3
	DD	imagerel $LN3+49
	DD	imagerel $unwind$fmt_memsize_KB
$pdata$fmt_memsize_MB DD imagerel $LN3
	DD	imagerel $LN3+49
	DD	imagerel $unwind$fmt_memsize_MB
$pdata$fmt_S64 DD imagerel $LN8
	DD	imagerel $LN8+349
	DD	imagerel $unwind$fmt_S64
$pdata$initialize_utility DD imagerel $LN15
	DD	imagerel $LN15+875
	DD	imagerel $unwind$initialize_utility
$pdata$FormatFCB DD imagerel $LN9
	DD	imagerel $LN9+383
	DD	imagerel $unwind$FormatFCB
$pdata$FormatCCTAPE DD imagerel $LN21
	DD	imagerel $LN21+795
	DD	imagerel $unwind$FormatCCTAPE
$pdata$tkcount DD imagerel $LN6
	DD	imagerel $LN6+119
	DD	imagerel $unwind$tkcount
$pdata$ltrim DD	imagerel $LN11
	DD	imagerel $LN11+194
	DD	imagerel $unwind$ltrim
$pdata$rtrim DD	imagerel $LN8
	DD	imagerel $LN8+151
	DD	imagerel $unwind$rtrim
$pdata$trim DD	imagerel $LN3
	DD	imagerel $LN3+47
	DD	imagerel $unwind$trim
$pdata$parse_args DD imagerel $LN20
	DD	imagerel $LN20+467
	DD	imagerel $unwind$parse_args
$pdata$init_random DD imagerel $LN3
	DD	imagerel $LN3+51
	DD	imagerel $unwind$init_random
$pdata$is_numeric DD imagerel $LN3
	DD	imagerel $LN3+37
	DD	imagerel $unwind$is_numeric
$pdata$is_numeric_l DD imagerel $LN12
	DD	imagerel $LN12+162
	DD	imagerel $unwind$is_numeric_l
$pdata$is_hex DD imagerel $LN3
	DD	imagerel $LN3+37
	DD	imagerel $unwind$is_hex
$pdata$is_hex_l DD imagerel $LN14
	DD	imagerel $LN14+275
	DD	imagerel $unwind$is_hex_l
$pdata$string_to_upper DD imagerel $LN6
	DD	imagerel $LN6+89
	DD	imagerel $unwind$string_to_upper
$pdata$string_to_lower DD imagerel $LN6
	DD	imagerel $LN6+89
	DD	imagerel $unwind$string_to_lower
$pdata$convert_to_ebcdic DD imagerel $LN8
	DD	imagerel $LN8+141
	DD	imagerel $unwind$convert_to_ebcdic
$pdata$make_asciiz DD imagerel $LN8
	DD	imagerel $LN8+163
	DD	imagerel $unwind$make_asciiz
$pdata$idx_snprintf DD imagerel $LN7
	DD	imagerel $LN7+300
	DD	imagerel $unwind$idx_snprintf
$pdata$ptyp2long DD imagerel $LN7
	DD	imagerel $LN7+96
	DD	imagerel $unwind$ptyp2long
$pdata$ptyp2short DD imagerel $LN7
	DD	imagerel $LN7+96
	DD	imagerel $unwind$ptyp2short
$pdata$short2ptyp DD imagerel $LN7
	DD	imagerel $LN7+104
	DD	imagerel $unwind$short2ptyp
$pdata$do_make_psw64 DD imagerel $LN20
	DD	imagerel $LN20+788
	DD	imagerel $unwind$do_make_psw64
$pdata$PIC2Name DD imagerel $LN8
	DD	imagerel $LN8+130
	DD	imagerel $unwind$PIC2Name
$pdata$order2name DD imagerel $LN5
	DD	imagerel $LN5+61
	DD	imagerel $unwind$order2name
$pdata$perc2name DD imagerel $LN19
	DD	imagerel $LN19+460
	DD	imagerel $unwind$perc2name
$pdata$FormatORB DD imagerel $LN39
	DD	imagerel $LN39+1392
	DD	imagerel $unwind$FormatORB
$pdata$are_big_endian DD imagerel $LN7
	DD	imagerel $LN7+79
	DD	imagerel $unwind$are_big_endian
$pdata$tf_0423 DD imagerel $LN3
	DD	imagerel $LN3+204
	DD	imagerel $unwind$tf_0423
$pdata$tf_0424 DD imagerel $LN3
	DD	imagerel $LN3+185
	DD	imagerel $unwind$tf_0424
$pdata$tf_0425 DD imagerel $LN3
	DD	imagerel $LN3+170
	DD	imagerel $unwind$tf_0425
$pdata$tf_0426 DD imagerel $LN3
	DD	imagerel $LN3+183
	DD	imagerel $unwind$tf_0426
$pdata$tf_0427 DD imagerel $LN3
	DD	imagerel $LN3+167
	DD	imagerel $unwind$tf_0427
$pdata$tf_0428 DD imagerel $LN3
	DD	imagerel $LN3+183
	DD	imagerel $unwind$tf_0428
$pdata$tf_0429 DD imagerel $LN3
	DD	imagerel $LN3+221
	DD	imagerel $unwind$tf_0429
$pdata$tf_0430 DD imagerel $LN3
	DD	imagerel $LN3+204
	DD	imagerel $unwind$tf_0430
$pdata$tf_0431 DD imagerel $LN3
	DD	imagerel $LN3+183
	DD	imagerel $unwind$tf_0431
$pdata$tf_0432 DD imagerel $LN3
	DD	imagerel $LN3+190
	DD	imagerel $unwind$tf_0432
$pdata$tf_0433 DD imagerel $LN3
	DD	imagerel $LN3+183
	DD	imagerel $unwind$tf_0433
$pdata$tf_0434 DD imagerel $LN3
	DD	imagerel $LN3+171
	DD	imagerel $unwind$tf_0434
$pdata$tf_0435 DD imagerel $LN3
	DD	imagerel $LN3+268
	DD	imagerel $unwind$tf_0435
$pdata$tf_0436 DD imagerel $LN3
	DD	imagerel $LN3+170
	DD	imagerel $unwind$tf_0436
$pdata$tf_0437 DD imagerel $LN3
	DD	imagerel $LN3+172
	DD	imagerel $unwind$tf_0437
$pdata$tf_0438 DD imagerel $LN3
	DD	imagerel $LN3+240
	DD	imagerel $unwind$tf_0438
$pdata$tf_0439 DD imagerel $LN3
	DD	imagerel $LN3+204
	DD	imagerel $unwind$tf_0439
$pdata$tf_0440 DD imagerel $LN3
	DD	imagerel $LN3+244
	DD	imagerel $unwind$tf_0440
$pdata$tf_0441 DD imagerel $LN3
	DD	imagerel $LN3+226
	DD	imagerel $unwind$tf_0441
$pdata$tf_0442 DD imagerel $LN3
	DD	imagerel $LN3+171
	DD	imagerel $unwind$tf_0442
$pdata$tf_0516 DD imagerel $LN3
	DD	imagerel $LN3+183
	DD	imagerel $unwind$tf_0516
$pdata$tf_0517 DD imagerel $LN3
	DD	imagerel $LN3+167
	DD	imagerel $unwind$tf_0517
$pdata$tf_0518 DD imagerel $LN3
	DD	imagerel $LN3+183
	DD	imagerel $unwind$tf_0518
$pdata$tf_0519 DD imagerel $LN3
	DD	imagerel $LN3+201
	DD	imagerel $unwind$tf_0519
$pdata$tf_0520 DD imagerel $LN3
	DD	imagerel $LN3+172
	DD	imagerel $unwind$tf_0520
$pdata$tf_0800 DD imagerel $LN13
	DD	imagerel $LN13+301
	DD	imagerel $unwind$tf_0800
$pdata$tf_0801 DD imagerel $LN7
	DD	imagerel $LN7+214
	DD	imagerel $unwind$tf_0801
$pdata$tf_0802 DD imagerel $LN3
	DD	imagerel $LN3+111
	DD	imagerel $unwind$tf_0802
$pdata$tf_0803 DD imagerel $LN3
	DD	imagerel $LN3+99
	DD	imagerel $unwind$tf_0803
$pdata$tf_0804 DD imagerel $LN3
	DD	imagerel $LN3+115
	DD	imagerel $unwind$tf_0804
$pdata$tf_0806 DD imagerel $LN3
	DD	imagerel $LN3+105
	DD	imagerel $unwind$tf_0806
$pdata$tf_0807 DD imagerel $LN3
	DD	imagerel $LN3+116
	DD	imagerel $unwind$tf_0807
$pdata$tf_0808 DD imagerel $LN3
	DD	imagerel $LN3+67
	DD	imagerel $unwind$tf_0808
$pdata$tf_0809 DD imagerel $LN3
	DD	imagerel $LN3+99
	DD	imagerel $unwind$tf_0809
$pdata$tf_0811 DD imagerel $LN3
	DD	imagerel $LN3+93
	DD	imagerel $unwind$tf_0811
$pdata$tf_0812 DD imagerel $LN3
	DD	imagerel $LN3+67
	DD	imagerel $unwind$tf_0812
$pdata$tf_0814 DD imagerel $LN3
	DD	imagerel $LN3+152
	DD	imagerel $unwind$tf_0814
$pdata$tf_0840 DD imagerel $LN5
	DD	imagerel $LN5+138
	DD	imagerel $unwind$tf_0840
$pdata$tf_0844 DD imagerel $LN3
	DD	imagerel $LN3+188
	DD	imagerel $unwind$tf_0844
$pdata$tf_0845 DD imagerel $LN3
	DD	imagerel $LN3+104
	DD	imagerel $unwind$tf_0845
$pdata$tf_0846 DD imagerel $LN3
	DD	imagerel $LN3+84
	DD	imagerel $unwind$tf_0846
$pdata$tf_1300 DD imagerel $LN3
	DD	imagerel $LN3+106
	DD	imagerel $unwind$tf_1300
$pdata$tf_1301 DD imagerel $LN3
	DD	imagerel $LN3+209
	DD	imagerel $unwind$tf_1301
$pdata$tf_1304 DD imagerel $LN3
	DD	imagerel $LN3+93
	DD	imagerel $unwind$tf_1304
$pdata$tf_1305 DD imagerel $LN3
	DD	imagerel $LN3+93
	DD	imagerel $unwind$tf_1305
$pdata$tf_1306 DD imagerel $LN3
	DD	imagerel $LN3+93
	DD	imagerel $unwind$tf_1306
$pdata$tf_1307 DD imagerel $LN3
	DD	imagerel $LN3+93
	DD	imagerel $unwind$tf_1307
$pdata$tf_1308 DD imagerel $LN3
	DD	imagerel $LN3+93
	DD	imagerel $unwind$tf_1308
$pdata$tf_1309 DD imagerel $LN3
	DD	imagerel $LN3+93
	DD	imagerel $unwind$tf_1309
$pdata$tf_1310 DD imagerel $LN3
	DD	imagerel $LN3+93
	DD	imagerel $unwind$tf_1310
$pdata$tf_1311 DD imagerel $LN3
	DD	imagerel $LN3+93
	DD	imagerel $unwind$tf_1311
$pdata$tf_1312 DD imagerel $LN3
	DD	imagerel $LN3+192
	DD	imagerel $unwind$tf_1312
$pdata$tf_1313 DD imagerel $LN5
	DD	imagerel $LN5+212
	DD	imagerel $unwind$tf_1313
$pdata$tf_1315 DD imagerel $LN3
	DD	imagerel $LN3+199
	DD	imagerel $unwind$tf_1315
$pdata$tf_1316 DD imagerel $LN3
	DD	imagerel $LN3+111
	DD	imagerel $unwind$tf_1316
$pdata$tf_1317 DD imagerel $LN3
	DD	imagerel $LN3+122
	DD	imagerel $unwind$tf_1317
$pdata$tf_1318 DD imagerel $LN3
	DD	imagerel $LN3+106
	DD	imagerel $unwind$tf_1318
$pdata$tf_1320 DD imagerel $LN3
	DD	imagerel $LN3+93
	DD	imagerel $unwind$tf_1320
$pdata$tf_1321 DD imagerel $LN3
	DD	imagerel $LN3+93
	DD	imagerel $unwind$tf_1321
$pdata$tf_1329 DD imagerel $LN3
	DD	imagerel $LN3+93
	DD	imagerel $unwind$tf_1329
$pdata$tf_1330 DD imagerel $LN3
	DD	imagerel $LN3+93
	DD	imagerel $unwind$tf_1330
$pdata$tf_1331 DD imagerel $LN3
	DD	imagerel $LN3+93
	DD	imagerel $unwind$tf_1331
$pdata$tf_1332 DD imagerel $LN3
	DD	imagerel $LN3+93
	DD	imagerel $unwind$tf_1332
$pdata$tf_1333 DD imagerel $LN3
	DD	imagerel $LN3+106
	DD	imagerel $unwind$tf_1333
$pdata$tf_1334 DD imagerel $LN3
	DD	imagerel $LN3+131
	DD	imagerel $unwind$tf_1334
$pdata$tf_1336 DD imagerel $LN3
	DD	imagerel $LN3+135
	DD	imagerel $unwind$tf_1336
$pdata$tf_2269 DD imagerel $LN5
	DD	imagerel $LN5+182
	DD	imagerel $unwind$tf_2269
$pdata$tf_2270 DD imagerel $LN5
	DD	imagerel $LN5+179
	DD	imagerel $unwind$tf_2270
$pdata$tf_2271 DD imagerel $LN3
	DD	imagerel $LN3+126
	DD	imagerel $unwind$tf_2271
$pdata$tf_2272 DD imagerel $LN3
	DD	imagerel $LN3+116
	DD	imagerel $unwind$tf_2272
$pdata$tf_2276 DD imagerel $LN5
	DD	imagerel $LN5+139
	DD	imagerel $unwind$tf_2276
$pdata$tf_2277 DD imagerel $LN3
	DD	imagerel $LN3+116
	DD	imagerel $unwind$tf_2277
$pdata$tf_2324 DD imagerel $LN7
	DD	imagerel $LN7+303
	DD	imagerel $unwind$tf_2324
$pdata$tf_2326 DD imagerel $LN6
	DD	imagerel $LN6+256
	DD	imagerel $unwind$tf_2326
$pdata$tf_MAX_RECSIZE DD imagerel $LN76
	DD	imagerel $LN76+1203
	DD	imagerel $unwind$tf_MAX_RECSIZE
$pdata$tf_close DD imagerel $LN6
	DD	imagerel $LN6+81
	DD	imagerel $unwind$tf_close
$pdata$tf_close_locked DD imagerel $LN16
	DD	imagerel $LN16+488
	DD	imagerel $unwind$tf_close_locked
$pdata$tf_autostop DD imagerel $LN22
	DD	imagerel $LN22+628
	DD	imagerel $unwind$tf_autostop
$pdata$tf_are_swaps_needed DD imagerel $LN9
	DD	imagerel $LN9+133
	DD	imagerel $unwind$tf_are_swaps_needed
$pdata$tf_swap_sys DD imagerel $LN5
	DD	imagerel $LN5+188
	DD	imagerel $unwind$tf_swap_sys
$pdata$tf_swap_hdr DD imagerel $LN3
	DD	imagerel $LN3+169
	DD	imagerel $unwind$tf_swap_hdr
$pdata$tf_swap_rec DD imagerel $LN116
	DD	imagerel $LN116+4973
	DD	imagerel $unwind$tf_swap_rec
$pdata$Interrupt_Lock_Obtained DD imagerel Interrupt_Lock_Obtained
	DD	imagerel Interrupt_Lock_Obtained+267
	DD	imagerel $unwind$Interrupt_Lock_Obtained
$pdata$Obtain_Interrupt_Lock DD imagerel Obtain_Interrupt_Lock
	DD	imagerel Obtain_Interrupt_Lock+87
	DD	imagerel $unwind$Obtain_Interrupt_Lock
$pdata$Release_Interrupt_Lock DD imagerel Release_Interrupt_Lock
	DD	imagerel Release_Interrupt_Lock+70
	DD	imagerel $unwind$Release_Interrupt_Lock
$pdata$get_symbol_token DD imagerel get_symbol_token
	DD	imagerel get_symbol_token+511
	DD	imagerel $unwind$get_symbol_token
$pdata$_fmt_memsize DD imagerel _fmt_memsize
	DD	imagerel _fmt_memsize+243
	DD	imagerel $unwind$_fmt_memsize
$pdata$tf_virt_to_real DD imagerel tf_virt_to_real
	DD	imagerel tf_virt_to_real+252
	DD	imagerel $unwind$tf_virt_to_real
$pdata$tf_get_storage_key DD imagerel tf_get_storage_key
	DD	imagerel tf_get_storage_key+137
	DD	imagerel $unwind$tf_get_storage_key
$pdata$tf_store_int_timer DD imagerel tf_store_int_timer
	DD	imagerel tf_store_int_timer+174
	DD	imagerel $unwind$tf_store_int_timer
$pdata$tf_apply_prefixing DD imagerel tf_apply_prefixing
	DD	imagerel tf_apply_prefixing+325
	DD	imagerel $unwind$tf_apply_prefixing
$pdata$tf_write_initial_TFSYS_locked DD imagerel tf_write_initial_TFSYS_locked
	DD	imagerel tf_write_initial_TFSYS_locked+597
	DD	imagerel $unwind$tf_write_initial_TFSYS_locked
$pdata$tf_write DD imagerel tf_write
	DD	imagerel tf_write+1161
	DD	imagerel $unwind$tf_write
$pdata$tf_2326_op DD imagerel tf_2326_op
	DD	imagerel tf_2326_op+616
	DD	imagerel $unwind$tf_2326_op
pdata	ENDS
_DATA	SEGMENT
$SG159179 DB	'DATE', 00H
	ORG $+3
$SG159180 DB	'%Y%m%d', 00H
	ORG $+1
$SG159181 DB	'DATE', 00H
	ORG $+3
$SG159183 DB	'TIME', 00H
	ORG $+3
$SG159184 DB	'%H%M%S', 00H
	ORG $+1
$SG159185 DB	'TIME', 00H
	ORG $+3
$SG159188 DB	'%s', 00H
	ORG $+1
$SG159219 DB	'$(', 00H
	ORG $+1
$SG159220 DB	'${', 00H
	ORG $+1
$SG159224 DB	'E', 00H
	ORG $+6
$SG159225 DB	'HHC01418%s Symbol expansion will result in buffer overfl'
	DB	'ow; ignored', 0aH, 00H
	ORG $+3
$SG159226 DB	'resolve_symbol_string', 00H
	ORG $+2
$SG159227 DB	'hscutl.c', 00H
	ORG $+3
$SG159241 DB	'E', 00H
	ORG $+2
$SG159242 DB	'HHC01418%s Symbol expansion will result in buffer overfl'
	DB	'ow; ignored', 0aH, 00H
	ORG $+3
$SG159243 DB	'resolve_symbol_string', 00H
	ORG $+2
$SG159244 DB	'hscutl.c', 00H
	ORG $+3
$SG159245 DB	'%s', 00H
	ORG $+1
$SG159263 DB	'I', 00H
	ORG $+2
$SG159491 DB	'%llu%c', 00H
	ORG $+1
$SG159572 DB	'.', 00H
	ORG $+2
$SG159264 DB	'HHC02199%s Symbol %-12s %s', 0aH, 00H
$SG159613 DB	'%d', 00H
	ORG $+1
$SG159265 DB	'list_all_symbols', 00H
	ORG $+3
$SG159473 DB	'.%06d', 00H
	ORG $+2
$SG159615 DB	',', 00H
	ORG $+2
$SG159266 DB	'hscutl.c', 00H
	ORG $+3
$SG159616 DB	')', 00H
	ORG $+2
$SG159292 DB	'timeval_subtract', 00H
	ORG $+3
$SG159618 DB	'(', 00H
	ORG $+2
$SG159293 DB	'hscutl.c', 00H
	ORG $+7
$SG159296 DB	'timeval_subtract', 00H
	ORG $+7
$SG159294 DB	'%s(%d) : warning HHC90999W : *** Assertion Failed! *** f'
	DB	'unction: %s', 0aH, 00H
	ORG $+3
$SG159297 DB	'hscutl.c', 00H
	ORG $+7
$SG159302 DB	'timeval_subtract', 00H
	ORG $+7
$SG159298 DB	'%s(%d) : warning HHC90999W : *** Assertion Failed! *** f'
	DB	'unction: %s', 0aH, 00H
	ORG $+3
$SG159303 DB	'hscutl.c', 00H
	ORG $+7
$SG159306 DB	'timeval_subtract', 00H
	ORG $+7
$SG159304 DB	'%s(%d) : warning HHC90999W : *** Assertion Failed! *** f'
	DB	'unction: %s', 0aH, 00H
	ORG $+3
$SG159307 DB	'hscutl.c', 00H
	ORG $+7
$SG159332 DB	'timeval_add', 00H
$SG159528 DB	'%lld', 00H
	ORG $+7
$SG159308 DB	'%s(%d) : warning HHC90999W : *** Assertion Failed! *** f'
	DB	'unction: %s', 0aH, 00H
	ORG $+3
$SG159333 DB	'hscutl.c', 00H
	ORG $+7
$SG159336 DB	'timeval_add', 00H
$SG159622 DB	', ...', 00H
	ORG $+6
$SG159334 DB	'%s(%d) : warning HHC90999W : *** Assertion Failed! *** f'
	DB	'unction: %s', 0aH, 00H
	ORG $+3
$SG159337 DB	'hscutl.c', 00H
	ORG $+7
$SG159342 DB	'timeval_add', 00H
$SG159650 DB	', ...', 00H
	ORG $+6
$SG159338 DB	'%s(%d) : warning HHC90999W : *** Assertion Failed! *** f'
	DB	'unction: %s', 0aH, 00H
	ORG $+3
$SG159343 DB	'hscutl.c', 00H
	ORG $+7
$SG159346 DB	'timeval_add', 00H
$SG159652 DB	'=0', 00H
	ORG $+1
$SG159471 DB	'%Y-%m-%d %H:%M:%S', 00H
	ORG $+6
$SG159344 DB	'%s(%d) : warning HHC90999W : *** Assertion Failed! *** f'
	DB	'unction: %s', 0aH, 00H
	ORG $+3
$SG159347 DB	'hscutl.c', 00H
	ORG $+7
$SG159561 DB	'EXTERNALGUI', 00H
$SG159821 DB	'W', 00H
	ORG $+2
$SG159567 DB	'&sysblk.dasdcache_lock', 00H
	ORG $+1
$SG159348 DB	'%s(%d) : warning HHC90999W : *** Assertion Failed! *** f'
	DB	'unction: %s', 0aH, 00H
	ORG $+3
$SG159566 DB	'hscutl.c:1388', 00H
	ORG $+2
$SG159568 DB	'hscutl.c:1389', 00H
	ORG $+2
$SG159569 DB	'&sysblk.scrlock', 00H
$SG159570 DB	'hscutl.c:1390', 00H
	ORG $+2
$SG159574 DB	'%s - %s', 00H
$SG159577 DB	'hercifc', 00H
rev_nib_bits_tab DB 00H
	DB	08H
	DB	04H
	DB	0cH
	DB	02H
	DB	0aH
	DB	06H
	DB	0eH
	DB	01H
	DB	09H
	DB	05H
	DB	0dH
	DB	03H
	DB	0bH
	DB	07H
	DB	0fH
$SG159610 DB	'lpi=%d lpp=%d cctape=(', 00H
	ORG $+1
$SG159620 DB	'%d=%s%s%s,', 00H
	ORG $+1
$SG159860 DB	'??', 00H
	ORG $+1
$SG159646 DB	'index=%d lpi=%d lpp=%d fcb', 00H
	ORG $+1
$SG160045 DB	'ZAD', 00H
$SG159648 DB	'%c%d:%d', 00H
$SG159819 DB	'OVERFLOW (bufsiz too small)', 00H
?test@?1??are_big_endian@@9@9 DD 01020304H		; `are_big_endian'::`2'::test
$SG159820 DB	'idx_snprintf', 00H
	ORG $+3
$SG159822 DB	'HHC00075%s Error in function %s: %s', 0aH, 00H
	ORG $+3
$SG159823 DB	'idx_snprintf', 00H
	ORG $+3
$SG159824 DB	'hscutl.c', 00H
	ORG $+7
ptypes	DB	00H
	ORG $+7
	DQ	FLAT:$SG159831
	DQ	FLAT:$SG159832
	DB	01H
	ORG $+7
	DQ	FLAT:$SG159833
	DQ	FLAT:$SG159834
	DB	02H
	ORG $+7
	DQ	FLAT:$SG159835
	DQ	FLAT:$SG159836
	DB	03H
	ORG $+7
	DQ	FLAT:$SG159837
	DQ	FLAT:$SG159838
	DB	04H
	ORG $+7
	DQ	FLAT:$SG159839
	DQ	FLAT:$SG159840
	DB	05H
	ORG $+7
	DQ	FLAT:$SG159841
	DQ	FLAT:$SG159842
$SG159851 DB	'                ', 00H
	ORG $+7
$SG159993 DB	'PER event', 00H
	ORG $+6
$SG159996 DB	'Unassigned exception', 00H
	ORG $+3
?pgmintname@?1??PIC2Name@@9@9 DQ FLAT:$SG159928		; `PIC2Name'::`2'::pgmintname
	DQ	FLAT:$SG159929
	DQ	FLAT:$SG159930
	DQ	FLAT:$SG159931
	DQ	FLAT:$SG159932
	DQ	FLAT:$SG159933
	DQ	FLAT:$SG159934
	DQ	FLAT:$SG159935
	DQ	FLAT:$SG159936
	DQ	FLAT:$SG159937
	DQ	FLAT:$SG159938
	DQ	FLAT:$SG159939
	DQ	FLAT:$SG159940
	DQ	FLAT:$SG159941
	DQ	FLAT:$SG159942
	DQ	FLAT:$SG159943
	DQ	FLAT:$SG159944
	DQ	FLAT:$SG159945
	DQ	FLAT:$SG159946
	DQ	FLAT:$SG159947
	DQ	FLAT:$SG159948
	DQ	FLAT:$SG159949
	DQ	FLAT:$SG159950
	DQ	FLAT:$SG159951
	DQ	FLAT:$SG159952
	DQ	FLAT:$SG159953
	DQ	FLAT:$SG159954
	DQ	FLAT:$SG159955
	DQ	FLAT:$SG159956
	DQ	FLAT:$SG159957
	DQ	FLAT:$SG159958
	DQ	FLAT:$SG159959
	DQ	FLAT:$SG159960
	DQ	FLAT:$SG159961
	DQ	FLAT:$SG159962
	DQ	FLAT:$SG159963
	DQ	FLAT:$SG159964
	DQ	FLAT:$SG159965
	DQ	FLAT:$SG159966
	DQ	FLAT:$SG159967
	DQ	FLAT:$SG159968
	DQ	FLAT:$SG159969
	DQ	FLAT:$SG159970
	DQ	FLAT:$SG159971
	DQ	FLAT:$SG159972
	DQ	FLAT:$SG159973
	DQ	FLAT:$SG159974
	DQ	FLAT:$SG159975
	DQ	FLAT:$SG159976
	DQ	FLAT:$SG159977
	DQ	FLAT:$SG159978
	DQ	FLAT:$SG159979
	DQ	FLAT:$SG159980
	DQ	FLAT:$SG159981
	DQ	FLAT:$SG159982
	DQ	FLAT:$SG159983
	DQ	FLAT:$SG159984
	DQ	FLAT:$SG159985
	DQ	FLAT:$SG159986
	DQ	FLAT:$SG159987
	DQ	FLAT:$SG159988
	DQ	FLAT:$SG159989
	DQ	FLAT:$SG159990
	DQ	FLAT:$SG159991
$SG159997 DB	'Unassigned exception', 00H
	ORG $+3
$SG160037 DB	'BRANCH', 00H
	ORG $+1
?ordername@?1??order2name@@9@9 DQ FLAT:$SG160003	; `order2name'::`2'::ordername
	DQ	FLAT:$SG160004
	DQ	FLAT:$SG160005
	DQ	FLAT:$SG160006
	DQ	FLAT:$SG160007
	DQ	FLAT:$SG160008
	DQ	FLAT:$SG160009
	DQ	FLAT:$SG160010
	DQ	FLAT:$SG160011
	DQ	FLAT:$SG160012
	DQ	FLAT:$SG160013
	DQ	FLAT:$SG160014
	DQ	FLAT:$SG160015
	DQ	FLAT:$SG160016
	DQ	FLAT:$SG160017
	DQ	FLAT:$SG160018
	DQ	FLAT:$SG160019
	DQ	FLAT:$SG160020
	DQ	FLAT:$SG160021
	DQ	FLAT:$SG160022
	DQ	FLAT:$SG160023
	DQ	FLAT:$SG160024
$SG160025 DB	'Unassigned', 00H
	ORG $+1
$SG160039 DB	'IFETCH', 00H
	ORG $+1
$SG160041 DB	'STOR', 00H
	ORG $+3
$SG160043 DB	'SKEY', 00H
	ORG $+3
$SG160047 DB	'TEND', 00H
	ORG $+3
$SG160049 DB	'IFNULL', 00H
	ORG $+1
$SG160051 DB	'STOR', 00H
	ORG $+3
$SG160053 DB	'STURA', 00H
	ORG $+2
$SG160179 DB	'E', 00H
	ORG $+2
$SG160055 DB	'IFETCH+IFNULL', 00H
	ORG $+2
$SG160057 DB	'IFETCH+TEND', 00H
$SG160183 DB	'I', 00H
	ORG $+2
$SG160059 DB	'UNKNOWN!', 00H
	ORG $+7
$SG160180 DB	'HHC00075%s Error in function %s: %s', 0aH, 00H
	ORG $+3
$SG160072 DB	'IntP:%2.2X%2.2X%2.2X%2.2X Key:%d LPM:%2.2X Flags:%X%2.2X'
	DB	'%2.2X %c%c%c%c%c%c%c%c%c%c%c%c %c%c.....%c %cCW:%2.2X%2.2X%2.'
	DB	'2X%2.2X', 00H
	ORG $+3
$SG160178 DB	'fwrite()', 00H
	ORG $+3
$SG160199 DB	'E', 00H
	ORG $+2
$SG160181 DB	'tf_write_initial_TFSYS_locked', 00H
	ORG $+2
$SG160182 DB	'hscutl.c', 00H
	ORG $+3
$SG160205 DB	'E', 00H
	ORG $+2
$SG160184 DB	'HHC02383%s Trace file tracing begun...', 0aH, 00H
$SG160185 DB	'tf_write_initial_TFSYS_locked', 00H
	ORG $+2
$SG160186 DB	'hscutl.c', 00H
	ORG $+3
$SG160266 DB	'E', 00H
	ORG $+2
$SG160198 DB	'fseek()', 00H
$SG160200 DB	'HHC00075%s Error in function %s: %s', 0aH, 00H
	ORG $+3
$SG160201 DB	'tf_close_locked', 00H
$SG160202 DB	'hscutl.c', 00H
	ORG $+3
$SG160279 DB	'I', 00H
	ORG $+2
$SG160204 DB	'fwrite()', 00H
	ORG $+3
$SG160284 DB	'I', 00H
	ORG $+2
$SG160206 DB	'HHC00075%s Error in function %s: %s', 0aH, 00H
	ORG $+3
$SG160207 DB	'tf_close_locked', 00H
$SG160208 DB	'hscutl.c', 00H
	ORG $+7
$SG160210 DB	'tf_close_locked', 00H
$SG160211 DB	'hscutl.c', 00H
	ORG $+7
$SG160212 DB	'%s(%d) : warning HHC90999W : *** Assertion Failed! *** f'
	DB	'unction: %s', 0aH, 00H
	ORG $+3
$SG160214 DB	'tf_close_locked', 00H
$SG160215 DB	'hscutl.c', 00H
	ORG $+15
$SG160216 DB	'%s(%d) : warning HHC90999W : *** Assertion Failed! *** f'
	DB	'unction: %s', 0aH, 00H
	ORG $+3
$SG160224 DB	'hscutl.c:2710', 00H
	ORG $+2
$SG160225 DB	'hscutl.c:2714', 00H
	ORG $+2
$SG160256 DB	'hscutl.c:2732', 00H
	ORG $+2
$SG160258 DB	'hscutl.c:2737', 00H
	ORG $+2
$SG160261 DB	'hscutl.c:2749', 00H
	ORG $+2
$SG160262 DB	'tf_close', 00H
	ORG $+7
$SG160265 DB	'fwrite()', 00H
	ORG $+7
$SG160267 DB	'HHC00075%s Error in function %s: %s', 0aH, 00H
	ORG $+3
$SG160268 DB	'tf_write', 00H
	ORG $+7
$SG160269 DB	'hscutl.c', 00H
	ORG $+7
$SG160274 DB	'hscutl.c:2806', 00H
	ORG $+2
$SG160278 DB	'continues', 00H
	ORG $+6
$SG160280 DB	'HHC02379%s Trace file MAX= reached; file closed, tracing'
	DB	' %s', 0aH, 00H
	ORG $+3
$SG160281 DB	'tf_write', 00H
	ORG $+7
$SG160282 DB	'hscutl.c', 00H
	ORG $+7
$SG160283 DB	'auto-stopped', 00H
	ORG $+3
$SG160285 DB	'HHC02379%s Trace file MAX= reached; file closed, tracing'
	DB	' %s', 0aH, 00H
	ORG $+3
$SG160286 DB	'tf_write', 00H
	ORG $+7
$SG160287 DB	'hscutl.c', 00H
	ORG $+7
$SG160302 DB	'hscutl.c:2837', 00H
	ORG $+2
$SG160304 DB	'hscutl.c:2865', 00H
_DATA	ENDS
voltbl	SEGMENT
_volmd	DD	0ffffffffH
	DDSymXIndex: 	FLAT:_fmt_memsize
	DD	021H
	DD	0e1H
_volmd	DD	0ffffffffH
	DDSymXIndex: 	FLAT:tf_2324
	DD	01dH
	DD	0115H
_volmd	DD	0ffffffffH
	DDSymXIndex: 	FLAT:tf_2277
	DD	018H
	DD	05aH
_volmd	DD	0ffffffffH
	DDSymXIndex: 	FLAT:tf_2276
	DD	013H
	DD	079H
_volmd	DD	0ffffffffH
	DDSymXIndex: 	FLAT:tf_2272
	DD	018H
	DD	05aH
_volmd	DD	0ffffffffH
	DDSymXIndex: 	FLAT:tf_2271
	DD	018H
	DD	064H
_volmd	DD	0ffffffffH
	DDSymXIndex: 	FLAT:tf_2270
	DD	018H
	DD	099H
_volmd	DD	0ffffffffH
	DDSymXIndex: 	FLAT:tf_2269
	DD	01dH
	DD	09cH
_volmd	DD	0ffffffffH
	DDSymXIndex: 	FLAT:tf_1336
	DD	013H
	DD	075H
_volmd	DD	0ffffffffH
	DDSymXIndex: 	FLAT:tf_1334
	DD	01aH
	DD	06fH
_volmd	DD	0ffffffffH
	DDSymXIndex: 	FLAT:tf_1333
	DD	017H
	DD	058H
_volmd	DD	0ffffffffH
	DDSymXIndex: 	FLAT:tf_1332
	DD	013H
	DD	04bH
_volmd	DD	0ffffffffH
	DDSymXIndex: 	FLAT:tf_1331
	DD	013H
	DD	04bH
_volmd	DD	0ffffffffH
	DDSymXIndex: 	FLAT:tf_1330
	DD	013H
	DD	04bH
_volmd	DD	0ffffffffH
	DDSymXIndex: 	FLAT:tf_1329
	DD	013H
	DD	04bH
_volmd	DD	0ffffffffH
	DDSymXIndex: 	FLAT:tf_1321
	DD	013H
	DD	04bH
_volmd	DD	0ffffffffH
	DDSymXIndex: 	FLAT:tf_1320
	DD	013H
	DD	04bH
_volmd	DD	0ffffffffH
	DDSymXIndex: 	FLAT:tf_1318
	DD	017H
	DD	058H
_volmd	DD	0ffffffffH
	DDSymXIndex: 	FLAT:tf_1317
	DD	01aH
	DD	066H
_volmd	DD	0ffffffffH
	DDSymXIndex: 	FLAT:tf_1316
	DD	018H
	DD	05dH
_volmd	DD	0ffffffffH
	DDSymXIndex: 	FLAT:tf_1315
	DD	025H
	DD	0b3H
_volmd	DD	0ffffffffH
	DDSymXIndex: 	FLAT:tf_1313
	DD	018H
	DD	0baH
_volmd	DD	0ffffffffH
	DDSymXIndex: 	FLAT:tf_1312
	DD	023H
	DD	0acH
_volmd	DD	0ffffffffH
	DDSymXIndex: 	FLAT:tf_1311
	DD	013H
	DD	04bH
_volmd	DD	0ffffffffH
	DDSymXIndex: 	FLAT:tf_1310
	DD	013H
	DD	04bH
_volmd	DD	0ffffffffH
	DDSymXIndex: 	FLAT:tf_1309
	DD	013H
	DD	04bH
_volmd	DD	0ffffffffH
	DDSymXIndex: 	FLAT:tf_1308
	DD	013H
	DD	04bH
_volmd	DD	0ffffffffH
	DDSymXIndex: 	FLAT:tf_1307
	DD	013H
	DD	04bH
_volmd	DD	0ffffffffH
	DDSymXIndex: 	FLAT:tf_1306
	DD	013H
	DD	04bH
_volmd	DD	0ffffffffH
	DDSymXIndex: 	FLAT:tf_1305
	DD	013H
	DD	04bH
_volmd	DD	0ffffffffH
	DDSymXIndex: 	FLAT:tf_1304
	DD	013H
	DD	04bH
_volmd	DD	0ffffffffH
	DDSymXIndex: 	FLAT:tf_1301
	DD	025H
	DD	0bdH
_volmd	DD	0ffffffffH
	DDSymXIndex: 	FLAT:tf_1300
	DD	017H
	DD	058H
_volmd	DD	0ffffffffH
	DDSymXIndex: 	FLAT:tf_0846
	DD	013H
	DD	042H
_volmd	DD	0ffffffffH
	DDSymXIndex: 	FLAT:tf_0845
	DD	013H
	DD	056H
_volmd	DD	0ffffffffH
	DDSymXIndex: 	FLAT:tf_0844
	DD	013H
	DD	0aaH
_volmd	DD	0ffffffffH
	DDSymXIndex: 	FLAT:tf_0840
	DD	018H
	DD	078H
_volmd	DD	0ffffffffH
	DDSymXIndex: 	FLAT:tf_0814
	DD	022H
	DD	086H
_volmd	DD	0ffffffffH
	DDSymXIndex: 	FLAT:tf_0812
	DD	013H
	DD	031H
_volmd	DD	0ffffffffH
	DDSymXIndex: 	FLAT:tf_0811
	DD	018H
	DD	04bH
_volmd	DD	0ffffffffH
	DDSymXIndex: 	FLAT:tf_0809
	DD	018H
	DD	051H
_volmd	DD	0ffffffffH
	DDSymXIndex: 	FLAT:tf_0808
	DD	013H
	DD	031H
_volmd	DD	0ffffffffH
	DDSymXIndex: 	FLAT:tf_0807
	DD	022H
	DD	062H
_volmd	DD	0ffffffffH
	DDSymXIndex: 	FLAT:tf_0806
	DD	021H
	DD	057H
_volmd	DD	0ffffffffH
	DDSymXIndex: 	FLAT:tf_0804
	DD	023H
	DD	061H
_volmd	DD	0ffffffffH
	DDSymXIndex: 	FLAT:tf_0803
	DD	018H
	DD	051H
_volmd	DD	0ffffffffH
	DDSymXIndex: 	FLAT:tf_0802
	DD	023H
	DD	05dH
_volmd	DD	0ffffffffH
	DDSymXIndex: 	FLAT:tf_0801
	DD	01dH
	DD	0c4H
_volmd	DD	0ffffffffH
	DDSymXIndex: 	FLAT:tf_0800
	DD	018H
	DD	0113H
_volmd	DD	0ffffffffH
	DDSymXIndex: 	FLAT:tf_0520
	DD	016H
	DD	094H
_volmd	DD	0ffffffffH
	DDSymXIndex: 	FLAT:tf_0519
	DD	024H
	DD	0b1H
_volmd	DD	0ffffffffH
	DDSymXIndex: 	FLAT:tf_0518
	DD	01fH
	DD	09fH
_volmd	DD	0ffffffffH
	DDSymXIndex: 	FLAT:tf_0517
	DD	01aH
	DD	08fH
_volmd	DD	0ffffffffH
	DDSymXIndex: 	FLAT:tf_0516
	DD	01fH
	DD	09fH
_volmd	DD	0ffffffffH
	DDSymXIndex: 	FLAT:tf_0442
	DD	016H
	DD	093H
_volmd	DD	0ffffffffH
	DDSymXIndex: 	FLAT:tf_0441
	DD	016H
	DD	0caH
_volmd	DD	0ffffffffH
	DDSymXIndex: 	FLAT:tf_0440
	DD	016H
	DD	0dcH
_volmd	DD	0ffffffffH
	DDSymXIndex: 	FLAT:tf_0439
	DD	01aH
	DD	0b4H
_volmd	DD	0ffffffffH
	DDSymXIndex: 	FLAT:tf_0438
	DD	025H
	DD	0d8H
_volmd	DD	0ffffffffH
	DDSymXIndex: 	FLAT:tf_0437
	DD	016H
	DD	094H
_volmd	DD	0ffffffffH
	DDSymXIndex: 	FLAT:tf_0436
	DD	016H
	DD	092H
_volmd	DD	0ffffffffH
	DDSymXIndex: 	FLAT:tf_0435
	DD	016H
	DD	0f4H
_volmd	DD	0ffffffffH
	DDSymXIndex: 	FLAT:tf_0434
	DD	016H
	DD	093H
_volmd	DD	0ffffffffH
	DDSymXIndex: 	FLAT:tf_0433
	DD	01fH
	DD	09fH
_volmd	DD	0ffffffffH
	DDSymXIndex: 	FLAT:tf_0432
	DD	016H
	DD	0a6H
_volmd	DD	0ffffffffH
	DDSymXIndex: 	FLAT:tf_0431
	DD	01fH
	DD	09fH
_volmd	DD	0ffffffffH
	DDSymXIndex: 	FLAT:tf_0430
	DD	01cH
	DD	0b2H
_volmd	DD	0ffffffffH
	DDSymXIndex: 	FLAT:tf_0429
	DD	01fH
	DD	0c5H
_volmd	DD	0ffffffffH
	DDSymXIndex: 	FLAT:tf_0428
	DD	01fH
	DD	09fH
_volmd	DD	0ffffffffH
	DDSymXIndex: 	FLAT:tf_0427
	DD	01aH
	DD	08fH
_volmd	DD	0ffffffffH
	DDSymXIndex: 	FLAT:tf_0426
	DD	01fH
	DD	09fH
_volmd	DD	0ffffffffH
	DDSymXIndex: 	FLAT:tf_0425
	DD	016H
	DD	092H
_volmd	DD	0ffffffffH
	DDSymXIndex: 	FLAT:tf_0424
	DD	01aH
	DD	0a1H
_volmd	DD	0ffffffffH
	DDSymXIndex: 	FLAT:tf_0423
	DD	022H
	DD	0b2H
_volmd	DD	0ffffffffH
	DDSymXIndex: 	FLAT:FormatCCTAPE
	DD	025H
	DD	0303H
_volmd	DD	0ffffffffH
	DDSymXIndex: 	FLAT:FormatFCB
	DD	022H
	DD	016dH
_volmd	DD	0ffffffffH
	DDSymXIndex: 	FLAT:initialize_utility
	DD	025H
	DD	0352H
_volmd	DD	0ffffffffH
	DDSymXIndex: 	FLAT:fmt_S64
	DD	018H
	DD	014bH
_volmd	DD	0ffffffffH
	DDSymXIndex: 	FLAT:timed_wait_condition_relative_usecs_impl
	DD	022H
	DD	0deH
_volmd	DD	0ffffffffH
	DDSymXIndex: 	FLAT:resolve_symbol_string
	DD	017H
	DD	049fH
_volmd	DD	0ffffffffH
	DDSymXIndex: 	FLAT:get_symbol
	DD	01cH
	DD	0199H
voltbl	ENDS
xdata	SEGMENT
$unwind$localtime DD 010901H
	DD	04209H
$unwind$time DD	010901H
	DD	04209H
$unwind$DebuggerTrace DD 011801H
	DD	0a218H
$unwind$strcaseabbrev DD 011301H
	DD	08213H
$unwind$get_symbol DD 022419H
	DD	0100d0112H
	DD	imagerel __GSHandlerCheck
	DD	08050H
$unwind$resolve_symbol_string DD 031f19H
	DD	011a010dH
	DD	07006H
	DD	imagerel __GSHandlerCheck
	DD	08c0H
$unwind$set_symbol DD 010e01H
	DD	0620eH
$unwind$del_symbol DD 010901H
	DD	06209H
$unwind$list_all_symbols DD 010401H
	DD	0e204H
$unwind$strlcpy DD 011301H
	DD	04213H
$unwind$strlcat DD 011301H
	DD	0a213H
$unwind$timeval_subtract DD 011301H
	DD	08213H
$unwind$timeval_add DD 010e01H
	DD	0620eH
$unwind$timed_wait_condition_relative_usecs_impl DD 012719H
	DD	08218H
	DD	imagerel __GSHandlerCheck
	DD	038H
$unwind$hprintf DD 011701H
	DD	08217H
$unwind$hwrite DD 011201H
	DD	04212H
$unwind$hgetc DD 010801H
	DD	06208H
$unwind$hgets DD 011301H
	DD	06213H
$unwind$hpcalloc DD 010d01H
	DD	0a20dH
$unwind$hpcfree DD 010d01H
	DD	0620dH
$unwind$trimloc DD 010901H
	DD	06209H
$unwind$FormatTIMEVAL DD 011301H
	DD	08213H
$unwind$fmt_memsize DD 011301H
	DD	04213H
$unwind$fmt_memsize_KB DD 011301H
	DD	04213H
$unwind$fmt_memsize_MB DD 011301H
	DD	04213H
$unwind$fmt_S64 DD 011d19H
	DD	0e20eH
	DD	imagerel __GSHandlerCheck
	DD	060H
$unwind$initialize_utility DD 032d19H
	DD	04e011bH
	DD	07014H
	DD	imagerel __GSHandlerCheck
	DD	0260H
$unwind$FormatFCB DD 012719H
	DD	0c218H
	DD	imagerel __GSHandlerCheck
	DD	058H
$unwind$FormatCCTAPE DD 022d19H
	DD	023011bH
	DD	imagerel __GSHandlerCheck
	DD	0100H
$unwind$tkcount DD 010e01H
	DD	0820eH
$unwind$ltrim DD 010e01H
	DD	0420eH
$unwind$rtrim DD 010e01H
	DD	0620eH
$unwind$trim DD	010e01H
	DD	0420eH
$unwind$parse_args DD 011701H
	DD	06217H
$unwind$init_random DD 020601H
	DD	070025206H
$unwind$is_numeric DD 010901H
	DD	04209H
$unwind$is_numeric_l DD 010e01H
	DD	0220eH
$unwind$is_hex DD 010901H
	DD	04209H
$unwind$is_hex_l DD 010e01H
	DD	0220eH
$unwind$string_to_upper DD 010901H
	DD	06209H
$unwind$string_to_lower DD 010901H
	DD	06209H
$unwind$convert_to_ebcdic DD 011201H
	DD	06212H
$unwind$make_asciiz DD 011701H
	DD	06217H
$unwind$idx_snprintf DD 011701H
	DD	0e217H
$unwind$ptyp2long DD 010801H
	DD	02208H
$unwind$ptyp2short DD 010801H
	DD	02208H
$unwind$short2ptyp DD 010901H
	DD	06209H
$unwind$do_make_psw64 DD 011701H
	DD	06217H
$unwind$PIC2Name DD 010801H
	DD	02208H
$unwind$order2name DD 010801H
	DD	02208H
$unwind$perc2name DD 011201H
	DD	06212H
$unwind$FormatORB DD 092001H
	DD	0280120H
	DD	0e017f019H
	DD	07013c015H
	DD	050116012H
	DD	03010H
$unwind$are_big_endian DD 010401H
	DD	02204H
$unwind$tf_0423 DD 042a19H
	DD	0310118H
	DD	060107011H
	DD	imagerel __GSHandlerCheck
	DD	0170H
$unwind$tf_0424 DD 022219H
	DD	02b0110H
	DD	imagerel __GSHandlerCheck
	DD	0140H
$unwind$tf_0425 DD 021e19H
	DD	02b010cH
	DD	imagerel __GSHandlerCheck
	DD	0140H
$unwind$tf_0426 DD 022719H
	DD	02b0115H
	DD	imagerel __GSHandlerCheck
	DD	0140H
$unwind$tf_0427 DD 022219H
	DD	02b0110H
	DD	imagerel __GSHandlerCheck
	DD	0140H
$unwind$tf_0428 DD 022719H
	DD	02b0115H
	DD	imagerel __GSHandlerCheck
	DD	0140H
$unwind$tf_0429 DD 022719H
	DD	02d0115H
	DD	imagerel __GSHandlerCheck
	DD	0150H
$unwind$tf_0430 DD 042419H
	DD	02d0112H
	DD	0600a700bH
	DD	imagerel __GSHandlerCheck
	DD	0150H
$unwind$tf_0431 DD 022719H
	DD	02b0115H
	DD	imagerel __GSHandlerCheck
	DD	0140H
$unwind$tf_0432 DD 021e19H
	DD	02b010cH
	DD	imagerel __GSHandlerCheck
	DD	0140H
$unwind$tf_0433 DD 022719H
	DD	02b0115H
	DD	imagerel __GSHandlerCheck
	DD	0140H
$unwind$tf_0434 DD 021e19H
	DD	02b010cH
	DD	imagerel __GSHandlerCheck
	DD	0140H
$unwind$tf_0435 DD 021e19H
	DD	02d010cH
	DD	imagerel __GSHandlerCheck
	DD	0150H
$unwind$tf_0436 DD 021e19H
	DD	02b010cH
	DD	imagerel __GSHandlerCheck
	DD	0140H
$unwind$tf_0437 DD 021e19H
	DD	02b010cH
	DD	imagerel __GSHandlerCheck
	DD	0140H
$unwind$tf_0438 DD 022d19H
	DD	02d011bH
	DD	imagerel __GSHandlerCheck
	DD	0150H
$unwind$tf_0439 DD 022219H
	DD	02d0110H
	DD	imagerel __GSHandlerCheck
	DD	0150H
$unwind$tf_0440 DD 021e19H
	DD	02d010cH
	DD	imagerel __GSHandlerCheck
	DD	0150H
$unwind$tf_0441 DD 021e19H
	DD	02d010cH
	DD	imagerel __GSHandlerCheck
	DD	0150H
$unwind$tf_0442 DD 021e19H
	DD	02b010cH
	DD	imagerel __GSHandlerCheck
	DD	0140H
$unwind$tf_0516 DD 022719H
	DD	02b0115H
	DD	imagerel __GSHandlerCheck
	DD	0140H
$unwind$tf_0517 DD 022219H
	DD	02b0110H
	DD	imagerel __GSHandlerCheck
	DD	0140H
$unwind$tf_0518 DD 022719H
	DD	02b0115H
	DD	imagerel __GSHandlerCheck
	DD	0140H
$unwind$tf_0519 DD 022c19H
	DD	02d011aH
	DD	imagerel __GSHandlerCheck
	DD	0150H
$unwind$tf_0520 DD 021e19H
	DD	02b010cH
	DD	imagerel __GSHandlerCheck
	DD	0140H
$unwind$tf_0800 DD 042019H
	DD	013010eH
	DD	060067007H
	DD	imagerel __GSHandlerCheck
	DD	080H
$unwind$tf_0801 DD 012219H
	DD	0c213H
	DD	imagerel __GSHandlerCheck
	DD	050H
$unwind$tf_0802 DD 012819H
	DD	0a219H
	DD	imagerel __GSHandlerCheck
	DD	048H
$unwind$tf_0803 DD 011d19H
	DD	0e20eH
	DD	imagerel __GSHandlerCheck
	DD	060H
$unwind$tf_0804 DD 012819H
	DD	0a219H
	DD	imagerel __GSHandlerCheck
	DD	048H
$unwind$tf_0806 DD 012619H
	DD	0a217H
	DD	imagerel __GSHandlerCheck
	DD	048H
$unwind$tf_0807 DD 012719H
	DD	0c218H
	DD	imagerel __GSHandlerCheck
	DD	050H
$unwind$tf_0808 DD 011819H
	DD	08209H
	DD	imagerel __GSHandlerCheck
	DD	038H
$unwind$tf_0809 DD 011d19H
	DD	0e20eH
	DD	imagerel __GSHandlerCheck
	DD	060H
$unwind$tf_0811 DD 011d19H
	DD	0a20eH
	DD	imagerel __GSHandlerCheck
	DD	040H
$unwind$tf_0812 DD 011819H
	DD	08209H
	DD	imagerel __GSHandlerCheck
	DD	038H
$unwind$tf_0814 DD 012719H
	DD	0c218H
	DD	imagerel __GSHandlerCheck
	DD	050H
$unwind$tf_0840 DD 011d19H
	DD	0c20eH
	DD	imagerel __GSHandlerCheck
	DD	050H
$unwind$tf_0844 DD 011819H
	DD	0a209H
	DD	imagerel __GSHandlerCheck
	DD	048H
$unwind$tf_0845 DD 011819H
	DD	0a209H
	DD	imagerel __GSHandlerCheck
	DD	048H
$unwind$tf_0846 DD 011819H
	DD	0a209H
	DD	imagerel __GSHandlerCheck
	DD	040H
$unwind$tf_1300 DD 011c19H
	DD	0a20dH
	DD	imagerel __GSHandlerCheck
	DD	040H
$unwind$tf_1301 DD 032a19H
	DD	07017c21bH
	DD	06016H
	DD	imagerel __GSHandlerCheck
	DD	058H
$unwind$tf_1304 DD 011819H
	DD	08209H
	DD	imagerel __GSHandlerCheck
	DD	038H
$unwind$tf_1305 DD 011819H
	DD	08209H
	DD	imagerel __GSHandlerCheck
	DD	038H
$unwind$tf_1306 DD 011819H
	DD	08209H
	DD	imagerel __GSHandlerCheck
	DD	038H
$unwind$tf_1307 DD 011819H
	DD	08209H
	DD	imagerel __GSHandlerCheck
	DD	038H
$unwind$tf_1308 DD 011819H
	DD	08209H
	DD	imagerel __GSHandlerCheck
	DD	038H
$unwind$tf_1309 DD 011819H
	DD	08209H
	DD	imagerel __GSHandlerCheck
	DD	038H
$unwind$tf_1310 DD 011819H
	DD	08209H
	DD	imagerel __GSHandlerCheck
	DD	038H
$unwind$tf_1311 DD 011819H
	DD	08209H
	DD	imagerel __GSHandlerCheck
	DD	038H
$unwind$tf_1312 DD 032819H
	DD	07015c219H
	DD	06014H
	DD	imagerel __GSHandlerCheck
	DD	050H
$unwind$tf_1313 DD 042019H
	DD	01f010eH
	DD	060067007H
	DD	imagerel __GSHandlerCheck
	DD	0e0H
$unwind$tf_1315 DD 032a19H
	DD	07017c21bH
	DD	06016H
	DD	imagerel __GSHandlerCheck
	DD	058H
$unwind$tf_1316 DD 011d19H
	DD	0a20eH
	DD	imagerel __GSHandlerCheck
	DD	040H
$unwind$tf_1317 DD 031f19H
	DD	0700ca210H
	DD	0600bH
	DD	imagerel __GSHandlerCheck
	DD	048H
$unwind$tf_1318 DD 011c19H
	DD	0a20dH
	DD	imagerel __GSHandlerCheck
	DD	040H
$unwind$tf_1320 DD 011819H
	DD	08209H
	DD	imagerel __GSHandlerCheck
	DD	038H
$unwind$tf_1321 DD 011819H
	DD	08209H
	DD	imagerel __GSHandlerCheck
	DD	038H
$unwind$tf_1329 DD 011819H
	DD	08209H
	DD	imagerel __GSHandlerCheck
	DD	038H
$unwind$tf_1330 DD 011819H
	DD	08209H
	DD	imagerel __GSHandlerCheck
	DD	038H
$unwind$tf_1331 DD 011819H
	DD	08209H
	DD	imagerel __GSHandlerCheck
	DD	038H
$unwind$tf_1332 DD 011819H
	DD	08209H
	DD	imagerel __GSHandlerCheck
	DD	038H
$unwind$tf_1333 DD 011c19H
	DD	0a20dH
	DD	imagerel __GSHandlerCheck
	DD	040H
$unwind$tf_1334 DD 031f19H
	DD	0700cc210H
	DD	0600bH
	DD	imagerel __GSHandlerCheck
	DD	058H
$unwind$tf_1336 DD 011819H
	DD	0a209H
	DD	imagerel __GSHandlerCheck
	DD	040H
$unwind$tf_2269 DD 042519H
	DD	01d0113H
	DD	0600b700cH
	DD	imagerel __GSHandlerCheck
	DD	0d0H
$unwind$tf_2270 DD 042019H
	DD	01d010eH
	DD	060067007H
	DD	imagerel __GSHandlerCheck
	DD	0d0H
$unwind$tf_2271 DD 042019H
	DD	01b010eH
	DD	060067007H
	DD	imagerel __GSHandlerCheck
	DD	0c0H
$unwind$tf_2272 DD 042019H
	DD	013010eH
	DD	060067007H
	DD	imagerel __GSHandlerCheck
	DD	080H
$unwind$tf_2276 DD 011819H
	DD	0a209H
	DD	imagerel __GSHandlerCheck
	DD	048H
$unwind$tf_2277 DD 042019H
	DD	04b010eH
	DD	060067007H
	DD	imagerel __GSHandlerCheck
	DD	0240H
$unwind$tf_2324 DD 042519H
	DD	0130113H
	DD	0600b700cH
	DD	imagerel __GSHandlerCheck
	DD	080H
$unwind$tf_2326 DD 011801H
	DD	08218H
$unwind$tf_MAX_RECSIZE DD 010401H
	DD	02204H
$unwind$tf_close DD 010901H
	DD	04209H
$unwind$tf_close_locked DD 010401H
	DD	0c204H
$unwind$tf_autostop DD 010401H
	DD	0a204H
$unwind$tf_are_swaps_needed DD 010901H
	DD	06209H
$unwind$tf_swap_sys DD 010901H
	DD	06209H
$unwind$tf_swap_hdr DD 010901H
	DD	04209H
$unwind$tf_swap_rec DD 021101H
	DD	0370111H
$unwind$Interrupt_Lock_Obtained DD 010e01H
	DD	0420eH
$unwind$Obtain_Interrupt_Lock DD 010e01H
	DD	0420eH
$unwind$Release_Interrupt_Lock DD 010e01H
	DD	0420eH
$unwind$get_symbol_token DD 010d01H
	DD	0620dH
$unwind$_fmt_memsize DD 012619H
	DD	0c217H
	DD	imagerel __GSHandlerCheck
	DD	050H
$unwind$tf_virt_to_real DD 011801H
	DD	08218H
$unwind$tf_get_storage_key DD 010e01H
	DD	0620eH
$unwind$tf_store_int_timer DD 010e01H
	DD	0820eH
$unwind$tf_apply_prefixing DD 010e01H
	DD	0620eH
$unwind$tf_write_initial_TFSYS_locked DD 030b01H
	DD	07007e20bH
	DD	06006H
$unwind$tf_write DD 041f01H
	DD	013011fH
	DD	060177018H
$unwind$tf_2326_op DD 031a01H
	DD	07016c21aH
	DD	06015H
xdata	ENDS
;	COMDAT xdata
xdata	SEGMENT
$unwind$_vsnprintf_s DD 011801H
	DD	06218H
xdata	ENDS
;	COMDAT xdata
xdata	SEGMENT
$unwind$_vsnprintf_s_l DD 011801H
	DD	0a218H
xdata	ENDS
; Function compile flags: /Odtp
; File C:\papa\MyGit\hyperion-zvector\hscutl.c
_TEXT	SEGMENT
ar$1 = 48
tv94 = 52
stid$2 = 56
amt$3 = 64
abs$4 = 72
bytemask$5 = 80
pagesize$6 = 88
regs$ = 128
op$ = 136
opcode1$ = 144
opcode2$ = 152
b$ = 160
isop2$ = 168
tf_2326_op PROC

; 3825 : {

  00000	44 88 4c 24 20	 mov	 BYTE PTR [rsp+32], r9b
  00005	44 88 44 24 18	 mov	 BYTE PTR [rsp+24], r8b
  0000a	48 89 54 24 10	 mov	 QWORD PTR [rsp+16], rdx
  0000f	48 89 4c 24 08	 mov	 QWORD PTR [rsp+8], rcx
  00014	56		 push	 rsi
  00015	57		 push	 rdi
  00016	48 83 ec 68	 sub	 rsp, 104		; 00000068H

; 3826 :     if (b >= 0)

  0001a	83 bc 24 a0 00
	00 00 00	 cmp	 DWORD PTR b$[rsp], 0
  00022	0f 8c 39 02 00
	00		 jl	 $LN2@tf_2326_op

; 3827 :     {
; 3828 :         int ar, stid;
; 3829 : 
; 3830 :         /* Determine if operand should be treated as a real address */
; 3831 :         if (0
; 3832 :             || REAL_MODE( &regs->psw )
; 3833 :             || (isop2 && IS_REAL_ADDR_OP( opcode1, opcode2 ))

  00028	33 c0		 xor	 eax, eax
  0002a	85 c0		 test	 eax, eax
  0002c	0f 85 b4 00 00
	00		 jne	 $LN5@tf_2326_op
  00032	48 8b 84 24 80
	00 00 00	 mov	 rax, QWORD PTR regs$[rsp]
  0003a	0f b6 40 7a	 movzx	 eax, BYTE PTR [rax+122]
  0003e	83 e0 08	 and	 eax, 8
  00041	85 c0		 test	 eax, eax
  00043	0f 84 9d 00 00
	00		 je	 $LN5@tf_2326_op
  00049	48 8b 84 24 80
	00 00 00	 mov	 rax, QWORD PTR regs$[rsp]
  00051	0f b6 40 78	 movzx	 eax, BYTE PTR [rax+120]
  00055	83 e0 04	 and	 eax, 4
  00058	85 c0		 test	 eax, eax
  0005a	0f 84 86 00 00
	00		 je	 $LN5@tf_2326_op
  00060	0f b6 84 24 a8
	00 00 00	 movzx	 eax, BYTE PTR isop2$[rsp]
  00068	85 c0		 test	 eax, eax
  0006a	0f 84 80 00 00
	00		 je	 $LN3@tf_2326_op
  00070	33 c0		 xor	 eax, eax
  00072	85 c0		 test	 eax, eax
  00074	75 70		 jne	 SHORT $LN6@tf_2326_op
  00076	0f b6 84 24 90
	00 00 00	 movzx	 eax, BYTE PTR opcode1$[rsp]
  0007e	3d b2 00 00 00	 cmp	 eax, 178		; 000000b2H
  00083	75 0d		 jne	 SHORT $LN7@tf_2326_op
  00085	0f b6 84 24 98
	00 00 00	 movzx	 eax, BYTE PTR opcode2$[rsp]
  0008d	83 f8 4b	 cmp	 eax, 75			; 0000004bH
  00090	74 54		 je	 SHORT $LN6@tf_2326_op
$LN7@tf_2326_op:
  00092	0f b6 84 24 90
	00 00 00	 movzx	 eax, BYTE PTR opcode1$[rsp]
  0009a	3d b2 00 00 00	 cmp	 eax, 178		; 000000b2H
  0009f	75 0d		 jne	 SHORT $LN8@tf_2326_op
  000a1	0f b6 84 24 98
	00 00 00	 movzx	 eax, BYTE PTR opcode2$[rsp]
  000a9	83 f8 46	 cmp	 eax, 70			; 00000046H
  000ac	74 38		 je	 SHORT $LN6@tf_2326_op
$LN8@tf_2326_op:
  000ae	0f b6 84 24 90
	00 00 00	 movzx	 eax, BYTE PTR opcode1$[rsp]
  000b6	3d b9 00 00 00	 cmp	 eax, 185		; 000000b9H
  000bb	75 0d		 jne	 SHORT $LN9@tf_2326_op
  000bd	0f b6 84 24 98
	00 00 00	 movzx	 eax, BYTE PTR opcode2$[rsp]
  000c5	83 f8 05	 cmp	 eax, 5
  000c8	74 1c		 je	 SHORT $LN6@tf_2326_op
$LN9@tf_2326_op:
  000ca	0f b6 84 24 90
	00 00 00	 movzx	 eax, BYTE PTR opcode1$[rsp]
  000d2	3d b9 00 00 00	 cmp	 eax, 185		; 000000b9H
  000d7	75 17		 jne	 SHORT $LN3@tf_2326_op
  000d9	0f b6 84 24 98
	00 00 00	 movzx	 eax, BYTE PTR opcode2$[rsp]
  000e1	83 f8 25	 cmp	 eax, 37			; 00000025H
  000e4	75 0a		 jne	 SHORT $LN3@tf_2326_op
$LN6@tf_2326_op:
$LN5@tf_2326_op:

; 3834 :         )
; 3835 :             ar = USE_REAL_ADDR;

  000e6	c7 44 24 30 fe
	ff ff ff	 mov	 DWORD PTR ar$1[rsp], -2
  000ee	eb 0b		 jmp	 SHORT $LN4@tf_2326_op
$LN3@tf_2326_op:

; 3836 :         else
; 3837 :             ar = b;

  000f0	8b 84 24 a0 00
	00 00		 mov	 eax, DWORD PTR b$[rsp]
  000f7	89 44 24 30	 mov	 DWORD PTR ar$1[rsp], eax
$LN4@tf_2326_op:

; 3838 : 
; 3839 :         /* Get the real address for this virtual address */
; 3840 :         if ((op->xcode = tf_virt_to_real( &op->raddr, &stid,
; 3841 :              op->vaddr, ar, regs, ACCTYPE_HW )) == 0)

  000fb	48 8b 84 24 88
	00 00 00	 mov	 rax, QWORD PTR op$[rsp]
  00103	48 83 c0 08	 add	 rax, 8
  00107	c7 44 24 28 00
	00 00 00	 mov	 DWORD PTR [rsp+40], 0
  0010f	48 8b 8c 24 80
	00 00 00	 mov	 rcx, QWORD PTR regs$[rsp]
  00117	48 89 4c 24 20	 mov	 QWORD PTR [rsp+32], rcx
  0011c	44 8b 4c 24 30	 mov	 r9d, DWORD PTR ar$1[rsp]
  00121	48 8b 8c 24 88
	00 00 00	 mov	 rcx, QWORD PTR op$[rsp]
  00129	4c 8b 01	 mov	 r8, QWORD PTR [rcx]
  0012c	48 8d 54 24 38	 lea	 rdx, QWORD PTR stid$2[rsp]
  00131	48 8b c8	 mov	 rcx, rax
  00134	e8 00 00 00 00	 call	 tf_virt_to_real
  00139	89 44 24 34	 mov	 DWORD PTR tv94[rsp], eax
  0013d	48 8b 84 24 88
	00 00 00	 mov	 rax, QWORD PTR op$[rsp]
  00145	0f b7 4c 24 34	 movzx	 ecx, WORD PTR tv94[rsp]
  0014a	66 89 48 20	 mov	 WORD PTR [rax+32], cx
  0014e	0f b7 44 24 34	 movzx	 eax, WORD PTR tv94[rsp]
  00153	85 c0		 test	 eax, eax
  00155	0f 85 06 01 00
	00		 jne	 $LN10@tf_2326_op

; 3842 :         {
; 3843 :             U64 pagesize, bytemask, abs;
; 3844 :             size_t amt = sizeof( op->stor );

  0015b	48 c7 44 24 40
	10 00 00 00	 mov	 QWORD PTR amt$3[rsp], 16

; 3845 : 
; 3846 :             /* Convert real address to absolute address */
; 3847 :             abs = tf_apply_prefixing( op->raddr, regs );

  00164	48 8b 94 24 80
	00 00 00	 mov	 rdx, QWORD PTR regs$[rsp]
  0016c	48 8b 84 24 88
	00 00 00	 mov	 rax, QWORD PTR op$[rsp]
  00174	48 8b 48 08	 mov	 rcx, QWORD PTR [rax+8]
  00178	e8 00 00 00 00	 call	 tf_apply_prefixing
  0017d	48 89 44 24 48	 mov	 QWORD PTR abs$4[rsp], rax

; 3848 : 
; 3849 :             /* Determine page size and byte mask */
; 3850 :             if (regs->arch_mode == ARCH_370_IDX)

  00182	48 8b 84 24 80
	00 00 00	 mov	 rax, QWORD PTR regs$[rsp]
  0018a	83 78 64 00	 cmp	 DWORD PTR [rax+100], 0
  0018e	75 14		 jne	 SHORT $LN11@tf_2326_op

; 3851 :             {
; 3852 :                 pagesize = STORAGE_KEY_2K_PAGESIZE;

  00190	48 c7 44 24 58
	00 08 00 00	 mov	 QWORD PTR pagesize$6[rsp], 2048 ; 00000800H

; 3853 :                 bytemask = STORAGE_KEY_2K_BYTEMASK;

  00199	48 c7 44 24 50
	ff 07 00 00	 mov	 QWORD PTR bytemask$5[rsp], 2047 ; 000007ffH

; 3854 :             }

  001a2	eb 12		 jmp	 SHORT $LN12@tf_2326_op
$LN11@tf_2326_op:

; 3855 :             else
; 3856 :             {
; 3857 :                 pagesize = STORAGE_KEY_4K_PAGESIZE;

  001a4	48 c7 44 24 58
	00 10 00 00	 mov	 QWORD PTR pagesize$6[rsp], 4096 ; 00001000H

; 3858 :                 bytemask = STORAGE_KEY_4K_BYTEMASK;

  001ad	48 c7 44 24 50
	ff 0f 00 00	 mov	 QWORD PTR bytemask$5[rsp], 4095 ; 00000fffH
$LN12@tf_2326_op:

; 3859 :             }
; 3860 : 
; 3861 :             /* If virtual storage, only save the data that's
; 3862 :                on this one page (i.e. to the end of the page) */
; 3863 :             if (ar != USE_REAL_ADDR)

  001b6	83 7c 24 30 fe	 cmp	 DWORD PTR ar$1[rsp], -2
  001bb	74 31		 je	 SHORT $LN13@tf_2326_op

; 3864 :             {
; 3865 :                 amt = pagesize - (abs & bytemask);

  001bd	48 8b 44 24 50	 mov	 rax, QWORD PTR bytemask$5[rsp]
  001c2	48 8b 4c 24 48	 mov	 rcx, QWORD PTR abs$4[rsp]
  001c7	48 23 c8	 and	 rcx, rax
  001ca	48 8b c1	 mov	 rax, rcx
  001cd	48 8b 4c 24 58	 mov	 rcx, QWORD PTR pagesize$6[rsp]
  001d2	48 2b c8	 sub	 rcx, rax
  001d5	48 8b c1	 mov	 rax, rcx
  001d8	48 89 44 24 40	 mov	 QWORD PTR amt$3[rsp], rax

; 3866 : 
; 3867 :                 if (amt > sizeof( op->stor ))

  001dd	48 83 7c 24 40
	10		 cmp	 QWORD PTR amt$3[rsp], 16
  001e3	76 09		 jbe	 SHORT $LN14@tf_2326_op

; 3868 :                     amt = sizeof( op->stor );

  001e5	48 c7 44 24 40
	10 00 00 00	 mov	 QWORD PTR amt$3[rsp], 16
$LN14@tf_2326_op:
$LN13@tf_2326_op:

; 3869 :             }
; 3870 : 
; 3871 :             /* Update Interval Timer beforehand, if needed */
; 3872 : #if defined( _FEATURE_INTERVAL_TIMER )
; 3873 :             tf_store_int_timer( regs, op->raddr );

  001ee	48 8b 84 24 88
	00 00 00	 mov	 rax, QWORD PTR op$[rsp]
  001f6	48 8b 50 08	 mov	 rdx, QWORD PTR [rax+8]
  001fa	48 8b 8c 24 80
	00 00 00	 mov	 rcx, QWORD PTR regs$[rsp]
  00202	e8 00 00 00 00	 call	 tf_store_int_timer

; 3874 : #endif
; 3875 :             /* Save as much operand data as possible */
; 3876 :             memcpy( op->stor, regs->mainstor + abs, amt );

  00207	48 8b 84 24 80
	00 00 00	 mov	 rax, QWORD PTR regs$[rsp]
  0020f	48 8b 80 48 08
	00 00		 mov	 rax, QWORD PTR [rax+2120]
  00216	48 03 44 24 48	 add	 rax, QWORD PTR abs$4[rsp]
  0021b	48 8b 8c 24 88
	00 00 00	 mov	 rcx, QWORD PTR op$[rsp]
  00223	48 83 c1 10	 add	 rcx, 16
  00227	48 8b f9	 mov	 rdi, rcx
  0022a	48 8b f0	 mov	 rsi, rax
  0022d	48 8b 4c 24 40	 mov	 rcx, QWORD PTR amt$3[rsp]
  00232	f3 a4		 rep movsb

; 3877 : 
; 3878 :             /* Save the amount we saved and its storage key */
; 3879 :             op->amt = (BYTE) amt; // (how much we saved)

  00234	48 8b 84 24 88
	00 00 00	 mov	 rax, QWORD PTR op$[rsp]
  0023c	0f b6 4c 24 40	 movzx	 ecx, BYTE PTR amt$3[rsp]
  00241	88 48 23	 mov	 BYTE PTR [rax+35], cl

; 3880 :             op->skey = tf_get_storage_key( regs, abs );

  00244	48 8b 54 24 48	 mov	 rdx, QWORD PTR abs$4[rsp]
  00249	48 8b 8c 24 80
	00 00 00	 mov	 rcx, QWORD PTR regs$[rsp]
  00251	e8 00 00 00 00	 call	 tf_get_storage_key
  00256	48 8b 8c 24 88
	00 00 00	 mov	 rcx, QWORD PTR op$[rsp]
  0025e	88 41 22	 mov	 BYTE PTR [rcx+34], al
$LN10@tf_2326_op:
$LN2@tf_2326_op:

; 3881 :         }
; 3882 :     }
; 3883 : }

  00261	48 83 c4 68	 add	 rsp, 104		; 00000068H
  00265	5f		 pop	 rdi
  00266	5e		 pop	 rsi
  00267	c3		 ret	 0
tf_2326_op ENDP
_TEXT	ENDS
; Function compile flags: /Odtp
; File C:\papa\MyGit\hyperion-zvector\hscutl.c
_TEXT	SEGMENT
auto_closed$ = 80
ret$ = 81
nostop$ = 82
hdr$ = 88
tv135 = 96
tv141 = 100
tv192 = 104
tv194 = 108
tod$ = 112
written$ = 120
p$1 = 128
tv160 = 136
regs$ = 176
rec$ = 184
curr$ = 192
msgnum$ = 200
tf_write PROC

; 2721 : {

  00000	66 44 89 4c 24
	20		 mov	 WORD PTR [rsp+32], r9w
  00006	66 44 89 44 24
	18		 mov	 WORD PTR [rsp+24], r8w
  0000c	48 89 54 24 10	 mov	 QWORD PTR [rsp+16], rdx
  00011	48 89 4c 24 08	 mov	 QWORD PTR [rsp+8], rcx
  00016	56		 push	 rsi
  00017	57		 push	 rdi
  00018	48 81 ec 98 00
	00 00		 sub	 rsp, 152		; 00000098H

; 2722 :     static size_t  bufsize  = 0;
; 2723 :     static U16     prev     = 0;
; 2724 : 
; 2725 :     TFHDR*   hdr;
; 2726 :     size_t   written;
; 2727 :     TIMEVAL  tod;
; 2728 :     bool     nostop;
; 2729 :     bool     auto_closed = false; // (true when MAX= reached)

  0001f	c6 44 24 50 00	 mov	 BYTE PTR auto_closed$[rsp], 0

; 2730 :     bool     ret = true;

  00024	c6 44 24 51 01	 mov	 BYTE PTR ret$[rsp], 1

; 2731 : 
; 2732 :     OBTAIN_TRACEFILE_LOCK();

  00029	48 8b 05 00 00
	00 00		 mov	 rax, QWORD PTR __imp_sysblk
  00030	48 05 10 14 00
	00		 add	 rax, 5136		; 00001410H
  00036	48 8d 15 00 00
	00 00		 lea	 rdx, OFFSET FLAT:$SG160256
  0003d	48 8b c8	 mov	 rcx, rax
  00040	e8 00 00 00 00	 call	 hthread_obtain_lock

; 2733 :     {
; 2734 :         /* Quick exit if tracefile tracing isn't active */
; 2735 :         if (!sysblk.traceFILE)

  00045	48 8b 05 00 00
	00 00		 mov	 rax, QWORD PTR __imp_sysblk
  0004c	48 83 b8 20 14
	00 00 00	 cmp	 QWORD PTR [rax+5152], 0
  00054	75 23		 jne	 SHORT $LN5@tf_write

; 2736 :         {
; 2737 :             RELEASE_TRACEFILE_LOCK();

  00056	48 8b 05 00 00
	00 00		 mov	 rax, QWORD PTR __imp_sysblk
  0005d	48 05 10 14 00
	00		 add	 rax, 5136		; 00001410H
  00063	48 8d 15 00 00
	00 00		 lea	 rdx, OFFSET FLAT:$SG160258
  0006a	48 8b c8	 mov	 rcx, rax
  0006d	e8 00 00 00 00	 call	 hthread_release_lock

; 2738 :             return true;

  00072	b0 01		 mov	 al, 1
  00074	e9 06 04 00 00	 jmp	 $LN1@tf_write
$LN5@tf_write:

; 2739 :         }
; 2740 : 
; 2741 :         gettimeofday( (TIMEVAL*) &tod, NULL );

  00079	33 d2		 xor	 edx, edx
  0007b	48 8d 4c 24 70	 lea	 rcx, QWORD PTR tod$[rsp]
  00080	e8 00 00 00 00	 call	 gettimeofday

; 2742 : 
; 2743 :         /* Write TFSYS record if first time */
; 2744 :         if (!sysblk.curtracesize)

  00085	48 8b 05 00 00
	00 00		 mov	 rax, QWORD PTR __imp_sysblk
  0008c	48 83 b8 28 14
	00 00 00	 cmp	 QWORD PTR [rax+5160], 0
  00094	75 5f		 jne	 SHORT $LN6@tf_write

; 2745 :         {
; 2746 :             if (!tf_write_initial_TFSYS_locked( &tod ))

  00096	48 8d 4c 24 70	 lea	 rcx, QWORD PTR tod$[rsp]
  0009b	e8 00 00 00 00	 call	 tf_write_initial_TFSYS_locked
  000a0	0f b6 c0	 movzx	 eax, al
  000a3	85 c0		 test	 eax, eax
  000a5	75 23		 jne	 SHORT $LN7@tf_write

; 2747 :             {
; 2748 :                 // (error message already issued)
; 2749 :                 RELEASE_TRACEFILE_LOCK();

  000a7	48 8b 05 00 00
	00 00		 mov	 rax, QWORD PTR __imp_sysblk
  000ae	48 05 10 14 00
	00		 add	 rax, 5136		; 00001410H
  000b4	48 8d 15 00 00
	00 00		 lea	 rdx, OFFSET FLAT:$SG160261
  000bb	48 8b c8	 mov	 rcx, rax
  000be	e8 00 00 00 00	 call	 hthread_release_lock

; 2750 :                 return false;

  000c3	32 c0		 xor	 al, al
  000c5	e9 b5 03 00 00	 jmp	 $LN1@tf_write
$LN7@tf_write:

; 2751 :             }
; 2752 : 
; 2753 :             bufsize = tf_MAX_RECSIZE();

  000ca	e8 00 00 00 00	 call	 tf_MAX_RECSIZE
  000cf	48 89 05 00 00
	00 00		 mov	 QWORD PTR ?bufsize@?1??tf_write@@9@9, rax

; 2754 :             prev = 0;

  000d6	33 c0		 xor	 eax, eax
  000d8	66 89 05 00 00
	00 00		 mov	 WORD PTR ?prev@?1??tf_write@@9@9, ax

; 2755 : 
; 2756 :             /* Register shutdown function so close updates TFSYS */
; 2757 :             hdl_addshut( "tf_close", tf_close, NULL );

  000df	45 33 c0	 xor	 r8d, r8d
  000e2	48 8d 15 00 00
	00 00		 lea	 rdx, OFFSET FLAT:tf_close
  000e9	48 8d 0d 00 00
	00 00		 lea	 rcx, OFFSET FLAT:$SG160262
  000f0	e8 00 00 00 00	 call	 hdl_addshut
$LN6@tf_write:

; 2758 :         }
; 2759 : 
; 2760 :         /* Copy caller's entire record into our buffer */
; 2761 :         if ((size_t)curr > bufsize) CRASH();

  000f5	0f b7 84 24 c0
	00 00 00	 movzx	 eax, WORD PTR curr$[rsp]
  000fd	48 3b 05 00 00
	00 00		 cmp	 rax, QWORD PTR ?bufsize@?1??tf_write@@9@9
  00104	76 1d		 jbe	 SHORT $LN8@tf_write
$LN4@tf_write:
  00106	48 c7 84 24 80
	00 00 00 00 00
	00 00		 mov	 QWORD PTR p$1[rsp], 0
  00112	48 8b 84 24 80
	00 00 00	 mov	 rax, QWORD PTR p$1[rsp]
  0011a	c6 00 00	 mov	 BYTE PTR [rax], 0
  0011d	33 c0		 xor	 eax, eax
  0011f	85 c0		 test	 eax, eax
  00121	75 e3		 jne	 SHORT $LN4@tf_write
$LN8@tf_write:

; 2762 :         hdr = (TFHDR*) sysblk.tracefilebuff;

  00123	48 8b 05 00 00
	00 00		 mov	 rax, QWORD PTR __imp_sysblk
  0012a	48 8b 80 38 14
	00 00		 mov	 rax, QWORD PTR [rax+5176]
  00131	48 89 44 24 58	 mov	 QWORD PTR hdr$[rsp], rax

; 2763 :         memcpy( hdr, rec, curr );

  00136	0f b7 84 24 c0
	00 00 00	 movzx	 eax, WORD PTR curr$[rsp]
  0013e	48 8b 7c 24 58	 mov	 rdi, QWORD PTR hdr$[rsp]
  00143	48 8b b4 24 b8
	00 00 00	 mov	 rsi, QWORD PTR rec$[rsp]
  0014b	8b c8		 mov	 ecx, eax
  0014d	f3 a4		 rep movsb

; 2764 : 
; 2765 :         /* Finish building their header */
; 2766 :         hdr->prev      = prev;

  0014f	48 8b 44 24 58	 mov	 rax, QWORD PTR hdr$[rsp]
  00154	0f b7 0d 00 00
	00 00		 movzx	 ecx, WORD PTR ?prev@?1??tf_write@@9@9
  0015b	66 89 08	 mov	 WORD PTR [rax], cx

; 2767 :         hdr->curr      = curr;

  0015e	48 8b 44 24 58	 mov	 rax, QWORD PTR hdr$[rsp]
  00163	0f b7 8c 24 c0
	00 00 00	 movzx	 ecx, WORD PTR curr$[rsp]
  0016b	66 89 48 02	 mov	 WORD PTR [rax+2], cx

; 2768 :         hdr->cpuad     = regs ? regs->cpuad : 0xFFFF;

  0016f	48 83 bc 24 b0
	00 00 00 00	 cmp	 QWORD PTR regs$[rsp], 0
  00178	74 15		 je	 SHORT $LN18@tf_write
  0017a	48 8b 84 24 b0
	00 00 00	 mov	 rax, QWORD PTR regs$[rsp]
  00182	0f b7 80 3c 08
	00 00		 movzx	 eax, WORD PTR [rax+2108]
  00189	89 44 24 60	 mov	 DWORD PTR tv135[rsp], eax
  0018d	eb 08		 jmp	 SHORT $LN19@tf_write
$LN18@tf_write:
  0018f	c7 44 24 60 ff
	ff 00 00	 mov	 DWORD PTR tv135[rsp], 65535 ; 0000ffffH
$LN19@tf_write:
  00197	48 8b 44 24 58	 mov	 rax, QWORD PTR hdr$[rsp]
  0019c	0f b7 4c 24 60	 movzx	 ecx, WORD PTR tv135[rsp]
  001a1	66 89 48 04	 mov	 WORD PTR [rax+4], cx

; 2769 :         hdr->msgnum    = msgnum;

  001a5	48 8b 44 24 58	 mov	 rax, QWORD PTR hdr$[rsp]
  001aa	0f b7 8c 24 c8
	00 00 00	 movzx	 ecx, WORD PTR msgnum$[rsp]
  001b2	66 89 48 06	 mov	 WORD PTR [rax+6], cx

; 2770 :         hdr->arch_mode = regs ? regs->arch_mode : 0xFF;

  001b6	48 83 bc 24 b0
	00 00 00 00	 cmp	 QWORD PTR regs$[rsp], 0
  001bf	74 11		 je	 SHORT $LN20@tf_write
  001c1	48 8b 84 24 b0
	00 00 00	 mov	 rax, QWORD PTR regs$[rsp]
  001c9	8b 40 64	 mov	 eax, DWORD PTR [rax+100]
  001cc	89 44 24 64	 mov	 DWORD PTR tv141[rsp], eax
  001d0	eb 08		 jmp	 SHORT $LN21@tf_write
$LN20@tf_write:
  001d2	c7 44 24 64 ff
	00 00 00	 mov	 DWORD PTR tv141[rsp], 255 ; 000000ffH
$LN21@tf_write:
  001da	48 8b 44 24 58	 mov	 rax, QWORD PTR hdr$[rsp]
  001df	0f b6 4c 24 64	 movzx	 ecx, BYTE PTR tv141[rsp]
  001e4	88 48 10	 mov	 BYTE PTR [rax+16], cl

; 2771 :         hdr->tod       = tod;

  001e7	48 8b 44 24 58	 mov	 rax, QWORD PTR hdr$[rsp]
  001ec	48 8b 4c 24 70	 mov	 rcx, QWORD PTR tod$[rsp]
  001f1	48 89 48 08	 mov	 QWORD PTR [rax+8], rcx

; 2772 : 
; 2773 :         /* Update the TFSYS record's end time too */
; 2774 :         memcpy( &tfsys.end_tod, &tod, sizeof( tfsys.end_tod ));

  001f5	48 8b 44 24 70	 mov	 rax, QWORD PTR tod$[rsp]
  001fa	48 89 05 18 00
	00 00		 mov	 QWORD PTR tfsys+24, rax

; 2775 : 
; 2776 :         /* Write caller's entire record to the trace file */
; 2777 :         if ((written = fwrite( hdr, 1, curr,
; 2778 :                 sysblk.traceFILE )) <  curr)

  00201	0f b7 84 24 c0
	00 00 00	 movzx	 eax, WORD PTR curr$[rsp]
  00209	48 8b 0d 00 00
	00 00		 mov	 rcx, QWORD PTR __imp_sysblk
  00210	4c 8b 89 20 14
	00 00		 mov	 r9, QWORD PTR [rcx+5152]
  00217	44 8b c0	 mov	 r8d, eax
  0021a	ba 01 00 00 00	 mov	 edx, 1
  0021f	48 8b 4c 24 58	 mov	 rcx, QWORD PTR hdr$[rsp]
  00224	e8 00 00 00 00	 call	 w32_fwrite
  00229	48 89 44 24 78	 mov	 QWORD PTR written$[rsp], rax
  0022e	0f b7 84 24 c0
	00 00 00	 movzx	 eax, WORD PTR curr$[rsp]
  00236	48 39 44 24 78	 cmp	 QWORD PTR written$[rsp], rax
  0023b	73 79		 jae	 SHORT $LN9@tf_write

; 2779 :         {
; 2780 :             // "Error in function %s: %s"
; 2781 :             WRMSG( HHC00075, "E", "fwrite()", strerror( errno ));

  0023d	ff 15 00 00 00
	00		 call	 QWORD PTR __imp__errno
  00243	8b 08		 mov	 ecx, DWORD PTR [rax]
  00245	e8 00 00 00 00	 call	 w32_strerror
  0024a	48 89 84 24 88
	00 00 00	 mov	 QWORD PTR tv160[rsp], rax
  00252	b9 01 00 00 00	 mov	 ecx, 1
  00257	ff 15 00 00 00
	00		 call	 QWORD PTR __imp___acrt_iob_func
  0025d	48 8b 8c 24 88
	00 00 00	 mov	 rcx, QWORD PTR tv160[rsp]
  00265	48 89 4c 24 40	 mov	 QWORD PTR [rsp+64], rcx
  0026a	48 8d 0d 00 00
	00 00		 lea	 rcx, OFFSET FLAT:$SG160265
  00271	48 89 4c 24 38	 mov	 QWORD PTR [rsp+56], rcx
  00276	48 8d 0d 00 00
	00 00		 lea	 rcx, OFFSET FLAT:$SG160266
  0027d	48 89 4c 24 30	 mov	 QWORD PTR [rsp+48], rcx
  00282	48 8d 0d 00 00
	00 00		 lea	 rcx, OFFSET FLAT:$SG160267
  00289	48 89 4c 24 28	 mov	 QWORD PTR [rsp+40], rcx
  0028e	48 89 44 24 20	 mov	 QWORD PTR [rsp+32], rax
  00293	41 b9 03 00 00
	00		 mov	 r9d, 3
  00299	4c 8d 05 00 00
	00 00		 lea	 r8, OFFSET FLAT:$SG160268
  002a0	ba dd 0a 00 00	 mov	 edx, 2781		; 00000addH
  002a5	48 8d 0d 00 00
	00 00		 lea	 rcx, OFFSET FLAT:$SG160269
  002ac	e8 00 00 00 00	 call	 fwritemsg

; 2782 :             ret = false;

  002b1	c6 44 24 51 00	 mov	 BYTE PTR ret$[rsp], 0
$LN9@tf_write:

; 2783 :         }
; 2784 : 
; 2785 :         /* Update variables for next time */
; 2786 :         sysblk.curtracesize += written;

  002b6	48 8b 05 00 00
	00 00		 mov	 rax, QWORD PTR __imp_sysblk
  002bd	48 8b 80 28 14
	00 00		 mov	 rax, QWORD PTR [rax+5160]
  002c4	48 03 44 24 78	 add	 rax, QWORD PTR written$[rsp]
  002c9	48 8b 0d 00 00
	00 00		 mov	 rcx, QWORD PTR __imp_sysblk
  002d0	48 89 81 28 14
	00 00		 mov	 QWORD PTR [rcx+5160], rax

; 2787 :         prev = curr;

  002d7	0f b7 84 24 c0
	00 00 00	 movzx	 eax, WORD PTR curr$[rsp]
  002df	66 89 05 00 00
	00 00		 mov	 WORD PTR ?prev@?1??tf_write@@9@9, ax

; 2788 : 
; 2789 :         /* Count total trace records */
; 2790 :         if (hdr->cpuad == 0xFFFF)

  002e6	48 8b 44 24 58	 mov	 rax, QWORD PTR hdr$[rsp]
  002eb	0f b7 40 04	 movzx	 eax, WORD PTR [rax+4]
  002ef	3d ff ff 00 00	 cmp	 eax, 65535		; 0000ffffH
  002f4	75 13		 jne	 SHORT $LN10@tf_write

; 2791 :             tfsys.tot_dev++;

  002f6	48 8b 05 28 00
	00 00		 mov	 rax, QWORD PTR tfsys+40
  002fd	48 ff c0	 inc	 rax
  00300	48 89 05 28 00
	00 00		 mov	 QWORD PTR tfsys+40, rax
  00307	eb 21		 jmp	 SHORT $LN11@tf_write
$LN10@tf_write:

; 2792 :         else
; 2793 :         {
; 2794 :             if (hdr->msgnum == 2324)

  00309	48 8b 44 24 58	 mov	 rax, QWORD PTR hdr$[rsp]
  0030e	0f b7 40 06	 movzx	 eax, WORD PTR [rax+6]
  00312	3d 14 09 00 00	 cmp	 eax, 2324		; 00000914H
  00317	75 11		 jne	 SHORT $LN12@tf_write

; 2795 :                 tfsys.tot_ins++;

  00319	48 8b 05 20 00
	00 00		 mov	 rax, QWORD PTR tfsys+32
  00320	48 ff c0	 inc	 rax
  00323	48 89 05 20 00
	00 00		 mov	 QWORD PTR tfsys+32, rax
$LN12@tf_write:
$LN11@tf_write:

; 2796 :         }
; 2797 : 
; 2798 :         /* Stop tracing when MAX size exceeded */
; 2799 :         if (sysblk.curtracesize > sysblk.maxtracesize)

  0032a	48 8b 05 00 00
	00 00		 mov	 rax, QWORD PTR __imp_sysblk
  00331	48 8b 0d 00 00
	00 00		 mov	 rcx, QWORD PTR __imp_sysblk
  00338	48 8b 89 30 14
	00 00		 mov	 rcx, QWORD PTR [rcx+5168]
  0033f	48 39 88 28 14
	00 00		 cmp	 QWORD PTR [rax+5160], rcx
  00346	76 55		 jbe	 SHORT $LN13@tf_write

; 2800 :         {
; 2801 :             tf_close_locked();

  00348	e8 00 00 00 00	 call	 tf_close_locked

; 2802 :             auto_closed = true; // (handled further below)

  0034d	c6 44 24 50 01	 mov	 BYTE PTR auto_closed$[rsp], 1

; 2803 :             nostop = sysblk.tfnostop ? true : false;

  00352	48 8b 05 00 00
	00 00		 mov	 rax, QWORD PTR __imp_sysblk
  00359	8b 80 94 12 00
	00		 mov	 eax, DWORD PTR [rax+4756]
  0035f	c1 e8 09	 shr	 eax, 9
  00362	83 e0 01	 and	 eax, 1
  00365	85 c0		 test	 eax, eax
  00367	74 0a		 je	 SHORT $LN22@tf_write
  00369	c7 44 24 68 01
	00 00 00	 mov	 DWORD PTR tv192[rsp], 1
  00371	eb 08		 jmp	 SHORT $LN23@tf_write
$LN22@tf_write:
  00373	c7 44 24 68 00
	00 00 00	 mov	 DWORD PTR tv192[rsp], 0
$LN23@tf_write:
  0037b	83 7c 24 68 00	 cmp	 DWORD PTR tv192[rsp], 0
  00380	75 0a		 jne	 SHORT $LN24@tf_write
  00382	c7 44 24 6c 00
	00 00 00	 mov	 DWORD PTR tv194[rsp], 0
  0038a	eb 08		 jmp	 SHORT $LN25@tf_write
$LN24@tf_write:
  0038c	c7 44 24 6c 01
	00 00 00	 mov	 DWORD PTR tv194[rsp], 1
$LN25@tf_write:
  00394	0f b6 44 24 6c	 movzx	 eax, BYTE PTR tv194[rsp]
  00399	88 44 24 52	 mov	 BYTE PTR nostop$[rsp], al
$LN13@tf_write:

; 2804 :         }
; 2805 :     }
; 2806 :     RELEASE_TRACEFILE_LOCK();

  0039d	48 8b 05 00 00
	00 00		 mov	 rax, QWORD PTR __imp_sysblk
  003a4	48 05 10 14 00
	00		 add	 rax, 5136		; 00001410H
  003aa	48 8d 15 00 00
	00 00		 lea	 rdx, OFFSET FLAT:$SG160274
  003b1	48 8b c8	 mov	 rcx, rax
  003b4	e8 00 00 00 00	 call	 hthread_release_lock

; 2807 : 
; 2808 :     /* If file automatically closed due to MAX= being reached... */
; 2809 :     if (auto_closed)

  003b9	0f b6 44 24 50	 movzx	 eax, BYTE PTR auto_closed$[rsp]
  003be	85 c0		 test	 eax, eax
  003c0	0f 84 b4 00 00
	00		 je	 $LN14@tf_write

; 2810 :     {
; 2811 :         /* Stop all instruction tracing too unless asked not to */
; 2812 :         if (nostop)

  003c6	0f b6 44 24 52	 movzx	 eax, BYTE PTR nostop$[rsp]
  003cb	85 c0		 test	 eax, eax
  003cd	74 54		 je	 SHORT $LN15@tf_write

; 2813 :         {
; 2814 :             // "Trace file MAX= reached; file closed, tracing %s"
; 2815 :             WRMSG( HHC02379, "I", "continues" );

  003cf	b9 01 00 00 00	 mov	 ecx, 1
  003d4	ff 15 00 00 00
	00		 call	 QWORD PTR __imp___acrt_iob_func
  003da	48 8d 0d 00 00
	00 00		 lea	 rcx, OFFSET FLAT:$SG160278
  003e1	48 89 4c 24 38	 mov	 QWORD PTR [rsp+56], rcx
  003e6	48 8d 0d 00 00
	00 00		 lea	 rcx, OFFSET FLAT:$SG160279
  003ed	48 89 4c 24 30	 mov	 QWORD PTR [rsp+48], rcx
  003f2	48 8d 0d 00 00
	00 00		 lea	 rcx, OFFSET FLAT:$SG160280
  003f9	48 89 4c 24 28	 mov	 QWORD PTR [rsp+40], rcx
  003fe	48 89 44 24 20	 mov	 QWORD PTR [rsp+32], rax
  00403	41 b9 03 00 00
	00		 mov	 r9d, 3
  00409	4c 8d 05 00 00
	00 00		 lea	 r8, OFFSET FLAT:$SG160281
  00410	ba ff 0a 00 00	 mov	 edx, 2815		; 00000affH
  00415	48 8d 0d 00 00
	00 00		 lea	 rcx, OFFSET FLAT:$SG160282
  0041c	e8 00 00 00 00	 call	 fwritemsg

; 2816 :         }

  00421	eb 57		 jmp	 SHORT $LN16@tf_write
$LN15@tf_write:

; 2817 :         else
; 2818 :         {
; 2819 :             tf_autostop();

  00423	e8 00 00 00 00	 call	 tf_autostop

; 2820 : 
; 2821 :             // "Trace file MAX= reached; file closed, tracing %s"
; 2822 :             WRMSG( HHC02379, "I", "auto-stopped" );

  00428	b9 01 00 00 00	 mov	 ecx, 1
  0042d	ff 15 00 00 00
	00		 call	 QWORD PTR __imp___acrt_iob_func
  00433	48 8d 0d 00 00
	00 00		 lea	 rcx, OFFSET FLAT:$SG160283
  0043a	48 89 4c 24 38	 mov	 QWORD PTR [rsp+56], rcx
  0043f	48 8d 0d 00 00
	00 00		 lea	 rcx, OFFSET FLAT:$SG160284
  00446	48 89 4c 24 30	 mov	 QWORD PTR [rsp+48], rcx
  0044b	48 8d 0d 00 00
	00 00		 lea	 rcx, OFFSET FLAT:$SG160285
  00452	48 89 4c 24 28	 mov	 QWORD PTR [rsp+40], rcx
  00457	48 89 44 24 20	 mov	 QWORD PTR [rsp+32], rax
  0045c	41 b9 03 00 00
	00		 mov	 r9d, 3
  00462	4c 8d 05 00 00
	00 00		 lea	 r8, OFFSET FLAT:$SG160286
  00469	ba 06 0b 00 00	 mov	 edx, 2822		; 00000b06H
  0046e	48 8d 0d 00 00
	00 00		 lea	 rcx, OFFSET FLAT:$SG160287
  00475	e8 00 00 00 00	 call	 fwritemsg
$LN16@tf_write:
$LN14@tf_write:

; 2823 :         }
; 2824 :     }
; 2825 : 
; 2826 :     return ret;

  0047a	0f b6 44 24 51	 movzx	 eax, BYTE PTR ret$[rsp]
$LN1@tf_write:

; 2827 : }

  0047f	48 81 c4 98 00
	00 00		 add	 rsp, 152		; 00000098H
  00486	5f		 pop	 rdi
  00487	5e		 pop	 rsi
  00488	c3		 ret	 0
tf_write ENDP
_TEXT	ENDS
; Function compile flags: /Odtp
; File C:\papa\MyGit\hyperion-zvector\hscutl.c
_TEXT	SEGMENT
ret$ = 80
tv75 = 84
written$ = 88
tv205 = 96
tv144 = 104
tod$ = 144
tf_write_initial_TFSYS_locked PROC

; 2641 : {

  00000	48 89 4c 24 08	 mov	 QWORD PTR [rsp+8], rcx
  00005	56		 push	 rsi
  00006	57		 push	 rdi
  00007	48 83 ec 78	 sub	 rsp, 120		; 00000078H

; 2642 :     size_t  written;
; 2643 :     bool    ret = true;

  0000b	c6 44 24 50 01	 mov	 BYTE PTR ret$[rsp], 1

; 2644 : 
; 2645 :     /* Initialize TFSYS record */
; 2646 : 
; 2647 :     tfsys.ffmt[0] = '%';

  00010	b8 01 00 00 00	 mov	 eax, 1
  00015	48 6b c0 00	 imul	 rax, rax, 0
  00019	48 8d 0d 00 00
	00 00		 lea	 rcx, OFFSET FLAT:tfsys
  00020	c6 04 01 25	 mov	 BYTE PTR [rcx+rax], 37	; 00000025H

; 2648 :     tfsys.ffmt[1] = 'T';

  00024	b8 01 00 00 00	 mov	 eax, 1
  00029	48 6b c0 01	 imul	 rax, rax, 1
  0002d	48 8d 0d 00 00
	00 00		 lea	 rcx, OFFSET FLAT:tfsys
  00034	c6 04 01 54	 mov	 BYTE PTR [rcx+rax], 84	; 00000054H

; 2649 :     tfsys.ffmt[2] = 'F';

  00038	b8 01 00 00 00	 mov	 eax, 1
  0003d	48 6b c0 02	 imul	 rax, rax, 2
  00041	48 8d 0d 00 00
	00 00		 lea	 rcx, OFFSET FLAT:tfsys
  00048	c6 04 01 46	 mov	 BYTE PTR [rcx+rax], 70	; 00000046H

; 2650 :     tfsys.ffmt[3] = TF_FMT;

  0004c	b8 01 00 00 00	 mov	 eax, 1
  00051	48 6b c0 03	 imul	 rax, rax, 3
  00055	48 8d 0d 00 00
	00 00		 lea	 rcx, OFFSET FLAT:tfsys
  0005c	c6 04 01 30	 mov	 BYTE PTR [rcx+rax], 48	; 00000030H

; 2651 : 
; 2652 :     tfsys.bigend   = are_big_endian() ? 1 : 0;

  00060	e8 00 00 00 00	 call	 are_big_endian
  00065	0f b6 c0	 movzx	 eax, al
  00068	85 c0		 test	 eax, eax
  0006a	74 0a		 je	 SHORT $LN4@tf_write_i
  0006c	c7 44 24 54 01
	00 00 00	 mov	 DWORD PTR tv75[rsp], 1
  00074	eb 08		 jmp	 SHORT $LN5@tf_write_i
$LN4@tf_write_i:
  00076	c7 44 24 54 00
	00 00 00	 mov	 DWORD PTR tv75[rsp], 0
$LN5@tf_write_i:
  0007e	0f b6 44 24 54	 movzx	 eax, BYTE PTR tv75[rsp]
  00083	88 05 04 00 00
	00		 mov	 BYTE PTR tfsys+4, al

; 2653 :     tfsys.engs     = MAX_CPU_ENGS;

  00089	c6 05 05 00 00
	00 40		 mov	 BYTE PTR tfsys+5, 64	; 00000040H

; 2654 :     tfsys.archnum0 = _ARCH_NUM_0;

  00090	b8 72 01 00 00	 mov	 eax, 370		; 00000172H
  00095	66 89 05 06 00
	00 00		 mov	 WORD PTR tfsys+6, ax

; 2655 :     tfsys.archnum1 = _ARCH_NUM_1;

  0009c	b8 86 01 00 00	 mov	 eax, 390		; 00000186H
  000a1	66 89 05 08 00
	00 00		 mov	 WORD PTR tfsys+8, ax

; 2656 :     tfsys.archnum2 = _ARCH_NUM_2;

  000a8	b8 84 03 00 00	 mov	 eax, 900		; 00000384H
  000ad	66 89 05 0a 00
	00 00		 mov	 WORD PTR tfsys+10, ax

; 2657 : 
; 2658 :     memcpy( &tfsys.beg_tod, tod, sizeof( tfsys.beg_tod ));

  000b4	48 8b 84 24 90
	00 00 00	 mov	 rax, QWORD PTR tod$[rsp]
  000bc	48 8b 00	 mov	 rax, QWORD PTR [rax]
  000bf	48 89 05 10 00
	00 00		 mov	 QWORD PTR tfsys+16, rax

; 2659 :     memset( &tfsys.end_tod,  0,  sizeof( tfsys.end_tod ));

  000c6	48 8d 05 18 00
	00 00		 lea	 rax, OFFSET FLAT:tfsys+24
  000cd	48 8b f8	 mov	 rdi, rax
  000d0	33 c0		 xor	 eax, eax
  000d2	b9 08 00 00 00	 mov	 ecx, 8
  000d7	f3 aa		 rep stosb

; 2660 : 
; 2661 :     STRLCPY( tfsys.version, *sysblk.vers_info );

  000d9	48 8b 05 00 00
	00 00		 mov	 rax, QWORD PTR __imp_sysblk
  000e0	48 8b 40 50	 mov	 rax, QWORD PTR [rax+80]
  000e4	41 b8 80 00 00
	00		 mov	 r8d, 128		; 00000080H
  000ea	48 8b 10	 mov	 rdx, QWORD PTR [rax]
  000ed	48 8d 0d 30 00
	00 00		 lea	 rcx, OFFSET FLAT:tfsys+48
  000f4	e8 00 00 00 00	 call	 strlcpy

; 2662 :     memcpy( &tfsys.ptyp[0], &sysblk.ptyp[0], MAX_CPU_ENGS );

  000f9	b8 01 00 00 00	 mov	 eax, 1
  000fe	48 6b c0 00	 imul	 rax, rax, 0
  00102	b9 01 00 00 00	 mov	 ecx, 1
  00107	48 6b c9 00	 imul	 rcx, rcx, 0
  0010b	48 8d 15 b0 00
	00 00		 lea	 rdx, OFFSET FLAT:tfsys+176
  00112	48 8b 3d 00 00
	00 00		 mov	 rdi, QWORD PTR __imp_sysblk
  00119	48 89 7c 24 60	 mov	 QWORD PTR tv205[rsp], rdi
  0011e	48 8d 3c 0a	 lea	 rdi, QWORD PTR [rdx+rcx]
  00122	48 8b 4c 24 60	 mov	 rcx, QWORD PTR tv205[rsp]
  00127	48 8d b4 01 48
	0b 00 00	 lea	 rsi, QWORD PTR [rcx+rax+2888]
  0012f	b9 40 00 00 00	 mov	 ecx, 64			; 00000040H
  00134	f3 a4		 rep movsb

; 2663 : 
; 2664 :     if ((written = fwrite( &tfsys, 1, tfsys_size,
; 2665 :                 sysblk.traceFILE )) < tfsys_size)

  00136	48 8b 05 00 00
	00 00		 mov	 rax, QWORD PTR __imp_sysblk
  0013d	4c 8b 88 20 14
	00 00		 mov	 r9, QWORD PTR [rax+5152]
  00144	4c 8b 05 00 00
	00 00		 mov	 r8, QWORD PTR tfsys_size
  0014b	ba 01 00 00 00	 mov	 edx, 1
  00150	48 8d 0d 00 00
	00 00		 lea	 rcx, OFFSET FLAT:tfsys
  00157	e8 00 00 00 00	 call	 w32_fwrite
  0015c	48 89 44 24 58	 mov	 QWORD PTR written$[rsp], rax
  00161	48 8b 05 00 00
	00 00		 mov	 rax, QWORD PTR tfsys_size
  00168	48 39 44 24 58	 cmp	 QWORD PTR written$[rsp], rax
  0016d	73 73		 jae	 SHORT $LN2@tf_write_i

; 2666 :     {
; 2667 :         // "Error in function %s: %s"
; 2668 :         WRMSG( HHC00075, "E", "fwrite()", strerror( errno ));

  0016f	ff 15 00 00 00
	00		 call	 QWORD PTR __imp__errno
  00175	8b 08		 mov	 ecx, DWORD PTR [rax]
  00177	e8 00 00 00 00	 call	 w32_strerror
  0017c	48 89 44 24 68	 mov	 QWORD PTR tv144[rsp], rax
  00181	b9 01 00 00 00	 mov	 ecx, 1
  00186	ff 15 00 00 00
	00		 call	 QWORD PTR __imp___acrt_iob_func
  0018c	48 8b 4c 24 68	 mov	 rcx, QWORD PTR tv144[rsp]
  00191	48 89 4c 24 40	 mov	 QWORD PTR [rsp+64], rcx
  00196	48 8d 0d 00 00
	00 00		 lea	 rcx, OFFSET FLAT:$SG160178
  0019d	48 89 4c 24 38	 mov	 QWORD PTR [rsp+56], rcx
  001a2	48 8d 0d 00 00
	00 00		 lea	 rcx, OFFSET FLAT:$SG160179
  001a9	48 89 4c 24 30	 mov	 QWORD PTR [rsp+48], rcx
  001ae	48 8d 0d 00 00
	00 00		 lea	 rcx, OFFSET FLAT:$SG160180
  001b5	48 89 4c 24 28	 mov	 QWORD PTR [rsp+40], rcx
  001ba	48 89 44 24 20	 mov	 QWORD PTR [rsp+32], rax
  001bf	41 b9 03 00 00
	00		 mov	 r9d, 3
  001c5	4c 8d 05 00 00
	00 00		 lea	 r8, OFFSET FLAT:$SG160181
  001cc	ba 6c 0a 00 00	 mov	 edx, 2668		; 00000a6cH
  001d1	48 8d 0d 00 00
	00 00		 lea	 rcx, OFFSET FLAT:$SG160182
  001d8	e8 00 00 00 00	 call	 fwritemsg

; 2669 :         ret = false;

  001dd	c6 44 24 50 00	 mov	 BYTE PTR ret$[rsp], 0
$LN2@tf_write_i:

; 2670 :     }
; 2671 : 
; 2672 :     sysblk.curtracesize += written;

  001e2	48 8b 05 00 00
	00 00		 mov	 rax, QWORD PTR __imp_sysblk
  001e9	48 8b 80 28 14
	00 00		 mov	 rax, QWORD PTR [rax+5160]
  001f0	48 03 44 24 58	 add	 rax, QWORD PTR written$[rsp]
  001f5	48 8b 0d 00 00
	00 00		 mov	 rcx, QWORD PTR __imp_sysblk
  001fc	48 89 81 28 14
	00 00		 mov	 QWORD PTR [rcx+5160], rax

; 2673 : 
; 2674 :     // "Trace file tracing begun..."
; 2675 :     WRMSG( HHC02383, "I" );

  00203	b9 01 00 00 00	 mov	 ecx, 1
  00208	ff 15 00 00 00
	00		 call	 QWORD PTR __imp___acrt_iob_func
  0020e	48 8d 0d 00 00
	00 00		 lea	 rcx, OFFSET FLAT:$SG160183
  00215	48 89 4c 24 30	 mov	 QWORD PTR [rsp+48], rcx
  0021a	48 8d 0d 00 00
	00 00		 lea	 rcx, OFFSET FLAT:$SG160184
  00221	48 89 4c 24 28	 mov	 QWORD PTR [rsp+40], rcx
  00226	48 89 44 24 20	 mov	 QWORD PTR [rsp+32], rax
  0022b	41 b9 03 00 00
	00		 mov	 r9d, 3
  00231	4c 8d 05 00 00
	00 00		 lea	 r8, OFFSET FLAT:$SG160185
  00238	ba 73 0a 00 00	 mov	 edx, 2675		; 00000a73H
  0023d	48 8d 0d 00 00
	00 00		 lea	 rcx, OFFSET FLAT:$SG160186
  00244	e8 00 00 00 00	 call	 fwritemsg

; 2676 : 
; 2677 :     return ret;

  00249	0f b6 44 24 50	 movzx	 eax, BYTE PTR ret$[rsp]

; 2678 : }

  0024e	48 83 c4 78	 add	 rsp, 120		; 00000078H
  00252	5f		 pop	 rdi
  00253	5e		 pop	 rsi
  00254	c3		 ret	 0
tf_write_initial_TFSYS_locked ENDP
_TEXT	ENDS
; Function compile flags: /Odtp
; File C:\papa\MyGit\hyperion-zvector\hscutl.c
_TEXT	SEGMENT
tv65 = 0
tv77 = 8
tv89 = 16
tv129 = 24
p$1 = 32
radr$ = 64
regs$ = 72
tf_apply_prefixing PROC

; 2611 : {

  00000	48 89 54 24 10	 mov	 QWORD PTR [rsp+16], rdx
  00005	48 89 4c 24 08	 mov	 QWORD PTR [rsp+8], rcx
  0000a	48 83 ec 38	 sub	 rsp, 56			; 00000038H

; 2612 :     switch (regs->arch_mode)

  0000e	48 8b 44 24 48	 mov	 rax, QWORD PTR regs$[rsp]
  00013	8b 40 64	 mov	 eax, DWORD PTR [rax+100]
  00016	89 04 24	 mov	 DWORD PTR tv65[rsp], eax
  00019	83 3c 24 00	 cmp	 DWORD PTR tv65[rsp], 0
  0001d	74 15		 je	 SHORT $LN7@tf_apply_p
  0001f	83 3c 24 01	 cmp	 DWORD PTR tv65[rsp], 1
  00023	74 62		 je	 SHORT $LN8@tf_apply_p
  00025	83 3c 24 02	 cmp	 DWORD PTR tv65[rsp], 2
  00029	0f 84 a8 00 00
	00		 je	 $LN9@tf_apply_p
  0002f	e9 f5 00 00 00	 jmp	 $LN10@tf_apply_p
$LN7@tf_apply_p:

; 2613 :     {
; 2614 : #if defined(            _370 )
; 2615 :         case        ARCH_370_IDX:
; 2616 :             return APPLY_370_PREFIXING( radr, regs->PX_370 );

  00034	8b 44 24 40	 mov	 eax, DWORD PTR radr$[rsp]
  00038	48 25 00 f0 ff
	ff		 and	 rax, -4096		; fffffffffffff000H
  0003e	48 85 c0	 test	 rax, rax
  00041	74 23		 je	 SHORT $LN12@tf_apply_p
  00043	8b 44 24 40	 mov	 eax, DWORD PTR radr$[rsp]
  00047	48 25 00 f0 ff
	ff		 and	 rax, -4096		; fffffffffffff000H
  0004d	48 8b 4c 24 48	 mov	 rcx, QWORD PTR regs$[rsp]
  00052	8b 49 70	 mov	 ecx, DWORD PTR [rcx+112]
  00055	48 3b c1	 cmp	 rax, rcx
  00058	74 0c		 je	 SHORT $LN12@tf_apply_p
  0005a	48 8b 44 24 40	 mov	 rax, QWORD PTR radr$[rsp]
  0005f	48 89 44 24 08	 mov	 QWORD PTR tv77[rsp], rax
  00064	eb 17		 jmp	 SHORT $LN13@tf_apply_p
$LN12@tf_apply_p:
  00066	48 8b 44 24 48	 mov	 rax, QWORD PTR regs$[rsp]
  0006b	8b 40 70	 mov	 eax, DWORD PTR [rax+112]
  0006e	8b 4c 24 40	 mov	 ecx, DWORD PTR radr$[rsp]
  00072	33 c8		 xor	 ecx, eax
  00074	8b c1		 mov	 eax, ecx
  00076	8b c0		 mov	 eax, eax
  00078	48 89 44 24 08	 mov	 QWORD PTR tv77[rsp], rax
$LN13@tf_apply_p:
  0007d	48 8b 44 24 08	 mov	 rax, QWORD PTR tv77[rsp]
  00082	e9 b9 00 00 00	 jmp	 $LN1@tf_apply_p
$LN8@tf_apply_p:

; 2617 : #endif
; 2618 : #if defined(            _390 )
; 2619 :         case        ARCH_390_IDX:
; 2620 :             return APPLY_390_PREFIXING( radr, regs->PX_390 );

  00087	8b 44 24 40	 mov	 eax, DWORD PTR radr$[rsp]
  0008b	48 25 00 f0 ff
	ff		 and	 rax, -4096		; fffffffffffff000H
  00091	48 85 c0	 test	 rax, rax
  00094	74 23		 je	 SHORT $LN14@tf_apply_p
  00096	8b 44 24 40	 mov	 eax, DWORD PTR radr$[rsp]
  0009a	48 25 00 f0 ff
	ff		 and	 rax, -4096		; fffffffffffff000H
  000a0	48 8b 4c 24 48	 mov	 rcx, QWORD PTR regs$[rsp]
  000a5	8b 49 70	 mov	 ecx, DWORD PTR [rcx+112]
  000a8	48 3b c1	 cmp	 rax, rcx
  000ab	74 0c		 je	 SHORT $LN14@tf_apply_p
  000ad	48 8b 44 24 40	 mov	 rax, QWORD PTR radr$[rsp]
  000b2	48 89 44 24 10	 mov	 QWORD PTR tv89[rsp], rax
  000b7	eb 17		 jmp	 SHORT $LN15@tf_apply_p
$LN14@tf_apply_p:
  000b9	48 8b 44 24 48	 mov	 rax, QWORD PTR regs$[rsp]
  000be	8b 40 70	 mov	 eax, DWORD PTR [rax+112]
  000c1	8b 4c 24 40	 mov	 ecx, DWORD PTR radr$[rsp]
  000c5	33 c8		 xor	 ecx, eax
  000c7	8b c1		 mov	 eax, ecx
  000c9	8b c0		 mov	 eax, eax
  000cb	48 89 44 24 10	 mov	 QWORD PTR tv89[rsp], rax
$LN15@tf_apply_p:
  000d0	48 8b 44 24 10	 mov	 rax, QWORD PTR tv89[rsp]
  000d5	eb 69		 jmp	 SHORT $LN1@tf_apply_p
$LN9@tf_apply_p:

; 2621 : #endif
; 2622 : #if defined(            _900 )
; 2623 :         case        ARCH_900_IDX:
; 2624 :             return APPLY_900_PREFIXING( radr, regs->PX_900 );

  000d7	48 8b 44 24 40	 mov	 rax, QWORD PTR radr$[rsp]
  000dc	48 25 00 e0 ff
	ff		 and	 rax, -8192		; ffffffffffffe000H
  000e2	48 85 c0	 test	 rax, rax
  000e5	74 22		 je	 SHORT $LN16@tf_apply_p
  000e7	48 8b 44 24 40	 mov	 rax, QWORD PTR radr$[rsp]
  000ec	48 25 00 e0 ff
	ff		 and	 rax, -8192		; ffffffffffffe000H
  000f2	48 8b 4c 24 48	 mov	 rcx, QWORD PTR regs$[rsp]
  000f7	48 3b 41 70	 cmp	 rax, QWORD PTR [rcx+112]
  000fb	74 0c		 je	 SHORT $LN16@tf_apply_p
  000fd	48 8b 44 24 40	 mov	 rax, QWORD PTR radr$[rsp]
  00102	48 89 44 24 18	 mov	 QWORD PTR tv129[rsp], rax
  00107	eb 19		 jmp	 SHORT $LN17@tf_apply_p
$LN16@tf_apply_p:
  00109	48 8b 44 24 48	 mov	 rax, QWORD PTR regs$[rsp]
  0010e	48 8b 40 70	 mov	 rax, QWORD PTR [rax+112]
  00112	48 8b 4c 24 40	 mov	 rcx, QWORD PTR radr$[rsp]
  00117	48 33 c8	 xor	 rcx, rax
  0011a	48 8b c1	 mov	 rax, rcx
  0011d	48 89 44 24 18	 mov	 QWORD PTR tv129[rsp], rax
$LN17@tf_apply_p:
  00122	48 8b 44 24 18	 mov	 rax, QWORD PTR tv129[rsp]
  00127	eb 17		 jmp	 SHORT $LN1@tf_apply_p
$LN10@tf_apply_p:
$LN6@tf_apply_p:

; 2625 : #endif
; 2626 :         default: CRASH();

  00129	48 c7 44 24 20
	00 00 00 00	 mov	 QWORD PTR p$1[rsp], 0
  00132	48 8b 44 24 20	 mov	 rax, QWORD PTR p$1[rsp]
  00137	c6 00 00	 mov	 BYTE PTR [rax], 0
  0013a	33 c0		 xor	 eax, eax
  0013c	85 c0		 test	 eax, eax
  0013e	75 e9		 jne	 SHORT $LN6@tf_apply_p
$LN1@tf_apply_p:
$LN11@tf_apply_p:

; 2627 :             UNREACHABLE_CODE( return 0 );
; 2628 :     }
; 2629 : }

  00140	48 83 c4 38	 add	 rsp, 56			; 00000038H
  00144	c3		 ret	 0
tf_apply_prefixing ENDP
_TEXT	ENDS
; Function compile flags: /Odtp
; File C:\papa\MyGit\hyperion-zvector\hscutl.c
_TEXT	SEGMENT
tv65 = 32
tv70 = 36
tv82 = 40
p$1 = 48
regs$ = 80
raddr$ = 88
tf_store_int_timer PROC

; 2583 : {

  00000	48 89 54 24 10	 mov	 QWORD PTR [rsp+16], rdx
  00005	48 89 4c 24 08	 mov	 QWORD PTR [rsp+8], rcx
  0000a	48 83 ec 48	 sub	 rsp, 72			; 00000048H

; 2584 :     switch (regs->arch_mode)

  0000e	48 8b 44 24 50	 mov	 rax, QWORD PTR regs$[rsp]
  00013	8b 40 64	 mov	 eax, DWORD PTR [rax+100]
  00016	89 44 24 20	 mov	 DWORD PTR tv65[rsp], eax
  0001a	83 7c 24 20 00	 cmp	 DWORD PTR tv65[rsp], 0
  0001f	74 10		 je	 SHORT $LN7@tf_store_i
  00021	83 7c 24 20 01	 cmp	 DWORD PTR tv65[rsp], 1
  00026	74 66		 je	 SHORT $LN9@tf_store_i
  00028	83 7c 24 20 02	 cmp	 DWORD PTR tv65[rsp], 2
  0002d	74 61		 je	 SHORT $LN10@tf_store_i
  0002f	eb 61		 jmp	 SHORT $LN11@tf_store_i
$LN7@tf_store_i:

; 2585 :     {
; 2586 : #if defined(     _370 )
; 2587 :         case ARCH_370_IDX:
; 2588 :             if (ITIMER_ACCESS( raddr, 16 ))

  00031	48 83 7c 24 58
	54		 cmp	 QWORD PTR raddr$[rsp], 84 ; 00000054H
  00037	73 0a		 jae	 SHORT $LN15@tf_store_i
  00039	c7 44 24 24 01
	00 00 00	 mov	 DWORD PTR tv70[rsp], 1
  00041	eb 08		 jmp	 SHORT $LN16@tf_store_i
$LN15@tf_store_i:
  00043	c7 44 24 24 00
	00 00 00	 mov	 DWORD PTR tv70[rsp], 0
$LN16@tf_store_i:
  0004b	83 7c 24 24 00	 cmp	 DWORD PTR tv70[rsp], 0
  00050	74 19		 je	 SHORT $LN17@tf_store_i
  00052	48 8b 44 24 58	 mov	 rax, QWORD PTR raddr$[rsp]
  00057	48 83 c0 10	 add	 rax, 16
  0005b	48 83 f8 50	 cmp	 rax, 80			; 00000050H
  0005f	72 0a		 jb	 SHORT $LN17@tf_store_i
  00061	c7 44 24 28 01
	00 00 00	 mov	 DWORD PTR tv82[rsp], 1
  00069	eb 08		 jmp	 SHORT $LN23@tf_store_i
$LN17@tf_store_i:
  0006b	c7 44 24 28 00
	00 00 00	 mov	 DWORD PTR tv82[rsp], 0
$LN23@tf_store_i:
  00073	83 7c 24 28 00	 cmp	 DWORD PTR tv82[rsp], 0
  00078	74 12		 je	 SHORT $LN8@tf_store_i

; 2589 :                  sysblk.s370_sit( regs );

  0007a	48 8b 4c 24 50	 mov	 rcx, QWORD PTR regs$[rsp]
  0007f	48 8b 05 00 00
	00 00		 mov	 rax, QWORD PTR __imp_sysblk
  00086	ff 90 70 14 00
	00		 call	 QWORD PTR [rax+5232]
$LN8@tf_store_i:

; 2590 :             return;

  0008c	eb 1b		 jmp	 SHORT $LN1@tf_store_i
$LN9@tf_store_i:

; 2591 : #endif
; 2592 : #if defined(     _390 )
; 2593 :         case ARCH_390_IDX:
; 2594 :             //    390 doesn't have interval timers
; 2595 :             return;

  0008e	eb 19		 jmp	 SHORT $LN1@tf_store_i
$LN10@tf_store_i:

; 2596 : #endif
; 2597 : #if defined(     _900 )
; 2598 :         case ARCH_900_IDX:
; 2599 :             //    900 doesn't have interval timers
; 2600 :             return;

  00090	eb 17		 jmp	 SHORT $LN1@tf_store_i
$LN11@tf_store_i:
$LN6@tf_store_i:

; 2601 : #endif
; 2602 :         default: CRASH();

  00092	48 c7 44 24 30
	00 00 00 00	 mov	 QWORD PTR p$1[rsp], 0
  0009b	48 8b 44 24 30	 mov	 rax, QWORD PTR p$1[rsp]
  000a0	c6 00 00	 mov	 BYTE PTR [rax], 0
  000a3	33 c0		 xor	 eax, eax
  000a5	85 c0		 test	 eax, eax
  000a7	75 e9		 jne	 SHORT $LN6@tf_store_i
$LN1@tf_store_i:
$LN12@tf_store_i:

; 2603 :             UNREACHABLE_CODE( return );
; 2604 :     }
; 2605 : }

  000a9	48 83 c4 48	 add	 rsp, 72			; 00000048H
  000ad	c3		 ret	 0
tf_store_int_timer ENDP
_TEXT	ENDS
; Function compile flags: /Odtp
; File C:\papa\MyGit\hyperion-zvector\hscutl.c
_TEXT	SEGMENT
tv65 = 32
p$1 = 40
regs$ = 64
abs$ = 72
tf_get_storage_key PROC

; 2559 : {

  00000	48 89 54 24 10	 mov	 QWORD PTR [rsp+16], rdx
  00005	48 89 4c 24 08	 mov	 QWORD PTR [rsp+8], rcx
  0000a	48 83 ec 38	 sub	 rsp, 56			; 00000038H

; 2560 :     switch (regs->arch_mode)

  0000e	48 8b 44 24 40	 mov	 rax, QWORD PTR regs$[rsp]
  00013	8b 40 64	 mov	 eax, DWORD PTR [rax+100]
  00016	89 44 24 20	 mov	 DWORD PTR tv65[rsp], eax
  0001a	83 7c 24 20 00	 cmp	 DWORD PTR tv65[rsp], 0
  0001f	74 10		 je	 SHORT $LN7@tf_get_sto
  00021	83 7c 24 20 01	 cmp	 DWORD PTR tv65[rsp], 1
  00026	74 1d		 je	 SHORT $LN8@tf_get_sto
  00028	83 7c 24 20 02	 cmp	 DWORD PTR tv65[rsp], 2
  0002d	74 2a		 je	 SHORT $LN9@tf_get_sto
  0002f	eb 3c		 jmp	 SHORT $LN10@tf_get_sto
$LN7@tf_get_sto:

; 2561 :     {
; 2562 : #if defined(       _370 )
; 2563 :         case   ARCH_370_IDX:
; 2564 :             return sysblk.s370_gsk( abs );

  00031	48 8b 4c 24 48	 mov	 rcx, QWORD PTR abs$[rsp]
  00036	48 8b 05 00 00
	00 00		 mov	 rax, QWORD PTR __imp_sysblk
  0003d	ff 90 40 14 00
	00		 call	 QWORD PTR [rax+5184]
  00043	eb 3f		 jmp	 SHORT $LN1@tf_get_sto
$LN8@tf_get_sto:

; 2565 : #endif
; 2566 : #if defined(       _390 )
; 2567 :         case   ARCH_390_IDX:
; 2568 :             return sysblk.s390_gsk( abs );

  00045	48 8b 4c 24 48	 mov	 rcx, QWORD PTR abs$[rsp]
  0004a	48 8b 05 00 00
	00 00		 mov	 rax, QWORD PTR __imp_sysblk
  00051	ff 90 48 14 00
	00		 call	 QWORD PTR [rax+5192]
  00057	eb 2b		 jmp	 SHORT $LN1@tf_get_sto
$LN9@tf_get_sto:

; 2569 : #endif
; 2570 : #if defined(       _900 )
; 2571 :         case   ARCH_900_IDX:
; 2572 :             return sysblk.z900_gsk( abs );

  00059	48 8b 4c 24 48	 mov	 rcx, QWORD PTR abs$[rsp]
  0005e	48 8b 05 00 00
	00 00		 mov	 rax, QWORD PTR __imp_sysblk
  00065	ff 90 50 14 00
	00		 call	 QWORD PTR [rax+5200]
  0006b	eb 17		 jmp	 SHORT $LN1@tf_get_sto
$LN10@tf_get_sto:
$LN6@tf_get_sto:

; 2573 : #endif
; 2574 :         default: CRASH();

  0006d	48 c7 44 24 28
	00 00 00 00	 mov	 QWORD PTR p$1[rsp], 0
  00076	48 8b 44 24 28	 mov	 rax, QWORD PTR p$1[rsp]
  0007b	c6 00 00	 mov	 BYTE PTR [rax], 0
  0007e	33 c0		 xor	 eax, eax
  00080	85 c0		 test	 eax, eax
  00082	75 e9		 jne	 SHORT $LN6@tf_get_sto
$LN1@tf_get_sto:
$LN11@tf_get_sto:

; 2575 :             UNREACHABLE_CODE( return 0 );
; 2576 :     }
; 2577 : }

  00084	48 83 c4 38	 add	 rsp, 56			; 00000038H
  00088	c3		 ret	 0
tf_get_storage_key ENDP
_TEXT	ENDS
; Function compile flags: /Odtp
; File C:\papa\MyGit\hyperion-zvector\hscutl.c
_TEXT	SEGMENT
tv65 = 48
p$1 = 56
raptr$ = 80
siptr$ = 88
vaddr$ = 96
arn$ = 104
regs$ = 112
acctype$ = 120
tf_virt_to_real PROC

; 2535 : {

  00000	44 89 4c 24 20	 mov	 DWORD PTR [rsp+32], r9d
  00005	4c 89 44 24 18	 mov	 QWORD PTR [rsp+24], r8
  0000a	48 89 54 24 10	 mov	 QWORD PTR [rsp+16], rdx
  0000f	48 89 4c 24 08	 mov	 QWORD PTR [rsp+8], rcx
  00014	48 83 ec 48	 sub	 rsp, 72			; 00000048H

; 2536 :     switch (regs->arch_mode)

  00018	48 8b 44 24 70	 mov	 rax, QWORD PTR regs$[rsp]
  0001d	8b 40 64	 mov	 eax, DWORD PTR [rax+100]
  00020	89 44 24 30	 mov	 DWORD PTR tv65[rsp], eax
  00024	83 7c 24 30 00	 cmp	 DWORD PTR tv65[rsp], 0
  00029	74 13		 je	 SHORT $LN7@tf_virt_to
  0002b	83 7c 24 30 01	 cmp	 DWORD PTR tv65[rsp], 1
  00030	74 44		 je	 SHORT $LN8@tf_virt_to
  00032	83 7c 24 30 02	 cmp	 DWORD PTR tv65[rsp], 2
  00037	74 72		 je	 SHORT $LN9@tf_virt_to
  00039	e9 a2 00 00 00	 jmp	 $LN10@tf_virt_to
$LN7@tf_virt_to:

; 2537 :     {
; 2538 : #if defined(       _370 )
; 2539 :         case   ARCH_370_IDX:
; 2540 :             return sysblk.s370_vtr( raptr, siptr, vaddr, arn, regs, acctype );

  0003e	8b 44 24 78	 mov	 eax, DWORD PTR acctype$[rsp]
  00042	89 44 24 28	 mov	 DWORD PTR [rsp+40], eax
  00046	48 8b 44 24 70	 mov	 rax, QWORD PTR regs$[rsp]
  0004b	48 89 44 24 20	 mov	 QWORD PTR [rsp+32], rax
  00050	44 8b 4c 24 68	 mov	 r9d, DWORD PTR arn$[rsp]
  00055	4c 8b 44 24 60	 mov	 r8, QWORD PTR vaddr$[rsp]
  0005a	48 8b 54 24 58	 mov	 rdx, QWORD PTR siptr$[rsp]
  0005f	48 8b 4c 24 50	 mov	 rcx, QWORD PTR raptr$[rsp]
  00064	48 8b 05 00 00
	00 00		 mov	 rax, QWORD PTR __imp_sysblk
  0006b	ff 90 58 14 00
	00		 call	 QWORD PTR [rax+5208]
  00071	e9 81 00 00 00	 jmp	 $LN1@tf_virt_to
$LN8@tf_virt_to:

; 2541 : #endif
; 2542 : #if defined(       _390 )
; 2543 :         case   ARCH_390_IDX:
; 2544 :             return sysblk.s390_vtr( raptr, siptr, vaddr, arn, regs, acctype );

  00076	8b 44 24 78	 mov	 eax, DWORD PTR acctype$[rsp]
  0007a	89 44 24 28	 mov	 DWORD PTR [rsp+40], eax
  0007e	48 8b 44 24 70	 mov	 rax, QWORD PTR regs$[rsp]
  00083	48 89 44 24 20	 mov	 QWORD PTR [rsp+32], rax
  00088	44 8b 4c 24 68	 mov	 r9d, DWORD PTR arn$[rsp]
  0008d	4c 8b 44 24 60	 mov	 r8, QWORD PTR vaddr$[rsp]
  00092	48 8b 54 24 58	 mov	 rdx, QWORD PTR siptr$[rsp]
  00097	48 8b 4c 24 50	 mov	 rcx, QWORD PTR raptr$[rsp]
  0009c	48 8b 05 00 00
	00 00		 mov	 rax, QWORD PTR __imp_sysblk
  000a3	ff 90 60 14 00
	00		 call	 QWORD PTR [rax+5216]
  000a9	eb 4c		 jmp	 SHORT $LN1@tf_virt_to
$LN9@tf_virt_to:

; 2545 : #endif
; 2546 : #if defined(       _900 )
; 2547 :         case   ARCH_900_IDX:
; 2548 :             return sysblk.z900_vtr( raptr, siptr, vaddr, arn, regs, acctype );

  000ab	8b 44 24 78	 mov	 eax, DWORD PTR acctype$[rsp]
  000af	89 44 24 28	 mov	 DWORD PTR [rsp+40], eax
  000b3	48 8b 44 24 70	 mov	 rax, QWORD PTR regs$[rsp]
  000b8	48 89 44 24 20	 mov	 QWORD PTR [rsp+32], rax
  000bd	44 8b 4c 24 68	 mov	 r9d, DWORD PTR arn$[rsp]
  000c2	4c 8b 44 24 60	 mov	 r8, QWORD PTR vaddr$[rsp]
  000c7	48 8b 54 24 58	 mov	 rdx, QWORD PTR siptr$[rsp]
  000cc	48 8b 4c 24 50	 mov	 rcx, QWORD PTR raptr$[rsp]
  000d1	48 8b 05 00 00
	00 00		 mov	 rax, QWORD PTR __imp_sysblk
  000d8	ff 90 68 14 00
	00		 call	 QWORD PTR [rax+5224]
  000de	eb 17		 jmp	 SHORT $LN1@tf_virt_to
$LN10@tf_virt_to:
$LN6@tf_virt_to:

; 2549 : #endif
; 2550 :         default: CRASH();

  000e0	48 c7 44 24 38
	00 00 00 00	 mov	 QWORD PTR p$1[rsp], 0
  000e9	48 8b 44 24 38	 mov	 rax, QWORD PTR p$1[rsp]
  000ee	c6 00 00	 mov	 BYTE PTR [rax], 0
  000f1	33 c0		 xor	 eax, eax
  000f3	85 c0		 test	 eax, eax
  000f5	75 e9		 jne	 SHORT $LN6@tf_virt_to
$LN1@tf_virt_to:
$LN11@tf_virt_to:

; 2551 :             UNREACHABLE_CODE( return 0 );
; 2552 :     }
; 2553 : }

  000f7	48 83 c4 48	 add	 rsp, 72			; 00000048H
  000fb	c3		 ret	 0
tf_virt_to_real ENDP
_TEXT	ENDS
; Function compile flags: /Odtp
; File C:\papa\MyGit\hyperion-zvector\hscutl.c
_TEXT	SEGMENT
i$ = 48
mem$ = 56
suffix$ = 64
__$ArrayPad$ = 80
memsize$ = 112
n$ = 120
buf$ = 128
bufsz$ = 136
_fmt_memsize PROC

; 1234 : {

  00000	4c 89 4c 24 20	 mov	 QWORD PTR [rsp+32], r9
  00005	4c 89 44 24 18	 mov	 QWORD PTR [rsp+24], r8
  0000a	89 54 24 10	 mov	 DWORD PTR [rsp+16], edx
  0000e	48 89 4c 24 08	 mov	 QWORD PTR [rsp+8], rcx
  00013	48 83 ec 68	 sub	 rsp, 104		; 00000068H
  00017	48 8b 05 00 00
	00 00		 mov	 rax, QWORD PTR __security_cookie
  0001e	48 33 c4	 xor	 rax, rsp
  00021	48 89 44 24 50	 mov	 QWORD PTR __$ArrayPad$[rsp], rax

; 1235 :     /* Format storage in 2**(10*n) values at the highest integral
; 1236 :      * integer boundary.
; 1237 :      *
; 1238 :      * Mainframe memory and DASD amounts are reported in 2**(10*n)
; 1239 :      * values, (x_iB international format, and shown as x_ or x_B,
; 1240 :      * when x >= 1024; x when x < 1024).  Open Systems and Windows
; 1241 :      * report memory in the same format, but report DASD storage in
; 1242 :      * 10**(3*n) values.  (Thank you, various marketing groups and
; 1243 :      * international standards committees...)
; 1244 :      *
; 1245 :      * For Hercules, mainframe oriented reporting characteristics
; 1246 :      * will be formatted and shown as x_, when x >= 1024, and as x
; 1247 :      * when x < 1024.  Reporting of Open Systems and Windows specifics
; 1248 :      * should follow the international format, shown as x_iB,
; 1249 :      * when x >= 1024, and x or xB when x < 1024.
; 1250 :      *
; 1251 :      * Reporting is done at the highest integral boundary.
; 1252 :      */
; 1253 :     //------------------------------------------------------------------
; 1254 :     // The 'n' value passed to us determines which suffix we start with
; 1255 :     //------------------------------------------------------------------
; 1256 :     const  char  suffix[9] = {0x00, 'K', 'M', 'G', 'T', 'P', 'E', 'Z', 'Y'};

  00026	c6 44 24 40 00	 mov	 BYTE PTR suffix$[rsp], 0
  0002b	c6 44 24 41 4b	 mov	 BYTE PTR suffix$[rsp+1], 75 ; 0000004bH
  00030	c6 44 24 42 4d	 mov	 BYTE PTR suffix$[rsp+2], 77 ; 0000004dH
  00035	c6 44 24 43 47	 mov	 BYTE PTR suffix$[rsp+3], 71 ; 00000047H
  0003a	c6 44 24 44 54	 mov	 BYTE PTR suffix$[rsp+4], 84 ; 00000054H
  0003f	c6 44 24 45 50	 mov	 BYTE PTR suffix$[rsp+5], 80 ; 00000050H
  00044	c6 44 24 46 45	 mov	 BYTE PTR suffix$[rsp+6], 69 ; 00000045H
  00049	c6 44 24 47 5a	 mov	 BYTE PTR suffix$[rsp+7], 90 ; 0000005aH
  0004e	c6 44 24 48 59	 mov	 BYTE PTR suffix$[rsp+8], 89 ; 00000059H

; 1257 :     U64          mem  = memsize;

  00053	48 8b 44 24 70	 mov	 rax, QWORD PTR memsize$[rsp]
  00058	48 89 44 24 38	 mov	 QWORD PTR mem$[rsp], rax

; 1258 :     u_int        i    = 0;

  0005d	c7 44 24 30 00
	00 00 00	 mov	 DWORD PTR i$[rsp], 0

; 1259 : 
; 1260 :     if (mem)

  00065	48 83 7c 24 38
	00		 cmp	 QWORD PTR mem$[rsp], 0
  0006b	74 3e		 je	 SHORT $LN5@fmt_memsiz

; 1261 :         for (i = n;

  0006d	8b 44 24 78	 mov	 eax, DWORD PTR n$[rsp]
  00071	89 44 24 30	 mov	 DWORD PTR i$[rsp], eax
  00075	eb 18		 jmp	 SHORT $LN4@fmt_memsiz
$LN2@fmt_memsiz:

; 1263 :              mem >>= 10, ++i);

  00077	48 8b 44 24 38	 mov	 rax, QWORD PTR mem$[rsp]
  0007c	48 c1 e8 0a	 shr	 rax, 10
  00080	48 89 44 24 38	 mov	 QWORD PTR mem$[rsp], rax
  00085	8b 44 24 30	 mov	 eax, DWORD PTR i$[rsp]
  00089	ff c0		 inc	 eax
  0008b	89 44 24 30	 mov	 DWORD PTR i$[rsp], eax
$LN4@fmt_memsiz:

; 1262 :              i < _countof( suffix ) && !(mem & 0x03FF);

  0008f	8b 44 24 30	 mov	 eax, DWORD PTR i$[rsp]
  00093	48 83 f8 09	 cmp	 rax, 9
  00097	73 12		 jae	 SHORT $LN3@fmt_memsiz
  00099	48 8b 44 24 38	 mov	 rax, QWORD PTR mem$[rsp]
  0009e	48 25 ff 03 00
	00		 and	 rax, 1023		; 000003ffH
  000a4	48 85 c0	 test	 rax, rax
  000a7	75 02		 jne	 SHORT $LN3@fmt_memsiz

; 1263 :              mem >>= 10, ++i);

  000a9	eb cc		 jmp	 SHORT $LN2@fmt_memsiz
$LN3@fmt_memsiz:
$LN5@fmt_memsiz:

; 1264 : 
; 1265 :     snprintf( buf, bufsz, "%"PRIu64"%c", mem, suffix[ i ]);

  000ab	8b 44 24 30	 mov	 eax, DWORD PTR i$[rsp]
  000af	0f be 44 04 40	 movsx	 eax, BYTE PTR suffix$[rsp+rax]
  000b4	89 44 24 20	 mov	 DWORD PTR [rsp+32], eax
  000b8	4c 8b 4c 24 38	 mov	 r9, QWORD PTR mem$[rsp]
  000bd	4c 8d 05 00 00
	00 00		 lea	 r8, OFFSET FLAT:$SG159491
  000c4	48 8b 94 24 88
	00 00 00	 mov	 rdx, QWORD PTR bufsz$[rsp]
  000cc	48 8b 8c 24 80
	00 00 00	 mov	 rcx, QWORD PTR buf$[rsp]
  000d4	e8 00 00 00 00	 call	 w32_snprintf

; 1266 :     return buf;

  000d9	48 8b 84 24 80
	00 00 00	 mov	 rax, QWORD PTR buf$[rsp]

; 1267 : }

  000e1	48 8b 4c 24 50	 mov	 rcx, QWORD PTR __$ArrayPad$[rsp]
  000e6	48 33 cc	 xor	 rcx, rsp
  000e9	e8 00 00 00 00	 call	 __security_check_cookie
  000ee	48 83 c4 68	 add	 rsp, 104		; 00000068H
  000f2	c3		 ret	 0
_fmt_memsize ENDP
_TEXT	ENDS
; Function compile flags: /Odtp
; File C:\papa\MyGit\hyperion-zvector\hscutl.c
_TEXT	SEGMENT
i$ = 32
tok$ = 40
sym$ = 64
alloc$ = 72
get_symbol_token PROC

; 275  : {

  00000	89 54 24 10	 mov	 DWORD PTR [rsp+16], edx
  00004	48 89 4c 24 08	 mov	 QWORD PTR [rsp+8], rcx
  00009	48 83 ec 38	 sub	 rsp, 56			; 00000038H

; 276  :     SYMBOL_TOKEN        *tok;
; 277  :     int i;
; 278  : 
; 279  :     for(i=0;i<symbol_count;i++)

  0000d	c7 44 24 20 00
	00 00 00	 mov	 DWORD PTR i$[rsp], 0
  00015	eb 0a		 jmp	 SHORT $LN4@get_symbol
$LN2@get_symbol:
  00017	8b 44 24 20	 mov	 eax, DWORD PTR i$[rsp]
  0001b	ff c0		 inc	 eax
  0001d	89 44 24 20	 mov	 DWORD PTR i$[rsp], eax
$LN4@get_symbol:
  00021	8b 05 00 00 00
	00		 mov	 eax, DWORD PTR symbol_count
  00027	39 44 24 20	 cmp	 DWORD PTR i$[rsp], eax
  0002b	7d 58		 jge	 SHORT $LN3@get_symbol

; 280  :     {
; 281  :         tok=symbols[i];

  0002d	48 63 44 24 20	 movsxd	 rax, DWORD PTR i$[rsp]
  00032	48 8b 0d 00 00
	00 00		 mov	 rcx, QWORD PTR symbols
  00039	48 8b 04 c1	 mov	 rax, QWORD PTR [rcx+rax*8]
  0003d	48 89 44 24 28	 mov	 QWORD PTR tok$[rsp], rax

; 282  :         if(tok==NULL)

  00042	48 83 7c 24 28
	00		 cmp	 QWORD PTR tok$[rsp], 0
  00048	75 02		 jne	 SHORT $LN5@get_symbol

; 283  :         {
; 284  :             continue;

  0004a	eb cb		 jmp	 SHORT $LN2@get_symbol
$LN5@get_symbol:

; 285  :         }
; 286  : #if defined( CASELESS_SYMBOLS )
; 287  :         if(strcasecmp(symbols[i]->var,sym)==0)

  0004c	48 63 44 24 20	 movsxd	 rax, DWORD PTR i$[rsp]
  00051	48 8b 0d 00 00
	00 00		 mov	 rcx, QWORD PTR symbols
  00058	48 8b 04 c1	 mov	 rax, QWORD PTR [rcx+rax*8]
  0005c	48 8b 54 24 40	 mov	 rdx, QWORD PTR sym$[rsp]
  00061	48 8b 08	 mov	 rcx, QWORD PTR [rax]
  00064	ff 15 00 00 00
	00		 call	 QWORD PTR __imp__stricmp
  0006a	85 c0		 test	 eax, eax
  0006c	75 15		 jne	 SHORT $LN6@get_symbol

; 288  : #else
; 289  :         if(strcmp(symbols[i]->var,sym)==0)
; 290  : #endif
; 291  :         {
; 292  :             return(symbols[i]);

  0006e	48 63 44 24 20	 movsxd	 rax, DWORD PTR i$[rsp]
  00073	48 8b 0d 00 00
	00 00		 mov	 rcx, QWORD PTR symbols
  0007a	48 8b 04 c1	 mov	 rax, QWORD PTR [rcx+rax*8]
  0007e	e9 77 01 00 00	 jmp	 $LN1@get_symbol
$LN6@get_symbol:

; 293  :         }
; 294  :     }

  00083	eb 92		 jmp	 SHORT $LN2@get_symbol
$LN3@get_symbol:

; 295  :     if(!alloc)

  00085	83 7c 24 48 00	 cmp	 DWORD PTR alloc$[rsp], 0
  0008a	75 07		 jne	 SHORT $LN7@get_symbol

; 296  :     {
; 297  :         return(NULL);

  0008c	33 c0		 xor	 eax, eax
  0008e	e9 67 01 00 00	 jmp	 $LN1@get_symbol
$LN7@get_symbol:

; 298  :     }
; 299  :     if(symbol_count>=symbol_max)

  00093	8b 05 00 00 00
	00		 mov	 eax, DWORD PTR symbol_max
  00099	39 05 00 00 00
	00		 cmp	 DWORD PTR symbol_count, eax
  0009f	0f 8c a4 00 00
	00		 jl	 $LN8@get_symbol

; 300  :     {
; 301  :         symbol_max+=SYMBOL_TABLE_INCREMENT;

  000a5	8b 05 00 00 00
	00		 mov	 eax, DWORD PTR symbol_max
  000ab	05 00 01 00 00	 add	 eax, 256		; 00000100H
  000b0	89 05 00 00 00
	00		 mov	 DWORD PTR symbol_max, eax

; 302  :         if(symbols==NULL)

  000b6	48 83 3d 00 00
	00 00 00	 cmp	 QWORD PTR symbols, 0
  000be	75 42		 jne	 SHORT $LN9@get_symbol

; 303  :         {
; 304  :         symbols=malloc(sizeof(SYMBOL_TOKEN *)*symbol_max);

  000c0	48 63 05 00 00
	00 00		 movsxd	 rax, DWORD PTR symbol_max
  000c7	48 c1 e0 03	 shl	 rax, 3
  000cb	48 8b c8	 mov	 rcx, rax
  000ce	ff 15 00 00 00
	00		 call	 QWORD PTR __imp_malloc
  000d4	48 89 05 00 00
	00 00		 mov	 QWORD PTR symbols, rax

; 305  :         if(symbols==NULL)

  000db	48 83 3d 00 00
	00 00 00	 cmp	 QWORD PTR symbols, 0
  000e3	75 1b		 jne	 SHORT $LN11@get_symbol

; 306  :         {
; 307  :             symbol_max=0;

  000e5	c7 05 00 00 00
	00 00 00 00 00	 mov	 DWORD PTR symbol_max, 0

; 308  :             symbol_count=0;

  000ef	c7 05 00 00 00
	00 00 00 00 00	 mov	 DWORD PTR symbol_count, 0

; 309  :             return(NULL);

  000f9	33 c0		 xor	 eax, eax
  000fb	e9 fa 00 00 00	 jmp	 $LN1@get_symbol
$LN11@get_symbol:

; 310  :         }
; 311  :         }

  00100	eb 47		 jmp	 SHORT $LN10@get_symbol
$LN9@get_symbol:

; 312  :         else
; 313  :         {
; 314  :         symbols=realloc(symbols,sizeof(SYMBOL_TOKEN *)*symbol_max);

  00102	48 63 05 00 00
	00 00		 movsxd	 rax, DWORD PTR symbol_max
  00109	48 c1 e0 03	 shl	 rax, 3
  0010d	48 8b d0	 mov	 rdx, rax
  00110	48 8b 0d 00 00
	00 00		 mov	 rcx, QWORD PTR symbols
  00117	ff 15 00 00 00
	00		 call	 QWORD PTR __imp_realloc
  0011d	48 89 05 00 00
	00 00		 mov	 QWORD PTR symbols, rax

; 315  :         if(symbols==NULL)

  00124	48 83 3d 00 00
	00 00 00	 cmp	 QWORD PTR symbols, 0
  0012c	75 1b		 jne	 SHORT $LN12@get_symbol

; 316  :         {
; 317  :             symbol_max=0;

  0012e	c7 05 00 00 00
	00 00 00 00 00	 mov	 DWORD PTR symbol_max, 0

; 318  :             symbol_count=0;

  00138	c7 05 00 00 00
	00 00 00 00 00	 mov	 DWORD PTR symbol_count, 0

; 319  :             return(NULL);

  00142	33 c0		 xor	 eax, eax
  00144	e9 b1 00 00 00	 jmp	 $LN1@get_symbol
$LN12@get_symbol:
$LN10@get_symbol:
$LN8@get_symbol:

; 320  :         }
; 321  :         }
; 322  :     }
; 323  :     tok=malloc(sizeof(SYMBOL_TOKEN));

  00149	b9 10 00 00 00	 mov	 ecx, 16
  0014e	ff 15 00 00 00
	00		 call	 QWORD PTR __imp_malloc
  00154	48 89 44 24 28	 mov	 QWORD PTR tok$[rsp], rax

; 324  :     if(tok==NULL)

  00159	48 83 7c 24 28
	00		 cmp	 QWORD PTR tok$[rsp], 0
  0015f	75 07		 jne	 SHORT $LN13@get_symbol

; 325  :     {
; 326  :         return(NULL);

  00161	33 c0		 xor	 eax, eax
  00163	e9 92 00 00 00	 jmp	 $LN1@get_symbol
$LN13@get_symbol:

; 327  :     }
; 328  : 
; 329  :     tok->var=malloc(MAX_SYMBOL_SIZE+1);

  00168	b9 20 00 00 00	 mov	 ecx, 32			; 00000020H
  0016d	ff 15 00 00 00
	00		 call	 QWORD PTR __imp_malloc
  00173	48 8b 4c 24 28	 mov	 rcx, QWORD PTR tok$[rsp]
  00178	48 89 01	 mov	 QWORD PTR [rcx], rax

; 330  :     if(tok->var==NULL)

  0017b	48 8b 44 24 28	 mov	 rax, QWORD PTR tok$[rsp]
  00180	48 83 38 00	 cmp	 QWORD PTR [rax], 0
  00184	75 0f		 jne	 SHORT $LN14@get_symbol

; 331  :     {
; 332  :         free(tok);

  00186	48 8b 4c 24 28	 mov	 rcx, QWORD PTR tok$[rsp]
  0018b	ff 15 00 00 00
	00		 call	 QWORD PTR __imp_free

; 333  :         return(NULL);

  00191	33 c0		 xor	 eax, eax
  00193	eb 65		 jmp	 SHORT $LN1@get_symbol
$LN14@get_symbol:

; 334  :     }
; 335  :     strncpy(tok->var,sym,MAX_SYMBOL_SIZE);

  00195	41 b8 1f 00 00
	00		 mov	 r8d, 31
  0019b	48 8b 54 24 40	 mov	 rdx, QWORD PTR sym$[rsp]
  001a0	48 8b 44 24 28	 mov	 rax, QWORD PTR tok$[rsp]
  001a5	48 8b 08	 mov	 rcx, QWORD PTR [rax]
  001a8	ff 15 00 00 00
	00		 call	 QWORD PTR __imp_strncpy

; 336  :     tok->var[MAX_SYMBOL_SIZE]=0;    /* Ensure null termination */

  001ae	b8 01 00 00 00	 mov	 eax, 1
  001b3	48 6b c0 1f	 imul	 rax, rax, 31
  001b7	48 8b 4c 24 28	 mov	 rcx, QWORD PTR tok$[rsp]
  001bc	48 8b 09	 mov	 rcx, QWORD PTR [rcx]
  001bf	c6 04 08 00	 mov	 BYTE PTR [rax+rcx], 0

; 337  : 
; 338  :     tok->val=NULL;

  001c3	48 8b 44 24 28	 mov	 rax, QWORD PTR tok$[rsp]
  001c8	48 c7 40 08 00
	00 00 00	 mov	 QWORD PTR [rax+8], 0

; 339  :     symbols[symbol_count]=tok;

  001d0	48 63 05 00 00
	00 00		 movsxd	 rax, DWORD PTR symbol_count
  001d7	48 8b 0d 00 00
	00 00		 mov	 rcx, QWORD PTR symbols
  001de	48 8b 54 24 28	 mov	 rdx, QWORD PTR tok$[rsp]
  001e3	48 89 14 c1	 mov	 QWORD PTR [rcx+rax*8], rdx

; 340  :     symbol_count++;

  001e7	8b 05 00 00 00
	00		 mov	 eax, DWORD PTR symbol_count
  001ed	ff c0		 inc	 eax
  001ef	89 05 00 00 00
	00		 mov	 DWORD PTR symbol_count, eax

; 341  :     return(tok);

  001f5	48 8b 44 24 28	 mov	 rax, QWORD PTR tok$[rsp]
$LN1@get_symbol:

; 342  : }

  001fa	48 83 c4 38	 add	 rsp, 56			; 00000038H
  001fe	c3		 ret	 0
get_symbol_token ENDP
_TEXT	ENDS
; Function compile flags: /Odtp
; File C:\papa\MyGit\hyperion-zvector\hinlines.h
_TEXT	SEGMENT
regs$ = 48
location$ = 56
Release_Interrupt_Lock PROC

; 403  : {

  00000	48 89 54 24 10	 mov	 QWORD PTR [rsp+16], rdx
  00005	48 89 4c 24 08	 mov	 QWORD PTR [rsp+8], rcx
  0000a	48 83 ec 28	 sub	 rsp, 40			; 00000028H
$LN4@Release_In:

; 404  :     UNREFERENCED( regs );

  0000e	33 c0		 xor	 eax, eax
  00010	85 c0		 test	 eax, eax
  00012	75 fa		 jne	 SHORT $LN4@Release_In

; 405  :     sysblk.intowner = LOCK_OWNER_NONE;

  00014	b8 ff ff 00 00	 mov	 eax, 65535		; 0000ffffH
  00019	48 8b 0d 00 00
	00 00		 mov	 rcx, QWORD PTR __imp_sysblk
  00020	66 89 81 62 10
	00 00		 mov	 WORD PTR [rcx+4194], ax

; 406  :     hthread_release_lock( &sysblk.intlock, location );

  00027	48 8b 05 00 00
	00 00		 mov	 rax, QWORD PTR __imp_sysblk
  0002e	48 05 70 10 00
	00		 add	 rax, 4208		; 00001070H
  00034	48 8b 54 24 38	 mov	 rdx, QWORD PTR location$[rsp]
  00039	48 8b c8	 mov	 rcx, rax
  0003c	e8 00 00 00 00	 call	 hthread_release_lock

; 407  : }

  00041	48 83 c4 28	 add	 rsp, 40			; 00000028H
  00045	c3		 ret	 0
Release_Interrupt_Lock ENDP
_TEXT	ENDS
; Function compile flags: /Odtp
; File C:\papa\MyGit\hyperion-zvector\hinlines.h
_TEXT	SEGMENT
regs$ = 48
location$ = 56
Obtain_Interrupt_Lock PROC

; 379  : {

  00000	48 89 54 24 10	 mov	 QWORD PTR [rsp+16], rdx
  00005	48 89 4c 24 08	 mov	 QWORD PTR [rsp+8], rcx
  0000a	48 83 ec 28	 sub	 rsp, 40			; 00000028H

; 380  :     if (regs)

  0000e	48 83 7c 24 30
	00		 cmp	 QWORD PTR regs$[rsp], 0
  00014	74 13		 je	 SHORT $LN2@Obtain_Int

; 381  :         HOSTREGS->intwait = true;

  00016	48 8b 44 24 30	 mov	 rax, QWORD PTR regs$[rsp]
  0001b	48 8b 80 68 08
	00 00		 mov	 rax, QWORD PTR [rax+2152]
  00022	c6 80 f0 08 00
	00 01		 mov	 BYTE PTR [rax+2288], 1
$LN2@Obtain_Int:

; 382  :     hthread_obtain_lock( &sysblk.intlock, location );

  00029	48 8b 05 00 00
	00 00		 mov	 rax, QWORD PTR __imp_sysblk
  00030	48 05 70 10 00
	00		 add	 rax, 4208		; 00001070H
  00036	48 8b 54 24 38	 mov	 rdx, QWORD PTR location$[rsp]
  0003b	48 8b c8	 mov	 rcx, rax
  0003e	e8 00 00 00 00	 call	 hthread_obtain_lock

; 383  :     Interrupt_Lock_Obtained( regs, location );

  00043	48 8b 54 24 38	 mov	 rdx, QWORD PTR location$[rsp]
  00048	48 8b 4c 24 30	 mov	 rcx, QWORD PTR regs$[rsp]
  0004d	e8 00 00 00 00	 call	 Interrupt_Lock_Obtained

; 384  : }

  00052	48 83 c4 28	 add	 rsp, 40			; 00000028H
  00056	c3		 ret	 0
Obtain_Interrupt_Lock ENDP
_TEXT	ENDS
; Function compile flags: /Odtp
; File C:\papa\MyGit\hyperion-zvector\hinlines.h
_TEXT	SEGMENT
regs$ = 48
location$ = 56
Interrupt_Lock_Obtained PROC

; 347  : {

  00000	48 89 54 24 10	 mov	 QWORD PTR [rsp+16], rdx
  00005	48 89 4c 24 08	 mov	 QWORD PTR [rsp+8], rcx
  0000a	48 83 ec 28	 sub	 rsp, 40			; 00000028H

; 348  :     if (regs)

  0000e	48 83 7c 24 30
	00		 cmp	 QWORD PTR regs$[rsp], 0
  00014	0f 84 d9 00 00
	00		 je	 $LN4@Interrupt_
$LN2@Interrupt_:

; 349  :     {
; 350  :         /* Wait for any SYNCHRONIZE_CPUS to finish before proceeding */
; 351  :         while (sysblk.syncing)

  0001a	48 8b 05 00 00
	00 00		 mov	 rax, QWORD PTR __imp_sysblk
  00021	0f b6 80 7c 13
	00 00		 movzx	 eax, BYTE PTR [rax+4988]
  00028	85 c0		 test	 eax, eax
  0002a	0f 84 8d 00 00
	00		 je	 $LN3@Interrupt_

; 352  :         {
; 353  :             /* Indicate we have reached the sync point */
; 354  :             sysblk.sync_mask &= ~HOSTREGS->cpubit;

  00030	48 8b 44 24 30	 mov	 rax, QWORD PTR regs$[rsp]
  00035	48 8b 80 68 08
	00 00		 mov	 rax, QWORD PTR [rax+2152]
  0003c	48 8b 40 50	 mov	 rax, QWORD PTR [rax+80]
  00040	48 f7 d0	 not	 rax
  00043	48 8b 0d 00 00
	00 00		 mov	 rcx, QWORD PTR __imp_sysblk
  0004a	48 8b 89 80 13
	00 00		 mov	 rcx, QWORD PTR [rcx+4992]
  00051	48 23 c8	 and	 rcx, rax
  00054	48 8b c1	 mov	 rax, rcx
  00057	48 8b 0d 00 00
	00 00		 mov	 rcx, QWORD PTR __imp_sysblk
  0005e	48 89 81 80 13
	00 00		 mov	 QWORD PTR [rcx+4992], rax

; 355  : 
; 356  :             /* If we're the last CPU to reach this sync point,
; 357  :                signal the CPU that requested the sync that it
; 358  :                may now safely proceed with its exclusive logic.
; 359  :             */
; 360  :             if (!sysblk.sync_mask)

  00065	48 8b 05 00 00
	00 00		 mov	 rax, QWORD PTR __imp_sysblk
  0006c	48 83 b8 80 13
	00 00 00	 cmp	 QWORD PTR [rax+4992], 0
  00074	75 1a		 jne	 SHORT $LN6@Interrupt_

; 361  :                 hthread_signal_condition( &sysblk.all_synced_cond, location );

  00076	48 8b 05 00 00
	00 00		 mov	 rax, QWORD PTR __imp_sysblk
  0007d	48 05 88 13 00
	00		 add	 rax, 5000		; 00001388H
  00083	48 8b 54 24 38	 mov	 rdx, QWORD PTR location$[rsp]
  00088	48 8b c8	 mov	 rcx, rax
  0008b	e8 00 00 00 00	 call	 hthread_signal_condition
$LN6@Interrupt_:

; 362  : 
; 363  :             /* Wait for CPU that requested the sync to indicate
; 364  :                it's done and thus is now safe for us to proceed.
; 365  :             */
; 366  :             hthread_wait_condition( &sysblk.sync_done_cond, &sysblk.intlock, location );

  00090	48 8b 05 00 00
	00 00		 mov	 rax, QWORD PTR __imp_sysblk
  00097	48 05 70 10 00
	00		 add	 rax, 4208		; 00001070H
  0009d	48 8b 0d 00 00
	00 00		 mov	 rcx, QWORD PTR __imp_sysblk
  000a4	48 81 c1 90 13
	00 00		 add	 rcx, 5008		; 00001390H
  000ab	4c 8b 44 24 38	 mov	 r8, QWORD PTR location$[rsp]
  000b0	48 8b d0	 mov	 rdx, rax
  000b3	e8 00 00 00 00	 call	 hthread_wait_condition

; 367  :         }

  000b8	e9 5d ff ff ff	 jmp	 $LN2@Interrupt_
$LN3@Interrupt_:

; 368  : 
; 369  :         HOSTREGS->intwait = false;

  000bd	48 8b 44 24 30	 mov	 rax, QWORD PTR regs$[rsp]
  000c2	48 8b 80 68 08
	00 00		 mov	 rax, QWORD PTR [rax+2152]
  000c9	c6 80 f0 08 00
	00 00		 mov	 BYTE PTR [rax+2288], 0

; 370  :         sysblk.intowner = HOSTREGS->cpuad;

  000d0	48 8b 44 24 30	 mov	 rax, QWORD PTR regs$[rsp]
  000d5	48 8b 80 68 08
	00 00		 mov	 rax, QWORD PTR [rax+2152]
  000dc	48 8b 0d 00 00
	00 00		 mov	 rcx, QWORD PTR __imp_sysblk
  000e3	0f b7 80 3c 08
	00 00		 movzx	 eax, WORD PTR [rax+2108]
  000ea	66 89 81 62 10
	00 00		 mov	 WORD PTR [rcx+4194], ax

; 371  :     }

  000f1	eb 13		 jmp	 SHORT $LN5@Interrupt_
$LN4@Interrupt_:

; 372  :     else
; 373  :         sysblk.intowner = LOCK_OWNER_OTHER;

  000f3	b8 fe ff 00 00	 mov	 eax, 65534		; 0000fffeH
  000f8	48 8b 0d 00 00
	00 00		 mov	 rcx, QWORD PTR __imp_sysblk
  000ff	66 89 81 62 10
	00 00		 mov	 WORD PTR [rcx+4194], ax
$LN5@Interrupt_:

; 374  : }

  00106	48 83 c4 28	 add	 rsp, 40			; 00000028H
  0010a	c3		 ret	 0
Interrupt_Lock_Obtained ENDP
_TEXT	ENDS
; Function compile flags: /Odtp
; File C:\papa\MyGit\hyperion-zvector\hscutl.c
_TEXT	SEGMENT
tv65 = 32
rec$1 = 40
rec$2 = 48
op$3 = 56
rec$4 = 64
i$5 = 72
i$6 = 76
i$7 = 80
i$8 = 84
rec$9 = 88
rec$10 = 96
rec$11 = 104
rec$12 = 112
rec$13 = 120
rec$14 = 128
rec$15 = 136
rec$16 = 144
rec$17 = 152
rec$18 = 160
rec$19 = 168
tv310 = 176
tv329 = 180
tv551 = 184
tv560 = 188
tv570 = 192
tv319 = 196
rec$20 = 200
rec$21 = 208
rec$22 = 216
rec$23 = 224
rec$24 = 232
rec$25 = 240
rec$26 = 248
rec$27 = 256
rec$28 = 264
rec$29 = 272
rec$30 = 280
rec$31 = 288
rec$32 = 296
rec$33 = 304
rec$34 = 312
rec$35 = 320
rec$36 = 328
rec$37 = 336
rec$38 = 344
rec$39 = 352
rec$40 = 360
rec$41 = 368
rec$42 = 376
rec$43 = 384
rec$44 = 392
rec$45 = 400
rec$46 = 408
rec$47 = 416
p$48 = 424
hdr$ = 448
msgnum$ = 456
tf_swap_rec PROC

; 4175 : {

$LN116:
  00000	66 89 54 24 10	 mov	 WORD PTR [rsp+16], dx
  00005	48 89 4c 24 08	 mov	 QWORD PTR [rsp+8], rcx
  0000a	48 81 ec b8 01
	00 00		 sub	 rsp, 440		; 000001b8H

; 4176 :     switch (msgnum)

  00011	0f b7 84 24 c8
	01 00 00	 movzx	 eax, WORD PTR msgnum$[rsp]
  00019	89 44 24 20	 mov	 DWORD PTR tv65[rsp], eax
  0001d	81 7c 24 20 20
	03 00 00	 cmp	 DWORD PTR tv65[rsp], 800 ; 00000320H
  00025	7f 46		 jg	 SHORT $LN106@tf_swap_re
  00027	81 7c 24 20 20
	03 00 00	 cmp	 DWORD PTR tv65[rsp], 800 ; 00000320H
  0002f	0f 84 4d 07 00
	00		 je	 $LN44@tf_swap_re
  00035	8b 44 24 20	 mov	 eax, DWORD PTR tv65[rsp]
  00039	2d a7 01 00 00	 sub	 eax, 423		; 000001a7H
  0003e	89 44 24 20	 mov	 DWORD PTR tv65[rsp], eax
  00042	83 7c 24 20 61	 cmp	 DWORD PTR tv65[rsp], 97	; 00000061H
  00047	0f 87 d8 10 00
	00		 ja	 $LN92@tf_swap_re
  0004d	48 63 44 24 20	 movsxd	 rax, DWORD PTR tv65[rsp]
  00052	48 8d 0d 00 00
	00 00		 lea	 rcx, OFFSET FLAT:__ImageBase
  00059	0f b6 84 01 00
	00 00 00	 movzx	 eax, BYTE PTR $LN114@tf_swap_re[rcx+rax]
  00061	8b 84 81 00 00
	00 00		 mov	 eax, DWORD PTR $LN115@tf_swap_re[rcx+rax*4]
  00068	48 03 c1	 add	 rax, rcx
  0006b	ff e0		 jmp	 rax
$LN106@tf_swap_re:
  0006d	81 7c 24 20 14
	05 00 00	 cmp	 DWORD PTR tv65[rsp], 1300 ; 00000514H
  00075	7f 46		 jg	 SHORT $LN107@tf_swap_re
  00077	81 7c 24 20 14
	05 00 00	 cmp	 DWORD PTR tv65[rsp], 1300 ; 00000514H
  0007f	0f 84 97 0b 00
	00		 je	 $LN60@tf_swap_re
  00085	8b 44 24 20	 mov	 eax, DWORD PTR tv65[rsp]
  00089	2d 21 03 00 00	 sub	 eax, 801		; 00000321H
  0008e	89 44 24 20	 mov	 DWORD PTR tv65[rsp], eax
  00092	83 7c 24 20 2d	 cmp	 DWORD PTR tv65[rsp], 45	; 0000002dH
  00097	0f 87 88 10 00
	00		 ja	 $LN92@tf_swap_re
  0009d	48 63 44 24 20	 movsxd	 rax, DWORD PTR tv65[rsp]
  000a2	48 8d 0d 00 00
	00 00		 lea	 rcx, OFFSET FLAT:__ImageBase
  000a9	0f b6 84 01 00
	00 00 00	 movzx	 eax, BYTE PTR $LN112@tf_swap_re[rcx+rax]
  000b1	8b 84 81 00 00
	00 00		 mov	 eax, DWORD PTR $LN113@tf_swap_re[rcx+rax*4]
  000b8	48 03 c1	 add	 rax, rcx
  000bb	ff e0		 jmp	 rax
$LN107@tf_swap_re:
  000bd	81 7c 24 20 dd
	08 00 00	 cmp	 DWORD PTR tv65[rsp], 2269 ; 000008ddH
  000c5	7f 3e		 jg	 SHORT $LN108@tf_swap_re
  000c7	81 7c 24 20 dd
	08 00 00	 cmp	 DWORD PTR tv65[rsp], 2269 ; 000008ddH
  000cf	0f 84 81 0c 00
	00		 je	 $LN85@tf_swap_re
  000d5	8b 44 24 20	 mov	 eax, DWORD PTR tv65[rsp]
  000d9	2d 15 05 00 00	 sub	 eax, 1301		; 00000515H
  000de	89 44 24 20	 mov	 DWORD PTR tv65[rsp], eax
  000e2	83 7c 24 20 23	 cmp	 DWORD PTR tv65[rsp], 35	; 00000023H
  000e7	0f 87 38 10 00
	00		 ja	 $LN92@tf_swap_re
  000ed	48 63 44 24 20	 movsxd	 rax, DWORD PTR tv65[rsp]
  000f2	48 8d 0d 00 00
	00 00		 lea	 rcx, OFFSET FLAT:__ImageBase
  000f9	8b 84 81 00 00
	00 00		 mov	 eax, DWORD PTR $LN111@tf_swap_re[rcx+rax*4]
  00100	48 03 c1	 add	 rax, rcx
  00103	ff e0		 jmp	 rax
$LN108@tf_swap_re:
  00105	8b 44 24 20	 mov	 eax, DWORD PTR tv65[rsp]
  00109	2d de 08 00 00	 sub	 eax, 2270		; 000008deH
  0010e	89 44 24 20	 mov	 DWORD PTR tv65[rsp], eax
  00112	83 7c 24 20 38	 cmp	 DWORD PTR tv65[rsp], 56	; 00000038H
  00117	0f 87 08 10 00
	00		 ja	 $LN92@tf_swap_re
  0011d	48 63 44 24 20	 movsxd	 rax, DWORD PTR tv65[rsp]
  00122	48 8d 0d 00 00
	00 00		 lea	 rcx, OFFSET FLAT:__ImageBase
  00129	0f b6 84 01 00
	00 00 00	 movzx	 eax, BYTE PTR $LN109@tf_swap_re[rcx+rax]
  00131	8b 84 81 00 00
	00 00		 mov	 eax, DWORD PTR $LN110@tf_swap_re[rcx+rax*4]
  00138	48 03 c1	 add	 rax, rcx
  0013b	ff e0		 jmp	 rax
$LN19@tf_swap_re:

; 4177 :     {
; 4178 :         case  423:
; 4179 :         {
; 4180 :             // (nothing to swap!)
; 4181 :         }
; 4182 :         break;

  0013d	e9 00 10 00 00	 jmp	 $LN2@tf_swap_re
$LN20@tf_swap_re:

; 4183 : 
; 4184 :         case  424:
; 4185 :         {
; 4186 :             TF00424* rec = (TF00424*) hdr;

  00142	48 8b 84 24 c0
	01 00 00	 mov	 rax, QWORD PTR hdr$[rsp]
  0014a	48 89 84 24 c8
	00 00 00	 mov	 QWORD PTR rec$20[rsp], rax

; 4187 :             rec->trk     = SWAP32( rec->trk    );

  00152	48 8b 84 24 c8
	00 00 00	 mov	 rax, QWORD PTR rec$20[rsp]
  0015a	8b 48 18	 mov	 ecx, DWORD PTR [rax+24]
  0015d	e8 00 00 00 00	 call	 _byteswap_ulong
  00162	48 8b 8c 24 c8
	00 00 00	 mov	 rcx, QWORD PTR rec$20[rsp]
  0016a	89 41 18	 mov	 DWORD PTR [rcx+24], eax

; 4188 :             rec->bufcur  = SWAP32( rec->bufcur );

  0016d	48 8b 84 24 c8
	00 00 00	 mov	 rax, QWORD PTR rec$20[rsp]
  00175	8b 48 1c	 mov	 ecx, DWORD PTR [rax+28]
  00178	e8 00 00 00 00	 call	 _byteswap_ulong
  0017d	48 8b 8c 24 c8
	00 00 00	 mov	 rcx, QWORD PTR rec$20[rsp]
  00185	89 41 1c	 mov	 DWORD PTR [rcx+28], eax

; 4189 :         }
; 4190 :         break;

  00188	e9 b5 0f 00 00	 jmp	 $LN2@tf_swap_re
$LN21@tf_swap_re:

; 4191 : 
; 4192 :         case  425:
; 4193 :         {
; 4194 :             TF00425* rec = (TF00425*) hdr;

  0018d	48 8b 84 24 c0
	01 00 00	 mov	 rax, QWORD PTR hdr$[rsp]
  00195	48 89 84 24 28
	01 00 00	 mov	 QWORD PTR rec$32[rsp], rax

; 4195 :             rec->bufcur  = SWAP32( rec->bufcur );

  0019d	48 8b 84 24 28
	01 00 00	 mov	 rax, QWORD PTR rec$32[rsp]
  001a5	8b 48 18	 mov	 ecx, DWORD PTR [rax+24]
  001a8	e8 00 00 00 00	 call	 _byteswap_ulong
  001ad	48 8b 8c 24 28
	01 00 00	 mov	 rcx, QWORD PTR rec$32[rsp]
  001b5	89 41 18	 mov	 DWORD PTR [rcx+24], eax

; 4196 :         }
; 4197 :         break;

  001b8	e9 85 0f 00 00	 jmp	 $LN2@tf_swap_re
$LN22@tf_swap_re:

; 4198 : 
; 4199 :         case  426:
; 4200 :         {
; 4201 :             TF00426* rec = (TF00426*) hdr;

  001bd	48 8b 84 24 c0
	01 00 00	 mov	 rax, QWORD PTR hdr$[rsp]
  001c5	48 89 84 24 d0
	00 00 00	 mov	 QWORD PTR rec$21[rsp], rax

; 4202 :             rec->trk     = SWAP32( rec->trk );

  001cd	48 8b 84 24 d0
	00 00 00	 mov	 rax, QWORD PTR rec$21[rsp]
  001d5	8b 48 18	 mov	 ecx, DWORD PTR [rax+24]
  001d8	e8 00 00 00 00	 call	 _byteswap_ulong
  001dd	48 8b 8c 24 d0
	00 00 00	 mov	 rcx, QWORD PTR rec$21[rsp]
  001e5	89 41 18	 mov	 DWORD PTR [rcx+24], eax

; 4203 :             rec->idx     = SWAP32( rec->idx );

  001e8	48 8b 84 24 d0
	00 00 00	 mov	 rax, QWORD PTR rec$21[rsp]
  001f0	8b 48 1c	 mov	 ecx, DWORD PTR [rax+28]
  001f3	e8 00 00 00 00	 call	 _byteswap_ulong
  001f8	48 8b 8c 24 d0
	00 00 00	 mov	 rcx, QWORD PTR rec$21[rsp]
  00200	89 41 1c	 mov	 DWORD PTR [rcx+28], eax

; 4204 :         }
; 4205 :         break;

  00203	e9 3a 0f 00 00	 jmp	 $LN2@tf_swap_re
$LN23@tf_swap_re:

; 4206 : 
; 4207 :         case  427:
; 4208 :         {
; 4209 :             TF00427* rec = (TF00427*) hdr;

  00208	48 8b 84 24 c0
	01 00 00	 mov	 rax, QWORD PTR hdr$[rsp]
  00210	48 89 84 24 30
	01 00 00	 mov	 QWORD PTR rec$33[rsp], rax

; 4210 :             rec->trk     = SWAP32( rec->trk );

  00218	48 8b 84 24 30
	01 00 00	 mov	 rax, QWORD PTR rec$33[rsp]
  00220	8b 48 18	 mov	 ecx, DWORD PTR [rax+24]
  00223	e8 00 00 00 00	 call	 _byteswap_ulong
  00228	48 8b 8c 24 30
	01 00 00	 mov	 rcx, QWORD PTR rec$33[rsp]
  00230	89 41 18	 mov	 DWORD PTR [rcx+24], eax

; 4211 :         }
; 4212 :         break;

  00233	e9 0a 0f 00 00	 jmp	 $LN2@tf_swap_re
$LN24@tf_swap_re:

; 4213 : 
; 4214 :         case  428:
; 4215 :         {
; 4216 :             TF00428* rec = (TF00428*) hdr;

  00238	48 8b 84 24 c0
	01 00 00	 mov	 rax, QWORD PTR hdr$[rsp]
  00240	48 89 84 24 d8
	00 00 00	 mov	 QWORD PTR rec$22[rsp], rax

; 4217 :             rec->trk     = SWAP32( rec->trk );

  00248	48 8b 84 24 d8
	00 00 00	 mov	 rax, QWORD PTR rec$22[rsp]
  00250	8b 48 18	 mov	 ecx, DWORD PTR [rax+24]
  00253	e8 00 00 00 00	 call	 _byteswap_ulong
  00258	48 8b 8c 24 d8
	00 00 00	 mov	 rcx, QWORD PTR rec$22[rsp]
  00260	89 41 18	 mov	 DWORD PTR [rcx+24], eax

; 4218 :             rec->idx     = SWAP32( rec->idx );

  00263	48 8b 84 24 d8
	00 00 00	 mov	 rax, QWORD PTR rec$22[rsp]
  0026b	8b 48 1c	 mov	 ecx, DWORD PTR [rax+28]
  0026e	e8 00 00 00 00	 call	 _byteswap_ulong
  00273	48 8b 8c 24 d8
	00 00 00	 mov	 rcx, QWORD PTR rec$22[rsp]
  0027b	89 41 1c	 mov	 DWORD PTR [rcx+28], eax

; 4219 :         }
; 4220 :         break;

  0027e	e9 bf 0e 00 00	 jmp	 $LN2@tf_swap_re
$LN25@tf_swap_re:

; 4221 : 
; 4222 :         case  429:
; 4223 :         {
; 4224 :             TF00429* rec = (TF00429*) hdr;

  00283	48 8b 84 24 c0
	01 00 00	 mov	 rax, QWORD PTR hdr$[rsp]
  0028b	48 89 44 24 60	 mov	 QWORD PTR rec$10[rsp], rax

; 4225 :             rec->trk     = SWAP32( rec->trk    );

  00290	48 8b 44 24 60	 mov	 rax, QWORD PTR rec$10[rsp]
  00295	8b 48 18	 mov	 ecx, DWORD PTR [rax+24]
  00298	e8 00 00 00 00	 call	 _byteswap_ulong
  0029d	48 8b 4c 24 60	 mov	 rcx, QWORD PTR rec$10[rsp]
  002a2	89 41 18	 mov	 DWORD PTR [rcx+24], eax

; 4226 :             rec->fnum    = SWAP32( rec->fnum   );

  002a5	48 8b 44 24 60	 mov	 rax, QWORD PTR rec$10[rsp]
  002aa	8b 48 1c	 mov	 ecx, DWORD PTR [rax+28]
  002ad	e8 00 00 00 00	 call	 _byteswap_ulong
  002b2	48 8b 4c 24 60	 mov	 rcx, QWORD PTR rec$10[rsp]
  002b7	89 41 1c	 mov	 DWORD PTR [rcx+28], eax

; 4227 :             rec->len     = SWAP32( rec->len    );

  002ba	48 8b 44 24 60	 mov	 rax, QWORD PTR rec$10[rsp]
  002bf	8b 48 20	 mov	 ecx, DWORD PTR [rax+32]
  002c2	e8 00 00 00 00	 call	 _byteswap_ulong
  002c7	48 8b 4c 24 60	 mov	 rcx, QWORD PTR rec$10[rsp]
  002cc	89 41 20	 mov	 DWORD PTR [rcx+32], eax

; 4228 :             rec->offset  = SWAP64( rec->offset );

  002cf	48 8b 44 24 60	 mov	 rax, QWORD PTR rec$10[rsp]
  002d4	48 8b 48 28	 mov	 rcx, QWORD PTR [rax+40]
  002d8	e8 00 00 00 00	 call	 _byteswap_uint64
  002dd	48 8b 4c 24 60	 mov	 rcx, QWORD PTR rec$10[rsp]
  002e2	48 89 41 28	 mov	 QWORD PTR [rcx+40], rax

; 4229 :         }
; 4230 :         break;

  002e6	e9 57 0e 00 00	 jmp	 $LN2@tf_swap_re
$LN26@tf_swap_re:

; 4231 : 
; 4232 :         case  430:
; 4233 :         {
; 4234 :             TF00430* rec = (TF00430*) hdr;

  002eb	48 8b 84 24 c0
	01 00 00	 mov	 rax, QWORD PTR hdr$[rsp]
  002f3	48 89 84 24 38
	01 00 00	 mov	 QWORD PTR rec$34[rsp], rax

; 4235 :             rec->trk     = SWAP32( rec->trk );

  002fb	48 8b 84 24 38
	01 00 00	 mov	 rax, QWORD PTR rec$34[rsp]
  00303	8b 48 18	 mov	 ecx, DWORD PTR [rax+24]
  00306	e8 00 00 00 00	 call	 _byteswap_ulong
  0030b	48 8b 8c 24 38
	01 00 00	 mov	 rcx, QWORD PTR rec$34[rsp]
  00313	89 41 18	 mov	 DWORD PTR [rcx+24], eax

; 4236 :         }
; 4237 :         break;

  00316	e9 27 0e 00 00	 jmp	 $LN2@tf_swap_re
$LN27@tf_swap_re:

; 4238 : 
; 4239 :         case  431:
; 4240 :         {
; 4241 :             TF00431* rec = (TF00431*) hdr;

  0031b	48 8b 84 24 c0
	01 00 00	 mov	 rax, QWORD PTR hdr$[rsp]
  00323	48 89 84 24 e0
	00 00 00	 mov	 QWORD PTR rec$23[rsp], rax

; 4242 :             rec->cyl     = SWAP32( rec->cyl  );

  0032b	48 8b 84 24 e0
	00 00 00	 mov	 rax, QWORD PTR rec$23[rsp]
  00333	8b 48 18	 mov	 ecx, DWORD PTR [rax+24]
  00336	e8 00 00 00 00	 call	 _byteswap_ulong
  0033b	48 8b 8c 24 e0
	00 00 00	 mov	 rcx, QWORD PTR rec$23[rsp]
  00343	89 41 18	 mov	 DWORD PTR [rcx+24], eax

; 4243 :             rec->head    = SWAP32( rec->head );

  00346	48 8b 84 24 e0
	00 00 00	 mov	 rax, QWORD PTR rec$23[rsp]
  0034e	8b 48 1c	 mov	 ecx, DWORD PTR [rax+28]
  00351	e8 00 00 00 00	 call	 _byteswap_ulong
  00356	48 8b 8c 24 e0
	00 00 00	 mov	 rcx, QWORD PTR rec$23[rsp]
  0035e	89 41 1c	 mov	 DWORD PTR [rcx+28], eax

; 4244 :         }
; 4245 :         break;

  00361	e9 dc 0d 00 00	 jmp	 $LN2@tf_swap_re
$LN28@tf_swap_re:

; 4246 : 
; 4247 :         case  432:
; 4248 :         {
; 4249 :             // (nothing to swap!)
; 4250 :         }
; 4251 :         break;

  00366	e9 d7 0d 00 00	 jmp	 $LN2@tf_swap_re
$LN29@tf_swap_re:

; 4252 : 
; 4253 :         case  433:
; 4254 :         {
; 4255 :             TF00433* rec = (TF00433*) hdr;

  0036b	48 8b 84 24 c0
	01 00 00	 mov	 rax, QWORD PTR hdr$[rsp]
  00373	48 89 84 24 e8
	00 00 00	 mov	 QWORD PTR rec$24[rsp], rax

; 4256 :             rec->cyl     = SWAP32( rec->cyl  );

  0037b	48 8b 84 24 e8
	00 00 00	 mov	 rax, QWORD PTR rec$24[rsp]
  00383	8b 48 18	 mov	 ecx, DWORD PTR [rax+24]
  00386	e8 00 00 00 00	 call	 _byteswap_ulong
  0038b	48 8b 8c 24 e8
	00 00 00	 mov	 rcx, QWORD PTR rec$24[rsp]
  00393	89 41 18	 mov	 DWORD PTR [rcx+24], eax

; 4257 :             rec->head    = SWAP32( rec->head );

  00396	48 8b 84 24 e8
	00 00 00	 mov	 rax, QWORD PTR rec$24[rsp]
  0039e	8b 48 1c	 mov	 ecx, DWORD PTR [rax+28]
  003a1	e8 00 00 00 00	 call	 _byteswap_ulong
  003a6	48 8b 8c 24 e8
	00 00 00	 mov	 rcx, QWORD PTR rec$24[rsp]
  003ae	89 41 1c	 mov	 DWORD PTR [rcx+28], eax

; 4258 :         }
; 4259 :         break;

  003b1	e9 8c 0d 00 00	 jmp	 $LN2@tf_swap_re
$LN30@tf_swap_re:

; 4260 : 
; 4261 :         case  434:
; 4262 :         {
; 4263 :             // (nothing to swap!)
; 4264 :         }
; 4265 :         break;

  003b6	e9 87 0d 00 00	 jmp	 $LN2@tf_swap_re
$LN31@tf_swap_re:

; 4266 : 
; 4267 :         case  435:
; 4268 :         {
; 4269 :             TF00435* rec = (TF00435*) hdr;

  003bb	48 8b 84 24 c0
	01 00 00	 mov	 rax, QWORD PTR hdr$[rsp]
  003c3	48 89 44 24 40	 mov	 QWORD PTR rec$4[rsp], rax

; 4270 :             rec->dl      = SWAP16( rec->dl     );

  003c8	48 8b 44 24 40	 mov	 rax, QWORD PTR rec$4[rsp]
  003cd	0f b7 48 18	 movzx	 ecx, WORD PTR [rax+24]
  003d1	e8 00 00 00 00	 call	 _byteswap_ushort
  003d6	48 8b 4c 24 40	 mov	 rcx, QWORD PTR rec$4[rsp]
  003db	66 89 41 18	 mov	 WORD PTR [rcx+24], ax

; 4271 :             rec->cyl     = SWAP32( rec->cyl    );

  003df	48 8b 44 24 40	 mov	 rax, QWORD PTR rec$4[rsp]
  003e4	8b 48 1c	 mov	 ecx, DWORD PTR [rax+28]
  003e7	e8 00 00 00 00	 call	 _byteswap_ulong
  003ec	48 8b 4c 24 40	 mov	 rcx, QWORD PTR rec$4[rsp]
  003f1	89 41 1c	 mov	 DWORD PTR [rcx+28], eax

; 4272 :             rec->head    = SWAP32( rec->head   );

  003f4	48 8b 44 24 40	 mov	 rax, QWORD PTR rec$4[rsp]
  003f9	8b 48 20	 mov	 ecx, DWORD PTR [rax+32]
  003fc	e8 00 00 00 00	 call	 _byteswap_ulong
  00401	48 8b 4c 24 40	 mov	 rcx, QWORD PTR rec$4[rsp]
  00406	89 41 20	 mov	 DWORD PTR [rcx+32], eax

; 4273 :             rec->record  = SWAP32( rec->record );

  00409	48 8b 44 24 40	 mov	 rax, QWORD PTR rec$4[rsp]
  0040e	8b 48 24	 mov	 ecx, DWORD PTR [rax+36]
  00411	e8 00 00 00 00	 call	 _byteswap_ulong
  00416	48 8b 4c 24 40	 mov	 rcx, QWORD PTR rec$4[rsp]
  0041b	89 41 24	 mov	 DWORD PTR [rcx+36], eax

; 4274 :             rec->kl      = SWAP32( rec->kl     );

  0041e	48 8b 44 24 40	 mov	 rax, QWORD PTR rec$4[rsp]
  00423	8b 48 28	 mov	 ecx, DWORD PTR [rax+40]
  00426	e8 00 00 00 00	 call	 _byteswap_ulong
  0042b	48 8b 4c 24 40	 mov	 rcx, QWORD PTR rec$4[rsp]
  00430	89 41 28	 mov	 DWORD PTR [rcx+40], eax

; 4275 :             rec->offset  = SWAP32( rec->offset );

  00433	48 8b 44 24 40	 mov	 rax, QWORD PTR rec$4[rsp]
  00438	8b 48 2c	 mov	 ecx, DWORD PTR [rax+44]
  0043b	e8 00 00 00 00	 call	 _byteswap_ulong
  00440	48 8b 4c 24 40	 mov	 rcx, QWORD PTR rec$4[rsp]
  00445	89 41 2c	 mov	 DWORD PTR [rcx+44], eax

; 4276 :         }
; 4277 :         break;

  00448	e9 f5 0c 00 00	 jmp	 $LN2@tf_swap_re
$LN32@tf_swap_re:

; 4278 : 
; 4279 :         case  436:
; 4280 :         {
; 4281 :             TF00436* rec = (TF00436*) hdr;

  0044d	48 8b 84 24 c0
	01 00 00	 mov	 rax, QWORD PTR hdr$[rsp]
  00455	48 89 84 24 40
	01 00 00	 mov	 QWORD PTR rec$35[rsp], rax

; 4282 :             rec->kl      = SWAP32( rec->kl );

  0045d	48 8b 84 24 40
	01 00 00	 mov	 rax, QWORD PTR rec$35[rsp]
  00465	8b 48 18	 mov	 ecx, DWORD PTR [rax+24]
  00468	e8 00 00 00 00	 call	 _byteswap_ulong
  0046d	48 8b 8c 24 40
	01 00 00	 mov	 rcx, QWORD PTR rec$35[rsp]
  00475	89 41 18	 mov	 DWORD PTR [rcx+24], eax

; 4283 :         }
; 4284 :         break;

  00478	e9 c5 0c 00 00	 jmp	 $LN2@tf_swap_re
$LN33@tf_swap_re:

; 4285 : 
; 4286 :         case  437:
; 4287 :         {
; 4288 :             TF00437* rec = (TF00437*) hdr;

  0047d	48 8b 84 24 c0
	01 00 00	 mov	 rax, QWORD PTR hdr$[rsp]
  00485	48 89 84 24 48
	01 00 00	 mov	 QWORD PTR rec$36[rsp], rax

; 4289 :             rec->dl      = SWAP16( rec->dl );

  0048d	48 8b 84 24 48
	01 00 00	 mov	 rax, QWORD PTR rec$36[rsp]
  00495	0f b7 48 18	 movzx	 ecx, WORD PTR [rax+24]
  00499	e8 00 00 00 00	 call	 _byteswap_ushort
  0049e	48 8b 8c 24 48
	01 00 00	 mov	 rcx, QWORD PTR rec$36[rsp]
  004a6	66 89 41 18	 mov	 WORD PTR [rcx+24], ax

; 4290 :         }
; 4291 :         break;

  004aa	e9 93 0c 00 00	 jmp	 $LN2@tf_swap_re
$LN34@tf_swap_re:

; 4292 : 
; 4293 :         case  438:
; 4294 :         {
; 4295 :             TF00438* rec = (TF00438*) hdr;

  004af	48 8b 84 24 c0
	01 00 00	 mov	 rax, QWORD PTR hdr$[rsp]
  004b7	48 89 44 24 70	 mov	 QWORD PTR rec$12[rsp], rax

; 4296 :             rec->datalen = SWAP16( rec->datalen );

  004bc	48 8b 44 24 70	 mov	 rax, QWORD PTR rec$12[rsp]
  004c1	0f b7 48 20	 movzx	 ecx, WORD PTR [rax+32]
  004c5	e8 00 00 00 00	 call	 _byteswap_ushort
  004ca	48 8b 4c 24 70	 mov	 rcx, QWORD PTR rec$12[rsp]
  004cf	66 89 41 20	 mov	 WORD PTR [rcx+32], ax

; 4297 :             rec->cyl     = SWAP32( rec->cyl     );

  004d3	48 8b 44 24 70	 mov	 rax, QWORD PTR rec$12[rsp]
  004d8	8b 48 18	 mov	 ecx, DWORD PTR [rax+24]
  004db	e8 00 00 00 00	 call	 _byteswap_ulong
  004e0	48 8b 4c 24 70	 mov	 rcx, QWORD PTR rec$12[rsp]
  004e5	89 41 18	 mov	 DWORD PTR [rcx+24], eax

; 4298 :             rec->head    = SWAP32( rec->head    );

  004e8	48 8b 44 24 70	 mov	 rax, QWORD PTR rec$12[rsp]
  004ed	8b 48 1c	 mov	 ecx, DWORD PTR [rax+28]
  004f0	e8 00 00 00 00	 call	 _byteswap_ulong
  004f5	48 8b 4c 24 70	 mov	 rcx, QWORD PTR rec$12[rsp]
  004fa	89 41 1c	 mov	 DWORD PTR [rcx+28], eax

; 4299 :         }
; 4300 :         break;

  004fd	e9 40 0c 00 00	 jmp	 $LN2@tf_swap_re
$LN35@tf_swap_re:

; 4301 : 
; 4302 :         case  439:
; 4303 :         {
; 4304 :             TF00439* rec = (TF00439*) hdr;

  00502	48 8b 84 24 c0
	01 00 00	 mov	 rax, QWORD PTR hdr$[rsp]
  0050a	48 89 84 24 f0
	00 00 00	 mov	 QWORD PTR rec$25[rsp], rax

; 4305 :             rec->cyl     = SWAP32( rec->cyl  );

  00512	48 8b 84 24 f0
	00 00 00	 mov	 rax, QWORD PTR rec$25[rsp]
  0051a	8b 48 18	 mov	 ecx, DWORD PTR [rax+24]
  0051d	e8 00 00 00 00	 call	 _byteswap_ulong
  00522	48 8b 8c 24 f0
	00 00 00	 mov	 rcx, QWORD PTR rec$25[rsp]
  0052a	89 41 18	 mov	 DWORD PTR [rcx+24], eax

; 4306 :             rec->head    = SWAP32( rec->head );

  0052d	48 8b 84 24 f0
	00 00 00	 mov	 rax, QWORD PTR rec$25[rsp]
  00535	8b 48 1c	 mov	 ecx, DWORD PTR [rax+28]
  00538	e8 00 00 00 00	 call	 _byteswap_ulong
  0053d	48 8b 8c 24 f0
	00 00 00	 mov	 rcx, QWORD PTR rec$25[rsp]
  00545	89 41 1c	 mov	 DWORD PTR [rcx+28], eax

; 4307 :         }
; 4308 :         break;

  00548	e9 f5 0b 00 00	 jmp	 $LN2@tf_swap_re
$LN36@tf_swap_re:

; 4309 : 
; 4310 :         case  440:
; 4311 :         {
; 4312 :             TF00440* rec = (TF00440*) hdr;

  0054d	48 8b 84 24 c0
	01 00 00	 mov	 rax, QWORD PTR hdr$[rsp]
  00555	48 89 44 24 58	 mov	 QWORD PTR rec$9[rsp], rax

; 4313 :             rec->datalen = SWAP16( rec->datalen );

  0055a	48 8b 44 24 58	 mov	 rax, QWORD PTR rec$9[rsp]
  0055f	0f b7 48 28	 movzx	 ecx, WORD PTR [rax+40]
  00563	e8 00 00 00 00	 call	 _byteswap_ushort
  00568	48 8b 4c 24 58	 mov	 rcx, QWORD PTR rec$9[rsp]
  0056d	66 89 41 28	 mov	 WORD PTR [rcx+40], ax

; 4314 :             rec->cyl     = SWAP32( rec->cyl     );

  00571	48 8b 44 24 58	 mov	 rax, QWORD PTR rec$9[rsp]
  00576	8b 48 18	 mov	 ecx, DWORD PTR [rax+24]
  00579	e8 00 00 00 00	 call	 _byteswap_ulong
  0057e	48 8b 4c 24 58	 mov	 rcx, QWORD PTR rec$9[rsp]
  00583	89 41 18	 mov	 DWORD PTR [rcx+24], eax

; 4315 :             rec->head    = SWAP32( rec->head    );

  00586	48 8b 44 24 58	 mov	 rax, QWORD PTR rec$9[rsp]
  0058b	8b 48 1c	 mov	 ecx, DWORD PTR [rax+28]
  0058e	e8 00 00 00 00	 call	 _byteswap_ulong
  00593	48 8b 4c 24 58	 mov	 rcx, QWORD PTR rec$9[rsp]
  00598	89 41 1c	 mov	 DWORD PTR [rcx+28], eax

; 4316 :             rec->recnum  = SWAP32( rec->recnum  );

  0059b	48 8b 44 24 58	 mov	 rax, QWORD PTR rec$9[rsp]
  005a0	8b 48 20	 mov	 ecx, DWORD PTR [rax+32]
  005a3	e8 00 00 00 00	 call	 _byteswap_ulong
  005a8	48 8b 4c 24 58	 mov	 rcx, QWORD PTR rec$9[rsp]
  005ad	89 41 20	 mov	 DWORD PTR [rcx+32], eax

; 4317 :             rec->keylen  = SWAP32( rec->keylen  );

  005b0	48 8b 44 24 58	 mov	 rax, QWORD PTR rec$9[rsp]
  005b5	8b 48 24	 mov	 ecx, DWORD PTR [rax+36]
  005b8	e8 00 00 00 00	 call	 _byteswap_ulong
  005bd	48 8b 4c 24 58	 mov	 rcx, QWORD PTR rec$9[rsp]
  005c2	89 41 24	 mov	 DWORD PTR [rcx+36], eax

; 4318 :         }
; 4319 :         break;

  005c5	e9 78 0b 00 00	 jmp	 $LN2@tf_swap_re
$LN37@tf_swap_re:

; 4320 : 
; 4321 :         case  441:
; 4322 :         {
; 4323 :             TF00441* rec = (TF00441*) hdr;

  005ca	48 8b 84 24 c0
	01 00 00	 mov	 rax, QWORD PTR hdr$[rsp]
  005d2	48 89 44 24 68	 mov	 QWORD PTR rec$11[rsp], rax

; 4324 :             rec->datalen = SWAP16( rec->datalen );

  005d7	48 8b 44 24 68	 mov	 rax, QWORD PTR rec$11[rsp]
  005dc	0f b7 48 24	 movzx	 ecx, WORD PTR [rax+36]
  005e0	e8 00 00 00 00	 call	 _byteswap_ushort
  005e5	48 8b 4c 24 68	 mov	 rcx, QWORD PTR rec$11[rsp]
  005ea	66 89 41 24	 mov	 WORD PTR [rcx+36], ax

; 4325 :             rec->cyl     = SWAP32( rec->cyl     );

  005ee	48 8b 44 24 68	 mov	 rax, QWORD PTR rec$11[rsp]
  005f3	8b 48 18	 mov	 ecx, DWORD PTR [rax+24]
  005f6	e8 00 00 00 00	 call	 _byteswap_ulong
  005fb	48 8b 4c 24 68	 mov	 rcx, QWORD PTR rec$11[rsp]
  00600	89 41 18	 mov	 DWORD PTR [rcx+24], eax

; 4326 :             rec->head    = SWAP32( rec->head    );

  00603	48 8b 44 24 68	 mov	 rax, QWORD PTR rec$11[rsp]
  00608	8b 48 1c	 mov	 ecx, DWORD PTR [rax+28]
  0060b	e8 00 00 00 00	 call	 _byteswap_ulong
  00610	48 8b 4c 24 68	 mov	 rcx, QWORD PTR rec$11[rsp]
  00615	89 41 1c	 mov	 DWORD PTR [rcx+28], eax

; 4327 :             rec->recnum  = SWAP32( rec->recnum  );

  00618	48 8b 44 24 68	 mov	 rax, QWORD PTR rec$11[rsp]
  0061d	8b 48 20	 mov	 ecx, DWORD PTR [rax+32]
  00620	e8 00 00 00 00	 call	 _byteswap_ulong
  00625	48 8b 4c 24 68	 mov	 rcx, QWORD PTR rec$11[rsp]
  0062a	89 41 20	 mov	 DWORD PTR [rcx+32], eax

; 4328 :         }
; 4329 :         break;

  0062d	e9 10 0b 00 00	 jmp	 $LN2@tf_swap_re
$LN38@tf_swap_re:

; 4330 : 
; 4331 :         case  442:
; 4332 :         {
; 4333 :             // (nothing to swap!)
; 4334 :         }
; 4335 :         break;

  00632	e9 0b 0b 00 00	 jmp	 $LN2@tf_swap_re
$LN39@tf_swap_re:

; 4336 : 
; 4337 :         case  516:
; 4338 :         {
; 4339 :             TF00516* rec = (TF00516*) hdr;

  00637	48 8b 84 24 c0
	01 00 00	 mov	 rax, QWORD PTR hdr$[rsp]
  0063f	48 89 84 24 f8
	00 00 00	 mov	 QWORD PTR rec$26[rsp], rax

; 4340 :             rec->blkgrp  = SWAP32( rec->blkgrp );

  00647	48 8b 84 24 f8
	00 00 00	 mov	 rax, QWORD PTR rec$26[rsp]
  0064f	8b 48 18	 mov	 ecx, DWORD PTR [rax+24]
  00652	e8 00 00 00 00	 call	 _byteswap_ulong
  00657	48 8b 8c 24 f8
	00 00 00	 mov	 rcx, QWORD PTR rec$26[rsp]
  0065f	89 41 18	 mov	 DWORD PTR [rcx+24], eax

; 4341 :             rec->idx     = SWAP32( rec->idx    );

  00662	48 8b 84 24 f8
	00 00 00	 mov	 rax, QWORD PTR rec$26[rsp]
  0066a	8b 48 1c	 mov	 ecx, DWORD PTR [rax+28]
  0066d	e8 00 00 00 00	 call	 _byteswap_ulong
  00672	48 8b 8c 24 f8
	00 00 00	 mov	 rcx, QWORD PTR rec$26[rsp]
  0067a	89 41 1c	 mov	 DWORD PTR [rcx+28], eax

; 4342 :         }
; 4343 :         break;

  0067d	e9 c0 0a 00 00	 jmp	 $LN2@tf_swap_re
$LN40@tf_swap_re:

; 4344 : 
; 4345 :         case  517:
; 4346 :         {
; 4347 :             TF00517* rec = (TF00517*) hdr;

  00682	48 8b 84 24 c0
	01 00 00	 mov	 rax, QWORD PTR hdr$[rsp]
  0068a	48 89 84 24 50
	01 00 00	 mov	 QWORD PTR rec$37[rsp], rax

; 4348 :             rec->blkgrp  = SWAP32( rec->blkgrp );

  00692	48 8b 84 24 50
	01 00 00	 mov	 rax, QWORD PTR rec$37[rsp]
  0069a	8b 48 18	 mov	 ecx, DWORD PTR [rax+24]
  0069d	e8 00 00 00 00	 call	 _byteswap_ulong
  006a2	48 8b 8c 24 50
	01 00 00	 mov	 rcx, QWORD PTR rec$37[rsp]
  006aa	89 41 18	 mov	 DWORD PTR [rcx+24], eax

; 4349 :         }
; 4350 :         break;

  006ad	e9 90 0a 00 00	 jmp	 $LN2@tf_swap_re
$LN41@tf_swap_re:

; 4351 : 
; 4352 :         case  518:
; 4353 :         {
; 4354 :             TF00518* rec = (TF00518*) hdr;

  006b2	48 8b 84 24 c0
	01 00 00	 mov	 rax, QWORD PTR hdr$[rsp]
  006ba	48 89 84 24 00
	01 00 00	 mov	 QWORD PTR rec$27[rsp], rax

; 4355 :             rec->blkgrp  = SWAP32( rec->blkgrp );

  006c2	48 8b 84 24 00
	01 00 00	 mov	 rax, QWORD PTR rec$27[rsp]
  006ca	8b 48 18	 mov	 ecx, DWORD PTR [rax+24]
  006cd	e8 00 00 00 00	 call	 _byteswap_ulong
  006d2	48 8b 8c 24 00
	01 00 00	 mov	 rcx, QWORD PTR rec$27[rsp]
  006da	89 41 18	 mov	 DWORD PTR [rcx+24], eax

; 4356 :             rec->idx     = SWAP32( rec->idx    );

  006dd	48 8b 84 24 00
	01 00 00	 mov	 rax, QWORD PTR rec$27[rsp]
  006e5	8b 48 1c	 mov	 ecx, DWORD PTR [rax+28]
  006e8	e8 00 00 00 00	 call	 _byteswap_ulong
  006ed	48 8b 8c 24 00
	01 00 00	 mov	 rcx, QWORD PTR rec$27[rsp]
  006f5	89 41 1c	 mov	 DWORD PTR [rcx+28], eax

; 4357 :         }
; 4358 :         break;

  006f8	e9 45 0a 00 00	 jmp	 $LN2@tf_swap_re
$LN42@tf_swap_re:

; 4359 : 
; 4360 :         case  519:
; 4361 :         {
; 4362 :             TF00519* rec = (TF00519*) hdr;

  006fd	48 8b 84 24 c0
	01 00 00	 mov	 rax, QWORD PTR hdr$[rsp]
  00705	48 89 44 24 78	 mov	 QWORD PTR rec$13[rsp], rax

; 4363 :             rec->blkgrp  = SWAP32( rec->blkgrp );

  0070a	48 8b 44 24 78	 mov	 rax, QWORD PTR rec$13[rsp]
  0070f	8b 48 18	 mov	 ecx, DWORD PTR [rax+24]
  00712	e8 00 00 00 00	 call	 _byteswap_ulong
  00717	48 8b 4c 24 78	 mov	 rcx, QWORD PTR rec$13[rsp]
  0071c	89 41 18	 mov	 DWORD PTR [rcx+24], eax

; 4364 :             rec->len     = SWAP32( rec->len    );

  0071f	48 8b 44 24 78	 mov	 rax, QWORD PTR rec$13[rsp]
  00724	8b 48 1c	 mov	 ecx, DWORD PTR [rax+28]
  00727	e8 00 00 00 00	 call	 _byteswap_ulong
  0072c	48 8b 4c 24 78	 mov	 rcx, QWORD PTR rec$13[rsp]
  00731	89 41 1c	 mov	 DWORD PTR [rcx+28], eax

; 4365 :             rec->offset  = SWAP64( rec->offset );

  00734	48 8b 44 24 78	 mov	 rax, QWORD PTR rec$13[rsp]
  00739	48 8b 48 20	 mov	 rcx, QWORD PTR [rax+32]
  0073d	e8 00 00 00 00	 call	 _byteswap_uint64
  00742	48 8b 4c 24 78	 mov	 rcx, QWORD PTR rec$13[rsp]
  00747	48 89 41 20	 mov	 QWORD PTR [rcx+32], rax

; 4366 :         }
; 4367 :         break;

  0074b	e9 f2 09 00 00	 jmp	 $LN2@tf_swap_re
$LN43@tf_swap_re:

; 4368 : 
; 4369 :         case  520:
; 4370 :         {
; 4371 :             TF00520* rec = (TF00520*) hdr;

  00750	48 8b 84 24 c0
	01 00 00	 mov	 rax, QWORD PTR hdr$[rsp]
  00758	48 89 84 24 58
	01 00 00	 mov	 QWORD PTR rec$38[rsp], rax

; 4372 :             rec->rba     = SWAP64( rec->rba );

  00760	48 8b 84 24 58
	01 00 00	 mov	 rax, QWORD PTR rec$38[rsp]
  00768	48 8b 48 18	 mov	 rcx, QWORD PTR [rax+24]
  0076c	e8 00 00 00 00	 call	 _byteswap_uint64
  00771	48 8b 8c 24 58
	01 00 00	 mov	 rcx, QWORD PTR rec$38[rsp]
  00779	48 89 41 18	 mov	 QWORD PTR [rcx+24], rax

; 4373 :         }
; 4374 :         break;

  0077d	e9 c0 09 00 00	 jmp	 $LN2@tf_swap_re
$LN44@tf_swap_re:

; 4375 : 
; 4376 :         case  800:
; 4377 :         {
; 4378 :             TF00800* rec = (TF00800*) hdr;

  00782	48 8b 84 24 c0
	01 00 00	 mov	 rax, QWORD PTR hdr$[rsp]
  0078a	48 89 44 24 30	 mov	 QWORD PTR rec$2[rsp], rax

; 4379 : 
; 4380 :             rec->psw.intcode  = SWAP16( rec->psw.intcode  );

  0078f	48 8b 44 24 30	 mov	 rax, QWORD PTR rec$2[rsp]
  00794	0f b7 48 38	 movzx	 ecx, WORD PTR [rax+56]
  00798	e8 00 00 00 00	 call	 _byteswap_ushort
  0079d	48 8b 4c 24 30	 mov	 rcx, QWORD PTR rec$2[rsp]
  007a2	66 89 41 38	 mov	 WORD PTR [rcx+56], ax

; 4381 :             rec->psw.zeroword = SWAP32( rec->psw.zeroword );

  007a6	48 8b 44 24 30	 mov	 rax, QWORD PTR rec$2[rsp]
  007ab	8b 48 24	 mov	 ecx, DWORD PTR [rax+36]
  007ae	e8 00 00 00 00	 call	 _byteswap_ulong
  007b3	48 8b 4c 24 30	 mov	 rcx, QWORD PTR rec$2[rsp]
  007b8	89 41 24	 mov	 DWORD PTR [rcx+36], eax

; 4382 :             rec->psw.ia.D     = SWAP64( rec->psw.ia.D     );

  007bb	48 8b 44 24 30	 mov	 rax, QWORD PTR rec$2[rsp]
  007c0	48 8b 48 28	 mov	 rcx, QWORD PTR [rax+40]
  007c4	e8 00 00 00 00	 call	 _byteswap_uint64
  007c9	48 8b 4c 24 30	 mov	 rcx, QWORD PTR rec$2[rsp]
  007ce	48 89 41 28	 mov	 QWORD PTR [rcx+40], rax

; 4383 :             rec->psw.amask.D  = SWAP64( rec->psw.amask.D  );

  007d2	48 8b 44 24 30	 mov	 rax, QWORD PTR rec$2[rsp]
  007d7	48 8b 48 30	 mov	 rcx, QWORD PTR [rax+48]
  007db	e8 00 00 00 00	 call	 _byteswap_uint64
  007e0	48 8b 4c 24 30	 mov	 rcx, QWORD PTR rec$2[rsp]
  007e5	48 89 41 30	 mov	 QWORD PTR [rcx+48], rax

; 4384 : 
; 4385 :             rec->psw.amode64  = rec->amode64 ? 1 : 0;

  007e9	48 8b 44 24 30	 mov	 rax, QWORD PTR rec$2[rsp]
  007ee	0f b6 40 40	 movzx	 eax, BYTE PTR [rax+64]
  007f2	85 c0		 test	 eax, eax
  007f4	74 0d		 je	 SHORT $LN94@tf_swap_re
  007f6	c7 84 24 b0 00
	00 00 01 00 00
	00		 mov	 DWORD PTR tv310[rsp], 1
  00801	eb 0b		 jmp	 SHORT $LN95@tf_swap_re
$LN94@tf_swap_re:
  00803	c7 84 24 b0 00
	00 00 00 00 00
	00		 mov	 DWORD PTR tv310[rsp], 0
$LN95@tf_swap_re:
  0080e	8b 84 24 b0 00
	00 00		 mov	 eax, DWORD PTR tv310[rsp]
  00815	83 e0 01	 and	 eax, 1
  00818	48 8b 4c 24 30	 mov	 rcx, QWORD PTR rec$2[rsp]
  0081d	8b 49 20	 mov	 ecx, DWORD PTR [rcx+32]
  00820	83 e1 fe	 and	 ecx, -2			; fffffffeH
  00823	0b c8		 or	 ecx, eax
  00825	8b c1		 mov	 eax, ecx
  00827	48 8b 4c 24 30	 mov	 rcx, QWORD PTR rec$2[rsp]
  0082c	89 41 20	 mov	 DWORD PTR [rcx+32], eax

; 4386 :             rec->psw.amode    = rec->amode   ? 1 : 0;

  0082f	48 8b 44 24 30	 mov	 rax, QWORD PTR rec$2[rsp]
  00834	0f b6 40 41	 movzx	 eax, BYTE PTR [rax+65]
  00838	85 c0		 test	 eax, eax
  0083a	74 0d		 je	 SHORT $LN96@tf_swap_re
  0083c	c7 84 24 c4 00
	00 00 01 00 00
	00		 mov	 DWORD PTR tv319[rsp], 1
  00847	eb 0b		 jmp	 SHORT $LN97@tf_swap_re
$LN96@tf_swap_re:
  00849	c7 84 24 c4 00
	00 00 00 00 00
	00		 mov	 DWORD PTR tv319[rsp], 0
$LN97@tf_swap_re:
  00854	8b 84 24 c4 00
	00 00		 mov	 eax, DWORD PTR tv319[rsp]
  0085b	83 e0 01	 and	 eax, 1
  0085e	d1 e0		 shl	 eax, 1
  00860	48 8b 4c 24 30	 mov	 rcx, QWORD PTR rec$2[rsp]
  00865	8b 49 20	 mov	 ecx, DWORD PTR [rcx+32]
  00868	83 e1 fd	 and	 ecx, -3			; fffffffdH
  0086b	0b c8		 or	 ecx, eax
  0086d	8b c1		 mov	 eax, ecx
  0086f	48 8b 4c 24 30	 mov	 rcx, QWORD PTR rec$2[rsp]
  00874	89 41 20	 mov	 DWORD PTR [rcx+32], eax

; 4387 :             rec->psw.zeroilc  = rec->zeroilc ? 1 : 0;

  00877	48 8b 44 24 30	 mov	 rax, QWORD PTR rec$2[rsp]
  0087c	0f b6 40 42	 movzx	 eax, BYTE PTR [rax+66]
  00880	85 c0		 test	 eax, eax
  00882	74 0d		 je	 SHORT $LN98@tf_swap_re
  00884	c7 84 24 b4 00
	00 00 01 00 00
	00		 mov	 DWORD PTR tv329[rsp], 1
  0088f	eb 0b		 jmp	 SHORT $LN99@tf_swap_re
$LN98@tf_swap_re:
  00891	c7 84 24 b4 00
	00 00 00 00 00
	00		 mov	 DWORD PTR tv329[rsp], 0
$LN99@tf_swap_re:
  0089c	8b 84 24 b4 00
	00 00		 mov	 eax, DWORD PTR tv329[rsp]
  008a3	83 e0 01	 and	 eax, 1
  008a6	c1 e0 02	 shl	 eax, 2
  008a9	48 8b 4c 24 30	 mov	 rcx, QWORD PTR rec$2[rsp]
  008ae	8b 49 20	 mov	 ecx, DWORD PTR [rcx+32]
  008b1	83 e1 fb	 and	 ecx, -5			; fffffffbH
  008b4	0b c8		 or	 ecx, eax
  008b6	8b c1		 mov	 eax, ecx
  008b8	48 8b 4c 24 30	 mov	 rcx, QWORD PTR rec$2[rsp]
  008bd	89 41 20	 mov	 DWORD PTR [rcx+32], eax

; 4388 :         }
; 4389 :         break;

  008c0	e9 7d 08 00 00	 jmp	 $LN2@tf_swap_re
$LN45@tf_swap_re:

; 4390 : 
; 4391 :         case  801:
; 4392 :         {
; 4393 :             TF00801* rec = (TF00801*) hdr;

  008c5	48 8b 84 24 c0
	01 00 00	 mov	 rax, QWORD PTR hdr$[rsp]
  008cd	48 89 84 24 80
	00 00 00	 mov	 QWORD PTR rec$14[rsp], rax

; 4394 :             rec->pcode  = SWAP16( rec->pcode );

  008d5	48 8b 84 24 80
	00 00 00	 mov	 rax, QWORD PTR rec$14[rsp]
  008dd	0f b7 48 18	 movzx	 ecx, WORD PTR [rax+24]
  008e1	e8 00 00 00 00	 call	 _byteswap_ushort
  008e6	48 8b 8c 24 80
	00 00 00	 mov	 rcx, QWORD PTR rec$14[rsp]
  008ee	66 89 41 18	 mov	 WORD PTR [rcx+24], ax

; 4395 :             rec->dxc    = SWAP32( rec->dxc   );

  008f2	48 8b 84 24 80
	00 00 00	 mov	 rax, QWORD PTR rec$14[rsp]
  008fa	8b 48 1c	 mov	 ecx, DWORD PTR [rax+28]
  008fd	e8 00 00 00 00	 call	 _byteswap_ulong
  00902	48 8b 8c 24 80
	00 00 00	 mov	 rcx, QWORD PTR rec$14[rsp]
  0090a	89 41 1c	 mov	 DWORD PTR [rcx+28], eax

; 4396 :             rec->why    = SWAP32( rec->why   );

  0090d	48 8b 84 24 80
	00 00 00	 mov	 rax, QWORD PTR rec$14[rsp]
  00915	8b 48 20	 mov	 ecx, DWORD PTR [rax+32]
  00918	e8 00 00 00 00	 call	 _byteswap_ulong
  0091d	48 8b 8c 24 80
	00 00 00	 mov	 rcx, QWORD PTR rec$14[rsp]
  00925	89 41 20	 mov	 DWORD PTR [rcx+32], eax

; 4397 :         }
; 4398 :         break;

  00928	e9 15 08 00 00	 jmp	 $LN2@tf_swap_re
$LN46@tf_swap_re:

; 4399 : 
; 4400 :         case  802:
; 4401 :         {
; 4402 :             TF00802* rec = (TF00802*) hdr;

  0092d	48 8b 84 24 c0
	01 00 00	 mov	 rax, QWORD PTR hdr$[rsp]
  00935	48 89 84 24 88
	00 00 00	 mov	 QWORD PTR rec$15[rsp], rax

; 4403 :             rec->perc   = SWAP16( rec->perc  );

  0093d	48 8b 84 24 88
	00 00 00	 mov	 rax, QWORD PTR rec$15[rsp]
  00945	0f b7 48 24	 movzx	 ecx, WORD PTR [rax+36]
  00949	e8 00 00 00 00	 call	 _byteswap_ushort
  0094e	48 8b 8c 24 88
	00 00 00	 mov	 rcx, QWORD PTR rec$15[rsp]
  00956	66 89 41 24	 mov	 WORD PTR [rcx+36], ax

; 4404 :             rec->pcode  = SWAP32( rec->pcode );

  0095a	48 8b 84 24 88
	00 00 00	 mov	 rax, QWORD PTR rec$15[rsp]
  00962	8b 48 20	 mov	 ecx, DWORD PTR [rax+32]
  00965	e8 00 00 00 00	 call	 _byteswap_ulong
  0096a	48 8b 8c 24 88
	00 00 00	 mov	 rcx, QWORD PTR rec$15[rsp]
  00972	89 41 20	 mov	 DWORD PTR [rcx+32], eax

; 4405 :             rec->ia     = SWAP64( rec->ia    );

  00975	48 8b 84 24 88
	00 00 00	 mov	 rax, QWORD PTR rec$15[rsp]
  0097d	48 8b 48 18	 mov	 rcx, QWORD PTR [rax+24]
  00981	e8 00 00 00 00	 call	 _byteswap_uint64
  00986	48 8b 8c 24 88
	00 00 00	 mov	 rcx, QWORD PTR rec$15[rsp]
  0098e	48 89 41 18	 mov	 QWORD PTR [rcx+24], rax

; 4406 :         }
; 4407 :         break;

  00992	e9 ab 07 00 00	 jmp	 $LN2@tf_swap_re
$LN47@tf_swap_re:

; 4408 : 
; 4409 :         case  803:
; 4410 :         {
; 4411 :             // (nothing to swap!)
; 4412 :         }
; 4413 :         break;

  00997	e9 a6 07 00 00	 jmp	 $LN2@tf_swap_re
$LN48@tf_swap_re:

; 4414 : 
; 4415 :         case  804:
; 4416 :         {
; 4417 :             TF00804* rec = (TF00804*) hdr;

  0099c	48 8b 84 24 c0
	01 00 00	 mov	 rax, QWORD PTR hdr$[rsp]
  009a4	48 89 84 24 60
	01 00 00	 mov	 QWORD PTR rec$39[rsp], rax

; 4418 :             rec->ioid    = SWAP16( rec->ioid );

  009ac	48 8b 84 24 60
	01 00 00	 mov	 rax, QWORD PTR rec$39[rsp]
  009b4	0f b7 48 20	 movzx	 ecx, WORD PTR [rax+32]
  009b8	e8 00 00 00 00	 call	 _byteswap_ushort
  009bd	48 8b 8c 24 60
	01 00 00	 mov	 rcx, QWORD PTR rec$39[rsp]
  009c5	66 89 41 20	 mov	 WORD PTR [rcx+32], ax

; 4419 :         }
; 4420 :         break;

  009c9	e9 74 07 00 00	 jmp	 $LN2@tf_swap_re
$LN49@tf_swap_re:

; 4421 : 
; 4422 :         case  806:
; 4423 :         {
; 4424 :             TF00806* rec = (TF00806*) hdr;

  009ce	48 8b 84 24 c0
	01 00 00	 mov	 rax, QWORD PTR hdr$[rsp]
  009d6	48 89 84 24 90
	00 00 00	 mov	 QWORD PTR rec$16[rsp], rax

; 4425 :             rec->ioid    = SWAP32( rec->ioid    );

  009de	48 8b 84 24 90
	00 00 00	 mov	 rax, QWORD PTR rec$16[rsp]
  009e6	8b 48 18	 mov	 ecx, DWORD PTR [rax+24]
  009e9	e8 00 00 00 00	 call	 _byteswap_ulong
  009ee	48 8b 8c 24 90
	00 00 00	 mov	 rcx, QWORD PTR rec$16[rsp]
  009f6	89 41 18	 mov	 DWORD PTR [rcx+24], eax

; 4426 :             rec->ioparm  = SWAP32( rec->ioparm  );

  009f9	48 8b 84 24 90
	00 00 00	 mov	 rax, QWORD PTR rec$16[rsp]
  00a01	8b 48 1c	 mov	 ecx, DWORD PTR [rax+28]
  00a04	e8 00 00 00 00	 call	 _byteswap_ulong
  00a09	48 8b 8c 24 90
	00 00 00	 mov	 rcx, QWORD PTR rec$16[rsp]
  00a11	89 41 1c	 mov	 DWORD PTR [rcx+28], eax

; 4427 :             rec->iointid = SWAP32( rec->iointid );

  00a14	48 8b 84 24 90
	00 00 00	 mov	 rax, QWORD PTR rec$16[rsp]
  00a1c	8b 48 20	 mov	 ecx, DWORD PTR [rax+32]
  00a1f	e8 00 00 00 00	 call	 _byteswap_ulong
  00a24	48 8b 8c 24 90
	00 00 00	 mov	 rcx, QWORD PTR rec$16[rsp]
  00a2c	89 41 20	 mov	 DWORD PTR [rcx+32], eax

; 4428 :         }
; 4429 :         break;

  00a2f	e9 0e 07 00 00	 jmp	 $LN2@tf_swap_re
$LN50@tf_swap_re:

; 4430 : 
; 4431 :         case  807:
; 4432 :         {
; 4433 :             TF00807* rec = (TF00807*) hdr;

  00a34	48 8b 84 24 c0
	01 00 00	 mov	 rax, QWORD PTR hdr$[rsp]
  00a3c	48 89 84 24 98
	00 00 00	 mov	 QWORD PTR rec$17[rsp], rax

; 4434 :             rec->xdmg    = SWAP32( rec->xdmg );

  00a44	48 8b 84 24 98
	00 00 00	 mov	 rax, QWORD PTR rec$17[rsp]
  00a4c	8b 48 28	 mov	 ecx, DWORD PTR [rax+40]
  00a4f	e8 00 00 00 00	 call	 _byteswap_ulong
  00a54	48 8b 8c 24 98
	00 00 00	 mov	 rcx, QWORD PTR rec$17[rsp]
  00a5c	89 41 28	 mov	 DWORD PTR [rcx+40], eax

; 4435 :             rec->mcic    = SWAP64( rec->mcic );

  00a5f	48 8b 84 24 98
	00 00 00	 mov	 rax, QWORD PTR rec$17[rsp]
  00a67	48 8b 48 18	 mov	 rcx, QWORD PTR [rax+24]
  00a6b	e8 00 00 00 00	 call	 _byteswap_uint64
  00a70	48 8b 8c 24 98
	00 00 00	 mov	 rcx, QWORD PTR rec$17[rsp]
  00a78	48 89 41 18	 mov	 QWORD PTR [rcx+24], rax

; 4436 :             rec->fsta    = SWAP64( rec->fsta );

  00a7c	48 8b 84 24 98
	00 00 00	 mov	 rax, QWORD PTR rec$17[rsp]
  00a84	48 8b 48 20	 mov	 rcx, QWORD PTR [rax+32]
  00a88	e8 00 00 00 00	 call	 _byteswap_uint64
  00a8d	48 8b 8c 24 98
	00 00 00	 mov	 rcx, QWORD PTR rec$17[rsp]
  00a95	48 89 41 20	 mov	 QWORD PTR [rcx+32], rax

; 4437 :         }
; 4438 :         break;

  00a99	e9 a4 06 00 00	 jmp	 $LN2@tf_swap_re
$LN51@tf_swap_re:

; 4439 : 
; 4440 :         case  808:
; 4441 :         {
; 4442 :             // (nothing to swap!)
; 4443 :         }
; 4444 :         break;

  00a9e	e9 9f 06 00 00	 jmp	 $LN2@tf_swap_re
$LN52@tf_swap_re:

; 4445 : 
; 4446 :         case  809:
; 4447 :         {
; 4448 :             // (nothing to swap!)
; 4449 :         }
; 4450 :         break;

  00aa3	e9 9a 06 00 00	 jmp	 $LN2@tf_swap_re
$LN53@tf_swap_re:

; 4451 : 
; 4452 :         case  811:
; 4453 :         {
; 4454 :             // (nothing to swap!)
; 4455 :         }
; 4456 :         break;

  00aa8	e9 95 06 00 00	 jmp	 $LN2@tf_swap_re
$LN54@tf_swap_re:

; 4457 : 
; 4458 :         case  812:
; 4459 :         {
; 4460 :             // (nothing to swap!)
; 4461 :         }
; 4462 :         break;

  00aad	e9 90 06 00 00	 jmp	 $LN2@tf_swap_re
$LN55@tf_swap_re:

; 4463 : 
; 4464 :         case  814:
; 4465 :         {
; 4466 :             TF00814* rec = (TF00814*) hdr;

  00ab2	48 8b 84 24 c0
	01 00 00	 mov	 rax, QWORD PTR hdr$[rsp]
  00aba	48 89 84 24 a0
	00 00 00	 mov	 QWORD PTR rec$18[rsp], rax

; 4467 :             rec->cpad    = SWAP16( rec->cpad   );

  00ac2	48 8b 84 24 a0
	00 00 00	 mov	 rax, QWORD PTR rec$18[rsp]
  00aca	0f b7 48 18	 movzx	 ecx, WORD PTR [rax+24]
  00ace	e8 00 00 00 00	 call	 _byteswap_ushort
  00ad3	48 8b 8c 24 a0
	00 00 00	 mov	 rcx, QWORD PTR rec$18[rsp]
  00adb	66 89 41 18	 mov	 WORD PTR [rcx+24], ax

; 4468 :             rec->status  = SWAP32( rec->status );

  00adf	48 8b 84 24 a0
	00 00 00	 mov	 rax, QWORD PTR rec$18[rsp]
  00ae7	8b 48 1c	 mov	 ecx, DWORD PTR [rax+28]
  00aea	e8 00 00 00 00	 call	 _byteswap_ulong
  00aef	48 8b 8c 24 a0
	00 00 00	 mov	 rcx, QWORD PTR rec$18[rsp]
  00af7	89 41 1c	 mov	 DWORD PTR [rcx+28], eax

; 4469 :             rec->parm    = SWAP64( rec->parm   );

  00afa	48 8b 84 24 a0
	00 00 00	 mov	 rax, QWORD PTR rec$18[rsp]
  00b02	48 8b 48 20	 mov	 rcx, QWORD PTR [rax+32]
  00b06	e8 00 00 00 00	 call	 _byteswap_uint64
  00b0b	48 8b 8c 24 a0
	00 00 00	 mov	 rcx, QWORD PTR rec$18[rsp]
  00b13	48 89 41 20	 mov	 QWORD PTR [rcx+32], rax

; 4470 :         }
; 4471 :         break;

  00b17	e9 26 06 00 00	 jmp	 $LN2@tf_swap_re
$LN56@tf_swap_re:

; 4472 : 
; 4473 :         case  840:
; 4474 :         {
; 4475 :             TF00840* rec   = (TF00840*) hdr;

  00b1c	48 8b 84 24 c0
	01 00 00	 mov	 rax, QWORD PTR hdr$[rsp]
  00b24	48 89 84 24 08
	01 00 00	 mov	 QWORD PTR rec$28[rsp], rax

; 4476 :             rec->icode     = SWAP16( rec->icode     );

  00b2c	48 8b 84 24 08
	01 00 00	 mov	 rax, QWORD PTR rec$28[rsp]
  00b34	0f b7 48 20	 movzx	 ecx, WORD PTR [rax+32]
  00b38	e8 00 00 00 00	 call	 _byteswap_ushort
  00b3d	48 8b 8c 24 08
	01 00 00	 mov	 rcx, QWORD PTR rec$28[rsp]
  00b45	66 89 41 20	 mov	 WORD PTR [rcx+32], ax

; 4477 :             rec->cpu_timer = SWAP64( rec->cpu_timer );

  00b49	48 8b 84 24 08
	01 00 00	 mov	 rax, QWORD PTR rec$28[rsp]
  00b51	48 8b 48 18	 mov	 rcx, QWORD PTR [rax+24]
  00b55	e8 00 00 00 00	 call	 _byteswap_uint64
  00b5a	48 8b 8c 24 08
	01 00 00	 mov	 rcx, QWORD PTR rec$28[rsp]
  00b62	48 89 41 18	 mov	 QWORD PTR [rcx+24], rax

; 4478 :         }
; 4479 :         break;

  00b66	e9 d7 05 00 00	 jmp	 $LN2@tf_swap_re
$LN57@tf_swap_re:

; 4480 : 
; 4481 :         case  844:
; 4482 :         {
; 4483 :             TF00844* rec  = (TF00844*) hdr;

  00b6b	48 8b 84 24 c0
	01 00 00	 mov	 rax, QWORD PTR hdr$[rsp]
  00b73	48 89 84 24 10
	01 00 00	 mov	 QWORD PTR rec$29[rsp], rax

; 4484 :             rec->servcode = SWAP16( rec->servcode );

  00b7b	48 8b 84 24 10
	01 00 00	 mov	 rax, QWORD PTR rec$29[rsp]
  00b83	0f b7 48 20	 movzx	 ecx, WORD PTR [rax+32]
  00b87	e8 00 00 00 00	 call	 _byteswap_ushort
  00b8c	48 8b 8c 24 10
	01 00 00	 mov	 rcx, QWORD PTR rec$29[rsp]
  00b94	66 89 41 20	 mov	 WORD PTR [rcx+32], ax

; 4485 :             rec->bioparm  = SWAP64( rec->bioparm  );

  00b98	48 8b 84 24 10
	01 00 00	 mov	 rax, QWORD PTR rec$29[rsp]
  00ba0	48 8b 48 18	 mov	 rcx, QWORD PTR [rax+24]
  00ba4	e8 00 00 00 00	 call	 _byteswap_uint64
  00ba9	48 8b 8c 24 10
	01 00 00	 mov	 rcx, QWORD PTR rec$29[rsp]
  00bb1	48 89 41 18	 mov	 QWORD PTR [rcx+24], rax

; 4486 :         }
; 4487 :         break;

  00bb5	e9 88 05 00 00	 jmp	 $LN2@tf_swap_re
$LN58@tf_swap_re:

; 4488 : 
; 4489 :         case  845:
; 4490 :         {
; 4491 :             TF00845* rec = (TF00845*) hdr;

  00bba	48 8b 84 24 c0
	01 00 00	 mov	 rax, QWORD PTR hdr$[rsp]
  00bc2	48 89 84 24 68
	01 00 00	 mov	 QWORD PTR rec$40[rsp], rax

; 4492 :             rec->bioparm = SWAP64( rec->bioparm );

  00bca	48 8b 84 24 68
	01 00 00	 mov	 rax, QWORD PTR rec$40[rsp]
  00bd2	48 8b 48 18	 mov	 rcx, QWORD PTR [rax+24]
  00bd6	e8 00 00 00 00	 call	 _byteswap_uint64
  00bdb	48 8b 8c 24 68
	01 00 00	 mov	 rcx, QWORD PTR rec$40[rsp]
  00be3	48 89 41 18	 mov	 QWORD PTR [rcx+24], rax

; 4493 :         }
; 4494 :         break;

  00be7	e9 56 05 00 00	 jmp	 $LN2@tf_swap_re
$LN59@tf_swap_re:

; 4495 : 
; 4496 :         case  846:
; 4497 :         {
; 4498 :             TF00846* rec  = (TF00846*) hdr;

  00bec	48 8b 84 24 c0
	01 00 00	 mov	 rax, QWORD PTR hdr$[rsp]
  00bf4	48 89 84 24 70
	01 00 00	 mov	 QWORD PTR rec$41[rsp], rax

; 4499 :             rec->servparm = SWAP32( rec->servparm );

  00bfc	48 8b 84 24 70
	01 00 00	 mov	 rax, QWORD PTR rec$41[rsp]
  00c04	8b 48 18	 mov	 ecx, DWORD PTR [rax+24]
  00c07	e8 00 00 00 00	 call	 _byteswap_ulong
  00c0c	48 8b 8c 24 70
	01 00 00	 mov	 rcx, QWORD PTR rec$41[rsp]
  00c14	89 41 18	 mov	 DWORD PTR [rcx+24], eax

; 4500 :         }
; 4501 :         break;

  00c17	e9 26 05 00 00	 jmp	 $LN2@tf_swap_re
$LN60@tf_swap_re:

; 4502 : 
; 4503 :         case 1300:
; 4504 :         {
; 4505 :             // (nothing to swap!)
; 4506 :         }
; 4507 :         break;

  00c1c	e9 21 05 00 00	 jmp	 $LN2@tf_swap_re
$LN61@tf_swap_re:

; 4508 : 
; 4509 :         case 1301:
; 4510 :         {
; 4511 :             TF01301* rec = (TF01301*) hdr;

  00c21	48 8b 84 24 c0
	01 00 00	 mov	 rax, QWORD PTR hdr$[rsp]
  00c29	48 89 84 24 18
	01 00 00	 mov	 QWORD PTR rec$30[rsp], rax

; 4512 :             rec->count   = SWAP16( rec->count );

  00c31	48 8b 84 24 18
	01 00 00	 mov	 rax, QWORD PTR rec$30[rsp]
  00c39	0f b7 48 20	 movzx	 ecx, WORD PTR [rax+32]
  00c3d	e8 00 00 00 00	 call	 _byteswap_ushort
  00c42	48 8b 8c 24 18
	01 00 00	 mov	 rcx, QWORD PTR rec$30[rsp]
  00c4a	66 89 41 20	 mov	 WORD PTR [rcx+32], ax

; 4513 :             rec->addr    = SWAP64( rec->addr  );

  00c4e	48 8b 84 24 18
	01 00 00	 mov	 rax, QWORD PTR rec$30[rsp]
  00c56	48 8b 48 18	 mov	 rcx, QWORD PTR [rax+24]
  00c5a	e8 00 00 00 00	 call	 _byteswap_uint64
  00c5f	48 8b 8c 24 18
	01 00 00	 mov	 rcx, QWORD PTR rec$30[rsp]
  00c67	48 89 41 18	 mov	 QWORD PTR [rcx+24], rax

; 4514 :         }
; 4515 :         break;

  00c6b	e9 d2 04 00 00	 jmp	 $LN2@tf_swap_re
$LN62@tf_swap_re:

; 4516 : 
; 4517 :         case 1304:
; 4518 :         {
; 4519 :             // (nothing to swap!)
; 4520 :         }
; 4521 :         break;

  00c70	e9 cd 04 00 00	 jmp	 $LN2@tf_swap_re
$LN63@tf_swap_re:

; 4522 : 
; 4523 :         case 1305:
; 4524 :         {
; 4525 :             // (nothing to swap!)
; 4526 :         }
; 4527 :         break;

  00c75	e9 c8 04 00 00	 jmp	 $LN2@tf_swap_re
$LN64@tf_swap_re:

; 4528 : 
; 4529 :         case 1306:
; 4530 :         {
; 4531 :             // (nothing to swap!)
; 4532 :         }
; 4533 :         break;

  00c7a	e9 c3 04 00 00	 jmp	 $LN2@tf_swap_re
$LN65@tf_swap_re:

; 4534 : 
; 4535 :         case 1307:
; 4536 :         {
; 4537 :             // (nothing to swap!)
; 4538 :         }
; 4539 :         break;

  00c7f	e9 be 04 00 00	 jmp	 $LN2@tf_swap_re
$LN66@tf_swap_re:

; 4540 : 
; 4541 :         case 1308:
; 4542 :         {
; 4543 :             // (nothing to swap!)
; 4544 :         }
; 4545 :         break;

  00c84	e9 b9 04 00 00	 jmp	 $LN2@tf_swap_re
$LN67@tf_swap_re:

; 4546 : 
; 4547 :         case 1309:
; 4548 :         {
; 4549 :             // (nothing to swap!)
; 4550 :         }
; 4551 :         break;

  00c89	e9 b4 04 00 00	 jmp	 $LN2@tf_swap_re
$LN68@tf_swap_re:

; 4552 : 
; 4553 :         case 1310:
; 4554 :         {
; 4555 :             // (nothing to swap!)
; 4556 :         }
; 4557 :         break;

  00c8e	e9 af 04 00 00	 jmp	 $LN2@tf_swap_re
$LN69@tf_swap_re:

; 4558 : 
; 4559 :         case 1311:
; 4560 :         {
; 4561 :             // (nothing to swap!)
; 4562 :         }
; 4563 :         break;

  00c93	e9 aa 04 00 00	 jmp	 $LN2@tf_swap_re
$LN70@tf_swap_re:

; 4564 : 
; 4565 :         case 1312:
; 4566 :         {
; 4567 :             TF01312* rec  = (TF01312*) hdr;

  00c98	48 8b 84 24 c0
	01 00 00	 mov	 rax, QWORD PTR hdr$[rsp]
  00ca0	48 89 84 24 78
	01 00 00	 mov	 QWORD PTR rec$42[rsp], rax

; 4568 :             rec->residual = SWAP32( rec->residual );

  00ca8	48 8b 84 24 78
	01 00 00	 mov	 rax, QWORD PTR rec$42[rsp]
  00cb0	8b 48 18	 mov	 ecx, DWORD PTR [rax+24]
  00cb3	e8 00 00 00 00	 call	 _byteswap_ulong
  00cb8	48 8b 8c 24 78
	01 00 00	 mov	 rcx, QWORD PTR rec$42[rsp]
  00cc0	89 41 18	 mov	 DWORD PTR [rcx+24], eax

; 4569 :         }
; 4570 :         break;

  00cc3	e9 7a 04 00 00	 jmp	 $LN2@tf_swap_re
$LN71@tf_swap_re:

; 4571 : 
; 4572 :         case 1313:
; 4573 :         {
; 4574 :             // (nothing to swap!)
; 4575 :         }
; 4576 :         break;

  00cc8	e9 75 04 00 00	 jmp	 $LN2@tf_swap_re
$LN72@tf_swap_re:

; 4577 : 
; 4578 :         case 1315:
; 4579 :         {
; 4580 :             TF01315* rec = (TF01315*) hdr;

  00ccd	48 8b 84 24 c0
	01 00 00	 mov	 rax, QWORD PTR hdr$[rsp]
  00cd5	48 89 84 24 20
	01 00 00	 mov	 QWORD PTR rec$31[rsp], rax

; 4581 :             rec->count   = SWAP16( rec->count );

  00cdd	48 8b 84 24 20
	01 00 00	 mov	 rax, QWORD PTR rec$31[rsp]
  00ce5	0f b7 48 1c	 movzx	 ecx, WORD PTR [rax+28]
  00ce9	e8 00 00 00 00	 call	 _byteswap_ushort
  00cee	48 8b 8c 24 20
	01 00 00	 mov	 rcx, QWORD PTR rec$31[rsp]
  00cf6	66 89 41 1c	 mov	 WORD PTR [rcx+28], ax

; 4582 :             rec->addr    = SWAP32( rec->addr  );

  00cfa	48 8b 84 24 20
	01 00 00	 mov	 rax, QWORD PTR rec$31[rsp]
  00d02	8b 48 18	 mov	 ecx, DWORD PTR [rax+24]
  00d05	e8 00 00 00 00	 call	 _byteswap_ulong
  00d0a	48 8b 8c 24 20
	01 00 00	 mov	 rcx, QWORD PTR rec$31[rsp]
  00d12	89 41 18	 mov	 DWORD PTR [rcx+24], eax

; 4583 :         }
; 4584 :         break;

  00d15	e9 28 04 00 00	 jmp	 $LN2@tf_swap_re
$LN73@tf_swap_re:

; 4585 : 
; 4586 :         case 1316:
; 4587 :         {
; 4588 :             // (nothing to swap!)
; 4589 :         }
; 4590 :         break;

  00d1a	e9 23 04 00 00	 jmp	 $LN2@tf_swap_re
$LN74@tf_swap_re:

; 4591 : 
; 4592 :         case 1317:
; 4593 :         {
; 4594 :             // (nothing to swap!)
; 4595 :         }
; 4596 :         break;

  00d1f	e9 1e 04 00 00	 jmp	 $LN2@tf_swap_re
$LN75@tf_swap_re:

; 4597 : 
; 4598 :         case 1318:
; 4599 :         {
; 4600 :             // (nothing to swap!)
; 4601 :         }
; 4602 :         break;

  00d24	e9 19 04 00 00	 jmp	 $LN2@tf_swap_re
$LN76@tf_swap_re:

; 4603 : 
; 4604 :         case 1320:
; 4605 :         {
; 4606 :             // (nothing to swap!)
; 4607 :         }
; 4608 :         break;

  00d29	e9 14 04 00 00	 jmp	 $LN2@tf_swap_re
$LN77@tf_swap_re:

; 4609 : 
; 4610 :         case 1321:
; 4611 :         {
; 4612 :             // (nothing to swap!)
; 4613 :         }
; 4614 :         break;

  00d2e	e9 0f 04 00 00	 jmp	 $LN2@tf_swap_re
$LN78@tf_swap_re:

; 4615 : 
; 4616 :         case 1329:
; 4617 :         {
; 4618 :             // (nothing to swap!)
; 4619 :         }
; 4620 :         break;

  00d33	e9 0a 04 00 00	 jmp	 $LN2@tf_swap_re
$LN79@tf_swap_re:

; 4621 : 
; 4622 :         case 1330:
; 4623 :         {
; 4624 :             // (nothing to swap!)
; 4625 :         }
; 4626 :         break;

  00d38	e9 05 04 00 00	 jmp	 $LN2@tf_swap_re
$LN80@tf_swap_re:

; 4627 : 
; 4628 :         case 1331:
; 4629 :         {
; 4630 :             // (nothing to swap!)
; 4631 :         }
; 4632 :         break;

  00d3d	e9 00 04 00 00	 jmp	 $LN2@tf_swap_re
$LN81@tf_swap_re:

; 4633 : 
; 4634 :         case 1332:
; 4635 :         {
; 4636 :             // (nothing to swap!)
; 4637 :         }
; 4638 :         break;

  00d42	e9 fb 03 00 00	 jmp	 $LN2@tf_swap_re
$LN82@tf_swap_re:

; 4639 : 
; 4640 :         case 1333:
; 4641 :         {
; 4642 :             // (nothing to swap!)
; 4643 :         }
; 4644 :         break;

  00d47	e9 f6 03 00 00	 jmp	 $LN2@tf_swap_re
$LN83@tf_swap_re:

; 4645 : 
; 4646 :         case 1334:
; 4647 :         {
; 4648 :             // (nothing to swap!)
; 4649 :         }
; 4650 :         break;

  00d4c	e9 f1 03 00 00	 jmp	 $LN2@tf_swap_re
$LN84@tf_swap_re:

; 4651 : 
; 4652 :         case 1336:
; 4653 :         {
; 4654 :             // (nothing to swap!)
; 4655 :         }
; 4656 :         break;

  00d51	e9 ec 03 00 00	 jmp	 $LN2@tf_swap_re
$LN85@tf_swap_re:

; 4657 : 
; 4658 :         case 2269:
; 4659 :         {
; 4660 :             TF02269* rec = (TF02269*) hdr;

  00d56	48 8b 84 24 c0
	01 00 00	 mov	 rax, QWORD PTR hdr$[rsp]
  00d5e	48 89 84 24 80
	01 00 00	 mov	 QWORD PTR rec$43[rsp], rax

; 4661 :             int  i;
; 4662 :             for (i=0; i < 16; ++i)

  00d66	c7 44 24 48 00
	00 00 00	 mov	 DWORD PTR i$5[rsp], 0
  00d6e	eb 0a		 jmp	 SHORT $LN6@tf_swap_re
$LN4@tf_swap_re:
  00d70	8b 44 24 48	 mov	 eax, DWORD PTR i$5[rsp]
  00d74	ff c0		 inc	 eax
  00d76	89 44 24 48	 mov	 DWORD PTR i$5[rsp], eax
$LN6@tf_swap_re:
  00d7a	83 7c 24 48 10	 cmp	 DWORD PTR i$5[rsp], 16
  00d7f	7d 2b		 jge	 SHORT $LN5@tf_swap_re

; 4663 :                 rec->gr[i].D   = SWAP64( rec->gr[i].D );

  00d81	48 63 44 24 48	 movsxd	 rax, DWORD PTR i$5[rsp]
  00d86	48 8b 8c 24 80
	01 00 00	 mov	 rcx, QWORD PTR rec$43[rsp]
  00d8e	48 8b 4c c1 20	 mov	 rcx, QWORD PTR [rcx+rax*8+32]
  00d93	e8 00 00 00 00	 call	 _byteswap_uint64
  00d98	48 63 4c 24 48	 movsxd	 rcx, DWORD PTR i$5[rsp]
  00d9d	48 8b 94 24 80
	01 00 00	 mov	 rdx, QWORD PTR rec$43[rsp]
  00da5	48 89 44 ca 20	 mov	 QWORD PTR [rdx+rcx*8+32], rax
  00daa	eb c4		 jmp	 SHORT $LN4@tf_swap_re
$LN5@tf_swap_re:

; 4664 :         }
; 4665 :         break;

  00dac	e9 91 03 00 00	 jmp	 $LN2@tf_swap_re
$LN86@tf_swap_re:

; 4666 : 
; 4667 :         case 2270:
; 4668 :         {
; 4669 :             TF02270* rec = (TF02270*) hdr;

  00db1	48 8b 84 24 c0
	01 00 00	 mov	 rax, QWORD PTR hdr$[rsp]
  00db9	48 89 84 24 88
	01 00 00	 mov	 QWORD PTR rec$44[rsp], rax

; 4670 :             int  i;
; 4671 :             for (i=0; i < 32; ++i)

  00dc1	c7 44 24 4c 00
	00 00 00	 mov	 DWORD PTR i$6[rsp], 0
  00dc9	eb 0a		 jmp	 SHORT $LN9@tf_swap_re
$LN7@tf_swap_re:
  00dcb	8b 44 24 4c	 mov	 eax, DWORD PTR i$6[rsp]
  00dcf	ff c0		 inc	 eax
  00dd1	89 44 24 4c	 mov	 DWORD PTR i$6[rsp], eax
$LN9@tf_swap_re:
  00dd5	83 7c 24 4c 20	 cmp	 DWORD PTR i$6[rsp], 32	; 00000020H
  00dda	7d 29		 jge	 SHORT $LN8@tf_swap_re

; 4672 :                 rec->fpr[i]   = SWAP32( rec->fpr[i] );

  00ddc	48 63 44 24 4c	 movsxd	 rax, DWORD PTR i$6[rsp]
  00de1	48 8b 8c 24 88
	01 00 00	 mov	 rcx, QWORD PTR rec$44[rsp]
  00de9	8b 4c 81 18	 mov	 ecx, DWORD PTR [rcx+rax*4+24]
  00ded	e8 00 00 00 00	 call	 _byteswap_ulong
  00df2	48 63 4c 24 4c	 movsxd	 rcx, DWORD PTR i$6[rsp]
  00df7	48 8b 94 24 88
	01 00 00	 mov	 rdx, QWORD PTR rec$44[rsp]
  00dff	89 44 8a 18	 mov	 DWORD PTR [rdx+rcx*4+24], eax
  00e03	eb c6		 jmp	 SHORT $LN7@tf_swap_re
$LN8@tf_swap_re:

; 4673 :         }
; 4674 :         break;

  00e05	e9 38 03 00 00	 jmp	 $LN2@tf_swap_re
$LN87@tf_swap_re:

; 4675 : 
; 4676 :         case 2271:
; 4677 :         {
; 4678 :             TF02271* rec = (TF02271*) hdr;

  00e0a	48 8b 84 24 c0
	01 00 00	 mov	 rax, QWORD PTR hdr$[rsp]
  00e12	48 89 84 24 90
	01 00 00	 mov	 QWORD PTR rec$45[rsp], rax

; 4679 :             int  i;
; 4680 :             for (i=0; i < 16; ++i)

  00e1a	c7 44 24 50 00
	00 00 00	 mov	 DWORD PTR i$7[rsp], 0
  00e22	eb 0a		 jmp	 SHORT $LN12@tf_swap_re
$LN10@tf_swap_re:
  00e24	8b 44 24 50	 mov	 eax, DWORD PTR i$7[rsp]
  00e28	ff c0		 inc	 eax
  00e2a	89 44 24 50	 mov	 DWORD PTR i$7[rsp], eax
$LN12@tf_swap_re:
  00e2e	83 7c 24 50 10	 cmp	 DWORD PTR i$7[rsp], 16
  00e33	7d 2b		 jge	 SHORT $LN11@tf_swap_re

; 4681 :                 rec->cr[i].D   = SWAP64( rec->cr[i].D );

  00e35	48 63 44 24 50	 movsxd	 rax, DWORD PTR i$7[rsp]
  00e3a	48 8b 8c 24 90
	01 00 00	 mov	 rcx, QWORD PTR rec$45[rsp]
  00e42	48 8b 4c c1 18	 mov	 rcx, QWORD PTR [rcx+rax*8+24]
  00e47	e8 00 00 00 00	 call	 _byteswap_uint64
  00e4c	48 63 4c 24 50	 movsxd	 rcx, DWORD PTR i$7[rsp]
  00e51	48 8b 94 24 90
	01 00 00	 mov	 rdx, QWORD PTR rec$45[rsp]
  00e59	48 89 44 ca 18	 mov	 QWORD PTR [rdx+rcx*8+24], rax
  00e5e	eb c4		 jmp	 SHORT $LN10@tf_swap_re
$LN11@tf_swap_re:

; 4682 :         }
; 4683 :         break;

  00e60	e9 dd 02 00 00	 jmp	 $LN2@tf_swap_re
$LN88@tf_swap_re:

; 4684 : 
; 4685 :         case 2272:
; 4686 :         {
; 4687 :             TF02272* rec = (TF02272*) hdr;

  00e65	48 8b 84 24 c0
	01 00 00	 mov	 rax, QWORD PTR hdr$[rsp]
  00e6d	48 89 84 24 98
	01 00 00	 mov	 QWORD PTR rec$46[rsp], rax

; 4688 :             int  i;
; 4689 :             for (i=0; i < 16; ++i)

  00e75	c7 44 24 54 00
	00 00 00	 mov	 DWORD PTR i$8[rsp], 0
  00e7d	eb 0a		 jmp	 SHORT $LN15@tf_swap_re
$LN13@tf_swap_re:
  00e7f	8b 44 24 54	 mov	 eax, DWORD PTR i$8[rsp]
  00e83	ff c0		 inc	 eax
  00e85	89 44 24 54	 mov	 DWORD PTR i$8[rsp], eax
$LN15@tf_swap_re:
  00e89	83 7c 24 54 10	 cmp	 DWORD PTR i$8[rsp], 16
  00e8e	7d 29		 jge	 SHORT $LN14@tf_swap_re

; 4690 :                 rec->ar[i]   = SWAP32( rec->ar[i] );

  00e90	48 63 44 24 54	 movsxd	 rax, DWORD PTR i$8[rsp]
  00e95	48 8b 8c 24 98
	01 00 00	 mov	 rcx, QWORD PTR rec$46[rsp]
  00e9d	8b 4c 81 18	 mov	 ecx, DWORD PTR [rcx+rax*4+24]
  00ea1	e8 00 00 00 00	 call	 _byteswap_ulong
  00ea6	48 63 4c 24 54	 movsxd	 rcx, DWORD PTR i$8[rsp]
  00eab	48 8b 94 24 98
	01 00 00	 mov	 rdx, QWORD PTR rec$46[rsp]
  00eb3	89 44 8a 18	 mov	 DWORD PTR [rdx+rcx*4+24], eax
  00eb7	eb c6		 jmp	 SHORT $LN13@tf_swap_re
$LN14@tf_swap_re:

; 4691 :         }
; 4692 :         break;

  00eb9	e9 84 02 00 00	 jmp	 $LN2@tf_swap_re
$LN89@tf_swap_re:

; 4693 : 
; 4694 :         case 2276:
; 4695 :         {
; 4696 :             TF02276* rec = (TF02276*) hdr;

  00ebe	48 8b 84 24 c0
	01 00 00	 mov	 rax, QWORD PTR hdr$[rsp]
  00ec6	48 89 84 24 a0
	01 00 00	 mov	 QWORD PTR rec$47[rsp], rax

; 4697 :             rec->fpc     = SWAP32( rec->fpc );

  00ece	48 8b 84 24 a0
	01 00 00	 mov	 rax, QWORD PTR rec$47[rsp]
  00ed6	8b 48 18	 mov	 ecx, DWORD PTR [rax+24]
  00ed9	e8 00 00 00 00	 call	 _byteswap_ulong
  00ede	48 8b 8c 24 a0
	01 00 00	 mov	 rcx, QWORD PTR rec$47[rsp]
  00ee6	89 41 18	 mov	 DWORD PTR [rcx+24], eax

; 4698 :         }
; 4699 :         break;

  00ee9	e9 54 02 00 00	 jmp	 $LN2@tf_swap_re
$LN90@tf_swap_re:

; 4700 : 
; 4701 :         case 2324:
; 4702 :         {
; 4703 :             TF02324* rec = (TF02324*) hdr;

  00eee	48 8b 84 24 c0
	01 00 00	 mov	 rax, QWORD PTR hdr$[rsp]
  00ef6	48 89 44 24 28	 mov	 QWORD PTR rec$1[rsp], rax

; 4704 : 
; 4705 :             rec->psw.intcode  = SWAP16( rec->psw.intcode  );

  00efb	48 8b 44 24 28	 mov	 rax, QWORD PTR rec$1[rsp]
  00f00	0f b7 48 38	 movzx	 ecx, WORD PTR [rax+56]
  00f04	e8 00 00 00 00	 call	 _byteswap_ushort
  00f09	48 8b 4c 24 28	 mov	 rcx, QWORD PTR rec$1[rsp]
  00f0e	66 89 41 38	 mov	 WORD PTR [rcx+56], ax

; 4706 :             rec->psw.zeroword = SWAP32( rec->psw.zeroword );

  00f12	48 8b 44 24 28	 mov	 rax, QWORD PTR rec$1[rsp]
  00f17	8b 48 24	 mov	 ecx, DWORD PTR [rax+36]
  00f1a	e8 00 00 00 00	 call	 _byteswap_ulong
  00f1f	48 8b 4c 24 28	 mov	 rcx, QWORD PTR rec$1[rsp]
  00f24	89 41 24	 mov	 DWORD PTR [rcx+36], eax

; 4707 :             rec->psw.ia.D     = SWAP64( rec->psw.ia.D     );

  00f27	48 8b 44 24 28	 mov	 rax, QWORD PTR rec$1[rsp]
  00f2c	48 8b 48 28	 mov	 rcx, QWORD PTR [rax+40]
  00f30	e8 00 00 00 00	 call	 _byteswap_uint64
  00f35	48 8b 4c 24 28	 mov	 rcx, QWORD PTR rec$1[rsp]
  00f3a	48 89 41 28	 mov	 QWORD PTR [rcx+40], rax

; 4708 :             rec->psw.amask.D  = SWAP64( rec->psw.amask.D  );

  00f3e	48 8b 44 24 28	 mov	 rax, QWORD PTR rec$1[rsp]
  00f43	48 8b 48 30	 mov	 rcx, QWORD PTR [rax+48]
  00f47	e8 00 00 00 00	 call	 _byteswap_uint64
  00f4c	48 8b 4c 24 28	 mov	 rcx, QWORD PTR rec$1[rsp]
  00f51	48 89 41 30	 mov	 QWORD PTR [rcx+48], rax

; 4709 : 
; 4710 :             rec->psw.amode64  = rec->amode64 ? 1 : 0;

  00f55	48 8b 44 24 28	 mov	 rax, QWORD PTR rec$1[rsp]
  00f5a	0f b6 40 40	 movzx	 eax, BYTE PTR [rax+64]
  00f5e	85 c0		 test	 eax, eax
  00f60	74 0d		 je	 SHORT $LN100@tf_swap_re
  00f62	c7 84 24 b8 00
	00 00 01 00 00
	00		 mov	 DWORD PTR tv551[rsp], 1
  00f6d	eb 0b		 jmp	 SHORT $LN101@tf_swap_re
$LN100@tf_swap_re:
  00f6f	c7 84 24 b8 00
	00 00 00 00 00
	00		 mov	 DWORD PTR tv551[rsp], 0
$LN101@tf_swap_re:
  00f7a	8b 84 24 b8 00
	00 00		 mov	 eax, DWORD PTR tv551[rsp]
  00f81	83 e0 01	 and	 eax, 1
  00f84	48 8b 4c 24 28	 mov	 rcx, QWORD PTR rec$1[rsp]
  00f89	8b 49 20	 mov	 ecx, DWORD PTR [rcx+32]
  00f8c	83 e1 fe	 and	 ecx, -2			; fffffffeH
  00f8f	0b c8		 or	 ecx, eax
  00f91	8b c1		 mov	 eax, ecx
  00f93	48 8b 4c 24 28	 mov	 rcx, QWORD PTR rec$1[rsp]
  00f98	89 41 20	 mov	 DWORD PTR [rcx+32], eax

; 4711 :             rec->psw.amode    = rec->amode   ? 1 : 0;

  00f9b	48 8b 44 24 28	 mov	 rax, QWORD PTR rec$1[rsp]
  00fa0	0f b6 40 41	 movzx	 eax, BYTE PTR [rax+65]
  00fa4	85 c0		 test	 eax, eax
  00fa6	74 0d		 je	 SHORT $LN102@tf_swap_re
  00fa8	c7 84 24 bc 00
	00 00 01 00 00
	00		 mov	 DWORD PTR tv560[rsp], 1
  00fb3	eb 0b		 jmp	 SHORT $LN103@tf_swap_re
$LN102@tf_swap_re:
  00fb5	c7 84 24 bc 00
	00 00 00 00 00
	00		 mov	 DWORD PTR tv560[rsp], 0
$LN103@tf_swap_re:
  00fc0	8b 84 24 bc 00
	00 00		 mov	 eax, DWORD PTR tv560[rsp]
  00fc7	83 e0 01	 and	 eax, 1
  00fca	d1 e0		 shl	 eax, 1
  00fcc	48 8b 4c 24 28	 mov	 rcx, QWORD PTR rec$1[rsp]
  00fd1	8b 49 20	 mov	 ecx, DWORD PTR [rcx+32]
  00fd4	83 e1 fd	 and	 ecx, -3			; fffffffdH
  00fd7	0b c8		 or	 ecx, eax
  00fd9	8b c1		 mov	 eax, ecx
  00fdb	48 8b 4c 24 28	 mov	 rcx, QWORD PTR rec$1[rsp]
  00fe0	89 41 20	 mov	 DWORD PTR [rcx+32], eax

; 4712 :             rec->psw.zeroilc  = rec->zeroilc ? 1 : 0;

  00fe3	48 8b 44 24 28	 mov	 rax, QWORD PTR rec$1[rsp]
  00fe8	0f b6 40 42	 movzx	 eax, BYTE PTR [rax+66]
  00fec	85 c0		 test	 eax, eax
  00fee	74 0d		 je	 SHORT $LN104@tf_swap_re
  00ff0	c7 84 24 c0 00
	00 00 01 00 00
	00		 mov	 DWORD PTR tv570[rsp], 1
  00ffb	eb 0b		 jmp	 SHORT $LN105@tf_swap_re
$LN104@tf_swap_re:
  00ffd	c7 84 24 c0 00
	00 00 00 00 00
	00		 mov	 DWORD PTR tv570[rsp], 0
$LN105@tf_swap_re:
  01008	8b 84 24 c0 00
	00 00		 mov	 eax, DWORD PTR tv570[rsp]
  0100f	83 e0 01	 and	 eax, 1
  01012	c1 e0 02	 shl	 eax, 2
  01015	48 8b 4c 24 28	 mov	 rcx, QWORD PTR rec$1[rsp]
  0101a	8b 49 20	 mov	 ecx, DWORD PTR [rcx+32]
  0101d	83 e1 fb	 and	 ecx, -5			; fffffffbH
  01020	0b c8		 or	 ecx, eax
  01022	8b c1		 mov	 eax, ecx
  01024	48 8b 4c 24 28	 mov	 rcx, QWORD PTR rec$1[rsp]
  01029	89 41 20	 mov	 DWORD PTR [rcx+32], eax

; 4713 :         }
; 4714 :         break;

  0102c	e9 11 01 00 00	 jmp	 $LN2@tf_swap_re
$LN91@tf_swap_re:

; 4715 : 
; 4716 :         case 2326:
; 4717 :         {
; 4718 :             TF02326* rec = (TF02326*) hdr;

  01031	48 8b 84 24 c0
	01 00 00	 mov	 rax, QWORD PTR hdr$[rsp]
  01039	48 89 84 24 a8
	00 00 00	 mov	 QWORD PTR rec$19[rsp], rax

; 4719 :             TFOP* op;
; 4720 : 
; 4721 :             rec->b1   = SWAP16( rec->b1 );

  01041	48 8b 84 24 a8
	00 00 00	 mov	 rax, QWORD PTR rec$19[rsp]
  01049	0f b7 48 1c	 movzx	 ecx, WORD PTR [rax+28]
  0104d	e8 00 00 00 00	 call	 _byteswap_ushort
  01052	48 8b 8c 24 a8
	00 00 00	 mov	 rcx, QWORD PTR rec$19[rsp]
  0105a	66 89 41 1c	 mov	 WORD PTR [rcx+28], ax

; 4722 :             rec->b2   = SWAP16( rec->b2 );

  0105e	48 8b 84 24 a8
	00 00 00	 mov	 rax, QWORD PTR rec$19[rsp]
  01066	0f b7 48 1e	 movzx	 ecx, WORD PTR [rax+30]
  0106a	e8 00 00 00 00	 call	 _byteswap_ushort
  0106f	48 8b 8c 24 a8
	00 00 00	 mov	 rcx, QWORD PTR rec$19[rsp]
  01077	66 89 41 1e	 mov	 WORD PTR [rcx+30], ax

; 4723 : 
; 4724 :             op = &rec->op1;

  0107b	48 8b 84 24 a8
	00 00 00	 mov	 rax, QWORD PTR rec$19[rsp]
  01083	48 83 c0 20	 add	 rax, 32			; 00000020H
  01087	48 89 44 24 38	 mov	 QWORD PTR op$3[rsp], rax

; 4725 : 
; 4726 :             op->xcode = SWAP16( op->xcode );

  0108c	48 8b 44 24 38	 mov	 rax, QWORD PTR op$3[rsp]
  01091	0f b7 48 20	 movzx	 ecx, WORD PTR [rax+32]
  01095	e8 00 00 00 00	 call	 _byteswap_ushort
  0109a	48 8b 4c 24 38	 mov	 rcx, QWORD PTR op$3[rsp]
  0109f	66 89 41 20	 mov	 WORD PTR [rcx+32], ax

; 4727 :             op->vaddr = SWAP64( op->vaddr );

  010a3	48 8b 44 24 38	 mov	 rax, QWORD PTR op$3[rsp]
  010a8	48 8b 08	 mov	 rcx, QWORD PTR [rax]
  010ab	e8 00 00 00 00	 call	 _byteswap_uint64
  010b0	48 8b 4c 24 38	 mov	 rcx, QWORD PTR op$3[rsp]
  010b5	48 89 01	 mov	 QWORD PTR [rcx], rax

; 4728 :             op->raddr = SWAP64( op->raddr );

  010b8	48 8b 44 24 38	 mov	 rax, QWORD PTR op$3[rsp]
  010bd	48 8b 48 08	 mov	 rcx, QWORD PTR [rax+8]
  010c1	e8 00 00 00 00	 call	 _byteswap_uint64
  010c6	48 8b 4c 24 38	 mov	 rcx, QWORD PTR op$3[rsp]
  010cb	48 89 41 08	 mov	 QWORD PTR [rcx+8], rax

; 4729 : 
; 4730 :             op = &rec->op2;

  010cf	48 8b 84 24 a8
	00 00 00	 mov	 rax, QWORD PTR rec$19[rsp]
  010d7	48 83 c0 48	 add	 rax, 72			; 00000048H
  010db	48 89 44 24 38	 mov	 QWORD PTR op$3[rsp], rax

; 4731 : 
; 4732 :             op->xcode = SWAP16( op->xcode );

  010e0	48 8b 44 24 38	 mov	 rax, QWORD PTR op$3[rsp]
  010e5	0f b7 48 20	 movzx	 ecx, WORD PTR [rax+32]
  010e9	e8 00 00 00 00	 call	 _byteswap_ushort
  010ee	48 8b 4c 24 38	 mov	 rcx, QWORD PTR op$3[rsp]
  010f3	66 89 41 20	 mov	 WORD PTR [rcx+32], ax

; 4733 :             op->vaddr = SWAP64( op->vaddr );

  010f7	48 8b 44 24 38	 mov	 rax, QWORD PTR op$3[rsp]
  010fc	48 8b 08	 mov	 rcx, QWORD PTR [rax]
  010ff	e8 00 00 00 00	 call	 _byteswap_uint64
  01104	48 8b 4c 24 38	 mov	 rcx, QWORD PTR op$3[rsp]
  01109	48 89 01	 mov	 QWORD PTR [rcx], rax

; 4734 :             op->raddr = SWAP64( op->raddr );

  0110c	48 8b 44 24 38	 mov	 rax, QWORD PTR op$3[rsp]
  01111	48 8b 48 08	 mov	 rcx, QWORD PTR [rax+8]
  01115	e8 00 00 00 00	 call	 _byteswap_uint64
  0111a	48 8b 4c 24 38	 mov	 rcx, QWORD PTR op$3[rsp]
  0111f	48 89 41 08	 mov	 QWORD PTR [rcx+8], rax

; 4735 :         }
; 4736 :         break;

  01123	eb 1d		 jmp	 SHORT $LN2@tf_swap_re
$LN92@tf_swap_re:
$LN18@tf_swap_re:

; 4737 : 
; 4738 :         default: CRASH(); UNREACHABLE_CODE( return );

  01125	48 c7 84 24 a8
	01 00 00 00 00
	00 00		 mov	 QWORD PTR p$48[rsp], 0
  01131	48 8b 84 24 a8
	01 00 00	 mov	 rax, QWORD PTR p$48[rsp]
  01139	c6 00 00	 mov	 BYTE PTR [rax], 0
  0113c	33 c0		 xor	 eax, eax
  0113e	85 c0		 test	 eax, eax
  01140	75 e3		 jne	 SHORT $LN18@tf_swap_re
$LN2@tf_swap_re:
$LN93@tf_swap_re:

; 4739 :     }
; 4740 : }

  01142	48 81 c4 b8 01
	00 00		 add	 rsp, 440		; 000001b8H
  01149	c3		 ret	 0
  0114a	66 90		 npad	 2
$LN115@tf_swap_re:
  0114c	00 00 00 00	 DD	 $LN19@tf_swap_re
  01150	00 00 00 00	 DD	 $LN20@tf_swap_re
  01154	00 00 00 00	 DD	 $LN21@tf_swap_re
  01158	00 00 00 00	 DD	 $LN22@tf_swap_re
  0115c	00 00 00 00	 DD	 $LN23@tf_swap_re
  01160	00 00 00 00	 DD	 $LN24@tf_swap_re
  01164	00 00 00 00	 DD	 $LN25@tf_swap_re
  01168	00 00 00 00	 DD	 $LN26@tf_swap_re
  0116c	00 00 00 00	 DD	 $LN27@tf_swap_re
  01170	00 00 00 00	 DD	 $LN28@tf_swap_re
  01174	00 00 00 00	 DD	 $LN29@tf_swap_re
  01178	00 00 00 00	 DD	 $LN30@tf_swap_re
  0117c	00 00 00 00	 DD	 $LN31@tf_swap_re
  01180	00 00 00 00	 DD	 $LN32@tf_swap_re
  01184	00 00 00 00	 DD	 $LN33@tf_swap_re
  01188	00 00 00 00	 DD	 $LN34@tf_swap_re
  0118c	00 00 00 00	 DD	 $LN35@tf_swap_re
  01190	00 00 00 00	 DD	 $LN36@tf_swap_re
  01194	00 00 00 00	 DD	 $LN37@tf_swap_re
  01198	00 00 00 00	 DD	 $LN38@tf_swap_re
  0119c	00 00 00 00	 DD	 $LN39@tf_swap_re
  011a0	00 00 00 00	 DD	 $LN40@tf_swap_re
  011a4	00 00 00 00	 DD	 $LN41@tf_swap_re
  011a8	00 00 00 00	 DD	 $LN42@tf_swap_re
  011ac	00 00 00 00	 DD	 $LN43@tf_swap_re
  011b0	00 00 00 00	 DD	 $LN92@tf_swap_re
$LN114@tf_swap_re:
  011b4	00		 DB	 0
  011b5	01		 DB	 1
  011b6	02		 DB	 2
  011b7	03		 DB	 3
  011b8	04		 DB	 4
  011b9	05		 DB	 5
  011ba	06		 DB	 6
  011bb	07		 DB	 7
  011bc	08		 DB	 8
  011bd	09		 DB	 9
  011be	0a		 DB	 10
  011bf	0b		 DB	 11
  011c0	0c		 DB	 12
  011c1	0d		 DB	 13
  011c2	0e		 DB	 14
  011c3	0f		 DB	 15
  011c4	10		 DB	 16
  011c5	11		 DB	 17
  011c6	12		 DB	 18
  011c7	13		 DB	 19
  011c8	19		 DB	 25
  011c9	19		 DB	 25
  011ca	19		 DB	 25
  011cb	19		 DB	 25
  011cc	19		 DB	 25
  011cd	19		 DB	 25
  011ce	19		 DB	 25
  011cf	19		 DB	 25
  011d0	19		 DB	 25
  011d1	19		 DB	 25
  011d2	19		 DB	 25
  011d3	19		 DB	 25
  011d4	19		 DB	 25
  011d5	19		 DB	 25
  011d6	19		 DB	 25
  011d7	19		 DB	 25
  011d8	19		 DB	 25
  011d9	19		 DB	 25
  011da	19		 DB	 25
  011db	19		 DB	 25
  011dc	19		 DB	 25
  011dd	19		 DB	 25
  011de	19		 DB	 25
  011df	19		 DB	 25
  011e0	19		 DB	 25
  011e1	19		 DB	 25
  011e2	19		 DB	 25
  011e3	19		 DB	 25
  011e4	19		 DB	 25
  011e5	19		 DB	 25
  011e6	19		 DB	 25
  011e7	19		 DB	 25
  011e8	19		 DB	 25
  011e9	19		 DB	 25
  011ea	19		 DB	 25
  011eb	19		 DB	 25
  011ec	19		 DB	 25
  011ed	19		 DB	 25
  011ee	19		 DB	 25
  011ef	19		 DB	 25
  011f0	19		 DB	 25
  011f1	19		 DB	 25
  011f2	19		 DB	 25
  011f3	19		 DB	 25
  011f4	19		 DB	 25
  011f5	19		 DB	 25
  011f6	19		 DB	 25
  011f7	19		 DB	 25
  011f8	19		 DB	 25
  011f9	19		 DB	 25
  011fa	19		 DB	 25
  011fb	19		 DB	 25
  011fc	19		 DB	 25
  011fd	19		 DB	 25
  011fe	19		 DB	 25
  011ff	19		 DB	 25
  01200	19		 DB	 25
  01201	19		 DB	 25
  01202	19		 DB	 25
  01203	19		 DB	 25
  01204	19		 DB	 25
  01205	19		 DB	 25
  01206	19		 DB	 25
  01207	19		 DB	 25
  01208	19		 DB	 25
  01209	19		 DB	 25
  0120a	19		 DB	 25
  0120b	19		 DB	 25
  0120c	19		 DB	 25
  0120d	19		 DB	 25
  0120e	19		 DB	 25
  0120f	19		 DB	 25
  01210	19		 DB	 25
  01211	14		 DB	 20
  01212	15		 DB	 21
  01213	16		 DB	 22
  01214	17		 DB	 23
  01215	18		 DB	 24
  01216	66 90		 npad	 2
$LN113@tf_swap_re:
  01218	00 00 00 00	 DD	 $LN45@tf_swap_re
  0121c	00 00 00 00	 DD	 $LN46@tf_swap_re
  01220	00 00 00 00	 DD	 $LN47@tf_swap_re
  01224	00 00 00 00	 DD	 $LN48@tf_swap_re
  01228	00 00 00 00	 DD	 $LN49@tf_swap_re
  0122c	00 00 00 00	 DD	 $LN50@tf_swap_re
  01230	00 00 00 00	 DD	 $LN51@tf_swap_re
  01234	00 00 00 00	 DD	 $LN52@tf_swap_re
  01238	00 00 00 00	 DD	 $LN53@tf_swap_re
  0123c	00 00 00 00	 DD	 $LN54@tf_swap_re
  01240	00 00 00 00	 DD	 $LN55@tf_swap_re
  01244	00 00 00 00	 DD	 $LN56@tf_swap_re
  01248	00 00 00 00	 DD	 $LN57@tf_swap_re
  0124c	00 00 00 00	 DD	 $LN58@tf_swap_re
  01250	00 00 00 00	 DD	 $LN59@tf_swap_re
  01254	00 00 00 00	 DD	 $LN92@tf_swap_re
$LN112@tf_swap_re:
  01258	00		 DB	 0
  01259	01		 DB	 1
  0125a	02		 DB	 2
  0125b	03		 DB	 3
  0125c	0f		 DB	 15
  0125d	04		 DB	 4
  0125e	05		 DB	 5
  0125f	06		 DB	 6
  01260	07		 DB	 7
  01261	0f		 DB	 15
  01262	08		 DB	 8
  01263	09		 DB	 9
  01264	0f		 DB	 15
  01265	0a		 DB	 10
  01266	0f		 DB	 15
  01267	0f		 DB	 15
  01268	0f		 DB	 15
  01269	0f		 DB	 15
  0126a	0f		 DB	 15
  0126b	0f		 DB	 15
  0126c	0f		 DB	 15
  0126d	0f		 DB	 15
  0126e	0f		 DB	 15
  0126f	0f		 DB	 15
  01270	0f		 DB	 15
  01271	0f		 DB	 15
  01272	0f		 DB	 15
  01273	0f		 DB	 15
  01274	0f		 DB	 15
  01275	0f		 DB	 15
  01276	0f		 DB	 15
  01277	0f		 DB	 15
  01278	0f		 DB	 15
  01279	0f		 DB	 15
  0127a	0f		 DB	 15
  0127b	0f		 DB	 15
  0127c	0f		 DB	 15
  0127d	0f		 DB	 15
  0127e	0f		 DB	 15
  0127f	0b		 DB	 11
  01280	0f		 DB	 15
  01281	0f		 DB	 15
  01282	0f		 DB	 15
  01283	0c		 DB	 12
  01284	0d		 DB	 13
  01285	0e		 DB	 14
  01286	66 90		 npad	 2
$LN111@tf_swap_re:
  01288	00 00 00 00	 DD	 $LN61@tf_swap_re
  0128c	00 00 00 00	 DD	 $LN92@tf_swap_re
  01290	00 00 00 00	 DD	 $LN92@tf_swap_re
  01294	00 00 00 00	 DD	 $LN62@tf_swap_re
  01298	00 00 00 00	 DD	 $LN63@tf_swap_re
  0129c	00 00 00 00	 DD	 $LN64@tf_swap_re
  012a0	00 00 00 00	 DD	 $LN65@tf_swap_re
  012a4	00 00 00 00	 DD	 $LN66@tf_swap_re
  012a8	00 00 00 00	 DD	 $LN67@tf_swap_re
  012ac	00 00 00 00	 DD	 $LN68@tf_swap_re
  012b0	00 00 00 00	 DD	 $LN69@tf_swap_re
  012b4	00 00 00 00	 DD	 $LN70@tf_swap_re
  012b8	00 00 00 00	 DD	 $LN71@tf_swap_re
  012bc	00 00 00 00	 DD	 $LN92@tf_swap_re
  012c0	00 00 00 00	 DD	 $LN72@tf_swap_re
  012c4	00 00 00 00	 DD	 $LN73@tf_swap_re
  012c8	00 00 00 00	 DD	 $LN74@tf_swap_re
  012cc	00 00 00 00	 DD	 $LN75@tf_swap_re
  012d0	00 00 00 00	 DD	 $LN92@tf_swap_re
  012d4	00 00 00 00	 DD	 $LN76@tf_swap_re
  012d8	00 00 00 00	 DD	 $LN77@tf_swap_re
  012dc	00 00 00 00	 DD	 $LN92@tf_swap_re
  012e0	00 00 00 00	 DD	 $LN92@tf_swap_re
  012e4	00 00 00 00	 DD	 $LN92@tf_swap_re
  012e8	00 00 00 00	 DD	 $LN92@tf_swap_re
  012ec	00 00 00 00	 DD	 $LN92@tf_swap_re
  012f0	00 00 00 00	 DD	 $LN92@tf_swap_re
  012f4	00 00 00 00	 DD	 $LN92@tf_swap_re
  012f8	00 00 00 00	 DD	 $LN78@tf_swap_re
  012fc	00 00 00 00	 DD	 $LN79@tf_swap_re
  01300	00 00 00 00	 DD	 $LN80@tf_swap_re
  01304	00 00 00 00	 DD	 $LN81@tf_swap_re
  01308	00 00 00 00	 DD	 $LN82@tf_swap_re
  0130c	00 00 00 00	 DD	 $LN83@tf_swap_re
  01310	00 00 00 00	 DD	 $LN92@tf_swap_re
  01314	00 00 00 00	 DD	 $LN84@tf_swap_re
$LN110@tf_swap_re:
  01318	00 00 00 00	 DD	 $LN86@tf_swap_re
  0131c	00 00 00 00	 DD	 $LN87@tf_swap_re
  01320	00 00 00 00	 DD	 $LN88@tf_swap_re
  01324	00 00 00 00	 DD	 $LN89@tf_swap_re
  01328	00 00 00 00	 DD	 $LN90@tf_swap_re
  0132c	00 00 00 00	 DD	 $LN91@tf_swap_re
  01330	00 00 00 00	 DD	 $LN92@tf_swap_re
$LN109@tf_swap_re:
  01334	00		 DB	 0
  01335	01		 DB	 1
  01336	02		 DB	 2
  01337	06		 DB	 6
  01338	06		 DB	 6
  01339	06		 DB	 6
  0133a	03		 DB	 3
  0133b	06		 DB	 6
  0133c	06		 DB	 6
  0133d	06		 DB	 6
  0133e	06		 DB	 6
  0133f	06		 DB	 6
  01340	06		 DB	 6
  01341	06		 DB	 6
  01342	06		 DB	 6
  01343	06		 DB	 6
  01344	06		 DB	 6
  01345	06		 DB	 6
  01346	06		 DB	 6
  01347	06		 DB	 6
  01348	06		 DB	 6
  01349	06		 DB	 6
  0134a	06		 DB	 6
  0134b	06		 DB	 6
  0134c	06		 DB	 6
  0134d	06		 DB	 6
  0134e	06		 DB	 6
  0134f	06		 DB	 6
  01350	06		 DB	 6
  01351	06		 DB	 6
  01352	06		 DB	 6
  01353	06		 DB	 6
  01354	06		 DB	 6
  01355	06		 DB	 6
  01356	06		 DB	 6
  01357	06		 DB	 6
  01358	06		 DB	 6
  01359	06		 DB	 6
  0135a	06		 DB	 6
  0135b	06		 DB	 6
  0135c	06		 DB	 6
  0135d	06		 DB	 6
  0135e	06		 DB	 6
  0135f	06		 DB	 6
  01360	06		 DB	 6
  01361	06		 DB	 6
  01362	06		 DB	 6
  01363	06		 DB	 6
  01364	06		 DB	 6
  01365	06		 DB	 6
  01366	06		 DB	 6
  01367	06		 DB	 6
  01368	06		 DB	 6
  01369	06		 DB	 6
  0136a	04		 DB	 4
  0136b	06		 DB	 6
  0136c	05		 DB	 5
tf_swap_rec ENDP
_TEXT	ENDS
; Function compile flags: /Odtp
; File C:\papa\MyGit\hyperion-zvector\hscutl.c
_TEXT	SEGMENT
hdr$ = 48
tf_swap_hdr PROC

; 4161 : {

$LN3:
  00000	48 89 4c 24 08	 mov	 QWORD PTR [rsp+8], rcx
  00005	48 83 ec 28	 sub	 rsp, 40			; 00000028H

; 4162 :     hdr->prev        = SWAP16( hdr->prev        );

  00009	48 8b 44 24 30	 mov	 rax, QWORD PTR hdr$[rsp]
  0000e	0f b7 08	 movzx	 ecx, WORD PTR [rax]
  00011	e8 00 00 00 00	 call	 _byteswap_ushort
  00016	48 8b 4c 24 30	 mov	 rcx, QWORD PTR hdr$[rsp]
  0001b	66 89 01	 mov	 WORD PTR [rcx], ax

; 4163 :     hdr->curr        = SWAP16( hdr->curr        );

  0001e	48 8b 44 24 30	 mov	 rax, QWORD PTR hdr$[rsp]
  00023	0f b7 48 02	 movzx	 ecx, WORD PTR [rax+2]
  00027	e8 00 00 00 00	 call	 _byteswap_ushort
  0002c	48 8b 4c 24 30	 mov	 rcx, QWORD PTR hdr$[rsp]
  00031	66 89 41 02	 mov	 WORD PTR [rcx+2], ax

; 4164 :     hdr->cpuad       = SWAP16( hdr->cpuad       );

  00035	48 8b 44 24 30	 mov	 rax, QWORD PTR hdr$[rsp]
  0003a	0f b7 48 04	 movzx	 ecx, WORD PTR [rax+4]
  0003e	e8 00 00 00 00	 call	 _byteswap_ushort
  00043	48 8b 4c 24 30	 mov	 rcx, QWORD PTR hdr$[rsp]
  00048	66 89 41 04	 mov	 WORD PTR [rcx+4], ax

; 4165 :     hdr->msgnum      = SWAP16( hdr->msgnum      );

  0004c	48 8b 44 24 30	 mov	 rax, QWORD PTR hdr$[rsp]
  00051	0f b7 48 06	 movzx	 ecx, WORD PTR [rax+6]
  00055	e8 00 00 00 00	 call	 _byteswap_ushort
  0005a	48 8b 4c 24 30	 mov	 rcx, QWORD PTR hdr$[rsp]
  0005f	66 89 41 06	 mov	 WORD PTR [rcx+6], ax

; 4166 :     hdr->devnum      = SWAP16( hdr->devnum      );

  00063	48 8b 44 24 30	 mov	 rax, QWORD PTR hdr$[rsp]
  00068	0f b7 48 12	 movzx	 ecx, WORD PTR [rax+18]
  0006c	e8 00 00 00 00	 call	 _byteswap_ushort
  00071	48 8b 4c 24 30	 mov	 rcx, QWORD PTR hdr$[rsp]
  00076	66 89 41 12	 mov	 WORD PTR [rcx+18], ax

; 4167 :     hdr->tod.tv_sec  = SWAP32( hdr->tod.tv_sec  );

  0007a	48 8b 44 24 30	 mov	 rax, QWORD PTR hdr$[rsp]
  0007f	8b 48 08	 mov	 ecx, DWORD PTR [rax+8]
  00082	e8 00 00 00 00	 call	 _byteswap_ulong
  00087	48 8b 4c 24 30	 mov	 rcx, QWORD PTR hdr$[rsp]
  0008c	89 41 08	 mov	 DWORD PTR [rcx+8], eax

; 4168 :     hdr->tod.tv_usec = SWAP32( hdr->tod.tv_usec );

  0008f	48 8b 44 24 30	 mov	 rax, QWORD PTR hdr$[rsp]
  00094	8b 48 0c	 mov	 ecx, DWORD PTR [rax+12]
  00097	e8 00 00 00 00	 call	 _byteswap_ulong
  0009c	48 8b 4c 24 30	 mov	 rcx, QWORD PTR hdr$[rsp]
  000a1	89 41 0c	 mov	 DWORD PTR [rcx+12], eax

; 4169 : }

  000a4	48 83 c4 28	 add	 rsp, 40			; 00000028H
  000a8	c3		 ret	 0
tf_swap_hdr ENDP
_TEXT	ENDS
; Function compile flags: /Odtp
; File C:\papa\MyGit\hyperion-zvector\hscutl.c
_TEXT	SEGMENT
tv68 = 32
sys$ = 64
tf_swap_sys PROC

; 4147 : {

$LN5:
  00000	48 89 4c 24 08	 mov	 QWORD PTR [rsp+8], rcx
  00005	48 83 ec 38	 sub	 rsp, 56			; 00000038H

; 4148 :     sys->bigend          = !sys->bigend;

  00009	48 8b 44 24 40	 mov	 rax, QWORD PTR sys$[rsp]
  0000e	0f b6 40 04	 movzx	 eax, BYTE PTR [rax+4]
  00012	85 c0		 test	 eax, eax
  00014	75 0a		 jne	 SHORT $LN3@tf_swap_sy
  00016	c7 44 24 20 01
	00 00 00	 mov	 DWORD PTR tv68[rsp], 1
  0001e	eb 08		 jmp	 SHORT $LN4@tf_swap_sy
$LN3@tf_swap_sy:
  00020	c7 44 24 20 00
	00 00 00	 mov	 DWORD PTR tv68[rsp], 0
$LN4@tf_swap_sy:
  00028	48 8b 44 24 40	 mov	 rax, QWORD PTR sys$[rsp]
  0002d	0f b6 4c 24 20	 movzx	 ecx, BYTE PTR tv68[rsp]
  00032	88 48 04	 mov	 BYTE PTR [rax+4], cl

; 4149 :     sys->beg_tod.tv_sec  = SWAP32( sys->beg_tod.tv_sec  );

  00035	48 8b 44 24 40	 mov	 rax, QWORD PTR sys$[rsp]
  0003a	8b 48 10	 mov	 ecx, DWORD PTR [rax+16]
  0003d	e8 00 00 00 00	 call	 _byteswap_ulong
  00042	48 8b 4c 24 40	 mov	 rcx, QWORD PTR sys$[rsp]
  00047	89 41 10	 mov	 DWORD PTR [rcx+16], eax

; 4150 :     sys->beg_tod.tv_usec = SWAP32( sys->beg_tod.tv_usec );

  0004a	48 8b 44 24 40	 mov	 rax, QWORD PTR sys$[rsp]
  0004f	8b 48 14	 mov	 ecx, DWORD PTR [rax+20]
  00052	e8 00 00 00 00	 call	 _byteswap_ulong
  00057	48 8b 4c 24 40	 mov	 rcx, QWORD PTR sys$[rsp]
  0005c	89 41 14	 mov	 DWORD PTR [rcx+20], eax

; 4151 :     sys->end_tod.tv_sec  = SWAP32( sys->end_tod.tv_sec  );

  0005f	48 8b 44 24 40	 mov	 rax, QWORD PTR sys$[rsp]
  00064	8b 48 18	 mov	 ecx, DWORD PTR [rax+24]
  00067	e8 00 00 00 00	 call	 _byteswap_ulong
  0006c	48 8b 4c 24 40	 mov	 rcx, QWORD PTR sys$[rsp]
  00071	89 41 18	 mov	 DWORD PTR [rcx+24], eax

; 4152 :     sys->end_tod.tv_usec = SWAP32( sys->end_tod.tv_usec );

  00074	48 8b 44 24 40	 mov	 rax, QWORD PTR sys$[rsp]
  00079	8b 48 1c	 mov	 ecx, DWORD PTR [rax+28]
  0007c	e8 00 00 00 00	 call	 _byteswap_ulong
  00081	48 8b 4c 24 40	 mov	 rcx, QWORD PTR sys$[rsp]
  00086	89 41 1c	 mov	 DWORD PTR [rcx+28], eax

; 4153 :     sys->tot_ins         = SWAP64( sys->tot_ins         );

  00089	48 8b 44 24 40	 mov	 rax, QWORD PTR sys$[rsp]
  0008e	48 8b 48 20	 mov	 rcx, QWORD PTR [rax+32]
  00092	e8 00 00 00 00	 call	 _byteswap_uint64
  00097	48 8b 4c 24 40	 mov	 rcx, QWORD PTR sys$[rsp]
  0009c	48 89 41 20	 mov	 QWORD PTR [rcx+32], rax

; 4154 :     sys->tot_dev         = SWAP64( sys->tot_dev         );

  000a0	48 8b 44 24 40	 mov	 rax, QWORD PTR sys$[rsp]
  000a5	48 8b 48 28	 mov	 rcx, QWORD PTR [rax+40]
  000a9	e8 00 00 00 00	 call	 _byteswap_uint64
  000ae	48 8b 4c 24 40	 mov	 rcx, QWORD PTR sys$[rsp]
  000b3	48 89 41 28	 mov	 QWORD PTR [rcx+40], rax

; 4155 : }

  000b7	48 83 c4 38	 add	 rsp, 56			; 00000038H
  000bb	c3		 ret	 0
tf_swap_sys ENDP
_TEXT	ENDS
; Function compile flags: /Odtp
; File C:\papa\MyGit\hyperion-zvector\hscutl.c
_TEXT	SEGMENT
tv79 = 32
tv81 = 36
sys$ = 64
tf_are_swaps_needed PROC

; 2517 : {

$LN9:
  00000	48 89 4c 24 08	 mov	 QWORD PTR [rsp+8], rcx
  00005	48 83 ec 38	 sub	 rsp, 56			; 00000038H

; 2518 :     return

  00009	33 c0		 xor	 eax, eax
  0000b	85 c0		 test	 eax, eax
  0000d	75 4b		 jne	 SHORT $LN4@tf_are_swa
  0000f	33 c0		 xor	 eax, eax
  00011	83 f8 01	 cmp	 eax, 1
  00014	74 19		 je	 SHORT $LN3@tf_are_swa
  00016	e8 00 00 00 00	 call	 are_big_endian
  0001b	0f b6 c0	 movzx	 eax, al
  0001e	85 c0		 test	 eax, eax
  00020	74 0d		 je	 SHORT $LN3@tf_are_swa
  00022	48 8b 44 24 40	 mov	 rax, QWORD PTR sys$[rsp]
  00027	0f b6 40 04	 movzx	 eax, BYTE PTR [rax+4]
  0002b	85 c0		 test	 eax, eax
  0002d	74 2b		 je	 SHORT $LN4@tf_are_swa
$LN3@tf_are_swa:
  0002f	33 c0		 xor	 eax, eax
  00031	83 f8 01	 cmp	 eax, 1
  00034	74 1a		 je	 SHORT $LN5@tf_are_swa
  00036	e8 00 00 00 00	 call	 are_big_endian
  0003b	0f b6 c0	 movzx	 eax, al
  0003e	85 c0		 test	 eax, eax
  00040	75 0e		 jne	 SHORT $LN5@tf_are_swa
  00042	48 8b 44 24 40	 mov	 rax, QWORD PTR sys$[rsp]
  00047	0f b6 40 04	 movzx	 eax, BYTE PTR [rax+4]
  0004b	83 f8 01	 cmp	 eax, 1
  0004e	74 0a		 je	 SHORT $LN4@tf_are_swa
$LN5@tf_are_swa:
  00050	c7 44 24 20 00
	00 00 00	 mov	 DWORD PTR tv79[rsp], 0
  00058	eb 08		 jmp	 SHORT $LN6@tf_are_swa
$LN4@tf_are_swa:
  0005a	c7 44 24 20 01
	00 00 00	 mov	 DWORD PTR tv79[rsp], 1
$LN6@tf_are_swa:
  00062	83 7c 24 20 00	 cmp	 DWORD PTR tv79[rsp], 0
  00067	75 0a		 jne	 SHORT $LN7@tf_are_swa
  00069	c7 44 24 24 00
	00 00 00	 mov	 DWORD PTR tv81[rsp], 0
  00071	eb 08		 jmp	 SHORT $LN8@tf_are_swa
$LN7@tf_are_swa:
  00073	c7 44 24 24 01
	00 00 00	 mov	 DWORD PTR tv81[rsp], 1
$LN8@tf_are_swa:
  0007b	0f b6 44 24 24	 movzx	 eax, BYTE PTR tv81[rsp]

; 2519 :     (0
; 2520 :         || (1
; 2521 :             && are_big_endian()     // (we are big endian)
; 2522 :             && sys->bigend == 0     // (but file is little endian)
; 2523 :            )
; 2524 :         || (1
; 2525 :             && !are_big_endian()    // (we are little endian)
; 2526 :             && sys->bigend == 1     // (but file is big endian)
; 2527 :            )
; 2528 :     );
; 2529 : }

  00080	48 83 c4 38	 add	 rsp, 56			; 00000038H
  00084	c3		 ret	 0
tf_are_swaps_needed ENDP
_TEXT	ENDS
; Function compile flags: /Odtp
; File C:\papa\MyGit\hyperion-zvector\hscutl.c
_TEXT	SEGMENT
bWasActive$ = 32
cpu$1 = 36
dev$2 = 40
tv70 = 48
tv72 = 52
tv95 = 56
tv129 = 60
tv159 = 64
tv161 = 68
tf_autostop PROC

; 2833 : {

$LN22:
  00000	48 83 ec 58	 sub	 rsp, 88			; 00000058H

; 2834 :     bool bWasActive;
; 2835 : 
; 2836 :     /* Stop all tracing */
; 2837 :     OBTAIN_INTLOCK( NULL );

  00004	48 8d 15 00 00
	00 00		 lea	 rdx, OFFSET FLAT:$SG160302
  0000b	33 c9		 xor	 ecx, ecx
  0000d	e8 00 00 00 00	 call	 Obtain_Interrupt_Lock

; 2838 :     {
; 2839 :         DEVBLK* dev;
; 2840 :         int cpu;
; 2841 : 
; 2842 :         /* Stop overall instruction tracing */
; 2843 :         bWasActive = sysblk.insttrace ? true : false;

  00012	48 8b 05 00 00
	00 00		 mov	 rax, QWORD PTR __imp_sysblk
  00019	8b 80 94 12 00
	00		 mov	 eax, DWORD PTR [rax+4756]
  0001f	c1 e8 08	 shr	 eax, 8
  00022	83 e0 01	 and	 eax, 1
  00025	85 c0		 test	 eax, eax
  00027	74 0a		 je	 SHORT $LN10@tf_autosto
  00029	c7 44 24 30 01
	00 00 00	 mov	 DWORD PTR tv70[rsp], 1
  00031	eb 08		 jmp	 SHORT $LN11@tf_autosto
$LN10@tf_autosto:
  00033	c7 44 24 30 00
	00 00 00	 mov	 DWORD PTR tv70[rsp], 0
$LN11@tf_autosto:
  0003b	83 7c 24 30 00	 cmp	 DWORD PTR tv70[rsp], 0
  00040	75 0a		 jne	 SHORT $LN12@tf_autosto
  00042	c7 44 24 34 00
	00 00 00	 mov	 DWORD PTR tv72[rsp], 0
  0004a	eb 08		 jmp	 SHORT $LN13@tf_autosto
$LN12@tf_autosto:
  0004c	c7 44 24 34 01
	00 00 00	 mov	 DWORD PTR tv72[rsp], 1
$LN13@tf_autosto:
  00054	0f b6 44 24 34	 movzx	 eax, BYTE PTR tv72[rsp]
  00059	88 44 24 20	 mov	 BYTE PTR bWasActive$[rsp], al

; 2844 :         sysblk.insttrace = false;

  0005d	48 8b 05 00 00
	00 00		 mov	 rax, QWORD PTR __imp_sysblk
  00064	8b 80 94 12 00
	00		 mov	 eax, DWORD PTR [rax+4756]
  0006a	0f ba f0 08	 btr	 eax, 8
  0006e	48 8b 0d 00 00
	00 00		 mov	 rcx, QWORD PTR __imp_sysblk
  00075	89 81 94 12 00
	00		 mov	 DWORD PTR [rcx+4756], eax

; 2845 : 
; 2846 :         /* Stop instruction tracing for all CPUs */
; 2847 :         for (cpu=0; cpu < sysblk.maxcpu; cpu++)

  0007b	c7 44 24 24 00
	00 00 00	 mov	 DWORD PTR cpu$1[rsp], 0
  00083	eb 0a		 jmp	 SHORT $LN4@tf_autosto
$LN2@tf_autosto:
  00085	8b 44 24 24	 mov	 eax, DWORD PTR cpu$1[rsp]
  00089	ff c0		 inc	 eax
  0008b	89 44 24 24	 mov	 DWORD PTR cpu$1[rsp], eax
$LN4@tf_autosto:
  0008f	48 8b 05 00 00
	00 00		 mov	 rax, QWORD PTR __imp_sysblk
  00096	8b 80 00 01 00
	00		 mov	 eax, DWORD PTR [rax+256]
  0009c	39 44 24 24	 cmp	 DWORD PTR cpu$1[rsp], eax
  000a0	0f 8d b9 00 00
	00		 jge	 $LN3@tf_autosto

; 2848 :         {
; 2849 :             if (IS_CPU_ONLINE( cpu ))

  000a6	48 63 44 24 24	 movsxd	 rax, DWORD PTR cpu$1[rsp]
  000ab	48 8b 0d 00 00
	00 00		 mov	 rcx, QWORD PTR __imp_sysblk
  000b2	48 83 bc c1 98
	0b 00 00 00	 cmp	 QWORD PTR [rcx+rax*8+2968], 0
  000bb	0f 84 99 00 00
	00		 je	 $LN8@tf_autosto

; 2850 :             {
; 2851 :                 bWasActive = bWasActive || sysblk.regs[ cpu ]->insttrace;

  000c1	0f b6 44 24 20	 movzx	 eax, BYTE PTR bWasActive$[rsp]
  000c6	85 c0		 test	 eax, eax
  000c8	75 2e		 jne	 SHORT $LN14@tf_autosto
  000ca	48 63 44 24 24	 movsxd	 rax, DWORD PTR cpu$1[rsp]
  000cf	48 8b 0d 00 00
	00 00		 mov	 rcx, QWORD PTR __imp_sysblk
  000d6	48 8b 84 c1 98
	0b 00 00	 mov	 rax, QWORD PTR [rcx+rax*8+2968]
  000de	8b 80 28 07 00
	00		 mov	 eax, DWORD PTR [rax+1832]
  000e4	c1 e8 0f	 shr	 eax, 15
  000e7	83 e0 01	 and	 eax, 1
  000ea	85 c0		 test	 eax, eax
  000ec	75 0a		 jne	 SHORT $LN14@tf_autosto
  000ee	c7 44 24 38 00
	00 00 00	 mov	 DWORD PTR tv95[rsp], 0
  000f6	eb 08		 jmp	 SHORT $LN15@tf_autosto
$LN14@tf_autosto:
  000f8	c7 44 24 38 01
	00 00 00	 mov	 DWORD PTR tv95[rsp], 1
$LN15@tf_autosto:
  00100	83 7c 24 38 00	 cmp	 DWORD PTR tv95[rsp], 0
  00105	75 0a		 jne	 SHORT $LN16@tf_autosto
  00107	c7 44 24 3c 00
	00 00 00	 mov	 DWORD PTR tv129[rsp], 0
  0010f	eb 08		 jmp	 SHORT $LN17@tf_autosto
$LN16@tf_autosto:
  00111	c7 44 24 3c 01
	00 00 00	 mov	 DWORD PTR tv129[rsp], 1
$LN17@tf_autosto:
  00119	0f b6 44 24 3c	 movzx	 eax, BYTE PTR tv129[rsp]
  0011e	88 44 24 20	 mov	 BYTE PTR bWasActive$[rsp], al

; 2852 :                 sysblk.regs[ cpu ]->insttrace = false;

  00122	48 63 44 24 24	 movsxd	 rax, DWORD PTR cpu$1[rsp]
  00127	48 8b 0d 00 00
	00 00		 mov	 rcx, QWORD PTR __imp_sysblk
  0012e	48 8b 84 c1 98
	0b 00 00	 mov	 rax, QWORD PTR [rcx+rax*8+2968]
  00136	8b 80 28 07 00
	00		 mov	 eax, DWORD PTR [rax+1832]
  0013c	0f ba f0 0f	 btr	 eax, 15
  00140	48 63 4c 24 24	 movsxd	 rcx, DWORD PTR cpu$1[rsp]
  00145	48 8b 15 00 00
	00 00		 mov	 rdx, QWORD PTR __imp_sysblk
  0014c	48 8b 8c ca 98
	0b 00 00	 mov	 rcx, QWORD PTR [rdx+rcx*8+2968]
  00154	89 81 28 07 00
	00		 mov	 DWORD PTR [rcx+1832], eax
$LN8@tf_autosto:

; 2853 :             }
; 2854 :         }

  0015a	e9 26 ff ff ff	 jmp	 $LN2@tf_autosto
$LN3@tf_autosto:

; 2855 : 
; 2856 :         /* Stop ORB/CCW/KEY tracing for all devices */
; 2857 :         for (dev = sysblk.firstdev; dev != NULL; dev = dev->nextdev)

  0015f	48 8b 05 00 00
	00 00		 mov	 rax, QWORD PTR __imp_sysblk
  00166	48 8b 80 c0 11
	00 00		 mov	 rax, QWORD PTR [rax+4544]
  0016d	48 89 44 24 28	 mov	 QWORD PTR dev$2[rsp], rax
  00172	eb 0e		 jmp	 SHORT $LN7@tf_autosto
$LN5@tf_autosto:
  00174	48 8b 44 24 28	 mov	 rax, QWORD PTR dev$2[rsp]
  00179	48 8b 40 30	 mov	 rax, QWORD PTR [rax+48]
  0017d	48 89 44 24 28	 mov	 QWORD PTR dev$2[rsp], rax
$LN7@tf_autosto:
  00182	48 83 7c 24 28
	00		 cmp	 QWORD PTR dev$2[rsp], 0
  00188	0f 84 ce 00 00
	00		 je	 $LN6@tf_autosto

; 2858 :         {
; 2859 :             bWasActive = bWasActive || dev->ccwtrace || dev->orbtrace || dev->ckdkeytrace;

  0018e	0f b6 44 24 20	 movzx	 eax, BYTE PTR bWasActive$[rsp]
  00193	85 c0		 test	 eax, eax
  00195	75 49		 jne	 SHORT $LN18@tf_autosto
  00197	48 8b 44 24 28	 mov	 rax, QWORD PTR dev$2[rsp]
  0019c	8b 80 f8 05 00
	00		 mov	 eax, DWORD PTR [rax+1528]
  001a2	c1 e8 0f	 shr	 eax, 15
  001a5	83 e0 01	 and	 eax, 1
  001a8	85 c0		 test	 eax, eax
  001aa	75 34		 jne	 SHORT $LN18@tf_autosto
  001ac	48 8b 44 24 28	 mov	 rax, QWORD PTR dev$2[rsp]
  001b1	8b 80 f8 05 00
	00		 mov	 eax, DWORD PTR [rax+1528]
  001b7	c1 e8 0e	 shr	 eax, 14
  001ba	83 e0 01	 and	 eax, 1
  001bd	85 c0		 test	 eax, eax
  001bf	75 1f		 jne	 SHORT $LN18@tf_autosto
  001c1	48 8b 44 24 28	 mov	 rax, QWORD PTR dev$2[rsp]
  001c6	8b 80 f8 05 00
	00		 mov	 eax, DWORD PTR [rax+1528]
  001cc	c1 e8 02	 shr	 eax, 2
  001cf	83 e0 01	 and	 eax, 1
  001d2	85 c0		 test	 eax, eax
  001d4	75 0a		 jne	 SHORT $LN18@tf_autosto
  001d6	c7 44 24 40 00
	00 00 00	 mov	 DWORD PTR tv159[rsp], 0
  001de	eb 08		 jmp	 SHORT $LN19@tf_autosto
$LN18@tf_autosto:
  001e0	c7 44 24 40 01
	00 00 00	 mov	 DWORD PTR tv159[rsp], 1
$LN19@tf_autosto:
  001e8	83 7c 24 40 00	 cmp	 DWORD PTR tv159[rsp], 0
  001ed	75 0a		 jne	 SHORT $LN20@tf_autosto
  001ef	c7 44 24 44 00
	00 00 00	 mov	 DWORD PTR tv161[rsp], 0
  001f7	eb 08		 jmp	 SHORT $LN21@tf_autosto
$LN20@tf_autosto:
  001f9	c7 44 24 44 01
	00 00 00	 mov	 DWORD PTR tv161[rsp], 1
$LN21@tf_autosto:
  00201	0f b6 44 24 44	 movzx	 eax, BYTE PTR tv161[rsp]
  00206	88 44 24 20	 mov	 BYTE PTR bWasActive$[rsp], al

; 2860 :             dev->ccwtrace    = false;

  0020a	48 8b 44 24 28	 mov	 rax, QWORD PTR dev$2[rsp]
  0020f	8b 80 f8 05 00
	00		 mov	 eax, DWORD PTR [rax+1528]
  00215	0f ba f0 0f	 btr	 eax, 15
  00219	48 8b 4c 24 28	 mov	 rcx, QWORD PTR dev$2[rsp]
  0021e	89 81 f8 05 00
	00		 mov	 DWORD PTR [rcx+1528], eax

; 2861 :             dev->orbtrace    = false;

  00224	48 8b 44 24 28	 mov	 rax, QWORD PTR dev$2[rsp]
  00229	8b 80 f8 05 00
	00		 mov	 eax, DWORD PTR [rax+1528]
  0022f	0f ba f0 0e	 btr	 eax, 14
  00233	48 8b 4c 24 28	 mov	 rcx, QWORD PTR dev$2[rsp]
  00238	89 81 f8 05 00
	00		 mov	 DWORD PTR [rcx+1528], eax

; 2862 :             dev->ckdkeytrace = false;

  0023e	48 8b 44 24 28	 mov	 rax, QWORD PTR dev$2[rsp]
  00243	8b 80 f8 05 00
	00		 mov	 eax, DWORD PTR [rax+1528]
  00249	83 e0 fb	 and	 eax, -5			; fffffffbH
  0024c	48 8b 4c 24 28	 mov	 rcx, QWORD PTR dev$2[rsp]
  00251	89 81 f8 05 00
	00		 mov	 DWORD PTR [rcx+1528], eax

; 2863 :         }

  00257	e9 18 ff ff ff	 jmp	 $LN5@tf_autosto
$LN6@tf_autosto:

; 2864 :     }
; 2865 :     RELEASE_INTLOCK( NULL );

  0025c	48 8d 15 00 00
	00 00		 lea	 rdx, OFFSET FLAT:$SG160304
  00263	33 c9		 xor	 ecx, ecx
  00265	e8 00 00 00 00	 call	 Release_Interrupt_Lock

; 2866 : 
; 2867 :     return bWasActive;

  0026a	0f b6 44 24 20	 movzx	 eax, BYTE PTR bWasActive$[rsp]

; 2868 : }

  0026f	48 83 c4 58	 add	 rsp, 88			; 00000058H
  00273	c3		 ret	 0
tf_autostop ENDP
_TEXT	ENDS
; Function compile flags: /Odtp
; File C:\papa\MyGit\hyperion-zvector\hscutl.c
_TEXT	SEGMENT
tv72 = 80
tv93 = 88
tf_close_locked PROC

; 2684 : {

$LN16:
  00000	48 83 ec 68	 sub	 rsp, 104		; 00000068H

; 2685 :     /* Quick exit if already closed */
; 2686 :     if (!sysblk.traceFILE)

  00004	48 8b 05 00 00
	00 00		 mov	 rax, QWORD PTR __imp_sysblk
  0000b	48 83 b8 20 14
	00 00 00	 cmp	 QWORD PTR [rax+5152], 0
  00013	75 05		 jne	 SHORT $LN8@tf_close_l

; 2687 :         return;

  00015	e9 c9 01 00 00	 jmp	 $LN1@tf_close_l
$LN8@tf_close_l:

; 2688 : 
; 2689 :     if (fseek( sysblk.traceFILE, 0, SEEK_SET ) != 0)

  0001a	45 33 c0	 xor	 r8d, r8d
  0001d	33 d2		 xor	 edx, edx
  0001f	48 8b 05 00 00
	00 00		 mov	 rax, QWORD PTR __imp_sysblk
  00026	48 8b 88 20 14
	00 00		 mov	 rcx, QWORD PTR [rax+5152]
  0002d	ff 15 00 00 00
	00		 call	 QWORD PTR __imp__fseeki64
  00033	85 c0		 test	 eax, eax
  00035	74 73		 je	 SHORT $LN9@tf_close_l

; 2690 :     {
; 2691 :         // "Error in function %s: %s"
; 2692 :         WRMSG( HHC00075, "E", "fseek()", strerror( errno ));

  00037	ff 15 00 00 00
	00		 call	 QWORD PTR __imp__errno
  0003d	8b 08		 mov	 ecx, DWORD PTR [rax]
  0003f	e8 00 00 00 00	 call	 w32_strerror
  00044	48 89 44 24 50	 mov	 QWORD PTR tv72[rsp], rax
  00049	b9 01 00 00 00	 mov	 ecx, 1
  0004e	ff 15 00 00 00
	00		 call	 QWORD PTR __imp___acrt_iob_func
  00054	48 8b 4c 24 50	 mov	 rcx, QWORD PTR tv72[rsp]
  00059	48 89 4c 24 40	 mov	 QWORD PTR [rsp+64], rcx
  0005e	48 8d 0d 00 00
	00 00		 lea	 rcx, OFFSET FLAT:$SG160198
  00065	48 89 4c 24 38	 mov	 QWORD PTR [rsp+56], rcx
  0006a	48 8d 0d 00 00
	00 00		 lea	 rcx, OFFSET FLAT:$SG160199
  00071	48 89 4c 24 30	 mov	 QWORD PTR [rsp+48], rcx
  00076	48 8d 0d 00 00
	00 00		 lea	 rcx, OFFSET FLAT:$SG160200
  0007d	48 89 4c 24 28	 mov	 QWORD PTR [rsp+40], rcx
  00082	48 89 44 24 20	 mov	 QWORD PTR [rsp+32], rax
  00087	41 b9 03 00 00
	00		 mov	 r9d, 3
  0008d	4c 8d 05 00 00
	00 00		 lea	 r8, OFFSET FLAT:$SG160201
  00094	ba 84 0a 00 00	 mov	 edx, 2692		; 00000a84H
  00099	48 8d 0d 00 00
	00 00		 lea	 rcx, OFFSET FLAT:$SG160202
  000a0	e8 00 00 00 00	 call	 fwritemsg

; 2693 :     }

  000a5	e9 9d 00 00 00	 jmp	 $LN10@tf_close_l
$LN9@tf_close_l:

; 2694 :     else if (fwrite( &tfsys, 1, tfsys_size, sysblk.traceFILE ) < tfsys_size)

  000aa	48 8b 05 00 00
	00 00		 mov	 rax, QWORD PTR __imp_sysblk
  000b1	4c 8b 88 20 14
	00 00		 mov	 r9, QWORD PTR [rax+5152]
  000b8	4c 8b 05 00 00
	00 00		 mov	 r8, QWORD PTR tfsys_size
  000bf	ba 01 00 00 00	 mov	 edx, 1
  000c4	48 8d 0d 00 00
	00 00		 lea	 rcx, OFFSET FLAT:tfsys
  000cb	e8 00 00 00 00	 call	 w32_fwrite
  000d0	48 3b 05 00 00
	00 00		 cmp	 rax, QWORD PTR tfsys_size
  000d7	73 6e		 jae	 SHORT $LN11@tf_close_l

; 2695 :     {
; 2696 :         // "Error in function %s: %s"
; 2697 :         WRMSG( HHC00075, "E", "fwrite()", strerror( errno ));

  000d9	ff 15 00 00 00
	00		 call	 QWORD PTR __imp__errno
  000df	8b 08		 mov	 ecx, DWORD PTR [rax]
  000e1	e8 00 00 00 00	 call	 w32_strerror
  000e6	48 89 44 24 58	 mov	 QWORD PTR tv93[rsp], rax
  000eb	b9 01 00 00 00	 mov	 ecx, 1
  000f0	ff 15 00 00 00
	00		 call	 QWORD PTR __imp___acrt_iob_func
  000f6	48 8b 4c 24 58	 mov	 rcx, QWORD PTR tv93[rsp]
  000fb	48 89 4c 24 40	 mov	 QWORD PTR [rsp+64], rcx
  00100	48 8d 0d 00 00
	00 00		 lea	 rcx, OFFSET FLAT:$SG160204
  00107	48 89 4c 24 38	 mov	 QWORD PTR [rsp+56], rcx
  0010c	48 8d 0d 00 00
	00 00		 lea	 rcx, OFFSET FLAT:$SG160205
  00113	48 89 4c 24 30	 mov	 QWORD PTR [rsp+48], rcx
  00118	48 8d 0d 00 00
	00 00		 lea	 rcx, OFFSET FLAT:$SG160206
  0011f	48 89 4c 24 28	 mov	 QWORD PTR [rsp+40], rcx
  00124	48 89 44 24 20	 mov	 QWORD PTR [rsp+32], rax
  00129	41 b9 03 00 00
	00		 mov	 r9d, 3
  0012f	4c 8d 05 00 00
	00 00		 lea	 r8, OFFSET FLAT:$SG160207
  00136	ba 89 0a 00 00	 mov	 edx, 2697		; 00000a89H
  0013b	48 8d 0d 00 00
	00 00		 lea	 rcx, OFFSET FLAT:$SG160208
  00142	e8 00 00 00 00	 call	 fwritemsg
$LN11@tf_close_l:
$LN10@tf_close_l:
$LN4@tf_close_l:

; 2698 :     }
; 2699 : 
; 2700 :     /* Now close the file */
; 2701 :     VERIFY( 0 == fclose( sysblk.traceFILE ));

  00147	48 8b 05 00 00
	00 00		 mov	 rax, QWORD PTR __imp_sysblk
  0014e	48 8b 88 20 14
	00 00		 mov	 rcx, QWORD PTR [rax+5152]
  00155	e8 00 00 00 00	 call	 w32_fclose
  0015a	85 c0		 test	 eax, eax
  0015c	74 5b		 je	 SHORT $LN12@tf_close_l
$LN7@tf_close_l:
  0015e	4c 8d 0d 00 00
	00 00		 lea	 r9, OFFSET FLAT:$SG160210
  00165	41 b8 8d 0a 00
	00		 mov	 r8d, 2701		; 00000a8dH
  0016b	48 8d 15 00 00
	00 00		 lea	 rdx, OFFSET FLAT:$SG160211
  00172	48 8d 0d 00 00
	00 00		 lea	 rcx, OFFSET FLAT:$SG160212
  00179	e8 00 00 00 00	 call	 logmsg
  0017e	ff 15 00 00 00
	00		 call	 QWORD PTR __imp_IsDebuggerPresent
  00184	85 c0		 test	 eax, eax
  00186	74 20		 je	 SHORT $LN13@tf_close_l
  00188	4c 8d 0d 00 00
	00 00		 lea	 r9, OFFSET FLAT:$SG160214
  0018f	41 b8 8d 0a 00
	00		 mov	 r8d, 2701		; 00000a8dH
  00195	48 8d 15 00 00
	00 00		 lea	 rdx, OFFSET FLAT:$SG160215
  0019c	48 8d 0d 00 00
	00 00		 lea	 rcx, OFFSET FLAT:$SG160216
  001a3	e8 00 00 00 00	 call	 DebuggerTrace
$LN13@tf_close_l:
  001a8	33 c0		 xor	 eax, eax
  001aa	85 c0		 test	 eax, eax
  001ac	75 b0		 jne	 SHORT $LN7@tf_close_l
  001ae	ff 15 00 00 00
	00		 call	 QWORD PTR __imp_IsDebuggerPresent
  001b4	85 c0		 test	 eax, eax
  001b6	74 01		 je	 SHORT $LN14@tf_close_l
  001b8	cc		 int	 3
$LN14@tf_close_l:
$LN12@tf_close_l:
  001b9	33 c0		 xor	 eax, eax
  001bb	85 c0		 test	 eax, eax
  001bd	75 88		 jne	 SHORT $LN4@tf_close_l

; 2702 :     sysblk.traceFILE = NULL;

  001bf	48 8b 05 00 00
	00 00		 mov	 rax, QWORD PTR __imp_sysblk
  001c6	48 c7 80 20 14
	00 00 00 00 00
	00		 mov	 QWORD PTR [rax+5152], 0

; 2703 :     sysblk.curtracesize = 0;

  001d1	48 8b 05 00 00
	00 00		 mov	 rax, QWORD PTR __imp_sysblk
  001d8	48 c7 80 28 14
	00 00 00 00 00
	00		 mov	 QWORD PTR [rax+5160], 0
$LN1@tf_close_l:

; 2704 : }

  001e3	48 83 c4 68	 add	 rsp, 104		; 00000068H
  001e7	c3		 ret	 0
tf_close_locked ENDP
_TEXT	ENDS
; Function compile flags: /Odtp
; File C:\papa\MyGit\hyperion-zvector\hscutl.c
_TEXT	SEGMENT
notused$ = 48
tf_close PROC

; 2707 : {

$LN6:
  00000	48 89 4c 24 08	 mov	 QWORD PTR [rsp+8], rcx
  00005	48 83 ec 28	 sub	 rsp, 40			; 00000028H
$LN4@tf_close:

; 2708 :     UNREFERENCED( notused );

  00009	33 c0		 xor	 eax, eax
  0000b	85 c0		 test	 eax, eax
  0000d	75 fa		 jne	 SHORT $LN4@tf_close

; 2709 : 
; 2710 :     OBTAIN_TRACEFILE_LOCK();

  0000f	48 8b 05 00 00
	00 00		 mov	 rax, QWORD PTR __imp_sysblk
  00016	48 05 10 14 00
	00		 add	 rax, 5136		; 00001410H
  0001c	48 8d 15 00 00
	00 00		 lea	 rdx, OFFSET FLAT:$SG160224
  00023	48 8b c8	 mov	 rcx, rax
  00026	e8 00 00 00 00	 call	 hthread_obtain_lock

; 2711 :     {
; 2712 :         tf_close_locked();

  0002b	e8 00 00 00 00	 call	 tf_close_locked

; 2713 :     }
; 2714 :     RELEASE_TRACEFILE_LOCK();

  00030	48 8b 05 00 00
	00 00		 mov	 rax, QWORD PTR __imp_sysblk
  00037	48 05 10 14 00
	00		 add	 rax, 5136		; 00001410H
  0003d	48 8d 15 00 00
	00 00		 lea	 rdx, OFFSET FLAT:$SG160225
  00044	48 8b c8	 mov	 rcx, rax
  00047	e8 00 00 00 00	 call	 hthread_release_lock

; 2715 : }

  0004c	48 83 c4 28	 add	 rsp, 40			; 00000028H
  00050	c3		 ret	 0
tf_close ENDP
_TEXT	ENDS
; Function compile flags: /Odtp
; File C:\papa\MyGit\hyperion-zvector\hscutl.c
_TEXT	SEGMENT
max_recsize$ = 0
tf_MAX_RECSIZE PROC

; 3908 : {

$LN76:
  00000	48 83 ec 18	 sub	 rsp, 24

; 3909 :     size_t
; 3910 :         max_recsize = sizeof( TFSYS );

  00004	48 c7 04 24 f0
	00 00 00	 mov	 QWORD PTR max_recsize$[rsp], 240 ; 000000f0H

; 3911 : 
; 3912 :     // Device tracing
; 3913 : 
; 3914 :     if (max_recsize < sizeof( TF00423 ))

  0000c	48 81 3c 24 48
	01 00 00	 cmp	 QWORD PTR max_recsize$[rsp], 328 ; 00000148H
  00014	73 08		 jae	 SHORT $LN2@tf_MAX_REC

; 3915 :         max_recsize = sizeof( TF00423 );

  00016	48 c7 04 24 48
	01 00 00	 mov	 QWORD PTR max_recsize$[rsp], 328 ; 00000148H
$LN2@tf_MAX_REC:

; 3916 : 
; 3917 :     if (max_recsize < sizeof( TF00424 ))

  0001e	48 81 3c 24 20
	01 00 00	 cmp	 QWORD PTR max_recsize$[rsp], 288 ; 00000120H
  00026	73 08		 jae	 SHORT $LN3@tf_MAX_REC

; 3918 :         max_recsize = sizeof( TF00424 );

  00028	48 c7 04 24 20
	01 00 00	 mov	 QWORD PTR max_recsize$[rsp], 288 ; 00000120H
$LN3@tf_MAX_REC:

; 3919 : 
; 3920 :     if (max_recsize < sizeof( TF00425 ))

  00030	48 81 3c 24 20
	01 00 00	 cmp	 QWORD PTR max_recsize$[rsp], 288 ; 00000120H
  00038	73 08		 jae	 SHORT $LN4@tf_MAX_REC

; 3921 :         max_recsize = sizeof( TF00425 );

  0003a	48 c7 04 24 20
	01 00 00	 mov	 QWORD PTR max_recsize$[rsp], 288 ; 00000120H
$LN4@tf_MAX_REC:

; 3922 : 
; 3923 :     if (max_recsize < sizeof( TF00426 ))

  00042	48 81 3c 24 20
	01 00 00	 cmp	 QWORD PTR max_recsize$[rsp], 288 ; 00000120H
  0004a	73 08		 jae	 SHORT $LN5@tf_MAX_REC

; 3924 :         max_recsize = sizeof( TF00426 );

  0004c	48 c7 04 24 20
	01 00 00	 mov	 QWORD PTR max_recsize$[rsp], 288 ; 00000120H
$LN5@tf_MAX_REC:

; 3925 : 
; 3926 :     if (max_recsize < sizeof( TF00427 ))

  00054	48 81 3c 24 20
	01 00 00	 cmp	 QWORD PTR max_recsize$[rsp], 288 ; 00000120H
  0005c	73 08		 jae	 SHORT $LN6@tf_MAX_REC

; 3927 :         max_recsize = sizeof( TF00427 );

  0005e	48 c7 04 24 20
	01 00 00	 mov	 QWORD PTR max_recsize$[rsp], 288 ; 00000120H
$LN6@tf_MAX_REC:

; 3928 : 
; 3929 :     if (max_recsize < sizeof( TF00428 ))

  00066	48 81 3c 24 20
	01 00 00	 cmp	 QWORD PTR max_recsize$[rsp], 288 ; 00000120H
  0006e	73 08		 jae	 SHORT $LN7@tf_MAX_REC

; 3930 :         max_recsize = sizeof( TF00428 );

  00070	48 c7 04 24 20
	01 00 00	 mov	 QWORD PTR max_recsize$[rsp], 288 ; 00000120H
$LN7@tf_MAX_REC:

; 3931 : 
; 3932 :     if (max_recsize < sizeof( TF00429 ))

  00078	48 81 3c 24 30
	01 00 00	 cmp	 QWORD PTR max_recsize$[rsp], 304 ; 00000130H
  00080	73 08		 jae	 SHORT $LN8@tf_MAX_REC

; 3933 :         max_recsize = sizeof( TF00429 );

  00082	48 c7 04 24 30
	01 00 00	 mov	 QWORD PTR max_recsize$[rsp], 304 ; 00000130H
$LN8@tf_MAX_REC:

; 3934 : 
; 3935 :     if (max_recsize < sizeof( TF00430 ))

  0008a	48 81 3c 24 28
	01 00 00	 cmp	 QWORD PTR max_recsize$[rsp], 296 ; 00000128H
  00092	73 08		 jae	 SHORT $LN9@tf_MAX_REC

; 3936 :         max_recsize = sizeof( TF00430 );

  00094	48 c7 04 24 28
	01 00 00	 mov	 QWORD PTR max_recsize$[rsp], 296 ; 00000128H
$LN9@tf_MAX_REC:

; 3937 : 
; 3938 :     if (max_recsize < sizeof( TF00431 ))

  0009c	48 81 3c 24 20
	01 00 00	 cmp	 QWORD PTR max_recsize$[rsp], 288 ; 00000120H
  000a4	73 08		 jae	 SHORT $LN10@tf_MAX_REC

; 3939 :         max_recsize = sizeof( TF00431 );

  000a6	48 c7 04 24 20
	01 00 00	 mov	 QWORD PTR max_recsize$[rsp], 288 ; 00000120H
$LN10@tf_MAX_REC:

; 3940 : 
; 3941 :     if (max_recsize < sizeof( TF00432 ))

  000ae	48 81 3c 24 20
	01 00 00	 cmp	 QWORD PTR max_recsize$[rsp], 288 ; 00000120H
  000b6	73 08		 jae	 SHORT $LN11@tf_MAX_REC

; 3942 :         max_recsize = sizeof( TF00432 );

  000b8	48 c7 04 24 20
	01 00 00	 mov	 QWORD PTR max_recsize$[rsp], 288 ; 00000120H
$LN11@tf_MAX_REC:

; 3943 : 
; 3944 :     if (max_recsize < sizeof( TF00433 ))

  000c0	48 81 3c 24 20
	01 00 00	 cmp	 QWORD PTR max_recsize$[rsp], 288 ; 00000120H
  000c8	73 08		 jae	 SHORT $LN12@tf_MAX_REC

; 3945 :         max_recsize = sizeof( TF00433 );

  000ca	48 c7 04 24 20
	01 00 00	 mov	 QWORD PTR max_recsize$[rsp], 288 ; 00000120H
$LN12@tf_MAX_REC:

; 3946 : 
; 3947 :     if (max_recsize < sizeof( TF00434 ))

  000d2	48 81 3c 24 20
	01 00 00	 cmp	 QWORD PTR max_recsize$[rsp], 288 ; 00000120H
  000da	73 08		 jae	 SHORT $LN13@tf_MAX_REC

; 3948 :         max_recsize = sizeof( TF00434 );

  000dc	48 c7 04 24 20
	01 00 00	 mov	 QWORD PTR max_recsize$[rsp], 288 ; 00000120H
$LN13@tf_MAX_REC:

; 3949 : 
; 3950 :     if (max_recsize < sizeof( TF00435 ))

  000e4	48 81 3c 24 30
	01 00 00	 cmp	 QWORD PTR max_recsize$[rsp], 304 ; 00000130H
  000ec	73 08		 jae	 SHORT $LN14@tf_MAX_REC

; 3951 :         max_recsize = sizeof( TF00435 );

  000ee	48 c7 04 24 30
	01 00 00	 mov	 QWORD PTR max_recsize$[rsp], 304 ; 00000130H
$LN14@tf_MAX_REC:

; 3952 : 
; 3953 :     if (max_recsize < sizeof( TF00436 ))

  000f6	48 81 3c 24 20
	01 00 00	 cmp	 QWORD PTR max_recsize$[rsp], 288 ; 00000120H
  000fe	73 08		 jae	 SHORT $LN15@tf_MAX_REC

; 3954 :         max_recsize = sizeof( TF00436 );

  00100	48 c7 04 24 20
	01 00 00	 mov	 QWORD PTR max_recsize$[rsp], 288 ; 00000120H
$LN15@tf_MAX_REC:

; 3955 : 
; 3956 :     if (max_recsize < sizeof( TF00437 ))

  00108	48 81 3c 24 20
	01 00 00	 cmp	 QWORD PTR max_recsize$[rsp], 288 ; 00000120H
  00110	73 08		 jae	 SHORT $LN16@tf_MAX_REC

; 3957 :         max_recsize = sizeof( TF00437 );

  00112	48 c7 04 24 20
	01 00 00	 mov	 QWORD PTR max_recsize$[rsp], 288 ; 00000120H
$LN16@tf_MAX_REC:

; 3958 : 
; 3959 :     if (max_recsize < sizeof( TF00438 ))

  0011a	48 81 3c 24 28
	01 00 00	 cmp	 QWORD PTR max_recsize$[rsp], 296 ; 00000128H
  00122	73 08		 jae	 SHORT $LN17@tf_MAX_REC

; 3960 :         max_recsize = sizeof( TF00438 );

  00124	48 c7 04 24 28
	01 00 00	 mov	 QWORD PTR max_recsize$[rsp], 296 ; 00000128H
$LN17@tf_MAX_REC:

; 3961 : 
; 3962 :     if (max_recsize < sizeof( TF00439 ))

  0012c	48 81 3c 24 28
	01 00 00	 cmp	 QWORD PTR max_recsize$[rsp], 296 ; 00000128H
  00134	73 08		 jae	 SHORT $LN18@tf_MAX_REC

; 3963 :         max_recsize = sizeof( TF00439 );

  00136	48 c7 04 24 28
	01 00 00	 mov	 QWORD PTR max_recsize$[rsp], 296 ; 00000128H
$LN18@tf_MAX_REC:

; 3964 : 
; 3965 :     if (max_recsize < sizeof( TF00440 ))

  0013e	48 81 3c 24 30
	01 00 00	 cmp	 QWORD PTR max_recsize$[rsp], 304 ; 00000130H
  00146	73 08		 jae	 SHORT $LN19@tf_MAX_REC

; 3966 :         max_recsize = sizeof( TF00440 );

  00148	48 c7 04 24 30
	01 00 00	 mov	 QWORD PTR max_recsize$[rsp], 304 ; 00000130H
$LN19@tf_MAX_REC:

; 3967 : 
; 3968 :     if (max_recsize < sizeof( TF00441 ))

  00150	48 81 3c 24 28
	01 00 00	 cmp	 QWORD PTR max_recsize$[rsp], 296 ; 00000128H
  00158	73 08		 jae	 SHORT $LN20@tf_MAX_REC

; 3969 :         max_recsize = sizeof( TF00441 );

  0015a	48 c7 04 24 28
	01 00 00	 mov	 QWORD PTR max_recsize$[rsp], 296 ; 00000128H
$LN20@tf_MAX_REC:

; 3970 : 
; 3971 :     if (max_recsize < sizeof( TF00442 ))

  00162	48 81 3c 24 20
	01 00 00	 cmp	 QWORD PTR max_recsize$[rsp], 288 ; 00000120H
  0016a	73 08		 jae	 SHORT $LN21@tf_MAX_REC

; 3972 :         max_recsize = sizeof( TF00442 );

  0016c	48 c7 04 24 20
	01 00 00	 mov	 QWORD PTR max_recsize$[rsp], 288 ; 00000120H
$LN21@tf_MAX_REC:

; 3973 : 
; 3974 :     if (max_recsize < sizeof( TF00516 ))

  00174	48 81 3c 24 20
	01 00 00	 cmp	 QWORD PTR max_recsize$[rsp], 288 ; 00000120H
  0017c	73 08		 jae	 SHORT $LN22@tf_MAX_REC

; 3975 :         max_recsize = sizeof( TF00516 );

  0017e	48 c7 04 24 20
	01 00 00	 mov	 QWORD PTR max_recsize$[rsp], 288 ; 00000120H
$LN22@tf_MAX_REC:

; 3976 : 
; 3977 :     if (max_recsize < sizeof( TF00517 ))

  00186	48 81 3c 24 20
	01 00 00	 cmp	 QWORD PTR max_recsize$[rsp], 288 ; 00000120H
  0018e	73 08		 jae	 SHORT $LN23@tf_MAX_REC

; 3978 :         max_recsize = sizeof( TF00517 );

  00190	48 c7 04 24 20
	01 00 00	 mov	 QWORD PTR max_recsize$[rsp], 288 ; 00000120H
$LN23@tf_MAX_REC:

; 3979 : 
; 3980 :     if (max_recsize < sizeof( TF00518 ))

  00198	48 81 3c 24 20
	01 00 00	 cmp	 QWORD PTR max_recsize$[rsp], 288 ; 00000120H
  001a0	73 08		 jae	 SHORT $LN24@tf_MAX_REC

; 3981 :         max_recsize = sizeof( TF00518 );

  001a2	48 c7 04 24 20
	01 00 00	 mov	 QWORD PTR max_recsize$[rsp], 288 ; 00000120H
$LN24@tf_MAX_REC:

; 3982 : 
; 3983 :     if (max_recsize < sizeof( TF00519 ))

  001aa	48 81 3c 24 28
	01 00 00	 cmp	 QWORD PTR max_recsize$[rsp], 296 ; 00000128H
  001b2	73 08		 jae	 SHORT $LN25@tf_MAX_REC

; 3984 :         max_recsize = sizeof( TF00519 );

  001b4	48 c7 04 24 28
	01 00 00	 mov	 QWORD PTR max_recsize$[rsp], 296 ; 00000128H
$LN25@tf_MAX_REC:

; 3985 : 
; 3986 :     if (max_recsize < sizeof( TF00520 ))

  001bc	48 81 3c 24 20
	01 00 00	 cmp	 QWORD PTR max_recsize$[rsp], 288 ; 00000120H
  001c4	73 08		 jae	 SHORT $LN26@tf_MAX_REC

; 3987 :         max_recsize = sizeof( TF00520 );

  001c6	48 c7 04 24 20
	01 00 00	 mov	 QWORD PTR max_recsize$[rsp], 288 ; 00000120H
$LN26@tf_MAX_REC:

; 3988 : 
; 3989 :     // Instruction tracing
; 3990 : 
; 3991 :     if (max_recsize < sizeof( TF00800 ))

  001ce	48 83 3c 24 48	 cmp	 QWORD PTR max_recsize$[rsp], 72 ; 00000048H
  001d3	73 08		 jae	 SHORT $LN27@tf_MAX_REC

; 3992 :         max_recsize = sizeof( TF00800 );

  001d5	48 c7 04 24 48
	00 00 00	 mov	 QWORD PTR max_recsize$[rsp], 72 ; 00000048H
$LN27@tf_MAX_REC:

; 3993 : 
; 3994 :     if (max_recsize < sizeof( TF00801 ))

  001dd	48 83 3c 24 28	 cmp	 QWORD PTR max_recsize$[rsp], 40 ; 00000028H
  001e2	73 08		 jae	 SHORT $LN28@tf_MAX_REC

; 3995 :         max_recsize = sizeof( TF00801 );

  001e4	48 c7 04 24 28
	00 00 00	 mov	 QWORD PTR max_recsize$[rsp], 40 ; 00000028H
$LN28@tf_MAX_REC:

; 3996 : 
; 3997 :     if (max_recsize < sizeof( TF00802 ))

  001ec	48 83 3c 24 28	 cmp	 QWORD PTR max_recsize$[rsp], 40 ; 00000028H
  001f1	73 08		 jae	 SHORT $LN29@tf_MAX_REC

; 3998 :         max_recsize = sizeof( TF00802 );

  001f3	48 c7 04 24 28
	00 00 00	 mov	 QWORD PTR max_recsize$[rsp], 40 ; 00000028H
$LN29@tf_MAX_REC:

; 3999 : 
; 4000 :     if (max_recsize < sizeof( TF00803 ))

  001fb	48 83 3c 24 40	 cmp	 QWORD PTR max_recsize$[rsp], 64 ; 00000040H
  00200	73 08		 jae	 SHORT $LN30@tf_MAX_REC

; 4001 :         max_recsize = sizeof( TF00803 );

  00202	48 c7 04 24 40
	00 00 00	 mov	 QWORD PTR max_recsize$[rsp], 64 ; 00000040H
$LN30@tf_MAX_REC:

; 4002 : 
; 4003 :     if (max_recsize < sizeof( TF00804 ))

  0020a	48 83 3c 24 28	 cmp	 QWORD PTR max_recsize$[rsp], 40 ; 00000028H
  0020f	73 08		 jae	 SHORT $LN31@tf_MAX_REC

; 4004 :         max_recsize = sizeof( TF00804 );

  00211	48 c7 04 24 28
	00 00 00	 mov	 QWORD PTR max_recsize$[rsp], 40 ; 00000028H
$LN31@tf_MAX_REC:

; 4005 : 
; 4006 :     if (max_recsize < sizeof( TF00806 ))

  00219	48 83 3c 24 28	 cmp	 QWORD PTR max_recsize$[rsp], 40 ; 00000028H
  0021e	73 08		 jae	 SHORT $LN32@tf_MAX_REC

; 4007 :         max_recsize = sizeof( TF00806 );

  00220	48 c7 04 24 28
	00 00 00	 mov	 QWORD PTR max_recsize$[rsp], 40 ; 00000028H
$LN32@tf_MAX_REC:

; 4008 : 
; 4009 :     if (max_recsize < sizeof( TF00807 ))

  00228	48 83 3c 24 30	 cmp	 QWORD PTR max_recsize$[rsp], 48 ; 00000030H
  0022d	73 08		 jae	 SHORT $LN33@tf_MAX_REC

; 4010 :         max_recsize = sizeof( TF00807 );

  0022f	48 c7 04 24 30
	00 00 00	 mov	 QWORD PTR max_recsize$[rsp], 48 ; 00000030H
$LN33@tf_MAX_REC:

; 4011 : 
; 4012 :     if (max_recsize < sizeof( TF00808 ))

  00237	48 83 3c 24 18	 cmp	 QWORD PTR max_recsize$[rsp], 24
  0023c	73 08		 jae	 SHORT $LN34@tf_MAX_REC

; 4013 :         max_recsize = sizeof( TF00808 );

  0023e	48 c7 04 24 18
	00 00 00	 mov	 QWORD PTR max_recsize$[rsp], 24
$LN34@tf_MAX_REC:

; 4014 : 
; 4015 :     if (max_recsize < sizeof( TF00809 ))

  00246	48 83 3c 24 40	 cmp	 QWORD PTR max_recsize$[rsp], 64 ; 00000040H
  0024b	73 08		 jae	 SHORT $LN35@tf_MAX_REC

; 4016 :         max_recsize = sizeof( TF00809 );

  0024d	48 c7 04 24 40
	00 00 00	 mov	 QWORD PTR max_recsize$[rsp], 64 ; 00000040H
$LN35@tf_MAX_REC:

; 4017 : 
; 4018 :     if (max_recsize < sizeof( TF00811 ))

  00255	48 83 3c 24 20	 cmp	 QWORD PTR max_recsize$[rsp], 32 ; 00000020H
  0025a	73 08		 jae	 SHORT $LN36@tf_MAX_REC

; 4019 :         max_recsize = sizeof( TF00811 );

  0025c	48 c7 04 24 20
	00 00 00	 mov	 QWORD PTR max_recsize$[rsp], 32 ; 00000020H
$LN36@tf_MAX_REC:

; 4020 : 
; 4021 :     if (max_recsize < sizeof( TF00812 ))

  00264	48 83 3c 24 18	 cmp	 QWORD PTR max_recsize$[rsp], 24
  00269	73 08		 jae	 SHORT $LN37@tf_MAX_REC

; 4022 :         max_recsize = sizeof( TF00812 );

  0026b	48 c7 04 24 18
	00 00 00	 mov	 QWORD PTR max_recsize$[rsp], 24
$LN37@tf_MAX_REC:

; 4023 : 
; 4024 :     if (max_recsize < sizeof( TF00814 ))

  00273	48 83 3c 24 30	 cmp	 QWORD PTR max_recsize$[rsp], 48 ; 00000030H
  00278	73 08		 jae	 SHORT $LN38@tf_MAX_REC

; 4025 :         max_recsize = sizeof( TF00814 );

  0027a	48 c7 04 24 30
	00 00 00	 mov	 QWORD PTR max_recsize$[rsp], 48 ; 00000030H
$LN38@tf_MAX_REC:

; 4026 : 
; 4027 :     if (max_recsize < sizeof( TF00840 ))

  00282	48 83 3c 24 28	 cmp	 QWORD PTR max_recsize$[rsp], 40 ; 00000028H
  00287	73 08		 jae	 SHORT $LN39@tf_MAX_REC

; 4028 :         max_recsize = sizeof( TF00840 );

  00289	48 c7 04 24 28
	00 00 00	 mov	 QWORD PTR max_recsize$[rsp], 40 ; 00000028H
$LN39@tf_MAX_REC:

; 4029 : 
; 4030 :     if (max_recsize < sizeof( TF00844 ))

  00291	48 83 3c 24 28	 cmp	 QWORD PTR max_recsize$[rsp], 40 ; 00000028H
  00296	73 08		 jae	 SHORT $LN40@tf_MAX_REC

; 4031 :         max_recsize = sizeof( TF00844 );

  00298	48 c7 04 24 28
	00 00 00	 mov	 QWORD PTR max_recsize$[rsp], 40 ; 00000028H
$LN40@tf_MAX_REC:

; 4032 : 
; 4033 :     if (max_recsize < sizeof( TF00845 ))

  002a0	48 83 3c 24 28	 cmp	 QWORD PTR max_recsize$[rsp], 40 ; 00000028H
  002a5	73 08		 jae	 SHORT $LN41@tf_MAX_REC

; 4034 :         max_recsize = sizeof( TF00845 );

  002a7	48 c7 04 24 28
	00 00 00	 mov	 QWORD PTR max_recsize$[rsp], 40 ; 00000028H
$LN41@tf_MAX_REC:

; 4035 : 
; 4036 :     if (max_recsize < sizeof( TF00846 ))

  002af	48 83 3c 24 20	 cmp	 QWORD PTR max_recsize$[rsp], 32 ; 00000020H
  002b4	73 08		 jae	 SHORT $LN42@tf_MAX_REC

; 4037 :         max_recsize = sizeof( TF00846 );

  002b6	48 c7 04 24 20
	00 00 00	 mov	 QWORD PTR max_recsize$[rsp], 32 ; 00000020H
$LN42@tf_MAX_REC:

; 4038 : 
; 4039 :     // Device tracing
; 4040 : 
; 4041 :     if (max_recsize < sizeof( TF01300 ))

  002be	48 83 3c 24 20	 cmp	 QWORD PTR max_recsize$[rsp], 32 ; 00000020H
  002c3	73 08		 jae	 SHORT $LN43@tf_MAX_REC

; 4042 :         max_recsize = sizeof( TF01300 );

  002c5	48 c7 04 24 20
	00 00 00	 mov	 QWORD PTR max_recsize$[rsp], 32 ; 00000020H
$LN43@tf_MAX_REC:

; 4043 : 
; 4044 :     if (max_recsize < sizeof( TF01301 ))

  002cd	48 83 3c 24 38	 cmp	 QWORD PTR max_recsize$[rsp], 56 ; 00000038H
  002d2	73 08		 jae	 SHORT $LN44@tf_MAX_REC

; 4045 :         max_recsize = sizeof( TF01301 );

  002d4	48 c7 04 24 38
	00 00 00	 mov	 QWORD PTR max_recsize$[rsp], 56 ; 00000038H
$LN44@tf_MAX_REC:

; 4046 : 
; 4047 :     if (max_recsize < sizeof( TF01304 ))

  002dc	48 83 3c 24 18	 cmp	 QWORD PTR max_recsize$[rsp], 24
  002e1	73 08		 jae	 SHORT $LN45@tf_MAX_REC

; 4048 :         max_recsize = sizeof( TF01304 );

  002e3	48 c7 04 24 18
	00 00 00	 mov	 QWORD PTR max_recsize$[rsp], 24
$LN45@tf_MAX_REC:

; 4049 : 
; 4050 :     if (max_recsize < sizeof( TF01305 ))

  002eb	48 83 3c 24 18	 cmp	 QWORD PTR max_recsize$[rsp], 24
  002f0	73 08		 jae	 SHORT $LN46@tf_MAX_REC

; 4051 :         max_recsize = sizeof( TF01305 );

  002f2	48 c7 04 24 18
	00 00 00	 mov	 QWORD PTR max_recsize$[rsp], 24
$LN46@tf_MAX_REC:

; 4052 : 
; 4053 :     if (max_recsize < sizeof( TF01306 ))

  002fa	48 83 3c 24 18	 cmp	 QWORD PTR max_recsize$[rsp], 24
  002ff	73 08		 jae	 SHORT $LN47@tf_MAX_REC

; 4054 :         max_recsize = sizeof( TF01306 );

  00301	48 c7 04 24 18
	00 00 00	 mov	 QWORD PTR max_recsize$[rsp], 24
$LN47@tf_MAX_REC:

; 4055 : 
; 4056 :     if (max_recsize < sizeof( TF01307 ))

  00309	48 83 3c 24 18	 cmp	 QWORD PTR max_recsize$[rsp], 24
  0030e	73 08		 jae	 SHORT $LN48@tf_MAX_REC

; 4057 :         max_recsize = sizeof( TF01307 );

  00310	48 c7 04 24 18
	00 00 00	 mov	 QWORD PTR max_recsize$[rsp], 24
$LN48@tf_MAX_REC:

; 4058 : 
; 4059 :     if (max_recsize < sizeof( TF01308 ))

  00318	48 83 3c 24 18	 cmp	 QWORD PTR max_recsize$[rsp], 24
  0031d	73 08		 jae	 SHORT $LN49@tf_MAX_REC

; 4060 :         max_recsize = sizeof( TF01308 );

  0031f	48 c7 04 24 18
	00 00 00	 mov	 QWORD PTR max_recsize$[rsp], 24
$LN49@tf_MAX_REC:

; 4061 : 
; 4062 :     if (max_recsize < sizeof( TF01309 ))

  00327	48 83 3c 24 18	 cmp	 QWORD PTR max_recsize$[rsp], 24
  0032c	73 08		 jae	 SHORT $LN50@tf_MAX_REC

; 4063 :         max_recsize = sizeof( TF01309 );

  0032e	48 c7 04 24 18
	00 00 00	 mov	 QWORD PTR max_recsize$[rsp], 24
$LN50@tf_MAX_REC:

; 4064 : 
; 4065 :     if (max_recsize < sizeof( TF01310 ))

  00336	48 83 3c 24 18	 cmp	 QWORD PTR max_recsize$[rsp], 24
  0033b	73 08		 jae	 SHORT $LN51@tf_MAX_REC

; 4066 :         max_recsize = sizeof( TF01310 );

  0033d	48 c7 04 24 18
	00 00 00	 mov	 QWORD PTR max_recsize$[rsp], 24
$LN51@tf_MAX_REC:

; 4067 : 
; 4068 :     if (max_recsize < sizeof( TF01311 ))

  00345	48 83 3c 24 18	 cmp	 QWORD PTR max_recsize$[rsp], 24
  0034a	73 08		 jae	 SHORT $LN52@tf_MAX_REC

; 4069 :         max_recsize = sizeof( TF01311 );

  0034c	48 c7 04 24 18
	00 00 00	 mov	 QWORD PTR max_recsize$[rsp], 24
$LN52@tf_MAX_REC:

; 4070 : 
; 4071 :     if (max_recsize < sizeof( TF01312 ))

  00354	48 83 3c 24 30	 cmp	 QWORD PTR max_recsize$[rsp], 48 ; 00000030H
  00359	73 08		 jae	 SHORT $LN53@tf_MAX_REC

; 4072 :         max_recsize = sizeof( TF01312 );

  0035b	48 c7 04 24 30
	00 00 00	 mov	 QWORD PTR max_recsize$[rsp], 48 ; 00000030H
$LN53@tf_MAX_REC:

; 4073 : 
; 4074 :     if (max_recsize < sizeof( TF01313 ))

  00363	48 81 3c 24 b8
	00 00 00	 cmp	 QWORD PTR max_recsize$[rsp], 184 ; 000000b8H
  0036b	73 08		 jae	 SHORT $LN54@tf_MAX_REC

; 4075 :         max_recsize = sizeof( TF01313 );

  0036d	48 c7 04 24 b8
	00 00 00	 mov	 QWORD PTR max_recsize$[rsp], 184 ; 000000b8H
$LN54@tf_MAX_REC:

; 4076 : 
; 4077 :     if (max_recsize < sizeof( TF01315 ))

  00375	48 83 3c 24 38	 cmp	 QWORD PTR max_recsize$[rsp], 56 ; 00000038H
  0037a	73 08		 jae	 SHORT $LN55@tf_MAX_REC

; 4078 :         max_recsize = sizeof( TF01315 );

  0037c	48 c7 04 24 38
	00 00 00	 mov	 QWORD PTR max_recsize$[rsp], 56 ; 00000038H
$LN55@tf_MAX_REC:

; 4079 : 
; 4080 :     if (max_recsize < sizeof( TF01316 ))

  00384	48 83 3c 24 20	 cmp	 QWORD PTR max_recsize$[rsp], 32 ; 00000020H
  00389	73 08		 jae	 SHORT $LN56@tf_MAX_REC

; 4081 :         max_recsize = sizeof( TF01316 );

  0038b	48 c7 04 24 20
	00 00 00	 mov	 QWORD PTR max_recsize$[rsp], 32 ; 00000020H
$LN56@tf_MAX_REC:

; 4082 : 
; 4083 :     if (max_recsize < sizeof( TF01317 ))

  00393	48 83 3c 24 28	 cmp	 QWORD PTR max_recsize$[rsp], 40 ; 00000028H
  00398	73 08		 jae	 SHORT $LN57@tf_MAX_REC

; 4084 :         max_recsize = sizeof( TF01317 );

  0039a	48 c7 04 24 28
	00 00 00	 mov	 QWORD PTR max_recsize$[rsp], 40 ; 00000028H
$LN57@tf_MAX_REC:

; 4085 : 
; 4086 :     if (max_recsize < sizeof( TF01318 ))

  003a2	48 83 3c 24 20	 cmp	 QWORD PTR max_recsize$[rsp], 32 ; 00000020H
  003a7	73 08		 jae	 SHORT $LN58@tf_MAX_REC

; 4087 :         max_recsize = sizeof( TF01318 );

  003a9	48 c7 04 24 20
	00 00 00	 mov	 QWORD PTR max_recsize$[rsp], 32 ; 00000020H
$LN58@tf_MAX_REC:

; 4088 : 
; 4089 :     if (max_recsize < sizeof( TF01320 ))

  003b1	48 83 3c 24 18	 cmp	 QWORD PTR max_recsize$[rsp], 24
  003b6	73 08		 jae	 SHORT $LN59@tf_MAX_REC

; 4090 :         max_recsize = sizeof( TF01320 );

  003b8	48 c7 04 24 18
	00 00 00	 mov	 QWORD PTR max_recsize$[rsp], 24
$LN59@tf_MAX_REC:

; 4091 : 
; 4092 :     if (max_recsize < sizeof( TF01321 ))

  003c0	48 83 3c 24 18	 cmp	 QWORD PTR max_recsize$[rsp], 24
  003c5	73 08		 jae	 SHORT $LN60@tf_MAX_REC

; 4093 :         max_recsize = sizeof( TF01321 );

  003c7	48 c7 04 24 18
	00 00 00	 mov	 QWORD PTR max_recsize$[rsp], 24
$LN60@tf_MAX_REC:

; 4094 :     
; 4095 :     if (max_recsize < sizeof( TF01329 ))

  003cf	48 83 3c 24 18	 cmp	 QWORD PTR max_recsize$[rsp], 24
  003d4	73 08		 jae	 SHORT $LN61@tf_MAX_REC

; 4096 :         max_recsize = sizeof( TF01329 );

  003d6	48 c7 04 24 18
	00 00 00	 mov	 QWORD PTR max_recsize$[rsp], 24
$LN61@tf_MAX_REC:

; 4097 : 
; 4098 :     if (max_recsize < sizeof( TF01330 ))

  003de	48 83 3c 24 18	 cmp	 QWORD PTR max_recsize$[rsp], 24
  003e3	73 08		 jae	 SHORT $LN62@tf_MAX_REC

; 4099 :         max_recsize = sizeof( TF01330 );

  003e5	48 c7 04 24 18
	00 00 00	 mov	 QWORD PTR max_recsize$[rsp], 24
$LN62@tf_MAX_REC:

; 4100 : 
; 4101 :     if (max_recsize < sizeof( TF01331 ))

  003ed	48 83 3c 24 18	 cmp	 QWORD PTR max_recsize$[rsp], 24
  003f2	73 08		 jae	 SHORT $LN63@tf_MAX_REC

; 4102 :         max_recsize = sizeof( TF01331 );

  003f4	48 c7 04 24 18
	00 00 00	 mov	 QWORD PTR max_recsize$[rsp], 24
$LN63@tf_MAX_REC:

; 4103 : 
; 4104 :     if (max_recsize < sizeof( TF01332 ))

  003fc	48 83 3c 24 18	 cmp	 QWORD PTR max_recsize$[rsp], 24
  00401	73 08		 jae	 SHORT $LN64@tf_MAX_REC

; 4105 :         max_recsize = sizeof( TF01332 );

  00403	48 c7 04 24 18
	00 00 00	 mov	 QWORD PTR max_recsize$[rsp], 24
$LN64@tf_MAX_REC:

; 4106 : 
; 4107 :     if (max_recsize < sizeof( TF01333 ))

  0040b	48 83 3c 24 20	 cmp	 QWORD PTR max_recsize$[rsp], 32 ; 00000020H
  00410	73 08		 jae	 SHORT $LN65@tf_MAX_REC

; 4108 :         max_recsize = sizeof( TF01333 );

  00412	48 c7 04 24 20
	00 00 00	 mov	 QWORD PTR max_recsize$[rsp], 32 ; 00000020H
$LN65@tf_MAX_REC:

; 4109 : 
; 4110 :     if (max_recsize < sizeof( TF01334 ))

  0041a	48 83 3c 24 38	 cmp	 QWORD PTR max_recsize$[rsp], 56 ; 00000038H
  0041f	73 08		 jae	 SHORT $LN66@tf_MAX_REC

; 4111 :         max_recsize = sizeof( TF01334 );

  00421	48 c7 04 24 38
	00 00 00	 mov	 QWORD PTR max_recsize$[rsp], 56 ; 00000038H
$LN66@tf_MAX_REC:

; 4112 : 
; 4113 :     if (max_recsize < sizeof( TF01336 ))

  00429	48 83 3c 24 20	 cmp	 QWORD PTR max_recsize$[rsp], 32 ; 00000020H
  0042e	73 08		 jae	 SHORT $LN67@tf_MAX_REC

; 4114 :         max_recsize = sizeof( TF01336 );

  00430	48 c7 04 24 20
	00 00 00	 mov	 QWORD PTR max_recsize$[rsp], 32 ; 00000020H
$LN67@tf_MAX_REC:

; 4115 : 
; 4116 :     // Instruction tracing
; 4117 : 
; 4118 :     if (max_recsize < sizeof( TF02269 ))

  00438	48 81 3c 24 a0
	00 00 00	 cmp	 QWORD PTR max_recsize$[rsp], 160 ; 000000a0H
  00440	73 08		 jae	 SHORT $LN68@tf_MAX_REC

; 4119 :         max_recsize = sizeof( TF02269 );

  00442	48 c7 04 24 a0
	00 00 00	 mov	 QWORD PTR max_recsize$[rsp], 160 ; 000000a0H
$LN68@tf_MAX_REC:

; 4120 : 
; 4121 :     if (max_recsize < sizeof( TF02270 ))

  0044a	48 81 3c 24 a0
	00 00 00	 cmp	 QWORD PTR max_recsize$[rsp], 160 ; 000000a0H
  00452	73 08		 jae	 SHORT $LN69@tf_MAX_REC

; 4122 :         max_recsize = sizeof( TF02270 );

  00454	48 c7 04 24 a0
	00 00 00	 mov	 QWORD PTR max_recsize$[rsp], 160 ; 000000a0H
$LN69@tf_MAX_REC:

; 4123 : 
; 4124 :     if (max_recsize < sizeof( TF02271 ))

  0045c	48 81 3c 24 98
	00 00 00	 cmp	 QWORD PTR max_recsize$[rsp], 152 ; 00000098H
  00464	73 08		 jae	 SHORT $LN70@tf_MAX_REC

; 4125 :         max_recsize = sizeof( TF02271 );

  00466	48 c7 04 24 98
	00 00 00	 mov	 QWORD PTR max_recsize$[rsp], 152 ; 00000098H
$LN70@tf_MAX_REC:

; 4126 : 
; 4127 :     if (max_recsize < sizeof( TF02272 ))

  0046e	48 83 3c 24 58	 cmp	 QWORD PTR max_recsize$[rsp], 88 ; 00000058H
  00473	73 08		 jae	 SHORT $LN71@tf_MAX_REC

; 4128 :         max_recsize = sizeof( TF02272 );

  00475	48 c7 04 24 58
	00 00 00	 mov	 QWORD PTR max_recsize$[rsp], 88 ; 00000058H
$LN71@tf_MAX_REC:

; 4129 : 
; 4130 :     if (max_recsize < sizeof( TF02276 ))

  0047d	48 83 3c 24 20	 cmp	 QWORD PTR max_recsize$[rsp], 32 ; 00000020H
  00482	73 08		 jae	 SHORT $LN72@tf_MAX_REC

; 4131 :         max_recsize = sizeof( TF02276 );

  00484	48 c7 04 24 20
	00 00 00	 mov	 QWORD PTR max_recsize$[rsp], 32 ; 00000020H
$LN72@tf_MAX_REC:

; 4132 : 
; 4133 :     if (max_recsize < sizeof( TF02324))

  0048c	48 83 3c 24 50	 cmp	 QWORD PTR max_recsize$[rsp], 80 ; 00000050H
  00491	73 08		 jae	 SHORT $LN73@tf_MAX_REC

; 4134 :         max_recsize = sizeof( TF02324 );

  00493	48 c7 04 24 50
	00 00 00	 mov	 QWORD PTR max_recsize$[rsp], 80 ; 00000050H
$LN73@tf_MAX_REC:

; 4135 : 
; 4136 :     if (max_recsize < sizeof( TF02326))

  0049b	48 83 3c 24 70	 cmp	 QWORD PTR max_recsize$[rsp], 112 ; 00000070H
  004a0	73 08		 jae	 SHORT $LN74@tf_MAX_REC

; 4137 :         max_recsize = sizeof( TF02326 );

  004a2	48 c7 04 24 70
	00 00 00	 mov	 QWORD PTR max_recsize$[rsp], 112 ; 00000070H
$LN74@tf_MAX_REC:

; 4138 : 
; 4139 :     return

  004aa	48 8b 04 24	 mov	 rax, QWORD PTR max_recsize$[rsp]

; 4140 :         max_recsize;
; 4141 : }

  004ae	48 83 c4 18	 add	 rsp, 24
  004b2	c3		 ret	 0
tf_MAX_RECSIZE ENDP
_TEXT	ENDS
; Function compile flags: /Odtp
; File C:\papa\MyGit\hyperion-zvector\hscutl.c
_TEXT	SEGMENT
tv76 = 48
regs$ = 80
tf2326$ = 88
opcode1$ = 96
opcode2$ = 104
b1$ = 112
b2$ = 120
tf_2326	PROC

; 3892 : {

$LN6:
  00000	44 88 4c 24 20	 mov	 BYTE PTR [rsp+32], r9b
  00005	44 88 44 24 18	 mov	 BYTE PTR [rsp+24], r8b
  0000a	48 89 54 24 10	 mov	 QWORD PTR [rsp+16], rdx
  0000f	48 89 4c 24 08	 mov	 QWORD PTR [rsp+8], rcx
  00014	48 83 ec 48	 sub	 rsp, 72			; 00000048H

; 3893 :     if (tf2326->valid)

  00018	48 8b 44 24 58	 mov	 rax, QWORD PTR tf2326$[rsp]
  0001d	0f b6 40 18	 movzx	 eax, BYTE PTR [rax+24]
  00021	85 c0		 test	 eax, eax
  00023	0f 84 b9 00 00
	00		 je	 $LN2@tf_2326

; 3894 :     {
; 3895 :         tf2326->real_mode = REAL_MODE( &regs->psw );

  00029	48 8b 44 24 50	 mov	 rax, QWORD PTR regs$[rsp]
  0002e	0f b6 40 7a	 movzx	 eax, BYTE PTR [rax+122]
  00032	83 e0 08	 and	 eax, 8
  00035	85 c0		 test	 eax, eax
  00037	74 1a		 je	 SHORT $LN4@tf_2326
  00039	48 8b 44 24 50	 mov	 rax, QWORD PTR regs$[rsp]
  0003e	0f b6 40 78	 movzx	 eax, BYTE PTR [rax+120]
  00042	83 e0 04	 and	 eax, 4
  00045	85 c0		 test	 eax, eax
  00047	74 0a		 je	 SHORT $LN4@tf_2326
  00049	c7 44 24 30 00
	00 00 00	 mov	 DWORD PTR tv76[rsp], 0
  00051	eb 08		 jmp	 SHORT $LN5@tf_2326
$LN4@tf_2326:
  00053	c7 44 24 30 01
	00 00 00	 mov	 DWORD PTR tv76[rsp], 1
$LN5@tf_2326:
  0005b	48 8b 44 24 58	 mov	 rax, QWORD PTR tf2326$[rsp]
  00060	0f b6 4c 24 30	 movzx	 ecx, BYTE PTR tv76[rsp]
  00065	88 48 1a	 mov	 BYTE PTR [rax+26], cl

; 3896 :         tf2326->b1 = b1;

  00068	48 8b 44 24 58	 mov	 rax, QWORD PTR tf2326$[rsp]
  0006d	0f b7 4c 24 70	 movzx	 ecx, WORD PTR b1$[rsp]
  00072	66 89 48 1c	 mov	 WORD PTR [rax+28], cx

; 3897 :         tf2326->b2 = b2;

  00076	48 8b 44 24 58	 mov	 rax, QWORD PTR tf2326$[rsp]
  0007b	0f b7 4c 24 78	 movzx	 ecx, WORD PTR b2$[rsp]
  00080	66 89 48 1e	 mov	 WORD PTR [rax+30], cx

; 3898 :         tf_2326_op( regs, &tf2326->op1, opcode1, opcode2, b1, false );

  00084	48 8b 44 24 58	 mov	 rax, QWORD PTR tf2326$[rsp]
  00089	48 83 c0 20	 add	 rax, 32			; 00000020H
  0008d	c6 44 24 28 00	 mov	 BYTE PTR [rsp+40], 0
  00092	8b 4c 24 70	 mov	 ecx, DWORD PTR b1$[rsp]
  00096	89 4c 24 20	 mov	 DWORD PTR [rsp+32], ecx
  0009a	44 0f b6 4c 24
	68		 movzx	 r9d, BYTE PTR opcode2$[rsp]
  000a0	44 0f b6 44 24
	60		 movzx	 r8d, BYTE PTR opcode1$[rsp]
  000a6	48 8b d0	 mov	 rdx, rax
  000a9	48 8b 4c 24 50	 mov	 rcx, QWORD PTR regs$[rsp]
  000ae	e8 00 00 00 00	 call	 tf_2326_op

; 3899 :         tf_2326_op( regs, &tf2326->op2, opcode1, opcode2, b2, true  );

  000b3	48 8b 44 24 58	 mov	 rax, QWORD PTR tf2326$[rsp]
  000b8	48 83 c0 48	 add	 rax, 72			; 00000048H
  000bc	c6 44 24 28 01	 mov	 BYTE PTR [rsp+40], 1
  000c1	8b 4c 24 78	 mov	 ecx, DWORD PTR b2$[rsp]
  000c5	89 4c 24 20	 mov	 DWORD PTR [rsp+32], ecx
  000c9	44 0f b6 4c 24
	68		 movzx	 r9d, BYTE PTR opcode2$[rsp]
  000cf	44 0f b6 44 24
	60		 movzx	 r8d, BYTE PTR opcode1$[rsp]
  000d5	48 8b d0	 mov	 rdx, rax
  000d8	48 8b 4c 24 50	 mov	 rcx, QWORD PTR regs$[rsp]
  000dd	e8 00 00 00 00	 call	 tf_2326_op
$LN2@tf_2326:

; 3900 :     }
; 3901 :     return tf_write( regs, tf2326, sizeof( TF02326 ), 2326 );

  000e2	66 41 b9 16 09	 mov	 r9w, 2326		; 00000916H
  000e7	66 41 b8 70 00	 mov	 r8w, 112		; 00000070H
  000ec	48 8b 54 24 58	 mov	 rdx, QWORD PTR tf2326$[rsp]
  000f1	48 8b 4c 24 50	 mov	 rcx, QWORD PTR regs$[rsp]
  000f6	e8 00 00 00 00	 call	 tf_write

; 3902 : }

  000fb	48 83 c4 48	 add	 rsp, 72			; 00000048H
  000ff	c3		 ret	 0
tf_2326	ENDP
_TEXT	ENDS
; Function compile flags: /Odtp
; File C:\papa\MyGit\hyperion-zvector\hscutl.c
_TEXT	SEGMENT
tv76 = 32
tv77 = 36
rec$ = 48
__$ArrayPad$ = 128
regs$ = 176
inst$ = 184
tf_2324	PROC

; 3800 : {

$LN7:
  00000	48 89 54 24 10	 mov	 QWORD PTR [rsp+16], rdx
  00005	48 89 4c 24 08	 mov	 QWORD PTR [rsp+8], rcx
  0000a	56		 push	 rsi
  0000b	57		 push	 rdi
  0000c	48 81 ec 98 00
	00 00		 sub	 rsp, 152		; 00000098H
  00013	48 8b 05 00 00
	00 00		 mov	 rax, QWORD PTR __security_cookie
  0001a	48 33 c4	 xor	 rax, rsp
  0001d	48 89 84 24 80
	00 00 00	 mov	 QWORD PTR __$ArrayPad$[rsp], rax

; 3801 :     TF02324 rec;
; 3802 :     rec.sie =

  00025	48 8b 84 24 b0
	00 00 00	 mov	 rax, QWORD PTR regs$[rsp]
  0002d	8b 80 c8 08 00
	00		 mov	 eax, DWORD PTR [rax+2248]
  00033	d1 e8		 shr	 eax, 1
  00035	83 e0 01	 and	 eax, 1
  00038	88 44 24 73	 mov	 BYTE PTR rec$[rsp+67], al

; 3803 : #if defined( _FEATURE_SIE )
; 3804 :         SIE_MODE( regs );
; 3805 : #else
; 3806 :         false;
; 3807 : #endif
; 3808 :     rec.ilc = ILC( inst[0] ); // (value in regs not always right)

  0003c	b8 01 00 00 00	 mov	 eax, 1
  00041	48 6b c0 00	 imul	 rax, rax, 0
  00045	48 8b 8c 24 b8
	00 00 00	 mov	 rcx, QWORD PTR inst$[rsp]
  0004d	0f b6 04 01	 movzx	 eax, BYTE PTR [rcx+rax]
  00051	83 f8 40	 cmp	 eax, 64			; 00000040H
  00054	7d 0a		 jge	 SHORT $LN5@tf_2324
  00056	c7 44 24 24 02
	00 00 00	 mov	 DWORD PTR tv77[rsp], 2
  0005e	eb 36		 jmp	 SHORT $LN6@tf_2324
$LN5@tf_2324:
  00060	b8 01 00 00 00	 mov	 eax, 1
  00065	48 6b c0 00	 imul	 rax, rax, 0
  00069	48 8b 8c 24 b8
	00 00 00	 mov	 rcx, QWORD PTR inst$[rsp]
  00071	0f b6 04 01	 movzx	 eax, BYTE PTR [rcx+rax]
  00075	3d c0 00 00 00	 cmp	 eax, 192		; 000000c0H
  0007a	7d 0a		 jge	 SHORT $LN3@tf_2324
  0007c	c7 44 24 20 04
	00 00 00	 mov	 DWORD PTR tv76[rsp], 4
  00084	eb 08		 jmp	 SHORT $LN4@tf_2324
$LN3@tf_2324:
  00086	c7 44 24 20 06
	00 00 00	 mov	 DWORD PTR tv76[rsp], 6
$LN4@tf_2324:
  0008e	8b 44 24 20	 mov	 eax, DWORD PTR tv76[rsp]
  00092	89 44 24 24	 mov	 DWORD PTR tv77[rsp], eax
$LN6@tf_2324:
  00096	0f b6 44 24 24	 movzx	 eax, BYTE PTR tv77[rsp]
  0009b	88 44 24 74	 mov	 BYTE PTR rec$[rsp+68], al

; 3809 :     memcpy( &rec.psw,  &regs->psw, sizeof( rec.psw ));

  0009f	48 8d 44 24 48	 lea	 rax, QWORD PTR rec$[rsp+24]
  000a4	48 8b 8c 24 b0
	00 00 00	 mov	 rcx, QWORD PTR regs$[rsp]
  000ac	48 8b f8	 mov	 rdi, rax
  000af	48 8d 71 78	 lea	 rsi, QWORD PTR [rcx+120]
  000b3	b9 28 00 00 00	 mov	 ecx, 40			; 00000028H
  000b8	f3 a4		 rep movsb

; 3810 :     memcpy( rec.inst, inst, rec.ilc );

  000ba	0f b6 44 24 74	 movzx	 eax, BYTE PTR rec$[rsp+68]
  000bf	48 8d 4c 24 78	 lea	 rcx, QWORD PTR rec$[rsp+72]
  000c4	48 8b f9	 mov	 rdi, rcx
  000c7	48 8b b4 24 b8
	00 00 00	 mov	 rsi, QWORD PTR inst$[rsp]
  000cf	8b c8		 mov	 ecx, eax
  000d1	f3 a4		 rep movsb

; 3811 :     rec.amode64 = rec.psw.amode64;

  000d3	8b 44 24 50	 mov	 eax, DWORD PTR rec$[rsp+32]
  000d7	83 e0 01	 and	 eax, 1
  000da	88 44 24 70	 mov	 BYTE PTR rec$[rsp+64], al

; 3812 :     rec.amode   = rec.psw.amode;

  000de	8b 44 24 50	 mov	 eax, DWORD PTR rec$[rsp+32]
  000e2	d1 e8		 shr	 eax, 1
  000e4	83 e0 01	 and	 eax, 1
  000e7	88 44 24 71	 mov	 BYTE PTR rec$[rsp+65], al

; 3813 :     rec.zeroilc = rec.psw.zeroilc;

  000eb	8b 44 24 50	 mov	 eax, DWORD PTR rec$[rsp+32]
  000ef	c1 e8 02	 shr	 eax, 2
  000f2	83 e0 01	 and	 eax, 1
  000f5	88 44 24 72	 mov	 BYTE PTR rec$[rsp+66], al

; 3814 :     return tf_write( regs, &rec, sizeof( TF02324 ), 2324 );

  000f9	66 41 b9 14 09	 mov	 r9w, 2324		; 00000914H
  000fe	66 41 b8 50 00	 mov	 r8w, 80			; 00000050H
  00103	48 8d 54 24 30	 lea	 rdx, QWORD PTR rec$[rsp]
  00108	48 8b 8c 24 b0
	00 00 00	 mov	 rcx, QWORD PTR regs$[rsp]
  00110	e8 00 00 00 00	 call	 tf_write

; 3815 : }

  00115	48 8b 8c 24 80
	00 00 00	 mov	 rcx, QWORD PTR __$ArrayPad$[rsp]
  0011d	48 33 cc	 xor	 rcx, rsp
  00120	e8 00 00 00 00	 call	 __security_check_cookie
  00125	48 81 c4 98 00
	00 00		 add	 rsp, 152		; 00000098H
  0012c	5f		 pop	 rdi
  0012d	5e		 pop	 rsi
  0012e	c3		 ret	 0
tf_2324	ENDP
_TEXT	ENDS
; Function compile flags: /Odtp
; File C:\papa\MyGit\hyperion-zvector\hscutl.c
_TEXT	SEGMENT
rec$ = 32
__$ArrayPad$ = 576
regs$ = 624
tf_2277	PROC

; 3790 : {

$LN3:
  00000	48 89 4c 24 08	 mov	 QWORD PTR [rsp+8], rcx
  00005	56		 push	 rsi
  00006	57		 push	 rdi
  00007	48 81 ec 58 02
	00 00		 sub	 rsp, 600		; 00000258H
  0000e	48 8b 05 00 00
	00 00		 mov	 rax, QWORD PTR __security_cookie
  00015	48 33 c4	 xor	 rax, rsp
  00018	48 89 84 24 40
	02 00 00	 mov	 QWORD PTR __$ArrayPad$[rsp], rax

; 3791 :     TF02277 rec;
; 3792 :     memcpy(rec.vr, regs->vr, sizeof(rec.vr));

  00020	48 8d 44 24 38	 lea	 rax, QWORD PTR rec$[rsp+24]
  00025	48 8b 8c 24 70
	02 00 00	 mov	 rcx, QWORD PTR regs$[rsp]
  0002d	48 8b f8	 mov	 rdi, rax
  00030	48 8d b1 c4 03
	00 00		 lea	 rsi, QWORD PTR [rcx+964]
  00037	b9 00 02 00 00	 mov	 ecx, 512		; 00000200H
  0003c	f3 a4		 rep movsb

; 3793 :     return tf_write(regs, &rec, sizeof(TF02277), 2277);

  0003e	66 41 b9 e5 08	 mov	 r9w, 2277		; 000008e5H
  00043	66 41 b8 18 02	 mov	 r8w, 536		; 00000218H
  00048	48 8d 54 24 20	 lea	 rdx, QWORD PTR rec$[rsp]
  0004d	48 8b 8c 24 70
	02 00 00	 mov	 rcx, QWORD PTR regs$[rsp]
  00055	e8 00 00 00 00	 call	 tf_write

; 3794 : }

  0005a	48 8b 8c 24 40
	02 00 00	 mov	 rcx, QWORD PTR __$ArrayPad$[rsp]
  00062	48 33 cc	 xor	 rcx, rsp
  00065	e8 00 00 00 00	 call	 __security_check_cookie
  0006a	48 81 c4 58 02
	00 00		 add	 rsp, 600		; 00000258H
  00071	5f		 pop	 rdi
  00072	5e		 pop	 rsi
  00073	c3		 ret	 0
tf_2277	ENDP
_TEXT	ENDS
; Function compile flags: /Odtp
; File C:\papa\MyGit\hyperion-zvector\hscutl.c
_TEXT	SEGMENT
tv71 = 32
rec$ = 40
__$ArrayPad$ = 72
regs$ = 96
tf_2276	PROC

; 3779 : {

$LN5:
  00000	48 89 4c 24 08	 mov	 QWORD PTR [rsp+8], rcx
  00005	48 83 ec 58	 sub	 rsp, 88			; 00000058H
  00009	48 8b 05 00 00
	00 00		 mov	 rax, QWORD PTR __security_cookie
  00010	48 33 c4	 xor	 rax, rsp
  00013	48 89 44 24 48	 mov	 QWORD PTR __$ArrayPad$[rsp], rax

; 3780 :     TF02276 rec;
; 3781 :     rec.fpc = regs->fpc;

  00018	48 8b 44 24 60	 mov	 rax, QWORD PTR regs$[rsp]
  0001d	8b 80 c0 03 00
	00		 mov	 eax, DWORD PTR [rax+960]
  00023	89 44 24 40	 mov	 DWORD PTR rec$[rsp+24], eax

; 3782 :     rec.afp = (regs->CR(0) & CR0_AFP) ? true : false;

  00027	b8 08 00 00 00	 mov	 eax, 8
  0002c	48 6b c0 01	 imul	 rax, rax, 1
  00030	48 8b 4c 24 60	 mov	 rcx, QWORD PTR regs$[rsp]
  00035	8b 84 01 00 06
	00 00		 mov	 eax, DWORD PTR [rcx+rax+1536]
  0003c	25 00 00 04 00	 and	 eax, 262144		; 00040000H
  00041	85 c0		 test	 eax, eax
  00043	74 0a		 je	 SHORT $LN3@tf_2276
  00045	c7 44 24 20 01
	00 00 00	 mov	 DWORD PTR tv71[rsp], 1
  0004d	eb 08		 jmp	 SHORT $LN4@tf_2276
$LN3@tf_2276:
  0004f	c7 44 24 20 00
	00 00 00	 mov	 DWORD PTR tv71[rsp], 0
$LN4@tf_2276:
  00057	0f b6 44 24 20	 movzx	 eax, BYTE PTR tv71[rsp]
  0005c	88 44 24 44	 mov	 BYTE PTR rec$[rsp+28], al

; 3783 :     return tf_write( regs, &rec, sizeof( TF02276 ), 2276 );

  00060	66 41 b9 e4 08	 mov	 r9w, 2276		; 000008e4H
  00065	66 41 b8 20 00	 mov	 r8w, 32			; 00000020H
  0006a	48 8d 54 24 28	 lea	 rdx, QWORD PTR rec$[rsp]
  0006f	48 8b 4c 24 60	 mov	 rcx, QWORD PTR regs$[rsp]
  00074	e8 00 00 00 00	 call	 tf_write

; 3784 : }

  00079	48 8b 4c 24 48	 mov	 rcx, QWORD PTR __$ArrayPad$[rsp]
  0007e	48 33 cc	 xor	 rcx, rsp
  00081	e8 00 00 00 00	 call	 __security_check_cookie
  00086	48 83 c4 58	 add	 rsp, 88			; 00000058H
  0008a	c3		 ret	 0
tf_2276	ENDP
_TEXT	ENDS
; Function compile flags: /Odtp
; File C:\papa\MyGit\hyperion-zvector\hscutl.c
_TEXT	SEGMENT
rec$ = 32
__$ArrayPad$ = 128
regs$ = 176
tf_2272	PROC

; 3769 : {

$LN3:
  00000	48 89 4c 24 08	 mov	 QWORD PTR [rsp+8], rcx
  00005	56		 push	 rsi
  00006	57		 push	 rdi
  00007	48 81 ec 98 00
	00 00		 sub	 rsp, 152		; 00000098H
  0000e	48 8b 05 00 00
	00 00		 mov	 rax, QWORD PTR __security_cookie
  00015	48 33 c4	 xor	 rax, rsp
  00018	48 89 84 24 80
	00 00 00	 mov	 QWORD PTR __$ArrayPad$[rsp], rax

; 3770 :     TF02272 rec;
; 3771 :     memcpy( rec.ar, regs->ar, sizeof( rec.ar ));

  00020	48 8d 44 24 38	 lea	 rax, QWORD PTR rec$[rsp+24]
  00025	48 8b 8c 24 b0
	00 00 00	 mov	 rcx, QWORD PTR regs$[rsp]
  0002d	48 8b f8	 mov	 rdi, rax
  00030	48 8d b1 00 03
	00 00		 lea	 rsi, QWORD PTR [rcx+768]
  00037	b9 40 00 00 00	 mov	 ecx, 64			; 00000040H
  0003c	f3 a4		 rep movsb

; 3772 :     return tf_write( regs, &rec, sizeof( TF02272 ), 2272 );

  0003e	66 41 b9 e0 08	 mov	 r9w, 2272		; 000008e0H
  00043	66 41 b8 58 00	 mov	 r8w, 88			; 00000058H
  00048	48 8d 54 24 20	 lea	 rdx, QWORD PTR rec$[rsp]
  0004d	48 8b 8c 24 b0
	00 00 00	 mov	 rcx, QWORD PTR regs$[rsp]
  00055	e8 00 00 00 00	 call	 tf_write

