; Listing generated by Microsoft (R) Optimizing Compiler Version 19.34.31937.0 

include listing.inc

INCLUDELIB MSVCRTD
INCLUDELIB OLDNAMES

PUBLIC	sysblk
PUBLIC	extgui
PUBLIC	panel_display
PUBLIC	daemon_task
PUBLIC	panel_command
PUBLIC	system_command
PUBLIC	replace_opcode
PUBLIC	debug_tt32_stats
PUBLIC	debug_tt32_tracing
PUBLIC	debug_cd_cmd
PUBLIC	debug_cpu_state
PUBLIC	debug_watchdog_signal
PUBLIC	debug_program_interrupt
PUBLIC	debug_diagnose
PUBLIC	debug_sclp_unknown_command
PUBLIC	debug_sclp_unknown_event
PUBLIC	debug_sclp_unknown_event_mask
PUBLIC	debug_sclp_event_data
PUBLIC	debug_chsc_unknown_request
_BSS	SEGMENT
sysblk	DB	017600H DUP (?)
extgui	DD	01H DUP (?)
	ALIGN	8

panel_display DQ 01H DUP (?)
daemon_task DQ	01H DUP (?)
panel_command DQ 01H DUP (?)
system_command DQ 01H DUP (?)
replace_opcode DQ 01H DUP (?)
debug_tt32_stats DQ 01H DUP (?)
debug_tt32_tracing DQ 01H DUP (?)
debug_cd_cmd DQ	01H DUP (?)
debug_cpu_state DQ 01H DUP (?)
debug_watchdog_signal DQ 01H DUP (?)
debug_program_interrupt DQ 01H DUP (?)
debug_diagnose DQ 01H DUP (?)
debug_sclp_unknown_command DQ 01H DUP (?)
debug_sclp_unknown_event DQ 01H DUP (?)
debug_sclp_unknown_event_mask DQ 01H DUP (?)
debug_sclp_event_data DQ 01H DUP (?)
debug_chsc_unknown_request DQ 01H DUP (?)
_BSS	ENDS
CONST	SEGMENT
CKD_ENDTRK DB	0ffH
	DB	0ffH
	DB	0ffH
	DB	0ffH
	DB	0ffH
	DB	0ffH
	DB	0ffH
	DB	0ffH
CONST	ENDS
END
