; Listing generated by Microsoft (R) Optimizing Compiler Version 19.34.31937.0 

include listing.inc

INCLUDELIB MSVCRTD
INCLUDELIB OLDNAMES

PUBLIC	map_valid_m3_values_FPX
PUBLIC	map_valid_m3_values_NOFPX
CONST	SEGMENT
CKD_ENDTRK DB	0ffH
	DB	0ffH
	DB	0ffH
	DB	0ffH
	DB	0ffH
	DB	0ffH
	DB	0ffH
	DB	0ffH
float64_default_qnan DQ 7ff8000000000000H
float32_default_qnan DD 07fc00000H
	ORG $+4
map_m3_to_sf_rm DB 00H
	DB	04H
	DB	00H
	DB	05H
	DB	00H
	DB	01H
	DB	03H
	DB	02H
map_fpc_brm_to_sf_rm DB 00H
	DB	01H
	DB	03H
	DB	02H
	DB	00H
	DB	00H
	DB	00H
	DB	05H
map_valid_m3_values_FPX DB 01H
	DB	01H
	DB	00H
	DB	01H
	DB	01H
	DB	01H
	DB	01H
	DB	01H
map_valid_m3_values_NOFPX DB 01H
	DB	01H
	DB	00H
	DB	00H
	DB	01H
	DB	01H
	DB	01H
	DB	01H
CONST	ENDS
PUBLIC	s370_convert_u32_to_bfp_ext_reg
PUBLIC	s370_convert_u32_to_bfp_long_reg
PUBLIC	s370_convert_u32_to_bfp_short_reg
PUBLIC	s370_convert_u64_to_bfp_ext_reg
PUBLIC	s370_convert_u64_to_bfp_long_reg
PUBLIC	s370_convert_u64_to_bfp_short_reg
PUBLIC	s370_convert_bfp_ext_to_u32_reg
PUBLIC	s370_convert_bfp_long_to_u32_reg
PUBLIC	s370_convert_bfp_short_to_u32_reg
PUBLIC	s370_convert_bfp_ext_to_u64_reg
PUBLIC	s370_convert_bfp_long_to_u64_reg
PUBLIC	s370_convert_bfp_short_to_u64_reg
PUBLIC	s370_add_bfp_ext_reg
PUBLIC	s370_add_bfp_long
PUBLIC	s370_add_bfp_long_reg
PUBLIC	s370_add_bfp_short
PUBLIC	s370_add_bfp_short_reg
PUBLIC	s370_compare_and_signal_bfp_ext_reg
PUBLIC	s370_compare_and_signal_bfp_long
PUBLIC	s370_compare_and_signal_bfp_long_reg
PUBLIC	s370_compare_and_signal_bfp_short
PUBLIC	s370_compare_and_signal_bfp_short_reg
PUBLIC	s370_compare_bfp_ext_reg
PUBLIC	s370_compare_bfp_long
PUBLIC	s370_compare_bfp_long_reg
PUBLIC	s370_compare_bfp_short
PUBLIC	s370_compare_bfp_short_reg
PUBLIC	s370_convert_bfp_ext_to_fix32_reg
PUBLIC	s370_convert_bfp_long_to_fix32_reg
PUBLIC	s370_convert_bfp_short_to_fix32_reg
PUBLIC	s370_convert_fix32_to_bfp_ext_reg
PUBLIC	s370_convert_fix32_to_bfp_long_reg
PUBLIC	s370_convert_fix32_to_bfp_short_reg
PUBLIC	s370_divide_bfp_ext_reg
PUBLIC	s370_divide_bfp_long
PUBLIC	s370_divide_bfp_long_reg
PUBLIC	s370_divide_bfp_short
PUBLIC	s370_divide_bfp_short_reg
PUBLIC	s370_divide_integer_bfp_long_reg
PUBLIC	s370_divide_integer_bfp_short_reg
PUBLIC	s370_load_and_test_bfp_ext_reg
PUBLIC	s370_load_and_test_bfp_long_reg
PUBLIC	s370_load_and_test_bfp_short_reg
PUBLIC	s370_load_complement_bfp_ext_reg
PUBLIC	s370_load_complement_bfp_long_reg
PUBLIC	s370_load_complement_bfp_short_reg
PUBLIC	s370_load_fp_int_bfp_ext_reg
PUBLIC	s370_load_fp_int_bfp_long_reg
PUBLIC	s370_load_fp_int_bfp_short_reg
PUBLIC	s370_load_lengthened_bfp_long_to_ext
PUBLIC	s370_load_lengthened_bfp_long_to_ext_reg
PUBLIC	s370_load_lengthened_bfp_short_to_ext
PUBLIC	s370_load_lengthened_bfp_short_to_ext_reg
PUBLIC	s370_load_lengthened_bfp_short_to_long
PUBLIC	s370_load_lengthened_bfp_short_to_long_reg
PUBLIC	s370_load_negative_bfp_ext_reg
PUBLIC	s370_load_negative_bfp_long_reg
PUBLIC	s370_load_negative_bfp_short_reg
PUBLIC	s370_load_positive_bfp_ext_reg
PUBLIC	s370_load_positive_bfp_long_reg
PUBLIC	s370_load_positive_bfp_short_reg
PUBLIC	s370_load_rounded_bfp_ext_to_long_reg
PUBLIC	s370_load_rounded_bfp_ext_to_short_reg
PUBLIC	s370_load_rounded_bfp_long_to_short_reg
PUBLIC	s370_multiply_add_bfp_long
PUBLIC	s370_multiply_add_bfp_long_reg
PUBLIC	s370_multiply_add_bfp_short
PUBLIC	s370_multiply_add_bfp_short_reg
PUBLIC	s370_multiply_bfp_ext_reg
PUBLIC	s370_multiply_bfp_long
PUBLIC	s370_multiply_bfp_long_reg
PUBLIC	s370_multiply_bfp_long_to_ext
PUBLIC	s370_multiply_bfp_long_to_ext_reg
PUBLIC	s370_multiply_bfp_short
PUBLIC	s370_multiply_bfp_short_reg
PUBLIC	s370_multiply_bfp_short_to_long
PUBLIC	s370_multiply_bfp_short_to_long_reg
PUBLIC	s370_multiply_subtract_bfp_long
PUBLIC	s370_multiply_subtract_bfp_long_reg
PUBLIC	s370_multiply_subtract_bfp_short
PUBLIC	s370_multiply_subtract_bfp_short_reg
PUBLIC	s370_squareroot_bfp_ext_reg
PUBLIC	s370_squareroot_bfp_long
PUBLIC	s370_squareroot_bfp_long_reg
PUBLIC	s370_squareroot_bfp_short
PUBLIC	s370_squareroot_bfp_short_reg
PUBLIC	s370_subtract_bfp_ext_reg
PUBLIC	s370_subtract_bfp_long
PUBLIC	s370_subtract_bfp_long_reg
PUBLIC	s370_subtract_bfp_short
PUBLIC	s370_subtract_bfp_short_reg
PUBLIC	s370_test_data_class_bfp_ext
PUBLIC	s370_test_data_class_bfp_long
PUBLIC	s370_test_data_class_bfp_short
PUBLIC	fetch_fw_noswap
PUBLIC	fetch_dw_noswap
PUBLIC	s370_maddr_l
PUBLIC	s370_vfetch4_full
PUBLIC	s370_vfetch8_full
PUBLIC	s370_vfetch4
PUBLIC	s370_vfetch8
PUBLIC	s390_add_bfp_ext_reg
PUBLIC	s390_add_bfp_long
PUBLIC	s390_add_bfp_long_reg
PUBLIC	s390_add_bfp_short
PUBLIC	s390_add_bfp_short_reg
PUBLIC	s390_compare_and_signal_bfp_ext_reg
PUBLIC	s390_compare_and_signal_bfp_long
PUBLIC	s390_compare_and_signal_bfp_long_reg
PUBLIC	s390_compare_and_signal_bfp_short
PUBLIC	s390_compare_and_signal_bfp_short_reg
PUBLIC	s390_compare_bfp_ext_reg
PUBLIC	s390_compare_bfp_long
PUBLIC	s390_compare_bfp_long_reg
PUBLIC	s390_compare_bfp_short
PUBLIC	s390_compare_bfp_short_reg
PUBLIC	s390_convert_bfp_ext_to_fix32_reg
PUBLIC	s390_convert_bfp_long_to_fix32_reg
PUBLIC	s390_convert_bfp_short_to_fix32_reg
PUBLIC	s390_convert_fix32_to_bfp_ext_reg
PUBLIC	s390_convert_fix32_to_bfp_long_reg
PUBLIC	s390_convert_fix32_to_bfp_short_reg
PUBLIC	s390_divide_bfp_ext_reg
PUBLIC	s390_divide_bfp_long
PUBLIC	s390_divide_bfp_long_reg
PUBLIC	s390_divide_bfp_short
PUBLIC	s390_divide_bfp_short_reg
PUBLIC	s390_divide_integer_bfp_long_reg
PUBLIC	s390_divide_integer_bfp_short_reg
PUBLIC	s390_load_and_test_bfp_ext_reg
PUBLIC	s390_load_and_test_bfp_long_reg
PUBLIC	s390_load_and_test_bfp_short_reg
PUBLIC	s390_load_complement_bfp_ext_reg
PUBLIC	s390_load_complement_bfp_long_reg
PUBLIC	s390_load_complement_bfp_short_reg
PUBLIC	s390_load_fp_int_bfp_ext_reg
PUBLIC	s390_load_fp_int_bfp_long_reg
PUBLIC	s390_load_fp_int_bfp_short_reg
PUBLIC	s390_load_lengthened_bfp_long_to_ext
PUBLIC	s390_load_lengthened_bfp_long_to_ext_reg
PUBLIC	s390_load_lengthened_bfp_short_to_ext
PUBLIC	s390_load_lengthened_bfp_short_to_ext_reg
PUBLIC	s390_load_lengthened_bfp_short_to_long
PUBLIC	s390_load_lengthened_bfp_short_to_long_reg
PUBLIC	s390_load_negative_bfp_ext_reg
PUBLIC	s390_load_negative_bfp_long_reg
PUBLIC	s390_load_negative_bfp_short_reg
PUBLIC	s390_load_positive_bfp_ext_reg
PUBLIC	s390_load_positive_bfp_long_reg
PUBLIC	s390_load_positive_bfp_short_reg
PUBLIC	s390_load_rounded_bfp_ext_to_long_reg
PUBLIC	s390_load_rounded_bfp_ext_to_short_reg
PUBLIC	s390_load_rounded_bfp_long_to_short_reg
PUBLIC	s390_multiply_add_bfp_long
PUBLIC	s390_multiply_add_bfp_long_reg
PUBLIC	s390_multiply_add_bfp_short
PUBLIC	s390_multiply_add_bfp_short_reg
PUBLIC	s390_multiply_bfp_ext_reg
PUBLIC	s390_multiply_bfp_long
PUBLIC	s390_multiply_bfp_long_reg
PUBLIC	s390_multiply_bfp_long_to_ext
PUBLIC	s390_multiply_bfp_long_to_ext_reg
PUBLIC	s390_multiply_bfp_short
PUBLIC	s390_multiply_bfp_short_reg
PUBLIC	s390_multiply_bfp_short_to_long
PUBLIC	s390_multiply_bfp_short_to_long_reg
PUBLIC	s390_multiply_subtract_bfp_long
PUBLIC	s390_multiply_subtract_bfp_long_reg
PUBLIC	s390_multiply_subtract_bfp_short
PUBLIC	s390_multiply_subtract_bfp_short_reg
PUBLIC	s390_squareroot_bfp_ext_reg
PUBLIC	s390_squareroot_bfp_long
PUBLIC	s390_squareroot_bfp_long_reg
PUBLIC	s390_squareroot_bfp_short
PUBLIC	s390_squareroot_bfp_short_reg
PUBLIC	s390_subtract_bfp_ext_reg
PUBLIC	s390_subtract_bfp_long
PUBLIC	s390_subtract_bfp_long_reg
PUBLIC	s390_subtract_bfp_short
PUBLIC	s390_subtract_bfp_short_reg
PUBLIC	s390_test_data_class_bfp_ext
PUBLIC	s390_test_data_class_bfp_long
PUBLIC	s390_test_data_class_bfp_short
PUBLIC	s390_convert_bfp_long_to_float_long_reg
PUBLIC	s390_convert_bfp_short_to_float_long_reg
PUBLIC	s390_convert_float_long_to_bfp_long_reg
PUBLIC	s390_convert_float_long_to_bfp_short_reg
PUBLIC	s390_maddr_l
PUBLIC	s390_vfetch4_full
PUBLIC	s390_vfetch8_full
PUBLIC	s390_vfetch4
PUBLIC	s390_vfetch8
PUBLIC	z900_convert_u32_to_bfp_ext_reg
PUBLIC	z900_convert_u32_to_bfp_long_reg
PUBLIC	z900_convert_u32_to_bfp_short_reg
PUBLIC	z900_convert_u64_to_bfp_ext_reg
PUBLIC	z900_convert_u64_to_bfp_long_reg
PUBLIC	z900_convert_u64_to_bfp_short_reg
PUBLIC	z900_convert_bfp_ext_to_u32_reg
PUBLIC	z900_convert_bfp_long_to_u32_reg
PUBLIC	z900_convert_bfp_short_to_u32_reg
PUBLIC	z900_convert_bfp_ext_to_u64_reg
PUBLIC	z900_convert_bfp_long_to_u64_reg
PUBLIC	z900_convert_bfp_short_to_u64_reg
PUBLIC	z900_add_bfp_ext_reg
PUBLIC	z900_add_bfp_long
PUBLIC	z900_add_bfp_long_reg
PUBLIC	z900_add_bfp_short
PUBLIC	z900_add_bfp_short_reg
PUBLIC	z900_compare_and_signal_bfp_ext_reg
PUBLIC	z900_compare_and_signal_bfp_long
PUBLIC	z900_compare_and_signal_bfp_long_reg
PUBLIC	z900_compare_and_signal_bfp_short
PUBLIC	z900_compare_and_signal_bfp_short_reg
PUBLIC	z900_compare_bfp_ext_reg
PUBLIC	z900_compare_bfp_long
PUBLIC	z900_compare_bfp_long_reg
PUBLIC	z900_compare_bfp_short
PUBLIC	z900_compare_bfp_short_reg
PUBLIC	z900_convert_bfp_ext_to_fix32_reg
PUBLIC	z900_convert_bfp_ext_to_fix64_reg
PUBLIC	z900_convert_bfp_long_to_fix32_reg
PUBLIC	z900_convert_bfp_long_to_fix64_reg
PUBLIC	z900_convert_bfp_short_to_fix32_reg
PUBLIC	z900_convert_bfp_short_to_fix64_reg
PUBLIC	z900_convert_fix32_to_bfp_ext_reg
PUBLIC	z900_convert_fix32_to_bfp_long_reg
PUBLIC	z900_convert_fix32_to_bfp_short_reg
PUBLIC	z900_convert_fix64_to_bfp_ext_reg
PUBLIC	z900_convert_fix64_to_bfp_long_reg
PUBLIC	z900_convert_fix64_to_bfp_short_reg
PUBLIC	z900_divide_bfp_ext_reg
PUBLIC	z900_divide_bfp_long
PUBLIC	z900_divide_bfp_long_reg
PUBLIC	z900_divide_bfp_short
PUBLIC	z900_divide_bfp_short_reg
PUBLIC	z900_divide_integer_bfp_long_reg
PUBLIC	z900_divide_integer_bfp_short_reg
PUBLIC	z900_load_and_test_bfp_ext_reg
PUBLIC	z900_load_and_test_bfp_long_reg
PUBLIC	z900_load_and_test_bfp_short_reg
PUBLIC	z900_load_complement_bfp_ext_reg
PUBLIC	z900_load_complement_bfp_long_reg
PUBLIC	z900_load_complement_bfp_short_reg
PUBLIC	z900_load_fp_int_bfp_ext_reg
PUBLIC	z900_load_fp_int_bfp_long_reg
PUBLIC	z900_load_fp_int_bfp_short_reg
PUBLIC	z900_load_lengthened_bfp_long_to_ext
PUBLIC	z900_load_lengthened_bfp_long_to_ext_reg
PUBLIC	z900_load_lengthened_bfp_short_to_ext
PUBLIC	z900_load_lengthened_bfp_short_to_ext_reg
PUBLIC	z900_load_lengthened_bfp_short_to_long
PUBLIC	z900_load_lengthened_bfp_short_to_long_reg
PUBLIC	z900_load_negative_bfp_ext_reg
PUBLIC	z900_load_negative_bfp_long_reg
PUBLIC	z900_load_negative_bfp_short_reg
PUBLIC	z900_load_positive_bfp_ext_reg
PUBLIC	z900_load_positive_bfp_long_reg
PUBLIC	z900_load_positive_bfp_short_reg
PUBLIC	z900_load_rounded_bfp_ext_to_long_reg
PUBLIC	z900_load_rounded_bfp_ext_to_short_reg
PUBLIC	z900_load_rounded_bfp_long_to_short_reg
PUBLIC	z900_multiply_add_bfp_long
PUBLIC	z900_multiply_add_bfp_long_reg
PUBLIC	z900_multiply_add_bfp_short
PUBLIC	z900_multiply_add_bfp_short_reg
PUBLIC	z900_multiply_bfp_ext_reg
PUBLIC	z900_multiply_bfp_long
PUBLIC	z900_multiply_bfp_long_reg
PUBLIC	z900_multiply_bfp_long_to_ext
PUBLIC	z900_multiply_bfp_long_to_ext_reg
PUBLIC	z900_multiply_bfp_short
PUBLIC	z900_multiply_bfp_short_reg
PUBLIC	z900_multiply_bfp_short_to_long
PUBLIC	z900_multiply_bfp_short_to_long_reg
PUBLIC	z900_multiply_subtract_bfp_long
PUBLIC	z900_multiply_subtract_bfp_long_reg
PUBLIC	z900_multiply_subtract_bfp_short
PUBLIC	z900_multiply_subtract_bfp_short_reg
PUBLIC	z900_squareroot_bfp_ext_reg
PUBLIC	z900_squareroot_bfp_long
PUBLIC	z900_squareroot_bfp_long_reg
PUBLIC	z900_squareroot_bfp_short
PUBLIC	z900_squareroot_bfp_short_reg
PUBLIC	z900_subtract_bfp_ext_reg
PUBLIC	z900_subtract_bfp_long
PUBLIC	z900_subtract_bfp_long_reg
PUBLIC	z900_subtract_bfp_short
PUBLIC	z900_subtract_bfp_short_reg
PUBLIC	z900_test_data_class_bfp_ext
PUBLIC	z900_test_data_class_bfp_long
PUBLIC	z900_test_data_class_bfp_short
PUBLIC	z900_convert_bfp_long_to_float_long_reg
PUBLIC	z900_convert_bfp_short_to_float_long_reg
PUBLIC	z900_convert_float_long_to_bfp_long_reg
PUBLIC	z900_convert_float_long_to_bfp_short_reg
PUBLIC	z900_is_per3_event_suppressed
PUBLIC	z900_per3_zero
PUBLIC	z900_per3_zero_xcheck2
PUBLIC	z900_maddr_l
PUBLIC	z900_vfetch4_full
PUBLIC	z900_vfetch8_full
PUBLIC	z900_vfetch4
PUBLIC	z900_vfetch8
EXTRN	_byteswap_ulong:PROC
EXTRN	_byteswap_uint64:PROC
EXTRN	longjmp:PROC
EXTRN	s370_store_int_timer:PROC
EXTRN	txf_maddr_l:PROC
EXTRN	z900_abort_transaction:PROC
EXTRN	s370_logical_to_main_l:PROC
EXTRN	s390_logical_to_main_l:PROC
EXTRN	z900_logical_to_main_l:PROC
EXTRN	f32_scaledResult:PROC
EXTRN	f64_scaledResult:PROC
EXTRN	f128_scaledResult:PROC
EXTRN	ui32_to_f32:PROC
EXTRN	ui32_to_f64:PROC
EXTRN	ui32_to_f128:PROC
EXTRN	ui64_to_f32:PROC
EXTRN	ui64_to_f64:PROC
EXTRN	ui64_to_f128:PROC
EXTRN	i32_to_f32:PROC
EXTRN	i32_to_f64:PROC
EXTRN	i32_to_f128:PROC
EXTRN	i64_to_f32:PROC
EXTRN	i64_to_f64:PROC
EXTRN	i64_to_f128:PROC
EXTRN	f32_to_ui32:PROC
EXTRN	f32_to_ui64:PROC
EXTRN	f32_to_i32:PROC
EXTRN	f32_to_i64:PROC
EXTRN	f32_to_f64:PROC
EXTRN	f32_to_f128:PROC
EXTRN	f32_roundToInt:PROC
EXTRN	f32_add:PROC
EXTRN	f32_sub:PROC
EXTRN	f32_mul:PROC
EXTRN	f32_mulAdd:PROC
EXTRN	f32_div:PROC
EXTRN	f32_sqrt:PROC
EXTRN	f32_eq:PROC
EXTRN	f32_lt_quiet:PROC
EXTRN	f32_isSignalingNaN:PROC
EXTRN	f64_to_ui32:PROC
EXTRN	f64_to_ui64:PROC
EXTRN	f64_to_i32:PROC
EXTRN	f64_to_i64:PROC
EXTRN	f64_to_f32:PROC
EXTRN	f64_to_f128:PROC
EXTRN	f64_roundToInt:PROC
EXTRN	f64_add:PROC
EXTRN	f64_sub:PROC
EXTRN	f64_mul:PROC
EXTRN	f64_mulAdd:PROC
EXTRN	f64_div:PROC
EXTRN	f64_sqrt:PROC
EXTRN	f64_eq:PROC
EXTRN	f64_lt_quiet:PROC
EXTRN	f64_isSignalingNaN:PROC
EXTRN	f128_to_ui32:PROC
EXTRN	f128_to_ui64:PROC
EXTRN	f128_to_i32:PROC
EXTRN	f128_to_i64:PROC
EXTRN	f128_to_f32:PROC
EXTRN	f128_to_f64:PROC
EXTRN	f128_roundToInt:PROC
EXTRN	f128_add:PROC
EXTRN	f128_sub:PROC
EXTRN	f128_mul:PROC
EXTRN	f128_mulAdd:PROC
EXTRN	f128_div:PROC
EXTRN	f128_sqrt:PROC
EXTRN	f128_eq:PROC
EXTRN	f128_lt_quiet:PROC
EXTRN	f128_isSignalingNaN:PROC
EXTRN	__GSHandlerCheck:PROC
EXTRN	__security_check_cookie:PROC
EXTRN	softfloat_roundingMode:BYTE
EXTRN	softfloat_exceptionFlags:BYTE
EXTRN	__ImageBase:BYTE
EXTRN	__security_cookie:QWORD
EXTRN	_tls_index:DWORD
pdata	SEGMENT
$pdata$s370_convert_u32_to_bfp_ext_reg DD imagerel $LN12
	DD	imagerel $LN12+589
	DD	imagerel $unwind$s370_convert_u32_to_bfp_ext_reg
$pdata$s370_convert_u32_to_bfp_long_reg DD imagerel $LN11
	DD	imagerel $LN11+459
	DD	imagerel $unwind$s370_convert_u32_to_bfp_long_reg
$pdata$s370_convert_u32_to_bfp_short_reg DD imagerel $LN13
	DD	imagerel $LN13+567
	DD	imagerel $unwind$s370_convert_u32_to_bfp_short_reg
$pdata$s370_convert_u64_to_bfp_ext_reg DD imagerel $LN12
	DD	imagerel $LN12+592
	DD	imagerel $unwind$s370_convert_u64_to_bfp_ext_reg
$pdata$s370_convert_u64_to_bfp_long_reg DD imagerel $LN13
	DD	imagerel $LN13+571
	DD	imagerel $unwind$s370_convert_u64_to_bfp_long_reg
$pdata$s370_convert_u64_to_bfp_short_reg DD imagerel $LN13
	DD	imagerel $LN13+570
	DD	imagerel $unwind$s370_convert_u64_to_bfp_short_reg
$pdata$s370_convert_bfp_ext_to_u32_reg DD imagerel $LN31
	DD	imagerel $LN31+1399
	DD	imagerel $unwind$s370_convert_bfp_ext_to_u32_reg
$pdata$s370_convert_bfp_long_to_u32_reg DD imagerel $LN28
	DD	imagerel $LN28+1143
	DD	imagerel $unwind$s370_convert_bfp_long_to_u32_reg
$pdata$s370_convert_bfp_short_to_u32_reg DD imagerel $LN28
	DD	imagerel $LN28+1049
	DD	imagerel $unwind$s370_convert_bfp_short_to_u32_reg
$pdata$s370_convert_bfp_ext_to_u64_reg DD imagerel $LN31
	DD	imagerel $LN31+1407
	DD	imagerel $unwind$s370_convert_bfp_ext_to_u64_reg
$pdata$s370_convert_bfp_long_to_u64_reg DD imagerel $LN28
	DD	imagerel $LN28+1147
	DD	imagerel $unwind$s370_convert_bfp_long_to_u64_reg
$pdata$s370_convert_bfp_short_to_u64_reg DD imagerel $LN28
	DD	imagerel $LN28+1053
	DD	imagerel $unwind$s370_convert_bfp_short_to_u64_reg
$pdata$s370_add_bfp_ext_reg DD imagerel $LN32
	DD	imagerel $LN32+1221
	DD	imagerel $unwind$s370_add_bfp_ext_reg
$pdata$s370_add_bfp_long DD imagerel $LN28
	DD	imagerel $LN28+1049
	DD	imagerel $unwind$s370_add_bfp_long
$pdata$s370_add_bfp_long_reg DD imagerel $LN29
	DD	imagerel $LN29+889
	DD	imagerel $unwind$s370_add_bfp_long_reg
$pdata$s370_add_bfp_short DD imagerel $LN28
	DD	imagerel $LN28+921
	DD	imagerel $unwind$s370_add_bfp_short
$pdata$s370_add_bfp_short_reg DD imagerel $LN29
	DD	imagerel $LN29+825
	DD	imagerel $unwind$s370_add_bfp_short_reg
$pdata$s370_compare_and_signal_bfp_ext_reg DD imagerel $LN15
	DD	imagerel $LN15+717
	DD	imagerel $unwind$s370_compare_and_signal_bfp_ext_reg
$pdata$s370_compare_and_signal_bfp_long DD imagerel $LN12
	DD	imagerel $LN12+627
	DD	imagerel $unwind$s370_compare_and_signal_bfp_long
$pdata$s370_compare_and_signal_bfp_long_reg DD imagerel $LN13
	DD	imagerel $LN13+530
	DD	imagerel $unwind$s370_compare_and_signal_bfp_long_reg
$pdata$s370_compare_and_signal_bfp_short DD imagerel $LN12
	DD	imagerel $LN12+624
	DD	imagerel $unwind$s370_compare_and_signal_bfp_short
$pdata$s370_compare_and_signal_bfp_short_reg DD imagerel $LN13
	DD	imagerel $LN13+528
	DD	imagerel $unwind$s370_compare_and_signal_bfp_short_reg
$pdata$s370_compare_bfp_ext_reg DD imagerel $LN15
	DD	imagerel $LN15+717
	DD	imagerel $unwind$s370_compare_bfp_ext_reg
$pdata$s370_compare_bfp_long DD imagerel $LN12
	DD	imagerel $LN12+627
	DD	imagerel $unwind$s370_compare_bfp_long
$pdata$s370_compare_bfp_long_reg DD imagerel $LN13
	DD	imagerel $LN13+530
	DD	imagerel $unwind$s370_compare_bfp_long_reg
$pdata$s370_compare_bfp_short DD imagerel $LN12
	DD	imagerel $LN12+624
	DD	imagerel $unwind$s370_compare_bfp_short
$pdata$s370_compare_bfp_short_reg DD imagerel $LN13
	DD	imagerel $LN13+528
	DD	imagerel $unwind$s370_compare_bfp_short_reg
$pdata$s370_convert_bfp_ext_to_fix32_reg DD imagerel $LN27
	DD	imagerel $LN27+1268
	DD	imagerel $unwind$s370_convert_bfp_ext_to_fix32_reg
$pdata$s370_convert_bfp_long_to_fix32_reg DD imagerel $LN26
	DD	imagerel $LN26+1048
	DD	imagerel $unwind$s370_convert_bfp_long_to_fix32_reg
$pdata$s370_convert_bfp_short_to_fix32_reg DD imagerel $LN26
	DD	imagerel $LN26+1033
	DD	imagerel $unwind$s370_convert_bfp_short_to_fix32_reg
$pdata$s370_convert_fix32_to_bfp_ext_reg DD imagerel $LN15
	DD	imagerel $LN15+680
	DD	imagerel $unwind$s370_convert_fix32_to_bfp_ext_reg
$pdata$s370_convert_fix32_to_bfp_long_reg DD imagerel $LN14
	DD	imagerel $LN14+541
	DD	imagerel $unwind$s370_convert_fix32_to_bfp_long_reg
$pdata$s370_convert_fix32_to_bfp_short_reg DD imagerel $LN16
	DD	imagerel $LN16+635
	DD	imagerel $unwind$s370_convert_fix32_to_bfp_short_reg
$pdata$s370_divide_bfp_ext_reg DD imagerel $LN21
	DD	imagerel $LN21+1005
	DD	imagerel $unwind$s370_divide_bfp_ext_reg
$pdata$s370_divide_bfp_long DD imagerel $LN18
	DD	imagerel $LN18+846
	DD	imagerel $unwind$s370_divide_bfp_long
$pdata$s370_divide_bfp_long_reg DD imagerel $LN19
	DD	imagerel $LN19+749
	DD	imagerel $unwind$s370_divide_bfp_long_reg
$pdata$s370_divide_bfp_short DD imagerel $LN18
	DD	imagerel $LN18+841
	DD	imagerel $unwind$s370_divide_bfp_short
$pdata$s370_divide_bfp_short_reg DD imagerel $LN19
	DD	imagerel $LN19+745
	DD	imagerel $unwind$s370_divide_bfp_short_reg
$pdata$s370_divide_integer_bfp_long_reg DD imagerel $LN39
	DD	imagerel $LN39+3108
	DD	imagerel $unwind$s370_divide_integer_bfp_long_reg
$pdata$s370_divide_integer_bfp_short_reg DD imagerel $LN39
	DD	imagerel $LN39+2380
	DD	imagerel $unwind$s370_divide_integer_bfp_short_reg
$pdata$s370_load_and_test_bfp_ext_reg DD imagerel $LN28
	DD	imagerel $LN28+950
	DD	imagerel $unwind$s370_load_and_test_bfp_ext_reg
$pdata$s370_load_and_test_bfp_long_reg DD imagerel $LN24
	DD	imagerel $LN24+689
	DD	imagerel $unwind$s370_load_and_test_bfp_long_reg
$pdata$s370_load_and_test_bfp_short_reg DD imagerel $LN24
	DD	imagerel $LN24+577
	DD	imagerel $unwind$s370_load_and_test_bfp_short_reg
$pdata$s370_load_complement_bfp_ext_reg DD imagerel $LN23
	DD	imagerel $LN23+690
	DD	imagerel $unwind$s370_load_complement_bfp_ext_reg
$pdata$s370_load_complement_bfp_long_reg DD imagerel $LN20
	DD	imagerel $LN20+546
	DD	imagerel $unwind$s370_load_complement_bfp_long_reg
$pdata$s370_load_complement_bfp_short_reg DD imagerel $LN20
	DD	imagerel $LN20+472
	DD	imagerel $unwind$s370_load_complement_bfp_short_reg
$pdata$s370_load_fp_int_bfp_ext_reg DD imagerel $LN19
	DD	imagerel $LN19+948
	DD	imagerel $unwind$s370_load_fp_int_bfp_ext_reg
$pdata$s370_load_fp_int_bfp_long_reg DD imagerel $LN17
	DD	imagerel $LN17+746
	DD	imagerel $unwind$s370_load_fp_int_bfp_long_reg
$pdata$s370_load_fp_int_bfp_short_reg DD imagerel $LN17
	DD	imagerel $LN17+744
	DD	imagerel $unwind$s370_load_fp_int_bfp_short_reg
$pdata$s370_load_lengthened_bfp_long_to_ext DD imagerel $LN14
	DD	imagerel $LN14+802
	DD	imagerel $unwind$s370_load_lengthened_bfp_long_to_ext
$pdata$s370_load_lengthened_bfp_long_to_ext_reg DD imagerel $LN12
	DD	imagerel $LN12+693
	DD	imagerel $unwind$s370_load_lengthened_bfp_long_to_ext_reg
$pdata$s370_load_lengthened_bfp_short_to_ext DD imagerel $LN14
	DD	imagerel $LN14+785
	DD	imagerel $unwind$s370_load_lengthened_bfp_short_to_ext
$pdata$s370_load_lengthened_bfp_short_to_ext_reg DD imagerel $LN12
	DD	imagerel $LN12+677
	DD	imagerel $unwind$s370_load_lengthened_bfp_short_to_ext_reg
$pdata$s370_load_lengthened_bfp_short_to_long DD imagerel $LN13
	DD	imagerel $LN13+640
	DD	imagerel $unwind$s370_load_lengthened_bfp_short_to_long
$pdata$s370_load_lengthened_bfp_short_to_long_reg DD imagerel $LN11
	DD	imagerel $LN11+538
	DD	imagerel $unwind$s370_load_lengthened_bfp_short_to_long_reg
$pdata$s370_load_negative_bfp_ext_reg DD imagerel $LN23
	DD	imagerel $LN23+690
	DD	imagerel $unwind$s370_load_negative_bfp_ext_reg
$pdata$s370_load_negative_bfp_long_reg DD imagerel $LN20
	DD	imagerel $LN20+546
	DD	imagerel $unwind$s370_load_negative_bfp_long_reg
$pdata$s370_load_negative_bfp_short_reg DD imagerel $LN20
	DD	imagerel $LN20+472
	DD	imagerel $unwind$s370_load_negative_bfp_short_reg
$pdata$s370_load_positive_bfp_ext_reg DD imagerel $LN23
	DD	imagerel $LN23+690
	DD	imagerel $unwind$s370_load_positive_bfp_ext_reg
$pdata$s370_load_positive_bfp_long_reg DD imagerel $LN20
	DD	imagerel $LN20+546
	DD	imagerel $unwind$s370_load_positive_bfp_long_reg
$pdata$s370_load_positive_bfp_short_reg DD imagerel $LN20
	DD	imagerel $LN20+472
	DD	imagerel $unwind$s370_load_positive_bfp_short_reg
$pdata$s370_load_rounded_bfp_ext_to_long_reg DD imagerel $LN25
	DD	imagerel $LN25+1161
	DD	imagerel $unwind$s370_load_rounded_bfp_ext_to_long_reg
$pdata$s370_load_rounded_bfp_ext_to_short_reg DD imagerel $LN25
	DD	imagerel $LN25+1154
	DD	imagerel $unwind$s370_load_rounded_bfp_ext_to_short_reg
$pdata$s370_load_rounded_bfp_long_to_short_reg DD imagerel $LN23
	DD	imagerel $LN23+960
	DD	imagerel $unwind$s370_load_rounded_bfp_long_to_short_reg
$pdata$s370_multiply_add_bfp_long DD imagerel $LN20
	DD	imagerel $LN20+840
	DD	imagerel $unwind$s370_multiply_add_bfp_long
$pdata$s370_multiply_add_bfp_long_reg DD imagerel $LN18
	DD	imagerel $LN18+725
	DD	imagerel $unwind$s370_multiply_add_bfp_long_reg
$pdata$s370_multiply_add_bfp_short DD imagerel $LN20
	DD	imagerel $LN20+835
	DD	imagerel $unwind$s370_multiply_add_bfp_short
$pdata$s370_multiply_add_bfp_short_reg DD imagerel $LN18
	DD	imagerel $LN18+721
	DD	imagerel $unwind$s370_multiply_add_bfp_short_reg
$pdata$s370_multiply_bfp_ext_reg DD imagerel $LN20
	DD	imagerel $LN20+923
	DD	imagerel $unwind$s370_multiply_bfp_ext_reg
$pdata$s370_multiply_bfp_long DD imagerel $LN17
	DD	imagerel $LN17+770
	DD	imagerel $unwind$s370_multiply_bfp_long
$pdata$s370_multiply_bfp_long_reg DD imagerel $LN18
	DD	imagerel $LN18+673
	DD	imagerel $unwind$s370_multiply_bfp_long_reg
$pdata$s370_multiply_bfp_long_to_ext DD imagerel $LN18
	DD	imagerel $LN18+1152
	DD	imagerel $unwind$s370_multiply_bfp_long_to_ext
$pdata$s370_multiply_bfp_long_to_ext_reg DD imagerel $LN19
	DD	imagerel $LN19+1046
	DD	imagerel $unwind$s370_multiply_bfp_long_to_ext_reg
$pdata$s370_multiply_bfp_short DD imagerel $LN17
	DD	imagerel $LN17+765
	DD	imagerel $unwind$s370_multiply_bfp_short
$pdata$s370_multiply_bfp_short_reg DD imagerel $LN18
	DD	imagerel $LN18+669
	DD	imagerel $unwind$s370_multiply_bfp_short_reg
$pdata$s370_multiply_bfp_short_to_long DD imagerel $LN17
	DD	imagerel $LN17+842
	DD	imagerel $unwind$s370_multiply_bfp_short_to_long
$pdata$s370_multiply_bfp_short_to_long_reg DD imagerel $LN18
	DD	imagerel $LN18+746
	DD	imagerel $unwind$s370_multiply_bfp_short_to_long_reg
$pdata$s370_multiply_subtract_bfp_long DD imagerel $LN22
	DD	imagerel $LN22+1003
	DD	imagerel $unwind$s370_multiply_subtract_bfp_long
$pdata$s370_multiply_subtract_bfp_long_reg DD imagerel $LN20
	DD	imagerel $LN20+822
	DD	imagerel $unwind$s370_multiply_subtract_bfp_long_reg
$pdata$s370_multiply_subtract_bfp_short DD imagerel $LN22
	DD	imagerel $LN22+884
	DD	imagerel $unwind$s370_multiply_subtract_bfp_short
$pdata$s370_multiply_subtract_bfp_short_reg DD imagerel $LN20
	DD	imagerel $LN20+770
	DD	imagerel $unwind$s370_multiply_subtract_bfp_short_reg
$pdata$s370_squareroot_bfp_ext_reg DD imagerel $LN14
	DD	imagerel $LN14+886
	DD	imagerel $unwind$s370_squareroot_bfp_ext_reg
$pdata$s370_squareroot_bfp_long DD imagerel $LN14
	DD	imagerel $LN14+801
	DD	imagerel $unwind$s370_squareroot_bfp_long
$pdata$s370_squareroot_bfp_long_reg DD imagerel $LN12
	DD	imagerel $LN12+698
	DD	imagerel $unwind$s370_squareroot_bfp_long_reg
$pdata$s370_squareroot_bfp_short DD imagerel $LN14
	DD	imagerel $LN14+798
	DD	imagerel $unwind$s370_squareroot_bfp_short
$pdata$s370_squareroot_bfp_short_reg DD imagerel $LN12
	DD	imagerel $LN12+696
	DD	imagerel $unwind$s370_squareroot_bfp_short_reg
$pdata$s370_subtract_bfp_ext_reg DD imagerel $LN32
	DD	imagerel $LN32+1282
	DD	imagerel $unwind$s370_subtract_bfp_ext_reg
$pdata$s370_subtract_bfp_long DD imagerel $LN28
	DD	imagerel $LN28+1049
	DD	imagerel $unwind$s370_subtract_bfp_long
$pdata$s370_subtract_bfp_long_reg DD imagerel $LN29
	DD	imagerel $LN29+889
	DD	imagerel $unwind$s370_subtract_bfp_long_reg
$pdata$s370_subtract_bfp_short DD imagerel $LN28
	DD	imagerel $LN28+921
	DD	imagerel $unwind$s370_subtract_bfp_short
$pdata$s370_subtract_bfp_short_reg DD imagerel $LN29
	DD	imagerel $LN29+825
	DD	imagerel $unwind$s370_subtract_bfp_short_reg
$pdata$s370_test_data_class_bfp_ext DD imagerel $LN14
	DD	imagerel $LN14+572
	DD	imagerel $unwind$s370_test_data_class_bfp_ext
$pdata$s370_test_data_class_bfp_long DD imagerel $LN13
	DD	imagerel $LN13+437
	DD	imagerel $unwind$s370_test_data_class_bfp_long
$pdata$s370_test_data_class_bfp_short DD imagerel $LN13
	DD	imagerel $LN13+436
	DD	imagerel $unwind$s370_test_data_class_bfp_short
pdata	ENDS
;	COMDAT pdata
pdata	SEGMENT
$pdata$fetch_fw_noswap DD imagerel $LN3
	DD	imagerel $LN3+27
	DD	imagerel $unwind$fetch_fw_noswap
pdata	ENDS
;	COMDAT pdata
pdata	SEGMENT
$pdata$fetch_dw_noswap DD imagerel $LN3
	DD	imagerel $LN3+30
	DD	imagerel $unwind$fetch_dw_noswap
pdata	ENDS
;	COMDAT pdata
pdata	SEGMENT
$pdata$s370_maddr_l DD imagerel $LN14
	DD	imagerel $LN14+474
	DD	imagerel $unwind$s370_maddr_l
pdata	ENDS
;	COMDAT pdata
pdata	SEGMENT
$pdata$s370_vfetch4_full DD imagerel $LN3
	DD	imagerel $LN3+288
	DD	imagerel $unwind$s370_vfetch4_full
pdata	ENDS
;	COMDAT pdata
pdata	SEGMENT
$pdata$s370_vfetch8_full DD imagerel $LN3
	DD	imagerel $LN3+288
	DD	imagerel $unwind$s370_vfetch8_full
pdata	ENDS
;	COMDAT pdata
pdata	SEGMENT
$pdata$s370_vfetch4 DD imagerel $LN26
	DD	imagerel $LN26+275
	DD	imagerel $unwind$s370_vfetch4
pdata	ENDS
;	COMDAT pdata
pdata	SEGMENT
$pdata$s370_vfetch8 DD imagerel $LN23
	DD	imagerel $LN23+240
	DD	imagerel $unwind$s370_vfetch8
pdata	ENDS
pdata	SEGMENT
$pdata$ieee_trap DD imagerel ieee_trap
	DD	imagerel ieee_trap+116
	DD	imagerel $unwind$ieee_trap
$pdata$ieee_cond_trap DD imagerel ieee_cond_trap
	DD	imagerel ieee_cond_trap+502
	DD	imagerel $unwind$ieee_cond_trap
$pdata$float128_class DD imagerel float128_class
	DD	imagerel float128_class+531
	DD	imagerel $unwind$float128_class
$pdata$float64_class DD imagerel float64_class
	DD	imagerel float64_class+384
	DD	imagerel $unwind$float64_class
$pdata$float32_class DD imagerel float32_class
	DD	imagerel float32_class+285
	DD	imagerel $unwind$float32_class
$pdata$ieee_exception_test_oux DD imagerel ieee_exception_test_oux
	DD	imagerel ieee_exception_test_oux+440
	DD	imagerel $unwind$ieee_exception_test_oux
$pdata$s370_BFP_RM_check DD imagerel s370_BFP_RM_check
	DD	imagerel s370_BFP_RM_check+161
	DD	imagerel $unwind$s370_BFP_RM_check
$pdata$s370_float128_cc_quiet DD imagerel s370_float128_cc_quiet
	DD	imagerel s370_float128_cc_quiet+458
	DD	imagerel $unwind$s370_float128_cc_quiet
$pdata$s370_float128_compare DD imagerel s370_float128_compare
	DD	imagerel s370_float128_compare+226
	DD	imagerel $unwind$s370_float128_compare
$pdata$s370_float128_signaling_compare DD imagerel s370_float128_signaling_compare
	DD	imagerel s370_float128_signaling_compare+349
	DD	imagerel $unwind$s370_float128_signaling_compare
$pdata$s370_float64_cc_quiet DD imagerel s370_float64_cc_quiet
	DD	imagerel s370_float64_cc_quiet+250
	DD	imagerel $unwind$s370_float64_cc_quiet
$pdata$s370_float64_compare DD imagerel s370_float64_compare
	DD	imagerel s370_float64_compare+133
	DD	imagerel $unwind$s370_float64_compare
$pdata$s370_float64_signaling_compare DD imagerel s370_float64_signaling_compare
	DD	imagerel s370_float64_signaling_compare+223
	DD	imagerel $unwind$s370_float64_signaling_compare
$pdata$s370_float32_cc_quiet DD imagerel s370_float32_cc_quiet
	DD	imagerel s370_float32_cc_quiet+174
	DD	imagerel $unwind$s370_float32_cc_quiet
$pdata$s370_float32_compare DD imagerel s370_float32_compare
	DD	imagerel s370_float32_compare+127
	DD	imagerel $unwind$s370_float32_compare
$pdata$s370_float32_signaling_compare DD imagerel s370_float32_signaling_compare
	DD	imagerel s370_float32_signaling_compare+153
	DD	imagerel $unwind$s370_float32_signaling_compare
$pdata$get_lbfp DD imagerel get_lbfp
	DD	imagerel get_lbfp+160
	DD	imagerel $unwind$get_lbfp
$pdata$get_sbfp DD imagerel get_sbfp
	DD	imagerel get_sbfp+104
	DD	imagerel $unwind$get_sbfp
$pdata$put_lbfp DD imagerel put_lbfp
	DD	imagerel put_lbfp+132
	DD	imagerel $unwind$put_lbfp
$pdata$put_sbfp DD imagerel put_sbfp
	DD	imagerel put_sbfp+88
	DD	imagerel $unwind$put_sbfp
$pdata$s390_add_bfp_ext_reg DD imagerel $LN32
	DD	imagerel $LN32+1221
	DD	imagerel $unwind$s390_add_bfp_ext_reg
$pdata$s390_add_bfp_long DD imagerel $LN28
	DD	imagerel $LN28+1062
	DD	imagerel $unwind$s390_add_bfp_long
$pdata$s390_add_bfp_long_reg DD imagerel $LN29
	DD	imagerel $LN29+889
	DD	imagerel $unwind$s390_add_bfp_long_reg
$pdata$s390_add_bfp_short DD imagerel $LN28
	DD	imagerel $LN28+931
	DD	imagerel $unwind$s390_add_bfp_short
$pdata$s390_add_bfp_short_reg DD imagerel $LN29
	DD	imagerel $LN29+825
	DD	imagerel $unwind$s390_add_bfp_short_reg
$pdata$s390_compare_and_signal_bfp_ext_reg DD imagerel $LN15
	DD	imagerel $LN15+717
	DD	imagerel $unwind$s390_compare_and_signal_bfp_ext_reg
$pdata$s390_compare_and_signal_bfp_long DD imagerel $LN12
	DD	imagerel $LN12+637
	DD	imagerel $unwind$s390_compare_and_signal_bfp_long
$pdata$s390_compare_and_signal_bfp_long_reg DD imagerel $LN13
	DD	imagerel $LN13+530
	DD	imagerel $unwind$s390_compare_and_signal_bfp_long_reg
$pdata$s390_compare_and_signal_bfp_short DD imagerel $LN12
	DD	imagerel $LN12+634
	DD	imagerel $unwind$s390_compare_and_signal_bfp_short
$pdata$s390_compare_and_signal_bfp_short_reg DD imagerel $LN13
	DD	imagerel $LN13+528
	DD	imagerel $unwind$s390_compare_and_signal_bfp_short_reg
$pdata$s390_compare_bfp_ext_reg DD imagerel $LN15
	DD	imagerel $LN15+717
	DD	imagerel $unwind$s390_compare_bfp_ext_reg
$pdata$s390_compare_bfp_long DD imagerel $LN12
	DD	imagerel $LN12+637
	DD	imagerel $unwind$s390_compare_bfp_long
$pdata$s390_compare_bfp_long_reg DD imagerel $LN13
	DD	imagerel $LN13+530
	DD	imagerel $unwind$s390_compare_bfp_long_reg
$pdata$s390_compare_bfp_short DD imagerel $LN12
	DD	imagerel $LN12+634
	DD	imagerel $unwind$s390_compare_bfp_short
$pdata$s390_compare_bfp_short_reg DD imagerel $LN13
	DD	imagerel $LN13+528
	DD	imagerel $unwind$s390_compare_bfp_short_reg
$pdata$s390_convert_bfp_ext_to_fix32_reg DD imagerel $LN26
	DD	imagerel $LN26+1236
	DD	imagerel $unwind$s390_convert_bfp_ext_to_fix32_reg
$pdata$s390_convert_bfp_long_to_fix32_reg DD imagerel $LN25
	DD	imagerel $LN25+1019
	DD	imagerel $unwind$s390_convert_bfp_long_to_fix32_reg
$pdata$s390_convert_bfp_short_to_fix32_reg DD imagerel $LN25
	DD	imagerel $LN25+1004
	DD	imagerel $unwind$s390_convert_bfp_short_to_fix32_reg
$pdata$s390_convert_fix32_to_bfp_ext_reg DD imagerel $LN13
	DD	imagerel $LN13+628
	DD	imagerel $unwind$s390_convert_fix32_to_bfp_ext_reg
$pdata$s390_convert_fix32_to_bfp_long_reg DD imagerel $LN12
	DD	imagerel $LN12+495
	DD	imagerel $unwind$s390_convert_fix32_to_bfp_long_reg
$pdata$s390_convert_fix32_to_bfp_short_reg DD imagerel $LN14
	DD	imagerel $LN14+589
	DD	imagerel $unwind$s390_convert_fix32_to_bfp_short_reg
$pdata$s390_divide_bfp_ext_reg DD imagerel $LN21
	DD	imagerel $LN21+1005
	DD	imagerel $unwind$s390_divide_bfp_ext_reg
$pdata$s390_divide_bfp_long DD imagerel $LN18
	DD	imagerel $LN18+856
	DD	imagerel $unwind$s390_divide_bfp_long
$pdata$s390_divide_bfp_long_reg DD imagerel $LN19
	DD	imagerel $LN19+749
	DD	imagerel $unwind$s390_divide_bfp_long_reg
$pdata$s390_divide_bfp_short DD imagerel $LN18
	DD	imagerel $LN18+851
	DD	imagerel $unwind$s390_divide_bfp_short
$pdata$s390_divide_bfp_short_reg DD imagerel $LN19
	DD	imagerel $LN19+745
	DD	imagerel $unwind$s390_divide_bfp_short_reg
$pdata$s390_divide_integer_bfp_long_reg DD imagerel $LN39
	DD	imagerel $LN39+3108
	DD	imagerel $unwind$s390_divide_integer_bfp_long_reg
$pdata$s390_divide_integer_bfp_short_reg DD imagerel $LN39
	DD	imagerel $LN39+2380
	DD	imagerel $unwind$s390_divide_integer_bfp_short_reg
$pdata$s390_load_and_test_bfp_ext_reg DD imagerel $LN28
	DD	imagerel $LN28+950
	DD	imagerel $unwind$s390_load_and_test_bfp_ext_reg
$pdata$s390_load_and_test_bfp_long_reg DD imagerel $LN24
	DD	imagerel $LN24+689
	DD	imagerel $unwind$s390_load_and_test_bfp_long_reg
$pdata$s390_load_and_test_bfp_short_reg DD imagerel $LN24
	DD	imagerel $LN24+577
	DD	imagerel $unwind$s390_load_and_test_bfp_short_reg
$pdata$s390_load_complement_bfp_ext_reg DD imagerel $LN23
	DD	imagerel $LN23+690
	DD	imagerel $unwind$s390_load_complement_bfp_ext_reg
$pdata$s390_load_complement_bfp_long_reg DD imagerel $LN20
	DD	imagerel $LN20+546
	DD	imagerel $unwind$s390_load_complement_bfp_long_reg
$pdata$s390_load_complement_bfp_short_reg DD imagerel $LN20
	DD	imagerel $LN20+472
	DD	imagerel $unwind$s390_load_complement_bfp_short_reg
$pdata$s390_load_fp_int_bfp_ext_reg DD imagerel $LN18
	DD	imagerel $LN18+916
	DD	imagerel $unwind$s390_load_fp_int_bfp_ext_reg
$pdata$s390_load_fp_int_bfp_long_reg DD imagerel $LN16
	DD	imagerel $LN16+717
	DD	imagerel $unwind$s390_load_fp_int_bfp_long_reg
$pdata$s390_load_fp_int_bfp_short_reg DD imagerel $LN16
	DD	imagerel $LN16+715
	DD	imagerel $unwind$s390_load_fp_int_bfp_short_reg
$pdata$s390_load_lengthened_bfp_long_to_ext DD imagerel $LN14
	DD	imagerel $LN14+815
	DD	imagerel $unwind$s390_load_lengthened_bfp_long_to_ext
$pdata$s390_load_lengthened_bfp_long_to_ext_reg DD imagerel $LN12
	DD	imagerel $LN12+693
	DD	imagerel $unwind$s390_load_lengthened_bfp_long_to_ext_reg
$pdata$s390_load_lengthened_bfp_short_to_ext DD imagerel $LN14
	DD	imagerel $LN14+798
	DD	imagerel $unwind$s390_load_lengthened_bfp_short_to_ext
$pdata$s390_load_lengthened_bfp_short_to_ext_reg DD imagerel $LN12
	DD	imagerel $LN12+677
	DD	imagerel $unwind$s390_load_lengthened_bfp_short_to_ext_reg
$pdata$s390_load_lengthened_bfp_short_to_long DD imagerel $LN13
	DD	imagerel $LN13+650
	DD	imagerel $unwind$s390_load_lengthened_bfp_short_to_long
$pdata$s390_load_lengthened_bfp_short_to_long_reg DD imagerel $LN11
	DD	imagerel $LN11+538
	DD	imagerel $unwind$s390_load_lengthened_bfp_short_to_long_reg
$pdata$s390_load_negative_bfp_ext_reg DD imagerel $LN23
	DD	imagerel $LN23+690
	DD	imagerel $unwind$s390_load_negative_bfp_ext_reg
$pdata$s390_load_negative_bfp_long_reg DD imagerel $LN20
	DD	imagerel $LN20+546
	DD	imagerel $unwind$s390_load_negative_bfp_long_reg
$pdata$s390_load_negative_bfp_short_reg DD imagerel $LN20
	DD	imagerel $LN20+472
	DD	imagerel $unwind$s390_load_negative_bfp_short_reg
$pdata$s390_load_positive_bfp_ext_reg DD imagerel $LN23
	DD	imagerel $LN23+690
	DD	imagerel $unwind$s390_load_positive_bfp_ext_reg
$pdata$s390_load_positive_bfp_long_reg DD imagerel $LN20
	DD	imagerel $LN20+546
	DD	imagerel $unwind$s390_load_positive_bfp_long_reg
$pdata$s390_load_positive_bfp_short_reg DD imagerel $LN20
	DD	imagerel $LN20+472
	DD	imagerel $unwind$s390_load_positive_bfp_short_reg
$pdata$s390_load_rounded_bfp_ext_to_long_reg DD imagerel $LN19
	DD	imagerel $LN19+916
	DD	imagerel $unwind$s390_load_rounded_bfp_ext_to_long_reg
$pdata$s390_load_rounded_bfp_ext_to_short_reg DD imagerel $LN19
	DD	imagerel $LN19+915
	DD	imagerel $unwind$s390_load_rounded_bfp_ext_to_short_reg
$pdata$s390_load_rounded_bfp_long_to_short_reg DD imagerel $LN17
	DD	imagerel $LN17+727
	DD	imagerel $unwind$s390_load_rounded_bfp_long_to_short_reg
$pdata$s390_multiply_add_bfp_long DD imagerel $LN20
	DD	imagerel $LN20+850
	DD	imagerel $unwind$s390_multiply_add_bfp_long
$pdata$s390_multiply_add_bfp_long_reg DD imagerel $LN18
	DD	imagerel $LN18+725
	DD	imagerel $unwind$s390_multiply_add_bfp_long_reg
$pdata$s390_multiply_add_bfp_short DD imagerel $LN20
	DD	imagerel $LN20+845
	DD	imagerel $unwind$s390_multiply_add_bfp_short
$pdata$s390_multiply_add_bfp_short_reg DD imagerel $LN18
	DD	imagerel $LN18+721
	DD	imagerel $unwind$s390_multiply_add_bfp_short_reg
$pdata$s390_multiply_bfp_ext_reg DD imagerel $LN20
	DD	imagerel $LN20+923
	DD	imagerel $unwind$s390_multiply_bfp_ext_reg
$pdata$s390_multiply_bfp_long DD imagerel $LN17
	DD	imagerel $LN17+780
	DD	imagerel $unwind$s390_multiply_bfp_long
$pdata$s390_multiply_bfp_long_reg DD imagerel $LN18
	DD	imagerel $LN18+673
	DD	imagerel $unwind$s390_multiply_bfp_long_reg
$pdata$s390_multiply_bfp_long_to_ext DD imagerel $LN18
	DD	imagerel $LN18+1165
	DD	imagerel $unwind$s390_multiply_bfp_long_to_ext
$pdata$s390_multiply_bfp_long_to_ext_reg DD imagerel $LN19
	DD	imagerel $LN19+1046
	DD	imagerel $unwind$s390_multiply_bfp_long_to_ext_reg
$pdata$s390_multiply_bfp_short DD imagerel $LN17
	DD	imagerel $LN17+775
	DD	imagerel $unwind$s390_multiply_bfp_short
$pdata$s390_multiply_bfp_short_reg DD imagerel $LN18
	DD	imagerel $LN18+669
	DD	imagerel $unwind$s390_multiply_bfp_short_reg
$pdata$s390_multiply_bfp_short_to_long DD imagerel $LN17
	DD	imagerel $LN17+852
	DD	imagerel $unwind$s390_multiply_bfp_short_to_long
$pdata$s390_multiply_bfp_short_to_long_reg DD imagerel $LN18
	DD	imagerel $LN18+746
	DD	imagerel $unwind$s390_multiply_bfp_short_to_long_reg
$pdata$s390_multiply_subtract_bfp_long DD imagerel $LN22
	DD	imagerel $LN22+1016
	DD	imagerel $unwind$s390_multiply_subtract_bfp_long
$pdata$s390_multiply_subtract_bfp_long_reg DD imagerel $LN20
	DD	imagerel $LN20+822
	DD	imagerel $unwind$s390_multiply_subtract_bfp_long_reg
$pdata$s390_multiply_subtract_bfp_short DD imagerel $LN22
	DD	imagerel $LN22+894
	DD	imagerel $unwind$s390_multiply_subtract_bfp_short
$pdata$s390_multiply_subtract_bfp_short_reg DD imagerel $LN20
	DD	imagerel $LN20+770
	DD	imagerel $unwind$s390_multiply_subtract_bfp_short_reg
$pdata$s390_squareroot_bfp_ext_reg DD imagerel $LN14
	DD	imagerel $LN14+886
	DD	imagerel $unwind$s390_squareroot_bfp_ext_reg
$pdata$s390_squareroot_bfp_long DD imagerel $LN14
	DD	imagerel $LN14+811
	DD	imagerel $unwind$s390_squareroot_bfp_long
$pdata$s390_squareroot_bfp_long_reg DD imagerel $LN12
	DD	imagerel $LN12+698
	DD	imagerel $unwind$s390_squareroot_bfp_long_reg
$pdata$s390_squareroot_bfp_short DD imagerel $LN14
	DD	imagerel $LN14+808
	DD	imagerel $unwind$s390_squareroot_bfp_short
$pdata$s390_squareroot_bfp_short_reg DD imagerel $LN12
	DD	imagerel $LN12+696
	DD	imagerel $unwind$s390_squareroot_bfp_short_reg
$pdata$s390_subtract_bfp_ext_reg DD imagerel $LN32
	DD	imagerel $LN32+1282
	DD	imagerel $unwind$s390_subtract_bfp_ext_reg
$pdata$s390_subtract_bfp_long DD imagerel $LN28
	DD	imagerel $LN28+1062
	DD	imagerel $unwind$s390_subtract_bfp_long
$pdata$s390_subtract_bfp_long_reg DD imagerel $LN29
	DD	imagerel $LN29+889
	DD	imagerel $unwind$s390_subtract_bfp_long_reg
$pdata$s390_subtract_bfp_short DD imagerel $LN28
	DD	imagerel $LN28+931
	DD	imagerel $unwind$s390_subtract_bfp_short
$pdata$s390_subtract_bfp_short_reg DD imagerel $LN29
	DD	imagerel $LN29+825
	DD	imagerel $unwind$s390_subtract_bfp_short_reg
$pdata$s390_test_data_class_bfp_ext DD imagerel $LN14
	DD	imagerel $LN14+585
	DD	imagerel $unwind$s390_test_data_class_bfp_ext
$pdata$s390_test_data_class_bfp_long DD imagerel $LN13
	DD	imagerel $LN13+447
	DD	imagerel $unwind$s390_test_data_class_bfp_long
$pdata$s390_test_data_class_bfp_short DD imagerel $LN13
	DD	imagerel $LN13+446
	DD	imagerel $unwind$s390_test_data_class_bfp_short
$pdata$s390_convert_bfp_long_to_float_long_reg DD imagerel $LN11
	DD	imagerel $LN11+384
	DD	imagerel $unwind$s390_convert_bfp_long_to_float_long_reg
$pdata$s390_convert_bfp_short_to_float_long_reg DD imagerel $LN11
	DD	imagerel $LN11+458
	DD	imagerel $unwind$s390_convert_bfp_short_to_float_long_reg
$pdata$s390_convert_float_long_to_bfp_long_reg DD imagerel $LN11
	DD	imagerel $LN11+481
	DD	imagerel $unwind$s390_convert_float_long_to_bfp_long_reg
$pdata$s390_convert_float_long_to_bfp_short_reg DD imagerel $LN11
	DD	imagerel $LN11+489
	DD	imagerel $unwind$s390_convert_float_long_to_bfp_short_reg
pdata	ENDS
;	COMDAT pdata
pdata	SEGMENT
$pdata$s390_maddr_l DD imagerel $LN14
	DD	imagerel $LN14+474
	DD	imagerel $unwind$s390_maddr_l
pdata	ENDS
;	COMDAT pdata
pdata	SEGMENT
$pdata$s390_vfetch4_full DD imagerel $LN3
	DD	imagerel $LN3+296
	DD	imagerel $unwind$s390_vfetch4_full
pdata	ENDS
;	COMDAT pdata
pdata	SEGMENT
$pdata$s390_vfetch8_full DD imagerel $LN3
	DD	imagerel $LN3+296
	DD	imagerel $unwind$s390_vfetch8_full
pdata	ENDS
;	COMDAT pdata
pdata	SEGMENT
$pdata$s390_vfetch4 DD imagerel $LN11
	DD	imagerel $LN11+186
	DD	imagerel $unwind$s390_vfetch4
pdata	ENDS
;	COMDAT pdata
pdata	SEGMENT
$pdata$s390_vfetch8 DD imagerel $LN8
	DD	imagerel $LN8+151
	DD	imagerel $unwind$s390_vfetch8
pdata	ENDS
pdata	SEGMENT
$pdata$s390_BFP_RM_check DD imagerel s390_BFP_RM_check
	DD	imagerel s390_BFP_RM_check+74
	DD	imagerel $unwind$s390_BFP_RM_check
$pdata$s390_float128_cc_quiet DD imagerel s390_float128_cc_quiet
	DD	imagerel s390_float128_cc_quiet+458
	DD	imagerel $unwind$s390_float128_cc_quiet
$pdata$s390_float128_compare DD imagerel s390_float128_compare
	DD	imagerel s390_float128_compare+226
	DD	imagerel $unwind$s390_float128_compare
$pdata$s390_float128_signaling_compare DD imagerel s390_float128_signaling_compare
	DD	imagerel s390_float128_signaling_compare+349
	DD	imagerel $unwind$s390_float128_signaling_compare
$pdata$s390_float64_cc_quiet DD imagerel s390_float64_cc_quiet
	DD	imagerel s390_float64_cc_quiet+250
	DD	imagerel $unwind$s390_float64_cc_quiet
$pdata$s390_float64_compare DD imagerel s390_float64_compare
	DD	imagerel s390_float64_compare+133
	DD	imagerel $unwind$s390_float64_compare
$pdata$s390_float64_signaling_compare DD imagerel s390_float64_signaling_compare
	DD	imagerel s390_float64_signaling_compare+223
	DD	imagerel $unwind$s390_float64_signaling_compare
$pdata$s390_float32_cc_quiet DD imagerel s390_float32_cc_quiet
	DD	imagerel s390_float32_cc_quiet+174
	DD	imagerel $unwind$s390_float32_cc_quiet
$pdata$s390_float32_compare DD imagerel s390_float32_compare
	DD	imagerel s390_float32_compare+127
	DD	imagerel $unwind$s390_float32_compare
$pdata$s390_float32_signaling_compare DD imagerel s390_float32_signaling_compare
	DD	imagerel s390_float32_signaling_compare+153
	DD	imagerel $unwind$s390_float32_signaling_compare
$pdata$cnvt_bfp_to_hfp DD imagerel cnvt_bfp_to_hfp
	DD	imagerel cnvt_bfp_to_hfp+706
	DD	imagerel $unwind$cnvt_bfp_to_hfp
$pdata$cnvt_hfp_to_bfp DD imagerel cnvt_hfp_to_bfp
	DD	imagerel cnvt_hfp_to_bfp+944
	DD	imagerel $unwind$cnvt_hfp_to_bfp
$pdata$z900_convert_u32_to_bfp_ext_reg DD imagerel $LN17
	DD	imagerel $LN17+745
	DD	imagerel $unwind$z900_convert_u32_to_bfp_ext_reg
$pdata$z900_convert_u32_to_bfp_long_reg DD imagerel $LN16
	DD	imagerel $LN16+589
	DD	imagerel $unwind$z900_convert_u32_to_bfp_long_reg
$pdata$z900_convert_u32_to_bfp_short_reg DD imagerel $LN18
	DD	imagerel $LN18+697
	DD	imagerel $unwind$z900_convert_u32_to_bfp_short_reg
$pdata$z900_convert_u64_to_bfp_ext_reg DD imagerel $LN17
	DD	imagerel $LN17+748
	DD	imagerel $unwind$z900_convert_u64_to_bfp_ext_reg
$pdata$z900_convert_u64_to_bfp_long_reg DD imagerel $LN18
	DD	imagerel $LN18+701
	DD	imagerel $unwind$z900_convert_u64_to_bfp_long_reg
$pdata$z900_convert_u64_to_bfp_short_reg DD imagerel $LN18
	DD	imagerel $LN18+700
	DD	imagerel $unwind$z900_convert_u64_to_bfp_short_reg
$pdata$z900_convert_bfp_ext_to_u32_reg DD imagerel $LN36
	DD	imagerel $LN36+1555
	DD	imagerel $unwind$z900_convert_bfp_ext_to_u32_reg
$pdata$z900_convert_bfp_long_to_u32_reg DD imagerel $LN33
	DD	imagerel $LN33+1273
	DD	imagerel $unwind$z900_convert_bfp_long_to_u32_reg
$pdata$z900_convert_bfp_short_to_u32_reg DD imagerel $LN33
	DD	imagerel $LN33+1179
	DD	imagerel $unwind$z900_convert_bfp_short_to_u32_reg
$pdata$z900_convert_bfp_ext_to_u64_reg DD imagerel $LN36
	DD	imagerel $LN36+1563
	DD	imagerel $unwind$z900_convert_bfp_ext_to_u64_reg
$pdata$z900_convert_bfp_long_to_u64_reg DD imagerel $LN33
	DD	imagerel $LN33+1277
	DD	imagerel $unwind$z900_convert_bfp_long_to_u64_reg
$pdata$z900_convert_bfp_short_to_u64_reg DD imagerel $LN33
	DD	imagerel $LN33+1183
	DD	imagerel $unwind$z900_convert_bfp_short_to_u64_reg
$pdata$z900_add_bfp_ext_reg DD imagerel $LN37
	DD	imagerel $LN37+1377
	DD	imagerel $unwind$z900_add_bfp_ext_reg
$pdata$z900_add_bfp_long DD imagerel $LN33
	DD	imagerel $LN33+1259
	DD	imagerel $unwind$z900_add_bfp_long
$pdata$z900_add_bfp_long_reg DD imagerel $LN34
	DD	imagerel $LN34+1019
	DD	imagerel $unwind$z900_add_bfp_long_reg
$pdata$z900_add_bfp_short DD imagerel $LN33
	DD	imagerel $LN33+1099
	DD	imagerel $unwind$z900_add_bfp_short
$pdata$z900_add_bfp_short_reg DD imagerel $LN34
	DD	imagerel $LN34+955
	DD	imagerel $unwind$z900_add_bfp_short_reg
$pdata$z900_compare_and_signal_bfp_ext_reg DD imagerel $LN20
	DD	imagerel $LN20+873
	DD	imagerel $unwind$z900_compare_and_signal_bfp_ext_reg
$pdata$z900_compare_and_signal_bfp_long DD imagerel $LN17
	DD	imagerel $LN17+805
	DD	imagerel $unwind$z900_compare_and_signal_bfp_long
$pdata$z900_compare_and_signal_bfp_long_reg DD imagerel $LN18
	DD	imagerel $LN18+660
	DD	imagerel $unwind$z900_compare_and_signal_bfp_long_reg
$pdata$z900_compare_and_signal_bfp_short DD imagerel $LN17
	DD	imagerel $LN17+802
	DD	imagerel $unwind$z900_compare_and_signal_bfp_short
$pdata$z900_compare_and_signal_bfp_short_reg DD imagerel $LN18
	DD	imagerel $LN18+658
	DD	imagerel $unwind$z900_compare_and_signal_bfp_short_reg
$pdata$z900_compare_bfp_ext_reg DD imagerel $LN20
	DD	imagerel $LN20+873
	DD	imagerel $unwind$z900_compare_bfp_ext_reg
$pdata$z900_compare_bfp_long DD imagerel $LN17
	DD	imagerel $LN17+805
	DD	imagerel $unwind$z900_compare_bfp_long
$pdata$z900_compare_bfp_long_reg DD imagerel $LN18
	DD	imagerel $LN18+660
	DD	imagerel $unwind$z900_compare_bfp_long_reg
$pdata$z900_compare_bfp_short DD imagerel $LN17
	DD	imagerel $LN17+802
	DD	imagerel $unwind$z900_compare_bfp_short
$pdata$z900_compare_bfp_short_reg DD imagerel $LN18
	DD	imagerel $LN18+658
	DD	imagerel $unwind$z900_compare_bfp_short_reg
$pdata$z900_convert_bfp_ext_to_fix32_reg DD imagerel $LN32
	DD	imagerel $LN32+1424
	DD	imagerel $unwind$z900_convert_bfp_ext_to_fix32_reg
$pdata$z900_convert_bfp_ext_to_fix64_reg DD imagerel $LN32
	DD	imagerel $LN32+1436
	DD	imagerel $unwind$z900_convert_bfp_ext_to_fix64_reg
$pdata$z900_convert_bfp_long_to_fix32_reg DD imagerel $LN31
	DD	imagerel $LN31+1178
	DD	imagerel $unwind$z900_convert_bfp_long_to_fix32_reg
$pdata$z900_convert_bfp_long_to_fix64_reg DD imagerel $LN31
	DD	imagerel $LN31+1190
	DD	imagerel $unwind$z900_convert_bfp_long_to_fix64_reg
$pdata$z900_convert_bfp_short_to_fix32_reg DD imagerel $LN31
	DD	imagerel $LN31+1163
	DD	imagerel $unwind$z900_convert_bfp_short_to_fix32_reg
$pdata$z900_convert_bfp_short_to_fix64_reg DD imagerel $LN31
	DD	imagerel $LN31+1175
	DD	imagerel $unwind$z900_convert_bfp_short_to_fix64_reg
$pdata$z900_convert_fix32_to_bfp_ext_reg DD imagerel $LN20
	DD	imagerel $LN20+836
	DD	imagerel $unwind$z900_convert_fix32_to_bfp_ext_reg
$pdata$z900_convert_fix32_to_bfp_long_reg DD imagerel $LN19
	DD	imagerel $LN19+671
	DD	imagerel $unwind$z900_convert_fix32_to_bfp_long_reg
$pdata$z900_convert_fix32_to_bfp_short_reg DD imagerel $LN21
	DD	imagerel $LN21+765
	DD	imagerel $unwind$z900_convert_fix32_to_bfp_short_reg
$pdata$z900_convert_fix64_to_bfp_ext_reg DD imagerel $LN20
	DD	imagerel $LN20+839
	DD	imagerel $unwind$z900_convert_fix64_to_bfp_ext_reg
$pdata$z900_convert_fix64_to_bfp_long_reg DD imagerel $LN21
	DD	imagerel $LN21+769
	DD	imagerel $unwind$z900_convert_fix64_to_bfp_long_reg
$pdata$z900_convert_fix64_to_bfp_short_reg DD imagerel $LN21
	DD	imagerel $LN21+768
	DD	imagerel $unwind$z900_convert_fix64_to_bfp_short_reg
$pdata$z900_divide_bfp_ext_reg DD imagerel $LN26
	DD	imagerel $LN26+1161
	DD	imagerel $unwind$z900_divide_bfp_ext_reg
$pdata$z900_divide_bfp_long DD imagerel $LN23
	DD	imagerel $LN23+1024
	DD	imagerel $unwind$z900_divide_bfp_long
$pdata$z900_divide_bfp_long_reg DD imagerel $LN24
	DD	imagerel $LN24+879
	DD	imagerel $unwind$z900_divide_bfp_long_reg
$pdata$z900_divide_bfp_short DD imagerel $LN23
	DD	imagerel $LN23+1019
	DD	imagerel $unwind$z900_divide_bfp_short
$pdata$z900_divide_bfp_short_reg DD imagerel $LN24
	DD	imagerel $LN24+875
	DD	imagerel $unwind$z900_divide_bfp_short_reg
$pdata$z900_divide_integer_bfp_long_reg DD imagerel $LN44
	DD	imagerel $LN44+3264
	DD	imagerel $unwind$z900_divide_integer_bfp_long_reg
$pdata$z900_divide_integer_bfp_short_reg DD imagerel $LN44
	DD	imagerel $LN44+2536
	DD	imagerel $unwind$z900_divide_integer_bfp_short_reg
$pdata$z900_load_and_test_bfp_ext_reg DD imagerel $LN33
	DD	imagerel $LN33+1106
	DD	imagerel $unwind$z900_load_and_test_bfp_ext_reg
$pdata$z900_load_and_test_bfp_long_reg DD imagerel $LN29
	DD	imagerel $LN29+819
	DD	imagerel $unwind$z900_load_and_test_bfp_long_reg
$pdata$z900_load_and_test_bfp_short_reg DD imagerel $LN29
	DD	imagerel $LN29+707
	DD	imagerel $unwind$z900_load_and_test_bfp_short_reg
$pdata$z900_load_complement_bfp_ext_reg DD imagerel $LN28
	DD	imagerel $LN28+820
	DD	imagerel $unwind$z900_load_complement_bfp_ext_reg
$pdata$z900_load_complement_bfp_long_reg DD imagerel $LN25
	DD	imagerel $LN25+676
	DD	imagerel $unwind$z900_load_complement_bfp_long_reg
$pdata$z900_load_complement_bfp_short_reg DD imagerel $LN25
	DD	imagerel $LN25+602
	DD	imagerel $unwind$z900_load_complement_bfp_short_reg
$pdata$z900_load_fp_int_bfp_ext_reg DD imagerel $LN24
	DD	imagerel $LN24+1104
	DD	imagerel $unwind$z900_load_fp_int_bfp_ext_reg
$pdata$z900_load_fp_int_bfp_long_reg DD imagerel $LN22
	DD	imagerel $LN22+876
	DD	imagerel $unwind$z900_load_fp_int_bfp_long_reg
$pdata$z900_load_fp_int_bfp_short_reg DD imagerel $LN22
	DD	imagerel $LN22+874
	DD	imagerel $unwind$z900_load_fp_int_bfp_short_reg
$pdata$z900_load_lengthened_bfp_long_to_ext DD imagerel $LN19
	DD	imagerel $LN19+1012
	DD	imagerel $unwind$z900_load_lengthened_bfp_long_to_ext
$pdata$z900_load_lengthened_bfp_long_to_ext_reg DD imagerel $LN17
	DD	imagerel $LN17+849
	DD	imagerel $unwind$z900_load_lengthened_bfp_long_to_ext_reg
$pdata$z900_load_lengthened_bfp_short_to_ext DD imagerel $LN19
	DD	imagerel $LN19+995
	DD	imagerel $unwind$z900_load_lengthened_bfp_short_to_ext
$pdata$z900_load_lengthened_bfp_short_to_ext_reg DD imagerel $LN17
	DD	imagerel $LN17+833
	DD	imagerel $unwind$z900_load_lengthened_bfp_short_to_ext_reg
$pdata$z900_load_lengthened_bfp_short_to_long DD imagerel $LN18
	DD	imagerel $LN18+818
	DD	imagerel $unwind$z900_load_lengthened_bfp_short_to_long
$pdata$z900_load_lengthened_bfp_short_to_long_reg DD imagerel $LN16
	DD	imagerel $LN16+668
	DD	imagerel $unwind$z900_load_lengthened_bfp_short_to_long_reg
$pdata$z900_load_negative_bfp_ext_reg DD imagerel $LN28
	DD	imagerel $LN28+820
	DD	imagerel $unwind$z900_load_negative_bfp_ext_reg
$pdata$z900_load_negative_bfp_long_reg DD imagerel $LN25
	DD	imagerel $LN25+676
	DD	imagerel $unwind$z900_load_negative_bfp_long_reg
$pdata$z900_load_negative_bfp_short_reg DD imagerel $LN25
	DD	imagerel $LN25+602
	DD	imagerel $unwind$z900_load_negative_bfp_short_reg
$pdata$z900_load_positive_bfp_ext_reg DD imagerel $LN28
	DD	imagerel $LN28+820
	DD	imagerel $unwind$z900_load_positive_bfp_ext_reg
$pdata$z900_load_positive_bfp_long_reg DD imagerel $LN25
	DD	imagerel $LN25+676
	DD	imagerel $unwind$z900_load_positive_bfp_long_reg
$pdata$z900_load_positive_bfp_short_reg DD imagerel $LN25
	DD	imagerel $LN25+602
	DD	imagerel $unwind$z900_load_positive_bfp_short_reg
$pdata$z900_load_rounded_bfp_ext_to_long_reg DD imagerel $LN30
	DD	imagerel $LN30+1317
	DD	imagerel $unwind$z900_load_rounded_bfp_ext_to_long_reg
$pdata$z900_load_rounded_bfp_ext_to_short_reg DD imagerel $LN30
	DD	imagerel $LN30+1310
	DD	imagerel $unwind$z900_load_rounded_bfp_ext_to_short_reg
$pdata$z900_load_rounded_bfp_long_to_short_reg DD imagerel $LN28
	DD	imagerel $LN28+1090
	DD	imagerel $unwind$z900_load_rounded_bfp_long_to_short_reg
$pdata$z900_multiply_add_bfp_long DD imagerel $LN25
	DD	imagerel $LN25+1116
	DD	imagerel $unwind$z900_multiply_add_bfp_long
$pdata$z900_multiply_add_bfp_long_reg DD imagerel $LN23
	DD	imagerel $LN23+855
	DD	imagerel $unwind$z900_multiply_add_bfp_long_reg
$pdata$z900_multiply_add_bfp_short DD imagerel $LN25
	DD	imagerel $LN25+1013
	DD	imagerel $unwind$z900_multiply_add_bfp_short
$pdata$z900_multiply_add_bfp_short_reg DD imagerel $LN23
	DD	imagerel $LN23+851
	DD	imagerel $unwind$z900_multiply_add_bfp_short_reg
$pdata$z900_multiply_bfp_ext_reg DD imagerel $LN25
	DD	imagerel $LN25+1079
	DD	imagerel $unwind$z900_multiply_bfp_ext_reg
$pdata$z900_multiply_bfp_long DD imagerel $LN22
	DD	imagerel $LN22+948
	DD	imagerel $unwind$z900_multiply_bfp_long
$pdata$z900_multiply_bfp_long_reg DD imagerel $LN23
	DD	imagerel $LN23+803
	DD	imagerel $unwind$z900_multiply_bfp_long_reg
$pdata$z900_multiply_bfp_long_to_ext DD imagerel $LN23
	DD	imagerel $LN23+1362
	DD	imagerel $unwind$z900_multiply_bfp_long_to_ext
$pdata$z900_multiply_bfp_long_to_ext_reg DD imagerel $LN24
	DD	imagerel $LN24+1202
	DD	imagerel $unwind$z900_multiply_bfp_long_to_ext_reg
$pdata$z900_multiply_bfp_short DD imagerel $LN22
	DD	imagerel $LN22+943
	DD	imagerel $unwind$z900_multiply_bfp_short
$pdata$z900_multiply_bfp_short_reg DD imagerel $LN23
	DD	imagerel $LN23+799
	DD	imagerel $unwind$z900_multiply_bfp_short_reg
$pdata$z900_multiply_bfp_short_to_long DD imagerel $LN22
	DD	imagerel $LN22+1020
	DD	imagerel $unwind$z900_multiply_bfp_short_to_long
$pdata$z900_multiply_bfp_short_to_long_reg DD imagerel $LN23
	DD	imagerel $LN23+876
	DD	imagerel $unwind$z900_multiply_bfp_short_to_long_reg
$pdata$z900_multiply_subtract_bfp_long DD imagerel $LN27
	DD	imagerel $LN27+1213
	DD	imagerel $unwind$z900_multiply_subtract_bfp_long
$pdata$z900_multiply_subtract_bfp_long_reg DD imagerel $LN25
	DD	imagerel $LN25+952
	DD	imagerel $unwind$z900_multiply_subtract_bfp_long_reg
$pdata$z900_multiply_subtract_bfp_short DD imagerel $LN27
	DD	imagerel $LN27+1062
	DD	imagerel $unwind$z900_multiply_subtract_bfp_short
$pdata$z900_multiply_subtract_bfp_short_reg DD imagerel $LN25
	DD	imagerel $LN25+900
	DD	imagerel $unwind$z900_multiply_subtract_bfp_short_reg
$pdata$z900_squareroot_bfp_ext_reg DD imagerel $LN19
	DD	imagerel $LN19+1042
	DD	imagerel $unwind$z900_squareroot_bfp_ext_reg
$pdata$z900_squareroot_bfp_long DD imagerel $LN19
	DD	imagerel $LN19+979
	DD	imagerel $unwind$z900_squareroot_bfp_long
$pdata$z900_squareroot_bfp_long_reg DD imagerel $LN17
	DD	imagerel $LN17+828
	DD	imagerel $unwind$z900_squareroot_bfp_long_reg
$pdata$z900_squareroot_bfp_short DD imagerel $LN19
	DD	imagerel $LN19+976
	DD	imagerel $unwind$z900_squareroot_bfp_short
$pdata$z900_squareroot_bfp_short_reg DD imagerel $LN17
	DD	imagerel $LN17+826
	DD	imagerel $unwind$z900_squareroot_bfp_short_reg
$pdata$z900_subtract_bfp_ext_reg DD imagerel $LN37
	DD	imagerel $LN37+1438
	DD	imagerel $unwind$z900_subtract_bfp_ext_reg
$pdata$z900_subtract_bfp_long DD imagerel $LN33
	DD	imagerel $LN33+1259
	DD	imagerel $unwind$z900_subtract_bfp_long
$pdata$z900_subtract_bfp_long_reg DD imagerel $LN34
	DD	imagerel $LN34+1019
	DD	imagerel $unwind$z900_subtract_bfp_long_reg
$pdata$z900_subtract_bfp_short DD imagerel $LN33
	DD	imagerel $LN33+1099
	DD	imagerel $unwind$z900_subtract_bfp_short
$pdata$z900_subtract_bfp_short_reg DD imagerel $LN34
	DD	imagerel $LN34+955
	DD	imagerel $unwind$z900_subtract_bfp_short_reg
$pdata$z900_test_data_class_bfp_ext DD imagerel $LN19
	DD	imagerel $LN19+759
	DD	imagerel $unwind$z900_test_data_class_bfp_ext
$pdata$z900_test_data_class_bfp_long DD imagerel $LN18
	DD	imagerel $LN18+595
	DD	imagerel $unwind$z900_test_data_class_bfp_long
$pdata$z900_test_data_class_bfp_short DD imagerel $LN18
	DD	imagerel $LN18+594
	DD	imagerel $unwind$z900_test_data_class_bfp_short
$pdata$z900_convert_bfp_long_to_float_long_reg DD imagerel $LN15
	DD	imagerel $LN15+466
	DD	imagerel $unwind$z900_convert_bfp_long_to_float_long_reg
$pdata$z900_convert_bfp_short_to_float_long_reg DD imagerel $LN15
	DD	imagerel $LN15+552
	DD	imagerel $unwind$z900_convert_bfp_short_to_float_long_reg
$pdata$z900_convert_float_long_to_bfp_long_reg DD imagerel $LN15
	DD	imagerel $LN15+575
	DD	imagerel $unwind$z900_convert_float_long_to_bfp_long_reg
$pdata$z900_convert_float_long_to_bfp_short_reg DD imagerel $LN15
	DD	imagerel $LN15+583
	DD	imagerel $unwind$z900_convert_float_long_to_bfp_short_reg
pdata	ENDS
;	COMDAT pdata
pdata	SEGMENT
$pdata$z900_per3_zero DD imagerel $LN12
	DD	imagerel $LN12+215
	DD	imagerel $unwind$z900_per3_zero
pdata	ENDS
;	COMDAT pdata
pdata	SEGMENT
$pdata$z900_per3_zero_xcheck2 DD imagerel $LN18
	DD	imagerel $LN18+485
	DD	imagerel $unwind$z900_per3_zero_xcheck2
pdata	ENDS
;	COMDAT pdata
pdata	SEGMENT
$pdata$z900_maddr_l DD imagerel $LN18
	DD	imagerel $LN18+657
	DD	imagerel $unwind$z900_maddr_l
pdata	ENDS
;	COMDAT pdata
pdata	SEGMENT
$pdata$z900_vfetch4_full DD imagerel $LN3
	DD	imagerel $LN3+307
	DD	imagerel $unwind$z900_vfetch4_full
pdata	ENDS
;	COMDAT pdata
pdata	SEGMENT
$pdata$z900_vfetch8_full DD imagerel $LN3
	DD	imagerel $LN3+307
	DD	imagerel $unwind$z900_vfetch8_full
pdata	ENDS
;	COMDAT pdata
pdata	SEGMENT
$pdata$z900_vfetch4 DD imagerel $LN11
	DD	imagerel $LN11+195
	DD	imagerel $unwind$z900_vfetch4
pdata	ENDS
;	COMDAT pdata
pdata	SEGMENT
$pdata$z900_vfetch8 DD imagerel $LN8
	DD	imagerel $LN8+157
	DD	imagerel $unwind$z900_vfetch8
pdata	ENDS
pdata	SEGMENT
$pdata$z900_BFP_RM_check DD imagerel z900_BFP_RM_check
	DD	imagerel z900_BFP_RM_check+161
	DD	imagerel $unwind$z900_BFP_RM_check
$pdata$z900_float128_cc_quiet DD imagerel z900_float128_cc_quiet
	DD	imagerel z900_float128_cc_quiet+458
	DD	imagerel $unwind$z900_float128_cc_quiet
$pdata$z900_float128_compare DD imagerel z900_float128_compare
	DD	imagerel z900_float128_compare+226
	DD	imagerel $unwind$z900_float128_compare
$pdata$z900_float128_signaling_compare DD imagerel z900_float128_signaling_compare
	DD	imagerel z900_float128_signaling_compare+349
	DD	imagerel $unwind$z900_float128_signaling_compare
$pdata$z900_float64_cc_quiet DD imagerel z900_float64_cc_quiet
	DD	imagerel z900_float64_cc_quiet+250
	DD	imagerel $unwind$z900_float64_cc_quiet
$pdata$z900_float64_compare DD imagerel z900_float64_compare
	DD	imagerel z900_float64_compare+133
	DD	imagerel $unwind$z900_float64_compare
$pdata$z900_float64_signaling_compare DD imagerel z900_float64_signaling_compare
	DD	imagerel z900_float64_signaling_compare+223
	DD	imagerel $unwind$z900_float64_signaling_compare
$pdata$z900_float32_cc_quiet DD imagerel z900_float32_cc_quiet
	DD	imagerel z900_float32_cc_quiet+174
	DD	imagerel $unwind$z900_float32_cc_quiet
$pdata$z900_float32_compare DD imagerel z900_float32_compare
	DD	imagerel z900_float32_compare+127
	DD	imagerel $unwind$z900_float32_compare
$pdata$z900_float32_signaling_compare DD imagerel z900_float32_signaling_compare
	DD	imagerel z900_float32_signaling_compare+153
	DD	imagerel $unwind$z900_float32_signaling_compare
pdata	ENDS
_DATA	SEGMENT
$SG198360 DB	'C:\papa\MyGit\hyperion-zvector\ieee.c:1099', 00H
	ORG $+5
$SG198384 DB	'C:\papa\MyGit\hyperion-zvector\ieee.c:1125', 00H
	ORG $+5
$SG198407 DB	'C:\papa\MyGit\hyperion-zvector\ieee.c:1154', 00H
	ORG $+5
$SG198432 DB	'C:\papa\MyGit\hyperion-zvector\ieee.c:1178', 00H
	ORG $+5
$SG198464 DB	'C:\papa\MyGit\hyperion-zvector\ieee.c:1204', 00H
	ORG $+5
$SG198500 DB	'C:\papa\MyGit\hyperion-zvector\ieee.c:1243', 00H
	ORG $+5
$SG198535 DB	'C:\papa\MyGit\hyperion-zvector\ieee.c:1282', 00H
	ORG $+5
$SG198569 DB	'C:\papa\MyGit\hyperion-zvector\ieee.c:1320', 00H
	ORG $+5
$SG198604 DB	'C:\papa\MyGit\hyperion-zvector\ieee.c:1359', 00H
	ORG $+5
$SG198635 DB	'C:\papa\MyGit\hyperion-zvector\ieee.c:1397', 00H
	ORG $+5
$SG198665 DB	'C:\papa\MyGit\hyperion-zvector\ieee.c:1425', 00H
	ORG $+5
$SG198694 DB	'C:\papa\MyGit\hyperion-zvector\ieee.c:1452', 00H
	ORG $+5
$SG198722 DB	'C:\papa\MyGit\hyperion-zvector\ieee.c:1477', 00H
	ORG $+5
$SG198751 DB	'C:\papa\MyGit\hyperion-zvector\ieee.c:1503', 00H
	ORG $+5
$SG198779 DB	'C:\papa\MyGit\hyperion-zvector\ieee.c:1528', 00H
	ORG $+5
$SG198809 DB	'C:\papa\MyGit\hyperion-zvector\ieee.c:1554', 00H
	ORG $+5
$SG198838 DB	'C:\papa\MyGit\hyperion-zvector\ieee.c:1579', 00H
	ORG $+5
$SG198866 DB	'C:\papa\MyGit\hyperion-zvector\ieee.c:1604', 00H
	ORG $+5
$SG198895 DB	'C:\papa\MyGit\hyperion-zvector\ieee.c:1630', 00H
	ORG $+5
$SG198920 DB	'C:\papa\MyGit\hyperion-zvector\ieee.c:1676', 00H
	ORG $+5
$SG198948 DB	'C:\papa\MyGit\hyperion-zvector\ieee.c:1712', 00H
	ORG $+5
$SG198976 DB	'C:\papa\MyGit\hyperion-zvector\ieee.c:1752', 00H
	ORG $+5
$SG199005 DB	'C:\papa\MyGit\hyperion-zvector\ieee.c:1795', 00H
	ORG $+5
$SG199034 DB	'C:\papa\MyGit\hyperion-zvector\ieee.c:1838', 00H
	ORG $+5
$SG199064 DB	'C:\papa\MyGit\hyperion-zvector\ieee.c:1887', 00H
	ORG $+5
$SG199096 DB	'C:\papa\MyGit\hyperion-zvector\ieee.c:1961', 00H
	ORG $+5
$SG199135 DB	'C:\papa\MyGit\hyperion-zvector\ieee.c:2036', 00H
	ORG $+5
$SG199173 DB	'C:\papa\MyGit\hyperion-zvector\ieee.c:2107', 00H
	ORG $+5
$SG199211 DB	'C:\papa\MyGit\hyperion-zvector\ieee.c:2179', 00H
	ORG $+5
$SG199250 DB	'C:\papa\MyGit\hyperion-zvector\ieee.c:2254', 00H
	ORG $+5
$SG199288 DB	'C:\papa\MyGit\hyperion-zvector\ieee.c:2328', 00H
	ORG $+5
$SG199322 DB	'C:\papa\MyGit\hyperion-zvector\ieee.c:2417', 00H
	ORG $+5
$SG199346 DB	'C:\papa\MyGit\hyperion-zvector\ieee.c:2445', 00H
	ORG $+5
$SG199371 DB	'C:\papa\MyGit\hyperion-zvector\ieee.c:2475', 00H
	ORG $+5
$SG199396 DB	'C:\papa\MyGit\hyperion-zvector\ieee.c:2507', 00H
	ORG $+5
$SG199422 DB	'C:\papa\MyGit\hyperion-zvector\ieee.c:2539', 00H
	ORG $+5
$SG199449 DB	'C:\papa\MyGit\hyperion-zvector\ieee.c:2577', 00H
	ORG $+5
$SG199477 DB	'C:\papa\MyGit\hyperion-zvector\ieee.c:2634', 00H
	ORG $+5
$SG199512 DB	'C:\papa\MyGit\hyperion-zvector\ieee.c:2684', 00H
	ORG $+5
$SG199545 DB	'C:\papa\MyGit\hyperion-zvector\ieee.c:2733', 00H
	ORG $+5
$SG199578 DB	'C:\papa\MyGit\hyperion-zvector\ieee.c:2782', 00H
	ORG $+5
$SG199613 DB	'C:\papa\MyGit\hyperion-zvector\ieee.c:2833', 00H
	ORG $+5
$SG199646 DB	'C:\papa\MyGit\hyperion-zvector\ieee.c:2883', 00H
	ORG $+5
$SG199680 DB	'C:\papa\MyGit\hyperion-zvector\ieee.c:2931', 00H
	ORG $+5
$SG199714 DB	'C:\papa\MyGit\hyperion-zvector\ieee.c:2971', 00H
	ORG $+5
$SG199747 DB	'C:\papa\MyGit\hyperion-zvector\ieee.c:3012', 00H
	ORG $+5
$SG199779 DB	'C:\papa\MyGit\hyperion-zvector\ieee.c:3053', 00H
	ORG $+5
$SG199812 DB	'C:\papa\MyGit\hyperion-zvector\ieee.c:3094', 00H
	ORG $+5
$SG199841 DB	'C:\papa\MyGit\hyperion-zvector\ieee.c:3134', 00H
	ORG $+5
$SG199872 DB	'C:\papa\MyGit\hyperion-zvector\ieee.c:3166', 00H
	ORG $+5
$SG199900 DB	'C:\papa\MyGit\hyperion-zvector\ieee.c:3198', 00H
	ORG $+5
$SG199928 DB	'C:\papa\MyGit\hyperion-zvector\ieee.c:3231', 00H
	ORG $+5
$SG199956 DB	'C:\papa\MyGit\hyperion-zvector\ieee.c:3269', 00H
	ORG $+5
$SG199984 DB	'C:\papa\MyGit\hyperion-zvector\ieee.c:3307', 00H
	ORG $+5
$SG200013 DB	'C:\papa\MyGit\hyperion-zvector\ieee.c:3359', 00H
	ORG $+5
$SG200042 DB	'C:\papa\MyGit\hyperion-zvector\ieee.c:3390', 00H
	ORG $+5
$SG200067 DB	'C:\papa\MyGit\hyperion-zvector\ieee.c:3419', 00H
	ORG $+5
$SG200097 DB	'C:\papa\MyGit\hyperion-zvector\ieee.c:3451', 00H
	ORG $+5
$SG200123 DB	'C:\papa\MyGit\hyperion-zvector\ieee.c:3481', 00H
	ORG $+5
$SG200153 DB	'C:\papa\MyGit\hyperion-zvector\ieee.c:3513', 00H
	ORG $+5
$SG200180 DB	'C:\papa\MyGit\hyperion-zvector\ieee.c:3542', 00H
	ORG $+5
$SG200206 DB	'C:\papa\MyGit\hyperion-zvector\ieee.c:3561', 00H
	ORG $+5
$SG200230 DB	'C:\papa\MyGit\hyperion-zvector\ieee.c:3579', 00H
	ORG $+5
$SG200254 DB	'C:\papa\MyGit\hyperion-zvector\ieee.c:3597', 00H
	ORG $+5
$SG200280 DB	'C:\papa\MyGit\hyperion-zvector\ieee.c:3616', 00H
	ORG $+5
$SG200304 DB	'C:\papa\MyGit\hyperion-zvector\ieee.c:3634', 00H
	ORG $+5
$SG200328 DB	'C:\papa\MyGit\hyperion-zvector\ieee.c:3653', 00H
	ORG $+5
$SG200354 DB	'C:\papa\MyGit\hyperion-zvector\ieee.c:3673', 00H
	ORG $+5
$SG200378 DB	'C:\papa\MyGit\hyperion-zvector\ieee.c:3691', 00H
	ORG $+5
$SG200403 DB	'C:\papa\MyGit\hyperion-zvector\ieee.c:3734', 00H
	ORG $+5
$SG200438 DB	'C:\papa\MyGit\hyperion-zvector\ieee.c:3797', 00H
	ORG $+5
$SG200475 DB	'C:\papa\MyGit\hyperion-zvector\ieee.c:3861', 00H
	ORG $+5
$SG200514 DB	'C:\papa\MyGit\hyperion-zvector\ieee.c:3922', 00H
	ORG $+5
$SG200549 DB	'C:\papa\MyGit\hyperion-zvector\ieee.c:3964', 00H
	ORG $+5
$SG200586 DB	'C:\papa\MyGit\hyperion-zvector\ieee.c:4020', 00H
	ORG $+5
$SG200620 DB	'C:\papa\MyGit\hyperion-zvector\ieee.c:4070', 00H
	ORG $+5
$SG200652 DB	'C:\papa\MyGit\hyperion-zvector\ieee.c:4109', 00H
	ORG $+5
$SG200685 DB	'C:\papa\MyGit\hyperion-zvector\ieee.c:4151', 00H
	ORG $+5
$SG200721 DB	'C:\papa\MyGit\hyperion-zvector\ieee.c:4206', 00H
	ORG $+5
$SG200754 DB	'C:\papa\MyGit\hyperion-zvector\ieee.c:4256', 00H
	ORG $+5
$SG200786 DB	'C:\papa\MyGit\hyperion-zvector\ieee.c:4295', 00H
	ORG $+5
$SG200819 DB	'C:\papa\MyGit\hyperion-zvector\ieee.c:4333', 00H
	ORG $+5
$SG200856 DB	'C:\papa\MyGit\hyperion-zvector\ieee.c:4373', 00H
	ORG $+5
$SG200889 DB	'C:\papa\MyGit\hyperion-zvector\ieee.c:4411', 00H
	ORG $+5
$SG200926 DB	'C:\papa\MyGit\hyperion-zvector\ieee.c:4451', 00H
	ORG $+5
$SG200959 DB	'C:\papa\MyGit\hyperion-zvector\ieee.c:4489', 00H
	ORG $+5
$SG200998 DB	'C:\papa\MyGit\hyperion-zvector\ieee.c:4536', 00H
	ORG $+5
$SG201033 DB	'C:\papa\MyGit\hyperion-zvector\ieee.c:4581', 00H
	ORG $+5
$SG201072 DB	'C:\papa\MyGit\hyperion-zvector\ieee.c:4628', 00H
	ORG $+5
$SG201103 DB	'C:\papa\MyGit\hyperion-zvector\ieee.c:4673', 00H
	ORG $+5
$SG201133 DB	'C:\papa\MyGit\hyperion-zvector\ieee.c:4706', 00H
	ORG $+5
$SG201165 DB	'C:\papa\MyGit\hyperion-zvector\ieee.c:4740', 00H
	ORG $+5
$SG201193 DB	'C:\papa\MyGit\hyperion-zvector\ieee.c:4772', 00H
	ORG $+5
$SG201225 DB	'C:\papa\MyGit\hyperion-zvector\ieee.c:4806', 00H
	ORG $+5
$SG201258 DB	'C:\papa\MyGit\hyperion-zvector\ieee.c:4839', 00H
	ORG $+5
$SG201294 DB	'C:\papa\MyGit\hyperion-zvector\ieee.c:4878', 00H
	ORG $+5
$SG201329 DB	'C:\papa\MyGit\hyperion-zvector\ieee.c:4917', 00H
	ORG $+5
$SG201363 DB	'C:\papa\MyGit\hyperion-zvector\ieee.c:4955', 00H
	ORG $+5
$SG201398 DB	'C:\papa\MyGit\hyperion-zvector\ieee.c:4994', 00H
	ORG $+5
$SG201428 DB	'C:\papa\MyGit\hyperion-zvector\ieee.c:5033', 00H
	ORG $+5
$SG201454 DB	'C:\papa\MyGit\hyperion-zvector\ieee.c:5052', 00H
	ORG $+5
$SG201480 DB	'C:\papa\MyGit\hyperion-zvector\ieee.c:5071', 00H
	ORG $+5
$SG201519 DB	'C:\papa\MyGit\hyperion-zvector\ieee.c:5108', 00H
	ORG $+5
$SG201582 DB	'C:\papa\MyGit\hyperion-zvector\ieee.c:5338', 00H
_DATA	ENDS
;	COMDAT xdata
xdata	SEGMENT
$unwind$z900_vfetch8 DD 011201H
	DD	08212H
xdata	ENDS
;	COMDAT xdata
xdata	SEGMENT
$unwind$z900_vfetch4 DD 011201H
	DD	08212H
xdata	ENDS
;	COMDAT voltbl
voltbl	SEGMENT
_volmd	DW	01eH
	DW	011fH
voltbl	ENDS
;	COMDAT xdata
xdata	SEGMENT
$unwind$z900_vfetch8_full DD 032319H
	DD	07010c214H
	DD	0600fH
	DD	imagerel __GSHandlerCheck
	DD	050H
xdata	ENDS
;	COMDAT voltbl
voltbl	SEGMENT
_volmd	DW	01eH
	DW	011fH
voltbl	ENDS
;	COMDAT xdata
xdata	SEGMENT
$unwind$z900_vfetch4_full DD 032319H
	DD	07010a214H
	DD	0600fH
	DD	imagerel __GSHandlerCheck
	DD	048H
xdata	ENDS
;	COMDAT xdata
xdata	SEGMENT
$unwind$z900_maddr_l DD 011801H
	DD	0a218H
xdata	ENDS
;	COMDAT xdata
xdata	SEGMENT
$unwind$z900_per3_zero_xcheck2 DD 011201H
	DD	0a212H
xdata	ENDS
;	COMDAT xdata
xdata	SEGMENT
$unwind$z900_per3_zero DD 010901H
	DD	06209H
xdata	ENDS
;	COMDAT xdata
xdata	SEGMENT
$unwind$s390_vfetch8 DD 011101H
	DD	08211H
xdata	ENDS
;	COMDAT xdata
xdata	SEGMENT
$unwind$s390_vfetch4 DD 011101H
	DD	08211H
xdata	ENDS
;	COMDAT voltbl
voltbl	SEGMENT
_volmd	DW	01dH
	DW	0114H
voltbl	ENDS
;	COMDAT xdata
xdata	SEGMENT
$unwind$s390_vfetch8_full DD 032219H
	DD	0700fc213H
	DD	0600eH
	DD	imagerel __GSHandlerCheck
	DD	050H
xdata	ENDS
;	COMDAT voltbl
voltbl	SEGMENT
_volmd	DW	01dH
	DW	0114H
voltbl	ENDS
;	COMDAT xdata
xdata	SEGMENT
$unwind$s390_vfetch4_full DD 032219H
	DD	0700fa213H
	DD	0600eH
	DD	imagerel __GSHandlerCheck
	DD	048H
xdata	ENDS
;	COMDAT xdata
xdata	SEGMENT
$unwind$s390_maddr_l DD 011701H
	DD	0a217H
xdata	ENDS
;	COMDAT xdata
xdata	SEGMENT
$unwind$s370_vfetch8 DD 011101H
	DD	0a211H
xdata	ENDS
;	COMDAT xdata
xdata	SEGMENT
$unwind$s370_vfetch4 DD 011101H
	DD	0a211H
xdata	ENDS
;	COMDAT voltbl
voltbl	SEGMENT
_volmd	DW	01dH
	DW	010cH
voltbl	ENDS
;	COMDAT xdata
xdata	SEGMENT
$unwind$s370_vfetch8_full DD 032219H
	DD	0700fc213H
	DD	0600eH
	DD	imagerel __GSHandlerCheck
	DD	050H
xdata	ENDS
;	COMDAT voltbl
voltbl	SEGMENT
_volmd	DW	01dH
	DW	010cH
voltbl	ENDS
;	COMDAT xdata
xdata	SEGMENT
$unwind$s370_vfetch4_full DD 032219H
	DD	0700fa213H
	DD	0600eH
	DD	imagerel __GSHandlerCheck
	DD	048H
xdata	ENDS
;	COMDAT xdata
xdata	SEGMENT
$unwind$s370_maddr_l DD 011701H
	DD	0a217H
xdata	ENDS
;	COMDAT xdata
xdata	SEGMENT
$unwind$fetch_dw_noswap DD 010901H
	DD	02209H
xdata	ENDS
;	COMDAT xdata
xdata	SEGMENT
$unwind$fetch_fw_noswap DD 010901H
	DD	02209H
xdata	ENDS
voltbl	SEGMENT
_volmd	DD	0ffffffffH
	DDSymXIndex: 	FLAT:z900_convert_float_long_to_bfp_short_reg
	DD	018H
	DD	0235H
_volmd	DD	0ffffffffH
	DDSymXIndex: 	FLAT:z900_convert_float_long_to_bfp_long_reg
	DD	018H
	DD	022dH
_volmd	DD	0ffffffffH
	DDSymXIndex: 	FLAT:z900_convert_bfp_short_to_float_long_reg
	DD	018H
	DD	0216H
_volmd	DD	0ffffffffH
	DDSymXIndex: 	FLAT:z900_convert_bfp_long_to_float_long_reg
	DD	018H
	DD	01c0H
_volmd	DD	0ffffffffH
	DDSymXIndex: 	FLAT:z900_test_data_class_bfp_ext
	DD	01aH
	DD	02e3H
_volmd	DD	0ffffffffH
	DDSymXIndex: 	FLAT:z900_subtract_bfp_ext_reg
	DD	01dH
	DD	0584H
_volmd	DD	0ffffffffH
	DDSymXIndex: 	FLAT:z900_squareroot_bfp_ext_reg
	DD	01dH
	DD	03fbH
_volmd	DD	0ffffffffH
	DDSymXIndex: 	FLAT:z900_multiply_bfp_long_to_ext_reg
	DD	01dH
	DD	0498H
_volmd	DD	0ffffffffH
	DDSymXIndex: 	FLAT:z900_multiply_bfp_long_to_ext
	DD	01dH
	DD	0538H
_volmd	DD	0ffffffffH
	DDSymXIndex: 	FLAT:z900_multiply_bfp_ext_reg
	DD	01dH
	DD	041dH
_volmd	DD	0ffffffffH
	DDSymXIndex: 	FLAT:z900_load_rounded_bfp_ext_to_short_reg
	DD	01dH
	DD	0507H
_volmd	DD	0ffffffffH
	DDSymXIndex: 	FLAT:z900_load_rounded_bfp_ext_to_long_reg
	DD	01dH
	DD	050bH
_volmd	DD	0ffffffffH
	DDSymXIndex: 	FLAT:z900_load_positive_bfp_ext_reg
	DD	018H
	DD	0322H
_volmd	DD	0ffffffffH
	DDSymXIndex: 	FLAT:z900_load_negative_bfp_ext_reg
	DD	018H
	DD	0322H
_volmd	DD	0ffffffffH
	DDSymXIndex: 	FLAT:z900_load_lengthened_bfp_short_to_ext_reg
	DD	01aH
	DD	032dH
_volmd	DD	0ffffffffH
	DDSymXIndex: 	FLAT:z900_load_lengthened_bfp_short_to_ext
	DD	01aH
	DD	03cfH
_volmd	DD	0ffffffffH
	DDSymXIndex: 	FLAT:z900_load_lengthened_bfp_long_to_ext_reg
	DD	01aH
	DD	033dH
_volmd	DD	0ffffffffH
	DDSymXIndex: 	FLAT:z900_load_lengthened_bfp_long_to_ext
	DD	01aH
	DD	03e0H
_volmd	DD	0ffffffffH
	DDSymXIndex: 	FLAT:z900_load_fp_int_bfp_ext_reg
	DD	01dH
	DD	0436H
_volmd	DD	0ffffffffH
	DDSymXIndex: 	FLAT:z900_load_complement_bfp_ext_reg
	DD	018H
	DD	0322H
_volmd	DD	0ffffffffH
	DDSymXIndex: 	FLAT:z900_load_and_test_bfp_ext_reg
	DD	01aH
	DD	043eH
_volmd	DD	0ffffffffH
	DDSymXIndex: 	FLAT:z900_divide_integer_bfp_long_reg
	DD	01dH
	DD	0ca6H
_volmd	DD	0ffffffffH
	DDSymXIndex: 	FLAT:z900_divide_bfp_ext_reg
	DD	01dH
	DD	046fH
_volmd	DD	0ffffffffH
	DDSymXIndex: 	FLAT:z900_convert_fix64_to_bfp_ext_reg
	DD	01aH
	DD	0333H
_volmd	DD	0ffffffffH
	DDSymXIndex: 	FLAT:z900_convert_fix32_to_bfp_ext_reg
	DD	01aH
	DD	0330H
_volmd	DD	0ffffffffH
	DDSymXIndex: 	FLAT:z900_convert_bfp_ext_to_fix64_reg
	DD	01dH
	DD	0582H
_volmd	DD	0ffffffffH
	DDSymXIndex: 	FLAT:z900_convert_bfp_ext_to_fix32_reg
	DD	01dH
	DD	0576H
_volmd	DD	0ffffffffH
	DDSymXIndex: 	FLAT:z900_compare_bfp_ext_reg
	DD	01dH
	DD	0352H
_volmd	DD	0ffffffffH
	DDSymXIndex: 	FLAT:z900_compare_and_signal_bfp_ext_reg
	DD	01dH
	DD	0352H
_volmd	DD	0ffffffffH
	DDSymXIndex: 	FLAT:z900_add_bfp_ext_reg
	DD	01dH
	DD	0547H
_volmd	DD	0ffffffffH
	DDSymXIndex: 	FLAT:z900_convert_bfp_ext_to_u64_reg
	DD	01dH
	DD	0601H
_volmd	DD	0ffffffffH
	DDSymXIndex: 	FLAT:z900_convert_bfp_ext_to_u32_reg
	DD	01dH
	DD	05f9H
_volmd	DD	0ffffffffH
	DDSymXIndex: 	FLAT:z900_convert_u64_to_bfp_ext_reg
	DD	01aH
	DD	02d8H
_volmd	DD	0ffffffffH
	DDSymXIndex: 	FLAT:z900_convert_u32_to_bfp_ext_reg
	DD	01aH
	DD	02d5H
_volmd	DD	0ffffffffH
	DDSymXIndex: 	FLAT:s390_convert_float_long_to_bfp_short_reg
	DD	018H
	DD	01d7H
_volmd	DD	0ffffffffH
	DDSymXIndex: 	FLAT:s390_convert_float_long_to_bfp_long_reg
	DD	018H
	DD	01cfH
_volmd	DD	0ffffffffH
	DDSymXIndex: 	FLAT:s390_convert_bfp_short_to_float_long_reg
	DD	018H
	DD	01b8H
_volmd	DD	0ffffffffH
	DDSymXIndex: 	FLAT:s390_convert_bfp_long_to_float_long_reg
	DD	018H
	DD	016eH
_volmd	DD	0ffffffffH
	DDSymXIndex: 	FLAT:s390_test_data_class_bfp_ext
	DD	01aH
	DD	0235H
_volmd	DD	0ffffffffH
	DDSymXIndex: 	FLAT:s390_subtract_bfp_ext_reg
	DD	01dH
	DD	04e8H
_volmd	DD	0ffffffffH
	DDSymXIndex: 	FLAT:s390_squareroot_bfp_ext_reg
	DD	01dH
	DD	035fH
_volmd	DD	0ffffffffH
	DDSymXIndex: 	FLAT:s390_multiply_bfp_long_to_ext_reg
	DD	01dH
	DD	03fcH
_volmd	DD	0ffffffffH
	DDSymXIndex: 	FLAT:s390_multiply_bfp_long_to_ext
	DD	01dH
	DD	0473H
_volmd	DD	0ffffffffH
	DDSymXIndex: 	FLAT:s390_multiply_bfp_ext_reg
	DD	01dH
	DD	0381H
_volmd	DD	0ffffffffH
	DDSymXIndex: 	FLAT:s390_load_rounded_bfp_ext_to_short_reg
	DD	01dH
	DD	037cH
_volmd	DD	0ffffffffH
	DDSymXIndex: 	FLAT:s390_load_rounded_bfp_ext_to_long_reg
	DD	01dH
	DD	037dH
_volmd	DD	0ffffffffH
	DDSymXIndex: 	FLAT:s390_load_positive_bfp_ext_reg
	DD	018H
	DD	02a0H
_volmd	DD	0ffffffffH
	DDSymXIndex: 	FLAT:s390_load_negative_bfp_ext_reg
	DD	018H
	DD	02a0H
_volmd	DD	0ffffffffH
	DDSymXIndex: 	FLAT:s390_load_lengthened_bfp_short_to_ext_reg
	DD	01aH
	DD	0291H
_volmd	DD	0ffffffffH
	DDSymXIndex: 	FLAT:s390_load_lengthened_bfp_short_to_ext
	DD	01aH
	DD	030aH
_volmd	DD	0ffffffffH
	DDSymXIndex: 	FLAT:s390_load_lengthened_bfp_long_to_ext_reg
	DD	01aH
	DD	02a1H
_volmd	DD	0ffffffffH
	DDSymXIndex: 	FLAT:s390_load_lengthened_bfp_long_to_ext
	DD	01aH
	DD	031bH
_volmd	DD	0ffffffffH
	DDSymXIndex: 	FLAT:s390_load_fp_int_bfp_ext_reg
	DD	01dH
	DD	037aH
_volmd	DD	0ffffffffH
	DDSymXIndex: 	FLAT:s390_load_complement_bfp_ext_reg
	DD	018H
	DD	02a0H
_volmd	DD	0ffffffffH
	DDSymXIndex: 	FLAT:s390_load_and_test_bfp_ext_reg
	DD	01aH
	DD	03a2H
_volmd	DD	0ffffffffH
	DDSymXIndex: 	FLAT:s390_divide_integer_bfp_long_reg
	DD	01dH
	DD	0c0aH
_volmd	DD	0ffffffffH
	DDSymXIndex: 	FLAT:s390_divide_bfp_ext_reg
	DD	01dH
	DD	03d3H
_volmd	DD	0ffffffffH
	DDSymXIndex: 	FLAT:s390_convert_fix32_to_bfp_ext_reg
	DD	01aH
	DD	0260H
_volmd	DD	0ffffffffH
	DDSymXIndex: 	FLAT:s390_convert_bfp_ext_to_fix32_reg
	DD	01dH
	DD	04baH
_volmd	DD	0ffffffffH
	DDSymXIndex: 	FLAT:s390_compare_bfp_ext_reg
	DD	01dH
	DD	02b6H
_volmd	DD	0ffffffffH
	DDSymXIndex: 	FLAT:s390_compare_and_signal_bfp_ext_reg
	DD	01dH
	DD	02b6H
_volmd	DD	0ffffffffH
	DDSymXIndex: 	FLAT:s390_add_bfp_ext_reg
	DD	01dH
	DD	04abH
_volmd	DD	0ffffffffH
	DDSymXIndex: 	FLAT:s370_test_data_class_bfp_ext
	DD	01aH
	DD	0228H
_volmd	DD	0ffffffffH
	DDSymXIndex: 	FLAT:s370_subtract_bfp_ext_reg
	DD	01dH
	DD	04e8H
_volmd	DD	0ffffffffH
	DDSymXIndex: 	FLAT:s370_squareroot_bfp_ext_reg
	DD	01dH
	DD	035fH
_volmd	DD	0ffffffffH
	DDSymXIndex: 	FLAT:s370_multiply_bfp_long_to_ext_reg
	DD	01dH
	DD	03fcH
_volmd	DD	0ffffffffH
	DDSymXIndex: 	FLAT:s370_multiply_bfp_long_to_ext
	DD	01dH
	DD	0466H
_volmd	DD	0ffffffffH
	DDSymXIndex: 	FLAT:s370_multiply_bfp_ext_reg
	DD	01dH
	DD	0381H
_volmd	DD	0ffffffffH
	DDSymXIndex: 	FLAT:s370_load_rounded_bfp_ext_to_short_reg
	DD	01dH
	DD	046bH
_volmd	DD	0ffffffffH
	DDSymXIndex: 	FLAT:s370_load_rounded_bfp_ext_to_long_reg
	DD	01dH
	DD	046fH
_volmd	DD	0ffffffffH
	DDSymXIndex: 	FLAT:s370_load_positive_bfp_ext_reg
	DD	018H
	DD	02a0H
_volmd	DD	0ffffffffH
	DDSymXIndex: 	FLAT:s370_load_negative_bfp_ext_reg
	DD	018H
	DD	02a0H
_volmd	DD	0ffffffffH
	DDSymXIndex: 	FLAT:s370_load_lengthened_bfp_short_to_ext_reg
	DD	01aH
	DD	0291H
_volmd	DD	0ffffffffH
	DDSymXIndex: 	FLAT:s370_load_lengthened_bfp_short_to_ext
	DD	01aH
	DD	02fdH
_volmd	DD	0ffffffffH
	DDSymXIndex: 	FLAT:s370_load_lengthened_bfp_long_to_ext_reg
	DD	01aH
	DD	02a1H
_volmd	DD	0ffffffffH
	DDSymXIndex: 	FLAT:s370_load_lengthened_bfp_long_to_ext
	DD	01aH
	DD	030eH
_volmd	DD	0ffffffffH
	DDSymXIndex: 	FLAT:s370_load_fp_int_bfp_ext_reg
	DD	01dH
	DD	039aH
_volmd	DD	0ffffffffH
	DDSymXIndex: 	FLAT:s370_load_complement_bfp_ext_reg
	DD	018H
	DD	02a0H
_volmd	DD	0ffffffffH
	DDSymXIndex: 	FLAT:s370_load_and_test_bfp_ext_reg
	DD	01aH
	DD	03a2H
_volmd	DD	0ffffffffH
	DDSymXIndex: 	FLAT:s370_divide_integer_bfp_long_reg
	DD	01dH
	DD	0c0aH
_volmd	DD	0ffffffffH
	DDSymXIndex: 	FLAT:s370_divide_bfp_ext_reg
	DD	01dH
	DD	03d3H
_volmd	DD	0ffffffffH
	DDSymXIndex: 	FLAT:s370_convert_fix32_to_bfp_ext_reg
	DD	01aH
	DD	0294H
_volmd	DD	0ffffffffH
	DDSymXIndex: 	FLAT:s370_convert_bfp_ext_to_fix32_reg
	DD	01dH
	DD	04daH
_volmd	DD	0ffffffffH
	DDSymXIndex: 	FLAT:s370_compare_bfp_ext_reg
	DD	01dH
	DD	02b6H
_volmd	DD	0ffffffffH
	DDSymXIndex: 	FLAT:s370_compare_and_signal_bfp_ext_reg
	DD	01dH
	DD	02b6H
_volmd	DD	0ffffffffH
	DDSymXIndex: 	FLAT:s370_add_bfp_ext_reg
	DD	01dH
	DD	04abH
_volmd	DD	0ffffffffH
	DDSymXIndex: 	FLAT:s370_convert_bfp_ext_to_u64_reg
	DD	01dH
	DD	0565H
_volmd	DD	0ffffffffH
	DDSymXIndex: 	FLAT:s370_convert_bfp_ext_to_u32_reg
	DD	01dH
	DD	055dH
_volmd	DD	0ffffffffH
	DDSymXIndex: 	FLAT:s370_convert_u64_to_bfp_ext_reg
	DD	01aH
	DD	023cH
_volmd	DD	0ffffffffH
	DDSymXIndex: 	FLAT:s370_convert_u32_to_bfp_ext_reg
	DD	01aH
	DD	0239H
voltbl	ENDS
xdata	SEGMENT
$unwind$s370_convert_u32_to_bfp_ext_reg DD 031f19H
	DD	0700cc210H
	DD	0600bH
	DD	imagerel __GSHandlerCheck
	DD	058H
$unwind$s370_convert_u32_to_bfp_long_reg DD 010e01H
	DD	0820eH
$unwind$s370_convert_u32_to_bfp_short_reg DD 010e01H
	DD	0820eH
$unwind$s370_convert_u64_to_bfp_ext_reg DD 031f19H
	DD	0700ce210H
	DD	0600bH
	DD	imagerel __GSHandlerCheck
	DD	060H
$unwind$s370_convert_u64_to_bfp_long_reg DD 010e01H
	DD	0a20eH
$unwind$s370_convert_u64_to_bfp_short_reg DD 010e01H
	DD	0a20eH
$unwind$s370_convert_bfp_ext_to_u32_reg DD 042519H
	DD	0130113H
	DD	0600b700cH
	DD	imagerel __GSHandlerCheck
	DD	080H
$unwind$s370_convert_bfp_long_to_u32_reg DD 010e01H
	DD	0c20eH
$unwind$s370_convert_bfp_short_to_u32_reg DD 010e01H
	DD	0c20eH
$unwind$s370_convert_bfp_ext_to_u64_reg DD 042519H
	DD	0130113H
	DD	0600b700cH
	DD	imagerel __GSHandlerCheck
	DD	080H
$unwind$s370_convert_bfp_long_to_u64_reg DD 010e01H
	DD	0c20eH
$unwind$s370_convert_bfp_short_to_u64_reg DD 010e01H
	DD	0c20eH
$unwind$s370_add_bfp_ext_reg DD 042519H
	DD	01b0113H
	DD	0600b700cH
	DD	imagerel __GSHandlerCheck
	DD	0c0H
$unwind$s370_add_bfp_long DD 010e01H
	DD	0e20eH
$unwind$s370_add_bfp_long_reg DD 010e01H
	DD	0c20eH
$unwind$s370_add_bfp_short DD 010e01H
	DD	0c20eH
$unwind$s370_add_bfp_short_reg DD 010e01H
	DD	0a20eH
$unwind$s370_compare_and_signal_bfp_ext_reg DD 042219H
	DD	0110113H
	DD	0600b700cH
	DD	imagerel __GSHandlerCheck
	DD	070H
$unwind$s370_compare_and_signal_bfp_long DD 010e01H
	DD	0a20eH
$unwind$s370_compare_and_signal_bfp_long_reg DD 010e01H
	DD	0820eH
$unwind$s370_compare_and_signal_bfp_short DD 010e01H
	DD	0820eH
$unwind$s370_compare_and_signal_bfp_short_reg DD 010e01H
	DD	0820eH
$unwind$s370_compare_bfp_ext_reg DD 042219H
	DD	0110113H
	DD	0600b700cH
	DD	imagerel __GSHandlerCheck
	DD	070H
$unwind$s370_compare_bfp_long DD 010e01H
	DD	0a20eH
$unwind$s370_compare_bfp_long_reg DD 010e01H
	DD	0820eH
$unwind$s370_compare_bfp_short DD 010e01H
	DD	0820eH
$unwind$s370_compare_bfp_short_reg DD 010e01H
	DD	0820eH
$unwind$s370_convert_bfp_ext_to_fix32_reg DD 042519H
	DD	0150113H
	DD	0600b700cH
	DD	imagerel __GSHandlerCheck
	DD	090H
$unwind$s370_convert_bfp_long_to_fix32_reg DD 010e01H
	DD	0a20eH
$unwind$s370_convert_bfp_short_to_fix32_reg DD 010e01H
	DD	0a20eH
$unwind$s370_convert_fix32_to_bfp_ext_reg DD 031f19H
	DD	0700cc210H
	DD	0600bH
	DD	imagerel __GSHandlerCheck
	DD	058H
$unwind$s370_convert_fix32_to_bfp_long_reg DD 010e01H
	DD	0820eH
$unwind$s370_convert_fix32_to_bfp_short_reg DD 010e01H
	DD	0820eH
$unwind$s370_divide_bfp_ext_reg DD 042519H
	DD	0190113H
	DD	0600b700cH
	DD	imagerel __GSHandlerCheck
	DD	0b0H
$unwind$s370_divide_bfp_long DD 010e01H
	DD	0c20eH
$unwind$s370_divide_bfp_long_reg DD 010e01H
	DD	0a20eH
$unwind$s370_divide_bfp_short DD 010e01H
	DD	0a20eH
$unwind$s370_divide_bfp_short_reg DD 010e01H
	DD	0820eH
$unwind$s370_divide_integer_bfp_long_reg DD 042519H
	DD	0330113H
	DD	0600b700cH
	DD	imagerel __GSHandlerCheck
	DD	0180H
$unwind$s370_divide_integer_bfp_short_reg DD 021101H
	DD	0110111H
$unwind$s370_load_and_test_bfp_ext_reg DD 031f19H
	DD	0700ce210H
	DD	0600bH
	DD	imagerel __GSHandlerCheck
	DD	060H
$unwind$s370_load_and_test_bfp_long_reg DD 010e01H
	DD	0a20eH
$unwind$s370_load_and_test_bfp_short_reg DD 010e01H
	DD	0820eH
$unwind$s370_load_complement_bfp_ext_reg DD 011d19H
	DD	0c20eH
	DD	imagerel __GSHandlerCheck
	DD	050H
$unwind$s370_load_complement_bfp_long_reg DD 010e01H
	DD	0a20eH
$unwind$s370_load_complement_bfp_short_reg DD 010e01H
	DD	0820eH
$unwind$s370_load_fp_int_bfp_ext_reg DD 042519H
	DD	0130113H
	DD	0600b700cH
	DD	imagerel __GSHandlerCheck
	DD	080H
$unwind$s370_load_fp_int_bfp_long_reg DD 010e01H
	DD	0a20eH
$unwind$s370_load_fp_int_bfp_short_reg DD 010e01H
	DD	0820eH
$unwind$s370_load_lengthened_bfp_long_to_ext DD 031f19H
	DD	0700ce210H
	DD	0600bH
	DD	imagerel __GSHandlerCheck
	DD	060H
$unwind$s370_load_lengthened_bfp_long_to_ext_reg DD 031f19H
	DD	0700cc210H
	DD	0600bH
	DD	imagerel __GSHandlerCheck
	DD	058H
$unwind$s370_load_lengthened_bfp_short_to_ext DD 031f19H
	DD	0700cc210H
	DD	0600bH
	DD	imagerel __GSHandlerCheck
	DD	058H
$unwind$s370_load_lengthened_bfp_short_to_ext_reg DD 031f19H
	DD	0700cc210H
	DD	0600bH
	DD	imagerel __GSHandlerCheck
	DD	050H
$unwind$s370_load_lengthened_bfp_short_to_long DD 010e01H
	DD	0820eH
$unwind$s370_load_lengthened_bfp_short_to_long_reg DD 010e01H
	DD	0820eH
$unwind$s370_load_negative_bfp_ext_reg DD 011d19H
	DD	0c20eH
	DD	imagerel __GSHandlerCheck
	DD	050H
$unwind$s370_load_negative_bfp_long_reg DD 010e01H
	DD	0a20eH
$unwind$s370_load_negative_bfp_short_reg DD 010e01H
	DD	0820eH
$unwind$s370_load_positive_bfp_ext_reg DD 011d19H
	DD	0c20eH
	DD	imagerel __GSHandlerCheck
	DD	050H
$unwind$s370_load_positive_bfp_long_reg DD 010e01H
	DD	0a20eH
$unwind$s370_load_positive_bfp_short_reg DD 010e01H
	DD	0820eH
$unwind$s370_load_rounded_bfp_ext_to_long_reg DD 042519H
	DD	0130113H
	DD	0600b700cH
	DD	imagerel __GSHandlerCheck
	DD	080H
$unwind$s370_load_rounded_bfp_ext_to_short_reg DD 042219H
	DD	0110113H
	DD	0600b700cH
	DD	imagerel __GSHandlerCheck
	DD	070H
$unwind$s370_load_rounded_bfp_long_to_short_reg DD 010e01H
	DD	0a20eH
$unwind$s370_multiply_add_bfp_long DD 010e01H
	DD	0c20eH
$unwind$s370_multiply_add_bfp_long_reg DD 010e01H
	DD	0c20eH
$unwind$s370_multiply_add_bfp_short DD 010e01H
	DD	0a20eH
$unwind$s370_multiply_add_bfp_short_reg DD 010e01H
	DD	0a20eH
$unwind$s370_multiply_bfp_ext_reg DD 042519H
	DD	0190113H
	DD	0600b700cH
	DD	imagerel __GSHandlerCheck
	DD	0b0H
$unwind$s370_multiply_bfp_long DD 010e01H
	DD	0c20eH
$unwind$s370_multiply_bfp_long_reg DD 010e01H
	DD	0a20eH
$unwind$s370_multiply_bfp_long_to_ext DD 042519H
	DD	01d0113H
	DD	0600b700cH
	DD	imagerel __GSHandlerCheck
	DD	0d0H
$unwind$s370_multiply_bfp_long_to_ext_reg DD 042519H
	DD	01b0113H
	DD	0600b700cH
	DD	imagerel __GSHandlerCheck
	DD	0c0H
$unwind$s370_multiply_bfp_short DD 010e01H
	DD	0a20eH
$unwind$s370_multiply_bfp_short_reg DD 010e01H
	DD	0820eH
$unwind$s370_multiply_bfp_short_to_long DD 010e01H
	DD	0c20eH
$unwind$s370_multiply_bfp_short_to_long_reg DD 010e01H
	DD	0a20eH
$unwind$s370_multiply_subtract_bfp_long DD 010e01H
	DD	0e20eH
$unwind$s370_multiply_subtract_bfp_long_reg DD 010e01H
	DD	0c20eH
$unwind$s370_multiply_subtract_bfp_short DD 010e01H
	DD	0a20eH
$unwind$s370_multiply_subtract_bfp_short_reg DD 010e01H
	DD	0a20eH
$unwind$s370_squareroot_bfp_ext_reg DD 042219H
	DD	0110113H
	DD	0600b700cH
	DD	imagerel __GSHandlerCheck
	DD	070H
$unwind$s370_squareroot_bfp_long DD 010e01H
	DD	0a20eH
$unwind$s370_squareroot_bfp_long_reg DD 010e01H
	DD	0820eH
$unwind$s370_squareroot_bfp_short DD 010e01H
	DD	0820eH
$unwind$s370_squareroot_bfp_short_reg DD 010e01H
	DD	0820eH
$unwind$s370_subtract_bfp_ext_reg DD 042519H
	DD	01b0113H
	DD	0600b700cH
	DD	imagerel __GSHandlerCheck
	DD	0c0H
$unwind$s370_subtract_bfp_long DD 010e01H
	DD	0e20eH
$unwind$s370_subtract_bfp_long_reg DD 010e01H
	DD	0c20eH
$unwind$s370_subtract_bfp_short DD 010e01H
	DD	0c20eH
$unwind$s370_subtract_bfp_short_reg DD 010e01H
	DD	0a20eH
$unwind$s370_test_data_class_bfp_ext DD 031f19H
	DD	0700ce210H
	DD	0600bH
	DD	imagerel __GSHandlerCheck
	DD	060H
$unwind$s370_test_data_class_bfp_long DD 010e01H
	DD	0820eH
$unwind$s370_test_data_class_bfp_short DD 010e01H
	DD	0820eH
$unwind$ieee_trap DD 010d01H
	DD	0420dH
$unwind$ieee_cond_trap DD 010d01H
	DD	0820dH
$unwind$float128_class DD 030b01H
	DD	07007a20bH
	DD	06006H
$unwind$float64_class DD 010901H
	DD	08209H
$unwind$float32_class DD 010801H
	DD	08208H
$unwind$ieee_exception_test_oux DD 010901H
	DD	02209H
$unwind$s370_BFP_RM_check DD 010d01H
	DD	0420dH
$unwind$s370_float128_cc_quiet DD 031001H
	DD	0700ce210H
	DD	0600bH
$unwind$s370_float128_compare DD 031001H
	DD	0700cc210H
	DD	0600bH
$unwind$s370_float128_signaling_compare DD 031001H
	DD	0700c8210H
	DD	0600bH
$unwind$s370_float64_cc_quiet DD 010e01H
	DD	0620eH
$unwind$s370_float64_compare DD 010e01H
	DD	0420eH
$unwind$s370_float64_signaling_compare DD 010e01H
	DD	0420eH
$unwind$s370_float32_cc_quiet DD 010c01H
	DD	0620cH
$unwind$s370_float32_compare DD 010c01H
	DD	0420cH
$unwind$s370_float32_signaling_compare DD 010c01H
	DD	0420cH
$unwind$get_lbfp DD 010e01H
	DD	0220eH
$unwind$get_sbfp DD 010e01H
	DD	0220eH
$unwind$put_lbfp DD 010e01H
	DD	0220eH
$unwind$put_sbfp DD 010e01H
	DD	0220eH
$unwind$s390_add_bfp_ext_reg DD 042519H
	DD	01b0113H
	DD	0600b700cH
	DD	imagerel __GSHandlerCheck
	DD	0c0H
$unwind$s390_add_bfp_long DD 010e01H
	DD	0e20eH
$unwind$s390_add_bfp_long_reg DD 010e01H
	DD	0c20eH
$unwind$s390_add_bfp_short DD 010e01H
	DD	0c20eH
$unwind$s390_add_bfp_short_reg DD 010e01H
	DD	0a20eH
$unwind$s390_compare_and_signal_bfp_ext_reg DD 042219H
	DD	0110113H
	DD	0600b700cH
	DD	imagerel __GSHandlerCheck
	DD	070H
$unwind$s390_compare_and_signal_bfp_long DD 010e01H
	DD	0a20eH
$unwind$s390_compare_and_signal_bfp_long_reg DD 010e01H
	DD	0820eH
$unwind$s390_compare_and_signal_bfp_short DD 010e01H
	DD	0820eH
$unwind$s390_compare_and_signal_bfp_short_reg DD 010e01H
	DD	0820eH
$unwind$s390_compare_bfp_ext_reg DD 042219H
	DD	0110113H
	DD	0600b700cH
	DD	imagerel __GSHandlerCheck
	DD	070H
$unwind$s390_compare_bfp_long DD 010e01H
	DD	0a20eH
$unwind$s390_compare_bfp_long_reg DD 010e01H
	DD	0820eH
$unwind$s390_compare_bfp_short DD 010e01H
	DD	0820eH
$unwind$s390_compare_bfp_short_reg DD 010e01H
	DD	0820eH
$unwind$s390_convert_bfp_ext_to_fix32_reg DD 042519H
	DD	0150113H
	DD	0600b700cH
	DD	imagerel __GSHandlerCheck
	DD	090H
$unwind$s390_convert_bfp_long_to_fix32_reg DD 010e01H
	DD	0a20eH
$unwind$s390_convert_bfp_short_to_fix32_reg DD 010e01H
	DD	0a20eH
$unwind$s390_convert_fix32_to_bfp_ext_reg DD 031f19H
	DD	0700cc210H
	DD	0600bH
	DD	imagerel __GSHandlerCheck
	DD	058H
$unwind$s390_convert_fix32_to_bfp_long_reg DD 010e01H
	DD	0820eH
$unwind$s390_convert_fix32_to_bfp_short_reg DD 010e01H
	DD	0820eH
$unwind$s390_divide_bfp_ext_reg DD 042519H
	DD	0190113H
	DD	0600b700cH
	DD	imagerel __GSHandlerCheck
	DD	0b0H
$unwind$s390_divide_bfp_long DD 010e01H
	DD	0c20eH
$unwind$s390_divide_bfp_long_reg DD 010e01H
	DD	0a20eH
$unwind$s390_divide_bfp_short DD 010e01H
	DD	0a20eH
$unwind$s390_divide_bfp_short_reg DD 010e01H
	DD	0820eH
$unwind$s390_divide_integer_bfp_long_reg DD 042519H
	DD	0330113H
	DD	0600b700cH
	DD	imagerel __GSHandlerCheck
	DD	0180H
$unwind$s390_divide_integer_bfp_short_reg DD 021101H
	DD	0110111H
$unwind$s390_load_and_test_bfp_ext_reg DD 031f19H
	DD	0700ce210H
	DD	0600bH
	DD	imagerel __GSHandlerCheck
	DD	060H
$unwind$s390_load_and_test_bfp_long_reg DD 010e01H
	DD	0a20eH
$unwind$s390_load_and_test_bfp_short_reg DD 010e01H
	DD	0820eH
$unwind$s390_load_complement_bfp_ext_reg DD 011d19H
	DD	0c20eH
	DD	imagerel __GSHandlerCheck
	DD	050H
$unwind$s390_load_complement_bfp_long_reg DD 010e01H
	DD	0a20eH
$unwind$s390_load_complement_bfp_short_reg DD 010e01H
	DD	0820eH
$unwind$s390_load_fp_int_bfp_ext_reg DD 042519H
	DD	0130113H
	DD	0600b700cH
	DD	imagerel __GSHandlerCheck
	DD	080H
$unwind$s390_load_fp_int_bfp_long_reg DD 010e01H
	DD	0a20eH
$unwind$s390_load_fp_int_bfp_short_reg DD 010e01H
	DD	0820eH
$unwind$s390_load_lengthened_bfp_long_to_ext DD 031f19H
	DD	0700ce210H
	DD	0600bH
	DD	imagerel __GSHandlerCheck
	DD	060H
$unwind$s390_load_lengthened_bfp_long_to_ext_reg DD 031f19H
	DD	0700cc210H
	DD	0600bH
	DD	imagerel __GSHandlerCheck
	DD	058H
$unwind$s390_load_lengthened_bfp_short_to_ext DD 031f19H
	DD	0700cc210H
	DD	0600bH
	DD	imagerel __GSHandlerCheck
	DD	058H
$unwind$s390_load_lengthened_bfp_short_to_ext_reg DD 031f19H
	DD	0700cc210H
	DD	0600bH
	DD	imagerel __GSHandlerCheck
	DD	050H
$unwind$s390_load_lengthened_bfp_short_to_long DD 010e01H
	DD	0820eH
$unwind$s390_load_lengthened_bfp_short_to_long_reg DD 010e01H
	DD	0820eH
$unwind$s390_load_negative_bfp_ext_reg DD 011d19H
	DD	0c20eH
	DD	imagerel __GSHandlerCheck
	DD	050H
$unwind$s390_load_negative_bfp_long_reg DD 010e01H
	DD	0a20eH
$unwind$s390_load_negative_bfp_short_reg DD 010e01H
	DD	0820eH
$unwind$s390_load_positive_bfp_ext_reg DD 011d19H
	DD	0c20eH
	DD	imagerel __GSHandlerCheck
	DD	050H
$unwind$s390_load_positive_bfp_long_reg DD 010e01H
	DD	0a20eH
$unwind$s390_load_positive_bfp_short_reg DD 010e01H
	DD	0820eH
$unwind$s390_load_rounded_bfp_ext_to_long_reg DD 042219H
	DD	0110113H
	DD	0600b700cH
	DD	imagerel __GSHandlerCheck
	DD	070H
$unwind$s390_load_rounded_bfp_ext_to_short_reg DD 042219H
	DD	0110113H
	DD	0600b700cH
	DD	imagerel __GSHandlerCheck
	DD	070H
$unwind$s390_load_rounded_bfp_long_to_short_reg DD 010e01H
	DD	0a20eH
$unwind$s390_multiply_add_bfp_long DD 010e01H
	DD	0c20eH
$unwind$s390_multiply_add_bfp_long_reg DD 010e01H
	DD	0c20eH
$unwind$s390_multiply_add_bfp_short DD 010e01H
	DD	0a20eH
$unwind$s390_multiply_add_bfp_short_reg DD 010e01H
	DD	0a20eH
$unwind$s390_multiply_bfp_ext_reg DD 042519H
	DD	0190113H
	DD	0600b700cH
	DD	imagerel __GSHandlerCheck
	DD	0b0H
$unwind$s390_multiply_bfp_long DD 010e01H
	DD	0c20eH
$unwind$s390_multiply_bfp_long_reg DD 010e01H
	DD	0a20eH
$unwind$s390_multiply_bfp_long_to_ext DD 042519H
	DD	01d0113H
	DD	0600b700cH
	DD	imagerel __GSHandlerCheck
	DD	0d0H
$unwind$s390_multiply_bfp_long_to_ext_reg DD 042519H
	DD	01b0113H
	DD	0600b700cH
	DD	imagerel __GSHandlerCheck
	DD	0c0H
$unwind$s390_multiply_bfp_short DD 010e01H
	DD	0a20eH
$unwind$s390_multiply_bfp_short_reg DD 010e01H
	DD	0820eH
$unwind$s390_multiply_bfp_short_to_long DD 010e01H
	DD	0c20eH
$unwind$s390_multiply_bfp_short_to_long_reg DD 010e01H
	DD	0a20eH
$unwind$s390_multiply_subtract_bfp_long DD 010e01H
	DD	0e20eH
$unwind$s390_multiply_subtract_bfp_long_reg DD 010e01H
	DD	0c20eH
$unwind$s390_multiply_subtract_bfp_short DD 010e01H
	DD	0a20eH
$unwind$s390_multiply_subtract_bfp_short_reg DD 010e01H
	DD	0a20eH
$unwind$s390_squareroot_bfp_ext_reg DD 042219H
	DD	0110113H
	DD	0600b700cH
	DD	imagerel __GSHandlerCheck
	DD	070H
$unwind$s390_squareroot_bfp_long DD 010e01H
	DD	0a20eH
$unwind$s390_squareroot_bfp_long_reg DD 010e01H
	DD	0820eH
$unwind$s390_squareroot_bfp_short DD 010e01H
	DD	0820eH
$unwind$s390_squareroot_bfp_short_reg DD 010e01H
	DD	0820eH
$unwind$s390_subtract_bfp_ext_reg DD 042519H
	DD	01b0113H
	DD	0600b700cH
	DD	imagerel __GSHandlerCheck
	DD	0c0H
$unwind$s390_subtract_bfp_long DD 010e01H
	DD	0e20eH
$unwind$s390_subtract_bfp_long_reg DD 010e01H
	DD	0c20eH
$unwind$s390_subtract_bfp_short DD 010e01H
	DD	0c20eH
$unwind$s390_subtract_bfp_short_reg DD 010e01H
	DD	0a20eH
$unwind$s390_test_data_class_bfp_ext DD 031f19H
	DD	0700ce210H
	DD	0600bH
	DD	imagerel __GSHandlerCheck
	DD	060H
$unwind$s390_test_data_class_bfp_long DD 010e01H
	DD	0820eH
$unwind$s390_test_data_class_bfp_short DD 010e01H
	DD	0820eH
$unwind$s390_convert_bfp_long_to_float_long_reg DD 011d19H
	DD	0c20eH
	DD	imagerel __GSHandlerCheck
	DD	050H
$unwind$s390_convert_bfp_short_to_float_long_reg DD 011d19H
	DD	0e20eH
	DD	imagerel __GSHandlerCheck
	DD	060H
$unwind$s390_convert_float_long_to_bfp_long_reg DD 011d19H
	DD	0e20eH
	DD	imagerel __GSHandlerCheck
	DD	068H
$unwind$s390_convert_float_long_to_bfp_short_reg DD 011d19H
	DD	0e20eH
	DD	imagerel __GSHandlerCheck
	DD	068H
$unwind$s390_BFP_RM_check DD 010d01H
	DD	0420dH
$unwind$s390_float128_cc_quiet DD 031001H
	DD	0700ce210H
	DD	0600bH
$unwind$s390_float128_compare DD 031001H
	DD	0700cc210H
	DD	0600bH
$unwind$s390_float128_signaling_compare DD 031001H
	DD	0700c8210H
	DD	0600bH
$unwind$s390_float64_cc_quiet DD 010e01H
	DD	0620eH
$unwind$s390_float64_compare DD 010e01H
	DD	0420eH
$unwind$s390_float64_signaling_compare DD 010e01H
	DD	0420eH
$unwind$s390_float32_cc_quiet DD 010c01H
	DD	0620cH
$unwind$s390_float32_compare DD 010c01H
	DD	0420cH
$unwind$s390_float32_signaling_compare DD 010c01H
	DD	0420cH
$unwind$cnvt_bfp_to_hfp DD 011201H
	DD	08212H
$unwind$cnvt_hfp_to_bfp DD 011701H
	DD	08217H
$unwind$z900_convert_u32_to_bfp_ext_reg DD 031f19H
	DD	0700cc210H
	DD	0600bH
	DD	imagerel __GSHandlerCheck
	DD	058H
$unwind$z900_convert_u32_to_bfp_long_reg DD 010e01H
	DD	0820eH
$unwind$z900_convert_u32_to_bfp_short_reg DD 010e01H
	DD	0820eH
$unwind$z900_convert_u64_to_bfp_ext_reg DD 031f19H
	DD	0700ce210H
	DD	0600bH
	DD	imagerel __GSHandlerCheck
	DD	060H
$unwind$z900_convert_u64_to_bfp_long_reg DD 010e01H
	DD	0a20eH
$unwind$z900_convert_u64_to_bfp_short_reg DD 010e01H
	DD	0a20eH
$unwind$z900_convert_bfp_ext_to_u32_reg DD 042519H
	DD	0130113H
	DD	0600b700cH
	DD	imagerel __GSHandlerCheck
	DD	080H
$unwind$z900_convert_bfp_long_to_u32_reg DD 010e01H
	DD	0c20eH
$unwind$z900_convert_bfp_short_to_u32_reg DD 010e01H
	DD	0c20eH
$unwind$z900_convert_bfp_ext_to_u64_reg DD 042519H
	DD	0130113H
	DD	0600b700cH
	DD	imagerel __GSHandlerCheck
	DD	080H
$unwind$z900_convert_bfp_long_to_u64_reg DD 010e01H
	DD	0c20eH
$unwind$z900_convert_bfp_short_to_u64_reg DD 010e01H
	DD	0c20eH
$unwind$z900_add_bfp_ext_reg DD 042519H
	DD	01b0113H
	DD	0600b700cH
	DD	imagerel __GSHandlerCheck
	DD	0c0H
$unwind$z900_add_bfp_long DD 010e01H
	DD	0e20eH
$unwind$z900_add_bfp_long_reg DD 010e01H
	DD	0c20eH
$unwind$z900_add_bfp_short DD 010e01H
	DD	0c20eH
$unwind$z900_add_bfp_short_reg DD 010e01H
	DD	0a20eH
$unwind$z900_compare_and_signal_bfp_ext_reg DD 042219H
	DD	0110113H
	DD	0600b700cH
	DD	imagerel __GSHandlerCheck
	DD	070H
$unwind$z900_compare_and_signal_bfp_long DD 010e01H
	DD	0a20eH
$unwind$z900_compare_and_signal_bfp_long_reg DD 010e01H
	DD	0820eH
$unwind$z900_compare_and_signal_bfp_short DD 010e01H
	DD	0a20eH
$unwind$z900_compare_and_signal_bfp_short_reg DD 010e01H
	DD	0820eH
$unwind$z900_compare_bfp_ext_reg DD 042219H
	DD	0110113H
	DD	0600b700cH
	DD	imagerel __GSHandlerCheck
	DD	070H
$unwind$z900_compare_bfp_long DD 010e01H
	DD	0a20eH
$unwind$z900_compare_bfp_long_reg DD 010e01H
	DD	0820eH
$unwind$z900_compare_bfp_short DD 010e01H
	DD	0a20eH
$unwind$z900_compare_bfp_short_reg DD 010e01H
	DD	0820eH
$unwind$z900_convert_bfp_ext_to_fix32_reg DD 042519H
	DD	0150113H
	DD	0600b700cH
	DD	imagerel __GSHandlerCheck
	DD	090H
$unwind$z900_convert_bfp_ext_to_fix64_reg DD 042519H
	DD	0150113H
	DD	0600b700cH
	DD	imagerel __GSHandlerCheck
	DD	090H
$unwind$z900_convert_bfp_long_to_fix32_reg DD 010e01H
	DD	0a20eH
$unwind$z900_convert_bfp_long_to_fix64_reg DD 010e01H
	DD	0c20eH
$unwind$z900_convert_bfp_short_to_fix32_reg DD 010e01H
	DD	0a20eH
$unwind$z900_convert_bfp_short_to_fix64_reg DD 010e01H
	DD	0a20eH
$unwind$z900_convert_fix32_to_bfp_ext_reg DD 031f19H
	DD	0700cc210H
	DD	0600bH
	DD	imagerel __GSHandlerCheck
	DD	058H
$unwind$z900_convert_fix32_to_bfp_long_reg DD 010e01H
	DD	0820eH
$unwind$z900_convert_fix32_to_bfp_short_reg DD 010e01H
	DD	0820eH
$unwind$z900_convert_fix64_to_bfp_ext_reg DD 031f19H
	DD	0700ce210H
	DD	0600bH
	DD	imagerel __GSHandlerCheck
	DD	060H
$unwind$z900_convert_fix64_to_bfp_long_reg DD 010e01H
	DD	0a20eH
$unwind$z900_convert_fix64_to_bfp_short_reg DD 010e01H
	DD	0a20eH
$unwind$z900_divide_bfp_ext_reg DD 042519H
	DD	0190113H
	DD	0600b700cH
	DD	imagerel __GSHandlerCheck
	DD	0b0H
$unwind$z900_divide_bfp_long DD 010e01H
	DD	0c20eH
$unwind$z900_divide_bfp_long_reg DD 010e01H
	DD	0a20eH
$unwind$z900_divide_bfp_short DD 010e01H
	DD	0a20eH
$unwind$z900_divide_bfp_short_reg DD 010e01H
	DD	0820eH
$unwind$z900_divide_integer_bfp_long_reg DD 042519H
	DD	0330113H
	DD	0600b700cH
	DD	imagerel __GSHandlerCheck
	DD	0180H
$unwind$z900_divide_integer_bfp_short_reg DD 021101H
	DD	0110111H
$unwind$z900_load_and_test_bfp_ext_reg DD 031f19H
	DD	0700ce210H
	DD	0600bH
	DD	imagerel __GSHandlerCheck
	DD	060H
$unwind$z900_load_and_test_bfp_long_reg DD 010e01H
	DD	0a20eH
$unwind$z900_load_and_test_bfp_short_reg DD 010e01H
	DD	0820eH
$unwind$z900_load_complement_bfp_ext_reg DD 011d19H
	DD	0c20eH
	DD	imagerel __GSHandlerCheck
	DD	050H
$unwind$z900_load_complement_bfp_long_reg DD 010e01H
	DD	0a20eH
$unwind$z900_load_complement_bfp_short_reg DD 010e01H
	DD	0820eH
$unwind$z900_load_fp_int_bfp_ext_reg DD 042519H
	DD	0130113H
	DD	0600b700cH
	DD	imagerel __GSHandlerCheck
	DD	080H
$unwind$z900_load_fp_int_bfp_long_reg DD 010e01H
	DD	0a20eH
$unwind$z900_load_fp_int_bfp_short_reg DD 010e01H
	DD	0820eH
$unwind$z900_load_lengthened_bfp_long_to_ext DD 031f19H
	DD	0700ce210H
	DD	0600bH
	DD	imagerel __GSHandlerCheck
	DD	068H
$unwind$z900_load_lengthened_bfp_long_to_ext_reg DD 031f19H
	DD	0700cc210H
	DD	0600bH
	DD	imagerel __GSHandlerCheck
	DD	058H
$unwind$z900_load_lengthened_bfp_short_to_ext DD 031f19H
	DD	0700ce210H
	DD	0600bH
	DD	imagerel __GSHandlerCheck
	DD	060H
$unwind$z900_load_lengthened_bfp_short_to_ext_reg DD 031f19H
	DD	0700cc210H
	DD	0600bH
	DD	imagerel __GSHandlerCheck
	DD	050H
$unwind$z900_load_lengthened_bfp_short_to_long DD 010e01H
	DD	0a20eH
$unwind$z900_load_lengthened_bfp_short_to_long_reg DD 010e01H
	DD	0820eH
$unwind$z900_load_negative_bfp_ext_reg DD 011d19H
	DD	0c20eH
	DD	imagerel __GSHandlerCheck
	DD	050H
$unwind$z900_load_negative_bfp_long_reg DD 010e01H
	DD	0a20eH
$unwind$z900_load_negative_bfp_short_reg DD 010e01H
	DD	0820eH
$unwind$z900_load_positive_bfp_ext_reg DD 011d19H
	DD	0c20eH
	DD	imagerel __GSHandlerCheck
	DD	050H
$unwind$z900_load_positive_bfp_long_reg DD 010e01H
	DD	0a20eH
$unwind$z900_load_positive_bfp_short_reg DD 010e01H
	DD	0820eH
$unwind$z900_load_rounded_bfp_ext_to_long_reg DD 042519H
	DD	0130113H
	DD	0600b700cH
	DD	imagerel __GSHandlerCheck
	DD	080H
$unwind$z900_load_rounded_bfp_ext_to_short_reg DD 042219H
	DD	0110113H
	DD	0600b700cH
	DD	imagerel __GSHandlerCheck
	DD	070H
$unwind$z900_load_rounded_bfp_long_to_short_reg DD 010e01H
	DD	0a20eH
$unwind$z900_multiply_add_bfp_long DD 010e01H
	DD	0e20eH
$unwind$z900_multiply_add_bfp_long_reg DD 010e01H
	DD	0c20eH
$unwind$z900_multiply_add_bfp_short DD 010e01H
	DD	0c20eH
$unwind$z900_multiply_add_bfp_short_reg DD 010e01H
	DD	0a20eH
$unwind$z900_multiply_bfp_ext_reg DD 042519H
	DD	0190113H
	DD	0600b700cH
	DD	imagerel __GSHandlerCheck
	DD	0b0H
$unwind$z900_multiply_bfp_long DD 010e01H
	DD	0c20eH
$unwind$z900_multiply_bfp_long_reg DD 010e01H
	DD	0a20eH
$unwind$z900_multiply_bfp_long_to_ext DD 042519H
	DD	01d0113H
	DD	0600b700cH
	DD	imagerel __GSHandlerCheck
	DD	0d0H
$unwind$z900_multiply_bfp_long_to_ext_reg DD 042519H
	DD	01b0113H
	DD	0600b700cH
	DD	imagerel __GSHandlerCheck
	DD	0c0H
$unwind$z900_multiply_bfp_short DD 010e01H
	DD	0a20eH
$unwind$z900_multiply_bfp_short_reg DD 010e01H
	DD	0820eH
$unwind$z900_multiply_bfp_short_to_long DD 010e01H
	DD	0c20eH
$unwind$z900_multiply_bfp_short_to_long_reg DD 010e01H
	DD	0a20eH
$unwind$z900_multiply_subtract_bfp_long DD 010e01H
	DD	0e20eH
$unwind$z900_multiply_subtract_bfp_long_reg DD 010e01H
	DD	0c20eH
$unwind$z900_multiply_subtract_bfp_short DD 010e01H
	DD	0c20eH
$unwind$z900_multiply_subtract_bfp_short_reg DD 010e01H
	DD	0a20eH
$unwind$z900_squareroot_bfp_ext_reg DD 042219H
	DD	0110113H
	DD	0600b700cH
	DD	imagerel __GSHandlerCheck
	DD	070H
$unwind$z900_squareroot_bfp_long DD 010e01H
	DD	0a20eH
$unwind$z900_squareroot_bfp_long_reg DD 010e01H
	DD	0820eH
$unwind$z900_squareroot_bfp_short DD 010e01H
	DD	0a20eH
$unwind$z900_squareroot_bfp_short_reg DD 010e01H
	DD	0820eH
$unwind$z900_subtract_bfp_ext_reg DD 042519H
	DD	01b0113H
	DD	0600b700cH
	DD	imagerel __GSHandlerCheck
	DD	0c0H
$unwind$z900_subtract_bfp_long DD 010e01H
	DD	0e20eH
$unwind$z900_subtract_bfp_long_reg DD 010e01H
	DD	0c20eH
$unwind$z900_subtract_bfp_short DD 010e01H
	DD	0c20eH
$unwind$z900_subtract_bfp_short_reg DD 010e01H
	DD	0a20eH
$unwind$z900_test_data_class_bfp_ext DD 031f19H
	DD	0700ce210H
	DD	0600bH
	DD	imagerel __GSHandlerCheck
	DD	060H
$unwind$z900_test_data_class_bfp_long DD 010e01H
	DD	0a20eH
$unwind$z900_test_data_class_bfp_short DD 010e01H
	DD	0820eH
$unwind$z900_convert_bfp_long_to_float_long_reg DD 011d19H
	DD	0c20eH
	DD	imagerel __GSHandlerCheck
	DD	050H
$unwind$z900_convert_bfp_short_to_float_long_reg DD 011d19H
	DD	0e20eH
	DD	imagerel __GSHandlerCheck
	DD	060H
$unwind$z900_convert_float_long_to_bfp_long_reg DD 011d19H
	DD	0e20eH
	DD	imagerel __GSHandlerCheck
	DD	068H
$unwind$z900_convert_float_long_to_bfp_short_reg DD 011d19H
	DD	0e20eH
	DD	imagerel __GSHandlerCheck
	DD	068H
$unwind$z900_BFP_RM_check DD 010d01H
	DD	0420dH
$unwind$z900_float128_cc_quiet DD 031001H
	DD	0700ce210H
	DD	0600bH
$unwind$z900_float128_compare DD 031001H
	DD	0700cc210H
	DD	0600bH
$unwind$z900_float128_signaling_compare DD 031001H
	DD	0700c8210H
	DD	0600bH
$unwind$z900_float64_cc_quiet DD 010e01H
	DD	0620eH
$unwind$z900_float64_compare DD 010e01H
	DD	0420eH
$unwind$z900_float64_signaling_compare DD 010e01H
	DD	0420eH
$unwind$z900_float32_cc_quiet DD 010c01H
	DD	0620cH
$unwind$z900_float32_compare DD 010c01H
	DD	0420cH
$unwind$z900_float32_signaling_compare DD 010c01H
	DD	0420cH
xdata	ENDS
; Function compile flags: /Odtp
; File C:\papa\MyGit\hyperion-zvector\ieee.c
_TEXT	SEGMENT
op1$ = 48
op2$ = 56
z900_float32_signaling_compare PROC

; 689  : {

  00000	89 54 24 10	 mov	 DWORD PTR [rsp+16], edx
  00004	89 4c 24 08	 mov	 DWORD PTR [rsp+8], ecx
  00008	48 83 ec 28	 sub	 rsp, 40			; 00000028H

; 690  :     if (FLOAT32_ISNAN( op1 ) ||

  0000c	8b 44 24 30	 mov	 eax, DWORD PTR op1$[rsp]
  00010	25 00 00 80 7f	 and	 eax, 2139095040		; 7f800000H
  00015	3d 00 00 80 7f	 cmp	 eax, 2139095040		; 7f800000H
  0001a	75 0d		 jne	 SHORT $LN4@z900_float
  0001c	8b 44 24 30	 mov	 eax, DWORD PTR op1$[rsp]
  00020	25 ff ff 7f 00	 and	 eax, 8388607		; 007fffffH
  00025	85 c0		 test	 eax, eax
  00027	75 1d		 jne	 SHORT $LN3@z900_float
$LN4@z900_float:
  00029	8b 44 24 38	 mov	 eax, DWORD PTR op2$[rsp]
  0002d	25 00 00 80 7f	 and	 eax, 2139095040		; 7f800000H
  00032	3d 00 00 80 7f	 cmp	 eax, 2139095040		; 7f800000H
  00037	75 4e		 jne	 SHORT $LN2@z900_float
  00039	8b 44 24 38	 mov	 eax, DWORD PTR op2$[rsp]
  0003d	25 ff ff 7f 00	 and	 eax, 8388607		; 007fffffH
  00042	85 c0		 test	 eax, eax
  00044	74 41		 je	 SHORT $LN2@z900_float
$LN3@z900_float:

; 691  :         FLOAT32_ISNAN( op2 ))
; 692  :         softfloat_raiseFlags( softfloat_flag_invalid );

  00046	b8 00 00 00 00	 mov	 eax, OFFSET FLAT:softfloat_exceptionFlags
  0004b	8b c0		 mov	 eax, eax
  0004d	8b 0d 00 00 00
	00		 mov	 ecx, DWORD PTR _tls_index
  00053	65 48 8b 14 25
	58 00 00 00	 mov	 rdx, QWORD PTR gs:88
  0005c	48 8b 0c ca	 mov	 rcx, QWORD PTR [rdx+rcx*8]
  00060	0f b6 04 01	 movzx	 eax, BYTE PTR [rcx+rax]
  00064	83 c8 10	 or	 eax, 16
  00067	8b 0d 00 00 00
	00		 mov	 ecx, DWORD PTR _tls_index
  0006d	65 48 8b 14 25
	58 00 00 00	 mov	 rdx, QWORD PTR gs:88
  00076	41 b8 00 00 00
	00		 mov	 r8d, OFFSET FLAT:softfloat_exceptionFlags
  0007c	45 8b c0	 mov	 r8d, r8d
  0007f	48 8b 0c ca	 mov	 rcx, QWORD PTR [rdx+rcx*8]
  00083	41 88 04 08	 mov	 BYTE PTR [r8+rcx], al
$LN2@z900_float:

; 693  :     return ARCH_DEP( float32_cc_quiet )( op1, op2 );

  00087	8b 54 24 38	 mov	 edx, DWORD PTR op2$[rsp]
  0008b	8b 4c 24 30	 mov	 ecx, DWORD PTR op1$[rsp]
  0008f	e8 00 00 00 00	 call	 z900_float32_cc_quiet

; 694  : }

  00094	48 83 c4 28	 add	 rsp, 40			; 00000028H
  00098	c3		 ret	 0
z900_float32_signaling_compare ENDP
_TEXT	ENDS
; Function compile flags: /Odtp
; File C:\papa\MyGit\hyperion-zvector\ieee.c
_TEXT	SEGMENT
op1$ = 48
op2$ = 56
z900_float32_compare PROC

; 681  : {

  00000	89 54 24 10	 mov	 DWORD PTR [rsp+16], edx
  00004	89 4c 24 08	 mov	 DWORD PTR [rsp+8], ecx
  00008	48 83 ec 28	 sub	 rsp, 40			; 00000028H

; 682  :     if (f32_isSignalingNaN( op1 ) ||

  0000c	8b 4c 24 30	 mov	 ecx, DWORD PTR op1$[rsp]
  00010	e8 00 00 00 00	 call	 f32_isSignalingNaN
  00015	0f b6 c0	 movzx	 eax, al
  00018	85 c0		 test	 eax, eax
  0001a	75 10		 jne	 SHORT $LN3@z900_float
  0001c	8b 4c 24 38	 mov	 ecx, DWORD PTR op2$[rsp]
  00020	e8 00 00 00 00	 call	 f32_isSignalingNaN
  00025	0f b6 c0	 movzx	 eax, al
  00028	85 c0		 test	 eax, eax
  0002a	74 41		 je	 SHORT $LN2@z900_float
$LN3@z900_float:

; 683  :         f32_isSignalingNaN( op2 ))
; 684  :         softfloat_raiseFlags( softfloat_flag_invalid );

  0002c	b8 00 00 00 00	 mov	 eax, OFFSET FLAT:softfloat_exceptionFlags
  00031	8b c0		 mov	 eax, eax
  00033	8b 0d 00 00 00
	00		 mov	 ecx, DWORD PTR _tls_index
  00039	65 48 8b 14 25
	58 00 00 00	 mov	 rdx, QWORD PTR gs:88
  00042	48 8b 0c ca	 mov	 rcx, QWORD PTR [rdx+rcx*8]
  00046	0f b6 04 01	 movzx	 eax, BYTE PTR [rcx+rax]
  0004a	83 c8 10	 or	 eax, 16
  0004d	8b 0d 00 00 00
	00		 mov	 ecx, DWORD PTR _tls_index
  00053	65 48 8b 14 25
	58 00 00 00	 mov	 rdx, QWORD PTR gs:88
  0005c	41 b8 00 00 00
	00		 mov	 r8d, OFFSET FLAT:softfloat_exceptionFlags
  00062	45 8b c0	 mov	 r8d, r8d
  00065	48 8b 0c ca	 mov	 rcx, QWORD PTR [rdx+rcx*8]
  00069	41 88 04 08	 mov	 BYTE PTR [r8+rcx], al
$LN2@z900_float:

; 685  :     return ARCH_DEP( float32_cc_quiet )( op1, op2 );

  0006d	8b 54 24 38	 mov	 edx, DWORD PTR op2$[rsp]
  00071	8b 4c 24 30	 mov	 ecx, DWORD PTR op1$[rsp]
  00075	e8 00 00 00 00	 call	 z900_float32_cc_quiet

; 686  : }

  0007a	48 83 c4 28	 add	 rsp, 40			; 00000028H
  0007e	c3		 ret	 0
z900_float32_compare ENDP
_TEXT	ENDS
; Function compile flags: /Odtp
; File C:\papa\MyGit\hyperion-zvector\ieee.c
_TEXT	SEGMENT
tv81 = 32
tv83 = 36
tv84 = 40
op1$ = 64
op2$ = 72
z900_float32_cc_quiet PROC

; 673  : {

  00000	89 54 24 10	 mov	 DWORD PTR [rsp+16], edx
  00004	89 4c 24 08	 mov	 DWORD PTR [rsp+8], ecx
  00008	48 83 ec 38	 sub	 rsp, 56			; 00000038H

; 674  :     return FLOAT32_ISNAN( op1      ) ||

  0000c	8b 44 24 40	 mov	 eax, DWORD PTR op1$[rsp]
  00010	25 00 00 80 7f	 and	 eax, 2139095040		; 7f800000H
  00015	3d 00 00 80 7f	 cmp	 eax, 2139095040		; 7f800000H
  0001a	75 0d		 jne	 SHORT $LN3@z900_float
  0001c	8b 44 24 40	 mov	 eax, DWORD PTR op1$[rsp]
  00020	25 ff ff 7f 00	 and	 eax, 8388607		; 007fffffH
  00025	85 c0		 test	 eax, eax
  00027	75 73		 jne	 SHORT $LN5@z900_float
$LN3@z900_float:
  00029	8b 44 24 48	 mov	 eax, DWORD PTR op2$[rsp]
  0002d	25 00 00 80 7f	 and	 eax, 2139095040		; 7f800000H
  00032	3d 00 00 80 7f	 cmp	 eax, 2139095040		; 7f800000H
  00037	75 0d		 jne	 SHORT $LN4@z900_float
  00039	8b 44 24 48	 mov	 eax, DWORD PTR op2$[rsp]
  0003d	25 ff ff 7f 00	 and	 eax, 8388607		; 007fffffH
  00042	85 c0		 test	 eax, eax
  00044	75 56		 jne	 SHORT $LN5@z900_float
$LN4@z900_float:
  00046	8b 54 24 48	 mov	 edx, DWORD PTR op2$[rsp]
  0004a	8b 4c 24 40	 mov	 ecx, DWORD PTR op1$[rsp]
  0004e	e8 00 00 00 00	 call	 f32_eq
  00053	0f b6 c0	 movzx	 eax, al
  00056	85 c0		 test	 eax, eax
  00058	74 0a		 je	 SHORT $LN8@z900_float
  0005a	c7 44 24 24 00
	00 00 00	 mov	 DWORD PTR tv83[rsp], 0
  00062	eb 2e		 jmp	 SHORT $LN9@z900_float
$LN8@z900_float:
  00064	8b 54 24 48	 mov	 edx, DWORD PTR op2$[rsp]
  00068	8b 4c 24 40	 mov	 ecx, DWORD PTR op1$[rsp]
  0006c	e8 00 00 00 00	 call	 f32_lt_quiet
  00071	0f b6 c0	 movzx	 eax, al
  00074	85 c0		 test	 eax, eax
  00076	74 0a		 je	 SHORT $LN6@z900_float
  00078	c7 44 24 20 01
	00 00 00	 mov	 DWORD PTR tv81[rsp], 1
  00080	eb 08		 jmp	 SHORT $LN7@z900_float
$LN6@z900_float:
  00082	c7 44 24 20 02
	00 00 00	 mov	 DWORD PTR tv81[rsp], 2
$LN7@z900_float:
  0008a	8b 44 24 20	 mov	 eax, DWORD PTR tv81[rsp]
  0008e	89 44 24 24	 mov	 DWORD PTR tv83[rsp], eax
$LN9@z900_float:
  00092	8b 44 24 24	 mov	 eax, DWORD PTR tv83[rsp]
  00096	89 44 24 28	 mov	 DWORD PTR tv84[rsp], eax
  0009a	eb 08		 jmp	 SHORT $LN10@z900_float
$LN5@z900_float:
  0009c	c7 44 24 28 03
	00 00 00	 mov	 DWORD PTR tv84[rsp], 3
$LN10@z900_float:
  000a4	0f b6 44 24 28	 movzx	 eax, BYTE PTR tv84[rsp]

; 675  :            FLOAT32_ISNAN(      op2 ) ? 3 :
; 676  :            f32_eq(        op1, op2 ) ? 0 :
; 677  :            f32_lt_quiet(  op1, op2 ) ? 1 : 2;
; 678  : }

  000a9	48 83 c4 38	 add	 rsp, 56			; 00000038H
  000ad	c3		 ret	 0
z900_float32_cc_quiet ENDP
_TEXT	ENDS
; Function compile flags: /Odtp
; File C:\papa\MyGit\hyperion-zvector\ieee.c
_TEXT	SEGMENT
op1$ = 48
op2$ = 56
z900_float64_signaling_compare PROC

; 665  : {

  00000	48 89 54 24 10	 mov	 QWORD PTR [rsp+16], rdx
  00005	48 89 4c 24 08	 mov	 QWORD PTR [rsp+8], rcx
  0000a	48 83 ec 28	 sub	 rsp, 40			; 00000028H

; 666  :     if (FLOAT64_ISNAN( op1 ) ||

  0000e	48 b8 00 00 00
	00 00 00 f0 7f	 mov	 rax, 9218868437227405312 ; 7ff0000000000000H
  00018	48 8b 4c 24 30	 mov	 rcx, QWORD PTR op1$[rsp]
  0001d	48 23 c8	 and	 rcx, rax
  00020	48 8b c1	 mov	 rax, rcx
  00023	48 b9 00 00 00
	00 00 00 f0 7f	 mov	 rcx, 9218868437227405312 ; 7ff0000000000000H
  0002d	48 3b c1	 cmp	 rax, rcx
  00030	75 1a		 jne	 SHORT $LN4@z900_float
  00032	48 b8 ff ff ff
	ff ff ff 0f 00	 mov	 rax, 4503599627370495	; 000fffffffffffffH
  0003c	48 8b 4c 24 30	 mov	 rcx, QWORD PTR op1$[rsp]
  00041	48 23 c8	 and	 rcx, rax
  00044	48 8b c1	 mov	 rax, rcx
  00047	48 85 c0	 test	 rax, rax
  0004a	75 3e		 jne	 SHORT $LN3@z900_float
$LN4@z900_float:
  0004c	48 b8 00 00 00
	00 00 00 f0 7f	 mov	 rax, 9218868437227405312 ; 7ff0000000000000H
  00056	48 8b 4c 24 38	 mov	 rcx, QWORD PTR op2$[rsp]
  0005b	48 23 c8	 and	 rcx, rax
  0005e	48 8b c1	 mov	 rax, rcx
  00061	48 b9 00 00 00
	00 00 00 f0 7f	 mov	 rcx, 9218868437227405312 ; 7ff0000000000000H
  0006b	48 3b c1	 cmp	 rax, rcx
  0006e	75 5b		 jne	 SHORT $LN2@z900_float
  00070	48 b8 ff ff ff
	ff ff ff 0f 00	 mov	 rax, 4503599627370495	; 000fffffffffffffH
  0007a	48 8b 4c 24 38	 mov	 rcx, QWORD PTR op2$[rsp]
  0007f	48 23 c8	 and	 rcx, rax
  00082	48 8b c1	 mov	 rax, rcx
  00085	48 85 c0	 test	 rax, rax
  00088	74 41		 je	 SHORT $LN2@z900_float
$LN3@z900_float:

; 667  :         FLOAT64_ISNAN( op2 ))
; 668  :         softfloat_raiseFlags( softfloat_flag_invalid );

  0008a	b8 00 00 00 00	 mov	 eax, OFFSET FLAT:softfloat_exceptionFlags
  0008f	8b c0		 mov	 eax, eax
  00091	8b 0d 00 00 00
	00		 mov	 ecx, DWORD PTR _tls_index
  00097	65 48 8b 14 25
	58 00 00 00	 mov	 rdx, QWORD PTR gs:88
  000a0	48 8b 0c ca	 mov	 rcx, QWORD PTR [rdx+rcx*8]
  000a4	0f b6 04 01	 movzx	 eax, BYTE PTR [rcx+rax]
  000a8	83 c8 10	 or	 eax, 16
  000ab	8b 0d 00 00 00
	00		 mov	 ecx, DWORD PTR _tls_index
  000b1	65 48 8b 14 25
	58 00 00 00	 mov	 rdx, QWORD PTR gs:88
  000ba	41 b8 00 00 00
	00		 mov	 r8d, OFFSET FLAT:softfloat_exceptionFlags
  000c0	45 8b c0	 mov	 r8d, r8d
  000c3	48 8b 0c ca	 mov	 rcx, QWORD PTR [rdx+rcx*8]
  000c7	41 88 04 08	 mov	 BYTE PTR [r8+rcx], al
$LN2@z900_float:

; 669  :     return ARCH_DEP( float64_cc_quiet )( op1, op2 );

  000cb	48 8b 54 24 38	 mov	 rdx, QWORD PTR op2$[rsp]
  000d0	48 8b 4c 24 30	 mov	 rcx, QWORD PTR op1$[rsp]
  000d5	e8 00 00 00 00	 call	 z900_float64_cc_quiet

; 670  : }

  000da	48 83 c4 28	 add	 rsp, 40			; 00000028H
  000de	c3		 ret	 0
z900_float64_signaling_compare ENDP
_TEXT	ENDS
; Function compile flags: /Odtp
; File C:\papa\MyGit\hyperion-zvector\ieee.c
_TEXT	SEGMENT
op1$ = 48
op2$ = 56
z900_float64_compare PROC

; 657  : {

  00000	48 89 54 24 10	 mov	 QWORD PTR [rsp+16], rdx
  00005	48 89 4c 24 08	 mov	 QWORD PTR [rsp+8], rcx
  0000a	48 83 ec 28	 sub	 rsp, 40			; 00000028H

; 658  :     if (f64_isSignalingNaN( op1 ) ||

  0000e	48 8b 4c 24 30	 mov	 rcx, QWORD PTR op1$[rsp]
  00013	e8 00 00 00 00	 call	 f64_isSignalingNaN
  00018	0f b6 c0	 movzx	 eax, al
  0001b	85 c0		 test	 eax, eax
  0001d	75 11		 jne	 SHORT $LN3@z900_float
  0001f	48 8b 4c 24 38	 mov	 rcx, QWORD PTR op2$[rsp]
  00024	e8 00 00 00 00	 call	 f64_isSignalingNaN
  00029	0f b6 c0	 movzx	 eax, al
  0002c	85 c0		 test	 eax, eax
  0002e	74 41		 je	 SHORT $LN2@z900_float
$LN3@z900_float:

; 659  :         f64_isSignalingNaN( op2 ))
; 660  :         softfloat_raiseFlags( softfloat_flag_invalid );

  00030	b8 00 00 00 00	 mov	 eax, OFFSET FLAT:softfloat_exceptionFlags
  00035	8b c0		 mov	 eax, eax
  00037	8b 0d 00 00 00
	00		 mov	 ecx, DWORD PTR _tls_index
  0003d	65 48 8b 14 25
	58 00 00 00	 mov	 rdx, QWORD PTR gs:88
  00046	48 8b 0c ca	 mov	 rcx, QWORD PTR [rdx+rcx*8]
  0004a	0f b6 04 01	 movzx	 eax, BYTE PTR [rcx+rax]
  0004e	83 c8 10	 or	 eax, 16
  00051	8b 0d 00 00 00
	00		 mov	 ecx, DWORD PTR _tls_index
  00057	65 48 8b 14 25
	58 00 00 00	 mov	 rdx, QWORD PTR gs:88
  00060	41 b8 00 00 00
	00		 mov	 r8d, OFFSET FLAT:softfloat_exceptionFlags
  00066	45 8b c0	 mov	 r8d, r8d
  00069	48 8b 0c ca	 mov	 rcx, QWORD PTR [rdx+rcx*8]
  0006d	41 88 04 08	 mov	 BYTE PTR [r8+rcx], al
$LN2@z900_float:

; 661  :     return ARCH_DEP( float64_cc_quiet )( op1, op2 );

  00071	48 8b 54 24 38	 mov	 rdx, QWORD PTR op2$[rsp]
  00076	48 8b 4c 24 30	 mov	 rcx, QWORD PTR op1$[rsp]
  0007b	e8 00 00 00 00	 call	 z900_float64_cc_quiet

; 662  : }

  00080	48 83 c4 28	 add	 rsp, 40			; 00000028H
  00084	c3		 ret	 0
z900_float64_compare ENDP
_TEXT	ENDS
; Function compile flags: /Odtp
; File C:\papa\MyGit\hyperion-zvector\ieee.c
_TEXT	SEGMENT
tv81 = 32
tv83 = 36
tv84 = 40
op1$ = 64
op2$ = 72
z900_float64_cc_quiet PROC

; 649  : {

  00000	48 89 54 24 10	 mov	 QWORD PTR [rsp+16], rdx
  00005	48 89 4c 24 08	 mov	 QWORD PTR [rsp+8], rcx
  0000a	48 83 ec 38	 sub	 rsp, 56			; 00000038H

; 650  :     return FLOAT64_ISNAN( op1      ) ||

  0000e	48 b8 00 00 00
	00 00 00 f0 7f	 mov	 rax, 9218868437227405312 ; 7ff0000000000000H
  00018	48 8b 4c 24 40	 mov	 rcx, QWORD PTR op1$[rsp]
  0001d	48 23 c8	 and	 rcx, rax
  00020	48 8b c1	 mov	 rax, rcx
  00023	48 b9 00 00 00
	00 00 00 f0 7f	 mov	 rcx, 9218868437227405312 ; 7ff0000000000000H
  0002d	48 3b c1	 cmp	 rax, rcx
  00030	75 1e		 jne	 SHORT $LN3@z900_float
  00032	48 b8 ff ff ff
	ff ff ff 0f 00	 mov	 rax, 4503599627370495	; 000fffffffffffffH
  0003c	48 8b 4c 24 40	 mov	 rcx, QWORD PTR op1$[rsp]
  00041	48 23 c8	 and	 rcx, rax
  00044	48 8b c1	 mov	 rax, rcx
  00047	48 85 c0	 test	 rax, rax
  0004a	0f 85 98 00 00
	00		 jne	 $LN5@z900_float
$LN3@z900_float:
  00050	48 b8 00 00 00
	00 00 00 f0 7f	 mov	 rax, 9218868437227405312 ; 7ff0000000000000H
  0005a	48 8b 4c 24 48	 mov	 rcx, QWORD PTR op2$[rsp]
  0005f	48 23 c8	 and	 rcx, rax
  00062	48 8b c1	 mov	 rax, rcx
  00065	48 b9 00 00 00
	00 00 00 f0 7f	 mov	 rcx, 9218868437227405312 ; 7ff0000000000000H
  0006f	48 3b c1	 cmp	 rax, rcx
  00072	75 1a		 jne	 SHORT $LN4@z900_float
  00074	48 b8 ff ff ff
	ff ff ff 0f 00	 mov	 rax, 4503599627370495	; 000fffffffffffffH
  0007e	48 8b 4c 24 48	 mov	 rcx, QWORD PTR op2$[rsp]
  00083	48 23 c8	 and	 rcx, rax
  00086	48 8b c1	 mov	 rax, rcx
  00089	48 85 c0	 test	 rax, rax
  0008c	75 5a		 jne	 SHORT $LN5@z900_float
$LN4@z900_float:
  0008e	48 8b 54 24 48	 mov	 rdx, QWORD PTR op2$[rsp]
  00093	48 8b 4c 24 40	 mov	 rcx, QWORD PTR op1$[rsp]
  00098	e8 00 00 00 00	 call	 f64_eq
  0009d	0f b6 c0	 movzx	 eax, al
  000a0	85 c0		 test	 eax, eax
  000a2	74 0a		 je	 SHORT $LN8@z900_float
  000a4	c7 44 24 24 00
	00 00 00	 mov	 DWORD PTR tv83[rsp], 0
  000ac	eb 30		 jmp	 SHORT $LN9@z900_float
$LN8@z900_float:
  000ae	48 8b 54 24 48	 mov	 rdx, QWORD PTR op2$[rsp]
  000b3	48 8b 4c 24 40	 mov	 rcx, QWORD PTR op1$[rsp]
  000b8	e8 00 00 00 00	 call	 f64_lt_quiet
  000bd	0f b6 c0	 movzx	 eax, al
  000c0	85 c0		 test	 eax, eax
  000c2	74 0a		 je	 SHORT $LN6@z900_float
  000c4	c7 44 24 20 01
	00 00 00	 mov	 DWORD PTR tv81[rsp], 1
  000cc	eb 08		 jmp	 SHORT $LN7@z900_float
$LN6@z900_float:
  000ce	c7 44 24 20 02
	00 00 00	 mov	 DWORD PTR tv81[rsp], 2
$LN7@z900_float:
  000d6	8b 44 24 20	 mov	 eax, DWORD PTR tv81[rsp]
  000da	89 44 24 24	 mov	 DWORD PTR tv83[rsp], eax
$LN9@z900_float:
  000de	8b 44 24 24	 mov	 eax, DWORD PTR tv83[rsp]
  000e2	89 44 24 28	 mov	 DWORD PTR tv84[rsp], eax
  000e6	eb 08		 jmp	 SHORT $LN10@z900_float
$LN5@z900_float:
  000e8	c7 44 24 28 03
	00 00 00	 mov	 DWORD PTR tv84[rsp], 3
$LN10@z900_float:
  000f0	0f b6 44 24 28	 movzx	 eax, BYTE PTR tv84[rsp]

; 651  :            FLOAT64_ISNAN(      op2 ) ? 3 :
; 652  :            f64_eq(        op1, op2 ) ? 0 :
; 653  :            f64_lt_quiet(  op1, op2 ) ? 1 : 2;
; 654  : }

  000f5	48 83 c4 38	 add	 rsp, 56			; 00000038H
  000f9	c3		 ret	 0
z900_float64_cc_quiet ENDP
_TEXT	ENDS
; Function compile flags: /Odtp
; File C:\papa\MyGit\hyperion-zvector\ieee.c
_TEXT	SEGMENT
$T1 = 32
$T2 = 48
op1$ = 96
op2$ = 104
z900_float128_signaling_compare PROC

; 641  : {

  00000	48 89 54 24 10	 mov	 QWORD PTR [rsp+16], rdx
  00005	48 89 4c 24 08	 mov	 QWORD PTR [rsp+8], rcx
  0000a	56		 push	 rsi
  0000b	57		 push	 rdi
  0000c	48 83 ec 48	 sub	 rsp, 72			; 00000048H

; 642  :     if (FLOAT128_ISNAN( op1 ) ||

  00010	b8 08 00 00 00	 mov	 eax, 8
  00015	48 6b c0 01	 imul	 rax, rax, 1
  00019	48 8b 4c 24 60	 mov	 rcx, QWORD PTR op1$[rsp]
  0001e	48 ba 00 00 00
	00 00 00 ff 7f	 mov	 rdx, 9223090561878065152 ; 7fff000000000000H
  00028	48 8b 04 01	 mov	 rax, QWORD PTR [rcx+rax]
  0002c	48 23 c2	 and	 rax, rdx
  0002f	48 b9 00 00 00
	00 00 00 ff 7f	 mov	 rcx, 9223090561878065152 ; 7fff000000000000H
  00039	48 3b c1	 cmp	 rax, rcx
  0003c	75 39		 jne	 SHORT $LN4@z900_float
  0003e	b8 08 00 00 00	 mov	 eax, 8
  00043	48 6b c0 01	 imul	 rax, rax, 1
  00047	48 8b 4c 24 60	 mov	 rcx, QWORD PTR op1$[rsp]
  0004c	48 ba ff ff ff
	ff ff ff 00 00	 mov	 rdx, 281474976710655	; 0000ffffffffffffH
  00056	48 8b 04 01	 mov	 rax, QWORD PTR [rcx+rax]
  0005a	48 23 c2	 and	 rax, rdx
  0005d	48 85 c0	 test	 rax, rax
  00060	75 7c		 jne	 SHORT $LN3@z900_float
  00062	b8 08 00 00 00	 mov	 eax, 8
  00067	48 6b c0 00	 imul	 rax, rax, 0
  0006b	48 8b 4c 24 60	 mov	 rcx, QWORD PTR op1$[rsp]
  00070	48 83 3c 01 00	 cmp	 QWORD PTR [rcx+rax], 0
  00075	75 67		 jne	 SHORT $LN3@z900_float
$LN4@z900_float:
  00077	b8 08 00 00 00	 mov	 eax, 8
  0007c	48 6b c0 01	 imul	 rax, rax, 1
  00080	48 8b 4c 24 68	 mov	 rcx, QWORD PTR op2$[rsp]
  00085	48 ba 00 00 00
	00 00 00 ff 7f	 mov	 rdx, 9223090561878065152 ; 7fff000000000000H
  0008f	48 8b 04 01	 mov	 rax, QWORD PTR [rcx+rax]
  00093	48 23 c2	 and	 rax, rdx
  00096	48 b9 00 00 00
	00 00 00 ff 7f	 mov	 rcx, 9223090561878065152 ; 7fff000000000000H
  000a0	48 3b c1	 cmp	 rax, rcx
  000a3	75 7a		 jne	 SHORT $LN2@z900_float
  000a5	b8 08 00 00 00	 mov	 eax, 8
  000aa	48 6b c0 01	 imul	 rax, rax, 1
  000ae	48 8b 4c 24 68	 mov	 rcx, QWORD PTR op2$[rsp]
  000b3	48 ba ff ff ff
	ff ff ff 00 00	 mov	 rdx, 281474976710655	; 0000ffffffffffffH
  000bd	48 8b 04 01	 mov	 rax, QWORD PTR [rcx+rax]
  000c1	48 23 c2	 and	 rax, rdx
  000c4	48 85 c0	 test	 rax, rax
  000c7	75 15		 jne	 SHORT $LN5@z900_float
  000c9	b8 08 00 00 00	 mov	 eax, 8
  000ce	48 6b c0 00	 imul	 rax, rax, 0
  000d2	48 8b 4c 24 68	 mov	 rcx, QWORD PTR op2$[rsp]
  000d7	48 83 3c 01 00	 cmp	 QWORD PTR [rcx+rax], 0
  000dc	74 41		 je	 SHORT $LN2@z900_float
$LN5@z900_float:
$LN3@z900_float:

; 643  :         FLOAT128_ISNAN( op2 ))
; 644  :         softfloat_raiseFlags( softfloat_flag_invalid );

  000de	b8 00 00 00 00	 mov	 eax, OFFSET FLAT:softfloat_exceptionFlags
  000e3	8b c0		 mov	 eax, eax
  000e5	8b 0d 00 00 00
	00		 mov	 ecx, DWORD PTR _tls_index
  000eb	65 48 8b 14 25
	58 00 00 00	 mov	 rdx, QWORD PTR gs:88
  000f4	48 8b 0c ca	 mov	 rcx, QWORD PTR [rdx+rcx*8]
  000f8	0f b6 04 01	 movzx	 eax, BYTE PTR [rcx+rax]
  000fc	83 c8 10	 or	 eax, 16
  000ff	8b 0d 00 00 00
	00		 mov	 ecx, DWORD PTR _tls_index
  00105	65 48 8b 14 25
	58 00 00 00	 mov	 rdx, QWORD PTR gs:88
  0010e	41 b8 00 00 00
	00		 mov	 r8d, OFFSET FLAT:softfloat_exceptionFlags
  00114	45 8b c0	 mov	 r8d, r8d
  00117	48 8b 0c ca	 mov	 rcx, QWORD PTR [rdx+rcx*8]
  0011b	41 88 04 08	 mov	 BYTE PTR [r8+rcx], al
$LN2@z900_float:

; 645  :     return ARCH_DEP( float128_cc_quiet )( op1, op2 );

  0011f	48 8d 44 24 20	 lea	 rax, QWORD PTR $T1[rsp]
  00124	48 8b f8	 mov	 rdi, rax
  00127	48 8b 74 24 68	 mov	 rsi, QWORD PTR op2$[rsp]
  0012c	b9 10 00 00 00	 mov	 ecx, 16
  00131	f3 a4		 rep movsb
  00133	48 8d 44 24 30	 lea	 rax, QWORD PTR $T2[rsp]
  00138	48 8b f8	 mov	 rdi, rax
  0013b	48 8b 74 24 60	 mov	 rsi, QWORD PTR op1$[rsp]
  00140	b9 10 00 00 00	 mov	 ecx, 16
  00145	f3 a4		 rep movsb
  00147	48 8d 54 24 20	 lea	 rdx, QWORD PTR $T1[rsp]
  0014c	48 8d 4c 24 30	 lea	 rcx, QWORD PTR $T2[rsp]
  00151	e8 00 00 00 00	 call	 z900_float128_cc_quiet

; 646  : }

  00156	48 83 c4 48	 add	 rsp, 72			; 00000048H
  0015a	5f		 pop	 rdi
  0015b	5e		 pop	 rsi
  0015c	c3		 ret	 0
z900_float128_signaling_compare ENDP
_TEXT	ENDS
; Function compile flags: /Odtp
; File C:\papa\MyGit\hyperion-zvector\ieee.c
_TEXT	SEGMENT
$T1 = 32
$T2 = 48
$T3 = 64
$T4 = 80
op1$ = 128
op2$ = 136
z900_float128_compare PROC

; 633  : {

  00000	48 89 54 24 10	 mov	 QWORD PTR [rsp+16], rdx
  00005	48 89 4c 24 08	 mov	 QWORD PTR [rsp+8], rcx
  0000a	56		 push	 rsi
  0000b	57		 push	 rdi
  0000c	48 83 ec 68	 sub	 rsp, 104		; 00000068H

; 634  :     if (f128_isSignalingNaN( op1 ) ||

  00010	48 8d 44 24 20	 lea	 rax, QWORD PTR $T1[rsp]
  00015	48 8b f8	 mov	 rdi, rax
  00018	48 8b b4 24 80
	00 00 00	 mov	 rsi, QWORD PTR op1$[rsp]
  00020	b9 10 00 00 00	 mov	 ecx, 16
  00025	f3 a4		 rep movsb
  00027	48 8d 4c 24 20	 lea	 rcx, QWORD PTR $T1[rsp]
  0002c	e8 00 00 00 00	 call	 f128_isSignalingNaN
  00031	0f b6 c0	 movzx	 eax, al
  00034	85 c0		 test	 eax, eax
  00036	75 28		 jne	 SHORT $LN3@z900_float
  00038	48 8d 44 24 30	 lea	 rax, QWORD PTR $T2[rsp]
  0003d	48 8b f8	 mov	 rdi, rax
  00040	48 8b b4 24 88
	00 00 00	 mov	 rsi, QWORD PTR op2$[rsp]
  00048	b9 10 00 00 00	 mov	 ecx, 16
  0004d	f3 a4		 rep movsb
  0004f	48 8d 4c 24 30	 lea	 rcx, QWORD PTR $T2[rsp]
  00054	e8 00 00 00 00	 call	 f128_isSignalingNaN
  00059	0f b6 c0	 movzx	 eax, al
  0005c	85 c0		 test	 eax, eax
  0005e	74 3e		 je	 SHORT $LN2@z900_float
$LN3@z900_float:

; 635  :         f128_isSignalingNaN( op2 ))
; 636  :         softfloat_raiseFlags( softfloat_flag_invalid );

  00060	b8 00 00 00 00	 mov	 eax, OFFSET FLAT:softfloat_exceptionFlags
  00065	8b c0		 mov	 eax, eax
  00067	8b 0d 00 00 00
	00		 mov	 ecx, DWORD PTR _tls_index
  0006d	65 48 8b 14 25
	58 00 00 00	 mov	 rdx, QWORD PTR gs:88
  00076	48 8b 0c ca	 mov	 rcx, QWORD PTR [rdx+rcx*8]
  0007a	0f b6 04 01	 movzx	 eax, BYTE PTR [rcx+rax]
  0007e	83 c8 10	 or	 eax, 16
  00081	8b 0d 00 00 00
	00		 mov	 ecx, DWORD PTR _tls_index
  00087	65 48 8b 14 25
	58 00 00 00	 mov	 rdx, QWORD PTR gs:88
  00090	bf 00 00 00 00	 mov	 edi, OFFSET FLAT:softfloat_exceptionFlags
  00095	8b ff		 mov	 edi, edi
  00097	48 8b 0c ca	 mov	 rcx, QWORD PTR [rdx+rcx*8]
  0009b	88 04 0f	 mov	 BYTE PTR [rdi+rcx], al
$LN2@z900_float:

; 637  :     return ARCH_DEP( float128_cc_quiet )( op1, op2 );

  0009e	48 8d 44 24 40	 lea	 rax, QWORD PTR $T3[rsp]
  000a3	48 8b f8	 mov	 rdi, rax
  000a6	48 8b b4 24 88
	00 00 00	 mov	 rsi, QWORD PTR op2$[rsp]
  000ae	b9 10 00 00 00	 mov	 ecx, 16
  000b3	f3 a4		 rep movsb
  000b5	48 8d 44 24 50	 lea	 rax, QWORD PTR $T4[rsp]
  000ba	48 8b f8	 mov	 rdi, rax
  000bd	48 8b b4 24 80
	00 00 00	 mov	 rsi, QWORD PTR op1$[rsp]
  000c5	b9 10 00 00 00	 mov	 ecx, 16
  000ca	f3 a4		 rep movsb
  000cc	48 8d 54 24 40	 lea	 rdx, QWORD PTR $T3[rsp]
  000d1	48 8d 4c 24 50	 lea	 rcx, QWORD PTR $T4[rsp]
  000d6	e8 00 00 00 00	 call	 z900_float128_cc_quiet

; 638  : }

  000db	48 83 c4 68	 add	 rsp, 104		; 00000068H
  000df	5f		 pop	 rdi
  000e0	5e		 pop	 rsi
  000e1	c3		 ret	 0
z900_float128_compare ENDP
_TEXT	ENDS
; Function compile flags: /Odtp
; File C:\papa\MyGit\hyperion-zvector\ieee.c
_TEXT	SEGMENT
tv133 = 32
tv135 = 36
tv136 = 40
$T1 = 48
$T2 = 64
$T3 = 80
$T4 = 96
op1$ = 144
op2$ = 152
z900_float128_cc_quiet PROC

; 625  : {

  00000	48 89 54 24 10	 mov	 QWORD PTR [rsp+16], rdx
  00005	48 89 4c 24 08	 mov	 QWORD PTR [rsp+8], rcx
  0000a	56		 push	 rsi
  0000b	57		 push	 rdi
  0000c	48 83 ec 78	 sub	 rsp, 120		; 00000078H

; 626  :     return FLOAT128_ISNAN( op1      ) ||

  00010	b8 08 00 00 00	 mov	 eax, 8
  00015	48 6b c0 01	 imul	 rax, rax, 1
  00019	48 8b 8c 24 90
	00 00 00	 mov	 rcx, QWORD PTR op1$[rsp]
  00021	48 ba 00 00 00
	00 00 00 ff 7f	 mov	 rdx, 9223090561878065152 ; 7fff000000000000H
  0002b	48 8b 04 01	 mov	 rax, QWORD PTR [rcx+rax]
  0002f	48 23 c2	 and	 rax, rdx
  00032	48 b9 00 00 00
	00 00 00 ff 7f	 mov	 rcx, 9223090561878065152 ; 7fff000000000000H
  0003c	48 3b c1	 cmp	 rax, rcx
  0003f	75 47		 jne	 SHORT $LN4@z900_float
  00041	b8 08 00 00 00	 mov	 eax, 8
  00046	48 6b c0 01	 imul	 rax, rax, 1
  0004a	48 8b 8c 24 90
	00 00 00	 mov	 rcx, QWORD PTR op1$[rsp]
  00052	48 ba ff ff ff
	ff ff ff 00 00	 mov	 rdx, 281474976710655	; 0000ffffffffffffH
  0005c	48 8b 04 01	 mov	 rax, QWORD PTR [rcx+rax]
  00060	48 23 c2	 and	 rax, rdx
  00063	48 85 c0	 test	 rax, rax
  00066	0f 85 4a 01 00
	00		 jne	 $LN3@z900_float
  0006c	b8 08 00 00 00	 mov	 eax, 8
  00071	48 6b c0 00	 imul	 rax, rax, 0
  00075	48 8b 8c 24 90
	00 00 00	 mov	 rcx, QWORD PTR op1$[rsp]
  0007d	48 83 3c 01 00	 cmp	 QWORD PTR [rcx+rax], 0
  00082	0f 85 2e 01 00
	00		 jne	 $LN3@z900_float
$LN4@z900_float:
  00088	b8 08 00 00 00	 mov	 eax, 8
  0008d	48 6b c0 01	 imul	 rax, rax, 1
  00091	48 8b 8c 24 98
	00 00 00	 mov	 rcx, QWORD PTR op2$[rsp]
  00099	48 ba 00 00 00
	00 00 00 ff 7f	 mov	 rdx, 9223090561878065152 ; 7fff000000000000H
  000a3	48 8b 04 01	 mov	 rax, QWORD PTR [rcx+rax]
  000a7	48 23 c2	 and	 rax, rdx
  000aa	48 b9 00 00 00
	00 00 00 ff 7f	 mov	 rcx, 9223090561878065152 ; 7fff000000000000H
  000b4	48 3b c1	 cmp	 rax, rcx
  000b7	75 47		 jne	 SHORT $LN6@z900_float
  000b9	b8 08 00 00 00	 mov	 eax, 8
  000be	48 6b c0 01	 imul	 rax, rax, 1
  000c2	48 8b 8c 24 98
	00 00 00	 mov	 rcx, QWORD PTR op2$[rsp]
  000ca	48 ba ff ff ff
	ff ff ff 00 00	 mov	 rdx, 281474976710655	; 0000ffffffffffffH
  000d4	48 8b 04 01	 mov	 rax, QWORD PTR [rcx+rax]
  000d8	48 23 c2	 and	 rax, rdx
  000db	48 85 c0	 test	 rax, rax
  000de	0f 85 d2 00 00
	00		 jne	 $LN5@z900_float
  000e4	b8 08 00 00 00	 mov	 eax, 8
  000e9	48 6b c0 00	 imul	 rax, rax, 0
  000ed	48 8b 8c 24 98
	00 00 00	 mov	 rcx, QWORD PTR op2$[rsp]
  000f5	48 83 3c 01 00	 cmp	 QWORD PTR [rcx+rax], 0
  000fa	0f 85 b6 00 00
	00		 jne	 $LN3@z900_float
$LN6@z900_float:
  00100	48 8d 44 24 30	 lea	 rax, QWORD PTR $T1[rsp]
  00105	48 8b f8	 mov	 rdi, rax
  00108	48 8b b4 24 98
	00 00 00	 mov	 rsi, QWORD PTR op2$[rsp]
  00110	b9 10 00 00 00	 mov	 ecx, 16
  00115	f3 a4		 rep movsb
  00117	48 8d 44 24 40	 lea	 rax, QWORD PTR $T2[rsp]
  0011c	48 8b f8	 mov	 rdi, rax
  0011f	48 8b b4 24 90
	00 00 00	 mov	 rsi, QWORD PTR op1$[rsp]
  00127	b9 10 00 00 00	 mov	 ecx, 16
  0012c	f3 a4		 rep movsb
  0012e	48 8d 54 24 30	 lea	 rdx, QWORD PTR $T1[rsp]
  00133	48 8d 4c 24 40	 lea	 rcx, QWORD PTR $T2[rsp]
  00138	e8 00 00 00 00	 call	 f128_eq
  0013d	0f b6 c0	 movzx	 eax, al
  00140	85 c0		 test	 eax, eax
  00142	74 0a		 je	 SHORT $LN9@z900_float
  00144	c7 44 24 24 00
	00 00 00	 mov	 DWORD PTR tv135[rsp], 0
  0014c	eb 5e		 jmp	 SHORT $LN10@z900_float
$LN9@z900_float:
  0014e	48 8d 44 24 50	 lea	 rax, QWORD PTR $T3[rsp]
  00153	48 8b f8	 mov	 rdi, rax
  00156	48 8b b4 24 98
	00 00 00	 mov	 rsi, QWORD PTR op2$[rsp]
  0015e	b9 10 00 00 00	 mov	 ecx, 16
  00163	f3 a4		 rep movsb
  00165	48 8d 44 24 60	 lea	 rax, QWORD PTR $T4[rsp]
  0016a	48 8b f8	 mov	 rdi, rax
  0016d	48 8b b4 24 90
	00 00 00	 mov	 rsi, QWORD PTR op1$[rsp]
  00175	b9 10 00 00 00	 mov	 ecx, 16
  0017a	f3 a4		 rep movsb
  0017c	48 8d 54 24 50	 lea	 rdx, QWORD PTR $T3[rsp]
  00181	48 8d 4c 24 60	 lea	 rcx, QWORD PTR $T4[rsp]
  00186	e8 00 00 00 00	 call	 f128_lt_quiet
  0018b	0f b6 c0	 movzx	 eax, al
  0018e	85 c0		 test	 eax, eax
  00190	74 0a		 je	 SHORT $LN7@z900_float
  00192	c7 44 24 20 01
	00 00 00	 mov	 DWORD PTR tv133[rsp], 1
  0019a	eb 08		 jmp	 SHORT $LN8@z900_float
$LN7@z900_float:
  0019c	c7 44 24 20 02
	00 00 00	 mov	 DWORD PTR tv133[rsp], 2
$LN8@z900_float:
  001a4	8b 44 24 20	 mov	 eax, DWORD PTR tv133[rsp]
  001a8	89 44 24 24	 mov	 DWORD PTR tv135[rsp], eax
$LN10@z900_float:
  001ac	8b 44 24 24	 mov	 eax, DWORD PTR tv135[rsp]
  001b0	89 44 24 28	 mov	 DWORD PTR tv136[rsp], eax
  001b4	eb 08		 jmp	 SHORT $LN11@z900_float
$LN3@z900_float:
$LN5@z900_float:
  001b6	c7 44 24 28 03
	00 00 00	 mov	 DWORD PTR tv136[rsp], 3
$LN11@z900_float:
  001be	0f b6 44 24 28	 movzx	 eax, BYTE PTR tv136[rsp]

; 627  :            FLOAT128_ISNAN(      op2 ) ? 3 :
; 628  :            f128_eq(        op1, op2 ) ? 0 :
; 629  :            f128_lt_quiet(  op1, op2 ) ? 1 : 2;
; 630  : }

  001c3	48 83 c4 78	 add	 rsp, 120		; 00000078H
  001c7	5f		 pop	 rdi
  001c8	5e		 pop	 rsi
  001c9	c3		 ret	 0
z900_float128_cc_quiet ENDP
_TEXT	ENDS
; Function compile flags: /Odtp
; File C:\papa\MyGit\hyperion-zvector\ieee.c
_TEXT	SEGMENT
op$ = 8
fpr$ = 16
z900_put_float32 PROC

; 584  : {

  00000	48 89 54 24 10	 mov	 QWORD PTR [rsp+16], rdx
  00005	48 89 4c 24 08	 mov	 QWORD PTR [rsp+8], rcx

; 585  :     *fpr = op->v;

  0000a	48 8b 44 24 10	 mov	 rax, QWORD PTR fpr$[rsp]
  0000f	48 8b 4c 24 08	 mov	 rcx, QWORD PTR op$[rsp]
  00014	8b 09		 mov	 ecx, DWORD PTR [rcx]
  00016	89 08		 mov	 DWORD PTR [rax], ecx

; 586  : }

  00018	c3		 ret	 0
z900_put_float32 ENDP
_TEXT	ENDS
; Function compile flags: /Odtp
; File C:\papa\MyGit\hyperion-zvector\ieee.c
_TEXT	SEGMENT
op$ = 8
fpr$ = 16
z900_get_float32 PROC

; 579  : {

  00000	48 89 54 24 10	 mov	 QWORD PTR [rsp+16], rdx
  00005	48 89 4c 24 08	 mov	 QWORD PTR [rsp+8], rcx

; 580  :     op->v = *fpr;

  0000a	48 8b 44 24 08	 mov	 rax, QWORD PTR op$[rsp]
  0000f	48 8b 4c 24 10	 mov	 rcx, QWORD PTR fpr$[rsp]
  00014	8b 09		 mov	 ecx, DWORD PTR [rcx]
  00016	89 08		 mov	 DWORD PTR [rax], ecx

; 581  : }

  00018	c3		 ret	 0
z900_get_float32 ENDP
_TEXT	ENDS
; Function compile flags: /Odtp
; File C:\papa\MyGit\hyperion-zvector\ieee.c
_TEXT	SEGMENT
op$ = 8
fpr$ = 16
z900_put_float64 PROC

; 573  : {

  00000	48 89 54 24 10	 mov	 QWORD PTR [rsp+16], rdx
  00005	48 89 4c 24 08	 mov	 QWORD PTR [rsp+8], rcx

; 574  :     fpr[0] = (U32) (op->v >> 32);

  0000a	48 8b 44 24 08	 mov	 rax, QWORD PTR op$[rsp]
  0000f	48 8b 00	 mov	 rax, QWORD PTR [rax]
  00012	48 c1 e8 20	 shr	 rax, 32			; 00000020H
  00016	b9 04 00 00 00	 mov	 ecx, 4
  0001b	48 6b c9 00	 imul	 rcx, rcx, 0
  0001f	48 8b 54 24 10	 mov	 rdx, QWORD PTR fpr$[rsp]
  00024	89 04 0a	 mov	 DWORD PTR [rdx+rcx], eax

; 575  :     fpr[1] = (U32) (op->v & 0xFFFFFFFF);

  00027	48 8b 44 24 08	 mov	 rax, QWORD PTR op$[rsp]
  0002c	b9 ff ff ff ff	 mov	 ecx, -1			; ffffffffH
  00031	48 8b 00	 mov	 rax, QWORD PTR [rax]
  00034	48 23 c1	 and	 rax, rcx
  00037	b9 04 00 00 00	 mov	 ecx, 4
  0003c	48 6b c9 01	 imul	 rcx, rcx, 1
  00040	48 8b 54 24 10	 mov	 rdx, QWORD PTR fpr$[rsp]
  00045	89 04 0a	 mov	 DWORD PTR [rdx+rcx], eax

; 576  : }

  00048	c3		 ret	 0
z900_put_float64 ENDP
_TEXT	ENDS
; Function compile flags: /Odtp
; File C:\papa\MyGit\hyperion-zvector\ieee.c
_TEXT	SEGMENT
op$ = 8
fpr$ = 16
z900_get_float64 PROC

; 568  : {

  00000	48 89 54 24 10	 mov	 QWORD PTR [rsp+16], rdx
  00005	48 89 4c 24 08	 mov	 QWORD PTR [rsp+8], rcx

; 569  :     op->v = ((U64)fpr[0] << 32) | fpr[1];

  0000a	b8 04 00 00 00	 mov	 eax, 4
  0000f	48 6b c0 00	 imul	 rax, rax, 0
  00013	48 8b 4c 24 10	 mov	 rcx, QWORD PTR fpr$[rsp]
  00018	8b 04 01	 mov	 eax, DWORD PTR [rcx+rax]
  0001b	48 c1 e0 20	 shl	 rax, 32			; 00000020H
  0001f	b9 04 00 00 00	 mov	 ecx, 4
  00024	48 6b c9 01	 imul	 rcx, rcx, 1
  00028	48 8b 54 24 10	 mov	 rdx, QWORD PTR fpr$[rsp]
  0002d	8b 0c 0a	 mov	 ecx, DWORD PTR [rdx+rcx]
  00030	48 0b c1	 or	 rax, rcx
  00033	48 8b 4c 24 08	 mov	 rcx, QWORD PTR op$[rsp]
  00038	48 89 01	 mov	 QWORD PTR [rcx], rax

; 570  : }

  0003b	c3		 ret	 0
z900_get_float64 ENDP
_TEXT	ENDS
; Function compile flags: /Odtp
; File C:\papa\MyGit\hyperion-zvector\ieee.c
_TEXT	SEGMENT
op$ = 8
fpr$ = 16
z900_put_float128 PROC

; 560  : {

  00000	48 89 54 24 10	 mov	 QWORD PTR [rsp+16], rdx
  00005	48 89 4c 24 08	 mov	 QWORD PTR [rsp+8], rcx

; 561  :     fpr[0]       = (U32) (op->v[FLOAT128_HI] >> 32);

  0000a	b8 08 00 00 00	 mov	 eax, 8
  0000f	48 6b c0 01	 imul	 rax, rax, 1
  00013	48 8b 4c 24 08	 mov	 rcx, QWORD PTR op$[rsp]
  00018	48 8b 04 01	 mov	 rax, QWORD PTR [rcx+rax]
  0001c	48 c1 e8 20	 shr	 rax, 32			; 00000020H
  00020	b9 04 00 00 00	 mov	 ecx, 4
  00025	48 6b c9 00	 imul	 rcx, rcx, 0
  00029	48 8b 54 24 10	 mov	 rdx, QWORD PTR fpr$[rsp]
  0002e	89 04 0a	 mov	 DWORD PTR [rdx+rcx], eax

; 562  :     fpr[1]       = (U32) (op->v[FLOAT128_HI] & 0xFFFFFFFF);

  00031	b8 08 00 00 00	 mov	 eax, 8
  00036	48 6b c0 01	 imul	 rax, rax, 1
  0003a	48 8b 4c 24 08	 mov	 rcx, QWORD PTR op$[rsp]
  0003f	ba ff ff ff ff	 mov	 edx, -1			; ffffffffH
  00044	48 8b 04 01	 mov	 rax, QWORD PTR [rcx+rax]
  00048	48 23 c2	 and	 rax, rdx
  0004b	b9 04 00 00 00	 mov	 ecx, 4
  00050	48 6b c9 01	 imul	 rcx, rcx, 1
  00054	48 8b 54 24 10	 mov	 rdx, QWORD PTR fpr$[rsp]
  00059	89 04 0a	 mov	 DWORD PTR [rdx+rcx], eax

; 563  :     fpr[FPREX]   = (U32) (op->v[FLOAT128_LO] >> 32);

  0005c	b8 08 00 00 00	 mov	 eax, 8
  00061	48 6b c0 00	 imul	 rax, rax, 0
  00065	48 8b 4c 24 08	 mov	 rcx, QWORD PTR op$[rsp]
  0006a	48 8b 04 01	 mov	 rax, QWORD PTR [rcx+rax]
  0006e	48 c1 e8 20	 shr	 rax, 32			; 00000020H
  00072	b9 04 00 00 00	 mov	 ecx, 4
  00077	48 6b c9 04	 imul	 rcx, rcx, 4
  0007b	48 8b 54 24 10	 mov	 rdx, QWORD PTR fpr$[rsp]
  00080	89 04 0a	 mov	 DWORD PTR [rdx+rcx], eax

; 564  :     fpr[FPREX+1] = (U32) (op->v[FLOAT128_LO] & 0xFFFFFFFF);

  00083	b8 08 00 00 00	 mov	 eax, 8
  00088	48 6b c0 00	 imul	 rax, rax, 0
  0008c	48 8b 4c 24 08	 mov	 rcx, QWORD PTR op$[rsp]
  00091	ba ff ff ff ff	 mov	 edx, -1			; ffffffffH
  00096	48 8b 04 01	 mov	 rax, QWORD PTR [rcx+rax]
  0009a	48 23 c2	 and	 rax, rdx
  0009d	b9 04 00 00 00	 mov	 ecx, 4
  000a2	48 6b c9 05	 imul	 rcx, rcx, 5
  000a6	48 8b 54 24 10	 mov	 rdx, QWORD PTR fpr$[rsp]
  000ab	89 04 0a	 mov	 DWORD PTR [rdx+rcx], eax

; 565  : }

  000ae	c3		 ret	 0
z900_put_float128 ENDP
_TEXT	ENDS
; Function compile flags: /Odtp
; File C:\papa\MyGit\hyperion-zvector\ieee.c
_TEXT	SEGMENT
op$ = 8
fpr$ = 16
z900_get_float128 PROC

; 553  : {

  00000	48 89 54 24 10	 mov	 QWORD PTR [rsp+16], rdx
  00005	48 89 4c 24 08	 mov	 QWORD PTR [rsp+8], rcx

; 554  :                                                       /* high order bits in v[1], low order in v[0]  */
; 555  :     op->v[FLOAT128_HI] = ((U64)fpr[0]     << 32) | fpr[1];               /* *****  Possible endian concern  ******* */

  0000a	b8 04 00 00 00	 mov	 eax, 4
  0000f	48 6b c0 00	 imul	 rax, rax, 0
  00013	48 8b 4c 24 10	 mov	 rcx, QWORD PTR fpr$[rsp]
  00018	8b 04 01	 mov	 eax, DWORD PTR [rcx+rax]
  0001b	48 c1 e0 20	 shl	 rax, 32			; 00000020H
  0001f	b9 04 00 00 00	 mov	 ecx, 4
  00024	48 6b c9 01	 imul	 rcx, rcx, 1
  00028	48 8b 54 24 10	 mov	 rdx, QWORD PTR fpr$[rsp]
  0002d	8b 0c 0a	 mov	 ecx, DWORD PTR [rdx+rcx]
  00030	48 0b c1	 or	 rax, rcx
  00033	b9 08 00 00 00	 mov	 ecx, 8
  00038	48 6b c9 01	 imul	 rcx, rcx, 1
  0003c	48 8b 54 24 08	 mov	 rdx, QWORD PTR op$[rsp]
  00041	48 89 04 0a	 mov	 QWORD PTR [rdx+rcx], rax

; 556  :     op->v[FLOAT128_LO] = ((U64)fpr[FPREX] << 32) | fpr[FPREX+1];

  00045	b8 04 00 00 00	 mov	 eax, 4
  0004a	48 6b c0 04	 imul	 rax, rax, 4
  0004e	48 8b 4c 24 10	 mov	 rcx, QWORD PTR fpr$[rsp]
  00053	8b 04 01	 mov	 eax, DWORD PTR [rcx+rax]
  00056	48 c1 e0 20	 shl	 rax, 32			; 00000020H
  0005a	b9 04 00 00 00	 mov	 ecx, 4
  0005f	48 6b c9 05	 imul	 rcx, rcx, 5
  00063	48 8b 54 24 10	 mov	 rdx, QWORD PTR fpr$[rsp]
  00068	8b 0c 0a	 mov	 ecx, DWORD PTR [rdx+rcx]
  0006b	48 0b c1	 or	 rax, rcx
  0006e	b9 08 00 00 00	 mov	 ecx, 8
  00073	48 6b c9 00	 imul	 rcx, rcx, 0
  00077	48 8b 54 24 08	 mov	 rdx, QWORD PTR op$[rsp]
  0007c	48 89 04 0a	 mov	 QWORD PTR [rdx+rcx], rax

; 557  : }

  00080	c3		 ret	 0
z900_get_float128 ENDP
_TEXT	ENDS
; Function compile flags: /Odtp
; File C:\papa\MyGit\hyperion-zvector\ieee.c
_TEXT	SEGMENT
regs$ = 48
mask$ = 56
z900_BFP_RM_check PROC

; 534  : {

  00000	88 54 24 10	 mov	 BYTE PTR [rsp+16], dl
  00004	48 89 4c 24 08	 mov	 QWORD PTR [rsp+8], rcx
  00009	48 83 ec 28	 sub	 rsp, 40			; 00000028H

; 535  : #if defined( FEATURE_037_FP_EXTENSION_FACILITY )
; 536  :     if (FACILITY_ENABLED( 037_FP_EXTENSION, regs ))

  0000d	b8 01 00 00 00	 mov	 eax, 1
  00012	48 6b c0 04	 imul	 rax, rax, 4
  00016	48 8b 4c 24 30	 mov	 rcx, QWORD PTR regs$[rsp]
  0001b	0f b6 84 01 28
	0d 00 00	 movzx	 eax, BYTE PTR [rcx+rax+3368]
  00023	83 e0 04	 and	 eax, 4
  00026	85 c0		 test	 eax, eax
  00028	74 3a		 je	 SHORT $LN2@z900_BFP_R

; 537  :     {
; 538  :         if (mask > 7 || !map_valid_m3_values_FPX[ (mask & 0x7) ]) 

  0002a	0f b6 44 24 38	 movzx	 eax, BYTE PTR mask$[rsp]
  0002f	83 f8 07	 cmp	 eax, 7
  00032	7f 19		 jg	 SHORT $LN5@z900_BFP_R
  00034	0f b6 44 24 38	 movzx	 eax, BYTE PTR mask$[rsp]
  00039	83 e0 07	 and	 eax, 7
  0003c	48 98		 cdqe
  0003e	48 8d 0d 00 00
	00 00		 lea	 rcx, OFFSET FLAT:map_valid_m3_values_FPX
  00045	0f b6 04 01	 movzx	 eax, BYTE PTR [rcx+rax]
  00049	85 c0		 test	 eax, eax
  0004b	75 15		 jne	 SHORT $LN4@z900_BFP_R
$LN5@z900_BFP_R:

; 539  :             regs->program_interrupt( regs, PGM_SPECIFICATION_EXCEPTION );

  0004d	ba 06 00 00 00	 mov	 edx, 6
  00052	48 8b 4c 24 30	 mov	 rcx, QWORD PTR regs$[rsp]
  00057	48 8b 44 24 30	 mov	 rax, QWORD PTR regs$[rsp]
  0005c	ff 90 20 0d 00
	00		 call	 QWORD PTR [rax+3360]
$LN4@z900_BFP_R:

; 540  :     }

  00062	eb 38		 jmp	 SHORT $LN3@z900_BFP_R
$LN2@z900_BFP_R:

; 541  :     else
; 542  : #endif
; 543  :     {
; 544  :         if (mask > 7 || !map_valid_m3_values_NOFPX[ (mask & 0x7) ])

  00064	0f b6 44 24 38	 movzx	 eax, BYTE PTR mask$[rsp]
  00069	83 f8 07	 cmp	 eax, 7
  0006c	7f 19		 jg	 SHORT $LN7@z900_BFP_R
  0006e	0f b6 44 24 38	 movzx	 eax, BYTE PTR mask$[rsp]
  00073	83 e0 07	 and	 eax, 7
  00076	48 98		 cdqe
  00078	48 8d 0d 00 00
	00 00		 lea	 rcx, OFFSET FLAT:map_valid_m3_values_NOFPX
  0007f	0f b6 04 01	 movzx	 eax, BYTE PTR [rcx+rax]
  00083	85 c0		 test	 eax, eax
  00085	75 15		 jne	 SHORT $LN6@z900_BFP_R
$LN7@z900_BFP_R:

; 545  :             regs->program_interrupt( regs, PGM_SPECIFICATION_EXCEPTION );

  00087	ba 06 00 00 00	 mov	 edx, 6
  0008c	48 8b 4c 24 30	 mov	 rcx, QWORD PTR regs$[rsp]
  00091	48 8b 44 24 30	 mov	 rax, QWORD PTR regs$[rsp]
  00096	ff 90 20 0d 00
	00		 call	 QWORD PTR [rax+3360]
$LN6@z900_BFP_R:
$LN3@z900_BFP_R:

; 546  :     }
; 547  : }

  0009c	48 83 c4 28	 add	 rsp, 40			; 00000028H
  000a0	c3		 ret	 0
z900_BFP_RM_check ENDP
_TEXT	ENDS
; Function compile flags: /Odtp
; File C:\papa\MyGit\hyperion-zvector\vstore.h
;	COMDAT z900_vfetch8
_TEXT	SEGMENT
tv70 = 48
mn$1 = 56
addr$ = 80
arn$ = 88
regs$ = 96
z900_vfetch8 PROC					; COMDAT

; 711  : {

$LN8:
  00000	4c 89 44 24 18	 mov	 QWORD PTR [rsp+24], r8
  00005	89 54 24 10	 mov	 DWORD PTR [rsp+16], edx
  00009	48 89 4c 24 08	 mov	 QWORD PTR [rsp+8], rcx
  0000e	48 83 ec 48	 sub	 rsp, 72			; 00000048H

; 712  : #if defined( OPTION_SINGLE_CPU_DW ) && defined( ASSIST_STORE_DW )
; 713  :     if(likely(!((VADR_L)addr & 0x07)))
; 714  :     {
; 715  :         /* doubleword aligned fetch */
; 716  :         U64 *mn;
; 717  :         ITIMER_SYNC( addr, 8-1, regs );
; 718  :         mn = (U64*)MADDRL( addr, 8, arn, regs, ACCTYPE_READ, regs->psw.pkey );
; 719  :         if (regs->cpubit == regs->sysblk->started_mask)
; 720  :             return CSWAP64( *mn );
; 721  :         return fetch_dw( mn );
; 722  :     }
; 723  :     else
; 724  : #endif
; 725  :     {
; 726  :         if (likely(((VADR_L)addr & PAGEFRAME_BYTEMASK) <= (PAGEFRAME_BYTEMASK-7)))

  00012	48 8b 44 24 50	 mov	 rax, QWORD PTR addr$[rsp]
  00017	48 25 ff 0f 00
	00		 and	 rax, 4095		; 00000fffH
  0001d	48 3d f8 0f 00
	00		 cmp	 rax, 4088		; 00000ff8H
  00023	77 0a		 ja	 SHORT $LN6@z900_vfetc
  00025	c7 44 24 30 01
	00 00 00	 mov	 DWORD PTR tv70[rsp], 1
  0002d	eb 08		 jmp	 SHORT $LN7@z900_vfetc
$LN6@z900_vfetc:
  0002f	c7 44 24 30 00
	00 00 00	 mov	 DWORD PTR tv70[rsp], 0
$LN7@z900_vfetc:
  00037	83 7c 24 30 00	 cmp	 DWORD PTR tv70[rsp], 0
  0003c	74 47		 je	 SHORT $LN2@z900_vfetc

; 727  :         {
; 728  :             /* unaligned, non-crossing doubleword fetch */
; 729  :             BYTE *mn;
; 730  :             ITIMER_SYNC( addr, 8-1, regs );
; 731  :             mn = MADDRL( addr, 8, arn, regs, ACCTYPE_READ, regs->psw.pkey );

  0003e	48 8b 44 24 60	 mov	 rax, QWORD PTR regs$[rsp]
  00043	0f b6 40 79	 movzx	 eax, BYTE PTR [rax+121]
  00047	88 44 24 28	 mov	 BYTE PTR [rsp+40], al
  0004b	c7 44 24 20 04
	00 00 00	 mov	 DWORD PTR [rsp+32], 4
  00053	4c 8b 4c 24 60	 mov	 r9, QWORD PTR regs$[rsp]
  00058	44 8b 44 24 58	 mov	 r8d, DWORD PTR arn$[rsp]
  0005d	ba 08 00 00 00	 mov	 edx, 8
  00062	48 8b 4c 24 50	 mov	 rcx, QWORD PTR addr$[rsp]
  00067	e8 00 00 00 00	 call	 z900_maddr_l
  0006c	48 89 44 24 38	 mov	 QWORD PTR mn$1[rsp], rax

; 732  :             return fetch_dw( mn );

  00071	48 8b 4c 24 38	 mov	 rcx, QWORD PTR mn$1[rsp]
  00076	e8 00 00 00 00	 call	 fetch_dw_noswap
  0007b	48 8b c8	 mov	 rcx, rax
  0007e	e8 00 00 00 00	 call	 _byteswap_uint64
  00083	eb 13		 jmp	 SHORT $LN1@z900_vfetc
$LN2@z900_vfetc:

; 733  :         }
; 734  :     }
; 735  :     /* page crossing doubleword fetch */
; 736  :     return ARCH_DEP( vfetch8_full )( addr, arn, regs );

  00085	4c 8b 44 24 60	 mov	 r8, QWORD PTR regs$[rsp]
  0008a	8b 54 24 58	 mov	 edx, DWORD PTR arn$[rsp]
  0008e	48 8b 4c 24 50	 mov	 rcx, QWORD PTR addr$[rsp]
  00093	e8 00 00 00 00	 call	 z900_vfetch8_full
$LN1@z900_vfetc:

; 737  : }

  00098	48 83 c4 48	 add	 rsp, 72			; 00000048H
  0009c	c3		 ret	 0
z900_vfetch8 ENDP
_TEXT	ENDS
; Function compile flags: /Odtp
; File C:\papa\MyGit\hyperion-zvector\vstore.h
;	COMDAT z900_vfetch4
_TEXT	SEGMENT
tv66 = 48
tv72 = 52
mn$1 = 56
addr$ = 80
arn$ = 88
regs$ = 96
z900_vfetch4 PROC					; COMDAT

; 695  : {

$LN11:
  00000	4c 89 44 24 18	 mov	 QWORD PTR [rsp+24], r8
  00005	89 54 24 10	 mov	 DWORD PTR [rsp+16], edx
  00009	48 89 4c 24 08	 mov	 QWORD PTR [rsp+8], rcx
  0000e	48 83 ec 48	 sub	 rsp, 72			; 00000048H

; 696  :     if ((likely(!((VADR_L)addr & 0x03))
; 697  :         || (((VADR_L)addr & PAGEFRAME_BYTEMASK) <= (PAGEFRAME_BYTEMASK-3) )))

  00012	48 8b 44 24 50	 mov	 rax, QWORD PTR addr$[rsp]
  00017	48 83 e0 03	 and	 rax, 3
  0001b	48 85 c0	 test	 rax, rax
  0001e	75 0a		 jne	 SHORT $LN5@z900_vfetc
  00020	c7 44 24 30 01
	00 00 00	 mov	 DWORD PTR tv66[rsp], 1
  00028	eb 08		 jmp	 SHORT $LN6@z900_vfetc
$LN5@z900_vfetc:
  0002a	c7 44 24 30 00
	00 00 00	 mov	 DWORD PTR tv66[rsp], 0
$LN6@z900_vfetc:
  00032	83 7c 24 30 00	 cmp	 DWORD PTR tv66[rsp], 0
  00037	74 0a		 je	 SHORT $LN9@z900_vfetc
  00039	c7 44 24 34 01
	00 00 00	 mov	 DWORD PTR tv72[rsp], 1
  00041	eb 08		 jmp	 SHORT $LN10@z900_vfetc
$LN9@z900_vfetc:
  00043	c7 44 24 34 00
	00 00 00	 mov	 DWORD PTR tv72[rsp], 0
$LN10@z900_vfetc:
  0004b	83 7c 24 34 00	 cmp	 DWORD PTR tv72[rsp], 0
  00050	75 13		 jne	 SHORT $LN3@z900_vfetc
  00052	48 8b 44 24 50	 mov	 rax, QWORD PTR addr$[rsp]
  00057	48 25 ff 0f 00
	00		 and	 rax, 4095		; 00000fffH
  0005d	48 3d fc 0f 00
	00		 cmp	 rax, 4092		; 00000ffcH
  00063	77 46		 ja	 SHORT $LN2@z900_vfetc
$LN3@z900_vfetc:

; 698  :     {
; 699  :         BYTE *mn;
; 700  :         ITIMER_SYNC( addr, 4-1, regs );
; 701  :         mn = MADDRL( addr, 4,arn, regs, ACCTYPE_READ, regs->psw.pkey );

  00065	48 8b 44 24 60	 mov	 rax, QWORD PTR regs$[rsp]
  0006a	0f b6 40 79	 movzx	 eax, BYTE PTR [rax+121]
  0006e	88 44 24 28	 mov	 BYTE PTR [rsp+40], al
  00072	c7 44 24 20 04
	00 00 00	 mov	 DWORD PTR [rsp+32], 4
  0007a	4c 8b 4c 24 60	 mov	 r9, QWORD PTR regs$[rsp]
  0007f	44 8b 44 24 58	 mov	 r8d, DWORD PTR arn$[rsp]
  00084	ba 04 00 00 00	 mov	 edx, 4
  00089	48 8b 4c 24 50	 mov	 rcx, QWORD PTR addr$[rsp]
  0008e	e8 00 00 00 00	 call	 z900_maddr_l
  00093	48 89 44 24 38	 mov	 QWORD PTR mn$1[rsp], rax

; 702  :         return fetch_fw( mn );

  00098	48 8b 4c 24 38	 mov	 rcx, QWORD PTR mn$1[rsp]
  0009d	e8 00 00 00 00	 call	 fetch_fw_noswap
  000a2	8b c8		 mov	 ecx, eax
  000a4	e8 00 00 00 00	 call	 _byteswap_ulong
  000a9	eb 13		 jmp	 SHORT $LN1@z900_vfetc
$LN2@z900_vfetc:

; 703  :     }
; 704  :     return ARCH_DEP( vfetch4_full )( addr, arn, regs );

  000ab	4c 8b 44 24 60	 mov	 r8, QWORD PTR regs$[rsp]
  000b0	8b 54 24 58	 mov	 edx, DWORD PTR arn$[rsp]
  000b4	48 8b 4c 24 50	 mov	 rcx, QWORD PTR addr$[rsp]
  000b9	e8 00 00 00 00	 call	 z900_vfetch4_full
$LN1@z900_vfetc:

; 705  : }

  000be	48 83 c4 48	 add	 rsp, 72			; 00000048H
  000c2	c3		 ret	 0
z900_vfetch4 ENDP
_TEXT	ENDS
; Function compile flags: /Odtp
; File C:\papa\MyGit\hyperion-zvector\vstore.h
;	COMDAT z900_vfetch8_full
_TEXT	SEGMENT
len$ = 48
mn$ = 56
temp$ = 64
__$ArrayPad$ = 80
addr$ = 128
arn$ = 136
regs$ = 144
z900_vfetch8_full PROC					; COMDAT

; 457  : {

$LN3:
  00000	4c 89 44 24 18	 mov	 QWORD PTR [rsp+24], r8
  00005	89 54 24 10	 mov	 DWORD PTR [rsp+16], edx
  00009	48 89 4c 24 08	 mov	 QWORD PTR [rsp+8], rcx
  0000e	56		 push	 rsi
  0000f	57		 push	 rdi
  00010	48 83 ec 68	 sub	 rsp, 104		; 00000068H
  00014	48 8b 05 00 00
	00 00		 mov	 rax, QWORD PTR __security_cookie
  0001b	48 33 c4	 xor	 rax, rsp
  0001e	48 89 44 24 50	 mov	 QWORD PTR __$ArrayPad$[rsp], rax

; 458  : BYTE   *mn;                             /* Main storage addresses    */
; 459  : int     len;                            /* Length to end of page     */
; 460  : BYTE    temp[16];                       /* Copy destination          */
; 461  : 
; 462  :     /* Get absolute address of first byte of operand */
; 463  :     len = PAGEFRAME_PAGESIZE - (addr & PAGEFRAME_BYTEMASK);

  00023	48 8b 84 24 80
	00 00 00	 mov	 rax, QWORD PTR addr$[rsp]
  0002b	48 25 ff 0f 00
	00		 and	 rax, 4095		; 00000fffH
  00031	b9 00 10 00 00	 mov	 ecx, 4096		; 00001000H
  00036	48 2b c8	 sub	 rcx, rax
  00039	48 8b c1	 mov	 rax, rcx
  0003c	89 44 24 30	 mov	 DWORD PTR len$[rsp], eax

; 464  :     mn = MADDRL( addr, len, arn, regs, ACCTYPE_READ, regs->psw.pkey );

  00040	48 63 44 24 30	 movsxd	 rax, DWORD PTR len$[rsp]
  00045	48 8b 8c 24 90
	00 00 00	 mov	 rcx, QWORD PTR regs$[rsp]
  0004d	0f b6 49 79	 movzx	 ecx, BYTE PTR [rcx+121]
  00051	88 4c 24 28	 mov	 BYTE PTR [rsp+40], cl
  00055	c7 44 24 20 04
	00 00 00	 mov	 DWORD PTR [rsp+32], 4
  0005d	4c 8b 8c 24 90
	00 00 00	 mov	 r9, QWORD PTR regs$[rsp]
  00065	44 8b 84 24 88
	00 00 00	 mov	 r8d, DWORD PTR arn$[rsp]
  0006d	48 8b d0	 mov	 rdx, rax
  00070	48 8b 8c 24 80
	00 00 00	 mov	 rcx, QWORD PTR addr$[rsp]
  00078	e8 00 00 00 00	 call	 z900_maddr_l
  0007d	48 89 44 24 38	 mov	 QWORD PTR mn$[rsp], rax

; 465  :     memcpy( temp, mn, len);

  00082	48 63 44 24 30	 movsxd	 rax, DWORD PTR len$[rsp]
  00087	48 8d 4c 24 40	 lea	 rcx, QWORD PTR temp$[rsp]
  0008c	48 8b f9	 mov	 rdi, rcx
  0008f	48 8b 74 24 38	 mov	 rsi, QWORD PTR mn$[rsp]
  00094	48 8b c8	 mov	 rcx, rax
  00097	f3 a4		 rep movsb

; 466  :     mn = MADDRL( (addr + len) & ADDRESS_MAXWRAP( regs ), 8 - len, arn, regs,

  00099	b8 08 00 00 00	 mov	 eax, 8
  0009e	2b 44 24 30	 sub	 eax, DWORD PTR len$[rsp]
  000a2	48 98		 cdqe
  000a4	48 63 4c 24 30	 movsxd	 rcx, DWORD PTR len$[rsp]
  000a9	48 8b 94 24 80
	00 00 00	 mov	 rdx, QWORD PTR addr$[rsp]
  000b1	48 03 d1	 add	 rdx, rcx
  000b4	48 8b ca	 mov	 rcx, rdx
  000b7	48 8b 94 24 90
	00 00 00	 mov	 rdx, QWORD PTR regs$[rsp]
  000bf	48 23 8a 90 00
	00 00		 and	 rcx, QWORD PTR [rdx+144]
  000c6	48 8b 94 24 90
	00 00 00	 mov	 rdx, QWORD PTR regs$[rsp]
  000ce	0f b6 52 79	 movzx	 edx, BYTE PTR [rdx+121]
  000d2	88 54 24 28	 mov	 BYTE PTR [rsp+40], dl
  000d6	c7 44 24 20 04
	00 00 00	 mov	 DWORD PTR [rsp+32], 4
  000de	4c 8b 8c 24 90
	00 00 00	 mov	 r9, QWORD PTR regs$[rsp]
  000e6	44 8b 84 24 88
	00 00 00	 mov	 r8d, DWORD PTR arn$[rsp]
  000ee	48 8b d0	 mov	 rdx, rax
  000f1	e8 00 00 00 00	 call	 z900_maddr_l
  000f6	48 89 44 24 38	 mov	 QWORD PTR mn$[rsp], rax

; 467  :                  ACCTYPE_READ, regs->psw.pkey );
; 468  :     memcpy( temp+len, mn, 8 );

  000fb	48 63 44 24 30	 movsxd	 rax, DWORD PTR len$[rsp]
  00100	48 8b 4c 24 38	 mov	 rcx, QWORD PTR mn$[rsp]
  00105	48 8b 09	 mov	 rcx, QWORD PTR [rcx]
  00108	48 89 4c 04 40	 mov	 QWORD PTR temp$[rsp+rax], rcx

; 469  :     return fetch_dw( temp );

  0010d	48 8d 4c 24 40	 lea	 rcx, QWORD PTR temp$[rsp]
  00112	e8 00 00 00 00	 call	 fetch_dw_noswap
  00117	48 8b c8	 mov	 rcx, rax
  0011a	e8 00 00 00 00	 call	 _byteswap_uint64

; 470  : }

  0011f	48 8b 4c 24 50	 mov	 rcx, QWORD PTR __$ArrayPad$[rsp]
  00124	48 33 cc	 xor	 rcx, rsp
  00127	e8 00 00 00 00	 call	 __security_check_cookie
  0012c	48 83 c4 68	 add	 rsp, 104		; 00000068H
  00130	5f		 pop	 rdi
  00131	5e		 pop	 rsi
  00132	c3		 ret	 0
z900_vfetch8_full ENDP
_TEXT	ENDS
; Function compile flags: /Odtp
; File C:\papa\MyGit\hyperion-zvector\vstore.h
;	COMDAT z900_vfetch4_full
_TEXT	SEGMENT
len$ = 48
mn$ = 56
temp$ = 64
__$ArrayPad$ = 72
addr$ = 112
arn$ = 120
regs$ = 128
z900_vfetch4_full PROC					; COMDAT

; 428  : {

$LN3:
  00000	4c 89 44 24 18	 mov	 QWORD PTR [rsp+24], r8
  00005	89 54 24 10	 mov	 DWORD PTR [rsp+16], edx
  00009	48 89 4c 24 08	 mov	 QWORD PTR [rsp+8], rcx
  0000e	56		 push	 rsi
  0000f	57		 push	 rdi
  00010	48 83 ec 58	 sub	 rsp, 88			; 00000058H
  00014	48 8b 05 00 00
	00 00		 mov	 rax, QWORD PTR __security_cookie
  0001b	48 33 c4	 xor	 rax, rsp
  0001e	48 89 44 24 48	 mov	 QWORD PTR __$ArrayPad$[rsp], rax

; 429  : BYTE   *mn;                             /* Main storage addresses    */
; 430  : int     len;                            /* Length to end of page     */
; 431  : BYTE    temp[8];                        /* Copy destination          */
; 432  : 
; 433  :     len = PAGEFRAME_PAGESIZE - (addr & PAGEFRAME_BYTEMASK);

  00023	48 8b 44 24 70	 mov	 rax, QWORD PTR addr$[rsp]
  00028	48 25 ff 0f 00
	00		 and	 rax, 4095		; 00000fffH
  0002e	b9 00 10 00 00	 mov	 ecx, 4096		; 00001000H
  00033	48 2b c8	 sub	 rcx, rax
  00036	48 8b c1	 mov	 rax, rcx
  00039	89 44 24 30	 mov	 DWORD PTR len$[rsp], eax

; 434  :     mn = MADDRL( addr, len, arn, regs, ACCTYPE_READ, regs->psw.pkey );

  0003d	48 63 44 24 30	 movsxd	 rax, DWORD PTR len$[rsp]
  00042	48 8b 8c 24 80
	00 00 00	 mov	 rcx, QWORD PTR regs$[rsp]
  0004a	0f b6 49 79	 movzx	 ecx, BYTE PTR [rcx+121]
  0004e	88 4c 24 28	 mov	 BYTE PTR [rsp+40], cl
  00052	c7 44 24 20 04
	00 00 00	 mov	 DWORD PTR [rsp+32], 4
  0005a	4c 8b 8c 24 80
	00 00 00	 mov	 r9, QWORD PTR regs$[rsp]
  00062	44 8b 44 24 78	 mov	 r8d, DWORD PTR arn$[rsp]
  00067	48 8b d0	 mov	 rdx, rax
  0006a	48 8b 4c 24 70	 mov	 rcx, QWORD PTR addr$[rsp]
  0006f	e8 00 00 00 00	 call	 z900_maddr_l
  00074	48 89 44 24 38	 mov	 QWORD PTR mn$[rsp], rax

; 435  :     memcpy( temp, mn, len);

  00079	48 63 44 24 30	 movsxd	 rax, DWORD PTR len$[rsp]
  0007e	48 8d 4c 24 40	 lea	 rcx, QWORD PTR temp$[rsp]
  00083	48 8b f9	 mov	 rdi, rcx
  00086	48 8b 74 24 38	 mov	 rsi, QWORD PTR mn$[rsp]
  0008b	48 8b c8	 mov	 rcx, rax
  0008e	f3 a4		 rep movsb

; 436  :     mn = MADDRL( (addr + len) & ADDRESS_MAXWRAP( regs ), 4 - len, arn, regs,

  00090	b8 04 00 00 00	 mov	 eax, 4
  00095	2b 44 24 30	 sub	 eax, DWORD PTR len$[rsp]
  00099	48 98		 cdqe
  0009b	48 63 4c 24 30	 movsxd	 rcx, DWORD PTR len$[rsp]
  000a0	48 8b 54 24 70	 mov	 rdx, QWORD PTR addr$[rsp]
  000a5	48 03 d1	 add	 rdx, rcx
  000a8	48 8b ca	 mov	 rcx, rdx
  000ab	48 8b 94 24 80
	00 00 00	 mov	 rdx, QWORD PTR regs$[rsp]
  000b3	48 23 8a 90 00
	00 00		 and	 rcx, QWORD PTR [rdx+144]
  000ba	48 8b 94 24 80
	00 00 00	 mov	 rdx, QWORD PTR regs$[rsp]
  000c2	0f b6 52 79	 movzx	 edx, BYTE PTR [rdx+121]
  000c6	88 54 24 28	 mov	 BYTE PTR [rsp+40], dl
  000ca	c7 44 24 20 04
	00 00 00	 mov	 DWORD PTR [rsp+32], 4
  000d2	4c 8b 8c 24 80
	00 00 00	 mov	 r9, QWORD PTR regs$[rsp]
  000da	44 8b 44 24 78	 mov	 r8d, DWORD PTR arn$[rsp]
  000df	48 8b d0	 mov	 rdx, rax
  000e2	e8 00 00 00 00	 call	 z900_maddr_l
  000e7	48 89 44 24 38	 mov	 QWORD PTR mn$[rsp], rax

; 437  :                   ACCTYPE_READ, regs->psw.pkey );
; 438  :     memcpy( temp+len, mn, 4 - len);

  000ec	b8 04 00 00 00	 mov	 eax, 4
  000f1	2b 44 24 30	 sub	 eax, DWORD PTR len$[rsp]
  000f5	48 98		 cdqe
  000f7	48 63 4c 24 30	 movsxd	 rcx, DWORD PTR len$[rsp]
  000fc	48 8d 4c 0c 40	 lea	 rcx, QWORD PTR temp$[rsp+rcx]
  00101	48 8b f9	 mov	 rdi, rcx
  00104	48 8b 74 24 38	 mov	 rsi, QWORD PTR mn$[rsp]
  00109	48 8b c8	 mov	 rcx, rax
  0010c	f3 a4		 rep movsb

; 439  :     return fetch_fw( temp );

  0010e	48 8d 4c 24 40	 lea	 rcx, QWORD PTR temp$[rsp]
  00113	e8 00 00 00 00	 call	 fetch_fw_noswap
  00118	8b c8		 mov	 ecx, eax
  0011a	e8 00 00 00 00	 call	 _byteswap_ulong

; 440  : }

  0011f	48 8b 4c 24 48	 mov	 rcx, QWORD PTR __$ArrayPad$[rsp]
  00124	48 33 cc	 xor	 rcx, rsp
  00127	e8 00 00 00 00	 call	 __security_check_cookie
  0012c	48 83 c4 58	 add	 rsp, 88			; 00000058H
  00130	5f		 pop	 rdi
  00131	5e		 pop	 rsi
  00132	c3		 ret	 0
z900_vfetch4_full ENDP
_TEXT	ENDS
; Function compile flags: /Odtp
; File C:\papa\MyGit\hyperion-zvector\dat.h
;	COMDAT z900_maddr_l
_TEXT	SEGMENT
tlbix$ = 48
aea_crn$ = 52
tv70 = 56
maddr$ = 64
addr$ = 96
len$ = 104
arn$ = 112
regs$ = 120
acctype$ = 128
akey$ = 136
z900_maddr_l PROC					; COMDAT

; 307  : {

$LN18:
  00000	4c 89 4c 24 20	 mov	 QWORD PTR [rsp+32], r9
  00005	44 89 44 24 18	 mov	 DWORD PTR [rsp+24], r8d
  0000a	48 89 54 24 10	 mov	 QWORD PTR [rsp+16], rdx
  0000f	48 89 4c 24 08	 mov	 QWORD PTR [rsp+8], rcx
  00014	48 83 ec 58	 sub	 rsp, 88			; 00000058H

; 308  :     /* Note: ALL of the below conditions must be true for a TLB hit
; 309  :        to occur.  If ANY of them are false, then it's a TLB miss,
; 310  :        requiring us to then perform a full DAT address translation.
; 311  : 
; 312  :        Note too that on the grand scheme of things the order/sequence
; 313  :        of the below tests (if statements) is completely unimportant
; 314  :        since ALL conditions must be checked anyway in order for a hit
; 315  :        to occur, and it doesn't matter that a miss tests a few extra
; 316  :        conditions since it's going to do a full translation anyway!
; 317  :        (which is many, many instructions)
; 318  :     */
; 319  : 
; 320  :     int  aea_crn  = (arn >= USE_ARMODE) ? 0 : regs->AEA_AR( arn );

  00018	83 7c 24 70 10	 cmp	 DWORD PTR arn$[rsp], 16
  0001d	7c 0a		 jl	 SHORT $LN16@z900_maddr
  0001f	c7 44 24 38 00
	00 00 00	 mov	 DWORD PTR tv70[rsp], 0
  00027	eb 19		 jmp	 SHORT $LN17@z900_maddr
$LN16@z900_maddr:
  00029	8b 44 24 70	 mov	 eax, DWORD PTR arn$[rsp]
  0002d	83 c0 05	 add	 eax, 5
  00030	48 98		 cdqe
  00032	48 8b 4c 24 78	 mov	 rcx, QWORD PTR regs$[rsp]
  00037	8b 84 81 94 0c
	00 00		 mov	 eax, DWORD PTR [rcx+rax*4+3220]
  0003e	89 44 24 38	 mov	 DWORD PTR tv70[rsp], eax
$LN17@z900_maddr:
  00042	8b 44 24 38	 mov	 eax, DWORD PTR tv70[rsp]
  00046	89 44 24 34	 mov	 DWORD PTR aea_crn$[rsp], eax

; 321  :     U16  tlbix    = TLBIX( addr );

  0004a	48 8b 44 24 60	 mov	 rax, QWORD PTR addr$[rsp]
  0004f	48 c1 e8 0c	 shr	 rax, 12
  00053	48 25 ff 03 00
	00		 and	 rax, 1023		; 000003ffH
  00059	66 89 44 24 30	 mov	 WORD PTR tlbix$[rsp], ax

; 322  :     BYTE *maddr   = NULL;

  0005e	48 c7 44 24 40
	00 00 00 00	 mov	 QWORD PTR maddr$[rsp], 0

; 323  : 
; 324  :     /* Non-zero AEA Control Register number? */
; 325  :     if (aea_crn)

  00067	83 7c 24 34 00	 cmp	 DWORD PTR aea_crn$[rsp], 0
  0006c	0f 84 2d 01 00
	00		 je	 $LN2@z900_maddr

; 326  :     {
; 327  :         /* Same Addess Space Designator as before? */
; 328  :         /* Or if not, is address in a common segment? */
; 329  :         if (0
; 330  :             || (regs->CR( aea_crn ) == regs->tlb.TLB_ASD( tlbix ))
; 331  :             || (regs->AEA_COMMON( aea_crn ) & regs->tlb.common[ tlbix ])

  00072	33 c0		 xor	 eax, eax
  00074	85 c0		 test	 eax, eax
  00076	75 5a		 jne	 SHORT $LN4@z900_maddr
  00078	8b 44 24 34	 mov	 eax, DWORD PTR aea_crn$[rsp]
  0007c	ff c0		 inc	 eax
  0007e	48 98		 cdqe
  00080	0f b7 4c 24 30	 movzx	 ecx, WORD PTR tlbix$[rsp]
  00085	48 8b 54 24 78	 mov	 rdx, QWORD PTR regs$[rsp]
  0008a	4c 8b 44 24 78	 mov	 r8, QWORD PTR regs$[rsp]
  0008f	49 8b 8c c8 60
	b0 00 00	 mov	 rcx, QWORD PTR [r8+rcx*8+45152]
  00097	48 39 8c c2 00
	06 00 00	 cmp	 QWORD PTR [rdx+rax*8+1536], rcx
  0009f	74 31		 je	 SHORT $LN4@z900_maddr
  000a1	8b 44 24 34	 mov	 eax, DWORD PTR aea_crn$[rsp]
  000a5	ff c0		 inc	 eax
  000a7	48 98		 cdqe
  000a9	48 8b 4c 24 78	 mov	 rcx, QWORD PTR regs$[rsp]
  000ae	0f b6 84 01 e8
	0c 00 00	 movzx	 eax, BYTE PTR [rcx+rax+3304]
  000b6	0f b7 4c 24 30	 movzx	 ecx, WORD PTR tlbix$[rsp]
  000bb	48 8b 54 24 78	 mov	 rdx, QWORD PTR regs$[rsp]
  000c0	0f b6 8c 0a 60
	54 01 00	 movzx	 ecx, BYTE PTR [rdx+rcx+87136]
  000c8	23 c1		 and	 eax, ecx
  000ca	85 c0		 test	 eax, eax
  000cc	0f 84 cd 00 00
	00		 je	 $LN3@z900_maddr
$LN4@z900_maddr:

; 332  :         )
; 333  :         {
; 334  :             /* Storage Key zero? */
; 335  :             /* Or if not, same Storage Key as before? */
; 336  :             if (0
; 337  :                 || akey == 0
; 338  :                 || akey == regs->tlb.skey[ tlbix ]

  000d2	33 c0		 xor	 eax, eax
  000d4	85 c0		 test	 eax, eax
  000d6	75 2e		 jne	 SHORT $LN6@z900_maddr
  000d8	0f b6 84 24 88
	00 00 00	 movzx	 eax, BYTE PTR akey$[rsp]
  000e0	85 c0		 test	 eax, eax
  000e2	74 22		 je	 SHORT $LN6@z900_maddr
  000e4	0f b6 84 24 88
	00 00 00	 movzx	 eax, BYTE PTR akey$[rsp]
  000ec	0f b7 4c 24 30	 movzx	 ecx, WORD PTR tlbix$[rsp]
  000f1	48 8b 54 24 78	 mov	 rdx, QWORD PTR regs$[rsp]
  000f6	0f b6 8c 0a 60
	50 01 00	 movzx	 ecx, BYTE PTR [rdx+rcx+86112]
  000fe	3b c1		 cmp	 eax, ecx
  00100	0f 85 99 00 00
	00		 jne	 $LN5@z900_maddr
$LN6@z900_maddr:

; 339  :             )
; 340  :             {
; 341  :                 /* Does the page address match the one in the TLB? */
; 342  :                 /* (does a TLB entry exist for this page address?) */
; 343  :                 if (
; 344  :                     ((addr & TLBID_PAGEMASK) | regs->tlbID)
; 345  :                     ==

  00106	48 8b 44 24 60	 mov	 rax, QWORD PTR addr$[rsp]
  0010b	48 25 00 00 c0
	ff		 and	 rax, -4194304		; ffffffffffc00000H
  00111	48 8b 4c 24 78	 mov	 rcx, QWORD PTR regs$[rsp]
  00116	8b 89 58 b0 00
	00		 mov	 ecx, DWORD PTR [rcx+45144]
  0011c	48 0b c1	 or	 rax, rcx
  0011f	0f b7 4c 24 30	 movzx	 ecx, WORD PTR tlbix$[rsp]
  00124	48 8b 54 24 78	 mov	 rdx, QWORD PTR regs$[rsp]
  00129	48 3b 84 ca 60
	d0 00 00	 cmp	 rax, QWORD PTR [rdx+rcx*8+53344]
  00131	75 6c		 jne	 SHORT $LN7@z900_maddr

; 346  :                     regs->tlb.TLB_VADDR( tlbix )
; 347  :                 )
; 348  :                 {
; 349  :                     /* Is storage being accessed same way as before? */
; 350  :                     if (acctype & regs->tlb.acc[ tlbix ])

  00133	0f b7 44 24 30	 movzx	 eax, WORD PTR tlbix$[rsp]
  00138	48 8b 4c 24 78	 mov	 rcx, QWORD PTR regs$[rsp]
  0013d	0f b6 84 01 60
	5c 01 00	 movzx	 eax, BYTE PTR [rcx+rax+89184]
  00145	8b 8c 24 80 00
	00 00		 mov	 ecx, DWORD PTR acctype$[rsp]
  0014c	23 c8		 and	 ecx, eax
  0014e	8b c1		 mov	 eax, ecx
  00150	85 c0		 test	 eax, eax
  00152	74 4b		 je	 SHORT $LN8@z900_maddr

; 351  :                     {
; 352  :                         /*------------------------------------------*/
; 353  :                         /* TLB hit: use previously translated value */
; 354  :                         /*------------------------------------------*/
; 355  : 
; 356  :                         if (acctype & ACC_CHECK)

  00154	8b 84 24 80 00
	00 00		 mov	 eax, DWORD PTR acctype$[rsp]
  0015b	83 e0 01	 and	 eax, 1
  0015e	85 c0		 test	 eax, eax
  00160	74 1e		 je	 SHORT $LN9@z900_maddr

; 357  :                             regs->dat.storkey = regs->tlb.storkey[ tlbix ];

  00162	0f b7 44 24 30	 movzx	 eax, WORD PTR tlbix$[rsp]
  00167	48 8b 4c 24 78	 mov	 rcx, QWORD PTR regs$[rsp]
  0016c	48 8b 54 24 78	 mov	 rdx, QWORD PTR regs$[rsp]
  00171	48 8b 84 c2 60
	30 01 00	 mov	 rax, QWORD PTR [rdx+rax*8+77920]
  00179	48 89 81 28 08
	00 00		 mov	 QWORD PTR [rcx+2088], rax
$LN9@z900_maddr:

; 358  : 
; 359  :                         maddr = MAINADDR( regs->tlb.main[tlbix], addr );

  00180	0f b7 44 24 30	 movzx	 eax, WORD PTR tlbix$[rsp]
  00185	48 8b 4c 24 78	 mov	 rcx, QWORD PTR regs$[rsp]
  0018a	48 8b 54 24 60	 mov	 rdx, QWORD PTR addr$[rsp]
  0018f	48 8b 84 c1 60
	10 01 00	 mov	 rax, QWORD PTR [rcx+rax*8+69728]
  00197	48 33 c2	 xor	 rax, rdx
  0019a	48 89 44 24 40	 mov	 QWORD PTR maddr$[rsp], rax
$LN8@z900_maddr:
$LN7@z900_maddr:
$LN5@z900_maddr:
$LN3@z900_maddr:
$LN2@z900_maddr:

; 360  :                     }
; 361  :                 }
; 362  :             }
; 363  :         }
; 364  :     }
; 365  : 
; 366  :     /*---------------------------------------*/
; 367  :     /* TLB miss: do full address translation */
; 368  :     /*---------------------------------------*/
; 369  :     if (!maddr)

  0019f	48 83 7c 24 40
	00		 cmp	 QWORD PTR maddr$[rsp], 0
  001a5	75 36		 jne	 SHORT $LN10@z900_maddr

; 370  :         maddr = ARCH_DEP( logical_to_main_l )( addr, arn, regs, acctype, akey, len );

  001a7	48 8b 44 24 68	 mov	 rax, QWORD PTR len$[rsp]
  001ac	48 89 44 24 28	 mov	 QWORD PTR [rsp+40], rax
  001b1	0f b6 84 24 88
	00 00 00	 movzx	 eax, BYTE PTR akey$[rsp]
  001b9	88 44 24 20	 mov	 BYTE PTR [rsp+32], al
  001bd	44 8b 8c 24 80
	00 00 00	 mov	 r9d, DWORD PTR acctype$[rsp]
  001c5	4c 8b 44 24 78	 mov	 r8, QWORD PTR regs$[rsp]
  001ca	8b 54 24 70	 mov	 edx, DWORD PTR arn$[rsp]
  001ce	48 8b 4c 24 60	 mov	 rcx, QWORD PTR addr$[rsp]
  001d3	e8 00 00 00 00	 call	 z900_logical_to_main_l
  001d8	48 89 44 24 40	 mov	 QWORD PTR maddr$[rsp], rax
$LN10@z900_maddr:

; 371  : 
; 372  : #if defined( FEATURE_073_TRANSACT_EXEC_FACILITY )
; 373  :     if (FACILITY_ENABLED( 073_TRANSACT_EXEC, regs ))

  001dd	b8 01 00 00 00	 mov	 eax, 1
  001e2	48 6b c0 09	 imul	 rax, rax, 9
  001e6	48 8b 4c 24 78	 mov	 rcx, QWORD PTR regs$[rsp]
  001eb	0f b6 84 01 28
	0d 00 00	 movzx	 eax, BYTE PTR [rcx+rax+3368]
  001f3	83 e0 40	 and	 eax, 64			; 00000040H
  001f6	85 c0		 test	 eax, eax
  001f8	0f 84 89 00 00
	00		 je	 $LN11@z900_maddr

; 374  :     {
; 375  :         /* SA22-7832-12 Principles of Operation, page 5-99:
; 376  : 
; 377  :              "Storage accesses for instruction and DAT- and ART-
; 378  :               table fetches follow the non-transactional rules."
; 379  :         */
; 380  :         if (0
; 381  :             || !regs
; 382  :             || !regs->txf_tnd
; 383  :             || arn == USE_INST_SPACE    /* Instruction fetching */
; 384  :             || arn == USE_REAL_ADDR     /* Address translation  */

  001fe	33 c0		 xor	 eax, eax
  00200	85 c0		 test	 eax, eax
  00202	75 26		 jne	 SHORT $LN13@z900_maddr
  00204	48 83 7c 24 78
	00		 cmp	 QWORD PTR regs$[rsp], 0
  0020a	74 1e		 je	 SHORT $LN13@z900_maddr
  0020c	48 8b 44 24 78	 mov	 rax, QWORD PTR regs$[rsp]
  00211	0f b6 80 58 0e
	00 00		 movzx	 eax, BYTE PTR [rax+3672]
  00218	85 c0		 test	 eax, eax
  0021a	74 0e		 je	 SHORT $LN13@z900_maddr
  0021c	83 7c 24 70 ff	 cmp	 DWORD PTR arn$[rsp], -1
  00221	74 07		 je	 SHORT $LN13@z900_maddr
  00223	83 7c 24 70 fe	 cmp	 DWORD PTR arn$[rsp], -2
  00228	75 07		 jne	 SHORT $LN12@z900_maddr
$LN13@z900_maddr:

; 385  :         )
; 386  :             return maddr;

  0022a	48 8b 44 24 40	 mov	 rax, QWORD PTR maddr$[rsp]
  0022f	eb 5b		 jmp	 SHORT $LN1@z900_maddr
$LN12@z900_maddr:

; 387  : 
; 388  :         /* Quick exit if NTSTG call */
; 389  :         if (regs->txf_NTSTG)

  00231	48 8b 44 24 78	 mov	 rax, QWORD PTR regs$[rsp]
  00236	0f b6 80 4b 0e
	00 00		 movzx	 eax, BYTE PTR [rax+3659]
  0023d	85 c0		 test	 eax, eax
  0023f	74 13		 je	 SHORT $LN14@z900_maddr

; 390  :         {
; 391  :             regs->txf_NTSTG = false;

  00241	48 8b 44 24 78	 mov	 rax, QWORD PTR regs$[rsp]
  00246	c6 80 4b 0e 00
	00 00		 mov	 BYTE PTR [rax+3659], 0

; 392  :             return maddr;

  0024d	48 8b 44 24 40	 mov	 rax, QWORD PTR maddr$[rsp]
  00252	eb 38		 jmp	 SHORT $LN1@z900_maddr
$LN14@z900_maddr:

; 393  :         }
; 394  : 
; 395  :         /* Translate to alternate TXF address */
; 396  :         maddr = TXF_MADDRL( addr, len, arn, regs, acctype, maddr );

  00254	48 8b 44 24 40	 mov	 rax, QWORD PTR maddr$[rsp]
  00259	48 89 44 24 28	 mov	 QWORD PTR [rsp+40], rax
  0025e	8b 84 24 80 00
	00 00		 mov	 eax, DWORD PTR acctype$[rsp]
  00265	89 44 24 20	 mov	 DWORD PTR [rsp+32], eax
  00269	4c 8b 4c 24 78	 mov	 r9, QWORD PTR regs$[rsp]
  0026e	44 8b 44 24 70	 mov	 r8d, DWORD PTR arn$[rsp]
  00273	48 8b 54 24 68	 mov	 rdx, QWORD PTR len$[rsp]
  00278	48 8b 4c 24 60	 mov	 rcx, QWORD PTR addr$[rsp]
  0027d	e8 00 00 00 00	 call	 txf_maddr_l
  00282	48 89 44 24 40	 mov	 QWORD PTR maddr$[rsp], rax
$LN11@z900_maddr:

; 397  :     }
; 398  : #endif
; 399  : 
; 400  :     return maddr;

  00287	48 8b 44 24 40	 mov	 rax, QWORD PTR maddr$[rsp]
$LN1@z900_maddr:

; 401  : }

  0028c	48 83 c4 58	 add	 rsp, 88			; 00000058H
  00290	c3		 ret	 0
z900_maddr_l ENDP
_TEXT	ENDS
; Function compile flags: /Odtp
; File C:\papa\MyGit\hyperion-zvector\inline.h
;	COMDAT z900_per3_zero_xcheck2
_TEXT	SEGMENT
tv81 = 32
tv131 = 40
tv150 = 48
tv181 = 56
tv166 = 64
regs$ = 96
x2$ = 104
b2$ = 112
z900_per3_zero_xcheck2 PROC				; COMDAT

; 765  : {

$LN18:
  00000	44 89 44 24 18	 mov	 DWORD PTR [rsp+24], r8d
  00005	89 54 24 10	 mov	 DWORD PTR [rsp+16], edx
  00009	48 89 4c 24 08	 mov	 QWORD PTR [rsp+8], rcx
  0000e	48 83 ec 58	 sub	 rsp, 88			; 00000058H

; 766  : #if defined( FEATURE_PER_ZERO_ADDRESS_DETECTION_FACILITY )
; 767  :     if (0
; 768  :         || (!b2 && x2 && GR_A( x2, regs ) == 0)
; 769  :         || (!x2 && b2 && GR_A( b2, regs ) == 0)
; 770  :         || ( b2 && x2 && (0

  00012	33 c0		 xor	 eax, eax
  00014	85 c0		 test	 eax, eax
  00016	0f 85 ba 01 00
	00		 jne	 $LN3@z900_per3_
  0001c	83 7c 24 70 00	 cmp	 DWORD PTR b2$[rsp], 0
  00021	75 54		 jne	 SHORT $LN4@z900_per3_
  00023	83 7c 24 68 00	 cmp	 DWORD PTR x2$[rsp], 0
  00028	74 4d		 je	 SHORT $LN4@z900_per3_
  0002a	48 8b 44 24 60	 mov	 rax, QWORD PTR regs$[rsp]
  0002f	8b 80 80 00 00
	00		 mov	 eax, DWORD PTR [rax+128]
  00035	83 e0 01	 and	 eax, 1
  00038	85 c0		 test	 eax, eax
  0003a	74 19		 je	 SHORT $LN8@z900_per3_
  0003c	48 63 44 24 68	 movsxd	 rax, DWORD PTR x2$[rsp]
  00041	48 8b 4c 24 60	 mov	 rcx, QWORD PTR regs$[rsp]
  00046	48 8b 84 c1 80
	02 00 00	 mov	 rax, QWORD PTR [rcx+rax*8+640]
  0004e	48 89 44 24 20	 mov	 QWORD PTR tv81[rsp], rax
  00053	eb 16		 jmp	 SHORT $LN9@z900_per3_
$LN8@z900_per3_:
  00055	48 63 44 24 68	 movsxd	 rax, DWORD PTR x2$[rsp]
  0005a	48 8b 4c 24 60	 mov	 rcx, QWORD PTR regs$[rsp]
  0005f	8b 84 c1 80 02
	00 00		 mov	 eax, DWORD PTR [rcx+rax*8+640]
  00066	48 89 44 24 20	 mov	 QWORD PTR tv81[rsp], rax
$LN9@z900_per3_:
  0006b	48 83 7c 24 20
	00		 cmp	 QWORD PTR tv81[rsp], 0
  00071	0f 84 5f 01 00
	00		 je	 $LN3@z900_per3_
$LN4@z900_per3_:
  00077	83 7c 24 68 00	 cmp	 DWORD PTR x2$[rsp], 0
  0007c	75 54		 jne	 SHORT $LN5@z900_per3_
  0007e	83 7c 24 70 00	 cmp	 DWORD PTR b2$[rsp], 0
  00083	74 4d		 je	 SHORT $LN5@z900_per3_
  00085	48 8b 44 24 60	 mov	 rax, QWORD PTR regs$[rsp]
  0008a	8b 80 80 00 00
	00		 mov	 eax, DWORD PTR [rax+128]
  00090	83 e0 01	 and	 eax, 1
  00093	85 c0		 test	 eax, eax
  00095	74 19		 je	 SHORT $LN10@z900_per3_
  00097	48 63 44 24 70	 movsxd	 rax, DWORD PTR b2$[rsp]
  0009c	48 8b 4c 24 60	 mov	 rcx, QWORD PTR regs$[rsp]
  000a1	48 8b 84 c1 80
	02 00 00	 mov	 rax, QWORD PTR [rcx+rax*8+640]
  000a9	48 89 44 24 28	 mov	 QWORD PTR tv131[rsp], rax
  000ae	eb 16		 jmp	 SHORT $LN11@z900_per3_
$LN10@z900_per3_:
  000b0	48 63 44 24 70	 movsxd	 rax, DWORD PTR b2$[rsp]
  000b5	48 8b 4c 24 60	 mov	 rcx, QWORD PTR regs$[rsp]
  000ba	8b 84 c1 80 02
	00 00		 mov	 eax, DWORD PTR [rcx+rax*8+640]
  000c1	48 89 44 24 28	 mov	 QWORD PTR tv131[rsp], rax
$LN11@z900_per3_:
  000c6	48 83 7c 24 28
	00		 cmp	 QWORD PTR tv131[rsp], 0
  000cc	0f 84 04 01 00
	00		 je	 $LN3@z900_per3_
$LN5@z900_per3_:
  000d2	83 7c 24 70 00	 cmp	 DWORD PTR b2$[rsp], 0
  000d7	0f 84 03 01 00
	00		 je	 $LN2@z900_per3_
  000dd	83 7c 24 68 00	 cmp	 DWORD PTR x2$[rsp], 0
  000e2	0f 84 f8 00 00
	00		 je	 $LN2@z900_per3_
  000e8	33 c0		 xor	 eax, eax
  000ea	85 c0		 test	 eax, eax
  000ec	0f 85 e4 00 00
	00		 jne	 $LN6@z900_per3_
  000f2	48 8b 44 24 60	 mov	 rax, QWORD PTR regs$[rsp]
  000f7	8b 80 80 00 00
	00		 mov	 eax, DWORD PTR [rax+128]
  000fd	83 e0 01	 and	 eax, 1
  00100	85 c0		 test	 eax, eax
  00102	74 19		 je	 SHORT $LN12@z900_per3_
  00104	48 63 44 24 70	 movsxd	 rax, DWORD PTR b2$[rsp]
  00109	48 8b 4c 24 60	 mov	 rcx, QWORD PTR regs$[rsp]
  0010e	48 8b 84 c1 80
	02 00 00	 mov	 rax, QWORD PTR [rcx+rax*8+640]
  00116	48 89 44 24 30	 mov	 QWORD PTR tv150[rsp], rax
  0011b	eb 16		 jmp	 SHORT $LN13@z900_per3_
$LN12@z900_per3_:
  0011d	48 63 44 24 70	 movsxd	 rax, DWORD PTR b2$[rsp]
  00122	48 8b 4c 24 60	 mov	 rcx, QWORD PTR regs$[rsp]
  00127	8b 84 c1 80 02
	00 00		 mov	 eax, DWORD PTR [rcx+rax*8+640]
  0012e	48 89 44 24 30	 mov	 QWORD PTR tv150[rsp], rax
$LN13@z900_per3_:
  00133	48 83 7c 24 30
	00		 cmp	 QWORD PTR tv150[rsp], 0
  00139	0f 84 97 00 00
	00		 je	 $LN6@z900_per3_
  0013f	48 8b 44 24 60	 mov	 rax, QWORD PTR regs$[rsp]
  00144	8b 80 80 00 00
	00		 mov	 eax, DWORD PTR [rax+128]
  0014a	83 e0 01	 and	 eax, 1
  0014d	85 c0		 test	 eax, eax
  0014f	74 19		 je	 SHORT $LN14@z900_per3_
  00151	48 63 44 24 70	 movsxd	 rax, DWORD PTR b2$[rsp]
  00156	48 8b 4c 24 60	 mov	 rcx, QWORD PTR regs$[rsp]
  0015b	48 8b 84 c1 80
	02 00 00	 mov	 rax, QWORD PTR [rcx+rax*8+640]
  00163	48 89 44 24 40	 mov	 QWORD PTR tv166[rsp], rax
  00168	eb 16		 jmp	 SHORT $LN15@z900_per3_
$LN14@z900_per3_:
  0016a	48 63 44 24 70	 movsxd	 rax, DWORD PTR b2$[rsp]
  0016f	48 8b 4c 24 60	 mov	 rcx, QWORD PTR regs$[rsp]
  00174	8b 84 c1 80 02
	00 00		 mov	 eax, DWORD PTR [rcx+rax*8+640]
  0017b	48 89 44 24 40	 mov	 QWORD PTR tv166[rsp], rax
$LN15@z900_per3_:
  00180	48 8b 44 24 60	 mov	 rax, QWORD PTR regs$[rsp]
  00185	8b 80 80 00 00
	00		 mov	 eax, DWORD PTR [rax+128]
  0018b	83 e0 01	 and	 eax, 1
  0018e	85 c0		 test	 eax, eax
  00190	74 19		 je	 SHORT $LN16@z900_per3_
  00192	48 63 44 24 68	 movsxd	 rax, DWORD PTR x2$[rsp]
  00197	48 8b 4c 24 60	 mov	 rcx, QWORD PTR regs$[rsp]
  0019c	48 8b 84 c1 80
	02 00 00	 mov	 rax, QWORD PTR [rcx+rax*8+640]
  001a4	48 89 44 24 38	 mov	 QWORD PTR tv181[rsp], rax
  001a9	eb 16		 jmp	 SHORT $LN17@z900_per3_
$LN16@z900_per3_:
  001ab	48 63 44 24 68	 movsxd	 rax, DWORD PTR x2$[rsp]
  001b0	48 8b 4c 24 60	 mov	 rcx, QWORD PTR regs$[rsp]
  001b5	8b 84 c1 80 02
	00 00		 mov	 eax, DWORD PTR [rcx+rax*8+640]
  001bc	48 89 44 24 38	 mov	 QWORD PTR tv181[rsp], rax
$LN17@z900_per3_:
  001c1	48 8b 44 24 38	 mov	 rax, QWORD PTR tv181[rsp]
  001c6	48 8b 4c 24 40	 mov	 rcx, QWORD PTR tv166[rsp]
  001cb	48 03 c8	 add	 rcx, rax
  001ce	48 8b c1	 mov	 rax, rcx
  001d1	48 85 c0	 test	 rax, rax
  001d4	75 0a		 jne	 SHORT $LN2@z900_per3_
$LN6@z900_per3_:
$LN3@z900_per3_:

; 771  :                           || GR_A( b2, regs ) == 0
; 772  :                           || GR_A( b2, regs ) + GR_A( x2, regs ) == 0
; 773  :                          )
; 774  :            )
; 775  :     )
; 776  :         ARCH_DEP( per3_zero )( regs );

  001d6	48 8b 4c 24 60	 mov	 rcx, QWORD PTR regs$[rsp]
  001db	e8 00 00 00 00	 call	 z900_per3_zero
$LN2@z900_per3_:

; 777  : #else
; 778  :     UNREFERENCED( regs );
; 779  :     UNREFERENCED( x2 );
; 780  :     UNREFERENCED( b2 );
; 781  : #endif
; 782  : }

  001e0	48 83 c4 58	 add	 rsp, 88			; 00000058H
  001e4	c3		 ret	 0
z900_per3_zero_xcheck2 ENDP
_TEXT	ENDS
; Function compile flags: /Odtp
; File C:\papa\MyGit\hyperion-zvector\inline.h
;	COMDAT z900_per3_zero
_TEXT	SEGMENT
tv75 = 32
regs$ = 64
z900_per3_zero PROC					; COMDAT

; 602  : {

$LN12:
  00000	48 89 4c 24 08	 mov	 QWORD PTR [rsp+8], rcx
  00005	48 83 ec 38	 sub	 rsp, 56			; 00000038H

; 603  : #if defined( FEATURE_PER_ZERO_ADDRESS_DETECTION_FACILITY )
; 604  :     if (1
; 605  :         && EN_IC_PER_ZEROADDR( regs )
; 606  :         && !IS_PER_SUPRESS( regs, CR9_ZEROADDR )

  00009	33 c0		 xor	 eax, eax
  0000b	83 f8 01	 cmp	 eax, 1
  0000e	0f 84 be 00 00
	00		 je	 $LN5@z900_per3_
  00014	48 8b 44 24 40	 mov	 rax, QWORD PTR regs$[rsp]
  00019	8b 80 28 07 00
	00		 mov	 eax, DWORD PTR [rax+1832]
  0001f	c1 e8 02	 shr	 eax, 2
  00022	83 e0 01	 and	 eax, 1
  00025	85 c0		 test	 eax, eax
  00027	74 0a		 je	 SHORT $LN10@z900_per3_
  00029	c7 44 24 20 01
	00 00 00	 mov	 DWORD PTR tv75[rsp], 1
  00031	eb 08		 jmp	 SHORT $LN11@z900_per3_
$LN10@z900_per3_:
  00033	c7 44 24 20 00
	00 00 00	 mov	 DWORD PTR tv75[rsp], 0
$LN11@z900_per3_:
  0003b	83 7c 24 20 00	 cmp	 DWORD PTR tv75[rsp], 0
  00040	0f 84 8c 00 00
	00		 je	 $LN5@z900_per3_
  00046	48 8b 44 24 40	 mov	 rax, QWORD PTR regs$[rsp]
  0004b	8b 40 48	 mov	 eax, DWORD PTR [rax+72]
  0004e	25 00 00 04 00	 and	 eax, 262144		; 00040000H
  00053	85 c0		 test	 eax, eax
  00055	74 7b		 je	 SHORT $LN5@z900_per3_
  00057	ba 00 00 00 04	 mov	 edx, 67108864		; 04000000H
  0005c	48 8b 4c 24 40	 mov	 rcx, QWORD PTR regs$[rsp]
  00061	e8 00 00 00 00	 call	 z900_is_per3_event_suppressed
  00066	0f b6 c0	 movzx	 eax, al
  00069	85 c0		 test	 eax, eax
  0006b	75 65		 jne	 SHORT $LN5@z900_per3_

; 607  :     )
; 608  :     {
; 609  :         regs->peradr = regs->periaddr;

  0006d	48 8b 44 24 40	 mov	 rax, QWORD PTR regs$[rsp]
  00072	48 8b 4c 24 40	 mov	 rcx, QWORD PTR regs$[rsp]
  00077	48 8b 89 e8 08
	00 00		 mov	 rcx, QWORD PTR [rcx+2280]
  0007e	48 89 88 d8 08
	00 00		 mov	 QWORD PTR [rax+2264], rcx
$LN4@z900_per3_:

; 610  :         ON_IC_PER_ZEROADDR( regs );

  00085	48 8b 44 24 40	 mov	 rax, QWORD PTR regs$[rsp]
  0008a	8b 40 4c	 mov	 eax, DWORD PTR [rax+76]
  0008d	0f ba e8 12	 bts	 eax, 18
  00091	48 8b 4c 24 40	 mov	 rcx, QWORD PTR regs$[rsp]
  00096	89 41 4c	 mov	 DWORD PTR [rcx+76], eax
  00099	33 c0		 xor	 eax, eax
  0009b	85 c0		 test	 eax, eax
  0009d	75 e6		 jne	 SHORT $LN4@z900_per3_

; 611  :         if (OPEN_IC_PER_ZEROADDR( regs ))

  0009f	48 8b 44 24 40	 mov	 rax, QWORD PTR regs$[rsp]
  000a4	48 8b 4c 24 40	 mov	 rcx, QWORD PTR regs$[rsp]
  000a9	8b 49 4c	 mov	 ecx, DWORD PTR [rcx+76]
  000ac	8b 40 48	 mov	 eax, DWORD PTR [rax+72]
  000af	23 c1		 and	 eax, ecx
  000b1	25 00 00 04 00	 and	 eax, 262144		; 00040000H
  000b6	85 c0		 test	 eax, eax
  000b8	74 18		 je	 SHORT $LN6@z900_per3_

; 612  :             RETURN_INTCHECK( regs );

  000ba	48 8b 44 24 40	 mov	 rax, QWORD PTR regs$[rsp]
  000bf	48 05 80 09 00
	00		 add	 rax, 2432		; 00000980H
  000c5	ba ff ff ff ff	 mov	 edx, -1
  000ca	48 8b c8	 mov	 rcx, rax
  000cd	e8 00 00 00 00	 call	 longjmp
$LN6@z900_per3_:
$LN5@z900_per3_:
$LN7@z900_per3_:

; 613  :     }
; 614  : #else
; 615  :     UNREFERENCED( regs );
; 616  : #endif
; 617  : }

  000d2	48 83 c4 38	 add	 rsp, 56			; 00000038H
  000d6	c3		 ret	 0
z900_per3_zero ENDP
_TEXT	ENDS
; Function compile flags: /Odtp
; File C:\papa\MyGit\hyperion-zvector\inline.h
;	COMDAT z900_is_per3_event_suppressed
_TEXT	SEGMENT
regs$ = 8
cr9_per_event$ = 16
z900_is_per3_event_suppressed PROC			; COMDAT

; 566  : {

  00000	89 54 24 10	 mov	 DWORD PTR [rsp+16], edx
  00004	48 89 4c 24 08	 mov	 QWORD PTR [rsp+8], rcx

; 567  : #if !defined( FEATURE_PER3 )
; 568  :     UNREFERENCED( regs );
; 569  :     UNREFERENCED( cr9_per_event );
; 570  : #else
; 571  :     /* DON'T suppress this event if Event Suppression isn't enabled */
; 572  :     if (!(regs->CR_L(9) & CR9_SUPPRESS))

  00009	b8 08 00 00 00	 mov	 eax, 8
  0000e	48 6b c0 0a	 imul	 rax, rax, 10
  00012	48 8b 4c 24 08	 mov	 rcx, QWORD PTR regs$[rsp]
  00017	8b 84 01 00 06
	00 00		 mov	 eax, DWORD PTR [rcx+rax+1536]
  0001e	25 00 00 40 00	 and	 eax, 4194304		; 00400000H
  00023	85 c0		 test	 eax, eax
  00025	75 04		 jne	 SHORT $LN2@z900_is_pe

; 573  :         return false;

  00027	32 c0		 xor	 al, al
  00029	eb 78		 jmp	 SHORT $LN1@z900_is_pe
$LN2@z900_is_pe:

; 574  : 
; 575  :     /* Is this PER event one that is ALLOWED to be suppressed? */
; 576  :     if (cr9_per_event & CR9_SUPPRESSABLE)

  0002b	8b 44 24 10	 mov	 eax, DWORD PTR cr9_per_event$[rsp]
  0002f	25 00 00 00 ed	 and	 eax, -318767104		; ed000000H
  00034	85 c0		 test	 eax, eax
  00036	74 69		 je	 SHORT $LN3@z900_is_pe

; 577  :     {
; 578  :         /* Is there an active transaction? */
; 579  :         if (regs->txf_tnd)

  00038	48 8b 44 24 08	 mov	 rax, QWORD PTR regs$[rsp]
  0003d	0f b6 80 58 0e
	00 00		 movzx	 eax, BYTE PTR [rax+3672]
  00044	85 c0		 test	 eax, eax
  00046	74 04		 je	 SHORT $LN4@z900_is_pe

; 580  :             return true;        /* Yes, then suppress it! */

  00048	b0 01		 mov	 al, 1
  0004a	eb 57		 jmp	 SHORT $LN1@z900_is_pe
$LN4@z900_is_pe:

; 581  : 
; 582  :         /* Suppress instruction-fetch events for TBEGIN/TBEGINC */
; 583  :         if (1
; 584  :             && cr9_per_event & CR9_IF
; 585  :             && *(regs->ip+0) == 0xE5
; 586  :             && (0

  0004c	33 c0		 xor	 eax, eax
  0004e	83 f8 01	 cmp	 eax, 1
  00051	74 4e		 je	 SHORT $LN5@z900_is_pe
  00053	8b 44 24 10	 mov	 eax, DWORD PTR cr9_per_event$[rsp]
  00057	25 00 00 00 40	 and	 eax, 1073741824		; 40000000H
  0005c	85 c0		 test	 eax, eax
  0005e	74 41		 je	 SHORT $LN5@z900_is_pe
  00060	48 8b 44 24 08	 mov	 rax, QWORD PTR regs$[rsp]
  00065	48 8b 40 68	 mov	 rax, QWORD PTR [rax+104]
  00069	0f b6 00	 movzx	 eax, BYTE PTR [rax]
  0006c	3d e5 00 00 00	 cmp	 eax, 229		; 000000e5H
  00071	75 2e		 jne	 SHORT $LN5@z900_is_pe
  00073	33 c0		 xor	 eax, eax
  00075	85 c0		 test	 eax, eax
  00077	75 24		 jne	 SHORT $LN6@z900_is_pe
  00079	48 8b 44 24 08	 mov	 rax, QWORD PTR regs$[rsp]
  0007e	48 8b 40 68	 mov	 rax, QWORD PTR [rax+104]
  00082	0f b6 40 01	 movzx	 eax, BYTE PTR [rax+1]
  00086	83 f8 60	 cmp	 eax, 96			; 00000060H
  00089	74 12		 je	 SHORT $LN6@z900_is_pe
  0008b	48 8b 44 24 08	 mov	 rax, QWORD PTR regs$[rsp]
  00090	48 8b 40 68	 mov	 rax, QWORD PTR [rax+104]
  00094	0f b6 40 01	 movzx	 eax, BYTE PTR [rax+1]
  00098	83 f8 61	 cmp	 eax, 97			; 00000061H
  0009b	75 04		 jne	 SHORT $LN5@z900_is_pe
$LN6@z900_is_pe:

; 587  :                 || *(regs->ip+1) == 0x60
; 588  :                 || *(regs->ip+1) == 0x61
; 589  :                )
; 590  :         )
; 591  :             return true;        /* TBEGIN/TBEGINC: suppress it! */

  0009d	b0 01		 mov	 al, 1
  0009f	eb 02		 jmp	 SHORT $LN1@z900_is_pe
$LN5@z900_is_pe:
$LN3@z900_is_pe:

; 592  :     }
; 593  : #endif
; 594  :     /* Otherwise DON'T suppress this PER event */
; 595  :     return false;

  000a1	32 c0		 xor	 al, al
$LN1@z900_is_pe:

; 596  : }

  000a3	c3		 ret	 0
z900_is_per3_event_suppressed ENDP
_TEXT	ENDS
; Function compile flags: /Odtp
; File C:\papa\MyGit\hyperion-zvector\ieee.c
_TEXT	SEGMENT
temp$1 = 64
r2$ = 68
m3$ = 72
r1$ = 76
fract$ = 80
op1$ = 88
__$ArrayPad$ = 104
inst$ = 128
regs$ = 136
z900_convert_float_long_to_bfp_short_reg PROC

; 1172 : {

$LN15:
  00000	48 89 54 24 10	 mov	 QWORD PTR [rsp+16], rdx
  00005	48 89 4c 24 08	 mov	 QWORD PTR [rsp+8], rcx
  0000a	48 83 ec 78	 sub	 rsp, 120		; 00000078H
  0000e	48 8b 05 00 00
	00 00		 mov	 rax, QWORD PTR __security_cookie
  00015	48 33 c4	 xor	 rax, rsp
  00018	48 89 44 24 68	 mov	 QWORD PTR __$ArrayPad$[rsp], rax

; 1173 :     int r1, r2, m3;
; 1174 :     struct sbfp op1;
; 1175 :     U64 fract;
; 1176 : 
; 1177 :     RRF_M(inst, regs, r1, r2, m3);

  0001d	48 8b 8c 24 80
	00 00 00	 mov	 rcx, QWORD PTR inst$[rsp]
  00025	e8 00 00 00 00	 call	 fetch_fw_noswap
  0002a	8b c8		 mov	 ecx, eax
  0002c	e8 00 00 00 00	 call	 _byteswap_ulong
  00031	89 44 24 40	 mov	 DWORD PTR temp$1[rsp], eax
  00035	8b 44 24 40	 mov	 eax, DWORD PTR temp$1[rsp]
  00039	83 e0 0f	 and	 eax, 15
  0003c	89 44 24 44	 mov	 DWORD PTR r2$[rsp], eax
  00040	8b 44 24 40	 mov	 eax, DWORD PTR temp$1[rsp]
  00044	c1 e8 04	 shr	 eax, 4
  00047	83 e0 0f	 and	 eax, 15
  0004a	89 44 24 4c	 mov	 DWORD PTR r1$[rsp], eax
  0004e	8b 44 24 40	 mov	 eax, DWORD PTR temp$1[rsp]
  00052	c1 e8 0c	 shr	 eax, 12
  00055	83 e0 0f	 and	 eax, 15
  00058	89 44 24 48	 mov	 DWORD PTR m3$[rsp], eax
$LN4@z900_conve:
  0005c	48 8b 84 24 88
	00 00 00	 mov	 rax, QWORD PTR regs$[rsp]
  00064	48 8b 40 68	 mov	 rax, QWORD PTR [rax+104]
  00068	48 83 c0 04	 add	 rax, 4
  0006c	48 8b 8c 24 88
	00 00 00	 mov	 rcx, QWORD PTR regs$[rsp]
  00074	48 89 41 68	 mov	 QWORD PTR [rcx+104], rax
  00078	33 c0		 xor	 eax, eax
  0007a	83 f8 04	 cmp	 eax, 4
  0007d	74 0f		 je	 SHORT $LN8@z900_conve
  0007f	48 8b 84 24 88
	00 00 00	 mov	 rax, QWORD PTR regs$[rsp]
  00087	c6 80 9a 00 00
	00 04		 mov	 BYTE PTR [rax+154], 4
$LN8@z900_conve:
  0008e	33 c0		 xor	 eax, eax
  00090	85 c0		 test	 eax, eax
  00092	75 c8		 jne	 SHORT $LN4@z900_conve
$LN7@z900_conve:

; 1178 :     TXFC_INSTR_CHECK( regs );

  00094	48 8b 84 24 88
	00 00 00	 mov	 rax, QWORD PTR regs$[rsp]
  0009c	0f b6 80 4c 0e
	00 00		 movzx	 eax, BYTE PTR [rax+3660]
  000a3	85 c0		 test	 eax, eax
  000a5	74 3f		 je	 SHORT $LN9@z900_conve
  000a7	48 8b 84 24 88
	00 00 00	 mov	 rax, QWORD PTR regs$[rsp]
  000af	8b 80 84 af 00
	00		 mov	 eax, DWORD PTR [rax+44932]
  000b5	0f ba e8 0f	 bts	 eax, 15
  000b9	48 8b 8c 24 88
	00 00 00	 mov	 rcx, QWORD PTR regs$[rsp]
  000c1	89 81 84 af 00
	00		 mov	 DWORD PTR [rcx+44932], eax
  000c7	4c 8d 0d 00 00
	00 00		 lea	 r9, OFFSET FLAT:$SG198432
  000ce	41 b8 0b 00 00
	00		 mov	 r8d, 11
  000d4	ba 02 00 00 00	 mov	 edx, 2
  000d9	48 8b 8c 24 88
	00 00 00	 mov	 rcx, QWORD PTR regs$[rsp]
  000e1	e8 00 00 00 00	 call	 z900_abort_transaction
$LN9@z900_conve:
  000e6	33 c0		 xor	 eax, eax
  000e8	85 c0		 test	 eax, eax
  000ea	75 a8		 jne	 SHORT $LN7@z900_conve

; 1179 :     //logmsg("TBEDR r1=%d r2=%d\n", r1, r2);
; 1180 :     HFPREG2_CHECK(r1, r2, regs);

  000ec	b8 08 00 00 00	 mov	 eax, 8
  000f1	48 6b c0 01	 imul	 rax, rax, 1
  000f5	48 8b 8c 24 88
	00 00 00	 mov	 rcx, QWORD PTR regs$[rsp]
  000fd	48 8b 84 01 00
	06 00 00	 mov	 rax, QWORD PTR [rcx+rax+1536]
  00105	48 25 00 00 04
	00		 and	 rax, 262144		; 00040000H
  0010b	48 85 c0	 test	 rax, rax
  0010e	74 42		 je	 SHORT $LN11@z900_conve
  00110	48 8b 84 24 88
	00 00 00	 mov	 rax, QWORD PTR regs$[rsp]
  00118	8b 80 c8 08 00
	00		 mov	 eax, DWORD PTR [rax+2248]
  0011e	d1 e8		 shr	 eax, 1
  00120	83 e0 01	 and	 eax, 1
  00123	85 c0		 test	 eax, eax
  00125	74 6e		 je	 SHORT $LN10@z900_conve
  00127	48 8b 84 24 88
	00 00 00	 mov	 rax, QWORD PTR regs$[rsp]
  0012f	48 8b 80 68 08
	00 00		 mov	 rax, QWORD PTR [rax+2152]
  00136	b9 08 00 00 00	 mov	 ecx, 8
  0013b	48 6b c9 01	 imul	 rcx, rcx, 1
  0013f	48 8b 84 08 00
	06 00 00	 mov	 rax, QWORD PTR [rax+rcx+1536]
  00147	48 25 00 00 04
	00		 and	 rax, 262144		; 00040000H
  0014d	48 85 c0	 test	 rax, rax
  00150	75 43		 jne	 SHORT $LN10@z900_conve
$LN11@z900_conve:
  00152	8b 44 24 4c	 mov	 eax, DWORD PTR r1$[rsp]
  00156	83 e0 09	 and	 eax, 9
  00159	85 c0		 test	 eax, eax
  0015b	75 0b		 jne	 SHORT $LN13@z900_conve
  0015d	8b 44 24 44	 mov	 eax, DWORD PTR r2$[rsp]
  00161	83 e0 09	 and	 eax, 9
  00164	85 c0		 test	 eax, eax
  00166	74 2d		 je	 SHORT $LN12@z900_conve
$LN13@z900_conve:
  00168	48 8b 84 24 88
	00 00 00	 mov	 rax, QWORD PTR regs$[rsp]
  00170	c7 80 08 07 00
	00 01 00 00 00	 mov	 DWORD PTR [rax+1800], 1
  0017a	ba 07 00 00 00	 mov	 edx, 7
  0017f	48 8b 8c 24 88
	00 00 00	 mov	 rcx, QWORD PTR regs$[rsp]
  00187	48 8b 84 24 88
	00 00 00	 mov	 rax, QWORD PTR regs$[rsp]
  0018f	ff 90 20 0d 00
	00		 call	 QWORD PTR [rax+3360]
$LN12@z900_conve:
$LN10@z900_conve:

; 1181 :     BFPRM_CHECK(m3,regs);

  00195	0f b6 54 24 48	 movzx	 edx, BYTE PTR m3$[rsp]
  0019a	48 8b 8c 24 88
	00 00 00	 mov	 rcx, QWORD PTR regs$[rsp]
  001a2	e8 00 00 00 00	 call	 z900_BFP_RM_check

; 1182 : 
; 1183 :     regs->psw.cc =

  001a7	8b 44 24 44	 mov	 eax, DWORD PTR r2$[rsp]
  001ab	d1 e0		 shl	 eax, 1
  001ad	48 98		 cdqe
  001af	48 8b 8c 24 88
	00 00 00	 mov	 rcx, QWORD PTR regs$[rsp]
  001b7	48 8d 84 81 40
	03 00 00	 lea	 rax, QWORD PTR [rcx+rax*4+832]
  001bf	48 8d 4c 24 50	 lea	 rcx, QWORD PTR fract$[rsp]
  001c4	48 89 4c 24 38	 mov	 QWORD PTR [rsp+56], rcx
  001c9	48 8d 4c 24 5c	 lea	 rcx, QWORD PTR op1$[rsp+4]
  001ce	48 89 4c 24 30	 mov	 QWORD PTR [rsp+48], rcx
  001d3	48 8d 4c 24 58	 lea	 rcx, QWORD PTR op1$[rsp]
  001d8	48 89 4c 24 28	 mov	 QWORD PTR [rsp+40], rcx
  001dd	c7 44 24 20 7f
	00 00 00	 mov	 DWORD PTR [rsp+32], 127	; 0000007fH
  001e5	41 b9 7f 00 00
	00		 mov	 r9d, 127		; 0000007fH
  001eb	41 b8 17 00 00
	00		 mov	 r8d, 23
  001f1	8b 54 24 48	 mov	 edx, DWORD PTR m3$[rsp]
  001f5	48 8b c8	 mov	 rcx, rax
  001f8	e8 00 00 00 00	 call	 cnvt_hfp_to_bfp
  001fd	48 8b 8c 24 88
	00 00 00	 mov	 rcx, QWORD PTR regs$[rsp]
  00205	88 41 7c	 mov	 BYTE PTR [rcx+124], al

; 1184 :         cnvt_hfp_to_bfp (regs->fpr + FPR2I(r2), m3,
; 1185 :             /*fractbits*/23, /*emax*/127, /*ebias*/127,
; 1186 :             &(op1.sign), &(op1.exp), &fract);
; 1187 :     op1.fract = (U32)fract;

  00208	8b 44 24 50	 mov	 eax, DWORD PTR fract$[rsp]
  0020c	89 44 24 60	 mov	 DWORD PTR op1$[rsp+8], eax

; 1188 : 
; 1189 :     put_sbfp(&op1, regs->fpr + FPR2I(r1));

  00210	8b 44 24 4c	 mov	 eax, DWORD PTR r1$[rsp]
  00214	d1 e0		 shl	 eax, 1
  00216	48 98		 cdqe
  00218	48 8b 8c 24 88
	00 00 00	 mov	 rcx, QWORD PTR regs$[rsp]
  00220	48 8d 84 81 40
	03 00 00	 lea	 rax, QWORD PTR [rcx+rax*4+832]
  00228	48 8b d0	 mov	 rdx, rax
  0022b	48 8d 4c 24 58	 lea	 rcx, QWORD PTR op1$[rsp]
  00230	e8 00 00 00 00	 call	 put_sbfp

; 1190 : 
; 1191 : } /* end DEF_INST(convert_float_long_to_bfp_short_reg) */

  00235	48 8b 4c 24 68	 mov	 rcx, QWORD PTR __$ArrayPad$[rsp]
  0023a	48 33 cc	 xor	 rcx, rsp
  0023d	e8 00 00 00 00	 call	 __security_check_cookie
  00242	48 83 c4 78	 add	 rsp, 120		; 00000078H
  00246	c3		 ret	 0
z900_convert_float_long_to_bfp_short_reg ENDP
_TEXT	ENDS
; Function compile flags: /Odtp
; File C:\papa\MyGit\hyperion-zvector\ieee.c
_TEXT	SEGMENT
temp$1 = 64
r2$ = 68
m3$ = 72
r1$ = 76
op1$ = 80
__$ArrayPad$ = 104
inst$ = 128
regs$ = 136
z900_convert_float_long_to_bfp_long_reg PROC

; 1149 : {

$LN15:
  00000	48 89 54 24 10	 mov	 QWORD PTR [rsp+16], rdx
  00005	48 89 4c 24 08	 mov	 QWORD PTR [rsp+8], rcx
  0000a	48 83 ec 78	 sub	 rsp, 120		; 00000078H
  0000e	48 8b 05 00 00
	00 00		 mov	 rax, QWORD PTR __security_cookie
  00015	48 33 c4	 xor	 rax, rsp
  00018	48 89 44 24 68	 mov	 QWORD PTR __$ArrayPad$[rsp], rax

; 1150 :     int r1, r2, m3;
; 1151 :     struct lbfp op1;
; 1152 : 
; 1153 :     RRF_M(inst, regs, r1, r2, m3);

  0001d	48 8b 8c 24 80
	00 00 00	 mov	 rcx, QWORD PTR inst$[rsp]
  00025	e8 00 00 00 00	 call	 fetch_fw_noswap
  0002a	8b c8		 mov	 ecx, eax
  0002c	e8 00 00 00 00	 call	 _byteswap_ulong
  00031	89 44 24 40	 mov	 DWORD PTR temp$1[rsp], eax
  00035	8b 44 24 40	 mov	 eax, DWORD PTR temp$1[rsp]
  00039	83 e0 0f	 and	 eax, 15
  0003c	89 44 24 44	 mov	 DWORD PTR r2$[rsp], eax
  00040	8b 44 24 40	 mov	 eax, DWORD PTR temp$1[rsp]
  00044	c1 e8 04	 shr	 eax, 4
  00047	83 e0 0f	 and	 eax, 15
  0004a	89 44 24 4c	 mov	 DWORD PTR r1$[rsp], eax
  0004e	8b 44 24 40	 mov	 eax, DWORD PTR temp$1[rsp]
  00052	c1 e8 0c	 shr	 eax, 12
  00055	83 e0 0f	 and	 eax, 15
  00058	89 44 24 48	 mov	 DWORD PTR m3$[rsp], eax
$LN4@z900_conve:
  0005c	48 8b 84 24 88
	00 00 00	 mov	 rax, QWORD PTR regs$[rsp]
  00064	48 8b 40 68	 mov	 rax, QWORD PTR [rax+104]
  00068	48 83 c0 04	 add	 rax, 4
  0006c	48 8b 8c 24 88
	00 00 00	 mov	 rcx, QWORD PTR regs$[rsp]
  00074	48 89 41 68	 mov	 QWORD PTR [rcx+104], rax
  00078	33 c0		 xor	 eax, eax
  0007a	83 f8 04	 cmp	 eax, 4
  0007d	74 0f		 je	 SHORT $LN8@z900_conve
  0007f	48 8b 84 24 88
	00 00 00	 mov	 rax, QWORD PTR regs$[rsp]
  00087	c6 80 9a 00 00
	00 04		 mov	 BYTE PTR [rax+154], 4
$LN8@z900_conve:
  0008e	33 c0		 xor	 eax, eax
  00090	85 c0		 test	 eax, eax
  00092	75 c8		 jne	 SHORT $LN4@z900_conve
$LN7@z900_conve:

; 1154 :     TXFC_INSTR_CHECK( regs );

  00094	48 8b 84 24 88
	00 00 00	 mov	 rax, QWORD PTR regs$[rsp]
  0009c	0f b6 80 4c 0e
	00 00		 movzx	 eax, BYTE PTR [rax+3660]
  000a3	85 c0		 test	 eax, eax
  000a5	74 3f		 je	 SHORT $LN9@z900_conve
  000a7	48 8b 84 24 88
	00 00 00	 mov	 rax, QWORD PTR regs$[rsp]
  000af	8b 80 84 af 00
	00		 mov	 eax, DWORD PTR [rax+44932]
  000b5	0f ba e8 0f	 bts	 eax, 15
  000b9	48 8b 8c 24 88
	00 00 00	 mov	 rcx, QWORD PTR regs$[rsp]
  000c1	89 81 84 af 00
	00		 mov	 DWORD PTR [rcx+44932], eax
  000c7	4c 8d 0d 00 00
	00 00		 lea	 r9, OFFSET FLAT:$SG198407
  000ce	41 b8 0b 00 00
	00		 mov	 r8d, 11
  000d4	ba 02 00 00 00	 mov	 edx, 2
  000d9	48 8b 8c 24 88
	00 00 00	 mov	 rcx, QWORD PTR regs$[rsp]
  000e1	e8 00 00 00 00	 call	 z900_abort_transaction
$LN9@z900_conve:
  000e6	33 c0		 xor	 eax, eax
  000e8	85 c0		 test	 eax, eax
  000ea	75 a8		 jne	 SHORT $LN7@z900_conve

; 1155 :     //logmsg("TBDR r1=%d r2=%d\n", r1, r2);
; 1156 :     HFPREG2_CHECK(r1, r2, regs);

  000ec	b8 08 00 00 00	 mov	 eax, 8
  000f1	48 6b c0 01	 imul	 rax, rax, 1
  000f5	48 8b 8c 24 88
	00 00 00	 mov	 rcx, QWORD PTR regs$[rsp]
  000fd	48 8b 84 01 00
	06 00 00	 mov	 rax, QWORD PTR [rcx+rax+1536]
  00105	48 25 00 00 04
	00		 and	 rax, 262144		; 00040000H
  0010b	48 85 c0	 test	 rax, rax
  0010e	74 42		 je	 SHORT $LN11@z900_conve
  00110	48 8b 84 24 88
	00 00 00	 mov	 rax, QWORD PTR regs$[rsp]
  00118	8b 80 c8 08 00
	00		 mov	 eax, DWORD PTR [rax+2248]
  0011e	d1 e8		 shr	 eax, 1
  00120	83 e0 01	 and	 eax, 1
  00123	85 c0		 test	 eax, eax
  00125	74 6e		 je	 SHORT $LN10@z900_conve
  00127	48 8b 84 24 88
	00 00 00	 mov	 rax, QWORD PTR regs$[rsp]
  0012f	48 8b 80 68 08
	00 00		 mov	 rax, QWORD PTR [rax+2152]
  00136	b9 08 00 00 00	 mov	 ecx, 8
  0013b	48 6b c9 01	 imul	 rcx, rcx, 1
  0013f	48 8b 84 08 00
	06 00 00	 mov	 rax, QWORD PTR [rax+rcx+1536]
  00147	48 25 00 00 04
	00		 and	 rax, 262144		; 00040000H
  0014d	48 85 c0	 test	 rax, rax
  00150	75 43		 jne	 SHORT $LN10@z900_conve
$LN11@z900_conve:
  00152	8b 44 24 4c	 mov	 eax, DWORD PTR r1$[rsp]
  00156	83 e0 09	 and	 eax, 9
  00159	85 c0		 test	 eax, eax
  0015b	75 0b		 jne	 SHORT $LN13@z900_conve
  0015d	8b 44 24 44	 mov	 eax, DWORD PTR r2$[rsp]
  00161	83 e0 09	 and	 eax, 9
  00164	85 c0		 test	 eax, eax
  00166	74 2d		 je	 SHORT $LN12@z900_conve
$LN13@z900_conve:
  00168	48 8b 84 24 88
	00 00 00	 mov	 rax, QWORD PTR regs$[rsp]
  00170	c7 80 08 07 00
	00 01 00 00 00	 mov	 DWORD PTR [rax+1800], 1
  0017a	ba 07 00 00 00	 mov	 edx, 7
  0017f	48 8b 8c 24 88
	00 00 00	 mov	 rcx, QWORD PTR regs$[rsp]
  00187	48 8b 84 24 88
	00 00 00	 mov	 rax, QWORD PTR regs$[rsp]
  0018f	ff 90 20 0d 00
	00		 call	 QWORD PTR [rax+3360]
$LN12@z900_conve:
$LN10@z900_conve:

; 1157 :     BFPRM_CHECK(m3,regs);

  00195	0f b6 54 24 48	 movzx	 edx, BYTE PTR m3$[rsp]
  0019a	48 8b 8c 24 88
	00 00 00	 mov	 rcx, QWORD PTR regs$[rsp]
  001a2	e8 00 00 00 00	 call	 z900_BFP_RM_check

; 1158 : 
; 1159 :     regs->psw.cc =

  001a7	8b 44 24 44	 mov	 eax, DWORD PTR r2$[rsp]
  001ab	d1 e0		 shl	 eax, 1
  001ad	48 98		 cdqe
  001af	48 8b 8c 24 88
	00 00 00	 mov	 rcx, QWORD PTR regs$[rsp]
  001b7	48 8d 84 81 40
	03 00 00	 lea	 rax, QWORD PTR [rcx+rax*4+832]
  001bf	48 8d 4c 24 58	 lea	 rcx, QWORD PTR op1$[rsp+8]
  001c4	48 89 4c 24 38	 mov	 QWORD PTR [rsp+56], rcx
  001c9	48 8d 4c 24 54	 lea	 rcx, QWORD PTR op1$[rsp+4]
  001ce	48 89 4c 24 30	 mov	 QWORD PTR [rsp+48], rcx
  001d3	48 8d 4c 24 50	 lea	 rcx, QWORD PTR op1$[rsp]
  001d8	48 89 4c 24 28	 mov	 QWORD PTR [rsp+40], rcx
  001dd	c7 44 24 20 ff
	03 00 00	 mov	 DWORD PTR [rsp+32], 1023 ; 000003ffH
  001e5	41 b9 ff 03 00
	00		 mov	 r9d, 1023		; 000003ffH
  001eb	41 b8 34 00 00
	00		 mov	 r8d, 52			; 00000034H
  001f1	8b 54 24 48	 mov	 edx, DWORD PTR m3$[rsp]
  001f5	48 8b c8	 mov	 rcx, rax
  001f8	e8 00 00 00 00	 call	 cnvt_hfp_to_bfp
  001fd	48 8b 8c 24 88
	00 00 00	 mov	 rcx, QWORD PTR regs$[rsp]
  00205	88 41 7c	 mov	 BYTE PTR [rcx+124], al

; 1160 :         cnvt_hfp_to_bfp (regs->fpr + FPR2I(r2), m3,
; 1161 :             /*fractbits*/52, /*emax*/1023, /*ebias*/1023,
; 1162 :             &(op1.sign), &(op1.exp), &(op1.fract));
; 1163 : 
; 1164 :     put_lbfp(&op1, regs->fpr + FPR2I(r1));

  00208	8b 44 24 4c	 mov	 eax, DWORD PTR r1$[rsp]
  0020c	d1 e0		 shl	 eax, 1
  0020e	48 98		 cdqe
  00210	48 8b 8c 24 88
	00 00 00	 mov	 rcx, QWORD PTR regs$[rsp]
  00218	48 8d 84 81 40
	03 00 00	 lea	 rax, QWORD PTR [rcx+rax*4+832]
  00220	48 8b d0	 mov	 rdx, rax
  00223	48 8d 4c 24 50	 lea	 rcx, QWORD PTR op1$[rsp]
  00228	e8 00 00 00 00	 call	 put_lbfp

; 1165 : 
; 1166 : } /* end DEF_INST(convert_float_long_to_bfp_long_reg) */

  0022d	48 8b 4c 24 68	 mov	 rcx, QWORD PTR __$ArrayPad$[rsp]
  00232	48 33 cc	 xor	 rcx, rsp
  00235	e8 00 00 00 00	 call	 __security_check_cookie
  0023a	48 83 c4 78	 add	 rsp, 120		; 00000078H
  0023e	c3		 ret	 0
z900_convert_float_long_to_bfp_long_reg ENDP
_TEXT	ENDS
; Function compile flags: /Odtp
; File C:\papa\MyGit\hyperion-zvector\ieee.c
_TEXT	SEGMENT
i$1 = 32
r2$ = 36
r1$ = 40
tv161 = 48
op2$ = 56
lbfp_op2$ = 72
__$ArrayPad$ = 96
inst$ = 128
regs$ = 136
z900_convert_bfp_short_to_float_long_reg PROC

; 1119 : {

$LN15:
  00000	48 89 54 24 10	 mov	 QWORD PTR [rsp+16], rdx
  00005	48 89 4c 24 08	 mov	 QWORD PTR [rsp+8], rcx
  0000a	48 83 ec 78	 sub	 rsp, 120		; 00000078H
  0000e	48 8b 05 00 00
	00 00		 mov	 rax, QWORD PTR __security_cookie
  00015	48 33 c4	 xor	 rax, rsp
  00018	48 89 44 24 60	 mov	 QWORD PTR __$ArrayPad$[rsp], rax

; 1120 :     int r1, r2;
; 1121 :     struct sbfp op2;
; 1122 :     struct lbfp lbfp_op2;
; 1123 : 
; 1124 :     RRE(inst, regs, r1, r2);

  0001d	b8 01 00 00 00	 mov	 eax, 1
  00022	48 6b c0 03	 imul	 rax, rax, 3
  00026	48 8b 8c 24 80
	00 00 00	 mov	 rcx, QWORD PTR inst$[rsp]
  0002e	0f b6 04 01	 movzx	 eax, BYTE PTR [rcx+rax]
  00032	89 44 24 20	 mov	 DWORD PTR i$1[rsp], eax
  00036	8b 44 24 20	 mov	 eax, DWORD PTR i$1[rsp]
  0003a	83 e0 0f	 and	 eax, 15
  0003d	89 44 24 24	 mov	 DWORD PTR r2$[rsp], eax
  00041	8b 44 24 20	 mov	 eax, DWORD PTR i$1[rsp]
  00045	c1 f8 04	 sar	 eax, 4
  00048	83 e0 0f	 and	 eax, 15
  0004b	89 44 24 28	 mov	 DWORD PTR r1$[rsp], eax
$LN4@z900_conve:
  0004f	48 8b 84 24 88
	00 00 00	 mov	 rax, QWORD PTR regs$[rsp]
  00057	48 8b 40 68	 mov	 rax, QWORD PTR [rax+104]
  0005b	48 83 c0 04	 add	 rax, 4
  0005f	48 8b 8c 24 88
	00 00 00	 mov	 rcx, QWORD PTR regs$[rsp]
  00067	48 89 41 68	 mov	 QWORD PTR [rcx+104], rax
  0006b	33 c0		 xor	 eax, eax
  0006d	83 f8 04	 cmp	 eax, 4
  00070	74 0f		 je	 SHORT $LN8@z900_conve
  00072	48 8b 84 24 88
	00 00 00	 mov	 rax, QWORD PTR regs$[rsp]
  0007a	c6 80 9a 00 00
	00 04		 mov	 BYTE PTR [rax+154], 4
$LN8@z900_conve:
  00081	33 c0		 xor	 eax, eax
  00083	85 c0		 test	 eax, eax
  00085	75 c8		 jne	 SHORT $LN4@z900_conve
$LN7@z900_conve:

; 1125 :     TXFC_INSTR_CHECK( regs );

  00087	48 8b 84 24 88
	00 00 00	 mov	 rax, QWORD PTR regs$[rsp]
  0008f	0f b6 80 4c 0e
	00 00		 movzx	 eax, BYTE PTR [rax+3660]
  00096	85 c0		 test	 eax, eax
  00098	74 3f		 je	 SHORT $LN9@z900_conve
  0009a	48 8b 84 24 88
	00 00 00	 mov	 rax, QWORD PTR regs$[rsp]
  000a2	8b 80 84 af 00
	00		 mov	 eax, DWORD PTR [rax+44932]
  000a8	0f ba e8 0f	 bts	 eax, 15
  000ac	48 8b 8c 24 88
	00 00 00	 mov	 rcx, QWORD PTR regs$[rsp]
  000b4	89 81 84 af 00
	00		 mov	 DWORD PTR [rcx+44932], eax
  000ba	4c 8d 0d 00 00
	00 00		 lea	 r9, OFFSET FLAT:$SG198384
  000c1	41 b8 0b 00 00
	00		 mov	 r8d, 11
  000c7	ba 02 00 00 00	 mov	 edx, 2
  000cc	48 8b 8c 24 88
	00 00 00	 mov	 rcx, QWORD PTR regs$[rsp]
  000d4	e8 00 00 00 00	 call	 z900_abort_transaction
$LN9@z900_conve:
  000d9	33 c0		 xor	 eax, eax
  000db	85 c0		 test	 eax, eax
  000dd	75 a8		 jne	 SHORT $LN7@z900_conve

; 1126 :     //logmsg("THDER r1=%d r2=%d\n", r1, r2);
; 1127 :     HFPREG2_CHECK(r1, r2, regs);

  000df	b8 08 00 00 00	 mov	 eax, 8
  000e4	48 6b c0 01	 imul	 rax, rax, 1
  000e8	48 8b 8c 24 88
	00 00 00	 mov	 rcx, QWORD PTR regs$[rsp]
  000f0	48 8b 84 01 00
	06 00 00	 mov	 rax, QWORD PTR [rcx+rax+1536]
  000f8	48 25 00 00 04
	00		 and	 rax, 262144		; 00040000H
  000fe	48 85 c0	 test	 rax, rax
  00101	74 42		 je	 SHORT $LN11@z900_conve
  00103	48 8b 84 24 88
	00 00 00	 mov	 rax, QWORD PTR regs$[rsp]
  0010b	8b 80 c8 08 00
	00		 mov	 eax, DWORD PTR [rax+2248]
  00111	d1 e8		 shr	 eax, 1
  00113	83 e0 01	 and	 eax, 1
  00116	85 c0		 test	 eax, eax
  00118	74 6e		 je	 SHORT $LN10@z900_conve
  0011a	48 8b 84 24 88
	00 00 00	 mov	 rax, QWORD PTR regs$[rsp]
  00122	48 8b 80 68 08
	00 00		 mov	 rax, QWORD PTR [rax+2152]
  00129	b9 08 00 00 00	 mov	 ecx, 8
  0012e	48 6b c9 01	 imul	 rcx, rcx, 1
  00132	48 8b 84 08 00
	06 00 00	 mov	 rax, QWORD PTR [rax+rcx+1536]
  0013a	48 25 00 00 04
	00		 and	 rax, 262144		; 00040000H
  00140	48 85 c0	 test	 rax, rax
  00143	75 43		 jne	 SHORT $LN10@z900_conve
$LN11@z900_conve:
  00145	8b 44 24 28	 mov	 eax, DWORD PTR r1$[rsp]
  00149	83 e0 09	 and	 eax, 9
  0014c	85 c0		 test	 eax, eax
  0014e	75 0b		 jne	 SHORT $LN13@z900_conve
  00150	8b 44 24 24	 mov	 eax, DWORD PTR r2$[rsp]
  00154	83 e0 09	 and	 eax, 9
  00157	85 c0		 test	 eax, eax
  00159	74 2d		 je	 SHORT $LN12@z900_conve
$LN13@z900_conve:
  0015b	48 8b 84 24 88
	00 00 00	 mov	 rax, QWORD PTR regs$[rsp]
  00163	c7 80 08 07 00
	00 01 00 00 00	 mov	 DWORD PTR [rax+1800], 1
  0016d	ba 07 00 00 00	 mov	 edx, 7
  00172	48 8b 8c 24 88
	00 00 00	 mov	 rcx, QWORD PTR regs$[rsp]
  0017a	48 8b 84 24 88
	00 00 00	 mov	 rax, QWORD PTR regs$[rsp]
  00182	ff 90 20 0d 00
	00		 call	 QWORD PTR [rax+3360]
$LN12@z900_conve:
$LN10@z900_conve:

; 1128 : 
; 1129 :     /* Load sbfp operand from R2 register */
; 1130 :     get_sbfp(&op2, regs->fpr + FPR2I(r2));

  00188	8b 44 24 24	 mov	 eax, DWORD PTR r2$[rsp]
  0018c	d1 e0		 shl	 eax, 1
  0018e	48 98		 cdqe
  00190	48 8b 8c 24 88
	00 00 00	 mov	 rcx, QWORD PTR regs$[rsp]
  00198	48 8d 84 81 40
	03 00 00	 lea	 rax, QWORD PTR [rcx+rax*4+832]
  001a0	48 8b d0	 mov	 rdx, rax
  001a3	48 8d 4c 24 38	 lea	 rcx, QWORD PTR op2$[rsp]
  001a8	e8 00 00 00 00	 call	 get_sbfp

; 1131 : 
; 1132 :     /* Lengthen sbfp operand to lbfp */
; 1133 :     lbfp_op2.sign = op2.sign;

  001ad	8b 44 24 38	 mov	 eax, DWORD PTR op2$[rsp]
  001b1	89 44 24 48	 mov	 DWORD PTR lbfp_op2$[rsp], eax

; 1134 :     lbfp_op2.exp = op2.exp - 127 + 1023;

  001b5	8b 44 24 3c	 mov	 eax, DWORD PTR op2$[rsp+4]
  001b9	05 80 03 00 00	 add	 eax, 896		; 00000380H
  001be	89 44 24 4c	 mov	 DWORD PTR lbfp_op2$[rsp+4], eax

; 1135 :     lbfp_op2.fract = (U64)op2.fract << (52 - 23);

  001c2	48 63 44 24 40	 movsxd	 rax, DWORD PTR op2$[rsp+8]
  001c7	48 c1 e0 1d	 shl	 rax, 29
  001cb	48 89 44 24 50	 mov	 QWORD PTR lbfp_op2$[rsp+8], rax

; 1136 : 
; 1137 :     /* Convert lbfp to hfp register and set condition code */
; 1138 :     regs->psw.cc =

  001d0	8b 44 24 28	 mov	 eax, DWORD PTR r1$[rsp]
  001d4	d1 e0		 shl	 eax, 1
  001d6	48 98		 cdqe
  001d8	48 8b 8c 24 88
	00 00 00	 mov	 rcx, QWORD PTR regs$[rsp]
  001e0	48 8d 84 81 40
	03 00 00	 lea	 rax, QWORD PTR [rcx+rax*4+832]
  001e8	48 89 44 24 30	 mov	 QWORD PTR tv161[rsp], rax
  001ed	48 8d 4c 24 38	 lea	 rcx, QWORD PTR op2$[rsp]
  001f2	e8 00 00 00 00	 call	 sbfpclassify
  001f7	48 8b 4c 24 30	 mov	 rcx, QWORD PTR tv161[rsp]
  001fc	4c 8b c1	 mov	 r8, rcx
  001ff	8b d0		 mov	 edx, eax
  00201	48 8d 4c 24 48	 lea	 rcx, QWORD PTR lbfp_op2$[rsp]
  00206	e8 00 00 00 00	 call	 cnvt_bfp_to_hfp
  0020b	48 8b 8c 24 88
	00 00 00	 mov	 rcx, QWORD PTR regs$[rsp]
  00213	88 41 7c	 mov	 BYTE PTR [rcx+124], al

; 1139 :         cnvt_bfp_to_hfp (&lbfp_op2,
; 1140 :                          sbfpclassify(&op2),
; 1141 :                          regs->fpr + FPR2I(r1));
; 1142 : 
; 1143 : } /* end DEF_INST(convert_bfp_short_to_float_long_reg) */

  00216	48 8b 4c 24 60	 mov	 rcx, QWORD PTR __$ArrayPad$[rsp]
  0021b	48 33 cc	 xor	 rcx, rsp
  0021e	e8 00 00 00 00	 call	 __security_check_cookie
  00223	48 83 c4 78	 add	 rsp, 120		; 00000078H
  00227	c3		 ret	 0
z900_convert_bfp_short_to_float_long_reg ENDP
_TEXT	ENDS
; Function compile flags: /Odtp
; File C:\papa\MyGit\hyperion-zvector\ieee.c
_TEXT	SEGMENT
i$1 = 32
r2$ = 36
r1$ = 40
tv157 = 48
op2$ = 56
__$ArrayPad$ = 80
inst$ = 112
regs$ = 120
z900_convert_bfp_long_to_float_long_reg PROC

; 1094 : {

$LN15:
  00000	48 89 54 24 10	 mov	 QWORD PTR [rsp+16], rdx
  00005	48 89 4c 24 08	 mov	 QWORD PTR [rsp+8], rcx
  0000a	48 83 ec 68	 sub	 rsp, 104		; 00000068H
  0000e	48 8b 05 00 00
	00 00		 mov	 rax, QWORD PTR __security_cookie
  00015	48 33 c4	 xor	 rax, rsp
  00018	48 89 44 24 50	 mov	 QWORD PTR __$ArrayPad$[rsp], rax

; 1095 :     int r1, r2;
; 1096 :     struct lbfp op2;
; 1097 : 
; 1098 :     RRE(inst, regs, r1, r2);

  0001d	b8 01 00 00 00	 mov	 eax, 1
  00022	48 6b c0 03	 imul	 rax, rax, 3
  00026	48 8b 4c 24 70	 mov	 rcx, QWORD PTR inst$[rsp]
  0002b	0f b6 04 01	 movzx	 eax, BYTE PTR [rcx+rax]
  0002f	89 44 24 20	 mov	 DWORD PTR i$1[rsp], eax
  00033	8b 44 24 20	 mov	 eax, DWORD PTR i$1[rsp]
  00037	83 e0 0f	 and	 eax, 15
  0003a	89 44 24 24	 mov	 DWORD PTR r2$[rsp], eax
  0003e	8b 44 24 20	 mov	 eax, DWORD PTR i$1[rsp]
  00042	c1 f8 04	 sar	 eax, 4
  00045	83 e0 0f	 and	 eax, 15
  00048	89 44 24 28	 mov	 DWORD PTR r1$[rsp], eax
$LN4@z900_conve:
  0004c	48 8b 44 24 78	 mov	 rax, QWORD PTR regs$[rsp]
  00051	48 8b 40 68	 mov	 rax, QWORD PTR [rax+104]
  00055	48 83 c0 04	 add	 rax, 4
  00059	48 8b 4c 24 78	 mov	 rcx, QWORD PTR regs$[rsp]
  0005e	48 89 41 68	 mov	 QWORD PTR [rcx+104], rax
  00062	33 c0		 xor	 eax, eax
  00064	83 f8 04	 cmp	 eax, 4
  00067	74 0c		 je	 SHORT $LN8@z900_conve
  00069	48 8b 44 24 78	 mov	 rax, QWORD PTR regs$[rsp]
  0006e	c6 80 9a 00 00
	00 04		 mov	 BYTE PTR [rax+154], 4
$LN8@z900_conve:
  00075	33 c0		 xor	 eax, eax
  00077	85 c0		 test	 eax, eax
  00079	75 d1		 jne	 SHORT $LN4@z900_conve
$LN7@z900_conve:

; 1099 :     TXFC_INSTR_CHECK( regs );

  0007b	48 8b 44 24 78	 mov	 rax, QWORD PTR regs$[rsp]
  00080	0f b6 80 4c 0e
	00 00		 movzx	 eax, BYTE PTR [rax+3660]
  00087	85 c0		 test	 eax, eax
  00089	74 36		 je	 SHORT $LN9@z900_conve
  0008b	48 8b 44 24 78	 mov	 rax, QWORD PTR regs$[rsp]
  00090	8b 80 84 af 00
	00		 mov	 eax, DWORD PTR [rax+44932]
  00096	0f ba e8 0f	 bts	 eax, 15
  0009a	48 8b 4c 24 78	 mov	 rcx, QWORD PTR regs$[rsp]
  0009f	89 81 84 af 00
	00		 mov	 DWORD PTR [rcx+44932], eax
  000a5	4c 8d 0d 00 00
	00 00		 lea	 r9, OFFSET FLAT:$SG198360
  000ac	41 b8 0b 00 00
	00		 mov	 r8d, 11
  000b2	ba 02 00 00 00	 mov	 edx, 2
  000b7	48 8b 4c 24 78	 mov	 rcx, QWORD PTR regs$[rsp]
  000bc	e8 00 00 00 00	 call	 z900_abort_transaction
$LN9@z900_conve:
  000c1	33 c0		 xor	 eax, eax
  000c3	85 c0		 test	 eax, eax
  000c5	75 b4		 jne	 SHORT $LN7@z900_conve

; 1100 :     //logmsg("THDR r1=%d r2=%d\n", r1, r2);
; 1101 :     HFPREG2_CHECK(r1, r2, regs);

  000c7	b8 08 00 00 00	 mov	 eax, 8
  000cc	48 6b c0 01	 imul	 rax, rax, 1
  000d0	48 8b 4c 24 78	 mov	 rcx, QWORD PTR regs$[rsp]
  000d5	48 8b 84 01 00
	06 00 00	 mov	 rax, QWORD PTR [rcx+rax+1536]
  000dd	48 25 00 00 04
	00		 and	 rax, 262144		; 00040000H
  000e3	48 85 c0	 test	 rax, rax
  000e6	74 3c		 je	 SHORT $LN11@z900_conve
  000e8	48 8b 44 24 78	 mov	 rax, QWORD PTR regs$[rsp]
  000ed	8b 80 c8 08 00
	00		 mov	 eax, DWORD PTR [rax+2248]
  000f3	d1 e8		 shr	 eax, 1
  000f5	83 e0 01	 and	 eax, 1
  000f8	85 c0		 test	 eax, eax
  000fa	74 62		 je	 SHORT $LN10@z900_conve
  000fc	48 8b 44 24 78	 mov	 rax, QWORD PTR regs$[rsp]
  00101	48 8b 80 68 08
	00 00		 mov	 rax, QWORD PTR [rax+2152]
  00108	b9 08 00 00 00	 mov	 ecx, 8
  0010d	48 6b c9 01	 imul	 rcx, rcx, 1
  00111	48 8b 84 08 00
	06 00 00	 mov	 rax, QWORD PTR [rax+rcx+1536]
  00119	48 25 00 00 04
	00		 and	 rax, 262144		; 00040000H
  0011f	48 85 c0	 test	 rax, rax
  00122	75 3a		 jne	 SHORT $LN10@z900_conve
$LN11@z900_conve:
  00124	8b 44 24 28	 mov	 eax, DWORD PTR r1$[rsp]
  00128	83 e0 09	 and	 eax, 9
  0012b	85 c0		 test	 eax, eax
  0012d	75 0b		 jne	 SHORT $LN13@z900_conve
  0012f	8b 44 24 24	 mov	 eax, DWORD PTR r2$[rsp]
  00133	83 e0 09	 and	 eax, 9
  00136	85 c0		 test	 eax, eax
  00138	74 24		 je	 SHORT $LN12@z900_conve
$LN13@z900_conve:
  0013a	48 8b 44 24 78	 mov	 rax, QWORD PTR regs$[rsp]
  0013f	c7 80 08 07 00
	00 01 00 00 00	 mov	 DWORD PTR [rax+1800], 1
  00149	ba 07 00 00 00	 mov	 edx, 7
  0014e	48 8b 4c 24 78	 mov	 rcx, QWORD PTR regs$[rsp]
  00153	48 8b 44 24 78	 mov	 rax, QWORD PTR regs$[rsp]
  00158	ff 90 20 0d 00
	00		 call	 QWORD PTR [rax+3360]
$LN12@z900_conve:
$LN10@z900_conve:

; 1102 : 
; 1103 :     /* Load lbfp operand from R2 register */
; 1104 :     get_lbfp(&op2, regs->fpr + FPR2I(r2));

  0015e	8b 44 24 24	 mov	 eax, DWORD PTR r2$[rsp]
  00162	d1 e0		 shl	 eax, 1
  00164	48 98		 cdqe
  00166	48 8b 4c 24 78	 mov	 rcx, QWORD PTR regs$[rsp]
  0016b	48 8d 84 81 40
	03 00 00	 lea	 rax, QWORD PTR [rcx+rax*4+832]
  00173	48 8b d0	 mov	 rdx, rax
  00176	48 8d 4c 24 38	 lea	 rcx, QWORD PTR op2$[rsp]
  0017b	e8 00 00 00 00	 call	 get_lbfp

; 1105 : 
; 1106 :     /* Convert to hfp register and set condition code */
; 1107 :     regs->psw.cc =

  00180	8b 44 24 28	 mov	 eax, DWORD PTR r1$[rsp]
  00184	d1 e0		 shl	 eax, 1
  00186	48 98		 cdqe
  00188	48 8b 4c 24 78	 mov	 rcx, QWORD PTR regs$[rsp]
  0018d	48 8d 84 81 40
	03 00 00	 lea	 rax, QWORD PTR [rcx+rax*4+832]
  00195	48 89 44 24 30	 mov	 QWORD PTR tv157[rsp], rax
  0019a	48 8d 4c 24 38	 lea	 rcx, QWORD PTR op2$[rsp]
  0019f	e8 00 00 00 00	 call	 lbfpclassify
  001a4	48 8b 4c 24 30	 mov	 rcx, QWORD PTR tv157[rsp]
  001a9	4c 8b c1	 mov	 r8, rcx
  001ac	8b d0		 mov	 edx, eax
  001ae	48 8d 4c 24 38	 lea	 rcx, QWORD PTR op2$[rsp]
  001b3	e8 00 00 00 00	 call	 cnvt_bfp_to_hfp
  001b8	48 8b 4c 24 78	 mov	 rcx, QWORD PTR regs$[rsp]
  001bd	88 41 7c	 mov	 BYTE PTR [rcx+124], al

; 1108 :         cnvt_bfp_to_hfp (&op2,
; 1109 :                          lbfpclassify(&op2),
; 1110 :                          regs->fpr + FPR2I(r1));
; 1111 : 
; 1112 : } /* end DEF_INST(convert_bfp_long_to_float_long_reg) */

  001c0	48 8b 4c 24 50	 mov	 rcx, QWORD PTR __$ArrayPad$[rsp]
  001c5	48 33 cc	 xor	 rcx, rsp
  001c8	e8 00 00 00 00	 call	 __security_check_cookie
  001cd	48 83 c4 68	 add	 rsp, 104		; 00000068H
  001d1	c3		 ret	 0
z900_convert_bfp_long_to_float_long_reg ENDP
_TEXT	ENDS
; Function compile flags: /Odtp
; File C:\papa\MyGit\hyperion-zvector\ieee.c
_TEXT	SEGMENT
temp$1 = 32
x2$ = 36
b2$ = 40
tv183 = 44
r1$ = 48
op1$ = 52
effective_addr2$ = 56
inst$ = 80
regs$ = 88
z900_test_data_class_bfp_short PROC

; 5027 : {

$LN18:
  00000	48 89 54 24 10	 mov	 QWORD PTR [rsp+16], rdx
  00005	48 89 4c 24 08	 mov	 QWORD PTR [rsp+8], rcx
  0000a	48 83 ec 48	 sub	 rsp, 72			; 00000048H

; 5028 :     int        r1, x2, b2;
; 5029 :     VADR       effective_addr2;
; 5030 :     float32_t  op1;
; 5031 : 
; 5032 :     RXE( inst, regs, r1, x2, b2, effective_addr2 );

  0000e	48 8b 4c 24 50	 mov	 rcx, QWORD PTR inst$[rsp]
  00013	e8 00 00 00 00	 call	 fetch_fw_noswap
  00018	8b c8		 mov	 ecx, eax
  0001a	e8 00 00 00 00	 call	 _byteswap_ulong
  0001f	89 44 24 20	 mov	 DWORD PTR temp$1[rsp], eax
  00023	8b 44 24 20	 mov	 eax, DWORD PTR temp$1[rsp]
  00027	25 ff 0f 00 00	 and	 eax, 4095		; 00000fffH
  0002c	8b c0		 mov	 eax, eax
  0002e	48 89 44 24 38	 mov	 QWORD PTR effective_addr2$[rsp], rax
  00033	8b 44 24 20	 mov	 eax, DWORD PTR temp$1[rsp]
  00037	c1 e8 10	 shr	 eax, 16
  0003a	83 e0 0f	 and	 eax, 15
  0003d	89 44 24 24	 mov	 DWORD PTR x2$[rsp], eax
  00041	8b 44 24 20	 mov	 eax, DWORD PTR temp$1[rsp]
  00045	c1 e8 14	 shr	 eax, 20
  00048	83 e0 0f	 and	 eax, 15
  0004b	89 44 24 30	 mov	 DWORD PTR r1$[rsp], eax
  0004f	83 7c 24 24 00	 cmp	 DWORD PTR x2$[rsp], 0
  00054	74 22		 je	 SHORT $LN8@z900_test_
  00056	48 63 44 24 24	 movsxd	 rax, DWORD PTR x2$[rsp]
  0005b	48 8b 4c 24 58	 mov	 rcx, QWORD PTR regs$[rsp]
  00060	48 8b 84 c1 80
	02 00 00	 mov	 rax, QWORD PTR [rcx+rax*8+640]
  00068	48 8b 4c 24 38	 mov	 rcx, QWORD PTR effective_addr2$[rsp]
  0006d	48 03 c8	 add	 rcx, rax
  00070	48 8b c1	 mov	 rax, rcx
  00073	48 89 44 24 38	 mov	 QWORD PTR effective_addr2$[rsp], rax
$LN8@z900_test_:
  00078	8b 44 24 20	 mov	 eax, DWORD PTR temp$1[rsp]
  0007c	c1 e8 0c	 shr	 eax, 12
  0007f	83 e0 0f	 and	 eax, 15
  00082	89 44 24 28	 mov	 DWORD PTR b2$[rsp], eax
  00086	83 7c 24 28 00	 cmp	 DWORD PTR b2$[rsp], 0
  0008b	74 22		 je	 SHORT $LN9@z900_test_
  0008d	48 63 44 24 28	 movsxd	 rax, DWORD PTR b2$[rsp]
  00092	48 8b 4c 24 58	 mov	 rcx, QWORD PTR regs$[rsp]
  00097	48 8b 84 c1 80
	02 00 00	 mov	 rax, QWORD PTR [rcx+rax*8+640]
  0009f	48 8b 4c 24 38	 mov	 rcx, QWORD PTR effective_addr2$[rsp]
  000a4	48 03 c8	 add	 rcx, rax
  000a7	48 8b c1	 mov	 rax, rcx
  000aa	48 89 44 24 38	 mov	 QWORD PTR effective_addr2$[rsp], rax
$LN9@z900_test_:
  000af	48 8b 44 24 58	 mov	 rax, QWORD PTR regs$[rsp]
  000b4	48 8b 80 90 00
	00 00		 mov	 rax, QWORD PTR [rax+144]
  000bb	48 8b 4c 24 38	 mov	 rcx, QWORD PTR effective_addr2$[rsp]
  000c0	48 23 c8	 and	 rcx, rax
  000c3	48 8b c1	 mov	 rax, rcx
  000c6	48 89 44 24 38	 mov	 QWORD PTR effective_addr2$[rsp], rax
$LN4@z900_test_:
  000cb	48 8b 44 24 58	 mov	 rax, QWORD PTR regs$[rsp]
  000d0	48 8b 40 68	 mov	 rax, QWORD PTR [rax+104]
  000d4	48 83 c0 06	 add	 rax, 6
  000d8	48 8b 4c 24 58	 mov	 rcx, QWORD PTR regs$[rsp]
  000dd	48 89 41 68	 mov	 QWORD PTR [rcx+104], rax
  000e1	33 c0		 xor	 eax, eax
  000e3	83 f8 06	 cmp	 eax, 6
  000e6	74 0c		 je	 SHORT $LN10@z900_test_
  000e8	48 8b 44 24 58	 mov	 rax, QWORD PTR regs$[rsp]
  000ed	c6 80 9a 00 00
	00 06		 mov	 BYTE PTR [rax+154], 6
$LN10@z900_test_:
  000f4	33 c0		 xor	 eax, eax
  000f6	85 c0		 test	 eax, eax
  000f8	75 d1		 jne	 SHORT $LN4@z900_test_
$LN7@z900_test_:

; 5033 :     TXF_FLOAT_INSTR_CHECK( regs );

  000fa	33 c0		 xor	 eax, eax
  000fc	83 f8 01	 cmp	 eax, 1
  000ff	74 6f		 je	 SHORT $LN11@z900_test_
  00101	48 8b 44 24 58	 mov	 rax, QWORD PTR regs$[rsp]
  00106	0f b6 80 58 0e
	00 00		 movzx	 eax, BYTE PTR [rax+3672]
  0010d	85 c0		 test	 eax, eax
  0010f	74 5f		 je	 SHORT $LN11@z900_test_
  00111	33 c0		 xor	 eax, eax
  00113	85 c0		 test	 eax, eax
  00115	75 23		 jne	 SHORT $LN12@z900_test_
  00117	48 8b 44 24 58	 mov	 rax, QWORD PTR regs$[rsp]
  0011c	0f b6 80 4c 0e
	00 00		 movzx	 eax, BYTE PTR [rax+3660]
  00123	85 c0		 test	 eax, eax
  00125	75 13		 jne	 SHORT $LN12@z900_test_
  00127	48 8b 44 24 58	 mov	 rax, QWORD PTR regs$[rsp]
  0012c	0f b6 80 59 0e
	00 00		 movzx	 eax, BYTE PTR [rax+3673]
  00133	83 e0 04	 and	 eax, 4
  00136	85 c0		 test	 eax, eax
  00138	75 36		 jne	 SHORT $LN11@z900_test_
$LN12@z900_test_:
  0013a	48 8b 44 24 58	 mov	 rax, QWORD PTR regs$[rsp]
  0013f	8b 80 84 af 00
	00		 mov	 eax, DWORD PTR [rax+44932]
  00145	0f ba e8 0b	 bts	 eax, 11
  00149	48 8b 4c 24 58	 mov	 rcx, QWORD PTR regs$[rsp]
  0014e	89 81 84 af 00
	00		 mov	 DWORD PTR [rcx+44932], eax
  00154	4c 8d 0d 00 00
	00 00		 lea	 r9, OFFSET FLAT:$SG201428
  0015b	41 b8 0b 00 00
	00		 mov	 r8d, 11
  00161	ba 02 00 00 00	 mov	 edx, 2
  00166	48 8b 4c 24 58	 mov	 rcx, QWORD PTR regs$[rsp]
  0016b	e8 00 00 00 00	 call	 z900_abort_transaction
$LN11@z900_test_:
  00170	33 c0		 xor	 eax, eax
  00172	85 c0		 test	 eax, eax
  00174	75 84		 jne	 SHORT $LN7@z900_test_

; 5034 :     BFPINST_CHECK( regs );

  00176	b8 08 00 00 00	 mov	 eax, 8
  0017b	48 6b c0 01	 imul	 rax, rax, 1
  0017f	48 8b 4c 24 58	 mov	 rcx, QWORD PTR regs$[rsp]
  00184	48 8b 84 01 00
	06 00 00	 mov	 rax, QWORD PTR [rcx+rax+1536]
  0018c	48 25 00 00 04
	00		 and	 rax, 262144		; 00040000H
  00192	48 85 c0	 test	 rax, rax
  00195	74 3c		 je	 SHORT $LN14@z900_test_
  00197	48 8b 44 24 58	 mov	 rax, QWORD PTR regs$[rsp]
  0019c	8b 80 c8 08 00
	00		 mov	 eax, DWORD PTR [rax+2248]
  001a2	d1 e8		 shr	 eax, 1
  001a4	83 e0 01	 and	 eax, 1
  001a7	85 c0		 test	 eax, eax
  001a9	74 4c		 je	 SHORT $LN13@z900_test_
  001ab	48 8b 44 24 58	 mov	 rax, QWORD PTR regs$[rsp]
  001b0	48 8b 80 68 08
	00 00		 mov	 rax, QWORD PTR [rax+2152]
  001b7	b9 08 00 00 00	 mov	 ecx, 8
  001bc	48 6b c9 01	 imul	 rcx, rcx, 1
  001c0	48 8b 84 08 00
	06 00 00	 mov	 rax, QWORD PTR [rax+rcx+1536]
  001c8	48 25 00 00 04
	00		 and	 rax, 262144		; 00040000H
  001ce	48 85 c0	 test	 rax, rax
  001d1	75 24		 jne	 SHORT $LN13@z900_test_
$LN14@z900_test_:
  001d3	48 8b 44 24 58	 mov	 rax, QWORD PTR regs$[rsp]
  001d8	c7 80 08 07 00
	00 02 00 00 00	 mov	 DWORD PTR [rax+1800], 2
  001e2	ba 07 00 00 00	 mov	 edx, 7
  001e7	48 8b 4c 24 58	 mov	 rcx, QWORD PTR regs$[rsp]
  001ec	48 8b 44 24 58	 mov	 rax, QWORD PTR regs$[rsp]
  001f1	ff 90 20 0d 00
	00		 call	 QWORD PTR [rax+3360]
$LN13@z900_test_:

; 5035 : 
; 5036 :     GET_FLOAT32_OP( op1, r1, regs );

  001f7	8b 44 24 30	 mov	 eax, DWORD PTR r1$[rsp]
  001fb	d1 e0		 shl	 eax, 1
  001fd	48 98		 cdqe
  001ff	48 8b 4c 24 58	 mov	 rcx, QWORD PTR regs$[rsp]
  00204	48 8d 84 81 40
	03 00 00	 lea	 rax, QWORD PTR [rcx+rax*4+832]
  0020c	48 8b d0	 mov	 rdx, rax
  0020f	48 8d 4c 24 34	 lea	 rcx, QWORD PTR op1$[rsp]
  00214	e8 00 00 00 00	 call	 z900_get_float32

; 5037 : 
; 5038 :     regs->psw.cc = !!(((U32)effective_addr2) & float32_class( op1 ));

  00219	8b 4c 24 34	 mov	 ecx, DWORD PTR op1$[rsp]
  0021d	e8 00 00 00 00	 call	 float32_class
  00222	8b 4c 24 38	 mov	 ecx, DWORD PTR effective_addr2$[rsp]
  00226	23 c8		 and	 ecx, eax
  00228	8b c1		 mov	 eax, ecx
  0022a	85 c0		 test	 eax, eax
  0022c	74 0a		 je	 SHORT $LN16@z900_test_
  0022e	c7 44 24 2c 01
	00 00 00	 mov	 DWORD PTR tv183[rsp], 1
  00236	eb 08		 jmp	 SHORT $LN17@z900_test_
$LN16@z900_test_:
  00238	c7 44 24 2c 00
	00 00 00	 mov	 DWORD PTR tv183[rsp], 0
$LN17@z900_test_:
  00240	48 8b 44 24 58	 mov	 rax, QWORD PTR regs$[rsp]
  00245	0f b6 4c 24 2c	 movzx	 ecx, BYTE PTR tv183[rsp]
  0024a	88 48 7c	 mov	 BYTE PTR [rax+124], cl

; 5039 : }

  0024d	48 83 c4 48	 add	 rsp, 72			; 00000048H
  00251	c3		 ret	 0
z900_test_data_class_bfp_short ENDP
_TEXT	ENDS
; Function compile flags: /Odtp
; File C:\papa\MyGit\hyperion-zvector\ieee.c
_TEXT	SEGMENT
temp$1 = 32
x2$ = 36
b2$ = 40
tv183 = 44
r1$ = 48
effective_addr2$ = 56
op1$ = 64
inst$ = 96
regs$ = 104
z900_test_data_class_bfp_long PROC

; 5046 : {

$LN18:
  00000	48 89 54 24 10	 mov	 QWORD PTR [rsp+16], rdx
  00005	48 89 4c 24 08	 mov	 QWORD PTR [rsp+8], rcx
  0000a	48 83 ec 58	 sub	 rsp, 88			; 00000058H

; 5047 :     int        r1, x2, b2;
; 5048 :     VADR       effective_addr2;
; 5049 :     float64_t  op1;
; 5050 : 
; 5051 :     RXE( inst, regs, r1, x2, b2, effective_addr2 );

  0000e	48 8b 4c 24 60	 mov	 rcx, QWORD PTR inst$[rsp]
  00013	e8 00 00 00 00	 call	 fetch_fw_noswap
  00018	8b c8		 mov	 ecx, eax
  0001a	e8 00 00 00 00	 call	 _byteswap_ulong
  0001f	89 44 24 20	 mov	 DWORD PTR temp$1[rsp], eax
  00023	8b 44 24 20	 mov	 eax, DWORD PTR temp$1[rsp]
  00027	25 ff 0f 00 00	 and	 eax, 4095		; 00000fffH
  0002c	8b c0		 mov	 eax, eax
  0002e	48 89 44 24 38	 mov	 QWORD PTR effective_addr2$[rsp], rax
  00033	8b 44 24 20	 mov	 eax, DWORD PTR temp$1[rsp]
  00037	c1 e8 10	 shr	 eax, 16
  0003a	83 e0 0f	 and	 eax, 15
  0003d	89 44 24 24	 mov	 DWORD PTR x2$[rsp], eax
  00041	8b 44 24 20	 mov	 eax, DWORD PTR temp$1[rsp]
  00045	c1 e8 14	 shr	 eax, 20
  00048	83 e0 0f	 and	 eax, 15
  0004b	89 44 24 30	 mov	 DWORD PTR r1$[rsp], eax
  0004f	83 7c 24 24 00	 cmp	 DWORD PTR x2$[rsp], 0
  00054	74 22		 je	 SHORT $LN8@z900_test_
  00056	48 63 44 24 24	 movsxd	 rax, DWORD PTR x2$[rsp]
  0005b	48 8b 4c 24 68	 mov	 rcx, QWORD PTR regs$[rsp]
  00060	48 8b 84 c1 80
	02 00 00	 mov	 rax, QWORD PTR [rcx+rax*8+640]
  00068	48 8b 4c 24 38	 mov	 rcx, QWORD PTR effective_addr2$[rsp]
  0006d	48 03 c8	 add	 rcx, rax
  00070	48 8b c1	 mov	 rax, rcx
  00073	48 89 44 24 38	 mov	 QWORD PTR effective_addr2$[rsp], rax
$LN8@z900_test_:
  00078	8b 44 24 20	 mov	 eax, DWORD PTR temp$1[rsp]
  0007c	c1 e8 0c	 shr	 eax, 12
  0007f	83 e0 0f	 and	 eax, 15
  00082	89 44 24 28	 mov	 DWORD PTR b2$[rsp], eax
  00086	83 7c 24 28 00	 cmp	 DWORD PTR b2$[rsp], 0
  0008b	74 22		 je	 SHORT $LN9@z900_test_
  0008d	48 63 44 24 28	 movsxd	 rax, DWORD PTR b2$[rsp]
  00092	48 8b 4c 24 68	 mov	 rcx, QWORD PTR regs$[rsp]
  00097	48 8b 84 c1 80
	02 00 00	 mov	 rax, QWORD PTR [rcx+rax*8+640]
  0009f	48 8b 4c 24 38	 mov	 rcx, QWORD PTR effective_addr2$[rsp]
  000a4	48 03 c8	 add	 rcx, rax
  000a7	48 8b c1	 mov	 rax, rcx
  000aa	48 89 44 24 38	 mov	 QWORD PTR effective_addr2$[rsp], rax
$LN9@z900_test_:
  000af	48 8b 44 24 68	 mov	 rax, QWORD PTR regs$[rsp]
  000b4	48 8b 80 90 00
	00 00		 mov	 rax, QWORD PTR [rax+144]
  000bb	48 8b 4c 24 38	 mov	 rcx, QWORD PTR effective_addr2$[rsp]
  000c0	48 23 c8	 and	 rcx, rax
  000c3	48 8b c1	 mov	 rax, rcx
  000c6	48 89 44 24 38	 mov	 QWORD PTR effective_addr2$[rsp], rax
$LN4@z900_test_:
  000cb	48 8b 44 24 68	 mov	 rax, QWORD PTR regs$[rsp]
  000d0	48 8b 40 68	 mov	 rax, QWORD PTR [rax+104]
  000d4	48 83 c0 06	 add	 rax, 6
  000d8	48 8b 4c 24 68	 mov	 rcx, QWORD PTR regs$[rsp]
  000dd	48 89 41 68	 mov	 QWORD PTR [rcx+104], rax
  000e1	33 c0		 xor	 eax, eax
  000e3	83 f8 06	 cmp	 eax, 6
  000e6	74 0c		 je	 SHORT $LN10@z900_test_
  000e8	48 8b 44 24 68	 mov	 rax, QWORD PTR regs$[rsp]
  000ed	c6 80 9a 00 00
	00 06		 mov	 BYTE PTR [rax+154], 6
$LN10@z900_test_:
  000f4	33 c0		 xor	 eax, eax
  000f6	85 c0		 test	 eax, eax
  000f8	75 d1		 jne	 SHORT $LN4@z900_test_
$LN7@z900_test_:

; 5052 :     TXF_FLOAT_INSTR_CHECK( regs );

  000fa	33 c0		 xor	 eax, eax
  000fc	83 f8 01	 cmp	 eax, 1
  000ff	74 6f		 je	 SHORT $LN11@z900_test_
  00101	48 8b 44 24 68	 mov	 rax, QWORD PTR regs$[rsp]
  00106	0f b6 80 58 0e
	00 00		 movzx	 eax, BYTE PTR [rax+3672]
  0010d	85 c0		 test	 eax, eax
  0010f	74 5f		 je	 SHORT $LN11@z900_test_
  00111	33 c0		 xor	 eax, eax
  00113	85 c0		 test	 eax, eax
  00115	75 23		 jne	 SHORT $LN12@z900_test_
  00117	48 8b 44 24 68	 mov	 rax, QWORD PTR regs$[rsp]
  0011c	0f b6 80 4c 0e
	00 00		 movzx	 eax, BYTE PTR [rax+3660]
  00123	85 c0		 test	 eax, eax
  00125	75 13		 jne	 SHORT $LN12@z900_test_
  00127	48 8b 44 24 68	 mov	 rax, QWORD PTR regs$[rsp]
  0012c	0f b6 80 59 0e
	00 00		 movzx	 eax, BYTE PTR [rax+3673]
  00133	83 e0 04	 and	 eax, 4
  00136	85 c0		 test	 eax, eax
  00138	75 36		 jne	 SHORT $LN11@z900_test_
$LN12@z900_test_:
  0013a	48 8b 44 24 68	 mov	 rax, QWORD PTR regs$[rsp]
  0013f	8b 80 84 af 00
	00		 mov	 eax, DWORD PTR [rax+44932]
  00145	0f ba e8 0b	 bts	 eax, 11
  00149	48 8b 4c 24 68	 mov	 rcx, QWORD PTR regs$[rsp]
  0014e	89 81 84 af 00
	00		 mov	 DWORD PTR [rcx+44932], eax
  00154	4c 8d 0d 00 00
	00 00		 lea	 r9, OFFSET FLAT:$SG201454
  0015b	41 b8 0b 00 00
	00		 mov	 r8d, 11
  00161	ba 02 00 00 00	 mov	 edx, 2
  00166	48 8b 4c 24 68	 mov	 rcx, QWORD PTR regs$[rsp]
  0016b	e8 00 00 00 00	 call	 z900_abort_transaction
$LN11@z900_test_:
  00170	33 c0		 xor	 eax, eax
  00172	85 c0		 test	 eax, eax
  00174	75 84		 jne	 SHORT $LN7@z900_test_

; 5053 :     BFPINST_CHECK( regs );

  00176	b8 08 00 00 00	 mov	 eax, 8
  0017b	48 6b c0 01	 imul	 rax, rax, 1
  0017f	48 8b 4c 24 68	 mov	 rcx, QWORD PTR regs$[rsp]
  00184	48 8b 84 01 00
	06 00 00	 mov	 rax, QWORD PTR [rcx+rax+1536]
  0018c	48 25 00 00 04
	00		 and	 rax, 262144		; 00040000H
  00192	48 85 c0	 test	 rax, rax
  00195	74 3c		 je	 SHORT $LN14@z900_test_
  00197	48 8b 44 24 68	 mov	 rax, QWORD PTR regs$[rsp]
  0019c	8b 80 c8 08 00
	00		 mov	 eax, DWORD PTR [rax+2248]
  001a2	d1 e8		 shr	 eax, 1
  001a4	83 e0 01	 and	 eax, 1
  001a7	85 c0		 test	 eax, eax
  001a9	74 4c		 je	 SHORT $LN13@z900_test_
  001ab	48 8b 44 24 68	 mov	 rax, QWORD PTR regs$[rsp]
  001b0	48 8b 80 68 08
	00 00		 mov	 rax, QWORD PTR [rax+2152]
  001b7	b9 08 00 00 00	 mov	 ecx, 8
  001bc	48 6b c9 01	 imul	 rcx, rcx, 1
  001c0	48 8b 84 08 00
	06 00 00	 mov	 rax, QWORD PTR [rax+rcx+1536]
  001c8	48 25 00 00 04
	00		 and	 rax, 262144		; 00040000H
  001ce	48 85 c0	 test	 rax, rax
  001d1	75 24		 jne	 SHORT $LN13@z900_test_
$LN14@z900_test_:
  001d3	48 8b 44 24 68	 mov	 rax, QWORD PTR regs$[rsp]
  001d8	c7 80 08 07 00
	00 02 00 00 00	 mov	 DWORD PTR [rax+1800], 2
  001e2	ba 07 00 00 00	 mov	 edx, 7
  001e7	48 8b 4c 24 68	 mov	 rcx, QWORD PTR regs$[rsp]
  001ec	48 8b 44 24 68	 mov	 rax, QWORD PTR regs$[rsp]
  001f1	ff 90 20 0d 00
	00		 call	 QWORD PTR [rax+3360]
$LN13@z900_test_:

; 5054 : 
; 5055 :     GET_FLOAT64_OP( op1, r1, regs );

  001f7	8b 44 24 30	 mov	 eax, DWORD PTR r1$[rsp]
  001fb	d1 e0		 shl	 eax, 1
  001fd	48 98		 cdqe
  001ff	48 8b 4c 24 68	 mov	 rcx, QWORD PTR regs$[rsp]
  00204	48 8d 84 81 40
	03 00 00	 lea	 rax, QWORD PTR [rcx+rax*4+832]
  0020c	48 8b d0	 mov	 rdx, rax
  0020f	48 8d 4c 24 40	 lea	 rcx, QWORD PTR op1$[rsp]
  00214	e8 00 00 00 00	 call	 z900_get_float64

; 5056 : 
; 5057 :     regs->psw.cc = !!(((U32)effective_addr2) & float64_class( op1 ));

  00219	48 8b 4c 24 40	 mov	 rcx, QWORD PTR op1$[rsp]
  0021e	e8 00 00 00 00	 call	 float64_class
  00223	8b 4c 24 38	 mov	 ecx, DWORD PTR effective_addr2$[rsp]
  00227	23 c8		 and	 ecx, eax
  00229	8b c1		 mov	 eax, ecx
  0022b	85 c0		 test	 eax, eax
  0022d	74 0a		 je	 SHORT $LN16@z900_test_
  0022f	c7 44 24 2c 01
	00 00 00	 mov	 DWORD PTR tv183[rsp], 1
  00237	eb 08		 jmp	 SHORT $LN17@z900_test_
$LN16@z900_test_:
  00239	c7 44 24 2c 00
	00 00 00	 mov	 DWORD PTR tv183[rsp], 0
$LN17@z900_test_:
  00241	48 8b 44 24 68	 mov	 rax, QWORD PTR regs$[rsp]
  00246	0f b6 4c 24 2c	 movzx	 ecx, BYTE PTR tv183[rsp]
  0024b	88 48 7c	 mov	 BYTE PTR [rax+124], cl

; 5058 : }

  0024e	48 83 c4 58	 add	 rsp, 88			; 00000058H
  00252	c3		 ret	 0
z900_test_data_class_bfp_long ENDP
_TEXT	ENDS
; Function compile flags: /Odtp
; File C:\papa\MyGit\hyperion-zvector\ieee.c
_TEXT	SEGMENT
temp$1 = 32
effective_addr2$ = 40
x2$ = 48
b2$ = 52
r1$ = 56
tv188 = 60
$T2 = 64
op1$ = 80
__$ArrayPad$ = 96
inst$ = 144
regs$ = 152
z900_test_data_class_bfp_ext PROC

; 5065 : {

$LN19:
  00000	48 89 54 24 10	 mov	 QWORD PTR [rsp+16], rdx
  00005	48 89 4c 24 08	 mov	 QWORD PTR [rsp+8], rcx
  0000a	56		 push	 rsi
  0000b	57		 push	 rdi
  0000c	48 83 ec 78	 sub	 rsp, 120		; 00000078H
  00010	48 8b 05 00 00
	00 00		 mov	 rax, QWORD PTR __security_cookie
  00017	48 33 c4	 xor	 rax, rsp
  0001a	48 89 44 24 60	 mov	 QWORD PTR __$ArrayPad$[rsp], rax

; 5066 :     int         r1, x2, b2;
; 5067 :     VADR        effective_addr2;
; 5068 :     float128_t  op1;
; 5069 : 
; 5070 :     RXE( inst, regs, r1, x2, b2, effective_addr2 );

  0001f	48 8b 8c 24 90
	00 00 00	 mov	 rcx, QWORD PTR inst$[rsp]
  00027	e8 00 00 00 00	 call	 fetch_fw_noswap
  0002c	8b c8		 mov	 ecx, eax
  0002e	e8 00 00 00 00	 call	 _byteswap_ulong
  00033	89 44 24 20	 mov	 DWORD PTR temp$1[rsp], eax
  00037	8b 44 24 20	 mov	 eax, DWORD PTR temp$1[rsp]
  0003b	25 ff 0f 00 00	 and	 eax, 4095		; 00000fffH
  00040	8b c0		 mov	 eax, eax
  00042	48 89 44 24 28	 mov	 QWORD PTR effective_addr2$[rsp], rax
  00047	8b 44 24 20	 mov	 eax, DWORD PTR temp$1[rsp]
  0004b	c1 e8 10	 shr	 eax, 16
  0004e	83 e0 0f	 and	 eax, 15
  00051	89 44 24 30	 mov	 DWORD PTR x2$[rsp], eax
  00055	8b 44 24 20	 mov	 eax, DWORD PTR temp$1[rsp]
  00059	c1 e8 14	 shr	 eax, 20
  0005c	83 e0 0f	 and	 eax, 15
  0005f	89 44 24 38	 mov	 DWORD PTR r1$[rsp], eax
  00063	83 7c 24 30 00	 cmp	 DWORD PTR x2$[rsp], 0
  00068	74 25		 je	 SHORT $LN8@z900_test_
  0006a	48 63 44 24 30	 movsxd	 rax, DWORD PTR x2$[rsp]
  0006f	48 8b 8c 24 98
	00 00 00	 mov	 rcx, QWORD PTR regs$[rsp]
  00077	48 8b 84 c1 80
	02 00 00	 mov	 rax, QWORD PTR [rcx+rax*8+640]
  0007f	48 8b 4c 24 28	 mov	 rcx, QWORD PTR effective_addr2$[rsp]
  00084	48 03 c8	 add	 rcx, rax
  00087	48 8b c1	 mov	 rax, rcx
  0008a	48 89 44 24 28	 mov	 QWORD PTR effective_addr2$[rsp], rax
$LN8@z900_test_:
  0008f	8b 44 24 20	 mov	 eax, DWORD PTR temp$1[rsp]
  00093	c1 e8 0c	 shr	 eax, 12
  00096	83 e0 0f	 and	 eax, 15
  00099	89 44 24 34	 mov	 DWORD PTR b2$[rsp], eax
  0009d	83 7c 24 34 00	 cmp	 DWORD PTR b2$[rsp], 0
  000a2	74 25		 je	 SHORT $LN9@z900_test_
  000a4	48 63 44 24 34	 movsxd	 rax, DWORD PTR b2$[rsp]
  000a9	48 8b 8c 24 98
	00 00 00	 mov	 rcx, QWORD PTR regs$[rsp]
  000b1	48 8b 84 c1 80
	02 00 00	 mov	 rax, QWORD PTR [rcx+rax*8+640]
  000b9	48 8b 4c 24 28	 mov	 rcx, QWORD PTR effective_addr2$[rsp]
  000be	48 03 c8	 add	 rcx, rax
  000c1	48 8b c1	 mov	 rax, rcx
  000c4	48 89 44 24 28	 mov	 QWORD PTR effective_addr2$[rsp], rax
$LN9@z900_test_:
  000c9	48 8b 84 24 98
	00 00 00	 mov	 rax, QWORD PTR regs$[rsp]
  000d1	48 8b 80 90 00
	00 00		 mov	 rax, QWORD PTR [rax+144]
  000d8	48 8b 4c 24 28	 mov	 rcx, QWORD PTR effective_addr2$[rsp]
  000dd	48 23 c8	 and	 rcx, rax
  000e0	48 8b c1	 mov	 rax, rcx
  000e3	48 89 44 24 28	 mov	 QWORD PTR effective_addr2$[rsp], rax
$LN4@z900_test_:
  000e8	48 8b 84 24 98
	00 00 00	 mov	 rax, QWORD PTR regs$[rsp]
  000f0	48 8b 40 68	 mov	 rax, QWORD PTR [rax+104]
  000f4	48 83 c0 06	 add	 rax, 6
  000f8	48 8b 8c 24 98
	00 00 00	 mov	 rcx, QWORD PTR regs$[rsp]
  00100	48 89 41 68	 mov	 QWORD PTR [rcx+104], rax
  00104	33 c0		 xor	 eax, eax
  00106	83 f8 06	 cmp	 eax, 6
  00109	74 0f		 je	 SHORT $LN10@z900_test_
  0010b	48 8b 84 24 98
	00 00 00	 mov	 rax, QWORD PTR regs$[rsp]
  00113	c6 80 9a 00 00
	00 06		 mov	 BYTE PTR [rax+154], 6
$LN10@z900_test_:
  0011a	33 c0		 xor	 eax, eax
  0011c	85 c0		 test	 eax, eax
  0011e	75 c8		 jne	 SHORT $LN4@z900_test_
$LN7@z900_test_:

; 5071 :     TXF_FLOAT_INSTR_CHECK( regs );

  00120	33 c0		 xor	 eax, eax
  00122	83 f8 01	 cmp	 eax, 1
  00125	0f 84 81 00 00
	00		 je	 $LN11@z900_test_
  0012b	48 8b 84 24 98
	00 00 00	 mov	 rax, QWORD PTR regs$[rsp]
  00133	0f b6 80 58 0e
	00 00		 movzx	 eax, BYTE PTR [rax+3672]
  0013a	85 c0		 test	 eax, eax
  0013c	74 6e		 je	 SHORT $LN11@z900_test_
  0013e	33 c0		 xor	 eax, eax
  00140	85 c0		 test	 eax, eax
  00142	75 29		 jne	 SHORT $LN12@z900_test_
  00144	48 8b 84 24 98
	00 00 00	 mov	 rax, QWORD PTR regs$[rsp]
  0014c	0f b6 80 4c 0e
	00 00		 movzx	 eax, BYTE PTR [rax+3660]
  00153	85 c0		 test	 eax, eax
  00155	75 16		 jne	 SHORT $LN12@z900_test_
  00157	48 8b 84 24 98
	00 00 00	 mov	 rax, QWORD PTR regs$[rsp]
  0015f	0f b6 80 59 0e
	00 00		 movzx	 eax, BYTE PTR [rax+3673]
  00166	83 e0 04	 and	 eax, 4
  00169	85 c0		 test	 eax, eax
  0016b	75 3f		 jne	 SHORT $LN11@z900_test_
$LN12@z900_test_:
  0016d	48 8b 84 24 98
	00 00 00	 mov	 rax, QWORD PTR regs$[rsp]
  00175	8b 80 84 af 00
	00		 mov	 eax, DWORD PTR [rax+44932]
  0017b	0f ba e8 0b	 bts	 eax, 11
  0017f	48 8b 8c 24 98
	00 00 00	 mov	 rcx, QWORD PTR regs$[rsp]
  00187	89 81 84 af 00
	00		 mov	 DWORD PTR [rcx+44932], eax
  0018d	4c 8d 0d 00 00
	00 00		 lea	 r9, OFFSET FLAT:$SG201480
  00194	41 b8 0b 00 00
	00		 mov	 r8d, 11
  0019a	ba 02 00 00 00	 mov	 edx, 2
  0019f	48 8b 8c 24 98
	00 00 00	 mov	 rcx, QWORD PTR regs$[rsp]
  001a7	e8 00 00 00 00	 call	 z900_abort_transaction
$LN11@z900_test_:
  001ac	33 c0		 xor	 eax, eax
  001ae	85 c0		 test	 eax, eax
  001b0	0f 85 6a ff ff
	ff		 jne	 $LN7@z900_test_

; 5072 :     BFPINST_CHECK( regs );

  001b6	b8 08 00 00 00	 mov	 eax, 8
  001bb	48 6b c0 01	 imul	 rax, rax, 1
  001bf	48 8b 8c 24 98
	00 00 00	 mov	 rcx, QWORD PTR regs$[rsp]
  001c7	48 8b 84 01 00
	06 00 00	 mov	 rax, QWORD PTR [rcx+rax+1536]
  001cf	48 25 00 00 04
	00		 and	 rax, 262144		; 00040000H
  001d5	48 85 c0	 test	 rax, rax
  001d8	74 42		 je	 SHORT $LN14@z900_test_
  001da	48 8b 84 24 98
	00 00 00	 mov	 rax, QWORD PTR regs$[rsp]
  001e2	8b 80 c8 08 00
	00		 mov	 eax, DWORD PTR [rax+2248]
  001e8	d1 e8		 shr	 eax, 1
  001ea	83 e0 01	 and	 eax, 1
  001ed	85 c0		 test	 eax, eax
  001ef	74 58		 je	 SHORT $LN13@z900_test_
  001f1	48 8b 84 24 98
	00 00 00	 mov	 rax, QWORD PTR regs$[rsp]
  001f9	48 8b 80 68 08
	00 00		 mov	 rax, QWORD PTR [rax+2152]
  00200	b9 08 00 00 00	 mov	 ecx, 8
  00205	48 6b c9 01	 imul	 rcx, rcx, 1
  00209	48 8b 84 08 00
	06 00 00	 mov	 rax, QWORD PTR [rax+rcx+1536]
  00211	48 25 00 00 04
	00		 and	 rax, 262144		; 00040000H
  00217	48 85 c0	 test	 rax, rax
  0021a	75 2d		 jne	 SHORT $LN13@z900_test_
$LN14@z900_test_:
  0021c	48 8b 84 24 98
	00 00 00	 mov	 rax, QWORD PTR regs$[rsp]
  00224	c7 80 08 07 00
	00 02 00 00 00	 mov	 DWORD PTR [rax+1800], 2
  0022e	ba 07 00 00 00	 mov	 edx, 7
  00233	48 8b 8c 24 98
	00 00 00	 mov	 rcx, QWORD PTR regs$[rsp]
  0023b	48 8b 84 24 98
	00 00 00	 mov	 rax, QWORD PTR regs$[rsp]
  00243	ff 90 20 0d 00
	00		 call	 QWORD PTR [rax+3360]
$LN13@z900_test_:

; 5073 :     BFPREGPAIR_CHECK( r1, regs );

  00249	8b 44 24 38	 mov	 eax, DWORD PTR r1$[rsp]
  0024d	83 e0 02	 and	 eax, 2
  00250	85 c0		 test	 eax, eax
  00252	74 1b		 je	 SHORT $LN15@z900_test_
  00254	ba 06 00 00 00	 mov	 edx, 6
  00259	48 8b 8c 24 98
	00 00 00	 mov	 rcx, QWORD PTR regs$[rsp]
  00261	48 8b 84 24 98
	00 00 00	 mov	 rax, QWORD PTR regs$[rsp]
  00269	ff 90 20 0d 00
	00		 call	 QWORD PTR [rax+3360]
$LN15@z900_test_:

; 5074 : 
; 5075 :     GET_FLOAT128_OP( op1, r1, regs );

  0026f	8b 44 24 38	 mov	 eax, DWORD PTR r1$[rsp]
  00273	d1 e0		 shl	 eax, 1
  00275	48 98		 cdqe
  00277	48 8b 8c 24 98
	00 00 00	 mov	 rcx, QWORD PTR regs$[rsp]
  0027f	48 8d 84 81 40
	03 00 00	 lea	 rax, QWORD PTR [rcx+rax*4+832]
  00287	48 8b d0	 mov	 rdx, rax
  0028a	48 8d 4c 24 50	 lea	 rcx, QWORD PTR op1$[rsp]
  0028f	e8 00 00 00 00	 call	 z900_get_float128

; 5076 : 
; 5077 :     regs->psw.cc = !!(((U32)effective_addr2) & float128_class( op1 ));

  00294	48 8d 44 24 40	 lea	 rax, QWORD PTR $T2[rsp]
  00299	48 8d 4c 24 50	 lea	 rcx, QWORD PTR op1$[rsp]
  0029e	48 8b f8	 mov	 rdi, rax
  002a1	48 8b f1	 mov	 rsi, rcx
  002a4	b9 10 00 00 00	 mov	 ecx, 16
  002a9	f3 a4		 rep movsb
  002ab	48 8d 4c 24 40	 lea	 rcx, QWORD PTR $T2[rsp]
  002b0	e8 00 00 00 00	 call	 float128_class
  002b5	8b 4c 24 28	 mov	 ecx, DWORD PTR effective_addr2$[rsp]
  002b9	23 c8		 and	 ecx, eax
  002bb	8b c1		 mov	 eax, ecx
  002bd	85 c0		 test	 eax, eax
  002bf	74 0a		 je	 SHORT $LN17@z900_test_
  002c1	c7 44 24 3c 01
	00 00 00	 mov	 DWORD PTR tv188[rsp], 1
  002c9	eb 08		 jmp	 SHORT $LN18@z900_test_
$LN17@z900_test_:
  002cb	c7 44 24 3c 00
	00 00 00	 mov	 DWORD PTR tv188[rsp], 0
$LN18@z900_test_:
  002d3	48 8b 84 24 98
	00 00 00	 mov	 rax, QWORD PTR regs$[rsp]
  002db	0f b6 4c 24 3c	 movzx	 ecx, BYTE PTR tv188[rsp]
  002e0	88 48 7c	 mov	 BYTE PTR [rax+124], cl

; 5078 : }

  002e3	48 8b 4c 24 60	 mov	 rcx, QWORD PTR __$ArrayPad$[rsp]
  002e8	48 33 cc	 xor	 rcx, rsp
  002eb	e8 00 00 00 00	 call	 __security_check_cookie
  002f0	48 83 c4 78	 add	 rsp, 120		; 00000078H
  002f4	5f		 pop	 rdi
  002f5	5e		 pop	 rsi
  002f6	c3		 ret	 0
z900_test_data_class_bfp_ext ENDP
_TEXT	ENDS
; Function compile flags: /Odtp
; File C:\papa\MyGit\hyperion-zvector\ieee.c
_TEXT	SEGMENT
ans$ = 32
ieee_trap_conds$ = 36
i$1 = 40
tv214 = 44
r1$ = 48
tv230 = 52
tv233 = 56
tv235 = 60
tv236 = 64
r2$ = 68
op2$ = 72
op1$ = 76
inst$ = 96
regs$ = 104
z900_subtract_bfp_short_reg PROC

; 4949 : {

$LN34:
  00000	48 89 54 24 10	 mov	 QWORD PTR [rsp+16], rdx
  00005	48 89 4c 24 08	 mov	 QWORD PTR [rsp+8], rcx
  0000a	48 83 ec 58	 sub	 rsp, 88			; 00000058H

; 4950 :     int        r1, r2;
; 4951 :     float32_t  op1, op2, ans;
; 4952 :     U32        ieee_trap_conds = 0;

  0000e	c7 44 24 24 00
	00 00 00	 mov	 DWORD PTR ieee_trap_conds$[rsp], 0

; 4953 : 
; 4954 :     RRE( inst, regs, r1, r2 );

  00016	b8 01 00 00 00	 mov	 eax, 1
  0001b	48 6b c0 03	 imul	 rax, rax, 3
  0001f	48 8b 4c 24 60	 mov	 rcx, QWORD PTR inst$[rsp]
  00024	0f b6 04 01	 movzx	 eax, BYTE PTR [rcx+rax]
  00028	89 44 24 28	 mov	 DWORD PTR i$1[rsp], eax
  0002c	8b 44 24 28	 mov	 eax, DWORD PTR i$1[rsp]
  00030	83 e0 0f	 and	 eax, 15
  00033	89 44 24 44	 mov	 DWORD PTR r2$[rsp], eax
  00037	8b 44 24 28	 mov	 eax, DWORD PTR i$1[rsp]
  0003b	c1 f8 04	 sar	 eax, 4
  0003e	83 e0 0f	 and	 eax, 15
  00041	89 44 24 30	 mov	 DWORD PTR r1$[rsp], eax
$LN4@z900_subtr:
  00045	48 8b 44 24 68	 mov	 rax, QWORD PTR regs$[rsp]
  0004a	48 8b 40 68	 mov	 rax, QWORD PTR [rax+104]
  0004e	48 83 c0 04	 add	 rax, 4
  00052	48 8b 4c 24 68	 mov	 rcx, QWORD PTR regs$[rsp]
  00057	48 89 41 68	 mov	 QWORD PTR [rcx+104], rax
  0005b	33 c0		 xor	 eax, eax
  0005d	83 f8 04	 cmp	 eax, 4
  00060	74 0c		 je	 SHORT $LN14@z900_subtr
  00062	48 8b 44 24 68	 mov	 rax, QWORD PTR regs$[rsp]
  00067	c6 80 9a 00 00
	00 04		 mov	 BYTE PTR [rax+154], 4
$LN14@z900_subtr:
  0006e	33 c0		 xor	 eax, eax
  00070	85 c0		 test	 eax, eax
  00072	75 d1		 jne	 SHORT $LN4@z900_subtr
$LN7@z900_subtr:

; 4955 :     TXF_FLOAT_INSTR_CHECK( regs );

  00074	33 c0		 xor	 eax, eax
  00076	83 f8 01	 cmp	 eax, 1
  00079	74 6f		 je	 SHORT $LN15@z900_subtr
  0007b	48 8b 44 24 68	 mov	 rax, QWORD PTR regs$[rsp]
  00080	0f b6 80 58 0e
	00 00		 movzx	 eax, BYTE PTR [rax+3672]
  00087	85 c0		 test	 eax, eax
  00089	74 5f		 je	 SHORT $LN15@z900_subtr
  0008b	33 c0		 xor	 eax, eax
  0008d	85 c0		 test	 eax, eax
  0008f	75 23		 jne	 SHORT $LN16@z900_subtr
  00091	48 8b 44 24 68	 mov	 rax, QWORD PTR regs$[rsp]
  00096	0f b6 80 4c 0e
	00 00		 movzx	 eax, BYTE PTR [rax+3660]
  0009d	85 c0		 test	 eax, eax
  0009f	75 13		 jne	 SHORT $LN16@z900_subtr
  000a1	48 8b 44 24 68	 mov	 rax, QWORD PTR regs$[rsp]
  000a6	0f b6 80 59 0e
	00 00		 movzx	 eax, BYTE PTR [rax+3673]
  000ad	83 e0 04	 and	 eax, 4
  000b0	85 c0		 test	 eax, eax
  000b2	75 36		 jne	 SHORT $LN15@z900_subtr
$LN16@z900_subtr:
  000b4	48 8b 44 24 68	 mov	 rax, QWORD PTR regs$[rsp]
  000b9	8b 80 84 af 00
	00		 mov	 eax, DWORD PTR [rax+44932]
  000bf	0f ba e8 0b	 bts	 eax, 11
  000c3	48 8b 4c 24 68	 mov	 rcx, QWORD PTR regs$[rsp]
  000c8	89 81 84 af 00
	00		 mov	 DWORD PTR [rcx+44932], eax
  000ce	4c 8d 0d 00 00
	00 00		 lea	 r9, OFFSET FLAT:$SG201363
  000d5	41 b8 0b 00 00
	00		 mov	 r8d, 11
  000db	ba 02 00 00 00	 mov	 edx, 2
  000e0	48 8b 4c 24 68	 mov	 rcx, QWORD PTR regs$[rsp]
  000e5	e8 00 00 00 00	 call	 z900_abort_transaction
$LN15@z900_subtr:
  000ea	33 c0		 xor	 eax, eax
  000ec	85 c0		 test	 eax, eax
  000ee	75 84		 jne	 SHORT $LN7@z900_subtr

; 4956 :     BFPINST_CHECK( regs );

  000f0	b8 08 00 00 00	 mov	 eax, 8
  000f5	48 6b c0 01	 imul	 rax, rax, 1
  000f9	48 8b 4c 24 68	 mov	 rcx, QWORD PTR regs$[rsp]
  000fe	48 8b 84 01 00
	06 00 00	 mov	 rax, QWORD PTR [rcx+rax+1536]
  00106	48 25 00 00 04
	00		 and	 rax, 262144		; 00040000H
  0010c	48 85 c0	 test	 rax, rax
  0010f	74 3c		 je	 SHORT $LN18@z900_subtr
  00111	48 8b 44 24 68	 mov	 rax, QWORD PTR regs$[rsp]
  00116	8b 80 c8 08 00
	00		 mov	 eax, DWORD PTR [rax+2248]
  0011c	d1 e8		 shr	 eax, 1
  0011e	83 e0 01	 and	 eax, 1
  00121	85 c0		 test	 eax, eax
  00123	74 4c		 je	 SHORT $LN17@z900_subtr
  00125	48 8b 44 24 68	 mov	 rax, QWORD PTR regs$[rsp]
  0012a	48 8b 80 68 08
	00 00		 mov	 rax, QWORD PTR [rax+2152]
  00131	b9 08 00 00 00	 mov	 ecx, 8
  00136	48 6b c9 01	 imul	 rcx, rcx, 1
  0013a	48 8b 84 08 00
	06 00 00	 mov	 rax, QWORD PTR [rax+rcx+1536]
  00142	48 25 00 00 04
	00		 and	 rax, 262144		; 00040000H
  00148	48 85 c0	 test	 rax, rax
  0014b	75 24		 jne	 SHORT $LN17@z900_subtr
$LN18@z900_subtr:
  0014d	48 8b 44 24 68	 mov	 rax, QWORD PTR regs$[rsp]
  00152	c7 80 08 07 00
	00 02 00 00 00	 mov	 DWORD PTR [rax+1800], 2
  0015c	ba 07 00 00 00	 mov	 edx, 7
  00161	48 8b 4c 24 68	 mov	 rcx, QWORD PTR regs$[rsp]
  00166	48 8b 44 24 68	 mov	 rax, QWORD PTR regs$[rsp]
  0016b	ff 90 20 0d 00
	00		 call	 QWORD PTR [rax+3360]
$LN17@z900_subtr:
$LN10@z900_subtr:

; 4957 : 
; 4958 :     GET_FLOAT32_OPS( op1, r1, op2, r2, regs );

  00171	8b 44 24 30	 mov	 eax, DWORD PTR r1$[rsp]
  00175	d1 e0		 shl	 eax, 1
  00177	48 98		 cdqe
  00179	48 8b 4c 24 68	 mov	 rcx, QWORD PTR regs$[rsp]
  0017e	48 8d 84 81 40
	03 00 00	 lea	 rax, QWORD PTR [rcx+rax*4+832]
  00186	48 8b d0	 mov	 rdx, rax
  00189	48 8d 4c 24 4c	 lea	 rcx, QWORD PTR op1$[rsp]
  0018e	e8 00 00 00 00	 call	 z900_get_float32
  00193	8b 44 24 44	 mov	 eax, DWORD PTR r2$[rsp]
  00197	d1 e0		 shl	 eax, 1
  00199	48 98		 cdqe
  0019b	48 8b 4c 24 68	 mov	 rcx, QWORD PTR regs$[rsp]
  001a0	48 8d 84 81 40
	03 00 00	 lea	 rax, QWORD PTR [rcx+rax*4+832]
  001a8	48 8b d0	 mov	 rdx, rax
  001ab	48 8d 4c 24 48	 lea	 rcx, QWORD PTR op2$[rsp]
  001b0	e8 00 00 00 00	 call	 z900_get_float32
  001b5	33 c0		 xor	 eax, eax
  001b7	85 c0		 test	 eax, eax
  001b9	75 b6		 jne	 SHORT $LN10@z900_subtr

; 4959 : 
; 4960 :     softfloat_exceptionFlags = 0;

  001bb	b8 00 00 00 00	 mov	 eax, OFFSET FLAT:softfloat_exceptionFlags
  001c0	8b c0		 mov	 eax, eax
  001c2	8b 0d 00 00 00
	00		 mov	 ecx, DWORD PTR _tls_index
  001c8	65 48 8b 14 25
	58 00 00 00	 mov	 rdx, QWORD PTR gs:88
  001d1	48 8b 0c ca	 mov	 rcx, QWORD PTR [rdx+rcx*8]
  001d5	c6 04 08 00	 mov	 BYTE PTR [rax+rcx], 0

; 4961 :     SET_SF_RM_FROM_FPC;

  001d9	48 8b 44 24 68	 mov	 rax, QWORD PTR regs$[rsp]
  001de	8b 80 c0 03 00
	00		 mov	 eax, DWORD PTR [rax+960]
  001e4	83 e0 07	 and	 eax, 7
  001e7	8b c0		 mov	 eax, eax
  001e9	48 8d 0d 00 00
	00 00		 lea	 rcx, OFFSET FLAT:map_fpc_brm_to_sf_rm
  001f0	ba 00 00 00 00	 mov	 edx, OFFSET FLAT:softfloat_roundingMode
  001f5	8b d2		 mov	 edx, edx
  001f7	44 8b 05 00 00
	00 00		 mov	 r8d, DWORD PTR _tls_index
  001fe	65 4c 8b 0c 25
	58 00 00 00	 mov	 r9, QWORD PTR gs:88
  00207	4f 8b 04 c1	 mov	 r8, QWORD PTR [r9+r8*8]
  0020b	0f b6 04 01	 movzx	 eax, BYTE PTR [rcx+rax]
  0020f	42 88 04 02	 mov	 BYTE PTR [rdx+r8], al

; 4962 : 
; 4963 :     ans = f32_sub( op1, op2 );

  00213	8b 54 24 48	 mov	 edx, DWORD PTR op2$[rsp]
  00217	8b 4c 24 4c	 mov	 ecx, DWORD PTR op1$[rsp]
  0021b	e8 00 00 00 00	 call	 f32_sub
  00220	89 44 24 20	 mov	 DWORD PTR ans$[rsp], eax

; 4964 : 
; 4965 :     if (softfloat_exceptionFlags)

  00224	b8 00 00 00 00	 mov	 eax, OFFSET FLAT:softfloat_exceptionFlags
  00229	8b c0		 mov	 eax, eax
  0022b	8b 0d 00 00 00
	00		 mov	 ecx, DWORD PTR _tls_index
  00231	65 48 8b 14 25
	58 00 00 00	 mov	 rdx, QWORD PTR gs:88
  0023a	48 8b 0c ca	 mov	 rcx, QWORD PTR [rdx+rcx*8]
  0023e	0f b6 04 01	 movzx	 eax, BYTE PTR [rcx+rax]
  00242	85 c0		 test	 eax, eax
  00244	0f 84 93 00 00
	00		 je	 $LN19@z900_subtr

; 4966 :     {
; 4967 :         IEEE_EXCEPTION_TRAP_XI( regs );

  0024a	33 c0		 xor	 eax, eax
  0024c	83 f8 01	 cmp	 eax, 1
  0024f	74 45		 je	 SHORT $LN20@z900_subtr
  00251	b8 00 00 00 00	 mov	 eax, OFFSET FLAT:softfloat_exceptionFlags
  00256	8b c0		 mov	 eax, eax
  00258	8b 0d 00 00 00
	00		 mov	 ecx, DWORD PTR _tls_index
  0025e	65 48 8b 14 25
	58 00 00 00	 mov	 rdx, QWORD PTR gs:88
  00267	48 8b 0c ca	 mov	 rcx, QWORD PTR [rdx+rcx*8]
  0026b	0f b6 04 01	 movzx	 eax, BYTE PTR [rcx+rax]
  0026f	83 e0 10	 and	 eax, 16
  00272	85 c0		 test	 eax, eax
  00274	74 20		 je	 SHORT $LN20@z900_subtr
  00276	48 8b 44 24 68	 mov	 rax, QWORD PTR regs$[rsp]
  0027b	8b 80 c0 03 00
	00		 mov	 eax, DWORD PTR [rax+960]
  00281	25 00 00 00 80	 and	 eax, -2147483648	; 80000000H
  00286	85 c0		 test	 eax, eax
  00288	74 0c		 je	 SHORT $LN20@z900_subtr
  0028a	b2 80		 mov	 dl, 128			; 00000080H
  0028c	48 8b 4c 24 68	 mov	 rcx, QWORD PTR regs$[rsp]
  00291	e8 00 00 00 00	 call	 ieee_trap
$LN20@z900_subtr:

; 4968 :         ieee_trap_conds = ieee_exception_test_oux( regs );

  00296	48 8b 4c 24 68	 mov	 rcx, QWORD PTR regs$[rsp]
  0029b	e8 00 00 00 00	 call	 ieee_exception_test_oux
  002a0	89 44 24 24	 mov	 DWORD PTR ieee_trap_conds$[rsp], eax

; 4969 : 
; 4970 :         if (ieee_trap_conds & (FPC_MASK_IMO | FPC_MASK_IMU))

  002a4	8b 44 24 24	 mov	 eax, DWORD PTR ieee_trap_conds$[rsp]
  002a8	25 00 00 00 30	 and	 eax, 805306368		; 30000000H
  002ad	85 c0		 test	 eax, eax
  002af	74 2c		 je	 SHORT $LN21@z900_subtr

; 4971 :             ans = f32_scaledResult( ieee_trap_conds & FPC_MASK_IMO ?

  002b1	8b 44 24 24	 mov	 eax, DWORD PTR ieee_trap_conds$[rsp]
  002b5	25 00 00 00 20	 and	 eax, 536870912		; 20000000H
  002ba	85 c0		 test	 eax, eax
  002bc	74 0a		 je	 SHORT $LN24@z900_subtr
  002be	c7 44 24 2c 40
	ff ff ff	 mov	 DWORD PTR tv214[rsp], -192 ; ffffffffffffff40H
  002c6	eb 08		 jmp	 SHORT $LN25@z900_subtr
$LN24@z900_subtr:
  002c8	c7 44 24 2c c0
	00 00 00	 mov	 DWORD PTR tv214[rsp], 192 ; 000000c0H
$LN25@z900_subtr:
  002d0	8b 4c 24 2c	 mov	 ecx, DWORD PTR tv214[rsp]
  002d4	e8 00 00 00 00	 call	 f32_scaledResult
  002d9	89 44 24 20	 mov	 DWORD PTR ans$[rsp], eax
$LN21@z900_subtr:
$LN19@z900_subtr:
$LN13@z900_subtr:

; 4972 :                 SCALE_FACTOR_ARITH_OFLOW_SHORT :
; 4973 :                 SCALE_FACTOR_ARITH_UFLOW_SHORT );
; 4974 :     }
; 4975 : 
; 4976 :     PUT_FLOAT32_CC( ans, r1, regs );

  002dd	8b 44 24 30	 mov	 eax, DWORD PTR r1$[rsp]
  002e1	d1 e0		 shl	 eax, 1
  002e3	48 98		 cdqe
  002e5	48 8b 4c 24 68	 mov	 rcx, QWORD PTR regs$[rsp]
  002ea	48 8d 84 81 40
	03 00 00	 lea	 rax, QWORD PTR [rcx+rax*4+832]
  002f2	48 8b d0	 mov	 rdx, rax
  002f5	48 8d 4c 24 20	 lea	 rcx, QWORD PTR ans$[rsp]
  002fa	e8 00 00 00 00	 call	 z900_put_float32
  002ff	8b 44 24 20	 mov	 eax, DWORD PTR ans$[rsp]
  00303	25 00 00 80 7f	 and	 eax, 2139095040		; 7f800000H
  00308	3d 00 00 80 7f	 cmp	 eax, 2139095040		; 7f800000H
  0030d	75 17		 jne	 SHORT $LN26@z900_subtr
  0030f	8b 44 24 20	 mov	 eax, DWORD PTR ans$[rsp]
  00313	25 ff ff 7f 00	 and	 eax, 8388607		; 007fffffH
  00318	85 c0		 test	 eax, eax
  0031a	74 0a		 je	 SHORT $LN26@z900_subtr
  0031c	c7 44 24 40 03
	00 00 00	 mov	 DWORD PTR tv236[rsp], 3
  00324	eb 5e		 jmp	 SHORT $LN33@z900_subtr
$LN26@z900_subtr:
  00326	8b 44 24 20	 mov	 eax, DWORD PTR ans$[rsp]
  0032a	0f ba f0 1f	 btr	 eax, 31
  0032e	85 c0		 test	 eax, eax
  00330	75 0a		 jne	 SHORT $LN27@z900_subtr
  00332	c7 44 24 34 01
	00 00 00	 mov	 DWORD PTR tv230[rsp], 1
  0033a	eb 08		 jmp	 SHORT $LN28@z900_subtr
$LN27@z900_subtr:
  0033c	c7 44 24 34 00
	00 00 00	 mov	 DWORD PTR tv230[rsp], 0
$LN28@z900_subtr:
  00344	83 7c 24 34 00	 cmp	 DWORD PTR tv230[rsp], 0
  00349	74 0a		 je	 SHORT $LN31@z900_subtr
  0034b	c7 44 24 3c 00
	00 00 00	 mov	 DWORD PTR tv235[rsp], 0
  00353	eb 27		 jmp	 SHORT $LN32@z900_subtr
$LN31@z900_subtr:
  00355	8b 44 24 20	 mov	 eax, DWORD PTR ans$[rsp]
  00359	25 00 00 00 80	 and	 eax, -2147483648	; 80000000H
  0035e	85 c0		 test	 eax, eax
  00360	74 0a		 je	 SHORT $LN29@z900_subtr
  00362	c7 44 24 38 01
	00 00 00	 mov	 DWORD PTR tv233[rsp], 1
  0036a	eb 08		 jmp	 SHORT $LN30@z900_subtr
$LN29@z900_subtr:
  0036c	c7 44 24 38 02
	00 00 00	 mov	 DWORD PTR tv233[rsp], 2
$LN30@z900_subtr:
  00374	8b 44 24 38	 mov	 eax, DWORD PTR tv233[rsp]
  00378	89 44 24 3c	 mov	 DWORD PTR tv235[rsp], eax
$LN32@z900_subtr:
  0037c	8b 44 24 3c	 mov	 eax, DWORD PTR tv235[rsp]
  00380	89 44 24 40	 mov	 DWORD PTR tv236[rsp], eax
$LN33@z900_subtr:
  00384	48 8b 44 24 68	 mov	 rax, QWORD PTR regs$[rsp]
  00389	0f b6 4c 24 40	 movzx	 ecx, BYTE PTR tv236[rsp]
  0038e	88 48 7c	 mov	 BYTE PTR [rax+124], cl
  00391	33 c0		 xor	 eax, eax
  00393	85 c0		 test	 eax, eax
  00395	0f 85 42 ff ff
	ff		 jne	 $LN13@z900_subtr

; 4977 : 
; 4978 :     IEEE_EXCEPTION_TRAP( regs, ieee_trap_conds,

  0039b	8b 44 24 24	 mov	 eax, DWORD PTR ieee_trap_conds$[rsp]
  0039f	25 00 00 00 38	 and	 eax, 939524096		; 38000000H
  003a4	85 c0		 test	 eax, eax
  003a6	74 0e		 je	 SHORT $LN22@z900_subtr
  003a8	8b 54 24 24	 mov	 edx, DWORD PTR ieee_trap_conds$[rsp]
  003ac	48 8b 4c 24 68	 mov	 rcx, QWORD PTR regs$[rsp]
  003b1	e8 00 00 00 00	 call	 ieee_cond_trap
$LN22@z900_subtr:

; 4979 :         FPC_MASK_IMO | FPC_MASK_IMU | FPC_MASK_IMX );
; 4980 : }

  003b6	48 83 c4 58	 add	 rsp, 88			; 00000058H
  003ba	c3		 ret	 0
z900_subtract_bfp_short_reg ENDP
_TEXT	ENDS
; Function compile flags: /Odtp
; File C:\papa\MyGit\hyperion-zvector\ieee.c
_TEXT	SEGMENT
ans$ = 32
ieee_trap_conds$ = 36
temp$1 = 40
b2$ = 44
x2$ = 48
effective_addr2$ = 56
tv235 = 64
r1$ = 68
tv251 = 72
tv254 = 76
tv256 = 80
tv257 = 84
op2$ = 88
op1$ = 92
inst$ = 112
regs$ = 120
z900_subtract_bfp_short PROC

; 4986 : {

$LN33:
  00000	48 89 54 24 10	 mov	 QWORD PTR [rsp+16], rdx
  00005	48 89 4c 24 08	 mov	 QWORD PTR [rsp+8], rcx
  0000a	48 83 ec 68	 sub	 rsp, 104		; 00000068H

; 4987 :     int        r1, x2, b2;
; 4988 :     VADR       effective_addr2;
; 4989 :     float32_t  op1, op2, ans;
; 4990 :     U32        ieee_trap_conds = 0;

  0000e	c7 44 24 24 00
	00 00 00	 mov	 DWORD PTR ieee_trap_conds$[rsp], 0

; 4991 : 
; 4992 :     RXE( inst, regs, r1, x2, b2, effective_addr2 );

  00016	48 8b 4c 24 70	 mov	 rcx, QWORD PTR inst$[rsp]
  0001b	e8 00 00 00 00	 call	 fetch_fw_noswap
  00020	8b c8		 mov	 ecx, eax
  00022	e8 00 00 00 00	 call	 _byteswap_ulong
  00027	89 44 24 28	 mov	 DWORD PTR temp$1[rsp], eax
  0002b	8b 44 24 28	 mov	 eax, DWORD PTR temp$1[rsp]
  0002f	25 ff 0f 00 00	 and	 eax, 4095		; 00000fffH
  00034	8b c0		 mov	 eax, eax
  00036	48 89 44 24 38	 mov	 QWORD PTR effective_addr2$[rsp], rax
  0003b	8b 44 24 28	 mov	 eax, DWORD PTR temp$1[rsp]
  0003f	c1 e8 10	 shr	 eax, 16
  00042	83 e0 0f	 and	 eax, 15
  00045	89 44 24 30	 mov	 DWORD PTR x2$[rsp], eax
  00049	8b 44 24 28	 mov	 eax, DWORD PTR temp$1[rsp]
  0004d	c1 e8 14	 shr	 eax, 20
  00050	83 e0 0f	 and	 eax, 15
  00053	89 44 24 44	 mov	 DWORD PTR r1$[rsp], eax
  00057	83 7c 24 30 00	 cmp	 DWORD PTR x2$[rsp], 0
  0005c	74 22		 je	 SHORT $LN11@z900_subtr
  0005e	48 63 44 24 30	 movsxd	 rax, DWORD PTR x2$[rsp]
  00063	48 8b 4c 24 78	 mov	 rcx, QWORD PTR regs$[rsp]
  00068	48 8b 84 c1 80
	02 00 00	 mov	 rax, QWORD PTR [rcx+rax*8+640]
  00070	48 8b 4c 24 38	 mov	 rcx, QWORD PTR effective_addr2$[rsp]
  00075	48 03 c8	 add	 rcx, rax
  00078	48 8b c1	 mov	 rax, rcx
  0007b	48 89 44 24 38	 mov	 QWORD PTR effective_addr2$[rsp], rax
$LN11@z900_subtr:
  00080	8b 44 24 28	 mov	 eax, DWORD PTR temp$1[rsp]
  00084	c1 e8 0c	 shr	 eax, 12
  00087	83 e0 0f	 and	 eax, 15
  0008a	89 44 24 2c	 mov	 DWORD PTR b2$[rsp], eax
  0008e	83 7c 24 2c 00	 cmp	 DWORD PTR b2$[rsp], 0
  00093	74 22		 je	 SHORT $LN12@z900_subtr
  00095	48 63 44 24 2c	 movsxd	 rax, DWORD PTR b2$[rsp]
  0009a	48 8b 4c 24 78	 mov	 rcx, QWORD PTR regs$[rsp]
  0009f	48 8b 84 c1 80
	02 00 00	 mov	 rax, QWORD PTR [rcx+rax*8+640]
  000a7	48 8b 4c 24 38	 mov	 rcx, QWORD PTR effective_addr2$[rsp]
  000ac	48 03 c8	 add	 rcx, rax
  000af	48 8b c1	 mov	 rax, rcx
  000b2	48 89 44 24 38	 mov	 QWORD PTR effective_addr2$[rsp], rax
$LN12@z900_subtr:
  000b7	48 8b 44 24 78	 mov	 rax, QWORD PTR regs$[rsp]
  000bc	48 8b 80 90 00
	00 00		 mov	 rax, QWORD PTR [rax+144]
  000c3	48 8b 4c 24 38	 mov	 rcx, QWORD PTR effective_addr2$[rsp]
  000c8	48 23 c8	 and	 rcx, rax
  000cb	48 8b c1	 mov	 rax, rcx
  000ce	48 89 44 24 38	 mov	 QWORD PTR effective_addr2$[rsp], rax
$LN4@z900_subtr:
  000d3	48 8b 44 24 78	 mov	 rax, QWORD PTR regs$[rsp]
  000d8	48 8b 40 68	 mov	 rax, QWORD PTR [rax+104]
  000dc	48 83 c0 06	 add	 rax, 6
  000e0	48 8b 4c 24 78	 mov	 rcx, QWORD PTR regs$[rsp]
  000e5	48 89 41 68	 mov	 QWORD PTR [rcx+104], rax
  000e9	33 c0		 xor	 eax, eax
  000eb	83 f8 06	 cmp	 eax, 6
  000ee	74 0c		 je	 SHORT $LN13@z900_subtr
  000f0	48 8b 44 24 78	 mov	 rax, QWORD PTR regs$[rsp]
  000f5	c6 80 9a 00 00
	00 06		 mov	 BYTE PTR [rax+154], 6
$LN13@z900_subtr:
  000fc	33 c0		 xor	 eax, eax
  000fe	85 c0		 test	 eax, eax
  00100	75 d1		 jne	 SHORT $LN4@z900_subtr

; 4993 :     PER_ZEROADDR_XCHECK2( regs, x2, b2 );

  00102	44 8b 44 24 2c	 mov	 r8d, DWORD PTR b2$[rsp]
  00107	8b 54 24 30	 mov	 edx, DWORD PTR x2$[rsp]
  0010b	48 8b 4c 24 78	 mov	 rcx, QWORD PTR regs$[rsp]
  00110	e8 00 00 00 00	 call	 z900_per3_zero_xcheck2
$LN7@z900_subtr:

; 4994 :     TXF_FLOAT_INSTR_CHECK( regs );

  00115	33 c0		 xor	 eax, eax
  00117	83 f8 01	 cmp	 eax, 1
  0011a	74 6f		 je	 SHORT $LN14@z900_subtr
  0011c	48 8b 44 24 78	 mov	 rax, QWORD PTR regs$[rsp]
  00121	0f b6 80 58 0e
	00 00		 movzx	 eax, BYTE PTR [rax+3672]
  00128	85 c0		 test	 eax, eax
  0012a	74 5f		 je	 SHORT $LN14@z900_subtr
  0012c	33 c0		 xor	 eax, eax
  0012e	85 c0		 test	 eax, eax
  00130	75 23		 jne	 SHORT $LN15@z900_subtr
  00132	48 8b 44 24 78	 mov	 rax, QWORD PTR regs$[rsp]
  00137	0f b6 80 4c 0e
	00 00		 movzx	 eax, BYTE PTR [rax+3660]
  0013e	85 c0		 test	 eax, eax
  00140	75 13		 jne	 SHORT $LN15@z900_subtr
  00142	48 8b 44 24 78	 mov	 rax, QWORD PTR regs$[rsp]
  00147	0f b6 80 59 0e
	00 00		 movzx	 eax, BYTE PTR [rax+3673]
  0014e	83 e0 04	 and	 eax, 4
  00151	85 c0		 test	 eax, eax
  00153	75 36		 jne	 SHORT $LN14@z900_subtr
$LN15@z900_subtr:
  00155	48 8b 44 24 78	 mov	 rax, QWORD PTR regs$[rsp]
  0015a	8b 80 84 af 00
	00		 mov	 eax, DWORD PTR [rax+44932]
  00160	0f ba e8 0b	 bts	 eax, 11
  00164	48 8b 4c 24 78	 mov	 rcx, QWORD PTR regs$[rsp]
  00169	89 81 84 af 00
	00		 mov	 DWORD PTR [rcx+44932], eax
  0016f	4c 8d 0d 00 00
	00 00		 lea	 r9, OFFSET FLAT:$SG201398
  00176	41 b8 0b 00 00
	00		 mov	 r8d, 11
  0017c	ba 02 00 00 00	 mov	 edx, 2
  00181	48 8b 4c 24 78	 mov	 rcx, QWORD PTR regs$[rsp]
  00186	e8 00 00 00 00	 call	 z900_abort_transaction
$LN14@z900_subtr:
  0018b	33 c0		 xor	 eax, eax
  0018d	85 c0		 test	 eax, eax
  0018f	75 84		 jne	 SHORT $LN7@z900_subtr

; 4995 :     BFPINST_CHECK( regs );

  00191	b8 08 00 00 00	 mov	 eax, 8
