; Listing generated by Microsoft (R) Optimizing Compiler Version 19.34.31937.0 

include listing.inc

INCLUDELIB MSVCRTD
INCLUDELIB OLDNAMES

CONST	SEGMENT
CKD_ENDTRK DB	0ffH
	DB	0ffH
	DB	0ffH
	DB	0ffH
	DB	0ffH
	DB	0ffH
	DB	0ffH
	DB	0ffH
	ORG $+8
?msbn@?1??s390_store_channel_path_status@@9@9 DB 08H	; `s390_store_channel_path_status'::`2'::msbn
	DB	07H
	DB	06H
	DB	06H
	DB	05H
	DB	05H
	DB	05H
	DB	05H
	DB	04H
	DB	04H
	DB	04H
	DB	04H
	DB	04H
	DB	04H
	DB	04H
	DB	04H
	DB	03H
	DB	03H
	DB	03H
	DB	03H
	DB	03H
	DB	03H
	DB	03H
	DB	03H
	DB	03H
	DB	03H
	DB	03H
	DB	03H
	DB	03H
	DB	03H
	DB	03H
	DB	03H
	DB	02H
	DB	02H
	DB	02H
	DB	02H
	DB	02H
	DB	02H
	DB	02H
	DB	02H
	DB	02H
	DB	02H
	DB	02H
	DB	02H
	DB	02H
	DB	02H
	DB	02H
	DB	02H
	DB	02H
	DB	02H
	DB	02H
	DB	02H
	DB	02H
	DB	02H
	DB	02H
	DB	02H
	DB	02H
	DB	02H
	DB	02H
	DB	02H
	DB	02H
	DB	02H
	DB	02H
	DB	02H
	DB	01H
	DB	01H
	DB	01H
	DB	01H
	DB	01H
	DB	01H
	DB	01H
	DB	01H
	DB	01H
	DB	01H
	DB	01H
	DB	01H
	DB	01H
	DB	01H
	DB	01H
	DB	01H
	DB	01H
	DB	01H
	DB	01H
	DB	01H
	DB	01H
	DB	01H
	DB	01H
	DB	01H
	DB	01H
	DB	01H
	DB	01H
	DB	01H
	DB	01H
	DB	01H
	DB	01H
	DB	01H
	DB	01H
	DB	01H
	DB	01H
	DB	01H
	DB	01H
	DB	01H
	DB	01H
	DB	01H
	DB	01H
	DB	01H
	DB	01H
	DB	01H
	DB	01H
	DB	01H
	DB	01H
	DB	01H
	DB	01H
	DB	01H
	DB	01H
	DB	01H
	DB	01H
	DB	01H
	DB	01H
	DB	01H
	DB	01H
	DB	01H
	DB	01H
	DB	01H
	DB	01H
	DB	01H
	DB	01H
	DB	01H
	DB	00H
	DB	00H
	DB	00H
	DB	00H
	DB	00H
	DB	00H
	DB	00H
	DB	00H
	DB	00H
	DB	00H
	DB	00H
	DB	00H
	DB	00H
	DB	00H
	DB	00H
	DB	00H
	DB	00H
	DB	00H
	DB	00H
	DB	00H
	DB	00H
	DB	00H
	DB	00H
	DB	00H
	DB	00H
	DB	00H
	DB	00H
	DB	00H
	DB	00H
	DB	00H
	DB	00H
	DB	00H
	DB	00H
	DB	00H
	DB	00H
	DB	00H
	DB	00H
	DB	00H
	DB	00H
	DB	00H
	DB	00H
	DB	00H
	DB	00H
	DB	00H
	DB	00H
	DB	00H
	DB	00H
	DB	00H
	DB	00H
	DB	00H
	DB	00H
	DB	00H
	DB	00H
	DB	00H
	DB	00H
	DB	00H
	DB	00H
	DB	00H
	DB	00H
	DB	00H
	DB	00H
	DB	00H
	DB	00H
	DB	00H
	DB	00H
	DB	00H
	DB	00H
	DB	00H
	DB	00H
	DB	00H
	DB	00H
	DB	00H
	DB	00H
	DB	00H
	DB	00H
	DB	00H
	DB	00H
	DB	00H
	DB	00H
	DB	00H
	DB	00H
	DB	00H
	DB	00H
	DB	00H
	DB	00H
	DB	00H
	DB	00H
	DB	00H
	DB	00H
	DB	00H
	DB	00H
	DB	00H
	DB	00H
	DB	00H
	DB	00H
	DB	00H
	DB	00H
	DB	00H
	DB	00H
	DB	00H
	DB	00H
	DB	00H
	DB	00H
	DB	00H
	DB	00H
	DB	00H
	DB	00H
	DB	00H
	DB	00H
	DB	00H
	DB	00H
	DB	00H
	DB	00H
	DB	00H
	DB	00H
	DB	00H
	DB	00H
	DB	00H
	DB	00H
	DB	00H
	DB	00H
	DB	00H
	DB	00H
	DB	00H
	DB	00H
	DB	00H
	DB	00H
	DB	00H
?msbn@?1??z900_store_channel_path_status@@9@9 DB 08H	; `z900_store_channel_path_status'::`2'::msbn
	DB	07H
	DB	06H
	DB	06H
	DB	05H
	DB	05H
	DB	05H
	DB	05H
	DB	04H
	DB	04H
	DB	04H
	DB	04H
	DB	04H
	DB	04H
	DB	04H
	DB	04H
	DB	03H
	DB	03H
	DB	03H
	DB	03H
	DB	03H
	DB	03H
	DB	03H
	DB	03H
	DB	03H
	DB	03H
	DB	03H
	DB	03H
	DB	03H
	DB	03H
	DB	03H
	DB	03H
	DB	02H
	DB	02H
	DB	02H
	DB	02H
	DB	02H
	DB	02H
	DB	02H
	DB	02H
	DB	02H
	DB	02H
	DB	02H
	DB	02H
	DB	02H
	DB	02H
	DB	02H
	DB	02H
	DB	02H
	DB	02H
	DB	02H
	DB	02H
	DB	02H
	DB	02H
	DB	02H
	DB	02H
	DB	02H
	DB	02H
	DB	02H
	DB	02H
	DB	02H
	DB	02H
	DB	02H
	DB	02H
	DB	01H
	DB	01H
	DB	01H
	DB	01H
	DB	01H
	DB	01H
	DB	01H
	DB	01H
	DB	01H
	DB	01H
	DB	01H
	DB	01H
	DB	01H
	DB	01H
	DB	01H
	DB	01H
	DB	01H
	DB	01H
	DB	01H
	DB	01H
	DB	01H
	DB	01H
	DB	01H
	DB	01H
	DB	01H
	DB	01H
	DB	01H
	DB	01H
	DB	01H
	DB	01H
	DB	01H
	DB	01H
	DB	01H
	DB	01H
	DB	01H
	DB	01H
	DB	01H
	DB	01H
	DB	01H
	DB	01H
	DB	01H
	DB	01H
	DB	01H
	DB	01H
	DB	01H
	DB	01H
	DB	01H
	DB	01H
	DB	01H
	DB	01H
	DB	01H
	DB	01H
	DB	01H
	DB	01H
	DB	01H
	DB	01H
	DB	01H
	DB	01H
	DB	01H
	DB	01H
	DB	01H
	DB	01H
	DB	01H
	DB	01H
	DB	00H
	DB	00H
	DB	00H
	DB	00H
	DB	00H
	DB	00H
	DB	00H
	DB	00H
	DB	00H
	DB	00H
	DB	00H
	DB	00H
	DB	00H
	DB	00H
	DB	00H
	DB	00H
	DB	00H
	DB	00H
	DB	00H
	DB	00H
	DB	00H
	DB	00H
	DB	00H
	DB	00H
	DB	00H
	DB	00H
	DB	00H
	DB	00H
	DB	00H
	DB	00H
	DB	00H
	DB	00H
	DB	00H
	DB	00H
	DB	00H
	DB	00H
	DB	00H
	DB	00H
	DB	00H
	DB	00H
	DB	00H
	DB	00H
	DB	00H
	DB	00H
	DB	00H
	DB	00H
	DB	00H
	DB	00H
	DB	00H
	DB	00H
	DB	00H
	DB	00H
	DB	00H
	DB	00H
	DB	00H
	DB	00H
	DB	00H
	DB	00H
	DB	00H
	DB	00H
	DB	00H
	DB	00H
	DB	00H
	DB	00H
	DB	00H
	DB	00H
	DB	00H
	DB	00H
	DB	00H
	DB	00H
	DB	00H
	DB	00H
	DB	00H
	DB	00H
	DB	00H
	DB	00H
	DB	00H
	DB	00H
	DB	00H
	DB	00H
	DB	00H
	DB	00H
	DB	00H
	DB	00H
	DB	00H
	DB	00H
	DB	00H
	DB	00H
	DB	00H
	DB	00H
	DB	00H
	DB	00H
	DB	00H
	DB	00H
	DB	00H
	DB	00H
	DB	00H
	DB	00H
	DB	00H
	DB	00H
	DB	00H
	DB	00H
	DB	00H
	DB	00H
	DB	00H
	DB	00H
	DB	00H
	DB	00H
	DB	00H
	DB	00H
	DB	00H
	DB	00H
	DB	00H
	DB	00H
	DB	00H
	DB	00H
	DB	00H
	DB	00H
	DB	00H
	DB	00H
	DB	00H
	DB	00H
	DB	00H
	DB	00H
	DB	00H
	DB	00H
	DB	00H
	DB	00H
CONST	ENDS
PUBLIC	s370_connect_channel_set
PUBLIC	s370_disconnect_channel_set
PUBLIC	s370_start_io
PUBLIC	s370_test_io
PUBLIC	s370_halt_io
PUBLIC	s370_test_channel
PUBLIC	s370_store_channel_id
PUBLIC	fetch_hw_noswap
PUBLIC	fetch_fw_noswap
PUBLIC	store_fw_noswap
PUBLIC	store_dw_noswap
PUBLIC	_get_storekey_ptr
PUBLIC	_get_storekey1_ptr
PUBLIC	_get_storekey2_ptr
PUBLIC	s390_cancel_subchannel
PUBLIC	s390_clear_subchannel
PUBLIC	s390_halt_subchannel
PUBLIC	s390_modify_subchannel
PUBLIC	s390_resume_subchannel
PUBLIC	s390_set_address_limit
PUBLIC	s390_set_channel_monitor
PUBLIC	s390_reset_channel_path
PUBLIC	s390_start_subchannel
PUBLIC	s390_store_channel_path_status
PUBLIC	s390_store_channel_report_word
PUBLIC	s390_store_subchannel
PUBLIC	s390_test_pending_interruption
PUBLIC	s390_test_subchannel
PUBLIC	s390__or_storage_key
PUBLIC	s390_get_ptr_to_4K_storekey
PUBLIC	s390_or_4K_storage_key
PUBLIC	s390_or_storage_key
PUBLIC	s390_get_ptr_to_storekey
PUBLIC	s390_maddr_l
PUBLIC	s390_vstore4_full
PUBLIC	s390_vstore8_full
PUBLIC	s390_vstorec
PUBLIC	s390_vstore4
PUBLIC	s390_vstore8
PUBLIC	s390_vfetchc
PUBLIC	s390_validate_operand
PUBLIC	z900_cancel_subchannel
PUBLIC	z900_clear_subchannel
PUBLIC	z900_halt_subchannel
PUBLIC	z900_modify_subchannel
PUBLIC	z900_resume_subchannel
PUBLIC	z900_set_address_limit
PUBLIC	z900_set_channel_monitor
PUBLIC	z900_reset_channel_path
PUBLIC	z900_start_subchannel
PUBLIC	z900_store_channel_path_status
PUBLIC	z900_store_channel_report_word
PUBLIC	z900_store_subchannel
PUBLIC	z900_test_pending_interruption
PUBLIC	z900_test_subchannel
PUBLIC	z900__or_storage_key
PUBLIC	z900_get_ptr_to_4K_storekey
PUBLIC	z900_or_4K_storage_key
PUBLIC	z900_or_storage_key
PUBLIC	z900_get_ptr_to_storekey
PUBLIC	z900_is_per3_event_suppressed
PUBLIC	z900_per3_zero
PUBLIC	z900_per3_zero_xcheck
PUBLIC	z900_maddr_l
PUBLIC	z900_vstore4_full
PUBLIC	z900_vstore8_full
PUBLIC	z900_vstorec
PUBLIC	z900_vstore4
PUBLIC	z900_vstore8
PUBLIC	z900_vfetchc
PUBLIC	z900_validate_operand
EXTRN	_byteswap_ushort:PROC
EXTRN	_byteswap_ulong:PROC
EXTRN	_byteswap_uint64:PROC
EXTRN	longjmp:PROC
EXTRN	__imp_hthread_obtain_lock:PROC
EXTRN	__imp_hthread_release_lock:PROC
EXTRN	__imp_hthread_signal_condition:PROC
EXTRN	__imp_hthread_wait_condition:PROC
EXTRN	__imp_ptt_pthread_trace:PROC
EXTRN	__imp_sched_yield:PROC
EXTRN	s370_startio:PROC
EXTRN	stchan_id:PROC
EXTRN	testch:PROC
EXTRN	testio:PROC
EXTRN	test_subchan:PROC
EXTRN	cancel_subchan:PROC
EXTRN	clear_subchan:PROC
EXTRN	halt_subchan:PROC
EXTRN	haltio:PROC
EXTRN	resume_subchan:PROC
EXTRN	chp_reset:PROC
EXTRN	get_next_channel_report_word:PROC
EXTRN	find_device_by_devnum:PROC
EXTRN	find_device_by_subchan:PROC
EXTRN	txf_maddr_l:PROC
EXTRN	z900_abort_transaction:PROC
EXTRN	ecpsvm_dosio:PROC
EXTRN	s390_program_interrupt:PROC
EXTRN	z900_program_interrupt:PROC
EXTRN	s390_logical_to_main_l:PROC
EXTRN	z900_logical_to_main_l:PROC
EXTRN	s390_startio:PROC
EXTRN	s390_present_io_interrupt:PROC
EXTRN	z900_startio:PROC
EXTRN	z900_present_io_interrupt:PROC
EXTRN	__GSHandlerCheck:PROC
EXTRN	__security_check_cookie:PROC
EXTRN	__imp_pttclass:QWORD
EXTRN	__imp_sysblk:BYTE
EXTRN	__security_cookie:QWORD
pdata	SEGMENT
$pdata$s370_connect_channel_set DD imagerel $LN37
	DD	imagerel $LN37+1055
	DD	imagerel $unwind$s370_connect_channel_set
$pdata$s370_disconnect_channel_set DD imagerel $LN33
	DD	imagerel $LN33+866
	DD	imagerel $unwind$s370_disconnect_channel_set
$pdata$s370_start_io DD imagerel $LN39
	DD	imagerel $LN39+1366
	DD	imagerel $unwind$s370_start_io
$pdata$s370_test_io DD imagerel $LN29
	DD	imagerel $LN29+665
	DD	imagerel $unwind$s370_test_io
$pdata$s370_halt_io DD imagerel $LN28
	DD	imagerel $LN28+645
	DD	imagerel $unwind$s370_halt_io
$pdata$s370_test_channel DD imagerel $LN23
	DD	imagerel $LN23+582
	DD	imagerel $unwind$s370_test_channel
$pdata$s370_store_channel_id DD imagerel $LN22
	DD	imagerel $LN22+475
	DD	imagerel $unwind$s370_store_channel_id
pdata	ENDS
;	COMDAT pdata
pdata	SEGMENT
$pdata$fetch_hw_noswap DD imagerel $LN3
	DD	imagerel $LN3+30
	DD	imagerel $unwind$fetch_hw_noswap
pdata	ENDS
;	COMDAT pdata
pdata	SEGMENT
$pdata$fetch_fw_noswap DD imagerel $LN3
	DD	imagerel $LN3+27
	DD	imagerel $unwind$fetch_fw_noswap
pdata	ENDS
pdata	SEGMENT
$pdata$wakeup_cpu DD imagerel wakeup_cpu
	DD	imagerel wakeup_cpu+44
	DD	imagerel $unwind$wakeup_cpu
$pdata$wakeup_cpu_mask DD imagerel wakeup_cpu_mask
	DD	imagerel wakeup_cpu_mask+251
	DD	imagerel $unwind$wakeup_cpu_mask
$pdata$Interrupt_Lock_Obtained DD imagerel Interrupt_Lock_Obtained
	DD	imagerel Interrupt_Lock_Obtained+269
	DD	imagerel $unwind$Interrupt_Lock_Obtained
$pdata$Obtain_Interrupt_Lock DD imagerel Obtain_Interrupt_Lock
	DD	imagerel Obtain_Interrupt_Lock+88
	DD	imagerel $unwind$Obtain_Interrupt_Lock
$pdata$Release_Interrupt_Lock DD imagerel Release_Interrupt_Lock
	DD	imagerel Release_Interrupt_Lock+71
	DD	imagerel $unwind$Release_Interrupt_Lock
pdata	ENDS
;	COMDAT pdata
pdata	SEGMENT
$pdata$_get_storekey_ptr DD imagerel $LN5
	DD	imagerel $LN5+104
	DD	imagerel $unwind$_get_storekey_ptr
pdata	ENDS
pdata	SEGMENT
$pdata$s390_cancel_subchannel DD imagerel $LN48
	DD	imagerel $LN48+1274
	DD	imagerel $unwind$s390_cancel_subchannel
$pdata$s390_clear_subchannel DD imagerel $LN43
	DD	imagerel $LN43+1147
	DD	imagerel $unwind$s390_clear_subchannel
$pdata$s390_halt_subchannel DD imagerel $LN48
	DD	imagerel $LN48+1279
	DD	imagerel $unwind$s390_halt_subchannel
$pdata$s390_modify_subchannel DD imagerel $LN58
	DD	imagerel $LN58+2467
	DD	imagerel $unwind$s390_modify_subchannel
$pdata$s390_resume_subchannel DD imagerel $LN48
	DD	imagerel $LN48+1303
	DD	imagerel $unwind$s390_resume_subchannel
$pdata$s390_set_address_limit DD imagerel $LN19
	DD	imagerel $LN19+456
	DD	imagerel $unwind$s390_set_address_limit
$pdata$s390_set_channel_monitor DD imagerel $LN35
	DD	imagerel $LN35+1273
	DD	imagerel $unwind$s390_set_channel_monitor
$pdata$s390_reset_channel_path DD imagerel $LN23
	DD	imagerel $LN23+630
	DD	imagerel $unwind$s390_reset_channel_path
$pdata$s390_start_subchannel DD imagerel $LN56
	DD	imagerel $LN56+1696
	DD	imagerel $unwind$s390_start_subchannel
$pdata$s390_store_channel_path_status DD imagerel $LN22
	DD	imagerel $LN22+876
	DD	imagerel $unwind$s390_store_channel_path_status
$pdata$s390_store_channel_report_word DD imagerel $LN29
	DD	imagerel $LN29+734
	DD	imagerel $unwind$s390_store_channel_report_word
$pdata$s390_store_subchannel DD imagerel $LN39
	DD	imagerel $LN39+1211
	DD	imagerel $unwind$s390_store_subchannel
$pdata$s390_test_pending_interruption DD imagerel $LN49
	DD	imagerel $LN49+1551
	DD	imagerel $unwind$s390_test_pending_interruption
$pdata$s390_test_subchannel DD imagerel $LN52
	DD	imagerel $LN52+1553
	DD	imagerel $unwind$s390_test_subchannel
pdata	ENDS
;	COMDAT pdata
pdata	SEGMENT
$pdata$s390__or_storage_key DD imagerel $LN8
	DD	imagerel $LN8+159
	DD	imagerel $unwind$s390__or_storage_key
pdata	ENDS
;	COMDAT pdata
pdata	SEGMENT
$pdata$s390_get_ptr_to_4K_storekey DD imagerel $LN3
	DD	imagerel $LN3+26
	DD	imagerel $unwind$s390_get_ptr_to_4K_storekey
pdata	ENDS
;	COMDAT pdata
pdata	SEGMENT
$pdata$s390_or_4K_storage_key DD imagerel $LN3
	DD	imagerel $LN3+42
	DD	imagerel $unwind$s390_or_4K_storage_key
pdata	ENDS
;	COMDAT pdata
pdata	SEGMENT
$pdata$s390_or_storage_key DD imagerel $LN3
	DD	imagerel $LN3+33
	DD	imagerel $unwind$s390_or_storage_key
pdata	ENDS
;	COMDAT pdata
pdata	SEGMENT
$pdata$s390_get_ptr_to_storekey DD imagerel $LN3
	DD	imagerel $LN3+24
	DD	imagerel $unwind$s390_get_ptr_to_storekey
pdata	ENDS
;	COMDAT pdata
pdata	SEGMENT
$pdata$s390_maddr_l DD imagerel $LN14
	DD	imagerel $LN14+474
	DD	imagerel $unwind$s390_maddr_l
pdata	ENDS
;	COMDAT pdata
pdata	SEGMENT
$pdata$s390_vstore4_full DD imagerel $LN3
	DD	imagerel $LN3+321
	DD	imagerel $unwind$s390_vstore4_full
pdata	ENDS
;	COMDAT pdata
pdata	SEGMENT
$pdata$s390_vstore8_full DD imagerel $LN3
	DD	imagerel $LN3+364
	DD	imagerel $unwind$s390_vstore8_full
pdata	ENDS
;	COMDAT pdata
pdata	SEGMENT
$pdata$s390_vstorec DD imagerel $LN9
	DD	imagerel $LN9+498
	DD	imagerel $unwind$s390_vstorec
pdata	ENDS
;	COMDAT pdata
pdata	SEGMENT
$pdata$s390_vstore4 DD imagerel $LN12
	DD	imagerel $LN12+200
	DD	imagerel $unwind$s390_vstore4
pdata	ENDS
;	COMDAT pdata
pdata	SEGMENT
$pdata$s390_vstore8 DD imagerel $LN9
	DD	imagerel $LN9+168
	DD	imagerel $unwind$s390_vstore8
pdata	ENDS
;	COMDAT pdata
pdata	SEGMENT
$pdata$s390_vfetchc DD imagerel $LN9
	DD	imagerel $LN9+432
	DD	imagerel $unwind$s390_vfetchc
pdata	ENDS
;	COMDAT pdata
pdata	SEGMENT
$pdata$s390_validate_operand DD imagerel $LN8
	DD	imagerel $LN8+185
	DD	imagerel $unwind$s390_validate_operand
pdata	ENDS
pdata	SEGMENT
$pdata$z900_cancel_subchannel DD imagerel $LN52
	DD	imagerel $LN52+1433
	DD	imagerel $unwind$z900_cancel_subchannel
$pdata$z900_clear_subchannel DD imagerel $LN47
	DD	imagerel $LN47+1292
	DD	imagerel $unwind$z900_clear_subchannel
$pdata$z900_halt_subchannel DD imagerel $LN52
	DD	imagerel $LN52+1438
	DD	imagerel $unwind$z900_halt_subchannel
$pdata$z900_modify_subchannel DD imagerel $LN62
	DD	imagerel $LN62+2705
	DD	imagerel $unwind$z900_modify_subchannel
$pdata$z900_resume_subchannel DD imagerel $LN52
	DD	imagerel $LN52+1462
	DD	imagerel $unwind$z900_resume_subchannel
$pdata$z900_set_address_limit DD imagerel $LN23
	DD	imagerel $LN23+559
	DD	imagerel $unwind$z900_set_address_limit
$pdata$z900_set_channel_monitor DD imagerel $LN39
	DD	imagerel $LN39+1376
	DD	imagerel $unwind$z900_set_channel_monitor
$pdata$z900_reset_channel_path DD imagerel $LN27
	DD	imagerel $LN27+747
	DD	imagerel $unwind$z900_reset_channel_path
$pdata$z900_start_subchannel DD imagerel $LN59
	DD	imagerel $LN59+1880
	DD	imagerel $unwind$z900_start_subchannel
$pdata$z900_store_channel_path_status DD imagerel $LN26
	DD	imagerel $LN26+1011
	DD	imagerel $unwind$z900_store_channel_path_status
$pdata$z900_store_channel_report_word DD imagerel $LN33
	DD	imagerel $LN33+884
	DD	imagerel $unwind$z900_store_channel_report_word
$pdata$z900_store_subchannel DD imagerel $LN43
	DD	imagerel $LN43+1386
	DD	imagerel $unwind$z900_store_subchannel
$pdata$z900_test_pending_interruption DD imagerel $LN51
	DD	imagerel $LN51+1595
	DD	imagerel $unwind$z900_test_pending_interruption
$pdata$z900_test_subchannel DD imagerel $LN56
	DD	imagerel $LN56+1769
	DD	imagerel $unwind$z900_test_subchannel
pdata	ENDS
;	COMDAT pdata
pdata	SEGMENT
$pdata$z900__or_storage_key DD imagerel $LN8
	DD	imagerel $LN8+159
	DD	imagerel $unwind$z900__or_storage_key
pdata	ENDS
;	COMDAT pdata
pdata	SEGMENT
$pdata$z900_get_ptr_to_4K_storekey DD imagerel $LN3
	DD	imagerel $LN3+26
	DD	imagerel $unwind$z900_get_ptr_to_4K_storekey
pdata	ENDS
;	COMDAT pdata
pdata	SEGMENT
$pdata$z900_or_4K_storage_key DD imagerel $LN3
	DD	imagerel $LN3+42
	DD	imagerel $unwind$z900_or_4K_storage_key
pdata	ENDS
;	COMDAT pdata
pdata	SEGMENT
$pdata$z900_or_storage_key DD imagerel $LN3
	DD	imagerel $LN3+33
	DD	imagerel $unwind$z900_or_storage_key
pdata	ENDS
;	COMDAT pdata
pdata	SEGMENT
$pdata$z900_get_ptr_to_storekey DD imagerel $LN3
	DD	imagerel $LN3+24
	DD	imagerel $unwind$z900_get_ptr_to_storekey
pdata	ENDS
;	COMDAT pdata
pdata	SEGMENT
$pdata$z900_per3_zero DD imagerel $LN12
	DD	imagerel $LN12+215
	DD	imagerel $unwind$z900_per3_zero
pdata	ENDS
;	COMDAT pdata
pdata	SEGMENT
$pdata$z900_per3_zero_xcheck DD imagerel $LN6
	DD	imagerel $LN6+108
	DD	imagerel $unwind$z900_per3_zero_xcheck
pdata	ENDS
;	COMDAT pdata
pdata	SEGMENT
$pdata$z900_maddr_l DD imagerel $LN18
	DD	imagerel $LN18+657
	DD	imagerel $unwind$z900_maddr_l
pdata	ENDS
;	COMDAT pdata
pdata	SEGMENT
$pdata$z900_vstore4_full DD imagerel $LN3
	DD	imagerel $LN3+332
	DD	imagerel $unwind$z900_vstore4_full
pdata	ENDS
;	COMDAT pdata
pdata	SEGMENT
$pdata$z900_vstore8_full DD imagerel $LN3
	DD	imagerel $LN3+375
	DD	imagerel $unwind$z900_vstore8_full
pdata	ENDS
;	COMDAT pdata
pdata	SEGMENT
$pdata$z900_vstorec DD imagerel $LN9
	DD	imagerel $LN9+511
	DD	imagerel $unwind$z900_vstorec
pdata	ENDS
;	COMDAT pdata
pdata	SEGMENT
$pdata$z900_vstore4 DD imagerel $LN12
	DD	imagerel $LN12+209
	DD	imagerel $unwind$z900_vstore4
pdata	ENDS
;	COMDAT pdata
pdata	SEGMENT
$pdata$z900_vstore8 DD imagerel $LN9
	DD	imagerel $LN9+174
	DD	imagerel $unwind$z900_vstore8
pdata	ENDS
;	COMDAT pdata
pdata	SEGMENT
$pdata$z900_vfetchc DD imagerel $LN9
	DD	imagerel $LN9+445
	DD	imagerel $unwind$z900_vfetchc
pdata	ENDS
;	COMDAT pdata
pdata	SEGMENT
$pdata$z900_validate_operand DD imagerel $LN8
	DD	imagerel $LN8+195
	DD	imagerel $unwind$z900_validate_operand
pdata	ENDS
_DATA	SEGMENT
$SG169840 DB	'io.c:1098', 00H
	ORG $+2
$SG169841 DB	'SIO', 00H
$SG169845 DB	'io.c:1104', 00H
	ORG $+2
$SG169846 DB	'*SIO', 00H
	ORG $+3
$SG169908 DB	'TIO', 00H
$SG169854 DB	'io.c:1148', 00H
	ORG $+2
$SG169855 DB	'*SIO', 00H
	ORG $+3
$SG169971 DB	'HIO', 00H
$SG169907 DB	'io.c:1169', 00H
	ORG $+2
$SG170021 DB	'TCH', 00H
$SG169912 DB	'io.c:1175', 00H
	ORG $+2
$SG169913 DB	'*TIO', 00H
	ORG $+3
$SG170072 DB	'STIDC', 00H
	ORG $+2
$SG170076 DB	'*STIDC', 00H
	ORG $+1
$SG180770 DB	'SAL', 00H
$SG169916 DB	'io.c:1184', 00H
	ORG $+2
$SG169917 DB	'*TIO', 00H
	ORG $+3
$SG170139 DB	'CONCS', 00H
	ORG $+2
$SG170143 DB	'*CONCS', 00H
	ORG $+1
$SG181195 DB	'TPI', 00H
$SG169970 DB	'io.c:1210', 00H
	ORG $+2
$SG170214 DB	'*DISCS', 00H
	ORG $+1
$SG194891 DB	'SAL', 00H
$SG169975 DB	'io.c:1216', 00H
	ORG $+2
$SG169976 DB	'*HIO', 00H
	ORG $+3
$SG170210 DB	'DISCS', 00H
	ORG $+2
$SG170222 DB	'*DISCS', 00H
	ORG $+1
$SG195345 DB	'TPI', 00H
$SG169979 DB	'io.c:1225', 00H
	ORG $+2
$SG169980 DB	'*HIO', 00H
	ORG $+3
$SG180333 DB	'*CSCH', 00H
	ORG $+2
$SG181045 DB	'*STCRW', 00H
	ORG $+5
$SG170020 DB	'io.c:1245', 00H
	ORG $+6
$SG170029 DB	'io.c:1268', 00H
	ORG $+2
$SG170030 DB	'*TCH', 00H
	ORG $+7
$SG170071 DB	'io.c:1285', 00H
	ORG $+6
$SG170075 DB	'io.c:1292', 00H
	ORG $+6
$SG170138 DB	'io.c:1311', 00H
	ORG $+6
$SG170142 DB	'io.c:1318', 00H
	ORG $+6
$SG170145 DB	'io.c:1334', 00H
	ORG $+6
$SG170147 DB	'io.c:1343', 00H
	ORG $+6
$SG170152 DB	'io.c:1353', 00H
	ORG $+6
$SG170153 DB	'io.c:1355', 00H
	ORG $+6
$SG170209 DB	'io.c:1376', 00H
	ORG $+6
$SG170213 DB	'io.c:1381', 00H
	ORG $+6
$SG170216 DB	'io.c:1395', 00H
	ORG $+6
$SG170221 DB	'io.c:1412', 00H
	ORG $+6
$SG170223 DB	'io.c:1414', 00H
	ORG $+6
$SG170224 DB	'io.c:1419', 00H
	ORG $+6
$SG180316 DB	'C:\papa\MyGit\hyperion-zvector\io.c:79', 00H
	ORG $+1
$SG180317 DB	'CSCH', 00H
	ORG $+3
$SG180320 DB	'C:\papa\MyGit\hyperion-zvector\io.c:85', 00H
	ORG $+1
$SG180321 DB	'CSCH (sie)', 00H
	ORG $+5
$SG180327 DB	'C:\papa\MyGit\hyperion-zvector\io.c:96', 00H
	ORG $+1
$SG180328 DB	'CSCH (dev)', 00H
	ORG $+5
$SG180332 DB	'C:\papa\MyGit\hyperion-zvector\io.c:106', 00H
$SG180335 DB	'C:\papa\MyGit\hyperion-zvector\io.c:108', 00H
$SG180336 DB	'*CSCH (sie)', 00H
	ORG $+4
$SG180420 DB	'C:\papa\MyGit\hyperion-zvector\io.c:136', 00H
$SG180421 DB	'HSCH', 00H
	ORG $+3
$SG180424 DB	'C:\papa\MyGit\hyperion-zvector\io.c:142', 00H
$SG180425 DB	'HSCH (sie)', 00H
	ORG $+5
$SG180431 DB	'C:\papa\MyGit\hyperion-zvector\io.c:153', 00H
$SG180432 DB	'HSCH (dev)', 00H
	ORG $+5
$SG180436 DB	'C:\papa\MyGit\hyperion-zvector\io.c:163', 00H
$SG180437 DB	'*HSCH', 00H
	ORG $+2
$SG180439 DB	'C:\papa\MyGit\hyperion-zvector\io.c:165', 00H
$SG180440 DB	'*HSCH (sie)', 00H
	ORG $+4
$SG180444 DB	'C:\papa\MyGit\hyperion-zvector\io.c:174', 00H
$SG180445 DB	'*HSCH', 00H
	ORG $+2
$SG180544 DB	'C:\papa\MyGit\hyperion-zvector\io.c:194', 00H
$SG180545 DB	'MSCH', 00H
	ORG $+3
$SG180547 DB	'C:\papa\MyGit\hyperion-zvector\io.c:196', 00H
$SG180548 DB	'MSCH (sie)', 00H
	ORG $+5
$SG180557 DB	'C:\papa\MyGit\hyperion-zvector\io.c:226', 00H
$SG180558 DB	'MSCH (dev)', 00H
	ORG $+5
$SG180561 DB	'C:\papa\MyGit\hyperion-zvector\io.c:231', 00H
$SG180562 DB	'*MSCH', 00H
	ORG $+2
$SG180565 DB	'C:\papa\MyGit\hyperion-zvector\io.c:239', 00H
$SG180566 DB	'*MSCH', 00H
	ORG $+2
$SG180567 DB	'C:\papa\MyGit\hyperion-zvector\io.c:249', 00H
$SG180570 DB	'C:\papa\MyGit\hyperion-zvector\io.c:258', 00H
$SG180571 DB	'*MSCH', 00H
	ORG $+2
$SG180572 DB	'C:\papa\MyGit\hyperion-zvector\io.c:260', 00H
$SG180577 DB	'C:\papa\MyGit\hyperion-zvector\io.c:267', 00H
$SG180578 DB	'*MSCH', 00H
	ORG $+2
$SG180579 DB	'C:\papa\MyGit\hyperion-zvector\io.c:269', 00H
$SG180582 DB	'C:\papa\MyGit\hyperion-zvector\io.c:330', 00H
$SG180624 DB	'C:\papa\MyGit\hyperion-zvector\io.c:352', 00H
$SG180625 DB	'RCHP', 00H
	ORG $+3
$SG180629 DB	'C:\papa\MyGit\hyperion-zvector\io.c:362', 00H
$SG180630 DB	'*RCHP', 00H
	ORG $+2
$SG180713 DB	'C:\papa\MyGit\hyperion-zvector\io.c:382', 00H
$SG180714 DB	'RSCH', 00H
	ORG $+3
$SG180717 DB	'C:\papa\MyGit\hyperion-zvector\io.c:388', 00H
$SG180718 DB	'RSCH (sie)', 00H
	ORG $+5
$SG180724 DB	'C:\papa\MyGit\hyperion-zvector\io.c:399', 00H
$SG180725 DB	'RSCH (dev)', 00H
	ORG $+5
$SG180729 DB	'C:\papa\MyGit\hyperion-zvector\io.c:409', 00H
$SG180730 DB	'*RSCH', 00H
	ORG $+2
$SG180732 DB	'C:\papa\MyGit\hyperion-zvector\io.c:411', 00H
$SG180733 DB	'*RSCH (sie)', 00H
	ORG $+4
$SG180737 DB	'C:\papa\MyGit\hyperion-zvector\io.c:420', 00H
$SG180738 DB	'*RSCH', 00H
	ORG $+2
$SG180769 DB	'C:\papa\MyGit\hyperion-zvector\io.c:440', 00H
$SG180808 DB	'C:\papa\MyGit\hyperion-zvector\io.c:467', 00H
$SG180809 DB	'SCHM', 00H
	ORG $+3
$SG180909 DB	'C:\papa\MyGit\hyperion-zvector\io.c:546', 00H
$SG180910 DB	'SSCH', 00H
	ORG $+3
$SG180913 DB	'C:\papa\MyGit\hyperion-zvector\io.c:552', 00H
$SG180914 DB	'SSCH (sie)', 00H
	ORG $+5
$SG180924 DB	'C:\papa\MyGit\hyperion-zvector\io.c:588', 00H
$SG180925 DB	'SSCH (dev)', 00H
	ORG $+5
$SG180929 DB	'C:\papa\MyGit\hyperion-zvector\io.c:599', 00H
$SG180930 DB	'*SSCH', 00H
	ORG $+2
$SG180932 DB	'C:\papa\MyGit\hyperion-zvector\io.c:601', 00H
$SG180933 DB	'*SSCH (sie)', 00H
	ORG $+4
$SG180938 DB	'C:\papa\MyGit\hyperion-zvector\io.c:627', 00H
$SG180939 DB	'*SSCH', 00H
	ORG $+2
$SG180979 DB	'C:\papa\MyGit\hyperion-zvector\io.c:668', 00H
$SG180980 DB	'STCPS', 00H
	ORG $+2
$SG180982 DB	'C:\papa\MyGit\hyperion-zvector\io.c:680', 00H
$SG180984 DB	'C:\papa\MyGit\hyperion-zvector\io.c:698', 00H
$SG181034 DB	'C:\papa\MyGit\hyperion-zvector\io.c:719', 00H
$SG181035 DB	'STCRW', 00H
	ORG $+2
$SG181040 DB	'C:\papa\MyGit\hyperion-zvector\io.c:731', 00H
$SG181041 DB	'STCRW crw', 00H
	ORG $+6
$SG181044 DB	'C:\papa\MyGit\hyperion-zvector\io.c:740', 00H
$SG181110 DB	'C:\papa\MyGit\hyperion-zvector\io.c:759', 00H
$SG181111 DB	'STSCH', 00H
	ORG $+2
$SG181113 DB	'C:\papa\MyGit\hyperion-zvector\io.c:760', 00H
$SG181114 DB	'STSCH (sie)', 00H
	ORG $+4
$SG181120 DB	'C:\papa\MyGit\hyperion-zvector\io.c:770', 00H
$SG181121 DB	'STSCH (dev)', 00H
	ORG $+4
$SG181124 DB	'C:\papa\MyGit\hyperion-zvector\io.c:775', 00H
$SG181125 DB	'*STSCH', 00H
	ORG $+1
$SG181127 DB	'C:\papa\MyGit\hyperion-zvector\io.c:789', 00H
$SG181130 DB	'C:\papa\MyGit\hyperion-zvector\io.c:796', 00H
$SG181194 DB	'C:\papa\MyGit\hyperion-zvector\io.c:835', 00H
$SG181200 DB	'C:\papa\MyGit\hyperion-zvector\io.c:850', 00H
$SG181201 DB	'C:\papa\MyGit\hyperion-zvector\io.c:858', 00H
$SG181213 DB	'C:\papa\MyGit\hyperion-zvector\io.c:922', 00H
$SG181214 DB	'*TPI', 00H
	ORG $+3
$SG181304 DB	'C:\papa\MyGit\hyperion-zvector\io.c:942', 00H
$SG181305 DB	'TSCH', 00H
	ORG $+3
$SG181308 DB	'C:\papa\MyGit\hyperion-zvector\io.c:948', 00H
$SG181309 DB	'TSCH (sie)', 00H
	ORG $+5
$SG181316 DB	'C:\papa\MyGit\hyperion-zvector\io.c:961', 00H
$SG181317 DB	'TSCH (dev)', 00H
	ORG $+5
$SG181321 DB	'C:\papa\MyGit\hyperion-zvector\io.c:971', 00H
$SG181322 DB	'*TSCH', 00H
	ORG $+2
$SG181324 DB	'C:\papa\MyGit\hyperion-zvector\io.c:973', 00H
$SG181325 DB	'*TSCH (sie)', 00H
	ORG $+4
$SG181329 DB	'C:\papa\MyGit\hyperion-zvector\io.c:997', 00H
$SG181330 DB	'*TSCH', 00H
	ORG $+2
$SG181413 DB	'C:\papa\MyGit\hyperion-zvector\io.c:1016', 00H
	ORG $+3
$SG181414 DB	'XSCH', 00H
	ORG $+7
$SG181417 DB	'C:\papa\MyGit\hyperion-zvector\io.c:1022', 00H
	ORG $+7
$SG181418 DB	'XSCH (sie)', 00H
	ORG $+5
$SG181424 DB	'C:\papa\MyGit\hyperion-zvector\io.c:1033', 00H
	ORG $+7
$SG181425 DB	'XSCH (dev)', 00H
	ORG $+5
$SG181429 DB	'C:\papa\MyGit\hyperion-zvector\io.c:1043', 00H
	ORG $+3
$SG181430 DB	'*XSCH', 00H
	ORG $+6
$SG181432 DB	'C:\papa\MyGit\hyperion-zvector\io.c:1045', 00H
	ORG $+7
$SG181433 DB	'*XSCH (sie)', 00H
	ORG $+4
$SG181437 DB	'C:\papa\MyGit\hyperion-zvector\io.c:1056', 00H
	ORG $+3
$SG181438 DB	'*XSCH', 00H
	ORG $+6
$SG194409 DB	'C:\papa\MyGit\hyperion-zvector\io.c:76', 00H
	ORG $+1
$SG194412 DB	'C:\papa\MyGit\hyperion-zvector\io.c:79', 00H
	ORG $+1
$SG194413 DB	'CSCH', 00H
	ORG $+3
$SG194416 DB	'C:\papa\MyGit\hyperion-zvector\io.c:85', 00H
	ORG $+1
$SG194417 DB	'CSCH (sie)', 00H
	ORG $+5
$SG194423 DB	'C:\papa\MyGit\hyperion-zvector\io.c:96', 00H
	ORG $+1
$SG194424 DB	'CSCH (dev)', 00H
	ORG $+5
$SG194428 DB	'C:\papa\MyGit\hyperion-zvector\io.c:106', 00H
$SG194429 DB	'*CSCH', 00H
	ORG $+2
$SG194431 DB	'C:\papa\MyGit\hyperion-zvector\io.c:108', 00H
$SG194432 DB	'*CSCH (sie)', 00H
	ORG $+4
$SG194518 DB	'C:\papa\MyGit\hyperion-zvector\io.c:133', 00H
$SG194521 DB	'C:\papa\MyGit\hyperion-zvector\io.c:136', 00H
$SG194522 DB	'HSCH', 00H
	ORG $+3
$SG194525 DB	'C:\papa\MyGit\hyperion-zvector\io.c:142', 00H
$SG194526 DB	'HSCH (sie)', 00H
	ORG $+5
$SG194532 DB	'C:\papa\MyGit\hyperion-zvector\io.c:153', 00H
$SG194533 DB	'HSCH (dev)', 00H
	ORG $+5
$SG194537 DB	'C:\papa\MyGit\hyperion-zvector\io.c:163', 00H
$SG194538 DB	'*HSCH', 00H
	ORG $+2
$SG194540 DB	'C:\papa\MyGit\hyperion-zvector\io.c:165', 00H
$SG194541 DB	'*HSCH (sie)', 00H
	ORG $+4
$SG194545 DB	'C:\papa\MyGit\hyperion-zvector\io.c:174', 00H
$SG194546 DB	'*HSCH', 00H
	ORG $+2
$SG194647 DB	'C:\papa\MyGit\hyperion-zvector\io.c:191', 00H
$SG194650 DB	'C:\papa\MyGit\hyperion-zvector\io.c:194', 00H
$SG194651 DB	'MSCH', 00H
	ORG $+3
$SG194653 DB	'C:\papa\MyGit\hyperion-zvector\io.c:196', 00H
$SG194654 DB	'MSCH (sie)', 00H
	ORG $+5
$SG194663 DB	'C:\papa\MyGit\hyperion-zvector\io.c:226', 00H
$SG194664 DB	'MSCH (dev)', 00H
	ORG $+5
$SG194667 DB	'C:\papa\MyGit\hyperion-zvector\io.c:231', 00H
$SG194668 DB	'*MSCH', 00H
	ORG $+2
$SG194671 DB	'C:\papa\MyGit\hyperion-zvector\io.c:239', 00H
$SG194672 DB	'*MSCH', 00H
	ORG $+2
$SG194673 DB	'C:\papa\MyGit\hyperion-zvector\io.c:249', 00H
$SG194676 DB	'C:\papa\MyGit\hyperion-zvector\io.c:258', 00H
$SG194677 DB	'*MSCH', 00H
	ORG $+2
$SG194678 DB	'C:\papa\MyGit\hyperion-zvector\io.c:260', 00H
$SG194683 DB	'C:\papa\MyGit\hyperion-zvector\io.c:267', 00H
$SG194684 DB	'*MSCH', 00H
	ORG $+2
$SG194685 DB	'C:\papa\MyGit\hyperion-zvector\io.c:269', 00H
$SG194688 DB	'C:\papa\MyGit\hyperion-zvector\io.c:330', 00H
$SG194731 DB	'C:\papa\MyGit\hyperion-zvector\io.c:348', 00H
$SG194735 DB	'C:\papa\MyGit\hyperion-zvector\io.c:352', 00H
$SG194736 DB	'RCHP', 00H
	ORG $+3
$SG194740 DB	'C:\papa\MyGit\hyperion-zvector\io.c:362', 00H
$SG194741 DB	'*RCHP', 00H
	ORG $+2
$SG194826 DB	'C:\papa\MyGit\hyperion-zvector\io.c:379', 00H
$SG194829 DB	'C:\papa\MyGit\hyperion-zvector\io.c:382', 00H
$SG194830 DB	'RSCH', 00H
	ORG $+3
$SG194833 DB	'C:\papa\MyGit\hyperion-zvector\io.c:388', 00H
$SG194834 DB	'RSCH (sie)', 00H
	ORG $+5
$SG194840 DB	'C:\papa\MyGit\hyperion-zvector\io.c:399', 00H
$SG194841 DB	'RSCH (dev)', 00H
	ORG $+5
$SG194845 DB	'C:\papa\MyGit\hyperion-zvector\io.c:409', 00H
$SG194846 DB	'*RSCH', 00H
	ORG $+2
$SG194848 DB	'C:\papa\MyGit\hyperion-zvector\io.c:411', 00H
$SG194849 DB	'*RSCH (sie)', 00H
	ORG $+4
$SG194853 DB	'C:\papa\MyGit\hyperion-zvector\io.c:420', 00H
$SG194854 DB	'*RSCH', 00H
	ORG $+2
$SG194886 DB	'C:\papa\MyGit\hyperion-zvector\io.c:436', 00H
$SG194890 DB	'C:\papa\MyGit\hyperion-zvector\io.c:440', 00H
$SG194929 DB	'C:\papa\MyGit\hyperion-zvector\io.c:459', 00H
$SG194934 DB	'C:\papa\MyGit\hyperion-zvector\io.c:467', 00H
$SG194935 DB	'SCHM', 00H
	ORG $+3
$SG195037 DB	'C:\papa\MyGit\hyperion-zvector\io.c:543', 00H
$SG195040 DB	'C:\papa\MyGit\hyperion-zvector\io.c:546', 00H
$SG195041 DB	'SSCH', 00H
	ORG $+3
$SG195044 DB	'C:\papa\MyGit\hyperion-zvector\io.c:552', 00H
$SG195045 DB	'SSCH (sie)', 00H
	ORG $+5
$SG195054 DB	'C:\papa\MyGit\hyperion-zvector\io.c:588', 00H
$SG195055 DB	'SSCH (dev)', 00H
	ORG $+5
$SG195059 DB	'C:\papa\MyGit\hyperion-zvector\io.c:599', 00H
$SG195060 DB	'*SSCH', 00H
	ORG $+2
$SG195062 DB	'C:\papa\MyGit\hyperion-zvector\io.c:601', 00H
$SG195063 DB	'*SSCH (sie)', 00H
	ORG $+4
$SG195068 DB	'C:\papa\MyGit\hyperion-zvector\io.c:627', 00H
$SG195069 DB	'*SSCH', 00H
	ORG $+2
$SG195110 DB	'C:\papa\MyGit\hyperion-zvector\io.c:664', 00H
$SG195114 DB	'C:\papa\MyGit\hyperion-zvector\io.c:668', 00H
$SG195115 DB	'STCPS', 00H
	ORG $+2
$SG195117 DB	'C:\papa\MyGit\hyperion-zvector\io.c:680', 00H
$SG195119 DB	'C:\papa\MyGit\hyperion-zvector\io.c:698', 00H
$SG195172 DB	'C:\papa\MyGit\hyperion-zvector\io.c:718', 00H
$SG195174 DB	'C:\papa\MyGit\hyperion-zvector\io.c:719', 00H
$SG195175 DB	'STCRW', 00H
	ORG $+2
$SG195180 DB	'C:\papa\MyGit\hyperion-zvector\io.c:731', 00H
$SG195181 DB	'STCRW crw', 00H
	ORG $+6
$SG195184 DB	'C:\papa\MyGit\hyperion-zvector\io.c:740', 00H
$SG195185 DB	'*STCRW', 00H
	ORG $+1
$SG195252 DB	'C:\papa\MyGit\hyperion-zvector\io.c:757', 00H
$SG195255 DB	'C:\papa\MyGit\hyperion-zvector\io.c:759', 00H
$SG195256 DB	'STSCH', 00H
	ORG $+2
$SG195258 DB	'C:\papa\MyGit\hyperion-zvector\io.c:760', 00H
$SG195259 DB	'STSCH (sie)', 00H
	ORG $+4
$SG195265 DB	'C:\papa\MyGit\hyperion-zvector\io.c:770', 00H
$SG195266 DB	'STSCH (dev)', 00H
	ORG $+4
$SG195269 DB	'C:\papa\MyGit\hyperion-zvector\io.c:775', 00H
$SG195270 DB	'*STSCH', 00H
	ORG $+1
$SG195272 DB	'C:\papa\MyGit\hyperion-zvector\io.c:789', 00H
$SG195275 DB	'C:\papa\MyGit\hyperion-zvector\io.c:796', 00H
$SG195339 DB	'C:\papa\MyGit\hyperion-zvector\io.c:827', 00H
$SG195344 DB	'C:\papa\MyGit\hyperion-zvector\io.c:835', 00H
$SG195350 DB	'C:\papa\MyGit\hyperion-zvector\io.c:850', 00H
$SG195351 DB	'C:\papa\MyGit\hyperion-zvector\io.c:858', 00H
$SG195363 DB	'C:\papa\MyGit\hyperion-zvector\io.c:922', 00H
$SG195364 DB	'*TPI', 00H
	ORG $+3
$SG195456 DB	'C:\papa\MyGit\hyperion-zvector\io.c:940', 00H
$SG195459 DB	'C:\papa\MyGit\hyperion-zvector\io.c:942', 00H
$SG195460 DB	'TSCH', 00H
	ORG $+3
$SG195463 DB	'C:\papa\MyGit\hyperion-zvector\io.c:948', 00H
$SG195464 DB	'TSCH (sie)', 00H
	ORG $+5
$SG195471 DB	'C:\papa\MyGit\hyperion-zvector\io.c:961', 00H
$SG195472 DB	'TSCH (dev)', 00H
	ORG $+5
$SG195476 DB	'C:\papa\MyGit\hyperion-zvector\io.c:971', 00H
$SG195477 DB	'*TSCH', 00H
	ORG $+2
$SG195479 DB	'C:\papa\MyGit\hyperion-zvector\io.c:973', 00H
$SG195480 DB	'*TSCH (sie)', 00H
	ORG $+4
$SG195484 DB	'C:\papa\MyGit\hyperion-zvector\io.c:997', 00H
$SG195485 DB	'*TSCH', 00H
	ORG $+2
$SG195570 DB	'C:\papa\MyGit\hyperion-zvector\io.c:1013', 00H
	ORG $+7
$SG195573 DB	'C:\papa\MyGit\hyperion-zvector\io.c:1016', 00H
	ORG $+3
$SG195574 DB	'XSCH', 00H
	ORG $+7
$SG195577 DB	'C:\papa\MyGit\hyperion-zvector\io.c:1022', 00H
	ORG $+7
$SG195578 DB	'XSCH (sie)', 00H
	ORG $+5
$SG195584 DB	'C:\papa\MyGit\hyperion-zvector\io.c:1033', 00H
	ORG $+7
$SG195585 DB	'XSCH (dev)', 00H
	ORG $+5
$SG195589 DB	'C:\papa\MyGit\hyperion-zvector\io.c:1043', 00H
	ORG $+3
$SG195590 DB	'*XSCH', 00H
	ORG $+6
$SG195592 DB	'C:\papa\MyGit\hyperion-zvector\io.c:1045', 00H
	ORG $+7
$SG195593 DB	'*XSCH (sie)', 00H
	ORG $+4
$SG195597 DB	'C:\papa\MyGit\hyperion-zvector\io.c:1056', 00H
	ORG $+3
$SG195598 DB	'*XSCH', 00H
_DATA	ENDS
;	COMDAT xdata
xdata	SEGMENT
$unwind$z900_validate_operand DD 011701H
	DD	08217H
xdata	ENDS
;	COMDAT xdata
xdata	SEGMENT
$unwind$z900_vfetchc DD 031901H
	DD	07015a219H
	DD	06014H
xdata	ENDS
;	COMDAT xdata
xdata	SEGMENT
$unwind$z900_vstore8 DD 011801H
	DD	08218H
xdata	ENDS
;	COMDAT xdata
xdata	SEGMENT
$unwind$z900_vstore4 DD 011701H
	DD	08217H
xdata	ENDS
;	COMDAT xdata
xdata	SEGMENT
$unwind$z900_vstorec DD 031901H
	DD	07015c219H
	DD	06014H
xdata	ENDS
;	COMDAT voltbl
voltbl	SEGMENT
_volmd	DW	024H
	DW	0163H
voltbl	ENDS
;	COMDAT xdata
xdata	SEGMENT
$unwind$z900_vstore8_full DD 032919H
	DD	07016c21aH
	DD	06015H
	DD	imagerel __GSHandlerCheck
	DD	058H
xdata	ENDS
;	COMDAT xdata
xdata	SEGMENT
$unwind$z900_vstore4_full DD 031901H
	DD	07015a219H
	DD	06014H
xdata	ENDS
;	COMDAT xdata
xdata	SEGMENT
$unwind$z900_maddr_l DD 011801H
	DD	0a218H
xdata	ENDS
;	COMDAT xdata
xdata	SEGMENT
$unwind$z900_per3_zero_xcheck DD 010d01H
	DD	0620dH
xdata	ENDS
;	COMDAT xdata
xdata	SEGMENT
$unwind$z900_per3_zero DD 010901H
	DD	06209H
xdata	ENDS
;	COMDAT xdata
xdata	SEGMENT
$unwind$z900_get_ptr_to_storekey DD 010901H
	DD	04209H
xdata	ENDS
;	COMDAT xdata
xdata	SEGMENT
$unwind$z900_or_storage_key DD 010d01H
	DD	0420dH
xdata	ENDS
;	COMDAT xdata
xdata	SEGMENT
$unwind$z900_or_4K_storage_key DD 010d01H
	DD	0420dH
xdata	ENDS
;	COMDAT xdata
xdata	SEGMENT
$unwind$z900_get_ptr_to_4K_storekey DD 010901H
	DD	04209H
xdata	ENDS
;	COMDAT xdata
xdata	SEGMENT
$unwind$z900__or_storage_key DD 011201H
	DD	08212H
xdata	ENDS
;	COMDAT xdata
xdata	SEGMENT
$unwind$s390_validate_operand DD 011601H
	DD	08216H
xdata	ENDS
;	COMDAT xdata
xdata	SEGMENT
$unwind$s390_vfetchc DD 031901H
	DD	07015a219H
	DD	06014H
xdata	ENDS
;	COMDAT xdata
xdata	SEGMENT
$unwind$s390_vstore8 DD 011701H
	DD	08217H
xdata	ENDS
;	COMDAT xdata
xdata	SEGMENT
$unwind$s390_vstore4 DD 011601H
	DD	08216H
xdata	ENDS
;	COMDAT xdata
xdata	SEGMENT
$unwind$s390_vstorec DD 031901H
	DD	07015c219H
	DD	06014H
xdata	ENDS
;	COMDAT voltbl
voltbl	SEGMENT
_volmd	DW	023H
	DW	0158H
voltbl	ENDS
;	COMDAT xdata
xdata	SEGMENT
$unwind$s390_vstore8_full DD 032819H
	DD	07015c219H
	DD	06014H
	DD	imagerel __GSHandlerCheck
	DD	058H
xdata	ENDS
;	COMDAT xdata
xdata	SEGMENT
$unwind$s390_vstore4_full DD 031801H
	DD	07014a218H
	DD	06013H
xdata	ENDS
;	COMDAT xdata
xdata	SEGMENT
$unwind$s390_maddr_l DD 011701H
	DD	0a217H
xdata	ENDS
;	COMDAT xdata
xdata	SEGMENT
$unwind$s390_get_ptr_to_storekey DD 010901H
	DD	04209H
xdata	ENDS
;	COMDAT xdata
xdata	SEGMENT
$unwind$s390_or_storage_key DD 010d01H
	DD	0420dH
xdata	ENDS
;	COMDAT xdata
xdata	SEGMENT
$unwind$s390_or_4K_storage_key DD 010d01H
	DD	0420dH
xdata	ENDS
;	COMDAT xdata
xdata	SEGMENT
$unwind$s390_get_ptr_to_4K_storekey DD 010901H
	DD	04209H
xdata	ENDS
;	COMDAT xdata
xdata	SEGMENT
$unwind$s390__or_storage_key DD 011201H
	DD	08212H
xdata	ENDS
;	COMDAT xdata
xdata	SEGMENT
$unwind$_get_storekey_ptr DD 010d01H
	DD	0220dH
xdata	ENDS
;	COMDAT xdata
xdata	SEGMENT
$unwind$fetch_fw_noswap DD 010901H
	DD	02209H
xdata	ENDS
;	COMDAT xdata
xdata	SEGMENT
$unwind$fetch_hw_noswap DD 010901H
	DD	02209H
xdata	ENDS
voltbl	SEGMENT
_volmd	DD	0ffffffffH
	DDSymXIndex: 	FLAT:z900_test_subchannel
	DD	01bH
	DD	06d1H
_volmd	DD	0ffffffffH
	DDSymXIndex: 	FLAT:z900_store_subchannel
	DD	01dH
	DD	0550H
_volmd	DD	0ffffffffH
	DDSymXIndex: 	FLAT:z900_store_channel_path_status
	DD	01cH
	DD	03daH
_volmd	DD	0ffffffffH
	DDSymXIndex: 	FLAT:z900_start_subchannel
	DD	01bH
	DD	0743H
_volmd	DD	0ffffffffH
	DDSymXIndex: 	FLAT:z900_modify_subchannel
	DD	01bH
	DD	0a79H
_volmd	DD	0ffffffffH
	DDSymXIndex: 	FLAT:s390_test_subchannel
	DD	01bH
	DD	05f9H
_volmd	DD	0ffffffffH
	DDSymXIndex: 	FLAT:s390_store_subchannel
	DD	01dH
	DD	04a1H
_volmd	DD	0ffffffffH
	DDSymXIndex: 	FLAT:s390_store_channel_path_status
	DD	01cH
	DD	0353H
_volmd	DD	0ffffffffH
	DDSymXIndex: 	FLAT:s390_start_subchannel
	DD	01bH
	DD	068bH
_volmd	DD	0ffffffffH
	DDSymXIndex: 	FLAT:s390_modify_subchannel
	DD	01bH
	DD	098bH
_volmd	DD	0ffffffffH
	DDSymXIndex: 	FLAT:s370_start_io
	DD	01cH
	DD	053dH
voltbl	ENDS
xdata	SEGMENT
$unwind$s370_connect_channel_set DD 010e01H
	DD	0e20eH
$unwind$s370_disconnect_channel_set DD 010e01H
	DD	0a20eH
$unwind$s370_start_io DD 032419H
	DD	0140112H
	DD	0700bH
	DD	imagerel __GSHandlerCheck
	DD	090H
$unwind$s370_test_io DD 010e01H
	DD	0c20eH
$unwind$s370_halt_io DD 010e01H
	DD	0c20eH
$unwind$s370_test_channel DD 010e01H
	DD	0c20eH
$unwind$s370_store_channel_id DD 010e01H
	DD	0a20eH
$unwind$wakeup_cpu DD 010e01H
	DD	0420eH
$unwind$wakeup_cpu_mask DD 010e01H
	DD	0a20eH
$unwind$Interrupt_Lock_Obtained DD 010e01H
	DD	0420eH
$unwind$Obtain_Interrupt_Lock DD 010e01H
	DD	0420eH
$unwind$Release_Interrupt_Lock DD 010e01H
	DD	0420eH
$unwind$s390_cancel_subchannel DD 010e01H
	DD	0c20eH
$unwind$s390_clear_subchannel DD 010e01H
	DD	0c20eH
$unwind$s390_halt_subchannel DD 010e01H
	DD	0c20eH
$unwind$s390_modify_subchannel DD 022319H
	DD	0150111H
	DD	imagerel __GSHandlerCheck
	DD	090H
$unwind$s390_resume_subchannel DD 010e01H
	DD	0c20eH
$unwind$s390_set_address_limit DD 010e01H
	DD	0a20eH
$unwind$s390_set_channel_monitor DD 010e01H
	DD	0c20eH
$unwind$s390_reset_channel_path DD 010e01H
	DD	0c20eH
$unwind$s390_start_subchannel DD 022019H
	DD	0110111H
	DD	imagerel __GSHandlerCheck
	DD	078H
$unwind$s390_store_channel_path_status DD 032419H
	DD	0120112H
	DD	0700bH
	DD	imagerel __GSHandlerCheck
	DD	088H
$unwind$s390_store_channel_report_word DD 010e01H
	DD	0c20eH
$unwind$s390_store_subchannel DD 042519H
	DD	0150113H
	DD	0600b700cH
	DD	imagerel __GSHandlerCheck
	DD	090H
$unwind$s390_test_pending_interruption DD 021101H
	DD	0130111H
$unwind$s390_test_subchannel DD 022319H
	DD	0170111H
	DD	imagerel __GSHandlerCheck
	DD	0a0H
$unwind$z900_cancel_subchannel DD 010e01H
	DD	0c20eH
$unwind$z900_clear_subchannel DD 010e01H
	DD	0c20eH
$unwind$z900_halt_subchannel DD 010e01H
	DD	0c20eH
$unwind$z900_modify_subchannel DD 022319H
	DD	0150111H
	DD	imagerel __GSHandlerCheck
	DD	098H
$unwind$z900_resume_subchannel DD 010e01H
	DD	0c20eH
$unwind$z900_set_address_limit DD 010e01H
	DD	0a20eH
$unwind$z900_set_channel_monitor DD 010e01H
	DD	0c20eH
$unwind$z900_reset_channel_path DD 010e01H
	DD	0c20eH
$unwind$z900_start_subchannel DD 022019H
	DD	0110111H
	DD	imagerel __GSHandlerCheck
	DD	078H
$unwind$z900_store_channel_path_status DD 032419H
	DD	0140112H
	DD	0700bH
	DD	imagerel __GSHandlerCheck
	DD	098H
$unwind$z900_store_channel_report_word DD 010e01H
	DD	0c20eH
$unwind$z900_store_subchannel DD 042519H
	DD	0150113H
	DD	0600b700cH
	DD	imagerel __GSHandlerCheck
	DD	098H
$unwind$z900_test_pending_interruption DD 021101H
	DD	0130111H
$unwind$z900_test_subchannel DD 022319H
	DD	0170111H
	DD	imagerel __GSHandlerCheck
	DD	0a0H
xdata	ENDS
; Function compile flags: /Odtp
; File C:\papa\MyGit\hyperion-zvector\vstore.h
;	COMDAT z900_validate_operand
_TEXT	SEGMENT
tv81 = 48
addr$ = 80
arn$ = 88
len$ = 96
acctype$ = 104
regs$ = 112
z900_validate_operand PROC				; COMDAT

; 1376 : {

$LN8:
  00000	44 89 4c 24 20	 mov	 DWORD PTR [rsp+32], r9d
  00005	44 89 44 24 18	 mov	 DWORD PTR [rsp+24], r8d
  0000a	89 54 24 10	 mov	 DWORD PTR [rsp+16], edx
  0000e	48 89 4c 24 08	 mov	 QWORD PTR [rsp+8], rcx
  00013	48 83 ec 48	 sub	 rsp, 72			; 00000048H

; 1377 :     /* Translate address of leftmost operand byte */
; 1378 :     MADDR( addr, arn, regs, acctype, regs->psw.pkey );

  00017	48 8b 44 24 70	 mov	 rax, QWORD PTR regs$[rsp]
  0001c	0f b6 40 79	 movzx	 eax, BYTE PTR [rax+121]
  00020	88 44 24 28	 mov	 BYTE PTR [rsp+40], al
  00024	8b 44 24 68	 mov	 eax, DWORD PTR acctype$[rsp]
  00028	89 44 24 20	 mov	 DWORD PTR [rsp+32], eax
  0002c	4c 8b 4c 24 70	 mov	 r9, QWORD PTR regs$[rsp]
  00031	44 8b 44 24 58	 mov	 r8d, DWORD PTR arn$[rsp]
  00036	ba 01 00 00 00	 mov	 edx, 1
  0003b	48 8b 4c 24 50	 mov	 rcx, QWORD PTR addr$[rsp]
  00040	e8 00 00 00 00	 call	 z900_maddr_l

; 1379 : 
; 1380 :     /* Translate next page if boundary crossed */
; 1381 :     if (CROSSPAGE( addr, len ))

  00045	48 8b 44 24 50	 mov	 rax, QWORD PTR addr$[rsp]
  0004a	48 25 ff 0f 00
	00		 and	 rax, 4095		; 00000fffH
  00050	b9 ff 0f 00 00	 mov	 ecx, 4095		; 00000fffH
  00055	2b 4c 24 60	 sub	 ecx, DWORD PTR len$[rsp]
  00059	3b c1		 cmp	 eax, ecx
  0005b	7e 0a		 jle	 SHORT $LN6@z900_valid
  0005d	c7 44 24 30 01
	00 00 00	 mov	 DWORD PTR tv81[rsp], 1
  00065	eb 08		 jmp	 SHORT $LN7@z900_valid
$LN6@z900_valid:
  00067	c7 44 24 30 00
	00 00 00	 mov	 DWORD PTR tv81[rsp], 0
$LN7@z900_valid:
  0006f	83 7c 24 30 00	 cmp	 DWORD PTR tv81[rsp], 0
  00074	74 48		 je	 SHORT $LN2@z900_valid

; 1382 :     {
; 1383 :         MADDR( (addr + len) & ADDRESS_MAXWRAP( regs ),

  00076	48 63 44 24 60	 movsxd	 rax, DWORD PTR len$[rsp]
  0007b	48 8b 4c 24 50	 mov	 rcx, QWORD PTR addr$[rsp]
  00080	48 03 c8	 add	 rcx, rax
  00083	48 8b c1	 mov	 rax, rcx
  00086	48 8b 4c 24 70	 mov	 rcx, QWORD PTR regs$[rsp]
  0008b	48 23 81 90 00
	00 00		 and	 rax, QWORD PTR [rcx+144]
  00092	48 8b 4c 24 70	 mov	 rcx, QWORD PTR regs$[rsp]
  00097	0f b6 49 79	 movzx	 ecx, BYTE PTR [rcx+121]
  0009b	88 4c 24 28	 mov	 BYTE PTR [rsp+40], cl
  0009f	8b 4c 24 68	 mov	 ecx, DWORD PTR acctype$[rsp]
  000a3	89 4c 24 20	 mov	 DWORD PTR [rsp+32], ecx
  000a7	4c 8b 4c 24 70	 mov	 r9, QWORD PTR regs$[rsp]
  000ac	44 8b 44 24 58	 mov	 r8d, DWORD PTR arn$[rsp]
  000b1	ba 01 00 00 00	 mov	 edx, 1
  000b6	48 8b c8	 mov	 rcx, rax
  000b9	e8 00 00 00 00	 call	 z900_maddr_l
$LN2@z900_valid:

; 1384 :                arn, regs, acctype, regs->psw.pkey );
; 1385 :     }
; 1386 : #if defined( FEATURE_INTERVAL_TIMER )
; 1387 :     else
; 1388 :         ITIMER_SYNC( addr, len, regs );
; 1389 : #endif
; 1390 : }

  000be	48 83 c4 48	 add	 rsp, 72			; 00000048H
  000c2	c3		 ret	 0
z900_validate_operand ENDP
_TEXT	ENDS
; Function compile flags: /Odtp
; File C:\papa\MyGit\hyperion-zvector\vstore.h
;	COMDAT z900_vfetchc
_TEXT	SEGMENT
len2$ = 48
tv76 = 52
main1$ = 56
main2$ = 64
dest$ = 112
len$ = 120
addr$ = 128
arn$ = 136
regs$ = 144
z900_vfetchc PROC					; COMDAT

; 631  : {

$LN9:
  00000	44 89 4c 24 20	 mov	 DWORD PTR [rsp+32], r9d
  00005	4c 89 44 24 18	 mov	 QWORD PTR [rsp+24], r8
  0000a	88 54 24 10	 mov	 BYTE PTR [rsp+16], dl
  0000e	48 89 4c 24 08	 mov	 QWORD PTR [rsp+8], rcx
  00013	56		 push	 rsi
  00014	57		 push	 rdi
  00015	48 83 ec 58	 sub	 rsp, 88			; 00000058H

; 632  : BYTE   *main1, *main2;                  /* Main storage addresses    */
; 633  : int     len2;                           /* Length to copy on page    */
; 634  : 
; 635  :     if (NOCROSSPAGE( addr, len ))

  00019	48 8b 84 24 80
	00 00 00	 mov	 rax, QWORD PTR addr$[rsp]
  00021	48 25 ff 0f 00
	00		 and	 rax, 4095		; 00000fffH
  00027	0f b6 4c 24 78	 movzx	 ecx, BYTE PTR len$[rsp]
  0002c	ba ff 0f 00 00	 mov	 edx, 4095		; 00000fffH
  00031	2b d1		 sub	 edx, ecx
  00033	8b ca		 mov	 ecx, edx
  00035	3b c1		 cmp	 eax, ecx
  00037	7f 0a		 jg	 SHORT $LN7@z900_vfetc
  00039	c7 44 24 34 01
	00 00 00	 mov	 DWORD PTR tv76[rsp], 1
  00041	eb 08		 jmp	 SHORT $LN8@z900_vfetc
$LN7@z900_vfetc:
  00043	c7 44 24 34 00
	00 00 00	 mov	 DWORD PTR tv76[rsp], 0
$LN8@z900_vfetc:
  0004b	83 7c 24 34 00	 cmp	 DWORD PTR tv76[rsp], 0
  00050	74 63		 je	 SHORT $LN2@z900_vfetc

; 636  :     {
; 637  :         ITIMER_SYNC( addr, len, regs );
; 638  :         main1 = MADDRL( addr, len + 1, arn, regs, ACCTYPE_READ, regs->psw.pkey );

  00052	0f b6 44 24 78	 movzx	 eax, BYTE PTR len$[rsp]
  00057	ff c0		 inc	 eax
  00059	48 98		 cdqe
  0005b	48 8b 8c 24 90
	00 00 00	 mov	 rcx, QWORD PTR regs$[rsp]
  00063	0f b6 49 79	 movzx	 ecx, BYTE PTR [rcx+121]
  00067	88 4c 24 28	 mov	 BYTE PTR [rsp+40], cl
  0006b	c7 44 24 20 04
	00 00 00	 mov	 DWORD PTR [rsp+32], 4
  00073	4c 8b 8c 24 90
	00 00 00	 mov	 r9, QWORD PTR regs$[rsp]
  0007b	44 8b 84 24 88
	00 00 00	 mov	 r8d, DWORD PTR arn$[rsp]
  00083	48 8b d0	 mov	 rdx, rax
  00086	48 8b 8c 24 80
	00 00 00	 mov	 rcx, QWORD PTR addr$[rsp]
  0008e	e8 00 00 00 00	 call	 z900_maddr_l
  00093	48 89 44 24 38	 mov	 QWORD PTR main1$[rsp], rax

; 639  :         memcpy( dest, main1, len + 1 );

  00098	0f b6 44 24 78	 movzx	 eax, BYTE PTR len$[rsp]
  0009d	ff c0		 inc	 eax
  0009f	48 98		 cdqe
  000a1	48 8b 7c 24 70	 mov	 rdi, QWORD PTR dest$[rsp]
  000a6	48 8b 74 24 38	 mov	 rsi, QWORD PTR main1$[rsp]
  000ab	48 8b c8	 mov	 rcx, rax
  000ae	f3 a4		 rep movsb

; 640  :     }

  000b0	e9 01 01 00 00	 jmp	 $LN3@z900_vfetc
$LN2@z900_vfetc:

; 641  :     else
; 642  :     {
; 643  :         len2 = PAGEFRAME_PAGESIZE - (addr & PAGEFRAME_BYTEMASK);

  000b5	48 8b 84 24 80
	00 00 00	 mov	 rax, QWORD PTR addr$[rsp]
  000bd	48 25 ff 0f 00
	00		 and	 rax, 4095		; 00000fffH
  000c3	b9 00 10 00 00	 mov	 ecx, 4096		; 00001000H
  000c8	48 2b c8	 sub	 rcx, rax
  000cb	48 8b c1	 mov	 rax, rcx
  000ce	89 44 24 30	 mov	 DWORD PTR len2$[rsp], eax

; 644  :         main1 = MADDRL( addr, len2, arn, regs, ACCTYPE_READ, regs->psw.pkey );

  000d2	48 63 44 24 30	 movsxd	 rax, DWORD PTR len2$[rsp]
  000d7	48 8b 8c 24 90
	00 00 00	 mov	 rcx, QWORD PTR regs$[rsp]
  000df	0f b6 49 79	 movzx	 ecx, BYTE PTR [rcx+121]
  000e3	88 4c 24 28	 mov	 BYTE PTR [rsp+40], cl
  000e7	c7 44 24 20 04
	00 00 00	 mov	 DWORD PTR [rsp+32], 4
  000ef	4c 8b 8c 24 90
	00 00 00	 mov	 r9, QWORD PTR regs$[rsp]
  000f7	44 8b 84 24 88
	00 00 00	 mov	 r8d, DWORD PTR arn$[rsp]
  000ff	48 8b d0	 mov	 rdx, rax
  00102	48 8b 8c 24 80
	00 00 00	 mov	 rcx, QWORD PTR addr$[rsp]
  0010a	e8 00 00 00 00	 call	 z900_maddr_l
  0010f	48 89 44 24 38	 mov	 QWORD PTR main1$[rsp], rax

; 645  :         main2 = MADDRL( (addr + len2) & ADDRESS_MAXWRAP( regs ), len + 1 - len2,

  00114	0f b6 44 24 78	 movzx	 eax, BYTE PTR len$[rsp]
  00119	ff c0		 inc	 eax
  0011b	2b 44 24 30	 sub	 eax, DWORD PTR len2$[rsp]
  0011f	48 98		 cdqe
  00121	48 63 4c 24 30	 movsxd	 rcx, DWORD PTR len2$[rsp]
  00126	48 8b 94 24 80
	00 00 00	 mov	 rdx, QWORD PTR addr$[rsp]
  0012e	48 03 d1	 add	 rdx, rcx
  00131	48 8b ca	 mov	 rcx, rdx
  00134	48 8b 94 24 90
	00 00 00	 mov	 rdx, QWORD PTR regs$[rsp]
  0013c	48 23 8a 90 00
	00 00		 and	 rcx, QWORD PTR [rdx+144]
  00143	48 8b 94 24 90
	00 00 00	 mov	 rdx, QWORD PTR regs$[rsp]
  0014b	0f b6 52 79	 movzx	 edx, BYTE PTR [rdx+121]
  0014f	88 54 24 28	 mov	 BYTE PTR [rsp+40], dl
  00153	c7 44 24 20 04
	00 00 00	 mov	 DWORD PTR [rsp+32], 4
  0015b	4c 8b 8c 24 90
	00 00 00	 mov	 r9, QWORD PTR regs$[rsp]
  00163	44 8b 84 24 88
	00 00 00	 mov	 r8d, DWORD PTR arn$[rsp]
  0016b	48 8b d0	 mov	 rdx, rax
  0016e	e8 00 00 00 00	 call	 z900_maddr_l
  00173	48 89 44 24 40	 mov	 QWORD PTR main2$[rsp], rax

; 646  :                         arn, regs, ACCTYPE_READ, regs->psw.pkey );
; 647  :         memcpy(        dest,        main1,           len2 );

  00178	48 63 44 24 30	 movsxd	 rax, DWORD PTR len2$[rsp]
  0017d	48 8b 7c 24 70	 mov	 rdi, QWORD PTR dest$[rsp]
  00182	48 8b 74 24 38	 mov	 rsi, QWORD PTR main1$[rsp]
  00187	48 8b c8	 mov	 rcx, rax
  0018a	f3 a4		 rep movsb

; 648  :         memcpy( (BYTE*)dest + len2, main2, len + 1 - len2 );

  0018c	0f b6 44 24 78	 movzx	 eax, BYTE PTR len$[rsp]
  00191	ff c0		 inc	 eax
  00193	2b 44 24 30	 sub	 eax, DWORD PTR len2$[rsp]
  00197	48 98		 cdqe
  00199	48 63 4c 24 30	 movsxd	 rcx, DWORD PTR len2$[rsp]
  0019e	48 8b 54 24 70	 mov	 rdx, QWORD PTR dest$[rsp]
  001a3	48 03 d1	 add	 rdx, rcx
  001a6	48 8b ca	 mov	 rcx, rdx
  001a9	48 8b f9	 mov	 rdi, rcx
  001ac	48 8b 74 24 40	 mov	 rsi, QWORD PTR main2$[rsp]
  001b1	48 8b c8	 mov	 rcx, rax
  001b4	f3 a4		 rep movsb
$LN3@z900_vfetc:

; 649  :     }
; 650  : }

  001b6	48 83 c4 58	 add	 rsp, 88			; 00000058H
  001ba	5f		 pop	 rdi
  001bb	5e		 pop	 rsi
  001bc	c3		 ret	 0
z900_vfetchc ENDP
_TEXT	ENDS
; Function compile flags: /Odtp
; File C:\papa\MyGit\hyperion-zvector\vstore.h
;	COMDAT z900_vstore8
_TEXT	SEGMENT
tv70 = 48
mn$1 = 56
value$ = 80
addr$ = 88
arn$ = 96
regs$ = 104
z900_vstore8 PROC					; COMDAT

; 577  : {

$LN9:
  00000	4c 89 4c 24 20	 mov	 QWORD PTR [rsp+32], r9
  00005	44 89 44 24 18	 mov	 DWORD PTR [rsp+24], r8d
  0000a	48 89 54 24 10	 mov	 QWORD PTR [rsp+16], rdx
  0000f	48 89 4c 24 08	 mov	 QWORD PTR [rsp+8], rcx
  00014	48 83 ec 48	 sub	 rsp, 72			; 00000048H

; 578  : #if defined( OPTION_SINGLE_CPU_DW ) && defined( ASSIST_STORE_DW )
; 579  :     /* Check alignement. If aligned then we are guaranteed
; 580  :        not to cross a page boundary */
; 581  :     if (likely(!((VADR_L)addr & 0x07)))
; 582  :     {
; 583  :         /* Most common case : Aligned */
; 584  :         U64 *mn;
; 585  :         mn = (U64*)MADDRL( addr, 8, arn, regs, ACCTYPE_WRITE, regs->psw.pkey );
; 586  :         if (regs->cpubit == regs->sysblk->started_mask)
; 587  :             *mn = CSWAP64( value );
; 588  :         else
; 589  :             STORE_DW( mn, value );
; 590  :     }
; 591  :     else
; 592  : #endif
; 593  :     {
; 594  :         /* We're not aligned. So we have to check whether we are
; 595  :            crossing a page boundary. This cannot be the same
; 596  :            code as above because casting U64* to a non aligned
; 597  :            pointer may break on those architectures mandating
; 598  :            strict alignement */
; 599  :         if (likely(((VADR_L)addr & PAGEFRAME_BYTEMASK) <= (PAGEFRAME_BYTEMASK-7)))

  00018	48 8b 44 24 58	 mov	 rax, QWORD PTR addr$[rsp]
  0001d	48 25 ff 0f 00
	00		 and	 rax, 4095		; 00000fffH
  00023	48 3d f8 0f 00
	00		 cmp	 rax, 4088		; 00000ff8H
  00029	77 0a		 ja	 SHORT $LN7@z900_vstor
  0002b	c7 44 24 30 01
	00 00 00	 mov	 DWORD PTR tv70[rsp], 1
  00033	eb 08		 jmp	 SHORT $LN8@z900_vstor
$LN7@z900_vstor:
  00035	c7 44 24 30 00
	00 00 00	 mov	 DWORD PTR tv70[rsp], 0
$LN8@z900_vstor:
  0003d	83 7c 24 30 00	 cmp	 DWORD PTR tv70[rsp], 0
  00042	74 4c		 je	 SHORT $LN2@z900_vstor

; 600  :         {
; 601  :             /* Non aligned but not crossing page boundary */
; 602  :             BYTE *mn;
; 603  :             mn = MADDRL( addr, 8, arn, regs, ACCTYPE_WRITE, regs->psw.pkey );

  00044	48 8b 44 24 68	 mov	 rax, QWORD PTR regs$[rsp]
  00049	0f b6 40 79	 movzx	 eax, BYTE PTR [rax+121]
  0004d	88 44 24 28	 mov	 BYTE PTR [rsp+40], al
  00051	c7 44 24 20 02
	00 00 00	 mov	 DWORD PTR [rsp+32], 2
  00059	4c 8b 4c 24 68	 mov	 r9, QWORD PTR regs$[rsp]
  0005e	44 8b 44 24 60	 mov	 r8d, DWORD PTR arn$[rsp]
  00063	ba 08 00 00 00	 mov	 edx, 8
  00068	48 8b 4c 24 58	 mov	 rcx, QWORD PTR addr$[rsp]
  0006d	e8 00 00 00 00	 call	 z900_maddr_l
  00072	48 89 44 24 38	 mov	 QWORD PTR mn$1[rsp], rax

; 604  :             /* invoking STORE_DW ensures endianness correctness */
; 605  :             STORE_DW( mn, value );

  00077	48 8b 4c 24 50	 mov	 rcx, QWORD PTR value$[rsp]
  0007c	e8 00 00 00 00	 call	 _byteswap_uint64
  00081	48 8b d0	 mov	 rdx, rax
  00084	48 8b 4c 24 38	 mov	 rcx, QWORD PTR mn$1[rsp]
  00089	e8 00 00 00 00	 call	 store_dw_noswap

; 606  :         }

  0008e	eb 19		 jmp	 SHORT $LN3@z900_vstor
$LN2@z900_vstor:

; 607  :         else
; 608  :             /* Crossing page boundary */
; 609  :             ARCH_DEP( vstore8_full )( value, addr, arn, regs );

  00090	4c 8b 4c 24 68	 mov	 r9, QWORD PTR regs$[rsp]
  00095	44 8b 44 24 60	 mov	 r8d, DWORD PTR arn$[rsp]
  0009a	48 8b 54 24 58	 mov	 rdx, QWORD PTR addr$[rsp]
  0009f	48 8b 4c 24 50	 mov	 rcx, QWORD PTR value$[rsp]
  000a4	e8 00 00 00 00	 call	 z900_vstore8_full
$LN3@z900_vstor:

; 610  :     }
; 611  :     ITIMER_UPDATE( addr, 8-1, regs );
; 612  : }

  000a9	48 83 c4 48	 add	 rsp, 72			; 00000048H
  000ad	c3		 ret	 0
z900_vstore8 ENDP
_TEXT	ENDS
; Function compile flags: /Odtp
; File C:\papa\MyGit\hyperion-zvector\vstore.h
;	COMDAT z900_vstore4
_TEXT	SEGMENT
tv66 = 48
tv72 = 52
mn$1 = 56
value$ = 80
addr$ = 88
arn$ = 96
regs$ = 104
z900_vstore4 PROC					; COMDAT

; 559  : {

$LN12:
  00000	4c 89 4c 24 20	 mov	 QWORD PTR [rsp+32], r9
  00005	44 89 44 24 18	 mov	 DWORD PTR [rsp+24], r8d
  0000a	48 89 54 24 10	 mov	 QWORD PTR [rsp+16], rdx
  0000f	89 4c 24 08	 mov	 DWORD PTR [rsp+8], ecx
  00013	48 83 ec 48	 sub	 rsp, 72			; 00000048H

; 560  :     /* Most common case : Aligned & not crossing page boundary */
; 561  :     if (likely(!((VADR_L)addr & 0x03))
; 562  :         || (((VADR_L)addr & PAGEFRAME_BYTEMASK) <= (PAGEFRAME_BYTEMASK-3)))

  00017	48 8b 44 24 58	 mov	 rax, QWORD PTR addr$[rsp]
  0001c	48 83 e0 03	 and	 rax, 3
  00020	48 85 c0	 test	 rax, rax
  00023	75 0a		 jne	 SHORT $LN6@z900_vstor
  00025	c7 44 24 30 01
	00 00 00	 mov	 DWORD PTR tv66[rsp], 1
  0002d	eb 08		 jmp	 SHORT $LN7@z900_vstor
$LN6@z900_vstor:
  0002f	c7 44 24 30 00
	00 00 00	 mov	 DWORD PTR tv66[rsp], 0
$LN7@z900_vstor:
  00037	83 7c 24 30 00	 cmp	 DWORD PTR tv66[rsp], 0
  0003c	74 0a		 je	 SHORT $LN10@z900_vstor
  0003e	c7 44 24 34 01
	00 00 00	 mov	 DWORD PTR tv72[rsp], 1
  00046	eb 08		 jmp	 SHORT $LN11@z900_vstor
$LN10@z900_vstor:
  00048	c7 44 24 34 00
	00 00 00	 mov	 DWORD PTR tv72[rsp], 0
$LN11@z900_vstor:
  00050	83 7c 24 34 00	 cmp	 DWORD PTR tv72[rsp], 0
  00055	75 13		 jne	 SHORT $LN4@z900_vstor
  00057	48 8b 44 24 58	 mov	 rax, QWORD PTR addr$[rsp]
  0005c	48 25 ff 0f 00
	00		 and	 rax, 4095		; 00000fffH
  00062	48 3d fc 0f 00
	00		 cmp	 rax, 4092		; 00000ffcH
  00068	77 4a		 ja	 SHORT $LN2@z900_vstor
$LN4@z900_vstor:

; 563  :     {
; 564  :         BYTE *mn;
; 565  :         mn = MADDRL( addr, 4, arn, regs, ACCTYPE_WRITE, regs->psw.pkey );

  0006a	48 8b 44 24 68	 mov	 rax, QWORD PTR regs$[rsp]
  0006f	0f b6 40 79	 movzx	 eax, BYTE PTR [rax+121]
  00073	88 44 24 28	 mov	 BYTE PTR [rsp+40], al
  00077	c7 44 24 20 02
	00 00 00	 mov	 DWORD PTR [rsp+32], 2
  0007f	4c 8b 4c 24 68	 mov	 r9, QWORD PTR regs$[rsp]
  00084	44 8b 44 24 60	 mov	 r8d, DWORD PTR arn$[rsp]
  00089	ba 04 00 00 00	 mov	 edx, 4
  0008e	48 8b 4c 24 58	 mov	 rcx, QWORD PTR addr$[rsp]
  00093	e8 00 00 00 00	 call	 z900_maddr_l
  00098	48 89 44 24 38	 mov	 QWORD PTR mn$1[rsp], rax

; 566  :         STORE_FW( mn, value );

  0009d	8b 4c 24 50	 mov	 ecx, DWORD PTR value$[rsp]
  000a1	e8 00 00 00 00	 call	 _byteswap_ulong
  000a6	8b d0		 mov	 edx, eax
  000a8	48 8b 4c 24 38	 mov	 rcx, QWORD PTR mn$1[rsp]
  000ad	e8 00 00 00 00	 call	 store_fw_noswap

; 567  :         ITIMER_UPDATE( addr, 4-1, regs );
; 568  :     }

  000b2	eb 18		 jmp	 SHORT $LN3@z900_vstor
$LN2@z900_vstor:

; 569  :     else
; 570  :         ARCH_DEP( vstore4_full )( value, addr, arn, regs );

  000b4	4c 8b 4c 24 68	 mov	 r9, QWORD PTR regs$[rsp]
  000b9	44 8b 44 24 60	 mov	 r8d, DWORD PTR arn$[rsp]
  000be	48 8b 54 24 58	 mov	 rdx, QWORD PTR addr$[rsp]
  000c3	8b 4c 24 50	 mov	 ecx, DWORD PTR value$[rsp]
  000c7	e8 00 00 00 00	 call	 z900_vstore4_full
$LN3@z900_vstor:

; 571  : }

  000cc	48 83 c4 48	 add	 rsp, 72			; 00000048H
  000d0	c3		 ret	 0
z900_vstore4 ENDP
_TEXT	ENDS
; Function compile flags: /Odtp
; File C:\papa\MyGit\hyperion-zvector\vstore.h
;	COMDAT z900_vstorec
_TEXT	SEGMENT
len2$ = 48
tv76 = 52
sk$ = 56
tv83 = 64
main1$ = 72
main2$ = 80
src$ = 128
len$ = 136
addr$ = 144
arn$ = 152
regs$ = 160
z900_vstorec PROC					; COMDAT

; 489  : {

$LN9:
  00000	44 89 4c 24 20	 mov	 DWORD PTR [rsp+32], r9d
  00005	4c 89 44 24 18	 mov	 QWORD PTR [rsp+24], r8
  0000a	88 54 24 10	 mov	 BYTE PTR [rsp+16], dl
  0000e	48 89 4c 24 08	 mov	 QWORD PTR [rsp+8], rcx
  00013	56		 push	 rsi
  00014	57		 push	 rdi
  00015	48 83 ec 68	 sub	 rsp, 104		; 00000068H

; 490  : BYTE   *main1, *main2;                  /* Mainstor addresses        */
; 491  : BYTE   *sk;                             /* Storage key addresses     */
; 492  : int     len2;                           /* Length to end of page     */
; 493  : 
; 494  :     if (NOCROSSPAGE( addr,len ))

  00019	48 8b 84 24 90
	00 00 00	 mov	 rax, QWORD PTR addr$[rsp]
  00021	48 25 ff 0f 00
	00		 and	 rax, 4095		; 00000fffH
  00027	0f b6 8c 24 88
	00 00 00	 movzx	 ecx, BYTE PTR len$[rsp]
  0002f	ba ff 0f 00 00	 mov	 edx, 4095		; 00000fffH
  00034	2b d1		 sub	 edx, ecx
  00036	8b ca		 mov	 ecx, edx
  00038	3b c1		 cmp	 eax, ecx
  0003a	7f 0a		 jg	 SHORT $LN7@z900_vstor
  0003c	c7 44 24 34 01
	00 00 00	 mov	 DWORD PTR tv76[rsp], 1
  00044	eb 08		 jmp	 SHORT $LN8@z900_vstor
$LN7@z900_vstor:
  00046	c7 44 24 34 00
	00 00 00	 mov	 DWORD PTR tv76[rsp], 0
$LN8@z900_vstor:
  0004e	83 7c 24 34 00	 cmp	 DWORD PTR tv76[rsp], 0
  00053	74 70		 je	 SHORT $LN2@z900_vstor

; 495  :     {
; 496  :         memcpy( MADDRL( addr, len+1, arn, regs, ACCTYPE_WRITE, regs->psw.pkey ),

  00055	0f b6 84 24 88
	00 00 00	 movzx	 eax, BYTE PTR len$[rsp]
  0005d	ff c0		 inc	 eax
  0005f	48 98		 cdqe
  00061	48 89 44 24 40	 mov	 QWORD PTR tv83[rsp], rax
  00066	0f b6 8c 24 88
	00 00 00	 movzx	 ecx, BYTE PTR len$[rsp]
  0006e	ff c1		 inc	 ecx
  00070	48 63 c9	 movsxd	 rcx, ecx
  00073	48 8b 94 24 a0
	00 00 00	 mov	 rdx, QWORD PTR regs$[rsp]
  0007b	0f b6 52 79	 movzx	 edx, BYTE PTR [rdx+121]
  0007f	88 54 24 28	 mov	 BYTE PTR [rsp+40], dl
  00083	c7 44 24 20 02
	00 00 00	 mov	 DWORD PTR [rsp+32], 2
  0008b	4c 8b 8c 24 a0
	00 00 00	 mov	 r9, QWORD PTR regs$[rsp]
  00093	44 8b 84 24 98
	00 00 00	 mov	 r8d, DWORD PTR arn$[rsp]
  0009b	48 8b d1	 mov	 rdx, rcx
  0009e	48 8b 8c 24 90
	00 00 00	 mov	 rcx, QWORD PTR addr$[rsp]
  000a6	e8 00 00 00 00	 call	 z900_maddr_l
  000ab	48 8b f8	 mov	 rdi, rax
  000ae	48 8b b4 24 80
	00 00 00	 mov	 rsi, QWORD PTR src$[rsp]
  000b6	48 8b 44 24 40	 mov	 rax, QWORD PTR tv83[rsp]
  000bb	48 8b c8	 mov	 rcx, rax
  000be	f3 a4		 rep movsb

; 497  :                src, len + 1);
; 498  :         ITIMER_UPDATE( addr, len, regs );
; 499  :     }

  000c0	e9 33 01 00 00	 jmp	 $LN3@z900_vstor
$LN2@z900_vstor:

; 500  :     else
; 501  :     {
; 502  :         len2 = PAGEFRAME_PAGESIZE - (addr & PAGEFRAME_BYTEMASK);

  000c5	48 8b 84 24 90
	00 00 00	 mov	 rax, QWORD PTR addr$[rsp]
  000cd	48 25 ff 0f 00
	00		 and	 rax, 4095		; 00000fffH
  000d3	b9 00 10 00 00	 mov	 ecx, 4096		; 00001000H
  000d8	48 2b c8	 sub	 rcx, rax
  000db	48 8b c1	 mov	 rax, rcx
  000de	89 44 24 30	 mov	 DWORD PTR len2$[rsp], eax

; 503  :         main1 = MADDRL( addr, len2, arn, regs, ACCTYPE_WRITE_SKP,

  000e2	48 63 44 24 30	 movsxd	 rax, DWORD PTR len2$[rsp]
  000e7	48 8b 8c 24 a0
	00 00 00	 mov	 rcx, QWORD PTR regs$[rsp]
  000ef	0f b6 49 79	 movzx	 ecx, BYTE PTR [rcx+121]
  000f3	88 4c 24 28	 mov	 BYTE PTR [rsp+40], cl
  000f7	c7 44 24 20 01
	00 00 00	 mov	 DWORD PTR [rsp+32], 1
  000ff	4c 8b 8c 24 a0
	00 00 00	 mov	 r9, QWORD PTR regs$[rsp]
  00107	44 8b 84 24 98
	00 00 00	 mov	 r8d, DWORD PTR arn$[rsp]
  0010f	48 8b d0	 mov	 rdx, rax
  00112	48 8b 8c 24 90
	00 00 00	 mov	 rcx, QWORD PTR addr$[rsp]
  0011a	e8 00 00 00 00	 call	 z900_maddr_l
  0011f	48 89 44 24 48	 mov	 QWORD PTR main1$[rsp], rax

; 504  :                         regs->psw.pkey );
; 505  :         sk = regs->dat.storkey;

  00124	48 8b 84 24 a0
	00 00 00	 mov	 rax, QWORD PTR regs$[rsp]
  0012c	48 8b 80 28 08
	00 00		 mov	 rax, QWORD PTR [rax+2088]
  00133	48 89 44 24 38	 mov	 QWORD PTR sk$[rsp], rax

; 506  :         main2 = MADDRL( (addr + len2) & ADDRESS_MAXWRAP( regs ),

  00138	0f b6 84 24 88
	00 00 00	 movzx	 eax, BYTE PTR len$[rsp]
  00140	ff c0		 inc	 eax
  00142	2b 44 24 30	 sub	 eax, DWORD PTR len2$[rsp]
  00146	48 98		 cdqe
  00148	48 63 4c 24 30	 movsxd	 rcx, DWORD PTR len2$[rsp]
  0014d	48 8b 94 24 90
	00 00 00	 mov	 rdx, QWORD PTR addr$[rsp]
  00155	48 03 d1	 add	 rdx, rcx
  00158	48 8b ca	 mov	 rcx, rdx
  0015b	48 8b 94 24 a0
	00 00 00	 mov	 rdx, QWORD PTR regs$[rsp]
  00163	48 23 8a 90 00
	00 00		 and	 rcx, QWORD PTR [rdx+144]
  0016a	48 8b 94 24 a0
	00 00 00	 mov	 rdx, QWORD PTR regs$[rsp]
  00172	0f b6 52 79	 movzx	 edx, BYTE PTR [rdx+121]
  00176	88 54 24 28	 mov	 BYTE PTR [rsp+40], dl
  0017a	c7 44 24 20 02
	00 00 00	 mov	 DWORD PTR [rsp+32], 2
  00182	4c 8b 8c 24 a0
	00 00 00	 mov	 r9, QWORD PTR regs$[rsp]
  0018a	44 8b 84 24 98
	00 00 00	 mov	 r8d, DWORD PTR arn$[rsp]
  00192	48 8b d0	 mov	 rdx, rax
  00195	e8 00 00 00 00	 call	 z900_maddr_l
  0019a	48 89 44 24 50	 mov	 QWORD PTR main2$[rsp], rax

; 507  :                         len+1-len2, arn,
; 508  :                         regs, ACCTYPE_WRITE, regs->psw.pkey );
; 509  :         *sk |= (STORKEY_REF | STORKEY_CHANGE);

  0019f	48 8b 44 24 38	 mov	 rax, QWORD PTR sk$[rsp]
  001a4	0f b6 00	 movzx	 eax, BYTE PTR [rax]
  001a7	83 c8 06	 or	 eax, 6
  001aa	48 8b 4c 24 38	 mov	 rcx, QWORD PTR sk$[rsp]
  001af	88 01		 mov	 BYTE PTR [rcx], al

; 510  :         memcpy( main1, src, len2 );

  001b1	48 63 44 24 30	 movsxd	 rax, DWORD PTR len2$[rsp]
  001b6	48 8b 7c 24 48	 mov	 rdi, QWORD PTR main1$[rsp]
  001bb	48 8b b4 24 80
	00 00 00	 mov	 rsi, QWORD PTR src$[rsp]
  001c3	48 8b c8	 mov	 rcx, rax
  001c6	f3 a4		 rep movsb

; 511  :         memcpy( main2, (BYTE*)src + len2, len + 1 - len2 );

  001c8	0f b6 84 24 88
	00 00 00	 movzx	 eax, BYTE PTR len$[rsp]
  001d0	ff c0		 inc	 eax
  001d2	2b 44 24 30	 sub	 eax, DWORD PTR len2$[rsp]
  001d6	48 98		 cdqe
  001d8	48 63 4c 24 30	 movsxd	 rcx, DWORD PTR len2$[rsp]
  001dd	48 8b 94 24 80
	00 00 00	 mov	 rdx, QWORD PTR src$[rsp]
  001e5	48 03 d1	 add	 rdx, rcx
  001e8	48 8b ca	 mov	 rcx, rdx
  001eb	48 8b 7c 24 50	 mov	 rdi, QWORD PTR main2$[rsp]
  001f0	48 8b f1	 mov	 rsi, rcx
  001f3	48 8b c8	 mov	 rcx, rax
  001f6	f3 a4		 rep movsb
$LN3@z900_vstor:

; 512  :     }
; 513  : }

  001f8	48 83 c4 68	 add	 rsp, 104		; 00000068H
  001fc	5f		 pop	 rdi
  001fd	5e		 pop	 rsi
  001fe	c3		 ret	 0
z900_vstorec ENDP
_TEXT	ENDS
; Function compile flags: /Odtp
; File C:\papa\MyGit\hyperion-zvector\vstore.h
;	COMDAT z900_vstore8_full
_TEXT	SEGMENT
len$ = 48
sk$ = 56
main1$ = 64
main2$ = 72
temp$ = 80
__$ArrayPad$ = 88
value$ = 128
addr$ = 136
arn$ = 144
regs$ = 152
z900_vstore8_full PROC					; COMDAT

; 369  : {

$LN3:
  00000	4c 89 4c 24 20	 mov	 QWORD PTR [rsp+32], r9
  00005	44 89 44 24 18	 mov	 DWORD PTR [rsp+24], r8d
  0000a	48 89 54 24 10	 mov	 QWORD PTR [rsp+16], rdx
  0000f	48 89 4c 24 08	 mov	 QWORD PTR [rsp+8], rcx
  00014	56		 push	 rsi
  00015	57		 push	 rdi
  00016	48 83 ec 68	 sub	 rsp, 104		; 00000068H
  0001a	48 8b 05 00 00
	00 00		 mov	 rax, QWORD PTR __security_cookie
  00021	48 33 c4	 xor	 rax, rsp
  00024	48 89 44 24 58	 mov	 QWORD PTR __$ArrayPad$[rsp], rax

; 370  : BYTE   *main1, *main2;                  /* Mainstor addresses        */
; 371  : BYTE   *sk;                             /* Storage key addresses     */
; 372  : int     len;                            /* Length to end of page     */
; 373  : BYTE    temp[8];                        /* Copied value              */
; 374  : 
; 375  :     len = PAGEFRAME_PAGESIZE - (addr & PAGEFRAME_BYTEMASK);

  00029	48 8b 84 24 88
	00 00 00	 mov	 rax, QWORD PTR addr$[rsp]
  00031	48 25 ff 0f 00
	00		 and	 rax, 4095		; 00000fffH
  00037	b9 00 10 00 00	 mov	 ecx, 4096		; 00001000H
  0003c	48 2b c8	 sub	 rcx, rax
  0003f	48 8b c1	 mov	 rax, rcx
  00042	89 44 24 30	 mov	 DWORD PTR len$[rsp], eax

; 376  :     main1 = MADDRL( addr, len, arn, regs, ACCTYPE_WRITE_SKP, regs->psw.pkey );

  00046	48 63 44 24 30	 movsxd	 rax, DWORD PTR len$[rsp]
  0004b	48 8b 8c 24 98
	00 00 00	 mov	 rcx, QWORD PTR regs$[rsp]
  00053	0f b6 49 79	 movzx	 ecx, BYTE PTR [rcx+121]
  00057	88 4c 24 28	 mov	 BYTE PTR [rsp+40], cl
  0005b	c7 44 24 20 01
	00 00 00	 mov	 DWORD PTR [rsp+32], 1
  00063	4c 8b 8c 24 98
	00 00 00	 mov	 r9, QWORD PTR regs$[rsp]
  0006b	44 8b 84 24 90
	00 00 00	 mov	 r8d, DWORD PTR arn$[rsp]
  00073	48 8b d0	 mov	 rdx, rax
  00076	48 8b 8c 24 88
	00 00 00	 mov	 rcx, QWORD PTR addr$[rsp]
  0007e	e8 00 00 00 00	 call	 z900_maddr_l
  00083	48 89 44 24 40	 mov	 QWORD PTR main1$[rsp], rax

; 377  :     sk = regs->dat.storkey;

  00088	48 8b 84 24 98
	00 00 00	 mov	 rax, QWORD PTR regs$[rsp]
  00090	48 8b 80 28 08
	00 00		 mov	 rax, QWORD PTR [rax+2088]
  00097	48 89 44 24 38	 mov	 QWORD PTR sk$[rsp], rax

; 378  :     main2 = MADDRL( (addr + len) & ADDRESS_MAXWRAP( regs ), 8-len, arn, regs,

  0009c	b8 08 00 00 00	 mov	 eax, 8
  000a1	2b 44 24 30	 sub	 eax, DWORD PTR len$[rsp]
  000a5	48 98		 cdqe
  000a7	48 63 4c 24 30	 movsxd	 rcx, DWORD PTR len$[rsp]
  000ac	48 8b 94 24 88
	00 00 00	 mov	 rdx, QWORD PTR addr$[rsp]
  000b4	48 03 d1	 add	 rdx, rcx
  000b7	48 8b ca	 mov	 rcx, rdx
  000ba	48 8b 94 24 98
	00 00 00	 mov	 rdx, QWORD PTR regs$[rsp]
  000c2	48 23 8a 90 00
	00 00		 and	 rcx, QWORD PTR [rdx+144]
  000c9	48 8b 94 24 98
	00 00 00	 mov	 rdx, QWORD PTR regs$[rsp]
  000d1	0f b6 52 79	 movzx	 edx, BYTE PTR [rdx+121]
  000d5	88 54 24 28	 mov	 BYTE PTR [rsp+40], dl
  000d9	c7 44 24 20 02
	00 00 00	 mov	 DWORD PTR [rsp+32], 2
  000e1	4c 8b 8c 24 98
	00 00 00	 mov	 r9, QWORD PTR regs$[rsp]
  000e9	44 8b 84 24 90
	00 00 00	 mov	 r8d, DWORD PTR arn$[rsp]
  000f1	48 8b d0	 mov	 rdx, rax
  000f4	e8 00 00 00 00	 call	 z900_maddr_l
  000f9	48 89 44 24 48	 mov	 QWORD PTR main2$[rsp], rax

; 379  :                     ACCTYPE_WRITE, regs->psw.pkey );
; 380  :     *sk |= (STORKEY_REF | STORKEY_CHANGE);

  000fe	48 8b 44 24 38	 mov	 rax, QWORD PTR sk$[rsp]
  00103	0f b6 00	 movzx	 eax, BYTE PTR [rax]
  00106	83 c8 06	 or	 eax, 6
  00109	48 8b 4c 24 38	 mov	 rcx, QWORD PTR sk$[rsp]
  0010e	88 01		 mov	 BYTE PTR [rcx], al

; 381  :     STORE_DW( temp, value );

  00110	48 8b 8c 24 80
	00 00 00	 mov	 rcx, QWORD PTR value$[rsp]
  00118	e8 00 00 00 00	 call	 _byteswap_uint64
  0011d	48 8b d0	 mov	 rdx, rax
  00120	48 8d 4c 24 50	 lea	 rcx, QWORD PTR temp$[rsp]
  00125	e8 00 00 00 00	 call	 store_dw_noswap

; 382  :     memcpy( main1, temp,       len );

  0012a	48 63 44 24 30	 movsxd	 rax, DWORD PTR len$[rsp]
  0012f	48 8d 4c 24 50	 lea	 rcx, QWORD PTR temp$[rsp]
  00134	48 8b 7c 24 40	 mov	 rdi, QWORD PTR main1$[rsp]
  00139	48 8b f1	 mov	 rsi, rcx
  0013c	48 8b c8	 mov	 rcx, rax
  0013f	f3 a4		 rep movsb

; 383  :     memcpy( main2, temp+len, 8-len );

  00141	b8 08 00 00 00	 mov	 eax, 8
  00146	2b 44 24 30	 sub	 eax, DWORD PTR len$[rsp]
  0014a	48 98		 cdqe
  0014c	48 63 4c 24 30	 movsxd	 rcx, DWORD PTR len$[rsp]
  00151	48 8d 4c 0c 50	 lea	 rcx, QWORD PTR temp$[rsp+rcx]
  00156	48 8b 7c 24 48	 mov	 rdi, QWORD PTR main2$[rsp]
  0015b	48 8b f1	 mov	 rsi, rcx
  0015e	48 8b c8	 mov	 rcx, rax
  00161	f3 a4		 rep movsb

; 384  : }

  00163	48 8b 4c 24 58	 mov	 rcx, QWORD PTR __$ArrayPad$[rsp]
  00168	48 33 cc	 xor	 rcx, rsp
  0016b	e8 00 00 00 00	 call	 __security_check_cookie
  00170	48 83 c4 68	 add	 rsp, 104		; 00000068H
  00174	5f		 pop	 rdi
  00175	5e		 pop	 rsi
  00176	c3		 ret	 0
z900_vstore8_full ENDP
_TEXT	ENDS
; Function compile flags: /Odtp
; File C:\papa\MyGit\hyperion-zvector\vstore.h
;	COMDAT z900_vstore4_full
_TEXT	SEGMENT
len$ = 48
temp$ = 52
sk$ = 56
main1$ = 64
main2$ = 72
value$ = 112
addr$ = 120
arn$ = 128
regs$ = 136
z900_vstore4_full PROC					; COMDAT

; 335  : {

$LN3:
  00000	4c 89 4c 24 20	 mov	 QWORD PTR [rsp+32], r9
  00005	44 89 44 24 18	 mov	 DWORD PTR [rsp+24], r8d
  0000a	48 89 54 24 10	 mov	 QWORD PTR [rsp+16], rdx
  0000f	89 4c 24 08	 mov	 DWORD PTR [rsp+8], ecx
  00013	56		 push	 rsi
  00014	57		 push	 rdi
  00015	48 83 ec 58	 sub	 rsp, 88			; 00000058H

; 336  : BYTE   *main1, *main2;                  /* Mainstor addresses        */
; 337  : BYTE   *sk;                             /* Storage key addresses     */
; 338  : int     len;                            /* Length to end of page     */
; 339  : BYTE    temp[4];                        /* Copied value              */
; 340  : 
; 341  :     len = PAGEFRAME_PAGESIZE - (addr & PAGEFRAME_BYTEMASK);

  00019	48 8b 44 24 78	 mov	 rax, QWORD PTR addr$[rsp]
  0001e	48 25 ff 0f 00
	00		 and	 rax, 4095		; 00000fffH
  00024	b9 00 10 00 00	 mov	 ecx, 4096		; 00001000H
  00029	48 2b c8	 sub	 rcx, rax
  0002c	48 8b c1	 mov	 rax, rcx
  0002f	89 44 24 30	 mov	 DWORD PTR len$[rsp], eax

; 342  :     main1 = MADDRL( addr, len, arn, regs, ACCTYPE_WRITE_SKP, regs->psw.pkey );

  00033	48 63 44 24 30	 movsxd	 rax, DWORD PTR len$[rsp]
  00038	48 8b 8c 24 88
	00 00 00	 mov	 rcx, QWORD PTR regs$[rsp]
  00040	0f b6 49 79	 movzx	 ecx, BYTE PTR [rcx+121]
  00044	88 4c 24 28	 mov	 BYTE PTR [rsp+40], cl
  00048	c7 44 24 20 01
	00 00 00	 mov	 DWORD PTR [rsp+32], 1
  00050	4c 8b 8c 24 88
	00 00 00	 mov	 r9, QWORD PTR regs$[rsp]
  00058	44 8b 84 24 80
	00 00 00	 mov	 r8d, DWORD PTR arn$[rsp]
  00060	48 8b d0	 mov	 rdx, rax
  00063	48 8b 4c 24 78	 mov	 rcx, QWORD PTR addr$[rsp]
  00068	e8 00 00 00 00	 call	 z900_maddr_l
  0006d	48 89 44 24 40	 mov	 QWORD PTR main1$[rsp], rax

; 343  :     sk = regs->dat.storkey;

  00072	48 8b 84 24 88
	00 00 00	 mov	 rax, QWORD PTR regs$[rsp]
  0007a	48 8b 80 28 08
	00 00		 mov	 rax, QWORD PTR [rax+2088]
  00081	48 89 44 24 38	 mov	 QWORD PTR sk$[rsp], rax

; 344  :     main2 = MADDRL( (addr + len) & ADDRESS_MAXWRAP( regs ), 4-len, arn, regs,

  00086	b8 04 00 00 00	 mov	 eax, 4
  0008b	2b 44 24 30	 sub	 eax, DWORD PTR len$[rsp]
  0008f	48 98		 cdqe
  00091	48 63 4c 24 30	 movsxd	 rcx, DWORD PTR len$[rsp]
  00096	48 8b 54 24 78	 mov	 rdx, QWORD PTR addr$[rsp]
  0009b	48 03 d1	 add	 rdx, rcx
  0009e	48 8b ca	 mov	 rcx, rdx
  000a1	48 8b 94 24 88
	00 00 00	 mov	 rdx, QWORD PTR regs$[rsp]
  000a9	48 23 8a 90 00
	00 00		 and	 rcx, QWORD PTR [rdx+144]
  000b0	48 8b 94 24 88
	00 00 00	 mov	 rdx, QWORD PTR regs$[rsp]
  000b8	0f b6 52 79	 movzx	 edx, BYTE PTR [rdx+121]
  000bc	88 54 24 28	 mov	 BYTE PTR [rsp+40], dl
  000c0	c7 44 24 20 02
	00 00 00	 mov	 DWORD PTR [rsp+32], 2
  000c8	4c 8b 8c 24 88
	00 00 00	 mov	 r9, QWORD PTR regs$[rsp]
  000d0	44 8b 84 24 80
	00 00 00	 mov	 r8d, DWORD PTR arn$[rsp]
  000d8	48 8b d0	 mov	 rdx, rax
  000db	e8 00 00 00 00	 call	 z900_maddr_l
  000e0	48 89 44 24 48	 mov	 QWORD PTR main2$[rsp], rax

; 345  :                     ACCTYPE_WRITE, regs->psw.pkey );
; 346  :     *sk |= (STORKEY_REF | STORKEY_CHANGE);

  000e5	48 8b 44 24 38	 mov	 rax, QWORD PTR sk$[rsp]
  000ea	0f b6 00	 movzx	 eax, BYTE PTR [rax]
  000ed	83 c8 06	 or	 eax, 6
  000f0	48 8b 4c 24 38	 mov	 rcx, QWORD PTR sk$[rsp]
  000f5	88 01		 mov	 BYTE PTR [rcx], al

; 347  :     STORE_FW( temp, value );

  000f7	8b 4c 24 70	 mov	 ecx, DWORD PTR value$[rsp]
  000fb	e8 00 00 00 00	 call	 _byteswap_ulong
  00100	8b d0		 mov	 edx, eax
  00102	48 8d 4c 24 34	 lea	 rcx, QWORD PTR temp$[rsp]
  00107	e8 00 00 00 00	 call	 store_fw_noswap

; 348  :     memcpy( main1, temp,       len );

  0010c	48 63 44 24 30	 movsxd	 rax, DWORD PTR len$[rsp]
  00111	48 8d 4c 24 34	 lea	 rcx, QWORD PTR temp$[rsp]
  00116	48 8b 7c 24 40	 mov	 rdi, QWORD PTR main1$[rsp]
  0011b	48 8b f1	 mov	 rsi, rcx
  0011e	48 8b c8	 mov	 rcx, rax
  00121	f3 a4		 rep movsb

; 349  :     memcpy( main2, temp+len, 4-len );

  00123	b8 04 00 00 00	 mov	 eax, 4
  00128	2b 44 24 30	 sub	 eax, DWORD PTR len$[rsp]
  0012c	48 98		 cdqe
  0012e	48 63 4c 24 30	 movsxd	 rcx, DWORD PTR len$[rsp]
  00133	48 8d 4c 0c 34	 lea	 rcx, QWORD PTR temp$[rsp+rcx]
  00138	48 8b 7c 24 48	 mov	 rdi, QWORD PTR main2$[rsp]
  0013d	48 8b f1	 mov	 rsi, rcx
  00140	48 8b c8	 mov	 rcx, rax
  00143	f3 a4		 rep movsb

; 350  : }

  00145	48 83 c4 58	 add	 rsp, 88			; 00000058H
  00149	5f		 pop	 rdi
  0014a	5e		 pop	 rsi
  0014b	c3		 ret	 0
z900_vstore4_full ENDP
_TEXT	ENDS
; Function compile flags: /Odtp
; File C:\papa\MyGit\hyperion-zvector\dat.h
;	COMDAT z900_maddr_l
_TEXT	SEGMENT
tlbix$ = 48
aea_crn$ = 52
tv70 = 56
maddr$ = 64
addr$ = 96
len$ = 104
arn$ = 112
regs$ = 120
acctype$ = 128
akey$ = 136
z900_maddr_l PROC					; COMDAT

; 307  : {

$LN18:
  00000	4c 89 4c 24 20	 mov	 QWORD PTR [rsp+32], r9
  00005	44 89 44 24 18	 mov	 DWORD PTR [rsp+24], r8d
  0000a	48 89 54 24 10	 mov	 QWORD PTR [rsp+16], rdx
  0000f	48 89 4c 24 08	 mov	 QWORD PTR [rsp+8], rcx
  00014	48 83 ec 58	 sub	 rsp, 88			; 00000058H

; 308  :     /* Note: ALL of the below conditions must be true for a TLB hit
; 309  :        to occur.  If ANY of them are false, then it's a TLB miss,
; 310  :        requiring us to then perform a full DAT address translation.
; 311  : 
; 312  :        Note too that on the grand scheme of things the order/sequence
; 313  :        of the below tests (if statements) is completely unimportant
; 314  :        since ALL conditions must be checked anyway in order for a hit
; 315  :        to occur, and it doesn't matter that a miss tests a few extra
; 316  :        conditions since it's going to do a full translation anyway!
; 317  :        (which is many, many instructions)
; 318  :     */
; 319  : 
; 320  :     int  aea_crn  = (arn >= USE_ARMODE) ? 0 : regs->AEA_AR( arn );

  00018	83 7c 24 70 10	 cmp	 DWORD PTR arn$[rsp], 16
  0001d	7c 0a		 jl	 SHORT $LN16@z900_maddr
  0001f	c7 44 24 38 00
	00 00 00	 mov	 DWORD PTR tv70[rsp], 0
  00027	eb 19		 jmp	 SHORT $LN17@z900_maddr
$LN16@z900_maddr:
  00029	8b 44 24 70	 mov	 eax, DWORD PTR arn$[rsp]
  0002d	83 c0 05	 add	 eax, 5
  00030	48 98		 cdqe
  00032	48 8b 4c 24 78	 mov	 rcx, QWORD PTR regs$[rsp]
  00037	8b 84 81 94 0c
	00 00		 mov	 eax, DWORD PTR [rcx+rax*4+3220]
  0003e	89 44 24 38	 mov	 DWORD PTR tv70[rsp], eax
$LN17@z900_maddr:
  00042	8b 44 24 38	 mov	 eax, DWORD PTR tv70[rsp]
  00046	89 44 24 34	 mov	 DWORD PTR aea_crn$[rsp], eax

; 321  :     U16  tlbix    = TLBIX( addr );

  0004a	48 8b 44 24 60	 mov	 rax, QWORD PTR addr$[rsp]
  0004f	48 c1 e8 0c	 shr	 rax, 12
  00053	48 25 ff 03 00
	00		 and	 rax, 1023		; 000003ffH
  00059	66 89 44 24 30	 mov	 WORD PTR tlbix$[rsp], ax

; 322  :     BYTE *maddr   = NULL;

  0005e	48 c7 44 24 40
	00 00 00 00	 mov	 QWORD PTR maddr$[rsp], 0

; 323  : 
; 324  :     /* Non-zero AEA Control Register number? */
; 325  :     if (aea_crn)

  00067	83 7c 24 34 00	 cmp	 DWORD PTR aea_crn$[rsp], 0
  0006c	0f 84 2d 01 00
	00		 je	 $LN2@z900_maddr

; 326  :     {
; 327  :         /* Same Addess Space Designator as before? */
; 328  :         /* Or if not, is address in a common segment? */
; 329  :         if (0
; 330  :             || (regs->CR( aea_crn ) == regs->tlb.TLB_ASD( tlbix ))
; 331  :             || (regs->AEA_COMMON( aea_crn ) & regs->tlb.common[ tlbix ])

  00072	33 c0		 xor	 eax, eax
  00074	85 c0		 test	 eax, eax
  00076	75 5a		 jne	 SHORT $LN4@z900_maddr
  00078	8b 44 24 34	 mov	 eax, DWORD PTR aea_crn$[rsp]
  0007c	ff c0		 inc	 eax
  0007e	48 98		 cdqe
  00080	0f b7 4c 24 30	 movzx	 ecx, WORD PTR tlbix$[rsp]
  00085	48 8b 54 24 78	 mov	 rdx, QWORD PTR regs$[rsp]
  0008a	4c 8b 44 24 78	 mov	 r8, QWORD PTR regs$[rsp]
  0008f	49 8b 8c c8 60
	b0 00 00	 mov	 rcx, QWORD PTR [r8+rcx*8+45152]
  00097	48 39 8c c2 00
	06 00 00	 cmp	 QWORD PTR [rdx+rax*8+1536], rcx
  0009f	74 31		 je	 SHORT $LN4@z900_maddr
  000a1	8b 44 24 34	 mov	 eax, DWORD PTR aea_crn$[rsp]
  000a5	ff c0		 inc	 eax
  000a7	48 98		 cdqe
  000a9	48 8b 4c 24 78	 mov	 rcx, QWORD PTR regs$[rsp]
  000ae	0f b6 84 01 e8
	0c 00 00	 movzx	 eax, BYTE PTR [rcx+rax+3304]
  000b6	0f b7 4c 24 30	 movzx	 ecx, WORD PTR tlbix$[rsp]
  000bb	48 8b 54 24 78	 mov	 rdx, QWORD PTR regs$[rsp]
  000c0	0f b6 8c 0a 60
	54 01 00	 movzx	 ecx, BYTE PTR [rdx+rcx+87136]
  000c8	23 c1		 and	 eax, ecx
  000ca	85 c0		 test	 eax, eax
  000cc	0f 84 cd 00 00
	00		 je	 $LN3@z900_maddr
$LN4@z900_maddr:

; 332  :         )
; 333  :         {
; 334  :             /* Storage Key zero? */
; 335  :             /* Or if not, same Storage Key as before? */
; 336  :             if (0
; 337  :                 || akey == 0
; 338  :                 || akey == regs->tlb.skey[ tlbix ]

  000d2	33 c0		 xor	 eax, eax
  000d4	85 c0		 test	 eax, eax
  000d6	75 2e		 jne	 SHORT $LN6@z900_maddr
  000d8	0f b6 84 24 88
	00 00 00	 movzx	 eax, BYTE PTR akey$[rsp]
  000e0	85 c0		 test	 eax, eax
  000e2	74 22		 je	 SHORT $LN6@z900_maddr
  000e4	0f b6 84 24 88
	00 00 00	 movzx	 eax, BYTE PTR akey$[rsp]
  000ec	0f b7 4c 24 30	 movzx	 ecx, WORD PTR tlbix$[rsp]
  000f1	48 8b 54 24 78	 mov	 rdx, QWORD PTR regs$[rsp]
  000f6	0f b6 8c 0a 60
	50 01 00	 movzx	 ecx, BYTE PTR [rdx+rcx+86112]
  000fe	3b c1		 cmp	 eax, ecx
  00100	0f 85 99 00 00
	00		 jne	 $LN5@z900_maddr
$LN6@z900_maddr:

; 339  :             )
; 340  :             {
; 341  :                 /* Does the page address match the one in the TLB? */
; 342  :                 /* (does a TLB entry exist for this page address?) */
; 343  :                 if (
; 344  :                     ((addr & TLBID_PAGEMASK) | regs->tlbID)
; 345  :                     ==

  00106	48 8b 44 24 60	 mov	 rax, QWORD PTR addr$[rsp]
  0010b	48 25 00 00 c0
	ff		 and	 rax, -4194304		; ffffffffffc00000H
  00111	48 8b 4c 24 78	 mov	 rcx, QWORD PTR regs$[rsp]
  00116	8b 89 58 b0 00
	00		 mov	 ecx, DWORD PTR [rcx+45144]
  0011c	48 0b c1	 or	 rax, rcx
  0011f	0f b7 4c 24 30	 movzx	 ecx, WORD PTR tlbix$[rsp]
  00124	48 8b 54 24 78	 mov	 rdx, QWORD PTR regs$[rsp]
  00129	48 3b 84 ca 60
	d0 00 00	 cmp	 rax, QWORD PTR [rdx+rcx*8+53344]
  00131	75 6c		 jne	 SHORT $LN7@z900_maddr

; 346  :                     regs->tlb.TLB_VADDR( tlbix )
; 347  :                 )
; 348  :                 {
; 349  :                     /* Is storage being accessed same way as before? */
; 350  :                     if (acctype & regs->tlb.acc[ tlbix ])

  00133	0f b7 44 24 30	 movzx	 eax, WORD PTR tlbix$[rsp]
  00138	48 8b 4c 24 78	 mov	 rcx, QWORD PTR regs$[rsp]
  0013d	0f b6 84 01 60
	5c 01 00	 movzx	 eax, BYTE PTR [rcx+rax+89184]
  00145	8b 8c 24 80 00
	00 00		 mov	 ecx, DWORD PTR acctype$[rsp]
  0014c	23 c8		 and	 ecx, eax
  0014e	8b c1		 mov	 eax, ecx
  00150	85 c0		 test	 eax, eax
  00152	74 4b		 je	 SHORT $LN8@z900_maddr

; 351  :                     {
; 352  :                         /*------------------------------------------*/
; 353  :                         /* TLB hit: use previously translated value */
; 354  :                         /*------------------------------------------*/
; 355  : 
; 356  :                         if (acctype & ACC_CHECK)

  00154	8b 84 24 80 00
	00 00		 mov	 eax, DWORD PTR acctype$[rsp]
  0015b	83 e0 01	 and	 eax, 1
  0015e	85 c0		 test	 eax, eax
  00160	74 1e		 je	 SHORT $LN9@z900_maddr

; 357  :                             regs->dat.storkey = regs->tlb.storkey[ tlbix ];

  00162	0f b7 44 24 30	 movzx	 eax, WORD PTR tlbix$[rsp]
  00167	48 8b 4c 24 78	 mov	 rcx, QWORD PTR regs$[rsp]
  0016c	48 8b 54 24 78	 mov	 rdx, QWORD PTR regs$[rsp]
  00171	48 8b 84 c2 60
	30 01 00	 mov	 rax, QWORD PTR [rdx+rax*8+77920]
  00179	48 89 81 28 08
	00 00		 mov	 QWORD PTR [rcx+2088], rax
$LN9@z900_maddr:

; 358  : 
; 359  :                         maddr = MAINADDR( regs->tlb.main[tlbix], addr );

  00180	0f b7 44 24 30	 movzx	 eax, WORD PTR tlbix$[rsp]
  00185	48 8b 4c 24 78	 mov	 rcx, QWORD PTR regs$[rsp]
  0018a	48 8b 54 24 60	 mov	 rdx, QWORD PTR addr$[rsp]
  0018f	48 8b 84 c1 60
	10 01 00	 mov	 rax, QWORD PTR [rcx+rax*8+69728]
  00197	48 33 c2	 xor	 rax, rdx
  0019a	48 89 44 24 40	 mov	 QWORD PTR maddr$[rsp], rax
$LN8@z900_maddr:
$LN7@z900_maddr:
$LN5@z900_maddr:
$LN3@z900_maddr:
$LN2@z900_maddr:

; 360  :                     }
; 361  :                 }
; 362  :             }
; 363  :         }
; 364  :     }
; 365  : 
; 366  :     /*---------------------------------------*/
; 367  :     /* TLB miss: do full address translation */
; 368  :     /*---------------------------------------*/
; 369  :     if (!maddr)

  0019f	48 83 7c 24 40
	00		 cmp	 QWORD PTR maddr$[rsp], 0
  001a5	75 36		 jne	 SHORT $LN10@z900_maddr

; 370  :         maddr = ARCH_DEP( logical_to_main_l )( addr, arn, regs, acctype, akey, len );

  001a7	48 8b 44 24 68	 mov	 rax, QWORD PTR len$[rsp]
  001ac	48 89 44 24 28	 mov	 QWORD PTR [rsp+40], rax
  001b1	0f b6 84 24 88
	00 00 00	 movzx	 eax, BYTE PTR akey$[rsp]
  001b9	88 44 24 20	 mov	 BYTE PTR [rsp+32], al
  001bd	44 8b 8c 24 80
	00 00 00	 mov	 r9d, DWORD PTR acctype$[rsp]
  001c5	4c 8b 44 24 78	 mov	 r8, QWORD PTR regs$[rsp]
  001ca	8b 54 24 70	 mov	 edx, DWORD PTR arn$[rsp]
  001ce	48 8b 4c 24 60	 mov	 rcx, QWORD PTR addr$[rsp]
  001d3	e8 00 00 00 00	 call	 z900_logical_to_main_l
  001d8	48 89 44 24 40	 mov	 QWORD PTR maddr$[rsp], rax
$LN10@z900_maddr:

; 371  : 
; 372  : #if defined( FEATURE_073_TRANSACT_EXEC_FACILITY )
; 373  :     if (FACILITY_ENABLED( 073_TRANSACT_EXEC, regs ))

  001dd	b8 01 00 00 00	 mov	 eax, 1
  001e2	48 6b c0 09	 imul	 rax, rax, 9
  001e6	48 8b 4c 24 78	 mov	 rcx, QWORD PTR regs$[rsp]
  001eb	0f b6 84 01 28
	0d 00 00	 movzx	 eax, BYTE PTR [rcx+rax+3368]
  001f3	83 e0 40	 and	 eax, 64			; 00000040H
  001f6	85 c0		 test	 eax, eax
  001f8	0f 84 89 00 00
	00		 je	 $LN11@z900_maddr

; 374  :     {
; 375  :         /* SA22-7832-12 Principles of Operation, page 5-99:
; 376  : 
; 377  :              "Storage accesses for instruction and DAT- and ART-
; 378  :               table fetches follow the non-transactional rules."
; 379  :         */
; 380  :         if (0
; 381  :             || !regs
; 382  :             || !regs->txf_tnd
; 383  :             || arn == USE_INST_SPACE    /* Instruction fetching */
; 384  :             || arn == USE_REAL_ADDR     /* Address translation  */

  001fe	33 c0		 xor	 eax, eax
  00200	85 c0		 test	 eax, eax
  00202	75 26		 jne	 SHORT $LN13@z900_maddr
  00204	48 83 7c 24 78
	00		 cmp	 QWORD PTR regs$[rsp], 0
  0020a	74 1e		 je	 SHORT $LN13@z900_maddr
  0020c	48 8b 44 24 78	 mov	 rax, QWORD PTR regs$[rsp]
  00211	0f b6 80 58 0e
	00 00		 movzx	 eax, BYTE PTR [rax+3672]
  00218	85 c0		 test	 eax, eax
  0021a	74 0e		 je	 SHORT $LN13@z900_maddr
  0021c	83 7c 24 70 ff	 cmp	 DWORD PTR arn$[rsp], -1
  00221	74 07		 je	 SHORT $LN13@z900_maddr
  00223	83 7c 24 70 fe	 cmp	 DWORD PTR arn$[rsp], -2
  00228	75 07		 jne	 SHORT $LN12@z900_maddr
$LN13@z900_maddr:

; 385  :         )
; 386  :             return maddr;

  0022a	48 8b 44 24 40	 mov	 rax, QWORD PTR maddr$[rsp]
  0022f	eb 5b		 jmp	 SHORT $LN1@z900_maddr
$LN12@z900_maddr:

; 387  : 
; 388  :         /* Quick exit if NTSTG call */
; 389  :         if (regs->txf_NTSTG)

  00231	48 8b 44 24 78	 mov	 rax, QWORD PTR regs$[rsp]
  00236	0f b6 80 4b 0e
	00 00		 movzx	 eax, BYTE PTR [rax+3659]
  0023d	85 c0		 test	 eax, eax
  0023f	74 13		 je	 SHORT $LN14@z900_maddr

; 390  :         {
; 391  :             regs->txf_NTSTG = false;

  00241	48 8b 44 24 78	 mov	 rax, QWORD PTR regs$[rsp]
  00246	c6 80 4b 0e 00
	00 00		 mov	 BYTE PTR [rax+3659], 0

; 392  :             return maddr;

  0024d	48 8b 44 24 40	 mov	 rax, QWORD PTR maddr$[rsp]
  00252	eb 38		 jmp	 SHORT $LN1@z900_maddr
$LN14@z900_maddr:

; 393  :         }
; 394  : 
; 395  :         /* Translate to alternate TXF address */
; 396  :         maddr = TXF_MADDRL( addr, len, arn, regs, acctype, maddr );

  00254	48 8b 44 24 40	 mov	 rax, QWORD PTR maddr$[rsp]
  00259	48 89 44 24 28	 mov	 QWORD PTR [rsp+40], rax
  0025e	8b 84 24 80 00
	00 00		 mov	 eax, DWORD PTR acctype$[rsp]
  00265	89 44 24 20	 mov	 DWORD PTR [rsp+32], eax
  00269	4c 8b 4c 24 78	 mov	 r9, QWORD PTR regs$[rsp]
  0026e	44 8b 44 24 70	 mov	 r8d, DWORD PTR arn$[rsp]
  00273	48 8b 54 24 68	 mov	 rdx, QWORD PTR len$[rsp]
  00278	48 8b 4c 24 60	 mov	 rcx, QWORD PTR addr$[rsp]
  0027d	e8 00 00 00 00	 call	 txf_maddr_l
  00282	48 89 44 24 40	 mov	 QWORD PTR maddr$[rsp], rax
$LN11@z900_maddr:

; 397  :     }
; 398  : #endif
; 399  : 
; 400  :     return maddr;

  00287	48 8b 44 24 40	 mov	 rax, QWORD PTR maddr$[rsp]
$LN1@z900_maddr:

; 401  : }

  0028c	48 83 c4 58	 add	 rsp, 88			; 00000058H
  00290	c3		 ret	 0
z900_maddr_l ENDP
_TEXT	ENDS
; Function compile flags: /Odtp
; File C:\papa\MyGit\hyperion-zvector\inline.h
;	COMDAT z900_per3_zero_xcheck
_TEXT	SEGMENT
tv79 = 32
regs$ = 64
b1$ = 72
z900_per3_zero_xcheck PROC				; COMDAT

; 754  : {

$LN6:
  00000	89 54 24 10	 mov	 DWORD PTR [rsp+16], edx
  00004	48 89 4c 24 08	 mov	 QWORD PTR [rsp+8], rcx
  00009	48 83 ec 38	 sub	 rsp, 56			; 00000038H

; 755  : #if defined( FEATURE_PER_ZERO_ADDRESS_DETECTION_FACILITY )
; 756  :     if (b1 && GR_A( b1, regs ) == 0)

  0000d	83 7c 24 48 00	 cmp	 DWORD PTR b1$[rsp], 0
  00012	74 53		 je	 SHORT $LN2@z900_per3_
  00014	48 8b 44 24 40	 mov	 rax, QWORD PTR regs$[rsp]
  00019	8b 80 80 00 00
	00		 mov	 eax, DWORD PTR [rax+128]
  0001f	83 e0 01	 and	 eax, 1
  00022	85 c0		 test	 eax, eax
  00024	74 19		 je	 SHORT $LN4@z900_per3_
  00026	48 63 44 24 48	 movsxd	 rax, DWORD PTR b1$[rsp]
  0002b	48 8b 4c 24 40	 mov	 rcx, QWORD PTR regs$[rsp]
  00030	48 8b 84 c1 80
	02 00 00	 mov	 rax, QWORD PTR [rcx+rax*8+640]
  00038	48 89 44 24 20	 mov	 QWORD PTR tv79[rsp], rax
  0003d	eb 16		 jmp	 SHORT $LN5@z900_per3_
$LN4@z900_per3_:
  0003f	48 63 44 24 48	 movsxd	 rax, DWORD PTR b1$[rsp]
  00044	48 8b 4c 24 40	 mov	 rcx, QWORD PTR regs$[rsp]
  00049	8b 84 c1 80 02
	00 00		 mov	 eax, DWORD PTR [rcx+rax*8+640]
  00050	48 89 44 24 20	 mov	 QWORD PTR tv79[rsp], rax
$LN5@z900_per3_:
  00055	48 83 7c 24 20
	00		 cmp	 QWORD PTR tv79[rsp], 0
  0005b	75 0a		 jne	 SHORT $LN2@z900_per3_

; 757  :         ARCH_DEP( per3_zero )( regs );

  0005d	48 8b 4c 24 40	 mov	 rcx, QWORD PTR regs$[rsp]
  00062	e8 00 00 00 00	 call	 z900_per3_zero
$LN2@z900_per3_:

; 758  : #else
; 759  :     UNREFERENCED( regs );
; 760  :     UNREFERENCED( b1 );
; 761  : #endif
; 762  : }

  00067	48 83 c4 38	 add	 rsp, 56			; 00000038H
  0006b	c3		 ret	 0
z900_per3_zero_xcheck ENDP
_TEXT	ENDS
; Function compile flags: /Odtp
; File C:\papa\MyGit\hyperion-zvector\inline.h
;	COMDAT z900_per3_zero
_TEXT	SEGMENT
tv75 = 32
regs$ = 64
z900_per3_zero PROC					; COMDAT

; 602  : {

$LN12:
  00000	48 89 4c 24 08	 mov	 QWORD PTR [rsp+8], rcx
  00005	48 83 ec 38	 sub	 rsp, 56			; 00000038H

; 603  : #if defined( FEATURE_PER_ZERO_ADDRESS_DETECTION_FACILITY )
; 604  :     if (1
; 605  :         && EN_IC_PER_ZEROADDR( regs )
; 606  :         && !IS_PER_SUPRESS( regs, CR9_ZEROADDR )

  00009	33 c0		 xor	 eax, eax
  0000b	83 f8 01	 cmp	 eax, 1
  0000e	0f 84 be 00 00
	00		 je	 $LN5@z900_per3_
  00014	48 8b 44 24 40	 mov	 rax, QWORD PTR regs$[rsp]
  00019	8b 80 28 07 00
	00		 mov	 eax, DWORD PTR [rax+1832]
  0001f	c1 e8 02	 shr	 eax, 2
  00022	83 e0 01	 and	 eax, 1
  00025	85 c0		 test	 eax, eax
  00027	74 0a		 je	 SHORT $LN10@z900_per3_
  00029	c7 44 24 20 01
	00 00 00	 mov	 DWORD PTR tv75[rsp], 1
  00031	eb 08		 jmp	 SHORT $LN11@z900_per3_
$LN10@z900_per3_:
  00033	c7 44 24 20 00
	00 00 00	 mov	 DWORD PTR tv75[rsp], 0
$LN11@z900_per3_:
  0003b	83 7c 24 20 00	 cmp	 DWORD PTR tv75[rsp], 0
  00040	0f 84 8c 00 00
	00		 je	 $LN5@z900_per3_
  00046	48 8b 44 24 40	 mov	 rax, QWORD PTR regs$[rsp]
  0004b	8b 40 48	 mov	 eax, DWORD PTR [rax+72]
  0004e	25 00 00 04 00	 and	 eax, 262144		; 00040000H
  00053	85 c0		 test	 eax, eax
  00055	74 7b		 je	 SHORT $LN5@z900_per3_
  00057	ba 00 00 00 04	 mov	 edx, 67108864		; 04000000H
  0005c	48 8b 4c 24 40	 mov	 rcx, QWORD PTR regs$[rsp]
  00061	e8 00 00 00 00	 call	 z900_is_per3_event_suppressed
  00066	0f b6 c0	 movzx	 eax, al
  00069	85 c0		 test	 eax, eax
  0006b	75 65		 jne	 SHORT $LN5@z900_per3_

; 607  :     )
; 608  :     {
; 609  :         regs->peradr = regs->periaddr;

  0006d	48 8b 44 24 40	 mov	 rax, QWORD PTR regs$[rsp]
  00072	48 8b 4c 24 40	 mov	 rcx, QWORD PTR regs$[rsp]
  00077	48 8b 89 e8 08
	00 00		 mov	 rcx, QWORD PTR [rcx+2280]
  0007e	48 89 88 d8 08
	00 00		 mov	 QWORD PTR [rax+2264], rcx
$LN4@z900_per3_:

; 610  :         ON_IC_PER_ZEROADDR( regs );

  00085	48 8b 44 24 40	 mov	 rax, QWORD PTR regs$[rsp]
  0008a	8b 40 4c	 mov	 eax, DWORD PTR [rax+76]
  0008d	0f ba e8 12	 bts	 eax, 18
  00091	48 8b 4c 24 40	 mov	 rcx, QWORD PTR regs$[rsp]
  00096	89 41 4c	 mov	 DWORD PTR [rcx+76], eax
  00099	33 c0		 xor	 eax, eax
  0009b	85 c0		 test	 eax, eax
  0009d	75 e6		 jne	 SHORT $LN4@z900_per3_

; 611  :         if (OPEN_IC_PER_ZEROADDR( regs ))

  0009f	48 8b 44 24 40	 mov	 rax, QWORD PTR regs$[rsp]
  000a4	48 8b 4c 24 40	 mov	 rcx, QWORD PTR regs$[rsp]
  000a9	8b 49 4c	 mov	 ecx, DWORD PTR [rcx+76]
  000ac	8b 40 48	 mov	 eax, DWORD PTR [rax+72]
  000af	23 c1		 and	 eax, ecx
  000b1	25 00 00 04 00	 and	 eax, 262144		; 00040000H
  000b6	85 c0		 test	 eax, eax
  000b8	74 18		 je	 SHORT $LN6@z900_per3_

; 612  :             RETURN_INTCHECK( regs );

  000ba	48 8b 44 24 40	 mov	 rax, QWORD PTR regs$[rsp]
  000bf	48 05 80 09 00
	00		 add	 rax, 2432		; 00000980H
  000c5	ba ff ff ff ff	 mov	 edx, -1
  000ca	48 8b c8	 mov	 rcx, rax
  000cd	e8 00 00 00 00	 call	 longjmp
$LN6@z900_per3_:
$LN5@z900_per3_:
$LN7@z900_per3_:

; 613  :     }
; 614  : #else
; 615  :     UNREFERENCED( regs );
; 616  : #endif
; 617  : }

  000d2	48 83 c4 38	 add	 rsp, 56			; 00000038H
  000d6	c3		 ret	 0
z900_per3_zero ENDP
_TEXT	ENDS
; Function compile flags: /Odtp
; File C:\papa\MyGit\hyperion-zvector\inline.h
;	COMDAT z900_is_per3_event_suppressed
_TEXT	SEGMENT
regs$ = 8
cr9_per_event$ = 16
z900_is_per3_event_suppressed PROC			; COMDAT

; 566  : {

  00000	89 54 24 10	 mov	 DWORD PTR [rsp+16], edx
  00004	48 89 4c 24 08	 mov	 QWORD PTR [rsp+8], rcx

; 567  : #if !defined( FEATURE_PER3 )
; 568  :     UNREFERENCED( regs );
; 569  :     UNREFERENCED( cr9_per_event );
; 570  : #else
; 571  :     /* DON'T suppress this event if Event Suppression isn't enabled */
; 572  :     if (!(regs->CR_L(9) & CR9_SUPPRESS))

  00009	b8 08 00 00 00	 mov	 eax, 8
  0000e	48 6b c0 0a	 imul	 rax, rax, 10
  00012	48 8b 4c 24 08	 mov	 rcx, QWORD PTR regs$[rsp]
  00017	8b 84 01 00 06
	00 00		 mov	 eax, DWORD PTR [rcx+rax+1536]
  0001e	25 00 00 40 00	 and	 eax, 4194304		; 00400000H
  00023	85 c0		 test	 eax, eax
  00025	75 04		 jne	 SHORT $LN2@z900_is_pe

; 573  :         return false;

  00027	32 c0		 xor	 al, al
  00029	eb 78		 jmp	 SHORT $LN1@z900_is_pe
$LN2@z900_is_pe:

; 574  : 
; 575  :     /* Is this PER event one that is ALLOWED to be suppressed? */
; 576  :     if (cr9_per_event & CR9_SUPPRESSABLE)

  0002b	8b 44 24 10	 mov	 eax, DWORD PTR cr9_per_event$[rsp]
  0002f	25 00 00 00 ed	 and	 eax, -318767104		; ed000000H
  00034	85 c0		 test	 eax, eax
  00036	74 69		 je	 SHORT $LN3@z900_is_pe

; 577  :     {
; 578  :         /* Is there an active transaction? */
; 579  :         if (regs->txf_tnd)

  00038	48 8b 44 24 08	 mov	 rax, QWORD PTR regs$[rsp]
  0003d	0f b6 80 58 0e
	00 00		 movzx	 eax, BYTE PTR [rax+3672]
  00044	85 c0		 test	 eax, eax
  00046	74 04		 je	 SHORT $LN4@z900_is_pe

; 580  :             return true;        /* Yes, then suppress it! */

  00048	b0 01		 mov	 al, 1
  0004a	eb 57		 jmp	 SHORT $LN1@z900_is_pe
$LN4@z900_is_pe:

; 581  : 
; 582  :         /* Suppress instruction-fetch events for TBEGIN/TBEGINC */
; 583  :         if (1
; 584  :             && cr9_per_event & CR9_IF
; 585  :             && *(regs->ip+0) == 0xE5
; 586  :             && (0

  0004c	33 c0		 xor	 eax, eax
  0004e	83 f8 01	 cmp	 eax, 1
  00051	74 4e		 je	 SHORT $LN5@z900_is_pe
  00053	8b 44 24 10	 mov	 eax, DWORD PTR cr9_per_event$[rsp]
  00057	25 00 00 00 40	 and	 eax, 1073741824		; 40000000H
  0005c	85 c0		 test	 eax, eax
  0005e	74 41		 je	 SHORT $LN5@z900_is_pe
  00060	48 8b 44 24 08	 mov	 rax, QWORD PTR regs$[rsp]
  00065	48 8b 40 68	 mov	 rax, QWORD PTR [rax+104]
  00069	0f b6 00	 movzx	 eax, BYTE PTR [rax]
  0006c	3d e5 00 00 00	 cmp	 eax, 229		; 000000e5H
  00071	75 2e		 jne	 SHORT $LN5@z900_is_pe
  00073	33 c0		 xor	 eax, eax
  00075	85 c0		 test	 eax, eax
  00077	75 24		 jne	 SHORT $LN6@z900_is_pe
  00079	48 8b 44 24 08	 mov	 rax, QWORD PTR regs$[rsp]
  0007e	48 8b 40 68	 mov	 rax, QWORD PTR [rax+104]
  00082	0f b6 40 01	 movzx	 eax, BYTE PTR [rax+1]
  00086	83 f8 60	 cmp	 eax, 96			; 00000060H
  00089	74 12		 je	 SHORT $LN6@z900_is_pe
  0008b	48 8b 44 24 08	 mov	 rax, QWORD PTR regs$[rsp]
  00090	48 8b 40 68	 mov	 rax, QWORD PTR [rax+104]
  00094	0f b6 40 01	 movzx	 eax, BYTE PTR [rax+1]
  00098	83 f8 61	 cmp	 eax, 97			; 00000061H
  0009b	75 04		 jne	 SHORT $LN5@z900_is_pe
$LN6@z900_is_pe:

; 587  :                 || *(regs->ip+1) == 0x60
; 588  :                 || *(regs->ip+1) == 0x61
; 589  :                )
; 590  :         )
; 591  :             return true;        /* TBEGIN/TBEGINC: suppress it! */

  0009d	b0 01		 mov	 al, 1
  0009f	eb 02		 jmp	 SHORT $LN1@z900_is_pe
$LN5@z900_is_pe:
$LN3@z900_is_pe:

; 592  :     }
; 593  : #endif
; 594  :     /* Otherwise DON'T suppress this PER event */
; 595  :     return false;

  000a1	32 c0		 xor	 al, al
$LN1@z900_is_pe:

; 596  : }

  000a3	c3		 ret	 0
z900_is_per3_event_suppressed ENDP
_TEXT	ENDS
; Function compile flags: /Odtp
; File C:\papa\MyGit\hyperion-zvector\skey.h
;	COMDAT z900_get_ptr_to_storekey
_TEXT	SEGMENT
abs$ = 48
z900_get_ptr_to_storekey PROC				; COMDAT

; 308  : {

$LN3:
  00000	48 89 4c 24 08	 mov	 QWORD PTR [rsp+8], rcx
  00005	48 83 ec 28	 sub	 rsp, 40			; 00000028H

; 309  : #if defined( FEATURE_2K_STORAGE_KEYS )
; 310  :     return ARCH_DEP( get_ptr_to_2K_storekey )( abs );
; 311  : #else
; 312  :     return ARCH_DEP( get_ptr_to_4K_storekey )( abs );

  00009	48 8b 4c 24 30	 mov	 rcx, QWORD PTR abs$[rsp]
  0000e	e8 00 00 00 00	 call	 z900_get_ptr_to_4K_storekey

; 313  : #endif
; 314  : }

  00013	48 83 c4 28	 add	 rsp, 40			; 00000028H
  00017	c3		 ret	 0
z900_get_ptr_to_storekey ENDP
_TEXT	ENDS
; Function compile flags: /Odtp
; File C:\papa\MyGit\hyperion-zvector\skey.h
;	COMDAT z900_or_storage_key
_TEXT	SEGMENT
abs$ = 48
bits$ = 56
z900_or_storage_key PROC				; COMDAT

; 290  : {

$LN3:
  00000	88 54 24 10	 mov	 BYTE PTR [rsp+16], dl
  00004	48 89 4c 24 08	 mov	 QWORD PTR [rsp+8], rcx
  00009	48 83 ec 28	 sub	 rsp, 40			; 00000028H

; 291  : #if defined( FEATURE_2K_STORAGE_KEYS )
; 292  :     ARCH_DEP( or_2K_storage_key )( abs, bits );
; 293  : #else
; 294  :     ARCH_DEP( or_4K_storage_key )( abs, bits );

  0000d	0f b6 54 24 38	 movzx	 edx, BYTE PTR bits$[rsp]
  00012	48 8b 4c 24 30	 mov	 rcx, QWORD PTR abs$[rsp]
  00017	e8 00 00 00 00	 call	 z900_or_4K_storage_key

; 295  : #endif
; 296  : }

  0001c	48 83 c4 28	 add	 rsp, 40			; 00000028H
  00020	c3		 ret	 0
z900_or_storage_key ENDP
_TEXT	ENDS
; Function compile flags: /Odtp
; File C:\papa\MyGit\hyperion-zvector\skey.h
;	COMDAT z900_or_4K_storage_key
_TEXT	SEGMENT
abs$ = 48
bits$ = 56
z900_or_4K_storage_key PROC				; COMDAT

; 242  :   inline void  ARCH_DEP( or_4K_storage_key )      (              U64 abs, BYTE bits ) {        ARCH_DEP( _or_storage_key      )(      abs, bits & ~STORKEY_BADFRM, 4 ); }

$LN3:
  00000	88 54 24 10	 mov	 BYTE PTR [rsp+16], dl
  00004	48 89 4c 24 08	 mov	 QWORD PTR [rsp+8], rcx
  00009	48 83 ec 28	 sub	 rsp, 40			; 00000028H
  0000d	0f b6 44 24 38	 movzx	 eax, BYTE PTR bits$[rsp]
  00012	83 e0 fe	 and	 eax, -2
  00015	41 b0 04	 mov	 r8b, 4
  00018	0f b6 d0	 movzx	 edx, al
  0001b	48 8b 4c 24 30	 mov	 rcx, QWORD PTR abs$[rsp]
  00020	e8 00 00 00 00	 call	 z900__or_storage_key
  00025	48 83 c4 28	 add	 rsp, 40			; 00000028H
  00029	c3		 ret	 0
z900_or_4K_storage_key ENDP
_TEXT	ENDS
; Function compile flags: /Odtp
; File C:\papa\MyGit\hyperion-zvector\skey.h
;	COMDAT z900_get_ptr_to_4K_storekey
_TEXT	SEGMENT
abs$ = 48
z900_get_ptr_to_4K_storekey PROC			; COMDAT

; 238  :   inline BYTE* ARCH_DEP( get_ptr_to_4K_storekey ) (              U64 abs            ) { return           _get_storekey_ptr     (      abs, 4 );                         }

$LN3:
  00000	48 89 4c 24 08	 mov	 QWORD PTR [rsp+8], rcx
  00005	48 83 ec 28	 sub	 rsp, 40			; 00000028H
  00009	b2 04		 mov	 dl, 4
  0000b	48 8b 4c 24 30	 mov	 rcx, QWORD PTR abs$[rsp]
  00010	e8 00 00 00 00	 call	 _get_storekey_ptr
  00015	48 83 c4 28	 add	 rsp, 40			; 00000028H
  00019	c3		 ret	 0
z900_get_ptr_to_4K_storekey ENDP
_TEXT	ENDS
; Function compile flags: /Odtp
; File C:\papa\MyGit\hyperion-zvector\skey.h
;	COMDAT z900__or_storage_key
_TEXT	SEGMENT
skey1_ptr$1 = 32
skey2_ptr$2 = 40
skey_ptr$3 = 48
abs$ = 80
bits$ = 88
K$ = 96
z900__or_storage_key PROC				; COMDAT

; 189  : {

$LN8:
  00000	44 88 44 24 18	 mov	 BYTE PTR [rsp+24], r8b
  00005	88 54 24 10	 mov	 BYTE PTR [rsp+16], dl
  00009	48 89 4c 24 08	 mov	 QWORD PTR [rsp+8], rcx
  0000e	48 83 ec 48	 sub	 rsp, 72			; 00000048H
$LN4@z900__or_s:

; 190  :     UNREFERENCED( K ); // (for FEATURE_4K_STORAGE_KEYS case)

  00012	33 c0		 xor	 eax, eax
  00014	85 c0		 test	 eax, eax
  00016	75 fa		 jne	 SHORT $LN4@z900__or_s

; 191  :     if (IS_DOUBLE_KEYED_4K_BYTE_BLOCK( K ))

  00018	33 c0		 xor	 eax, eax
  0001a	85 c0		 test	 eax, eax
  0001c	74 50		 je	 SHORT $LN5@z900__or_s

; 192  :     {
; 193  :         BYTE* skey1_ptr = _get_storekey1_ptr( abs );

  0001e	48 8b 4c 24 50	 mov	 rcx, QWORD PTR abs$[rsp]
  00023	e8 00 00 00 00	 call	 _get_storekey1_ptr
  00028	48 89 44 24 20	 mov	 QWORD PTR skey1_ptr$1[rsp], rax

; 194  :         BYTE* skey2_ptr = _get_storekey2_ptr( abs );

  0002d	48 8b 4c 24 50	 mov	 rcx, QWORD PTR abs$[rsp]
  00032	e8 00 00 00 00	 call	 _get_storekey2_ptr
  00037	48 89 44 24 28	 mov	 QWORD PTR skey2_ptr$2[rsp], rax

; 195  :         OR_SKEY( skey1_ptr, bits );

  0003c	0f b6 44 24 58	 movzx	 eax, BYTE PTR bits$[rsp]
  00041	48 8b 4c 24 20	 mov	 rcx, QWORD PTR skey1_ptr$1[rsp]
  00046	0f b6 09	 movzx	 ecx, BYTE PTR [rcx]
  00049	0b c8		 or	 ecx, eax
  0004b	8b c1		 mov	 eax, ecx
  0004d	48 8b 4c 24 20	 mov	 rcx, QWORD PTR skey1_ptr$1[rsp]
  00052	88 01		 mov	 BYTE PTR [rcx], al

; 196  :         OR_SKEY( skey2_ptr, bits );

  00054	0f b6 44 24 58	 movzx	 eax, BYTE PTR bits$[rsp]
  00059	48 8b 4c 24 28	 mov	 rcx, QWORD PTR skey2_ptr$2[rsp]
  0005e	0f b6 09	 movzx	 ecx, BYTE PTR [rcx]
  00061	0b c8		 or	 ecx, eax
  00063	8b c1		 mov	 eax, ecx
  00065	48 8b 4c 24 28	 mov	 rcx, QWORD PTR skey2_ptr$2[rsp]
  0006a	88 01		 mov	 BYTE PTR [rcx], al

; 197  :     }

  0006c	eb 2c		 jmp	 SHORT $LN6@z900__or_s
$LN5@z900__or_s:

; 198  :     else
; 199  :     {
; 200  :         BYTE* skey_ptr  = _get_storekey_ptr( abs, K );

  0006e	0f b6 54 24 60	 movzx	 edx, BYTE PTR K$[rsp]
  00073	48 8b 4c 24 50	 mov	 rcx, QWORD PTR abs$[rsp]
  00078	e8 00 00 00 00	 call	 _get_storekey_ptr
  0007d	48 89 44 24 30	 mov	 QWORD PTR skey_ptr$3[rsp], rax

; 201  :         OR_SKEY( skey_ptr, bits );

  00082	0f b6 44 24 58	 movzx	 eax, BYTE PTR bits$[rsp]
  00087	48 8b 4c 24 30	 mov	 rcx, QWORD PTR skey_ptr$3[rsp]
  0008c	0f b6 09	 movzx	 ecx, BYTE PTR [rcx]
  0008f	0b c8		 or	 ecx, eax
  00091	8b c1		 mov	 eax, ecx
  00093	48 8b 4c 24 30	 mov	 rcx, QWORD PTR skey_ptr$3[rsp]
  00098	88 01		 mov	 BYTE PTR [rcx], al
$LN6@z900__or_s:

; 202  :     }
; 203  : }

  0009a	48 83 c4 48	 add	 rsp, 72			; 00000048H
  0009e	c3		 ret	 0
z900__or_storage_key ENDP
_TEXT	ENDS
; Function compile flags: /Odtp
; File C:\papa\MyGit\hyperion-zvector\io.c
_TEXT	SEGMENT
effective_addr2$ = 64
b2$ = 72
dev$ = 80
temp$1 = 88
cc$ = 92
irb$ = 96
__$ArrayPad$ = 160
inst$ = 192
regs$ = 200
z900_test_subchannel PROC

; 930  : {

$LN56:
  00000	48 89 54 24 10	 mov	 QWORD PTR [rsp+16], rdx
  00005	48 89 4c 24 08	 mov	 QWORD PTR [rsp+8], rcx
  0000a	48 81 ec b8 00
	00 00		 sub	 rsp, 184		; 000000b8H
  00011	48 8b 05 00 00
	00 00		 mov	 rax, QWORD PTR __security_cookie
  00018	48 33 c4	 xor	 rax, rsp
  0001b	48 89 84 24 a0
	00 00 00	 mov	 QWORD PTR __$ArrayPad$[rsp], rax

; 931  : int     b2;                             /* Effective addr base       */
; 932  : VADR    effective_addr2;                /* Effective address         */
; 933  : DEVBLK* dev;                            /* -> device block           */
; 934  : IRB     irb;                            /* Interruption response blk */
; 935  : int     cc;                             /* Condition Code            */
; 936  : 
; 937  :     S( inst, regs, b2, effective_addr2 );

  00023	48 8b 8c 24 c0
	00 00 00	 mov	 rcx, QWORD PTR inst$[rsp]
  0002b	e8 00 00 00 00	 call	 fetch_fw_noswap
  00030	8b c8		 mov	 ecx, eax
  00032	e8 00 00 00 00	 call	 _byteswap_ulong
  00037	89 44 24 58	 mov	 DWORD PTR temp$1[rsp], eax
  0003b	8b 44 24 58	 mov	 eax, DWORD PTR temp$1[rsp]
  0003f	25 ff 0f 00 00	 and	 eax, 4095		; 00000fffH
  00044	8b c0		 mov	 eax, eax
  00046	48 89 44 24 40	 mov	 QWORD PTR effective_addr2$[rsp], rax
  0004b	8b 44 24 58	 mov	 eax, DWORD PTR temp$1[rsp]
  0004f	c1 e8 0c	 shr	 eax, 12
  00052	83 e0 0f	 and	 eax, 15
  00055	89 44 24 48	 mov	 DWORD PTR b2$[rsp], eax
  00059	83 7c 24 48 00	 cmp	 DWORD PTR b2$[rsp], 0
  0005e	74 44		 je	 SHORT $LN35@z900_test_
  00060	48 63 44 24 48	 movsxd	 rax, DWORD PTR b2$[rsp]
  00065	48 8b 8c 24 c8
	00 00 00	 mov	 rcx, QWORD PTR regs$[rsp]
  0006d	48 8b 84 c1 80
	02 00 00	 mov	 rax, QWORD PTR [rcx+rax*8+640]
  00075	48 8b 4c 24 40	 mov	 rcx, QWORD PTR effective_addr2$[rsp]
  0007a	48 03 c8	 add	 rcx, rax
  0007d	48 8b c1	 mov	 rax, rcx
  00080	48 89 44 24 40	 mov	 QWORD PTR effective_addr2$[rsp], rax
  00085	48 8b 84 24 c8
	00 00 00	 mov	 rax, QWORD PTR regs$[rsp]
  0008d	48 8b 80 90 00
	00 00		 mov	 rax, QWORD PTR [rax+144]
  00094	48 8b 4c 24 40	 mov	 rcx, QWORD PTR effective_addr2$[rsp]
  00099	48 23 c8	 and	 rcx, rax
  0009c	48 8b c1	 mov	 rax, rcx
  0009f	48 89 44 24 40	 mov	 QWORD PTR effective_addr2$[rsp], rax
$LN35@z900_test_:
$LN4@z900_test_:
  000a4	48 8b 84 24 c8
	00 00 00	 mov	 rax, QWORD PTR regs$[rsp]
  000ac	48 8b 40 68	 mov	 rax, QWORD PTR [rax+104]
  000b0	48 83 c0 04	 add	 rax, 4
  000b4	48 8b 8c 24 c8
	00 00 00	 mov	 rcx, QWORD PTR regs$[rsp]
  000bc	48 89 41 68	 mov	 QWORD PTR [rcx+104], rax
  000c0	33 c0		 xor	 eax, eax
  000c2	83 f8 04	 cmp	 eax, 4
  000c5	74 0f		 je	 SHORT $LN36@z900_test_
  000c7	48 8b 84 24 c8
	00 00 00	 mov	 rax, QWORD PTR regs$[rsp]
  000cf	c6 80 9a 00 00
	00 04		 mov	 BYTE PTR [rax+154], 4
$LN36@z900_test_:
  000d6	33 c0		 xor	 eax, eax
  000d8	85 c0		 test	 eax, eax
  000da	75 c8		 jne	 SHORT $LN4@z900_test_

; 938  :     PER_ZEROADDR_XCHECK( regs, b2 );

  000dc	8b 54 24 48	 mov	 edx, DWORD PTR b2$[rsp]
  000e0	48 8b 8c 24 c8
	00 00 00	 mov	 rcx, QWORD PTR regs$[rsp]
  000e8	e8 00 00 00 00	 call	 z900_per3_zero_xcheck
$LN7@z900_test_:

; 939  : 
; 940  :     TXF_INSTR_CHECK( regs );

  000ed	48 8b 84 24 c8
	00 00 00	 mov	 rax, QWORD PTR regs$[rsp]
  000f5	0f b6 80 58 0e
	00 00		 movzx	 eax, BYTE PTR [rax+3672]
  000fc	85 c0		 test	 eax, eax
  000fe	74 3f		 je	 SHORT $LN37@z900_test_
  00100	48 8b 84 24 c8
	00 00 00	 mov	 rax, QWORD PTR regs$[rsp]
  00108	8b 80 84 af 00
	00		 mov	 eax, DWORD PTR [rax+44932]
  0010e	0f ba e8 0c	 bts	 eax, 12
  00112	48 8b 8c 24 c8
	00 00 00	 mov	 rcx, QWORD PTR regs$[rsp]
  0011a	89 81 84 af 00
	00		 mov	 DWORD PTR [rcx+44932], eax
  00120	4c 8d 0d 00 00
	00 00		 lea	 r9, OFFSET FLAT:$SG195456
  00127	41 b8 0b 00 00
	00		 mov	 r8d, 11
  0012d	ba 02 00 00 00	 mov	 edx, 2
  00132	48 8b 8c 24 c8
	00 00 00	 mov	 rcx, QWORD PTR regs$[rsp]
  0013a	e8 00 00 00 00	 call	 z900_abort_transaction
$LN37@z900_test_:
  0013f	33 c0		 xor	 eax, eax
  00141	85 c0		 test	 eax, eax
  00143	75 a8		 jne	 SHORT $LN7@z900_test_

; 941  :     PRIV_CHECK( regs );

  00145	48 8b 84 24 c8
	00 00 00	 mov	 rax, QWORD PTR regs$[rsp]
  0014d	0f b6 40 7a	 movzx	 eax, BYTE PTR [rax+122]
  00151	83 e0 01	 and	 eax, 1
  00154	85 c0		 test	 eax, eax
  00156	74 1b		 je	 SHORT $LN38@z900_test_
  00158	ba 02 00 00 00	 mov	 edx, 2
  0015d	48 8b 8c 24 c8
	00 00 00	 mov	 rcx, QWORD PTR regs$[rsp]
  00165	48 8b 84 24 c8
	00 00 00	 mov	 rax, QWORD PTR regs$[rsp]
  0016d	ff 90 20 0d 00
	00		 call	 QWORD PTR [rax+3360]
$LN38@z900_test_:
$LN10@z900_test_:

; 942  :     PTIO( IO, "TSCH" );

  00173	48 8b 05 00 00
	00 00		 mov	 rax, QWORD PTR __imp_pttclass
  0017a	48 8b 00	 mov	 rax, QWORD PTR [rax]
  0017d	48 25 00 02 00
	00		 and	 rax, 512		; 00000200H
  00183	48 85 c0	 test	 rax, rax
  00186	74 6b		 je	 SHORT $LN39@z900_test_
  00188	48 8b 84 24 c8
	00 00 00	 mov	 rax, QWORD PTR regs$[rsp]
  00190	8b 80 88 00 00
	00		 mov	 eax, DWORD PTR [rax+136]
  00196	b9 ff ff ff ff	 mov	 ecx, -1			; ffffffffH
  0019b	48 8b 54 24 40	 mov	 rdx, QWORD PTR effective_addr2$[rsp]
  001a0	48 23 d1	 and	 rdx, rcx
  001a3	48 8b ca	 mov	 rcx, rdx
  001a6	8b c9		 mov	 ecx, ecx
  001a8	ba 08 00 00 00	 mov	 edx, 8
  001ad	48 6b d2 01	 imul	 rdx, rdx, 1
  001b1	4c 8b 84 24 c8
	00 00 00	 mov	 r8, QWORD PTR regs$[rsp]
  001b9	41 8b 94 10 80
	02 00 00	 mov	 edx, DWORD PTR [r8+rdx+640]
  001c1	48 c7 44 24 30
	00 00 00 00	 mov	 QWORD PTR [rsp+48], 0
  001ca	48 89 44 24 28	 mov	 QWORD PTR [rsp+40], rax
  001cf	48 8d 05 00 00
	00 00		 lea	 rax, OFFSET FLAT:$SG195459
  001d6	48 89 44 24 20	 mov	 QWORD PTR [rsp+32], rax
  001db	44 8b c9	 mov	 r9d, ecx
  001de	44 8b c2	 mov	 r8d, edx
  001e1	48 8d 15 00 00
	00 00		 lea	 rdx, OFFSET FLAT:$SG195460
  001e8	b9 00 02 00 00	 mov	 ecx, 512		; 00000200H
  001ed	ff 15 00 00 00
	00		 call	 QWORD PTR __imp_ptt_pthread_trace
$LN39@z900_test_:
  001f3	33 c0		 xor	 eax, eax
  001f5	85 c0		 test	 eax, eax
  001f7	0f 85 76 ff ff
	ff		 jne	 $LN10@z900_test_

; 943  : 
; 944  : #if defined( _FEATURE_IO_ASSIST )
; 945  :     if (SIE_STATE_BIT_OFF( regs, EC0, IOA ) && !regs->sie_pref)

  001fd	48 8b 84 24 c8
	00 00 00	 mov	 rax, QWORD PTR regs$[rsp]
  00205	8b 80 c8 08 00
	00		 mov	 eax, DWORD PTR [rax+2248]
  0020b	d1 e8		 shr	 eax, 1
  0020d	83 e0 01	 and	 eax, 1
  00210	85 c0		 test	 eax, eax
  00212	0f 84 06 01 00
	00		 je	 $LN40@z900_test_
  00218	48 8b 84 24 c8
	00 00 00	 mov	 rax, QWORD PTR regs$[rsp]
  00220	48 8b 80 88 08
	00 00		 mov	 rax, QWORD PTR [rax+2184]
  00227	b9 01 00 00 00	 mov	 ecx, 1
  0022c	48 6b c9 00	 imul	 rcx, rcx, 0
  00230	0f b6 44 08 4c	 movzx	 eax, BYTE PTR [rax+rcx+76]
  00235	83 e0 04	 and	 eax, 4
  00238	85 c0		 test	 eax, eax
  0023a	0f 85 de 00 00
	00		 jne	 $LN40@z900_test_
  00240	48 8b 84 24 c8
	00 00 00	 mov	 rax, QWORD PTR regs$[rsp]
  00248	8b 80 c8 08 00
	00		 mov	 eax, DWORD PTR [rax+2248]
  0024e	c1 e8 02	 shr	 eax, 2
  00251	83 e0 01	 and	 eax, 1
  00254	85 c0		 test	 eax, eax
  00256	0f 85 c2 00 00
	00		 jne	 $LN40@z900_test_
$LN13@z900_test_:

; 946  : #endif
; 947  :     {
; 948  :         PTIO( IO, "TSCH (sie)" );

  0025c	48 8b 05 00 00
	00 00		 mov	 rax, QWORD PTR __imp_pttclass
  00263	48 8b 00	 mov	 rax, QWORD PTR [rax]
  00266	48 25 00 02 00
	00		 and	 rax, 512		; 00000200H
  0026c	48 85 c0	 test	 rax, rax
  0026f	74 6b		 je	 SHORT $LN41@z900_test_
  00271	48 8b 84 24 c8
	00 00 00	 mov	 rax, QWORD PTR regs$[rsp]
  00279	8b 80 88 00 00
	00		 mov	 eax, DWORD PTR [rax+136]
  0027f	b9 ff ff ff ff	 mov	 ecx, -1			; ffffffffH
  00284	48 8b 54 24 40	 mov	 rdx, QWORD PTR effective_addr2$[rsp]
  00289	48 23 d1	 and	 rdx, rcx
  0028c	48 8b ca	 mov	 rcx, rdx
  0028f	8b c9		 mov	 ecx, ecx
  00291	ba 08 00 00 00	 mov	 edx, 8
  00296	48 6b d2 01	 imul	 rdx, rdx, 1
  0029a	4c 8b 84 24 c8
	00 00 00	 mov	 r8, QWORD PTR regs$[rsp]
  002a2	41 8b 94 10 80
	02 00 00	 mov	 edx, DWORD PTR [r8+rdx+640]
  002aa	48 c7 44 24 30
	00 00 00 00	 mov	 QWORD PTR [rsp+48], 0
  002b3	48 89 44 24 28	 mov	 QWORD PTR [rsp+40], rax
  002b8	48 8d 05 00 00
	00 00		 lea	 rax, OFFSET FLAT:$SG195463
  002bf	48 89 44 24 20	 mov	 QWORD PTR [rsp+32], rax
  002c4	44 8b c9	 mov	 r9d, ecx
  002c7	44 8b c2	 mov	 r8d, edx
  002ca	48 8d 15 00 00
	00 00		 lea	 rdx, OFFSET FLAT:$SG195464
  002d1	b9 00 02 00 00	 mov	 ecx, 512		; 00000200H
  002d6	ff 15 00 00 00
	00		 call	 QWORD PTR __imp_ptt_pthread_trace
$LN41@z900_test_:
  002dc	33 c0		 xor	 eax, eax
  002de	85 c0		 test	 eax, eax
  002e0	0f 85 76 ff ff
	ff		 jne	 $LN13@z900_test_
$LN16@z900_test_:

; 949  :         SIE_INTERCEPT( regs );

  002e6	48 8b 84 24 c8
	00 00 00	 mov	 rax, QWORD PTR regs$[rsp]
  002ee	8b 80 c8 08 00
	00		 mov	 eax, DWORD PTR [rax+2248]
  002f4	d1 e8		 shr	 eax, 1
  002f6	83 e0 01	 and	 eax, 1
  002f9	85 c0		 test	 eax, eax
  002fb	74 1b		 je	 SHORT $LN42@z900_test_
  002fd	48 8b 84 24 c8
	00 00 00	 mov	 rax, QWORD PTR regs$[rsp]
  00305	48 05 80 09 00
	00		 add	 rax, 2432		; 00000980H
  0030b	ba fc ff ff ff	 mov	 edx, -4
  00310	48 8b c8	 mov	 rcx, rax
  00313	e8 00 00 00 00	 call	 longjmp
$LN42@z900_test_:
  00318	33 c0		 xor	 eax, eax
  0031a	85 c0		 test	 eax, eax
  0031c	75 c8		 jne	 SHORT $LN16@z900_test_
$LN40@z900_test_:

; 950  :     }
; 951  : 
; 952  :     FW_CHECK( effective_addr2, regs );

  0031e	48 8b 44 24 40	 mov	 rax, QWORD PTR effective_addr2$[rsp]
  00323	48 83 e0 03	 and	 rax, 3
  00327	48 85 c0	 test	 rax, rax
  0032a	74 1b		 je	 SHORT $LN43@z900_test_
  0032c	ba 06 00 00 00	 mov	 edx, 6
  00331	48 8b 8c 24 c8
	00 00 00	 mov	 rcx, QWORD PTR regs$[rsp]
  00339	48 8b 84 24 c8
	00 00 00	 mov	 rax, QWORD PTR regs$[rsp]
  00341	ff 90 20 0d 00
	00		 call	 QWORD PTR [rax+3360]
$LN43@z900_test_:

; 953  : 
; 954  :     /* Program check if the ssid including lcss is invalid */
; 955  :     SSID_CHECK( regs );

  00347	b8 08 00 00 00	 mov	 eax, 8
  0034c	48 6b c0 01	 imul	 rax, rax, 1
  00350	48 8b 8c 24 c8
	00 00 00	 mov	 rcx, QWORD PTR regs$[rsp]
  00358	0f b7 84 01 82
	02 00 00	 movzx	 eax, WORD PTR [rcx+rax+642]
  00360	83 e0 01	 and	 eax, 1
  00363	85 c0		 test	 eax, eax
  00365	74 1e		 je	 SHORT $LN45@z900_test_
  00367	b8 08 00 00 00	 mov	 eax, 8
  0036c	48 6b c0 01	 imul	 rax, rax, 1
  00370	48 8b 8c 24 c8
	00 00 00	 mov	 rcx, QWORD PTR regs$[rsp]
  00378	0f b7 84 01 82
	02 00 00	 movzx	 eax, WORD PTR [rcx+rax+642]
  00380	83 f8 03	 cmp	 eax, 3
  00383	7e 1b		 jle	 SHORT $LN44@z900_test_
$LN45@z900_test_:
  00385	ba 15 00 00 00	 mov	 edx, 21
  0038a	48 8b 8c 24 c8
	00 00 00	 mov	 rcx, QWORD PTR regs$[rsp]
  00392	48 8b 84 24 c8
	00 00 00	 mov	 rax, QWORD PTR regs$[rsp]
  0039a	ff 90 20 0d 00
	00		 call	 QWORD PTR [rax+3360]
$LN44@z900_test_:

; 956  : 
; 957  :     /* Locate the device block for this subchannel */
; 958  :     dev = find_device_by_subchan( regs->GR_L( 1 ));

  003a0	b8 08 00 00 00	 mov	 eax, 8
  003a5	48 6b c0 01	 imul	 rax, rax, 1
  003a9	48 8b 8c 24 c8
	00 00 00	 mov	 rcx, QWORD PTR regs$[rsp]
  003b1	8b 8c 01 80 02
	00 00		 mov	 ecx, DWORD PTR [rcx+rax+640]
  003b8	e8 00 00 00 00	 call	 find_device_by_subchan
  003bd	48 89 44 24 50	 mov	 QWORD PTR dev$[rsp], rax

; 959  : 
; 960  :     if (dev)

  003c2	48 83 7c 24 50
	00		 cmp	 QWORD PTR dev$[rsp], 0
  003c8	74 5a		 je	 SHORT $LN46@z900_test_
$LN19@z900_test_:

; 961  :         PTT( PTT_CL_IO, "TSCH (dev)", dev->devnum, 0, 0 );

  003ca	48 8b 05 00 00
	00 00		 mov	 rax, QWORD PTR __imp_pttclass
  003d1	48 8b 00	 mov	 rax, QWORD PTR [rax]
  003d4	48 25 00 02 00
	00		 and	 rax, 512		; 00000200H
  003da	48 85 c0	 test	 rax, rax
  003dd	74 3f		 je	 SHORT $LN47@z900_test_
  003df	48 8b 44 24 50	 mov	 rax, QWORD PTR dev$[rsp]
  003e4	0f b7 40 48	 movzx	 eax, WORD PTR [rax+72]
  003e8	48 c7 44 24 30
	00 00 00 00	 mov	 QWORD PTR [rsp+48], 0
  003f1	48 c7 44 24 28
	00 00 00 00	 mov	 QWORD PTR [rsp+40], 0
  003fa	48 8d 0d 00 00
	00 00		 lea	 rcx, OFFSET FLAT:$SG195471
  00401	48 89 4c 24 20	 mov	 QWORD PTR [rsp+32], rcx
  00406	45 33 c9	 xor	 r9d, r9d
  00409	44 8b c0	 mov	 r8d, eax
  0040c	48 8d 15 00 00
	00 00		 lea	 rdx, OFFSET FLAT:$SG195472
  00413	b9 00 02 00 00	 mov	 ecx, 512		; 00000200H
  00418	ff 15 00 00 00
	00		 call	 QWORD PTR __imp_ptt_pthread_trace
$LN47@z900_test_:
  0041e	33 c0		 xor	 eax, eax
  00420	85 c0		 test	 eax, eax
  00422	75 a6		 jne	 SHORT $LN19@z900_test_
$LN46@z900_test_:

; 962  : 
; 963  :     /* Condition code 3 if subchannel does not exist,
; 964  :        is not valid, or is not enabled */
; 965  :     if (0
; 966  :         || !dev
; 967  :         || !(dev->pmcw.flag5 & PMCW5_V)
; 968  :         || !(dev->pmcw.flag5 & PMCW5_E)

  00424	33 c0		 xor	 eax, eax
  00426	85 c0		 test	 eax, eax
  00428	75 34		 jne	 SHORT $LN49@z900_test_
  0042a	48 83 7c 24 50
	00		 cmp	 QWORD PTR dev$[rsp], 0
  00430	74 2c		 je	 SHORT $LN49@z900_test_
  00432	48 8b 44 24 50	 mov	 rax, QWORD PTR dev$[rsp]
  00437	0f b6 80 f1 02
	00 00		 movzx	 eax, BYTE PTR [rax+753]
  0043e	83 e0 01	 and	 eax, 1
  00441	85 c0		 test	 eax, eax
  00443	74 19		 je	 SHORT $LN49@z900_test_
  00445	48 8b 44 24 50	 mov	 rax, QWORD PTR dev$[rsp]
  0044a	0f b6 80 f1 02
	00 00		 movzx	 eax, BYTE PTR [rax+753]
  00451	25 80 00 00 00	 and	 eax, 128		; 00000080H
  00456	85 c0		 test	 eax, eax
  00458	0f 85 59 01 00
	00		 jne	 $LN48@z900_test_
$LN49@z900_test_:
$LN22@z900_test_:

; 969  :     )
; 970  :     {
; 971  :         PTIO( ERR, "*TSCH" );

  0045e	48 8b 05 00 00
	00 00		 mov	 rax, QWORD PTR __imp_pttclass
  00465	48 8b 00	 mov	 rax, QWORD PTR [rax]
  00468	48 83 e0 10	 and	 rax, 16
  0046c	48 85 c0	 test	 rax, rax
  0046f	74 6b		 je	 SHORT $LN50@z900_test_
  00471	48 8b 84 24 c8
	00 00 00	 mov	 rax, QWORD PTR regs$[rsp]
  00479	8b 80 88 00 00
	00		 mov	 eax, DWORD PTR [rax+136]
  0047f	b9 ff ff ff ff	 mov	 ecx, -1			; ffffffffH
  00484	48 8b 54 24 40	 mov	 rdx, QWORD PTR effective_addr2$[rsp]
  00489	48 23 d1	 and	 rdx, rcx
  0048c	48 8b ca	 mov	 rcx, rdx
  0048f	8b c9		 mov	 ecx, ecx
  00491	ba 08 00 00 00	 mov	 edx, 8
  00496	48 6b d2 01	 imul	 rdx, rdx, 1
  0049a	4c 8b 84 24 c8
	00 00 00	 mov	 r8, QWORD PTR regs$[rsp]
  004a2	41 8b 94 10 80
	02 00 00	 mov	 edx, DWORD PTR [r8+rdx+640]
  004aa	48 c7 44 24 30
	00 00 00 00	 mov	 QWORD PTR [rsp+48], 0
  004b3	48 89 44 24 28	 mov	 QWORD PTR [rsp+40], rax
  004b8	48 8d 05 00 00
	00 00		 lea	 rax, OFFSET FLAT:$SG195476
  004bf	48 89 44 24 20	 mov	 QWORD PTR [rsp+32], rax
  004c4	44 8b c9	 mov	 r9d, ecx
  004c7	44 8b c2	 mov	 r8d, edx
  004ca	48 8d 15 00 00
	00 00		 lea	 rdx, OFFSET FLAT:$SG195477
  004d1	b9 10 00 00 00	 mov	 ecx, 16
  004d6	ff 15 00 00 00
	00		 call	 QWORD PTR __imp_ptt_pthread_trace
$LN50@z900_test_:
  004dc	33 c0		 xor	 eax, eax
  004de	85 c0		 test	 eax, eax
  004e0	0f 85 78 ff ff
	ff		 jne	 $LN22@z900_test_
$LN25@z900_test_:

; 972  : #if defined( _FEATURE_IO_ASSIST )
; 973  :         PTIO( ERR, "*TSCH (sie)" );

  004e6	48 8b 05 00 00
	00 00		 mov	 rax, QWORD PTR __imp_pttclass
  004ed	48 8b 00	 mov	 rax, QWORD PTR [rax]
  004f0	48 83 e0 10	 and	 rax, 16
  004f4	48 85 c0	 test	 rax, rax
  004f7	74 6b		 je	 SHORT $LN51@z900_test_
  004f9	48 8b 84 24 c8
	00 00 00	 mov	 rax, QWORD PTR regs$[rsp]
  00501	8b 80 88 00 00
	00		 mov	 eax, DWORD PTR [rax+136]
  00507	b9 ff ff ff ff	 mov	 ecx, -1			; ffffffffH
  0050c	48 8b 54 24 40	 mov	 rdx, QWORD PTR effective_addr2$[rsp]
  00511	48 23 d1	 and	 rdx, rcx
  00514	48 8b ca	 mov	 rcx, rdx
  00517	8b c9		 mov	 ecx, ecx
  00519	ba 08 00 00 00	 mov	 edx, 8
  0051e	48 6b d2 01	 imul	 rdx, rdx, 1
  00522	4c 8b 84 24 c8
	00 00 00	 mov	 r8, QWORD PTR regs$[rsp]
  0052a	41 8b 94 10 80
	02 00 00	 mov	 edx, DWORD PTR [r8+rdx+640]
  00532	48 c7 44 24 30
	00 00 00 00	 mov	 QWORD PTR [rsp+48], 0
  0053b	48 89 44 24 28	 mov	 QWORD PTR [rsp+40], rax
  00540	48 8d 05 00 00
	00 00		 lea	 rax, OFFSET FLAT:$SG195479
  00547	48 89 44 24 20	 mov	 QWORD PTR [rsp+32], rax
  0054c	44 8b c9	 mov	 r9d, ecx
  0054f	44 8b c2	 mov	 r8d, edx
  00552	48 8d 15 00 00
	00 00		 lea	 rdx, OFFSET FLAT:$SG195480
  00559	b9 10 00 00 00	 mov	 ecx, 16
  0055e	ff 15 00 00 00
	00		 call	 QWORD PTR __imp_ptt_pthread_trace
$LN51@z900_test_:
  00564	33 c0		 xor	 eax, eax
  00566	85 c0		 test	 eax, eax
  00568	0f 85 78 ff ff
	ff		 jne	 $LN25@z900_test_
$LN28@z900_test_:

; 974  :         SIE_INTERCEPT( regs );

  0056e	48 8b 84 24 c8
	00 00 00	 mov	 rax, QWORD PTR regs$[rsp]
  00576	8b 80 c8 08 00
	00		 mov	 eax, DWORD PTR [rax+2248]
  0057c	d1 e8		 shr	 eax, 1
  0057e	83 e0 01	 and	 eax, 1
  00581	85 c0		 test	 eax, eax
  00583	74 1b		 je	 SHORT $LN52@z900_test_
  00585	48 8b 84 24 c8
	00 00 00	 mov	 rax, QWORD PTR regs$[rsp]
  0058d	48 05 80 09 00
	00		 add	 rax, 2432		; 00000980H
  00593	ba fc ff ff ff	 mov	 edx, -4
  00598	48 8b c8	 mov	 rcx, rax
  0059b	e8 00 00 00 00	 call	 longjmp
$LN52@z900_test_:
  005a0	33 c0		 xor	 eax, eax
  005a2	85 c0		 test	 eax, eax
  005a4	75 c8		 jne	 SHORT $LN28@z900_test_

; 975  : #endif
; 976  :         regs->psw.cc = 3;

  005a6	48 8b 84 24 c8
	00 00 00	 mov	 rax, QWORD PTR regs$[rsp]
  005ae	c6 40 7c 03	 mov	 BYTE PTR [rax+124], 3

; 977  :         return;

  005b2	e9 1a 01 00 00	 jmp	 $LN1@z900_test_
$LN48@z900_test_:

; 978  :     }
; 979  : 
; 980  :     /* validate operand before taking any action */
; 981  :     ARCH_DEP( validate_operand )( effective_addr2, b2, sizeof( IRB ) - 1,

  005b7	48 8b 84 24 c8
	00 00 00	 mov	 rax, QWORD PTR regs$[rsp]
  005bf	48 89 44 24 20	 mov	 QWORD PTR [rsp+32], rax
  005c4	41 b9 01 00 00
	00		 mov	 r9d, 1
  005ca	41 b8 3f 00 00
	00		 mov	 r8d, 63			; 0000003fH
  005d0	8b 54 24 48	 mov	 edx, DWORD PTR b2$[rsp]
  005d4	48 8b 4c 24 40	 mov	 rcx, QWORD PTR effective_addr2$[rsp]
  005d9	e8 00 00 00 00	 call	 z900_validate_operand

; 982  :                                   ACCTYPE_WRITE_SKP, regs );
; 983  : 
; 984  :     /* Perform serialization and checkpoint-synchronization */
; 985  :     PERFORM_SERIALIZATION( regs );

  005de	0f ae f0	 mfence
$LN31@z900_test_:

; 986  :     PERFORM_CHKPT_SYNC( regs );

  005e1	33 c0		 xor	 eax, eax
  005e3	85 c0		 test	 eax, eax
  005e5	75 fa		 jne	 SHORT $LN31@z900_test_

; 987  : 
; 988  :     /* Test and clear pending status, set condition code */
; 989  :     cc = test_subchan( regs, dev, &irb );

  005e7	4c 8d 44 24 60	 lea	 r8, QWORD PTR irb$[rsp]
  005ec	48 8b 54 24 50	 mov	 rdx, QWORD PTR dev$[rsp]
  005f1	48 8b 8c 24 c8
	00 00 00	 mov	 rcx, QWORD PTR regs$[rsp]
  005f9	e8 00 00 00 00	 call	 test_subchan
  005fe	89 44 24 5c	 mov	 DWORD PTR cc$[rsp], eax

; 990  : 
; 991  :     /* Store the interruption response block */
; 992  :     ARCH_DEP( vstorec )( &irb, sizeof(IRB)-1, effective_addr2, b2, regs );

  00602	48 8b 84 24 c8
	00 00 00	 mov	 rax, QWORD PTR regs$[rsp]
  0060a	48 89 44 24 20	 mov	 QWORD PTR [rsp+32], rax
  0060f	44 8b 4c 24 48	 mov	 r9d, DWORD PTR b2$[rsp]
  00614	4c 8b 44 24 40	 mov	 r8, QWORD PTR effective_addr2$[rsp]
  00619	b2 3f		 mov	 dl, 63			; 0000003fH
  0061b	48 8d 4c 24 60	 lea	 rcx, QWORD PTR irb$[rsp]
  00620	e8 00 00 00 00	 call	 z900_vstorec

; 993  : 
; 994  :     regs->psw.cc = cc;

  00625	48 8b 84 24 c8
	00 00 00	 mov	 rax, QWORD PTR regs$[rsp]
  0062d	0f b6 4c 24 5c	 movzx	 ecx, BYTE PTR cc$[rsp]
  00632	88 48 7c	 mov	 BYTE PTR [rax+124], cl

; 995  : 
; 996  :     if (regs->psw.cc != 0)

  00635	48 8b 84 24 c8
	00 00 00	 mov	 rax, QWORD PTR regs$[rsp]
  0063d	0f b6 40 7c	 movzx	 eax, BYTE PTR [rax+124]
  00641	85 c0		 test	 eax, eax
  00643	0f 84 88 00 00
	00		 je	 $LN53@z900_test_
$LN34@z900_test_:

; 997  :         PTIO( ERR, "*TSCH" );

  00649	48 8b 05 00 00
	00 00		 mov	 rax, QWORD PTR __imp_pttclass
  00650	48 8b 00	 mov	 rax, QWORD PTR [rax]
  00653	48 83 e0 10	 and	 rax, 16
  00657	48 85 c0	 test	 rax, rax
  0065a	74 6b		 je	 SHORT $LN54@z900_test_
  0065c	48 8b 84 24 c8
	00 00 00	 mov	 rax, QWORD PTR regs$[rsp]
  00664	8b 80 88 00 00
	00		 mov	 eax, DWORD PTR [rax+136]
  0066a	b9 ff ff ff ff	 mov	 ecx, -1			; ffffffffH
  0066f	48 8b 54 24 40	 mov	 rdx, QWORD PTR effective_addr2$[rsp]
  00674	48 23 d1	 and	 rdx, rcx
  00677	48 8b ca	 mov	 rcx, rdx
  0067a	8b c9		 mov	 ecx, ecx
  0067c	ba 08 00 00 00	 mov	 edx, 8
  00681	48 6b d2 01	 imul	 rdx, rdx, 1
  00685	4c 8b 84 24 c8
	00 00 00	 mov	 r8, QWORD PTR regs$[rsp]
  0068d	41 8b 94 10 80
	02 00 00	 mov	 edx, DWORD PTR [r8+rdx+640]
  00695	48 c7 44 24 30
	00 00 00 00	 mov	 QWORD PTR [rsp+48], 0
  0069e	48 89 44 24 28	 mov	 QWORD PTR [rsp+40], rax
  006a3	48 8d 05 00 00
	00 00		 lea	 rax, OFFSET FLAT:$SG195484
  006aa	48 89 44 24 20	 mov	 QWORD PTR [rsp+32], rax
  006af	44 8b c9	 mov	 r9d, ecx
  006b2	44 8b c2	 mov	 r8d, edx
  006b5	48 8d 15 00 00
	00 00		 lea	 rdx, OFFSET FLAT:$SG195485
  006bc	b9 10 00 00 00	 mov	 ecx, 16
  006c1	ff 15 00 00 00
	00		 call	 QWORD PTR __imp_ptt_pthread_trace
$LN54@z900_test_:
  006c7	33 c0		 xor	 eax, eax
  006c9	85 c0		 test	 eax, eax
  006cb	0f 85 78 ff ff
	ff		 jne	 $LN34@z900_test_
$LN53@z900_test_:
$LN1@z900_test_:
$LN55@z900_test_:

; 998  : }

  006d1	48 8b 8c 24 a0
	00 00 00	 mov	 rcx, QWORD PTR __$ArrayPad$[rsp]
  006d9	48 33 cc	 xor	 rcx, rsp
  006dc	e8 00 00 00 00	 call	 __security_check_cookie
  006e1	48 81 c4 b8 00
	00 00		 add	 rsp, 184		; 000000b8H
  006e8	c3		 ret	 0
z900_test_subchannel ENDP
_TEXT	ENDS
; Function compile flags: /Odtp
; File C:\papa\MyGit\hyperion-zvector\io.c
_TEXT	SEGMENT
icode$ = 64
effective_addr2$ = 72
b2$ = 80
temp$1 = 84
ioid$ = 88
ioparm$ = 92
tv281 = 96
pfx$ = 104
psa$ = 112
iointid$ = 120
dreg$ = 128
dev$ = 136
inst$ = 160
regs$ = 168
z900_test_pending_interruption PROC

; 813  : {

$LN51:
  00000	48 89 54 24 10	 mov	 QWORD PTR [rsp+16], rdx
  00005	48 89 4c 24 08	 mov	 QWORD PTR [rsp+8], rcx
  0000a	48 81 ec 98 00
	00 00		 sub	 rsp, 152		; 00000098H

; 814  : int     b2;                             /* Effective addr base       */
; 815  : VADR    effective_addr2;                /* Effective address         */
; 816  : PSA    *psa;                            /* -> Prefixed storage area  */
; 817  : U64     dreg;                           /* Double register work area */
; 818  : U32     ioid;                           /* I/O interruption address  */
; 819  : U32     ioparm;                         /* I/O interruption parameter*/
; 820  : U32     iointid;                        /* I/O interruption ident    */
; 821  : int     icode;                          /* Intercept code            */
; 822  : RADR    pfx;                            /* Prefix                    */
; 823  : DEVBLK *dev;                            /* dev presenting interrupt  */
; 824  : 
; 825  :     S( inst, regs, b2, effective_addr2 );

  00011	48 8b 8c 24 a0
	00 00 00	 mov	 rcx, QWORD PTR inst$[rsp]
  00019	e8 00 00 00 00	 call	 fetch_fw_noswap
  0001e	8b c8		 mov	 ecx, eax
  00020	e8 00 00 00 00	 call	 _byteswap_ulong
  00025	89 44 24 54	 mov	 DWORD PTR temp$1[rsp], eax
  00029	8b 44 24 54	 mov	 eax, DWORD PTR temp$1[rsp]
  0002d	25 ff 0f 00 00	 and	 eax, 4095		; 00000fffH
  00032	8b c0		 mov	 eax, eax
  00034	48 89 44 24 48	 mov	 QWORD PTR effective_addr2$[rsp], rax
  00039	8b 44 24 54	 mov	 eax, DWORD PTR temp$1[rsp]
  0003d	c1 e8 0c	 shr	 eax, 12
  00040	83 e0 0f	 and	 eax, 15
  00043	89 44 24 50	 mov	 DWORD PTR b2$[rsp], eax
  00047	83 7c 24 50 00	 cmp	 DWORD PTR b2$[rsp], 0
  0004c	74 44		 je	 SHORT $LN26@z900_test_
  0004e	48 63 44 24 50	 movsxd	 rax, DWORD PTR b2$[rsp]
  00053	48 8b 8c 24 a8
	00 00 00	 mov	 rcx, QWORD PTR regs$[rsp]
  0005b	48 8b 84 c1 80
	02 00 00	 mov	 rax, QWORD PTR [rcx+rax*8+640]
  00063	48 8b 4c 24 48	 mov	 rcx, QWORD PTR effective_addr2$[rsp]
  00068	48 03 c8	 add	 rcx, rax
  0006b	48 8b c1	 mov	 rax, rcx
  0006e	48 89 44 24 48	 mov	 QWORD PTR effective_addr2$[rsp], rax
  00073	48 8b 84 24 a8
	00 00 00	 mov	 rax, QWORD PTR regs$[rsp]
  0007b	48 8b 80 90 00
	00 00		 mov	 rax, QWORD PTR [rax+144]
  00082	48 8b 4c 24 48	 mov	 rcx, QWORD PTR effective_addr2$[rsp]
  00087	48 23 c8	 and	 rcx, rax
  0008a	48 8b c1	 mov	 rax, rcx
  0008d	48 89 44 24 48	 mov	 QWORD PTR effective_addr2$[rsp], rax
$LN26@z900_test_:
$LN4@z900_test_:
  00092	48 8b 84 24 a8
	00 00 00	 mov	 rax, QWORD PTR regs$[rsp]
  0009a	48 8b 40 68	 mov	 rax, QWORD PTR [rax+104]
  0009e	48 83 c0 04	 add	 rax, 4
  000a2	48 8b 8c 24 a8
	00 00 00	 mov	 rcx, QWORD PTR regs$[rsp]
  000aa	48 89 41 68	 mov	 QWORD PTR [rcx+104], rax
  000ae	33 c0		 xor	 eax, eax
  000b0	83 f8 04	 cmp	 eax, 4
  000b3	74 0f		 je	 SHORT $LN27@z900_test_
  000b5	48 8b 84 24 a8
	00 00 00	 mov	 rax, QWORD PTR regs$[rsp]
  000bd	c6 80 9a 00 00
	00 04		 mov	 BYTE PTR [rax+154], 4
$LN27@z900_test_:
  000c4	33 c0		 xor	 eax, eax
  000c6	85 c0		 test	 eax, eax
  000c8	75 c8		 jne	 SHORT $LN4@z900_test_
$LN7@z900_test_:

; 826  : 
; 827  :     TXF_INSTR_CHECK( regs );

  000ca	48 8b 84 24 a8
	00 00 00	 mov	 rax, QWORD PTR regs$[rsp]
  000d2	0f b6 80 58 0e
	00 00		 movzx	 eax, BYTE PTR [rax+3672]
  000d9	85 c0		 test	 eax, eax
  000db	74 3f		 je	 SHORT $LN28@z900_test_
  000dd	48 8b 84 24 a8
	00 00 00	 mov	 rax, QWORD PTR regs$[rsp]
  000e5	8b 80 84 af 00
	00		 mov	 eax, DWORD PTR [rax+44932]
  000eb	0f ba e8 0c	 bts	 eax, 12
  000ef	48 8b 8c 24 a8
	00 00 00	 mov	 rcx, QWORD PTR regs$[rsp]
  000f7	89 81 84 af 00
	00		 mov	 DWORD PTR [rcx+44932], eax
  000fd	4c 8d 0d 00 00
	00 00		 lea	 r9, OFFSET FLAT:$SG195339
  00104	41 b8 0b 00 00
	00		 mov	 r8d, 11
  0010a	ba 02 00 00 00	 mov	 edx, 2
  0010f	48 8b 8c 24 a8
	00 00 00	 mov	 rcx, QWORD PTR regs$[rsp]
  00117	e8 00 00 00 00	 call	 z900_abort_transaction
$LN28@z900_test_:
  0011c	33 c0		 xor	 eax, eax
  0011e	85 c0		 test	 eax, eax
  00120	75 a8		 jne	 SHORT $LN7@z900_test_

; 828  :     PRIV_CHECK( regs );

  00122	48 8b 84 24 a8
	00 00 00	 mov	 rax, QWORD PTR regs$[rsp]
  0012a	0f b6 40 7a	 movzx	 eax, BYTE PTR [rax+122]
  0012e	83 e0 01	 and	 eax, 1
  00131	85 c0		 test	 eax, eax
  00133	74 1b		 je	 SHORT $LN29@z900_test_
  00135	ba 02 00 00 00	 mov	 edx, 2
  0013a	48 8b 8c 24 a8
	00 00 00	 mov	 rcx, QWORD PTR regs$[rsp]
  00142	48 8b 84 24 a8
	00 00 00	 mov	 rax, QWORD PTR regs$[rsp]
  0014a	ff 90 20 0d 00
	00		 call	 QWORD PTR [rax+3360]
$LN29@z900_test_:

; 829  : 
; 830  : #if defined( _FEATURE_IO_ASSIST )
; 831  :     if (SIE_STATE_BIT_OFF( regs, EC0, IOA ) && !regs->sie_pref)

  00150	48 8b 84 24 a8
	00 00 00	 mov	 rax, QWORD PTR regs$[rsp]
  00158	8b 80 c8 08 00
	00		 mov	 eax, DWORD PTR [rax+2248]
  0015e	d1 e8		 shr	 eax, 1
  00160	83 e0 01	 and	 eax, 1
  00163	85 c0		 test	 eax, eax
  00165	74 74		 je	 SHORT $LN30@z900_test_
  00167	48 8b 84 24 a8
	00 00 00	 mov	 rax, QWORD PTR regs$[rsp]
  0016f	48 8b 80 88 08
	00 00		 mov	 rax, QWORD PTR [rax+2184]
  00176	b9 01 00 00 00	 mov	 ecx, 1
  0017b	48 6b c9 00	 imul	 rcx, rcx, 0
  0017f	0f b6 44 08 4c	 movzx	 eax, BYTE PTR [rax+rcx+76]
  00184	83 e0 04	 and	 eax, 4
  00187	85 c0		 test	 eax, eax
  00189	75 50		 jne	 SHORT $LN30@z900_test_
  0018b	48 8b 84 24 a8
	00 00 00	 mov	 rax, QWORD PTR regs$[rsp]
  00193	8b 80 c8 08 00
	00		 mov	 eax, DWORD PTR [rax+2248]
  00199	c1 e8 02	 shr	 eax, 2
  0019c	83 e0 01	 and	 eax, 1
  0019f	85 c0		 test	 eax, eax
  001a1	75 38		 jne	 SHORT $LN30@z900_test_
$LN10@z900_test_:

; 832  : #endif
; 833  :        SIE_INTERCEPT( regs );

  001a3	48 8b 84 24 a8
	00 00 00	 mov	 rax, QWORD PTR regs$[rsp]
  001ab	8b 80 c8 08 00
	00		 mov	 eax, DWORD PTR [rax+2248]
  001b1	d1 e8		 shr	 eax, 1
  001b3	83 e0 01	 and	 eax, 1
  001b6	85 c0		 test	 eax, eax
  001b8	74 1b		 je	 SHORT $LN31@z900_test_
  001ba	48 8b 84 24 a8
	00 00 00	 mov	 rax, QWORD PTR regs$[rsp]
  001c2	48 05 80 09 00
	00		 add	 rax, 2432		; 00000980H
  001c8	ba fc ff ff ff	 mov	 edx, -4
  001cd	48 8b c8	 mov	 rcx, rax
  001d0	e8 00 00 00 00	 call	 longjmp
$LN31@z900_test_:
  001d5	33 c0		 xor	 eax, eax
  001d7	85 c0		 test	 eax, eax
  001d9	75 c8		 jne	 SHORT $LN10@z900_test_
$LN30@z900_test_:
$LN13@z900_test_:

; 834  : 
; 835  :     PTIO( IO,"TPI" );

  001db	48 8b 05 00 00
	00 00		 mov	 rax, QWORD PTR __imp_pttclass
  001e2	48 8b 00	 mov	 rax, QWORD PTR [rax]
  001e5	48 25 00 02 00
	00		 and	 rax, 512		; 00000200H
  001eb	48 85 c0	 test	 rax, rax
  001ee	74 6b		 je	 SHORT $LN32@z900_test_
  001f0	48 8b 84 24 a8
	00 00 00	 mov	 rax, QWORD PTR regs$[rsp]
  001f8	8b 80 88 00 00
	00		 mov	 eax, DWORD PTR [rax+136]
  001fe	b9 ff ff ff ff	 mov	 ecx, -1			; ffffffffH
  00203	48 8b 54 24 48	 mov	 rdx, QWORD PTR effective_addr2$[rsp]
  00208	48 23 d1	 and	 rdx, rcx
  0020b	48 8b ca	 mov	 rcx, rdx
  0020e	8b c9		 mov	 ecx, ecx
  00210	ba 08 00 00 00	 mov	 edx, 8
  00215	48 6b d2 01	 imul	 rdx, rdx, 1
  00219	4c 8b 84 24 a8
	00 00 00	 mov	 r8, QWORD PTR regs$[rsp]
  00221	41 8b 94 10 80
	02 00 00	 mov	 edx, DWORD PTR [r8+rdx+640]
  00229	48 c7 44 24 30
	00 00 00 00	 mov	 QWORD PTR [rsp+48], 0
  00232	48 89 44 24 28	 mov	 QWORD PTR [rsp+40], rax
  00237	48 8d 05 00 00
	00 00		 lea	 rax, OFFSET FLAT:$SG195344
  0023e	48 89 44 24 20	 mov	 QWORD PTR [rsp+32], rax
  00243	44 8b c9	 mov	 r9d, ecx
  00246	44 8b c2	 mov	 r8d, edx
  00249	48 8d 15 00 00
	00 00		 lea	 rdx, OFFSET FLAT:$SG195345
  00250	b9 00 02 00 00	 mov	 ecx, 512		; 00000200H
  00255	ff 15 00 00 00
	00		 call	 QWORD PTR __imp_ptt_pthread_trace
$LN32@z900_test_:
  0025b	33 c0		 xor	 eax, eax
  0025d	85 c0		 test	 eax, eax
  0025f	0f 85 76 ff ff
	ff		 jne	 $LN13@z900_test_

; 836  : 
; 837  :     FW_CHECK( effective_addr2, regs );

  00265	48 8b 44 24 48	 mov	 rax, QWORD PTR effective_addr2$[rsp]
  0026a	48 83 e0 03	 and	 rax, 3
  0026e	48 85 c0	 test	 rax, rax
  00271	74 1b		 je	 SHORT $LN33@z900_test_
  00273	ba 06 00 00 00	 mov	 edx, 6
  00278	48 8b 8c 24 a8
	00 00 00	 mov	 rcx, QWORD PTR regs$[rsp]
  00280	48 8b 84 24 a8
	00 00 00	 mov	 rax, QWORD PTR regs$[rsp]
  00288	ff 90 20 0d 00
	00		 call	 QWORD PTR [rax+3360]
$LN33@z900_test_:

; 838  : 
; 839  :     /* validate operand before taking any action */
; 840  :     if (effective_addr2 != 0)

  0028e	48 83 7c 24 48
	00		 cmp	 QWORD PTR effective_addr2$[rsp], 0
  00294	74 27		 je	 SHORT $LN34@z900_test_

; 841  :         ARCH_DEP( validate_operand )( effective_addr2, b2, 8-1,

  00296	48 8b 84 24 a8
	00 00 00	 mov	 rax, QWORD PTR regs$[rsp]
  0029e	48 89 44 24 20	 mov	 QWORD PTR [rsp+32], rax
  002a3	41 b9 02 00 00
	00		 mov	 r9d, 2
  002a9	41 b8 07 00 00
	00		 mov	 r8d, 7
  002af	8b 54 24 50	 mov	 edx, DWORD PTR b2$[rsp]
  002b3	48 8b 4c 24 48	 mov	 rcx, QWORD PTR effective_addr2$[rsp]
  002b8	e8 00 00 00 00	 call	 z900_validate_operand
$LN34@z900_test_:

; 842  :                                       ACCTYPE_WRITE, regs );
; 843  : 
; 844  :     /* Perform serialization and checkpoint-synchronization */
; 845  :     PERFORM_SERIALIZATION( regs );

  002bd	0f ae f0	 mfence
$LN16@z900_test_:

; 846  :     PERFORM_CHKPT_SYNC( regs );

  002c0	33 c0		 xor	 eax, eax
  002c2	85 c0		 test	 eax, eax
  002c4	75 fa		 jne	 SHORT $LN16@z900_test_

; 847  : 
; 848  :     if (IS_IC_IOPENDING)

  002c6	48 8b 05 00 00
	00 00		 mov	 rax, QWORD PTR __imp_sysblk
  002cd	8b 80 a0 12 00
	00		 mov	 eax, DWORD PTR [rax+4768]
  002d3	25 00 00 00 40	 and	 eax, 1073741824		; 40000000H
  002d8	85 c0		 test	 eax, eax
  002da	0f 84 4e 02 00
	00		 je	 $LN35@z900_test_

; 849  :     {
; 850  :         OBTAIN_INTLOCK( regs );

  002e0	48 8d 15 00 00
	00 00		 lea	 rdx, OFFSET FLAT:$SG195350
  002e7	48 8b 8c 24 a8
	00 00 00	 mov	 rcx, QWORD PTR regs$[rsp]
  002ef	e8 00 00 00 00	 call	 Obtain_Interrupt_Lock

; 851  :         {
; 852  :             /* Test and clear pending interrupt
; 853  :                and set the condition code
; 854  :             */
; 855  :             icode = ARCH_DEP( present_io_interrupt )( regs, &ioid, &ioparm,

  002f4	48 8d 84 24 88
	00 00 00	 lea	 rax, QWORD PTR dev$[rsp]
  002fc	48 89 44 24 28	 mov	 QWORD PTR [rsp+40], rax
  00301	48 c7 44 24 20
	00 00 00 00	 mov	 QWORD PTR [rsp+32], 0
  0030a	4c 8d 4c 24 78	 lea	 r9, QWORD PTR iointid$[rsp]
  0030f	4c 8d 44 24 5c	 lea	 r8, QWORD PTR ioparm$[rsp]
  00314	48 8d 54 24 58	 lea	 rdx, QWORD PTR ioid$[rsp]
  00319	48 8b 8c 24 a8
	00 00 00	 mov	 rcx, QWORD PTR regs$[rsp]
  00321	e8 00 00 00 00	 call	 z900_present_io_interrupt
  00326	89 44 24 40	 mov	 DWORD PTR icode$[rsp], eax

; 856  :                                                       &iointid, NULL, &dev );
; 857  :         }
; 858  :         RELEASE_INTLOCK( regs );

  0032a	48 8d 15 00 00
	00 00		 lea	 rdx, OFFSET FLAT:$SG195351
  00331	48 8b 8c 24 a8
	00 00 00	 mov	 rcx, QWORD PTR regs$[rsp]
  00339	e8 00 00 00 00	 call	 Release_Interrupt_Lock

; 859  : 
; 860  :         /* Store the SSID word and I/O parameter
; 861  :            if an interrupt was pending
; 862  :         */
; 863  :         if (icode)

  0033e	83 7c 24 40 00	 cmp	 DWORD PTR icode$[rsp], 0
  00343	0f 84 e3 01 00
	00		 je	 $LN37@z900_test_

; 864  :         {
; 865  :             if (0
; 866  :                 || effective_addr2 == 0
; 867  : #if defined( _FEATURE_IO_ASSIST )
; 868  :                 || icode != SIE_NO_INTERCEPT

  00349	33 c0		 xor	 eax, eax
  0034b	85 c0		 test	 eax, eax
  0034d	75 13		 jne	 SHORT $LN40@z900_test_
  0034f	48 83 7c 24 48
	00		 cmp	 QWORD PTR effective_addr2$[rsp], 0
  00355	74 0b		 je	 SHORT $LN40@z900_test_
  00357	83 7c 24 40 ff	 cmp	 DWORD PTR icode$[rsp], -1
  0035c	0f 84 94 01 00
	00		 je	 $LN38@z900_test_
$LN40@z900_test_:

; 869  : #endif
; 870  :             )
; 871  :             {
; 872  : #if defined( _FEATURE_IO_ASSIST )
; 873  :                 if (icode != SIE_NO_INTERCEPT)

  00362	83 7c 24 40 ff	 cmp	 DWORD PTR icode$[rsp], -1
  00367	74 4a		 je	 SHORT $LN41@z900_test_

; 874  :                 {
; 875  :                     /* Point to SIE copy of PSA in state descriptor */
; 876  :                     psa = (void*)(HOSTREGS->mainstor + SIE_STATE(regs) + SIE_II_PSA_OFFSET);

  00369	48 8b 84 24 a8
	00 00 00	 mov	 rax, QWORD PTR regs$[rsp]
  00371	48 8b 80 68 08
	00 00		 mov	 rax, QWORD PTR [rax+2152]
  00378	48 8b 80 48 08
	00 00		 mov	 rax, QWORD PTR [rax+2120]
  0037f	48 8b 8c 24 a8
	00 00 00	 mov	 rcx, QWORD PTR regs$[rsp]
  00387	48 8b 89 80 08
	00 00		 mov	 rcx, QWORD PTR [rcx+2176]
  0038e	48 8d 44 08 30	 lea	 rax, QWORD PTR [rax+rcx+48]
  00393	48 89 44 24 70	 mov	 QWORD PTR psa$[rsp], rax

; 877  :                     ARCH_DEP( or_storage_key )( SIE_STATE( regs ), (STORKEY_REF | STORKEY_CHANGE) );

  00398	b2 06		 mov	 dl, 6
  0039a	48 8b 84 24 a8
	00 00 00	 mov	 rax, QWORD PTR regs$[rsp]
  003a2	48 8b 88 80 08
	00 00		 mov	 rcx, QWORD PTR [rax+2176]
  003a9	e8 00 00 00 00	 call	 z900_or_storage_key

; 878  :                 }

  003ae	e9 cb 00 00 00	 jmp	 $LN42@z900_test_
$LN41@z900_test_:

; 879  :                 else
; 880  : #endif
; 881  :                 {
; 882  :                     /* Point to PSA in main storage */
; 883  :                     pfx = regs->PX;

  003b3	48 8b 84 24 a8
	00 00 00	 mov	 rax, QWORD PTR regs$[rsp]
  003bb	48 8b 40 70	 mov	 rax, QWORD PTR [rax+112]
  003bf	48 89 44 24 68	 mov	 QWORD PTR pfx$[rsp], rax
$LN19@z900_test_:

; 884  :                     SIE_TRANSLATE( &pfx, ACCTYPE_SIE, regs );

  003c4	48 8b 84 24 a8
	00 00 00	 mov	 rax, QWORD PTR regs$[rsp]
  003cc	8b 80 c8 08 00
	00		 mov	 eax, DWORD PTR [rax+2248]
  003d2	d1 e8		 shr	 eax, 1
  003d4	83 e0 01	 and	 eax, 1
  003d7	85 c0		 test	 eax, eax
  003d9	74 74		 je	 SHORT $LN43@z900_test_
  003db	48 8b 84 24 a8
	00 00 00	 mov	 rax, QWORD PTR regs$[rsp]
  003e3	8b 80 c8 08 00
	00		 mov	 eax, DWORD PTR [rax+2248]
  003e9	c1 e8 02	 shr	 eax, 2
  003ec	83 e0 01	 and	 eax, 1
  003ef	85 c0		 test	 eax, eax
  003f1	75 5c		 jne	 SHORT $LN43@z900_test_
  003f3	48 8b 84 24 a8
	00 00 00	 mov	 rax, QWORD PTR regs$[rsp]
  003fb	48 8b 80 98 08
	00 00		 mov	 rax, QWORD PTR [rax+2200]
  00402	48 03 44 24 68	 add	 rax, QWORD PTR pfx$[rsp]
  00407	48 c7 44 24 28
	01 00 00 00	 mov	 QWORD PTR [rsp+40], 1
  00410	c6 44 24 20 00	 mov	 BYTE PTR [rsp+32], 0
  00415	45 33 c9	 xor	 r9d, r9d
  00418	48 8b 8c 24 a8
	00 00 00	 mov	 rcx, QWORD PTR regs$[rsp]
  00420	4c 8b 81 68 08
	00 00		 mov	 r8, QWORD PTR [rcx+2152]
  00427	ba fd ff ff ff	 mov	 edx, -3
  0042c	48 8b c8	 mov	 rcx, rax
  0042f	e8 00 00 00 00	 call	 z900_logical_to_main_l
  00434	48 8b 84 24 a8
	00 00 00	 mov	 rax, QWORD PTR regs$[rsp]
  0043c	48 8b 80 68 08
	00 00		 mov	 rax, QWORD PTR [rax+2152]
  00443	48 8b 80 08 08
	00 00		 mov	 rax, QWORD PTR [rax+2056]
  0044a	48 89 44 24 68	 mov	 QWORD PTR pfx$[rsp], rax
$LN43@z900_test_:
  0044f	33 c0		 xor	 eax, eax
  00451	85 c0		 test	 eax, eax
  00453	0f 85 6b ff ff
	ff		 jne	 $LN19@z900_test_

; 885  :                     psa = (void*)(regs->mainstor + pfx);

  00459	48 8b 84 24 a8
	00 00 00	 mov	 rax, QWORD PTR regs$[rsp]
  00461	48 8b 80 48 08
	00 00		 mov	 rax, QWORD PTR [rax+2120]
  00468	48 03 44 24 68	 add	 rax, QWORD PTR pfx$[rsp]
  0046d	48 89 44 24 70	 mov	 QWORD PTR psa$[rsp], rax

; 886  :                     ARCH_DEP( or_storage_key )( pfx, (STORKEY_REF | STORKEY_CHANGE) );

  00472	b2 06		 mov	 dl, 6
  00474	48 8b 4c 24 68	 mov	 rcx, QWORD PTR pfx$[rsp]
  00479	e8 00 00 00 00	 call	 z900_or_storage_key
$LN42@z900_test_:

; 887  :                 }
; 888  : 
; 889  :                 /* If operand address is zero, store in PSA */
; 890  :                 STORE_FW( psa->ioid,ioid );

  0047e	8b 4c 24 58	 mov	 ecx, DWORD PTR ioid$[rsp]
  00482	e8 00 00 00 00	 call	 _byteswap_ulong
  00487	48 8b 4c 24 70	 mov	 rcx, QWORD PTR psa$[rsp]
  0048c	48 81 c1 b8 00
	00 00		 add	 rcx, 184		; 000000b8H
  00493	8b d0		 mov	 edx, eax
  00495	e8 00 00 00 00	 call	 store_fw_noswap

; 891  :                 STORE_FW( psa->ioparm,ioparm );

  0049a	8b 4c 24 5c	 mov	 ecx, DWORD PTR ioparm$[rsp]
  0049e	e8 00 00 00 00	 call	 _byteswap_ulong
  004a3	48 8b 4c 24 70	 mov	 rcx, QWORD PTR psa$[rsp]
  004a8	48 81 c1 bc 00
	00 00		 add	 rcx, 188		; 000000bcH
  004af	8b d0		 mov	 edx, eax
  004b1	e8 00 00 00 00	 call	 store_fw_noswap

; 892  : #if defined( FEATURE_001_ZARCH_INSTALLED_FACILITY ) || defined( _FEATURE_IO_ASSIST )
; 893  :                 STORE_FW( psa->iointid,iointid );

  004b6	8b 4c 24 78	 mov	 ecx, DWORD PTR iointid$[rsp]
  004ba	e8 00 00 00 00	 call	 _byteswap_ulong
  004bf	48 8b 4c 24 70	 mov	 rcx, QWORD PTR psa$[rsp]
  004c4	48 81 c1 c0 00
	00 00		 add	 rcx, 192		; 000000c0H
  004cb	8b d0		 mov	 edx, eax
  004cd	e8 00 00 00 00	 call	 store_fw_noswap

; 894  : #endif
; 895  :                 /* Do SIE intercept if needed */
; 896  : #if defined( _FEATURE_IO_ASSIST )
; 897  :                 if (icode != SIE_NO_INTERCEPT)

  004d2	83 7c 24 40 ff	 cmp	 DWORD PTR icode$[rsp], -1
  004d7	74 1b		 je	 SHORT $LN44@z900_test_

; 898  :                     longjmp( regs->progjmp, SIE_INTERCEPT_IOINST );

  004d9	48 8b 84 24 a8
	00 00 00	 mov	 rax, QWORD PTR regs$[rsp]
  004e1	48 05 80 09 00
	00		 add	 rax, 2432		; 00000980H
  004e7	ba ef ff ff ff	 mov	 edx, -17
  004ec	48 8b c8	 mov	 rcx, rax
  004ef	e8 00 00 00 00	 call	 longjmp
$LN44@z900_test_:

; 899  : #endif
; 900  :             }

  004f4	eb 36		 jmp	 SHORT $LN39@z900_test_
$LN38@z900_test_:

; 901  :             else
; 902  :             {
; 903  :                 /* Otherwise store at operand location */
; 904  :                 dreg = ((U64)ioid << 32) | ioparm;

  004f6	8b 44 24 58	 mov	 eax, DWORD PTR ioid$[rsp]
  004fa	48 c1 e0 20	 shl	 rax, 32			; 00000020H
  004fe	8b 4c 24 5c	 mov	 ecx, DWORD PTR ioparm$[rsp]
  00502	48 0b c1	 or	 rax, rcx
  00505	48 89 84 24 80
	00 00 00	 mov	 QWORD PTR dreg$[rsp], rax

; 905  :                 ARCH_DEP( vstore8 )( dreg, effective_addr2, b2, regs );

  0050d	4c 8b 8c 24 a8
	00 00 00	 mov	 r9, QWORD PTR regs$[rsp]
  00515	44 8b 44 24 50	 mov	 r8d, DWORD PTR b2$[rsp]
  0051a	48 8b 54 24 48	 mov	 rdx, QWORD PTR effective_addr2$[rsp]
  0051f	48 8b 8c 24 80
	00 00 00	 mov	 rcx, QWORD PTR dreg$[rsp]
  00527	e8 00 00 00 00	 call	 z900_vstore8
$LN39@z900_test_:
$LN37@z900_test_:

; 906  :             }
; 907  :         }
; 908  :     }

  0052c	eb 40		 jmp	 SHORT $LN36@z900_test_
$LN35@z900_test_:
$LN22@z900_test_:

; 909  :     else
; 910  :     {
; 911  : #if defined( _FEATURE_IO_ASSIST )
; 912  :         /* If no I/O assisted devices have pending interrupts
; 913  :            then we must intercept */
; 914  :         SIE_INTERCEPT( regs );

  0052e	48 8b 84 24 a8
	00 00 00	 mov	 rax, QWORD PTR regs$[rsp]
  00536	8b 80 c8 08 00
	00		 mov	 eax, DWORD PTR [rax+2248]
  0053c	d1 e8		 shr	 eax, 1
  0053e	83 e0 01	 and	 eax, 1
  00541	85 c0		 test	 eax, eax
  00543	74 1b		 je	 SHORT $LN45@z900_test_
  00545	48 8b 84 24 a8
	00 00 00	 mov	 rax, QWORD PTR regs$[rsp]
  0054d	48 05 80 09 00
	00		 add	 rax, 2432		; 00000980H
  00553	ba fc ff ff ff	 mov	 edx, -4
  00558	48 8b c8	 mov	 rcx, rax
  0055b	e8 00 00 00 00	 call	 longjmp
$LN45@z900_test_:
  00560	33 c0		 xor	 eax, eax
  00562	85 c0		 test	 eax, eax
  00564	75 c8		 jne	 SHORT $LN22@z900_test_

; 915  : #endif
; 916  :         icode = 0;

  00566	c7 44 24 40 00
	00 00 00	 mov	 DWORD PTR icode$[rsp], 0
$LN36@z900_test_:

; 917  :     }
; 918  : 
; 919  :     regs->psw.cc = (icode == 0) ? 0 : 1;

  0056e	83 7c 24 40 00	 cmp	 DWORD PTR icode$[rsp], 0
  00573	75 0a		 jne	 SHORT $LN49@z900_test_
  00575	c7 44 24 60 00
	00 00 00	 mov	 DWORD PTR tv281[rsp], 0
  0057d	eb 08		 jmp	 SHORT $LN50@z900_test_
$LN49@z900_test_:
  0057f	c7 44 24 60 01
	00 00 00	 mov	 DWORD PTR tv281[rsp], 1
$LN50@z900_test_:
  00587	48 8b 84 24 a8
	00 00 00	 mov	 rax, QWORD PTR regs$[rsp]
  0058f	0f b6 4c 24 60	 movzx	 ecx, BYTE PTR tv281[rsp]
  00594	88 48 7c	 mov	 BYTE PTR [rax+124], cl

; 920  : 
; 921  :     if (regs->psw.cc != 0)

  00597	48 8b 84 24 a8
	00 00 00	 mov	 rax, QWORD PTR regs$[rsp]
  0059f	0f b6 40 7c	 movzx	 eax, BYTE PTR [rax+124]
  005a3	85 c0		 test	 eax, eax
  005a5	0f 84 88 00 00
	00		 je	 $LN46@z900_test_
$LN25@z900_test_:

; 922  :         PTIO(ERR,"*TPI");

  005ab	48 8b 05 00 00
	00 00		 mov	 rax, QWORD PTR __imp_pttclass
  005b2	48 8b 00	 mov	 rax, QWORD PTR [rax]
  005b5	48 83 e0 10	 and	 rax, 16
  005b9	48 85 c0	 test	 rax, rax
  005bc	74 6b		 je	 SHORT $LN47@z900_test_
  005be	48 8b 84 24 a8
	00 00 00	 mov	 rax, QWORD PTR regs$[rsp]
  005c6	8b 80 88 00 00
	00		 mov	 eax, DWORD PTR [rax+136]
  005cc	b9 ff ff ff ff	 mov	 ecx, -1			; ffffffffH
  005d1	48 8b 54 24 48	 mov	 rdx, QWORD PTR effective_addr2$[rsp]
  005d6	48 23 d1	 and	 rdx, rcx
  005d9	48 8b ca	 mov	 rcx, rdx
  005dc	8b c9		 mov	 ecx, ecx
  005de	ba 08 00 00 00	 mov	 edx, 8
  005e3	48 6b d2 01	 imul	 rdx, rdx, 1
  005e7	4c 8b 84 24 a8
	00 00 00	 mov	 r8, QWORD PTR regs$[rsp]
  005ef	41 8b 94 10 80
	02 00 00	 mov	 edx, DWORD PTR [r8+rdx+640]
  005f7	48 c7 44 24 30
	00 00 00 00	 mov	 QWORD PTR [rsp+48], 0
  00600	48 89 44 24 28	 mov	 QWORD PTR [rsp+40], rax
  00605	48 8d 05 00 00
	00 00		 lea	 rax, OFFSET FLAT:$SG195363
  0060c	48 89 44 24 20	 mov	 QWORD PTR [rsp+32], rax
  00611	44 8b c9	 mov	 r9d, ecx
  00614	44 8b c2	 mov	 r8d, edx
  00617	48 8d 15 00 00
	00 00		 lea	 rdx, OFFSET FLAT:$SG195364
  0061e	b9 10 00 00 00	 mov	 ecx, 16
  00623	ff 15 00 00 00
	00		 call	 QWORD PTR __imp_ptt_pthread_trace
$LN47@z900_test_:
  00629	33 c0		 xor	 eax, eax
  0062b	85 c0		 test	 eax, eax
  0062d	0f 85 78 ff ff
	ff		 jne	 $LN25@z900_test_
$LN46@z900_test_:
$LN48@z900_test_:

; 923  : }

  00633	48 81 c4 98 00
	00 00		 add	 rsp, 152		; 00000098H
  0063a	c3		 ret	 0
z900_test_pending_interruption ENDP
_TEXT	ENDS
; Function compile flags: /Odtp
; File C:\papa\MyGit\hyperion-zvector\io.c
_TEXT	SEGMENT
b2$ = 64
dev$ = 72
effective_addr2$ = 80
temp$1 = 88
schib$ = 96
__$ArrayPad$ = 152
inst$ = 192
regs$ = 200
z900_store_subchannel PROC

; 748  : {

$LN43:
  00000	48 89 54 24 10	 mov	 QWORD PTR [rsp+16], rdx
  00005	48 89 4c 24 08	 mov	 QWORD PTR [rsp+8], rcx
  0000a	56		 push	 rsi
  0000b	57		 push	 rdi
  0000c	48 81 ec a8 00
	00 00		 sub	 rsp, 168		; 000000a8H
  00013	48 8b 05 00 00
	00 00		 mov	 rax, QWORD PTR __security_cookie
  0001a	48 33 c4	 xor	 rax, rsp
  0001d	48 89 84 24 98
	00 00 00	 mov	 QWORD PTR __$ArrayPad$[rsp], rax

; 749  : int     b2;                             /* Effective addr base       */
; 750  : VADR    effective_addr2;                /* Effective address         */
; 751  : DEVBLK* dev;                            /* -> device block           */
; 752  : SCHIB   schib;                          /* Subchannel information blk*/
; 753  : 
; 754  :     S( inst, regs, b2, effective_addr2 );

  00025	48 8b 8c 24 c0
	00 00 00	 mov	 rcx, QWORD PTR inst$[rsp]
  0002d	e8 00 00 00 00	 call	 fetch_fw_noswap
  00032	8b c8		 mov	 ecx, eax
  00034	e8 00 00 00 00	 call	 _byteswap_ulong
  00039	89 44 24 58	 mov	 DWORD PTR temp$1[rsp], eax
  0003d	8b 44 24 58	 mov	 eax, DWORD PTR temp$1[rsp]
  00041	25 ff 0f 00 00	 and	 eax, 4095		; 00000fffH
  00046	8b c0		 mov	 eax, eax
  00048	48 89 44 24 50	 mov	 QWORD PTR effective_addr2$[rsp], rax
  0004d	8b 44 24 58	 mov	 eax, DWORD PTR temp$1[rsp]
  00051	c1 e8 0c	 shr	 eax, 12
  00054	83 e0 0f	 and	 eax, 15
  00057	89 44 24 40	 mov	 DWORD PTR b2$[rsp], eax
  0005b	83 7c 24 40 00	 cmp	 DWORD PTR b2$[rsp], 0
  00060	74 44		 je	 SHORT $LN26@z900_store
  00062	48 63 44 24 40	 movsxd	 rax, DWORD PTR b2$[rsp]
  00067	48 8b 8c 24 c8
	00 00 00	 mov	 rcx, QWORD PTR regs$[rsp]
  0006f	48 8b 84 c1 80
	02 00 00	 mov	 rax, QWORD PTR [rcx+rax*8+640]
  00077	48 8b 4c 24 50	 mov	 rcx, QWORD PTR effective_addr2$[rsp]
  0007c	48 03 c8	 add	 rcx, rax
  0007f	48 8b c1	 mov	 rax, rcx
  00082	48 89 44 24 50	 mov	 QWORD PTR effective_addr2$[rsp], rax
  00087	48 8b 84 24 c8
	00 00 00	 mov	 rax, QWORD PTR regs$[rsp]
  0008f	48 8b 80 90 00
	00 00		 mov	 rax, QWORD PTR [rax+144]
  00096	48 8b 4c 24 50	 mov	 rcx, QWORD PTR effective_addr2$[rsp]
  0009b	48 23 c8	 and	 rcx, rax
  0009e	48 8b c1	 mov	 rax, rcx
  000a1	48 89 44 24 50	 mov	 QWORD PTR effective_addr2$[rsp], rax
$LN26@z900_store:
$LN4@z900_store:
  000a6	48 8b 84 24 c8
	00 00 00	 mov	 rax, QWORD PTR regs$[rsp]
  000ae	48 8b 40 68	 mov	 rax, QWORD PTR [rax+104]
  000b2	48 83 c0 04	 add	 rax, 4
  000b6	48 8b 8c 24 c8
	00 00 00	 mov	 rcx, QWORD PTR regs$[rsp]
  000be	48 89 41 68	 mov	 QWORD PTR [rcx+104], rax
  000c2	33 c0		 xor	 eax, eax
  000c4	83 f8 04	 cmp	 eax, 4
  000c7	74 0f		 je	 SHORT $LN27@z900_store
  000c9	48 8b 84 24 c8
	00 00 00	 mov	 rax, QWORD PTR regs$[rsp]
  000d1	c6 80 9a 00 00
	00 04		 mov	 BYTE PTR [rax+154], 4
$LN27@z900_store:
  000d8	33 c0		 xor	 eax, eax
  000da	85 c0		 test	 eax, eax
  000dc	75 c8		 jne	 SHORT $LN4@z900_store

; 755  :     PER_ZEROADDR_XCHECK( regs, b2 );

  000de	8b 54 24 40	 mov	 edx, DWORD PTR b2$[rsp]
  000e2	48 8b 8c 24 c8
	00 00 00	 mov	 rcx, QWORD PTR regs$[rsp]
  000ea	e8 00 00 00 00	 call	 z900_per3_zero_xcheck
$LN7@z900_store:

; 756  : 
; 757  :     TXF_INSTR_CHECK( regs );

  000ef	48 8b 84 24 c8
	00 00 00	 mov	 rax, QWORD PTR regs$[rsp]
  000f7	0f b6 80 58 0e
	00 00		 movzx	 eax, BYTE PTR [rax+3672]
  000fe	85 c0		 test	 eax, eax
  00100	74 3f		 je	 SHORT $LN28@z900_store
  00102	48 8b 84 24 c8
	00 00 00	 mov	 rax, QWORD PTR regs$[rsp]
  0010a	8b 80 84 af 00
	00		 mov	 eax, DWORD PTR [rax+44932]
  00110	0f ba e8 0c	 bts	 eax, 12
  00114	48 8b 8c 24 c8
	00 00 00	 mov	 rcx, QWORD PTR regs$[rsp]
  0011c	89 81 84 af 00
	00		 mov	 DWORD PTR [rcx+44932], eax
  00122	4c 8d 0d 00 00
	00 00		 lea	 r9, OFFSET FLAT:$SG195252
  00129	41 b8 0b 00 00
	00		 mov	 r8d, 11
  0012f	ba 02 00 00 00	 mov	 edx, 2
  00134	48 8b 8c 24 c8
	00 00 00	 mov	 rcx, QWORD PTR regs$[rsp]
  0013c	e8 00 00 00 00	 call	 z900_abort_transaction
$LN28@z900_store:
  00141	33 c0		 xor	 eax, eax
  00143	85 c0		 test	 eax, eax
  00145	75 a8		 jne	 SHORT $LN7@z900_store

; 758  :     PRIV_CHECK( regs );

  00147	48 8b 84 24 c8
	00 00 00	 mov	 rax, QWORD PTR regs$[rsp]
  0014f	0f b6 40 7a	 movzx	 eax, BYTE PTR [rax+122]
  00153	83 e0 01	 and	 eax, 1
  00156	85 c0		 test	 eax, eax
  00158	74 1b		 je	 SHORT $LN29@z900_store
  0015a	ba 02 00 00 00	 mov	 edx, 2
  0015f	48 8b 8c 24 c8
	00 00 00	 mov	 rcx, QWORD PTR regs$[rsp]
  00167	48 8b 84 24 c8
	00 00 00	 mov	 rax, QWORD PTR regs$[rsp]
  0016f	ff 90 20 0d 00
	00		 call	 QWORD PTR [rax+3360]
$LN29@z900_store:
$LN10@z900_store:

; 759  :     PTIO( IO, "STSCH" );

  00175	48 8b 05 00 00
	00 00		 mov	 rax, QWORD PTR __imp_pttclass
  0017c	48 8b 00	 mov	 rax, QWORD PTR [rax]
  0017f	48 25 00 02 00
	00		 and	 rax, 512		; 00000200H
  00185	48 85 c0	 test	 rax, rax
  00188	74 6b		 je	 SHORT $LN30@z900_store
  0018a	48 8b 84 24 c8
	00 00 00	 mov	 rax, QWORD PTR regs$[rsp]
  00192	8b 80 88 00 00
	00		 mov	 eax, DWORD PTR [rax+136]
  00198	b9 ff ff ff ff	 mov	 ecx, -1			; ffffffffH
  0019d	48 8b 54 24 50	 mov	 rdx, QWORD PTR effective_addr2$[rsp]
  001a2	48 23 d1	 and	 rdx, rcx
  001a5	48 8b ca	 mov	 rcx, rdx
  001a8	8b c9		 mov	 ecx, ecx
  001aa	ba 08 00 00 00	 mov	 edx, 8
  001af	48 6b d2 01	 imul	 rdx, rdx, 1
  001b3	4c 8b 84 24 c8
	00 00 00	 mov	 r8, QWORD PTR regs$[rsp]
  001bb	41 8b 94 10 80
	02 00 00	 mov	 edx, DWORD PTR [r8+rdx+640]
  001c3	48 c7 44 24 30
	00 00 00 00	 mov	 QWORD PTR [rsp+48], 0
  001cc	48 89 44 24 28	 mov	 QWORD PTR [rsp+40], rax
  001d1	48 8d 05 00 00
	00 00		 lea	 rax, OFFSET FLAT:$SG195255
  001d8	48 89 44 24 20	 mov	 QWORD PTR [rsp+32], rax
  001dd	44 8b c9	 mov	 r9d, ecx
  001e0	44 8b c2	 mov	 r8d, edx
  001e3	48 8d 15 00 00
	00 00		 lea	 rdx, OFFSET FLAT:$SG195256
  001ea	b9 00 02 00 00	 mov	 ecx, 512		; 00000200H
  001ef	ff 15 00 00 00
	00		 call	 QWORD PTR __imp_ptt_pthread_trace
$LN30@z900_store:
  001f5	33 c0		 xor	 eax, eax
  001f7	85 c0		 test	 eax, eax
  001f9	0f 85 76 ff ff
	ff		 jne	 $LN10@z900_store
$LN13@z900_store:

; 760  :     PTIO( IO, "STSCH (sie)" );

  001ff	48 8b 05 00 00
	00 00		 mov	 rax, QWORD PTR __imp_pttclass
  00206	48 8b 00	 mov	 rax, QWORD PTR [rax]
  00209	48 25 00 02 00
	00		 and	 rax, 512		; 00000200H
  0020f	48 85 c0	 test	 rax, rax
  00212	74 6b		 je	 SHORT $LN31@z900_store
  00214	48 8b 84 24 c8
	00 00 00	 mov	 rax, QWORD PTR regs$[rsp]
  0021c	8b 80 88 00 00
	00		 mov	 eax, DWORD PTR [rax+136]
  00222	b9 ff ff ff ff	 mov	 ecx, -1			; ffffffffH
  00227	48 8b 54 24 50	 mov	 rdx, QWORD PTR effective_addr2$[rsp]
  0022c	48 23 d1	 and	 rdx, rcx
  0022f	48 8b ca	 mov	 rcx, rdx
  00232	8b c9		 mov	 ecx, ecx
  00234	ba 08 00 00 00	 mov	 edx, 8
  00239	48 6b d2 01	 imul	 rdx, rdx, 1
  0023d	4c 8b 84 24 c8
	00 00 00	 mov	 r8, QWORD PTR regs$[rsp]
  00245	41 8b 94 10 80
	02 00 00	 mov	 edx, DWORD PTR [r8+rdx+640]
  0024d	48 c7 44 24 30
	00 00 00 00	 mov	 QWORD PTR [rsp+48], 0
  00256	48 89 44 24 28	 mov	 QWORD PTR [rsp+40], rax
  0025b	48 8d 05 00 00
	00 00		 lea	 rax, OFFSET FLAT:$SG195258
  00262	48 89 44 24 20	 mov	 QWORD PTR [rsp+32], rax
  00267	44 8b c9	 mov	 r9d, ecx
  0026a	44 8b c2	 mov	 r8d, edx
  0026d	48 8d 15 00 00
	00 00		 lea	 rdx, OFFSET FLAT:$SG195259
  00274	b9 00 02 00 00	 mov	 ecx, 512		; 00000200H
  00279	ff 15 00 00 00
	00		 call	 QWORD PTR __imp_ptt_pthread_trace
$LN31@z900_store:
  0027f	33 c0		 xor	 eax, eax
  00281	85 c0		 test	 eax, eax
  00283	0f 85 76 ff ff
	ff		 jne	 $LN13@z900_store
$LN16@z900_store:

; 761  :     SIE_INTERCEPT( regs );

  00289	48 8b 84 24 c8
	00 00 00	 mov	 rax, QWORD PTR regs$[rsp]
  00291	8b 80 c8 08 00
	00		 mov	 eax, DWORD PTR [rax+2248]
  00297	d1 e8		 shr	 eax, 1
  00299	83 e0 01	 and	 eax, 1
  0029c	85 c0		 test	 eax, eax
  0029e	74 1b		 je	 SHORT $LN32@z900_store
  002a0	48 8b 84 24 c8
	00 00 00	 mov	 rax, QWORD PTR regs$[rsp]
  002a8	48 05 80 09 00
	00		 add	 rax, 2432		; 00000980H
  002ae	ba fc ff ff ff	 mov	 edx, -4
  002b3	48 8b c8	 mov	 rcx, rax
  002b6	e8 00 00 00 00	 call	 longjmp
$LN32@z900_store:
  002bb	33 c0		 xor	 eax, eax
  002bd	85 c0		 test	 eax, eax
  002bf	75 c8		 jne	 SHORT $LN16@z900_store

; 762  : 
; 763  :     /* Program check if the ssid including lcss is invalid */
; 764  :     SSID_CHECK( regs );

  002c1	b8 08 00 00 00	 mov	 eax, 8
  002c6	48 6b c0 01	 imul	 rax, rax, 1
  002ca	48 8b 8c 24 c8
	00 00 00	 mov	 rcx, QWORD PTR regs$[rsp]
  002d2	0f b7 84 01 82
	02 00 00	 movzx	 eax, WORD PTR [rcx+rax+642]
  002da	83 e0 01	 and	 eax, 1
  002dd	85 c0		 test	 eax, eax
  002df	74 1e		 je	 SHORT $LN34@z900_store
  002e1	b8 08 00 00 00	 mov	 eax, 8
  002e6	48 6b c0 01	 imul	 rax, rax, 1
  002ea	48 8b 8c 24 c8
	00 00 00	 mov	 rcx, QWORD PTR regs$[rsp]
  002f2	0f b7 84 01 82
	02 00 00	 movzx	 eax, WORD PTR [rcx+rax+642]
  002fa	83 f8 03	 cmp	 eax, 3
  002fd	7e 1b		 jle	 SHORT $LN33@z900_store
$LN34@z900_store:
  002ff	ba 15 00 00 00	 mov	 edx, 21
  00304	48 8b 8c 24 c8
	00 00 00	 mov	 rcx, QWORD PTR regs$[rsp]
  0030c	48 8b 84 24 c8
	00 00 00	 mov	 rax, QWORD PTR regs$[rsp]
  00314	ff 90 20 0d 00
	00		 call	 QWORD PTR [rax+3360]
$LN33@z900_store:

; 765  : 
; 766  :     /* Locate the device block for this subchannel */
; 767  :     dev = find_device_by_subchan( regs->GR_L( 1 ));

  0031a	b8 08 00 00 00	 mov	 eax, 8
  0031f	48 6b c0 01	 imul	 rax, rax, 1
  00323	48 8b 8c 24 c8
	00 00 00	 mov	 rcx, QWORD PTR regs$[rsp]
  0032b	8b 8c 01 80 02
	00 00		 mov	 ecx, DWORD PTR [rcx+rax+640]
  00332	e8 00 00 00 00	 call	 find_device_by_subchan
  00337	48 89 44 24 48	 mov	 QWORD PTR dev$[rsp], rax

; 768  : 
; 769  :     if (dev)

  0033c	48 83 7c 24 48
	00		 cmp	 QWORD PTR dev$[rsp], 0
  00342	74 5a		 je	 SHORT $LN35@z900_store
$LN19@z900_store:

; 770  :         PTT( PTT_CL_IO, "STSCH (dev)", dev->devnum, 0, 0 );

  00344	48 8b 05 00 00
	00 00		 mov	 rax, QWORD PTR __imp_pttclass
  0034b	48 8b 00	 mov	 rax, QWORD PTR [rax]
  0034e	48 25 00 02 00
	00		 and	 rax, 512		; 00000200H
  00354	48 85 c0	 test	 rax, rax
  00357	74 3f		 je	 SHORT $LN36@z900_store
  00359	48 8b 44 24 48	 mov	 rax, QWORD PTR dev$[rsp]
  0035e	0f b7 40 48	 movzx	 eax, WORD PTR [rax+72]
  00362	48 c7 44 24 30
	00 00 00 00	 mov	 QWORD PTR [rsp+48], 0
  0036b	48 c7 44 24 28
	00 00 00 00	 mov	 QWORD PTR [rsp+40], 0
  00374	48 8d 0d 00 00
	00 00		 lea	 rcx, OFFSET FLAT:$SG195265
  0037b	48 89 4c 24 20	 mov	 QWORD PTR [rsp+32], rcx
  00380	45 33 c9	 xor	 r9d, r9d
  00383	44 8b c0	 mov	 r8d, eax
  00386	48 8d 15 00 00
	00 00		 lea	 rdx, OFFSET FLAT:$SG195266
  0038d	b9 00 02 00 00	 mov	 ecx, 512		; 00000200H
  00392	ff 15 00 00 00
	00		 call	 QWORD PTR __imp_ptt_pthread_trace
$LN36@z900_store:
  00398	33 c0		 xor	 eax, eax
  0039a	85 c0		 test	 eax, eax
  0039c	75 a6		 jne	 SHORT $LN19@z900_store
$LN35@z900_store:

; 771  : 
; 772  :     /* Set condition code 3 if subchannel does not exist */
; 773  :     if (!dev)

  0039e	48 83 7c 24 48
	00		 cmp	 QWORD PTR dev$[rsp], 0
  003a4	0f 85 99 00 00
	00		 jne	 $LN37@z900_store
$LN22@z900_store:

; 774  :     {
; 775  :         PTIO( ERR, "*STSCH" );

  003aa	48 8b 05 00 00
	00 00		 mov	 rax, QWORD PTR __imp_pttclass
  003b1	48 8b 00	 mov	 rax, QWORD PTR [rax]
  003b4	48 83 e0 10	 and	 rax, 16
  003b8	48 85 c0	 test	 rax, rax
  003bb	74 6b		 je	 SHORT $LN38@z900_store
  003bd	48 8b 84 24 c8
	00 00 00	 mov	 rax, QWORD PTR regs$[rsp]
  003c5	8b 80 88 00 00
	00		 mov	 eax, DWORD PTR [rax+136]
  003cb	b9 ff ff ff ff	 mov	 ecx, -1			; ffffffffH
  003d0	48 8b 54 24 50	 mov	 rdx, QWORD PTR effective_addr2$[rsp]
  003d5	48 23 d1	 and	 rdx, rcx
  003d8	48 8b ca	 mov	 rcx, rdx
  003db	8b c9		 mov	 ecx, ecx
  003dd	ba 08 00 00 00	 mov	 edx, 8
  003e2	48 6b d2 01	 imul	 rdx, rdx, 1
  003e6	4c 8b 84 24 c8
	00 00 00	 mov	 r8, QWORD PTR regs$[rsp]
  003ee	41 8b 94 10 80
	02 00 00	 mov	 edx, DWORD PTR [r8+rdx+640]
  003f6	48 c7 44 24 30
	00 00 00 00	 mov	 QWORD PTR [rsp+48], 0
  003ff	48 89 44 24 28	 mov	 QWORD PTR [rsp+40], rax
  00404	48 8d 05 00 00
	00 00		 lea	 rax, OFFSET FLAT:$SG195269
  0040b	48 89 44 24 20	 mov	 QWORD PTR [rsp+32], rax
  00410	44 8b c9	 mov	 r9d, ecx
  00413	44 8b c2	 mov	 r8d, edx
  00416	48 8d 15 00 00
	00 00		 lea	 rdx, OFFSET FLAT:$SG195270
  0041d	b9 10 00 00 00	 mov	 ecx, 16
  00422	ff 15 00 00 00
	00		 call	 QWORD PTR __imp_ptt_pthread_trace
$LN38@z900_store:
  00428	33 c0		 xor	 eax, eax
  0042a	85 c0		 test	 eax, eax
  0042c	0f 85 78 ff ff
	ff		 jne	 $LN22@z900_store

; 776  :         regs->psw.cc = 3;

  00432	48 8b 84 24 c8
	00 00 00	 mov	 rax, QWORD PTR regs$[rsp]
  0043a	c6 40 7c 03	 mov	 BYTE PTR [rax+124], 3

; 777  :         return;

  0043e	e9 0d 01 00 00	 jmp	 $LN1@z900_store
$LN37@z900_store:

; 778  :     }
; 779  : 
; 780  :     FW_CHECK( effective_addr2, regs );

  00443	48 8b 44 24 50	 mov	 rax, QWORD PTR effective_addr2$[rsp]
  00448	48 83 e0 03	 and	 rax, 3
  0044c	48 85 c0	 test	 rax, rax
  0044f	74 1b		 je	 SHORT $LN39@z900_store
  00451	ba 06 00 00 00	 mov	 edx, 6
  00456	48 8b 8c 24 c8
	00 00 00	 mov	 rcx, QWORD PTR regs$[rsp]
  0045e	48 8b 84 24 c8
	00 00 00	 mov	 rax, QWORD PTR regs$[rsp]
  00466	ff 90 20 0d 00
	00		 call	 QWORD PTR [rax+3360]
$LN39@z900_store:

; 781  : 
; 782  :     /* Perform serialization and checkpoint-synchronization */
; 783  :     PERFORM_SERIALIZATION( regs );

  0046c	0f ae f0	 mfence
$LN25@z900_store:

; 784  :     PERFORM_CHKPT_SYNC( regs );

  0046f	33 c0		 xor	 eax, eax
  00471	85 c0		 test	 eax, eax
  00473	75 fa		 jne	 SHORT $LN25@z900_store

; 785  : 
; 786  :     /* Build the subchannel information block */
; 787  :     schib.pmcw = dev->pmcw;

  00475	48 8d 44 24 60	 lea	 rax, QWORD PTR schib$[rsp]
  0047a	48 8b 4c 24 48	 mov	 rcx, QWORD PTR dev$[rsp]
  0047f	48 8b f8	 mov	 rdi, rax
  00482	48 8d b1 ec 02
	00 00		 lea	 rsi, QWORD PTR [rcx+748]
  00489	b9 1c 00 00 00	 mov	 ecx, 28
  0048e	f3 a4		 rep movsb

; 788  : 
; 789  :     obtain_lock( &dev->lock );

  00490	48 8b 44 24 48	 mov	 rax, QWORD PTR dev$[rsp]
  00495	48 83 c0 38	 add	 rax, 56			; 00000038H
  00499	48 8d 15 00 00
	00 00		 lea	 rdx, OFFSET FLAT:$SG195272
  004a0	48 8b c8	 mov	 rcx, rax
  004a3	ff 15 00 00 00
	00		 call	 QWORD PTR __imp_hthread_obtain_lock

; 790  :     {
; 791  :         if (dev->pciscsw.flag3 & SCSW3_SC_PEND)

  004a9	48 8b 44 24 48	 mov	 rax, QWORD PTR dev$[rsp]
  004ae	0f b6 80 17 03
	00 00		 movzx	 eax, BYTE PTR [rax+791]
  004b5	83 e0 01	 and	 eax, 1
  004b8	85 c0		 test	 eax, eax
  004ba	74 1d		 je	 SHORT $LN40@z900_store

; 792  :             schib.scsw = dev->pciscsw;

  004bc	48 8d 44 24 7c	 lea	 rax, QWORD PTR schib$[rsp+28]
  004c1	48 8b 4c 24 48	 mov	 rcx, QWORD PTR dev$[rsp]
  004c6	48 8b f8	 mov	 rdi, rax
  004c9	48 8d b1 14 03
	00 00		 lea	 rsi, QWORD PTR [rcx+788]
  004d0	b9 0c 00 00 00	 mov	 ecx, 12
  004d5	f3 a4		 rep movsb
  004d7	eb 1b		 jmp	 SHORT $LN41@z900_store
$LN40@z900_store:

; 793  :         else
; 794  :             schib.scsw = dev->scsw;

  004d9	48 8d 44 24 7c	 lea	 rax, QWORD PTR schib$[rsp+28]
  004de	48 8b 4c 24 48	 mov	 rcx, QWORD PTR dev$[rsp]
  004e3	48 8b f8	 mov	 rdi, rax
  004e6	48 8d b1 08 03
	00 00		 lea	 rsi, QWORD PTR [rcx+776]
  004ed	b9 0c 00 00 00	 mov	 ecx, 12
  004f2	f3 a4		 rep movsb
$LN41@z900_store:

; 795  :     }
; 796  :     release_lock( &dev->lock );

  004f4	48 8b 44 24 48	 mov	 rax, QWORD PTR dev$[rsp]
  004f9	48 83 c0 38	 add	 rax, 56			; 00000038H
  004fd	48 8d 15 00 00
	00 00		 lea	 rdx, OFFSET FLAT:$SG195275
  00504	48 8b c8	 mov	 rcx, rax
  00507	ff 15 00 00 00
	00		 call	 QWORD PTR __imp_hthread_release_lock

; 797  : 
; 798  :     memset( schib.moddep, 0, sizeof( schib.moddep ));

  0050d	48 8d 84 24 88
	00 00 00	 lea	 rax, QWORD PTR schib$[rsp+40]
  00515	48 8b f8	 mov	 rdi, rax
  00518	33 c0		 xor	 eax, eax
  0051a	b9 0c 00 00 00	 mov	 ecx, 12
  0051f	f3 aa		 rep stosb

; 799  : 
; 800  :     /* Store the subchannel information block */
; 801  :     ARCH_DEP( vstorec )( &schib, sizeof(SCHIB)-1, effective_addr2,

  00521	48 8b 84 24 c8
	00 00 00	 mov	 rax, QWORD PTR regs$[rsp]
  00529	48 89 44 24 20	 mov	 QWORD PTR [rsp+32], rax
  0052e	44 8b 4c 24 40	 mov	 r9d, DWORD PTR b2$[rsp]
  00533	4c 8b 44 24 50	 mov	 r8, QWORD PTR effective_addr2$[rsp]
  00538	b2 33		 mov	 dl, 51			; 00000033H
  0053a	48 8d 4c 24 60	 lea	 rcx, QWORD PTR schib$[rsp]
  0053f	e8 00 00 00 00	 call	 z900_vstorec

; 802  :                 b2, regs );
; 803  : 
; 804  :     /* Set condition code 0 */
; 805  :     regs->psw.cc = 0;

  00544	48 8b 84 24 c8
	00 00 00	 mov	 rax, QWORD PTR regs$[rsp]
  0054c	c6 40 7c 00	 mov	 BYTE PTR [rax+124], 0
$LN1@z900_store:
$LN42@z900_store:

; 806  : }

  00550	48 8b 8c 24 98
	00 00 00	 mov	 rcx, QWORD PTR __$ArrayPad$[rsp]
  00558	48 33 cc	 xor	 rcx, rsp
  0055b	e8 00 00 00 00	 call	 __security_check_cookie
  00560	48 81 c4 a8 00
	00 00		 add	 rsp, 168		; 000000a8H
  00567	5f		 pop	 rdi
  00568	5e		 pop	 rsi
  00569	c3		 ret	 0
z900_store_subchannel ENDP
_TEXT	ENDS
; Function compile flags: /Odtp
; File C:\papa\MyGit\hyperion-zvector\io.c
_TEXT	SEGMENT
b2$ = 64
crw$ = 68
temp$1 = 72
tv201 = 76
effective_addr2$ = 80
inst$ = 112
regs$ = 120
z900_store_channel_report_word PROC

; 710  : {

$LN33:
  00000	48 89 54 24 10	 mov	 QWORD PTR [rsp+16], rdx
  00005	48 89 4c 24 08	 mov	 QWORD PTR [rsp+8], rcx
  0000a	48 83 ec 68	 sub	 rsp, 104		; 00000068H

; 711  : int     b2;                             /* Effective addr base       */
; 712  : VADR    effective_addr2;                /* Effective address         */
; 713  : U32     crw;                            /* Channel Report Word       */
; 714  : 
; 715  :     S(inst, regs, b2, effective_addr2);

  0000e	48 8b 4c 24 70	 mov	 rcx, QWORD PTR inst$[rsp]
  00013	e8 00 00 00 00	 call	 fetch_fw_noswap
  00018	8b c8		 mov	 ecx, eax
  0001a	e8 00 00 00 00	 call	 _byteswap_ulong
  0001f	89 44 24 48	 mov	 DWORD PTR temp$1[rsp], eax
  00023	8b 44 24 48	 mov	 eax, DWORD PTR temp$1[rsp]
  00027	25 ff 0f 00 00	 and	 eax, 4095		; 00000fffH
  0002c	8b c0		 mov	 eax, eax
  0002e	48 89 44 24 50	 mov	 QWORD PTR effective_addr2$[rsp], rax
  00033	8b 44 24 48	 mov	 eax, DWORD PTR temp$1[rsp]
  00037	c1 e8 0c	 shr	 eax, 12
  0003a	83 e0 0f	 and	 eax, 15
  0003d	89 44 24 40	 mov	 DWORD PTR b2$[rsp], eax
  00041	83 7c 24 40 00	 cmp	 DWORD PTR b2$[rsp], 0
  00046	74 3e		 je	 SHORT $LN20@z900_store
  00048	48 63 44 24 40	 movsxd	 rax, DWORD PTR b2$[rsp]
  0004d	48 8b 4c 24 78	 mov	 rcx, QWORD PTR regs$[rsp]
  00052	48 8b 84 c1 80
	02 00 00	 mov	 rax, QWORD PTR [rcx+rax*8+640]
  0005a	48 8b 4c 24 50	 mov	 rcx, QWORD PTR effective_addr2$[rsp]
  0005f	48 03 c8	 add	 rcx, rax
  00062	48 8b c1	 mov	 rax, rcx
  00065	48 89 44 24 50	 mov	 QWORD PTR effective_addr2$[rsp], rax
  0006a	48 8b 44 24 78	 mov	 rax, QWORD PTR regs$[rsp]
  0006f	48 8b 80 90 00
	00 00		 mov	 rax, QWORD PTR [rax+144]
  00076	48 8b 4c 24 50	 mov	 rcx, QWORD PTR effective_addr2$[rsp]
  0007b	48 23 c8	 and	 rcx, rax
  0007e	48 8b c1	 mov	 rax, rcx
  00081	48 89 44 24 50	 mov	 QWORD PTR effective_addr2$[rsp], rax
$LN20@z900_store:
$LN4@z900_store:
  00086	48 8b 44 24 78	 mov	 rax, QWORD PTR regs$[rsp]
  0008b	48 8b 40 68	 mov	 rax, QWORD PTR [rax+104]
  0008f	48 83 c0 04	 add	 rax, 4
  00093	48 8b 4c 24 78	 mov	 rcx, QWORD PTR regs$[rsp]
  00098	48 89 41 68	 mov	 QWORD PTR [rcx+104], rax
  0009c	33 c0		 xor	 eax, eax
  0009e	83 f8 04	 cmp	 eax, 4
  000a1	74 0c		 je	 SHORT $LN21@z900_store
  000a3	48 8b 44 24 78	 mov	 rax, QWORD PTR regs$[rsp]
  000a8	c6 80 9a 00 00
	00 04		 mov	 BYTE PTR [rax+154], 4
$LN21@z900_store:
  000af	33 c0		 xor	 eax, eax
  000b1	85 c0		 test	 eax, eax
  000b3	75 d1		 jne	 SHORT $LN4@z900_store

; 716  :     PER_ZEROADDR_XCHECK( regs, b2 );

  000b5	8b 54 24 40	 mov	 edx, DWORD PTR b2$[rsp]
  000b9	48 8b 4c 24 78	 mov	 rcx, QWORD PTR regs$[rsp]
  000be	e8 00 00 00 00	 call	 z900_per3_zero_xcheck
$LN7@z900_store:

; 717  : 
; 718  :     TXF_INSTR_CHECK( regs );

  000c3	48 8b 44 24 78	 mov	 rax, QWORD PTR regs$[rsp]
  000c8	0f b6 80 58 0e
	00 00		 movzx	 eax, BYTE PTR [rax+3672]
  000cf	85 c0		 test	 eax, eax
  000d1	74 36		 je	 SHORT $LN22@z900_store
  000d3	48 8b 44 24 78	 mov	 rax, QWORD PTR regs$[rsp]
  000d8	8b 80 84 af 00
	00		 mov	 eax, DWORD PTR [rax+44932]
  000de	0f ba e8 0c	 bts	 eax, 12
  000e2	48 8b 4c 24 78	 mov	 rcx, QWORD PTR regs$[rsp]
  000e7	89 81 84 af 00
	00		 mov	 DWORD PTR [rcx+44932], eax
  000ed	4c 8d 0d 00 00
	00 00		 lea	 r9, OFFSET FLAT:$SG195172
  000f4	41 b8 0b 00 00
	00		 mov	 r8d, 11
  000fa	ba 02 00 00 00	 mov	 edx, 2
  000ff	48 8b 4c 24 78	 mov	 rcx, QWORD PTR regs$[rsp]
  00104	e8 00 00 00 00	 call	 z900_abort_transaction
$LN22@z900_store:
  00109	33 c0		 xor	 eax, eax
  0010b	85 c0		 test	 eax, eax
  0010d	75 b4		 jne	 SHORT $LN7@z900_store
$LN10@z900_store:

; 719  :     PTIO(IO,"STCRW");

  0010f	48 8b 05 00 00
	00 00		 mov	 rax, QWORD PTR __imp_pttclass
  00116	48 8b 00	 mov	 rax, QWORD PTR [rax]
  00119	48 25 00 02 00
	00		 and	 rax, 512		; 00000200H
  0011f	48 85 c0	 test	 rax, rax
  00122	74 65		 je	 SHORT $LN23@z900_store
  00124	48 8b 44 24 78	 mov	 rax, QWORD PTR regs$[rsp]
  00129	8b 80 88 00 00
	00		 mov	 eax, DWORD PTR [rax+136]
  0012f	b9 ff ff ff ff	 mov	 ecx, -1			; ffffffffH
  00134	48 8b 54 24 50	 mov	 rdx, QWORD PTR effective_addr2$[rsp]
  00139	48 23 d1	 and	 rdx, rcx
  0013c	48 8b ca	 mov	 rcx, rdx
  0013f	8b c9		 mov	 ecx, ecx
  00141	ba 08 00 00 00	 mov	 edx, 8
  00146	48 6b d2 01	 imul	 rdx, rdx, 1
  0014a	4c 8b 44 24 78	 mov	 r8, QWORD PTR regs$[rsp]
  0014f	41 8b 94 10 80
	02 00 00	 mov	 edx, DWORD PTR [r8+rdx+640]
  00157	48 c7 44 24 30
	00 00 00 00	 mov	 QWORD PTR [rsp+48], 0
  00160	48 89 44 24 28	 mov	 QWORD PTR [rsp+40], rax
  00165	48 8d 05 00 00
	00 00		 lea	 rax, OFFSET FLAT:$SG195174
  0016c	48 89 44 24 20	 mov	 QWORD PTR [rsp+32], rax
  00171	44 8b c9	 mov	 r9d, ecx
  00174	44 8b c2	 mov	 r8d, edx
  00177	48 8d 15 00 00
	00 00		 lea	 rdx, OFFSET FLAT:$SG195175
  0017e	b9 00 02 00 00	 mov	 ecx, 512		; 00000200H
  00183	ff 15 00 00 00
	00		 call	 QWORD PTR __imp_ptt_pthread_trace
$LN23@z900_store:
  00189	33 c0		 xor	 eax, eax
  0018b	85 c0		 test	 eax, eax
  0018d	75 80		 jne	 SHORT $LN10@z900_store

; 720  :     PRIV_CHECK(regs);

  0018f	48 8b 44 24 78	 mov	 rax, QWORD PTR regs$[rsp]
  00194	0f b6 40 7a	 movzx	 eax, BYTE PTR [rax+122]
  00198	83 e0 01	 and	 eax, 1
  0019b	85 c0		 test	 eax, eax
  0019d	74 15		 je	 SHORT $LN24@z900_store
  0019f	ba 02 00 00 00	 mov	 edx, 2
  001a4	48 8b 4c 24 78	 mov	 rcx, QWORD PTR regs$[rsp]
  001a9	48 8b 44 24 78	 mov	 rax, QWORD PTR regs$[rsp]
  001ae	ff 90 20 0d 00
	00		 call	 QWORD PTR [rax+3360]
$LN24@z900_store:
$LN13@z900_store:

; 721  :     SIE_INTERCEPT(regs);

  001b4	48 8b 44 24 78	 mov	 rax, QWORD PTR regs$[rsp]
  001b9	8b 80 c8 08 00
	00		 mov	 eax, DWORD PTR [rax+2248]
  001bf	d1 e8		 shr	 eax, 1
  001c1	83 e0 01	 and	 eax, 1
  001c4	85 c0		 test	 eax, eax
  001c6	74 18		 je	 SHORT $LN25@z900_store
  001c8	48 8b 44 24 78	 mov	 rax, QWORD PTR regs$[rsp]
  001cd	48 05 80 09 00
	00		 add	 rax, 2432		; 00000980H
  001d3	ba fc ff ff ff	 mov	 edx, -4
  001d8	48 8b c8	 mov	 rcx, rax
  001db	e8 00 00 00 00	 call	 longjmp
$LN25@z900_store:
  001e0	33 c0		 xor	 eax, eax
  001e2	85 c0		 test	 eax, eax
  001e4	75 ce		 jne	 SHORT $LN13@z900_store

; 722  :     FW_CHECK(effective_addr2, regs);

  001e6	48 8b 44 24 50	 mov	 rax, QWORD PTR effective_addr2$[rsp]
  001eb	48 83 e0 03	 and	 rax, 3
  001ef	48 85 c0	 test	 rax, rax
  001f2	74 15		 je	 SHORT $LN26@z900_store
  001f4	ba 06 00 00 00	 mov	 edx, 6
  001f9	48 8b 4c 24 78	 mov	 rcx, QWORD PTR regs$[rsp]
  001fe	48 8b 44 24 78	 mov	 rax, QWORD PTR regs$[rsp]
  00203	ff 90 20 0d 00
	00		 call	 QWORD PTR [rax+3360]
$LN26@z900_store:

; 723  : 
; 724  :     /* Validate write access to operand before taking any
; 725  :        pending channel report word off the queue */
; 726  :     ARCH_DEP(validate_operand) (effective_addr2, b2, 0, ACCTYPE_WRITE, regs);

  00209	48 8b 44 24 78	 mov	 rax, QWORD PTR regs$[rsp]
  0020e	48 89 44 24 20	 mov	 QWORD PTR [rsp+32], rax
  00213	41 b9 02 00 00
	00		 mov	 r9d, 2
  00219	45 33 c0	 xor	 r8d, r8d
  0021c	8b 54 24 40	 mov	 edx, DWORD PTR b2$[rsp]
  00220	48 8b 4c 24 50	 mov	 rcx, QWORD PTR effective_addr2$[rsp]
  00225	e8 00 00 00 00	 call	 z900_validate_operand

; 727  : 
; 728  :     /* Obtain any pending channel report */
; 729  :     crw = get_next_channel_report_word(regs);

  0022a	48 8b 4c 24 78	 mov	 rcx, QWORD PTR regs$[rsp]
  0022f	e8 00 00 00 00	 call	 get_next_channel_report_word
  00234	89 44 24 44	 mov	 DWORD PTR crw$[rsp], eax
$LN16@z900_store:

; 730  : 
; 731  :     PTIO_CH( IO, "STCRW crw", crw );

  00238	48 8b 05 00 00
	00 00		 mov	 rax, QWORD PTR __imp_pttclass
  0023f	48 8b 00	 mov	 rax, QWORD PTR [rax]
  00242	48 25 00 02 00
	00		 and	 rax, 512		; 00000200H
  00248	48 85 c0	 test	 rax, rax
  0024b	74 53		 je	 SHORT $LN27@z900_store
  0024d	48 8b 44 24 78	 mov	 rax, QWORD PTR regs$[rsp]
  00252	8b 80 88 00 00
	00		 mov	 eax, DWORD PTR [rax+136]
  00258	b9 ff ff ff ff	 mov	 ecx, -1			; ffffffffH
  0025d	48 8b 54 24 50	 mov	 rdx, QWORD PTR effective_addr2$[rsp]
  00262	48 23 d1	 and	 rdx, rcx
  00265	48 8b ca	 mov	 rcx, rdx
  00268	8b c9		 mov	 ecx, ecx
  0026a	8b 54 24 44	 mov	 edx, DWORD PTR crw$[rsp]
  0026e	48 c7 44 24 30
	00 00 00 00	 mov	 QWORD PTR [rsp+48], 0
  00277	48 89 44 24 28	 mov	 QWORD PTR [rsp+40], rax
  0027c	48 8d 05 00 00
	00 00		 lea	 rax, OFFSET FLAT:$SG195180
  00283	48 89 44 24 20	 mov	 QWORD PTR [rsp+32], rax
  00288	44 8b c9	 mov	 r9d, ecx
  0028b	44 8b c2	 mov	 r8d, edx
  0028e	48 8d 15 00 00
	00 00		 lea	 rdx, OFFSET FLAT:$SG195181
  00295	b9 00 02 00 00	 mov	 ecx, 512		; 00000200H
  0029a	ff 15 00 00 00
	00		 call	 QWORD PTR __imp_ptt_pthread_trace
$LN27@z900_store:
  002a0	33 c0		 xor	 eax, eax
  002a2	85 c0		 test	 eax, eax
  002a4	75 92		 jne	 SHORT $LN16@z900_store

; 732  : 
; 733  :     /* Store channel report word at operand address */
; 734  :     ARCH_DEP(vstore4) ( crw, effective_addr2, b2, regs );

  002a6	4c 8b 4c 24 78	 mov	 r9, QWORD PTR regs$[rsp]
  002ab	44 8b 44 24 40	 mov	 r8d, DWORD PTR b2$[rsp]
  002b0	48 8b 54 24 50	 mov	 rdx, QWORD PTR effective_addr2$[rsp]
  002b5	8b 4c 24 44	 mov	 ecx, DWORD PTR crw$[rsp]
  002b9	e8 00 00 00 00	 call	 z900_vstore4

; 735  : 
; 736  :     /* Indicate if channel report or zeros were stored */
; 737  :     regs->psw.cc = (crw == 0) ? 1 : 0;

  002be	83 7c 24 44 00	 cmp	 DWORD PTR crw$[rsp], 0
  002c3	75 0a		 jne	 SHORT $LN31@z900_store
  002c5	c7 44 24 4c 01
	00 00 00	 mov	 DWORD PTR tv201[rsp], 1
  002cd	eb 08		 jmp	 SHORT $LN32@z900_store
$LN31@z900_store:
  002cf	c7 44 24 4c 00
	00 00 00	 mov	 DWORD PTR tv201[rsp], 0
$LN32@z900_store:
  002d7	48 8b 44 24 78	 mov	 rax, QWORD PTR regs$[rsp]
  002dc	0f b6 4c 24 4c	 movzx	 ecx, BYTE PTR tv201[rsp]
  002e1	88 48 7c	 mov	 BYTE PTR [rax+124], cl

; 738  : 
; 739  :     if (regs->psw.cc != 0)

  002e4	48 8b 44 24 78	 mov	 rax, QWORD PTR regs$[rsp]
  002e9	0f b6 40 7c	 movzx	 eax, BYTE PTR [rax+124]
  002ed	85 c0		 test	 eax, eax
  002ef	74 7e		 je	 SHORT $LN28@z900_store
$LN19@z900_store:

; 740  :         PTIO(ERR,"*STCRW");

  002f1	48 8b 05 00 00
	00 00		 mov	 rax, QWORD PTR __imp_pttclass
  002f8	48 8b 00	 mov	 rax, QWORD PTR [rax]
  002fb	48 83 e0 10	 and	 rax, 16
  002ff	48 85 c0	 test	 rax, rax
  00302	74 65		 je	 SHORT $LN29@z900_store
  00304	48 8b 44 24 78	 mov	 rax, QWORD PTR regs$[rsp]
  00309	8b 80 88 00 00
	00		 mov	 eax, DWORD PTR [rax+136]
  0030f	b9 ff ff ff ff	 mov	 ecx, -1			; ffffffffH
  00314	48 8b 54 24 50	 mov	 rdx, QWORD PTR effective_addr2$[rsp]
  00319	48 23 d1	 and	 rdx, rcx
  0031c	48 8b ca	 mov	 rcx, rdx
  0031f	8b c9		 mov	 ecx, ecx
  00321	ba 08 00 00 00	 mov	 edx, 8
  00326	48 6b d2 01	 imul	 rdx, rdx, 1
  0032a	4c 8b 44 24 78	 mov	 r8, QWORD PTR regs$[rsp]
  0032f	41 8b 94 10 80
	02 00 00	 mov	 edx, DWORD PTR [r8+rdx+640]
  00337	48 c7 44 24 30
	00 00 00 00	 mov	 QWORD PTR [rsp+48], 0
  00340	48 89 44 24 28	 mov	 QWORD PTR [rsp+40], rax
  00345	48 8d 05 00 00
	00 00		 lea	 rax, OFFSET FLAT:$SG195184
  0034c	48 89 44 24 20	 mov	 QWORD PTR [rsp+32], rax
  00351	44 8b c9	 mov	 r9d, ecx
  00354	44 8b c2	 mov	 r8d, edx
  00357	48 8d 15 00 00
	00 00		 lea	 rdx, OFFSET FLAT:$SG195185
  0035e	b9 10 00 00 00	 mov	 ecx, 16
  00363	ff 15 00 00 00
	00		 call	 QWORD PTR __imp_ptt_pthread_trace
$LN29@z900_store:
  00369	33 c0		 xor	 eax, eax
  0036b	85 c0		 test	 eax, eax
  0036d	75 82		 jne	 SHORT $LN19@z900_store
$LN28@z900_store:
$LN30@z900_store:

; 741  : }

  0036f	48 83 c4 68	 add	 rsp, 104		; 00000068H
  00373	c3		 ret	 0
z900_store_channel_report_word ENDP
_TEXT	ENDS
; Function compile flags: /Odtp
; File C:\papa\MyGit\hyperion-zvector\io.c
_TEXT	SEGMENT
chpid$ = 64
dev$ = 72
b2$ = 80
effective_addr2$ = 88
temp$1 = 96
tv302 = 100
tv217 = 104
tv205 = 112
work$ = 120
__$ArrayPad$ = 152
inst$ = 176
regs$ = 184
z900_store_channel_path_status PROC

; 635  : {

$LN26:
  00000	48 89 54 24 10	 mov	 QWORD PTR [rsp+16], rdx
  00005	48 89 4c 24 08	 mov	 QWORD PTR [rsp+8], rcx
  0000a	57		 push	 rdi
  0000b	48 81 ec a0 00
	00 00		 sub	 rsp, 160		; 000000a0H
  00012	48 8b 05 00 00
	00 00		 mov	 rax, QWORD PTR __security_cookie
  00019	48 33 c4	 xor	 rax, rsp
  0001c	48 89 84 24 98
	00 00 00	 mov	 QWORD PTR __$ArrayPad$[rsp], rax

; 636  : int     b2;                             /* Effective addr base       */
; 637  : VADR    effective_addr2;                /* Effective address         */
; 638  : DEVBLK *dev;                            /* -> device block           */
; 639  : BYTE    chpid;                          /* CHPID associated w/lpum   */
; 640  : BYTE    work[32];                       /* Work area                 */
; 641  : static const BYTE msbn[256] = {         /* Most signif. bit# (0 - 7) */
; 642  : /*  0  1  2  3  4  5  6  7  8  9  A  B  C  D  E  F  */
; 643  :     8, 7, 6, 6, 5, 5, 5, 5, 4, 4, 4, 4, 4, 4, 4, 4, /* 0x00 */
; 644  :     3, 3, 3, 3, 3, 3, 3, 3, 3, 3, 3, 3, 3, 3, 3, 3, /* 0x10 */
; 645  :     2, 2, 2, 2, 2, 2, 2, 2, 2, 2, 2, 2, 2, 2, 2, 2, /* 0x20 */
; 646  :     2, 2, 2, 2, 2, 2, 2, 2, 2, 2, 2, 2, 2, 2, 2, 2, /* 0x30 */
; 647  :     1, 1, 1, 1, 1, 1, 1, 1, 1, 1, 1, 1, 1, 1, 1, 1, /* 0x40 */
; 648  :     1, 1, 1, 1, 1, 1, 1, 1, 1, 1, 1, 1, 1, 1, 1, 1, /* 0x50 */
; 649  :     1, 1, 1, 1, 1, 1, 1, 1, 1, 1, 1, 1, 1, 1, 1, 1, /* 0x60 */
; 650  :     1, 1, 1, 1, 1, 1, 1, 1, 1, 1, 1, 1, 1, 1, 1, 1, /* 0x70 */
; 651  :     0, 0, 0, 0, 0, 0, 0, 0, 0, 0, 0, 0, 0, 0, 0, 0, /* 0x80 */
; 652  :     0, 0, 0, 0, 0, 0, 0, 0, 0, 0, 0, 0, 0, 0, 0, 0, /* 0x90 */
; 653  :     0, 0, 0, 0, 0, 0, 0, 0, 0, 0, 0, 0, 0, 0, 0, 0, /* 0xA0 */
; 654  :     0, 0, 0, 0, 0, 0, 0, 0, 0, 0, 0, 0, 0, 0, 0, 0, /* 0xB0 */
; 655  :     0, 0, 0, 0, 0, 0, 0, 0, 0, 0, 0, 0, 0, 0, 0, 0, /* 0xC0 */
; 656  :     0, 0, 0, 0, 0, 0, 0, 0, 0, 0, 0, 0, 0, 0, 0, 0, /* 0xD0 */
; 657  :     0, 0, 0, 0, 0, 0, 0, 0, 0, 0, 0, 0, 0, 0, 0, 0, /* 0xE0 */
; 658  :     0, 0, 0, 0, 0, 0, 0, 0, 0, 0, 0, 0, 0, 0, 0, 0, /* 0xF0 */
; 659  : };
; 660  : 
; 661  :     S(inst, regs, b2, effective_addr2);

  00024	48 8b 8c 24 b0
	00 00 00	 mov	 rcx, QWORD PTR inst$[rsp]
  0002c	e8 00 00 00 00	 call	 fetch_fw_noswap
  00031	8b c8		 mov	 ecx, eax
  00033	e8 00 00 00 00	 call	 _byteswap_ulong
  00038	89 44 24 60	 mov	 DWORD PTR temp$1[rsp], eax
  0003c	8b 44 24 60	 mov	 eax, DWORD PTR temp$1[rsp]
  00040	25 ff 0f 00 00	 and	 eax, 4095		; 00000fffH
  00045	8b c0		 mov	 eax, eax
  00047	48 89 44 24 58	 mov	 QWORD PTR effective_addr2$[rsp], rax
  0004c	8b 44 24 60	 mov	 eax, DWORD PTR temp$1[rsp]
  00050	c1 e8 0c	 shr	 eax, 12
  00053	83 e0 0f	 and	 eax, 15
  00056	89 44 24 50	 mov	 DWORD PTR b2$[rsp], eax
  0005a	83 7c 24 50 00	 cmp	 DWORD PTR b2$[rsp], 0
  0005f	74 44		 je	 SHORT $LN17@z900_store
  00061	48 63 44 24 50	 movsxd	 rax, DWORD PTR b2$[rsp]
  00066	48 8b 8c 24 b8
	00 00 00	 mov	 rcx, QWORD PTR regs$[rsp]
  0006e	48 8b 84 c1 80
	02 00 00	 mov	 rax, QWORD PTR [rcx+rax*8+640]
  00076	48 8b 4c 24 58	 mov	 rcx, QWORD PTR effective_addr2$[rsp]
  0007b	48 03 c8	 add	 rcx, rax
  0007e	48 8b c1	 mov	 rax, rcx
  00081	48 89 44 24 58	 mov	 QWORD PTR effective_addr2$[rsp], rax
  00086	48 8b 84 24 b8
	00 00 00	 mov	 rax, QWORD PTR regs$[rsp]
  0008e	48 8b 80 90 00
	00 00		 mov	 rax, QWORD PTR [rax+144]
  00095	48 8b 4c 24 58	 mov	 rcx, QWORD PTR effective_addr2$[rsp]
  0009a	48 23 c8	 and	 rcx, rax
  0009d	48 8b c1	 mov	 rax, rcx
  000a0	48 89 44 24 58	 mov	 QWORD PTR effective_addr2$[rsp], rax
$LN17@z900_store:
$LN4@z900_store:
  000a5	48 8b 84 24 b8
	00 00 00	 mov	 rax, QWORD PTR regs$[rsp]
  000ad	48 8b 40 68	 mov	 rax, QWORD PTR [rax+104]
  000b1	48 83 c0 04	 add	 rax, 4
  000b5	48 8b 8c 24 b8
	00 00 00	 mov	 rcx, QWORD PTR regs$[rsp]
  000bd	48 89 41 68	 mov	 QWORD PTR [rcx+104], rax
  000c1	33 c0		 xor	 eax, eax
  000c3	83 f8 04	 cmp	 eax, 4
  000c6	74 0f		 je	 SHORT $LN18@z900_store
  000c8	48 8b 84 24 b8
	00 00 00	 mov	 rax, QWORD PTR regs$[rsp]
  000d0	c6 80 9a 00 00
	00 04		 mov	 BYTE PTR [rax+154], 4
$LN18@z900_store:
  000d7	33 c0		 xor	 eax, eax
  000d9	85 c0		 test	 eax, eax
  000db	75 c8		 jne	 SHORT $LN4@z900_store

; 662  :     PER_ZEROADDR_XCHECK( regs, b2 );

  000dd	8b 54 24 50	 mov	 edx, DWORD PTR b2$[rsp]
  000e1	48 8b 8c 24 b8
	00 00 00	 mov	 rcx, QWORD PTR regs$[rsp]
  000e9	e8 00 00 00 00	 call	 z900_per3_zero_xcheck
$LN7@z900_store:

; 663  : 
; 664  :     TXF_INSTR_CHECK( regs );

  000ee	48 8b 84 24 b8
	00 00 00	 mov	 rax, QWORD PTR regs$[rsp]
  000f6	0f b6 80 58 0e
	00 00		 movzx	 eax, BYTE PTR [rax+3672]
  000fd	85 c0		 test	 eax, eax
  000ff	74 3f		 je	 SHORT $LN19@z900_store
  00101	48 8b 84 24 b8
	00 00 00	 mov	 rax, QWORD PTR regs$[rsp]
  00109	8b 80 84 af 00
	00		 mov	 eax, DWORD PTR [rax+44932]
  0010f	0f ba e8 0c	 bts	 eax, 12
  00113	48 8b 8c 24 b8
	00 00 00	 mov	 rcx, QWORD PTR regs$[rsp]
  0011b	89 81 84 af 00
	00		 mov	 DWORD PTR [rcx+44932], eax
  00121	4c 8d 0d 00 00
	00 00		 lea	 r9, OFFSET FLAT:$SG195110
  00128	41 b8 0b 00 00
	00		 mov	 r8d, 11
  0012e	ba 02 00 00 00	 mov	 edx, 2
  00133	48 8b 8c 24 b8
	00 00 00	 mov	 rcx, QWORD PTR regs$[rsp]
  0013b	e8 00 00 00 00	 call	 z900_abort_transaction
$LN19@z900_store:
  00140	33 c0		 xor	 eax, eax
  00142	85 c0		 test	 eax, eax
  00144	75 a8		 jne	 SHORT $LN7@z900_store

; 665  :     PRIV_CHECK(regs);

  00146	48 8b 84 24 b8
	00 00 00	 mov	 rax, QWORD PTR regs$[rsp]
  0014e	0f b6 40 7a	 movzx	 eax, BYTE PTR [rax+122]
  00152	83 e0 01	 and	 eax, 1
  00155	85 c0		 test	 eax, eax
  00157	74 1b		 je	 SHORT $LN20@z900_store
  00159	ba 02 00 00 00	 mov	 edx, 2
  0015e	48 8b 8c 24 b8
	00 00 00	 mov	 rcx, QWORD PTR regs$[rsp]
  00166	48 8b 84 24 b8
	00 00 00	 mov	 rax, QWORD PTR regs$[rsp]
  0016e	ff 90 20 0d 00
	00		 call	 QWORD PTR [rax+3360]
$LN20@z900_store:
$LN10@z900_store:

; 666  :     SIE_INTERCEPT(regs);

  00174	48 8b 84 24 b8
	00 00 00	 mov	 rax, QWORD PTR regs$[rsp]
  0017c	8b 80 c8 08 00
	00		 mov	 eax, DWORD PTR [rax+2248]
  00182	d1 e8		 shr	 eax, 1
  00184	83 e0 01	 and	 eax, 1
  00187	85 c0		 test	 eax, eax
  00189	74 1b		 je	 SHORT $LN21@z900_store
  0018b	48 8b 84 24 b8
	00 00 00	 mov	 rax, QWORD PTR regs$[rsp]
  00193	48 05 80 09 00
	00		 add	 rax, 2432		; 00000980H
  00199	ba fc ff ff ff	 mov	 edx, -4
  0019e	48 8b c8	 mov	 rcx, rax
  001a1	e8 00 00 00 00	 call	 longjmp
$LN21@z900_store:
  001a6	33 c0		 xor	 eax, eax
  001a8	85 c0		 test	 eax, eax
  001aa	75 c8		 jne	 SHORT $LN10@z900_store
$LN13@z900_store:

; 667  : 
; 668  :     PTIO_CH( IO, "STCPS", 0 );

  001ac	48 8b 05 00 00
	00 00		 mov	 rax, QWORD PTR __imp_pttclass
  001b3	48 8b 00	 mov	 rax, QWORD PTR [rax]
  001b6	48 25 00 02 00
	00		 and	 rax, 512		; 00000200H
  001bc	48 85 c0	 test	 rax, rax
  001bf	74 52		 je	 SHORT $LN22@z900_store
  001c1	48 8b 84 24 b8
	00 00 00	 mov	 rax, QWORD PTR regs$[rsp]
  001c9	8b 80 88 00 00
	00		 mov	 eax, DWORD PTR [rax+136]
  001cf	b9 ff ff ff ff	 mov	 ecx, -1			; ffffffffH
  001d4	48 8b 54 24 58	 mov	 rdx, QWORD PTR effective_addr2$[rsp]
  001d9	48 23 d1	 and	 rdx, rcx
  001dc	48 8b ca	 mov	 rcx, rdx
  001df	8b c9		 mov	 ecx, ecx
  001e1	48 c7 44 24 30
	00 00 00 00	 mov	 QWORD PTR [rsp+48], 0
  001ea	48 89 44 24 28	 mov	 QWORD PTR [rsp+40], rax
  001ef	48 8d 05 00 00
	00 00		 lea	 rax, OFFSET FLAT:$SG195114
  001f6	48 89 44 24 20	 mov	 QWORD PTR [rsp+32], rax
  001fb	44 8b c9	 mov	 r9d, ecx
  001fe	45 33 c0	 xor	 r8d, r8d
  00201	48 8d 15 00 00
	00 00		 lea	 rdx, OFFSET FLAT:$SG195115
  00208	b9 00 02 00 00	 mov	 ecx, 512		; 00000200H
  0020d	ff 15 00 00 00
	00		 call	 QWORD PTR __imp_ptt_pthread_trace
$LN22@z900_store:
  00213	33 c0		 xor	 eax, eax
  00215	85 c0		 test	 eax, eax
  00217	75 93		 jne	 SHORT $LN13@z900_store

; 669  : 
; 670  :     /* Program check if operand not on 32 byte boundary */
; 671  :     if ( effective_addr2 & 0x0000001F )

  00219	48 8b 44 24 58	 mov	 rax, QWORD PTR effective_addr2$[rsp]
  0021e	48 83 e0 1f	 and	 rax, 31
  00222	48 85 c0	 test	 rax, rax
  00225	74 12		 je	 SHORT $LN23@z900_store

; 672  :         ARCH_DEP(program_interrupt) (regs, PGM_SPECIFICATION_EXCEPTION);

  00227	ba 06 00 00 00	 mov	 edx, 6
  0022c	48 8b 8c 24 b8
	00 00 00	 mov	 rcx, QWORD PTR regs$[rsp]
  00234	e8 00 00 00 00	 call	 z900_program_interrupt
$LN23@z900_store:

; 673  : 
; 674  :     memset(work, 0, 32);

  00239	48 8d 44 24 78	 lea	 rax, QWORD PTR work$[rsp]
  0023e	48 8b f8	 mov	 rdi, rax
  00241	33 c0		 xor	 eax, eax
  00243	b9 20 00 00 00	 mov	 ecx, 32			; 00000020H
  00248	f3 aa		 rep stosb

; 675  : 
; 676  :     /* Scan DEVBLK chain for busy devices */
; 677  :     for (dev = sysblk.firstdev; dev != NULL; dev = dev->nextdev)

  0024a	48 8b 05 00 00
	00 00		 mov	 rax, QWORD PTR __imp_sysblk
  00251	48 8b 80 c0 11
	00 00		 mov	 rax, QWORD PTR [rax+4544]
  00258	48 89 44 24 48	 mov	 QWORD PTR dev$[rsp], rax
  0025d	eb 0e		 jmp	 SHORT $LN16@z900_store
$LN14@z900_store:
  0025f	48 8b 44 24 48	 mov	 rax, QWORD PTR dev$[rsp]
  00264	48 8b 40 30	 mov	 rax, QWORD PTR [rax+48]
  00268	48 89 44 24 48	 mov	 QWORD PTR dev$[rsp], rax
$LN16@z900_store:
  0026d	48 83 7c 24 48
	00		 cmp	 QWORD PTR dev$[rsp], 0
  00273	0f 84 3e 01 00
	00		 je	 $LN15@z900_store

; 678  :     {
; 679  :         /* Obtain the device lock */
; 680  :         obtain_lock(&dev->lock);

  00279	48 8b 44 24 48	 mov	 rax, QWORD PTR dev$[rsp]
  0027e	48 83 c0 38	 add	 rax, 56			; 00000038H
  00282	48 8d 15 00 00
	00 00		 lea	 rdx, OFFSET FLAT:$SG195117
  00289	48 8b c8	 mov	 rcx, rax
  0028c	ff 15 00 00 00
	00		 call	 QWORD PTR __imp_hthread_obtain_lock

; 681  : 
; 682  :         if (1
; 683  :             &&  dev->allocated                     /* Valid DEVBLK   */
; 684  :             && (dev->pmcw.flag5 & PMCW5_V)         /* Valid device   */
; 685  :             && (dev->pmcw.flag5 & PMCW5_E)         /* Device enabled */
; 686  :             && (dev->scsw.flag3 & SCSW3_AC_SCHAC)  /* Subchan active */
; 687  :             && (dev->scsw.flag3 & SCSW3_AC_DEVAC)  /* Device active  */

  00292	33 c0		 xor	 eax, eax
  00294	83 f8 01	 cmp	 eax, 1
  00297	0f 84 fc 00 00
	00		 je	 $LN24@z900_store
  0029d	48 8b 44 24 48	 mov	 rax, QWORD PTR dev$[rsp]
  002a2	83 78 40 00	 cmp	 DWORD PTR [rax+64], 0
  002a6	0f 84 ed 00 00
	00		 je	 $LN24@z900_store
  002ac	48 8b 44 24 48	 mov	 rax, QWORD PTR dev$[rsp]
  002b1	0f b6 80 f1 02
	00 00		 movzx	 eax, BYTE PTR [rax+753]
  002b8	83 e0 01	 and	 eax, 1
  002bb	85 c0		 test	 eax, eax
  002bd	0f 84 d6 00 00
	00		 je	 $LN24@z900_store
  002c3	48 8b 44 24 48	 mov	 rax, QWORD PTR dev$[rsp]
  002c8	0f b6 80 f1 02
	00 00		 movzx	 eax, BYTE PTR [rax+753]
  002cf	25 80 00 00 00	 and	 eax, 128		; 00000080H
  002d4	85 c0		 test	 eax, eax
  002d6	0f 84 bd 00 00
	00		 je	 $LN24@z900_store
  002dc	48 8b 44 24 48	 mov	 rax, QWORD PTR dev$[rsp]
  002e1	0f b6 80 0b 03
	00 00		 movzx	 eax, BYTE PTR [rax+779]
  002e8	25 80 00 00 00	 and	 eax, 128		; 00000080H
  002ed	85 c0		 test	 eax, eax
  002ef	0f 84 a4 00 00
	00		 je	 $LN24@z900_store
  002f5	48 8b 44 24 48	 mov	 rax, QWORD PTR dev$[rsp]
  002fa	0f b6 80 0b 03
	00 00		 movzx	 eax, BYTE PTR [rax+779]
  00301	83 e0 40	 and	 eax, 64			; 00000040H
  00304	85 c0		 test	 eax, eax
  00306	0f 84 8d 00 00
	00		 je	 $LN24@z900_store

; 688  :            )
; 689  :         {
; 690  :             /* Retrieve active CHPID */
; 691  :             chpid = dev->pmcw.chpid[msbn[dev->pmcw.lpum]];

  0030c	48 8b 44 24 48	 mov	 rax, QWORD PTR dev$[rsp]
  00311	0f b6 80 f6 02
	00 00		 movzx	 eax, BYTE PTR [rax+758]
  00318	48 8d 0d 00 00
	00 00		 lea	 rcx, OFFSET FLAT:?msbn@?1??z900_store_channel_path_status@@9@9
  0031f	0f b6 04 01	 movzx	 eax, BYTE PTR [rcx+rax]
  00323	48 8b 4c 24 48	 mov	 rcx, QWORD PTR dev$[rsp]
  00328	0f b6 84 01 fc
	02 00 00	 movzx	 eax, BYTE PTR [rcx+rax+764]
  00330	88 44 24 40	 mov	 BYTE PTR chpid$[rsp], al

; 692  : 
; 693  :             /* Update channel path status work area */
; 694  :             work[chpid/8] |= 0x80 >> (chpid % 8);

  00334	0f b6 44 24 40	 movzx	 eax, BYTE PTR chpid$[rsp]
  00339	99		 cdq
  0033a	83 e2 07	 and	 edx, 7
  0033d	03 c2		 add	 eax, edx
  0033f	c1 f8 03	 sar	 eax, 3
  00342	48 98		 cdqe
  00344	48 89 44 24 70	 mov	 QWORD PTR tv205[rsp], rax
  00349	0f b6 4c 24 40	 movzx	 ecx, BYTE PTR chpid$[rsp]
  0034e	8b c1		 mov	 eax, ecx
  00350	99		 cdq
  00351	83 e2 07	 and	 edx, 7
  00354	03 c2		 add	 eax, edx
  00356	83 e0 07	 and	 eax, 7
  00359	2b c2		 sub	 eax, edx
  0035b	b9 80 00 00 00	 mov	 ecx, 128		; 00000080H
  00360	89 4c 24 64	 mov	 DWORD PTR tv302[rsp], ecx
  00364	0f b6 c8	 movzx	 ecx, al
  00367	8b 44 24 64	 mov	 eax, DWORD PTR tv302[rsp]
  0036b	d3 f8		 sar	 eax, cl
  0036d	48 8b 4c 24 70	 mov	 rcx, QWORD PTR tv205[rsp]
  00372	0f b6 4c 0c 78	 movzx	 ecx, BYTE PTR work$[rsp+rcx]
  00377	0b c8		 or	 ecx, eax
  00379	8b c1		 mov	 eax, ecx
  0037b	89 44 24 68	 mov	 DWORD PTR tv217[rsp], eax
  0037f	0f b6 4c 24 40	 movzx	 ecx, BYTE PTR chpid$[rsp]
  00384	8b c1		 mov	 eax, ecx
  00386	99		 cdq
  00387	83 e2 07	 and	 edx, 7
  0038a	03 c2		 add	 eax, edx
  0038c	c1 f8 03	 sar	 eax, 3
  0038f	48 98		 cdqe
  00391	8b 4c 24 68	 mov	 ecx, DWORD PTR tv217[rsp]
  00395	88 4c 04 78	 mov	 BYTE PTR work$[rsp+rax], cl
$LN24@z900_store:

; 695  :         }
; 696  : 
; 697  :         /* Release the device lock */
; 698  :         release_lock(&dev->lock);

  00399	48 8b 44 24 48	 mov	 rax, QWORD PTR dev$[rsp]
  0039e	48 83 c0 38	 add	 rax, 56			; 00000038H
  003a2	48 8d 15 00 00
	00 00		 lea	 rdx, OFFSET FLAT:$SG195119
  003a9	48 8b c8	 mov	 rcx, rax
  003ac	ff 15 00 00 00
	00		 call	 QWORD PTR __imp_hthread_release_lock

; 699  :     }

  003b2	e9 a8 fe ff ff	 jmp	 $LN14@z900_store
$LN15@z900_store:

; 700  : 
; 701  :     /* Store channel path status word at operand address */
; 702  :     ARCH_DEP(vstorec) ( work, 32-1, effective_addr2, b2, regs );

  003b7	48 8b 84 24 b8
	00 00 00	 mov	 rax, QWORD PTR regs$[rsp]
  003bf	48 89 44 24 20	 mov	 QWORD PTR [rsp+32], rax
  003c4	44 8b 4c 24 50	 mov	 r9d, DWORD PTR b2$[rsp]
  003c9	4c 8b 44 24 58	 mov	 r8, QWORD PTR effective_addr2$[rsp]
  003ce	b2 1f		 mov	 dl, 31
  003d0	48 8d 4c 24 78	 lea	 rcx, QWORD PTR work$[rsp]
  003d5	e8 00 00 00 00	 call	 z900_vstorec
$LN25@z900_store:

; 703  : }

  003da	48 8b 8c 24 98
	00 00 00	 mov	 rcx, QWORD PTR __$ArrayPad$[rsp]
  003e2	48 33 cc	 xor	 rcx, rsp
  003e5	e8 00 00 00 00	 call	 __security_check_cookie
  003ea	48 81 c4 a0 00
	00 00		 add	 rsp, 160		; 000000a0H
  003f1	5f		 pop	 rdi
  003f2	c3		 ret	 0
z900_store_channel_path_status ENDP
_TEXT	ENDS
; Function compile flags: /Odtp
; File C:\papa\MyGit\hyperion-zvector\io.c
_TEXT	SEGMENT
effective_addr2$ = 64
dev$ = 72
b2$ = 80
temp$1 = 84
orb$ = 88
__$ArrayPad$ = 120
inst$ = 144
regs$ = 152
z900_start_subchannel PROC

; 534  : {

$LN59:
  00000	48 89 54 24 10	 mov	 QWORD PTR [rsp+16], rdx
  00005	48 89 4c 24 08	 mov	 QWORD PTR [rsp+8], rcx
  0000a	48 81 ec 88 00
	00 00		 sub	 rsp, 136		; 00000088H
  00011	48 8b 05 00 00
	00 00		 mov	 rax, QWORD PTR __security_cookie
  00018	48 33 c4	 xor	 rax, rsp
  0001b	48 89 44 24 78	 mov	 QWORD PTR __$ArrayPad$[rsp], rax

; 535  : int     b2;                             /* Effective addr base       */
; 536  : VADR    effective_addr2;                /* Effective address         */
; 537  : DEVBLK* dev;                            /* -> device block           */
; 538  : ORB     orb;                            /* Operation request block   */
; 539  : 
; 540  :     S( inst, regs, b2, effective_addr2 );

  00020	48 8b 8c 24 90
	00 00 00	 mov	 rcx, QWORD PTR inst$[rsp]
  00028	e8 00 00 00 00	 call	 fetch_fw_noswap
  0002d	8b c8		 mov	 ecx, eax
  0002f	e8 00 00 00 00	 call	 _byteswap_ulong
  00034	89 44 24 54	 mov	 DWORD PTR temp$1[rsp], eax
  00038	8b 44 24 54	 mov	 eax, DWORD PTR temp$1[rsp]
  0003c	25 ff 0f 00 00	 and	 eax, 4095		; 00000fffH
  00041	8b c0		 mov	 eax, eax
  00043	48 89 44 24 40	 mov	 QWORD PTR effective_addr2$[rsp], rax
  00048	8b 44 24 54	 mov	 eax, DWORD PTR temp$1[rsp]
  0004c	c1 e8 0c	 shr	 eax, 12
  0004f	83 e0 0f	 and	 eax, 15
  00052	89 44 24 50	 mov	 DWORD PTR b2$[rsp], eax
  00056	83 7c 24 50 00	 cmp	 DWORD PTR b2$[rsp], 0
  0005b	74 44		 je	 SHORT $LN35@z900_start
  0005d	48 63 44 24 50	 movsxd	 rax, DWORD PTR b2$[rsp]
  00062	48 8b 8c 24 98
	00 00 00	 mov	 rcx, QWORD PTR regs$[rsp]
  0006a	48 8b 84 c1 80
	02 00 00	 mov	 rax, QWORD PTR [rcx+rax*8+640]
  00072	48 8b 4c 24 40	 mov	 rcx, QWORD PTR effective_addr2$[rsp]
  00077	48 03 c8	 add	 rcx, rax
  0007a	48 8b c1	 mov	 rax, rcx
  0007d	48 89 44 24 40	 mov	 QWORD PTR effective_addr2$[rsp], rax
  00082	48 8b 84 24 98
	00 00 00	 mov	 rax, QWORD PTR regs$[rsp]
  0008a	48 8b 80 90 00
	00 00		 mov	 rax, QWORD PTR [rax+144]
  00091	48 8b 4c 24 40	 mov	 rcx, QWORD PTR effective_addr2$[rsp]
  00096	48 23 c8	 and	 rcx, rax
  00099	48 8b c1	 mov	 rax, rcx
  0009c	48 89 44 24 40	 mov	 QWORD PTR effective_addr2$[rsp], rax
$LN35@z900_start:
$LN4@z900_start:
  000a1	48 8b 84 24 98
	00 00 00	 mov	 rax, QWORD PTR regs$[rsp]
  000a9	48 8b 40 68	 mov	 rax, QWORD PTR [rax+104]
  000ad	48 83 c0 04	 add	 rax, 4
  000b1	48 8b 8c 24 98
	00 00 00	 mov	 rcx, QWORD PTR regs$[rsp]
  000b9	48 89 41 68	 mov	 QWORD PTR [rcx+104], rax
  000bd	33 c0		 xor	 eax, eax
  000bf	83 f8 04	 cmp	 eax, 4
  000c2	74 0f		 je	 SHORT $LN36@z900_start
  000c4	48 8b 84 24 98
	00 00 00	 mov	 rax, QWORD PTR regs$[rsp]
  000cc	c6 80 9a 00 00
	00 04		 mov	 BYTE PTR [rax+154], 4
$LN36@z900_start:
  000d3	33 c0		 xor	 eax, eax
  000d5	85 c0		 test	 eax, eax
  000d7	75 c8		 jne	 SHORT $LN4@z900_start

; 541  :     PER_ZEROADDR_XCHECK( regs, b2 );

  000d9	8b 54 24 50	 mov	 edx, DWORD PTR b2$[rsp]
  000dd	48 8b 8c 24 98
	00 00 00	 mov	 rcx, QWORD PTR regs$[rsp]
  000e5	e8 00 00 00 00	 call	 z900_per3_zero_xcheck
$LN7@z900_start:

; 542  : 
; 543  :     TXF_INSTR_CHECK( regs );

  000ea	48 8b 84 24 98
	00 00 00	 mov	 rax, QWORD PTR regs$[rsp]
  000f2	0f b6 80 58 0e
	00 00		 movzx	 eax, BYTE PTR [rax+3672]
  000f9	85 c0		 test	 eax, eax
  000fb	74 3f		 je	 SHORT $LN37@z900_start
  000fd	48 8b 84 24 98
	00 00 00	 mov	 rax, QWORD PTR regs$[rsp]
  00105	8b 80 84 af 00
	00		 mov	 eax, DWORD PTR [rax+44932]
  0010b	0f ba e8 0c	 bts	 eax, 12
  0010f	48 8b 8c 24 98
	00 00 00	 mov	 rcx, QWORD PTR regs$[rsp]
  00117	89 81 84 af 00
	00		 mov	 DWORD PTR [rcx+44932], eax
  0011d	4c 8d 0d 00 00
	00 00		 lea	 r9, OFFSET FLAT:$SG195037
  00124	41 b8 0b 00 00
	00		 mov	 r8d, 11
  0012a	ba 02 00 00 00	 mov	 edx, 2
  0012f	48 8b 8c 24 98
	00 00 00	 mov	 rcx, QWORD PTR regs$[rsp]
  00137	e8 00 00 00 00	 call	 z900_abort_transaction
$LN37@z900_start:
  0013c	33 c0		 xor	 eax, eax
  0013e	85 c0		 test	 eax, eax
  00140	75 a8		 jne	 SHORT $LN7@z900_start

; 544  :     PRIV_CHECK( regs );

  00142	48 8b 84 24 98
	00 00 00	 mov	 rax, QWORD PTR regs$[rsp]
  0014a	0f b6 40 7a	 movzx	 eax, BYTE PTR [rax+122]
  0014e	83 e0 01	 and	 eax, 1
  00151	85 c0		 test	 eax, eax
  00153	74 1b		 je	 SHORT $LN38@z900_start
  00155	ba 02 00 00 00	 mov	 edx, 2
  0015a	48 8b 8c 24 98
	00 00 00	 mov	 rcx, QWORD PTR regs$[rsp]
  00162	48 8b 84 24 98
	00 00 00	 mov	 rax, QWORD PTR regs$[rsp]
  0016a	ff 90 20 0d 00
	00		 call	 QWORD PTR [rax+3360]
$LN38@z900_start:
$LN10@z900_start:

; 545  : 
; 546  :     PTIO( IO, "SSCH" );

  00170	48 8b 05 00 00
	00 00		 mov	 rax, QWORD PTR __imp_pttclass
  00177	48 8b 00	 mov	 rax, QWORD PTR [rax]
  0017a	48 25 00 02 00
	00		 and	 rax, 512		; 00000200H
  00180	48 85 c0	 test	 rax, rax
  00183	74 6b		 je	 SHORT $LN39@z900_start
  00185	48 8b 84 24 98
	00 00 00	 mov	 rax, QWORD PTR regs$[rsp]
  0018d	8b 80 88 00 00
	00		 mov	 eax, DWORD PTR [rax+136]
  00193	b9 ff ff ff ff	 mov	 ecx, -1			; ffffffffH
  00198	48 8b 54 24 40	 mov	 rdx, QWORD PTR effective_addr2$[rsp]
  0019d	48 23 d1	 and	 rdx, rcx
  001a0	48 8b ca	 mov	 rcx, rdx
  001a3	8b c9		 mov	 ecx, ecx
  001a5	ba 08 00 00 00	 mov	 edx, 8
  001aa	48 6b d2 01	 imul	 rdx, rdx, 1
  001ae	4c 8b 84 24 98
	00 00 00	 mov	 r8, QWORD PTR regs$[rsp]
  001b6	41 8b 94 10 80
	02 00 00	 mov	 edx, DWORD PTR [r8+rdx+640]
  001be	48 c7 44 24 30
	00 00 00 00	 mov	 QWORD PTR [rsp+48], 0
  001c7	48 89 44 24 28	 mov	 QWORD PTR [rsp+40], rax
  001cc	48 8d 05 00 00
	00 00		 lea	 rax, OFFSET FLAT:$SG195040
  001d3	48 89 44 24 20	 mov	 QWORD PTR [rsp+32], rax
  001d8	44 8b c9	 mov	 r9d, ecx
  001db	44 8b c2	 mov	 r8d, edx
  001de	48 8d 15 00 00
	00 00		 lea	 rdx, OFFSET FLAT:$SG195041
  001e5	b9 00 02 00 00	 mov	 ecx, 512		; 00000200H
  001ea	ff 15 00 00 00
	00		 call	 QWORD PTR __imp_ptt_pthread_trace
$LN39@z900_start:
  001f0	33 c0		 xor	 eax, eax
  001f2	85 c0		 test	 eax, eax
  001f4	0f 85 76 ff ff
	ff		 jne	 $LN10@z900_start

; 547  : 
; 548  : #if defined( _FEATURE_IO_ASSIST )
; 549  :     if (SIE_STATE_BIT_OFF( regs, EC0, IOA ) && !regs->sie_pref)

  001fa	48 8b 84 24 98
	00 00 00	 mov	 rax, QWORD PTR regs$[rsp]
  00202	8b 80 c8 08 00
	00		 mov	 eax, DWORD PTR [rax+2248]
  00208	d1 e8		 shr	 eax, 1
  0020a	83 e0 01	 and	 eax, 1
  0020d	85 c0		 test	 eax, eax
  0020f	0f 84 06 01 00
	00		 je	 $LN40@z900_start
  00215	48 8b 84 24 98
	00 00 00	 mov	 rax, QWORD PTR regs$[rsp]
  0021d	48 8b 80 88 08
	00 00		 mov	 rax, QWORD PTR [rax+2184]
  00224	b9 01 00 00 00	 mov	 ecx, 1
  00229	48 6b c9 00	 imul	 rcx, rcx, 0
  0022d	0f b6 44 08 4c	 movzx	 eax, BYTE PTR [rax+rcx+76]
  00232	83 e0 04	 and	 eax, 4
  00235	85 c0		 test	 eax, eax
  00237	0f 85 de 00 00
	00		 jne	 $LN40@z900_start
  0023d	48 8b 84 24 98
	00 00 00	 mov	 rax, QWORD PTR regs$[rsp]
  00245	8b 80 c8 08 00
	00		 mov	 eax, DWORD PTR [rax+2248]
  0024b	c1 e8 02	 shr	 eax, 2
  0024e	83 e0 01	 and	 eax, 1
  00251	85 c0		 test	 eax, eax
  00253	0f 85 c2 00 00
	00		 jne	 $LN40@z900_start
$LN13@z900_start:

; 550  : #endif
; 551  :     {
; 552  :         PTIO( IO, "SSCH (sie)" );

  00259	48 8b 05 00 00
	00 00		 mov	 rax, QWORD PTR __imp_pttclass
  00260	48 8b 00	 mov	 rax, QWORD PTR [rax]
  00263	48 25 00 02 00
	00		 and	 rax, 512		; 00000200H
  00269	48 85 c0	 test	 rax, rax
  0026c	74 6b		 je	 SHORT $LN41@z900_start
  0026e	48 8b 84 24 98
	00 00 00	 mov	 rax, QWORD PTR regs$[rsp]
  00276	8b 80 88 00 00
	00		 mov	 eax, DWORD PTR [rax+136]
  0027c	b9 ff ff ff ff	 mov	 ecx, -1			; ffffffffH
  00281	48 8b 54 24 40	 mov	 rdx, QWORD PTR effective_addr2$[rsp]
  00286	48 23 d1	 and	 rdx, rcx
  00289	48 8b ca	 mov	 rcx, rdx
  0028c	8b c9		 mov	 ecx, ecx
  0028e	ba 08 00 00 00	 mov	 edx, 8
  00293	48 6b d2 01	 imul	 rdx, rdx, 1
  00297	4c 8b 84 24 98
	00 00 00	 mov	 r8, QWORD PTR regs$[rsp]
  0029f	41 8b 94 10 80
	02 00 00	 mov	 edx, DWORD PTR [r8+rdx+640]
  002a7	48 c7 44 24 30
	00 00 00 00	 mov	 QWORD PTR [rsp+48], 0
  002b0	48 89 44 24 28	 mov	 QWORD PTR [rsp+40], rax
  002b5	48 8d 05 00 00
	00 00		 lea	 rax, OFFSET FLAT:$SG195044
  002bc	48 89 44 24 20	 mov	 QWORD PTR [rsp+32], rax
  002c1	44 8b c9	 mov	 r9d, ecx
  002c4	44 8b c2	 mov	 r8d, edx
  002c7	48 8d 15 00 00
	00 00		 lea	 rdx, OFFSET FLAT:$SG195045
  002ce	b9 00 02 00 00	 mov	 ecx, 512		; 00000200H
  002d3	ff 15 00 00 00
	00		 call	 QWORD PTR __imp_ptt_pthread_trace
$LN41@z900_start:
  002d9	33 c0		 xor	 eax, eax
  002db	85 c0		 test	 eax, eax
  002dd	0f 85 76 ff ff
	ff		 jne	 $LN13@z900_start
$LN16@z900_start:

; 553  :         SIE_INTERCEPT( regs );

  002e3	48 8b 84 24 98
	00 00 00	 mov	 rax, QWORD PTR regs$[rsp]
  002eb	8b 80 c8 08 00
	00		 mov	 eax, DWORD PTR [rax+2248]
  002f1	d1 e8		 shr	 eax, 1
  002f3	83 e0 01	 and	 eax, 1
  002f6	85 c0		 test	 eax, eax
  002f8	74 1b		 je	 SHORT $LN42@z900_start
  002fa	48 8b 84 24 98
	00 00 00	 mov	 rax, QWORD PTR regs$[rsp]
  00302	48 05 80 09 00
	00		 add	 rax, 2432		; 00000980H
  00308	ba fc ff ff ff	 mov	 edx, -4
  0030d	48 8b c8	 mov	 rcx, rax
  00310	e8 00 00 00 00	 call	 longjmp
$LN42@z900_start:
  00315	33 c0		 xor	 eax, eax
  00317	85 c0		 test	 eax, eax
  00319	75 c8		 jne	 SHORT $LN16@z900_start
$LN40@z900_start:

; 554  :     }
; 555  : 
; 556  :     FW_CHECK( effective_addr2, regs );

  0031b	48 8b 44 24 40	 mov	 rax, QWORD PTR effective_addr2$[rsp]
  00320	48 83 e0 03	 and	 rax, 3
  00324	48 85 c0	 test	 rax, rax
  00327	74 1b		 je	 SHORT $LN43@z900_start
  00329	ba 06 00 00 00	 mov	 edx, 6
  0032e	48 8b 8c 24 98
	00 00 00	 mov	 rcx, QWORD PTR regs$[rsp]
  00336	48 8b 84 24 98
	00 00 00	 mov	 rax, QWORD PTR regs$[rsp]
  0033e	ff 90 20 0d 00
	00		 call	 QWORD PTR [rax+3360]
$LN43@z900_start:

; 557  : 
; 558  :     /* Fetch the operation request block */
; 559  :     ARCH_DEP( vfetchc )( &orb, sizeof( ORB )-1, effective_addr2, b2, regs );

  00344	48 8b 84 24 98
	00 00 00	 mov	 rax, QWORD PTR regs$[rsp]
  0034c	48 89 44 24 20	 mov	 QWORD PTR [rsp+32], rax
  00351	44 8b 4c 24 50	 mov	 r9d, DWORD PTR b2$[rsp]
  00356	4c 8b 44 24 40	 mov	 r8, QWORD PTR effective_addr2$[rsp]
  0035b	b2 1f		 mov	 dl, 31
  0035d	48 8d 4c 24 58	 lea	 rcx, QWORD PTR orb$[rsp]
  00362	e8 00 00 00 00	 call	 z900_vfetchc

; 560  : 
; 561  :     /* Program check if reserved bits are not zero */
; 562  :     if (0
; 563  :         || orb.flag5 & ORB5_B /* Fiber Channel Extension (FCX) unsupported */
; 564  :         || orb.flag7 & ORB7_RESV
; 565  :         || orb.ccwaddr[0] & 0x80

  00367	33 c0		 xor	 eax, eax
  00369	85 c0		 test	 eax, eax
  0036b	75 2f		 jne	 SHORT $LN45@z900_start
  0036d	0f b6 44 24 5d	 movzx	 eax, BYTE PTR orb$[rsp+5]
  00372	83 e0 04	 and	 eax, 4
  00375	85 c0		 test	 eax, eax
  00377	75 23		 jne	 SHORT $LN45@z900_start
  00379	0f b6 44 24 5f	 movzx	 eax, BYTE PTR orb$[rsp+7]
  0037e	83 e0 3e	 and	 eax, 62			; 0000003eH
  00381	85 c0		 test	 eax, eax
  00383	75 17		 jne	 SHORT $LN45@z900_start
  00385	b8 01 00 00 00	 mov	 eax, 1
  0038a	48 6b c0 00	 imul	 rax, rax, 0
  0038e	0f b6 44 04 60	 movzx	 eax, BYTE PTR orb$[rsp+rax+8]
  00393	25 80 00 00 00	 and	 eax, 128		; 00000080H
  00398	85 c0		 test	 eax, eax
  0039a	74 12		 je	 SHORT $LN44@z900_start
$LN45@z900_start:

; 566  :     )
; 567  :         ARCH_DEP( program_interrupt )( regs, PGM_OPERAND_EXCEPTION );

  0039c	ba 15 00 00 00	 mov	 edx, 21
  003a1	48 8b 8c 24 98
	00 00 00	 mov	 rcx, QWORD PTR regs$[rsp]
  003a9	e8 00 00 00 00	 call	 z900_program_interrupt
$LN44@z900_start:

; 568  : 
; 569  : #if !defined( FEATURE_INCORRECT_LENGTH_INDICATION_SUPPRESSION )
; 570  :     /* Program check if incorrect length suppression */
; 571  :     if (orb.flag7 & ORB7_L)
; 572  :         ARCH_DEP( program_interrupt )( regs, PGM_OPERAND_EXCEPTION );
; 573  : #endif
; 574  : 
; 575  : #if !defined( FEATURE_MIDAW_FACILITY )
; 576  :     /* Program check if modified indirect data addressing requested */
; 577  :     if (orb.flag7 & ORB7_D)
; 578  :         ARCH_DEP( program_interrupt )( regs, PGM_OPERAND_EXCEPTION );
; 579  : #endif
; 580  : 
; 581  :     /* Program check if the ssid including lcss is invalid */
; 582  :     SSID_CHECK( regs );

  003ae	b8 08 00 00 00	 mov	 eax, 8
  003b3	48 6b c0 01	 imul	 rax, rax, 1
  003b7	48 8b 8c 24 98
	00 00 00	 mov	 rcx, QWORD PTR regs$[rsp]
  003bf	0f b7 84 01 82
	02 00 00	 movzx	 eax, WORD PTR [rcx+rax+642]
  003c7	83 e0 01	 and	 eax, 1
  003ca	85 c0		 test	 eax, eax
  003cc	74 1e		 je	 SHORT $LN47@z900_start
  003ce	b8 08 00 00 00	 mov	 eax, 8
  003d3	48 6b c0 01	 imul	 rax, rax, 1
  003d7	48 8b 8c 24 98
	00 00 00	 mov	 rcx, QWORD PTR regs$[rsp]
  003df	0f b7 84 01 82
	02 00 00	 movzx	 eax, WORD PTR [rcx+rax+642]
  003e7	83 f8 03	 cmp	 eax, 3
  003ea	7e 1b		 jle	 SHORT $LN46@z900_start
$LN47@z900_start:
  003ec	ba 15 00 00 00	 mov	 edx, 21
  003f1	48 8b 8c 24 98
	00 00 00	 mov	 rcx, QWORD PTR regs$[rsp]
  003f9	48 8b 84 24 98
	00 00 00	 mov	 rax, QWORD PTR regs$[rsp]
  00401	ff 90 20 0d 00
	00		 call	 QWORD PTR [rax+3360]
$LN46@z900_start:

; 583  : 
; 584  :     /* Locate the device block for this subchannel */
; 585  :     dev = find_device_by_subchan( regs->GR_L( 1 ));

  00407	b8 08 00 00 00	 mov	 eax, 8
  0040c	48 6b c0 01	 imul	 rax, rax, 1
  00410	48 8b 8c 24 98
	00 00 00	 mov	 rcx, QWORD PTR regs$[rsp]
  00418	8b 8c 01 80 02
	00 00		 mov	 ecx, DWORD PTR [rcx+rax+640]
  0041f	e8 00 00 00 00	 call	 find_device_by_subchan
  00424	48 89 44 24 48	 mov	 QWORD PTR dev$[rsp], rax

; 586  : 
; 587  :     if (dev)

  00429	48 83 7c 24 48
	00		 cmp	 QWORD PTR dev$[rsp], 0
  0042f	74 5a		 je	 SHORT $LN48@z900_start
$LN19@z900_start:

; 588  :         PTT( PTT_CL_IO, "SSCH (dev)", dev->devnum, 0, 0 );

  00431	48 8b 05 00 00
	00 00		 mov	 rax, QWORD PTR __imp_pttclass
  00438	48 8b 00	 mov	 rax, QWORD PTR [rax]
  0043b	48 25 00 02 00
	00		 and	 rax, 512		; 00000200H
  00441	48 85 c0	 test	 rax, rax
  00444	74 3f		 je	 SHORT $LN49@z900_start
  00446	48 8b 44 24 48	 mov	 rax, QWORD PTR dev$[rsp]
  0044b	0f b7 40 48	 movzx	 eax, WORD PTR [rax+72]
  0044f	48 c7 44 24 30
	00 00 00 00	 mov	 QWORD PTR [rsp+48], 0
  00458	48 c7 44 24 28
	00 00 00 00	 mov	 QWORD PTR [rsp+40], 0
  00461	48 8d 0d 00 00
	00 00		 lea	 rcx, OFFSET FLAT:$SG195054
  00468	48 89 4c 24 20	 mov	 QWORD PTR [rsp+32], rcx
  0046d	45 33 c9	 xor	 r9d, r9d
  00470	44 8b c0	 mov	 r8d, eax
  00473	48 8d 15 00 00
	00 00		 lea	 rdx, OFFSET FLAT:$SG195055
  0047a	b9 00 02 00 00	 mov	 ecx, 512		; 00000200H
  0047f	ff 15 00 00 00
	00		 call	 QWORD PTR __imp_ptt_pthread_trace
$LN49@z900_start:
  00485	33 c0		 xor	 eax, eax
  00487	85 c0		 test	 eax, eax
  00489	75 a6		 jne	 SHORT $LN19@z900_start
$LN48@z900_start:

; 589  : 
; 590  :     /* Condition code 3 if subchannel does not exist,
; 591  :        is not valid, is not enabled, or no path available */
; 592  :     if (0
; 593  :         || !dev
; 594  :         || !(dev->pmcw.flag5 & PMCW5_V)
; 595  :         || !(dev->pmcw.flag5 & PMCW5_E)
; 596  :         || !(orb.lpm & dev->pmcw.pam)

  0048b	33 c0		 xor	 eax, eax
  0048d	85 c0		 test	 eax, eax
  0048f	75 4b		 jne	 SHORT $LN51@z900_start
  00491	48 83 7c 24 48
	00		 cmp	 QWORD PTR dev$[rsp], 0
  00497	74 43		 je	 SHORT $LN51@z900_start
  00499	48 8b 44 24 48	 mov	 rax, QWORD PTR dev$[rsp]
  0049e	0f b6 80 f1 02
	00 00		 movzx	 eax, BYTE PTR [rax+753]
  004a5	83 e0 01	 and	 eax, 1
  004a8	85 c0		 test	 eax, eax
  004aa	74 30		 je	 SHORT $LN51@z900_start
  004ac	48 8b 44 24 48	 mov	 rax, QWORD PTR dev$[rsp]
  004b1	0f b6 80 f1 02
	00 00		 movzx	 eax, BYTE PTR [rax+753]
  004b8	25 80 00 00 00	 and	 eax, 128		; 00000080H
  004bd	85 c0		 test	 eax, eax
  004bf	74 1b		 je	 SHORT $LN51@z900_start
  004c1	0f b6 44 24 5e	 movzx	 eax, BYTE PTR orb$[rsp+6]
  004c6	48 8b 4c 24 48	 mov	 rcx, QWORD PTR dev$[rsp]
  004cb	0f b6 89 fb 02
	00 00		 movzx	 ecx, BYTE PTR [rcx+763]
  004d2	23 c1		 and	 eax, ecx
  004d4	85 c0		 test	 eax, eax
  004d6	0f 85 59 01 00
	00		 jne	 $LN50@z900_start
$LN51@z900_start:
$LN22@z900_start:

; 597  :     )
; 598  :     {
; 599  :         PTIO( ERR, "*SSCH" );

  004dc	48 8b 05 00 00
	00 00		 mov	 rax, QWORD PTR __imp_pttclass
  004e3	48 8b 00	 mov	 rax, QWORD PTR [rax]
  004e6	48 83 e0 10	 and	 rax, 16
  004ea	48 85 c0	 test	 rax, rax
  004ed	74 6b		 je	 SHORT $LN52@z900_start
  004ef	48 8b 84 24 98
	00 00 00	 mov	 rax, QWORD PTR regs$[rsp]
  004f7	8b 80 88 00 00
	00		 mov	 eax, DWORD PTR [rax+136]
  004fd	b9 ff ff ff ff	 mov	 ecx, -1			; ffffffffH
  00502	48 8b 54 24 40	 mov	 rdx, QWORD PTR effective_addr2$[rsp]
  00507	48 23 d1	 and	 rdx, rcx
  0050a	48 8b ca	 mov	 rcx, rdx
  0050d	8b c9		 mov	 ecx, ecx
  0050f	ba 08 00 00 00	 mov	 edx, 8
  00514	48 6b d2 01	 imul	 rdx, rdx, 1
  00518	4c 8b 84 24 98
	00 00 00	 mov	 r8, QWORD PTR regs$[rsp]
  00520	41 8b 94 10 80
	02 00 00	 mov	 edx, DWORD PTR [r8+rdx+640]
  00528	48 c7 44 24 30
	00 00 00 00	 mov	 QWORD PTR [rsp+48], 0
  00531	48 89 44 24 28	 mov	 QWORD PTR [rsp+40], rax
  00536	48 8d 05 00 00
	00 00		 lea	 rax, OFFSET FLAT:$SG195059
  0053d	48 89 44 24 20	 mov	 QWORD PTR [rsp+32], rax
  00542	44 8b c9	 mov	 r9d, ecx
  00545	44 8b c2	 mov	 r8d, edx
  00548	48 8d 15 00 00
	00 00		 lea	 rdx, OFFSET FLAT:$SG195060
  0054f	b9 10 00 00 00	 mov	 ecx, 16
  00554	ff 15 00 00 00
	00		 call	 QWORD PTR __imp_ptt_pthread_trace
$LN52@z900_start:
  0055a	33 c0		 xor	 eax, eax
  0055c	85 c0		 test	 eax, eax
  0055e	0f 85 78 ff ff
	ff		 jne	 $LN22@z900_start
$LN25@z900_start:

; 600  : #if defined( _FEATURE_IO_ASSIST )
; 601  :         PTIO( ERR, "*SSCH (sie)" );

  00564	48 8b 05 00 00
	00 00		 mov	 rax, QWORD PTR __imp_pttclass
  0056b	48 8b 00	 mov	 rax, QWORD PTR [rax]
  0056e	48 83 e0 10	 and	 rax, 16
  00572	48 85 c0	 test	 rax, rax
  00575	74 6b		 je	 SHORT $LN53@z900_start
  00577	48 8b 84 24 98
	00 00 00	 mov	 rax, QWORD PTR regs$[rsp]
  0057f	8b 80 88 00 00
	00		 mov	 eax, DWORD PTR [rax+136]
  00585	b9 ff ff ff ff	 mov	 ecx, -1			; ffffffffH
  0058a	48 8b 54 24 40	 mov	 rdx, QWORD PTR effective_addr2$[rsp]
  0058f	48 23 d1	 and	 rdx, rcx
  00592	48 8b ca	 mov	 rcx, rdx
  00595	8b c9		 mov	 ecx, ecx
  00597	ba 08 00 00 00	 mov	 edx, 8
  0059c	48 6b d2 01	 imul	 rdx, rdx, 1
  005a0	4c 8b 84 24 98
	00 00 00	 mov	 r8, QWORD PTR regs$[rsp]
  005a8	41 8b 94 10 80
	02 00 00	 mov	 edx, DWORD PTR [r8+rdx+640]
  005b0	48 c7 44 24 30
	00 00 00 00	 mov	 QWORD PTR [rsp+48], 0
  005b9	48 89 44 24 28	 mov	 QWORD PTR [rsp+40], rax
  005be	48 8d 05 00 00
	00 00		 lea	 rax, OFFSET FLAT:$SG195062
  005c5	48 89 44 24 20	 mov	 QWORD PTR [rsp+32], rax
  005ca	44 8b c9	 mov	 r9d, ecx
  005cd	44 8b c2	 mov	 r8d, edx
  005d0	48 8d 15 00 00
	00 00		 lea	 rdx, OFFSET FLAT:$SG195063
  005d7	b9 10 00 00 00	 mov	 ecx, 16
  005dc	ff 15 00 00 00
	00		 call	 QWORD PTR __imp_ptt_pthread_trace
$LN53@z900_start:
  005e2	33 c0		 xor	 eax, eax
  005e4	85 c0		 test	 eax, eax
  005e6	0f 85 78 ff ff
	ff		 jne	 $LN25@z900_start
$LN28@z900_start:

; 602  :         SIE_INTERCEPT( regs );

  005ec	48 8b 84 24 98
	00 00 00	 mov	 rax, QWORD PTR regs$[rsp]
  005f4	8b 80 c8 08 00
	00		 mov	 eax, DWORD PTR [rax+2248]
  005fa	d1 e8		 shr	 eax, 1
  005fc	83 e0 01	 and	 eax, 1
  005ff	85 c0		 test	 eax, eax
  00601	74 1b		 je	 SHORT $LN54@z900_start
  00603	48 8b 84 24 98
	00 00 00	 mov	 rax, QWORD PTR regs$[rsp]
  0060b	48 05 80 09 00
	00		 add	 rax, 2432		; 00000980H
  00611	ba fc ff ff ff	 mov	 edx, -4
  00616	48 8b c8	 mov	 rcx, rax
  00619	e8 00 00 00 00	 call	 longjmp
$LN54@z900_start:
  0061e	33 c0		 xor	 eax, eax
  00620	85 c0		 test	 eax, eax
  00622	75 c8		 jne	 SHORT $LN28@z900_start

; 603  : #endif
; 604  :         regs->psw.cc = 3;

  00624	48 8b 84 24 98
	00 00 00	 mov	 rax, QWORD PTR regs$[rsp]
  0062c	c6 40 7c 03	 mov	 BYTE PTR [rax+124], 3

; 605  :         return;

  00630	e9 0e 01 00 00	 jmp	 $LN1@z900_start
$LN50@z900_start:

; 606  :     }
; 607  : 
; 608  :     /* Perform serialization and checkpoint-synchronization */
; 609  :     PERFORM_SERIALIZATION( regs );

  00635	0f ae f0	 mfence
$LN31@z900_start:

; 610  :     PERFORM_CHKPT_SYNC( regs );

  00638	33 c0		 xor	 eax, eax
  0063a	85 c0		 test	 eax, eax
  0063c	75 fa		 jne	 SHORT $LN31@z900_start

; 611  : 
; 612  :     /* Clear the path not operational mask */
; 613  :     dev->pmcw.pnom = 0;

  0063e	48 8b 44 24 48	 mov	 rax, QWORD PTR dev$[rsp]
  00643	c6 80 f5 02 00
	00 00		 mov	 BYTE PTR [rax+757], 0

; 614  : 
; 615  :     /* Copy the logical path mask */
; 616  :     dev->pmcw.lpm = orb.lpm;

  0064a	48 8b 44 24 48	 mov	 rax, QWORD PTR dev$[rsp]
  0064f	0f b6 4c 24 5e	 movzx	 ecx, BYTE PTR orb$[rsp+6]
  00654	88 88 f4 02 00
	00		 mov	 BYTE PTR [rax+756], cl

; 617  : 
; 618  :     /* Start the channel program and set the condition code */
; 619  :     regs->psw.cc = ARCH_DEP( startio )( regs, dev, &orb );

  0065a	4c 8d 44 24 58	 lea	 r8, QWORD PTR orb$[rsp]
  0065f	48 8b 54 24 48	 mov	 rdx, QWORD PTR dev$[rsp]
  00664	48 8b 8c 24 98
	00 00 00	 mov	 rcx, QWORD PTR regs$[rsp]
  0066c	e8 00 00 00 00	 call	 z900_startio
  00671	48 8b 8c 24 98
	00 00 00	 mov	 rcx, QWORD PTR regs$[rsp]
  00679	88 41 7c	 mov	 BYTE PTR [rcx+124], al

; 620  : 
; 621  :     regs->siocount++;

  0067c	48 8b 84 24 98
	00 00 00	 mov	 rax, QWORD PTR regs$[rsp]
  00684	8b 80 a0 07 00
	00		 mov	 eax, DWORD PTR [rax+1952]
  0068a	ff c0		 inc	 eax
  0068c	48 8b 8c 24 98
	00 00 00	 mov	 rcx, QWORD PTR regs$[rsp]
  00694	89 81 a0 07 00
	00		 mov	 DWORD PTR [rcx+1952], eax

; 622  : 
; 623  :     /* Set the last path used mask */
; 624  :     if (regs->psw.cc == 0)

  0069a	48 8b 84 24 98
	00 00 00	 mov	 rax, QWORD PTR regs$[rsp]
  006a2	0f b6 40 7c	 movzx	 eax, BYTE PTR [rax+124]
  006a6	85 c0		 test	 eax, eax
  006a8	75 11		 jne	 SHORT $LN55@z900_start

; 625  :         dev->pmcw.lpum = 0x80;

  006aa	48 8b 44 24 48	 mov	 rax, QWORD PTR dev$[rsp]
  006af	c6 80 f6 02 00
	00 80		 mov	 BYTE PTR [rax+758], 128	; 00000080H
  006b6	e9 88 00 00 00	 jmp	 $LN56@z900_start
$LN55@z900_start:
$LN34@z900_start:

; 626  :     else
; 627  :         PTIO( ERR, "*SSCH" );

  006bb	48 8b 05 00 00
	00 00		 mov	 rax, QWORD PTR __imp_pttclass
  006c2	48 8b 00	 mov	 rax, QWORD PTR [rax]
  006c5	48 83 e0 10	 and	 rax, 16
  006c9	48 85 c0	 test	 rax, rax
  006cc	74 6b		 je	 SHORT $LN57@z900_start
  006ce	48 8b 84 24 98
	00 00 00	 mov	 rax, QWORD PTR regs$[rsp]
  006d6	8b 80 88 00 00
	00		 mov	 eax, DWORD PTR [rax+136]
  006dc	b9 ff ff ff ff	 mov	 ecx, -1			; ffffffffH
  006e1	48 8b 54 24 40	 mov	 rdx, QWORD PTR effective_addr2$[rsp]
  006e6	48 23 d1	 and	 rdx, rcx
  006e9	48 8b ca	 mov	 rcx, rdx
  006ec	8b c9		 mov	 ecx, ecx
  006ee	ba 08 00 00 00	 mov	 edx, 8
  006f3	48 6b d2 01	 imul	 rdx, rdx, 1
  006f7	4c 8b 84 24 98
	00 00 00	 mov	 r8, QWORD PTR regs$[rsp]
  006ff	41 8b 94 10 80
	02 00 00	 mov	 edx, DWORD PTR [r8+rdx+640]
  00707	48 c7 44 24 30
	00 00 00 00	 mov	 QWORD PTR [rsp+48], 0
  00710	48 89 44 24 28	 mov	 QWORD PTR [rsp+40], rax
  00715	48 8d 05 00 00
	00 00		 lea	 rax, OFFSET FLAT:$SG195068
  0071c	48 89 44 24 20	 mov	 QWORD PTR [rsp+32], rax
  00721	44 8b c9	 mov	 r9d, ecx
  00724	44 8b c2	 mov	 r8d, edx
  00727	48 8d 15 00 00
	00 00		 lea	 rdx, OFFSET FLAT:$SG195069
  0072e	b9 10 00 00 00	 mov	 ecx, 16
  00733	ff 15 00 00 00
	00		 call	 QWORD PTR __imp_ptt_pthread_trace
$LN57@z900_start:
  00739	33 c0		 xor	 eax, eax
  0073b	85 c0		 test	 eax, eax
  0073d	0f 85 78 ff ff
	ff		 jne	 $LN34@z900_start
$LN56@z900_start:
$LN1@z900_start:
$LN58@z900_start:

; 628  : }

  00743	48 8b 4c 24 78	 mov	 rcx, QWORD PTR __$ArrayPad$[rsp]
  00748	48 33 cc	 xor	 rcx, rsp
  0074b	e8 00 00 00 00	 call	 __security_check_cookie
  00750	48 81 c4 88 00
	00 00		 add	 rsp, 136		; 00000088H
  00757	c3		 ret	 0
z900_start_subchannel ENDP
_TEXT	ENDS
; Function compile flags: /Odtp
; File C:\papa\MyGit\hyperion-zvector\io.c
_TEXT	SEGMENT
chpid$ = 64
temp$1 = 68
b2$ = 72
tv180 = 76
effective_addr2$ = 80
inst$ = 112
regs$ = 120
z900_reset_channel_path PROC

; 341  : {

$LN27:
  00000	48 89 54 24 10	 mov	 QWORD PTR [rsp+16], rdx
  00005	48 89 4c 24 08	 mov	 QWORD PTR [rsp+8], rcx
  0000a	48 83 ec 68	 sub	 rsp, 104		; 00000068H

; 342  : int     b2;                             /* Base of effective addr    */
; 343  : VADR    effective_addr2;                /* Effective address         */
; 344  : BYTE    chpid;
; 345  : 
; 346  :     S(inst, regs, b2, effective_addr2);

  0000e	48 8b 4c 24 70	 mov	 rcx, QWORD PTR inst$[rsp]
  00013	e8 00 00 00 00	 call	 fetch_fw_noswap
  00018	8b c8		 mov	 ecx, eax
  0001a	e8 00 00 00 00	 call	 _byteswap_ulong
  0001f	89 44 24 44	 mov	 DWORD PTR temp$1[rsp], eax
  00023	8b 44 24 44	 mov	 eax, DWORD PTR temp$1[rsp]
  00027	25 ff 0f 00 00	 and	 eax, 4095		; 00000fffH
  0002c	8b c0		 mov	 eax, eax
  0002e	48 89 44 24 50	 mov	 QWORD PTR effective_addr2$[rsp], rax
  00033	8b 44 24 44	 mov	 eax, DWORD PTR temp$1[rsp]
  00037	c1 e8 0c	 shr	 eax, 12
  0003a	83 e0 0f	 and	 eax, 15
  0003d	89 44 24 48	 mov	 DWORD PTR b2$[rsp], eax
  00041	83 7c 24 48 00	 cmp	 DWORD PTR b2$[rsp], 0
  00046	74 3e		 je	 SHORT $LN17@z900_reset
  00048	48 63 44 24 48	 movsxd	 rax, DWORD PTR b2$[rsp]
  0004d	48 8b 4c 24 78	 mov	 rcx, QWORD PTR regs$[rsp]
  00052	48 8b 84 c1 80
	02 00 00	 mov	 rax, QWORD PTR [rcx+rax*8+640]
  0005a	48 8b 4c 24 50	 mov	 rcx, QWORD PTR effective_addr2$[rsp]
  0005f	48 03 c8	 add	 rcx, rax
  00062	48 8b c1	 mov	 rax, rcx
  00065	48 89 44 24 50	 mov	 QWORD PTR effective_addr2$[rsp], rax
  0006a	48 8b 44 24 78	 mov	 rax, QWORD PTR regs$[rsp]
  0006f	48 8b 80 90 00
	00 00		 mov	 rax, QWORD PTR [rax+144]
  00076	48 8b 4c 24 50	 mov	 rcx, QWORD PTR effective_addr2$[rsp]
  0007b	48 23 c8	 and	 rcx, rax
  0007e	48 8b c1	 mov	 rax, rcx
  00081	48 89 44 24 50	 mov	 QWORD PTR effective_addr2$[rsp], rax
$LN17@z900_reset:
$LN4@z900_reset:
  00086	48 8b 44 24 78	 mov	 rax, QWORD PTR regs$[rsp]
  0008b	48 8b 40 68	 mov	 rax, QWORD PTR [rax+104]
  0008f	48 83 c0 04	 add	 rax, 4
  00093	48 8b 4c 24 78	 mov	 rcx, QWORD PTR regs$[rsp]
  00098	48 89 41 68	 mov	 QWORD PTR [rcx+104], rax
  0009c	33 c0		 xor	 eax, eax
  0009e	83 f8 04	 cmp	 eax, 4
  000a1	74 0c		 je	 SHORT $LN18@z900_reset
  000a3	48 8b 44 24 78	 mov	 rax, QWORD PTR regs$[rsp]
  000a8	c6 80 9a 00 00
	00 04		 mov	 BYTE PTR [rax+154], 4
$LN18@z900_reset:
  000af	33 c0		 xor	 eax, eax
  000b1	85 c0		 test	 eax, eax
  000b3	75 d1		 jne	 SHORT $LN4@z900_reset
$LN7@z900_reset:

; 347  : 
; 348  :     TXF_INSTR_CHECK( regs );

  000b5	48 8b 44 24 78	 mov	 rax, QWORD PTR regs$[rsp]
  000ba	0f b6 80 58 0e
	00 00		 movzx	 eax, BYTE PTR [rax+3672]
  000c1	85 c0		 test	 eax, eax
  000c3	74 36		 je	 SHORT $LN19@z900_reset
  000c5	48 8b 44 24 78	 mov	 rax, QWORD PTR regs$[rsp]
  000ca	8b 80 84 af 00
	00		 mov	 eax, DWORD PTR [rax+44932]
  000d0	0f ba e8 0c	 bts	 eax, 12
  000d4	48 8b 4c 24 78	 mov	 rcx, QWORD PTR regs$[rsp]
  000d9	89 81 84 af 00
	00		 mov	 DWORD PTR [rcx+44932], eax
  000df	4c 8d 0d 00 00
	00 00		 lea	 r9, OFFSET FLAT:$SG194731
  000e6	41 b8 0b 00 00
	00		 mov	 r8d, 11
  000ec	ba 02 00 00 00	 mov	 edx, 2
  000f1	48 8b 4c 24 78	 mov	 rcx, QWORD PTR regs$[rsp]
  000f6	e8 00 00 00 00	 call	 z900_abort_transaction
$LN19@z900_reset:
  000fb	33 c0		 xor	 eax, eax
  000fd	85 c0		 test	 eax, eax
  000ff	75 b4		 jne	 SHORT $LN7@z900_reset

; 349  :     PRIV_CHECK(regs);

  00101	48 8b 44 24 78	 mov	 rax, QWORD PTR regs$[rsp]
  00106	0f b6 40 7a	 movzx	 eax, BYTE PTR [rax+122]
  0010a	83 e0 01	 and	 eax, 1
  0010d	85 c0		 test	 eax, eax
  0010f	74 15		 je	 SHORT $LN20@z900_reset
  00111	ba 02 00 00 00	 mov	 edx, 2
  00116	48 8b 4c 24 78	 mov	 rcx, QWORD PTR regs$[rsp]
  0011b	48 8b 44 24 78	 mov	 rax, QWORD PTR regs$[rsp]
  00120	ff 90 20 0d 00
	00		 call	 QWORD PTR [rax+3360]
$LN20@z900_reset:
$LN10@z900_reset:

; 350  :     SIE_INTERCEPT(regs);

  00126	48 8b 44 24 78	 mov	 rax, QWORD PTR regs$[rsp]
  0012b	8b 80 c8 08 00
	00		 mov	 eax, DWORD PTR [rax+2248]
  00131	d1 e8		 shr	 eax, 1
  00133	83 e0 01	 and	 eax, 1
  00136	85 c0		 test	 eax, eax
  00138	74 18		 je	 SHORT $LN21@z900_reset
  0013a	48 8b 44 24 78	 mov	 rax, QWORD PTR regs$[rsp]
  0013f	48 05 80 09 00
	00		 add	 rax, 2432		; 00000980H
  00145	ba fc ff ff ff	 mov	 edx, -4
  0014a	48 8b c8	 mov	 rcx, rax
  0014d	e8 00 00 00 00	 call	 longjmp
$LN21@z900_reset:
  00152	33 c0		 xor	 eax, eax
  00154	85 c0		 test	 eax, eax
  00156	75 ce		 jne	 SHORT $LN10@z900_reset
$LN13@z900_reset:

; 351  : 
; 352  :     PTIO(IO,"RCHP");

  00158	48 8b 05 00 00
	00 00		 mov	 rax, QWORD PTR __imp_pttclass
  0015f	48 8b 00	 mov	 rax, QWORD PTR [rax]
  00162	48 25 00 02 00
	00		 and	 rax, 512		; 00000200H
  00168	48 85 c0	 test	 rax, rax
  0016b	74 65		 je	 SHORT $LN22@z900_reset
  0016d	48 8b 44 24 78	 mov	 rax, QWORD PTR regs$[rsp]
  00172	8b 80 88 00 00
	00		 mov	 eax, DWORD PTR [rax+136]
  00178	b9 ff ff ff ff	 mov	 ecx, -1			; ffffffffH
  0017d	48 8b 54 24 50	 mov	 rdx, QWORD PTR effective_addr2$[rsp]
  00182	48 23 d1	 and	 rdx, rcx
  00185	48 8b ca	 mov	 rcx, rdx
  00188	8b c9		 mov	 ecx, ecx
  0018a	ba 08 00 00 00	 mov	 edx, 8
  0018f	48 6b d2 01	 imul	 rdx, rdx, 1
  00193	4c 8b 44 24 78	 mov	 r8, QWORD PTR regs$[rsp]
  00198	41 8b 94 10 80
	02 00 00	 mov	 edx, DWORD PTR [r8+rdx+640]
  001a0	48 c7 44 24 30
	00 00 00 00	 mov	 QWORD PTR [rsp+48], 0
  001a9	48 89 44 24 28	 mov	 QWORD PTR [rsp+40], rax
  001ae	48 8d 05 00 00
	00 00		 lea	 rax, OFFSET FLAT:$SG194735
  001b5	48 89 44 24 20	 mov	 QWORD PTR [rsp+32], rax
  001ba	44 8b c9	 mov	 r9d, ecx
  001bd	44 8b c2	 mov	 r8d, edx
  001c0	48 8d 15 00 00
	00 00		 lea	 rdx, OFFSET FLAT:$SG194736
  001c7	b9 00 02 00 00	 mov	 ecx, 512		; 00000200H
  001cc	ff 15 00 00 00
	00		 call	 QWORD PTR __imp_ptt_pthread_trace
$LN22@z900_reset:
  001d2	33 c0		 xor	 eax, eax
  001d4	85 c0		 test	 eax, eax
  001d6	75 80		 jne	 SHORT $LN13@z900_reset

; 353  : 
; 354  :     /* Program check if reg 1 bits 0-23 not zero */
; 355  :     if(regs->GR_L(1) & 0xFFFFFF00)

  001d8	b8 08 00 00 00	 mov	 eax, 8
  001dd	48 6b c0 01	 imul	 rax, rax, 1
  001e1	48 8b 4c 24 78	 mov	 rcx, QWORD PTR regs$[rsp]
  001e6	8b 84 01 80 02
	00 00		 mov	 eax, DWORD PTR [rcx+rax+640]
  001ed	25 00 ff ff ff	 and	 eax, -256		; ffffff00H
  001f2	85 c0		 test	 eax, eax
  001f4	74 0f		 je	 SHORT $LN23@z900_reset

; 356  :         ARCH_DEP(program_interrupt) (regs, PGM_OPERAND_EXCEPTION);

  001f6	ba 15 00 00 00	 mov	 edx, 21
  001fb	48 8b 4c 24 78	 mov	 rcx, QWORD PTR regs$[rsp]
  00200	e8 00 00 00 00	 call	 z900_program_interrupt
$LN23@z900_reset:

; 357  : 
; 358  :     chpid = regs->GR_L(1) & 0xFF;

  00205	b8 08 00 00 00	 mov	 eax, 8
  0020a	48 6b c0 01	 imul	 rax, rax, 1
  0020e	48 8b 4c 24 78	 mov	 rcx, QWORD PTR regs$[rsp]
  00213	8b 84 01 80 02
	00 00		 mov	 eax, DWORD PTR [rcx+rax+640]
  0021a	25 ff 00 00 00	 and	 eax, 255		; 000000ffH
  0021f	88 44 24 40	 mov	 BYTE PTR chpid$[rsp], al

; 359  : 
; 360  :     if((regs->psw.cc = chp_reset(chpid, 1)) != 0)

  00223	ba 01 00 00 00	 mov	 edx, 1
  00228	0f b6 4c 24 40	 movzx	 ecx, BYTE PTR chpid$[rsp]
  0022d	e8 00 00 00 00	 call	 chp_reset
  00232	89 44 24 4c	 mov	 DWORD PTR tv180[rsp], eax
  00236	48 8b 44 24 78	 mov	 rax, QWORD PTR regs$[rsp]
  0023b	0f b6 4c 24 4c	 movzx	 ecx, BYTE PTR tv180[rsp]
  00240	88 48 7c	 mov	 BYTE PTR [rax+124], cl
  00243	0f b6 44 24 4c	 movzx	 eax, BYTE PTR tv180[rsp]
  00248	85 c0		 test	 eax, eax
  0024a	0f 84 96 00 00
	00		 je	 $LN24@z900_reset
$LN16@z900_reset:

; 361  :     {
; 362  :         PTIO(ERR,"*RCHP");

  00250	48 8b 05 00 00
	00 00		 mov	 rax, QWORD PTR __imp_pttclass
  00257	48 8b 00	 mov	 rax, QWORD PTR [rax]
  0025a	48 83 e0 10	 and	 rax, 16
  0025e	48 85 c0	 test	 rax, rax
  00261	74 65		 je	 SHORT $LN25@z900_reset
  00263	48 8b 44 24 78	 mov	 rax, QWORD PTR regs$[rsp]
  00268	8b 80 88 00 00
	00		 mov	 eax, DWORD PTR [rax+136]
  0026e	b9 ff ff ff ff	 mov	 ecx, -1			; ffffffffH
  00273	48 8b 54 24 50	 mov	 rdx, QWORD PTR effective_addr2$[rsp]
  00278	48 23 d1	 and	 rdx, rcx
  0027b	48 8b ca	 mov	 rcx, rdx
  0027e	8b c9		 mov	 ecx, ecx
  00280	ba 08 00 00 00	 mov	 edx, 8
  00285	48 6b d2 01	 imul	 rdx, rdx, 1
  00289	4c 8b 44 24 78	 mov	 r8, QWORD PTR regs$[rsp]
  0028e	41 8b 94 10 80
	02 00 00	 mov	 edx, DWORD PTR [r8+rdx+640]
  00296	48 c7 44 24 30
	00 00 00 00	 mov	 QWORD PTR [rsp+48], 0
  0029f	48 89 44 24 28	 mov	 QWORD PTR [rsp+40], rax
  002a4	48 8d 05 00 00
	00 00		 lea	 rax, OFFSET FLAT:$SG194740
  002ab	48 89 44 24 20	 mov	 QWORD PTR [rsp+32], rax
  002b0	44 8b c9	 mov	 r9d, ecx
  002b3	44 8b c2	 mov	 r8d, edx
  002b6	48 8d 15 00 00
	00 00		 lea	 rdx, OFFSET FLAT:$SG194741
  002bd	b9 10 00 00 00	 mov	 ecx, 16
  002c2	ff 15 00 00 00
	00		 call	 QWORD PTR __imp_ptt_pthread_trace
$LN25@z900_reset:
  002c8	33 c0		 xor	 eax, eax
  002ca	85 c0		 test	 eax, eax
  002cc	75 82		 jne	 SHORT $LN16@z900_reset

; 363  :         RETURN_INTCHECK(regs);

  002ce	48 8b 44 24 78	 mov	 rax, QWORD PTR regs$[rsp]
  002d3	48 05 80 09 00
	00		 add	 rax, 2432		; 00000980H
  002d9	ba ff ff ff ff	 mov	 edx, -1
  002de	48 8b c8	 mov	 rcx, rax
  002e1	e8 00 00 00 00	 call	 longjmp
$LN24@z900_reset:
$LN26@z900_reset:

; 364  :     }
; 365  : }

  002e6	48 83 c4 68	 add	 rsp, 104		; 00000068H
  002ea	c3		 ret	 0
z900_reset_channel_path ENDP
_TEXT	ENDS
; Function compile flags: /Odtp
; File C:\papa\MyGit\hyperion-zvector\io.c
_TEXT	SEGMENT
zone$1 = 64
temp$2 = 68
b2$ = 72
tv281 = 76
effective_addr2$ = 80
inst$ = 112
regs$ = 120
z900_set_channel_monitor PROC

; 453  : {

$LN39:
  00000	48 89 54 24 10	 mov	 QWORD PTR [rsp+16], rdx
  00005	48 89 4c 24 08	 mov	 QWORD PTR [rsp+8], rcx
  0000a	48 83 ec 68	 sub	 rsp, 104		; 00000068H

; 454  : int     b2;                             /* Effective addr base       */
; 455  : VADR    effective_addr2;                /* Effective address         */
; 456  : 
; 457  :     S(inst, regs, b2, effective_addr2);

  0000e	48 8b 4c 24 70	 mov	 rcx, QWORD PTR inst$[rsp]
  00013	e8 00 00 00 00	 call	 fetch_fw_noswap
  00018	8b c8		 mov	 ecx, eax
  0001a	e8 00 00 00 00	 call	 _byteswap_ulong
  0001f	89 44 24 44	 mov	 DWORD PTR temp$2[rsp], eax
  00023	8b 44 24 44	 mov	 eax, DWORD PTR temp$2[rsp]
  00027	25 ff 0f 00 00	 and	 eax, 4095		; 00000fffH
  0002c	8b c0		 mov	 eax, eax
  0002e	48 89 44 24 50	 mov	 QWORD PTR effective_addr2$[rsp], rax
  00033	8b 44 24 44	 mov	 eax, DWORD PTR temp$2[rsp]
  00037	c1 e8 0c	 shr	 eax, 12
  0003a	83 e0 0f	 and	 eax, 15
  0003d	89 44 24 48	 mov	 DWORD PTR b2$[rsp], eax
  00041	83 7c 24 48 00	 cmp	 DWORD PTR b2$[rsp], 0
  00046	74 3e		 je	 SHORT $LN17@z900_set_c
  00048	48 63 44 24 48	 movsxd	 rax, DWORD PTR b2$[rsp]
  0004d	48 8b 4c 24 78	 mov	 rcx, QWORD PTR regs$[rsp]
  00052	48 8b 84 c1 80
	02 00 00	 mov	 rax, QWORD PTR [rcx+rax*8+640]
  0005a	48 8b 4c 24 50	 mov	 rcx, QWORD PTR effective_addr2$[rsp]
  0005f	48 03 c8	 add	 rcx, rax
  00062	48 8b c1	 mov	 rax, rcx
  00065	48 89 44 24 50	 mov	 QWORD PTR effective_addr2$[rsp], rax
  0006a	48 8b 44 24 78	 mov	 rax, QWORD PTR regs$[rsp]
  0006f	48 8b 80 90 00
	00 00		 mov	 rax, QWORD PTR [rax+144]
  00076	48 8b 4c 24 50	 mov	 rcx, QWORD PTR effective_addr2$[rsp]
  0007b	48 23 c8	 and	 rcx, rax
  0007e	48 8b c1	 mov	 rax, rcx
  00081	48 89 44 24 50	 mov	 QWORD PTR effective_addr2$[rsp], rax
$LN17@z900_set_c:
$LN4@z900_set_c:
  00086	48 8b 44 24 78	 mov	 rax, QWORD PTR regs$[rsp]
  0008b	48 8b 40 68	 mov	 rax, QWORD PTR [rax+104]
  0008f	48 83 c0 04	 add	 rax, 4
  00093	48 8b 4c 24 78	 mov	 rcx, QWORD PTR regs$[rsp]
  00098	48 89 41 68	 mov	 QWORD PTR [rcx+104], rax
  0009c	33 c0		 xor	 eax, eax
  0009e	83 f8 04	 cmp	 eax, 4
  000a1	74 0c		 je	 SHORT $LN18@z900_set_c
  000a3	48 8b 44 24 78	 mov	 rax, QWORD PTR regs$[rsp]
  000a8	c6 80 9a 00 00
	00 04		 mov	 BYTE PTR [rax+154], 4
$LN18@z900_set_c:
  000af	33 c0		 xor	 eax, eax
  000b1	85 c0		 test	 eax, eax
  000b3	75 d1		 jne	 SHORT $LN4@z900_set_c
$LN7@z900_set_c:

; 458  : 
; 459  :     TXF_INSTR_CHECK( regs );

  000b5	48 8b 44 24 78	 mov	 rax, QWORD PTR regs$[rsp]
  000ba	0f b6 80 58 0e
	00 00		 movzx	 eax, BYTE PTR [rax+3672]
  000c1	85 c0		 test	 eax, eax
  000c3	74 36		 je	 SHORT $LN19@z900_set_c
  000c5	48 8b 44 24 78	 mov	 rax, QWORD PTR regs$[rsp]
  000ca	8b 80 84 af 00
	00		 mov	 eax, DWORD PTR [rax+44932]
  000d0	0f ba e8 0c	 bts	 eax, 12
  000d4	48 8b 4c 24 78	 mov	 rcx, QWORD PTR regs$[rsp]
  000d9	89 81 84 af 00
	00		 mov	 DWORD PTR [rcx+44932], eax
  000df	4c 8d 0d 00 00
	00 00		 lea	 r9, OFFSET FLAT:$SG194929
  000e6	41 b8 0b 00 00
	00		 mov	 r8d, 11
  000ec	ba 02 00 00 00	 mov	 edx, 2
  000f1	48 8b 4c 24 78	 mov	 rcx, QWORD PTR regs$[rsp]
  000f6	e8 00 00 00 00	 call	 z900_abort_transaction
$LN19@z900_set_c:
  000fb	33 c0		 xor	 eax, eax
  000fd	85 c0		 test	 eax, eax
  000ff	75 b4		 jne	 SHORT $LN7@z900_set_c

; 460  :     PRIV_CHECK(regs);

  00101	48 8b 44 24 78	 mov	 rax, QWORD PTR regs$[rsp]
  00106	0f b6 40 7a	 movzx	 eax, BYTE PTR [rax+122]
  0010a	83 e0 01	 and	 eax, 1
  0010d	85 c0		 test	 eax, eax
  0010f	74 15		 je	 SHORT $LN20@z900_set_c
  00111	ba 02 00 00 00	 mov	 edx, 2
  00116	48 8b 4c 24 78	 mov	 rcx, QWORD PTR regs$[rsp]
  0011b	48 8b 44 24 78	 mov	 rax, QWORD PTR regs$[rsp]
  00120	ff 90 20 0d 00
	00		 call	 QWORD PTR [rax+3360]
$LN20@z900_set_c:

; 461  : 
; 462  : #if defined(_FEATURE_IO_ASSIST)
; 463  :     if(SIE_STATE_BIT_OFF(regs, EC0, IOA) && !regs->sie_pref)

  00126	48 8b 44 24 78	 mov	 rax, QWORD PTR regs$[rsp]
  0012b	8b 80 c8 08 00
	00		 mov	 eax, DWORD PTR [rax+2248]
  00131	d1 e8		 shr	 eax, 1
  00133	83 e0 01	 and	 eax, 1
  00136	85 c0		 test	 eax, eax
  00138	74 68		 je	 SHORT $LN21@z900_set_c
  0013a	48 8b 44 24 78	 mov	 rax, QWORD PTR regs$[rsp]
  0013f	48 8b 80 88 08
	00 00		 mov	 rax, QWORD PTR [rax+2184]
  00146	b9 01 00 00 00	 mov	 ecx, 1
  0014b	48 6b c9 00	 imul	 rcx, rcx, 0
  0014f	0f b6 44 08 4c	 movzx	 eax, BYTE PTR [rax+rcx+76]
  00154	83 e0 04	 and	 eax, 4
  00157	85 c0		 test	 eax, eax
  00159	75 47		 jne	 SHORT $LN21@z900_set_c
  0015b	48 8b 44 24 78	 mov	 rax, QWORD PTR regs$[rsp]
  00160	8b 80 c8 08 00
	00		 mov	 eax, DWORD PTR [rax+2248]
  00166	c1 e8 02	 shr	 eax, 2
  00169	83 e0 01	 and	 eax, 1
  0016c	85 c0		 test	 eax, eax
  0016e	75 32		 jne	 SHORT $LN21@z900_set_c
$LN10@z900_set_c:

; 464  : #endif
; 465  :         SIE_INTERCEPT(regs);

  00170	48 8b 44 24 78	 mov	 rax, QWORD PTR regs$[rsp]
  00175	8b 80 c8 08 00
	00		 mov	 eax, DWORD PTR [rax+2248]
  0017b	d1 e8		 shr	 eax, 1
  0017d	83 e0 01	 and	 eax, 1
  00180	85 c0		 test	 eax, eax
  00182	74 18		 je	 SHORT $LN22@z900_set_c
  00184	48 8b 44 24 78	 mov	 rax, QWORD PTR regs$[rsp]
  00189	48 05 80 09 00
	00		 add	 rax, 2432		; 00000980H
  0018f	ba fc ff ff ff	 mov	 edx, -4
  00194	48 8b c8	 mov	 rcx, rax
  00197	e8 00 00 00 00	 call	 longjmp
$LN22@z900_set_c:
  0019c	33 c0		 xor	 eax, eax
  0019e	85 c0		 test	 eax, eax
  001a0	75 ce		 jne	 SHORT $LN10@z900_set_c
$LN21@z900_set_c:
$LN13@z900_set_c:

; 466  : 
; 467  :     PTIO(IO,"SCHM");

  001a2	48 8b 05 00 00
	00 00		 mov	 rax, QWORD PTR __imp_pttclass
  001a9	48 8b 00	 mov	 rax, QWORD PTR [rax]
  001ac	48 25 00 02 00
	00		 and	 rax, 512		; 00000200H
  001b2	48 85 c0	 test	 rax, rax
  001b5	74 65		 je	 SHORT $LN23@z900_set_c
  001b7	48 8b 44 24 78	 mov	 rax, QWORD PTR regs$[rsp]
  001bc	8b 80 88 00 00
	00		 mov	 eax, DWORD PTR [rax+136]
  001c2	b9 ff ff ff ff	 mov	 ecx, -1			; ffffffffH
  001c7	48 8b 54 24 50	 mov	 rdx, QWORD PTR effective_addr2$[rsp]
  001cc	48 23 d1	 and	 rdx, rcx
  001cf	48 8b ca	 mov	 rcx, rdx
  001d2	8b c9		 mov	 ecx, ecx
  001d4	ba 08 00 00 00	 mov	 edx, 8
  001d9	48 6b d2 01	 imul	 rdx, rdx, 1
  001dd	4c 8b 44 24 78	 mov	 r8, QWORD PTR regs$[rsp]
  001e2	41 8b 94 10 80
	02 00 00	 mov	 edx, DWORD PTR [r8+rdx+640]
  001ea	48 c7 44 24 30
	00 00 00 00	 mov	 QWORD PTR [rsp+48], 0
  001f3	48 89 44 24 28	 mov	 QWORD PTR [rsp+40], rax
  001f8	48 8d 05 00 00
	00 00		 lea	 rax, OFFSET FLAT:$SG194934
  001ff	48 89 44 24 20	 mov	 QWORD PTR [rsp+32], rax
  00204	44 8b c9	 mov	 r9d, ecx
  00207	44 8b c2	 mov	 r8d, edx
  0020a	48 8d 15 00 00
	00 00		 lea	 rdx, OFFSET FLAT:$SG194935
  00211	b9 00 02 00 00	 mov	 ecx, 512		; 00000200H
  00216	ff 15 00 00 00
	00		 call	 QWORD PTR __imp_ptt_pthread_trace
$LN23@z900_set_c:
  0021c	33 c0		 xor	 eax, eax
  0021e	85 c0		 test	 eax, eax
  00220	75 80		 jne	 SHORT $LN13@z900_set_c

; 468  : 
; 469  :     /* Reserved bits in gpr1 must be zero */
; 470  :     if (regs->GR_L(1) & CHM_GPR1_RESV)

  00222	b8 08 00 00 00	 mov	 eax, 8
  00227	48 6b c0 01	 imul	 rax, rax, 1
  0022b	48 8b 4c 24 78	 mov	 rcx, QWORD PTR regs$[rsp]
  00230	8b 84 01 80 02
	00 00		 mov	 eax, DWORD PTR [rcx+rax+640]
  00237	25 fc ff 00 0e	 and	 eax, 234946556		; 0e00fffcH
  0023c	85 c0		 test	 eax, eax
  0023e	74 0f		 je	 SHORT $LN24@z900_set_c

; 471  :         ARCH_DEP(program_interrupt) (regs, PGM_OPERAND_EXCEPTION);

  00240	ba 15 00 00 00	 mov	 edx, 21
  00245	48 8b 4c 24 78	 mov	 rcx, QWORD PTR regs$[rsp]
  0024a	e8 00 00 00 00	 call	 z900_program_interrupt
$LN24@z900_set_c:

; 472  : 
; 473  :     /* Program check if M bit one and gpr2 address not on
; 474  :        a 32 byte boundary or highorder bit set in ESA/390 mode */
; 475  :     if ((regs->GR_L(1) & CHM_GPR1_M)
; 476  :      && (regs->GR_L(2) & CHM_GPR2_RESV))

  0024f	b8 08 00 00 00	 mov	 eax, 8
  00254	48 6b c0 01	 imul	 rax, rax, 1
  00258	48 8b 4c 24 78	 mov	 rcx, QWORD PTR regs$[rsp]
  0025d	8b 84 01 80 02
	00 00		 mov	 eax, DWORD PTR [rcx+rax+640]
  00264	83 e0 02	 and	 eax, 2
  00267	85 c0		 test	 eax, eax
  00269	74 2b		 je	 SHORT $LN25@z900_set_c
  0026b	b8 08 00 00 00	 mov	 eax, 8
  00270	48 6b c0 02	 imul	 rax, rax, 2
  00274	48 8b 4c 24 78	 mov	 rcx, QWORD PTR regs$[rsp]
  00279	8b 84 01 80 02
	00 00		 mov	 eax, DWORD PTR [rcx+rax+640]
  00280	83 e0 1f	 and	 eax, 31
  00283	85 c0		 test	 eax, eax
  00285	74 0f		 je	 SHORT $LN25@z900_set_c

; 477  :         ARCH_DEP(program_interrupt) (regs, PGM_OPERAND_EXCEPTION);

  00287	ba 15 00 00 00	 mov	 edx, 21
  0028c	48 8b 4c 24 78	 mov	 rcx, QWORD PTR regs$[rsp]
  00291	e8 00 00 00 00	 call	 z900_program_interrupt
$LN25@z900_set_c:

; 478  : 
; 479  : #if defined(_FEATURE_IO_ASSIST)
; 480  :     /* Virtual use of I/O Assist features must be intercepted */
; 481  :     if(SIE_MODE(regs)
; 482  :       && ( (regs->GR_L(1) & CHM_GPR1_ZONE)

  00296	48 8b 44 24 78	 mov	 rax, QWORD PTR regs$[rsp]
  0029b	8b 80 c8 08 00
	00		 mov	 eax, DWORD PTR [rax+2248]
  002a1	d1 e8		 shr	 eax, 1
  002a3	83 e0 01	 and	 eax, 1
  002a6	85 c0		 test	 eax, eax
  002a8	74 6e		 je	 SHORT $LN26@z900_set_c
  002aa	b8 08 00 00 00	 mov	 eax, 8
  002af	48 6b c0 01	 imul	 rax, rax, 1
  002b3	48 8b 4c 24 78	 mov	 rcx, QWORD PTR regs$[rsp]
  002b8	8b 84 01 80 02
	00 00		 mov	 eax, DWORD PTR [rcx+rax+640]
  002bf	25 00 00 ff 00	 and	 eax, 16711680		; 00ff0000H
  002c4	85 c0		 test	 eax, eax
  002c6	75 1e		 jne	 SHORT $LN27@z900_set_c
  002c8	b8 08 00 00 00	 mov	 eax, 8
  002cd	48 6b c0 01	 imul	 rax, rax, 1
  002d1	48 8b 4c 24 78	 mov	 rcx, QWORD PTR regs$[rsp]
  002d6	8b 84 01 80 02
	00 00		 mov	 eax, DWORD PTR [rcx+rax+640]
  002dd	25 00 00 00 01	 and	 eax, 16777216		; 01000000H
  002e2	85 c0		 test	 eax, eax
  002e4	74 32		 je	 SHORT $LN26@z900_set_c
$LN27@z900_set_c:
$LN16@z900_set_c:

; 483  :         || (regs->GR_L(1) & CHM_GPR1_A) ))
; 484  :         SIE_INTERCEPT(regs);

  002e6	48 8b 44 24 78	 mov	 rax, QWORD PTR regs$[rsp]
  002eb	8b 80 c8 08 00
	00		 mov	 eax, DWORD PTR [rax+2248]
  002f1	d1 e8		 shr	 eax, 1
  002f3	83 e0 01	 and	 eax, 1
  002f6	85 c0		 test	 eax, eax
  002f8	74 18		 je	 SHORT $LN28@z900_set_c
  002fa	48 8b 44 24 78	 mov	 rax, QWORD PTR regs$[rsp]
  002ff	48 05 80 09 00
	00		 add	 rax, 2432		; 00000980H
  00305	ba fc ff ff ff	 mov	 edx, -4
  0030a	48 8b c8	 mov	 rcx, rax
  0030d	e8 00 00 00 00	 call	 longjmp
$LN28@z900_set_c:
  00312	33 c0		 xor	 eax, eax
  00314	85 c0		 test	 eax, eax
  00316	75 ce		 jne	 SHORT $LN16@z900_set_c
$LN26@z900_set_c:

; 485  : 
; 486  :     /* Zone must be a valid zone number */
; 487  :     if (((regs->GR_L(1) & CHM_GPR1_ZONE) >> 16) >= FEATURE_SIE_MAXZONES)

  00318	b8 08 00 00 00	 mov	 eax, 8
  0031d	48 6b c0 01	 imul	 rax, rax, 1
  00321	48 8b 4c 24 78	 mov	 rcx, QWORD PTR regs$[rsp]
  00326	8b 84 01 80 02
	00 00		 mov	 eax, DWORD PTR [rcx+rax+640]
  0032d	25 00 00 ff 00	 and	 eax, 16711680		; 00ff0000H
  00332	c1 e8 10	 shr	 eax, 16
  00335	83 f8 08	 cmp	 eax, 8
  00338	72 0f		 jb	 SHORT $LN29@z900_set_c

; 488  :         ARCH_DEP(program_interrupt) (regs, PGM_OPERAND_EXCEPTION);

  0033a	ba 15 00 00 00	 mov	 edx, 21
  0033f	48 8b 4c 24 78	 mov	 rcx, QWORD PTR regs$[rsp]
  00344	e8 00 00 00 00	 call	 z900_program_interrupt
$LN29@z900_set_c:

; 489  : 
; 490  :     if(regs->GR_L(1) & CHM_GPR1_A)

  00349	b8 08 00 00 00	 mov	 eax, 8
  0034e	48 6b c0 01	 imul	 rax, rax, 1
  00352	48 8b 4c 24 78	 mov	 rcx, QWORD PTR regs$[rsp]
  00357	8b 84 01 80 02
	00 00		 mov	 eax, DWORD PTR [rcx+rax+640]
  0035e	25 00 00 00 01	 and	 eax, 16777216		; 01000000H
  00363	85 c0		 test	 eax, eax
  00365	0f 84 b8 00 00
	00		 je	 $LN30@z900_set_c

; 491  : #endif /*defined(_FEATURE_IO_ASSIST)*/
; 492  :     {
; 493  :         /* Set the measurement block origin address */
; 494  :         if (regs->GR_L(1) & CHM_GPR1_M)

  0036b	b8 08 00 00 00	 mov	 eax, 8
  00370	48 6b c0 01	 imul	 rax, rax, 1
  00374	48 8b 4c 24 78	 mov	 rcx, QWORD PTR regs$[rsp]
  00379	8b 84 01 80 02
	00 00		 mov	 eax, DWORD PTR [rcx+rax+640]
  00380	83 e0 02	 and	 eax, 2
  00383	85 c0		 test	 eax, eax
  00385	74 61		 je	 SHORT $LN32@z900_set_c

; 495  :         {
; 496  :             sysblk.mbo = regs->GR(2);

  00387	b8 08 00 00 00	 mov	 eax, 8
  0038c	48 6b c0 02	 imul	 rax, rax, 2
  00390	48 8b 0d 00 00
	00 00		 mov	 rcx, QWORD PTR __imp_sysblk
  00397	48 8b 54 24 78	 mov	 rdx, QWORD PTR regs$[rsp]
  0039c	48 8b 84 02 80
	02 00 00	 mov	 rax, QWORD PTR [rdx+rax+640]
  003a4	48 89 81 f0 10
	00 00		 mov	 QWORD PTR [rcx+4336], rax

; 497  :             sysblk.mbk = (regs->GR_L(1) & CHM_GPR1_MBK) >> 24;

  003ab	b8 08 00 00 00	 mov	 eax, 8
  003b0	48 6b c0 01	 imul	 rax, rax, 1
  003b4	48 8b 4c 24 78	 mov	 rcx, QWORD PTR regs$[rsp]
  003b9	8b 84 01 80 02
	00 00		 mov	 eax, DWORD PTR [rcx+rax+640]
  003c0	25 00 00 00 f0	 and	 eax, -268435456		; f0000000H
  003c5	c1 e8 18	 shr	 eax, 24
  003c8	48 8b 0d 00 00
	00 00		 mov	 rcx, QWORD PTR __imp_sysblk
  003cf	88 81 f8 10 00
	00		 mov	 BYTE PTR [rcx+4344], al

; 498  :             sysblk.mbm = 1;

  003d5	48 8b 05 00 00
	00 00		 mov	 rax, QWORD PTR __imp_sysblk
  003dc	c7 80 fc 10 00
	00 01 00 00 00	 mov	 DWORD PTR [rax+4348], 1

; 499  :         }

  003e6	eb 11		 jmp	 SHORT $LN33@z900_set_c
$LN32@z900_set_c:

; 500  :         else
; 501  :             sysblk.mbm = 0;

  003e8	48 8b 05 00 00
	00 00		 mov	 rax, QWORD PTR __imp_sysblk
  003ef	c7 80 fc 10 00
	00 00 00 00 00	 mov	 DWORD PTR [rax+4348], 0
$LN33@z900_set_c:

; 502  : 
; 503  :         sysblk.mbd = regs->GR_L(1) & CHM_GPR1_D;

  003f9	b8 08 00 00 00	 mov	 eax, 8
  003fe	48 6b c0 01	 imul	 rax, rax, 1
  00402	48 8b 4c 24 78	 mov	 rcx, QWORD PTR regs$[rsp]
  00407	8b 84 01 80 02
	00 00		 mov	 eax, DWORD PTR [rcx+rax+640]
  0040e	83 e0 01	 and	 eax, 1
  00411	48 8b 0d 00 00
	00 00		 mov	 rcx, QWORD PTR __imp_sysblk
  00418	89 81 00 11 00
	00		 mov	 DWORD PTR [rcx+4352], eax

; 504  : 
; 505  :     }

  0041e	e9 38 01 00 00	 jmp	 $LN31@z900_set_c
$LN30@z900_set_c:

; 506  : #if defined(_FEATURE_IO_ASSIST)
; 507  :     else
; 508  :     {
; 509  :     int zone = SIE_MODE(regs) ? regs->siebk->zone :

  00423	48 8b 44 24 78	 mov	 rax, QWORD PTR regs$[rsp]
  00428	8b 80 c8 08 00
	00		 mov	 eax, DWORD PTR [rax+2248]
  0042e	d1 e8		 shr	 eax, 1
  00430	83 e0 01	 and	 eax, 1
  00433	85 c0		 test	 eax, eax
  00435	74 16		 je	 SHORT $LN37@z900_set_c
  00437	48 8b 44 24 78	 mov	 rax, QWORD PTR regs$[rsp]
  0043c	48 8b 80 88 08
	00 00		 mov	 rax, QWORD PTR [rax+2184]
  00443	0f b6 40 74	 movzx	 eax, BYTE PTR [rax+116]
  00447	89 44 24 4c	 mov	 DWORD PTR tv281[rsp], eax
  0044b	eb 21		 jmp	 SHORT $LN38@z900_set_c
$LN37@z900_set_c:
  0044d	b8 08 00 00 00	 mov	 eax, 8
  00452	48 6b c0 01	 imul	 rax, rax, 1
  00456	48 8b 4c 24 78	 mov	 rcx, QWORD PTR regs$[rsp]
  0045b	8b 84 01 80 02
	00 00		 mov	 eax, DWORD PTR [rcx+rax+640]
  00462	25 00 00 ff 00	 and	 eax, 16711680		; 00ff0000H
  00467	c1 e8 10	 shr	 eax, 16
  0046a	89 44 24 4c	 mov	 DWORD PTR tv281[rsp], eax
$LN38@z900_set_c:
  0046e	8b 44 24 4c	 mov	 eax, DWORD PTR tv281[rsp]
  00472	89 44 24 40	 mov	 DWORD PTR zone$1[rsp], eax

; 510  :                                ((regs->GR_L(1) & CHM_GPR1_ZONE) >> 16);
; 511  : 
; 512  :         /* Set the measurement block origin address */
; 513  :         if (regs->GR_L(1) & CHM_GPR1_M)

  00476	b8 08 00 00 00	 mov	 eax, 8
  0047b	48 6b c0 01	 imul	 rax, rax, 1
  0047f	48 8b 4c 24 78	 mov	 rcx, QWORD PTR regs$[rsp]
  00484	8b 84 01 80 02
	00 00		 mov	 eax, DWORD PTR [rcx+rax+640]
  0048b	83 e0 02	 and	 eax, 2
  0048e	85 c0		 test	 eax, eax
  00490	74 7f		 je	 SHORT $LN34@z900_set_c

; 514  :         {
; 515  :             sysblk.zpb[zone].mbo = regs->GR(2);

  00492	b8 08 00 00 00	 mov	 eax, 8
  00497	48 6b c0 02	 imul	 rax, rax, 2
  0049b	48 63 4c 24 40	 movsxd	 rcx, DWORD PTR zone$1[rsp]
  004a0	48 6b c9 38	 imul	 rcx, rcx, 56		; 00000038H
  004a4	48 8b 15 00 00
	00 00		 mov	 rdx, QWORD PTR __imp_sysblk
  004ab	4c 8b 44 24 78	 mov	 r8, QWORD PTR regs$[rsp]
  004b0	49 8b 84 00 80
	02 00 00	 mov	 rax, QWORD PTR [r8+rax+640]
  004b8	48 89 84 0a c0
	0e 00 00	 mov	 QWORD PTR [rdx+rcx+3776], rax

; 516  :             sysblk.zpb[zone].mbk = (regs->GR_L(1) & CHM_GPR1_MBK) >> 24;

  004c0	b8 08 00 00 00	 mov	 eax, 8
  004c5	48 6b c0 01	 imul	 rax, rax, 1
  004c9	48 8b 4c 24 78	 mov	 rcx, QWORD PTR regs$[rsp]
  004ce	8b 84 01 80 02
	00 00		 mov	 eax, DWORD PTR [rcx+rax+640]
  004d5	25 00 00 00 f0	 and	 eax, -268435456		; f0000000H
  004da	c1 e8 18	 shr	 eax, 24
  004dd	48 63 4c 24 40	 movsxd	 rcx, DWORD PTR zone$1[rsp]
  004e2	48 6b c9 38	 imul	 rcx, rcx, 56		; 00000038H
  004e6	48 8b 15 00 00
	00 00		 mov	 rdx, QWORD PTR __imp_sysblk
  004ed	88 84 0a c8 0e
	00 00		 mov	 BYTE PTR [rdx+rcx+3784], al

; 517  :             sysblk.zpb[zone].mbm = 1;

  004f4	48 63 44 24 40	 movsxd	 rax, DWORD PTR zone$1[rsp]
  004f9	48 6b c0 38	 imul	 rax, rax, 56		; 00000038H
  004fd	48 8b 0d 00 00
	00 00		 mov	 rcx, QWORD PTR __imp_sysblk
  00504	c7 84 01 cc 0e
	00 00 01 00 00
	00		 mov	 DWORD PTR [rcx+rax+3788], 1

; 518  :         }

  0050f	eb 1b		 jmp	 SHORT $LN35@z900_set_c
$LN34@z900_set_c:

; 519  :         else
; 520  :             sysblk.zpb[zone].mbm = 0;

  00511	48 63 44 24 40	 movsxd	 rax, DWORD PTR zone$1[rsp]
  00516	48 6b c0 38	 imul	 rax, rax, 56		; 00000038H
  0051a	48 8b 0d 00 00
	00 00		 mov	 rcx, QWORD PTR __imp_sysblk
  00521	c7 84 01 cc 0e
	00 00 00 00 00
	00		 mov	 DWORD PTR [rcx+rax+3788], 0
$LN35@z900_set_c:

; 521  : 
; 522  :         sysblk.zpb[zone].mbd = regs->GR_L(1) & CHM_GPR1_D;

  0052c	b8 08 00 00 00	 mov	 eax, 8
  00531	48 6b c0 01	 imul	 rax, rax, 1
  00535	48 8b 4c 24 78	 mov	 rcx, QWORD PTR regs$[rsp]
  0053a	8b 84 01 80 02
	00 00		 mov	 eax, DWORD PTR [rcx+rax+640]
  00541	83 e0 01	 and	 eax, 1
  00544	48 63 4c 24 40	 movsxd	 rcx, DWORD PTR zone$1[rsp]
  00549	48 6b c9 38	 imul	 rcx, rcx, 56		; 00000038H
  0054d	48 8b 15 00 00
	00 00		 mov	 rdx, QWORD PTR __imp_sysblk
  00554	89 84 0a d0 0e
	00 00		 mov	 DWORD PTR [rdx+rcx+3792], eax
$LN31@z900_set_c:
$LN36@z900_set_c:

; 523  : 
; 524  :     }
; 525  : #endif /*defined(_FEATURE_IO_ASSIST)*/
; 526  : 
; 527  : }

  0055b	48 83 c4 68	 add	 rsp, 104		; 00000068H
  0055f	c3		 ret	 0
z900_set_channel_monitor ENDP
_TEXT	ENDS
; Function compile flags: /Odtp
; File C:\papa\MyGit\hyperion-zvector\io.c
_TEXT	SEGMENT
temp$1 = 64
b2$ = 68
effective_addr2$ = 72
inst$ = 96
regs$ = 104
z900_set_address_limit PROC

; 430  : {

$LN23:
  00000	48 89 54 24 10	 mov	 QWORD PTR [rsp+16], rdx
  00005	48 89 4c 24 08	 mov	 QWORD PTR [rsp+8], rcx
  0000a	48 83 ec 58	 sub	 rsp, 88			; 00000058H

; 431  : int     b2;                             /* Effective addr base       */
; 432  : VADR    effective_addr2;                /* Effective address         */
; 433  : 
; 434  :     S(inst, regs, b2, effective_addr2);

  0000e	48 8b 4c 24 60	 mov	 rcx, QWORD PTR inst$[rsp]
  00013	e8 00 00 00 00	 call	 fetch_fw_noswap
  00018	8b c8		 mov	 ecx, eax
  0001a	e8 00 00 00 00	 call	 _byteswap_ulong
  0001f	89 44 24 40	 mov	 DWORD PTR temp$1[rsp], eax
  00023	8b 44 24 40	 mov	 eax, DWORD PTR temp$1[rsp]
  00027	25 ff 0f 00 00	 and	 eax, 4095		; 00000fffH
  0002c	8b c0		 mov	 eax, eax
  0002e	48 89 44 24 48	 mov	 QWORD PTR effective_addr2$[rsp], rax
  00033	8b 44 24 40	 mov	 eax, DWORD PTR temp$1[rsp]
  00037	c1 e8 0c	 shr	 eax, 12
  0003a	83 e0 0f	 and	 eax, 15
  0003d	89 44 24 44	 mov	 DWORD PTR b2$[rsp], eax
  00041	83 7c 24 44 00	 cmp	 DWORD PTR b2$[rsp], 0
  00046	74 3e		 je	 SHORT $LN14@z900_set_a
  00048	48 63 44 24 44	 movsxd	 rax, DWORD PTR b2$[rsp]
  0004d	48 8b 4c 24 68	 mov	 rcx, QWORD PTR regs$[rsp]
  00052	48 8b 84 c1 80
	02 00 00	 mov	 rax, QWORD PTR [rcx+rax*8+640]
  0005a	48 8b 4c 24 48	 mov	 rcx, QWORD PTR effective_addr2$[rsp]
  0005f	48 03 c8	 add	 rcx, rax
  00062	48 8b c1	 mov	 rax, rcx
  00065	48 89 44 24 48	 mov	 QWORD PTR effective_addr2$[rsp], rax
  0006a	48 8b 44 24 68	 mov	 rax, QWORD PTR regs$[rsp]
  0006f	48 8b 80 90 00
	00 00		 mov	 rax, QWORD PTR [rax+144]
  00076	48 8b 4c 24 48	 mov	 rcx, QWORD PTR effective_addr2$[rsp]
  0007b	48 23 c8	 and	 rcx, rax
  0007e	48 8b c1	 mov	 rax, rcx
  00081	48 89 44 24 48	 mov	 QWORD PTR effective_addr2$[rsp], rax
$LN14@z900_set_a:
$LN4@z900_set_a:
  00086	48 8b 44 24 68	 mov	 rax, QWORD PTR regs$[rsp]
  0008b	48 8b 40 68	 mov	 rax, QWORD PTR [rax+104]
  0008f	48 83 c0 04	 add	 rax, 4
  00093	48 8b 4c 24 68	 mov	 rcx, QWORD PTR regs$[rsp]
  00098	48 89 41 68	 mov	 QWORD PTR [rcx+104], rax
  0009c	33 c0		 xor	 eax, eax
  0009e	83 f8 04	 cmp	 eax, 4
  000a1	74 0c		 je	 SHORT $LN15@z900_set_a
  000a3	48 8b 44 24 68	 mov	 rax, QWORD PTR regs$[rsp]
  000a8	c6 80 9a 00 00
	00 04		 mov	 BYTE PTR [rax+154], 4
$LN15@z900_set_a:
  000af	33 c0		 xor	 eax, eax
  000b1	85 c0		 test	 eax, eax
  000b3	75 d1		 jne	 SHORT $LN4@z900_set_a
$LN7@z900_set_a:

; 435  : 
; 436  :     TXF_INSTR_CHECK( regs );

  000b5	48 8b 44 24 68	 mov	 rax, QWORD PTR regs$[rsp]
  000ba	0f b6 80 58 0e
	00 00		 movzx	 eax, BYTE PTR [rax+3672]
  000c1	85 c0		 test	 eax, eax
  000c3	74 36		 je	 SHORT $LN16@z900_set_a
  000c5	48 8b 44 24 68	 mov	 rax, QWORD PTR regs$[rsp]
  000ca	8b 80 84 af 00
	00		 mov	 eax, DWORD PTR [rax+44932]
  000d0	0f ba e8 0c	 bts	 eax, 12
  000d4	48 8b 4c 24 68	 mov	 rcx, QWORD PTR regs$[rsp]
  000d9	89 81 84 af 00
	00		 mov	 DWORD PTR [rcx+44932], eax
  000df	4c 8d 0d 00 00
	00 00		 lea	 r9, OFFSET FLAT:$SG194886
  000e6	41 b8 0b 00 00
	00		 mov	 r8d, 11
  000ec	ba 02 00 00 00	 mov	 edx, 2
  000f1	48 8b 4c 24 68	 mov	 rcx, QWORD PTR regs$[rsp]
  000f6	e8 00 00 00 00	 call	 z900_abort_transaction
$LN16@z900_set_a:
  000fb	33 c0		 xor	 eax, eax
  000fd	85 c0		 test	 eax, eax
  000ff	75 b4		 jne	 SHORT $LN7@z900_set_a

; 437  :     PRIV_CHECK(regs);

  00101	48 8b 44 24 68	 mov	 rax, QWORD PTR regs$[rsp]
  00106	0f b6 40 7a	 movzx	 eax, BYTE PTR [rax+122]
  0010a	83 e0 01	 and	 eax, 1
  0010d	85 c0		 test	 eax, eax
  0010f	74 15		 je	 SHORT $LN17@z900_set_a
  00111	ba 02 00 00 00	 mov	 edx, 2
  00116	48 8b 4c 24 68	 mov	 rcx, QWORD PTR regs$[rsp]
  0011b	48 8b 44 24 68	 mov	 rax, QWORD PTR regs$[rsp]
  00120	ff 90 20 0d 00
	00		 call	 QWORD PTR [rax+3360]
$LN17@z900_set_a:
$LN10@z900_set_a:

; 438  :     SIE_INTERCEPT(regs);

  00126	48 8b 44 24 68	 mov	 rax, QWORD PTR regs$[rsp]
  0012b	8b 80 c8 08 00
	00		 mov	 eax, DWORD PTR [rax+2248]
  00131	d1 e8		 shr	 eax, 1
  00133	83 e0 01	 and	 eax, 1
  00136	85 c0		 test	 eax, eax
  00138	74 18		 je	 SHORT $LN18@z900_set_a
  0013a	48 8b 44 24 68	 mov	 rax, QWORD PTR regs$[rsp]
  0013f	48 05 80 09 00
	00		 add	 rax, 2432		; 00000980H
  00145	ba fc ff ff ff	 mov	 edx, -4
  0014a	48 8b c8	 mov	 rcx, rax
  0014d	e8 00 00 00 00	 call	 longjmp
$LN18@z900_set_a:
  00152	33 c0		 xor	 eax, eax
  00154	85 c0		 test	 eax, eax
  00156	75 ce		 jne	 SHORT $LN10@z900_set_a
$LN13@z900_set_a:

; 439  : 
; 440  :     PTIO(IO,"SAL");

  00158	48 8b 05 00 00
	00 00		 mov	 rax, QWORD PTR __imp_pttclass
  0015f	48 8b 00	 mov	 rax, QWORD PTR [rax]
  00162	48 25 00 02 00
	00		 and	 rax, 512		; 00000200H
  00168	48 85 c0	 test	 rax, rax
  0016b	74 65		 je	 SHORT $LN19@z900_set_a
  0016d	48 8b 44 24 68	 mov	 rax, QWORD PTR regs$[rsp]
  00172	8b 80 88 00 00
	00		 mov	 eax, DWORD PTR [rax+136]
  00178	b9 ff ff ff ff	 mov	 ecx, -1			; ffffffffH
  0017d	48 8b 54 24 48	 mov	 rdx, QWORD PTR effective_addr2$[rsp]
  00182	48 23 d1	 and	 rdx, rcx
  00185	48 8b ca	 mov	 rcx, rdx
  00188	8b c9		 mov	 ecx, ecx
  0018a	ba 08 00 00 00	 mov	 edx, 8
  0018f	48 6b d2 01	 imul	 rdx, rdx, 1
  00193	4c 8b 44 24 68	 mov	 r8, QWORD PTR regs$[rsp]
  00198	41 8b 94 10 80
	02 00 00	 mov	 edx, DWORD PTR [r8+rdx+640]
  001a0	48 c7 44 24 30
	00 00 00 00	 mov	 QWORD PTR [rsp+48], 0
  001a9	48 89 44 24 28	 mov	 QWORD PTR [rsp+40], rax
  001ae	48 8d 05 00 00
	00 00		 lea	 rax, OFFSET FLAT:$SG194890
  001b5	48 89 44 24 20	 mov	 QWORD PTR [rsp+32], rax
  001ba	44 8b c9	 mov	 r9d, ecx
  001bd	44 8b c2	 mov	 r8d, edx
  001c0	48 8d 15 00 00
	00 00		 lea	 rdx, OFFSET FLAT:$SG194891
  001c7	b9 00 02 00 00	 mov	 ecx, 512		; 00000200H
  001cc	ff 15 00 00 00
	00		 call	 QWORD PTR __imp_ptt_pthread_trace
$LN19@z900_set_a:
  001d2	33 c0		 xor	 eax, eax
  001d4	85 c0		 test	 eax, eax
  001d6	75 80		 jne	 SHORT $LN13@z900_set_a

; 441  : 
; 442  :     if(regs->GR_L(1) & 0x8000FFFF)

  001d8	b8 08 00 00 00	 mov	 eax, 8
  001dd	48 6b c0 01	 imul	 rax, rax, 1
  001e1	48 8b 4c 24 68	 mov	 rcx, QWORD PTR regs$[rsp]
  001e6	8b 84 01 80 02
	00 00		 mov	 eax, DWORD PTR [rcx+rax+640]
  001ed	25 ff ff 00 80	 and	 eax, -2147418113	; 8000ffffH
  001f2	85 c0		 test	 eax, eax
  001f4	74 11		 je	 SHORT $LN20@z900_set_a

; 443  :         ARCH_DEP(program_interrupt) (regs, PGM_OPERAND_EXCEPTION);

  001f6	ba 15 00 00 00	 mov	 edx, 21
  001fb	48 8b 4c 24 68	 mov	 rcx, QWORD PTR regs$[rsp]
  00200	e8 00 00 00 00	 call	 z900_program_interrupt
  00205	eb 23		 jmp	 SHORT $LN21@z900_set_a
$LN20@z900_set_a:

; 444  :     else
; 445  :         sysblk.addrlimval = regs->GR_L(1);

  00207	b8 08 00 00 00	 mov	 eax, 8
  0020c	48 6b c0 01	 imul	 rax, rax, 1
  00210	48 8b 4c 24 68	 mov	 rcx, QWORD PTR regs$[rsp]
  00215	8b 84 01 80 02
	00 00		 mov	 eax, DWORD PTR [rcx+rax+640]
  0021c	48 8b 0d 00 00
	00 00		 mov	 rcx, QWORD PTR __imp_sysblk
  00223	48 89 81 60 12
	00 00		 mov	 QWORD PTR [rcx+4704], rax
$LN21@z900_set_a:
$LN22@z900_set_a:

; 446  : }

  0022a	48 83 c4 58	 add	 rsp, 88			; 00000058H
  0022e	c3		 ret	 0
z900_set_address_limit ENDP
_TEXT	ENDS
; Function compile flags: /Odtp
; File C:\papa\MyGit\hyperion-zvector\io.c
_TEXT	SEGMENT
temp$1 = 64
b2$ = 68
tv295 = 72
effective_addr2$ = 80
dev$ = 88
inst$ = 112
regs$ = 120
z900_resume_subchannel PROC

; 372  : {

$LN52:
  00000	48 89 54 24 10	 mov	 QWORD PTR [rsp+16], rdx
  00005	48 89 4c 24 08	 mov	 QWORD PTR [rsp+8], rcx
  0000a	48 83 ec 68	 sub	 rsp, 104		; 00000068H

; 373  : int     b2;                             /* Effective addr base       */
; 374  : VADR    effective_addr2;                /* Effective address         */
; 375  : DEVBLK* dev;                            /* -> device block           */
; 376  : 
; 377  :     S( inst, regs, b2, effective_addr2 );

  0000e	48 8b 4c 24 70	 mov	 rcx, QWORD PTR inst$[rsp]
  00013	e8 00 00 00 00	 call	 fetch_fw_noswap
  00018	8b c8		 mov	 ecx, eax
  0001a	e8 00 00 00 00	 call	 _byteswap_ulong
  0001f	89 44 24 40	 mov	 DWORD PTR temp$1[rsp], eax
  00023	8b 44 24 40	 mov	 eax, DWORD PTR temp$1[rsp]
  00027	25 ff 0f 00 00	 and	 eax, 4095		; 00000fffH
  0002c	8b c0		 mov	 eax, eax
  0002e	48 89 44 24 50	 mov	 QWORD PTR effective_addr2$[rsp], rax
  00033	8b 44 24 40	 mov	 eax, DWORD PTR temp$1[rsp]
  00037	c1 e8 0c	 shr	 eax, 12
  0003a	83 e0 0f	 and	 eax, 15
  0003d	89 44 24 44	 mov	 DWORD PTR b2$[rsp], eax
  00041	83 7c 24 44 00	 cmp	 DWORD PTR b2$[rsp], 0
  00046	74 3e		 je	 SHORT $LN32@z900_resum
  00048	48 63 44 24 44	 movsxd	 rax, DWORD PTR b2$[rsp]
  0004d	48 8b 4c 24 78	 mov	 rcx, QWORD PTR regs$[rsp]
  00052	48 8b 84 c1 80
	02 00 00	 mov	 rax, QWORD PTR [rcx+rax*8+640]
  0005a	48 8b 4c 24 50	 mov	 rcx, QWORD PTR effective_addr2$[rsp]
  0005f	48 03 c8	 add	 rcx, rax
  00062	48 8b c1	 mov	 rax, rcx
  00065	48 89 44 24 50	 mov	 QWORD PTR effective_addr2$[rsp], rax
  0006a	48 8b 44 24 78	 mov	 rax, QWORD PTR regs$[rsp]
  0006f	48 8b 80 90 00
	00 00		 mov	 rax, QWORD PTR [rax+144]
  00076	48 8b 4c 24 50	 mov	 rcx, QWORD PTR effective_addr2$[rsp]
  0007b	48 23 c8	 and	 rcx, rax
  0007e	48 8b c1	 mov	 rax, rcx
  00081	48 89 44 24 50	 mov	 QWORD PTR effective_addr2$[rsp], rax
$LN32@z900_resum:
$LN4@z900_resum:
  00086	48 8b 44 24 78	 mov	 rax, QWORD PTR regs$[rsp]
  0008b	48 8b 40 68	 mov	 rax, QWORD PTR [rax+104]
  0008f	48 83 c0 04	 add	 rax, 4
  00093	48 8b 4c 24 78	 mov	 rcx, QWORD PTR regs$[rsp]
  00098	48 89 41 68	 mov	 QWORD PTR [rcx+104], rax
  0009c	33 c0		 xor	 eax, eax
  0009e	83 f8 04	 cmp	 eax, 4
  000a1	74 0c		 je	 SHORT $LN33@z900_resum
  000a3	48 8b 44 24 78	 mov	 rax, QWORD PTR regs$[rsp]
  000a8	c6 80 9a 00 00
	00 04		 mov	 BYTE PTR [rax+154], 4
$LN33@z900_resum:
  000af	33 c0		 xor	 eax, eax
  000b1	85 c0		 test	 eax, eax
  000b3	75 d1		 jne	 SHORT $LN4@z900_resum
$LN7@z900_resum:

; 378  : 
; 379  :     TXF_INSTR_CHECK( regs );

  000b5	48 8b 44 24 78	 mov	 rax, QWORD PTR regs$[rsp]
  000ba	0f b6 80 58 0e
	00 00		 movzx	 eax, BYTE PTR [rax+3672]
  000c1	85 c0		 test	 eax, eax
  000c3	74 36		 je	 SHORT $LN34@z900_resum
  000c5	48 8b 44 24 78	 mov	 rax, QWORD PTR regs$[rsp]
  000ca	8b 80 84 af 00
	00		 mov	 eax, DWORD PTR [rax+44932]
  000d0	0f ba e8 0c	 bts	 eax, 12
  000d4	48 8b 4c 24 78	 mov	 rcx, QWORD PTR regs$[rsp]
  000d9	89 81 84 af 00
	00		 mov	 DWORD PTR [rcx+44932], eax
  000df	4c 8d 0d 00 00
	00 00		 lea	 r9, OFFSET FLAT:$SG194826
  000e6	41 b8 0b 00 00
	00		 mov	 r8d, 11
  000ec	ba 02 00 00 00	 mov	 edx, 2
  000f1	48 8b 4c 24 78	 mov	 rcx, QWORD PTR regs$[rsp]
  000f6	e8 00 00 00 00	 call	 z900_abort_transaction
$LN34@z900_resum:
  000fb	33 c0		 xor	 eax, eax
  000fd	85 c0		 test	 eax, eax
  000ff	75 b4		 jne	 SHORT $LN7@z900_resum

; 380  :     PRIV_CHECK( regs );

  00101	48 8b 44 24 78	 mov	 rax, QWORD PTR regs$[rsp]
  00106	0f b6 40 7a	 movzx	 eax, BYTE PTR [rax+122]
  0010a	83 e0 01	 and	 eax, 1
  0010d	85 c0		 test	 eax, eax
  0010f	74 15		 je	 SHORT $LN35@z900_resum
  00111	ba 02 00 00 00	 mov	 edx, 2
  00116	48 8b 4c 24 78	 mov	 rcx, QWORD PTR regs$[rsp]
  0011b	48 8b 44 24 78	 mov	 rax, QWORD PTR regs$[rsp]
  00120	ff 90 20 0d 00
	00		 call	 QWORD PTR [rax+3360]
$LN35@z900_resum:
$LN10@z900_resum:

; 381  : 
; 382  :     PTIO( IO, "RSCH" );

  00126	48 8b 05 00 00
	00 00		 mov	 rax, QWORD PTR __imp_pttclass
  0012d	48 8b 00	 mov	 rax, QWORD PTR [rax]
  00130	48 25 00 02 00
	00		 and	 rax, 512		; 00000200H
  00136	48 85 c0	 test	 rax, rax
  00139	74 65		 je	 SHORT $LN36@z900_resum
  0013b	48 8b 44 24 78	 mov	 rax, QWORD PTR regs$[rsp]
  00140	8b 80 88 00 00
	00		 mov	 eax, DWORD PTR [rax+136]
  00146	b9 ff ff ff ff	 mov	 ecx, -1			; ffffffffH
  0014b	48 8b 54 24 50	 mov	 rdx, QWORD PTR effective_addr2$[rsp]
  00150	48 23 d1	 and	 rdx, rcx
  00153	48 8b ca	 mov	 rcx, rdx
  00156	8b c9		 mov	 ecx, ecx
  00158	ba 08 00 00 00	 mov	 edx, 8
  0015d	48 6b d2 01	 imul	 rdx, rdx, 1
  00161	4c 8b 44 24 78	 mov	 r8, QWORD PTR regs$[rsp]
  00166	41 8b 94 10 80
	02 00 00	 mov	 edx, DWORD PTR [r8+rdx+640]
  0016e	48 c7 44 24 30
	00 00 00 00	 mov	 QWORD PTR [rsp+48], 0
  00177	48 89 44 24 28	 mov	 QWORD PTR [rsp+40], rax
  0017c	48 8d 05 00 00
	00 00		 lea	 rax, OFFSET FLAT:$SG194829
  00183	48 89 44 24 20	 mov	 QWORD PTR [rsp+32], rax
  00188	44 8b c9	 mov	 r9d, ecx
  0018b	44 8b c2	 mov	 r8d, edx
  0018e	48 8d 15 00 00
	00 00		 lea	 rdx, OFFSET FLAT:$SG194830
  00195	b9 00 02 00 00	 mov	 ecx, 512		; 00000200H
  0019a	ff 15 00 00 00
	00		 call	 QWORD PTR __imp_ptt_pthread_trace
$LN36@z900_resum:
  001a0	33 c0		 xor	 eax, eax
  001a2	85 c0		 test	 eax, eax
  001a4	75 80		 jne	 SHORT $LN10@z900_resum

; 383  : 
; 384  : #if defined( _FEATURE_IO_ASSIST )
; 385  :     if (SIE_STATE_BIT_OFF( regs, EC0, IOA ) && !regs->sie_pref)

  001a6	48 8b 44 24 78	 mov	 rax, QWORD PTR regs$[rsp]
  001ab	8b 80 c8 08 00
	00		 mov	 eax, DWORD PTR [rax+2248]
  001b1	d1 e8		 shr	 eax, 1
  001b3	83 e0 01	 and	 eax, 1
  001b6	85 c0		 test	 eax, eax
  001b8	0f 84 f0 00 00
	00		 je	 $LN37@z900_resum
  001be	48 8b 44 24 78	 mov	 rax, QWORD PTR regs$[rsp]
  001c3	48 8b 80 88 08
	00 00		 mov	 rax, QWORD PTR [rax+2184]
  001ca	b9 01 00 00 00	 mov	 ecx, 1
  001cf	48 6b c9 00	 imul	 rcx, rcx, 0
  001d3	0f b6 44 08 4c	 movzx	 eax, BYTE PTR [rax+rcx+76]
  001d8	83 e0 04	 and	 eax, 4
  001db	85 c0		 test	 eax, eax
  001dd	0f 85 cb 00 00
	00		 jne	 $LN37@z900_resum
  001e3	48 8b 44 24 78	 mov	 rax, QWORD PTR regs$[rsp]
