; Listing generated by Microsoft (R) Optimizing Compiler Version 19.34.31937.0 

include listing.inc

INCLUDELIB MSVCRTD
INCLUDELIB OLDNAMES

PUBLIC	s390_translate_and_test_extended
PUBLIC	s390_translate_and_test_reverse_extended
PUBLIC	s390_add_immediate_long_storage
PUBLIC	s390_add_immediate_storage
PUBLIC	s390_add_logical_with_signed_immediate
PUBLIC	s390_add_logical_with_signed_immediate_long
PUBLIC	s390_compare_and_branch_register
PUBLIC	s390_compare_and_branch_relative_register
PUBLIC	s390_compare_and_trap_register
PUBLIC	s390_compare_halfword_immediate_halfword_storage
PUBLIC	s390_compare_halfword_immediate_long_storage
PUBLIC	s390_compare_halfword_immediate_storage
PUBLIC	s390_compare_halfword_relative_long
PUBLIC	s390_compare_immediate_and_branch
PUBLIC	s390_compare_immediate_and_branch_relative
PUBLIC	s390_compare_immediate_and_trap
PUBLIC	s390_compare_logical_and_branch_register
PUBLIC	s390_compare_logical_and_branch_relative_register
PUBLIC	s390_compare_logical_and_trap_register
PUBLIC	s390_compare_logical_immediate_and_branch
PUBLIC	s390_compare_logical_immediate_and_branch_relative
PUBLIC	s390_compare_logical_immediate_and_trap_fullword
PUBLIC	s390_compare_logical_immediate_fullword_storage
PUBLIC	s390_compare_logical_immediate_halfword_storage
PUBLIC	s390_compare_logical_immediate_long_storage
PUBLIC	s390_compare_logical_relative_long
PUBLIC	s390_compare_logical_relative_long_halfword
PUBLIC	s390_compare_relative_long
PUBLIC	s390_load_halfword_relative_long
PUBLIC	s390_load_logical_halfword_relative_long
PUBLIC	s390_load_relative_long
PUBLIC	s390_move_fullword_from_halfword_immediate
PUBLIC	s390_move_halfword_from_halfword_immediate
PUBLIC	s390_move_long_from_halfword_immediate
PUBLIC	s390_multiply_single_immediate_fullword
PUBLIC	s390_prefetch_data
PUBLIC	s390_prefetch_data_relative_long
PUBLIC	s390_store_halfword_relative_long
PUBLIC	s390_store_relative_long
PUBLIC	s390_execute_relative_long
PUBLIC	s390_convert_bfp_ext_to_u32_reg
PUBLIC	s390_convert_bfp_long_to_u32_reg
PUBLIC	s390_convert_bfp_short_to_u32_reg
PUBLIC	s390_convert_dfp_ext_to_fix32_reg
PUBLIC	s390_convert_dfp_ext_to_u32_reg
PUBLIC	s390_convert_dfp_long_to_fix32_reg
PUBLIC	s390_convert_dfp_long_to_u32_reg
PUBLIC	s390_convert_fix32_to_dfp_ext_reg
PUBLIC	s390_convert_fix32_to_dfp_long_reg
PUBLIC	s390_convert_u32_to_bfp_ext_reg
PUBLIC	s390_convert_u32_to_bfp_long_reg
PUBLIC	s390_convert_u32_to_bfp_short_reg
PUBLIC	s390_convert_u32_to_dfp_ext_reg
PUBLIC	s390_convert_u32_to_dfp_long_reg
PUBLIC	s390_set_bfp_rounding_mode_3bit
PUBLIC	s390_set_dfp_rounding_mode
PUBLIC	s390_copy_sign_fpr_long_reg
PUBLIC	s390_load_complement_fpr_long_reg
PUBLIC	s390_load_negative_fpr_long_reg
PUBLIC	s390_load_positive_fpr_long_reg
PUBLIC	s390_load_fpc_and_signal
PUBLIC	iprint_ASMFMT_b2xx
PUBLIC	s390_set_fpc_and_signal
PUBLIC	s390_add_dfp_ext_reg
PUBLIC	s390_add_dfp_long_reg
PUBLIC	s390_compare_dfp_ext_reg
PUBLIC	s390_compare_dfp_long_reg
PUBLIC	s390_compare_and_signal_dfp_ext_reg
PUBLIC	iprint_ASMFMT_01xx
PUBLIC	s390_compare_and_signal_dfp_long_reg
PUBLIC	s390_compare_exponent_dfp_ext_reg
PUBLIC	s390_compare_exponent_dfp_long_reg
PUBLIC	iprint_ASMFMT_a5_x
PUBLIC	s390_convert_fix64_to_dfp_ext_reg
PUBLIC	s390_convert_fix64_to_dfp_long_reg
PUBLIC	s390_convert_sbcd128_to_dfp_ext_reg
PUBLIC	iprint_ASMFMT_a7_x
PUBLIC	s390_convert_sbcd64_to_dfp_long_reg
PUBLIC	s390_convert_ubcd128_to_dfp_ext_reg
PUBLIC	iprint_ASMFMT_b3xx
PUBLIC	s390_convert_ubcd64_to_dfp_long_reg
PUBLIC	s390_convert_dfp_ext_to_fix64_reg
PUBLIC	s390_convert_dfp_long_to_fix64_reg
PUBLIC	iprint_ASMFMT_b9xx
PUBLIC	s390_convert_dfp_ext_to_sbcd128_reg
PUBLIC	s390_convert_dfp_long_to_sbcd64_reg
PUBLIC	s390_convert_dfp_ext_to_ubcd128_reg
PUBLIC	iprint_ASMFMT_c0_x
PUBLIC	s390_convert_dfp_long_to_ubcd64_reg
PUBLIC	s390_divide_dfp_ext_reg
PUBLIC	s390_divide_dfp_long_reg
PUBLIC	iprint_ASMFMT_c2_x
PUBLIC	s390_extract_biased_exponent_dfp_ext_to_fix64_reg
PUBLIC	s390_extract_biased_exponent_dfp_long_to_fix64_reg
PUBLIC	s390_extract_significance_dfp_ext_reg
PUBLIC	iprint_ASMFMT_c4_x
PUBLIC	s390_extract_significance_dfp_long_reg
PUBLIC	s390_insert_biased_exponent_fix64_to_dfp_ext_reg
PUBLIC	s390_insert_biased_exponent_fix64_to_dfp_long_reg
PUBLIC	iprint_ASMFMT_c6_x
PUBLIC	s390_load_and_test_dfp_ext_reg
PUBLIC	s390_load_and_test_dfp_long_reg
PUBLIC	iprint_ASMFMT_c8_x
PUBLIC	s390_load_fp_int_dfp_ext_reg
PUBLIC	s390_load_fp_int_dfp_long_reg
PUBLIC	s390_load_lengthened_dfp_long_to_ext_reg
PUBLIC	iprint_ASMFMT_cc_x
PUBLIC	s390_load_lengthened_dfp_short_to_long_reg
PUBLIC	s390_load_rounded_dfp_ext_to_long_reg
PUBLIC	s390_load_rounded_dfp_long_to_short_reg
PUBLIC	iprint_ASMFMT_e3xx
PUBLIC	s390_multiply_dfp_ext_reg
PUBLIC	s390_multiply_dfp_long_reg
PUBLIC	s390_quantize_dfp_ext_reg
PUBLIC	iprint_ASMFMT_e5xx
PUBLIC	s390_quantize_dfp_long_reg
PUBLIC	s390_reround_dfp_ext_reg
PUBLIC	s390_reround_dfp_long_reg
PUBLIC	iprint_ASMFMT_e7xx
PUBLIC	s390_shift_coefficient_left_dfp_ext
PUBLIC	s390_shift_coefficient_left_dfp_long
PUBLIC	s390_shift_coefficient_right_dfp_ext
PUBLIC	iprint_ASMFMT_e6xx
PUBLIC	s390_shift_coefficient_right_dfp_long
PUBLIC	s390_subtract_dfp_ext_reg
PUBLIC	iprint_ASMFMT_ebxx
PUBLIC	s390_subtract_dfp_long_reg
PUBLIC	s390_test_data_class_dfp_ext
PUBLIC	s390_test_data_class_dfp_long
PUBLIC	iprint_ASMFMT_ecxx
PUBLIC	s390_test_data_class_dfp_short
PUBLIC	s390_test_data_group_dfp_ext
PUBLIC	s390_test_data_group_dfp_long
PUBLIC	iprint_ASMFMT_edxx
PUBLIC	s390_test_data_group_dfp_short
PUBLIC	s390_add_distinct_register
PUBLIC	s390_add_distinct_halfword_immediate
PUBLIC	s390_add_logical_distinct_register
PUBLIC	s390_add_logical_distinct_signed_halfword_immediate
PUBLIC	s390_and_distinct_register
PUBLIC	s390_exclusive_or_distinct_register
PUBLIC	s390_or_distinct_register
PUBLIC	s390_shift_left_single_distinct
PUBLIC	s390_shift_left_single_logical_distinct
PUBLIC	s390_shift_right_single_distinct
PUBLIC	s390_shift_right_single_logical_distinct
PUBLIC	s390_subtract_distinct_register
PUBLIC	s390_subtract_logical_distinct_register
PUBLIC	s370_operation_exception
PUBLIC	s390_load_and_add
PUBLIC	s390_load_and_add_logical
PUBLIC	s390_load_and_and
PUBLIC	s390_load_and_exclusive_or
PUBLIC	s390_load_and_or
PUBLIC	s390_load_pair_disjoint
PUBLIC	s390_load_on_condition_register
PUBLIC	s390_load_on_condition
PUBLIC	s390_store_on_condition
PUBLIC	z900_operation_exception
PUBLIC	s390_operation_exception
PUBLIC	s390_perform_cryptographic_key_management_operation
PUBLIC	s390_cipher_message_with_cipher_feedback
PUBLIC	s390_cipher_message_with_output_feedback
PUBLIC	s390_cipher_message_with_counter
PUBLIC	s390_perform_cryptographic_computation
PUBLIC	s390_vector_load
PUBLIC	s390_vector_store
PUBLIC	s390_vector_load_multiple
PUBLIC	s390_vector_store_multiple
PUBLIC	s390_v_and_to_vmr
PUBLIC	s390_v_clear_vr
PUBLIC	s390_v_complement_vmr
PUBLIC	s390_v_count_left_zeros_in_vmr
PUBLIC	s390_v_count_ones_in_vmr
PUBLIC	s390_v_exclusive_or_to_vmr
PUBLIC	s390_v_extract_vct
PUBLIC	s390_v_extract_vector_modes
PUBLIC	s390_v_load_vct_from_address
PUBLIC	s390_v_load_vix_from_address
PUBLIC	s390_v_load_vmr
PUBLIC	s390_v_load_vmr_complement
PUBLIC	s390_v_or_to_vmr
PUBLIC	s390_v_restore_vac
PUBLIC	s390_v_restore_vmr
PUBLIC	s390_v_restore_vr
PUBLIC	s390_v_restore_vsr
PUBLIC	s390_v_save_changed_vr
PUBLIC	s390_v_save_vac
PUBLIC	s390_v_save_vmr
PUBLIC	s390_v_save_vr
PUBLIC	s390_v_save_vsr
PUBLIC	s390_v_set_vector_mask_mode
PUBLIC	s390_v_store_vector_parameters
PUBLIC	s390_v_store_vmr
PUBLIC	s390_v_test_vmr
PUBLIC	s390_tcpip
PUBLIC	s390_execute_opcode_e3________xx
PUBLIC	s390_execute_opcode_e7________xx
PUBLIC	s390_execute_opcode_eb________xx
PUBLIC	s390_execute_opcode_ec________xx
PUBLIC	s390_execute_opcode_ed________xx
PUBLIC	s370_vector_load
PUBLIC	s370_vector_store
PUBLIC	s370_vector_load_multiple
PUBLIC	s370_vector_store_multiple
PUBLIC	s370_convert_bfp_long_to_float_long_reg
PUBLIC	s370_convert_bfp_short_to_float_long_reg
PUBLIC	s370_convert_float_long_to_bfp_long_reg
PUBLIC	s370_convert_float_long_to_bfp_short_reg
PUBLIC	s370_load_float_ext_reg
PUBLIC	s370_load_zero_float_ext_reg
PUBLIC	s370_load_zero_float_long_reg
PUBLIC	s370_load_zero_float_short_reg
PUBLIC	z900_cipher_message
PUBLIC	z900_cipher_message_with_chaining
PUBLIC	z900_compute_intermediate_message_digest
PUBLIC	z900_compute_last_message_digest
PUBLIC	z900_compute_message_authentication_code
PUBLIC	s370_v_and_to_vmr
PUBLIC	s370_v_clear_vr
PUBLIC	s370_v_complement_vmr
PUBLIC	s370_v_count_left_zeros_in_vmr
PUBLIC	s370_v_count_ones_in_vmr
PUBLIC	s370_v_exclusive_or_to_vmr
PUBLIC	s370_v_extract_vct
PUBLIC	s370_v_extract_vector_modes
PUBLIC	s370_v_load_vct_from_address
PUBLIC	s370_v_load_vix_from_address
PUBLIC	s370_v_load_vmr
PUBLIC	s370_v_load_vmr_complement
PUBLIC	s370_v_or_to_vmr
PUBLIC	s370_cipher_message
PUBLIC	s370_v_restore_vac
PUBLIC	s370_cipher_message_with_chaining
PUBLIC	s370_v_restore_vmr
PUBLIC	s370_compute_intermediate_message_digest
PUBLIC	s370_v_restore_vr
PUBLIC	s370_compute_last_message_digest
PUBLIC	s370_v_restore_vsr
PUBLIC	s370_compute_message_authentication_code
PUBLIC	s370_v_save_changed_vr
PUBLIC	s370_v_save_vac
PUBLIC	s370_v_save_vmr
PUBLIC	s370_v_save_vr
PUBLIC	s370_v_save_vsr
PUBLIC	s370_v_set_vector_mask_mode
PUBLIC	s370_v_store_vector_parameters
PUBLIC	s370_v_store_vmr
PUBLIC	s370_v_test_vmr
PUBLIC	s370_store_system_information
PUBLIC	s370_execute_opcode_e3________xx
PUBLIC	s370_execute_opcode_e7________xx
PUBLIC	s370_execute_opcode_eb________xx
PUBLIC	s370_execute_opcode_ec________xx
PUBLIC	s370_execute_opcode_ed________xx
PUBLIC	s370_perform_cryptographic_key_management_operation
PUBLIC	s370_perform_cryptographic_computation
PUBLIC	s370_cipher_message_with_cipher_feedback
PUBLIC	s370_cipher_message_with_output_feedback
PUBLIC	s370_cipher_message_with_counter
PUBLIC	z900_perform_cryptographic_key_management_operation
PUBLIC	z900_perform_cryptographic_computation
PUBLIC	z900_cipher_message_with_cipher_feedback
PUBLIC	z900_cipher_message_with_output_feedback
PUBLIC	z900_cipher_message_with_counter
PUBLIC	s390_add_fullword_immediate
PUBLIC	s390_add_logical_fullword_immediate
PUBLIC	s390_compare_fullword_immediate
PUBLIC	s390_cipher_message
PUBLIC	s390_compare_logical_fullword_immediate
PUBLIC	s390_cipher_message_with_chaining
PUBLIC	s390_compute_intermediate_message_digest
PUBLIC	s390_compute_last_message_digest
PUBLIC	s390_compute_message_authentication_code
PUBLIC	s390_load_and_test
PUBLIC	s390_load_byte_register
PUBLIC	s390_load_halfword_register
PUBLIC	s390_load_logical_character
PUBLIC	s390_load_logical_character_register
PUBLIC	s390_load_logical_halfword
PUBLIC	z900_tcpip
PUBLIC	s390_load_logical_halfword_register
PUBLIC	z900_execute_opcode_e3________xx
PUBLIC	z900_execute_opcode_e7________xx
PUBLIC	z900_execute_opcode_eb________xx
PUBLIC	z900_execute_opcode_ec________xx
PUBLIC	z900_execute_opcode_ed________xx
PUBLIC	s390_subtract_logical_fullword_immediate
PUBLIC	s390_convert_utf16_to_utf32
PUBLIC	s390_convert_utf32_to_utf16
PUBLIC	s390_convert_utf32_to_utf8
PUBLIC	s390_convert_utf8_to_utf32
PUBLIC	s390_search_string_unicode
PUBLIC	s390_translate_and_test_reverse
EXTRN	z900_load_and_test_float_short_reg:PROC
EXTRN	s370_branch_relative_on_index_high:PROC
EXTRN	s390_divide_bfp_ext_reg:PROC
EXTRN	z900_load_complement_float_long_reg:PROC
EXTRN	s370_branch_relative_on_index_low_or_equal:PROC
EXTRN	s390_divide_bfp_long:PROC
EXTRN	z900_load_complement_float_short_reg:PROC
EXTRN	s370_compare_halfword_immediate:PROC
EXTRN	s390_divide_bfp_long_reg:PROC
EXTRN	z900_load_float_long:PROC
EXTRN	s370_load_halfword_immediate:PROC
EXTRN	s390_divide_bfp_short:PROC
EXTRN	z900_load_float_long_reg:PROC
EXTRN	s370_multiply_halfword_immediate:PROC
EXTRN	s390_divide_bfp_short_reg:PROC
EXTRN	s370_multiply_single:PROC
EXTRN	z900_load_float_short:PROC
EXTRN	s390_divide_integer_bfp_long_reg:PROC
EXTRN	s370_multiply_single_register:PROC
EXTRN	z900_load_float_short_reg:PROC
EXTRN	s390_divide_integer_bfp_short_reg:PROC
EXTRN	z900_load_negative_float_long_reg:PROC
EXTRN	s370_test_under_mask_high:PROC
EXTRN	s390_extract_fpc:PROC
EXTRN	z900_load_negative_float_short_reg:PROC
EXTRN	s370_test_under_mask_low:PROC
EXTRN	s390_load_and_test_bfp_ext_reg:PROC
EXTRN	z900_load_positive_float_long_reg:PROC
EXTRN	s390_load_and_test_bfp_long_reg:PROC
EXTRN	z900_load_positive_float_short_reg:PROC
EXTRN	s390_load_and_test_bfp_short_reg:PROC
EXTRN	z900_load_rounded_float_long_reg:PROC
EXTRN	s390_load_complement_bfp_ext_reg:PROC
EXTRN	z900_load_rounded_float_short_reg:PROC
EXTRN	s390_load_complement_bfp_long_reg:PROC
EXTRN	z900_multiply_float_ext_reg:PROC
EXTRN	s390_load_complement_bfp_short_reg:PROC
EXTRN	z900_multiply_float_long:PROC
EXTRN	s390_load_fp_int_bfp_ext_reg:PROC
EXTRN	z900_multiply_float_long_reg:PROC
EXTRN	s390_load_fp_int_bfp_long_reg:PROC
EXTRN	z900_multiply_float_long_to_ext:PROC
EXTRN	s390_load_fp_int_bfp_short_reg:PROC
EXTRN	s390_load_fpc:PROC
EXTRN	z900_multiply_float_long_to_ext_reg:PROC
EXTRN	z900_multiply_float_short_to_long:PROC
EXTRN	s390_load_lengthened_bfp_long_to_ext:PROC
EXTRN	z900_multiply_float_short_to_long_reg:PROC
EXTRN	s390_load_lengthened_bfp_long_to_ext_reg:PROC
EXTRN	z900_store_float_long:PROC
EXTRN	s390_load_lengthened_bfp_short_to_ext:PROC
EXTRN	z900_store_float_short:PROC
EXTRN	s390_load_lengthened_bfp_short_to_ext_reg:PROC
EXTRN	z900_subtract_float_ext_reg:PROC
EXTRN	s370_and_immediate_low_high:PROC
EXTRN	s390_load_lengthened_bfp_short_to_long:PROC
EXTRN	z900_subtract_float_long:PROC
EXTRN	s370_and_immediate_low_low:PROC
EXTRN	s390_load_lengthened_bfp_short_to_long_reg:PROC
EXTRN	z900_subtract_float_long_reg:PROC
EXTRN	s390_load_negative_bfp_ext_reg:PROC
EXTRN	z900_subtract_float_short:PROC
EXTRN	s390_load_negative_bfp_long_reg:PROC
EXTRN	z900_subtract_float_short_reg:PROC
EXTRN	s390_load_negative_bfp_short_reg:PROC
EXTRN	z900_subtract_unnormal_float_long:PROC
EXTRN	s390_load_positive_bfp_ext_reg:PROC
EXTRN	z900_subtract_unnormal_float_long_reg:PROC
EXTRN	s390_load_positive_bfp_long_reg:PROC
EXTRN	z900_subtract_unnormal_float_short:PROC
EXTRN	s390_load_positive_bfp_short_reg:PROC
EXTRN	z900_subtract_unnormal_float_short_reg:PROC
EXTRN	s390_load_rounded_bfp_ext_to_long_reg:PROC
EXTRN	z900_load_lengthened_float_short_to_long_reg:PROC
EXTRN	s390_load_rounded_bfp_ext_to_short_reg:PROC
EXTRN	z900_load_lengthened_float_long_to_ext_reg:PROC
EXTRN	s390_load_rounded_bfp_long_to_short_reg:PROC
EXTRN	z900_load_lengthened_float_short_to_ext_reg:PROC
EXTRN	s390_multiply_add_bfp_long:PROC
EXTRN	s390_multiply_add_bfp_long_reg:PROC
EXTRN	z900_squareroot_float_ext_reg:PROC
EXTRN	z900_multiply_float_short_reg:PROC
EXTRN	s390_multiply_add_bfp_short:PROC
EXTRN	s390_multiply_add_bfp_short_reg:PROC
EXTRN	z900_load_positive_float_ext_reg:PROC
EXTRN	s390_multiply_bfp_ext_reg:PROC
EXTRN	z900_load_negative_float_ext_reg:PROC
EXTRN	z900_load_and_test_float_ext_reg:PROC
EXTRN	s390_multiply_bfp_long:PROC
EXTRN	s390_multiply_bfp_long_reg:PROC
EXTRN	z900_load_complement_float_ext_reg:PROC
EXTRN	z900_load_rounded_float_ext_to_short_reg:PROC
EXTRN	s390_multiply_bfp_long_to_ext:PROC
EXTRN	s390_multiply_bfp_long_to_ext_reg:PROC
EXTRN	z900_load_fp_int_float_ext_reg:PROC
EXTRN	z900_compare_float_ext_reg:PROC
EXTRN	s390_multiply_bfp_short:PROC
EXTRN	s390_multiply_bfp_short_reg:PROC
EXTRN	z900_load_fp_int_float_short_reg:PROC
EXTRN	z900_load_fp_int_float_long_reg:PROC
EXTRN	s390_multiply_bfp_short_to_long:PROC
EXTRN	s390_multiply_bfp_short_to_long_reg:PROC
EXTRN	z900_convert_fixed_to_float_short_reg:PROC
EXTRN	z900_convert_fixed_to_float_long_reg:PROC
EXTRN	s390_multiply_subtract_bfp_long:PROC
EXTRN	s390_multiply_subtract_bfp_long_reg:PROC
EXTRN	z900_convert_fixed_to_float_ext_reg:PROC
EXTRN	z900_convert_float_short_to_fixed_reg:PROC
EXTRN	s390_multiply_subtract_bfp_short:PROC
EXTRN	s390_multiply_subtract_bfp_short_reg:PROC
EXTRN	z900_convert_float_long_to_fixed_reg:PROC
EXTRN	s390_set_bfp_rounding_mode_2bit:PROC
EXTRN	z900_convert_float_ext_to_fixed_reg:PROC
EXTRN	s390_set_fpc:PROC
EXTRN	z900_load_lengthened_float_short_to_long:PROC
EXTRN	s390_squareroot_bfp_ext_reg:PROC
EXTRN	z900_load_lengthened_float_long_to_ext:PROC
EXTRN	s390_squareroot_bfp_long:PROC
EXTRN	z900_load_lengthened_float_short_to_ext:PROC
EXTRN	s390_squareroot_bfp_long_reg:PROC
EXTRN	z900_squareroot_float_short:PROC
EXTRN	s390_squareroot_bfp_short:PROC
EXTRN	z900_squareroot_float_long:PROC
EXTRN	s390_squareroot_bfp_short_reg:PROC
EXTRN	z900_multiply_float_short:PROC
EXTRN	s390_store_fpc:PROC
EXTRN	z900_add_halfword_immediate:PROC
EXTRN	z900_branch_relative_and_save:PROC
EXTRN	s390_subtract_bfp_ext_reg:PROC
EXTRN	z900_branch_relative_on_condition:PROC
EXTRN	s390_subtract_bfp_long:PROC
EXTRN	z900_branch_relative_on_count:PROC
EXTRN	s390_subtract_bfp_long_reg:PROC
EXTRN	z900_branch_relative_on_index_high:PROC
EXTRN	s390_subtract_bfp_short:PROC
EXTRN	z900_branch_relative_on_index_low_or_equal:PROC
EXTRN	s390_subtract_bfp_short_reg:PROC
EXTRN	z900_compare_halfword_immediate:PROC
EXTRN	s390_test_data_class_bfp_ext:PROC
EXTRN	z900_load_halfword_immediate:PROC
EXTRN	s390_test_data_class_bfp_long:PROC
EXTRN	z900_multiply_halfword_immediate:PROC
EXTRN	s390_test_data_class_bfp_short:PROC
EXTRN	s390_branch_and_set_authority:PROC
EXTRN	z900_multiply_single:PROC
EXTRN	s370_insert_immediate_low_high:PROC
EXTRN	s390_compare_and_swap_and_purge:PROC
EXTRN	z900_multiply_single_register:PROC
EXTRN	s370_insert_immediate_low_low:PROC
EXTRN	s390_cancel_subchannel:PROC
EXTRN	z900_test_under_mask_high:PROC
EXTRN	s390_clear_subchannel:PROC
EXTRN	z900_test_under_mask_low:PROC
EXTRN	s390_halt_subchannel:PROC
EXTRN	z900_start_interpretive_execution:PROC
EXTRN	s390_modify_subchannel:PROC
EXTRN	z900_test_pending_zone_interrupt:PROC
EXTRN	s390_resume_subchannel:PROC
EXTRN	z900_branch_and_stack:PROC
EXTRN	s390_set_address_limit:PROC
EXTRN	z900_extract_stacked_registers:PROC
EXTRN	s390_set_channel_monitor:PROC
EXTRN	z900_extract_stacked_state:PROC
EXTRN	s390_reset_channel_path:PROC
EXTRN	z900_modify_stacked_state:PROC
EXTRN	s370_load_logical_immediate_low_high:PROC
EXTRN	s390_start_subchannel:PROC
EXTRN	z900_program_return:PROC
EXTRN	s370_load_logical_immediate_low_low:PROC
EXTRN	s390_store_channel_path_status:PROC
EXTRN	z900_trap2:PROC
EXTRN	s390_store_channel_report_word:PROC
EXTRN	z900_trap4:PROC
EXTRN	s390_store_subchannel:PROC
EXTRN	z900_lock_page:PROC
EXTRN	s390_test_pending_interruption:PROC
EXTRN	z900_move_page:PROC
EXTRN	s390_test_subchannel:PROC
EXTRN	z900_invalidate_expanded_storage_block_entry:PROC
EXTRN	s390_checksum:PROC
EXTRN	z900_add_logical_carry_long:PROC
EXTRN	s390_channel_subsystem_call:PROC
EXTRN	z900_add_logical_carry_long_register:PROC
EXTRN	s390_cmpsc_2012:PROC
EXTRN	z900_add_logical_long:PROC
EXTRN	s390_compare_logical_long_extended:PROC
EXTRN	z900_add_logical_long_fullword:PROC
EXTRN	s390_move_long_extended:PROC
EXTRN	z900_add_logical_long_fullword_register:PROC
EXTRN	s390_extract_primary_asn:PROC
EXTRN	z900_add_logical_long_register:PROC
EXTRN	s390_extract_secondary_asn:PROC
EXTRN	z900_add_long:PROC
EXTRN	s390_insert_address_space_control:PROC
EXTRN	z900_add_long_fullword:PROC
EXTRN	s390_insert_virtual_storage_key:PROC
EXTRN	z900_add_long_fullword_register:PROC
EXTRN	z900_add_long_halfword_immediate:PROC
EXTRN	s390_load_address_space_parameters:PROC
EXTRN	s390_move_to_primary:PROC
EXTRN	z900_add_long_register:PROC
EXTRN	s390_move_to_secondary:PROC
EXTRN	z900_and_immediate_high_high:PROC
EXTRN	s390_move_with_key:PROC
EXTRN	z900_and_immediate_high_low:PROC
EXTRN	s390_program_call:PROC
EXTRN	z900_and_immediate_low_high:PROC
EXTRN	s390_program_transfer:PROC
EXTRN	z900_and_immediate_low_low:PROC
EXTRN	s390_set_address_space_control:PROC
EXTRN	z900_and_long:PROC
EXTRN	s390_set_secondary_asn:PROC
EXTRN	z900_and_long_register:PROC
EXTRN	s390_inter_user_communication_vehicle:PROC
EXTRN	z900_branch_on_count_long:PROC
EXTRN	s390_page_in:PROC
EXTRN	z900_branch_on_count_long_register:PROC
EXTRN	s390_page_out:PROC
EXTRN	z900_branch_on_index_high_long:PROC
EXTRN	s390_insert_storage_key_extended:PROC
EXTRN	z900_branch_on_index_low_or_equal_long:PROC
EXTRN	s390_reset_reference_bit_extended:PROC
EXTRN	z900_branch_relative_on_count_long:PROC
EXTRN	s390_set_storage_key_extended:PROC
EXTRN	z900_branch_relative_on_index_high_long:PROC
EXTRN	s390_set_clock_programmable_field:PROC
EXTRN	z900_branch_relative_on_index_low_or_equal_long:PROC
EXTRN	s390_store_clock_extended:PROC
EXTRN	z900_compare_and_swap_long:PROC
EXTRN	s390_convert_utf16_to_utf8:PROC
EXTRN	z900_compare_double_and_swap_long:PROC
EXTRN	s390_convert_utf8_to_utf16:PROC
EXTRN	z900_compare_logical_characters_under_mask_high:PROC
EXTRN	s390_translate_extended:PROC
EXTRN	z900_compare_logical_long:PROC
EXTRN	s390_convert_bfp_long_to_float_long_reg:PROC
EXTRN	z900_compare_logical_long_fullword:PROC
EXTRN	s370_or_immediate_low_high:PROC
EXTRN	s390_convert_bfp_short_to_float_long_reg:PROC
EXTRN	z900_compare_logical_long_fullword_register:PROC
EXTRN	s370_or_immediate_low_low:PROC
EXTRN	s390_convert_float_long_to_bfp_long_reg:PROC
EXTRN	z900_compare_logical_long_register:PROC
EXTRN	s390_convert_float_long_to_bfp_short_reg:PROC
EXTRN	z900_compare_long:PROC
EXTRN	s390_load_float_ext_reg:PROC
EXTRN	z900_compare_long_fullword:PROC
EXTRN	s390_load_zero_float_short_reg:PROC
EXTRN	z900_compare_long_fullword_register:PROC
EXTRN	z900_compare_long_halfword_immediate:PROC
EXTRN	s390_load_zero_float_long_reg:PROC
EXTRN	s390_load_zero_float_ext_reg:PROC
EXTRN	z900_compare_long_register:PROC
EXTRN	s390_add_float_ext_reg:PROC
EXTRN	z900_convert_fix64_to_float_ext_reg:PROC
EXTRN	s390_add_float_long:PROC
EXTRN	z900_convert_fix64_to_float_long_reg:PROC
EXTRN	s390_add_float_long_reg:PROC
EXTRN	z900_convert_fix64_to_float_short_reg:PROC
EXTRN	s390_add_float_short:PROC
EXTRN	z900_convert_float_ext_to_fix64_reg:PROC
EXTRN	s390_add_float_short_reg:PROC
EXTRN	z900_convert_float_long_to_fix64_reg:PROC
EXTRN	s390_add_unnormal_float_long:PROC
EXTRN	z900_convert_float_short_to_fix64_reg:PROC
EXTRN	s390_add_unnormal_float_long_reg:PROC
EXTRN	z900_convert_to_binary_long:PROC
EXTRN	s390_add_unnormal_float_short:PROC
EXTRN	z900_convert_to_decimal_long:PROC
EXTRN	s390_add_unnormal_float_short_reg:PROC
EXTRN	z900_divide_logical_long:PROC
EXTRN	s390_compare_float_long:PROC
EXTRN	z900_divide_logical_long_register:PROC
EXTRN	s390_compare_float_long_reg:PROC
EXTRN	z900_divide_single_long:PROC
EXTRN	s390_compare_float_short:PROC
EXTRN	z900_divide_single_long_fullword:PROC
EXTRN	s390_compare_float_short_reg:PROC
EXTRN	z900_divide_single_long_fullword_register:PROC
EXTRN	s390_divide_float_ext_reg:PROC
EXTRN	z900_divide_single_long_register:PROC
EXTRN	s390_divide_float_long:PROC
EXTRN	z900_exclusive_or_long:PROC
EXTRN	s390_divide_float_long_reg:PROC
EXTRN	z900_exclusive_or_long_register:PROC
EXTRN	s390_divide_float_short:PROC
EXTRN	z900_extract_and_set_extended_authority:PROC
EXTRN	s390_divide_float_short_reg:PROC
EXTRN	z900_extract_stacked_registers_long:PROC
EXTRN	s390_halve_float_long_reg:PROC
EXTRN	z900_insert_characters_under_mask_high:PROC
EXTRN	s390_halve_float_short_reg:PROC
EXTRN	z900_insert_immediate_high_high:PROC
EXTRN	s390_load_and_test_float_long_reg:PROC
EXTRN	z900_insert_immediate_high_low:PROC
EXTRN	s390_load_and_test_float_short_reg:PROC
EXTRN	z900_insert_immediate_low_high:PROC
EXTRN	s390_load_complement_float_long_reg:PROC
EXTRN	z900_insert_immediate_low_low:PROC
EXTRN	s390_load_complement_float_short_reg:PROC
EXTRN	z900_load_and_test_long_fullword_register:PROC
EXTRN	s390_load_float_long:PROC
EXTRN	z900_load_and_test_long_register:PROC
EXTRN	s390_load_float_long_reg:PROC
EXTRN	s370_start_io:PROC
EXTRN	z900_load_complement_long_fullword_register:PROC
EXTRN	s390_load_float_short:PROC
EXTRN	s370_test_io:PROC
EXTRN	z900_load_complement_long_register:PROC
EXTRN	s390_load_float_short_reg:PROC
EXTRN	s370_halt_io:PROC
EXTRN	z900_load_control_long:PROC
EXTRN	s390_load_negative_float_long_reg:PROC
EXTRN	s370_test_channel:PROC
EXTRN	z900_load_logical_immediate_high_high:PROC
EXTRN	s370_store_channel_id:PROC
EXTRN	s390_load_negative_float_short_reg:PROC
EXTRN	z900_load_logical_immediate_high_low:PROC
EXTRN	s370_squareroot_float_long_reg:PROC
EXTRN	s390_load_positive_float_long_reg:PROC
EXTRN	z900_load_logical_immediate_low_high:PROC
EXTRN	s370_squareroot_float_short_reg:PROC
EXTRN	s390_load_positive_float_short_reg:PROC
EXTRN	z900_load_logical_immediate_low_low:PROC
EXTRN	s370_compare_logical_string:PROC
EXTRN	s390_load_rounded_float_long_reg:PROC
EXTRN	z900_load_logical_long_character:PROC
EXTRN	s370_compare_until_substring_equal:PROC
EXTRN	s390_load_rounded_float_short_reg:PROC
EXTRN	z900_load_logical_long_fullword:PROC
EXTRN	s370_move_string:PROC
EXTRN	s390_multiply_float_ext_reg:PROC
EXTRN	z900_load_logical_long_fullword_register:PROC
EXTRN	s370_search_string:PROC
EXTRN	s390_multiply_float_long:PROC
EXTRN	z900_load_logical_long_halfword:PROC
EXTRN	s390_multiply_float_long_reg:PROC
EXTRN	s370_tcpip:PROC
EXTRN	z900_load_logical_long_thirtyone:PROC
EXTRN	s390_multiply_float_long_to_ext:PROC
EXTRN	z900_load_logical_long_thirtyone_register:PROC
EXTRN	s390_multiply_float_long_to_ext_reg:PROC
EXTRN	z900_load_long:PROC
EXTRN	s390_multiply_float_short_to_long:PROC
EXTRN	z900_load_long_fullword:PROC
EXTRN	s390_multiply_float_short_to_long_reg:PROC
EXTRN	z900_load_long_fullword_register:PROC
EXTRN	s370_add:PROC
EXTRN	s390_store_float_long:PROC
EXTRN	z900_load_long_halfword:PROC
EXTRN	s390_store_float_short:PROC
EXTRN	s370_add_decimal:PROC
EXTRN	z900_load_long_halfword_immediate:PROC
EXTRN	s370_add_frr:PROC
EXTRN	s390_subtract_float_ext_reg:PROC
EXTRN	z900_load_long_register:PROC
EXTRN	s370_add_halfword:PROC
EXTRN	s390_subtract_float_long:PROC
EXTRN	z900_load_multiple_disjoint:PROC
EXTRN	s390_subtract_float_long_reg:PROC
EXTRN	s370_add_logical:PROC
EXTRN	z900_load_multiple_high:PROC
EXTRN	s370_add_logical_register:PROC
EXTRN	s390_subtract_float_short:PROC
EXTRN	z900_load_multiple_long:PROC
EXTRN	s370_add_register:PROC
EXTRN	s390_subtract_float_short_reg:PROC
EXTRN	z900_load_negative_long_fullword_register:PROC
EXTRN	s370_and:PROC
EXTRN	s390_subtract_unnormal_float_long:PROC
EXTRN	z900_load_negative_long_register:PROC
EXTRN	s390_subtract_unnormal_float_long_reg:PROC
EXTRN	s370_and_character:PROC
EXTRN	z900_load_pair_from_quadword:PROC
EXTRN	s390_subtract_unnormal_float_short:PROC
EXTRN	s370_and_immediate:PROC
EXTRN	z900_load_positive_long_fullword_register:PROC
EXTRN	s370_and_register:PROC
EXTRN	s390_subtract_unnormal_float_short_reg:PROC
EXTRN	z900_load_positive_long_register:PROC
EXTRN	z900_load_program_status_word_extended:PROC
EXTRN	s370_branch_and_link:PROC
EXTRN	s390_load_lengthened_float_short_to_long_reg:PROC
EXTRN	s370_branch_and_link_register:PROC
EXTRN	s390_load_lengthened_float_long_to_ext_reg:PROC
EXTRN	z900_load_real_address_long:PROC
EXTRN	s370_branch_and_save:PROC
EXTRN	s390_load_lengthened_float_short_to_ext_reg:PROC
EXTRN	z900_load_reversed_long:PROC
EXTRN	s370_branch_and_save_register:PROC
EXTRN	s390_squareroot_float_ext_reg:PROC
EXTRN	z900_load_reversed_long_register:PROC
EXTRN	s370_branch_on_condition:PROC
EXTRN	s390_multiply_float_short_reg:PROC
EXTRN	z900_load_using_real_address_long:PROC
EXTRN	s370_branch_on_condition_register:PROC
EXTRN	s390_load_positive_float_ext_reg:PROC
EXTRN	z900_multiply_logical_long:PROC
EXTRN	s370_branch_on_count:PROC
EXTRN	s390_load_negative_float_ext_reg:PROC
EXTRN	z900_multiply_logical_long_register:PROC
EXTRN	s370_branch_on_count_register:PROC
EXTRN	z900_multiply_long_halfword_immediate:PROC
EXTRN	s390_load_and_test_float_ext_reg:PROC
EXTRN	s370_branch_on_index_high:PROC
EXTRN	s390_load_complement_float_ext_reg:PROC
EXTRN	z900_multiply_single_long:PROC
EXTRN	s370_branch_on_index_low_or_equal:PROC
EXTRN	s390_load_rounded_float_ext_to_short_reg:PROC
EXTRN	z900_multiply_single_long_fullword:PROC
EXTRN	s370_compare:PROC
EXTRN	s390_load_fp_int_float_ext_reg:PROC
EXTRN	z900_multiply_single_long_fullword_register:PROC
EXTRN	s370_compare_and_form_codeword:PROC
EXTRN	s390_compare_float_ext_reg:PROC
EXTRN	z900_multiply_single_long_register:PROC
EXTRN	s370_compare_and_swap:PROC
EXTRN	z900_or_immediate_high_high:PROC
EXTRN	s390_load_fp_int_float_short_reg:PROC
EXTRN	s370_compare_decimal:PROC
EXTRN	z900_or_immediate_high_low:PROC
EXTRN	s390_load_fp_int_float_long_reg:PROC
EXTRN	s370_compare_double_and_swap:PROC
EXTRN	z900_or_immediate_low_high:PROC
EXTRN	s390_convert_fixed_to_float_short_reg:PROC
EXTRN	s370_compare_halfword:PROC
EXTRN	z900_or_immediate_low_low:PROC
EXTRN	s390_convert_fixed_to_float_long_reg:PROC
EXTRN	s370_compare_logical:PROC
EXTRN	s390_convert_fixed_to_float_ext_reg:PROC
EXTRN	z900_or_long:PROC
EXTRN	s370_compare_logical_character:PROC
EXTRN	s390_convert_float_short_to_fixed_reg:PROC
EXTRN	z900_or_long_register:PROC
EXTRN	s370_compare_logical_character_long:PROC
EXTRN	s390_convert_float_long_to_fixed_reg:PROC
EXTRN	z900_rotate_left_single_logical_long:PROC
EXTRN	s370_compare_logical_characters_under_mask:PROC
EXTRN	z900_set_addressing_mode_64:PROC
EXTRN	s390_convert_float_ext_to_fixed_reg:PROC
EXTRN	s370_compare_logical_immediate:PROC
EXTRN	z900_shift_left_single_logical_long:PROC
EXTRN	s390_load_lengthened_float_short_to_long:PROC
EXTRN	s370_compare_logical_register:PROC
EXTRN	z900_shift_left_single_long:PROC
EXTRN	s390_load_lengthened_float_long_to_ext:PROC
EXTRN	s370_compare_register:PROC
EXTRN	z900_shift_right_single_logical_long:PROC
EXTRN	s390_load_lengthened_float_short_to_ext:PROC
EXTRN	s370_convert_to_binary:PROC
EXTRN	z900_shift_right_single_long:PROC
EXTRN	s390_squareroot_float_short:PROC
EXTRN	s370_convert_to_decimal:PROC
EXTRN	z900_store_characters_under_mask_high:PROC
EXTRN	s390_squareroot_float_long:PROC
EXTRN	s370_diagnose:PROC
EXTRN	z900_store_control_long:PROC
EXTRN	s390_multiply_float_short:PROC
EXTRN	s370_divide:PROC
EXTRN	s390_add_halfword_immediate:PROC
EXTRN	z900_store_long:PROC
EXTRN	s370_divide_decimal:PROC
EXTRN	s390_branch_relative_and_save:PROC
EXTRN	z900_store_multiple_high:PROC
EXTRN	s370_divide_register:PROC
EXTRN	s390_branch_relative_on_condition:PROC
EXTRN	z900_store_multiple_long:PROC
EXTRN	s370_edit_x_edit_and_mark:PROC
EXTRN	s390_branch_relative_on_count:PROC
EXTRN	z900_store_pair_to_quadword:PROC
EXTRN	s370_exclusive_or:PROC
EXTRN	s390_branch_relative_on_index_high:PROC
EXTRN	z900_store_real_address:PROC
EXTRN	s390_branch_relative_on_index_low_or_equal:PROC
EXTRN	s370_exclusive_or_character:PROC
EXTRN	z900_store_reversed_long:PROC
EXTRN	s370_exclusive_or_immediate:PROC
EXTRN	s390_compare_halfword_immediate:PROC
EXTRN	z900_store_using_real_address_long:PROC
EXTRN	s370_exclusive_or_register:PROC
EXTRN	s390_load_halfword_immediate:PROC
EXTRN	z900_subtract_logical_borrow_long:PROC
EXTRN	s370_execute:PROC
EXTRN	s390_multiply_halfword_immediate:PROC
EXTRN	z900_subtract_logical_borrow_long_register:PROC
EXTRN	s390_multiply_single:PROC
EXTRN	z900_subtract_logical_long:PROC
EXTRN	s370_fix_page:PROC
EXTRN	s390_multiply_single_register:PROC
EXTRN	s370_insert_character:PROC
EXTRN	z900_subtract_logical_long_fullword:PROC
EXTRN	s370_insert_characters_under_mask:PROC
EXTRN	s390_test_under_mask_high:PROC
EXTRN	z900_subtract_logical_long_fullword_register:PROC
EXTRN	s370_insert_program_mask:PROC
EXTRN	s390_test_under_mask_low:PROC
EXTRN	z900_subtract_logical_long_register:PROC
EXTRN	s370_insert_psw_key:PROC
EXTRN	s390_start_interpretive_execution:PROC
EXTRN	z900_subtract_long:PROC
EXTRN	s370_invalidate_page_table_entry:PROC
EXTRN	s390_test_pending_zone_interrupt:PROC
EXTRN	z900_subtract_long_fullword:PROC
EXTRN	s390_branch_and_stack:PROC
EXTRN	s370_load:PROC
EXTRN	z900_subtract_long_fullword_register:PROC
EXTRN	s390_extract_stacked_registers:PROC
EXTRN	s370_load_address:PROC
EXTRN	z900_subtract_long_register:PROC
EXTRN	s390_extract_stacked_state:PROC
EXTRN	z900_test_under_mask_high_high:PROC
EXTRN	s390_modify_stacked_state:PROC
EXTRN	s370_load_and_test_register:PROC
EXTRN	z900_test_under_mask_high_low:PROC
EXTRN	s370_load_complement_register:PROC
EXTRN	s390_program_return:PROC
EXTRN	z900_trace_long:PROC
EXTRN	s370_load_control:PROC
EXTRN	z900_perform_locked_operation:PROC
EXTRN	s390_trap2:PROC
EXTRN	s390_trap4:PROC
EXTRN	z900_signal_adapter:PROC
EXTRN	s370_load_halfword:PROC
EXTRN	s390_lock_page:PROC
EXTRN	s370_load_multiple:PROC
EXTRN	z900_set_queue_buffer_state:PROC
EXTRN	s390_move_page:PROC
EXTRN	s370_load_negative_register:PROC
EXTRN	z900_extract_queue_buffer_state:PROC
EXTRN	s390_invalidate_expanded_storage_block_entry:PROC
EXTRN	z900_set_vector_summary:PROC
EXTRN	s370_load_positive_register:PROC
EXTRN	z900_store_zone_parameter:PROC
EXTRN	s370_load_program_status_word:PROC
EXTRN	s390_perform_locked_operation:PROC
EXTRN	s390_signal_adapter:PROC
EXTRN	z900_set_zone_parameter:PROC
EXTRN	s370_load_real_address:PROC
EXTRN	s390_store_zone_parameter:PROC
EXTRN	z900_resume_program:PROC
EXTRN	s370_load_register:PROC
EXTRN	s390_set_zone_parameter:PROC
EXTRN	z900_service_call:PROC
EXTRN	s390_resume_program:PROC
EXTRN	s370_monitor_call:PROC
EXTRN	z900_squareroot_float_long_reg:PROC
EXTRN	s390_service_call:PROC
EXTRN	s370_move_character:PROC
EXTRN	z900_squareroot_float_short_reg:PROC
EXTRN	s370_move_immediate:PROC
EXTRN	z900_store_system_information:PROC
EXTRN	s390_squareroot_float_long_reg:PROC
EXTRN	s370_move_inverse:PROC
EXTRN	z900_compare_logical_string:PROC
EXTRN	s390_squareroot_float_short_reg:PROC
EXTRN	s370_move_long:PROC
EXTRN	z900_compare_until_substring_equal:PROC
EXTRN	s390_store_system_information:PROC
EXTRN	s370_move_numerics:PROC
EXTRN	z900_move_string:PROC
EXTRN	s390_compare_logical_string:PROC
EXTRN	z900_search_string:PROC
EXTRN	s390_compare_until_substring_equal:PROC
EXTRN	s370_move_with_offset:PROC
EXTRN	z900_branch_in_subspace_group:PROC
EXTRN	s390_move_string:PROC
EXTRN	z900_extract_and_set_storage_attributes:PROC
EXTRN	s390_search_string:PROC
EXTRN	s370_move_zones:PROC
EXTRN	s390_branch_in_subspace_group:PROC
EXTRN	s370_multiply:PROC
EXTRN	s370_multiply_decimal:PROC
EXTRN	s370_multiply_halfword:PROC
EXTRN	s370_multiply_register:PROC
EXTRN	z900_add:PROC
EXTRN	s370_obtain_cms_lock:PROC
EXTRN	z900_add_decimal:PROC
EXTRN	s390_add:PROC
EXTRN	s370_obtain_local_lock:PROC
EXTRN	s390_add_decimal:PROC
EXTRN	z900_add_halfword:PROC
EXTRN	s370_or:PROC
EXTRN	z900_add_logical:PROC
EXTRN	s390_add_halfword:PROC
EXTRN	s370_or_character:PROC
EXTRN	z900_add_logical_register:PROC
EXTRN	s390_add_logical:PROC
EXTRN	s370_or_immediate:PROC
EXTRN	z900_add_register:PROC
EXTRN	s370_or_register:PROC
EXTRN	s390_add_logical_register:PROC
EXTRN	z900_and:PROC
EXTRN	s390_add_register:PROC
EXTRN	s370_pack:PROC
EXTRN	z900_and_character:PROC
EXTRN	s370_purge_translation_lookaside_buffer:PROC
EXTRN	s390_and:PROC
EXTRN	z900_and_immediate:PROC
EXTRN	s390_and_character:PROC
EXTRN	s370_release_cms_lock:PROC
EXTRN	z900_and_register:PROC
EXTRN	s390_and_immediate:PROC
EXTRN	s370_release_local_lock:PROC
EXTRN	z900_branch_and_link:PROC
EXTRN	s370_set_clock:PROC
EXTRN	s390_and_register:PROC
EXTRN	z900_branch_and_link_register:PROC
EXTRN	s370_set_clock_comparator:PROC
EXTRN	s390_branch_and_link:PROC
EXTRN	z900_branch_and_save:PROC
EXTRN	s370_set_cpu_timer:PROC
EXTRN	s390_branch_and_link_register:PROC
EXTRN	z900_branch_and_save_register:PROC
EXTRN	s370_set_prefix:PROC
EXTRN	s390_branch_and_save:PROC
EXTRN	z900_branch_on_condition:PROC
EXTRN	s370_set_program_mask:PROC
EXTRN	s390_branch_and_save_register:PROC
EXTRN	z900_branch_on_condition_register:PROC
EXTRN	s370_set_psw_key_from_address:PROC
EXTRN	s390_branch_on_condition:PROC
EXTRN	z900_branch_on_count:PROC
EXTRN	s390_branch_on_condition_register:PROC
EXTRN	s370_set_system_mask:PROC
EXTRN	z900_branch_on_count_register:PROC
EXTRN	s390_branch_on_count:PROC
EXTRN	s370_shift_and_round_decimal:PROC
EXTRN	z900_branch_on_index_high:PROC
EXTRN	s390_branch_on_count_register:PROC
EXTRN	s370_shift_left_double:PROC
EXTRN	z900_branch_on_index_low_or_equal:PROC
EXTRN	s390_branch_on_index_high:PROC
EXTRN	s370_shift_left_double_logical:PROC
EXTRN	z900_compare:PROC
EXTRN	s390_branch_on_index_low_or_equal:PROC
EXTRN	s370_shift_left_single:PROC
EXTRN	z900_compare_and_form_codeword:PROC
EXTRN	s390_compare:PROC
EXTRN	s370_shift_left_single_logical:PROC
EXTRN	z900_compare_and_swap:PROC
EXTRN	s390_compare_and_form_codeword:PROC
EXTRN	s370_shift_right_double:PROC
EXTRN	z900_compare_decimal:PROC
EXTRN	s370_shift_right_double_logical:PROC
EXTRN	s390_compare_and_swap:PROC
EXTRN	z900_compare_double_and_swap:PROC
EXTRN	s370_shift_right_single:PROC
EXTRN	s390_compare_decimal:PROC
EXTRN	z900_compare_halfword:PROC
EXTRN	s370_shift_right_single_logical:PROC
EXTRN	s390_compare_double_and_swap:PROC
EXTRN	z900_compare_logical:PROC
EXTRN	s390_compare_halfword:PROC
EXTRN	s370_signal_processor:PROC
EXTRN	z900_compare_logical_character:PROC
EXTRN	s370_store:PROC
EXTRN	s390_compare_logical:PROC
EXTRN	z900_compare_logical_character_long:PROC
EXTRN	s370_store_character:PROC
EXTRN	s390_compare_logical_character:PROC
EXTRN	z900_compare_logical_characters_under_mask:PROC
EXTRN	s390_compare_logical_character_long:PROC
EXTRN	s370_store_characters_under_mask:PROC
EXTRN	z900_compare_logical_immediate:PROC
EXTRN	s370_store_clock:PROC
EXTRN	s390_compare_logical_characters_under_mask:PROC
EXTRN	z900_compare_logical_register:PROC
EXTRN	s370_store_clock_comparator:PROC
EXTRN	s390_compare_logical_immediate:PROC
EXTRN	z900_compare_register:PROC
EXTRN	s390_compare_logical_register:PROC
EXTRN	s370_store_control:PROC
EXTRN	z900_convert_to_binary:PROC
EXTRN	s370_store_cpu_address:PROC
EXTRN	s390_compare_register:PROC
EXTRN	z900_convert_to_decimal:PROC
EXTRN	s370_store_cpu_id:PROC
EXTRN	s390_convert_to_binary:PROC
EXTRN	z900_diagnose:PROC
EXTRN	s370_store_cpu_timer:PROC
EXTRN	s390_convert_to_decimal:PROC
EXTRN	z900_divide:PROC
EXTRN	s370_store_halfword:PROC
EXTRN	s390_diagnose:PROC
EXTRN	z900_divide_decimal:PROC
EXTRN	s390_divide:PROC
EXTRN	s370_store_multiple:PROC
EXTRN	z900_divide_register:PROC
EXTRN	s370_store_prefix:PROC
EXTRN	s390_divide_decimal:PROC
EXTRN	z900_edit_x_edit_and_mark:PROC
EXTRN	s390_divide_register:PROC
EXTRN	s370_store_then_and_system_mask:PROC
EXTRN	z900_exclusive_or:PROC
EXTRN	s370_store_then_or_system_mask:PROC
EXTRN	s390_edit_x_edit_and_mark:PROC
EXTRN	z900_exclusive_or_character:PROC
EXTRN	s390_exclusive_or:PROC
EXTRN	z900_exclusive_or_immediate:PROC
EXTRN	s370_subtract:PROC
EXTRN	s390_exclusive_or_character:PROC
EXTRN	z900_exclusive_or_register:PROC
EXTRN	s390_exclusive_or_immediate:PROC
EXTRN	s370_subtract_decimal:PROC
EXTRN	z900_execute:PROC
EXTRN	s390_exclusive_or_register:PROC
EXTRN	s370_subtract_halfword:PROC
EXTRN	s390_execute:PROC
EXTRN	s370_subtract_logical:PROC
EXTRN	z900_insert_character:PROC
EXTRN	s370_subtract_logical_register:PROC
EXTRN	z900_insert_characters_under_mask:PROC
EXTRN	s370_subtract_register:PROC
EXTRN	s390_insert_character:PROC
EXTRN	z900_insert_program_mask:PROC
EXTRN	s370_supervisor_call:PROC
EXTRN	s390_insert_characters_under_mask:PROC
EXTRN	z900_insert_psw_key:PROC
EXTRN	s390_insert_program_mask:PROC
EXTRN	s370_svc_assist:PROC
EXTRN	z900_invalidate_page_table_entry:PROC
EXTRN	s390_insert_psw_key:PROC
EXTRN	s370_test_and_set:PROC
EXTRN	z900_load:PROC
EXTRN	s370_test_block:PROC
EXTRN	s390_invalidate_page_table_entry:PROC
EXTRN	z900_load_address:PROC
EXTRN	s390_load:PROC
EXTRN	s370_test_protection:PROC
EXTRN	z900_load_address_extended:PROC
EXTRN	s390_load_address:PROC
EXTRN	s370_test_under_mask:PROC
EXTRN	z900_load_and_test_register:PROC
EXTRN	s390_load_address_extended:PROC
EXTRN	z900_load_complement_register:PROC
EXTRN	s390_load_and_test_register:PROC
EXTRN	s370_trace_initial_srb_dispatch:PROC
EXTRN	z900_load_control:PROC
EXTRN	s390_load_complement_register:PROC
EXTRN	s370_trace_io_interruption:PROC
EXTRN	z900_load_halfword:PROC
EXTRN	s390_load_control:PROC
EXTRN	s370_trace_program_interruption:PROC
EXTRN	z900_load_multiple:PROC
EXTRN	s390_load_halfword:PROC
EXTRN	s370_trace_svc_interruption:PROC
EXTRN	z900_load_negative_register:PROC
EXTRN	s390_load_multiple:PROC
EXTRN	s370_trace_svc_return:PROC
EXTRN	z900_load_positive_register:PROC
EXTRN	s390_load_negative_register:PROC
EXTRN	s370_trace_task_dispatch:PROC
EXTRN	z900_load_program_status_word:PROC
EXTRN	s390_load_positive_register:PROC
EXTRN	s370_translate:PROC
EXTRN	z900_load_real_address:PROC
EXTRN	s390_load_program_status_word:PROC
EXTRN	s370_translate_and_test:PROC
EXTRN	z900_load_register:PROC
EXTRN	s390_load_real_address:PROC
EXTRN	s370_unpack:PROC
EXTRN	z900_load_using_real_address:PROC
EXTRN	s390_load_register:PROC
EXTRN	s370_update_tree:PROC
EXTRN	z900_monitor_call:PROC
EXTRN	s390_load_using_real_address:PROC
EXTRN	s370_zero_and_add:PROC
EXTRN	z900_move_character:PROC
EXTRN	s390_monitor_call:PROC
EXTRN	s370_1800:PROC
EXTRN	z900_move_immediate:PROC
EXTRN	s390_move_character:PROC
EXTRN	s370_1801:PROC
EXTRN	z900_move_inverse:PROC
EXTRN	s390_move_immediate:PROC
EXTRN	s370_1802:PROC
EXTRN	z900_move_long:PROC
EXTRN	s390_move_inverse:PROC
EXTRN	s370_1803:PROC
EXTRN	z900_move_numerics:PROC
EXTRN	s390_move_long:PROC
EXTRN	s370_1804:PROC
EXTRN	z900_move_with_destination_key:PROC
EXTRN	s390_move_numerics:PROC
EXTRN	s370_1805:PROC
EXTRN	z900_move_with_offset:PROC
EXTRN	s390_move_with_destination_key:PROC
EXTRN	s370_1806:PROC
EXTRN	z900_move_with_source_key:PROC
EXTRN	s390_move_with_offset:PROC
EXTRN	s370_1807:PROC
EXTRN	z900_move_zones:PROC
EXTRN	s390_move_with_source_key:PROC
EXTRN	s370_1808:PROC
EXTRN	z900_multiply:PROC
EXTRN	s390_move_zones:PROC
EXTRN	s370_1809:PROC
EXTRN	z900_multiply_decimal:PROC
EXTRN	s390_multiply:PROC
EXTRN	s370_180A:PROC
EXTRN	z900_multiply_halfword:PROC
EXTRN	s390_multiply_decimal:PROC
EXTRN	s370_180B:PROC
EXTRN	z900_multiply_register:PROC
EXTRN	s390_multiply_halfword:PROC
EXTRN	s370_180C:PROC
EXTRN	z900_obtain_cms_lock:PROC
EXTRN	s390_multiply_register:PROC
EXTRN	s370_180D:PROC
EXTRN	z900_obtain_local_lock:PROC
EXTRN	s390_obtain_cms_lock:PROC
EXTRN	s370_180E:PROC
EXTRN	s390_obtain_local_lock:PROC
EXTRN	s370_180F:PROC
EXTRN	z900_or:PROC
EXTRN	s370_1810:PROC
EXTRN	z900_or_character:PROC
EXTRN	s390_or:PROC
EXTRN	s370_1811:PROC
EXTRN	z900_or_immediate:PROC
EXTRN	s390_or_character:PROC
EXTRN	s370_1812:PROC
EXTRN	z900_or_register:PROC
EXTRN	s390_or_immediate:PROC
EXTRN	s370_1813:PROC
EXTRN	z900_pack:PROC
EXTRN	s390_or_register:PROC
EXTRN	s370_1814:PROC
EXTRN	z900_purge_translation_lookaside_buffer:PROC
EXTRN	s390_pack:PROC
EXTRN	s370_1815:PROC
EXTRN	z900_release_cms_lock:PROC
EXTRN	s390_purge_translation_lookaside_buffer:PROC
EXTRN	s370_1816:PROC
EXTRN	z900_release_local_lock:PROC
EXTRN	s390_release_cms_lock:PROC
EXTRN	s370_1817:PROC
EXTRN	z900_set_clock:PROC
EXTRN	s390_release_local_lock:PROC
EXTRN	s370_1818:PROC
EXTRN	z900_set_clock_comparator:PROC
EXTRN	s390_set_clock:PROC
EXTRN	s370_1819:PROC
EXTRN	z900_set_cpu_timer:PROC
EXTRN	s390_set_clock_comparator:PROC
EXTRN	s370_181A:PROC
EXTRN	z900_set_prefix:PROC
EXTRN	s390_set_cpu_timer:PROC
EXTRN	s370_181B:PROC
EXTRN	z900_set_program_mask:PROC
EXTRN	s390_set_prefix:PROC
EXTRN	s370_181C:PROC
EXTRN	z900_set_psw_key_from_address:PROC
EXTRN	s390_set_program_mask:PROC
EXTRN	s370_181D:PROC
EXTRN	z900_set_system_mask:PROC
EXTRN	s390_set_psw_key_from_address:PROC
EXTRN	s370_181E:PROC
EXTRN	z900_shift_and_round_decimal:PROC
EXTRN	s390_set_system_mask:PROC
EXTRN	s370_181F:PROC
EXTRN	z900_shift_left_double:PROC
EXTRN	s390_shift_and_round_decimal:PROC
EXTRN	s370_1820:PROC
EXTRN	z900_shift_left_double_logical:PROC
EXTRN	s390_shift_left_double:PROC
EXTRN	s370_1821:PROC
EXTRN	z900_shift_left_single:PROC
EXTRN	s390_shift_left_double_logical:PROC
EXTRN	s370_1822:PROC
EXTRN	z900_shift_left_single_logical:PROC
EXTRN	s390_shift_left_single:PROC
EXTRN	s370_1823:PROC
EXTRN	z900_shift_right_double:PROC
EXTRN	s390_shift_left_single_logical:PROC
EXTRN	s370_1824:PROC
EXTRN	z900_shift_right_double_logical:PROC
EXTRN	s390_shift_right_double:PROC
EXTRN	s370_1825:PROC
EXTRN	z900_shift_right_single:PROC
EXTRN	s390_shift_right_double_logical:PROC
EXTRN	s370_1826:PROC
EXTRN	z900_shift_right_single_logical:PROC
EXTRN	s390_shift_right_single:PROC
EXTRN	s370_1827:PROC
EXTRN	z900_signal_processor:PROC
EXTRN	s390_shift_right_single_logical:PROC
EXTRN	s370_1828:PROC
EXTRN	z900_store:PROC
EXTRN	s390_signal_processor:PROC
EXTRN	s370_1829:PROC
EXTRN	z900_store_character:PROC
EXTRN	s390_store:PROC
EXTRN	s370_182A:PROC
EXTRN	z900_store_characters_under_mask:PROC
EXTRN	s390_store_character:PROC
EXTRN	s370_182B:PROC
EXTRN	z900_store_clock:PROC
EXTRN	s390_store_characters_under_mask:PROC
EXTRN	s370_182C:PROC
EXTRN	z900_store_clock_comparator:PROC
EXTRN	s390_store_clock:PROC
EXTRN	s370_182D:PROC
EXTRN	z900_store_control:PROC
EXTRN	s390_store_clock_comparator:PROC
EXTRN	s370_182E:PROC
EXTRN	z900_store_cpu_address:PROC
EXTRN	s390_store_control:PROC
EXTRN	s370_182F:PROC
EXTRN	z900_store_cpu_id:PROC
EXTRN	s390_store_cpu_address:PROC
EXTRN	s370_1830:PROC
EXTRN	z900_store_cpu_timer:PROC
EXTRN	s390_store_cpu_id:PROC
EXTRN	s370_1831:PROC
EXTRN	z900_store_halfword:PROC
EXTRN	s390_store_cpu_timer:PROC
EXTRN	s370_1832:PROC
EXTRN	z900_store_multiple:PROC
EXTRN	s390_store_halfword:PROC
EXTRN	s370_1833:PROC
EXTRN	z900_store_prefix:PROC
EXTRN	s390_store_multiple:PROC
EXTRN	s370_1834:PROC
EXTRN	z900_store_then_and_system_mask:PROC
EXTRN	s390_store_prefix:PROC
EXTRN	s370_1835:PROC
EXTRN	z900_store_then_or_system_mask:PROC
EXTRN	s390_store_then_and_system_mask:PROC
EXTRN	s370_1836:PROC
EXTRN	z900_store_using_real_address:PROC
EXTRN	s390_store_then_or_system_mask:PROC
EXTRN	s370_1837:PROC
EXTRN	z900_subtract:PROC
EXTRN	s390_store_using_real_address:PROC
EXTRN	s370_1838:PROC
EXTRN	z900_subtract_decimal:PROC
EXTRN	s390_subtract:PROC
EXTRN	s370_1839:PROC
EXTRN	z900_subtract_halfword:PROC
EXTRN	s390_subtract_decimal:PROC
EXTRN	s370_183A:PROC
EXTRN	z900_subtract_logical:PROC
EXTRN	s390_subtract_halfword:PROC
EXTRN	s370_183B:PROC
EXTRN	z900_subtract_logical_register:PROC
EXTRN	s390_subtract_logical:PROC
EXTRN	s370_183C:PROC
EXTRN	z900_subtract_register:PROC
EXTRN	s390_subtract_logical_register:PROC
EXTRN	s370_183D:PROC
EXTRN	z900_supervisor_call:PROC
EXTRN	s390_subtract_register:PROC
EXTRN	s370_183E:PROC
EXTRN	z900_svc_assist:PROC
EXTRN	s390_supervisor_call:PROC
EXTRN	s370_183F:PROC
EXTRN	z900_test_and_set:PROC
EXTRN	s390_svc_assist:PROC
EXTRN	s370_1840:PROC
EXTRN	z900_test_block:PROC
EXTRN	s390_test_and_set:PROC
EXTRN	s370_1841:PROC
EXTRN	z900_test_protection:PROC
EXTRN	s390_test_block:PROC
EXTRN	s370_1842:PROC
EXTRN	z900_test_under_mask:PROC
EXTRN	s390_test_protection:PROC
EXTRN	s370_1843:PROC
EXTRN	z900_trace:PROC
EXTRN	s390_test_under_mask:PROC
EXTRN	s370_1844:PROC
EXTRN	s390_trace:PROC
EXTRN	s370_1845:PROC
EXTRN	s370_1846:PROC
EXTRN	s370_1847:PROC
EXTRN	s370_1848:PROC
EXTRN	s370_1849:PROC
EXTRN	s370_184A:PROC
EXTRN	z900_translate:PROC
EXTRN	s370_184B:PROC
EXTRN	z900_translate_and_test:PROC
EXTRN	s390_translate:PROC
EXTRN	s370_184C:PROC
EXTRN	z900_unpack:PROC
EXTRN	s390_translate_and_test:PROC
EXTRN	s370_184D:PROC
EXTRN	z900_update_tree:PROC
EXTRN	s390_unpack:PROC
EXTRN	s370_184E:PROC
EXTRN	z900_zero_and_add:PROC
EXTRN	s390_update_tree:PROC
EXTRN	s370_184F:PROC
EXTRN	z900_1800:PROC
EXTRN	s390_zero_and_add:PROC
EXTRN	s370_1850:PROC
EXTRN	z900_1801:PROC
EXTRN	s390_1800:PROC
EXTRN	s370_1851:PROC
EXTRN	z900_1802:PROC
EXTRN	s390_1801:PROC
EXTRN	s370_1852:PROC
EXTRN	z900_1803:PROC
EXTRN	s390_1802:PROC
EXTRN	s370_1853:PROC
EXTRN	z900_1804:PROC
EXTRN	s390_1803:PROC
EXTRN	s370_1854:PROC
EXTRN	z900_1805:PROC
EXTRN	s390_1804:PROC
EXTRN	s370_1855:PROC
EXTRN	z900_1806:PROC
EXTRN	s390_1805:PROC
EXTRN	s370_1856:PROC
EXTRN	z900_1807:PROC
EXTRN	s390_1806:PROC
EXTRN	s370_1857:PROC
EXTRN	z900_1808:PROC
EXTRN	s390_1807:PROC
EXTRN	s370_1858:PROC
EXTRN	z900_1809:PROC
EXTRN	s390_1808:PROC
EXTRN	s370_1859:PROC
EXTRN	z900_180A:PROC
EXTRN	s390_1809:PROC
EXTRN	s370_185A:PROC
EXTRN	z900_180B:PROC
EXTRN	s390_180A:PROC
EXTRN	s370_185B:PROC
EXTRN	z900_180C:PROC
EXTRN	s390_180B:PROC
EXTRN	s370_185C:PROC
EXTRN	z900_180D:PROC
EXTRN	s390_180C:PROC
EXTRN	s370_185D:PROC
EXTRN	z900_180E:PROC
EXTRN	s390_180D:PROC
EXTRN	s370_185E:PROC
EXTRN	z900_180F:PROC
EXTRN	s390_180E:PROC
EXTRN	s370_185F:PROC
EXTRN	z900_1810:PROC
EXTRN	s390_180F:PROC
EXTRN	s370_1860:PROC
EXTRN	z900_1811:PROC
EXTRN	s390_1810:PROC
EXTRN	s370_1861:PROC
EXTRN	z900_1812:PROC
EXTRN	s390_1811:PROC
EXTRN	s370_1862:PROC
EXTRN	z900_1813:PROC
EXTRN	s390_1812:PROC
EXTRN	s370_1863:PROC
EXTRN	z900_1814:PROC
EXTRN	s390_1813:PROC
EXTRN	s370_1864:PROC
EXTRN	z900_1815:PROC
EXTRN	s390_1814:PROC
EXTRN	s370_1865:PROC
EXTRN	z900_1816:PROC
EXTRN	s390_1815:PROC
EXTRN	s370_1866:PROC
EXTRN	z900_1817:PROC
EXTRN	s390_1816:PROC
EXTRN	s370_1867:PROC
EXTRN	z900_1818:PROC
EXTRN	s390_1817:PROC
EXTRN	s370_1868:PROC
EXTRN	z900_1819:PROC
EXTRN	s390_1818:PROC
EXTRN	s370_1869:PROC
EXTRN	z900_181A:PROC
EXTRN	s390_1819:PROC
EXTRN	s370_186A:PROC
EXTRN	z900_181B:PROC
EXTRN	s390_181A:PROC
EXTRN	s370_186B:PROC
EXTRN	z900_181C:PROC
EXTRN	s390_181B:PROC
EXTRN	s370_186C:PROC
EXTRN	z900_181D:PROC
EXTRN	s390_181C:PROC
EXTRN	s370_186D:PROC
EXTRN	z900_181E:PROC
EXTRN	s390_181D:PROC
EXTRN	s370_186E:PROC
EXTRN	z900_181F:PROC
EXTRN	s390_181E:PROC
EXTRN	s370_186F:PROC
EXTRN	z900_1820:PROC
EXTRN	s390_181F:PROC
EXTRN	s370_1870:PROC
EXTRN	z900_1821:PROC
EXTRN	s390_1820:PROC
EXTRN	s370_1871:PROC
EXTRN	z900_1822:PROC
EXTRN	s390_1821:PROC
EXTRN	s370_1872:PROC
EXTRN	z900_1823:PROC
EXTRN	s390_1822:PROC
EXTRN	s370_1873:PROC
EXTRN	z900_1824:PROC
EXTRN	s390_1823:PROC
EXTRN	s370_1874:PROC
EXTRN	z900_1825:PROC
EXTRN	s390_1824:PROC
EXTRN	s370_1875:PROC
EXTRN	z900_1826:PROC
EXTRN	s390_1825:PROC
EXTRN	s370_1876:PROC
EXTRN	z900_1827:PROC
EXTRN	s390_1826:PROC
EXTRN	s370_1877:PROC
EXTRN	z900_1828:PROC
EXTRN	s390_1827:PROC
EXTRN	s370_1878:PROC
EXTRN	z900_1829:PROC
EXTRN	s390_1828:PROC
EXTRN	s370_1879:PROC
EXTRN	z900_182A:PROC
EXTRN	s390_1829:PROC
EXTRN	s370_187A:PROC
EXTRN	z900_182B:PROC
EXTRN	s390_182A:PROC
EXTRN	s370_187B:PROC
EXTRN	z900_182C:PROC
EXTRN	s390_182B:PROC
EXTRN	s370_187C:PROC
EXTRN	z900_182D:PROC
EXTRN	s390_182C:PROC
EXTRN	s370_187D:PROC
EXTRN	z900_182E:PROC
EXTRN	s390_182D:PROC
EXTRN	s370_187E:PROC
EXTRN	z900_182F:PROC
EXTRN	s390_182E:PROC
EXTRN	s370_187F:PROC
EXTRN	z900_1830:PROC
EXTRN	s390_182F:PROC
EXTRN	s370_1880:PROC
EXTRN	z900_1831:PROC
EXTRN	s390_1830:PROC
EXTRN	s370_1881:PROC
EXTRN	z900_1832:PROC
EXTRN	s390_1831:PROC
EXTRN	s370_1882:PROC
EXTRN	z900_1833:PROC
EXTRN	s390_1832:PROC
EXTRN	s370_1883:PROC
EXTRN	z900_1834:PROC
EXTRN	s390_1833:PROC
EXTRN	s370_1884:PROC
EXTRN	z900_1835:PROC
EXTRN	s390_1834:PROC
EXTRN	s370_1885:PROC
EXTRN	z900_1836:PROC
EXTRN	s390_1835:PROC
EXTRN	s370_1886:PROC
EXTRN	z900_1837:PROC
EXTRN	s390_1836:PROC
EXTRN	s370_1887:PROC
EXTRN	z900_1838:PROC
EXTRN	s390_1837:PROC
EXTRN	s370_1888:PROC
EXTRN	z900_1839:PROC
EXTRN	s390_1838:PROC
EXTRN	s370_1889:PROC
EXTRN	z900_183A:PROC
EXTRN	s390_1839:PROC
EXTRN	s370_188A:PROC
EXTRN	z900_183B:PROC
EXTRN	s390_183A:PROC
EXTRN	s370_188B:PROC
EXTRN	z900_183C:PROC
EXTRN	s390_183B:PROC
EXTRN	s370_188C:PROC
EXTRN	z900_183D:PROC
EXTRN	s390_183C:PROC
EXTRN	s370_188D:PROC
EXTRN	z900_183E:PROC
EXTRN	s390_183D:PROC
EXTRN	s370_188E:PROC
EXTRN	z900_183F:PROC
EXTRN	s390_183E:PROC
EXTRN	s370_188F:PROC
EXTRN	z900_1840:PROC
EXTRN	s390_183F:PROC
EXTRN	s370_1890:PROC
EXTRN	z900_1841:PROC
EXTRN	s390_1840:PROC
EXTRN	s370_1891:PROC
EXTRN	z900_1842:PROC
EXTRN	s390_1841:PROC
EXTRN	s370_1892:PROC
EXTRN	z900_1843:PROC
EXTRN	s390_1842:PROC
EXTRN	s370_1893:PROC
EXTRN	z900_1844:PROC
EXTRN	s390_1843:PROC
EXTRN	s370_1894:PROC
EXTRN	z900_1845:PROC
EXTRN	s390_1844:PROC
EXTRN	s370_1895:PROC
EXTRN	z900_1846:PROC
EXTRN	s390_1845:PROC
EXTRN	s370_1896:PROC
EXTRN	z900_1847:PROC
EXTRN	s390_1846:PROC
EXTRN	s370_1897:PROC
EXTRN	z900_1848:PROC
EXTRN	s390_1847:PROC
EXTRN	s370_1898:PROC
EXTRN	z900_1849:PROC
EXTRN	s390_1848:PROC
EXTRN	s370_1899:PROC
EXTRN	z900_184A:PROC
EXTRN	s390_1849:PROC
EXTRN	s370_189A:PROC
EXTRN	z900_184B:PROC
EXTRN	s390_184A:PROC
EXTRN	s370_189B:PROC
EXTRN	z900_184C:PROC
EXTRN	s390_184B:PROC
EXTRN	s370_189C:PROC
EXTRN	z900_184D:PROC
EXTRN	s390_184C:PROC
EXTRN	s370_189D:PROC
EXTRN	z900_184E:PROC
EXTRN	s390_184D:PROC
EXTRN	s370_189E:PROC
EXTRN	z900_184F:PROC
EXTRN	s390_184E:PROC
EXTRN	s370_189F:PROC
EXTRN	z900_1850:PROC
EXTRN	s390_184F:PROC
EXTRN	s370_18A0:PROC
EXTRN	z900_1851:PROC
EXTRN	s390_1850:PROC
EXTRN	s370_18A1:PROC
EXTRN	z900_1852:PROC
EXTRN	s390_1851:PROC
EXTRN	s370_18A2:PROC
EXTRN	z900_1853:PROC
EXTRN	s390_1852:PROC
EXTRN	s370_18A3:PROC
EXTRN	z900_1854:PROC
EXTRN	s390_1853:PROC
EXTRN	s370_18A4:PROC
EXTRN	z900_1855:PROC
EXTRN	s390_1854:PROC
EXTRN	s370_18A5:PROC
EXTRN	z900_1856:PROC
EXTRN	s390_1855:PROC
EXTRN	s370_18A6:PROC
EXTRN	z900_1857:PROC
EXTRN	s390_1856:PROC
EXTRN	s370_18A7:PROC
EXTRN	z900_1858:PROC
EXTRN	s390_1857:PROC
EXTRN	s370_18A8:PROC
EXTRN	z900_1859:PROC
EXTRN	s390_1858:PROC
EXTRN	s370_18A9:PROC
EXTRN	z900_185A:PROC
EXTRN	s390_1859:PROC
EXTRN	s370_18AA:PROC
EXTRN	z900_185B:PROC
EXTRN	s390_185A:PROC
EXTRN	s370_18AB:PROC
EXTRN	z900_185C:PROC
EXTRN	s390_185B:PROC
EXTRN	s370_18AC:PROC
EXTRN	z900_185D:PROC
EXTRN	s390_185C:PROC
EXTRN	s370_18AD:PROC
EXTRN	z900_185E:PROC
EXTRN	s390_185D:PROC
EXTRN	s370_18AE:PROC
EXTRN	z900_185F:PROC
EXTRN	s390_185E:PROC
EXTRN	s370_18AF:PROC
EXTRN	z900_1860:PROC
EXTRN	s390_185F:PROC
EXTRN	s370_18B0:PROC
EXTRN	z900_1861:PROC
EXTRN	s390_1860:PROC
EXTRN	s370_18B1:PROC
EXTRN	z900_1862:PROC
EXTRN	s390_1861:PROC
EXTRN	s370_18B2:PROC
EXTRN	z900_1863:PROC
EXTRN	s390_1862:PROC
EXTRN	s370_18B3:PROC
EXTRN	z900_1864:PROC
EXTRN	s390_1863:PROC
EXTRN	s370_18B4:PROC
EXTRN	z900_1865:PROC
EXTRN	s390_1864:PROC
EXTRN	s370_18B5:PROC
EXTRN	z900_1866:PROC
EXTRN	s390_1865:PROC
EXTRN	s370_18B6:PROC
EXTRN	z900_1867:PROC
EXTRN	s390_1866:PROC
EXTRN	s370_18B7:PROC
EXTRN	z900_1868:PROC
EXTRN	s390_1867:PROC
EXTRN	s370_18B8:PROC
EXTRN	z900_1869:PROC
EXTRN	s390_1868:PROC
EXTRN	s370_18B9:PROC
EXTRN	z900_186A:PROC
EXTRN	s390_1869:PROC
EXTRN	s370_18BA:PROC
EXTRN	z900_186B:PROC
EXTRN	s390_186A:PROC
EXTRN	s370_18BB:PROC
EXTRN	z900_186C:PROC
EXTRN	s390_186B:PROC
EXTRN	s370_18BC:PROC
EXTRN	z900_186D:PROC
EXTRN	s390_186C:PROC
EXTRN	s370_18BD:PROC
EXTRN	z900_186E:PROC
EXTRN	s390_186D:PROC
EXTRN	s370_18BE:PROC
EXTRN	z900_186F:PROC
EXTRN	s390_186E:PROC
EXTRN	s370_18BF:PROC
EXTRN	z900_1870:PROC
EXTRN	s390_186F:PROC
EXTRN	s370_18C0:PROC
EXTRN	z900_1871:PROC
EXTRN	s390_1870:PROC
EXTRN	s370_18C1:PROC
EXTRN	z900_1872:PROC
EXTRN	s390_1871:PROC
EXTRN	s370_18C2:PROC
EXTRN	z900_1873:PROC
EXTRN	s390_1872:PROC
EXTRN	s370_18C3:PROC
EXTRN	z900_1874:PROC
EXTRN	s390_1873:PROC
EXTRN	s370_18C4:PROC
EXTRN	z900_1875:PROC
EXTRN	s390_1874:PROC
EXTRN	s370_18C5:PROC
EXTRN	z900_1876:PROC
EXTRN	s390_1875:PROC
EXTRN	s370_18C6:PROC
EXTRN	z900_1877:PROC
EXTRN	s390_1876:PROC
EXTRN	s370_18C7:PROC
EXTRN	z900_1878:PROC
EXTRN	s390_1877:PROC
EXTRN	s370_18C8:PROC
EXTRN	z900_1879:PROC
EXTRN	s390_1878:PROC
EXTRN	s370_18C9:PROC
EXTRN	z900_187A:PROC
EXTRN	s390_1879:PROC
EXTRN	s370_18CA:PROC
EXTRN	z900_187B:PROC
EXTRN	s390_187A:PROC
EXTRN	s370_18CB:PROC
EXTRN	z900_187C:PROC
EXTRN	s390_187B:PROC
EXTRN	s370_18CC:PROC
EXTRN	z900_187D:PROC
EXTRN	s390_187C:PROC
EXTRN	s370_18CD:PROC
EXTRN	z900_187E:PROC
EXTRN	s390_187D:PROC
EXTRN	s370_18CE:PROC
EXTRN	z900_187F:PROC
EXTRN	s390_187E:PROC
EXTRN	s370_18CF:PROC
EXTRN	z900_1880:PROC
EXTRN	s390_187F:PROC
EXTRN	s370_18D0:PROC
EXTRN	z900_1881:PROC
EXTRN	s390_1880:PROC
EXTRN	s370_18D1:PROC
EXTRN	z900_1882:PROC
EXTRN	s390_1881:PROC
EXTRN	s370_18D2:PROC
EXTRN	z900_1883:PROC
EXTRN	s390_1882:PROC
EXTRN	s370_18D3:PROC
EXTRN	z900_1884:PROC
EXTRN	s390_1883:PROC
EXTRN	s370_18D4:PROC
EXTRN	z900_1885:PROC
EXTRN	s390_1884:PROC
EXTRN	s370_18D5:PROC
EXTRN	z900_1886:PROC
EXTRN	s390_1885:PROC
EXTRN	s370_18D6:PROC
EXTRN	z900_1887:PROC
EXTRN	s390_1886:PROC
EXTRN	s370_18D7:PROC
EXTRN	z900_1888:PROC
EXTRN	s390_1887:PROC
EXTRN	s370_18D8:PROC
EXTRN	z900_1889:PROC
EXTRN	s390_1888:PROC
EXTRN	s370_18D9:PROC
EXTRN	z900_188A:PROC
EXTRN	s390_1889:PROC
EXTRN	s370_18DA:PROC
EXTRN	z900_188B:PROC
EXTRN	s390_188A:PROC
EXTRN	s370_18DB:PROC
EXTRN	z900_188C:PROC
EXTRN	s390_188B:PROC
EXTRN	s370_18DC:PROC
EXTRN	z900_188D:PROC
EXTRN	s390_188C:PROC
EXTRN	s370_18DD:PROC
EXTRN	z900_188E:PROC
EXTRN	s390_188D:PROC
EXTRN	s370_18DE:PROC
EXTRN	z900_188F:PROC
EXTRN	s390_188E:PROC
EXTRN	s370_18DF:PROC
EXTRN	z900_1890:PROC
EXTRN	s390_188F:PROC
EXTRN	s370_18E0:PROC
EXTRN	z900_1891:PROC
EXTRN	s390_1890:PROC
EXTRN	s370_18E1:PROC
EXTRN	z900_1892:PROC
EXTRN	s390_1891:PROC
EXTRN	s370_18E2:PROC
EXTRN	z900_1893:PROC
EXTRN	s390_1892:PROC
EXTRN	s370_18E3:PROC
EXTRN	z900_1894:PROC
EXTRN	s390_1893:PROC
EXTRN	s370_18E4:PROC
EXTRN	z900_1895:PROC
EXTRN	s390_1894:PROC
EXTRN	s370_18E5:PROC
EXTRN	z900_1896:PROC
EXTRN	s390_1895:PROC
EXTRN	s370_18E6:PROC
EXTRN	z900_1897:PROC
EXTRN	s390_1896:PROC
EXTRN	s370_18E7:PROC
EXTRN	z900_1898:PROC
EXTRN	s390_1897:PROC
EXTRN	s370_18E8:PROC
EXTRN	z900_1899:PROC
EXTRN	s390_1898:PROC
EXTRN	s370_18E9:PROC
EXTRN	z900_189A:PROC
EXTRN	s390_1899:PROC
EXTRN	s370_18EA:PROC
EXTRN	z900_189B:PROC
EXTRN	s390_189A:PROC
EXTRN	s370_18EB:PROC
EXTRN	z900_189C:PROC
EXTRN	s390_189B:PROC
EXTRN	s370_18EC:PROC
EXTRN	z900_189D:PROC
EXTRN	s390_189C:PROC
EXTRN	s370_18ED:PROC
EXTRN	z900_189E:PROC
EXTRN	s390_189D:PROC
EXTRN	s370_18EE:PROC
EXTRN	z900_189F:PROC
EXTRN	s390_189E:PROC
EXTRN	s370_18EF:PROC
EXTRN	z900_18A0:PROC
EXTRN	s390_189F:PROC
EXTRN	s370_18F0:PROC
EXTRN	z900_18A1:PROC
EXTRN	s390_18A0:PROC
EXTRN	s370_18F1:PROC
EXTRN	z900_18A2:PROC
EXTRN	s390_18A1:PROC
EXTRN	s370_18F2:PROC
EXTRN	z900_18A3:PROC
EXTRN	s390_18A2:PROC
EXTRN	s370_18F3:PROC
EXTRN	z900_18A4:PROC
EXTRN	s390_18A3:PROC
EXTRN	s370_18F4:PROC
EXTRN	z900_18A5:PROC
EXTRN	s390_18A4:PROC
EXTRN	s370_18F5:PROC
EXTRN	z900_18A6:PROC
EXTRN	s390_18A5:PROC
EXTRN	s370_18F6:PROC
EXTRN	z900_18A7:PROC
EXTRN	s390_18A6:PROC
EXTRN	s370_18F7:PROC
EXTRN	z900_18A8:PROC
EXTRN	s390_18A7:PROC
EXTRN	s370_18F8:PROC
EXTRN	z900_18A9:PROC
EXTRN	s390_18A8:PROC
EXTRN	s370_18F9:PROC
EXTRN	z900_18AA:PROC
EXTRN	s390_18A9:PROC
EXTRN	s370_18FA:PROC
EXTRN	z900_18AB:PROC
EXTRN	s390_18AA:PROC
EXTRN	s370_18FB:PROC
EXTRN	z900_18AC:PROC
EXTRN	s390_18AB:PROC
EXTRN	s370_18FC:PROC
EXTRN	z900_18AD:PROC
EXTRN	s390_18AC:PROC
EXTRN	s370_18FD:PROC
EXTRN	z900_18AE:PROC
EXTRN	s390_18AD:PROC
EXTRN	s370_18FE:PROC
EXTRN	z900_18AF:PROC
EXTRN	s390_18AE:PROC
EXTRN	s370_18FF:PROC
EXTRN	z900_18B0:PROC
EXTRN	s390_18AF:PROC
EXTRN	s370_1E00:PROC
EXTRN	z900_18B1:PROC
EXTRN	s390_18B0:PROC
EXTRN	s370_1E01:PROC
EXTRN	z900_18B2:PROC
EXTRN	s390_18B1:PROC
EXTRN	s370_1E02:PROC
EXTRN	z900_18B3:PROC
EXTRN	s390_18B2:PROC
EXTRN	s370_1E03:PROC
EXTRN	z900_18B4:PROC
EXTRN	s390_18B3:PROC
EXTRN	s370_1E04:PROC
EXTRN	z900_18B5:PROC
EXTRN	s390_18B4:PROC
EXTRN	s370_1E05:PROC
EXTRN	z900_18B6:PROC
EXTRN	s390_18B5:PROC
EXTRN	s370_1E06:PROC
EXTRN	z900_18B7:PROC
EXTRN	s390_18B6:PROC
EXTRN	s370_1E07:PROC
EXTRN	z900_18B8:PROC
EXTRN	s390_18B7:PROC
EXTRN	s370_1E08:PROC
EXTRN	z900_18B9:PROC
EXTRN	s390_18B8:PROC
EXTRN	s370_1E09:PROC
EXTRN	z900_18BA:PROC
EXTRN	s390_18B9:PROC
EXTRN	s370_1E0A:PROC
EXTRN	z900_18BB:PROC
EXTRN	s390_18BA:PROC
EXTRN	s370_1E0B:PROC
EXTRN	z900_18BC:PROC
EXTRN	s390_18BB:PROC
EXTRN	s370_1E0C:PROC
EXTRN	z900_18BD:PROC
EXTRN	s390_18BC:PROC
EXTRN	s370_1E0D:PROC
EXTRN	z900_18BE:PROC
EXTRN	s390_18BD:PROC
EXTRN	s370_1E0E:PROC
EXTRN	z900_18BF:PROC
EXTRN	s390_18BE:PROC
EXTRN	s370_1E0F:PROC
EXTRN	z900_18C0:PROC
EXTRN	s390_18BF:PROC
EXTRN	s370_1E10:PROC
EXTRN	z900_18C1:PROC
EXTRN	s390_18C0:PROC
EXTRN	s370_1E11:PROC
EXTRN	z900_18C2:PROC
EXTRN	s390_18C1:PROC
EXTRN	s370_1E12:PROC
EXTRN	z900_18C3:PROC
EXTRN	s390_18C2:PROC
EXTRN	s370_1E13:PROC
EXTRN	z900_18C4:PROC
EXTRN	s390_18C3:PROC
EXTRN	s370_1E14:PROC
EXTRN	z900_18C5:PROC
EXTRN	s390_18C4:PROC
EXTRN	s370_1E15:PROC
EXTRN	z900_18C6:PROC
EXTRN	s390_18C5:PROC
EXTRN	s370_1E16:PROC
EXTRN	z900_18C7:PROC
EXTRN	s390_18C6:PROC
EXTRN	s370_1E17:PROC
EXTRN	z900_18C8:PROC
EXTRN	s390_18C7:PROC
EXTRN	s370_1E18:PROC
EXTRN	z900_18C9:PROC
EXTRN	s390_18C8:PROC
EXTRN	s370_1E19:PROC
EXTRN	z900_18CA:PROC
EXTRN	s390_18C9:PROC
EXTRN	s370_1E1A:PROC
EXTRN	z900_18CB:PROC
EXTRN	s390_18CA:PROC
EXTRN	s370_1E1B:PROC
EXTRN	z900_18CC:PROC
EXTRN	s390_18CB:PROC
EXTRN	s370_1E1C:PROC
EXTRN	z900_18CD:PROC
EXTRN	s390_18CC:PROC
EXTRN	s370_1E1D:PROC
EXTRN	z900_18CE:PROC
EXTRN	s390_18CD:PROC
EXTRN	s370_1E1E:PROC
EXTRN	z900_18CF:PROC
EXTRN	s390_18CE:PROC
EXTRN	s370_1E1F:PROC
EXTRN	z900_18D0:PROC
EXTRN	s390_18CF:PROC
EXTRN	s370_1E20:PROC
EXTRN	z900_18D1:PROC
EXTRN	s390_18D0:PROC
EXTRN	s370_1E21:PROC
EXTRN	z900_18D2:PROC
EXTRN	s390_18D1:PROC
EXTRN	s370_1E22:PROC
EXTRN	z900_18D3:PROC
EXTRN	s390_18D2:PROC
EXTRN	s370_1E23:PROC
EXTRN	z900_18D4:PROC
EXTRN	s390_18D3:PROC
EXTRN	s370_1E24:PROC
EXTRN	z900_18D5:PROC
EXTRN	s390_18D4:PROC
EXTRN	s370_1E25:PROC
EXTRN	z900_18D6:PROC
EXTRN	s390_18D5:PROC
EXTRN	s370_1E26:PROC
EXTRN	z900_18D7:PROC
EXTRN	s390_18D6:PROC
EXTRN	s370_1E27:PROC
EXTRN	z900_18D8:PROC
EXTRN	s390_18D7:PROC
EXTRN	s370_1E28:PROC
EXTRN	z900_18D9:PROC
EXTRN	s390_18D8:PROC
EXTRN	s370_1E29:PROC
EXTRN	z900_18DA:PROC
EXTRN	s390_18D9:PROC
EXTRN	s370_1E2A:PROC
EXTRN	z900_18DB:PROC
EXTRN	s390_18DA:PROC
EXTRN	s370_1E2B:PROC
EXTRN	z900_18DC:PROC
EXTRN	s390_18DB:PROC
EXTRN	s370_1E2C:PROC
EXTRN	z900_18DD:PROC
EXTRN	s390_18DC:PROC
EXTRN	s370_1E2D:PROC
EXTRN	z900_18DE:PROC
EXTRN	s390_18DD:PROC
EXTRN	s370_1E2E:PROC
EXTRN	z900_18DF:PROC
EXTRN	s390_18DE:PROC
EXTRN	s370_1E2F:PROC
EXTRN	z900_18E0:PROC
EXTRN	s390_18DF:PROC
EXTRN	s370_1E30:PROC
EXTRN	z900_18E1:PROC
EXTRN	s390_18E0:PROC
EXTRN	s370_1E31:PROC
EXTRN	z900_18E2:PROC
EXTRN	s390_18E1:PROC
EXTRN	s370_1E32:PROC
EXTRN	z900_18E3:PROC
EXTRN	s390_18E2:PROC
EXTRN	s370_1E33:PROC
EXTRN	z900_18E4:PROC
EXTRN	s390_18E3:PROC
EXTRN	s370_1E34:PROC
EXTRN	z900_18E5:PROC
EXTRN	s390_18E4:PROC
EXTRN	s370_1E35:PROC
EXTRN	z900_18E6:PROC
EXTRN	s390_18E5:PROC
EXTRN	s370_1E36:PROC
EXTRN	z900_18E7:PROC
EXTRN	s390_18E6:PROC
EXTRN	s370_1E37:PROC
EXTRN	z900_18E8:PROC
EXTRN	s390_18E7:PROC
EXTRN	s370_1E38:PROC
EXTRN	z900_18E9:PROC
EXTRN	s390_18E8:PROC
EXTRN	s370_1E39:PROC
EXTRN	z900_18EA:PROC
EXTRN	s390_18E9:PROC
EXTRN	s370_1E3A:PROC
EXTRN	z900_18EB:PROC
EXTRN	s390_18EA:PROC
EXTRN	s370_1E3B:PROC
EXTRN	z900_18EC:PROC
EXTRN	s390_18EB:PROC
EXTRN	s370_1E3C:PROC
EXTRN	z900_18ED:PROC
EXTRN	s390_18EC:PROC
EXTRN	s370_1E3D:PROC
EXTRN	z900_18EE:PROC
EXTRN	s390_18ED:PROC
EXTRN	s370_1E3E:PROC
EXTRN	z900_18EF:PROC
EXTRN	s390_18EE:PROC
EXTRN	s370_1E3F:PROC
EXTRN	z900_18F0:PROC
EXTRN	s390_18EF:PROC
EXTRN	s370_1E40:PROC
EXTRN	z900_18F1:PROC
EXTRN	s390_18F0:PROC
EXTRN	s370_1E41:PROC
EXTRN	z900_18F2:PROC
EXTRN	s390_18F1:PROC
EXTRN	s370_1E42:PROC
EXTRN	z900_18F3:PROC
EXTRN	s390_18F2:PROC
EXTRN	s370_1E43:PROC
EXTRN	z900_18F4:PROC
EXTRN	s390_18F3:PROC
EXTRN	s370_1E44:PROC
EXTRN	z900_18F5:PROC
EXTRN	s390_18F4:PROC
EXTRN	s370_1E45:PROC
EXTRN	z900_18F6:PROC
EXTRN	s390_18F5:PROC
EXTRN	s370_1E46:PROC
EXTRN	z900_18F7:PROC
EXTRN	s390_18F6:PROC
EXTRN	s370_1E47:PROC
EXTRN	z900_18F8:PROC
EXTRN	s390_18F7:PROC
EXTRN	s370_1E48:PROC
EXTRN	z900_18F9:PROC
EXTRN	s390_18F8:PROC
EXTRN	s370_1E49:PROC
EXTRN	z900_18FA:PROC
EXTRN	s390_18F9:PROC
EXTRN	s370_1E4A:PROC
EXTRN	z900_18FB:PROC
EXTRN	s390_18FA:PROC
EXTRN	s370_1E4B:PROC
EXTRN	z900_18FC:PROC
EXTRN	s390_18FB:PROC
EXTRN	s370_1E4C:PROC
EXTRN	z900_18FD:PROC
EXTRN	s390_18FC:PROC
EXTRN	s370_1E4D:PROC
EXTRN	z900_18FE:PROC
EXTRN	s390_18FD:PROC
EXTRN	s370_1E4E:PROC
EXTRN	z900_18FF:PROC
EXTRN	s390_18FE:PROC
EXTRN	s370_1E4F:PROC
EXTRN	z900_1E00:PROC
EXTRN	s390_18FF:PROC
EXTRN	s370_1E50:PROC
EXTRN	z900_1E01:PROC
EXTRN	s390_1E00:PROC
EXTRN	s370_1E51:PROC
EXTRN	z900_1E02:PROC
EXTRN	s390_1E01:PROC
EXTRN	s370_1E52:PROC
EXTRN	z900_1E03:PROC
EXTRN	s390_1E02:PROC
EXTRN	s370_1E53:PROC
EXTRN	z900_1E04:PROC
EXTRN	s390_1E03:PROC
EXTRN	s370_1E54:PROC
EXTRN	z900_1E05:PROC
EXTRN	s390_1E04:PROC
EXTRN	s370_1E55:PROC
EXTRN	z900_1E06:PROC
EXTRN	s390_1E05:PROC
EXTRN	s370_1E56:PROC
EXTRN	z900_1E07:PROC
EXTRN	s390_1E06:PROC
EXTRN	s370_1E57:PROC
EXTRN	z900_1E08:PROC
EXTRN	s390_1E07:PROC
EXTRN	s370_1E58:PROC
EXTRN	z900_1E09:PROC
EXTRN	s390_1E08:PROC
EXTRN	s370_1E59:PROC
EXTRN	z900_1E0A:PROC
EXTRN	s390_1E09:PROC
EXTRN	s370_1E5A:PROC
EXTRN	z900_1E0B:PROC
EXTRN	s390_1E0A:PROC
EXTRN	s370_1E5B:PROC
EXTRN	z900_1E0C:PROC
EXTRN	s390_1E0B:PROC
EXTRN	s370_1E5C:PROC
EXTRN	z900_1E0D:PROC
EXTRN	s390_1E0C:PROC
EXTRN	s370_1E5D:PROC
EXTRN	z900_1E0E:PROC
EXTRN	s390_1E0D:PROC
EXTRN	s370_1E5E:PROC
EXTRN	z900_1E0F:PROC
EXTRN	s390_1E0E:PROC
EXTRN	s370_1E5F:PROC
EXTRN	z900_1E10:PROC
EXTRN	s390_1E0F:PROC
EXTRN	s370_1E60:PROC
EXTRN	z900_1E11:PROC
EXTRN	s390_1E10:PROC
EXTRN	s370_1E61:PROC
EXTRN	z900_1E12:PROC
EXTRN	s390_1E11:PROC
EXTRN	s370_1E62:PROC
EXTRN	z900_1E13:PROC
EXTRN	s390_1E12:PROC
EXTRN	s370_1E63:PROC
EXTRN	z900_1E14:PROC
EXTRN	s390_1E13:PROC
EXTRN	s370_1E64:PROC
EXTRN	z900_1E15:PROC
EXTRN	s390_1E14:PROC
EXTRN	s370_1E65:PROC
EXTRN	z900_1E16:PROC
EXTRN	s390_1E15:PROC
EXTRN	s370_1E66:PROC
EXTRN	z900_1E17:PROC
EXTRN	s390_1E16:PROC
EXTRN	s370_1E67:PROC
EXTRN	z900_1E18:PROC
EXTRN	s390_1E17:PROC
EXTRN	s370_1E68:PROC
EXTRN	z900_1E19:PROC
EXTRN	s390_1E18:PROC
EXTRN	s370_1E69:PROC
EXTRN	z900_1E1A:PROC
EXTRN	s390_1E19:PROC
EXTRN	s370_1E6A:PROC
EXTRN	z900_1E1B:PROC
EXTRN	s390_1E1A:PROC
EXTRN	s370_1E6B:PROC
EXTRN	z900_1E1C:PROC
EXTRN	s390_1E1B:PROC
EXTRN	s370_1E6C:PROC
EXTRN	z900_1E1D:PROC
EXTRN	s390_1E1C:PROC
EXTRN	s370_1E6D:PROC
EXTRN	z900_1E1E:PROC
EXTRN	s390_1E1D:PROC
EXTRN	s370_1E6E:PROC
EXTRN	z900_1E1F:PROC
EXTRN	s390_1E1E:PROC
EXTRN	s370_1E6F:PROC
EXTRN	z900_1E20:PROC
EXTRN	s390_1E1F:PROC
EXTRN	s370_1E70:PROC
EXTRN	z900_1E21:PROC
EXTRN	s390_1E20:PROC
EXTRN	s370_1E71:PROC
EXTRN	z900_1E22:PROC
EXTRN	s390_1E21:PROC
EXTRN	s370_1E72:PROC
EXTRN	z900_1E23:PROC
EXTRN	s390_1E22:PROC
EXTRN	s370_1E73:PROC
EXTRN	z900_1E24:PROC
EXTRN	s390_1E23:PROC
EXTRN	s370_1E74:PROC
EXTRN	z900_1E25:PROC
EXTRN	s390_1E24:PROC
EXTRN	s370_1E75:PROC
EXTRN	z900_1E26:PROC
EXTRN	s390_1E25:PROC
EXTRN	s370_1E76:PROC
EXTRN	z900_1E27:PROC
EXTRN	s390_1E26:PROC
EXTRN	s370_1E77:PROC
EXTRN	z900_1E28:PROC
EXTRN	s390_1E27:PROC
EXTRN	s370_1E78:PROC
EXTRN	z900_1E29:PROC
EXTRN	s390_1E28:PROC
EXTRN	s370_1E79:PROC
EXTRN	z900_1E2A:PROC
EXTRN	s390_1E29:PROC
EXTRN	s370_1E7A:PROC
EXTRN	z900_1E2B:PROC
EXTRN	s390_1E2A:PROC
EXTRN	s370_1E7B:PROC
EXTRN	z900_1E2C:PROC
EXTRN	s390_1E2B:PROC
EXTRN	s370_1E7C:PROC
EXTRN	z900_1E2D:PROC
EXTRN	s390_1E2C:PROC
EXTRN	s370_1E7D:PROC
EXTRN	z900_1E2E:PROC
EXTRN	s390_1E2D:PROC
EXTRN	s370_1E7E:PROC
EXTRN	z900_1E2F:PROC
EXTRN	s390_1E2E:PROC
EXTRN	s370_1E7F:PROC
EXTRN	z900_1E30:PROC
EXTRN	s390_1E2F:PROC
EXTRN	s370_1E80:PROC
EXTRN	z900_1E31:PROC
EXTRN	s390_1E30:PROC
EXTRN	s370_1E81:PROC
EXTRN	z900_1E32:PROC
EXTRN	s390_1E31:PROC
EXTRN	s370_1E82:PROC
EXTRN	z900_1E33:PROC
EXTRN	s390_1E32:PROC
EXTRN	s370_1E83:PROC
EXTRN	z900_1E34:PROC
EXTRN	s390_1E33:PROC
EXTRN	s370_1E84:PROC
EXTRN	z900_1E35:PROC
EXTRN	s390_1E34:PROC
EXTRN	s370_1E85:PROC
EXTRN	z900_1E36:PROC
EXTRN	s390_1E35:PROC
EXTRN	s370_1E86:PROC
EXTRN	z900_1E37:PROC
EXTRN	s390_1E36:PROC
EXTRN	s370_1E87:PROC
EXTRN	z900_1E38:PROC
EXTRN	s390_1E37:PROC
EXTRN	s370_1E88:PROC
EXTRN	z900_1E39:PROC
EXTRN	s390_1E38:PROC
EXTRN	s370_1E89:PROC
EXTRN	z900_1E3A:PROC
EXTRN	s390_1E39:PROC
EXTRN	s370_1E8A:PROC
EXTRN	z900_1E3B:PROC
EXTRN	s390_1E3A:PROC
EXTRN	s370_1E8B:PROC
EXTRN	z900_1E3C:PROC
EXTRN	s390_1E3B:PROC
EXTRN	s370_1E8C:PROC
EXTRN	z900_1E3D:PROC
EXTRN	s390_1E3C:PROC
EXTRN	s370_1E8D:PROC
EXTRN	z900_1E3E:PROC
EXTRN	s390_1E3D:PROC
EXTRN	s370_1E8E:PROC
EXTRN	z900_1E3F:PROC
EXTRN	s390_1E3E:PROC
EXTRN	s370_1E8F:PROC
EXTRN	z900_1E40:PROC
EXTRN	s390_1E3F:PROC
EXTRN	s370_1E90:PROC
EXTRN	z900_1E41:PROC
EXTRN	s390_1E40:PROC
EXTRN	s370_1E91:PROC
EXTRN	z900_1E42:PROC
EXTRN	s390_1E41:PROC
EXTRN	s370_1E92:PROC
EXTRN	z900_1E43:PROC
EXTRN	s390_1E42:PROC
EXTRN	s370_1E93:PROC
EXTRN	z900_1E44:PROC
EXTRN	s390_1E43:PROC
EXTRN	s370_1E94:PROC
EXTRN	z900_1E45:PROC
EXTRN	s390_1E44:PROC
EXTRN	s370_1E95:PROC
EXTRN	z900_1E46:PROC
EXTRN	s390_1E45:PROC
EXTRN	s370_1E96:PROC
EXTRN	z900_1E47:PROC
EXTRN	s390_1E46:PROC
EXTRN	s370_1E97:PROC
EXTRN	z900_1E48:PROC
EXTRN	s390_1E47:PROC
EXTRN	s370_1E98:PROC
EXTRN	z900_1E49:PROC
EXTRN	s390_1E48:PROC
EXTRN	s370_1E99:PROC
EXTRN	z900_1E4A:PROC
EXTRN	s390_1E49:PROC
EXTRN	s370_1E9A:PROC
EXTRN	z900_1E4B:PROC
EXTRN	s390_1E4A:PROC
EXTRN	s370_1E9B:PROC
EXTRN	z900_1E4C:PROC
EXTRN	s390_1E4B:PROC
EXTRN	s370_1E9C:PROC
EXTRN	z900_1E4D:PROC
EXTRN	s390_1E4C:PROC
EXTRN	s370_1E9D:PROC
EXTRN	z900_1E4E:PROC
EXTRN	s390_1E4D:PROC
EXTRN	s370_1E9E:PROC
EXTRN	z900_1E4F:PROC
EXTRN	s390_1E4E:PROC
EXTRN	s370_1E9F:PROC
EXTRN	z900_1E50:PROC
EXTRN	s390_1E4F:PROC
EXTRN	s370_1EA0:PROC
EXTRN	z900_1E51:PROC
EXTRN	s390_1E50:PROC
EXTRN	s370_1EA1:PROC
EXTRN	z900_1E52:PROC
EXTRN	s390_1E51:PROC
EXTRN	s370_1EA2:PROC
EXTRN	z900_1E53:PROC
EXTRN	s390_1E52:PROC
EXTRN	s370_1EA3:PROC
EXTRN	z900_1E54:PROC
EXTRN	s390_1E53:PROC
EXTRN	s370_1EA4:PROC
EXTRN	z900_1E55:PROC
EXTRN	s390_1E54:PROC
EXTRN	s370_1EA5:PROC
EXTRN	z900_1E56:PROC
EXTRN	s390_1E55:PROC
EXTRN	s370_1EA6:PROC
EXTRN	z900_1E57:PROC
EXTRN	s390_1E56:PROC
EXTRN	s370_1EA7:PROC
EXTRN	z900_1E58:PROC
EXTRN	s390_1E57:PROC
EXTRN	s370_1EA8:PROC
EXTRN	z900_1E59:PROC
EXTRN	s390_1E58:PROC
EXTRN	s370_1EA9:PROC
EXTRN	z900_1E5A:PROC
EXTRN	s390_1E59:PROC
EXTRN	s370_1EAA:PROC
EXTRN	z900_1E5B:PROC
EXTRN	s390_1E5A:PROC
EXTRN	s370_1EAB:PROC
EXTRN	z900_1E5C:PROC
EXTRN	s390_1E5B:PROC
EXTRN	s370_1EAC:PROC
EXTRN	z900_1E5D:PROC
EXTRN	s390_1E5C:PROC
EXTRN	s370_1EAD:PROC
EXTRN	z900_1E5E:PROC
EXTRN	s390_1E5D:PROC
EXTRN	s370_1EAE:PROC
EXTRN	z900_1E5F:PROC
EXTRN	s390_1E5E:PROC
EXTRN	s370_1EAF:PROC
EXTRN	z900_1E60:PROC
EXTRN	s390_1E5F:PROC
EXTRN	s370_1EB0:PROC
EXTRN	z900_1E61:PROC
EXTRN	s390_1E60:PROC
EXTRN	s370_1EB1:PROC
EXTRN	z900_1E62:PROC
EXTRN	s390_1E61:PROC
EXTRN	s370_1EB2:PROC
EXTRN	z900_1E63:PROC
EXTRN	s390_1E62:PROC
EXTRN	s370_1EB3:PROC
EXTRN	z900_1E64:PROC
EXTRN	s390_1E63:PROC
EXTRN	s370_1EB4:PROC
EXTRN	z900_1E65:PROC
EXTRN	s390_1E64:PROC
EXTRN	s370_1EB5:PROC
EXTRN	z900_1E66:PROC
EXTRN	s390_1E65:PROC
EXTRN	s370_1EB6:PROC
EXTRN	z900_1E67:PROC
EXTRN	s390_1E66:PROC
EXTRN	s370_1EB7:PROC
EXTRN	z900_1E68:PROC
EXTRN	s390_1E67:PROC
EXTRN	s370_1EB8:PROC
EXTRN	z900_1E69:PROC
EXTRN	s390_1E68:PROC
EXTRN	s370_1EB9:PROC
EXTRN	z900_1E6A:PROC
EXTRN	s390_1E69:PROC
EXTRN	s370_1EBA:PROC
EXTRN	z900_1E6B:PROC
EXTRN	s390_1E6A:PROC
EXTRN	s370_1EBB:PROC
EXTRN	z900_1E6C:PROC
EXTRN	s390_1E6B:PROC
EXTRN	s370_1EBC:PROC
EXTRN	z900_1E6D:PROC
EXTRN	s390_1E6C:PROC
EXTRN	s370_1EBD:PROC
EXTRN	z900_1E6E:PROC
EXTRN	s390_1E6D:PROC
EXTRN	s370_1EBE:PROC
EXTRN	z900_1E6F:PROC
EXTRN	s390_1E6E:PROC
EXTRN	s370_1EBF:PROC
EXTRN	z900_1E70:PROC
EXTRN	s390_1E6F:PROC
EXTRN	s370_1EC0:PROC
EXTRN	z900_1E71:PROC
EXTRN	s390_1E70:PROC
EXTRN	s370_1EC1:PROC
EXTRN	z900_1E72:PROC
EXTRN	s390_1E71:PROC
EXTRN	s370_1EC2:PROC
EXTRN	z900_1E73:PROC
EXTRN	s390_1E72:PROC
EXTRN	s370_1EC3:PROC
EXTRN	z900_1E74:PROC
EXTRN	s390_1E73:PROC
EXTRN	s370_1EC4:PROC
EXTRN	z900_1E75:PROC
EXTRN	s390_1E74:PROC
EXTRN	s370_1EC5:PROC
EXTRN	z900_1E76:PROC
EXTRN	s390_1E75:PROC
EXTRN	s370_1EC6:PROC
EXTRN	z900_1E77:PROC
EXTRN	s390_1E76:PROC
EXTRN	s370_1EC7:PROC
EXTRN	z900_1E78:PROC
EXTRN	s390_1E77:PROC
EXTRN	s370_1EC8:PROC
EXTRN	z900_1E79:PROC
EXTRN	s390_1E78:PROC
EXTRN	s370_1EC9:PROC
EXTRN	z900_1E7A:PROC
EXTRN	s390_1E79:PROC
EXTRN	s370_1ECA:PROC
EXTRN	z900_1E7B:PROC
EXTRN	s390_1E7A:PROC
EXTRN	s370_1ECB:PROC
EXTRN	z900_1E7C:PROC
EXTRN	s390_1E7B:PROC
EXTRN	s370_1ECC:PROC
EXTRN	z900_1E7D:PROC
EXTRN	s390_1E7C:PROC
EXTRN	s370_1ECD:PROC
EXTRN	z900_1E7E:PROC
EXTRN	s390_1E7D:PROC
EXTRN	s370_1ECE:PROC
EXTRN	z900_1E7F:PROC
EXTRN	s390_1E7E:PROC
EXTRN	s370_1ECF:PROC
EXTRN	z900_1E80:PROC
EXTRN	s390_1E7F:PROC
EXTRN	s370_1ED0:PROC
EXTRN	z900_1E81:PROC
EXTRN	s390_1E80:PROC
EXTRN	s370_1ED1:PROC
EXTRN	z900_1E82:PROC
EXTRN	s390_1E81:PROC
EXTRN	s370_1ED2:PROC
EXTRN	z900_1E83:PROC
EXTRN	s390_1E82:PROC
EXTRN	s370_1ED3:PROC
EXTRN	z900_1E84:PROC
EXTRN	s390_1E83:PROC
EXTRN	s370_1ED4:PROC
EXTRN	z900_1E85:PROC
EXTRN	s390_1E84:PROC
EXTRN	s370_1ED5:PROC
EXTRN	z900_1E86:PROC
EXTRN	s390_1E85:PROC
EXTRN	s370_1ED6:PROC
EXTRN	z900_1E87:PROC
EXTRN	s390_1E86:PROC
EXTRN	s370_1ED7:PROC
EXTRN	z900_1E88:PROC
EXTRN	s390_1E87:PROC
EXTRN	s370_1ED8:PROC
EXTRN	z900_1E89:PROC
EXTRN	s390_1E88:PROC
EXTRN	s370_1ED9:PROC
EXTRN	z900_1E8A:PROC
EXTRN	s390_1E89:PROC
EXTRN	s370_1EDA:PROC
EXTRN	z900_1E8B:PROC
EXTRN	s390_1E8A:PROC
EXTRN	s370_1EDB:PROC
EXTRN	z900_1E8C:PROC
EXTRN	s390_1E8B:PROC
EXTRN	s370_1EDC:PROC
EXTRN	z900_1E8D:PROC
EXTRN	s390_1E8C:PROC
EXTRN	s370_1EDD:PROC
EXTRN	z900_1E8E:PROC
EXTRN	s390_1E8D:PROC
EXTRN	s370_1EDE:PROC
EXTRN	z900_1E8F:PROC
EXTRN	s390_1E8E:PROC
EXTRN	s370_1EDF:PROC
EXTRN	z900_1E90:PROC
EXTRN	s390_1E8F:PROC
EXTRN	s370_1EE0:PROC
EXTRN	z900_1E91:PROC
EXTRN	s390_1E90:PROC
EXTRN	s370_1EE1:PROC
EXTRN	z900_1E92:PROC
EXTRN	s390_1E91:PROC
EXTRN	s370_1EE2:PROC
EXTRN	z900_1E93:PROC
EXTRN	s390_1E92:PROC
EXTRN	s370_1EE3:PROC
EXTRN	z900_1E94:PROC
EXTRN	s390_1E93:PROC
EXTRN	s370_1EE4:PROC
EXTRN	z900_1E95:PROC
EXTRN	s390_1E94:PROC
EXTRN	s370_1EE5:PROC
EXTRN	z900_1E96:PROC
EXTRN	s390_1E95:PROC
EXTRN	s370_1EE6:PROC
EXTRN	z900_1E97:PROC
EXTRN	s390_1E96:PROC
EXTRN	s370_1EE7:PROC
EXTRN	z900_1E98:PROC
EXTRN	s390_1E97:PROC
EXTRN	s370_1EE8:PROC
EXTRN	z900_1E99:PROC
EXTRN	s390_1E98:PROC
EXTRN	s370_1EE9:PROC
EXTRN	z900_1E9A:PROC
EXTRN	s390_1E99:PROC
EXTRN	s370_1EEA:PROC
EXTRN	z900_1E9B:PROC
EXTRN	s390_1E9A:PROC
EXTRN	s370_1EEB:PROC
EXTRN	z900_1E9C:PROC
EXTRN	s390_1E9B:PROC
EXTRN	s370_1EEC:PROC
EXTRN	z900_1E9D:PROC
EXTRN	s390_1E9C:PROC
EXTRN	s370_1EED:PROC
EXTRN	z900_1E9E:PROC
EXTRN	s390_1E9D:PROC
EXTRN	s370_1EEE:PROC
EXTRN	z900_1E9F:PROC
EXTRN	s390_1E9E:PROC
EXTRN	s370_1EEF:PROC
EXTRN	z900_1EA0:PROC
EXTRN	s390_1E9F:PROC
EXTRN	s370_1EF0:PROC
EXTRN	z900_1EA1:PROC
EXTRN	s390_1EA0:PROC
EXTRN	s370_1EF1:PROC
EXTRN	z900_1EA2:PROC
EXTRN	s390_1EA1:PROC
EXTRN	s370_1EF2:PROC
EXTRN	z900_1EA3:PROC
EXTRN	s390_1EA2:PROC
EXTRN	s370_1EF3:PROC
EXTRN	z900_1EA4:PROC
EXTRN	s390_1EA3:PROC
EXTRN	s370_1EF4:PROC
EXTRN	z900_1EA5:PROC
EXTRN	s390_1EA4:PROC
EXTRN	s370_1EF5:PROC
EXTRN	z900_1EA6:PROC
EXTRN	s390_1EA5:PROC
EXTRN	s370_1EF6:PROC
EXTRN	z900_1EA7:PROC
EXTRN	s390_1EA6:PROC
EXTRN	s370_1EF7:PROC
EXTRN	z900_1EA8:PROC
EXTRN	s390_1EA7:PROC
EXTRN	s370_1EF8:PROC
EXTRN	z900_1EA9:PROC
EXTRN	s390_1EA8:PROC
EXTRN	s370_1EF9:PROC
EXTRN	z900_1EAA:PROC
EXTRN	s390_1EA9:PROC
EXTRN	s370_1EFA:PROC
EXTRN	z900_1EAB:PROC
EXTRN	s390_1EAA:PROC
EXTRN	s370_1EFB:PROC
EXTRN	z900_1EAC:PROC
EXTRN	s390_1EAB:PROC
EXTRN	s370_1EFC:PROC
EXTRN	z900_1EAD:PROC
EXTRN	s390_1EAC:PROC
EXTRN	s370_1EFD:PROC
EXTRN	z900_1EAE:PROC
EXTRN	s390_1EAD:PROC
EXTRN	s370_1EFE:PROC
EXTRN	z900_1EAF:PROC
EXTRN	s390_1EAE:PROC
EXTRN	s370_1EFF:PROC
EXTRN	z900_1EB0:PROC
EXTRN	s370_1500:PROC
EXTRN	s390_1EAF:PROC
EXTRN	z900_1EB1:PROC
EXTRN	s370_1501:PROC
EXTRN	s390_1EB0:PROC
EXTRN	z900_1EB2:PROC
EXTRN	s370_1502:PROC
EXTRN	s390_1EB1:PROC
EXTRN	z900_1EB3:PROC
EXTRN	s370_1503:PROC
EXTRN	s390_1EB2:PROC
EXTRN	z900_1EB4:PROC
EXTRN	s370_1504:PROC
EXTRN	s390_1EB3:PROC
EXTRN	z900_1EB5:PROC
EXTRN	s370_1505:PROC
EXTRN	s390_1EB4:PROC
EXTRN	z900_1EB6:PROC
EXTRN	s370_1506:PROC
EXTRN	s390_1EB5:PROC
EXTRN	z900_1EB7:PROC
EXTRN	s370_1507:PROC
EXTRN	s390_1EB6:PROC
EXTRN	z900_1EB8:PROC
EXTRN	s370_1508:PROC
EXTRN	s390_1EB7:PROC
EXTRN	z900_1EB9:PROC
EXTRN	s370_1509:PROC
EXTRN	s390_1EB8:PROC
EXTRN	z900_1EBA:PROC
EXTRN	s370_150A:PROC
EXTRN	s390_1EB9:PROC
EXTRN	z900_1EBB:PROC
EXTRN	s370_150B:PROC
EXTRN	s390_1EBA:PROC
EXTRN	z900_1EBC:PROC
EXTRN	s370_150C:PROC
EXTRN	s390_1EBB:PROC
EXTRN	z900_1EBD:PROC
EXTRN	s370_150D:PROC
EXTRN	s390_1EBC:PROC
EXTRN	z900_1EBE:PROC
EXTRN	s370_150E:PROC
EXTRN	s390_1EBD:PROC
EXTRN	z900_1EBF:PROC
EXTRN	s370_150F:PROC
EXTRN	s390_1EBE:PROC
EXTRN	z900_1EC0:PROC
EXTRN	s370_1510:PROC
EXTRN	s390_1EBF:PROC
EXTRN	z900_1EC1:PROC
EXTRN	s370_1511:PROC
EXTRN	s390_1EC0:PROC
EXTRN	z900_1EC2:PROC
EXTRN	s370_1512:PROC
EXTRN	s390_1EC1:PROC
EXTRN	z900_1EC3:PROC
EXTRN	s370_1513:PROC
EXTRN	s390_1EC2:PROC
EXTRN	z900_1EC4:PROC
EXTRN	s370_1514:PROC
EXTRN	s390_1EC3:PROC
EXTRN	z900_1EC5:PROC
EXTRN	s370_1515:PROC
EXTRN	s390_1EC4:PROC
EXTRN	z900_1EC6:PROC
EXTRN	s370_1516:PROC
EXTRN	s390_1EC5:PROC
EXTRN	z900_1EC7:PROC
EXTRN	s370_1517:PROC
EXTRN	s390_1EC6:PROC
EXTRN	z900_1EC8:PROC
EXTRN	s370_1518:PROC
EXTRN	s390_1EC7:PROC
EXTRN	z900_1EC9:PROC
EXTRN	s370_1519:PROC
EXTRN	s390_1EC8:PROC
EXTRN	z900_1ECA:PROC
EXTRN	s370_151A:PROC
EXTRN	s390_1EC9:PROC
EXTRN	z900_1ECB:PROC
EXTRN	s370_151B:PROC
EXTRN	s390_1ECA:PROC
EXTRN	z900_1ECC:PROC
EXTRN	s370_151C:PROC
EXTRN	s390_1ECB:PROC
EXTRN	z900_1ECD:PROC
EXTRN	s370_151D:PROC
EXTRN	s390_1ECC:PROC
EXTRN	z900_1ECE:PROC
EXTRN	s370_151E:PROC
EXTRN	s390_1ECD:PROC
EXTRN	z900_1ECF:PROC
EXTRN	s370_151F:PROC
EXTRN	s390_1ECE:PROC
EXTRN	z900_1ED0:PROC
EXTRN	s370_1520:PROC
EXTRN	s390_1ECF:PROC
EXTRN	z900_1ED1:PROC
EXTRN	s370_1521:PROC
EXTRN	s390_1ED0:PROC
EXTRN	z900_1ED2:PROC
EXTRN	s370_1522:PROC
EXTRN	s390_1ED1:PROC
EXTRN	z900_1ED3:PROC
EXTRN	s370_1523:PROC
EXTRN	s390_1ED2:PROC
EXTRN	z900_1ED4:PROC
EXTRN	s370_1524:PROC
EXTRN	s390_1ED3:PROC
EXTRN	z900_1ED5:PROC
EXTRN	s370_1525:PROC
EXTRN	s390_1ED4:PROC
EXTRN	z900_1ED6:PROC
EXTRN	s370_1526:PROC
EXTRN	s390_1ED5:PROC
EXTRN	z900_1ED7:PROC
EXTRN	s370_1527:PROC
EXTRN	s390_1ED6:PROC
EXTRN	z900_1ED8:PROC
EXTRN	s370_1528:PROC
EXTRN	s390_1ED7:PROC
EXTRN	z900_1ED9:PROC
EXTRN	s370_1529:PROC
EXTRN	s390_1ED8:PROC
EXTRN	z900_1EDA:PROC
EXTRN	s370_152A:PROC
EXTRN	s390_1ED9:PROC
EXTRN	z900_1EDB:PROC
EXTRN	s370_152B:PROC
EXTRN	s390_1EDA:PROC
EXTRN	z900_1EDC:PROC
EXTRN	s370_152C:PROC
EXTRN	s390_1EDB:PROC
EXTRN	z900_1EDD:PROC
EXTRN	s370_152D:PROC
EXTRN	s390_1EDC:PROC
EXTRN	z900_1EDE:PROC
EXTRN	s370_152E:PROC
EXTRN	s390_1EDD:PROC
EXTRN	z900_1EDF:PROC
EXTRN	s370_152F:PROC
EXTRN	s390_1EDE:PROC
EXTRN	z900_1EE0:PROC
EXTRN	s370_1530:PROC
EXTRN	s390_1EDF:PROC
EXTRN	z900_1EE1:PROC
EXTRN	s370_1531:PROC
EXTRN	s390_1EE0:PROC
EXTRN	z900_1EE2:PROC
EXTRN	s370_1532:PROC
EXTRN	s390_1EE1:PROC
EXTRN	z900_1EE3:PROC
EXTRN	s370_1533:PROC
EXTRN	s390_1EE2:PROC
EXTRN	z900_1EE4:PROC
EXTRN	s370_1534:PROC
EXTRN	s390_1EE3:PROC
EXTRN	z900_1EE5:PROC
EXTRN	s370_1535:PROC
EXTRN	s390_1EE4:PROC
EXTRN	z900_1EE6:PROC
EXTRN	s370_1536:PROC
EXTRN	s390_1EE5:PROC
EXTRN	z900_1EE7:PROC
EXTRN	s370_1537:PROC
EXTRN	s390_1EE6:PROC
EXTRN	z900_1EE8:PROC
EXTRN	s370_1538:PROC
EXTRN	s390_1EE7:PROC
EXTRN	z900_1EE9:PROC
EXTRN	s370_1539:PROC
EXTRN	s390_1EE8:PROC
EXTRN	z900_1EEA:PROC
EXTRN	s370_153A:PROC
EXTRN	s390_1EE9:PROC
EXTRN	z900_1EEB:PROC
EXTRN	s370_153B:PROC
EXTRN	s390_1EEA:PROC
EXTRN	z900_1EEC:PROC
EXTRN	s370_153C:PROC
EXTRN	s390_1EEB:PROC
EXTRN	z900_1EED:PROC
EXTRN	s370_153D:PROC
EXTRN	s390_1EEC:PROC
EXTRN	z900_1EEE:PROC
EXTRN	s370_153E:PROC
EXTRN	s390_1EED:PROC
EXTRN	z900_1EEF:PROC
EXTRN	s370_153F:PROC
EXTRN	s390_1EEE:PROC
EXTRN	z900_1EF0:PROC
EXTRN	s370_1540:PROC
EXTRN	s390_1EEF:PROC
EXTRN	z900_1EF1:PROC
EXTRN	s370_1541:PROC
EXTRN	s390_1EF0:PROC
EXTRN	z900_1EF2:PROC
EXTRN	s370_1542:PROC
EXTRN	s390_1EF1:PROC
EXTRN	z900_1EF3:PROC
EXTRN	s370_1543:PROC
EXTRN	s390_1EF2:PROC
EXTRN	z900_1EF4:PROC
EXTRN	s370_1544:PROC
EXTRN	s390_1EF3:PROC
EXTRN	z900_1EF5:PROC
EXTRN	s370_1545:PROC
EXTRN	s390_1EF4:PROC
EXTRN	z900_1EF6:PROC
EXTRN	s370_1546:PROC
EXTRN	s390_1EF5:PROC
EXTRN	z900_1EF7:PROC
EXTRN	s370_1547:PROC
EXTRN	s390_1EF6:PROC
EXTRN	z900_1EF8:PROC
EXTRN	s370_1548:PROC
EXTRN	s390_1EF7:PROC
EXTRN	z900_1EF9:PROC
EXTRN	s370_1549:PROC
EXTRN	s390_1EF8:PROC
EXTRN	z900_1EFA:PROC
EXTRN	s370_154A:PROC
EXTRN	s390_1EF9:PROC
EXTRN	z900_1EFB:PROC
EXTRN	s370_154B:PROC
EXTRN	s390_1EFA:PROC
EXTRN	z900_1EFC:PROC
EXTRN	s370_154C:PROC
EXTRN	s390_1EFB:PROC
EXTRN	z900_1EFD:PROC
EXTRN	s370_154D:PROC
EXTRN	s390_1EFC:PROC
EXTRN	z900_1EFE:PROC
EXTRN	s370_154E:PROC
EXTRN	s390_1EFD:PROC
EXTRN	z900_1EFF:PROC
EXTRN	s370_154F:PROC
EXTRN	s390_1EFE:PROC
EXTRN	z900_1500:PROC
EXTRN	s370_1550:PROC
EXTRN	s390_1EFF:PROC
EXTRN	z900_1501:PROC
EXTRN	s390_1500:PROC
EXTRN	s370_1551:PROC
EXTRN	z900_1502:PROC
EXTRN	s390_1501:PROC
EXTRN	s370_1552:PROC
EXTRN	z900_1503:PROC
EXTRN	s390_1502:PROC
EXTRN	s370_1553:PROC
EXTRN	z900_1504:PROC
EXTRN	s390_1503:PROC
EXTRN	s370_1554:PROC
EXTRN	z900_1505:PROC
EXTRN	s390_1504:PROC
EXTRN	s370_1555:PROC
EXTRN	z900_1506:PROC
EXTRN	s390_1505:PROC
EXTRN	s370_1556:PROC
EXTRN	z900_1507:PROC
EXTRN	s390_1506:PROC
EXTRN	s370_1557:PROC
EXTRN	z900_1508:PROC
EXTRN	s390_1507:PROC
EXTRN	s370_1558:PROC
EXTRN	z900_1509:PROC
EXTRN	s390_1508:PROC
EXTRN	s370_1559:PROC
EXTRN	z900_150A:PROC
EXTRN	s390_1509:PROC
EXTRN	s370_155A:PROC
EXTRN	z900_150B:PROC
EXTRN	s390_150A:PROC
EXTRN	s370_155B:PROC
EXTRN	z900_150C:PROC
EXTRN	s390_150B:PROC
EXTRN	s370_155C:PROC
EXTRN	z900_150D:PROC
EXTRN	s390_150C:PROC
EXTRN	s370_155D:PROC
EXTRN	z900_150E:PROC
EXTRN	s390_150D:PROC
EXTRN	s370_155E:PROC
EXTRN	z900_150F:PROC
EXTRN	s390_150E:PROC
EXTRN	s370_155F:PROC
EXTRN	z900_1510:PROC
EXTRN	s390_150F:PROC
EXTRN	s370_1560:PROC
EXTRN	z900_1511:PROC
EXTRN	s390_1510:PROC
EXTRN	s370_1561:PROC
EXTRN	z900_1512:PROC
EXTRN	s390_1511:PROC
EXTRN	s370_1562:PROC
EXTRN	z900_1513:PROC
EXTRN	s390_1512:PROC
EXTRN	s370_1563:PROC
EXTRN	z900_1514:PROC
EXTRN	s390_1513:PROC
EXTRN	s370_1564:PROC
EXTRN	z900_1515:PROC
EXTRN	s390_1514:PROC
EXTRN	s370_1565:PROC
EXTRN	z900_1516:PROC
EXTRN	s390_1515:PROC
EXTRN	s370_1566:PROC
EXTRN	z900_1517:PROC
EXTRN	s390_1516:PROC
EXTRN	s370_1567:PROC
EXTRN	z900_1518:PROC
EXTRN	s390_1517:PROC
EXTRN	s370_1568:PROC
EXTRN	z900_1519:PROC
EXTRN	s390_1518:PROC
EXTRN	s370_1569:PROC
EXTRN	z900_151A:PROC
EXTRN	s390_1519:PROC
EXTRN	s370_156A:PROC
EXTRN	z900_151B:PROC
EXTRN	s390_151A:PROC
EXTRN	s370_156B:PROC
EXTRN	z900_151C:PROC
EXTRN	s390_151B:PROC
EXTRN	s370_156C:PROC
EXTRN	z900_151D:PROC
EXTRN	s390_151C:PROC
EXTRN	s370_156D:PROC
EXTRN	z900_151E:PROC
EXTRN	s390_151D:PROC
EXTRN	s370_156E:PROC
EXTRN	z900_151F:PROC
EXTRN	s390_151E:PROC
EXTRN	s370_156F:PROC
EXTRN	z900_1520:PROC
EXTRN	s390_151F:PROC
EXTRN	s370_1570:PROC
EXTRN	z900_1521:PROC
EXTRN	s390_1520:PROC
EXTRN	s370_1571:PROC
EXTRN	z900_1522:PROC
EXTRN	s390_1521:PROC
EXTRN	s370_1572:PROC
EXTRN	z900_1523:PROC
EXTRN	s390_1522:PROC
EXTRN	s370_1573:PROC
EXTRN	z900_1524:PROC
EXTRN	s390_1523:PROC
EXTRN	s370_1574:PROC
EXTRN	z900_1525:PROC
EXTRN	s390_1524:PROC
EXTRN	s370_1575:PROC
EXTRN	z900_1526:PROC
EXTRN	s390_1525:PROC
EXTRN	s370_1576:PROC
EXTRN	z900_1527:PROC
EXTRN	s390_1526:PROC
EXTRN	s370_1577:PROC
EXTRN	z900_1528:PROC
EXTRN	s390_1527:PROC
EXTRN	s370_1578:PROC
EXTRN	z900_1529:PROC
EXTRN	s390_1528:PROC
EXTRN	s370_1579:PROC
EXTRN	z900_152A:PROC
EXTRN	s390_1529:PROC
EXTRN	s370_157A:PROC
EXTRN	z900_152B:PROC
EXTRN	s390_152A:PROC
EXTRN	s370_157B:PROC
EXTRN	z900_152C:PROC
EXTRN	s390_152B:PROC
EXTRN	s370_157C:PROC
EXTRN	z900_152D:PROC
EXTRN	s390_152C:PROC
EXTRN	s370_157D:PROC
EXTRN	z900_152E:PROC
EXTRN	s390_152D:PROC
EXTRN	s370_157E:PROC
EXTRN	z900_152F:PROC
EXTRN	s390_152E:PROC
EXTRN	s370_157F:PROC
EXTRN	z900_1530:PROC
EXTRN	s390_152F:PROC
EXTRN	s370_1580:PROC
EXTRN	z900_1531:PROC
EXTRN	s390_1530:PROC
EXTRN	s370_1581:PROC
EXTRN	z900_1532:PROC
EXTRN	s390_1531:PROC
EXTRN	s370_1582:PROC
EXTRN	z900_1533:PROC
EXTRN	s390_1532:PROC
EXTRN	s370_1583:PROC
EXTRN	z900_1534:PROC
EXTRN	s390_1533:PROC
EXTRN	s370_1584:PROC
EXTRN	z900_1535:PROC
EXTRN	s390_1534:PROC
EXTRN	s370_1585:PROC
EXTRN	z900_1536:PROC
EXTRN	s390_1535:PROC
EXTRN	s370_1586:PROC
EXTRN	z900_1537:PROC
EXTRN	s390_1536:PROC
EXTRN	s370_1587:PROC
EXTRN	z900_1538:PROC
EXTRN	s390_1537:PROC
EXTRN	s370_1588:PROC
EXTRN	z900_1539:PROC
EXTRN	s390_1538:PROC
EXTRN	s370_1589:PROC
EXTRN	z900_153A:PROC
EXTRN	s390_1539:PROC
EXTRN	s370_158A:PROC
EXTRN	z900_153B:PROC
EXTRN	s390_153A:PROC
EXTRN	s370_158B:PROC
EXTRN	z900_153C:PROC
EXTRN	s390_153B:PROC
EXTRN	s370_158C:PROC
EXTRN	z900_153D:PROC
EXTRN	s390_153C:PROC
EXTRN	s370_158D:PROC
EXTRN	z900_153E:PROC
EXTRN	s390_153D:PROC
EXTRN	s370_158E:PROC
EXTRN	z900_153F:PROC
EXTRN	s390_153E:PROC
EXTRN	s370_158F:PROC
EXTRN	z900_1540:PROC
EXTRN	s390_153F:PROC
EXTRN	s370_1590:PROC
EXTRN	z900_1541:PROC
EXTRN	s390_1540:PROC
EXTRN	s370_1591:PROC
EXTRN	z900_1542:PROC
EXTRN	s390_1541:PROC
EXTRN	s370_1592:PROC
EXTRN	z900_1543:PROC
EXTRN	s390_1542:PROC
EXTRN	s370_1593:PROC
EXTRN	z900_1544:PROC
EXTRN	s390_1543:PROC
EXTRN	s370_1594:PROC
EXTRN	z900_1545:PROC
EXTRN	s390_1544:PROC
EXTRN	s370_1595:PROC
EXTRN	z900_1546:PROC
EXTRN	s390_1545:PROC
EXTRN	s370_1596:PROC
EXTRN	z900_1547:PROC
EXTRN	s390_1546:PROC
EXTRN	s370_1597:PROC
EXTRN	z900_1548:PROC
EXTRN	s390_1547:PROC
EXTRN	s370_1598:PROC
EXTRN	z900_1549:PROC
EXTRN	s390_1548:PROC
EXTRN	s370_1599:PROC
EXTRN	z900_154A:PROC
EXTRN	s390_1549:PROC
EXTRN	s370_159A:PROC
EXTRN	z900_154B:PROC
EXTRN	s390_154A:PROC
EXTRN	s370_159B:PROC
EXTRN	z900_154C:PROC
EXTRN	s390_154B:PROC
EXTRN	s370_159C:PROC
EXTRN	z900_154D:PROC
EXTRN	s390_154C:PROC
EXTRN	s370_159D:PROC
EXTRN	z900_154E:PROC
EXTRN	s390_154D:PROC
EXTRN	s370_159E:PROC
EXTRN	z900_154F:PROC
EXTRN	s390_154E:PROC
EXTRN	s370_159F:PROC
EXTRN	z900_1550:PROC
EXTRN	s390_154F:PROC
EXTRN	s370_15A0:PROC
EXTRN	z900_1551:PROC
EXTRN	s390_1550:PROC
EXTRN	s370_15A1:PROC
EXTRN	z900_1552:PROC
EXTRN	s390_1551:PROC
EXTRN	s370_15A2:PROC
EXTRN	z900_1553:PROC
EXTRN	s390_1552:PROC
EXTRN	s370_15A3:PROC
EXTRN	z900_1554:PROC
EXTRN	s390_1553:PROC
EXTRN	s370_15A4:PROC
EXTRN	z900_1555:PROC
EXTRN	s390_1554:PROC
EXTRN	s370_15A5:PROC
EXTRN	z900_1556:PROC
EXTRN	s390_1555:PROC
EXTRN	s370_15A6:PROC
EXTRN	z900_1557:PROC
EXTRN	s390_1556:PROC
EXTRN	s370_15A7:PROC
EXTRN	z900_1558:PROC
EXTRN	s390_1557:PROC
EXTRN	s370_15A8:PROC
EXTRN	z900_1559:PROC
EXTRN	s390_1558:PROC
EXTRN	s370_15A9:PROC
EXTRN	z900_155A:PROC
EXTRN	s390_1559:PROC
EXTRN	s370_15AA:PROC
EXTRN	z900_155B:PROC
EXTRN	s390_155A:PROC
EXTRN	s370_15AB:PROC
EXTRN	z900_155C:PROC
EXTRN	s390_155B:PROC
EXTRN	s370_15AC:PROC
EXTRN	z900_155D:PROC
EXTRN	s390_155C:PROC
EXTRN	s370_15AD:PROC
EXTRN	z900_155E:PROC
EXTRN	s390_155D:PROC
EXTRN	s370_15AE:PROC
EXTRN	z900_155F:PROC
EXTRN	s390_155E:PROC
EXTRN	s370_15AF:PROC
EXTRN	z900_1560:PROC
EXTRN	s390_155F:PROC
EXTRN	s370_15B0:PROC
EXTRN	z900_1561:PROC
EXTRN	s390_1560:PROC
EXTRN	s370_15B1:PROC
EXTRN	z900_1562:PROC
EXTRN	s390_1561:PROC
EXTRN	s370_15B2:PROC
EXTRN	z900_add_logical_carry:PROC
EXTRN	z900_1563:PROC
EXTRN	s390_1562:PROC
EXTRN	s370_15B3:PROC
EXTRN	z900_add_logical_carry_register:PROC
EXTRN	z900_1564:PROC
EXTRN	s390_1563:PROC
EXTRN	s370_15B4:PROC
EXTRN	z900_branch_relative_and_save_long:PROC
EXTRN	z900_1565:PROC
EXTRN	s390_1564:PROC
EXTRN	s370_15B5:PROC
EXTRN	z900_branch_relative_on_condition_long:PROC
EXTRN	z900_1566:PROC
EXTRN	s390_1565:PROC
EXTRN	s370_15B6:PROC
EXTRN	z900_divide_logical:PROC
EXTRN	z900_1567:PROC
EXTRN	s390_1566:PROC
EXTRN	s370_15B7:PROC
EXTRN	z900_divide_logical_register:PROC
EXTRN	z900_1568:PROC
EXTRN	s390_1567:PROC
EXTRN	s370_15B8:PROC
EXTRN	z900_extract_psw:PROC
EXTRN	z900_1569:PROC
EXTRN	s390_1568:PROC
EXTRN	s370_15B9:PROC
EXTRN	z900_load_address_relative_long:PROC
EXTRN	z900_156A:PROC
EXTRN	s390_1569:PROC
EXTRN	s370_15BA:PROC
EXTRN	z900_load_reversed:PROC
EXTRN	z900_156B:PROC
EXTRN	s390_156A:PROC
EXTRN	s370_15BB:PROC
EXTRN	z900_load_reversed_half:PROC
EXTRN	z900_156C:PROC
EXTRN	s390_156B:PROC
EXTRN	s370_15BC:PROC
EXTRN	z900_load_reversed_register:PROC
EXTRN	z900_156D:PROC
EXTRN	s390_156C:PROC
EXTRN	s370_15BD:PROC
EXTRN	z900_multiply_logical:PROC
EXTRN	z900_156E:PROC
EXTRN	s390_156D:PROC
EXTRN	s370_15BE:PROC
EXTRN	z900_multiply_logical_register:PROC
EXTRN	z900_156F:PROC
EXTRN	s390_156E:PROC
EXTRN	s370_15BF:PROC
EXTRN	z900_rotate_left_single_logical:PROC
EXTRN	z900_1570:PROC
EXTRN	s390_156F:PROC
EXTRN	s370_15C0:PROC
EXTRN	z900_set_addressing_mode_24:PROC
EXTRN	z900_1571:PROC
EXTRN	s390_1570:PROC
EXTRN	s370_15C1:PROC
EXTRN	z900_set_addressing_mode_31:PROC
EXTRN	z900_1572:PROC
EXTRN	s390_1571:PROC
EXTRN	s370_15C2:PROC
EXTRN	z900_store_facility_list:PROC
EXTRN	z900_1573:PROC
EXTRN	s390_1572:PROC
EXTRN	s370_15C3:PROC
EXTRN	z900_store_reversed:PROC
EXTRN	z900_1574:PROC
EXTRN	s390_1573:PROC
EXTRN	s370_15C4:PROC
EXTRN	z900_store_reversed_half:PROC
EXTRN	z900_1575:PROC
EXTRN	s390_1574:PROC
EXTRN	s370_15C5:PROC
EXTRN	z900_subtract_logical_borrow:PROC
EXTRN	z900_1576:PROC
EXTRN	s390_1575:PROC
EXTRN	s370_15C6:PROC
EXTRN	z900_subtract_logical_borrow_register:PROC
EXTRN	z900_1577:PROC
EXTRN	s390_1576:PROC
EXTRN	s370_15C7:PROC
EXTRN	z900_test_addressing_mode:PROC
EXTRN	z900_1578:PROC
EXTRN	s390_1577:PROC
EXTRN	s370_15C8:PROC
EXTRN	z900_compare_and_swap_and_purge_long:PROC
EXTRN	z900_1579:PROC
EXTRN	s390_1578:PROC
EXTRN	s370_15C9:PROC
EXTRN	z900_invalidate_dat_table_entry:PROC
EXTRN	z900_157A:PROC
EXTRN	s390_1579:PROC
EXTRN	s370_15CA:PROC
EXTRN	z900_extract_primary_asn_and_instance:PROC
EXTRN	z900_157B:PROC
EXTRN	s390_157A:PROC
EXTRN	s370_15CB:PROC
EXTRN	z900_extract_secondary_asn_and_instance:PROC
EXTRN	z900_157C:PROC
EXTRN	s390_157B:PROC
EXTRN	s370_15CC:PROC
EXTRN	z900_program_transfer_with_instance:PROC
EXTRN	z900_157D:PROC
EXTRN	s390_157C:PROC
EXTRN	s370_15CD:PROC
EXTRN	z900_set_secondary_asn_with_instance:PROC
EXTRN	z900_157E:PROC
EXTRN	s390_157D:PROC
EXTRN	s370_15CE:PROC
EXTRN	z900_store_facility_list_extended:PROC
EXTRN	z900_157F:PROC
EXTRN	s390_157E:PROC
EXTRN	s370_15CF:PROC
EXTRN	z900_perform_frame_management_function:PROC
EXTRN	z900_1580:PROC
EXTRN	s390_157F:PROC
EXTRN	s370_15D0:PROC
EXTRN	z900_perform_topology_function:PROC
EXTRN	z900_1581:PROC
EXTRN	s390_1580:PROC
EXTRN	s370_15D1:PROC
EXTRN	z900_pack_ascii:PROC
EXTRN	z900_1582:PROC
EXTRN	s390_1581:PROC
EXTRN	s370_15D2:PROC
EXTRN	z900_pack_unicode:PROC
EXTRN	z900_1583:PROC
EXTRN	s390_1582:PROC
EXTRN	s370_15D3:PROC
EXTRN	z900_unpack_ascii:PROC
EXTRN	z900_1584:PROC
EXTRN	s390_1583:PROC
EXTRN	s370_15D4:PROC
EXTRN	z900_unpack_unicode:PROC
EXTRN	s370_add_logical_carry:PROC
EXTRN	z900_1585:PROC
EXTRN	s390_1584:PROC
EXTRN	s370_15D5:PROC
EXTRN	s370_add_logical_carry_register:PROC
EXTRN	z900_test_decimal:PROC
EXTRN	z900_1586:PROC
EXTRN	s390_1585:PROC
EXTRN	s370_15D6:PROC
EXTRN	z900_translate_two_to_two:PROC
EXTRN	s370_branch_relative_and_save_long:PROC
EXTRN	z900_1587:PROC
EXTRN	s390_1586:PROC
EXTRN	s370_15D7:PROC
EXTRN	z900_translate_two_to_one:PROC
EXTRN	s370_branch_relative_on_condition_long:PROC
EXTRN	z900_1588:PROC
EXTRN	s390_1587:PROC
EXTRN	s370_15D8:PROC
EXTRN	z900_translate_one_to_two:PROC
EXTRN	s370_divide_logical:PROC
EXTRN	z900_1589:PROC
EXTRN	s390_1588:PROC
EXTRN	s370_15D9:PROC
EXTRN	z900_translate_one_to_one:PROC
EXTRN	s370_divide_logical_register:PROC
EXTRN	z900_158A:PROC
EXTRN	s390_1589:PROC
EXTRN	s370_15DA:PROC
EXTRN	s370_extract_psw:PROC
EXTRN	z900_move_long_unicode:PROC
EXTRN	z900_158B:PROC
EXTRN	s390_158A:PROC
EXTRN	s370_15DB:PROC
EXTRN	s370_load_address_relative_long:PROC
EXTRN	z900_compare_logical_long_unicode:PROC
EXTRN	z900_158C:PROC
EXTRN	s390_158B:PROC
EXTRN	s370_15DC:PROC
EXTRN	s370_load_reversed:PROC
EXTRN	z900_158D:PROC
EXTRN	s390_158C:PROC
EXTRN	s370_15DD:PROC
EXTRN	s370_load_reversed_half:PROC
EXTRN	z900_158E:PROC
EXTRN	s390_158D:PROC
EXTRN	s370_15DE:PROC
EXTRN	s370_load_reversed_register:PROC
EXTRN	z900_158F:PROC
EXTRN	s390_158E:PROC
EXTRN	s370_15DF:PROC
EXTRN	s370_multiply_logical:PROC
EXTRN	z900_1590:PROC
EXTRN	s390_158F:PROC
EXTRN	s370_15E0:PROC
EXTRN	s370_multiply_logical_register:PROC
EXTRN	z900_1591:PROC
EXTRN	s390_1590:PROC
EXTRN	s370_15E1:PROC
EXTRN	z900_add_y:PROC
EXTRN	s370_rotate_left_single_logical:PROC
EXTRN	z900_1592:PROC
EXTRN	s390_1591:PROC
EXTRN	s370_15E2:PROC
EXTRN	s370_set_addressing_mode_24:PROC
EXTRN	z900_add_halfword_y:PROC
EXTRN	z900_1593:PROC
EXTRN	s390_1592:PROC
EXTRN	s370_15E3:PROC
EXTRN	s370_set_addressing_mode_31:PROC
EXTRN	z900_add_logical_y:PROC
EXTRN	z900_1594:PROC
EXTRN	s390_1593:PROC
EXTRN	s370_15E4:PROC
EXTRN	z900_and_immediate_y:PROC
EXTRN	z900_1595:PROC
EXTRN	s390_1594:PROC
EXTRN	s370_15E5:PROC
EXTRN	s370_store_reversed:PROC
EXTRN	z900_and_y:PROC
EXTRN	z900_1596:PROC
EXTRN	s390_1595:PROC
EXTRN	s370_15E6:PROC
EXTRN	s370_store_reversed_half:PROC
EXTRN	z900_compare_y:PROC
EXTRN	z900_1597:PROC
EXTRN	s390_1596:PROC
EXTRN	s370_15E7:PROC
EXTRN	s370_subtract_logical_borrow:PROC
EXTRN	z900_compare_and_swap_y:PROC
EXTRN	z900_1598:PROC
EXTRN	s390_1597:PROC
EXTRN	s370_15E8:PROC
EXTRN	s370_subtract_logical_borrow_register:PROC
EXTRN	z900_compare_double_and_swap_y:PROC
EXTRN	z900_1599:PROC
EXTRN	s390_1598:PROC
EXTRN	s370_15E9:PROC
EXTRN	s370_test_addressing_mode:PROC
EXTRN	z900_compare_halfword_y:PROC
EXTRN	z900_159A:PROC
EXTRN	s390_1599:PROC
EXTRN	s370_15EA:PROC
EXTRN	s370_pack_ascii:PROC
EXTRN	z900_compare_logical_y:PROC
EXTRN	z900_159B:PROC
EXTRN	s390_159A:PROC
EXTRN	s370_15EB:PROC
EXTRN	s370_pack_unicode:PROC
EXTRN	z900_compare_logical_immediate_y:PROC
EXTRN	z900_159C:PROC
EXTRN	s390_159B:PROC
EXTRN	s370_15EC:PROC
EXTRN	s370_unpack_ascii:PROC
EXTRN	z900_compare_logical_characters_under_mask_y:PROC
EXTRN	z900_159D:PROC
EXTRN	s390_159C:PROC
EXTRN	s370_15ED:PROC
EXTRN	s370_unpack_unicode:PROC
EXTRN	z900_convert_to_binary_y:PROC
EXTRN	z900_159E:PROC
EXTRN	s390_159D:PROC
EXTRN	s370_15EE:PROC
EXTRN	z900_convert_to_decimal_y:PROC
EXTRN	s370_test_decimal:PROC
EXTRN	z900_159F:PROC
EXTRN	s390_159E:PROC
EXTRN	s370_15EF:PROC
EXTRN	s370_translate_two_to_two:PROC
EXTRN	z900_exclusive_or_immediate_y:PROC
EXTRN	z900_15A0:PROC
EXTRN	s390_159F:PROC
EXTRN	s370_15F0:PROC
EXTRN	s370_translate_two_to_one:PROC
EXTRN	z900_exclusive_or_y:PROC
EXTRN	z900_15A1:PROC
EXTRN	s390_15A0:PROC
EXTRN	s370_15F1:PROC
EXTRN	s370_translate_one_to_two:PROC
EXTRN	z900_insert_character_y:PROC
EXTRN	z900_15A2:PROC
EXTRN	s390_15A1:PROC
EXTRN	s370_15F2:PROC
EXTRN	s370_translate_one_to_one:PROC
EXTRN	z900_insert_characters_under_mask_y:PROC
EXTRN	z900_15A3:PROC
EXTRN	s390_15A2:PROC
EXTRN	s370_15F3:PROC
EXTRN	z900_load_y:PROC
EXTRN	s370_move_long_unicode:PROC
EXTRN	z900_15A4:PROC
EXTRN	s390_15A3:PROC
EXTRN	s370_15F4:PROC
EXTRN	z900_load_address_y:PROC
EXTRN	s370_compare_logical_long_unicode:PROC
EXTRN	z900_15A5:PROC
EXTRN	s390_15A4:PROC
EXTRN	s370_15F5:PROC
EXTRN	z900_load_byte:PROC
EXTRN	z900_15A6:PROC
EXTRN	s390_15A5:PROC
EXTRN	s370_15F6:PROC
EXTRN	z900_load_byte_long:PROC
EXTRN	z900_15A7:PROC
EXTRN	s390_15A6:PROC
EXTRN	s370_15F7:PROC
EXTRN	z900_load_halfword_y:PROC
EXTRN	z900_15A8:PROC
EXTRN	s390_15A7:PROC
EXTRN	s370_15F8:PROC
EXTRN	z900_load_multiple_y:PROC
EXTRN	z900_15A9:PROC
EXTRN	s390_15A8:PROC
EXTRN	s370_15F9:PROC
EXTRN	z900_load_real_address_y:PROC
EXTRN	z900_15AA:PROC
EXTRN	s390_15A9:PROC
EXTRN	s370_15FA:PROC
EXTRN	s370_add_y:PROC
EXTRN	z900_move_immediate_y:PROC
EXTRN	z900_15AB:PROC
EXTRN	s390_15AA:PROC
EXTRN	s370_15FB:PROC
EXTRN	z900_multiply_single_y:PROC
EXTRN	s370_add_halfword_y:PROC
EXTRN	z900_15AC:PROC
EXTRN	s390_15AB:PROC
EXTRN	s370_15FC:PROC
EXTRN	s370_add_logical_y:PROC
EXTRN	z900_or_immediate_y:PROC
EXTRN	z900_15AD:PROC
EXTRN	s390_15AC:PROC
EXTRN	s370_15FD:PROC
EXTRN	z900_or_y:PROC
EXTRN	z900_15AE:PROC
EXTRN	s390_15AD:PROC
EXTRN	s370_15FE:PROC
EXTRN	z900_store_y:PROC
EXTRN	s370_and_y:PROC
EXTRN	z900_15AF:PROC
EXTRN	s390_15AE:PROC
EXTRN	s370_15FF:PROC
EXTRN	s370_compare_y:PROC
EXTRN	z900_store_character_y:PROC
EXTRN	z900_15B0:PROC
EXTRN	s390_15AF:PROC
EXTRN	s370_4100:PROC
EXTRN	z900_store_characters_under_mask_y:PROC
EXTRN	z900_15B1:PROC
EXTRN	s390_15B0:PROC
EXTRN	s370_4110:PROC
EXTRN	z900_store_halfword_y:PROC
EXTRN	z900_15B2:PROC
EXTRN	s390_15B1:PROC
EXTRN	s370_4120:PROC
EXTRN	s370_compare_halfword_y:PROC
EXTRN	z900_store_multiple_y:PROC
EXTRN	z900_15B3:PROC
EXTRN	s390_15B2:PROC
EXTRN	s370_4130:PROC
EXTRN	s370_compare_logical_y:PROC
EXTRN	z900_subtract_y:PROC
EXTRN	z900_15B4:PROC
EXTRN	s390_15B3:PROC
EXTRN	s370_4140:PROC
EXTRN	z900_subtract_halfword_y:PROC
EXTRN	z900_15B5:PROC
EXTRN	s390_15B4:PROC
EXTRN	s370_4150:PROC
EXTRN	z900_subtract_logical_y:PROC
EXTRN	z900_15B6:PROC
EXTRN	s390_15B5:PROC
EXTRN	s370_4160:PROC
EXTRN	s370_convert_to_binary_y:PROC
EXTRN	z900_test_under_mask_y:PROC
EXTRN	z900_15B7:PROC
EXTRN	s390_15B6:PROC
EXTRN	s370_4170:PROC
EXTRN	s370_convert_to_decimal_y:PROC
EXTRN	z900_load_access_multiple_y:PROC
EXTRN	z900_15B8:PROC
EXTRN	s390_15B7:PROC
EXTRN	s370_4180:PROC
EXTRN	z900_store_access_multiple_y:PROC
EXTRN	z900_15B9:PROC
EXTRN	s390_15B8:PROC
EXTRN	s370_4190:PROC
EXTRN	s370_exclusive_or_y:PROC
EXTRN	z900_load_float_long_y:PROC
EXTRN	z900_15BA:PROC
EXTRN	s390_15B9:PROC
EXTRN	s370_41A0:PROC
EXTRN	z900_load_float_short_y:PROC
EXTRN	z900_15BB:PROC
EXTRN	s390_15BA:PROC
EXTRN	s370_41B0:PROC
EXTRN	z900_store_float_long_y:PROC
EXTRN	z900_15BC:PROC
EXTRN	s390_15BB:PROC
EXTRN	s370_41C0:PROC
EXTRN	s370_load_y:PROC
EXTRN	z900_store_float_short_y:PROC
EXTRN	z900_15BD:PROC
EXTRN	s390_15BC:PROC
EXTRN	s370_41D0:PROC
EXTRN	z900_multiply_add_float_short_reg:PROC
EXTRN	z900_15BE:PROC
EXTRN	s390_15BD:PROC
EXTRN	s370_41E0:PROC
EXTRN	z900_multiply_add_float_long_reg:PROC
EXTRN	s370_load_byte:PROC
EXTRN	z900_15BF:PROC
EXTRN	s390_15BE:PROC
EXTRN	s370_41F0:PROC
EXTRN	z900_multiply_add_float_short:PROC
EXTRN	z900_15C0:PROC
EXTRN	s390_15BF:PROC
EXTRN	s370_47_0:PROC
EXTRN	s370_load_halfword_y:PROC
EXTRN	z900_multiply_add_float_long:PROC
EXTRN	z900_15C1:PROC
EXTRN	s390_15C0:PROC
EXTRN	s370_nop4:PROC
EXTRN	z900_multiply_subtract_float_short_reg:PROC
EXTRN	z900_15C2:PROC
EXTRN	s390_15C1:PROC
EXTRN	s370_4710:PROC
EXTRN	z900_multiply_subtract_float_long_reg:PROC
EXTRN	z900_15C3:PROC
EXTRN	s390_15C2:PROC
EXTRN	s370_4720:PROC
EXTRN	z900_multiply_subtract_float_short:PROC
EXTRN	z900_15C4:PROC
EXTRN	s390_15C3:PROC
EXTRN	s370_4730:PROC
EXTRN	s370_multiply_single_y:PROC
EXTRN	z900_multiply_subtract_float_long:PROC
EXTRN	z900_15C5:PROC
EXTRN	s390_15C4:PROC
EXTRN	s370_4740:PROC
EXTRN	z900_add_fullword_immediate:PROC
EXTRN	z900_15C6:PROC
EXTRN	s390_15C5:PROC
EXTRN	s370_4750:PROC
EXTRN	z900_add_long_fullword_immediate:PROC
EXTRN	s370_or_y:PROC
EXTRN	z900_15C7:PROC
EXTRN	s390_15C6:PROC
EXTRN	s370_4770:PROC
EXTRN	z900_add_logical_fullword_immediate:PROC
EXTRN	s370_store_y:PROC
EXTRN	z900_15C8:PROC
EXTRN	s390_15C7:PROC
EXTRN	s370_4780:PROC
EXTRN	z900_add_logical_long_fullword_immediate:PROC
EXTRN	z900_15C9:PROC
EXTRN	s390_15C8:PROC
EXTRN	s370_47A0:PROC
EXTRN	z900_and_immediate_high_fullword:PROC
EXTRN	z900_15CA:PROC
EXTRN	s390_15C9:PROC
EXTRN	s370_47B0:PROC
EXTRN	z900_and_immediate_low_fullword:PROC
EXTRN	z900_15CB:PROC
EXTRN	s390_15CA:PROC
EXTRN	s370_47C0:PROC
EXTRN	z900_compare_fullword_immediate:PROC
EXTRN	z900_15CC:PROC
EXTRN	s390_15CB:PROC
EXTRN	s370_47D0:PROC
EXTRN	z900_compare_long_fullword_immediate:PROC
EXTRN	s370_subtract_y:PROC
EXTRN	z900_15CD:PROC
EXTRN	s390_15CC:PROC
EXTRN	s370_47E0:PROC
EXTRN	z900_compare_logical_fullword_immediate:PROC
EXTRN	s370_subtract_halfword_y:PROC
EXTRN	z900_15CE:PROC
EXTRN	s390_15CD:PROC
EXTRN	s370_47F0:PROC
EXTRN	z900_compare_logical_long_fullword_immediate:PROC
EXTRN	s370_subtract_logical_y:PROC
EXTRN	z900_15CF:PROC
EXTRN	s390_15CE:PROC
EXTRN	s370_5000:PROC
EXTRN	z900_exclusive_or_immediate_high_fullword:PROC
EXTRN	z900_15D0:PROC
EXTRN	s390_15CF:PROC
EXTRN	s370_5010:PROC
EXTRN	z900_exclusive_or_immediate_low_fullword:PROC
EXTRN	z900_15D1:PROC
EXTRN	s390_15D0:PROC
EXTRN	s370_5020:PROC
EXTRN	z900_insert_immediate_high_fullword:PROC
EXTRN	z900_15D2:PROC
EXTRN	s390_15D1:PROC
EXTRN	s370_5030:PROC
EXTRN	z900_insert_immediate_low_fullword:PROC
EXTRN	z900_15D3:PROC
EXTRN	s390_15D2:PROC
EXTRN	s370_5040:PROC
EXTRN	z900_load_long_fullword_immediate:PROC
EXTRN	z900_15D4:PROC
EXTRN	s390_15D3:PROC
EXTRN	s370_5050:PROC
EXTRN	s370_multiply_add_float_short_reg:PROC
EXTRN	z900_load_logical_immediate_high_fullword:PROC
EXTRN	z900_15D5:PROC
EXTRN	s390_15D4:PROC
EXTRN	s370_5060:PROC
EXTRN	s370_multiply_add_float_long_reg:PROC
EXTRN	z900_load_logical_immediate_low_fullword:PROC
EXTRN	z900_15D6:PROC
EXTRN	s390_15D5:PROC
EXTRN	s370_5070:PROC
EXTRN	z900_or_immediate_high_fullword:PROC
EXTRN	s370_multiply_add_float_short:PROC
EXTRN	z900_15D7:PROC
EXTRN	s390_15D6:PROC
EXTRN	s370_5080:PROC
EXTRN	z900_or_immediate_low_fullword:PROC
EXTRN	s370_multiply_add_float_long:PROC
EXTRN	z900_15D8:PROC
EXTRN	s390_15D7:PROC
EXTRN	s370_5090:PROC
EXTRN	s370_multiply_subtract_float_short_reg:PROC
EXTRN	z900_subtract_logical_fullword_immediate:PROC
EXTRN	z900_15D9:PROC
EXTRN	s390_15D8:PROC
EXTRN	s370_50A0:PROC
EXTRN	s370_multiply_subtract_float_long_reg:PROC
EXTRN	z900_subtract_logical_long_fullword_immediate:PROC
EXTRN	z900_15DA:PROC
EXTRN	s390_15D9:PROC
EXTRN	s370_50B0:PROC
EXTRN	z900_load_and_test:PROC
EXTRN	s370_multiply_subtract_float_short:PROC
EXTRN	z900_15DB:PROC
EXTRN	s390_15DA:PROC
EXTRN	s370_50C0:PROC
EXTRN	z900_load_and_test_long:PROC
EXTRN	s370_multiply_subtract_float_long:PROC
EXTRN	z900_15DC:PROC
EXTRN	s390_15DB:PROC
EXTRN	s370_50D0:PROC
EXTRN	z900_load_byte_register:PROC
EXTRN	s370_add_fullword_immediate:PROC
EXTRN	z900_15DD:PROC
EXTRN	s390_15DC:PROC
EXTRN	s370_50E0:PROC
EXTRN	z900_load_long_byte_register:PROC
EXTRN	z900_15DE:PROC
EXTRN	s390_15DD:PROC
EXTRN	s370_50F0:PROC
EXTRN	z900_load_halfword_register:PROC
EXTRN	s370_add_logical_fullword_immediate:PROC
EXTRN	z900_15DF:PROC
EXTRN	s390_15DE:PROC
EXTRN	s370_5500:PROC
EXTRN	z900_load_long_halfword_register:PROC
EXTRN	z900_15E0:PROC
EXTRN	s390_15DF:PROC
EXTRN	s370_5510:PROC
EXTRN	z900_load_logical_character:PROC
EXTRN	z900_15E1:PROC
EXTRN	s390_15E0:PROC
EXTRN	s370_5520:PROC
EXTRN	z900_load_logical_character_register:PROC
EXTRN	s370_and_immediate_low_fullword:PROC
EXTRN	z900_15E2:PROC
EXTRN	s390_15E1:PROC
EXTRN	s370_5530:PROC
EXTRN	z900_load_logical_long_character_register:PROC
EXTRN	s370_compare_fullword_immediate:PROC
EXTRN	z900_15E3:PROC
EXTRN	s390_15E2:PROC
EXTRN	s370_5540:PROC
EXTRN	z900_load_logical_halfword:PROC
EXTRN	z900_15E4:PROC
EXTRN	s390_15E3:PROC
EXTRN	s370_5550:PROC
EXTRN	z900_load_logical_halfword_register:PROC
EXTRN	s370_compare_logical_fullword_immediate:PROC
EXTRN	z900_15E5:PROC
EXTRN	s390_15E4:PROC
EXTRN	s370_5560:PROC
EXTRN	z900_load_logical_long_halfword_register:PROC
EXTRN	z900_15E6:PROC
EXTRN	s390_15E5:PROC
EXTRN	s370_5570:PROC
EXTRN	z900_find_leftmost_one_long_register:PROC
EXTRN	z900_15E7:PROC
EXTRN	s390_15E6:PROC
EXTRN	s370_5580:PROC
EXTRN	z900_convert_utf16_to_utf32:PROC
EXTRN	s370_exclusive_or_immediate_low_fullword:PROC
EXTRN	z900_15E8:PROC
EXTRN	s390_15E7:PROC
EXTRN	s370_5590:PROC
EXTRN	z900_convert_utf32_to_utf16:PROC
EXTRN	z900_15E9:PROC
EXTRN	s390_15E8:PROC
EXTRN	s370_55A0:PROC
EXTRN	z900_convert_utf32_to_utf8:PROC
EXTRN	s370_insert_immediate_low_fullword:PROC
EXTRN	z900_15EA:PROC
EXTRN	s390_15E9:PROC
EXTRN	s370_55B0:PROC
EXTRN	z900_convert_utf8_to_utf32:PROC
EXTRN	z900_15EB:PROC
EXTRN	s390_15EA:PROC
EXTRN	s370_55C0:PROC
EXTRN	z900_search_string_unicode:PROC
EXTRN	z900_15EC:PROC
EXTRN	s390_15EB:PROC
EXTRN	s370_55D0:PROC
EXTRN	z900_translate_and_test_reverse:PROC
EXTRN	s370_load_logical_immediate_low_fullword:PROC
EXTRN	z900_15ED:PROC
EXTRN	s390_15EC:PROC
EXTRN	s370_55E0:PROC
EXTRN	z900_multiply_unnormal_float_long_to_ext_reg:PROC
EXTRN	z900_15EE:PROC
EXTRN	s390_15ED:PROC
EXTRN	s370_55F0:PROC
EXTRN	z900_multiply_unnormal_float_long_to_ext_low_reg:PROC
EXTRN	s370_or_immediate_low_fullword:PROC
EXTRN	z900_15EF:PROC
EXTRN	s390_15EE:PROC
EXTRN	s370_5800:PROC
EXTRN	z900_multiply_unnormal_float_long_to_ext_high_reg:PROC
EXTRN	s370_subtract_logical_fullword_immediate:PROC
EXTRN	z900_15F0:PROC
EXTRN	s390_15EF:PROC
EXTRN	s370_5810:PROC
EXTRN	z900_multiply_add_unnormal_float_long_to_ext_reg:PROC
EXTRN	z900_15F1:PROC
EXTRN	s390_15F0:PROC
EXTRN	s370_5820:PROC
EXTRN	z900_multiply_add_unnormal_float_long_to_ext_low_reg:PROC
EXTRN	s370_load_and_test:PROC
EXTRN	z900_15F2:PROC
EXTRN	s390_15F1:PROC
EXTRN	s370_5830:PROC
EXTRN	z900_multiply_add_unnormal_float_long_to_ext_high_reg:PROC
EXTRN	z900_15F3:PROC
EXTRN	s390_15F2:PROC
EXTRN	s370_5840:PROC
EXTRN	s370_load_byte_register:PROC
EXTRN	z900_multiply_unnormal_float_long_to_ext:PROC
EXTRN	z900_15F4:PROC
EXTRN	s390_15F3:PROC
EXTRN	s370_5850:PROC
EXTRN	z900_multiply_unnormal_float_long_to_ext_low:PROC
EXTRN	z900_15F5:PROC
EXTRN	s390_15F4:PROC
EXTRN	s370_5860:PROC
EXTRN	s370_load_halfword_register:PROC
EXTRN	z900_multiply_unnormal_float_long_to_ext_high:PROC
EXTRN	z900_15F6:PROC
EXTRN	s390_15F5:PROC
EXTRN	s370_5870:PROC
EXTRN	z900_multiply_add_unnormal_float_long_to_ext:PROC
EXTRN	z900_15F7:PROC
EXTRN	s390_15F6:PROC
EXTRN	s370_5880:PROC
EXTRN	s370_load_logical_character:PROC
EXTRN	z900_multiply_add_unnormal_float_long_to_ext_low:PROC
EXTRN	z900_15F8:PROC
EXTRN	s390_15F7:PROC
EXTRN	s370_5890:PROC
EXTRN	s370_load_logical_character_register:PROC
EXTRN	z900_multiply_add_unnormal_float_long_to_ext_high:PROC
EXTRN	z900_15F9:PROC
EXTRN	s390_15F8:PROC
EXTRN	s370_58A0:PROC
EXTRN	z900_15FA:PROC
EXTRN	s390_15F9:PROC
EXTRN	s370_58B0:PROC
EXTRN	z900_translate_and_test_extended:PROC
EXTRN	s370_load_logical_halfword:PROC
EXTRN	z900_15FB:PROC
EXTRN	s390_15FA:PROC
EXTRN	s370_58C0:PROC
EXTRN	s370_load_logical_halfword_register:PROC
EXTRN	z900_translate_and_test_reverse_extended:PROC
EXTRN	z900_15FC:PROC
EXTRN	s390_15FB:PROC
EXTRN	s370_58D0:PROC
EXTRN	z900_move_with_optional_specifications:PROC
EXTRN	z900_15FD:PROC
EXTRN	s390_15FC:PROC
EXTRN	s370_58E0:PROC
EXTRN	z900_perform_timing_facility_function:PROC
EXTRN	z900_15FE:PROC
EXTRN	s390_15FD:PROC
EXTRN	s370_58F0:PROC
EXTRN	s370_convert_utf16_to_utf32:PROC
EXTRN	z900_extract_cpu_time:PROC
EXTRN	z900_15FF:PROC
EXTRN	s390_15FE:PROC
EXTRN	s370_convert_utf32_to_utf16:PROC
EXTRN	z900_compare_and_swap_and_store:PROC
EXTRN	z900_4100:PROC
EXTRN	s390_15FF:PROC
EXTRN	s370_convert_utf32_to_utf8:PROC
EXTRN	z900_add_immediate_long_storage:PROC
EXTRN	z900_4110:PROC
EXTRN	s390_4100:PROC
EXTRN	s370_convert_utf8_to_utf32:PROC
EXTRN	z900_add_immediate_storage:PROC
EXTRN	z900_4120:PROC
EXTRN	s390_4110:PROC
EXTRN	s370_search_string_unicode:PROC
EXTRN	z900_add_logical_with_signed_immediate:PROC
EXTRN	z900_4130:PROC
EXTRN	s390_4120:PROC
EXTRN	s370_translate_and_test_reverse:PROC
EXTRN	z900_add_logical_with_signed_immediate_long:PROC
EXTRN	z900_4140:PROC
EXTRN	s390_4130:PROC
EXTRN	s370_multiply_unnormal_float_long_to_ext_reg:PROC
EXTRN	z900_compare_and_branch_register:PROC
EXTRN	z900_4150:PROC
EXTRN	s390_4140:PROC
EXTRN	s370_multiply_unnormal_float_long_to_ext_low_reg:PROC
EXTRN	z900_compare_and_branch_long_register:PROC
EXTRN	z900_4160:PROC
EXTRN	s390_4150:PROC
EXTRN	s370_multiply_unnormal_float_long_to_ext_high_reg:PROC
EXTRN	z900_compare_and_branch_relative_register:PROC
EXTRN	z900_4170:PROC
EXTRN	s390_4160:PROC
EXTRN	s370_multiply_add_unnormal_float_long_to_ext_reg:PROC
EXTRN	z900_compare_and_branch_relative_long_register:PROC
EXTRN	z900_4180:PROC
EXTRN	s390_4170:PROC
EXTRN	s370_multiply_add_unnormal_float_long_to_ext_low_reg:PROC
EXTRN	z900_compare_and_trap_long_register:PROC
EXTRN	z900_4190:PROC
EXTRN	s390_4180:PROC
EXTRN	s370_multiply_add_unnormal_float_long_to_ext_high_reg:PROC
EXTRN	z900_compare_and_trap_register:PROC
EXTRN	z900_41A0:PROC
EXTRN	s390_4190:PROC
EXTRN	z900_compare_halfword_immediate_halfword_storage:PROC
EXTRN	s370_multiply_unnormal_float_long_to_ext:PROC
EXTRN	z900_41B0:PROC
EXTRN	s390_41A0:PROC
EXTRN	z900_compare_halfword_immediate_long_storage:PROC
EXTRN	s370_multiply_unnormal_float_long_to_ext_low:PROC
EXTRN	z900_41C0:PROC
EXTRN	s390_41B0:PROC
EXTRN	s370_BF_7:PROC
EXTRN	z900_compare_halfword_immediate_storage:PROC
EXTRN	s370_multiply_unnormal_float_long_to_ext_high:PROC
EXTRN	z900_41D0:PROC
EXTRN	s390_41C0:PROC
EXTRN	s370_BF_F:PROC
EXTRN	z900_compare_halfword_long:PROC
EXTRN	s370_multiply_add_unnormal_float_long_to_ext:PROC
EXTRN	z900_41E0:PROC
EXTRN	s390_41D0:PROC
EXTRN	s370_BF_x:PROC
EXTRN	z900_compare_halfword_relative_long:PROC
EXTRN	s370_multiply_add_unnormal_float_long_to_ext_low:PROC
EXTRN	z900_41F0:PROC
EXTRN	s390_41E0:PROC
EXTRN	s370_9180:PROC
EXTRN	z900_compare_halfword_relative_long_long:PROC
EXTRN	s370_multiply_add_unnormal_float_long_to_ext_high:PROC
EXTRN	z900_47_0:PROC
EXTRN	s390_41F0:PROC
EXTRN	s370_9140:PROC
EXTRN	s370_translate_and_test_extended:PROC
EXTRN	z900_compare_immediate_and_branch:PROC
EXTRN	z900_nop4:PROC
EXTRN	s390_47_0:PROC
EXTRN	s370_9120:PROC
EXTRN	s370_translate_and_test_reverse_extended:PROC
EXTRN	z900_compare_immediate_and_branch_long:PROC
EXTRN	z900_4710:PROC
EXTRN	s390_nop4:PROC
EXTRN	s370_9110:PROC
EXTRN	s370_compare_and_swap_and_store:PROC
EXTRN	z900_compare_immediate_and_branch_relative:PROC
EXTRN	z900_4720:PROC
EXTRN	s390_4710:PROC
EXTRN	s370_9108:PROC
EXTRN	s370_add_immediate_long_storage:PROC
EXTRN	z900_compare_immediate_and_branch_relative_long:PROC
EXTRN	z900_4730:PROC
EXTRN	s390_4720:PROC
EXTRN	s370_9104:PROC
EXTRN	s370_add_immediate_storage:PROC
EXTRN	z900_compare_immediate_and_trap:PROC
EXTRN	z900_4740:PROC
EXTRN	s390_4730:PROC
EXTRN	s370_9102:PROC
EXTRN	s370_add_logical_with_signed_immediate:PROC
EXTRN	z900_compare_immediate_and_trap_long:PROC
EXTRN	z900_4750:PROC
EXTRN	s390_4740:PROC
EXTRN	s370_9101:PROC
EXTRN	s370_add_logical_with_signed_immediate_long:PROC
EXTRN	z900_compare_logical_and_branch_long_register:PROC
EXTRN	z900_4770:PROC
EXTRN	s370_1F00:PROC
EXTRN	s390_4750:PROC
EXTRN	s370_compare_and_branch_register:PROC
EXTRN	z900_compare_logical_and_branch_register:PROC
EXTRN	z900_4780:PROC
EXTRN	s370_1F01:PROC
EXTRN	s390_4770:PROC
EXTRN	z900_compare_logical_and_branch_relative_long_register:PROC
EXTRN	z900_47A0:PROC
EXTRN	s370_1F02:PROC
EXTRN	s390_4780:PROC
EXTRN	s370_compare_and_branch_relative_register:PROC
EXTRN	z900_compare_logical_and_branch_relative_register:PROC
EXTRN	z900_47B0:PROC
EXTRN	s370_1F03:PROC
EXTRN	s390_47A0:PROC
EXTRN	z900_compare_logical_and_trap_long_register:PROC
EXTRN	z900_47C0:PROC
EXTRN	s370_1F04:PROC
EXTRN	s390_47B0:PROC
EXTRN	z900_compare_logical_and_trap_register:PROC
EXTRN	z900_47D0:PROC
EXTRN	s370_1F05:PROC
EXTRN	s390_47C0:PROC
EXTRN	s370_compare_and_trap_register:PROC
EXTRN	z900_compare_logical_immediate_and_branch:PROC
EXTRN	z900_47E0:PROC
EXTRN	s370_1F06:PROC
EXTRN	s390_47D0:PROC
EXTRN	s370_compare_halfword_immediate_halfword_storage:PROC
EXTRN	z900_compare_logical_immediate_and_branch_long:PROC
EXTRN	z900_47F0:PROC
EXTRN	s370_1F07:PROC
EXTRN	s390_47E0:PROC
EXTRN	s370_compare_halfword_immediate_long_storage:PROC
EXTRN	z900_compare_logical_immediate_and_branch_relative:PROC
EXTRN	z900_5000:PROC
EXTRN	s370_1F08:PROC
EXTRN	s390_47F0:PROC
EXTRN	s370_compare_halfword_immediate_storage:PROC
EXTRN	z900_compare_logical_immediate_and_branch_relative_long:PROC
EXTRN	z900_5010:PROC
EXTRN	s370_1F09:PROC
EXTRN	s390_5000:PROC
EXTRN	z900_compare_logical_immediate_and_trap_fullword:PROC
EXTRN	z900_5020:PROC
EXTRN	s370_1F0A:PROC
EXTRN	s390_5010:PROC
EXTRN	s370_compare_halfword_relative_long:PROC
EXTRN	z900_compare_logical_immediate_and_trap_long:PROC
EXTRN	z900_5030:PROC
EXTRN	s370_1F0B:PROC
EXTRN	s390_5020:PROC
EXTRN	z900_compare_logical_immediate_fullword_storage:PROC
EXTRN	z900_5040:PROC
EXTRN	s370_1F0C:PROC
EXTRN	s390_5030:PROC
EXTRN	z900_compare_logical_immediate_halfword_storage:PROC
EXTRN	s370_compare_immediate_and_branch:PROC
EXTRN	z900_5050:PROC
EXTRN	s370_1F0D:PROC
EXTRN	s390_5040:PROC
EXTRN	z900_compare_logical_immediate_long_storage:PROC
EXTRN	z900_5060:PROC
EXTRN	s370_1F0E:PROC
EXTRN	s390_5050:PROC
EXTRN	z900_compare_logical_relative_long:PROC
EXTRN	s370_compare_immediate_and_branch_relative:PROC
EXTRN	z900_5070:PROC
EXTRN	s370_1F0F:PROC
EXTRN	s390_5060:PROC
EXTRN	z900_compare_logical_relative_long_halfword:PROC
EXTRN	z900_5080:PROC
EXTRN	s370_1F10:PROC
EXTRN	s390_5070:PROC
EXTRN	z900_compare_logical_relative_long_long:PROC
EXTRN	s370_compare_immediate_and_trap:PROC
EXTRN	z900_5090:PROC
EXTRN	s370_1F11:PROC
EXTRN	s390_5080:PROC
EXTRN	z900_compare_logical_relative_long_long_fullword:PROC
EXTRN	z900_50A0:PROC
EXTRN	s370_1F12:PROC
EXTRN	s390_5090:PROC
EXTRN	z900_compare_logical_relative_long_long_halfword:PROC
EXTRN	z900_50B0:PROC
EXTRN	s370_1F13:PROC
EXTRN	s390_50A0:PROC
EXTRN	z900_compare_relative_long:PROC
EXTRN	s370_compare_logical_and_branch_register:PROC
EXTRN	z900_50C0:PROC
EXTRN	s370_1F14:PROC
EXTRN	s390_50B0:PROC
EXTRN	z900_compare_relative_long_long:PROC
EXTRN	z900_50D0:PROC
EXTRN	s370_1F15:PROC
EXTRN	s390_50C0:PROC
EXTRN	z900_compare_relative_long_long_fullword:PROC
EXTRN	s370_compare_logical_and_branch_relative_register:PROC
EXTRN	z900_50E0:PROC
EXTRN	s370_1F16:PROC
EXTRN	s390_50D0:PROC
EXTRN	z900_extract_cpu_attribute:PROC
EXTRN	z900_50F0:PROC
EXTRN	s370_1F17:PROC
EXTRN	s390_50E0:PROC
EXTRN	s370_compare_logical_and_trap_register:PROC
EXTRN	z900_load_address_extended_y:PROC
EXTRN	z900_5500:PROC
EXTRN	s370_1F18:PROC
EXTRN	s390_50F0:PROC
EXTRN	z900_load_and_test_long_fullword:PROC
EXTRN	s370_compare_logical_immediate_and_branch:PROC
EXTRN	z900_5510:PROC
EXTRN	s370_1F19:PROC
EXTRN	s390_5500:PROC
EXTRN	z900_load_halfword_relative_long:PROC
EXTRN	z900_5520:PROC
EXTRN	s370_1F1A:PROC
EXTRN	s390_5510:PROC
EXTRN	z900_load_halfword_relative_long_long:PROC
EXTRN	s370_compare_logical_immediate_and_branch_relative:PROC
EXTRN	z900_5530:PROC
EXTRN	s370_1F1B:PROC
EXTRN	s390_5520:PROC
EXTRN	z900_load_logical_halfword_relative_long:PROC
EXTRN	z900_5540:PROC
EXTRN	s370_1F1C:PROC
EXTRN	s390_5530:PROC
EXTRN	z900_load_logical_halfword_relative_long_long:PROC
EXTRN	s370_compare_logical_immediate_and_trap_fullword:PROC
EXTRN	z900_5550:PROC
EXTRN	s370_1F1D:PROC
EXTRN	s390_5540:PROC
EXTRN	z900_load_logical_relative_long_long_fullword:PROC
EXTRN	z900_5560:PROC
EXTRN	s370_1F1E:PROC
EXTRN	s390_5550:PROC
EXTRN	z900_load_relative_long:PROC
EXTRN	s370_compare_logical_immediate_fullword_storage:PROC
EXTRN	z900_5570:PROC
EXTRN	s370_1F1F:PROC
EXTRN	s390_5560:PROC
EXTRN	z900_load_relative_long_long:PROC
EXTRN	s370_compare_logical_immediate_halfword_storage:PROC
EXTRN	z900_5580:PROC
EXTRN	s370_1F20:PROC
EXTRN	s390_5570:PROC
EXTRN	z900_load_relative_long_long_fullword:PROC
EXTRN	s370_compare_logical_immediate_long_storage:PROC
EXTRN	z900_5590:PROC
EXTRN	s370_1F21:PROC
EXTRN	s390_5580:PROC
EXTRN	s370_compare_logical_relative_long:PROC
EXTRN	z900_move_fullword_from_halfword_immediate:PROC
EXTRN	z900_55A0:PROC
EXTRN	s370_1F22:PROC
EXTRN	s390_5590:PROC
EXTRN	s370_compare_logical_relative_long_halfword:PROC
EXTRN	z900_move_halfword_from_halfword_immediate:PROC
EXTRN	z900_55B0:PROC
EXTRN	s370_1F23:PROC
EXTRN	s390_55A0:PROC
EXTRN	z900_move_long_from_halfword_immediate:PROC
EXTRN	z900_55C0:PROC
EXTRN	s370_1F24:PROC
EXTRN	s390_55B0:PROC
EXTRN	z900_multiply_halfword_y:PROC
EXTRN	z900_55D0:PROC
EXTRN	s370_1F25:PROC
EXTRN	s390_55C0:PROC
EXTRN	z900_multiply_single_immediate_fullword:PROC
EXTRN	z900_55E0:PROC
EXTRN	s370_1F26:PROC
EXTRN	s390_55D0:PROC
EXTRN	z900_multiply_single_immediate_long_fullword:PROC
EXTRN	s370_compare_relative_long:PROC
EXTRN	z900_55F0:PROC
EXTRN	s370_1F27:PROC
EXTRN	s390_55E0:PROC
EXTRN	z900_multiply_y:PROC
EXTRN	z900_5800:PROC
EXTRN	s370_1F28:PROC
EXTRN	s390_55F0:PROC
EXTRN	z900_prefetch_data:PROC
EXTRN	z900_5810:PROC
EXTRN	s370_1F29:PROC
EXTRN	s390_5800:PROC
EXTRN	z900_prefetch_data_relative_long:PROC
EXTRN	z900_5820:PROC
EXTRN	s370_1F2A:PROC
EXTRN	s390_5810:PROC
EXTRN	z900_rotate_then_and_selected_bits_long_reg:PROC
EXTRN	z900_5830:PROC
EXTRN	s370_1F2B:PROC
EXTRN	s390_5820:PROC
EXTRN	z900_rotate_then_exclusive_or_selected_bits_long_reg:PROC
EXTRN	z900_5840:PROC
EXTRN	s370_1F2C:PROC
EXTRN	s390_5830:PROC
EXTRN	s370_load_halfword_relative_long:PROC
EXTRN	z900_rotate_then_insert_selected_bits_long_reg:PROC
EXTRN	z900_5850:PROC
EXTRN	s370_1F2D:PROC
EXTRN	s390_5840:PROC
EXTRN	z900_rotate_then_or_selected_bits_long_reg:PROC
EXTRN	z900_5860:PROC
EXTRN	s370_1F2E:PROC
EXTRN	s390_5850:PROC
EXTRN	s370_load_logical_halfword_relative_long:PROC
EXTRN	z900_store_halfword_relative_long:PROC
EXTRN	z900_5870:PROC
EXTRN	s370_1F2F:PROC
EXTRN	s390_5860:PROC
EXTRN	z900_store_relative_long:PROC
EXTRN	z900_5880:PROC
EXTRN	s370_1F30:PROC
EXTRN	s390_5870:PROC
EXTRN	z900_store_relative_long_long:PROC
EXTRN	z900_5890:PROC
EXTRN	s370_1F31:PROC
EXTRN	s390_5880:PROC
EXTRN	s370_load_relative_long:PROC
EXTRN	z900_execute_relative_long:PROC
EXTRN	z900_58A0:PROC
EXTRN	s370_1F32:PROC
EXTRN	s390_5890:PROC
EXTRN	z900_convert_fix32_to_dfp_ext_reg:PROC
EXTRN	z900_58B0:PROC
EXTRN	s370_1F33:PROC
EXTRN	s390_58A0:PROC
EXTRN	z900_convert_fix32_to_dfp_long_reg:PROC
EXTRN	z900_58C0:PROC
EXTRN	s370_1F34:PROC
EXTRN	s390_58B0:PROC
EXTRN	z900_convert_u32_to_dfp_ext_reg:PROC
EXTRN	s370_move_fullword_from_halfword_immediate:PROC
EXTRN	z900_58D0:PROC
EXTRN	s370_1F35:PROC
EXTRN	s390_58C0:PROC
EXTRN	z900_convert_u32_to_dfp_long_reg:PROC
EXTRN	s370_move_halfword_from_halfword_immediate:PROC
EXTRN	z900_58E0:PROC
EXTRN	s370_1F36:PROC
EXTRN	s390_58D0:PROC
EXTRN	z900_convert_u64_to_dfp_ext_reg:PROC
EXTRN	s370_move_long_from_halfword_immediate:PROC
EXTRN	z900_58F0:PROC
EXTRN	s370_1F37:PROC
EXTRN	s390_58E0:PROC
EXTRN	z900_convert_u64_to_dfp_long_reg:PROC
EXTRN	s370_multiply_halfword_y:PROC
EXTRN	s370_1F38:PROC
EXTRN	s390_58F0:PROC
EXTRN	z900_convert_dfp_ext_to_fix32_reg:PROC
EXTRN	s370_multiply_single_immediate_fullword:PROC
EXTRN	s370_1F39:PROC
EXTRN	z900_convert_dfp_long_to_fix32_reg:PROC
EXTRN	s370_1F3A:PROC
EXTRN	z900_convert_dfp_ext_to_u32_reg:PROC
EXTRN	s370_multiply_y:PROC
EXTRN	s370_1F3B:PROC
EXTRN	z900_convert_dfp_long_to_u32_reg:PROC
EXTRN	s370_prefetch_data:PROC
EXTRN	s370_1F3C:PROC
EXTRN	z900_convert_dfp_ext_to_u64_reg:PROC
EXTRN	s370_prefetch_data_relative_long:PROC
EXTRN	s370_1F3D:PROC
EXTRN	z900_convert_dfp_long_to_u64_reg:PROC
EXTRN	s370_1F3E:PROC
EXTRN	z900_convert_u32_to_bfp_ext_reg:PROC
EXTRN	s370_1F3F:PROC
EXTRN	z900_convert_u32_to_bfp_long_reg:PROC
EXTRN	s370_1F40:PROC
EXTRN	z900_convert_u32_to_bfp_short_reg:PROC
EXTRN	s370_1F41:PROC
EXTRN	z900_convert_u64_to_bfp_ext_reg:PROC
EXTRN	s370_store_halfword_relative_long:PROC
EXTRN	s370_1F42:PROC
EXTRN	z900_convert_u64_to_bfp_long_reg:PROC
EXTRN	s370_store_relative_long:PROC
EXTRN	s370_1F43:PROC
EXTRN	z900_convert_u64_to_bfp_short_reg:PROC
EXTRN	s370_1F44:PROC
EXTRN	z900_convert_bfp_ext_to_u32_reg:PROC
EXTRN	s370_execute_relative_long:PROC
EXTRN	z900_BF_7:PROC
EXTRN	s370_1F45:PROC
EXTRN	z900_convert_bfp_long_to_u32_reg:PROC
EXTRN	z900_BF_F:PROC
EXTRN	s370_1F46:PROC
EXTRN	s390_BF_7:PROC
EXTRN	z900_convert_bfp_short_to_u32_reg:PROC
EXTRN	z900_BF_x:PROC
EXTRN	s370_1F47:PROC
EXTRN	s390_BF_F:PROC
EXTRN	z900_convert_bfp_ext_to_u64_reg:PROC
EXTRN	z900_9180:PROC
EXTRN	s370_1F48:PROC
EXTRN	s390_BF_x:PROC
EXTRN	z900_convert_bfp_long_to_u64_reg:PROC
EXTRN	z900_9140:PROC
EXTRN	s370_1F49:PROC
EXTRN	s390_9180:PROC
EXTRN	z900_convert_bfp_short_to_u64_reg:PROC
EXTRN	z900_9120:PROC
EXTRN	s370_1F4A:PROC
EXTRN	s390_9140:PROC
EXTRN	z900_set_bfp_rounding_mode_3bit:PROC
EXTRN	z900_9110:PROC
EXTRN	s370_1F4B:PROC
EXTRN	s390_9120:PROC
EXTRN	z900_load_program_parameter:PROC
EXTRN	z900_9108:PROC
EXTRN	s370_1F4C:PROC
EXTRN	s390_9110:PROC
EXTRN	z900_set_dfp_rounding_mode:PROC
EXTRN	z900_9104:PROC
EXTRN	s370_1F4D:PROC
EXTRN	s390_9108:PROC
EXTRN	z900_load_fpr_from_gr_long_reg:PROC
EXTRN	z900_9102:PROC
EXTRN	s370_1F4E:PROC
EXTRN	s390_9104:PROC
EXTRN	z900_load_gr_from_fpr_long_reg:PROC
EXTRN	z900_9101:PROC
EXTRN	s370_1F4F:PROC
EXTRN	s390_9102:PROC
EXTRN	z900_copy_sign_fpr_long_reg:PROC
EXTRN	z900_1F00:PROC
EXTRN	s370_1F50:PROC
EXTRN	s390_9101:PROC
EXTRN	z900_load_complement_fpr_long_reg:PROC
EXTRN	z900_1F01:PROC
EXTRN	s390_1F00:PROC
EXTRN	s370_1F51:PROC
EXTRN	z900_load_negative_fpr_long_reg:PROC
EXTRN	s370_convert_u32_to_bfp_ext_reg:PROC
EXTRN	z900_1F02:PROC
EXTRN	s390_1F01:PROC
EXTRN	s370_1F52:PROC
EXTRN	z900_load_positive_fpr_long_reg:PROC
EXTRN	s370_convert_u32_to_bfp_long_reg:PROC
EXTRN	z900_1F03:PROC
EXTRN	s390_1F02:PROC
EXTRN	s370_1F53:PROC
EXTRN	z900_load_fpc_and_signal:PROC
EXTRN	s370_convert_u32_to_bfp_short_reg:PROC
EXTRN	z900_1F04:PROC
EXTRN	s390_1F03:PROC
EXTRN	s370_1F54:PROC
EXTRN	z900_set_fpc_and_signal:PROC
EXTRN	z900_1F05:PROC
EXTRN	s390_1F04:PROC
EXTRN	s370_1F55:PROC
EXTRN	z900_add_dfp_ext_reg:PROC
EXTRN	z900_1F06:PROC
EXTRN	s390_1F05:PROC
EXTRN	s370_1F56:PROC
EXTRN	z900_add_dfp_long_reg:PROC
EXTRN	z900_1F07:PROC
EXTRN	s390_1F06:PROC
EXTRN	s370_1F57:PROC
EXTRN	s370_convert_bfp_ext_to_u32_reg:PROC
EXTRN	z900_compare_dfp_ext_reg:PROC
EXTRN	z900_1F08:PROC
EXTRN	s390_1F07:PROC
EXTRN	s370_1F58:PROC
EXTRN	s370_convert_bfp_long_to_u32_reg:PROC
EXTRN	z900_compare_dfp_long_reg:PROC
EXTRN	z900_1F09:PROC
EXTRN	s390_1F08:PROC
EXTRN	s370_1F59:PROC
EXTRN	s370_convert_bfp_short_to_u32_reg:PROC
EXTRN	z900_compare_and_signal_dfp_ext_reg:PROC
EXTRN	z900_1F0A:PROC
EXTRN	s390_1F09:PROC
EXTRN	s370_1F5A:PROC
EXTRN	z900_compare_and_signal_dfp_long_reg:PROC
EXTRN	z900_1F0B:PROC
EXTRN	s390_1F0A:PROC
EXTRN	s370_1F5B:PROC
EXTRN	z900_compare_exponent_dfp_ext_reg:PROC
EXTRN	z900_1F0C:PROC
EXTRN	s390_1F0B:PROC
EXTRN	s370_1F5C:PROC
EXTRN	z900_compare_exponent_dfp_long_reg:PROC
EXTRN	z900_1F0D:PROC
EXTRN	s390_1F0C:PROC
EXTRN	s370_1F5D:PROC
EXTRN	s370_set_bfp_rounding_mode_3bit:PROC
EXTRN	z900_convert_fix64_to_dfp_ext_reg:PROC
EXTRN	z900_1F0E:PROC
EXTRN	s390_1F0D:PROC
EXTRN	s370_1F5E:PROC
EXTRN	z900_convert_fix64_to_dfp_long_reg:PROC
EXTRN	z900_1F0F:PROC
EXTRN	s390_1F0E:PROC
EXTRN	s370_1F5F:PROC
EXTRN	z900_convert_sbcd128_to_dfp_ext_reg:PROC
EXTRN	z900_1F10:PROC
EXTRN	s390_1F0F:PROC
EXTRN	s370_1F60:PROC
EXTRN	z900_convert_sbcd64_to_dfp_long_reg:PROC
EXTRN	z900_1F11:PROC
EXTRN	s390_1F10:PROC
EXTRN	s370_1F61:PROC
EXTRN	s370_copy_sign_fpr_long_reg:PROC
EXTRN	z900_convert_ubcd128_to_dfp_ext_reg:PROC
EXTRN	z900_1F12:PROC
EXTRN	s390_1F11:PROC
EXTRN	s370_1F62:PROC
EXTRN	s370_load_complement_fpr_long_reg:PROC
EXTRN	z900_convert_ubcd64_to_dfp_long_reg:PROC
EXTRN	z900_1F13:PROC
EXTRN	s390_1F12:PROC
EXTRN	s370_1F63:PROC
EXTRN	s370_load_negative_fpr_long_reg:PROC
EXTRN	z900_convert_dfp_ext_to_fix64_reg:PROC
EXTRN	z900_1F14:PROC
EXTRN	s390_1F13:PROC
EXTRN	s370_1F64:PROC
EXTRN	s370_load_positive_fpr_long_reg:PROC
EXTRN	z900_convert_dfp_long_to_fix64_reg:PROC
EXTRN	z900_1F15:PROC
EXTRN	s390_1F14:PROC
EXTRN	s370_1F65:PROC
EXTRN	s370_load_fpc_and_signal:PROC
EXTRN	z900_convert_dfp_ext_to_sbcd128_reg:PROC
EXTRN	z900_1F16:PROC
EXTRN	s390_1F15:PROC
EXTRN	s370_1F66:PROC
EXTRN	s370_set_fpc_and_signal:PROC
EXTRN	z900_convert_dfp_long_to_sbcd64_reg:PROC
EXTRN	z900_1F17:PROC
EXTRN	s390_1F16:PROC
EXTRN	s370_1F67:PROC
EXTRN	z900_convert_dfp_ext_to_ubcd128_reg:PROC
EXTRN	z900_1F18:PROC
EXTRN	s390_1F17:PROC
EXTRN	s370_1F68:PROC
EXTRN	z900_convert_dfp_long_to_ubcd64_reg:PROC
EXTRN	z900_1F19:PROC
EXTRN	s390_1F18:PROC
EXTRN	s370_1F69:PROC
EXTRN	z900_divide_dfp_ext_reg:PROC
EXTRN	z900_1F1A:PROC
EXTRN	s390_1F19:PROC
EXTRN	s370_1F6A:PROC
EXTRN	z900_divide_dfp_long_reg:PROC
EXTRN	z900_1F1B:PROC
EXTRN	s390_1F1A:PROC
EXTRN	s370_1F6B:PROC
EXTRN	z900_extract_biased_exponent_dfp_ext_to_fix64_reg:PROC
EXTRN	z900_1F1C:PROC
EXTRN	s390_1F1B:PROC
EXTRN	s370_1F6C:PROC
EXTRN	z900_extract_biased_exponent_dfp_long_to_fix64_reg:PROC
EXTRN	z900_1F1D:PROC
EXTRN	s390_1F1C:PROC
EXTRN	s370_1F6D:PROC
EXTRN	z900_extract_significance_dfp_ext_reg:PROC
EXTRN	z900_1F1E:PROC
EXTRN	s390_1F1D:PROC
EXTRN	s370_1F6E:PROC
EXTRN	z900_extract_significance_dfp_long_reg:PROC
EXTRN	z900_1F1F:PROC
EXTRN	s390_1F1E:PROC
EXTRN	s370_1F6F:PROC
EXTRN	z900_insert_biased_exponent_fix64_to_dfp_ext_reg:PROC
EXTRN	z900_1F20:PROC
EXTRN	s390_1F1F:PROC
EXTRN	s370_1F70:PROC
EXTRN	z900_insert_biased_exponent_fix64_to_dfp_long_reg:PROC
EXTRN	z900_1F21:PROC
EXTRN	s390_1F20:PROC
EXTRN	s370_1F71:PROC
EXTRN	z900_load_and_test_dfp_ext_reg:PROC
EXTRN	z900_1F22:PROC
EXTRN	s390_1F21:PROC
EXTRN	s370_1F72:PROC
EXTRN	z900_load_and_test_dfp_long_reg:PROC
EXTRN	z900_1F23:PROC
EXTRN	s390_1F22:PROC
EXTRN	s370_1F73:PROC
EXTRN	z900_load_fp_int_dfp_ext_reg:PROC
EXTRN	z900_1F24:PROC
EXTRN	s390_1F23:PROC
EXTRN	s370_1F74:PROC
EXTRN	z900_load_fp_int_dfp_long_reg:PROC
EXTRN	z900_1F25:PROC
EXTRN	s390_1F24:PROC
EXTRN	s370_1F75:PROC
EXTRN	z900_load_lengthened_dfp_long_to_ext_reg:PROC
EXTRN	z900_1F26:PROC
EXTRN	s390_1F25:PROC
EXTRN	s370_1F76:PROC
EXTRN	z900_load_lengthened_dfp_short_to_long_reg:PROC
EXTRN	z900_1F27:PROC
EXTRN	s390_1F26:PROC
EXTRN	s370_1F77:PROC
EXTRN	z900_load_rounded_dfp_ext_to_long_reg:PROC
EXTRN	z900_1F28:PROC
EXTRN	s390_1F27:PROC
EXTRN	s370_1F78:PROC
EXTRN	z900_load_rounded_dfp_long_to_short_reg:PROC
EXTRN	z900_1F29:PROC
EXTRN	s390_1F28:PROC
EXTRN	s370_1F79:PROC
EXTRN	z900_multiply_dfp_ext_reg:PROC
EXTRN	z900_1F2A:PROC
EXTRN	s390_1F29:PROC
EXTRN	s370_1F7A:PROC
EXTRN	z900_multiply_dfp_long_reg:PROC
EXTRN	z900_1F2B:PROC
EXTRN	s390_1F2A:PROC
EXTRN	s370_1F7B:PROC
EXTRN	z900_quantize_dfp_ext_reg:PROC
EXTRN	z900_1F2C:PROC
EXTRN	s390_1F2B:PROC
EXTRN	s370_1F7C:PROC
EXTRN	z900_quantize_dfp_long_reg:PROC
EXTRN	z900_1F2D:PROC
EXTRN	s390_1F2C:PROC
EXTRN	s370_1F7D:PROC
EXTRN	z900_reround_dfp_ext_reg:PROC
EXTRN	z900_1F2E:PROC
EXTRN	s390_1F2D:PROC
EXTRN	s370_1F7E:PROC
EXTRN	z900_reround_dfp_long_reg:PROC
EXTRN	z900_1F2F:PROC
EXTRN	s390_1F2E:PROC
EXTRN	s370_1F7F:PROC
EXTRN	z900_shift_coefficient_left_dfp_ext:PROC
EXTRN	z900_1F30:PROC
EXTRN	s390_1F2F:PROC
EXTRN	s370_1F80:PROC
EXTRN	z900_shift_coefficient_left_dfp_long:PROC
EXTRN	z900_1F31:PROC
EXTRN	s390_1F30:PROC
EXTRN	s370_1F81:PROC
EXTRN	z900_shift_coefficient_right_dfp_ext:PROC
EXTRN	z900_1F32:PROC
EXTRN	s390_1F31:PROC
EXTRN	s370_1F82:PROC
EXTRN	z900_shift_coefficient_right_dfp_long:PROC
EXTRN	z900_1F33:PROC
EXTRN	s390_1F32:PROC
EXTRN	s370_1F83:PROC
EXTRN	z900_subtract_dfp_ext_reg:PROC
EXTRN	z900_1F34:PROC
EXTRN	s390_1F33:PROC
EXTRN	s370_1F84:PROC
EXTRN	z900_subtract_dfp_long_reg:PROC
EXTRN	z900_1F35:PROC
EXTRN	s390_1F34:PROC
EXTRN	s370_1F85:PROC
EXTRN	z900_test_data_class_dfp_ext:PROC
EXTRN	z900_1F36:PROC
EXTRN	s390_1F35:PROC
EXTRN	s370_1F86:PROC
EXTRN	z900_test_data_class_dfp_long:PROC
EXTRN	z900_1F37:PROC
EXTRN	s390_1F36:PROC
EXTRN	s370_1F87:PROC
EXTRN	z900_test_data_class_dfp_short:PROC
EXTRN	z900_1F38:PROC
EXTRN	s390_1F37:PROC
EXTRN	s370_1F88:PROC
EXTRN	z900_test_data_group_dfp_ext:PROC
EXTRN	z900_1F39:PROC
EXTRN	s390_1F38:PROC
EXTRN	s370_1F89:PROC
EXTRN	z900_test_data_group_dfp_long:PROC
EXTRN	z900_1F3A:PROC
EXTRN	s390_1F39:PROC
EXTRN	s370_1F8A:PROC
EXTRN	z900_test_data_group_dfp_short:PROC
EXTRN	z900_1F3B:PROC
EXTRN	s390_1F3A:PROC
EXTRN	s370_1F8B:PROC
EXTRN	z900_perform_floating_point_operation:PROC
EXTRN	z900_1F3C:PROC
EXTRN	s390_1F3B:PROC
EXTRN	s370_1F8C:PROC
EXTRN	z900_add_distinct_register:PROC
EXTRN	z900_1F3D:PROC
EXTRN	s390_1F3C:PROC
EXTRN	s370_1F8D:PROC
EXTRN	z900_add_distinct_long_register:PROC
EXTRN	z900_1F3E:PROC
EXTRN	s390_1F3D:PROC
EXTRN	s370_1F8E:PROC
EXTRN	z900_add_distinct_halfword_immediate:PROC
EXTRN	z900_1F3F:PROC
EXTRN	s390_1F3E:PROC
EXTRN	s370_1F8F:PROC
EXTRN	z900_add_distinct_long_halfword_immediate:PROC
EXTRN	z900_1F40:PROC
EXTRN	s390_1F3F:PROC
EXTRN	s370_1F90:PROC
EXTRN	z900_add_logical_distinct_register:PROC
EXTRN	z900_1F41:PROC
EXTRN	s390_1F40:PROC
EXTRN	s370_1F91:PROC
EXTRN	z900_add_logical_distinct_long_register:PROC
EXTRN	z900_1F42:PROC
EXTRN	s390_1F41:PROC
EXTRN	s370_1F92:PROC
EXTRN	z900_add_logical_distinct_signed_halfword_immediate:PROC
EXTRN	z900_1F43:PROC
EXTRN	s390_1F42:PROC
EXTRN	s370_1F93:PROC
EXTRN	z900_add_logical_distinct_long_signed_halfword_immediate:PROC
EXTRN	z900_1F44:PROC
EXTRN	s390_1F43:PROC
EXTRN	s370_1F94:PROC
EXTRN	z900_and_distinct_register:PROC
EXTRN	z900_1F45:PROC
EXTRN	s390_1F44:PROC
EXTRN	s370_1F95:PROC
EXTRN	z900_and_distinct_long_register:PROC
EXTRN	z900_1F46:PROC
EXTRN	s390_1F45:PROC
EXTRN	s370_1F96:PROC
EXTRN	z900_exclusive_or_distinct_register:PROC
EXTRN	z900_1F47:PROC
EXTRN	s390_1F46:PROC
EXTRN	s370_1F97:PROC
EXTRN	z900_exclusive_or_distinct_long_register:PROC
EXTRN	z900_1F48:PROC
EXTRN	s390_1F47:PROC
EXTRN	s370_1F98:PROC
EXTRN	z900_or_distinct_register:PROC
EXTRN	z900_1F49:PROC
EXTRN	s390_1F48:PROC
EXTRN	s370_1F99:PROC
EXTRN	z900_or_distinct_long_register:PROC
EXTRN	z900_1F4A:PROC
EXTRN	s390_1F49:PROC
EXTRN	s370_1F9A:PROC
EXTRN	z900_shift_right_single_distinct:PROC
EXTRN	z900_1F4B:PROC
EXTRN	s390_1F4A:PROC
EXTRN	s370_1F9B:PROC
EXTRN	z900_shift_left_single_distinct:PROC
EXTRN	z900_1F4C:PROC
EXTRN	s390_1F4B:PROC
EXTRN	s370_1F9C:PROC
EXTRN	z900_shift_right_single_logical_distinct:PROC
EXTRN	z900_1F4D:PROC
EXTRN	s390_1F4C:PROC
EXTRN	s370_1F9D:PROC
EXTRN	s370_add_distinct_register:PROC
EXTRN	z900_shift_left_single_logical_distinct:PROC
EXTRN	z900_1F4E:PROC
EXTRN	s390_1F4D:PROC
EXTRN	s370_1F9E:PROC
EXTRN	z900_subtract_distinct_register:PROC
EXTRN	z900_1F4F:PROC
EXTRN	s390_1F4E:PROC
EXTRN	s370_1F9F:PROC
EXTRN	z900_subtract_distinct_long_register:PROC
EXTRN	s370_add_distinct_halfword_immediate:PROC
EXTRN	z900_1F50:PROC
EXTRN	s390_1F4F:PROC
EXTRN	s370_1FA0:PROC
EXTRN	z900_subtract_logical_distinct_register:PROC
EXTRN	z900_1F51:PROC
EXTRN	s390_1F50:PROC
EXTRN	s370_1FA1:PROC
EXTRN	z900_subtract_logical_distinct_long_register:PROC
EXTRN	s370_add_logical_distinct_register:PROC
EXTRN	z900_1F52:PROC
EXTRN	s390_1F51:PROC
EXTRN	s370_1FA2:PROC
EXTRN	z900_add_high_high_high_register:PROC
EXTRN	z900_1F53:PROC
EXTRN	s390_1F52:PROC
EXTRN	s370_1FA3:PROC
EXTRN	z900_add_high_high_low_register:PROC
EXTRN	s370_add_logical_distinct_signed_halfword_immediate:PROC
EXTRN	z900_1F54:PROC
EXTRN	s390_1F53:PROC
EXTRN	s370_1FA4:PROC
EXTRN	z900_add_high_immediate:PROC
EXTRN	z900_1F55:PROC
EXTRN	s390_1F54:PROC
EXTRN	s370_1FA5:PROC
EXTRN	z900_add_logical_high_high_high_register:PROC
EXTRN	s370_and_distinct_register:PROC
EXTRN	z900_1F56:PROC
EXTRN	s390_1F55:PROC
EXTRN	s370_1FA6:PROC
EXTRN	z900_add_logical_high_high_low_register:PROC
EXTRN	z900_1F57:PROC
EXTRN	s390_1F56:PROC
EXTRN	s370_1FA7:PROC
EXTRN	s370_exclusive_or_distinct_register:PROC
EXTRN	z900_add_logical_with_signed_immediate_high:PROC
EXTRN	z900_1F58:PROC
EXTRN	s390_1F57:PROC
EXTRN	s370_1FA8:PROC
EXTRN	z900_add_logical_with_signed_immediate_high_n:PROC
EXTRN	z900_1F59:PROC
EXTRN	s390_1F58:PROC
EXTRN	s370_1FA9:PROC
EXTRN	s370_or_distinct_register:PROC
EXTRN	z900_branch_relative_on_count_high:PROC
EXTRN	z900_1F5A:PROC
EXTRN	s390_1F59:PROC
EXTRN	s370_1FAA:PROC
EXTRN	z900_compare_high_high_register:PROC
EXTRN	z900_1F5B:PROC
EXTRN	s390_1F5A:PROC
EXTRN	s370_1FAB:PROC
EXTRN	z900_compare_high_low_register:PROC
EXTRN	s370_shift_right_single_distinct:PROC
EXTRN	z900_1F5C:PROC
EXTRN	s390_1F5B:PROC
EXTRN	s370_1FAC:PROC
EXTRN	z900_compare_high_fullword:PROC
EXTRN	s370_shift_left_single_distinct:PROC
EXTRN	z900_1F5D:PROC
EXTRN	s390_1F5C:PROC
EXTRN	s370_1FAD:PROC
EXTRN	z900_compare_high_immediate:PROC
EXTRN	s370_shift_right_single_logical_distinct:PROC
EXTRN	z900_1F5E:PROC
EXTRN	s390_1F5D:PROC
EXTRN	s370_1FAE:PROC
EXTRN	z900_compare_logical_high_high_register:PROC
EXTRN	s370_shift_left_single_logical_distinct:PROC
EXTRN	z900_1F5F:PROC
EXTRN	s390_1F5E:PROC
EXTRN	s370_1FAF:PROC
EXTRN	z900_compare_logical_high_low_register:PROC
EXTRN	s370_subtract_distinct_register:PROC
EXTRN	z900_1F60:PROC
EXTRN	s390_1F5F:PROC
EXTRN	s370_1FB0:PROC
EXTRN	z900_compare_logical_high_fullword:PROC
EXTRN	z900_1F61:PROC
EXTRN	s390_1F60:PROC
EXTRN	s370_1FB1:PROC
EXTRN	s370_subtract_logical_distinct_register:PROC
EXTRN	z900_compare_logical_high_immediate:PROC
EXTRN	z900_1F62:PROC
EXTRN	s390_1F61:PROC
EXTRN	s370_1FB2:PROC
EXTRN	z900_load_byte_high:PROC
EXTRN	z900_1F63:PROC
EXTRN	s390_1F62:PROC
EXTRN	s370_1FB3:PROC
EXTRN	z900_load_fullword_high:PROC
EXTRN	z900_1F64:PROC
EXTRN	s390_1F63:PROC
EXTRN	s370_1FB4:PROC
EXTRN	z900_load_halfword_high:PROC
EXTRN	z900_1F65:PROC
EXTRN	s390_1F64:PROC
EXTRN	s370_1FB5:PROC
EXTRN	z900_load_logical_character_high:PROC
EXTRN	z900_1F66:PROC
EXTRN	s390_1F65:PROC
EXTRN	s370_1FB6:PROC
EXTRN	z900_load_logical_halfword_high:PROC
EXTRN	z900_1F67:PROC
EXTRN	s390_1F66:PROC
EXTRN	s370_1FB7:PROC
EXTRN	z900_rotate_then_insert_selected_bits_high_long_reg:PROC
EXTRN	z900_1F68:PROC
EXTRN	s390_1F67:PROC
EXTRN	s370_1FB8:PROC
EXTRN	z900_rotate_then_insert_selected_bits_low_long_reg:PROC
EXTRN	z900_1F69:PROC
EXTRN	s390_1F68:PROC
EXTRN	s370_1FB9:PROC
EXTRN	z900_store_character_high:PROC
EXTRN	z900_1F6A:PROC
EXTRN	s390_1F69:PROC
EXTRN	s370_1FBA:PROC
EXTRN	z900_store_fullword_high:PROC
EXTRN	z900_1F6B:PROC
EXTRN	s390_1F6A:PROC
EXTRN	s370_1FBB:PROC
EXTRN	z900_store_halfword_high:PROC
EXTRN	z900_1F6C:PROC
EXTRN	s390_1F6B:PROC
EXTRN	s370_1FBC:PROC
EXTRN	z900_subtract_high_high_high_register:PROC
EXTRN	z900_1F6D:PROC
EXTRN	s390_1F6C:PROC
EXTRN	s370_1FBD:PROC
EXTRN	z900_subtract_high_high_low_register:PROC
EXTRN	z900_1F6E:PROC
EXTRN	s390_1F6D:PROC
EXTRN	s370_1FBE:PROC
EXTRN	z900_subtract_logical_high_high_high_register:PROC
EXTRN	z900_1F6F:PROC
EXTRN	s390_1F6E:PROC
EXTRN	s370_1FBF:PROC
EXTRN	z900_subtract_logical_high_high_low_register:PROC
EXTRN	z900_1F70:PROC
EXTRN	s390_1F6F:PROC
EXTRN	s370_1FC0:PROC
EXTRN	z900_load_and_add:PROC
EXTRN	z900_1F71:PROC
EXTRN	s390_1F70:PROC
EXTRN	s370_1FC1:PROC
EXTRN	z900_load_and_add_logical:PROC
EXTRN	z900_1F72:PROC
EXTRN	s390_1F71:PROC
EXTRN	s370_1FC2:PROC
EXTRN	z900_load_and_and:PROC
EXTRN	z900_1F73:PROC
EXTRN	s390_1F72:PROC
EXTRN	s370_1FC3:PROC
EXTRN	z900_load_and_exclusive_or:PROC
EXTRN	z900_1F74:PROC
EXTRN	s390_1F73:PROC
EXTRN	s370_1FC4:PROC
EXTRN	z900_load_and_or:PROC
EXTRN	z900_1F75:PROC
EXTRN	s390_1F74:PROC
EXTRN	s370_1FC5:PROC
EXTRN	z900_load_pair_disjoint:PROC
EXTRN	z900_1F76:PROC
EXTRN	s390_1F75:PROC
EXTRN	s370_1FC6:PROC
EXTRN	z900_load_and_add_long:PROC
EXTRN	z900_1F77:PROC
EXTRN	s390_1F76:PROC
EXTRN	s370_1FC7:PROC
EXTRN	z900_load_and_add_logical_long:PROC
EXTRN	z900_1F78:PROC
EXTRN	s390_1F77:PROC
EXTRN	s370_1FC8:PROC
EXTRN	z900_load_and_and_long:PROC
EXTRN	z900_1F79:PROC
EXTRN	s390_1F78:PROC
EXTRN	s370_1FC9:PROC
EXTRN	z900_load_and_exclusive_or_long:PROC
EXTRN	z900_1F7A:PROC
EXTRN	s390_1F79:PROC
EXTRN	s370_1FCA:PROC
EXTRN	z900_load_and_or_long:PROC
EXTRN	z900_1F7B:PROC
EXTRN	s390_1F7A:PROC
EXTRN	s370_1FCB:PROC
EXTRN	z900_load_pair_disjoint_long:PROC
EXTRN	z900_1F7C:PROC
EXTRN	s390_1F7B:PROC
EXTRN	s370_1FCC:PROC
EXTRN	z900_load_on_condition_register:PROC
EXTRN	z900_1F7D:PROC
EXTRN	s390_1F7C:PROC
EXTRN	s370_1FCD:PROC
EXTRN	z900_load_on_condition_long_register:PROC
EXTRN	z900_1F7E:PROC
EXTRN	s390_1F7D:PROC
EXTRN	s370_1FCE:PROC
EXTRN	z900_load_on_condition:PROC
EXTRN	z900_1F7F:PROC
EXTRN	s390_1F7E:PROC
EXTRN	s370_1FCF:PROC
EXTRN	z900_load_on_condition_long:PROC
EXTRN	z900_1F80:PROC
EXTRN	s390_1F7F:PROC
EXTRN	s370_1FD0:PROC
EXTRN	z900_store_on_condition:PROC
EXTRN	z900_1F81:PROC
EXTRN	s390_1F80:PROC
EXTRN	s370_1FD1:PROC
EXTRN	z900_store_on_condition_long:PROC
EXTRN	s370_load_and_add:PROC
EXTRN	z900_1F82:PROC
EXTRN	s390_1F81:PROC
EXTRN	s370_1FD2:PROC
EXTRN	z900_population_count:PROC
EXTRN	s370_load_and_add_logical:PROC
EXTRN	z900_1F83:PROC
EXTRN	s390_1F82:PROC
EXTRN	s370_1FD3:PROC
EXTRN	s370_load_and_and:PROC
EXTRN	z900_convert_zoned_to_dfp_ext:PROC
EXTRN	z900_1F84:PROC
EXTRN	s390_1F83:PROC
EXTRN	s370_1FD4:PROC
EXTRN	s370_load_and_exclusive_or:PROC
EXTRN	z900_convert_zoned_to_dfp_long:PROC
EXTRN	z900_1F85:PROC
EXTRN	s390_1F84:PROC
EXTRN	s370_1FD5:PROC
EXTRN	s370_load_and_or:PROC
EXTRN	z900_convert_dfp_ext_to_zoned:PROC
EXTRN	z900_1F86:PROC
EXTRN	s390_1F85:PROC
EXTRN	s370_1FD6:PROC
EXTRN	s370_load_pair_disjoint:PROC
EXTRN	z900_convert_dfp_long_to_zoned:PROC
EXTRN	z900_1F87:PROC
EXTRN	s390_1F86:PROC
EXTRN	s370_1FD7:PROC
EXTRN	z900_branch_prediction_preload:PROC
EXTRN	z900_1F88:PROC
EXTRN	s390_1F87:PROC
EXTRN	s370_1FD8:PROC
EXTRN	z900_branch_prediction_relative_preload:PROC
EXTRN	z900_1F89:PROC
EXTRN	s390_1F88:PROC
EXTRN	s370_1FD9:PROC
EXTRN	z900_next_instruction_access_intent:PROC
EXTRN	z900_1F8A:PROC
EXTRN	s390_1F89:PROC
EXTRN	s370_1FDA:PROC
EXTRN	z900_load_and_trap:PROC
EXTRN	z900_1F8B:PROC
EXTRN	s390_1F8A:PROC
EXTRN	s370_1FDB:PROC
EXTRN	z900_load_long_and_trap:PROC
EXTRN	z900_1F8C:PROC
EXTRN	s390_1F8B:PROC
EXTRN	s370_1FDC:PROC
EXTRN	z900_load_fullword_high_and_trap:PROC
EXTRN	z900_1F8D:PROC
EXTRN	s390_1F8C:PROC
EXTRN	s370_1FDD:PROC
EXTRN	s370_load_on_condition_register:PROC
EXTRN	z900_load_logical_long_fullword_and_trap:PROC
EXTRN	z900_1F8E:PROC
EXTRN	s390_1F8D:PROC
EXTRN	s370_1FDE:PROC
EXTRN	z900_load_logical_long_thirtyone_and_trap:PROC
EXTRN	z900_1F8F:PROC
EXTRN	s390_1F8E:PROC
EXTRN	s370_1FDF:PROC
EXTRN	z900_compare_logical_and_trap:PROC
EXTRN	s370_load_on_condition:PROC
EXTRN	z900_1F90:PROC
EXTRN	s390_1F8F:PROC
EXTRN	s370_1FE0:PROC
EXTRN	z900_compare_logical_and_trap_long:PROC
EXTRN	z900_1F91:PROC
EXTRN	s390_1F90:PROC
EXTRN	s370_1FE1:PROC
EXTRN	s370_store_on_condition:PROC
EXTRN	z900_rotate_then_insert_selected_bits_long_reg_n:PROC
EXTRN	z900_1F92:PROC
EXTRN	s390_1F91:PROC
EXTRN	s370_1FE2:PROC
EXTRN	z900_perform_processor_assist:PROC
EXTRN	z900_1F93:PROC
EXTRN	s390_1F92:PROC
EXTRN	s370_1FE3:PROC
EXTRN	z900_transaction_begin_constrained:PROC
EXTRN	z900_1F94:PROC
EXTRN	s390_1F93:PROC
EXTRN	s370_1FE4:PROC
EXTRN	z900_load_halfword_high_immediate_on_condition:PROC
EXTRN	z900_1F95:PROC
EXTRN	s390_1F94:PROC
EXTRN	s370_1FE5:PROC
EXTRN	z900_load_halfword_immediate_on_condition:PROC
EXTRN	z900_1F96:PROC
EXTRN	s390_1F95:PROC
EXTRN	s370_1FE6:PROC
EXTRN	z900_load_halfword_immediate_on_condition_grande:PROC
EXTRN	z900_1F97:PROC
EXTRN	s390_1F96:PROC
EXTRN	s370_1FE7:PROC
EXTRN	z900_load_high_on_condition:PROC
EXTRN	z900_1F98:PROC
EXTRN	s390_1F97:PROC
EXTRN	s370_1FE8:PROC
EXTRN	z900_load_high_on_condition_register:PROC
EXTRN	z900_1F99:PROC
EXTRN	s390_1F98:PROC
EXTRN	s370_1FE9:PROC
EXTRN	s370_insert_storage_key:PROC
EXTRN	z900_store_high_on_condition:PROC
EXTRN	z900_1F9A:PROC
EXTRN	s390_1F99:PROC
EXTRN	s370_1FEA:PROC
EXTRN	s370_reset_reference_bit:PROC
EXTRN	z900_load_and_zero_rightmost_byte_grande:PROC
EXTRN	z900_1F9B:PROC
EXTRN	s390_1F9A:PROC
EXTRN	s370_1FEB:PROC
EXTRN	s370_set_storage_key:PROC
EXTRN	z900_load_logical_and_zero_rightmost_byte:PROC
EXTRN	z900_1F9C:PROC
EXTRN	s390_1F9B:PROC
EXTRN	s370_1FEC:PROC
EXTRN	s370_branch_and_save_and_set_mode:PROC
EXTRN	z900_load_and_zero_rightmost_byte:PROC
EXTRN	z900_1F9D:PROC
EXTRN	s390_1F9C:PROC
EXTRN	s370_1FED:PROC
EXTRN	s370_branch_and_set_mode:PROC
EXTRN	z900_branch_indirect_on_condition:PROC
EXTRN	z900_1F9E:PROC
EXTRN	s390_1F9D:PROC
EXTRN	s370_1FEE:PROC
EXTRN	s370_add_bfp_ext_reg:PROC
EXTRN	z900_add_long_halfword:PROC
EXTRN	z900_1F9F:PROC
EXTRN	s390_1F9E:PROC
EXTRN	s370_1FEF:PROC
EXTRN	z900_subtract_long_halfword:PROC
EXTRN	s370_add_bfp_long:PROC
EXTRN	z900_1FA0:PROC
EXTRN	s390_1F9F:PROC
EXTRN	s370_1FF0:PROC
EXTRN	s370_add_bfp_long_reg:PROC
EXTRN	z900_multiply_long_register:PROC
EXTRN	z900_1FA1:PROC
EXTRN	s390_1FA0:PROC
EXTRN	s370_1FF1:PROC
EXTRN	z900_multiply_long:PROC
EXTRN	s370_add_bfp_short:PROC
EXTRN	z900_1FA2:PROC
EXTRN	s390_1FA1:PROC
EXTRN	s370_1FF2:PROC
EXTRN	s370_add_bfp_short_reg:PROC
EXTRN	z900_multiply_long_halfword:PROC
EXTRN	z900_1FA3:PROC
EXTRN	s390_1FA2:PROC
EXTRN	s370_1FF3:PROC
EXTRN	s370_compare_and_signal_bfp_ext_reg:PROC
EXTRN	z900_multiply_single_register_cc:PROC
EXTRN	z900_1FA4:PROC
EXTRN	s390_1FA3:PROC
EXTRN	s370_1FF4:PROC
EXTRN	z900_multiply_single_cc:PROC
EXTRN	s370_compare_and_signal_bfp_long:PROC
EXTRN	z900_1FA5:PROC
EXTRN	s390_1FA4:PROC
EXTRN	s370_1FF5:PROC
EXTRN	s370_compare_and_signal_bfp_long_reg:PROC
EXTRN	z900_multiply_single_long_register_cc:PROC
EXTRN	z900_1FA6:PROC
EXTRN	s390_1FA5:PROC
EXTRN	s370_1FF6:PROC
EXTRN	z900_multiply_single_long_cc:PROC
EXTRN	s370_compare_and_signal_bfp_short:PROC
EXTRN	z900_1FA7:PROC
EXTRN	s390_1FA6:PROC
EXTRN	s370_1FF7:PROC
EXTRN	s370_compare_and_signal_bfp_short_reg:PROC
EXTRN	z900_and_register_with_complement:PROC
EXTRN	z900_1FA8:PROC
EXTRN	s390_1FA7:PROC
EXTRN	s370_1FF8:PROC
EXTRN	s370_compare_bfp_ext_reg:PROC
EXTRN	z900_and_register_long_with_complement:PROC
EXTRN	z900_1FA9:PROC
EXTRN	s390_1FA8:PROC
EXTRN	s370_1FF9:PROC
EXTRN	z900_nand_register:PROC
EXTRN	s370_compare_bfp_long:PROC
EXTRN	z900_1FAA:PROC
EXTRN	s390_1FA9:PROC
EXTRN	s370_1FFA:PROC
EXTRN	s370_compare_bfp_long_reg:PROC
EXTRN	z900_nand_register_long:PROC
EXTRN	z900_1FAB:PROC
EXTRN	s390_1FAA:PROC
EXTRN	s370_1FFB:PROC
EXTRN	z900_not_xor_register:PROC
EXTRN	s370_compare_bfp_short:PROC
EXTRN	z900_1FAC:PROC
EXTRN	s390_1FAB:PROC
EXTRN	s370_1FFC:PROC
EXTRN	s370_compare_bfp_short_reg:PROC
EXTRN	z900_not_xor_register_long:PROC
EXTRN	z900_1FAD:PROC
EXTRN	s390_1FAC:PROC
EXTRN	s370_1FFD:PROC
EXTRN	s370_convert_bfp_ext_to_fix32_reg:PROC
EXTRN	z900_nor_register:PROC
EXTRN	z900_1FAE:PROC
EXTRN	s390_1FAD:PROC
EXTRN	s370_1FFE:PROC
EXTRN	z900_nor_register_long:PROC
EXTRN	z900_1FAF:PROC
EXTRN	s390_1FAE:PROC
EXTRN	s370_1FFF:PROC
EXTRN	s370_convert_bfp_long_to_fix32_reg:PROC
EXTRN	z900_or_register_with_complement:PROC
EXTRN	z900_1FB0:PROC
EXTRN	s390_1FAF:PROC
EXTRN	z900_or_register_long_with_complement:PROC
EXTRN	z900_1FB1:PROC
EXTRN	s390_1FB0:PROC
EXTRN	s370_convert_bfp_short_to_fix32_reg:PROC
EXTRN	z900_select_register:PROC
EXTRN	z900_1FB2:PROC
EXTRN	s390_1FB1:PROC
EXTRN	z900_select_register_long:PROC
EXTRN	z900_1FB3:PROC
EXTRN	s390_1FB2:PROC
EXTRN	s370_convert_fix32_to_bfp_ext_reg:PROC
EXTRN	z900_select_fullword_high_register:PROC
EXTRN	z900_1FB4:PROC
EXTRN	s390_1FB3:PROC
EXTRN	s370_convert_fix32_to_bfp_long_reg:PROC
EXTRN	z900_move_right_to_left:PROC
EXTRN	z900_1FB5:PROC
EXTRN	s390_1FB4:PROC
EXTRN	s370_convert_fix32_to_bfp_short_reg:PROC
EXTRN	z900_reset_reference_bits_multiple:PROC
EXTRN	z900_1FB6:PROC
EXTRN	s390_1FB5:PROC
EXTRN	z900_transaction_end:PROC
EXTRN	z900_1FB7:PROC
EXTRN	s390_1FB6:PROC
EXTRN	z900_extract_transaction_nesting_depth:PROC
EXTRN	z900_1FB8:PROC
EXTRN	s390_1FB7:PROC
EXTRN	z900_transaction_abort:PROC
EXTRN	z900_1FB9:PROC
EXTRN	s390_1FB8:PROC
EXTRN	s370_divide_bfp_ext_reg:PROC
EXTRN	z900_nontransactional_store:PROC
EXTRN	z900_1FBA:PROC
EXTRN	s390_1FB9:PROC
EXTRN	z900_transaction_begin:PROC
EXTRN	s370_divide_bfp_long:PROC
EXTRN	z900_1FBB:PROC
EXTRN	s390_1FBA:PROC
EXTRN	z900_store_hypervisor_information:PROC
EXTRN	s370_divide_bfp_long_reg:PROC
EXTRN	z900_1FBC:PROC
EXTRN	s390_1FBB:PROC
EXTRN	s370_divide_bfp_short:PROC
EXTRN	z900_1FBD:PROC
EXTRN	s390_1FBC:PROC
EXTRN	s370_divide_bfp_short_reg:PROC
EXTRN	z900_1FBE:PROC
EXTRN	s390_1FBD:PROC
EXTRN	s370_divide_integer_bfp_long_reg:PROC
EXTRN	z900_1FBF:PROC
EXTRN	s390_1FBE:PROC
EXTRN	s370_divide_integer_bfp_short_reg:PROC
EXTRN	z900_1FC0:PROC
EXTRN	s390_1FBF:PROC
EXTRN	s370_extract_fpc:PROC
EXTRN	z900_1FC1:PROC
EXTRN	s390_1FC0:PROC
EXTRN	s370_load_and_test_bfp_ext_reg:PROC
EXTRN	z900_convert_packed_to_dfp_ext:PROC
EXTRN	z900_1FC2:PROC
EXTRN	s390_1FC1:PROC
EXTRN	s370_load_and_test_bfp_long_reg:PROC
EXTRN	z900_convert_packed_to_dfp_long:PROC
EXTRN	z900_1FC3:PROC
EXTRN	s390_1FC2:PROC
EXTRN	s370_load_and_test_bfp_short_reg:PROC
EXTRN	z900_convert_dfp_ext_to_packed:PROC
EXTRN	z900_1FC4:PROC
EXTRN	s390_1FC3:PROC
EXTRN	s370_load_complement_bfp_ext_reg:PROC
EXTRN	z900_convert_dfp_long_to_packed:PROC
EXTRN	z900_1FC5:PROC
EXTRN	s390_1FC4:PROC
EXTRN	s370_load_complement_bfp_long_reg:PROC
EXTRN	z900_vector_load:PROC
EXTRN	z900_1FC6:PROC
EXTRN	s390_1FC5:PROC
EXTRN	s370_load_complement_bfp_short_reg:PROC
EXTRN	z900_vector_store:PROC
EXTRN	z900_1FC7:PROC
EXTRN	s390_1FC6:PROC
EXTRN	s370_load_fp_int_bfp_ext_reg:PROC
EXTRN	z900_vector_load_multiple:PROC
EXTRN	z900_1FC8:PROC
EXTRN	s390_1FC7:PROC
EXTRN	s370_load_fp_int_bfp_long_reg:PROC
EXTRN	z900_vector_store_multiple:PROC
EXTRN	z900_1FC9:PROC
EXTRN	s390_1FC8:PROC
EXTRN	s370_load_fp_int_bfp_short_reg:PROC
EXTRN	z900_insert_reference_bits_multiple:PROC
EXTRN	z900_1FCA:PROC
EXTRN	s390_1FC9:PROC
EXTRN	s370_load_fpc:PROC
EXTRN	z900_load_bear:PROC
EXTRN	z900_1FCB:PROC
EXTRN	s390_1FCA:PROC
EXTRN	z900_store_bear:PROC
EXTRN	s370_load_lengthened_bfp_long_to_ext:PROC
EXTRN	z900_1FCC:PROC
EXTRN	s390_1FCB:PROC
EXTRN	s370_load_lengthened_bfp_long_to_ext_reg:PROC
EXTRN	z900_load_program_status_word_extended_y:PROC
EXTRN	z900_1FCD:PROC
EXTRN	s390_1FCC:PROC
EXTRN	z900_purge_accesslist_lookaside_buffer:PROC
EXTRN	s370_load_lengthened_bfp_short_to_ext:PROC
EXTRN	z900_1FCE:PROC
EXTRN	s390_1FCD:PROC
EXTRN	z900_test_access:PROC
EXTRN	s370_load_lengthened_bfp_short_to_ext_reg:PROC
EXTRN	z900_1FCF:PROC
EXTRN	s390_1FCE:PROC
EXTRN	z900_copy_access:PROC
EXTRN	s370_load_lengthened_bfp_short_to_long:PROC
EXTRN	z900_1FD0:PROC
EXTRN	s390_1FCF:PROC
EXTRN	z900_extract_access_register:PROC
EXTRN	s370_load_lengthened_bfp_short_to_long_reg:PROC
EXTRN	z900_1FD1:PROC
EXTRN	s390_1FD0:PROC
EXTRN	z900_load_access_multiple:PROC
EXTRN	s370_load_negative_bfp_ext_reg:PROC
EXTRN	z900_1FD2:PROC
EXTRN	s390_1FD1:PROC
EXTRN	z900_set_access_register:PROC
EXTRN	s370_load_negative_bfp_long_reg:PROC
EXTRN	z900_1FD3:PROC
EXTRN	s390_1FD2:PROC
EXTRN	z900_store_access_multiple:PROC
EXTRN	s370_load_negative_bfp_short_reg:PROC
EXTRN	z900_1FD4:PROC
EXTRN	s390_1FD3:PROC
EXTRN	z900_branch_and_save_and_set_mode:PROC
EXTRN	s370_load_positive_bfp_ext_reg:PROC
EXTRN	z900_1FD5:PROC
EXTRN	s390_1FD4:PROC
EXTRN	z900_branch_and_set_mode:PROC
EXTRN	s370_load_positive_bfp_long_reg:PROC
EXTRN	z900_1FD6:PROC
EXTRN	s390_1FD5:PROC
EXTRN	s370_load_positive_bfp_short_reg:PROC
EXTRN	z900_add_bfp_ext_reg:PROC
EXTRN	z900_1FD7:PROC
EXTRN	s390_1FD6:PROC
EXTRN	s370_load_rounded_bfp_ext_to_long_reg:PROC
EXTRN	z900_add_bfp_long:PROC
EXTRN	z900_1FD8:PROC
EXTRN	s390_1FD7:PROC
EXTRN	z900_add_bfp_long_reg:PROC
EXTRN	s370_load_rounded_bfp_ext_to_short_reg:PROC
EXTRN	z900_1FD9:PROC
EXTRN	s390_1FD8:PROC
EXTRN	s370_load_rounded_bfp_long_to_short_reg:PROC
EXTRN	z900_add_bfp_short:PROC
EXTRN	z900_1FDA:PROC
EXTRN	s390_1FD9:PROC
EXTRN	z900_add_bfp_short_reg:PROC
EXTRN	s370_multiply_add_bfp_long:PROC
EXTRN	z900_1FDB:PROC
EXTRN	s390_1FDA:PROC
EXTRN	s370_multiply_add_bfp_long_reg:PROC
EXTRN	z900_compare_and_signal_bfp_ext_reg:PROC
EXTRN	z900_1FDC:PROC
EXTRN	s390_1FDB:PROC
EXTRN	s370_multiply_add_bfp_short:PROC
EXTRN	z900_compare_and_signal_bfp_long:PROC
EXTRN	z900_1FDD:PROC
EXTRN	s390_1FDC:PROC
EXTRN	s370_multiply_add_bfp_short_reg:PROC
EXTRN	z900_compare_and_signal_bfp_long_reg:PROC
EXTRN	z900_1FDE:PROC
EXTRN	s390_1FDD:PROC
EXTRN	s370_multiply_bfp_ext_reg:PROC
EXTRN	z900_compare_and_signal_bfp_short:PROC
EXTRN	z900_1FDF:PROC
EXTRN	s390_1FDE:PROC
EXTRN	z900_compare_and_signal_bfp_short_reg:PROC
EXTRN	s370_multiply_bfp_long:PROC
EXTRN	z900_1FE0:PROC
EXTRN	s390_1FDF:PROC
EXTRN	s370_multiply_bfp_long_reg:PROC
EXTRN	z900_compare_bfp_ext_reg:PROC
EXTRN	z900_1FE1:PROC
EXTRN	s390_1FE0:PROC
EXTRN	s370_multiply_bfp_long_to_ext:PROC
EXTRN	z900_compare_bfp_long:PROC
EXTRN	z900_1FE2:PROC
EXTRN	s390_1FE1:PROC
EXTRN	s370_multiply_bfp_long_to_ext_reg:PROC
EXTRN	z900_compare_bfp_long_reg:PROC
EXTRN	z900_1FE3:PROC
EXTRN	s390_1FE2:PROC
EXTRN	z900_compare_bfp_short:PROC
EXTRN	s370_multiply_bfp_short:PROC
EXTRN	z900_1FE4:PROC
EXTRN	s390_1FE3:PROC
EXTRN	z900_compare_bfp_short_reg:PROC
EXTRN	s370_multiply_bfp_short_reg:PROC
EXTRN	z900_1FE5:PROC
EXTRN	s390_1FE4:PROC
EXTRN	z900_convert_bfp_ext_to_fix32_reg:PROC
EXTRN	s370_multiply_bfp_short_to_long:PROC
EXTRN	z900_1FE6:PROC
EXTRN	s390_1FE5:PROC
EXTRN	s370_multiply_bfp_short_to_long_reg:PROC
EXTRN	z900_convert_bfp_ext_to_fix64_reg:PROC
EXTRN	z900_1FE7:PROC
EXTRN	s390_1FE6:PROC
EXTRN	z900_convert_bfp_long_to_fix32_reg:PROC
EXTRN	s370_multiply_subtract_bfp_long:PROC
EXTRN	z900_1FE8:PROC
EXTRN	s390_1FE7:PROC
EXTRN	s370_multiply_subtract_bfp_long_reg:PROC
EXTRN	z900_convert_bfp_long_to_fix64_reg:PROC
EXTRN	z900_1FE9:PROC
EXTRN	s390_1FE8:PROC
EXTRN	z900_convert_bfp_short_to_fix32_reg:PROC
EXTRN	s370_multiply_subtract_bfp_short:PROC
EXTRN	z900_1FEA:PROC
EXTRN	s390_1FE9:PROC
EXTRN	s370_multiply_subtract_bfp_short_reg:PROC
EXTRN	z900_convert_bfp_short_to_fix64_reg:PROC
EXTRN	z900_1FEB:PROC
EXTRN	s390_1FEA:PROC
EXTRN	s370_set_bfp_rounding_mode_2bit:PROC
EXTRN	z900_convert_fix32_to_bfp_ext_reg:PROC
EXTRN	z900_1FEC:PROC
EXTRN	s390_1FEB:PROC
EXTRN	s370_set_fpc:PROC
EXTRN	z900_convert_fix32_to_bfp_long_reg:PROC
EXTRN	z900_1FED:PROC
EXTRN	s390_1FEC:PROC
EXTRN	s370_squareroot_bfp_ext_reg:PROC
EXTRN	z900_convert_fix32_to_bfp_short_reg:PROC
EXTRN	z900_1FEE:PROC
EXTRN	s390_1FED:PROC
EXTRN	z900_convert_fix64_to_bfp_ext_reg:PROC
EXTRN	s370_squareroot_bfp_long:PROC
EXTRN	z900_1FEF:PROC
EXTRN	s390_1FEE:PROC
EXTRN	s370_squareroot_bfp_long_reg:PROC
EXTRN	z900_convert_fix64_to_bfp_long_reg:PROC
EXTRN	z900_1FF0:PROC
EXTRN	s390_1FEF:PROC
EXTRN	z900_convert_fix64_to_bfp_short_reg:PROC
EXTRN	s370_squareroot_bfp_short:PROC
EXTRN	z900_1FF1:PROC
EXTRN	s390_1FF0:PROC
EXTRN	s370_squareroot_bfp_short_reg:PROC
EXTRN	z900_divide_bfp_ext_reg:PROC
EXTRN	z900_1FF2:PROC
EXTRN	s390_1FF1:PROC
EXTRN	s370_store_fpc:PROC
EXTRN	z900_divide_bfp_long:PROC
EXTRN	z900_1FF3:PROC
EXTRN	s390_1FF2:PROC
EXTRN	z900_divide_bfp_long_reg:PROC
EXTRN	s370_subtract_bfp_ext_reg:PROC
EXTRN	z900_1FF4:PROC
EXTRN	s390_1FF3:PROC
EXTRN	z900_divide_bfp_short:PROC
EXTRN	s370_subtract_bfp_long:PROC
EXTRN	z900_1FF5:PROC
EXTRN	s390_1FF4:PROC
EXTRN	z900_divide_bfp_short_reg:PROC
EXTRN	s370_subtract_bfp_long_reg:PROC
EXTRN	z900_1FF6:PROC
EXTRN	s390_1FF5:PROC
EXTRN	z900_divide_integer_bfp_long_reg:PROC
EXTRN	s370_subtract_bfp_short:PROC
EXTRN	z900_1FF7:PROC
EXTRN	s390_1FF6:PROC
EXTRN	s370_subtract_bfp_short_reg:PROC
EXTRN	z900_divide_integer_bfp_short_reg:PROC
EXTRN	z900_1FF8:PROC
EXTRN	s390_1FF7:PROC
EXTRN	z900_extract_fpc:PROC
EXTRN	s370_test_data_class_bfp_ext:PROC
EXTRN	z900_1FF9:PROC
EXTRN	s390_1FF8:PROC
EXTRN	z900_load_and_test_bfp_ext_reg:PROC
EXTRN	s370_test_data_class_bfp_long:PROC
EXTRN	z900_1FFA:PROC
EXTRN	s390_1FF9:PROC
EXTRN	z900_load_and_test_bfp_long_reg:PROC
EXTRN	s370_test_data_class_bfp_short:PROC
EXTRN	z900_1FFB:PROC
EXTRN	s390_1FFA:PROC
EXTRN	s370_connect_channel_set:PROC
EXTRN	z900_load_and_test_bfp_short_reg:PROC
EXTRN	z900_1FFC:PROC
EXTRN	s390_1FFB:PROC
EXTRN	s370_disconnect_channel_set:PROC
EXTRN	z900_load_complement_bfp_ext_reg:PROC
EXTRN	z900_1FFD:PROC
EXTRN	s390_1FFC:PROC
EXTRN	s370_checksum:PROC
EXTRN	z900_load_complement_bfp_long_reg:PROC
EXTRN	z900_1FFE:PROC
EXTRN	s390_1FFD:PROC
EXTRN	s370_cmpsc_2012:PROC
EXTRN	z900_load_complement_bfp_short_reg:PROC
EXTRN	z900_1FFF:PROC
EXTRN	s390_1FFE:PROC
EXTRN	s370_compare_logical_long_extended:PROC
EXTRN	z900_load_fp_int_bfp_ext_reg:PROC
EXTRN	s390_1FFF:PROC
EXTRN	s370_move_long_extended:PROC
EXTRN	z900_load_fp_int_bfp_long_reg:PROC
EXTRN	s370_extract_primary_asn:PROC
EXTRN	z900_load_fp_int_bfp_short_reg:PROC
EXTRN	s370_extract_secondary_asn:PROC
EXTRN	z900_load_fpc:PROC
EXTRN	s370_insert_address_space_control:PROC
EXTRN	z900_load_lengthened_bfp_long_to_ext:PROC
EXTRN	s370_insert_virtual_storage_key:PROC
EXTRN	z900_load_lengthened_bfp_long_to_ext_reg:PROC
EXTRN	s370_load_address_space_parameters:PROC
EXTRN	z900_load_lengthened_bfp_short_to_ext:PROC
EXTRN	s370_move_to_primary:PROC
EXTRN	z900_load_lengthened_bfp_short_to_ext_reg:PROC
EXTRN	s370_move_to_secondary:PROC
EXTRN	z900_load_lengthened_bfp_short_to_long:PROC
EXTRN	s370_move_with_key:PROC
EXTRN	z900_load_lengthened_bfp_short_to_long_reg:PROC
EXTRN	s370_program_call:PROC
EXTRN	z900_load_negative_bfp_ext_reg:PROC
EXTRN	s370_program_transfer:PROC
EXTRN	z900_load_negative_bfp_long_reg:PROC
EXTRN	s370_set_address_space_control:PROC
EXTRN	z900_load_negative_bfp_short_reg:PROC
EXTRN	s370_set_secondary_asn:PROC
EXTRN	z900_load_positive_bfp_ext_reg:PROC
EXTRN	z900_load_positive_bfp_long_reg:PROC
EXTRN	s370_ecpsvm_basic_freex:PROC
EXTRN	z900_load_positive_bfp_short_reg:PROC
EXTRN	s370_ecpsvm_basic_fretx:PROC
EXTRN	z900_load_rounded_bfp_ext_to_long_reg:PROC
EXTRN	s370_ecpsvm_lock_page:PROC
EXTRN	z900_load_rounded_bfp_ext_to_short_reg:PROC
EXTRN	s370_ecpsvm_unlock_page:PROC
EXTRN	z900_load_rounded_bfp_long_to_short_reg:PROC
EXTRN	s370_ecpsvm_decode_next_ccw:PROC
EXTRN	s370_ecpsvm_free_ccwstor:PROC
EXTRN	z900_multiply_add_bfp_long:PROC
EXTRN	z900_multiply_add_bfp_long_reg:PROC
EXTRN	s370_ecpsvm_locate_vblock:PROC
EXTRN	s370_ecpsvm_disp1:PROC
EXTRN	z900_multiply_add_bfp_short:PROC
EXTRN	z900_multiply_add_bfp_short_reg:PROC
EXTRN	s370_ecpsvm_tpage:PROC
EXTRN	z900_multiply_bfp_ext_reg:PROC
EXTRN	s370_ecpsvm_tpage_lock:PROC
EXTRN	s370_ecpsvm_inval_segtab:PROC
EXTRN	z900_multiply_bfp_long:PROC
EXTRN	z900_multiply_bfp_long_reg:PROC
EXTRN	s370_ecpsvm_inval_ptable:PROC
EXTRN	s370_ecpsvm_decode_first_ccw:PROC
EXTRN	z900_multiply_bfp_long_to_ext:PROC
EXTRN	z900_multiply_bfp_long_to_ext_reg:PROC
EXTRN	s370_ecpsvm_dispatch_main:PROC
EXTRN	s370_ecpsvm_locate_rblock:PROC
EXTRN	z900_multiply_bfp_short:PROC
EXTRN	z900_multiply_bfp_short_reg:PROC
EXTRN	s370_ecpsvm_comm_ccwproc:PROC
EXTRN	s370_ecpsvm_unxlate_ccw:PROC
EXTRN	z900_multiply_bfp_short_to_long:PROC
EXTRN	z900_multiply_bfp_short_to_long_reg:PROC
EXTRN	s370_ecpsvm_disp2:PROC
EXTRN	s370_ecpsvm_store_level:PROC
EXTRN	z900_multiply_subtract_bfp_long:PROC
EXTRN	z900_multiply_subtract_bfp_long_reg:PROC
EXTRN	s370_ecpsvm_loc_chgshrpg:PROC
EXTRN	s370_ecpsvm_extended_freex:PROC
EXTRN	z900_multiply_subtract_bfp_short:PROC
EXTRN	z900_multiply_subtract_bfp_short_reg:PROC
EXTRN	s370_ecpsvm_extended_fretx:PROC
EXTRN	z900_set_bfp_rounding_mode_2bit:PROC
EXTRN	s370_ecpsvm_prefmach_assist:PROC
EXTRN	s370_inter_user_communication_vehicle:PROC
EXTRN	z900_set_fpc:PROC
EXTRN	s370_insert_storage_key_extended:PROC
EXTRN	z900_squareroot_bfp_ext_reg:PROC
EXTRN	s370_reset_reference_bit_extended:PROC
EXTRN	z900_squareroot_bfp_long:PROC
EXTRN	s370_set_storage_key_extended:PROC
EXTRN	z900_squareroot_bfp_long_reg:PROC
EXTRN	s370_convert_utf16_to_utf8:PROC
EXTRN	z900_squareroot_bfp_short:PROC
EXTRN	s370_convert_utf8_to_utf16:PROC
EXTRN	z900_squareroot_bfp_short_reg:PROC
EXTRN	s370_translate_extended:PROC
EXTRN	z900_store_fpc:PROC
EXTRN	s390_add_logical_carry:PROC
EXTRN	s370_add_float_ext_reg:PROC
EXTRN	z900_subtract_bfp_ext_reg:PROC
EXTRN	s390_add_logical_carry_register:PROC
EXTRN	s370_add_float_long:PROC
EXTRN	s390_branch_relative_and_save_long:PROC
EXTRN	z900_subtract_bfp_long:PROC
EXTRN	s370_add_float_long_reg:PROC
EXTRN	z900_subtract_bfp_long_reg:PROC
EXTRN	s390_branch_relative_on_condition_long:PROC
EXTRN	s370_add_float_short:PROC
EXTRN	s390_divide_logical:PROC
EXTRN	z900_subtract_bfp_short:PROC
EXTRN	s370_add_float_short_reg:PROC
EXTRN	z900_subtract_bfp_short_reg:PROC
EXTRN	s390_divide_logical_register:PROC
EXTRN	s370_add_unnormal_float_long:PROC
EXTRN	s390_extract_psw:PROC
EXTRN	z900_test_data_class_bfp_ext:PROC
EXTRN	s370_add_unnormal_float_long_reg:PROC
EXTRN	s390_load_address_relative_long:PROC
EXTRN	z900_test_data_class_bfp_long:PROC
EXTRN	s370_add_unnormal_float_short:PROC
EXTRN	s390_load_reversed:PROC
EXTRN	z900_test_data_class_bfp_short:PROC
EXTRN	z900_branch_and_set_authority:PROC
EXTRN	s370_add_unnormal_float_short_reg:PROC
EXTRN	s390_load_reversed_half:PROC
EXTRN	z900_compare_and_swap_and_purge:PROC
EXTRN	s370_compare_float_long:PROC
EXTRN	s390_load_reversed_register:PROC
EXTRN	z900_cancel_subchannel:PROC
EXTRN	s370_compare_float_long_reg:PROC
EXTRN	s390_multiply_logical:PROC
EXTRN	z900_clear_subchannel:PROC
EXTRN	s370_compare_float_short:PROC
EXTRN	s390_multiply_logical_register:PROC
EXTRN	z900_halt_subchannel:PROC
EXTRN	s370_compare_float_short_reg:PROC
EXTRN	s390_rotate_left_single_logical:PROC
EXTRN	s370_divide_float_ext_reg:PROC
EXTRN	z900_modify_subchannel:PROC
EXTRN	s390_set_addressing_mode_24:PROC
EXTRN	z900_resume_subchannel:PROC
EXTRN	s370_divide_float_long:PROC
EXTRN	s390_set_addressing_mode_31:PROC
EXTRN	s390_store_facility_list:PROC
EXTRN	z900_set_address_limit:PROC
EXTRN	s370_divide_float_long_reg:PROC
EXTRN	z900_set_channel_monitor:PROC
EXTRN	s370_divide_float_short:PROC
EXTRN	s390_store_reversed:PROC
EXTRN	z900_reset_channel_path:PROC
EXTRN	s370_divide_float_short_reg:PROC
EXTRN	s390_store_reversed_half:PROC
EXTRN	z900_start_subchannel:PROC
EXTRN	s370_halve_float_long_reg:PROC
EXTRN	s390_subtract_logical_borrow:PROC
EXTRN	z900_store_channel_path_status:PROC
EXTRN	s370_halve_float_short_reg:PROC
EXTRN	s390_subtract_logical_borrow_register:PROC
EXTRN	z900_store_channel_report_word:PROC
EXTRN	s370_load_and_test_float_long_reg:PROC
EXTRN	s390_test_addressing_mode:PROC
EXTRN	s390_store_facility_list_extended:PROC
EXTRN	z900_store_subchannel:PROC
EXTRN	s370_load_and_test_float_short_reg:PROC
EXTRN	z900_test_pending_interruption:PROC
EXTRN	s370_load_complement_float_long_reg:PROC
EXTRN	s390_pack_ascii:PROC
EXTRN	z900_test_subchannel:PROC
EXTRN	s370_load_complement_float_short_reg:PROC
EXTRN	s390_pack_unicode:PROC
EXTRN	z900_checksum:PROC
EXTRN	s370_load_float_long:PROC
EXTRN	s390_unpack_ascii:PROC
EXTRN	z900_channel_subsystem_call:PROC
EXTRN	s370_load_float_long_reg:PROC
EXTRN	s390_unpack_unicode:PROC
EXTRN	z900_cmpsc_2012:PROC
EXTRN	s370_load_float_short:PROC
EXTRN	s390_test_decimal:PROC
EXTRN	s370_load_float_short_reg:PROC
EXTRN	z900_compare_logical_long_extended:PROC
EXTRN	s390_translate_two_to_two:PROC
EXTRN	s370_load_negative_float_long_reg:PROC
EXTRN	z900_move_long_extended:PROC
EXTRN	s390_translate_two_to_one:PROC
EXTRN	s370_load_negative_float_short_reg:PROC
EXTRN	s390_translate_one_to_two:PROC
EXTRN	z900_load_page_table_entry_address:PROC
EXTRN	z900_extract_primary_asn:PROC
EXTRN	s370_load_positive_float_long_reg:PROC
EXTRN	s390_translate_one_to_one:PROC
EXTRN	z900_extract_secondary_asn:PROC
EXTRN	s370_load_positive_float_short_reg:PROC
EXTRN	s390_move_long_unicode:PROC
EXTRN	z900_insert_address_space_control:PROC
EXTRN	s370_load_rounded_float_long_reg:PROC
EXTRN	s390_compare_logical_long_unicode:PROC
EXTRN	z900_insert_virtual_storage_key:PROC
EXTRN	s370_load_rounded_float_short_reg:PROC
EXTRN	s370_multiply_float_ext_reg:PROC
EXTRN	z900_load_address_space_parameters:PROC
EXTRN	s370_multiply_float_long:PROC
EXTRN	z900_move_to_primary:PROC
EXTRN	s370_multiply_float_long_reg:PROC
EXTRN	z900_move_to_secondary:PROC
EXTRN	s370_multiply_float_long_to_ext:PROC
EXTRN	z900_move_with_key:PROC
EXTRN	z900_program_call:PROC
EXTRN	s370_multiply_float_long_to_ext_reg:PROC
EXTRN	s390_multiply_add_float_short_reg:PROC
EXTRN	z900_program_transfer:PROC
EXTRN	s370_multiply_float_short_to_long:PROC
EXTRN	s390_multiply_add_float_long_reg:PROC
EXTRN	z900_set_address_space_control:PROC
EXTRN	s370_multiply_float_short_to_long_reg:PROC
EXTRN	s390_multiply_add_float_short:PROC
EXTRN	z900_set_secondary_asn:PROC
EXTRN	s370_store_float_long:PROC
EXTRN	s390_multiply_add_float_long:PROC
EXTRN	z900_inter_user_communication_vehicle:PROC
EXTRN	s370_store_float_short:PROC
EXTRN	s390_multiply_subtract_float_short_reg:PROC
EXTRN	z900_page_in:PROC
EXTRN	s370_subtract_float_ext_reg:PROC
EXTRN	s390_multiply_subtract_float_long_reg:PROC
EXTRN	z900_page_out:PROC
EXTRN	s370_subtract_float_long:PROC
EXTRN	s390_multiply_subtract_float_short:PROC
EXTRN	z900_insert_storage_key_extended:PROC
EXTRN	s370_subtract_float_long_reg:PROC
EXTRN	s390_multiply_subtract_float_long:PROC
EXTRN	s390_purge_accesslist_lookaside_buffer:PROC
EXTRN	z900_reset_reference_bit_extended:PROC
EXTRN	s370_subtract_float_short:PROC
EXTRN	s390_test_access:PROC
EXTRN	z900_set_storage_key_extended:PROC
EXTRN	s370_subtract_float_short_reg:PROC
EXTRN	s390_copy_access:PROC
EXTRN	s370_subtract_unnormal_float_long:PROC
EXTRN	z900_set_clock_programmable_field:PROC
EXTRN	s390_extract_access_register:PROC
EXTRN	z900_store_clock_extended:PROC
EXTRN	s370_subtract_unnormal_float_long_reg:PROC
EXTRN	z900_convert_utf16_to_utf8:PROC
EXTRN	s370_subtract_unnormal_float_short:PROC
EXTRN	s390_load_access_multiple:PROC
EXTRN	s390_set_access_register:PROC
EXTRN	z900_convert_utf8_to_utf16:PROC
EXTRN	s370_subtract_unnormal_float_short_reg:PROC
EXTRN	z900_translate_extended:PROC
EXTRN	s390_store_access_multiple:PROC
EXTRN	s370_load_lengthened_float_short_to_long_reg:PROC
EXTRN	s390_branch_and_save_and_set_mode:PROC
EXTRN	s370_load_lengthened_float_long_to_ext_reg:PROC
EXTRN	z900_convert_bfp_long_to_float_long_reg:PROC
EXTRN	s390_branch_and_set_mode:PROC
EXTRN	s370_load_lengthened_float_short_to_ext_reg:PROC
EXTRN	z900_convert_bfp_short_to_float_long_reg:PROC
EXTRN	s370_squareroot_float_ext_reg:PROC
EXTRN	s390_add_bfp_ext_reg:PROC
EXTRN	z900_convert_float_long_to_bfp_long_reg:PROC
EXTRN	s370_multiply_float_short_reg:PROC
EXTRN	z900_convert_float_long_to_bfp_short_reg:PROC
EXTRN	s390_add_bfp_long:PROC
EXTRN	s390_add_bfp_long_reg:PROC
EXTRN	s370_load_positive_float_ext_reg:PROC
EXTRN	z900_load_float_ext_reg:PROC
EXTRN	s370_load_negative_float_ext_reg:PROC
EXTRN	z900_load_zero_float_short_reg:PROC
EXTRN	s390_add_bfp_short:PROC
EXTRN	s390_add_bfp_short_reg:PROC
EXTRN	s370_load_and_test_float_ext_reg:PROC
EXTRN	z900_load_zero_float_long_reg:PROC
EXTRN	s390_compare_and_signal_bfp_ext_reg:PROC
EXTRN	s370_load_complement_float_ext_reg:PROC
EXTRN	z900_load_zero_float_ext_reg:PROC
EXTRN	z900_add_float_ext_reg:PROC
EXTRN	s370_load_rounded_float_ext_to_short_reg:PROC
EXTRN	s390_compare_and_signal_bfp_long:PROC
EXTRN	z900_add_float_long:PROC
EXTRN	s390_compare_and_signal_bfp_long_reg:PROC
EXTRN	s370_load_fp_int_float_ext_reg:PROC
EXTRN	z900_add_float_long_reg:PROC
EXTRN	s370_compare_float_ext_reg:PROC
EXTRN	s390_compare_and_signal_bfp_short:PROC
EXTRN	z900_add_float_short:PROC
EXTRN	s390_compare_and_signal_bfp_short_reg:PROC
EXTRN	s370_load_fp_int_float_short_reg:PROC
EXTRN	z900_add_float_short_reg:PROC
EXTRN	s390_compare_bfp_ext_reg:PROC
EXTRN	s370_load_fp_int_float_long_reg:PROC
EXTRN	z900_add_unnormal_float_long:PROC
EXTRN	s370_convert_fixed_to_float_short_reg:PROC
EXTRN	s390_compare_bfp_long:PROC
EXTRN	z900_add_unnormal_float_long_reg:PROC
EXTRN	s390_compare_bfp_long_reg:PROC
EXTRN	s370_convert_fixed_to_float_long_reg:PROC
EXTRN	z900_add_unnormal_float_short:PROC
EXTRN	s370_convert_fixed_to_float_ext_reg:PROC
EXTRN	s390_compare_bfp_short:PROC
EXTRN	z900_add_unnormal_float_short_reg:PROC
EXTRN	s390_compare_bfp_short_reg:PROC
EXTRN	s370_convert_float_short_to_fixed_reg:PROC
EXTRN	z900_compare_float_long:PROC
EXTRN	s390_convert_bfp_ext_to_fix32_reg:PROC
EXTRN	s370_convert_float_long_to_fixed_reg:PROC
EXTRN	z900_compare_float_long_reg:PROC
EXTRN	s370_convert_float_ext_to_fixed_reg:PROC
EXTRN	z900_compare_float_short:PROC
EXTRN	s390_convert_bfp_long_to_fix32_reg:PROC
EXTRN	s370_load_lengthened_float_short_to_long:PROC
EXTRN	z900_compare_float_short_reg:PROC
EXTRN	s370_load_lengthened_float_long_to_ext:PROC
EXTRN	z900_divide_float_ext_reg:PROC
EXTRN	s390_convert_bfp_short_to_fix32_reg:PROC
EXTRN	s370_load_lengthened_float_short_to_ext:PROC
EXTRN	z900_divide_float_long:PROC
EXTRN	s370_squareroot_float_short:PROC
EXTRN	z900_divide_float_long_reg:PROC
EXTRN	s390_convert_fix32_to_bfp_ext_reg:PROC
EXTRN	s370_squareroot_float_long:PROC
EXTRN	z900_divide_float_short:PROC
EXTRN	s390_convert_fix32_to_bfp_long_reg:PROC
EXTRN	s370_multiply_float_short:PROC
EXTRN	z900_divide_float_short_reg:PROC
EXTRN	s370_add_halfword_immediate:PROC
EXTRN	s390_convert_fix32_to_bfp_short_reg:PROC
EXTRN	z900_halve_float_long_reg:PROC
EXTRN	s370_branch_relative_and_save:PROC
EXTRN	z900_halve_float_short_reg:PROC
EXTRN	s370_branch_relative_on_condition:PROC
EXTRN	z900_load_and_test_float_long_reg:PROC
EXTRN	s370_branch_relative_on_count:PROC
CONST	SEGMENT
CKD_ENDTRK DB	0ffH
	DB	0ffH
	DB	0ffH
	DB	0ffH
	DB	0ffH
	DB	0ffH
	DB	0ffH
	DB	0ffH
CONST	ENDS
_DATA	SEGMENT
$SG212992 DB	'SLR', 00H, '1F48', 00H
	ORG $+7
$SG212993 DB	'SLR', 00H, '1F49', 00H
	ORG $+7
$SG212994 DB	'SLR', 00H, '1F4A', 00H
	ORG $+7
$SG212995 DB	'SLR', 00H, '1F4B', 00H
	ORG $+7
$SG212996 DB	'SLR', 00H, '1F4C', 00H
	ORG $+7
$SG212997 DB	'SLR', 00H, '1F4D', 00H
	ORG $+7
$SG212998 DB	'SLR', 00H, '1F4E', 00H
	ORG $+7
$SG212999 DB	'SLR', 00H, '1F4F', 00H
	ORG $+7
$SG213000 DB	'SLR', 00H, '1F50', 00H
	ORG $+7
$SG213001 DB	'SLR', 00H, '1F51', 00H
	ORG $+7
$SG213002 DB	'SLR', 00H, '1F52', 00H
	ORG $+7
$SG213003 DB	'SLR', 00H, '1F53', 00H
	ORG $+7
$SG213004 DB	'SLR', 00H, '1F54', 00H
	ORG $+7
$SG213005 DB	'SLR', 00H, '1F55', 00H
	ORG $+7
$SG213006 DB	'SLR', 00H, '1F56', 00H
	ORG $+7
$SG213007 DB	'SLR', 00H, '1F57', 00H
	ORG $+7
$SG213008 DB	'SLR', 00H, '1F58', 00H
	ORG $+7
$SG213009 DB	'SLR', 00H, '1F59', 00H
	ORG $+7
$SG213010 DB	'SLR', 00H, '1F5A', 00H
	ORG $+7
$SG213011 DB	'SLR', 00H, '1F5B', 00H
	ORG $+7
$SG213012 DB	'SLR', 00H, '1F5C', 00H
	ORG $+7
$SG213013 DB	'SLR', 00H, '1F5D', 00H
	ORG $+7
$SG213014 DB	'SLR', 00H, '1F5E', 00H
	ORG $+7
$SG213015 DB	'SLR', 00H, '1F5F', 00H
	ORG $+7
$SG213016 DB	'SLR', 00H, '1F60', 00H
	ORG $+7
$SG213017 DB	'SLR', 00H, '1F61', 00H
	ORG $+7
$SG213018 DB	'SLR', 00H, '1F62', 00H
	ORG $+7
$SG213019 DB	'SLR', 00H, '1F63', 00H
	ORG $+7
$SG213020 DB	'SLR', 00H, '1F64', 00H
	ORG $+7
$SG213021 DB	'SLR', 00H, '1F65', 00H
	ORG $+7
$SG213022 DB	'SLR', 00H, '1F66', 00H
	ORG $+7
$SG213023 DB	'SLR', 00H, '1F67', 00H
	ORG $+7
$SG213024 DB	'SLR', 00H, '1F68', 00H
	ORG $+7
$SG213025 DB	'SLR', 00H, '1F69', 00H
	ORG $+7
$SG213026 DB	'SLR', 00H, '1F6A', 00H
	ORG $+7
$SG213027 DB	'SLR', 00H, '1F6B', 00H
	ORG $+7
$SG213028 DB	'SLR', 00H, '1F6C', 00H
	ORG $+7
$SG213029 DB	'SLR', 00H, '1F6D', 00H
	ORG $+7
$SG213030 DB	'SLR', 00H, '1F6E', 00H
	ORG $+7
$SG213031 DB	'SLR', 00H, '1F6F', 00H
	ORG $+7
$SG213032 DB	'SLR', 00H, '1F70', 00H
	ORG $+7
$SG213033 DB	'SLR', 00H, '1F71', 00H
	ORG $+7
$SG213034 DB	'SLR', 00H, '1F72', 00H
	ORG $+7
$SG213035 DB	'SLR', 00H, '1F73', 00H
	ORG $+7
$SG213036 DB	'SLR', 00H, '1F74', 00H
	ORG $+7
$SG213037 DB	'SLR', 00H, '1F75', 00H
	ORG $+7
$SG213038 DB	'SLR', 00H, '1F76', 00H
	ORG $+7
$SG213039 DB	'SLR', 00H, '1F77', 00H
	ORG $+7
$SG213040 DB	'SLR', 00H, '1F78', 00H
	ORG $+7
$SG213041 DB	'SLR', 00H, '1F79', 00H
	ORG $+7
$SG213042 DB	'SLR', 00H, '1F7A', 00H
	ORG $+7
$SG213043 DB	'SLR', 00H, '1F7B', 00H
	ORG $+7
$SG213044 DB	'SLR', 00H, '1F7C', 00H
	ORG $+7
$SG213045 DB	'SLR', 00H, '1F7D', 00H
	ORG $+7
$SG213046 DB	'SLR', 00H, '1F7E', 00H
	ORG $+7
$SG213047 DB	'SLR', 00H, '1F7F', 00H
	ORG $+7
$SG213048 DB	'SLR', 00H, '1F80', 00H
	ORG $+7
$SG213049 DB	'SLR', 00H, '1F81', 00H
	ORG $+7
$SG213050 DB	'SLR', 00H, '1F82', 00H
	ORG $+7
$SG213051 DB	'SLR', 00H, '1F83', 00H
	ORG $+7
$SG213052 DB	'SLR', 00H, '1F84', 00H
	ORG $+7
$SG213053 DB	'SLR', 00H, '1F85', 00H
	ORG $+7
$SG213054 DB	'SLR', 00H, '1F86', 00H
	ORG $+7
$SG213055 DB	'SLR', 00H, '1F87', 00H
	ORG $+7
$SG213056 DB	'SLR', 00H, '1F88', 00H
	ORG $+7
$SG213057 DB	'SLR', 00H, '1F89', 00H
	ORG $+7
$SG213058 DB	'SLR', 00H, '1F8A', 00H
	ORG $+7
$SG213059 DB	'SLR', 00H, '1F8B', 00H
	ORG $+7
$SG213060 DB	'SLR', 00H, '1F8C', 00H
	ORG $+7
$SG213061 DB	'SLR', 00H, '1F8D', 00H
	ORG $+7
$SG213062 DB	'SLR', 00H, '1F8E', 00H
	ORG $+7
$SG213063 DB	'SLR', 00H, '1F8F', 00H
	ORG $+7
$SG213064 DB	'SLR', 00H, '1F90', 00H
	ORG $+7
$SG213065 DB	'SLR', 00H, '1F91', 00H
	ORG $+7
$SG213066 DB	'SLR', 00H, '1F92', 00H
	ORG $+7
$SG213067 DB	'SLR', 00H, '1F93', 00H
	ORG $+7
$SG213068 DB	'SLR', 00H, '1F94', 00H
	ORG $+7
$SG213069 DB	'SLR', 00H, '1F95', 00H
	ORG $+7
$SG213070 DB	'SLR', 00H, '1F96', 00H
	ORG $+7
$SG213071 DB	'SLR', 00H, '1F97', 00H
	ORG $+7
$SG213072 DB	'SLR', 00H, '1F98', 00H
	ORG $+7
$SG213073 DB	'SLR', 00H, '1F99', 00H
	ORG $+7
$SG213074 DB	'SLR', 00H, '1F9A', 00H
	ORG $+7
$SG213075 DB	'SLR', 00H, '1F9B', 00H
	ORG $+7
$SG213076 DB	'SLR', 00H, '1F9C', 00H
	ORG $+7
$SG213077 DB	'SLR', 00H, '1F9D', 00H
	ORG $+7
$SG213078 DB	'SLR', 00H, '1F9E', 00H
	ORG $+7
$SG213079 DB	'SLR', 00H, '1F9F', 00H
	ORG $+7
$SG213080 DB	'SLR', 00H, '1FA0', 00H
	ORG $+7
$SG213081 DB	'SLR', 00H, '1FA1', 00H
	ORG $+7
$SG213082 DB	'SLR', 00H, '1FA2', 00H
	ORG $+7
$SG213083 DB	'SLR', 00H, '1FA3', 00H
	ORG $+7
$SG213084 DB	'SLR', 00H, '1FA4', 00H
	ORG $+7
$SG213085 DB	'SLR', 00H, '1FA5', 00H
	ORG $+7
$SG213086 DB	'SLR', 00H, '1FA6', 00H
	ORG $+7
$SG213087 DB	'SLR', 00H, '1FA7', 00H
	ORG $+7
$SG213088 DB	'SLR', 00H, '1FA8', 00H
	ORG $+7
$SG213089 DB	'SLR', 00H, '1FA9', 00H
	ORG $+7
$SG213090 DB	'SLR', 00H, '1FAA', 00H
	ORG $+7
$SG213091 DB	'SLR', 00H, '1FAB', 00H
	ORG $+7
$SG213092 DB	'SLR', 00H, '1FAC', 00H
	ORG $+7
$SG213093 DB	'SLR', 00H, '1FAD', 00H
	ORG $+7
$SG213094 DB	'SLR', 00H, '1FAE', 00H
	ORG $+7
$SG213095 DB	'SLR', 00H, '1FAF', 00H
	ORG $+7
$SG213096 DB	'SLR', 00H, '1FB0', 00H
	ORG $+7
$SG213097 DB	'SLR', 00H, '1FB1', 00H
	ORG $+7
$SG213098 DB	'SLR', 00H, '1FB2', 00H
	ORG $+7
$SG213099 DB	'SLR', 00H, '1FB3', 00H
	ORG $+7
$SG213100 DB	'SLR', 00H, '1FB4', 00H
	ORG $+7
$SG213101 DB	'SLR', 00H, '1FB5', 00H
	ORG $+7
$SG213102 DB	'SLR', 00H, '1FB6', 00H
	ORG $+7
$SG213103 DB	'SLR', 00H, '1FB7', 00H
	ORG $+7
$SG213104 DB	'SLR', 00H, '1FB8', 00H
	ORG $+7
$SG213105 DB	'SLR', 00H, '1FB9', 00H
	ORG $+7
$SG213106 DB	'SLR', 00H, '1FBA', 00H
	ORG $+7
$SG213107 DB	'SLR', 00H, '1FBB', 00H
	ORG $+7
$SG213108 DB	'SLR', 00H, '1FBC', 00H
	ORG $+7
$SG213109 DB	'SLR', 00H, '1FBD', 00H
	ORG $+7
$SG213110 DB	'SLR', 00H, '1FBE', 00H
	ORG $+7
$SG213111 DB	'SLR', 00H, '1FBF', 00H
	ORG $+7
$SG213112 DB	'SLR', 00H, '1FC0', 00H
	ORG $+7
$SG213113 DB	'SLR', 00H, '1FC1', 00H
	ORG $+7
$SG213114 DB	'SLR', 00H, '1FC2', 00H
	ORG $+7
$SG213115 DB	'SLR', 00H, '1FC3', 00H
	ORG $+7
$SG213116 DB	'SLR', 00H, '1FC4', 00H
	ORG $+7
$SG213117 DB	'SLR', 00H, '1FC5', 00H
	ORG $+7
$SG213118 DB	'SLR', 00H, '1FC6', 00H
	ORG $+7
$SG213119 DB	'SLR', 00H, '1FC7', 00H
	ORG $+7
$SG213120 DB	'SLR', 00H, '1FC8', 00H
	ORG $+7
$SG213121 DB	'SLR', 00H, '1FC9', 00H
	ORG $+7
$SG213122 DB	'SLR', 00H, '1FCA', 00H
	ORG $+7
$SG213123 DB	'SLR', 00H, '1FCB', 00H
	ORG $+7
$SG213124 DB	'SLR', 00H, '1FCC', 00H
	ORG $+7
$SG213125 DB	'SLR', 00H, '1FCD', 00H
	ORG $+7
$SG213126 DB	'SLR', 00H, '1FCE', 00H
	ORG $+7
$SG213127 DB	'SLR', 00H, '1FCF', 00H
	ORG $+7
$SG213128 DB	'SLR', 00H, '1FD0', 00H
	ORG $+7
$SG213129 DB	'SLR', 00H, '1FD1', 00H
	ORG $+7
$SG213130 DB	'SLR', 00H, '1FD2', 00H
	ORG $+7
$SG213131 DB	'SLR', 00H, '1FD3', 00H
	ORG $+7
$SG213132 DB	'SLR', 00H, '1FD4', 00H
	ORG $+7
$SG213133 DB	'SLR', 00H, '1FD5', 00H
	ORG $+7
$SG213134 DB	'SLR', 00H, '1FD6', 00H
	ORG $+7
$SG213135 DB	'SLR', 00H, '1FD7', 00H
	ORG $+7
$SG213136 DB	'SLR', 00H, '1FD8', 00H
	ORG $+7
$SG213137 DB	'SLR', 00H, '1FD9', 00H
	ORG $+7
$SG213138 DB	'SLR', 00H, '1FDA', 00H
	ORG $+7
$SG213139 DB	'SLR', 00H, '1FDB', 00H
	ORG $+7
$SG213140 DB	'SLR', 00H, '1FDC', 00H
	ORG $+7
$SG213141 DB	'SLR', 00H, '1FDD', 00H
	ORG $+7
$SG213142 DB	'SLR', 00H, '1FDE', 00H
	ORG $+7
$SG213143 DB	'SLR', 00H, '1FDF', 00H
	ORG $+7
$SG213144 DB	'SLR', 00H, '1FE0', 00H
	ORG $+7
$SG213145 DB	'SLR', 00H, '1FE1', 00H
	ORG $+7
$SG213146 DB	'SLR', 00H, '1FE2', 00H
	ORG $+7
$SG213147 DB	'SLR', 00H, '1FE3', 00H
	ORG $+7
$SG213148 DB	'SLR', 00H, '1FE4', 00H
	ORG $+7
$SG213149 DB	'SLR', 00H, '1FE5', 00H
	ORG $+7
$SG213150 DB	'SLR', 00H, '1FE6', 00H
	ORG $+7
$SG213151 DB	'SLR', 00H, '1FE7', 00H
	ORG $+7
$SG213152 DB	'SLR', 00H, '1FE8', 00H
	ORG $+7
$SG213153 DB	'SLR', 00H, '1FE9', 00H
	ORG $+7
$SG213154 DB	'SLR', 00H, '1FEA', 00H
	ORG $+7
$SG213155 DB	'SLR', 00H, '1FEB', 00H
	ORG $+7
$SG213156 DB	'SLR', 00H, '1FEC', 00H
	ORG $+7
$SG213157 DB	'SLR', 00H, '1FED', 00H
	ORG $+7
$SG213158 DB	'SLR', 00H, '1FEE', 00H
	ORG $+7
$SG213159 DB	'SLR', 00H, '1FEF', 00H
	ORG $+7
$SG213160 DB	'SLR', 00H, '1FF0', 00H
	ORG $+7
$SG213161 DB	'SLR', 00H, '1FF1', 00H
	ORG $+7
$SG213162 DB	'SLR', 00H, '1FF2', 00H
	ORG $+7
$SG213163 DB	'SLR', 00H, '1FF3', 00H
	ORG $+7
$SG213164 DB	'SLR', 00H, '1FF4', 00H
	ORG $+7
$SG213165 DB	'SLR', 00H, '1FF5', 00H
	ORG $+7
$SG213166 DB	'SLR', 00H, '1FF6', 00H
	ORG $+7
$SG213167 DB	'SLR', 00H, '1FF7', 00H
	ORG $+7
$SG213168 DB	'SLR', 00H, '1FF8', 00H
	ORG $+7
$SG213169 DB	'SLR', 00H, '1FF9', 00H
	ORG $+7
$SG213170 DB	'SLR', 00H, '1FFA', 00H
	ORG $+7
$SG213171 DB	'SLR', 00H, '1FFB', 00H
	ORG $+7
$SG213172 DB	'SLR', 00H, '1FFC', 00H
	ORG $+7
$SG213173 DB	'SLR', 00H, '1FFD', 00H
	ORG $+7
$SG213174 DB	'SLR', 00H, '1FFE', 00H
	ORG $+7
$SG213175 DB	'SLR', 00H, '1FFF', 00H
	ORG $+7
$SG213208 DB	'LA', 00H, '4100', 00H
$SG213209 DB	'LA', 00H, '4110', 00H
$SG213210 DB	'LA', 00H, '4120', 00H
$SG213211 DB	'LA', 00H, '4130', 00H
$SG213212 DB	'LA', 00H, '4140', 00H
$SG213213 DB	'LA', 00H, '4150', 00H
$SG213214 DB	'LA', 00H, '4160', 00H
$SG213215 DB	'LA', 00H, '4170', 00H
$SG213216 DB	'LA', 00H, '4180', 00H
$SG213217 DB	'LA', 00H, '4190', 00H
$SG213218 DB	'LA', 00H, '41A0', 00H
$SG213219 DB	'LA', 00H, '41B0', 00H
$SG213220 DB	'LA', 00H, '41C0', 00H
$SG213221 DB	'LA', 00H, '41D0', 00H
$SG213222 DB	'LA', 00H, '41E0', 00H
$SG213223 DB	'LA', 00H, '41F0', 00H
$SG213256 DB	'BC', 00H, 'nop4', 00H
$SG213257 DB	'BC', 00H, '4710', 00H
$SG213258 DB	'BC', 00H, '4720', 00H
$SG213259 DB	'BC', 00H, '4730', 00H
$SG213260 DB	'BC', 00H, '4740', 00H
$SG213261 DB	'BC', 00H, '4750', 00H
$SG213262 DB	'BC', 00H, '47_0', 00H
$SG213263 DB	'BC', 00H, '4770', 00H
$SG213264 DB	'BC', 00H, '4780', 00H
$SG213265 DB	'BC', 00H, '47_0', 00H
$SG213266 DB	'BC', 00H, '47A0', 00H
$SG213267 DB	'BC', 00H, '47B0', 00H
$SG213268 DB	'BC', 00H, '47C0', 00H
$SG213269 DB	'BC', 00H, '47D0', 00H
$SG213270 DB	'BC', 00H, '47E0', 00H
$SG213271 DB	'BC', 00H, '47F0', 00H
$SG213304 DB	'ST', 00H, '5000', 00H
$SG213305 DB	'ST', 00H, '5010', 00H
$SG213306 DB	'ST', 00H, '5020', 00H
$SG213307 DB	'ST', 00H, '5030', 00H
$SG213308 DB	'ST', 00H, '5040', 00H
$SG213309 DB	'ST', 00H, '5050', 00H
$SG213310 DB	'ST', 00H, '5060', 00H
$SG213311 DB	'ST', 00H, '5070', 00H
$SG213312 DB	'ST', 00H, '5080', 00H
$SG213313 DB	'ST', 00H, '5090', 00H
$SG213314 DB	'ST', 00H, '50A0', 00H
$SG213315 DB	'ST', 00H, '50B0', 00H
$SG213316 DB	'ST', 00H, '50C0', 00H
$SG213317 DB	'ST', 00H, '50D0', 00H
$SG213318 DB	'ST', 00H, '50E0', 00H
$SG213319 DB	'ST', 00H, '50F0', 00H
$SG213352 DB	'CL', 00H, '5500', 00H
$SG213353 DB	'CL', 00H, '5510', 00H
$SG213354 DB	'CL', 00H, '5520', 00H
$SG213355 DB	'CL', 00H, '5530', 00H
$SG213356 DB	'CL', 00H, '5540', 00H
$SG213357 DB	'CL', 00H, '5550', 00H
$SG213358 DB	'CL', 00H, '5560', 00H
$SG213359 DB	'CL', 00H, '5570', 00H
$SG213360 DB	'CL', 00H, '5580', 00H
$SG213361 DB	'CL', 00H, '5590', 00H
$SG213362 DB	'CL', 00H, '55A0', 00H
$SG213363 DB	'CL', 00H, '55B0', 00H
$SG213364 DB	'CL', 00H, '55C0', 00H
$SG213365 DB	'CL', 00H, '55D0', 00H
$SG213366 DB	'CL', 00H, '55E0', 00H
$SG213367 DB	'CL', 00H, '55F0', 00H
$SG197005 DB	'LBEAR', 00H, 'load_bear', 00H
$SG197006 DB	'STBEAR', 00H, 'store_bear', 00H
	ORG $+6
$SG197007 DB	'STIDP', 00H, 'store_cpu_id', 00H
	ORG $+5
$SG197008 DB	'STIDC', 00H, 'store_channel_id', 00H
	ORG $+1
$SG197009 DB	'SCK', 00H, 'set_clock', 00H
	ORG $+2
$SG197010 DB	'STCK', 00H, 'store_clock', 00H
	ORG $+7
$SG197011 DB	'SCKC', 00H, 'set_clock_comparator', 00H
	ORG $+6
$SG197012 DB	'STCKC', 00H, 'store_clock_comparator', 00H
	ORG $+3
$SG197013 DB	'SPT', 00H, 'set_cpu_timer', 00H
	ORG $+6
$SG197014 DB	'STPT', 00H, 'store_cpu_timer', 00H
	ORG $+3
$SG197015 DB	'SPKA', 00H, 'set_psw_key_from_address', 00H
	ORG $+2
$SG213400 DB	'L', 00H, '5800', 00H
	ORG $+1
$SG197016 DB	'IPK', 00H, 'insert_psw_key', 00H
	ORG $+1
$SG213401 DB	'L', 00H, '5810', 00H
	ORG $+5
$SG197017 DB	'?????', 00H, '?', 00H
$SG213402 DB	'L', 00H, '5820', 00H
	ORG $+1
$SG197018 DB	'PTLB', 00H, 'purge_translation_lookaside_buffer', 00H
$SG213403 DB	'L', 00H, '5830', 00H
	ORG $+1
$SG197019 DB	'?????', 00H, '?', 00H
$SG213404 DB	'L', 00H, '5840', 00H
	ORG $+1
$SG197020 DB	'?????', 00H, '?', 00H
$SG213405 DB	'L', 00H, '5850', 00H
	ORG $+1
$SG197021 DB	'SPX', 00H, 'set_prefix', 00H
	ORG $+1
$SG213406 DB	'L', 00H, '5860', 00H
	ORG $+1
$SG197022 DB	'STPX', 00H, 'store_prefix', 00H
	ORG $+2
$SG213407 DB	'L', 00H, '5870', 00H
	ORG $+5
$SG197023 DB	'STAP', 00H, 'store_cpu_address', 00H
	ORG $+1
$SG213408 DB	'L', 00H, '5880', 00H
	ORG $+1
$SG197024 DB	'RRB', 00H, 'reset_reference_bit', 00H
$SG213409 DB	'L', 00H, '5890', 00H
	ORG $+1
$SG197025 DB	'SIE', 00H, 'start_interpretive_execution', 00H
	ORG $+3
$SG213410 DB	'L', 00H, '58A0', 00H
	ORG $+5
$SG197026 DB	'?????', 00H, '?', 00H
$SG213411 DB	'L', 00H, '58B0', 00H
	ORG $+1
$SG197027 DB	'?????', 00H, '?', 00H
$SG213412 DB	'L', 00H, '58C0', 00H
	ORG $+1
$SG197028 DB	'?????', 00H, '?', 00H
$SG213413 DB	'L', 00H, '58D0', 00H
	ORG $+1
$SG197029 DB	'PC', 00H, 'program_call', 00H
$SG213414 DB	'L', 00H, '58E0', 00H
	ORG $+1
$SG197030 DB	'SAC', 00H, 'set_address_space_control', 00H
	ORG $+2
$SG213415 DB	'L', 00H, '58F0', 00H
	ORG $+1
$SG197031 DB	'CFC', 00H, 'compare_and_form_codeword', 00H
	ORG $+2
$SG197032 DB	'?????', 00H, '?', 00H
$SG197033 DB	'?????', 00H, '?', 00H
$SG197034 DB	'?????', 00H, '?', 00H
$SG197035 DB	'?????', 00H, '?', 00H
$SG197036 DB	'?????', 00H, '?', 00H
$SG197037 DB	'SERVC', 00H, 'service_call', 00H
	ORG $+5
$SG197038 DB	'IPTE', 00H, 'invalidate_page_table_entry', 00H
	ORG $+7
$SG197039 DB	'IPM', 00H, 'insert_program_mask', 00H
$SG197040 DB	'IVSK', 00H, 'insert_virtual_storage_key', 00H
$SG197041 DB	'IAC', 00H, 'insert_address_space_control', 00H
	ORG $+7
$SG197042 DB	'SSAR', 00H, 'set_secondary_asn', 00H
	ORG $+1
$SG197043 DB	'EPAR', 00H, 'extract_primary_asn', 00H
	ORG $+7
$SG197044 DB	'ESAR', 00H, 'extract_secondary_asn', 00H
	ORG $+5
$SG197045 DB	'PT', 00H, 'program_transfer', 00H
	ORG $+4
$SG197046 DB	'ISKE', 00H, 'insert_storage_key_extended', 00H
	ORG $+7
$SG197047 DB	'RRBE', 00H, 'reset_reference_bit_extended', 00H
	ORG $+6
$SG213432 DB	'TM', 00H, '9180', 00H
$SG205240 DB	'?????', 00H, '?', 00H
$SG197048 DB	'SSKE', 00H, 'set_storage_key_extended', 00H
	ORG $+2
$SG213433 DB	'TM', 00H, '9140', 00H
$SG205241 DB	'?????', 00H, '?', 00H
$SG197049 DB	'TB', 00H, 'test_block', 00H
	ORG $+2
$SG213434 DB	'TM', 00H, '9120', 00H
$SG205242 DB	'?????', 00H, '?', 00H
$SG197050 DB	'DXR', 00H, 'divide_float_ext_reg', 00H
	ORG $+7
$SG213435 DB	'TM', 00H, '9110', 00H
$SG205243 DB	'?????', 00H, '?', 00H
$SG197051 DB	'PGIN', 00H, 'page_in', 00H
	ORG $+3
$SG213436 DB	'TM', 00H, '9108', 00H
$SG205244 DB	'?????', 00H, '?', 00H
$SG197052 DB	'PGOUT', 00H, 'page_out', 00H
	ORG $+1
$SG213437 DB	'TM', 00H, '9104', 00H
$SG205245 DB	'?????', 00H, '?', 00H
$SG197053 DB	'CSCH', 00H, 'clear_subchannel', 00H
	ORG $+2
$SG213438 DB	'TM', 00H, '9102', 00H
$SG205246 DB	'VL', 00H, 'vector_load', 00H
	ORG $+1
$SG197054 DB	'HSCH', 00H, 'halt_subchannel', 00H
	ORG $+3
$SG213439 DB	'TM', 00H, '9101', 00H
$SG205247 DB	'?????', 00H, '?', 00H
$SG197055 DB	'MSCH', 00H, 'modify_subchannel', 00H
	ORG $+1
$SG205248 DB	'?????', 00H, '?', 00H
$SG197056 DB	'SSCH', 00H, 'start_subchannel', 00H
	ORG $+2
$SG205249 DB	'?????', 00H, '?', 00H
$SG197057 DB	'STSCH', 00H, 'store_subchannel', 00H
	ORG $+1
$SG205250 DB	'?????', 00H, '?', 00H
$SG197058 DB	'TSCH', 00H, 'test_subchannel', 00H
	ORG $+3
$SG205251 DB	'?????', 00H, '?', 00H
$SG197059 DB	'TPI', 00H, 'test_pending_interruption', 00H
	ORG $+2
$SG205252 DB	'?????', 00H, '?', 00H
$SG197060 DB	'SAL', 00H, 'set_address_limit', 00H
	ORG $+2
$SG205253 DB	'?????', 00H, '?', 00H
$SG197061 DB	'RSCH', 00H, 'resume_subchannel', 00H
	ORG $+1
$SG213446 DB	'ICM', 00H, 'BF_x', 00H
	ORG $+7
$SG205254 DB	'VST', 00H, 'vector_store', 00H
	ORG $+7
$SG197062 DB	'STCRW', 00H, 'store_channel_report_word', 00H
$SG213447 DB	'ICM', 00H, 'BF_7', 00H
	ORG $+7
$SG205255 DB	'?????', 00H, '?', 00H
$SG197063 DB	'STCPS', 00H, 'store_channel_path_status', 00H
$SG213448 DB	'ICM', 00H, 'BF_F', 00H
	ORG $+7
$SG205256 DB	'?????', 00H, '?', 00H
$SG197064 DB	'RCHP', 00H, 'reset_channel_path', 00H
$SG205257 DB	'?????', 00H, '?', 00H
$SG197065 DB	'SCHM', 00H, 'set_channel_monitor', 00H
	ORG $+7
$SG205258 DB	'?????', 00H, '?', 00H
$SG197066 DB	'STZP', 00H, 'store_zone_parameter', 00H
	ORG $+6
$SG205259 DB	'?????', 00H, '?', 00H
$SG197067 DB	'SZP', 00H, 'set_zone_parameter', 00H
	ORG $+1
$SG205260 DB	'?????', 00H, '?', 00H
$SG197068 DB	'TPZI', 00H, 'test_pending_zone_interrupt', 00H
	ORG $+7
$SG205261 DB	'?????', 00H, '?', 00H
$SG197069 DB	'BAKR', 00H, 'branch_and_stack', 00H
	ORG $+2
$SG205262 DB	'?????', 00H, '?', 00H
$SG197070 DB	'CKSM', 00H, 'checksum', 00H
	ORG $+2
$SG205263 DB	'?????', 00H, '?', 00H
$SG197071 DB	'Assist', 00H, 'add_frr', 00H
	ORG $+1
$SG205264 DB	'?????', 00H, '?', 00H
$SG197072 DB	'?????', 00H, '?', 00H
$SG205265 DB	'?????', 00H, '?', 00H
$SG197073 DB	'SQDR', 00H, 'squareroot_float_long_reg', 00H
	ORG $+1
$SG205266 DB	'?????', 00H, '?', 00H
$SG197074 DB	'SQER', 00H, 'squareroot_float_short_reg', 00H
$SG205267 DB	'?????', 00H, '?', 00H
$SG197075 DB	'STURA', 00H, 'store_using_real_address', 00H
	ORG $+1
$SG205268 DB	'?????', 00H, '?', 00H
$SG197076 DB	'MSTA', 00H, 'modify_stacked_state', 00H
	ORG $+6
$SG205269 DB	'?????', 00H, '?', 00H
$SG197077 DB	'PALB', 00H, 'purge_accesslist_lookaside_buffer', 00H
	ORG $+1
$SG205270 DB	'?????', 00H, '?', 00H
$SG197078 DB	'EREG', 00H, 'extract_stacked_registers', 00H
	ORG $+1
$SG205271 DB	'?????', 00H, '?', 00H
$SG197079 DB	'ESTA', 00H, 'extract_stacked_state', 00H
	ORG $+5
$SG205272 DB	'?????', 00H, '?', 00H
$SG197080 DB	'LURA', 00H, 'load_using_real_address', 00H
	ORG $+3
$SG205273 DB	'?????', 00H, '?', 00H
$SG197081 DB	'TAR', 00H, 'test_access', 00H
$SG205274 DB	'?????', 00H, '?', 00H
$SG197082 DB	'CPYA', 00H, 'copy_access', 00H
	ORG $+7
$SG205275 DB	'?????', 00H, '?', 00H
$SG197083 DB	'SAR', 00H, 'set_access_register', 00H
$SG205276 DB	'?????', 00H, '?', 00H
$SG197084 DB	'EAR', 00H, 'extract_access_register', 00H
	ORG $+4
$SG205277 DB	'?????', 00H, '?', 00H
$SG197085 DB	'CSP', 00H, 'compare_and_swap_and_purge', 00H
	ORG $+1
$SG205278 DB	'?????', 00H, '?', 00H
$SG197086 DB	'?????', 00H, '?', 00H
$SG205279 DB	'?????', 00H, '?', 00H
$SG197087 DB	'MSR', 00H, 'multiply_single_register', 00H
	ORG $+3
$SG205280 DB	'?????', 00H, '?', 00H
$SG197088 DB	'?????', 00H, '?', 00H
$SG205281 DB	'?????', 00H, '?', 00H
$SG197089 DB	'MVPG', 00H, 'move_page', 00H
	ORG $+1
$SG205282 DB	'?????', 00H, '?', 00H
$SG197090 DB	'MVST', 00H, 'move_string', 00H
	ORG $+7
$SG205283 DB	'?????', 00H, '?', 00H
$SG197091 DB	'STHYI', 00H, 'store_hypervisor_information', 00H
	ORG $+5
$SG205284 DB	'?????', 00H, '?', 00H
$SG197092 DB	'CUSE', 00H, 'compare_until_substring_equal', 00H
	ORG $+5
$SG205285 DB	'?????', 00H, '?', 00H
$SG197093 DB	'BSG', 00H, 'branch_in_subspace_group', 00H
	ORG $+3
$SG205286 DB	'?????', 00H, '?', 00H
$SG197094 DB	'IESBE', 00H, 'invalidate_expanded_storage_block_entry', 00H
	ORG $+2
$SG205287 DB	'?????', 00H, '?', 00H
$SG197095 DB	'BSA', 00H, 'branch_and_set_authority', 00H
	ORG $+3
$SG205288 DB	'?????', 00H, '?', 00H
$SG197096 DB	'?????', 00H, '?', 00H
$SG205289 DB	'?????', 00H, '?', 00H
$SG197097 DB	'?????', 00H, '?', 00H
$SG205290 DB	'?????', 00H, '?', 00H
$SG197098 DB	'CLST', 00H, 'compare_logical_string', 00H
	ORG $+4
$SG205291 DB	'?????', 00H, '?', 00H
$SG197099 DB	'SRST', 00H, 'search_string', 00H
	ORG $+5
$SG205292 DB	'?????', 00H, '?', 00H
$SG197100 DB	'CHSC', 00H, 'channel_subsystem_call', 00H
	ORG $+4
$SG205293 DB	'?????', 00H, '?', 00H
$SG197101 DB	'?????', 00H, '?', 00H
$SG205294 DB	'VLM', 00H, 'vector_load_multiple', 00H
	ORG $+7
$SG197102 DB	'?????', 00H, '?', 00H
$SG205295 DB	'?????', 00H, '?', 00H
$SG197103 DB	'LKPG', 00H, 'lock_page', 00H
	ORG $+1
$SG205296 DB	'?????', 00H, '?', 00H
$SG197104 DB	'CMPSC', 00H, 'cmpsc_2012', 00H
	ORG $+7
$SG205297 DB	'?????', 00H, '?', 00H
$SG197105 DB	'?????', 00H, '?', 00H
$SG205298 DB	'?????', 00H, '?', 00H
$SG197106 DB	'SVS', 00H, 'set_vector_summary', 00H
	ORG $+1
$SG205299 DB	'?????', 00H, '?', 00H
$SG197107 DB	'?????', 00H, '?', 00H
$SG205300 DB	'?????', 00H, '?', 00H
$SG197108 DB	'?????', 00H, '?', 00H
$SG205301 DB	'?????', 00H, '?', 00H
$SG197109 DB	'?????', 00H, '?', 00H
$SG205302 DB	'VSTM', 00H, 'vector_store_multiple', 00H
	ORG $+5
$SG197110 DB	'?????', 00H, '?', 00H
$SG205303 DB	'?????', 00H, '?', 00H
$SG197111 DB	'?????', 00H, '?', 00H
$SG205304 DB	'?????', 00H, '?', 00H
$SG197112 DB	'?????', 00H, '?', 00H
$SG205305 DB	'?????', 00H, '?', 00H
$SG197113 DB	'?????', 00H, '?', 00H
$SG205306 DB	'?????', 00H, '?', 00H
$SG197114 DB	'?????', 00H, '?', 00H
$SG205307 DB	'?????', 00H, '?', 00H
$SG197115 DB	'?????', 00H, '?', 00H
$SG205308 DB	'?????', 00H, '?', 00H
$SG197116 DB	'?????', 00H, '?', 00H
$SG205309 DB	'?????', 00H, '?', 00H
$SG197117 DB	'?????', 00H, '?', 00H
$SG205310 DB	'?????', 00H, '?', 00H
$SG197118 DB	'?????', 00H, '?', 00H
$SG205311 DB	'?????', 00H, '?', 00H
$SG197119 DB	'?????', 00H, '?', 00H
$SG205312 DB	'?????', 00H, '?', 00H
$SG197120 DB	'?????', 00H, '?', 00H
$SG205313 DB	'?????', 00H, '?', 00H
$SG197121 DB	'SIGA', 00H, 'signal_adapter', 00H
	ORG $+4
$SG205314 DB	'?????', 00H, '?', 00H
$SG197122 DB	'?????', 00H, '?', 00H
$SG205315 DB	'?????', 00H, '?', 00H
$SG197123 DB	'XSCH', 00H, 'cancel_subchannel', 00H
	ORG $+1
$SG205316 DB	'?????', 00H, '?', 00H
$SG197124 DB	'RP', 00H, 'resume_program', 00H
	ORG $+6
$SG205317 DB	'?????', 00H, '?', 00H
$SG197125 DB	'STCKE', 00H, 'store_clock_extended', 00H
	ORG $+5
$SG205318 DB	'?????', 00H, '?', 00H
$SG197126 DB	'SACF', 00H, 'set_address_space_control', 00H
	ORG $+1
$SG205319 DB	'?????', 00H, '?', 00H
$SG197127 DB	'?????', 00H, '?', 00H
$SG205320 DB	'?????', 00H, '?', 00H
$SG197128 DB	'?????', 00H, '?', 00H
$SG205321 DB	'?????', 00H, '?', 00H
$SG197129 DB	'STCKF', 00H, 'store_clock', 00H
	ORG $+6
$SG205322 DB	'?????', 00H, '?', 00H
$SG197130 DB	'STSI', 00H, 'store_system_information', 00H
	ORG $+2
$SG205323 DB	'?????', 00H, '?', 00H
$SG197131 DB	'?????', 00H, '?', 00H
$SG205324 DB	'?????', 00H, '?', 00H
$SG197132 DB	'?????', 00H, '?', 00H
$SG205325 DB	'?????', 00H, '?', 00H
$SG197133 DB	'LPP', 00H, 'load_program_parameter', 00H
	ORG $+5
$SG205326 DB	'?????', 00H, '?', 00H
$SG197134 DB	'?????', 00H, '?', 00H
$SG205327 DB	'?????', 00H, '?', 00H
$SG197135 DB	'?????', 00H, '?', 00H
$SG205328 DB	'?????', 00H, '?', 00H
$SG197136 DB	'?????', 00H, '?', 00H
$SG205329 DB	'?????', 00H, '?', 00H
$SG197137 DB	'?????', 00H, '?', 00H
$SG205330 DB	'?????', 00H, '?', 00H
$SG197138 DB	'?????', 00H, '?', 00H
$SG205331 DB	'?????', 00H, '?', 00H
$SG197139 DB	'?????', 00H, '?', 00H
$SG205332 DB	'?????', 00H, '?', 00H
$SG197140 DB	'?????', 00H, '?', 00H
$SG205333 DB	'?????', 00H, '?', 00H
$SG197141 DB	'?????', 00H, '?', 00H
$SG205334 DB	'?????', 00H, '?', 00H
$SG197142 DB	'?????', 00H, '?', 00H
$SG205335 DB	'?????', 00H, '?', 00H
$SG197143 DB	'?????', 00H, '?', 00H
$SG205336 DB	'?????', 00H, '?', 00H
$SG197144 DB	'?????', 00H, '?', 00H
$SG205337 DB	'?????', 00H, '?', 00H
$SG197145 DB	'?????', 00H, '?', 00H
$SG205338 DB	'?????', 00H, '?', 00H
$SG197146 DB	'?????', 00H, '?', 00H
$SG205339 DB	'?????', 00H, '?', 00H
$SG197147 DB	'?????', 00H, '?', 00H
$SG205340 DB	'?????', 00H, '?', 00H
$SG197148 DB	'?????', 00H, '?', 00H
$SG205341 DB	'?????', 00H, '?', 00H
$SG197149 DB	'?????', 00H, '?', 00H
$SG205342 DB	'?????', 00H, '?', 00H
$SG197150 DB	'?????', 00H, '?', 00H
$SG205343 DB	'?????', 00H, '?', 00H
$SG197151 DB	'?????', 00H, '?', 00H
$SG205344 DB	'?????', 00H, '?', 00H
$SG197152 DB	'?????', 00H, '?', 00H
$SG205345 DB	'?????', 00H, '?', 00H
$SG197153 DB	'?????', 00H, '?', 00H
$SG205346 DB	'?????', 00H, '?', 00H
$SG197154 DB	'?????', 00H, '?', 00H
$SG205347 DB	'?????', 00H, '?', 00H
$SG197155 DB	'?????', 00H, '?', 00H
$SG205348 DB	'?????', 00H, '?', 00H
$SG197156 DB	'?????', 00H, '?', 00H
$SG205349 DB	'?????', 00H, '?', 00H
$SG197157 DB	'?????', 00H, '?', 00H
$SG205350 DB	'?????', 00H, '?', 00H
$SG197158 DB	'SRNM', 00H, 'set_bfp_rounding_mode_2bit', 00H
$SG205351 DB	'?????', 00H, '?', 00H
$SG197159 DB	'?????', 00H, '?', 00H
$SG205352 DB	'?????', 00H, '?', 00H
$SG197160 DB	'?????', 00H, '?', 00H
$SG205353 DB	'?????', 00H, '?', 00H
$SG197161 DB	'STFPC', 00H, 'store_fpc', 00H
$SG205354 DB	'?????', 00H, '?', 00H
$SG197162 DB	'LFPC', 00H, 'load_fpc', 00H
	ORG $+2
$SG205355 DB	'?????', 00H, '?', 00H
$SG197163 DB	'?????', 00H, '?', 00H
$SG205356 DB	'?????', 00H, '?', 00H
$SG197164 DB	'?????', 00H, '?', 00H
$SG205357 DB	'?????', 00H, '?', 00H
$SG197165 DB	'?????', 00H, '?', 00H
$SG205358 DB	'?????', 00H, '?', 00H
$SG197166 DB	'?????', 00H, '?', 00H
$SG205359 DB	'?????', 00H, '?', 00H
$SG197167 DB	'?????', 00H, '?', 00H
$SG205360 DB	'?????', 00H, '?', 00H
$SG197168 DB	'?????', 00H, '?', 00H
$SG205361 DB	'?????', 00H, '?', 00H
$SG197169 DB	'?????', 00H, '?', 00H
$SG205362 DB	'?????', 00H, '?', 00H
$SG197170 DB	'TRE', 00H, 'translate_extended', 00H
	ORG $+1
$SG205363 DB	'?????', 00H, '?', 00H
$SG197171 DB	'CU21', 00H, 'convert_utf16_to_utf8', 00H
	ORG $+5
$SG205364 DB	'?????', 00H, '?', 00H
$SG197172 DB	'CU12', 00H, 'convert_utf8_to_utf16', 00H
	ORG $+5
$SG205365 DB	'?????', 00H, '?', 00H
$SG197173 DB	'?????', 00H, '?', 00H
$SG205366 DB	'?????', 00H, '?', 00H
$SG197174 DB	'?????', 00H, '?', 00H
$SG205367 DB	'?????', 00H, '?', 00H
$SG197175 DB	'?????', 00H, '?', 00H
$SG205368 DB	'?????', 00H, '?', 00H
$SG197176 DB	'?????', 00H, '?', 00H
$SG205369 DB	'?????', 00H, '?', 00H
$SG197177 DB	'?????', 00H, '?', 00H
$SG205370 DB	'?????', 00H, '?', 00H
$SG197178 DB	'?????', 00H, '?', 00H
$SG205371 DB	'?????', 00H, '?', 00H
$SG197179 DB	'?????', 00H, '?', 00H
$SG205372 DB	'?????', 00H, '?', 00H
$SG197180 DB	'?????', 00H, '?', 00H
$SG205373 DB	'?????', 00H, '?', 00H
$SG197181 DB	'STFLE', 00H, 'store_facility_list_extended', 00H
	ORG $+5
$SG205374 DB	'?????', 00H, '?', 00H
$SG197182 DB	'STFL', 00H, 'store_facility_list', 00H
	ORG $+7
$SG205375 DB	'?????', 00H, '?', 00H
$SG197183 DB	'LPSWE', 00H, 'load_program_status_word_extended', 00H
$SG205376 DB	'?????', 00H, '?', 00H
$SG197184 DB	'?????', 00H, '?', 00H
$SG205377 DB	'?????', 00H, '?', 00H
$SG197185 DB	'?????', 00H, '?', 00H
$SG205378 DB	'?????', 00H, '?', 00H
$SG197186 DB	'?????', 00H, '?', 00H
$SG205379 DB	'?????', 00H, '?', 00H
$SG197187 DB	'?????', 00H, '?', 00H
$SG205380 DB	'?????', 00H, '?', 00H
$SG197188 DB	'?????', 00H, '?', 00H
$SG205381 DB	'?????', 00H, '?', 00H
$SG197189 DB	'SRNMB', 00H, 'set_bfp_rounding_mode_3bit', 00H
	ORG $+7
$SG205382 DB	'?????', 00H, '?', 00H
$SG197190 DB	'SRNMT', 00H, 'set_dfp_rounding_mode', 00H
	ORG $+4
$SG205383 DB	'?????', 00H, '?', 00H
$SG197191 DB	'?????', 00H, '?', 00H
$SG205384 DB	'?????', 00H, '?', 00H
$SG197192 DB	'?????', 00H, '?', 00H
$SG205385 DB	'?????', 00H, '?', 00H
$SG197193 DB	'?????', 00H, '?', 00H
$SG205386 DB	'?????', 00H, '?', 00H
$SG197194 DB	'LFAS', 00H, 'load_fpc_and_signal', 00H
	ORG $+7
$SG205387 DB	'?????', 00H, '?', 00H
$SG197195 DB	'?????', 00H, '?', 00H
$SG205388 DB	'?????', 00H, '?', 00H
$SG197196 DB	'?????', 00H, '?', 00H
$SG205389 DB	'?????', 00H, '?', 00H
$SG197197 DB	'?????', 00H, '?', 00H
$SG205390 DB	'?????', 00H, '?', 00H
$SG197198 DB	'?????', 00H, '?', 00H
$SG205391 DB	'?????', 00H, '?', 00H
$SG197199 DB	'?????', 00H, '?', 00H
$SG205392 DB	'?????', 00H, '?', 00H
$SG197200 DB	'?????', 00H, '?', 00H
$SG205393 DB	'?????', 00H, '?', 00H
$SG197201 DB	'?????', 00H, '?', 00H
$SG205394 DB	'?????', 00H, '?', 00H
$SG197202 DB	'?????', 00H, '?', 00H
$SG205395 DB	'?????', 00H, '?', 00H
$SG197203 DB	'?????', 00H, '?', 00H
$SG205396 DB	'?????', 00H, '?', 00H
$SG197204 DB	'?????', 00H, '?', 00H
$SG205397 DB	'?????', 00H, '?', 00H
$SG197205 DB	'?????', 00H, '?', 00H
$SG205398 DB	'?????', 00H, '?', 00H
$SG197206 DB	'?????', 00H, '?', 00H
$SG205399 DB	'?????', 00H, '?', 00H
$SG197207 DB	'?????', 00H, '?', 00H
$SG205400 DB	'?????', 00H, '?', 00H
$SG197208 DB	'?????', 00H, '?', 00H
$SG205401 DB	'?????', 00H, '?', 00H
$SG197209 DB	'?????', 00H, '?', 00H
$SG205402 DB	'?????', 00H, '?', 00H
$SG197210 DB	'?????', 00H, '?', 00H
$SG205403 DB	'?????', 00H, '?', 00H
$SG197211 DB	'?????', 00H, '?', 00H
$SG205404 DB	'?????', 00H, '?', 00H
$SG197212 DB	'?????', 00H, '?', 00H
$SG205405 DB	'?????', 00H, '?', 00H
$SG197213 DB	'?????', 00H, '?', 00H
$SG205406 DB	'?????', 00H, '?', 00H
$SG197214 DB	'?????', 00H, '?', 00H
$SG205407 DB	'?????', 00H, '?', 00H
$SG197215 DB	'?????', 00H, '?', 00H
$SG205408 DB	'?????', 00H, '?', 00H
$SG197216 DB	'?????', 00H, '?', 00H
$SG205409 DB	'?????', 00H, '?', 00H
$SG197217 DB	'?????', 00H, '?', 00H
$SG205410 DB	'?????', 00H, '?', 00H
$SG197218 DB	'?????', 00H, '?', 00H
$SG205411 DB	'?????', 00H, '?', 00H
$SG197219 DB	'?????', 00H, '?', 00H
$SG205412 DB	'?????', 00H, '?', 00H
$SG197220 DB	'?????', 00H, '?', 00H
$SG205413 DB	'?????', 00H, '?', 00H
$SG197221 DB	'?????', 00H, '?', 00H
$SG205414 DB	'?????', 00H, '?', 00H
$SG197222 DB	'?????', 00H, '?', 00H
$SG205415 DB	'?????', 00H, '?', 00H
$SG197223 DB	'?????', 00H, '?', 00H
$SG205416 DB	'?????', 00H, '?', 00H
$SG197224 DB	'?????', 00H, '?', 00H
$SG205417 DB	'?????', 00H, '?', 00H
$SG197225 DB	'?????', 00H, '?', 00H
$SG205418 DB	'?????', 00H, '?', 00H
$SG197226 DB	'?????', 00H, '?', 00H
$SG205419 DB	'?????', 00H, '?', 00H
$SG197227 DB	'?????', 00H, '?', 00H
$SG205420 DB	'?????', 00H, '?', 00H
$SG197228 DB	'?????', 00H, '?', 00H
$SG205421 DB	'?????', 00H, '?', 00H
$SG197229 DB	'?????', 00H, '?', 00H
$SG205422 DB	'?????', 00H, '?', 00H
$SG197230 DB	'?????', 00H, '?', 00H
$SG205423 DB	'?????', 00H, '?', 00H
$SG197231 DB	'?????', 00H, '?', 00H
$SG205424 DB	'?????', 00H, '?', 00H
$SG197232 DB	'?????', 00H, '?', 00H
$SG205425 DB	'?????', 00H, '?', 00H
$SG197233 DB	'?????', 00H, '?', 00H
$SG205426 DB	'?????', 00H, '?', 00H
$SG197234 DB	'?????', 00H, '?', 00H
$SG205427 DB	'?????', 00H, '?', 00H
$SG197235 DB	'?????', 00H, '?', 00H
$SG205428 DB	'?????', 00H, '?', 00H
$SG197236 DB	'?????', 00H, '?', 00H
$SG205429 DB	'?????', 00H, '?', 00H
$SG197237 DB	'PPA', 00H, 'perform_processor_assist', 00H
	ORG $+3
$SG205430 DB	'?????', 00H, '?', 00H
$SG197238 DB	'?????', 00H, '?', 00H
$SG205431 DB	'?????', 00H, '?', 00H
$SG197239 DB	'?????', 00H, '?', 00H
$SG205432 DB	'?????', 00H, '?', 00H
$SG197240 DB	'?????', 00H, '?', 00H
$SG205433 DB	'?????', 00H, '?', 00H
$SG197241 DB	'ETND', 00H, 'extract_transaction_nesting_depth', 00H
	ORG $+1
$SG205434 DB	'?????', 00H, '?', 00H
$SG197242 DB	'?????', 00H, '?', 00H
$SG205435 DB	'?????', 00H, '?', 00H
$SG197243 DB	'?????', 00H, '?', 00H
$SG205436 DB	'?????', 00H, '?', 00H
$SG197244 DB	'?????', 00H, '?', 00H
$SG205437 DB	'?????', 00H, '?', 00H
$SG197245 DB	'IUCV', 00H, 'inter_user_communication_vehicle', 00H
	ORG $+2
$SG205438 DB	'?????', 00H, '?', 00H
$SG197246 DB	'?????', 00H, '?', 00H
$SG205439 DB	'?????', 00H, '?', 00H
$SG197247 DB	'?????', 00H, '?', 00H
$SG205440 DB	'?????', 00H, '?', 00H
$SG197248 DB	'?????', 00H, '?', 00H
$SG205441 DB	'?????', 00H, '?', 00H
$SG197249 DB	'?????', 00H, '?', 00H
$SG205442 DB	'?????', 00H, '?', 00H
$SG197250 DB	'?????', 00H, '?', 00H
$SG205443 DB	'?????', 00H, '?', 00H
$SG197251 DB	'?????', 00H, '?', 00H
$SG205444 DB	'?????', 00H, '?', 00H
$SG197252 DB	'?????', 00H, '?', 00H
$SG205445 DB	'?????', 00H, '?', 00H
$SG197253 DB	'TEND', 00H, 'transaction_end', 00H
	ORG $+3
$SG205446 DB	'?????', 00H, '?', 00H
$SG197254 DB	'?????', 00H, '?', 00H
$SG205447 DB	'?????', 00H, '?', 00H
$SG197255 DB	'NIAI', 00H, 'next_instruction_access_intent', 00H
	ORG $+4
$SG205448 DB	'?????', 00H, '?', 00H
$SG197256 DB	'?????', 00H, '?', 00H
$SG205449 DB	'?????', 00H, '?', 00H
$SG197257 DB	'TABORT', 00H, 'transaction_abort', 00H
	ORG $+7
$SG205450 DB	'?????', 00H, '?', 00H
$SG197258 DB	'?????', 00H, '?', 00H
$SG205451 DB	'?????', 00H, '?', 00H
$SG197259 DB	'?????', 00H, '?', 00H
$SG205452 DB	'?????', 00H, '?', 00H
$SG197260 DB	'TRAP4', 00H, 'trap4', 00H
	ORG $+4
$SG205453 DB	'?????', 00H, '?', 00H
$SG205454 DB	'?????', 00H, '?', 00H
$SG205455 DB	'?????', 00H, '?', 00H
$SG205456 DB	'?????', 00H, '?', 00H
$SG205457 DB	'?????', 00H, '?', 00H
$SG205458 DB	'?????', 00H, '?', 00H
$SG205459 DB	'?????', 00H, '?', 00H
$SG205460 DB	'?????', 00H, '?', 00H
$SG205461 DB	'?????', 00H, '?', 00H
$SG205462 DB	'?????', 00H, '?', 00H
$SG205463 DB	'?????', 00H, '?', 00H
$SG205464 DB	'?????', 00H, '?', 00H
$SG205465 DB	'?????', 00H, '?', 00H
$SG205466 DB	'?????', 00H, '?', 00H
$SG205467 DB	'?????', 00H, '?', 00H
$SG205468 DB	'?????', 00H, '?', 00H
$SG205469 DB	'?????', 00H, '?', 00H
$SG205470 DB	'?????', 00H, '?', 00H
$SG205471 DB	'?????', 00H, '?', 00H
$SG205472 DB	'?????', 00H, '?', 00H
$SG205473 DB	'?????', 00H, '?', 00H
$SG205474 DB	'?????', 00H, '?', 00H
$SG205475 DB	'?????', 00H, '?', 00H
$SG205476 DB	'?????', 00H, '?', 00H
$SG205477 DB	'?????', 00H, '?', 00H
$SG205478 DB	'?????', 00H, '?', 00H
$SG205479 DB	'?????', 00H, '?', 00H
$SG205480 DB	'?????', 00H, '?', 00H
$SG205481 DB	'?????', 00H, '?', 00H
$SG205482 DB	'?????', 00H, '?', 00H
$SG205483 DB	'?????', 00H, '?', 00H
$SG205484 DB	'?????', 00H, '?', 00H
$SG205485 DB	'?????', 00H, '?', 00H
$SG205486 DB	'?????', 00H, '?', 00H
$SG205487 DB	'?????', 00H, '?', 00H
$SG205488 DB	'?????', 00H, '?', 00H
$SG205489 DB	'?????', 00H, '?', 00H
$SG205490 DB	'?????', 00H, '?', 00H
$SG205491 DB	'?????', 00H, '?', 00H
$SG205492 DB	'?????', 00H, '?', 00H
$SG205493 DB	'?????', 00H, '?', 00H
$SG205494 DB	'?????', 00H, '?', 00H
$SG205495 DB	'?????', 00H, '?', 00H
$SG206008 DB	'?????', 00H, '?', 00H
$SG206009 DB	'?????', 00H, '?', 00H
$SG206010 DB	'?????', 00H, '?', 00H
$SG206011 DB	'?????', 00H, '?', 00H
$SG206012 DB	'LMG', 00H, 'load_multiple_long', 00H
	ORG $+1
$SG206013 DB	'?????', 00H, '?', 00H
$SG206014 DB	'?????', 00H, '?', 00H
$SG206015 DB	'?????', 00H, '?', 00H
$SG206016 DB	'?????', 00H, '?', 00H
$SG206017 DB	'?????', 00H, '?', 00H
$SG206018 DB	'SRAG', 00H, 'shift_right_single_long', 00H
	ORG $+3
$SG206019 DB	'SLAG', 00H, 'shift_left_single_long', 00H
	ORG $+4
$SG206020 DB	'SRLG', 00H, 'shift_right_single_logical_long', 00H
	ORG $+3
$SG206021 DB	'SLLG', 00H, 'shift_left_single_logical_long', 00H
	ORG $+4
$SG206022 DB	'?????', 00H, '?', 00H
$SG206023 DB	'TRACG', 00H, 'trace_long', 00H
	ORG $+7
$SG206024 DB	'?????', 00H, '?', 00H
$SG206025 DB	'?????', 00H, '?', 00H
$SG206026 DB	'?????', 00H, '?', 00H
$SG206027 DB	'?????', 00H, '?', 00H
$SG206028 DB	'CSY', 00H, 'compare_and_swap_y', 00H
	ORG $+1
$SG206029 DB	'?????', 00H, '?', 00H
$SG206030 DB	'?????', 00H, '?', 00H
$SG206031 DB	'?????', 00H, '?', 00H
$SG206032 DB	'?????', 00H, '?', 00H
$SG206033 DB	'?????', 00H, '?', 00H
$SG206034 DB	'?????', 00H, '?', 00H
$SG206035 DB	'?????', 00H, '?', 00H
$SG206036 DB	'RLLG', 00H, 'rotate_left_single_logical_long', 00H
	ORG $+3
$SG206037 DB	'RLL', 00H, 'rotate_left_single_logical', 00H
	ORG $+1
$SG206038 DB	'?????', 00H, '?', 00H
$SG206039 DB	'?????', 00H, '?', 00H
$SG206040 DB	'CLMH', 00H, 'compare_logical_characters_under_mask_high', 00H
$SG206041 DB	'CLMY', 00H, 'compare_logical_characters_under_mask_y', 00H
	ORG $+3
$SG206042 DB	'?????', 00H, '?', 00H
$SG206043 DB	'CLT', 00H, 'compare_logical_and_trap', 00H
	ORG $+3
$SG206044 DB	'STMG', 00H, 'store_multiple_long', 00H
	ORG $+7
$SG206045 DB	'STCTG', 00H, 'store_control_long', 00H
	ORG $+7
$SG206046 DB	'STMH', 00H, 'store_multiple_high', 00H
	ORG $+7
$SG206047 DB	'?????', 00H, '?', 00H
$SG206048 DB	'?????', 00H, '?', 00H
$SG206049 DB	'?????', 00H, '?', 00H
$SG206050 DB	'?????', 00H, '?', 00H
$SG206051 DB	'CLGT', 00H, 'compare_logical_and_trap_long', 00H
	ORG $+5
$SG206052 DB	'STCMH', 00H, 'store_characters_under_mask_high', 00H
	ORG $+1
$SG206053 DB	'STCMY', 00H, 'store_characters_under_mask_y', 00H
	ORG $+4
$SG206054 DB	'?????', 00H, '?', 00H
$SG206055 DB	'LCTLG', 00H, 'load_control_long', 00H
$SG206056 DB	'CSG', 00H, 'compare_and_swap_long', 00H
	ORG $+6
$SG206057 DB	'CDSY', 00H, 'compare_double_and_swap_y', 00H
	ORG $+1
$SG206058 DB	'?????', 00H, '?', 00H
$SG206059 DB	'?????', 00H, '?', 00H
$SG206060 DB	'?????', 00H, '?', 00H
$SG206061 DB	'?????', 00H, '?', 00H
$SG206062 DB	'?????', 00H, '?', 00H
$SG206063 DB	'?????', 00H, '?', 00H
$SG206064 DB	'?????', 00H, '?', 00H
$SG206065 DB	'?????', 00H, '?', 00H
$SG206066 DB	'?????', 00H, '?', 00H
$SG206067 DB	'?????', 00H, '?', 00H
$SG206068 DB	'?????', 00H, '?', 00H
$SG206069 DB	'?????', 00H, '?', 00H
$SG206070 DB	'CDSG', 00H, 'compare_double_and_swap_long', 00H
	ORG $+6
$SG206071 DB	'?????', 00H, '?', 00H
$SG206072 DB	'?????', 00H, '?', 00H
$SG206073 DB	'?????', 00H, '?', 00H
$SG206074 DB	'?????', 00H, '?', 00H
$SG206075 DB	'?????', 00H, '?', 00H
$SG206076 DB	'BXHG', 00H, 'branch_on_index_high_long', 00H
	ORG $+1
$SG206077 DB	'BXLEG', 00H, 'branch_on_index_low_or_equal_long', 00H
$SG206078 DB	'?????', 00H, '?', 00H
$SG206079 DB	'?????', 00H, '?', 00H
$SG206080 DB	'?????', 00H, '?', 00H
$SG206081 DB	'?????', 00H, '?', 00H
$SG206082 DB	'?????', 00H, '?', 00H
$SG206083 DB	'?????', 00H, '?', 00H
$SG206084 DB	'ECAG', 00H, 'extract_cpu_attribute', 00H
	ORG $+5
$SG206085 DB	'?????', 00H, '?', 00H
$SG206086 DB	'?????', 00H, '?', 00H
$SG206087 DB	'?????', 00H, '?', 00H
$SG206088 DB	'?????', 00H, '?', 00H
$SG206089 DB	'TMY', 00H, 'test_under_mask_y', 00H
	ORG $+2
$SG206090 DB	'MVIY', 00H, 'move_immediate_y', 00H
	ORG $+2
$SG206091 DB	'?????', 00H, '?', 00H
$SG206092 DB	'NIY', 00H, 'and_immediate_y', 00H
	ORG $+4
$SG206093 DB	'CLIY', 00H, 'compare_logical_immediate_y', 00H
	ORG $+7
$SG206094 DB	'OIY', 00H, 'or_immediate_y', 00H
	ORG $+5
$SG206095 DB	'XIY', 00H, 'exclusive_or_immediate_y', 00H
	ORG $+3
$SG206096 DB	'?????', 00H, '?', 00H
$SG206097 DB	'?????', 00H, '?', 00H
$SG206098 DB	'?????', 00H, '?', 00H
$SG206099 DB	'?????', 00H, '?', 00H
$SG206100 DB	'?????', 00H, '?', 00H
$SG206101 DB	'?????', 00H, '?', 00H
$SG206102 DB	'?????', 00H, '?', 00H
$SG206103 DB	'?????', 00H, '?', 00H
$SG206104 DB	'?????', 00H, '?', 00H
$SG206105 DB	'?????', 00H, '?', 00H
$SG206106 DB	'?????', 00H, '?', 00H
$SG206107 DB	'?????', 00H, '?', 00H
$SG206108 DB	'?????', 00H, '?', 00H
$SG206109 DB	'?????', 00H, '?', 00H
$SG206110 DB	'?????', 00H, '?', 00H
$SG206111 DB	'?????', 00H, '?', 00H
$SG206112 DB	'?????', 00H, '?', 00H
$SG206113 DB	'?????', 00H, '?', 00H
$SG206114 DB	'ASI', 00H, 'add_immediate_storage', 00H
	ORG $+6
$SG206115 DB	'?????', 00H, '?', 00H
$SG206116 DB	'?????', 00H, '?', 00H
$SG206117 DB	'?????', 00H, '?', 00H
$SG206118 DB	'ALSI', 00H, 'add_logical_with_signed_immediate', 00H
	ORG $+1
$SG206119 DB	'?????', 00H, '?', 00H
$SG206120 DB	'?????', 00H, '?', 00H
$SG206121 DB	'LPSWEY', 00H, 'load_program_status_word_extended_y', 00H
	ORG $+5
$SG206122 DB	'?????', 00H, '?', 00H
$SG206123 DB	'?????', 00H, '?', 00H
$SG206124 DB	'?????', 00H, '?', 00H
$SG206125 DB	'?????', 00H, '?', 00H
$SG206126 DB	'?????', 00H, '?', 00H
$SG206127 DB	'?????', 00H, '?', 00H
$SG206128 DB	'?????', 00H, '?', 00H
$SG206129 DB	'?????', 00H, '?', 00H
$SG206130 DB	'AGSI', 00H, 'add_immediate_long_storage', 00H
$SG206131 DB	'?????', 00H, '?', 00H
$SG206132 DB	'?????', 00H, '?', 00H
$SG206133 DB	'?????', 00H, '?', 00H
$SG206134 DB	'ALGSI', 00H, 'add_logical_with_signed_immediate_long', 00H
	ORG $+3
$SG206135 DB	'?????', 00H, '?', 00H
$SG206136 DB	'ICMH', 00H, 'insert_characters_under_mask_high', 00H
	ORG $+1
$SG206137 DB	'ICMY', 00H, 'insert_characters_under_mask_y', 00H
	ORG $+4
$SG206138 DB	'?????', 00H, '?', 00H
$SG206139 DB	'?????', 00H, '?', 00H
$SG206140 DB	'?????', 00H, '?', 00H
$SG206141 DB	'?????', 00H, '?', 00H
$SG206142 DB	'?????', 00H, '?', 00H
$SG206143 DB	'?????', 00H, '?', 00H
$SG206144 DB	'?????', 00H, '?', 00H
$SG206145 DB	'?????', 00H, '?', 00H
$SG206146 DB	'SQBS', 00H, 'set_queue_buffer_state', 00H
	ORG $+4
$SG206147 DB	'?????', 00H, '?', 00H
$SG206148 DB	'?????', 00H, '?', 00H
$SG206149 DB	'?????', 00H, '?', 00H
$SG206150 DB	'MVCLU', 00H, 'move_long_unicode', 00H
$SG206151 DB	'CLCLU', 00H, 'compare_logical_long_unicode', 00H
	ORG $+5
$SG206152 DB	'STMY', 00H, 'store_multiple_y', 00H
	ORG $+2
$SG206153 DB	'?????', 00H, '?', 00H
$SG206154 DB	'?????', 00H, '?', 00H
$SG206155 DB	'?????', 00H, '?', 00H
$SG206156 DB	'?????', 00H, '?', 00H
$SG206157 DB	'?????', 00H, '?', 00H
$SG206158 DB	'LMH', 00H, 'load_multiple_high', 00H
	ORG $+1
$SG206159 DB	'?????', 00H, '?', 00H
$SG206160 DB	'LMY', 00H, 'load_multiple_y', 00H
	ORG $+4
$SG206161 DB	'?????', 00H, '?', 00H
$SG206162 DB	'LAMY', 00H, 'load_access_multiple_y', 00H
	ORG $+4
$SG206163 DB	'STAMY', 00H, 'store_access_multiple_y', 00H
	ORG $+2
$SG206164 DB	'?????', 00H, '?', 00H
$SG206165 DB	'?????', 00H, '?', 00H
$SG206166 DB	'?????', 00H, '?', 00H
$SG206167 DB	'?????', 00H, '?', 00H
$SG206168 DB	'?????', 00H, '?', 00H
$SG206169 DB	'?????', 00H, '?', 00H
$SG206170 DB	'?????', 00H, '?', 00H
$SG206171 DB	'?????', 00H, '?', 00H
$SG206172 DB	'?????', 00H, '?', 00H
$SG206173 DB	'?????', 00H, '?', 00H
$SG206174 DB	'?????', 00H, '?', 00H
$SG206175 DB	'?????', 00H, '?', 00H
$SG206176 DB	'?????', 00H, '?', 00H
$SG206177 DB	'?????', 00H, '?', 00H
$SG206178 DB	'?????', 00H, '?', 00H
$SG206179 DB	'?????', 00H, '?', 00H
$SG206180 DB	'?????', 00H, '?', 00H
$SG206181 DB	'?????', 00H, '?', 00H
$SG206182 DB	'?????', 00H, '?', 00H
$SG206183 DB	'?????', 00H, '?', 00H
$SG206184 DB	'?????', 00H, '?', 00H
$SG206185 DB	'?????', 00H, '?', 00H
$SG206186 DB	'?????', 00H, '?', 00H
$SG206187 DB	'?????', 00H, '?', 00H
$SG206188 DB	'?????', 00H, '?', 00H
$SG206189 DB	'?????', 00H, '?', 00H
$SG206190 DB	'?????', 00H, '?', 00H
$SG206191 DB	'?????', 00H, '?', 00H
$SG206192 DB	'?????', 00H, '?', 00H
$SG206193 DB	'?????', 00H, '?', 00H
$SG206194 DB	'?????', 00H, '?', 00H
$SG206195 DB	'?????', 00H, '?', 00H
$SG206196 DB	'?????', 00H, '?', 00H
$SG206197 DB	'?????', 00H, '?', 00H
$SG206198 DB	'?????', 00H, '?', 00H
$SG206199 DB	'?????', 00H, '?', 00H
$SG206200 DB	'TP', 00H, 'test_decimal', 00H
$SG206201 DB	'?????', 00H, '?', 00H
$SG206202 DB	'?????', 00H, '?', 00H
$SG206203 DB	'?????', 00H, '?', 00H
$SG206204 DB	'?????', 00H, '?', 00H
$SG206205 DB	'?????', 00H, '?', 00H
$SG206206 DB	'?????', 00H, '?', 00H
$SG206207 DB	'?????', 00H, '?', 00H
$SG206208 DB	'?????', 00H, '?', 00H
$SG206209 DB	'?????', 00H, '?', 00H
$SG206210 DB	'?????', 00H, '?', 00H
$SG206211 DB	'?????', 00H, '?', 00H
$SG206212 DB	'?????', 00H, '?', 00H
$SG206213 DB	'?????', 00H, '?', 00H
$SG206214 DB	'?????', 00H, '?', 00H
$SG206215 DB	'?????', 00H, '?', 00H
$SG206216 DB	'?????', 00H, '?', 00H
$SG206217 DB	'?????', 00H, '?', 00H
$SG206218 DB	'?????', 00H, '?', 00H
$SG206219 DB	'?????', 00H, '?', 00H
$SG206220 DB	'?????', 00H, '?', 00H
$SG206221 DB	'?????', 00H, '?', 00H
$SG206222 DB	'?????', 00H, '?', 00H
$SG206223 DB	'?????', 00H, '?', 00H
$SG206224 DB	'?????', 00H, '?', 00H
$SG206225 DB	'?????', 00H, '?', 00H
$SG206226 DB	'?????', 00H, '?', 00H
$SG206227 DB	'?????', 00H, '?', 00H
$SG206228 DB	'SRAK', 00H, 'shift_right_single_distinct', 00H
	ORG $+7
$SG206229 DB	'SLAK', 00H, 'shift_left_single_distinct', 00H
$SG206230 DB	'SRLK', 00H, 'shift_right_single_logical_distinct', 00H
	ORG $+7
$SG206231 DB	'SLLK', 00H, 'shift_left_single_logical_distinct', 00H
$SG206232 DB	'LOCFH', 00H, 'load_high_on_condition', 00H
	ORG $+3
$SG206233 DB	'STOCFH', 00H, 'store_high_on_condition', 00H
	ORG $+1
$SG206234 DB	'LOCG', 00H, 'load_on_condition_long', 00H
	ORG $+4
$SG206235 DB	'STOCG', 00H, 'store_on_condition_long', 00H
	ORG $+2
$SG206236 DB	'LANG', 00H, 'load_and_and_long', 00H
	ORG $+1
$SG206237 DB	'?????', 00H, '?', 00H
$SG206238 DB	'LAOG', 00H, 'load_and_or_long', 00H
	ORG $+2
$SG206239 DB	'LAXG', 00H, 'load_and_exclusive_or_long', 00H
$SG206240 DB	'LAAG', 00H, 'load_and_add_long', 00H
	ORG $+1
$SG206241 DB	'?????', 00H, '?', 00H
$SG206242 DB	'LAALG', 00H, 'load_and_add_logical_long', 00H
$SG206243 DB	'?????', 00H, '?', 00H
$SG206244 DB	'?????', 00H, '?', 00H
$SG206245 DB	'?????', 00H, '?', 00H
$SG206246 DB	'?????', 00H, '?', 00H
$SG206247 DB	'?????', 00H, '?', 00H
$SG206248 DB	'?????', 00H, '?', 00H
$SG206249 DB	'?????', 00H, '?', 00H
$SG206250 DB	'LOC', 00H, 'load_on_condition', 00H
	ORG $+2
$SG206251 DB	'STOC', 00H, 'store_on_condition', 00H
$SG206252 DB	'LAN', 00H, 'load_and_and', 00H
	ORG $+7
$SG206253 DB	'?????', 00H, '?', 00H
$SG206254 DB	'LAO', 00H, 'load_and_or', 00H
$SG206255 DB	'LAX', 00H, 'load_and_exclusive_or', 00H
	ORG $+6
$SG206256 DB	'LAA', 00H, 'load_and_add', 00H
	ORG $+7
$SG206257 DB	'?????', 00H, '?', 00H
$SG206258 DB	'LAAL', 00H, 'load_and_add_logical', 00H
	ORG $+6
$SG206259 DB	'?????', 00H, '?', 00H
$SG206260 DB	'?????', 00H, '?', 00H
$SG206261 DB	'?????', 00H, '?', 00H
$SG206262 DB	'?????', 00H, '?', 00H
$SG206263 DB	'?????', 00H, '?', 00H
$SG206776 DB	'?????', 00H, '?', 00H
$SG206777 DB	'?????', 00H, '?', 00H
$SG206778 DB	'?????', 00H, '?', 00H
$SG206779 DB	'?????', 00H, '?', 00H
$SG206780 DB	'?????', 00H, '?', 00H
$SG206781 DB	'?????', 00H, '?', 00H
$SG206782 DB	'?????', 00H, '?', 00H
$SG206783 DB	'?????', 00H, '?', 00H
$SG206784 DB	'?????', 00H, '?', 00H
$SG206785 DB	'?????', 00H, '?', 00H
$SG206786 DB	'?????', 00H, '?', 00H
$SG206787 DB	'?????', 00H, '?', 00H
$SG206788 DB	'?????', 00H, '?', 00H
$SG206789 DB	'?????', 00H, '?', 00H
$SG206790 DB	'?????', 00H, '?', 00H
$SG206791 DB	'?????', 00H, '?', 00H
$SG206792 DB	'?????', 00H, '?', 00H
$SG206793 DB	'?????', 00H, '?', 00H
$SG206794 DB	'?????', 00H, '?', 00H
$SG206795 DB	'?????', 00H, '?', 00H
$SG206796 DB	'?????', 00H, '?', 00H
$SG206797 DB	'?????', 00H, '?', 00H
$SG206798 DB	'?????', 00H, '?', 00H
$SG206799 DB	'?????', 00H, '?', 00H
$SG206800 DB	'?????', 00H, '?', 00H
$SG206801 DB	'?????', 00H, '?', 00H
$SG206802 DB	'?????', 00H, '?', 00H
$SG206803 DB	'?????', 00H, '?', 00H
$SG206804 DB	'?????', 00H, '?', 00H
$SG206805 DB	'?????', 00H, '?', 00H
$SG206806 DB	'?????', 00H, '?', 00H
$SG206807 DB	'?????', 00H, '?', 00H
$SG206808 DB	'?????', 00H, '?', 00H
$SG206809 DB	'?????', 00H, '?', 00H
$SG206810 DB	'?????', 00H, '?', 00H
$SG206811 DB	'?????', 00H, '?', 00H
$SG206812 DB	'?????', 00H, '?', 00H
$SG206813 DB	'?????', 00H, '?', 00H
$SG206814 DB	'?????', 00H, '?', 00H
$SG206815 DB	'?????', 00H, '?', 00H
$SG206816 DB	'?????', 00H, '?', 00H
$SG206817 DB	'?????', 00H, '?', 00H
$SG206818 DB	'?????', 00H, '?', 00H
$SG206819 DB	'?????', 00H, '?', 00H
$SG206820 DB	'?????', 00H, '?', 00H
$SG206821 DB	'?????', 00H, '?', 00H
$SG206822 DB	'?????', 00H, '?', 00H
$SG206823 DB	'?????', 00H, '?', 00H
$SG206824 DB	'?????', 00H, '?', 00H
$SG206825 DB	'?????', 00H, '?', 00H
$SG206826 DB	'?????', 00H, '?', 00H
$SG206827 DB	'?????', 00H, '?', 00H
$SG206828 DB	'?????', 00H, '?', 00H
$SG206829 DB	'?????', 00H, '?', 00H
$SG206830 DB	'?????', 00H, '?', 00H
$SG206831 DB	'?????', 00H, '?', 00H
$SG206832 DB	'?????', 00H, '?', 00H
$SG206833 DB	'?????', 00H, '?', 00H
$SG206834 DB	'?????', 00H, '?', 00H
$SG206835 DB	'?????', 00H, '?', 00H
$SG206836 DB	'?????', 00H, '?', 00H
$SG206837 DB	'?????', 00H, '?', 00H
$SG206838 DB	'?????', 00H, '?', 00H
$SG206839 DB	'?????', 00H, '?', 00H
$SG206840 DB	'?????', 00H, '?', 00H
$SG206841 DB	'?????', 00H, '?', 00H
$SG206842 DB	'LOCHI', 00H, 'load_halfword_immediate_on_condition', 00H
	ORG $+5
$SG206843 DB	'?????', 00H, '?', 00H
$SG206844 DB	'BRXHG', 00H, 'branch_relative_on_index_high_long', 00H
	ORG $+7
$SG206845 DB	'BRXLG', 00H, 'branch_relative_on_index_low_or_equal_long'
	DB	00H
	ORG $+7
$SG206846 DB	'LOCGHI', 00H, 'load_halfword_immediate_on_condition_gran'
	DB	'de', 00H
	ORG $+5
$SG206847 DB	'?????', 00H, '?', 00H
$SG206848 DB	'?????', 00H, '?', 00H
$SG206849 DB	'?????', 00H, '?', 00H
$SG206850 DB	'?????', 00H, '?', 00H
$SG206851 DB	'?????', 00H, '?', 00H
$SG206852 DB	'?????', 00H, '?', 00H
$SG206853 DB	'?????', 00H, '?', 00H
$SG206854 DB	'LOCHHI', 00H, 'load_halfword_high_immediate_on_condition'
	DB	00H
	ORG $+7
$SG206855 DB	'?????', 00H, '?', 00H
$SG206856 DB	'?????', 00H, '?', 00H
$SG206857 DB	'RISBLG', 00H, 'rotate_then_insert_selected_bits_low_long'
	DB	'_reg', 00H
	ORG $+3
$SG206858 DB	'?????', 00H, '?', 00H
$SG206859 DB	'?????', 00H, '?', 00H
$SG206860 DB	'RNSBG', 00H, 'rotate_then_and_selected_bits_long_reg', 00H
	ORG $+3
$SG206861 DB	'RISBG', 00H, 'rotate_then_insert_selected_bits_long_reg', 00H
$SG206862 DB	'ROSBG', 00H, 'rotate_then_or_selected_bits_long_reg', 00H
	ORG $+4
$SG206863 DB	'RXSBG', 00H, 'rotate_then_exclusive_or_selected_bits_lon'
	DB	'g_reg', 00H
	ORG $+2
$SG206864 DB	'?????', 00H, '?', 00H
$SG206865 DB	'RISBGN', 00H, 'rotate_then_insert_selected_bits_long_reg'
	DB	'_n', 00H
	ORG $+5
$SG206866 DB	'?????', 00H, '?', 00H
$SG206867 DB	'?????', 00H, '?', 00H
$SG206868 DB	'?????', 00H, '?', 00H
$SG206869 DB	'RISBHG', 00H, 'rotate_then_insert_selected_bits_high_lon'
	DB	'g_reg', 00H
	ORG $+2
$SG206870 DB	'?????', 00H, '?', 00H
$SG206871 DB	'?????', 00H, '?', 00H
$SG206872 DB	'?????', 00H, '?', 00H
$SG206873 DB	'?????', 00H, '?', 00H
$SG206874 DB	'?????', 00H, '?', 00H
$SG206875 DB	'?????', 00H, '?', 00H
$SG206876 DB	'CGRJ', 00H, 'compare_and_branch_relative_long_register', 00H
	ORG $+1
$SG206877 DB	'CLGRJ', 00H, 'compare_logical_and_branch_relative_long_r'
	DB	'egister', 00H
$SG206878 DB	'?????', 00H, '?', 00H
$SG206879 DB	'?????', 00H, '?', 00H
$SG206880 DB	'?????', 00H, '?', 00H
$SG206881 DB	'?????', 00H, '?', 00H
$SG206882 DB	'?????', 00H, '?', 00H
$SG206883 DB	'?????', 00H, '?', 00H
$SG206884 DB	'?????', 00H, '?', 00H
$SG206885 DB	'?????', 00H, '?', 00H
$SG206886 DB	'?????', 00H, '?', 00H
$SG206887 DB	'?????', 00H, '?', 00H
$SG206888 DB	'CGIT', 00H, 'compare_immediate_and_trap_long', 00H
	ORG $+3
$SG206889 DB	'CLGIT', 00H, 'compare_logical_immediate_and_trap_long', 00H
	ORG $+2
$SG206890 DB	'CIT', 00H, 'compare_immediate_and_trap', 00H
	ORG $+1
$SG206891 DB	'CLFIT', 00H, 'compare_logical_immediate_and_trap_fullwor'
	DB	'd', 00H
	ORG $+6
$SG206892 DB	'?????', 00H, '?', 00H
$SG206893 DB	'?????', 00H, '?', 00H
$SG206894 DB	'CRJ', 00H, 'compare_and_branch_relative_register', 00H
	ORG $+7
$SG206895 DB	'CLRJ', 00H, 'compare_logical_and_branch_relative_registe'
	DB	'r', 00H
	ORG $+6
$SG206896 DB	'?????', 00H, '?', 00H
$SG206897 DB	'?????', 00H, '?', 00H
$SG206898 DB	'?????', 00H, '?', 00H
$SG206899 DB	'?????', 00H, '?', 00H
$SG206900 DB	'CGIJ', 00H, 'compare_immediate_and_branch_relative_long', 00H
$SG206901 DB	'CLGIJ', 00H, 'compare_logical_immediate_and_branch_relat'
	DB	'ive_long', 00H
	ORG $+7
$SG206902 DB	'CIJ', 00H, 'compare_immediate_and_branch_relative', 00H
	ORG $+6
$SG206903 DB	'CLIJ', 00H, 'compare_logical_immediate_and_branch_relati'
	DB	've', 00H
	ORG $+5
$SG206904 DB	'?????', 00H, '?', 00H
$SG206905 DB	'?????', 00H, '?', 00H
$SG206906 DB	'?????', 00H, '?', 00H
$SG206907 DB	'?????', 00H, '?', 00H
$SG206908 DB	'?????', 00H, '?', 00H
$SG206909 DB	'?????', 00H, '?', 00H
$SG206910 DB	'?????', 00H, '?', 00H
$SG206911 DB	'?????', 00H, '?', 00H
$SG206912 DB	'?????', 00H, '?', 00H
$SG206913 DB	'?????', 00H, '?', 00H
$SG206914 DB	'?????', 00H, '?', 00H
$SG206915 DB	'?????', 00H, '?', 00H
$SG206916 DB	'?????', 00H, '?', 00H
$SG206917 DB	'?????', 00H, '?', 00H
$SG206918 DB	'?????', 00H, '?', 00H
$SG206919 DB	'?????', 00H, '?', 00H
$SG206920 DB	'?????', 00H, '?', 00H
$SG206921 DB	'?????', 00H, '?', 00H
$SG206922 DB	'?????', 00H, '?', 00H
$SG206923 DB	'?????', 00H, '?', 00H
$SG206924 DB	'?????', 00H, '?', 00H
$SG206925 DB	'?????', 00H, '?', 00H
$SG206926 DB	'?????', 00H, '?', 00H
$SG206927 DB	'?????', 00H, '?', 00H
$SG206928 DB	'?????', 00H, '?', 00H
$SG206929 DB	'?????', 00H, '?', 00H
$SG206930 DB	'?????', 00H, '?', 00H
$SG206931 DB	'?????', 00H, '?', 00H
$SG206932 DB	'?????', 00H, '?', 00H
$SG206933 DB	'?????', 00H, '?', 00H
$SG206934 DB	'?????', 00H, '?', 00H
$SG206935 DB	'?????', 00H, '?', 00H
$SG206936 DB	'?????', 00H, '?', 00H
$SG206937 DB	'?????', 00H, '?', 00H
$SG206938 DB	'?????', 00H, '?', 00H
$SG206939 DB	'?????', 00H, '?', 00H
$SG206940 DB	'?????', 00H, '?', 00H
$SG206941 DB	'?????', 00H, '?', 00H
$SG206942 DB	'?????', 00H, '?', 00H
$SG206943 DB	'?????', 00H, '?', 00H
$SG206944 DB	'?????', 00H, '?', 00H
$SG206945 DB	'?????', 00H, '?', 00H
$SG206946 DB	'?????', 00H, '?', 00H
$SG206947 DB	'?????', 00H, '?', 00H
$SG206948 DB	'?????', 00H, '?', 00H
$SG206949 DB	'?????', 00H, '?', 00H
$SG206950 DB	'?????', 00H, '?', 00H
$SG206951 DB	'?????', 00H, '?', 00H
$SG206952 DB	'?????', 00H, '?', 00H
$SG206953 DB	'?????', 00H, '?', 00H
$SG206954 DB	'?????', 00H, '?', 00H
$SG206955 DB	'?????', 00H, '?', 00H
$SG206956 DB	'?????', 00H, '?', 00H
$SG206957 DB	'?????', 00H, '?', 00H
$SG206958 DB	'?????', 00H, '?', 00H
$SG206959 DB	'?????', 00H, '?', 00H
$SG206960 DB	'?????', 00H, '?', 00H
$SG206961 DB	'?????', 00H, '?', 00H
$SG206962 DB	'?????', 00H, '?', 00H
$SG206963 DB	'?????', 00H, '?', 00H
$SG206964 DB	'?????', 00H, '?', 00H
$SG206965 DB	'?????', 00H, '?', 00H
$SG206966 DB	'?????', 00H, '?', 00H
$SG206967 DB	'?????', 00H, '?', 00H
$SG206968 DB	'?????', 00H, '?', 00H
$SG206969 DB	'?????', 00H, '?', 00H
$SG206970 DB	'?????', 00H, '?', 00H
$SG206971 DB	'?????', 00H, '?', 00H
$SG206972 DB	'?????', 00H, '?', 00H
$SG206973 DB	'?????', 00H, '?', 00H
$SG206974 DB	'?????', 00H, '?', 00H
$SG206975 DB	'?????', 00H, '?', 00H
$SG206976 DB	'?????', 00H, '?', 00H
$SG206977 DB	'?????', 00H, '?', 00H
$SG206978 DB	'?????', 00H, '?', 00H
$SG206979 DB	'?????', 00H, '?', 00H
$SG206980 DB	'?????', 00H, '?', 00H
$SG206981 DB	'?????', 00H, '?', 00H
$SG206982 DB	'?????', 00H, '?', 00H
$SG206983 DB	'?????', 00H, '?', 00H
$SG206984 DB	'?????', 00H, '?', 00H
$SG206985 DB	'?????', 00H, '?', 00H
$SG206986 DB	'?????', 00H, '?', 00H
$SG206987 DB	'?????', 00H, '?', 00H
$SG206988 DB	'?????', 00H, '?', 00H
$SG206989 DB	'?????', 00H, '?', 00H
$SG206990 DB	'?????', 00H, '?', 00H
$SG206991 DB	'?????', 00H, '?', 00H
$SG206992 DB	'AHIK', 00H, 'add_distinct_halfword_immediate', 00H
	ORG $+3
$SG206993 DB	'AGHIK', 00H, 'add_distinct_long_halfword_immediate', 00H
	ORG $+5
$SG206994 DB	'ALHSIK', 00H, 'add_logical_distinct_signed_halfword_imme'
	DB	'diate', 00H
	ORG $+2
$SG206995 DB	'AGLHSIK', 00H, 'add_logical_distinct_long_signed_halfwor'
	DB	'd_immediate', 00H
	ORG $+4
$SG206996 DB	'?????', 00H, '?', 00H
$SG206997 DB	'?????', 00H, '?', 00H
$SG206998 DB	'?????', 00H, '?', 00H
$SG206999 DB	'?????', 00H, '?', 00H
$SG207000 DB	'?????', 00H, '?', 00H
$SG207001 DB	'?????', 00H, '?', 00H
$SG207002 DB	'?????', 00H, '?', 00H
$SG207003 DB	'?????', 00H, '?', 00H
$SG207004 DB	'CGRB', 00H, 'compare_and_branch_long_register', 00H
	ORG $+2
$SG207005 DB	'CLGRB', 00H, 'compare_logical_and_branch_long_register', 00H
	ORG $+1
$SG207006 DB	'?????', 00H, '?', 00H
$SG207007 DB	'?????', 00H, '?', 00H
$SG207008 DB	'?????', 00H, '?', 00H
$SG207009 DB	'?????', 00H, '?', 00H
$SG207010 DB	'?????', 00H, '?', 00H
$SG207011 DB	'?????', 00H, '?', 00H
$SG207012 DB	'?????', 00H, '?', 00H
$SG207013 DB	'?????', 00H, '?', 00H
$SG207014 DB	'?????', 00H, '?', 00H
$SG207015 DB	'?????', 00H, '?', 00H
$SG207016 DB	'?????', 00H, '?', 00H
$SG207017 DB	'?????', 00H, '?', 00H
$SG207018 DB	'?????', 00H, '?', 00H
$SG207019 DB	'?????', 00H, '?', 00H
$SG207020 DB	'?????', 00H, '?', 00H
$SG207021 DB	'?????', 00H, '?', 00H
$SG207022 DB	'CRB', 00H, 'compare_and_branch_register', 00H
$SG207023 DB	'CLRB', 00H, 'compare_logical_and_branch_register', 00H
	ORG $+7
$SG207024 DB	'?????', 00H, '?', 00H
$SG207025 DB	'?????', 00H, '?', 00H
$SG207026 DB	'?????', 00H, '?', 00H
$SG207027 DB	'?????', 00H, '?', 00H
$SG207028 DB	'CGIB', 00H, 'compare_immediate_and_branch_long', 00H
	ORG $+1
$SG207029 DB	'CLGIB', 00H, 'compare_logical_immediate_and_branch_long', 00H
$SG207030 DB	'CIB', 00H, 'compare_immediate_and_branch', 00H
	ORG $+7
$SG207031 DB	'CLIB', 00H, 'compare_logical_immediate_and_branch', 00H
	ORG $+6
$SG207544 DB	'?????', 00H, '?', 00H
$SG207545 DB	'?????', 00H, '?', 00H
$SG207546 DB	'?????', 00H, '?', 00H
$SG207547 DB	'?????', 00H, '?', 00H
$SG207548 DB	'LDEB', 00H, 'load_lengthened_bfp_short_to_long', 00H
	ORG $+1
$SG207549 DB	'LXDB', 00H, 'load_lengthened_bfp_long_to_ext', 00H
	ORG $+3
$SG207550 DB	'LXEB', 00H, 'load_lengthened_bfp_short_to_ext', 00H
	ORG $+2
$SG207551 DB	'MXDB', 00H, 'multiply_bfp_long_to_ext', 00H
	ORG $+2
$SG207552 DB	'KEB', 00H, 'compare_and_signal_bfp_short', 00H
	ORG $+7
$SG207553 DB	'CEB', 00H, 'compare_bfp_short', 00H
	ORG $+2
$SG207554 DB	'AEB', 00H, 'add_bfp_short', 00H
	ORG $+6
$SG207555 DB	'SEB', 00H, 'subtract_bfp_short', 00H
	ORG $+1
$SG207556 DB	'MDEB', 00H, 'multiply_bfp_short_to_long', 00H
$SG207557 DB	'DEB', 00H, 'divide_bfp_short', 00H
	ORG $+3
$SG207558 DB	'MAEB', 00H, 'multiply_add_bfp_short', 00H
	ORG $+4
$SG207559 DB	'MSEB', 00H, 'multiply_subtract_bfp_short', 00H
	ORG $+7
$SG207560 DB	'TCEB', 00H, 'test_data_class_bfp_short', 00H
	ORG $+1
$SG207561 DB	'TCDB', 00H, 'test_data_class_bfp_long', 00H
	ORG $+2
$SG207562 DB	'TCXB', 00H, 'test_data_class_bfp_ext', 00H
	ORG $+3
$SG207563 DB	'?????', 00H, '?', 00H
$SG207564 DB	'SQEB', 00H, 'squareroot_bfp_short', 00H
	ORG $+6
$SG207565 DB	'SQDB', 00H, 'squareroot_bfp_long', 00H
	ORG $+7
$SG207566 DB	'?????', 00H, '?', 00H
$SG207567 DB	'MEEB', 00H, 'multiply_bfp_short', 00H
$SG207568 DB	'KDB', 00H, 'compare_and_signal_bfp_long', 00H
$SG207569 DB	'CDB', 00H, 'compare_bfp_long', 00H
	ORG $+3
$SG207570 DB	'ADB', 00H, 'add_bfp_long', 00H
	ORG $+7
$SG207571 DB	'SDB', 00H, 'subtract_bfp_long', 00H
	ORG $+2
$SG207572 DB	'MDB', 00H, 'multiply_bfp_long', 00H
	ORG $+2
$SG207573 DB	'DDB', 00H, 'divide_bfp_long', 00H
	ORG $+4
$SG207574 DB	'MADB', 00H, 'multiply_add_bfp_long', 00H
	ORG $+5
$SG207575 DB	'MSDB', 00H, 'multiply_subtract_bfp_long', 00H
$SG207576 DB	'?????', 00H, '?', 00H
$SG207577 DB	'?????', 00H, '?', 00H
$SG207578 DB	'?????', 00H, '?', 00H
$SG207579 DB	'?????', 00H, '?', 00H
$SG207580 DB	'LDE', 00H, 'load_lengthened_float_short_to_long', 00H
$SG207581 DB	'LXD', 00H, 'load_lengthened_float_long_to_ext', 00H
	ORG $+2
$SG207582 DB	'LXE', 00H, 'load_lengthened_float_short_to_ext', 00H
	ORG $+1
$SG207583 DB	'?????', 00H, '?', 00H
$SG207584 DB	'?????', 00H, '?', 00H
$SG207585 DB	'?????', 00H, '?', 00H
$SG207586 DB	'?????', 00H, '?', 00H
$SG207587 DB	'?????', 00H, '?', 00H
$SG207588 DB	'?????', 00H, '?', 00H
$SG207589 DB	'?????', 00H, '?', 00H
$SG207590 DB	'MAE', 00H, 'multiply_add_float_short', 00H
	ORG $+3
$SG207591 DB	'MSE', 00H, 'multiply_subtract_float_short', 00H
	ORG $+6
$SG207592 DB	'?????', 00H, '?', 00H
$SG207593 DB	'?????', 00H, '?', 00H
$SG207594 DB	'?????', 00H, '?', 00H
$SG207595 DB	'?????', 00H, '?', 00H
$SG207596 DB	'SQE', 00H, 'squareroot_float_short', 00H
	ORG $+5
$SG207597 DB	'SQD', 00H, 'squareroot_float_long', 00H
	ORG $+6
$SG207598 DB	'?????', 00H, '?', 00H
$SG207599 DB	'MEE', 00H, 'multiply_float_short', 00H
	ORG $+7
$SG207600 DB	'MAYL', 00H, 'multiply_add_unnormal_float_long_to_ext_low'
	DB	00H
	ORG $+7
$SG207601 DB	'MYL', 00H, 'multiply_unnormal_float_long_to_ext_low', 00H
	ORG $+4
$SG207602 DB	'MAY', 00H, 'multiply_add_unnormal_float_long_to_ext', 00H
	ORG $+4
$SG207603 DB	'MY', 00H, 'multiply_unnormal_float_long_to_ext', 00H
	ORG $+1
$SG207604 DB	'MAYH', 00H, 'multiply_add_unnormal_float_long_to_ext_hig'
	DB	'h', 00H
	ORG $+6
$SG207605 DB	'MYH', 00H, 'multiply_unnormal_float_long_to_ext_high', 00H
	ORG $+3
$SG207606 DB	'MAD', 00H, 'multiply_add_float_long', 00H
	ORG $+4
$SG207607 DB	'MSD', 00H, 'multiply_subtract_float_long', 00H
	ORG $+7
$SG207608 DB	'SLDT', 00H, 'shift_coefficient_left_dfp_long', 00H
	ORG $+3
$SG207609 DB	'SRDT', 00H, 'shift_coefficient_right_dfp_long', 00H
	ORG $+2
$SG207610 DB	'?????', 00H, '?', 00H
$SG207611 DB	'?????', 00H, '?', 00H
$SG207612 DB	'?????', 00H, '?', 00H
$SG207613 DB	'?????', 00H, '?', 00H
$SG207614 DB	'?????', 00H, '?', 00H
$SG207615 DB	'?????', 00H, '?', 00H
$SG207616 DB	'SLXT', 00H, 'shift_coefficient_left_dfp_ext', 00H
	ORG $+4
$SG207617 DB	'SRXT', 00H, 'shift_coefficient_right_dfp_ext', 00H
	ORG $+3
$SG207618 DB	'?????', 00H, '?', 00H
$SG207619 DB	'?????', 00H, '?', 00H
$SG207620 DB	'?????', 00H, '?', 00H
$SG207621 DB	'?????', 00H, '?', 00H
$SG207622 DB	'?????', 00H, '?', 00H
$SG207623 DB	'?????', 00H, '?', 00H
$SG207624 DB	'TDCET', 00H, 'test_data_class_dfp_short', 00H
$SG207625 DB	'TDGET', 00H, 'test_data_group_dfp_short', 00H
$SG207626 DB	'?????', 00H, '?', 00H
$SG207627 DB	'?????', 00H, '?', 00H
$SG207628 DB	'TDCDT', 00H, 'test_data_class_dfp_long', 00H
	ORG $+1
$SG207629 DB	'TDGDT', 00H, 'test_data_group_dfp_long', 00H
	ORG $+1
$SG207630 DB	'?????', 00H, '?', 00H
$SG207631 DB	'?????', 00H, '?', 00H
$SG207632 DB	'TDCXT', 00H, 'test_data_class_dfp_ext', 00H
	ORG $+2
$SG207633 DB	'TDGXT', 00H, 'test_data_group_dfp_ext', 00H
	ORG $+2
$SG207634 DB	'?????', 00H, '?', 00H
$SG207635 DB	'?????', 00H, '?', 00H
$SG207636 DB	'?????', 00H, '?', 00H
$SG207637 DB	'?????', 00H, '?', 00H
$SG207638 DB	'?????', 00H, '?', 00H
$SG207639 DB	'?????', 00H, '?', 00H
$SG207640 DB	'?????', 00H, '?', 00H
$SG207641 DB	'?????', 00H, '?', 00H
$SG207642 DB	'?????', 00H, '?', 00H
$SG207643 DB	'?????', 00H, '?', 00H
$SG207644 DB	'LEY', 00H, 'load_float_short_y', 00H
	ORG $+1
$SG207645 DB	'LDY', 00H, 'load_float_long_y', 00H
	ORG $+2
$SG207646 DB	'STEY', 00H, 'store_float_short_y', 00H
	ORG $+7
$SG207647 DB	'STDY', 00H, 'store_float_long_y', 00H
$SG207648 DB	'?????', 00H, '?', 00H
$SG207649 DB	'?????', 00H, '?', 00H
$SG207650 DB	'?????', 00H, '?', 00H
$SG207651 DB	'?????', 00H, '?', 00H
$SG207652 DB	'?????', 00H, '?', 00H
$SG207653 DB	'?????', 00H, '?', 00H
$SG207654 DB	'?????', 00H, '?', 00H
$SG207655 DB	'?????', 00H, '?', 00H
$SG207656 DB	'?????', 00H, '?', 00H
$SG207657 DB	'?????', 00H, '?', 00H
$SG207658 DB	'?????', 00H, '?', 00H
$SG207659 DB	'?????', 00H, '?', 00H
$SG207660 DB	'?????', 00H, '?', 00H
$SG207661 DB	'?????', 00H, '?', 00H
$SG207662 DB	'?????', 00H, '?', 00H
$SG207663 DB	'?????', 00H, '?', 00H
$SG207664 DB	'?????', 00H, '?', 00H
$SG207665 DB	'?????', 00H, '?', 00H
$SG207666 DB	'?????', 00H, '?', 00H
$SG207667 DB	'?????', 00H, '?', 00H
$SG207668 DB	'?????', 00H, '?', 00H
$SG207669 DB	'?????', 00H, '?', 00H
$SG207670 DB	'?????', 00H, '?', 00H
$SG207671 DB	'?????', 00H, '?', 00H
$SG207672 DB	'?????', 00H, '?', 00H
$SG199480 DB	'?????', 00H, '?', 00H
$SG207673 DB	'?????', 00H, '?', 00H
$SG199481 DB	00H, 'execute_opcode_01xx', 00H
	ORG $+3
$SG207674 DB	'?????', 00H, '?', 00H
$SG199482 DB	'?????', 00H, '?', 00H
$SG207675 DB	'?????', 00H, '?', 00H
$SG199483 DB	'?????', 00H, '?', 00H
$SG207676 DB	'?????', 00H, '?', 00H
$SG199484 DB	'SPM', 00H, 'set_program_mask', 00H
	ORG $+3
$SG207677 DB	'?????', 00H, '?', 00H
$SG199485 DB	'BALR', 00H, 'branch_and_link_register', 00H
	ORG $+2
$SG207678 DB	'?????', 00H, '?', 00H
$SG199486 DB	'BCTR', 00H, 'branch_on_count_register', 00H
	ORG $+2
$SG207679 DB	'?????', 00H, '?', 00H
$SG199487 DB	'BCR', 00H, 'branch_on_condition_register', 00H
	ORG $+7
$SG207680 DB	'?????', 00H, '?', 00H
$SG199488 DB	'SSK', 00H, 'set_storage_key', 00H
	ORG $+4
$SG207681 DB	'?????', 00H, '?', 00H
$SG199489 DB	'ISK', 00H, 'insert_storage_key', 00H
	ORG $+1
$SG207682 DB	'?????', 00H, '?', 00H
$SG199490 DB	'SVC', 00H, 'supervisor_call', 00H
	ORG $+4
$SG207683 DB	'?????', 00H, '?', 00H
$SG199491 DB	'BSM', 00H, 'branch_and_set_mode', 00H
$SG207684 DB	'?????', 00H, '?', 00H
$SG199492 DB	'BASSM', 00H, 'branch_and_save_and_set_mode', 00H
	ORG $+5
$SG207685 DB	'?????', 00H, '?', 00H
$SG199493 DB	'BASR', 00H, 'branch_and_save_register', 00H
	ORG $+2
$SG207686 DB	'?????', 00H, '?', 00H
$SG199494 DB	'MVCL', 00H, 'move_long', 00H
	ORG $+1
$SG207687 DB	'?????', 00H, '?', 00H
$SG199495 DB	'CLCL', 00H, 'compare_logical_character_long', 00H
	ORG $+4
$SG207688 DB	'?????', 00H, '?', 00H
$SG199496 DB	'LPR', 00H, 'load_positive_register', 00H
	ORG $+5
$SG207689 DB	'?????', 00H, '?', 00H
$SG199497 DB	'LNR', 00H, 'load_negative_register', 00H
	ORG $+5
$SG207690 DB	'?????', 00H, '?', 00H
$SG199498 DB	'LTR', 00H, 'load_and_test_register', 00H
	ORG $+5
$SG207691 DB	'?????', 00H, '?', 00H
$SG199499 DB	'LCR', 00H, 'load_complement_register', 00H
	ORG $+3
$SG207692 DB	'?????', 00H, '?', 00H
$SG199500 DB	'NR', 00H, 'and_register', 00H
$SG207693 DB	'?????', 00H, '?', 00H
$SG199501 DB	'CLR', 00H, 'compare_logical_register', 00H
	ORG $+3
$SG207694 DB	'?????', 00H, '?', 00H
$SG199502 DB	'OR', 00H, 'or_register', 00H
	ORG $+1
$SG207695 DB	'?????', 00H, '?', 00H
$SG199503 DB	'XR', 00H, 'exclusive_or_register', 00H
	ORG $+7
$SG207696 DB	'?????', 00H, '?', 00H
$SG199504 DB	'LR', 00H, 'load_register', 00H
	ORG $+7
$SG207697 DB	'?????', 00H, '?', 00H
$SG199505 DB	'CR', 00H, 'compare_register', 00H
	ORG $+4
$SG207698 DB	'?????', 00H, '?', 00H
$SG199506 DB	'AR', 00H, 'add_register', 00H
$SG207699 DB	'?????', 00H, '?', 00H
$SG199507 DB	'SR', 00H, 'subtract_register', 00H
	ORG $+3
$SG207700 DB	'?????', 00H, '?', 00H
$SG199508 DB	'MR', 00H, 'multiply_register', 00H
	ORG $+3
$SG207701 DB	'?????', 00H, '?', 00H
$SG199509 DB	'DR', 00H, 'divide_register', 00H
	ORG $+5
$SG207702 DB	'?????', 00H, '?', 00H
$SG199510 DB	'ALR', 00H, 'add_logical_register', 00H
	ORG $+7
$SG207703 DB	'?????', 00H, '?', 00H
$SG199511 DB	'SLR', 00H, 'subtract_logical_register', 00H
	ORG $+2
$SG207704 DB	'?????', 00H, '?', 00H
$SG199512 DB	'LPDR', 00H, 'load_positive_float_long_reg', 00H
	ORG $+6
$SG207705 DB	'?????', 00H, '?', 00H
$SG199513 DB	'LNDR', 00H, 'load_negative_float_long_reg', 00H
	ORG $+6
$SG207706 DB	'?????', 00H, '?', 00H
$SG199514 DB	'LTDR', 00H, 'load_and_test_float_long_reg', 00H
	ORG $+6
$SG207707 DB	'?????', 00H, '?', 00H
$SG199515 DB	'LCDR', 00H, 'load_complement_float_long_reg', 00H
	ORG $+4
$SG207708 DB	'?????', 00H, '?', 00H
$SG199516 DB	'HDR', 00H, 'halve_float_long_reg', 00H
	ORG $+7
$SG207709 DB	'?????', 00H, '?', 00H
$SG199517 DB	'LDXR', 00H, 'load_rounded_float_long_reg', 00H
	ORG $+7
$SG207710 DB	'?????', 00H, '?', 00H
$SG199518 DB	'MXR', 00H, 'multiply_float_ext_reg', 00H
	ORG $+5
$SG207711 DB	'?????', 00H, '?', 00H
$SG199519 DB	'MXDR', 00H, 'multiply_float_long_to_ext_reg', 00H
	ORG $+4
$SG207712 DB	'CZDT', 00H, 'convert_dfp_long_to_zoned', 00H
	ORG $+1
$SG199520 DB	'LDR', 00H, 'load_float_long_reg', 00H
$SG207713 DB	'CZXT', 00H, 'convert_dfp_ext_to_zoned', 00H
	ORG $+2
$SG199521 DB	'CDR', 00H, 'compare_float_long_reg', 00H
	ORG $+5
$SG207714 DB	'CDZT', 00H, 'convert_zoned_to_dfp_long', 00H
	ORG $+1
$SG199522 DB	'ADR', 00H, 'add_float_long_reg', 00H
	ORG $+1
$SG207715 DB	'CXZT', 00H, 'convert_zoned_to_dfp_ext', 00H
	ORG $+2
$SG199523 DB	'SDR', 00H, 'subtract_float_long_reg', 00H
	ORG $+4
$SG207716 DB	'CPDT', 00H, 'convert_dfp_long_to_packed', 00H
$SG199524 DB	'MDR', 00H, 'multiply_float_long_reg', 00H
	ORG $+4
$SG207717 DB	'CPXT', 00H, 'convert_dfp_ext_to_packed', 00H
	ORG $+1
$SG199525 DB	'DDR', 00H, 'divide_float_long_reg', 00H
	ORG $+6
$SG207718 DB	'CDPT', 00H, 'convert_packed_to_dfp_long', 00H
$SG199526 DB	'AWR', 00H, 'add_unnormal_float_long_reg', 00H
$SG207719 DB	'CXPT', 00H, 'convert_packed_to_dfp_ext', 00H
	ORG $+1
$SG199527 DB	'SWR', 00H, 'subtract_unnormal_float_long_reg', 00H
	ORG $+3
$SG207720 DB	'?????', 00H, '?', 00H
$SG199528 DB	'LPER', 00H, 'load_positive_float_short_reg', 00H
	ORG $+5
$SG207721 DB	'?????', 00H, '?', 00H
$SG199529 DB	'LNER', 00H, 'load_negative_float_short_reg', 00H
	ORG $+5
$SG207722 DB	'?????', 00H, '?', 00H
$SG199530 DB	'LTER', 00H, 'load_and_test_float_short_reg', 00H
	ORG $+5
$SG207723 DB	'?????', 00H, '?', 00H
$SG199531 DB	'LCER', 00H, 'load_complement_float_short_reg', 00H
	ORG $+3
$SG207724 DB	'?????', 00H, '?', 00H
$SG199532 DB	'HER', 00H, 'halve_float_short_reg', 00H
	ORG $+6
$SG207725 DB	'?????', 00H, '?', 00H
$SG199533 DB	'LEDR', 00H, 'load_rounded_float_short_reg', 00H
	ORG $+6
$SG207726 DB	'?????', 00H, '?', 00H
$SG199534 DB	'AXR', 00H, 'add_float_ext_reg', 00H
	ORG $+2
$SG207727 DB	'?????', 00H, '?', 00H
$SG199535 DB	'SXR', 00H, 'subtract_float_ext_reg', 00H
	ORG $+5
$SG207728 DB	'?????', 00H, '?', 00H
$SG199536 DB	'LER', 00H, 'load_float_short_reg', 00H
	ORG $+7
$SG207729 DB	'?????', 00H, '?', 00H
$SG199537 DB	'CER', 00H, 'compare_float_short_reg', 00H
	ORG $+4
$SG207730 DB	'?????', 00H, '?', 00H
$SG199538 DB	'AER', 00H, 'add_float_short_reg', 00H
$SG207731 DB	'?????', 00H, '?', 00H
$SG199539 DB	'SER', 00H, 'subtract_float_short_reg', 00H
	ORG $+3
$SG207732 DB	'?????', 00H, '?', 00H
$SG199540 DB	'MDER', 00H, 'multiply_float_short_to_long_reg', 00H
	ORG $+2
$SG207733 DB	'?????', 00H, '?', 00H
$SG199541 DB	'DER', 00H, 'divide_float_short_reg', 00H
	ORG $+5
$SG207734 DB	'?????', 00H, '?', 00H
$SG199542 DB	'AUR', 00H, 'add_unnormal_float_short_reg', 00H
	ORG $+7
$SG207735 DB	'?????', 00H, '?', 00H
$SG199543 DB	'SUR', 00H, 'subtract_unnormal_float_short_reg', 00H
	ORG $+2
$SG207736 DB	'?????', 00H, '?', 00H
$SG199544 DB	'STH', 00H, 'store_halfword', 00H
	ORG $+5
$SG207737 DB	'?????', 00H, '?', 00H
$SG199545 DB	'LA', 00H, 'load_address', 00H
$SG207738 DB	'?????', 00H, '?', 00H
$SG199546 DB	'STC', 00H, 'store_character', 00H
	ORG $+4
$SG207739 DB	'?????', 00H, '?', 00H
$SG199547 DB	'IC', 00H, 'insert_character', 00H
	ORG $+4
$SG207740 DB	'?????', 00H, '?', 00H
$SG199548 DB	'EX', 00H, 'execute', 00H
	ORG $+5
$SG207741 DB	'?????', 00H, '?', 00H
$SG199549 DB	'BAL', 00H, 'branch_and_link', 00H
	ORG $+4
$SG207742 DB	'?????', 00H, '?', 00H
$SG199550 DB	'BCT', 00H, 'branch_on_count', 00H
	ORG $+4
$SG207743 DB	'?????', 00H, '?', 00H
$SG199551 DB	'BC', 00H, 'branch_on_condition', 00H
	ORG $+1
$SG207744 DB	'?????', 00H, '?', 00H
$SG199552 DB	'LH', 00H, 'load_halfword', 00H
	ORG $+7
$SG207745 DB	'?????', 00H, '?', 00H
$SG199553 DB	'CH', 00H, 'compare_halfword', 00H
	ORG $+4
$SG207746 DB	'?????', 00H, '?', 00H
$SG199554 DB	'AH', 00H, 'add_halfword', 00H
$SG207747 DB	'?????', 00H, '?', 00H
$SG199555 DB	'SH', 00H, 'subtract_halfword', 00H
	ORG $+3
$SG207748 DB	'?????', 00H, '?', 00H
$SG199556 DB	'MH', 00H, 'multiply_halfword', 00H
	ORG $+3
$SG207749 DB	'?????', 00H, '?', 00H
$SG199557 DB	'BAS', 00H, 'branch_and_save', 00H
	ORG $+4
$SG207750 DB	'?????', 00H, '?', 00H
$SG199558 DB	'CVD', 00H, 'convert_to_decimal', 00H
	ORG $+1
$SG207751 DB	'?????', 00H, '?', 00H
$SG199559 DB	'CVB', 00H, 'convert_to_binary', 00H
	ORG $+2
$SG207752 DB	'?????', 00H, '?', 00H
$SG199560 DB	'ST', 00H, 'store', 00H
	ORG $+7
$SG207753 DB	'?????', 00H, '?', 00H
$SG199561 DB	'LAE', 00H, 'load_address_extended', 00H
	ORG $+6
$SG207754 DB	'?????', 00H, '?', 00H
$SG199562 DB	'?????', 00H, '?', 00H
$SG207755 DB	'?????', 00H, '?', 00H
$SG199563 DB	'?????', 00H, '?', 00H
$SG207756 DB	'?????', 00H, '?', 00H
$SG199564 DB	'N', 00H, 'and', 00H
	ORG $+2
$SG207757 DB	'?????', 00H, '?', 00H
$SG199565 DB	'CL', 00H, 'compare_logical', 00H
	ORG $+5
$SG207758 DB	'?????', 00H, '?', 00H
$SG199566 DB	'O', 00H, 'or', 00H
	ORG $+3
$SG207759 DB	'?????', 00H, '?', 00H
$SG199567 DB	'X', 00H, 'exclusive_or', 00H
	ORG $+1
$SG207760 DB	'?????', 00H, '?', 00H
$SG199568 DB	'L', 00H, 'load', 00H
	ORG $+1
$SG207761 DB	'?????', 00H, '?', 00H
$SG199569 DB	'C', 00H, 'compare', 00H
	ORG $+6
$SG207762 DB	'?????', 00H, '?', 00H
$SG199570 DB	'A', 00H, 'add', 00H
	ORG $+2
$SG207763 DB	'?????', 00H, '?', 00H
$SG199571 DB	'S', 00H, 'subtract', 00H
	ORG $+5
$SG207764 DB	'?????', 00H, '?', 00H
$SG199572 DB	'M', 00H, 'multiply', 00H
	ORG $+5
$SG207765 DB	'?????', 00H, '?', 00H
$SG199573 DB	'D', 00H, 'divide', 00H
	ORG $+7
$SG207766 DB	'?????', 00H, '?', 00H
$SG199574 DB	'AL', 00H, 'add_logical', 00H
	ORG $+1
$SG207767 DB	'?????', 00H, '?', 00H
$SG199575 DB	'SL', 00H, 'subtract_logical', 00H
	ORG $+4
$SG207768 DB	'?????', 00H, '?', 00H
$SG199576 DB	'STD', 00H, 'store_float_long', 00H
	ORG $+3
$SG207769 DB	'?????', 00H, '?', 00H
$SG199577 DB	'?????', 00H, '?', 00H
$SG207770 DB	'?????', 00H, '?', 00H
$SG199578 DB	'?????', 00H, '?', 00H
$SG207771 DB	'?????', 00H, '?', 00H
$SG199579 DB	'?????', 00H, '?', 00H
$SG207772 DB	'?????', 00H, '?', 00H
$SG199580 DB	'?????', 00H, '?', 00H
$SG207773 DB	'?????', 00H, '?', 00H
$SG199581 DB	'?????', 00H, '?', 00H
$SG207774 DB	'?????', 00H, '?', 00H
$SG199582 DB	'?????', 00H, '?', 00H
$SG207775 DB	'?????', 00H, '?', 00H
$SG199583 DB	'MXD', 00H, 'multiply_float_long_to_ext', 00H
	ORG $+1
$SG207776 DB	'?????', 00H, '?', 00H
$SG199584 DB	'LD', 00H, 'load_float_long', 00H
	ORG $+5
$SG207777 DB	'?????', 00H, '?', 00H
$SG199585 DB	'CD', 00H, 'compare_float_long', 00H
	ORG $+2
$SG207778 DB	'?????', 00H, '?', 00H
$SG199586 DB	'AD', 00H, 'add_float_long', 00H
	ORG $+6
$SG207779 DB	'?????', 00H, '?', 00H
$SG199587 DB	'SD', 00H, 'subtract_float_long', 00H
	ORG $+1
$SG207780 DB	'?????', 00H, '?', 00H
$SG199588 DB	'MD', 00H, 'multiply_float_long', 00H
	ORG $+1
$SG207781 DB	'?????', 00H, '?', 00H
$SG199589 DB	'DD', 00H, 'divide_float_long', 00H
	ORG $+3
$SG207782 DB	'?????', 00H, '?', 00H
$SG199590 DB	'AW', 00H, 'add_unnormal_float_long', 00H
	ORG $+5
$SG207783 DB	'?????', 00H, '?', 00H
$SG199591 DB	'SW', 00H, 'subtract_unnormal_float_long', 00H
$SG207784 DB	'?????', 00H, '?', 00H
$SG199592 DB	'STE', 00H, 'store_float_short', 00H
	ORG $+2
$SG207785 DB	'?????', 00H, '?', 00H
$SG199593 DB	'MS', 00H, 'multiply_single', 00H
	ORG $+5
$SG207786 DB	'?????', 00H, '?', 00H
$SG199594 DB	'?????', 00H, '?', 00H
$SG207787 DB	'?????', 00H, '?', 00H
$SG199595 DB	'?????', 00H, '?', 00H
$SG207788 DB	'?????', 00H, '?', 00H
$SG199596 DB	'?????', 00H, '?', 00H
$SG207789 DB	'?????', 00H, '?', 00H
$SG199597 DB	'TCPIP', 00H, 'tcpip', 00H
	ORG $+4
$SG207790 DB	'?????', 00H, '?', 00H
$SG199598 DB	'?????', 00H, '?', 00H
$SG207791 DB	'?????', 00H, '?', 00H
$SG199599 DB	'?????', 00H, '?', 00H
$SG207792 DB	'?????', 00H, '?', 00H
$SG199600 DB	'LE', 00H, 'load_float_short', 00H
	ORG $+4
$SG207793 DB	'?????', 00H, '?', 00H
$SG199601 DB	'CE', 00H, 'compare_float_short', 00H
	ORG $+1
$SG207794 DB	'?????', 00H, '?', 00H
$SG199602 DB	'AE', 00H, 'add_float_short', 00H
	ORG $+5
$SG207795 DB	'?????', 00H, '?', 00H
$SG199603 DB	'SE', 00H, 'subtract_float_short', 00H
$SG207796 DB	'?????', 00H, '?', 00H
$SG199604 DB	'MDE', 00H, 'multiply_float_short_to_long', 00H
	ORG $+7
$SG207797 DB	'?????', 00H, '?', 00H
$SG199605 DB	'DE', 00H, 'divide_float_short', 00H
	ORG $+2
$SG207798 DB	'?????', 00H, '?', 00H
$SG199606 DB	'AU', 00H, 'add_unnormal_float_short', 00H
	ORG $+4
$SG207799 DB	'?????', 00H, '?', 00H
$SG199607 DB	'SU', 00H, 'subtract_unnormal_float_short', 00H
	ORG $+7
$SG199608 DB	'SSM', 00H, 'set_system_mask', 00H
	ORG $+4
$SG199609 DB	'?????', 00H, '?', 00H
$SG199610 DB	'LPSW', 00H, 'load_program_status_word', 00H
	ORG $+2
$SG199611 DB	'DIAG', 00H, 'diagnose', 00H
	ORG $+2
$SG199612 DB	'BRXH', 00H, 'branch_relative_on_index_high', 00H
	ORG $+5
$SG199613 DB	'BRXLE', 00H, 'branch_relative_on_index_low_or_equal', 00H
	ORG $+4
$SG199614 DB	'BXH', 00H, 'branch_on_index_high', 00H
	ORG $+7
$SG199615 DB	'BXLE', 00H, 'branch_on_index_low_or_equal', 00H
	ORG $+6
$SG199616 DB	'SRL', 00H, 'shift_right_single_logical', 00H
	ORG $+1
$SG199617 DB	'SLL', 00H, 'shift_left_single_logical', 00H
	ORG $+2
$SG199618 DB	'SRA', 00H, 'shift_right_single', 00H
	ORG $+1
$SG199619 DB	'SLA', 00H, 'shift_left_single', 00H
	ORG $+2
$SG199620 DB	'SRDL', 00H, 'shift_right_double_logical', 00H
$SG199621 DB	'SLDL', 00H, 'shift_left_double_logical', 00H
	ORG $+1
$SG199622 DB	'SRDA', 00H, 'shift_right_double', 00H
$SG199623 DB	'SLDA', 00H, 'shift_left_double', 00H
	ORG $+1
$SG199624 DB	'STM', 00H, 'store_multiple', 00H
	ORG $+5
$SG199625 DB	'TM', 00H, 'test_under_mask', 00H
	ORG $+5
$SG199626 DB	'MVI', 00H, 'move_immediate', 00H
	ORG $+5
$SG199627 DB	'TS', 00H, 'test_and_set', 00H
$SG199628 DB	'NI', 00H, 'and_immediate', 00H
	ORG $+7
$SG199629 DB	'CLI', 00H, 'compare_logical_immediate', 00H
	ORG $+2
$SG199630 DB	'OI', 00H, 'or_immediate', 00H
$SG199631 DB	'XI', 00H, 'exclusive_or_immediate', 00H
	ORG $+6
$SG199632 DB	'LM', 00H, 'load_multiple', 00H
	ORG $+7
$SG199633 DB	'TRACE', 00H, 'trace', 00H
	ORG $+4
$SG199634 DB	'LAM', 00H, 'load_access_multiple', 00H
	ORG $+7
$SG199635 DB	'STAM', 00H, 'store_access_multiple', 00H
	ORG $+5
$SG199636 DB	'SIO', 00H, 'start_io', 00H
	ORG $+3
$SG199637 DB	'TIO', 00H, 'test_io', 00H
	ORG $+4
$SG199638 DB	'HIO', 00H, 'halt_io', 00H
	ORG $+4
$SG199639 DB	'TCH', 00H, 'test_channel', 00H
	ORG $+7
$SG199640 DB	'?????', 00H, '?', 00H
$SG199641 DB	'?????', 00H, '?', 00H
$SG199642 DB	'?????', 00H, '?', 00H
$SG199643 DB	'?????', 00H, '?', 00H
$SG199644 DB	00H, 'execute_opcode_a4xx', 00H
	ORG $+3
$SG199645 DB	00H, 'execute_opcode_a5_x', 00H
	ORG $+3
$SG199646 DB	00H, 'execute_opcode_a6xx', 00H
	ORG $+3
$SG199647 DB	00H, 'execute_opcode_a7_x', 00H
	ORG $+3
$SG199648 DB	'MVCLE', 00H, 'move_long_extended', 00H
	ORG $+7
$SG199649 DB	'CLCLE', 00H, 'compare_logical_long_extended', 00H
	ORG $+4
$SG199650 DB	'?????', 00H, '?', 00H
$SG199651 DB	'?????', 00H, '?', 00H
$SG199652 DB	'STNSM', 00H, 'store_then_and_system_mask', 00H
	ORG $+7
$SG199653 DB	'STOSM', 00H, 'store_then_or_system_mask', 00H
$SG199654 DB	'SIGP', 00H, 'signal_processor', 00H
	ORG $+2
$SG199655 DB	'MC', 00H, 'monitor_call', 00H
$SG199656 DB	'?????', 00H, '?', 00H
$SG199657 DB	'LRA', 00H, 'load_real_address', 00H
	ORG $+2
$SG199658 DB	00H, 'execute_opcode_b2xx', 00H
	ORG $+3
$SG199659 DB	00H, 'execute_opcode_b3xx', 00H
	ORG $+3
$SG199660 DB	'?????', 00H, '?', 00H
$SG199661 DB	'?????', 00H, '?', 00H
$SG199662 DB	'STCTL', 00H, 'store_control', 00H
	ORG $+4
$SG199663 DB	'LCTL', 00H, 'load_control', 00H
	ORG $+6
$SG199664 DB	'?????', 00H, '?', 00H
$SG199665 DB	00H, 'execute_opcode_b9xx', 00H
	ORG $+3
$SG199666 DB	'CS', 00H, 'compare_and_swap', 00H
	ORG $+4
$SG199667 DB	'CDS', 00H, 'compare_double_and_swap', 00H
	ORG $+4
$SG199668 DB	'?????', 00H, '?', 00H
$SG199669 DB	'CLM', 00H, 'compare_logical_characters_under_mask', 00H
	ORG $+6
$SG199670 DB	'STCM', 00H, 'store_characters_under_mask', 00H
	ORG $+7
$SG199671 DB	'ICM', 00H, 'insert_characters_under_mask', 00H
	ORG $+7
$SG199672 DB	00H, 'execute_opcode_c0_x', 00H
	ORG $+3
$SG199673 DB	'?????', 00H, '?', 00H
$SG199674 DB	00H, 'execute_opcode_c2_x', 00H
	ORG $+3
$SG199675 DB	'?????', 00H, '?', 00H
$SG199676 DB	00H, 'execute_opcode_c4_x', 00H
	ORG $+3
$SG199677 DB	'BPRP', 00H, 'branch_prediction_relative_preload', 00H
$SG199678 DB	00H, 'execute_opcode_c6_x', 00H
	ORG $+3
$SG199679 DB	'BPP', 00H, 'branch_prediction_preload', 00H
	ORG $+2
$SG199680 DB	00H, 'execute_opcode_c8_x', 00H
	ORG $+3
$SG199681 DB	'?????', 00H, '?', 00H
$SG199682 DB	'?????', 00H, '?', 00H
$SG199683 DB	'?????', 00H, '?', 00H
$SG199684 DB	00H, 'execute_opcode_cc_x', 00H
	ORG $+3
$SG199685 DB	'?????', 00H, '?', 00H
$SG199686 DB	'?????', 00H, '?', 00H
$SG199687 DB	'?????', 00H, '?', 00H
$SG199688 DB	'TRTR', 00H, 'translate_and_test_reverse', 00H
$SG199689 DB	'MVN', 00H, 'move_numerics', 00H
	ORG $+6
$SG199690 DB	'MVC', 00H, 'move_character', 00H
	ORG $+5
$SG199691 DB	'MVZ', 00H, 'move_zones', 00H
	ORG $+1
$SG199692 DB	'NC', 00H, 'and_character', 00H
	ORG $+7
$SG199693 DB	'CLC', 00H, 'compare_logical_character', 00H
	ORG $+2
$SG199694 DB	'OC', 00H, 'or_character', 00H
$SG199695 DB	'XC', 00H, 'exclusive_or_character', 00H
	ORG $+6
$SG199696 DB	'?????', 00H, '?', 00H
$SG199697 DB	'MVCK', 00H, 'move_with_key', 00H
	ORG $+5
$SG199698 DB	'MVCP', 00H, 'move_to_primary', 00H
	ORG $+3
$SG199699 DB	'MVCS', 00H, 'move_to_secondary', 00H
	ORG $+1
$SG199700 DB	'TR', 00H, 'translate', 00H
	ORG $+3
$SG199701 DB	'TRT', 00H, 'translate_and_test', 00H
	ORG $+1
$SG199702 DB	'ED', 00H, 'edit_x_edit_and_mark', 00H
$SG199703 DB	'EDMK', 00H, 'edit_x_edit_and_mark', 00H
	ORG $+6
$SG199704 DB	'?????', 00H, '?', 00H
$SG199705 DB	'PKU', 00H, 'pack_unicode', 00H
	ORG $+7
$SG199706 DB	'UNPKU', 00H, 'unpack_unicode', 00H
	ORG $+3
$SG199707 DB	00H, 'execute_opcode_e3________xx', 00H
	ORG $+3
$SG199708 DB	00H, 'execute_opcode_e4xx', 00H
	ORG $+3
$SG199709 DB	00H, 'execute_opcode_e5xx', 00H
	ORG $+3
$SG199710 DB	00H, 'execute_opcode_e6xx', 00H
	ORG $+3
$SG199711 DB	00H, 'execute_opcode_e7________xx', 00H
	ORG $+3
$SG199712 DB	'MVCIN', 00H, 'move_inverse', 00H
	ORG $+5
$SG199713 DB	'PKA', 00H, 'pack_ascii', 00H
	ORG $+1
$SG199714 DB	'UNPKA', 00H, 'unpack_ascii', 00H
	ORG $+5
$SG199715 DB	00H, 'execute_opcode_eb________xx', 00H
	ORG $+3
$SG199716 DB	00H, 'execute_opcode_ec________xx', 00H
	ORG $+3
$SG199717 DB	00H, 'execute_opcode_ed________xx', 00H
	ORG $+3
$SG199718 DB	'PLO', 00H, 'perform_locked_operation', 00H
	ORG $+3
$SG199719 DB	'LMD', 00H, 'load_multiple_disjoint', 00H
	ORG $+5
$SG199720 DB	'SRP', 00H, 'shift_and_round_decimal', 00H
	ORG $+4
$SG199721 DB	'MVO', 00H, 'move_with_offset', 00H
	ORG $+3
$SG199722 DB	'PACK', 00H, 'pack', 00H
	ORG $+6
$SG199723 DB	'UNPK', 00H, 'unpack', 00H
	ORG $+4
$SG199724 DB	'?????', 00H, '?', 00H
$SG199725 DB	'?????', 00H, '?', 00H
$SG199726 DB	'?????', 00H, '?', 00H
$SG199727 DB	'?????', 00H, '?', 00H
$SG199728 DB	'ZAP', 00H, 'zero_and_add', 00H
	ORG $+7
$SG199729 DB	'CP', 00H, 'compare_decimal', 00H
	ORG $+5
$SG199730 DB	'AP', 00H, 'add_decimal', 00H
	ORG $+1
$SG199731 DB	'SP', 00H, 'subtract_decimal', 00H
	ORG $+4
$SG199732 DB	'MP', 00H, 'multiply_decimal', 00H
	ORG $+4
$SG199733 DB	'DP', 00H, 'divide_decimal', 00H
	ORG $+6
$SG199734 DB	'?????', 00H, '?', 00H
$SG199735 DB	'?????', 00H, '?', 00H
$SG208312 DB	'?????', 00H, '?', 00H
$SG208313 DB	'?????', 00H, '?', 00H
$SG208314 DB	'?????', 00H, '?', 00H
$SG208315 DB	'?????', 00H, '?', 00H
$SG208316 DB	'?????', 00H, '?', 00H
$SG208317 DB	'?????', 00H, '?', 00H
$SG208318 DB	'?????', 00H, '?', 00H
$SG208319 DB	'?????', 00H, '?', 00H
$SG208320 DB	'?????', 00H, '?', 00H
$SG208321 DB	'?????', 00H, '?', 00H
$SG208322 DB	'?????', 00H, '?', 00H
$SG208323 DB	'?????', 00H, '?', 00H
$SG208324 DB	'?????', 00H, '?', 00H
$SG208325 DB	'?????', 00H, '?', 00H
$SG208326 DB	'?????', 00H, '?', 00H
$SG208327 DB	'?????', 00H, '?', 00H
$SG208328 DB	'?????', 00H, '?', 00H
$SG208329 DB	'?????', 00H, '?', 00H
$SG208330 DB	'?????', 00H, '?', 00H
$SG208331 DB	'?????', 00H, '?', 00H
$SG208332 DB	'?????', 00H, '?', 00H
$SG208333 DB	'?????', 00H, '?', 00H
$SG208334 DB	'?????', 00H, '?', 00H
$SG208335 DB	'?????', 00H, '?', 00H
$SG208336 DB	'?????', 00H, '?', 00H
$SG208337 DB	'?????', 00H, '?', 00H
$SG208338 DB	'?????', 00H, '?', 00H
$SG208339 DB	'?????', 00H, '?', 00H
$SG208340 DB	'?????', 00H, '?', 00H
$SG208341 DB	'?????', 00H, '?', 00H
$SG208342 DB	'?????', 00H, '?', 00H
$SG208343 DB	'?????', 00H, '?', 00H
$SG208344 DB	'?????', 00H, '?', 00H
$SG208345 DB	'?????', 00H, '?', 00H
$SG208346 DB	'?????', 00H, '?', 00H
$SG208347 DB	'?????', 00H, '?', 00H
$SG208348 DB	'?????', 00H, '?', 00H
$SG208349 DB	'?????', 00H, '?', 00H
$SG208350 DB	'?????', 00H, '?', 00H
$SG208351 DB	'?????', 00H, '?', 00H
$SG208352 DB	'?????', 00H, '?', 00H
$SG208353 DB	'?????', 00H, '?', 00H
$SG208354 DB	'?????', 00H, '?', 00H
$SG208355 DB	'?????', 00H, '?', 00H
$SG208356 DB	'?????', 00H, '?', 00H
$SG208357 DB	'?????', 00H, '?', 00H
$SG208358 DB	'?????', 00H, '?', 00H
$SG208359 DB	'?????', 00H, '?', 00H
$SG208360 DB	'?????', 00H, '?', 00H
$SG208361 DB	'?????', 00H, '?', 00H
$SG208362 DB	'?????', 00H, '?', 00H
$SG208363 DB	'?????', 00H, '?', 00H
$SG208364 DB	'?????', 00H, '?', 00H
$SG208365 DB	'?????', 00H, '?', 00H
$SG208366 DB	'?????', 00H, '?', 00H
$SG208367 DB	'?????', 00H, '?', 00H
$SG208368 DB	'?????', 00H, '?', 00H
$SG208369 DB	'?????', 00H, '?', 00H
$SG208370 DB	'?????', 00H, '?', 00H
$SG208371 DB	'?????', 00H, '?', 00H
$SG208372 DB	'?????', 00H, '?', 00H
$SG208373 DB	'?????', 00H, '?', 00H
$SG208374 DB	'?????', 00H, '?', 00H
$SG208375 DB	'?????', 00H, '?', 00H
$SG208376 DB	'?????', 00H, '?', 00H
$SG208377 DB	'?????', 00H, '?', 00H
$SG208378 DB	'?????', 00H, '?', 00H
$SG208379 DB	'?????', 00H, '?', 00H
$SG208380 DB	'?????', 00H, '?', 00H
$SG208381 DB	'?????', 00H, '?', 00H
$SG208382 DB	'?????', 00H, '?', 00H
$SG208383 DB	'?????', 00H, '?', 00H
$SG208384 DB	'?????', 00H, '?', 00H
$SG208385 DB	'?????', 00H, '?', 00H
$SG208386 DB	'?????', 00H, '?', 00H
$SG208387 DB	'?????', 00H, '?', 00H
$SG208388 DB	'?????', 00H, '?', 00H
$SG208389 DB	'?????', 00H, '?', 00H
$SG208390 DB	'?????', 00H, '?', 00H
$SG208391 DB	'?????', 00H, '?', 00H
$SG208392 DB	'?????', 00H, '?', 00H
$SG208393 DB	'?????', 00H, '?', 00H
$SG208394 DB	'?????', 00H, '?', 00H
$SG208395 DB	'?????', 00H, '?', 00H
$SG208396 DB	'?????', 00H, '?', 00H
$SG208397 DB	'?????', 00H, '?', 00H
$SG208398 DB	'?????', 00H, '?', 00H
$SG208399 DB	'?????', 00H, '?', 00H
$SG208400 DB	'?????', 00H, '?', 00H
$SG208401 DB	'?????', 00H, '?', 00H
$SG208402 DB	'?????', 00H, '?', 00H
$SG208403 DB	'?????', 00H, '?', 00H
$SG208404 DB	'?????', 00H, '?', 00H
$SG208405 DB	'?????', 00H, '?', 00H
$SG208406 DB	'?????', 00H, '?', 00H
$SG208407 DB	'?????', 00H, '?', 00H
$SG208408 DB	'?????', 00H, '?', 00H
$SG208409 DB	'?????', 00H, '?', 00H
$SG208410 DB	'?????', 00H, '?', 00H
$SG208411 DB	'?????', 00H, '?', 00H
$SG208412 DB	'?????', 00H, '?', 00H
$SG208413 DB	'?????', 00H, '?', 00H
$SG208414 DB	'?????', 00H, '?', 00H
$SG208415 DB	'?????', 00H, '?', 00H
$SG208416 DB	'?????', 00H, '?', 00H
$SG208417 DB	'?????', 00H, '?', 00H
$SG208418 DB	'?????', 00H, '?', 00H
$SG208419 DB	'?????', 00H, '?', 00H
$SG208420 DB	'?????', 00H, '?', 00H
$SG208421 DB	'?????', 00H, '?', 00H
$SG208422 DB	'?????', 00H, '?', 00H
$SG208423 DB	'?????', 00H, '?', 00H
$SG208424 DB	'?????', 00H, '?', 00H
$SG208425 DB	'?????', 00H, '?', 00H
$SG208426 DB	'?????', 00H, '?', 00H
$SG208427 DB	'?????', 00H, '?', 00H
$SG208428 DB	'?????', 00H, '?', 00H
$SG208429 DB	'?????', 00H, '?', 00H
$SG208430 DB	'?????', 00H, '?', 00H
$SG208431 DB	'?????', 00H, '?', 00H
$SG208432 DB	'?????', 00H, '?', 00H
$SG208433 DB	'?????', 00H, '?', 00H
$SG208434 DB	'?????', 00H, '?', 00H
$SG208435 DB	'?????', 00H, '?', 00H
$SG208436 DB	'?????', 00H, '?', 00H
$SG208437 DB	'?????', 00H, '?', 00H
$SG208438 DB	'?????', 00H, '?', 00H
$SG208439 DB	'?????', 00H, '?', 00H
$SG208440 DB	'?????', 00H, '?', 00H
$SG200248 DB	'?????', 00H, '?', 00H
$SG208441 DB	'?????', 00H, '?', 00H
$SG200249 DB	'PR', 00H, 'program_return', 00H
	ORG $+6
$SG208442 DB	'?????', 00H, '?', 00H
$SG200250 DB	'UPT', 00H, 'update_tree', 00H
$SG208443 DB	'?????', 00H, '?', 00H
$SG200251 DB	'?????', 00H, '?', 00H
$SG208444 DB	'?????', 00H, '?', 00H
$SG200252 DB	'PTFF', 00H, 'perform_timing_facility_function', 00H
	ORG $+2
$SG208445 DB	'?????', 00H, '?', 00H
$SG200253 DB	'?????', 00H, '?', 00H
$SG208446 DB	'?????', 00H, '?', 00H
$SG200254 DB	'?????', 00H, '?', 00H
$SG208447 DB	'?????', 00H, '?', 00H
$SG200255 DB	'SCKPF', 00H, 'set_clock_programmable_field', 00H
	ORG $+5
$SG208448 DB	'?????', 00H, '?', 00H
$SG200256 DB	'?????', 00H, '?', 00H
$SG208449 DB	'?????', 00H, '?', 00H
$SG200257 DB	'?????', 00H, '?', 00H
$SG208450 DB	'?????', 00H, '?', 00H
$SG200258 DB	'PFPO', 00H, 'perform_floating_point_operation', 00H
	ORG $+2
$SG208451 DB	'?????', 00H, '?', 00H
$SG200259 DB	'TAM', 00H, 'test_addressing_mode', 00H
	ORG $+7
$SG208452 DB	'?????', 00H, '?', 00H
$SG200260 DB	'SAM24', 00H, 'set_addressing_mode_24', 00H
	ORG $+3
$SG208453 DB	'?????', 00H, '?', 00H
$SG200261 DB	'SAM31', 00H, 'set_addressing_mode_31', 00H
	ORG $+3
$SG208454 DB	'?????', 00H, '?', 00H
$SG200262 DB	'SAM64', 00H, 'set_addressing_mode_64', 00H
	ORG $+3
$SG208455 DB	'?????', 00H, '?', 00H
$SG200263 DB	'?????', 00H, '?', 00H
$SG208456 DB	'?????', 00H, '?', 00H
$SG200264 DB	'?????', 00H, '?', 00H
$SG208457 DB	'?????', 00H, '?', 00H
$SG200265 DB	'?????', 00H, '?', 00H
$SG208458 DB	'?????', 00H, '?', 00H
$SG200266 DB	'?????', 00H, '?', 00H
$SG208459 DB	'?????', 00H, '?', 00H
$SG200267 DB	'?????', 00H, '?', 00H
$SG208460 DB	'?????', 00H, '?', 00H
$SG200268 DB	'?????', 00H, '?', 00H
$SG208461 DB	'?????', 00H, '?', 00H
$SG200269 DB	'?????', 00H, '?', 00H
$SG208462 DB	'?????', 00H, '?', 00H
$SG200270 DB	'?????', 00H, '?', 00H
$SG208463 DB	'?????', 00H, '?', 00H
$SG200271 DB	'?????', 00H, '?', 00H
$SG208464 DB	'?????', 00H, '?', 00H
$SG200272 DB	'?????', 00H, '?', 00H
$SG208465 DB	'?????', 00H, '?', 00H
$SG200273 DB	'?????', 00H, '?', 00H
$SG208466 DB	'?????', 00H, '?', 00H
$SG200274 DB	'?????', 00H, '?', 00H
$SG208467 DB	'?????', 00H, '?', 00H
$SG200275 DB	'?????', 00H, '?', 00H
$SG208468 DB	'?????', 00H, '?', 00H
$SG200276 DB	'?????', 00H, '?', 00H
$SG208469 DB	'?????', 00H, '?', 00H
$SG200277 DB	'?????', 00H, '?', 00H
$SG208470 DB	'?????', 00H, '?', 00H
$SG200278 DB	'?????', 00H, '?', 00H
$SG208471 DB	'?????', 00H, '?', 00H
$SG200279 DB	'?????', 00H, '?', 00H
$SG208472 DB	'?????', 00H, '?', 00H
$SG200280 DB	'?????', 00H, '?', 00H
$SG208473 DB	'?????', 00H, '?', 00H
$SG200281 DB	'?????', 00H, '?', 00H
$SG208474 DB	'?????', 00H, '?', 00H
$SG200282 DB	'?????', 00H, '?', 00H
$SG208475 DB	'?????', 00H, '?', 00H
$SG200283 DB	'?????', 00H, '?', 00H
$SG208476 DB	'?????', 00H, '?', 00H
$SG200284 DB	'?????', 00H, '?', 00H
$SG208477 DB	'?????', 00H, '?', 00H
$SG200285 DB	'?????', 00H, '?', 00H
$SG208478 DB	'?????', 00H, '?', 00H
$SG200286 DB	'?????', 00H, '?', 00H
$SG208479 DB	'?????', 00H, '?', 00H
$SG200287 DB	'?????', 00H, '?', 00H
$SG208480 DB	'?????', 00H, '?', 00H
$SG200288 DB	'?????', 00H, '?', 00H
