; Listing generated by Microsoft (R) Optimizing Compiler Version 19.34.31937.0 

include listing.inc

INCLUDELIB MSVCRTD
INCLUDELIB OLDNAMES

PUBLIC	maxrates_rpt_intvl
PUBLIC	curr_high_mips_rate
PUBLIC	curr_high_sios_rate
PUBLIC	prev_high_mips_rate
PUBLIC	prev_high_sios_rate
PUBLIC	curr_int_start_time
PUBLIC	prev_int_start_time
_BSS	SEGMENT
curr_high_mips_rate DD 01H DUP (?)
curr_high_sios_rate DD 01H DUP (?)
prev_high_mips_rate DD 01H DUP (?)
prev_high_sios_rate DD 01H DUP (?)
curr_int_start_time DQ 01H DUP (?)
prev_int_start_time DQ 01H DUP (?)
_BSS	ENDS
_DATA	SEGMENT
COMM	redraw_msgs:DWORD
COMM	redraw_cmd:DWORD
COMM	redraw_status:DWORD
_DATA	ENDS
_BSS	SEGMENT
$SG168319 DB	01H DUP (?)
_BSS	ENDS
_DATA	SEGMENT
maxrates_rpt_intvl DD 05a0H
$SG168223 DB	' 0', 00H
	ORG $+1
$SG168224 DB	' 1', 00H
	ORG $+1
$SG168225 DB	' 2', 00H
	ORG $+1
$SG168226 DB	' 3', 00H
	ORG $+1
$SG168227 DB	' 4', 00H
	ORG $+1
$SG168228 DB	' 5', 00H
	ORG $+1
$SG168229 DB	' 6', 00H
	ORG $+1
$SG168230 DB	' 7', 00H
	ORG $+1
$SG168231 DB	' 8', 00H
	ORG $+1
$SG168232 DB	' 9', 00H
	ORG $+1
$SG168233 DB	'10', 00H
	ORG $+1
$SG168234 DB	'11', 00H
	ORG $+1
$SG168235 DB	'12', 00H
	ORG $+1
$SG168236 DB	'13', 00H
	ORG $+1
$SG168237 DB	'14', 00H
	ORG $+1
$SG168238 DB	'15', 00H
	ORG $+1
$SG168240 DB	'0', 00H
	ORG $+2
$SG168241 DB	'1', 00H
	ORG $+2
$SG168242 DB	'2', 00H
	ORG $+2
$SG168243 DB	'3', 00H
	ORG $+2
$SG168244 DB	'4', 00H
	ORG $+2
$SG168245 DB	'5', 00H
	ORG $+2
$SG168246 DB	'6', 00H
	ORG $+2
$SG168247 DB	'7', 00H
	ORG $+2
$SG168248 DB	'8', 00H
	ORG $+2
$SG168249 DB	'9', 00H
	ORG $+2
$SG168250 DB	'A', 00H
	ORG $+2
$SG168251 DB	'B', 00H
	ORG $+2
$SG168252 DB	'C', 00H
	ORG $+2
$SG168253 DB	'D', 00H
	ORG $+2
$SG168254 DB	'E', 00H
	ORG $+2
$SG168255 DB	'F', 00H
	ORG $+6
$SG168297 DB	'defined CPUs (device server only mode).', 00H
$SG168294 DB	'All commands consist of one character keypresses. The va'
	DB	'rious commands are', 00H
	ORG $+5
$SG168295 DB	'highlighted onscreen by bright white versus the gray of '
	DB	'other lettering.', 00H
	ORG $+7
$SG168296 DB	'Disabled buttons, commands and areas are not shown when '
	DB	'operating without', 00H
	ORG $+2
$SG168298 DB	' ', 00H
	ORG $+2
$SG168299 DB	'Press the escape key to terminate the control panel and '
	DB	'go to command mode.', 00H
$SG168300 DB	' ', 00H
	ORG $+2
$SG168301 DB	'Display Controls:   G - General purpose regs    C - Cont'
	DB	'rol regs', 00H
	ORG $+7
$SG168303 DB	'                    I - Display main memory at ADDRESS', 00H
	ORG $+1
$SG168302 DB	'                    A - Access registers        F - Floa'
	DB	'ting Point regs', 00H
$SG168304 DB	'CPU controls:       L - IPL                     S - Star'
	DB	't CPU', 00H
	ORG $+2
$SG168305 DB	'                    E - External interrupt      P - Stop'
	DB	' CPU', 00H
	ORG $+3
$SG168307 DB	'Storage update:     R - Enter ADDRESS to be updated', 00H
	ORG $+4
$SG168306 DB	'                    W - Exit Hercules           T - Rest'
	DB	'art interrupt', 00H
	ORG $+2
$SG168308 DB	'                    D - Enter DATA to be updated at ADDR'
	DB	'ESS', 00H
$SG168310 DB	' ', 00H
	ORG $+2
$SG168309 DB	'                    O - place DATA value at ADDRESS', 00H
	ORG $+4
$SG168311 DB	'Peripherals:        N - enter a new name for the device '
	DB	'file assignment', 00H
$SG168312 DB	'                    U - send an I/O attention interrupt', 00H
$SG168313 DB	' ', 00H
	ORG $+6
$SG168316 DB	'model number means the attached file is open to the devi'
	DB	'ce.', 00H
$SG168317 DB	' ', 00H
	ORG $+10
$SG168314 DB	'In the display of the first 26 devices, a green device l'
	DB	'etter means the device', 00H
	ORG $+1
$SG168315 DB	'is online, a highlighted device address means the device'
	DB	' is busy, and a green', 00H
	ORG $+2
$SG168318 DB	'               Press Escape to return to control panel o'
	DB	'perations', 00H
_DATA	ENDS
CONST	SEGMENT
CKD_ENDTRK DB	0ffH
	DB	0ffH
	DB	0ffH
	DB	0ffH
	DB	0ffH
	DB	0ffH
	DB	0ffH
	DB	0ffH
CONST	ENDS
PUBLIC	__local_stdio_printf_options
PUBLIC	__local_stdio_scanf_options
PUBLIC	_vsnprintf_s_l
PUBLIC	_vsnprintf_s
PUBLIC	_vsscanf_l
PUBLIC	sscanf
PUBLIC	fetch_fw_noswap
PUBLIC	store_fw_noswap
PUBLIC	fetch_dw_noswap
PUBLIC	set_console_title
PUBLIC	update_maxrates_hwm
PUBLIC	set_panel_colors
PUBLIC	the_real_panel_display
PUBLIC	__real@bff0000000000000
PUBLIC	__real@c000000000000000
EXTRN	__report_rangecheckfailure:PROC
EXTRN	__imp_isdigit:PROC
EXTRN	__imp_isspace:PROC
EXTRN	__imp_isprint:PROC
EXTRN	__imp_isgraph:PROC
EXTRN	__imp_toupper:PROC
EXTRN	__imp__errno:PROC
EXTRN	strcmp:PROC
EXTRN	strcpy:PROC
EXTRN	strlen:PROC
EXTRN	__imp__strnicmp:PROC
EXTRN	__imp_strncpy:PROC
EXTRN	__imp_strdup:PROC
EXTRN	__imp_IsDebuggerPresent:PROC
EXTRN	__imp_OutputDebugStringA:PROC
EXTRN	__imp_Sleep:PROC
EXTRN	__imp_GetCurrentThreadId:PROC
EXTRN	__imp_free:PROC
EXTRN	__imp_malloc:PROC
EXTRN	__imp__aligned_free:PROC
EXTRN	_byteswap_ulong:PROC
EXTRN	_byteswap_uint64:PROC
EXTRN	__imp_getch:PROC
EXTRN	__imp_kbhit:PROC
EXTRN	__imp___acrt_iob_func:PROC
EXTRN	__imp_fflush:PROC
EXTRN	__imp_fputc:PROC
EXTRN	__imp_setvbuf:PROC
EXTRN	__imp___stdio_common_vsnprintf_s:PROC
EXTRN	__imp___stdio_common_vsscanf:PROC
EXTRN	__imp__localtime64:PROC
EXTRN	__imp__time64:PROC
EXTRN	__imp_fthread_self:PROC
EXTRN	__imp_hthread_obtain_lock:PROC
EXTRN	__imp_hthread_release_lock:PROC
EXTRN	__imp_hthread_get_thread_prio:PROC
EXTRN	__imp_hthread_set_thread_name:PROC
EXTRN	__imp_get_symbol:PROC
EXTRN	__imp_set_symbol:PROC
EXTRN	__imp_strlcpy:PROC
EXTRN	__imp_strlcat:PROC
EXTRN	__imp_idx_snprintf:PROC
EXTRN	__imp_ptyp2short:PROC
EXTRN	__imp_w32_strerror:PROC
EXTRN	__imp_usleep:PROC
EXTRN	__imp_w32_fwrite:PROC
EXTRN	__imp_w32_snprintf:PROC
EXTRN	__imp_w32_fprintf:PROC
EXTRN	__imp_w32_set_thread_name:PROC
EXTRN	__imp_log_read:PROC
EXTRN	__imp_log_wakeup:PROC
EXTRN	__imp_hdl_addshut:PROC
EXTRN	copy_psw:PROC
EXTRN	str_lparname:PROC
EXTRN	str_sysname:PROC
EXTRN	str_sysplex:PROC
EXTRN	str_systype:PROC
EXTRN	copy_regs:PROC
EXTRN	__imp_fwritemsg:PROC
EXTRN	__imp_logmsg:PROC
EXTRN	get_arch_name:PROC
EXTRN	history_init:PROC
EXTRN	history_next:PROC
EXTRN	history_prev:PROC
EXTRN	history_show:PROC
EXTRN	tab_pressed:PROC
EXTRN	set_screen_color:PROC
EXTRN	set_screen_pos:PROC
EXTRN	clear_screen:PROC
EXTRN	erase_to_eol:PROC
EXTRN	set_or_reset_console_mode:PROC
EXTRN	translate_keystroke:PROC
EXTRN	console_beep:PROC
EXTRN	get_console_dim:PROC
EXTRN	get_cursor_pos:PROC
EXTRN	set_console_cursor_shape:PROC
EXTRN	w32_set_console_title:PROC
EXTRN	__GSHandlerCheck:PROC
EXTRN	__chkstk:PROC
EXTRN	__security_check_cookie:PROC
EXTRN	memcmp:PROC
EXTRN	__imp_sysblk:BYTE
EXTRN	__imp_panel_command:QWORD
EXTRN	history_requested:DWORD
EXTRN	historyCmdLine:QWORD
EXTRN	__ImageBase:BYTE
EXTRN	__security_cookie:QWORD
EXTRN	_fltused:DWORD
_DATA	SEGMENT
COMM	?_OptionsStorage@?1??__local_stdio_printf_options@@9@9:QWORD							; `__local_stdio_printf_options'::`2'::_OptionsStorage
COMM	?_OptionsStorage@?1??__local_stdio_scanf_options@@9@9:QWORD							; `__local_stdio_scanf_options'::`2'::_OptionsStorage
_DATA	ENDS
_BSS	SEGMENT
	ALIGN	4

NPDup	DD	01H DUP (?)
NPDinit	DD	01H DUP (?)
NPhelpup DD	01H DUP (?)
NPhelpdown DD	01H DUP (?)
NPregdisp DD	01H DUP (?)
NPcmd	DD	01H DUP (?)
NPdataentry DD	01H DUP (?)
NPdevsel DD	01H DUP (?)
NPpending DB	01H DUP (?)
	ALIGN	4

NPentered DB	0100H DUP (?)
NPprompt1 DB	028H DUP (?)
NPoldprompt1 DB	028H DUP (?)
NPprompt2 DB	028H DUP (?)
NPoldprompt2 DB	028H DUP (?)
NPsel2	DB	01H DUP (?)
	ALIGN	4

NPdevice DB	01H DUP (?)
	ALIGN	4

NPasgn	DD	01H DUP (?)
NPlastdev DD	01H DUP (?)
NPcpugraph_ncpu DD 01H DUP (?)
NPcpunum_valid DD 01H DUP (?)
NPcpupct_valid DD 01H DUP (?)
NPpsw_valid DD	01H DUP (?)
NPpswstate_valid DD 01H DUP (?)
NPregs_valid DD	01H DUP (?)
NPaddr_valid DD	01H DUP (?)
NPdata_valid DD	01H DUP (?)
NPmips_valid DD	01H DUP (?)
NPsios_valid DD	01H DUP (?)
NPdevices_valid DD 01H DUP (?)
NPcpugraph_valid DD 01H DUP (?)
NPpswmode DD	01H DUP (?)
NPpswzhost DD	01H DUP (?)
NPpsw	DB	010H DUP (?)
NPpswstate DB	010H DUP (?)
NPregmode DD	01H DUP (?)
NPregzhost DD	01H DUP (?)
NPregs64 DQ	010H DUP (?)
NPregs	DD	010H DUP (?)
NPaddress DD	01H DUP (?)
NPdata	DD	01H DUP (?)
NPmips	DD	01H DUP (?)
NPsios	DD	01H DUP (?)
NPcpugraph DD	01H DUP (?)
NPcpugraphpct DD 040H DUP (?)
NPonline DD	0fdH DUP (?)
NPdevnum DW	0fdH DUP (?)
	ALIGN	4

NPbusy	DD	0fdH DUP (?)
NPdevtype DW	0fdH DUP (?)
	ALIGN	4

NPopen	DD	0fdH DUP (?)
NPdevnam DB	07e80H DUP (?)
NPcurrow DW	01H DUP (?)
	ALIGN	4

NPcurcol DW	01H DUP (?)
	ALIGN	4

NPcolorSwitch DD 01H DUP (?)
NPcolorFore DW	01H DUP (?)
	ALIGN	4

NPcolorBack DW	01H DUP (?)
	ALIGN	4

NPdatalen DD	01H DUP (?)
cons_rows DD	01H DUP (?)
cons_cols DD	01H DUP (?)
cur_cons_row DW	01H DUP (?)
	ALIGN	4

cur_cons_col DW	01H DUP (?)
	ALIGN	8

cons_term DQ	01H DUP (?)
cmdline	DB	0101H DUP (?)
	ALIGN	4

cmdlen	DD	01H DUP (?)
cmdoff	DD	01H DUP (?)
saved_cmdline DB 0101H DUP (?)
	ALIGN	4

saved_cmdlen DD	01H DUP (?)
saved_cmdoff DD	01H DUP (?)
saved_cons_row DW 01H DUP (?)
	ALIGN	4

saved_cons_col DW 01H DUP (?)
	ALIGN	4

cmdcols	DD	01H DUP (?)
cmdcol	DD	01H DUP (?)
confp	DQ	01H DUP (?)
msgbuf	DQ	01H DUP (?)
topmsg	DQ	01H DUP (?)
curmsg	DQ	01H DUP (?)
wrapped	DD	01H DUP (?)
numkept	DD	01H DUP (?)
npquiet	DD	01H DUP (?)
	ALIGN	8

lmsbuf	DQ	01H DUP (?)
lmsndx	DD	01H DUP (?)
copyregs DB	016080H DUP (?)
copysieregs DB	016080H DUP (?)
$SG168600 DB	01H DUP (?)
	ALIGN	4

$SG168601 DB	01H DUP (?)
	ALIGN	4

?obfr@?1??format_int@@9@9 DB 020H DUP (?)		; `format_int'::`2'::obfr
$SG168910 DB	01H DUP (?)
	ALIGN	4

$SG169394 DB	01H DUP (?)
	ALIGN	4

$SG169399 DB	01H DUP (?)
	ALIGN	4

$SG169623 DB	01H DUP (?)
	ALIGN	4

$SG169626 DB	01H DUP (?)
	ALIGN	4

$SG169629 DB	01H DUP (?)
	ALIGN	4

$SG169631 DB	01H DUP (?)
_BSS	ENDS
;	COMDAT pdata
pdata	SEGMENT
$pdata$_vsnprintf_s_l DD imagerel $LN5
	DD	imagerel $LN5+127
	DD	imagerel $unwind$_vsnprintf_s_l
pdata	ENDS
;	COMDAT pdata
pdata	SEGMENT
$pdata$_vsnprintf_s DD imagerel $LN3
	DD	imagerel $LN3+73
	DD	imagerel $unwind$_vsnprintf_s
pdata	ENDS
;	COMDAT pdata
pdata	SEGMENT
$pdata$_vsscanf_l DD imagerel $LN3
	DD	imagerel $LN3+80
	DD	imagerel $unwind$_vsscanf_l
pdata	ENDS
;	COMDAT pdata
pdata	SEGMENT
$pdata$sscanf DD imagerel $LN3
	DD	imagerel $LN3+79
	DD	imagerel $unwind$sscanf
pdata	ENDS
pdata	SEGMENT
$pdata$localtime DD imagerel localtime
	DD	imagerel localtime+25
	DD	imagerel $unwind$localtime
$pdata$time DD	imagerel time
	DD	imagerel time+25
	DD	imagerel $unwind$time
$pdata$DebuggerTrace DD imagerel DebuggerTrace
	DD	imagerel DebuggerTrace+247
	DD	imagerel $unwind$DebuggerTrace
pdata	ENDS
;	COMDAT pdata
pdata	SEGMENT
$pdata$fetch_fw_noswap DD imagerel $LN3
	DD	imagerel $LN3+27
	DD	imagerel $unwind$fetch_fw_noswap
pdata	ENDS
;	COMDAT pdata
pdata	SEGMENT
$pdata$fetch_dw_noswap DD imagerel $LN3
	DD	imagerel $LN3+30
	DD	imagerel $unwind$fetch_dw_noswap
pdata	ENDS
pdata	SEGMENT
$pdata$set_console_title DD imagerel $LN20
	DD	imagerel $LN20+1070
	DD	imagerel $unwind$set_console_title
$pdata$update_maxrates_hwm DD imagerel $LN6
	DD	imagerel $LN6+221
	DD	imagerel $unwind$update_maxrates_hwm
$pdata$set_panel_colors DD imagerel $LN9
	DD	imagerel $LN9+1261
	DD	imagerel $unwind$set_panel_colors
$pdata$the_real_panel_display DD imagerel $LN568
	DD	imagerel $LN568+19679
	DD	imagerel $unwind$the_real_panel_display
$pdata$beep DD	imagerel beep
	DD	imagerel beep+21
	DD	imagerel $unwind$beep
$pdata$oldest_msg DD imagerel oldest_msg
	DD	imagerel oldest_msg+49
	DD	imagerel $unwind$oldest_msg
$pdata$visible_lines DD imagerel visible_lines
	DD	imagerel visible_lines+16
	DD	imagerel $unwind$visible_lines
$pdata$is_currline_visible DD imagerel is_currline_visible
	DD	imagerel is_currline_visible+55
	DD	imagerel $unwind$is_currline_visible
$pdata$lines_remaining DD imagerel lines_remaining
	DD	imagerel lines_remaining+41
	DD	imagerel $unwind$lines_remaining
$pdata$scroll_up_lines DD imagerel scroll_up_lines
	DD	imagerel scroll_up_lines+77
	DD	imagerel $unwind$scroll_up_lines
$pdata$scroll_down_lines DD imagerel scroll_down_lines
	DD	imagerel scroll_down_lines+90
	DD	imagerel $unwind$scroll_down_lines
$pdata$page_up DD imagerel page_up
	DD	imagerel page_up+33
	DD	imagerel $unwind$page_up
$pdata$page_down DD imagerel page_down
	DD	imagerel page_down+33
	DD	imagerel $unwind$page_down
$pdata$scroll_to_top_line DD imagerel scroll_to_top_line
	DD	imagerel scroll_to_top_line+21
	DD	imagerel $unwind$scroll_to_top_line
$pdata$scroll_to_bottom_line DD imagerel scroll_to_bottom_line
	DD	imagerel scroll_to_bottom_line+35
	DD	imagerel $unwind$scroll_to_bottom_line
$pdata$scroll_to_bottom_screen DD imagerel scroll_to_bottom_screen
	DD	imagerel scroll_to_bottom_screen+19
	DD	imagerel $unwind$scroll_to_bottom_screen
$pdata$do_panel_command DD imagerel do_panel_command
	DD	imagerel do_panel_command+230
	DD	imagerel $unwind$do_panel_command
$pdata$do_prev_history DD imagerel do_prev_history
	DD	imagerel do_prev_history+191
	DD	imagerel $unwind$do_prev_history
$pdata$do_next_history DD imagerel do_next_history
	DD	imagerel do_next_history+191
	DD	imagerel $unwind$do_next_history
$pdata$clr_screen DD imagerel clr_screen
	DD	imagerel clr_screen+21
	DD	imagerel $unwind$clr_screen
$pdata$get_dim DD imagerel get_dim
	DD	imagerel get_dim+89
	DD	imagerel $unwind$get_dim
$pdata$set_color DD imagerel set_color
	DD	imagerel set_color+42
	DD	imagerel $unwind$set_color
$pdata$set_pos DD imagerel set_pos
	DD	imagerel set_pos+210
	DD	imagerel $unwind$set_pos
$pdata$is_cursor_on_cmdline DD imagerel is_cursor_on_cmdline
	DD	imagerel is_cursor_on_cmdline+180
	DD	imagerel $unwind$is_cursor_on_cmdline
$pdata$cursor_cmdline_home DD imagerel cursor_cmdline_home
	DD	imagerel cursor_cmdline_home+130
	DD	imagerel $unwind$cursor_cmdline_home
$pdata$cursor_cmdline_end DD imagerel cursor_cmdline_end
	DD	imagerel cursor_cmdline_end+145
	DD	imagerel $unwind$cursor_cmdline_end
$pdata$save_command_line DD imagerel save_command_line
	DD	imagerel save_command_line+85
	DD	imagerel $unwind$save_command_line
$pdata$restore_command_line DD imagerel restore_command_line
	DD	imagerel restore_command_line+85
	DD	imagerel $unwind$restore_command_line
$pdata$draw_text DD imagerel draw_text
	DD	imagerel draw_text+254
	DD	imagerel $unwind$draw_text
$pdata$write_text DD imagerel write_text
	DD	imagerel write_text+172
	DD	imagerel $unwind$write_text
$pdata$draw_char DD imagerel draw_char
	DD	imagerel draw_char+103
	DD	imagerel $unwind$draw_char
$pdata$draw_fw DD imagerel draw_fw
	DD	imagerel draw_fw+79
	DD	imagerel $unwind$draw_fw
$pdata$draw_dw DD imagerel draw_dw
	DD	imagerel draw_dw+80
	DD	imagerel $unwind$draw_dw
$pdata$fill_text DD imagerel fill_text
	DD	imagerel fill_text+207
	DD	imagerel $unwind$fill_text
$pdata$draw_button DD imagerel draw_button
	DD	imagerel draw_button+105
	DD	imagerel $unwind$draw_button
$pdata$NP_init DD imagerel NP_init
	DD	imagerel NP_init+71
	DD	imagerel $unwind$NP_init
$pdata$NP_screen_redraw DD imagerel NP_screen_redraw
	DD	imagerel NP_screen_redraw+2874
	DD	imagerel $unwind$NP_screen_redraw
$pdata$format_int DD imagerel format_int
	DD	imagerel format_int+400
	DD	imagerel $unwind$format_int
$pdata$NP_update DD imagerel NP_update
	DD	imagerel NP_update+9311
	DD	imagerel $unwind$NP_update
$pdata$panel_cleanup DD imagerel panel_cleanup
	DD	imagerel panel_cleanup+360
	DD	imagerel $unwind$panel_cleanup
$pdata$panel_copy_regs DD imagerel panel_copy_regs
	DD	imagerel panel_copy_regs+454
	DD	imagerel $unwind$panel_copy_regs
$pdata$msgcolor DD imagerel msgcolor
	DD	imagerel msgcolor+228
	DD	imagerel $unwind$msgcolor
$pdata$fg_msgcolor DD imagerel fg_msgcolor
	DD	imagerel fg_msgcolor+24
	DD	imagerel $unwind$fg_msgcolor
$pdata$bg_msgcolor DD imagerel bg_msgcolor
	DD	imagerel bg_msgcolor+27
	DD	imagerel $unwind$bg_msgcolor
$pdata$msg_sev DD imagerel msg_sev
	DD	imagerel msg_sev+99
	DD	imagerel $unwind$msg_sev
pdata	ENDS
;	COMDAT __real@c000000000000000
CONST	SEGMENT
__real@c000000000000000 DQ 0c000000000000000r	; -2
CONST	ENDS
;	COMDAT __real@bff0000000000000
CONST	SEGMENT
__real@bff0000000000000 DQ 0bff0000000000000r	; -1
CONST	ENDS
_DATA	SEGMENT
cmdins	DB	01H
	ORG $+1
NPhelppaint DD	01H
cursor_on_cmdline DD 01H
	ORG $+4
NPregnum DQ	FLAT:$SG168223
	DQ	FLAT:$SG168224
	DQ	FLAT:$SG168225
	DQ	FLAT:$SG168226
	DQ	FLAT:$SG168227
	DQ	FLAT:$SG168228
	DQ	FLAT:$SG168229
	DQ	FLAT:$SG168230
	DQ	FLAT:$SG168231
	DQ	FLAT:$SG168232
	DQ	FLAT:$SG168233
	DQ	FLAT:$SG168234
	DQ	FLAT:$SG168235
	DQ	FLAT:$SG168236
	DQ	FLAT:$SG168237
	DQ	FLAT:$SG168238
NPregnum64 DQ	FLAT:$SG168240
	DQ	FLAT:$SG168241
	DQ	FLAT:$SG168242
	DQ	FLAT:$SG168243
	DQ	FLAT:$SG168244
	DQ	FLAT:$SG168245
	DQ	FLAT:$SG168246
	DQ	FLAT:$SG168247
	DQ	FLAT:$SG168248
	DQ	FLAT:$SG168249
	DQ	FLAT:$SG168250
	DQ	FLAT:$SG168251
	DQ	FLAT:$SG168252
	DQ	FLAT:$SG168253
	DQ	FLAT:$SG168254
	DQ	FLAT:$SG168255
NPhelp	DQ	FLAT:$SG168294
	DQ	FLAT:$SG168295
	DQ	FLAT:$SG168296
	DQ	FLAT:$SG168297
	DQ	FLAT:$SG168298
	DQ	FLAT:$SG168299
	DQ	FLAT:$SG168300
	DQ	FLAT:$SG168301
	DQ	FLAT:$SG168302
	DQ	FLAT:$SG168303
	DQ	FLAT:$SG168304
	DQ	FLAT:$SG168305
	DQ	FLAT:$SG168306
	DQ	FLAT:$SG168307
	DQ	FLAT:$SG168308
	DQ	FLAT:$SG168309
	DQ	FLAT:$SG168310
	DQ	FLAT:$SG168311
	DQ	FLAT:$SG168312
	DQ	FLAT:$SG168313
	DQ	FLAT:$SG168314
	DQ	FLAT:$SG168315
	DQ	FLAT:$SG168316
	DQ	FLAT:$SG168317
	DQ	FLAT:$SG168318
	DQ	FLAT:$SG168319
lmsnum	DD	0ffffffffH
lmscnt	DD	0ffffffffH
lmsmax	DD	080000H
keybfd	DD	0ffffffffH
$SG168469 DB	'herc =====> ', 00H
	ORG $+3
$SG168470 DB	'herc =====> ', 00H
	ORG $+3
$SG168481 DB	'herc =====> ', 00H
	ORG $+3
$SG168492 DB	'herc =====> ', 00H
	ORG $+3
$SG168510 DB	'%s', 00H
	ORG $+1
$SG168512 DB	'%s', 00H
	ORG $+1
$SG168533 DB	'%8.8X', 00H
	ORG $+2
$SG168539 DB	'%16.16llX', 00H
	ORG $+2
$SG168583 DB	' - ', 00H
$SG168586 DB	' * ', 00H
$SG168589 DB	' * ', 00H
$SG168591 DB	'%s - System Status: %s', 00H
	ORG $+1
$SG168592 DB	'System Status: %s', 00H
	ORG $+2
$SG168596 DB	'%s', 00H
	ORG $+1
$SG168597 DB	'%s - System Status: %s', 00H
	ORG $+1
$SG168625 DB	'  Hercules', 00H
	ORG $+1
$SG168628 DB	'| ', 00H
	ORG $+1
$SG168627 DB	'CPU:    %', 00H
	ORG $+2
$SG168637 DB	'PSW', 00H
$SG168629 DB	'Peripherals [Shared Port %u]', 00H
	ORG $+3
$SG168633 DB	' Addr Modl Type Assig', 00H
	ORG $+2
$SG168634 DB	'ment', 00H
	ORG $+3
$SG168641 DB	'GPR', 00H
$SG168642 DB	'CR', 00H
	ORG $+1
$SG168643 DB	'AR', 00H
	ORG $+1
$SG168644 DB	'FPR', 00H
$SG168645 DB	'ADD', 00H
$SG168646 DB	'ESS:', 00H
	ORG $+3
$SG168647 DB	'ATA:', 00H
	ORG $+3
$SG168650 DB	' ', 00H
	ORG $+2
$SG168648 DB	'No CPUs defined', 00H
$SG168651 DB	'O', 00H
	ORG $+2
$SG168652 DB	' ST', 00H
$SG168653 DB	'S ', 00H
	ORG $+1
$SG168654 DB	'I', 00H
	ORG $+2
$SG168655 DB	' D', 00H
	ORG $+1
$SG168656 DB	' ', 00H
	ORG $+2
$SG168657 DB	'T', 00H
	ORG $+2
$SG168658 DB	' RS', 00H
$SG168660 DB	'MIPS', 00H
	ORG $+3
$SG168663 DB	'IO/s', 00H
	ORG $+3
$SG168665 DB	'TR ', 00H
$SG168666 DB	'S', 00H
	ORG $+2
$SG168667 DB	' ', 00H
	ORG $+2
$SG168668 DB	' ', 00H
	ORG $+2
$SG168669 DB	'P', 00H
	ORG $+2
$SG168670 DB	' ST', 00H
$SG168671 DB	'XT ', 00H
$SG168672 DB	'E', 00H
	ORG $+2
$SG168673 DB	' ', 00H
	ORG $+2
$SG168674 DB	' ', 00H
	ORG $+2
$SG168675 DB	'L', 00H
	ORG $+2
$SG168676 DB	' IP', 00H
$SG168677 DB	'R ', 00H
	ORG $+1
$SG168678 DB	'W', 00H
	ORG $+2
$SG168679 DB	' P', 00H
	ORG $+1
$SG168700 DB	'0', 00H
	ORG $+2
$SG168682 DB	'%s%02X ', 00H
$SG168703 DB	'%u', 00H
	ORG $+1
$SG168704 DB	'%3.3u', 00H
	ORG $+2
$SG168707 DB	',', 00H
	ORG $+2
$SG168799 DB	'%3d', 00H
$SG168804 DB	'PSW', 00H
$SG168811 DB	'----------------', 00H
	ORG $+3
$SG168873 DB	'%6.6s', 00H
	ORG $+2
$SG168905 DB	'%-4.4s', 00H
	ORG $+1
$SG169336 DB	'E', 00H
	ORG $+2
$SG168812 DB	'%2d%c%c%c%c%c%c%c%c', 00H
$SG169342 DB	'E', 00H
	ORG $+2
$SG168833 DB	'--------', 00H
	ORG $+3
$SG168899 DB	'%4.4X', 00H
	ORG $+2
$SG169449 DB	'ext', 00H
$SG168837 DB	'--------', 00H
	ORG $+3
$SG168902 DB	'%4.4X', 00H
	ORG $+2
$SG169462 DB	'IMMED ', 00H
	ORG $+1
$SG169512 DB	'W', 00H
	ORG $+2
$SG168862 DB	'%2d,%03d', 00H
	ORG $+3
$SG169466 DB	'DELAY ', 00H
	ORG $+1
$SG169532 DB	01bH, 'w', 00H
	ORG $+1
$SG168865 DB	'%4d.%01d', 00H
	ORG $+3
$SG169473 DB	'SUBST ', 00H
	ORG $+1
$SG169534 DB	01bH, 'u', 00H
	ORG $+1
$SG168868 DB	'%3d.%02d', 00H
	ORG $+3
$SG169477 DB	'IMMED ', 00H
	ORG $+1
$SG169536 DB	01bH, '[A', 00H
$SG168869 DB	'%2d.%03d', 00H
	ORG $+3
$SG169480 DB	'DELAY ', 00H
	ORG $+1
$SG169538 DB	01bH, '[B', 00H
$SG168879 DB	'OFFLINE', 00H
$SG168884 DB	'STOPPED', 00H
$SG168898 DB	'SYSG', 00H
	ORG $+3
$SG168923 DB	'NP_update', 00H
	ORG $+2
$SG169540 DB	01bH, 'OA', 00H
$SG168924 DB	'panel.c', 00H
$SG168925 DB	'%s(%d) : warning HHC90999W : *** Assertion Failed! *** f'
	DB	'unction: %s', 0aH, 00H
	ORG $+3
$SG168927 DB	'NP_update', 00H
	ORG $+2
$SG169543 DB	01bH, 'OB', 00H
$SG168928 DB	'panel.c', 00H
$SG168929 DB	'%s(%d) : warning HHC90999W : *** Assertion Failed! *** f'
	DB	'unction: %s', 0aH, 00H
	ORG $+3
$SG168954 DB	'panel.c:1566', 00H
	ORG $+3
$SG168956 DB	'panel.c:1571', 00H
	ORG $+3
$SG168957 DB	'panel.c:1578', 00H
	ORG $+3
$SG169323 DB	'panel_display', 00H
	ORG $+2
$SG169324 DB	'panel_display', 00H
	ORG $+2
$SG169325 DB	'panel_cleanup', 00H
	ORG $+2
$SG169326 DB	'SUBST IMMED help &0', 00H
$SG169327 DB	'PF01', 00H
	ORG $+3
$SG169550 DB	01bH, 'D', 00H
	ORG $+1
$SG169328 DB	'IMMED devlist TAPE', 00H
	ORG $+1
$SG169329 DB	'PF11', 00H
	ORG $+3
$SG169552 DB	01bH, 'M', 00H
	ORG $+1
$SG169330 DB	'SUBST DELAY devinit &*', 00H
	ORG $+1
$SG169331 DB	'PF10', 00H
	ORG $+3
$SG169332 DB	'TERM', 00H
	ORG $+3
$SG169333 DB	'herc =====> ', 00H
	ORG $+3
$SG169335 DB	'malloc(%d)', 00H
	ORG $+1
$SG169567 DB	01bH, '[D', 00H
$SG169337 DB	'HHC00075%s Error in function %s: %s', 0aH, 00H
	ORG $+3
$SG169338 DB	'the_real_panel_display', 00H
	ORG $+1
$SG169339 DB	'panel.c', 00H
$SG169341 DB	'malloc(%d)', 00H
	ORG $+1
$SG169573 DB	01bH, '[C', 00H
$SG169343 DB	'HHC00075%s Error in function %s: %s', 0aH, 00H
	ORG $+3
$SG169348 DB	'herc =====> ', 00H
	ORG $+3
$SG169367 DB	'startall', 00H
	ORG $+3
$SG169579 DB	01bH, 'OD', 00H
$SG169371 DB	'stopall', 00H
$SG169395 DB	'Enter Address', 00H
	ORG $+2
$SG169400 DB	'Enter Data Value', 00H
	ORG $+3
$SG169583 DB	01bH, 'OC', 00H
$SG169404 DB	'Select Device for IPL', 00H
	ORG $+2
$SG169409 DB	'ipl %4.4x', 00H
	ORG $+2
$SG169622 DB	'%x', 00H
	ORG $+1
$SG169412 DB	'Select Device for Interrupt', 00H
$SG169625 DB	'%x', 00H
	ORG $+1
$SG169417 DB	'i %4.4x', 00H
$SG169420 DB	'Select Device to Reassign', 00H
	ORG $+2
$SG169715 DB	'+', 00H
	ORG $+2
$SG169424 DB	'New Name, or [enter] to Reload', 00H
	ORG $+1
$SG169427 DB	'Confirm Powerdown Y or N', 00H
	ORG $+3
$SG169431 DB	'quit', 00H
	ORG $+3
$SG169717 DB	'V', 00H
	ORG $+2
$SG169435 DB	'Confirm Restart Y or N', 00H
	ORG $+1
$SG169440 DB	'restart', 00H
$SG169444 DB	'Confirm External Interrupt Y or N', 00H
	ORG $+2
$SG169455 DB	'PF%s', 00H
	ORG $+3
$SG169736 DB	'RED', 00H
$SG169458 DB	'DELAY * %s UNDEFINED', 00H
	ORG $+3
$SG169513 DB	'HHC01608%s PF KEY SUBSTitution results would exceed comm'
	DB	'and line maximum size of %d; truncation occurred', 0aH, 00H
	ORG $+2
$SG169754 DB	'%s', 00H
	ORG $+1
$SG169514 DB	'the_real_panel_display', 00H
	ORG $+1
$SG169515 DB	'panel.c', 00H
$SG169522 DB	01bH, '[1~', 00H
	ORG $+3
$SG169527 DB	01bH, '[4~', 00H
	ORG $+3
$SG169546 DB	01bH, '[5~', 00H
	ORG $+3
$SG169548 DB	01bH, '[6~', 00H
	ORG $+3
$SG169562 DB	01bH, '[3~', 00H
	ORG $+3
$SG169587 DB	01bH, '[2~', 00H
	ORG $+3
$SG169630 DB	'devinit %4.4x %s', 00H
	ORG $+3
$SG169738 DB	'AMBER', 00H
	ORG $+2
$SG169789 DB	'I', 00H
	ORG $+2
$SG169640 DB	'the_real_panel_display', 00H
	ORG $+1
$SG169641 DB	'panel.c', 00H
$SG169642 DB	'%s(%d) : warning HHC90999W : *** Assertion Failed! *** f'
	DB	'unction: %s', 0aH, 00H
	ORG $+3
$SG169644 DB	'the_real_panel_display', 00H
	ORG $+1
$SG169645 DB	'panel.c', 00H
$SG169653 DB	'the_real_panel_display', 00H
	ORG $+1
$SG169646 DB	'%s(%d) : warning HHC90999W : *** Assertion Failed! *** f'
	DB	'unction: %s', 0aH, 00H
	ORG $+3
$SG169654 DB	'panel.c', 00H
$SG169655 DB	'%s(%d) : warning HHC90999W : *** Assertion Failed! *** f'
	DB	'unction: %s', 0aH, 00H
	ORG $+3
$SG169657 DB	'the_real_panel_display', 00H
	ORG $+1
$SG169658 DB	'panel.c', 00H
$SG169664 DB	'the_real_panel_display', 00H
	ORG $+1
$SG169659 DB	'%s(%d) : warning HHC90999W : *** Assertion Failed! *** f'
	DB	'unction: %s', 0aH, 00H
	ORG $+3
$SG169665 DB	'panel.c', 00H
$SG169666 DB	'%s(%d) : warning HHC90999W : *** Assertion Failed! *** f'
	DB	'unction: %s', 0aH, 00H
	ORG $+3
$SG169668 DB	'the_real_panel_display', 00H
	ORG $+1
$SG169669 DB	'panel.c', 00H
$SG169673 DB	'the_real_panel_display', 00H
	ORG $+1
$SG169670 DB	'%s(%d) : warning HHC90999W : *** Assertion Failed! *** f'
	DB	'unction: %s', 0aH, 00H
	ORG $+3
$SG169674 DB	'panel.c', 00H
$SG169675 DB	'%s(%d) : warning HHC90999W : *** Assertion Failed! *** f'
	DB	'unction: %s', 0aH, 00H
	ORG $+3
$SG169677 DB	'the_real_panel_display', 00H
	ORG $+1
$SG169678 DB	'panel.c', 00H
$SG169721 DB	'the_real_panel_display', 00H
	ORG $+1
$SG169679 DB	'%s(%d) : warning HHC90999W : *** Assertion Failed! *** f'
	DB	'unction: %s', 0aH, 00H
	ORG $+3
$SG169719 DB	'herc =====> ', 00H
	ORG $+3
$SG169722 DB	'panel.c', 00H
$SG169723 DB	'%s(%d) : warning HHC90999W : *** Assertion Failed! *** f'
	DB	'unction: %s', 0aH, 00H
	ORG $+3
$SG169725 DB	'the_real_panel_display', 00H
	ORG $+1
$SG169726 DB	'panel.c', 00H
$SG169743 DB	'GREEN', 00H
	ORG $+2
$SG169727 DB	'%s(%d) : warning HHC90999W : *** Assertion Failed! *** f'
	DB	'unction: %s', 0aH, 00H
	ORG $+3
$SG169744 DB	'%s%02X ', 00H
$SG169747 DB	'PSW=%8.8X%8.8X ', 00H
$SG169750 DB	'%16.16llX ', 00H
	ORG $+1
$SG169815 DB	0aH, 00H
	ORG $+2
$SG169752 DB	'%2d%c%c%c%c%c%c%c%c', 00H
	ORG $+4
$SG169753 DB	'Offline', 00H
$SG169756 DB	'instcnt %s', 00H
	ORG $+5
$SG169760 DB	'; mips %1d,%03d', 00H
$SG169763 DB	'; mips %3d.%01d', 00H
$SG169766 DB	'; mips %2d.%02d', 00H
$SG169767 DB	'; mips %1d.%03d', 00H
$SG169771 DB	'I/O %6.6s', 00H
	ORG $+6
$SG169780 DB	'herc =====> ', 00H
	ORG $+3
$SG169787 DB	'panel_display', 00H
	ORG $+2
$SG169788 DB	'panel.c:3313', 00H
	ORG $+3
$SG169790 DB	'HHC00101%s Thread id %8.8x, prio %d, name ''%s'' ended', 0aH
	DB	00H
	ORG $+2
$SG169791 DB	'the_real_panel_display', 00H
	ORG $+1
$SG169792 DB	'panel.c', 00H
$SG169794 DB	'the_real_panel_display', 00H
	ORG $+1
$SG169795 DB	'panel.c', 00H
$SG169798 DB	'the_real_panel_display', 00H
	ORG $+1
$SG169796 DB	'%s(%d) : warning HHC90999W : *** Assertion Failed! *** f'
	DB	'unction: %s', 0aH, 00H
	ORG $+3
$SG169799 DB	'panel.c', 00H
$SG169800 DB	'%s(%d) : warning HHC90999W : *** Assertion Failed! *** f'
	DB	'unction: %s', 0aH, 00H
_DATA	ENDS
voltbl	SEGMENT
_volmd	DD	0ffffffffH
	DDSymXIndex: 	FLAT:NP_update
	DD	018H
	DD	02445H
_volmd	DD	0ffffffffH
	DDSymXIndex: 	FLAT:format_int
	DD	013H
	DD	017eH
_volmd	DD	0ffffffffH
	DDSymXIndex: 	FLAT:NP_screen_redraw
	DD	016H
	DD	0b22H
_volmd	DD	0ffffffffH
	DDSymXIndex: 	FLAT:fill_text
	DD	01bH
	DD	0b6H
_volmd	DD	0ffffffffH
	DDSymXIndex: 	FLAT:draw_dw
	DD	013H
	DD	03eH
_volmd	DD	0ffffffffH
	DDSymXIndex: 	FLAT:draw_fw
	DD	012H
	DD	03dH
_volmd	DD	0ffffffffH
	DDSymXIndex: 	FLAT:the_real_panel_display
	DD	01aH
	DD	04baaH
_volmd	DD	0ffffffffH
	DDSymXIndex: 	FLAT:set_console_title
	DD	017H
	DD	0415H
voltbl	ENDS
;	COMDAT xdata
xdata	SEGMENT
$unwind$fetch_dw_noswap DD 010901H
	DD	02209H
xdata	ENDS
;	COMDAT xdata
xdata	SEGMENT
$unwind$fetch_fw_noswap DD 010901H
	DD	02209H
xdata	ENDS
xdata	SEGMENT
$unwind$localtime DD 010901H
	DD	04209H
$unwind$time DD	010901H
	DD	04209H
$unwind$DebuggerTrace DD 011801H
	DD	0a218H
$unwind$set_console_title DD 031f19H
	DD	056010dH
	DD	07006H
	DD	imagerel __GSHandlerCheck
	DD	02a0H
$unwind$update_maxrates_hwm DD 010401H
	DD	06204H
$unwind$set_panel_colors DD 010401H
	DD	02204H
$unwind$the_real_panel_display DD 042219H
	DD	02990110H
	DD	060027003H
	DD	imagerel __GSHandlerCheck
	DD	014b0H
$unwind$beep DD	010401H
	DD	04204H
$unwind$oldest_msg DD 010401H
	DD	02204H
$unwind$visible_lines DD 010401H
	DD	04204H
$unwind$is_currline_visible DD 010401H
	DD	06204H
$unwind$lines_remaining DD 010401H
	DD	06204H
$unwind$scroll_up_lines DD 010801H
	DD	06208H
$unwind$scroll_down_lines DD 010801H
	DD	06208H
$unwind$page_up DD 010401H
	DD	04204H
$unwind$page_down DD 010401H
	DD	04204H
$unwind$scroll_to_top_line DD 010401H
	DD	04204H
$unwind$scroll_to_bottom_line DD 010401H
	DD	04204H
$unwind$scroll_to_bottom_screen DD 010401H
	DD	04204H
$unwind$do_panel_command DD 010901H
	DD	06209H
$unwind$do_prev_history DD 010401H
	DD	06204H
$unwind$do_next_history DD 010401H
	DD	06204H
$unwind$clr_screen DD 010401H
	DD	04204H
$unwind$get_dim DD 010e01H
	DD	0420eH
$unwind$set_color DD 010e01H
	DD	0420eH
$unwind$set_pos DD 010e01H
	DD	0620eH
$unwind$is_cursor_on_cmdline DD 010401H
	DD	06204H
$unwind$cursor_cmdline_home DD 010401H
	DD	04204H
$unwind$cursor_cmdline_end DD 010401H
	DD	04204H
$unwind$save_command_line DD 020301H
	DD	060027003H
$unwind$restore_command_line DD 020301H
	DD	060027003H
$unwind$draw_text DD 010901H
	DD	06209H
$unwind$write_text DD 010d01H
	DD	0420dH
$unwind$draw_char DD 010801H
	DD	04208H
$unwind$draw_fw DD 011719H
	DD	08208H
	DD	imagerel __GSHandlerCheck
	DD	030H
$unwind$draw_dw DD 011819H
	DD	08209H
	DD	imagerel __GSHandlerCheck
	DD	038H
$unwind$fill_text DD 032319H
	DD	02c0111H
	DD	0700aH
	DD	imagerel __GSHandlerCheck
	DD	0150H
$unwind$draw_button DD 011901H
	DD	04219H
$unwind$NP_init DD 010401H
	DD	04204H
$unwind$NP_screen_redraw DD 021e19H
	DD	08f010cH
	DD	imagerel __GSHandlerCheck
	DD	0460H
$unwind$format_int DD 011819H
	DD	0c209H
	DD	imagerel __GSHandlerCheck
	DD	058H
$unwind$NP_update DD 042019H
	DD	0d7010eH
	DD	060067007H
	DD	imagerel __GSHandlerCheck
	DD	06a0H
$unwind$panel_cleanup DD 010901H
	DD	06209H
$unwind$panel_copy_regs DD 030a01H
	DD	07006620aH
	DD	06005H
$unwind$msgcolor DD 010c01H
	DD	0220cH
$unwind$fg_msgcolor DD 010801H
	DD	04208H
$unwind$bg_msgcolor DD 010801H
	DD	04208H
$unwind$msg_sev DD 010901H
	DD	06209H
xdata	ENDS
;	COMDAT xdata
xdata	SEGMENT
$unwind$sscanf DD 011801H
	DD	06218H
xdata	ENDS
;	COMDAT xdata
xdata	SEGMENT
$unwind$_vsscanf_l DD 011801H
	DD	06218H
xdata	ENDS
;	COMDAT xdata
xdata	SEGMENT
$unwind$_vsnprintf_s DD 011801H
	DD	06218H
xdata	ENDS
;	COMDAT xdata
xdata	SEGMENT
$unwind$_vsnprintf_s_l DD 011801H
	DD	0a218H
xdata	ENDS
; Function compile flags: /Odtp
; File C:\papa\MyGit\hyperion-zvector\panel.c
_TEXT	SEGMENT
tv67 = 32
sevidx$1 = 36
msg$ = 64
msg_sev	PROC

; 1707 : {

  00000	48 89 4c 24 08	 mov	 QWORD PTR [rsp+8], rcx
  00005	48 83 ec 38	 sub	 rsp, 56			; 00000038H

; 1708 : #if defined(HAVE_REGEX_H) || defined(HAVE_PCRE)
; 1709 :     if (have_regexp)
; 1710 :     {
; 1711 :         if (regexec( &regexp, msg, 1, &regmatch, 0 ) == 0)
; 1712 :             return (int)(msg[ regmatch.rm_so + 8 ]);
; 1713 :     }
; 1714 :     else
; 1715 : #endif // defined(HAVE_REGEX_H) || defined(HAVE_PCRE)
; 1716 :     {
; 1717 :         int sevidx = MLVL( DEBUG ) ? MLVL_DEBUG_PFXIDX + 8 : 8;

  00009	48 8b 05 00 00
	00 00		 mov	 rax, QWORD PTR __imp_sysblk
  00010	8b 80 80 75 01
	00		 mov	 eax, DWORD PTR [rax+95616]
  00016	25 00 00 00 40	 and	 eax, 1073741824		; 40000000H
  0001b	85 c0		 test	 eax, eax
  0001d	74 0a		 je	 SHORT $LN4@msg_sev
  0001f	c7 44 24 20 1a
	00 00 00	 mov	 DWORD PTR tv67[rsp], 26
  00027	eb 08		 jmp	 SHORT $LN5@msg_sev
$LN4@msg_sev:
  00029	c7 44 24 20 08
	00 00 00	 mov	 DWORD PTR tv67[rsp], 8
$LN5@msg_sev:
  00031	8b 44 24 20	 mov	 eax, DWORD PTR tv67[rsp]
  00035	89 44 24 24	 mov	 DWORD PTR sevidx$1[rsp], eax

; 1718 :         if ((int)strlen( msg ) > sevidx)

  00039	48 8b 4c 24 40	 mov	 rcx, QWORD PTR msg$[rsp]
  0003e	e8 00 00 00 00	 call	 strlen
  00043	3b 44 24 24	 cmp	 eax, DWORD PTR sevidx$1[rsp]
  00047	7e 10		 jle	 SHORT $LN2@msg_sev

; 1719 :             return (int)(msg[ sevidx ]);

  00049	48 63 44 24 24	 movsxd	 rax, DWORD PTR sevidx$1[rsp]
  0004e	48 8b 4c 24 40	 mov	 rcx, QWORD PTR msg$[rsp]
  00053	0f be 04 01	 movsx	 eax, BYTE PTR [rcx+rax]
  00057	eb 05		 jmp	 SHORT $LN1@msg_sev
$LN2@msg_sev:

; 1720 :     }
; 1721 :     return (int)' ';

  00059	b8 20 00 00 00	 mov	 eax, 32			; 00000020H
$LN1@msg_sev:

; 1722 : }

  0005e	48 83 c4 38	 add	 rsp, 56			; 00000038H
  00062	c3		 ret	 0
msg_sev	ENDP
_TEXT	ENDS
; Function compile flags: /Odtp
; File C:\papa\MyGit\hyperion-zvector\panel.c
_TEXT	SEGMENT
sev$ = 48
bg_msgcolor PROC

; 1683 : static int bg_msgcolor( int sev ) { return msgcolor( sev, PANC_BG_IDX ); }

  00000	89 4c 24 08	 mov	 DWORD PTR [rsp+8], ecx
  00004	48 83 ec 28	 sub	 rsp, 40			; 00000028H
  00008	ba 01 00 00 00	 mov	 edx, 1
  0000d	8b 4c 24 30	 mov	 ecx, DWORD PTR sev$[rsp]
  00011	e8 00 00 00 00	 call	 msgcolor
  00016	48 83 c4 28	 add	 rsp, 40			; 00000028H
  0001a	c3		 ret	 0
bg_msgcolor ENDP
_TEXT	ENDS
; Function compile flags: /Odtp
; File C:\papa\MyGit\hyperion-zvector\panel.c
_TEXT	SEGMENT
sev$ = 48
fg_msgcolor PROC

; 1682 : static int fg_msgcolor( int sev ) { return msgcolor( sev, PANC_FG_IDX ); }

  00000	89 4c 24 08	 mov	 DWORD PTR [rsp+8], ecx
  00004	48 83 ec 28	 sub	 rsp, 40			; 00000028H
  00008	33 d2		 xor	 edx, edx
  0000a	8b 4c 24 30	 mov	 ecx, DWORD PTR sev$[rsp]
  0000e	e8 00 00 00 00	 call	 msgcolor
  00013	48 83 c4 28	 add	 rsp, 40			; 00000028H
  00017	c3		 ret	 0
fg_msgcolor ENDP
_TEXT	ENDS
; Function compile flags: /Odtp
; File C:\papa\MyGit\hyperion-zvector\panel.c
_TEXT	SEGMENT
tv64 = 0
sev$ = 32
fgbg$ = 40
msgcolor PROC

; 1674 : {

  00000	89 54 24 10	 mov	 DWORD PTR [rsp+16], edx
  00004	89 4c 24 08	 mov	 DWORD PTR [rsp+8], ecx
  00008	48 83 ec 18	 sub	 rsp, 24

; 1675 :     switch (sev) {

  0000c	8b 44 24 20	 mov	 eax, DWORD PTR sev$[rsp]
  00010	89 04 24	 mov	 DWORD PTR tv64[rsp], eax
  00013	83 3c 24 44	 cmp	 DWORD PTR tv64[rsp], 68	; 00000044H
  00017	0f 84 80 00 00
	00		 je	 $LN7@msgcolor
  0001d	83 3c 24 45	 cmp	 DWORD PTR tv64[rsp], 69	; 00000045H
  00021	74 36		 je	 SHORT $LN5@msgcolor
  00023	83 3c 24 49	 cmp	 DWORD PTR tv64[rsp], 73	; 00000049H
  00027	74 0b		 je	 SHORT $LN4@msgcolor
  00029	83 3c 24 57	 cmp	 DWORD PTR tv64[rsp], 87	; 00000057H
  0002d	74 4c		 je	 SHORT $LN6@msgcolor
  0002f	e9 8b 00 00 00	 jmp	 $LN8@msgcolor
$LN4@msgcolor:

; 1676 :     case 'I': return sysblk.pan_color[ PANC_I_IDX ][ fgbg ];

  00034	b8 08 00 00 00	 mov	 eax, 8
  00039	48 6b c0 01	 imul	 rax, rax, 1
  0003d	48 8b 0d 00 00
	00 00		 mov	 rcx, QWORD PTR __imp_sysblk
  00044	48 8d 84 01 38
	11 00 00	 lea	 rax, QWORD PTR [rcx+rax+4408]
  0004c	48 63 4c 24 28	 movsxd	 rcx, DWORD PTR fgbg$[rsp]
  00051	8b 04 88	 mov	 eax, DWORD PTR [rax+rcx*4]
  00054	e9 86 00 00 00	 jmp	 $LN1@msgcolor
$LN5@msgcolor:

; 1677 :     case 'E': return sysblk.pan_color[ PANC_E_IDX ][ fgbg ];

  00059	b8 08 00 00 00	 mov	 eax, 8
  0005e	48 6b c0 02	 imul	 rax, rax, 2
  00062	48 8b 0d 00 00
	00 00		 mov	 rcx, QWORD PTR __imp_sysblk
  00069	48 8d 84 01 38
	11 00 00	 lea	 rax, QWORD PTR [rcx+rax+4408]
  00071	48 63 4c 24 28	 movsxd	 rcx, DWORD PTR fgbg$[rsp]
  00076	8b 04 88	 mov	 eax, DWORD PTR [rax+rcx*4]
  00079	eb 64		 jmp	 SHORT $LN1@msgcolor
$LN6@msgcolor:

; 1678 :     case 'W': return sysblk.pan_color[ PANC_W_IDX ][ fgbg ];

  0007b	b8 08 00 00 00	 mov	 eax, 8
  00080	48 6b c0 03	 imul	 rax, rax, 3
  00084	48 8b 0d 00 00
	00 00		 mov	 rcx, QWORD PTR __imp_sysblk
  0008b	48 8d 84 01 38
	11 00 00	 lea	 rax, QWORD PTR [rcx+rax+4408]
  00093	48 63 4c 24 28	 movsxd	 rcx, DWORD PTR fgbg$[rsp]
  00098	8b 04 88	 mov	 eax, DWORD PTR [rax+rcx*4]
  0009b	eb 42		 jmp	 SHORT $LN1@msgcolor
$LN7@msgcolor:

; 1679 :     case 'D': return sysblk.pan_color[ PANC_D_IDX ][ fgbg ]; default: break; }

  0009d	b8 08 00 00 00	 mov	 eax, 8
  000a2	48 6b c0 04	 imul	 rax, rax, 4
  000a6	48 8b 0d 00 00
	00 00		 mov	 rcx, QWORD PTR __imp_sysblk
  000ad	48 8d 84 01 38
	11 00 00	 lea	 rax, QWORD PTR [rcx+rax+4408]
  000b5	48 63 4c 24 28	 movsxd	 rcx, DWORD PTR fgbg$[rsp]
  000ba	8b 04 88	 mov	 eax, DWORD PTR [rax+rcx*4]
  000bd	eb 20		 jmp	 SHORT $LN1@msgcolor
$LN8@msgcolor:

; 1680 :               return sysblk.pan_color[ PANC_X_IDX ][ fgbg ];

  000bf	b8 08 00 00 00	 mov	 eax, 8
  000c4	48 6b c0 00	 imul	 rax, rax, 0
  000c8	48 8b 0d 00 00
	00 00		 mov	 rcx, QWORD PTR __imp_sysblk
  000cf	48 8d 84 01 38
	11 00 00	 lea	 rax, QWORD PTR [rcx+rax+4408]
  000d7	48 63 4c 24 28	 movsxd	 rcx, DWORD PTR fgbg$[rsp]
  000dc	8b 04 88	 mov	 eax, DWORD PTR [rax+rcx*4]
$LN1@msgcolor:

; 1681 : }

  000df	48 83 c4 18	 add	 rsp, 24
  000e3	c3		 ret	 0
msgcolor ENDP
_TEXT	ENDS
; Function compile flags: /Odtp
; File C:\papa\MyGit\hyperion-zvector\panel.c
_TEXT	SEGMENT
regs$ = 32
cpu$ = 80
panel_copy_regs PROC

; 1558 : {

  00000	89 4c 24 08	 mov	 DWORD PTR [rsp+8], ecx
  00004	56		 push	 rsi
  00005	57		 push	 rdi
  00006	48 83 ec 38	 sub	 rsp, 56			; 00000038H

; 1559 :     REGS* regs; /* (pointer to REGS struct that we'll be returning) */
; 1560 : 
; 1561 :     /* Default to CPU #0 if invalid CPU number is passed */
; 1562 :     if (cpu < 0 || cpu >= sysblk.maxcpu)

  0000a	83 7c 24 50 00	 cmp	 DWORD PTR cpu$[rsp], 0
  0000f	7c 13		 jl	 SHORT $LN6@panel_copy
  00011	48 8b 05 00 00
	00 00		 mov	 rax, QWORD PTR __imp_sysblk
  00018	8b 80 00 01 00
	00		 mov	 eax, DWORD PTR [rax+256]
  0001e	39 44 24 50	 cmp	 DWORD PTR cpu$[rsp], eax
  00022	7c 08		 jl	 SHORT $LN5@panel_copy
$LN6@panel_copy:

; 1563 :         cpu = 0;

  00024	c7 44 24 50 00
	00 00 00	 mov	 DWORD PTR cpu$[rsp], 0
$LN5@panel_copy:

; 1564 : 
; 1565 :     /* Use the standardized REGS copy function to make the copy */
; 1566 :     obtain_lock( &sysblk.cpulock[ cpu ]);

  0002c	48 63 44 24 50	 movsxd	 rax, DWORD PTR cpu$[rsp]
  00031	48 8b 0d 00 00
	00 00		 mov	 rcx, QWORD PTR __imp_sysblk
  00038	48 8d 84 c1 48
	01 00 00	 lea	 rax, QWORD PTR [rcx+rax*8+328]
  00040	48 8d 15 00 00
	00 00		 lea	 rdx, OFFSET FLAT:$SG168954
  00047	48 8b c8	 mov	 rcx, rax
  0004a	ff 15 00 00 00
	00		 call	 QWORD PTR __imp_hthread_obtain_lock

; 1567 :     {
; 1568 :         if (!sysblk.regs[ cpu ])

  00050	48 63 44 24 50	 movsxd	 rax, DWORD PTR cpu$[rsp]
  00055	48 8b 0d 00 00
	00 00		 mov	 rcx, QWORD PTR __imp_sysblk
  0005c	48 83 bc c1 98
	0b 00 00 00	 cmp	 QWORD PTR [rcx+rax*8+2968], 0
  00065	75 36		 jne	 SHORT $LN7@panel_copy

; 1569 :         {
; 1570 :             /* Specified CPU does not exist. Use dummyregs instead */
; 1571 :             release_lock( &sysblk.cpulock[ cpu ]);

  00067	48 63 44 24 50	 movsxd	 rax, DWORD PTR cpu$[rsp]
  0006c	48 8b 0d 00 00
	00 00		 mov	 rcx, QWORD PTR __imp_sysblk
  00073	48 8d 84 c1 48
	01 00 00	 lea	 rax, QWORD PTR [rcx+rax*8+328]
  0007b	48 8d 15 00 00
	00 00		 lea	 rdx, OFFSET FLAT:$SG168956
  00082	48 8b c8	 mov	 rcx, rax
  00085	ff 15 00 00 00
	00		 call	 QWORD PTR __imp_hthread_release_lock

; 1572 :             return &sysblk.dummyregs;

  0008b	48 8b 05 00 00
	00 00		 mov	 rax, QWORD PTR __imp_sysblk
  00092	48 05 00 15 00
	00		 add	 rax, 5376		; 00001500H
  00098	e9 22 01 00 00	 jmp	 $LN1@panel_copy
$LN7@panel_copy:

; 1573 :         }
; 1574 : 
; 1575 :         /* Make a working copy of this CPU's REGS structs */
; 1576 :         regs = copy_regs( sysblk.regs[ cpu ] );

  0009d	48 63 44 24 50	 movsxd	 rax, DWORD PTR cpu$[rsp]
  000a2	48 8b 0d 00 00
	00 00		 mov	 rcx, QWORD PTR __imp_sysblk
  000a9	48 8b 8c c1 98
	0b 00 00	 mov	 rcx, QWORD PTR [rcx+rax*8+2968]
  000b1	e8 00 00 00 00	 call	 copy_regs
  000b6	48 89 44 24 20	 mov	 QWORD PTR regs$[rsp], rax

; 1577 :     }
; 1578 :     release_lock( &sysblk.cpulock[ cpu ]);

  000bb	48 63 44 24 50	 movsxd	 rax, DWORD PTR cpu$[rsp]
  000c0	48 8b 0d 00 00
	00 00		 mov	 rcx, QWORD PTR __imp_sysblk
  000c7	48 8d 84 c1 48
	01 00 00	 lea	 rax, QWORD PTR [rcx+rax*8+328]
  000cf	48 8d 15 00 00
	00 00		 lea	 rdx, OFFSET FLAT:$SG168957
  000d6	48 8b c8	 mov	 rcx, rax
  000d9	ff 15 00 00 00
	00		 call	 QWORD PTR __imp_hthread_release_lock

; 1579 : 
; 1580 :     /* Copy the working copy to our static work variables */
; 1581 :     memcpy( &copyregs, regs, sysblk.regs_copy_len );

  000df	48 8b 05 00 00
	00 00		 mov	 rax, QWORD PTR __imp_sysblk
  000e6	48 63 80 90 14
	00 00		 movsxd	 rax, DWORD PTR [rax+5264]
  000ed	48 8d 0d 00 00
	00 00		 lea	 rcx, OFFSET FLAT:copyregs
  000f4	48 8b f9	 mov	 rdi, rcx
  000f7	48 8b 74 24 20	 mov	 rsi, QWORD PTR regs$[rsp]
  000fc	48 8b c8	 mov	 rcx, rax
  000ff	f3 a4		 rep movsb

; 1582 : 
; 1583 :     /* Free the original working copy */
; 1584 :     free_aligned( regs );

  00101	48 8b 4c 24 20	 mov	 rcx, QWORD PTR regs$[rsp]
  00106	ff 15 00 00 00
	00		 call	 QWORD PTR __imp__aligned_free

; 1585 : 
; 1586 :     /* Point to our static copy */
; 1587 :     regs = &copyregs;

  0010c	48 8d 05 00 00
	00 00		 lea	 rax, OFFSET FLAT:copyregs
  00113	48 89 44 24 20	 mov	 QWORD PTR regs$[rsp], rax

; 1588 : 
; 1589 :     /* Make a separate copy of the guest REGS, if they exist */
; 1590 :     if (GUESTREGS)

  00118	48 8b 44 24 20	 mov	 rax, QWORD PTR regs$[rsp]
  0011d	48 83 b8 70 08
	00 00 00	 cmp	 QWORD PTR [rax+2160], 0
  00125	74 29		 je	 SHORT $LN8@panel_copy

; 1591 :         memcpy( &copysieregs, GUESTREGS, sysblk.regs_copy_len );

  00127	48 8b 05 00 00
	00 00		 mov	 rax, QWORD PTR __imp_sysblk
  0012e	48 63 80 90 14
	00 00		 movsxd	 rax, DWORD PTR [rax+5264]
  00135	48 8d 0d 00 00
	00 00		 lea	 rcx, OFFSET FLAT:copysieregs
  0013c	48 8b 54 24 20	 mov	 rdx, QWORD PTR regs$[rsp]
  00141	48 8b f9	 mov	 rdi, rcx
  00144	48 8b b2 70 08
	00 00		 mov	 rsi, QWORD PTR [rdx+2160]
  0014b	48 8b c8	 mov	 rcx, rax
  0014e	f3 a4		 rep movsb
$LN8@panel_copy:

; 1592 : 
; 1593 :     /* Switch to using the guest REGS instead, if SIE is active */
; 1594 : #if defined( _FEATURE_SIE )
; 1595 :     if (regs->sie_active)

  00150	48 8b 44 24 20	 mov	 rax, QWORD PTR regs$[rsp]
  00155	8b 80 c8 08 00
	00		 mov	 eax, DWORD PTR [rax+2248]
  0015b	83 e0 01	 and	 eax, 1
  0015e	85 c0		 test	 eax, eax
  00160	74 0c		 je	 SHORT $LN9@panel_copy

; 1596 :         regs = &copysieregs;

  00162	48 8d 05 00 00
	00 00		 lea	 rax, OFFSET FLAT:copysieregs
  00169	48 89 44 24 20	 mov	 QWORD PTR regs$[rsp], rax
$LN9@panel_copy:
$LN4@panel_copy:

; 1597 : #endif
; 1598 : 
; 1599 :     /* Ensure PSW accurately reflects the current instruction */
; 1600 :     MAYBE_SET_PSW_IA_FROM_IP( regs );

  0016e	48 8b 44 24 20	 mov	 rax, QWORD PTR regs$[rsp]
  00173	48 83 b8 08 02
	00 00 00	 cmp	 QWORD PTR [rax+520], 0
  0017b	74 37		 je	 SHORT $LN10@panel_copy
  0017d	48 8b 44 24 20	 mov	 rax, QWORD PTR regs$[rsp]
  00182	8b 80 10 02 00
	00		 mov	 eax, DWORD PTR [rax+528]
  00188	48 8b 4c 24 20	 mov	 rcx, QWORD PTR regs$[rsp]
  0018d	48 8b 54 24 20	 mov	 rdx, QWORD PTR regs$[rsp]
  00192	48 8b 92 00 02
	00 00		 mov	 rdx, QWORD PTR [rdx+512]
  00199	48 8b 49 68	 mov	 rcx, QWORD PTR [rcx+104]
  0019d	48 2b ca	 sub	 rcx, rdx
  001a0	48 03 c1	 add	 rax, rcx
  001a3	48 25 ff ff ff
	00		 and	 rax, 16777215		; 00ffffffH
  001a9	48 8b 4c 24 20	 mov	 rcx, QWORD PTR regs$[rsp]
  001ae	89 81 88 00 00
	00		 mov	 DWORD PTR [rcx+136], eax
$LN10@panel_copy:
  001b4	33 c0		 xor	 eax, eax
  001b6	85 c0		 test	 eax, eax
  001b8	75 b4		 jne	 SHORT $LN4@panel_copy

; 1601 : 
; 1602 :     /* Return pointer to static copy of active CPU's REGS struct */
; 1603 :     return regs;

  001ba	48 8b 44 24 20	 mov	 rax, QWORD PTR regs$[rsp]
$LN1@panel_copy:

; 1604 : }

  001bf	48 83 c4 38	 add	 rsp, 56			; 00000038H
  001c3	5f		 pop	 rdi
  001c4	5e		 pop	 rsi
  001c5	c3		 ret	 0
panel_copy_regs ENDP
_TEXT	ENDS
; Function compile flags: /Odtp
; File C:\papa\MyGit\hyperion-zvector\panel.c
_TEXT	SEGMENT
i$ = 32
p$ = 40
unused$ = 64
panel_cleanup PROC

; 3320 : {

  00000	48 89 4c 24 08	 mov	 QWORD PTR [rsp+8], rcx
  00005	48 83 ec 38	 sub	 rsp, 56			; 00000038H
$LN4@panel_clea:

; 3321 : int i;
; 3322 : PANMSG* p;
; 3323 : 
; 3324 :     UNREFERENCED(unused);

  00009	33 c0		 xor	 eax, eax
  0000b	85 c0		 test	 eax, eax
  0000d	75 fa		 jne	 SHORT $LN4@panel_clea

; 3325 : 
; 3326 :     log_wakeup(NULL);

  0000f	33 c9		 xor	 ecx, ecx
  00011	ff 15 00 00 00
	00		 call	 QWORD PTR __imp_log_wakeup

; 3327 : 
; 3328 :     if(topmsg)

  00017	48 83 3d 00 00
	00 00 00	 cmp	 QWORD PTR topmsg, 0
  0001f	0f 84 be 00 00
	00		 je	 $LN8@panel_clea

; 3329 :     {
; 3330 :         set_screen_color( stderr, COLOR_DEFAULT_FG, COLOR_DEFAULT_BG );

  00025	b9 02 00 00 00	 mov	 ecx, 2
  0002a	ff 15 00 00 00
	00		 call	 QWORD PTR __imp___acrt_iob_func
  00030	66 41 b8 11 00	 mov	 r8w, 17
  00035	66 ba 10 00	 mov	 dx, 16
  00039	48 8b c8	 mov	 rcx, rax
  0003c	e8 00 00 00 00	 call	 set_screen_color

; 3331 :         clear_screen( stderr );

  00041	b9 02 00 00 00	 mov	 ecx, 2
  00046	ff 15 00 00 00
	00		 call	 QWORD PTR __imp___acrt_iob_func
  0004c	48 8b c8	 mov	 rcx, rax
  0004f	e8 00 00 00 00	 call	 clear_screen

; 3332 : 
; 3333 :         /* Scroll to last full screen's worth of messages */
; 3334 :         scroll_to_bottom_screen();

  00054	e8 00 00 00 00	 call	 scroll_to_bottom_screen

; 3335 : 
; 3336 :         /* Display messages in scrolling area */
; 3337 :         for (i=0, p = topmsg; i < SCROLL_LINES && p != curmsg->next; i++, p = p->next)

  00059	c7 44 24 20 00
	00 00 00	 mov	 DWORD PTR i$[rsp], 0
  00061	48 8b 05 00 00
	00 00		 mov	 rax, QWORD PTR topmsg
  00068	48 89 44 24 28	 mov	 QWORD PTR p$[rsp], rax
  0006d	eb 17		 jmp	 SHORT $LN7@panel_clea
$LN5@panel_clea:
  0006f	8b 44 24 20	 mov	 eax, DWORD PTR i$[rsp]
  00073	ff c0		 inc	 eax
  00075	89 44 24 20	 mov	 DWORD PTR i$[rsp], eax
  00079	48 8b 44 24 28	 mov	 rax, QWORD PTR p$[rsp]
  0007e	48 8b 00	 mov	 rax, QWORD PTR [rax]
  00081	48 89 44 24 28	 mov	 QWORD PTR p$[rsp], rax
$LN7@panel_clea:
  00086	8b 05 00 00 00
	00		 mov	 eax, DWORD PTR cons_rows
  0008c	83 e8 02	 sub	 eax, 2
  0008f	2b 05 00 00 00
	00		 sub	 eax, DWORD PTR numkept
  00095	39 44 24 20	 cmp	 DWORD PTR i$[rsp], eax
  00099	7d 48		 jge	 SHORT $LN6@panel_clea
  0009b	48 8b 05 00 00
	00 00		 mov	 rax, QWORD PTR curmsg
  000a2	48 8b 00	 mov	 rax, QWORD PTR [rax]
  000a5	48 39 44 24 28	 cmp	 QWORD PTR p$[rsp], rax
  000aa	74 37		 je	 SHORT $LN6@panel_clea

; 3338 :         {
; 3339 :             set_pos (i+1, 1);

  000ac	8b 44 24 20	 mov	 eax, DWORD PTR i$[rsp]
  000b0	ff c0		 inc	 eax
  000b2	66 ba 01 00	 mov	 dx, 1
  000b6	0f b7 c8	 movzx	 ecx, ax
  000b9	e8 00 00 00 00	 call	 set_pos

; 3340 :             set_color (COLOR_DEFAULT_FG, COLOR_DEFAULT_BG);

  000be	66 ba 11 00	 mov	 dx, 17
  000c2	66 b9 10 00	 mov	 cx, 16
  000c6	e8 00 00 00 00	 call	 set_color

; 3341 :             write_text (p->msg, MSG_SIZE);

  000cb	48 8b 44 24 28	 mov	 rax, QWORD PTR p$[rsp]
  000d0	48 83 c0 14	 add	 rax, 20
  000d4	ba 00 01 00 00	 mov	 edx, 256		; 00000100H
  000d9	48 8b c8	 mov	 rcx, rax
  000dc	e8 00 00 00 00	 call	 write_text

; 3342 :         }

  000e1	eb 8c		 jmp	 SHORT $LN5@panel_clea
$LN6@panel_clea:
$LN8@panel_clea:

; 3343 :     }
; 3344 :     sysblk.panel_init = 0;      /* Panel is no longer running */

  000e3	48 8b 05 00 00
	00 00		 mov	 rax, QWORD PTR __imp_sysblk
  000ea	8b 80 94 12 00
	00		 mov	 eax, DWORD PTR [rax+4756]
  000f0	83 e0 f7	 and	 eax, -9			; fffffff7H
  000f3	48 8b 0d 00 00
	00 00		 mov	 rcx, QWORD PTR __imp_sysblk
  000fa	89 81 94 12 00
	00		 mov	 DWORD PTR [rcx+4756], eax

; 3345 : 
; 3346 :     /* Restore the terminal mode */
; 3347 :     set_or_reset_console_mode( keybfd, 0 );

  00100	33 d2		 xor	 edx, edx
  00102	8b 0d 00 00 00
	00		 mov	 ecx, DWORD PTR keybfd
  00108	e8 00 00 00 00	 call	 set_or_reset_console_mode

; 3348 : 
; 3349 :     /* Position to next line */
; 3350 :     fwrite("\n",1,1,stderr);

  0010d	b9 02 00 00 00	 mov	 ecx, 2
  00112	ff 15 00 00 00
	00		 call	 QWORD PTR __imp___acrt_iob_func
  00118	4c 8b c8	 mov	 r9, rax
  0011b	41 b8 01 00 00
	00		 mov	 r8d, 1
  00121	ba 01 00 00 00	 mov	 edx, 1
  00126	48 8d 0d 00 00
	00 00		 lea	 rcx, OFFSET FLAT:$SG169815
  0012d	ff 15 00 00 00
	00		 call	 QWORD PTR __imp_w32_fwrite

; 3351 : 
; 3352 :     set_screen_color(stderr, COLOR_DEFAULT_FG, COLOR_DEFAULT_BG);

  00133	b9 02 00 00 00	 mov	 ecx, 2
  00138	ff 15 00 00 00
	00		 call	 QWORD PTR __imp___acrt_iob_func
  0013e	66 41 b8 11 00	 mov	 r8w, 17
  00143	66 ba 10 00	 mov	 dx, 16
  00147	48 8b c8	 mov	 rcx, rax
  0014a	e8 00 00 00 00	 call	 set_screen_color

; 3353 : 
; 3354 :     fflush(stderr);

  0014f	b9 02 00 00 00	 mov	 ecx, 2
  00154	ff 15 00 00 00
	00		 call	 QWORD PTR __imp___acrt_iob_func
  0015a	48 8b c8	 mov	 rcx, rax
  0015d	ff 15 00 00 00
	00		 call	 QWORD PTR __imp_fflush

; 3355 : }

  00163	48 83 c4 38	 add	 rsp, 56			; 00000038H
  00167	c3		 ret	 0
panel_cleanup ENDP
_TEXT	ENDS
; Function compile flags: /Odtp
; File C:\papa\MyGit\hyperion-zvector\panel.c
_TEXT	SEGMENT
i$ = 96
n$ = 100
dev$ = 104
mode$ = 112
zhost$ = 116
addr$ = 120
tv601 = 124
p$1 = 128
aaddr$ = 132
cpupct_total$ = 136
online$ = 140
busy$ = 144
open$ = 148
tv166 = 152
tv175 = 156
tv190 = 160
tv313 = 164
tv264 = 168
tv270 = 172
tv276 = 176
tv282 = 180
tv288 = 184
tv294 = 188
tv300 = 192
tv305 = 196
tv315 = 200
tv329 = 204
tv340 = 208
tv352 = 212
tv450 = 216
tv525 = 220
tv745 = 224
tv801 = 228
tv809 = 232
tv817 = 236
tv825 = 240
tv1034 = 244
tv1077 = 248
tv1098 = 252
tv1100 = 256
tv1103 = 260
tv1115 = 264
tv1120 = 268
tv1143 = 272
tv1183 = 276
tv1255 = 280
tv153 = 284
tv497 = 288
tv538 = 292
tv573 = 296
tv614 = 300
tv649 = 304
tv684 = 308
tv715 = 312
tv765 = 316
tv856 = 320
tv901 = 324
tv914 = 328
tv924 = 332
l$2 = 336
tv463 = 340
$T3 = 344
tv1429 = 352
tv752 = 360
devclass$ = 368
curr_psw$ = 376
devnam$ = 400
buf$ = 672
__$ArrayPad$ = 1696
regs$ = 1744
NP_update PROC

; 938  : {

  00000	48 89 4c 24 08	 mov	 QWORD PTR [rsp+8], rcx
  00005	56		 push	 rsi
  00006	57		 push	 rdi
  00007	48 81 ec b8 06
	00 00		 sub	 rsp, 1720		; 000006b8H
  0000e	48 8b 05 00 00
	00 00		 mov	 rax, QWORD PTR __security_cookie
  00015	48 33 c4	 xor	 rax, rsp
  00018	48 89 84 24 a0
	06 00 00	 mov	 QWORD PTR __$ArrayPad$[rsp], rax

; 939  :     int     i, n;
; 940  :     int     mode, zhost;
; 941  :     int     cpupct_total;
; 942  :     QWORD   curr_psw;
; 943  :     U32     addr, aaddr;
; 944  :     DEVBLK *dev;
; 945  :     int     online, busy, open;
; 946  :     char   *devclass;
; 947  :     char    devnam[MAX_PATH];
; 948  :     char    buf[1024];
; 949  : 
; 950  :     if (NPhelpup == 1)

  00020	83 3d 00 00 00
	00 01		 cmp	 DWORD PTR NPhelpup, 1
  00027	0f 85 b7 00 00
	00		 jne	 $LN53@NP_update

; 951  :     {
; 952  :         if (NPhelpdown == 1)

  0002d	83 3d 00 00 00
	00 01		 cmp	 DWORD PTR NPhelpdown, 1
  00034	75 32		 jne	 SHORT $LN54@NP_update

; 953  :         {
; 954  :              NP_init();

  00036	e8 00 00 00 00	 call	 NP_init

; 955  :              NP_screen_redraw(regs);

  0003b	48 8b 8c 24 d0
	06 00 00	 mov	 rcx, QWORD PTR regs$[rsp]
  00043	e8 00 00 00 00	 call	 NP_screen_redraw

; 956  :              NPhelpup = 0;

  00048	c7 05 00 00 00
	00 00 00 00 00	 mov	 DWORD PTR NPhelpup, 0

; 957  :              NPhelpdown = 0;

  00052	c7 05 00 00 00
	00 00 00 00 00	 mov	 DWORD PTR NPhelpdown, 0

; 958  :              NPhelppaint = 1;

  0005c	c7 05 00 00 00
	00 01 00 00 00	 mov	 DWORD PTR NPhelppaint, 1

; 959  :         }

  00066	eb 7c		 jmp	 SHORT $LN55@NP_update
$LN54@NP_update:

; 960  :         else
; 961  :         {
; 962  :             if (NPhelppaint)

  00068	83 3d 00 00 00
	00 00		 cmp	 DWORD PTR NPhelppaint, 0
  0006f	74 6e		 je	 SHORT $LN56@NP_update

; 963  :             {
; 964  :                 set_color (COLOR_LIGHT_GREY, COLOR_BLACK);

  00071	33 d2		 xor	 edx, edx
  00073	66 b9 08 00	 mov	 cx, 8
  00077	e8 00 00 00 00	 call	 set_color

; 965  :                 clr_screen ();

  0007c	e8 00 00 00 00	 call	 clr_screen

; 966  :                 for (i = 0; *NPhelp[i]; i++)

  00081	c7 44 24 60 00
	00 00 00	 mov	 DWORD PTR i$[rsp], 0
  00089	eb 0a		 jmp	 SHORT $LN4@NP_update
$LN2@NP_update:
  0008b	8b 44 24 60	 mov	 eax, DWORD PTR i$[rsp]
  0008f	ff c0		 inc	 eax
  00091	89 44 24 60	 mov	 DWORD PTR i$[rsp], eax
$LN4@NP_update:
  00095	48 63 44 24 60	 movsxd	 rax, DWORD PTR i$[rsp]
  0009a	48 8d 0d 00 00
	00 00		 lea	 rcx, OFFSET FLAT:NPhelp
  000a1	48 8b 04 c1	 mov	 rax, QWORD PTR [rcx+rax*8]
  000a5	0f be 00	 movsx	 eax, BYTE PTR [rax]
  000a8	85 c0		 test	 eax, eax
  000aa	74 29		 je	 SHORT $LN3@NP_update

; 967  :                 {
; 968  :                     set_pos (i+1, 1);

  000ac	8b 44 24 60	 mov	 eax, DWORD PTR i$[rsp]
  000b0	ff c0		 inc	 eax
  000b2	66 ba 01 00	 mov	 dx, 1
  000b6	0f b7 c8	 movzx	 ecx, ax
  000b9	e8 00 00 00 00	 call	 set_pos

; 969  :                     draw_text (NPhelp[i]);

  000be	48 63 44 24 60	 movsxd	 rax, DWORD PTR i$[rsp]
  000c3	48 8d 0d 00 00
	00 00		 lea	 rcx, OFFSET FLAT:NPhelp
  000ca	48 8b 0c c1	 mov	 rcx, QWORD PTR [rcx+rax*8]
  000ce	e8 00 00 00 00	 call	 draw_text

; 970  :                 }

  000d3	eb b6		 jmp	 SHORT $LN2@NP_update
$LN3@NP_update:

; 971  :                 NPhelppaint = 0;

  000d5	c7 05 00 00 00
	00 00 00 00 00	 mov	 DWORD PTR NPhelppaint, 0
$LN56@NP_update:

; 972  :             }
; 973  :             return;

  000df	e9 61 23 00 00	 jmp	 $LN1@NP_update
$LN55@NP_update:
$LN53@NP_update:

; 974  :         }
; 975  :     }
; 976  : 
; 977  : #if defined(_FEATURE_SIE)
; 978  :     if(SIE_MODE(regs))

  000e4	48 8b 84 24 d0
	06 00 00	 mov	 rax, QWORD PTR regs$[rsp]
  000ec	8b 80 c8 08 00
	00		 mov	 eax, DWORD PTR [rax+2248]
  000f2	d1 e8		 shr	 eax, 1
  000f4	83 e0 01	 and	 eax, 1
  000f7	85 c0		 test	 eax, eax
  000f9	74 17		 je	 SHORT $LN57@NP_update

; 979  :         regs = HOSTREGS;

  000fb	48 8b 84 24 d0
	06 00 00	 mov	 rax, QWORD PTR regs$[rsp]
  00103	48 8b 80 68 08
	00 00		 mov	 rax, QWORD PTR [rax+2152]
  0010a	48 89 84 24 d0
	06 00 00	 mov	 QWORD PTR regs$[rsp], rax
$LN57@NP_update:

; 980  : #endif /*defined(_FEATURE_SIE)*/
; 981  : 
; 982  :     /* percent CPU busy */
; 983  :     if (sysblk.hicpu)

  00112	48 8b 05 00 00
	00 00		 mov	 rax, QWORD PTR __imp_sysblk
  00119	83 b8 08 01 00
	00 00		 cmp	 DWORD PTR [rax+264], 0
  00120	0f 84 19 01 00
	00		 je	 $LN58@NP_update

; 984  :     {
; 985  :         cpupct_total = 0;

  00126	c7 84 24 88 00
	00 00 00 00 00
	00		 mov	 DWORD PTR cpupct_total$[rsp], 0

; 986  :         n = 0;

  00131	c7 44 24 64 00
	00 00 00	 mov	 DWORD PTR n$[rsp], 0

; 987  :         for ( i = 0; i < sysblk.maxcpu; i++ )

  00139	c7 44 24 60 00
	00 00 00	 mov	 DWORD PTR i$[rsp], 0
  00141	eb 0a		 jmp	 SHORT $LN7@NP_update
$LN5@NP_update:
  00143	8b 44 24 60	 mov	 eax, DWORD PTR i$[rsp]
  00147	ff c0		 inc	 eax
  00149	89 44 24 60	 mov	 DWORD PTR i$[rsp], eax
$LN7@NP_update:
  0014d	48 8b 05 00 00
	00 00		 mov	 rax, QWORD PTR __imp_sysblk
  00154	8b 80 00 01 00
	00		 mov	 eax, DWORD PTR [rax+256]
  0015a	39 44 24 60	 cmp	 DWORD PTR i$[rsp], eax
  0015e	7d 6f		 jge	 SHORT $LN6@NP_update

; 988  :             if ( IS_CPU_ONLINE(i) )

  00160	48 63 44 24 60	 movsxd	 rax, DWORD PTR i$[rsp]
  00165	48 8b 0d 00 00
	00 00		 mov	 rcx, QWORD PTR __imp_sysblk
  0016c	48 83 bc c1 98
	0b 00 00 00	 cmp	 QWORD PTR [rcx+rax*8+2968], 0
  00175	74 53		 je	 SHORT $LN59@NP_update

; 989  :                 if ( sysblk.regs[i]->cpustate == CPUSTATE_STARTED )

  00177	48 63 44 24 60	 movsxd	 rax, DWORD PTR i$[rsp]
  0017c	48 8b 0d 00 00
	00 00		 mov	 rcx, QWORD PTR __imp_sysblk
  00183	48 8b 84 c1 98
	0b 00 00	 mov	 rax, QWORD PTR [rcx+rax*8+2968]
  0018b	0f b6 40 60	 movzx	 eax, BYTE PTR [rax+96]
  0018f	83 f8 01	 cmp	 eax, 1
  00192	75 36		 jne	 SHORT $LN60@NP_update

; 990  :                 {
; 991  :                     n++;

  00194	8b 44 24 64	 mov	 eax, DWORD PTR n$[rsp]
  00198	ff c0		 inc	 eax
  0019a	89 44 24 64	 mov	 DWORD PTR n$[rsp], eax

; 992  :                     cpupct_total += sysblk.regs[i]->cpupct;

  0019e	48 63 44 24 60	 movsxd	 rax, DWORD PTR i$[rsp]
  001a3	48 8b 0d 00 00
	00 00		 mov	 rcx, QWORD PTR __imp_sysblk
  001aa	48 8b 84 c1 98
	0b 00 00	 mov	 rax, QWORD PTR [rcx+rax*8+2968]
  001b2	8b 80 b0 07 00
	00		 mov	 eax, DWORD PTR [rax+1968]
  001b8	8b 8c 24 88 00
	00 00		 mov	 ecx, DWORD PTR cpupct_total$[rsp]
  001bf	03 c8		 add	 ecx, eax
  001c1	8b c1		 mov	 eax, ecx
  001c3	89 84 24 88 00
	00 00		 mov	 DWORD PTR cpupct_total$[rsp], eax
$LN60@NP_update:
$LN59@NP_update:

; 993  :                 }

  001ca	e9 74 ff ff ff	 jmp	 $LN5@NP_update
$LN6@NP_update:

; 994  :         set_color (COLOR_WHITE, COLOR_BLUE);

  001cf	66 ba 03 00	 mov	 dx, 3
  001d3	66 b9 0f 00	 mov	 cx, 15
  001d7	e8 00 00 00 00	 call	 set_color

; 995  :         set_pos (1, 22);

  001dc	66 ba 16 00	 mov	 dx, 22
  001e0	66 b9 01 00	 mov	 cx, 1
  001e4	e8 00 00 00 00	 call	 set_pos

; 996  :         MSGBUF(buf, "%3d", (n > 0 ? cpupct_total/n : 0));

  001e9	83 7c 24 64 00	 cmp	 DWORD PTR n$[rsp], 0
  001ee	7e 15		 jle	 SHORT $LN170@NP_update
  001f0	8b 84 24 88 00
	00 00		 mov	 eax, DWORD PTR cpupct_total$[rsp]
  001f7	99		 cdq
  001f8	f7 7c 24 64	 idiv	 DWORD PTR n$[rsp]
  001fc	89 84 24 1c 01
	00 00		 mov	 DWORD PTR tv153[rsp], eax
  00203	eb 0b		 jmp	 SHORT $LN171@NP_update
$LN170@NP_update:
  00205	c7 84 24 1c 01
	00 00 00 00 00
	00		 mov	 DWORD PTR tv153[rsp], 0
$LN171@NP_update:
  00210	44 8b 8c 24 1c
	01 00 00	 mov	 r9d, DWORD PTR tv153[rsp]
  00218	4c 8d 05 00 00
	00 00		 lea	 r8, OFFSET FLAT:$SG168799
  0021f	ba 00 04 00 00	 mov	 edx, 1024		; 00000400H
  00224	48 8d 8c 24 a0
	02 00 00	 lea	 rcx, QWORD PTR buf$[rsp]
  0022c	ff 15 00 00 00
	00		 call	 QWORD PTR __imp_w32_snprintf

; 997  :         draw_text (buf);

  00232	48 8d 8c 24 a0
	02 00 00	 lea	 rcx, QWORD PTR buf$[rsp]
  0023a	e8 00 00 00 00	 call	 draw_text
$LN58@NP_update:

; 998  :     }
; 999  : 
; 1000 :     if (sysblk.hicpu)

  0023f	48 8b 05 00 00
	00 00		 mov	 rax, QWORD PTR __imp_sysblk
  00246	83 b8 08 01 00
	00 00		 cmp	 DWORD PTR [rax+264], 0
  0024d	0f 84 88 12 00
	00		 je	 $LN61@NP_update

; 1001 :     {
; 1002 : #if defined(_FEATURE_SIE)
; 1003 :         if(regs->sie_active)

  00253	48 8b 84 24 d0
	06 00 00	 mov	 rax, QWORD PTR regs$[rsp]
  0025b	8b 80 c8 08 00
	00		 mov	 eax, DWORD PTR [rax+2248]
  00261	83 e0 01	 and	 eax, 1
  00264	85 c0		 test	 eax, eax
  00266	74 17		 je	 SHORT $LN62@NP_update

; 1004 :             regs = GUESTREGS;

  00268	48 8b 84 24 d0
	06 00 00	 mov	 rax, QWORD PTR regs$[rsp]
  00270	48 8b 80 70 08
	00 00		 mov	 rax, QWORD PTR [rax+2160]
  00277	48 89 84 24 d0
	06 00 00	 mov	 QWORD PTR regs$[rsp], rax
$LN62@NP_update:

; 1005 : #endif /*defined(_FEATURE_SIE)*/
; 1006 : 
; 1007 :         mode = (regs->arch_mode == ARCH_900_IDX);

  0027f	48 8b 84 24 d0
	06 00 00	 mov	 rax, QWORD PTR regs$[rsp]
  00287	83 78 64 02	 cmp	 DWORD PTR [rax+100], 2
  0028b	75 0d		 jne	 SHORT $LN172@NP_update
  0028d	c7 84 24 98 00
	00 00 01 00 00
	00		 mov	 DWORD PTR tv166[rsp], 1
  00298	eb 0b		 jmp	 SHORT $LN173@NP_update
$LN172@NP_update:
  0029a	c7 84 24 98 00
	00 00 00 00 00
	00		 mov	 DWORD PTR tv166[rsp], 0
$LN173@NP_update:
  002a5	8b 84 24 98 00
	00 00		 mov	 eax, DWORD PTR tv166[rsp]
  002ac	89 44 24 70	 mov	 DWORD PTR mode$[rsp], eax

; 1008 :         zhost =

  002b0	83 7c 24 70 00	 cmp	 DWORD PTR mode$[rsp], 0
  002b5	75 39		 jne	 SHORT $LN174@NP_update
  002b7	48 8b 84 24 d0
	06 00 00	 mov	 rax, QWORD PTR regs$[rsp]
  002bf	8b 80 c8 08 00
	00		 mov	 eax, DWORD PTR [rax+2248]
  002c5	d1 e8		 shr	 eax, 1
  002c7	83 e0 01	 and	 eax, 1
  002ca	85 c0		 test	 eax, eax
  002cc	74 22		 je	 SHORT $LN174@NP_update
  002ce	48 8b 84 24 d0
	06 00 00	 mov	 rax, QWORD PTR regs$[rsp]
  002d6	48 8b 80 68 08
	00 00		 mov	 rax, QWORD PTR [rax+2152]
  002dd	83 78 64 02	 cmp	 DWORD PTR [rax+100], 2
  002e1	75 0d		 jne	 SHORT $LN174@NP_update
  002e3	c7 84 24 9c 00
	00 00 01 00 00
	00		 mov	 DWORD PTR tv175[rsp], 1
  002ee	eb 0b		 jmp	 SHORT $LN175@NP_update
$LN174@NP_update:
  002f0	c7 84 24 9c 00
	00 00 00 00 00
	00		 mov	 DWORD PTR tv175[rsp], 0
$LN175@NP_update:
  002fb	8b 84 24 9c 00
	00 00		 mov	 eax, DWORD PTR tv175[rsp]
  00302	89 44 24 74	 mov	 DWORD PTR zhost$[rsp], eax

; 1009 : #if defined(_FEATURE_SIE)
; 1010 :                 !mode && SIE_MODE(regs) && HOSTREGS->arch_mode == ARCH_900_IDX;
; 1011 : #else // !defined(_FEATURE_SIE)
; 1012 :                 0;
; 1013 : #endif // defined(_FEATURE_SIE)
; 1014 : 
; 1015 :         /* Redraw the psw template if the mode changed */
; 1016 :         if (NPpswmode != mode || NPpswzhost != zhost)

  00306	8b 44 24 70	 mov	 eax, DWORD PTR mode$[rsp]
  0030a	39 05 00 00 00
	00		 cmp	 DWORD PTR NPpswmode, eax
  00310	75 10		 jne	 SHORT $LN64@NP_update
  00312	8b 44 24 74	 mov	 eax, DWORD PTR zhost$[rsp]
  00316	39 05 00 00 00
	00		 cmp	 DWORD PTR NPpswzhost, eax
  0031c	0f 84 ac 00 00
	00		 je	 $LN63@NP_update
$LN64@NP_update:

; 1017 :         {
; 1018 :             NPpswmode = mode;

  00322	8b 44 24 70	 mov	 eax, DWORD PTR mode$[rsp]
  00326	89 05 00 00 00
	00		 mov	 DWORD PTR NPpswmode, eax

; 1019 :             NPpswzhost = zhost;

  0032c	8b 44 24 74	 mov	 eax, DWORD PTR zhost$[rsp]
  00330	89 05 00 00 00
	00		 mov	 DWORD PTR NPpswzhost, eax

; 1020 :             NPpsw_valid = NPpswstate_valid = 0;

  00336	c7 05 00 00 00
	00 00 00 00 00	 mov	 DWORD PTR NPpswstate_valid, 0
  00340	8b 05 00 00 00
	00		 mov	 eax, DWORD PTR NPpswstate_valid
  00346	89 05 00 00 00
	00		 mov	 DWORD PTR NPpsw_valid, eax

; 1021 :             set_color (COLOR_LIGHT_GREY, COLOR_BLACK);

  0034c	33 d2		 xor	 edx, edx
  0034e	66 b9 08 00	 mov	 cx, 8
  00352	e8 00 00 00 00	 call	 set_color

; 1022 :             set_pos (PSW_LINE, 1);

  00357	66 ba 01 00	 mov	 dx, 1
  0035b	66 b9 02 00	 mov	 cx, 2
  0035f	e8 00 00 00 00	 call	 set_pos

; 1023 :             fill_text (' ',38);

  00364	66 ba 26 00	 mov	 dx, 38			; 00000026H
  00368	b1 20		 mov	 cl, 32			; 00000020H
  0036a	e8 00 00 00 00	 call	 fill_text

; 1024 :             set_pos (PSW_LINE+1, 1);

  0036f	66 ba 01 00	 mov	 dx, 1
  00373	66 b9 03 00	 mov	 cx, 3
  00377	e8 00 00 00 00	 call	 set_pos

; 1025 :             fill_text (' ', 38);

  0037c	66 ba 26 00	 mov	 dx, 38			; 00000026H
  00380	b1 20		 mov	 cl, 32			; 00000020H
  00382	e8 00 00 00 00	 call	 fill_text

; 1026 :             set_pos (PSW_LINE+1, NPpswmode || NPpswzhost ? 19 : 10);

  00387	83 3d 00 00 00
	00 00		 cmp	 DWORD PTR NPpswmode, 0
  0038e	75 16		 jne	 SHORT $LN176@NP_update
  00390	83 3d 00 00 00
	00 00		 cmp	 DWORD PTR NPpswzhost, 0
  00397	75 0d		 jne	 SHORT $LN176@NP_update
  00399	c7 84 24 a0 00
	00 00 0a 00 00
	00		 mov	 DWORD PTR tv190[rsp], 10
  003a4	eb 0b		 jmp	 SHORT $LN177@NP_update
$LN176@NP_update:
  003a6	c7 84 24 a0 00
	00 00 13 00 00
	00		 mov	 DWORD PTR tv190[rsp], 19
$LN177@NP_update:
  003b1	0f b7 94 24 a0
	00 00 00	 movzx	 edx, WORD PTR tv190[rsp]
  003b9	66 b9 03 00	 mov	 cx, 3
  003bd	e8 00 00 00 00	 call	 set_pos

; 1027 :             draw_text ("PSW");

  003c2	48 8d 0d 00 00
	00 00		 lea	 rcx, OFFSET FLAT:$SG168804
  003c9	e8 00 00 00 00	 call	 draw_text
$LN63@NP_update:

; 1028 :         }
; 1029 : 
; 1030 :         /* Display the psw */
; 1031 :         memset( curr_psw, 0, sizeof( curr_psw ));

  003ce	48 8d 84 24 78
	01 00 00	 lea	 rax, QWORD PTR curr_psw$[rsp]
  003d6	48 8b f8	 mov	 rdi, rax
  003d9	33 c0		 xor	 eax, eax
  003db	b9 10 00 00 00	 mov	 ecx, 16
  003e0	f3 aa		 rep stosb

; 1032 :         copy_psw( regs, curr_psw );

  003e2	48 8d 94 24 78
	01 00 00	 lea	 rdx, QWORD PTR curr_psw$[rsp]
  003ea	48 8b 8c 24 d0
	06 00 00	 mov	 rcx, QWORD PTR regs$[rsp]
  003f2	e8 00 00 00 00	 call	 copy_psw

; 1033 :         if (!NPpsw_valid || memcmp( NPpsw, curr_psw, sizeof( NPpsw )))

  003f7	83 3d 00 00 00
	00 00		 cmp	 DWORD PTR NPpsw_valid, 0
  003fe	74 22		 je	 SHORT $LN66@NP_update
  00400	41 b8 10 00 00
	00		 mov	 r8d, 16
  00406	48 8d 94 24 78
	01 00 00	 lea	 rdx, QWORD PTR curr_psw$[rsp]
  0040e	48 8d 0d 00 00
	00 00		 lea	 rcx, OFFSET FLAT:NPpsw
  00415	e8 00 00 00 00	 call	 memcmp
  0041a	85 c0		 test	 eax, eax
  0041c	0f 84 35 01 00
	00		 je	 $LN65@NP_update
$LN66@NP_update:

; 1034 :         {
; 1035 :             set_color (COLOR_LIGHT_YELLOW, COLOR_BLACK);

  00422	33 d2		 xor	 edx, edx
  00424	66 b9 0e 00	 mov	 cx, 14
  00428	e8 00 00 00 00	 call	 set_color

; 1036 :             set_pos (PSW_LINE, 3);

  0042d	66 ba 03 00	 mov	 dx, 3
  00431	66 b9 02 00	 mov	 cx, 2
  00435	e8 00 00 00 00	 call	 set_pos

; 1037 :             if (mode)

  0043a	83 7c 24 70 00	 cmp	 DWORD PTR mode$[rsp], 0
  0043f	74 4f		 je	 SHORT $LN67@NP_update

; 1038 :             {
; 1039 :                 draw_dw( fetch_dw( curr_psw ));

  00441	48 8d 8c 24 78
	01 00 00	 lea	 rcx, QWORD PTR curr_psw$[rsp]
  00449	e8 00 00 00 00	 call	 fetch_dw_noswap
  0044e	48 8b c8	 mov	 rcx, rax
  00451	e8 00 00 00 00	 call	 _byteswap_uint64
  00456	48 8b c8	 mov	 rcx, rax
  00459	e8 00 00 00 00	 call	 draw_dw

; 1040 :                 set_pos( PSW_LINE, 22 );

  0045e	66 ba 16 00	 mov	 dx, 22
  00462	66 b9 02 00	 mov	 cx, 2
  00466	e8 00 00 00 00	 call	 set_pos

; 1041 :                 draw_dw( fetch_dw( curr_psw + 8 ));

  0046b	48 8d 84 24 80
	01 00 00	 lea	 rax, QWORD PTR curr_psw$[rsp+8]
  00473	48 8b c8	 mov	 rcx, rax
  00476	e8 00 00 00 00	 call	 fetch_dw_noswap
  0047b	48 8b c8	 mov	 rcx, rax
  0047e	e8 00 00 00 00	 call	 _byteswap_uint64
  00483	48 8b c8	 mov	 rcx, rax
  00486	e8 00 00 00 00	 call	 draw_dw

; 1042 :             }

  0048b	e9 a1 00 00 00	 jmp	 $LN68@NP_update
$LN67@NP_update:

; 1043 :             else if (zhost)

  00490	83 7c 24 74 00	 cmp	 DWORD PTR zhost$[rsp], 0
  00495	74 54		 je	 SHORT $LN69@NP_update

; 1044 :             {
; 1045 :                 draw_fw( fetch_fw( curr_psw ));

  00497	48 8d 8c 24 78
	01 00 00	 lea	 rcx, QWORD PTR curr_psw$[rsp]
  0049f	e8 00 00 00 00	 call	 fetch_fw_noswap
  004a4	8b c8		 mov	 ecx, eax
  004a6	e8 00 00 00 00	 call	 _byteswap_ulong
  004ab	8b c8		 mov	 ecx, eax
  004ad	e8 00 00 00 00	 call	 draw_fw

; 1046 :                 draw_fw( fetch_fw( curr_psw + 4 )); /* *JJ */

  004b2	48 8d 84 24 7c
	01 00 00	 lea	 rax, QWORD PTR curr_psw$[rsp+4]
  004ba	48 8b c8	 mov	 rcx, rax
  004bd	e8 00 00 00 00	 call	 fetch_fw_noswap
  004c2	8b c8		 mov	 ecx, eax
  004c4	e8 00 00 00 00	 call	 _byteswap_ulong
  004c9	8b c8		 mov	 ecx, eax
  004cb	e8 00 00 00 00	 call	 draw_fw

; 1047 :                 set_pos( PSW_LINE, 22 );

  004d0	66 ba 16 00	 mov	 dx, 22
  004d4	66 b9 02 00	 mov	 cx, 2
  004d8	e8 00 00 00 00	 call	 set_pos

; 1048 :                 draw_text( "----------------" ); /* *JJ */

  004dd	48 8d 0d 00 00
	00 00		 lea	 rcx, OFFSET FLAT:$SG168811
  004e4	e8 00 00 00 00	 call	 draw_text

; 1049 :             }

  004e9	eb 46		 jmp	 SHORT $LN70@NP_update
$LN69@NP_update:

; 1050 :             else
; 1051 :             {
; 1052 :                 draw_fw( fetch_fw( curr_psw ));

  004eb	48 8d 8c 24 78
	01 00 00	 lea	 rcx, QWORD PTR curr_psw$[rsp]
  004f3	e8 00 00 00 00	 call	 fetch_fw_noswap
  004f8	8b c8		 mov	 ecx, eax
  004fa	e8 00 00 00 00	 call	 _byteswap_ulong
  004ff	8b c8		 mov	 ecx, eax
  00501	e8 00 00 00 00	 call	 draw_fw

; 1053 :                 set_pos( PSW_LINE, 12 );

  00506	66 ba 0c 00	 mov	 dx, 12
  0050a	66 b9 02 00	 mov	 cx, 2
  0050e	e8 00 00 00 00	 call	 set_pos

; 1054 :                 draw_fw( fetch_fw( curr_psw + 4 ));

  00513	48 8d 84 24 7c
	01 00 00	 lea	 rax, QWORD PTR curr_psw$[rsp+4]
  0051b	48 8b c8	 mov	 rcx, rax
  0051e	e8 00 00 00 00	 call	 fetch_fw_noswap
  00523	8b c8		 mov	 ecx, eax
  00525	e8 00 00 00 00	 call	 _byteswap_ulong
  0052a	8b c8		 mov	 ecx, eax
  0052c	e8 00 00 00 00	 call	 draw_fw
$LN70@NP_update:
$LN68@NP_update:

; 1055 :             }
; 1056 :             NPpsw_valid = 1;

  00531	c7 05 00 00 00
	00 01 00 00 00	 mov	 DWORD PTR NPpsw_valid, 1

; 1057 :             memcpy( NPpsw, curr_psw, sizeof( NPpsw ));

  0053b	48 8d 05 00 00
	00 00		 lea	 rax, OFFSET FLAT:NPpsw
  00542	48 8d 8c 24 78
	01 00 00	 lea	 rcx, QWORD PTR curr_psw$[rsp]
  0054a	48 8b f8	 mov	 rdi, rax
  0054d	48 8b f1	 mov	 rsi, rcx
  00550	b9 10 00 00 00	 mov	 ecx, 16
  00555	f3 a4		 rep movsb
$LN65@NP_update:

; 1058 :         }
; 1059 : 
; 1060 :         /* Display psw state */
; 1061 :         MSGBUF (buf, "%2d%c%c%c%c%c%c%c%c",

  00557	83 7c 24 70 00	 cmp	 DWORD PTR mode$[rsp], 0
  0055c	74 0d		 je	 SHORT $LN178@NP_update
  0055e	c7 84 24 a8 00
	00 00 5a 00 00
	00		 mov	 DWORD PTR tv264[rsp], 90 ; 0000005aH
  00569	eb 0b		 jmp	 SHORT $LN179@NP_update
$LN178@NP_update:
  0056b	c7 84 24 a8 00
	00 00 2e 00 00
	00		 mov	 DWORD PTR tv264[rsp], 46 ; 0000002eH
$LN179@NP_update:
  00576	48 8b 84 24 d0
	06 00 00	 mov	 rax, QWORD PTR regs$[rsp]
  0057e	8b 80 c8 08 00
	00		 mov	 eax, DWORD PTR [rax+2248]
  00584	d1 e8		 shr	 eax, 1
  00586	83 e0 01	 and	 eax, 1
  00589	85 c0		 test	 eax, eax
  0058b	74 0d		 je	 SHORT $LN180@NP_update
  0058d	c7 84 24 ac 00
	00 00 53 00 00
	00		 mov	 DWORD PTR tv270[rsp], 83 ; 00000053H
  00598	eb 0b		 jmp	 SHORT $LN181@NP_update
$LN180@NP_update:
  0059a	c7 84 24 ac 00
	00 00 2e 00 00
	00		 mov	 DWORD PTR tv270[rsp], 46 ; 0000002eH
$LN181@NP_update:
  005a5	48 8b 84 24 d0
	06 00 00	 mov	 rax, QWORD PTR regs$[rsp]
  005ad	0f b6 40 7a	 movzx	 eax, BYTE PTR [rax+122]
  005b1	83 e0 01	 and	 eax, 1
  005b4	85 c0		 test	 eax, eax
  005b6	74 0d		 je	 SHORT $LN182@NP_update
  005b8	c7 84 24 b0 00
	00 00 50 00 00
	00		 mov	 DWORD PTR tv276[rsp], 80 ; 00000050H
  005c3	eb 0b		 jmp	 SHORT $LN183@NP_update
$LN182@NP_update:
  005c5	c7 84 24 b0 00
	00 00 2e 00 00
	00		 mov	 DWORD PTR tv276[rsp], 46 ; 0000002eH
$LN183@NP_update:
  005d0	48 8b 84 24 d0
	06 00 00	 mov	 rax, QWORD PTR regs$[rsp]
  005d8	8b 80 28 07 00
	00		 mov	 eax, DWORD PTR [rax+1832]
  005de	c1 e8 05	 shr	 eax, 5
  005e1	83 e0 01	 and	 eax, 1
  005e4	85 c0		 test	 eax, eax
  005e6	74 0d		 je	 SHORT $LN184@NP_update
  005e8	c7 84 24 b4 00
	00 00 43 00 00
	00		 mov	 DWORD PTR tv282[rsp], 67 ; 00000043H
  005f3	eb 0b		 jmp	 SHORT $LN185@NP_update
$LN184@NP_update:
  005f5	c7 84 24 b4 00
	00 00 2e 00 00
	00		 mov	 DWORD PTR tv282[rsp], 46 ; 0000002eH
$LN185@NP_update:
  00600	48 8b 84 24 d0
	06 00 00	 mov	 rax, QWORD PTR regs$[rsp]
  00608	8b 80 28 07 00
	00		 mov	 eax, DWORD PTR [rax+1832]
  0060e	c1 e8 0c	 shr	 eax, 12
  00611	83 e0 01	 and	 eax, 1
  00614	85 c0		 test	 eax, eax
  00616	74 0d		 je	 SHORT $LN186@NP_update
  00618	c7 84 24 b8 00
	00 00 4c 00 00
	00		 mov	 DWORD PTR tv288[rsp], 76 ; 0000004cH
  00623	eb 0b		 jmp	 SHORT $LN187@NP_update
$LN186@NP_update:
  00625	c7 84 24 b8 00
	00 00 2e 00 00
	00		 mov	 DWORD PTR tv288[rsp], 46 ; 0000002eH
$LN187@NP_update:
  00630	48 8b 84 24 d0
	06 00 00	 mov	 rax, QWORD PTR regs$[rsp]
  00638	0f b6 40 7a	 movzx	 eax, BYTE PTR [rax+122]
  0063c	83 e0 02	 and	 eax, 2
  0063f	85 c0		 test	 eax, eax
  00641	74 0d		 je	 SHORT $LN188@NP_update
  00643	c7 84 24 bc 00
	00 00 57 00 00
	00		 mov	 DWORD PTR tv294[rsp], 87 ; 00000057H
  0064e	eb 0b		 jmp	 SHORT $LN189@NP_update
$LN188@NP_update:
  00650	c7 84 24 bc 00
	00 00 2e 00 00
	00		 mov	 DWORD PTR tv294[rsp], 46 ; 0000002eH
$LN189@NP_update:
  0065b	48 8b 05 00 00
	00 00		 mov	 rax, QWORD PTR __imp_sysblk
  00662	8b 80 94 12 00
	00		 mov	 eax, DWORD PTR [rax+4756]
  00668	c1 e8 0a	 shr	 eax, 10
  0066b	83 e0 01	 and	 eax, 1
  0066e	85 c0		 test	 eax, eax
  00670	74 0d		 je	 SHORT $LN190@NP_update
  00672	c7 84 24 c0 00
	00 00 54 00 00
	00		 mov	 DWORD PTR tv300[rsp], 84 ; 00000054H
  0067d	eb 0b		 jmp	 SHORT $LN191@NP_update
$LN190@NP_update:
  0067f	c7 84 24 c0 00
	00 00 2e 00 00
	00		 mov	 DWORD PTR tv300[rsp], 46 ; 0000002eH
$LN191@NP_update:
  0068a	48 8b 84 24 d0
	06 00 00	 mov	 rax, QWORD PTR regs$[rsp]
  00692	0f b6 40 60	 movzx	 eax, BYTE PTR [rax+96]
  00696	83 f8 03	 cmp	 eax, 3
  00699	75 0d		 jne	 SHORT $LN192@NP_update
  0069b	c7 84 24 c4 00
	00 00 4d 00 00
	00		 mov	 DWORD PTR tv305[rsp], 77 ; 0000004dH
  006a6	eb 0b		 jmp	 SHORT $LN193@NP_update
$LN192@NP_update:
  006a8	c7 84 24 c4 00
	00 00 2e 00 00
	00		 mov	 DWORD PTR tv305[rsp], 46 ; 0000002eH
$LN193@NP_update:
  006b3	48 8b 84 24 d0
	06 00 00	 mov	 rax, QWORD PTR regs$[rsp]
  006bb	8b 80 80 00 00
	00		 mov	 eax, DWORD PTR [rax+128]
  006c1	83 e0 01	 and	 eax, 1
  006c4	85 c0		 test	 eax, eax
  006c6	74 0d		 je	 SHORT $LN196@NP_update
  006c8	c7 84 24 c8 00
	00 00 40 00 00
	00		 mov	 DWORD PTR tv315[rsp], 64 ; 00000040H
  006d3	eb 3d		 jmp	 SHORT $LN197@NP_update
$LN196@NP_update:
  006d5	48 8b 84 24 d0
	06 00 00	 mov	 rax, QWORD PTR regs$[rsp]
  006dd	8b 80 80 00 00
	00		 mov	 eax, DWORD PTR [rax+128]
  006e3	d1 e8		 shr	 eax, 1
  006e5	83 e0 01	 and	 eax, 1
  006e8	85 c0		 test	 eax, eax
  006ea	74 0d		 je	 SHORT $LN194@NP_update
  006ec	c7 84 24 a4 00
	00 00 1f 00 00
	00		 mov	 DWORD PTR tv313[rsp], 31
  006f7	eb 0b		 jmp	 SHORT $LN195@NP_update
$LN194@NP_update:
  006f9	c7 84 24 a4 00
	00 00 18 00 00
	00		 mov	 DWORD PTR tv313[rsp], 24
$LN195@NP_update:
  00704	8b 84 24 a4 00
	00 00		 mov	 eax, DWORD PTR tv313[rsp]
  0070b	89 84 24 c8 00
	00 00		 mov	 DWORD PTR tv315[rsp], eax
$LN197@NP_update:
  00712	8b 84 24 a8 00
	00 00		 mov	 eax, DWORD PTR tv264[rsp]
  00719	89 44 24 58	 mov	 DWORD PTR [rsp+88], eax
  0071d	8b 84 24 ac 00
	00 00		 mov	 eax, DWORD PTR tv270[rsp]
  00724	89 44 24 50	 mov	 DWORD PTR [rsp+80], eax
  00728	8b 84 24 b0 00
	00 00		 mov	 eax, DWORD PTR tv276[rsp]
  0072f	89 44 24 48	 mov	 DWORD PTR [rsp+72], eax
  00733	8b 84 24 b4 00
	00 00		 mov	 eax, DWORD PTR tv282[rsp]
  0073a	89 44 24 40	 mov	 DWORD PTR [rsp+64], eax
  0073e	8b 84 24 b8 00
	00 00		 mov	 eax, DWORD PTR tv288[rsp]
  00745	89 44 24 38	 mov	 DWORD PTR [rsp+56], eax
  00749	8b 84 24 bc 00
	00 00		 mov	 eax, DWORD PTR tv294[rsp]
  00750	89 44 24 30	 mov	 DWORD PTR [rsp+48], eax
  00754	8b 84 24 c0 00
	00 00		 mov	 eax, DWORD PTR tv300[rsp]
  0075b	89 44 24 28	 mov	 DWORD PTR [rsp+40], eax
  0075f	8b 84 24 c4 00
	00 00		 mov	 eax, DWORD PTR tv305[rsp]
  00766	89 44 24 20	 mov	 DWORD PTR [rsp+32], eax
  0076a	44 8b 8c 24 c8
	00 00 00	 mov	 r9d, DWORD PTR tv315[rsp]
  00772	4c 8d 05 00 00
	00 00		 lea	 r8, OFFSET FLAT:$SG168812
  00779	ba 00 04 00 00	 mov	 edx, 1024		; 00000400H
  0077e	48 8d 8c 24 a0
	02 00 00	 lea	 rcx, QWORD PTR buf$[rsp]
  00786	ff 15 00 00 00
	00		 call	 QWORD PTR __imp_w32_snprintf

; 1062 :                       regs->psw.amode64                  ? 64  :
; 1063 :                       regs->psw.amode                    ? 31  : 24,
; 1064 :                       regs->cpustate == CPUSTATE_STOPPED ? 'M' : '.',
; 1065 :                       sysblk.instbreak                   ? 'T' : '.',
; 1066 :                       WAITSTATE (&regs->psw)             ? 'W' : '.',
; 1067 :                       regs->loadstate                    ? 'L' : '.',
; 1068 :                       regs->checkstop                    ? 'C' : '.',
; 1069 :                       PROBSTATE(&regs->psw)              ? 'P' : '.',
; 1070 :                       SIE_MODE(regs)                     ? 'S' : '.',
; 1071 :                       mode                               ? 'Z' : '.');
; 1072 :         if (!NPpswstate_valid || strcmp(NPpswstate, buf))

  0078c	83 3d 00 00 00
	00 00		 cmp	 DWORD PTR NPpswstate_valid, 0
  00793	74 18		 je	 SHORT $LN72@NP_update
  00795	48 8d 94 24 a0
	02 00 00	 lea	 rdx, QWORD PTR buf$[rsp]
  0079d	48 8d 0d 00 00
	00 00		 lea	 rcx, OFFSET FLAT:NPpswstate
  007a4	e8 00 00 00 00	 call	 strcmp
  007a9	85 c0		 test	 eax, eax
  007ab	74 74		 je	 SHORT $LN71@NP_update
$LN72@NP_update:

; 1073 :         {
; 1074 :             set_color( COLOR_LIGHT_YELLOW, COLOR_BLACK );

  007ad	33 d2		 xor	 edx, edx
  007af	66 b9 0e 00	 mov	 cx, 14
  007b3	e8 00 00 00 00	 call	 set_color

; 1075 :             set_pos( mode || zhost ? (PSW_LINE+1) : PSW_LINE, 28 );

  007b8	83 7c 24 70 00	 cmp	 DWORD PTR mode$[rsp], 0
  007bd	75 14		 jne	 SHORT $LN198@NP_update
  007bf	83 7c 24 74 00	 cmp	 DWORD PTR zhost$[rsp], 0
  007c4	75 0d		 jne	 SHORT $LN198@NP_update
  007c6	c7 84 24 cc 00
	00 00 02 00 00
	00		 mov	 DWORD PTR tv329[rsp], 2
  007d1	eb 0b		 jmp	 SHORT $LN199@NP_update
$LN198@NP_update:
  007d3	c7 84 24 cc 00
	00 00 03 00 00
	00		 mov	 DWORD PTR tv329[rsp], 3
$LN199@NP_update:
  007de	66 ba 1c 00	 mov	 dx, 28
  007e2	0f b7 8c 24 cc
	00 00 00	 movzx	 ecx, WORD PTR tv329[rsp]
  007ea	e8 00 00 00 00	 call	 set_pos

; 1076 :             draw_text( buf );

  007ef	48 8d 8c 24 a0
	02 00 00	 lea	 rcx, QWORD PTR buf$[rsp]
  007f7	e8 00 00 00 00	 call	 draw_text

; 1077 :             NPpswstate_valid = 1;

  007fc	c7 05 00 00 00
	00 01 00 00 00	 mov	 DWORD PTR NPpswstate_valid, 1

; 1078 :             STRLCPY( NPpswstate, buf );

  00806	41 b8 10 00 00
	00		 mov	 r8d, 16
  0080c	48 8d 94 24 a0
	02 00 00	 lea	 rdx, QWORD PTR buf$[rsp]
  00814	48 8d 0d 00 00
	00 00		 lea	 rcx, OFFSET FLAT:NPpswstate
  0081b	ff 15 00 00 00
	00		 call	 QWORD PTR __imp_strlcpy
$LN71@NP_update:

; 1079 :         }
; 1080 : 
; 1081 :         /* Redraw the register template if the regmode switched */
; 1082 :         mode = (regs->arch_mode == ARCH_900_IDX && (NPregdisp == 0 || NPregdisp == 1));

  00821	48 8b 84 24 d0
	06 00 00	 mov	 rax, QWORD PTR regs$[rsp]
  00829	83 78 64 02	 cmp	 DWORD PTR [rax+100], 2
  0082d	75 1f		 jne	 SHORT $LN201@NP_update
  0082f	83 3d 00 00 00
	00 00		 cmp	 DWORD PTR NPregdisp, 0
  00836	74 09		 je	 SHORT $LN200@NP_update
  00838	83 3d 00 00 00
	00 01		 cmp	 DWORD PTR NPregdisp, 1
  0083f	75 0d		 jne	 SHORT $LN201@NP_update
$LN200@NP_update:
  00841	c7 84 24 d0 00
	00 00 01 00 00
	00		 mov	 DWORD PTR tv340[rsp], 1
  0084c	eb 0b		 jmp	 SHORT $LN202@NP_update
$LN201@NP_update:
  0084e	c7 84 24 d0 00
	00 00 00 00 00
	00		 mov	 DWORD PTR tv340[rsp], 0
$LN202@NP_update:
  00859	8b 84 24 d0 00
	00 00		 mov	 eax, DWORD PTR tv340[rsp]
  00860	89 44 24 70	 mov	 DWORD PTR mode$[rsp], eax

; 1083 :         zhost =

  00864	48 8b 84 24 d0
	06 00 00	 mov	 rax, QWORD PTR regs$[rsp]
  0086c	83 78 64 02	 cmp	 DWORD PTR [rax+100], 2
  00870	74 4b		 je	 SHORT $LN203@NP_update
  00872	48 8b 84 24 d0
	06 00 00	 mov	 rax, QWORD PTR regs$[rsp]
  0087a	8b 80 c8 08 00
	00		 mov	 eax, DWORD PTR [rax+2248]
  00880	d1 e8		 shr	 eax, 1
  00882	83 e0 01	 and	 eax, 1
  00885	85 c0		 test	 eax, eax
  00887	74 34		 je	 SHORT $LN203@NP_update
  00889	48 8b 84 24 d0
	06 00 00	 mov	 rax, QWORD PTR regs$[rsp]
  00891	48 8b 80 68 08
	00 00		 mov	 rax, QWORD PTR [rax+2152]
  00898	83 78 64 02	 cmp	 DWORD PTR [rax+100], 2
  0089c	75 1f		 jne	 SHORT $LN203@NP_update
  0089e	83 3d 00 00 00
	00 00		 cmp	 DWORD PTR NPregdisp, 0
  008a5	74 09		 je	 SHORT $LN204@NP_update
  008a7	83 3d 00 00 00
	00 01		 cmp	 DWORD PTR NPregdisp, 1
  008ae	75 0d		 jne	 SHORT $LN203@NP_update
$LN204@NP_update:
  008b0	c7 84 24 d4 00
	00 00 01 00 00
	00		 mov	 DWORD PTR tv352[rsp], 1
  008bb	eb 0b		 jmp	 SHORT $LN205@NP_update
$LN203@NP_update:
  008bd	c7 84 24 d4 00
	00 00 00 00 00
	00		 mov	 DWORD PTR tv352[rsp], 0
$LN205@NP_update:
  008c8	8b 84 24 d4 00
	00 00		 mov	 eax, DWORD PTR tv352[rsp]
  008cf	89 44 24 74	 mov	 DWORD PTR zhost$[rsp], eax

; 1084 : #if defined(_FEATURE_SIE)
; 1085 :                 (regs->arch_mode != ARCH_900_IDX
; 1086 :               && SIE_MODE(regs) && HOSTREGS->arch_mode == ARCH_900_IDX
; 1087 :               && (NPregdisp == 0 || NPregdisp == 1));
; 1088 : #else // !defined(_FEATURE_SIE)
; 1089 :                      0;
; 1090 : #endif /*defined(_FEATURE_SIE)*/
; 1091 :         if (NPregmode != mode || NPregzhost != zhost)

  008d3	8b 44 24 70	 mov	 eax, DWORD PTR mode$[rsp]
  008d7	39 05 00 00 00
	00		 cmp	 DWORD PTR NPregmode, eax
  008dd	75 10		 jne	 SHORT $LN74@NP_update
  008df	8b 44 24 74	 mov	 eax, DWORD PTR zhost$[rsp]
  008e3	39 05 00 00 00
	00		 cmp	 DWORD PTR NPregzhost, eax
  008e9	0f 84 fc 01 00
	00		 je	 $LN73@NP_update
$LN74@NP_update:

; 1092 :         {
; 1093 :             NPregmode = mode;

  008ef	8b 44 24 70	 mov	 eax, DWORD PTR mode$[rsp]
  008f3	89 05 00 00 00
	00		 mov	 DWORD PTR NPregmode, eax

; 1094 :             NPregzhost = zhost;

  008f9	8b 44 24 74	 mov	 eax, DWORD PTR zhost$[rsp]
  008fd	89 05 00 00 00
	00		 mov	 DWORD PTR NPregzhost, eax

; 1095 :             NPregs_valid = 0;

  00903	c7 05 00 00 00
	00 00 00 00 00	 mov	 DWORD PTR NPregs_valid, 0

; 1096 :             set_color (COLOR_LIGHT_GREY, COLOR_BLACK);

  0090d	33 d2		 xor	 edx, edx
  0090f	66 b9 08 00	 mov	 cx, 8
  00913	e8 00 00 00 00	 call	 set_color

; 1097 :             if (NPregmode || NPregzhost)

  00918	83 3d 00 00 00
	00 00		 cmp	 DWORD PTR NPregmode, 0
  0091f	75 0d		 jne	 SHORT $LN77@NP_update
  00921	83 3d 00 00 00
	00 00		 cmp	 DWORD PTR NPregzhost, 0
  00928	0f 84 9b 00 00
	00		 je	 $LN75@NP_update
$LN77@NP_update:

; 1098 :             {
; 1099 :                 /* 64 bit registers */
; 1100 :                 for (i = 0; i < 8; i++)

  0092e	c7 44 24 60 00
	00 00 00	 mov	 DWORD PTR i$[rsp], 0
  00936	eb 0a		 jmp	 SHORT $LN10@NP_update
$LN8@NP_update:
  00938	8b 44 24 60	 mov	 eax, DWORD PTR i$[rsp]
  0093c	ff c0		 inc	 eax
  0093e	89 44 24 60	 mov	 DWORD PTR i$[rsp], eax
$LN10@NP_update:
  00942	83 7c 24 60 08	 cmp	 DWORD PTR i$[rsp], 8
  00947	7d 7b		 jge	 SHORT $LN9@NP_update

; 1101 :                 {
; 1102 :                     set_pos (REGS_LINE+i, 1);

  00949	8b 44 24 60	 mov	 eax, DWORD PTR i$[rsp]
  0094d	83 c0 05	 add	 eax, 5
  00950	66 ba 01 00	 mov	 dx, 1
  00954	0f b7 c8	 movzx	 ecx, ax
  00957	e8 00 00 00 00	 call	 set_pos

; 1103 :                     fill_text (' ', 38);

  0095c	66 ba 26 00	 mov	 dx, 38			; 00000026H
  00960	b1 20		 mov	 cl, 32			; 00000020H
  00962	e8 00 00 00 00	 call	 fill_text

; 1104 :                     set_pos (REGS_LINE+i, 1);

  00967	8b 44 24 60	 mov	 eax, DWORD PTR i$[rsp]
  0096b	83 c0 05	 add	 eax, 5
  0096e	66 ba 01 00	 mov	 dx, 1
  00972	0f b7 c8	 movzx	 ecx, ax
  00975	e8 00 00 00 00	 call	 set_pos

; 1105 :                     draw_text (NPregnum64[i*2]);

  0097a	8b 44 24 60	 mov	 eax, DWORD PTR i$[rsp]
  0097e	03 c0		 add	 eax, eax
  00980	48 98		 cdqe
  00982	48 8d 0d 00 00
	00 00		 lea	 rcx, OFFSET FLAT:NPregnum64
  00989	48 8b 0c c1	 mov	 rcx, QWORD PTR [rcx+rax*8]
  0098d	e8 00 00 00 00	 call	 draw_text

; 1106 :                     set_pos (REGS_LINE+i, 20);

  00992	8b 44 24 60	 mov	 eax, DWORD PTR i$[rsp]
  00996	83 c0 05	 add	 eax, 5
  00999	66 ba 14 00	 mov	 dx, 20
  0099d	0f b7 c8	 movzx	 ecx, ax
  009a0	e8 00 00 00 00	 call	 set_pos

; 1107 :                     draw_text (NPregnum64[i*2+1]);

  009a5	8b 44 24 60	 mov	 eax, DWORD PTR i$[rsp]
  009a9	8d 44 00 01	 lea	 eax, DWORD PTR [rax+rax+1]
  009ad	48 98		 cdqe
  009af	48 8d 0d 00 00
	00 00		 lea	 rcx, OFFSET FLAT:NPregnum64
  009b6	48 8b 0c c1	 mov	 rcx, QWORD PTR [rcx+rax*8]
  009ba	e8 00 00 00 00	 call	 draw_text

; 1108 :                 }

  009bf	e9 74 ff ff ff	 jmp	 $LN8@NP_update
$LN9@NP_update:

; 1109 :             }

  009c4	e9 22 01 00 00	 jmp	 $LN76@NP_update
$LN75@NP_update:

; 1110 :             else
; 1111 :             {
; 1112 :                 /* 32 bit registers */
; 1113 :                 for (i = 0; i < 4; i++)

  009c9	c7 44 24 60 00
	00 00 00	 mov	 DWORD PTR i$[rsp], 0
  009d1	eb 0a		 jmp	 SHORT $LN13@NP_update
$LN11@NP_update:
  009d3	8b 44 24 60	 mov	 eax, DWORD PTR i$[rsp]
  009d7	ff c0		 inc	 eax
  009d9	89 44 24 60	 mov	 DWORD PTR i$[rsp], eax
$LN13@NP_update:
  009dd	83 7c 24 60 04	 cmp	 DWORD PTR i$[rsp], 4
  009e2	0f 8d 03 01 00
	00		 jge	 $LN12@NP_update

; 1114 :                 {
; 1115 :                     set_pos (i*2+REGS_LINE,1);

  009e8	8b 44 24 60	 mov	 eax, DWORD PTR i$[rsp]
  009ec	8d 44 00 05	 lea	 eax, DWORD PTR [rax+rax+5]
  009f0	66 ba 01 00	 mov	 dx, 1
  009f4	0f b7 c8	 movzx	 ecx, ax
  009f7	e8 00 00 00 00	 call	 set_pos

; 1116 :                     fill_text (' ', 38);

  009fc	66 ba 26 00	 mov	 dx, 38			; 00000026H
  00a00	b1 20		 mov	 cl, 32			; 00000020H
  00a02	e8 00 00 00 00	 call	 fill_text

; 1117 :                     set_pos (i*2+(REGS_LINE+1),1);

  00a07	8b 44 24 60	 mov	 eax, DWORD PTR i$[rsp]
  00a0b	8d 44 00 06	 lea	 eax, DWORD PTR [rax+rax+6]
  00a0f	66 ba 01 00	 mov	 dx, 1
  00a13	0f b7 c8	 movzx	 ecx, ax
  00a16	e8 00 00 00 00	 call	 set_pos

; 1118 :                     fill_text (' ', 38);

  00a1b	66 ba 26 00	 mov	 dx, 38			; 00000026H
  00a1f	b1 20		 mov	 cl, 32			; 00000020H
  00a21	e8 00 00 00 00	 call	 fill_text

; 1119 :                     set_pos (i*2+(REGS_LINE+1),9);

  00a26	8b 44 24 60	 mov	 eax, DWORD PTR i$[rsp]
  00a2a	8d 44 00 06	 lea	 eax, DWORD PTR [rax+rax+6]
  00a2e	66 ba 09 00	 mov	 dx, 9
  00a32	0f b7 c8	 movzx	 ecx, ax
  00a35	e8 00 00 00 00	 call	 set_pos

; 1120 :                     draw_text (NPregnum[i*4]);

  00a3a	8b 44 24 60	 mov	 eax, DWORD PTR i$[rsp]
  00a3e	c1 e0 02	 shl	 eax, 2
  00a41	48 98		 cdqe
  00a43	48 8d 0d 00 00
	00 00		 lea	 rcx, OFFSET FLAT:NPregnum
  00a4a	48 8b 0c c1	 mov	 rcx, QWORD PTR [rcx+rax*8]
  00a4e	e8 00 00 00 00	 call	 draw_text

; 1121 :                     set_pos (i*2+(REGS_LINE+1),18);

  00a53	8b 44 24 60	 mov	 eax, DWORD PTR i$[rsp]
  00a57	8d 44 00 06	 lea	 eax, DWORD PTR [rax+rax+6]
  00a5b	66 ba 12 00	 mov	 dx, 18
  00a5f	0f b7 c8	 movzx	 ecx, ax
  00a62	e8 00 00 00 00	 call	 set_pos

; 1122 :                     draw_text (NPregnum[i*4+1]);

  00a67	8b 44 24 60	 mov	 eax, DWORD PTR i$[rsp]
  00a6b	8d 04 85 01 00
	00 00		 lea	 eax, DWORD PTR [rax*4+1]
  00a72	48 98		 cdqe
  00a74	48 8d 0d 00 00
	00 00		 lea	 rcx, OFFSET FLAT:NPregnum
  00a7b	48 8b 0c c1	 mov	 rcx, QWORD PTR [rcx+rax*8]
  00a7f	e8 00 00 00 00	 call	 draw_text

; 1123 :                     set_pos (i*2+(REGS_LINE+1),27);

  00a84	8b 44 24 60	 mov	 eax, DWORD PTR i$[rsp]
  00a88	8d 44 00 06	 lea	 eax, DWORD PTR [rax+rax+6]
  00a8c	66 ba 1b 00	 mov	 dx, 27
  00a90	0f b7 c8	 movzx	 ecx, ax
  00a93	e8 00 00 00 00	 call	 set_pos

; 1124 :                     draw_text (NPregnum[i*4+2]);

  00a98	8b 44 24 60	 mov	 eax, DWORD PTR i$[rsp]
  00a9c	8d 04 85 02 00
	00 00		 lea	 eax, DWORD PTR [rax*4+2]
  00aa3	48 98		 cdqe
  00aa5	48 8d 0d 00 00
	00 00		 lea	 rcx, OFFSET FLAT:NPregnum
  00aac	48 8b 0c c1	 mov	 rcx, QWORD PTR [rcx+rax*8]
  00ab0	e8 00 00 00 00	 call	 draw_text

; 1125 :                     set_pos (i*2+(REGS_LINE+1),36);

  00ab5	8b 44 24 60	 mov	 eax, DWORD PTR i$[rsp]
  00ab9	8d 44 00 06	 lea	 eax, DWORD PTR [rax+rax+6]
  00abd	66 ba 24 00	 mov	 dx, 36			; 00000024H
  00ac1	0f b7 c8	 movzx	 ecx, ax
  00ac4	e8 00 00 00 00	 call	 set_pos

; 1126 :                     draw_text (NPregnum[i*4+3]);

  00ac9	8b 44 24 60	 mov	 eax, DWORD PTR i$[rsp]
  00acd	8d 04 85 03 00
	00 00		 lea	 eax, DWORD PTR [rax*4+3]
  00ad4	48 98		 cdqe
  00ad6	48 8d 0d 00 00
	00 00		 lea	 rcx, OFFSET FLAT:NPregnum
  00add	48 8b 0c c1	 mov	 rcx, QWORD PTR [rcx+rax*8]
  00ae1	e8 00 00 00 00	 call	 draw_text

; 1127 :                 }

  00ae6	e9 e8 fe ff ff	 jmp	 $LN11@NP_update
$LN12@NP_update:
$LN76@NP_update:
$LN73@NP_update:

; 1128 :             }
; 1129 :         }
; 1130 : 
; 1131 :         /* Display register values */
; 1132 :         set_color (COLOR_LIGHT_YELLOW, COLOR_BLACK );

  00aeb	33 d2		 xor	 edx, edx
  00aed	66 b9 0e 00	 mov	 cx, 14
  00af1	e8 00 00 00 00	 call	 set_color

; 1133 :         if (NPregmode)

  00af6	83 3d 00 00 00
	00 00		 cmp	 DWORD PTR NPregmode, 0
  00afd	0f 84 ae 01 00
	00		 je	 $LN78@NP_update

; 1134 :         {
; 1135 :             /* 64 bit registers */
; 1136 :             for (i = 0; i < 16; i++)

  00b03	c7 44 24 60 00
	00 00 00	 mov	 DWORD PTR i$[rsp], 0
  00b0b	eb 0a		 jmp	 SHORT $LN16@NP_update
$LN14@NP_update:
  00b0d	8b 44 24 60	 mov	 eax, DWORD PTR i$[rsp]
  00b11	ff c0		 inc	 eax
  00b13	89 44 24 60	 mov	 DWORD PTR i$[rsp], eax
$LN16@NP_update:
  00b17	83 7c 24 60 10	 cmp	 DWORD PTR i$[rsp], 16
  00b1c	0f 8d 8a 01 00
	00		 jge	 $LN15@NP_update

; 1137 :             {
; 1138 :                 switch (NPregdisp) {

  00b22	8b 05 00 00 00
	00		 mov	 eax, DWORD PTR NPregdisp
  00b28	89 84 24 d8 00
	00 00		 mov	 DWORD PTR tv450[rsp], eax
  00b2f	83 bc 24 d8 00
	00 00 00	 cmp	 DWORD PTR tv450[rsp], 0
  00b37	74 13		 je	 SHORT $LN80@NP_update
  00b39	83 bc 24 d8 00
	00 00 01	 cmp	 DWORD PTR tv450[rsp], 1
  00b41	0f 84 b0 00 00
	00		 je	 $LN83@NP_update
  00b47	e9 5b 01 00 00	 jmp	 $LN17@NP_update
$LN80@NP_update:

; 1139 :                 case 0:
; 1140 :                     if (!NPregs_valid || NPregs64[i] != regs->GR_G(i))

  00b4c	83 3d 00 00 00
	00 00		 cmp	 DWORD PTR NPregs_valid, 0
  00b53	74 27		 je	 SHORT $LN82@NP_update
  00b55	48 63 44 24 60	 movsxd	 rax, DWORD PTR i$[rsp]
  00b5a	48 8d 0d 00 00
	00 00		 lea	 rcx, OFFSET FLAT:NPregs64
  00b61	48 63 54 24 60	 movsxd	 rdx, DWORD PTR i$[rsp]
  00b66	48 8b bc 24 d0
	06 00 00	 mov	 rdi, QWORD PTR regs$[rsp]
  00b6e	48 8b 94 d7 80
	02 00 00	 mov	 rdx, QWORD PTR [rdi+rdx*8+640]
  00b76	48 39 14 c1	 cmp	 QWORD PTR [rcx+rax*8], rdx
  00b7a	74 76		 je	 SHORT $LN81@NP_update
$LN82@NP_update:

; 1141 :                     {
; 1142 :                         set_pos (REGS_LINE + i/2, 3 + (i%2)*19);

  00b7c	8b 44 24 60	 mov	 eax, DWORD PTR i$[rsp]
  00b80	99		 cdq
  00b81	83 e0 01	 and	 eax, 1
  00b84	33 c2		 xor	 eax, edx
  00b86	2b c2		 sub	 eax, edx
  00b88	6b c0 13	 imul	 eax, eax, 19
  00b8b	83 c0 03	 add	 eax, 3
  00b8e	89 84 24 54 01
	00 00		 mov	 DWORD PTR tv463[rsp], eax
  00b95	8b 44 24 60	 mov	 eax, DWORD PTR i$[rsp]
  00b99	99		 cdq
  00b9a	2b c2		 sub	 eax, edx
  00b9c	d1 f8		 sar	 eax, 1
  00b9e	83 c0 05	 add	 eax, 5
  00ba1	8b 8c 24 54 01
	00 00		 mov	 ecx, DWORD PTR tv463[rsp]
  00ba8	0f b7 d1	 movzx	 edx, cx
  00bab	0f b7 c8	 movzx	 ecx, ax
  00bae	e8 00 00 00 00	 call	 set_pos

; 1143 :                         draw_dw (regs->GR_G(i));

  00bb3	48 63 44 24 60	 movsxd	 rax, DWORD PTR i$[rsp]
  00bb8	48 8b 8c 24 d0
	06 00 00	 mov	 rcx, QWORD PTR regs$[rsp]
  00bc0	48 8b 8c c1 80
	02 00 00	 mov	 rcx, QWORD PTR [rcx+rax*8+640]
  00bc8	e8 00 00 00 00	 call	 draw_dw

; 1144 :                         NPregs64[i] = regs->GR_G(i);

  00bcd	48 63 44 24 60	 movsxd	 rax, DWORD PTR i$[rsp]
  00bd2	48 63 4c 24 60	 movsxd	 rcx, DWORD PTR i$[rsp]
  00bd7	48 8d 15 00 00
	00 00		 lea	 rdx, OFFSET FLAT:NPregs64
  00bde	48 8b bc 24 d0
	06 00 00	 mov	 rdi, QWORD PTR regs$[rsp]
  00be6	48 8b 84 c7 80
	02 00 00	 mov	 rax, QWORD PTR [rdi+rax*8+640]
  00bee	48 89 04 ca	 mov	 QWORD PTR [rdx+rcx*8], rax
$LN81@NP_update:

; 1145 :                     }
; 1146 :                     break;

  00bf2	e9 b0 00 00 00	 jmp	 $LN17@NP_update
$LN83@NP_update:

; 1147 :                 case 1:
; 1148 :                     if (!NPregs_valid || NPregs64[i] != regs->CR_G(i))

  00bf7	83 3d 00 00 00
	00 00		 cmp	 DWORD PTR NPregs_valid, 0
  00bfe	74 2b		 je	 SHORT $LN85@NP_update
  00c00	48 63 44 24 60	 movsxd	 rax, DWORD PTR i$[rsp]
  00c05	48 8d 0d 00 00
	00 00		 lea	 rcx, OFFSET FLAT:NPregs64
  00c0c	8b 54 24 60	 mov	 edx, DWORD PTR i$[rsp]
  00c10	ff c2		 inc	 edx
  00c12	48 63 d2	 movsxd	 rdx, edx
  00c15	48 8b bc 24 d0
	06 00 00	 mov	 rdi, QWORD PTR regs$[rsp]
  00c1d	48 8b 94 d7 00
	06 00 00	 mov	 rdx, QWORD PTR [rdi+rdx*8+1536]
  00c25	48 39 14 c1	 cmp	 QWORD PTR [rcx+rax*8], rdx
  00c29	74 7c		 je	 SHORT $LN84@NP_update
$LN85@NP_update:

; 1149 :                     {
; 1150 :                         set_pos (REGS_LINE + i/2, 3 + (i%2)*19);

  00c2b	8b 44 24 60	 mov	 eax, DWORD PTR i$[rsp]
  00c2f	99		 cdq
  00c30	83 e0 01	 and	 eax, 1
  00c33	33 c2		 xor	 eax, edx
  00c35	2b c2		 sub	 eax, edx
  00c37	6b c0 13	 imul	 eax, eax, 19
  00c3a	83 c0 03	 add	 eax, 3
  00c3d	89 84 24 20 01
	00 00		 mov	 DWORD PTR tv497[rsp], eax
  00c44	8b 44 24 60	 mov	 eax, DWORD PTR i$[rsp]
  00c48	99		 cdq
  00c49	2b c2		 sub	 eax, edx
  00c4b	d1 f8		 sar	 eax, 1
  00c4d	83 c0 05	 add	 eax, 5
  00c50	8b 8c 24 20 01
	00 00		 mov	 ecx, DWORD PTR tv497[rsp]
  00c57	0f b7 d1	 movzx	 edx, cx
  00c5a	0f b7 c8	 movzx	 ecx, ax
  00c5d	e8 00 00 00 00	 call	 set_pos

; 1151 :                         draw_dw (regs->CR_G(i));

  00c62	8b 44 24 60	 mov	 eax, DWORD PTR i$[rsp]
  00c66	ff c0		 inc	 eax
  00c68	48 98		 cdqe
  00c6a	48 8b 8c 24 d0
	06 00 00	 mov	 rcx, QWORD PTR regs$[rsp]
  00c72	48 8b 8c c1 00
	06 00 00	 mov	 rcx, QWORD PTR [rcx+rax*8+1536]
  00c7a	e8 00 00 00 00	 call	 draw_dw

; 1152 :                         NPregs64[i] = regs->CR_G(i);

  00c7f	8b 44 24 60	 mov	 eax, DWORD PTR i$[rsp]
  00c83	ff c0		 inc	 eax
  00c85	48 98		 cdqe
  00c87	48 63 4c 24 60	 movsxd	 rcx, DWORD PTR i$[rsp]
  00c8c	48 8d 15 00 00
	00 00		 lea	 rdx, OFFSET FLAT:NPregs64
  00c93	48 8b bc 24 d0
	06 00 00	 mov	 rdi, QWORD PTR regs$[rsp]
  00c9b	48 8b 84 c7 00
	06 00 00	 mov	 rax, QWORD PTR [rdi+rax*8+1536]
  00ca3	48 89 04 ca	 mov	 QWORD PTR [rdx+rcx*8], rax
$LN84@NP_update:
$LN17@NP_update:

; 1153 :                     }
; 1154 :                     break;
; 1155 :                 }
; 1156 :             }

  00ca7	e9 61 fe ff ff	 jmp	 $LN14@NP_update
$LN15@NP_update:

; 1157 :         }

  00cac	e9 8b 06 00 00	 jmp	 $LN79@NP_update
$LN78@NP_update:

; 1158 :         else if (NPregzhost)

  00cb1	83 3d 00 00 00
	00 00		 cmp	 DWORD PTR NPregzhost, 0
  00cb8	0f 84 c0 01 00
	00		 je	 $LN86@NP_update

; 1159 :         {
; 1160 :             /* 32 bit registers on 64 bit template */
; 1161 :             for (i = 0; i < 16; i++)

  00cbe	c7 44 24 60 00
	00 00 00	 mov	 DWORD PTR i$[rsp], 0
  00cc6	eb 0a		 jmp	 SHORT $LN21@NP_update
$LN19@NP_update:
  00cc8	8b 44 24 60	 mov	 eax, DWORD PTR i$[rsp]
  00ccc	ff c0		 inc	 eax
  00cce	89 44 24 60	 mov	 DWORD PTR i$[rsp], eax
$LN21@NP_update:
  00cd2	83 7c 24 60 10	 cmp	 DWORD PTR i$[rsp], 16
  00cd7	0f 8d 9c 01 00
	00		 jge	 $LN20@NP_update

; 1162 :             {
; 1163 :                 switch (NPregdisp) {

  00cdd	8b 05 00 00 00
	00		 mov	 eax, DWORD PTR NPregdisp
  00ce3	89 84 24 dc 00
	00 00		 mov	 DWORD PTR tv525[rsp], eax
  00cea	83 bc 24 dc 00
	00 00 00	 cmp	 DWORD PTR tv525[rsp], 0
  00cf2	74 13		 je	 SHORT $LN88@NP_update
  00cf4	83 bc 24 dc 00
	00 00 01	 cmp	 DWORD PTR tv525[rsp], 1
  00cfc	0f 84 b7 00 00
	00		 je	 $LN91@NP_update
  00d02	e9 6d 01 00 00	 jmp	 $LN22@NP_update
$LN88@NP_update:

; 1164 :                 case 0:
; 1165 :                     if (!NPregs_valid || NPregs[i] != regs->GR_L(i))

  00d07	83 3d 00 00 00
	00 00		 cmp	 DWORD PTR NPregs_valid, 0
  00d0e	74 25		 je	 SHORT $LN90@NP_update
  00d10	48 63 44 24 60	 movsxd	 rax, DWORD PTR i$[rsp]
  00d15	48 8d 0d 00 00
	00 00		 lea	 rcx, OFFSET FLAT:NPregs
  00d1c	48 63 54 24 60	 movsxd	 rdx, DWORD PTR i$[rsp]
  00d21	48 8b bc 24 d0
	06 00 00	 mov	 rdi, QWORD PTR regs$[rsp]
  00d29	8b 94 d7 80 02
	00 00		 mov	 edx, DWORD PTR [rdi+rdx*8+640]
  00d30	39 14 81	 cmp	 DWORD PTR [rcx+rax*4], edx
  00d33	74 7f		 je	 SHORT $LN89@NP_update
$LN90@NP_update:

; 1166 :                     {
; 1167 :                         set_pos (REGS_LINE + i/2, 3 + (i%2)*19);

  00d35	8b 44 24 60	 mov	 eax, DWORD PTR i$[rsp]
  00d39	99		 cdq
  00d3a	83 e0 01	 and	 eax, 1
  00d3d	33 c2		 xor	 eax, edx
  00d3f	2b c2		 sub	 eax, edx
  00d41	6b c0 13	 imul	 eax, eax, 19
  00d44	83 c0 03	 add	 eax, 3
  00d47	89 84 24 24 01
	00 00		 mov	 DWORD PTR tv538[rsp], eax
  00d4e	8b 44 24 60	 mov	 eax, DWORD PTR i$[rsp]
  00d52	99		 cdq
  00d53	2b c2		 sub	 eax, edx
  00d55	d1 f8		 sar	 eax, 1
  00d57	83 c0 05	 add	 eax, 5
  00d5a	8b 8c 24 24 01
	00 00		 mov	 ecx, DWORD PTR tv538[rsp]
  00d61	0f b7 d1	 movzx	 edx, cx
  00d64	0f b7 c8	 movzx	 ecx, ax
  00d67	e8 00 00 00 00	 call	 set_pos

; 1168 : //                      draw_fw (0);
; 1169 :                         draw_text("--------");

  00d6c	48 8d 0d 00 00
	00 00		 lea	 rcx, OFFSET FLAT:$SG168833
  00d73	e8 00 00 00 00	 call	 draw_text

; 1170 :                         draw_fw (regs->GR_L(i));

  00d78	48 63 44 24 60	 movsxd	 rax, DWORD PTR i$[rsp]
  00d7d	48 8b 8c 24 d0
	06 00 00	 mov	 rcx, QWORD PTR regs$[rsp]
  00d85	8b 8c c1 80 02
	00 00		 mov	 ecx, DWORD PTR [rcx+rax*8+640]
  00d8c	e8 00 00 00 00	 call	 draw_fw

; 1171 :                         NPregs[i] = regs->GR_L(i);

  00d91	48 63 44 24 60	 movsxd	 rax, DWORD PTR i$[rsp]
  00d96	48 63 4c 24 60	 movsxd	 rcx, DWORD PTR i$[rsp]
  00d9b	48 8d 15 00 00
	00 00		 lea	 rdx, OFFSET FLAT:NPregs
  00da2	48 8b bc 24 d0
	06 00 00	 mov	 rdi, QWORD PTR regs$[rsp]
  00daa	8b 84 c7 80 02
	00 00		 mov	 eax, DWORD PTR [rdi+rax*8+640]
  00db1	89 04 8a	 mov	 DWORD PTR [rdx+rcx*4], eax
$LN89@NP_update:

; 1172 :                     }
; 1173 :                     break;

  00db4	e9 bb 00 00 00	 jmp	 $LN22@NP_update
$LN91@NP_update:

; 1174 :                 case 1:
; 1175 :                     if (!NPregs_valid || NPregs[i] != regs->CR_L(i))

  00db9	83 3d 00 00 00
	00 00		 cmp	 DWORD PTR NPregs_valid, 0
  00dc0	74 2d		 je	 SHORT $LN93@NP_update
  00dc2	48 63 44 24 60	 movsxd	 rax, DWORD PTR i$[rsp]
  00dc7	48 8d 0d 00 00
	00 00		 lea	 rcx, OFFSET FLAT:NPregs
  00dce	8b 54 24 60	 mov	 edx, DWORD PTR i$[rsp]
  00dd2	ff c2		 inc	 edx
  00dd4	48 63 d2	 movsxd	 rdx, edx
  00dd7	48 8b bc 24 d0
	06 00 00	 mov	 rdi, QWORD PTR regs$[rsp]
  00ddf	8b 94 d7 00 06
	00 00		 mov	 edx, DWORD PTR [rdi+rdx*8+1536]
  00de6	39 14 81	 cmp	 DWORD PTR [rcx+rax*4], edx
  00de9	0f 84 85 00 00
	00		 je	 $LN92@NP_update
$LN93@NP_update:

; 1176 :                     {
; 1177 :                         set_pos (REGS_LINE + i/2, 3 + (i%2)*19);

  00def	8b 44 24 60	 mov	 eax, DWORD PTR i$[rsp]
  00df3	99		 cdq
  00df4	83 e0 01	 and	 eax, 1
  00df7	33 c2		 xor	 eax, edx
  00df9	2b c2		 sub	 eax, edx
  00dfb	6b c0 13	 imul	 eax, eax, 19
  00dfe	83 c0 03	 add	 eax, 3
  00e01	89 84 24 28 01
	00 00		 mov	 DWORD PTR tv573[rsp], eax
  00e08	8b 44 24 60	 mov	 eax, DWORD PTR i$[rsp]
  00e0c	99		 cdq
  00e0d	2b c2		 sub	 eax, edx
  00e0f	d1 f8		 sar	 eax, 1
  00e11	83 c0 05	 add	 eax, 5
  00e14	8b 8c 24 28 01
	00 00		 mov	 ecx, DWORD PTR tv573[rsp]
  00e1b	0f b7 d1	 movzx	 edx, cx
  00e1e	0f b7 c8	 movzx	 ecx, ax
  00e21	e8 00 00 00 00	 call	 set_pos

; 1178 : //                      draw_fw (0);
; 1179 :                         draw_text("--------");

  00e26	48 8d 0d 00 00
	00 00		 lea	 rcx, OFFSET FLAT:$SG168837
  00e2d	e8 00 00 00 00	 call	 draw_text

; 1180 :                         draw_fw (regs->CR_L(i));

  00e32	8b 44 24 60	 mov	 eax, DWORD PTR i$[rsp]
  00e36	ff c0		 inc	 eax
  00e38	48 98		 cdqe
  00e3a	48 8b 8c 24 d0
	06 00 00	 mov	 rcx, QWORD PTR regs$[rsp]
  00e42	8b 8c c1 00 06
	00 00		 mov	 ecx, DWORD PTR [rcx+rax*8+1536]
  00e49	e8 00 00 00 00	 call	 draw_fw

; 1181 :                         NPregs[i] = regs->CR_L(i);

  00e4e	8b 44 24 60	 mov	 eax, DWORD PTR i$[rsp]
  00e52	ff c0		 inc	 eax
  00e54	48 98		 cdqe
  00e56	48 63 4c 24 60	 movsxd	 rcx, DWORD PTR i$[rsp]
  00e5b	48 8d 15 00 00
	00 00		 lea	 rdx, OFFSET FLAT:NPregs
  00e62	48 8b bc 24 d0
	06 00 00	 mov	 rdi, QWORD PTR regs$[rsp]
  00e6a	8b 84 c7 00 06
	00 00		 mov	 eax, DWORD PTR [rdi+rax*8+1536]
  00e71	89 04 8a	 mov	 DWORD PTR [rdx+rcx*4], eax
$LN92@NP_update:
$LN22@NP_update:

; 1182 :                     }
; 1183 :                     break;
; 1184 :                 }
; 1185 :             }

  00e74	e9 4f fe ff ff	 jmp	 $LN19@NP_update
$LN20@NP_update:

; 1186 :         }

  00e79	e9 be 04 00 00	 jmp	 $LN87@NP_update
$LN86@NP_update:

; 1187 :         else
; 1188 :         {
; 1189 :             /* 32 bit registers */
; 1190 :             addr = NPaddress;

  00e7e	8b 05 00 00 00
	00		 mov	 eax, DWORD PTR NPaddress
  00e84	89 44 24 78	 mov	 DWORD PTR addr$[rsp], eax

; 1191 :             for (i = 0; i < 16; i++)

  00e88	c7 44 24 60 00
	00 00 00	 mov	 DWORD PTR i$[rsp], 0
  00e90	eb 0a		 jmp	 SHORT $LN26@NP_update
$LN24@NP_update:
  00e92	8b 44 24 60	 mov	 eax, DWORD PTR i$[rsp]
  00e96	ff c0		 inc	 eax
  00e98	89 44 24 60	 mov	 DWORD PTR i$[rsp], eax
$LN26@NP_update:
  00e9c	83 7c 24 60 10	 cmp	 DWORD PTR i$[rsp], 16
  00ea1	0f 8d 95 04 00
	00		 jge	 $LN25@NP_update

; 1192 :             {
; 1193 :                 switch (NPregdisp) {

  00ea7	8b 05 00 00 00
	00		 mov	 eax, DWORD PTR NPregdisp
  00ead	89 44 24 7c	 mov	 DWORD PTR tv601[rsp], eax
  00eb1	83 7c 24 7c 00	 cmp	 DWORD PTR tv601[rsp], 0
  00eb6	74 2c		 je	 SHORT $LN95@NP_update
  00eb8	83 7c 24 7c 01	 cmp	 DWORD PTR tv601[rsp], 1
  00ebd	0f 84 cf 00 00
	00		 je	 $LN98@NP_update
  00ec3	83 7c 24 7c 02	 cmp	 DWORD PTR tv601[rsp], 2
  00ec8	0f 84 80 01 00
	00		 je	 $LN101@NP_update
  00ece	83 7c 24 7c 03	 cmp	 DWORD PTR tv601[rsp], 3
  00ed3	0f 84 23 02 00
	00		 je	 $LN104@NP_update
  00ed9	83 7c 24 7c 04	 cmp	 DWORD PTR tv601[rsp], 4
  00ede	0f 84 c6 02 00
	00		 je	 $LN107@NP_update
$LN95@NP_update:

; 1194 :                 default:
; 1195 :                 case 0:
; 1196 :                     if (!NPregs_valid || NPregs[i] != regs->GR_L(i))

  00ee4	83 3d 00 00 00
	00 00		 cmp	 DWORD PTR NPregs_valid, 0
  00eeb	74 25		 je	 SHORT $LN97@NP_update
  00eed	48 63 44 24 60	 movsxd	 rax, DWORD PTR i$[rsp]
  00ef2	48 8d 0d 00 00
	00 00		 lea	 rcx, OFFSET FLAT:NPregs
  00ef9	48 63 54 24 60	 movsxd	 rdx, DWORD PTR i$[rsp]
  00efe	48 8b bc 24 d0
	06 00 00	 mov	 rdi, QWORD PTR regs$[rsp]
  00f06	8b 94 d7 80 02
	00 00		 mov	 edx, DWORD PTR [rdi+rdx*8+640]
  00f0d	39 14 81	 cmp	 DWORD PTR [rcx+rax*4], edx
  00f10	74 7b		 je	 SHORT $LN96@NP_update
$LN97@NP_update:

; 1197 :                     {
; 1198 :                         set_pos (REGS_LINE + (i/4)*2, 3 + (i%4)*9);

  00f12	8b 44 24 60	 mov	 eax, DWORD PTR i$[rsp]
  00f16	99		 cdq
  00f17	83 e2 03	 and	 edx, 3
  00f1a	03 c2		 add	 eax, edx
  00f1c	83 e0 03	 and	 eax, 3
  00f1f	2b c2		 sub	 eax, edx
  00f21	6b c0 09	 imul	 eax, eax, 9
  00f24	83 c0 03	 add	 eax, 3
  00f27	89 84 24 2c 01
	00 00		 mov	 DWORD PTR tv614[rsp], eax
  00f2e	8b 44 24 60	 mov	 eax, DWORD PTR i$[rsp]
  00f32	99		 cdq
  00f33	83 e2 03	 and	 edx, 3
  00f36	03 c2		 add	 eax, edx
  00f38	c1 f8 02	 sar	 eax, 2
  00f3b	8d 44 00 05	 lea	 eax, DWORD PTR [rax+rax+5]
  00f3f	8b 8c 24 2c 01
	00 00		 mov	 ecx, DWORD PTR tv614[rsp]
  00f46	0f b7 d1	 movzx	 edx, cx
  00f49	0f b7 c8	 movzx	 ecx, ax
  00f4c	e8 00 00 00 00	 call	 set_pos

; 1199 :                         draw_fw (regs->GR_L(i));

  00f51	48 63 44 24 60	 movsxd	 rax, DWORD PTR i$[rsp]
  00f56	48 8b 8c 24 d0
	06 00 00	 mov	 rcx, QWORD PTR regs$[rsp]
  00f5e	8b 8c c1 80 02
	00 00		 mov	 ecx, DWORD PTR [rcx+rax*8+640]
  00f65	e8 00 00 00 00	 call	 draw_fw

; 1200 :                         NPregs[i] = regs->GR_L(i);

  00f6a	48 63 44 24 60	 movsxd	 rax, DWORD PTR i$[rsp]
  00f6f	48 63 4c 24 60	 movsxd	 rcx, DWORD PTR i$[rsp]
  00f74	48 8d 15 00 00
	00 00		 lea	 rdx, OFFSET FLAT:NPregs
  00f7b	48 8b bc 24 d0
	06 00 00	 mov	 rdi, QWORD PTR regs$[rsp]
  00f83	8b 84 c7 80 02
	00 00		 mov	 eax, DWORD PTR [rdi+rax*8+640]
  00f8a	89 04 8a	 mov	 DWORD PTR [rdx+rcx*4], eax
$LN96@NP_update:

; 1201 :                     }
; 1202 :                     break;

  00f8d	e9 a5 03 00 00	 jmp	 $LN27@NP_update
$LN98@NP_update:

; 1203 :                 case 1:
; 1204 :                     if (!NPregs_valid || NPregs[i] != regs->CR_L(i))

  00f92	83 3d 00 00 00
	00 00		 cmp	 DWORD PTR NPregs_valid, 0
  00f99	74 2d		 je	 SHORT $LN100@NP_update
  00f9b	48 63 44 24 60	 movsxd	 rax, DWORD PTR i$[rsp]
  00fa0	48 8d 0d 00 00
	00 00		 lea	 rcx, OFFSET FLAT:NPregs
  00fa7	8b 54 24 60	 mov	 edx, DWORD PTR i$[rsp]
  00fab	ff c2		 inc	 edx
  00fad	48 63 d2	 movsxd	 rdx, edx
  00fb0	48 8b bc 24 d0
	06 00 00	 mov	 rdi, QWORD PTR regs$[rsp]
  00fb8	8b 94 d7 00 06
	00 00		 mov	 edx, DWORD PTR [rdi+rdx*8+1536]
  00fbf	39 14 81	 cmp	 DWORD PTR [rcx+rax*4], edx
  00fc2	0f 84 81 00 00
	00		 je	 $LN99@NP_update
$LN100@NP_update:

; 1205 :                     {
; 1206 :                         set_pos (REGS_LINE + (i/4)*2, 3 + (i%4)*9);

  00fc8	8b 44 24 60	 mov	 eax, DWORD PTR i$[rsp]
  00fcc	99		 cdq
  00fcd	83 e2 03	 and	 edx, 3
  00fd0	03 c2		 add	 eax, edx
  00fd2	83 e0 03	 and	 eax, 3
  00fd5	2b c2		 sub	 eax, edx
  00fd7	6b c0 09	 imul	 eax, eax, 9
  00fda	83 c0 03	 add	 eax, 3
  00fdd	89 84 24 30 01
	00 00		 mov	 DWORD PTR tv649[rsp], eax
  00fe4	8b 44 24 60	 mov	 eax, DWORD PTR i$[rsp]
  00fe8	99		 cdq
  00fe9	83 e2 03	 and	 edx, 3
  00fec	03 c2		 add	 eax, edx
  00fee	c1 f8 02	 sar	 eax, 2
  00ff1	8d 44 00 05	 lea	 eax, DWORD PTR [rax+rax+5]
  00ff5	8b 8c 24 30 01
	00 00		 mov	 ecx, DWORD PTR tv649[rsp]
  00ffc	0f b7 d1	 movzx	 edx, cx
  00fff	0f b7 c8	 movzx	 ecx, ax
  01002	e8 00 00 00 00	 call	 set_pos

; 1207 :                         draw_fw (regs->CR_L(i));

  01007	8b 44 24 60	 mov	 eax, DWORD PTR i$[rsp]
  0100b	ff c0		 inc	 eax
  0100d	48 98		 cdqe
  0100f	48 8b 8c 24 d0
	06 00 00	 mov	 rcx, QWORD PTR regs$[rsp]
  01017	8b 8c c1 00 06
	00 00		 mov	 ecx, DWORD PTR [rcx+rax*8+1536]
  0101e	e8 00 00 00 00	 call	 draw_fw

; 1208 :                         NPregs[i] = regs->CR_L(i);

  01023	8b 44 24 60	 mov	 eax, DWORD PTR i$[rsp]
  01027	ff c0		 inc	 eax
  01029	48 98		 cdqe
  0102b	48 63 4c 24 60	 movsxd	 rcx, DWORD PTR i$[rsp]
  01030	48 8d 15 00 00
	00 00		 lea	 rdx, OFFSET FLAT:NPregs
  01037	48 8b bc 24 d0
	06 00 00	 mov	 rdi, QWORD PTR regs$[rsp]
  0103f	8b 84 c7 00 06
	00 00		 mov	 eax, DWORD PTR [rdi+rax*8+1536]
  01046	89 04 8a	 mov	 DWORD PTR [rdx+rcx*4], eax
$LN99@NP_update:

; 1209 :                     }
; 1210 :                     break;

  01049	e9 e9 02 00 00	 jmp	 $LN27@NP_update
$LN101@NP_update:

; 1211 :                 case 2:
; 1212 :                     if (!NPregs_valid || NPregs[i] != regs->AR(i))

  0104e	83 3d 00 00 00
	00 00		 cmp	 DWORD PTR NPregs_valid, 0
  01055	74 25		 je	 SHORT $LN103@NP_update
  01057	48 63 44 24 60	 movsxd	 rax, DWORD PTR i$[rsp]
  0105c	48 8d 0d 00 00
	00 00		 lea	 rcx, OFFSET FLAT:NPregs
  01063	48 63 54 24 60	 movsxd	 rdx, DWORD PTR i$[rsp]
  01068	48 8b bc 24 d0
	06 00 00	 mov	 rdi, QWORD PTR regs$[rsp]
  01070	8b 94 97 00 03
	00 00		 mov	 edx, DWORD PTR [rdi+rdx*4+768]
  01077	39 14 81	 cmp	 DWORD PTR [rcx+rax*4], edx
  0107a	74 7b		 je	 SHORT $LN102@NP_update
$LN103@NP_update:

; 1213 :                     {
; 1214 :                         set_pos (REGS_LINE + (i/4)*2, 3 + (i%4)*9);

  0107c	8b 44 24 60	 mov	 eax, DWORD PTR i$[rsp]
  01080	99		 cdq
  01081	83 e2 03	 and	 edx, 3
  01084	03 c2		 add	 eax, edx
  01086	83 e0 03	 and	 eax, 3
  01089	2b c2		 sub	 eax, edx
  0108b	6b c0 09	 imul	 eax, eax, 9
  0108e	83 c0 03	 add	 eax, 3
  01091	89 84 24 34 01
	00 00		 mov	 DWORD PTR tv684[rsp], eax
  01098	8b 44 24 60	 mov	 eax, DWORD PTR i$[rsp]
  0109c	99		 cdq
  0109d	83 e2 03	 and	 edx, 3
  010a0	03 c2		 add	 eax, edx
  010a2	c1 f8 02	 sar	 eax, 2
  010a5	8d 44 00 05	 lea	 eax, DWORD PTR [rax+rax+5]
  010a9	8b 8c 24 34 01
	00 00		 mov	 ecx, DWORD PTR tv684[rsp]
  010b0	0f b7 d1	 movzx	 edx, cx
  010b3	0f b7 c8	 movzx	 ecx, ax
  010b6	e8 00 00 00 00	 call	 set_pos

; 1215 :                         draw_fw (regs->AR(i));

  010bb	48 63 44 24 60	 movsxd	 rax, DWORD PTR i$[rsp]
  010c0	48 8b 8c 24 d0
	06 00 00	 mov	 rcx, QWORD PTR regs$[rsp]
  010c8	8b 8c 81 00 03
	00 00		 mov	 ecx, DWORD PTR [rcx+rax*4+768]
  010cf	e8 00 00 00 00	 call	 draw_fw

; 1216 :                         NPregs[i] = regs->AR(i);

  010d4	48 63 44 24 60	 movsxd	 rax, DWORD PTR i$[rsp]
  010d9	48 63 4c 24 60	 movsxd	 rcx, DWORD PTR i$[rsp]
  010de	48 8d 15 00 00
	00 00		 lea	 rdx, OFFSET FLAT:NPregs
  010e5	48 8b bc 24 d0
	06 00 00	 mov	 rdi, QWORD PTR regs$[rsp]
  010ed	8b 84 87 00 03
	00 00		 mov	 eax, DWORD PTR [rdi+rax*4+768]
  010f4	89 04 8a	 mov	 DWORD PTR [rdx+rcx*4], eax
$LN102@NP_update:

; 1217 :                     }
; 1218 :                     break;

  010f7	e9 3b 02 00 00	 jmp	 $LN27@NP_update
$LN104@NP_update:

; 1219 :                 case 3:
; 1220 :                     if (!NPregs_valid || NPregs[i] != regs->fpr[i])

  010fc	83 3d 00 00 00
	00 00		 cmp	 DWORD PTR NPregs_valid, 0
  01103	74 25		 je	 SHORT $LN106@NP_update
  01105	48 63 44 24 60	 movsxd	 rax, DWORD PTR i$[rsp]
  0110a	48 8d 0d 00 00
	00 00		 lea	 rcx, OFFSET FLAT:NPregs
  01111	48 63 54 24 60	 movsxd	 rdx, DWORD PTR i$[rsp]
  01116	48 8b bc 24 d0
	06 00 00	 mov	 rdi, QWORD PTR regs$[rsp]
  0111e	8b 94 97 40 03
	00 00		 mov	 edx, DWORD PTR [rdi+rdx*4+832]
  01125	39 14 81	 cmp	 DWORD PTR [rcx+rax*4], edx
  01128	74 7b		 je	 SHORT $LN105@NP_update
$LN106@NP_update:

; 1221 :                     {
; 1222 :                         set_pos (REGS_LINE + (i/4)*2, 3 + (i%4)*9);

  0112a	8b 44 24 60	 mov	 eax, DWORD PTR i$[rsp]
  0112e	99		 cdq
  0112f	83 e2 03	 and	 edx, 3
  01132	03 c2		 add	 eax, edx
  01134	83 e0 03	 and	 eax, 3
  01137	2b c2		 sub	 eax, edx
  01139	6b c0 09	 imul	 eax, eax, 9
  0113c	83 c0 03	 add	 eax, 3
  0113f	89 84 24 38 01
	00 00		 mov	 DWORD PTR tv715[rsp], eax
  01146	8b 44 24 60	 mov	 eax, DWORD PTR i$[rsp]
  0114a	99		 cdq
  0114b	83 e2 03	 and	 edx, 3
  0114e	03 c2		 add	 eax, edx
  01150	c1 f8 02	 sar	 eax, 2
  01153	8d 44 00 05	 lea	 eax, DWORD PTR [rax+rax+5]
  01157	8b 8c 24 38 01
	00 00		 mov	 ecx, DWORD PTR tv715[rsp]
  0115e	0f b7 d1	 movzx	 edx, cx
  01161	0f b7 c8	 movzx	 ecx, ax
  01164	e8 00 00 00 00	 call	 set_pos

; 1223 :                         draw_fw (regs->fpr[i]);

  01169	48 63 44 24 60	 movsxd	 rax, DWORD PTR i$[rsp]
  0116e	48 8b 8c 24 d0
	06 00 00	 mov	 rcx, QWORD PTR regs$[rsp]
  01176	8b 8c 81 40 03
	00 00		 mov	 ecx, DWORD PTR [rcx+rax*4+832]
  0117d	e8 00 00 00 00	 call	 draw_fw

; 1224 :                         NPregs[i] = regs->fpr[i];

  01182	48 63 44 24 60	 movsxd	 rax, DWORD PTR i$[rsp]
  01187	48 63 4c 24 60	 movsxd	 rcx, DWORD PTR i$[rsp]
  0118c	48 8d 15 00 00
	00 00		 lea	 rdx, OFFSET FLAT:NPregs
  01193	48 8b bc 24 d0
	06 00 00	 mov	 rdi, QWORD PTR regs$[rsp]
  0119b	8b 84 87 40 03
	00 00		 mov	 eax, DWORD PTR [rdi+rax*4+832]
  011a2	89 04 8a	 mov	 DWORD PTR [rdx+rcx*4], eax
$LN105@NP_update:

; 1225 :                     }
; 1226 :                     break;

  011a5	e9 8d 01 00 00	 jmp	 $LN27@NP_update
$LN107@NP_update:

; 1227 :                 case 4:
; 1228 :                     aaddr = APPLY_PREFIXING (addr, regs->PX);

  011aa	8b 44 24 78	 mov	 eax, DWORD PTR addr$[rsp]
  011ae	48 25 00 f0 ff
	ff		 and	 rax, -4096		; fffffffffffff000H
  011b4	48 85 c0	 test	 rax, rax
  011b7	74 27		 je	 SHORT $LN206@NP_update
  011b9	8b 44 24 78	 mov	 eax, DWORD PTR addr$[rsp]
  011bd	48 25 00 f0 ff
	ff		 and	 rax, -4096		; fffffffffffff000H
  011c3	48 8b 8c 24 d0
	06 00 00	 mov	 rcx, QWORD PTR regs$[rsp]
  011cb	8b 49 70	 mov	 ecx, DWORD PTR [rcx+112]
  011ce	48 3b c1	 cmp	 rax, rcx
  011d1	74 0d		 je	 SHORT $LN206@NP_update
  011d3	8b 44 24 78	 mov	 eax, DWORD PTR addr$[rsp]
  011d7	89 84 24 e0 00
	00 00		 mov	 DWORD PTR tv745[rsp], eax
  011de	eb 1a		 jmp	 SHORT $LN207@NP_update
$LN206@NP_update:
  011e0	48 8b 84 24 d0
	06 00 00	 mov	 rax, QWORD PTR regs$[rsp]
  011e8	8b 40 70	 mov	 eax, DWORD PTR [rax+112]
  011eb	8b 4c 24 78	 mov	 ecx, DWORD PTR addr$[rsp]
  011ef	33 c8		 xor	 ecx, eax
  011f1	8b c1		 mov	 eax, ecx
  011f3	89 84 24 e0 00
	00 00		 mov	 DWORD PTR tv745[rsp], eax
$LN207@NP_update:
  011fa	8b 84 24 e0 00
	00 00		 mov	 eax, DWORD PTR tv745[rsp]
  01201	89 84 24 84 00
	00 00		 mov	 DWORD PTR aaddr$[rsp], eax

; 1229 :                     addr += 4;

  01208	8b 44 24 78	 mov	 eax, DWORD PTR addr$[rsp]
  0120c	83 c0 04	 add	 eax, 4
  0120f	89 44 24 78	 mov	 DWORD PTR addr$[rsp], eax

; 1230 :                     if (aaddr + 3 > regs->mainlim)

  01213	8b 84 24 84 00
	00 00		 mov	 eax, DWORD PTR aaddr$[rsp]
  0121a	83 c0 03	 add	 eax, 3
  0121d	8b c0		 mov	 eax, eax
  0121f	48 8b 8c 24 d0
	06 00 00	 mov	 rcx, QWORD PTR regs$[rsp]
  01227	48 3b 81 58 08
	00 00		 cmp	 rax, QWORD PTR [rcx+2136]
  0122e	76 05		 jbe	 SHORT $LN108@NP_update

; 1231 :                         break;

  01230	e9 02 01 00 00	 jmp	 $LN27@NP_update
$LN108@NP_update:

; 1232 :                     if (!NPregs_valid || NPregs[i] != fetch_fw(regs->mainstor + aaddr))

  01235	83 3d 00 00 00
	00 00		 cmp	 DWORD PTR NPregs_valid, 0
  0123c	74 5a		 je	 SHORT $LN110@NP_update
  0123e	48 63 44 24 60	 movsxd	 rax, DWORD PTR i$[rsp]
  01243	48 89 84 24 68
	01 00 00	 mov	 QWORD PTR tv752[rsp], rax
  0124b	48 8d 0d 00 00
	00 00		 lea	 rcx, OFFSET FLAT:NPregs
  01252	48 89 8c 24 60
	01 00 00	 mov	 QWORD PTR tv1429[rsp], rcx
  0125a	8b 94 24 84 00
	00 00		 mov	 edx, DWORD PTR aaddr$[rsp]
  01261	48 8b bc 24 d0
	06 00 00	 mov	 rdi, QWORD PTR regs$[rsp]
  01269	48 03 97 48 08
	00 00		 add	 rdx, QWORD PTR [rdi+2120]
  01270	48 8b ca	 mov	 rcx, rdx
  01273	e8 00 00 00 00	 call	 fetch_fw_noswap
  01278	8b c8		 mov	 ecx, eax
  0127a	e8 00 00 00 00	 call	 _byteswap_ulong
  0127f	48 8b 94 24 60
	01 00 00	 mov	 rdx, QWORD PTR tv1429[rsp]
  01287	48 8b 8c 24 68
	01 00 00	 mov	 rcx, QWORD PTR tv752[rsp]
  0128f	39 04 8a	 cmp	 DWORD PTR [rdx+rcx*4], eax
  01292	0f 84 9f 00 00
	00		 je	 $LN109@NP_update
$LN110@NP_update:

; 1233 :                     {
; 1234 :                         set_pos (REGS_LINE + (i/4)*2, 3 + (i%4)*9);

  01298	8b 44 24 60	 mov	 eax, DWORD PTR i$[rsp]
  0129c	99		 cdq
  0129d	83 e2 03	 and	 edx, 3
  012a0	03 c2		 add	 eax, edx
  012a2	83 e0 03	 and	 eax, 3
  012a5	2b c2		 sub	 eax, edx
  012a7	6b c0 09	 imul	 eax, eax, 9
  012aa	83 c0 03	 add	 eax, 3
  012ad	89 84 24 3c 01
	00 00		 mov	 DWORD PTR tv765[rsp], eax
  012b4	8b 44 24 60	 mov	 eax, DWORD PTR i$[rsp]
  012b8	99		 cdq
  012b9	83 e2 03	 and	 edx, 3
  012bc	03 c2		 add	 eax, edx
  012be	c1 f8 02	 sar	 eax, 2
  012c1	8d 44 00 05	 lea	 eax, DWORD PTR [rax+rax+5]
  012c5	8b 8c 24 3c 01
	00 00		 mov	 ecx, DWORD PTR tv765[rsp]
  012cc	0f b7 d1	 movzx	 edx, cx
  012cf	0f b7 c8	 movzx	 ecx, ax
  012d2	e8 00 00 00 00	 call	 set_pos

; 1235 :                         draw_fw (fetch_fw(regs->mainstor + aaddr));

  012d7	8b 84 24 84 00
	00 00		 mov	 eax, DWORD PTR aaddr$[rsp]
  012de	48 8b 8c 24 d0
	06 00 00	 mov	 rcx, QWORD PTR regs$[rsp]
  012e6	48 03 81 48 08
	00 00		 add	 rax, QWORD PTR [rcx+2120]
  012ed	48 8b c8	 mov	 rcx, rax
  012f0	e8 00 00 00 00	 call	 fetch_fw_noswap
  012f5	8b c8		 mov	 ecx, eax
  012f7	e8 00 00 00 00	 call	 _byteswap_ulong
  012fc	8b c8		 mov	 ecx, eax
  012fe	e8 00 00 00 00	 call	 draw_fw

; 1236 :                         NPregs[i] = fetch_fw(regs->mainstor + aaddr);

  01303	8b 84 24 84 00
	00 00		 mov	 eax, DWORD PTR aaddr$[rsp]
  0130a	48 8b 8c 24 d0
	06 00 00	 mov	 rcx, QWORD PTR regs$[rsp]
  01312	48 03 81 48 08
	00 00		 add	 rax, QWORD PTR [rcx+2120]
  01319	48 8b c8	 mov	 rcx, rax
  0131c	e8 00 00 00 00	 call	 fetch_fw_noswap
  01321	8b c8		 mov	 ecx, eax
  01323	e8 00 00 00 00	 call	 _byteswap_ulong
  01328	48 63 4c 24 60	 movsxd	 rcx, DWORD PTR i$[rsp]
  0132d	48 8d 15 00 00
	00 00		 lea	 rdx, OFFSET FLAT:NPregs
  01334	89 04 8a	 mov	 DWORD PTR [rdx+rcx*4], eax
$LN109@NP_update:
$LN27@NP_update:

; 1237 :                     }
; 1238 :                     break;
; 1239 :                 }
; 1240 :             }

  01337	e9 56 fb ff ff	 jmp	 $LN24@NP_update
$LN25@NP_update:
$LN87@NP_update:
$LN79@NP_update:

; 1241 :         }
; 1242 : 
; 1243 :         /* Update register selection indicator */
; 1244 :         if (!NPregs_valid)

  0133c	83 3d 00 00 00
	00 00		 cmp	 DWORD PTR NPregs_valid, 0
  01343	0f 85 1c 01 00
	00		 jne	 $LN111@NP_update

; 1245 :         {
; 1246 :             set_pos ((REGS_LINE+8), 6);

  01349	66 ba 06 00	 mov	 dx, 6
  0134d	66 b9 0d 00	 mov	 cx, 13
  01351	e8 00 00 00 00	 call	 set_pos

; 1247 :             set_color (NPregdisp == 0 ? COLOR_LIGHT_YELLOW : COLOR_WHITE, COLOR_BLACK);

  01356	83 3d 00 00 00
	00 00		 cmp	 DWORD PTR NPregdisp, 0
  0135d	75 0d		 jne	 SHORT $LN208@NP_update
  0135f	c7 84 24 e4 00
	00 00 0e 00 00
	00		 mov	 DWORD PTR tv801[rsp], 14
  0136a	eb 0b		 jmp	 SHORT $LN209@NP_update
$LN208@NP_update:
  0136c	c7 84 24 e4 00
	00 00 0f 00 00
	00		 mov	 DWORD PTR tv801[rsp], 15
$LN209@NP_update:
  01377	33 d2		 xor	 edx, edx
  01379	0f b7 8c 24 e4
	00 00 00	 movzx	 ecx, WORD PTR tv801[rsp]
  01381	e8 00 00 00 00	 call	 set_color

; 1248 :             draw_char ('G');

  01386	b9 47 00 00 00	 mov	 ecx, 71			; 00000047H
  0138b	e8 00 00 00 00	 call	 draw_char

; 1249 : 
; 1250 :             set_pos ((REGS_LINE+8), 14);

  01390	66 ba 0e 00	 mov	 dx, 14
  01394	66 b9 0d 00	 mov	 cx, 13
  01398	e8 00 00 00 00	 call	 set_pos

; 1251 :             set_color (NPregdisp == 1 ? COLOR_LIGHT_YELLOW : COLOR_WHITE, COLOR_BLACK);

  0139d	83 3d 00 00 00
	00 01		 cmp	 DWORD PTR NPregdisp, 1
  013a4	75 0d		 jne	 SHORT $LN210@NP_update
  013a6	c7 84 24 e8 00
	00 00 0e 00 00
	00		 mov	 DWORD PTR tv809[rsp], 14
  013b1	eb 0b		 jmp	 SHORT $LN211@NP_update
$LN210@NP_update:
  013b3	c7 84 24 e8 00
	00 00 0f 00 00
	00		 mov	 DWORD PTR tv809[rsp], 15
$LN211@NP_update:
  013be	33 d2		 xor	 edx, edx
  013c0	0f b7 8c 24 e8
	00 00 00	 movzx	 ecx, WORD PTR tv809[rsp]
  013c8	e8 00 00 00 00	 call	 set_color

; 1252 :             draw_char ('C');

  013cd	b9 43 00 00 00	 mov	 ecx, 67			; 00000043H
  013d2	e8 00 00 00 00	 call	 draw_char

; 1253 : 
; 1254 :             set_pos ((REGS_LINE+8), 22);

  013d7	66 ba 16 00	 mov	 dx, 22
  013db	66 b9 0d 00	 mov	 cx, 13
  013df	e8 00 00 00 00	 call	 set_pos

; 1255 :             set_color (NPregdisp == 2 ? COLOR_LIGHT_YELLOW : COLOR_WHITE, COLOR_BLACK);

  013e4	83 3d 00 00 00
	00 02		 cmp	 DWORD PTR NPregdisp, 2
  013eb	75 0d		 jne	 SHORT $LN212@NP_update
  013ed	c7 84 24 ec 00
	00 00 0e 00 00
	00		 mov	 DWORD PTR tv817[rsp], 14
  013f8	eb 0b		 jmp	 SHORT $LN213@NP_update
$LN212@NP_update:
  013fa	c7 84 24 ec 00
	00 00 0f 00 00
	00		 mov	 DWORD PTR tv817[rsp], 15
$LN213@NP_update:
  01405	33 d2		 xor	 edx, edx
  01407	0f b7 8c 24 ec
	00 00 00	 movzx	 ecx, WORD PTR tv817[rsp]
  0140f	e8 00 00 00 00	 call	 set_color

; 1256 :             draw_char ('A');

  01414	b9 41 00 00 00	 mov	 ecx, 65			; 00000041H
  01419	e8 00 00 00 00	 call	 draw_char

; 1257 : 
; 1258 :             set_pos ((REGS_LINE+8), 30);

  0141e	66 ba 1e 00	 mov	 dx, 30
  01422	66 b9 0d 00	 mov	 cx, 13
  01426	e8 00 00 00 00	 call	 set_pos

; 1259 :             set_color (NPregdisp == 3 ? COLOR_LIGHT_YELLOW : COLOR_WHITE, COLOR_BLACK);

  0142b	83 3d 00 00 00
	00 03		 cmp	 DWORD PTR NPregdisp, 3
  01432	75 0d		 jne	 SHORT $LN214@NP_update
  01434	c7 84 24 f0 00
	00 00 0e 00 00
	00		 mov	 DWORD PTR tv825[rsp], 14
  0143f	eb 0b		 jmp	 SHORT $LN215@NP_update
$LN214@NP_update:
  01441	c7 84 24 f0 00
	00 00 0f 00 00
	00		 mov	 DWORD PTR tv825[rsp], 15
$LN215@NP_update:
  0144c	33 d2		 xor	 edx, edx
  0144e	0f b7 8c 24 f0
	00 00 00	 movzx	 ecx, WORD PTR tv825[rsp]
  01456	e8 00 00 00 00	 call	 set_color

; 1260 :             draw_char ('F');

  0145b	b9 46 00 00 00	 mov	 ecx, 70			; 00000046H
  01460	e8 00 00 00 00	 call	 draw_char
$LN111@NP_update:

; 1261 :         }
; 1262 : 
; 1263 :         NPregs_valid = 1;

  01465	c7 05 00 00 00
	00 01 00 00 00	 mov	 DWORD PTR NPregs_valid, 1

; 1264 : 
; 1265 :         /* Address & Data */
; 1266 :         if (!NPaddr_valid)

  0146f	83 3d 00 00 00
	00 00		 cmp	 DWORD PTR NPaddr_valid, 0
  01476	75 2d		 jne	 SHORT $LN112@NP_update

; 1267 :         {
; 1268 :             set_color (COLOR_LIGHT_YELLOW, COLOR_BLACK);

  01478	33 d2		 xor	 edx, edx
  0147a	66 b9 0e 00	 mov	 cx, 14
  0147e	e8 00 00 00 00	 call	 set_color

; 1269 :             set_pos (ADDR_LINE, 12);

  01483	66 ba 0c 00	 mov	 dx, 12
  01487	66 b9 0f 00	 mov	 cx, 15
  0148b	e8 00 00 00 00	 call	 set_pos

; 1270 :             draw_fw (NPaddress);

  01490	8b 0d 00 00 00
	00		 mov	 ecx, DWORD PTR NPaddress
  01496	e8 00 00 00 00	 call	 draw_fw

; 1271 :             NPaddr_valid = 1;

  0149b	c7 05 00 00 00
	00 01 00 00 00	 mov	 DWORD PTR NPaddr_valid, 1
$LN112@NP_update:

; 1272 :         }
; 1273 :         if (!NPdata_valid)

  014a5	83 3d 00 00 00
	00 00		 cmp	 DWORD PTR NPdata_valid, 0
  014ac	75 2d		 jne	 SHORT $LN113@NP_update

; 1274 :         {
; 1275 :             set_color (COLOR_LIGHT_YELLOW, COLOR_BLACK);

  014ae	33 d2		 xor	 edx, edx
  014b0	66 b9 0e 00	 mov	 cx, 14
  014b4	e8 00 00 00 00	 call	 set_color

; 1276 :             set_pos (ADDR_LINE, 30);

  014b9	66 ba 1e 00	 mov	 dx, 30
  014bd	66 b9 0f 00	 mov	 cx, 15
  014c1	e8 00 00 00 00	 call	 set_pos

; 1277 :             draw_fw (NPdata);

  014c6	8b 0d 00 00 00
	00		 mov	 ecx, DWORD PTR NPdata
  014cc	e8 00 00 00 00	 call	 draw_fw

; 1278 :             NPdata_valid = 1;

  014d1	c7 05 00 00 00
	00 01 00 00 00	 mov	 DWORD PTR NPdata_valid, 1
$LN113@NP_update:
$LN61@NP_update:

; 1279 :         }
; 1280 :     }
; 1281 : 
; 1282 :     /* Rates */
; 1283 :     if ((!NPmips_valid || sysblk.mipsrate != NPmips) && sysblk.hicpu)

  014db	83 3d 00 00 00
	00 00		 cmp	 DWORD PTR NPmips_valid, 0
  014e2	74 19		 je	 SHORT $LN115@NP_update
  014e4	48 8b 05 00 00
	00 00		 mov	 rax, QWORD PTR __imp_sysblk
  014eb	8b 0d 00 00 00
	00		 mov	 ecx, DWORD PTR NPmips
  014f1	39 88 88 14 00
	00		 cmp	 DWORD PTR [rax+5256], ecx
  014f7	0f 84 4d 02 00
	00		 je	 $LN114@NP_update
$LN115@NP_update:
  014fd	48 8b 05 00 00
	00 00		 mov	 rax, QWORD PTR __imp_sysblk
  01504	83 b8 08 01 00
	00 00		 cmp	 DWORD PTR [rax+264], 0
  0150b	0f 84 39 02 00
	00		 je	 $LN114@NP_update

; 1284 :     {
; 1285 :         set_color (COLOR_LIGHT_YELLOW, COLOR_BLACK);

  01511	33 d2		 xor	 edx, edx
  01513	66 b9 0e 00	 mov	 cx, 14
  01517	e8 00 00 00 00	 call	 set_color

; 1286 :         set_pos (BUTTONS_LINE, 1);

  0151c	66 ba 01 00	 mov	 dx, 1
  01520	66 b9 11 00	 mov	 cx, 17
  01524	e8 00 00 00 00	 call	 set_pos

; 1287 :         if((sysblk.mipsrate / 1000000) > 999)

  01529	33 d2		 xor	 edx, edx
  0152b	48 8b 05 00 00
	00 00		 mov	 rax, QWORD PTR __imp_sysblk
  01532	8b 80 88 14 00
	00		 mov	 eax, DWORD PTR [rax+5256]
  01538	b9 40 42 0f 00	 mov	 ecx, 1000000		; 000f4240H
  0153d	f7 f1		 div	 ecx
  0153f	3d e7 03 00 00	 cmp	 eax, 999		; 000003e7H
  01544	76 6b		 jbe	 SHORT $LN116@NP_update

; 1288 :           MSGBUF(buf, "%2d,%03d", sysblk.mipsrate / 1000000000, sysblk.mipsrate % 1000000000 / 1000000);

  01546	33 d2		 xor	 edx, edx
  01548	48 8b 05 00 00
	00 00		 mov	 rax, QWORD PTR __imp_sysblk
  0154f	8b 80 88 14 00
	00		 mov	 eax, DWORD PTR [rax+5256]
  01555	b9 00 ca 9a 3b	 mov	 ecx, 1000000000		; 3b9aca00H
  0155a	f7 f1		 div	 ecx
  0155c	8b c2		 mov	 eax, edx
  0155e	33 d2		 xor	 edx, edx
  01560	b9 40 42 0f 00	 mov	 ecx, 1000000		; 000f4240H
  01565	f7 f1		 div	 ecx
  01567	89 84 24 40 01
	00 00		 mov	 DWORD PTR tv856[rsp], eax
  0156e	33 d2		 xor	 edx, edx
  01570	48 8b 0d 00 00
	00 00		 mov	 rcx, QWORD PTR __imp_sysblk
  01577	8b 81 88 14 00
	00		 mov	 eax, DWORD PTR [rcx+5256]
  0157d	b9 00 ca 9a 3b	 mov	 ecx, 1000000000		; 3b9aca00H
  01582	f7 f1		 div	 ecx
  01584	8b 8c 24 40 01
	00 00		 mov	 ecx, DWORD PTR tv856[rsp]
  0158b	89 4c 24 20	 mov	 DWORD PTR [rsp+32], ecx
  0158f	44 8b c8	 mov	 r9d, eax
  01592	4c 8d 05 00 00
	00 00		 lea	 r8, OFFSET FLAT:$SG168862
  01599	ba 00 04 00 00	 mov	 edx, 1024		; 00000400H
  0159e	48 8d 8c 24 a0
	02 00 00	 lea	 rcx, QWORD PTR buf$[rsp]
  015a6	ff 15 00 00 00
	00		 call	 QWORD PTR __imp_w32_snprintf
  015ac	e9 6f 01 00 00	 jmp	 $LN117@NP_update
$LN116@NP_update:

; 1289 :         else if((sysblk.mipsrate / 1000000) > 99)

  015b1	33 d2		 xor	 edx, edx
  015b3	48 8b 05 00 00
	00 00		 mov	 rax, QWORD PTR __imp_sysblk
  015ba	8b 80 88 14 00
	00		 mov	 eax, DWORD PTR [rax+5256]
  015c0	b9 40 42 0f 00	 mov	 ecx, 1000000		; 000f4240H
  015c5	f7 f1		 div	 ecx
  015c7	83 f8 63	 cmp	 eax, 99			; 00000063H
  015ca	76 6b		 jbe	 SHORT $LN118@NP_update

; 1290 :           MSGBUF(buf, "%4d.%01d", sysblk.mipsrate / 1000000, sysblk.mipsrate % 1000000 / 100000);

  015cc	33 d2		 xor	 edx, edx
  015ce	48 8b 05 00 00
	00 00		 mov	 rax, QWORD PTR __imp_sysblk
  015d5	8b 80 88 14 00
	00		 mov	 eax, DWORD PTR [rax+5256]
  015db	b9 40 42 0f 00	 mov	 ecx, 1000000		; 000f4240H
  015e0	f7 f1		 div	 ecx
  015e2	8b c2		 mov	 eax, edx
  015e4	33 d2		 xor	 edx, edx
  015e6	b9 a0 86 01 00	 mov	 ecx, 100000		; 000186a0H
  015eb	f7 f1		 div	 ecx
  015ed	89 84 24 44 01
	00 00		 mov	 DWORD PTR tv901[rsp], eax
  015f4	33 d2		 xor	 edx, edx
  015f6	48 8b 0d 00 00
	00 00		 mov	 rcx, QWORD PTR __imp_sysblk
  015fd	8b 81 88 14 00
	00		 mov	 eax, DWORD PTR [rcx+5256]
  01603	b9 40 42 0f 00	 mov	 ecx, 1000000		; 000f4240H
  01608	f7 f1		 div	 ecx
  0160a	8b 8c 24 44 01
	00 00		 mov	 ecx, DWORD PTR tv901[rsp]
  01611	89 4c 24 20	 mov	 DWORD PTR [rsp+32], ecx
  01615	44 8b c8	 mov	 r9d, eax
  01618	4c 8d 05 00 00
	00 00		 lea	 r8, OFFSET FLAT:$SG168865
  0161f	ba 00 04 00 00	 mov	 edx, 1024		; 00000400H
  01624	48 8d 8c 24 a0
	02 00 00	 lea	 rcx, QWORD PTR buf$[rsp]
  0162c	ff 15 00 00 00
	00		 call	 QWORD PTR __imp_w32_snprintf
  01632	e9 e9 00 00 00	 jmp	 $LN119@NP_update
$LN118@NP_update:

; 1291 :         else if((sysblk.mipsrate / 1000000) > 9)

  01637	33 d2		 xor	 edx, edx
  01639	48 8b 05 00 00
	00 00		 mov	 rax, QWORD PTR __imp_sysblk
  01640	8b 80 88 14 00
	00		 mov	 eax, DWORD PTR [rax+5256]
  01646	b9 40 42 0f 00	 mov	 ecx, 1000000		; 000f4240H
  0164b	f7 f1		 div	 ecx
  0164d	83 f8 09	 cmp	 eax, 9
  01650	76 68		 jbe	 SHORT $LN120@NP_update

; 1292 :           MSGBUF(buf, "%3d.%02d", sysblk.mipsrate / 1000000, sysblk.mipsrate % 1000000 / 10000);

  01652	33 d2		 xor	 edx, edx
  01654	48 8b 05 00 00
	00 00		 mov	 rax, QWORD PTR __imp_sysblk
  0165b	8b 80 88 14 00
	00		 mov	 eax, DWORD PTR [rax+5256]
  01661	b9 40 42 0f 00	 mov	 ecx, 1000000		; 000f4240H
  01666	f7 f1		 div	 ecx
  01668	8b c2		 mov	 eax, edx
  0166a	33 d2		 xor	 edx, edx
  0166c	b9 10 27 00 00	 mov	 ecx, 10000		; 00002710H
  01671	f7 f1		 div	 ecx
  01673	89 84 24 48 01
	00 00		 mov	 DWORD PTR tv914[rsp], eax
  0167a	33 d2		 xor	 edx, edx
  0167c	48 8b 0d 00 00
	00 00		 mov	 rcx, QWORD PTR __imp_sysblk
  01683	8b 81 88 14 00
	00		 mov	 eax, DWORD PTR [rcx+5256]
  01689	b9 40 42 0f 00	 mov	 ecx, 1000000		; 000f4240H
  0168e	f7 f1		 div	 ecx
  01690	8b 8c 24 48 01
	00 00		 mov	 ecx, DWORD PTR tv914[rsp]
  01697	89 4c 24 20	 mov	 DWORD PTR [rsp+32], ecx
  0169b	44 8b c8	 mov	 r9d, eax
  0169e	4c 8d 05 00 00
	00 00		 lea	 r8, OFFSET FLAT:$SG168868
  016a5	ba 00 04 00 00	 mov	 edx, 1024		; 00000400H
  016aa	48 8d 8c 24 a0
	02 00 00	 lea	 rcx, QWORD PTR buf$[rsp]
  016b2	ff 15 00 00 00
	00		 call	 QWORD PTR __imp_w32_snprintf
  016b8	eb 66		 jmp	 SHORT $LN121@NP_update
$LN120@NP_update:

; 1293 :         else
; 1294 :           MSGBUF(buf, "%2d.%03d", sysblk.mipsrate / 1000000, sysblk.mipsrate % 1000000 / 1000);

  016ba	33 d2		 xor	 edx, edx
  016bc	48 8b 05 00 00
	00 00		 mov	 rax, QWORD PTR __imp_sysblk
  016c3	8b 80 88 14 00
	00		 mov	 eax, DWORD PTR [rax+5256]
  016c9	b9 40 42 0f 00	 mov	 ecx, 1000000		; 000f4240H
  016ce	f7 f1		 div	 ecx
  016d0	8b c2		 mov	 eax, edx
  016d2	33 d2		 xor	 edx, edx
  016d4	b9 e8 03 00 00	 mov	 ecx, 1000		; 000003e8H
  016d9	f7 f1		 div	 ecx
  016db	89 84 24 4c 01
	00 00		 mov	 DWORD PTR tv924[rsp], eax
  016e2	33 d2		 xor	 edx, edx
  016e4	48 8b 0d 00 00
	00 00		 mov	 rcx, QWORD PTR __imp_sysblk
  016eb	8b 81 88 14 00
	00		 mov	 eax, DWORD PTR [rcx+5256]
  016f1	b9 40 42 0f 00	 mov	 ecx, 1000000		; 000f4240H
  016f6	f7 f1		 div	 ecx
  016f8	8b 8c 24 4c 01
	00 00		 mov	 ecx, DWORD PTR tv924[rsp]
  016ff	89 4c 24 20	 mov	 DWORD PTR [rsp+32], ecx
  01703	44 8b c8	 mov	 r9d, eax
  01706	4c 8d 05 00 00
	00 00		 lea	 r8, OFFSET FLAT:$SG168869
  0170d	ba 00 04 00 00	 mov	 edx, 1024		; 00000400H
  01712	48 8d 8c 24 a0
	02 00 00	 lea	 rcx, QWORD PTR buf$[rsp]
  0171a	ff 15 00 00 00
	00		 call	 QWORD PTR __imp_w32_snprintf
$LN121@NP_update:
$LN119@NP_update:
$LN117@NP_update:

; 1295 :         draw_text (buf);

  01720	48 8d 8c 24 a0
	02 00 00	 lea	 rcx, QWORD PTR buf$[rsp]
  01728	e8 00 00 00 00	 call	 draw_text

; 1296 :         NPmips = sysblk.mipsrate;

  0172d	48 8b 05 00 00
	00 00		 mov	 rax, QWORD PTR __imp_sysblk
  01734	8b 80 88 14 00
	00		 mov	 eax, DWORD PTR [rax+5256]
  0173a	89 05 00 00 00
	00		 mov	 DWORD PTR NPmips, eax

; 1297 :         NPmips_valid = 1;

  01740	c7 05 00 00 00
	00 01 00 00 00	 mov	 DWORD PTR NPmips_valid, 1
$LN114@NP_update:

; 1298 :     }
; 1299 : 
; 1300 :     if (0
; 1301 :         || (sysblk.hicpu && (!NPsios_valid || NPsios != sysblk.siosrate))
; 1302 : 
; 1303 : #if defined( OPTION_SHARED_DEVICES )
; 1304 :         || sysblk.shrdport

  0174a	33 c0		 xor	 eax, eax
  0174c	85 c0		 test	 eax, eax
  0174e	75 40		 jne	 SHORT $LN123@NP_update
  01750	48 8b 05 00 00
	00 00		 mov	 rax, QWORD PTR __imp_sysblk
  01757	83 b8 08 01 00
	00 00		 cmp	 DWORD PTR [rax+264], 0
  0175e	74 1e		 je	 SHORT $LN124@NP_update
  01760	83 3d 00 00 00
	00 00		 cmp	 DWORD PTR NPsios_valid, 0
  01767	74 27		 je	 SHORT $LN123@NP_update
  01769	48 8b 05 00 00
	00 00		 mov	 rax, QWORD PTR __imp_sysblk
  01770	8b 80 8c 14 00
	00		 mov	 eax, DWORD PTR [rax+5260]
  01776	39 05 00 00 00
	00		 cmp	 DWORD PTR NPsios, eax
  0177c	75 12		 jne	 SHORT $LN123@NP_update
$LN124@NP_update:
  0177e	48 8b 05 00 00
	00 00		 mov	 rax, QWORD PTR __imp_sysblk
  01785	0f b7 80 ac 13
	00 00		 movzx	 eax, WORD PTR [rax+5036]
  0178c	85 c0		 test	 eax, eax
  0178e	74 73		 je	 SHORT $LN122@NP_update
$LN123@NP_update:

; 1305 : #endif
; 1306 :     )
; 1307 :     {
; 1308 :         set_color (COLOR_LIGHT_YELLOW, COLOR_BLACK);

  01790	33 d2		 xor	 edx, edx
  01792	66 b9 0e 00	 mov	 cx, 14
  01796	e8 00 00 00 00	 call	 set_color

; 1309 :         set_pos (BUTTONS_LINE, 8);

  0179b	66 ba 08 00	 mov	 dx, 8
  0179f	66 b9 11 00	 mov	 cx, 17
  017a3	e8 00 00 00 00	 call	 set_pos

; 1310 :         MSGBUF(buf, "%6.6s", format_int(sysblk.siosrate));

  017a8	48 8b 05 00 00
	00 00		 mov	 rax, QWORD PTR __imp_sysblk
  017af	8b 80 8c 14 00
	00		 mov	 eax, DWORD PTR [rax+5260]
  017b5	8b c8		 mov	 ecx, eax
  017b7	e8 00 00 00 00	 call	 format_int
  017bc	4c 8b c8	 mov	 r9, rax
  017bf	4c 8d 05 00 00
	00 00		 lea	 r8, OFFSET FLAT:$SG168873
  017c6	ba 00 04 00 00	 mov	 edx, 1024		; 00000400H
  017cb	48 8d 8c 24 a0
	02 00 00	 lea	 rcx, QWORD PTR buf$[rsp]
  017d3	ff 15 00 00 00
	00		 call	 QWORD PTR __imp_w32_snprintf

; 1311 :         draw_text (buf);

  017d9	48 8d 8c 24 a0
	02 00 00	 lea	 rcx, QWORD PTR buf$[rsp]
  017e1	e8 00 00 00 00	 call	 draw_text

; 1312 :         NPsios = sysblk.siosrate;

  017e6	48 8b 05 00 00
	00 00		 mov	 rax, QWORD PTR __imp_sysblk
  017ed	8b 80 8c 14 00
	00		 mov	 eax, DWORD PTR [rax+5260]
  017f3	89 05 00 00 00
	00		 mov	 DWORD PTR NPsios, eax

; 1313 :         NPsios_valid = 1;

  017f9	c7 05 00 00 00
	00 01 00 00 00	 mov	 DWORD PTR NPsios_valid, 1
$LN122@NP_update:

; 1314 :     }
; 1315 : 
; 1316 :     /* Optional cpu graph */
; 1317 :     if (NPcpugraph)

  01803	83 3d 00 00 00
	00 00		 cmp	 DWORD PTR NPcpugraph, 0
  0180a	0f 84 7a 02 00
	00		 je	 $LN125@NP_update

; 1318 :     {
; 1319 :         for (i = 0; i < NPcpugraph_ncpu; i++)

  01810	c7 44 24 60 00
	00 00 00	 mov	 DWORD PTR i$[rsp], 0
  01818	eb 0a		 jmp	 SHORT $LN31@NP_update
$LN29@NP_update:
  0181a	8b 44 24 60	 mov	 eax, DWORD PTR i$[rsp]
  0181e	ff c0		 inc	 eax
  01820	89 44 24 60	 mov	 DWORD PTR i$[rsp], eax
$LN31@NP_update:
  01824	8b 05 00 00 00
	00		 mov	 eax, DWORD PTR NPcpugraph_ncpu
  0182a	39 44 24 60	 cmp	 DWORD PTR i$[rsp], eax
  0182e	0f 8d 4c 02 00
	00		 jge	 $LN30@NP_update

; 1320 :         {
; 1321 :             if (!IS_CPU_ONLINE(i))

  01834	48 63 44 24 60	 movsxd	 rax, DWORD PTR i$[rsp]
  01839	48 8b 0d 00 00
	00 00		 mov	 rcx, QWORD PTR __imp_sysblk
  01840	48 83 bc c1 98
	0b 00 00 00	 cmp	 QWORD PTR [rcx+rax*8+2968], 0
  01849	75 73		 jne	 SHORT $LN126@NP_update

; 1322 :             {
; 1323 :                 if (!NPcpugraph_valid || NPcpugraphpct[i] != -2.0)

  0184b	83 3d 00 00 00
	00 00		 cmp	 DWORD PTR NPcpugraph_valid, 0
  01852	74 1d		 je	 SHORT $LN129@NP_update
  01854	48 63 44 24 60	 movsxd	 rax, DWORD PTR i$[rsp]
  01859	48 8d 0d 00 00
	00 00		 lea	 rcx, OFFSET FLAT:NPcpugraphpct
  01860	f2 0f 2a 04 81	 cvtsi2sd xmm0, DWORD PTR [rcx+rax*4]
  01865	66 0f 2e 05 00
	00 00 00	 ucomisd xmm0, QWORD PTR __real@c000000000000000
  0186d	7a 02		 jp	 SHORT $LN240@NP_update
  0186f	74 48		 je	 SHORT $LN128@NP_update
$LN240@NP_update:
$LN129@NP_update:

; 1324 :                 {
; 1325 :                     set_color (COLOR_RED, COLOR_BLACK);

  01871	33 d2		 xor	 edx, edx
  01873	66 b9 01 00	 mov	 cx, 1
  01877	e8 00 00 00 00	 call	 set_color

; 1326 :                     set_pos (CPU_GRAPH_LINE+1+i, 6);

  0187c	8b 44 24 60	 mov	 eax, DWORD PTR i$[rsp]
  01880	83 c0 15	 add	 eax, 21
  01883	66 ba 06 00	 mov	 dx, 6
  01887	0f b7 c8	 movzx	 ecx, ax
  0188a	e8 00 00 00 00	 call	 set_pos

; 1327 :                     draw_text ("OFFLINE");

  0188f	48 8d 0d 00 00
	00 00		 lea	 rcx, OFFSET FLAT:$SG168879
  01896	e8 00 00 00 00	 call	 draw_text

; 1328 :                     fill_text (' ', 38);

  0189b	66 ba 26 00	 mov	 dx, 38			; 00000026H
  0189f	b1 20		 mov	 cl, 32			; 00000020H
  018a1	e8 00 00 00 00	 call	 fill_text

; 1329 :                     NPcpugraphpct[i] = -2.0;

  018a6	48 63 44 24 60	 movsxd	 rax, DWORD PTR i$[rsp]
  018ab	48 8d 0d 00 00
	00 00		 lea	 rcx, OFFSET FLAT:NPcpugraphpct
  018b2	c7 04 81 fe ff
	ff ff		 mov	 DWORD PTR [rcx+rax*4], -2
$LN128@NP_update:

; 1330 :                 }
; 1331 :             }

  018b9	e9 b2 01 00 00	 jmp	 $LN127@NP_update
$LN126@NP_update:

; 1332 :             else if (sysblk.regs[i]->cpustate != CPUSTATE_STARTED)

  018be	48 63 44 24 60	 movsxd	 rax, DWORD PTR i$[rsp]
  018c3	48 8b 0d 00 00
	00 00		 mov	 rcx, QWORD PTR __imp_sysblk
  018ca	48 8b 84 c1 98
	0b 00 00	 mov	 rax, QWORD PTR [rcx+rax*8+2968]
  018d2	0f b6 40 60	 movzx	 eax, BYTE PTR [rax+96]
  018d6	83 f8 01	 cmp	 eax, 1
  018d9	74 73		 je	 SHORT $LN130@NP_update

; 1333 :             {
; 1334 :                 if (!NPcpugraph_valid || NPcpugraphpct[i] != -1.0)

  018db	83 3d 00 00 00
	00 00		 cmp	 DWORD PTR NPcpugraph_valid, 0
  018e2	74 1d		 je	 SHORT $LN133@NP_update
  018e4	48 63 44 24 60	 movsxd	 rax, DWORD PTR i$[rsp]
  018e9	48 8d 0d 00 00
	00 00		 lea	 rcx, OFFSET FLAT:NPcpugraphpct
  018f0	f2 0f 2a 04 81	 cvtsi2sd xmm0, DWORD PTR [rcx+rax*4]
  018f5	66 0f 2e 05 00
	00 00 00	 ucomisd xmm0, QWORD PTR __real@bff0000000000000
  018fd	7a 02		 jp	 SHORT $LN239@NP_update
  018ff	74 48		 je	 SHORT $LN132@NP_update
$LN239@NP_update:
$LN133@NP_update:

; 1335 :                 {
; 1336 :                     set_color (COLOR_LIGHT_YELLOW, COLOR_BLACK);

  01901	33 d2		 xor	 edx, edx
  01903	66 b9 0e 00	 mov	 cx, 14
  01907	e8 00 00 00 00	 call	 set_color

; 1337 :                     set_pos (CPU_GRAPH_LINE+1+i, 6);

  0190c	8b 44 24 60	 mov	 eax, DWORD PTR i$[rsp]
  01910	83 c0 15	 add	 eax, 21
  01913	66 ba 06 00	 mov	 dx, 6
  01917	0f b7 c8	 movzx	 ecx, ax
  0191a	e8 00 00 00 00	 call	 set_pos

; 1338 :                     draw_text ("STOPPED");

  0191f	48 8d 0d 00 00
	00 00		 lea	 rcx, OFFSET FLAT:$SG168884
  01926	e8 00 00 00 00	 call	 draw_text

; 1339 :                     fill_text (' ', 38);

  0192b	66 ba 26 00	 mov	 dx, 38			; 00000026H
  0192f	b1 20		 mov	 cl, 32			; 00000020H
  01931	e8 00 00 00 00	 call	 fill_text

; 1340 :                     NPcpugraphpct[i] = -1.0;

  01936	48 63 44 24 60	 movsxd	 rax, DWORD PTR i$[rsp]
  0193b	48 8d 0d 00 00
	00 00		 lea	 rcx, OFFSET FLAT:NPcpugraphpct
  01942	c7 04 81 ff ff
	ff ff		 mov	 DWORD PTR [rcx+rax*4], -1
$LN132@NP_update:

; 1341 :                 }
; 1342 :             }

  01949	e9 22 01 00 00	 jmp	 $LN131@NP_update
$LN130@NP_update:

; 1343 :             else if (!NPcpugraph_valid || NPcpugraphpct[i] != sysblk.regs[i]->cpupct)

  0194e	83 3d 00 00 00
	00 00		 cmp	 DWORD PTR NPcpugraph_valid, 0
  01955	74 2f		 je	 SHORT $LN135@NP_update
  01957	48 63 44 24 60	 movsxd	 rax, DWORD PTR i$[rsp]
  0195c	48 8d 0d 00 00
	00 00		 lea	 rcx, OFFSET FLAT:NPcpugraphpct
  01963	48 63 54 24 60	 movsxd	 rdx, DWORD PTR i$[rsp]
  01968	48 8b 3d 00 00
	00 00		 mov	 rdi, QWORD PTR __imp_sysblk
  0196f	48 8b 94 d7 98
	0b 00 00	 mov	 rdx, QWORD PTR [rdi+rdx*8+2968]
  01977	8b 92 b0 07 00
	00		 mov	 edx, DWORD PTR [rdx+1968]
  0197d	39 14 81	 cmp	 DWORD PTR [rcx+rax*4], edx
  01980	0f 84 ea 00 00
	00		 je	 $LN134@NP_update
$LN135@NP_update:

; 1344 :             {
; 1345 :                 n = (34 * sysblk.regs[i]->cpupct) / 100;

  01986	48 63 44 24 60	 movsxd	 rax, DWORD PTR i$[rsp]
  0198b	48 8b 0d 00 00
	00 00		 mov	 rcx, QWORD PTR __imp_sysblk
  01992	48 8b 84 c1 98
	0b 00 00	 mov	 rax, QWORD PTR [rcx+rax*8+2968]
  0199a	6b 80 b0 07 00
	00 22		 imul	 eax, DWORD PTR [rax+1968], 34 ; 00000022H
  019a1	99		 cdq
  019a2	b9 64 00 00 00	 mov	 ecx, 100		; 00000064H
  019a7	f7 f9		 idiv	 ecx
  019a9	89 44 24 64	 mov	 DWORD PTR n$[rsp], eax

; 1346 :                 if (n == 0 && sysblk.regs[i]->cpupct > 0)

  019ad	83 7c 24 64 00	 cmp	 DWORD PTR n$[rsp], 0
  019b2	75 27		 jne	 SHORT $LN136@NP_update
  019b4	48 63 44 24 60	 movsxd	 rax, DWORD PTR i$[rsp]
  019b9	48 8b 0d 00 00
	00 00		 mov	 rcx, QWORD PTR __imp_sysblk
  019c0	48 8b 84 c1 98
	0b 00 00	 mov	 rax, QWORD PTR [rcx+rax*8+2968]
  019c8	83 b8 b0 07 00
	00 00		 cmp	 DWORD PTR [rax+1968], 0
  019cf	7e 0a		 jle	 SHORT $LN136@NP_update

; 1347 :                     n = 1;

  019d1	c7 44 24 64 01
	00 00 00	 mov	 DWORD PTR n$[rsp], 1
  019d9	eb 0f		 jmp	 SHORT $LN137@NP_update
$LN136@NP_update:

; 1348 :                 else if (n > 34)

  019db	83 7c 24 64 22	 cmp	 DWORD PTR n$[rsp], 34	; 00000022H
  019e0	7e 08		 jle	 SHORT $LN138@NP_update

; 1349 :                     n = 34;

  019e2	c7 44 24 64 22
	00 00 00	 mov	 DWORD PTR n$[rsp], 34	; 00000022H
$LN138@NP_update:
$LN137@NP_update:

; 1350 :                 set_color (n > 17 ? COLOR_WHITE : COLOR_LIGHT_GREY, COLOR_BLACK);

  019ea	83 7c 24 64 11	 cmp	 DWORD PTR n$[rsp], 17
  019ef	7e 0d		 jle	 SHORT $LN216@NP_update
  019f1	c7 84 24 f4 00
	00 00 0f 00 00
	00		 mov	 DWORD PTR tv1034[rsp], 15
  019fc	eb 0b		 jmp	 SHORT $LN217@NP_update
$LN216@NP_update:
  019fe	c7 84 24 f4 00
	00 00 08 00 00
	00		 mov	 DWORD PTR tv1034[rsp], 8
$LN217@NP_update:
  01a09	33 d2		 xor	 edx, edx
  01a0b	0f b7 8c 24 f4
	00 00 00	 movzx	 ecx, WORD PTR tv1034[rsp]
  01a13	e8 00 00 00 00	 call	 set_color

; 1351 :                 set_pos (CPU_GRAPH_LINE+1+i, 6);

  01a18	8b 44 24 60	 mov	 eax, DWORD PTR i$[rsp]
  01a1c	83 c0 15	 add	 eax, 21
  01a1f	66 ba 06 00	 mov	 dx, 6
  01a23	0f b7 c8	 movzx	 ecx, ax
  01a26	e8 00 00 00 00	 call	 set_pos

; 1352 :                 fill_text ('*', n+3);

  01a2b	8b 44 24 64	 mov	 eax, DWORD PTR n$[rsp]
  01a2f	83 c0 03	 add	 eax, 3
  01a32	0f b7 d0	 movzx	 edx, ax
  01a35	b1 2a		 mov	 cl, 42			; 0000002aH
  01a37	e8 00 00 00 00	 call	 fill_text

; 1353 :                 fill_text (' ', 38);

  01a3c	66 ba 26 00	 mov	 dx, 38			; 00000026H
  01a40	b1 20		 mov	 cl, 32			; 00000020H
  01a42	e8 00 00 00 00	 call	 fill_text

; 1354 :                 NPcpugraphpct[i] = sysblk.regs[i]->cpupct;

  01a47	48 63 44 24 60	 movsxd	 rax, DWORD PTR i$[rsp]
  01a4c	48 8b 0d 00 00
	00 00		 mov	 rcx, QWORD PTR __imp_sysblk
  01a53	48 8b 84 c1 98
	0b 00 00	 mov	 rax, QWORD PTR [rcx+rax*8+2968]
  01a5b	48 63 4c 24 60	 movsxd	 rcx, DWORD PTR i$[rsp]
  01a60	48 8d 15 00 00
	00 00		 lea	 rdx, OFFSET FLAT:NPcpugraphpct
  01a67	8b 80 b0 07 00
	00		 mov	 eax, DWORD PTR [rax+1968]
  01a6d	89 04 8a	 mov	 DWORD PTR [rdx+rcx*4], eax
$LN134@NP_update:
$LN131@NP_update:
$LN127@NP_update:

; 1355 :             }
; 1356 : 
; 1357 :             set_color (COLOR_LIGHT_GREY, COLOR_BLACK);

  01a70	33 d2		 xor	 edx, edx
  01a72	66 b9 08 00	 mov	 cx, 8
  01a76	e8 00 00 00 00	 call	 set_color

; 1358 :         }

  01a7b	e9 9a fd ff ff	 jmp	 $LN29@NP_update
$LN30@NP_update:

; 1359 :         NPcpugraph_valid = 1;

  01a80	c7 05 00 00 00
	00 01 00 00 00	 mov	 DWORD PTR NPcpugraph_valid, 1
$LN125@NP_update:

; 1360 :     }
; 1361 : 
; 1362 :     /* Process devices */
; 1363 :     for (i = 0, dev = sysblk.firstdev; dev != NULL; i++, dev = dev->nextdev)

  01a8a	c7 44 24 60 00
	00 00 00	 mov	 DWORD PTR i$[rsp], 0
  01a92	48 8b 05 00 00
	00 00		 mov	 rax, QWORD PTR __imp_sysblk
  01a99	48 8b 80 c0 11
	00 00		 mov	 rax, QWORD PTR [rax+4544]
  01aa0	48 89 44 24 68	 mov	 QWORD PTR dev$[rsp], rax
  01aa5	eb 18		 jmp	 SHORT $LN34@NP_update
$LN32@NP_update:
  01aa7	8b 44 24 60	 mov	 eax, DWORD PTR i$[rsp]
  01aab	ff c0		 inc	 eax
  01aad	89 44 24 60	 mov	 DWORD PTR i$[rsp], eax
  01ab1	48 8b 44 24 68	 mov	 rax, QWORD PTR dev$[rsp]
  01ab6	48 8b 40 30	 mov	 rax, QWORD PTR [rax+48]
  01aba	48 89 44 24 68	 mov	 QWORD PTR dev$[rsp], rax
$LN34@NP_update:
  01abf	48 83 7c 24 68
	00		 cmp	 QWORD PTR dev$[rsp], 0
  01ac5	0f 84 c3 05 00
	00		 je	 $LN33@NP_update

; 1364 :     {
; 1365 :         if (i >= cons_rows - 3) break;

  01acb	8b 05 00 00 00
	00		 mov	 eax, DWORD PTR cons_rows
  01ad1	83 e8 03	 sub	 eax, 3
  01ad4	39 44 24 60	 cmp	 DWORD PTR i$[rsp], eax
  01ad8	7c 05		 jl	 SHORT $LN139@NP_update
  01ada	e9 af 05 00 00	 jmp	 $LN33@NP_update
$LN139@NP_update:

; 1366 :         if (!dev->allocated) continue;

  01adf	48 8b 44 24 68	 mov	 rax, QWORD PTR dev$[rsp]
  01ae4	83 78 40 00	 cmp	 DWORD PTR [rax+64], 0
  01ae8	75 02		 jne	 SHORT $LN140@NP_update
  01aea	eb bb		 jmp	 SHORT $LN32@NP_update
$LN140@NP_update:

; 1367 : 
; 1368 :         online = (dev->console && dev->connected) || strlen(dev->filename) > 0;

  01aec	48 8b 44 24 68	 mov	 rax, QWORD PTR dev$[rsp]
  01af1	8b 80 f8 05 00
	00		 mov	 eax, DWORD PTR [rax+1528]
  01af7	c1 e8 04	 shr	 eax, 4
  01afa	83 e0 01	 and	 eax, 1
  01afd	85 c0		 test	 eax, eax
  01aff	74 15		 je	 SHORT $LN218@NP_update
  01b01	48 8b 44 24 68	 mov	 rax, QWORD PTR dev$[rsp]
  01b06	8b 80 f8 05 00
	00		 mov	 eax, DWORD PTR [rax+1528]
  01b0c	c1 e8 05	 shr	 eax, 5
  01b0f	83 e0 01	 and	 eax, 1
  01b12	85 c0		 test	 eax, eax
  01b14	75 25		 jne	 SHORT $LN219@NP_update
$LN218@NP_update:
  01b16	48 8b 44 24 68	 mov	 rax, QWORD PTR dev$[rsp]
  01b1b	48 05 a4 00 00
	00		 add	 rax, 164		; 000000a4H
  01b21	48 8b c8	 mov	 rcx, rax
  01b24	e8 00 00 00 00	 call	 strlen
  01b29	48 85 c0	 test	 rax, rax
  01b2c	77 0d		 ja	 SHORT $LN219@NP_update
  01b2e	c7 84 24 f8 00
	00 00 00 00 00
	00		 mov	 DWORD PTR tv1077[rsp], 0
  01b39	eb 0b		 jmp	 SHORT $LN220@NP_update
$LN219@NP_update:
  01b3b	c7 84 24 f8 00
	00 00 01 00 00
	00		 mov	 DWORD PTR tv1077[rsp], 1
$LN220@NP_update:
  01b46	8b 84 24 f8 00
	00 00		 mov	 eax, DWORD PTR tv1077[rsp]
  01b4d	89 84 24 8c 00
	00 00		 mov	 DWORD PTR online$[rsp], eax

; 1369 :         busy   = dev->busy != 0 || IOPENDING(dev) != 0;

  01b54	48 8b 44 24 68	 mov	 rax, QWORD PTR dev$[rsp]
  01b59	8b 80 f8 05 00
	00		 mov	 eax, DWORD PTR [rax+1528]
  01b5f	c1 e8 13	 shr	 eax, 19
  01b62	83 e0 01	 and	 eax, 1
  01b65	85 c0		 test	 eax, eax
  01b67	0f 85 83 00 00
	00		 jne	 $LN223@NP_update
  01b6d	48 8b 44 24 68	 mov	 rax, QWORD PTR dev$[rsp]
  01b72	8b 80 f8 05 00
	00		 mov	 eax, DWORD PTR [rax+1528]
  01b78	c1 e8 16	 shr	 eax, 22
  01b7b	83 e0 01	 and	 eax, 1
  01b7e	85 c0		 test	 eax, eax
  01b80	75 4c		 jne	 SHORT $LN221@NP_update
  01b82	48 8b 44 24 68	 mov	 rax, QWORD PTR dev$[rsp]
  01b87	8b 80 f8 05 00
	00		 mov	 eax, DWORD PTR [rax+1528]
  01b8d	c1 e8 17	 shr	 eax, 23
  01b90	83 e0 01	 and	 eax, 1
  01b93	85 c0		 test	 eax, eax
  01b95	75 37		 jne	 SHORT $LN221@NP_update
  01b97	48 8b 44 24 68	 mov	 rax, QWORD PTR dev$[rsp]
  01b9c	8b 80 f8 05 00
	00		 mov	 eax, DWORD PTR [rax+1528]
  01ba2	c1 e8 18	 shr	 eax, 24
  01ba5	83 e0 01	 and	 eax, 1
  01ba8	85 c0		 test	 eax, eax
  01baa	75 22		 jne	 SHORT $LN221@NP_update
  01bac	48 8b 44 24 68	 mov	 rax, QWORD PTR dev$[rsp]
  01bb1	8b 80 f8 05 00
	00		 mov	 eax, DWORD PTR [rax+1528]
  01bb7	c1 e8 1b	 shr	 eax, 27
  01bba	83 e0 01	 and	 eax, 1
  01bbd	85 c0		 test	 eax, eax
  01bbf	75 0d		 jne	 SHORT $LN221@NP_update
  01bc1	c7 84 24 fc 00
	00 00 00 00 00
	00		 mov	 DWORD PTR tv1098[rsp], 0
  01bcc	eb 0b		 jmp	 SHORT $LN222@NP_update
$LN221@NP_update:
  01bce	c7 84 24 fc 00
	00 00 01 00 00
	00		 mov	 DWORD PTR tv1098[rsp], 1
$LN222@NP_update:
  01bd9	83 bc 24 fc 00
	00 00 00	 cmp	 DWORD PTR tv1098[rsp], 0
  01be1	75 0d		 jne	 SHORT $LN223@NP_update
  01be3	c7 84 24 00 01
	00 00 00 00 00
	00		 mov	 DWORD PTR tv1100[rsp], 0
  01bee	eb 0b		 jmp	 SHORT $LN224@NP_update
$LN223@NP_update:
  01bf0	c7 84 24 00 01
	00 00 01 00 00
	00		 mov	 DWORD PTR tv1100[rsp], 1
$LN224@NP_update:
  01bfb	8b 84 24 00 01
	00 00		 mov	 eax, DWORD PTR tv1100[rsp]
  01c02	89 84 24 90 00
	00 00		 mov	 DWORD PTR busy$[rsp], eax

; 1370 :         open   = dev->fd > 2;

  01c09	48 8b 44 24 68	 mov	 rax, QWORD PTR dev$[rsp]
  01c0e	83 b8 ac 01 00
	00 02		 cmp	 DWORD PTR [rax+428], 2
  01c15	7e 0d		 jle	 SHORT $LN225@NP_update
  01c17	c7 84 24 04 01
	00 00 01 00 00
	00		 mov	 DWORD PTR tv1103[rsp], 1
  01c22	eb 0b		 jmp	 SHORT $LN226@NP_update
$LN225@NP_update:
  01c24	c7 84 24 04 01
	00 00 00 00 00
	00		 mov	 DWORD PTR tv1103[rsp], 0
$LN226@NP_update:
  01c2f	8b 84 24 04 01
	00 00		 mov	 eax, DWORD PTR tv1103[rsp]
  01c36	89 84 24 94 00
	00 00		 mov	 DWORD PTR open$[rsp], eax

; 1371 : 
; 1372 :         /* device identifier */
; 1373 :         if (!NPdevices_valid || online != NPonline[i])

  01c3d	83 3d 00 00 00
	00 00		 cmp	 DWORD PTR NPdevices_valid, 0
  01c44	74 1c		 je	 SHORT $LN142@NP_update
  01c46	48 63 44 24 60	 movsxd	 rax, DWORD PTR i$[rsp]
  01c4b	48 8d 0d 00 00
	00 00		 lea	 rcx, OFFSET FLAT:NPonline
  01c52	8b 04 81	 mov	 eax, DWORD PTR [rcx+rax*4]
  01c55	39 84 24 8c 00
	00 00		 cmp	 DWORD PTR online$[rsp], eax
  01c5c	0f 84 88 00 00
	00		 je	 $LN141@NP_update
$LN142@NP_update:

; 1374 :         {
; 1375 :             set_pos (DEV_LINE+i, 41);

  01c62	8b 44 24 60	 mov	 eax, DWORD PTR i$[rsp]
  01c66	83 c0 03	 add	 eax, 3
  01c69	66 ba 29 00	 mov	 dx, 41			; 00000029H
  01c6d	0f b7 c8	 movzx	 ecx, ax
  01c70	e8 00 00 00 00	 call	 set_pos

; 1376 :             set_color (online ? COLOR_LIGHT_GREEN : COLOR_LIGHT_GREY, COLOR_BLACK);

  01c75	83 bc 24 8c 00
	00 00 00	 cmp	 DWORD PTR online$[rsp], 0
  01c7d	74 0d		 je	 SHORT $LN227@NP_update
  01c7f	c7 84 24 08 01
	00 00 0a 00 00
	00		 mov	 DWORD PTR tv1115[rsp], 10
  01c8a	eb 0b		 jmp	 SHORT $LN228@NP_update
$LN227@NP_update:
  01c8c	c7 84 24 08 01
	00 00 08 00 00
	00		 mov	 DWORD PTR tv1115[rsp], 8
$LN228@NP_update:
  01c97	33 d2		 xor	 edx, edx
  01c99	0f b7 8c 24 08
	01 00 00	 movzx	 ecx, WORD PTR tv1115[rsp]
  01ca1	e8 00 00 00 00	 call	 set_color

; 1377 :             draw_char (i < 26 ? 'A' + i : '.');

  01ca6	83 7c 24 60 1a	 cmp	 DWORD PTR i$[rsp], 26
  01cab	7d 10		 jge	 SHORT $LN229@NP_update
  01cad	8b 44 24 60	 mov	 eax, DWORD PTR i$[rsp]
  01cb1	83 c0 41	 add	 eax, 65			; 00000041H
  01cb4	89 84 24 0c 01
	00 00		 mov	 DWORD PTR tv1120[rsp], eax
  01cbb	eb 0b		 jmp	 SHORT $LN230@NP_update
$LN229@NP_update:
  01cbd	c7 84 24 0c 01
	00 00 2e 00 00
	00		 mov	 DWORD PTR tv1120[rsp], 46 ; 0000002eH
$LN230@NP_update:
  01cc8	8b 8c 24 0c 01
	00 00		 mov	 ecx, DWORD PTR tv1120[rsp]
  01ccf	e8 00 00 00 00	 call	 draw_char

; 1378 :             NPonline[i] = online;

  01cd4	48 63 44 24 60	 movsxd	 rax, DWORD PTR i$[rsp]
  01cd9	48 8d 0d 00 00
	00 00		 lea	 rcx, OFFSET FLAT:NPonline
  01ce0	8b 94 24 8c 00
	00 00		 mov	 edx, DWORD PTR online$[rsp]
  01ce7	89 14 81	 mov	 DWORD PTR [rcx+rax*4], edx
$LN141@NP_update:

; 1379 :         }
; 1380 : 
; 1381 :         /* device number */
; 1382 :         if (!NPdevices_valid || dev->devnum != NPdevnum[i] || NPbusy[i] != busy)

  01cea	83 3d 00 00 00
	00 00		 cmp	 DWORD PTR NPdevices_valid, 0
  01cf1	74 39		 je	 SHORT $LN144@NP_update
  01cf3	48 8b 44 24 68	 mov	 rax, QWORD PTR dev$[rsp]
  01cf8	0f b7 40 48	 movzx	 eax, WORD PTR [rax+72]
  01cfc	48 63 4c 24 60	 movsxd	 rcx, DWORD PTR i$[rsp]
  01d01	48 8d 15 00 00
	00 00		 lea	 rdx, OFFSET FLAT:NPdevnum
  01d08	0f b7 0c 4a	 movzx	 ecx, WORD PTR [rdx+rcx*2]
  01d0c	3b c1		 cmp	 eax, ecx
  01d0e	75 1c		 jne	 SHORT $LN144@NP_update
  01d10	48 63 44 24 60	 movsxd	 rax, DWORD PTR i$[rsp]
  01d15	48 8d 0d 00 00
	00 00		 lea	 rcx, OFFSET FLAT:NPbusy
  01d1c	8b 94 24 90 00
	00 00		 mov	 edx, DWORD PTR busy$[rsp]
  01d23	39 14 81	 cmp	 DWORD PTR [rcx+rax*4], edx
  01d26	0f 84 d8 00 00
	00		 je	 $LN143@NP_update
$LN144@NP_update:

; 1383 :         {
; 1384 :             set_pos (DEV_LINE+i, 43);

  01d2c	8b 44 24 60	 mov	 eax, DWORD PTR i$[rsp]
  01d30	83 c0 03	 add	 eax, 3
  01d33	66 ba 2b 00	 mov	 dx, 43			; 0000002bH
  01d37	0f b7 c8	 movzx	 ecx, ax
  01d3a	e8 00 00 00 00	 call	 set_pos

; 1385 :             set_color (busy ? COLOR_LIGHT_YELLOW : COLOR_LIGHT_GREY, COLOR_BLACK);

  01d3f	83 bc 24 90 00
	00 00 00	 cmp	 DWORD PTR busy$[rsp], 0
  01d47	74 0d		 je	 SHORT $LN231@NP_update
  01d49	c7 84 24 10 01
	00 00 0e 00 00
	00		 mov	 DWORD PTR tv1143[rsp], 14
  01d54	eb 0b		 jmp	 SHORT $LN232@NP_update
$LN231@NP_update:
  01d56	c7 84 24 10 01
	00 00 08 00 00
	00		 mov	 DWORD PTR tv1143[rsp], 8
$LN232@NP_update:
  01d61	33 d2		 xor	 edx, edx
  01d63	0f b7 8c 24 10
	01 00 00	 movzx	 ecx, WORD PTR tv1143[rsp]
  01d6b	e8 00 00 00 00	 call	 set_color

; 1386 :             if (dev == sysblk.sysgdev)

  01d70	48 8b 05 00 00
	00 00		 mov	 rax, QWORD PTR __imp_sysblk
  01d77	48 8b 80 c8 11
	00 00		 mov	 rax, QWORD PTR [rax+4552]
  01d7e	48 39 44 24 68	 cmp	 QWORD PTR dev$[rsp], rax
  01d83	75 1d		 jne	 SHORT $LN145@NP_update

; 1387 :                 STRLCPY( buf, "SYSG" );

  01d85	41 b8 00 04 00
	00		 mov	 r8d, 1024		; 00000400H
  01d8b	48 8d 15 00 00
	00 00		 lea	 rdx, OFFSET FLAT:$SG168898
  01d92	48 8d 8c 24 a0
	02 00 00	 lea	 rcx, QWORD PTR buf$[rsp]
  01d9a	ff 15 00 00 00
	00		 call	 QWORD PTR __imp_strlcpy
  01da0	eb 26		 jmp	 SHORT $LN146@NP_update
$LN145@NP_update:

; 1388 :             else
; 1389 :                 MSGBUF (buf, "%4.4X", dev->devnum);

  01da2	48 8b 44 24 68	 mov	 rax, QWORD PTR dev$[rsp]
  01da7	0f b7 40 48	 movzx	 eax, WORD PTR [rax+72]
  01dab	44 8b c8	 mov	 r9d, eax
  01dae	4c 8d 05 00 00
	00 00		 lea	 r8, OFFSET FLAT:$SG168899
  01db5	ba 00 04 00 00	 mov	 edx, 1024		; 00000400H
  01dba	48 8d 8c 24 a0
	02 00 00	 lea	 rcx, QWORD PTR buf$[rsp]
  01dc2	ff 15 00 00 00
	00		 call	 QWORD PTR __imp_w32_snprintf
$LN146@NP_update:

; 1390 :             draw_text (buf);

  01dc8	48 8d 8c 24 a0
	02 00 00	 lea	 rcx, QWORD PTR buf$[rsp]
  01dd0	e8 00 00 00 00	 call	 draw_text

; 1391 :             NPdevnum[i] = dev->devnum;

  01dd5	48 63 44 24 60	 movsxd	 rax, DWORD PTR i$[rsp]
  01dda	48 8d 0d 00 00
	00 00		 lea	 rcx, OFFSET FLAT:NPdevnum
  01de1	48 8b 54 24 68	 mov	 rdx, QWORD PTR dev$[rsp]
  01de6	0f b7 52 48	 movzx	 edx, WORD PTR [rdx+72]
  01dea	66 89 14 41	 mov	 WORD PTR [rcx+rax*2], dx

; 1392 :             NPbusy[i] = busy;

  01dee	48 63 44 24 60	 movsxd	 rax, DWORD PTR i$[rsp]
  01df3	48 8d 0d 00 00
	00 00		 lea	 rcx, OFFSET FLAT:NPbusy
  01dfa	8b 94 24 90 00
	00 00		 mov	 edx, DWORD PTR busy$[rsp]
  01e01	89 14 81	 mov	 DWORD PTR [rcx+rax*4], edx
$LN143@NP_update:

; 1393 :         }
; 1394 : 
; 1395 :         /* device type */
; 1396 :         if (!NPdevices_valid || dev->devtype != NPdevtype[i] || open != NPopen[i])

  01e04	83 3d 00 00 00
	00 00		 cmp	 DWORD PTR NPdevices_valid, 0
  01e0b	74 39		 je	 SHORT $LN148@NP_update
  01e0d	48 8b 44 24 68	 mov	 rax, QWORD PTR dev$[rsp]
  01e12	0f b7 40 4a	 movzx	 eax, WORD PTR [rax+74]
  01e16	48 63 4c 24 60	 movsxd	 rcx, DWORD PTR i$[rsp]
  01e1b	48 8d 15 00 00
	00 00		 lea	 rdx, OFFSET FLAT:NPdevtype
  01e22	0f b7 0c 4a	 movzx	 ecx, WORD PTR [rdx+rcx*2]
  01e26	3b c1		 cmp	 eax, ecx
  01e28	75 1c		 jne	 SHORT $LN148@NP_update
  01e2a	48 63 44 24 60	 movsxd	 rax, DWORD PTR i$[rsp]
  01e2f	48 8d 0d 00 00
	00 00		 lea	 rcx, OFFSET FLAT:NPopen
  01e36	8b 04 81	 mov	 eax, DWORD PTR [rcx+rax*4]
  01e39	39 84 24 94 00
	00 00		 cmp	 DWORD PTR open$[rsp], eax
  01e40	0f 84 a6 00 00
	00		 je	 $LN147@NP_update
$LN148@NP_update:

; 1397 :         {
; 1398 :             set_pos (DEV_LINE+i, 48);

  01e46	8b 44 24 60	 mov	 eax, DWORD PTR i$[rsp]
  01e4a	83 c0 03	 add	 eax, 3
  01e4d	66 ba 30 00	 mov	 dx, 48			; 00000030H
  01e51	0f b7 c8	 movzx	 ecx, ax
  01e54	e8 00 00 00 00	 call	 set_pos

; 1399 :             set_color (open ? COLOR_LIGHT_GREEN : COLOR_LIGHT_GREY, COLOR_BLACK);

  01e59	83 bc 24 94 00
	00 00 00	 cmp	 DWORD PTR open$[rsp], 0
  01e61	74 0d		 je	 SHORT $LN233@NP_update
  01e63	c7 84 24 14 01
	00 00 0a 00 00
	00		 mov	 DWORD PTR tv1183[rsp], 10
  01e6e	eb 0b		 jmp	 SHORT $LN234@NP_update
$LN233@NP_update:
  01e70	c7 84 24 14 01
	00 00 08 00 00
	00		 mov	 DWORD PTR tv1183[rsp], 8
$LN234@NP_update:
  01e7b	33 d2		 xor	 edx, edx
  01e7d	0f b7 8c 24 14
	01 00 00	 movzx	 ecx, WORD PTR tv1183[rsp]
  01e85	e8 00 00 00 00	 call	 set_color

; 1400 :             MSGBUF (buf, "%4.4X", dev->devtype);

  01e8a	48 8b 44 24 68	 mov	 rax, QWORD PTR dev$[rsp]
  01e8f	0f b7 40 4a	 movzx	 eax, WORD PTR [rax+74]
  01e93	44 8b c8	 mov	 r9d, eax
  01e96	4c 8d 05 00 00
	00 00		 lea	 r8, OFFSET FLAT:$SG168902
  01e9d	ba 00 04 00 00	 mov	 edx, 1024		; 00000400H
  01ea2	48 8d 8c 24 a0
	02 00 00	 lea	 rcx, QWORD PTR buf$[rsp]
  01eaa	ff 15 00 00 00
	00		 call	 QWORD PTR __imp_w32_snprintf

; 1401 :             draw_text (buf);

  01eb0	48 8d 8c 24 a0
	02 00 00	 lea	 rcx, QWORD PTR buf$[rsp]
  01eb8	e8 00 00 00 00	 call	 draw_text

; 1402 :             NPdevtype[i] = dev->devtype;

  01ebd	48 63 44 24 60	 movsxd	 rax, DWORD PTR i$[rsp]
  01ec2	48 8d 0d 00 00
	00 00		 lea	 rcx, OFFSET FLAT:NPdevtype
  01ec9	48 8b 54 24 68	 mov	 rdx, QWORD PTR dev$[rsp]
  01ece	0f b7 52 4a	 movzx	 edx, WORD PTR [rdx+74]
  01ed2	66 89 14 41	 mov	 WORD PTR [rcx+rax*2], dx

; 1403 :             NPopen[i] = open;

  01ed6	48 63 44 24 60	 movsxd	 rax, DWORD PTR i$[rsp]
  01edb	48 8d 0d 00 00
	00 00		 lea	 rcx, OFFSET FLAT:NPopen
  01ee2	8b 94 24 94 00
	00 00		 mov	 edx, DWORD PTR open$[rsp]
  01ee9	89 14 81	 mov	 DWORD PTR [rcx+rax*4], edx
$LN147@NP_update:

; 1404 :         }
; 1405 : 
; 1406 :         /* device class and name */
; 1407 :         (dev->hnd->query)(dev, &devclass, sizeof(devnam), devnam);

  01eec	48 8b 44 24 68	 mov	 rax, QWORD PTR dev$[rsp]
  01ef1	48 8b 80 90 02
	00 00		 mov	 rax, QWORD PTR [rax+656]
  01ef8	4c 8d 8c 24 90
	01 00 00	 lea	 r9, QWORD PTR devnam$[rsp]
  01f00	41 b8 04 01 00
	00		 mov	 r8d, 260		; 00000104H
  01f06	48 8d 94 24 70
	01 00 00	 lea	 rdx, QWORD PTR devclass$[rsp]
  01f0e	48 8b 4c 24 68	 mov	 rcx, QWORD PTR dev$[rsp]
  01f13	ff 50 18	 call	 QWORD PTR [rax+24]

; 1408 :         if (!NPdevices_valid || strcmp(NPdevnam[i], devnam))

  01f16	83 3d 00 00 00
	00 00		 cmp	 DWORD PTR NPdevices_valid, 0
  01f1d	74 31		 je	 SHORT $LN150@NP_update
  01f1f	48 63 44 24 60	 movsxd	 rax, DWORD PTR i$[rsp]
  01f24	48 69 c0 80 00
	00 00		 imul	 rax, rax, 128		; 00000080H
  01f2b	48 8d 0d 00 00
	00 00		 lea	 rcx, OFFSET FLAT:NPdevnam
  01f32	48 03 c8	 add	 rcx, rax
  01f35	48 8b c1	 mov	 rax, rcx
  01f38	48 8d 94 24 90
	01 00 00	 lea	 rdx, QWORD PTR devnam$[rsp]
  01f40	48 8b c8	 mov	 rcx, rax
  01f43	e8 00 00 00 00	 call	 strcmp
  01f48	85 c0		 test	 eax, eax
  01f4a	0f 84 39 01 00
	00		 je	 $LN149@NP_update
$LN150@NP_update:

; 1409 :         {
; 1410 :             set_color (COLOR_LIGHT_GREY, COLOR_BLACK);

  01f50	33 d2		 xor	 edx, edx
  01f52	66 b9 08 00	 mov	 cx, 8
  01f56	e8 00 00 00 00	 call	 set_color

; 1411 :             set_pos (DEV_LINE+i, 53);

  01f5b	8b 44 24 60	 mov	 eax, DWORD PTR i$[rsp]
  01f5f	83 c0 03	 add	 eax, 3
  01f62	66 ba 35 00	 mov	 dx, 53			; 00000035H
  01f66	0f b7 c8	 movzx	 ecx, ax
  01f69	e8 00 00 00 00	 call	 set_pos

; 1412 :             MSGBUF (buf, "%-4.4s", devclass);

  01f6e	4c 8b 8c 24 70
	01 00 00	 mov	 r9, QWORD PTR devclass$[rsp]
  01f76	4c 8d 05 00 00
	00 00		 lea	 r8, OFFSET FLAT:$SG168905
  01f7d	ba 00 04 00 00	 mov	 edx, 1024		; 00000400H
  01f82	48 8d 8c 24 a0
	02 00 00	 lea	 rcx, QWORD PTR buf$[rsp]
  01f8a	ff 15 00 00 00
	00		 call	 QWORD PTR __imp_w32_snprintf

; 1413 :             draw_text (buf);

  01f90	48 8d 8c 24 a0
	02 00 00	 lea	 rcx, QWORD PTR buf$[rsp]
  01f98	e8 00 00 00 00	 call	 draw_text

; 1414 :             /* Draw device name only if they're NOT assigning a new one */
; 1415 :             if (0
; 1416 :                 || NPdataentry != 1
; 1417 :                 || NPpending != 'n'
; 1418 :                 || NPasgn != i

  01f9d	33 c0		 xor	 eax, eax
  01f9f	85 c0		 test	 eax, eax
  01fa1	75 25		 jne	 SHORT $LN152@NP_update
  01fa3	83 3d 00 00 00
	00 01		 cmp	 DWORD PTR NPdataentry, 1
  01faa	75 1c		 jne	 SHORT $LN152@NP_update
  01fac	0f be 05 00 00
	00 00		 movsx	 eax, BYTE PTR NPpending
  01fb3	83 f8 6e	 cmp	 eax, 110		; 0000006eH
  01fb6	75 10		 jne	 SHORT $LN152@NP_update
  01fb8	8b 44 24 60	 mov	 eax, DWORD PTR i$[rsp]
  01fbc	39 05 00 00 00
	00		 cmp	 DWORD PTR NPasgn, eax
  01fc2	0f 84 c1 00 00
	00		 je	 $LN151@NP_update
$LN152@NP_update:

; 1419 :             )
; 1420 :             {
; 1421 :                 /* locate first nonprintable and truncate */
; 1422 :                 int l, p;
; 1423 : 
; 1424 :                 l = (int)strlen(devnam);

  01fc8	48 8d 8c 24 90
	01 00 00	 lea	 rcx, QWORD PTR devnam$[rsp]
  01fd0	e8 00 00 00 00	 call	 strlen
  01fd5	89 84 24 50 01
	00 00		 mov	 DWORD PTR l$2[rsp], eax

; 1425 :                 for ( p = 0; p < l; p++ )

  01fdc	c7 84 24 80 00
	00 00 00 00 00
	00		 mov	 DWORD PTR p$1[rsp], 0
  01fe7	eb 10		 jmp	 SHORT $LN37@NP_update
$LN35@NP_update:
  01fe9	8b 84 24 80 00
	00 00		 mov	 eax, DWORD PTR p$1[rsp]
  01ff0	ff c0		 inc	 eax
  01ff2	89 84 24 80 00
	00 00		 mov	 DWORD PTR p$1[rsp], eax
$LN37@NP_update:
  01ff9	8b 84 24 50 01
	00 00		 mov	 eax, DWORD PTR l$2[rsp]
  02000	39 84 24 80 00
	00 00		 cmp	 DWORD PTR p$1[rsp], eax
  02007	7d 55		 jge	 SHORT $LN36@NP_update

; 1426 :                 {
; 1427 :                     if ( !isprint(devnam[p]) )

  02009	48 63 84 24 80
	00 00 00	 movsxd	 rax, DWORD PTR p$1[rsp]
  02011	0f be 84 04 90
	01 00 00	 movsx	 eax, BYTE PTR devnam$[rsp+rax]
  02019	8b c8		 mov	 ecx, eax
  0201b	ff 15 00 00 00
	00		 call	 QWORD PTR __imp_isprint
  02021	85 c0		 test	 eax, eax
  02023	75 37		 jne	 SHORT $LN153@NP_update

; 1428 :                     {
; 1429 :                         devnam[p] = '\0';

  02025	48 63 84 24 80
	00 00 00	 movsxd	 rax, DWORD PTR p$1[rsp]
  0202d	48 89 84 24 58
	01 00 00	 mov	 QWORD PTR $T3[rsp], rax
  02035	48 81 bc 24 58
	01 00 00 04 01
	00 00		 cmp	 QWORD PTR $T3[rsp], 260	; 00000104H
  02041	73 02		 jae	 SHORT $LN235@NP_update
  02043	eb 05		 jmp	 SHORT $LN236@NP_update
$LN235@NP_update:
  02045	e8 00 00 00 00	 call	 __report_rangecheckfailure
$LN236@NP_update:
  0204a	48 8b 84 24 58
	01 00 00	 mov	 rax, QWORD PTR $T3[rsp]
  02052	c6 84 04 90 01
	00 00 00	 mov	 BYTE PTR devnam$[rsp+rax], 0

; 1430 :                         break;

  0205a	eb 02		 jmp	 SHORT $LN36@NP_update
$LN153@NP_update:

; 1431 :                     }
; 1432 :                 }

  0205c	eb 8b		 jmp	 SHORT $LN35@NP_update
$LN36@NP_update:

; 1433 :                 set_pos (DEV_LINE+i, 58);

  0205e	8b 44 24 60	 mov	 eax, DWORD PTR i$[rsp]
  02062	83 c0 03	 add	 eax, 3
  02065	66 ba 3a 00	 mov	 dx, 58			; 0000003aH
  02069	0f b7 c8	 movzx	 ecx, ax
  0206c	e8 00 00 00 00	 call	 set_pos

; 1434 :                 draw_text (devnam);

  02071	48 8d 8c 24 90
	01 00 00	 lea	 rcx, QWORD PTR devnam$[rsp]
  02079	e8 00 00 00 00	 call	 draw_text

; 1435 :                 fill_text (' ', PANEL_MAX_COLS);

  0207e	66 ba 00 01	 mov	 dx, 256			; 00000100H
  02082	b1 20		 mov	 cl, 32			; 00000020H
  02084	e8 00 00 00 00	 call	 fill_text
$LN151@NP_update:
$LN149@NP_update:

; 1436 :             }
; 1437 :         }
; 1438 :     }

  02089	e9 19 fa ff ff	 jmp	 $LN32@NP_update
$LN33@NP_update:

; 1439 : 
; 1440 :     /* Complete the device state table */
; 1441 :     if (!NPdevices_valid)

  0208e	83 3d 00 00 00
	00 00		 cmp	 DWORD PTR NPdevices_valid, 0
  02095	0f 85 e3 00 00
	00		 jne	 $LN154@NP_update

; 1442 :     {
; 1443 :         NPlastdev = i > 26 ? 26 : i - 1;

  0209b	83 7c 24 60 1a	 cmp	 DWORD PTR i$[rsp], 26
  020a0	7e 0d		 jle	 SHORT $LN237@NP_update
  020a2	c7 84 24 18 01
	00 00 1a 00 00
	00		 mov	 DWORD PTR tv1255[rsp], 26
  020ad	eb 0d		 jmp	 SHORT $LN238@NP_update
$LN237@NP_update:
  020af	8b 44 24 60	 mov	 eax, DWORD PTR i$[rsp]
  020b3	ff c8		 dec	 eax
  020b5	89 84 24 18 01
	00 00		 mov	 DWORD PTR tv1255[rsp], eax
$LN238@NP_update:
  020bc	8b 84 24 18 01
	00 00		 mov	 eax, DWORD PTR tv1255[rsp]
  020c3	89 05 00 00 00
	00		 mov	 DWORD PTR NPlastdev, eax

; 1444 :         for ( ; i < NP_MAX_DEVICES; i++)

  020c9	eb 0a		 jmp	 SHORT $LN40@NP_update
$LN38@NP_update:
  020cb	8b 44 24 60	 mov	 eax, DWORD PTR i$[rsp]
  020cf	ff c0		 inc	 eax
  020d1	89 44 24 60	 mov	 DWORD PTR i$[rsp], eax
$LN40@NP_update:
  020d5	81 7c 24 60 fd
	00 00 00	 cmp	 DWORD PTR i$[rsp], 253	; 000000fdH
  020dd	0f 8d 91 00 00
	00		 jge	 $LN39@NP_update

; 1445 :         {
; 1446 :             NPonline[i] = NPdevnum[i] = NPbusy[i] = NPdevtype[i] = NPopen[i] = 0;

  020e3	48 63 44 24 60	 movsxd	 rax, DWORD PTR i$[rsp]
  020e8	48 8d 0d 00 00
	00 00		 lea	 rcx, OFFSET FLAT:NPopen
  020ef	c7 04 81 00 00
	00 00		 mov	 DWORD PTR [rcx+rax*4], 0
  020f6	48 63 44 24 60	 movsxd	 rax, DWORD PTR i$[rsp]
  020fb	48 8d 0d 00 00
	00 00		 lea	 rcx, OFFSET FLAT:NPdevtype
  02102	33 d2		 xor	 edx, edx
  02104	66 89 14 41	 mov	 WORD PTR [rcx+rax*2], dx
  02108	48 63 44 24 60	 movsxd	 rax, DWORD PTR i$[rsp]
  0210d	48 8d 0d 00 00
	00 00		 lea	 rcx, OFFSET FLAT:NPbusy
  02114	c7 04 81 00 00
	00 00		 mov	 DWORD PTR [rcx+rax*4], 0
  0211b	48 63 44 24 60	 movsxd	 rax, DWORD PTR i$[rsp]
  02120	48 8d 0d 00 00
	00 00		 lea	 rcx, OFFSET FLAT:NPdevnum
  02127	33 d2		 xor	 edx, edx
  02129	66 89 14 41	 mov	 WORD PTR [rcx+rax*2], dx
  0212d	48 63 44 24 60	 movsxd	 rax, DWORD PTR i$[rsp]
  02132	48 8d 0d 00 00
	00 00		 lea	 rcx, OFFSET FLAT:NPonline
  02139	c7 04 81 00 00
	00 00		 mov	 DWORD PTR [rcx+rax*4], 0

; 1447 :             STRLCPY( NPdevnam[i], "" );

  02140	48 63 44 24 60	 movsxd	 rax, DWORD PTR i$[rsp]
  02145	48 69 c0 80 00
	00 00		 imul	 rax, rax, 128		; 00000080H
  0214c	48 8d 0d 00 00
	00 00		 lea	 rcx, OFFSET FLAT:NPdevnam
  02153	48 03 c8	 add	 rcx, rax
  02156	48 8b c1	 mov	 rax, rcx
  02159	41 b8 80 00 00
	00		 mov	 r8d, 128		; 00000080H
  0215f	48 8d 15 00 00
	00 00		 lea	 rdx, OFFSET FLAT:$SG168910
  02166	48 8b c8	 mov	 rcx, rax
  02169	ff 15 00 00 00
	00		 call	 QWORD PTR __imp_strlcpy

; 1448 :         }

  0216f	e9 57 ff ff ff	 jmp	 $LN38@NP_update
$LN39@NP_update:

; 1449 :         NPdevices_valid = 1;

  02174	c7 05 00 00 00
	00 01 00 00 00	 mov	 DWORD PTR NPdevices_valid, 1
$LN154@NP_update:

; 1450 :     }
; 1451 : 
; 1452 :     /* Prompt 1 */
; 1453 :     if (strcmp(NPprompt1, NPoldprompt1))

  0217e	48 8d 15 00 00
	00 00		 lea	 rdx, OFFSET FLAT:NPoldprompt1
  02185	48 8d 0d 00 00
	00 00		 lea	 rcx, OFFSET FLAT:NPprompt1
  0218c	e8 00 00 00 00	 call	 strcmp
  02191	85 c0		 test	 eax, eax
  02193	0f 84 9f 00 00
	00		 je	 $LN155@NP_update

; 1454 :     {
; 1455 :         STRLCPY( NPoldprompt1, NPprompt1 );

  02199	41 b8 28 00 00
	00		 mov	 r8d, 40			; 00000028H
  0219f	48 8d 15 00 00
	00 00		 lea	 rdx, OFFSET FLAT:NPprompt1
  021a6	48 8d 0d 00 00
	00 00		 lea	 rcx, OFFSET FLAT:NPoldprompt1
  021ad	ff 15 00 00 00
	00		 call	 QWORD PTR __imp_strlcpy

; 1456 :         if (strlen(NPprompt1) > 0)

  021b3	48 8d 0d 00 00
	00 00		 lea	 rcx, OFFSET FLAT:NPprompt1
  021ba	e8 00 00 00 00	 call	 strlen
  021bf	48 85 c0	 test	 rax, rax
  021c2	76 45		 jbe	 SHORT $LN156@NP_update

; 1457 :         {
; 1458 :             set_color (COLOR_WHITE, COLOR_BLUE);

  021c4	66 ba 03 00	 mov	 dx, 3
  021c8	66 b9 0f 00	 mov	 cx, 15
  021cc	e8 00 00 00 00	 call	 set_color

; 1459 :             set_pos (cons_rows, (40 - (short)strlen(NPprompt1)) / 2);

  021d1	48 8d 0d 00 00
	00 00		 lea	 rcx, OFFSET FLAT:NPprompt1
  021d8	e8 00 00 00 00	 call	 strlen
  021dd	98		 cwde
  021de	b9 28 00 00 00	 mov	 ecx, 40			; 00000028H
  021e3	2b c8		 sub	 ecx, eax
  021e5	8b c1		 mov	 eax, ecx
  021e7	99		 cdq
  021e8	2b c2		 sub	 eax, edx
  021ea	d1 f8		 sar	 eax, 1
  021ec	0f b7 d0	 movzx	 edx, ax
  021ef	0f b7 0d 00 00
	00 00		 movzx	 ecx, WORD PTR cons_rows
  021f6	e8 00 00 00 00	 call	 set_pos

; 1460 :             draw_text (NPprompt1);

  021fb	48 8d 0d 00 00
	00 00		 lea	 rcx, OFFSET FLAT:NPprompt1
  02202	e8 00 00 00 00	 call	 draw_text

; 1461 :         }

  02207	eb 2f		 jmp	 SHORT $LN157@NP_update
$LN156@NP_update:

; 1462 :         else if (cons_rows >= 24)

  02209	83 3d 00 00 00
	00 18		 cmp	 DWORD PTR cons_rows, 24
  02210	7c 26		 jl	 SHORT $LN158@NP_update

; 1463 :         {
; 1464 :             set_color (COLOR_LIGHT_GREY, COLOR_BLACK);

  02212	33 d2		 xor	 edx, edx
  02214	66 b9 08 00	 mov	 cx, 8
  02218	e8 00 00 00 00	 call	 set_color

; 1465 :             set_pos (cons_rows, 1);

  0221d	66 ba 01 00	 mov	 dx, 1
  02221	0f b7 0d 00 00
	00 00		 movzx	 ecx, WORD PTR cons_rows
  02228	e8 00 00 00 00	 call	 set_pos

; 1466 :             fill_text ('-', 38);

  0222d	66 ba 26 00	 mov	 dx, 38			; 00000026H
  02231	b1 2d		 mov	 cl, 45			; 0000002dH
  02233	e8 00 00 00 00	 call	 fill_text
$LN158@NP_update:
$LN157@NP_update:
$LN155@NP_update:

; 1467 :         }
; 1468 :     }
; 1469 : 
; 1470 :     /* Prompt 2 */
; 1471 :     if (strcmp(NPprompt2, NPoldprompt2))

  02238	48 8d 15 00 00
	00 00		 lea	 rdx, OFFSET FLAT:NPoldprompt2
  0223f	48 8d 0d 00 00
	00 00		 lea	 rcx, OFFSET FLAT:NPprompt2
  02246	e8 00 00 00 00	 call	 strcmp
  0224b	85 c0		 test	 eax, eax
  0224d	0f 84 88 00 00
	00		 je	 $LN159@NP_update

; 1472 :     {
; 1473 :         STRLCPY( NPoldprompt2, NPprompt2 );

  02253	41 b8 28 00 00
	00		 mov	 r8d, 40			; 00000028H
  02259	48 8d 15 00 00
	00 00		 lea	 rdx, OFFSET FLAT:NPprompt2
  02260	48 8d 0d 00 00
	00 00		 lea	 rcx, OFFSET FLAT:NPoldprompt2
  02267	ff 15 00 00 00
	00		 call	 QWORD PTR __imp_strlcpy

; 1474 :         if (strlen(NPprompt2) > 0)

  0226d	48 8d 0d 00 00
	00 00		 lea	 rcx, OFFSET FLAT:NPprompt2
  02274	e8 00 00 00 00	 call	 strlen
  02279	48 85 c0	 test	 rax, rax
  0227c	76 2b		 jbe	 SHORT $LN160@NP_update

; 1475 :         {
; 1476 :             set_color(COLOR_WHITE, COLOR_BLUE);

  0227e	66 ba 03 00	 mov	 dx, 3
  02282	66 b9 0f 00	 mov	 cx, 15
  02286	e8 00 00 00 00	 call	 set_color

; 1477 :             set_pos(cons_rows, 41);

  0228b	66 ba 29 00	 mov	 dx, 41			; 00000029H
  0228f	0f b7 0d 00 00
	00 00		 movzx	 ecx, WORD PTR cons_rows
  02296	e8 00 00 00 00	 call	 set_pos

; 1478 :             draw_text(NPprompt2);

  0229b	48 8d 0d 00 00
	00 00		 lea	 rcx, OFFSET FLAT:NPprompt2
  022a2	e8 00 00 00 00	 call	 draw_text

; 1479 :         }

  022a7	eb 32		 jmp	 SHORT $LN161@NP_update
$LN160@NP_update:

; 1480 :         else if (cons_rows >= 24)

  022a9	83 3d 00 00 00
	00 18		 cmp	 DWORD PTR cons_rows, 24
  022b0	7c 29		 jl	 SHORT $LN162@NP_update

; 1481 :         {
; 1482 :             set_color( COLOR_LIGHT_GREY, COLOR_BLACK );

  022b2	33 d2		 xor	 edx, edx
  022b4	66 b9 08 00	 mov	 cx, 8
  022b8	e8 00 00 00 00	 call	 set_color

; 1483 :             set_pos( cons_rows, 41) ;

  022bd	66 ba 29 00	 mov	 dx, 41			; 00000029H
  022c1	0f b7 0d 00 00
	00 00		 movzx	 ecx, WORD PTR cons_rows
  022c8	e8 00 00 00 00	 call	 set_pos

; 1484 :             fill_text( '-', cons_cols );

  022cd	0f b7 15 00 00
	00 00		 movzx	 edx, WORD PTR cons_cols
  022d4	b1 2d		 mov	 cl, 45			; 0000002dH
  022d6	e8 00 00 00 00	 call	 fill_text
$LN162@NP_update:
$LN161@NP_update:
$LN159@NP_update:

; 1485 :         }
; 1486 :     }
; 1487 : 
; 1488 :     /* Data entry field */
; 1489 :     if (NPdataentry && redraw_cmd)

  022db	83 3d 00 00 00
	00 00		 cmp	 DWORD PTR NPdataentry, 0
  022e2	0f 84 4a 01 00
	00		 je	 $LN163@NP_update
  022e8	83 3d 00 00 00
	00 00		 cmp	 DWORD PTR redraw_cmd, 0
  022ef	0f 84 3d 01 00
	00		 je	 $LN163@NP_update

; 1490 :     {
; 1491 :         set_pos (NPcurrow, NPcurcol);

  022f5	0f b7 15 00 00
	00 00		 movzx	 edx, WORD PTR NPcurcol
  022fc	0f b7 0d 00 00
	00 00		 movzx	 ecx, WORD PTR NPcurrow
  02303	e8 00 00 00 00	 call	 set_pos

; 1492 :         if (NPcolorSwitch)

  02308	83 3d 00 00 00
	00 00		 cmp	 DWORD PTR NPcolorSwitch, 0
  0230f	74 13		 je	 SHORT $LN165@NP_update

; 1493 :             set_color (NPcolorFore, NPcolorBack);

  02311	0f b7 15 00 00
	00 00		 movzx	 edx, WORD PTR NPcolorBack
  02318	0f b7 0d 00 00
	00 00		 movzx	 ecx, WORD PTR NPcolorFore
  0231f	e8 00 00 00 00	 call	 set_color
$LN165@NP_update:

; 1494 :         fill_text (' ', NPcurcol + NPdatalen - 1);

  02324	0f bf 05 00 00
	00 00		 movsx	 eax, WORD PTR NPcurcol
  0232b	8b 0d 00 00 00
	00		 mov	 ecx, DWORD PTR NPdatalen
  02331	8d 44 08 ff	 lea	 eax, DWORD PTR [rax+rcx-1]
  02335	0f b7 d0	 movzx	 edx, ax
  02338	b1 20		 mov	 cl, 32			; 00000020H
  0233a	e8 00 00 00 00	 call	 fill_text

; 1495 :         set_pos (NPcurrow, NPcurcol);

  0233f	0f b7 15 00 00
	00 00		 movzx	 edx, WORD PTR NPcurcol
  02346	0f b7 0d 00 00
	00 00		 movzx	 ecx, WORD PTR NPcurrow
  0234d	e8 00 00 00 00	 call	 set_pos
$LN43@NP_update:
$LN46@NP_update:

; 1496 :         PUTC_CMDLINE();

  02352	8b 05 00 00 00
	00		 mov	 eax, DWORD PTR cmdlen
  02358	39 05 00 00 00
	00		 cmp	 DWORD PTR cmdcol, eax
  0235e	7e 5c		 jle	 SHORT $LN166@NP_update
$LN49@NP_update:
  02360	4c 8d 0d 00 00
	00 00		 lea	 r9, OFFSET FLAT:$SG168923
  02367	41 b8 d8 05 00
	00		 mov	 r8d, 1496		; 000005d8H
  0236d	48 8d 15 00 00
	00 00		 lea	 rdx, OFFSET FLAT:$SG168924
  02374	48 8d 0d 00 00
	00 00		 lea	 rcx, OFFSET FLAT:$SG168925
  0237b	ff 15 00 00 00
	00		 call	 QWORD PTR __imp_logmsg
  02381	ff 15 00 00 00
	00		 call	 QWORD PTR __imp_IsDebuggerPresent
  02387	85 c0		 test	 eax, eax
  02389	74 20		 je	 SHORT $LN167@NP_update
  0238b	4c 8d 0d 00 00
	00 00		 lea	 r9, OFFSET FLAT:$SG168927
  02392	41 b8 d8 05 00
	00		 mov	 r8d, 1496		; 000005d8H
  02398	48 8d 15 00 00
	00 00		 lea	 rdx, OFFSET FLAT:$SG168928
  0239f	48 8d 0d 00 00
	00 00		 lea	 rcx, OFFSET FLAT:$SG168929
  023a6	e8 00 00 00 00	 call	 DebuggerTrace
$LN167@NP_update:
  023ab	33 c0		 xor	 eax, eax
  023ad	85 c0		 test	 eax, eax
  023af	75 af		 jne	 SHORT $LN49@NP_update
  023b1	ff 15 00 00 00
	00		 call	 QWORD PTR __imp_IsDebuggerPresent
  023b7	85 c0		 test	 eax, eax
  023b9	74 01		 je	 SHORT $LN168@NP_update
  023bb	cc		 int	 3
$LN168@NP_update:
$LN166@NP_update:
  023bc	33 c0		 xor	 eax, eax
  023be	85 c0		 test	 eax, eax
  023c0	75 90		 jne	 SHORT $LN46@NP_update
  023c2	c7 44 24 60 00
	00 00 00	 mov	 DWORD PTR i$[rsp], 0
  023ca	eb 0a		 jmp	 SHORT $LN52@NP_update
$LN50@NP_update:
  023cc	8b 44 24 60	 mov	 eax, DWORD PTR i$[rsp]
  023d0	ff c0		 inc	 eax
  023d2	89 44 24 60	 mov	 DWORD PTR i$[rsp], eax
$LN52@NP_update:
  023d6	8b 44 24 60	 mov	 eax, DWORD PTR i$[rsp]
  023da	8b 0d 00 00 00
	00		 mov	 ecx, DWORD PTR cmdcol
  023e0	03 c8		 add	 ecx, eax
  023e2	8b c1		 mov	 eax, ecx
  023e4	3b 05 00 00 00
	00		 cmp	 eax, DWORD PTR cmdlen
  023ea	7d 30		 jge	 SHORT $LN51@NP_update
  023ec	8b 05 00 00 00
	00		 mov	 eax, DWORD PTR cmdcols
  023f2	39 44 24 60	 cmp	 DWORD PTR i$[rsp], eax
  023f6	7d 24		 jge	 SHORT $LN51@NP_update
  023f8	8b 44 24 60	 mov	 eax, DWORD PTR i$[rsp]
  023fc	8b 0d 00 00 00
	00		 mov	 ecx, DWORD PTR cmdcol
  02402	03 c8		 add	 ecx, eax
  02404	8b c1		 mov	 eax, ecx
  02406	48 98		 cdqe
  02408	48 8d 0d 00 00
	00 00		 lea	 rcx, OFFSET FLAT:cmdline
  0240f	0f be 04 01	 movsx	 eax, BYTE PTR [rcx+rax]
  02413	8b c8		 mov	 ecx, eax
  02415	e8 00 00 00 00	 call	 draw_char
  0241a	eb b0		 jmp	 SHORT $LN50@NP_update
$LN51@NP_update:
  0241c	33 c0		 xor	 eax, eax
  0241e	85 c0		 test	 eax, eax
  02420	0f 85 2c ff ff
	ff		 jne	 $LN43@NP_update

; 1497 :         redraw_cmd = 0;

  02426	c7 05 00 00 00
	00 00 00 00 00	 mov	 DWORD PTR redraw_cmd, 0

; 1498 :     }

  02430	eb 13		 jmp	 SHORT $LN164@NP_update
$LN163@NP_update:

; 1499 :     else
; 1500 :         /* Position the cursor to the bottom right */
; 1501 :         set_pos(cons_rows, cons_cols);

  02432	0f b7 15 00 00
	00 00		 movzx	 edx, WORD PTR cons_cols
  02439	0f b7 0d 00 00
	00 00		 movzx	 ecx, WORD PTR cons_rows
  02440	e8 00 00 00 00	 call	 set_pos
$LN164@NP_update:
$LN1@NP_update:
$LN169@NP_update:

; 1502 : }

  02445	48 8b 8c 24 a0
	06 00 00	 mov	 rcx, QWORD PTR __$ArrayPad$[rsp]
  0244d	48 33 cc	 xor	 rcx, rsp
  02450	e8 00 00 00 00	 call	 __security_check_cookie
  02455	48 81 c4 b8 06
	00 00		 add	 rsp, 1720		; 000006b8H
  0245c	5f		 pop	 rdi
  0245d	5e		 pop	 rsi
  0245e	c3		 ret	 0
NP_update ENDP
_TEXT	ENDS
; Function compile flags: /Odtp
; File C:\papa\MyGit\hyperion-zvector\panel.c
_TEXT	SEGMENT
maxg$ = 32
i$ = 36
grp$1 = 40
$T2 = 48
grps$ = 56
__$ArrayPad$ = 88
ic$ = 112
format_int PROC

; 898  : {

  00000	48 89 4c 24 08	 mov	 QWORD PTR [rsp+8], rcx
  00005	48 83 ec 68	 sub	 rsp, 104		; 00000068H
  00009	48 8b 05 00 00
	00 00		 mov	 rax, QWORD PTR __security_cookie
  00010	48 33 c4	 xor	 rax, rsp
  00013	48 89 44 24 58	 mov	 QWORD PTR __$ArrayPad$[rsp], rax

; 899  :     static char     obfr[32];   /* Enough for displaying 2^64-1 */
; 900  :     char            grps[7][4]; /* 7 groups of 3 digits */
; 901  :     int             maxg=0;

  00018	c7 44 24 20 00
	00 00 00	 mov	 DWORD PTR maxg$[rsp], 0

; 902  :     int             i;
; 903  : 
; 904  :     STRLCPY( grps[0], "0" );

  00020	b8 04 00 00 00	 mov	 eax, 4
  00025	48 6b c0 00	 imul	 rax, rax, 0
  00029	48 8d 44 04 38	 lea	 rax, QWORD PTR grps$[rsp+rax]
  0002e	41 b8 04 00 00
	00		 mov	 r8d, 4
  00034	48 8d 15 00 00
	00 00		 lea	 rdx, OFFSET FLAT:$SG168700
  0003b	48 8b c8	 mov	 rcx, rax
  0003e	ff 15 00 00 00
	00		 call	 QWORD PTR __imp_strlcpy
$LN2@format_int:

; 905  :     while(ic>0)

  00044	48 83 7c 24 70
	00		 cmp	 QWORD PTR ic$[rsp], 0
  0004a	0f 86 8b 00 00
	00		 jbe	 $LN3@format_int

; 906  :     {
; 907  :         int grp;
; 908  :         grp=ic%1000;

  00050	33 d2		 xor	 edx, edx
  00052	48 8b 44 24 70	 mov	 rax, QWORD PTR ic$[rsp]
  00057	b9 e8 03 00 00	 mov	 ecx, 1000		; 000003e8H
  0005c	48 f7 f1	 div	 rcx
  0005f	48 8b c2	 mov	 rax, rdx
  00062	89 44 24 28	 mov	 DWORD PTR grp$1[rsp], eax

; 909  :         ic/=1000;

  00066	33 d2		 xor	 edx, edx
  00068	48 8b 44 24 70	 mov	 rax, QWORD PTR ic$[rsp]
  0006d	b9 e8 03 00 00	 mov	 ecx, 1000		; 000003e8H
  00072	48 f7 f1	 div	 rcx
  00075	48 89 44 24 70	 mov	 QWORD PTR ic$[rsp], rax

; 910  :         if(ic==0)

  0007a	48 83 7c 24 70
	00		 cmp	 QWORD PTR ic$[rsp], 0
  00080	75 26		 jne	 SHORT $LN7@format_int

; 911  :         {
; 912  :             MSGBUF(grps[maxg],"%u",grp);

  00082	48 63 44 24 20	 movsxd	 rax, DWORD PTR maxg$[rsp]
  00087	48 8d 44 84 38	 lea	 rax, QWORD PTR grps$[rsp+rax*4]
  0008c	44 8b 4c 24 28	 mov	 r9d, DWORD PTR grp$1[rsp]
  00091	4c 8d 05 00 00
	00 00		 lea	 r8, OFFSET FLAT:$SG168703
  00098	ba 04 00 00 00	 mov	 edx, 4
  0009d	48 8b c8	 mov	 rcx, rax
  000a0	ff 15 00 00 00
	00		 call	 QWORD PTR __imp_w32_snprintf

; 913  :         }

  000a6	eb 24		 jmp	 SHORT $LN8@format_int
$LN7@format_int:

; 914  :         else
; 915  :         {
; 916  :             MSGBUF(grps[maxg],"%3.3u",grp);

  000a8	48 63 44 24 20	 movsxd	 rax, DWORD PTR maxg$[rsp]
  000ad	48 8d 44 84 38	 lea	 rax, QWORD PTR grps$[rsp+rax*4]
  000b2	44 8b 4c 24 28	 mov	 r9d, DWORD PTR grp$1[rsp]
  000b7	4c 8d 05 00 00
	00 00		 lea	 r8, OFFSET FLAT:$SG168704
  000be	ba 04 00 00 00	 mov	 edx, 4
  000c3	48 8b c8	 mov	 rcx, rax
  000c6	ff 15 00 00 00
	00		 call	 QWORD PTR __imp_w32_snprintf
$LN8@format_int:

; 917  :         }
; 918  :         maxg++;

  000cc	8b 44 24 20	 mov	 eax, DWORD PTR maxg$[rsp]
  000d0	ff c0		 inc	 eax
  000d2	89 44 24 20	 mov	 DWORD PTR maxg$[rsp], eax

; 919  :     }

  000d6	e9 69 ff ff ff	 jmp	 $LN2@format_int
$LN3@format_int:

; 920  :     if(maxg) maxg--;

  000db	83 7c 24 20 00	 cmp	 DWORD PTR maxg$[rsp], 0
  000e0	74 0a		 je	 SHORT $LN9@format_int
  000e2	8b 44 24 20	 mov	 eax, DWORD PTR maxg$[rsp]
  000e6	ff c8		 dec	 eax
  000e8	89 44 24 20	 mov	 DWORD PTR maxg$[rsp], eax
$LN9@format_int:

; 921  :     obfr[0]=0;

  000ec	b8 01 00 00 00	 mov	 eax, 1
  000f1	48 6b c0 00	 imul	 rax, rax, 0
  000f5	48 89 44 24 30	 mov	 QWORD PTR $T2[rsp], rax
  000fa	48 83 7c 24 30
	20		 cmp	 QWORD PTR $T2[rsp], 32	; 00000020H
  00100	73 02		 jae	 SHORT $LN12@format_int
  00102	eb 05		 jmp	 SHORT $LN13@format_int
$LN12@format_int:
  00104	e8 00 00 00 00	 call	 __report_rangecheckfailure
$LN13@format_int:
  00109	48 8d 05 00 00
	00 00		 lea	 rax, OFFSET FLAT:?obfr@?1??format_int@@9@9
  00110	48 8b 4c 24 30	 mov	 rcx, QWORD PTR $T2[rsp]
  00115	c6 04 08 00	 mov	 BYTE PTR [rax+rcx], 0

; 922  :     for(i=maxg;i>=0;i--)

  00119	8b 44 24 20	 mov	 eax, DWORD PTR maxg$[rsp]
  0011d	89 44 24 24	 mov	 DWORD PTR i$[rsp], eax
  00121	eb 0a		 jmp	 SHORT $LN6@format_int
$LN4@format_int:
  00123	8b 44 24 24	 mov	 eax, DWORD PTR i$[rsp]
  00127	ff c8		 dec	 eax
  00129	89 44 24 24	 mov	 DWORD PTR i$[rsp], eax
$LN6@format_int:
  0012d	83 7c 24 24 00	 cmp	 DWORD PTR i$[rsp], 0
  00132	7c 43		 jl	 SHORT $LN5@format_int

; 923  :     {
; 924  :         STRLCAT( obfr, grps[i] );

  00134	48 63 44 24 24	 movsxd	 rax, DWORD PTR i$[rsp]
  00139	48 8d 44 84 38	 lea	 rax, QWORD PTR grps$[rsp+rax*4]
  0013e	41 b8 20 00 00
	00		 mov	 r8d, 32			; 00000020H
  00144	48 8b d0	 mov	 rdx, rax
  00147	48 8d 0d 00 00
	00 00		 lea	 rcx, OFFSET FLAT:?obfr@?1??format_int@@9@9
  0014e	ff 15 00 00 00
	00		 call	 QWORD PTR __imp_strlcat

; 925  :         if(i)

  00154	83 7c 24 24 00	 cmp	 DWORD PTR i$[rsp], 0
  00159	74 1a		 je	 SHORT $LN10@format_int

; 926  :         {
; 927  :             STRLCAT( obfr, "," );

  0015b	41 b8 20 00 00
	00		 mov	 r8d, 32			; 00000020H
  00161	48 8d 15 00 00
	00 00		 lea	 rdx, OFFSET FLAT:$SG168707
  00168	48 8d 0d 00 00
	00 00		 lea	 rcx, OFFSET FLAT:?obfr@?1??format_int@@9@9
  0016f	ff 15 00 00 00
	00		 call	 QWORD PTR __imp_strlcat
$LN10@format_int:

; 928  :         }
; 929  :     }

  00175	eb ac		 jmp	 SHORT $LN4@format_int
$LN5@format_int:

; 930  :     return obfr;

  00177	48 8d 05 00 00
	00 00		 lea	 rax, OFFSET FLAT:?obfr@?1??format_int@@9@9
$LN11@format_int:

; 931  : }

  0017e	48 8b 4c 24 58	 mov	 rcx, QWORD PTR __$ArrayPad$[rsp]
  00183	48 33 cc	 xor	 rcx, rsp
  00186	e8 00 00 00 00	 call	 __security_check_cookie
  0018b	48 83 c4 68	 add	 rsp, 104		; 00000068H
  0018f	c3		 ret	 0
format_int ENDP
_TEXT	ENDS
; Function compile flags: /Odtp
; File C:\papa\MyGit\hyperion-zvector\panel.c
_TEXT	SEGMENT
i$ = 48
line$ = 52
tv441 = 56
tv494 = 58
tv167 = 60
tv176 = 64
tv179 = 68
tv190 = 72
tv202 = 76
tv438 = 80
$T1 = 88
buf$ = 96
__$ArrayPad$ = 1120
regs$ = 1152
NP_screen_redraw PROC

; 660  : {

  00000	48 89 4c 24 08	 mov	 QWORD PTR [rsp+8], rcx
  00005	48 81 ec 78 04
	00 00		 sub	 rsp, 1144		; 00000478H
  0000c	48 8b 05 00 00
	00 00		 mov	 rax, QWORD PTR __security_cookie
  00013	48 33 c4	 xor	 rax, rsp
  00016	48 89 84 24 60
	04 00 00	 mov	 QWORD PTR __$ArrayPad$[rsp], rax

; 661  :     int  i, line;
; 662  :     char buf[1024];
; 663  : 
; 664  :     /* Force all data to be redrawn */
; 665  :     NPcpunum_valid   = NPcpupct_valid   = NPpsw_valid  =

  0001e	c7 05 00 00 00
	00 00 00 00 00	 mov	 DWORD PTR NPsios_valid, 0
  00028	8b 05 00 00 00
	00		 mov	 eax, DWORD PTR NPsios_valid
  0002e	89 05 00 00 00
	00		 mov	 DWORD PTR NPmips_valid, eax
  00034	8b 05 00 00 00
	00		 mov	 eax, DWORD PTR NPmips_valid
  0003a	89 05 00 00 00
	00		 mov	 DWORD PTR NPcpugraph_valid, eax
  00040	8b 05 00 00 00
	00		 mov	 eax, DWORD PTR NPcpugraph_valid
  00046	89 05 00 00 00
	00		 mov	 DWORD PTR NPdevices_valid, eax
  0004c	8b 05 00 00 00
	00		 mov	 eax, DWORD PTR NPdevices_valid
  00052	89 05 00 00 00
	00		 mov	 DWORD PTR NPdata_valid, eax
  00058	8b 05 00 00 00
	00		 mov	 eax, DWORD PTR NPdata_valid
  0005e	89 05 00 00 00
	00		 mov	 DWORD PTR NPaddr_valid, eax
  00064	8b 05 00 00 00
	00		 mov	 eax, DWORD PTR NPaddr_valid
  0006a	89 05 00 00 00
	00		 mov	 DWORD PTR NPregs_valid, eax
  00070	8b 05 00 00 00
	00		 mov	 eax, DWORD PTR NPregs_valid
  00076	89 05 00 00 00
	00		 mov	 DWORD PTR NPpswstate_valid, eax
  0007c	8b 05 00 00 00
	00		 mov	 eax, DWORD PTR NPpswstate_valid
  00082	89 05 00 00 00
	00		 mov	 DWORD PTR NPpsw_valid, eax
  00088	8b 05 00 00 00
	00		 mov	 eax, DWORD PTR NPpsw_valid
  0008e	89 05 00 00 00
	00		 mov	 DWORD PTR NPcpupct_valid, eax
  00094	8b 05 00 00 00
	00		 mov	 eax, DWORD PTR NPcpupct_valid
  0009a	89 05 00 00 00
	00		 mov	 DWORD PTR NPcpunum_valid, eax

; 666  :     NPpswstate_valid = NPregs_valid     = NPaddr_valid =
; 667  :     NPdata_valid     = NPdevices_valid  = NPcpugraph_valid =
; 668  :     NPmips_valid     = NPsios_valid     = 0;
; 669  : 
; 670  : #if defined(_FEATURE_SIE)
; 671  :     if(regs->sie_active)

  000a0	48 8b 84 24 80
	04 00 00	 mov	 rax, QWORD PTR regs$[rsp]
  000a8	8b 80 c8 08 00
	00		 mov	 eax, DWORD PTR [rax+2248]
  000ae	83 e0 01	 and	 eax, 1
  000b1	85 c0		 test	 eax, eax
  000b3	74 17		 je	 SHORT $LN14@NP_screen_

; 672  :         regs = GUESTREGS;

  000b5	48 8b 84 24 80
	04 00 00	 mov	 rax, QWORD PTR regs$[rsp]
  000bd	48 8b 80 70 08
	00 00		 mov	 rax, QWORD PTR [rax+2160]
  000c4	48 89 84 24 80
	04 00 00	 mov	 QWORD PTR regs$[rsp], rax
$LN14@NP_screen_:

; 673  : #endif /*defined(_FEATURE_SIE)*/
; 674  : 
; 675  :     /*
; 676  :      * Draw the static parts of the NP screen
; 677  :      */
; 678  :     set_color (COLOR_LIGHT_GREY, COLOR_BLACK );

  000cc	33 d2		 xor	 edx, edx
  000ce	66 b9 08 00	 mov	 cx, 8
  000d2	e8 00 00 00 00	 call	 set_color

; 679  :     clr_screen ();

  000d7	e8 00 00 00 00	 call	 clr_screen

; 680  : 
; 681  :     /* Line 1 - title line */
; 682  :     set_color (COLOR_WHITE, COLOR_BLUE );

  000dc	66 ba 03 00	 mov	 dx, 3
  000e0	66 b9 0f 00	 mov	 cx, 15
  000e4	e8 00 00 00 00	 call	 set_color

; 683  :     set_pos   (1, 1);

  000e9	66 ba 01 00	 mov	 dx, 1
  000ed	66 b9 01 00	 mov	 cx, 1
  000f1	e8 00 00 00 00	 call	 set_pos

; 684  :     draw_text ("  Hercules");

  000f6	48 8d 0d 00 00
	00 00		 lea	 rcx, OFFSET FLAT:$SG168625
  000fd	e8 00 00 00 00	 call	 draw_text

; 685  :     if (sysblk.hicpu)

  00102	48 8b 05 00 00
	00 00		 mov	 rax, QWORD PTR __imp_sysblk
  00109	83 b8 08 01 00
	00 00		 cmp	 DWORD PTR [rax+264], 0
  00110	74 31		 je	 SHORT $LN15@NP_screen_

; 686  :     {
; 687  :         fill_text (' ', 16);

  00112	66 ba 10 00	 mov	 dx, 16
  00116	b1 20		 mov	 cl, 32			; 00000020H
  00118	e8 00 00 00 00	 call	 fill_text

; 688  :         draw_text ("CPU:    %");

  0011d	48 8d 0d 00 00
	00 00		 lea	 rcx, OFFSET FLAT:$SG168627
  00124	e8 00 00 00 00	 call	 draw_text

; 689  :         fill_text (' ', 30);

  00129	66 ba 1e 00	 mov	 dx, 30
  0012d	b1 20		 mov	 cl, 32			; 00000020H
  0012f	e8 00 00 00 00	 call	 fill_text

; 690  :         draw_text (get_arch_name( NULL ));

  00134	33 c9		 xor	 ecx, ecx
  00136	e8 00 00 00 00	 call	 get_arch_name
  0013b	48 8b c8	 mov	 rcx, rax
  0013e	e8 00 00 00 00	 call	 draw_text
$LN15@NP_screen_:

; 691  :     }
; 692  : 
; 693  :     set_color (COLOR_LIGHT_GREY, COLOR_BLUE);

  00143	66 ba 03 00	 mov	 dx, 3
  00147	66 b9 08 00	 mov	 cx, 8
  0014b	e8 00 00 00 00	 call	 set_color

; 694  :     fill_text (' ', 38);

  00150	66 ba 26 00	 mov	 dx, 38			; 00000026H
  00154	b1 20		 mov	 cl, 32			; 00000020H
  00156	e8 00 00 00 00	 call	 fill_text

; 695  :     draw_text ("| ");

  0015b	48 8d 0d 00 00
	00 00		 lea	 rcx, OFFSET FLAT:$SG168628
  00162	e8 00 00 00 00	 call	 draw_text

; 696  :     set_color (COLOR_WHITE, COLOR_BLUE);

  00167	66 ba 03 00	 mov	 dx, 3
  0016b	66 b9 0f 00	 mov	 cx, 15
  0016f	e8 00 00 00 00	 call	 set_color

; 697  : 
; 698  : #if defined( OPTION_SHARED_DEVICES )
; 699  : 
; 700  :     /* Center "Peripherals" on the right-hand-side */
; 701  :     i = 40 + MSGBUF(buf,

  00174	48 8b 05 00 00
	00 00		 mov	 rax, QWORD PTR __imp_sysblk
  0017b	0f b7 80 ac 13
	00 00		 movzx	 eax, WORD PTR [rax+5036]
  00182	44 8b c8	 mov	 r9d, eax
  00185	4c 8d 05 00 00
	00 00		 lea	 r8, OFFSET FLAT:$SG168629
  0018c	ba 00 04 00 00	 mov	 edx, 1024		; 00000400H
  00191	48 8d 4c 24 60	 lea	 rcx, QWORD PTR buf$[rsp]
  00196	ff 15 00 00 00
	00		 call	 QWORD PTR __imp_w32_snprintf
  0019c	83 c0 28	 add	 eax, 40			; 00000028H
  0019f	89 44 24 30	 mov	 DWORD PTR i$[rsp], eax

; 702  :                       "Peripherals [Shared Port %u]",
; 703  :                       sysblk.shrdport);
; 704  :     if ((cons_cols < i) || !sysblk.shrdport)

  001a3	8b 44 24 30	 mov	 eax, DWORD PTR i$[rsp]
  001a7	39 05 00 00 00
	00		 cmp	 DWORD PTR cons_cols, eax
  001ad	7c 12		 jl	 SHORT $LN17@NP_screen_
  001af	48 8b 05 00 00
	00 00		 mov	 rax, QWORD PTR __imp_sysblk
  001b6	0f b7 80 ac 13
	00 00		 movzx	 eax, WORD PTR [rax+5036]
  001bd	85 c0		 test	 eax, eax
  001bf	75 32		 jne	 SHORT $LN16@NP_screen_
$LN17@NP_screen_:

; 705  :         i = 52, buf[11] = 0;            /* Truncate string */

  001c1	c7 44 24 30 34
	00 00 00	 mov	 DWORD PTR i$[rsp], 52	; 00000034H
  001c9	b8 01 00 00 00	 mov	 eax, 1
  001ce	48 6b c0 0b	 imul	 rax, rax, 11
  001d2	48 89 44 24 58	 mov	 QWORD PTR $T1[rsp], rax
  001d7	48 81 7c 24 58
	00 04 00 00	 cmp	 QWORD PTR $T1[rsp], 1024 ; 00000400H
  001e0	73 02		 jae	 SHORT $LN33@NP_screen_
  001e2	eb 05		 jmp	 SHORT $LN34@NP_screen_
$LN33@NP_screen_:
  001e4	e8 00 00 00 00	 call	 __report_rangecheckfailure
$LN34@NP_screen_:
  001e9	48 8b 44 24 58	 mov	 rax, QWORD PTR $T1[rsp]
  001ee	c6 44 04 60 00	 mov	 BYTE PTR buf$[rsp+rax], 0
$LN16@NP_screen_:

; 706  :     if (cons_cols > i)                  /* Center string   */

  001f3	8b 44 24 30	 mov	 eax, DWORD PTR i$[rsp]
  001f7	39 05 00 00 00
	00		 cmp	 DWORD PTR cons_cols, eax
  001fd	7e 20		 jle	 SHORT $LN18@NP_screen_

; 707  :         fill_text (' ', 40 + ((cons_cols - i) / 2));

  001ff	8b 44 24 30	 mov	 eax, DWORD PTR i$[rsp]
  00203	8b 0d 00 00 00
	00		 mov	 ecx, DWORD PTR cons_cols
  00209	2b c8		 sub	 ecx, eax
  0020b	8b c1		 mov	 eax, ecx
  0020d	99		 cdq
  0020e	2b c2		 sub	 eax, edx
  00210	d1 f8		 sar	 eax, 1
  00212	83 c0 28	 add	 eax, 40			; 00000028H
  00215	0f b7 d0	 movzx	 edx, ax
  00218	b1 20		 mov	 cl, 32			; 00000020H
  0021a	e8 00 00 00 00	 call	 fill_text
$LN18@NP_screen_:

; 708  :     draw_text (buf);

  0021f	48 8d 4c 24 60	 lea	 rcx, QWORD PTR buf$[rsp]
  00224	e8 00 00 00 00	 call	 draw_text

; 709  :     fill_text (' ', (short)cons_cols);

  00229	0f b7 15 00 00
	00 00		 movzx	 edx, WORD PTR cons_cols
  00230	b1 20		 mov	 cl, 32			; 00000020H
  00232	e8 00 00 00 00	 call	 fill_text

; 710  : 
; 711  : #endif
; 712  : 
; 713  :     /* Line 2 - peripheral headings */
; 714  :     set_pos (2, 41);

  00237	66 ba 29 00	 mov	 dx, 41			; 00000029H
  0023b	66 b9 02 00	 mov	 cx, 2
  0023f	e8 00 00 00 00	 call	 set_pos

; 715  :     set_color (COLOR_WHITE, COLOR_BLACK);

  00244	33 d2		 xor	 edx, edx
  00246	66 b9 0f 00	 mov	 cx, 15
  0024a	e8 00 00 00 00	 call	 set_color

; 716  :     draw_char ('U');

  0024f	b9 55 00 00 00	 mov	 ecx, 85			; 00000055H
  00254	e8 00 00 00 00	 call	 draw_char

; 717  :     set_color (COLOR_LIGHT_GREY, COLOR_BLACK);

  00259	33 d2		 xor	 edx, edx
  0025b	66 b9 08 00	 mov	 cx, 8
  0025f	e8 00 00 00 00	 call	 set_color

; 718  :     draw_text(" Addr Modl Type Assig");

  00264	48 8d 0d 00 00
	00 00		 lea	 rcx, OFFSET FLAT:$SG168633
  0026b	e8 00 00 00 00	 call	 draw_text

; 719  :     set_color (COLOR_WHITE, COLOR_BLACK);

  00270	33 d2		 xor	 edx, edx
  00272	66 b9 0f 00	 mov	 cx, 15
  00276	e8 00 00 00 00	 call	 set_color

; 720  :     draw_char ('n');

  0027b	b9 6e 00 00 00	 mov	 ecx, 110		; 0000006eH
  00280	e8 00 00 00 00	 call	 draw_char

; 721  :     set_color (COLOR_LIGHT_GREY, COLOR_BLACK);

  00285	33 d2		 xor	 edx, edx
  00287	66 b9 08 00	 mov	 cx, 8
  0028b	e8 00 00 00 00	 call	 set_color

; 722  :     draw_text("ment");

  00290	48 8d 0d 00 00
	00 00		 lea	 rcx, OFFSET FLAT:$SG168634
  00297	e8 00 00 00 00	 call	 draw_text

; 723  : 
; 724  :     if (sysblk.hicpu)

  0029c	48 8b 05 00 00
	00 00		 mov	 rax, QWORD PTR __imp_sysblk
  002a3	83 b8 08 01 00
	00 00		 cmp	 DWORD PTR [rax+264], 0
  002aa	0f 84 c7 03 00
	00		 je	 $LN19@NP_screen_

; 725  :     {
; 726  :         /* PSW_LINE = PSW */
; 727  :         NPpswmode = (regs->arch_mode == ARCH_900_IDX);

  002b0	48 8b 84 24 80
	04 00 00	 mov	 rax, QWORD PTR regs$[rsp]
  002b8	83 78 64 02	 cmp	 DWORD PTR [rax+100], 2
  002bc	75 0a		 jne	 SHORT $LN35@NP_screen_
  002be	c7 44 24 3c 01
	00 00 00	 mov	 DWORD PTR tv167[rsp], 1
  002c6	eb 08		 jmp	 SHORT $LN36@NP_screen_
$LN35@NP_screen_:
  002c8	c7 44 24 3c 00
	00 00 00	 mov	 DWORD PTR tv167[rsp], 0
$LN36@NP_screen_:
  002d0	8b 44 24 3c	 mov	 eax, DWORD PTR tv167[rsp]
  002d4	89 05 00 00 00
	00		 mov	 DWORD PTR NPpswmode, eax

; 728  :         NPpswzhost =

  002da	83 3d 00 00 00
	00 00		 cmp	 DWORD PTR NPpswmode, 0
  002e1	75 36		 jne	 SHORT $LN37@NP_screen_
  002e3	48 8b 84 24 80
	04 00 00	 mov	 rax, QWORD PTR regs$[rsp]
  002eb	8b 80 c8 08 00
	00		 mov	 eax, DWORD PTR [rax+2248]
  002f1	d1 e8		 shr	 eax, 1
  002f3	83 e0 01	 and	 eax, 1
  002f6	85 c0		 test	 eax, eax
  002f8	74 1f		 je	 SHORT $LN37@NP_screen_
  002fa	48 8b 84 24 80
	04 00 00	 mov	 rax, QWORD PTR regs$[rsp]
  00302	48 8b 80 68 08
	00 00		 mov	 rax, QWORD PTR [rax+2152]
  00309	83 78 64 02	 cmp	 DWORD PTR [rax+100], 2
  0030d	75 0a		 jne	 SHORT $LN37@NP_screen_
  0030f	c7 44 24 40 01
	00 00 00	 mov	 DWORD PTR tv176[rsp], 1
  00317	eb 08		 jmp	 SHORT $LN38@NP_screen_
$LN37@NP_screen_:
  00319	c7 44 24 40 00
	00 00 00	 mov	 DWORD PTR tv176[rsp], 0
$LN38@NP_screen_:
  00321	8b 44 24 40	 mov	 eax, DWORD PTR tv176[rsp]
  00325	89 05 00 00 00
	00		 mov	 DWORD PTR NPpswzhost, eax

; 729  : #if defined(_FEATURE_SIE)
; 730  :                      !NPpswmode && SIE_MODE(regs) && HOSTREGS->arch_mode == ARCH_900_IDX;
; 731  : #else
; 732  :                      0;
; 733  : #endif /*defined(_FEATURE_SIE)*/
; 734  :         set_pos (PSW_LINE+1, NPpswmode || NPpswzhost ? 19 : 10);

  0032b	83 3d 00 00 00
	00 00		 cmp	 DWORD PTR NPpswmode, 0
  00332	75 13		 jne	 SHORT $LN39@NP_screen_
  00334	83 3d 00 00 00
	00 00		 cmp	 DWORD PTR NPpswzhost, 0
  0033b	75 0a		 jne	 SHORT $LN39@NP_screen_
  0033d	c7 44 24 44 0a
	00 00 00	 mov	 DWORD PTR tv179[rsp], 10
  00345	eb 08		 jmp	 SHORT $LN40@NP_screen_
$LN39@NP_screen_:
  00347	c7 44 24 44 13
	00 00 00	 mov	 DWORD PTR tv179[rsp], 19
$LN40@NP_screen_:
  0034f	0f b7 54 24 44	 movzx	 edx, WORD PTR tv179[rsp]
  00354	66 b9 03 00	 mov	 cx, 3
  00358	e8 00 00 00 00	 call	 set_pos

; 735  :         draw_text ("PSW");

  0035d	48 8d 0d 00 00
	00 00		 lea	 rcx, OFFSET FLAT:$SG168637
  00364	e8 00 00 00 00	 call	 draw_text

; 736  : 
; 737  :         /* Register area */
; 738  :         set_color (COLOR_LIGHT_GREY, COLOR_BLACK);

  00369	33 d2		 xor	 edx, edx
  0036b	66 b9 08 00	 mov	 cx, 8
  0036f	e8 00 00 00 00	 call	 set_color

; 739  :         NPregmode = (regs->arch_mode == ARCH_900_IDX && (NPregdisp == 0 || NPregdisp == 1));

  00374	48 8b 84 24 80
	04 00 00	 mov	 rax, QWORD PTR regs$[rsp]
  0037c	83 78 64 02	 cmp	 DWORD PTR [rax+100], 2
  00380	75 1c		 jne	 SHORT $LN42@NP_screen_
  00382	83 3d 00 00 00
	00 00		 cmp	 DWORD PTR NPregdisp, 0
  00389	74 09		 je	 SHORT $LN41@NP_screen_
  0038b	83 3d 00 00 00
	00 01		 cmp	 DWORD PTR NPregdisp, 1
  00392	75 0a		 jne	 SHORT $LN42@NP_screen_
$LN41@NP_screen_:
  00394	c7 44 24 48 01
	00 00 00	 mov	 DWORD PTR tv190[rsp], 1
  0039c	eb 08		 jmp	 SHORT $LN43@NP_screen_
$LN42@NP_screen_:
  0039e	c7 44 24 48 00
	00 00 00	 mov	 DWORD PTR tv190[rsp], 0
$LN43@NP_screen_:
  003a6	8b 44 24 48	 mov	 eax, DWORD PTR tv190[rsp]
  003aa	89 05 00 00 00
	00		 mov	 DWORD PTR NPregmode, eax

; 740  :         NPregzhost =

  003b0	48 8b 84 24 80
	04 00 00	 mov	 rax, QWORD PTR regs$[rsp]
  003b8	83 78 64 02	 cmp	 DWORD PTR [rax+100], 2
  003bc	74 48		 je	 SHORT $LN44@NP_screen_
  003be	48 8b 84 24 80
	04 00 00	 mov	 rax, QWORD PTR regs$[rsp]
  003c6	8b 80 c8 08 00
	00		 mov	 eax, DWORD PTR [rax+2248]
  003cc	d1 e8		 shr	 eax, 1
  003ce	83 e0 01	 and	 eax, 1
  003d1	85 c0		 test	 eax, eax
  003d3	74 31		 je	 SHORT $LN44@NP_screen_
  003d5	48 8b 84 24 80
	04 00 00	 mov	 rax, QWORD PTR regs$[rsp]
  003dd	48 8b 80 68 08
	00 00		 mov	 rax, QWORD PTR [rax+2152]
  003e4	83 78 64 02	 cmp	 DWORD PTR [rax+100], 2
  003e8	75 1c		 jne	 SHORT $LN44@NP_screen_
  003ea	83 3d 00 00 00
	00 00		 cmp	 DWORD PTR NPregdisp, 0
  003f1	74 09		 je	 SHORT $LN45@NP_screen_
  003f3	83 3d 00 00 00
	00 01		 cmp	 DWORD PTR NPregdisp, 1
  003fa	75 0a		 jne	 SHORT $LN44@NP_screen_
$LN45@NP_screen_:
  003fc	c7 44 24 4c 01
	00 00 00	 mov	 DWORD PTR tv202[rsp], 1
  00404	eb 08		 jmp	 SHORT $LN46@NP_screen_
$LN44@NP_screen_:
  00406	c7 44 24 4c 00
	00 00 00	 mov	 DWORD PTR tv202[rsp], 0
$LN46@NP_screen_:
  0040e	8b 44 24 4c	 mov	 eax, DWORD PTR tv202[rsp]
  00412	89 05 00 00 00
	00		 mov	 DWORD PTR NPregzhost, eax

; 741  : #if defined(_FEATURE_SIE)
; 742  :                      (regs->arch_mode != ARCH_900_IDX
; 743  :                    && SIE_MODE(regs) && HOSTREGS->arch_mode == ARCH_900_IDX
; 744  :                    && (NPregdisp == 0 || NPregdisp == 1));
; 745  : #else
; 746  :                      0;
; 747  : #endif /*defined(_FEATURE_SIE)*/
; 748  :         if (NPregmode == 1 || NPregzhost)

  00418	83 3d 00 00 00
	00 01		 cmp	 DWORD PTR NPregmode, 1
  0041f	74 09		 je	 SHORT $LN23@NP_screen_
  00421	83 3d 00 00 00
	00 00		 cmp	 DWORD PTR NPregzhost, 0
  00428	74 7a		 je	 SHORT $LN21@NP_screen_
$LN23@NP_screen_:

; 749  :         {
; 750  :             for (i = 0; i < 8; i++)

  0042a	c7 44 24 30 00
	00 00 00	 mov	 DWORD PTR i$[rsp], 0
  00432	eb 0a		 jmp	 SHORT $LN4@NP_screen_
$LN2@NP_screen_:
  00434	8b 44 24 30	 mov	 eax, DWORD PTR i$[rsp]
  00438	ff c0		 inc	 eax
  0043a	89 44 24 30	 mov	 DWORD PTR i$[rsp], eax
$LN4@NP_screen_:
  0043e	83 7c 24 30 08	 cmp	 DWORD PTR i$[rsp], 8
  00443	7d 5a		 jge	 SHORT $LN3@NP_screen_

; 751  :             {
; 752  :                 set_pos (REGS_LINE+i, 1);

  00445	8b 44 24 30	 mov	 eax, DWORD PTR i$[rsp]
  00449	83 c0 05	 add	 eax, 5
  0044c	66 ba 01 00	 mov	 dx, 1
  00450	0f b7 c8	 movzx	 ecx, ax
  00453	e8 00 00 00 00	 call	 set_pos

; 753  :                 draw_text (NPregnum64[i*2]);

  00458	8b 44 24 30	 mov	 eax, DWORD PTR i$[rsp]
  0045c	03 c0		 add	 eax, eax
  0045e	48 98		 cdqe
  00460	48 8d 0d 00 00
	00 00		 lea	 rcx, OFFSET FLAT:NPregnum64
  00467	48 8b 0c c1	 mov	 rcx, QWORD PTR [rcx+rax*8]
  0046b	e8 00 00 00 00	 call	 draw_text

; 754  :                 set_pos (REGS_LINE+i, 20);

  00470	8b 44 24 30	 mov	 eax, DWORD PTR i$[rsp]
  00474	83 c0 05	 add	 eax, 5
  00477	66 ba 14 00	 mov	 dx, 20
  0047b	0f b7 c8	 movzx	 ecx, ax
  0047e	e8 00 00 00 00	 call	 set_pos

; 755  :                 draw_text (NPregnum64[i*2+1]);

  00483	8b 44 24 30	 mov	 eax, DWORD PTR i$[rsp]
  00487	8d 44 00 01	 lea	 eax, DWORD PTR [rax+rax+1]
  0048b	48 98		 cdqe
  0048d	48 8d 0d 00 00
	00 00		 lea	 rcx, OFFSET FLAT:NPregnum64
  00494	48 8b 0c c1	 mov	 rcx, QWORD PTR [rcx+rax*8]
  00498	e8 00 00 00 00	 call	 draw_text

; 756  :             }

  0049d	eb 95		 jmp	 SHORT $LN2@NP_screen_
$LN3@NP_screen_:

; 757  :         }

  0049f	e9 e4 00 00 00	 jmp	 $LN22@NP_screen_
$LN21@NP_screen_:

; 758  :         else
; 759  :         {
; 760  :             for (i = 0; i < 4; i++)

  004a4	c7 44 24 30 00
	00 00 00	 mov	 DWORD PTR i$[rsp], 0
  004ac	eb 0a		 jmp	 SHORT $LN7@NP_screen_
$LN5@NP_screen_:
  004ae	8b 44 24 30	 mov	 eax, DWORD PTR i$[rsp]
  004b2	ff c0		 inc	 eax
  004b4	89 44 24 30	 mov	 DWORD PTR i$[rsp], eax
$LN7@NP_screen_:
  004b8	83 7c 24 30 04	 cmp	 DWORD PTR i$[rsp], 4
  004bd	0f 8d c5 00 00
	00		 jge	 $LN6@NP_screen_

; 761  :             {
; 762  :                 set_pos (i*2+(REGS_LINE+1),9);

  004c3	8b 44 24 30	 mov	 eax, DWORD PTR i$[rsp]
  004c7	8d 44 00 06	 lea	 eax, DWORD PTR [rax+rax+6]
  004cb	66 ba 09 00	 mov	 dx, 9
  004cf	0f b7 c8	 movzx	 ecx, ax
  004d2	e8 00 00 00 00	 call	 set_pos

; 763  :                 draw_text (NPregnum[i*4]);

  004d7	8b 44 24 30	 mov	 eax, DWORD PTR i$[rsp]
  004db	c1 e0 02	 shl	 eax, 2
  004de	48 98		 cdqe
  004e0	48 8d 0d 00 00
	00 00		 lea	 rcx, OFFSET FLAT:NPregnum
  004e7	48 8b 0c c1	 mov	 rcx, QWORD PTR [rcx+rax*8]
  004eb	e8 00 00 00 00	 call	 draw_text

; 764  :                 set_pos (i*2+(REGS_LINE+1),18);

  004f0	8b 44 24 30	 mov	 eax, DWORD PTR i$[rsp]
  004f4	8d 44 00 06	 lea	 eax, DWORD PTR [rax+rax+6]
  004f8	66 ba 12 00	 mov	 dx, 18
  004fc	0f b7 c8	 movzx	 ecx, ax
  004ff	e8 00 00 00 00	 call	 set_pos

; 765  :                 draw_text (NPregnum[i*4+1]);

  00504	8b 44 24 30	 mov	 eax, DWORD PTR i$[rsp]
  00508	8d 04 85 01 00
	00 00		 lea	 eax, DWORD PTR [rax*4+1]
  0050f	48 98		 cdqe
  00511	48 8d 0d 00 00
	00 00		 lea	 rcx, OFFSET FLAT:NPregnum
  00518	48 8b 0c c1	 mov	 rcx, QWORD PTR [rcx+rax*8]
  0051c	e8 00 00 00 00	 call	 draw_text

; 766  :                 set_pos (i*2+(REGS_LINE+1),27);

  00521	8b 44 24 30	 mov	 eax, DWORD PTR i$[rsp]
  00525	8d 44 00 06	 lea	 eax, DWORD PTR [rax+rax+6]
  00529	66 ba 1b 00	 mov	 dx, 27
  0052d	0f b7 c8	 movzx	 ecx, ax
  00530	e8 00 00 00 00	 call	 set_pos

; 767  :                 draw_text (NPregnum[i*4+2]);

  00535	8b 44 24 30	 mov	 eax, DWORD PTR i$[rsp]
  00539	8d 04 85 02 00
	00 00		 lea	 eax, DWORD PTR [rax*4+2]
  00540	48 98		 cdqe
  00542	48 8d 0d 00 00
	00 00		 lea	 rcx, OFFSET FLAT:NPregnum
  00549	48 8b 0c c1	 mov	 rcx, QWORD PTR [rcx+rax*8]
  0054d	e8 00 00 00 00	 call	 draw_text

; 768  :                 set_pos (i*2+(REGS_LINE+1),36);

  00552	8b 44 24 30	 mov	 eax, DWORD PTR i$[rsp]
  00556	8d 44 00 06	 lea	 eax, DWORD PTR [rax+rax+6]
  0055a	66 ba 24 00	 mov	 dx, 36			; 00000024H
  0055e	0f b7 c8	 movzx	 ecx, ax
  00561	e8 00 00 00 00	 call	 set_pos

; 769  :                 draw_text (NPregnum[i*4+3]);

  00566	8b 44 24 30	 mov	 eax, DWORD PTR i$[rsp]
  0056a	8d 04 85 03 00
	00 00		 lea	 eax, DWORD PTR [rax*4+3]
  00571	48 98		 cdqe
  00573	48 8d 0d 00 00
	00 00		 lea	 rcx, OFFSET FLAT:NPregnum
  0057a	48 8b 0c c1	 mov	 rcx, QWORD PTR [rcx+rax*8]
  0057e	e8 00 00 00 00	 call	 draw_text

; 770  :             }

  00583	e9 26 ff ff ff	 jmp	 $LN5@NP_screen_
$LN6@NP_screen_:
$LN22@NP_screen_:

; 771  :         }
; 772  : 
; 773  :         /* Register selection */
; 774  :         set_color (COLOR_LIGHT_GREY, COLOR_BLACK);

  00588	33 d2		 xor	 edx, edx
  0058a	66 b9 08 00	 mov	 cx, 8
  0058e	e8 00 00 00 00	 call	 set_color

; 775  :         set_pos ((REGS_LINE+8), 6);

  00593	66 ba 06 00	 mov	 dx, 6
  00597	66 b9 0d 00	 mov	 cx, 13
  0059b	e8 00 00 00 00	 call	 set_pos

; 776  :         draw_text ("GPR");

  005a0	48 8d 0d 00 00
	00 00		 lea	 rcx, OFFSET FLAT:$SG168641
  005a7	e8 00 00 00 00	 call	 draw_text

; 777  :         set_pos ((REGS_LINE+8), 14);

  005ac	66 ba 0e 00	 mov	 dx, 14
  005b0	66 b9 0d 00	 mov	 cx, 13
  005b4	e8 00 00 00 00	 call	 set_pos

; 778  :         draw_text ("CR");

  005b9	48 8d 0d 00 00
	00 00		 lea	 rcx, OFFSET FLAT:$SG168642
  005c0	e8 00 00 00 00	 call	 draw_text

; 779  :         set_pos ((REGS_LINE+8), 22);

  005c5	66 ba 16 00	 mov	 dx, 22
  005c9	66 b9 0d 00	 mov	 cx, 13
  005cd	e8 00 00 00 00	 call	 set_pos

; 780  :         draw_text ("AR");

  005d2	48 8d 0d 00 00
	00 00		 lea	 rcx, OFFSET FLAT:$SG168643
  005d9	e8 00 00 00 00	 call	 draw_text

; 781  :         set_pos ((REGS_LINE+8), 30);

  005de	66 ba 1e 00	 mov	 dx, 30
  005e2	66 b9 0d 00	 mov	 cx, 13
  005e6	e8 00 00 00 00	 call	 set_pos

; 782  :         draw_text ("FPR");

  005eb	48 8d 0d 00 00
	00 00		 lea	 rcx, OFFSET FLAT:$SG168644
  005f2	e8 00 00 00 00	 call	 draw_text

; 783  : 
; 784  :         /* Address and data */
; 785  :         set_pos (ADDR_LINE, 2);

  005f7	66 ba 02 00	 mov	 dx, 2
  005fb	66 b9 0f 00	 mov	 cx, 15
  005ff	e8 00 00 00 00	 call	 set_pos

; 786  :         draw_text ("ADD");

  00604	48 8d 0d 00 00
	00 00		 lea	 rcx, OFFSET FLAT:$SG168645
  0060b	e8 00 00 00 00	 call	 draw_text

; 787  :         set_color (COLOR_WHITE, COLOR_BLACK);

  00610	33 d2		 xor	 edx, edx
  00612	66 b9 0f 00	 mov	 cx, 15
  00616	e8 00 00 00 00	 call	 set_color

; 788  :         draw_char ('R');

  0061b	b9 52 00 00 00	 mov	 ecx, 82			; 00000052H
  00620	e8 00 00 00 00	 call	 draw_char

; 789  :         set_color (COLOR_LIGHT_GREY, COLOR_BLACK);

  00625	33 d2		 xor	 edx, edx
  00627	66 b9 08 00	 mov	 cx, 8
  0062b	e8 00 00 00 00	 call	 set_color

; 790  :         draw_text ("ESS:");

  00630	48 8d 0d 00 00
	00 00		 lea	 rcx, OFFSET FLAT:$SG168646
  00637	e8 00 00 00 00	 call	 draw_text

; 791  :         set_pos (ADDR_LINE, 22);

  0063c	66 ba 16 00	 mov	 dx, 22
  00640	66 b9 0f 00	 mov	 cx, 15
  00644	e8 00 00 00 00	 call	 set_pos

; 792  :         set_color (COLOR_WHITE, COLOR_BLACK);

  00649	33 d2		 xor	 edx, edx
  0064b	66 b9 0f 00	 mov	 cx, 15
  0064f	e8 00 00 00 00	 call	 set_color

; 793  :         draw_char ('D');

  00654	b9 44 00 00 00	 mov	 ecx, 68			; 00000044H
  00659	e8 00 00 00 00	 call	 draw_char

; 794  :         set_color (COLOR_LIGHT_GREY, COLOR_BLACK);

  0065e	33 d2		 xor	 edx, edx
  00660	66 b9 08 00	 mov	 cx, 8
  00664	e8 00 00 00 00	 call	 set_color

; 795  :         draw_text ("ATA:");

  00669	48 8d 0d 00 00
	00 00		 lea	 rcx, OFFSET FLAT:$SG168647
  00670	e8 00 00 00 00	 call	 draw_text

; 796  :     }

  00675	eb 2f		 jmp	 SHORT $LN20@NP_screen_
$LN19@NP_screen_:

; 797  :     else
; 798  :     {
; 799  :         set_pos (8, 12);

  00677	66 ba 0c 00	 mov	 dx, 12
  0067b	66 b9 08 00	 mov	 cx, 8
  0067f	e8 00 00 00 00	 call	 set_pos

; 800  :         set_color (COLOR_LIGHT_RED, COLOR_BLACK);

  00684	33 d2		 xor	 edx, edx
  00686	66 b9 09 00	 mov	 cx, 9
  0068a	e8 00 00 00 00	 call	 set_color

; 801  :         draw_text ("No CPUs defined");

  0068f	48 8d 0d 00 00
	00 00		 lea	 rcx, OFFSET FLAT:$SG168648
  00696	e8 00 00 00 00	 call	 draw_text

; 802  :         set_color (COLOR_LIGHT_GREY, COLOR_BLACK);

  0069b	33 d2		 xor	 edx, edx
  0069d	66 b9 08 00	 mov	 cx, 8
  006a1	e8 00 00 00 00	 call	 set_color
$LN20@NP_screen_:

; 803  :     }
; 804  : 
; 805  :     /* separator */
; 806  :     set_pos (ADDR_LINE+1, 1);

  006a6	66 ba 01 00	 mov	 dx, 1
  006aa	66 b9 10 00	 mov	 cx, 16
  006ae	e8 00 00 00 00	 call	 set_pos

; 807  :     fill_text ('-', 38);

  006b3	66 ba 26 00	 mov	 dx, 38			; 00000026H
  006b7	b1 2d		 mov	 cl, 45			; 0000002dH
  006b9	e8 00 00 00 00	 call	 fill_text

; 808  : 
; 809  :     /* Buttons */
; 810  : 
; 811  :     if (sysblk.hicpu)

  006be	48 8b 05 00 00
	00 00		 mov	 rax, QWORD PTR __imp_sysblk
  006c5	83 b8 08 01 00
	00 00		 cmp	 DWORD PTR [rax+264], 0
  006cc	0f 84 ba 00 00
	00		 je	 $LN24@NP_screen_

; 812  :     {
; 813  :         set_pos (BUTTONS_LINE, 16);

  006d2	66 ba 10 00	 mov	 dx, 16
  006d6	66 b9 11 00	 mov	 cx, 17
  006da	e8 00 00 00 00	 call	 set_pos

; 814  :         draw_button(COLOR_BLUE,  COLOR_LIGHT_GREY, COLOR_WHITE,  " ST", "O", " "  );

  006df	48 8d 05 00 00
	00 00		 lea	 rax, OFFSET FLAT:$SG168650
  006e6	48 89 44 24 28	 mov	 QWORD PTR [rsp+40], rax
  006eb	48 8d 05 00 00
	00 00		 lea	 rax, OFFSET FLAT:$SG168651
  006f2	48 89 44 24 20	 mov	 QWORD PTR [rsp+32], rax
  006f7	4c 8d 0d 00 00
	00 00		 lea	 r9, OFFSET FLAT:$SG168652
  006fe	66 41 b8 0f 00	 mov	 r8w, 15
  00703	66 ba 08 00	 mov	 dx, 8
  00707	66 b9 03 00	 mov	 cx, 3
  0070b	e8 00 00 00 00	 call	 draw_button

; 815  :         set_pos (BUTTONS_LINE, 24);

  00710	66 ba 18 00	 mov	 dx, 24
  00714	66 b9 11 00	 mov	 cx, 17
  00718	e8 00 00 00 00	 call	 set_pos

; 816  :         draw_button(COLOR_BLUE,  COLOR_LIGHT_GREY, COLOR_WHITE,  " D",  "I", "S " );

  0071d	48 8d 05 00 00
	00 00		 lea	 rax, OFFSET FLAT:$SG168653
  00724	48 89 44 24 28	 mov	 QWORD PTR [rsp+40], rax
  00729	48 8d 05 00 00
	00 00		 lea	 rax, OFFSET FLAT:$SG168654
  00730	48 89 44 24 20	 mov	 QWORD PTR [rsp+32], rax
  00735	4c 8d 0d 00 00
	00 00		 lea	 r9, OFFSET FLAT:$SG168655
  0073c	66 41 b8 0f 00	 mov	 r8w, 15
  00741	66 ba 08 00	 mov	 dx, 8
  00745	66 b9 03 00	 mov	 cx, 3
  00749	e8 00 00 00 00	 call	 draw_button

; 817  :         set_pos (BUTTONS_LINE, 32);

  0074e	66 ba 20 00	 mov	 dx, 32			; 00000020H
  00752	66 b9 11 00	 mov	 cx, 17
  00756	e8 00 00 00 00	 call	 set_pos

; 818  :         draw_button(COLOR_BLUE,  COLOR_LIGHT_GREY, COLOR_WHITE,  " RS", "T", " "  );

  0075b	48 8d 05 00 00
	00 00		 lea	 rax, OFFSET FLAT:$SG168656
  00762	48 89 44 24 28	 mov	 QWORD PTR [rsp+40], rax
  00767	48 8d 05 00 00
	00 00		 lea	 rax, OFFSET FLAT:$SG168657
  0076e	48 89 44 24 20	 mov	 QWORD PTR [rsp+32], rax
  00773	4c 8d 0d 00 00
	00 00		 lea	 r9, OFFSET FLAT:$SG168658
  0077a	66 41 b8 0f 00	 mov	 r8w, 15
  0077f	66 ba 08 00	 mov	 dx, 8
  00783	66 b9 03 00	 mov	 cx, 3
  00787	e8 00 00 00 00	 call	 draw_button
$LN24@NP_screen_:

; 819  :     }
; 820  : 
; 821  :     if (sysblk.hicpu)

  0078c	48 8b 05 00 00
	00 00		 mov	 rax, QWORD PTR __imp_sysblk
  00793	83 b8 08 01 00
	00 00		 cmp	 DWORD PTR [rax+264], 0
  0079a	74 24		 je	 SHORT $LN25@NP_screen_

; 822  :     {
; 823  :         set_pos ((BUTTONS_LINE+1), 3);

  0079c	66 ba 03 00	 mov	 dx, 3
  007a0	66 b9 12 00	 mov	 cx, 18
  007a4	e8 00 00 00 00	 call	 set_pos

; 824  :         set_color (COLOR_LIGHT_GREY, COLOR_BLACK);

  007a9	33 d2		 xor	 edx, edx
  007ab	66 b9 08 00	 mov	 cx, 8
  007af	e8 00 00 00 00	 call	 set_color

; 825  :         draw_text ("MIPS");

  007b4	48 8d 0d 00 00
	00 00		 lea	 rcx, OFFSET FLAT:$SG168660
  007bb	e8 00 00 00 00	 call	 draw_text
$LN25@NP_screen_:

; 826  :     }
; 827  : 
; 828  :     if (0
; 829  :         || sysblk.hicpu
; 830  : 
; 831  : #if defined( OPTION_SHARED_DEVICES )
; 832  :         || sysblk.shrdport

  007c0	33 c0		 xor	 eax, eax
  007c2	85 c0		 test	 eax, eax
  007c4	75 22		 jne	 SHORT $LN27@NP_screen_
  007c6	48 8b 05 00 00
	00 00		 mov	 rax, QWORD PTR __imp_sysblk
  007cd	83 b8 08 01 00
	00 00		 cmp	 DWORD PTR [rax+264], 0
  007d4	75 12		 jne	 SHORT $LN27@NP_screen_
  007d6	48 8b 05 00 00
	00 00		 mov	 rax, QWORD PTR __imp_sysblk
  007dd	0f b7 80 ac 13
	00 00		 movzx	 eax, WORD PTR [rax+5036]
  007e4	85 c0		 test	 eax, eax
  007e6	74 19		 je	 SHORT $LN26@NP_screen_
$LN27@NP_screen_:

; 833  : #endif
; 834  :     )
; 835  :     {
; 836  :         set_pos ((BUTTONS_LINE+1), 10);

  007e8	66 ba 0a 00	 mov	 dx, 10
  007ec	66 b9 12 00	 mov	 cx, 18
  007f0	e8 00 00 00 00	 call	 set_pos

; 837  :         draw_text ("IO/s");

  007f5	48 8d 0d 00 00
	00 00		 lea	 rcx, OFFSET FLAT:$SG168663
  007fc	e8 00 00 00 00	 call	 draw_text
$LN26@NP_screen_:

; 838  :     }
; 839  : 
; 840  :     if (sysblk.hicpu)

  00801	48 8b 05 00 00
	00 00		 mov	 rax, QWORD PTR __imp_sysblk
  00808	83 b8 08 01 00
	00 00		 cmp	 DWORD PTR [rax+264], 0
  0080f	0f 84 f8 00 00
	00		 je	 $LN28@NP_screen_

; 841  :     {
; 842  :         set_pos ((BUTTONS_LINE+2), 2);

  00815	66 ba 02 00	 mov	 dx, 2
  00819	66 b9 13 00	 mov	 cx, 19
  0081d	e8 00 00 00 00	 call	 set_pos

; 843  :         draw_button(COLOR_GREEN, COLOR_LIGHT_GREY, COLOR_WHITE,  " ",   "S", "TR ");

  00822	48 8d 05 00 00
	00 00		 lea	 rax, OFFSET FLAT:$SG168665
  00829	48 89 44 24 28	 mov	 QWORD PTR [rsp+40], rax
  0082e	48 8d 05 00 00
	00 00		 lea	 rax, OFFSET FLAT:$SG168666
  00835	48 89 44 24 20	 mov	 QWORD PTR [rsp+32], rax
  0083a	4c 8d 0d 00 00
	00 00		 lea	 r9, OFFSET FLAT:$SG168667
  00841	66 41 b8 0f 00	 mov	 r8w, 15
  00846	66 ba 08 00	 mov	 dx, 8
  0084a	66 b9 02 00	 mov	 cx, 2
  0084e	e8 00 00 00 00	 call	 draw_button

; 844  :         set_pos ((BUTTONS_LINE+2), 9);

  00853	66 ba 09 00	 mov	 dx, 9
  00857	66 b9 13 00	 mov	 cx, 19
  0085b	e8 00 00 00 00	 call	 set_pos

; 845  :         draw_button(COLOR_RED,   COLOR_LIGHT_GREY, COLOR_WHITE,  " ST", "P", " "  );

  00860	48 8d 05 00 00
	00 00		 lea	 rax, OFFSET FLAT:$SG168668
  00867	48 89 44 24 28	 mov	 QWORD PTR [rsp+40], rax
  0086c	48 8d 05 00 00
	00 00		 lea	 rax, OFFSET FLAT:$SG168669
  00873	48 89 44 24 20	 mov	 QWORD PTR [rsp+32], rax
  00878	4c 8d 0d 00 00
	00 00		 lea	 r9, OFFSET FLAT:$SG168670
  0087f	66 41 b8 0f 00	 mov	 r8w, 15
  00884	66 ba 08 00	 mov	 dx, 8
  00888	66 b9 01 00	 mov	 cx, 1
  0088c	e8 00 00 00 00	 call	 draw_button

; 846  :         set_pos ((BUTTONS_LINE+2), 16);

  00891	66 ba 10 00	 mov	 dx, 16
  00895	66 b9 13 00	 mov	 cx, 19
  00899	e8 00 00 00 00	 call	 set_pos

; 847  :         draw_button(COLOR_BLUE,  COLOR_LIGHT_GREY, COLOR_WHITE,  " ",   "E", "XT ");

  0089e	48 8d 05 00 00
	00 00		 lea	 rax, OFFSET FLAT:$SG168671
  008a5	48 89 44 24 28	 mov	 QWORD PTR [rsp+40], rax
  008aa	48 8d 05 00 00
	00 00		 lea	 rax, OFFSET FLAT:$SG168672
  008b1	48 89 44 24 20	 mov	 QWORD PTR [rsp+32], rax
  008b6	4c 8d 0d 00 00
	00 00		 lea	 r9, OFFSET FLAT:$SG168673
  008bd	66 41 b8 0f 00	 mov	 r8w, 15
  008c2	66 ba 08 00	 mov	 dx, 8
  008c6	66 b9 03 00	 mov	 cx, 3
  008ca	e8 00 00 00 00	 call	 draw_button

; 848  :         set_pos ((BUTTONS_LINE+2), 24);

  008cf	66 ba 18 00	 mov	 dx, 24
  008d3	66 b9 13 00	 mov	 cx, 19
  008d7	e8 00 00 00 00	 call	 set_pos

; 849  :         draw_button(COLOR_BLUE,  COLOR_LIGHT_GREY, COLOR_WHITE,  " IP", "L", " "  );

  008dc	48 8d 05 00 00
	00 00		 lea	 rax, OFFSET FLAT:$SG168674
  008e3	48 89 44 24 28	 mov	 QWORD PTR [rsp+40], rax
  008e8	48 8d 05 00 00
	00 00		 lea	 rax, OFFSET FLAT:$SG168675
  008ef	48 89 44 24 20	 mov	 QWORD PTR [rsp+32], rax
  008f4	4c 8d 0d 00 00
	00 00		 lea	 r9, OFFSET FLAT:$SG168676
  008fb	66 41 b8 0f 00	 mov	 r8w, 15
  00900	66 ba 08 00	 mov	 dx, 8
  00904	66 b9 03 00	 mov	 cx, 3
  00908	e8 00 00 00 00	 call	 draw_button
$LN28@NP_screen_:

; 850  :     }
; 851  : 
; 852  :     set_pos ((BUTTONS_LINE+2), 32);

  0090d	66 ba 20 00	 mov	 dx, 32			; 00000020H
  00911	66 b9 13 00	 mov	 cx, 19
  00915	e8 00 00 00 00	 call	 set_pos

; 853  :     draw_button(COLOR_RED,   COLOR_LIGHT_GREY, COLOR_WHITE,  " P",  "W", "R " );

  0091a	48 8d 05 00 00
	00 00		 lea	 rax, OFFSET FLAT:$SG168677
  00921	48 89 44 24 28	 mov	 QWORD PTR [rsp+40], rax
  00926	48 8d 05 00 00
	00 00		 lea	 rax, OFFSET FLAT:$SG168678
  0092d	48 89 44 24 20	 mov	 QWORD PTR [rsp+32], rax
  00932	4c 8d 0d 00 00
	00 00		 lea	 r9, OFFSET FLAT:$SG168679
  00939	66 41 b8 0f 00	 mov	 r8w, 15
  0093e	66 ba 08 00	 mov	 dx, 8
  00942	66 b9 01 00	 mov	 cx, 1
  00946	e8 00 00 00 00	 call	 draw_button

; 854  : 
; 855  :     set_color (COLOR_LIGHT_GREY, COLOR_BLACK);

  0094b	33 d2		 xor	 edx, edx
  0094d	66 b9 08 00	 mov	 cx, 8
  00951	e8 00 00 00 00	 call	 set_color

; 856  : 
; 857  :     /* CPU busy graph */
; 858  :     line = CPU_GRAPH_LINE;                          // this is where the dashes start

  00956	c7 44 24 34 14
	00 00 00	 mov	 DWORD PTR line$[rsp], 20

; 859  :     NPcpugraph_ncpu = MIN(cons_rows - line - 1, sysblk.hicpu);

  0095e	8b 44 24 34	 mov	 eax, DWORD PTR line$[rsp]
  00962	8b 0d 00 00 00
	00		 mov	 ecx, DWORD PTR cons_rows
  00968	2b c8		 sub	 ecx, eax
  0096a	8b c1		 mov	 eax, ecx
  0096c	ff c8		 dec	 eax
  0096e	48 8b 0d 00 00
	00 00		 mov	 rcx, QWORD PTR __imp_sysblk
  00975	3b 81 08 01 00
	00		 cmp	 eax, DWORD PTR [rcx+264]
  0097b	7d 16		 jge	 SHORT $LN47@NP_screen_
  0097d	8b 44 24 34	 mov	 eax, DWORD PTR line$[rsp]
  00981	8b 0d 00 00 00
	00		 mov	 ecx, DWORD PTR cons_rows
  00987	2b c8		 sub	 ecx, eax
  00989	8b c1		 mov	 eax, ecx
  0098b	ff c8		 dec	 eax
  0098d	89 44 24 50	 mov	 DWORD PTR tv438[rsp], eax
  00991	eb 11		 jmp	 SHORT $LN48@NP_screen_
$LN47@NP_screen_:
  00993	48 8b 05 00 00
	00 00		 mov	 rax, QWORD PTR __imp_sysblk
  0099a	8b 80 08 01 00
	00		 mov	 eax, DWORD PTR [rax+264]
  009a0	89 44 24 50	 mov	 DWORD PTR tv438[rsp], eax
$LN48@NP_screen_:
  009a4	8b 44 24 50	 mov	 eax, DWORD PTR tv438[rsp]
  009a8	89 05 00 00 00
	00		 mov	 DWORD PTR NPcpugraph_ncpu, eax

; 860  :     set_pos (line++, 1);

  009ae	0f b7 44 24 34	 movzx	 eax, WORD PTR line$[rsp]
  009b3	66 89 44 24 38	 mov	 WORD PTR tv441[rsp], ax
  009b8	66 ba 01 00	 mov	 dx, 1
  009bc	0f b7 4c 24 38	 movzx	 ecx, WORD PTR tv441[rsp]
  009c1	e8 00 00 00 00	 call	 set_pos
  009c6	8b 44 24 34	 mov	 eax, DWORD PTR line$[rsp]
  009ca	ff c0		 inc	 eax
  009cc	89 44 24 34	 mov	 DWORD PTR line$[rsp], eax

; 861  :     fill_text ('-', 38);

  009d0	66 ba 26 00	 mov	 dx, 38			; 00000026H
  009d4	b1 2d		 mov	 cl, 45			; 0000002dH
  009d6	e8 00 00 00 00	 call	 fill_text

; 862  : 
; 863  :     if (sysblk.hicpu)

  009db	48 8b 05 00 00
	00 00		 mov	 rax, QWORD PTR __imp_sysblk
  009e2	83 b8 08 01 00
	00 00		 cmp	 DWORD PTR [rax+264], 0
  009e9	0f 84 a0 00 00
	00		 je	 $LN29@NP_screen_

; 864  :     {
; 865  :         NPcpugraph = 1;

  009ef	c7 05 00 00 00
	00 01 00 00 00	 mov	 DWORD PTR NPcpugraph, 1

; 866  :         NPcpugraph_valid = 0;

  009f9	c7 05 00 00 00
	00 00 00 00 00	 mov	 DWORD PTR NPcpugraph_valid, 0

; 867  :         for (i = 0; i < NPcpugraph_ncpu; i++)

  00a03	c7 44 24 30 00
	00 00 00	 mov	 DWORD PTR i$[rsp], 0
  00a0b	eb 0a		 jmp	 SHORT $LN10@NP_screen_
$LN8@NP_screen_:
  00a0d	8b 44 24 30	 mov	 eax, DWORD PTR i$[rsp]
  00a11	ff c0		 inc	 eax
  00a13	89 44 24 30	 mov	 DWORD PTR i$[rsp], eax
$LN10@NP_screen_:
  00a17	8b 05 00 00 00
	00		 mov	 eax, DWORD PTR NPcpugraph_ncpu
  00a1d	39 44 24 30	 cmp	 DWORD PTR i$[rsp], eax
  00a21	7d 6a		 jge	 SHORT $LN9@NP_screen_

; 868  :         {
; 869  :             MSGBUF (buf, "%s%02X ", PTYPSTR(i), i);

  00a23	48 63 44 24 30	 movsxd	 rax, DWORD PTR i$[rsp]
  00a28	48 8b 0d 00 00
	00 00		 mov	 rcx, QWORD PTR __imp_sysblk
  00a2f	0f b6 8c 01 48
	0b 00 00	 movzx	 ecx, BYTE PTR [rcx+rax+2888]
  00a37	ff 15 00 00 00
	00		 call	 QWORD PTR __imp_ptyp2short
  00a3d	8b 4c 24 30	 mov	 ecx, DWORD PTR i$[rsp]
  00a41	89 4c 24 20	 mov	 DWORD PTR [rsp+32], ecx
  00a45	4c 8b c8	 mov	 r9, rax
  00a48	4c 8d 05 00 00
	00 00		 lea	 r8, OFFSET FLAT:$SG168682
  00a4f	ba 00 04 00 00	 mov	 edx, 1024		; 00000400H
  00a54	48 8d 4c 24 60	 lea	 rcx, QWORD PTR buf$[rsp]
  00a59	ff 15 00 00 00
	00		 call	 QWORD PTR __imp_w32_snprintf

; 870  :             set_pos (line++, 1);

  00a5f	0f b7 44 24 34	 movzx	 eax, WORD PTR line$[rsp]
  00a64	66 89 44 24 3a	 mov	 WORD PTR tv494[rsp], ax
  00a69	66 ba 01 00	 mov	 dx, 1
  00a6d	0f b7 4c 24 3a	 movzx	 ecx, WORD PTR tv494[rsp]
  00a72	e8 00 00 00 00	 call	 set_pos
  00a77	8b 44 24 34	 mov	 eax, DWORD PTR line$[rsp]
  00a7b	ff c0		 inc	 eax
  00a7d	89 44 24 34	 mov	 DWORD PTR line$[rsp], eax

; 871  :             draw_text (buf);

  00a81	48 8d 4c 24 60	 lea	 rcx, QWORD PTR buf$[rsp]
  00a86	e8 00 00 00 00	 call	 draw_text

; 872  :         }

  00a8b	eb 80		 jmp	 SHORT $LN8@NP_screen_
$LN9@NP_screen_:

; 873  :     }

  00a8d	eb 0a		 jmp	 SHORT $LN30@NP_screen_
$LN29@NP_screen_:

; 874  :     else
; 875  :         NPcpugraph = 0;

  00a8f	c7 05 00 00 00
	00 00 00 00 00	 mov	 DWORD PTR NPcpugraph, 0
$LN30@NP_screen_:

; 876  : 
; 877  :     /* Vertical separators */
; 878  :     for (i = 2; i <= cons_rows; i++)

  00a99	c7 44 24 30 02
	00 00 00	 mov	 DWORD PTR i$[rsp], 2
  00aa1	eb 0a		 jmp	 SHORT $LN13@NP_screen_
$LN11@NP_screen_:
  00aa3	8b 44 24 30	 mov	 eax, DWORD PTR i$[rsp]
  00aa7	ff c0		 inc	 eax
  00aa9	89 44 24 30	 mov	 DWORD PTR i$[rsp], eax
$LN13@NP_screen_:
  00aad	8b 05 00 00 00
	00		 mov	 eax, DWORD PTR cons_rows
  00ab3	39 44 24 30	 cmp	 DWORD PTR i$[rsp], eax
  00ab7	7f 1a		 jg	 SHORT $LN12@NP_screen_

; 879  :     {
; 880  :         set_pos (i , 39);

  00ab9	66 ba 27 00	 mov	 dx, 39			; 00000027H
  00abd	0f b7 4c 24 30	 movzx	 ecx, WORD PTR i$[rsp]
  00ac2	e8 00 00 00 00	 call	 set_pos

; 881  :         draw_char ('|');

  00ac7	b9 7c 00 00 00	 mov	 ecx, 124		; 0000007cH
  00acc	e8 00 00 00 00	 call	 draw_char

; 882  :     }

  00ad1	eb d0		 jmp	 SHORT $LN11@NP_screen_
$LN12@NP_screen_:

; 883  : 
; 884  :     /* Last line : horizontal separator */
; 885  :     if (cons_rows >= 24)

  00ad3	83 3d 00 00 00
	00 18		 cmp	 DWORD PTR cons_rows, 24
  00ada	7c 33		 jl	 SHORT $LN31@NP_screen_

; 886  :     {
; 887  :         set_pos (cons_rows, 1);

  00adc	66 ba 01 00	 mov	 dx, 1
  00ae0	0f b7 0d 00 00
	00 00		 movzx	 ecx, WORD PTR cons_rows
  00ae7	e8 00 00 00 00	 call	 set_pos

; 888  :         fill_text ('-', 38);

  00aec	66 ba 26 00	 mov	 dx, 38			; 00000026H
  00af0	b1 2d		 mov	 cl, 45			; 0000002dH
  00af2	e8 00 00 00 00	 call	 fill_text

; 889  :         draw_char ('|');

  00af7	b9 7c 00 00 00	 mov	 ecx, 124		; 0000007cH
  00afc	e8 00 00 00 00	 call	 draw_char

; 890  :         fill_text ('-', cons_cols);

  00b01	0f b7 15 00 00
	00 00		 movzx	 edx, WORD PTR cons_cols
  00b08	b1 2d		 mov	 cl, 45			; 0000002dH
  00b0a	e8 00 00 00 00	 call	 fill_text
$LN31@NP_screen_:

; 891  :     }
; 892  : 
; 893  :     /* positions the cursor */
; 894  :     set_pos (cons_rows, cons_cols);

  00b0f	0f b7 15 00 00
	00 00		 movzx	 edx, WORD PTR cons_cols
  00b16	0f b7 0d 00 00
	00 00		 movzx	 ecx, WORD PTR cons_rows
  00b1d	e8 00 00 00 00	 call	 set_pos
$LN32@NP_screen_:

; 895  : }

  00b22	48 8b 8c 24 60
	04 00 00	 mov	 rcx, QWORD PTR __$ArrayPad$[rsp]
  00b2a	48 33 cc	 xor	 rcx, rsp
  00b2d	e8 00 00 00 00	 call	 __security_check_cookie
  00b32	48 81 c4 78 04
	00 00		 add	 rsp, 1144		; 00000478H
  00b39	c3		 ret	 0
NP_screen_redraw ENDP
_TEXT	ENDS
; Function compile flags: /Odtp
; File C:\papa\MyGit\hyperion-zvector\panel.c
_TEXT	SEGMENT
NP_init	PROC

; 649  : {

  00000	48 83 ec 28	 sub	 rsp, 40			; 00000028H

; 650  :     NPdataentry = 0;

  00004	c7 05 00 00 00
	00 00 00 00 00	 mov	 DWORD PTR NPdataentry, 0

; 651  :     STRLCPY( NPprompt1, "" );

  0000e	41 b8 28 00 00
	00		 mov	 r8d, 40			; 00000028H
  00014	48 8d 15 00 00
	00 00		 lea	 rdx, OFFSET FLAT:$SG168600
  0001b	48 8d 0d 00 00
	00 00		 lea	 rcx, OFFSET FLAT:NPprompt1
  00022	ff 15 00 00 00
	00		 call	 QWORD PTR __imp_strlcpy

; 652  :     STRLCPY( NPprompt2, "" );

  00028	41 b8 28 00 00
	00		 mov	 r8d, 40			; 00000028H
  0002e	48 8d 15 00 00
	00 00		 lea	 rdx, OFFSET FLAT:$SG168601
  00035	48 8d 0d 00 00
	00 00		 lea	 rcx, OFFSET FLAT:NPprompt2
  0003c	ff 15 00 00 00
	00		 call	 QWORD PTR __imp_strlcpy

; 653  : }

  00042	48 83 c4 28	 add	 rsp, 40			; 00000028H
  00046	c3		 ret	 0
NP_init	ENDP
_TEXT	ENDS
; Function compile flags: /Odtp
; File C:\papa\MyGit\hyperion-zvector\panel.c
_TEXT	SEGMENT
bg$ = 48
fg$ = 56
hfg$ = 64
left$ = 72
mid$ = 80
right$ = 88
draw_button PROC

; 553  : {

  00000	4c 89 4c 24 20	 mov	 QWORD PTR [rsp+32], r9
  00005	66 44 89 44 24
	18		 mov	 WORD PTR [rsp+24], r8w
  0000b	66 89 54 24 10	 mov	 WORD PTR [rsp+16], dx
  00010	66 89 4c 24 08	 mov	 WORD PTR [rsp+8], cx
  00015	48 83 ec 28	 sub	 rsp, 40			; 00000028H

; 554  :     set_color (fg, bg);

  00019	0f b7 54 24 30	 movzx	 edx, WORD PTR bg$[rsp]
  0001e	0f b7 4c 24 38	 movzx	 ecx, WORD PTR fg$[rsp]
  00023	e8 00 00 00 00	 call	 set_color

; 555  :     draw_text (left);

  00028	48 8b 4c 24 48	 mov	 rcx, QWORD PTR left$[rsp]
  0002d	e8 00 00 00 00	 call	 draw_text

; 556  :     set_color (hfg, bg);

  00032	0f b7 54 24 30	 movzx	 edx, WORD PTR bg$[rsp]
  00037	0f b7 4c 24 40	 movzx	 ecx, WORD PTR hfg$[rsp]
  0003c	e8 00 00 00 00	 call	 set_color

; 557  :     draw_text (mid);

  00041	48 8b 4c 24 50	 mov	 rcx, QWORD PTR mid$[rsp]
  00046	e8 00 00 00 00	 call	 draw_text

; 558  :     set_color (fg, bg);

  0004b	0f b7 54 24 30	 movzx	 edx, WORD PTR bg$[rsp]
  00050	0f b7 4c 24 38	 movzx	 ecx, WORD PTR fg$[rsp]
  00055	e8 00 00 00 00	 call	 set_color

; 559  :     draw_text (right);

  0005a	48 8b 4c 24 58	 mov	 rcx, QWORD PTR right$[rsp]
  0005f	e8 00 00 00 00	 call	 draw_text

; 560  : }

  00064	48 83 c4 28	 add	 rsp, 40			; 00000028H
  00068	c3		 ret	 0
draw_button ENDP
_TEXT	ENDS
; Function compile flags: /Odtp
; File C:\papa\MyGit\hyperion-zvector\panel.c
_TEXT	SEGMENT
len$ = 32
$T1 = 40
tv73 = 48
buf$ = 64
__$ArrayPad$ = 336
c$ = 368
x$ = 376
fill_text PROC

; 540  : {

  00000	66 89 54 24 10	 mov	 WORD PTR [rsp+16], dx
  00005	88 4c 24 08	 mov	 BYTE PTR [rsp+8], cl
  00009	57		 push	 rdi
  0000a	48 81 ec 60 01
	00 00		 sub	 rsp, 352		; 00000160H
  00011	48 8b 05 00 00
	00 00		 mov	 rax, QWORD PTR __security_cookie
  00018	48 33 c4	 xor	 rax, rsp
  0001b	48 89 84 24 50
	01 00 00	 mov	 QWORD PTR __$ArrayPad$[rsp], rax

; 541  :     char buf[PANEL_MAX_COLS+1];
; 542  :     int  len;
; 543  : 
; 544  :     if (x > PANEL_MAX_COLS) x = PANEL_MAX_COLS;

  00023	0f bf 84 24 78
	01 00 00	 movsx	 eax, WORD PTR x$[rsp]
  0002b	3d 00 01 00 00	 cmp	 eax, 256		; 00000100H
  00030	7e 0d		 jle	 SHORT $LN2@fill_text
  00032	b8 00 01 00 00	 mov	 eax, 256		; 00000100H
  00037	66 89 84 24 78
	01 00 00	 mov	 WORD PTR x$[rsp], ax
$LN2@fill_text:

; 545  :     len = x + 1 - cur_cons_col;

  0003f	0f bf 84 24 78
	01 00 00	 movsx	 eax, WORD PTR x$[rsp]
  00047	ff c0		 inc	 eax
  00049	0f bf 0d 00 00
	00 00		 movsx	 ecx, WORD PTR cur_cons_col
  00050	2b c1		 sub	 eax, ecx
  00052	89 44 24 20	 mov	 DWORD PTR len$[rsp], eax

; 546  :     if (len <= 0) return;

  00056	83 7c 24 20 00	 cmp	 DWORD PTR len$[rsp], 0
  0005b	7f 02		 jg	 SHORT $LN3@fill_text
  0005d	eb 57		 jmp	 SHORT $LN1@fill_text
$LN3@fill_text:

; 547  :     memset( buf, c, len );

  0005f	48 63 44 24 20	 movsxd	 rax, DWORD PTR len$[rsp]
  00064	48 89 44 24 30	 mov	 QWORD PTR tv73[rsp], rax
  00069	0f be 8c 24 70
	01 00 00	 movsx	 ecx, BYTE PTR c$[rsp]
  00071	48 63 c9	 movsxd	 rcx, ecx
  00074	48 8d 54 24 40	 lea	 rdx, QWORD PTR buf$[rsp]
  00079	48 8b fa	 mov	 rdi, rdx
  0007c	48 8b c1	 mov	 rax, rcx
  0007f	48 8b 4c 24 30	 mov	 rcx, QWORD PTR tv73[rsp]
  00084	f3 aa		 rep stosb

; 548  :     buf[len] = '\0';

  00086	48 63 44 24 20	 movsxd	 rax, DWORD PTR len$[rsp]
  0008b	48 89 44 24 28	 mov	 QWORD PTR $T1[rsp], rax
  00090	48 81 7c 24 28
	01 01 00 00	 cmp	 QWORD PTR $T1[rsp], 257	; 00000101H
  00099	73 02		 jae	 SHORT $LN5@fill_text
  0009b	eb 05		 jmp	 SHORT $LN6@fill_text
$LN5@fill_text:
  0009d	e8 00 00 00 00	 call	 __report_rangecheckfailure
$LN6@fill_text:
  000a2	48 8b 44 24 28	 mov	 rax, QWORD PTR $T1[rsp]
  000a7	c6 44 04 40 00	 mov	 BYTE PTR buf$[rsp+rax], 0

; 549  :     draw_text (buf);

  000ac	48 8d 4c 24 40	 lea	 rcx, QWORD PTR buf$[rsp]
  000b1	e8 00 00 00 00	 call	 draw_text
$LN1@fill_text:
$LN4@fill_text:

; 550  : }

  000b6	48 8b 8c 24 50
	01 00 00	 mov	 rcx, QWORD PTR __$ArrayPad$[rsp]
  000be	48 33 cc	 xor	 rcx, rsp
  000c1	e8 00 00 00 00	 call	 __security_check_cookie
  000c6	48 81 c4 60 01
	00 00		 add	 rsp, 352		; 00000160H
  000cd	5f		 pop	 rdi
  000ce	c3		 ret	 0
fill_text ENDP
_TEXT	ENDS
; Function compile flags: /Odtp
; File C:\papa\MyGit\hyperion-zvector\panel.c
_TEXT	SEGMENT
buf$ = 32
__$ArrayPad$ = 56
dw$ = 80
draw_dw	PROC

; 533  : {

  00000	48 89 4c 24 08	 mov	 QWORD PTR [rsp+8], rcx
  00005	48 83 ec 48	 sub	 rsp, 72			; 00000048H
  00009	48 8b 05 00 00
	00 00		 mov	 rax, QWORD PTR __security_cookie
  00010	48 33 c4	 xor	 rax, rsp
  00013	48 89 44 24 38	 mov	 QWORD PTR __$ArrayPad$[rsp], rax

; 534  :     char buf[17];
; 535  :     MSGBUF (buf, "%16.16"PRIX64, dw);

  00018	4c 8b 4c 24 50	 mov	 r9, QWORD PTR dw$[rsp]
  0001d	4c 8d 05 00 00
	00 00		 lea	 r8, OFFSET FLAT:$SG168539
  00024	ba 11 00 00 00	 mov	 edx, 17
  00029	48 8d 4c 24 20	 lea	 rcx, QWORD PTR buf$[rsp]
  0002e	ff 15 00 00 00
	00		 call	 QWORD PTR __imp_w32_snprintf

; 536  :     draw_text (buf);

  00034	48 8d 4c 24 20	 lea	 rcx, QWORD PTR buf$[rsp]
  00039	e8 00 00 00 00	 call	 draw_text

; 537  : }

  0003e	48 8b 4c 24 38	 mov	 rcx, QWORD PTR __$ArrayPad$[rsp]
  00043	48 33 cc	 xor	 rcx, rsp
  00046	e8 00 00 00 00	 call	 __security_check_cookie
  0004b	48 83 c4 48	 add	 rsp, 72			; 00000048H
  0004f	c3		 ret	 0
draw_dw	ENDP
_TEXT	ENDS
; Function compile flags: /Odtp
; File C:\papa\MyGit\hyperion-zvector\panel.c
_TEXT	SEGMENT
buf$ = 32
__$ArrayPad$ = 48
fw$ = 80
draw_fw	PROC

; 526  : {

  00000	89 4c 24 08	 mov	 DWORD PTR [rsp+8], ecx
  00004	48 83 ec 48	 sub	 rsp, 72			; 00000048H
  00008	48 8b 05 00 00
	00 00		 mov	 rax, QWORD PTR __security_cookie
  0000f	48 33 c4	 xor	 rax, rsp
  00012	48 89 44 24 30	 mov	 QWORD PTR __$ArrayPad$[rsp], rax

; 527  :     char buf[9];
; 528  :     MSGBUF (buf, "%8.8X", fw);

  00017	44 8b 4c 24 50	 mov	 r9d, DWORD PTR fw$[rsp]
  0001c	4c 8d 05 00 00
	00 00		 lea	 r8, OFFSET FLAT:$SG168533
  00023	ba 09 00 00 00	 mov	 edx, 9
  00028	48 8d 4c 24 20	 lea	 rcx, QWORD PTR buf$[rsp]
  0002d	ff 15 00 00 00
	00		 call	 QWORD PTR __imp_w32_snprintf

; 529  :     draw_text (buf);

  00033	48 8d 4c 24 20	 lea	 rcx, QWORD PTR buf$[rsp]
  00038	e8 00 00 00 00	 call	 draw_text

; 530  : }

  0003d	48 8b 4c 24 30	 mov	 rcx, QWORD PTR __$ArrayPad$[rsp]
  00042	48 33 cc	 xor	 rcx, rsp
  00045	e8 00 00 00 00	 call	 __security_check_cookie
  0004a	48 83 c4 48	 add	 rsp, 72			; 00000048H
  0004e	c3		 ret	 0
draw_fw	ENDP
_TEXT	ENDS
; Function compile flags: /Odtp
; File C:\papa\MyGit\hyperion-zvector\panel.c
_TEXT	SEGMENT
c$ = 48
draw_char PROC

; 517  : {

  00000	89 4c 24 08	 mov	 DWORD PTR [rsp+8], ecx
  00004	48 83 ec 28	 sub	 rsp, 40			; 00000028H

; 518  :     if (cur_cons_row < 1 || cur_cons_row > cons_rows
; 519  :      || cur_cons_col < 1 || cur_cons_col > cons_cols)

  00008	0f bf 05 00 00
	00 00		 movsx	 eax, WORD PTR cur_cons_row
  0000f	83 f8 01	 cmp	 eax, 1
  00012	7c 2a		 jl	 SHORT $LN3@draw_char
  00014	0f bf 05 00 00
	00 00		 movsx	 eax, WORD PTR cur_cons_row
  0001b	3b 05 00 00 00
	00		 cmp	 eax, DWORD PTR cons_rows
  00021	7f 1b		 jg	 SHORT $LN3@draw_char
  00023	0f bf 05 00 00
	00 00		 movsx	 eax, WORD PTR cur_cons_col
  0002a	83 f8 01	 cmp	 eax, 1
  0002d	7c 0f		 jl	 SHORT $LN3@draw_char
  0002f	0f bf 05 00 00
	00 00		 movsx	 eax, WORD PTR cur_cons_col
  00036	3b 05 00 00 00
	00		 cmp	 eax, DWORD PTR cons_cols
  0003c	7e 02		 jle	 SHORT $LN2@draw_char
$LN3@draw_char:

; 520  :         return;

  0003e	eb 22		 jmp	 SHORT $LN1@draw_char
$LN2@draw_char:

; 521  :     fputc (c, confp);

  00040	48 8b 15 00 00
	00 00		 mov	 rdx, QWORD PTR confp
  00047	8b 4c 24 30	 mov	 ecx, DWORD PTR c$[rsp]
  0004b	ff 15 00 00 00
	00		 call	 QWORD PTR __imp_fputc

; 522  :     cur_cons_col++;

  00051	0f b7 05 00 00
	00 00		 movzx	 eax, WORD PTR cur_cons_col
  00058	66 ff c0	 inc	 ax
  0005b	66 89 05 00 00
	00 00		 mov	 WORD PTR cur_cons_col, ax
$LN1@draw_char:

; 523  : }

  00062	48 83 c4 28	 add	 rsp, 40			; 00000028H
  00066	c3		 ret	 0
draw_char ENDP
_TEXT	ENDS
; Function compile flags: /Odtp
; File C:\papa\MyGit\hyperion-zvector\panel.c
_TEXT	SEGMENT
text$ = 48
size$ = 56
write_text PROC

; 506  : {

  00000	89 54 24 10	 mov	 DWORD PTR [rsp+16], edx
  00004	48 89 4c 24 08	 mov	 QWORD PTR [rsp+8], rcx
  00009	48 83 ec 28	 sub	 rsp, 40			; 00000028H

; 507  :     if (cur_cons_row < 1 || cur_cons_row > cons_rows
; 508  :      || cur_cons_col < 1 || cur_cons_col > cons_cols)

  0000d	0f bf 05 00 00
	00 00		 movsx	 eax, WORD PTR cur_cons_row
  00014	83 f8 01	 cmp	 eax, 1
  00017	7c 2a		 jl	 SHORT $LN3@write_text
  00019	0f bf 05 00 00
	00 00		 movsx	 eax, WORD PTR cur_cons_row
  00020	3b 05 00 00 00
	00		 cmp	 eax, DWORD PTR cons_rows
  00026	7f 1b		 jg	 SHORT $LN3@write_text
  00028	0f bf 05 00 00
	00 00		 movsx	 eax, WORD PTR cur_cons_col
  0002f	83 f8 01	 cmp	 eax, 1
  00032	7c 0f		 jl	 SHORT $LN3@write_text
  00034	0f bf 05 00 00
	00 00		 movsx	 eax, WORD PTR cur_cons_col
  0003b	3b 05 00 00 00
	00		 cmp	 eax, DWORD PTR cons_cols
  00041	7e 02		 jle	 SHORT $LN2@write_text
$LN3@write_text:

; 509  :         return;

  00043	eb 62		 jmp	 SHORT $LN1@write_text
$LN2@write_text:

; 510  :     if (cons_cols - cur_cons_col + 1 < size)

  00045	0f bf 05 00 00
	00 00		 movsx	 eax, WORD PTR cur_cons_col
  0004c	8b 0d 00 00 00
	00		 mov	 ecx, DWORD PTR cons_cols
  00052	2b c8		 sub	 ecx, eax
  00054	8b c1		 mov	 eax, ecx
  00056	ff c0		 inc	 eax
  00058	3b 44 24 38	 cmp	 eax, DWORD PTR size$[rsp]
  0005c	7d 17		 jge	 SHORT $LN4@write_text

; 511  :         size = cons_cols - cur_cons_col + 1;

  0005e	0f bf 05 00 00
	00 00		 movsx	 eax, WORD PTR cur_cons_col
  00065	8b 0d 00 00 00
	00		 mov	 ecx, DWORD PTR cons_cols
  0006b	2b c8		 sub	 ecx, eax
  0006d	8b c1		 mov	 eax, ecx
  0006f	ff c0		 inc	 eax
  00071	89 44 24 38	 mov	 DWORD PTR size$[rsp], eax
$LN4@write_text:

; 512  :     fwrite (text, size, 1, confp);

  00075	48 63 44 24 38	 movsxd	 rax, DWORD PTR size$[rsp]
  0007a	4c 8b 0d 00 00
	00 00		 mov	 r9, QWORD PTR confp
  00081	41 b8 01 00 00
	00		 mov	 r8d, 1
  00087	48 8b d0	 mov	 rdx, rax
  0008a	48 8b 4c 24 30	 mov	 rcx, QWORD PTR text$[rsp]
  0008f	ff 15 00 00 00
	00		 call	 QWORD PTR __imp_w32_fwrite

; 513  :     cur_cons_col += size;

  00095	0f bf 05 00 00
	00 00		 movsx	 eax, WORD PTR cur_cons_col
  0009c	03 44 24 38	 add	 eax, DWORD PTR size$[rsp]
  000a0	66 89 05 00 00
	00 00		 mov	 WORD PTR cur_cons_col, ax
$LN1@write_text:

; 514  : }

  000a7	48 83 c4 28	 add	 rsp, 40			; 00000028H
  000ab	c3		 ret	 0
write_text ENDP
_TEXT	ENDS
; Function compile flags: /Odtp
; File C:\papa\MyGit\hyperion-zvector\panel.c
_TEXT	SEGMENT
len$ = 32
short_text$ = 40
text$ = 64
draw_text PROC

; 483  : {

  00000	48 89 4c 24 08	 mov	 QWORD PTR [rsp+8], rcx
  00005	48 83 ec 38	 sub	 rsp, 56			; 00000038H

; 484  :     int   len;
; 485  :     char *short_text;
; 486  : 
; 487  :     if (cur_cons_row < 1 || cur_cons_row > cons_rows
; 488  :      || cur_cons_col < 1 || cur_cons_col > cons_cols)

  00009	0f bf 05 00 00
	00 00		 movsx	 eax, WORD PTR cur_cons_row
  00010	83 f8 01	 cmp	 eax, 1
  00013	7c 2a		 jl	 SHORT $LN3@draw_text
  00015	0f bf 05 00 00
	00 00		 movsx	 eax, WORD PTR cur_cons_row
  0001c	3b 05 00 00 00
	00		 cmp	 eax, DWORD PTR cons_rows
  00022	7f 1b		 jg	 SHORT $LN3@draw_text
  00024	0f bf 05 00 00
	00 00		 movsx	 eax, WORD PTR cur_cons_col
  0002b	83 f8 01	 cmp	 eax, 1
  0002e	7c 0f		 jl	 SHORT $LN3@draw_text
  00030	0f bf 05 00 00
	00 00		 movsx	 eax, WORD PTR cur_cons_col
  00037	3b 05 00 00 00
	00		 cmp	 eax, DWORD PTR cons_cols
  0003d	7e 05		 jle	 SHORT $LN2@draw_text
$LN3@draw_text:

; 489  :         return;

  0003f	e9 b5 00 00 00	 jmp	 $LN1@draw_text
$LN2@draw_text:

; 490  :     len = (int)strlen(text);

  00044	48 8b 4c 24 40	 mov	 rcx, QWORD PTR text$[rsp]
  00049	e8 00 00 00 00	 call	 strlen
  0004e	89 44 24 20	 mov	 DWORD PTR len$[rsp], eax

; 491  :     if ((cur_cons_col + len - 1) <= cons_cols)

  00052	0f bf 05 00 00
	00 00		 movsx	 eax, WORD PTR cur_cons_col
  00059	8b 4c 24 20	 mov	 ecx, DWORD PTR len$[rsp]
  0005d	8d 44 08 ff	 lea	 eax, DWORD PTR [rax+rcx-1]
  00061	3b 05 00 00 00
	00		 cmp	 eax, DWORD PTR cons_cols
  00067	7f 1b		 jg	 SHORT $LN4@draw_text

; 492  :         fprintf (confp, "%s", text);

  00069	4c 8b 44 24 40	 mov	 r8, QWORD PTR text$[rsp]
  0006e	48 8d 15 00 00
	00 00		 lea	 rdx, OFFSET FLAT:$SG168510
  00075	48 8b 0d 00 00
	00 00		 mov	 rcx, QWORD PTR confp
  0007c	ff 15 00 00 00
	00		 call	 QWORD PTR __imp_w32_fprintf
  00082	eb 63		 jmp	 SHORT $LN5@draw_text
$LN4@draw_text:

; 493  :     else
; 494  :     {
; 495  :         len = cons_cols - cur_cons_col + 1;

  00084	0f bf 05 00 00
	00 00		 movsx	 eax, WORD PTR cur_cons_col
  0008b	8b 0d 00 00 00
	00		 mov	 ecx, DWORD PTR cons_cols
  00091	2b c8		 sub	 ecx, eax
  00093	8b c1		 mov	 eax, ecx
  00095	ff c0		 inc	 eax
  00097	89 44 24 20	 mov	 DWORD PTR len$[rsp], eax

; 496  :         if ((short_text = strdup(text)) == NULL)

  0009b	48 8b 4c 24 40	 mov	 rcx, QWORD PTR text$[rsp]
  000a0	ff 15 00 00 00
	00		 call	 QWORD PTR __imp_strdup
  000a6	48 89 44 24 28	 mov	 QWORD PTR short_text$[rsp], rax
  000ab	48 83 7c 24 28
	00		 cmp	 QWORD PTR short_text$[rsp], 0
  000b1	75 02		 jne	 SHORT $LN6@draw_text

; 497  :             return;

  000b3	eb 44		 jmp	 SHORT $LN1@draw_text
$LN6@draw_text:

; 498  :         short_text[len] = '\0';

  000b5	48 63 44 24 20	 movsxd	 rax, DWORD PTR len$[rsp]
  000ba	48 8b 4c 24 28	 mov	 rcx, QWORD PTR short_text$[rsp]
  000bf	c6 04 01 00	 mov	 BYTE PTR [rcx+rax], 0

; 499  :         fprintf (confp, "%s", short_text);

  000c3	4c 8b 44 24 28	 mov	 r8, QWORD PTR short_text$[rsp]
  000c8	48 8d 15 00 00
	00 00		 lea	 rdx, OFFSET FLAT:$SG168512
  000cf	48 8b 0d 00 00
	00 00		 mov	 rcx, QWORD PTR confp
  000d6	ff 15 00 00 00
	00		 call	 QWORD PTR __imp_w32_fprintf

; 500  :         free (short_text);

  000dc	48 8b 4c 24 28	 mov	 rcx, QWORD PTR short_text$[rsp]
  000e1	ff 15 00 00 00
	00		 call	 QWORD PTR __imp_free
$LN5@draw_text:

; 501  :     }
; 502  :     cur_cons_col += len;

  000e7	0f bf 05 00 00
	00 00		 movsx	 eax, WORD PTR cur_cons_col
  000ee	03 44 24 20	 add	 eax, DWORD PTR len$[rsp]
  000f2	66 89 05 00 00
	00 00		 mov	 WORD PTR cur_cons_col, ax
$LN1@draw_text:

; 503  : }

  000f9	48 83 c4 38	 add	 rsp, 56			; 00000038H
  000fd	c3		 ret	 0
draw_text ENDP
_TEXT	ENDS
; Function compile flags: /Odtp
; File C:\papa\MyGit\hyperion-zvector\panel.c
_TEXT	SEGMENT
restore_command_line PROC

; 474  : {

  00000	40 56		 push	 rsi
  00002	57		 push	 rdi

; 475  :     memcpy( cmdline, saved_cmdline, sizeof(cmdline) );

  00003	48 8d 05 00 00
	00 00		 lea	 rax, OFFSET FLAT:cmdline
  0000a	48 8d 0d 00 00
	00 00		 lea	 rcx, OFFSET FLAT:saved_cmdline
  00011	48 8b f8	 mov	 rdi, rax
  00014	48 8b f1	 mov	 rsi, rcx
  00017	b9 01 01 00 00	 mov	 ecx, 257		; 00000101H
  0001c	f3 a4		 rep movsb

; 476  :     cmdlen = saved_cmdlen;

  0001e	8b 05 00 00 00
	00		 mov	 eax, DWORD PTR saved_cmdlen
  00024	89 05 00 00 00
	00		 mov	 DWORD PTR cmdlen, eax

; 477  :     cmdoff = saved_cmdoff;

  0002a	8b 05 00 00 00
	00		 mov	 eax, DWORD PTR saved_cmdoff
  00030	89 05 00 00 00
	00		 mov	 DWORD PTR cmdoff, eax

; 478  :     cur_cons_row = saved_cons_row;

  00036	0f b7 05 00 00
	00 00		 movzx	 eax, WORD PTR saved_cons_row
  0003d	66 89 05 00 00
	00 00		 mov	 WORD PTR cur_cons_row, ax

; 479  :     cur_cons_col = saved_cons_col;

  00044	0f b7 05 00 00
	00 00		 movzx	 eax, WORD PTR saved_cons_col
  0004b	66 89 05 00 00
	00 00		 mov	 WORD PTR cur_cons_col, ax

; 480  : }

  00052	5f		 pop	 rdi
  00053	5e		 pop	 rsi
  00054	c3		 ret	 0
restore_command_line ENDP
_TEXT	ENDS
; Function compile flags: /Odtp
; File C:\papa\MyGit\hyperion-zvector\panel.c
_TEXT	SEGMENT
save_command_line PROC

; 465  : {

  00000	40 56		 push	 rsi
  00002	57		 push	 rdi

; 466  :     memcpy( saved_cmdline, cmdline, sizeof(saved_cmdline) );

  00003	48 8d 05 00 00
	00 00		 lea	 rax, OFFSET FLAT:saved_cmdline
  0000a	48 8d 0d 00 00
	00 00		 lea	 rcx, OFFSET FLAT:cmdline
  00011	48 8b f8	 mov	 rdi, rax
  00014	48 8b f1	 mov	 rsi, rcx
  00017	b9 01 01 00 00	 mov	 ecx, 257		; 00000101H
  0001c	f3 a4		 rep movsb

; 467  :     saved_cmdlen = cmdlen;

  0001e	8b 05 00 00 00
	00		 mov	 eax, DWORD PTR cmdlen
  00024	89 05 00 00 00
	00		 mov	 DWORD PTR saved_cmdlen, eax

; 468  :     saved_cmdoff = cmdoff;

  0002a	8b 05 00 00 00
	00		 mov	 eax, DWORD PTR cmdoff
  00030	89 05 00 00 00
	00		 mov	 DWORD PTR saved_cmdoff, eax

; 469  :     saved_cons_row = cur_cons_row;

  00036	0f b7 05 00 00
	00 00		 movzx	 eax, WORD PTR cur_cons_row
  0003d	66 89 05 00 00
	00 00		 mov	 WORD PTR saved_cons_row, ax

; 470  :     saved_cons_col = cur_cons_col;

  00044	0f b7 05 00 00
	00 00		 movzx	 eax, WORD PTR cur_cons_col
  0004b	66 89 05 00 00
	00 00		 mov	 WORD PTR saved_cons_col, ax

; 471  : }

  00052	5f		 pop	 rdi
  00053	5e		 pop	 rsi
  00054	c3		 ret	 0
save_command_line ENDP
_TEXT	ENDS
; Function compile flags: /Odtp
; File C:\papa\MyGit\hyperion-zvector\panel.c
_TEXT	SEGMENT
cursor_cmdline_end PROC

; 458  : {

  00000	48 83 ec 28	 sub	 rsp, 40			; 00000028H

; 459  :     cmdoff = cmdlen;

  00004	8b 05 00 00 00
	00		 mov	 eax, DWORD PTR cmdlen
  0000a	89 05 00 00 00
	00		 mov	 DWORD PTR cmdoff, eax
$LN4@cursor_cmd:

; 460  :     ADJ_CMDCOL();

  00010	8b 05 00 00 00
	00		 mov	 eax, DWORD PTR cmdcol
  00016	8b 0d 00 00 00
	00		 mov	 ecx, DWORD PTR cmdoff
  0001c	2b c8		 sub	 ecx, eax
  0001e	8b c1		 mov	 eax, ecx
  00020	3b 05 00 00 00
	00		 cmp	 eax, DWORD PTR cmdcols
  00026	7e 18		 jle	 SHORT $LN5@cursor_cmd
  00028	8b 05 00 00 00
	00		 mov	 eax, DWORD PTR cmdcols
  0002e	8b 0d 00 00 00
	00		 mov	 ecx, DWORD PTR cmdoff
  00034	2b c8		 sub	 ecx, eax
  00036	8b c1		 mov	 eax, ecx
  00038	89 05 00 00 00
	00		 mov	 DWORD PTR cmdcol, eax
  0003e	eb 1a		 jmp	 SHORT $LN6@cursor_cmd
$LN5@cursor_cmd:
  00040	8b 05 00 00 00
	00		 mov	 eax, DWORD PTR cmdcol
  00046	39 05 00 00 00
	00		 cmp	 DWORD PTR cmdoff, eax
  0004c	7d 0c		 jge	 SHORT $LN7@cursor_cmd
  0004e	8b 05 00 00 00
	00		 mov	 eax, DWORD PTR cmdoff
  00054	89 05 00 00 00
	00		 mov	 DWORD PTR cmdcol, eax
$LN7@cursor_cmd:
$LN6@cursor_cmd:
  0005a	33 c0		 xor	 eax, eax
  0005c	85 c0		 test	 eax, eax
  0005e	75 b0		 jne	 SHORT $LN4@cursor_cmd

; 461  :     set_pos( CMDLINE_ROW, CMDLINE_COL + cmdoff - cmdcol );

  00060	48 8d 0d 00 00
	00 00		 lea	 rcx, OFFSET FLAT:$SG168492
  00067	e8 00 00 00 00	 call	 strlen
  0006c	48 ff c0	 inc	 rax
  0006f	98		 cwde
  00070	03 05 00 00 00
	00		 add	 eax, DWORD PTR cmdoff
  00076	2b 05 00 00 00
	00		 sub	 eax, DWORD PTR cmdcol
  0007c	8b 0d 00 00 00
	00		 mov	 ecx, DWORD PTR cons_rows
  00082	ff c9		 dec	 ecx
  00084	0f b7 d0	 movzx	 edx, ax
  00087	e8 00 00 00 00	 call	 set_pos

; 462  : }

  0008c	48 83 c4 28	 add	 rsp, 40			; 00000028H
  00090	c3		 ret	 0
cursor_cmdline_end ENDP
_TEXT	ENDS
; Function compile flags: /Odtp
; File C:\papa\MyGit\hyperion-zvector\panel.c
_TEXT	SEGMENT
cursor_cmdline_home PROC

; 451  : {

  00000	48 83 ec 28	 sub	 rsp, 40			; 00000028H

; 452  :     cmdoff = 0;

  00004	c7 05 00 00 00
	00 00 00 00 00	 mov	 DWORD PTR cmdoff, 0
$LN4@cursor_cmd:

; 453  :     ADJ_CMDCOL();

  0000e	8b 05 00 00 00
	00		 mov	 eax, DWORD PTR cmdcol
  00014	8b 0d 00 00 00
	00		 mov	 ecx, DWORD PTR cmdoff
  0001a	2b c8		 sub	 ecx, eax
  0001c	8b c1		 mov	 eax, ecx
  0001e	3b 05 00 00 00
	00		 cmp	 eax, DWORD PTR cmdcols
  00024	7e 18		 jle	 SHORT $LN5@cursor_cmd
  00026	8b 05 00 00 00
	00		 mov	 eax, DWORD PTR cmdcols
  0002c	8b 0d 00 00 00
	00		 mov	 ecx, DWORD PTR cmdoff
  00032	2b c8		 sub	 ecx, eax
  00034	8b c1		 mov	 eax, ecx
  00036	89 05 00 00 00
	00		 mov	 DWORD PTR cmdcol, eax
  0003c	eb 1a		 jmp	 SHORT $LN6@cursor_cmd
$LN5@cursor_cmd:
  0003e	8b 05 00 00 00
	00		 mov	 eax, DWORD PTR cmdcol
  00044	39 05 00 00 00
	00		 cmp	 DWORD PTR cmdoff, eax
  0004a	7d 0c		 jge	 SHORT $LN7@cursor_cmd
  0004c	8b 05 00 00 00
	00		 mov	 eax, DWORD PTR cmdoff
  00052	89 05 00 00 00
	00		 mov	 DWORD PTR cmdcol, eax
$LN7@cursor_cmd:
$LN6@cursor_cmd:
  00058	33 c0		 xor	 eax, eax
  0005a	85 c0		 test	 eax, eax
  0005c	75 b0		 jne	 SHORT $LN4@cursor_cmd

; 454  :     set_pos( CMDLINE_ROW, CMDLINE_COL );

  0005e	48 8d 0d 00 00
	00 00		 lea	 rcx, OFFSET FLAT:$SG168481
  00065	e8 00 00 00 00	 call	 strlen
  0006a	48 ff c0	 inc	 rax
  0006d	8b 0d 00 00 00
	00		 mov	 ecx, DWORD PTR cons_rows
  00073	ff c9		 dec	 ecx
  00075	0f b7 d0	 movzx	 edx, ax
  00078	e8 00 00 00 00	 call	 set_pos

; 455  : }

  0007d	48 83 c4 28	 add	 rsp, 40			; 00000028H
  00081	c3		 ret	 0
cursor_cmdline_home ENDP
_TEXT	ENDS
; Function compile flags: /Odtp
; File C:\papa\MyGit\hyperion-zvector\panel.c
_TEXT	SEGMENT
tv89 = 32
tv74 = 36
tv81 = 40
is_cursor_on_cmdline PROC

; 435  : {

  00000	48 83 ec 38	 sub	 rsp, 56			; 00000038H

; 436  : #if defined(OPTION_EXTCURS)
; 437  :     get_cursor_pos( keybfd, confp, &cur_cons_row, &cur_cons_col );

  00004	4c 8d 0d 00 00
	00 00		 lea	 r9, OFFSET FLAT:cur_cons_col
  0000b	4c 8d 05 00 00
	00 00		 lea	 r8, OFFSET FLAT:cur_cons_row
  00012	48 8b 15 00 00
	00 00		 mov	 rdx, QWORD PTR confp
  00019	8b 0d 00 00 00
	00		 mov	 ecx, DWORD PTR keybfd
  0001f	e8 00 00 00 00	 call	 get_cursor_pos

; 438  :     cursor_on_cmdline =

  00024	33 c0		 xor	 eax, eax
  00026	83 f8 01	 cmp	 eax, 1
  00029	74 6c		 je	 SHORT $LN3@is_cursor_
  0002b	0f bf 05 00 00
	00 00		 movsx	 eax, WORD PTR cur_cons_row
  00032	8b 0d 00 00 00
	00		 mov	 ecx, DWORD PTR cons_rows
  00038	ff c9		 dec	 ecx
  0003a	0f bf c9	 movsx	 ecx, cx
  0003d	3b c1		 cmp	 eax, ecx
  0003f	75 56		 jne	 SHORT $LN3@is_cursor_
  00041	0f bf 05 00 00
	00 00		 movsx	 eax, WORD PTR cur_cons_col
  00048	89 44 24 24	 mov	 DWORD PTR tv74[rsp], eax
  0004c	48 8d 0d 00 00
	00 00		 lea	 rcx, OFFSET FLAT:$SG168469
  00053	e8 00 00 00 00	 call	 strlen
  00058	48 ff c0	 inc	 rax
  0005b	98		 cwde
  0005c	8b 4c 24 24	 mov	 ecx, DWORD PTR tv74[rsp]
  00060	3b c8		 cmp	 ecx, eax
  00062	7c 33		 jl	 SHORT $LN3@is_cursor_
  00064	0f bf 05 00 00
	00 00		 movsx	 eax, WORD PTR cur_cons_col
  0006b	89 44 24 28	 mov	 DWORD PTR tv81[rsp], eax
  0006f	48 8d 0d 00 00
	00 00		 lea	 rcx, OFFSET FLAT:$SG168470
  00076	e8 00 00 00 00	 call	 strlen
  0007b	48 ff c0	 inc	 rax
  0007e	98		 cwde
  0007f	03 05 00 00 00
	00		 add	 eax, DWORD PTR cmdcols
  00085	8b 4c 24 28	 mov	 ecx, DWORD PTR tv81[rsp]
  00089	3b c8		 cmp	 ecx, eax
  0008b	7f 0a		 jg	 SHORT $LN3@is_cursor_
  0008d	c7 44 24 20 01
	00 00 00	 mov	 DWORD PTR tv89[rsp], 1
  00095	eb 08		 jmp	 SHORT $LN4@is_cursor_
$LN3@is_cursor_:
  00097	c7 44 24 20 00
	00 00 00	 mov	 DWORD PTR tv89[rsp], 0
$LN4@is_cursor_:
  0009f	8b 44 24 20	 mov	 eax, DWORD PTR tv89[rsp]
  000a3	89 05 00 00 00
	00		 mov	 DWORD PTR cursor_on_cmdline, eax

; 439  :     (1
; 440  :         && cur_cons_row == CMDLINE_ROW
; 441  :         && cur_cons_col >= CMDLINE_COL
; 442  :         && cur_cons_col <= CMDLINE_COL + cmdcols
; 443  :     );
; 444  : #else // !defined(OPTION_EXTCURS)
; 445  :     cursor_on_cmdline = 1;
; 446  : #endif // defined(OPTION_EXTCURS)
; 447  :     return cursor_on_cmdline;

  000a9	8b 05 00 00 00
	00		 mov	 eax, DWORD PTR cursor_on_cmdline

; 448  : }

  000af	48 83 c4 38	 add	 rsp, 56			; 00000038H
  000b3	c3		 ret	 0
is_cursor_on_cmdline ENDP
_TEXT	ENDS
; Function compile flags: /Odtp
; File C:\papa\MyGit\hyperion-zvector\panel.c
_TEXT	SEGMENT
tv69 = 32
tv70 = 36
tv77 = 40
tv78 = 44
y$ = 64
x$ = 72
set_pos	PROC

; 426  : {

  00000	66 89 54 24 10	 mov	 WORD PTR [rsp+16], dx
  00005	66 89 4c 24 08	 mov	 WORD PTR [rsp+8], cx
  0000a	48 83 ec 38	 sub	 rsp, 56			; 00000038H

; 427  :     cur_cons_row = y;

  0000e	0f b7 44 24 40	 movzx	 eax, WORD PTR y$[rsp]
  00013	66 89 05 00 00
	00 00		 mov	 WORD PTR cur_cons_row, ax

; 428  :     cur_cons_col = x;

  0001a	0f b7 44 24 48	 movzx	 eax, WORD PTR x$[rsp]
  0001f	66 89 05 00 00
	00 00		 mov	 WORD PTR cur_cons_col, ax

; 429  :     y = y < 1 ? 1 : y > cons_rows ? cons_rows : y;

  00026	0f bf 44 24 40	 movsx	 eax, WORD PTR y$[rsp]
  0002b	83 f8 01	 cmp	 eax, 1
  0002e	7d 0a		 jge	 SHORT $LN5@set_pos
  00030	c7 44 24 24 01
	00 00 00	 mov	 DWORD PTR tv70[rsp], 1
  00038	eb 2a		 jmp	 SHORT $LN6@set_pos
$LN5@set_pos:
  0003a	0f bf 44 24 40	 movsx	 eax, WORD PTR y$[rsp]
  0003f	3b 05 00 00 00
	00		 cmp	 eax, DWORD PTR cons_rows
  00045	7e 0c		 jle	 SHORT $LN3@set_pos
  00047	8b 05 00 00 00
	00		 mov	 eax, DWORD PTR cons_rows
  0004d	89 44 24 20	 mov	 DWORD PTR tv69[rsp], eax
  00051	eb 09		 jmp	 SHORT $LN4@set_pos
$LN3@set_pos:
  00053	0f bf 44 24 40	 movsx	 eax, WORD PTR y$[rsp]
  00058	89 44 24 20	 mov	 DWORD PTR tv69[rsp], eax
$LN4@set_pos:
  0005c	8b 44 24 20	 mov	 eax, DWORD PTR tv69[rsp]
  00060	89 44 24 24	 mov	 DWORD PTR tv70[rsp], eax
$LN6@set_pos:
  00064	0f b7 44 24 24	 movzx	 eax, WORD PTR tv70[rsp]
  00069	66 89 44 24 40	 mov	 WORD PTR y$[rsp], ax

; 430  :     x = x < 1 ? 1 : x > cons_cols ? cons_cols : x;

  0006e	0f bf 44 24 48	 movsx	 eax, WORD PTR x$[rsp]
  00073	83 f8 01	 cmp	 eax, 1
  00076	7d 0a		 jge	 SHORT $LN9@set_pos
  00078	c7 44 24 2c 01
	00 00 00	 mov	 DWORD PTR tv78[rsp], 1
  00080	eb 2a		 jmp	 SHORT $LN10@set_pos
$LN9@set_pos:
  00082	0f bf 44 24 48	 movsx	 eax, WORD PTR x$[rsp]
  00087	3b 05 00 00 00
	00		 cmp	 eax, DWORD PTR cons_cols
  0008d	7e 0c		 jle	 SHORT $LN7@set_pos
  0008f	8b 05 00 00 00
	00		 mov	 eax, DWORD PTR cons_cols
  00095	89 44 24 28	 mov	 DWORD PTR tv77[rsp], eax
  00099	eb 09		 jmp	 SHORT $LN8@set_pos
$LN7@set_pos:
  0009b	0f bf 44 24 48	 movsx	 eax, WORD PTR x$[rsp]
  000a0	89 44 24 28	 mov	 DWORD PTR tv77[rsp], eax
$LN8@set_pos:
  000a4	8b 44 24 28	 mov	 eax, DWORD PTR tv77[rsp]
  000a8	89 44 24 2c	 mov	 DWORD PTR tv78[rsp], eax
$LN10@set_pos:
  000ac	0f b7 44 24 2c	 movzx	 eax, WORD PTR tv78[rsp]
  000b1	66 89 44 24 48	 mov	 WORD PTR x$[rsp], ax

; 431  :     set_screen_pos (confp, y, x);

  000b6	44 0f b7 44 24
	48		 movzx	 r8d, WORD PTR x$[rsp]
  000bc	0f b7 54 24 40	 movzx	 edx, WORD PTR y$[rsp]
  000c1	48 8b 0d 00 00
	00 00		 mov	 rcx, QWORD PTR confp
  000c8	e8 00 00 00 00	 call	 set_screen_pos

; 432  : }

  000cd	48 83 c4 38	 add	 rsp, 56			; 00000038H
  000d1	c3		 ret	 0
set_pos	ENDP
_TEXT	ENDS
; Function compile flags: /Odtp
; File C:\papa\MyGit\hyperion-zvector\panel.c
_TEXT	SEGMENT
fg$ = 48
bg$ = 56
set_color PROC

; 421  : {

  00000	66 89 54 24 10	 mov	 WORD PTR [rsp+16], dx
  00005	66 89 4c 24 08	 mov	 WORD PTR [rsp+8], cx
  0000a	48 83 ec 28	 sub	 rsp, 40			; 00000028H

; 422  :     set_screen_color (confp, fg, bg);

  0000e	44 0f b7 44 24
	38		 movzx	 r8d, WORD PTR bg$[rsp]
  00014	0f b7 54 24 30	 movzx	 edx, WORD PTR fg$[rsp]
  00019	48 8b 0d 00 00
	00 00		 mov	 rcx, QWORD PTR confp
  00020	e8 00 00 00 00	 call	 set_screen_color

; 423  : }

  00025	48 83 c4 28	 add	 rsp, 40			; 00000028H
  00029	c3		 ret	 0
set_color ENDP
_TEXT	ENDS
; Function compile flags: /Odtp
; File C:\papa\MyGit\hyperion-zvector\panel.c
_TEXT	SEGMENT
y$ = 48
x$ = 56
get_dim	PROC

; 405  : {

  00000	48 89 54 24 10	 mov	 QWORD PTR [rsp+16], rdx
  00005	48 89 4c 24 08	 mov	 QWORD PTR [rsp+8], rcx
  0000a	48 83 ec 28	 sub	 rsp, 40			; 00000028H

; 406  :     get_console_dim( confp, y, x);

  0000e	4c 8b 44 24 38	 mov	 r8, QWORD PTR x$[rsp]
  00013	48 8b 54 24 30	 mov	 rdx, QWORD PTR y$[rsp]
  00018	48 8b 0d 00 00
	00 00		 mov	 rcx, QWORD PTR confp
  0001f	e8 00 00 00 00	 call	 get_console_dim

; 407  :     if (*y > PANEL_MAX_ROWS)

  00024	48 8b 44 24 30	 mov	 rax, QWORD PTR y$[rsp]
  00029	81 38 00 01 00
	00		 cmp	 DWORD PTR [rax], 256	; 00000100H
  0002f	7e 0b		 jle	 SHORT $LN2@get_dim

; 408  :         *y = PANEL_MAX_ROWS;

  00031	48 8b 44 24 30	 mov	 rax, QWORD PTR y$[rsp]
  00036	c7 00 00 01 00
	00		 mov	 DWORD PTR [rax], 256	; 00000100H
$LN2@get_dim:

; 409  :     if (*x > PANEL_MAX_COLS)

  0003c	48 8b 44 24 38	 mov	 rax, QWORD PTR x$[rsp]
  00041	81 38 00 01 00
	00		 cmp	 DWORD PTR [rax], 256	; 00000100H
  00047	7e 0b		 jle	 SHORT $LN3@get_dim

; 410  :         *x = PANEL_MAX_COLS;

  00049	48 8b 44 24 38	 mov	 rax, QWORD PTR x$[rsp]
  0004e	c7 00 00 01 00
	00		 mov	 DWORD PTR [rax], 256	; 00000100H
$LN3@get_dim:

; 411  : #if defined(WIN32) && !defined( _MSVC_ )
; 412  :    /* If running from a cygwin command prompt we do
; 413  :      * better with one less row.
; 414  :      */
; 415  :     if (!cons_term || !*cons_term || strcmp(cons_term, "xterm"))
; 416  :         (*y)--;
; 417  : #endif // defined(WIN32) && !defined( _MSVC_ )
; 418  : }

  00054	48 83 c4 28	 add	 rsp, 40			; 00000028H
  00058	c3		 ret	 0
get_dim	ENDP
_TEXT	ENDS
; Function compile flags: /Odtp
; File C:\papa\MyGit\hyperion-zvector\panel.c
_TEXT	SEGMENT
clr_screen PROC

; 400  : {

  00000	48 83 ec 28	 sub	 rsp, 40			; 00000028H

; 401  :     clear_screen (confp);

  00004	48 8b 0d 00 00
	00 00		 mov	 rcx, QWORD PTR confp
  0000b	e8 00 00 00 00	 call	 clear_screen

; 402  : }

  00010	48 83 c4 28	 add	 rsp, 40			; 00000028H
  00014	c3		 ret	 0
clr_screen ENDP
_TEXT	ENDS
; Function compile flags: /Odtp
; File C:\papa\MyGit\hyperion-zvector\panel.c
_TEXT	SEGMENT
tv73 = 32
do_next_history PROC

; 389  : {

  00000	48 83 ec 38	 sub	 rsp, 56			; 00000038H

; 390  :     if (history_next() != -1)

  00004	e8 00 00 00 00	 call	 history_next
  00009	83 f8 ff	 cmp	 eax, -1
  0000c	0f 84 a8 00 00
	00		 je	 $LN5@do_next_hi

; 391  :     {
; 392  :         STRLCPY( cmdline, historyCmdLine );

  00012	41 b8 01 01 00
	00		 mov	 r8d, 257		; 00000101H
  00018	48 8b 15 00 00
	00 00		 mov	 rdx, QWORD PTR historyCmdLine
  0001f	48 8d 0d 00 00
	00 00		 lea	 rcx, OFFSET FLAT:cmdline
  00026	ff 15 00 00 00
	00		 call	 QWORD PTR __imp_strlcpy

; 393  :         cmdlen = (int)strlen(cmdline);

  0002c	48 8d 0d 00 00
	00 00		 lea	 rcx, OFFSET FLAT:cmdline
  00033	e8 00 00 00 00	 call	 strlen
  00038	89 05 00 00 00
	00		 mov	 DWORD PTR cmdlen, eax

; 394  :         cmdoff = cmdlen < cmdcols ? cmdlen : 0;

  0003e	8b 05 00 00 00
	00		 mov	 eax, DWORD PTR cmdcols
  00044	39 05 00 00 00
	00		 cmp	 DWORD PTR cmdlen, eax
  0004a	7d 0c		 jge	 SHORT $LN10@do_next_hi
  0004c	8b 05 00 00 00
	00		 mov	 eax, DWORD PTR cmdlen
  00052	89 44 24 20	 mov	 DWORD PTR tv73[rsp], eax
  00056	eb 08		 jmp	 SHORT $LN11@do_next_hi
$LN10@do_next_hi:
  00058	c7 44 24 20 00
	00 00 00	 mov	 DWORD PTR tv73[rsp], 0
$LN11@do_next_hi:
  00060	8b 44 24 20	 mov	 eax, DWORD PTR tv73[rsp]
  00064	89 05 00 00 00
	00		 mov	 DWORD PTR cmdoff, eax
$LN4@do_next_hi:

; 395  :         ADJ_CMDCOL();

  0006a	8b 05 00 00 00
	00		 mov	 eax, DWORD PTR cmdcol
  00070	8b 0d 00 00 00
	00		 mov	 ecx, DWORD PTR cmdoff
  00076	2b c8		 sub	 ecx, eax
  00078	8b c1		 mov	 eax, ecx
  0007a	3b 05 00 00 00
	00		 cmp	 eax, DWORD PTR cmdcols
  00080	7e 18		 jle	 SHORT $LN6@do_next_hi
  00082	8b 05 00 00 00
	00		 mov	 eax, DWORD PTR cmdcols
  00088	8b 0d 00 00 00
	00		 mov	 ecx, DWORD PTR cmdoff
  0008e	2b c8		 sub	 ecx, eax
  00090	8b c1		 mov	 eax, ecx
  00092	89 05 00 00 00
	00		 mov	 DWORD PTR cmdcol, eax
  00098	eb 1a		 jmp	 SHORT $LN7@do_next_hi
$LN6@do_next_hi:
  0009a	8b 05 00 00 00
	00		 mov	 eax, DWORD PTR cmdcol
  000a0	39 05 00 00 00
	00		 cmp	 DWORD PTR cmdoff, eax
  000a6	7d 0c		 jge	 SHORT $LN8@do_next_hi
  000a8	8b 05 00 00 00
	00		 mov	 eax, DWORD PTR cmdoff
  000ae	89 05 00 00 00
	00		 mov	 DWORD PTR cmdcol, eax
$LN8@do_next_hi:
$LN7@do_next_hi:
  000b4	33 c0		 xor	 eax, eax
  000b6	85 c0		 test	 eax, eax
  000b8	75 b0		 jne	 SHORT $LN4@do_next_hi
$LN5@do_next_hi:

; 396  :     }
; 397  : }

  000ba	48 83 c4 38	 add	 rsp, 56			; 00000038H
  000be	c3		 ret	 0
do_next_history ENDP
_TEXT	ENDS
; Function compile flags: /Odtp
; File C:\papa\MyGit\hyperion-zvector\panel.c
_TEXT	SEGMENT
tv73 = 32
do_prev_history PROC

; 378  : {

  00000	48 83 ec 38	 sub	 rsp, 56			; 00000038H

; 379  :     if (history_prev() != -1)

  00004	e8 00 00 00 00	 call	 history_prev
  00009	83 f8 ff	 cmp	 eax, -1
  0000c	0f 84 a8 00 00
	00		 je	 $LN5@do_prev_hi

; 380  :     {
; 381  :         STRLCPY( cmdline, historyCmdLine );

  00012	41 b8 01 01 00
	00		 mov	 r8d, 257		; 00000101H
  00018	48 8b 15 00 00
	00 00		 mov	 rdx, QWORD PTR historyCmdLine
  0001f	48 8d 0d 00 00
	00 00		 lea	 rcx, OFFSET FLAT:cmdline
  00026	ff 15 00 00 00
	00		 call	 QWORD PTR __imp_strlcpy

; 382  :         cmdlen = (int)strlen(cmdline);

  0002c	48 8d 0d 00 00
	00 00		 lea	 rcx, OFFSET FLAT:cmdline
  00033	e8 00 00 00 00	 call	 strlen
  00038	89 05 00 00 00
