; Listing generated by Microsoft (R) Optimizing Compiler Version 19.34.31937.0 

include listing.inc

INCLUDELIB MSVCRTD
INCLUDELIB OLDNAMES

CONST	SEGMENT
CKD_ENDTRK DB	0ffH
	DB	0ffH
	DB	0ffH
	DB	0ffH
	DB	0ffH
	DB	0ffH
	DB	0ffH
	DB	0ffH
CONST	ENDS
PUBLIC	gstat2str
EXTRN	__imp_w32_snprintf:PROC
_BSS	SEGMENT
$SG159069 DB	01H DUP (?)
$SG159071 DB	01H DUP (?)
$SG159073 DB	01H DUP (?)
$SG159075 DB	01H DUP (?)
$SG159077 DB	01H DUP (?)
$SG159079 DB	01H DUP (?)
$SG159081 DB	01H DUP (?)
$SG159083 DB	01H DUP (?)
$SG159085 DB	01H DUP (?)
$SG159087 DB	01H DUP (?)
$SG159089 DB	01H DUP (?)
$SG159091 DB	01H DUP (?)
$SG159093 DB	01H DUP (?)
$SG159095 DB	01H DUP (?)
$SG159097 DB	01H DUP (?)
$SG159099 DB	01H DUP (?)
$SG159101 DB	01H DUP (?)
$SG159103 DB	01H DUP (?)
$SG159105 DB	01H DUP (?)
$SG159107 DB	01H DUP (?)
$SG159109 DB	01H DUP (?)
$SG159111 DB	01H DUP (?)
$SG159113 DB	01H DUP (?)
$SG159115 DB	01H DUP (?)
$SG159117 DB	01H DUP (?)
$SG159119 DB	01H DUP (?)
$SG159121 DB	01H DUP (?)
$SG159123 DB	01H DUP (?)
$SG159125 DB	01H DUP (?)
$SG159127 DB	01H DUP (?)
$SG159129 DB	01H DUP (?)
$SG159131 DB	01H DUP (?)
_BSS	ENDS
pdata	SEGMENT
$pdata$gstat2str DD imagerel $LN68
	DD	imagerel $LN68+2114
	DD	imagerel $unwind$gstat2str
pdata	ENDS
_DATA	SEGMENT
$SG159068 DB	'0x00000001 ', 00H
$SG159124 DB	'SM ', 00H
$SG159070 DB	'0x00000002 ', 00H
	ORG $+4
$SG159072 DB	'0x00000004 ', 00H
	ORG $+4
$SG159074 DB	'0x00000008 ', 00H
	ORG $+4
$SG159076 DB	'0x00000010 ', 00H
	ORG $+4
$SG159078 DB	'0x00000020 ', 00H
	ORG $+4
$SG159080 DB	'0x00000040 ', 00H
	ORG $+4
$SG159082 DB	'0x00000080 ', 00H
	ORG $+4
$SG159084 DB	'0x00000100 ', 00H
	ORG $+4
$SG159086 DB	'0x00000200 ', 00H
	ORG $+4
$SG159088 DB	'0x00000400 ', 00H
	ORG $+4
$SG159090 DB	'0x00000800 ', 00H
	ORG $+4
$SG159092 DB	'0x00001000 ', 00H
	ORG $+4
$SG159094 DB	'0x00002000 ', 00H
	ORG $+4
$SG159096 DB	'0x00004000 ', 00H
$SG159098 DB	'CLN ', 00H
	ORG $+7
$SG159100 DB	'IM_REP_EN ', 00H
	ORG $+5
$SG159102 DB	'0x00020000 ', 00H
	ORG $+4
$SG159104 DB	'DR_OPEN ', 00H
	ORG $+7
$SG159106 DB	'HW_ECC ', 00H
$SG159108 DB	'PADDING ', 00H
	ORG $+3
$SG159110 DB	'D_800 ', 00H
	ORG $+5
$SG159112 DB	'D_1600 ', 00H
$SG159114 DB	'D_6250 ', 00H
$SG159116 DB	'ONLINE ', 00H
$SG159118 DB	'0x02000000 ', 00H
	ORG $+4
$SG159120 DB	'WR_PROT ', 00H
	ORG $+3
$SG159122 DB	'EOD ', 00H
	ORG $+3
$SG159126 DB	'EOT ', 00H
	ORG $+3
$SG159128 DB	'BOT ', 00H
	ORG $+3
$SG159130 DB	'EOF ', 00H
	ORG $+7
$SG159132 DB	'%s%s%s%s%s%s%s%s%s%s%s%s%s%s%s%s%s%s%s%s%s%s%s%s%s%s%s%s'
	DB	'%s%s%s%s', 00H
_DATA	ENDS
xdata	SEGMENT
$unwind$gstat2str DD 021501H
	DD	0470115H
xdata	ENDS
; Function compile flags: /Odtp
; File C:\papa\MyGit\hyperion-zvector\scsiutil.c
_TEXT	SEGMENT
rc$ = 288
tv67 = 296
tv71 = 304
tv75 = 312
tv79 = 320
tv83 = 328
tv87 = 336
tv91 = 344
tv95 = 352
tv131 = 360
tv135 = 368
tv139 = 376
tv143 = 384
tv147 = 392
tv151 = 400
tv155 = 408
tv159 = 416
tv163 = 424
tv167 = 432
tv171 = 440
tv175 = 448
tv179 = 456
tv183 = 464
tv187 = 472
tv191 = 480
tv227 = 488
tv231 = 496
tv235 = 504
tv239 = 512
tv243 = 520
tv247 = 528
tv251 = 536
tv255 = 544
mt_gstat$ = 576
buffer$ = 584
bufsz$ = 592
gstat2str PROC

; 42   : {

$LN68:
  00000	4c 89 44 24 18	 mov	 QWORD PTR [rsp+24], r8
  00005	48 89 54 24 10	 mov	 QWORD PTR [rsp+16], rdx
  0000a	89 4c 24 08	 mov	 DWORD PTR [rsp+8], ecx
  0000e	48 81 ec 38 02
	00 00		 sub	 rsp, 568		; 00000238H

; 43   :     #define GMT_STR(flag)        GMT_##flag( mt_gstat ) ? #flag " " : ""
; 44   :     #define GMT_UNDEF_STR(flag)  (mt_gstat & flag)      ? #flag " " : ""
; 45   : 
; 46   :     int rc = snprintf( buffer, bufsz,

  00015	8b 84 24 40 02
	00 00		 mov	 eax, DWORD PTR mt_gstat$[rsp]
  0001c	83 e0 01	 and	 eax, 1
  0001f	85 c0		 test	 eax, eax
  00021	74 11		 je	 SHORT $LN4@gstat2str
  00023	48 8d 05 00 00
	00 00		 lea	 rax, OFFSET FLAT:$SG159068
  0002a	48 89 84 24 28
	01 00 00	 mov	 QWORD PTR tv67[rsp], rax
  00032	eb 0f		 jmp	 SHORT $LN5@gstat2str
$LN4@gstat2str:
  00034	48 8d 05 00 00
	00 00		 lea	 rax, OFFSET FLAT:$SG159069
  0003b	48 89 84 24 28
	01 00 00	 mov	 QWORD PTR tv67[rsp], rax
$LN5@gstat2str:
  00043	8b 84 24 40 02
	00 00		 mov	 eax, DWORD PTR mt_gstat$[rsp]
  0004a	83 e0 02	 and	 eax, 2
  0004d	85 c0		 test	 eax, eax
  0004f	74 11		 je	 SHORT $LN6@gstat2str
  00051	48 8d 05 00 00
	00 00		 lea	 rax, OFFSET FLAT:$SG159070
  00058	48 89 84 24 30
	01 00 00	 mov	 QWORD PTR tv71[rsp], rax
  00060	eb 0f		 jmp	 SHORT $LN7@gstat2str
$LN6@gstat2str:
  00062	48 8d 05 00 00
	00 00		 lea	 rax, OFFSET FLAT:$SG159071
  00069	48 89 84 24 30
	01 00 00	 mov	 QWORD PTR tv71[rsp], rax
$LN7@gstat2str:
  00071	8b 84 24 40 02
	00 00		 mov	 eax, DWORD PTR mt_gstat$[rsp]
  00078	83 e0 04	 and	 eax, 4
  0007b	85 c0		 test	 eax, eax
  0007d	74 11		 je	 SHORT $LN8@gstat2str
  0007f	48 8d 05 00 00
	00 00		 lea	 rax, OFFSET FLAT:$SG159072
  00086	48 89 84 24 38
	01 00 00	 mov	 QWORD PTR tv75[rsp], rax
  0008e	eb 0f		 jmp	 SHORT $LN9@gstat2str
$LN8@gstat2str:
  00090	48 8d 05 00 00
	00 00		 lea	 rax, OFFSET FLAT:$SG159073
  00097	48 89 84 24 38
	01 00 00	 mov	 QWORD PTR tv75[rsp], rax
$LN9@gstat2str:
  0009f	8b 84 24 40 02
	00 00		 mov	 eax, DWORD PTR mt_gstat$[rsp]
  000a6	83 e0 08	 and	 eax, 8
  000a9	85 c0		 test	 eax, eax
  000ab	74 11		 je	 SHORT $LN10@gstat2str
  000ad	48 8d 05 00 00
	00 00		 lea	 rax, OFFSET FLAT:$SG159074
  000b4	48 89 84 24 40
	01 00 00	 mov	 QWORD PTR tv79[rsp], rax
  000bc	eb 0f		 jmp	 SHORT $LN11@gstat2str
$LN10@gstat2str:
  000be	48 8d 05 00 00
	00 00		 lea	 rax, OFFSET FLAT:$SG159075
  000c5	48 89 84 24 40
	01 00 00	 mov	 QWORD PTR tv79[rsp], rax
$LN11@gstat2str:
  000cd	8b 84 24 40 02
	00 00		 mov	 eax, DWORD PTR mt_gstat$[rsp]
  000d4	83 e0 10	 and	 eax, 16
  000d7	85 c0		 test	 eax, eax
  000d9	74 11		 je	 SHORT $LN12@gstat2str
  000db	48 8d 05 00 00
	00 00		 lea	 rax, OFFSET FLAT:$SG159076
  000e2	48 89 84 24 48
	01 00 00	 mov	 QWORD PTR tv83[rsp], rax
  000ea	eb 0f		 jmp	 SHORT $LN13@gstat2str
$LN12@gstat2str:
  000ec	48 8d 05 00 00
	00 00		 lea	 rax, OFFSET FLAT:$SG159077
  000f3	48 89 84 24 48
	01 00 00	 mov	 QWORD PTR tv83[rsp], rax
$LN13@gstat2str:
  000fb	8b 84 24 40 02
	00 00		 mov	 eax, DWORD PTR mt_gstat$[rsp]
  00102	83 e0 20	 and	 eax, 32			; 00000020H
  00105	85 c0		 test	 eax, eax
  00107	74 11		 je	 SHORT $LN14@gstat2str
  00109	48 8d 05 00 00
	00 00		 lea	 rax, OFFSET FLAT:$SG159078
  00110	48 89 84 24 50
	01 00 00	 mov	 QWORD PTR tv87[rsp], rax
  00118	eb 0f		 jmp	 SHORT $LN15@gstat2str
$LN14@gstat2str:
  0011a	48 8d 05 00 00
	00 00		 lea	 rax, OFFSET FLAT:$SG159079
  00121	48 89 84 24 50
	01 00 00	 mov	 QWORD PTR tv87[rsp], rax
$LN15@gstat2str:
  00129	8b 84 24 40 02
	00 00		 mov	 eax, DWORD PTR mt_gstat$[rsp]
  00130	83 e0 40	 and	 eax, 64			; 00000040H
  00133	85 c0		 test	 eax, eax
  00135	74 11		 je	 SHORT $LN16@gstat2str
  00137	48 8d 05 00 00
	00 00		 lea	 rax, OFFSET FLAT:$SG159080
  0013e	48 89 84 24 58
	01 00 00	 mov	 QWORD PTR tv91[rsp], rax
  00146	eb 0f		 jmp	 SHORT $LN17@gstat2str
$LN16@gstat2str:
  00148	48 8d 05 00 00
	00 00		 lea	 rax, OFFSET FLAT:$SG159081
  0014f	48 89 84 24 58
	01 00 00	 mov	 QWORD PTR tv91[rsp], rax
$LN17@gstat2str:
  00157	8b 84 24 40 02
	00 00		 mov	 eax, DWORD PTR mt_gstat$[rsp]
  0015e	25 80 00 00 00	 and	 eax, 128		; 00000080H
  00163	85 c0		 test	 eax, eax
  00165	74 11		 je	 SHORT $LN18@gstat2str
  00167	48 8d 05 00 00
	00 00		 lea	 rax, OFFSET FLAT:$SG159082
  0016e	48 89 84 24 60
	01 00 00	 mov	 QWORD PTR tv95[rsp], rax
  00176	eb 0f		 jmp	 SHORT $LN19@gstat2str
$LN18@gstat2str:
  00178	48 8d 05 00 00
	00 00		 lea	 rax, OFFSET FLAT:$SG159083
  0017f	48 89 84 24 60
	01 00 00	 mov	 QWORD PTR tv95[rsp], rax
$LN19@gstat2str:
  00187	8b 84 24 40 02
	00 00		 mov	 eax, DWORD PTR mt_gstat$[rsp]
  0018e	25 00 01 00 00	 and	 eax, 256		; 00000100H
  00193	85 c0		 test	 eax, eax
  00195	74 11		 je	 SHORT $LN20@gstat2str
  00197	48 8d 05 00 00
	00 00		 lea	 rax, OFFSET FLAT:$SG159084
  0019e	48 89 84 24 68
	01 00 00	 mov	 QWORD PTR tv131[rsp], rax
  001a6	eb 0f		 jmp	 SHORT $LN21@gstat2str
$LN20@gstat2str:
  001a8	48 8d 05 00 00
	00 00		 lea	 rax, OFFSET FLAT:$SG159085
  001af	48 89 84 24 68
	01 00 00	 mov	 QWORD PTR tv131[rsp], rax
$LN21@gstat2str:
  001b7	8b 84 24 40 02
	00 00		 mov	 eax, DWORD PTR mt_gstat$[rsp]
  001be	25 00 02 00 00	 and	 eax, 512		; 00000200H
  001c3	85 c0		 test	 eax, eax
  001c5	74 11		 je	 SHORT $LN22@gstat2str
  001c7	48 8d 05 00 00
	00 00		 lea	 rax, OFFSET FLAT:$SG159086
  001ce	48 89 84 24 70
	01 00 00	 mov	 QWORD PTR tv135[rsp], rax
  001d6	eb 0f		 jmp	 SHORT $LN23@gstat2str
$LN22@gstat2str:
  001d8	48 8d 05 00 00
	00 00		 lea	 rax, OFFSET FLAT:$SG159087
  001df	48 89 84 24 70
	01 00 00	 mov	 QWORD PTR tv135[rsp], rax
$LN23@gstat2str:
  001e7	8b 84 24 40 02
	00 00		 mov	 eax, DWORD PTR mt_gstat$[rsp]
  001ee	25 00 04 00 00	 and	 eax, 1024		; 00000400H
  001f3	85 c0		 test	 eax, eax
  001f5	74 11		 je	 SHORT $LN24@gstat2str
  001f7	48 8d 05 00 00
	00 00		 lea	 rax, OFFSET FLAT:$SG159088
  001fe	48 89 84 24 78
	01 00 00	 mov	 QWORD PTR tv139[rsp], rax
  00206	eb 0f		 jmp	 SHORT $LN25@gstat2str
$LN24@gstat2str:
  00208	48 8d 05 00 00
	00 00		 lea	 rax, OFFSET FLAT:$SG159089
  0020f	48 89 84 24 78
	01 00 00	 mov	 QWORD PTR tv139[rsp], rax
$LN25@gstat2str:
  00217	8b 84 24 40 02
	00 00		 mov	 eax, DWORD PTR mt_gstat$[rsp]
  0021e	25 00 08 00 00	 and	 eax, 2048		; 00000800H
  00223	85 c0		 test	 eax, eax
  00225	74 11		 je	 SHORT $LN26@gstat2str
  00227	48 8d 05 00 00
	00 00		 lea	 rax, OFFSET FLAT:$SG159090
  0022e	48 89 84 24 80
	01 00 00	 mov	 QWORD PTR tv143[rsp], rax
  00236	eb 0f		 jmp	 SHORT $LN27@gstat2str
$LN26@gstat2str:
  00238	48 8d 05 00 00
	00 00		 lea	 rax, OFFSET FLAT:$SG159091
  0023f	48 89 84 24 80
	01 00 00	 mov	 QWORD PTR tv143[rsp], rax
$LN27@gstat2str:
  00247	8b 84 24 40 02
	00 00		 mov	 eax, DWORD PTR mt_gstat$[rsp]
  0024e	25 00 10 00 00	 and	 eax, 4096		; 00001000H
  00253	85 c0		 test	 eax, eax
  00255	74 11		 je	 SHORT $LN28@gstat2str
  00257	48 8d 05 00 00
	00 00		 lea	 rax, OFFSET FLAT:$SG159092
  0025e	48 89 84 24 88
	01 00 00	 mov	 QWORD PTR tv147[rsp], rax
  00266	eb 0f		 jmp	 SHORT $LN29@gstat2str
$LN28@gstat2str:
  00268	48 8d 05 00 00
	00 00		 lea	 rax, OFFSET FLAT:$SG159093
  0026f	48 89 84 24 88
	01 00 00	 mov	 QWORD PTR tv147[rsp], rax
$LN29@gstat2str:
  00277	8b 84 24 40 02
	00 00		 mov	 eax, DWORD PTR mt_gstat$[rsp]
  0027e	25 00 20 00 00	 and	 eax, 8192		; 00002000H
  00283	85 c0		 test	 eax, eax
  00285	74 11		 je	 SHORT $LN30@gstat2str
  00287	48 8d 05 00 00
	00 00		 lea	 rax, OFFSET FLAT:$SG159094
  0028e	48 89 84 24 90
	01 00 00	 mov	 QWORD PTR tv151[rsp], rax
  00296	eb 0f		 jmp	 SHORT $LN31@gstat2str
$LN30@gstat2str:
  00298	48 8d 05 00 00
	00 00		 lea	 rax, OFFSET FLAT:$SG159095
  0029f	48 89 84 24 90
	01 00 00	 mov	 QWORD PTR tv151[rsp], rax
$LN31@gstat2str:
  002a7	8b 84 24 40 02
	00 00		 mov	 eax, DWORD PTR mt_gstat$[rsp]
  002ae	25 00 40 00 00	 and	 eax, 16384		; 00004000H
  002b3	85 c0		 test	 eax, eax
  002b5	74 11		 je	 SHORT $LN32@gstat2str
  002b7	48 8d 05 00 00
	00 00		 lea	 rax, OFFSET FLAT:$SG159096
  002be	48 89 84 24 98
	01 00 00	 mov	 QWORD PTR tv155[rsp], rax
  002c6	eb 0f		 jmp	 SHORT $LN33@gstat2str
$LN32@gstat2str:
  002c8	48 8d 05 00 00
	00 00		 lea	 rax, OFFSET FLAT:$SG159097
  002cf	48 89 84 24 98
	01 00 00	 mov	 QWORD PTR tv155[rsp], rax
$LN33@gstat2str:
  002d7	8b 84 24 40 02
	00 00		 mov	 eax, DWORD PTR mt_gstat$[rsp]
  002de	25 00 80 00 00	 and	 eax, 32768		; 00008000H
  002e3	85 c0		 test	 eax, eax
  002e5	74 11		 je	 SHORT $LN34@gstat2str
  002e7	48 8d 05 00 00
	00 00		 lea	 rax, OFFSET FLAT:$SG159098
  002ee	48 89 84 24 a0
	01 00 00	 mov	 QWORD PTR tv159[rsp], rax
  002f6	eb 0f		 jmp	 SHORT $LN35@gstat2str
$LN34@gstat2str:
  002f8	48 8d 05 00 00
	00 00		 lea	 rax, OFFSET FLAT:$SG159099
  002ff	48 89 84 24 a0
	01 00 00	 mov	 QWORD PTR tv159[rsp], rax
$LN35@gstat2str:
  00307	8b 84 24 40 02
	00 00		 mov	 eax, DWORD PTR mt_gstat$[rsp]
  0030e	25 00 00 01 00	 and	 eax, 65536		; 00010000H
  00313	85 c0		 test	 eax, eax
  00315	74 11		 je	 SHORT $LN36@gstat2str
  00317	48 8d 05 00 00
	00 00		 lea	 rax, OFFSET FLAT:$SG159100
  0031e	48 89 84 24 a8
	01 00 00	 mov	 QWORD PTR tv163[rsp], rax
  00326	eb 0f		 jmp	 SHORT $LN37@gstat2str
$LN36@gstat2str:
  00328	48 8d 05 00 00
	00 00		 lea	 rax, OFFSET FLAT:$SG159101
  0032f	48 89 84 24 a8
	01 00 00	 mov	 QWORD PTR tv163[rsp], rax
$LN37@gstat2str:
  00337	8b 84 24 40 02
	00 00		 mov	 eax, DWORD PTR mt_gstat$[rsp]
  0033e	25 00 00 02 00	 and	 eax, 131072		; 00020000H
  00343	85 c0		 test	 eax, eax
  00345	74 11		 je	 SHORT $LN38@gstat2str
  00347	48 8d 05 00 00
	00 00		 lea	 rax, OFFSET FLAT:$SG159102
  0034e	48 89 84 24 b0
	01 00 00	 mov	 QWORD PTR tv167[rsp], rax
  00356	eb 0f		 jmp	 SHORT $LN39@gstat2str
$LN38@gstat2str:
  00358	48 8d 05 00 00
	00 00		 lea	 rax, OFFSET FLAT:$SG159103
  0035f	48 89 84 24 b0
	01 00 00	 mov	 QWORD PTR tv167[rsp], rax
$LN39@gstat2str:
  00367	8b 84 24 40 02
	00 00		 mov	 eax, DWORD PTR mt_gstat$[rsp]
  0036e	25 00 00 04 00	 and	 eax, 262144		; 00040000H
  00373	85 c0		 test	 eax, eax
  00375	74 11		 je	 SHORT $LN40@gstat2str
  00377	48 8d 05 00 00
	00 00		 lea	 rax, OFFSET FLAT:$SG159104
  0037e	48 89 84 24 b8
	01 00 00	 mov	 QWORD PTR tv171[rsp], rax
  00386	eb 0f		 jmp	 SHORT $LN41@gstat2str
$LN40@gstat2str:
  00388	48 8d 05 00 00
	00 00		 lea	 rax, OFFSET FLAT:$SG159105
  0038f	48 89 84 24 b8
	01 00 00	 mov	 QWORD PTR tv171[rsp], rax
$LN41@gstat2str:
  00397	8b 84 24 40 02
	00 00		 mov	 eax, DWORD PTR mt_gstat$[rsp]
  0039e	25 00 00 08 00	 and	 eax, 524288		; 00080000H
  003a3	85 c0		 test	 eax, eax
  003a5	74 11		 je	 SHORT $LN42@gstat2str
  003a7	48 8d 05 00 00
	00 00		 lea	 rax, OFFSET FLAT:$SG159106
  003ae	48 89 84 24 c0
	01 00 00	 mov	 QWORD PTR tv175[rsp], rax
  003b6	eb 0f		 jmp	 SHORT $LN43@gstat2str
$LN42@gstat2str:
  003b8	48 8d 05 00 00
	00 00		 lea	 rax, OFFSET FLAT:$SG159107
  003bf	48 89 84 24 c0
	01 00 00	 mov	 QWORD PTR tv175[rsp], rax
$LN43@gstat2str:
  003c7	8b 84 24 40 02
	00 00		 mov	 eax, DWORD PTR mt_gstat$[rsp]
  003ce	25 00 00 10 00	 and	 eax, 1048576		; 00100000H
  003d3	85 c0		 test	 eax, eax
  003d5	74 11		 je	 SHORT $LN44@gstat2str
  003d7	48 8d 05 00 00
	00 00		 lea	 rax, OFFSET FLAT:$SG159108
  003de	48 89 84 24 c8
	01 00 00	 mov	 QWORD PTR tv179[rsp], rax
  003e6	eb 0f		 jmp	 SHORT $LN45@gstat2str
$LN44@gstat2str:
  003e8	48 8d 05 00 00
	00 00		 lea	 rax, OFFSET FLAT:$SG159109
  003ef	48 89 84 24 c8
	01 00 00	 mov	 QWORD PTR tv179[rsp], rax
$LN45@gstat2str:
  003f7	8b 84 24 40 02
	00 00		 mov	 eax, DWORD PTR mt_gstat$[rsp]
  003fe	25 00 00 20 00	 and	 eax, 2097152		; 00200000H
  00403	85 c0		 test	 eax, eax
  00405	74 11		 je	 SHORT $LN46@gstat2str
  00407	48 8d 05 00 00
	00 00		 lea	 rax, OFFSET FLAT:$SG159110
  0040e	48 89 84 24 d0
	01 00 00	 mov	 QWORD PTR tv183[rsp], rax
  00416	eb 0f		 jmp	 SHORT $LN47@gstat2str
$LN46@gstat2str:
  00418	48 8d 05 00 00
	00 00		 lea	 rax, OFFSET FLAT:$SG159111
  0041f	48 89 84 24 d0
	01 00 00	 mov	 QWORD PTR tv183[rsp], rax
$LN47@gstat2str:
  00427	8b 84 24 40 02
	00 00		 mov	 eax, DWORD PTR mt_gstat$[rsp]
  0042e	25 00 00 40 00	 and	 eax, 4194304		; 00400000H
  00433	85 c0		 test	 eax, eax
  00435	74 11		 je	 SHORT $LN48@gstat2str
  00437	48 8d 05 00 00
	00 00		 lea	 rax, OFFSET FLAT:$SG159112
  0043e	48 89 84 24 d8
	01 00 00	 mov	 QWORD PTR tv187[rsp], rax
  00446	eb 0f		 jmp	 SHORT $LN49@gstat2str
$LN48@gstat2str:
  00448	48 8d 05 00 00
	00 00		 lea	 rax, OFFSET FLAT:$SG159113
  0044f	48 89 84 24 d8
	01 00 00	 mov	 QWORD PTR tv187[rsp], rax
$LN49@gstat2str:
  00457	8b 84 24 40 02
	00 00		 mov	 eax, DWORD PTR mt_gstat$[rsp]
  0045e	25 00 00 80 00	 and	 eax, 8388608		; 00800000H
  00463	85 c0		 test	 eax, eax
  00465	74 11		 je	 SHORT $LN50@gstat2str
  00467	48 8d 05 00 00
	00 00		 lea	 rax, OFFSET FLAT:$SG159114
  0046e	48 89 84 24 e0
	01 00 00	 mov	 QWORD PTR tv191[rsp], rax
  00476	eb 0f		 jmp	 SHORT $LN51@gstat2str
$LN50@gstat2str:
  00478	48 8d 05 00 00
	00 00		 lea	 rax, OFFSET FLAT:$SG159115
  0047f	48 89 84 24 e0
	01 00 00	 mov	 QWORD PTR tv191[rsp], rax
$LN51@gstat2str:
  00487	8b 84 24 40 02
	00 00		 mov	 eax, DWORD PTR mt_gstat$[rsp]
  0048e	25 00 00 00 01	 and	 eax, 16777216		; 01000000H
  00493	85 c0		 test	 eax, eax
  00495	74 11		 je	 SHORT $LN52@gstat2str
  00497	48 8d 05 00 00
	00 00		 lea	 rax, OFFSET FLAT:$SG159116
  0049e	48 89 84 24 e8
	01 00 00	 mov	 QWORD PTR tv227[rsp], rax
  004a6	eb 0f		 jmp	 SHORT $LN53@gstat2str
$LN52@gstat2str:
  004a8	48 8d 05 00 00
	00 00		 lea	 rax, OFFSET FLAT:$SG159117
  004af	48 89 84 24 e8
	01 00 00	 mov	 QWORD PTR tv227[rsp], rax
$LN53@gstat2str:
  004b7	8b 84 24 40 02
	00 00		 mov	 eax, DWORD PTR mt_gstat$[rsp]
  004be	25 00 00 00 02	 and	 eax, 33554432		; 02000000H
  004c3	85 c0		 test	 eax, eax
  004c5	74 11		 je	 SHORT $LN54@gstat2str
  004c7	48 8d 05 00 00
	00 00		 lea	 rax, OFFSET FLAT:$SG159118
  004ce	48 89 84 24 f0
	01 00 00	 mov	 QWORD PTR tv231[rsp], rax
  004d6	eb 0f		 jmp	 SHORT $LN55@gstat2str
$LN54@gstat2str:
  004d8	48 8d 05 00 00
	00 00		 lea	 rax, OFFSET FLAT:$SG159119
  004df	48 89 84 24 f0
	01 00 00	 mov	 QWORD PTR tv231[rsp], rax
$LN55@gstat2str:
  004e7	8b 84 24 40 02
	00 00		 mov	 eax, DWORD PTR mt_gstat$[rsp]
  004ee	25 00 00 00 04	 and	 eax, 67108864		; 04000000H
  004f3	85 c0		 test	 eax, eax
  004f5	74 11		 je	 SHORT $LN56@gstat2str
  004f7	48 8d 05 00 00
	00 00		 lea	 rax, OFFSET FLAT:$SG159120
  004fe	48 89 84 24 f8
	01 00 00	 mov	 QWORD PTR tv235[rsp], rax
  00506	eb 0f		 jmp	 SHORT $LN57@gstat2str
$LN56@gstat2str:
  00508	48 8d 05 00 00
	00 00		 lea	 rax, OFFSET FLAT:$SG159121
  0050f	48 89 84 24 f8
	01 00 00	 mov	 QWORD PTR tv235[rsp], rax
$LN57@gstat2str:
  00517	8b 84 24 40 02
	00 00		 mov	 eax, DWORD PTR mt_gstat$[rsp]
  0051e	25 00 00 00 08	 and	 eax, 134217728		; 08000000H
  00523	85 c0		 test	 eax, eax
  00525	74 11		 je	 SHORT $LN58@gstat2str
  00527	48 8d 05 00 00
	00 00		 lea	 rax, OFFSET FLAT:$SG159122
  0052e	48 89 84 24 00
	02 00 00	 mov	 QWORD PTR tv239[rsp], rax
  00536	eb 0f		 jmp	 SHORT $LN59@gstat2str
$LN58@gstat2str:
  00538	48 8d 05 00 00
	00 00		 lea	 rax, OFFSET FLAT:$SG159123
  0053f	48 89 84 24 00
	02 00 00	 mov	 QWORD PTR tv239[rsp], rax
$LN59@gstat2str:
  00547	8b 84 24 40 02
	00 00		 mov	 eax, DWORD PTR mt_gstat$[rsp]
  0054e	25 00 00 00 10	 and	 eax, 268435456		; 10000000H
  00553	85 c0		 test	 eax, eax
  00555	74 11		 je	 SHORT $LN60@gstat2str
  00557	48 8d 05 00 00
	00 00		 lea	 rax, OFFSET FLAT:$SG159124
  0055e	48 89 84 24 08
	02 00 00	 mov	 QWORD PTR tv243[rsp], rax
  00566	eb 0f		 jmp	 SHORT $LN61@gstat2str
$LN60@gstat2str:
  00568	48 8d 05 00 00
	00 00		 lea	 rax, OFFSET FLAT:$SG159125
  0056f	48 89 84 24 08
	02 00 00	 mov	 QWORD PTR tv243[rsp], rax
$LN61@gstat2str:
  00577	8b 84 24 40 02
	00 00		 mov	 eax, DWORD PTR mt_gstat$[rsp]
  0057e	25 00 00 00 20	 and	 eax, 536870912		; 20000000H
  00583	85 c0		 test	 eax, eax
  00585	74 11		 je	 SHORT $LN62@gstat2str
  00587	48 8d 05 00 00
	00 00		 lea	 rax, OFFSET FLAT:$SG159126
  0058e	48 89 84 24 10
	02 00 00	 mov	 QWORD PTR tv247[rsp], rax
  00596	eb 0f		 jmp	 SHORT $LN63@gstat2str
$LN62@gstat2str:
  00598	48 8d 05 00 00
	00 00		 lea	 rax, OFFSET FLAT:$SG159127
  0059f	48 89 84 24 10
	02 00 00	 mov	 QWORD PTR tv247[rsp], rax
$LN63@gstat2str:
  005a7	8b 84 24 40 02
	00 00		 mov	 eax, DWORD PTR mt_gstat$[rsp]
  005ae	25 00 00 00 40	 and	 eax, 1073741824		; 40000000H
  005b3	85 c0		 test	 eax, eax
  005b5	74 11		 je	 SHORT $LN64@gstat2str
  005b7	48 8d 05 00 00
	00 00		 lea	 rax, OFFSET FLAT:$SG159128
  005be	48 89 84 24 18
	02 00 00	 mov	 QWORD PTR tv251[rsp], rax
  005c6	eb 0f		 jmp	 SHORT $LN65@gstat2str
$LN64@gstat2str:
  005c8	48 8d 05 00 00
	00 00		 lea	 rax, OFFSET FLAT:$SG159129
  005cf	48 89 84 24 18
	02 00 00	 mov	 QWORD PTR tv251[rsp], rax
$LN65@gstat2str:
  005d7	8b 84 24 40 02
	00 00		 mov	 eax, DWORD PTR mt_gstat$[rsp]
  005de	25 00 00 00 80	 and	 eax, -2147483648	; 80000000H
  005e3	85 c0		 test	 eax, eax
  005e5	74 11		 je	 SHORT $LN66@gstat2str
  005e7	48 8d 05 00 00
	00 00		 lea	 rax, OFFSET FLAT:$SG159130
  005ee	48 89 84 24 20
	02 00 00	 mov	 QWORD PTR tv255[rsp], rax
  005f6	eb 0f		 jmp	 SHORT $LN67@gstat2str
$LN66@gstat2str:
  005f8	48 8d 05 00 00
	00 00		 lea	 rax, OFFSET FLAT:$SG159131
  005ff	48 89 84 24 20
	02 00 00	 mov	 QWORD PTR tv255[rsp], rax
$LN67@gstat2str:
  00607	48 8b 84 24 28
	01 00 00	 mov	 rax, QWORD PTR tv67[rsp]
  0060f	48 89 84 24 10
	01 00 00	 mov	 QWORD PTR [rsp+272], rax
  00617	48 8b 84 24 30
	01 00 00	 mov	 rax, QWORD PTR tv71[rsp]
  0061f	48 89 84 24 08
	01 00 00	 mov	 QWORD PTR [rsp+264], rax
  00627	48 8b 84 24 38
	01 00 00	 mov	 rax, QWORD PTR tv75[rsp]
  0062f	48 89 84 24 00
	01 00 00	 mov	 QWORD PTR [rsp+256], rax
  00637	48 8b 84 24 40
	01 00 00	 mov	 rax, QWORD PTR tv79[rsp]
  0063f	48 89 84 24 f8
	00 00 00	 mov	 QWORD PTR [rsp+248], rax
  00647	48 8b 84 24 48
	01 00 00	 mov	 rax, QWORD PTR tv83[rsp]
  0064f	48 89 84 24 f0
	00 00 00	 mov	 QWORD PTR [rsp+240], rax
  00657	48 8b 84 24 50
	01 00 00	 mov	 rax, QWORD PTR tv87[rsp]
  0065f	48 89 84 24 e8
	00 00 00	 mov	 QWORD PTR [rsp+232], rax
  00667	48 8b 84 24 58
	01 00 00	 mov	 rax, QWORD PTR tv91[rsp]
  0066f	48 89 84 24 e0
	00 00 00	 mov	 QWORD PTR [rsp+224], rax
  00677	48 8b 84 24 60
	01 00 00	 mov	 rax, QWORD PTR tv95[rsp]
  0067f	48 89 84 24 d8
	00 00 00	 mov	 QWORD PTR [rsp+216], rax
  00687	48 8b 84 24 68
	01 00 00	 mov	 rax, QWORD PTR tv131[rsp]
  0068f	48 89 84 24 d0
	00 00 00	 mov	 QWORD PTR [rsp+208], rax
  00697	48 8b 84 24 70
	01 00 00	 mov	 rax, QWORD PTR tv135[rsp]
  0069f	48 89 84 24 c8
	00 00 00	 mov	 QWORD PTR [rsp+200], rax
  006a7	48 8b 84 24 78
	01 00 00	 mov	 rax, QWORD PTR tv139[rsp]
  006af	48 89 84 24 c0
	00 00 00	 mov	 QWORD PTR [rsp+192], rax
  006b7	48 8b 84 24 80
	01 00 00	 mov	 rax, QWORD PTR tv143[rsp]
  006bf	48 89 84 24 b8
	00 00 00	 mov	 QWORD PTR [rsp+184], rax
  006c7	48 8b 84 24 88
	01 00 00	 mov	 rax, QWORD PTR tv147[rsp]
  006cf	48 89 84 24 b0
	00 00 00	 mov	 QWORD PTR [rsp+176], rax
  006d7	48 8b 84 24 90
	01 00 00	 mov	 rax, QWORD PTR tv151[rsp]
  006df	48 89 84 24 a8
	00 00 00	 mov	 QWORD PTR [rsp+168], rax
  006e7	48 8b 84 24 98
	01 00 00	 mov	 rax, QWORD PTR tv155[rsp]
  006ef	48 89 84 24 a0
	00 00 00	 mov	 QWORD PTR [rsp+160], rax
  006f7	48 8b 84 24 a0
	01 00 00	 mov	 rax, QWORD PTR tv159[rsp]
  006ff	48 89 84 24 98
	00 00 00	 mov	 QWORD PTR [rsp+152], rax
  00707	48 8b 84 24 a8
	01 00 00	 mov	 rax, QWORD PTR tv163[rsp]
  0070f	48 89 84 24 90
	00 00 00	 mov	 QWORD PTR [rsp+144], rax
  00717	48 8b 84 24 b0
	01 00 00	 mov	 rax, QWORD PTR tv167[rsp]
  0071f	48 89 84 24 88
	00 00 00	 mov	 QWORD PTR [rsp+136], rax
  00727	48 8b 84 24 b8
	01 00 00	 mov	 rax, QWORD PTR tv171[rsp]
  0072f	48 89 84 24 80
	00 00 00	 mov	 QWORD PTR [rsp+128], rax
  00737	48 8b 84 24 c0
	01 00 00	 mov	 rax, QWORD PTR tv175[rsp]
  0073f	48 89 44 24 78	 mov	 QWORD PTR [rsp+120], rax
  00744	48 8b 84 24 c8
	01 00 00	 mov	 rax, QWORD PTR tv179[rsp]
  0074c	48 89 44 24 70	 mov	 QWORD PTR [rsp+112], rax
  00751	48 8b 84 24 d0
	01 00 00	 mov	 rax, QWORD PTR tv183[rsp]
  00759	48 89 44 24 68	 mov	 QWORD PTR [rsp+104], rax
  0075e	48 8b 84 24 d8
	01 00 00	 mov	 rax, QWORD PTR tv187[rsp]
  00766	48 89 44 24 60	 mov	 QWORD PTR [rsp+96], rax
  0076b	48 8b 84 24 e0
	01 00 00	 mov	 rax, QWORD PTR tv191[rsp]
  00773	48 89 44 24 58	 mov	 QWORD PTR [rsp+88], rax
  00778	48 8b 84 24 e8
	01 00 00	 mov	 rax, QWORD PTR tv227[rsp]
  00780	48 89 44 24 50	 mov	 QWORD PTR [rsp+80], rax
  00785	48 8b 84 24 f0
	01 00 00	 mov	 rax, QWORD PTR tv231[rsp]
  0078d	48 89 44 24 48	 mov	 QWORD PTR [rsp+72], rax
  00792	48 8b 84 24 f8
	01 00 00	 mov	 rax, QWORD PTR tv235[rsp]
  0079a	48 89 44 24 40	 mov	 QWORD PTR [rsp+64], rax
  0079f	48 8b 84 24 00
	02 00 00	 mov	 rax, QWORD PTR tv239[rsp]
  007a7	48 89 44 24 38	 mov	 QWORD PTR [rsp+56], rax
  007ac	48 8b 84 24 08
	02 00 00	 mov	 rax, QWORD PTR tv243[rsp]
  007b4	48 89 44 24 30	 mov	 QWORD PTR [rsp+48], rax
  007b9	48 8b 84 24 10
	02 00 00	 mov	 rax, QWORD PTR tv247[rsp]
  007c1	48 89 44 24 28	 mov	 QWORD PTR [rsp+40], rax
  007c6	48 8b 84 24 18
	02 00 00	 mov	 rax, QWORD PTR tv251[rsp]
  007ce	48 89 44 24 20	 mov	 QWORD PTR [rsp+32], rax
  007d3	4c 8b 8c 24 20
	02 00 00	 mov	 r9, QWORD PTR tv255[rsp]
  007db	4c 8d 05 00 00
	00 00		 lea	 r8, OFFSET FLAT:$SG159132
  007e2	48 8b 94 24 50
	02 00 00	 mov	 rdx, QWORD PTR bufsz$[rsp]
  007ea	48 8b 8c 24 48
	02 00 00	 mov	 rcx, QWORD PTR buffer$[rsp]
  007f2	ff 15 00 00 00
	00		 call	 QWORD PTR __imp_w32_snprintf
  007f8	89 84 24 20 01
	00 00		 mov	 DWORD PTR rc$[rsp], eax

; 47   : 
; 48   :         "%s%s%s%s%s%s%s%s%s%s%s%s%s%s%s%s%s%s%s%s%s%s%s%s%s%s%s%s%s%s%s%s"
; 49   : 
; 50   :         , GMT_STR( EOF )
; 51   :         , GMT_STR( BOT )
; 52   :         , GMT_STR( EOT )
; 53   :         , GMT_STR( SM )
; 54   :         , GMT_STR( EOD )
; 55   :         , GMT_STR( WR_PROT )
; 56   :         , GMT_UNDEF_STR( 0x02000000 )
; 57   :         , GMT_STR( ONLINE )
; 58   :         , GMT_STR( D_6250 )
; 59   :         , GMT_STR( D_1600 )
; 60   :         , GMT_STR( D_800 )
; 61   :         , GMT_STR( PADDING )
; 62   :         , GMT_STR( HW_ECC )
; 63   :         , GMT_STR( DR_OPEN )
; 64   :         , GMT_UNDEF_STR( 0x00020000 )
; 65   :         , GMT_STR( IM_REP_EN )
; 66   :         , GMT_STR( CLN )
; 67   :         , GMT_UNDEF_STR( 0x00004000 )
; 68   :         , GMT_UNDEF_STR( 0x00002000 )
; 69   :         , GMT_UNDEF_STR( 0x00001000 )
; 70   :         , GMT_UNDEF_STR( 0x00000800 )
; 71   :         , GMT_UNDEF_STR( 0x00000400 )
; 72   :         , GMT_UNDEF_STR( 0x00000200 )
; 73   :         , GMT_UNDEF_STR( 0x00000100 )
; 74   :         , GMT_UNDEF_STR( 0x00000080 )
; 75   :         , GMT_UNDEF_STR( 0x00000040 )
; 76   :         , GMT_UNDEF_STR( 0x00000020 )
; 77   :         , GMT_UNDEF_STR( 0x00000010 )
; 78   :         , GMT_UNDEF_STR( 0x00000008 )
; 79   :         , GMT_UNDEF_STR( 0x00000004 )
; 80   :         , GMT_UNDEF_STR( 0x00000002 )
; 81   :         , GMT_UNDEF_STR( 0x00000001 )
; 82   :     );
; 83   : 
; 84   :     if (rc > 0 && (size_t) rc < bufsz)

  007ff	83 bc 24 20 01
	00 00 00	 cmp	 DWORD PTR rc$[rsp], 0
  00807	7e 29		 jle	 SHORT $LN2@gstat2str
  00809	48 63 84 24 20
	01 00 00	 movsxd	 rax, DWORD PTR rc$[rsp]
  00811	48 3b 84 24 50
	02 00 00	 cmp	 rax, QWORD PTR bufsz$[rsp]
  00819	73 17		 jae	 SHORT $LN2@gstat2str

; 85   :         buffer[ rc-1 ] = 0;     /* (remove trailing blank) */

  0081b	8b 84 24 20 01
	00 00		 mov	 eax, DWORD PTR rc$[rsp]
  00822	ff c8		 dec	 eax
  00824	48 98		 cdqe
  00826	48 8b 8c 24 48
	02 00 00	 mov	 rcx, QWORD PTR buffer$[rsp]
  0082e	c6 04 01 00	 mov	 BYTE PTR [rcx+rax], 0
$LN2@gstat2str:

; 86   : 
; 87   :     return buffer;

  00832	48 8b 84 24 48
	02 00 00	 mov	 rax, QWORD PTR buffer$[rsp]

; 88   : }

  0083a	48 81 c4 38 02
	00 00		 add	 rsp, 568		; 00000238H
  00841	c3		 ret	 0
gstat2str ENDP
_TEXT	ENDS
END
