; Listing generated by Microsoft (R) Optimizing Compiler Version 19.34.31937.0 

include listing.inc

INCLUDELIB MSVCRTD
INCLUDELIB OLDNAMES

PUBLIC	s390_scpinfo_ifm
PUBLIC	s390_scpinfo_cfg
PUBLIC	s390_scpinfo_cfg11
PUBLIC	s390_scpinfo_cpf
PUBLIC	z900_scpinfo_ifm
PUBLIC	z900_scpinfo_cfg
PUBLIC	z900_scpinfo_cfg11
PUBLIC	z900_scpinfo_cpf
_DATA	SEGMENT
s390_scpinfo_ifm DB 0c4H
	DB	04H
	DB	08H
	DB	040H
	DB	00H
	DB	00H
	DB	00H
	DB	00H
s390_scpinfo_cfg DB 02dH
	DB	00H
	DB	03H
	DB	0dfH
	DB	0f9H
	DB	00H
s390_scpinfo_cfg11 DB 01H
z900_scpinfo_cfg11 DB 05H
s390_scpinfo_cpf DB 0deH
	DB	067H
	DB	04H
	DB	0c1H
	DB	080H
	DB	040H
	DB	00H
	DB	00H
	DB	00H
	DB	00H
	DB	00H
	DB	00H
	ORG $+4
z900_scpinfo_ifm DB 0c4H
	DB	04H
	DB	08H
	DB	040H
	DB	00H
	DB	00H
	DB	00H
	DB	00H
z900_scpinfo_cfg DB 02cH
	DB	00H
	DB	03H
	DB	0dfH
	DB	0f9H
	DB	08H
	ORG $+2
z900_scpinfo_cpf DB 05eH
	DB	067H
	DB	04H
	DB	0c1H
	DB	080H
	DB	040H
	DB	00H
	DB	00H
	DB	00H
	DB	00H
	DB	00H
	DB	00H
	ORG $+4
$SG178944 DB	'0123456789:;<=>?', 00H
	ORG $+15
$SG178945 DB	'@ABCDEFGHIJKLMNOPQRSTUVWXYZ[\]^_`abcdefghijklmnopqrstuvw'
	DB	'xyz{|}~', 00H
_DATA	ENDS
CONST	SEGMENT
CKD_ENDTRK DB	0ffH
	DB	0ffH
	DB	0ffH
	DB	0ffH
	DB	0ffH
	DB	0ffH
	DB	0ffH
	DB	0ffH
s390_sclp_recv_mask DD 042b00030H
s390_sclp_send_mask DD 083900039H
z900_sclp_recv_mask DD 042b00030H
z900_sclp_send_mask DD 083900039H
?const1_template@?1??sclp_opcmd_event@@9@9 DB 013H	; `sclp_opcmd_event'::`2'::const1_template
	DB	010H
	DB	00H
	DB	025H
	DB	013H
	DB	011H
	DB	0eH
	DB	081H
	DB	03H
	DB	01H
	DB	00H
	DB	03H
	DB	02H
	DB	00H
	DB	06H
	DB	03H
	DB	00H
	DB	00H
	DB	00H
	DB	00H
	DB	0eH
	DB	082H
	DB	03H
	DB	01H
	DB	00H
	DB	03H
	DB	02H
	DB	00H
	DB	06H
	DB	03H
	DB	00H
	DB	00H
	DB	00H
	DB	00H
	DB	05H
	DB	090H
	DB	00H
	DB	00H
	DB	00H
	DB	00H
	DB	0cH
	DB	015H
	DB	049H
	DB	08H
	DB	01H
	DB	03H
	DB	01H
	DB	00H
	DB	03H
	DB	02H
	DB	00H
?const4_template@?1??sclp_opcmd_event@@9@9 DB 031H	; `sclp_opcmd_event'::`2'::const4_template
?const3_template@?1??sclp_opcmd_event@@9@9 DB 013H	; `sclp_opcmd_event'::`2'::const3_template
	DB	020H
?const5_template@?1??sclp_opcmd_event@@9@9 DB 030H	; `sclp_opcmd_event'::`2'::const5_template
	ORG $+1
?const2_template@?1??sclp_opcmd_event@@9@9 DB 012H	; `sclp_opcmd_event'::`2'::const2_template
	DB	012H
	DB	00H
	DB	012H
	DB	015H
	DB	04dH
	DB	0eH
	DB	06H
	DB	06H
	DB	010H
	DB	00H
	DB	03H
	DB	00H
	DB	00H
	DB	06H
	DB	060H
	DB	0d6H
	DB	0c3H
	DB	0c6H
	DB	0c1H
	DB	00H
	DB	04H
	DB	080H
	DB	070H
CONST	ENDS
PUBLIC	__local_stdio_printf_options
PUBLIC	_vsnprintf_s_l
PUBLIC	_vsnprintf_s
PUBLIC	fetch_hw_noswap
PUBLIC	store_hw_noswap
PUBLIC	fetch_fw_noswap
PUBLIC	store_fw_noswap
PUBLIC	fetch_dw_noswap
PUBLIC	store_dw_noswap
PUBLIC	scp_command
PUBLIC	can_signal_quiesce
PUBLIC	can_send_command
PUBLIC	signal_quiesce
PUBLIC	sclp_attention
PUBLIC	sclp_reset
PUBLIC	sclp_sysg_attention
PUBLIC	servc_hsuspend
PUBLIC	servc_hresume
PUBLIC	_get_storekey_ptr
PUBLIC	_get_storekey1_ptr
PUBLIC	_get_storekey2_ptr
PUBLIC	s390_service_call
PUBLIC	s390__or_storage_key
PUBLIC	s390_or_4K_storage_key
PUBLIC	s390_or_storage_key
PUBLIC	z900_service_call
PUBLIC	z900__or_storage_key
PUBLIC	z900_or_4K_storage_key
PUBLIC	z900_or_storage_key
PUBLIC	z900_is_per3_event_suppressed
PUBLIC	z900_per3_zero
PUBLIC	z900_per3_zero_check
EXTRN	__report_rangecheckfailure:PROC
EXTRN	__imp_isprint:PROC
EXTRN	__imp__errno:PROC
EXTRN	memchr:PROC
EXTRN	memmove:PROC
EXTRN	strlen:PROC
EXTRN	__imp_strncmp:PROC
EXTRN	__imp_strpbrk:PROC
EXTRN	__imp_IsDebuggerPresent:PROC
EXTRN	__imp_OutputDebugStringA:PROC
EXTRN	__imp_free:PROC
EXTRN	__imp_malloc:PROC
EXTRN	_byteswap_ushort:PROC
EXTRN	_byteswap_ulong:PROC
EXTRN	_byteswap_uint64:PROC
EXTRN	longjmp:PROC
EXTRN	__imp___acrt_iob_func:PROC
EXTRN	__imp_fread:PROC
EXTRN	__imp___stdio_common_vsnprintf_s:PROC
EXTRN	__imp_hthread_obtain_lock:PROC
EXTRN	__imp_hthread_release_lock:PROC
EXTRN	__imp_hthread_signal_condition:PROC
EXTRN	__imp_hthread_wait_condition:PROC
EXTRN	__imp_hthread_create_thread:PROC
EXTRN	__imp_ptt_pthread_trace:PROC
EXTRN	__imp_set_symbol:PROC
EXTRN	__imp_strlcpy:PROC
EXTRN	__imp_rtrim:PROC
EXTRN	__imp_w32_strerror:PROC
EXTRN	__imp_sched_yield:PROC
EXTRN	__imp_w32_fwrite:PROC
EXTRN	__imp_w32_snprintf:PROC
EXTRN	__imp_host_to_guest:PROC
EXTRN	__imp_guest_to_host:PROC
EXTRN	configure_cpu:PROC
EXTRN	deconfigure_cpu:PROC
EXTRN	losc_check:PROC
EXTRN	get_loadparm:PROC
EXTRN	set_sysname:PROC
EXTRN	set_systype:PROC
EXTRN	set_sysplex:PROC
EXTRN	get_mpfactors:PROC
EXTRN	z900_abort_transaction:PROC
EXTRN	s390_program_interrupt:PROC
EXTRN	z900_program_interrupt:PROC
EXTRN	__imp_fwritemsg:PROC
EXTRN	__imp_logmsg:PROC
EXTRN	s390_checkstop_all_cpus:PROC
EXTRN	s390_sclp_scedio_request:PROC
EXTRN	s390_sclp_scedio_event:PROC
EXTRN	s390_sclp_hwl_request:PROC
EXTRN	s390_sclp_hwl_event:PROC
EXTRN	s390_sclp_sdias_request:PROC
EXTRN	s390_sclp_sdias_event:PROC
EXTRN	z900_checkstop_all_cpus:PROC
EXTRN	z900_sclp_scedio_request:PROC
EXTRN	z900_sclp_scedio_event:PROC
EXTRN	z900_sclp_hwl_request:PROC
EXTRN	z900_sclp_hwl_event:PROC
EXTRN	z900_sclp_sdias_request:PROC
EXTRN	z900_sclp_sdias_event:PROC
EXTRN	__GSHandlerCheck:PROC
EXTRN	__chkstk:PROC
EXTRN	__security_check_cookie:PROC
EXTRN	__imp_pttclass:QWORD
EXTRN	__imp_sysblk:BYTE
EXTRN	__imp_debug_sclp_unknown_command:QWORD
EXTRN	__imp_debug_sclp_unknown_event:QWORD
EXTRN	__imp_debug_sclp_unknown_event_mask:QWORD
EXTRN	__imp_debug_sclp_event_data:QWORD
EXTRN	__ImageBase:BYTE
EXTRN	__security_cookie:QWORD
_DATA	SEGMENT
COMM	?_OptionsStorage@?1??__local_stdio_printf_options@@9@9:QWORD							; `__local_stdio_printf_options'::`2'::_OptionsStorage
_DATA	ENDS
_BSS	SEGMENT
?once@?1??gh534_fix@@9@9 DB 01H DUP (?)			; `gh534_fix'::`2'::once
	ALIGN	4

?ignore@?1??gh534_fix@@9@9 DB 01H DUP (?)		; `gh534_fix'::`2'::ignore
	ALIGN	4

?ESC@?1??gh534_fix@@9@9 DB 01H DUP (?)			; `gh534_fix'::`2'::ESC
	ALIGN	4

?prmlen@?1??gh534_fix@@9@9 DD 01H DUP (?)		; `gh534_fix'::`2'::prmlen
?subsub@?1??gh534_fix@@9@9 DB 03H DUP (?)		; `gh534_fix'::`2'::subsub
	ALIGN	4

servc_cp_recv_mask DD 01H DUP (?)
servc_cp_send_mask DD 01H DUP (?)
servc_attn_pending DD 01H DUP (?)
servc_scpcmdstr DB 07cH DUP (?)
servc_signal_quiesce_count DW 01H DUP (?)
	ALIGN	4

servc_signal_quiesce_unit DB 01H DUP (?)
	ALIGN	4

servc_sysg_cmdcode DB 01H DUP (?)
	ALIGN	4

$SG179079 DB	01H DUP (?)
	ALIGN	4

?s390x_linux_detected@?CE@??s390_service_call@@9@9 DB 01H DUP (?) ; `s390_service_call'::`36'::s390x_linux_detected
	ALIGN	4

?is_s390x_linux@?CE@??s390_service_call@@9@9 DB 01H DUP (?) ; `s390_service_call'::`36'::is_s390x_linux
	ALIGN	4

?s390x_linux_detected@?CG@??z900_service_call@@9@9 DB 01H DUP (?) ; `z900_service_call'::`38'::s390x_linux_detected
	ALIGN	4

?is_s390x_linux@?CG@??z900_service_call@@9@9 DB 01H DUP (?) ; `z900_service_call'::`38'::is_s390x_linux
_BSS	ENDS
;	COMDAT pdata
pdata	SEGMENT
$pdata$_vsnprintf_s_l DD imagerel $LN5
	DD	imagerel $LN5+127
	DD	imagerel $unwind$_vsnprintf_s_l
pdata	ENDS
;	COMDAT pdata
pdata	SEGMENT
$pdata$_vsnprintf_s DD imagerel $LN3
	DD	imagerel $LN3+73
	DD	imagerel $unwind$_vsnprintf_s
pdata	ENDS
pdata	SEGMENT
$pdata$DebuggerTrace DD imagerel DebuggerTrace
	DD	imagerel DebuggerTrace+247
	DD	imagerel $unwind$DebuggerTrace
pdata	ENDS
;	COMDAT pdata
pdata	SEGMENT
$pdata$fetch_hw_noswap DD imagerel $LN3
	DD	imagerel $LN3+30
	DD	imagerel $unwind$fetch_hw_noswap
pdata	ENDS
;	COMDAT pdata
pdata	SEGMENT
$pdata$fetch_fw_noswap DD imagerel $LN3
	DD	imagerel $LN3+27
	DD	imagerel $unwind$fetch_fw_noswap
pdata	ENDS
;	COMDAT pdata
pdata	SEGMENT
$pdata$fetch_dw_noswap DD imagerel $LN3
	DD	imagerel $LN3+30
	DD	imagerel $unwind$fetch_dw_noswap
pdata	ENDS
pdata	SEGMENT
$pdata$scp_command DD imagerel $LN13
	DD	imagerel $LN13+665
	DD	imagerel $unwind$scp_command
$pdata$signal_quiesce DD imagerel $LN4
	DD	imagerel $LN4+183
	DD	imagerel $unwind$signal_quiesce
$pdata$sclp_attention DD imagerel $LN15
	DD	imagerel $LN15+444
	DD	imagerel $unwind$sclp_attention
$pdata$sclp_sysg_attention DD imagerel $LN3
	DD	imagerel $LN3+46
	DD	imagerel $unwind$sclp_sysg_attention
$pdata$servc_hsuspend DD imagerel $LN31
	DD	imagerel $LN31+358
	DD	imagerel $unwind$servc_hsuspend
$pdata$servc_hresume DD imagerel $LN59
	DD	imagerel $LN59+636
	DD	imagerel $unwind$servc_hresume
$pdata$wakeup_cpu DD imagerel wakeup_cpu
	DD	imagerel wakeup_cpu+44
	DD	imagerel $unwind$wakeup_cpu
$pdata$wakeup_cpus_mask DD imagerel wakeup_cpus_mask
	DD	imagerel wakeup_cpus_mask+106
	DD	imagerel $unwind$wakeup_cpus_mask
$pdata$Interrupt_Lock_Obtained DD imagerel Interrupt_Lock_Obtained
	DD	imagerel Interrupt_Lock_Obtained+269
	DD	imagerel $unwind$Interrupt_Lock_Obtained
$pdata$Obtain_Interrupt_Lock DD imagerel Obtain_Interrupt_Lock
	DD	imagerel Obtain_Interrupt_Lock+88
	DD	imagerel $unwind$Obtain_Interrupt_Lock
$pdata$Release_Interrupt_Lock DD imagerel Release_Interrupt_Lock
	DD	imagerel Release_Interrupt_Lock+71
	DD	imagerel $unwind$Release_Interrupt_Lock
pdata	ENDS
;	COMDAT pdata
pdata	SEGMENT
$pdata$_get_storekey_ptr DD imagerel $LN5
	DD	imagerel $LN5+104
	DD	imagerel $unwind$_get_storekey_ptr
pdata	ENDS
pdata	SEGMENT
$pdata$sr_write_hdr DD imagerel sr_write_hdr
	DD	imagerel sr_write_hdr+199
	DD	imagerel $unwind$sr_write_hdr
$pdata$sr_write_value DD imagerel sr_write_value
	DD	imagerel sr_write_value+378
	DD	imagerel $unwind$sr_write_value
$pdata$sr_write_string DD imagerel sr_write_string
	DD	imagerel sr_write_string+190
	DD	imagerel $unwind$sr_write_string
$pdata$sr_read_hdr DD imagerel sr_read_hdr
	DD	imagerel sr_read_hdr+221
	DD	imagerel $unwind$sr_read_hdr
$pdata$sr_read_value DD imagerel sr_read_value
	DD	imagerel sr_read_value+588
	DD	imagerel $unwind$sr_read_value
$pdata$sr_read_string DD imagerel sr_read_string
	DD	imagerel sr_read_string+143
	DD	imagerel $unwind$sr_read_string
$pdata$sr_read_skip DD imagerel sr_read_skip
	DD	imagerel sr_read_skip+248
	DD	imagerel $unwind$sr_read_skip
$pdata$sr_write_error_ DD imagerel sr_write_error_
	DD	imagerel sr_write_error_+121
	DD	imagerel $unwind$sr_write_error_
$pdata$sr_read_error_ DD imagerel sr_read_error_
	DD	imagerel sr_read_error_+121
	DD	imagerel $unwind$sr_read_error_
$pdata$sr_value_error_ DD imagerel sr_value_error_
	DD	imagerel sr_value_error_+80
	DD	imagerel $unwind$sr_value_error_
$pdata$sr_string_error_ DD imagerel sr_string_error_
	DD	imagerel sr_string_error_+80
	DD	imagerel $unwind$sr_string_error_
$pdata$gh534_fix DD imagerel gh534_fix
	DD	imagerel gh534_fix+1228
	DD	imagerel $unwind$gh534_fix
$pdata$sclp_attn_thread DD imagerel sclp_attn_thread
	DD	imagerel sclp_attn_thread+136
	DD	imagerel $unwind$sclp_attn_thread
$pdata$sclp_attn_async DD imagerel sclp_attn_async
	DD	imagerel sclp_attn_async+250
	DD	imagerel $unwind$sclp_attn_async
$pdata$sclp_attn_pending DD imagerel sclp_attn_pending
	DD	imagerel sclp_attn_pending+96
	DD	imagerel $unwind$sclp_attn_pending
$pdata$sclp_opcmd_event DD imagerel sclp_opcmd_event
	DD	imagerel sclp_opcmd_event+622
	DD	imagerel $unwind$sclp_opcmd_event
$pdata$sclp_cpident DD imagerel sclp_cpident
	DD	imagerel sclp_cpident+1023
	DD	imagerel $unwind$sclp_cpident
$pdata$sclp_sigq_event DD imagerel sclp_sigq_event
	DD	imagerel sclp_sigq_event+312
	DD	imagerel $unwind$sclp_sigq_event
$pdata$sclp_sysg_write DD imagerel sclp_sysg_write
	DD	imagerel sclp_sysg_write+655
	DD	imagerel $unwind$sclp_sysg_write
$pdata$sclp_sysg_poll DD imagerel sclp_sysg_poll
	DD	imagerel sclp_sysg_poll+845
	DD	imagerel $unwind$sclp_sysg_poll
$pdata$s390_service_call DD imagerel $LN176
	DD	imagerel $LN176+8403
	DD	imagerel $unwind$s390_service_call
pdata	ENDS
;	COMDAT pdata
pdata	SEGMENT
$pdata$s390__or_storage_key DD imagerel $LN8
	DD	imagerel $LN8+159
	DD	imagerel $unwind$s390__or_storage_key
pdata	ENDS
;	COMDAT pdata
pdata	SEGMENT
$pdata$s390_or_4K_storage_key DD imagerel $LN3
	DD	imagerel $LN3+42
	DD	imagerel $unwind$s390_or_4K_storage_key
pdata	ENDS
;	COMDAT pdata
pdata	SEGMENT
$pdata$s390_or_storage_key DD imagerel $LN3
	DD	imagerel $LN3+33
	DD	imagerel $unwind$s390_or_storage_key
pdata	ENDS
pdata	SEGMENT
$pdata$z900_service_call DD imagerel $LN180
	DD	imagerel $LN180+8547
	DD	imagerel $unwind$z900_service_call
pdata	ENDS
;	COMDAT pdata
pdata	SEGMENT
$pdata$z900__or_storage_key DD imagerel $LN8
	DD	imagerel $LN8+159
	DD	imagerel $unwind$z900__or_storage_key
pdata	ENDS
;	COMDAT pdata
pdata	SEGMENT
$pdata$z900_or_4K_storage_key DD imagerel $LN3
	DD	imagerel $LN3+42
	DD	imagerel $unwind$z900_or_4K_storage_key
pdata	ENDS
;	COMDAT pdata
pdata	SEGMENT
$pdata$z900_or_storage_key DD imagerel $LN3
	DD	imagerel $LN3+33
	DD	imagerel $unwind$z900_or_storage_key
pdata	ENDS
;	COMDAT pdata
pdata	SEGMENT
$pdata$z900_per3_zero DD imagerel $LN12
	DD	imagerel $LN12+215
	DD	imagerel $unwind$z900_per3_zero
pdata	ENDS
;	COMDAT pdata
pdata	SEGMENT
$pdata$z900_per3_zero_check DD imagerel $LN6
	DD	imagerel $LN6+101
	DD	imagerel $unwind$z900_per3_zero_check
pdata	ENDS
_DATA	SEGMENT
$SG178685 DB	'SR: sr_write_hdr:    key=0x%8.8x, len=0x%8.8x', 0aH, 00H
	ORG $+1
$SG178687 DB	'SR: sr_write_hdr:    key=0x%8.8x, len=0x%8.8x', 0aH, 00H
	ORG $+1
$SG178702 DB	'SR: sr_write_string: key=0x%8.8x', 0aH, 00H
	ORG $+2
$SG178879 DB	'E', 00H
	ORG $+2
$SG178704 DB	'SR: sr_write_string: key=0x%8.8x', 0aH, 00H
	ORG $+6
$SG178751 DB	'SR: sr_write_value:  key=0x%8.8x, len=0x%8.8x, val=0x%16'
	DB	'.16llx', 0aH, 00H
$SG178753 DB	'SR: sr_write_value:  key=0x%8.8x, len=0x%8.8x, val=0x%16'
	DB	'.16llx', 0aH, 00H
$SG178773 DB	'SR: sr_read_hdr:   key=0x%8.8x, len=0x%8.8x', 0aH, 00H
	ORG $+3
$SG178775 DB	'SR: sr_read_hdr:   key=0x%8.8x, len=0x%8.8x', 0aH, 00H
	ORG $+3
$SG178790 DB	'SR: sr_read_skip:                  len=0x%8.8x', 0aH, 00H
$SG178792 DB	'SR: sr_read_skip:                  len=0x%8.8x', 0aH, 00H
$SG178805 DB	'SR: sr_read_string:                len=0x%8.8x', 0aH, 00H
$SG178807 DB	'SR: sr_read_string:                len=0x%8.8x', 0aH, 00H
$SG178860 DB	'SR: sr_read_value:              suslen=0x%8.8x, reslen=0'
	DB	'x%8.8x,', 0aH, 00H
	ORG $+7
$SG178870 DB	'                           val=0x%16.16llx', 0aH, 00H
$SG178884 DB	'read()', 00H
	ORG $+5
$SG178862 DB	'SR: sr_read_value:              suslen=0x%8.8x, reslen=0'
	DB	'x%8.8x,', 0aH, 00H
	ORG $+3
$SG178885 DB	'E', 00H
	ORG $+2
$SG178872 DB	'                           val=0x%16.16llx', 0aH, 00H
$SG178896 DB	'E', 00H
	ORG $+2
$SG178878 DB	'write()', 00H
$SG178880 DB	'HHC02001%s SR: error in function %s: %s', 0aH, 00H
	ORG $+3
$SG178901 DB	'E', 00H
	ORG $+2
$SG178881 DB	'sr_write_error_', 00H
$SG178882 DB	'C:\papa\MyGit\hyperion-zvector\sr.h', 00H
$SG178948 DB	0aH, 00H
	ORG $+2
$SG178886 DB	'HHC02001%s SR: error in function %s: %s', 0aH, 00H
	ORG $+3
$SG178966 DB	' ', 09H, 0aH, 0bH, 0cH, 0dH, 00H
	ORG $+1
$SG178967 DB	'%s', 0aH, 00H
$SG178887 DB	'sr_read_error_', 00H
	ORG $+1
$SG178888 DB	'C:\papa\MyGit\hyperion-zvector\sr.h', 00H
$SG179036 DB	'E', 00H
	ORG $+2
$SG178897 DB	'HHC02020%s SR: value error, incorrect length', 0aH, 00H
	ORG $+2
$SG178898 DB	'sr_value_error_', 00H
$SG178899 DB	'C:\papa\MyGit\hyperion-zvector\sr.h', 00H
$SG179061 DB	'E', 00H
	ORG $+2
$SG178902 DB	'HHC02021%s SR: string error, incorrect length', 0aH, 00H
	ORG $+1
$SG178903 DB	'sr_string_error_', 00H
	ORG $+3
$SG179067 DB	'E', 00H
	ORG $+2
$SG178904 DB	'C:\papa\MyGit\hyperion-zvector\sr.h', 00H
$SG179072 DB	'E', 00H
	ORG $+2
?parms@?1??gh534_fix@@9@9 DQ FLAT:$SG178944		; `gh534_fix'::`2'::parms
?final@?1??gh534_fix@@9@9 DQ FLAT:$SG178945		; `gh534_fix'::`2'::final
$SG178949 DB	'gh534_fix', 00H
	ORG $+2
$SG179080 DB	'I', 00H
	ORG $+2
$SG178950 DB	'service.c', 00H
	ORG $+2
$SG179158 DB	'I', 00H
	ORG $+2
$SG178962 DB	'        ', 00H
	ORG $+3
$SG179178 DB	'E', 00H
	ORG $+2
$SG178968 DB	'gh534_fix', 00H
	ORG $+2
$SG179242 DB	'*SERVC', 00H
	ORG $+1
$SG189742 DB	'W', 00H
	ORG $+2
$SG178969 DB	'service.c', 00H
	ORG $+2
$SG179248 DB	'*SERVC', 00H
	ORG $+1
$SG189780 DB	'W', 00H
	ORG $+2
$SG179002 DB	'service.c:308', 00H
	ORG $+2
$SG179018 DB	'service.c:318', 00H
	ORG $+2
$SG179019 DB	'service.c:327', 00H
	ORG $+2
$SG179020 DB	'service.c:331', 00H
	ORG $+2
$SG179021 DB	'service.c:337', 00H
	ORG $+2
$SG179033 DB	'service.c:357', 00H
	ORG $+2
$SG179034 DB	'attn_thread', 00H
$SG189789 DB	'%s', 0aH, 00H
$SG179037 DB	'HHC00102%s Error in function create_thread(): %s', 0aH, 00H
	ORG $+2
$SG179300 DB	'*SERVC', 00H
	ORG $+1
$SG189828 DB	'I', 00H
	ORG $+2
$SG179038 DB	'sclp_attn_async', 00H
$SG179039 DB	'service.c', 00H
	ORG $+2
$SG179304 DB	'*SERVC', 00H
	ORG $+1
$SG189833 DB	'I', 00H
	ORG $+2
$SG179060 DB	'priority commands', 00H
	ORG $+2
$SG189800 DB	'*SERVC', 00H
	ORG $+1
$SG203018 DB	'W', 00H
	ORG $+2
$SG179062 DB	'HHC00002%s SCLP console not receiving %s', 0aH, 00H
	ORG $+2
$SG189813 DB	'*SERVC', 00H
	ORG $+1
$SG203056 DB	'W', 00H
	ORG $+2
$SG179063 DB	'scp_command', 00H
$SG203065 DB	'%s', 0aH, 00H
$SG179064 DB	'service.c', 00H
	ORG $+2
$SG189827 DB	'active', 00H
	ORG $+1
$SG203104 DB	'I', 00H
	ORG $+2
$SG179066 DB	'operator commands', 00H
	ORG $+2
$SG189849 DB	'*SERVC', 00H
	ORG $+1
$SG203109 DB	'I', 00H
	ORG $+2
$SG179068 DB	'HHC00002%s SCLP console not receiving %s', 0aH, 00H
	ORG $+2
$SG203076 DB	'*SERVC', 00H
	ORG $+5
$SG179069 DB	'scp_command', 00H
	ORG $+4
$SG179070 DB	'service.c', 00H
	ORG $+6
$SG179073 DB	'HHC00003%s Empty SCP command issued', 0aH, 00H
	ORG $+3
$SG179074 DB	'scp_command', 00H
	ORG $+4
$SG179075 DB	'service.c', 00H
	ORG $+6
$SG179077 DB	'(suppressed)', 00H
	ORG $+3
$SG179078 DB	'priority ', 00H
	ORG $+6
$SG179081 DB	'HHC00160%s SCP %scommand: %s', 0aH, 00H
	ORG $+2
$SG179082 DB	'scp_command', 00H
	ORG $+4
$SG179083 DB	'service.c', 00H
	ORG $+6
$SG179084 DB	'service.c:434', 00H
	ORG $+2
$SG179085 DB	'service.c:443', 00H
	ORG $+2
$SG179162 DB	'%llX', 00H
	ORG $+3
$SG179159 DB	'HHC00004%s Control program identification: type %s, name'
	DB	' %s, sysplex %s, level %llX', 0aH, 00H
	ORG $+3
$SG179160 DB	'sclp_cpident', 00H
	ORG $+3
$SG179161 DB	'service.c', 00H
	ORG $+6
$SG179163 DB	'SYSTYPE', 00H
$SG179164 DB	'SYSNAME', 00H
$SG179165 DB	'SYSPLEX', 00H
$SG179166 DB	'SYSLEVEL', 00H
	ORG $+7
$SG179177 DB	'quiesce signals', 00H
$SG179179 DB	'HHC00002%s SCLP console not receiving %s', 0aH, 00H
	ORG $+6
$SG179180 DB	'signal_quiesce', 00H
	ORG $+1
$SG179181 DB	'service.c', 00H
	ORG $+6
$SG179182 DB	'service.c:686', 00H
	ORG $+2
$SG179183 DB	'service.c:694', 00H
	ORG $+2
$SG179241 DB	'service.c:786', 00H
	ORG $+2
$SG179247 DB	'service.c:829', 00H
	ORG $+2
$SG179299 DB	'service.c:904', 00H
	ORG $+2
$SG179303 DB	'service.c:915', 00H
	ORG $+2
$SG179309 DB	'service.c:971', 00H
	ORG $+2
$SG179310 DB	'service.c:975', 00H
	ORG $+2
$SG189722 DB	'C:\papa\MyGit\hyperion-zvector\service.c:1477', 00H
	ORG $+2
$SG189723 DB	'SERVC', 00H
	ORG $+2
$SG189734 DB	'C:\papa\MyGit\hyperion-zvector\service.c:1536', 00H
	ORG $+2
$SG189736 DB	'C:\papa\MyGit\hyperion-zvector\service.c:1542', 00H
	ORG $+2
$SG189744 DB	's390_service_call', 00H
	ORG $+6
$SG189743 DB	'HHC00005%s The configuration has been placed into a syst'
	DB	'em check-stop state because of an incompatible service call', 0aH
	DB	00H
	ORG $+3
$SG189745 DB	'C:\papa\MyGit\hyperion-zvector\service.c', 00H
	ORG $+7
$SG189749 DB	's390_service_call', 00H
	ORG $+6
$SG189750 DB	'C:\papa\MyGit\hyperion-zvector\service.c', 00H
	ORG $+7
$SG189751 DB	'%s(%d) : warning HHC90999W : *** Assertion Failed! *** f'
	DB	'unction: %s', 0aH, 00H
	ORG $+3
$SG189753 DB	's390_service_call', 00H
	ORG $+6
$SG189754 DB	'C:\papa\MyGit\hyperion-zvector\service.c', 00H
	ORG $+7
$SG189755 DB	'%s(%d) : warning HHC90999W : *** Assertion Failed! *** f'
	DB	'unction: %s', 0aH, 00H
	ORG $+3
$SG189762 DB	'C:\papa\MyGit\hyperion-zvector\service.c:1752', 00H
	ORG $+2
$SG189782 DB	's390_service_call', 00H
	ORG $+6
$SG189781 DB	'HHC00159%s Overly long %d byte SCP message truncated to '
	DB	'%d bytes', 0aH, 00H
	ORG $+6
$SG189783 DB	'C:\papa\MyGit\hyperion-zvector\service.c', 00H
	ORG $+7
$SG189790 DB	's390_service_call', 00H
	ORG $+6
$SG189791 DB	'C:\papa\MyGit\hyperion-zvector\service.c', 00H
	ORG $+7
$SG189799 DB	'C:\papa\MyGit\hyperion-zvector\service.c:2049', 00H
	ORG $+2
$SG189812 DB	'C:\papa\MyGit\hyperion-zvector\service.c:2146', 00H
	ORG $+2
$SG189829 DB	'HHC00006%s SCLP console interface %s', 0aH, 00H
	ORG $+2
$SG189830 DB	's390_service_call', 00H
	ORG $+6
$SG189831 DB	'C:\papa\MyGit\hyperion-zvector\service.c', 00H
	ORG $+7
$SG189832 DB	'inactive', 00H
	ORG $+7
$SG189834 DB	'HHC00006%s SCLP console interface %s', 0aH, 00H
	ORG $+2
$SG189835 DB	's390_service_call', 00H
	ORG $+6
$SG189836 DB	'C:\papa\MyGit\hyperion-zvector\service.c', 00H
	ORG $+7
$SG189848 DB	'C:\papa\MyGit\hyperion-zvector\service.c:2407', 00H
	ORG $+2
$SG189856 DB	'C:\papa\MyGit\hyperion-zvector\service.c:2433', 00H
	ORG $+2
$SG202994 DB	'C:\papa\MyGit\hyperion-zvector\service.c:1472', 00H
	ORG $+2
$SG202998 DB	'C:\papa\MyGit\hyperion-zvector\service.c:1477', 00H
	ORG $+2
$SG202999 DB	'SERVC', 00H
	ORG $+2
$SG203010 DB	'C:\papa\MyGit\hyperion-zvector\service.c:1536', 00H
	ORG $+2
$SG203012 DB	'C:\papa\MyGit\hyperion-zvector\service.c:1542', 00H
	ORG $+2
$SG203020 DB	'z900_service_call', 00H
	ORG $+6
$SG203019 DB	'HHC00005%s The configuration has been placed into a syst'
	DB	'em check-stop state because of an incompatible service call', 0aH
	DB	00H
	ORG $+3
$SG203021 DB	'C:\papa\MyGit\hyperion-zvector\service.c', 00H
	ORG $+7
$SG203025 DB	'z900_service_call', 00H
	ORG $+6
$SG203026 DB	'C:\papa\MyGit\hyperion-zvector\service.c', 00H
	ORG $+7
$SG203027 DB	'%s(%d) : warning HHC90999W : *** Assertion Failed! *** f'
	DB	'unction: %s', 0aH, 00H
	ORG $+3
$SG203029 DB	'z900_service_call', 00H
	ORG $+6
$SG203030 DB	'C:\papa\MyGit\hyperion-zvector\service.c', 00H
	ORG $+7
$SG203031 DB	'%s(%d) : warning HHC90999W : *** Assertion Failed! *** f'
	DB	'unction: %s', 0aH, 00H
	ORG $+3
$SG203038 DB	'C:\papa\MyGit\hyperion-zvector\service.c:1752', 00H
	ORG $+2
$SG203058 DB	'z900_service_call', 00H
	ORG $+6
$SG203057 DB	'HHC00159%s Overly long %d byte SCP message truncated to '
	DB	'%d bytes', 0aH, 00H
	ORG $+6
$SG203059 DB	'C:\papa\MyGit\hyperion-zvector\service.c', 00H
	ORG $+7
$SG203066 DB	'z900_service_call', 00H
	ORG $+6
$SG203067 DB	'C:\papa\MyGit\hyperion-zvector\service.c', 00H
	ORG $+7
$SG203075 DB	'C:\papa\MyGit\hyperion-zvector\service.c:2049', 00H
	ORG $+2
$SG203088 DB	'C:\papa\MyGit\hyperion-zvector\service.c:2146', 00H
	ORG $+2
$SG203089 DB	'*SERVC', 00H
	ORG $+1
$SG203103 DB	'active', 00H
	ORG $+1
$SG203105 DB	'HHC00006%s SCLP console interface %s', 0aH, 00H
	ORG $+2
$SG203106 DB	'z900_service_call', 00H
	ORG $+6
$SG203107 DB	'C:\papa\MyGit\hyperion-zvector\service.c', 00H
	ORG $+7
$SG203108 DB	'inactive', 00H
	ORG $+7
$SG203110 DB	'HHC00006%s SCLP console interface %s', 0aH, 00H
	ORG $+2
$SG203111 DB	'z900_service_call', 00H
	ORG $+6
$SG203112 DB	'C:\papa\MyGit\hyperion-zvector\service.c', 00H
	ORG $+7
$SG203124 DB	'C:\papa\MyGit\hyperion-zvector\service.c:2407', 00H
	ORG $+2
$SG203125 DB	'*SERVC', 00H
	ORG $+1
$SG203132 DB	'C:\papa\MyGit\hyperion-zvector\service.c:2433', 00H
_DATA	ENDS
;	COMDAT xdata
xdata	SEGMENT
$unwind$z900_per3_zero_check DD 010d01H
	DD	0620dH
xdata	ENDS
;	COMDAT xdata
xdata	SEGMENT
$unwind$z900_per3_zero DD 010901H
	DD	06209H
xdata	ENDS
;	COMDAT xdata
xdata	SEGMENT
$unwind$z900_or_storage_key DD 010d01H
	DD	0420dH
xdata	ENDS
;	COMDAT xdata
xdata	SEGMENT
$unwind$z900_or_4K_storage_key DD 010d01H
	DD	0420dH
xdata	ENDS
;	COMDAT xdata
xdata	SEGMENT
$unwind$z900__or_storage_key DD 011201H
	DD	08212H
xdata	ENDS
;	COMDAT xdata
xdata	SEGMENT
$unwind$s390_or_storage_key DD 010d01H
	DD	0420dH
xdata	ENDS
;	COMDAT xdata
xdata	SEGMENT
$unwind$s390_or_4K_storage_key DD 010d01H
	DD	0420dH
xdata	ENDS
;	COMDAT xdata
xdata	SEGMENT
$unwind$s390__or_storage_key DD 011201H
	DD	08212H
xdata	ENDS
voltbl	SEGMENT
_volmd	DD	0ffffffffH
	DDSymXIndex: 	FLAT:z900_service_call
	DD	023H
	DD	0210dH
_volmd	DD	0ffffffffH
	DDSymXIndex: 	FLAT:s390_service_call
	DD	023H
	DD	0207bH
_volmd	DD	0ffffffffH
	DDSymXIndex: 	FLAT:sclp_cpident
	DD	016H
	DD	03e7H
_volmd	DD	0ffffffffH
	DDSymXIndex: 	FLAT:gh534_fix
	DD	020H
	DD	04b4H
_volmd	DD	0ffffffffH
	DDSymXIndex: 	FLAT:sr_read_skip
	DD	01aH
	DD	0e0H
_volmd	DD	0ffffffffH
	DDSymXIndex: 	FLAT:sr_read_value
	DD	021H
	DD	023aH
_volmd	DD	0ffffffffH
	DDSymXIndex: 	FLAT:sr_read_hdr
	DD	01dH
	DD	0cbH
_volmd	DD	0ffffffffH
	DDSymXIndex: 	FLAT:sr_write_value
	DD	021H
	DD	0168H
_volmd	DD	0ffffffffH
	DDSymXIndex: 	FLAT:sr_write_hdr
	DD	01cH
	DD	0b5H
voltbl	ENDS
;	COMDAT xdata
xdata	SEGMENT
$unwind$_get_storekey_ptr DD 010d01H
	DD	0220dH
xdata	ENDS
;	COMDAT xdata
xdata	SEGMENT
$unwind$fetch_dw_noswap DD 010901H
	DD	02209H
xdata	ENDS
;	COMDAT xdata
xdata	SEGMENT
$unwind$fetch_fw_noswap DD 010901H
	DD	02209H
xdata	ENDS
;	COMDAT xdata
xdata	SEGMENT
$unwind$fetch_hw_noswap DD 010901H
	DD	02209H
xdata	ENDS
xdata	SEGMENT
$unwind$DebuggerTrace DD 011801H
	DD	0a218H
$unwind$scp_command DD 011701H
	DD	0e217H
$unwind$signal_quiesce DD 010d01H
	DD	0820dH
$unwind$sclp_attention DD 010901H
	DD	06209H
$unwind$sclp_sysg_attention DD 010401H
	DD	04204H
$unwind$servc_hsuspend DD 010901H
	DD	04209H
$unwind$servc_hresume DD 010901H
	DD	08209H
$unwind$wakeup_cpu DD 010e01H
	DD	0420eH
$unwind$wakeup_cpus_mask DD 010e01H
	DD	0620eH
$unwind$Interrupt_Lock_Obtained DD 010e01H
	DD	0420eH
$unwind$Obtain_Interrupt_Lock DD 010e01H
	DD	0420eH
$unwind$Release_Interrupt_Lock DD 010e01H
	DD	0420eH
$unwind$sr_write_hdr DD 012119H
	DD	06212H
	DD	imagerel __GSHandlerCheck
	DD	028H
$unwind$sr_write_value DD 012619H
	DD	08217H
	DD	imagerel __GSHandlerCheck
	DD	030H
$unwind$sr_write_string DD 011201H
	DD	06212H
$unwind$sr_read_hdr DD 012219H
	DD	06213H
	DD	imagerel __GSHandlerCheck
	DD	028H
$unwind$sr_read_value DD 012619H
	DD	0c217H
	DD	imagerel __GSHandlerCheck
	DD	058H
$unwind$sr_read_string DD 011301H
	DD	04213H
$unwind$sr_read_skip DD 022219H
	DD	02b0110H
	DD	imagerel __GSHandlerCheck
	DD	0140H
$unwind$sr_write_error_ DD 010401H
	DD	0c204H
$unwind$sr_read_error_ DD 010401H
	DD	0c204H
$unwind$sr_value_error_ DD 010401H
	DD	08204H
$unwind$sr_string_error_ DD 010401H
	DD	08204H
$unwind$gh534_fix DD 022819H
	DD	02110116H
	DD	imagerel __GSHandlerCheck
	DD	01070H
$unwind$sclp_attn_thread DD 010901H
	DD	06209H
$unwind$sclp_attn_async DD 010901H
	DD	0c209H
$unwind$sclp_attn_pending DD 010901H
	DD	02209H
$unwind$sclp_opcmd_event DD 031001H
	DD	0700ca210H
	DD	0600bH
$unwind$sclp_cpident DD 021e19H
	DD	02d010cH
	DD	imagerel __GSHandlerCheck
	DD	0150H
$unwind$sclp_sigq_event DD 020a01H
	DD	07006720aH
$unwind$sclp_sysg_write DD 020c01H
	DD	015010cH
$unwind$sclp_sysg_poll DD 030d01H
	DD	014010dH
	DD	07006H
$unwind$s390_service_call DD 042b19H
	DD	02390119H
	DD	0600b700cH
	DD	imagerel __GSHandlerCheck
	DD	011b0H
$unwind$z900_service_call DD 042b19H
	DD	023b0119H
	DD	0600b700cH
	DD	imagerel __GSHandlerCheck
	DD	011c0H
xdata	ENDS
;	COMDAT xdata
xdata	SEGMENT
$unwind$_vsnprintf_s DD 011801H
	DD	06218H
xdata	ENDS
;	COMDAT xdata
xdata	SEGMENT
$unwind$_vsnprintf_s_l DD 011801H
	DD	0a218H
xdata	ENDS
; Function compile flags: /Odtp
; File C:\papa\MyGit\hyperion-zvector\inline.h
;	COMDAT z900_per3_zero_check
_TEXT	SEGMENT
tv78 = 32
regs$ = 64
r1$ = 72
z900_per3_zero_check PROC				; COMDAT

; 629  : {

$LN6:
  00000	89 54 24 10	 mov	 DWORD PTR [rsp+16], edx
  00004	48 89 4c 24 08	 mov	 QWORD PTR [rsp+8], rcx
  00009	48 83 ec 38	 sub	 rsp, 56			; 00000038H

; 630  : #if defined( FEATURE_PER_ZERO_ADDRESS_DETECTION_FACILITY )
; 631  :     if (GR_A( r1, regs ) == 0)

  0000d	48 8b 44 24 40	 mov	 rax, QWORD PTR regs$[rsp]
  00012	8b 80 80 00 00
	00		 mov	 eax, DWORD PTR [rax+128]
  00018	83 e0 01	 and	 eax, 1
  0001b	85 c0		 test	 eax, eax
  0001d	74 19		 je	 SHORT $LN4@z900_per3_
  0001f	48 63 44 24 48	 movsxd	 rax, DWORD PTR r1$[rsp]
  00024	48 8b 4c 24 40	 mov	 rcx, QWORD PTR regs$[rsp]
  00029	48 8b 84 c1 80
	02 00 00	 mov	 rax, QWORD PTR [rcx+rax*8+640]
  00031	48 89 44 24 20	 mov	 QWORD PTR tv78[rsp], rax
  00036	eb 16		 jmp	 SHORT $LN5@z900_per3_
$LN4@z900_per3_:
  00038	48 63 44 24 48	 movsxd	 rax, DWORD PTR r1$[rsp]
  0003d	48 8b 4c 24 40	 mov	 rcx, QWORD PTR regs$[rsp]
  00042	8b 84 c1 80 02
	00 00		 mov	 eax, DWORD PTR [rcx+rax*8+640]
  00049	48 89 44 24 20	 mov	 QWORD PTR tv78[rsp], rax
$LN5@z900_per3_:
  0004e	48 83 7c 24 20
	00		 cmp	 QWORD PTR tv78[rsp], 0
  00054	75 0a		 jne	 SHORT $LN2@z900_per3_

; 632  :         ARCH_DEP( per3_zero )( regs );

  00056	48 8b 4c 24 40	 mov	 rcx, QWORD PTR regs$[rsp]
  0005b	e8 00 00 00 00	 call	 z900_per3_zero
$LN2@z900_per3_:

; 633  : #else
; 634  :     UNREFERENCED( regs );
; 635  :     UNREFERENCED( r1 );
; 636  : #endif
; 637  : }

  00060	48 83 c4 38	 add	 rsp, 56			; 00000038H
  00064	c3		 ret	 0
z900_per3_zero_check ENDP
_TEXT	ENDS
; Function compile flags: /Odtp
; File C:\papa\MyGit\hyperion-zvector\inline.h
;	COMDAT z900_per3_zero
_TEXT	SEGMENT
tv75 = 32
regs$ = 64
z900_per3_zero PROC					; COMDAT

; 602  : {

$LN12:
  00000	48 89 4c 24 08	 mov	 QWORD PTR [rsp+8], rcx
  00005	48 83 ec 38	 sub	 rsp, 56			; 00000038H

; 603  : #if defined( FEATURE_PER_ZERO_ADDRESS_DETECTION_FACILITY )
; 604  :     if (1
; 605  :         && EN_IC_PER_ZEROADDR( regs )
; 606  :         && !IS_PER_SUPRESS( regs, CR9_ZEROADDR )

  00009	33 c0		 xor	 eax, eax
  0000b	83 f8 01	 cmp	 eax, 1
  0000e	0f 84 be 00 00
	00		 je	 $LN5@z900_per3_
  00014	48 8b 44 24 40	 mov	 rax, QWORD PTR regs$[rsp]
  00019	8b 80 28 07 00
	00		 mov	 eax, DWORD PTR [rax+1832]
  0001f	c1 e8 02	 shr	 eax, 2
  00022	83 e0 01	 and	 eax, 1
  00025	85 c0		 test	 eax, eax
  00027	74 0a		 je	 SHORT $LN10@z900_per3_
  00029	c7 44 24 20 01
	00 00 00	 mov	 DWORD PTR tv75[rsp], 1
  00031	eb 08		 jmp	 SHORT $LN11@z900_per3_
$LN10@z900_per3_:
  00033	c7 44 24 20 00
	00 00 00	 mov	 DWORD PTR tv75[rsp], 0
$LN11@z900_per3_:
  0003b	83 7c 24 20 00	 cmp	 DWORD PTR tv75[rsp], 0
  00040	0f 84 8c 00 00
	00		 je	 $LN5@z900_per3_
  00046	48 8b 44 24 40	 mov	 rax, QWORD PTR regs$[rsp]
  0004b	8b 40 48	 mov	 eax, DWORD PTR [rax+72]
  0004e	25 00 00 04 00	 and	 eax, 262144		; 00040000H
  00053	85 c0		 test	 eax, eax
  00055	74 7b		 je	 SHORT $LN5@z900_per3_
  00057	ba 00 00 00 04	 mov	 edx, 67108864		; 04000000H
  0005c	48 8b 4c 24 40	 mov	 rcx, QWORD PTR regs$[rsp]
  00061	e8 00 00 00 00	 call	 z900_is_per3_event_suppressed
  00066	0f b6 c0	 movzx	 eax, al
  00069	85 c0		 test	 eax, eax
  0006b	75 65		 jne	 SHORT $LN5@z900_per3_

; 607  :     )
; 608  :     {
; 609  :         regs->peradr = regs->periaddr;

  0006d	48 8b 44 24 40	 mov	 rax, QWORD PTR regs$[rsp]
  00072	48 8b 4c 24 40	 mov	 rcx, QWORD PTR regs$[rsp]
  00077	48 8b 89 e8 08
	00 00		 mov	 rcx, QWORD PTR [rcx+2280]
  0007e	48 89 88 d8 08
	00 00		 mov	 QWORD PTR [rax+2264], rcx
$LN4@z900_per3_:

; 610  :         ON_IC_PER_ZEROADDR( regs );

  00085	48 8b 44 24 40	 mov	 rax, QWORD PTR regs$[rsp]
  0008a	8b 40 4c	 mov	 eax, DWORD PTR [rax+76]
  0008d	0f ba e8 12	 bts	 eax, 18
  00091	48 8b 4c 24 40	 mov	 rcx, QWORD PTR regs$[rsp]
  00096	89 41 4c	 mov	 DWORD PTR [rcx+76], eax
  00099	33 c0		 xor	 eax, eax
  0009b	85 c0		 test	 eax, eax
  0009d	75 e6		 jne	 SHORT $LN4@z900_per3_

; 611  :         if (OPEN_IC_PER_ZEROADDR( regs ))

  0009f	48 8b 44 24 40	 mov	 rax, QWORD PTR regs$[rsp]
  000a4	48 8b 4c 24 40	 mov	 rcx, QWORD PTR regs$[rsp]
  000a9	8b 49 4c	 mov	 ecx, DWORD PTR [rcx+76]
  000ac	8b 40 48	 mov	 eax, DWORD PTR [rax+72]
  000af	23 c1		 and	 eax, ecx
  000b1	25 00 00 04 00	 and	 eax, 262144		; 00040000H
  000b6	85 c0		 test	 eax, eax
  000b8	74 18		 je	 SHORT $LN6@z900_per3_

; 612  :             RETURN_INTCHECK( regs );

  000ba	48 8b 44 24 40	 mov	 rax, QWORD PTR regs$[rsp]
  000bf	48 05 80 09 00
	00		 add	 rax, 2432		; 00000980H
  000c5	ba ff ff ff ff	 mov	 edx, -1
  000ca	48 8b c8	 mov	 rcx, rax
  000cd	e8 00 00 00 00	 call	 longjmp
$LN6@z900_per3_:
$LN5@z900_per3_:
$LN7@z900_per3_:

; 613  :     }
; 614  : #else
; 615  :     UNREFERENCED( regs );
; 616  : #endif
; 617  : }

  000d2	48 83 c4 38	 add	 rsp, 56			; 00000038H
  000d6	c3		 ret	 0
z900_per3_zero ENDP
_TEXT	ENDS
; Function compile flags: /Odtp
; File C:\papa\MyGit\hyperion-zvector\inline.h
;	COMDAT z900_is_per3_event_suppressed
_TEXT	SEGMENT
regs$ = 8
cr9_per_event$ = 16
z900_is_per3_event_suppressed PROC			; COMDAT

; 566  : {

  00000	89 54 24 10	 mov	 DWORD PTR [rsp+16], edx
  00004	48 89 4c 24 08	 mov	 QWORD PTR [rsp+8], rcx

; 567  : #if !defined( FEATURE_PER3 )
; 568  :     UNREFERENCED( regs );
; 569  :     UNREFERENCED( cr9_per_event );
; 570  : #else
; 571  :     /* DON'T suppress this event if Event Suppression isn't enabled */
; 572  :     if (!(regs->CR_L(9) & CR9_SUPPRESS))

  00009	b8 08 00 00 00	 mov	 eax, 8
  0000e	48 6b c0 0a	 imul	 rax, rax, 10
  00012	48 8b 4c 24 08	 mov	 rcx, QWORD PTR regs$[rsp]
  00017	8b 84 01 00 06
	00 00		 mov	 eax, DWORD PTR [rcx+rax+1536]
  0001e	25 00 00 40 00	 and	 eax, 4194304		; 00400000H
  00023	85 c0		 test	 eax, eax
  00025	75 04		 jne	 SHORT $LN2@z900_is_pe

; 573  :         return false;

  00027	32 c0		 xor	 al, al
  00029	eb 78		 jmp	 SHORT $LN1@z900_is_pe
$LN2@z900_is_pe:

; 574  : 
; 575  :     /* Is this PER event one that is ALLOWED to be suppressed? */
; 576  :     if (cr9_per_event & CR9_SUPPRESSABLE)

  0002b	8b 44 24 10	 mov	 eax, DWORD PTR cr9_per_event$[rsp]
  0002f	25 00 00 00 ed	 and	 eax, -318767104		; ed000000H
  00034	85 c0		 test	 eax, eax
  00036	74 69		 je	 SHORT $LN3@z900_is_pe

; 577  :     {
; 578  :         /* Is there an active transaction? */
; 579  :         if (regs->txf_tnd)

  00038	48 8b 44 24 08	 mov	 rax, QWORD PTR regs$[rsp]
  0003d	0f b6 80 58 0e
	00 00		 movzx	 eax, BYTE PTR [rax+3672]
  00044	85 c0		 test	 eax, eax
  00046	74 04		 je	 SHORT $LN4@z900_is_pe

; 580  :             return true;        /* Yes, then suppress it! */

  00048	b0 01		 mov	 al, 1
  0004a	eb 57		 jmp	 SHORT $LN1@z900_is_pe
$LN4@z900_is_pe:

; 581  : 
; 582  :         /* Suppress instruction-fetch events for TBEGIN/TBEGINC */
; 583  :         if (1
; 584  :             && cr9_per_event & CR9_IF
; 585  :             && *(regs->ip+0) == 0xE5
; 586  :             && (0

  0004c	33 c0		 xor	 eax, eax
  0004e	83 f8 01	 cmp	 eax, 1
  00051	74 4e		 je	 SHORT $LN5@z900_is_pe
  00053	8b 44 24 10	 mov	 eax, DWORD PTR cr9_per_event$[rsp]
  00057	25 00 00 00 40	 and	 eax, 1073741824		; 40000000H
  0005c	85 c0		 test	 eax, eax
  0005e	74 41		 je	 SHORT $LN5@z900_is_pe
  00060	48 8b 44 24 08	 mov	 rax, QWORD PTR regs$[rsp]
  00065	48 8b 40 68	 mov	 rax, QWORD PTR [rax+104]
  00069	0f b6 00	 movzx	 eax, BYTE PTR [rax]
  0006c	3d e5 00 00 00	 cmp	 eax, 229		; 000000e5H
  00071	75 2e		 jne	 SHORT $LN5@z900_is_pe
  00073	33 c0		 xor	 eax, eax
  00075	85 c0		 test	 eax, eax
  00077	75 24		 jne	 SHORT $LN6@z900_is_pe
  00079	48 8b 44 24 08	 mov	 rax, QWORD PTR regs$[rsp]
  0007e	48 8b 40 68	 mov	 rax, QWORD PTR [rax+104]
  00082	0f b6 40 01	 movzx	 eax, BYTE PTR [rax+1]
  00086	83 f8 60	 cmp	 eax, 96			; 00000060H
  00089	74 12		 je	 SHORT $LN6@z900_is_pe
  0008b	48 8b 44 24 08	 mov	 rax, QWORD PTR regs$[rsp]
  00090	48 8b 40 68	 mov	 rax, QWORD PTR [rax+104]
  00094	0f b6 40 01	 movzx	 eax, BYTE PTR [rax+1]
  00098	83 f8 61	 cmp	 eax, 97			; 00000061H
  0009b	75 04		 jne	 SHORT $LN5@z900_is_pe
$LN6@z900_is_pe:

; 587  :                 || *(regs->ip+1) == 0x60
; 588  :                 || *(regs->ip+1) == 0x61
; 589  :                )
; 590  :         )
; 591  :             return true;        /* TBEGIN/TBEGINC: suppress it! */

  0009d	b0 01		 mov	 al, 1
  0009f	eb 02		 jmp	 SHORT $LN1@z900_is_pe
$LN5@z900_is_pe:
$LN3@z900_is_pe:

; 592  :     }
; 593  : #endif
; 594  :     /* Otherwise DON'T suppress this PER event */
; 595  :     return false;

  000a1	32 c0		 xor	 al, al
$LN1@z900_is_pe:

; 596  : }

  000a3	c3		 ret	 0
z900_is_per3_event_suppressed ENDP
_TEXT	ENDS
; Function compile flags: /Odtp
; File C:\papa\MyGit\hyperion-zvector\skey.h
;	COMDAT z900_or_storage_key
_TEXT	SEGMENT
abs$ = 48
bits$ = 56
z900_or_storage_key PROC				; COMDAT

; 290  : {

$LN3:
  00000	88 54 24 10	 mov	 BYTE PTR [rsp+16], dl
  00004	48 89 4c 24 08	 mov	 QWORD PTR [rsp+8], rcx
  00009	48 83 ec 28	 sub	 rsp, 40			; 00000028H

; 291  : #if defined( FEATURE_2K_STORAGE_KEYS )
; 292  :     ARCH_DEP( or_2K_storage_key )( abs, bits );
; 293  : #else
; 294  :     ARCH_DEP( or_4K_storage_key )( abs, bits );

  0000d	0f b6 54 24 38	 movzx	 edx, BYTE PTR bits$[rsp]
  00012	48 8b 4c 24 30	 mov	 rcx, QWORD PTR abs$[rsp]
  00017	e8 00 00 00 00	 call	 z900_or_4K_storage_key

; 295  : #endif
; 296  : }

  0001c	48 83 c4 28	 add	 rsp, 40			; 00000028H
  00020	c3		 ret	 0
z900_or_storage_key ENDP
_TEXT	ENDS
; Function compile flags: /Odtp
; File C:\papa\MyGit\hyperion-zvector\skey.h
;	COMDAT z900_or_4K_storage_key
_TEXT	SEGMENT
abs$ = 48
bits$ = 56
z900_or_4K_storage_key PROC				; COMDAT

; 242  :   inline void  ARCH_DEP( or_4K_storage_key )      (              U64 abs, BYTE bits ) {        ARCH_DEP( _or_storage_key      )(      abs, bits & ~STORKEY_BADFRM, 4 ); }

$LN3:
  00000	88 54 24 10	 mov	 BYTE PTR [rsp+16], dl
  00004	48 89 4c 24 08	 mov	 QWORD PTR [rsp+8], rcx
  00009	48 83 ec 28	 sub	 rsp, 40			; 00000028H
  0000d	0f b6 44 24 38	 movzx	 eax, BYTE PTR bits$[rsp]
  00012	83 e0 fe	 and	 eax, -2
  00015	41 b0 04	 mov	 r8b, 4
  00018	0f b6 d0	 movzx	 edx, al
  0001b	48 8b 4c 24 30	 mov	 rcx, QWORD PTR abs$[rsp]
  00020	e8 00 00 00 00	 call	 z900__or_storage_key
  00025	48 83 c4 28	 add	 rsp, 40			; 00000028H
  00029	c3		 ret	 0
z900_or_4K_storage_key ENDP
_TEXT	ENDS
; Function compile flags: /Odtp
; File C:\papa\MyGit\hyperion-zvector\skey.h
;	COMDAT z900__or_storage_key
_TEXT	SEGMENT
skey1_ptr$1 = 32
skey2_ptr$2 = 40
skey_ptr$3 = 48
abs$ = 80
bits$ = 88
K$ = 96
z900__or_storage_key PROC				; COMDAT

; 189  : {

$LN8:
  00000	44 88 44 24 18	 mov	 BYTE PTR [rsp+24], r8b
  00005	88 54 24 10	 mov	 BYTE PTR [rsp+16], dl
  00009	48 89 4c 24 08	 mov	 QWORD PTR [rsp+8], rcx
  0000e	48 83 ec 48	 sub	 rsp, 72			; 00000048H
$LN4@z900__or_s:

; 190  :     UNREFERENCED( K ); // (for FEATURE_4K_STORAGE_KEYS case)

  00012	33 c0		 xor	 eax, eax
  00014	85 c0		 test	 eax, eax
  00016	75 fa		 jne	 SHORT $LN4@z900__or_s

; 191  :     if (IS_DOUBLE_KEYED_4K_BYTE_BLOCK( K ))

  00018	33 c0		 xor	 eax, eax
  0001a	85 c0		 test	 eax, eax
  0001c	74 50		 je	 SHORT $LN5@z900__or_s

; 192  :     {
; 193  :         BYTE* skey1_ptr = _get_storekey1_ptr( abs );

  0001e	48 8b 4c 24 50	 mov	 rcx, QWORD PTR abs$[rsp]
  00023	e8 00 00 00 00	 call	 _get_storekey1_ptr
  00028	48 89 44 24 20	 mov	 QWORD PTR skey1_ptr$1[rsp], rax

; 194  :         BYTE* skey2_ptr = _get_storekey2_ptr( abs );

  0002d	48 8b 4c 24 50	 mov	 rcx, QWORD PTR abs$[rsp]
  00032	e8 00 00 00 00	 call	 _get_storekey2_ptr
  00037	48 89 44 24 28	 mov	 QWORD PTR skey2_ptr$2[rsp], rax

; 195  :         OR_SKEY( skey1_ptr, bits );

  0003c	0f b6 44 24 58	 movzx	 eax, BYTE PTR bits$[rsp]
  00041	48 8b 4c 24 20	 mov	 rcx, QWORD PTR skey1_ptr$1[rsp]
  00046	0f b6 09	 movzx	 ecx, BYTE PTR [rcx]
  00049	0b c8		 or	 ecx, eax
  0004b	8b c1		 mov	 eax, ecx
  0004d	48 8b 4c 24 20	 mov	 rcx, QWORD PTR skey1_ptr$1[rsp]
  00052	88 01		 mov	 BYTE PTR [rcx], al

; 196  :         OR_SKEY( skey2_ptr, bits );

  00054	0f b6 44 24 58	 movzx	 eax, BYTE PTR bits$[rsp]
  00059	48 8b 4c 24 28	 mov	 rcx, QWORD PTR skey2_ptr$2[rsp]
  0005e	0f b6 09	 movzx	 ecx, BYTE PTR [rcx]
  00061	0b c8		 or	 ecx, eax
  00063	8b c1		 mov	 eax, ecx
  00065	48 8b 4c 24 28	 mov	 rcx, QWORD PTR skey2_ptr$2[rsp]
  0006a	88 01		 mov	 BYTE PTR [rcx], al

; 197  :     }

  0006c	eb 2c		 jmp	 SHORT $LN6@z900__or_s
$LN5@z900__or_s:

; 198  :     else
; 199  :     {
; 200  :         BYTE* skey_ptr  = _get_storekey_ptr( abs, K );

  0006e	0f b6 54 24 60	 movzx	 edx, BYTE PTR K$[rsp]
  00073	48 8b 4c 24 50	 mov	 rcx, QWORD PTR abs$[rsp]
  00078	e8 00 00 00 00	 call	 _get_storekey_ptr
  0007d	48 89 44 24 30	 mov	 QWORD PTR skey_ptr$3[rsp], rax

; 201  :         OR_SKEY( skey_ptr, bits );

  00082	0f b6 44 24 58	 movzx	 eax, BYTE PTR bits$[rsp]
  00087	48 8b 4c 24 30	 mov	 rcx, QWORD PTR skey_ptr$3[rsp]
  0008c	0f b6 09	 movzx	 ecx, BYTE PTR [rcx]
  0008f	0b c8		 or	 ecx, eax
  00091	8b c1		 mov	 eax, ecx
  00093	48 8b 4c 24 30	 mov	 rcx, QWORD PTR skey_ptr$3[rsp]
  00098	88 01		 mov	 BYTE PTR [rcx], al
$LN6@z900__or_s:

; 202  :     }
; 203  : }

  0009a	48 83 c4 48	 add	 rsp, 72			; 00000048H
  0009e	c3		 ret	 0
z900__or_storage_key ENDP
_TEXT	ENDS
; Function compile flags: /Odtp
; File C:\papa\MyGit\hyperion-zvector\service.c
_TEXT	SEGMENT
i$ = 80
sccb$ = 88
sccblen$ = 96
sccb_absolute_addr$ = 100
offset$ = 104
sccbscp$ = 112
tv254 = 120
masklen$ = 124
obj_len$ = 128
event_msglen$ = 132
mcd_len$ = 136
evd_len$ = 140
i$1 = 144
sccb_real_addr$ = 148
chpbyte$ = 152
r2$ = 156
sclp_command$ = 160
evd_hdr$ = 168
r1$ = 176
tv669 = 180
xstblkinc$ = 184
evd_mask$ = 192
sccbcpu$ = 200
obj_type$ = 208
chpbit$ = 212
xstincnum$ = 216
dev$ = 224
sccbchp$ = 232
tv793 = 240
incsizemb$ = 244
i$2 = 248
realinc$ = 252
trunc_len$3 = 256
obj_hdr$ = 264
sccb_last_byte$4 = 272
evd_msg$ = 280
mask$5 = 288
old_cp_recv_mask$ = 296
tv1661 = 300
old_cp_send_mask$ = 304
sccb_first_byte$6 = 312
tv191 = 320
sccbcsi$ = 328
mcd_bk$ = 336
mto_bk$ = 344
$T7 = 352
tv860 = 360
tv985 = 368
sccbxmap$ = 376
tv1226 = 384
tv326 = 392
sccbmpf$ = 400
tv1051 = 408
tv1055 = 416
tv1151 = 424
xstmap$ = 432
tv1174 = 440
message$ = 448
__$ArrayPad$ = 4544
inst$ = 4592
regs$ = 4600
z900_service_call PROC

; 1408 : {

$LN180:
  00000	48 89 54 24 10	 mov	 QWORD PTR [rsp+16], rdx
  00005	48 89 4c 24 08	 mov	 QWORD PTR [rsp+8], rcx
  0000a	56		 push	 rsi
  0000b	57		 push	 rdi
  0000c	b8 d8 11 00 00	 mov	 eax, 4568		; 000011d8H
  00011	e8 00 00 00 00	 call	 __chkstk
  00016	48 2b e0	 sub	 rsp, rax
  00019	48 8b 05 00 00
	00 00		 mov	 rax, QWORD PTR __security_cookie
  00020	48 33 c4	 xor	 rax, rsp
  00023	48 89 84 24 c0
	11 00 00	 mov	 QWORD PTR __$ArrayPad$[rsp], rax

; 1409 : U32             r1, r2;                 /* Values of R fields        */
; 1410 : U32             sclp_command;           /* SCLP command code         */
; 1411 : U32             sccb_real_addr;         /* SCCB real address         */
; 1412 : int             i;                      /* Array subscripts          */
; 1413 : U32             realinc;                /* Storage size in increments*/
; 1414 : U32             incsizemb;              /* Increment size in MB      */
; 1415 : U32             sccb_absolute_addr;     /* Absolute address of SCCB  */
; 1416 : U16             sccblen;                /* Length of SCCB            */
; 1417 : SCCB_HEADER*    sccb;                   /* -> SCCB header            */
; 1418 : SCCB_SCP_INFO*  sccbscp;                /* -> SCCB SCP information   */
; 1419 : SCCB_CPU_INFO*  sccbcpu;                /* -> SCCB CPU information   */
; 1420 : 
; 1421 : #if defined( FEATURE_MPF_INFO )
; 1422 : SCCB_MPF_INFO*  sccbmpf;                /* -> SCCB MPF information   */
; 1423 : #endif
; 1424 : 
; 1425 : #if defined( FEATURE_CHANNEL_SUBSYSTEM )
; 1426 : SCCB_CHP_INFO*  sccbchp;                /* -> SCCB channel path info */
; 1427 : #else
; 1428 : SCCB_CHSET_INFO* sccbchp;               /* -> SCCB channel path info */
; 1429 : #endif
; 1430 : 
; 1431 : SCCB_CSI_INFO*  sccbcsi;                /* -> SCCB channel subsys inf*/
; 1432 : U16             offset;                 /* Offset from start of SCCB */
; 1433 : 
; 1434 : #if defined( FEATURE_CHANNEL_SUBSYSTEM )
; 1435 : DEVBLK*         dev;                    /* Used to find CHPIDs       */
; 1436 : U32             chpbyte;                /* Offset to byte for CHPID  */
; 1437 : U32             chpbit;                 /* Bit number for CHPID      */
; 1438 : #endif
; 1439 : 
; 1440 : #if defined( FEATURE_SYSTEM_CONSOLE )
; 1441 : SCCB_EVT_MASK*  evd_mask;               /* Event mask                */
; 1442 : SCCB_EVD_HDR*   evd_hdr;                /* Event header              */
; 1443 : U16             evd_len;                /* Length of event data      */
; 1444 : SCCB_MCD_BK*    mcd_bk;                 /* Message Control Data      */
; 1445 : U16             mcd_len;                /* Length of MCD             */
; 1446 : SCCB_OBJ_HDR*   obj_hdr;                /* Object Header             */
; 1447 : U16             obj_len;                /* Length of Object          */
; 1448 : U16             obj_type;               /* Object type               */
; 1449 : SCCB_MTO_BK*    mto_bk;                 /* Message Text Object       */
; 1450 : BYTE*           evd_msg;                /* Message Text pointer      */
; 1451 : int             event_msglen;           /* Message Text length       */
; 1452 : BYTE            message[MAX_EVENT_MSG_LEN];/* Maximum event data buffer
; 1453 :                                            length plus one for \0    */
; 1454 : U32             masklen;                /* Length of event mask      */
; 1455 : U32             old_cp_recv_mask;       /* Masks before write event  */
; 1456 : U32             old_cp_send_mask;       /*              mask command */
; 1457 : #endif /* defined( FEATURE_SYSTEM_CONSOLE ) */
; 1458 : 
; 1459 : #if defined( FEATURE_EXPANDED_STORAGE )
; 1460 : SCCB_XST_MAP*   sccbxmap;               /* Xstore usability map      */
; 1461 : U32             xstincnum;              /* Number of expanded storage
; 1462 :                                                          increments  */
; 1463 : U32             xstblkinc;              /* Number of expanded storage
; 1464 :                                                blocks per increment  */
; 1465 : BYTE*           xstmap;                 /* Xstore bitmap, zero means
; 1466 :                                                            available */
; 1467 : #endif /* defined( FEATURE_EXPANDED_STORAGE ) */
; 1468 : 
; 1469 :     RRE( inst, regs, r1, r2 );

  0002b	b8 01 00 00 00	 mov	 eax, 1
  00030	48 6b c0 03	 imul	 rax, rax, 3
  00034	48 8b 8c 24 f0
	11 00 00	 mov	 rcx, QWORD PTR inst$[rsp]
  0003c	0f b6 04 01	 movzx	 eax, BYTE PTR [rcx+rax]
  00040	89 84 24 f8 00
	00 00		 mov	 DWORD PTR i$2[rsp], eax
  00047	8b 84 24 f8 00
	00 00		 mov	 eax, DWORD PTR i$2[rsp]
  0004e	83 e0 0f	 and	 eax, 15
  00051	89 84 24 9c 00
	00 00		 mov	 DWORD PTR r2$[rsp], eax
  00058	8b 84 24 f8 00
	00 00		 mov	 eax, DWORD PTR i$2[rsp]
  0005f	c1 f8 04	 sar	 eax, 4
  00062	83 e0 0f	 and	 eax, 15
  00065	89 84 24 b0 00
	00 00		 mov	 DWORD PTR r1$[rsp], eax
$LN4@z900_servi:
  0006c	48 8b 84 24 f8
	11 00 00	 mov	 rax, QWORD PTR regs$[rsp]
  00074	48 8b 40 68	 mov	 rax, QWORD PTR [rax+104]
  00078	48 83 c0 04	 add	 rax, 4
  0007c	48 8b 8c 24 f8
	11 00 00	 mov	 rcx, QWORD PTR regs$[rsp]
  00084	48 89 41 68	 mov	 QWORD PTR [rcx+104], rax
  00088	33 c0		 xor	 eax, eax
  0008a	83 f8 04	 cmp	 eax, 4
  0008d	74 0f		 je	 SHORT $LN61@z900_servi
  0008f	48 8b 84 24 f8
	11 00 00	 mov	 rax, QWORD PTR regs$[rsp]
  00097	c6 80 9a 00 00
	00 04		 mov	 BYTE PTR [rax+154], 4
$LN61@z900_servi:
  0009e	33 c0		 xor	 eax, eax
  000a0	85 c0		 test	 eax, eax
  000a2	75 c8		 jne	 SHORT $LN4@z900_servi

; 1470 : 
; 1471 :     PER_ZEROADDR_CHECK( regs, r2 );

  000a4	8b 94 24 9c 00
	00 00		 mov	 edx, DWORD PTR r2$[rsp]
  000ab	48 8b 8c 24 f8
	11 00 00	 mov	 rcx, QWORD PTR regs$[rsp]
  000b3	e8 00 00 00 00	 call	 z900_per3_zero_check
$LN7@z900_servi:

; 1472 :     TXF_INSTR_CHECK( regs );

  000b8	48 8b 84 24 f8
	11 00 00	 mov	 rax, QWORD PTR regs$[rsp]
  000c0	0f b6 80 58 0e
	00 00		 movzx	 eax, BYTE PTR [rax+3672]
  000c7	85 c0		 test	 eax, eax
  000c9	74 3f		 je	 SHORT $LN62@z900_servi
  000cb	48 8b 84 24 f8
	11 00 00	 mov	 rax, QWORD PTR regs$[rsp]
  000d3	8b 80 84 af 00
	00		 mov	 eax, DWORD PTR [rax+44932]
  000d9	0f ba e8 0c	 bts	 eax, 12
  000dd	48 8b 8c 24 f8
	11 00 00	 mov	 rcx, QWORD PTR regs$[rsp]
  000e5	89 81 84 af 00
	00		 mov	 DWORD PTR [rcx+44932], eax
  000eb	4c 8d 0d 00 00
	00 00		 lea	 r9, OFFSET FLAT:$SG202994
  000f2	41 b8 0b 00 00
	00		 mov	 r8d, 11
  000f8	ba 02 00 00 00	 mov	 edx, 2
  000fd	48 8b 8c 24 f8
	11 00 00	 mov	 rcx, QWORD PTR regs$[rsp]
  00105	e8 00 00 00 00	 call	 z900_abort_transaction
$LN62@z900_servi:
  0010a	33 c0		 xor	 eax, eax
  0010c	85 c0		 test	 eax, eax
  0010e	75 a8		 jne	 SHORT $LN7@z900_servi

; 1473 :     PRIV_CHECK( regs );

  00110	48 8b 84 24 f8
	11 00 00	 mov	 rax, QWORD PTR regs$[rsp]
  00118	0f b6 40 7a	 movzx	 eax, BYTE PTR [rax+122]
  0011c	83 e0 01	 and	 eax, 1
  0011f	85 c0		 test	 eax, eax
  00121	74 1b		 je	 SHORT $LN63@z900_servi
  00123	ba 02 00 00 00	 mov	 edx, 2
  00128	48 8b 8c 24 f8
	11 00 00	 mov	 rcx, QWORD PTR regs$[rsp]
  00130	48 8b 84 24 f8
	11 00 00	 mov	 rax, QWORD PTR regs$[rsp]
  00138	ff 90 20 0d 00
	00		 call	 QWORD PTR [rax+3360]
$LN63@z900_servi:
$LN10@z900_servi:

; 1474 : 
; 1475 :     SIE_INTERCEPT( regs );

  0013e	48 8b 84 24 f8
	11 00 00	 mov	 rax, QWORD PTR regs$[rsp]
  00146	8b 80 c8 08 00
	00		 mov	 eax, DWORD PTR [rax+2248]
  0014c	d1 e8		 shr	 eax, 1
  0014e	83 e0 01	 and	 eax, 1
  00151	85 c0		 test	 eax, eax
  00153	74 1b		 je	 SHORT $LN64@z900_servi
  00155	48 8b 84 24 f8
	11 00 00	 mov	 rax, QWORD PTR regs$[rsp]
  0015d	48 05 80 09 00
	00		 add	 rax, 2432		; 00000980H
  00163	ba fc ff ff ff	 mov	 edx, -4
  00168	48 8b c8	 mov	 rcx, rax
  0016b	e8 00 00 00 00	 call	 longjmp
$LN64@z900_servi:
  00170	33 c0		 xor	 eax, eax
  00172	85 c0		 test	 eax, eax
  00174	75 c8		 jne	 SHORT $LN10@z900_servi
$LN13@z900_servi:

; 1476 : 
; 1477 :     PTT_INF("SERVC", regs->GR_L(r1), regs->GR_L(r2), regs->psw.IA_L );

  00176	48 8b 05 00 00
	00 00		 mov	 rax, QWORD PTR __imp_pttclass
  0017d	48 8b 00	 mov	 rax, QWORD PTR [rax]
  00180	48 83 e0 08	 and	 rax, 8
  00184	48 85 c0	 test	 rax, rax
  00187	74 6d		 je	 SHORT $LN65@z900_servi
  00189	48 8b 84 24 f8
	11 00 00	 mov	 rax, QWORD PTR regs$[rsp]
  00191	8b 80 88 00 00
	00		 mov	 eax, DWORD PTR [rax+136]
  00197	8b 8c 24 9c 00
	00 00		 mov	 ecx, DWORD PTR r2$[rsp]
  0019e	48 8b 94 24 f8
	11 00 00	 mov	 rdx, QWORD PTR regs$[rsp]
  001a6	8b 8c ca 80 02
	00 00		 mov	 ecx, DWORD PTR [rdx+rcx*8+640]
  001ad	8b 94 24 b0 00
	00 00		 mov	 edx, DWORD PTR r1$[rsp]
  001b4	4c 8b 84 24 f8
	11 00 00	 mov	 r8, QWORD PTR regs$[rsp]
  001bc	41 8b 94 d0 80
	02 00 00	 mov	 edx, DWORD PTR [r8+rdx*8+640]
  001c4	48 c7 44 24 30
	00 00 00 00	 mov	 QWORD PTR [rsp+48], 0
  001cd	48 89 44 24 28	 mov	 QWORD PTR [rsp+40], rax
  001d2	48 8d 05 00 00
	00 00		 lea	 rax, OFFSET FLAT:$SG202998
  001d9	48 89 44 24 20	 mov	 QWORD PTR [rsp+32], rax
  001de	44 8b c9	 mov	 r9d, ecx
  001e1	44 8b c2	 mov	 r8d, edx
  001e4	48 8d 15 00 00
	00 00		 lea	 rdx, OFFSET FLAT:$SG202999
  001eb	b9 08 00 00 00	 mov	 ecx, 8
  001f0	ff 15 00 00 00
	00		 call	 QWORD PTR __imp_ptt_pthread_trace
$LN65@z900_servi:
  001f6	33 c0		 xor	 eax, eax
  001f8	85 c0		 test	 eax, eax
  001fa	0f 85 76 ff ff
	ff		 jne	 $LN13@z900_servi

; 1478 : 
; 1479 :     /* R1 is SCLP command word */
; 1480 :     sclp_command = regs->GR_L(r1);

  00200	8b 84 24 b0 00
	00 00		 mov	 eax, DWORD PTR r1$[rsp]
  00207	48 8b 8c 24 f8
	11 00 00	 mov	 rcx, QWORD PTR regs$[rsp]
  0020f	8b 84 c1 80 02
	00 00		 mov	 eax, DWORD PTR [rcx+rax*8+640]
  00216	89 84 24 a0 00
	00 00		 mov	 DWORD PTR sclp_command$[rsp], eax

; 1481 : 
; 1482 :     /* R2 is real address of service call control block */
; 1483 :     sccb_real_addr = regs->GR_L(r2);

  0021d	8b 84 24 9c 00
	00 00		 mov	 eax, DWORD PTR r2$[rsp]
  00224	48 8b 8c 24 f8
	11 00 00	 mov	 rcx, QWORD PTR regs$[rsp]
  0022c	8b 84 c1 80 02
	00 00		 mov	 eax, DWORD PTR [rcx+rax*8+640]
  00233	89 84 24 94 00
	00 00		 mov	 DWORD PTR sccb_real_addr$[rsp], eax

; 1484 : 
; 1485 :     /* Program check if SCCB is not on a doubleword boundary */
; 1486 :     if (sccb_real_addr & 0x00000007)

  0023a	8b 84 24 94 00
	00 00		 mov	 eax, DWORD PTR sccb_real_addr$[rsp]
  00241	83 e0 07	 and	 eax, 7
  00244	85 c0		 test	 eax, eax
  00246	74 12		 je	 SHORT $LN66@z900_servi

; 1487 :         ARCH_DEP( program_interrupt )( regs, PGM_SPECIFICATION_EXCEPTION );

  00248	ba 06 00 00 00	 mov	 edx, 6
  0024d	48 8b 8c 24 f8
	11 00 00	 mov	 rcx, QWORD PTR regs$[rsp]
  00255	e8 00 00 00 00	 call	 z900_program_interrupt
$LN66@z900_servi:

; 1488 : 
; 1489 :     /* Program check if SCCB falls outside of main storage */
; 1490 :     if (sccb_real_addr > (regs->mainlim - sizeof( SCCB_HEADER )))

  0025a	8b 84 24 94 00
	00 00		 mov	 eax, DWORD PTR sccb_real_addr$[rsp]
  00261	48 8b 8c 24 f8
	11 00 00	 mov	 rcx, QWORD PTR regs$[rsp]
  00269	48 8b 89 58 08
	00 00		 mov	 rcx, QWORD PTR [rcx+2136]
  00270	48 83 e9 08	 sub	 rcx, 8
  00274	48 3b c1	 cmp	 rax, rcx
  00277	76 12		 jbe	 SHORT $LN67@z900_servi

; 1491 :         ARCH_DEP( program_interrupt )( regs, PGM_ADDRESSING_EXCEPTION );

  00279	ba 05 00 00 00	 mov	 edx, 5
  0027e	48 8b 8c 24 f8
	11 00 00	 mov	 rcx, QWORD PTR regs$[rsp]
  00286	e8 00 00 00 00	 call	 z900_program_interrupt
$LN67@z900_servi:

; 1492 : 
; 1493 :     /* Obtain the absolute address of the SCCB */
; 1494 :     sccb_absolute_addr = APPLY_PREFIXING( sccb_real_addr, regs->PX );

  0028b	8b 84 24 94 00
	00 00		 mov	 eax, DWORD PTR sccb_real_addr$[rsp]
  00292	48 25 00 e0 ff
	ff		 and	 rax, -8192		; ffffffffffffe000H
  00298	48 85 c0	 test	 rax, rax
  0029b	74 2c		 je	 SHORT $LN163@z900_servi
  0029d	8b 84 24 94 00
	00 00		 mov	 eax, DWORD PTR sccb_real_addr$[rsp]
  002a4	48 25 00 e0 ff
	ff		 and	 rax, -8192		; ffffffffffffe000H
  002aa	48 8b 8c 24 f8
	11 00 00	 mov	 rcx, QWORD PTR regs$[rsp]
  002b2	48 3b 41 70	 cmp	 rax, QWORD PTR [rcx+112]
  002b6	74 11		 je	 SHORT $LN163@z900_servi
  002b8	8b 84 24 94 00
	00 00		 mov	 eax, DWORD PTR sccb_real_addr$[rsp]
  002bf	48 89 84 24 40
	01 00 00	 mov	 QWORD PTR tv191[rsp], rax
  002c7	eb 1b		 jmp	 SHORT $LN164@z900_servi
$LN163@z900_servi:
  002c9	8b 84 24 94 00
	00 00		 mov	 eax, DWORD PTR sccb_real_addr$[rsp]
  002d0	48 8b 8c 24 f8
	11 00 00	 mov	 rcx, QWORD PTR regs$[rsp]
  002d8	48 33 41 70	 xor	 rax, QWORD PTR [rcx+112]
  002dc	48 89 84 24 40
	01 00 00	 mov	 QWORD PTR tv191[rsp], rax
$LN164@z900_servi:
  002e4	8b 84 24 40 01
	00 00		 mov	 eax, DWORD PTR tv191[rsp]
  002eb	89 44 24 64	 mov	 DWORD PTR sccb_absolute_addr$[rsp], eax

; 1495 : 
; 1496 :     /* Specification Exception if SCCB not below 2GB */
; 1497 :     if (sccb_absolute_addr >= (0x80000000 - sizeof( SCCB_HEADER )))

  002ef	8b 44 24 64	 mov	 eax, DWORD PTR sccb_absolute_addr$[rsp]
  002f3	48 3d f8 ff ff
	7f		 cmp	 rax, 2147483640		; 7ffffff8H
  002f9	72 12		 jb	 SHORT $LN68@z900_servi

; 1498 :         ARCH_DEP( program_interrupt )( regs, PGM_SPECIFICATION_EXCEPTION );

  002fb	ba 06 00 00 00	 mov	 edx, 6
  00300	48 8b 8c 24 f8
	11 00 00	 mov	 rcx, QWORD PTR regs$[rsp]
  00308	e8 00 00 00 00	 call	 z900_program_interrupt
$LN68@z900_servi:

; 1499 : 
; 1500 :     /* Point to service call control block */
; 1501 :     sccb = (SCCB_HEADER*)(regs->mainstor + sccb_absolute_addr);

  0030d	8b 44 24 64	 mov	 eax, DWORD PTR sccb_absolute_addr$[rsp]
  00311	48 8b 8c 24 f8
	11 00 00	 mov	 rcx, QWORD PTR regs$[rsp]
  00319	48 03 81 48 08
	00 00		 add	 rax, QWORD PTR [rcx+2120]
  00320	48 89 44 24 58	 mov	 QWORD PTR sccb$[rsp], rax

; 1502 : 
; 1503 :     /* Load SCCB length from header */
; 1504 :     FETCH_HW( sccblen, sccb->length  );

  00325	48 8b 44 24 58	 mov	 rax, QWORD PTR sccb$[rsp]
  0032a	48 8b c8	 mov	 rcx, rax
  0032d	e8 00 00 00 00	 call	 fetch_hw_noswap
  00332	0f b7 c8	 movzx	 ecx, ax
  00335	e8 00 00 00 00	 call	 _byteswap_ushort
  0033a	66 89 44 24 60	 mov	 WORD PTR sccblen$[rsp], ax

; 1505 : 
; 1506 :     /* Set the main storage reference bit */
; 1507 :     ARCH_DEP( or_storage_key )( sccb_absolute_addr, STORKEY_REF );

  0033f	8b 44 24 64	 mov	 eax, DWORD PTR sccb_absolute_addr$[rsp]
  00343	b2 04		 mov	 dl, 4
  00345	8b c8		 mov	 ecx, eax
  00347	e8 00 00 00 00	 call	 z900_or_storage_key

; 1508 : 
; 1509 :     /* Specification Exception if SCCB size less than 8 */
; 1510 :     if (sccblen < sizeof( SCCB_HEADER ))

  0034c	0f b7 44 24 60	 movzx	 eax, WORD PTR sccblen$[rsp]
  00351	48 83 f8 08	 cmp	 rax, 8
  00355	73 12		 jae	 SHORT $LN69@z900_servi

; 1511 :         ARCH_DEP( program_interrupt )( regs, PGM_SPECIFICATION_EXCEPTION );

  00357	ba 06 00 00 00	 mov	 edx, 6
  0035c	48 8b 8c 24 f8
	11 00 00	 mov	 rcx, QWORD PTR regs$[rsp]
  00364	e8 00 00 00 00	 call	 z900_program_interrupt
$LN69@z900_servi:

; 1512 : 
; 1513 :     /* Program check if SCCB falls outside of main storage,
; 1514 :        isn't below 2GB or overlaps low core or prefix area. */
; 1515 :     {
; 1516 :         U64 sccb_first_byte = (U64) sccb_absolute_addr;

  00369	8b 44 24 64	 mov	 eax, DWORD PTR sccb_absolute_addr$[rsp]
  0036d	48 89 84 24 38
	01 00 00	 mov	 QWORD PTR sccb_first_byte$6[rsp], rax

; 1517 :         U64 sccb_last_byte  = (U64) sccb_absolute_addr + sccblen - 1;

  00375	8b 44 24 64	 mov	 eax, DWORD PTR sccb_absolute_addr$[rsp]
  00379	0f b7 4c 24 60	 movzx	 ecx, WORD PTR sccblen$[rsp]
  0037e	48 8d 44 08 ff	 lea	 rax, QWORD PTR [rax+rcx-1]
  00383	48 89 84 24 10
	01 00 00	 mov	 QWORD PTR sccb_last_byte$4[rsp], rax

; 1518 : 
; 1519 :         if (0
; 1520 :             || sccb_first_byte < PSA_SIZE
; 1521 :             || sccb_last_byte > 0x80000000
; 1522 :             || (sccb_first_byte >= regs->PX && sccb_first_byte < (regs->PX + PSA_SIZE))
; 1523 :             || (sccb_last_byte  >= regs->PX && sccb_last_byte  < (regs->PX + PSA_SIZE))

  0038b	33 c0		 xor	 eax, eax
  0038d	85 c0		 test	 eax, eax
  0038f	0f 85 81 00 00
	00		 jne	 $LN71@z900_servi
  00395	48 81 bc 24 38
	01 00 00 00 20
	00 00		 cmp	 QWORD PTR sccb_first_byte$6[rsp], 8192 ; 00002000H
  003a1	72 73		 jb	 SHORT $LN71@z900_servi
  003a3	b8 00 00 00 80	 mov	 eax, -2147483648	; 80000000H
  003a8	48 39 84 24 10
	01 00 00	 cmp	 QWORD PTR sccb_last_byte$4[rsp], rax
  003b0	77 64		 ja	 SHORT $LN71@z900_servi
  003b2	48 8b 84 24 f8
	11 00 00	 mov	 rax, QWORD PTR regs$[rsp]
  003ba	48 8b 40 70	 mov	 rax, QWORD PTR [rax+112]
  003be	48 39 84 24 38
	01 00 00	 cmp	 QWORD PTR sccb_first_byte$6[rsp], rax
  003c6	72 1c		 jb	 SHORT $LN72@z900_servi
  003c8	48 8b 84 24 f8
	11 00 00	 mov	 rax, QWORD PTR regs$[rsp]
  003d0	48 8b 40 70	 mov	 rax, QWORD PTR [rax+112]
  003d4	48 05 00 20 00
	00		 add	 rax, 8192		; 00002000H
  003da	48 39 84 24 38
	01 00 00	 cmp	 QWORD PTR sccb_first_byte$6[rsp], rax
  003e2	72 32		 jb	 SHORT $LN71@z900_servi
$LN72@z900_servi:
  003e4	48 8b 84 24 f8
	11 00 00	 mov	 rax, QWORD PTR regs$[rsp]
  003ec	48 8b 40 70	 mov	 rax, QWORD PTR [rax+112]
  003f0	48 39 84 24 10
	01 00 00	 cmp	 QWORD PTR sccb_last_byte$4[rsp], rax
  003f8	72 2e		 jb	 SHORT $LN70@z900_servi
  003fa	48 8b 84 24 f8
	11 00 00	 mov	 rax, QWORD PTR regs$[rsp]
  00402	48 8b 40 70	 mov	 rax, QWORD PTR [rax+112]
  00406	48 05 00 20 00
	00		 add	 rax, 8192		; 00002000H
  0040c	48 39 84 24 10
	01 00 00	 cmp	 QWORD PTR sccb_last_byte$4[rsp], rax
  00414	73 12		 jae	 SHORT $LN70@z900_servi
$LN71@z900_servi:

; 1524 :         )
; 1525 :             ARCH_DEP( program_interrupt )( regs, PGM_SPECIFICATION_EXCEPTION );

  00416	ba 06 00 00 00	 mov	 edx, 6
  0041b	48 8b 8c 24 f8
	11 00 00	 mov	 rcx, QWORD PTR regs$[rsp]
  00423	e8 00 00 00 00	 call	 z900_program_interrupt
$LN70@z900_servi:

; 1526 : 
; 1527 :         if (sccb_last_byte > regs->mainlim)

  00428	48 8b 84 24 f8
	11 00 00	 mov	 rax, QWORD PTR regs$[rsp]
  00430	48 8b 80 58 08
	00 00		 mov	 rax, QWORD PTR [rax+2136]
  00437	48 39 84 24 10
	01 00 00	 cmp	 QWORD PTR sccb_last_byte$4[rsp], rax
  0043f	76 12		 jbe	 SHORT $LN73@z900_servi

; 1528 :             ARCH_DEP( program_interrupt )( regs, PGM_ADDRESSING_EXCEPTION );

  00441	ba 05 00 00 00	 mov	 edx, 5
  00446	48 8b 8c 24 f8
	11 00 00	 mov	 rcx, QWORD PTR regs$[rsp]
  0044e	e8 00 00 00 00	 call	 z900_program_interrupt
$LN73@z900_servi:

; 1529 :     }
; 1530 : 
; 1531 :     /* Obtain lock if immediate response is not requested */
; 1532 :     if (!(sccb->flag & SCCB_FLAG_SYNC)
; 1533 :         || (sclp_command & SCLP_COMMAND_CLASS) == 0x01)

  00453	48 8b 44 24 58	 mov	 rax, QWORD PTR sccb$[rsp]
  00458	0f b6 40 02	 movzx	 eax, BYTE PTR [rax+2]
  0045c	25 80 00 00 00	 and	 eax, 128		; 00000080H
  00461	85 c0		 test	 eax, eax
  00463	74 11		 je	 SHORT $LN75@z900_servi
  00465	8b 84 24 a0 00
	00 00		 mov	 eax, DWORD PTR sclp_command$[rsp]
  0046c	25 ff 00 00 00	 and	 eax, 255		; 000000ffH
  00471	83 f8 01	 cmp	 eax, 1
  00474	75 63		 jne	 SHORT $LN74@z900_servi
$LN75@z900_servi:

; 1534 :     {
; 1535 :         /* Obtain the interrupt lock */
; 1536 :         OBTAIN_INTLOCK( regs );

  00476	48 8d 15 00 00
	00 00		 lea	 rdx, OFFSET FLAT:$SG203010
  0047d	48 8b 8c 24 f8
	11 00 00	 mov	 rcx, QWORD PTR regs$[rsp]
  00485	e8 00 00 00 00	 call	 Obtain_Interrupt_Lock

; 1537 : 
; 1538 :         /* If a service signal is pending then return condition
; 1539 :            code 2 to indicate that service processor is busy */
; 1540 :         if (IS_IC_SERVSIG && (sysblk.servparm & SERVSIG_ADDR))

  0048a	48 8b 05 00 00
	00 00		 mov	 rax, QWORD PTR __imp_sysblk
  00491	8b 80 a0 12 00
	00		 mov	 eax, DWORD PTR [rax+4768]
  00497	25 00 02 00 00	 and	 eax, 512		; 00000200H
  0049c	85 c0		 test	 eax, eax
  0049e	74 39		 je	 SHORT $LN76@z900_servi
  004a0	48 8b 05 00 00
	00 00		 mov	 rax, QWORD PTR __imp_sysblk
  004a7	8b 80 90 12 00
	00		 mov	 eax, DWORD PTR [rax+4752]
  004ad	83 e0 f8	 and	 eax, -8			; fffffff8H
  004b0	85 c0		 test	 eax, eax
  004b2	74 25		 je	 SHORT $LN76@z900_servi

; 1541 :         {
; 1542 :             RELEASE_INTLOCK( regs );

  004b4	48 8d 15 00 00
	00 00		 lea	 rdx, OFFSET FLAT:$SG203012
  004bb	48 8b 8c 24 f8
	11 00 00	 mov	 rcx, QWORD PTR regs$[rsp]
  004c3	e8 00 00 00 00	 call	 Release_Interrupt_Lock

; 1543 :             regs->psw.cc = 2;

  004c8	48 8b 84 24 f8
	11 00 00	 mov	 rax, QWORD PTR regs$[rsp]
  004d0	c6 40 7c 02	 mov	 BYTE PTR [rax+124], 2

; 1544 :             return;

  004d4	e9 34 1c 00 00	 jmp	 $LN1@z900_servi
$LN76@z900_servi:
$LN74@z900_servi:

; 1545 :         }
; 1546 :     }
; 1547 : 
; 1548 :     /* Test SCLP command word */
; 1549 :     switch (sclp_command & SCLP_COMMAND_MASK)

  004d9	8b 84 24 a0 00
	00 00		 mov	 eax, DWORD PTR sclp_command$[rsp]
  004e0	25 ff 00 ff ff	 and	 eax, -65281		; ffff00ffH
  004e5	89 44 24 78	 mov	 DWORD PTR tv254[rsp], eax
  004e9	81 7c 24 78 01
	00 1c 00	 cmp	 DWORD PTR tv254[rsp], 1835009 ; 001c0001H
  004f1	77 55		 ja	 SHORT $LN177@z900_servi
  004f3	81 7c 24 78 01
	00 1c 00	 cmp	 DWORD PTR tv254[rsp], 1835009 ; 001c0001H
  004fb	0f 84 97 09 00
	00		 je	 $LN98@z900_servi
  00501	81 7c 24 78 01
	00 02 00	 cmp	 DWORD PTR tv254[rsp], 131073 ; 00020001H
  00509	0f 84 a2 00 00
	00		 je	 $LN80@z900_servi
  0050f	81 7c 24 78 01
	00 03 00	 cmp	 DWORD PTR tv254[rsp], 196609 ; 00030001H
  00517	0f 84 31 07 00
	00		 je	 $LN92@z900_servi
  0051d	81 7c 24 78 01
	00 10 00	 cmp	 DWORD PTR tv254[rsp], 1048577 ; 00100001H
  00525	0f 84 aa 18 00
	00		 je	 $LN152@z900_servi
  0052b	81 7c 24 78 01
	00 11 00	 cmp	 DWORD PTR tv254[rsp], 1114113 ; 00110001H
  00533	0f 84 3f 18 00
	00		 je	 $LN150@z900_servi
  00539	81 7c 24 78 01
	00 12 00	 cmp	 DWORD PTR tv254[rsp], 1179649 ; 00120001H
  00541	74 42		 je	 SHORT $LN77@z900_servi
  00543	e9 ea 18 00 00	 jmp	 $LN154@z900_servi
$LN177@z900_servi:
  00548	81 7c 24 78 01
	00 25 00	 cmp	 DWORD PTR tv254[rsp], 2424833 ; 00250001H
  00550	0f 84 ba 16 00
	00		 je	 $LN145@z900_servi
  00556	81 7c 24 78 05
	00 76 00	 cmp	 DWORD PTR tv254[rsp], 7733253 ; 00760005H
  0055e	0f 84 ed 09 00
	00		 je	 $LN101@z900_servi
  00564	81 7c 24 78 05
	00 77 00	 cmp	 DWORD PTR tv254[rsp], 7798789 ; 00770005H
  0056c	0f 84 00 10 00
	00		 je	 $LN122@z900_servi
  00572	81 7c 24 78 05
	00 78 00	 cmp	 DWORD PTR tv254[rsp], 7864325 ; 00780005H
  0057a	0f 84 90 12 00
	00		 je	 $LN135@z900_servi
  00580	e9 ad 18 00 00	 jmp	 $LN154@z900_servi
$LN77@z900_servi:

; 1550 :     {
; 1551 :     case SCLP_READ_IFL_INFO:
; 1552 : 
; 1553 :         /* READ_IFL_INFO is only valid for processor type IFL */
; 1554 :         if (sysblk.ptyp[ regs->cpuad ] != SCCB_PTYP_IFL)

  00585	48 8b 84 24 f8
	11 00 00	 mov	 rax, QWORD PTR regs$[rsp]
  0058d	0f b7 80 3c 08
	00 00		 movzx	 eax, WORD PTR [rax+2108]
  00594	48 8b 0d 00 00
	00 00		 mov	 rcx, QWORD PTR __imp_sysblk
  0059b	0f b6 84 01 48
	0b 00 00	 movzx	 eax, BYTE PTR [rcx+rax+2888]
  005a3	83 f8 03	 cmp	 eax, 3
  005a6	74 07		 je	 SHORT $LN78@z900_servi

; 1555 :             goto invalidcmd;

  005a8	e9 85 18 00 00	 jmp	 $invalidcmd$181
  005ad	eb 02		 jmp	 SHORT $LN79@z900_servi
$LN78@z900_servi:

; 1556 :         else
; 1557 :             goto read_scpinfo;

  005af	eb 6e		 jmp	 SHORT $read_scpinfo$182
$LN79@z900_servi:
$LN80@z900_servi:

; 1558 : 
; 1559 :     case SCLP_READ_SCP_INFO:
; 1560 : 
; 1561 :         /* READ_SCP_INFO is only valid for processor type CP */
; 1562 :         if (sysblk.ptyp[ regs->cpuad ] != SCCB_PTYP_CP)

  005b1	48 8b 84 24 f8
	11 00 00	 mov	 rax, QWORD PTR regs$[rsp]
  005b9	0f b7 80 3c 08
	00 00		 movzx	 eax, WORD PTR [rax+2108]
  005c0	48 8b 0d 00 00
	00 00		 mov	 rcx, QWORD PTR __imp_sysblk
  005c7	0f b6 84 01 48
	0b 00 00	 movzx	 eax, BYTE PTR [rcx+rax+2888]
  005cf	85 c0		 test	 eax, eax
  005d1	74 4c		 je	 SHORT $LN81@z900_servi

; 1563 :         {
; 1564 :             // "The configuration has been placed into a system check-
; 1565 :             //  stop state because of an incompatible service call"
; 1566 :             WRMSG( HHC00005, "W" );

  005d3	b9 01 00 00 00	 mov	 ecx, 1
  005d8	ff 15 00 00 00
	00		 call	 QWORD PTR __imp___acrt_iob_func
  005de	48 8d 0d 00 00
	00 00		 lea	 rcx, OFFSET FLAT:$SG203018
  005e5	48 89 4c 24 30	 mov	 QWORD PTR [rsp+48], rcx
  005ea	48 8d 0d 00 00
	00 00		 lea	 rcx, OFFSET FLAT:$SG203019
  005f1	48 89 4c 24 28	 mov	 QWORD PTR [rsp+40], rcx
  005f6	48 89 44 24 20	 mov	 QWORD PTR [rsp+32], rax
  005fb	41 b9 03 00 00
	00		 mov	 r9d, 3
  00601	4c 8d 05 00 00
	00 00		 lea	 r8, OFFSET FLAT:$SG203020
  00608	ba 1e 06 00 00	 mov	 edx, 1566		; 0000061eH
  0060d	48 8d 0d 00 00
	00 00		 lea	 rcx, OFFSET FLAT:$SG203021
  00614	ff 15 00 00 00
	00		 call	 QWORD PTR __imp_fwritemsg

; 1567 :             goto docheckstop;

  0061a	e9 f3 05 00 00	 jmp	 $docheckstop$183
$LN81@z900_servi:
$read_scpinfo$182:

; 1568 :             /*
; 1569 :              * Replace the following 2 lines with
; 1570 :              * goto invalidcmd
; 1571 :              * if this behavior is not satisfactory
; 1572 :              * ISW 20081221
; 1573 :              */
; 1574 :         }
; 1575 : 
; 1576 :     read_scpinfo:
; 1577 : 
; 1578 :         /* Set the main storage change bit */
; 1579 :         ARCH_DEP( or_storage_key )( sccb_absolute_addr, STORKEY_CHANGE );

  0061f	8b 44 24 64	 mov	 eax, DWORD PTR sccb_absolute_addr$[rsp]
  00623	b2 02		 mov	 dl, 2
  00625	8b c8		 mov	 ecx, eax
  00627	e8 00 00 00 00	 call	 z900_or_storage_key

; 1580 : 
; 1581 :         /* Set response code X'0100' if SCCB crosses a page boundary */
; 1582 :         if ((sccb_absolute_addr & STORAGE_KEY_PAGEMASK) !=

  0062c	8b 44 24 64	 mov	 eax, DWORD PTR sccb_absolute_addr$[rsp]
  00630	48 25 00 f0 ff
	ff		 and	 rax, -4096		; fffffffffffff000H
  00636	0f b7 4c 24 60	 movzx	 ecx, WORD PTR sccblen$[rsp]
  0063b	8b 54 24 64	 mov	 edx, DWORD PTR sccb_absolute_addr$[rsp]
  0063f	8d 4c 0a ff	 lea	 ecx, DWORD PTR [rdx+rcx-1]
  00643	8b c9		 mov	 ecx, ecx
  00645	48 81 e1 00 f0
	ff ff		 and	 rcx, -4096		; fffffffffffff000H
  0064c	48 3b c1	 cmp	 rax, rcx
  0064f	74 17		 je	 SHORT $LN82@z900_servi

; 1583 :            ((sccb_absolute_addr + sccblen - 1) & STORAGE_KEY_PAGEMASK))
; 1584 :         {
; 1585 :             sccb->reas = SCCB_REAS_NOT_PGBNDRY;

  00651	48 8b 44 24 58	 mov	 rax, QWORD PTR sccb$[rsp]
  00656	c6 40 06 01	 mov	 BYTE PTR [rax+6], 1

; 1586 :             sccb->resp = SCCB_RESP_BLOCK_ERROR;

  0065a	48 8b 44 24 58	 mov	 rax, QWORD PTR sccb$[rsp]
  0065f	c6 40 07 00	 mov	 BYTE PTR [rax+7], 0

; 1587 :             break;

  00663	e9 b2 18 00 00	 jmp	 $LN14@z900_servi
$LN82@z900_servi:

; 1588 :         }
; 1589 : 
; 1590 :         /* Set response code X'0300' if SCCB length
; 1591 :            is insufficient to contain SCP info */
; 1592 :         if ( sccblen < sizeof( SCCB_HEADER ) + sizeof( SCCB_SCP_INFO )

  00668	0f b7 44 24 60	 movzx	 eax, WORD PTR sccblen$[rsp]
  0066d	48 8b 0d 00 00
	00 00		 mov	 rcx, QWORD PTR __imp_sysblk
  00674	48 63 89 00 01
	00 00		 movsxd	 rcx, DWORD PTR [rcx+256]
  0067b	48 6b c9 10	 imul	 rcx, rcx, 16
  0067f	48 81 c1 80 00
	00 00		 add	 rcx, 128		; 00000080H
  00686	48 3b c1	 cmp	 rax, rcx
  00689	73 17		 jae	 SHORT $LN83@z900_servi

; 1593 :                 + (sizeof( SCCB_CPU_INFO ) * sysblk.maxcpu))
; 1594 :         {
; 1595 :             sccb->reas = SCCB_REAS_TOO_SHORT;

  0068b	48 8b 44 24 58	 mov	 rax, QWORD PTR sccb$[rsp]
  00690	c6 40 06 03	 mov	 BYTE PTR [rax+6], 3

; 1596 :             sccb->resp = SCCB_RESP_BLOCK_ERROR;

  00694	48 8b 44 24 58	 mov	 rax, QWORD PTR sccb$[rsp]
  00699	c6 40 07 00	 mov	 BYTE PTR [rax+7], 0

; 1597 :             break;

  0069d	e9 78 18 00 00	 jmp	 $LN14@z900_servi
$LN83@z900_servi:

; 1598 :         }
; 1599 : 
; 1600 :         /* Point to SCCB data area following SCCB header */
; 1601 :         sccbscp = (SCCB_SCP_INFO*)(sccb+1);

  006a2	48 8b 44 24 58	 mov	 rax, QWORD PTR sccb$[rsp]
  006a7	48 83 c0 08	 add	 rax, 8
  006ab	48 89 44 24 70	 mov	 QWORD PTR sccbscp$[rsp], rax

; 1602 :         memset( sccbscp, 0, sizeof( SCCB_SCP_INFO ));

  006b0	48 8b 7c 24 70	 mov	 rdi, QWORD PTR sccbscp$[rsp]
  006b5	33 c0		 xor	 eax, eax
  006b7	b9 78 00 00 00	 mov	 ecx, 120		; 00000078H
  006bc	f3 aa		 rep stosb
$LN18@z900_servi:

; 1603 : 
; 1604 :         /* Set main storage size in SCCB...
; 1605 :          *
; 1606 :          * PROGRAMMING NOTE: Hercules can support main storage sizes
; 1607 :          * up to slightly less than 16 EB (16384 PB = 16777216 TB),
; 1608 :          * even if the host operating system cannot.
; 1609 :          *
; 1610 :          * The guest architecural limit however is constrained by the
; 1611 :          * width of the realinum and realiszm SCCB fields (number of
; 1612 :          * increments and increment size in MB) which are only 16 bits
; 1613 :          * and 8 bits wide respectively. Thus the guest's maximum
; 1614 :          * storage size is architecturally limited to slightly less
; 1615 :          * than 16 TB (65535 increments * 255 MB increment size).
; 1616 :          *
; 1617 :          * This means if our main storage size is >= 64GB we must set
; 1618 :          * the increment size to a value which ensures the resulting
; 1619 :          * number of increments remains <= 65535.
; 1620 :          */
; 1621 : 
; 1622 :         ASSERT( sysblk.mainsize <= MAX_SCP_STORSIZE );

  006be	48 8b 05 00 00
	00 00		 mov	 rax, QWORD PTR __imp_sysblk
  006c5	48 b9 00 00 10
	f0 ef 0f 00 00	 mov	 rcx, 17523199180800	; 00000feff0100000H
  006cf	48 39 88 90 00
	00 00		 cmp	 QWORD PTR [rax+144], rcx
  006d6	76 5c		 jbe	 SHORT $LN84@z900_servi
$LN21@z900_servi:
  006d8	4c 8d 0d 00 00
	00 00		 lea	 r9, OFFSET FLAT:$SG203025
  006df	41 b8 56 06 00
	00		 mov	 r8d, 1622		; 00000656H
  006e5	48 8d 15 00 00
	00 00		 lea	 rdx, OFFSET FLAT:$SG203026
  006ec	48 8d 0d 00 00
	00 00		 lea	 rcx, OFFSET FLAT:$SG203027
  006f3	ff 15 00 00 00
	00		 call	 QWORD PTR __imp_logmsg
  006f9	ff 15 00 00 00
	00		 call	 QWORD PTR __imp_IsDebuggerPresent
  006ff	85 c0		 test	 eax, eax
  00701	74 20		 je	 SHORT $LN85@z900_servi
  00703	4c 8d 0d 00 00
	00 00		 lea	 r9, OFFSET FLAT:$SG203029
  0070a	41 b8 56 06 00
	00		 mov	 r8d, 1622		; 00000656H
  00710	48 8d 15 00 00
	00 00		 lea	 rdx, OFFSET FLAT:$SG203030
  00717	48 8d 0d 00 00
	00 00		 lea	 rcx, OFFSET FLAT:$SG203031
  0071e	e8 00 00 00 00	 call	 DebuggerTrace
$LN85@z900_servi:
  00723	33 c0		 xor	 eax, eax
  00725	85 c0		 test	 eax, eax
  00727	75 af		 jne	 SHORT $LN21@z900_servi
  00729	ff 15 00 00 00
	00		 call	 QWORD PTR __imp_IsDebuggerPresent
  0072f	85 c0		 test	 eax, eax
  00731	74 01		 je	 SHORT $LN86@z900_servi
  00733	cc		 int	 3
$LN86@z900_servi:
$LN84@z900_servi:
  00734	33 c0		 xor	 eax, eax
  00736	85 c0		 test	 eax, eax
  00738	75 84		 jne	 SHORT $LN18@z900_servi

; 1623 :         incsizemb = (sysblk.mainsize + (MAX_1MINCR_STORSIZE - 1)) / MAX_1MINCR_STORSIZE;

  0073a	48 8b 05 00 00
	00 00		 mov	 rax, QWORD PTR __imp_sysblk
  00741	48 8b 80 90 00
	00 00		 mov	 rax, QWORD PTR [rax+144]
  00748	48 b9 ff ff ef
	ff 0f 00 00 00	 mov	 rcx, 68718428159	; 0000000fffefffffH
  00752	48 03 c1	 add	 rax, rcx
  00755	33 d2		 xor	 edx, edx
  00757	48 b9 00 00 f0
	ff 0f 00 00 00	 mov	 rcx, 68718428160	; 0000000ffff00000H
  00761	48 f7 f1	 div	 rcx
  00764	89 84 24 f4 00
	00 00		 mov	 DWORD PTR incsizemb$[rsp], eax

; 1624 :         realinc = sysblk.mainsize / (incsizemb << SHIFT_MEGABYTE);

  0076b	8b 84 24 f4 00
	00 00		 mov	 eax, DWORD PTR incsizemb$[rsp]
  00772	c1 e0 14	 shl	 eax, 20
  00775	8b c0		 mov	 eax, eax
  00777	48 89 84 24 88
	01 00 00	 mov	 QWORD PTR tv326[rsp], rax
  0077f	33 d2		 xor	 edx, edx
  00781	48 8b 0d 00 00
	00 00		 mov	 rcx, QWORD PTR __imp_sysblk
  00788	48 8b 81 90 00
	00 00		 mov	 rax, QWORD PTR [rcx+144]
  0078f	48 8b 8c 24 88
	01 00 00	 mov	 rcx, QWORD PTR tv326[rsp]
  00797	48 f7 f1	 div	 rcx
  0079a	89 84 24 fc 00
	00 00		 mov	 DWORD PTR realinc$[rsp], eax

; 1625 : 
; 1626 :         STORE_HW( sccbscp->realinum, realinc );

  007a1	0f b7 8c 24 fc
	00 00 00	 movzx	 ecx, WORD PTR realinc$[rsp]
  007a9	e8 00 00 00 00	 call	 _byteswap_ushort
  007ae	48 8b 4c 24 70	 mov	 rcx, QWORD PTR sccbscp$[rsp]
  007b3	0f b7 d0	 movzx	 edx, ax
  007b6	e8 00 00 00 00	 call	 store_hw_noswap

; 1627 :         sccbscp->realiszm = (incsizemb & 0xFF);

  007bb	8b 84 24 f4 00
	00 00		 mov	 eax, DWORD PTR incsizemb$[rsp]
  007c2	25 ff 00 00 00	 and	 eax, 255		; 000000ffH
  007c7	48 8b 4c 24 70	 mov	 rcx, QWORD PTR sccbscp$[rsp]
  007cc	88 41 02	 mov	 BYTE PTR [rcx+2], al

; 1628 :         sccbscp->realbszk = 4;

  007cf	48 8b 44 24 70	 mov	 rax, QWORD PTR sccbscp$[rsp]
  007d4	c6 40 03 04	 mov	 BYTE PTR [rax+3], 4

; 1629 :         STORE_HW( sccbscp->realiint, 1 );

  007d8	66 b9 01 00	 mov	 cx, 1
  007dc	e8 00 00 00 00	 call	 _byteswap_ushort
  007e1	48 8b 4c 24 70	 mov	 rcx, QWORD PTR sccbscp$[rsp]
  007e6	48 83 c1 04	 add	 rcx, 4
  007ea	0f b7 d0	 movzx	 edx, ax
  007ed	e8 00 00 00 00	 call	 store_hw_noswap

; 1630 : 
; 1631 : #if defined( _900 ) || defined( FEATURE_001_ZARCH_INSTALLED_FACILITY )
; 1632 :         /* SIE supports the full address range */
; 1633 :         sccbscp->maxvm = 0;

  007f2	48 8b 44 24 70	 mov	 rax, QWORD PTR sccbscp$[rsp]
  007f7	c6 40 5b 00	 mov	 BYTE PTR [rax+91], 0

; 1634 :         /* realiszm is valid */
; 1635 :         STORE_FW( sccbscp->grzm, 0 );

  007fb	33 c9		 xor	 ecx, ecx
  007fd	e8 00 00 00 00	 call	 _byteswap_ulong
  00802	48 8b 4c 24 70	 mov	 rcx, QWORD PTR sccbscp$[rsp]
  00807	48 83 c1 5c	 add	 rcx, 92			; 0000005cH
  0080b	8b d0		 mov	 edx, eax
  0080d	e8 00 00 00 00	 call	 store_fw_noswap

; 1636 :         /* Number of storage increments installed in esame mode */
; 1637 :         STORE_DW( sccbscp->grnmx, realinc );

  00812	8b 84 24 fc 00
	00 00		 mov	 eax, DWORD PTR realinc$[rsp]
  00819	8b c8		 mov	 ecx, eax
  0081b	e8 00 00 00 00	 call	 _byteswap_uint64
  00820	48 8b 4c 24 70	 mov	 rcx, QWORD PTR sccbscp$[rsp]
  00825	48 83 c1 60	 add	 rcx, 96			; 00000060H
  00829	48 8b d0	 mov	 rdx, rax
  0082c	e8 00 00 00 00	 call	 store_dw_noswap

; 1638 : #endif
; 1639 : 
; 1640 : #if defined( FEATURE_EXPANDED_STORAGE )
; 1641 :         /* Set expanded storage size in SCCB */
; 1642 :         xstincnum = sysblk.xpndsize /

  00831	33 d2		 xor	 edx, edx
  00833	48 8b 05 00 00
	00 00		 mov	 rax, QWORD PTR __imp_sysblk
  0083a	8b 80 ac 00 00
	00		 mov	 eax, DWORD PTR [rax+172]
  00840	b9 00 01 00 00	 mov	 ecx, 256		; 00000100H
  00845	f7 f1		 div	 ecx
  00847	89 84 24 d8 00
	00 00		 mov	 DWORD PTR xstincnum$[rsp], eax

; 1643 :                     (XSTORE_INCREMENT_SIZE >> XSTORE_PAGESHIFT);
; 1644 :         STORE_FW( sccbscp->xpndinum, xstincnum );

  0084e	8b 8c 24 d8 00
	00 00		 mov	 ecx, DWORD PTR xstincnum$[rsp]
  00855	e8 00 00 00 00	 call	 _byteswap_ulong
  0085a	48 8b 4c 24 70	 mov	 rcx, QWORD PTR sccbscp$[rsp]
  0085f	48 83 c1 18	 add	 rcx, 24
  00863	8b d0		 mov	 edx, eax
  00865	e8 00 00 00 00	 call	 store_fw_noswap

; 1645 :         xstblkinc = XSTORE_INCREMENT_SIZE >> XSTORE_PAGESHIFT;

  0086a	c7 84 24 b8 00
	00 00 00 01 00
	00		 mov	 DWORD PTR xstblkinc$[rsp], 256 ; 00000100H

; 1646 :         STORE_FW( sccbscp->xpndsz4K, xstblkinc );

  00875	8b 8c 24 b8 00
	00 00		 mov	 ecx, DWORD PTR xstblkinc$[rsp]
  0087c	e8 00 00 00 00	 call	 _byteswap_ulong
  00881	48 8b 4c 24 70	 mov	 rcx, QWORD PTR sccbscp$[rsp]
  00886	48 83 c1 1c	 add	 rcx, 28
  0088a	8b d0		 mov	 edx, eax
  0088c	e8 00 00 00 00	 call	 store_fw_noswap

; 1647 : #endif
; 1648 : 
; 1649 : #if defined( FEATURE_S370_S390_VECTOR_FACILITY )
; 1650 :         /* Set the Vector section size in the SCCB */
; 1651 :         STORE_HW( sccbscp->vectssiz, VECTOR_SECTION_SIZE );
; 1652 :         /* Set the Vector partial sum number in the SCCB */
; 1653 :         STORE_HW( sccbscp->vectpsum, VECTOR_PARTIAL_SUM_NUMBER );
; 1654 : #endif
; 1655 :         /* Set CPU array count and offset in SCCB */
; 1656 :         STORE_HW( sccbscp->numcpu, sysblk.maxcpu );

  00891	48 8b 05 00 00
	00 00		 mov	 rax, QWORD PTR __imp_sysblk
  00898	0f b7 88 00 01
	00 00		 movzx	 ecx, WORD PTR [rax+256]
  0089f	e8 00 00 00 00	 call	 _byteswap_ushort
  008a4	48 8b 4c 24 70	 mov	 rcx, QWORD PTR sccbscp$[rsp]
  008a9	48 83 c1 08	 add	 rcx, 8
  008ad	0f b7 d0	 movzx	 edx, ax
  008b0	e8 00 00 00 00	 call	 store_hw_noswap

; 1657 :         offset = sizeof( SCCB_HEADER ) + sizeof( SCCB_SCP_INFO );

  008b5	b8 80 00 00 00	 mov	 eax, 128		; 00000080H
  008ba	66 89 44 24 68	 mov	 WORD PTR offset$[rsp], ax

; 1658 :         STORE_HW( sccbscp->offcpu, offset );

  008bf	0f b7 4c 24 68	 movzx	 ecx, WORD PTR offset$[rsp]
  008c4	e8 00 00 00 00	 call	 _byteswap_ushort
  008c9	48 8b 4c 24 70	 mov	 rcx, QWORD PTR sccbscp$[rsp]
  008ce	48 83 c1 0a	 add	 rcx, 10
  008d2	0f b7 d0	 movzx	 edx, ax
  008d5	e8 00 00 00 00	 call	 store_hw_noswap

; 1659 : 
; 1660 : #if defined( FEATURE_MPF_INFO )
; 1661 :         /* Set MPF array count and offset in SCCB */
; 1662 :         STORE_HW( sccbscp->nummpf, sysblk.maxcpu-1 );

  008da	48 8b 05 00 00
	00 00		 mov	 rax, QWORD PTR __imp_sysblk
  008e1	8b 80 00 01 00
	00		 mov	 eax, DWORD PTR [rax+256]
  008e7	ff c8		 dec	 eax
  008e9	0f b7 c8	 movzx	 ecx, ax
  008ec	e8 00 00 00 00	 call	 _byteswap_ushort
  008f1	48 8b 4c 24 70	 mov	 rcx, QWORD PTR sccbscp$[rsp]
  008f6	48 83 c1 40	 add	 rcx, 64			; 00000040H
  008fa	0f b7 d0	 movzx	 edx, ax
  008fd	e8 00 00 00 00	 call	 store_hw_noswap

; 1663 : #endif
; 1664 :         offset += (U16)sizeof( SCCB_CPU_INFO ) * sysblk.maxcpu;

  00902	48 8b 05 00 00
	00 00		 mov	 rax, QWORD PTR __imp_sysblk
  00909	6b 80 00 01 00
	00 10		 imul	 eax, DWORD PTR [rax+256], 16
  00910	0f b7 4c 24 68	 movzx	 ecx, WORD PTR offset$[rsp]
  00915	03 c8		 add	 ecx, eax
  00917	8b c1		 mov	 eax, ecx
  00919	66 89 44 24 68	 mov	 WORD PTR offset$[rsp], ax

; 1665 :         STORE_HW( sccbscp->offmpf, offset );

  0091e	0f b7 4c 24 68	 movzx	 ecx, WORD PTR offset$[rsp]
  00923	e8 00 00 00 00	 call	 _byteswap_ushort
  00928	48 8b 4c 24 70	 mov	 rcx, QWORD PTR sccbscp$[rsp]
  0092d	48 83 c1 42	 add	 rcx, 66			; 00000042H
  00931	0f b7 d0	 movzx	 edx, ax
  00934	e8 00 00 00 00	 call	 store_hw_noswap

; 1666 : 
; 1667 :         /* Set HSA array count and offset in SCCB */
; 1668 :         STORE_HW( sccbscp->numhsa, 0 );

  00939	33 c9		 xor	 ecx, ecx
  0093b	e8 00 00 00 00	 call	 _byteswap_ushort
  00940	48 8b 4c 24 70	 mov	 rcx, QWORD PTR sccbscp$[rsp]
  00945	48 83 c1 0c	 add	 rcx, 12
  00949	0f b7 d0	 movzx	 edx, ax
  0094c	e8 00 00 00 00	 call	 store_hw_noswap

; 1669 : 
; 1670 : #if defined( FEATURE_MPF_INFO )
; 1671 :         offset += (U16)sizeof( SCCB_MPF_INFO ) * sysblk.maxcpu-1;

  00951	48 8b 05 00 00
	00 00		 mov	 rax, QWORD PTR __imp_sysblk
  00958	8b 80 00 01 00
	00		 mov	 eax, DWORD PTR [rax+256]
  0095e	0f b7 4c 24 68	 movzx	 ecx, WORD PTR offset$[rsp]
  00963	8d 44 41 ff	 lea	 eax, DWORD PTR [rcx+rax*2-1]
  00967	66 89 44 24 68	 mov	 WORD PTR offset$[rsp], ax

; 1672 : #endif
; 1673 :         STORE_HW( sccbscp->offhsa, offset );

  0096c	0f b7 4c 24 68	 movzx	 ecx, WORD PTR offset$[rsp]
  00971	e8 00 00 00 00	 call	 _byteswap_ushort
  00976	48 8b 4c 24 70	 mov	 rcx, QWORD PTR sccbscp$[rsp]
  0097b	48 83 c1 0e	 add	 rcx, 14
  0097f	0f b7 d0	 movzx	 edx, ax
  00982	e8 00 00 00 00	 call	 store_hw_noswap

; 1674 : 
; 1675 :         /* Build the MPF information array after the CPU info */
; 1676 :         /* Move IPL load parameter to SCCB */
; 1677 :         get_loadparm( sccbscp->loadparm );

  00987	48 8b 44 24 70	 mov	 rax, QWORD PTR sccbscp$[rsp]
  0098c	48 83 c0 10	 add	 rax, 16
  00990	48 8b c8	 mov	 rcx, rax
  00993	e8 00 00 00 00	 call	 get_loadparm

; 1678 : 
; 1679 :         /* Set installed features bit mask in SCCB */
; 1680 :         memcpy( sccbscp->ifm, ARCH_DEP( scpinfo_ifm ), sizeof( sccbscp->ifm ));

  00998	48 8b 44 24 70	 mov	 rax, QWORD PTR sccbscp$[rsp]
  0099d	48 8b 0d 00 00
	00 00		 mov	 rcx, QWORD PTR z900_scpinfo_ifm
  009a4	48 89 48 28	 mov	 QWORD PTR [rax+40], rcx

; 1681 : 
; 1682 :         memcpy( sccbscp->cfg, ARCH_DEP( scpinfo_cfg ), sizeof( sccbscp->cfg ));

  009a8	48 8b 44 24 70	 mov	 rax, QWORD PTR sccbscp$[rsp]
  009ad	48 8d 0d 00 00
	00 00		 lea	 rcx, OFFSET FLAT:z900_scpinfo_cfg
  009b4	48 8d 78 48	 lea	 rdi, QWORD PTR [rax+72]
  009b8	48 8b f1	 mov	 rsi, rcx
  009bb	b9 06 00 00 00	 mov	 ecx, 6
  009c0	f3 a4		 rep movsb

; 1683 :         /* sccbscp->cfg11 = ARCH_DEP( scpinfo_cfg11 ); */
; 1684 : 
; 1685 :         /* Turn off bits for facilities that aren't enabled */
; 1686 :         if (!FACILITY_ENABLED( 016_EXT_TRANSL_2, regs ))

  009c2	b8 01 00 00 00	 mov	 eax, 1
  009c7	48 6b c0 02	 imul	 rax, rax, 2
  009cb	48 8b 8c 24 f8
	11 00 00	 mov	 rcx, QWORD PTR regs$[rsp]
  009d3	0f b6 84 01 28
	0d 00 00	 movzx	 eax, BYTE PTR [rcx+rax+3368]
  009db	25 80 00 00 00	 and	 eax, 128		; 00000080H
  009e0	85 c0		 test	 eax, eax
  009e2	75 28		 jne	 SHORT $LN87@z900_servi

; 1687 :             sccbscp->cfg[4] &= ~SCCB_CFG4_EXTENDED_TRANSLATION_FACILITY2;

  009e4	b8 01 00 00 00	 mov	 eax, 1
  009e9	48 6b c0 04	 imul	 rax, rax, 4
  009ed	48 8b 4c 24 70	 mov	 rcx, QWORD PTR sccbscp$[rsp]
  009f2	0f b6 44 01 48	 movzx	 eax, BYTE PTR [rcx+rax+72]
  009f7	83 e0 ef	 and	 eax, -17
  009fa	b9 01 00 00 00	 mov	 ecx, 1
  009ff	48 6b c9 04	 imul	 rcx, rcx, 4
  00a03	48 8b 54 24 70	 mov	 rdx, QWORD PTR sccbscp$[rsp]
  00a08	88 44 0a 48	 mov	 BYTE PTR [rdx+rcx+72], al
$LN87@z900_servi:

; 1688 : 
; 1689 :         if (!FACILITY_ENABLED( 009_SENSE_RUN_STATUS, regs ))

  00a0c	b8 01 00 00 00	 mov	 eax, 1
  00a11	48 6b c0 01	 imul	 rax, rax, 1
  00a15	48 8b 8c 24 f8
	11 00 00	 mov	 rcx, QWORD PTR regs$[rsp]
  00a1d	0f b6 84 01 28
	0d 00 00	 movzx	 eax, BYTE PTR [rcx+rax+3368]
  00a25	83 e0 40	 and	 eax, 64			; 00000040H
  00a28	85 c0		 test	 eax, eax
  00a2a	75 28		 jne	 SHORT $LN88@z900_servi

; 1690 :             sccbscp->cfg[5] &= ~SCCB_CFG5_SENSE_RUNNING_STATUS;

  00a2c	b8 01 00 00 00	 mov	 eax, 1
  00a31	48 6b c0 05	 imul	 rax, rax, 5
  00a35	48 8b 4c 24 70	 mov	 rcx, QWORD PTR sccbscp$[rsp]
  00a3a	0f b6 44 01 48	 movzx	 eax, BYTE PTR [rcx+rax+72]
  00a3f	83 e0 f7	 and	 eax, -9
  00a42	b9 01 00 00 00	 mov	 ecx, 1
  00a47	48 6b c9 05	 imul	 rcx, rcx, 5
  00a4b	48 8b 54 24 70	 mov	 rdx, QWORD PTR sccbscp$[rsp]
  00a50	88 44 0a 48	 mov	 BYTE PTR [rdx+rcx+72], al
$LN88@z900_servi:

; 1691 : 
; 1692 :         /* Turn on additioal bits for facilities that ARE enabled */
; 1693 :         if (0
; 1694 : #if defined( _FEATURE_HYPERVISOR )
; 1695 :             || FACILITY_ENABLED( HERC_LOGICAL_PARTITION, regs )
; 1696 : #endif
; 1697 : #if defined( _FEATURE_EMULATE_VM )
; 1698 :             || FACILITY_ENABLED( HERC_VIRTUAL_MACHINE, regs )

  00a54	33 c0		 xor	 eax, eax
  00a56	85 c0		 test	 eax, eax
  00a58	75 40		 jne	 SHORT $LN90@z900_servi
  00a5a	b8 01 00 00 00	 mov	 eax, 1
  00a5f	48 6b c0 20	 imul	 rax, rax, 32		; 00000020H
  00a63	48 8b 8c 24 f8
	11 00 00	 mov	 rcx, QWORD PTR regs$[rsp]
  00a6b	0f b6 84 01 28
	0d 00 00	 movzx	 eax, BYTE PTR [rcx+rax+3368]
  00a73	83 e0 08	 and	 eax, 8
  00a76	85 c0		 test	 eax, eax
  00a78	75 20		 jne	 SHORT $LN90@z900_servi
  00a7a	b8 01 00 00 00	 mov	 eax, 1
  00a7f	48 6b c0 21	 imul	 rax, rax, 33		; 00000021H
  00a83	48 8b 8c 24 f8
	11 00 00	 mov	 rcx, QWORD PTR regs$[rsp]
  00a8b	0f b6 84 01 28
	0d 00 00	 movzx	 eax, BYTE PTR [rcx+rax+3368]
  00a93	83 e0 01	 and	 eax, 1
  00a96	85 c0		 test	 eax, eax
  00a98	74 29		 je	 SHORT $LN89@z900_servi
$LN90@z900_servi:

; 1699 : #endif
; 1700 :         )
; 1701 :             sccbscp->cfg[0] |= SCCB_CFG0_LOGICALLY_PARTITIONED;

  00a9a	b8 01 00 00 00	 mov	 eax, 1
  00a9f	48 6b c0 00	 imul	 rax, rax, 0
  00aa3	48 8b 4c 24 70	 mov	 rcx, QWORD PTR sccbscp$[rsp]
  00aa8	0f b6 44 01 48	 movzx	 eax, BYTE PTR [rcx+rax+72]
  00aad	0f ba e8 07	 bts	 eax, 7
  00ab1	b9 01 00 00 00	 mov	 ecx, 1
  00ab6	48 6b c9 00	 imul	 rcx, rcx, 0
  00aba	48 8b 54 24 70	 mov	 rdx, QWORD PTR sccbscp$[rsp]
  00abf	88 44 0a 48	 mov	 BYTE PTR [rdx+rcx+72], al
$LN89@z900_servi:

; 1702 : 
; 1703 : #if defined( _900 ) || defined( FEATURE_001_ZARCH_INSTALLED_FACILITY )
; 1704 :         if (FACILITY_ENABLED( 001_ZARCH_INSTALLED, regs ))

  00ac3	b8 01 00 00 00	 mov	 eax, 1
  00ac8	48 6b c0 00	 imul	 rax, rax, 0
  00acc	48 8b 8c 24 f8
	11 00 00	 mov	 rcx, QWORD PTR regs$[rsp]
  00ad4	0f b6 84 01 28
	0d 00 00	 movzx	 eax, BYTE PTR [rcx+rax+3368]
  00adc	83 e0 40	 and	 eax, 64			; 00000040H
  00adf	85 c0		 test	 eax, eax
  00ae1	74 28		 je	 SHORT $LN91@z900_servi

; 1705 :             sccbscp->cfg[5] |= SCCB_CFG5_ESAME;

  00ae3	b8 01 00 00 00	 mov	 eax, 1
  00ae8	48 6b c0 05	 imul	 rax, rax, 5
  00aec	48 8b 4c 24 70	 mov	 rcx, QWORD PTR sccbscp$[rsp]
  00af1	0f b6 44 01 48	 movzx	 eax, BYTE PTR [rcx+rax+72]
  00af6	83 c8 01	 or	 eax, 1
  00af9	b9 01 00 00 00	 mov	 ecx, 1
  00afe	48 6b c9 05	 imul	 rcx, rcx, 5
  00b02	48 8b 54 24 70	 mov	 rdx, QWORD PTR sccbscp$[rsp]
  00b07	88 44 0a 48	 mov	 BYTE PTR [rdx+rcx+72], al
$LN91@z900_servi:

; 1706 : #endif
; 1707 : 
; 1708 :         /* Build the CPU information array after the SCP info */
; 1709 :         sccbcpu = (SCCB_CPU_INFO*)(sccbscp+1);

  00b0b	48 8b 44 24 70	 mov	 rax, QWORD PTR sccbscp$[rsp]
  00b10	48 83 c0 78	 add	 rax, 120		; 00000078H
  00b14	48 89 84 24 c8
	00 00 00	 mov	 QWORD PTR sccbcpu$[rsp], rax

; 1710 : 
; 1711 :         for (i=0; i < sysblk.maxcpu; i++, sccbcpu++)

  00b1c	c7 44 24 50 00
	00 00 00	 mov	 DWORD PTR i$[rsp], 0
  00b24	eb 1e		 jmp	 SHORT $LN24@z900_servi
$LN22@z900_servi:
  00b26	8b 44 24 50	 mov	 eax, DWORD PTR i$[rsp]
  00b2a	ff c0		 inc	 eax
  00b2c	89 44 24 50	 mov	 DWORD PTR i$[rsp], eax
  00b30	48 8b 84 24 c8
	00 00 00	 mov	 rax, QWORD PTR sccbcpu$[rsp]
  00b38	48 83 c0 10	 add	 rax, 16
  00b3c	48 89 84 24 c8
	00 00 00	 mov	 QWORD PTR sccbcpu$[rsp], rax
$LN24@z900_servi:
  00b44	48 8b 05 00 00
	00 00		 mov	 rax, QWORD PTR __imp_sysblk
  00b4b	8b 80 00 01 00
	00		 mov	 eax, DWORD PTR [rax+256]
  00b51	39 44 24 50	 cmp	 DWORD PTR i$[rsp], eax
  00b55	7d 6d		 jge	 SHORT $LN23@z900_servi

; 1712 :         {
; 1713 :             memset( sccbcpu, 0, sizeof( SCCB_CPU_INFO ));

  00b57	48 8b bc 24 c8
	00 00 00	 mov	 rdi, QWORD PTR sccbcpu$[rsp]
  00b5f	33 c0		 xor	 eax, eax
  00b61	b9 10 00 00 00	 mov	 ecx, 16
  00b66	f3 aa		 rep stosb

; 1714 :             sccbcpu->cpa = i;

  00b68	48 8b 84 24 c8
	00 00 00	 mov	 rax, QWORD PTR sccbcpu$[rsp]
  00b70	0f b6 4c 24 50	 movzx	 ecx, BYTE PTR i$[rsp]
  00b75	88 08		 mov	 BYTE PTR [rax], cl

; 1715 :             sccbcpu->tod = 0;

  00b77	48 8b 84 24 c8
	00 00 00	 mov	 rax, QWORD PTR sccbcpu$[rsp]
  00b7f	c6 40 01 00	 mov	 BYTE PTR [rax+1], 0

; 1716 :             memcpy( sccbcpu->cpf, ARCH_DEP( scpinfo_cpf ), sizeof( sccbcpu->cpf ));

  00b83	48 8b 84 24 c8
	00 00 00	 mov	 rax, QWORD PTR sccbcpu$[rsp]
  00b8b	48 8d 0d 00 00
	00 00		 lea	 rcx, OFFSET FLAT:z900_scpinfo_cpf
  00b92	48 8d 78 02	 lea	 rdi, QWORD PTR [rax+2]
  00b96	48 8b f1	 mov	 rsi, rcx
  00b99	b9 0c 00 00 00	 mov	 ecx, 12
  00b9e	f3 a4		 rep movsb

; 1717 :             sccbcpu->ptyp = sysblk.ptyp[i];

  00ba0	48 63 44 24 50	 movsxd	 rax, DWORD PTR i$[rsp]
  00ba5	48 8b 8c 24 c8
	00 00 00	 mov	 rcx, QWORD PTR sccbcpu$[rsp]
  00bad	48 8b 15 00 00
	00 00		 mov	 rdx, QWORD PTR __imp_sysblk
  00bb4	0f b6 84 02 48
	0b 00 00	 movzx	 eax, BYTE PTR [rdx+rax+2888]
  00bbc	88 41 0e	 mov	 BYTE PTR [rcx+14], al

; 1718 : 
; 1719 : #if defined( FEATURE_CRYPTO )
; 1720 : //          sccbcpu->ksid = SCCB_KSID_CRYPTO_UNIT_ID;
; 1721 : #endif
; 1722 : 
; 1723 : #if defined( FEATURE_S370_S390_VECTOR_FACILITY )
; 1724 : 
; 1725 :             if (IS_CPU_ONLINE(i) && sysblk.regs[i]->vf->online)
; 1726 :                 sccbcpu->cpf[2] |= SCCB_CPF2_VECTOR_FEATURE_INSTALLED;
; 1727 :             if (IS_CPU_ONLINE(i) && sysblk.regs[i]->vf->online)
; 1728 :                 sccbcpu->cpf[2] |= SCCB_CPF2_VECTOR_FEATURE_CONNECTED;
; 1729 :             if (!IS_CPU_ONLINE(i))
; 1730 :                 sccbcpu->cpf[2] |= SCCB_CPF2_VECTOR_FEATURE_STANDBY_STATE;
; 1731 : #endif
; 1732 :         }

  00bbf	e9 62 ff ff ff	 jmp	 $LN22@z900_servi
$LN23@z900_servi:

; 1733 : 
; 1734 : #if defined( FEATURE_MPF_INFO )
; 1735 : 
; 1736 :         /* Define machine capacity */
; 1737 :         STORE_FW( sccbscp->rcci, 10000 );

  00bc4	b9 10 27 00 00	 mov	 ecx, 10000		; 00002710H
  00bc9	e8 00 00 00 00	 call	 _byteswap_ulong
  00bce	48 8b 4c 24 70	 mov	 rcx, QWORD PTR sccbscp$[rsp]
  00bd3	48 83 c1 4e	 add	 rcx, 78			; 0000004eH
  00bd7	8b d0		 mov	 edx, eax
  00bd9	e8 00 00 00 00	 call	 store_fw_noswap

; 1738 : 
; 1739 :         /* Fill in the MP Factors array */
; 1740 :         sccbmpf = (SCCB_MPF_INFO*)(sccbcpu);

  00bde	48 8b 84 24 c8
	00 00 00	 mov	 rax, QWORD PTR sccbcpu$[rsp]
  00be6	48 89 84 24 90
	01 00 00	 mov	 QWORD PTR sccbmpf$[rsp], rax

; 1741 :         get_mpfactors((BYTE*)sccbmpf);

  00bee	48 8b 8c 24 90
	01 00 00	 mov	 rcx, QWORD PTR sccbmpf$[rsp]
  00bf6	e8 00 00 00 00	 call	 get_mpfactors

; 1742 : #endif
; 1743 : 
; 1744 :         /* Set response code X'0010' in SCCB header */
; 1745 :         sccb->reas = SCCB_REAS_NONE;

  00bfb	48 8b 44 24 58	 mov	 rax, QWORD PTR sccb$[rsp]
  00c00	c6 40 06 00	 mov	 BYTE PTR [rax+6], 0

; 1746 :         sccb->resp = SCCB_RESP_INFO;

  00c04	48 8b 44 24 58	 mov	 rax, QWORD PTR sccb$[rsp]
  00c09	c6 40 07 10	 mov	 BYTE PTR [rax+7], 16

; 1747 :         break;

  00c0d	e9 08 13 00 00	 jmp	 $LN14@z900_servi
$docheckstop$183:

; 1748 : 
; 1749 : docheckstop:
; 1750 : 
; 1751 :         ARCH_DEP( checkstop_all_cpus )( regs );

  00c12	48 8b 8c 24 f8
	11 00 00	 mov	 rcx, QWORD PTR regs$[rsp]
  00c1a	e8 00 00 00 00	 call	 z900_checkstop_all_cpus

; 1752 :         RELEASE_INTLOCK( regs );

  00c1f	48 8d 15 00 00
	00 00		 lea	 rdx, OFFSET FLAT:$SG203038
  00c26	48 8b 8c 24 f8
	11 00 00	 mov	 rcx, QWORD PTR regs$[rsp]
  00c2e	e8 00 00 00 00	 call	 Release_Interrupt_Lock

; 1753 :         longjmp( regs->progjmp, SIE_NO_INTERCEPT );

  00c33	48 8b 84 24 f8
	11 00 00	 mov	 rax, QWORD PTR regs$[rsp]
  00c3b	48 05 80 09 00
	00		 add	 rax, 2432		; 00000980H
  00c41	ba ff ff ff ff	 mov	 edx, -1
  00c46	48 8b c8	 mov	 rcx, rax
  00c49	e8 00 00 00 00	 call	 longjmp
$LN92@z900_servi:

; 1754 :         UNREACHABLE_CODE( return );
; 1755 : 
; 1756 :     case SCLP_READ_CHP_INFO:
; 1757 : 
; 1758 :         /* Set the main storage change bit */
; 1759 :         ARCH_DEP( or_storage_key )( sccb_absolute_addr, STORKEY_CHANGE );

  00c4e	8b 44 24 64	 mov	 eax, DWORD PTR sccb_absolute_addr$[rsp]
  00c52	b2 02		 mov	 dl, 2
  00c54	8b c8		 mov	 ecx, eax
  00c56	e8 00 00 00 00	 call	 z900_or_storage_key

; 1760 : 
; 1761 :         /* Set response code X'0100' if SCCB crosses a page boundary */
; 1762 :         if ((sccb_absolute_addr & STORAGE_KEY_PAGEMASK) !=

  00c5b	8b 44 24 64	 mov	 eax, DWORD PTR sccb_absolute_addr$[rsp]
  00c5f	48 25 00 f0 ff
	ff		 and	 rax, -4096		; fffffffffffff000H
  00c65	0f b7 4c 24 60	 movzx	 ecx, WORD PTR sccblen$[rsp]
  00c6a	8b 54 24 64	 mov	 edx, DWORD PTR sccb_absolute_addr$[rsp]
  00c6e	8d 4c 0a ff	 lea	 ecx, DWORD PTR [rdx+rcx-1]
  00c72	8b c9		 mov	 ecx, ecx
  00c74	48 81 e1 00 f0
	ff ff		 and	 rcx, -4096		; fffffffffffff000H
  00c7b	48 3b c1	 cmp	 rax, rcx
  00c7e	74 17		 je	 SHORT $LN93@z900_servi

; 1763 :            ((sccb_absolute_addr + sccblen - 1) & STORAGE_KEY_PAGEMASK))
; 1764 :         {
; 1765 :             sccb->reas = SCCB_REAS_NOT_PGBNDRY;

  00c80	48 8b 44 24 58	 mov	 rax, QWORD PTR sccb$[rsp]
  00c85	c6 40 06 01	 mov	 BYTE PTR [rax+6], 1

; 1766 :             sccb->resp = SCCB_RESP_BLOCK_ERROR;

  00c89	48 8b 44 24 58	 mov	 rax, QWORD PTR sccb$[rsp]
  00c8e	c6 40 07 00	 mov	 BYTE PTR [rax+7], 0

; 1767 :             break;

  00c92	e9 83 12 00 00	 jmp	 $LN14@z900_servi
$LN93@z900_servi:

; 1768 :         }
; 1769 : 
; 1770 :         /* Set response code X'0300' if SCCB length
; 1771 :            is insufficient to contain channel path info */
; 1772 :         if ( sccblen < sizeof( SCCB_HEADER ) + sizeof( SCCB_CHP_INFO ))

  00c97	0f b7 44 24 60	 movzx	 eax, WORD PTR sccblen$[rsp]
  00c9c	48 83 f8 68	 cmp	 rax, 104		; 00000068H
  00ca0	73 17		 jae	 SHORT $LN94@z900_servi

; 1773 :         {
; 1774 :             sccb->reas = SCCB_REAS_TOO_SHORT;

  00ca2	48 8b 44 24 58	 mov	 rax, QWORD PTR sccb$[rsp]
  00ca7	c6 40 06 03	 mov	 BYTE PTR [rax+6], 3

; 1775 :             sccb->resp = SCCB_RESP_BLOCK_ERROR;

  00cab	48 8b 44 24 58	 mov	 rax, QWORD PTR sccb$[rsp]
  00cb0	c6 40 07 00	 mov	 BYTE PTR [rax+7], 0

; 1776 :             break;

  00cb4	e9 61 12 00 00	 jmp	 $LN14@z900_servi
$LN94@z900_servi:

; 1777 :         }
; 1778 : 
; 1779 : #if defined( FEATURE_S370_CHANNEL )
; 1780 : 
; 1781 :         /* Point to SCCB data area following SCCB header */
; 1782 :         sccbchp = (SCCB_CHSET_INFO*)(sccb+1);
; 1783 :         memset( sccbchp, 0, sizeof( SCCB_CHSET_INFO ));
; 1784 : #else
; 1785 :         /* Point to SCCB data area following SCCB header */
; 1786 :         sccbchp = (SCCB_CHP_INFO*)(sccb+1);

  00cb9	48 8b 44 24 58	 mov	 rax, QWORD PTR sccb$[rsp]
  00cbe	48 83 c0 08	 add	 rax, 8
  00cc2	48 89 84 24 e8
	00 00 00	 mov	 QWORD PTR sccbchp$[rsp], rax

; 1787 :         memset( sccbchp, 0, sizeof( SCCB_CHP_INFO ));

  00cca	48 8b bc 24 e8
	00 00 00	 mov	 rdi, QWORD PTR sccbchp$[rsp]
  00cd2	33 c0		 xor	 eax, eax
  00cd4	b9 60 00 00 00	 mov	 ecx, 96			; 00000060H
  00cd9	f3 aa		 rep stosb

; 1788 : #endif
; 1789 : 
; 1790 : #if defined( FEATURE_CHANNEL_SUBSYSTEM )
; 1791 : 
; 1792 :         /* Identify CHPIDs installed, standby, and online */
; 1793 :         for (dev = sysblk.firstdev; dev != NULL; dev = dev->nextdev)

  00cdb	48 8b 05 00 00
	00 00		 mov	 rax, QWORD PTR __imp_sysblk
  00ce2	48 8b 80 c0 11
	00 00		 mov	 rax, QWORD PTR [rax+4544]
  00ce9	48 89 84 24 e0
	00 00 00	 mov	 QWORD PTR dev$[rsp], rax
  00cf1	eb 14		 jmp	 SHORT $LN27@z900_servi
$LN25@z900_servi:
  00cf3	48 8b 84 24 e0
	00 00 00	 mov	 rax, QWORD PTR dev$[rsp]
  00cfb	48 8b 40 30	 mov	 rax, QWORD PTR [rax+48]
  00cff	48 89 84 24 e0
	00 00 00	 mov	 QWORD PTR dev$[rsp], rax
$LN27@z900_servi:
  00d07	48 83 bc 24 e0
	00 00 00 00	 cmp	 QWORD PTR dev$[rsp], 0
  00d10	0f 84 6b 01 00
	00		 je	 $LN26@z900_servi

; 1794 :         {
; 1795 :             for (i=0; i < 8; i++)

  00d16	c7 44 24 50 00
	00 00 00	 mov	 DWORD PTR i$[rsp], 0
  00d1e	eb 0a		 jmp	 SHORT $LN30@z900_servi
$LN28@z900_servi:
  00d20	8b 44 24 50	 mov	 eax, DWORD PTR i$[rsp]
  00d24	ff c0		 inc	 eax
  00d26	89 44 24 50	 mov	 DWORD PTR i$[rsp], eax
$LN30@z900_servi:
  00d2a	83 7c 24 50 08	 cmp	 DWORD PTR i$[rsp], 8
  00d2f	0f 8d 47 01 00
	00		 jge	 $LN29@z900_servi

; 1796 :             {
; 1797 :                 chpbyte = dev->pmcw.chpid[i] / 8;

  00d35	48 63 44 24 50	 movsxd	 rax, DWORD PTR i$[rsp]
  00d3a	48 8b 8c 24 e0
	00 00 00	 mov	 rcx, QWORD PTR dev$[rsp]
  00d42	0f b6 84 01 fc
	02 00 00	 movzx	 eax, BYTE PTR [rcx+rax+764]
  00d4a	99		 cdq
  00d4b	83 e2 07	 and	 edx, 7
  00d4e	03 c2		 add	 eax, edx
  00d50	c1 f8 03	 sar	 eax, 3
  00d53	89 84 24 98 00
	00 00		 mov	 DWORD PTR chpbyte$[rsp], eax

; 1798 :                 chpbit  = dev->pmcw.chpid[i] % 8;

  00d5a	48 63 44 24 50	 movsxd	 rax, DWORD PTR i$[rsp]
  00d5f	48 8b 8c 24 e0
	00 00 00	 mov	 rcx, QWORD PTR dev$[rsp]
  00d67	0f b6 84 01 fc
	02 00 00	 movzx	 eax, BYTE PTR [rcx+rax+764]
  00d6f	99		 cdq
  00d70	83 e2 07	 and	 edx, 7
  00d73	03 c2		 add	 eax, edx
  00d75	83 e0 07	 and	 eax, 7
  00d78	2b c2		 sub	 eax, edx
  00d7a	89 84 24 d4 00
	00 00		 mov	 DWORD PTR chpbit$[rsp], eax

; 1799 : 
; 1800 :                 if ( ((0x80 >> i) & dev->pmcw.pim))

  00d81	8b 44 24 50	 mov	 eax, DWORD PTR i$[rsp]
  00d85	b9 80 00 00 00	 mov	 ecx, 128		; 00000080H
  00d8a	89 8c 24 2c 01
	00 00		 mov	 DWORD PTR tv1661[rsp], ecx
  00d91	0f b6 c8	 movzx	 ecx, al
  00d94	8b 84 24 2c 01
	00 00		 mov	 eax, DWORD PTR tv1661[rsp]
  00d9b	d3 f8		 sar	 eax, cl
  00d9d	48 8b 8c 24 e0
	00 00 00	 mov	 rcx, QWORD PTR dev$[rsp]
  00da5	0f b6 89 f7 02
	00 00		 movzx	 ecx, BYTE PTR [rcx+759]
  00dac	23 c1		 and	 eax, ecx
  00dae	85 c0		 test	 eax, eax
  00db0	0f 84 c1 00 00
	00		 je	 $LN95@z900_servi

; 1801 :                 {
; 1802 :                     sccbchp->installed  [ chpbyte ] |= 0x80 >> chpbit;

  00db6	8b 84 24 98 00
	00 00		 mov	 eax, DWORD PTR chpbyte$[rsp]
  00dbd	8b 8c 24 d4 00
	00 00		 mov	 ecx, DWORD PTR chpbit$[rsp]
  00dc4	ba 80 00 00 00	 mov	 edx, 128		; 00000080H
  00dc9	d3 fa		 sar	 edx, cl
  00dcb	8b ca		 mov	 ecx, edx
  00dcd	48 8b 94 24 e8
	00 00 00	 mov	 rdx, QWORD PTR sccbchp$[rsp]
  00dd5	0f b6 04 02	 movzx	 eax, BYTE PTR [rdx+rax]
  00dd9	0b c1		 or	 eax, ecx
  00ddb	8b 8c 24 98 00
	00 00		 mov	 ecx, DWORD PTR chpbyte$[rsp]
  00de2	48 8b 94 24 e8
	00 00 00	 mov	 rdx, QWORD PTR sccbchp$[rsp]
  00dea	88 04 0a	 mov	 BYTE PTR [rdx+rcx], al

; 1803 : 
; 1804 :                     if (dev->pmcw.flag5 & PMCW5_V)

  00ded	48 8b 84 24 e0
	00 00 00	 mov	 rax, QWORD PTR dev$[rsp]
  00df5	0f b6 80 f1 02
	00 00		 movzx	 eax, BYTE PTR [rax+753]
  00dfc	83 e0 01	 and	 eax, 1
  00dff	85 c0		 test	 eax, eax
  00e01	74 3b		 je	 SHORT $LN96@z900_servi

; 1805 :                         sccbchp->online [ chpbyte ] |= 0x80 >> chpbit;

  00e03	8b 84 24 98 00
	00 00		 mov	 eax, DWORD PTR chpbyte$[rsp]
  00e0a	8b 8c 24 d4 00
	00 00		 mov	 ecx, DWORD PTR chpbit$[rsp]
  00e11	ba 80 00 00 00	 mov	 edx, 128		; 00000080H
  00e16	d3 fa		 sar	 edx, cl
  00e18	8b ca		 mov	 ecx, edx
  00e1a	48 8b 94 24 e8
	00 00 00	 mov	 rdx, QWORD PTR sccbchp$[rsp]
  00e22	0f b6 44 02 40	 movzx	 eax, BYTE PTR [rdx+rax+64]
  00e27	0b c1		 or	 eax, ecx
  00e29	8b 8c 24 98 00
	00 00		 mov	 ecx, DWORD PTR chpbyte$[rsp]
  00e30	48 8b 94 24 e8
	00 00 00	 mov	 rdx, QWORD PTR sccbchp$[rsp]
  00e38	88 44 0a 40	 mov	 BYTE PTR [rdx+rcx+64], al
  00e3c	eb 39		 jmp	 SHORT $LN97@z900_servi
$LN96@z900_servi:

; 1806 :                     else
; 1807 :                         sccbchp->standby[ chpbyte ] |= 0x80 >> chpbit;

  00e3e	8b 84 24 98 00
	00 00		 mov	 eax, DWORD PTR chpbyte$[rsp]
  00e45	8b 8c 24 d4 00
	00 00		 mov	 ecx, DWORD PTR chpbit$[rsp]
  00e4c	ba 80 00 00 00	 mov	 edx, 128		; 00000080H
  00e51	d3 fa		 sar	 edx, cl
  00e53	8b ca		 mov	 ecx, edx
  00e55	48 8b 94 24 e8
	00 00 00	 mov	 rdx, QWORD PTR sccbchp$[rsp]
  00e5d	0f b6 44 02 20	 movzx	 eax, BYTE PTR [rdx+rax+32]
  00e62	0b c1		 or	 eax, ecx
  00e64	8b 8c 24 98 00
	00 00		 mov	 ecx, DWORD PTR chpbyte$[rsp]
  00e6b	48 8b 94 24 e8
	00 00 00	 mov	 rdx, QWORD PTR sccbchp$[rsp]
  00e73	88 44 0a 20	 mov	 BYTE PTR [rdx+rcx+32], al
$LN97@z900_servi:
$LN95@z900_servi:

; 1808 :                 }
; 1809 :             }

  00e77	e9 a4 fe ff ff	 jmp	 $LN28@z900_servi
$LN29@z900_servi:

; 1810 :         }

  00e7c	e9 72 fe ff ff	 jmp	 $LN25@z900_servi
$LN26@z900_servi:

; 1811 : #endif
; 1812 : 
; 1813 : #if defined( FEATURE_S370_CHANNEL )
; 1814 : 
; 1815 :         /* For S/370, initialize identifiers for channel set 0A */
; 1816 :         for (i=0; i < 16; i++)
; 1817 :         {
; 1818 :             sccbchp->chanset0a[ 2*i + 0 ] = 0x80;
; 1819 :             sccbchp->chanset0a[ 2*i + 1 ] = i;
; 1820 :         }
; 1821 : 
; 1822 :         /* Set the channel set configuration byte */
; 1823 :         sccbchp->csconfig = 0xC0;
; 1824 : 
; 1825 : #endif
; 1826 : 
; 1827 :         /* Set response code X'0010' in SCCB header */
; 1828 :         sccb->reas = SCCB_REAS_NONE;

  00e81	48 8b 44 24 58	 mov	 rax, QWORD PTR sccb$[rsp]
  00e86	c6 40 06 00	 mov	 BYTE PTR [rax+6], 0

; 1829 :         sccb->resp = SCCB_RESP_INFO;

  00e8a	48 8b 44 24 58	 mov	 rax, QWORD PTR sccb$[rsp]
  00e8f	c6 40 07 10	 mov	 BYTE PTR [rax+7], 16

; 1830 :         break;

  00e93	e9 82 10 00 00	 jmp	 $LN14@z900_servi
$LN98@z900_servi:

; 1831 : 
; 1832 :     case SCLP_READ_CSI_INFO:
; 1833 : 
; 1834 :         /* Set the main storage change bit */
; 1835 :         ARCH_DEP( or_storage_key )( sccb_absolute_addr, STORKEY_CHANGE );

  00e98	8b 44 24 64	 mov	 eax, DWORD PTR sccb_absolute_addr$[rsp]
  00e9c	b2 02		 mov	 dl, 2
  00e9e	8b c8		 mov	 ecx, eax
  00ea0	e8 00 00 00 00	 call	 z900_or_storage_key

; 1836 : 
; 1837 :         /* Set response code X'0100' if SCCB crosses a page boundary */
; 1838 :         if ((sccb_absolute_addr & STORAGE_KEY_PAGEMASK) !=

  00ea5	8b 44 24 64	 mov	 eax, DWORD PTR sccb_absolute_addr$[rsp]
  00ea9	48 25 00 f0 ff
	ff		 and	 rax, -4096		; fffffffffffff000H
  00eaf	0f b7 4c 24 60	 movzx	 ecx, WORD PTR sccblen$[rsp]
  00eb4	8b 54 24 64	 mov	 edx, DWORD PTR sccb_absolute_addr$[rsp]
  00eb8	8d 4c 0a ff	 lea	 ecx, DWORD PTR [rdx+rcx-1]
  00ebc	8b c9		 mov	 ecx, ecx
  00ebe	48 81 e1 00 f0
	ff ff		 and	 rcx, -4096		; fffffffffffff000H
  00ec5	48 3b c1	 cmp	 rax, rcx
  00ec8	74 17		 je	 SHORT $LN99@z900_servi

; 1839 :             ((sccb_absolute_addr + sccblen - 1) & STORAGE_KEY_PAGEMASK))
; 1840 :         {
; 1841 :             sccb->reas = SCCB_REAS_NOT_PGBNDRY;

  00eca	48 8b 44 24 58	 mov	 rax, QWORD PTR sccb$[rsp]
  00ecf	c6 40 06 01	 mov	 BYTE PTR [rax+6], 1

; 1842 :             sccb->resp = SCCB_RESP_BLOCK_ERROR;

  00ed3	48 8b 44 24 58	 mov	 rax, QWORD PTR sccb$[rsp]
  00ed8	c6 40 07 00	 mov	 BYTE PTR [rax+7], 0

; 1843 :             break;

  00edc	e9 39 10 00 00	 jmp	 $LN14@z900_servi
$LN99@z900_servi:

; 1844 :         }
; 1845 : 
; 1846 :         /* Set response code X'0300' if SCCB length
; 1847 :            is insufficient to contain channel path info */
; 1848 :         if ( sccblen < sizeof( SCCB_HEADER ) + sizeof( SCCB_CSI_INFO ))

  00ee1	0f b7 44 24 60	 movzx	 eax, WORD PTR sccblen$[rsp]
  00ee6	48 83 f8 40	 cmp	 rax, 64			; 00000040H
  00eea	73 17		 jae	 SHORT $LN100@z900_servi

; 1849 :         {
; 1850 :             sccb->reas = SCCB_REAS_TOO_SHORT;

  00eec	48 8b 44 24 58	 mov	 rax, QWORD PTR sccb$[rsp]
  00ef1	c6 40 06 03	 mov	 BYTE PTR [rax+6], 3

; 1851 :             sccb->resp = SCCB_RESP_BLOCK_ERROR;

  00ef5	48 8b 44 24 58	 mov	 rax, QWORD PTR sccb$[rsp]
  00efa	c6 40 07 00	 mov	 BYTE PTR [rax+7], 0

; 1852 :             break;

  00efe	e9 17 10 00 00	 jmp	 $LN14@z900_servi
$LN100@z900_servi:

; 1853 :         }
; 1854 : 
; 1855 :         /* Point to SCCB data area following SCCB header */
; 1856 :         sccbcsi = (SCCB_CSI_INFO*)(sccb+1);

  00f03	48 8b 44 24 58	 mov	 rax, QWORD PTR sccb$[rsp]
  00f08	48 83 c0 08	 add	 rax, 8
  00f0c	48 89 84 24 48
	01 00 00	 mov	 QWORD PTR sccbcsi$[rsp], rax

; 1857 :         memset( sccbcsi, 0, sizeof( SCCB_CSI_INFO ));

  00f14	48 8b bc 24 48
	01 00 00	 mov	 rdi, QWORD PTR sccbcsi$[rsp]
  00f1c	33 c0		 xor	 eax, eax
  00f1e	b9 38 00 00 00	 mov	 ecx, 56			; 00000038H
  00f23	f3 aa		 rep stosb

; 1858 : 
; 1859 :         sccbcsi->csif[0] =

  00f25	b8 01 00 00 00	 mov	 eax, 1
  00f2a	48 6b c0 00	 imul	 rax, rax, 0
  00f2e	48 8b 8c 24 48
	01 00 00	 mov	 rcx, QWORD PTR sccbcsi$[rsp]
  00f36	c6 04 01 03	 mov	 BYTE PTR [rcx+rax], 3

; 1860 :             0
; 1861 : #if defined( FEATURE_CANCEL_IO_FACILITY )
; 1862 :             | SCCB_CSI0_CANCEL_IO_REQUEST_FACILITY
; 1863 : #endif
; 1864 :             | SCCB_CSI0_CONCURRENT_SENSE_FACILITY
; 1865 :             ;
; 1866 : 
; 1867 :         /* Set response code X'0010' in SCCB header */
; 1868 :         sccb->reas = SCCB_REAS_NONE;

  00f3a	48 8b 44 24 58	 mov	 rax, QWORD PTR sccb$[rsp]
  00f3f	c6 40 06 00	 mov	 BYTE PTR [rax+6], 0

; 1869 :         sccb->resp = SCCB_RESP_INFO;

  00f43	48 8b 44 24 58	 mov	 rax, QWORD PTR sccb$[rsp]
  00f48	c6 40 07 10	 mov	 BYTE PTR [rax+7], 16

; 1870 :         break;

  00f4c	e9 c9 0f 00 00	 jmp	 $LN14@z900_servi
$LN101@z900_servi:

; 1871 : 
; 1872 : #if defined( FEATURE_SYSTEM_CONSOLE )
; 1873 : 
; 1874 :     case SCLP_WRITE_EVENT_DATA:
; 1875 : 
; 1876 :         /* Set the main storage change bit */
; 1877 :         ARCH_DEP( or_storage_key )( sccb_absolute_addr, STORKEY_CHANGE );

  00f51	8b 44 24 64	 mov	 eax, DWORD PTR sccb_absolute_addr$[rsp]
  00f55	b2 02		 mov	 dl, 2
  00f57	8b c8		 mov	 ecx, eax
  00f59	e8 00 00 00 00	 call	 z900_or_storage_key

; 1878 : 
; 1879 :         /* Set response code X'0100' if SCCB crosses a page boundary */
; 1880 :         if ((sccb_absolute_addr & STORAGE_KEY_PAGEMASK) !=

  00f5e	8b 44 24 64	 mov	 eax, DWORD PTR sccb_absolute_addr$[rsp]
  00f62	48 25 00 f0 ff
	ff		 and	 rax, -4096		; fffffffffffff000H
  00f68	0f b7 4c 24 60	 movzx	 ecx, WORD PTR sccblen$[rsp]
  00f6d	8b 54 24 64	 mov	 edx, DWORD PTR sccb_absolute_addr$[rsp]
  00f71	8d 4c 0a ff	 lea	 ecx, DWORD PTR [rdx+rcx-1]
  00f75	8b c9		 mov	 ecx, ecx
  00f77	48 81 e1 00 f0
	ff ff		 and	 rcx, -4096		; fffffffffffff000H
  00f7e	48 3b c1	 cmp	 rax, rcx
  00f81	74 17		 je	 SHORT $LN102@z900_servi

; 1881 :             ((sccb_absolute_addr + sccblen - 1) & STORAGE_KEY_PAGEMASK))
; 1882 :         {
; 1883 :             sccb->reas = SCCB_REAS_NOT_PGBNDRY;

  00f83	48 8b 44 24 58	 mov	 rax, QWORD PTR sccb$[rsp]
  00f88	c6 40 06 01	 mov	 BYTE PTR [rax+6], 1

; 1884 :             sccb->resp = SCCB_RESP_BLOCK_ERROR;

  00f8c	48 8b 44 24 58	 mov	 rax, QWORD PTR sccb$[rsp]
  00f91	c6 40 07 00	 mov	 BYTE PTR [rax+7], 0

; 1885 :             break;

  00f95	e9 80 0f 00 00	 jmp	 $LN14@z900_servi
$LN102@z900_servi:

; 1886 :         }
; 1887 : 
; 1888 :         /* Point to SCCB data area following SCCB header */
; 1889 :         evd_hdr = (SCCB_EVD_HDR*)(sccb+1);

  00f9a	48 8b 44 24 58	 mov	 rax, QWORD PTR sccb$[rsp]
  00f9f	48 83 c0 08	 add	 rax, 8
  00fa3	48 89 84 24 a8
	00 00 00	 mov	 QWORD PTR evd_hdr$[rsp], rax

; 1890 :         FETCH_HW( evd_len, evd_hdr->totlen );

  00fab	48 8b 84 24 a8
	00 00 00	 mov	 rax, QWORD PTR evd_hdr$[rsp]
  00fb3	48 8b c8	 mov	 rcx, rax
  00fb6	e8 00 00 00 00	 call	 fetch_hw_noswap
  00fbb	0f b7 c8	 movzx	 ecx, ax
  00fbe	e8 00 00 00 00	 call	 _byteswap_ushort
  00fc3	66 89 84 24 8c
	00 00 00	 mov	 WORD PTR evd_len$[rsp], ax

; 1891 : 
; 1892 :         switch (evd_hdr->type)

  00fcb	48 8b 84 24 a8
	00 00 00	 mov	 rax, QWORD PTR evd_hdr$[rsp]
  00fd3	0f b6 40 02	 movzx	 eax, BYTE PTR [rax+2]
  00fd7	89 84 24 b4 00
	00 00		 mov	 DWORD PTR tv669[rsp], eax
  00fde	8b 84 24 b4 00
	00 00		 mov	 eax, DWORD PTR tv669[rsp]
  00fe5	83 e8 02	 sub	 eax, 2
  00fe8	89 84 24 b4 00
	00 00		 mov	 DWORD PTR tv669[rsp], eax
  00fef	83 bc 24 b4 00
	00 00 1a	 cmp	 DWORD PTR tv669[rsp], 26
  00ff7	0f 87 89 04 00
	00		 ja	 $LN119@z900_servi
  00ffd	48 63 84 24 b4
	00 00 00	 movsxd	 rax, DWORD PTR tv669[rsp]
  01005	48 8d 0d 00 00
	00 00		 lea	 rcx, OFFSET FLAT:__ImageBase
  0100c	0f b6 84 01 00
	00 00 00	 movzx	 eax, BYTE PTR $LN178@z900_servi[rcx+rax]
  01014	8b 84 81 00 00
	00 00		 mov	 eax, DWORD PTR $LN179@z900_servi[rcx+rax*4]
  0101b	48 03 c1	 add	 rax, rcx
  0101e	ff e0		 jmp	 rax
$LN103@z900_servi:
$LN104@z900_servi:
$LN33@z900_servi:

; 1893 :         {
; 1894 :         case SCCB_EVD_TYPE_MSG:
; 1895 :         case SCCB_EVD_TYPE_PRIOR:
; 1896 : 
; 1897 :             while (sccblen > sizeof( SCCB_HEADER ))

  01020	0f b7 44 24 60	 movzx	 eax, WORD PTR sccblen$[rsp]
  01025	48 83 f8 08	 cmp	 rax, 8
  01029	0f 86 f5 03 00
	00		 jbe	 $LN34@z900_servi

; 1898 :             {
; 1899 :                 FETCH_HW( evd_len, evd_hdr->totlen );

  0102f	48 8b 84 24 a8
	00 00 00	 mov	 rax, QWORD PTR evd_hdr$[rsp]
  01037	48 8b c8	 mov	 rcx, rax
  0103a	e8 00 00 00 00	 call	 fetch_hw_noswap
  0103f	0f b7 c8	 movzx	 ecx, ax
  01042	e8 00 00 00 00	 call	 _byteswap_ushort
  01047	66 89 84 24 8c
	00 00 00	 mov	 WORD PTR evd_len$[rsp], ax

; 1900 : 
; 1901 :                 /* Point to the Message Control Data Block */
; 1902 :                 mcd_bk = (SCCB_MCD_BK*)(evd_hdr+1);

  0104f	48 8b 84 24 a8
	00 00 00	 mov	 rax, QWORD PTR evd_hdr$[rsp]
  01057	48 83 c0 06	 add	 rax, 6
  0105b	48 89 84 24 50
	01 00 00	 mov	 QWORD PTR mcd_bk$[rsp], rax

; 1903 :                 FETCH_HW( mcd_len, mcd_bk->length );

  01063	48 8b 84 24 50
	01 00 00	 mov	 rax, QWORD PTR mcd_bk$[rsp]
  0106b	48 8b c8	 mov	 rcx, rax
  0106e	e8 00 00 00 00	 call	 fetch_hw_noswap
  01073	0f b7 c8	 movzx	 ecx, ax
  01076	e8 00 00 00 00	 call	 _byteswap_ushort
  0107b	66 89 84 24 88
	00 00 00	 mov	 WORD PTR mcd_len$[rsp], ax

; 1904 : 
; 1905 :                 obj_hdr = (SCCB_OBJ_HDR*)(mcd_bk+1);

  01083	48 8b 84 24 50
	01 00 00	 mov	 rax, QWORD PTR mcd_bk$[rsp]
  0108b	48 83 c0 0c	 add	 rax, 12
  0108f	48 89 84 24 08
	01 00 00	 mov	 QWORD PTR obj_hdr$[rsp], rax
$LN35@z900_servi:

; 1906 : 
; 1907 :                 while (mcd_len > sizeof( SCCB_MCD_BK ))

  01097	0f b7 84 24 88
	00 00 00	 movzx	 eax, WORD PTR mcd_len$[rsp]
  0109f	48 83 f8 0c	 cmp	 rax, 12
  010a3	0f 86 27 03 00
	00		 jbe	 $LN36@z900_servi

; 1908 :                 {
; 1909 :                     FETCH_HW( obj_len, obj_hdr->length );

  010a9	48 8b 84 24 08
	01 00 00	 mov	 rax, QWORD PTR obj_hdr$[rsp]
  010b1	48 8b c8	 mov	 rcx, rax
  010b4	e8 00 00 00 00	 call	 fetch_hw_noswap
  010b9	0f b7 c8	 movzx	 ecx, ax
  010bc	e8 00 00 00 00	 call	 _byteswap_ushort
  010c1	66 89 84 24 80
	00 00 00	 mov	 WORD PTR obj_len$[rsp], ax

; 1910 : 
; 1911 :                     if (obj_len == 0)

  010c9	0f b7 84 24 80
	00 00 00	 movzx	 eax, WORD PTR obj_len$[rsp]
  010d1	85 c0		 test	 eax, eax
  010d3	75 17		 jne	 SHORT $LN105@z900_servi

; 1912 :                     {
; 1913 :                         sccb->reas = SCCB_REAS_BUFF_LEN_ERR;

  010d5	48 8b 44 24 58	 mov	 rax, QWORD PTR sccb$[rsp]
  010da	c6 40 06 72	 mov	 BYTE PTR [rax+6], 114	; 00000072H

; 1914 :                         sccb->resp = SCCB_RESP_BUFF_LEN_ERR;

  010de	48 8b 44 24 58	 mov	 rax, QWORD PTR sccb$[rsp]
  010e3	c6 40 07 f0	 mov	 BYTE PTR [rax+7], 240	; 000000f0H

; 1915 :                         break;

  010e7	e9 e4 02 00 00	 jmp	 $LN36@z900_servi
$LN105@z900_servi:

; 1916 :                     }
; 1917 : 
; 1918 :                     FETCH_HW( obj_type, obj_hdr->type );

  010ec	48 8b 84 24 08
	01 00 00	 mov	 rax, QWORD PTR obj_hdr$[rsp]
  010f4	48 83 c0 02	 add	 rax, 2
  010f8	48 8b c8	 mov	 rcx, rax
  010fb	e8 00 00 00 00	 call	 fetch_hw_noswap
  01100	0f b7 c8	 movzx	 ecx, ax
  01103	e8 00 00 00 00	 call	 _byteswap_ushort
  01108	66 89 84 24 d0
	00 00 00	 mov	 WORD PTR obj_type$[rsp], ax

; 1919 : 
; 1920 :                     if (obj_type == SCCB_OBJ_TYPE_MESSAGE)

  01110	0f b7 84 24 d0
	00 00 00	 movzx	 eax, WORD PTR obj_type$[rsp]
  01118	83 f8 04	 cmp	 eax, 4
  0111b	0f 85 70 02 00
	00		 jne	 $LN106@z900_servi

; 1921 :                     {
; 1922 :                         mto_bk = (SCCB_MTO_BK*)(obj_hdr+1);

  01121	48 8b 84 24 08
	01 00 00	 mov	 rax, QWORD PTR obj_hdr$[rsp]
  01129	48 83 c0 04	 add	 rax, 4
  0112d	48 89 84 24 58
	01 00 00	 mov	 QWORD PTR mto_bk$[rsp], rax

; 1923 :                         evd_msg = (BYTE*)(mto_bk+1);

  01135	48 8b 84 24 58
	01 00 00	 mov	 rax, QWORD PTR mto_bk$[rsp]
  0113d	48 83 c0 06	 add	 rax, 6
  01141	48 89 84 24 18
	01 00 00	 mov	 QWORD PTR evd_msg$[rsp], rax

; 1924 :                         event_msglen = obj_len -

  01149	0f b7 84 24 80
	00 00 00	 movzx	 eax, WORD PTR obj_len$[rsp]
  01151	48 83 e8 0a	 sub	 rax, 10
  01155	89 84 24 84 00
	00 00		 mov	 DWORD PTR event_msglen$[rsp], eax

; 1925 :                                 (sizeof( SCCB_OBJ_HDR ) + sizeof( SCCB_MTO_BK ));
; 1926 : 
; 1927 :                         if (event_msglen < 0)

  0115c	83 bc 24 84 00
	00 00 00	 cmp	 DWORD PTR event_msglen$[rsp], 0
  01164	7d 17		 jge	 SHORT $LN107@z900_servi

; 1928 :                         {
; 1929 :                             sccb->reas = SCCB_REAS_BUFF_LEN_ERR;

  01166	48 8b 44 24 58	 mov	 rax, QWORD PTR sccb$[rsp]
  0116b	c6 40 06 72	 mov	 BYTE PTR [rax+6], 114	; 00000072H

; 1930 :                             sccb->resp = SCCB_RESP_BUFF_LEN_ERR;

  0116f	48 8b 44 24 58	 mov	 rax, QWORD PTR sccb$[rsp]
  01174	c6 40 07 f0	 mov	 BYTE PTR [rax+7], 240	; 000000f0H

; 1931 :                             break;

  01178	e9 53 02 00 00	 jmp	 $LN36@z900_servi
$LN107@z900_servi:

; 1932 :                         }
; 1933 : 
; 1934 :                         /* Make sure we don't overflow our buffer! */
; 1935 :                         if (event_msglen >= (int) sizeof( message ) - 1)

  0117d	81 bc 24 84 00
	00 00 f8 0f 00
	00		 cmp	 DWORD PTR event_msglen$[rsp], 4088 ; 00000ff8H
  01188	7c 76		 jl	 SHORT $LN108@z900_servi

; 1936 :                         {
; 1937 :                             int trunc_len = (int) sizeof( message ) - 1;

  0118a	c7 84 24 00 01
	00 00 f8 0f 00
	00		 mov	 DWORD PTR trunc_len$3[rsp], 4088 ; 00000ff8H

; 1938 :                             // "Overly long %d byte SCP message truncated to %d bytes"
; 1939 :                             WRMSG( HHC00159, "W", event_msglen, trunc_len );

  01195	b9 01 00 00 00	 mov	 ecx, 1
  0119a	ff 15 00 00 00
	00		 call	 QWORD PTR __imp___acrt_iob_func
  011a0	8b 8c 24 00 01
	00 00		 mov	 ecx, DWORD PTR trunc_len$3[rsp]
  011a7	89 4c 24 40	 mov	 DWORD PTR [rsp+64], ecx
  011ab	8b 8c 24 84 00
	00 00		 mov	 ecx, DWORD PTR event_msglen$[rsp]
  011b2	89 4c 24 38	 mov	 DWORD PTR [rsp+56], ecx
  011b6	48 8d 0d 00 00
	00 00		 lea	 rcx, OFFSET FLAT:$SG203056
  011bd	48 89 4c 24 30	 mov	 QWORD PTR [rsp+48], rcx
  011c2	48 8d 0d 00 00
	00 00		 lea	 rcx, OFFSET FLAT:$SG203057
  011c9	48 89 4c 24 28	 mov	 QWORD PTR [rsp+40], rcx
  011ce	48 89 44 24 20	 mov	 QWORD PTR [rsp+32], rax
  011d3	41 b9 03 00 00
	00		 mov	 r9d, 3
  011d9	4c 8d 05 00 00
	00 00		 lea	 r8, OFFSET FLAT:$SG203058
  011e0	ba 93 07 00 00	 mov	 edx, 1939		; 00000793H
  011e5	48 8d 0d 00 00
	00 00		 lea	 rcx, OFFSET FLAT:$SG203059
  011ec	ff 15 00 00 00
	00		 call	 QWORD PTR __imp_fwritemsg

; 1940 :                             event_msglen = trunc_len;

  011f2	8b 84 24 00 01
	00 00		 mov	 eax, DWORD PTR trunc_len$3[rsp]
  011f9	89 84 24 84 00
	00 00		 mov	 DWORD PTR event_msglen$[rsp], eax
$LN108@z900_servi:

; 1941 :                         }
; 1942 : 
; 1943 :                         /* Print line unless it is a response prompt */
; 1944 :                         if (!(mto_bk->ltflag[0] & SCCB_MTO_LTFLG0_PROMPT))

  01200	b8 01 00 00 00	 mov	 eax, 1
  01205	48 6b c0 00	 imul	 rax, rax, 0
  01209	48 8b 8c 24 58
	01 00 00	 mov	 rcx, QWORD PTR mto_bk$[rsp]
  01211	0f b6 04 01	 movzx	 eax, BYTE PTR [rcx+rax]
  01215	83 e0 08	 and	 eax, 8
  01218	85 c0		 test	 eax, eax
  0121a	0f 85 71 01 00
	00		 jne	 $LN109@z900_servi

; 1945 :                         {
; 1946 :                             static bool s390x_linux_detected = false;
; 1947 :                             static bool is_s390x_linux = false;
; 1948 : 
; 1949 : #if 0 // debug: save raw EBCDIC message for test program
; 1950 : static bool once = false;
; 1951 : static FILE* efile;
; 1952 : U16 u16_len = (U16) event_msglen;
; 1953 : U16 big_endian_u16_len = CSWAP16( u16_len );
; 1954 : if (!once)
; 1955 : {
; 1956 :     once = true;
; 1957 :     efile = fopen( "e_msgs.dat", "wb" );
; 1958 : }
; 1959 : fwrite( &big_endian_u16_len, 1, 2, efile );
; 1960 : fwrite( evd_msg, 1, u16_len, efile );
; 1961 : fflush( efile );
; 1962 : #endif // debug: save raw EBCDIC message for test program
; 1963 : 
; 1964 :                             /* Try to auto-detect if this is s390x Linux */
; 1965 :                             if (!s390x_linux_detected)

  01220	0f b6 05 00 00
	00 00		 movzx	 eax, BYTE PTR ?s390x_linux_detected@?CG@??z900_service_call@@9@9
  01227	85 c0		 test	 eax, eax
  01229	75 3a		 jne	 SHORT $LN110@z900_servi

; 1966 :                             {
; 1967 :                                 /* Look for EBCDIC 'ESC' character */
; 1968 :                                 if (event_msglen && memchr( evd_msg, 0x4A, event_msglen ))

  0122b	83 bc 24 84 00
	00 00 00	 cmp	 DWORD PTR event_msglen$[rsp], 0
  01233	74 30		 je	 SHORT $LN111@z900_servi
  01235	48 63 84 24 84
	00 00 00	 movsxd	 rax, DWORD PTR event_msglen$[rsp]
  0123d	4c 8b c0	 mov	 r8, rax
  01240	ba 4a 00 00 00	 mov	 edx, 74			; 0000004aH
  01245	48 8b 8c 24 18
	01 00 00	 mov	 rcx, QWORD PTR evd_msg$[rsp]
  0124d	e8 00 00 00 00	 call	 memchr
  01252	48 85 c0	 test	 rax, rax
  01255	74 0e		 je	 SHORT $LN111@z900_servi

; 1969 :                                 {
; 1970 :                                     s390x_linux_detected = true;

  01257	c6 05 00 00 00
	00 01		 mov	 BYTE PTR ?s390x_linux_detected@?CG@??z900_service_call@@9@9, 1

; 1971 :                                     is_s390x_linux = true;

  0125e	c6 05 00 00 00
	00 01		 mov	 BYTE PTR ?is_s390x_linux@?CG@??z900_service_call@@9@9, 1
$LN111@z900_servi:
$LN110@z900_servi:

; 1972 :                                 }
; 1973 :                             }
; 1974 : 
; 1975 :                             /* If this is s390x Linux... */
; 1976 :                             if (is_s390x_linux)

  01265	0f b6 05 00 00
	00 00		 movzx	 eax, BYTE PTR ?is_s390x_linux@?CG@??z900_service_call@@9@9
  0126c	85 c0		 test	 eax, eax
  0126e	74 19		 je	 SHORT $LN112@z900_servi

; 1977 :                             {
; 1978 :                                 /* Try to remove terminal escape sequences.
; 1979 :                                    Note: also does LOGMSG as appropriate. */
; 1980 :                                 gh534_fix( event_msglen, evd_msg );

  01270	48 8b 94 24 18
	01 00 00	 mov	 rdx, QWORD PTR evd_msg$[rsp]
  01278	8b 8c 24 84 00
	00 00		 mov	 ecx, DWORD PTR event_msglen$[rsp]
  0127f	e8 00 00 00 00	 call	 gh534_fix

; 1981 :                             }

  01284	e9 08 01 00 00	 jmp	 $LN113@z900_servi
$LN112@z900_servi:

; 1982 :                             else /* Normal processing: show message as-is */
; 1983 :                             {
; 1984 :                                 for (i=0; i < event_msglen; i++)

  01289	c7 44 24 50 00
	00 00 00	 mov	 DWORD PTR i$[rsp], 0
  01291	eb 0a		 jmp	 SHORT $LN39@z900_servi
$LN37@z900_servi:
  01293	8b 44 24 50	 mov	 eax, DWORD PTR i$[rsp]
  01297	ff c0		 inc	 eax
  01299	89 44 24 50	 mov	 DWORD PTR i$[rsp], eax
$LN39@z900_servi:
  0129d	8b 84 24 84 00
	00 00		 mov	 eax, DWORD PTR event_msglen$[rsp]
  012a4	39 44 24 50	 cmp	 DWORD PTR i$[rsp], eax
  012a8	7d 6d		 jge	 SHORT $LN38@z900_servi

; 1985 :                                 {
; 1986 :                                     message[i] = isprint( guest_to_host( evd_msg[i] )) ?

  012aa	48 63 44 24 50	 movsxd	 rax, DWORD PTR i$[rsp]
  012af	48 8b 8c 24 18
	01 00 00	 mov	 rcx, QWORD PTR evd_msg$[rsp]
  012b7	0f b6 0c 01	 movzx	 ecx, BYTE PTR [rcx+rax]
  012bb	ff 15 00 00 00
	00		 call	 QWORD PTR __imp_guest_to_host
  012c1	0f b6 c0	 movzx	 eax, al
  012c4	8b c8		 mov	 ecx, eax
  012c6	ff 15 00 00 00
	00		 call	 QWORD PTR __imp_isprint
  012cc	85 c0		 test	 eax, eax
  012ce	74 23		 je	 SHORT $LN165@z900_servi
  012d0	48 63 44 24 50	 movsxd	 rax, DWORD PTR i$[rsp]
  012d5	48 8b 8c 24 18
	01 00 00	 mov	 rcx, QWORD PTR evd_msg$[rsp]
  012dd	0f b6 0c 01	 movzx	 ecx, BYTE PTR [rcx+rax]
  012e1	ff 15 00 00 00
	00		 call	 QWORD PTR __imp_guest_to_host
  012e7	0f b6 c0	 movzx	 eax, al
  012ea	89 84 24 f0 00
	00 00		 mov	 DWORD PTR tv793[rsp], eax
  012f1	eb 0b		 jmp	 SHORT $LN166@z900_servi
$LN165@z900_servi:
  012f3	c7 84 24 f0 00
	00 00 20 00 00
	00		 mov	 DWORD PTR tv793[rsp], 32 ; 00000020H
$LN166@z900_servi:
  012fe	48 63 44 24 50	 movsxd	 rax, DWORD PTR i$[rsp]
  01303	0f b6 8c 24 f0
	00 00 00	 movzx	 ecx, BYTE PTR tv793[rsp]
  0130b	88 8c 04 c0 01
	00 00		 mov	 BYTE PTR message$[rsp+rax], cl

; 1987 :                                         guest_to_host( evd_msg[i] ) : ' ';
; 1988 :                                 }

  01312	e9 7c ff ff ff	 jmp	 $LN37@z900_servi
$LN38@z900_servi:

; 1989 :                                 message[i] = '\0';

  01317	48 63 44 24 50	 movsxd	 rax, DWORD PTR i$[rsp]
  0131c	48 89 84 24 60
	01 00 00	 mov	 QWORD PTR $T7[rsp], rax
  01324	48 81 bc 24 60
	01 00 00 f9 0f
	00 00		 cmp	 QWORD PTR $T7[rsp], 4089 ; 00000ff9H
  01330	73 02		 jae	 SHORT $LN167@z900_servi
  01332	eb 05		 jmp	 SHORT $LN168@z900_servi
$LN167@z900_servi:
  01334	e8 00 00 00 00	 call	 __report_rangecheckfailure
$LN168@z900_servi:
  01339	48 8b 84 24 60
	01 00 00	 mov	 rax, QWORD PTR $T7[rsp]
  01341	c6 84 04 c0 01
	00 00 00	 mov	 BYTE PTR message$[rsp+rax], 0

; 1990 :                                 LOGMSG("%s\n",message);

  01349	b9 01 00 00 00	 mov	 ecx, 1
  0134e	ff 15 00 00 00
	00		 call	 QWORD PTR __imp___acrt_iob_func
  01354	48 8d 8c 24 c0
	01 00 00	 lea	 rcx, QWORD PTR message$[rsp]
  0135c	48 89 4c 24 30	 mov	 QWORD PTR [rsp+48], rcx
  01361	48 8d 0d 00 00
	00 00		 lea	 rcx, OFFSET FLAT:$SG203065
  01368	48 89 4c 24 28	 mov	 QWORD PTR [rsp+40], rcx
  0136d	48 89 44 24 20	 mov	 QWORD PTR [rsp+32], rax
  01372	41 b9 03 00 00
	00		 mov	 r9d, 3
  01378	4c 8d 05 00 00
	00 00		 lea	 r8, OFFSET FLAT:$SG203066
  0137f	ba c6 07 00 00	 mov	 edx, 1990		; 000007c6H
  01384	48 8d 0d 00 00
	00 00		 lea	 rcx, OFFSET FLAT:$SG203067
  0138b	ff 15 00 00 00
	00		 call	 QWORD PTR __imp_fwritemsg
$LN113@z900_servi:
$LN109@z900_servi:
$LN106@z900_servi:

; 1991 :                             }
; 1992 :                         }
; 1993 :                     }
; 1994 : 
; 1995 :                     mcd_len -= obj_len;

  01391	0f b7 84 24 80
	00 00 00	 movzx	 eax, WORD PTR obj_len$[rsp]
  01399	0f b7 8c 24 88
	00 00 00	 movzx	 ecx, WORD PTR mcd_len$[rsp]
  013a1	2b c8		 sub	 ecx, eax
  013a3	8b c1		 mov	 eax, ecx
  013a5	66 89 84 24 88
	00 00 00	 mov	 WORD PTR mcd_len$[rsp], ax

; 1996 :                     obj_hdr=(SCCB_OBJ_HDR *)((BYTE*)obj_hdr + obj_len);

  013ad	0f b7 84 24 80
	00 00 00	 movzx	 eax, WORD PTR obj_len$[rsp]
  013b5	48 8b 8c 24 08
	01 00 00	 mov	 rcx, QWORD PTR obj_hdr$[rsp]
  013bd	48 03 c8	 add	 rcx, rax
  013c0	48 8b c1	 mov	 rax, rcx
  013c3	48 89 84 24 08
	01 00 00	 mov	 QWORD PTR obj_hdr$[rsp], rax

; 1997 :                 }

  013cb	e9 c7 fc ff ff	 jmp	 $LN35@z900_servi
$LN36@z900_servi:

; 1998 : 
; 1999 :                 /* Indicate Event Processed */
; 2000 :                 evd_hdr->flag |= SCCB_EVD_FLAG_PROC;

  013d0	48 8b 84 24 a8
	00 00 00	 mov	 rax, QWORD PTR evd_hdr$[rsp]
  013d8	0f b6 40 03	 movzx	 eax, BYTE PTR [rax+3]
  013dc	0f ba e8 07	 bts	 eax, 7
  013e0	48 8b 8c 24 a8
	00 00 00	 mov	 rcx, QWORD PTR evd_hdr$[rsp]
  013e8	88 41 03	 mov	 BYTE PTR [rcx+3], al

; 2001 : 
; 2002 :                 sccblen -= evd_len;

  013eb	0f b7 84 24 8c
	00 00 00	 movzx	 eax, WORD PTR evd_len$[rsp]
  013f3	0f b7 4c 24 60	 movzx	 ecx, WORD PTR sccblen$[rsp]
  013f8	2b c8		 sub	 ecx, eax
  013fa	8b c1		 mov	 eax, ecx
  013fc	66 89 44 24 60	 mov	 WORD PTR sccblen$[rsp], ax

; 2003 :                 evd_hdr = (SCCB_EVD_HDR *)((BYTE*)evd_hdr + evd_len);

  01401	0f b7 84 24 8c
	00 00 00	 movzx	 eax, WORD PTR evd_len$[rsp]
  01409	48 8b 8c 24 a8
	00 00 00	 mov	 rcx, QWORD PTR evd_hdr$[rsp]
  01411	48 03 c8	 add	 rcx, rax
  01414	48 8b c1	 mov	 rax, rcx
  01417	48 89 84 24 a8
	00 00 00	 mov	 QWORD PTR evd_hdr$[rsp], rax

; 2004 :             }

  0141f	e9 fc fb ff ff	 jmp	 $LN33@z900_servi
$LN34@z900_servi:

; 2005 : 
; 2006 :             /* Set response code X'0020' in SCCB header */
; 2007 :             sccb->reas = SCCB_REAS_NONE;

  01424	48 8b 44 24 58	 mov	 rax, QWORD PTR sccb$[rsp]
  01429	c6 40 06 00	 mov	 BYTE PTR [rax+6], 0

; 2008 :             sccb->resp = SCCB_RESP_COMPLETE;

  0142d	48 8b 44 24 58	 mov	 rax, QWORD PTR sccb$[rsp]
  01432	c6 40 07 20	 mov	 BYTE PTR [rax+7], 32	; 00000020H

; 2009 :             break;

  01436	e9 32 01 00 00	 jmp	 $LN31@z900_servi
$LN114@z900_servi:

; 2010 : 
; 2011 :         case SCCB_EVD_TYPE_CPIDENT:
; 2012 :             sclp_cpident(sccb);

  0143b	48 8b 4c 24 58	 mov	 rcx, QWORD PTR sccb$[rsp]
  01440	e8 00 00 00 00	 call	 sclp_cpident

; 2013 :             break;

  01445	e9 23 01 00 00	 jmp	 $LN31@z900_servi
$LN115@z900_servi:

; 2014 : 
; 2015 : #if defined( FEATURE_SCEDIO )
; 2016 : 
; 2017 :         case SCCB_EVD_TYPE_SCEDIO:
; 2018 :             ARCH_DEP( sclp_scedio_request )( sccb );

  0144a	48 8b 4c 24 58	 mov	 rcx, QWORD PTR sccb$[rsp]
  0144f	e8 00 00 00 00	 call	 z900_sclp_scedio_request

; 2019 :             break;

  01454	e9 14 01 00 00	 jmp	 $LN31@z900_servi
$LN116@z900_servi:

; 2020 : #endif
; 2021 : 
; 2022 : #if defined( _FEATURE_HARDWARE_LOADER )
; 2023 : 
; 2024 :         case SCCB_EVD_TYPE_HWL:
; 2025 :             ARCH_DEP( sclp_hwl_request )( sccb );

  01459	48 8b 4c 24 58	 mov	 rcx, QWORD PTR sccb$[rsp]
  0145e	e8 00 00 00 00	 call	 z900_sclp_hwl_request

; 2026 :             break;

  01463	e9 05 01 00 00	 jmp	 $LN31@z900_servi
$LN117@z900_servi:

; 2027 : 
; 2028 :         case SCCB_EVD_TYPE_SDIAS:
; 2029 :             ARCH_DEP( sclp_sdias_request )( sccb );

  01468	48 8b 4c 24 58	 mov	 rcx, QWORD PTR sccb$[rsp]
  0146d	e8 00 00 00 00	 call	 z900_sclp_sdias_request

; 2030 :             break;

  01472	e9 f6 00 00 00	 jmp	 $LN31@z900_servi
$LN118@z900_servi:

; 2031 : #endif
; 2032 : 
; 2033 : #if defined( FEATURE_INTEGRATED_3270_CONSOLE )
; 2034 : 
; 2035 :         case SCCB_EVD_TYPE_SYSG:
; 2036 :             sclp_sysg_write( sccb );

  01477	48 8b 4c 24 58	 mov	 rcx, QWORD PTR sccb$[rsp]
  0147c	e8 00 00 00 00	 call	 sclp_sysg_write

; 2037 :             break;

  01481	e9 e7 00 00 00	 jmp	 $LN31@z900_servi
$LN119@z900_servi:
$LN42@z900_servi:

; 2038 : #endif
; 2039 : 
; 2040 : #if defined( FEATURE_INTEGRATED_ASCII_CONSOLE )
; 2041 : 
; 2042 :         case SCCB_EVD_TYPE_VT220:
; 2043 :             sclp_sysa_write( sccb );
; 2044 :             break;
; 2045 : #endif
; 2046 : 
; 2047 :         default:
; 2048 : 
; 2049 :             PTT_ERR("*SERVC", regs->GR_L(r1), regs->GR_L(r2), evd_hdr->type );

  01486	48 8b 05 00 00
	00 00		 mov	 rax, QWORD PTR __imp_pttclass
  0148d	48 8b 00	 mov	 rax, QWORD PTR [rax]
  01490	48 83 e0 10	 and	 rax, 16
  01494	48 85 c0	 test	 rax, rax
  01497	74 6a		 je	 SHORT $LN120@z900_servi
  01499	48 8b 84 24 a8
	00 00 00	 mov	 rax, QWORD PTR evd_hdr$[rsp]
  014a1	0f b6 40 02	 movzx	 eax, BYTE PTR [rax+2]
  014a5	8b 8c 24 9c 00
	00 00		 mov	 ecx, DWORD PTR r2$[rsp]
  014ac	48 8b 94 24 f8
	11 00 00	 mov	 rdx, QWORD PTR regs$[rsp]
  014b4	8b 8c ca 80 02
	00 00		 mov	 ecx, DWORD PTR [rdx+rcx*8+640]
  014bb	8b 94 24 b0 00
	00 00		 mov	 edx, DWORD PTR r1$[rsp]
  014c2	48 8b bc 24 f8
	11 00 00	 mov	 rdi, QWORD PTR regs$[rsp]
  014ca	8b 94 d7 80 02
	00 00		 mov	 edx, DWORD PTR [rdi+rdx*8+640]
  014d1	48 c7 44 24 30
	00 00 00 00	 mov	 QWORD PTR [rsp+48], 0
  014da	48 89 44 24 28	 mov	 QWORD PTR [rsp+40], rax
  014df	48 8d 05 00 00
	00 00		 lea	 rax, OFFSET FLAT:$SG203075
  014e6	48 89 44 24 20	 mov	 QWORD PTR [rsp+32], rax
  014eb	44 8b c9	 mov	 r9d, ecx
  014ee	44 8b c2	 mov	 r8d, edx
  014f1	48 8d 15 00 00
	00 00		 lea	 rdx, OFFSET FLAT:$SG203076
  014f8	b9 10 00 00 00	 mov	 ecx, 16
  014fd	ff 15 00 00 00
	00		 call	 QWORD PTR __imp_ptt_pthread_trace
$LN120@z900_servi:
  01503	33 c0		 xor	 eax, eax
  01505	85 c0		 test	 eax, eax
  01507	0f 85 79 ff ff
	ff		 jne	 $LN42@z900_servi

; 2050 : 
; 2051 :             if (HDC3( debug_sclp_unknown_event, evd_hdr, sccb, regs ))

  0150d	48 8b 05 00 00
	00 00		 mov	 rax, QWORD PTR __imp_debug_sclp_unknown_event
  01514	48 83 38 00	 cmp	 QWORD PTR [rax], 0
  01518	74 28		 je	 SHORT $LN169@z900_servi
  0151a	4c 8b 84 24 f8
	11 00 00	 mov	 r8, QWORD PTR regs$[rsp]
  01522	48 8b 54 24 58	 mov	 rdx, QWORD PTR sccb$[rsp]
  01527	48 8b 8c 24 a8
	00 00 00	 mov	 rcx, QWORD PTR evd_hdr$[rsp]
  0152f	48 8b 05 00 00
	00 00		 mov	 rax, QWORD PTR __imp_debug_sclp_unknown_event
  01536	ff 10		 call	 QWORD PTR [rax]
  01538	48 89 84 24 68
	01 00 00	 mov	 QWORD PTR tv860[rsp], rax
  01540	eb 0c		 jmp	 SHORT $LN170@z900_servi
$LN169@z900_servi:
  01542	48 c7 84 24 68
	01 00 00 00 00
	00 00		 mov	 QWORD PTR tv860[rsp], 0
$LN170@z900_servi:
  0154e	48 83 bc 24 68
	01 00 00 00	 cmp	 QWORD PTR tv860[rsp], 0
  01557	74 02		 je	 SHORT $LN121@z900_servi

; 2052 :                 break;

  01559	eb 12		 jmp	 SHORT $LN31@z900_servi
$LN121@z900_servi:

; 2053 : 
; 2054 :             /* Set response code X'73F0' in SCCB header */
; 2055 :             sccb->reas = SCCB_REAS_SYNTAX_ERROR;

  0155b	48 8b 44 24 58	 mov	 rax, QWORD PTR sccb$[rsp]
  01560	c6 40 06 73	 mov	 BYTE PTR [rax+6], 115	; 00000073H

; 2056 :             sccb->resp = SCCB_RESP_SYNTAX_ERROR;

  01564	48 8b 44 24 58	 mov	 rax, QWORD PTR sccb$[rsp]
  01569	c6 40 07 f0	 mov	 BYTE PTR [rax+7], 240	; 000000f0H
$LN31@z900_servi:

; 2057 :             break;
; 2058 :         }
; 2059 :         break;

  0156d	e9 a8 09 00 00	 jmp	 $LN14@z900_servi
$LN122@z900_servi:

; 2060 : 
; 2061 :     case SCLP_READ_EVENT_DATA:
; 2062 : 
; 2063 :         /* Set the main storage change bit */
; 2064 :         ARCH_DEP( or_storage_key )( sccb_absolute_addr, STORKEY_CHANGE );

  01572	8b 44 24 64	 mov	 eax, DWORD PTR sccb_absolute_addr$[rsp]
  01576	b2 02		 mov	 dl, 2
  01578	8b c8		 mov	 ecx, eax
  0157a	e8 00 00 00 00	 call	 z900_or_storage_key

; 2065 : 
; 2066 :         /* Set response code X'0100' if SCCB crosses a page boundary */
; 2067 :         if ((sccb_absolute_addr & STORAGE_KEY_PAGEMASK) !=

  0157f	8b 44 24 64	 mov	 eax, DWORD PTR sccb_absolute_addr$[rsp]
  01583	48 25 00 f0 ff
	ff		 and	 rax, -4096		; fffffffffffff000H
  01589	0f b7 4c 24 60	 movzx	 ecx, WORD PTR sccblen$[rsp]
  0158e	8b 54 24 64	 mov	 edx, DWORD PTR sccb_absolute_addr$[rsp]
  01592	8d 4c 0a ff	 lea	 ecx, DWORD PTR [rdx+rcx-1]
  01596	8b c9		 mov	 ecx, ecx
  01598	48 81 e1 00 f0
	ff ff		 and	 rcx, -4096		; fffffffffffff000H
  0159f	48 3b c1	 cmp	 rax, rcx
  015a2	74 17		 je	 SHORT $LN123@z900_servi

; 2068 :            ((sccb_absolute_addr + sccblen - 1) & STORAGE_KEY_PAGEMASK))
; 2069 :         {
; 2070 :             sccb->reas = SCCB_REAS_NOT_PGBNDRY;

  015a4	48 8b 44 24 58	 mov	 rax, QWORD PTR sccb$[rsp]
  015a9	c6 40 06 01	 mov	 BYTE PTR [rax+6], 1

; 2071 :             sccb->resp = SCCB_RESP_BLOCK_ERROR;

  015ad	48 8b 44 24 58	 mov	 rax, QWORD PTR sccb$[rsp]
  015b2	c6 40 07 00	 mov	 BYTE PTR [rax+7], 0

; 2072 :             break;

  015b6	e9 5f 09 00 00	 jmp	 $LN14@z900_servi
$LN123@z900_servi:

; 2073 :         }
; 2074 : 
; 2075 :         /* Point to SCCB data area following SCCB header */
; 2076 :         evd_hdr = (SCCB_EVD_HDR*)(sccb+1);

  015bb	48 8b 44 24 58	 mov	 rax, QWORD PTR sccb$[rsp]
  015c0	48 83 c0 08	 add	 rax, 8
  015c4	48 89 84 24 a8
	00 00 00	 mov	 QWORD PTR evd_hdr$[rsp], rax

; 2077 : 
; 2078 :         if (SCLP_RECV_ENABLED(               PRIOR ) &&

  015cc	8b 05 00 00 00
	00		 mov	 eax, DWORD PTR servc_cp_recv_mask
  015d2	25 00 00 80 00	 and	 eax, 8388608		; 00800000H
  015d7	85 c0		 test	 eax, eax
  015d9	74 20		 je	 SHORT $LN124@z900_servi
  015db	66 b9 09 00	 mov	 cx, 9
  015df	e8 00 00 00 00	 call	 sclp_attn_pending
  015e4	85 c0		 test	 eax, eax
  015e6	74 13		 je	 SHORT $LN124@z900_servi

; 2079 :             sclp_attn_pending( SCCB_EVD_TYPE_PRIOR ))
; 2080 :         {
; 2081 :             sclp_opcmd_event(sccb, SCCB_EVD_TYPE_PRIOR);

  015e8	66 ba 09 00	 mov	 dx, 9
  015ec	48 8b 4c 24 58	 mov	 rcx, QWORD PTR sccb$[rsp]
  015f1	e8 00 00 00 00	 call	 sclp_opcmd_event

; 2082 :             break;

  015f6	e9 1f 09 00 00	 jmp	 $LN14@z900_servi
$LN124@z900_servi:

; 2083 :         }
; 2084 : 
; 2085 :         if (SCLP_RECV_ENABLED(               OPCMD ) &&

  015fb	8b 05 00 00 00
	00		 mov	 eax, DWORD PTR servc_cp_recv_mask
  01601	25 00 00 00 80	 and	 eax, -2147483648	; 80000000H
  01606	85 c0		 test	 eax, eax
  01608	74 20		 je	 SHORT $LN125@z900_servi
  0160a	66 b9 01 00	 mov	 cx, 1
  0160e	e8 00 00 00 00	 call	 sclp_attn_pending
  01613	85 c0		 test	 eax, eax
  01615	74 13		 je	 SHORT $LN125@z900_servi

; 2086 :             sclp_attn_pending( SCCB_EVD_TYPE_OPCMD ))
; 2087 :         {
; 2088 :             sclp_opcmd_event(sccb, SCCB_EVD_TYPE_OPCMD);

  01617	66 ba 01 00	 mov	 dx, 1
  0161b	48 8b 4c 24 58	 mov	 rcx, QWORD PTR sccb$[rsp]
  01620	e8 00 00 00 00	 call	 sclp_opcmd_event

; 2089 :             break;

  01625	e9 f0 08 00 00	 jmp	 $LN14@z900_servi
$LN125@z900_servi:

; 2090 :         }
; 2091 : 
; 2092 : #if defined( FEATURE_SCEDIO )
; 2093 : 
; 2094 :         if (SCLP_RECV_ENABLED(               SCEDIO ) &&

  0162a	8b 05 00 00 00
	00		 mov	 eax, DWORD PTR servc_cp_recv_mask
  01630	25 00 00 00 02	 and	 eax, 33554432		; 02000000H
  01635	85 c0		 test	 eax, eax
  01637	74 1c		 je	 SHORT $LN126@z900_servi
  01639	66 b9 07 00	 mov	 cx, 7
  0163d	e8 00 00 00 00	 call	 sclp_attn_pending
  01642	85 c0		 test	 eax, eax
  01644	74 0f		 je	 SHORT $LN126@z900_servi

; 2095 :             sclp_attn_pending( SCCB_EVD_TYPE_SCEDIO ))
; 2096 :         {
; 2097 :             ARCH_DEP( sclp_scedio_event )( sccb );

  01646	48 8b 4c 24 58	 mov	 rcx, QWORD PTR sccb$[rsp]
  0164b	e8 00 00 00 00	 call	 z900_sclp_scedio_event

; 2098 :             break;

  01650	e9 c5 08 00 00	 jmp	 $LN14@z900_servi
$LN126@z900_servi:

; 2099 :         }
; 2100 : #endif
; 2101 : 
; 2102 : #if defined( _FEATURE_HARDWARE_LOADER )
; 2103 : 
; 2104 :         if (SCLP_RECV_ENABLED(               HWL ) &&

  01655	8b 05 00 00 00
	00		 mov	 eax, DWORD PTR servc_cp_recv_mask
  0165b	25 00 00 10 00	 and	 eax, 1048576		; 00100000H
  01660	85 c0		 test	 eax, eax
  01662	74 1c		 je	 SHORT $LN127@z900_servi
  01664	66 b9 0c 00	 mov	 cx, 12
  01668	e8 00 00 00 00	 call	 sclp_attn_pending
  0166d	85 c0		 test	 eax, eax
  0166f	74 0f		 je	 SHORT $LN127@z900_servi

; 2105 :             sclp_attn_pending( SCCB_EVD_TYPE_HWL ))
; 2106 :         {
; 2107 :             ARCH_DEP( sclp_hwl_event )( sccb );

  01671	48 8b 4c 24 58	 mov	 rcx, QWORD PTR sccb$[rsp]
  01676	e8 00 00 00 00	 call	 z900_sclp_hwl_event

; 2108 :             break;

  0167b	e9 9a 08 00 00	 jmp	 $LN14@z900_servi
$LN127@z900_servi:

; 2109 :         }
; 2110 : 
; 2111 :         if (SCLP_RECV_ENABLED(               SDIAS ) &&

  01680	8b 05 00 00 00
	00		 mov	 eax, DWORD PTR servc_cp_recv_mask
  01686	83 e0 10	 and	 eax, 16
  01689	85 c0		 test	 eax, eax
  0168b	74 1c		 je	 SHORT $LN128@z900_servi
  0168d	66 b9 1c 00	 mov	 cx, 28
  01691	e8 00 00 00 00	 call	 sclp_attn_pending
  01696	85 c0		 test	 eax, eax
  01698	74 0f		 je	 SHORT $LN128@z900_servi

; 2112 :             sclp_attn_pending( SCCB_EVD_TYPE_SDIAS ))
; 2113 :         {
; 2114 :             ARCH_DEP( sclp_sdias_event )( sccb );

  0169a	48 8b 4c 24 58	 mov	 rcx, QWORD PTR sccb$[rsp]
  0169f	e8 00 00 00 00	 call	 z900_sclp_sdias_event

; 2115 :             break;

  016a4	e9 71 08 00 00	 jmp	 $LN14@z900_servi
$LN128@z900_servi:

; 2116 :         }
; 2117 : #endif
; 2118 : 
; 2119 : #if defined( FEATURE_INTEGRATED_3270_CONSOLE )
; 2120 : 
; 2121 :         if (SCLP_RECV_ENABLED(               SYSG ) &&

  016a9	8b 05 00 00 00
	00		 mov	 eax, DWORD PTR servc_cp_recv_mask
  016af	83 e0 20	 and	 eax, 32			; 00000020H
  016b2	85 c0		 test	 eax, eax
  016b4	74 1c		 je	 SHORT $LN129@z900_servi
  016b6	66 b9 1b 00	 mov	 cx, 27
  016ba	e8 00 00 00 00	 call	 sclp_attn_pending
  016bf	85 c0		 test	 eax, eax
  016c1	74 0f		 je	 SHORT $LN129@z900_servi

; 2122 :             sclp_attn_pending( SCCB_EVD_TYPE_SYSG ))
; 2123 :         {
; 2124 :             sclp_sysg_poll( sccb );

  016c3	48 8b 4c 24 58	 mov	 rcx, QWORD PTR sccb$[rsp]
  016c8	e8 00 00 00 00	 call	 sclp_sysg_poll

; 2125 :             break;

  016cd	e9 48 08 00 00	 jmp	 $LN14@z900_servi
$LN129@z900_servi:

; 2126 :         }
; 2127 : #endif
; 2128 : 
; 2129 : #if defined( FEATURE_INTEGRATED_ASCII_CONSOLE )
; 2130 : 
; 2131 :         if (SCLP_RECV_ENABLED(               VT220 ) &&
; 2132 :             sclp_attn_pending( SCCB_EVD_TYPE_VT220 ))
; 2133 :         {
; 2134 :             sclp_sysa_poll( sccb );
; 2135 :             break;
; 2136 :         }
; 2137 : #endif
; 2138 : 
; 2139 :         if (SCLP_RECV_ENABLED(               SIGQ ) &&

  016d2	8b 05 00 00 00
	00		 mov	 eax, DWORD PTR servc_cp_recv_mask
  016d8	83 e0 08	 and	 eax, 8
  016db	85 c0		 test	 eax, eax
  016dd	74 1c		 je	 SHORT $LN130@z900_servi
  016df	66 b9 1d 00	 mov	 cx, 29
  016e3	e8 00 00 00 00	 call	 sclp_attn_pending
  016e8	85 c0		 test	 eax, eax
  016ea	74 0f		 je	 SHORT $LN130@z900_servi

; 2140 :             sclp_attn_pending( SCCB_EVD_TYPE_SIGQ ))
; 2141 :         {
; 2142 :             sclp_sigq_event( sccb );

  016ec	48 8b 4c 24 58	 mov	 rcx, QWORD PTR sccb$[rsp]
  016f1	e8 00 00 00 00	 call	 sclp_sigq_event

; 2143 :             break;

  016f6	e9 1f 08 00 00	 jmp	 $LN14@z900_servi
$LN130@z900_servi:
$LN45@z900_servi:

; 2144 :         }
; 2145 : 
; 2146 :         PTT_ERR("*SERVC", regs->GR_L(r1), regs->GR_L(r2), regs->psw.IA_L );

  016fb	48 8b 05 00 00
	00 00		 mov	 rax, QWORD PTR __imp_pttclass
  01702	48 8b 00	 mov	 rax, QWORD PTR [rax]
  01705	48 83 e0 10	 and	 rax, 16
  01709	48 85 c0	 test	 rax, rax
  0170c	74 6c		 je	 SHORT $LN131@z900_servi
  0170e	48 8b 84 24 f8
	11 00 00	 mov	 rax, QWORD PTR regs$[rsp]
  01716	8b 80 88 00 00
	00		 mov	 eax, DWORD PTR [rax+136]
  0171c	8b 8c 24 9c 00
	00 00		 mov	 ecx, DWORD PTR r2$[rsp]
  01723	48 8b 94 24 f8
	11 00 00	 mov	 rdx, QWORD PTR regs$[rsp]
  0172b	8b 8c ca 80 02
	00 00		 mov	 ecx, DWORD PTR [rdx+rcx*8+640]
  01732	8b 94 24 b0 00
	00 00		 mov	 edx, DWORD PTR r1$[rsp]
  01739	48 8b bc 24 f8
	11 00 00	 mov	 rdi, QWORD PTR regs$[rsp]
  01741	8b 94 d7 80 02
	00 00		 mov	 edx, DWORD PTR [rdi+rdx*8+640]
  01748	48 c7 44 24 30
	00 00 00 00	 mov	 QWORD PTR [rsp+48], 0
  01751	48 89 44 24 28	 mov	 QWORD PTR [rsp+40], rax
  01756	48 8d 05 00 00
	00 00		 lea	 rax, OFFSET FLAT:$SG203088
  0175d	48 89 44 24 20	 mov	 QWORD PTR [rsp+32], rax
  01762	44 8b c9	 mov	 r9d, ecx
  01765	44 8b c2	 mov	 r8d, edx
  01768	48 8d 15 00 00
	00 00		 lea	 rdx, OFFSET FLAT:$SG203089
  0176f	b9 10 00 00 00	 mov	 ecx, 16
  01774	ff 15 00 00 00
	00		 call	 QWORD PTR __imp_ptt_pthread_trace
$LN131@z900_servi:
  0177a	33 c0		 xor	 eax, eax
  0177c	85 c0		 test	 eax, eax
  0177e	0f 85 77 ff ff
	ff		 jne	 $LN45@z900_servi

; 2147 : 
; 2148 :         if (HDC3( debug_sclp_event_data, evd_hdr, sccb, regs ))

  01784	48 8b 05 00 00
	00 00		 mov	 rax, QWORD PTR __imp_debug_sclp_event_data
  0178b	48 83 38 00	 cmp	 QWORD PTR [rax], 0
  0178f	74 28		 je	 SHORT $LN171@z900_servi
  01791	4c 8b 84 24 f8
	11 00 00	 mov	 r8, QWORD PTR regs$[rsp]
  01799	48 8b 54 24 58	 mov	 rdx, QWORD PTR sccb$[rsp]
  0179e	48 8b 8c 24 a8
	00 00 00	 mov	 rcx, QWORD PTR evd_hdr$[rsp]
  017a6	48 8b 05 00 00
	00 00		 mov	 rax, QWORD PTR __imp_debug_sclp_event_data
  017ad	ff 10		 call	 QWORD PTR [rax]
  017af	48 89 84 24 70
	01 00 00	 mov	 QWORD PTR tv985[rsp], rax
  017b7	eb 0c		 jmp	 SHORT $LN172@z900_servi
$LN171@z900_servi:
  017b9	48 c7 84 24 70
	01 00 00 00 00
	00 00		 mov	 QWORD PTR tv985[rsp], 0
$LN172@z900_servi:
  017c5	48 83 bc 24 70
	01 00 00 00	 cmp	 QWORD PTR tv985[rsp], 0
  017ce	74 05		 je	 SHORT $LN132@z900_servi

; 2149 :             break;

  017d0	e9 45 07 00 00	 jmp	 $LN14@z900_servi
$LN132@z900_servi:

; 2150 : 
; 2151 :         /* Set response code X'62F0' if events are pending but suppressed */
; 2152 :         if (sclp_attn_pending( 0 ))

  017d5	33 c9		 xor	 ecx, ecx
  017d7	e8 00 00 00 00	 call	 sclp_attn_pending
  017dc	85 c0		 test	 eax, eax
  017de	74 19		 je	 SHORT $LN133@z900_servi

; 2153 :         {
; 2154 :             sccb->reas = SCCB_REAS_EVENTS_SUP;

  017e0	48 8b 44 24 58	 mov	 rax, QWORD PTR sccb$[rsp]
  017e5	c6 40 06 62	 mov	 BYTE PTR [rax+6], 98	; 00000062H

; 2155 :             sccb->resp = SCCB_RESP_EVENTS_SUP;

  017e9	48 8b 44 24 58	 mov	 rax, QWORD PTR sccb$[rsp]
  017ee	c6 40 07 f0	 mov	 BYTE PTR [rax+7], 240	; 000000f0H

; 2156 :             break;

  017f2	e9 23 07 00 00	 jmp	 $LN14@z900_servi

; 2157 :         }

  017f7	eb 12		 jmp	 SHORT $LN134@z900_servi
$LN133@z900_servi:

; 2158 :         else
; 2159 :         {
; 2160 :             /* Set response code X'60F0' if no outstanding events */
; 2161 :             sccb->reas = SCCB_REAS_NO_EVENTS;

  017f9	48 8b 44 24 58	 mov	 rax, QWORD PTR sccb$[rsp]
  017fe	c6 40 06 60	 mov	 BYTE PTR [rax+6], 96	; 00000060H

; 2162 :             sccb->resp = SCCB_RESP_NO_EVENTS;

  01802	48 8b 44 24 58	 mov	 rax, QWORD PTR sccb$[rsp]
  01807	c6 40 07 f0	 mov	 BYTE PTR [rax+7], 240	; 000000f0H
$LN134@z900_servi:

; 2163 :         }
; 2164 :         break;

  0180b	e9 0a 07 00 00	 jmp	 $LN14@z900_servi
$LN135@z900_servi:

; 2165 : 
; 2166 :     case SCLP_WRITE_EVENT_MASK:
; 2167 : 
; 2168 :         /* Set the main storage change bit */
; 2169 :         ARCH_DEP( or_storage_key )( sccb_absolute_addr, STORKEY_CHANGE );

  01810	8b 44 24 64	 mov	 eax, DWORD PTR sccb_absolute_addr$[rsp]
  01814	b2 02		 mov	 dl, 2
  01816	8b c8		 mov	 ecx, eax
  01818	e8 00 00 00 00	 call	 z900_or_storage_key

; 2170 : 
; 2171 :         /* Set response code X'0100' if SCCB crosses a page boundary */
; 2172 :         if ((sccb_absolute_addr & STORAGE_KEY_PAGEMASK) !=

  0181d	8b 44 24 64	 mov	 eax, DWORD PTR sccb_absolute_addr$[rsp]
  01821	48 25 00 f0 ff
	ff		 and	 rax, -4096		; fffffffffffff000H
  01827	0f b7 4c 24 60	 movzx	 ecx, WORD PTR sccblen$[rsp]
  0182c	8b 54 24 64	 mov	 edx, DWORD PTR sccb_absolute_addr$[rsp]
  01830	8d 4c 0a ff	 lea	 ecx, DWORD PTR [rdx+rcx-1]
  01834	8b c9		 mov	 ecx, ecx
  01836	48 81 e1 00 f0
	ff ff		 and	 rcx, -4096		; fffffffffffff000H
  0183d	48 3b c1	 cmp	 rax, rcx
  01840	74 17		 je	 SHORT $LN136@z900_servi

; 2173 :            ((sccb_absolute_addr + sccblen - 1) & STORAGE_KEY_PAGEMASK))
; 2174 :         {
; 2175 :             sccb->reas = SCCB_REAS_NOT_PGBNDRY;

  01842	48 8b 44 24 58	 mov	 rax, QWORD PTR sccb$[rsp]
  01847	c6 40 06 01	 mov	 BYTE PTR [rax+6], 1

; 2176 :             sccb->resp = SCCB_RESP_BLOCK_ERROR;

  0184b	48 8b 44 24 58	 mov	 rax, QWORD PTR sccb$[rsp]
  01850	c6 40 07 00	 mov	 BYTE PTR [rax+7], 0

; 2177 :             break;

  01854	e9 c1 06 00 00	 jmp	 $LN14@z900_servi
$LN136@z900_servi:

; 2178 :         }
; 2179 : 
; 2180 :         /* Point to SCCB data area following SCCB header */
; 2181 :         evd_mask = (SCCB_EVT_MASK*)(sccb+1);

  01859	48 8b 44 24 58	 mov	 rax, QWORD PTR sccb$[rsp]
  0185e	48 83 c0 08	 add	 rax, 8
  01862	48 89 84 24 c0
	00 00 00	 mov	 QWORD PTR evd_mask$[rsp], rax

; 2182 : 
; 2183 :         /* Get length of single mask field */
; 2184 :         FETCH_HW( masklen, evd_mask->length );

  0186a	48 8b 84 24 c0
	00 00 00	 mov	 rax, QWORD PTR evd_mask$[rsp]
  01872	48 83 c0 02	 add	 rax, 2
  01876	48 8b c8	 mov	 rcx, rax
  01879	e8 00 00 00 00	 call	 fetch_hw_noswap
  0187e	0f b7 c8	 movzx	 ecx, ax
  01881	e8 00 00 00 00	 call	 _byteswap_ushort
  01886	0f b7 c0	 movzx	 eax, ax
  01889	89 44 24 7c	 mov	 DWORD PTR masklen$[rsp], eax

; 2185 : 
; 2186 :         /* Save old mask settings in order to suppress superflous messages */
; 2187 :         old_cp_recv_mask = servc_cp_recv_mask & ARCH_DEP( sclp_send_mask ) & SCCB_EVENT_CONS_RECV_MASK;

  0188d	8b 05 00 00 00
	00		 mov	 eax, DWORD PTR z900_sclp_send_mask
  01893	8b 0d 00 00 00
	00		 mov	 ecx, DWORD PTR servc_cp_recv_mask
  01899	23 c8		 and	 ecx, eax
  0189b	8b c1		 mov	 eax, ecx
  0189d	25 00 00 80 40	 and	 eax, 1082130432		; 40800000H
  018a2	89 84 24 28 01
	00 00		 mov	 DWORD PTR old_cp_recv_mask$[rsp], eax

; 2188 :         old_cp_send_mask = servc_cp_send_mask & ARCH_DEP( sclp_recv_mask ) & SCCB_EVENT_CONS_SEND_MASK;

  018a9	8b 05 00 00 00
	00		 mov	 eax, DWORD PTR z900_sclp_recv_mask
  018af	8b 0d 00 00 00
	00		 mov	 ecx, DWORD PTR servc_cp_send_mask
  018b5	23 c8		 and	 ecx, eax
  018b7	8b c1		 mov	 eax, ecx
  018b9	25 01 00 80 80	 and	 eax, -2139095039	; 80800001H
  018be	89 84 24 30 01
	00 00		 mov	 DWORD PTR old_cp_send_mask$[rsp], eax

; 2189 : 
; 2190 :         for (i=0; i < 4; i++)

  018c5	c7 44 24 50 00
	00 00 00	 mov	 DWORD PTR i$[rsp], 0
  018cd	eb 0a		 jmp	 SHORT $LN48@z900_servi
$LN46@z900_servi:
  018cf	8b 44 24 50	 mov	 eax, DWORD PTR i$[rsp]
  018d3	ff c0		 inc	 eax
  018d5	89 44 24 50	 mov	 DWORD PTR i$[rsp], eax
$LN48@z900_servi:
  018d9	83 7c 24 50 04	 cmp	 DWORD PTR i$[rsp], 4
  018de	0f 8d 84 00 00
	00		 jge	 $LN47@z900_servi

; 2191 :         {
; 2192 :             servc_cp_recv_mask <<= 8;

  018e4	8b 05 00 00 00
	00		 mov	 eax, DWORD PTR servc_cp_recv_mask
  018ea	c1 e0 08	 shl	 eax, 8
  018ed	89 05 00 00 00
	00		 mov	 DWORD PTR servc_cp_recv_mask, eax

; 2193 :             servc_cp_send_mask <<= 8;

  018f3	8b 05 00 00 00
	00		 mov	 eax, DWORD PTR servc_cp_send_mask
  018f9	c1 e0 08	 shl	 eax, 8
  018fc	89 05 00 00 00
	00		 mov	 DWORD PTR servc_cp_send_mask, eax

; 2194 : 
; 2195 :             if ((U32)i < masklen)

  01902	8b 44 24 7c	 mov	 eax, DWORD PTR masklen$[rsp]
  01906	39 44 24 50	 cmp	 DWORD PTR i$[rsp], eax
  0190a	73 57		 jae	 SHORT $LN137@z900_servi

; 2196 :             {
; 2197 :                 servc_cp_recv_mask |= evd_mask->masks[ i+(0*masklen) ];

  0190c	6b 44 24 7c 00	 imul	 eax, DWORD PTR masklen$[rsp], 0
  01911	8b 4c 24 50	 mov	 ecx, DWORD PTR i$[rsp]
  01915	03 c8		 add	 ecx, eax
  01917	8b c1		 mov	 eax, ecx
  01919	8b c0		 mov	 eax, eax
  0191b	48 8b 8c 24 c0
	00 00 00	 mov	 rcx, QWORD PTR evd_mask$[rsp]
  01923	0f b6 44 01 04	 movzx	 eax, BYTE PTR [rcx+rax+4]
  01928	8b 0d 00 00 00
	00		 mov	 ecx, DWORD PTR servc_cp_recv_mask
  0192e	0b c8		 or	 ecx, eax
  01930	8b c1		 mov	 eax, ecx
  01932	89 05 00 00 00
	00		 mov	 DWORD PTR servc_cp_recv_mask, eax

; 2198 :                 servc_cp_send_mask |= evd_mask->masks[ i+(1*masklen) ];

  01938	8b 44 24 7c	 mov	 eax, DWORD PTR masklen$[rsp]
  0193c	8b 4c 24 50	 mov	 ecx, DWORD PTR i$[rsp]
  01940	03 c8		 add	 ecx, eax
  01942	8b c1		 mov	 eax, ecx
  01944	8b c0		 mov	 eax, eax
  01946	48 8b 8c 24 c0
	00 00 00	 mov	 rcx, QWORD PTR evd_mask$[rsp]
  0194e	0f b6 44 01 04	 movzx	 eax, BYTE PTR [rcx+rax+4]
  01953	8b 0d 00 00 00
	00		 mov	 ecx, DWORD PTR servc_cp_send_mask
  01959	0b c8		 or	 ecx, eax
  0195b	8b c1		 mov	 eax, ecx
  0195d	89 05 00 00 00
	00		 mov	 DWORD PTR servc_cp_send_mask, eax
$LN137@z900_servi:

; 2199 :             }
; 2200 :         }

  01963	e9 67 ff ff ff	 jmp	 $LN46@z900_servi
$LN47@z900_servi:

; 2201 : 
; 2202 :         if (0
; 2203 :             || (servc_cp_recv_mask & ~ARCH_DEP( sclp_recv_mask ))
; 2204 :             || (servc_cp_send_mask & ~ARCH_DEP( sclp_send_mask ))

  01968	33 c0		 xor	 eax, eax
  0196a	85 c0		 test	 eax, eax
  0196c	75 2c		 jne	 SHORT $LN139@z900_servi
  0196e	8b 05 00 00 00
	00		 mov	 eax, DWORD PTR z900_sclp_recv_mask
  01974	f7 d0		 not	 eax
  01976	8b 0d 00 00 00
	00		 mov	 ecx, DWORD PTR servc_cp_recv_mask
  0197c	23 c8		 and	 ecx, eax
  0197e	8b c1		 mov	 eax, ecx
  01980	85 c0		 test	 eax, eax
  01982	75 16		 jne	 SHORT $LN139@z900_servi
  01984	8b 05 00 00 00
	00		 mov	 eax, DWORD PTR z900_sclp_send_mask
  0198a	f7 d0		 not	 eax
  0198c	8b 0d 00 00 00
	00		 mov	 ecx, DWORD PTR servc_cp_send_mask
  01992	23 c8		 and	 ecx, eax
  01994	8b c1		 mov	 eax, ecx
  01996	85 c0		 test	 eax, eax
  01998	74 41		 je	 SHORT $LN138@z900_servi
$LN139@z900_servi:

; 2205 :         )
; 2206 :         {
; 2207 :             HDC3( debug_sclp_unknown_event_mask, evd_mask, sccb, regs );

  0199a	48 8b 05 00 00
	00 00		 mov	 rax, QWORD PTR __imp_debug_sclp_unknown_event_mask
  019a1	48 83 38 00	 cmp	 QWORD PTR [rax], 0
  019a5	74 28		 je	 SHORT $LN173@z900_servi
  019a7	4c 8b 84 24 f8
	11 00 00	 mov	 r8, QWORD PTR regs$[rsp]
  019af	48 8b 54 24 58	 mov	 rdx, QWORD PTR sccb$[rsp]
  019b4	48 8b 8c 24 c0
	00 00 00	 mov	 rcx, QWORD PTR evd_mask$[rsp]
  019bc	48 8b 05 00 00
	00 00		 mov	 rax, QWORD PTR __imp_debug_sclp_unknown_event_mask
  019c3	ff 10		 call	 QWORD PTR [rax]
  019c5	48 89 84 24 98
	01 00 00	 mov	 QWORD PTR tv1051[rsp], rax
  019cd	eb 0c		 jmp	 SHORT $LN174@z900_servi
$LN173@z900_servi:
  019cf	48 c7 84 24 98
	01 00 00 00 00
	00 00		 mov	 QWORD PTR tv1051[rsp], 0
$LN174@z900_servi:
$LN138@z900_servi:

; 2208 :         }
; 2209 : 
; 2210 :         /* Write the events that we support back */
; 2211 :         memset( &evd_mask->masks[ 2*masklen ], 0, 2 * masklen );

  019db	8b 44 24 7c	 mov	 eax, DWORD PTR masklen$[rsp]
  019df	03 c0		 add	 eax, eax
  019e1	8b c0		 mov	 eax, eax
  019e3	48 89 84 24 a0
	01 00 00	 mov	 QWORD PTR tv1055[rsp], rax
  019eb	8b 4c 24 7c	 mov	 ecx, DWORD PTR masklen$[rsp]
  019ef	03 c9		 add	 ecx, ecx
  019f1	8b c9		 mov	 ecx, ecx
  019f3	48 8b 94 24 c0
	00 00 00	 mov	 rdx, QWORD PTR evd_mask$[rsp]
  019fb	48 8d 4c 0a 04	 lea	 rcx, QWORD PTR [rdx+rcx+4]
  01a00	48 8b f9	 mov	 rdi, rcx
  01a03	33 c0		 xor	 eax, eax
  01a05	48 8b 8c 24 a0
	01 00 00	 mov	 rcx, QWORD PTR tv1055[rsp]
  01a0d	f3 aa		 rep stosb

; 2212 : 
; 2213 :         for (i=0; (i < 4) && ((U32)i < masklen); i++)

  01a0f	c7 44 24 50 00
	00 00 00	 mov	 DWORD PTR i$[rsp], 0
  01a17	eb 0a		 jmp	 SHORT $LN51@z900_servi
$LN49@z900_servi:
  01a19	8b 44 24 50	 mov	 eax, DWORD PTR i$[rsp]
  01a1d	ff c0		 inc	 eax
  01a1f	89 44 24 50	 mov	 DWORD PTR i$[rsp], eax
$LN51@z900_servi:
  01a23	83 7c 24 50 04	 cmp	 DWORD PTR i$[rsp], 4
  01a28	0f 8d b9 00 00
	00		 jge	 $LN50@z900_servi
  01a2e	8b 44 24 7c	 mov	 eax, DWORD PTR masklen$[rsp]
  01a32	39 44 24 50	 cmp	 DWORD PTR i$[rsp], eax
  01a36	0f 83 ab 00 00
	00		 jae	 $LN50@z900_servi

; 2214 :         {
; 2215 :             evd_mask->masks[ i+(2*masklen) ] |= (ARCH_DEP( sclp_recv_mask ) >> ((3-i)*8)) & 0xFF;

  01a3c	8b 44 24 50	 mov	 eax, DWORD PTR i$[rsp]
  01a40	8b 4c 24 7c	 mov	 ecx, DWORD PTR masklen$[rsp]
  01a44	8d 04 48	 lea	 eax, DWORD PTR [rax+rcx*2]
  01a47	8b c0		 mov	 eax, eax
  01a49	b9 03 00 00 00	 mov	 ecx, 3
  01a4e	2b 4c 24 50	 sub	 ecx, DWORD PTR i$[rsp]
  01a52	c1 e1 03	 shl	 ecx, 3
  01a55	8b 15 00 00 00
	00		 mov	 edx, DWORD PTR z900_sclp_recv_mask
  01a5b	d3 ea		 shr	 edx, cl
  01a5d	8b ca		 mov	 ecx, edx
  01a5f	81 e1 ff 00 00
	00		 and	 ecx, 255		; 000000ffH
  01a65	48 8b 94 24 c0
	00 00 00	 mov	 rdx, QWORD PTR evd_mask$[rsp]
  01a6d	0f b6 44 02 04	 movzx	 eax, BYTE PTR [rdx+rax+4]
  01a72	0b c1		 or	 eax, ecx
  01a74	8b 4c 24 50	 mov	 ecx, DWORD PTR i$[rsp]
  01a78	8b 54 24 7c	 mov	 edx, DWORD PTR masklen$[rsp]
  01a7c	8d 0c 51	 lea	 ecx, DWORD PTR [rcx+rdx*2]
  01a7f	8b c9		 mov	 ecx, ecx
  01a81	48 8b 94 24 c0
	00 00 00	 mov	 rdx, QWORD PTR evd_mask$[rsp]
  01a89	88 44 0a 04	 mov	 BYTE PTR [rdx+rcx+4], al

; 2216 :             evd_mask->masks[ i+(3*masklen) ] |= (ARCH_DEP( sclp_send_mask ) >> ((3-i)*8)) & 0xFF;

  01a8d	6b 44 24 7c 03	 imul	 eax, DWORD PTR masklen$[rsp], 3
  01a92	8b 4c 24 50	 mov	 ecx, DWORD PTR i$[rsp]
  01a96	03 c8		 add	 ecx, eax
  01a98	8b c1		 mov	 eax, ecx
  01a9a	8b c0		 mov	 eax, eax
  01a9c	b9 03 00 00 00	 mov	 ecx, 3
  01aa1	2b 4c 24 50	 sub	 ecx, DWORD PTR i$[rsp]
  01aa5	c1 e1 03	 shl	 ecx, 3
  01aa8	8b 15 00 00 00
	00		 mov	 edx, DWORD PTR z900_sclp_send_mask
  01aae	d3 ea		 shr	 edx, cl
  01ab0	8b ca		 mov	 ecx, edx
  01ab2	81 e1 ff 00 00
	00		 and	 ecx, 255		; 000000ffH
  01ab8	48 8b 94 24 c0
	00 00 00	 mov	 rdx, QWORD PTR evd_mask$[rsp]
  01ac0	0f b6 44 02 04	 movzx	 eax, BYTE PTR [rdx+rax+4]
  01ac5	0b c1		 or	 eax, ecx
  01ac7	6b 4c 24 7c 03	 imul	 ecx, DWORD PTR masklen$[rsp], 3
  01acc	8b 54 24 50	 mov	 edx, DWORD PTR i$[rsp]
  01ad0	03 d1		 add	 edx, ecx
  01ad2	8b ca		 mov	 ecx, edx
  01ad4	8b c9		 mov	 ecx, ecx
  01ad6	48 8b 94 24 c0
	00 00 00	 mov	 rdx, QWORD PTR evd_mask$[rsp]
  01ade	88 44 0a 04	 mov	 BYTE PTR [rdx+rcx+4], al

; 2217 :         }

  01ae2	e9 32 ff ff ff	 jmp	 $LN49@z900_servi
$LN50@z900_servi:

; 2218 : 
; 2219 :         /* Issue message only when supported mask has changed */
; 2220 :         if (0
; 2221 :             || (servc_cp_recv_mask & ARCH_DEP( sclp_send_mask ) & SCCB_EVENT_CONS_RECV_MASK) != old_cp_recv_mask
; 2222 :             || (servc_cp_send_mask & ARCH_DEP( sclp_recv_mask ) & SCCB_EVENT_CONS_SEND_MASK) != old_cp_send_mask

  01ae7	33 c0		 xor	 eax, eax
  01ae9	85 c0		 test	 eax, eax
  01aeb	75 40		 jne	 SHORT $LN141@z900_servi
  01aed	8b 05 00 00 00
	00		 mov	 eax, DWORD PTR z900_sclp_send_mask
  01af3	8b 0d 00 00 00
	00		 mov	 ecx, DWORD PTR servc_cp_recv_mask
  01af9	23 c8		 and	 ecx, eax
  01afb	8b c1		 mov	 eax, ecx
  01afd	25 00 00 80 40	 and	 eax, 1082130432		; 40800000H
  01b02	3b 84 24 28 01
	00 00		 cmp	 eax, DWORD PTR old_cp_recv_mask$[rsp]
  01b09	75 22		 jne	 SHORT $LN141@z900_servi
  01b0b	8b 05 00 00 00
	00		 mov	 eax, DWORD PTR z900_sclp_recv_mask
  01b11	8b 0d 00 00 00
	00		 mov	 ecx, DWORD PTR servc_cp_send_mask
  01b17	23 c8		 and	 ecx, eax
  01b19	8b c1		 mov	 eax, ecx
  01b1b	25 01 00 80 80	 and	 eax, -2139095039	; 80800001H
  01b20	3b 84 24 30 01
	00 00		 cmp	 eax, DWORD PTR old_cp_send_mask$[rsp]
  01b27	0f 84 cc 00 00
	00		 je	 $LN140@z900_servi
$LN141@z900_servi:

; 2223 :         )
; 2224 :         {
; 2225 :             if (0
; 2226 :                 || (servc_cp_recv_mask & SCCB_EVENT_CONS_RECV_MASK) != 0
; 2227 :                 || (servc_cp_send_mask & SCCB_EVENT_CONS_SEND_MASK) != 0

  01b2d	33 c0		 xor	 eax, eax
  01b2f	85 c0		 test	 eax, eax
  01b31	75 1e		 jne	 SHORT $LN144@z900_servi
  01b33	8b 05 00 00 00
	00		 mov	 eax, DWORD PTR servc_cp_recv_mask
  01b39	25 00 00 80 40	 and	 eax, 1082130432		; 40800000H
  01b3e	85 c0		 test	 eax, eax
  01b40	75 0f		 jne	 SHORT $LN144@z900_servi
  01b42	8b 05 00 00 00
	00		 mov	 eax, DWORD PTR servc_cp_send_mask
  01b48	25 01 00 80 80	 and	 eax, -2139095039	; 80800001H
  01b4d	85 c0		 test	 eax, eax
  01b4f	74 55		 je	 SHORT $LN142@z900_servi
$LN144@z900_servi:

; 2228 :             )
; 2229 :                 // "SCLP console interface %s"
; 2230 :                 WRMSG( HHC00006, "I", "active" );

  01b51	b9 01 00 00 00	 mov	 ecx, 1
  01b56	ff 15 00 00 00
	00		 call	 QWORD PTR __imp___acrt_iob_func
  01b5c	48 8d 0d 00 00
	00 00		 lea	 rcx, OFFSET FLAT:$SG203103
  01b63	48 89 4c 24 38	 mov	 QWORD PTR [rsp+56], rcx
  01b68	48 8d 0d 00 00
	00 00		 lea	 rcx, OFFSET FLAT:$SG203104
  01b6f	48 89 4c 24 30	 mov	 QWORD PTR [rsp+48], rcx
  01b74	48 8d 0d 00 00
	00 00		 lea	 rcx, OFFSET FLAT:$SG203105
  01b7b	48 89 4c 24 28	 mov	 QWORD PTR [rsp+40], rcx
  01b80	48 89 44 24 20	 mov	 QWORD PTR [rsp+32], rax
  01b85	41 b9 03 00 00
	00		 mov	 r9d, 3
  01b8b	4c 8d 05 00 00
	00 00		 lea	 r8, OFFSET FLAT:$SG203106
  01b92	ba b6 08 00 00	 mov	 edx, 2230		; 000008b6H
  01b97	48 8d 0d 00 00
	00 00		 lea	 rcx, OFFSET FLAT:$SG203107
  01b9e	ff 15 00 00 00
	00		 call	 QWORD PTR __imp_fwritemsg
  01ba4	eb 53		 jmp	 SHORT $LN143@z900_servi
$LN142@z900_servi:

; 2231 :             else
; 2232 :                 // "SCLP console interface %s"
; 2233 :                 WRMSG( HHC00006, "I", "inactive" );

  01ba6	b9 01 00 00 00	 mov	 ecx, 1
  01bab	ff 15 00 00 00
	00		 call	 QWORD PTR __imp___acrt_iob_func
  01bb1	48 8d 0d 00 00
	00 00		 lea	 rcx, OFFSET FLAT:$SG203108
  01bb8	48 89 4c 24 38	 mov	 QWORD PTR [rsp+56], rcx
  01bbd	48 8d 0d 00 00
	00 00		 lea	 rcx, OFFSET FLAT:$SG203109
  01bc4	48 89 4c 24 30	 mov	 QWORD PTR [rsp+48], rcx
  01bc9	48 8d 0d 00 00
	00 00		 lea	 rcx, OFFSET FLAT:$SG203110
  01bd0	48 89 4c 24 28	 mov	 QWORD PTR [rsp+40], rcx
  01bd5	48 89 44 24 20	 mov	 QWORD PTR [rsp+32], rax
  01bda	41 b9 03 00 00
	00		 mov	 r9d, 3
  01be0	4c 8d 05 00 00
	00 00		 lea	 r8, OFFSET FLAT:$SG203111
  01be7	ba b9 08 00 00	 mov	 edx, 2233		; 000008b9H
  01bec	48 8d 0d 00 00
	00 00		 lea	 rcx, OFFSET FLAT:$SG203112
  01bf3	ff 15 00 00 00
	00		 call	 QWORD PTR __imp_fwritemsg
$LN143@z900_servi:
$LN140@z900_servi:

; 2234 :         }
; 2235 : 
; 2236 :         /* Set response code X'0020' in SCCB header */
; 2237 :         sccb->reas = SCCB_REAS_NONE;

  01bf9	48 8b 44 24 58	 mov	 rax, QWORD PTR sccb$[rsp]
  01bfe	c6 40 06 00	 mov	 BYTE PTR [rax+6], 0

; 2238 :         sccb->resp = SCCB_RESP_COMPLETE;

  01c02	48 8b 44 24 58	 mov	 rax, QWORD PTR sccb$[rsp]
  01c07	c6 40 07 20	 mov	 BYTE PTR [rax+7], 32	; 00000020H

; 2239 :         break;

  01c0b	e9 0a 03 00 00	 jmp	 $LN14@z900_servi
$LN145@z900_servi:

; 2240 : 
; 2241 : #endif /* defined( FEATURE_SYSTEM_CONSOLE ) */
; 2242 : 
; 2243 : #if defined( FEATURE_EXPANDED_STORAGE )
; 2244 : 
; 2245 :    case SCLP_READ_XST_MAP:
; 2246 : 
; 2247 :         /* Set the main storage change bit */
; 2248 :         ARCH_DEP( or_storage_key )( sccb_absolute_addr, STORKEY_CHANGE );

  01c10	8b 44 24 64	 mov	 eax, DWORD PTR sccb_absolute_addr$[rsp]
  01c14	b2 02		 mov	 dl, 2
  01c16	8b c8		 mov	 ecx, eax
  01c18	e8 00 00 00 00	 call	 z900_or_storage_key

; 2249 : 
; 2250 :         /* Set response code X'0100' if SCCB crosses a page boundary */
; 2251 :         if ((sccb_absolute_addr & STORAGE_KEY_PAGEMASK) !=

  01c1d	8b 44 24 64	 mov	 eax, DWORD PTR sccb_absolute_addr$[rsp]
  01c21	48 25 00 f0 ff
	ff		 and	 rax, -4096		; fffffffffffff000H
  01c27	0f b7 4c 24 60	 movzx	 ecx, WORD PTR sccblen$[rsp]
  01c2c	8b 54 24 64	 mov	 edx, DWORD PTR sccb_absolute_addr$[rsp]
  01c30	8d 4c 0a ff	 lea	 ecx, DWORD PTR [rdx+rcx-1]
  01c34	8b c9		 mov	 ecx, ecx
  01c36	48 81 e1 00 f0
	ff ff		 and	 rcx, -4096		; fffffffffffff000H
  01c3d	48 3b c1	 cmp	 rax, rcx
  01c40	74 17		 je	 SHORT $LN146@z900_servi

; 2252 :             ((sccb_absolute_addr + sccblen - 1) & STORAGE_KEY_PAGEMASK))
; 2253 :         {
; 2254 :             sccb->reas = SCCB_REAS_NOT_PGBNDRY;

  01c42	48 8b 44 24 58	 mov	 rax, QWORD PTR sccb$[rsp]
  01c47	c6 40 06 01	 mov	 BYTE PTR [rax+6], 1

; 2255 :             sccb->resp = SCCB_RESP_BLOCK_ERROR;

  01c4b	48 8b 44 24 58	 mov	 rax, QWORD PTR sccb$[rsp]
  01c50	c6 40 07 00	 mov	 BYTE PTR [rax+7], 0

; 2256 :             break;

  01c54	e9 c1 02 00 00	 jmp	 $LN14@z900_servi
$LN146@z900_servi:

; 2257 :         }
; 2258 : 
; 2259 :         /* Calculate number of blocks per increment */
; 2260 :         xstblkinc = XSTORE_INCREMENT_SIZE / XSTORE_PAGESIZE;

  01c59	c7 84 24 b8 00
	00 00 00 01 00
	00		 mov	 DWORD PTR xstblkinc$[rsp], 256 ; 00000100H

; 2261 : 
; 2262 :         /* Set response code X'0300' if SCCB length
; 2263 :            is insufficient to contain xstore info */
; 2264 :         if ( sccblen < sizeof( SCCB_HEADER ) + sizeof( SCCB_XST_MAP )

  01c64	0f b7 44 24 60	 movzx	 eax, WORD PTR sccblen$[rsp]
  01c69	48 89 84 24 a8
	01 00 00	 mov	 QWORD PTR tv1151[rsp], rax
  01c71	33 d2		 xor	 edx, edx
  01c73	8b 84 24 b8 00
	00 00		 mov	 eax, DWORD PTR xstblkinc$[rsp]
  01c7a	b9 08 00 00 00	 mov	 ecx, 8
  01c7f	f7 f1		 div	 ecx
  01c81	8b c0		 mov	 eax, eax
  01c83	48 83 c0 10	 add	 rax, 16
  01c87	48 8b 8c 24 a8
	01 00 00	 mov	 rcx, QWORD PTR tv1151[rsp]
  01c8f	48 3b c8	 cmp	 rcx, rax
  01c92	73 17		 jae	 SHORT $LN147@z900_servi

; 2265 :                 + xstblkinc/8)
; 2266 :         {
; 2267 :             sccb->reas = SCCB_REAS_TOO_SHORT;

  01c94	48 8b 44 24 58	 mov	 rax, QWORD PTR sccb$[rsp]
  01c99	c6 40 06 03	 mov	 BYTE PTR [rax+6], 3

; 2268 :             sccb->resp = SCCB_RESP_BLOCK_ERROR;

  01c9d	48 8b 44 24 58	 mov	 rax, QWORD PTR sccb$[rsp]
  01ca2	c6 40 07 00	 mov	 BYTE PTR [rax+7], 0

; 2269 :             break;

  01ca6	e9 6f 02 00 00	 jmp	 $LN14@z900_servi
$LN147@z900_servi:

; 2270 :         }
; 2271 : 
; 2272 :         /* Point to SCCB data area following SCCB header */
; 2273 :         sccbxmap = (SCCB_XST_MAP*)(sccb+1);

  01cab	48 8b 44 24 58	 mov	 rax, QWORD PTR sccb$[rsp]
  01cb0	48 83 c0 08	 add	 rax, 8
  01cb4	48 89 84 24 78
	01 00 00	 mov	 QWORD PTR sccbxmap$[rsp], rax

; 2274 : 
; 2275 :         /* Verify expanded storage increment number */
; 2276 :         xstincnum = sysblk.xpndsize /

  01cbc	33 d2		 xor	 edx, edx
  01cbe	48 8b 05 00 00
	00 00		 mov	 rax, QWORD PTR __imp_sysblk
  01cc5	8b 80 ac 00 00
	00		 mov	 eax, DWORD PTR [rax+172]
  01ccb	b9 00 01 00 00	 mov	 ecx, 256		; 00000100H
  01cd0	f7 f1		 div	 ecx
  01cd2	89 84 24 d8 00
	00 00		 mov	 DWORD PTR xstincnum$[rsp], eax

; 2277 :                     (XSTORE_INCREMENT_SIZE >> XSTORE_PAGESHIFT);
; 2278 :         FETCH_FW( i, sccbxmap->incnum );

  01cd9	48 8b 84 24 78
	01 00 00	 mov	 rax, QWORD PTR sccbxmap$[rsp]
  01ce1	48 8b c8	 mov	 rcx, rax
  01ce4	e8 00 00 00 00	 call	 fetch_fw_noswap
  01ce9	8b c8		 mov	 ecx, eax
  01ceb	e8 00 00 00 00	 call	 _byteswap_ulong
  01cf0	89 44 24 50	 mov	 DWORD PTR i$[rsp], eax

; 2279 : 
; 2280 :         if (i < 1 || (U32)i > xstincnum)

  01cf4	83 7c 24 50 01	 cmp	 DWORD PTR i$[rsp], 1
  01cf9	7c 0d		 jl	 SHORT $LN149@z900_servi
  01cfb	8b 84 24 d8 00
	00 00		 mov	 eax, DWORD PTR xstincnum$[rsp]
  01d02	39 44 24 50	 cmp	 DWORD PTR i$[rsp], eax
  01d06	76 17		 jbe	 SHORT $LN148@z900_servi
$LN149@z900_servi:

; 2281 :         {
; 2282 :             sccb->reas = SCCB_REAS_INVALID_RSC;

  01d08	48 8b 44 24 58	 mov	 rax, QWORD PTR sccb$[rsp]
  01d0d	c6 40 06 09	 mov	 BYTE PTR [rax+6], 9

; 2283 :             sccb->resp = SCCB_RESP_REJECT;

  01d11	48 8b 44 24 58	 mov	 rax, QWORD PTR sccb$[rsp]
  01d16	c6 40 07 f0	 mov	 BYTE PTR [rax+7], 240	; 000000f0H

; 2284 :             break;

  01d1a	e9 fb 01 00 00	 jmp	 $LN14@z900_servi
$LN148@z900_servi:

; 2285 :         }
; 2286 : 
; 2287 :         /* Point to bitmap */
; 2288 :         xstmap = (BYTE*)(sccbxmap+1);

  01d1f	48 8b 84 24 78
	01 00 00	 mov	 rax, QWORD PTR sccbxmap$[rsp]
  01d27	48 83 c0 08	 add	 rax, 8
  01d2b	48 89 84 24 b0
	01 00 00	 mov	 QWORD PTR xstmap$[rsp], rax

; 2289 : 
; 2290 :         /* Set all blocks available */
; 2291 :         memset( xstmap, 0, xstblkinc/8);

  01d33	33 d2		 xor	 edx, edx
  01d35	8b 84 24 b8 00
	00 00		 mov	 eax, DWORD PTR xstblkinc$[rsp]
  01d3c	b9 08 00 00 00	 mov	 ecx, 8
  01d41	f7 f1		 div	 ecx
  01d43	8b c0		 mov	 eax, eax
  01d45	48 89 84 24 b8
	01 00 00	 mov	 QWORD PTR tv1174[rsp], rax
  01d4d	48 8b bc 24 b0
	01 00 00	 mov	 rdi, QWORD PTR xstmap$[rsp]
  01d55	33 c0		 xor	 eax, eax
  01d57	48 8b 8c 24 b8
	01 00 00	 mov	 rcx, QWORD PTR tv1174[rsp]
  01d5f	f3 aa		 rep stosb

; 2292 : 
; 2293 :         /* Set response code X'0010' in SCCB header */
; 2294 :         sccb->reas = SCCB_REAS_NONE;

  01d61	48 8b 44 24 58	 mov	 rax, QWORD PTR sccb$[rsp]
  01d66	c6 40 06 00	 mov	 BYTE PTR [rax+6], 0

; 2295 :         sccb->resp = SCCB_RESP_INFO;

  01d6a	48 8b 44 24 58	 mov	 rax, QWORD PTR sccb$[rsp]
  01d6f	c6 40 07 10	 mov	 BYTE PTR [rax+7], 16

; 2296 :         break;

  01d73	e9 a2 01 00 00	 jmp	 $LN14@z900_servi
$LN150@z900_servi:

; 2297 : 
; 2298 : #endif /* defined( FEATURE_EXPANDED_STORAGE ) */
; 2299 : 
; 2300 : #if defined( FEATURE_CPU_RECONFIG )
; 2301 : 
; 2302 :     case SCLP_CONFIGURE_CPU:
; 2303 : 
; 2304 :         i = (sclp_command & SCLP_RESOURCE_MASK) >> SCLP_RESOURCE_SHIFT;

  01d78	8b 84 24 a0 00
	00 00		 mov	 eax, DWORD PTR sclp_command$[rsp]
  01d7f	25 00 ff 00 00	 and	 eax, 65280		; 0000ff00H
  01d84	c1 e8 08	 shr	 eax, 8
  01d87	89 44 24 50	 mov	 DWORD PTR i$[rsp], eax

; 2305 : 
; 2306 :         /* Return invalid resource in parm if target does not exist */
; 2307 :         if (i >= sysblk.maxcpu)

  01d8b	48 8b 05 00 00
	00 00		 mov	 rax, QWORD PTR __imp_sysblk
  01d92	8b 80 00 01 00
	00		 mov	 eax, DWORD PTR [rax+256]
  01d98	39 44 24 50	 cmp	 DWORD PTR i$[rsp], eax
  01d9c	7c 17		 jl	 SHORT $LN151@z900_servi

; 2308 :         {
; 2309 :             sccb->reas = SCCB_REAS_INVALID_RSCP;

  01d9e	48 8b 44 24 58	 mov	 rax, QWORD PTR sccb$[rsp]
  01da3	c6 40 06 03	 mov	 BYTE PTR [rax+6], 3

; 2310 :             sccb->resp = SCCB_RESP_REJECT;

  01da7	48 8b 44 24 58	 mov	 rax, QWORD PTR sccb$[rsp]
  01dac	c6 40 07 f0	 mov	 BYTE PTR [rax+7], 240	; 000000f0H

; 2311 :             break;

  01db0	e9 65 01 00 00	 jmp	 $LN14@z900_servi
$LN151@z900_servi:

; 2312 :         }
; 2313 : 
; 2314 :         /* Add cpu to the configuration */
; 2315 :         configure_cpu(i);

  01db5	8b 4c 24 50	 mov	 ecx, DWORD PTR i$[rsp]
  01db9	e8 00 00 00 00	 call	 configure_cpu

; 2316 : 
; 2317 :         /* Set response code X'0020' in SCCB header */
; 2318 :         sccb->reas = SCCB_REAS_NONE;

  01dbe	48 8b 44 24 58	 mov	 rax, QWORD PTR sccb$[rsp]
  01dc3	c6 40 06 00	 mov	 BYTE PTR [rax+6], 0

; 2319 :         sccb->resp = SCCB_RESP_COMPLETE;

  01dc7	48 8b 44 24 58	 mov	 rax, QWORD PTR sccb$[rsp]
  01dcc	c6 40 07 20	 mov	 BYTE PTR [rax+7], 32	; 00000020H

; 2320 :         break;

  01dd0	e9 45 01 00 00	 jmp	 $LN14@z900_servi
$LN152@z900_servi:

; 2321 : 
; 2322 :     case SCLP_DECONFIGURE_CPU:
; 2323 : 
; 2324 :         i = (sclp_command & SCLP_RESOURCE_MASK) >> SCLP_RESOURCE_SHIFT;

  01dd5	8b 84 24 a0 00
	00 00		 mov	 eax, DWORD PTR sclp_command$[rsp]
  01ddc	25 00 ff 00 00	 and	 eax, 65280		; 0000ff00H
  01de1	c1 e8 08	 shr	 eax, 8
  01de4	89 44 24 50	 mov	 DWORD PTR i$[rsp], eax

; 2325 : 
; 2326 :         /* Return invalid resource in parm if target does not exist */
; 2327 :         if (i >= sysblk.maxcpu)

  01de8	48 8b 05 00 00
	00 00		 mov	 rax, QWORD PTR __imp_sysblk
  01def	8b 80 00 01 00
	00		 mov	 eax, DWORD PTR [rax+256]
  01df5	39 44 24 50	 cmp	 DWORD PTR i$[rsp], eax
  01df9	7c 17		 jl	 SHORT $LN153@z900_servi

; 2328 :         {
; 2329 :             sccb->reas = SCCB_REAS_INVALID_RSCP;

  01dfb	48 8b 44 24 58	 mov	 rax, QWORD PTR sccb$[rsp]
  01e00	c6 40 06 03	 mov	 BYTE PTR [rax+6], 3

; 2330 :             sccb->resp = SCCB_RESP_REJECT;

  01e04	48 8b 44 24 58	 mov	 rax, QWORD PTR sccb$[rsp]
  01e09	c6 40 07 f0	 mov	 BYTE PTR [rax+7], 240	; 000000f0H

; 2331 :             break;

  01e0d	e9 08 01 00 00	 jmp	 $LN14@z900_servi
$LN153@z900_servi:

; 2332 :         }
; 2333 : 
; 2334 :         /* Take cpu out of the configuration */
; 2335 :         deconfigure_cpu(i);

  01e12	8b 4c 24 50	 mov	 ecx, DWORD PTR i$[rsp]
  01e16	e8 00 00 00 00	 call	 deconfigure_cpu

; 2336 : 
; 2337 :         /* Set response code X'0020' in SCCB header */
; 2338 :         sccb->reas = SCCB_REAS_NONE;

  01e1b	48 8b 44 24 58	 mov	 rax, QWORD PTR sccb$[rsp]
  01e20	c6 40 06 00	 mov	 BYTE PTR [rax+6], 0

; 2339 :         sccb->resp = SCCB_RESP_COMPLETE;

  01e24	48 8b 44 24 58	 mov	 rax, QWORD PTR sccb$[rsp]
  01e29	c6 40 07 20	 mov	 BYTE PTR [rax+7], 32	; 00000020H

; 2340 :         break;

  01e2d	e9 e8 00 00 00	 jmp	 $LN14@z900_servi
$LN154@z900_servi:
$invalidcmd$181:
$LN54@z900_servi:

; 2341 : 
; 2342 : #if defined( FEATURE_S370_S390_VECTOR_FACILITY )
; 2343 : 
; 2344 :     case SCLP_DISCONNECT_VF:
; 2345 : 
; 2346 :         i = (sclp_command & SCLP_RESOURCE_MASK) >> SCLP_RESOURCE_SHIFT;
; 2347 : 
; 2348 :         /* Return invalid resource in parm if target does not exist */
; 2349 :         if (i >= sysblk.maxcpu || !IS_CPU_ONLINE(i))
; 2350 :         {
; 2351 :             sccb->reas = SCCB_REAS_INVALID_RSCP;
; 2352 :             sccb->resp = SCCB_RESP_REJECT;
; 2353 :             break;
; 2354 :         }
; 2355 : 
; 2356 :         if (sysblk.regs[i]->vf->online)
; 2357 :             // "Processor %s%02X: vector facility configured %s"
; 2358 :             WRMSG( HHC00821, "I", PTYPSTR(i), i, "offline" );
; 2359 : 
; 2360 :         /* Take the VF out of the configuration */
; 2361 :         sysblk.regs[i]->vf->online = 0;
; 2362 : 
; 2363 :         /* Set response code X'0020' in SCCB header */
; 2364 :         sccb->reas = SCCB_REAS_NONE;
; 2365 :         sccb->resp = SCCB_RESP_COMPLETE;
; 2366 :         break;
; 2367 : 
; 2368 :     case SCLP_CONNECT_VF:
; 2369 : 
; 2370 :         i = (sclp_command & SCLP_RESOURCE_MASK) >> SCLP_RESOURCE_SHIFT;
; 2371 : 
; 2372 :         /* Return invalid resource in parm if target does not exist */
; 2373 :         if (i >= sysblk.maxcpu)
; 2374 :         {
; 2375 :             sccb->reas = SCCB_REAS_INVALID_RSCP;
; 2376 :             sccb->resp = SCCB_RESP_REJECT;
; 2377 :             break;
; 2378 :         }
; 2379 : 
; 2380 :         /* Return improper state if associated cpu is offline */
; 2381 :         if (!IS_CPU_ONLINE(i))
; 2382 :         {
; 2383 :             sccb->reas = SCCB_REAS_IMPROPER_RSC;
; 2384 :             sccb->resp = SCCB_RESP_REJECT;
; 2385 :             break;
; 2386 :         }
; 2387 : 
; 2388 :         if (!sysblk.regs[i]->vf->online)
; 2389 :             // "Processor %s%02X: vector facility configured %s"
; 2390 :             WRMSG( HHC00821, "I", PTYPSTR(i), i, "online" );
; 2391 : 
; 2392 :         /* Mark the VF online to the CPU */
; 2393 :         sysblk.regs[i]->vf->online = 1;
; 2394 : 
; 2395 :         /* Set response code X'0020' in SCCB header */
; 2396 :         sccb->reas = SCCB_REAS_NONE;
; 2397 :         sccb->resp = SCCB_RESP_COMPLETE;
; 2398 :         break;
; 2399 : 
; 2400 : #endif /* defined( FEATURE_S370_S390_VECTOR_FACILITY ) */
; 2401 : 
; 2402 : #endif /* defined( FEATURE_CPU_RECONFIG ) */
; 2403 : 
; 2404 :     default:
; 2405 :     invalidcmd:
; 2406 : 
; 2407 :         PTT( PTT_CL_INF | PTT_CL_ERR, "*SERVC", regs->GR_L(r1), regs->GR_L(r2), regs->psw.IA_L );

  01e32	48 8b 05 00 00
	00 00		 mov	 rax, QWORD PTR __imp_pttclass
  01e39	48 8b 00	 mov	 rax, QWORD PTR [rax]
  01e3c	48 83 e0 18	 and	 rax, 24
  01e40	48 85 c0	 test	 rax, rax
  01e43	74 6c		 je	 SHORT $LN155@z900_servi
  01e45	48 8b 84 24 f8
	11 00 00	 mov	 rax, QWORD PTR regs$[rsp]
  01e4d	8b 80 88 00 00
	00		 mov	 eax, DWORD PTR [rax+136]
  01e53	8b 8c 24 9c 00
	00 00		 mov	 ecx, DWORD PTR r2$[rsp]
  01e5a	48 8b 94 24 f8
	11 00 00	 mov	 rdx, QWORD PTR regs$[rsp]
  01e62	8b 8c ca 80 02
	00 00		 mov	 ecx, DWORD PTR [rdx+rcx*8+640]
  01e69	8b 94 24 b0 00
	00 00		 mov	 edx, DWORD PTR r1$[rsp]
  01e70	48 8b bc 24 f8
	11 00 00	 mov	 rdi, QWORD PTR regs$[rsp]
  01e78	8b 94 d7 80 02
	00 00		 mov	 edx, DWORD PTR [rdi+rdx*8+640]
  01e7f	48 c7 44 24 30
	00 00 00 00	 mov	 QWORD PTR [rsp+48], 0
  01e88	48 89 44 24 28	 mov	 QWORD PTR [rsp+40], rax
  01e8d	48 8d 05 00 00
	00 00		 lea	 rax, OFFSET FLAT:$SG203124
  01e94	48 89 44 24 20	 mov	 QWORD PTR [rsp+32], rax
  01e99	44 8b c9	 mov	 r9d, ecx
  01e9c	44 8b c2	 mov	 r8d, edx
  01e9f	48 8d 15 00 00
	00 00		 lea	 rdx, OFFSET FLAT:$SG203125
  01ea6	b9 18 00 00 00	 mov	 ecx, 24
  01eab	ff 15 00 00 00
	00		 call	 QWORD PTR __imp_ptt_pthread_trace
$LN155@z900_servi:
  01eb1	33 c0		 xor	 eax, eax
  01eb3	85 c0		 test	 eax, eax
  01eb5	0f 85 77 ff ff
	ff		 jne	 $LN54@z900_servi

; 2408 : 
; 2409 :         if (HDC3( debug_sclp_unknown_command, sclp_command, sccb, regs ))

  01ebb	48 8b 05 00 00
	00 00		 mov	 rax, QWORD PTR __imp_debug_sclp_unknown_command
  01ec2	48 83 38 00	 cmp	 QWORD PTR [rax], 0
  01ec6	74 27		 je	 SHORT $LN175@z900_servi
  01ec8	4c 8b 84 24 f8
	11 00 00	 mov	 r8, QWORD PTR regs$[rsp]
  01ed0	48 8b 54 24 58	 mov	 rdx, QWORD PTR sccb$[rsp]
  01ed5	8b 8c 24 a0 00
	00 00		 mov	 ecx, DWORD PTR sclp_command$[rsp]
  01edc	48 8b 05 00 00
	00 00		 mov	 rax, QWORD PTR __imp_debug_sclp_unknown_command
  01ee3	ff 10		 call	 QWORD PTR [rax]
  01ee5	48 89 84 24 80
	01 00 00	 mov	 QWORD PTR tv1226[rsp], rax
  01eed	eb 0c		 jmp	 SHORT $LN176@z900_servi
$LN175@z900_servi:
  01eef	48 c7 84 24 80
	01 00 00 00 00
	00 00		 mov	 QWORD PTR tv1226[rsp], 0
$LN176@z900_servi:
  01efb	48 83 bc 24 80
	01 00 00 00	 cmp	 QWORD PTR tv1226[rsp], 0
  01f04	74 02		 je	 SHORT $LN156@z900_servi

; 2410 :             break;

  01f06	eb 12		 jmp	 SHORT $LN14@z900_servi
$LN156@z900_servi:

; 2411 : 
; 2412 :         /* Set response code X'01F0' for invalid SCLP command */
; 2413 :         sccb->reas = SCCB_REAS_INVALID_CMD;

  01f08	48 8b 44 24 58	 mov	 rax, QWORD PTR sccb$[rsp]
  01f0d	c6 40 06 01	 mov	 BYTE PTR [rax+6], 1

; 2414 :         sccb->resp = SCCB_RESP_REJECT;

  01f11	48 8b 44 24 58	 mov	 rax, QWORD PTR sccb$[rsp]
  01f16	c6 40 07 f0	 mov	 BYTE PTR [rax+7], 240	; 000000f0H
$LN14@z900_servi:

; 2415 :         break;
; 2416 : 
; 2417 :     } /* end switch (sclp_command) */
; 2418 : 
; 2419 :     /* If immediate response is requested, return condition code 1 */
; 2420 :     if ((sccb->flag & SCCB_FLAG_SYNC)
; 2421 :         && (sclp_command & SCLP_COMMAND_CLASS) != 0x01)

  01f1a	48 8b 44 24 58	 mov	 rax, QWORD PTR sccb$[rsp]
  01f1f	0f b6 40 02	 movzx	 eax, BYTE PTR [rax+2]
  01f23	25 80 00 00 00	 and	 eax, 128		; 00000080H
  01f28	85 c0		 test	 eax, eax
  01f2a	74 22		 je	 SHORT $LN157@z900_servi
  01f2c	8b 84 24 a0 00
	00 00		 mov	 eax, DWORD PTR sclp_command$[rsp]
  01f33	25 ff 00 00 00	 and	 eax, 255		; 000000ffH
  01f38	83 f8 01	 cmp	 eax, 1
  01f3b	74 11		 je	 SHORT $LN157@z900_servi

; 2422 :     {
; 2423 :         regs->psw.cc = 1;

  01f3d	48 8b 84 24 f8
	11 00 00	 mov	 rax, QWORD PTR regs$[rsp]
  01f45	c6 40 7c 01	 mov	 BYTE PTR [rax+124], 1

; 2424 :         return;

  01f49	e9 bf 01 00 00	 jmp	 $LN1@z900_servi
$LN157@z900_servi:

; 2425 :     }
; 2426 : 
; 2427 :     /* Set service signal external interrupt pending */
; 2428 :     sysblk.servparm &= ~SERVSIG_ADDR;

  01f4e	48 8b 05 00 00
	00 00		 mov	 rax, QWORD PTR __imp_sysblk
  01f55	8b 80 90 12 00
	00		 mov	 eax, DWORD PTR [rax+4752]
  01f5b	83 e0 07	 and	 eax, 7
  01f5e	48 8b 0d 00 00
	00 00		 mov	 rcx, QWORD PTR __imp_sysblk
  01f65	89 81 90 12 00
	00		 mov	 DWORD PTR [rcx+4752], eax

; 2429 :     sysblk.servparm |= sccb_absolute_addr;

  01f6b	48 8b 05 00 00
	00 00		 mov	 rax, QWORD PTR __imp_sysblk
  01f72	8b 4c 24 64	 mov	 ecx, DWORD PTR sccb_absolute_addr$[rsp]
  01f76	8b 80 90 12 00
	00		 mov	 eax, DWORD PTR [rax+4752]
  01f7c	0b c1		 or	 eax, ecx
  01f7e	48 8b 0d 00 00
	00 00		 mov	 rcx, QWORD PTR __imp_sysblk
  01f85	89 81 90 12 00
	00		 mov	 DWORD PTR [rcx+4752], eax
$LN57@z900_servi:

; 2430 :     ON_IC_SERVSIG;

  01f8b	48 8b 05 00 00
	00 00		 mov	 rax, QWORD PTR __imp_sysblk
  01f92	8b 80 a0 12 00
	00		 mov	 eax, DWORD PTR [rax+4768]
  01f98	25 00 02 00 00	 and	 eax, 512		; 00000200H
  01f9d	85 c0		 test	 eax, eax
  01f9f	0f 85 23 01 00
	00		 jne	 $LN158@z900_servi
  01fa5	48 8b 05 00 00
	00 00		 mov	 rax, QWORD PTR __imp_sysblk
  01fac	8b 80 a0 12 00
	00		 mov	 eax, DWORD PTR [rax+4768]
  01fb2	0f ba e8 09	 bts	 eax, 9
  01fb6	48 8b 0d 00 00
	00 00		 mov	 rcx, QWORD PTR __imp_sysblk
  01fbd	89 81 a0 12 00
	00		 mov	 DWORD PTR [rcx+4768], eax
  01fc3	48 8b 05 00 00
	00 00		 mov	 rax, QWORD PTR __imp_sysblk
  01fca	48 8b 80 b0 12
	00 00		 mov	 rax, QWORD PTR [rax+4784]
  01fd1	48 89 84 24 20
	01 00 00	 mov	 QWORD PTR mask$5[rsp], rax
  01fd9	c7 84 24 90 00
	00 00 00 00 00
	00		 mov	 DWORD PTR i$1[rsp], 0
  01fe4	eb 10		 jmp	 SHORT $LN60@z900_servi
$LN58@z900_servi:
  01fe6	8b 84 24 90 00
	00 00		 mov	 eax, DWORD PTR i$1[rsp]
  01fed	ff c0		 inc	 eax
  01fef	89 84 24 90 00
	00 00		 mov	 DWORD PTR i$1[rsp], eax
$LN60@z900_servi:
  01ff6	48 83 bc 24 20
	01 00 00 00	 cmp	 QWORD PTR mask$5[rsp], 0
  01fff	0f 84 c3 00 00
	00		 je	 $LN59@z900_servi
  02005	48 8b 84 24 20
	01 00 00	 mov	 rax, QWORD PTR mask$5[rsp]
  0200d	48 83 e0 01	 and	 rax, 1
  02011	48 85 c0	 test	 rax, rax
  02014	0f 84 96 00 00
	00		 je	 $LN159@z900_servi
  0201a	48 63 84 24 90
	00 00 00	 movsxd	 rax, DWORD PTR i$1[rsp]
  02022	48 8b 0d 00 00
	00 00		 mov	 rcx, QWORD PTR __imp_sysblk
  02029	48 8b 84 c1 98
	0b 00 00	 mov	 rax, QWORD PTR [rcx+rax*8+2968]
  02031	8b 40 4c	 mov	 eax, DWORD PTR [rax+76]
  02034	25 00 02 00 00	 and	 eax, 512		; 00000200H
  02039	85 c0		 test	 eax, eax
  0203b	74 3b		 je	 SHORT $LN160@z900_servi
  0203d	48 63 84 24 90
	00 00 00	 movsxd	 rax, DWORD PTR i$1[rsp]
  02045	48 8b 0d 00 00
	00 00		 mov	 rcx, QWORD PTR __imp_sysblk
  0204c	48 8b 84 c1 98
	0b 00 00	 mov	 rax, QWORD PTR [rcx+rax*8+2968]
  02054	8b 40 48	 mov	 eax, DWORD PTR [rax+72]
  02057	0d 00 02 00 80	 or	 eax, -2147483136	; 80000200H
  0205c	48 63 8c 24 90
	00 00 00	 movsxd	 rcx, DWORD PTR i$1[rsp]
  02064	48 8b 15 00 00
	00 00		 mov	 rdx, QWORD PTR __imp_sysblk
  0206b	48 8b 8c ca 98
	0b 00 00	 mov	 rcx, QWORD PTR [rdx+rcx*8+2968]
  02073	89 41 48	 mov	 DWORD PTR [rcx+72], eax
  02076	eb 38		 jmp	 SHORT $LN161@z900_servi
$LN160@z900_servi:
  02078	48 63 84 24 90
	00 00 00	 movsxd	 rax, DWORD PTR i$1[rsp]
  02080	48 8b 0d 00 00
	00 00		 mov	 rcx, QWORD PTR __imp_sysblk
  02087	48 8b 84 c1 98
	0b 00 00	 mov	 rax, QWORD PTR [rcx+rax*8+2968]
  0208f	8b 40 48	 mov	 eax, DWORD PTR [rax+72]
  02092	0f ba e8 09	 bts	 eax, 9
  02096	48 63 8c 24 90
	00 00 00	 movsxd	 rcx, DWORD PTR i$1[rsp]
  0209e	48 8b 15 00 00
	00 00		 mov	 rdx, QWORD PTR __imp_sysblk
  020a5	48 8b 8c ca 98
	0b 00 00	 mov	 rcx, QWORD PTR [rdx+rcx*8+2968]
  020ad	89 41 48	 mov	 DWORD PTR [rcx+72], eax
$LN161@z900_servi:
$LN159@z900_servi:
  020b0	48 8b 84 24 20
	01 00 00	 mov	 rax, QWORD PTR mask$5[rsp]
  020b8	48 d1 e8	 shr	 rax, 1
  020bb	48 89 84 24 20
	01 00 00	 mov	 QWORD PTR mask$5[rsp], rax
  020c3	e9 1e ff ff ff	 jmp	 $LN58@z900_servi
$LN59@z900_servi:
$LN158@z900_servi:
  020c8	33 c0		 xor	 eax, eax
  020ca	85 c0		 test	 eax, eax
  020cc	0f 85 b9 fe ff
	ff		 jne	 $LN57@z900_servi

; 2431 : 
; 2432 :     /* Release the interrupt lock */
; 2433 :     RELEASE_INTLOCK( regs );

  020d2	48 8d 15 00 00
	00 00		 lea	 rdx, OFFSET FLAT:$SG203132
  020d9	48 8b 8c 24 f8
	11 00 00	 mov	 rcx, QWORD PTR regs$[rsp]
  020e1	e8 00 00 00 00	 call	 Release_Interrupt_Lock

; 2434 : 
; 2435 :     /* Set condition code 0 */
; 2436 :     regs->psw.cc = 0;

  020e6	48 8b 84 24 f8
	11 00 00	 mov	 rax, QWORD PTR regs$[rsp]
  020ee	c6 40 7c 00	 mov	 BYTE PTR [rax+124], 0

; 2437 : 
; 2438 :     RETURN_INTCHECK( regs );

  020f2	48 8b 84 24 f8
	11 00 00	 mov	 rax, QWORD PTR regs$[rsp]
  020fa	48 05 80 09 00
	00		 add	 rax, 2432		; 00000980H
  02100	ba ff ff ff ff	 mov	 edx, -1
  02105	48 8b c8	 mov	 rcx, rax
  02108	e8 00 00 00 00	 call	 longjmp
$LN1@z900_servi:
$LN162@z900_servi:

; 2439 : } /* end function service_call */

  0210d	48 8b 8c 24 c0
	11 00 00	 mov	 rcx, QWORD PTR __$ArrayPad$[rsp]
  02115	48 33 cc	 xor	 rcx, rsp
  02118	e8 00 00 00 00	 call	 __security_check_cookie
  0211d	48 81 c4 d8 11
	00 00		 add	 rsp, 4568		; 000011d8H
  02124	5f		 pop	 rdi
  02125	5e		 pop	 rsi
  02126	c3		 ret	 0
  02127	90		 npad	 1
$LN179@z900_servi:
  02128	00 00 00 00	 DD	 $LN103@z900_servi
  0212c	00 00 00 00	 DD	 $LN115@z900_servi
  02130	00 00 00 00	 DD	 $LN104@z900_servi
  02134	00 00 00 00	 DD	 $LN114@z900_servi
  02138	00 00 00 00	 DD	 $LN116@z900_servi
  0213c	00 00 00 00	 DD	 $LN118@z900_servi
  02140	00 00 00 00	 DD	 $LN117@z900_servi
  02144	00 00 00 00	 DD	 $LN119@z900_servi
$LN178@z900_servi:
  02148	00		 DB	 0
  02149	07		 DB	 7
  0214a	07		 DB	 7
  0214b	07		 DB	 7
  0214c	07		 DB	 7
  0214d	01		 DB	 1
  0214e	07		 DB	 7
  0214f	02		 DB	 2
  02150	07		 DB	 7
  02151	03		 DB	 3
  02152	04		 DB	 4
  02153	07		 DB	 7
  02154	07		 DB	 7
  02155	07		 DB	 7
  02156	07		 DB	 7
  02157	07		 DB	 7
  02158	07		 DB	 7
  02159	07		 DB	 7
  0215a	07		 DB	 7
  0215b	07		 DB	 7
  0215c	07		 DB	 7
  0215d	07		 DB	 7
  0215e	07		 DB	 7
  0215f	07		 DB	 7
  02160	07		 DB	 7
  02161	05		 DB	 5
  02162	06		 DB	 6
z900_service_call ENDP
_TEXT	ENDS
; Function compile flags: /Odtp
; File C:\papa\MyGit\hyperion-zvector\skey.h
;	COMDAT s390_or_storage_key
_TEXT	SEGMENT
abs$ = 48
bits$ = 56
s390_or_storage_key PROC				; COMDAT

; 290  : {

$LN3:
  00000	88 54 24 10	 mov	 BYTE PTR [rsp+16], dl
  00004	48 89 4c 24 08	 mov	 QWORD PTR [rsp+8], rcx
  00009	48 83 ec 28	 sub	 rsp, 40			; 00000028H

; 291  : #if defined( FEATURE_2K_STORAGE_KEYS )
; 292  :     ARCH_DEP( or_2K_storage_key )( abs, bits );
; 293  : #else
; 294  :     ARCH_DEP( or_4K_storage_key )( abs, bits );

  0000d	0f b6 54 24 38	 movzx	 edx, BYTE PTR bits$[rsp]
  00012	48 8b 4c 24 30	 mov	 rcx, QWORD PTR abs$[rsp]
  00017	e8 00 00 00 00	 call	 s390_or_4K_storage_key

; 295  : #endif
; 296  : }

  0001c	48 83 c4 28	 add	 rsp, 40			; 00000028H
  00020	c3		 ret	 0
s390_or_storage_key ENDP
_TEXT	ENDS
; Function compile flags: /Odtp
; File C:\papa\MyGit\hyperion-zvector\skey.h
;	COMDAT s390_or_4K_storage_key
_TEXT	SEGMENT
abs$ = 48
bits$ = 56
s390_or_4K_storage_key PROC				; COMDAT

; 242  :   inline void  ARCH_DEP( or_4K_storage_key )      (              U64 abs, BYTE bits ) {        ARCH_DEP( _or_storage_key      )(      abs, bits & ~STORKEY_BADFRM, 4 ); }

$LN3:
  00000	88 54 24 10	 mov	 BYTE PTR [rsp+16], dl
  00004	48 89 4c 24 08	 mov	 QWORD PTR [rsp+8], rcx
  00009	48 83 ec 28	 sub	 rsp, 40			; 00000028H
  0000d	0f b6 44 24 38	 movzx	 eax, BYTE PTR bits$[rsp]
  00012	83 e0 fe	 and	 eax, -2
  00015	41 b0 04	 mov	 r8b, 4
  00018	0f b6 d0	 movzx	 edx, al
  0001b	48 8b 4c 24 30	 mov	 rcx, QWORD PTR abs$[rsp]
  00020	e8 00 00 00 00	 call	 s390__or_storage_key
  00025	48 83 c4 28	 add	 rsp, 40			; 00000028H
  00029	c3		 ret	 0
s390_or_4K_storage_key ENDP
_TEXT	ENDS
; Function compile flags: /Odtp
; File C:\papa\MyGit\hyperion-zvector\skey.h
;	COMDAT s390__or_storage_key
_TEXT	SEGMENT
skey1_ptr$1 = 32
skey2_ptr$2 = 40
skey_ptr$3 = 48
abs$ = 80
bits$ = 88
K$ = 96
s390__or_storage_key PROC				; COMDAT

; 189  : {

$LN8:
  00000	44 88 44 24 18	 mov	 BYTE PTR [rsp+24], r8b
  00005	88 54 24 10	 mov	 BYTE PTR [rsp+16], dl
  00009	48 89 4c 24 08	 mov	 QWORD PTR [rsp+8], rcx
  0000e	48 83 ec 48	 sub	 rsp, 72			; 00000048H
$LN4@s390__or_s:

; 190  :     UNREFERENCED( K ); // (for FEATURE_4K_STORAGE_KEYS case)

  00012	33 c0		 xor	 eax, eax
  00014	85 c0		 test	 eax, eax
  00016	75 fa		 jne	 SHORT $LN4@s390__or_s

; 191  :     if (IS_DOUBLE_KEYED_4K_BYTE_BLOCK( K ))

  00018	33 c0		 xor	 eax, eax
  0001a	85 c0		 test	 eax, eax
  0001c	74 50		 je	 SHORT $LN5@s390__or_s

; 192  :     {
; 193  :         BYTE* skey1_ptr = _get_storekey1_ptr( abs );

  0001e	48 8b 4c 24 50	 mov	 rcx, QWORD PTR abs$[rsp]
  00023	e8 00 00 00 00	 call	 _get_storekey1_ptr
  00028	48 89 44 24 20	 mov	 QWORD PTR skey1_ptr$1[rsp], rax

; 194  :         BYTE* skey2_ptr = _get_storekey2_ptr( abs );

  0002d	48 8b 4c 24 50	 mov	 rcx, QWORD PTR abs$[rsp]
  00032	e8 00 00 00 00	 call	 _get_storekey2_ptr
  00037	48 89 44 24 28	 mov	 QWORD PTR skey2_ptr$2[rsp], rax

; 195  :         OR_SKEY( skey1_ptr, bits );

  0003c	0f b6 44 24 58	 movzx	 eax, BYTE PTR bits$[rsp]
  00041	48 8b 4c 24 20	 mov	 rcx, QWORD PTR skey1_ptr$1[rsp]
  00046	0f b6 09	 movzx	 ecx, BYTE PTR [rcx]
  00049	0b c8		 or	 ecx, eax
  0004b	8b c1		 mov	 eax, ecx
  0004d	48 8b 4c 24 20	 mov	 rcx, QWORD PTR skey1_ptr$1[rsp]
  00052	88 01		 mov	 BYTE PTR [rcx], al

; 196  :         OR_SKEY( skey2_ptr, bits );

  00054	0f b6 44 24 58	 movzx	 eax, BYTE PTR bits$[rsp]
  00059	48 8b 4c 24 28	 mov	 rcx, QWORD PTR skey2_ptr$2[rsp]
  0005e	0f b6 09	 movzx	 ecx, BYTE PTR [rcx]
  00061	0b c8		 or	 ecx, eax
  00063	8b c1		 mov	 eax, ecx
  00065	48 8b 4c 24 28	 mov	 rcx, QWORD PTR skey2_ptr$2[rsp]
  0006a	88 01		 mov	 BYTE PTR [rcx], al

; 197  :     }

  0006c	eb 2c		 jmp	 SHORT $LN6@s390__or_s
$LN5@s390__or_s:

; 198  :     else
; 199  :     {
; 200  :         BYTE* skey_ptr  = _get_storekey_ptr( abs, K );

  0006e	0f b6 54 24 60	 movzx	 edx, BYTE PTR K$[rsp]
  00073	48 8b 4c 24 50	 mov	 rcx, QWORD PTR abs$[rsp]
  00078	e8 00 00 00 00	 call	 _get_storekey_ptr
  0007d	48 89 44 24 30	 mov	 QWORD PTR skey_ptr$3[rsp], rax

; 201  :         OR_SKEY( skey_ptr, bits );

  00082	0f b6 44 24 58	 movzx	 eax, BYTE PTR bits$[rsp]
  00087	48 8b 4c 24 30	 mov	 rcx, QWORD PTR skey_ptr$3[rsp]
  0008c	0f b6 09	 movzx	 ecx, BYTE PTR [rcx]
  0008f	0b c8		 or	 ecx, eax
  00091	8b c1		 mov	 eax, ecx
  00093	48 8b 4c 24 30	 mov	 rcx, QWORD PTR skey_ptr$3[rsp]
  00098	88 01		 mov	 BYTE PTR [rcx], al
$LN6@s390__or_s:

; 202  :     }
; 203  : }

  0009a	48 83 c4 48	 add	 rsp, 72			; 00000048H
  0009e	c3		 ret	 0
s390__or_storage_key ENDP
_TEXT	ENDS
; Function compile flags: /Odtp
; File C:\papa\MyGit\hyperion-zvector\service.c
_TEXT	SEGMENT
i$ = 80
sccb$ = 88
sccblen$ = 96
sccb_absolute_addr$ = 100
offset$ = 104
sccbscp$ = 112
tv243 = 120
masklen$ = 124
obj_len$ = 128
event_msglen$ = 132
mcd_len$ = 136
evd_len$ = 140
i$1 = 144
sccb_real_addr$ = 148
chpbyte$ = 152
sclp_command$ = 156
evd_hdr$ = 160
r2$ = 168
r1$ = 172
tv650 = 176
xstblkinc$ = 180
evd_mask$ = 184
sccbcpu$ = 192
obj_type$ = 200
chpbit$ = 204
xstincnum$ = 208
sccbchp$ = 216
dev$ = 224
tv774 = 232
tv177 = 236
i$2 = 240
incsizemb$ = 244
realinc$ = 248
trunc_len$3 = 252
obj_hdr$ = 256
sccb_last_byte$4 = 264
evd_msg$ = 272
mask$5 = 280
tv1631 = 288
old_cp_send_mask$ = 292
old_cp_recv_mask$ = 296
sccb_first_byte$6 = 304
sccbcsi$ = 312
mcd_bk$ = 320
mto_bk$ = 328
$T7 = 336
tv841 = 344
tv964 = 352
sccbxmap$ = 360
tv1201 = 368
tv313 = 376
sccbmpf$ = 384
tv1028 = 392
tv1032 = 400
tv1126 = 408
xstmap$ = 416
tv1149 = 424
message$ = 432
__$ArrayPad$ = 4528
inst$ = 4576
regs$ = 4584
s390_service_call PROC

; 1408 : {

$LN176:
  00000	48 89 54 24 10	 mov	 QWORD PTR [rsp+16], rdx
  00005	48 89 4c 24 08	 mov	 QWORD PTR [rsp+8], rcx
  0000a	56		 push	 rsi
  0000b	57		 push	 rdi
  0000c	b8 c8 11 00 00	 mov	 eax, 4552		; 000011c8H
  00011	e8 00 00 00 00	 call	 __chkstk
  00016	48 2b e0	 sub	 rsp, rax
  00019	48 8b 05 00 00
	00 00		 mov	 rax, QWORD PTR __security_cookie
  00020	48 33 c4	 xor	 rax, rsp
  00023	48 89 84 24 b0
	11 00 00	 mov	 QWORD PTR __$ArrayPad$[rsp], rax

; 1409 : U32             r1, r2;                 /* Values of R fields        */
; 1410 : U32             sclp_command;           /* SCLP command code         */
; 1411 : U32             sccb_real_addr;         /* SCCB real address         */
; 1412 : int             i;                      /* Array subscripts          */
; 1413 : U32             realinc;                /* Storage size in increments*/
; 1414 : U32             incsizemb;              /* Increment size in MB      */
; 1415 : U32             sccb_absolute_addr;     /* Absolute address of SCCB  */
; 1416 : U16             sccblen;                /* Length of SCCB            */
; 1417 : SCCB_HEADER*    sccb;                   /* -> SCCB header            */
; 1418 : SCCB_SCP_INFO*  sccbscp;                /* -> SCCB SCP information   */
; 1419 : SCCB_CPU_INFO*  sccbcpu;                /* -> SCCB CPU information   */
; 1420 : 
; 1421 : #if defined( FEATURE_MPF_INFO )
; 1422 : SCCB_MPF_INFO*  sccbmpf;                /* -> SCCB MPF information   */
; 1423 : #endif
; 1424 : 
; 1425 : #if defined( FEATURE_CHANNEL_SUBSYSTEM )
; 1426 : SCCB_CHP_INFO*  sccbchp;                /* -> SCCB channel path info */
; 1427 : #else
; 1428 : SCCB_CHSET_INFO* sccbchp;               /* -> SCCB channel path info */
; 1429 : #endif
; 1430 : 
; 1431 : SCCB_CSI_INFO*  sccbcsi;                /* -> SCCB channel subsys inf*/
; 1432 : U16             offset;                 /* Offset from start of SCCB */
; 1433 : 
; 1434 : #if defined( FEATURE_CHANNEL_SUBSYSTEM )
; 1435 : DEVBLK*         dev;                    /* Used to find CHPIDs       */
; 1436 : U32             chpbyte;                /* Offset to byte for CHPID  */
; 1437 : U32             chpbit;                 /* Bit number for CHPID      */
; 1438 : #endif
; 1439 : 
; 1440 : #if defined( FEATURE_SYSTEM_CONSOLE )
; 1441 : SCCB_EVT_MASK*  evd_mask;               /* Event mask                */
; 1442 : SCCB_EVD_HDR*   evd_hdr;                /* Event header              */
; 1443 : U16             evd_len;                /* Length of event data      */
; 1444 : SCCB_MCD_BK*    mcd_bk;                 /* Message Control Data      */
; 1445 : U16             mcd_len;                /* Length of MCD             */
; 1446 : SCCB_OBJ_HDR*   obj_hdr;                /* Object Header             */
; 1447 : U16             obj_len;                /* Length of Object          */
; 1448 : U16             obj_type;               /* Object type               */
; 1449 : SCCB_MTO_BK*    mto_bk;                 /* Message Text Object       */
; 1450 : BYTE*           evd_msg;                /* Message Text pointer      */
; 1451 : int             event_msglen;           /* Message Text length       */
; 1452 : BYTE            message[MAX_EVENT_MSG_LEN];/* Maximum event data buffer
; 1453 :                                            length plus one for \0    */
; 1454 : U32             masklen;                /* Length of event mask      */
; 1455 : U32             old_cp_recv_mask;       /* Masks before write event  */
; 1456 : U32             old_cp_send_mask;       /*              mask command */
; 1457 : #endif /* defined( FEATURE_SYSTEM_CONSOLE ) */
; 1458 : 
; 1459 : #if defined( FEATURE_EXPANDED_STORAGE )
; 1460 : SCCB_XST_MAP*   sccbxmap;               /* Xstore usability map      */
; 1461 : U32             xstincnum;              /* Number of expanded storage
; 1462 :                                                          increments  */
; 1463 : U32             xstblkinc;              /* Number of expanded storage
; 1464 :                                                blocks per increment  */
; 1465 : BYTE*           xstmap;                 /* Xstore bitmap, zero means
; 1466 :                                                            available */
; 1467 : #endif /* defined( FEATURE_EXPANDED_STORAGE ) */
; 1468 : 
; 1469 :     RRE( inst, regs, r1, r2 );

  0002b	b8 01 00 00 00	 mov	 eax, 1
  00030	48 6b c0 03	 imul	 rax, rax, 3
  00034	48 8b 8c 24 e0
	11 00 00	 mov	 rcx, QWORD PTR inst$[rsp]
  0003c	0f b6 04 01	 movzx	 eax, BYTE PTR [rcx+rax]
  00040	89 84 24 f0 00
	00 00		 mov	 DWORD PTR i$2[rsp], eax
  00047	8b 84 24 f0 00
	00 00		 mov	 eax, DWORD PTR i$2[rsp]
  0004e	83 e0 0f	 and	 eax, 15
  00051	89 84 24 a8 00
	00 00		 mov	 DWORD PTR r2$[rsp], eax
  00058	8b 84 24 f0 00
	00 00		 mov	 eax, DWORD PTR i$2[rsp]
  0005f	c1 f8 04	 sar	 eax, 4
  00062	83 e0 0f	 and	 eax, 15
  00065	89 84 24 ac 00
	00 00		 mov	 DWORD PTR r1$[rsp], eax
$LN4@s390_servi:
  0006c	48 8b 84 24 e8
	11 00 00	 mov	 rax, QWORD PTR regs$[rsp]
  00074	48 8b 40 68	 mov	 rax, QWORD PTR [rax+104]
  00078	48 83 c0 04	 add	 rax, 4
  0007c	48 8b 8c 24 e8
	11 00 00	 mov	 rcx, QWORD PTR regs$[rsp]
  00084	48 89 41 68	 mov	 QWORD PTR [rcx+104], rax
  00088	33 c0		 xor	 eax, eax
  0008a	83 f8 04	 cmp	 eax, 4
  0008d	74 0f		 je	 SHORT $LN58@s390_servi
  0008f	48 8b 84 24 e8
	11 00 00	 mov	 rax, QWORD PTR regs$[rsp]
  00097	c6 80 9a 00 00
	00 04		 mov	 BYTE PTR [rax+154], 4
$LN58@s390_servi:
  0009e	33 c0		 xor	 eax, eax
  000a0	85 c0		 test	 eax, eax
  000a2	75 c8		 jne	 SHORT $LN4@s390_servi

; 1470 : 
; 1471 :     PER_ZEROADDR_CHECK( regs, r2 );
; 1472 :     TXF_INSTR_CHECK( regs );
; 1473 :     PRIV_CHECK( regs );

  000a4	48 8b 84 24 e8
	11 00 00	 mov	 rax, QWORD PTR regs$[rsp]
  000ac	0f b6 40 7a	 movzx	 eax, BYTE PTR [rax+122]
  000b0	83 e0 01	 and	 eax, 1
  000b3	85 c0		 test	 eax, eax
  000b5	74 1b		 je	 SHORT $LN59@s390_servi
  000b7	ba 02 00 00 00	 mov	 edx, 2
  000bc	48 8b 8c 24 e8
	11 00 00	 mov	 rcx, QWORD PTR regs$[rsp]
  000c4	48 8b 84 24 e8
	11 00 00	 mov	 rax, QWORD PTR regs$[rsp]
  000cc	ff 90 20 0d 00
	00		 call	 QWORD PTR [rax+3360]
$LN59@s390_servi:
$LN7@s390_servi:

; 1474 : 
; 1475 :     SIE_INTERCEPT( regs );

  000d2	48 8b 84 24 e8
	11 00 00	 mov	 rax, QWORD PTR regs$[rsp]
  000da	8b 80 c8 08 00
	00		 mov	 eax, DWORD PTR [rax+2248]
  000e0	d1 e8		 shr	 eax, 1
  000e2	83 e0 01	 and	 eax, 1
  000e5	85 c0		 test	 eax, eax
  000e7	74 1b		 je	 SHORT $LN60@s390_servi
  000e9	48 8b 84 24 e8
	11 00 00	 mov	 rax, QWORD PTR regs$[rsp]
  000f1	48 05 80 09 00
	00		 add	 rax, 2432		; 00000980H
  000f7	ba fc ff ff ff	 mov	 edx, -4
  000fc	48 8b c8	 mov	 rcx, rax
  000ff	e8 00 00 00 00	 call	 longjmp
$LN60@s390_servi:
  00104	33 c0		 xor	 eax, eax
  00106	85 c0		 test	 eax, eax
  00108	75 c8		 jne	 SHORT $LN7@s390_servi
$LN10@s390_servi:

; 1476 : 
; 1477 :     PTT_INF("SERVC", regs->GR_L(r1), regs->GR_L(r2), regs->psw.IA_L );

  0010a	48 8b 05 00 00
	00 00		 mov	 rax, QWORD PTR __imp_pttclass
  00111	48 8b 00	 mov	 rax, QWORD PTR [rax]
  00114	48 83 e0 08	 and	 rax, 8
  00118	48 85 c0	 test	 rax, rax
  0011b	74 6d		 je	 SHORT $LN61@s390_servi
  0011d	48 8b 84 24 e8
	11 00 00	 mov	 rax, QWORD PTR regs$[rsp]
  00125	8b 80 88 00 00
	00		 mov	 eax, DWORD PTR [rax+136]
  0012b	8b 8c 24 a8 00
	00 00		 mov	 ecx, DWORD PTR r2$[rsp]
  00132	48 8b 94 24 e8
	11 00 00	 mov	 rdx, QWORD PTR regs$[rsp]
  0013a	8b 8c ca 80 02
	00 00		 mov	 ecx, DWORD PTR [rdx+rcx*8+640]
  00141	8b 94 24 ac 00
	00 00		 mov	 edx, DWORD PTR r1$[rsp]
  00148	4c 8b 84 24 e8
	11 00 00	 mov	 r8, QWORD PTR regs$[rsp]
  00150	41 8b 94 d0 80
	02 00 00	 mov	 edx, DWORD PTR [r8+rdx*8+640]
  00158	48 c7 44 24 30
	00 00 00 00	 mov	 QWORD PTR [rsp+48], 0
  00161	48 89 44 24 28	 mov	 QWORD PTR [rsp+40], rax
  00166	48 8d 05 00 00
	00 00		 lea	 rax, OFFSET FLAT:$SG189722
  0016d	48 89 44 24 20	 mov	 QWORD PTR [rsp+32], rax
  00172	44 8b c9	 mov	 r9d, ecx
  00175	44 8b c2	 mov	 r8d, edx
  00178	48 8d 15 00 00
	00 00		 lea	 rdx, OFFSET FLAT:$SG189723
  0017f	b9 08 00 00 00	 mov	 ecx, 8
  00184	ff 15 00 00 00
	00		 call	 QWORD PTR __imp_ptt_pthread_trace
$LN61@s390_servi:
  0018a	33 c0		 xor	 eax, eax
  0018c	85 c0		 test	 eax, eax
  0018e	0f 85 76 ff ff
	ff		 jne	 $LN10@s390_servi

; 1478 : 
; 1479 :     /* R1 is SCLP command word */
; 1480 :     sclp_command = regs->GR_L(r1);

  00194	8b 84 24 ac 00
	00 00		 mov	 eax, DWORD PTR r1$[rsp]
  0019b	48 8b 8c 24 e8
	11 00 00	 mov	 rcx, QWORD PTR regs$[rsp]
  001a3	8b 84 c1 80 02
	00 00		 mov	 eax, DWORD PTR [rcx+rax*8+640]
  001aa	89 84 24 9c 00
	00 00		 mov	 DWORD PTR sclp_command$[rsp], eax

; 1481 : 
; 1482 :     /* R2 is real address of service call control block */
; 1483 :     sccb_real_addr = regs->GR_L(r2);

  001b1	8b 84 24 a8 00
	00 00		 mov	 eax, DWORD PTR r2$[rsp]
  001b8	48 8b 8c 24 e8
	11 00 00	 mov	 rcx, QWORD PTR regs$[rsp]
  001c0	8b 84 c1 80 02
	00 00		 mov	 eax, DWORD PTR [rcx+rax*8+640]
  001c7	89 84 24 94 00
	00 00		 mov	 DWORD PTR sccb_real_addr$[rsp], eax

; 1484 : 
; 1485 :     /* Program check if SCCB is not on a doubleword boundary */
; 1486 :     if (sccb_real_addr & 0x00000007)

  001ce	8b 84 24 94 00
	00 00		 mov	 eax, DWORD PTR sccb_real_addr$[rsp]
  001d5	83 e0 07	 and	 eax, 7
  001d8	85 c0		 test	 eax, eax
  001da	74 12		 je	 SHORT $LN62@s390_servi

; 1487 :         ARCH_DEP( program_interrupt )( regs, PGM_SPECIFICATION_EXCEPTION );

  001dc	ba 06 00 00 00	 mov	 edx, 6
  001e1	48 8b 8c 24 e8
	11 00 00	 mov	 rcx, QWORD PTR regs$[rsp]
  001e9	e8 00 00 00 00	 call	 s390_program_interrupt
$LN62@s390_servi:

; 1488 : 
; 1489 :     /* Program check if SCCB falls outside of main storage */
; 1490 :     if (sccb_real_addr > (regs->mainlim - sizeof( SCCB_HEADER )))

  001ee	8b 84 24 94 00
	00 00		 mov	 eax, DWORD PTR sccb_real_addr$[rsp]
  001f5	48 8b 8c 24 e8
	11 00 00	 mov	 rcx, QWORD PTR regs$[rsp]
  001fd	48 8b 89 58 08
	00 00		 mov	 rcx, QWORD PTR [rcx+2136]
  00204	48 83 e9 08	 sub	 rcx, 8
  00208	48 3b c1	 cmp	 rax, rcx
  0020b	76 12		 jbe	 SHORT $LN63@s390_servi

; 1491 :         ARCH_DEP( program_interrupt )( regs, PGM_ADDRESSING_EXCEPTION );

  0020d	ba 05 00 00 00	 mov	 edx, 5
  00212	48 8b 8c 24 e8
	11 00 00	 mov	 rcx, QWORD PTR regs$[rsp]
  0021a	e8 00 00 00 00	 call	 s390_program_interrupt
$LN63@s390_servi:

; 1492 : 
; 1493 :     /* Obtain the absolute address of the SCCB */
; 1494 :     sccb_absolute_addr = APPLY_PREFIXING( sccb_real_addr, regs->PX );

  0021f	8b 84 24 94 00
	00 00		 mov	 eax, DWORD PTR sccb_real_addr$[rsp]
  00226	48 25 00 f0 ff
	ff		 and	 rax, -4096		; fffffffffffff000H
  0022c	48 85 c0	 test	 rax, rax
  0022f	74 2d		 je	 SHORT $LN159@s390_servi
  00231	8b 84 24 94 00
	00 00		 mov	 eax, DWORD PTR sccb_real_addr$[rsp]
  00238	48 25 00 f0 ff
	ff		 and	 rax, -4096		; fffffffffffff000H
  0023e	48 8b 8c 24 e8
	11 00 00	 mov	 rcx, QWORD PTR regs$[rsp]
  00246	8b 49 70	 mov	 ecx, DWORD PTR [rcx+112]
  00249	48 3b c1	 cmp	 rax, rcx
  0024c	74 10		 je	 SHORT $LN159@s390_servi
  0024e	8b 84 24 94 00
	00 00		 mov	 eax, DWORD PTR sccb_real_addr$[rsp]
  00255	89 84 24 ec 00
	00 00		 mov	 DWORD PTR tv177[rsp], eax
  0025c	eb 1d		 jmp	 SHORT $LN160@s390_servi
$LN159@s390_servi:
  0025e	48 8b 84 24 e8
	11 00 00	 mov	 rax, QWORD PTR regs$[rsp]
  00266	8b 40 70	 mov	 eax, DWORD PTR [rax+112]
  00269	8b 8c 24 94 00
	00 00		 mov	 ecx, DWORD PTR sccb_real_addr$[rsp]
  00270	33 c8		 xor	 ecx, eax
  00272	8b c1		 mov	 eax, ecx
  00274	89 84 24 ec 00
	00 00		 mov	 DWORD PTR tv177[rsp], eax
$LN160@s390_servi:
  0027b	8b 84 24 ec 00
	00 00		 mov	 eax, DWORD PTR tv177[rsp]
  00282	89 44 24 64	 mov	 DWORD PTR sccb_absolute_addr$[rsp], eax

; 1495 : 
; 1496 :     /* Specification Exception if SCCB not below 2GB */
; 1497 :     if (sccb_absolute_addr >= (0x80000000 - sizeof( SCCB_HEADER )))

  00286	8b 44 24 64	 mov	 eax, DWORD PTR sccb_absolute_addr$[rsp]
  0028a	48 3d f8 ff ff
	7f		 cmp	 rax, 2147483640		; 7ffffff8H
  00290	72 12		 jb	 SHORT $LN64@s390_servi

; 1498 :         ARCH_DEP( program_interrupt )( regs, PGM_SPECIFICATION_EXCEPTION );

  00292	ba 06 00 00 00	 mov	 edx, 6
  00297	48 8b 8c 24 e8
	11 00 00	 mov	 rcx, QWORD PTR regs$[rsp]
  0029f	e8 00 00 00 00	 call	 s390_program_interrupt
$LN64@s390_servi:

; 1499 : 
; 1500 :     /* Point to service call control block */
; 1501 :     sccb = (SCCB_HEADER*)(regs->mainstor + sccb_absolute_addr);

  002a4	8b 44 24 64	 mov	 eax, DWORD PTR sccb_absolute_addr$[rsp]
  002a8	48 8b 8c 24 e8
	11 00 00	 mov	 rcx, QWORD PTR regs$[rsp]
  002b0	48 03 81 48 08
	00 00		 add	 rax, QWORD PTR [rcx+2120]
  002b7	48 89 44 24 58	 mov	 QWORD PTR sccb$[rsp], rax

; 1502 : 
; 1503 :     /* Load SCCB length from header */
; 1504 :     FETCH_HW( sccblen, sccb->length  );

  002bc	48 8b 44 24 58	 mov	 rax, QWORD PTR sccb$[rsp]
  002c1	48 8b c8	 mov	 rcx, rax
  002c4	e8 00 00 00 00	 call	 fetch_hw_noswap
  002c9	0f b7 c8	 movzx	 ecx, ax
  002cc	e8 00 00 00 00	 call	 _byteswap_ushort
  002d1	66 89 44 24 60	 mov	 WORD PTR sccblen$[rsp], ax

; 1505 : 
; 1506 :     /* Set the main storage reference bit */
; 1507 :     ARCH_DEP( or_storage_key )( sccb_absolute_addr, STORKEY_REF );

  002d6	8b 44 24 64	 mov	 eax, DWORD PTR sccb_absolute_addr$[rsp]
  002da	b2 04		 mov	 dl, 4
  002dc	8b c8		 mov	 ecx, eax
  002de	e8 00 00 00 00	 call	 s390_or_storage_key

; 1508 : 
; 1509 :     /* Specification Exception if SCCB size less than 8 */
; 1510 :     if (sccblen < sizeof( SCCB_HEADER ))

  002e3	0f b7 44 24 60	 movzx	 eax, WORD PTR sccblen$[rsp]
  002e8	48 83 f8 08	 cmp	 rax, 8
  002ec	73 12		 jae	 SHORT $LN65@s390_servi

; 1511 :         ARCH_DEP( program_interrupt )( regs, PGM_SPECIFICATION_EXCEPTION );

  002ee	ba 06 00 00 00	 mov	 edx, 6
  002f3	48 8b 8c 24 e8
	11 00 00	 mov	 rcx, QWORD PTR regs$[rsp]
  002fb	e8 00 00 00 00	 call	 s390_program_interrupt
$LN65@s390_servi:

; 1512 : 
; 1513 :     /* Program check if SCCB falls outside of main storage,
; 1514 :        isn't below 2GB or overlaps low core or prefix area. */
; 1515 :     {
; 1516 :         U64 sccb_first_byte = (U64) sccb_absolute_addr;

  00300	8b 44 24 64	 mov	 eax, DWORD PTR sccb_absolute_addr$[rsp]
  00304	48 89 84 24 30
	01 00 00	 mov	 QWORD PTR sccb_first_byte$6[rsp], rax

; 1517 :         U64 sccb_last_byte  = (U64) sccb_absolute_addr + sccblen - 1;

  0030c	8b 44 24 64	 mov	 eax, DWORD PTR sccb_absolute_addr$[rsp]
  00310	0f b7 4c 24 60	 movzx	 ecx, WORD PTR sccblen$[rsp]
  00315	48 8d 44 08 ff	 lea	 rax, QWORD PTR [rax+rcx-1]
  0031a	48 89 84 24 08
	01 00 00	 mov	 QWORD PTR sccb_last_byte$4[rsp], rax

; 1518 : 
; 1519 :         if (0
; 1520 :             || sccb_first_byte < PSA_SIZE
; 1521 :             || sccb_last_byte > 0x80000000
; 1522 :             || (sccb_first_byte >= regs->PX && sccb_first_byte < (regs->PX + PSA_SIZE))
; 1523 :             || (sccb_last_byte  >= regs->PX && sccb_last_byte  < (regs->PX + PSA_SIZE))

  00322	33 c0		 xor	 eax, eax
  00324	85 c0		 test	 eax, eax
  00326	75 7f		 jne	 SHORT $LN67@s390_servi
  00328	48 81 bc 24 30
	01 00 00 00 10
	00 00		 cmp	 QWORD PTR sccb_first_byte$6[rsp], 4096 ; 00001000H
  00334	72 71		 jb	 SHORT $LN67@s390_servi
  00336	b8 00 00 00 80	 mov	 eax, -2147483648	; 80000000H
  0033b	48 39 84 24 08
	01 00 00	 cmp	 QWORD PTR sccb_last_byte$4[rsp], rax
  00343	77 62		 ja	 SHORT $LN67@s390_servi
  00345	48 8b 84 24 e8
	11 00 00	 mov	 rax, QWORD PTR regs$[rsp]
  0034d	8b 40 70	 mov	 eax, DWORD PTR [rax+112]
  00350	48 39 84 24 30
	01 00 00	 cmp	 QWORD PTR sccb_first_byte$6[rsp], rax
  00358	72 1c		 jb	 SHORT $LN68@s390_servi
  0035a	48 8b 84 24 e8
	11 00 00	 mov	 rax, QWORD PTR regs$[rsp]
  00362	8b 40 70	 mov	 eax, DWORD PTR [rax+112]
  00365	05 00 10 00 00	 add	 eax, 4096		; 00001000H
  0036a	8b c0		 mov	 eax, eax
  0036c	48 39 84 24 30
	01 00 00	 cmp	 QWORD PTR sccb_first_byte$6[rsp], rax
  00374	72 31		 jb	 SHORT $LN67@s390_servi
$LN68@s390_servi:
  00376	48 8b 84 24 e8
	11 00 00	 mov	 rax, QWORD PTR regs$[rsp]
  0037e	8b 40 70	 mov	 eax, DWORD PTR [rax+112]
  00381	48 39 84 24 08
	01 00 00	 cmp	 QWORD PTR sccb_last_byte$4[rsp], rax
  00389	72 2e		 jb	 SHORT $LN66@s390_servi
  0038b	48 8b 84 24 e8
	11 00 00	 mov	 rax, QWORD PTR regs$[rsp]
  00393	8b 40 70	 mov	 eax, DWORD PTR [rax+112]
  00396	05 00 10 00 00	 add	 eax, 4096		; 00001000H
  0039b	8b c0		 mov	 eax, eax
  0039d	48 39 84 24 08
	01 00 00	 cmp	 QWORD PTR sccb_last_byte$4[rsp], rax
  003a5	73 12		 jae	 SHORT $LN66@s390_servi
$LN67@s390_servi:

; 1524 :         )
; 1525 :             ARCH_DEP( program_interrupt )( regs, PGM_SPECIFICATION_EXCEPTION );

  003a7	ba 06 00 00 00	 mov	 edx, 6
  003ac	48 8b 8c 24 e8
	11 00 00	 mov	 rcx, QWORD PTR regs$[rsp]
  003b4	e8 00 00 00 00	 call	 s390_program_interrupt
$LN66@s390_servi:

; 1526 : 
; 1527 :         if (sccb_last_byte > regs->mainlim)

  003b9	48 8b 84 24 e8
	11 00 00	 mov	 rax, QWORD PTR regs$[rsp]
  003c1	48 8b 80 58 08
	00 00		 mov	 rax, QWORD PTR [rax+2136]
  003c8	48 39 84 24 08
	01 00 00	 cmp	 QWORD PTR sccb_last_byte$4[rsp], rax
  003d0	76 12		 jbe	 SHORT $LN69@s390_servi

; 1528 :             ARCH_DEP( program_interrupt )( regs, PGM_ADDRESSING_EXCEPTION );

  003d2	ba 05 00 00 00	 mov	 edx, 5
  003d7	48 8b 8c 24 e8
	11 00 00	 mov	 rcx, QWORD PTR regs$[rsp]
  003df	e8 00 00 00 00	 call	 s390_program_interrupt
$LN69@s390_servi:

; 1529 :     }
; 1530 : 
; 1531 :     /* Obtain lock if immediate response is not requested */
; 1532 :     if (!(sccb->flag & SCCB_FLAG_SYNC)
; 1533 :         || (sclp_command & SCLP_COMMAND_CLASS) == 0x01)

  003e4	48 8b 44 24 58	 mov	 rax, QWORD PTR sccb$[rsp]
  003e9	0f b6 40 02	 movzx	 eax, BYTE PTR [rax+2]
  003ed	25 80 00 00 00	 and	 eax, 128		; 00000080H
  003f2	85 c0		 test	 eax, eax
  003f4	74 11		 je	 SHORT $LN71@s390_servi
  003f6	8b 84 24 9c 00
	00 00		 mov	 eax, DWORD PTR sclp_command$[rsp]
  003fd	25 ff 00 00 00	 and	 eax, 255		; 000000ffH
  00402	83 f8 01	 cmp	 eax, 1
  00405	75 63		 jne	 SHORT $LN70@s390_servi
$LN71@s390_servi:

; 1534 :     {
; 1535 :         /* Obtain the interrupt lock */
; 1536 :         OBTAIN_INTLOCK( regs );

  00407	48 8d 15 00 00
	00 00		 lea	 rdx, OFFSET FLAT:$SG189734
  0040e	48 8b 8c 24 e8
	11 00 00	 mov	 rcx, QWORD PTR regs$[rsp]
  00416	e8 00 00 00 00	 call	 Obtain_Interrupt_Lock

; 1537 : 
; 1538 :         /* If a service signal is pending then return condition
; 1539 :            code 2 to indicate that service processor is busy */
; 1540 :         if (IS_IC_SERVSIG && (sysblk.servparm & SERVSIG_ADDR))

  0041b	48 8b 05 00 00
	00 00		 mov	 rax, QWORD PTR __imp_sysblk
  00422	8b 80 a0 12 00
	00		 mov	 eax, DWORD PTR [rax+4768]
  00428	25 00 02 00 00	 and	 eax, 512		; 00000200H
  0042d	85 c0		 test	 eax, eax
  0042f	74 39		 je	 SHORT $LN72@s390_servi
  00431	48 8b 05 00 00
	00 00		 mov	 rax, QWORD PTR __imp_sysblk
  00438	8b 80 90 12 00
	00		 mov	 eax, DWORD PTR [rax+4752]
  0043e	83 e0 f8	 and	 eax, -8			; fffffff8H
  00441	85 c0		 test	 eax, eax
  00443	74 25		 je	 SHORT $LN72@s390_servi

; 1541 :         {
; 1542 :             RELEASE_INTLOCK( regs );

  00445	48 8d 15 00 00
	00 00		 lea	 rdx, OFFSET FLAT:$SG189736
  0044c	48 8b 8c 24 e8
	11 00 00	 mov	 rcx, QWORD PTR regs$[rsp]
  00454	e8 00 00 00 00	 call	 Release_Interrupt_Lock

; 1543 :             regs->psw.cc = 2;

  00459	48 8b 84 24 e8
	11 00 00	 mov	 rax, QWORD PTR regs$[rsp]
  00461	c6 40 7c 02	 mov	 BYTE PTR [rax+124], 2

; 1544 :             return;

  00465	e9 11 1c 00 00	 jmp	 $LN1@s390_servi
$LN72@s390_servi:
$LN70@s390_servi:

; 1545 :         }
; 1546 :     }
; 1547 : 
; 1548 :     /* Test SCLP command word */
; 1549 :     switch (sclp_command & SCLP_COMMAND_MASK)

  0046a	8b 84 24 9c 00
	00 00		 mov	 eax, DWORD PTR sclp_command$[rsp]
  00471	25 ff 00 ff ff	 and	 eax, -65281		; ffff00ffH
  00476	89 44 24 78	 mov	 DWORD PTR tv243[rsp], eax
  0047a	81 7c 24 78 01
	00 1c 00	 cmp	 DWORD PTR tv243[rsp], 1835009 ; 001c0001H
  00482	77 55		 ja	 SHORT $LN173@s390_servi
  00484	81 7c 24 78 01
	00 1c 00	 cmp	 DWORD PTR tv243[rsp], 1835009 ; 001c0001H
  0048c	0f 84 8d 09 00
	00		 je	 $LN94@s390_servi
  00492	81 7c 24 78 01
	00 02 00	 cmp	 DWORD PTR tv243[rsp], 131073 ; 00020001H
  0049a	0f 84 a2 00 00
	00		 je	 $LN76@s390_servi
  004a0	81 7c 24 78 01
	00 03 00	 cmp	 DWORD PTR tv243[rsp], 196609 ; 00030001H
  004a8	0f 84 2c 07 00
	00		 je	 $LN88@s390_servi
  004ae	81 7c 24 78 01
	00 10 00	 cmp	 DWORD PTR tv243[rsp], 1048577 ; 00100001H
  004b6	0f 84 87 18 00
	00		 je	 $LN148@s390_servi
  004bc	81 7c 24 78 01
	00 11 00	 cmp	 DWORD PTR tv243[rsp], 1114113 ; 00110001H
  004c4	0f 84 1c 18 00
	00		 je	 $LN146@s390_servi
  004ca	81 7c 24 78 01
	00 12 00	 cmp	 DWORD PTR tv243[rsp], 1179649 ; 00120001H
  004d2	74 42		 je	 SHORT $LN73@s390_servi
  004d4	e9 c7 18 00 00	 jmp	 $LN150@s390_servi
$LN173@s390_servi:
  004d9	81 7c 24 78 01
	00 25 00	 cmp	 DWORD PTR tv243[rsp], 2424833 ; 00250001H
  004e1	0f 84 9c 16 00
	00		 je	 $LN141@s390_servi
  004e7	81 7c 24 78 05
	00 76 00	 cmp	 DWORD PTR tv243[rsp], 7733253 ; 00760005H
  004ef	0f 84 de 09 00
	00		 je	 $LN97@s390_servi
  004f5	81 7c 24 78 05
	00 77 00	 cmp	 DWORD PTR tv243[rsp], 7798789 ; 00770005H
  004fd	0f 84 ec 0f 00
	00		 je	 $LN118@s390_servi
  00503	81 7c 24 78 05
	00 78 00	 cmp	 DWORD PTR tv243[rsp], 7864325 ; 00780005H
  0050b	0f 84 77 12 00
	00		 je	 $LN131@s390_servi
  00511	e9 8a 18 00 00	 jmp	 $LN150@s390_servi
$LN73@s390_servi:

; 1550 :     {
; 1551 :     case SCLP_READ_IFL_INFO:
; 1552 : 
; 1553 :         /* READ_IFL_INFO is only valid for processor type IFL */
; 1554 :         if (sysblk.ptyp[ regs->cpuad ] != SCCB_PTYP_IFL)

  00516	48 8b 84 24 e8
	11 00 00	 mov	 rax, QWORD PTR regs$[rsp]
  0051e	0f b7 80 3c 08
	00 00		 movzx	 eax, WORD PTR [rax+2108]
  00525	48 8b 0d 00 00
	00 00		 mov	 rcx, QWORD PTR __imp_sysblk
  0052c	0f b6 84 01 48
	0b 00 00	 movzx	 eax, BYTE PTR [rcx+rax+2888]
  00534	83 f8 03	 cmp	 eax, 3
  00537	74 07		 je	 SHORT $LN74@s390_servi

; 1555 :             goto invalidcmd;

  00539	e9 62 18 00 00	 jmp	 $invalidcmd$177
  0053e	eb 02		 jmp	 SHORT $LN75@s390_servi
$LN74@s390_servi:

; 1556 :         else
; 1557 :             goto read_scpinfo;

  00540	eb 6e		 jmp	 SHORT $read_scpinfo$178
$LN75@s390_servi:
$LN76@s390_servi:

; 1558 : 
; 1559 :     case SCLP_READ_SCP_INFO:
; 1560 : 
; 1561 :         /* READ_SCP_INFO is only valid for processor type CP */
; 1562 :         if (sysblk.ptyp[ regs->cpuad ] != SCCB_PTYP_CP)

  00542	48 8b 84 24 e8
	11 00 00	 mov	 rax, QWORD PTR regs$[rsp]
  0054a	0f b7 80 3c 08
	00 00		 movzx	 eax, WORD PTR [rax+2108]
  00551	48 8b 0d 00 00
	00 00		 mov	 rcx, QWORD PTR __imp_sysblk
  00558	0f b6 84 01 48
	0b 00 00	 movzx	 eax, BYTE PTR [rcx+rax+2888]
  00560	85 c0		 test	 eax, eax
  00562	74 4c		 je	 SHORT $LN77@s390_servi

; 1563 :         {
; 1564 :             // "The configuration has been placed into a system check-
; 1565 :             //  stop state because of an incompatible service call"
; 1566 :             WRMSG( HHC00005, "W" );

  00564	b9 01 00 00 00	 mov	 ecx, 1
  00569	ff 15 00 00 00
	00		 call	 QWORD PTR __imp___acrt_iob_func
  0056f	48 8d 0d 00 00
	00 00		 lea	 rcx, OFFSET FLAT:$SG189742
  00576	48 89 4c 24 30	 mov	 QWORD PTR [rsp+48], rcx
  0057b	48 8d 0d 00 00
	00 00		 lea	 rcx, OFFSET FLAT:$SG189743
  00582	48 89 4c 24 28	 mov	 QWORD PTR [rsp+40], rcx
  00587	48 89 44 24 20	 mov	 QWORD PTR [rsp+32], rax
  0058c	41 b9 03 00 00
	00		 mov	 r9d, 3
  00592	4c 8d 05 00 00
	00 00		 lea	 r8, OFFSET FLAT:$SG189744
  00599	ba 1e 06 00 00	 mov	 edx, 1566		; 0000061eH
  0059e	48 8d 0d 00 00
	00 00		 lea	 rcx, OFFSET FLAT:$SG189745
  005a5	ff 15 00 00 00
	00		 call	 QWORD PTR __imp_fwritemsg

; 1567 :             goto docheckstop;

  005ab	e9 ee 05 00 00	 jmp	 $docheckstop$179
$LN77@s390_servi:
$read_scpinfo$178:

; 1568 :             /*
; 1569 :              * Replace the following 2 lines with
; 1570 :              * goto invalidcmd
; 1571 :              * if this behavior is not satisfactory
; 1572 :              * ISW 20081221
; 1573 :              */
; 1574 :         }
; 1575 : 
; 1576 :     read_scpinfo:
; 1577 : 
; 1578 :         /* Set the main storage change bit */
; 1579 :         ARCH_DEP( or_storage_key )( sccb_absolute_addr, STORKEY_CHANGE );

  005b0	8b 44 24 64	 mov	 eax, DWORD PTR sccb_absolute_addr$[rsp]
  005b4	b2 02		 mov	 dl, 2
  005b6	8b c8		 mov	 ecx, eax
  005b8	e8 00 00 00 00	 call	 s390_or_storage_key

; 1580 : 
; 1581 :         /* Set response code X'0100' if SCCB crosses a page boundary */
; 1582 :         if ((sccb_absolute_addr & STORAGE_KEY_PAGEMASK) !=

  005bd	8b 44 24 64	 mov	 eax, DWORD PTR sccb_absolute_addr$[rsp]
  005c1	25 00 f0 ff 7f	 and	 eax, 2147479552		; 7ffff000H
  005c6	0f b7 4c 24 60	 movzx	 ecx, WORD PTR sccblen$[rsp]
  005cb	8b 54 24 64	 mov	 edx, DWORD PTR sccb_absolute_addr$[rsp]
  005cf	8d 4c 0a ff	 lea	 ecx, DWORD PTR [rdx+rcx-1]
  005d3	81 e1 00 f0 ff
	7f		 and	 ecx, 2147479552		; 7ffff000H
  005d9	3b c1		 cmp	 eax, ecx
  005db	74 17		 je	 SHORT $LN78@s390_servi

; 1583 :            ((sccb_absolute_addr + sccblen - 1) & STORAGE_KEY_PAGEMASK))
; 1584 :         {
; 1585 :             sccb->reas = SCCB_REAS_NOT_PGBNDRY;

  005dd	48 8b 44 24 58	 mov	 rax, QWORD PTR sccb$[rsp]
  005e2	c6 40 06 01	 mov	 BYTE PTR [rax+6], 1

; 1586 :             sccb->resp = SCCB_RESP_BLOCK_ERROR;

  005e6	48 8b 44 24 58	 mov	 rax, QWORD PTR sccb$[rsp]
  005eb	c6 40 07 00	 mov	 BYTE PTR [rax+7], 0

; 1587 :             break;

  005ef	e9 94 18 00 00	 jmp	 $LN11@s390_servi
$LN78@s390_servi:

; 1588 :         }
; 1589 : 
; 1590 :         /* Set response code X'0300' if SCCB length
; 1591 :            is insufficient to contain SCP info */
; 1592 :         if ( sccblen < sizeof( SCCB_HEADER ) + sizeof( SCCB_SCP_INFO )

  005f4	0f b7 44 24 60	 movzx	 eax, WORD PTR sccblen$[rsp]
  005f9	48 8b 0d 00 00
	00 00		 mov	 rcx, QWORD PTR __imp_sysblk
  00600	48 63 89 00 01
	00 00		 movsxd	 rcx, DWORD PTR [rcx+256]
  00607	48 6b c9 10	 imul	 rcx, rcx, 16
  0060b	48 81 c1 80 00
	00 00		 add	 rcx, 128		; 00000080H
  00612	48 3b c1	 cmp	 rax, rcx
  00615	73 17		 jae	 SHORT $LN79@s390_servi

; 1593 :                 + (sizeof( SCCB_CPU_INFO ) * sysblk.maxcpu))
; 1594 :         {
; 1595 :             sccb->reas = SCCB_REAS_TOO_SHORT;

  00617	48 8b 44 24 58	 mov	 rax, QWORD PTR sccb$[rsp]
  0061c	c6 40 06 03	 mov	 BYTE PTR [rax+6], 3

; 1596 :             sccb->resp = SCCB_RESP_BLOCK_ERROR;

  00620	48 8b 44 24 58	 mov	 rax, QWORD PTR sccb$[rsp]
  00625	c6 40 07 00	 mov	 BYTE PTR [rax+7], 0

; 1597 :             break;

  00629	e9 5a 18 00 00	 jmp	 $LN11@s390_servi
$LN79@s390_servi:

; 1598 :         }
; 1599 : 
; 1600 :         /* Point to SCCB data area following SCCB header */
; 1601 :         sccbscp = (SCCB_SCP_INFO*)(sccb+1);

  0062e	48 8b 44 24 58	 mov	 rax, QWORD PTR sccb$[rsp]
  00633	48 83 c0 08	 add	 rax, 8
  00637	48 89 44 24 70	 mov	 QWORD PTR sccbscp$[rsp], rax

; 1602 :         memset( sccbscp, 0, sizeof( SCCB_SCP_INFO ));

  0063c	48 8b 7c 24 70	 mov	 rdi, QWORD PTR sccbscp$[rsp]
  00641	33 c0		 xor	 eax, eax
  00643	b9 78 00 00 00	 mov	 ecx, 120		; 00000078H
  00648	f3 aa		 rep stosb
$LN15@s390_servi:

; 1603 : 
; 1604 :         /* Set main storage size in SCCB...
; 1605 :          *
; 1606 :          * PROGRAMMING NOTE: Hercules can support main storage sizes
; 1607 :          * up to slightly less than 16 EB (16384 PB = 16777216 TB),
; 1608 :          * even if the host operating system cannot.
; 1609 :          *
; 1610 :          * The guest architecural limit however is constrained by the
; 1611 :          * width of the realinum and realiszm SCCB fields (number of
; 1612 :          * increments and increment size in MB) which are only 16 bits
; 1613 :          * and 8 bits wide respectively. Thus the guest's maximum
; 1614 :          * storage size is architecturally limited to slightly less
; 1615 :          * than 16 TB (65535 increments * 255 MB increment size).
; 1616 :          *
; 1617 :          * This means if our main storage size is >= 64GB we must set
; 1618 :          * the increment size to a value which ensures the resulting
; 1619 :          * number of increments remains <= 65535.
; 1620 :          */
; 1621 : 
; 1622 :         ASSERT( sysblk.mainsize <= MAX_SCP_STORSIZE );

  0064a	48 8b 05 00 00
	00 00		 mov	 rax, QWORD PTR __imp_sysblk
  00651	48 b9 00 00 10
	f0 ef 0f 00 00	 mov	 rcx, 17523199180800	; 00000feff0100000H
  0065b	48 39 88 90 00
	00 00		 cmp	 QWORD PTR [rax+144], rcx
  00662	76 5c		 jbe	 SHORT $LN80@s390_servi
$LN18@s390_servi:
  00664	4c 8d 0d 00 00
	00 00		 lea	 r9, OFFSET FLAT:$SG189749
  0066b	41 b8 56 06 00
	00		 mov	 r8d, 1622		; 00000656H
  00671	48 8d 15 00 00
	00 00		 lea	 rdx, OFFSET FLAT:$SG189750
  00678	48 8d 0d 00 00
	00 00		 lea	 rcx, OFFSET FLAT:$SG189751
  0067f	ff 15 00 00 00
	00		 call	 QWORD PTR __imp_logmsg
  00685	ff 15 00 00 00
	00		 call	 QWORD PTR __imp_IsDebuggerPresent
  0068b	85 c0		 test	 eax, eax
  0068d	74 20		 je	 SHORT $LN81@s390_servi
  0068f	4c 8d 0d 00 00
	00 00		 lea	 r9, OFFSET FLAT:$SG189753
  00696	41 b8 56 06 00
	00		 mov	 r8d, 1622		; 00000656H
  0069c	48 8d 15 00 00
	00 00		 lea	 rdx, OFFSET FLAT:$SG189754
  006a3	48 8d 0d 00 00
	00 00		 lea	 rcx, OFFSET FLAT:$SG189755
  006aa	e8 00 00 00 00	 call	 DebuggerTrace
$LN81@s390_servi:
  006af	33 c0		 xor	 eax, eax
  006b1	85 c0		 test	 eax, eax
  006b3	75 af		 jne	 SHORT $LN18@s390_servi
  006b5	ff 15 00 00 00
	00		 call	 QWORD PTR __imp_IsDebuggerPresent
  006bb	85 c0		 test	 eax, eax
  006bd	74 01		 je	 SHORT $LN82@s390_servi
  006bf	cc		 int	 3
$LN82@s390_servi:
$LN80@s390_servi:
  006c0	33 c0		 xor	 eax, eax
  006c2	85 c0		 test	 eax, eax
  006c4	75 84		 jne	 SHORT $LN15@s390_servi

; 1623 :         incsizemb = (sysblk.mainsize + (MAX_1MINCR_STORSIZE - 1)) / MAX_1MINCR_STORSIZE;

  006c6	48 8b 05 00 00
	00 00		 mov	 rax, QWORD PTR __imp_sysblk
  006cd	48 8b 80 90 00
	00 00		 mov	 rax, QWORD PTR [rax+144]
  006d4	48 b9 ff ff ef
	ff 0f 00 00 00	 mov	 rcx, 68718428159	; 0000000fffefffffH
  006de	48 03 c1	 add	 rax, rcx
  006e1	33 d2		 xor	 edx, edx
  006e3	48 b9 00 00 f0
	ff 0f 00 00 00	 mov	 rcx, 68718428160	; 0000000ffff00000H
  006ed	48 f7 f1	 div	 rcx
  006f0	89 84 24 f4 00
	00 00		 mov	 DWORD PTR incsizemb$[rsp], eax

; 1624 :         realinc = sysblk.mainsize / (incsizemb << SHIFT_MEGABYTE);

  006f7	8b 84 24 f4 00
	00 00		 mov	 eax, DWORD PTR incsizemb$[rsp]
  006fe	c1 e0 14	 shl	 eax, 20
  00701	8b c0		 mov	 eax, eax
  00703	48 89 84 24 78
	01 00 00	 mov	 QWORD PTR tv313[rsp], rax
  0070b	33 d2		 xor	 edx, edx
  0070d	48 8b 0d 00 00
	00 00		 mov	 rcx, QWORD PTR __imp_sysblk
  00714	48 8b 81 90 00
	00 00		 mov	 rax, QWORD PTR [rcx+144]
  0071b	48 8b 8c 24 78
	01 00 00	 mov	 rcx, QWORD PTR tv313[rsp]
  00723	48 f7 f1	 div	 rcx
  00726	89 84 24 f8 00
	00 00		 mov	 DWORD PTR realinc$[rsp], eax

; 1625 : 
; 1626 :         STORE_HW( sccbscp->realinum, realinc );

  0072d	0f b7 8c 24 f8
	00 00 00	 movzx	 ecx, WORD PTR realinc$[rsp]
  00735	e8 00 00 00 00	 call	 _byteswap_ushort
  0073a	48 8b 4c 24 70	 mov	 rcx, QWORD PTR sccbscp$[rsp]
  0073f	0f b7 d0	 movzx	 edx, ax
  00742	e8 00 00 00 00	 call	 store_hw_noswap

; 1627 :         sccbscp->realiszm = (incsizemb & 0xFF);

  00747	8b 84 24 f4 00
	00 00		 mov	 eax, DWORD PTR incsizemb$[rsp]
  0074e	25 ff 00 00 00	 and	 eax, 255		; 000000ffH
  00753	48 8b 4c 24 70	 mov	 rcx, QWORD PTR sccbscp$[rsp]
  00758	88 41 02	 mov	 BYTE PTR [rcx+2], al

; 1628 :         sccbscp->realbszk = 4;

  0075b	48 8b 44 24 70	 mov	 rax, QWORD PTR sccbscp$[rsp]
  00760	c6 40 03 04	 mov	 BYTE PTR [rax+3], 4

; 1629 :         STORE_HW( sccbscp->realiint, 1 );

  00764	66 b9 01 00	 mov	 cx, 1
  00768	e8 00 00 00 00	 call	 _byteswap_ushort
  0076d	48 8b 4c 24 70	 mov	 rcx, QWORD PTR sccbscp$[rsp]
  00772	48 83 c1 04	 add	 rcx, 4
  00776	0f b7 d0	 movzx	 edx, ax
  00779	e8 00 00 00 00	 call	 store_hw_noswap

; 1630 : 
; 1631 : #if defined( _900 ) || defined( FEATURE_001_ZARCH_INSTALLED_FACILITY )
; 1632 :         /* SIE supports the full address range */
; 1633 :         sccbscp->maxvm = 0;

  0077e	48 8b 44 24 70	 mov	 rax, QWORD PTR sccbscp$[rsp]
  00783	c6 40 5b 00	 mov	 BYTE PTR [rax+91], 0

; 1634 :         /* realiszm is valid */
; 1635 :         STORE_FW( sccbscp->grzm, 0 );

  00787	33 c9		 xor	 ecx, ecx
  00789	e8 00 00 00 00	 call	 _byteswap_ulong
  0078e	48 8b 4c 24 70	 mov	 rcx, QWORD PTR sccbscp$[rsp]
  00793	48 83 c1 5c	 add	 rcx, 92			; 0000005cH
  00797	8b d0		 mov	 edx, eax
  00799	e8 00 00 00 00	 call	 store_fw_noswap

; 1636 :         /* Number of storage increments installed in esame mode */
; 1637 :         STORE_DW( sccbscp->grnmx, realinc );

  0079e	8b 84 24 f8 00
	00 00		 mov	 eax, DWORD PTR realinc$[rsp]
  007a5	8b c8		 mov	 ecx, eax
  007a7	e8 00 00 00 00	 call	 _byteswap_uint64
  007ac	48 8b 4c 24 70	 mov	 rcx, QWORD PTR sccbscp$[rsp]
  007b1	48 83 c1 60	 add	 rcx, 96			; 00000060H
  007b5	48 8b d0	 mov	 rdx, rax
  007b8	e8 00 00 00 00	 call	 store_dw_noswap

; 1638 : #endif
; 1639 : 
; 1640 : #if defined( FEATURE_EXPANDED_STORAGE )
; 1641 :         /* Set expanded storage size in SCCB */
; 1642 :         xstincnum = sysblk.xpndsize /

  007bd	33 d2		 xor	 edx, edx
  007bf	48 8b 05 00 00
	00 00		 mov	 rax, QWORD PTR __imp_sysblk
  007c6	8b 80 ac 00 00
	00		 mov	 eax, DWORD PTR [rax+172]
  007cc	b9 00 01 00 00	 mov	 ecx, 256		; 00000100H
  007d1	f7 f1		 div	 ecx
  007d3	89 84 24 d0 00
	00 00		 mov	 DWORD PTR xstincnum$[rsp], eax

; 1643 :                     (XSTORE_INCREMENT_SIZE >> XSTORE_PAGESHIFT);
; 1644 :         STORE_FW( sccbscp->xpndinum, xstincnum );

  007da	8b 8c 24 d0 00
	00 00		 mov	 ecx, DWORD PTR xstincnum$[rsp]
  007e1	e8 00 00 00 00	 call	 _byteswap_ulong
  007e6	48 8b 4c 24 70	 mov	 rcx, QWORD PTR sccbscp$[rsp]
  007eb	48 83 c1 18	 add	 rcx, 24
  007ef	8b d0		 mov	 edx, eax
  007f1	e8 00 00 00 00	 call	 store_fw_noswap

; 1645 :         xstblkinc = XSTORE_INCREMENT_SIZE >> XSTORE_PAGESHIFT;

  007f6	c7 84 24 b4 00
	00 00 00 01 00
	00		 mov	 DWORD PTR xstblkinc$[rsp], 256 ; 00000100H

; 1646 :         STORE_FW( sccbscp->xpndsz4K, xstblkinc );

  00801	8b 8c 24 b4 00
	00 00		 mov	 ecx, DWORD PTR xstblkinc$[rsp]
  00808	e8 00 00 00 00	 call	 _byteswap_ulong
  0080d	48 8b 4c 24 70	 mov	 rcx, QWORD PTR sccbscp$[rsp]
  00812	48 83 c1 1c	 add	 rcx, 28
  00816	8b d0		 mov	 edx, eax
  00818	e8 00 00 00 00	 call	 store_fw_noswap

; 1647 : #endif
; 1648 : 
; 1649 : #if defined( FEATURE_S370_S390_VECTOR_FACILITY )
; 1650 :         /* Set the Vector section size in the SCCB */
; 1651 :         STORE_HW( sccbscp->vectssiz, VECTOR_SECTION_SIZE );
; 1652 :         /* Set the Vector partial sum number in the SCCB */
; 1653 :         STORE_HW( sccbscp->vectpsum, VECTOR_PARTIAL_SUM_NUMBER );
; 1654 : #endif
; 1655 :         /* Set CPU array count and offset in SCCB */
; 1656 :         STORE_HW( sccbscp->numcpu, sysblk.maxcpu );

  0081d	48 8b 05 00 00
	00 00		 mov	 rax, QWORD PTR __imp_sysblk
  00824	0f b7 88 00 01
	00 00		 movzx	 ecx, WORD PTR [rax+256]
  0082b	e8 00 00 00 00	 call	 _byteswap_ushort
  00830	48 8b 4c 24 70	 mov	 rcx, QWORD PTR sccbscp$[rsp]
  00835	48 83 c1 08	 add	 rcx, 8
  00839	0f b7 d0	 movzx	 edx, ax
  0083c	e8 00 00 00 00	 call	 store_hw_noswap

; 1657 :         offset = sizeof( SCCB_HEADER ) + sizeof( SCCB_SCP_INFO );

  00841	b8 80 00 00 00	 mov	 eax, 128		; 00000080H
  00846	66 89 44 24 68	 mov	 WORD PTR offset$[rsp], ax

; 1658 :         STORE_HW( sccbscp->offcpu, offset );

  0084b	0f b7 4c 24 68	 movzx	 ecx, WORD PTR offset$[rsp]
  00850	e8 00 00 00 00	 call	 _byteswap_ushort
  00855	48 8b 4c 24 70	 mov	 rcx, QWORD PTR sccbscp$[rsp]
  0085a	48 83 c1 0a	 add	 rcx, 10
  0085e	0f b7 d0	 movzx	 edx, ax
  00861	e8 00 00 00 00	 call	 store_hw_noswap

; 1659 : 
; 1660 : #if defined( FEATURE_MPF_INFO )
; 1661 :         /* Set MPF array count and offset in SCCB */
; 1662 :         STORE_HW( sccbscp->nummpf, sysblk.maxcpu-1 );

  00866	48 8b 05 00 00
	00 00		 mov	 rax, QWORD PTR __imp_sysblk
  0086d	8b 80 00 01 00
	00		 mov	 eax, DWORD PTR [rax+256]
  00873	ff c8		 dec	 eax
  00875	0f b7 c8	 movzx	 ecx, ax
  00878	e8 00 00 00 00	 call	 _byteswap_ushort
  0087d	48 8b 4c 24 70	 mov	 rcx, QWORD PTR sccbscp$[rsp]
  00882	48 83 c1 40	 add	 rcx, 64			; 00000040H
  00886	0f b7 d0	 movzx	 edx, ax
  00889	e8 00 00 00 00	 call	 store_hw_noswap

; 1663 : #endif
; 1664 :         offset += (U16)sizeof( SCCB_CPU_INFO ) * sysblk.maxcpu;

  0088e	48 8b 05 00 00
	00 00		 mov	 rax, QWORD PTR __imp_sysblk
  00895	6b 80 00 01 00
	00 10		 imul	 eax, DWORD PTR [rax+256], 16
  0089c	0f b7 4c 24 68	 movzx	 ecx, WORD PTR offset$[rsp]
  008a1	03 c8		 add	 ecx, eax
  008a3	8b c1		 mov	 eax, ecx
  008a5	66 89 44 24 68	 mov	 WORD PTR offset$[rsp], ax

; 1665 :         STORE_HW( sccbscp->offmpf, offset );

  008aa	0f b7 4c 24 68	 movzx	 ecx, WORD PTR offset$[rsp]
  008af	e8 00 00 00 00	 call	 _byteswap_ushort
  008b4	48 8b 4c 24 70	 mov	 rcx, QWORD PTR sccbscp$[rsp]
  008b9	48 83 c1 42	 add	 rcx, 66			; 00000042H
  008bd	0f b7 d0	 movzx	 edx, ax
  008c0	e8 00 00 00 00	 call	 store_hw_noswap

; 1666 : 
; 1667 :         /* Set HSA array count and offset in SCCB */
; 1668 :         STORE_HW( sccbscp->numhsa, 0 );

  008c5	33 c9		 xor	 ecx, ecx
  008c7	e8 00 00 00 00	 call	 _byteswap_ushort
  008cc	48 8b 4c 24 70	 mov	 rcx, QWORD PTR sccbscp$[rsp]
  008d1	48 83 c1 0c	 add	 rcx, 12
  008d5	0f b7 d0	 movzx	 edx, ax
  008d8	e8 00 00 00 00	 call	 store_hw_noswap

; 1669 : 
; 1670 : #if defined( FEATURE_MPF_INFO )
; 1671 :         offset += (U16)sizeof( SCCB_MPF_INFO ) * sysblk.maxcpu-1;

  008dd	48 8b 05 00 00
	00 00		 mov	 rax, QWORD PTR __imp_sysblk
  008e4	8b 80 00 01 00
	00		 mov	 eax, DWORD PTR [rax+256]
  008ea	0f b7 4c 24 68	 movzx	 ecx, WORD PTR offset$[rsp]
  008ef	8d 44 41 ff	 lea	 eax, DWORD PTR [rcx+rax*2-1]
  008f3	66 89 44 24 68	 mov	 WORD PTR offset$[rsp], ax

; 1672 : #endif
; 1673 :         STORE_HW( sccbscp->offhsa, offset );

  008f8	0f b7 4c 24 68	 movzx	 ecx, WORD PTR offset$[rsp]
  008fd	e8 00 00 00 00	 call	 _byteswap_ushort
  00902	48 8b 4c 24 70	 mov	 rcx, QWORD PTR sccbscp$[rsp]
  00907	48 83 c1 0e	 add	 rcx, 14
  0090b	0f b7 d0	 movzx	 edx, ax
  0090e	e8 00 00 00 00	 call	 store_hw_noswap

; 1674 : 
; 1675 :         /* Build the MPF information array after the CPU info */
; 1676 :         /* Move IPL load parameter to SCCB */
; 1677 :         get_loadparm( sccbscp->loadparm );

  00913	48 8b 44 24 70	 mov	 rax, QWORD PTR sccbscp$[rsp]
  00918	48 83 c0 10	 add	 rax, 16
  0091c	48 8b c8	 mov	 rcx, rax
  0091f	e8 00 00 00 00	 call	 get_loadparm

; 1678 : 
; 1679 :         /* Set installed features bit mask in SCCB */
; 1680 :         memcpy( sccbscp->ifm, ARCH_DEP( scpinfo_ifm ), sizeof( sccbscp->ifm ));

  00924	48 8b 44 24 70	 mov	 rax, QWORD PTR sccbscp$[rsp]
  00929	48 8b 0d 00 00
	00 00		 mov	 rcx, QWORD PTR s390_scpinfo_ifm
  00930	48 89 48 28	 mov	 QWORD PTR [rax+40], rcx

; 1681 : 
; 1682 :         memcpy( sccbscp->cfg, ARCH_DEP( scpinfo_cfg ), sizeof( sccbscp->cfg ));

  00934	48 8b 44 24 70	 mov	 rax, QWORD PTR sccbscp$[rsp]
  00939	48 8d 0d 00 00
	00 00		 lea	 rcx, OFFSET FLAT:s390_scpinfo_cfg
  00940	48 8d 78 48	 lea	 rdi, QWORD PTR [rax+72]
  00944	48 8b f1	 mov	 rsi, rcx
  00947	b9 06 00 00 00	 mov	 ecx, 6
  0094c	f3 a4		 rep movsb

; 1683 :         /* sccbscp->cfg11 = ARCH_DEP( scpinfo_cfg11 ); */
; 1684 : 
; 1685 :         /* Turn off bits for facilities that aren't enabled */
; 1686 :         if (!FACILITY_ENABLED( 016_EXT_TRANSL_2, regs ))

  0094e	b8 01 00 00 00	 mov	 eax, 1
  00953	48 6b c0 02	 imul	 rax, rax, 2
  00957	48 8b 8c 24 e8
	11 00 00	 mov	 rcx, QWORD PTR regs$[rsp]
  0095f	0f b6 84 01 28
	0d 00 00	 movzx	 eax, BYTE PTR [rcx+rax+3368]
  00967	25 80 00 00 00	 and	 eax, 128		; 00000080H
  0096c	85 c0		 test	 eax, eax
  0096e	75 28		 jne	 SHORT $LN83@s390_servi

; 1687 :             sccbscp->cfg[4] &= ~SCCB_CFG4_EXTENDED_TRANSLATION_FACILITY2;

  00970	b8 01 00 00 00	 mov	 eax, 1
  00975	48 6b c0 04	 imul	 rax, rax, 4
  00979	48 8b 4c 24 70	 mov	 rcx, QWORD PTR sccbscp$[rsp]
  0097e	0f b6 44 01 48	 movzx	 eax, BYTE PTR [rcx+rax+72]
  00983	83 e0 ef	 and	 eax, -17
  00986	b9 01 00 00 00	 mov	 ecx, 1
  0098b	48 6b c9 04	 imul	 rcx, rcx, 4
  0098f	48 8b 54 24 70	 mov	 rdx, QWORD PTR sccbscp$[rsp]
  00994	88 44 0a 48	 mov	 BYTE PTR [rdx+rcx+72], al
$LN83@s390_servi:

; 1688 : 
; 1689 :         if (!FACILITY_ENABLED( 009_SENSE_RUN_STATUS, regs ))

  00998	b8 01 00 00 00	 mov	 eax, 1
  0099d	48 6b c0 01	 imul	 rax, rax, 1
  009a1	48 8b 8c 24 e8
	11 00 00	 mov	 rcx, QWORD PTR regs$[rsp]
  009a9	0f b6 84 01 28
	0d 00 00	 movzx	 eax, BYTE PTR [rcx+rax+3368]
  009b1	83 e0 40	 and	 eax, 64			; 00000040H
  009b4	85 c0		 test	 eax, eax
  009b6	75 28		 jne	 SHORT $LN84@s390_servi

; 1690 :             sccbscp->cfg[5] &= ~SCCB_CFG5_SENSE_RUNNING_STATUS;

  009b8	b8 01 00 00 00	 mov	 eax, 1
  009bd	48 6b c0 05	 imul	 rax, rax, 5
  009c1	48 8b 4c 24 70	 mov	 rcx, QWORD PTR sccbscp$[rsp]
  009c6	0f b6 44 01 48	 movzx	 eax, BYTE PTR [rcx+rax+72]
  009cb	83 e0 f7	 and	 eax, -9
  009ce	b9 01 00 00 00	 mov	 ecx, 1
  009d3	48 6b c9 05	 imul	 rcx, rcx, 5
  009d7	48 8b 54 24 70	 mov	 rdx, QWORD PTR sccbscp$[rsp]
  009dc	88 44 0a 48	 mov	 BYTE PTR [rdx+rcx+72], al
$LN84@s390_servi:

; 1691 : 
; 1692 :         /* Turn on additioal bits for facilities that ARE enabled */
; 1693 :         if (0
; 1694 : #if defined( _FEATURE_HYPERVISOR )
; 1695 :             || FACILITY_ENABLED( HERC_LOGICAL_PARTITION, regs )
; 1696 : #endif
; 1697 : #if defined( _FEATURE_EMULATE_VM )
; 1698 :             || FACILITY_ENABLED( HERC_VIRTUAL_MACHINE, regs )

  009e0	33 c0		 xor	 eax, eax
  009e2	85 c0		 test	 eax, eax
  009e4	75 40		 jne	 SHORT $LN86@s390_servi
  009e6	b8 01 00 00 00	 mov	 eax, 1
  009eb	48 6b c0 20	 imul	 rax, rax, 32		; 00000020H
  009ef	48 8b 8c 24 e8
	11 00 00	 mov	 rcx, QWORD PTR regs$[rsp]
  009f7	0f b6 84 01 28
	0d 00 00	 movzx	 eax, BYTE PTR [rcx+rax+3368]
  009ff	83 e0 08	 and	 eax, 8
  00a02	85 c0		 test	 eax, eax
  00a04	75 20		 jne	 SHORT $LN86@s390_servi
  00a06	b8 01 00 00 00	 mov	 eax, 1
  00a0b	48 6b c0 21	 imul	 rax, rax, 33		; 00000021H
  00a0f	48 8b 8c 24 e8
	11 00 00	 mov	 rcx, QWORD PTR regs$[rsp]
  00a17	0f b6 84 01 28
	0d 00 00	 movzx	 eax, BYTE PTR [rcx+rax+3368]
  00a1f	83 e0 01	 and	 eax, 1
  00a22	85 c0		 test	 eax, eax
  00a24	74 29		 je	 SHORT $LN85@s390_servi
$LN86@s390_servi:

; 1699 : #endif
; 1700 :         )
; 1701 :             sccbscp->cfg[0] |= SCCB_CFG0_LOGICALLY_PARTITIONED;

  00a26	b8 01 00 00 00	 mov	 eax, 1
  00a2b	48 6b c0 00	 imul	 rax, rax, 0
  00a2f	48 8b 4c 24 70	 mov	 rcx, QWORD PTR sccbscp$[rsp]
  00a34	0f b6 44 01 48	 movzx	 eax, BYTE PTR [rcx+rax+72]
  00a39	0f ba e8 07	 bts	 eax, 7
  00a3d	b9 01 00 00 00	 mov	 ecx, 1
  00a42	48 6b c9 00	 imul	 rcx, rcx, 0
  00a46	48 8b 54 24 70	 mov	 rdx, QWORD PTR sccbscp$[rsp]
  00a4b	88 44 0a 48	 mov	 BYTE PTR [rdx+rcx+72], al
$LN85@s390_servi:

; 1702 : 
; 1703 : #if defined( _900 ) || defined( FEATURE_001_ZARCH_INSTALLED_FACILITY )
; 1704 :         if (FACILITY_ENABLED( 001_ZARCH_INSTALLED, regs ))

  00a4f	b8 01 00 00 00	 mov	 eax, 1
  00a54	48 6b c0 00	 imul	 rax, rax, 0
  00a58	48 8b 8c 24 e8
	11 00 00	 mov	 rcx, QWORD PTR regs$[rsp]
  00a60	0f b6 84 01 28
	0d 00 00	 movzx	 eax, BYTE PTR [rcx+rax+3368]
  00a68	83 e0 40	 and	 eax, 64			; 00000040H
  00a6b	85 c0		 test	 eax, eax
  00a6d	74 28		 je	 SHORT $LN87@s390_servi

; 1705 :             sccbscp->cfg[5] |= SCCB_CFG5_ESAME;

  00a6f	b8 01 00 00 00	 mov	 eax, 1
  00a74	48 6b c0 05	 imul	 rax, rax, 5
  00a78	48 8b 4c 24 70	 mov	 rcx, QWORD PTR sccbscp$[rsp]
  00a7d	0f b6 44 01 48	 movzx	 eax, BYTE PTR [rcx+rax+72]
  00a82	83 c8 01	 or	 eax, 1
  00a85	b9 01 00 00 00	 mov	 ecx, 1
  00a8a	48 6b c9 05	 imul	 rcx, rcx, 5
  00a8e	48 8b 54 24 70	 mov	 rdx, QWORD PTR sccbscp$[rsp]
  00a93	88 44 0a 48	 mov	 BYTE PTR [rdx+rcx+72], al
$LN87@s390_servi:

; 1706 : #endif
; 1707 : 
; 1708 :         /* Build the CPU information array after the SCP info */
; 1709 :         sccbcpu = (SCCB_CPU_INFO*)(sccbscp+1);

  00a97	48 8b 44 24 70	 mov	 rax, QWORD PTR sccbscp$[rsp]
  00a9c	48 83 c0 78	 add	 rax, 120		; 00000078H
  00aa0	48 89 84 24 c0
	00 00 00	 mov	 QWORD PTR sccbcpu$[rsp], rax

; 1710 : 
; 1711 :         for (i=0; i < sysblk.maxcpu; i++, sccbcpu++)

  00aa8	c7 44 24 50 00
	00 00 00	 mov	 DWORD PTR i$[rsp], 0
  00ab0	eb 1e		 jmp	 SHORT $LN21@s390_servi
$LN19@s390_servi:
  00ab2	8b 44 24 50	 mov	 eax, DWORD PTR i$[rsp]
  00ab6	ff c0		 inc	 eax
  00ab8	89 44 24 50	 mov	 DWORD PTR i$[rsp], eax
  00abc	48 8b 84 24 c0
	00 00 00	 mov	 rax, QWORD PTR sccbcpu$[rsp]
  00ac4	48 83 c0 10	 add	 rax, 16
  00ac8	48 89 84 24 c0
	00 00 00	 mov	 QWORD PTR sccbcpu$[rsp], rax
$LN21@s390_servi:
  00ad0	48 8b 05 00 00
	00 00		 mov	 rax, QWORD PTR __imp_sysblk
  00ad7	8b 80 00 01 00
	00		 mov	 eax, DWORD PTR [rax+256]
  00add	39 44 24 50	 cmp	 DWORD PTR i$[rsp], eax
  00ae1	7d 6d		 jge	 SHORT $LN20@s390_servi

; 1712 :         {
; 1713 :             memset( sccbcpu, 0, sizeof( SCCB_CPU_INFO ));

  00ae3	48 8b bc 24 c0
	00 00 00	 mov	 rdi, QWORD PTR sccbcpu$[rsp]
  00aeb	33 c0		 xor	 eax, eax
  00aed	b9 10 00 00 00	 mov	 ecx, 16
  00af2	f3 aa		 rep stosb

; 1714 :             sccbcpu->cpa = i;

  00af4	48 8b 84 24 c0
	00 00 00	 mov	 rax, QWORD PTR sccbcpu$[rsp]
  00afc	0f b6 4c 24 50	 movzx	 ecx, BYTE PTR i$[rsp]
  00b01	88 08		 mov	 BYTE PTR [rax], cl

; 1715 :             sccbcpu->tod = 0;

  00b03	48 8b 84 24 c0
	00 00 00	 mov	 rax, QWORD PTR sccbcpu$[rsp]
  00b0b	c6 40 01 00	 mov	 BYTE PTR [rax+1], 0

; 1716 :             memcpy( sccbcpu->cpf, ARCH_DEP( scpinfo_cpf ), sizeof( sccbcpu->cpf ));

  00b0f	48 8b 84 24 c0
	00 00 00	 mov	 rax, QWORD PTR sccbcpu$[rsp]
  00b17	48 8d 0d 00 00
	00 00		 lea	 rcx, OFFSET FLAT:s390_scpinfo_cpf
  00b1e	48 8d 78 02	 lea	 rdi, QWORD PTR [rax+2]
  00b22	48 8b f1	 mov	 rsi, rcx
  00b25	b9 0c 00 00 00	 mov	 ecx, 12
  00b2a	f3 a4		 rep movsb

; 1717 :             sccbcpu->ptyp = sysblk.ptyp[i];

  00b2c	48 63 44 24 50	 movsxd	 rax, DWORD PTR i$[rsp]
  00b31	48 8b 8c 24 c0
	00 00 00	 mov	 rcx, QWORD PTR sccbcpu$[rsp]
  00b39	48 8b 15 00 00
	00 00		 mov	 rdx, QWORD PTR __imp_sysblk
  00b40	0f b6 84 02 48
	0b 00 00	 movzx	 eax, BYTE PTR [rdx+rax+2888]
  00b48	88 41 0e	 mov	 BYTE PTR [rcx+14], al

; 1718 : 
; 1719 : #if defined( FEATURE_CRYPTO )
; 1720 : //          sccbcpu->ksid = SCCB_KSID_CRYPTO_UNIT_ID;
; 1721 : #endif
; 1722 : 
; 1723 : #if defined( FEATURE_S370_S390_VECTOR_FACILITY )
; 1724 : 
; 1725 :             if (IS_CPU_ONLINE(i) && sysblk.regs[i]->vf->online)
; 1726 :                 sccbcpu->cpf[2] |= SCCB_CPF2_VECTOR_FEATURE_INSTALLED;
; 1727 :             if (IS_CPU_ONLINE(i) && sysblk.regs[i]->vf->online)
; 1728 :                 sccbcpu->cpf[2] |= SCCB_CPF2_VECTOR_FEATURE_CONNECTED;
; 1729 :             if (!IS_CPU_ONLINE(i))
; 1730 :                 sccbcpu->cpf[2] |= SCCB_CPF2_VECTOR_FEATURE_STANDBY_STATE;
; 1731 : #endif
; 1732 :         }

  00b4b	e9 62 ff ff ff	 jmp	 $LN19@s390_servi
$LN20@s390_servi:

; 1733 : 
; 1734 : #if defined( FEATURE_MPF_INFO )
; 1735 : 
; 1736 :         /* Define machine capacity */
; 1737 :         STORE_FW( sccbscp->rcci, 10000 );

  00b50	b9 10 27 00 00	 mov	 ecx, 10000		; 00002710H
  00b55	e8 00 00 00 00	 call	 _byteswap_ulong
  00b5a	48 8b 4c 24 70	 mov	 rcx, QWORD PTR sccbscp$[rsp]
  00b5f	48 83 c1 4e	 add	 rcx, 78			; 0000004eH
  00b63	8b d0		 mov	 edx, eax
  00b65	e8 00 00 00 00	 call	 store_fw_noswap

; 1738 : 
; 1739 :         /* Fill in the MP Factors array */
; 1740 :         sccbmpf = (SCCB_MPF_INFO*)(sccbcpu);

  00b6a	48 8b 84 24 c0
	00 00 00	 mov	 rax, QWORD PTR sccbcpu$[rsp]
  00b72	48 89 84 24 80
	01 00 00	 mov	 QWORD PTR sccbmpf$[rsp], rax

; 1741 :         get_mpfactors((BYTE*)sccbmpf);

  00b7a	48 8b 8c 24 80
	01 00 00	 mov	 rcx, QWORD PTR sccbmpf$[rsp]
  00b82	e8 00 00 00 00	 call	 get_mpfactors

; 1742 : #endif
; 1743 : 
; 1744 :         /* Set response code X'0010' in SCCB header */
; 1745 :         sccb->reas = SCCB_REAS_NONE;

  00b87	48 8b 44 24 58	 mov	 rax, QWORD PTR sccb$[rsp]
  00b8c	c6 40 06 00	 mov	 BYTE PTR [rax+6], 0

; 1746 :         sccb->resp = SCCB_RESP_INFO;

  00b90	48 8b 44 24 58	 mov	 rax, QWORD PTR sccb$[rsp]
  00b95	c6 40 07 10	 mov	 BYTE PTR [rax+7], 16

; 1747 :         break;

  00b99	e9 ea 12 00 00	 jmp	 $LN11@s390_servi
$docheckstop$179:

; 1748 : 
; 1749 : docheckstop:
; 1750 : 
; 1751 :         ARCH_DEP( checkstop_all_cpus )( regs );

  00b9e	48 8b 8c 24 e8
	11 00 00	 mov	 rcx, QWORD PTR regs$[rsp]
  00ba6	e8 00 00 00 00	 call	 s390_checkstop_all_cpus

; 1752 :         RELEASE_INTLOCK( regs );

  00bab	48 8d 15 00 00
	00 00		 lea	 rdx, OFFSET FLAT:$SG189762
  00bb2	48 8b 8c 24 e8
	11 00 00	 mov	 rcx, QWORD PTR regs$[rsp]
  00bba	e8 00 00 00 00	 call	 Release_Interrupt_Lock

; 1753 :         longjmp( regs->progjmp, SIE_NO_INTERCEPT );

  00bbf	48 8b 84 24 e8
	11 00 00	 mov	 rax, QWORD PTR regs$[rsp]
  00bc7	48 05 80 09 00
	00		 add	 rax, 2432		; 00000980H
  00bcd	ba ff ff ff ff	 mov	 edx, -1
  00bd2	48 8b c8	 mov	 rcx, rax
  00bd5	e8 00 00 00 00	 call	 longjmp
$LN88@s390_servi:

; 1754 :         UNREACHABLE_CODE( return );
; 1755 : 
; 1756 :     case SCLP_READ_CHP_INFO:
; 1757 : 
; 1758 :         /* Set the main storage change bit */
; 1759 :         ARCH_DEP( or_storage_key )( sccb_absolute_addr, STORKEY_CHANGE );

  00bda	8b 44 24 64	 mov	 eax, DWORD PTR sccb_absolute_addr$[rsp]
  00bde	b2 02		 mov	 dl, 2
  00be0	8b c8		 mov	 ecx, eax
  00be2	e8 00 00 00 00	 call	 s390_or_storage_key

; 1760 : 
; 1761 :         /* Set response code X'0100' if SCCB crosses a page boundary */
; 1762 :         if ((sccb_absolute_addr & STORAGE_KEY_PAGEMASK) !=

  00be7	8b 44 24 64	 mov	 eax, DWORD PTR sccb_absolute_addr$[rsp]
  00beb	25 00 f0 ff 7f	 and	 eax, 2147479552		; 7ffff000H
  00bf0	0f b7 4c 24 60	 movzx	 ecx, WORD PTR sccblen$[rsp]
  00bf5	8b 54 24 64	 mov	 edx, DWORD PTR sccb_absolute_addr$[rsp]
  00bf9	8d 4c 0a ff	 lea	 ecx, DWORD PTR [rdx+rcx-1]
  00bfd	81 e1 00 f0 ff
	7f		 and	 ecx, 2147479552		; 7ffff000H
  00c03	3b c1		 cmp	 eax, ecx
  00c05	74 17		 je	 SHORT $LN89@s390_servi

; 1763 :            ((sccb_absolute_addr + sccblen - 1) & STORAGE_KEY_PAGEMASK))
; 1764 :         {
; 1765 :             sccb->reas = SCCB_REAS_NOT_PGBNDRY;

  00c07	48 8b 44 24 58	 mov	 rax, QWORD PTR sccb$[rsp]
  00c0c	c6 40 06 01	 mov	 BYTE PTR [rax+6], 1

; 1766 :             sccb->resp = SCCB_RESP_BLOCK_ERROR;

  00c10	48 8b 44 24 58	 mov	 rax, QWORD PTR sccb$[rsp]
  00c15	c6 40 07 00	 mov	 BYTE PTR [rax+7], 0

; 1767 :             break;

  00c19	e9 6a 12 00 00	 jmp	 $LN11@s390_servi
$LN89@s390_servi:

; 1768 :         }
; 1769 : 
; 1770 :         /* Set response code X'0300' if SCCB length
; 1771 :            is insufficient to contain channel path info */
; 1772 :         if ( sccblen < sizeof( SCCB_HEADER ) + sizeof( SCCB_CHP_INFO ))

  00c1e	0f b7 44 24 60	 movzx	 eax, WORD PTR sccblen$[rsp]
  00c23	48 83 f8 68	 cmp	 rax, 104		; 00000068H
  00c27	73 17		 jae	 SHORT $LN90@s390_servi

; 1773 :         {
; 1774 :             sccb->reas = SCCB_REAS_TOO_SHORT;

  00c29	48 8b 44 24 58	 mov	 rax, QWORD PTR sccb$[rsp]
  00c2e	c6 40 06 03	 mov	 BYTE PTR [rax+6], 3

; 1775 :             sccb->resp = SCCB_RESP_BLOCK_ERROR;

  00c32	48 8b 44 24 58	 mov	 rax, QWORD PTR sccb$[rsp]
  00c37	c6 40 07 00	 mov	 BYTE PTR [rax+7], 0

; 1776 :             break;

  00c3b	e9 48 12 00 00	 jmp	 $LN11@s390_servi
$LN90@s390_servi:

; 1777 :         }
; 1778 : 
; 1779 : #if defined( FEATURE_S370_CHANNEL )
; 1780 : 
; 1781 :         /* Point to SCCB data area following SCCB header */
; 1782 :         sccbchp = (SCCB_CHSET_INFO*)(sccb+1);
; 1783 :         memset( sccbchp, 0, sizeof( SCCB_CHSET_INFO ));
; 1784 : #else
; 1785 :         /* Point to SCCB data area following SCCB header */
; 1786 :         sccbchp = (SCCB_CHP_INFO*)(sccb+1);

  00c40	48 8b 44 24 58	 mov	 rax, QWORD PTR sccb$[rsp]
  00c45	48 83 c0 08	 add	 rax, 8
  00c49	48 89 84 24 d8
	00 00 00	 mov	 QWORD PTR sccbchp$[rsp], rax

; 1787 :         memset( sccbchp, 0, sizeof( SCCB_CHP_INFO ));

  00c51	48 8b bc 24 d8
	00 00 00	 mov	 rdi, QWORD PTR sccbchp$[rsp]
  00c59	33 c0		 xor	 eax, eax
  00c5b	b9 60 00 00 00	 mov	 ecx, 96			; 00000060H
  00c60	f3 aa		 rep stosb

; 1788 : #endif
; 1789 : 
; 1790 : #if defined( FEATURE_CHANNEL_SUBSYSTEM )
; 1791 : 
; 1792 :         /* Identify CHPIDs installed, standby, and online */
; 1793 :         for (dev = sysblk.firstdev; dev != NULL; dev = dev->nextdev)

  00c62	48 8b 05 00 00
	00 00		 mov	 rax, QWORD PTR __imp_sysblk
  00c69	48 8b 80 c0 11
	00 00		 mov	 rax, QWORD PTR [rax+4544]
  00c70	48 89 84 24 e0
	00 00 00	 mov	 QWORD PTR dev$[rsp], rax
  00c78	eb 14		 jmp	 SHORT $LN24@s390_servi
$LN22@s390_servi:
  00c7a	48 8b 84 24 e0
	00 00 00	 mov	 rax, QWORD PTR dev$[rsp]
  00c82	48 8b 40 30	 mov	 rax, QWORD PTR [rax+48]
  00c86	48 89 84 24 e0
	00 00 00	 mov	 QWORD PTR dev$[rsp], rax
$LN24@s390_servi:
  00c8e	48 83 bc 24 e0
	00 00 00 00	 cmp	 QWORD PTR dev$[rsp], 0
  00c97	0f 84 6b 01 00
	00		 je	 $LN23@s390_servi

; 1794 :         {
; 1795 :             for (i=0; i < 8; i++)

  00c9d	c7 44 24 50 00
	00 00 00	 mov	 DWORD PTR i$[rsp], 0
  00ca5	eb 0a		 jmp	 SHORT $LN27@s390_servi
$LN25@s390_servi:
  00ca7	8b 44 24 50	 mov	 eax, DWORD PTR i$[rsp]
  00cab	ff c0		 inc	 eax
  00cad	89 44 24 50	 mov	 DWORD PTR i$[rsp], eax
$LN27@s390_servi:
  00cb1	83 7c 24 50 08	 cmp	 DWORD PTR i$[rsp], 8
  00cb6	0f 8d 47 01 00
	00		 jge	 $LN26@s390_servi

; 1796 :             {
; 1797 :                 chpbyte = dev->pmcw.chpid[i] / 8;

  00cbc	48 63 44 24 50	 movsxd	 rax, DWORD PTR i$[rsp]
  00cc1	48 8b 8c 24 e0
	00 00 00	 mov	 rcx, QWORD PTR dev$[rsp]
  00cc9	0f b6 84 01 fc
	02 00 00	 movzx	 eax, BYTE PTR [rcx+rax+764]
  00cd1	99		 cdq
  00cd2	83 e2 07	 and	 edx, 7
  00cd5	03 c2		 add	 eax, edx
  00cd7	c1 f8 03	 sar	 eax, 3
  00cda	89 84 24 98 00
	00 00		 mov	 DWORD PTR chpbyte$[rsp], eax

; 1798 :                 chpbit  = dev->pmcw.chpid[i] % 8;

  00ce1	48 63 44 24 50	 movsxd	 rax, DWORD PTR i$[rsp]
  00ce6	48 8b 8c 24 e0
	00 00 00	 mov	 rcx, QWORD PTR dev$[rsp]
  00cee	0f b6 84 01 fc
	02 00 00	 movzx	 eax, BYTE PTR [rcx+rax+764]
  00cf6	99		 cdq
  00cf7	83 e2 07	 and	 edx, 7
  00cfa	03 c2		 add	 eax, edx
  00cfc	83 e0 07	 and	 eax, 7
  00cff	2b c2		 sub	 eax, edx
  00d01	89 84 24 cc 00
	00 00		 mov	 DWORD PTR chpbit$[rsp], eax

; 1799 : 
; 1800 :                 if ( ((0x80 >> i) & dev->pmcw.pim))

  00d08	8b 44 24 50	 mov	 eax, DWORD PTR i$[rsp]
  00d0c	b9 80 00 00 00	 mov	 ecx, 128		; 00000080H
  00d11	89 8c 24 20 01
	00 00		 mov	 DWORD PTR tv1631[rsp], ecx
  00d18	0f b6 c8	 movzx	 ecx, al
  00d1b	8b 84 24 20 01
	00 00		 mov	 eax, DWORD PTR tv1631[rsp]
  00d22	d3 f8		 sar	 eax, cl
  00d24	48 8b 8c 24 e0
	00 00 00	 mov	 rcx, QWORD PTR dev$[rsp]
  00d2c	0f b6 89 f7 02
	00 00		 movzx	 ecx, BYTE PTR [rcx+759]
  00d33	23 c1		 and	 eax, ecx
  00d35	85 c0		 test	 eax, eax
  00d37	0f 84 c1 00 00
	00		 je	 $LN91@s390_servi

; 1801 :                 {
; 1802 :                     sccbchp->installed  [ chpbyte ] |= 0x80 >> chpbit;

  00d3d	8b 84 24 98 00
	00 00		 mov	 eax, DWORD PTR chpbyte$[rsp]
  00d44	8b 8c 24 cc 00
	00 00		 mov	 ecx, DWORD PTR chpbit$[rsp]
  00d4b	ba 80 00 00 00	 mov	 edx, 128		; 00000080H
  00d50	d3 fa		 sar	 edx, cl
  00d52	8b ca		 mov	 ecx, edx
  00d54	48 8b 94 24 d8
	00 00 00	 mov	 rdx, QWORD PTR sccbchp$[rsp]
  00d5c	0f b6 04 02	 movzx	 eax, BYTE PTR [rdx+rax]
  00d60	0b c1		 or	 eax, ecx
  00d62	8b 8c 24 98 00
	00 00		 mov	 ecx, DWORD PTR chpbyte$[rsp]
  00d69	48 8b 94 24 d8
	00 00 00	 mov	 rdx, QWORD PTR sccbchp$[rsp]
  00d71	88 04 0a	 mov	 BYTE PTR [rdx+rcx], al

; 1803 : 
; 1804 :                     if (dev->pmcw.flag5 & PMCW5_V)

  00d74	48 8b 84 24 e0
	00 00 00	 mov	 rax, QWORD PTR dev$[rsp]
  00d7c	0f b6 80 f1 02
	00 00		 movzx	 eax, BYTE PTR [rax+753]
  00d83	83 e0 01	 and	 eax, 1
  00d86	85 c0		 test	 eax, eax
  00d88	74 3b		 je	 SHORT $LN92@s390_servi

; 1805 :                         sccbchp->online [ chpbyte ] |= 0x80 >> chpbit;

  00d8a	8b 84 24 98 00
	00 00		 mov	 eax, DWORD PTR chpbyte$[rsp]
  00d91	8b 8c 24 cc 00
	00 00		 mov	 ecx, DWORD PTR chpbit$[rsp]
  00d98	ba 80 00 00 00	 mov	 edx, 128		; 00000080H
  00d9d	d3 fa		 sar	 edx, cl
  00d9f	8b ca		 mov	 ecx, edx
  00da1	48 8b 94 24 d8
	00 00 00	 mov	 rdx, QWORD PTR sccbchp$[rsp]
  00da9	0f b6 44 02 40	 movzx	 eax, BYTE PTR [rdx+rax+64]
  00dae	0b c1		 or	 eax, ecx
  00db0	8b 8c 24 98 00
	00 00		 mov	 ecx, DWORD PTR chpbyte$[rsp]
  00db7	48 8b 94 24 d8
	00 00 00	 mov	 rdx, QWORD PTR sccbchp$[rsp]
  00dbf	88 44 0a 40	 mov	 BYTE PTR [rdx+rcx+64], al
  00dc3	eb 39		 jmp	 SHORT $LN93@s390_servi
$LN92@s390_servi:

; 1806 :                     else
; 1807 :                         sccbchp->standby[ chpbyte ] |= 0x80 >> chpbit;

  00dc5	8b 84 24 98 00
	00 00		 mov	 eax, DWORD PTR chpbyte$[rsp]
  00dcc	8b 8c 24 cc 00
	00 00		 mov	 ecx, DWORD PTR chpbit$[rsp]
  00dd3	ba 80 00 00 00	 mov	 edx, 128		; 00000080H
  00dd8	d3 fa		 sar	 edx, cl
  00dda	8b ca		 mov	 ecx, edx
  00ddc	48 8b 94 24 d8
	00 00 00	 mov	 rdx, QWORD PTR sccbchp$[rsp]
  00de4	0f b6 44 02 20	 movzx	 eax, BYTE PTR [rdx+rax+32]
  00de9	0b c1		 or	 eax, ecx
  00deb	8b 8c 24 98 00
	00 00		 mov	 ecx, DWORD PTR chpbyte$[rsp]
  00df2	48 8b 94 24 d8
	00 00 00	 mov	 rdx, QWORD PTR sccbchp$[rsp]
  00dfa	88 44 0a 20	 mov	 BYTE PTR [rdx+rcx+32], al
$LN93@s390_servi:
$LN91@s390_servi:

; 1808 :                 }
; 1809 :             }

  00dfe	e9 a4 fe ff ff	 jmp	 $LN25@s390_servi
$LN26@s390_servi:

; 1810 :         }

  00e03	e9 72 fe ff ff	 jmp	 $LN22@s390_servi
$LN23@s390_servi:

; 1811 : #endif
; 1812 : 
; 1813 : #if defined( FEATURE_S370_CHANNEL )
; 1814 : 
; 1815 :         /* For S/370, initialize identifiers for channel set 0A */
; 1816 :         for (i=0; i < 16; i++)
; 1817 :         {
; 1818 :             sccbchp->chanset0a[ 2*i + 0 ] = 0x80;
; 1819 :             sccbchp->chanset0a[ 2*i + 1 ] = i;
; 1820 :         }
; 1821 : 
; 1822 :         /* Set the channel set configuration byte */
; 1823 :         sccbchp->csconfig = 0xC0;
; 1824 : 
; 1825 : #endif
; 1826 : 
; 1827 :         /* Set response code X'0010' in SCCB header */
; 1828 :         sccb->reas = SCCB_REAS_NONE;

  00e08	48 8b 44 24 58	 mov	 rax, QWORD PTR sccb$[rsp]
  00e0d	c6 40 06 00	 mov	 BYTE PTR [rax+6], 0

; 1829 :         sccb->resp = SCCB_RESP_INFO;

  00e11	48 8b 44 24 58	 mov	 rax, QWORD PTR sccb$[rsp]
  00e16	c6 40 07 10	 mov	 BYTE PTR [rax+7], 16

; 1830 :         break;

  00e1a	e9 69 10 00 00	 jmp	 $LN11@s390_servi
$LN94@s390_servi:

; 1831 : 
; 1832 :     case SCLP_READ_CSI_INFO:
; 1833 : 
; 1834 :         /* Set the main storage change bit */
; 1835 :         ARCH_DEP( or_storage_key )( sccb_absolute_addr, STORKEY_CHANGE );

  00e1f	8b 44 24 64	 mov	 eax, DWORD PTR sccb_absolute_addr$[rsp]
  00e23	b2 02		 mov	 dl, 2
  00e25	8b c8		 mov	 ecx, eax
  00e27	e8 00 00 00 00	 call	 s390_or_storage_key

; 1836 : 
; 1837 :         /* Set response code X'0100' if SCCB crosses a page boundary */
; 1838 :         if ((sccb_absolute_addr & STORAGE_KEY_PAGEMASK) !=

  00e2c	8b 44 24 64	 mov	 eax, DWORD PTR sccb_absolute_addr$[rsp]
  00e30	25 00 f0 ff 7f	 and	 eax, 2147479552		; 7ffff000H
  00e35	0f b7 4c 24 60	 movzx	 ecx, WORD PTR sccblen$[rsp]
  00e3a	8b 54 24 64	 mov	 edx, DWORD PTR sccb_absolute_addr$[rsp]
  00e3e	8d 4c 0a ff	 lea	 ecx, DWORD PTR [rdx+rcx-1]
  00e42	81 e1 00 f0 ff
	7f		 and	 ecx, 2147479552		; 7ffff000H
  00e48	3b c1		 cmp	 eax, ecx
  00e4a	74 17		 je	 SHORT $LN95@s390_servi

; 1839 :             ((sccb_absolute_addr + sccblen - 1) & STORAGE_KEY_PAGEMASK))
; 1840 :         {
; 1841 :             sccb->reas = SCCB_REAS_NOT_PGBNDRY;

  00e4c	48 8b 44 24 58	 mov	 rax, QWORD PTR sccb$[rsp]
  00e51	c6 40 06 01	 mov	 BYTE PTR [rax+6], 1

; 1842 :             sccb->resp = SCCB_RESP_BLOCK_ERROR;

  00e55	48 8b 44 24 58	 mov	 rax, QWORD PTR sccb$[rsp]
  00e5a	c6 40 07 00	 mov	 BYTE PTR [rax+7], 0

; 1843 :             break;

  00e5e	e9 25 10 00 00	 jmp	 $LN11@s390_servi
$LN95@s390_servi:

; 1844 :         }
; 1845 : 
; 1846 :         /* Set response code X'0300' if SCCB length
; 1847 :            is insufficient to contain channel path info */
; 1848 :         if ( sccblen < sizeof( SCCB_HEADER ) + sizeof( SCCB_CSI_INFO ))

  00e63	0f b7 44 24 60	 movzx	 eax, WORD PTR sccblen$[rsp]
  00e68	48 83 f8 40	 cmp	 rax, 64			; 00000040H
  00e6c	73 17		 jae	 SHORT $LN96@s390_servi

; 1849 :         {
; 1850 :             sccb->reas = SCCB_REAS_TOO_SHORT;

  00e6e	48 8b 44 24 58	 mov	 rax, QWORD PTR sccb$[rsp]
  00e73	c6 40 06 03	 mov	 BYTE PTR [rax+6], 3

; 1851 :             sccb->resp = SCCB_RESP_BLOCK_ERROR;

  00e77	48 8b 44 24 58	 mov	 rax, QWORD PTR sccb$[rsp]
  00e7c	c6 40 07 00	 mov	 BYTE PTR [rax+7], 0

; 1852 :             break;

  00e80	e9 03 10 00 00	 jmp	 $LN11@s390_servi
$LN96@s390_servi:

; 1853 :         }
; 1854 : 
; 1855 :         /* Point to SCCB data area following SCCB header */
; 1856 :         sccbcsi = (SCCB_CSI_INFO*)(sccb+1);

  00e85	48 8b 44 24 58	 mov	 rax, QWORD PTR sccb$[rsp]
  00e8a	48 83 c0 08	 add	 rax, 8
  00e8e	48 89 84 24 38
	01 00 00	 mov	 QWORD PTR sccbcsi$[rsp], rax

; 1857 :         memset( sccbcsi, 0, sizeof( SCCB_CSI_INFO ));

  00e96	48 8b bc 24 38
	01 00 00	 mov	 rdi, QWORD PTR sccbcsi$[rsp]
  00e9e	33 c0		 xor	 eax, eax
  00ea0	b9 38 00 00 00	 mov	 ecx, 56			; 00000038H
  00ea5	f3 aa		 rep stosb

; 1858 : 
; 1859 :         sccbcsi->csif[0] =

  00ea7	b8 01 00 00 00	 mov	 eax, 1
  00eac	48 6b c0 00	 imul	 rax, rax, 0
  00eb0	48 8b 8c 24 38
	01 00 00	 mov	 rcx, QWORD PTR sccbcsi$[rsp]
  00eb8	c6 04 01 03	 mov	 BYTE PTR [rcx+rax], 3

; 1860 :             0
; 1861 : #if defined( FEATURE_CANCEL_IO_FACILITY )
; 1862 :             | SCCB_CSI0_CANCEL_IO_REQUEST_FACILITY
; 1863 : #endif
; 1864 :             | SCCB_CSI0_CONCURRENT_SENSE_FACILITY
; 1865 :             ;
; 1866 : 
; 1867 :         /* Set response code X'0010' in SCCB header */
; 1868 :         sccb->reas = SCCB_REAS_NONE;

  00ebc	48 8b 44 24 58	 mov	 rax, QWORD PTR sccb$[rsp]
  00ec1	c6 40 06 00	 mov	 BYTE PTR [rax+6], 0

; 1869 :         sccb->resp = SCCB_RESP_INFO;

  00ec5	48 8b 44 24 58	 mov	 rax, QWORD PTR sccb$[rsp]
  00eca	c6 40 07 10	 mov	 BYTE PTR [rax+7], 16

; 1870 :         break;

  00ece	e9 b5 0f 00 00	 jmp	 $LN11@s390_servi
$LN97@s390_servi:

; 1871 : 
; 1872 : #if defined( FEATURE_SYSTEM_CONSOLE )
; 1873 : 
; 1874 :     case SCLP_WRITE_EVENT_DATA:
; 1875 : 
; 1876 :         /* Set the main storage change bit */
; 1877 :         ARCH_DEP( or_storage_key )( sccb_absolute_addr, STORKEY_CHANGE );

  00ed3	8b 44 24 64	 mov	 eax, DWORD PTR sccb_absolute_addr$[rsp]
  00ed7	b2 02		 mov	 dl, 2
  00ed9	8b c8		 mov	 ecx, eax
  00edb	e8 00 00 00 00	 call	 s390_or_storage_key

; 1878 : 
; 1879 :         /* Set response code X'0100' if SCCB crosses a page boundary */
; 1880 :         if ((sccb_absolute_addr & STORAGE_KEY_PAGEMASK) !=

  00ee0	8b 44 24 64	 mov	 eax, DWORD PTR sccb_absolute_addr$[rsp]
  00ee4	25 00 f0 ff 7f	 and	 eax, 2147479552		; 7ffff000H
  00ee9	0f b7 4c 24 60	 movzx	 ecx, WORD PTR sccblen$[rsp]
  00eee	8b 54 24 64	 mov	 edx, DWORD PTR sccb_absolute_addr$[rsp]
  00ef2	8d 4c 0a ff	 lea	 ecx, DWORD PTR [rdx+rcx-1]
  00ef6	81 e1 00 f0 ff
	7f		 and	 ecx, 2147479552		; 7ffff000H
  00efc	3b c1		 cmp	 eax, ecx
  00efe	74 17		 je	 SHORT $LN98@s390_servi

; 1881 :             ((sccb_absolute_addr + sccblen - 1) & STORAGE_KEY_PAGEMASK))
; 1882 :         {
; 1883 :             sccb->reas = SCCB_REAS_NOT_PGBNDRY;

  00f00	48 8b 44 24 58	 mov	 rax, QWORD PTR sccb$[rsp]
  00f05	c6 40 06 01	 mov	 BYTE PTR [rax+6], 1

; 1884 :             sccb->resp = SCCB_RESP_BLOCK_ERROR;

  00f09	48 8b 44 24 58	 mov	 rax, QWORD PTR sccb$[rsp]
  00f0e	c6 40 07 00	 mov	 BYTE PTR [rax+7], 0

; 1885 :             break;

  00f12	e9 71 0f 00 00	 jmp	 $LN11@s390_servi
$LN98@s390_servi:

; 1886 :         }
; 1887 : 
; 1888 :         /* Point to SCCB data area following SCCB header */
; 1889 :         evd_hdr = (SCCB_EVD_HDR*)(sccb+1);

  00f17	48 8b 44 24 58	 mov	 rax, QWORD PTR sccb$[rsp]
  00f1c	48 83 c0 08	 add	 rax, 8
  00f20	48 89 84 24 a0
	00 00 00	 mov	 QWORD PTR evd_hdr$[rsp], rax

; 1890 :         FETCH_HW( evd_len, evd_hdr->totlen );

  00f28	48 8b 84 24 a0
	00 00 00	 mov	 rax, QWORD PTR evd_hdr$[rsp]
  00f30	48 8b c8	 mov	 rcx, rax
  00f33	e8 00 00 00 00	 call	 fetch_hw_noswap
  00f38	0f b7 c8	 movzx	 ecx, ax
