; Listing generated by Microsoft (R) Optimizing Compiler Version 19.34.31937.0 

include listing.inc

INCLUDELIB MSVCRTD
INCLUDELIB OLDNAMES

PUBLIC	shared_ckd_init
PUBLIC	shared_fba_init
PUBLIC	shared_ckd_device_hndinfo
PUBLIC	shared_fba_device_hndinfo
EXTRN	ckd_dasd_execute_ccw:PROC
EXTRN	ckd_dasd_query_device:PROC
EXTRN	ckd_dasd_hsuspend:PROC
EXTRN	ckd_dasd_hresume:PROC
EXTRN	fba_dasd_execute_ccw:PROC
EXTRN	fba_dasd_query_device:PROC
EXTRN	fba_dasd_hsuspend:PROC
EXTRN	fba_dasd_hresume:PROC
_DATA	SEGMENT
shared_ckd_device_hndinfo DQ FLAT:shared_ckd_init
	DQ	FLAT:ckd_dasd_execute_ccw
	DQ	FLAT:shared_ckd_close
	DQ	FLAT:ckd_dasd_query_device
	DQ	0000000000000000H
	DQ	FLAT:shared_start
	DQ	FLAT:shared_end
	DQ	FLAT:shared_start
	DQ	FLAT:shared_end
	DQ	0000000000000000H
	DQ	FLAT:shared_ckd_read
	DQ	FLAT:shared_ckd_write
	DQ	FLAT:shared_used
	DQ	FLAT:shared_reserve
	DQ	FLAT:shared_release
	DQ	0000000000000000H
	DQ	0000000000000000H
	DQ	0000000000000000H
	DQ	0000000000000000H
	DQ	0000000000000000H
	DQ	0000000000000000H
	DQ	0000000000000000H
	DQ	0000000000000000H
	DQ	FLAT:ckd_dasd_hsuspend
	DQ	FLAT:ckd_dasd_hresume
	ORG $+8
shared_fba_device_hndinfo DQ FLAT:shared_fba_init
	DQ	FLAT:fba_dasd_execute_ccw
	DQ	FLAT:shared_fba_close
	DQ	FLAT:fba_dasd_query_device
	DQ	0000000000000000H
	DQ	FLAT:shared_start
	DQ	FLAT:shared_end
	DQ	FLAT:shared_start
	DQ	FLAT:shared_end
	DQ	0000000000000000H
	DQ	FLAT:shared_ckd_read
	DQ	FLAT:shared_ckd_write
	DQ	FLAT:shared_used
	DQ	FLAT:shared_reserve
	DQ	FLAT:shared_release
	DQ	0000000000000000H
	DQ	0000000000000000H
	DQ	0000000000000000H
	DQ	0000000000000000H
	DQ	0000000000000000H
	DQ	0000000000000000H
	DQ	0000000000000000H
	DQ	0000000000000000H
	DQ	FLAT:fba_dasd_hsuspend
	DQ	FLAT:fba_dasd_hresume
_DATA	ENDS
CONST	SEGMENT
CKD_ENDTRK DB	0ffH
	DB	0ffH
	DB	0ffH
	DB	0ffH
	DB	0ffH
	DB	0ffH
	DB	0ffH
	DB	0ffH
VOL1_KEYA DB	056H
	DB	04fH
	DB	04cH
	DB	031H
VOL1_KEY DB	0e5H
	DB	0d6H
	DB	0d3H
	DB	0f1H
IPL1_KEY DB	0c9H
	DB	0d7H
	DB	0d3H
	DB	0f1H
IPL2_KEY DB	0c9H
	DB	0d7H
	DB	0d3H
	DB	0f2H
iplpsw	DB	00H
	DB	00H
	DB	00H
	DB	00H
	DB	00H
	DB	00H
	DB	00H
	DB	00H
iplccw1	DB	06H
	DB	00H
	DB	03aH
	DB	098H
	DB	060H
	DB	00H
	DB	00H
	DB	060H
iplccw2	DB	08H
	DB	00H
	DB	03aH
	DB	098H
	DB	00H
	DB	00H
	DB	00H
	DB	00H
noiplpsw DB	00H
	DB	02H
	DB	00H
	DB	00H
	DB	00H
	DB	00H
	DB	00H
	DB	0fH
noiplccw1 DB	03H
	DB	00H
	DB	00H
	DB	00H
	DB	00H
	DB	00H
	DB	00H
	DB	01H
noiplccw2 DB	00H
	DB	00H
	DB	00H
	DB	00H
	DB	00H
	DB	00H
	DB	00H
	DB	00H
ipl2data DB	07H
	DB	00H
	DB	03aH
	DB	0b8H
	DB	040H
	DB	00H
	DB	00H
	DB	06H
	DB	031H
	DB	00H
	DB	03aH
	DB	0beH
	DB	040H
	DB	00H
	DB	00H
	DB	05H
	DB	08H
	DB	00H
	DB	03aH
	DB	0a0H
	DB	00H
	DB	00H
	DB	00H
	DB	00H
	DB	06H
	DB	00H
	DB	00H
	DB	00H
	DB	020H
	DB	00H
	DB	07fH
	DB	0ffH
	DB	00H
	DB	00H
	DB	00H
	DB	00H
	DB	00H
	DB	00H
	DB	00H
	DB	00H
	DB	00H
	DB	00H
	DB	04H
CONST	ENDS
PUBLIC	__local_stdio_printf_options
PUBLIC	__local_stdio_scanf_options
PUBLIC	_vsnprintf_s_l
PUBLIC	_vsnprintf_s
PUBLIC	_vsscanf_l
PUBLIC	sscanf
PUBLIC	shared_update_notify
PUBLIC	shared_server
PUBLIC	shrd_cmd
PUBLIC	shared_print_trace_table
PUBLIC	fetch_hw_noswap
PUBLIC	store_hw_noswap
PUBLIC	fetch_fw_noswap
PUBLIC	store_fw_noswap
PUBLIC	store_dw_noswap
PUBLIC	shutdown_shared_server
PUBLIC	shutdown_shared_server_locked
EXTRN	__imp__errno:PROC
EXTRN	strchr:PROC
EXTRN	__imp__stricmp:PROC
EXTRN	strlen:PROC
EXTRN	__imp_strdup:PROC
EXTRN	__imp_IsDebuggerPresent:PROC
EXTRN	__imp_OutputDebugStringA:PROC
EXTRN	__imp_calloc:PROC
EXTRN	__imp_free:PROC
EXTRN	__imp_malloc:PROC
EXTRN	_byteswap_ushort:PROC
EXTRN	_byteswap_ulong:PROC
EXTRN	_byteswap_uint64:PROC
EXTRN	__imp_bind:PROC
EXTRN	__imp_connect:PROC
EXTRN	__imp_getpeername:PROC
EXTRN	__imp_htons:PROC
EXTRN	__imp_inet_ntoa:PROC
EXTRN	__imp_listen:PROC
EXTRN	__imp_recv:PROC
EXTRN	__imp_send:PROC
EXTRN	__imp_setsockopt:PROC
EXTRN	__imp_gethostbyname:PROC
EXTRN	__imp_WSAGetLastError:PROC
EXTRN	__imp___acrt_iob_func:PROC
EXTRN	__imp___stdio_common_vsnprintf_s:PROC
EXTRN	__imp___stdio_common_vsscanf:PROC
EXTRN	__imp__time64:PROC
EXTRN	__imp_fthread_self:PROC
EXTRN	__imp_hthread_obtain_lock:PROC
EXTRN	__imp_hthread_release_lock:PROC
EXTRN	__imp_hthread_signal_condition:PROC
EXTRN	__imp_hthread_wait_condition:PROC
EXTRN	__imp_hthread_create_thread:PROC
EXTRN	__imp_hthread_get_thread_prio:PROC
EXTRN	__imp_strlcpy:PROC
EXTRN	__imp_strlcat:PROC
EXTRN	__imp_FormatTIMEVAL:PROC
EXTRN	__imp_w32_strerror:PROC
EXTRN	__imp_strtok_r:PROC
EXTRN	__imp_gettimeofday:PROC
EXTRN	__imp_usleep:PROC
EXTRN	__imp_sleep:PROC
EXTRN	__imp_sched_yield:PROC
EXTRN	__imp_socket_is_socket:PROC
EXTRN	__imp_w32_socket:PROC
EXTRN	__imp_w32_accept:PROC
EXTRN	__imp_w32_close_socket:PROC
EXTRN	__imp_w32_FD_SET:PROC
EXTRN	__imp_w32_FD_ISSET:PROC
EXTRN	__imp_w32_select:PROC
EXTRN	__imp_w32_vsnprintf:PROC
EXTRN	__imp_w32_snprintf:PROC
EXTRN	__imp_hdl_addshut:PROC
EXTRN	__imp_hdl_delshut:PROC
EXTRN	cache_lookup:PROC
EXTRN	cache_scan:PROC
EXTRN	cache_lock:PROC
EXTRN	cache_unlock:PROC
EXTRN	cache_wait:PROC
EXTRN	cache_getkey:PROC
EXTRN	cache_setkey:PROC
EXTRN	cache_setflag:PROC
EXTRN	cache_setage:PROC
EXTRN	cache_getbuf:PROC
EXTRN	cache_getlen:PROC
EXTRN	cache_release:PROC
EXTRN	dasd_lookup:PROC
EXTRN	ckd_build_sense:PROC
EXTRN	__imp_fwritemsg:PROC
EXTRN	__imp_logmsg:PROC
EXTRN	gen_dasd_serial:PROC
EXTRN	__GSHandlerCheck:PROC
EXTRN	__chkstk:PROC
EXTRN	__security_check_cookie:PROC
EXTRN	memcmp:PROC
EXTRN	__imp_sysblk:BYTE
EXTRN	__ImageBase:BYTE
EXTRN	__security_cookie:QWORD
_DATA	SEGMENT
COMM	?_OptionsStorage@?1??__local_stdio_printf_options@@9@9:QWORD							; `__local_stdio_printf_options'::`2'::_OptionsStorage
COMM	?_OptionsStorage@?1??__local_stdio_scanf_options@@9@9:QWORD							; `__local_stdio_scanf_options'::`2'::_OptionsStorage
_DATA	ENDS
_BSS	SEGMENT
$SG170276 DB	01H DUP (?)
$SG170491 DB	01H DUP (?)
$SG170493 DB	01H DUP (?)
_BSS	ENDS
;	COMDAT pdata
pdata	SEGMENT
$pdata$_vsnprintf_s_l DD imagerel $LN5
	DD	imagerel $LN5+127
	DD	imagerel $unwind$_vsnprintf_s_l
pdata	ENDS
;	COMDAT pdata
pdata	SEGMENT
$pdata$_vsnprintf_s DD imagerel $LN3
	DD	imagerel $LN3+73
	DD	imagerel $unwind$_vsnprintf_s
pdata	ENDS
;	COMDAT pdata
pdata	SEGMENT
$pdata$_vsscanf_l DD imagerel $LN3
	DD	imagerel $LN3+80
	DD	imagerel $unwind$_vsscanf_l
pdata	ENDS
;	COMDAT pdata
pdata	SEGMENT
$pdata$sscanf DD imagerel $LN3
	DD	imagerel $LN3+79
	DD	imagerel $unwind$sscanf
pdata	ENDS
pdata	SEGMENT
$pdata$time DD	imagerel time
	DD	imagerel time+25
	DD	imagerel $unwind$time
$pdata$DebuggerTrace DD imagerel DebuggerTrace
	DD	imagerel DebuggerTrace+247
	DD	imagerel $unwind$DebuggerTrace
$pdata$strupper DD imagerel strupper
	DD	imagerel strupper+114
	DD	imagerel $unwind$strupper
$pdata$shared_update_notify DD imagerel $LN16
	DD	imagerel $LN16+528
	DD	imagerel $unwind$shared_update_notify
$pdata$shared_ckd_init DD imagerel $LN107
	DD	imagerel $LN107+5221
	DD	imagerel $unwind$shared_ckd_init
$pdata$shared_fba_init DD imagerel $LN104
	DD	imagerel $LN104+4437
	DD	imagerel $unwind$shared_fba_init
$pdata$shared_server DD imagerel $LN48
	DD	imagerel $LN48+2922
	DD	imagerel $unwind$shared_server
$pdata$shrd_cmd DD imagerel $LN28
	DD	imagerel $LN28+2402
	DD	imagerel $unwind$shrd_cmd
$pdata$shared_print_trace_table DD imagerel $LN3
	DD	imagerel $LN3+72
	DD	imagerel $unwind$shared_print_trace_table
$pdata$shared_ckd_close DD imagerel shared_ckd_close
	DD	imagerel shared_ckd_close+124
	DD	imagerel $unwind$shared_ckd_close
$pdata$shared_fba_close DD imagerel shared_fba_close
	DD	imagerel shared_fba_close+124
	DD	imagerel $unwind$shared_fba_close
$pdata$shared_start DD imagerel shared_start
	DD	imagerel shared_start+722
	DD	imagerel $unwind$shared_start
$pdata$shared_end DD imagerel shared_end
	DD	imagerel shared_end+434
	DD	imagerel $unwind$shared_end
$pdata$shared_ckd_read DD imagerel shared_ckd_read
	DD	imagerel shared_ckd_read+2250
	DD	imagerel $unwind$shared_ckd_read
$pdata$shared_ckd_write DD imagerel shared_ckd_write
	DD	imagerel shared_ckd_write+549
	DD	imagerel $unwind$shared_ckd_write
$pdata$shared_ckd_trklen DD imagerel shared_ckd_trklen
	DD	imagerel shared_ckd_trklen+229
	DD	imagerel $unwind$shared_ckd_trklen
$pdata$shared_used DD imagerel shared_used
	DD	imagerel shared_used+257
	DD	imagerel $unwind$shared_used
$pdata$shared_reserve DD imagerel shared_reserve
	DD	imagerel shared_reserve+65
	DD	imagerel $unwind$shared_reserve
$pdata$shared_release DD imagerel shared_release
	DD	imagerel shared_release+65
	DD	imagerel $unwind$shared_release
$pdata$clientWrite DD imagerel clientWrite
	DD	imagerel clientWrite+1368
	DD	imagerel $unwind$clientWrite
$pdata$clientPurge DD imagerel clientPurge
	DD	imagerel clientPurge+88
	DD	imagerel $unwind$clientPurge
$pdata$clientPurgescan DD imagerel clientPurgescan
	DD	imagerel clientPurgescan+292
	DD	imagerel $unwind$clientPurgescan
$pdata$clientConnect DD imagerel clientConnect
	DD	imagerel clientConnect+2222
	DD	imagerel $unwind$clientConnect
$pdata$clientRequest DD imagerel clientRequest
	DD	imagerel clientRequest+798
	DD	imagerel $unwind$clientRequest
$pdata$clientSend DD imagerel clientSend
	DD	imagerel clientSend+1464
	DD	imagerel $unwind$clientSend
$pdata$clientRecv DD imagerel clientRecv
	DD	imagerel clientRecv+1208
	DD	imagerel $unwind$clientRecv
$pdata$recvData DD imagerel recvData
	DD	imagerel recvData+1308
	DD	imagerel $unwind$recvData
$pdata$serverRequest DD imagerel serverRequest
	DD	imagerel serverRequest+8128
	DD	imagerel $unwind$serverRequest
$pdata$serverLocate DD imagerel serverLocate
	DD	imagerel serverLocate+152
	DD	imagerel $unwind$serverLocate
$pdata$serverId DD imagerel serverId
	DD	imagerel serverId+212
	DD	imagerel $unwind$serverId
$pdata$serverError DD imagerel serverError
	DD	imagerel serverError+390
	DD	imagerel $unwind$serverError
$pdata$serverSend DD imagerel serverSend
	DD	imagerel serverSend+954
	DD	imagerel $unwind$serverSend
$pdata$serverDisconnectable DD imagerel serverDisconnectable
	DD	imagerel serverDisconnectable+161
	DD	imagerel $unwind$serverDisconnectable
$pdata$serverDisconnect DD imagerel serverDisconnect
	DD	imagerel serverDisconnect+1107
	DD	imagerel $unwind$serverDisconnect
$pdata$clientip DD imagerel clientip
	DD	imagerel clientip+87
	DD	imagerel $unwind$clientip
$pdata$findDevice DD imagerel findDevice
	DD	imagerel findDevice+78
	DD	imagerel $unwind$findDevice
$pdata$serverConnect DD imagerel serverConnect
	DD	imagerel serverConnect+4416
	DD	imagerel $unwind$serverConnect
$pdata$shrdhdrtrc DD imagerel shrdhdrtrc
	DD	imagerel shrdhdrtrc+438
	DD	imagerel $unwind$shrdhdrtrc
$pdata$shrdtrc DD imagerel shrdtrc
	DD	imagerel shrdtrc+907
	DD	imagerel $unwind$shrdtrc
$pdata$shrdcmd2str DD imagerel shrdcmd2str
	DD	imagerel shrdcmd2str+733
	DD	imagerel $unwind$shrdcmd2str
$pdata$shared_print_trace_table_locked DD imagerel shared_print_trace_table_locked
	DD	imagerel shared_print_trace_table_locked+487
	DD	imagerel $unwind$shared_print_trace_table_locked
pdata	ENDS
;	COMDAT pdata
pdata	SEGMENT
$pdata$fetch_hw_noswap DD imagerel $LN3
	DD	imagerel $LN3+30
	DD	imagerel $unwind$fetch_hw_noswap
pdata	ENDS
;	COMDAT pdata
pdata	SEGMENT
$pdata$fetch_fw_noswap DD imagerel $LN3
	DD	imagerel $LN3+27
	DD	imagerel $unwind$fetch_fw_noswap
pdata	ENDS
pdata	SEGMENT
$pdata$shutdown_shared_server DD imagerel $LN3
	DD	imagerel $LN3+82
	DD	imagerel $unwind$shutdown_shared_server
$pdata$shutdown_shared_server_locked DD imagerel $LN19
	DD	imagerel $LN19+265
	DD	imagerel $unwind$shutdown_shared_server_locked
pdata	ENDS
_DATA	SEGMENT
$SG168857 DB	'notify %d added for id=%d, n=%d', 00H
$SG168926 DB	'%hu%c', 00H
	ORG $+2
$SG168931 DB	'%hx%c', 00H
	ORG $+2
$SG168934 DB	'readonly', 00H
	ORG $+3
$SG168935 DB	'rdonly', 00H
	ORG $+1
$SG168936 DB	'ro', 00H
	ORG $+1
$SG168939 DB	'fakewrite', 00H
	ORG $+2
$SG168941 DB	'fw', 00H
	ORG $+1
$SG168940 DB	'fakewrt', 00H
$SG168943 DB	'cu=', 00H
$SG168944 DB	'=', 00H
	ORG $+2
$SG168945 DB	' ', 09H, 00H
	ORG $+1
$SG168946 DB	'S', 00H
	ORG $+2
$SG168947 DB	'HHC00700%s Shared: parameter %s in argument %d is invali'
	DB	'd', 0aH, 00H
	ORG $+1
$SG168951 DB	'W', 00H
	ORG $+2
$SG168948 DB	'shared_ckd_init', 00H
$SG168949 DB	'shared.c', 00H
	ORG $+3
$SG168962 DB	'S', 00H
	ORG $+2
$SG168952 DB	'HHC00701%s %1d:%04X Shared: connect pending to file %s', 0aH
	DB	00H
$SG168953 DB	'shared_ckd_init', 00H
$SG168954 DB	'shared.c', 00H
	ORG $+3
$SG168970 DB	'S', 00H
	ORG $+2
$SG168963 DB	'HHC00702%s %1d:%04X Shared: error retrieving cylinders', 0aH
	DB	00H
$SG168964 DB	'shared_ckd_init', 00H
$SG168965 DB	'shared.c', 00H
	ORG $+7
$SG168972 DB	'shared_ckd_init', 00H
$SG168977 DB	'S', 00H
	ORG $+6
$SG168971 DB	'HHC00703%s %1d:%04X Shared: error retrieving device char'
	DB	'acteristics', 0aH, 00H
	ORG $+3
$SG168973 DB	'shared.c', 00H
	ORG $+3
$SG168985 DB	'S', 00H
	ORG $+2
$SG168978 DB	'HHC00704%s %1d:%04X Shared: remote device %04X is a %04X'
	DB	0aH, 00H
	ORG $+2
$SG168996 DB	'S', 00H
	ORG $+2
$SG168979 DB	'shared_ckd_init', 00H
$SG168980 DB	'shared.c', 00H
	ORG $+3
$SG169001 DB	'S', 00H
	ORG $+2
$SG168986 DB	'HHC00705%s %1d:%04X Shared: error retrieving device id', 0aH
	DB	00H
$SG168987 DB	'shared_ckd_init', 00H
$SG168988 DB	'shared.c', 00H
	ORG $+3
$SG169006 DB	'S', 00H
	ORG $+2
$SG168997 DB	'HHC00716%s %1d:%04X Shared: error retrieving serial numb'
	DB	'er', 0aH, 00H
$SG169012 DB	'I', 00H
	ORG $+2
$SG168998 DB	'shared_ckd_init', 00H
$SG168999 DB	'shared.c', 00H
	ORG $+7
$SG169002 DB	'HHC00706%s %1d:%04X Shared: device type %4.4X not found '
	DB	'in dasd table', 0aH, 00H
	ORG $+1
$SG169003 DB	'shared_ckd_init', 00H
$SG169004 DB	'shared.c', 00H
	ORG $+7
$SG169008 DB	'shared_ckd_init', 00H
$SG169091 DB	'%hu%c', 00H
	ORG $+2
$SG169007 DB	'HHC00707%s %1d:%04X Shared: control unit %s not found in'
	DB	' dasd table', 0aH, 00H
	ORG $+3
$SG169009 DB	'shared.c', 00H
	ORG $+7
$SG169014 DB	'shared_ckd_init', 00H
$SG169096 DB	'%hx%c', 00H
	ORG $+2
$SG169013 DB	'HHC00708%s %1d:%04X Shared: file %s: model %s cyls %d he'
	DB	'ads %d tracks %d trklen %d', 0aH, 00H
$SG169097 DB	'S', 00H
	ORG $+2
$SG169015 DB	'shared.c', 00H
	ORG $+3
$SG169103 DB	'W', 00H
	ORG $+2
$SG169098 DB	'HHC00700%s Shared: parameter %s in argument %d is invali'
	DB	'd', 0aH, 00H
	ORG $+1
$SG169114 DB	'S', 00H
	ORG $+2
$SG169099 DB	'shared_fba_init', 00H
$SG169100 DB	'shared.c', 00H
	ORG $+3
$SG169121 DB	'S', 00H
	ORG $+2
$SG169104 DB	'HHC00701%s %1d:%04X Shared: connect pending to file %s', 0aH
	DB	00H
$SG169105 DB	'shared_fba_init', 00H
$SG169106 DB	'shared.c', 00H
	ORG $+3
$SG169128 DB	'S', 00H
	ORG $+2
$SG169115 DB	'HHC00709%s %1d:%04X Shared: error retrieving fba origin', 0aH
	DB	00H
	ORG $+3
$SG169136 DB	'S', 00H
	ORG $+2
$SG169116 DB	'shared_fba_init', 00H
$SG169117 DB	'shared.c', 00H
	ORG $+7
$SG169122 DB	'HHC00710%s %1d:%04X Shared: error retrieving fba number '
	DB	'blocks', 0aH, 00H
$SG169123 DB	'shared_fba_init', 00H
$SG169124 DB	'shared.c', 00H
	ORG $+3
$SG169141 DB	'S', 00H
	ORG $+2
$SG169129 DB	'HHC00711%s %1d:%04X Shared: error retrieving fba block s'
	DB	'ize', 0aH, 00H
	ORG $+3
$SG169130 DB	'shared_fba_init', 00H
$SG169131 DB	'shared.c', 00H
	ORG $+3
$SG169149 DB	'S', 00H
	ORG $+2
$SG169137 DB	'HHC00705%s %1d:%04X Shared: error retrieving device id', 0aH
	DB	00H
$SG169138 DB	'shared_fba_init', 00H
$SG169139 DB	'shared.c', 00H
	ORG $+3
$SG169160 DB	'S', 00H
	ORG $+2
$SG169142 DB	'HHC00704%s %1d:%04X Shared: remote device %04X is a %04X'
	DB	0aH, 00H
	ORG $+2
$SG169165 DB	'S', 00H
	ORG $+2
$SG169143 DB	'shared_fba_init', 00H
$SG169144 DB	'shared.c', 00H
	ORG $+7
$SG169151 DB	'shared_fba_init', 00H
$SG169169 DB	'I', 00H
	ORG $+6
$SG169150 DB	'HHC00703%s %1d:%04X Shared: error retrieving device char'
	DB	'acteristics', 0aH, 00H
	ORG $+3
$SG169152 DB	'shared.c', 00H
	ORG $+3
$SG169197 DB	'E', 00H
	ORG $+2
$SG169161 DB	'HHC00716%s %1d:%04X Shared: error retrieving serial numb'
	DB	'er', 0aH, 00H
$SG169219 DB	'E', 00H
	ORG $+2
$SG169162 DB	'shared_fba_init', 00H
$SG169163 DB	'shared.c', 00H
	ORG $+7
$SG169167 DB	'shared_fba_init', 00H
$SG169195 DB	'start cur %d cache %d', 00H
	ORG $+2
$SG169166 DB	'HHC00706%s %1d:%04X Shared: device type %4.4X not found '
	DB	'in dasd table', 0aH, 00H
	ORG $+1
$SG169168 DB	'shared.c', 00H
	ORG $+7
$SG169171 DB	'shared_fba_init', 00H
$SG169215 DB	'end cur %d cache %d', 00H
	ORG $+4
$SG169170 DB	'HHC00712%s %1d:%04X Shared: file %s: model %s origin %ll'
	DB	'd blks %d', 0aH, 00H
	ORG $+1
$SG169280 DB	'E', 00H
	ORG $+2
$SG169172 DB	'shared.c', 00H
	ORG $+7
$SG169199 DB	'shared_start', 00H
	ORG $+3
$SG169220 DB	'HHC00714%s %1d:%04X Shared: error during channel program'
	DB	' end', 0aH, 00H
	ORG $+2
$SG169271 DB	'ckd read trk %d', 00H
$SG169287 DB	'E', 00H
	ORG $+6
$SG169198 DB	'HHC00713%s %1d:%04X Shared: error during channel program'
	DB	' start', 0aH, 00H
$SG169200 DB	'shared.c', 00H
	ORG $+3
$SG169343 DB	'E', 00H
	ORG $+2
$SG169221 DB	'shared_end', 00H
	ORG $+1
$SG169401 DB	'E', 00H
	ORG $+2
$SG169222 DB	'shared.c', 00H
	ORG $+3
$SG169408 DB	'E', 00H
	ORG $+2
$SG169275 DB	'ckd read trk %d cache hit %d', 00H
	ORG $+3
$SG169277 DB	'ckd read trk %d cache wait', 00H
	ORG $+1
$SG169480 DB	'E', 00H
	ORG $+2
$SG169278 DB	'ckd read trk %d cache miss %d', 00H
	ORG $+2
$SG169281 DB	'HHC00715%s %1d:%04X Shared: remote error reading track %'
	DB	'd', 0aH, 00H
	ORG $+1
$SG169486 DB	'E', 00H
	ORG $+2
$SG169282 DB	'shared_ckd_read', 00H
$SG169283 DB	'shared.c', 00H
	ORG $+3
$SG169500 DB	'I', 00H
	ORG $+2
$SG169288 DB	'HHC00715%s %1d:%04X Shared: remote error reading track %'
	DB	'd', 0aH, 00H
	ORG $+1
$SG169508 DB	'E', 00H
	ORG $+2
$SG169289 DB	'shared_ckd_read', 00H
$SG169290 DB	'shared.c', 00H
	ORG $+3
$SG169645 DB	'E', 00H
	ORG $+2
$SG169308 DB	'ckd write trk %d off %d len %d', 00H
	ORG $+1
$SG169344 DB	'HHC00717%s %1d:%04X Shared: error retrieving usage infor'
	DB	'mation', 0aH, 00H
$SG169345 DB	'shared_used', 00H
$SG169682 DB	'E', 00H
	ORG $+2
$SG169346 DB	'shared.c', 00H
	ORG $+3
$SG169688 DB	'E', 00H
	ORG $+2
$SG169399 DB	'write rcd %d off %d len %d', 00H
	ORG $+1
$SG169694 DB	'E', 00H
	ORG $+2
$SG169402 DB	'HHC00718%s %1d:%04X Shared: error writing track %d', 0aH
	DB	00H
$SG169774 DB	'E', 00H
	ORG $+2
$SG169403 DB	'clientWrite', 00H
$SG169780 DB	'E', 00H
	ORG $+2
$SG169404 DB	'shared.c', 00H
	ORG $+7
$SG169410 DB	'clientWrite', 00H
$SG169773 DB	'libz', 00H
	ORG $+7
$SG169409 DB	'HHC00719%s %1d:%04X Shared: remote error writing track %'
	DB	'd %2.2X-%2.2X', 0aH, 00H
	ORG $+1
$SG169411 DB	'shared.c', 00H
	ORG $+3
$SG169779 DB	'bzip2', 00H
	ORG $+2
$SG170252 DB	'E', 00H
	ORG $+2
$SG169445 DB	'purge %d', 00H
	ORG $+3
$SG170277 DB	'W', 00H
	ORG $+2
$SG169447 DB	'purge %d', 00H
	ORG $+3
$SG170289 DB	'I', 00H
	ORG $+2
$SG169474 DB	'Beg clientConnect sequence for dev %4.4x retry=%d', 00H
	ORG $+2
$SG170387 DB	'E', 00H
	ORG $+2
$SG169479 DB	'socket()', 00H
	ORG $+3
$SG170407 DB	'I', 00H
	ORG $+2
$SG169481 DB	'HHC00720%s %1d:%04X Shared: error in function %s: %s', 0aH
	DB	00H
	ORG $+2
$SG169482 DB	'clientConnect', 00H
	ORG $+2
$SG169483 DB	'shared.c', 00H
	ORG $+3
$SG170416 DB	'I', 00H
	ORG $+2
$SG169485 DB	'socket()', 00H
	ORG $+3
$SG170441 DB	'E', 00H
	ORG $+2
$SG169487 DB	'HHC00720%s %1d:%04X Shared: error in function %s: %s', 0aH
	DB	00H
	ORG $+2
$SG169488 DB	'clientConnect', 00H
	ORG $+2
$SG169489 DB	'shared.c', 00H
	ORG $+3
$SG170452 DB	'E', 00H
	ORG $+2
$SG169492 DB	'connect rc=%d errno=%d %s', 00H
	ORG $+2
$SG170463 DB	'I', 00H
	ORG $+2
$SG169493 DB	'connect rc=%d', 00H
	ORG $+2
$SG169514 DB	'end clientConnect sequence for dev %4.4x retry=%d', 00H
	ORG $+6
$SG169501 DB	'HHC00721%s %1d:%04X Shared: connected to v%d.%d server i'
	DB	'd %d file %s', 0aH, 00H
	ORG $+2
$SG169502 DB	'clientConnect', 00H
	ORG $+2
$SG169503 DB	'shared.c', 00H
	ORG $+3
$SG170490 DB	'%2.2x', 00H
	ORG $+2
$SG170492 DB	' ', 00H
	ORG $+2
$SG169509 DB	'HHC00722%s %1d:%04X Shared: error in connect to file %s:'
	DB	' %s', 0aH, 00H
	ORG $+3
$SG169510 DB	'clientConnect', 00H
	ORG $+2
$SG169511 DB	'shared.c', 00H
	ORG $+3
$SG170532 DB	'I', 00H
	ORG $+2
$SG169564 DB	'client request', 00H
	ORG $+1
$SG169569 DB	'client response', 00H
$SG169635 DB	'client send', 00H
$SG170629 DB	'I', 00H
	ORG $+2
$SG169638 DB	'(compressed)', 00H
	ORG $+3
$SG169640 DB	'send rc=%d errno=%d %s', 00H
	ORG $+1
$SG169643 DB	'client send retry', 00H
	ORG $+2
$SG170635 DB	'E', 00H
	ORG $+2
$SG169646 DB	'HHC00723%s %1d:%04X Shared: error in send for %2.2X-%2.2'
	DB	'X: %s', 0aH, 00H
	ORG $+1
$SG169647 DB	'clientSend', 00H
	ORG $+1
$SG170641 DB	'W', 00H
	ORG $+2
$SG169648 DB	'shared.c', 00H
	ORG $+3
$SG170648 DB	'bind()', 00H
	ORG $+1
$SG170649 DB	'E', 00H
	ORG $+2
$SG169683 DB	'HHC00724%s %1d:%04X Shared: not connected to file %s', 0aH
	DB	00H
	ORG $+2
$SG169684 DB	'clientRecv', 00H
	ORG $+1
$SG170655 DB	'E', 00H
	ORG $+2
$SG169685 DB	'shared.c', 00H
	ORG $+3
$SG170662 DB	'W', 00H
	ORG $+2
$SG169689 DB	'HHC00725%s %1d:%04X Shared: error in receive: %s', 0aH, 00H
	ORG $+2
$SG170668 DB	'I', 00H
	ORG $+2
$SG169690 DB	'clientRecv', 00H
	ORG $+1
$SG170682 DB	'E', 00H
	ORG $+2
$SG169691 DB	'shared.c', 00H
	ORG $+3
$SG170693 DB	'E', 00H
	ORG $+2
$SG169692 DB	'client recv', 00H
$SG170699 DB	'E', 00H
	ORG $+2
$SG169695 DB	'HHC00726%s %1d:%04X Shared: remote error %2.2X-%2.2X: %s'
	DB	0aH, 00H
	ORG $+2
$SG170706 DB	'E', 00H
	ORG $+2
$SG169696 DB	'clientRecv', 00H
	ORG $+1
$SG170715 DB	'I', 00H
	ORG $+2
$SG169697 DB	'shared.c', 00H
	ORG $+3
$SG170757 DB	'E', 00H
	ORG $+2
$SG169759 DB	'recvData', 00H
	ORG $+7
$SG169786 DB	'(uncompressed)', 00H
	ORG $+1
$SG170050 DB	'server request [%d]', 00H
	ORG $+4
$SG169775 DB	'HHC00728%s Shared: data compressed using method %s is un'
	DB	'supported', 0aH, 00H
	ORG $+1
$SG170765 DB	'I', 00H
	ORG $+2
$SG169776 DB	'recvData', 00H
	ORG $+3
$SG170769 DB	'=', 00H
	ORG $+2
$SG169777 DB	'shared.c', 00H
	ORG $+7
$SG170053 DB	'device not initialized', 00H
	ORG $+1
$SG169781 DB	'HHC00728%s Shared: data compressed using method %s is un'
	DB	'supported', 0aH, 00H
	ORG $+1
$SG170770 DB	' ', 09H, 00H
	ORG $+1
$SG169782 DB	'recvData', 00H
	ORG $+3
$SG170772 DB	'E', 00H
	ORG $+2
$SG169783 DB	'shared.c', 00H
	ORG $+3
$SG170777 DB	'TRACE', 00H
	ORG $+2
$SG170783 DB	'E', 00H
	ORG $+2
$SG169787 DB	'recvData', 00H
	ORG $+3
$SG170791 DB	'E', 00H
	ORG $+2
$SG169794 DB	'CONNECT ', 00H
	ORG $+3
$SG170798 DB	'I', 00H
	ORG $+2
$SG169796 DB	'DISCONNE', 00H
	ORG $+3
$SG170806 DB	'E', 00H
	ORG $+2
$SG169798 DB	'START   ', 00H
	ORG $+3
$SG170813 DB	'E', 00H
	ORG $+2
$SG169800 DB	'END     ', 00H
	ORG $+3
$SG170820 DB	'I', 00H
	ORG $+2
$SG169802 DB	'RESUME  ', 00H
	ORG $+3
$SG170824 DB	'E', 00H
	ORG $+2
$SG169804 DB	'SUSPEND ', 00H
	ORG $+3
$SG170842 DB	'I', 00H
	ORG $+2
$SG169806 DB	'RESERVE ', 00H
	ORG $+3
$SG170848 DB	'(none)', 00H
	ORG $+1
$SG170849 DB	'I', 00H
	ORG $+2
$SG169808 DB	'RELEASE ', 00H
	ORG $+3
$SG170853 DB	'(NULL)', 00H
	ORG $+1
$SG170854 DB	'I', 00H
	ORG $+2
$SG169810 DB	'READ    ', 00H
	ORG $+7
$SG169812 DB	'WRITE   ', 00H
	ORG $+7
$SG169814 DB	'SENSE   ', 00H
	ORG $+7
$SG169816 DB	'QUERY   ', 00H
	ORG $+7
$SG169818 DB	'COMPRESS', 00H
	ORG $+7
$SG169820 DB	'OK      ', 00H
	ORG $+7
$SG169822 DB	'ERROR   ', 00H
	ORG $+7
$SG169824 DB	'IOERR   ', 00H
	ORG $+7
$SG169826 DB	'BUSY    ', 00H
	ORG $+7
$SG169828 DB	'COMP    ', 00H
	ORG $+7
$SG169830 DB	'PURGE   ', 00H
	ORG $+7
$SG169832 DB	'INVALID ', 00H
	ORG $+7
$SG169834 DB	'BADVERS ', 00H
	ORG $+7
$SG169836 DB	'NOTINIT ', 00H
	ORG $+7
$SG169838 DB	'NOTCONN ', 00H
	ORG $+7
$SG169840 DB	'NOTAVAIL', 00H
	ORG $+7
$SG169842 DB	'NOMEM   ', 00H
	ORG $+7
$SG169844 DB	'NOTACTIV', 00H
	ORG $+7
$SG169846 DB	'NODEVICE', 00H
	ORG $+7
$SG169848 DB	'ECONNECT', 00H
	ORG $+7
$SG169850 DB	'????????', 00H
	ORG $+7
$SG170055 DB	'shared version mismatch', 00H
$SG170057 DB	'shared.c:1711', 00H
	ORG $+2
$SG170062 DB	'shared.c:1724', 00H
	ORG $+2
$SG170063 DB	'shared.c:1727', 00H
	ORG $+2
$SG170066 DB	'shared.c:1733', 00H
	ORG $+2
$SG170069 DB	'server request busy id=%d shioactive=%d reserved=%d', 00H
	ORG $+4
$SG170071 DB	'shared.c:1747', 00H
	ORG $+2
$SG170072 DB	'shared.c:1759', 00H
	ORG $+2
$SG170074 DB	'shared.c:1766', 00H
	ORG $+2
$SG170075 DB	'server request active id=%d', 00H
	ORG $+4
$SG170076 DB	'shared.c:1782', 00H
	ORG $+2
$SG170088 DB	'not active on this device', 00H
	ORG $+6
$SG170092 DB	'shared.c:1825', 00H
	ORG $+2
$SG170098 DB	'shared.c:1849', 00H
	ORG $+2
$SG170099 DB	'server request inactive id=%d', 00H
	ORG $+2
$SG170100 DB	'shared.c:1853', 00H
	ORG $+2
$SG170103 DB	'not active on this device', 00H
	ORG $+6
$SG170104 DB	'shared.c:1869', 00H
	ORG $+2
$SG170105 DB	'shared.c:1871', 00H
	ORG $+2
$SG170106 DB	'server request reserved id=%d', 00H
	ORG $+2
$SG170110 DB	'not active on this device', 00H
	ORG $+6
$SG170112 DB	'shared.c:1896', 00H
	ORG $+2
$SG170113 DB	'shared.c:1898', 00H
	ORG $+2
$SG170114 DB	'server request released id=%d', 00H
	ORG $+2
$SG170117 DB	'not active on this device', 00H
	ORG $+6
$SG170118 DB	'server request read rcd %d flag %2.2x rc=%d', 00H
	ORG $+4
$SG170123 DB	'not active on this device', 00H
	ORG $+6
$SG170124 DB	'server request write rcd %d off %d len %d flag %2.2x rc='
	DB	'%d', 00H
	ORG $+5
$SG170129 DB	'not active on this device', 00H
	ORG $+6
$SG170142 DB	'invalid query request', 00H
	ORG $+2
$SG170145 DB	'invalid request', 00H
$SG170203 DB	'SERVER ERROR! %2.2x %2.2x: %s', 00H
	ORG $+2
$SG170249 DB	'server send', 00H
	ORG $+4
$SG170253 DB	'HHC00729%s %1d:%04X Shared: error in send id %d: %s', 0aH
	DB	00H
	ORG $+3
$SG170254 DB	'serverSend', 00H
	ORG $+5
$SG170255 DB	'shared.c', 00H
	ORG $+7
$SG170275 DB	'reserved', 00H
	ORG $+7
$SG170278 DB	'HHC00730%s %1d:%04X Shared: busy client being removed id'
	DB	' %d %s', 0aH, 00H
$SG170279 DB	'serverDisconnect', 00H
	ORG $+7
$SG170280 DB	'shared.c', 00H
	ORG $+7
$SG170287 DB	'shared.c:2304', 00H
	ORG $+2
$SG170290 DB	'HHC00731%s %1d:%04X Shared: %s disconnected id %d', 0aH, 00H
	ORG $+5
$SG170291 DB	'serverDisconnect', 00H
	ORG $+7
$SG170292 DB	'shared.c', 00H
	ORG $+7
$SG170385 DB	'server connect %s sock %d', 00H
	ORG $+6
$SG170388 DB	'HHC00732%s Shared: connect to IP %s failed', 0aH, 00H
	ORG $+4
$SG170389 DB	'serverConnect', 00H
	ORG $+2
$SG170390 DB	'shared.c', 00H
	ORG $+7
$SG170392 DB	'not a connect request', 00H
	ORG $+2
$SG170394 DB	'device not found', 00H
	ORG $+7
$SG170395 DB	'shared.c:2409', 00H
	ORG $+2
$SG170397 DB	'shared.c:2414', 00H
	ORG $+2
$SG170398 DB	'already connected', 00H
	ORG $+6
$SG170400 DB	'shared.c:2424', 00H
	ORG $+2
$SG170401 DB	'too many connections', 00H
	ORG $+3
$SG170403 DB	'shared.c:2434', 00H
	ORG $+2
$SG170404 DB	'calloc() failure', 00H
	ORG $+7
$SG170408 DB	'HHC00733%s %1d:%04X Shared: %s connected id %d', 0aH, 00H
$SG170409 DB	'serverConnect', 00H
	ORG $+2
$SG170410 DB	'shared.c', 00H
	ORG $+7
$SG170412 DB	'shared.c:2460', 00H
	ORG $+2
$SG170413 DB	'shrd dev %1d:%04X', 00H
	ORG $+6
$SG170415 DB	'shared.c:2470', 00H
	ORG $+2
$SG170417 DB	'HHC00100%s Thread id %8.8x, prio %d, name ''%s'' started'
	DB	0aH, 00H
$SG170418 DB	'serverConnect', 00H
	ORG $+2
$SG170419 DB	'shared.c', 00H
	ORG $+7
$SG170429 DB	'select set %d id=%d', 00H
	ORG $+4
$SG170432 DB	'shared.c:2536', 00H
	ORG $+2
$SG170433 DB	'shared.c', 00H
	ORG $+7
$SG170434 DB	'shared.c:2544', 00H
	ORG $+2
$SG170435 DB	'select rc %d', 00H
	ORG $+3
$SG170440 DB	'select()', 00H
	ORG $+7
$SG170442 DB	'HHC00735%s Shared: error in function %s: %s', 0aH, 00H
	ORG $+3
$SG170443 DB	'serverConnect', 00H
	ORG $+2
$SG170444 DB	'shared.c', 00H
	ORG $+7
$SG170446 DB	'select isset %d id=%d', 00H
	ORG $+2
$SG170447 DB	'shared.c:2589', 00H
	ORG $+2
$SG170448 DB	'select ready %d id=%d', 00H
	ORG $+2
$SG170453 DB	'HHC00734%s %1d:%04X Shared: error in receive from %s id '
	DB	'%d', 0aH, 00H
	ORG $+4
$SG170454 DB	'serverConnect', 00H
	ORG $+2
$SG170455 DB	'shared.c', 00H
	ORG $+7
$SG170456 DB	'shared.c:2610', 00H
	ORG $+2
$SG170457 DB	'shared.c:2618', 00H
	ORG $+2
$SG170460 DB	'shared.c:2636', 00H
	ORG $+2
$SG170462 DB	'shared.c:2639', 00H
	ORG $+2
$SG170464 DB	'HHC00101%s Thread id %8.8x, prio %d, name ''%s'' ended', 0aH
	DB	00H
	ORG $+2
$SG170465 DB	'serverConnect', 00H
	ORG $+2
$SG170466 DB	'shared.c', 00H
	ORG $+7
$SG170494 DB	'%-18s : %s(%2.2x) %2.2x dev %4.4x id %d len %d%s%s', 00H
	ORG $+5
$SG170518 DB	'shared.c:2679', 00H
	ORG $+2
$SG170520 DB	'shared.c:2683', 00H
	ORG $+2
$SG170522 DB	'shrdtrc', 00H
$SG170523 DB	'shared.c', 00H
	ORG $+7
$SG170524 DB	'%s(%d) : warning HHC90999W : *** Assertion Failed! *** f'
	DB	'unction: %s', 0aH, 00H
	ORG $+3
$SG170526 DB	'shrdtrc', 00H
$SG170527 DB	'shared.c', 00H
	ORG $+7
$SG170528 DB	'%s(%d) : warning HHC90999W : *** Assertion Failed! *** f'
	DB	'unction: %s', 0aH, 00H
	ORG $+3
$SG170530 DB	'  %4.4X  ', 00H
	ORG $+6
$SG170533 DB	'HHC00743%s Shared:  %s', 0aH, 00H
$SG170534 DB	'shrdtrc', 00H
$SG170535 DB	'shared.c', 00H
	ORG $+7
$SG170538 DB	'shared.c:2724', 00H
	ORG $+2
$SG170542 DB	'shared.c:2732', 00H
	ORG $+2
$SG170543 DB	'shared.c:2736', 00H
	ORG $+2
$SG170559 DB	'shared.c:2751', 00H
	ORG $+2
$SG170562 DB	'shutdown_shared_server_locked', 00H
	ORG $+2
$SG170563 DB	'shared.c', 00H
	ORG $+7
$SG170566 DB	'shutdown_shared_server_locked', 00H
	ORG $+2
$SG170627 DB	'shrd srvr %d.%d', 00H
$SG170630 DB	'HHC00100%s Thread id %8.8x, prio %d, name ''%s'' started'
	DB	0aH, 00H
$SG170564 DB	'%s(%d) : warning HHC90999W : *** Assertion Failed! *** f'
	DB	'unction: %s', 0aH, 00H
	ORG $+3
$SG170567 DB	'shared.c', 00H
	ORG $+7
$SG170628 DB	'shared.c:2785', 00H
	ORG $+2
$SG170642 DB	'HHC00736%s Shared: waiting for port %u to become free', 0aH
	DB	00H
	ORG $+1
$SG170568 DB	'%s(%d) : warning HHC90999W : *** Assertion Failed! *** f'
	DB	'unction: %s', 0aH, 00H
	ORG $+3
$SG170631 DB	'shared_server', 00H
	ORG $+2
$SG170632 DB	'shared.c', 00H
	ORG $+7
$SG170634 DB	'socket()', 00H
	ORG $+7
$SG170636 DB	'HHC00735%s Shared: error in function %s: %s', 0aH, 00H
	ORG $+3
$SG170637 DB	'shared_server', 00H
	ORG $+2
$SG170638 DB	'shared.c', 00H
	ORG $+7
$SG170643 DB	'shared_server', 00H
	ORG $+2
$SG170644 DB	'shared.c', 00H
	ORG $+7
$SG170650 DB	'HHC00735%s Shared: error in function %s: %s', 0aH, 00H
	ORG $+3
$SG170651 DB	'shared_server', 00H
	ORG $+2
$SG170652 DB	'shared.c', 00H
	ORG $+7
$SG170654 DB	'listen()', 00H
	ORG $+7
$SG170656 DB	'HHC00735%s Shared: error in function %s: %s', 0aH, 00H
	ORG $+3
$SG170657 DB	'shared_server', 00H
	ORG $+2
$SG170658 DB	'shared.c', 00H
	ORG $+7
$SG170661 DB	'listen()', 00H
	ORG $+7
$SG170663 DB	'HHC00735%s Shared: error in function %s: %s', 0aH, 00H
	ORG $+3
$SG170664 DB	'shared_server', 00H
	ORG $+2
$SG170665 DB	'shared.c', 00H
	ORG $+7
$SG170670 DB	'shared_server', 00H
	ORG $+2
$SG170672 DB	'shutdown_shared_server', 00H
	ORG $+1
$SG170669 DB	'HHC00737%s Shared: waiting for shared device requests on'
	DB	' port %u', 0aH, 00H
	ORG $+6
$SG170671 DB	'shared.c', 00H
	ORG $+7
$SG170673 DB	'shared.c:2900', 00H
	ORG $+2
$SG170674 DB	'shared.c:2904', 00H
	ORG $+2
$SG170677 DB	'shared.c', 00H
	ORG $+7
$SG170681 DB	'select()', 00H
	ORG $+7
$SG170683 DB	'HHC00735%s Shared: error in function %s: %s', 0aH, 00H
	ORG $+3
$SG170684 DB	'shared_server', 00H
	ORG $+2
$SG170685 DB	'shared.c', 00H
	ORG $+7
$SG170692 DB	'accept()', 00H
	ORG $+7
$SG170694 DB	'HHC00735%s Shared: error in function %s: %s', 0aH, 00H
	ORG $+3
$SG170695 DB	'shared_server', 00H
	ORG $+2
$SG170696 DB	'shared.c', 00H
	ORG $+7
$SG170698 DB	'malloc(%d)', 00H
	ORG $+5
$SG170700 DB	'HHC00735%s Shared: error in function %s: %s', 0aH, 00H
	ORG $+3
$SG170701 DB	'shared_server', 00H
	ORG $+2
$SG170702 DB	'shared.c', 00H
	ORG $+7
$SG170703 DB	'shared.c:2965', 00H
	ORG $+2
$SG170704 DB	'serverConnect', 00H
	ORG $+2
$SG170707 DB	'HHC00102%s Error in function create_thread(): %s', 0aH, 00H
	ORG $+6
$SG170708 DB	'shared_server', 00H
	ORG $+2
$SG170709 DB	'shared.c', 00H
	ORG $+7
$SG170711 DB	'shared.c:2993', 00H
	ORG $+2
$SG170712 DB	'shared.c:2996', 00H
	ORG $+2
$SG170713 DB	'shared.c:2998', 00H
	ORG $+2
$SG170714 DB	'shared.c:3000', 00H
	ORG $+2
$SG170716 DB	'HHC00101%s Thread id %8.8x, prio %d, name ''%s'' ended', 0aH
	DB	00H
	ORG $+2
$SG170717 DB	'shared_server', 00H
	ORG $+2
$SG170718 DB	'shared.c', 00H
	ORG $+7
$SG170758 DB	'HHC00738%s Shared: invalid or missing argument', 0aH, 00H
$SG170759 DB	'shrd_cmd', 00H
	ORG $+7
$SG170760 DB	'shared.c', 00H
	ORG $+7
$SG170762 DB	'shared.c:3033', 00H
	ORG $+2
$SG170763 DB	'TRACE=%d DTAX=%d', 00H
	ORG $+7
$SG170764 DB	'shared.c:3037', 00H
	ORG $+2
$SG170766 DB	'HHC02203%s %-14s: %s', 0aH, 00H
	ORG $+2
$SG170767 DB	'shrd_cmd', 00H
	ORG $+7
$SG170768 DB	'shared.c', 00H
	ORG $+7
$SG170773 DB	'HHC00739%s Shared: invalid or missing keyword', 0aH, 00H
	ORG $+1
$SG170774 DB	'shrd_cmd', 00H
	ORG $+7
$SG170775 DB	'shared.c', 00H
	ORG $+7
$SG170778 DB	'shared.c:3066', 00H
	ORG $+2
$SG170780 DB	'shared.c:3076', 00H
	ORG $+2
$SG170782 DB	'%d%c', 00H
	ORG $+3
$SG170784 DB	'HHC00740%s Shared: invalid or missing value %s', 0aH, 00H
$SG170785 DB	'shrd_cmd', 00H
	ORG $+7
$SG170786 DB	'shared.c', 00H
	ORG $+7
$SG170787 DB	'shared.c:3085', 00H
	ORG $+2
$SG170790 DB	'calloc(%d, %d)', 00H
	ORG $+1
$SG170792 DB	'HHC00735%s Shared: error in function %s: %s', 0aH, 00H
	ORG $+3
$SG170793 DB	'shrd_cmd', 00H
	ORG $+7
$SG170794 DB	'shared.c', 00H
	ORG $+7
$SG170795 DB	'shared.c:3105', 00H
	ORG $+2
$SG170797 DB	'TRACE=%d', 00H
	ORG $+7
$SG170799 DB	'HHC02204%s %-14s set to %s', 0aH, 00H
	ORG $+4
$SG170800 DB	'shrd_cmd', 00H
	ORG $+7
$SG170801 DB	'shared.c', 00H
	ORG $+7
$SG170802 DB	'shared.c:3122', 00H
	ORG $+2
$SG170804 DB	'DTAX', 00H
	ORG $+3
$SG170807 DB	'HHC00740%s Shared: invalid or missing value %s', 0aH, 00H
$SG170808 DB	'shrd_cmd', 00H
	ORG $+7
$SG170809 DB	'shared.c', 00H
	ORG $+3
$SG170812 DB	'%d%c', 00H
	ORG $+7
$SG170814 DB	'HHC00740%s Shared: invalid or missing value %s', 0aH, 00H
$SG170815 DB	'shrd_cmd', 00H
	ORG $+7
$SG170816 DB	'shared.c', 00H
	ORG $+7
$SG170817 DB	'shared.c:3146', 00H
	ORG $+2
$SG170818 DB	'shared.c:3150', 00H
	ORG $+2
$SG170819 DB	'DTAX=%d', 00H
$SG170821 DB	'HHC02204%s %-14s set to %s', 0aH, 00H
	ORG $+4
$SG170822 DB	'shrd_cmd', 00H
	ORG $+7
$SG170823 DB	'shared.c', 00H
	ORG $+7
$SG170825 DB	'HHC00741%s Shared: invalid or missing keyword %s', 0aH, 00H
	ORG $+6
$SG170826 DB	'shrd_cmd', 00H
	ORG $+7
$SG170827 DB	'shared.c', 00H
	ORG $+7
$SG170829 DB	'shared.c:3169', 00H
	ORG $+2
$SG170830 DB	'shared.c:3173', 00H
	ORG $+2
$SG170843 DB	'HHC00743%s Shared:  %s', 0aH, 00H
$SG170844 DB	'shared_print_trace_table_locked', 00H
$SG170845 DB	'shared.c', 00H
	ORG $+7
$SG170850 DB	'HHC00743%s Shared:  %s', 0aH, 00H
$SG170851 DB	'shared_print_trace_table_locked', 00H
$SG170852 DB	'shared.c', 00H
	ORG $+7
$SG170855 DB	'HHC00743%s Shared:  %s', 0aH, 00H
$SG170856 DB	'shared_print_trace_table_locked', 00H
$SG170857 DB	'shared.c', 00H
_DATA	ENDS
;	COMDAT xdata
xdata	SEGMENT
$unwind$fetch_fw_noswap DD 010901H
	DD	02209H
xdata	ENDS
;	COMDAT xdata
xdata	SEGMENT
$unwind$fetch_hw_noswap DD 010901H
	DD	02209H
xdata	ENDS
voltbl	SEGMENT
_volmd	DD	0ffffffffH
	DDSymXIndex: 	FLAT:shrdtrc
	DD	025H
	DD	0373H
_volmd	DD	0ffffffffH
	DDSymXIndex: 	FLAT:serverConnect
	DD	01dH
	DD	01127H
_volmd	DD	0ffffffffH
	DDSymXIndex: 	FLAT:clientip
	DD	012H
	DD	045H
_volmd	DD	0ffffffffH
	DDSymXIndex: 	FLAT:serverSend
	DD	02cH
	DD	03a0H
_volmd	DD	0ffffffffH
	DDSymXIndex: 	FLAT:serverError
	DD	021H
	DD	0174H
_volmd	DD	0ffffffffH
	DDSymXIndex: 	FLAT:serverRequest
	DD	025H
	DD	01f3aH
_volmd	DD	0ffffffffH
	DDSymXIndex: 	FLAT:recvData
	DD	02aH
	DD	0504H
_volmd	DD	0ffffffffH
	DDSymXIndex: 	FLAT:clientSend
	DD	02dH
	DD	059eH
_volmd	DD	0ffffffffH
	DDSymXIndex: 	FLAT:clientRequest
	DD	027H
	DD	0304H
_volmd	DD	0ffffffffH
	DDSymXIndex: 	FLAT:clientConnect
	DD	01aH
	DD	0896H
_volmd	DD	0ffffffffH
	DDSymXIndex: 	FLAT:clientWrite
	DD	01aH
	DD	0540H
_volmd	DD	0ffffffffH
	DDSymXIndex: 	FLAT:shared_ckd_read
	DD	01fH
	DD	08b2H
_volmd	DD	0ffffffffH
	DDSymXIndex: 	FLAT:shared_start
	DD	016H
	DD	02baH
_volmd	DD	0ffffffffH
	DDSymXIndex: 	FLAT:shrd_cmd
	DD	01fH
	DD	094aH
_volmd	DD	0ffffffffH
	DDSymXIndex: 	FLAT:shared_server
	DD	01dH
	DD	0b51H
_volmd	DD	0ffffffffH
	DDSymXIndex: 	FLAT:shared_fba_init
	DD	01fH
	DD	0113dH
_volmd	DD	0ffffffffH
	DDSymXIndex: 	FLAT:shared_ckd_init
	DD	020H
	DD	0144cH
voltbl	ENDS
xdata	SEGMENT
$unwind$time DD	010901H
	DD	04209H
$unwind$DebuggerTrace DD 011801H
	DD	0a218H
$unwind$strupper DD 010e01H
	DD	0620eH
$unwind$shared_update_notify DD 010d01H
	DD	0820dH
$unwind$shared_ckd_init DD 032819H
	DD	0b00116H
	DD	0700fH
	DD	imagerel __GSHandlerCheck
	DD	0570H
$unwind$shared_fba_init DD 022719H
	DD	0ad0115H
	DD	imagerel __GSHandlerCheck
	DD	0550H
$unwind$shared_server DD 032519H
	DD	042a0113H
	DD	07006H
	DD	imagerel __GSHandlerCheck
	DD	02148H
$unwind$shrd_cmd DD 022719H
	DD	03f0115H
	DD	imagerel __GSHandlerCheck
	DD	01e0H
$unwind$shared_print_trace_table DD 010401H
	DD	04204H
$unwind$shared_ckd_close DD 010901H
	DD	08209H
$unwind$shared_fba_close DD 010901H
	DD	08209H
$unwind$shared_start DD 021e19H
	DD	019010cH
	DD	imagerel __GSHandlerCheck
	DD	0b0H
$unwind$shared_end DD 010901H
	DD	0c209H
$unwind$shared_ckd_read DD 022719H
	DD	0190115H
	DD	imagerel __GSHandlerCheck
	DD	0b8H
$unwind$shared_ckd_write DD 031901H
	DD	070158219H
	DD	06014H
$unwind$shared_ckd_trklen DD 010e01H
	DD	0620eH
$unwind$shared_used DD 010901H
	DD	0c209H
$unwind$shared_reserve DD 010901H
	DD	0a209H
$unwind$shared_release DD 010901H
	DD	0a209H
$unwind$clientWrite DD 022219H
	DD	03b0110H
	DD	imagerel __GSHandlerCheck
	DD	01c0H
$unwind$clientPurge DD 011201H
	DD	04212H
$unwind$clientPurgescan DD 011701H
	DD	08217H
$unwind$clientConnect DD 022219H
	DD	0210110H
	DD	imagerel __GSHandlerCheck
	DD	0f8H
$unwind$clientRequest DD 042f19H
	DD	02f011dH
	DD	060157016H
	DD	imagerel __GSHandlerCheck
	DD	0160H
$unwind$clientSend DD 043519H
	DD	0201f0123H
	DD	060157016H
	DD	imagerel __GSHandlerCheck
	DD	0100e0H
$unwind$clientRecv DD 031c01H
	DD	018011cH
	DD	07015H
$unwind$recvData DD 023219H
	DD	020370120H
	DD	imagerel __GSHandlerCheck
	DD	0101a0H
$unwind$serverRequest DD 032d19H
	DD	02a011bH
	DD	07014H
	DD	imagerel __GSHandlerCheck
	DD	0140H
$unwind$serverLocate DD 011201H
	DD	02212H
$unwind$serverId DD 010901H
	DD	02209H
$unwind$serverError DD 012619H
	DD	0c217H
	DD	imagerel __GSHandlerCheck
	DD	058H
$unwind$serverSend DD 043419H
	DD	020190122H
	DD	060147015H
	DD	imagerel __GSHandlerCheck
	DD	0100b0H
$unwind$serverDisconnectable DD 010d01H
	DD	0220dH
$unwind$serverDisconnect DD 021001H
	DD	0130110H
$unwind$clientip DD 011719H
	DD	08208H
	DD	imagerel __GSHandlerCheck
	DD	038H
$unwind$findDevice DD 010901H
	DD	02209H
$unwind$serverConnect DD 032519H
	DD	0242a0113H
	DD	07006H
	DD	imagerel __GSHandlerCheck
	DD	012140H
$unwind$shrdhdrtrc DD 021b01H
	DD	015011bH
$unwind$shrdtrc DD 022d19H
	DD	027011bH
	DD	imagerel __GSHandlerCheck
	DD	0120H
$unwind$shrdcmd2str DD 010801H
	DD	02208H
$unwind$shared_print_trace_table_locked DD 020601H
	DD	07002b206H
$unwind$shutdown_shared_server DD 010901H
	DD	04209H
$unwind$shutdown_shared_server_locked DD 010901H
	DD	04209H
xdata	ENDS
;	COMDAT xdata
xdata	SEGMENT
$unwind$sscanf DD 011801H
	DD	06218H
xdata	ENDS
;	COMDAT xdata
xdata	SEGMENT
$unwind$_vsscanf_l DD 011801H
	DD	06218H
xdata	ENDS
;	COMDAT xdata
xdata	SEGMENT
$unwind$_vsnprintf_s DD 011801H
	DD	06218H
xdata	ENDS
;	COMDAT xdata
xdata	SEGMENT
$unwind$_vsnprintf_s_l DD 011801H
	DD	0a218H
xdata	ENDS
; Function compile flags: /Odtp
; File C:\papa\MyGit\hyperion-zvector\shared.c
_TEXT	SEGMENT
unused$ = 48
shutdown_shared_server_locked PROC

; 2743 : {

$LN19:
  00000	48 89 4c 24 08	 mov	 QWORD PTR [rsp+8], rcx
  00005	48 83 ec 28	 sub	 rsp, 40			; 00000028H
$LN4@shutdown_s:

; 2744 :     UNREFERENCED( unused );

  00009	33 c0		 xor	 eax, eax
  0000b	85 c0		 test	 eax, eax
  0000d	75 fa		 jne	 SHORT $LN4@shutdown_s

; 2745 : 
; 2746 :     if (sysblk.shrdport || sysblk.shrdtid)

  0000f	48 8b 05 00 00
	00 00		 mov	 rax, QWORD PTR __imp_sysblk
  00016	0f b7 80 ac 13
	00 00		 movzx	 eax, WORD PTR [rax+5036]
  0001d	85 c0		 test	 eax, eax
  0001f	75 10		 jne	 SHORT $LN12@shutdown_s
  00021	48 8b 05 00 00
	00 00		 mov	 rax, QWORD PTR __imp_sysblk
  00028	83 b8 a8 13 00
	00 00		 cmp	 DWORD PTR [rax+5032], 0
  0002f	74 4b		 je	 SHORT $LN11@shutdown_s
$LN12@shutdown_s:

; 2747 :     {
; 2748 :         sysblk.shrdport = 0;

  00031	33 c0		 xor	 eax, eax
  00033	48 8b 0d 00 00
	00 00		 mov	 rcx, QWORD PTR __imp_sysblk
  0003a	66 89 81 ac 13
	00 00		 mov	 WORD PTR [rcx+5036], ax

; 2749 : 
; 2750 :         if (sysblk.shrdtid)

  00041	48 8b 05 00 00
	00 00		 mov	 rax, QWORD PTR __imp_sysblk
  00048	83 b8 a8 13 00
	00 00		 cmp	 DWORD PTR [rax+5032], 0
  0004f	74 2b		 je	 SHORT $LN13@shutdown_s

; 2751 :             wait_condition( &sysblk.shrdcond, &sysblk.shrdlock );

  00051	48 8b 05 00 00
	00 00		 mov	 rax, QWORD PTR __imp_sysblk
  00058	48 05 98 13 00
	00		 add	 rax, 5016		; 00001398H
  0005e	48 8b 0d 00 00
	00 00		 mov	 rcx, QWORD PTR __imp_sysblk
  00065	48 81 c1 a0 13
	00 00		 add	 rcx, 5024		; 000013a0H
  0006c	4c 8d 05 00 00
	00 00		 lea	 r8, OFFSET FLAT:$SG170559
  00073	48 8b d0	 mov	 rdx, rax
  00076	ff 15 00 00 00
	00		 call	 QWORD PTR __imp_hthread_wait_condition
$LN13@shutdown_s:
$LN11@shutdown_s:
$LN7@shutdown_s:

; 2752 :     }
; 2753 :     ASSERT( !sysblk.shrdport && !sysblk.shrdtid );

  0007c	48 8b 05 00 00
	00 00		 mov	 rax, QWORD PTR __imp_sysblk
  00083	0f b7 80 ac 13
	00 00		 movzx	 eax, WORD PTR [rax+5036]
  0008a	85 c0		 test	 eax, eax
  0008c	75 10		 jne	 SHORT $LN15@shutdown_s
  0008e	48 8b 05 00 00
	00 00		 mov	 rax, QWORD PTR __imp_sysblk
  00095	83 b8 a8 13 00
	00 00		 cmp	 DWORD PTR [rax+5032], 0
  0009c	74 5c		 je	 SHORT $LN14@shutdown_s
$LN15@shutdown_s:
$LN10@shutdown_s:
  0009e	4c 8d 0d 00 00
	00 00		 lea	 r9, OFFSET FLAT:$SG170562
  000a5	41 b8 c1 0a 00
	00		 mov	 r8d, 2753		; 00000ac1H
  000ab	48 8d 15 00 00
	00 00		 lea	 rdx, OFFSET FLAT:$SG170563
  000b2	48 8d 0d 00 00
	00 00		 lea	 rcx, OFFSET FLAT:$SG170564
  000b9	ff 15 00 00 00
	00		 call	 QWORD PTR __imp_logmsg
  000bf	ff 15 00 00 00
	00		 call	 QWORD PTR __imp_IsDebuggerPresent
  000c5	85 c0		 test	 eax, eax
  000c7	74 20		 je	 SHORT $LN16@shutdown_s
  000c9	4c 8d 0d 00 00
	00 00		 lea	 r9, OFFSET FLAT:$SG170566
  000d0	41 b8 c1 0a 00
	00		 mov	 r8d, 2753		; 00000ac1H
  000d6	48 8d 15 00 00
	00 00		 lea	 rdx, OFFSET FLAT:$SG170567
  000dd	48 8d 0d 00 00
	00 00		 lea	 rcx, OFFSET FLAT:$SG170568
  000e4	e8 00 00 00 00	 call	 DebuggerTrace
$LN16@shutdown_s:
  000e9	33 c0		 xor	 eax, eax
  000eb	85 c0		 test	 eax, eax
  000ed	75 af		 jne	 SHORT $LN10@shutdown_s
  000ef	ff 15 00 00 00
	00		 call	 QWORD PTR __imp_IsDebuggerPresent
  000f5	85 c0		 test	 eax, eax
  000f7	74 01		 je	 SHORT $LN17@shutdown_s
  000f9	cc		 int	 3
$LN17@shutdown_s:
$LN14@shutdown_s:
  000fa	33 c0		 xor	 eax, eax
  000fc	85 c0		 test	 eax, eax
  000fe	0f 85 78 ff ff
	ff		 jne	 $LN7@shutdown_s

; 2754 : }

  00104	48 83 c4 28	 add	 rsp, 40			; 00000028H
  00108	c3		 ret	 0
shutdown_shared_server_locked ENDP
_TEXT	ENDS
; Function compile flags: /Odtp
; File C:\papa\MyGit\hyperion-zvector\shared.c
_TEXT	SEGMENT
unused$ = 48
shutdown_shared_server PROC

; 2731 : {

$LN3:
  00000	48 89 4c 24 08	 mov	 QWORD PTR [rsp+8], rcx
  00005	48 83 ec 28	 sub	 rsp, 40			; 00000028H

; 2732 :     OBTAIN_SHRDLOCK();

  00009	48 8b 05 00 00
	00 00		 mov	 rax, QWORD PTR __imp_sysblk
  00010	48 05 98 13 00
	00		 add	 rax, 5016		; 00001398H
  00016	48 8d 15 00 00
	00 00		 lea	 rdx, OFFSET FLAT:$SG170542
  0001d	48 8b c8	 mov	 rcx, rax
  00020	ff 15 00 00 00
	00		 call	 QWORD PTR __imp_hthread_obtain_lock

; 2733 :     {
; 2734 :         shutdown_shared_server_locked( unused );

  00026	48 8b 4c 24 30	 mov	 rcx, QWORD PTR unused$[rsp]
  0002b	e8 00 00 00 00	 call	 shutdown_shared_server_locked

; 2735 :     }
; 2736 :     RELEASE_SHRDLOCK();

  00030	48 8b 05 00 00
	00 00		 mov	 rax, QWORD PTR __imp_sysblk
  00037	48 05 98 13 00
	00		 add	 rax, 5016		; 00001398H
  0003d	48 8d 15 00 00
	00 00		 lea	 rdx, OFFSET FLAT:$SG170543
  00044	48 8b c8	 mov	 rcx, rax
  00047	ff 15 00 00 00
	00		 call	 QWORD PTR __imp_hthread_release_lock

; 2737 : }

  0004d	48 83 c4 28	 add	 rsp, 40			; 00000028H
  00051	c3		 ret	 0
shutdown_shared_server ENDP
_TEXT	ENDS
; Function compile flags: /Odtp
; File C:\papa\MyGit\hyperion-zvector\machdep.h
;	COMDAT store_dw_noswap
_TEXT	SEGMENT
ptr$ = 8
value$ = 16
store_dw_noswap PROC					; COMDAT

; 834  :     inline void store_dw_noswap(void *ptr, U64 value) {

  00000	48 89 54 24 10	 mov	 QWORD PTR [rsp+16], rdx
  00005	48 89 4c 24 08	 mov	 QWORD PTR [rsp+8], rcx

; 835  :       memcpy((BYTE *)ptr, (BYTE *)&value, 8);

  0000a	48 8b 44 24 08	 mov	 rax, QWORD PTR ptr$[rsp]
  0000f	48 8b 4c 24 10	 mov	 rcx, QWORD PTR value$[rsp]
  00014	48 89 08	 mov	 QWORD PTR [rax], rcx

; 836  :     }

  00017	c3		 ret	 0
store_dw_noswap ENDP
_TEXT	ENDS
; Function compile flags: /Odtp
; File C:\papa\MyGit\hyperion-zvector\machdep.h
;	COMDAT store_fw_noswap
_TEXT	SEGMENT
ptr$ = 8
value$ = 16
store_fw_noswap PROC					; COMDAT

; 764  :     inline void store_fw_noswap(void *ptr, U32 value) {

  00000	89 54 24 10	 mov	 DWORD PTR [rsp+16], edx
  00004	48 89 4c 24 08	 mov	 QWORD PTR [rsp+8], rcx

; 765  :       memcpy((BYTE *)ptr, (BYTE *)&value, 4);

  00009	48 8b 44 24 08	 mov	 rax, QWORD PTR ptr$[rsp]
  0000e	8b 4c 24 10	 mov	 ecx, DWORD PTR value$[rsp]
  00012	89 08		 mov	 DWORD PTR [rax], ecx

; 766  :     }

  00014	c3		 ret	 0
store_fw_noswap ENDP
_TEXT	ENDS
; Function compile flags: /Odtp
; File C:\papa\MyGit\hyperion-zvector\machdep.h
;	COMDAT fetch_fw_noswap
_TEXT	SEGMENT
value$ = 0
ptr$ = 32
fetch_fw_noswap PROC					; COMDAT

; 746  :     inline U32 fetch_fw_noswap(const void *ptr) {

$LN3:
  00000	48 89 4c 24 08	 mov	 QWORD PTR [rsp+8], rcx
  00005	48 83 ec 18	 sub	 rsp, 24

; 747  :       U32 value;
; 748  :       memcpy(&value, (BYTE *)ptr, 4);

  00009	48 8b 44 24 20	 mov	 rax, QWORD PTR ptr$[rsp]
  0000e	8b 00		 mov	 eax, DWORD PTR [rax]
  00010	89 04 24	 mov	 DWORD PTR value$[rsp], eax

; 749  :       return value;

  00013	8b 04 24	 mov	 eax, DWORD PTR value$[rsp]

; 750  :     }

  00016	48 83 c4 18	 add	 rsp, 24
  0001a	c3		 ret	 0
fetch_fw_noswap ENDP
_TEXT	ENDS
; Function compile flags: /Odtp
; File C:\papa\MyGit\hyperion-zvector\machdep.h
;	COMDAT store_hw_noswap
_TEXT	SEGMENT
ptr$ = 8
value$ = 16
store_hw_noswap PROC					; COMDAT

; 730  :     inline void store_hw_noswap(void *ptr, U16 value) {

  00000	66 89 54 24 10	 mov	 WORD PTR [rsp+16], dx
  00005	48 89 4c 24 08	 mov	 QWORD PTR [rsp+8], rcx

; 731  :       memcpy((BYTE *)ptr, (BYTE *)&value, 2);

  0000a	48 8b 44 24 08	 mov	 rax, QWORD PTR ptr$[rsp]
  0000f	0f b7 4c 24 10	 movzx	 ecx, WORD PTR value$[rsp]
  00014	66 89 08	 mov	 WORD PTR [rax], cx

; 732  :     }

  00017	c3		 ret	 0
store_hw_noswap ENDP
_TEXT	ENDS
; Function compile flags: /Odtp
; File C:\papa\MyGit\hyperion-zvector\machdep.h
;	COMDAT fetch_hw_noswap
_TEXT	SEGMENT
value$ = 0
ptr$ = 32
fetch_hw_noswap PROC					; COMDAT

; 712  :     inline U16 fetch_hw_noswap(const void *ptr) {

$LN3:
  00000	48 89 4c 24 08	 mov	 QWORD PTR [rsp+8], rcx
  00005	48 83 ec 18	 sub	 rsp, 24

; 713  :       U16 value;
; 714  :       memcpy(&value, (BYTE *)ptr, 2);

  00009	48 8b 44 24 20	 mov	 rax, QWORD PTR ptr$[rsp]
  0000e	0f b7 00	 movzx	 eax, WORD PTR [rax]
  00011	66 89 04 24	 mov	 WORD PTR value$[rsp], ax

; 715  :       return value;

  00015	0f b7 04 24	 movzx	 eax, WORD PTR value$[rsp]

; 716  :     }

  00019	48 83 c4 18	 add	 rsp, 24
  0001d	c3		 ret	 0
fetch_hw_noswap ENDP
_TEXT	ENDS
; Function compile flags: /Odtp
; File C:\papa\MyGit\hyperion-zvector\shared.c
_TEXT	SEGMENT
printed$1 = 64
current$2 = 72
tv137 = 80
shared_print_trace_table_locked PROC

; 3180 : {

  00000	40 57		 push	 rdi
  00002	48 83 ec 60	 sub	 rsp, 96			; 00000060H

; 3181 :     /* Does a trace table exist? */
; 3182 :     if (sysblk.shrdtrace)

  00006	48 8b 05 00 00
	00 00		 mov	 rax, QWORD PTR __imp_sysblk
  0000d	48 83 b8 c0 13
	00 00 00	 cmp	 QWORD PTR [rax+5056], 0
  00015	0f 84 73 01 00
	00		 je	 $LN5@shared_pri

; 3183 :     {
; 3184 :         SHRD_TRACE* current = sysblk.shrdtracep;

  0001b	48 8b 05 00 00
	00 00		 mov	 rax, QWORD PTR __imp_sysblk
  00022	48 8b 80 c8 13
	00 00		 mov	 rax, QWORD PTR [rax+5064]
  00029	48 89 44 24 48	 mov	 QWORD PTR current$2[rsp], rax

; 3185 :         bool printed = false;

  0002e	c6 44 24 40 00	 mov	 BYTE PTR printed$1[rsp], 0
$LN4@shared_pri:

; 3186 : 
; 3187 :         do
; 3188 :         {
; 3189 :             if (current[0][0])

  00033	b8 80 00 00 00	 mov	 eax, 128		; 00000080H
  00038	48 6b c0 00	 imul	 rax, rax, 0
  0003c	48 8b 4c 24 48	 mov	 rcx, QWORD PTR current$2[rsp]
  00041	48 03 c8	 add	 rcx, rax
  00044	48 8b c1	 mov	 rax, rcx
  00047	b9 01 00 00 00	 mov	 ecx, 1
  0004c	48 6b c9 00	 imul	 rcx, rcx, 0
  00050	0f be 04 08	 movsx	 eax, BYTE PTR [rax+rcx]
  00054	85 c0		 test	 eax, eax
  00056	74 56		 je	 SHORT $LN7@shared_pri

; 3190 :             {
; 3191 :                 // "Shared:  %s"
; 3192 :                 WRMSG( HHC00743, "I", (char*) current );

  00058	b9 01 00 00 00	 mov	 ecx, 1
  0005d	ff 15 00 00 00
	00		 call	 QWORD PTR __imp___acrt_iob_func
  00063	48 8b 4c 24 48	 mov	 rcx, QWORD PTR current$2[rsp]
  00068	48 89 4c 24 38	 mov	 QWORD PTR [rsp+56], rcx
  0006d	48 8d 0d 00 00
	00 00		 lea	 rcx, OFFSET FLAT:$SG170842
  00074	48 89 4c 24 30	 mov	 QWORD PTR [rsp+48], rcx
  00079	48 8d 0d 00 00
	00 00		 lea	 rcx, OFFSET FLAT:$SG170843
  00080	48 89 4c 24 28	 mov	 QWORD PTR [rsp+40], rcx
  00085	48 89 44 24 20	 mov	 QWORD PTR [rsp+32], rax
  0008a	41 b9 03 00 00
	00		 mov	 r9d, 3
  00090	4c 8d 05 00 00
	00 00		 lea	 r8, OFFSET FLAT:$SG170844
  00097	ba 78 0c 00 00	 mov	 edx, 3192		; 00000c78H
  0009c	48 8d 0d 00 00
	00 00		 lea	 rcx, OFFSET FLAT:$SG170845
  000a3	ff 15 00 00 00
	00		 call	 QWORD PTR __imp_fwritemsg

; 3193 :                 printed = true;

  000a9	c6 44 24 40 01	 mov	 BYTE PTR printed$1[rsp], 1
$LN7@shared_pri:

; 3194 :             }
; 3195 : 
; 3196 :             if (++current >= sysblk.shrdtracex)

  000ae	48 8b 44 24 48	 mov	 rax, QWORD PTR current$2[rsp]
  000b3	48 05 80 00 00
	00		 add	 rax, 128		; 00000080H
  000b9	48 89 44 24 48	 mov	 QWORD PTR current$2[rsp], rax
  000be	48 8b 05 00 00
	00 00		 mov	 rax, QWORD PTR __imp_sysblk
  000c5	48 8b 80 d0 13
	00 00		 mov	 rax, QWORD PTR [rax+5072]
  000cc	48 39 44 24 48	 cmp	 QWORD PTR current$2[rsp], rax
  000d1	72 13		 jb	 SHORT $LN8@shared_pri

; 3197 :                 current = sysblk.shrdtrace;

  000d3	48 8b 05 00 00
	00 00		 mov	 rax, QWORD PTR __imp_sysblk
  000da	48 8b 80 c0 13
	00 00		 mov	 rax, QWORD PTR [rax+5056]
  000e1	48 89 44 24 48	 mov	 QWORD PTR current$2[rsp], rax
$LN8@shared_pri:

; 3198 :         }
; 3199 :         while (current != sysblk.shrdtracep);

  000e6	48 8b 05 00 00
	00 00		 mov	 rax, QWORD PTR __imp_sysblk
  000ed	48 8b 80 c8 13
	00 00		 mov	 rax, QWORD PTR [rax+5064]
  000f4	48 39 44 24 48	 cmp	 QWORD PTR current$2[rsp], rax
  000f9	0f 85 34 ff ff
	ff		 jne	 $LN4@shared_pri

; 3200 : 
; 3201 :         if (!printed)

  000ff	0f b6 44 24 40	 movzx	 eax, BYTE PTR printed$1[rsp]
  00104	85 c0		 test	 eax, eax
  00106	75 53		 jne	 SHORT $LN9@shared_pri

; 3202 :         {
; 3203 :             // "Shared:  %s"
; 3204 :             WRMSG( HHC00743, "I", "(none)" );

  00108	b9 01 00 00 00	 mov	 ecx, 1
  0010d	ff 15 00 00 00
	00		 call	 QWORD PTR __imp___acrt_iob_func
  00113	48 8d 0d 00 00
	00 00		 lea	 rcx, OFFSET FLAT:$SG170848
  0011a	48 89 4c 24 38	 mov	 QWORD PTR [rsp+56], rcx
  0011f	48 8d 0d 00 00
	00 00		 lea	 rcx, OFFSET FLAT:$SG170849
  00126	48 89 4c 24 30	 mov	 QWORD PTR [rsp+48], rcx
  0012b	48 8d 0d 00 00
	00 00		 lea	 rcx, OFFSET FLAT:$SG170850
  00132	48 89 4c 24 28	 mov	 QWORD PTR [rsp+40], rcx
  00137	48 89 44 24 20	 mov	 QWORD PTR [rsp+32], rax
  0013c	41 b9 03 00 00
	00		 mov	 r9d, 3
  00142	4c 8d 05 00 00
	00 00		 lea	 r8, OFFSET FLAT:$SG170851
  00149	ba 84 0c 00 00	 mov	 edx, 3204		; 00000c84H
  0014e	48 8d 0d 00 00
	00 00		 lea	 rcx, OFFSET FLAT:$SG170852
  00155	ff 15 00 00 00
	00		 call	 QWORD PTR __imp_fwritemsg
$LN9@shared_pri:

; 3205 :         }
; 3206 : 
; 3207 :         /* Now that it's been printed, reset it to empty */
; 3208 :         memset( sysblk.shrdtrace, 0, sysblk.shrdtracen * sizeof( SHRD_TRACE ));

  0015b	48 8b 05 00 00
	00 00		 mov	 rax, QWORD PTR __imp_sysblk
  00162	48 63 80 d8 13
	00 00		 movsxd	 rax, DWORD PTR [rax+5080]
  00169	48 69 c0 80 00
	00 00		 imul	 rax, rax, 128		; 00000080H
  00170	48 89 44 24 50	 mov	 QWORD PTR tv137[rsp], rax
  00175	48 8b 0d 00 00
	00 00		 mov	 rcx, QWORD PTR __imp_sysblk
  0017c	48 8b b9 c0 13
	00 00		 mov	 rdi, QWORD PTR [rcx+5056]
  00183	33 c0		 xor	 eax, eax
  00185	48 8b 4c 24 50	 mov	 rcx, QWORD PTR tv137[rsp]
  0018a	f3 aa		 rep stosb

; 3209 :     }

  0018c	eb 53		 jmp	 SHORT $LN6@shared_pri
$LN5@shared_pri:

; 3210 :     else
; 3211 :         // "Shared:  %s"
; 3212 :         WRMSG( HHC00743, "I", "(NULL)" );

  0018e	b9 01 00 00 00	 mov	 ecx, 1
  00193	ff 15 00 00 00
	00		 call	 QWORD PTR __imp___acrt_iob_func
  00199	48 8d 0d 00 00
	00 00		 lea	 rcx, OFFSET FLAT:$SG170853
  001a0	48 89 4c 24 38	 mov	 QWORD PTR [rsp+56], rcx
  001a5	48 8d 0d 00 00
	00 00		 lea	 rcx, OFFSET FLAT:$SG170854
  001ac	48 89 4c 24 30	 mov	 QWORD PTR [rsp+48], rcx
  001b1	48 8d 0d 00 00
	00 00		 lea	 rcx, OFFSET FLAT:$SG170855
  001b8	48 89 4c 24 28	 mov	 QWORD PTR [rsp+40], rcx
  001bd	48 89 44 24 20	 mov	 QWORD PTR [rsp+32], rax
  001c2	41 b9 03 00 00
	00		 mov	 r9d, 3
  001c8	4c 8d 05 00 00
	00 00		 lea	 r8, OFFSET FLAT:$SG170856
  001cf	ba 8c 0c 00 00	 mov	 edx, 3212		; 00000c8cH
  001d4	48 8d 0d 00 00
	00 00		 lea	 rcx, OFFSET FLAT:$SG170857
  001db	ff 15 00 00 00
	00		 call	 QWORD PTR __imp_fwritemsg
$LN6@shared_pri:

; 3213 : }

  001e1	48 83 c4 60	 add	 rsp, 96			; 00000060H
  001e5	5f		 pop	 rdi
  001e6	c3		 ret	 0
shared_print_trace_table_locked ENDP
_TEXT	ENDS
; Function compile flags: /Odtp
; File C:\papa\MyGit\hyperion-zvector\shared.c
_TEXT	SEGMENT
tv65 = 0
cmd$ = 32
shrdcmd2str PROC

; 1618 : {

  00000	88 4c 24 08	 mov	 BYTE PTR [rsp+8], cl
  00004	48 83 ec 18	 sub	 rsp, 24

; 1619 :     switch (cmd)

  00008	0f b6 44 24 20	 movzx	 eax, BYTE PTR cmd$[rsp]
  0000d	89 04 24	 mov	 DWORD PTR tv65[rsp], eax
  00010	81 3c 24 f8 00
	00 00		 cmp	 DWORD PTR tv65[rsp], 248 ; 000000f8H
  00017	0f 87 45 01 00
	00		 ja	 $LN32@shrdcmd2st
  0001d	48 63 04 24	 movsxd	 rax, DWORD PTR tv65[rsp]
  00021	48 8d 0d 00 00
	00 00		 lea	 rcx, OFFSET FLAT:__ImageBase
  00028	0f b6 84 01 00
	00 00 00	 movzx	 eax, BYTE PTR $LN34@shrdcmd2st[rcx+rax]
  00030	8b 84 81 00 00
	00 00		 mov	 eax, DWORD PTR $LN35@shrdcmd2st[rcx+rax*4]
  00037	48 03 c1	 add	 rax, rcx
  0003a	ff e0		 jmp	 rax
$LN4@shrdcmd2st:

; 1620 :     {
; 1621 :         // Requests
; 1622 :         case SHRD_CONNECT:          return "CONNECT ";

  0003c	48 8d 05 00 00
	00 00		 lea	 rax, OFFSET FLAT:$SG169794
  00043	e9 21 01 00 00	 jmp	 $LN1@shrdcmd2st
$LN5@shrdcmd2st:

; 1623 :         case SHRD_DISCONNECT:       return "DISCONNE";

  00048	48 8d 05 00 00
	00 00		 lea	 rax, OFFSET FLAT:$SG169796
  0004f	e9 15 01 00 00	 jmp	 $LN1@shrdcmd2st
$LN6@shrdcmd2st:

; 1624 :         case SHRD_START:            return "START   ";

  00054	48 8d 05 00 00
	00 00		 lea	 rax, OFFSET FLAT:$SG169798
  0005b	e9 09 01 00 00	 jmp	 $LN1@shrdcmd2st
$LN7@shrdcmd2st:

; 1625 :         case SHRD_END:              return "END     ";

  00060	48 8d 05 00 00
	00 00		 lea	 rax, OFFSET FLAT:$SG169800
  00067	e9 fd 00 00 00	 jmp	 $LN1@shrdcmd2st
$LN8@shrdcmd2st:

; 1626 :         case SHRD_RESUME:           return "RESUME  ";

  0006c	48 8d 05 00 00
	00 00		 lea	 rax, OFFSET FLAT:$SG169802
  00073	e9 f1 00 00 00	 jmp	 $LN1@shrdcmd2st
$LN9@shrdcmd2st:

; 1627 :         case SHRD_SUSPEND:          return "SUSPEND ";

  00078	48 8d 05 00 00
	00 00		 lea	 rax, OFFSET FLAT:$SG169804
  0007f	e9 e5 00 00 00	 jmp	 $LN1@shrdcmd2st
$LN10@shrdcmd2st:

; 1628 :         case SHRD_RESERVE:          return "RESERVE ";

  00084	48 8d 05 00 00
	00 00		 lea	 rax, OFFSET FLAT:$SG169806
  0008b	e9 d9 00 00 00	 jmp	 $LN1@shrdcmd2st
$LN11@shrdcmd2st:

; 1629 :         case SHRD_RELEASE:          return "RELEASE ";

  00090	48 8d 05 00 00
	00 00		 lea	 rax, OFFSET FLAT:$SG169808
  00097	e9 cd 00 00 00	 jmp	 $LN1@shrdcmd2st
$LN12@shrdcmd2st:

; 1630 :         case SHRD_READ:             return "READ    ";

  0009c	48 8d 05 00 00
	00 00		 lea	 rax, OFFSET FLAT:$SG169810
  000a3	e9 c1 00 00 00	 jmp	 $LN1@shrdcmd2st
$LN13@shrdcmd2st:

; 1631 :         case SHRD_WRITE:            return "WRITE   ";

  000a8	48 8d 05 00 00
	00 00		 lea	 rax, OFFSET FLAT:$SG169812
  000af	e9 b5 00 00 00	 jmp	 $LN1@shrdcmd2st
$LN14@shrdcmd2st:

; 1632 :         case SHRD_SENSE:            return "SENSE   ";

  000b4	48 8d 05 00 00
	00 00		 lea	 rax, OFFSET FLAT:$SG169814
  000bb	e9 a9 00 00 00	 jmp	 $LN1@shrdcmd2st
$LN15@shrdcmd2st:

; 1633 :         case SHRD_QUERY:            return "QUERY   ";

  000c0	48 8d 05 00 00
	00 00		 lea	 rax, OFFSET FLAT:$SG169816
  000c7	e9 9d 00 00 00	 jmp	 $LN1@shrdcmd2st
$LN16@shrdcmd2st:

; 1634 :         case SHRD_COMPRESS:         return "COMPRESS";

  000cc	48 8d 05 00 00
	00 00		 lea	 rax, OFFSET FLAT:$SG169818
  000d3	e9 91 00 00 00	 jmp	 $LN1@shrdcmd2st
$LN17@shrdcmd2st:

; 1635 : 
; 1636 :         // Response codes
; 1637 :         case SHRD_OK:               return "OK      ";

  000d8	48 8d 05 00 00
	00 00		 lea	 rax, OFFSET FLAT:$SG169820
  000df	e9 85 00 00 00	 jmp	 $LN1@shrdcmd2st
$LN18@shrdcmd2st:

; 1638 :         case SHRD_ERROR:            return "ERROR   ";

  000e4	48 8d 05 00 00
	00 00		 lea	 rax, OFFSET FLAT:$SG169822
  000eb	eb 7c		 jmp	 SHORT $LN1@shrdcmd2st
$LN19@shrdcmd2st:

; 1639 :         case SHRD_IOERR:            return "IOERR   ";

  000ed	48 8d 05 00 00
	00 00		 lea	 rax, OFFSET FLAT:$SG169824
  000f4	eb 73		 jmp	 SHORT $LN1@shrdcmd2st
$LN20@shrdcmd2st:

; 1640 :         case SHRD_BUSY:             return "BUSY    ";

  000f6	48 8d 05 00 00
	00 00		 lea	 rax, OFFSET FLAT:$SG169826
  000fd	eb 6a		 jmp	 SHORT $LN1@shrdcmd2st
$LN21@shrdcmd2st:

; 1641 :         case SHRD_COMP:             return "COMP    ";

  000ff	48 8d 05 00 00
	00 00		 lea	 rax, OFFSET FLAT:$SG169828
  00106	eb 61		 jmp	 SHORT $LN1@shrdcmd2st
$LN22@shrdcmd2st:

; 1642 :         case SHRD_PURGE:            return "PURGE   ";

  00108	48 8d 05 00 00
	00 00		 lea	 rax, OFFSET FLAT:$SG169830
  0010f	eb 58		 jmp	 SHORT $LN1@shrdcmd2st
$LN23@shrdcmd2st:

; 1643 : 
; 1644 :         // Error responses
; 1645 :         case SHRD_ERROR_INVALID:    return "INVALID ";

  00111	48 8d 05 00 00
	00 00		 lea	 rax, OFFSET FLAT:$SG169832
  00118	eb 4f		 jmp	 SHORT $LN1@shrdcmd2st
$LN24@shrdcmd2st:

; 1646 :         case SHRD_ERROR_BADVERS:    return "BADVERS ";

  0011a	48 8d 05 00 00
	00 00		 lea	 rax, OFFSET FLAT:$SG169834
  00121	eb 46		 jmp	 SHORT $LN1@shrdcmd2st
$LN25@shrdcmd2st:

; 1647 :         case SHRD_ERROR_NOTINIT:    return "NOTINIT ";

  00123	48 8d 05 00 00
	00 00		 lea	 rax, OFFSET FLAT:$SG169836
  0012a	eb 3d		 jmp	 SHORT $LN1@shrdcmd2st
$LN26@shrdcmd2st:

; 1648 :         case SHRD_ERROR_NOTCONN:    return "NOTCONN ";

  0012c	48 8d 05 00 00
	00 00		 lea	 rax, OFFSET FLAT:$SG169838
  00133	eb 34		 jmp	 SHORT $LN1@shrdcmd2st
$LN27@shrdcmd2st:

; 1649 :         case SHRD_ERROR_NOTAVAIL:   return "NOTAVAIL";

  00135	48 8d 05 00 00
	00 00		 lea	 rax, OFFSET FLAT:$SG169840
  0013c	eb 2b		 jmp	 SHORT $LN1@shrdcmd2st
$LN28@shrdcmd2st:

; 1650 :         case SHRD_ERROR_NOMEM:      return "NOMEM   ";

  0013e	48 8d 05 00 00
	00 00		 lea	 rax, OFFSET FLAT:$SG169842
  00145	eb 22		 jmp	 SHORT $LN1@shrdcmd2st
$LN29@shrdcmd2st:

; 1651 :         case SHRD_ERROR_NOTACTIVE:  return "NOTACTIV";

  00147	48 8d 05 00 00
	00 00		 lea	 rax, OFFSET FLAT:$SG169844
  0014e	eb 19		 jmp	 SHORT $LN1@shrdcmd2st
$LN30@shrdcmd2st:

; 1652 :         case SHRD_ERROR_NODEVICE:   return "NODEVICE";

  00150	48 8d 05 00 00
	00 00		 lea	 rax, OFFSET FLAT:$SG169846
  00157	eb 10		 jmp	 SHORT $LN1@shrdcmd2st
$LN31@shrdcmd2st:

; 1653 :         case SHRD_ERROR_CONNECTED:  return "ECONNECT";

  00159	48 8d 05 00 00
	00 00		 lea	 rax, OFFSET FLAT:$SG169848
  00160	eb 07		 jmp	 SHORT $LN1@shrdcmd2st
$LN32@shrdcmd2st:

; 1654 : 
; 1655 :         default:                    return "????????";

  00162	48 8d 05 00 00
	00 00		 lea	 rax, OFFSET FLAT:$SG169850
$LN1@shrdcmd2st:

; 1656 :     }
; 1657 : }

  00169	48 83 c4 18	 add	 rsp, 24
  0016d	c3		 ret	 0
  0016e	66 90		 npad	 2
$LN35@shrdcmd2st:
  00170	00 00 00 00	 DD	 $LN17@shrdcmd2st
  00174	00 00 00 00	 DD	 $LN22@shrdcmd2st
  00178	00 00 00 00	 DD	 $LN21@shrdcmd2st
  0017c	00 00 00 00	 DD	 $LN20@shrdcmd2st
  00180	00 00 00 00	 DD	 $LN19@shrdcmd2st
  00184	00 00 00 00	 DD	 $LN18@shrdcmd2st
  00188	00 00 00 00	 DD	 $LN4@shrdcmd2st
  0018c	00 00 00 00	 DD	 $LN5@shrdcmd2st
  00190	00 00 00 00	 DD	 $LN6@shrdcmd2st
  00194	00 00 00 00	 DD	 $LN7@shrdcmd2st
  00198	00 00 00 00	 DD	 $LN8@shrdcmd2st
  0019c	00 00 00 00	 DD	 $LN9@shrdcmd2st
  001a0	00 00 00 00	 DD	 $LN10@shrdcmd2st
  001a4	00 00 00 00	 DD	 $LN11@shrdcmd2st
  001a8	00 00 00 00	 DD	 $LN12@shrdcmd2st
  001ac	00 00 00 00	 DD	 $LN13@shrdcmd2st
  001b0	00 00 00 00	 DD	 $LN14@shrdcmd2st
  001b4	00 00 00 00	 DD	 $LN15@shrdcmd2st
  001b8	00 00 00 00	 DD	 $LN16@shrdcmd2st
  001bc	00 00 00 00	 DD	 $LN23@shrdcmd2st
  001c0	00 00 00 00	 DD	 $LN24@shrdcmd2st
  001c4	00 00 00 00	 DD	 $LN25@shrdcmd2st
  001c8	00 00 00 00	 DD	 $LN26@shrdcmd2st
  001cc	00 00 00 00	 DD	 $LN27@shrdcmd2st
  001d0	00 00 00 00	 DD	 $LN28@shrdcmd2st
  001d4	00 00 00 00	 DD	 $LN29@shrdcmd2st
  001d8	00 00 00 00	 DD	 $LN30@shrdcmd2st
  001dc	00 00 00 00	 DD	 $LN31@shrdcmd2st
  001e0	00 00 00 00	 DD	 $LN32@shrdcmd2st
$LN34@shrdcmd2st:
  001e4	00		 DB	 0
  001e5	1c		 DB	 28
  001e6	1c		 DB	 28
  001e7	1c		 DB	 28
  001e8	1c		 DB	 28
  001e9	1c		 DB	 28
  001ea	1c		 DB	 28
  001eb	1c		 DB	 28
  001ec	01		 DB	 1
  001ed	1c		 DB	 28
  001ee	1c		 DB	 28
  001ef	1c		 DB	 28
  001f0	1c		 DB	 28
  001f1	1c		 DB	 28
  001f2	1c		 DB	 28
  001f3	1c		 DB	 28
  001f4	02		 DB	 2
  001f5	1c		 DB	 28
  001f6	1c		 DB	 28
  001f7	1c		 DB	 28
  001f8	1c		 DB	 28
  001f9	1c		 DB	 28
  001fa	1c		 DB	 28
  001fb	1c		 DB	 28
  001fc	1c		 DB	 28
  001fd	1c		 DB	 28
  001fe	1c		 DB	 28
  001ff	1c		 DB	 28
  00200	1c		 DB	 28
  00201	1c		 DB	 28
  00202	1c		 DB	 28
  00203	1c		 DB	 28
  00204	03		 DB	 3
  00205	1c		 DB	 28
  00206	1c		 DB	 28
  00207	1c		 DB	 28
  00208	1c		 DB	 28
  00209	1c		 DB	 28
  0020a	1c		 DB	 28
  0020b	1c		 DB	 28
  0020c	1c		 DB	 28
  0020d	1c		 DB	 28
  0020e	1c		 DB	 28
  0020f	1c		 DB	 28
  00210	1c		 DB	 28
  00211	1c		 DB	 28
  00212	1c		 DB	 28
  00213	1c		 DB	 28
  00214	1c		 DB	 28
  00215	1c		 DB	 28
  00216	1c		 DB	 28
  00217	1c		 DB	 28
  00218	1c		 DB	 28
  00219	1c		 DB	 28
  0021a	1c		 DB	 28
  0021b	1c		 DB	 28
  0021c	1c		 DB	 28
  0021d	1c		 DB	 28
  0021e	1c		 DB	 28
  0021f	1c		 DB	 28
  00220	1c		 DB	 28
  00221	1c		 DB	 28
  00222	1c		 DB	 28
  00223	1c		 DB	 28
  00224	04		 DB	 4
  00225	1c		 DB	 28
  00226	1c		 DB	 28
  00227	1c		 DB	 28
  00228	1c		 DB	 28
  00229	1c		 DB	 28
  0022a	1c		 DB	 28
  0022b	1c		 DB	 28
  0022c	1c		 DB	 28
  0022d	1c		 DB	 28
  0022e	1c		 DB	 28
  0022f	1c		 DB	 28
  00230	1c		 DB	 28
  00231	1c		 DB	 28
  00232	1c		 DB	 28
  00233	1c		 DB	 28
  00234	1c		 DB	 28
  00235	1c		 DB	 28
  00236	1c		 DB	 28
  00237	1c		 DB	 28
  00238	1c		 DB	 28
  00239	1c		 DB	 28
  0023a	1c		 DB	 28
  0023b	1c		 DB	 28
  0023c	1c		 DB	 28
  0023d	1c		 DB	 28
  0023e	1c		 DB	 28
  0023f	1c		 DB	 28
  00240	1c		 DB	 28
  00241	1c		 DB	 28
  00242	1c		 DB	 28
  00243	1c		 DB	 28
  00244	1c		 DB	 28
  00245	1c		 DB	 28
  00246	1c		 DB	 28
  00247	1c		 DB	 28
  00248	1c		 DB	 28
  00249	1c		 DB	 28
  0024a	1c		 DB	 28
  0024b	1c		 DB	 28
  0024c	1c		 DB	 28
  0024d	1c		 DB	 28
  0024e	1c		 DB	 28
  0024f	1c		 DB	 28
  00250	1c		 DB	 28
  00251	1c		 DB	 28
  00252	1c		 DB	 28
  00253	1c		 DB	 28
  00254	1c		 DB	 28
  00255	1c		 DB	 28
  00256	1c		 DB	 28
  00257	1c		 DB	 28
  00258	1c		 DB	 28
  00259	1c		 DB	 28
  0025a	1c		 DB	 28
  0025b	1c		 DB	 28
  0025c	1c		 DB	 28
  0025d	1c		 DB	 28
  0025e	1c		 DB	 28
  0025f	1c		 DB	 28
  00260	1c		 DB	 28
  00261	1c		 DB	 28
  00262	1c		 DB	 28
  00263	1c		 DB	 28
  00264	05		 DB	 5
  00265	1c		 DB	 28
  00266	1c		 DB	 28
  00267	1c		 DB	 28
  00268	1c		 DB	 28
  00269	1c		 DB	 28
  0026a	1c		 DB	 28
  0026b	1c		 DB	 28
  0026c	1c		 DB	 28
  0026d	1c		 DB	 28
  0026e	1c		 DB	 28
  0026f	1c		 DB	 28
  00270	1c		 DB	 28
  00271	1c		 DB	 28
  00272	1c		 DB	 28
  00273	1c		 DB	 28
  00274	1c		 DB	 28
  00275	1c		 DB	 28
  00276	1c		 DB	 28
  00277	1c		 DB	 28
  00278	1c		 DB	 28
  00279	1c		 DB	 28
  0027a	1c		 DB	 28
  0027b	1c		 DB	 28
  0027c	1c		 DB	 28
  0027d	1c		 DB	 28
  0027e	1c		 DB	 28
  0027f	1c		 DB	 28
  00280	1c		 DB	 28
  00281	1c		 DB	 28
  00282	1c		 DB	 28
  00283	1c		 DB	 28
  00284	1c		 DB	 28
  00285	1c		 DB	 28
  00286	1c		 DB	 28
  00287	1c		 DB	 28
  00288	1c		 DB	 28
  00289	1c		 DB	 28
  0028a	1c		 DB	 28
  0028b	1c		 DB	 28
  0028c	1c		 DB	 28
  0028d	1c		 DB	 28
  0028e	1c		 DB	 28
  0028f	1c		 DB	 28
  00290	1c		 DB	 28
  00291	1c		 DB	 28
  00292	1c		 DB	 28
  00293	1c		 DB	 28
  00294	1c		 DB	 28
  00295	1c		 DB	 28
  00296	1c		 DB	 28
  00297	1c		 DB	 28
  00298	1c		 DB	 28
  00299	1c		 DB	 28
  0029a	1c		 DB	 28
  0029b	1c		 DB	 28
  0029c	1c		 DB	 28
  0029d	1c		 DB	 28
  0029e	1c		 DB	 28
  0029f	1c		 DB	 28
  002a0	1c		 DB	 28
  002a1	1c		 DB	 28
  002a2	1c		 DB	 28
  002a3	1c		 DB	 28
  002a4	1c		 DB	 28
  002a5	1c		 DB	 28
  002a6	1c		 DB	 28
  002a7	1c		 DB	 28
  002a8	1c		 DB	 28
  002a9	1c		 DB	 28
  002aa	1c		 DB	 28
  002ab	1c		 DB	 28
  002ac	1c		 DB	 28
  002ad	1c		 DB	 28
  002ae	1c		 DB	 28
  002af	1c		 DB	 28
  002b0	1c		 DB	 28
  002b1	1c		 DB	 28
  002b2	1c		 DB	 28
  002b3	1c		 DB	 28
  002b4	1c		 DB	 28
  002b5	1c		 DB	 28
  002b6	1c		 DB	 28
  002b7	1c		 DB	 28
  002b8	1c		 DB	 28
  002b9	1c		 DB	 28
  002ba	1c		 DB	 28
  002bb	1c		 DB	 28
  002bc	1c		 DB	 28
  002bd	1c		 DB	 28
  002be	1c		 DB	 28
  002bf	1c		 DB	 28
  002c0	1c		 DB	 28
  002c1	1c		 DB	 28
  002c2	1c		 DB	 28
  002c3	1c		 DB	 28
  002c4	06		 DB	 6
  002c5	07		 DB	 7
  002c6	08		 DB	 8
  002c7	09		 DB	 9
  002c8	0a		 DB	 10
  002c9	0b		 DB	 11
  002ca	0c		 DB	 12
  002cb	0d		 DB	 13
  002cc	0e		 DB	 14
  002cd	0f		 DB	 15
  002ce	10		 DB	 16
  002cf	11		 DB	 17
  002d0	12		 DB	 18
  002d1	1c		 DB	 28
  002d2	1c		 DB	 28
  002d3	1c		 DB	 28
  002d4	13		 DB	 19
  002d5	14		 DB	 20
  002d6	15		 DB	 21
  002d7	16		 DB	 22
  002d8	17		 DB	 23
  002d9	18		 DB	 24
  002da	19		 DB	 25
  002db	1a		 DB	 26
  002dc	1b		 DB	 27
shrdcmd2str ENDP
_TEXT	ENDS
; Function compile flags: /Odtp
; File C:\papa\MyGit\hyperion-zvector\shared.c
_TEXT	SEGMENT
tracing$ = 64
tv69 = 68
tv71 = 72
tv146 = 76
tv$ = 80
vl$ = 88
tv161 = 96
tv168 = 104
currmsg$1 = 112
buf$ = 120
tracemsg$ = 160
__$ArrayPad$ = 288
dev$ = 320
fmt$ = 328
shrdtrc	PROC

; 2663 : {

  00000	48 89 54 24 10	 mov	 QWORD PTR [rsp+16], rdx
  00005	48 89 4c 24 08	 mov	 QWORD PTR [rsp+8], rcx
  0000a	4c 89 44 24 18	 mov	 QWORD PTR [rsp+24], r8
  0000f	4c 89 4c 24 20	 mov	 QWORD PTR [rsp+32], r9
  00014	48 81 ec 38 01
	00 00		 sub	 rsp, 312		; 00000138H
  0001b	48 8b 05 00 00
	00 00		 mov	 rax, QWORD PTR __security_cookie
  00022	48 33 c4	 xor	 rax, rsp
  00025	48 89 84 24 20
	01 00 00	 mov	 QWORD PTR __$ArrayPad$[rsp], rax

; 2664 :     bool            tracing;
; 2665 :     struct timeval  tv;
; 2666 :     SHRD_TRACE      tracemsg;
; 2667 :     va_list         vl;
; 2668 :     char            buf[32];
; 2669 : 
; 2670 :     /* If the device is being traced or stepped, we also print a
; 2671 :        trace message (WITHOUT a timestamp) directly to the panel.
; 2672 :        Otherwise we build a trace message WITH a timestamp prefix
; 2673 :        and enter it into out trace table if one exists. If neither
; 2674 :        is true (not tracing or stepping AND no trace table) then
; 2675 :        there's nothing for us to do so we return immediately.
; 2676 :     */
; 2677 :     tracing = (dev && dev->ccwtrace);

  0002d	48 83 bc 24 40
	01 00 00 00	 cmp	 QWORD PTR dev$[rsp], 0
  00036	74 22		 je	 SHORT $LN16@shrdtrc
  00038	48 8b 84 24 40
	01 00 00	 mov	 rax, QWORD PTR dev$[rsp]
  00040	8b 80 f8 05 00
	00		 mov	 eax, DWORD PTR [rax+1528]
  00046	c1 e8 0f	 shr	 eax, 15
  00049	83 e0 01	 and	 eax, 1
  0004c	85 c0		 test	 eax, eax
  0004e	74 0a		 je	 SHORT $LN16@shrdtrc
  00050	c7 44 24 44 01
	00 00 00	 mov	 DWORD PTR tv69[rsp], 1
  00058	eb 08		 jmp	 SHORT $LN17@shrdtrc
$LN16@shrdtrc:
  0005a	c7 44 24 44 00
	00 00 00	 mov	 DWORD PTR tv69[rsp], 0
$LN17@shrdtrc:
  00062	83 7c 24 44 00	 cmp	 DWORD PTR tv69[rsp], 0
  00067	75 0a		 jne	 SHORT $LN18@shrdtrc
  00069	c7 44 24 48 00
	00 00 00	 mov	 DWORD PTR tv71[rsp], 0
  00071	eb 08		 jmp	 SHORT $LN19@shrdtrc
$LN18@shrdtrc:
  00073	c7 44 24 48 01
	00 00 00	 mov	 DWORD PTR tv71[rsp], 1
$LN19@shrdtrc:
  0007b	0f b6 44 24 48	 movzx	 eax, BYTE PTR tv71[rsp]
  00080	88 44 24 40	 mov	 BYTE PTR tracing$[rsp], al

; 2678 : 
; 2679 :     OBTAIN_SHRDTRACE_LOCK();

  00084	48 8b 05 00 00
	00 00		 mov	 rax, QWORD PTR __imp_sysblk
  0008b	48 05 b8 13 00
	00		 add	 rax, 5048		; 000013b8H
  00091	48 8d 15 00 00
	00 00		 lea	 rdx, OFFSET FLAT:$SG170518
  00098	48 8b c8	 mov	 rcx, rax
  0009b	ff 15 00 00 00
	00		 call	 QWORD PTR __imp_hthread_obtain_lock

; 2680 : 
; 2681 :     if (!tracing && !sysblk.shrdtrace)

  000a1	0f b6 44 24 40	 movzx	 eax, BYTE PTR tracing$[rsp]
  000a6	85 c0		 test	 eax, eax
  000a8	75 33		 jne	 SHORT $LN8@shrdtrc
  000aa	48 8b 05 00 00
	00 00		 mov	 rax, QWORD PTR __imp_sysblk
  000b1	48 83 b8 c0 13
	00 00 00	 cmp	 QWORD PTR [rax+5056], 0
  000b9	75 22		 jne	 SHORT $LN8@shrdtrc

; 2682 :     {
; 2683 :         RELEASE_SHRDTRACE_LOCK();

  000bb	48 8b 05 00 00
	00 00		 mov	 rax, QWORD PTR __imp_sysblk
  000c2	48 05 b8 13 00
	00		 add	 rax, 5048		; 000013b8H
  000c8	48 8d 15 00 00
	00 00		 lea	 rdx, OFFSET FLAT:$SG170520
  000cf	48 8b c8	 mov	 rcx, rax
  000d2	ff 15 00 00 00
	00		 call	 QWORD PTR __imp_hthread_release_lock

; 2684 :         return;  // (nothing for us to do!)

  000d8	e9 96 02 00 00	 jmp	 $LN1@shrdtrc
$LN8@shrdtrc:
$LN4@shrdtrc:

; 2685 :     }
; 2686 : 
; 2687 :     ASSERT( tracing || sysblk.shrdtrace );

  000dd	0f b6 44 24 40	 movzx	 eax, BYTE PTR tracing$[rsp]
  000e2	85 c0		 test	 eax, eax
  000e4	75 6d		 jne	 SHORT $LN9@shrdtrc
  000e6	48 8b 05 00 00
	00 00		 mov	 rax, QWORD PTR __imp_sysblk
  000ed	48 83 b8 c0 13
	00 00 00	 cmp	 QWORD PTR [rax+5056], 0
  000f5	75 5c		 jne	 SHORT $LN9@shrdtrc
$LN7@shrdtrc:
  000f7	4c 8d 0d 00 00
	00 00		 lea	 r9, OFFSET FLAT:$SG170522
  000fe	41 b8 7f 0a 00
	00		 mov	 r8d, 2687		; 00000a7fH
  00104	48 8d 15 00 00
	00 00		 lea	 rdx, OFFSET FLAT:$SG170523
  0010b	48 8d 0d 00 00
	00 00		 lea	 rcx, OFFSET FLAT:$SG170524
  00112	ff 15 00 00 00
	00		 call	 QWORD PTR __imp_logmsg
  00118	ff 15 00 00 00
	00		 call	 QWORD PTR __imp_IsDebuggerPresent
  0011e	85 c0		 test	 eax, eax
  00120	74 20		 je	 SHORT $LN10@shrdtrc
  00122	4c 8d 0d 00 00
	00 00		 lea	 r9, OFFSET FLAT:$SG170526
  00129	41 b8 7f 0a 00
	00		 mov	 r8d, 2687		; 00000a7fH
  0012f	48 8d 15 00 00
	00 00		 lea	 rdx, OFFSET FLAT:$SG170527
  00136	48 8d 0d 00 00
	00 00		 lea	 rcx, OFFSET FLAT:$SG170528
  0013d	e8 00 00 00 00	 call	 DebuggerTrace
$LN10@shrdtrc:
  00142	33 c0		 xor	 eax, eax
  00144	85 c0		 test	 eax, eax
  00146	75 af		 jne	 SHORT $LN7@shrdtrc
  00148	ff 15 00 00 00
	00		 call	 QWORD PTR __imp_IsDebuggerPresent
  0014e	85 c0		 test	 eax, eax
  00150	74 01		 je	 SHORT $LN11@shrdtrc
  00152	cc		 int	 3
$LN11@shrdtrc:
$LN9@shrdtrc:
  00153	33 c0		 xor	 eax, eax
  00155	85 c0		 test	 eax, eax
  00157	75 84		 jne	 SHORT $LN4@shrdtrc

; 2688 : 
; 2689 :     /* Build the timestamp portion of the trace message */
; 2690 :     gettimeofday( &tv, NULL );

  00159	33 d2		 xor	 edx, edx
  0015b	48 8d 4c 24 50	 lea	 rcx, QWORD PTR tv$[rsp]
  00160	ff 15 00 00 00
	00		 call	 QWORD PTR __imp_gettimeofday

; 2691 :     FormatTIMEVAL( &tv, buf, sizeof( buf ));

  00166	41 b8 20 00 00
	00		 mov	 r8d, 32			; 00000020H
  0016c	48 8d 54 24 78	 lea	 rdx, QWORD PTR buf$[rsp]
  00171	48 8d 4c 24 50	 lea	 rcx, QWORD PTR tv$[rsp]
  00176	ff 15 00 00 00
	00		 call	 QWORD PTR __imp_FormatTIMEVAL

; 2692 :     STRLCPY( tracemsg, buf + 11 ); // (skip "YYYY-MM-DD ")

  0017c	48 8d 84 24 83
	00 00 00	 lea	 rax, QWORD PTR buf$[rsp+11]
  00184	41 b8 80 00 00
	00		 mov	 r8d, 128		; 00000080H
  0018a	48 8b d0	 mov	 rdx, rax
  0018d	48 8d 8c 24 a0
	00 00 00	 lea	 rcx, QWORD PTR tracemsg$[rsp]
  00195	ff 15 00 00 00
	00		 call	 QWORD PTR __imp_strlcpy

; 2693 : 
; 2694 :     /* Append the devnum to the trace message */
; 2695 :     MSGBUF( buf, "  %4.4X  ", dev ? dev->devnum : 0 );

  0019b	48 83 bc 24 40
	01 00 00 00	 cmp	 QWORD PTR dev$[rsp], 0
  001a4	74 12		 je	 SHORT $LN20@shrdtrc
  001a6	48 8b 84 24 40
	01 00 00	 mov	 rax, QWORD PTR dev$[rsp]
  001ae	0f b7 40 48	 movzx	 eax, WORD PTR [rax+72]
  001b2	89 44 24 4c	 mov	 DWORD PTR tv146[rsp], eax
  001b6	eb 08		 jmp	 SHORT $LN21@shrdtrc
$LN20@shrdtrc:
  001b8	c7 44 24 4c 00
	00 00 00	 mov	 DWORD PTR tv146[rsp], 0
$LN21@shrdtrc:
  001c0	44 8b 4c 24 4c	 mov	 r9d, DWORD PTR tv146[rsp]
  001c5	4c 8d 05 00 00
	00 00		 lea	 r8, OFFSET FLAT:$SG170530
  001cc	ba 20 00 00 00	 mov	 edx, 32			; 00000020H
  001d1	48 8d 4c 24 78	 lea	 rcx, QWORD PTR buf$[rsp]
  001d6	ff 15 00 00 00
	00		 call	 QWORD PTR __imp_w32_snprintf

; 2696 :     STRLCAT( tracemsg, buf );

  001dc	41 b8 80 00 00
	00		 mov	 r8d, 128		; 00000080H
  001e2	48 8d 54 24 78	 lea	 rdx, QWORD PTR buf$[rsp]
  001e7	48 8d 8c 24 a0
	00 00 00	 lea	 rcx, QWORD PTR tracemsg$[rsp]
  001ef	ff 15 00 00 00
	00		 call	 QWORD PTR __imp_strlcat

; 2697 : 
; 2698 :     /* Now format the rest of the trace message following that part */
; 2699 :     va_start( vl, fmt );

  001f5	48 8d 84 24 50
	01 00 00	 lea	 rax, QWORD PTR fmt$[rsp+8]
  001fd	48 89 44 24 58	 mov	 QWORD PTR vl$[rsp], rax

; 2700 :     vsnprintf( (char*) tracemsg + strlen( tracemsg ),

  00202	48 8d 8c 24 a0
	00 00 00	 lea	 rcx, QWORD PTR tracemsg$[rsp]
  0020a	e8 00 00 00 00	 call	 strlen
  0020f	b9 80 00 00 00	 mov	 ecx, 128		; 00000080H
  00214	48 2b c8	 sub	 rcx, rax
  00217	48 8b c1	 mov	 rax, rcx
  0021a	48 89 44 24 60	 mov	 QWORD PTR tv161[rsp], rax
  0021f	48 8d 8c 24 a0
	00 00 00	 lea	 rcx, QWORD PTR tracemsg$[rsp]
  00227	e8 00 00 00 00	 call	 strlen
  0022c	48 8d 84 04 a0
	00 00 00	 lea	 rax, QWORD PTR tracemsg$[rsp+rax]
  00234	4c 8b 4c 24 58	 mov	 r9, QWORD PTR vl$[rsp]
  00239	4c 8b 84 24 48
	01 00 00	 mov	 r8, QWORD PTR fmt$[rsp]
  00241	48 8b 4c 24 60	 mov	 rcx, QWORD PTR tv161[rsp]
  00246	48 8b d1	 mov	 rdx, rcx
  00249	48 8b c8	 mov	 rcx, rax
  0024c	ff 15 00 00 00
	00		 call	 QWORD PTR __imp_w32_vsnprintf

; 2701 :         sizeof( tracemsg ) - strlen( tracemsg ), fmt, vl );
; 2702 : 
; 2703 :     /* Log the trace message directly to the panel (WITHOUT the
; 2704 :        timestamp prefix) if the device is being traced/stepped. */
; 2705 :     if (tracing)

  00252	0f b6 44 24 40	 movzx	 eax, BYTE PTR tracing$[rsp]
  00257	85 c0		 test	 eax, eax
  00259	74 5e		 je	 SHORT $LN12@shrdtrc

; 2706 :         // "Shared:  %s"
; 2707 :         WRMSG( HHC00743, "I", tracemsg + 16 ); // (skip "HH:MM:SS.uuuuuu ")

  0025b	48 8d 84 24 b0
	00 00 00	 lea	 rax, QWORD PTR tracemsg$[rsp+16]
  00263	48 89 44 24 68	 mov	 QWORD PTR tv168[rsp], rax
  00268	b9 01 00 00 00	 mov	 ecx, 1
  0026d	ff 15 00 00 00
	00		 call	 QWORD PTR __imp___acrt_iob_func
  00273	48 8b 4c 24 68	 mov	 rcx, QWORD PTR tv168[rsp]
  00278	48 89 4c 24 38	 mov	 QWORD PTR [rsp+56], rcx
  0027d	48 8d 0d 00 00
	00 00		 lea	 rcx, OFFSET FLAT:$SG170532
  00284	48 89 4c 24 30	 mov	 QWORD PTR [rsp+48], rcx
  00289	48 8d 0d 00 00
	00 00		 lea	 rcx, OFFSET FLAT:$SG170533
  00290	48 89 4c 24 28	 mov	 QWORD PTR [rsp+40], rcx
  00295	48 89 44 24 20	 mov	 QWORD PTR [rsp+32], rax
  0029a	41 b9 03 00 00
	00		 mov	 r9d, 3
  002a0	4c 8d 05 00 00
	00 00		 lea	 r8, OFFSET FLAT:$SG170534
  002a7	ba 93 0a 00 00	 mov	 edx, 2707		; 00000a93H
  002ac	48 8d 0d 00 00
	00 00		 lea	 rcx, OFFSET FLAT:$SG170535
  002b3	ff 15 00 00 00
	00		 call	 QWORD PTR __imp_fwritemsg
$LN12@shrdtrc:

; 2708 : 
; 2709 :     /* Copy the trace message into the trace table (if it exists) */
; 2710 :     if (sysblk.shrdtrace)

  002b9	48 8b 05 00 00
	00 00		 mov	 rax, QWORD PTR __imp_sysblk
  002c0	48 83 b8 c0 13
	00 00 00	 cmp	 QWORD PTR [rax+5056], 0
  002c8	0f 84 88 00 00
	00		 je	 $LN13@shrdtrc

; 2711 :     {
; 2712 :         /* Grab pointer to next available table entry and then
; 2713 :            bump the pointer to the next entry for next time.
; 2714 :         */
; 2715 :         SHRD_TRACE* currmsg = sysblk.shrdtracep++;

  002ce	48 8b 05 00 00
	00 00		 mov	 rax, QWORD PTR __imp_sysblk
  002d5	48 8b 80 c8 13
	00 00		 mov	 rax, QWORD PTR [rax+5064]
  002dc	48 89 44 24 70	 mov	 QWORD PTR currmsg$1[rsp], rax
  002e1	48 8b 05 00 00
	00 00		 mov	 rax, QWORD PTR __imp_sysblk
  002e8	48 8b 80 c8 13
	00 00		 mov	 rax, QWORD PTR [rax+5064]
  002ef	48 05 80 00 00
	00		 add	 rax, 128		; 00000080H
  002f5	48 8b 0d 00 00
	00 00		 mov	 rcx, QWORD PTR __imp_sysblk
  002fc	48 89 81 c8 13
	00 00		 mov	 QWORD PTR [rcx+5064], rax

; 2716 : 
; 2717 :         if (sysblk.shrdtracep >= sysblk.shrdtracex)

  00303	48 8b 05 00 00
	00 00		 mov	 rax, QWORD PTR __imp_sysblk
  0030a	48 8b 0d 00 00
	00 00		 mov	 rcx, QWORD PTR __imp_sysblk
  00311	48 8b 89 d0 13
	00 00		 mov	 rcx, QWORD PTR [rcx+5072]
  00318	48 39 88 c8 13
	00 00		 cmp	 QWORD PTR [rax+5064], rcx
  0031f	72 1c		 jb	 SHORT $LN14@shrdtrc

; 2718 :             sysblk.shrdtracep  = sysblk.shrdtrace;

  00321	48 8b 05 00 00
	00 00		 mov	 rax, QWORD PTR __imp_sysblk
  00328	48 8b 0d 00 00
	00 00		 mov	 rcx, QWORD PTR __imp_sysblk
  0032f	48 8b 89 c0 13
	00 00		 mov	 rcx, QWORD PTR [rcx+5056]
  00336	48 89 88 c8 13
	00 00		 mov	 QWORD PTR [rax+5064], rcx
$LN14@shrdtrc:

; 2719 : 
; 2720 :         /* Copy message (WITH timestamp) into trace table */
; 2721 :         strlcpy( (char*) currmsg, (const char*) tracemsg, sizeof( SHRD_TRACE ));

  0033d	41 b8 80 00 00
	00		 mov	 r8d, 128		; 00000080H
  00343	48 8d 94 24 a0
	00 00 00	 lea	 rdx, QWORD PTR tracemsg$[rsp]
  0034b	48 8b 4c 24 70	 mov	 rcx, QWORD PTR currmsg$1[rsp]
  00350	ff 15 00 00 00
	00		 call	 QWORD PTR __imp_strlcpy
$LN13@shrdtrc:

; 2722 :     }
; 2723 : 
; 2724 :     RELEASE_SHRDTRACE_LOCK();

  00356	48 8b 05 00 00
	00 00		 mov	 rax, QWORD PTR __imp_sysblk
  0035d	48 05 b8 13 00
	00		 add	 rax, 5048		; 000013b8H
  00363	48 8d 15 00 00
	00 00		 lea	 rdx, OFFSET FLAT:$SG170538
  0036a	48 8b c8	 mov	 rcx, rax
  0036d	ff 15 00 00 00
	00		 call	 QWORD PTR __imp_hthread_release_lock
$LN1@shrdtrc:

; 2725 : }

  00373	48 8b 8c 24 20
	01 00 00	 mov	 rcx, QWORD PTR __$ArrayPad$[rsp]
  0037b	48 33 cc	 xor	 rcx, rsp
  0037e	e8 00 00 00 00	 call	 __security_check_cookie
  00383	48 81 c4 38 01
	00 00		 add	 rsp, 312		; 00000138H
  0038a	c3		 ret	 0
shrdtrc	ENDP
_TEXT	ENDS
; Function compile flags: /Odtp
; File C:\papa\MyGit\hyperion-zvector\shared.c
_TEXT	SEGMENT
cmd$ = 96
code$ = 97
devnum$ = 100
shdr$1 = 104
len$ = 112
id$ = 116
tv129 = 120
tv131 = 124
tv133 = 128
tv90 = 136
tv93 = 144
buf$ = 152
dev$ = 176
msg$ = 184
hdr$ = 192
msg2$ = 200
shrdhdrtrc PROC

; 2650 : {

  00000	4c 89 4c 24 20	 mov	 QWORD PTR [rsp+32], r9
  00005	4c 89 44 24 18	 mov	 QWORD PTR [rsp+24], r8
  0000a	48 89 54 24 10	 mov	 QWORD PTR [rsp+16], rdx
  0000f	48 89 4c 24 08	 mov	 QWORD PTR [rsp+8], rcx
  00014	48 81 ec a8 00
	00 00		 sub	 rsp, 168		; 000000a8H
$LN4@shrdhdrtrc:

; 2651 :     BYTE cmd, code; U16 devnum; int id, len; char buf[4];
; 2652 :     SHRD_GET_HDR( hdr, cmd, code, devnum, id, len );

  0001b	48 8b 84 24 c0
	00 00 00	 mov	 rax, QWORD PTR hdr$[rsp]
  00023	48 89 44 24 68	 mov	 QWORD PTR shdr$1[rsp], rax
  00028	48 8b 44 24 68	 mov	 rax, QWORD PTR shdr$1[rsp]
  0002d	0f b6 00	 movzx	 eax, BYTE PTR [rax]
  00030	88 44 24 60	 mov	 BYTE PTR cmd$[rsp], al
  00034	48 8b 44 24 68	 mov	 rax, QWORD PTR shdr$1[rsp]
  00039	0f b6 40 01	 movzx	 eax, BYTE PTR [rax+1]
  0003d	88 44 24 61	 mov	 BYTE PTR code$[rsp], al
  00041	48 8b 44 24 68	 mov	 rax, QWORD PTR shdr$1[rsp]
  00046	48 83 c0 02	 add	 rax, 2
  0004a	48 8b c8	 mov	 rcx, rax
  0004d	e8 00 00 00 00	 call	 fetch_hw_noswap
  00052	0f b7 c8	 movzx	 ecx, ax
  00055	e8 00 00 00 00	 call	 _byteswap_ushort
  0005a	66 89 44 24 64	 mov	 WORD PTR devnum$[rsp], ax
  0005f	48 8b 44 24 68	 mov	 rax, QWORD PTR shdr$1[rsp]
  00064	48 83 c0 04	 add	 rax, 4
  00068	48 8b c8	 mov	 rcx, rax
  0006b	e8 00 00 00 00	 call	 fetch_hw_noswap
  00070	0f b7 c8	 movzx	 ecx, ax
  00073	e8 00 00 00 00	 call	 _byteswap_ushort
  00078	0f b7 c0	 movzx	 eax, ax
  0007b	89 44 24 70	 mov	 DWORD PTR len$[rsp], eax
  0007f	48 8b 44 24 68	 mov	 rax, QWORD PTR shdr$1[rsp]
  00084	48 83 c0 06	 add	 rax, 6
  00088	48 8b c8	 mov	 rcx, rax
  0008b	e8 00 00 00 00	 call	 fetch_hw_noswap
  00090	0f b7 c8	 movzx	 ecx, ax
  00093	e8 00 00 00 00	 call	 _byteswap_ushort
  00098	0f b7 c0	 movzx	 eax, ax
  0009b	89 44 24 74	 mov	 DWORD PTR id$[rsp], eax
  0009f	33 c0		 xor	 eax, eax
  000a1	85 c0		 test	 eax, eax
  000a3	0f 85 72 ff ff
	ff		 jne	 $LN4@shrdhdrtrc

; 2653 :     MSGBUF( buf, "%2.2x", cmd );

  000a9	0f b6 44 24 60	 movzx	 eax, BYTE PTR cmd$[rsp]
  000ae	44 8b c8	 mov	 r9d, eax
  000b1	4c 8d 05 00 00
	00 00		 lea	 r8, OFFSET FLAT:$SG170490
  000b8	ba 04 00 00 00	 mov	 edx, 4
  000bd	48 8d 8c 24 98
	00 00 00	 lea	 rcx, QWORD PTR buf$[rsp]
  000c5	ff 15 00 00 00
	00		 call	 QWORD PTR __imp_w32_snprintf

; 2654 :     SHRDTRACE( "%-18s : %s(%2.2x) %2.2x dev %4.4x id %d len %d%s%s",

  000cb	48 83 bc 24 c8
	00 00 00 00	 cmp	 QWORD PTR msg2$[rsp], 0
  000d4	74 12		 je	 SHORT $LN6@shrdhdrtrc
  000d6	48 8b 84 24 c8
	00 00 00	 mov	 rax, QWORD PTR msg2$[rsp]
  000de	48 89 84 24 88
	00 00 00	 mov	 QWORD PTR tv90[rsp], rax
  000e6	eb 0f		 jmp	 SHORT $LN7@shrdhdrtrc
$LN6@shrdhdrtrc:
  000e8	48 8d 05 00 00
	00 00		 lea	 rax, OFFSET FLAT:$SG170491
  000ef	48 89 84 24 88
	00 00 00	 mov	 QWORD PTR tv90[rsp], rax
$LN7@shrdhdrtrc:
  000f7	48 83 bc 24 c8
	00 00 00 00	 cmp	 QWORD PTR msg2$[rsp], 0
  00100	74 11		 je	 SHORT $LN8@shrdhdrtrc
  00102	48 8d 05 00 00
	00 00		 lea	 rax, OFFSET FLAT:$SG170492
  00109	48 89 84 24 90
	00 00 00	 mov	 QWORD PTR tv93[rsp], rax
  00111	eb 0f		 jmp	 SHORT $LN9@shrdhdrtrc
$LN8@shrdhdrtrc:
  00113	48 8d 05 00 00
	00 00		 lea	 rax, OFFSET FLAT:$SG170493
  0011a	48 89 84 24 90
	00 00 00	 mov	 QWORD PTR tv93[rsp], rax
$LN9@shrdhdrtrc:
  00122	0f b7 44 24 64	 movzx	 eax, WORD PTR devnum$[rsp]
  00127	89 44 24 78	 mov	 DWORD PTR tv129[rsp], eax
  0012b	0f b6 4c 24 61	 movzx	 ecx, BYTE PTR code$[rsp]
  00130	89 4c 24 7c	 mov	 DWORD PTR tv131[rsp], ecx
  00134	0f b6 54 24 60	 movzx	 edx, BYTE PTR cmd$[rsp]
  00139	89 94 24 80 00
	00 00		 mov	 DWORD PTR tv133[rsp], edx
  00140	0f b6 4c 24 60	 movzx	 ecx, BYTE PTR cmd$[rsp]
  00145	e8 00 00 00 00	 call	 shrdcmd2str
  0014a	48 8b 8c 24 88
	00 00 00	 mov	 rcx, QWORD PTR tv90[rsp]
  00152	48 89 4c 24 50	 mov	 QWORD PTR [rsp+80], rcx
  00157	48 8b 8c 24 90
	00 00 00	 mov	 rcx, QWORD PTR tv93[rsp]
  0015f	48 89 4c 24 48	 mov	 QWORD PTR [rsp+72], rcx
  00164	8b 4c 24 70	 mov	 ecx, DWORD PTR len$[rsp]
  00168	89 4c 24 40	 mov	 DWORD PTR [rsp+64], ecx
  0016c	8b 4c 24 74	 mov	 ecx, DWORD PTR id$[rsp]
  00170	89 4c 24 38	 mov	 DWORD PTR [rsp+56], ecx
  00174	8b 4c 24 78	 mov	 ecx, DWORD PTR tv129[rsp]
  00178	89 4c 24 30	 mov	 DWORD PTR [rsp+48], ecx
  0017c	8b 4c 24 7c	 mov	 ecx, DWORD PTR tv131[rsp]
  00180	89 4c 24 28	 mov	 DWORD PTR [rsp+40], ecx
  00184	8b 8c 24 80 00
	00 00		 mov	 ecx, DWORD PTR tv133[rsp]
  0018b	89 4c 24 20	 mov	 DWORD PTR [rsp+32], ecx
  0018f	4c 8b c8	 mov	 r9, rax
  00192	4c 8b 84 24 b8
	00 00 00	 mov	 r8, QWORD PTR msg$[rsp]
  0019a	48 8d 15 00 00
	00 00		 lea	 rdx, OFFSET FLAT:$SG170494
  001a1	48 8b 8c 24 b0
	00 00 00	 mov	 rcx, QWORD PTR dev$[rsp]
  001a9	e8 00 00 00 00	 call	 shrdtrc

; 2655 :         msg, shrdcmd2str( cmd ), cmd, code, devnum, id, len,
; 2656 :         msg2 ? " " : "", msg2 ? msg2 : "" );
; 2657 : }

  001ae	48 81 c4 a8 00
	00 00		 add	 rsp, 168		; 000000a8H
  001b5	c3		 ret	 0
shrdhdrtrc ENDP
_TEXT	ENDS
; Function compile flags: /Odtp
; File C:\papa\MyGit\hyperion-zvector\shared.c
_TEXT	SEGMENT
ix$ = 96
dev$ = 104
cmd$ = 112
csock$ = 116
rc$ = 120
flag$ = 124
id$ = 128
devnum$ = 132
maxfd$ = 136
tv310 = 140
tv316 = 144
tv338 = 148
tv344 = 152
tv689 = 156
tv695 = 160
shdr$1 = 168
shdr$2 = 176
ipaddr$ = 184
tv793 = 192
len$ = 196
tv352 = 200
tv357 = 204
tv788 = 208
buf$ = 216
tv203 = 224
wait$ = 232
now$ = 240
tv515 = 248
tv815 = 256
tv814 = 264
selset$ = 272
threadname$ = 8480
hdr$ = 8496
__$ArrayPad$ = 74048
psock$ = 74080
serverConnect PROC

; 2352 : {

  00000	48 89 4c 24 08	 mov	 QWORD PTR [rsp+8], rcx
  00005	57		 push	 rdi
  00006	b8 50 21 01 00	 mov	 eax, 74064		; 00012150H
  0000b	e8 00 00 00 00	 call	 __chkstk
  00010	48 2b e0	 sub	 rsp, rax
  00013	48 8b 05 00 00
	00 00		 mov	 rax, QWORD PTR __security_cookie
  0001a	48 33 c4	 xor	 rax, rsp
  0001d	48 89 84 24 40
	21 01 00	 mov	 QWORD PTR __$ArrayPad$[rsp], rax

; 2353 : int             csock;                  /* Connection socket         */
; 2354 : int             rc;                     /* Return code               */
; 2355 : BYTE            cmd;                    /* Request command           */
; 2356 : BYTE            flag;                   /* Request flag              */
; 2357 : U16             devnum;                 /* Request device number     */
; 2358 : int             id;                     /* Request id                */
; 2359 : int             len;                    /* Request data length       */
; 2360 : int             ix;                     /* Client index              */
; 2361 : DEVBLK         *dev=NULL;               /* -> Device block           */

  00025	48 c7 44 24 68
	00 00 00 00	 mov	 QWORD PTR dev$[rsp], 0

; 2362 : time_t          now;                    /* Current time              */
; 2363 : fd_set          selset;                 /* Read bit map for select   */
; 2364 : int             maxfd;                  /* Max fd for select         */
; 2365 : struct timeval  wait;                   /* Wait time for select      */
; 2366 : BYTE            hdr[SHRD_HDR_SIZE + 65536];  /* Header + buffer      */
; 2367 : BYTE           *buf = hdr + SHRD_HDR_SIZE;   /* Buffer               */

  0002e	48 8d 84 24 38
	21 00 00	 lea	 rax, QWORD PTR hdr$[rsp+8]
  00036	48 89 84 24 d8
	00 00 00	 mov	 QWORD PTR buf$[rsp], rax

; 2368 : char           *ipaddr = NULL;          /* IP addr of connected peer */

  0003e	48 c7 84 24 b8
	00 00 00 00 00
	00 00		 mov	 QWORD PTR ipaddr$[rsp], 0

; 2369 : char            threadname[16] = {0};

  0004a	48 8d 84 24 20
	21 00 00	 lea	 rax, QWORD PTR threadname$[rsp]
  00052	48 8b f8	 mov	 rdi, rax
  00055	33 c0		 xor	 eax, eax
  00057	b9 10 00 00 00	 mov	 ecx, 16
  0005c	f3 aa		 rep stosb

; 2370 : 
; 2371 :     // We are (or will be) the "dev->shrdtid" thread...
; 2372 : 
; 2373 :     csock = *(int*)psock;

  0005e	48 8b 84 24 60
	21 01 00	 mov	 rax, QWORD PTR psock$[rsp]
  00066	8b 00		 mov	 eax, DWORD PTR [rax]
  00068	89 44 24 74	 mov	 DWORD PTR csock$[rsp], eax

; 2374 :     free( psock );

  0006c	48 8b 8c 24 60
	21 01 00	 mov	 rcx, QWORD PTR psock$[rsp]
  00074	ff 15 00 00 00
	00		 call	 QWORD PTR __imp_free

; 2375 :     ipaddr = clientip( csock );

  0007a	8b 4c 24 74	 mov	 ecx, DWORD PTR csock$[rsp]
  0007e	e8 00 00 00 00	 call	 clientip
  00083	48 89 84 24 b8
	00 00 00	 mov	 QWORD PTR ipaddr$[rsp], rax

; 2376 : 
; 2377 :     SHRDTRACE( "server connect %s sock %d", ipaddr, csock );

  0008b	44 8b 4c 24 74	 mov	 r9d, DWORD PTR csock$[rsp]
  00090	4c 8b 84 24 b8
	00 00 00	 mov	 r8, QWORD PTR ipaddr$[rsp]
  00098	48 8d 15 00 00
	00 00		 lea	 rdx, OFFSET FLAT:$SG170385
  0009f	48 8b 4c 24 68	 mov	 rcx, QWORD PTR dev$[rsp]
  000a4	e8 00 00 00 00	 call	 shrdtrc

; 2378 : 
; 2379 :     rc = recvData( csock, hdr, buf, 65536, 1 );

  000a9	c7 44 24 20 01
	00 00 00	 mov	 DWORD PTR [rsp+32], 1
  000b1	41 b9 00 00 01
	00		 mov	 r9d, 65536		; 00010000H
  000b7	4c 8b 84 24 d8
	00 00 00	 mov	 r8, QWORD PTR buf$[rsp]
  000bf	48 8d 94 24 30
	21 00 00	 lea	 rdx, QWORD PTR hdr$[rsp]
  000c7	8b 4c 24 74	 mov	 ecx, DWORD PTR csock$[rsp]
  000cb	e8 00 00 00 00	 call	 recvData
  000d0	89 44 24 78	 mov	 DWORD PTR rc$[rsp], eax

; 2380 :     if (rc < 0)

  000d4	83 7c 24 78 00	 cmp	 DWORD PTR rc$[rsp], 0
  000d9	7d 65		 jge	 SHORT $LN16@serverConn

; 2381 :     {
; 2382 :         // "Shared: connect to IP %s failed"
; 2383 :         WRMSG( HHC00732, "E", ipaddr );

  000db	b9 01 00 00 00	 mov	 ecx, 1
  000e0	ff 15 00 00 00
	00		 call	 QWORD PTR __imp___acrt_iob_func
  000e6	48 8b 8c 24 b8
	00 00 00	 mov	 rcx, QWORD PTR ipaddr$[rsp]
  000ee	48 89 4c 24 38	 mov	 QWORD PTR [rsp+56], rcx
  000f3	48 8d 0d 00 00
	00 00		 lea	 rcx, OFFSET FLAT:$SG170387
  000fa	48 89 4c 24 30	 mov	 QWORD PTR [rsp+48], rcx
  000ff	48 8d 0d 00 00
	00 00		 lea	 rcx, OFFSET FLAT:$SG170388
  00106	48 89 4c 24 28	 mov	 QWORD PTR [rsp+40], rcx
  0010b	48 89 44 24 20	 mov	 QWORD PTR [rsp+32], rax
  00110	41 b9 03 00 00
	00		 mov	 r9d, 3
  00116	4c 8d 05 00 00
	00 00		 lea	 r8, OFFSET FLAT:$SG170389
  0011d	ba 4f 09 00 00	 mov	 edx, 2383		; 0000094fH
  00122	48 8d 0d 00 00
	00 00		 lea	 rcx, OFFSET FLAT:$SG170390
  00129	ff 15 00 00 00
	00		 call	 QWORD PTR __imp_fwritemsg

; 2384 :         close_socket( csock );

  0012f	8b 4c 24 74	 mov	 ecx, DWORD PTR csock$[rsp]
  00133	ff 15 00 00 00
	00		 call	 QWORD PTR __imp_w32_close_socket

; 2385 :         return NULL;

  00139	33 c0		 xor	 eax, eax
  0013b	e9 e7 0f 00 00	 jmp	 $LN1@serverConn
$LN16@serverConn:
$LN4@serverConn:

; 2386 :     }
; 2387 : 
; 2388 :     SHRD_GET_HDR( hdr, cmd, flag, devnum, id, len );

  00140	48 8d 84 24 30
	21 00 00	 lea	 rax, QWORD PTR hdr$[rsp]
  00148	48 89 84 24 a8
	00 00 00	 mov	 QWORD PTR shdr$1[rsp], rax
  00150	48 8b 84 24 a8
	00 00 00	 mov	 rax, QWORD PTR shdr$1[rsp]
  00158	0f b6 00	 movzx	 eax, BYTE PTR [rax]
  0015b	88 44 24 70	 mov	 BYTE PTR cmd$[rsp], al
  0015f	48 8b 84 24 a8
	00 00 00	 mov	 rax, QWORD PTR shdr$1[rsp]
  00167	0f b6 40 01	 movzx	 eax, BYTE PTR [rax+1]
  0016b	88 44 24 7c	 mov	 BYTE PTR flag$[rsp], al
  0016f	48 8b 84 24 a8
	00 00 00	 mov	 rax, QWORD PTR shdr$1[rsp]
  00177	48 83 c0 02	 add	 rax, 2
  0017b	48 8b c8	 mov	 rcx, rax
  0017e	e8 00 00 00 00	 call	 fetch_hw_noswap
  00183	0f b7 c8	 movzx	 ecx, ax
  00186	e8 00 00 00 00	 call	 _byteswap_ushort
  0018b	66 89 84 24 84
	00 00 00	 mov	 WORD PTR devnum$[rsp], ax
  00193	48 8b 84 24 a8
	00 00 00	 mov	 rax, QWORD PTR shdr$1[rsp]
  0019b	48 83 c0 04	 add	 rax, 4
  0019f	48 8b c8	 mov	 rcx, rax
  001a2	e8 00 00 00 00	 call	 fetch_hw_noswap
  001a7	0f b7 c8	 movzx	 ecx, ax
  001aa	e8 00 00 00 00	 call	 _byteswap_ushort
  001af	0f b7 c0	 movzx	 eax, ax
  001b2	89 84 24 c4 00
	00 00		 mov	 DWORD PTR len$[rsp], eax
  001b9	48 8b 84 24 a8
	00 00 00	 mov	 rax, QWORD PTR shdr$1[rsp]
  001c1	48 83 c0 06	 add	 rax, 6
  001c5	48 8b c8	 mov	 rcx, rax
  001c8	e8 00 00 00 00	 call	 fetch_hw_noswap
  001cd	0f b7 c8	 movzx	 ecx, ax
  001d0	e8 00 00 00 00	 call	 _byteswap_ushort
  001d5	0f b7 c0	 movzx	 eax, ax
  001d8	89 84 24 80 00
	00 00		 mov	 DWORD PTR id$[rsp], eax
  001df	33 c0		 xor	 eax, eax
  001e1	85 c0		 test	 eax, eax
  001e3	0f 85 57 ff ff
	ff		 jne	 $LN4@serverConn

; 2389 : 
; 2390 :     /* Error if not a connect request */
; 2391 :     if (id == 0 && cmd != SHRD_CONNECT)

  001e9	83 bc 24 80 00
	00 00 00	 cmp	 DWORD PTR id$[rsp], 0
  001f1	75 46		 jne	 SHORT $LN17@serverConn
  001f3	0f b6 44 24 70	 movzx	 eax, BYTE PTR cmd$[rsp]
  001f8	3d e0 00 00 00	 cmp	 eax, 224		; 000000e0H
  001fd	74 3a		 je	 SHORT $LN17@serverConn

; 2392 :     {
; 2393 :         serverError( NULL, -csock, SHRD_ERROR_NOTCONN, cmd,

  001ff	0f b6 44 24 70	 movzx	 eax, BYTE PTR cmd$[rsp]
  00204	8b 4c 24 74	 mov	 ecx, DWORD PTR csock$[rsp]
  00208	f7 d9		 neg	 ecx
  0020a	48 8d 15 00 00
	00 00		 lea	 rdx, OFFSET FLAT:$SG170392
  00211	48 89 54 24 20	 mov	 QWORD PTR [rsp+32], rdx
  00216	44 8b c8	 mov	 r9d, eax
  00219	41 b8 f3 00 00
	00		 mov	 r8d, 243		; 000000f3H
  0021f	8b d1		 mov	 edx, ecx
  00221	33 c9		 xor	 ecx, ecx
  00223	e8 00 00 00 00	 call	 serverError

; 2394 :                      "not a connect request" );
; 2395 :         close_socket( csock );

  00228	8b 4c 24 74	 mov	 ecx, DWORD PTR csock$[rsp]
  0022c	ff 15 00 00 00
	00		 call	 QWORD PTR __imp_w32_close_socket

; 2396 :         return NULL;

  00232	33 c0		 xor	 eax, eax
  00234	e9 ee 0e 00 00	 jmp	 $LN1@serverConn
$LN17@serverConn:

; 2397 :     }
; 2398 : 
; 2399 :     /* Locate the device */
; 2400 :     if (!(dev = findDevice( devnum )))

  00239	0f b7 8c 24 84
	00 00 00	 movzx	 ecx, WORD PTR devnum$[rsp]
  00241	e8 00 00 00 00	 call	 findDevice
  00246	48 89 44 24 68	 mov	 QWORD PTR dev$[rsp], rax
  0024b	48 83 7c 24 68
	00		 cmp	 QWORD PTR dev$[rsp], 0
  00251	75 3a		 jne	 SHORT $LN18@serverConn

; 2401 :     {
; 2402 :         serverError( NULL, -csock, SHRD_ERROR_NODEVICE, cmd,

  00253	0f b6 44 24 70	 movzx	 eax, BYTE PTR cmd$[rsp]
  00258	8b 4c 24 74	 mov	 ecx, DWORD PTR csock$[rsp]
  0025c	f7 d9		 neg	 ecx
  0025e	48 8d 15 00 00
	00 00		 lea	 rdx, OFFSET FLAT:$SG170394
  00265	48 89 54 24 20	 mov	 QWORD PTR [rsp+32], rdx
  0026a	44 8b c8	 mov	 r9d, eax
  0026d	41 b8 f7 00 00
	00		 mov	 r8d, 247		; 000000f7H
  00273	8b d1		 mov	 edx, ecx
  00275	33 c9		 xor	 ecx, ecx
  00277	e8 00 00 00 00	 call	 serverError

; 2403 :                      "device not found" );
; 2404 :         close_socket( csock );

  0027c	8b 4c 24 74	 mov	 ecx, DWORD PTR csock$[rsp]
  00280	ff 15 00 00 00
	00		 call	 QWORD PTR __imp_w32_close_socket

; 2405 :         return NULL;

  00286	33 c0		 xor	 eax, eax
  00288	e9 9a 0e 00 00	 jmp	 $LN1@serverConn
$LN18@serverConn:

; 2406 :     }
; 2407 : 
; 2408 :     /* Obtain the device lock */
; 2409 :     obtain_lock( &dev->lock );

  0028d	48 8b 44 24 68	 mov	 rax, QWORD PTR dev$[rsp]
  00292	48 83 c0 38	 add	 rax, 56			; 00000038H
  00296	48 8d 15 00 00
	00 00		 lea	 rdx, OFFSET FLAT:$SG170395
  0029d	48 8b c8	 mov	 rcx, rax
  002a0	ff 15 00 00 00
	00		 call	 QWORD PTR __imp_hthread_obtain_lock

; 2410 : 
; 2411 :     /* Find an available slot for the connection */
; 2412 :     if ((rc = serverLocate( dev, id, &ix )) >= 0)

  002a6	4c 8d 44 24 60	 lea	 r8, QWORD PTR ix$[rsp]
  002ab	8b 94 24 80 00
	00 00		 mov	 edx, DWORD PTR id$[rsp]
  002b2	48 8b 4c 24 68	 mov	 rcx, QWORD PTR dev$[rsp]
  002b7	e8 00 00 00 00	 call	 serverLocate
  002bc	89 44 24 78	 mov	 DWORD PTR rc$[rsp], eax
  002c0	83 7c 24 78 00	 cmp	 DWORD PTR rc$[rsp], 0
  002c5	7c 53		 jl	 SHORT $LN19@serverConn

; 2413 :     {
; 2414 :         release_lock( &dev->lock );

  002c7	48 8b 44 24 68	 mov	 rax, QWORD PTR dev$[rsp]
  002cc	48 83 c0 38	 add	 rax, 56			; 00000038H
  002d0	48 8d 15 00 00
	00 00		 lea	 rdx, OFFSET FLAT:$SG170397
  002d7	48 8b c8	 mov	 rcx, rax
  002da	ff 15 00 00 00
	00		 call	 QWORD PTR __imp_hthread_release_lock

; 2415 :         serverError( NULL, -csock, SHRD_ERROR_NODEVICE, cmd,

  002e0	0f b6 44 24 70	 movzx	 eax, BYTE PTR cmd$[rsp]
  002e5	8b 4c 24 74	 mov	 ecx, DWORD PTR csock$[rsp]
  002e9	f7 d9		 neg	 ecx
  002eb	48 8d 15 00 00
	00 00		 lea	 rdx, OFFSET FLAT:$SG170398
  002f2	48 89 54 24 20	 mov	 QWORD PTR [rsp+32], rdx
  002f7	44 8b c8	 mov	 r9d, eax
  002fa	41 b8 f7 00 00
	00		 mov	 r8d, 247		; 000000f7H
  00300	8b d1		 mov	 edx, ecx
  00302	33 c9		 xor	 ecx, ecx
  00304	e8 00 00 00 00	 call	 serverError

; 2416 :                      "already connected" );
; 2417 :         close_socket( csock );

  00309	8b 4c 24 74	 mov	 ecx, DWORD PTR csock$[rsp]
  0030d	ff 15 00 00 00
	00		 call	 QWORD PTR __imp_w32_close_socket

; 2418 :         return NULL;

  00313	33 c0		 xor	 eax, eax
  00315	e9 0d 0e 00 00	 jmp	 $LN1@serverConn
$LN19@serverConn:

; 2419 :     }
; 2420 : 
; 2421 :     /* Error if no available slot */
; 2422 :     if (ix < 0)

  0031a	83 7c 24 60 00	 cmp	 DWORD PTR ix$[rsp], 0
  0031f	7d 53		 jge	 SHORT $LN20@serverConn

; 2423 :     {
; 2424 :         release_lock( &dev->lock );

  00321	48 8b 44 24 68	 mov	 rax, QWORD PTR dev$[rsp]
  00326	48 83 c0 38	 add	 rax, 56			; 00000038H
  0032a	48 8d 15 00 00
	00 00		 lea	 rdx, OFFSET FLAT:$SG170400
  00331	48 8b c8	 mov	 rcx, rax
  00334	ff 15 00 00 00
	00		 call	 QWORD PTR __imp_hthread_release_lock

; 2425 :         serverError( NULL, -csock, SHRD_ERROR_NOTAVAIL, cmd,

  0033a	0f b6 44 24 70	 movzx	 eax, BYTE PTR cmd$[rsp]
  0033f	8b 4c 24 74	 mov	 ecx, DWORD PTR csock$[rsp]
  00343	f7 d9		 neg	 ecx
  00345	48 8d 15 00 00
	00 00		 lea	 rdx, OFFSET FLAT:$SG170401
  0034c	48 89 54 24 20	 mov	 QWORD PTR [rsp+32], rdx
  00351	44 8b c8	 mov	 r9d, eax
  00354	41 b8 f4 00 00
	00		 mov	 r8d, 244		; 000000f4H
  0035a	8b d1		 mov	 edx, ecx
  0035c	33 c9		 xor	 ecx, ecx
  0035e	e8 00 00 00 00	 call	 serverError

; 2426 :                      "too many connections" );
; 2427 :         close_socket( csock );

  00363	8b 4c 24 74	 mov	 ecx, DWORD PTR csock$[rsp]
  00367	ff 15 00 00 00
	00		 call	 QWORD PTR __imp_w32_close_socket

; 2428 :         return NULL;

  0036d	33 c0		 xor	 eax, eax
  0036f	e9 b3 0d 00 00	 jmp	 $LN1@serverConn
$LN20@serverConn:

; 2429 :     }
; 2430 : 
; 2431 :     /* Obtain SHRD block */
; 2432 :     if (!(dev->shrd[ix] = calloc( sizeof( SHRD ), 1 )))

  00374	ba 01 00 00 00	 mov	 edx, 1
  00379	b9 78 00 00 00	 mov	 ecx, 120		; 00000078H
  0037e	ff 15 00 00 00
	00		 call	 QWORD PTR __imp_calloc
  00384	48 89 84 24 e0
	00 00 00	 mov	 QWORD PTR tv203[rsp], rax
  0038c	48 63 44 24 60	 movsxd	 rax, DWORD PTR ix$[rsp]
  00391	48 8b 4c 24 68	 mov	 rcx, QWORD PTR dev$[rsp]
  00396	48 8b 94 24 e0
	00 00 00	 mov	 rdx, QWORD PTR tv203[rsp]
  0039e	48 89 94 c1 60
	06 00 00	 mov	 QWORD PTR [rcx+rax*8+1632], rdx
  003a6	48 83 bc 24 e0
	00 00 00 00	 cmp	 QWORD PTR tv203[rsp], 0
  003af	75 53		 jne	 SHORT $LN21@serverConn

; 2433 :     {
; 2434 :         release_lock( &dev->lock );

  003b1	48 8b 44 24 68	 mov	 rax, QWORD PTR dev$[rsp]
  003b6	48 83 c0 38	 add	 rax, 56			; 00000038H
  003ba	48 8d 15 00 00
	00 00		 lea	 rdx, OFFSET FLAT:$SG170403
  003c1	48 8b c8	 mov	 rcx, rax
  003c4	ff 15 00 00 00
	00		 call	 QWORD PTR __imp_hthread_release_lock

; 2435 :         serverError( NULL, -csock, SHRD_ERROR_NOMEM, cmd,

  003ca	0f b6 44 24 70	 movzx	 eax, BYTE PTR cmd$[rsp]
  003cf	8b 4c 24 74	 mov	 ecx, DWORD PTR csock$[rsp]
  003d3	f7 d9		 neg	 ecx
  003d5	48 8d 15 00 00
	00 00		 lea	 rdx, OFFSET FLAT:$SG170404
  003dc	48 89 54 24 20	 mov	 QWORD PTR [rsp+32], rdx
  003e1	44 8b c8	 mov	 r9d, eax
  003e4	41 b8 f5 00 00
	00		 mov	 r8d, 245		; 000000f5H
  003ea	8b d1		 mov	 edx, ecx
  003ec	33 c9		 xor	 ecx, ecx
  003ee	e8 00 00 00 00	 call	 serverError

; 2436 :                      "calloc() failure" );
; 2437 :         close_socket( csock );

  003f3	8b 4c 24 74	 mov	 ecx, DWORD PTR csock$[rsp]
  003f7	ff 15 00 00 00
	00		 call	 QWORD PTR __imp_w32_close_socket

; 2438 :         return NULL;

  003fd	33 c0		 xor	 eax, eax
  003ff	e9 23 0d 00 00	 jmp	 $LN1@serverConn
$LN21@serverConn:

; 2439 :     }
; 2440 : 
; 2441 :     /* Initialize the SHRD block */
; 2442 :     dev->shrd[ix]->pending = 1;

  00404	48 63 44 24 60	 movsxd	 rax, DWORD PTR ix$[rsp]
  00409	48 8b 4c 24 68	 mov	 rcx, QWORD PTR dev$[rsp]
  0040e	48 8b 84 c1 60
	06 00 00	 mov	 rax, QWORD PTR [rcx+rax*8+1632]
  00416	8b 40 24	 mov	 eax, DWORD PTR [rax+36]
  00419	83 c8 01	 or	 eax, 1
  0041c	48 63 4c 24 60	 movsxd	 rcx, DWORD PTR ix$[rsp]
  00421	48 8b 54 24 68	 mov	 rdx, QWORD PTR dev$[rsp]
  00426	48 8b 8c ca 60
	06 00 00	 mov	 rcx, QWORD PTR [rdx+rcx*8+1632]
  0042e	89 41 24	 mov	 DWORD PTR [rcx+36], eax

; 2443 :     dev->shrd[ix]->havehdr = 1;

  00431	48 63 44 24 60	 movsxd	 rax, DWORD PTR ix$[rsp]
  00436	48 8b 4c 24 68	 mov	 rcx, QWORD PTR dev$[rsp]
  0043b	48 8b 84 c1 60
	06 00 00	 mov	 rax, QWORD PTR [rcx+rax*8+1632]
  00443	8b 40 24	 mov	 eax, DWORD PTR [rax+36]
  00446	83 c8 04	 or	 eax, 4
  00449	48 63 4c 24 60	 movsxd	 rcx, DWORD PTR ix$[rsp]
  0044e	48 8b 54 24 68	 mov	 rdx, QWORD PTR dev$[rsp]
  00453	48 8b 8c ca 60
	06 00 00	 mov	 rcx, QWORD PTR [rdx+rcx*8+1632]
  0045b	89 41 24	 mov	 DWORD PTR [rcx+36], eax

; 2444 :     if (id == 0) id = serverId( dev );

  0045e	83 bc 24 80 00
	00 00 00	 cmp	 DWORD PTR id$[rsp], 0
  00466	75 11		 jne	 SHORT $LN22@serverConn
  00468	48 8b 4c 24 68	 mov	 rcx, QWORD PTR dev$[rsp]
  0046d	e8 00 00 00 00	 call	 serverId
  00472	89 84 24 80 00
	00 00		 mov	 DWORD PTR id$[rsp], eax
$LN22@serverConn:

; 2445 :     dev->shrd[ix]->id      = id;

  00479	48 63 44 24 60	 movsxd	 rax, DWORD PTR ix$[rsp]
  0047e	48 8b 4c 24 68	 mov	 rcx, QWORD PTR dev$[rsp]
  00483	48 8b 84 c1 60
	06 00 00	 mov	 rax, QWORD PTR [rcx+rax*8+1632]
  0048b	8b 8c 24 80 00
	00 00		 mov	 ecx, DWORD PTR id$[rsp]
  00492	89 08		 mov	 DWORD PTR [rax], ecx

; 2446 :     dev->shrd[ix]->fd      = csock;

  00494	48 63 44 24 60	 movsxd	 rax, DWORD PTR ix$[rsp]
  00499	48 8b 4c 24 68	 mov	 rcx, QWORD PTR dev$[rsp]
  0049e	48 8b 84 c1 60
	06 00 00	 mov	 rax, QWORD PTR [rcx+rax*8+1632]
  004a6	8b 4c 24 74	 mov	 ecx, DWORD PTR csock$[rsp]
  004aa	89 48 04	 mov	 DWORD PTR [rax+4], ecx

; 2447 :     dev->shrd[ix]->ipaddr  = strdup(ipaddr);

  004ad	48 8b 8c 24 b8
	00 00 00	 mov	 rcx, QWORD PTR ipaddr$[rsp]
  004b5	ff 15 00 00 00
	00		 call	 QWORD PTR __imp_strdup
  004bb	48 63 4c 24 60	 movsxd	 rcx, DWORD PTR ix$[rsp]
  004c0	48 8b 54 24 68	 mov	 rdx, QWORD PTR dev$[rsp]
  004c5	48 8b 8c ca 60
	06 00 00	 mov	 rcx, QWORD PTR [rdx+rcx*8+1632]
  004cd	48 89 41 08	 mov	 QWORD PTR [rcx+8], rax

; 2448 :     dev->shrd[ix]->time    = time (NULL);

  004d1	33 c9		 xor	 ecx, ecx
  004d3	e8 00 00 00 00	 call	 time
  004d8	48 63 4c 24 60	 movsxd	 rcx, DWORD PTR ix$[rsp]
  004dd	48 8b 54 24 68	 mov	 rdx, QWORD PTR dev$[rsp]
  004e2	48 8b 8c ca 60
	06 00 00	 mov	 rcx, QWORD PTR [rdx+rcx*8+1632]
  004ea	48 89 41 10	 mov	 QWORD PTR [rcx+16], rax

; 2449 :     dev->shrd[ix]->purgen  = -1;

  004ee	48 63 44 24 60	 movsxd	 rax, DWORD PTR ix$[rsp]
  004f3	48 8b 4c 24 68	 mov	 rcx, QWORD PTR dev$[rsp]
  004f8	48 8b 84 c1 60
	06 00 00	 mov	 rax, QWORD PTR [rcx+rax*8+1632]
  00500	c7 40 30 ff ff
	ff ff		 mov	 DWORD PTR [rax+48], -1

; 2450 :     dev->shrdconn++;

  00507	48 8b 44 24 68	 mov	 rax, QWORD PTR dev$[rsp]
  0050c	8b 80 58 06 00
	00		 mov	 eax, DWORD PTR [rax+1624]
  00512	ff c0		 inc	 eax
  00514	48 8b 4c 24 68	 mov	 rcx, QWORD PTR dev$[rsp]
  00519	89 81 58 06 00
	00		 mov	 DWORD PTR [rcx+1624], eax
$LN7@serverConn:

; 2451 :     SHRD_SET_HDR( dev->shrd[ix]->hdr, cmd, flag, devnum, id, len );

  0051f	48 63 44 24 60	 movsxd	 rax, DWORD PTR ix$[rsp]
  00524	48 8b 4c 24 68	 mov	 rcx, QWORD PTR dev$[rsp]
  00529	48 8b 84 c1 60
	06 00 00	 mov	 rax, QWORD PTR [rcx+rax*8+1632]
  00531	48 83 c0 28	 add	 rax, 40			; 00000028H
  00535	48 89 84 24 b0
	00 00 00	 mov	 QWORD PTR shdr$2[rsp], rax
  0053d	48 8b 84 24 b0
	00 00 00	 mov	 rax, QWORD PTR shdr$2[rsp]
  00545	0f b6 4c 24 70	 movzx	 ecx, BYTE PTR cmd$[rsp]
  0054a	88 08		 mov	 BYTE PTR [rax], cl
  0054c	48 8b 84 24 b0
	00 00 00	 mov	 rax, QWORD PTR shdr$2[rsp]
  00554	0f b6 4c 24 7c	 movzx	 ecx, BYTE PTR flag$[rsp]
  00559	88 48 01	 mov	 BYTE PTR [rax+1], cl
  0055c	0f b7 8c 24 84
	00 00 00	 movzx	 ecx, WORD PTR devnum$[rsp]
  00564	e8 00 00 00 00	 call	 _byteswap_ushort
  00569	48 8b 8c 24 b0
	00 00 00	 mov	 rcx, QWORD PTR shdr$2[rsp]
  00571	48 83 c1 02	 add	 rcx, 2
  00575	0f b7 d0	 movzx	 edx, ax
  00578	e8 00 00 00 00	 call	 store_hw_noswap
  0057d	0f b7 8c 24 c4
	00 00 00	 movzx	 ecx, WORD PTR len$[rsp]
  00585	e8 00 00 00 00	 call	 _byteswap_ushort
  0058a	48 8b 8c 24 b0
	00 00 00	 mov	 rcx, QWORD PTR shdr$2[rsp]
  00592	48 83 c1 04	 add	 rcx, 4
  00596	0f b7 d0	 movzx	 edx, ax
  00599	e8 00 00 00 00	 call	 store_hw_noswap
  0059e	0f b7 8c 24 80
	00 00 00	 movzx	 ecx, WORD PTR id$[rsp]
  005a6	e8 00 00 00 00	 call	 _byteswap_ushort
  005ab	48 8b 8c 24 b0
	00 00 00	 mov	 rcx, QWORD PTR shdr$2[rsp]
  005b3	48 83 c1 06	 add	 rcx, 6
  005b7	0f b7 d0	 movzx	 edx, ax
  005ba	e8 00 00 00 00	 call	 store_hw_noswap
  005bf	33 c0		 xor	 eax, eax
  005c1	85 c0		 test	 eax, eax
  005c3	0f 85 56 ff ff
	ff		 jne	 $LN7@serverConn

; 2452 : 
; 2453 :     if (MLVL( VERBOSE ))

  005c9	48 8b 05 00 00
	00 00		 mov	 rax, QWORD PTR __imp_sysblk
  005d0	8b 80 80 75 01
	00		 mov	 eax, DWORD PTR [rax+95616]
  005d6	25 00 00 00 80	 and	 eax, -2147483648	; 80000000H
  005db	85 c0		 test	 eax, eax
  005dd	0f 84 c1 00 00
	00		 je	 $LN23@serverConn

; 2454 :         // "%1d:%04X Shared: %s connected id %d"
; 2455 :         WRMSG( HHC00733, "I", LCSS_DEVNUM, ipaddr, id );

  005e3	48 83 7c 24 68
	00		 cmp	 QWORD PTR dev$[rsp], 0
  005e9	74 12		 je	 SHORT $LN49@serverConn
  005eb	48 8b 44 24 68	 mov	 rax, QWORD PTR dev$[rsp]
  005f0	0f b7 40 48	 movzx	 eax, WORD PTR [rax+72]
  005f4	89 84 24 8c 00
	00 00		 mov	 DWORD PTR tv310[rsp], eax
  005fb	eb 0b		 jmp	 SHORT $LN50@serverConn
$LN49@serverConn:
  005fd	c7 84 24 8c 00
	00 00 00 00 00
	00		 mov	 DWORD PTR tv310[rsp], 0
$LN50@serverConn:
  00608	48 83 7c 24 68
	00		 cmp	 QWORD PTR dev$[rsp], 0
  0060e	74 14		 je	 SHORT $LN51@serverConn
  00610	48 8b 44 24 68	 mov	 rax, QWORD PTR dev$[rsp]
  00615	0f b7 40 44	 movzx	 eax, WORD PTR [rax+68]
  00619	d1 f8		 sar	 eax, 1
  0061b	89 84 24 90 00
	00 00		 mov	 DWORD PTR tv316[rsp], eax
  00622	eb 0b		 jmp	 SHORT $LN52@serverConn
$LN51@serverConn:
  00624	c7 84 24 90 00
	00 00 00 00 00
	00		 mov	 DWORD PTR tv316[rsp], 0
$LN52@serverConn:
  0062f	b9 01 00 00 00	 mov	 ecx, 1
  00634	ff 15 00 00 00
	00		 call	 QWORD PTR __imp___acrt_iob_func
  0063a	8b 8c 24 80 00
	00 00		 mov	 ecx, DWORD PTR id$[rsp]
  00641	89 4c 24 50	 mov	 DWORD PTR [rsp+80], ecx
  00645	48 8b 8c 24 b8
	00 00 00	 mov	 rcx, QWORD PTR ipaddr$[rsp]
  0064d	48 89 4c 24 48	 mov	 QWORD PTR [rsp+72], rcx
  00652	8b 8c 24 8c 00
	00 00		 mov	 ecx, DWORD PTR tv310[rsp]
  00659	89 4c 24 40	 mov	 DWORD PTR [rsp+64], ecx
  0065d	8b 8c 24 90 00
	00 00		 mov	 ecx, DWORD PTR tv316[rsp]
  00664	89 4c 24 38	 mov	 DWORD PTR [rsp+56], ecx
  00668	48 8d 0d 00 00
	00 00		 lea	 rcx, OFFSET FLAT:$SG170407
  0066f	48 89 4c 24 30	 mov	 QWORD PTR [rsp+48], rcx
  00674	48 8d 0d 00 00
	00 00		 lea	 rcx, OFFSET FLAT:$SG170408
  0067b	48 89 4c 24 28	 mov	 QWORD PTR [rsp+40], rcx
  00680	48 89 44 24 20	 mov	 QWORD PTR [rsp+32], rax
  00685	41 b9 03 00 00
	00		 mov	 r9d, 3
  0068b	4c 8d 05 00 00
	00 00		 lea	 r8, OFFSET FLAT:$SG170409
  00692	ba 97 09 00 00	 mov	 edx, 2455		; 00000997H
  00697	48 8d 0d 00 00
	00 00		 lea	 rcx, OFFSET FLAT:$SG170410
  0069e	ff 15 00 00 00
	00		 call	 QWORD PTR __imp_fwritemsg
$LN23@serverConn:

; 2456 : 
; 2457 :     /* Return if device thread already active */
; 2458 :     if (dev->shrdtid)

  006a4	48 8b 44 24 68	 mov	 rax, QWORD PTR dev$[rsp]
  006a9	83 b8 50 06 00
	00 00		 cmp	 DWORD PTR [rax+1616], 0
  006b0	74 20		 je	 SHORT $LN24@serverConn

; 2459 :     {
; 2460 :         release_lock( &dev->lock );

  006b2	48 8b 44 24 68	 mov	 rax, QWORD PTR dev$[rsp]
  006b7	48 83 c0 38	 add	 rax, 56			; 00000038H
  006bb	48 8d 15 00 00
	00 00		 lea	 rdx, OFFSET FLAT:$SG170412
  006c2	48 8b c8	 mov	 rcx, rax
  006c5	ff 15 00 00 00
	00		 call	 QWORD PTR __imp_hthread_release_lock

; 2461 :         return NULL;

  006cb	33 c0		 xor	 eax, eax
  006cd	e9 55 0a 00 00	 jmp	 $LN1@serverConn
$LN24@serverConn:

; 2462 :     }
; 2463 : 
; 2464 :     /* This thread will be the shared device thread (dev->shrdtid) */
; 2465 : 
; 2466 :     dev->shrdtid = thread_id();

  006d2	ff 15 00 00 00
	00		 call	 QWORD PTR __imp_fthread_self
  006d8	48 8b 4c 24 68	 mov	 rcx, QWORD PTR dev$[rsp]
  006dd	89 81 50 06 00
	00		 mov	 DWORD PTR [rcx+1616], eax

; 2467 : 
; 2468 :     MSGBUF( threadname, "shrd dev %1d:%04X", LCSS_DEVNUM );

  006e3	48 83 7c 24 68
	00		 cmp	 QWORD PTR dev$[rsp], 0
  006e9	74 12		 je	 SHORT $LN53@serverConn
  006eb	48 8b 44 24 68	 mov	 rax, QWORD PTR dev$[rsp]
  006f0	0f b7 40 48	 movzx	 eax, WORD PTR [rax+72]
  006f4	89 84 24 94 00
	00 00		 mov	 DWORD PTR tv338[rsp], eax
  006fb	eb 0b		 jmp	 SHORT $LN54@serverConn
$LN53@serverConn:
  006fd	c7 84 24 94 00
	00 00 00 00 00
	00		 mov	 DWORD PTR tv338[rsp], 0
$LN54@serverConn:
  00708	48 83 7c 24 68
	00		 cmp	 QWORD PTR dev$[rsp], 0
  0070e	74 14		 je	 SHORT $LN55@serverConn
  00710	48 8b 44 24 68	 mov	 rax, QWORD PTR dev$[rsp]
  00715	0f b7 40 44	 movzx	 eax, WORD PTR [rax+68]
  00719	d1 f8		 sar	 eax, 1
  0071b	89 84 24 98 00
	00 00		 mov	 DWORD PTR tv344[rsp], eax
  00722	eb 0b		 jmp	 SHORT $LN56@serverConn
$LN55@serverConn:
  00724	c7 84 24 98 00
	00 00 00 00 00
	00		 mov	 DWORD PTR tv344[rsp], 0
$LN56@serverConn:
  0072f	8b 84 24 94 00
	00 00		 mov	 eax, DWORD PTR tv338[rsp]
  00736	89 44 24 20	 mov	 DWORD PTR [rsp+32], eax
  0073a	44 8b 8c 24 98
	00 00 00	 mov	 r9d, DWORD PTR tv344[rsp]
  00742	4c 8d 05 00 00
	00 00		 lea	 r8, OFFSET FLAT:$SG170413
  00749	ba 10 00 00 00	 mov	 edx, 16
  0074e	48 8d 8c 24 20
	21 00 00	 lea	 rcx, QWORD PTR threadname$[rsp]
  00756	ff 15 00 00 00
	00		 call	 QWORD PTR __imp_w32_snprintf

; 2469 :     if (MLVL( VERBOSE ))

  0075c	48 8b 05 00 00
	00 00		 mov	 rax, QWORD PTR __imp_sysblk
  00763	8b 80 80 75 01
	00		 mov	 eax, DWORD PTR [rax+95616]
  00769	25 00 00 00 80	 and	 eax, -2147483648	; 80000000H
  0076e	85 c0		 test	 eax, eax
  00770	0f 84 93 00 00
	00		 je	 $LN25@serverConn

; 2470 :         LOG_THREAD_BEGIN( threadname  );

  00776	ff 15 00 00 00
	00		 call	 QWORD PTR __imp_fthread_self
  0077c	48 8d 15 00 00
	00 00		 lea	 rdx, OFFSET FLAT:$SG170415
  00783	8b c8		 mov	 ecx, eax
  00785	ff 15 00 00 00
	00		 call	 QWORD PTR __imp_hthread_get_thread_prio
  0078b	89 84 24 c8 00
	00 00		 mov	 DWORD PTR tv352[rsp], eax
  00792	ff 15 00 00 00
	00		 call	 QWORD PTR __imp_fthread_self
  00798	89 84 24 cc 00
	00 00		 mov	 DWORD PTR tv357[rsp], eax
  0079f	b9 01 00 00 00	 mov	 ecx, 1
  007a4	ff 15 00 00 00
	00		 call	 QWORD PTR __imp___acrt_iob_func
  007aa	48 8d 8c 24 20
	21 00 00	 lea	 rcx, QWORD PTR threadname$[rsp]
  007b2	48 89 4c 24 48	 mov	 QWORD PTR [rsp+72], rcx
  007b7	8b 8c 24 c8 00
	00 00		 mov	 ecx, DWORD PTR tv352[rsp]
  007be	89 4c 24 40	 mov	 DWORD PTR [rsp+64], ecx
  007c2	8b 8c 24 cc 00
	00 00		 mov	 ecx, DWORD PTR tv357[rsp]
  007c9	89 4c 24 38	 mov	 DWORD PTR [rsp+56], ecx
  007cd	48 8d 0d 00 00
	00 00		 lea	 rcx, OFFSET FLAT:$SG170416
  007d4	48 89 4c 24 30	 mov	 QWORD PTR [rsp+48], rcx
  007d9	48 8d 0d 00 00
	00 00		 lea	 rcx, OFFSET FLAT:$SG170417
  007e0	48 89 4c 24 28	 mov	 QWORD PTR [rsp+40], rcx
  007e5	48 89 44 24 20	 mov	 QWORD PTR [rsp+32], rax
  007ea	41 b9 03 00 00
	00		 mov	 r9d, 3
  007f0	4c 8d 05 00 00
	00 00		 lea	 r8, OFFSET FLAT:$SG170418
  007f7	ba a6 09 00 00	 mov	 edx, 2470		; 000009a6H
  007fc	48 8d 0d 00 00
	00 00		 lea	 rcx, OFFSET FLAT:$SG170419
  00803	ff 15 00 00 00
	00		 call	 QWORD PTR __imp_fwritemsg
$LN25@serverConn:
$LN65@serverConn:
$LN64@serverConn:
$LN63@serverConn:
$LN62@serverConn:
$LN61@serverConn:
$LN8@serverConn:

; 2471 : 
; 2472 :     /* Keep looping while there are still clients connected to our device */
; 2473 :     while (dev->shrdconn)

  00809	48 8b 44 24 68	 mov	 rax, QWORD PTR dev$[rsp]
  0080e	83 b8 58 06 00
	00 00		 cmp	 DWORD PTR [rax+1624], 0
  00815	0f 84 35 08 00
	00		 je	 $LN9@serverConn

; 2474 :     {
; 2475 :         FD_ZERO( &selset );

  0081b	c7 84 24 10 01
	00 00 00 00 00
	00		 mov	 DWORD PTR selset$[rsp], 0

; 2476 :         maxfd = -1;

  00826	c7 84 24 88 00
	00 00 ff ff ff
	ff		 mov	 DWORD PTR maxfd$[rsp], -1

; 2477 : 
; 2478 :         /* Get the current time */
; 2479 :         now = time( NULL );

  00831	33 c9		 xor	 ecx, ecx
  00833	e8 00 00 00 00	 call	 time
  00838	48 89 84 24 f0
	00 00 00	 mov	 QWORD PTR now$[rsp], rax

; 2480 : 
; 2481 :         /* For each remote system connected to our device... */
; 2482 :         for (ix = 0; ix < SHARED_MAX_SYS; ix++)

  00840	c7 44 24 60 00
	00 00 00	 mov	 DWORD PTR ix$[rsp], 0
  00848	eb 0a		 jmp	 SHORT $LN12@serverConn
$LN10@serverConn:
  0084a	8b 44 24 60	 mov	 eax, DWORD PTR ix$[rsp]
  0084e	ff c0		 inc	 eax
  00850	89 44 24 60	 mov	 DWORD PTR ix$[rsp], eax
$LN12@serverConn:
  00854	83 7c 24 60 08	 cmp	 DWORD PTR ix$[rsp], 8
  00859	0f 8d 0d 02 00
	00		 jge	 $LN11@serverConn

; 2483 :         {
; 2484 :             /* Is there a client at this slot? */
; 2485 :             if (dev->shrd[ix])

  0085f	48 63 44 24 60	 movsxd	 rax, DWORD PTR ix$[rsp]
  00864	48 8b 4c 24 68	 mov	 rcx, QWORD PTR dev$[rsp]
  00869	48 83 bc c1 60
	06 00 00 00	 cmp	 QWORD PTR [rcx+rax*8+1632], 0
  00872	0f 84 ef 01 00
	00		 je	 $LN26@serverConn

; 2486 :             {
; 2487 :                 /* Stop as soon as we find a pending request */
; 2488 :                 if (dev->shrd[ix]->pending && !dev->shrd[ix]->waiting)

  00878	48 63 44 24 60	 movsxd	 rax, DWORD PTR ix$[rsp]
  0087d	48 8b 4c 24 68	 mov	 rcx, QWORD PTR dev$[rsp]
  00882	48 8b 84 c1 60
	06 00 00	 mov	 rax, QWORD PTR [rcx+rax*8+1632]
  0088a	8b 40 24	 mov	 eax, DWORD PTR [rax+36]
  0088d	83 e0 01	 and	 eax, 1
  00890	85 c0		 test	 eax, eax
  00892	74 23		 je	 SHORT $LN27@serverConn
  00894	48 63 44 24 60	 movsxd	 rax, DWORD PTR ix$[rsp]
  00899	48 8b 4c 24 68	 mov	 rcx, QWORD PTR dev$[rsp]
  0089e	48 8b 84 c1 60
	06 00 00	 mov	 rax, QWORD PTR [rcx+rax*8+1632]
  008a6	8b 40 24	 mov	 eax, DWORD PTR [rax+36]
  008a9	d1 e8		 shr	 eax, 1
  008ab	83 e0 01	 and	 eax, 1
  008ae	85 c0		 test	 eax, eax
  008b0	75 05		 jne	 SHORT $LN27@serverConn

; 2489 :                     break; // (go process pending request)

  008b2	e9 b5 01 00 00	 jmp	 $LN11@serverConn
$LN27@serverConn:

; 2490 : 
; 2491 :                 /* Disconnect if not a valid socket */
; 2492 :                 if (!socket_is_socket( dev->shrd[ix]->fd ))

  008b7	48 63 44 24 60	 movsxd	 rax, DWORD PTR ix$[rsp]
  008bc	48 8b 4c 24 68	 mov	 rcx, QWORD PTR dev$[rsp]
  008c1	48 8b 84 c1 60
	06 00 00	 mov	 rax, QWORD PTR [rcx+rax*8+1632]
  008c9	8b 48 04	 mov	 ecx, DWORD PTR [rax+4]
  008cc	ff 15 00 00 00
	00		 call	 QWORD PTR __imp_socket_is_socket
  008d2	85 c0		 test	 eax, eax
  008d4	75 2f		 jne	 SHORT $LN28@serverConn

; 2493 :                     dev->shrd[ix]->disconnect = 1;

  008d6	48 63 44 24 60	 movsxd	 rax, DWORD PTR ix$[rsp]
  008db	48 8b 4c 24 68	 mov	 rcx, QWORD PTR dev$[rsp]
  008e0	48 8b 84 c1 60
	06 00 00	 mov	 rax, QWORD PTR [rcx+rax*8+1632]
  008e8	8b 40 24	 mov	 eax, DWORD PTR [rax+36]
  008eb	83 c8 08	 or	 eax, 8
  008ee	48 63 4c 24 60	 movsxd	 rcx, DWORD PTR ix$[rsp]
  008f3	48 8b 54 24 68	 mov	 rdx, QWORD PTR dev$[rsp]
  008f8	48 8b 8c ca 60
	06 00 00	 mov	 rcx, QWORD PTR [rdx+rcx*8+1632]
  00900	89 41 24	 mov	 DWORD PTR [rcx+36], eax
  00903	eb 73		 jmp	 SHORT $LN29@serverConn
$LN28@serverConn:

; 2494 : 
; 2495 :                 /* See if the connection can be timed out */
; 2496 :                 else if (1
; 2497 :                     && (now - dev->shrd[ix]->time) > SHARED_TIMEOUT
; 2498 :                     && serverDisconnectable( dev, ix )

  00905	33 c0		 xor	 eax, eax
  00907	83 f8 01	 cmp	 eax, 1
  0090a	74 6c		 je	 SHORT $LN30@serverConn
  0090c	48 63 44 24 60	 movsxd	 rax, DWORD PTR ix$[rsp]
  00911	48 8b 4c 24 68	 mov	 rcx, QWORD PTR dev$[rsp]
  00916	48 8b 84 c1 60
	06 00 00	 mov	 rax, QWORD PTR [rcx+rax*8+1632]
  0091e	48 8b 40 10	 mov	 rax, QWORD PTR [rax+16]
  00922	48 8b 8c 24 f0
	00 00 00	 mov	 rcx, QWORD PTR now$[rsp]
  0092a	48 2b c8	 sub	 rcx, rax
  0092d	48 8b c1	 mov	 rax, rcx
  00930	48 83 f8 78	 cmp	 rax, 120		; 00000078H
  00934	7e 42		 jle	 SHORT $LN30@serverConn
  00936	8b 54 24 60	 mov	 edx, DWORD PTR ix$[rsp]
  0093a	48 8b 4c 24 68	 mov	 rcx, QWORD PTR dev$[rsp]
  0093f	e8 00 00 00 00	 call	 serverDisconnectable
  00944	0f b6 c0	 movzx	 eax, al
  00947	85 c0		 test	 eax, eax
  00949	74 2d		 je	 SHORT $LN30@serverConn

; 2499 :                 )
; 2500 :                     dev->shrd[ix]->disconnect = 1;

  0094b	48 63 44 24 60	 movsxd	 rax, DWORD PTR ix$[rsp]
  00950	48 8b 4c 24 68	 mov	 rcx, QWORD PTR dev$[rsp]
  00955	48 8b 84 c1 60
	06 00 00	 mov	 rax, QWORD PTR [rcx+rax*8+1632]
  0095d	8b 40 24	 mov	 eax, DWORD PTR [rax+36]
  00960	83 c8 08	 or	 eax, 8
  00963	48 63 4c 24 60	 movsxd	 rcx, DWORD PTR ix$[rsp]
  00968	48 8b 54 24 68	 mov	 rdx, QWORD PTR dev$[rsp]
  0096d	48 8b 8c ca 60
	06 00 00	 mov	 rcx, QWORD PTR [rdx+rcx*8+1632]
  00975	89 41 24	 mov	 DWORD PTR [rcx+36], eax
$LN30@serverConn:
$LN29@serverConn:

; 2501 : 
; 2502 :                 /* Disconnect if the disconnect bit is set */
; 2503 :                 if (dev->shrd[ix]->disconnect)

  00978	48 63 44 24 60	 movsxd	 rax, DWORD PTR ix$[rsp]
  0097d	48 8b 4c 24 68	 mov	 rcx, QWORD PTR dev$[rsp]
  00982	48 8b 84 c1 60
	06 00 00	 mov	 rax, QWORD PTR [rcx+rax*8+1632]
  0098a	8b 40 24	 mov	 eax, DWORD PTR [rax+36]
  0098d	c1 e8 03	 shr	 eax, 3
  00990	83 e0 01	 and	 eax, 1
  00993	85 c0		 test	 eax, eax
  00995	74 13		 je	 SHORT $LN31@serverConn

; 2504 :                     serverDisconnect( dev, ix );

  00997	8b 54 24 60	 mov	 edx, DWORD PTR ix$[rsp]
  0099b	48 8b 4c 24 68	 mov	 rcx, QWORD PTR dev$[rsp]
  009a0	e8 00 00 00 00	 call	 serverDisconnect
  009a5	e9 bd 00 00 00	 jmp	 $LN32@serverConn
$LN31@serverConn:

; 2505 : 
; 2506 :                 /* Otherwise set the fd if not waiting */
; 2507 :                 else if (!dev->shrd[ix]->waiting)

  009aa	48 63 44 24 60	 movsxd	 rax, DWORD PTR ix$[rsp]
  009af	48 8b 4c 24 68	 mov	 rcx, QWORD PTR dev$[rsp]
  009b4	48 8b 84 c1 60
	06 00 00	 mov	 rax, QWORD PTR [rcx+rax*8+1632]
  009bc	8b 40 24	 mov	 eax, DWORD PTR [rax+36]
  009bf	d1 e8		 shr	 eax, 1
  009c1	83 e0 01	 and	 eax, 1
  009c4	85 c0		 test	 eax, eax
  009c6	0f 85 9b 00 00
	00		 jne	 $LN33@serverConn

; 2508 :                 {
; 2509 :                     FD_SET( dev->shrd[ix]->fd, &selset );

  009cc	48 63 44 24 60	 movsxd	 rax, DWORD PTR ix$[rsp]
  009d1	48 8b 4c 24 68	 mov	 rcx, QWORD PTR dev$[rsp]
  009d6	48 8b 84 c1 60
	06 00 00	 mov	 rax, QWORD PTR [rcx+rax*8+1632]
  009de	48 8d 94 24 10
	01 00 00	 lea	 rdx, QWORD PTR selset$[rsp]
  009e6	8b 48 04	 mov	 ecx, DWORD PTR [rax+4]
  009e9	ff 15 00 00 00
	00		 call	 QWORD PTR __imp_w32_FD_SET

; 2510 : 
; 2511 :                     if (dev->shrd[ix]->fd >= maxfd)

  009ef	48 63 44 24 60	 movsxd	 rax, DWORD PTR ix$[rsp]
  009f4	48 8b 4c 24 68	 mov	 rcx, QWORD PTR dev$[rsp]
  009f9	48 8b 84 c1 60
	06 00 00	 mov	 rax, QWORD PTR [rcx+rax*8+1632]
  00a01	8b 8c 24 88 00
	00 00		 mov	 ecx, DWORD PTR maxfd$[rsp]
  00a08	39 48 04	 cmp	 DWORD PTR [rax+4], ecx
  00a0b	7c 1e		 jl	 SHORT $LN34@serverConn

; 2512 :                         maxfd = dev->shrd[ix]->fd + 1;

  00a0d	48 63 44 24 60	 movsxd	 rax, DWORD PTR ix$[rsp]
  00a12	48 8b 4c 24 68	 mov	 rcx, QWORD PTR dev$[rsp]
  00a17	48 8b 84 c1 60
	06 00 00	 mov	 rax, QWORD PTR [rcx+rax*8+1632]
  00a1f	8b 40 04	 mov	 eax, DWORD PTR [rax+4]
  00a22	ff c0		 inc	 eax
  00a24	89 84 24 88 00
	00 00		 mov	 DWORD PTR maxfd$[rsp], eax
$LN34@serverConn:

; 2513 : 
; 2514 :                     SHRDTRACE( "select set %d id=%d",

  00a2b	48 63 44 24 60	 movsxd	 rax, DWORD PTR ix$[rsp]
  00a30	48 8b 4c 24 68	 mov	 rcx, QWORD PTR dev$[rsp]
  00a35	48 8b 84 c1 60
	06 00 00	 mov	 rax, QWORD PTR [rcx+rax*8+1632]
  00a3d	48 63 4c 24 60	 movsxd	 rcx, DWORD PTR ix$[rsp]
  00a42	48 8b 54 24 68	 mov	 rdx, QWORD PTR dev$[rsp]
  00a47	48 8b 8c ca 60
	06 00 00	 mov	 rcx, QWORD PTR [rdx+rcx*8+1632]
  00a4f	44 8b 08	 mov	 r9d, DWORD PTR [rax]
  00a52	44 8b 41 04	 mov	 r8d, DWORD PTR [rcx+4]
  00a56	48 8d 15 00 00
	00 00		 lea	 rdx, OFFSET FLAT:$SG170429
  00a5d	48 8b 4c 24 68	 mov	 rcx, QWORD PTR dev$[rsp]
  00a62	e8 00 00 00 00	 call	 shrdtrc
$LN33@serverConn:
$LN32@serverConn:
$LN26@serverConn:

; 2515 :                         dev->shrd[ix]->fd, dev->shrd[ix]->id );
; 2516 :                 }
; 2517 :             }
; 2518 :         }

  00a67	e9 de fd ff ff	 jmp	 $LN10@serverConn
$LN11@serverConn:

; 2519 : 
; 2520 :         /* Wait for request if all pending requests were processed */
; 2521 :         if (ix >= SHARED_MAX_SYS)

  00a6c	83 7c 24 60 08	 cmp	 DWORD PTR ix$[rsp], 8
  00a71	0f 8c 59 02 00
	00		 jl	 $LN35@serverConn

; 2522 :         {
; 2523 :             /* If our select set is empty, there are not any clients
; 2524 :                connected to our device (and dev->shrdconn SHOULD now
; 2525 :                be zero) and thus we have nothing to do. If we don't
; 2526 :                have any clients connected to our device then we are
; 2527 :                serving no purpose so we should just exit our thread.
; 2528 :             */
; 2529 :             if (maxfd < 0)      // (if nothing to select)

  00a77	83 bc 24 88 00
	00 00 00	 cmp	 DWORD PTR maxfd$[rsp], 0
  00a7f	7d 05		 jge	 SHORT $LN36@serverConn

; 2530 :                 continue;       // (then exit our thread)

  00a81	e9 83 fd ff ff	 jmp	 $LN8@serverConn
$LN36@serverConn:

; 2531 : 
; 2532 :             /* Wait for a client to send us a request */
; 2533 :             wait.tv_sec = SHARED_SELECT_WAIT;

  00a86	c7 84 24 e8 00
	00 00 0a 00 00
	00		 mov	 DWORD PTR wait$[rsp], 10

; 2534 :             wait.tv_usec = 0;

  00a91	c7 84 24 ec 00
	00 00 00 00 00
	00		 mov	 DWORD PTR wait$[rsp+4], 0

; 2535 : 
; 2536 :             release_lock( &dev->lock );

  00a9c	48 8b 44 24 68	 mov	 rax, QWORD PTR dev$[rsp]
  00aa1	48 83 c0 38	 add	 rax, 56			; 00000038H
  00aa5	48 8d 15 00 00
	00 00		 lea	 rdx, OFFSET FLAT:$SG170432
  00aac	48 8b c8	 mov	 rcx, rax
  00aaf	ff 15 00 00 00
	00		 call	 QWORD PTR __imp_hthread_release_lock

; 2537 :             {
; 2538 :                 dev->shrdwait = 1;

  00ab5	48 8b 44 24 68	 mov	 rax, QWORD PTR dev$[rsp]
  00aba	c7 80 5c 06 00
	00 01 00 00 00	 mov	 DWORD PTR [rax+1628], 1

; 2539 :                 {
; 2540 :                     rc = select( maxfd, &selset, NULL, NULL, &wait );

  00ac4	c7 44 24 30 ec
	09 00 00	 mov	 DWORD PTR [rsp+48], 2540 ; 000009ecH
  00acc	48 8d 05 00 00
	00 00		 lea	 rax, OFFSET FLAT:$SG170433
  00ad3	48 89 44 24 28	 mov	 QWORD PTR [rsp+40], rax
  00ad8	48 8d 84 24 e8
	00 00 00	 lea	 rax, QWORD PTR wait$[rsp]
  00ae0	48 89 44 24 20	 mov	 QWORD PTR [rsp+32], rax
  00ae5	45 33 c9	 xor	 r9d, r9d
  00ae8	45 33 c0	 xor	 r8d, r8d
  00aeb	48 8d 94 24 10
	01 00 00	 lea	 rdx, QWORD PTR selset$[rsp]
  00af3	8b 8c 24 88 00
	00 00		 mov	 ecx, DWORD PTR maxfd$[rsp]
  00afa	ff 15 00 00 00
	00		 call	 QWORD PTR __imp_w32_select
  00b00	89 44 24 78	 mov	 DWORD PTR rc$[rsp], eax

; 2541 :                 }
; 2542 :                 dev->shrdwait = 0;

  00b04	48 8b 44 24 68	 mov	 rax, QWORD PTR dev$[rsp]
  00b09	c7 80 5c 06 00
	00 00 00 00 00	 mov	 DWORD PTR [rax+1628], 0

; 2543 :             }
; 2544 :             obtain_lock( &dev->lock );

  00b13	48 8b 44 24 68	 mov	 rax, QWORD PTR dev$[rsp]
  00b18	48 83 c0 38	 add	 rax, 56			; 00000038H
  00b1c	48 8d 15 00 00
	00 00		 lea	 rdx, OFFSET FLAT:$SG170434
  00b23	48 8b c8	 mov	 rcx, rax
  00b26	ff 15 00 00 00
	00		 call	 QWORD PTR __imp_hthread_obtain_lock

; 2545 : 
; 2546 :             SHRDTRACE("select rc %d", rc );

  00b2c	44 8b 44 24 78	 mov	 r8d, DWORD PTR rc$[rsp]
  00b31	48 8d 15 00 00
	00 00		 lea	 rdx, OFFSET FLAT:$SG170435
  00b38	48 8b 4c 24 68	 mov	 rcx, QWORD PTR dev$[rsp]
  00b3d	e8 00 00 00 00	 call	 shrdtrc

; 2547 : 
; 2548 :             /* Timeout; no one has any requests for us at this time */
; 2549 :             if (rc == 0)

  00b42	83 7c 24 78 00	 cmp	 DWORD PTR rc$[rsp], 0
  00b47	75 05		 jne	 SHORT $LN37@serverConn

; 2550 :                 continue;

  00b49	e9 bb fc ff ff	 jmp	 $LN61@serverConn
$LN37@serverConn:

; 2551 : 
; 2552 :             /* Did the select fail? */
; 2553 :             if (rc < 0 )

  00b4e	83 7c 24 78 00	 cmp	 DWORD PTR rc$[rsp], 0
  00b53	0f 8d 9a 00 00
	00		 jge	 $LN38@serverConn

; 2554 :             {
; 2555 :                 /* Try again if temporary error */
; 2556 :                 if (HSO_errno == HSO_EINTR || HSO_errno == HSO_EBADF)

  00b59	ff 15 00 00 00
	00		 call	 QWORD PTR __imp_WSAGetLastError
  00b5f	3d 14 27 00 00	 cmp	 eax, 10004		; 00002714H
  00b64	74 0d		 je	 SHORT $LN40@serverConn
  00b66	ff 15 00 00 00
	00		 call	 QWORD PTR __imp_WSAGetLastError
  00b6c	3d 19 27 00 00	 cmp	 eax, 10009		; 00002719H
  00b71	75 05		 jne	 SHORT $LN39@serverConn
$LN40@serverConn:

; 2557 :                     continue;

  00b73	e9 91 fc ff ff	 jmp	 $LN62@serverConn
$LN39@serverConn:

; 2558 : 
; 2559 :                 // "Shared: error in function %s: %s"
; 2560 :                 WRMSG( HHC00735, "E", "select()", strerror( HSO_errno ));

  00b78	ff 15 00 00 00
	00		 call	 QWORD PTR __imp_WSAGetLastError
  00b7e	8b c8		 mov	 ecx, eax
  00b80	ff 15 00 00 00
	00		 call	 QWORD PTR __imp_w32_strerror
  00b86	48 89 84 24 f8
	00 00 00	 mov	 QWORD PTR tv515[rsp], rax
  00b8e	b9 01 00 00 00	 mov	 ecx, 1
  00b93	ff 15 00 00 00
	00		 call	 QWORD PTR __imp___acrt_iob_func
  00b99	48 8b 8c 24 f8
	00 00 00	 mov	 rcx, QWORD PTR tv515[rsp]
  00ba1	48 89 4c 24 40	 mov	 QWORD PTR [rsp+64], rcx
  00ba6	48 8d 0d 00 00
	00 00		 lea	 rcx, OFFSET FLAT:$SG170440
  00bad	48 89 4c 24 38	 mov	 QWORD PTR [rsp+56], rcx
  00bb2	48 8d 0d 00 00
	00 00		 lea	 rcx, OFFSET FLAT:$SG170441
  00bb9	48 89 4c 24 30	 mov	 QWORD PTR [rsp+48], rcx
  00bbe	48 8d 0d 00 00
	00 00		 lea	 rcx, OFFSET FLAT:$SG170442
  00bc5	48 89 4c 24 28	 mov	 QWORD PTR [rsp+40], rcx
  00bca	48 89 44 24 20	 mov	 QWORD PTR [rsp+32], rax
  00bcf	41 b9 03 00 00
	00		 mov	 r9d, 3
  00bd5	4c 8d 05 00 00
	00 00		 lea	 r8, OFFSET FLAT:$SG170443
  00bdc	ba 00 0a 00 00	 mov	 edx, 2560		; 00000a00H
  00be1	48 8d 0d 00 00
	00 00		 lea	 rcx, OFFSET FLAT:$SG170444
  00be8	ff 15 00 00 00
	00		 call	 QWORD PTR __imp_fwritemsg

; 2561 :                 break; // (exit our thread)

  00bee	e9 5d 04 00 00	 jmp	 $LN9@serverConn
$LN38@serverConn:

; 2562 :             }
; 2563 : 
; 2564 :             /* One or more sockets in our select set is ready, meaning
; 2565 :                one or more remote clients connected to our device has
; 2566 :                a request it needs us to process. Loop through our list
; 2567 :                of connected clients and set the 'pending' request bit
; 2568 :                for each one whose socket that select said is FD_ISSET.
; 2569 :             */
; 2570 :             for (ix = 0; ix < SHARED_MAX_SYS; ix++)

  00bf3	c7 44 24 60 00
	00 00 00	 mov	 DWORD PTR ix$[rsp], 0
  00bfb	eb 0a		 jmp	 SHORT $LN15@serverConn
$LN13@serverConn:
  00bfd	8b 44 24 60	 mov	 eax, DWORD PTR ix$[rsp]
  00c01	ff c0		 inc	 eax
  00c03	89 44 24 60	 mov	 DWORD PTR ix$[rsp], eax
$LN15@serverConn:
  00c07	83 7c 24 60 08	 cmp	 DWORD PTR ix$[rsp], 8
  00c0c	0f 8d b9 00 00
	00		 jge	 $LN14@serverConn

; 2571 :             {
; 2572 :                 if (1
; 2573 :                     /* Is there a client at this slot? */
; 2574 :                     && dev->shrd[ix]
; 2575 :                     /* Did select() say its socket is set? */
; 2576 :                     && FD_ISSET( dev->shrd[ix]->fd, &selset )

  00c12	33 c0		 xor	 eax, eax
  00c14	83 f8 01	 cmp	 eax, 1
  00c17	0f 84 a9 00 00
	00		 je	 $LN41@serverConn
  00c1d	48 63 44 24 60	 movsxd	 rax, DWORD PTR ix$[rsp]
  00c22	48 8b 4c 24 68	 mov	 rcx, QWORD PTR dev$[rsp]
  00c27	48 83 bc c1 60
	06 00 00 00	 cmp	 QWORD PTR [rcx+rax*8+1632], 0
  00c30	0f 84 90 00 00
	00		 je	 $LN41@serverConn
  00c36	48 63 44 24 60	 movsxd	 rax, DWORD PTR ix$[rsp]
  00c3b	48 8b 4c 24 68	 mov	 rcx, QWORD PTR dev$[rsp]
  00c40	48 8b 84 c1 60
	06 00 00	 mov	 rax, QWORD PTR [rcx+rax*8+1632]
  00c48	48 8d 94 24 10
	01 00 00	 lea	 rdx, QWORD PTR selset$[rsp]
  00c50	8b 48 04	 mov	 ecx, DWORD PTR [rax+4]
  00c53	ff 15 00 00 00
	00		 call	 QWORD PTR __imp_w32_FD_ISSET
  00c59	85 c0		 test	 eax, eax
  00c5b	74 69		 je	 SHORT $LN41@serverConn

; 2577 :                 )
; 2578 :                 {
; 2579 :                     /* Indicate this client has a pending request */
; 2580 :                     dev->shrd[ix]->pending = 1;

  00c5d	48 63 44 24 60	 movsxd	 rax, DWORD PTR ix$[rsp]
  00c62	48 8b 4c 24 68	 mov	 rcx, QWORD PTR dev$[rsp]
  00c67	48 8b 84 c1 60
	06 00 00	 mov	 rax, QWORD PTR [rcx+rax*8+1632]
  00c6f	8b 40 24	 mov	 eax, DWORD PTR [rax+36]
  00c72	83 c8 01	 or	 eax, 1
  00c75	48 63 4c 24 60	 movsxd	 rcx, DWORD PTR ix$[rsp]
  00c7a	48 8b 54 24 68	 mov	 rdx, QWORD PTR dev$[rsp]
  00c7f	48 8b 8c ca 60
	06 00 00	 mov	 rcx, QWORD PTR [rdx+rcx*8+1632]
  00c87	89 41 24	 mov	 DWORD PTR [rcx+36], eax

; 2581 :                     SHRDTRACE("select isset %d id=%d",

  00c8a	48 63 44 24 60	 movsxd	 rax, DWORD PTR ix$[rsp]
  00c8f	48 8b 4c 24 68	 mov	 rcx, QWORD PTR dev$[rsp]
  00c94	48 8b 84 c1 60
	06 00 00	 mov	 rax, QWORD PTR [rcx+rax*8+1632]
  00c9c	48 63 4c 24 60	 movsxd	 rcx, DWORD PTR ix$[rsp]
  00ca1	48 8b 54 24 68	 mov	 rdx, QWORD PTR dev$[rsp]
  00ca6	48 8b 8c ca 60
	06 00 00	 mov	 rcx, QWORD PTR [rdx+rcx*8+1632]
  00cae	44 8b 08	 mov	 r9d, DWORD PTR [rax]
  00cb1	44 8b 41 04	 mov	 r8d, DWORD PTR [rcx+4]
  00cb5	48 8d 15 00 00
	00 00		 lea	 rdx, OFFSET FLAT:$SG170446
  00cbc	48 8b 4c 24 68	 mov	 rcx, QWORD PTR dev$[rsp]
  00cc1	e8 00 00 00 00	 call	 shrdtrc
$LN41@serverConn:

; 2582 :                         dev->shrd[ix]->fd, dev->shrd[ix]->id );
; 2583 :                 }
; 2584 :             }

  00cc6	e9 32 ff ff ff	 jmp	 $LN13@serverConn
$LN14@serverConn:

; 2585 :             continue; // (re-iterate to process all pending requests)

  00ccb	e9 39 fb ff ff	 jmp	 $LN63@serverConn
$LN35@serverConn:

; 2586 :         }
; 2587 : 
; 2588 :         /* Found a pending request */
; 2589 :         release_lock( &dev->lock );

  00cd0	48 8b 44 24 68	 mov	 rax, QWORD PTR dev$[rsp]
  00cd5	48 83 c0 38	 add	 rax, 56			; 00000038H
  00cd9	48 8d 15 00 00
	00 00		 lea	 rdx, OFFSET FLAT:$SG170447
  00ce0	48 8b c8	 mov	 rcx, rax
  00ce3	ff 15 00 00 00
	00		 call	 QWORD PTR __imp_hthread_release_lock

; 2590 : 
; 2591 :         SHRDTRACE("select ready %d id=%d",

  00ce9	48 63 44 24 60	 movsxd	 rax, DWORD PTR ix$[rsp]
  00cee	48 8b 4c 24 68	 mov	 rcx, QWORD PTR dev$[rsp]
  00cf3	48 8b 84 c1 60
	06 00 00	 mov	 rax, QWORD PTR [rcx+rax*8+1632]
  00cfb	48 63 4c 24 60	 movsxd	 rcx, DWORD PTR ix$[rsp]
  00d00	48 8b 54 24 68	 mov	 rdx, QWORD PTR dev$[rsp]
  00d05	48 8b 8c ca 60
	06 00 00	 mov	 rcx, QWORD PTR [rdx+rcx*8+1632]
  00d0d	44 8b 08	 mov	 r9d, DWORD PTR [rax]
  00d10	44 8b 41 04	 mov	 r8d, DWORD PTR [rcx+4]
  00d14	48 8d 15 00 00
	00 00		 lea	 rdx, OFFSET FLAT:$SG170448
  00d1b	48 8b 4c 24 68	 mov	 rcx, QWORD PTR dev$[rsp]
  00d20	e8 00 00 00 00	 call	 shrdtrc

; 2592 :             dev->shrd[ix]->fd, dev->shrd[ix]->id );
; 2593 : 
; 2594 :         if (dev->shrd[ix]->havehdr)

  00d25	48 63 44 24 60	 movsxd	 rax, DWORD PTR ix$[rsp]
  00d2a	48 8b 4c 24 68	 mov	 rcx, QWORD PTR dev$[rsp]
  00d2f	48 8b 84 c1 60
	06 00 00	 mov	 rax, QWORD PTR [rcx+rax*8+1632]
  00d37	8b 40 24	 mov	 eax, DWORD PTR [rax+36]
  00d3a	c1 e8 02	 shr	 eax, 2
  00d3d	83 e0 01	 and	 eax, 1
  00d40	85 c0		 test	 eax, eax
  00d42	74 7d		 je	 SHORT $LN42@serverConn

; 2595 :         {
; 2596 :             /* Copy the saved start/resume packet */
; 2597 :             memcpy( hdr, dev->shrd[ix]->hdr, SHRD_HDR_SIZE );

  00d44	48 63 44 24 60	 movsxd	 rax, DWORD PTR ix$[rsp]
  00d49	48 8b 4c 24 68	 mov	 rcx, QWORD PTR dev$[rsp]
  00d4e	48 8b 84 c1 60
	06 00 00	 mov	 rax, QWORD PTR [rcx+rax*8+1632]
  00d56	48 8b 40 28	 mov	 rax, QWORD PTR [rax+40]
  00d5a	48 89 84 24 30
	21 00 00	 mov	 QWORD PTR hdr$[rsp], rax

; 2598 :             dev->shrd[ix]->havehdr = 0;

  00d62	48 63 44 24 60	 movsxd	 rax, DWORD PTR ix$[rsp]
  00d67	48 8b 4c 24 68	 mov	 rcx, QWORD PTR dev$[rsp]
  00d6c	48 8b 84 c1 60
	06 00 00	 mov	 rax, QWORD PTR [rcx+rax*8+1632]
  00d74	8b 40 24	 mov	 eax, DWORD PTR [rax+36]
  00d77	83 e0 fb	 and	 eax, -5			; fffffffbH
  00d7a	48 63 4c 24 60	 movsxd	 rcx, DWORD PTR ix$[rsp]
  00d7f	48 8b 54 24 68	 mov	 rdx, QWORD PTR dev$[rsp]
  00d84	48 8b 8c ca 60
	06 00 00	 mov	 rcx, QWORD PTR [rdx+rcx*8+1632]
  00d8c	89 41 24	 mov	 DWORD PTR [rcx+36], eax

; 2599 :             dev->shrd[ix]->waiting = 0;

  00d8f	48 63 44 24 60	 movsxd	 rax, DWORD PTR ix$[rsp]
  00d94	48 8b 4c 24 68	 mov	 rcx, QWORD PTR dev$[rsp]
  00d99	48 8b 84 c1 60
	06 00 00	 mov	 rax, QWORD PTR [rcx+rax*8+1632]
  00da1	8b 40 24	 mov	 eax, DWORD PTR [rax+36]
  00da4	83 e0 fd	 and	 eax, -3			; fffffffdH
  00da7	48 63 4c 24 60	 movsxd	 rcx, DWORD PTR ix$[rsp]
  00dac	48 8b 54 24 68	 mov	 rdx, QWORD PTR dev$[rsp]
  00db1	48 8b 8c ca 60
	06 00 00	 mov	 rcx, QWORD PTR [rdx+rcx*8+1632]
  00db9	89 41 24	 mov	 DWORD PTR [rcx+36], eax

; 2600 :         }

  00dbc	e9 bb 01 00 00	 jmp	 $LN43@serverConn
$LN42@serverConn:

; 2601 :         else
; 2602 :         {
; 2603 :             /* Read the request packet */
; 2604 :             if ((rc = recvData( dev->shrd[ix]->fd, hdr, buf, 65536, 1 )) < 0)

  00dc1	48 63 44 24 60	 movsxd	 rax, DWORD PTR ix$[rsp]
  00dc6	48 8b 4c 24 68	 mov	 rcx, QWORD PTR dev$[rsp]
  00dcb	48 8b 84 c1 60
	06 00 00	 mov	 rax, QWORD PTR [rcx+rax*8+1632]
  00dd3	c7 44 24 20 01
	00 00 00	 mov	 DWORD PTR [rsp+32], 1
  00ddb	41 b9 00 00 01
	00		 mov	 r9d, 65536		; 00010000H
  00de1	4c 8b 84 24 d8
	00 00 00	 mov	 r8, QWORD PTR buf$[rsp]
  00de9	48 8d 94 24 30
	21 00 00	 lea	 rdx, QWORD PTR hdr$[rsp]
  00df1	8b 48 04	 mov	 ecx, DWORD PTR [rax+4]
  00df4	e8 00 00 00 00	 call	 recvData
  00df9	89 44 24 78	 mov	 DWORD PTR rc$[rsp], eax
  00dfd	83 7c 24 78 00	 cmp	 DWORD PTR rc$[rsp], 0
  00e02	0f 8d 74 01 00
	00		 jge	 $LN44@serverConn

; 2605 :             {
; 2606 :                 // "%1d:%04X Shared: error in receive from %s id %d"
; 2607 :                 WRMSG( HHC00734, "E", LCSS_DEVNUM, dev->shrd[ix]->ipaddr, dev->shrd[ix]->id );

  00e08	48 83 7c 24 68
	00		 cmp	 QWORD PTR dev$[rsp], 0
  00e0e	74 12		 je	 SHORT $LN57@serverConn
  00e10	48 8b 44 24 68	 mov	 rax, QWORD PTR dev$[rsp]
  00e15	0f b7 40 48	 movzx	 eax, WORD PTR [rax+72]
  00e19	89 84 24 9c 00
	00 00		 mov	 DWORD PTR tv689[rsp], eax
  00e20	eb 0b		 jmp	 SHORT $LN58@serverConn
$LN57@serverConn:
  00e22	c7 84 24 9c 00
	00 00 00 00 00
	00		 mov	 DWORD PTR tv689[rsp], 0
$LN58@serverConn:
  00e2d	48 83 7c 24 68
	00		 cmp	 QWORD PTR dev$[rsp], 0
  00e33	74 14		 je	 SHORT $LN59@serverConn
  00e35	48 8b 44 24 68	 mov	 rax, QWORD PTR dev$[rsp]
  00e3a	0f b7 40 44	 movzx	 eax, WORD PTR [rax+68]
  00e3e	d1 f8		 sar	 eax, 1
  00e40	89 84 24 a0 00
	00 00		 mov	 DWORD PTR tv695[rsp], eax
  00e47	eb 0b		 jmp	 SHORT $LN60@serverConn
$LN59@serverConn:
  00e49	c7 84 24 a0 00
	00 00 00 00 00
	00		 mov	 DWORD PTR tv695[rsp], 0
$LN60@serverConn:
  00e54	48 63 44 24 60	 movsxd	 rax, DWORD PTR ix$[rsp]
  00e59	48 8b 4c 24 68	 mov	 rcx, QWORD PTR dev$[rsp]
  00e5e	48 8b 84 c1 60
	06 00 00	 mov	 rax, QWORD PTR [rcx+rax*8+1632]
  00e66	48 89 84 24 00
	01 00 00	 mov	 QWORD PTR tv815[rsp], rax
  00e6e	48 63 4c 24 60	 movsxd	 rcx, DWORD PTR ix$[rsp]
  00e73	48 8b 54 24 68	 mov	 rdx, QWORD PTR dev$[rsp]
  00e78	48 8b 8c ca 60
	06 00 00	 mov	 rcx, QWORD PTR [rdx+rcx*8+1632]
  00e80	48 89 8c 24 08
	01 00 00	 mov	 QWORD PTR tv814[rsp], rcx
  00e88	b9 01 00 00 00	 mov	 ecx, 1
  00e8d	ff 15 00 00 00
	00		 call	 QWORD PTR __imp___acrt_iob_func
  00e93	48 8b 8c 24 00
	01 00 00	 mov	 rcx, QWORD PTR tv815[rsp]
  00e9b	8b 09		 mov	 ecx, DWORD PTR [rcx]
  00e9d	89 4c 24 50	 mov	 DWORD PTR [rsp+80], ecx
  00ea1	48 8b 8c 24 08
	01 00 00	 mov	 rcx, QWORD PTR tv814[rsp]
  00ea9	48 8b 49 08	 mov	 rcx, QWORD PTR [rcx+8]
  00ead	48 89 4c 24 48	 mov	 QWORD PTR [rsp+72], rcx
  00eb2	8b 8c 24 9c 00
	00 00		 mov	 ecx, DWORD PTR tv689[rsp]
  00eb9	89 4c 24 40	 mov	 DWORD PTR [rsp+64], ecx
  00ebd	8b 8c 24 a0 00
	00 00		 mov	 ecx, DWORD PTR tv695[rsp]
  00ec4	89 4c 24 38	 mov	 DWORD PTR [rsp+56], ecx
  00ec8	48 8d 0d 00 00
	00 00		 lea	 rcx, OFFSET FLAT:$SG170452
  00ecf	48 89 4c 24 30	 mov	 QWORD PTR [rsp+48], rcx
  00ed4	48 8d 0d 00 00
	00 00		 lea	 rcx, OFFSET FLAT:$SG170453
  00edb	48 89 4c 24 28	 mov	 QWORD PTR [rsp+40], rcx
  00ee0	48 89 44 24 20	 mov	 QWORD PTR [rsp+32], rax
  00ee5	41 b9 03 00 00
	00		 mov	 r9d, 3
  00eeb	4c 8d 05 00 00
	00 00		 lea	 r8, OFFSET FLAT:$SG170454
  00ef2	ba 2f 0a 00 00	 mov	 edx, 2607		; 00000a2fH
  00ef7	48 8d 0d 00 00
	00 00		 lea	 rcx, OFFSET FLAT:$SG170455
  00efe	ff 15 00 00 00
	00		 call	 QWORD PTR __imp_fwritemsg

; 2608 :                 dev->shrd[ix]->disconnect = 1;

  00f04	48 63 44 24 60	 movsxd	 rax, DWORD PTR ix$[rsp]
  00f09	48 8b 4c 24 68	 mov	 rcx, QWORD PTR dev$[rsp]
  00f0e	48 8b 84 c1 60
	06 00 00	 mov	 rax, QWORD PTR [rcx+rax*8+1632]
  00f16	8b 40 24	 mov	 eax, DWORD PTR [rax+36]
  00f19	83 c8 08	 or	 eax, 8
  00f1c	48 63 4c 24 60	 movsxd	 rcx, DWORD PTR ix$[rsp]
  00f21	48 8b 54 24 68	 mov	 rdx, QWORD PTR dev$[rsp]
  00f26	48 8b 8c ca 60
	06 00 00	 mov	 rcx, QWORD PTR [rdx+rcx*8+1632]
  00f2e	89 41 24	 mov	 DWORD PTR [rcx+36], eax

; 2609 :                 dev->shrd[ix]->pending = 0;

  00f31	48 63 44 24 60	 movsxd	 rax, DWORD PTR ix$[rsp]
  00f36	48 8b 4c 24 68	 mov	 rcx, QWORD PTR dev$[rsp]
  00f3b	48 8b 84 c1 60
	06 00 00	 mov	 rax, QWORD PTR [rcx+rax*8+1632]
  00f43	8b 40 24	 mov	 eax, DWORD PTR [rax+36]
  00f46	83 e0 fe	 and	 eax, -2			; fffffffeH
  00f49	48 63 4c 24 60	 movsxd	 rcx, DWORD PTR ix$[rsp]
  00f4e	48 8b 54 24 68	 mov	 rdx, QWORD PTR dev$[rsp]
  00f53	48 8b 8c ca 60
	06 00 00	 mov	 rcx, QWORD PTR [rdx+rcx*8+1632]
  00f5b	89 41 24	 mov	 DWORD PTR [rcx+36], eax

; 2610 :                 obtain_lock( &dev->lock );

  00f5e	48 8b 44 24 68	 mov	 rax, QWORD PTR dev$[rsp]
  00f63	48 83 c0 38	 add	 rax, 56			; 00000038H
  00f67	48 8d 15 00 00
	00 00		 lea	 rdx, OFFSET FLAT:$SG170456
  00f6e	48 8b c8	 mov	 rcx, rax
  00f71	ff 15 00 00 00
	00		 call	 QWORD PTR __imp_hthread_obtain_lock

; 2611 :                 continue;

  00f77	e9 8d f8 ff ff	 jmp	 $LN64@serverConn
$LN44@serverConn:
$LN43@serverConn:

; 2612 :             }
; 2613 :         }
; 2614 : 
; 2615 :         /* Process the request */
; 2616 :         serverRequest( dev, ix, hdr, buf );

  00f7c	4c 8b 8c 24 d8
	00 00 00	 mov	 r9, QWORD PTR buf$[rsp]
  00f84	4c 8d 84 24 30
	21 00 00	 lea	 r8, QWORD PTR hdr$[rsp]
  00f8c	8b 54 24 60	 mov	 edx, DWORD PTR ix$[rsp]
  00f90	48 8b 4c 24 68	 mov	 rcx, QWORD PTR dev$[rsp]
  00f95	e8 00 00 00 00	 call	 serverRequest

; 2617 : 
; 2618 :         obtain_lock( &dev->lock );

  00f9a	48 8b 44 24 68	 mov	 rax, QWORD PTR dev$[rsp]
  00f9f	48 83 c0 38	 add	 rax, 56			; 00000038H
  00fa3	48 8d 15 00 00
	00 00		 lea	 rdx, OFFSET FLAT:$SG170457
  00faa	48 8b c8	 mov	 rcx, rax
  00fad	ff 15 00 00 00
	00		 call	 QWORD PTR __imp_hthread_obtain_lock

; 2619 : 
; 2620 :         /* If the 'waiting' bit is on then the start/resume request
; 2621 :            failed because the device is busy on some other remote
; 2622 :            system.  We only need to save the header because the data
; 2623 :            is ignored for start/resume.
; 2624 :         */
; 2625 :         if (dev->shrd[ix]->waiting)

  00fb3	48 63 44 24 60	 movsxd	 rax, DWORD PTR ix$[rsp]
  00fb8	48 8b 4c 24 68	 mov	 rcx, QWORD PTR dev$[rsp]
  00fbd	48 8b 84 c1 60
	06 00 00	 mov	 rax, QWORD PTR [rcx+rax*8+1632]
  00fc5	8b 40 24	 mov	 eax, DWORD PTR [rax+36]
  00fc8	d1 e8		 shr	 eax, 1
  00fca	83 e0 01	 and	 eax, 1
  00fcd	85 c0		 test	 eax, eax
  00fcf	74 4d		 je	 SHORT $LN45@serverConn

; 2626 :         {
; 2627 :             memcpy( dev->shrd[ix]->hdr, hdr, SHRD_HDR_SIZE );

  00fd1	48 63 44 24 60	 movsxd	 rax, DWORD PTR ix$[rsp]
  00fd6	48 8b 4c 24 68	 mov	 rcx, QWORD PTR dev$[rsp]
  00fdb	48 8b 84 c1 60
	06 00 00	 mov	 rax, QWORD PTR [rcx+rax*8+1632]
  00fe3	48 8b 8c 24 30
	21 00 00	 mov	 rcx, QWORD PTR hdr$[rsp]
  00feb	48 89 48 28	 mov	 QWORD PTR [rax+40], rcx

; 2628 :             dev->shrd[ix]->havehdr = 1;

  00fef	48 63 44 24 60	 movsxd	 rax, DWORD PTR ix$[rsp]
  00ff4	48 8b 4c 24 68	 mov	 rcx, QWORD PTR dev$[rsp]
  00ff9	48 8b 84 c1 60
	06 00 00	 mov	 rax, QWORD PTR [rcx+rax*8+1632]
  01001	8b 40 24	 mov	 eax, DWORD PTR [rax+36]
  01004	83 c8 04	 or	 eax, 4
  01007	48 63 4c 24 60	 movsxd	 rcx, DWORD PTR ix$[rsp]
  0100c	48 8b 54 24 68	 mov	 rdx, QWORD PTR dev$[rsp]
  01011	48 8b 8c ca 60
	06 00 00	 mov	 rcx, QWORD PTR [rdx+rcx*8+1632]
  01019	89 41 24	 mov	 DWORD PTR [rcx+36], eax

; 2629 :         }

  0101c	eb 2d		 jmp	 SHORT $LN46@serverConn
$LN45@serverConn:

; 2630 :         else
; 2631 :             dev->shrd[ix]->pending = 0;

  0101e	48 63 44 24 60	 movsxd	 rax, DWORD PTR ix$[rsp]
  01023	48 8b 4c 24 68	 mov	 rcx, QWORD PTR dev$[rsp]
  01028	48 8b 84 c1 60
	06 00 00	 mov	 rax, QWORD PTR [rcx+rax*8+1632]
  01030	8b 40 24	 mov	 eax, DWORD PTR [rax+36]
  01033	83 e0 fe	 and	 eax, -2			; fffffffeH
  01036	48 63 4c 24 60	 movsxd	 rcx, DWORD PTR ix$[rsp]
  0103b	48 8b 54 24 68	 mov	 rdx, QWORD PTR dev$[rsp]
  01040	48 8b 8c ca 60
	06 00 00	 mov	 rcx, QWORD PTR [rdx+rcx*8+1632]
  01048	89 41 24	 mov	 DWORD PTR [rcx+36], eax
$LN46@serverConn:

; 2632 : 
; 2633 :     } /* while (dev->shrdconn) */

  0104b	e9 b9 f7 ff ff	 jmp	 $LN65@serverConn
$LN9@serverConn:

; 2634 : 
; 2635 :     dev->shrdtid = 0;

  01050	48 8b 44 24 68	 mov	 rax, QWORD PTR dev$[rsp]
  01055	c7 80 50 06 00
	00 00 00 00 00	 mov	 DWORD PTR [rax+1616], 0

; 2636 :     release_lock( &dev->lock );

  0105f	48 8b 44 24 68	 mov	 rax, QWORD PTR dev$[rsp]
  01064	48 83 c0 38	 add	 rax, 56			; 00000038H
  01068	48 8d 15 00 00
	00 00		 lea	 rdx, OFFSET FLAT:$SG170460
  0106f	48 8b c8	 mov	 rcx, rax
  01072	ff 15 00 00 00
	00		 call	 QWORD PTR __imp_hthread_release_lock

; 2637 : 
; 2638 :     if (MLVL( VERBOSE ))

  01078	48 8b 05 00 00
	00 00		 mov	 rax, QWORD PTR __imp_sysblk
  0107f	8b 80 80 75 01
	00		 mov	 eax, DWORD PTR [rax+95616]
  01085	25 00 00 00 80	 and	 eax, -2147483648	; 80000000H
  0108a	85 c0		 test	 eax, eax
  0108c	0f 84 93 00 00
	00		 je	 $LN47@serverConn

; 2639 :         LOG_THREAD_END( threadname  );

  01092	ff 15 00 00 00
	00		 call	 QWORD PTR __imp_fthread_self
  01098	48 8d 15 00 00
	00 00		 lea	 rdx, OFFSET FLAT:$SG170462
  0109f	8b c8		 mov	 ecx, eax
  010a1	ff 15 00 00 00
	00		 call	 QWORD PTR __imp_hthread_get_thread_prio
  010a7	89 84 24 d0 00
	00 00		 mov	 DWORD PTR tv788[rsp], eax
  010ae	ff 15 00 00 00
	00		 call	 QWORD PTR __imp_fthread_self
  010b4	89 84 24 c0 00
	00 00		 mov	 DWORD PTR tv793[rsp], eax
  010bb	b9 01 00 00 00	 mov	 ecx, 1
  010c0	ff 15 00 00 00
	00		 call	 QWORD PTR __imp___acrt_iob_func
  010c6	48 8d 8c 24 20
	21 00 00	 lea	 rcx, QWORD PTR threadname$[rsp]
  010ce	48 89 4c 24 48	 mov	 QWORD PTR [rsp+72], rcx
  010d3	8b 8c 24 d0 00
	00 00		 mov	 ecx, DWORD PTR tv788[rsp]
  010da	89 4c 24 40	 mov	 DWORD PTR [rsp+64], ecx
  010de	8b 8c 24 c0 00
	00 00		 mov	 ecx, DWORD PTR tv793[rsp]
  010e5	89 4c 24 38	 mov	 DWORD PTR [rsp+56], ecx
  010e9	48 8d 0d 00 00
	00 00		 lea	 rcx, OFFSET FLAT:$SG170463
  010f0	48 89 4c 24 30	 mov	 QWORD PTR [rsp+48], rcx
  010f5	48 8d 0d 00 00
	00 00		 lea	 rcx, OFFSET FLAT:$SG170464
  010fc	48 89 4c 24 28	 mov	 QWORD PTR [rsp+40], rcx
  01101	48 89 44 24 20	 mov	 QWORD PTR [rsp+32], rax
  01106	41 b9 03 00 00
	00		 mov	 r9d, 3
  0110c	4c 8d 05 00 00
	00 00		 lea	 r8, OFFSET FLAT:$SG170465
  01113	ba 4f 0a 00 00	 mov	 edx, 2639		; 00000a4fH
  01118	48 8d 0d 00 00
	00 00		 lea	 rcx, OFFSET FLAT:$SG170466
  0111f	ff 15 00 00 00
	00		 call	 QWORD PTR __imp_fwritemsg
$LN47@serverConn:

; 2640 : 
; 2641 :     return NULL;

  01125	33 c0		 xor	 eax, eax
$LN1@serverConn:

; 2642 : 
; 2643 : } /* serverConnect */

  01127	48 8b 8c 24 40
	21 01 00	 mov	 rcx, QWORD PTR __$ArrayPad$[rsp]
  0112f	48 33 cc	 xor	 rcx, rsp
  01132	e8 00 00 00 00	 call	 __security_check_cookie
  01137	48 81 c4 50 21
	01 00		 add	 rsp, 74064		; 00012150H
  0113e	5f		 pop	 rdi
  0113f	c3		 ret	 0
serverConnect ENDP
_TEXT	ENDS
; Function compile flags: /Odtp
; File C:\papa\MyGit\hyperion-zvector\shared.c
_TEXT	SEGMENT
dev$ = 0
devnum$ = 32
findDevice PROC

; 2339 : {

  00000	66 89 4c 24 08	 mov	 WORD PTR [rsp+8], cx
  00005	48 83 ec 18	 sub	 rsp, 24

; 2340 : DEVBLK      *dev;                       /* -> Device block           */
; 2341 : 
; 2342 :     for (dev = sysblk.firstdev; dev != NULL; dev = dev->nextdev)

  00009	48 8b 05 00 00
	00 00		 mov	 rax, QWORD PTR __imp_sysblk
  00010	48 8b 80 c0 11
	00 00		 mov	 rax, QWORD PTR [rax+4544]
  00017	48 89 04 24	 mov	 QWORD PTR dev$[rsp], rax
  0001b	eb 0c		 jmp	 SHORT $LN4@findDevice
$LN2@findDevice:
  0001d	48 8b 04 24	 mov	 rax, QWORD PTR dev$[rsp]
  00021	48 8b 40 30	 mov	 rax, QWORD PTR [rax+48]
  00025	48 89 04 24	 mov	 QWORD PTR dev$[rsp], rax
$LN4@findDevice:
  00029	48 83 3c 24 00	 cmp	 QWORD PTR dev$[rsp], 0
  0002e	74 15		 je	 SHORT $LN3@findDevice

; 2343 :         if (dev->devnum == devnum) break;

  00030	48 8b 04 24	 mov	 rax, QWORD PTR dev$[rsp]
  00034	0f b7 40 48	 movzx	 eax, WORD PTR [rax+72]
  00038	0f b7 4c 24 20	 movzx	 ecx, WORD PTR devnum$[rsp]
  0003d	3b c1		 cmp	 eax, ecx
  0003f	75 02		 jne	 SHORT $LN5@findDevice
  00041	eb 02		 jmp	 SHORT $LN3@findDevice
$LN5@findDevice:
  00043	eb d8		 jmp	 SHORT $LN2@findDevice
$LN3@findDevice:

; 2344 :     return dev;

  00045	48 8b 04 24	 mov	 rax, QWORD PTR dev$[rsp]

; 2345 : 
; 2346 : } /* findDevice */

  00049	48 83 c4 18	 add	 rsp, 24
  0004d	c3		 ret	 0
findDevice ENDP
_TEXT	ENDS
; Function compile flags: /Odtp
; File C:\papa\MyGit\hyperion-zvector\shared.c
_TEXT	SEGMENT
namelen$ = 32
rc$ = 36
client$ = 40
__$ArrayPad$ = 56
sock$ = 80
clientip PROC

; 2324 : {

  00000	89 4c 24 08	 mov	 DWORD PTR [rsp+8], ecx
  00004	48 83 ec 48	 sub	 rsp, 72			; 00000048H
  00008	48 8b 05 00 00
	00 00		 mov	 rax, QWORD PTR __security_cookie
  0000f	48 33 c4	 xor	 rax, rsp
  00012	48 89 44 24 38	 mov	 QWORD PTR __$ArrayPad$[rsp], rax

; 2325 : int                     rc;             /* Return code               */
; 2326 : struct sockaddr_in      client;         /* Client address structure  */
; 2327 : socklen_t               namelen;        /* Length of client structure*/
; 2328 : 
; 2329 :     namelen = sizeof(client);

  00017	c7 44 24 20 10
	00 00 00	 mov	 DWORD PTR namelen$[rsp], 16

; 2330 :     rc = getpeername (sock, (struct sockaddr *)&client, &namelen);

  0001f	48 63 44 24 50	 movsxd	 rax, DWORD PTR sock$[rsp]
  00024	4c 8d 44 24 20	 lea	 r8, QWORD PTR namelen$[rsp]
  00029	48 8d 54 24 28	 lea	 rdx, QWORD PTR client$[rsp]
  0002e	48 8b c8	 mov	 rcx, rax
  00031	ff 15 00 00 00
	00		 call	 QWORD PTR __imp_getpeername
  00037	89 44 24 24	 mov	 DWORD PTR rc$[rsp], eax

; 2331 :     return inet_ntoa(client.sin_addr);

  0003b	8b 4c 24 2c	 mov	 ecx, DWORD PTR client$[rsp+4]
  0003f	ff 15 00 00 00
	00		 call	 QWORD PTR __imp_inet_ntoa

; 2332 : 
; 2333 : } /* clientip */

  00045	48 8b 4c 24 38	 mov	 rcx, QWORD PTR __$ArrayPad$[rsp]
  0004a	48 33 cc	 xor	 rcx, rsp
  0004d	e8 00 00 00 00	 call	 __security_check_cookie
  00052	48 83 c4 48	 add	 rsp, 72			; 00000048H
  00056	c3		 ret	 0
clientip ENDP
_TEXT	ENDS
; Function compile flags: /Odtp
; File C:\papa\MyGit\hyperion-zvector\shared.c
_TEXT	SEGMENT
i$ = 96
id$ = 100
tv81 = 104
tv87 = 108
tv194 = 112
tv200 = 116
tv75 = 120
tv239 = 128
dev$ = 160
ix$ = 168
serverDisconnect PROC

; 2261 : {

  00000	89 54 24 10	 mov	 DWORD PTR [rsp+16], edx
  00004	48 89 4c 24 08	 mov	 QWORD PTR [rsp+8], rcx
  00009	48 81 ec 98 00
	00 00		 sub	 rsp, 152		; 00000098H

; 2262 :     int id;                             /* Client identifier         */
; 2263 :     int i;                              /* Loop index                */
; 2264 : 
; 2265 :     id = dev->shrd[ix]->id;

  00010	48 63 84 24 a8
	00 00 00	 movsxd	 rax, DWORD PTR ix$[rsp]
  00018	48 8b 8c 24 a0
	00 00 00	 mov	 rcx, QWORD PTR dev$[rsp]
  00020	48 8b 84 c1 60
	06 00 00	 mov	 rax, QWORD PTR [rcx+rax*8+1632]
  00028	8b 00		 mov	 eax, DWORD PTR [rax]
  0002a	89 44 24 64	 mov	 DWORD PTR id$[rsp], eax

; 2266 : 
; 2267 : //FIXME: Handle a disconnected busy client better
; 2268 : //       Perhaps a disconnect timeout value... this will
; 2269 : //       give the client time to reconnect.
; 2270 : 
; 2271 :     /* If the device is active by the client then extricate it.
; 2272 :        This is *not* a good situation */
; 2273 :     if (dev->shioactive == id)

  0002e	48 8b 84 24 a0
	00 00 00	 mov	 rax, QWORD PTR dev$[rsp]
  00036	8b 4c 24 64	 mov	 ecx, DWORD PTR id$[rsp]
  0003a	39 88 e4 05 00
	00		 cmp	 DWORD PTR [rax+1508], ecx
  00040	0f 85 74 02 00
	00		 jne	 $LN5@serverDisc

; 2274 :     {
; 2275 :         // "%1d:%04X Shared: busy client being removed id %d %s"
; 2276 :         WRMSG( HHC00730, "W", LCSS_DEVNUM, id, dev->reserved ? "reserved" : "" );

  00046	48 8b 84 24 a0
	00 00 00	 mov	 rax, QWORD PTR dev$[rsp]
  0004e	8b 80 f8 05 00
	00		 mov	 eax, DWORD PTR [rax+1528]
  00054	c1 e8 14	 shr	 eax, 20
  00057	83 e0 01	 and	 eax, 1
  0005a	85 c0		 test	 eax, eax
  0005c	74 0e		 je	 SHORT $LN14@serverDisc
  0005e	48 8d 05 00 00
	00 00		 lea	 rax, OFFSET FLAT:$SG170275
  00065	48 89 44 24 78	 mov	 QWORD PTR tv75[rsp], rax
  0006a	eb 0c		 jmp	 SHORT $LN15@serverDisc
$LN14@serverDisc:
  0006c	48 8d 05 00 00
	00 00		 lea	 rax, OFFSET FLAT:$SG170276
  00073	48 89 44 24 78	 mov	 QWORD PTR tv75[rsp], rax
$LN15@serverDisc:
  00078	48 83 bc 24 a0
	00 00 00 00	 cmp	 QWORD PTR dev$[rsp], 0
  00081	74 12		 je	 SHORT $LN16@serverDisc
  00083	48 8b 84 24 a0
	00 00 00	 mov	 rax, QWORD PTR dev$[rsp]
  0008b	0f b7 40 48	 movzx	 eax, WORD PTR [rax+72]
  0008f	89 44 24 68	 mov	 DWORD PTR tv81[rsp], eax
  00093	eb 08		 jmp	 SHORT $LN17@serverDisc
$LN16@serverDisc:
  00095	c7 44 24 68 00
	00 00 00	 mov	 DWORD PTR tv81[rsp], 0
$LN17@serverDisc:
  0009d	48 83 bc 24 a0
	00 00 00 00	 cmp	 QWORD PTR dev$[rsp], 0
  000a6	74 14		 je	 SHORT $LN18@serverDisc
  000a8	48 8b 84 24 a0
	00 00 00	 mov	 rax, QWORD PTR dev$[rsp]
  000b0	0f b7 40 44	 movzx	 eax, WORD PTR [rax+68]
  000b4	d1 f8		 sar	 eax, 1
  000b6	89 44 24 6c	 mov	 DWORD PTR tv87[rsp], eax
  000ba	eb 08		 jmp	 SHORT $LN19@serverDisc
$LN18@serverDisc:
  000bc	c7 44 24 6c 00
	00 00 00	 mov	 DWORD PTR tv87[rsp], 0
$LN19@serverDisc:
  000c4	b9 01 00 00 00	 mov	 ecx, 1
  000c9	ff 15 00 00 00
	00		 call	 QWORD PTR __imp___acrt_iob_func
  000cf	48 8b 4c 24 78	 mov	 rcx, QWORD PTR tv75[rsp]
  000d4	48 89 4c 24 50	 mov	 QWORD PTR [rsp+80], rcx
  000d9	8b 4c 24 64	 mov	 ecx, DWORD PTR id$[rsp]
  000dd	89 4c 24 48	 mov	 DWORD PTR [rsp+72], ecx
  000e1	8b 4c 24 68	 mov	 ecx, DWORD PTR tv81[rsp]
  000e5	89 4c 24 40	 mov	 DWORD PTR [rsp+64], ecx
  000e9	8b 4c 24 6c	 mov	 ecx, DWORD PTR tv87[rsp]
  000ed	89 4c 24 38	 mov	 DWORD PTR [rsp+56], ecx
  000f1	48 8d 0d 00 00
	00 00		 lea	 rcx, OFFSET FLAT:$SG170277
  000f8	48 89 4c 24 30	 mov	 QWORD PTR [rsp+48], rcx
  000fd	48 8d 0d 00 00
	00 00		 lea	 rcx, OFFSET FLAT:$SG170278
  00104	48 89 4c 24 28	 mov	 QWORD PTR [rsp+40], rcx
  00109	48 89 44 24 20	 mov	 QWORD PTR [rsp+32], rax
  0010e	41 b9 03 00 00
	00		 mov	 r9d, 3
  00114	4c 8d 05 00 00
	00 00		 lea	 r8, OFFSET FLAT:$SG170279
  0011b	ba e4 08 00 00	 mov	 edx, 2276		; 000008e4H
  00120	48 8d 0d 00 00
	00 00		 lea	 rcx, OFFSET FLAT:$SG170280
  00127	ff 15 00 00 00
	00		 call	 QWORD PTR __imp_fwritemsg

; 2277 : 
; 2278 :         /* Call the I/O release exit if reserved by this client */
; 2279 :         if (dev->reserved && dev->hnd->release)

  0012d	48 8b 84 24 a0
	00 00 00	 mov	 rax, QWORD PTR dev$[rsp]
  00135	8b 80 f8 05 00
	00		 mov	 eax, DWORD PTR [rax+1528]
  0013b	c1 e8 14	 shr	 eax, 20
  0013e	83 e0 01	 and	 eax, 1
  00141	85 c0		 test	 eax, eax
  00143	74 30		 je	 SHORT $LN6@serverDisc
  00145	48 8b 84 24 a0
	00 00 00	 mov	 rax, QWORD PTR dev$[rsp]
  0014d	48 8b 80 90 02
	00 00		 mov	 rax, QWORD PTR [rax+656]
  00154	48 83 78 70 00	 cmp	 QWORD PTR [rax+112], 0
  00159	74 1a		 je	 SHORT $LN6@serverDisc

; 2280 :             (dev->hnd->release) (dev);

  0015b	48 8b 84 24 a0
	00 00 00	 mov	 rax, QWORD PTR dev$[rsp]
  00163	48 8b 80 90 02
	00 00		 mov	 rax, QWORD PTR [rax+656]
  0016a	48 8b 8c 24 a0
	00 00 00	 mov	 rcx, QWORD PTR dev$[rsp]
  00172	ff 50 70	 call	 QWORD PTR [rax+112]
$LN6@serverDisc:

; 2281 : 
; 2282 :         /* Call the channel program end exit */
; 2283 :         if (dev->hnd->end)

  00175	48 8b 84 24 a0
	00 00 00	 mov	 rax, QWORD PTR dev$[rsp]
  0017d	48 8b 80 90 02
	00 00		 mov	 rax, QWORD PTR [rax+656]
  00184	48 83 78 30 00	 cmp	 QWORD PTR [rax+48], 0
  00189	74 1a		 je	 SHORT $LN7@serverDisc

; 2284 :             (dev->hnd->end) (dev);

  0018b	48 8b 84 24 a0
	00 00 00	 mov	 rax, QWORD PTR dev$[rsp]
  00193	48 8b 80 90 02
	00 00		 mov	 rax, QWORD PTR [rax+656]
  0019a	48 8b 8c 24 a0
	00 00 00	 mov	 rcx, QWORD PTR dev$[rsp]
  001a2	ff 50 30	 call	 QWORD PTR [rax+48]
$LN7@serverDisc:

; 2285 : 
; 2286 :         /* Reset any 'waiting' bits */
; 2287 :         for (i = 0; i < SHARED_MAX_SYS; i++)

  001a5	c7 44 24 60 00
	00 00 00	 mov	 DWORD PTR i$[rsp], 0
  001ad	eb 0a		 jmp	 SHORT $LN4@serverDisc
$LN2@serverDisc:
  001af	8b 44 24 60	 mov	 eax, DWORD PTR i$[rsp]
  001b3	ff c0		 inc	 eax
  001b5	89 44 24 60	 mov	 DWORD PTR i$[rsp], eax
$LN4@serverDisc:
  001b9	83 7c 24 60 08	 cmp	 DWORD PTR i$[rsp], 8
  001be	7d 4d		 jge	 SHORT $LN3@serverDisc

; 2288 :             if (dev->shrd[i])

  001c0	48 63 44 24 60	 movsxd	 rax, DWORD PTR i$[rsp]
  001c5	48 8b 8c 24 a0
	00 00 00	 mov	 rcx, QWORD PTR dev$[rsp]
  001cd	48 83 bc c1 60
	06 00 00 00	 cmp	 QWORD PTR [rcx+rax*8+1632], 0
  001d6	74 33		 je	 SHORT $LN8@serverDisc

; 2289 :                 dev->shrd[i]->waiting = 0;

  001d8	48 63 44 24 60	 movsxd	 rax, DWORD PTR i$[rsp]
  001dd	48 8b 8c 24 a0
	00 00 00	 mov	 rcx, QWORD PTR dev$[rsp]
  001e5	48 8b 84 c1 60
	06 00 00	 mov	 rax, QWORD PTR [rcx+rax*8+1632]
  001ed	8b 40 24	 mov	 eax, DWORD PTR [rax+36]
  001f0	83 e0 fd	 and	 eax, -3			; fffffffdH
  001f3	48 63 4c 24 60	 movsxd	 rcx, DWORD PTR i$[rsp]
  001f8	48 8b 94 24 a0
	00 00 00	 mov	 rdx, QWORD PTR dev$[rsp]
  00200	48 8b 8c ca 60
	06 00 00	 mov	 rcx, QWORD PTR [rdx+rcx*8+1632]
  00208	89 41 24	 mov	 DWORD PTR [rcx+36], eax
$LN8@serverDisc:
  0020b	eb a2		 jmp	 SHORT $LN2@serverDisc
$LN3@serverDisc:

; 2290 : 
; 2291 :         /* Make the device available */
; 2292 :         if (dev->suspended) {

  0020d	48 8b 84 24 a0
	00 00 00	 mov	 rax, QWORD PTR dev$[rsp]
  00215	8b 80 f8 05 00
	00		 mov	 eax, DWORD PTR [rax+1528]
  0021b	c1 e8 15	 shr	 eax, 21
  0021e	83 e0 01	 and	 eax, 1
  00221	85 c0		 test	 eax, eax
  00223	74 34		 je	 SHORT $LN9@serverDisc

; 2293 :             dev->shioactive = DEV_SYS_LOCAL;

  00225	48 8b 84 24 a0
	00 00 00	 mov	 rax, QWORD PTR dev$[rsp]
  0022d	c7 80 e4 05 00
	00 ff ff 00 00	 mov	 DWORD PTR [rax+1508], 65535 ; 0000ffffH

; 2294 :             dev->busy = 1;

  00237	48 8b 84 24 a0
	00 00 00	 mov	 rax, QWORD PTR dev$[rsp]
  0023f	8b 80 f8 05 00
	00		 mov	 eax, DWORD PTR [rax+1528]
  00245	0f ba e8 13	 bts	 eax, 19
  00249	48 8b 8c 24 a0
	00 00 00	 mov	 rcx, QWORD PTR dev$[rsp]
  00251	89 81 f8 05 00
	00		 mov	 DWORD PTR [rcx+1528], eax

; 2295 :         }

  00257	eb 32		 jmp	 SHORT $LN10@serverDisc
$LN9@serverDisc:

; 2296 :         else
; 2297 :         {
; 2298 :             dev->shioactive = DEV_SYS_NONE;

  00259	48 8b 84 24 a0
	00 00 00	 mov	 rax, QWORD PTR dev$[rsp]
  00261	c7 80 e4 05 00
	00 00 00 00 00	 mov	 DWORD PTR [rax+1508], 0

; 2299 :             dev->busy = 0;

  0026b	48 8b 84 24 a0
	00 00 00	 mov	 rax, QWORD PTR dev$[rsp]
  00273	8b 80 f8 05 00
	00		 mov	 eax, DWORD PTR [rax+1528]
  00279	0f ba f0 13	 btr	 eax, 19
  0027d	48 8b 8c 24 a0
	00 00 00	 mov	 rcx, QWORD PTR dev$[rsp]
  00285	89 81 f8 05 00
	00		 mov	 DWORD PTR [rcx+1528], eax
$LN10@serverDisc:

; 2300 :         }
; 2301 : 
; 2302 :         /* Notify any waiters */
; 2303 :         if (dev->shiowaiters)

  0028b	48 8b 84 24 a0
	00 00 00	 mov	 rax, QWORD PTR dev$[rsp]
  00293	83 b8 e0 05 00
	00 00		 cmp	 DWORD PTR [rax+1504], 0
  0029a	74 1e		 je	 SHORT $LN11@serverDisc

; 2304 :             signal_condition (&dev->shiocond);

  0029c	48 8b 84 24 a0
	00 00 00	 mov	 rax, QWORD PTR dev$[rsp]
  002a4	48 05 d8 05 00
	00		 add	 rax, 1496		; 000005d8H
  002aa	48 8d 15 00 00
	00 00		 lea	 rdx, OFFSET FLAT:$SG170287
  002b1	48 8b c8	 mov	 rcx, rax
  002b4	ff 15 00 00 00
	00		 call	 QWORD PTR __imp_hthread_signal_condition
$LN11@serverDisc:
$LN5@serverDisc:

; 2305 :     }
; 2306 : 
; 2307 :     if (MLVL( VERBOSE ))

  002ba	48 8b 05 00 00
	00 00		 mov	 rax, QWORD PTR __imp_sysblk
  002c1	8b 80 80 75 01
	00		 mov	 eax, DWORD PTR [rax+95616]
  002c7	25 00 00 00 80	 and	 eax, -2147483648	; 80000000H
  002cc	85 c0		 test	 eax, eax
  002ce	0f 84 dc 00 00
	00		 je	 $LN12@serverDisc

; 2308 :         // "%1d:%04X Shared: %s disconnected id %d"
; 2309 :         WRMSG( HHC00731, "I", LCSS_DEVNUM, dev->shrd[ix]->ipaddr, id );

  002d4	48 83 bc 24 a0
	00 00 00 00	 cmp	 QWORD PTR dev$[rsp], 0
  002dd	74 12		 je	 SHORT $LN20@serverDisc
  002df	48 8b 84 24 a0
	00 00 00	 mov	 rax, QWORD PTR dev$[rsp]
  002e7	0f b7 40 48	 movzx	 eax, WORD PTR [rax+72]
  002eb	89 44 24 70	 mov	 DWORD PTR tv194[rsp], eax
  002ef	eb 08		 jmp	 SHORT $LN21@serverDisc
$LN20@serverDisc:
  002f1	c7 44 24 70 00
	00 00 00	 mov	 DWORD PTR tv194[rsp], 0
$LN21@serverDisc:
  002f9	48 83 bc 24 a0
	00 00 00 00	 cmp	 QWORD PTR dev$[rsp], 0
  00302	74 14		 je	 SHORT $LN22@serverDisc
  00304	48 8b 84 24 a0
	00 00 00	 mov	 rax, QWORD PTR dev$[rsp]
  0030c	0f b7 40 44	 movzx	 eax, WORD PTR [rax+68]
  00310	d1 f8		 sar	 eax, 1
  00312	89 44 24 74	 mov	 DWORD PTR tv200[rsp], eax
  00316	eb 08		 jmp	 SHORT $LN23@serverDisc
$LN22@serverDisc:
  00318	c7 44 24 74 00
	00 00 00	 mov	 DWORD PTR tv200[rsp], 0
$LN23@serverDisc:
  00320	48 63 84 24 a8
	00 00 00	 movsxd	 rax, DWORD PTR ix$[rsp]
  00328	48 8b 8c 24 a0
	00 00 00	 mov	 rcx, QWORD PTR dev$[rsp]
  00330	48 8b 84 c1 60
	06 00 00	 mov	 rax, QWORD PTR [rcx+rax*8+1632]
  00338	48 89 84 24 80
	00 00 00	 mov	 QWORD PTR tv239[rsp], rax
  00340	b9 01 00 00 00	 mov	 ecx, 1
  00345	ff 15 00 00 00
	00		 call	 QWORD PTR __imp___acrt_iob_func
  0034b	8b 4c 24 64	 mov	 ecx, DWORD PTR id$[rsp]
  0034f	89 4c 24 50	 mov	 DWORD PTR [rsp+80], ecx
  00353	48 8b 8c 24 80
	00 00 00	 mov	 rcx, QWORD PTR tv239[rsp]
  0035b	48 8b 49 08	 mov	 rcx, QWORD PTR [rcx+8]
  0035f	48 89 4c 24 48	 mov	 QWORD PTR [rsp+72], rcx
  00364	8b 4c 24 70	 mov	 ecx, DWORD PTR tv194[rsp]
  00368	89 4c 24 40	 mov	 DWORD PTR [rsp+64], ecx
  0036c	8b 4c 24 74	 mov	 ecx, DWORD PTR tv200[rsp]
  00370	89 4c 24 38	 mov	 DWORD PTR [rsp+56], ecx
  00374	48 8d 0d 00 00
	00 00		 lea	 rcx, OFFSET FLAT:$SG170289
  0037b	48 89 4c 24 30	 mov	 QWORD PTR [rsp+48], rcx
  00380	48 8d 0d 00 00
	00 00		 lea	 rcx, OFFSET FLAT:$SG170290
  00387	48 89 4c 24 28	 mov	 QWORD PTR [rsp+40], rcx
  0038c	48 89 44 24 20	 mov	 QWORD PTR [rsp+32], rax
  00391	41 b9 03 00 00
	00		 mov	 r9d, 3
  00397	4c 8d 05 00 00
	00 00		 lea	 r8, OFFSET FLAT:$SG170291
  0039e	ba 05 09 00 00	 mov	 edx, 2309		; 00000905H
  003a3	48 8d 0d 00 00
	00 00		 lea	 rcx, OFFSET FLAT:$SG170292
  003aa	ff 15 00 00 00
	00		 call	 QWORD PTR __imp_fwritemsg
$LN12@serverDisc:

; 2310 : 
; 2311 :     /* Release the SHRD block */
; 2312 :     close_socket (dev->shrd[ix]->fd);

  003b0	48 63 84 24 a8
	00 00 00	 movsxd	 rax, DWORD PTR ix$[rsp]
  003b8	48 8b 8c 24 a0
	00 00 00	 mov	 rcx, QWORD PTR dev$[rsp]
  003c0	48 8b 84 c1 60
	06 00 00	 mov	 rax, QWORD PTR [rcx+rax*8+1632]
  003c8	8b 48 04	 mov	 ecx, DWORD PTR [rax+4]
  003cb	ff 15 00 00 00
	00		 call	 QWORD PTR __imp_w32_close_socket

; 2313 :     free (dev->shrd[ix]->ipaddr);

  003d1	48 63 84 24 a8
	00 00 00	 movsxd	 rax, DWORD PTR ix$[rsp]
  003d9	48 8b 8c 24 a0
	00 00 00	 mov	 rcx, QWORD PTR dev$[rsp]
  003e1	48 8b 84 c1 60
	06 00 00	 mov	 rax, QWORD PTR [rcx+rax*8+1632]
  003e9	48 8b 48 08	 mov	 rcx, QWORD PTR [rax+8]
  003ed	ff 15 00 00 00
	00		 call	 QWORD PTR __imp_free

; 2314 :     free (dev->shrd[ix]);

  003f3	48 63 84 24 a8
	00 00 00	 movsxd	 rax, DWORD PTR ix$[rsp]
  003fb	48 8b 8c 24 a0
	00 00 00	 mov	 rcx, QWORD PTR dev$[rsp]
  00403	48 8b 8c c1 60
	06 00 00	 mov	 rcx, QWORD PTR [rcx+rax*8+1632]
  0040b	ff 15 00 00 00
	00		 call	 QWORD PTR __imp_free

; 2315 :     dev->shrd[ix] = NULL;

  00411	48 63 84 24 a8
	00 00 00	 movsxd	 rax, DWORD PTR ix$[rsp]
  00419	48 8b 8c 24 a0
	00 00 00	 mov	 rcx, QWORD PTR dev$[rsp]
  00421	48 c7 84 c1 60
	06 00 00 00 00
	00 00		 mov	 QWORD PTR [rcx+rax*8+1632], 0

; 2316 : 
; 2317 :     dev->shrdconn--;

  0042d	48 8b 84 24 a0
	00 00 00	 mov	 rax, QWORD PTR dev$[rsp]
  00435	8b 80 58 06 00
	00		 mov	 eax, DWORD PTR [rax+1624]
  0043b	ff c8		 dec	 eax
  0043d	48 8b 8c 24 a0
	00 00 00	 mov	 rcx, QWORD PTR dev$[rsp]
  00445	89 81 58 06 00
	00		 mov	 DWORD PTR [rcx+1624], eax

; 2318 : } /* serverDisconnect */

  0044b	48 81 c4 98 00
	00 00		 add	 rsp, 152		; 00000098H
  00452	c3		 ret	 0
serverDisconnect ENDP
_TEXT	ENDS
; Function compile flags: /Odtp
; File C:\papa\MyGit\hyperion-zvector\shared.c
_TEXT	SEGMENT
tv87 = 0
tv89 = 4
dev$ = 32
ix$ = 40
serverDisconnectable PROC

; 2247 : {

  00000	89 54 24 10	 mov	 DWORD PTR [rsp+16], edx
  00004	48 89 4c 24 08	 mov	 QWORD PTR [rsp+8], rcx
  00009	48 83 ec 18	 sub	 rsp, 24

; 2248 :     return

  0000d	33 c0		 xor	 eax, eax
  0000f	83 f8 01	 cmp	 eax, 1
  00012	74 64		 je	 SHORT $LN3@serverDisc
  00014	48 63 44 24 28	 movsxd	 rax, DWORD PTR ix$[rsp]
  00019	48 8b 4c 24 20	 mov	 rcx, QWORD PTR dev$[rsp]
  0001e	48 8b 84 c1 60
	06 00 00	 mov	 rax, QWORD PTR [rcx+rax*8+1632]
  00026	8b 40 24	 mov	 eax, DWORD PTR [rax+36]
  00029	d1 e8		 shr	 eax, 1
  0002b	83 e0 01	 and	 eax, 1
  0002e	85 c0		 test	 eax, eax
  00030	75 46		 jne	 SHORT $LN3@serverDisc
  00032	48 63 44 24 28	 movsxd	 rax, DWORD PTR ix$[rsp]
  00037	48 8b 4c 24 20	 mov	 rcx, QWORD PTR dev$[rsp]
  0003c	48 8b 84 c1 60
	06 00 00	 mov	 rax, QWORD PTR [rcx+rax*8+1632]
  00044	8b 40 24	 mov	 eax, DWORD PTR [rax+36]
  00047	83 e0 01	 and	 eax, 1
  0004a	85 c0		 test	 eax, eax
  0004c	75 2a		 jne	 SHORT $LN3@serverDisc
  0004e	48 63 44 24 28	 movsxd	 rax, DWORD PTR ix$[rsp]
  00053	48 8b 4c 24 20	 mov	 rcx, QWORD PTR dev$[rsp]
  00058	48 8b 84 c1 60
	06 00 00	 mov	 rax, QWORD PTR [rcx+rax*8+1632]
  00060	48 8b 4c 24 20	 mov	 rcx, QWORD PTR dev$[rsp]
  00065	8b 00		 mov	 eax, DWORD PTR [rax]
  00067	39 81 e4 05 00
	00		 cmp	 DWORD PTR [rcx+1508], eax
  0006d	74 09		 je	 SHORT $LN3@serverDisc
  0006f	c7 04 24 01 00
	00 00		 mov	 DWORD PTR tv87[rsp], 1
  00076	eb 07		 jmp	 SHORT $LN4@serverDisc
$LN3@serverDisc:
  00078	c7 04 24 00 00
	00 00		 mov	 DWORD PTR tv87[rsp], 0
$LN4@serverDisc:
  0007f	83 3c 24 00	 cmp	 DWORD PTR tv87[rsp], 0
  00083	75 0a		 jne	 SHORT $LN5@serverDisc
  00085	c7 44 24 04 00
	00 00 00	 mov	 DWORD PTR tv89[rsp], 0
  0008d	eb 08		 jmp	 SHORT $LN6@serverDisc
$LN5@serverDisc:
  0008f	c7 44 24 04 01
	00 00 00	 mov	 DWORD PTR tv89[rsp], 1
$LN6@serverDisc:
  00097	0f b6 44 24 04	 movzx	 eax, BYTE PTR tv89[rsp]

; 2249 :     (1
; 2250 :         && !dev->shrd[ix]->waiting
; 2251 :         && !dev->shrd[ix]->pending
; 2252 :         && dev->shioactive != dev->shrd[ix]->id
; 2253 :     );
; 2254 : }

  0009c	48 83 c4 18	 add	 rsp, 24
  000a0	c3		 ret	 0
serverDisconnectable ENDP
_TEXT	ENDS
; Function compile flags: /Odtp
; File C:\papa\MyGit\hyperion-zvector\shared.c
_TEXT	SEGMENT
hdrlen$ = 96
code$ = 100
status$ = 101
sock$ = 104
tv170 = 108
tv176 = 112
rc$ = 116
shdr$1 = 120
devnum$ = 128
len$ = 132
sendlen$ = 136
id$ = 140
sendbuf$ = 144
tv162 = 152
cbuf$ = 160
__$ArrayPad$ = 65712
dev$ = 65760
ix$ = 65768
hdr$ = 65776
buf$ = 65784
buflen$ = 65792
serverSend PROC

; 2149 : {

  00000	4c 89 4c 24 20	 mov	 QWORD PTR [rsp+32], r9
  00005	4c 89 44 24 18	 mov	 QWORD PTR [rsp+24], r8
  0000a	89 54 24 10	 mov	 DWORD PTR [rsp+16], edx
  0000e	48 89 4c 24 08	 mov	 QWORD PTR [rsp+8], rcx
  00013	56		 push	 rsi
  00014	57		 push	 rdi
  00015	b8 c8 00 01 00	 mov	 eax, 65736		; 000100c8H
  0001a	e8 00 00 00 00	 call	 __chkstk
  0001f	48 2b e0	 sub	 rsp, rax
  00022	48 8b 05 00 00
	00 00		 mov	 rax, QWORD PTR __security_cookie
  00029	48 33 c4	 xor	 rax, rsp
  0002c	48 89 84 24 b0
	00 01 00	 mov	 QWORD PTR __$ArrayPad$[rsp], rax

; 2150 : int      rc;                            /* Return code               */
; 2151 : int      sock;                          /* Socket number             */
; 2152 : BYTE     code;                          /* Header code               */
; 2153 : BYTE     status;                        /* Header status             */
; 2154 : U16      devnum;                        /* Header device number      */
; 2155 : int      id;                            /* Header identifier         */
; 2156 : int      len;                           /* Header length             */
; 2157 : int      hdrlen;                        /* Header length + other data*/
; 2158 : BYTE    *sendbuf = NULL;                /* Send buffer               */

  00034	48 c7 84 24 90
	00 00 00 00 00
	00 00		 mov	 QWORD PTR sendbuf$[rsp], 0

; 2159 : int      sendlen;                       /* Send length               */
; 2160 : BYTE     cbuf[SHRD_HDR_SIZE + 65536];   /* Combined buffer           */
; 2161 : 
; 2162 :     /* Make buf, buflen consistent if no additional data to be sent  */
; 2163 :     if (buf == NULL) buflen = 0;

  00040	48 83 bc 24 f8
	00 01 00 00	 cmp	 QWORD PTR buf$[rsp], 0
  00049	75 0d		 jne	 SHORT $LN5@serverSend
  0004b	c7 84 24 00 01
	01 00 00 00 00
	00		 mov	 DWORD PTR buflen$[rsp], 0
  00056	eb 16		 jmp	 SHORT $LN6@serverSend
$LN5@serverSend:

; 2164 :     else if (buflen == 0) buf = NULL;

  00058	83 bc 24 00 01
	01 00 00	 cmp	 DWORD PTR buflen$[rsp], 0
  00060	75 0c		 jne	 SHORT $LN7@serverSend
  00062	48 c7 84 24 f8
	00 01 00 00 00
	00 00		 mov	 QWORD PTR buf$[rsp], 0
$LN7@serverSend:
$LN6@serverSend:
$LN4@serverSend:

; 2165 : 
; 2166 :     /* Calculate length of header, may contain additional data */
; 2167 :     SHRD_GET_HDR(hdr, code, status, devnum, id, len);

  0006e	48 8b 84 24 f0
	00 01 00	 mov	 rax, QWORD PTR hdr$[rsp]
  00076	48 89 44 24 78	 mov	 QWORD PTR shdr$1[rsp], rax
  0007b	48 8b 44 24 78	 mov	 rax, QWORD PTR shdr$1[rsp]
  00080	0f b6 00	 movzx	 eax, BYTE PTR [rax]
  00083	88 44 24 64	 mov	 BYTE PTR code$[rsp], al
  00087	48 8b 44 24 78	 mov	 rax, QWORD PTR shdr$1[rsp]
  0008c	0f b6 40 01	 movzx	 eax, BYTE PTR [rax+1]
  00090	88 44 24 65	 mov	 BYTE PTR status$[rsp], al
  00094	48 8b 44 24 78	 mov	 rax, QWORD PTR shdr$1[rsp]
  00099	48 83 c0 02	 add	 rax, 2
  0009d	48 8b c8	 mov	 rcx, rax
  000a0	e8 00 00 00 00	 call	 fetch_hw_noswap
  000a5	0f b7 c8	 movzx	 ecx, ax
  000a8	e8 00 00 00 00	 call	 _byteswap_ushort
  000ad	66 89 84 24 80
	00 00 00	 mov	 WORD PTR devnum$[rsp], ax
  000b5	48 8b 44 24 78	 mov	 rax, QWORD PTR shdr$1[rsp]
  000ba	48 83 c0 04	 add	 rax, 4
  000be	48 8b c8	 mov	 rcx, rax
  000c1	e8 00 00 00 00	 call	 fetch_hw_noswap
  000c6	0f b7 c8	 movzx	 ecx, ax
  000c9	e8 00 00 00 00	 call	 _byteswap_ushort
  000ce	0f b7 c0	 movzx	 eax, ax
  000d1	89 84 24 84 00
	00 00		 mov	 DWORD PTR len$[rsp], eax
  000d8	48 8b 44 24 78	 mov	 rax, QWORD PTR shdr$1[rsp]
  000dd	48 83 c0 06	 add	 rax, 6
  000e1	48 8b c8	 mov	 rcx, rax
  000e4	e8 00 00 00 00	 call	 fetch_hw_noswap
  000e9	0f b7 c8	 movzx	 ecx, ax
  000ec	e8 00 00 00 00	 call	 _byteswap_ushort
  000f1	0f b7 c0	 movzx	 eax, ax
  000f4	89 84 24 8c 00
	00 00		 mov	 DWORD PTR id$[rsp], eax
  000fb	33 c0		 xor	 eax, eax
  000fd	85 c0		 test	 eax, eax
  000ff	0f 85 69 ff ff
	ff		 jne	 $LN4@serverSend

; 2168 :     hdrlen = SHRD_HDR_SIZE + (len - buflen);

  00105	8b 84 24 00 01
	01 00		 mov	 eax, DWORD PTR buflen$[rsp]
  0010c	8b 8c 24 84 00
	00 00		 mov	 ecx, DWORD PTR len$[rsp]
  00113	2b c8		 sub	 ecx, eax
  00115	8b c1		 mov	 eax, ecx
  00117	48 98		 cdqe
  00119	48 83 c0 08	 add	 rax, 8
  0011d	89 44 24 60	 mov	 DWORD PTR hdrlen$[rsp], eax

; 2169 :     sendlen = hdrlen + buflen;

  00121	8b 84 24 00 01
	01 00		 mov	 eax, DWORD PTR buflen$[rsp]
  00128	8b 4c 24 60	 mov	 ecx, DWORD PTR hdrlen$[rsp]
  0012c	03 c8		 add	 ecx, eax
  0012e	8b c1		 mov	 eax, ecx
  00130	89 84 24 88 00
	00 00		 mov	 DWORD PTR sendlen$[rsp], eax

; 2170 : 
; 2171 :     /* Check if buf is adjacent to the header */
; 2172 :     if (buf && hdr + hdrlen == buf)

  00137	48 83 bc 24 f8
	00 01 00 00	 cmp	 QWORD PTR buf$[rsp], 0
  00140	74 47		 je	 SHORT $LN8@serverSend
  00142	48 63 44 24 60	 movsxd	 rax, DWORD PTR hdrlen$[rsp]
  00147	48 8b 8c 24 f0
	00 01 00	 mov	 rcx, QWORD PTR hdr$[rsp]
  0014f	48 03 c8	 add	 rcx, rax
  00152	48 8b c1	 mov	 rax, rcx
  00155	48 3b 84 24 f8
	00 01 00	 cmp	 rax, QWORD PTR buf$[rsp]
  0015d	75 2a		 jne	 SHORT $LN8@serverSend

; 2173 :     {
; 2174 :         hdrlen += buflen;

  0015f	8b 84 24 00 01
	01 00		 mov	 eax, DWORD PTR buflen$[rsp]
  00166	8b 4c 24 60	 mov	 ecx, DWORD PTR hdrlen$[rsp]
  0016a	03 c8		 add	 ecx, eax
  0016c	8b c1		 mov	 eax, ecx
  0016e	89 44 24 60	 mov	 DWORD PTR hdrlen$[rsp], eax

; 2175 :         buf = NULL;

  00172	48 c7 84 24 f8
	00 01 00 00 00
	00 00		 mov	 QWORD PTR buf$[rsp], 0

; 2176 :         buflen = 0;

  0017e	c7 84 24 00 01
	01 00 00 00 00
	00		 mov	 DWORD PTR buflen$[rsp], 0
$LN8@serverSend:

; 2177 :     }
; 2178 : 
; 2179 :     /* Send only the header buffer if 'buf' is empty */
; 2180 :     if (buflen == 0)  sendbuf = hdr;

  00189	83 bc 24 00 01
	01 00 00	 cmp	 DWORD PTR buflen$[rsp], 0
  00191	75 10		 jne	 SHORT $LN9@serverSend
  00193	48 8b 84 24 f0
	00 01 00	 mov	 rax, QWORD PTR hdr$[rsp]
  0019b	48 89 84 24 90
	00 00 00	 mov	 QWORD PTR sendbuf$[rsp], rax
$LN9@serverSend:

; 2181 : 
; 2182 :     /* Get socket number; if 'ix' < 0 we don't have a device yet */
; 2183 :     if (ix >= 0)

  001a3	83 bc 24 e8 00
	01 00 00	 cmp	 DWORD PTR ix$[rsp], 0
  001ab	7c 21		 jl	 SHORT $LN10@serverSend

; 2184 :         sock = dev->shrd[ix]->fd;

  001ad	48 63 84 24 e8
	00 01 00	 movsxd	 rax, DWORD PTR ix$[rsp]
  001b5	48 8b 8c 24 e0
	00 01 00	 mov	 rcx, QWORD PTR dev$[rsp]
  001bd	48 8b 84 c1 60
	06 00 00	 mov	 rax, QWORD PTR [rcx+rax*8+1632]
  001c5	8b 40 04	 mov	 eax, DWORD PTR [rax+4]
  001c8	89 44 24 68	 mov	 DWORD PTR sock$[rsp], eax
  001cc	eb 19		 jmp	 SHORT $LN11@serverSend
$LN10@serverSend:

; 2185 :     else
; 2186 :     {
; 2187 :         sock = -ix;

  001ce	8b 84 24 e8 00
	01 00		 mov	 eax, DWORD PTR ix$[rsp]
  001d5	f7 d8		 neg	 eax
  001d7	89 44 24 68	 mov	 DWORD PTR sock$[rsp], eax

; 2188 :         dev = NULL;

  001db	48 c7 84 24 e0
	00 01 00 00 00
	00 00		 mov	 QWORD PTR dev$[rsp], 0
$LN11@serverSend:

; 2189 :     }
; 2190 : 
; 2191 :     SHRDHDRTRACE( "server send", hdr );

  001e7	45 33 c9	 xor	 r9d, r9d
  001ea	4c 8b 84 24 f0
	00 01 00	 mov	 r8, QWORD PTR hdr$[rsp]
  001f2	48 8d 15 00 00
	00 00		 lea	 rdx, OFFSET FLAT:$SG170249
  001f9	48 8b 8c 24 e0
	00 01 00	 mov	 rcx, QWORD PTR dev$[rsp]
  00201	e8 00 00 00 00	 call	 shrdhdrtrc

; 2192 : 
; 2193 : #if defined( HAVE_ZLIB )
; 2194 :     /* Compress the buf */
; 2195 :     if (ix >= 0 && dev->shrd[ix]->comp != 0
; 2196 :      && code == SHRD_OK && status == 0
; 2197 :      && hdrlen - SHRD_HDR_SIZE <= SHRD_COMP_MAX_OFF
; 2198 :      && buflen >= SHARED_COMPRESS_MINLEN)
; 2199 :     {
; 2200 :         unsigned long newlen;
; 2201 :         int off = hdrlen - SHRD_HDR_SIZE;
; 2202 :         sendbuf = cbuf;
; 2203 :         newlen = sizeof(cbuf) - hdrlen;
; 2204 :         memcpy (cbuf, hdr, hdrlen);
; 2205 :         rc = compress2 (cbuf + hdrlen, &newlen,
; 2206 :                         buf, buflen, dev->shrd[ix]->comp);
; 2207 :         if (rc == Z_OK && (int)newlen < buflen)
; 2208 :         {
; 2209 :             /* Setup to use the compressed buffer */
; 2210 :             sendlen = hdrlen + newlen;
; 2211 :             buflen = 0;
; 2212 :             code = SHRD_COMP;
; 2213 :             status = (SHRD_LIBZ << 4) | off;
; 2214 :             SHRD_SET_HDR (cbuf, code, status, devnum, id, (U16)(newlen + off));
; 2215 :             SHRDHDRTRACE2( "server send", cbuf, "(compressed)" );
; 2216 :         }
; 2217 :     }
; 2218 : #endif
; 2219 : 
; 2220 :     /* Build combined (hdr + data) buffer */
; 2221 :     if (buflen > 0)

  00206	83 bc 24 00 01
	01 00 00	 cmp	 DWORD PTR buflen$[rsp], 0
  0020e	7e 52		 jle	 SHORT $LN12@serverSend

; 2222 :     {
; 2223 :         sendbuf = cbuf;

  00210	48 8d 84 24 a0
	00 00 00	 lea	 rax, QWORD PTR cbuf$[rsp]
  00218	48 89 84 24 90
	00 00 00	 mov	 QWORD PTR sendbuf$[rsp], rax

; 2224 :         memcpy (cbuf, hdr, hdrlen);

  00220	48 63 44 24 60	 movsxd	 rax, DWORD PTR hdrlen$[rsp]
  00225	48 8d 8c 24 a0
	00 00 00	 lea	 rcx, QWORD PTR cbuf$[rsp]
  0022d	48 8b f9	 mov	 rdi, rcx
  00230	48 8b b4 24 f0
	00 01 00	 mov	 rsi, QWORD PTR hdr$[rsp]
  00238	48 8b c8	 mov	 rcx, rax
  0023b	f3 a4		 rep movsb

; 2225 :         memcpy (cbuf + hdrlen, buf, buflen);

  0023d	48 63 84 24 00
	01 01 00	 movsxd	 rax, DWORD PTR buflen$[rsp]
  00245	48 63 4c 24 60	 movsxd	 rcx, DWORD PTR hdrlen$[rsp]
  0024a	48 8d 8c 0c a0
	00 00 00	 lea	 rcx, QWORD PTR cbuf$[rsp+rcx]
  00252	48 8b f9	 mov	 rdi, rcx
  00255	48 8b b4 24 f8
	00 01 00	 mov	 rsi, QWORD PTR buf$[rsp]
  0025d	48 8b c8	 mov	 rcx, rax
  00260	f3 a4		 rep movsb
$LN12@serverSend:

; 2226 :     }
; 2227 : 
; 2228 :     /* Send the combined header and data */
; 2229 :     rc = send (sock, sendbuf, sendlen, 0);

  00262	48 63 44 24 68	 movsxd	 rax, DWORD PTR sock$[rsp]
  00267	45 33 c9	 xor	 r9d, r9d
  0026a	44 8b 84 24 88
	00 00 00	 mov	 r8d, DWORD PTR sendlen$[rsp]
  00272	48 8b 94 24 90
	00 00 00	 mov	 rdx, QWORD PTR sendbuf$[rsp]
  0027a	48 8b c8	 mov	 rcx, rax
  0027d	ff 15 00 00 00
	00		 call	 QWORD PTR __imp_send
  00283	89 44 24 74	 mov	 DWORD PTR rc$[rsp], eax

; 2230 : 
; 2231 :     /* Process return code */
; 2232 :     if (rc < 0)

  00287	83 7c 24 74 00	 cmp	 DWORD PTR rc$[rsp], 0
  0028c	0f 8d 0a 01 00
	00		 jge	 $LN13@serverSend

; 2233 :     {
; 2234 :         // "%1d:%04X Shared: error in send id %d: %s"
; 2235 :         WRMSG( HHC00729, "E", LCSS_DEVNUM, id, strerror( HSO_errno ));

  00292	48 83 bc 24 e0
	00 01 00 00	 cmp	 QWORD PTR dev$[rsp], 0
  0029b	74 12		 je	 SHORT $LN15@serverSend
  0029d	48 8b 84 24 e0
	00 01 00	 mov	 rax, QWORD PTR dev$[rsp]
  002a5	0f b7 40 48	 movzx	 eax, WORD PTR [rax+72]
  002a9	89 44 24 6c	 mov	 DWORD PTR tv170[rsp], eax
  002ad	eb 08		 jmp	 SHORT $LN16@serverSend
$LN15@serverSend:
  002af	c7 44 24 6c 00
	00 00 00	 mov	 DWORD PTR tv170[rsp], 0
$LN16@serverSend:
  002b7	48 83 bc 24 e0
	00 01 00 00	 cmp	 QWORD PTR dev$[rsp], 0
  002c0	74 14		 je	 SHORT $LN17@serverSend
  002c2	48 8b 84 24 e0
	00 01 00	 mov	 rax, QWORD PTR dev$[rsp]
  002ca	0f b7 40 44	 movzx	 eax, WORD PTR [rax+68]
  002ce	d1 f8		 sar	 eax, 1
  002d0	89 44 24 70	 mov	 DWORD PTR tv176[rsp], eax
  002d4	eb 08		 jmp	 SHORT $LN18@serverSend
$LN17@serverSend:
  002d6	c7 44 24 70 00
	00 00 00	 mov	 DWORD PTR tv176[rsp], 0
$LN18@serverSend:
  002de	ff 15 00 00 00
	00		 call	 QWORD PTR __imp_WSAGetLastError
  002e4	8b c8		 mov	 ecx, eax
  002e6	ff 15 00 00 00
	00		 call	 QWORD PTR __imp_w32_strerror
  002ec	48 89 84 24 98
	00 00 00	 mov	 QWORD PTR tv162[rsp], rax
  002f4	b9 01 00 00 00	 mov	 ecx, 1
  002f9	ff 15 00 00 00
	00		 call	 QWORD PTR __imp___acrt_iob_func
  002ff	48 8b 8c 24 98
	00 00 00	 mov	 rcx, QWORD PTR tv162[rsp]
  00307	48 89 4c 24 50	 mov	 QWORD PTR [rsp+80], rcx
  0030c	8b 8c 24 8c 00
	00 00		 mov	 ecx, DWORD PTR id$[rsp]
  00313	89 4c 24 48	 mov	 DWORD PTR [rsp+72], ecx
  00317	8b 4c 24 6c	 mov	 ecx, DWORD PTR tv170[rsp]
  0031b	89 4c 24 40	 mov	 DWORD PTR [rsp+64], ecx
  0031f	8b 4c 24 70	 mov	 ecx, DWORD PTR tv176[rsp]
  00323	89 4c 24 38	 mov	 DWORD PTR [rsp+56], ecx
  00327	48 8d 0d 00 00
	00 00		 lea	 rcx, OFFSET FLAT:$SG170252
  0032e	48 89 4c 24 30	 mov	 QWORD PTR [rsp+48], rcx
  00333	48 8d 0d 00 00
	00 00		 lea	 rcx, OFFSET FLAT:$SG170253
  0033a	48 89 4c 24 28	 mov	 QWORD PTR [rsp+40], rcx
  0033f	48 89 44 24 20	 mov	 QWORD PTR [rsp+32], rax
  00344	41 b9 03 00 00
	00		 mov	 r9d, 3
  0034a	4c 8d 05 00 00
	00 00		 lea	 r8, OFFSET FLAT:$SG170254
  00351	ba bb 08 00 00	 mov	 edx, 2235		; 000008bbH
  00356	48 8d 0d 00 00
	00 00		 lea	 rcx, OFFSET FLAT:$SG170255
  0035d	ff 15 00 00 00
	00		 call	 QWORD PTR __imp_fwritemsg

; 2236 :         dev->shrd[ix]->disconnect = 1;

  00363	48 63 84 24 e8
	00 01 00	 movsxd	 rax, DWORD PTR ix$[rsp]
  0036b	48 8b 8c 24 e0
	00 01 00	 mov	 rcx, QWORD PTR dev$[rsp]
  00373	48 8b 84 c1 60
	06 00 00	 mov	 rax, QWORD PTR [rcx+rax*8+1632]
  0037b	8b 40 24	 mov	 eax, DWORD PTR [rax+36]
  0037e	83 c8 08	 or	 eax, 8
  00381	48 63 8c 24 e8
	00 01 00	 movsxd	 rcx, DWORD PTR ix$[rsp]
  00389	48 8b 94 24 e0
	00 01 00	 mov	 rdx, QWORD PTR dev$[rsp]
  00391	48 8b 8c ca 60
	06 00 00	 mov	 rcx, QWORD PTR [rdx+rcx*8+1632]
  00399	89 41 24	 mov	 DWORD PTR [rcx+36], eax
$LN13@serverSend:

; 2237 :     }
; 2238 : 
; 2239 :     return rc;

  0039c	8b 44 24 74	 mov	 eax, DWORD PTR rc$[rsp]

; 2240 : 
; 2241 : } /* serverSend */

  003a0	48 8b 8c 24 b0
	00 01 00	 mov	 rcx, QWORD PTR __$ArrayPad$[rsp]
  003a8	48 33 cc	 xor	 rcx, rsp
  003ab	e8 00 00 00 00	 call	 __security_check_cookie
  003b0	48 81 c4 c8 00
	01 00		 add	 rsp, 65736		; 000100c8H
  003b7	5f		 pop	 rdi
  003b8	5e		 pop	 rsi
  003b9	c3		 ret	 0
serverSend ENDP
_TEXT	ENDS
; Function compile flags: /Odtp
; File C:\papa\MyGit\hyperion-zvector\shared.c
_TEXT	SEGMENT
tv74 = 48
tv92 = 52
shdr$1 = 56
len$ = 64
rc$ = 72
hdr$ = 80
__$ArrayPad$ = 88
dev$ = 112
ix$ = 120
code$ = 128
status$ = 136
msg$ = 144
serverError PROC

; 2124 : {

  00000	44 89 4c 24 20	 mov	 DWORD PTR [rsp+32], r9d
  00005	44 89 44 24 18	 mov	 DWORD PTR [rsp+24], r8d
  0000a	89 54 24 10	 mov	 DWORD PTR [rsp+16], edx
  0000e	48 89 4c 24 08	 mov	 QWORD PTR [rsp+8], rcx
  00013	48 83 ec 68	 sub	 rsp, 104		; 00000068H
  00017	48 8b 05 00 00
	00 00		 mov	 rax, QWORD PTR __security_cookie
  0001e	48 33 c4	 xor	 rax, rsp
  00021	48 89 44 24 58	 mov	 QWORD PTR __$ArrayPad$[rsp], rax

; 2125 :     int rc;                             /* Return code               */
; 2126 :     size_t len;                         /* Message length            */
; 2127 :     BYTE hdr[SHRD_HDR_SIZE];            /* Header                    */
; 2128 : 
; 2129 :     /* Get message length */
; 2130 :     len = strlen(msg) + 1;

  00026	48 8b 8c 24 90
	00 00 00	 mov	 rcx, QWORD PTR msg$[rsp]
  0002e	e8 00 00 00 00	 call	 strlen
  00033	48 ff c0	 inc	 rax
  00036	48 89 44 24 40	 mov	 QWORD PTR len$[rsp], rax

; 2131 :     if (len > SHARED_MAX_MSGLEN)

  0003b	48 81 7c 24 40
	ff 00 00 00	 cmp	 QWORD PTR len$[rsp], 255 ; 000000ffH
  00044	76 09		 jbe	 SHORT $LN5@serverErro

; 2132 :         len = SHARED_MAX_MSGLEN;

  00046	48 c7 44 24 40
	ff 00 00 00	 mov	 QWORD PTR len$[rsp], 255 ; 000000ffH
$LN5@serverErro:
$LN4@serverErro:

; 2133 : 
; 2134 :     SHRD_SET_HDR( hdr, code, status, dev ? dev->devnum : 0,

  0004f	48 8d 44 24 50	 lea	 rax, QWORD PTR hdr$[rsp]
  00054	48 89 44 24 38	 mov	 QWORD PTR shdr$1[rsp], rax
  00059	48 8b 44 24 38	 mov	 rax, QWORD PTR shdr$1[rsp]
  0005e	0f b6 8c 24 80
	00 00 00	 movzx	 ecx, BYTE PTR code$[rsp]
  00066	88 08		 mov	 BYTE PTR [rax], cl
  00068	48 8b 44 24 38	 mov	 rax, QWORD PTR shdr$1[rsp]
  0006d	0f b6 8c 24 88
	00 00 00	 movzx	 ecx, BYTE PTR status$[rsp]
  00075	88 48 01	 mov	 BYTE PTR [rax+1], cl
  00078	48 83 7c 24 70
	00		 cmp	 QWORD PTR dev$[rsp], 0
  0007e	74 0f		 je	 SHORT $LN7@serverErro
  00080	48 8b 44 24 70	 mov	 rax, QWORD PTR dev$[rsp]
  00085	0f b7 40 48	 movzx	 eax, WORD PTR [rax+72]
  00089	89 44 24 30	 mov	 DWORD PTR tv74[rsp], eax
  0008d	eb 08		 jmp	 SHORT $LN8@serverErro
$LN7@serverErro:
  0008f	c7 44 24 30 00
	00 00 00	 mov	 DWORD PTR tv74[rsp], 0
$LN8@serverErro:
  00097	0f b7 4c 24 30	 movzx	 ecx, WORD PTR tv74[rsp]
  0009c	e8 00 00 00 00	 call	 _byteswap_ushort
  000a1	48 8b 4c 24 38	 mov	 rcx, QWORD PTR shdr$1[rsp]
  000a6	48 83 c1 02	 add	 rcx, 2
  000aa	0f b7 d0	 movzx	 edx, ax
  000ad	e8 00 00 00 00	 call	 store_hw_noswap
  000b2	0f b7 4c 24 40	 movzx	 ecx, WORD PTR len$[rsp]
  000b7	e8 00 00 00 00	 call	 _byteswap_ushort
  000bc	48 8b 4c 24 38	 mov	 rcx, QWORD PTR shdr$1[rsp]
  000c1	48 83 c1 04	 add	 rcx, 4
  000c5	0f b7 d0	 movzx	 edx, ax
  000c8	e8 00 00 00 00	 call	 store_hw_noswap
  000cd	83 7c 24 78 00	 cmp	 DWORD PTR ix$[rsp], 0
  000d2	7d 0a		 jge	 SHORT $LN9@serverErro
  000d4	c7 44 24 34 00
	00 00 00	 mov	 DWORD PTR tv92[rsp], 0
  000dc	eb 18		 jmp	 SHORT $LN10@serverErro
$LN9@serverErro:
  000de	48 63 44 24 78	 movsxd	 rax, DWORD PTR ix$[rsp]
  000e3	48 8b 4c 24 70	 mov	 rcx, QWORD PTR dev$[rsp]
  000e8	48 8b 84 c1 60
	06 00 00	 mov	 rax, QWORD PTR [rcx+rax*8+1632]
  000f0	8b 00		 mov	 eax, DWORD PTR [rax]
  000f2	89 44 24 34	 mov	 DWORD PTR tv92[rsp], eax
$LN10@serverErro:
  000f6	0f b7 4c 24 34	 movzx	 ecx, WORD PTR tv92[rsp]
  000fb	e8 00 00 00 00	 call	 _byteswap_ushort
  00100	48 8b 4c 24 38	 mov	 rcx, QWORD PTR shdr$1[rsp]
  00105	48 83 c1 06	 add	 rcx, 6
  00109	0f b7 d0	 movzx	 edx, ax
  0010c	e8 00 00 00 00	 call	 store_hw_noswap
  00111	33 c0		 xor	 eax, eax
  00113	85 c0		 test	 eax, eax
  00115	0f 85 34 ff ff
	ff		 jne	 $LN4@serverErro

; 2135 :                   ix < 0 ? 0 : dev->shrd[ix]->id, (U16) len );
; 2136 : 
; 2137 :     SHRDTRACE( "SERVER ERROR! %2.2x %2.2x: %s", code, status, msg );

  0011b	48 8b 84 24 90
	00 00 00	 mov	 rax, QWORD PTR msg$[rsp]
  00123	48 89 44 24 20	 mov	 QWORD PTR [rsp+32], rax
  00128	44 8b 8c 24 88
	00 00 00	 mov	 r9d, DWORD PTR status$[rsp]
  00130	44 8b 84 24 80
	00 00 00	 mov	 r8d, DWORD PTR code$[rsp]
  00138	48 8d 15 00 00
	00 00		 lea	 rdx, OFFSET FLAT:$SG170203
  0013f	48 8b 4c 24 70	 mov	 rcx, QWORD PTR dev$[rsp]
  00144	e8 00 00 00 00	 call	 shrdtrc

; 2138 : 
; 2139 :     rc = serverSend( dev, ix, hdr, (BYTE*) msg, (int) len );

  00149	8b 44 24 40	 mov	 eax, DWORD PTR len$[rsp]
  0014d	89 44 24 20	 mov	 DWORD PTR [rsp+32], eax
  00151	4c 8b 8c 24 90
	00 00 00	 mov	 r9, QWORD PTR msg$[rsp]
  00159	4c 8d 44 24 50	 lea	 r8, QWORD PTR hdr$[rsp]
  0015e	8b 54 24 78	 mov	 edx, DWORD PTR ix$[rsp]
  00162	48 8b 4c 24 70	 mov	 rcx, QWORD PTR dev$[rsp]
  00167	e8 00 00 00 00	 call	 serverSend
  0016c	89 44 24 48	 mov	 DWORD PTR rc$[rsp], eax

; 2140 :     return rc;

  00170	8b 44 24 48	 mov	 eax, DWORD PTR rc$[rsp]

; 2141 : 
; 2142 : } /* serverError */

  00174	48 8b 4c 24 58	 mov	 rcx, QWORD PTR __$ArrayPad$[rsp]
  00179	48 33 cc	 xor	 rcx, rsp
  0017c	e8 00 00 00 00	 call	 __security_check_cookie
  00181	48 83 c4 68	 add	 rsp, 104		; 00000068H
  00185	c3		 ret	 0
serverError ENDP
_TEXT	ENDS
; Function compile flags: /Odtp
; File C:\papa\MyGit\hyperion-zvector\shared.c
_TEXT	SEGMENT
i$ = 0
id$ = 4
dev$ = 32
serverId PROC

; 2098 : {

  00000	48 89 4c 24 08	 mov	 QWORD PTR [rsp+8], rcx
  00005	48 83 ec 18	 sub	 rsp, 24
$LN4@serverId:

; 2099 : int      i;                             /* Loop index                */
; 2100 : int      id;                            /* Identifier                */
; 2101 : 
; 2102 :     do {
; 2103 :         dev->shrdid += 1;

  00009	48 8b 44 24 20	 mov	 rax, QWORD PTR dev$[rsp]
  0000e	8b 80 54 06 00
	00		 mov	 eax, DWORD PTR [rax+1620]
  00014	ff c0		 inc	 eax
  00016	48 8b 4c 24 20	 mov	 rcx, QWORD PTR dev$[rsp]
  0001b	89 81 54 06 00
	00		 mov	 DWORD PTR [rcx+1620], eax

; 2104 :         dev->shrdid &= 0xffff;

  00021	48 8b 44 24 20	 mov	 rax, QWORD PTR dev$[rsp]
  00026	8b 80 54 06 00
	00		 mov	 eax, DWORD PTR [rax+1620]
  0002c	25 ff ff 00 00	 and	 eax, 65535		; 0000ffffH
  00031	48 8b 4c 24 20	 mov	 rcx, QWORD PTR dev$[rsp]
  00036	89 81 54 06 00
	00		 mov	 DWORD PTR [rcx+1620], eax

; 2105 :         if (dev->shrdid == DEV_SYS_LOCAL
; 2106 :          || dev->shrdid == DEV_SYS_NONE)

  0003c	48 8b 44 24 20	 mov	 rax, QWORD PTR dev$[rsp]
  00041	81 b8 54 06 00
	00 ff ff 00 00	 cmp	 DWORD PTR [rax+1620], 65535 ; 0000ffffH
  0004b	74 0e		 je	 SHORT $LN9@serverId
  0004d	48 8b 44 24 20	 mov	 rax, QWORD PTR dev$[rsp]
  00052	83 b8 54 06 00
	00 00		 cmp	 DWORD PTR [rax+1620], 0
  00059	75 0f		 jne	 SHORT $LN8@serverId
$LN9@serverId:

; 2107 :             dev->shrdid = 1;

  0005b	48 8b 44 24 20	 mov	 rax, QWORD PTR dev$[rsp]
  00060	c7 80 54 06 00
	00 01 00 00 00	 mov	 DWORD PTR [rax+1620], 1
$LN8@serverId:

; 2108 :         id = dev->shrdid;

  0006a	48 8b 44 24 20	 mov	 rax, QWORD PTR dev$[rsp]
  0006f	8b 80 54 06 00
	00		 mov	 eax, DWORD PTR [rax+1620]
  00075	89 44 24 04	 mov	 DWORD PTR id$[rsp], eax

; 2109 : 
; 2110 :         for (i = 0; i < SHARED_MAX_SYS; i++)

  00079	c7 04 24 00 00
	00 00		 mov	 DWORD PTR i$[rsp], 0
  00080	eb 08		 jmp	 SHORT $LN7@serverId
$LN5@serverId:
  00082	8b 04 24	 mov	 eax, DWORD PTR i$[rsp]
  00085	ff c0		 inc	 eax
  00087	89 04 24	 mov	 DWORD PTR i$[rsp], eax
$LN7@serverId:
  0008a	83 3c 24 08	 cmp	 DWORD PTR i$[rsp], 8
  0008e	7d 31		 jge	 SHORT $LN6@serverId

; 2111 :             if (dev->shrd[i] && dev->shrd[i]->id == id)

  00090	48 63 04 24	 movsxd	 rax, DWORD PTR i$[rsp]
  00094	48 8b 4c 24 20	 mov	 rcx, QWORD PTR dev$[rsp]
  00099	48 83 bc c1 60
	06 00 00 00	 cmp	 QWORD PTR [rcx+rax*8+1632], 0
  000a2	74 1b		 je	 SHORT $LN10@serverId
  000a4	48 63 04 24	 movsxd	 rax, DWORD PTR i$[rsp]
  000a8	48 8b 4c 24 20	 mov	 rcx, QWORD PTR dev$[rsp]
  000ad	48 8b 84 c1 60
	06 00 00	 mov	 rax, QWORD PTR [rcx+rax*8+1632]
  000b5	8b 4c 24 04	 mov	 ecx, DWORD PTR id$[rsp]
  000b9	39 08		 cmp	 DWORD PTR [rax], ecx
  000bb	75 02		 jne	 SHORT $LN10@serverId

; 2112 :                 break;

  000bd	eb 02		 jmp	 SHORT $LN6@serverId
$LN10@serverId:
  000bf	eb c1		 jmp	 SHORT $LN5@serverId
$LN6@serverId:

; 2113 : 
; 2114 :     } while (i < SHARED_MAX_SYS);

  000c1	83 3c 24 08	 cmp	 DWORD PTR i$[rsp], 8
  000c5	0f 8c 3e ff ff
	ff		 jl	 $LN4@serverId

; 2115 : 
; 2116 :     return id;

  000cb	8b 44 24 04	 mov	 eax, DWORD PTR id$[rsp]

; 2117 : } /* serverId */

  000cf	48 83 c4 18	 add	 rsp, 24
  000d3	c3		 ret	 0
serverId ENDP
_TEXT	ENDS
; Function compile flags: /Odtp
; File C:\papa\MyGit\hyperion-zvector\shared.c
_TEXT	SEGMENT
i$ = 0
dev$ = 32
id$ = 40
avail$ = 48
serverLocate PROC

; 2069 : {

  00000	4c 89 44 24 18	 mov	 QWORD PTR [rsp+24], r8
  00005	89 54 24 10	 mov	 DWORD PTR [rsp+16], edx
  00009	48 89 4c 24 08	 mov	 QWORD PTR [rsp+8], rcx
  0000e	48 83 ec 18	 sub	 rsp, 24

; 2070 :     int i;
; 2071 : 
; 2072 :     if (avail)

  00012	48 83 7c 24 30
	00		 cmp	 QWORD PTR avail$[rsp], 0
  00018	74 0b		 je	 SHORT $LN5@serverLoca

; 2073 :         *avail = -1;

  0001a	48 8b 44 24 30	 mov	 rax, QWORD PTR avail$[rsp]
  0001f	c7 00 ff ff ff
	ff		 mov	 DWORD PTR [rax], -1
$LN5@serverLoca:

; 2074 : 
; 2075 :     for (i=0; i < SHARED_MAX_SYS; i++)

  00025	c7 04 24 00 00
	00 00		 mov	 DWORD PTR i$[rsp], 0
  0002c	eb 08		 jmp	 SHORT $LN4@serverLoca
$LN2@serverLoca:
  0002e	8b 04 24	 mov	 eax, DWORD PTR i$[rsp]
  00031	ff c0		 inc	 eax
  00033	89 04 24	 mov	 DWORD PTR i$[rsp], eax
$LN4@serverLoca:
  00036	83 3c 24 08	 cmp	 DWORD PTR i$[rsp], 8
  0003a	7d 52		 jge	 SHORT $LN3@serverLoca

; 2076 :     {
; 2077 :         // Active slot?
; 2078 :         if (dev->shrd[i])

  0003c	48 63 04 24	 movsxd	 rax, DWORD PTR i$[rsp]
  00040	48 8b 4c 24 20	 mov	 rcx, QWORD PTR dev$[rsp]
  00045	48 83 bc c1 60
	06 00 00 00	 cmp	 QWORD PTR [rcx+rax*8+1632], 0
  0004e	74 20		 je	 SHORT $LN6@serverLoca

; 2079 :         {
; 2080 :             // Is this the one they want?
; 2081 :             if (dev->shrd[i]->id == id)

  00050	48 63 04 24	 movsxd	 rax, DWORD PTR i$[rsp]
  00054	48 8b 4c 24 20	 mov	 rcx, QWORD PTR dev$[rsp]
  00059	48 8b 84 c1 60
	06 00 00	 mov	 rax, QWORD PTR [rcx+rax*8+1632]
  00061	8b 4c 24 28	 mov	 ecx, DWORD PTR id$[rsp]
  00065	39 08		 cmp	 DWORD PTR [rax], ecx
  00067	75 05		 jne	 SHORT $LN8@serverLoca

; 2082 :                 return i;

  00069	8b 04 24	 mov	 eax, DWORD PTR i$[rsp]
  0006c	eb 25		 jmp	 SHORT $LN1@serverLoca
$LN8@serverLoca:

; 2083 :         }

  0006e	eb 1c		 jmp	 SHORT $LN7@serverLoca
$LN6@serverLoca:

; 2084 :         else // (available slot)
; 2085 :         {
; 2086 :             if (avail && *avail < 0)

  00070	48 83 7c 24 30
	00		 cmp	 QWORD PTR avail$[rsp], 0
  00076	74 14		 je	 SHORT $LN9@serverLoca
  00078	48 8b 44 24 30	 mov	 rax, QWORD PTR avail$[rsp]
  0007d	83 38 00	 cmp	 DWORD PTR [rax], 0
  00080	7d 0a		 jge	 SHORT $LN9@serverLoca

; 2087 :                 *avail = i;

  00082	48 8b 44 24 30	 mov	 rax, QWORD PTR avail$[rsp]
  00087	8b 0c 24	 mov	 ecx, DWORD PTR i$[rsp]
  0008a	89 08		 mov	 DWORD PTR [rax], ecx
$LN9@serverLoca:
$LN7@serverLoca:

; 2088 :         }
; 2089 :     }

  0008c	eb a0		 jmp	 SHORT $LN2@serverLoca
$LN3@serverLoca:

; 2090 : 
; 2091 :     return -1;

  0008e	b8 ff ff ff ff	 mov	 eax, -1
$LN1@serverLoca:

; 2092 : }

  00093	48 83 c4 18	 add	 rsp, 24
  00097	c3		 ret	 0
serverLocate ENDP
_TEXT	ENDS
; Function compile flags: /Odtp
; File C:\papa\MyGit\hyperion-zvector\shared.c
_TEXT	SEGMENT
cmd$ = 64
flag$ = 65
id$ = 68
rc$ = 72
len$ = 76
code$ = 80
i$ = 84
rcd$ = 88
tv843 = 92
tv132 = 96
shdr$1 = 104
tv668 = 112
off$ = 116
shdr$2 = 120
shdr$3 = 128
shdr$4 = 136
shdr$5 = 144
shdr$6 = 152
shdr$7 = 160
shdr$8 = 168
shdr$9 = 176
shdr$10 = 184
shdr$11 = 192
shdr$12 = 200
shdr$13 = 208
shdr$14 = 216
shdr$15 = 224
shdr$16 = 232
shdr$17 = 240
shdr$18 = 248
shdr$19 = 256
shdr$20 = 264
devnum$ = 272
tv1161 = 280
trcmsg$ = 288
__$ArrayPad$ = 320
dev$ = 352
ix$ = 360
hdr$ = 368
buf$ = 376
serverRequest PROC

; 1663 : {

  00000	4c 89 4c 24 20	 mov	 QWORD PTR [rsp+32], r9
  00005	4c 89 44 24 18	 mov	 QWORD PTR [rsp+24], r8
  0000a	89 54 24 10	 mov	 DWORD PTR [rsp+16], edx
  0000e	48 89 4c 24 08	 mov	 QWORD PTR [rsp+8], rcx
  00013	57		 push	 rdi
  00014	48 81 ec 50 01
	00 00		 sub	 rsp, 336		; 00000150H
  0001b	48 8b 05 00 00
	00 00		 mov	 rax, QWORD PTR __security_cookie
  00022	48 33 c4	 xor	 rax, rsp
  00025	48 89 84 24 40
	01 00 00	 mov	 QWORD PTR __$ArrayPad$[rsp], rax
$LN4@serverRequ:

; 1664 : int      rc;                            /* Return code               */
; 1665 : int      i;                             /* Loop index                */
; 1666 : BYTE     cmd;                           /* Header command            */
; 1667 : BYTE     flag;                          /* Header flags              */
; 1668 : U16      devnum;                        /* Header device number      */
; 1669 : int      id;                            /* Header identifier         */
; 1670 : int      len;                           /* Header length             */
; 1671 : int      code;                          /* Response code             */
; 1672 : int      rcd;                           /* Record to read/write      */
; 1673 : int      off;                           /* Offset into record        */
; 1674 : char     trcmsg[32];
; 1675 : 
; 1676 :     /* Extract header information */
; 1677 :     SHRD_GET_HDR (hdr, cmd, flag, devnum, id, len);

  0002d	48 8b 84 24 70
	01 00 00	 mov	 rax, QWORD PTR hdr$[rsp]
  00035	48 89 44 24 78	 mov	 QWORD PTR shdr$2[rsp], rax
  0003a	48 8b 44 24 78	 mov	 rax, QWORD PTR shdr$2[rsp]
  0003f	0f b6 00	 movzx	 eax, BYTE PTR [rax]
  00042	88 44 24 40	 mov	 BYTE PTR cmd$[rsp], al
  00046	48 8b 44 24 78	 mov	 rax, QWORD PTR shdr$2[rsp]
  0004b	0f b6 40 01	 movzx	 eax, BYTE PTR [rax+1]
  0004f	88 44 24 41	 mov	 BYTE PTR flag$[rsp], al
  00053	48 8b 44 24 78	 mov	 rax, QWORD PTR shdr$2[rsp]
  00058	48 83 c0 02	 add	 rax, 2
  0005c	48 8b c8	 mov	 rcx, rax
  0005f	e8 00 00 00 00	 call	 fetch_hw_noswap
  00064	0f b7 c8	 movzx	 ecx, ax
  00067	e8 00 00 00 00	 call	 _byteswap_ushort
  0006c	66 89 84 24 10
	01 00 00	 mov	 WORD PTR devnum$[rsp], ax
  00074	48 8b 44 24 78	 mov	 rax, QWORD PTR shdr$2[rsp]
  00079	48 83 c0 04	 add	 rax, 4
  0007d	48 8b c8	 mov	 rcx, rax
  00080	e8 00 00 00 00	 call	 fetch_hw_noswap
  00085	0f b7 c8	 movzx	 ecx, ax
  00088	e8 00 00 00 00	 call	 _byteswap_ushort
  0008d	0f b7 c0	 movzx	 eax, ax
  00090	89 44 24 4c	 mov	 DWORD PTR len$[rsp], eax
  00094	48 8b 44 24 78	 mov	 rax, QWORD PTR shdr$2[rsp]
  00099	48 83 c0 06	 add	 rax, 6
  0009d	48 8b c8	 mov	 rcx, rax
  000a0	e8 00 00 00 00	 call	 fetch_hw_noswap
  000a5	0f b7 c8	 movzx	 ecx, ax
  000a8	e8 00 00 00 00	 call	 _byteswap_ushort
  000ad	0f b7 c0	 movzx	 eax, ax
  000b0	89 44 24 44	 mov	 DWORD PTR id$[rsp], eax
  000b4	33 c0		 xor	 eax, eax
  000b6	85 c0		 test	 eax, eax
  000b8	0f 85 6f ff ff
	ff		 jne	 $LN4@serverRequ

; 1678 :     MSGBUF( trcmsg, "server request [%d]", ix );

  000be	44 8b 8c 24 68
	01 00 00	 mov	 r9d, DWORD PTR ix$[rsp]
  000c6	4c 8d 05 00 00
	00 00		 lea	 r8, OFFSET FLAT:$SG170050
  000cd	ba 20 00 00 00	 mov	 edx, 32			; 00000020H
  000d2	48 8d 8c 24 20
	01 00 00	 lea	 rcx, QWORD PTR trcmsg$[rsp]
  000da	ff 15 00 00 00
	00		 call	 QWORD PTR __imp_w32_snprintf

; 1679 :     SHRDHDRTRACE( trcmsg, hdr );

  000e0	45 33 c9	 xor	 r9d, r9d
  000e3	4c 8b 84 24 70
	01 00 00	 mov	 r8, QWORD PTR hdr$[rsp]
  000eb	48 8d 94 24 20
	01 00 00	 lea	 rdx, QWORD PTR trcmsg$[rsp]
  000f3	48 8b 8c 24 60
	01 00 00	 mov	 rcx, QWORD PTR dev$[rsp]
  000fb	e8 00 00 00 00	 call	 shrdhdrtrc

; 1680 : 
; 1681 :     /* Save time of last request (for connection timeout purposes) */
; 1682 :     dev->shrd[ix]->time = time( NULL );

  00100	33 c9		 xor	 ecx, ecx
  00102	e8 00 00 00 00	 call	 time
  00107	48 63 8c 24 68
	01 00 00	 movsxd	 rcx, DWORD PTR ix$[rsp]
  0010f	48 8b 94 24 60
	01 00 00	 mov	 rdx, QWORD PTR dev$[rsp]
  00117	48 8b 8c ca 60
	06 00 00	 mov	 rcx, QWORD PTR [rdx+rcx*8+1632]
  0011f	48 89 41 10	 mov	 QWORD PTR [rcx+16], rax

; 1683 : 
; 1684 :     /* Process the request */
; 1685 :     switch (cmd) {

  00123	0f b6 44 24 40	 movzx	 eax, BYTE PTR cmd$[rsp]
  00128	89 44 24 60	 mov	 DWORD PTR tv132[rsp], eax
  0012c	8b 44 24 60	 mov	 eax, DWORD PTR tv132[rsp]
  00130	2d e0 00 00 00	 sub	 eax, 224		; 000000e0H
  00135	89 44 24 60	 mov	 DWORD PTR tv132[rsp], eax
  00139	83 7c 24 60 0c	 cmp	 DWORD PTR tv132[rsp], 12
  0013e	0f 87 c8 1d 00
	00		 ja	 $LN133@serverRequ
  00144	48 63 44 24 60	 movsxd	 rax, DWORD PTR tv132[rsp]
  00149	48 8d 0d 00 00
	00 00		 lea	 rcx, OFFSET FLAT:__ImageBase
  00150	8b 84 81 00 00
	00 00		 mov	 eax, DWORD PTR $LN138@serverRequ[rcx+rax*4]
  00157	48 03 c1	 add	 rax, rcx
  0015a	ff e0		 jmp	 rax
$LN71@serverRequ:

; 1686 : 
; 1687 :     case SHRD_CONNECT:
; 1688 :         if (dev->connecting)

  0015c	48 8b 84 24 60
	01 00 00	 mov	 rax, QWORD PTR dev$[rsp]
  00164	8b 80 f8 05 00
	00		 mov	 eax, DWORD PTR [rax+1528]
  0016a	c1 e8 08	 shr	 eax, 8
  0016d	83 e0 01	 and	 eax, 1
  00170	85 c0		 test	 eax, eax
  00172	74 33		 je	 SHORT $LN72@serverRequ

; 1689 :         {
; 1690 :             serverError (dev, ix, SHRD_ERROR_NOTINIT, cmd,

  00174	0f b6 44 24 40	 movzx	 eax, BYTE PTR cmd$[rsp]
  00179	48 8d 0d 00 00
	00 00		 lea	 rcx, OFFSET FLAT:$SG170053
  00180	48 89 4c 24 20	 mov	 QWORD PTR [rsp+32], rcx
  00185	44 8b c8	 mov	 r9d, eax
  00188	41 b8 f2 00 00
	00		 mov	 r8d, 242		; 000000f2H
  0018e	8b 94 24 68 01
	00 00		 mov	 edx, DWORD PTR ix$[rsp]
  00195	48 8b 8c 24 60
	01 00 00	 mov	 rcx, QWORD PTR dev$[rsp]
  0019d	e8 00 00 00 00	 call	 serverError

; 1691 :                          "device not initialized");
; 1692 :             break;

  001a2	e9 93 1d 00 00	 jmp	 $LN5@serverRequ
$LN72@serverRequ:

; 1693 :         }
; 1694 :         if ((flag >> 4) != SHARED_VERSION)

  001a7	0f b6 44 24 41	 movzx	 eax, BYTE PTR flag$[rsp]
  001ac	c1 f8 04	 sar	 eax, 4
  001af	85 c0		 test	 eax, eax
  001b1	74 33		 je	 SHORT $LN73@serverRequ

; 1695 :         {
; 1696 :             serverError (dev, ix, SHRD_ERROR_BADVERS, cmd,

  001b3	0f b6 44 24 40	 movzx	 eax, BYTE PTR cmd$[rsp]
  001b8	48 8d 0d 00 00
	00 00		 lea	 rcx, OFFSET FLAT:$SG170055
  001bf	48 89 4c 24 20	 mov	 QWORD PTR [rsp+32], rcx
  001c4	44 8b c8	 mov	 r9d, eax
  001c7	41 b8 f1 00 00
	00		 mov	 r8d, 241		; 000000f1H
  001cd	8b 94 24 68 01
	00 00		 mov	 edx, DWORD PTR ix$[rsp]
  001d4	48 8b 8c 24 60
	01 00 00	 mov	 rcx, QWORD PTR dev$[rsp]
  001dc	e8 00 00 00 00	 call	 serverError

; 1697 :                          "shared version mismatch");
; 1698 :             break;

  001e1	e9 54 1d 00 00	 jmp	 $LN5@serverRequ
$LN73@serverRequ:

; 1699 :         }
; 1700 :         dev->shrd[ix]->release = flag & 0x0f;

  001e6	0f b6 44 24 41	 movzx	 eax, BYTE PTR flag$[rsp]
  001eb	83 e0 0f	 and	 eax, 15
  001ee	48 63 8c 24 68
	01 00 00	 movsxd	 rcx, DWORD PTR ix$[rsp]
  001f6	48 8b 94 24 60
	01 00 00	 mov	 rdx, QWORD PTR dev$[rsp]
  001fe	48 8b 8c ca 60
	06 00 00	 mov	 rcx, QWORD PTR [rdx+rcx*8+1632]
  00206	89 41 18	 mov	 DWORD PTR [rcx+24], eax
$LN9@serverRequ:

; 1701 :         SHRD_SET_HDR (hdr, 0, (SHARED_VERSION << 4) | SHARED_RELEASE, dev->devnum, id, 2);

  00209	48 8b 84 24 70
	01 00 00	 mov	 rax, QWORD PTR hdr$[rsp]
  00211	48 89 84 24 80
	00 00 00	 mov	 QWORD PTR shdr$3[rsp], rax
  00219	48 8b 84 24 80
	00 00 00	 mov	 rax, QWORD PTR shdr$3[rsp]
  00221	c6 00 00	 mov	 BYTE PTR [rax], 0
  00224	48 8b 84 24 80
	00 00 00	 mov	 rax, QWORD PTR shdr$3[rsp]
  0022c	c6 40 01 02	 mov	 BYTE PTR [rax+1], 2
  00230	48 8b 84 24 60
	01 00 00	 mov	 rax, QWORD PTR dev$[rsp]
  00238	0f b7 48 48	 movzx	 ecx, WORD PTR [rax+72]
  0023c	e8 00 00 00 00	 call	 _byteswap_ushort
  00241	48 8b 8c 24 80
	00 00 00	 mov	 rcx, QWORD PTR shdr$3[rsp]
  00249	48 83 c1 02	 add	 rcx, 2
  0024d	0f b7 d0	 movzx	 edx, ax
  00250	e8 00 00 00 00	 call	 store_hw_noswap
  00255	66 b9 02 00	 mov	 cx, 2
  00259	e8 00 00 00 00	 call	 _byteswap_ushort
  0025e	48 8b 8c 24 80
	00 00 00	 mov	 rcx, QWORD PTR shdr$3[rsp]
  00266	48 83 c1 04	 add	 rcx, 4
  0026a	0f b7 d0	 movzx	 edx, ax
  0026d	e8 00 00 00 00	 call	 store_hw_noswap
  00272	0f b7 4c 24 44	 movzx	 ecx, WORD PTR id$[rsp]
  00277	e8 00 00 00 00	 call	 _byteswap_ushort
  0027c	48 8b 8c 24 80
	00 00 00	 mov	 rcx, QWORD PTR shdr$3[rsp]
  00284	48 83 c1 06	 add	 rcx, 6
  00288	0f b7 d0	 movzx	 edx, ax
  0028b	e8 00 00 00 00	 call	 store_hw_noswap
  00290	33 c0		 xor	 eax, eax
  00292	85 c0		 test	 eax, eax
  00294	0f 85 6f ff ff
	ff		 jne	 $LN9@serverRequ

; 1702 :         store_hw (buf, id);

  0029a	0f b7 4c 24 44	 movzx	 ecx, WORD PTR id$[rsp]
  0029f	e8 00 00 00 00	 call	 _byteswap_ushort
  002a4	0f b7 d0	 movzx	 edx, ax
  002a7	48 8b 8c 24 78
	01 00 00	 mov	 rcx, QWORD PTR buf$[rsp]
  002af	e8 00 00 00 00	 call	 store_hw_noswap

; 1703 :         serverSend (dev, ix, hdr, buf, 2);

  002b4	c7 44 24 20 02
	00 00 00	 mov	 DWORD PTR [rsp+32], 2
  002bc	4c 8b 8c 24 78
	01 00 00	 mov	 r9, QWORD PTR buf$[rsp]
  002c4	4c 8b 84 24 70
	01 00 00	 mov	 r8, QWORD PTR hdr$[rsp]
  002cc	8b 94 24 68 01
	00 00		 mov	 edx, DWORD PTR ix$[rsp]
  002d3	48 8b 8c 24 60
	01 00 00	 mov	 rcx, QWORD PTR dev$[rsp]
  002db	e8 00 00 00 00	 call	 serverSend

; 1704 :         break;

  002e0	e9 55 1c 00 00	 jmp	 $LN5@serverRequ
$LN74@serverRequ:
$LN12@serverRequ:

; 1705 : 
; 1706 :     case SHRD_DISCONNECT:
; 1707 :         SHRD_SET_HDR (hdr, 0, 0, dev->devnum, id, 0);

  002e5	48 8b 84 24 70
	01 00 00	 mov	 rax, QWORD PTR hdr$[rsp]
  002ed	48 89 84 24 88
	00 00 00	 mov	 QWORD PTR shdr$4[rsp], rax
  002f5	48 8b 84 24 88
	00 00 00	 mov	 rax, QWORD PTR shdr$4[rsp]
  002fd	c6 00 00	 mov	 BYTE PTR [rax], 0
  00300	48 8b 84 24 88
	00 00 00	 mov	 rax, QWORD PTR shdr$4[rsp]
  00308	c6 40 01 00	 mov	 BYTE PTR [rax+1], 0
  0030c	48 8b 84 24 60
	01 00 00	 mov	 rax, QWORD PTR dev$[rsp]
  00314	0f b7 48 48	 movzx	 ecx, WORD PTR [rax+72]
  00318	e8 00 00 00 00	 call	 _byteswap_ushort
  0031d	48 8b 8c 24 88
	00 00 00	 mov	 rcx, QWORD PTR shdr$4[rsp]
  00325	48 83 c1 02	 add	 rcx, 2
  00329	0f b7 d0	 movzx	 edx, ax
  0032c	e8 00 00 00 00	 call	 store_hw_noswap
  00331	33 c9		 xor	 ecx, ecx
  00333	e8 00 00 00 00	 call	 _byteswap_ushort
  00338	48 8b 8c 24 88
	00 00 00	 mov	 rcx, QWORD PTR shdr$4[rsp]
  00340	48 83 c1 04	 add	 rcx, 4
  00344	0f b7 d0	 movzx	 edx, ax
  00347	e8 00 00 00 00	 call	 store_hw_noswap
  0034c	0f b7 4c 24 44	 movzx	 ecx, WORD PTR id$[rsp]
  00351	e8 00 00 00 00	 call	 _byteswap_ushort
  00356	48 8b 8c 24 88
	00 00 00	 mov	 rcx, QWORD PTR shdr$4[rsp]
  0035e	48 83 c1 06	 add	 rcx, 6
  00362	0f b7 d0	 movzx	 edx, ax
  00365	e8 00 00 00 00	 call	 store_hw_noswap
  0036a	33 c0		 xor	 eax, eax
  0036c	85 c0		 test	 eax, eax
  0036e	0f 85 71 ff ff
	ff		 jne	 $LN12@serverRequ

; 1708 :         serverSend (dev, ix, hdr, NULL, 0);

  00374	c7 44 24 20 00
	00 00 00	 mov	 DWORD PTR [rsp+32], 0
  0037c	45 33 c9	 xor	 r9d, r9d
  0037f	4c 8b 84 24 70
	01 00 00	 mov	 r8, QWORD PTR hdr$[rsp]
  00387	8b 94 24 68 01
	00 00		 mov	 edx, DWORD PTR ix$[rsp]
  0038e	48 8b 8c 24 60
	01 00 00	 mov	 rcx, QWORD PTR dev$[rsp]
  00396	e8 00 00 00 00	 call	 serverSend

; 1709 :         dev->shrd[ix]->disconnect = 1;

  0039b	48 63 84 24 68
	01 00 00	 movsxd	 rax, DWORD PTR ix$[rsp]
  003a3	48 8b 8c 24 60
	01 00 00	 mov	 rcx, QWORD PTR dev$[rsp]
  003ab	48 8b 84 c1 60
	06 00 00	 mov	 rax, QWORD PTR [rcx+rax*8+1632]
  003b3	8b 40 24	 mov	 eax, DWORD PTR [rax+36]
  003b6	83 c8 08	 or	 eax, 8
  003b9	48 63 8c 24 68
	01 00 00	 movsxd	 rcx, DWORD PTR ix$[rsp]
  003c1	48 8b 94 24 60
	01 00 00	 mov	 rdx, QWORD PTR dev$[rsp]
  003c9	48 8b 8c ca 60
	06 00 00	 mov	 rcx, QWORD PTR [rdx+rcx*8+1632]
  003d1	89 41 24	 mov	 DWORD PTR [rcx+36], eax

; 1710 : 
; 1711 :         obtain_lock (&dev->lock);

  003d4	48 8b 84 24 60
	01 00 00	 mov	 rax, QWORD PTR dev$[rsp]
  003dc	48 83 c0 38	 add	 rax, 56			; 00000038H
  003e0	48 8d 15 00 00
	00 00		 lea	 rdx, OFFSET FLAT:$SG170057
  003e7	48 8b c8	 mov	 rcx, rax
  003ea	ff 15 00 00 00
	00		 call	 QWORD PTR __imp_hthread_obtain_lock

; 1712 : 
; 1713 :         /* Make the device available if this system active on it */
; 1714 :         if (dev->shioactive == id)

  003f0	48 8b 84 24 60
	01 00 00	 mov	 rax, QWORD PTR dev$[rsp]
  003f8	8b 4c 24 44	 mov	 ecx, DWORD PTR id$[rsp]
  003fc	39 88 e4 05 00
	00		 cmp	 DWORD PTR [rax+1508], ecx
  00402	0f 85 8d 00 00
	00		 jne	 $LN75@serverRequ

; 1715 :         {
; 1716 :             if (!dev->suspended)

  00408	48 8b 84 24 60
	01 00 00	 mov	 rax, QWORD PTR dev$[rsp]
  00410	8b 80 f8 05 00
	00		 mov	 eax, DWORD PTR [rax+1528]
  00416	c1 e8 15	 shr	 eax, 21
  00419	83 e0 01	 and	 eax, 1
  0041c	85 c0		 test	 eax, eax
  0041e	75 34		 jne	 SHORT $LN76@serverRequ

; 1717 :             {
; 1718 :                 dev->busy = 0;

  00420	48 8b 84 24 60
	01 00 00	 mov	 rax, QWORD PTR dev$[rsp]
  00428	8b 80 f8 05 00
	00		 mov	 eax, DWORD PTR [rax+1528]
  0042e	0f ba f0 13	 btr	 eax, 19
  00432	48 8b 8c 24 60
	01 00 00	 mov	 rcx, QWORD PTR dev$[rsp]
  0043a	89 81 f8 05 00
	00		 mov	 DWORD PTR [rcx+1528], eax

; 1719 :                 dev->shioactive = DEV_SYS_NONE;

  00440	48 8b 84 24 60
	01 00 00	 mov	 rax, QWORD PTR dev$[rsp]
  00448	c7 80 e4 05 00
	00 00 00 00 00	 mov	 DWORD PTR [rax+1508], 0

; 1720 :             }

  00452	eb 12		 jmp	 SHORT $LN77@serverRequ
$LN76@serverRequ:

; 1721 :             else
; 1722 :                 dev->shioactive = DEV_SYS_LOCAL;

  00454	48 8b 84 24 60
	01 00 00	 mov	 rax, QWORD PTR dev$[rsp]
  0045c	c7 80 e4 05 00
	00 ff ff 00 00	 mov	 DWORD PTR [rax+1508], 65535 ; 0000ffffH
$LN77@serverRequ:

; 1723 :             if (dev->shiowaiters)

  00466	48 8b 84 24 60
	01 00 00	 mov	 rax, QWORD PTR dev$[rsp]
  0046e	83 b8 e0 05 00
	00 00		 cmp	 DWORD PTR [rax+1504], 0
  00475	74 1e		 je	 SHORT $LN78@serverRequ

; 1724 :                 signal_condition (&dev->shiocond);

  00477	48 8b 84 24 60
	01 00 00	 mov	 rax, QWORD PTR dev$[rsp]
  0047f	48 05 d8 05 00
	00		 add	 rax, 1496		; 000005d8H
  00485	48 8d 15 00 00
	00 00		 lea	 rdx, OFFSET FLAT:$SG170062
  0048c	48 8b c8	 mov	 rcx, rax
  0048f	ff 15 00 00 00
	00		 call	 QWORD PTR __imp_hthread_signal_condition
$LN78@serverRequ:
$LN75@serverRequ:

; 1725 :         }
; 1726 : 
; 1727 :         release_lock (&dev->lock);

  00495	48 8b 84 24 60
	01 00 00	 mov	 rax, QWORD PTR dev$[rsp]
  0049d	48 83 c0 38	 add	 rax, 56			; 00000038H
  004a1	48 8d 15 00 00
	00 00		 lea	 rdx, OFFSET FLAT:$SG170063
  004a8	48 8b c8	 mov	 rcx, rax
  004ab	ff 15 00 00 00
	00		 call	 QWORD PTR __imp_hthread_release_lock

; 1728 :         break;

  004b1	e9 84 1a 00 00	 jmp	 $LN5@serverRequ
$LN79@serverRequ:
$LN80@serverRequ:

; 1729 : 
; 1730 :     case SHRD_START:
; 1731 :     case SHRD_RESUME:
; 1732 : 
; 1733 :         obtain_lock (&dev->lock);

  004b6	48 8b 84 24 60
	01 00 00	 mov	 rax, QWORD PTR dev$[rsp]
  004be	48 83 c0 38	 add	 rax, 56			; 00000038H
  004c2	48 8d 15 00 00
	00 00		 lea	 rdx, OFFSET FLAT:$SG170066
  004c9	48 8b c8	 mov	 rcx, rax
  004cc	ff 15 00 00 00
	00		 call	 QWORD PTR __imp_hthread_obtain_lock

; 1734 : 
; 1735 :         /* If the device is suspended locally then grab it */
; 1736 :         if (dev->shioactive == DEV_SYS_LOCAL && dev->suspended && !dev->reserved)

  004d2	48 8b 84 24 60
	01 00 00	 mov	 rax, QWORD PTR dev$[rsp]
  004da	81 b8 e4 05 00
	00 ff ff 00 00	 cmp	 DWORD PTR [rax+1508], 65535 ; 0000ffffH
  004e4	75 42		 jne	 SHORT $LN81@serverRequ
  004e6	48 8b 84 24 60
	01 00 00	 mov	 rax, QWORD PTR dev$[rsp]
  004ee	8b 80 f8 05 00
	00		 mov	 eax, DWORD PTR [rax+1528]
  004f4	c1 e8 15	 shr	 eax, 21
  004f7	83 e0 01	 and	 eax, 1
  004fa	85 c0		 test	 eax, eax
  004fc	74 2a		 je	 SHORT $LN81@serverRequ
  004fe	48 8b 84 24 60
	01 00 00	 mov	 rax, QWORD PTR dev$[rsp]
  00506	8b 80 f8 05 00
	00		 mov	 eax, DWORD PTR [rax+1528]
  0050c	c1 e8 14	 shr	 eax, 20
  0050f	83 e0 01	 and	 eax, 1
  00512	85 c0		 test	 eax, eax
  00514	75 12		 jne	 SHORT $LN81@serverRequ

; 1737 :             dev->shioactive = id;

  00516	48 8b 84 24 60
	01 00 00	 mov	 rax, QWORD PTR dev$[rsp]
  0051e	8b 4c 24 44	 mov	 ecx, DWORD PTR id$[rsp]
  00522	89 88 e4 05 00
	00		 mov	 DWORD PTR [rax+1508], ecx
$LN81@serverRequ:

; 1738 : 
; 1739 :         /* Check if the device is busy */
; 1740 :         if (dev->shioactive != id && dev->shioactive != DEV_SYS_NONE)

  00528	48 8b 84 24 60
	01 00 00	 mov	 rax, QWORD PTR dev$[rsp]
  00530	8b 4c 24 44	 mov	 ecx, DWORD PTR id$[rsp]
  00534	39 88 e4 05 00
	00		 cmp	 DWORD PTR [rax+1508], ecx
  0053a	0f 84 92 02 00
	00		 je	 $LN82@serverRequ
  00540	48 8b 84 24 60
	01 00 00	 mov	 rax, QWORD PTR dev$[rsp]
  00548	83 b8 e4 05 00
	00 00		 cmp	 DWORD PTR [rax+1508], 0
  0054f	0f 84 7d 02 00
	00		 je	 $LN82@serverRequ

; 1741 :         {
; 1742 :             SHRDTRACE( "server request busy id=%d shioactive=%d reserved=%d",

  00555	48 8b 84 24 60
	01 00 00	 mov	 rax, QWORD PTR dev$[rsp]
  0055d	8b 80 f8 05 00
	00		 mov	 eax, DWORD PTR [rax+1528]
  00563	c1 e8 14	 shr	 eax, 20
  00566	83 e0 01	 and	 eax, 1
  00569	89 44 24 20	 mov	 DWORD PTR [rsp+32], eax
  0056d	48 8b 84 24 60
	01 00 00	 mov	 rax, QWORD PTR dev$[rsp]
  00575	44 8b 88 e4 05
	00 00		 mov	 r9d, DWORD PTR [rax+1508]
  0057c	44 8b 44 24 44	 mov	 r8d, DWORD PTR id$[rsp]
  00581	48 8d 15 00 00
	00 00		 lea	 rdx, OFFSET FLAT:$SG170069
  00588	48 8b 8c 24 60
	01 00 00	 mov	 rcx, QWORD PTR dev$[rsp]
  00590	e8 00 00 00 00	 call	 shrdtrc

; 1743 :                     id, dev->shioactive, dev->reserved );
; 1744 :             /* If the 'nowait' bit is on then respond 'busy' */
; 1745 :             if (flag & SHRD_NOWAIT)

  00595	0f b6 44 24 41	 movzx	 eax, BYTE PTR flag$[rsp]
  0059a	25 80 00 00 00	 and	 eax, 128		; 00000080H
  0059f	85 c0		 test	 eax, eax
  005a1	0f 84 d7 00 00
	00		 je	 $LN83@serverRequ

; 1746 :             {
; 1747 :                 release_lock (&dev->lock);

  005a7	48 8b 84 24 60
	01 00 00	 mov	 rax, QWORD PTR dev$[rsp]
  005af	48 83 c0 38	 add	 rax, 56			; 00000038H
  005b3	48 8d 15 00 00
	00 00		 lea	 rdx, OFFSET FLAT:$SG170071
  005ba	48 8b c8	 mov	 rcx, rax
  005bd	ff 15 00 00 00
	00		 call	 QWORD PTR __imp_hthread_release_lock
$LN15@serverRequ:

; 1748 :                 SHRD_SET_HDR (hdr, SHRD_BUSY, 0, dev->devnum, id, 0);

  005c3	48 8b 84 24 70
	01 00 00	 mov	 rax, QWORD PTR hdr$[rsp]
  005cb	48 89 84 24 90
	00 00 00	 mov	 QWORD PTR shdr$5[rsp], rax
  005d3	48 8b 84 24 90
	00 00 00	 mov	 rax, QWORD PTR shdr$5[rsp]
  005db	c6 00 20	 mov	 BYTE PTR [rax], 32	; 00000020H
  005de	48 8b 84 24 90
	00 00 00	 mov	 rax, QWORD PTR shdr$5[rsp]
  005e6	c6 40 01 00	 mov	 BYTE PTR [rax+1], 0
  005ea	48 8b 84 24 60
	01 00 00	 mov	 rax, QWORD PTR dev$[rsp]
  005f2	0f b7 48 48	 movzx	 ecx, WORD PTR [rax+72]
  005f6	e8 00 00 00 00	 call	 _byteswap_ushort
  005fb	48 8b 8c 24 90
	00 00 00	 mov	 rcx, QWORD PTR shdr$5[rsp]
  00603	48 83 c1 02	 add	 rcx, 2
  00607	0f b7 d0	 movzx	 edx, ax
  0060a	e8 00 00 00 00	 call	 store_hw_noswap
  0060f	33 c9		 xor	 ecx, ecx
  00611	e8 00 00 00 00	 call	 _byteswap_ushort
  00616	48 8b 8c 24 90
	00 00 00	 mov	 rcx, QWORD PTR shdr$5[rsp]
  0061e	48 83 c1 04	 add	 rcx, 4
  00622	0f b7 d0	 movzx	 edx, ax
  00625	e8 00 00 00 00	 call	 store_hw_noswap
  0062a	0f b7 4c 24 44	 movzx	 ecx, WORD PTR id$[rsp]
  0062f	e8 00 00 00 00	 call	 _byteswap_ushort
  00634	48 8b 8c 24 90
	00 00 00	 mov	 rcx, QWORD PTR shdr$5[rsp]
  0063c	48 83 c1 06	 add	 rcx, 6
  00640	0f b7 d0	 movzx	 edx, ax
  00643	e8 00 00 00 00	 call	 store_hw_noswap
  00648	33 c0		 xor	 eax, eax
  0064a	85 c0		 test	 eax, eax
  0064c	0f 85 71 ff ff
	ff		 jne	 $LN15@serverRequ

; 1749 :                 serverSend (dev, ix, hdr, NULL, 0);

  00652	c7 44 24 20 00
	00 00 00	 mov	 DWORD PTR [rsp+32], 0
  0065a	45 33 c9	 xor	 r9d, r9d
  0065d	4c 8b 84 24 70
	01 00 00	 mov	 r8, QWORD PTR hdr$[rsp]
  00665	8b 94 24 68 01
	00 00		 mov	 edx, DWORD PTR ix$[rsp]
  0066c	48 8b 8c 24 60
	01 00 00	 mov	 rcx, QWORD PTR dev$[rsp]
  00674	e8 00 00 00 00	 call	 serverSend

; 1750 :                 break;

  00679	e9 bc 18 00 00	 jmp	 $LN5@serverRequ
$LN83@serverRequ:

; 1751 :             }
; 1752 : 
; 1753 :             dev->shrd[ix]->waiting = 1;

  0067e	48 63 84 24 68
	01 00 00	 movsxd	 rax, DWORD PTR ix$[rsp]
  00686	48 8b 8c 24 60
	01 00 00	 mov	 rcx, QWORD PTR dev$[rsp]
  0068e	48 8b 84 c1 60
	06 00 00	 mov	 rax, QWORD PTR [rcx+rax*8+1632]
  00696	8b 40 24	 mov	 eax, DWORD PTR [rax+36]
  00699	83 c8 02	 or	 eax, 2
  0069c	48 63 8c 24 68
	01 00 00	 movsxd	 rcx, DWORD PTR ix$[rsp]
  006a4	48 8b 94 24 60
	01 00 00	 mov	 rdx, QWORD PTR dev$[rsp]
  006ac	48 8b 8c ca 60
	06 00 00	 mov	 rcx, QWORD PTR [rdx+rcx*8+1632]
  006b4	89 41 24	 mov	 DWORD PTR [rcx+36], eax
$LN16@serverRequ:

; 1754 : 
; 1755 :             /* Wait while the device is busy by the local system */
; 1756 :             while (dev->shioactive == DEV_SYS_LOCAL && !dev->suspended)

  006b7	48 8b 84 24 60
	01 00 00	 mov	 rax, QWORD PTR dev$[rsp]
  006bf	81 b8 e4 05 00
	00 ff ff 00 00	 cmp	 DWORD PTR [rax+1508], 65535 ; 0000ffffH
  006c9	0f 85 84 00 00
	00		 jne	 $LN17@serverRequ
  006cf	48 8b 84 24 60
	01 00 00	 mov	 rax, QWORD PTR dev$[rsp]
  006d7	8b 80 f8 05 00
	00		 mov	 eax, DWORD PTR [rax+1528]
  006dd	c1 e8 15	 shr	 eax, 21
  006e0	83 e0 01	 and	 eax, 1
  006e3	85 c0		 test	 eax, eax
  006e5	75 6c		 jne	 SHORT $LN17@serverRequ

; 1757 :             {
; 1758 :                 dev->shiowaiters++;

  006e7	48 8b 84 24 60
	01 00 00	 mov	 rax, QWORD PTR dev$[rsp]
  006ef	8b 80 e0 05 00
	00		 mov	 eax, DWORD PTR [rax+1504]
  006f5	ff c0		 inc	 eax
  006f7	48 8b 8c 24 60
	01 00 00	 mov	 rcx, QWORD PTR dev$[rsp]
  006ff	89 81 e0 05 00
	00		 mov	 DWORD PTR [rcx+1504], eax

; 1759 :                 wait_condition (&dev->shiocond, &dev->lock);

  00705	48 8b 84 24 60
	01 00 00	 mov	 rax, QWORD PTR dev$[rsp]
  0070d	48 83 c0 38	 add	 rax, 56			; 00000038H
  00711	48 8b 8c 24 60
	01 00 00	 mov	 rcx, QWORD PTR dev$[rsp]
  00719	48 81 c1 d8 05
	00 00		 add	 rcx, 1496		; 000005d8H
  00720	4c 8d 05 00 00
	00 00		 lea	 r8, OFFSET FLAT:$SG170072
  00727	48 8b d0	 mov	 rdx, rax
  0072a	ff 15 00 00 00
	00		 call	 QWORD PTR __imp_hthread_wait_condition

; 1760 :                 dev->shiowaiters--;

  00730	48 8b 84 24 60
	01 00 00	 mov	 rax, QWORD PTR dev$[rsp]
  00738	8b 80 e0 05 00
	00		 mov	 eax, DWORD PTR [rax+1504]
  0073e	ff c8		 dec	 eax
  00740	48 8b 8c 24 60
	01 00 00	 mov	 rcx, QWORD PTR dev$[rsp]
  00748	89 81 e0 05 00
	00		 mov	 DWORD PTR [rcx+1504], eax

; 1761 :             }

  0074e	e9 64 ff ff ff	 jmp	 $LN16@serverRequ
$LN17@serverRequ:

; 1762 : 
; 1763 :             /* Return with the 'waiting' bit on if busy by a remote system */
; 1764 :             if (dev->shioactive != DEV_SYS_NONE && dev->shioactive != DEV_SYS_LOCAL)

  00753	48 8b 84 24 60
	01 00 00	 mov	 rax, QWORD PTR dev$[rsp]
  0075b	83 b8 e4 05 00
	00 00		 cmp	 DWORD PTR [rax+1508], 0
  00762	74 35		 je	 SHORT $LN84@serverRequ
  00764	48 8b 84 24 60
	01 00 00	 mov	 rax, QWORD PTR dev$[rsp]
  0076c	81 b8 e4 05 00
	00 ff ff 00 00	 cmp	 DWORD PTR [rax+1508], 65535 ; 0000ffffH
  00776	74 21		 je	 SHORT $LN84@serverRequ

; 1765 :             {
; 1766 :                 release_lock (&dev->lock);

  00778	48 8b 84 24 60
	01 00 00	 mov	 rax, QWORD PTR dev$[rsp]
  00780	48 83 c0 38	 add	 rax, 56			; 00000038H
  00784	48 8d 15 00 00
	00 00		 lea	 rdx, OFFSET FLAT:$SG170074
  0078b	48 8b c8	 mov	 rcx, rax
  0078e	ff 15 00 00 00
	00		 call	 QWORD PTR __imp_hthread_release_lock

; 1767 :                 break;

  00794	e9 a1 17 00 00	 jmp	 $LN5@serverRequ
$LN84@serverRequ:

; 1768 :             }
; 1769 : 
; 1770 :             dev->shrd[ix]->waiting = 0;

  00799	48 63 84 24 68
	01 00 00	 movsxd	 rax, DWORD PTR ix$[rsp]
  007a1	48 8b 8c 24 60
	01 00 00	 mov	 rcx, QWORD PTR dev$[rsp]
  007a9	48 8b 84 c1 60
	06 00 00	 mov	 rax, QWORD PTR [rcx+rax*8+1632]
  007b1	8b 40 24	 mov	 eax, DWORD PTR [rax+36]
  007b4	83 e0 fd	 and	 eax, -3			; fffffffdH
  007b7	48 63 8c 24 68
	01 00 00	 movsxd	 rcx, DWORD PTR ix$[rsp]
  007bf	48 8b 94 24 60
	01 00 00	 mov	 rdx, QWORD PTR dev$[rsp]
  007c7	48 8b 8c ca 60
	06 00 00	 mov	 rcx, QWORD PTR [rdx+rcx*8+1632]
  007cf	89 41 24	 mov	 DWORD PTR [rcx+36], eax
$LN82@serverRequ:

; 1771 :         }
; 1772 : 
; 1773 :         /* Make this system active on the device */
; 1774 :         dev->shioactive = id;

  007d2	48 8b 84 24 60
	01 00 00	 mov	 rax, QWORD PTR dev$[rsp]
  007da	8b 4c 24 44	 mov	 ecx, DWORD PTR id$[rsp]
  007de	89 88 e4 05 00
	00		 mov	 DWORD PTR [rax+1508], ecx

; 1775 :         dev->busy = 1;

  007e4	48 8b 84 24 60
	01 00 00	 mov	 rax, QWORD PTR dev$[rsp]
  007ec	8b 80 f8 05 00
	00		 mov	 eax, DWORD PTR [rax+1528]
  007f2	0f ba e8 13	 bts	 eax, 19
  007f6	48 8b 8c 24 60
	01 00 00	 mov	 rcx, QWORD PTR dev$[rsp]
  007fe	89 81 f8 05 00
	00		 mov	 DWORD PTR [rcx+1528], eax

; 1776 :         sysblk.shrdcount++;

  00804	48 8b 05 00 00
	00 00		 mov	 rax, QWORD PTR __imp_sysblk
  0080b	8b 80 b0 13 00
	00		 mov	 eax, DWORD PTR [rax+5040]
  00811	ff c0		 inc	 eax
  00813	48 8b 0d 00 00
	00 00		 mov	 rcx, QWORD PTR __imp_sysblk
  0081a	89 81 b0 13 00
	00		 mov	 DWORD PTR [rcx+5040], eax

; 1777 :         SHRDTRACE( "server request active id=%d", id );

  00820	44 8b 44 24 44	 mov	 r8d, DWORD PTR id$[rsp]
  00825	48 8d 15 00 00
	00 00		 lea	 rdx, OFFSET FLAT:$SG170075
  0082c	48 8b 8c 24 60
	01 00 00	 mov	 rcx, QWORD PTR dev$[rsp]
  00834	e8 00 00 00 00	 call	 shrdtrc

; 1778 : 
; 1779 :         /* Increment excp count */
; 1780 :         dev->excps++;

  00839	48 8b 84 24 60
	01 00 00	 mov	 rax, QWORD PTR dev$[rsp]
  00841	48 8b 80 00 06
	00 00		 mov	 rax, QWORD PTR [rax+1536]
  00848	48 ff c0	 inc	 rax
  0084b	48 8b 8c 24 60
	01 00 00	 mov	 rcx, QWORD PTR dev$[rsp]
  00853	48 89 81 00 06
	00 00		 mov	 QWORD PTR [rcx+1536], rax

; 1781 : 
; 1782 :         release_lock(&dev->lock);

  0085a	48 8b 84 24 60
	01 00 00	 mov	 rax, QWORD PTR dev$[rsp]
  00862	48 83 c0 38	 add	 rax, 56			; 00000038H
  00866	48 8d 15 00 00
	00 00		 lea	 rdx, OFFSET FLAT:$SG170076
  0086d	48 8b c8	 mov	 rcx, rax
  00870	ff 15 00 00 00
	00		 call	 QWORD PTR __imp_hthread_release_lock

; 1783 : 
; 1784 :         /* Call the i/o start or resume exit */
; 1785 :         if (cmd == SHRD_START && dev->hnd->start)

  00876	0f b6 44 24 40	 movzx	 eax, BYTE PTR cmd$[rsp]
  0087b	3d e2 00 00 00	 cmp	 eax, 226		; 000000e2H
  00880	75 32		 jne	 SHORT $LN85@serverRequ
  00882	48 8b 84 24 60
	01 00 00	 mov	 rax, QWORD PTR dev$[rsp]
  0088a	48 8b 80 90 02
	00 00		 mov	 rax, QWORD PTR [rax+656]
  00891	48 83 78 28 00	 cmp	 QWORD PTR [rax+40], 0
  00896	74 1c		 je	 SHORT $LN85@serverRequ

; 1786 :             (dev->hnd->start) (dev);

  00898	48 8b 84 24 60
	01 00 00	 mov	 rax, QWORD PTR dev$[rsp]
  008a0	48 8b 80 90 02
	00 00		 mov	 rax, QWORD PTR [rax+656]
  008a7	48 8b 8c 24 60
	01 00 00	 mov	 rcx, QWORD PTR dev$[rsp]
  008af	ff 50 28	 call	 QWORD PTR [rax+40]
  008b2	eb 3c		 jmp	 SHORT $LN86@serverRequ
$LN85@serverRequ:

; 1787 :         else if (cmd == SHRD_RESUME && dev->hnd->resume)

  008b4	0f b6 44 24 40	 movzx	 eax, BYTE PTR cmd$[rsp]
  008b9	3d e4 00 00 00	 cmp	 eax, 228		; 000000e4H
  008be	75 30		 jne	 SHORT $LN87@serverRequ
  008c0	48 8b 84 24 60
	01 00 00	 mov	 rax, QWORD PTR dev$[rsp]
  008c8	48 8b 80 90 02
	00 00		 mov	 rax, QWORD PTR [rax+656]
  008cf	48 83 78 38 00	 cmp	 QWORD PTR [rax+56], 0
  008d4	74 1a		 je	 SHORT $LN87@serverRequ

; 1788 :             (dev->hnd->resume) (dev);

  008d6	48 8b 84 24 60
	01 00 00	 mov	 rax, QWORD PTR dev$[rsp]
  008de	48 8b 80 90 02
	00 00		 mov	 rax, QWORD PTR [rax+656]
  008e5	48 8b 8c 24 60
	01 00 00	 mov	 rcx, QWORD PTR dev$[rsp]
  008ed	ff 50 38	 call	 QWORD PTR [rax+56]
$LN87@serverRequ:
$LN86@serverRequ:

; 1789 : 
; 1790 :         /* Get the purge list */
; 1791 :         if (dev->shrd[ix]->purgen == 0)

  008f0	48 63 84 24 68
	01 00 00	 movsxd	 rax, DWORD PTR ix$[rsp]
  008f8	48 8b 8c 24 60
	01 00 00	 mov	 rcx, QWORD PTR dev$[rsp]
  00900	48 8b 84 c1 60
	06 00 00	 mov	 rax, QWORD PTR [rcx+rax*8+1632]
  00908	83 78 30 00	 cmp	 DWORD PTR [rax+48], 0
  0090c	75 12		 jne	 SHORT $LN88@serverRequ

; 1792 :             code = len = 0;

  0090e	c7 44 24 4c 00
	00 00 00	 mov	 DWORD PTR len$[rsp], 0
  00916	8b 44 24 4c	 mov	 eax, DWORD PTR len$[rsp]
  0091a	89 44 24 50	 mov	 DWORD PTR code$[rsp], eax
  0091e	eb 52		 jmp	 SHORT $LN89@serverRequ
$LN88@serverRequ:

; 1793 :         else
; 1794 :         {
; 1795 :             code = SHRD_PURGE;

  00920	c7 44 24 50 08
	00 00 00	 mov	 DWORD PTR code$[rsp], 8

; 1796 :             if (dev->shrd[ix]->purgen < 0)

  00928	48 63 84 24 68
	01 00 00	 movsxd	 rax, DWORD PTR ix$[rsp]
  00930	48 8b 8c 24 60
	01 00 00	 mov	 rcx, QWORD PTR dev$[rsp]
  00938	48 8b 84 c1 60
	06 00 00	 mov	 rax, QWORD PTR [rcx+rax*8+1632]
  00940	83 78 30 00	 cmp	 DWORD PTR [rax+48], 0
  00944	7d 0a		 jge	 SHORT $LN90@serverRequ

; 1797 :                 len = 0;

  00946	c7 44 24 4c 00
	00 00 00	 mov	 DWORD PTR len$[rsp], 0
  0094e	eb 22		 jmp	 SHORT $LN91@serverRequ
$LN90@serverRequ:

; 1798 :             else
; 1799 :                 len = 4 * dev->shrd[ix]->purgen;

  00950	48 63 84 24 68
	01 00 00	 movsxd	 rax, DWORD PTR ix$[rsp]
  00958	48 8b 8c 24 60
	01 00 00	 mov	 rcx, QWORD PTR dev$[rsp]
  00960	48 8b 84 c1 60
	06 00 00	 mov	 rax, QWORD PTR [rcx+rax*8+1632]
  00968	8b 40 30	 mov	 eax, DWORD PTR [rax+48]
  0096b	c1 e0 02	 shl	 eax, 2
  0096e	89 44 24 4c	 mov	 DWORD PTR len$[rsp], eax
$LN91@serverRequ:
$LN89@serverRequ:
$LN20@serverRequ:

; 1800 :         }
; 1801 : 
; 1802 :         /* Send the response */
; 1803 :         SHRD_SET_HDR (hdr, code, 0, dev->devnum, id, len);

  00972	48 8b 84 24 70
	01 00 00	 mov	 rax, QWORD PTR hdr$[rsp]
  0097a	48 89 84 24 98
	00 00 00	 mov	 QWORD PTR shdr$6[rsp], rax
  00982	48 8b 84 24 98
	00 00 00	 mov	 rax, QWORD PTR shdr$6[rsp]
  0098a	0f b6 4c 24 50	 movzx	 ecx, BYTE PTR code$[rsp]
  0098f	88 08		 mov	 BYTE PTR [rax], cl
  00991	48 8b 84 24 98
	00 00 00	 mov	 rax, QWORD PTR shdr$6[rsp]
  00999	c6 40 01 00	 mov	 BYTE PTR [rax+1], 0
  0099d	48 8b 84 24 60
	01 00 00	 mov	 rax, QWORD PTR dev$[rsp]
  009a5	0f b7 48 48	 movzx	 ecx, WORD PTR [rax+72]
  009a9	e8 00 00 00 00	 call	 _byteswap_ushort
  009ae	48 8b 8c 24 98
	00 00 00	 mov	 rcx, QWORD PTR shdr$6[rsp]
  009b6	48 83 c1 02	 add	 rcx, 2
  009ba	0f b7 d0	 movzx	 edx, ax
  009bd	e8 00 00 00 00	 call	 store_hw_noswap
  009c2	0f b7 4c 24 4c	 movzx	 ecx, WORD PTR len$[rsp]
  009c7	e8 00 00 00 00	 call	 _byteswap_ushort
  009cc	48 8b 8c 24 98
	00 00 00	 mov	 rcx, QWORD PTR shdr$6[rsp]
  009d4	48 83 c1 04	 add	 rcx, 4
  009d8	0f b7 d0	 movzx	 edx, ax
  009db	e8 00 00 00 00	 call	 store_hw_noswap
  009e0	0f b7 4c 24 44	 movzx	 ecx, WORD PTR id$[rsp]
  009e5	e8 00 00 00 00	 call	 _byteswap_ushort
  009ea	48 8b 8c 24 98
	00 00 00	 mov	 rcx, QWORD PTR shdr$6[rsp]
  009f2	48 83 c1 06	 add	 rcx, 6
  009f6	0f b7 d0	 movzx	 edx, ax
  009f9	e8 00 00 00 00	 call	 store_hw_noswap
  009fe	33 c0		 xor	 eax, eax
  00a00	85 c0		 test	 eax, eax
  00a02	0f 85 6a ff ff
	ff		 jne	 $LN20@serverRequ

; 1804 :         rc = serverSend (dev, ix, hdr, (BYTE *)dev->shrd[ix]->purge, len);

  00a08	48 63 84 24 68
	01 00 00	 movsxd	 rax, DWORD PTR ix$[rsp]
  00a10	48 8b 8c 24 60
	01 00 00	 mov	 rcx, QWORD PTR dev$[rsp]
  00a18	48 8b 84 c1 60
	06 00 00	 mov	 rax, QWORD PTR [rcx+rax*8+1632]
  00a20	48 83 c0 34	 add	 rax, 52			; 00000034H
  00a24	8b 4c 24 4c	 mov	 ecx, DWORD PTR len$[rsp]
  00a28	89 4c 24 20	 mov	 DWORD PTR [rsp+32], ecx
  00a2c	4c 8b c8	 mov	 r9, rax
  00a2f	4c 8b 84 24 70
	01 00 00	 mov	 r8, QWORD PTR hdr$[rsp]
  00a37	8b 94 24 68 01
	00 00		 mov	 edx, DWORD PTR ix$[rsp]
  00a3e	48 8b 8c 24 60
	01 00 00	 mov	 rcx, QWORD PTR dev$[rsp]
  00a46	e8 00 00 00 00	 call	 serverSend
  00a4b	89 44 24 48	 mov	 DWORD PTR rc$[rsp], eax

; 1805 :         if (rc >= 0)

  00a4f	83 7c 24 48 00	 cmp	 DWORD PTR rc$[rsp], 0
  00a54	7c 1f		 jl	 SHORT $LN92@serverRequ

; 1806 :             dev->shrd[ix]->purgen = 0;

  00a56	48 63 84 24 68
	01 00 00	 movsxd	 rax, DWORD PTR ix$[rsp]
  00a5e	48 8b 8c 24 60
	01 00 00	 mov	 rcx, QWORD PTR dev$[rsp]
  00a66	48 8b 84 c1 60
	06 00 00	 mov	 rax, QWORD PTR [rcx+rax*8+1632]
  00a6e	c7 40 30 00 00
	00 00		 mov	 DWORD PTR [rax+48], 0
$LN92@serverRequ:

; 1807 :         break;

  00a75	e9 c0 14 00 00	 jmp	 $LN5@serverRequ
$LN93@serverRequ:
$LN94@serverRequ:

; 1808 : 
; 1809 :     case SHRD_END:
; 1810 :     case SHRD_SUSPEND:
; 1811 :         /* Must be active on the device for this command */
; 1812 :         if (dev->shioactive != id)

  00a7a	48 8b 84 24 60
	01 00 00	 mov	 rax, QWORD PTR dev$[rsp]
  00a82	8b 4c 24 44	 mov	 ecx, DWORD PTR id$[rsp]
  00a86	39 88 e4 05 00
	00		 cmp	 DWORD PTR [rax+1508], ecx
  00a8c	74 33		 je	 SHORT $LN95@serverRequ

; 1813 :         {
; 1814 :             serverError (dev, ix, SHRD_ERROR_NOTACTIVE, cmd,

  00a8e	0f b6 44 24 40	 movzx	 eax, BYTE PTR cmd$[rsp]
  00a93	48 8d 0d 00 00
	00 00		 lea	 rcx, OFFSET FLAT:$SG170088
  00a9a	48 89 4c 24 20	 mov	 QWORD PTR [rsp+32], rcx
  00a9f	44 8b c8	 mov	 r9d, eax
  00aa2	41 b8 f6 00 00
	00		 mov	 r8d, 246		; 000000f6H
  00aa8	8b 94 24 68 01
	00 00		 mov	 edx, DWORD PTR ix$[rsp]
  00aaf	48 8b 8c 24 60
	01 00 00	 mov	 rcx, QWORD PTR dev$[rsp]
  00ab7	e8 00 00 00 00	 call	 serverError

; 1815 :                          "not active on this device");
; 1816 :             break;

  00abc	e9 79 14 00 00	 jmp	 $LN5@serverRequ
$LN95@serverRequ:

; 1817 :         }
; 1818 : 
; 1819 :         /* Call the I/O end/suspend exit */
; 1820 :         if (cmd == SHRD_END && dev->hnd->end)

  00ac1	0f b6 44 24 40	 movzx	 eax, BYTE PTR cmd$[rsp]
  00ac6	3d e3 00 00 00	 cmp	 eax, 227		; 000000e3H
  00acb	75 32		 jne	 SHORT $LN96@serverRequ
  00acd	48 8b 84 24 60
	01 00 00	 mov	 rax, QWORD PTR dev$[rsp]
  00ad5	48 8b 80 90 02
	00 00		 mov	 rax, QWORD PTR [rax+656]
  00adc	48 83 78 30 00	 cmp	 QWORD PTR [rax+48], 0
  00ae1	74 1c		 je	 SHORT $LN96@serverRequ

; 1821 :             (dev->hnd->end) (dev);

  00ae3	48 8b 84 24 60
	01 00 00	 mov	 rax, QWORD PTR dev$[rsp]
  00aeb	48 8b 80 90 02
	00 00		 mov	 rax, QWORD PTR [rax+656]
  00af2	48 8b 8c 24 60
	01 00 00	 mov	 rcx, QWORD PTR dev$[rsp]
  00afa	ff 50 30	 call	 QWORD PTR [rax+48]
  00afd	eb 3c		 jmp	 SHORT $LN97@serverRequ
$LN96@serverRequ:

; 1822 :         else if (cmd == SHRD_SUSPEND && dev->hnd->suspend)

  00aff	0f b6 44 24 40	 movzx	 eax, BYTE PTR cmd$[rsp]
  00b04	3d e5 00 00 00	 cmp	 eax, 229		; 000000e5H
  00b09	75 30		 jne	 SHORT $LN98@serverRequ
  00b0b	48 8b 84 24 60
	01 00 00	 mov	 rax, QWORD PTR dev$[rsp]
  00b13	48 8b 80 90 02
	00 00		 mov	 rax, QWORD PTR [rax+656]
  00b1a	48 83 78 40 00	 cmp	 QWORD PTR [rax+64], 0
  00b1f	74 1a		 je	 SHORT $LN98@serverRequ

; 1823 :             (dev->hnd->suspend) (dev);

  00b21	48 8b 84 24 60
	01 00 00	 mov	 rax, QWORD PTR dev$[rsp]
  00b29	48 8b 80 90 02
	00 00		 mov	 rax, QWORD PTR [rax+656]
  00b30	48 8b 8c 24 60
	01 00 00	 mov	 rcx, QWORD PTR dev$[rsp]
  00b38	ff 50 40	 call	 QWORD PTR [rax+64]
$LN98@serverRequ:
$LN97@serverRequ:

; 1824 : 
; 1825 :         obtain_lock (&dev->lock);

  00b3b	48 8b 84 24 60
	01 00 00	 mov	 rax, QWORD PTR dev$[rsp]
  00b43	48 83 c0 38	 add	 rax, 56			; 00000038H
  00b47	48 8d 15 00 00
	00 00		 lea	 rdx, OFFSET FLAT:$SG170092
  00b4e	48 8b c8	 mov	 rcx, rax
  00b51	ff 15 00 00 00
	00		 call	 QWORD PTR __imp_hthread_obtain_lock

; 1826 : 
; 1827 :         /* Make the device available if it's not reserved */
; 1828 :         if (!dev->reserved)

  00b57	48 8b 84 24 60
	01 00 00	 mov	 rax, QWORD PTR dev$[rsp]
  00b5f	8b 80 f8 05 00
	00		 mov	 eax, DWORD PTR [rax+1528]
  00b65	c1 e8 14	 shr	 eax, 20
  00b68	83 e0 01	 and	 eax, 1
  00b6b	85 c0		 test	 eax, eax
  00b6d	0f 85 15 01 00
	00		 jne	 $LN99@serverRequ

; 1829 :         {
; 1830 :             /* If locally suspended then return the device to local */
; 1831 :             if (dev->suspended)

  00b73	48 8b 84 24 60
	01 00 00	 mov	 rax, QWORD PTR dev$[rsp]
  00b7b	8b 80 f8 05 00
	00		 mov	 eax, DWORD PTR [rax+1528]
  00b81	c1 e8 15	 shr	 eax, 21
  00b84	83 e0 01	 and	 eax, 1
  00b87	85 c0		 test	 eax, eax
  00b89	74 34		 je	 SHORT $LN100@serverRequ

; 1832 :             {
; 1833 :                 dev->shioactive = DEV_SYS_LOCAL;

  00b8b	48 8b 84 24 60
	01 00 00	 mov	 rax, QWORD PTR dev$[rsp]
  00b93	c7 80 e4 05 00
	00 ff ff 00 00	 mov	 DWORD PTR [rax+1508], 65535 ; 0000ffffH

; 1834 :                 dev->busy = 1;

  00b9d	48 8b 84 24 60
	01 00 00	 mov	 rax, QWORD PTR dev$[rsp]
  00ba5	8b 80 f8 05 00
	00		 mov	 eax, DWORD PTR [rax+1528]
  00bab	0f ba e8 13	 bts	 eax, 19
  00baf	48 8b 8c 24 60
	01 00 00	 mov	 rcx, QWORD PTR dev$[rsp]
  00bb7	89 81 f8 05 00
	00		 mov	 DWORD PTR [rcx+1528], eax

; 1835 :             }

  00bbd	eb 32		 jmp	 SHORT $LN101@serverRequ
$LN100@serverRequ:

; 1836 :             else
; 1837 :             {
; 1838 :                 dev->shioactive = DEV_SYS_NONE;

  00bbf	48 8b 84 24 60
	01 00 00	 mov	 rax, QWORD PTR dev$[rsp]
  00bc7	c7 80 e4 05 00
	00 00 00 00 00	 mov	 DWORD PTR [rax+1508], 0

; 1839 :                 dev->busy = 0;

  00bd1	48 8b 84 24 60
	01 00 00	 mov	 rax, QWORD PTR dev$[rsp]
  00bd9	8b 80 f8 05 00
	00		 mov	 eax, DWORD PTR [rax+1528]
  00bdf	0f ba f0 13	 btr	 eax, 19
  00be3	48 8b 8c 24 60
	01 00 00	 mov	 rcx, QWORD PTR dev$[rsp]
  00beb	89 81 f8 05 00
	00		 mov	 DWORD PTR [rcx+1528], eax
$LN101@serverRequ:

; 1840 :             }
; 1841 : 
; 1842 :             /* Reset any 'waiting' bits */
; 1843 :             for (i = 0; i < SHARED_MAX_SYS; i++)

  00bf1	c7 44 24 54 00
	00 00 00	 mov	 DWORD PTR i$[rsp], 0
  00bf9	eb 0a		 jmp	 SHORT $LN23@serverRequ
$LN21@serverRequ:
  00bfb	8b 44 24 54	 mov	 eax, DWORD PTR i$[rsp]
  00bff	ff c0		 inc	 eax
  00c01	89 44 24 54	 mov	 DWORD PTR i$[rsp], eax
$LN23@serverRequ:
  00c05	83 7c 24 54 08	 cmp	 DWORD PTR i$[rsp], 8
  00c0a	7d 4d		 jge	 SHORT $LN22@serverRequ

; 1844 :                 if (dev->shrd[i])

  00c0c	48 63 44 24 54	 movsxd	 rax, DWORD PTR i$[rsp]
  00c11	48 8b 8c 24 60
	01 00 00	 mov	 rcx, QWORD PTR dev$[rsp]
  00c19	48 83 bc c1 60
	06 00 00 00	 cmp	 QWORD PTR [rcx+rax*8+1632], 0
  00c22	74 33		 je	 SHORT $LN102@serverRequ

; 1845 :                     dev->shrd[i]->waiting = 0;

  00c24	48 63 44 24 54	 movsxd	 rax, DWORD PTR i$[rsp]
  00c29	48 8b 8c 24 60
	01 00 00	 mov	 rcx, QWORD PTR dev$[rsp]
  00c31	48 8b 84 c1 60
	06 00 00	 mov	 rax, QWORD PTR [rcx+rax*8+1632]
  00c39	8b 40 24	 mov	 eax, DWORD PTR [rax+36]
  00c3c	83 e0 fd	 and	 eax, -3			; fffffffdH
  00c3f	48 63 4c 24 54	 movsxd	 rcx, DWORD PTR i$[rsp]
  00c44	48 8b 94 24 60
	01 00 00	 mov	 rdx, QWORD PTR dev$[rsp]
  00c4c	48 8b 8c ca 60
	06 00 00	 mov	 rcx, QWORD PTR [rdx+rcx*8+1632]
  00c54	89 41 24	 mov	 DWORD PTR [rcx+36], eax
$LN102@serverRequ:
  00c57	eb a2		 jmp	 SHORT $LN21@serverRequ
$LN22@serverRequ:

; 1846 : 
; 1847 :             /* Notify any waiters */
; 1848 :             if (dev->shiowaiters)

  00c59	48 8b 84 24 60
	01 00 00	 mov	 rax, QWORD PTR dev$[rsp]
  00c61	83 b8 e0 05 00
	00 00		 cmp	 DWORD PTR [rax+1504], 0
  00c68	74 1e		 je	 SHORT $LN103@serverRequ

; 1849 :                 signal_condition (&dev->shiocond);

  00c6a	48 8b 84 24 60
	01 00 00	 mov	 rax, QWORD PTR dev$[rsp]
  00c72	48 05 d8 05 00
	00		 add	 rax, 1496		; 000005d8H
  00c78	48 8d 15 00 00
	00 00		 lea	 rdx, OFFSET FLAT:$SG170098
  00c7f	48 8b c8	 mov	 rcx, rax
  00c82	ff 15 00 00 00
	00		 call	 QWORD PTR __imp_hthread_signal_condition
$LN103@serverRequ:
$LN99@serverRequ:

; 1850 :         }
; 1851 :         SHRDTRACE( "server request inactive id=%d", id );

  00c88	44 8b 44 24 44	 mov	 r8d, DWORD PTR id$[rsp]
  00c8d	48 8d 15 00 00
	00 00		 lea	 rdx, OFFSET FLAT:$SG170099
  00c94	48 8b 8c 24 60
	01 00 00	 mov	 rcx, QWORD PTR dev$[rsp]
  00c9c	e8 00 00 00 00	 call	 shrdtrc

; 1852 : 
; 1853 :         release_lock (&dev->lock);

  00ca1	48 8b 84 24 60
	01 00 00	 mov	 rax, QWORD PTR dev$[rsp]
  00ca9	48 83 c0 38	 add	 rax, 56			; 00000038H
  00cad	48 8d 15 00 00
	00 00		 lea	 rdx, OFFSET FLAT:$SG170100
  00cb4	48 8b c8	 mov	 rcx, rax
  00cb7	ff 15 00 00 00
	00		 call	 QWORD PTR __imp_hthread_release_lock
$LN26@serverRequ:

; 1854 : 
; 1855 :         /* Send response back */
; 1856 :         SHRD_SET_HDR (hdr, 0, 0, dev->devnum, id, 0);

  00cbd	48 8b 84 24 70
	01 00 00	 mov	 rax, QWORD PTR hdr$[rsp]
  00cc5	48 89 84 24 a0
	00 00 00	 mov	 QWORD PTR shdr$7[rsp], rax
  00ccd	48 8b 84 24 a0
	00 00 00	 mov	 rax, QWORD PTR shdr$7[rsp]
  00cd5	c6 00 00	 mov	 BYTE PTR [rax], 0
  00cd8	48 8b 84 24 a0
	00 00 00	 mov	 rax, QWORD PTR shdr$7[rsp]
  00ce0	c6 40 01 00	 mov	 BYTE PTR [rax+1], 0
  00ce4	48 8b 84 24 60
	01 00 00	 mov	 rax, QWORD PTR dev$[rsp]
  00cec	0f b7 48 48	 movzx	 ecx, WORD PTR [rax+72]
  00cf0	e8 00 00 00 00	 call	 _byteswap_ushort
  00cf5	48 8b 8c 24 a0
	00 00 00	 mov	 rcx, QWORD PTR shdr$7[rsp]
  00cfd	48 83 c1 02	 add	 rcx, 2
  00d01	0f b7 d0	 movzx	 edx, ax
  00d04	e8 00 00 00 00	 call	 store_hw_noswap
  00d09	33 c9		 xor	 ecx, ecx
  00d0b	e8 00 00 00 00	 call	 _byteswap_ushort
  00d10	48 8b 8c 24 a0
	00 00 00	 mov	 rcx, QWORD PTR shdr$7[rsp]
  00d18	48 83 c1 04	 add	 rcx, 4
  00d1c	0f b7 d0	 movzx	 edx, ax
  00d1f	e8 00 00 00 00	 call	 store_hw_noswap
  00d24	0f b7 4c 24 44	 movzx	 ecx, WORD PTR id$[rsp]
  00d29	e8 00 00 00 00	 call	 _byteswap_ushort
  00d2e	48 8b 8c 24 a0
	00 00 00	 mov	 rcx, QWORD PTR shdr$7[rsp]
  00d36	48 83 c1 06	 add	 rcx, 6
  00d3a	0f b7 d0	 movzx	 edx, ax
  00d3d	e8 00 00 00 00	 call	 store_hw_noswap
  00d42	33 c0		 xor	 eax, eax
  00d44	85 c0		 test	 eax, eax
  00d46	0f 85 71 ff ff
	ff		 jne	 $LN26@serverRequ

; 1857 :         serverSend (dev, ix, hdr, NULL, 0);

  00d4c	c7 44 24 20 00
	00 00 00	 mov	 DWORD PTR [rsp+32], 0
  00d54	45 33 c9	 xor	 r9d, r9d
  00d57	4c 8b 84 24 70
	01 00 00	 mov	 r8, QWORD PTR hdr$[rsp]
  00d5f	8b 94 24 68 01
	00 00		 mov	 edx, DWORD PTR ix$[rsp]
  00d66	48 8b 8c 24 60
	01 00 00	 mov	 rcx, QWORD PTR dev$[rsp]
  00d6e	e8 00 00 00 00	 call	 serverSend

; 1858 :         break;

  00d73	e9 c2 11 00 00	 jmp	 $LN5@serverRequ
$LN104@serverRequ:

; 1859 : 
; 1860 :     case SHRD_RESERVE:
; 1861 :         /* Must be active on the device for this command */
; 1862 :         if (dev->shioactive != id)

  00d78	48 8b 84 24 60
	01 00 00	 mov	 rax, QWORD PTR dev$[rsp]
  00d80	8b 4c 24 44	 mov	 ecx, DWORD PTR id$[rsp]
  00d84	39 88 e4 05 00
	00		 cmp	 DWORD PTR [rax+1508], ecx
  00d8a	74 33		 je	 SHORT $LN105@serverRequ

; 1863 :         {
; 1864 :             serverError (dev, ix, SHRD_ERROR_NOTACTIVE, cmd,

  00d8c	0f b6 44 24 40	 movzx	 eax, BYTE PTR cmd$[rsp]
  00d91	48 8d 0d 00 00
	00 00		 lea	 rcx, OFFSET FLAT:$SG170103
  00d98	48 89 4c 24 20	 mov	 QWORD PTR [rsp+32], rcx
  00d9d	44 8b c8	 mov	 r9d, eax
  00da0	41 b8 f6 00 00
	00		 mov	 r8d, 246		; 000000f6H
  00da6	8b 94 24 68 01
	00 00		 mov	 edx, DWORD PTR ix$[rsp]
  00dad	48 8b 8c 24 60
	01 00 00	 mov	 rcx, QWORD PTR dev$[rsp]
  00db5	e8 00 00 00 00	 call	 serverError

; 1865 :                          "not active on this device");
; 1866 :             break;

  00dba	e9 7b 11 00 00	 jmp	 $LN5@serverRequ
$LN105@serverRequ:

; 1867 :         }
; 1868 : 
; 1869 :         obtain_lock (&dev->lock);

  00dbf	48 8b 84 24 60
	01 00 00	 mov	 rax, QWORD PTR dev$[rsp]
  00dc7	48 83 c0 38	 add	 rax, 56			; 00000038H
  00dcb	48 8d 15 00 00
	00 00		 lea	 rdx, OFFSET FLAT:$SG170104
  00dd2	48 8b c8	 mov	 rcx, rax
  00dd5	ff 15 00 00 00
	00		 call	 QWORD PTR __imp_hthread_obtain_lock

; 1870 :         dev->reserved = 1;

  00ddb	48 8b 84 24 60
	01 00 00	 mov	 rax, QWORD PTR dev$[rsp]
  00de3	8b 80 f8 05 00
	00		 mov	 eax, DWORD PTR [rax+1528]
  00de9	0f ba e8 14	 bts	 eax, 20
  00ded	48 8b 8c 24 60
	01 00 00	 mov	 rcx, QWORD PTR dev$[rsp]
  00df5	89 81 f8 05 00
	00		 mov	 DWORD PTR [rcx+1528], eax

; 1871 :         release_lock (&dev->lock);

  00dfb	48 8b 84 24 60
	01 00 00	 mov	 rax, QWORD PTR dev$[rsp]
  00e03	48 83 c0 38	 add	 rax, 56			; 00000038H
  00e07	48 8d 15 00 00
	00 00		 lea	 rdx, OFFSET FLAT:$SG170105
  00e0e	48 8b c8	 mov	 rcx, rax
  00e11	ff 15 00 00 00
	00		 call	 QWORD PTR __imp_hthread_release_lock

; 1872 : 
; 1873 :         SHRDTRACE( "server request reserved id=%d", id );

  00e17	44 8b 44 24 44	 mov	 r8d, DWORD PTR id$[rsp]
  00e1c	48 8d 15 00 00
	00 00		 lea	 rdx, OFFSET FLAT:$SG170106
  00e23	48 8b 8c 24 60
	01 00 00	 mov	 rcx, QWORD PTR dev$[rsp]
  00e2b	e8 00 00 00 00	 call	 shrdtrc

; 1874 : 
; 1875 :         /* Call the I/O reserve exit */
; 1876 :         if (dev->hnd->reserve) (dev->hnd->reserve) (dev);

  00e30	48 8b 84 24 60
	01 00 00	 mov	 rax, QWORD PTR dev$[rsp]
  00e38	48 8b 80 90 02
	00 00		 mov	 rax, QWORD PTR [rax+656]
  00e3f	48 83 78 68 00	 cmp	 QWORD PTR [rax+104], 0
  00e44	74 1a		 je	 SHORT $LN106@serverRequ
  00e46	48 8b 84 24 60
	01 00 00	 mov	 rax, QWORD PTR dev$[rsp]
  00e4e	48 8b 80 90 02
	00 00		 mov	 rax, QWORD PTR [rax+656]
  00e55	48 8b 8c 24 60
	01 00 00	 mov	 rcx, QWORD PTR dev$[rsp]
  00e5d	ff 50 68	 call	 QWORD PTR [rax+104]
$LN106@serverRequ:
$LN29@serverRequ:

; 1877 : 
; 1878 :         /* Send response back */
; 1879 :         SHRD_SET_HDR (hdr, 0, 0, dev->devnum, id, 0);

  00e60	48 8b 84 24 70
	01 00 00	 mov	 rax, QWORD PTR hdr$[rsp]
  00e68	48 89 84 24 a8
	00 00 00	 mov	 QWORD PTR shdr$8[rsp], rax
  00e70	48 8b 84 24 a8
	00 00 00	 mov	 rax, QWORD PTR shdr$8[rsp]
  00e78	c6 00 00	 mov	 BYTE PTR [rax], 0
  00e7b	48 8b 84 24 a8
	00 00 00	 mov	 rax, QWORD PTR shdr$8[rsp]
  00e83	c6 40 01 00	 mov	 BYTE PTR [rax+1], 0
  00e87	48 8b 84 24 60
	01 00 00	 mov	 rax, QWORD PTR dev$[rsp]
  00e8f	0f b7 48 48	 movzx	 ecx, WORD PTR [rax+72]
  00e93	e8 00 00 00 00	 call	 _byteswap_ushort
  00e98	48 8b 8c 24 a8
	00 00 00	 mov	 rcx, QWORD PTR shdr$8[rsp]
  00ea0	48 83 c1 02	 add	 rcx, 2
  00ea4	0f b7 d0	 movzx	 edx, ax
  00ea7	e8 00 00 00 00	 call	 store_hw_noswap
  00eac	33 c9		 xor	 ecx, ecx
  00eae	e8 00 00 00 00	 call	 _byteswap_ushort
  00eb3	48 8b 8c 24 a8
	00 00 00	 mov	 rcx, QWORD PTR shdr$8[rsp]
  00ebb	48 83 c1 04	 add	 rcx, 4
  00ebf	0f b7 d0	 movzx	 edx, ax
  00ec2	e8 00 00 00 00	 call	 store_hw_noswap
  00ec7	0f b7 4c 24 44	 movzx	 ecx, WORD PTR id$[rsp]
  00ecc	e8 00 00 00 00	 call	 _byteswap_ushort
  00ed1	48 8b 8c 24 a8
	00 00 00	 mov	 rcx, QWORD PTR shdr$8[rsp]
  00ed9	48 83 c1 06	 add	 rcx, 6
  00edd	0f b7 d0	 movzx	 edx, ax
  00ee0	e8 00 00 00 00	 call	 store_hw_noswap
  00ee5	33 c0		 xor	 eax, eax
  00ee7	85 c0		 test	 eax, eax
  00ee9	0f 85 71 ff ff
	ff		 jne	 $LN29@serverRequ

; 1880 :         serverSend (dev, ix, hdr, NULL, 0);

  00eef	c7 44 24 20 00
	00 00 00	 mov	 DWORD PTR [rsp+32], 0
  00ef7	45 33 c9	 xor	 r9d, r9d
  00efa	4c 8b 84 24 70
	01 00 00	 mov	 r8, QWORD PTR hdr$[rsp]
  00f02	8b 94 24 68 01
	00 00		 mov	 edx, DWORD PTR ix$[rsp]
  00f09	48 8b 8c 24 60
	01 00 00	 mov	 rcx, QWORD PTR dev$[rsp]
  00f11	e8 00 00 00 00	 call	 serverSend

; 1881 : 
; 1882 :         break;

  00f16	e9 1f 10 00 00	 jmp	 $LN5@serverRequ
$LN107@serverRequ:

; 1883 : 
; 1884 :     case SHRD_RELEASE:
; 1885 :         /* Must be active on the device for this command */
; 1886 :         if (dev->shioactive != id)

  00f1b	48 8b 84 24 60
	01 00 00	 mov	 rax, QWORD PTR dev$[rsp]
  00f23	8b 4c 24 44	 mov	 ecx, DWORD PTR id$[rsp]
  00f27	39 88 e4 05 00
	00		 cmp	 DWORD PTR [rax+1508], ecx
  00f2d	74 33		 je	 SHORT $LN108@serverRequ

; 1887 :         {
; 1888 :             serverError (dev, ix, SHRD_ERROR_NOTACTIVE, cmd,

  00f2f	0f b6 44 24 40	 movzx	 eax, BYTE PTR cmd$[rsp]
  00f34	48 8d 0d 00 00
	00 00		 lea	 rcx, OFFSET FLAT:$SG170110
  00f3b	48 89 4c 24 20	 mov	 QWORD PTR [rsp+32], rcx
  00f40	44 8b c8	 mov	 r9d, eax
  00f43	41 b8 f6 00 00
	00		 mov	 r8d, 246		; 000000f6H
  00f49	8b 94 24 68 01
	00 00		 mov	 edx, DWORD PTR ix$[rsp]
  00f50	48 8b 8c 24 60
	01 00 00	 mov	 rcx, QWORD PTR dev$[rsp]
  00f58	e8 00 00 00 00	 call	 serverError

; 1889 :                          "not active on this device");
; 1890 :             break;

  00f5d	e9 d8 0f 00 00	 jmp	 $LN5@serverRequ
$LN108@serverRequ:

; 1891 :         }
; 1892 : 
; 1893 :         /* Call the I/O release exit */
; 1894 :         if (dev->hnd->release) (dev->hnd->release) (dev);

  00f62	48 8b 84 24 60
	01 00 00	 mov	 rax, QWORD PTR dev$[rsp]
  00f6a	48 8b 80 90 02
	00 00		 mov	 rax, QWORD PTR [rax+656]
  00f71	48 83 78 70 00	 cmp	 QWORD PTR [rax+112], 0
  00f76	74 1a		 je	 SHORT $LN109@serverRequ
  00f78	48 8b 84 24 60
	01 00 00	 mov	 rax, QWORD PTR dev$[rsp]
  00f80	48 8b 80 90 02
	00 00		 mov	 rax, QWORD PTR [rax+656]
  00f87	48 8b 8c 24 60
	01 00 00	 mov	 rcx, QWORD PTR dev$[rsp]
  00f8f	ff 50 70	 call	 QWORD PTR [rax+112]
$LN109@serverRequ:

; 1895 : 
; 1896 :         obtain_lock (&dev->lock);

  00f92	48 8b 84 24 60
	01 00 00	 mov	 rax, QWORD PTR dev$[rsp]
  00f9a	48 83 c0 38	 add	 rax, 56			; 00000038H
  00f9e	48 8d 15 00 00
	00 00		 lea	 rdx, OFFSET FLAT:$SG170112
  00fa5	48 8b c8	 mov	 rcx, rax
  00fa8	ff 15 00 00 00
	00		 call	 QWORD PTR __imp_hthread_obtain_lock

; 1897 :         dev->reserved = 0;

  00fae	48 8b 84 24 60
	01 00 00	 mov	 rax, QWORD PTR dev$[rsp]
  00fb6	8b 80 f8 05 00
	00		 mov	 eax, DWORD PTR [rax+1528]
  00fbc	0f ba f0 14	 btr	 eax, 20
  00fc0	48 8b 8c 24 60
	01 00 00	 mov	 rcx, QWORD PTR dev$[rsp]
  00fc8	89 81 f8 05 00
	00		 mov	 DWORD PTR [rcx+1528], eax

; 1898 :         release_lock (&dev->lock);

  00fce	48 8b 84 24 60
	01 00 00	 mov	 rax, QWORD PTR dev$[rsp]
  00fd6	48 83 c0 38	 add	 rax, 56			; 00000038H
  00fda	48 8d 15 00 00
	00 00		 lea	 rdx, OFFSET FLAT:$SG170113
  00fe1	48 8b c8	 mov	 rcx, rax
  00fe4	ff 15 00 00 00
	00		 call	 QWORD PTR __imp_hthread_release_lock

; 1899 : 
; 1900 :         SHRDTRACE( "server request released id=%d", id );

  00fea	44 8b 44 24 44	 mov	 r8d, DWORD PTR id$[rsp]
  00fef	48 8d 15 00 00
	00 00		 lea	 rdx, OFFSET FLAT:$SG170114
  00ff6	48 8b 8c 24 60
	01 00 00	 mov	 rcx, QWORD PTR dev$[rsp]
  00ffe	e8 00 00 00 00	 call	 shrdtrc
$LN32@serverRequ:

; 1901 : 
; 1902 :         /* Send response back */
; 1903 :         SHRD_SET_HDR (hdr, 0, 0, dev->devnum, id, 0);

  01003	48 8b 84 24 70
	01 00 00	 mov	 rax, QWORD PTR hdr$[rsp]
  0100b	48 89 84 24 b0
	00 00 00	 mov	 QWORD PTR shdr$9[rsp], rax
  01013	48 8b 84 24 b0
	00 00 00	 mov	 rax, QWORD PTR shdr$9[rsp]
  0101b	c6 00 00	 mov	 BYTE PTR [rax], 0
  0101e	48 8b 84 24 b0
	00 00 00	 mov	 rax, QWORD PTR shdr$9[rsp]
  01026	c6 40 01 00	 mov	 BYTE PTR [rax+1], 0
  0102a	48 8b 84 24 60
	01 00 00	 mov	 rax, QWORD PTR dev$[rsp]
  01032	0f b7 48 48	 movzx	 ecx, WORD PTR [rax+72]
  01036	e8 00 00 00 00	 call	 _byteswap_ushort
  0103b	48 8b 8c 24 b0
	00 00 00	 mov	 rcx, QWORD PTR shdr$9[rsp]
  01043	48 83 c1 02	 add	 rcx, 2
  01047	0f b7 d0	 movzx	 edx, ax
  0104a	e8 00 00 00 00	 call	 store_hw_noswap
  0104f	33 c9		 xor	 ecx, ecx
  01051	e8 00 00 00 00	 call	 _byteswap_ushort
  01056	48 8b 8c 24 b0
	00 00 00	 mov	 rcx, QWORD PTR shdr$9[rsp]
  0105e	48 83 c1 04	 add	 rcx, 4
  01062	0f b7 d0	 movzx	 edx, ax
  01065	e8 00 00 00 00	 call	 store_hw_noswap
  0106a	0f b7 4c 24 44	 movzx	 ecx, WORD PTR id$[rsp]
  0106f	e8 00 00 00 00	 call	 _byteswap_ushort
  01074	48 8b 8c 24 b0
	00 00 00	 mov	 rcx, QWORD PTR shdr$9[rsp]
  0107c	48 83 c1 06	 add	 rcx, 6
  01080	0f b7 d0	 movzx	 edx, ax
  01083	e8 00 00 00 00	 call	 store_hw_noswap
  01088	33 c0		 xor	 eax, eax
  0108a	85 c0		 test	 eax, eax
  0108c	0f 85 71 ff ff
	ff		 jne	 $LN32@serverRequ

; 1904 :         serverSend (dev, ix, hdr, NULL, 0);

  01092	c7 44 24 20 00
	00 00 00	 mov	 DWORD PTR [rsp+32], 0
  0109a	45 33 c9	 xor	 r9d, r9d
  0109d	4c 8b 84 24 70
	01 00 00	 mov	 r8, QWORD PTR hdr$[rsp]
  010a5	8b 94 24 68 01
	00 00		 mov	 edx, DWORD PTR ix$[rsp]
  010ac	48 8b 8c 24 60
	01 00 00	 mov	 rcx, QWORD PTR dev$[rsp]
  010b4	e8 00 00 00 00	 call	 serverSend

; 1905 : 
; 1906 :         break;

  010b9	e9 7c 0e 00 00	 jmp	 $LN5@serverRequ
$LN110@serverRequ:

; 1907 : 
; 1908 :     case SHRD_READ:
; 1909 :         /* Must be active on the device for this command */
; 1910 :         if (dev->shioactive != id)

  010be	48 8b 84 24 60
	01 00 00	 mov	 rax, QWORD PTR dev$[rsp]
  010c6	8b 4c 24 44	 mov	 ecx, DWORD PTR id$[rsp]
  010ca	39 88 e4 05 00
	00		 cmp	 DWORD PTR [rax+1508], ecx
  010d0	74 33		 je	 SHORT $LN111@serverRequ

; 1911 :         {
; 1912 :             serverError (dev, ix, SHRD_ERROR_NOTACTIVE, cmd,

  010d2	0f b6 44 24 40	 movzx	 eax, BYTE PTR cmd$[rsp]
  010d7	48 8d 0d 00 00
	00 00		 lea	 rcx, OFFSET FLAT:$SG170117
  010de	48 89 4c 24 20	 mov	 QWORD PTR [rsp+32], rcx
  010e3	44 8b c8	 mov	 r9d, eax
  010e6	41 b8 f6 00 00
	00		 mov	 r8d, 246		; 000000f6H
  010ec	8b 94 24 68 01
	00 00		 mov	 edx, DWORD PTR ix$[rsp]
  010f3	48 8b 8c 24 60
	01 00 00	 mov	 rcx, QWORD PTR dev$[rsp]
  010fb	e8 00 00 00 00	 call	 serverError

; 1913 :                          "not active on this device");
; 1914 :             break;

  01100	e9 35 0e 00 00	 jmp	 $LN5@serverRequ
$LN111@serverRequ:

; 1915 :         }
; 1916 : 
; 1917 :         /* Set the compressions client is willing to accept */
; 1918 :         dev->comps = dev->shrd[ix]->comps;

  01105	48 63 84 24 68
	01 00 00	 movsxd	 rax, DWORD PTR ix$[rsp]
  0110d	48 8b 8c 24 60
	01 00 00	 mov	 rcx, QWORD PTR dev$[rsp]
  01115	48 8b 84 c1 60
	06 00 00	 mov	 rax, QWORD PTR [rcx+rax*8+1632]
  0111d	48 8b 8c 24 60
	01 00 00	 mov	 rcx, QWORD PTR dev$[rsp]
  01125	8b 40 20	 mov	 eax, DWORD PTR [rax+32]
  01128	89 81 08 02 00
	00		 mov	 DWORD PTR [rcx+520], eax

; 1919 :         dev->comp = dev->compoff = 0;

  0112e	48 8b 84 24 60
	01 00 00	 mov	 rax, QWORD PTR dev$[rsp]
  01136	c7 80 10 02 00
	00 00 00 00 00	 mov	 DWORD PTR [rax+528], 0
  01140	48 8b 84 24 60
	01 00 00	 mov	 rax, QWORD PTR dev$[rsp]
  01148	c7 80 0c 02 00
	00 00 00 00 00	 mov	 DWORD PTR [rax+524], 0

; 1920 : 
; 1921 :         /* Call the I/O read exit */
; 1922 :         rcd = (int)fetch_fw (buf);

  01152	48 8b 8c 24 78
	01 00 00	 mov	 rcx, QWORD PTR buf$[rsp]
  0115a	e8 00 00 00 00	 call	 fetch_fw_noswap
  0115f	8b c8		 mov	 ecx, eax
  01161	e8 00 00 00 00	 call	 _byteswap_ulong
  01166	89 44 24 58	 mov	 DWORD PTR rcd$[rsp], eax

; 1923 :         rc = (dev->hnd->read) (dev, rcd, &flag);

  0116a	48 8b 84 24 60
	01 00 00	 mov	 rax, QWORD PTR dev$[rsp]
  01172	48 8b 80 90 02
	00 00		 mov	 rax, QWORD PTR [rax+656]
  01179	4c 8d 44 24 41	 lea	 r8, QWORD PTR flag$[rsp]
  0117e	8b 54 24 58	 mov	 edx, DWORD PTR rcd$[rsp]
  01182	48 8b 8c 24 60
	01 00 00	 mov	 rcx, QWORD PTR dev$[rsp]
  0118a	ff 50 50	 call	 QWORD PTR [rax+80]
  0118d	89 44 24 48	 mov	 DWORD PTR rc$[rsp], eax

; 1924 :         SHRDTRACE( "server request read rcd %d flag %2.2x rc=%d",

  01191	0f b6 44 24 41	 movzx	 eax, BYTE PTR flag$[rsp]
  01196	8b 4c 24 48	 mov	 ecx, DWORD PTR rc$[rsp]
  0119a	89 4c 24 20	 mov	 DWORD PTR [rsp+32], ecx
  0119e	44 8b c8	 mov	 r9d, eax
  011a1	44 8b 44 24 58	 mov	 r8d, DWORD PTR rcd$[rsp]
  011a6	48 8d 15 00 00
	00 00		 lea	 rdx, OFFSET FLAT:$SG170118
  011ad	48 8b 8c 24 60
	01 00 00	 mov	 rcx, QWORD PTR dev$[rsp]
  011b5	e8 00 00 00 00	 call	 shrdtrc

; 1925 :                 rcd, flag, rc );
; 1926 : 
; 1927 :         if (rc < 0)

  011ba	83 7c 24 48 00	 cmp	 DWORD PTR rc$[rsp], 0
  011bf	7d 0a		 jge	 SHORT $LN112@serverRequ

; 1928 :             code = SHRD_IOERR;

  011c1	c7 44 24 50 40
	00 00 00	 mov	 DWORD PTR code$[rsp], 64 ; 00000040H
  011c9	eb 4e		 jmp	 SHORT $LN113@serverRequ
$LN112@serverRequ:

; 1929 :         else
; 1930 :         {
; 1931 :             code = dev->comp ? SHRD_COMP : 0;

  011cb	48 8b 84 24 60
	01 00 00	 mov	 rax, QWORD PTR dev$[rsp]
  011d3	83 b8 0c 02 00
	00 00		 cmp	 DWORD PTR [rax+524], 0
  011da	74 0a		 je	 SHORT $LN135@serverRequ
  011dc	c7 44 24 70 10
	00 00 00	 mov	 DWORD PTR tv668[rsp], 16
  011e4	eb 08		 jmp	 SHORT $LN136@serverRequ
$LN135@serverRequ:
  011e6	c7 44 24 70 00
	00 00 00	 mov	 DWORD PTR tv668[rsp], 0
$LN136@serverRequ:
  011ee	8b 44 24 70	 mov	 eax, DWORD PTR tv668[rsp]
  011f2	89 44 24 50	 mov	 DWORD PTR code$[rsp], eax

; 1932 :             flag = (dev->comp << 4) | dev->compoff;

  011f6	48 8b 84 24 60
	01 00 00	 mov	 rax, QWORD PTR dev$[rsp]
  011fe	8b 80 0c 02 00
	00		 mov	 eax, DWORD PTR [rax+524]
  01204	c1 e0 04	 shl	 eax, 4
  01207	48 8b 8c 24 60
	01 00 00	 mov	 rcx, QWORD PTR dev$[rsp]
  0120f	0b 81 10 02 00
	00		 or	 eax, DWORD PTR [rcx+528]
  01215	88 44 24 41	 mov	 BYTE PTR flag$[rsp], al
$LN113@serverRequ:

; 1933 :         }
; 1934 : 
; 1935 :         /* Reset compression stuff */
; 1936 :         dev->comps = dev->comp = dev->compoff = 0;

  01219	48 8b 84 24 60
	01 00 00	 mov	 rax, QWORD PTR dev$[rsp]
  01221	c7 80 10 02 00
	00 00 00 00 00	 mov	 DWORD PTR [rax+528], 0
  0122b	48 8b 84 24 60
	01 00 00	 mov	 rax, QWORD PTR dev$[rsp]
  01233	c7 80 0c 02 00
	00 00 00 00 00	 mov	 DWORD PTR [rax+524], 0
  0123d	48 8b 84 24 60
	01 00 00	 mov	 rax, QWORD PTR dev$[rsp]
  01245	c7 80 08 02 00
	00 00 00 00 00	 mov	 DWORD PTR [rax+520], 0
$LN35@serverRequ:

; 1937 : 
; 1938 :         SHRD_SET_HDR (hdr, code, flag, dev->devnum, id, dev->buflen);

  0124f	48 8b 84 24 70
	01 00 00	 mov	 rax, QWORD PTR hdr$[rsp]
  01257	48 89 84 24 b8
	00 00 00	 mov	 QWORD PTR shdr$10[rsp], rax
  0125f	48 8b 84 24 b8
	00 00 00	 mov	 rax, QWORD PTR shdr$10[rsp]
  01267	0f b6 4c 24 50	 movzx	 ecx, BYTE PTR code$[rsp]
  0126c	88 08		 mov	 BYTE PTR [rax], cl
  0126e	48 8b 84 24 b8
	00 00 00	 mov	 rax, QWORD PTR shdr$10[rsp]
  01276	0f b6 4c 24 41	 movzx	 ecx, BYTE PTR flag$[rsp]
  0127b	88 48 01	 mov	 BYTE PTR [rax+1], cl
  0127e	48 8b 84 24 60
	01 00 00	 mov	 rax, QWORD PTR dev$[rsp]
  01286	0f b7 48 48	 movzx	 ecx, WORD PTR [rax+72]
  0128a	e8 00 00 00 00	 call	 _byteswap_ushort
  0128f	48 8b 8c 24 b8
	00 00 00	 mov	 rcx, QWORD PTR shdr$10[rsp]
  01297	48 83 c1 02	 add	 rcx, 2
  0129b	0f b7 d0	 movzx	 edx, ax
  0129e	e8 00 00 00 00	 call	 store_hw_noswap
  012a3	48 8b 84 24 60
	01 00 00	 mov	 rax, QWORD PTR dev$[rsp]
  012ab	0f b7 88 dc 01
	00 00		 movzx	 ecx, WORD PTR [rax+476]
  012b2	e8 00 00 00 00	 call	 _byteswap_ushort
  012b7	48 8b 8c 24 b8
	00 00 00	 mov	 rcx, QWORD PTR shdr$10[rsp]
  012bf	48 83 c1 04	 add	 rcx, 4
  012c3	0f b7 d0	 movzx	 edx, ax
  012c6	e8 00 00 00 00	 call	 store_hw_noswap
  012cb	0f b7 4c 24 44	 movzx	 ecx, WORD PTR id$[rsp]
  012d0	e8 00 00 00 00	 call	 _byteswap_ushort
  012d5	48 8b 8c 24 b8
	00 00 00	 mov	 rcx, QWORD PTR shdr$10[rsp]
  012dd	48 83 c1 06	 add	 rcx, 6
  012e1	0f b7 d0	 movzx	 edx, ax
  012e4	e8 00 00 00 00	 call	 store_hw_noswap
  012e9	33 c0		 xor	 eax, eax
  012eb	85 c0		 test	 eax, eax
  012ed	0f 85 5c ff ff
	ff		 jne	 $LN35@serverRequ

; 1939 :         serverSend (dev, ix, hdr, dev->buf, dev->buflen);

  012f3	48 8b 84 24 60
	01 00 00	 mov	 rax, QWORD PTR dev$[rsp]
  012fb	8b 80 dc 01 00
	00		 mov	 eax, DWORD PTR [rax+476]
  01301	89 44 24 20	 mov	 DWORD PTR [rsp+32], eax
  01305	48 8b 84 24 60
	01 00 00	 mov	 rax, QWORD PTR dev$[rsp]
  0130d	4c 8b 88 c8 01
	00 00		 mov	 r9, QWORD PTR [rax+456]
  01314	4c 8b 84 24 70
	01 00 00	 mov	 r8, QWORD PTR hdr$[rsp]
  0131c	8b 94 24 68 01
	00 00		 mov	 edx, DWORD PTR ix$[rsp]
  01323	48 8b 8c 24 60
	01 00 00	 mov	 rcx, QWORD PTR dev$[rsp]
  0132b	e8 00 00 00 00	 call	 serverSend

; 1940 : 
; 1941 :         break;

  01330	e9 05 0c 00 00	 jmp	 $LN5@serverRequ
$LN114@serverRequ:

; 1942 : 
; 1943 :     case SHRD_WRITE:
; 1944 :         /* Must be active on the device for this command */
; 1945 :         if (dev->shioactive != id)

  01335	48 8b 84 24 60
	01 00 00	 mov	 rax, QWORD PTR dev$[rsp]
  0133d	8b 4c 24 44	 mov	 ecx, DWORD PTR id$[rsp]
  01341	39 88 e4 05 00
	00		 cmp	 DWORD PTR [rax+1508], ecx
  01347	74 33		 je	 SHORT $LN115@serverRequ

; 1946 :         {
; 1947 :             serverError (dev, ix, SHRD_ERROR_NOTACTIVE, cmd,

  01349	0f b6 44 24 40	 movzx	 eax, BYTE PTR cmd$[rsp]
  0134e	48 8d 0d 00 00
	00 00		 lea	 rcx, OFFSET FLAT:$SG170123
  01355	48 89 4c 24 20	 mov	 QWORD PTR [rsp+32], rcx
  0135a	44 8b c8	 mov	 r9d, eax
  0135d	41 b8 f6 00 00
	00		 mov	 r8d, 246		; 000000f6H
  01363	8b 94 24 68 01
	00 00		 mov	 edx, DWORD PTR ix$[rsp]
  0136a	48 8b 8c 24 60
	01 00 00	 mov	 rcx, QWORD PTR dev$[rsp]
  01372	e8 00 00 00 00	 call	 serverError

; 1948 :                          "not active on this device");
; 1949 :             break;

  01377	e9 be 0b 00 00	 jmp	 $LN5@serverRequ
$LN115@serverRequ:

; 1950 :         }
; 1951 : 
; 1952 :         /* Call the I/O write exit */
; 1953 :         off = fetch_hw (buf);

  0137c	48 8b 8c 24 78
