; Listing generated by Microsoft (R) Optimizing Compiler Version 19.34.31937.0 

include listing.inc

INCLUDELIB MSVCRTD
INCLUDELIB OLDNAMES

CONST	SEGMENT
CKD_ENDTRK DB	0ffH
	DB	0ffH
	DB	0ffH
	DB	0ffH
	DB	0ffH
	DB	0ffH
	DB	0ffH
	DB	0ffH
CONST	ENDS
PUBLIC	cmpxchg4_x86
PUBLIC	cmpxchg1_x86
PUBLIC	fetch_hw_noswap
PUBLIC	store_hw_noswap
PUBLIC	fetch_fw_noswap
PUBLIC	store_fw_noswap
PUBLIC	fetch_dw_noswap
PUBLIC	store_dw_noswap
PUBLIC	_get_storekey_ptr
PUBLIC	_get_storekey1_ptr
PUBLIC	_get_storekey2_ptr
PUBLIC	s370__or_storage_key
PUBLIC	s370_or_4K_storage_key
PUBLIC	s370_maddr_l
PUBLIC	s370_instfetch
PUBLIC	s370_LockUnlockSCALock
PUBLIC	s370_LockUnlockRCPLock
PUBLIC	s370_LockUnlockSKALock
PUBLIC	s370_LockUnlockKeyLock
PUBLIC	s370_GetPGSTEFromPTE
PUBLIC	s370_GetPGSTE
PUBLIC	s370_GetOldRCP
PUBLIC	s370_GetPGSTE_and_RCPTE
PUBLIC	s390_sie_exit
PUBLIC	s390_diagnose_002
PUBLIC	s390_start_interpretive_execution
PUBLIC	s390_test_pending_zone_interrupt
PUBLIC	s390_store_zone_parameter
PUBLIC	s390_set_zone_parameter
PUBLIC	s390__or_storage_key
PUBLIC	s390_get_ptr_to_4K_storekey
PUBLIC	s390_or_4K_storage_key
PUBLIC	s390_get_ptr_to_storekey
PUBLIC	s390_maddr_l
PUBLIC	s390_vstorec
PUBLIC	s390_vfetchc
PUBLIC	s390_instfetch
PUBLIC	s390_LockUnlockSCALock
PUBLIC	s390_LockUnlockRCPLock
PUBLIC	s390_LockUnlockSKALock
PUBLIC	s390_LockUnlockKeyLock
PUBLIC	s390_GetPGSTEFromPTE
PUBLIC	s390_GetPGSTE
PUBLIC	s390_GetOldRCP
PUBLIC	s390_GetPGSTE_and_RCPTE
PUBLIC	z900_sie_exit
PUBLIC	z900_diagnose_002
PUBLIC	z900_store_hypervisor_information
PUBLIC	z900_start_interpretive_execution
PUBLIC	z900_test_pending_zone_interrupt
PUBLIC	z900_store_zone_parameter
PUBLIC	z900_set_zone_parameter
PUBLIC	z900_extract_and_set_storage_attributes
PUBLIC	z900__or_storage_key
PUBLIC	z900_get_ptr_to_4K_storekey
PUBLIC	z900_or_4K_storage_key
PUBLIC	z900_get_ptr_to_storekey
PUBLIC	z900_is_per3_event_suppressed
PUBLIC	z900_per3_zero
PUBLIC	z900_per3_zero_xcheck
PUBLIC	z900_maddr_l
PUBLIC	z900_vstorec
PUBLIC	z900_vfetchc
PUBLIC	z900_instfetch
PUBLIC	z900_LockUnlockSCALock
PUBLIC	z900_LockUnlockRCPLock
PUBLIC	z900_LockUnlockSKALock
PUBLIC	z900_LockUnlockKeyLock
PUBLIC	z900_GetPGSTEFromPTE
PUBLIC	z900_GetPGSTE
PUBLIC	z900_GetOldRCP
PUBLIC	z900_GetPGSTE_and_RCPTE
PUBLIC	??_C@_0CM@GFKCBHDD@C?3?2papa?2MyGit?2hyperion?9zvector?2@ ; `string'
PUBLIC	??_C@_0CM@NOJKKEDI@C?3?2papa?2MyGit?2hyperion?9zvector?2@ ; `string'
EXTRN	__imp__errno:PROC
EXTRN	__imp__aligned_malloc:PROC
EXTRN	_byteswap_ushort:PROC
EXTRN	_byteswap_ulong:PROC
EXTRN	_byteswap_uint64:PROC
EXTRN	longjmp:PROC
EXTRN	__imp___acrt_iob_func:PROC
EXTRN	__imp_hthread_obtain_lock:PROC
EXTRN	__imp_hthread_release_lock:PROC
EXTRN	__imp_hthread_signal_condition:PROC
EXTRN	__imp_hthread_wait_condition:PROC
EXTRN	__imp_hthread_timed_wait_condition:PROC
EXTRN	__imp_ptt_pthread_trace:PROC
EXTRN	__imp_ptyp2short:PROC
EXTRN	__imp_w32_strerror:PROC
EXTRN	__imp_clock_gettime:PROC
EXTRN	s370_store_int_timer:PROC
EXTRN	get_cpu_timer:PROC
EXTRN	set_cpu_timer:PROC
EXTRN	set_int_timer:PROC
EXTRN	s370_store_psw:PROC
EXTRN	s370_load_psw:PROC
EXTRN	s370_process_trace:PROC
EXTRN	s390_load_psw:PROC
EXTRN	s390_store_psw:PROC
EXTRN	s390_process_trace:PROC
EXTRN	z900_load_psw:PROC
EXTRN	z900_store_psw:PROC
EXTRN	z900_process_trace:PROC
EXTRN	cpu_init:PROC
EXTRN	s370_perform_io_interrupt:PROC
EXTRN	do_automatic_tracing:PROC
EXTRN	s370_perform_external_interrupt:PROC
EXTRN	find_device_by_subchan:PROC
EXTRN	txf_maddr_l:PROC
EXTRN	z900_abort_transaction:PROC
EXTRN	alloc_txfmap:PROC
EXTRN	s390_invalidate_guest_aia:PROC
EXTRN	z900_invalidate_guest_aia:PROC
EXTRN	s390_set_guest_ic_mask:PROC
EXTRN	z900_set_guest_ic_mask:PROC
EXTRN	s390_set_guest_aea_mode:PROC
EXTRN	z900_set_guest_aea_mode:PROC
EXTRN	s390_set_guest_aea_common:PROC
EXTRN	z900_set_guest_aea_common:PROC
EXTRN	s370_purge_tlb:PROC
EXTRN	s390_purge_tlb:PROC
EXTRN	z900_purge_tlb:PROC
EXTRN	s390_purge_alb:PROC
EXTRN	z900_purge_alb:PROC
EXTRN	apply_host_prefixing:PROC
EXTRN	s370_program_interrupt:PROC
EXTRN	s390_program_interrupt:PROC
EXTRN	z900_program_interrupt:PROC
EXTRN	__imp_fwritemsg:PROC
EXTRN	s370_logical_to_main_l:PROC
EXTRN	s390_logical_to_main_l:PROC
EXTRN	z900_logical_to_main_l:PROC
EXTRN	s370_invalidate_tlb:PROC
EXTRN	s390_translate_addr:PROC
EXTRN	z900_translate_addr:PROC
EXTRN	s390_present_zone_io_interrupt:PROC
EXTRN	s390_perform_io_interrupt:PROC
EXTRN	s390_perform_external_interrupt:PROC
EXTRN	s390_invalidate_tlb:PROC
EXTRN	z900_present_zone_io_interrupt:PROC
EXTRN	z900_perform_io_interrupt:PROC
EXTRN	z900_perform_external_interrupt:PROC
EXTRN	z900_invalidate_tlb:PROC
EXTRN	__GSHandlerCheck:PROC
EXTRN	__security_check_cookie:PROC
EXTRN	_setjmp:PROC
EXTRN	memcmp:PROC
EXTRN	__imp_pttclass:QWORD
EXTRN	tod_value:BYTE
EXTRN	__imp_sysblk:BYTE
EXTRN	__ImageBase:BYTE
EXTRN	__security_cookie:QWORD
pdata	SEGMENT
$pdata$calloc_aligned DD imagerel calloc_aligned
	DD	imagerel calloc_aligned+81
	DD	imagerel $unwind$calloc_aligned
$pdata$host_tod DD imagerel host_tod
	DD	imagerel host_tod+169
	DD	imagerel $unwind$host_tod
pdata	ENDS
;	COMDAT pdata
pdata	SEGMENT
$pdata$cmpxchg4_x86 DD imagerel $LN5
	DD	imagerel $LN5+102
	DD	imagerel $unwind$cmpxchg4_x86
pdata	ENDS
;	COMDAT pdata
pdata	SEGMENT
$pdata$cmpxchg1_x86 DD imagerel $LN3
	DD	imagerel $LN3+300
	DD	imagerel $unwind$cmpxchg1_x86
pdata	ENDS
;	COMDAT pdata
pdata	SEGMENT
$pdata$fetch_hw_noswap DD imagerel $LN3
	DD	imagerel $LN3+30
	DD	imagerel $unwind$fetch_hw_noswap
pdata	ENDS
;	COMDAT pdata
pdata	SEGMENT
$pdata$fetch_fw_noswap DD imagerel $LN3
	DD	imagerel $LN3+27
	DD	imagerel $unwind$fetch_fw_noswap
pdata	ENDS
;	COMDAT pdata
pdata	SEGMENT
$pdata$fetch_dw_noswap DD imagerel $LN3
	DD	imagerel $LN3+30
	DD	imagerel $unwind$fetch_dw_noswap
pdata	ENDS
pdata	SEGMENT
$pdata$Interrupt_Lock_Obtained DD imagerel Interrupt_Lock_Obtained
	DD	imagerel Interrupt_Lock_Obtained+269
	DD	imagerel $unwind$Interrupt_Lock_Obtained
$pdata$Obtain_Interrupt_Lock DD imagerel Obtain_Interrupt_Lock
	DD	imagerel Obtain_Interrupt_Lock+88
	DD	imagerel $unwind$Obtain_Interrupt_Lock
$pdata$Release_Interrupt_Lock DD imagerel Release_Interrupt_Lock
	DD	imagerel Release_Interrupt_Lock+71
	DD	imagerel $unwind$Release_Interrupt_Lock
pdata	ENDS
;	COMDAT pdata
pdata	SEGMENT
$pdata$_get_storekey_ptr DD imagerel $LN5
	DD	imagerel $LN5+104
	DD	imagerel $unwind$_get_storekey_ptr
pdata	ENDS
;	COMDAT pdata
pdata	SEGMENT
$pdata$s370__or_storage_key DD imagerel $LN8
	DD	imagerel $LN8+170
	DD	imagerel $unwind$s370__or_storage_key
pdata	ENDS
;	COMDAT pdata
pdata	SEGMENT
$pdata$s370_or_4K_storage_key DD imagerel $LN3
	DD	imagerel $LN3+42
	DD	imagerel $unwind$s370_or_4K_storage_key
pdata	ENDS
;	COMDAT pdata
pdata	SEGMENT
$pdata$s370_maddr_l DD imagerel $LN14
	DD	imagerel $LN14+474
	DD	imagerel $unwind$s370_maddr_l
pdata	ENDS
;	COMDAT pdata
pdata	SEGMENT
$pdata$s370_instfetch DD imagerel $LN68
	DD	imagerel $LN68+1960
	DD	imagerel $unwind$s370_instfetch
pdata	ENDS
;	COMDAT pdata
pdata	SEGMENT
$pdata$s370_LockUnlockSCALock DD imagerel $LN13
	DD	imagerel $LN13+267
	DD	imagerel $unwind$s370_LockUnlockSCALock
pdata	ENDS
;	COMDAT pdata
pdata	SEGMENT
$pdata$s370_LockUnlockRCPLock DD imagerel $LN8
	DD	imagerel $LN8+161
	DD	imagerel $unwind$s370_LockUnlockRCPLock
pdata	ENDS
;	COMDAT pdata
pdata	SEGMENT
$pdata$s370_LockUnlockSKALock DD imagerel $LN8
	DD	imagerel $LN8+217
	DD	imagerel $unwind$s370_LockUnlockSKALock
pdata	ENDS
;	COMDAT pdata
pdata	SEGMENT
$pdata$s370_LockUnlockKeyLock DD imagerel $LN5
	DD	imagerel $LN5+75
	DD	imagerel $unwind$s370_LockUnlockKeyLock
pdata	ENDS
;	COMDAT pdata
pdata	SEGMENT
$pdata$s370_GetPGSTEFromPTE DD imagerel $LN5
	DD	imagerel $LN5+108
	DD	imagerel $unwind$s370_GetPGSTEFromPTE
pdata	ENDS
;	COMDAT pdata
pdata	SEGMENT
$pdata$s370_GetPGSTE DD imagerel $LN8
	DD	imagerel $LN8+186
	DD	imagerel $unwind$s370_GetPGSTE
pdata	ENDS
;	COMDAT pdata
pdata	SEGMENT
$pdata$s370_GetOldRCP DD imagerel $LN3
	DD	imagerel $LN3+145
	DD	imagerel $unwind$s370_GetOldRCP
pdata	ENDS
;	COMDAT pdata
pdata	SEGMENT
$pdata$s370_GetPGSTE_and_RCPTE DD imagerel $LN7
	DD	imagerel $LN7+187
	DD	imagerel $unwind$s370_GetPGSTE_and_RCPTE
pdata	ENDS
pdata	SEGMENT
$pdata$s370_run_sie DD imagerel s370_run_sie
	DD	imagerel s370_run_sie+5949
	DD	imagerel $unwind$s370_run_sie
$pdata$s390_run_sie DD imagerel s390_run_sie
	DD	imagerel s390_run_sie+6002
	DD	imagerel $unwind$s390_run_sie
$pdata$z900_run_sie DD imagerel z900_run_sie
	DD	imagerel z900_run_sie+10071
	DD	imagerel $unwind$z900_run_sie
$pdata$s390_sie_exit DD imagerel $LN179
	DD	imagerel $LN179+6464
	DD	imagerel $unwind$s390_sie_exit
$pdata$s390_diagnose_002 DD imagerel $LN18
	DD	imagerel $LN18+703
	DD	imagerel $unwind$s390_diagnose_002
$pdata$s390_start_interpretive_execution DD imagerel $LN180
	DD	imagerel $LN180+10116
	DD	imagerel $unwind$s390_start_interpretive_execution
$pdata$s390_test_pending_zone_interrupt DD imagerel $LN30
	DD	imagerel $LN30+1042
	DD	imagerel $unwind$s390_test_pending_zone_interrupt
$pdata$s390_store_zone_parameter DD imagerel $LN23
	DD	imagerel $LN23+967
	DD	imagerel $unwind$s390_store_zone_parameter
$pdata$s390_set_zone_parameter DD imagerel $LN24
	DD	imagerel $LN24+1038
	DD	imagerel $unwind$s390_set_zone_parameter
pdata	ENDS
;	COMDAT pdata
pdata	SEGMENT
$pdata$s390__or_storage_key DD imagerel $LN8
	DD	imagerel $LN8+159
	DD	imagerel $unwind$s390__or_storage_key
pdata	ENDS
;	COMDAT pdata
pdata	SEGMENT
$pdata$s390_get_ptr_to_4K_storekey DD imagerel $LN3
	DD	imagerel $LN3+26
	DD	imagerel $unwind$s390_get_ptr_to_4K_storekey
pdata	ENDS
;	COMDAT pdata
pdata	SEGMENT
$pdata$s390_or_4K_storage_key DD imagerel $LN3
	DD	imagerel $LN3+42
	DD	imagerel $unwind$s390_or_4K_storage_key
pdata	ENDS
;	COMDAT pdata
pdata	SEGMENT
$pdata$s390_get_ptr_to_storekey DD imagerel $LN3
	DD	imagerel $LN3+24
	DD	imagerel $unwind$s390_get_ptr_to_storekey
pdata	ENDS
;	COMDAT pdata
pdata	SEGMENT
$pdata$s390_maddr_l DD imagerel $LN14
	DD	imagerel $LN14+474
	DD	imagerel $unwind$s390_maddr_l
pdata	ENDS
;	COMDAT pdata
pdata	SEGMENT
$pdata$s390_vstorec DD imagerel $LN9
	DD	imagerel $LN9+498
	DD	imagerel $unwind$s390_vstorec
pdata	ENDS
;	COMDAT pdata
pdata	SEGMENT
$pdata$s390_vfetchc DD imagerel $LN9
	DD	imagerel $LN9+432
	DD	imagerel $unwind$s390_vfetchc
pdata	ENDS
;	COMDAT pdata
pdata	SEGMENT
$pdata$s390_instfetch DD imagerel $LN76
	DD	imagerel $LN76+2248
	DD	imagerel $unwind$s390_instfetch
pdata	ENDS
;	COMDAT pdata
pdata	SEGMENT
$pdata$s390_LockUnlockSCALock DD imagerel $LN13
	DD	imagerel $LN13+267
	DD	imagerel $unwind$s390_LockUnlockSCALock
pdata	ENDS
;	COMDAT pdata
pdata	SEGMENT
$pdata$s390_LockUnlockRCPLock DD imagerel $LN8
	DD	imagerel $LN8+161
	DD	imagerel $unwind$s390_LockUnlockRCPLock
pdata	ENDS
;	COMDAT pdata
pdata	SEGMENT
$pdata$s390_LockUnlockSKALock DD imagerel $LN8
	DD	imagerel $LN8+217
	DD	imagerel $unwind$s390_LockUnlockSKALock
pdata	ENDS
;	COMDAT pdata
pdata	SEGMENT
$pdata$s390_LockUnlockKeyLock DD imagerel $LN5
	DD	imagerel $LN5+75
	DD	imagerel $unwind$s390_LockUnlockKeyLock
pdata	ENDS
;	COMDAT pdata
pdata	SEGMENT
$pdata$s390_GetPGSTEFromPTE DD imagerel $LN5
	DD	imagerel $LN5+108
	DD	imagerel $unwind$s390_GetPGSTEFromPTE
pdata	ENDS
;	COMDAT pdata
pdata	SEGMENT
$pdata$s390_GetPGSTE DD imagerel $LN10
	DD	imagerel $LN10+265
	DD	imagerel $unwind$s390_GetPGSTE
pdata	ENDS
;	COMDAT pdata
pdata	SEGMENT
$pdata$s390_GetOldRCP DD imagerel $LN5
	DD	imagerel $LN5+219
	DD	imagerel $unwind$s390_GetOldRCP
pdata	ENDS
;	COMDAT pdata
pdata	SEGMENT
$pdata$s390_GetPGSTE_and_RCPTE DD imagerel $LN12
	DD	imagerel $LN12+283
	DD	imagerel $unwind$s390_GetPGSTE_and_RCPTE
pdata	ENDS
pdata	SEGMENT
$pdata$z900_sie_exit DD imagerel $LN228
	DD	imagerel $LN228+8672
	DD	imagerel $unwind$z900_sie_exit
$pdata$z900_diagnose_002 DD imagerel $LN18
	DD	imagerel $LN18+703
	DD	imagerel $unwind$z900_diagnose_002
$pdata$z900_store_hypervisor_information DD imagerel $LN11
	DD	imagerel $LN11+178
	DD	imagerel $unwind$z900_store_hypervisor_information
$pdata$z900_start_interpretive_execution DD imagerel $LN171
	DD	imagerel $LN171+10102
	DD	imagerel $unwind$z900_start_interpretive_execution
$pdata$z900_test_pending_zone_interrupt DD imagerel $LN34
	DD	imagerel $LN34+1135
	DD	imagerel $unwind$z900_test_pending_zone_interrupt
$pdata$z900_store_zone_parameter DD imagerel $LN27
	DD	imagerel $LN27+1068
	DD	imagerel $unwind$z900_store_zone_parameter
$pdata$z900_set_zone_parameter DD imagerel $LN30
	DD	imagerel $LN30+1252
	DD	imagerel $unwind$z900_set_zone_parameter
$pdata$z900_extract_and_set_storage_attributes DD imagerel $LN11
	DD	imagerel $LN11+191
	DD	imagerel $unwind$z900_extract_and_set_storage_attributes
pdata	ENDS
;	COMDAT pdata
pdata	SEGMENT
$pdata$z900__or_storage_key DD imagerel $LN8
	DD	imagerel $LN8+159
	DD	imagerel $unwind$z900__or_storage_key
pdata	ENDS
;	COMDAT pdata
pdata	SEGMENT
$pdata$z900_get_ptr_to_4K_storekey DD imagerel $LN3
	DD	imagerel $LN3+26
	DD	imagerel $unwind$z900_get_ptr_to_4K_storekey
pdata	ENDS
;	COMDAT pdata
pdata	SEGMENT
$pdata$z900_or_4K_storage_key DD imagerel $LN3
	DD	imagerel $LN3+42
	DD	imagerel $unwind$z900_or_4K_storage_key
pdata	ENDS
;	COMDAT pdata
pdata	SEGMENT
$pdata$z900_get_ptr_to_storekey DD imagerel $LN3
	DD	imagerel $LN3+24
	DD	imagerel $unwind$z900_get_ptr_to_storekey
pdata	ENDS
;	COMDAT pdata
pdata	SEGMENT
$pdata$z900_per3_zero DD imagerel $LN12
	DD	imagerel $LN12+215
	DD	imagerel $unwind$z900_per3_zero
pdata	ENDS
;	COMDAT pdata
pdata	SEGMENT
$pdata$z900_per3_zero_xcheck DD imagerel $LN6
	DD	imagerel $LN6+108
	DD	imagerel $unwind$z900_per3_zero_xcheck
pdata	ENDS
;	COMDAT pdata
pdata	SEGMENT
$pdata$z900_maddr_l DD imagerel $LN18
	DD	imagerel $LN18+657
	DD	imagerel $unwind$z900_maddr_l
pdata	ENDS
;	COMDAT pdata
pdata	SEGMENT
$pdata$z900_vstorec DD imagerel $LN9
	DD	imagerel $LN9+511
	DD	imagerel $unwind$z900_vstorec
pdata	ENDS
;	COMDAT pdata
pdata	SEGMENT
$pdata$z900_vfetchc DD imagerel $LN9
	DD	imagerel $LN9+445
	DD	imagerel $unwind$z900_vfetchc
pdata	ENDS
;	COMDAT pdata
pdata	SEGMENT
$pdata$z900_instfetch DD imagerel $LN96
	DD	imagerel $LN96+2956
	DD	imagerel $unwind$z900_instfetch
pdata	ENDS
;	COMDAT pdata
pdata	SEGMENT
$pdata$z900_LockUnlockSCALock DD imagerel $LN13
	DD	imagerel $LN13+267
	DD	imagerel $unwind$z900_LockUnlockSCALock
pdata	ENDS
;	COMDAT pdata
pdata	SEGMENT
$pdata$z900_LockUnlockRCPLock DD imagerel $LN8
	DD	imagerel $LN8+161
	DD	imagerel $unwind$z900_LockUnlockRCPLock
pdata	ENDS
;	COMDAT pdata
pdata	SEGMENT
$pdata$z900_LockUnlockSKALock DD imagerel $LN8
	DD	imagerel $LN8+217
	DD	imagerel $unwind$z900_LockUnlockSKALock
pdata	ENDS
;	COMDAT pdata
pdata	SEGMENT
$pdata$z900_LockUnlockKeyLock DD imagerel $LN5
	DD	imagerel $LN5+75
	DD	imagerel $unwind$z900_LockUnlockKeyLock
pdata	ENDS
;	COMDAT pdata
pdata	SEGMENT
$pdata$z900_GetPGSTEFromPTE DD imagerel $LN5
	DD	imagerel $LN5+108
	DD	imagerel $unwind$z900_GetPGSTEFromPTE
pdata	ENDS
;	COMDAT pdata
pdata	SEGMENT
$pdata$z900_GetPGSTE DD imagerel $LN8
	DD	imagerel $LN8+187
	DD	imagerel $unwind$z900_GetPGSTE
pdata	ENDS
;	COMDAT pdata
pdata	SEGMENT
$pdata$z900_GetOldRCP DD imagerel $LN3
	DD	imagerel $LN3+146
	DD	imagerel $unwind$z900_GetOldRCP
pdata	ENDS
;	COMDAT pdata
pdata	SEGMENT
$pdata$z900_GetPGSTE_and_RCPTE DD imagerel $LN7
	DD	imagerel $LN7+187
	DD	imagerel $unwind$z900_GetPGSTE_and_RCPTE
pdata	ENDS
;	COMDAT ??_C@_0CM@NOJKKEDI@C?3?2papa?2MyGit?2hyperion?9zvector?2@
_DATA	SEGMENT
??_C@_0CM@NOJKKEDI@C?3?2papa?2MyGit?2hyperion?9zvector?2@ DB 'C:\papa\MyG'
	DB	'it\hyperion-zvector\vstore.h:943', 00H	; `string'
_DATA	ENDS
;	COMDAT ??_C@_0CM@GFKCBHDD@C?3?2papa?2MyGit?2hyperion?9zvector?2@
_DATA	SEGMENT
??_C@_0CM@GFKCBHDD@C?3?2papa?2MyGit?2hyperion?9zvector?2@ DB 'C:\papa\MyG'
	DB	'it\hyperion-zvector\vstore.h:863', 00H	; `string'
_DATA	ENDS
_DATA	SEGMENT
run_sie	DQ	FLAT:s370_run_sie
	DQ	FLAT:s390_run_sie
	DQ	FLAT:z900_run_sie
$SG169958 DB	'sie.c:999', 00H
	ORG $+6
$SG169959 DB	'run_sie h,g,a', 00H
	ORG $+2
$SG169961 DB	'sie.c:1021', 00H
	ORG $+1
$SG170001 DB	'W', 00H
	ORG $+2
$SG169962 DB	'run_sie setjmp', 00H
	ORG $+1
$SG169966 DB	'sie.c:1028', 00H
	ORG $+1
$SG180558 DB	'SIE', 00H
$SG169967 DB	'run_sie run...', 00H
	ORG $+1
$SG169973 DB	'sie.c:1063', 00H
	ORG $+1
$SG180574 DB	'E', 00H
	ORG $+2
$SG169980 DB	'sie.c:1111', 00H
	ORG $+1
$SG180944 DB	'W', 00H
	ORG $+2
$SG169985 DB	'sie.c:1123', 00H
	ORG $+1
$SG181349 DB	'SZP', 00H
$SG169994 DB	'sie.c:1145', 00H
	ORG $+1
$SG194857 DB	'SIE', 00H
$SG169995 DB	'sie.c:1148', 00H
	ORG $+1
$SG194873 DB	'E', 00H
	ORG $+2
$SG169996 DB	'sie.c:1157', 00H
	ORG $+1
$SG195312 DB	'W', 00H
	ORG $+2
$SG169997 DB	'sie.c:1163', 00H
	ORG $+5
$SG170003 DB	's370_run_sie', 00H
	ORG $+3
$SG170004 DB	'sie.c', 00H
	ORG $+2
$SG170002 DB	'HHC00835%s Processor %s%02X: aie invalidated; instructio'
	DB	'n being refetched', 0aH, 00H
	ORG $+1
$SG195321 DB	'W', 00H
	ORG $+2
$SG170013 DB	'sie.c:1343', 00H
	ORG $+1
$SG195331 DB	'W', 00H
	ORG $+2
$SG170014 DB	'run_sie !run', 00H
	ORG $+3
$SG170028 DB	'sie.c:1363', 00H
	ORG $+1
$SG195339 DB	0b2H, 0f8H, 00H
	ORG $+1
$SG170029 DB	'run_sie !run', 00H
	ORG $+3
$SG170031 DB	'sie.c:1368', 00H
	ORG $+1
$SG195349 DB	0b2H, 0f8H, 00H
	ORG $+1
$SG170032 DB	'run_sie ret', 00H
$SG195359 DB	0b2H, 0f8H, 00H
	ORG $+1
$SG180557 DB	'C:\papa\MyGit\hyperion-zvector\sie.c:351', 00H
	ORG $+3
$SG181302 DB	'*STZP', 00H
	ORG $+2
$SG195735 DB	'D', 00H
	ORG $+2
$SG180563 DB	'C:\papa\MyGit\hyperion-zvector\sie.c:395', 00H
	ORG $+3
$SG181411 DB	'*TPZI', 00H
	ORG $+2
$SG195745 DB	'D', 00H
	ORG $+2
$SG180564 DB	'SIE h,g,a', 00H
	ORG $+2
$SG195889 DB	'SZP', 00H
$SG180566 DB	'C:\papa\MyGit\hyperion-zvector\sie.c:398', 00H
	ORG $+3
$SG195837 DB	'*STZP', 00H
	ORG $+6
$SG180567 DB	'C:\papa\MyGit\hyperion-zvector\sie.c:402', 00H
	ORG $+7
$SG180570 DB	'C:\papa\MyGit\hyperion-zvector\sie.c:408', 00H
	ORG $+7
$SG180571 DB	'SIE calloc g', 00H
	ORG $+3
$SG180573 DB	'calloc()', 00H
	ORG $+7
$SG180575 DB	'HHC00813%s Processor %s%02X: error in function %s: %s', 0aH
	DB	00H
	ORG $+1
$SG180576 DB	's390_start_interpretive_execution', 00H
	ORG $+6
$SG180577 DB	'C:\papa\MyGit\hyperion-zvector\sie.c', 00H
	ORG $+3
$SG180601 DB	'C:\papa\MyGit\hyperion-zvector\sie.c:799', 00H
	ORG $+7
$SG180602 DB	'SIE a=1', 00H
$SG180603 DB	'C:\papa\MyGit\hyperion-zvector\sie.c:800', 00H
	ORG $+7
$SG180604 DB	'C:\papa\MyGit\hyperion-zvector\sie.c:804', 00H
	ORG $+7
$SG180609 DB	'C:\papa\MyGit\hyperion-zvector\sie.c:826', 00H
	ORG $+7
$SG180610 DB	'SIE a=0', 00H
$SG180611 DB	'C:\papa\MyGit\hyperion-zvector\sie.c:827', 00H
	ORG $+7
$SG180612 DB	'C:\papa\MyGit\hyperion-zvector\sie.c:831', 00H
	ORG $+7
$SG180616 DB	'C:\papa\MyGit\hyperion-zvector\sie.c:843', 00H
	ORG $+7
$SG180617 DB	'SIE a=0', 00H
$SG180618 DB	'C:\papa\MyGit\hyperion-zvector\sie.c:844', 00H
	ORG $+7
$SG180619 DB	'C:\papa\MyGit\hyperion-zvector\sie.c:848', 00H
	ORG $+7
$SG180620 DB	'C:\papa\MyGit\hyperion-zvector\sie.c:854', 00H
	ORG $+7
$SG180634 DB	'C:\papa\MyGit\hyperion-zvector\sie.c:907', 00H
	ORG $+7
$SG180637 DB	'C:\papa\MyGit\hyperion-zvector\sie.c:912', 00H
	ORG $+7
$SG180638 DB	'*SIE > pgmint', 00H
	ORG $+2
$SG180640 DB	'C:\papa\MyGit\hyperion-zvector\sie.c:917', 00H
	ORG $+7
$SG180641 DB	'SIE > run_sie', 00H
	ORG $+2
$SG180643 DB	'C:\papa\MyGit\hyperion-zvector\sie.c:919', 00H
	ORG $+7
$SG180644 DB	'SIE < run_sie', 00H
	ORG $+2
$SG180646 DB	'C:\papa\MyGit\hyperion-zvector\sie.c:924', 00H
	ORG $+7
$SG180647 DB	'SIE > sie_exit', 00H
	ORG $+1
$SG180649 DB	'C:\papa\MyGit\hyperion-zvector\sie.c:926', 00H
	ORG $+7
$SG180650 DB	'SIE < sie_exit', 00H
	ORG $+1
$SG180652 DB	'C:\papa\MyGit\hyperion-zvector\sie.c:933', 00H
	ORG $+7
$SG180653 DB	'SIE progjmp', 00H
	ORG $+4
$SG180896 DB	'C:\papa\MyGit\hyperion-zvector\sie.c:999', 00H
	ORG $+7
$SG180897 DB	'run_sie h,g,a', 00H
	ORG $+2
$SG180899 DB	'C:\papa\MyGit\hyperion-zvector\sie.c:1021', 00H
	ORG $+6
$SG180900 DB	'run_sie setjmp', 00H
	ORG $+1
$SG180904 DB	'C:\papa\MyGit\hyperion-zvector\sie.c:1028', 00H
	ORG $+6
$SG180905 DB	'run_sie run...', 00H
	ORG $+1
$SG180911 DB	'C:\papa\MyGit\hyperion-zvector\sie.c:1063', 00H
	ORG $+6
$SG180918 DB	'C:\papa\MyGit\hyperion-zvector\sie.c:1111', 00H
	ORG $+6
$SG180923 DB	'C:\papa\MyGit\hyperion-zvector\sie.c:1123', 00H
	ORG $+6
$SG180937 DB	'C:\papa\MyGit\hyperion-zvector\sie.c:1145', 00H
	ORG $+6
$SG180938 DB	'C:\papa\MyGit\hyperion-zvector\sie.c:1148', 00H
	ORG $+6
$SG180939 DB	'C:\papa\MyGit\hyperion-zvector\sie.c:1157', 00H
	ORG $+6
$SG180940 DB	'C:\papa\MyGit\hyperion-zvector\sie.c:1163', 00H
	ORG $+6
$SG180946 DB	's390_run_sie', 00H
	ORG $+3
$SG180947 DB	'C:\papa\MyGit\hyperion-zvector\sie.c', 00H
	ORG $+3
$SG180945 DB	'HHC00835%s Processor %s%02X: aie invalidated; instructio'
	DB	'n being refetched', 0aH, 00H
	ORG $+5
$SG180956 DB	'C:\papa\MyGit\hyperion-zvector\sie.c:1343', 00H
	ORG $+6
$SG180957 DB	'run_sie !run', 00H
	ORG $+3
$SG180971 DB	'C:\papa\MyGit\hyperion-zvector\sie.c:1363', 00H
	ORG $+6
$SG180972 DB	'run_sie !run', 00H
	ORG $+3
$SG180974 DB	'C:\papa\MyGit\hyperion-zvector\sie.c:1368', 00H
	ORG $+6
$SG180975 DB	'run_sie ret', 00H
	ORG $+4
$SG181181 DB	'C:\papa\MyGit\hyperion-zvector\sie.c:1406', 00H
	ORG $+6
$SG181182 DB	'sie_xit i,h,g', 00H
	ORG $+2
$SG181191 DB	'C:\papa\MyGit\hyperion-zvector\sie.c:1458', 00H
	ORG $+6
$SG181192 DB	'sie_xit inst', 00H
	ORG $+3
$SG181194 DB	'C:\papa\MyGit\hyperion-zvector\sie.c:1474', 00H
	ORG $+6
$SG181196 DB	'C:\papa\MyGit\hyperion-zvector\sie.c:1477', 00H
	ORG $+6
$SG181197 DB	'sie_xit a=0', 00H
	ORG $+4
$SG181198 DB	'C:\papa\MyGit\hyperion-zvector\sie.c:1479', 00H
	ORG $+6
$SG181220 DB	'C:\papa\MyGit\hyperion-zvector\sie.c:1516', 00H
	ORG $+6
$SG181221 DB	'sie_xit STA_c', 00H
	ORG $+2
$SG181253 DB	'C:\papa\MyGit\hyperion-zvector\sie.c:1754', 00H
	ORG $+6
$SG181254 DB	'sie_xit ret', 00H
	ORG $+4
$SG181296 DB	'C:\papa\MyGit\hyperion-zvector\sie.c:1780', 00H
	ORG $+2
$SG181297 DB	'STZP', 00H
	ORG $+7
$SG181301 DB	'C:\papa\MyGit\hyperion-zvector\sie.c:1788', 00H
	ORG $+6
$SG181348 DB	'C:\papa\MyGit\hyperion-zvector\sie.c:1825', 00H
	ORG $+6
$SG181354 DB	'C:\papa\MyGit\hyperion-zvector\sie.c:1833', 00H
	ORG $+2
$SG181355 DB	'*SZP', 00H
	ORG $+7
$SG181405 DB	'C:\papa\MyGit\hyperion-zvector\sie.c:1884', 00H
	ORG $+2
$SG181406 DB	'TPZI', 00H
	ORG $+7
$SG181410 DB	'C:\papa\MyGit\hyperion-zvector\sie.c:1896', 00H
	ORG $+6
$SG181414 DB	'C:\papa\MyGit\hyperion-zvector\sie.c:1904', 00H
	ORG $+6
$SG181417 DB	'C:\papa\MyGit\hyperion-zvector\sie.c:1918', 00H
	ORG $+6
$SG181418 DB	'C:\papa\MyGit\hyperion-zvector\sie.c:1927', 00H
	ORG $+6
$SG181443 DB	'C:\papa\MyGit\hyperion-zvector\sie.c:1957', 00H
	ORG $+6
$SG181444 DB	'*DIAG002', 00H
	ORG $+7
$SG181445 DB	'C:\papa\MyGit\hyperion-zvector\sie.c:1963', 00H
	ORG $+6
$SG181449 DB	'C:\papa\MyGit\hyperion-zvector\sie.c:1988', 00H
	ORG $+6
$SG194852 DB	'C:\papa\MyGit\hyperion-zvector\sie.c:346', 00H
	ORG $+7
$SG194856 DB	'C:\papa\MyGit\hyperion-zvector\sie.c:351', 00H
	ORG $+7
$SG194862 DB	'C:\papa\MyGit\hyperion-zvector\sie.c:395', 00H
	ORG $+7
$SG194863 DB	'SIE h,g,a', 00H
	ORG $+6
$SG194865 DB	'C:\papa\MyGit\hyperion-zvector\sie.c:398', 00H
	ORG $+7
$SG194866 DB	'C:\papa\MyGit\hyperion-zvector\sie.c:402', 00H
	ORG $+7
$SG194869 DB	'C:\papa\MyGit\hyperion-zvector\sie.c:408', 00H
	ORG $+7
$SG194870 DB	'SIE calloc g', 00H
	ORG $+3
$SG194872 DB	'calloc()', 00H
	ORG $+7
$SG194874 DB	'HHC00813%s Processor %s%02X: error in function %s: %s', 0aH
	DB	00H
	ORG $+1
$SG194875 DB	'z900_start_interpretive_execution', 00H
	ORG $+6
$SG194876 DB	'C:\papa\MyGit\hyperion-zvector\sie.c', 00H
	ORG $+3
$SG194903 DB	'C:\papa\MyGit\hyperion-zvector\sie.c:799', 00H
	ORG $+7
$SG194904 DB	'SIE a=1', 00H
$SG194905 DB	'C:\papa\MyGit\hyperion-zvector\sie.c:800', 00H
	ORG $+7
$SG194906 DB	'C:\papa\MyGit\hyperion-zvector\sie.c:804', 00H
	ORG $+7
$SG194911 DB	'C:\papa\MyGit\hyperion-zvector\sie.c:826', 00H
	ORG $+7
$SG194912 DB	'SIE a=0', 00H
$SG194913 DB	'C:\papa\MyGit\hyperion-zvector\sie.c:827', 00H
	ORG $+7
$SG194914 DB	'C:\papa\MyGit\hyperion-zvector\sie.c:831', 00H
	ORG $+7
$SG194918 DB	'C:\papa\MyGit\hyperion-zvector\sie.c:843', 00H
	ORG $+7
$SG194919 DB	'SIE a=0', 00H
$SG194920 DB	'C:\papa\MyGit\hyperion-zvector\sie.c:844', 00H
	ORG $+7
$SG194921 DB	'C:\papa\MyGit\hyperion-zvector\sie.c:848', 00H
	ORG $+7
$SG194922 DB	'C:\papa\MyGit\hyperion-zvector\sie.c:854', 00H
	ORG $+7
$SG194929 DB	'C:\papa\MyGit\hyperion-zvector\sie.c:907', 00H
	ORG $+7
$SG194932 DB	'C:\papa\MyGit\hyperion-zvector\sie.c:912', 00H
	ORG $+7
$SG194933 DB	'*SIE > pgmint', 00H
	ORG $+2
$SG194935 DB	'C:\papa\MyGit\hyperion-zvector\sie.c:917', 00H
	ORG $+7
$SG194936 DB	'SIE > run_sie', 00H
	ORG $+2
$SG194938 DB	'C:\papa\MyGit\hyperion-zvector\sie.c:919', 00H
	ORG $+7
$SG194939 DB	'SIE < run_sie', 00H
	ORG $+2
$SG194941 DB	'C:\papa\MyGit\hyperion-zvector\sie.c:924', 00H
	ORG $+7
$SG194942 DB	'SIE > sie_exit', 00H
	ORG $+1
$SG194944 DB	'C:\papa\MyGit\hyperion-zvector\sie.c:926', 00H
	ORG $+7
$SG194945 DB	'SIE < sie_exit', 00H
	ORG $+1
$SG194947 DB	'C:\papa\MyGit\hyperion-zvector\sie.c:933', 00H
	ORG $+7
$SG194948 DB	'SIE progjmp', 00H
	ORG $+4
$SG195261 DB	'C:\papa\MyGit\hyperion-zvector\sie.c:999', 00H
	ORG $+7
$SG195262 DB	'run_sie h,g,a', 00H
	ORG $+2
$SG195264 DB	'C:\papa\MyGit\hyperion-zvector\sie.c:1021', 00H
	ORG $+6
$SG195265 DB	'run_sie setjmp', 00H
	ORG $+1
$SG195269 DB	'C:\papa\MyGit\hyperion-zvector\sie.c:1028', 00H
	ORG $+6
$SG195270 DB	'run_sie run...', 00H
	ORG $+1
$SG195277 DB	'C:\papa\MyGit\hyperion-zvector\sie.c:1063', 00H
	ORG $+6
$SG195285 DB	'C:\papa\MyGit\hyperion-zvector\sie.c:1111', 00H
	ORG $+6
$SG195290 DB	'C:\papa\MyGit\hyperion-zvector\sie.c:1123', 00H
	ORG $+6
$SG195304 DB	'C:\papa\MyGit\hyperion-zvector\sie.c:1145', 00H
	ORG $+6
$SG195305 DB	'C:\papa\MyGit\hyperion-zvector\sie.c:1148', 00H
	ORG $+6
$SG195306 DB	'C:\papa\MyGit\hyperion-zvector\sie.c:1157', 00H
	ORG $+6
$SG195307 DB	'C:\papa\MyGit\hyperion-zvector\sie.c:1163', 00H
	ORG $+6
$SG195314 DB	'z900_run_sie', 00H
	ORG $+3
$SG195315 DB	'C:\papa\MyGit\hyperion-zvector\sie.c', 00H
	ORG $+3
$SG195313 DB	'HHC00835%s Processor %s%02X: aie invalidated; instructio'
	DB	'n being refetched', 0aH, 00H
	ORG $+5
$SG195322 DB	'HHC00835%s Processor %s%02X: aie invalidated; instructio'
	DB	'n being refetched', 0aH, 00H
	ORG $+5
$SG195323 DB	'z900_run_sie', 00H
	ORG $+3
$SG195324 DB	'C:\papa\MyGit\hyperion-zvector\sie.c', 00H
	ORG $+3
$SG195334 DB	'C:\papa\MyGit\hyperion-zvector\sie.c', 00H
	ORG $+3
$SG195332 DB	'HHC00835%s Processor %s%02X: aie invalidated; instructio'
	DB	'n being refetched', 0aH, 00H
	ORG $+5
$SG195333 DB	'z900_run_sie', 00H
	ORG $+3
$SG195337 DB	'C:\papa\MyGit\hyperion-zvector\sie.c:1268', 00H
	ORG $+6
$SG195340 DB	'C:\papa\MyGit\hyperion-zvector\sie.c:1268', 00H
	ORG $+6
$SG195342 DB	'C:\papa\MyGit\hyperion-zvector\sie.c:1268', 00H
	ORG $+6
$SG195347 DB	'C:\papa\MyGit\hyperion-zvector\sie.c:1278', 00H
	ORG $+6
$SG195350 DB	'C:\papa\MyGit\hyperion-zvector\sie.c:1278', 00H
	ORG $+6
$SG195352 DB	'C:\papa\MyGit\hyperion-zvector\sie.c:1278', 00H
	ORG $+6
$SG195357 DB	'C:\papa\MyGit\hyperion-zvector\sie.c:1283', 00H
	ORG $+6
$SG195360 DB	'C:\papa\MyGit\hyperion-zvector\sie.c:1283', 00H
	ORG $+6
$SG195362 DB	'C:\papa\MyGit\hyperion-zvector\sie.c:1283', 00H
	ORG $+6
$SG195370 DB	'C:\papa\MyGit\hyperion-zvector\sie.c:1343', 00H
	ORG $+6
$SG195371 DB	'run_sie !run', 00H
	ORG $+3
$SG195385 DB	'C:\papa\MyGit\hyperion-zvector\sie.c:1363', 00H
	ORG $+6
$SG195386 DB	'run_sie !run', 00H
	ORG $+3
$SG195388 DB	'C:\papa\MyGit\hyperion-zvector\sie.c:1368', 00H
	ORG $+6
$SG195389 DB	'run_sie ret', 00H
	ORG $+4
$SG195668 DB	'C:\papa\MyGit\hyperion-zvector\sie.c:1406', 00H
	ORG $+6
$SG195669 DB	'sie_xit i,h,g', 00H
	ORG $+2
$SG195679 DB	'C:\papa\MyGit\hyperion-zvector\sie.c:1458', 00H
	ORG $+6
$SG195680 DB	'sie_xit inst', 00H
	ORG $+3
$SG195682 DB	'C:\papa\MyGit\hyperion-zvector\sie.c:1474', 00H
	ORG $+6
$SG195684 DB	'C:\papa\MyGit\hyperion-zvector\sie.c:1477', 00H
	ORG $+6
$SG195685 DB	'sie_xit a=0', 00H
	ORG $+4
$SG195686 DB	'C:\papa\MyGit\hyperion-zvector\sie.c:1479', 00H
	ORG $+6
$SG195708 DB	'C:\papa\MyGit\hyperion-zvector\sie.c:1516', 00H
	ORG $+6
$SG195709 DB	'sie_xit STA_c', 00H
	ORG $+2
$SG195712 DB	'C:\papa\MyGit\hyperion-zvector\sie.c:1530', 00H
	ORG $+6
$SG195713 DB	'TXF itdb', 00H
	ORG $+7
$SG195714 DB	'C:\papa\MyGit\hyperion-zvector\sie.c:1532', 00H
	ORG $+6
$SG195715 DB	'C:\papa\MyGit\hyperion-zvector\sie.c:1537', 00H
	ORG $+6
$SG195717 DB	'C:\papa\MyGit\hyperion-zvector\sie.c:1539', 00H
	ORG $+6
$SG195718 DB	'TXF tnd,con', 00H
	ORG $+4
$SG195722 DB	'C:\papa\MyGit\hyperion-zvector\sie.c:1549', 00H
	ORG $+6
$SG195723 DB	'TXF abrt', 00H
	ORG $+7
$SG195724 DB	'C:\papa\MyGit\hyperion-zvector\sie.c:1552', 00H
	ORG $+6
$SG195727 DB	'C:\papa\MyGit\hyperion-zvector\sie.c:1557', 00H
	ORG $+6
$SG195728 DB	'TXF upgm', 00H
	ORG $+7
$SG195732 DB	'C:\papa\MyGit\hyperion-zvector\sie.c:1564', 00H
	ORG $+6
$SG195733 DB	'TXF itdb <=', 00H
	ORG $+4
$SG195736 DB	'HHC17714%s TXF: %s%02X: SIE: Populating Interception TDB'
	DB	' at 0x%16.16llx', 0aH, 00H
	ORG $+7
$SG195737 DB	'z900_sie_exit', 00H
	ORG $+2
$SG195738 DB	'C:\papa\MyGit\hyperion-zvector\sie.c', 00H
	ORG $+3
$SG195742 DB	'C:\papa\MyGit\hyperion-zvector\sie.c:1584', 00H
	ORG $+6
$SG195743 DB	'*TXF !itdba', 00H
$SG195832 DB	'STZP', 00H
	ORG $+7
$SG195746 DB	'HHC17716%s TXF: %s%02X: SIE: Interception TDB address no'
	DB	't provided!', 0aH, 00H
	ORG $+3
$SG195747 DB	'z900_sie_exit', 00H
	ORG $+2
$SG195748 DB	'C:\papa\MyGit\hyperion-zvector\sie.c', 00H
	ORG $+3
$SG195751 DB	'C:\papa\MyGit\hyperion-zvector\sie.c:1594', 00H
	ORG $+6
$SG195752 DB	'*TXF itdba<=0', 00H
	ORG $+2
$SG195783 DB	'C:\papa\MyGit\hyperion-zvector\sie.c:1754', 00H
	ORG $+6
$SG195784 DB	'sie_xit ret', 00H
	ORG $+4
$SG195827 DB	'C:\papa\MyGit\hyperion-zvector\sie.c:1775', 00H
	ORG $+6
$SG195831 DB	'C:\papa\MyGit\hyperion-zvector\sie.c:1780', 00H
	ORG $+6
$SG195836 DB	'C:\papa\MyGit\hyperion-zvector\sie.c:1788', 00H
	ORG $+6
$SG195884 DB	'C:\papa\MyGit\hyperion-zvector\sie.c:1820', 00H
	ORG $+6
$SG195888 DB	'C:\papa\MyGit\hyperion-zvector\sie.c:1825', 00H
	ORG $+6
$SG195894 DB	'C:\papa\MyGit\hyperion-zvector\sie.c:1833', 00H
	ORG $+2
$SG195895 DB	'*SZP', 00H
	ORG $+7
$SG195948 DB	'C:\papa\MyGit\hyperion-zvector\sie.c:1879', 00H
	ORG $+6
$SG195952 DB	'C:\papa\MyGit\hyperion-zvector\sie.c:1884', 00H
	ORG $+2
$SG195953 DB	'TPZI', 00H
	ORG $+7
$SG195957 DB	'C:\papa\MyGit\hyperion-zvector\sie.c:1896', 00H
	ORG $+2
$SG195958 DB	'*TPZI', 00H
	ORG $+6
$SG195961 DB	'C:\papa\MyGit\hyperion-zvector\sie.c:1904', 00H
	ORG $+6
$SG195964 DB	'C:\papa\MyGit\hyperion-zvector\sie.c:1918', 00H
	ORG $+6
$SG195965 DB	'C:\papa\MyGit\hyperion-zvector\sie.c:1927', 00H
	ORG $+6
$SG195990 DB	'C:\papa\MyGit\hyperion-zvector\sie.c:1957', 00H
	ORG $+6
$SG195991 DB	'*DIAG002', 00H
	ORG $+7
$SG195992 DB	'C:\papa\MyGit\hyperion-zvector\sie.c:1963', 00H
	ORG $+6
$SG195996 DB	'C:\papa\MyGit\hyperion-zvector\sie.c:1988', 00H
_DATA	ENDS
;	COMDAT xdata
xdata	SEGMENT
$unwind$z900_GetPGSTE_and_RCPTE DD 011801H
	DD	04218H
xdata	ENDS
;	COMDAT xdata
xdata	SEGMENT
$unwind$z900_GetOldRCP DD 010e01H
	DD	0820eH
xdata	ENDS
;	COMDAT xdata
xdata	SEGMENT
$unwind$z900_GetPGSTE DD 010e01H
	DD	0620eH
xdata	ENDS
;	COMDAT xdata
xdata	SEGMENT
$unwind$z900_GetPGSTEFromPTE DD 010e01H
	DD	0420eH
xdata	ENDS
;	COMDAT xdata
xdata	SEGMENT
$unwind$z900_LockUnlockKeyLock DD 011801H
	DD	04218H
xdata	ENDS
;	COMDAT voltbl
voltbl	SEGMENT
_volmd	DB	0a5H
voltbl	ENDS
;	COMDAT xdata
xdata	SEGMENT
$unwind$z900_LockUnlockSKALock DD 010d01H
	DD	0620dH
xdata	ENDS
;	COMDAT voltbl
voltbl	SEGMENT
_volmd	DB	071H
voltbl	ENDS
;	COMDAT xdata
xdata	SEGMENT
$unwind$z900_LockUnlockRCPLock DD 011301H
	DD	06213H
xdata	ENDS
;	COMDAT voltbl
voltbl	SEGMENT
_volmd	DB	0dcH
voltbl	ENDS
;	COMDAT xdata
xdata	SEGMENT
$unwind$z900_LockUnlockSCALock DD 011201H
	DD	08212H
xdata	ENDS
;	COMDAT xdata
xdata	SEGMENT
$unwind$z900_instfetch DD 021001H
	DD	0170110H
xdata	ENDS
;	COMDAT xdata
xdata	SEGMENT
$unwind$z900_vfetchc DD 031901H
	DD	07015a219H
	DD	06014H
xdata	ENDS
;	COMDAT xdata
xdata	SEGMENT
$unwind$z900_vstorec DD 031901H
	DD	07015c219H
	DD	06014H
xdata	ENDS
;	COMDAT xdata
xdata	SEGMENT
$unwind$z900_maddr_l DD 011801H
	DD	0a218H
xdata	ENDS
;	COMDAT xdata
xdata	SEGMENT
$unwind$z900_per3_zero_xcheck DD 010d01H
	DD	0620dH
xdata	ENDS
;	COMDAT xdata
xdata	SEGMENT
$unwind$z900_per3_zero DD 010901H
	DD	06209H
xdata	ENDS
;	COMDAT xdata
xdata	SEGMENT
$unwind$z900_get_ptr_to_storekey DD 010901H
	DD	04209H
xdata	ENDS
;	COMDAT xdata
xdata	SEGMENT
$unwind$z900_or_4K_storage_key DD 010d01H
	DD	0420dH
xdata	ENDS
;	COMDAT xdata
xdata	SEGMENT
$unwind$z900_get_ptr_to_4K_storekey DD 010901H
	DD	04209H
xdata	ENDS
;	COMDAT xdata
xdata	SEGMENT
$unwind$z900__or_storage_key DD 011201H
	DD	08212H
xdata	ENDS
;	COMDAT xdata
xdata	SEGMENT
$unwind$s390_GetPGSTE_and_RCPTE DD 011801H
	DD	04218H
xdata	ENDS
;	COMDAT xdata
xdata	SEGMENT
$unwind$s390_GetOldRCP DD 010e01H
	DD	0820eH
xdata	ENDS
;	COMDAT xdata
xdata	SEGMENT
$unwind$s390_GetPGSTE DD 010e01H
	DD	0820eH
xdata	ENDS
;	COMDAT xdata
xdata	SEGMENT
$unwind$s390_GetPGSTEFromPTE DD 010e01H
	DD	0420eH
xdata	ENDS
;	COMDAT xdata
xdata	SEGMENT
$unwind$s390_LockUnlockKeyLock DD 011801H
	DD	04218H
xdata	ENDS
;	COMDAT voltbl
voltbl	SEGMENT
_volmd	DB	0a5H
voltbl	ENDS
;	COMDAT xdata
xdata	SEGMENT
$unwind$s390_LockUnlockSKALock DD 010d01H
	DD	0620dH
xdata	ENDS
;	COMDAT voltbl
voltbl	SEGMENT
_volmd	DB	071H
voltbl	ENDS
;	COMDAT xdata
xdata	SEGMENT
$unwind$s390_LockUnlockRCPLock DD 011301H
	DD	06213H
xdata	ENDS
;	COMDAT voltbl
voltbl	SEGMENT
_volmd	DB	0dcH
voltbl	ENDS
;	COMDAT xdata
xdata	SEGMENT
$unwind$s390_LockUnlockSCALock DD 011201H
	DD	08212H
xdata	ENDS
;	COMDAT xdata
xdata	SEGMENT
$unwind$s390_instfetch DD 021001H
	DD	0150110H
xdata	ENDS
;	COMDAT xdata
xdata	SEGMENT
$unwind$s390_vfetchc DD 031901H
	DD	07015a219H
	DD	06014H
xdata	ENDS
;	COMDAT xdata
xdata	SEGMENT
$unwind$s390_vstorec DD 031901H
	DD	07015c219H
	DD	06014H
xdata	ENDS
;	COMDAT xdata
xdata	SEGMENT
$unwind$s390_maddr_l DD 011701H
	DD	0a217H
xdata	ENDS
;	COMDAT xdata
xdata	SEGMENT
$unwind$s390_get_ptr_to_storekey DD 010901H
	DD	04209H
xdata	ENDS
;	COMDAT xdata
xdata	SEGMENT
$unwind$s390_or_4K_storage_key DD 010d01H
	DD	0420dH
xdata	ENDS
;	COMDAT xdata
xdata	SEGMENT
$unwind$s390_get_ptr_to_4K_storekey DD 010901H
	DD	04209H
xdata	ENDS
;	COMDAT xdata
xdata	SEGMENT
$unwind$s390__or_storage_key DD 011201H
	DD	08212H
xdata	ENDS
;	COMDAT xdata
xdata	SEGMENT
$unwind$s370_GetPGSTE_and_RCPTE DD 011801H
	DD	04218H
xdata	ENDS
;	COMDAT xdata
xdata	SEGMENT
$unwind$s370_GetOldRCP DD 010e01H
	DD	0820eH
xdata	ENDS
;	COMDAT xdata
xdata	SEGMENT
$unwind$s370_GetPGSTE DD 010e01H
	DD	0620eH
xdata	ENDS
;	COMDAT xdata
xdata	SEGMENT
$unwind$s370_GetPGSTEFromPTE DD 010e01H
	DD	0420eH
xdata	ENDS
;	COMDAT xdata
xdata	SEGMENT
$unwind$s370_LockUnlockKeyLock DD 011801H
	DD	04218H
xdata	ENDS
;	COMDAT voltbl
voltbl	SEGMENT
_volmd	DB	0a5H
voltbl	ENDS
;	COMDAT xdata
xdata	SEGMENT
$unwind$s370_LockUnlockSKALock DD 010d01H
	DD	0620dH
xdata	ENDS
;	COMDAT voltbl
voltbl	SEGMENT
_volmd	DB	071H
voltbl	ENDS
;	COMDAT xdata
xdata	SEGMENT
$unwind$s370_LockUnlockRCPLock DD 011301H
	DD	06213H
xdata	ENDS
;	COMDAT voltbl
voltbl	SEGMENT
_volmd	DB	0dcH
voltbl	ENDS
;	COMDAT xdata
xdata	SEGMENT
$unwind$s370_LockUnlockSCALock DD 011201H
	DD	08212H
xdata	ENDS
;	COMDAT xdata
xdata	SEGMENT
$unwind$s370_instfetch DD 021001H
	DD	0130110H
xdata	ENDS
;	COMDAT xdata
xdata	SEGMENT
$unwind$s370_maddr_l DD 011701H
	DD	0a217H
xdata	ENDS
;	COMDAT xdata
xdata	SEGMENT
$unwind$s370_or_4K_storage_key DD 010d01H
	DD	0420dH
xdata	ENDS
;	COMDAT xdata
xdata	SEGMENT
$unwind$s370__or_storage_key DD 011201H
	DD	08212H
xdata	ENDS
;	COMDAT xdata
xdata	SEGMENT
$unwind$_get_storekey_ptr DD 010d01H
	DD	0220dH
xdata	ENDS
;	COMDAT xdata
xdata	SEGMENT
$unwind$fetch_dw_noswap DD 010901H
	DD	02209H
xdata	ENDS
;	COMDAT xdata
xdata	SEGMENT
$unwind$fetch_fw_noswap DD 010901H
	DD	02209H
xdata	ENDS
;	COMDAT xdata
xdata	SEGMENT
$unwind$fetch_hw_noswap DD 010901H
	DD	02209H
xdata	ENDS
;	COMDAT xdata
xdata	SEGMENT
$unwind$cmpxchg1_x86 DD 011201H
	DD	0c212H
xdata	ENDS
;	COMDAT voltbl
voltbl	SEGMENT
_volmd	DB	035H
voltbl	ENDS
;	COMDAT xdata
xdata	SEGMENT
$unwind$cmpxchg4_x86 DD 011201H
	DD	02212H
xdata	ENDS
voltbl	SEGMENT
_volmd	DD	0ffffffffH
	DDSymXIndex: 	FLAT:atomic_update64
	DD	014H
_volmd	DD	0ffffffffH
	DDSymXIndex: 	FLAT:z900_set_zone_parameter
	DD	01bH
	DD	04ccH
_volmd	DD	0ffffffffH
	DDSymXIndex: 	FLAT:z900_store_zone_parameter
	DD	01bH
	DD	0417H
_volmd	DD	0ffffffffH
	DDSymXIndex: 	FLAT:z900_test_pending_zone_interrupt
	DD	01bH
	DD	045aH
_volmd	DD	0ffffffffH
	DDSymXIndex: 	FLAT:s390_set_zone_parameter
	DD	01bH
	DD	03f6H
_volmd	DD	0ffffffffH
	DDSymXIndex: 	FLAT:s390_store_zone_parameter
	DD	01bH
	DD	03b2H
_volmd	DD	0ffffffffH
	DDSymXIndex: 	FLAT:s390_test_pending_zone_interrupt
	DD	01bH
	DD	03fdH
_volmd	DD	0ffffffffH
	DDSymXIndex: 	FLAT:z900_run_sie
	DD	016H
	DD	0273fH
_volmd	DD	0ffffffffH
	DDSymXIndex: 	FLAT:s390_run_sie
	DD	016H
	DD	0175aH
_volmd	DD	0ffffffffH
	DDSymXIndex: 	FLAT:s370_run_sie
	DD	016H
	DD	01725H
_volmd	DD	0ffffffffH
	DDSymXIndex: 	FLAT:host_tod
	DD	0eH
	DD	097H
_volmd	DD	0ffffffffH
	DDSymXIndex: 	FLAT:z900_start_interpretive_execution
	DD	013H
	DD	01e70H
	DD	01e74H
	DD	025e3H
	DD	025fcH
	DD	02653H
	DD	02695H
_volmd	DD	0ffffffffH
	DDSymXIndex: 	FLAT:s390_start_interpretive_execution
	DD	013H
	DD	01c56H
	DD	01c5aH
	DD	025f1H
	DD	0260aH
	DD	02661H
	DD	026a3H
voltbl	ENDS
xdata	SEGMENT
$unwind$calloc_aligned DD 020f01H
	DD	0700b520fH
$unwind$host_tod DD 011319H
	DD	0a204H
	DD	imagerel __GSHandlerCheck
	DD	040H
$unwind$Interrupt_Lock_Obtained DD 010e01H
	DD	0420eH
$unwind$Obtain_Interrupt_Lock DD 010e01H
	DD	0420eH
$unwind$Release_Interrupt_Lock DD 010e01H
	DD	0420eH
$unwind$s370_run_sie DD 021e19H
	DD	01f010cH
	DD	imagerel __GSHandlerCheck
	DD	0e0H
$unwind$s390_run_sie DD 021e19H
	DD	01b010cH
	DD	imagerel __GSHandlerCheck
	DD	0c8H
$unwind$z900_run_sie DD 021e19H
	DD	023010cH
	DD	imagerel __GSHandlerCheck
	DD	0108H
$unwind$s390_sie_exit DD 041201H
	DD	01d0112H
	DD	0600a700bH
$unwind$s390_diagnose_002 DD 011201H
	DD	0c212H
$unwind$s390_start_interpretive_execution DD 041301H
	DD	0230113H
	DD	0600b700cH
$unwind$s390_test_pending_zone_interrupt DD 022019H
	DD	0110111H
	DD	imagerel __GSHandlerCheck
	DD	070H
$unwind$s390_store_zone_parameter DD 022019H
	DD	0110111H
	DD	imagerel __GSHandlerCheck
	DD	078H
$unwind$s390_set_zone_parameter DD 022319H
	DD	0150111H
	DD	imagerel __GSHandlerCheck
	DD	098H
$unwind$z900_sie_exit DD 041201H
	DD	0270112H
	DD	0600a700bH
$unwind$z900_diagnose_002 DD 011201H
	DD	0c212H
$unwind$z900_store_hypervisor_information DD 010e01H
	DD	0620eH
$unwind$z900_start_interpretive_execution DD 041301H
	DD	0230113H
	DD	0600b700cH
$unwind$z900_test_pending_zone_interrupt DD 022019H
	DD	0110111H
	DD	imagerel __GSHandlerCheck
	DD	070H
$unwind$z900_store_zone_parameter DD 022019H
	DD	0110111H
	DD	imagerel __GSHandlerCheck
	DD	078H
$unwind$z900_set_zone_parameter DD 022319H
	DD	0150111H
	DD	imagerel __GSHandlerCheck
	DD	098H
$unwind$z900_extract_and_set_storage_attributes DD 010e01H
	DD	0620eH
xdata	ENDS
; Function compile flags: /Odtp
; File C:\papa\MyGit\hyperion-zvector\sie.h
;	COMDAT z900_GetPGSTE_and_RCPTE
_TEXT	SEGMENT
regs$ = 48
gabspage$ = 56
ppPGSTE$ = 64
ppRCPTE$ = 72
z900_GetPGSTE_and_RCPTE PROC				; COMDAT

; 516  : {

$LN7:
  00000	4c 89 4c 24 20	 mov	 QWORD PTR [rsp+32], r9
  00005	4c 89 44 24 18	 mov	 QWORD PTR [rsp+24], r8
  0000a	48 89 54 24 10	 mov	 QWORD PTR [rsp+16], rdx
  0000f	48 89 4c 24 08	 mov	 QWORD PTR [rsp+8], rcx
  00014	48 83 ec 28	 sub	 rsp, 40			; 00000028H

; 517  : #if defined( _FEATURE_STORAGE_KEY_ASSIST )
; 518  :     if (0
; 519  :         || SIE_STATE_BIT_ON( regs, RCPO0, SKA )
; 520  : #if defined( _FEATURE_ZSIE )
; 521  :         // SKA is always active for z/VM
; 522  :         || ARCH_900_IDX == HOSTREGS->arch_mode

  00018	33 c0		 xor	 eax, eax
  0001a	85 c0		 test	 eax, eax
  0001c	75 49		 jne	 SHORT $LN4@z900_GetPG
  0001e	48 8b 44 24 30	 mov	 rax, QWORD PTR regs$[rsp]
  00023	8b 80 c8 08 00
	00		 mov	 eax, DWORD PTR [rax+2248]
  00029	d1 e8		 shr	 eax, 1
  0002b	83 e0 01	 and	 eax, 1
  0002e	85 c0		 test	 eax, eax
  00030	74 23		 je	 SHORT $LN5@z900_GetPG
  00032	48 8b 44 24 30	 mov	 rax, QWORD PTR regs$[rsp]
  00037	48 8b 80 88 08
	00 00		 mov	 rax, QWORD PTR [rax+2184]
  0003e	b9 01 00 00 00	 mov	 ecx, 1
  00043	48 6b c9 00	 imul	 rcx, rcx, 0
  00047	0f b6 44 08 60	 movzx	 eax, BYTE PTR [rax+rcx+96]
  0004c	25 80 00 00 00	 and	 eax, 128		; 00000080H
  00051	85 c0		 test	 eax, eax
  00053	75 12		 jne	 SHORT $LN4@z900_GetPG
$LN5@z900_GetPG:
  00055	48 8b 44 24 30	 mov	 rax, QWORD PTR regs$[rsp]
  0005a	48 8b 80 68 08
	00 00		 mov	 rax, QWORD PTR [rax+2152]
  00061	83 78 64 02	 cmp	 DWORD PTR [rax+100], 2
  00065	75 2c		 jne	 SHORT $LN2@z900_GetPG
$LN4@z900_GetPG:

; 523  : #endif
; 524  :     )
; 525  :     {
; 526  :         /* SKA: Get pointer to both PGSTE and RCPTE */
; 527  :         *ppPGSTE = ARCH_DEP( GetPGSTE )( regs, gabspage );

  00067	48 8b 54 24 38	 mov	 rdx, QWORD PTR gabspage$[rsp]
  0006c	48 8b 4c 24 30	 mov	 rcx, QWORD PTR regs$[rsp]
  00071	e8 00 00 00 00	 call	 z900_GetPGSTE
  00076	48 8b 4c 24 40	 mov	 rcx, QWORD PTR ppPGSTE$[rsp]
  0007b	48 89 01	 mov	 QWORD PTR [rcx], rax

; 528  :         *ppRCPTE = &(*ppPGSTE)->pgsrcp;

  0007e	48 8b 44 24 40	 mov	 rax, QWORD PTR ppPGSTE$[rsp]
  00083	48 8b 00	 mov	 rax, QWORD PTR [rax]
  00086	48 ff c0	 inc	 rax
  00089	48 8b 4c 24 48	 mov	 rcx, QWORD PTR ppRCPTE$[rsp]
  0008e	48 89 01	 mov	 QWORD PTR [rcx], rax

; 529  :     }

  00091	eb 23		 jmp	 SHORT $LN3@z900_GetPG
$LN2@z900_GetPG:

; 530  :     else // (NOT SKA...)
; 531  : #endif /* defined( _FEATURE_STORAGE_KEY_ASSIST ) */
; 532  :     {
; 533  : #if defined( FEATURE_MULTIPLE_CONTROLLED_DATA_SPACE )
; 534  :         if (SIE_STATE_BIT_ON( regs, MX, XC ))
; 535  :             SIE_INTERCEPT( regs );
; 536  : #endif
; 537  :         /* Get just the pointer to the old RCP table byte */
; 538  :         *ppPGSTE = NULL;

  00093	48 8b 44 24 40	 mov	 rax, QWORD PTR ppPGSTE$[rsp]
  00098	48 c7 00 00 00
	00 00		 mov	 QWORD PTR [rax], 0

; 539  :         *ppRCPTE = ARCH_DEP( GetOldRCP )( regs, gabspage );

  0009f	48 8b 54 24 38	 mov	 rdx, QWORD PTR gabspage$[rsp]
  000a4	48 8b 4c 24 30	 mov	 rcx, QWORD PTR regs$[rsp]
  000a9	e8 00 00 00 00	 call	 z900_GetOldRCP
  000ae	48 8b 4c 24 48	 mov	 rcx, QWORD PTR ppRCPTE$[rsp]
  000b3	48 89 01	 mov	 QWORD PTR [rcx], rax
$LN3@z900_GetPG:

; 540  :     }
; 541  : }

  000b6	48 83 c4 28	 add	 rsp, 40			; 00000028H
  000ba	c3		 ret	 0
z900_GetPGSTE_and_RCPTE ENDP
_TEXT	ENDS
; Function compile flags: /Odtp
; File C:\papa\MyGit\hyperion-zvector\sie.h
;	COMDAT z900_GetOldRCP
_TEXT	SEGMENT
rcpa$ = 48
regs$ = 80
gabspage$ = 88
z900_GetOldRCP PROC					; COMDAT

; 497  : {

$LN3:
  00000	48 89 54 24 10	 mov	 QWORD PTR [rsp+16], rdx
  00005	48 89 4c 24 08	 mov	 QWORD PTR [rsp+8], rcx
  0000a	48 83 ec 48	 sub	 rsp, 72			; 00000048H

; 498  :     /* Obtain address of the RCP area from the state desc */
; 499  :     RADR rcpa = regs->sie_rcpo;

  0000e	48 8b 44 24 50	 mov	 rax, QWORD PTR regs$[rsp]
  00013	48 8b 80 b0 08
	00 00		 mov	 rax, QWORD PTR [rax+2224]
  0001a	48 89 44 24 30	 mov	 QWORD PTR rcpa$[rsp], rax

; 500  : 
; 501  :     /* Use page index as byte offset into RCP table */
; 502  :     rcpa += (gabspage >> STORKEY_KEY_4K_SHIFTAMT);

  0001f	48 8b 44 24 58	 mov	 rax, QWORD PTR gabspage$[rsp]
  00024	48 c1 e8 0c	 shr	 rax, 12
  00028	48 8b 4c 24 30	 mov	 rcx, QWORD PTR rcpa$[rsp]
  0002d	48 03 c8	 add	 rcx, rax
  00030	48 8b c1	 mov	 rax, rcx
  00033	48 89 44 24 30	 mov	 QWORD PTR rcpa$[rsp], rax

; 503  : 
; 504  :     /* Translate host primary address to host absolute */
; 505  :     rcpa = SIE_LOGICAL_TO_ABS( rcpa, USE_PRIMARY_SPACE,

  00038	48 c7 44 24 28
	01 00 00 00	 mov	 QWORD PTR [rsp+40], 1
  00041	c6 44 24 20 00	 mov	 BYTE PTR [rsp+32], 0
  00046	45 33 c9	 xor	 r9d, r9d
  00049	48 8b 44 24 50	 mov	 rax, QWORD PTR regs$[rsp]
  0004e	4c 8b 80 68 08
	00 00		 mov	 r8, QWORD PTR [rax+2152]
  00055	ba fd ff ff ff	 mov	 edx, -3
  0005a	48 8b 4c 24 30	 mov	 rcx, QWORD PTR rcpa$[rsp]
  0005f	e8 00 00 00 00	 call	 z900_logical_to_main_l
  00064	48 8b 44 24 50	 mov	 rax, QWORD PTR regs$[rsp]
  00069	48 8b 80 68 08
	00 00		 mov	 rax, QWORD PTR [rax+2152]
  00070	48 8b 80 08 08
	00 00		 mov	 rax, QWORD PTR [rax+2056]
  00077	48 89 44 24 30	 mov	 QWORD PTR rcpa$[rsp], rax

; 506  :                                HOSTREGS, ACCTYPE_SIE, 0 );
; 507  : 
; 508  :     /* Return mainstor address of RCP table byte */
; 509  :     return (RCPTE*)(&regs->mainstor[ rcpa ]);

  0007c	48 8b 44 24 50	 mov	 rax, QWORD PTR regs$[rsp]
  00081	48 8b 80 48 08
	00 00		 mov	 rax, QWORD PTR [rax+2120]
  00088	48 03 44 24 30	 add	 rax, QWORD PTR rcpa$[rsp]

; 510  : }

  0008d	48 83 c4 48	 add	 rsp, 72			; 00000048H
  00091	c3		 ret	 0
z900_GetOldRCP ENDP
_TEXT	ENDS
; Function compile flags: /Odtp
; File C:\papa\MyGit\hyperion-zvector\sie.h
;	COMDAT z900_GetPGSTE
_TEXT	SEGMENT
pte$ = 32
pgste$ = 40
regs$ = 64
gabspage$ = 72
z900_GetPGSTE PROC					; COMDAT

; 475  : {

$LN8:
  00000	48 89 54 24 10	 mov	 QWORD PTR [rsp+16], rdx
  00005	48 89 4c 24 08	 mov	 QWORD PTR [rsp+8], rcx
  0000a	48 83 ec 38	 sub	 rsp, 56			; 00000038H

; 476  :     PGSTE*  pgste;
; 477  :     U64     pte;
; 478  : 
; 479  :     // Guest absolute to host PTE addr
; 480  :     if (SIE_TRANSLATE_ADDR( regs->sie_mso + gabspage,

  0000e	48 8b 44 24 40	 mov	 rax, QWORD PTR regs$[rsp]
  00013	48 8b 80 98 08
	00 00		 mov	 rax, QWORD PTR [rax+2200]
  0001a	48 03 44 24 48	 add	 rax, QWORD PTR gabspage$[rsp]
  0001f	41 b9 00 03 00
	00		 mov	 r9d, 768		; 00000300H
  00025	48 8b 4c 24 40	 mov	 rcx, QWORD PTR regs$[rsp]
  0002a	4c 8b 81 68 08
	00 00		 mov	 r8, QWORD PTR [rcx+2152]
  00031	ba fd ff ff ff	 mov	 edx, -3
  00036	48 8b c8	 mov	 rcx, rax
  00039	e8 00 00 00 00	 call	 z900_translate_addr
  0003e	85 c0		 test	 eax, eax
  00040	74 32		 je	 SHORT $LN5@z900_GetPG
$LN4@z900_GetPG:

; 481  :                             USE_PRIMARY_SPACE,
; 482  :                             HOSTREGS, ACCTYPE_PTE ))
; 483  :         SIE_INTERCEPT( regs );

  00042	48 8b 44 24 40	 mov	 rax, QWORD PTR regs$[rsp]
  00047	8b 80 c8 08 00
	00		 mov	 eax, DWORD PTR [rax+2248]
  0004d	d1 e8		 shr	 eax, 1
  0004f	83 e0 01	 and	 eax, 1
  00052	85 c0		 test	 eax, eax
  00054	74 18		 je	 SHORT $LN6@z900_GetPG
  00056	48 8b 44 24 40	 mov	 rax, QWORD PTR regs$[rsp]
  0005b	48 05 80 09 00
	00		 add	 rax, 2432		; 00000980H
  00061	ba fc ff ff ff	 mov	 edx, -4
  00066	48 8b c8	 mov	 rcx, rax
  00069	e8 00 00 00 00	 call	 longjmp
$LN6@z900_GetPG:
  0006e	33 c0		 xor	 eax, eax
  00070	85 c0		 test	 eax, eax
  00072	75 ce		 jne	 SHORT $LN4@z900_GetPG
$LN5@z900_GetPG:

; 484  : 
; 485  :     // Convert host real address to host absolute address
; 486  :     pte = apply_host_prefixing( HOSTREGS, HOSTREGS->dat.raddr );

  00074	48 8b 44 24 40	 mov	 rax, QWORD PTR regs$[rsp]
  00079	48 8b 80 68 08
	00 00		 mov	 rax, QWORD PTR [rax+2152]
  00080	48 8b 90 00 08
	00 00		 mov	 rdx, QWORD PTR [rax+2048]
  00087	48 8b 44 24 40	 mov	 rax, QWORD PTR regs$[rsp]
  0008c	48 8b 88 68 08
	00 00		 mov	 rcx, QWORD PTR [rax+2152]
  00093	e8 00 00 00 00	 call	 apply_host_prefixing
  00098	48 89 44 24 20	 mov	 QWORD PTR pte$[rsp], rax

; 487  : 
; 488  :     // Convert host abs PTE to PGSTE
; 489  :     pgste = ARCH_DEP( GetPGSTEFromPTE )( regs, pte );

  0009d	48 8b 54 24 20	 mov	 rdx, QWORD PTR pte$[rsp]
  000a2	48 8b 4c 24 40	 mov	 rcx, QWORD PTR regs$[rsp]
  000a7	e8 00 00 00 00	 call	 z900_GetPGSTEFromPTE
  000ac	48 89 44 24 28	 mov	 QWORD PTR pgste$[rsp], rax

; 490  :     return pgste;

  000b1	48 8b 44 24 28	 mov	 rax, QWORD PTR pgste$[rsp]
$LN7@z900_GetPG:

; 491  : }

  000b6	48 83 c4 38	 add	 rsp, 56			; 00000038H
  000ba	c3		 ret	 0
z900_GetPGSTE ENDP
_TEXT	ENDS
; Function compile flags: /Odtp
; File C:\papa\MyGit\hyperion-zvector\sie.h
;	COMDAT z900_GetPGSTEFromPTE
_TEXT	SEGMENT
tv67 = 0
pte_offset_to_pgste$ = 8
pgste$ = 16
regs$ = 48
pte$ = 56
z900_GetPGSTEFromPTE PROC				; COMDAT

; 456  : {

$LN5:
  00000	48 89 54 24 10	 mov	 QWORD PTR [rsp+16], rdx
  00005	48 89 4c 24 08	 mov	 QWORD PTR [rsp+8], rcx
  0000a	48 83 ec 28	 sub	 rsp, 40			; 00000028H

; 457  :     PGSTE*  pgste;
; 458  :     size_t  pte_offset_to_pgste;
; 459  : 
; 460  :     // Calculate offset to PGSTE (depends if host is z/VM or VM/ESA)
; 461  :     pte_offset_to_pgste = (ARCH_900_IDX == HOSTREGS->arch_mode)

  0000e	48 8b 44 24 30	 mov	 rax, QWORD PTR regs$[rsp]
  00013	48 8b 80 68 08
	00 00		 mov	 rax, QWORD PTR [rax+2152]
  0001a	83 78 64 02	 cmp	 DWORD PTR [rax+100], 2
  0001e	75 0a		 jne	 SHORT $LN3@z900_GetPG
  00020	48 c7 04 24 00
	08 00 00	 mov	 QWORD PTR tv67[rsp], 2048 ; 00000800H
  00028	eb 08		 jmp	 SHORT $LN4@z900_GetPG
$LN3@z900_GetPG:
  0002a	48 c7 04 24 00
	04 00 00	 mov	 QWORD PTR tv67[rsp], 1024 ; 00000400H
$LN4@z900_GetPG:
  00032	48 8b 04 24	 mov	 rax, QWORD PTR tv67[rsp]
  00036	48 89 44 24 08	 mov	 QWORD PTR pte_offset_to_pgste$[rsp], rax

; 462  :         ? offsetof( PGMBK64, pgmpgstb )   // (z/Arch z/VM)
; 463  :         : offsetof( PGMBK,   pgmpgstb );  // (S/390 VM/ESA)
; 464  : 
; 465  :     // Return mainstor address of PGSTE
; 466  :     pgste = (PGSTE*)&regs->mainstor[ pte + pte_offset_to_pgste ];

  0003b	48 8b 44 24 08	 mov	 rax, QWORD PTR pte_offset_to_pgste$[rsp]
  00040	48 8b 4c 24 38	 mov	 rcx, QWORD PTR pte$[rsp]
  00045	48 03 c8	 add	 rcx, rax
  00048	48 8b c1	 mov	 rax, rcx
  0004b	48 8b 4c 24 30	 mov	 rcx, QWORD PTR regs$[rsp]
  00050	48 8b 89 48 08
	00 00		 mov	 rcx, QWORD PTR [rcx+2120]
  00057	48 03 c8	 add	 rcx, rax
  0005a	48 8b c1	 mov	 rax, rcx
  0005d	48 89 44 24 10	 mov	 QWORD PTR pgste$[rsp], rax

; 467  : 
; 468  :     return pgste;

  00062	48 8b 44 24 10	 mov	 rax, QWORD PTR pgste$[rsp]

; 469  : }

  00067	48 83 c4 28	 add	 rsp, 40			; 00000028H
  0006b	c3		 ret	 0
z900_GetPGSTEFromPTE ENDP
_TEXT	ENDS
; Function compile flags: /Odtp
; File C:\papa\MyGit\hyperion-zvector\sie.h
;	COMDAT z900_LockUnlockKeyLock
_TEXT	SEGMENT
regs$ = 48
pgste$ = 56
rcpte$ = 64
lock$ = 72
z900_LockUnlockKeyLock PROC				; COMDAT

; 437  : {

$LN5:
  00000	44 88 4c 24 20	 mov	 BYTE PTR [rsp+32], r9b
  00005	4c 89 44 24 18	 mov	 QWORD PTR [rsp+24], r8
  0000a	48 89 54 24 10	 mov	 QWORD PTR [rsp+16], rdx
  0000f	48 89 4c 24 08	 mov	 QWORD PTR [rsp+8], rcx
  00014	48 83 ec 28	 sub	 rsp, 40			; 00000028H

; 438  : #if defined( OPTION_USE_SKAIP_AS_LOCK )
; 439  :     if (pgste)

  00018	48 83 7c 24 38
	00		 cmp	 QWORD PTR pgste$[rsp], 0
  0001e	74 11		 je	 SHORT $LN2@z900_LockU

; 440  :         ARCH_DEP( LockUnlockSKALock )( regs, lock );

  00020	0f b6 54 24 48	 movzx	 edx, BYTE PTR lock$[rsp]
  00025	48 8b 4c 24 30	 mov	 rcx, QWORD PTR regs$[rsp]
  0002a	e8 00 00 00 00	 call	 z900_LockUnlockSKALock
  0002f	eb 15		 jmp	 SHORT $LN3@z900_LockU
$LN2@z900_LockU:

; 441  :     else
; 442  : #endif
; 443  :         ARCH_DEP( LockUnlockRCPLock )( regs, rcpte, lock );

  00031	44 0f b6 44 24
	48		 movzx	 r8d, BYTE PTR lock$[rsp]
  00037	48 8b 54 24 40	 mov	 rdx, QWORD PTR rcpte$[rsp]
  0003c	48 8b 4c 24 30	 mov	 rcx, QWORD PTR regs$[rsp]
  00041	e8 00 00 00 00	 call	 z900_LockUnlockRCPLock
$LN3@z900_LockU:

; 444  : }

  00046	48 83 c4 28	 add	 rsp, 40			; 00000028H
  0004a	c3		 ret	 0
z900_LockUnlockKeyLock ENDP
_TEXT	ENDS
; Function compile flags: /Odtp
; File C:\papa\MyGit\hyperion-zvector\sie.h
;	COMDAT z900_LockUnlockSKALock
_TEXT	SEGMENT
old$1 = 32
new$ = 33
abspage$2 = 40
regs$ = 64
lock$ = 72
z900_LockUnlockSKALock PROC				; COMDAT

; 366  : {

$LN8:
  00000	88 54 24 10	 mov	 BYTE PTR [rsp+16], dl
  00004	48 89 4c 24 08	 mov	 QWORD PTR [rsp+8], rcx
  00009	48 83 ec 38	 sub	 rsp, 56			; 00000038H

; 367  :     BYTE new;
; 368  : 
; 369  :     if (lock)

  0000d	0f b6 44 24 48	 movzx	 eax, BYTE PTR lock$[rsp]
  00012	85 c0		 test	 eax, eax
  00014	74 6b		 je	 SHORT $LN5@z900_LockU

; 370  :     {
; 371  :         BYTE old = regs->siebk->SIE_RCPO0;

  00016	48 8b 44 24 40	 mov	 rax, QWORD PTR regs$[rsp]
  0001b	48 8b 80 88 08
	00 00		 mov	 rax, QWORD PTR [rax+2184]
  00022	b9 01 00 00 00	 mov	 ecx, 1
  00027	48 6b c9 00	 imul	 rcx, rcx, 0
  0002b	0f b6 44 08 60	 movzx	 eax, BYTE PTR [rax+rcx+96]
  00030	88 44 24 20	 mov	 BYTE PTR old$1[rsp], al
$LN4@z900_LockU:

; 372  : 
; 373  :         // MAINLOCK may be required if cmpxchg assists unavailable
; 374  :         OBTAIN_MAINLOCK( regs );
; 375  :         {
; 376  :             // Keep looping until we eventually obtain it...
; 377  :             do
; 378  :             {
; 379  :                 old &= ~SIE_RCPO0_SKAIP;        // Want bit to be initially off

  00034	0f b6 44 24 20	 movzx	 eax, BYTE PTR old$1[rsp]
  00039	83 e0 bf	 and	 eax, -65		; ffffffffffffffbfH
  0003c	88 44 24 20	 mov	 BYTE PTR old$1[rsp], al

; 380  :                 new = (old | SIE_RCPO0_SKAIP);  // And *WE* want to turn it on!

  00040	0f b6 44 24 20	 movzx	 eax, BYTE PTR old$1[rsp]
  00045	83 c8 40	 or	 eax, 64			; 00000040H
  00048	88 44 24 21	 mov	 BYTE PTR new$[rsp], al

; 381  :             }
; 382  :             while (cmpxchg1( &old, new, &regs->siebk->SIE_RCPO0 ) != 0);

  0004c	48 8b 44 24 40	 mov	 rax, QWORD PTR regs$[rsp]
  00051	48 8b 80 88 08
	00 00		 mov	 rax, QWORD PTR [rax+2184]
  00058	b9 01 00 00 00	 mov	 ecx, 1
  0005d	48 6b c9 00	 imul	 rcx, rcx, 0
  00061	48 8d 44 08 60	 lea	 rax, QWORD PTR [rax+rcx+96]
  00066	4c 8b c0	 mov	 r8, rax
  00069	0f b6 54 24 21	 movzx	 edx, BYTE PTR new$[rsp]
  0006e	48 8d 4c 24 20	 lea	 rcx, QWORD PTR old$1[rsp]
  00073	e8 00 00 00 00	 call	 cmpxchg1_x86
  00078	0f b6 c0	 movzx	 eax, al
  0007b	85 c0		 test	 eax, eax
  0007d	75 b5		 jne	 SHORT $LN4@z900_LockU

; 383  :         }
; 384  :         RELEASE_MAINLOCK( regs );
; 385  :     }

  0007f	eb 27		 jmp	 SHORT $LN6@z900_LockU
$LN5@z900_LockU:

; 386  :     else // (unlock)
; 387  :     {
; 388  :         // Atomically 'and' the lock bit off
; 389  :         new = ~SIE_RCPO0_SKAIP;

  00081	c6 44 24 21 bf	 mov	 BYTE PTR new$[rsp], 191	; 000000bfH

; 390  :         (void) H_ATOMIC_OP( &regs->siebk->SIE_RCPO0, new, and, And, & );

  00086	48 8b 44 24 40	 mov	 rax, QWORD PTR regs$[rsp]
  0008b	48 8b 80 88 08
	00 00		 mov	 rax, QWORD PTR [rax+2184]
  00092	b9 01 00 00 00	 mov	 ecx, 1
  00097	48 6b c9 00	 imul	 rcx, rcx, 0
  0009b	48 8d 44 08 60	 lea	 rax, QWORD PTR [rax+rcx+96]
  000a0	0f b6 4c 24 21	 movzx	 ecx, BYTE PTR new$[rsp]
  000a5	f0 20 08	 lock and BYTE PTR [rax], cl
$LN6@z900_LockU:

; 391  :     }
; 392  : 
; 393  :     // Set Reference and Change bit for the byte we just modified
; 394  :     {
; 395  :         U64 abspage = (U64) (((BYTE*)regs->siebk) - regs->mainstor);

  000a8	48 8b 44 24 40	 mov	 rax, QWORD PTR regs$[rsp]
  000ad	48 8b 4c 24 40	 mov	 rcx, QWORD PTR regs$[rsp]
  000b2	48 8b 89 48 08
	00 00		 mov	 rcx, QWORD PTR [rcx+2120]
  000b9	48 8b 80 88 08
	00 00		 mov	 rax, QWORD PTR [rax+2184]
  000c0	48 2b c1	 sub	 rax, rcx
  000c3	48 89 44 24 28	 mov	 QWORD PTR abspage$2[rsp], rax

; 396  :         ARCH_DEP( or_4K_storage_key )( abspage, (STORKEY_REF | STORKEY_CHANGE) );

  000c8	b2 06		 mov	 dl, 6
  000ca	48 8b 4c 24 28	 mov	 rcx, QWORD PTR abspage$2[rsp]
  000cf	e8 00 00 00 00	 call	 z900_or_4K_storage_key

; 397  :     }
; 398  : }

  000d4	48 83 c4 38	 add	 rsp, 56			; 00000038H
  000d8	c3		 ret	 0
z900_LockUnlockSKALock ENDP
_TEXT	ENDS
; Function compile flags: /Odtp
; File C:\papa\MyGit\hyperion-zvector\sie.h
;	COMDAT z900_LockUnlockRCPLock
_TEXT	SEGMENT
old$1 = 32
new$ = 33
abspage$2 = 40
regs$ = 64
rcpte$ = 72
lock$ = 80
z900_LockUnlockRCPLock PROC				; COMDAT

; 316  : {

$LN8:
  00000	44 88 44 24 18	 mov	 BYTE PTR [rsp+24], r8b
  00005	48 89 54 24 10	 mov	 QWORD PTR [rsp+16], rdx
  0000a	48 89 4c 24 08	 mov	 QWORD PTR [rsp+8], rcx
  0000f	48 83 ec 38	 sub	 rsp, 56			; 00000038H

; 317  :     BYTE new;
; 318  : 
; 319  :     if (lock)

  00013	0f b6 44 24 50	 movzx	 eax, BYTE PTR lock$[rsp]
  00018	85 c0		 test	 eax, eax
  0001a	74 46		 je	 SHORT $LN5@z900_LockU

; 320  :     {
; 321  :         BYTE old = rcpte->rcpbyte;

  0001c	48 8b 44 24 48	 mov	 rax, QWORD PTR rcpte$[rsp]
  00021	0f b6 00	 movzx	 eax, BYTE PTR [rax]
  00024	88 44 24 20	 mov	 BYTE PTR old$1[rsp], al
$LN4@z900_LockU:

; 322  : 
; 323  :         // MAINLOCK may be required if cmpxchg assists unavailable
; 324  :         OBTAIN_MAINLOCK( regs );
; 325  :         {
; 326  :             // Keep looping until we eventually obtain it...
; 327  :             do
; 328  :             {
; 329  :                 old &= ~RCPLOCK;        // Want bit to be initially off

  00028	0f b6 44 24 20	 movzx	 eax, BYTE PTR old$1[rsp]
  0002d	0f ba f0 07	 btr	 eax, 7
  00031	88 44 24 20	 mov	 BYTE PTR old$1[rsp], al

; 330  :                 new = (old | RCPLOCK);  // And *WE* want to turn it on!

  00035	0f b6 44 24 20	 movzx	 eax, BYTE PTR old$1[rsp]
  0003a	0f ba e8 07	 bts	 eax, 7
  0003e	88 44 24 21	 mov	 BYTE PTR new$[rsp], al

; 331  :             }
; 332  :             while (cmpxchg1( &old, new, &rcpte->rcpbyte ) != 0);

  00042	48 8b 44 24 48	 mov	 rax, QWORD PTR rcpte$[rsp]
  00047	4c 8b c0	 mov	 r8, rax
  0004a	0f b6 54 24 21	 movzx	 edx, BYTE PTR new$[rsp]
  0004f	48 8d 4c 24 20	 lea	 rcx, QWORD PTR old$1[rsp]
  00054	e8 00 00 00 00	 call	 cmpxchg1_x86
  00059	0f b6 c0	 movzx	 eax, al
  0005c	85 c0		 test	 eax, eax
  0005e	75 c8		 jne	 SHORT $LN4@z900_LockU

; 333  :         }
; 334  :         RELEASE_MAINLOCK( regs );
; 335  :     }

  00060	eb 12		 jmp	 SHORT $LN6@z900_LockU
$LN5@z900_LockU:

; 336  :     else // (unlock)
; 337  :     {
; 338  :         // Atomically 'and' the lock bit off
; 339  :         new = (BYTE)(~RCPLOCK);

  00062	c6 44 24 21 7f	 mov	 BYTE PTR new$[rsp], 127	; 0000007fH

; 340  :         (void) H_ATOMIC_OP( &rcpte->rcpbyte, new, and, And, & );

  00067	48 8b 44 24 48	 mov	 rax, QWORD PTR rcpte$[rsp]
  0006c	0f b6 4c 24 21	 movzx	 ecx, BYTE PTR new$[rsp]
  00071	f0 20 08	 lock and BYTE PTR [rax], cl
$LN6@z900_LockU:

; 341  :     }
; 342  : 
; 343  :     // Set Reference and Change bit for the byte we just modified
; 344  :     {
; 345  :         U64 abspage = (U64) (((BYTE*)rcpte) - regs->mainstor);

  00074	48 8b 44 24 40	 mov	 rax, QWORD PTR regs$[rsp]
  00079	48 8b 80 48 08
	00 00		 mov	 rax, QWORD PTR [rax+2120]
  00080	48 8b 4c 24 48	 mov	 rcx, QWORD PTR rcpte$[rsp]
  00085	48 2b c8	 sub	 rcx, rax
  00088	48 8b c1	 mov	 rax, rcx
  0008b	48 89 44 24 28	 mov	 QWORD PTR abspage$2[rsp], rax

; 346  :         ARCH_DEP( or_4K_storage_key )( abspage, (STORKEY_REF | STORKEY_CHANGE) );

  00090	b2 06		 mov	 dl, 6
  00092	48 8b 4c 24 28	 mov	 rcx, QWORD PTR abspage$2[rsp]
  00097	e8 00 00 00 00	 call	 z900_or_4K_storage_key

; 347  :     }
; 348  : }

  0009c	48 83 c4 38	 add	 rsp, 56			; 00000038H
  000a0	c3		 ret	 0
z900_LockUnlockRCPLock ENDP
_TEXT	ENDS
; Function compile flags: /Odtp
; File C:\papa\MyGit\hyperion-zvector\sie.h
;	COMDAT z900_LockUnlockSCALock
_TEXT	SEGMENT
old$1 = 32
new$ = 33
obtained$ = 34
tv84 = 36
tv86 = 40
scabk$ = 48
abspage$2 = 56
regs$ = 80
lock$ = 88
trylock$ = 96
z900_LockUnlockSCALock PROC				; COMDAT

; 255  : {

$LN13:
  00000	44 88 44 24 18	 mov	 BYTE PTR [rsp+24], r8b
  00005	88 54 24 10	 mov	 BYTE PTR [rsp+16], dl
  00009	48 89 4c 24 08	 mov	 QWORD PTR [rsp+8], rcx
  0000e	48 83 ec 48	 sub	 rsp, 72			; 00000048H

; 256  :     BYTE new;
; 257  :     bool obtained = false;

  00012	c6 44 24 22 00	 mov	 BYTE PTR obtained$[rsp], 0

; 258  :     SCABK* scabk = (SCABK*) &regs->mainstor[ regs->sie_scao ];

  00017	48 8b 44 24 50	 mov	 rax, QWORD PTR regs$[rsp]
  0001c	48 8b 80 48 08
	00 00		 mov	 rax, QWORD PTR [rax+2120]
  00023	48 8b 4c 24 50	 mov	 rcx, QWORD PTR regs$[rsp]
  00028	48 03 81 b8 08
	00 00		 add	 rax, QWORD PTR [rcx+2232]
  0002f	48 89 44 24 30	 mov	 QWORD PTR scabk$[rsp], rax

; 259  : 
; 260  :     if (lock)

  00034	0f b6 44 24 58	 movzx	 eax, BYTE PTR lock$[rsp]
  00039	85 c0		 test	 eax, eax
  0003b	0f 84 8c 00 00
	00		 je	 $LN5@z900_LockU

; 261  :     {
; 262  :         BYTE old = scabk->scaiplk0;

  00041	48 8b 44 24 30	 mov	 rax, QWORD PTR scabk$[rsp]
  00046	0f b6 00	 movzx	 eax, BYTE PTR [rax]
  00049	88 44 24 20	 mov	 BYTE PTR old$1[rsp], al
$LN4@z900_LockU:

; 263  : 
; 264  :         // MAINLOCK may be required if cmpxchg assists unavailable
; 265  :         OBTAIN_MAINLOCK( regs );
; 266  :         {
; 267  :             // If not TRY call, keep looping until we obtain it.
; 268  :             // Otherwise TRY just once, and return success or not.
; 269  :             do
; 270  :             {
; 271  :                 old &= ~SCAIPLKH;       // Want bit to be initially off

  0004d	0f b6 44 24 20	 movzx	 eax, BYTE PTR old$1[rsp]
  00052	0f ba f0 07	 btr	 eax, 7
  00056	88 44 24 20	 mov	 BYTE PTR old$1[rsp], al

; 272  :                 new = (old | SCAIPLKH); // And *WE* want to turn it on!

  0005a	0f b6 44 24 20	 movzx	 eax, BYTE PTR old$1[rsp]
  0005f	0f ba e8 07	 bts	 eax, 7
  00063	88 44 24 21	 mov	 BYTE PTR new$[rsp], al

; 273  :             }
; 274  :             while (!(obtained = (0 == cmpxchg1( &old, new, &scabk->scaiplk0 ))) && !trylock);

  00067	48 8b 44 24 30	 mov	 rax, QWORD PTR scabk$[rsp]
  0006c	4c 8b c0	 mov	 r8, rax
  0006f	0f b6 54 24 21	 movzx	 edx, BYTE PTR new$[rsp]
  00074	48 8d 4c 24 20	 lea	 rcx, QWORD PTR old$1[rsp]
  00079	e8 00 00 00 00	 call	 cmpxchg1_x86
  0007e	0f b6 c0	 movzx	 eax, al
  00081	85 c0		 test	 eax, eax
  00083	75 0a		 jne	 SHORT $LN9@z900_LockU
  00085	c7 44 24 24 01
	00 00 00	 mov	 DWORD PTR tv84[rsp], 1
  0008d	eb 08		 jmp	 SHORT $LN10@z900_LockU
$LN9@z900_LockU:
  0008f	c7 44 24 24 00
	00 00 00	 mov	 DWORD PTR tv84[rsp], 0
$LN10@z900_LockU:
  00097	83 7c 24 24 00	 cmp	 DWORD PTR tv84[rsp], 0
  0009c	75 0a		 jne	 SHORT $LN11@z900_LockU
  0009e	c7 44 24 28 00
	00 00 00	 mov	 DWORD PTR tv86[rsp], 0
  000a6	eb 08		 jmp	 SHORT $LN12@z900_LockU
$LN11@z900_LockU:
  000a8	c7 44 24 28 01
	00 00 00	 mov	 DWORD PTR tv86[rsp], 1
$LN12@z900_LockU:
  000b0	0f b6 44 24 28	 movzx	 eax, BYTE PTR tv86[rsp]
  000b5	88 44 24 22	 mov	 BYTE PTR obtained$[rsp], al
  000b9	0f b6 44 24 22	 movzx	 eax, BYTE PTR obtained$[rsp]
  000be	85 c0		 test	 eax, eax
  000c0	75 09		 jne	 SHORT $LN7@z900_LockU
  000c2	0f b6 44 24 60	 movzx	 eax, BYTE PTR trylock$[rsp]
  000c7	85 c0		 test	 eax, eax
  000c9	74 82		 je	 SHORT $LN4@z900_LockU
$LN7@z900_LockU:

; 275  :         }
; 276  :         RELEASE_MAINLOCK( regs );
; 277  :     }

  000cb	eb 12		 jmp	 SHORT $LN6@z900_LockU
$LN5@z900_LockU:

; 278  :     else // (unlock)
; 279  :     {
; 280  :         // Atomically 'and' the lock bit off
; 281  :         new = (BYTE)(~SCAIPLKH);

  000cd	c6 44 24 21 7f	 mov	 BYTE PTR new$[rsp], 127	; 0000007fH

; 282  :         (void) H_ATOMIC_OP( &scabk->scaiplk0, new, and, And, & );

  000d2	48 8b 44 24 30	 mov	 rax, QWORD PTR scabk$[rsp]
  000d7	0f b6 4c 24 21	 movzx	 ecx, BYTE PTR new$[rsp]
  000dc	f0 20 08	 lock and BYTE PTR [rax], cl
$LN6@z900_LockU:

; 283  :     }
; 284  : 
; 285  :     // Set Reference and Change bit for the byte we just modified
; 286  :     {
; 287  :         U64 abspage = (U64) (&scabk->scaiplk0 - regs->mainstor);

  000df	48 8b 44 24 30	 mov	 rax, QWORD PTR scabk$[rsp]
  000e4	48 8b 4c 24 50	 mov	 rcx, QWORD PTR regs$[rsp]
  000e9	48 2b 81 48 08
	00 00		 sub	 rax, QWORD PTR [rcx+2120]
  000f0	48 89 44 24 38	 mov	 QWORD PTR abspage$2[rsp], rax

; 288  :         ARCH_DEP( or_4K_storage_key )( abspage, (STORKEY_REF | STORKEY_CHANGE) );

  000f5	b2 06		 mov	 dl, 6
  000f7	48 8b 4c 24 38	 mov	 rcx, QWORD PTR abspage$2[rsp]
  000fc	e8 00 00 00 00	 call	 z900_or_4K_storage_key

; 289  :     }
; 290  : 
; 291  :     return obtained;

  00101	0f b6 44 24 22	 movzx	 eax, BYTE PTR obtained$[rsp]

; 292  : }

  00106	48 83 c4 48	 add	 rsp, 72			; 00000048H
  0010a	c3		 ret	 0
z900_LockUnlockSCALock ENDP
_TEXT	ENDS
; Function compile flags: /Odtp
; File C:\papa\MyGit\hyperion-zvector\vstore.h
;	COMDAT z900_instfetch
_TEXT	SEGMENT
addr$ = 48
pagesz$ = 56
ip$ = 64
offset$ = 72
len$ = 76
tv128 = 80
tv130 = 84
tv137 = 88
tv156 = 92
tv172 = 96
tv174 = 100
tv180 = 104
tv187 = 108
tv204 = 112
tv239 = 116
tv238 = 120
tv240 = 124
tv256 = 128
tv350 = 132
tv351 = 136
dest$ = 144
tv75 = 152
tv77 = 160
tv357 = 168
regs$ = 192
exec$ = 200
z900_instfetch PROC					; COMDAT

; 777  : {

$LN96:
  00000	89 54 24 10	 mov	 DWORD PTR [rsp+16], edx
  00004	48 89 4c 24 08	 mov	 QWORD PTR [rsp+8], rcx
  00009	48 81 ec b8 00
	00 00		 sub	 rsp, 184		; 000000b8H

; 778  : VADR    addr;                           /* Instruction address       */
; 779  : BYTE*   ip;                             /* Instruction pointer       */
; 780  : BYTE*   dest;                           /* Fetched Instruction       */
; 781  : int     pagesz;                         /* Effective page size       */
; 782  : int     offset;                         /* Address offset into page  */
; 783  : int     len;                            /* Length for page crossing  */
; 784  : 
; 785  :     addr = exec ? regs->ET : VALID_AIE( regs ) ?

  00010	83 bc 24 c8 00
	00 00 00	 cmp	 DWORD PTR exec$[rsp], 0
  00018	74 1c		 je	 SHORT $LN52@z900_instf
  0001a	48 8b 84 24 c0
	00 00 00	 mov	 rax, QWORD PTR regs$[rsp]
  00022	48 8b 80 20 07
	00 00		 mov	 rax, QWORD PTR [rax+1824]
  00029	48 89 84 24 a0
	00 00 00	 mov	 QWORD PTR tv77[rsp], rax
  00031	e9 85 00 00 00	 jmp	 $LN53@z900_instf
$LN52@z900_instf:
  00036	48 8b 84 24 c0
	00 00 00	 mov	 rax, QWORD PTR regs$[rsp]
  0003e	48 83 b8 08 02
	00 00 00	 cmp	 QWORD PTR [rax+520], 0
  00046	74 4c		 je	 SHORT $LN50@z900_instf
  00048	48 8b 84 24 c0
	00 00 00	 mov	 rax, QWORD PTR regs$[rsp]
  00050	48 8b 8c 24 c0
	00 00 00	 mov	 rcx, QWORD PTR regs$[rsp]
  00058	48 8b 89 00 02
	00 00		 mov	 rcx, QWORD PTR [rcx+512]
  0005f	48 8b 40 68	 mov	 rax, QWORD PTR [rax+104]
  00063	48 2b c1	 sub	 rax, rcx
  00066	48 8b 8c 24 c0
	00 00 00	 mov	 rcx, QWORD PTR regs$[rsp]
  0006e	48 8b 89 10 02
	00 00		 mov	 rcx, QWORD PTR [rcx+528]
  00075	48 03 c8	 add	 rcx, rax
  00078	48 8b c1	 mov	 rax, rcx
  0007b	48 8b 8c 24 c0
	00 00 00	 mov	 rcx, QWORD PTR regs$[rsp]
  00083	48 23 81 90 00
	00 00		 and	 rax, QWORD PTR [rcx+144]
  0008a	48 89 84 24 98
	00 00 00	 mov	 QWORD PTR tv75[rsp], rax
  00092	eb 17		 jmp	 SHORT $LN51@z900_instf
$LN50@z900_instf:
  00094	48 8b 84 24 c0
	00 00 00	 mov	 rax, QWORD PTR regs$[rsp]
  0009c	48 8b 80 88 00
	00 00		 mov	 rax, QWORD PTR [rax+136]
  000a3	48 89 84 24 98
	00 00 00	 mov	 QWORD PTR tv75[rsp], rax
$LN51@z900_instf:
  000ab	48 8b 84 24 98
	00 00 00	 mov	 rax, QWORD PTR tv75[rsp]
  000b3	48 89 84 24 a0
	00 00 00	 mov	 QWORD PTR tv77[rsp], rax
$LN53@z900_instf:
  000bb	48 8b 84 24 a0
	00 00 00	 mov	 rax, QWORD PTR tv77[rsp]
  000c3	48 89 44 24 30	 mov	 QWORD PTR addr$[rsp], rax

; 786  :         PSW_IA_FROM_IP( regs, 0 ) : regs->psw.IA;
; 787  : 
; 788  :     /* Ensure PSW IA matches the instruction we're fetching */
; 789  :     if (!exec)

  000c8	83 bc 24 c8 00
	00 00 00	 cmp	 DWORD PTR exec$[rsp], 0
  000d0	75 69		 jne	 SHORT $LN23@z900_instf
$LN4@z900_instf:

; 790  :         MAYBE_SET_PSW_IA_FROM_IP( regs );

  000d2	48 8b 84 24 c0
	00 00 00	 mov	 rax, QWORD PTR regs$[rsp]
  000da	48 83 b8 08 02
	00 00 00	 cmp	 QWORD PTR [rax+520], 0
  000e2	74 51		 je	 SHORT $LN24@z900_instf
  000e4	48 8b 84 24 c0
	00 00 00	 mov	 rax, QWORD PTR regs$[rsp]
  000ec	48 8b 8c 24 c0
	00 00 00	 mov	 rcx, QWORD PTR regs$[rsp]
  000f4	48 8b 89 00 02
	00 00		 mov	 rcx, QWORD PTR [rcx+512]
  000fb	48 8b 40 68	 mov	 rax, QWORD PTR [rax+104]
  000ff	48 2b c1	 sub	 rax, rcx
  00102	48 8b 8c 24 c0
	00 00 00	 mov	 rcx, QWORD PTR regs$[rsp]
  0010a	48 8b 89 10 02
	00 00		 mov	 rcx, QWORD PTR [rcx+528]
  00111	48 03 c8	 add	 rcx, rax
  00114	48 8b c1	 mov	 rax, rcx
  00117	48 8b 8c 24 c0
	00 00 00	 mov	 rcx, QWORD PTR regs$[rsp]
  0011f	48 23 81 90 00
	00 00		 and	 rax, QWORD PTR [rcx+144]
  00126	48 8b 8c 24 c0
	00 00 00	 mov	 rcx, QWORD PTR regs$[rsp]
  0012e	48 89 81 88 00
	00 00		 mov	 QWORD PTR [rcx+136], rax
$LN24@z900_instf:
  00135	33 c0		 xor	 eax, eax
  00137	85 c0		 test	 eax, eax
  00139	75 97		 jne	 SHORT $LN4@z900_instf
$LN23@z900_instf:

; 791  : 
; 792  :     offset = (int)(addr & PAGEFRAME_BYTEMASK);

  0013b	48 8b 44 24 30	 mov	 rax, QWORD PTR addr$[rsp]
  00140	48 25 ff 0f 00
	00		 and	 rax, 4095		; 00000fffH
  00146	89 44 24 48	 mov	 DWORD PTR offset$[rsp], eax

; 793  : 
; 794  :     pagesz = unlikely( addr < 0x800 ) ? 0x800 : PAGEFRAME_PAGESIZE;

  0014a	48 81 7c 24 30
	00 08 00 00	 cmp	 QWORD PTR addr$[rsp], 2048 ; 00000800H
  00153	73 0a		 jae	 SHORT $LN56@z900_instf
  00155	c7 44 24 50 01
	00 00 00	 mov	 DWORD PTR tv128[rsp], 1
  0015d	eb 08		 jmp	 SHORT $LN57@z900_instf
$LN56@z900_instf:
  0015f	c7 44 24 50 00
	00 00 00	 mov	 DWORD PTR tv128[rsp], 0
$LN57@z900_instf:
  00167	83 7c 24 50 00	 cmp	 DWORD PTR tv128[rsp], 0
  0016c	74 0a		 je	 SHORT $LN58@z900_instf
  0016e	c7 44 24 54 00
	08 00 00	 mov	 DWORD PTR tv130[rsp], 2048 ; 00000800H
  00176	eb 08		 jmp	 SHORT $LN59@z900_instf
$LN58@z900_instf:
  00178	c7 44 24 54 00
	10 00 00	 mov	 DWORD PTR tv130[rsp], 4096 ; 00001000H
$LN59@z900_instf:
  00180	8b 44 24 54	 mov	 eax, DWORD PTR tv130[rsp]
  00184	89 44 24 38	 mov	 DWORD PTR pagesz$[rsp], eax

; 795  : 
; 796  :     /* Program check if instruction address is odd */
; 797  :     if (unlikely( offset & 0x01 ))

  00188	8b 44 24 48	 mov	 eax, DWORD PTR offset$[rsp]
  0018c	83 e0 01	 and	 eax, 1
  0018f	85 c0		 test	 eax, eax
  00191	74 0a		 je	 SHORT $LN62@z900_instf
  00193	c7 44 24 58 01
	00 00 00	 mov	 DWORD PTR tv137[rsp], 1
  0019b	eb 08		 jmp	 SHORT $LN63@z900_instf
$LN62@z900_instf:
  0019d	c7 44 24 58 00
	00 00 00	 mov	 DWORD PTR tv137[rsp], 0
$LN63@z900_instf:
  001a5	83 7c 24 58 00	 cmp	 DWORD PTR tv137[rsp], 0
  001aa	74 44		 je	 SHORT $LN25@z900_instf

; 798  :     {
; 799  :         if (!exec)

  001ac	83 bc 24 c8 00
	00 00 00	 cmp	 DWORD PTR exec$[rsp], 0
  001b4	75 1f		 jne	 SHORT $LN26@z900_instf

; 800  :             regs->instinvalid = 1;

  001b6	48 8b 84 24 c0
	00 00 00	 mov	 rax, QWORD PTR regs$[rsp]
  001be	8b 80 28 07 00
	00		 mov	 eax, DWORD PTR [rax+1832]
  001c4	83 c8 08	 or	 eax, 8
  001c7	48 8b 8c 24 c0
	00 00 00	 mov	 rcx, QWORD PTR regs$[rsp]
  001cf	89 81 28 07 00
	00		 mov	 DWORD PTR [rcx+1832], eax
$LN26@z900_instf:

; 801  : 
; 802  :         regs->program_interrupt( regs, PGM_SPECIFICATION_EXCEPTION );

  001d5	ba 06 00 00 00	 mov	 edx, 6
  001da	48 8b 8c 24 c0
	00 00 00	 mov	 rcx, QWORD PTR regs$[rsp]
  001e2	48 8b 84 24 c0
	00 00 00	 mov	 rax, QWORD PTR regs$[rsp]
  001ea	ff 90 20 0d 00
	00		 call	 QWORD PTR [rax+3360]
$LN25@z900_instf:

; 803  :     }
; 804  : 
; 805  : #if defined( FEATURE_PER )
; 806  : 
; 807  :     /* Save the address used to fetch the instruction */
; 808  :     if (EN_IC_PER( regs ))

  001f0	48 8b 84 24 c0
	00 00 00	 mov	 rax, QWORD PTR regs$[rsp]
  001f8	8b 80 28 07 00
	00		 mov	 eax, DWORD PTR [rax+1832]
  001fe	c1 e8 02	 shr	 eax, 2
  00201	83 e0 01	 and	 eax, 1
  00204	85 c0		 test	 eax, eax
  00206	74 0a		 je	 SHORT $LN66@z900_instf
  00208	c7 44 24 5c 01
	00 00 00	 mov	 DWORD PTR tv156[rsp], 1
  00210	eb 08		 jmp	 SHORT $LN67@z900_instf
$LN66@z900_instf:
  00212	c7 44 24 5c 00
	00 00 00	 mov	 DWORD PTR tv156[rsp], 0
$LN67@z900_instf:
  0021a	83 7c 24 5c 00	 cmp	 DWORD PTR tv156[rsp], 0
  0021f	0f 84 16 05 00
	00		 je	 $LN27@z900_instf

; 809  :     {
; 810  : #if defined( FEATURE_PER2 )
; 811  :         regs->perc = 0x40    /* ATMID-validity */

  00225	48 8b 84 24 c0
	00 00 00	 mov	 rax, QWORD PTR regs$[rsp]
  0022d	0f b6 40 78	 movzx	 eax, BYTE PTR [rax+120]
  00231	83 e0 04	 and	 eax, 4
  00234	85 c0		 test	 eax, eax
  00236	74 0a		 je	 SHORT $LN68@z900_instf
  00238	c7 44 24 60 01
	00 00 00	 mov	 DWORD PTR tv172[rsp], 1
  00240	eb 08		 jmp	 SHORT $LN69@z900_instf
$LN68@z900_instf:
  00242	c7 44 24 60 00
	00 00 00	 mov	 DWORD PTR tv172[rsp], 0
$LN69@z900_instf:
  0024a	83 7c 24 60 00	 cmp	 DWORD PTR tv172[rsp], 0
  0024f	74 0a		 je	 SHORT $LN70@z900_instf
  00251	c7 44 24 64 10
	00 00 00	 mov	 DWORD PTR tv174[rsp], 16
  00259	eb 08		 jmp	 SHORT $LN71@z900_instf
$LN70@z900_instf:
  0025b	c7 44 24 64 00
	00 00 00	 mov	 DWORD PTR tv174[rsp], 0
$LN71@z900_instf:
  00263	48 8b 84 24 c0
	00 00 00	 mov	 rax, QWORD PTR regs$[rsp]
  0026b	0f b6 40 7b	 movzx	 eax, BYTE PTR [rax+123]
  0026f	25 80 00 00 00	 and	 eax, 128		; 00000080H
  00274	85 c0		 test	 eax, eax
  00276	74 0a		 je	 SHORT $LN72@z900_instf
  00278	c7 44 24 68 01
	00 00 00	 mov	 DWORD PTR tv180[rsp], 1
  00280	eb 08		 jmp	 SHORT $LN73@z900_instf
$LN72@z900_instf:
  00282	c7 44 24 68 00
	00 00 00	 mov	 DWORD PTR tv180[rsp], 0
$LN73@z900_instf:
  0028a	48 8b 84 24 c0
	00 00 00	 mov	 rax, QWORD PTR regs$[rsp]
  00292	0f b6 40 7b	 movzx	 eax, BYTE PTR [rax+123]
  00296	83 e0 40	 and	 eax, 64			; 00000040H
  00299	85 c0		 test	 eax, eax
  0029b	74 0a		 je	 SHORT $LN74@z900_instf
  0029d	c7 44 24 6c 01
	00 00 00	 mov	 DWORD PTR tv187[rsp], 1
  002a5	eb 08		 jmp	 SHORT $LN75@z900_instf
$LN74@z900_instf:
  002a7	c7 44 24 6c 00
	00 00 00	 mov	 DWORD PTR tv187[rsp], 0
$LN75@z900_instf:
  002af	48 8b 84 24 c0
	00 00 00	 mov	 rax, QWORD PTR regs$[rsp]
  002b7	8b 80 80 00 00
	00		 mov	 eax, DWORD PTR [rax+128]
  002bd	83 e0 01	 and	 eax, 1
  002c0	c1 e0 07	 shl	 eax, 7
  002c3	83 c8 40	 or	 eax, 64			; 00000040H
  002c6	48 8b 8c 24 c0
	00 00 00	 mov	 rcx, QWORD PTR regs$[rsp]
  002ce	8b 89 80 00 00
	00		 mov	 ecx, DWORD PTR [rcx+128]
  002d4	d1 e9		 shr	 ecx, 1
  002d6	83 e1 01	 and	 ecx, 1
  002d9	c1 e1 05	 shl	 ecx, 5
  002dc	0b c1		 or	 eax, ecx
  002de	0b 44 24 64	 or	 eax, DWORD PTR tv174[rsp]
  002e2	8b 4c 24 68	 mov	 ecx, DWORD PTR tv180[rsp]
  002e6	c1 e1 03	 shl	 ecx, 3
  002e9	0b c1		 or	 eax, ecx
  002eb	8b 4c 24 6c	 mov	 ecx, DWORD PTR tv187[rsp]
  002ef	c1 e1 02	 shl	 ecx, 2
  002f2	0b c1		 or	 eax, ecx
  002f4	48 8b 8c 24 c0
	00 00 00	 mov	 rcx, QWORD PTR regs$[rsp]
  002fc	66 89 81 d0 08
	00 00		 mov	 WORD PTR [rcx+2256], ax

; 812  :                    | (regs->psw.amode64        << 7 )
; 813  :                    | (regs->psw.amode          << 5 )
; 814  :                    | (!REAL_MODE( &regs->psw ) ? 0x10 : 0 )
; 815  :                    | (SPACE_BIT(  &regs->psw ) << 3 )
; 816  :                    | (AR_BIT   (  &regs->psw ) << 2 );
; 817  : #else
; 818  :         regs->perc = 0;
; 819  : #endif /* defined( FEATURE_PER2 ) */
; 820  : 
; 821  :         if (!exec)

  00303	83 bc 24 c8 00
	00 00 00	 cmp	 DWORD PTR exec$[rsp], 0
  0030b	75 14		 jne	 SHORT $LN28@z900_instf

; 822  :             regs->peradr = addr;

  0030d	48 8b 84 24 c0
	00 00 00	 mov	 rax, QWORD PTR regs$[rsp]
  00315	48 8b 4c 24 30	 mov	 rcx, QWORD PTR addr$[rsp]
  0031a	48 89 88 d8 08
	00 00		 mov	 QWORD PTR [rax+2264], rcx
$LN28@z900_instf:

; 823  : 
; 824  :         /* Test for PER instruction-fetching event */
; 825  :         if (1
; 826  :             && EN_IC_PER_IF( regs )
; 827  :             && PER_RANGE_CHECK( addr, regs->CR(10), regs->CR(11) )

  00321	33 c0		 xor	 eax, eax
  00323	83 f8 01	 cmp	 eax, 1
  00326	0f 84 22 02 00
	00		 je	 $LN29@z900_instf
  0032c	48 8b 84 24 c0
	00 00 00	 mov	 rax, QWORD PTR regs$[rsp]
  00334	8b 80 28 07 00
	00		 mov	 eax, DWORD PTR [rax+1832]
  0033a	c1 e8 02	 shr	 eax, 2
  0033d	83 e0 01	 and	 eax, 1
  00340	85 c0		 test	 eax, eax
  00342	74 0a		 je	 SHORT $LN78@z900_instf
  00344	c7 44 24 70 01
	00 00 00	 mov	 DWORD PTR tv204[rsp], 1
  0034c	eb 08		 jmp	 SHORT $LN79@z900_instf
$LN78@z900_instf:
  0034e	c7 44 24 70 00
	00 00 00	 mov	 DWORD PTR tv204[rsp], 0
$LN79@z900_instf:
  00356	83 7c 24 70 00	 cmp	 DWORD PTR tv204[rsp], 0
  0035b	0f 84 ed 01 00
	00		 je	 $LN29@z900_instf
  00361	48 8b 84 24 c0
	00 00 00	 mov	 rax, QWORD PTR regs$[rsp]
  00369	8b 40 48	 mov	 eax, DWORD PTR [rax+72]
  0036c	25 00 00 40 00	 and	 eax, 4194304		; 00400000H
  00371	85 c0		 test	 eax, eax
  00373	0f 84 d5 01 00
	00		 je	 $LN29@z900_instf
  00379	b8 08 00 00 00	 mov	 eax, 8
  0037e	48 6b c0 0c	 imul	 rax, rax, 12
  00382	b9 08 00 00 00	 mov	 ecx, 8
  00387	48 6b c9 0b	 imul	 rcx, rcx, 11
  0038b	48 8b 94 24 c0
	00 00 00	 mov	 rdx, QWORD PTR regs$[rsp]
  00393	4c 8b 84 24 c0
	00 00 00	 mov	 r8, QWORD PTR regs$[rsp]
  0039b	49 8b 8c 08 00
	06 00 00	 mov	 rcx, QWORD PTR [r8+rcx+1536]
  003a3	48 39 8c 02 00
	06 00 00	 cmp	 QWORD PTR [rdx+rax+1536], rcx
  003ab	72 5c		 jb	 SHORT $LN84@z900_instf
  003ad	b8 08 00 00 00	 mov	 eax, 8
  003b2	48 6b c0 0b	 imul	 rax, rax, 11
  003b6	48 8b 8c 24 c0
	00 00 00	 mov	 rcx, QWORD PTR regs$[rsp]
  003be	48 8b 84 01 00
	06 00 00	 mov	 rax, QWORD PTR [rcx+rax+1536]
  003c6	48 39 44 24 30	 cmp	 QWORD PTR addr$[rsp], rax
  003cb	72 2a		 jb	 SHORT $LN80@z900_instf
  003cd	b8 08 00 00 00	 mov	 eax, 8
  003d2	48 6b c0 0c	 imul	 rax, rax, 12
  003d6	48 8b 8c 24 c0
	00 00 00	 mov	 rcx, QWORD PTR regs$[rsp]
  003de	48 8b 84 01 00
	06 00 00	 mov	 rax, QWORD PTR [rcx+rax+1536]
  003e6	48 39 44 24 30	 cmp	 QWORD PTR addr$[rsp], rax
  003eb	77 0a		 ja	 SHORT $LN80@z900_instf
  003ed	c7 44 24 74 01
	00 00 00	 mov	 DWORD PTR tv239[rsp], 1
  003f5	eb 08		 jmp	 SHORT $LN83@z900_instf
$LN80@z900_instf:
  003f7	c7 44 24 74 00
	00 00 00	 mov	 DWORD PTR tv239[rsp], 0
$LN83@z900_instf:
  003ff	8b 44 24 74	 mov	 eax, DWORD PTR tv239[rsp]
  00403	89 44 24 7c	 mov	 DWORD PTR tv240[rsp], eax
  00407	eb 5a		 jmp	 SHORT $LN85@z900_instf
$LN84@z900_instf:
  00409	b8 08 00 00 00	 mov	 eax, 8
  0040e	48 6b c0 0b	 imul	 rax, rax, 11
  00412	48 8b 8c 24 c0
	00 00 00	 mov	 rcx, QWORD PTR regs$[rsp]
  0041a	48 8b 84 01 00
	06 00 00	 mov	 rax, QWORD PTR [rcx+rax+1536]
  00422	48 39 44 24 30	 cmp	 QWORD PTR addr$[rsp], rax
  00427	73 2a		 jae	 SHORT $LN81@z900_instf
  00429	b8 08 00 00 00	 mov	 eax, 8
  0042e	48 6b c0 0c	 imul	 rax, rax, 12
  00432	48 8b 8c 24 c0
	00 00 00	 mov	 rcx, QWORD PTR regs$[rsp]
  0043a	48 8b 84 01 00
	06 00 00	 mov	 rax, QWORD PTR [rcx+rax+1536]
  00442	48 39 44 24 30	 cmp	 QWORD PTR addr$[rsp], rax
  00447	76 0a		 jbe	 SHORT $LN81@z900_instf
  00449	c7 44 24 78 00
	00 00 00	 mov	 DWORD PTR tv238[rsp], 0
  00451	eb 08		 jmp	 SHORT $LN82@z900_instf
$LN81@z900_instf:
  00453	c7 44 24 78 01
	00 00 00	 mov	 DWORD PTR tv238[rsp], 1
$LN82@z900_instf:
  0045b	8b 44 24 78	 mov	 eax, DWORD PTR tv238[rsp]
  0045f	89 44 24 7c	 mov	 DWORD PTR tv240[rsp], eax
$LN85@z900_instf:
  00463	83 7c 24 7c 00	 cmp	 DWORD PTR tv240[rsp], 0
  00468	0f 84 e0 00 00
	00		 je	 $LN29@z900_instf
$LN7@z900_instf:

; 828  :         )
; 829  :         {
; 830  :             ON_IC_PER_IF( regs );

  0046e	48 8b 84 24 c0
	00 00 00	 mov	 rax, QWORD PTR regs$[rsp]
  00476	8b 40 4c	 mov	 eax, DWORD PTR [rax+76]
  00479	0f ba e8 16	 bts	 eax, 22
  0047d	48 8b 8c 24 c0
	00 00 00	 mov	 rcx, QWORD PTR regs$[rsp]
  00485	89 41 4c	 mov	 DWORD PTR [rcx+76], eax
  00488	33 c0		 xor	 eax, eax
  0048a	85 c0		 test	 eax, eax
  0048c	75 e0		 jne	 SHORT $LN7@z900_instf

; 831  : 
; 832  : #if defined( FEATURE_PER3 )
; 833  :             /* If CR9_IFNUL (PER instruction-fetching nullification) is
; 834  :                set, take a program check immediately, without executing
; 835  :                the instruction or updating the PSW instruction address */
; 836  :             if (EN_IC_PER_IFNUL( regs ))

  0048e	48 8b 84 24 c0
	00 00 00	 mov	 rax, QWORD PTR regs$[rsp]
  00496	8b 80 28 07 00
	00		 mov	 eax, DWORD PTR [rax+1832]
  0049c	c1 e8 02	 shr	 eax, 2
  0049f	83 e0 01	 and	 eax, 1
  004a2	85 c0		 test	 eax, eax
  004a4	74 0d		 je	 SHORT $LN88@z900_instf
  004a6	c7 84 24 80 00
	00 00 01 00 00
	00		 mov	 DWORD PTR tv256[rsp], 1
  004b1	eb 0b		 jmp	 SHORT $LN89@z900_instf
$LN88@z900_instf:
  004b3	c7 84 24 80 00
	00 00 00 00 00
	00		 mov	 DWORD PTR tv256[rsp], 0
$LN89@z900_instf:
  004be	83 bc 24 80 00
	00 00 00	 cmp	 DWORD PTR tv256[rsp], 0
  004c6	0f 84 82 00 00
	00		 je	 $LN30@z900_instf
  004cc	48 8b 84 24 c0
	00 00 00	 mov	 rax, QWORD PTR regs$[rsp]
  004d4	8b 40 48	 mov	 eax, DWORD PTR [rax+72]
  004d7	25 00 00 01 00	 and	 eax, 65536		; 00010000H
  004dc	85 c0		 test	 eax, eax
  004de	74 6e		 je	 SHORT $LN30@z900_instf
$LN10@z900_instf:

; 837  :             {
; 838  :                 ON_IC_PER_IFNUL( regs );

  004e0	48 8b 84 24 c0
	00 00 00	 mov	 rax, QWORD PTR regs$[rsp]
  004e8	8b 40 4c	 mov	 eax, DWORD PTR [rax+76]
  004eb	0f ba e8 10	 bts	 eax, 16
  004ef	48 8b 8c 24 c0
	00 00 00	 mov	 rcx, QWORD PTR regs$[rsp]
  004f7	89 41 4c	 mov	 DWORD PTR [rcx+76], eax
  004fa	33 c0		 xor	 eax, eax
  004fc	85 c0		 test	 eax, eax
  004fe	75 e0		 jne	 SHORT $LN10@z900_instf

; 839  :                 regs->psw.IA = addr;

  00500	48 8b 84 24 c0
	00 00 00	 mov	 rax, QWORD PTR regs$[rsp]
  00508	48 8b 4c 24 30	 mov	 rcx, QWORD PTR addr$[rsp]
  0050d	48 89 88 88 00
	00 00		 mov	 QWORD PTR [rax+136], rcx

; 840  :                 regs->psw.zeroilc = 1;

  00514	48 8b 84 24 c0
	00 00 00	 mov	 rax, QWORD PTR regs$[rsp]
  0051c	8b 80 80 00 00
	00		 mov	 eax, DWORD PTR [rax+128]
  00522	83 c8 04	 or	 eax, 4
  00525	48 8b 8c 24 c0
	00 00 00	 mov	 rcx, QWORD PTR regs$[rsp]
  0052d	89 81 80 00 00
	00		 mov	 DWORD PTR [rcx+128], eax

; 841  :                 regs->program_interrupt( regs, PGM_PER_EVENT );

  00533	ba 80 00 00 00	 mov	 edx, 128		; 00000080H
  00538	48 8b 8c 24 c0
	00 00 00	 mov	 rcx, QWORD PTR regs$[rsp]
  00540	48 8b 84 24 c0
	00 00 00	 mov	 rax, QWORD PTR regs$[rsp]
  00548	ff 90 20 0d 00
	00		 call	 QWORD PTR [rax+3360]
$LN30@z900_instf:
$LN29@z900_instf:

; 842  :             }
; 843  : #endif /* defined( FEATURE_PER3 ) */
; 844  :         }
; 845  : 
; 846  :         /* Quick exit if AIA is still valid */
; 847  :         if (1
; 848  :             && !exec
; 849  :             && !regs->breakortrace
; 850  :             &&  VALID_AIE( regs )
; 851  :             &&  regs->ip < (regs->aip + pagesz - 5)

  0054e	33 c0		 xor	 eax, eax
  00550	83 f8 01	 cmp	 eax, 1
  00553	0f 84 e2 01 00
	00		 je	 $LN31@z900_instf
  00559	83 bc 24 c8 00
	00 00 00	 cmp	 DWORD PTR exec$[rsp], 0
  00561	0f 85 d4 01 00
	00		 jne	 $LN31@z900_instf
  00567	48 8b 84 24 c0
	00 00 00	 mov	 rax, QWORD PTR regs$[rsp]
  0056f	8b 80 28 07 00
	00		 mov	 eax, DWORD PTR [rax+1832]
  00575	c1 e8 10	 shr	 eax, 16
  00578	83 e0 01	 and	 eax, 1
  0057b	85 c0		 test	 eax, eax
  0057d	0f 85 b8 01 00
	00		 jne	 $LN31@z900_instf
  00583	48 8b 84 24 c0
	00 00 00	 mov	 rax, QWORD PTR regs$[rsp]
  0058b	48 83 b8 08 02
	00 00 00	 cmp	 QWORD PTR [rax+520], 0
  00593	0f 84 a2 01 00
	00		 je	 $LN31@z900_instf
  00599	48 63 44 24 38	 movsxd	 rax, DWORD PTR pagesz$[rsp]
  0059e	48 8b 8c 24 c0
	00 00 00	 mov	 rcx, QWORD PTR regs$[rsp]
  005a6	48 8b 89 00 02
	00 00		 mov	 rcx, QWORD PTR [rcx+512]
  005ad	48 8d 44 01 fb	 lea	 rax, QWORD PTR [rcx+rax-5]
  005b2	48 8b 8c 24 c0
	00 00 00	 mov	 rcx, QWORD PTR regs$[rsp]
  005ba	48 39 41 68	 cmp	 QWORD PTR [rcx+104], rax
  005be	0f 83 77 01 00
	00		 jae	 $LN31@z900_instf

; 852  :         )
; 853  :         {
; 854  : #if defined( FEATURE_073_TRANSACT_EXEC_FACILITY )
; 855  : 
; 856  :             /* Update CONSTRAINED trans instruction fetch constraint */
; 857  :             if (regs->txf_contran)

  005c4	48 8b 84 24 c0
	00 00 00	 mov	 rax, QWORD PTR regs$[rsp]
  005cc	0f b6 80 4c 0e
	00 00		 movzx	 eax, BYTE PTR [rax+3660]
  005d3	85 c0		 test	 eax, eax
  005d5	74 4d		 je	 SHORT $LN32@z900_instf

; 858  :             {
; 859  :                 if (regs->AIV == regs->txf_aie_aiv2)

  005d7	48 8b 84 24 c0
	00 00 00	 mov	 rax, QWORD PTR regs$[rsp]
  005df	48 8b 8c 24 c0
	00 00 00	 mov	 rcx, QWORD PTR regs$[rsp]
  005e7	48 8b 89 70 af
	00 00		 mov	 rcx, QWORD PTR [rcx+44912]
  005ee	48 39 88 10 02
	00 00		 cmp	 QWORD PTR [rax+528], rcx
  005f5	75 2d		 jne	 SHORT $LN33@z900_instf

; 860  :                     regs->txf_aie = regs->aip + regs->txf_aie_off2;

  005f7	48 8b 84 24 c0
	00 00 00	 mov	 rax, QWORD PTR regs$[rsp]
  005ff	48 63 80 78 af
	00 00		 movsxd	 rax, DWORD PTR [rax+44920]
  00606	48 8b 8c 24 c0
	00 00 00	 mov	 rcx, QWORD PTR regs$[rsp]
  0060e	48 03 81 00 02
	00 00		 add	 rax, QWORD PTR [rcx+512]
  00615	48 8b 8c 24 c0
	00 00 00	 mov	 rcx, QWORD PTR regs$[rsp]
  0061d	48 89 81 60 af
	00 00		 mov	 QWORD PTR [rcx+44896], rax
$LN33@z900_instf:
$LN32@z900_instf:
$LN13@z900_instf:

; 861  :             }
; 862  : 
; 863  :             TXF_INSTRADDR_CONSTRAINT( regs );

  00624	33 c0		 xor	 eax, eax
  00626	83 f8 01	 cmp	 eax, 1
  00629	74 6f		 je	 SHORT $LN34@z900_instf
  0062b	48 8b 84 24 c0
	00 00 00	 mov	 rax, QWORD PTR regs$[rsp]
  00633	0f b6 80 4c 0e
	00 00		 movzx	 eax, BYTE PTR [rax+3660]
  0063a	85 c0		 test	 eax, eax
  0063c	74 5c		 je	 SHORT $LN34@z900_instf
  0063e	48 8b 84 24 c0
	00 00 00	 mov	 rax, QWORD PTR regs$[rsp]
  00646	48 8b 8c 24 c0
	00 00 00	 mov	 rcx, QWORD PTR regs$[rsp]
  0064e	48 8b 89 60 af
	00 00		 mov	 rcx, QWORD PTR [rcx+44896]
  00655	48 39 48 68	 cmp	 QWORD PTR [rax+104], rcx
  00659	72 3f		 jb	 SHORT $LN34@z900_instf
  0065b	48 8b 84 24 c0
	00 00 00	 mov	 rax, QWORD PTR regs$[rsp]
  00663	8b 80 84 af 00
	00		 mov	 eax, DWORD PTR [rax+44932]
  00669	0f ba e8 1f	 bts	 eax, 31
  0066d	48 8b 8c 24 c0
	00 00 00	 mov	 rcx, QWORD PTR regs$[rsp]
  00675	89 81 84 af 00
	00		 mov	 DWORD PTR [rcx+44932], eax
  0067b	4c 8d 0d 00 00
	00 00		 lea	 r9, OFFSET FLAT:??_C@_0CM@GFKCBHDD@C?3?2papa?2MyGit?2hyperion?9zvector?2@
  00682	41 b8 0b 00 00
	00		 mov	 r8d, 11
  00688	ba fe ff ff ff	 mov	 edx, -2
  0068d	48 8b 8c 24 c0
	00 00 00	 mov	 rcx, QWORD PTR regs$[rsp]
  00695	e8 00 00 00 00	 call	 z900_abort_transaction
$LN34@z900_instf:
  0069a	33 c0		 xor	 eax, eax
  0069c	85 c0		 test	 eax, eax
  0069e	75 84		 jne	 SHORT $LN13@z900_instf

; 864  : 
; 865  : #endif /* defined( FEATURE_073_TRANSACT_EXEC_FACILITY ) */
; 866  : 
; 867  :             /* Save the address of the instruction ABOUT to be executed */
; 868  :             regs->periaddr = PSW_IA_FROM_IP( regs, 0 );

  006a0	48 8b 84 24 c0
	00 00 00	 mov	 rax, QWORD PTR regs$[rsp]
  006a8	48 8b 8c 24 c0
	00 00 00	 mov	 rcx, QWORD PTR regs$[rsp]
  006b0	48 8b 89 00 02
	00 00		 mov	 rcx, QWORD PTR [rcx+512]
  006b7	48 8b 40 68	 mov	 rax, QWORD PTR [rax+104]
  006bb	48 2b c1	 sub	 rax, rcx
  006be	48 8b 8c 24 c0
	00 00 00	 mov	 rcx, QWORD PTR regs$[rsp]
  006c6	48 8b 89 10 02
	00 00		 mov	 rcx, QWORD PTR [rcx+528]
  006cd	48 03 c8	 add	 rcx, rax
  006d0	48 8b c1	 mov	 rax, rcx
  006d3	48 8b 8c 24 c0
	00 00 00	 mov	 rcx, QWORD PTR regs$[rsp]
  006db	48 23 81 90 00
	00 00		 and	 rax, QWORD PTR [rcx+144]
  006e2	48 8b 8c 24 c0
	00 00 00	 mov	 rcx, QWORD PTR regs$[rsp]
  006ea	48 89 81 e8 08
	00 00		 mov	 QWORD PTR [rcx+2280], rax

; 869  : 
; 870  :             /* Suppress PER instruction fetch event if appropriate */
; 871  :             if (IS_PER_SUPRESS( regs, CR9_IF ))

  006f1	ba 00 00 00 40	 mov	 edx, 1073741824		; 40000000H
  006f6	48 8b 8c 24 c0
	00 00 00	 mov	 rcx, QWORD PTR regs$[rsp]
  006fe	e8 00 00 00 00	 call	 z900_is_per3_event_suppressed
  00703	0f b6 c0	 movzx	 eax, al
  00706	85 c0		 test	 eax, eax
  00708	74 20		 je	 SHORT $LN35@z900_instf
$LN16@z900_instf:

; 872  :                 OFF_IC_PER_IF( regs );

  0070a	48 8b 84 24 c0
	00 00 00	 mov	 rax, QWORD PTR regs$[rsp]
  00712	8b 40 4c	 mov	 eax, DWORD PTR [rax+76]
  00715	0f ba f0 16	 btr	 eax, 22
  00719	48 8b 8c 24 c0
	00 00 00	 mov	 rcx, QWORD PTR regs$[rsp]
  00721	89 41 4c	 mov	 DWORD PTR [rcx+76], eax
  00724	33 c0		 xor	 eax, eax
  00726	85 c0		 test	 eax, eax
  00728	75 e0		 jne	 SHORT $LN16@z900_instf
$LN35@z900_instf:

; 873  : 
; 874  :             /* Return to caller to execute this instruction */
; 875  :             return regs->ip;

  0072a	48 8b 84 24 c0
	00 00 00	 mov	 rax, QWORD PTR regs$[rsp]
  00732	48 8b 40 68	 mov	 rax, QWORD PTR [rax+104]
  00736	e9 49 04 00 00	 jmp	 $LN1@z900_instf
$LN31@z900_instf:
$LN27@z900_instf:

; 876  :         }
; 877  :     }
; 878  : #endif /* defined( FEATURE_PER ) */
; 879  : 
; 880  :     /* Set instinvalid in case of addressing or translation exception */
; 881  :     if (!exec)

  0073b	83 bc 24 c8 00
	00 00 00	 cmp	 DWORD PTR exec$[rsp], 0
  00743	75 1f		 jne	 SHORT $LN36@z900_instf

; 882  :         regs->instinvalid = 1;

  00745	48 8b 84 24 c0
	00 00 00	 mov	 rax, QWORD PTR regs$[rsp]
  0074d	8b 80 28 07 00
	00		 mov	 eax, DWORD PTR [rax+1832]
  00753	83 c8 08	 or	 eax, 8
  00756	48 8b 8c 24 c0
	00 00 00	 mov	 rcx, QWORD PTR regs$[rsp]
  0075e	89 81 28 07 00
	00		 mov	 DWORD PTR [rcx+1832], eax
$LN36@z900_instf:

; 883  : 
; 884  :     /* Get instruction address */
; 885  :     ip = MADDRL( addr, 6, USE_INST_SPACE, regs, ACCTYPE_INSTFETCH, regs->psw.pkey );

  00764	48 8b 84 24 c0
	00 00 00	 mov	 rax, QWORD PTR regs$[rsp]
  0076c	0f b6 40 79	 movzx	 eax, BYTE PTR [rax+121]
  00770	88 44 24 28	 mov	 BYTE PTR [rsp+40], al
  00774	c7 44 24 20 04
	00 00 00	 mov	 DWORD PTR [rsp+32], 4
  0077c	4c 8b 8c 24 c0
	00 00 00	 mov	 r9, QWORD PTR regs$[rsp]
  00784	41 b8 ff ff ff
	ff		 mov	 r8d, -1
  0078a	ba 06 00 00 00	 mov	 edx, 6
  0078f	48 8b 4c 24 30	 mov	 rcx, QWORD PTR addr$[rsp]
  00794	e8 00 00 00 00	 call	 z900_maddr_l
  00799	48 89 44 24 40	 mov	 QWORD PTR ip$[rsp], rax

; 886  : 
; 887  :     /* If boundary is crossed then copy instruction to destination */
; 888  :     if (offset + ILC( ip[0] ) > pagesz)

  0079e	b8 01 00 00 00	 mov	 eax, 1
  007a3	48 6b c0 00	 imul	 rax, rax, 0
  007a7	48 8b 4c 24 40	 mov	 rcx, QWORD PTR ip$[rsp]
  007ac	0f b6 04 01	 movzx	 eax, BYTE PTR [rcx+rax]
  007b0	83 f8 40	 cmp	 eax, 64			; 00000040H
  007b3	7d 0d		 jge	 SHORT $LN92@z900_instf
  007b5	c7 84 24 88 00
	00 00 02 00 00
	00		 mov	 DWORD PTR tv351[rsp], 2
  007c0	eb 3f		 jmp	 SHORT $LN93@z900_instf
$LN92@z900_instf:
  007c2	b8 01 00 00 00	 mov	 eax, 1
  007c7	48 6b c0 00	 imul	 rax, rax, 0
  007cb	48 8b 4c 24 40	 mov	 rcx, QWORD PTR ip$[rsp]
  007d0	0f b6 04 01	 movzx	 eax, BYTE PTR [rcx+rax]
  007d4	3d c0 00 00 00	 cmp	 eax, 192		; 000000c0H
  007d9	7d 0d		 jge	 SHORT $LN90@z900_instf
  007db	c7 84 24 84 00
	00 00 04 00 00
	00		 mov	 DWORD PTR tv350[rsp], 4
  007e6	eb 0b		 jmp	 SHORT $LN91@z900_instf
$LN90@z900_instf:
  007e8	c7 84 24 84 00
	00 00 06 00 00
	00		 mov	 DWORD PTR tv350[rsp], 6
$LN91@z900_instf:
  007f3	8b 84 24 84 00
	00 00		 mov	 eax, DWORD PTR tv350[rsp]
  007fa	89 84 24 88 00
	00 00		 mov	 DWORD PTR tv351[rsp], eax
$LN93@z900_instf:
  00801	8b 84 24 88 00
	00 00		 mov	 eax, DWORD PTR tv351[rsp]
  00808	8b 4c 24 48	 mov	 ecx, DWORD PTR offset$[rsp]
  0080c	03 c8		 add	 ecx, eax
  0080e	8b c1		 mov	 eax, ecx
  00810	3b 44 24 38	 cmp	 eax, DWORD PTR pagesz$[rsp]
  00814	0f 8e 06 01 00
	00		 jle	 $LN37@z900_instf

; 889  :     {
; 890  :         /* Copy first part of instruction (note: dest is 8 bytes) */
; 891  :         dest = exec ? regs->exinst : regs->inst;

  0081a	83 bc 24 c8 00
	00 00 00	 cmp	 DWORD PTR exec$[rsp], 0
  00822	74 18		 je	 SHORT $LN94@z900_instf
  00824	48 8b 84 24 c0
	00 00 00	 mov	 rax, QWORD PTR regs$[rsp]
  0082c	48 05 40 08 00
	00		 add	 rax, 2112		; 00000840H
  00832	48 89 84 24 a8
	00 00 00	 mov	 QWORD PTR tv357[rsp], rax
  0083a	eb 16		 jmp	 SHORT $LN95@z900_instf
$LN94@z900_instf:
  0083c	48 8b 84 24 c0
	00 00 00	 mov	 rax, QWORD PTR regs$[rsp]
  00844	48 05 f1 08 00
	00		 add	 rax, 2289		; 000008f1H
  0084a	48 89 84 24 a8
	00 00 00	 mov	 QWORD PTR tv357[rsp], rax
$LN95@z900_instf:
  00852	48 8b 84 24 a8
	00 00 00	 mov	 rax, QWORD PTR tv357[rsp]
  0085a	48 89 84 24 90
	00 00 00	 mov	 QWORD PTR dest$[rsp], rax

; 892  :         memcpy( dest, ip, 4 );

  00862	48 8b 84 24 90
	00 00 00	 mov	 rax, QWORD PTR dest$[rsp]
  0086a	48 8b 4c 24 40	 mov	 rcx, QWORD PTR ip$[rsp]
  0086f	8b 09		 mov	 ecx, DWORD PTR [rcx]
  00871	89 08		 mov	 DWORD PTR [rax], ecx

; 893  : 
; 894  :         /* Copy second part of instruction */
; 895  :         len = pagesz - offset;

  00873	8b 44 24 48	 mov	 eax, DWORD PTR offset$[rsp]
  00877	8b 4c 24 38	 mov	 ecx, DWORD PTR pagesz$[rsp]
  0087b	2b c8		 sub	 ecx, eax
  0087d	8b c1		 mov	 eax, ecx
  0087f	89 44 24 4c	 mov	 DWORD PTR len$[rsp], eax

; 896  :         addr = (addr + len) & ADDRESS_MAXWRAP( regs );

  00883	48 63 44 24 4c	 movsxd	 rax, DWORD PTR len$[rsp]
  00888	48 8b 4c 24 30	 mov	 rcx, QWORD PTR addr$[rsp]
  0088d	48 03 c8	 add	 rcx, rax
  00890	48 8b c1	 mov	 rax, rcx
  00893	48 8b 8c 24 c0
	00 00 00	 mov	 rcx, QWORD PTR regs$[rsp]
  0089b	48 23 81 90 00
	00 00		 and	 rax, QWORD PTR [rcx+144]
  008a2	48 89 44 24 30	 mov	 QWORD PTR addr$[rsp], rax

; 897  :         ip = MADDR( addr, USE_INST_SPACE, regs, ACCTYPE_INSTFETCH, regs->psw.pkey );

  008a7	48 8b 84 24 c0
	00 00 00	 mov	 rax, QWORD PTR regs$[rsp]
  008af	0f b6 40 79	 movzx	 eax, BYTE PTR [rax+121]
  008b3	88 44 24 28	 mov	 BYTE PTR [rsp+40], al
  008b7	c7 44 24 20 04
	00 00 00	 mov	 DWORD PTR [rsp+32], 4
  008bf	4c 8b 8c 24 c0
	00 00 00	 mov	 r9, QWORD PTR regs$[rsp]
  008c7	41 b8 ff ff ff
	ff		 mov	 r8d, -1
  008cd	ba 01 00 00 00	 mov	 edx, 1
  008d2	48 8b 4c 24 30	 mov	 rcx, QWORD PTR addr$[rsp]
  008d7	e8 00 00 00 00	 call	 z900_maddr_l
  008dc	48 89 44 24 40	 mov	 QWORD PTR ip$[rsp], rax

; 898  :         if (!exec)

  008e1	83 bc 24 c8 00
	00 00 00	 cmp	 DWORD PTR exec$[rsp], 0
  008e9	75 1c		 jne	 SHORT $LN39@z900_instf

; 899  :             regs->ip = ip - len;

  008eb	48 63 44 24 4c	 movsxd	 rax, DWORD PTR len$[rsp]
  008f0	48 8b 4c 24 40	 mov	 rcx, QWORD PTR ip$[rsp]
  008f5	48 2b c8	 sub	 rcx, rax
  008f8	48 8b c1	 mov	 rax, rcx
  008fb	48 8b 8c 24 c0
	00 00 00	 mov	 rcx, QWORD PTR regs$[rsp]
  00903	48 89 41 68	 mov	 QWORD PTR [rcx+104], rax
$LN39@z900_instf:

; 900  :         memcpy( dest + len, ip, 4 );

  00907	48 63 44 24 4c	 movsxd	 rax, DWORD PTR len$[rsp]
  0090c	48 8b 8c 24 90
	00 00 00	 mov	 rcx, QWORD PTR dest$[rsp]
  00914	48 8b 54 24 40	 mov	 rdx, QWORD PTR ip$[rsp]
  00919	8b 12		 mov	 edx, DWORD PTR [rdx]
  0091b	89 14 01	 mov	 DWORD PTR [rcx+rax], edx

; 901  :     }

  0091e	eb 28		 jmp	 SHORT $LN38@z900_instf
$LN37@z900_instf:

; 902  :     else /* boundary NOT crossed */
; 903  :     {
; 904  :         dest = ip;

  00920	48 8b 44 24 40	 mov	 rax, QWORD PTR ip$[rsp]
  00925	48 89 84 24 90
	00 00 00	 mov	 QWORD PTR dest$[rsp], rax

; 905  : 
; 906  :         if (!exec)

  0092d	83 bc 24 c8 00
	00 00 00	 cmp	 DWORD PTR exec$[rsp], 0
  00935	75 11		 jne	 SHORT $LN40@z900_instf

; 907  :             regs->ip = ip;

  00937	48 8b 84 24 c0
	00 00 00	 mov	 rax, QWORD PTR regs$[rsp]
  0093f	48 8b 4c 24 40	 mov	 rcx, QWORD PTR ip$[rsp]
  00944	48 89 48 68	 mov	 QWORD PTR [rax+104], rcx
$LN40@z900_instf:
$LN38@z900_instf:

; 908  :     }
; 909  : 
; 910  :     if (!exec)

  00948	83 bc 24 c8 00
	00 00 00	 cmp	 DWORD PTR exec$[rsp], 0
  00950	0f 85 c0 00 00
	00		 jne	 $LN41@z900_instf

; 911  :     {
; 912  :         /* Instr addr now known to be valid so reset instinvalid flag */
; 913  :         regs->instinvalid = 0;

  00956	48 8b 84 24 c0
	00 00 00	 mov	 rax, QWORD PTR regs$[rsp]
  0095e	8b 80 28 07 00
	00		 mov	 eax, DWORD PTR [rax+1832]
  00964	83 e0 f7	 and	 eax, -9			; fffffff7H
  00967	48 8b 8c 24 c0
	00 00 00	 mov	 rcx, QWORD PTR regs$[rsp]
  0096f	89 81 28 07 00
	00		 mov	 DWORD PTR [rcx+1832], eax

; 914  : 
; 915  :         /* Update the AIA values */
; 916  :         regs->AIV = addr & PAGEFRAME_PAGEMASK;

  00975	48 8b 44 24 30	 mov	 rax, QWORD PTR addr$[rsp]
  0097a	48 25 00 f0 ff
	ff		 and	 rax, -4096		; fffffffffffff000H
  00980	48 8b 8c 24 c0
	00 00 00	 mov	 rcx, QWORD PTR regs$[rsp]
  00988	48 89 81 10 02
	00 00		 mov	 QWORD PTR [rcx+528], rax

; 917  :         regs->aip = (BYTE*)((uintptr_t)ip & ~PAGEFRAME_BYTEMASK);

  0098f	48 8b 44 24 40	 mov	 rax, QWORD PTR ip$[rsp]
  00994	48 25 00 f0 ff
	ff		 and	 rax, -4096		; fffffffffffff000H
  0099a	48 8b 8c 24 c0
	00 00 00	 mov	 rcx, QWORD PTR regs$[rsp]
  009a2	48 89 81 00 02
	00 00		 mov	 QWORD PTR [rcx+512], rax

; 918  : 
; 919  :         /* If tracing, stepping or PER is still active,
; 920  :            force another instfetch after this instruction.
; 921  :         */
; 922  :         if (regs->breakortrace || regs->permode)

  009a9	48 8b 84 24 c0
	00 00 00	 mov	 rax, QWORD PTR regs$[rsp]
  009b1	8b 80 28 07 00
	00		 mov	 eax, DWORD PTR [rax+1832]
  009b7	c1 e8 10	 shr	 eax, 16
  009ba	83 e0 01	 and	 eax, 1
  009bd	85 c0		 test	 eax, eax
  009bf	75 18		 jne	 SHORT $LN44@z900_instf
  009c1	48 8b 84 24 c0
	00 00 00	 mov	 rax, QWORD PTR regs$[rsp]
  009c9	8b 80 28 07 00
	00		 mov	 eax, DWORD PTR [rax+1832]
  009cf	c1 e8 02	 shr	 eax, 2
  009d2	83 e0 01	 and	 eax, 1
  009d5	85 c0		 test	 eax, eax
  009d7	74 15		 je	 SHORT $LN42@z900_instf
$LN44@z900_instf:

; 923  :         {
; 924  :             /* Force instfetch to be called again on next inst. */
; 925  :             regs->aie = PSEUDO_INVALID_AIE;

  009d9	48 8b 84 24 c0
	00 00 00	 mov	 rax, QWORD PTR regs$[rsp]
  009e1	48 c7 80 08 02
	00 00 01 00 00
	00		 mov	 QWORD PTR [rax+520], 1

; 926  :         }

  009ec	eb 28		 jmp	 SHORT $LN43@z900_instf
$LN42@z900_instf:

; 927  :         else /* (stepping/tracing/PER is NOT active) */
; 928  :         {
; 929  :             /* Call instfetch again ONLY when truly needed */
; 930  :             regs->aie = regs->aip + pagesz - 5;

  009ee	48 63 44 24 38	 movsxd	 rax, DWORD PTR pagesz$[rsp]
  009f3	48 8b 8c 24 c0
	00 00 00	 mov	 rcx, QWORD PTR regs$[rsp]
  009fb	48 8b 89 00 02
	00 00		 mov	 rcx, QWORD PTR [rcx+512]
  00a02	48 8d 44 01 fb	 lea	 rax, QWORD PTR [rcx+rax-5]
  00a07	48 8b 8c 24 c0
	00 00 00	 mov	 rcx, QWORD PTR regs$[rsp]
  00a0f	48 89 81 08 02
	00 00		 mov	 QWORD PTR [rcx+520], rax
$LN43@z900_instf:
$LN41@z900_instf:

; 931  :         }
; 932  :     }
; 933  : 
; 934  : #if defined( FEATURE_073_TRANSACT_EXEC_FACILITY )
; 935  : 
; 936  :     /* Update CONSTRAINED trans instruction fetch constraint */
; 937  :     if (regs->txf_contran)

  00a16	48 8b 84 24 c0
	00 00 00	 mov	 rax, QWORD PTR regs$[rsp]
  00a1e	0f b6 80 4c 0e
	00 00		 movzx	 eax, BYTE PTR [rax+3660]
  00a25	85 c0		 test	 eax, eax
  00a27	74 4d		 je	 SHORT $LN45@z900_instf

; 938  :     {
; 939  :         if (regs->AIV == regs->txf_aie_aiv2)

  00a29	48 8b 84 24 c0
	00 00 00	 mov	 rax, QWORD PTR regs$[rsp]
  00a31	48 8b 8c 24 c0
	00 00 00	 mov	 rcx, QWORD PTR regs$[rsp]
  00a39	48 8b 89 70 af
	00 00		 mov	 rcx, QWORD PTR [rcx+44912]
  00a40	48 39 88 10 02
	00 00		 cmp	 QWORD PTR [rax+528], rcx
  00a47	75 2d		 jne	 SHORT $LN46@z900_instf

; 940  :             regs->txf_aie = regs->aip + regs->txf_aie_off2;

  00a49	48 8b 84 24 c0
	00 00 00	 mov	 rax, QWORD PTR regs$[rsp]
  00a51	48 63 80 78 af
	00 00		 movsxd	 rax, DWORD PTR [rax+44920]
  00a58	48 8b 8c 24 c0
	00 00 00	 mov	 rcx, QWORD PTR regs$[rsp]
  00a60	48 03 81 00 02
	00 00		 add	 rax, QWORD PTR [rcx+512]
  00a67	48 8b 8c 24 c0
	00 00 00	 mov	 rcx, QWORD PTR regs$[rsp]
  00a6f	48 89 81 60 af
	00 00		 mov	 QWORD PTR [rcx+44896], rax
$LN46@z900_instf:
$LN45@z900_instf:
$LN19@z900_instf:

; 941  :     }
; 942  : 
; 943  :     TXF_INSTRADDR_CONSTRAINT( regs );

  00a76	33 c0		 xor	 eax, eax
  00a78	83 f8 01	 cmp	 eax, 1
  00a7b	74 6f		 je	 SHORT $LN47@z900_instf
  00a7d	48 8b 84 24 c0
	00 00 00	 mov	 rax, QWORD PTR regs$[rsp]
  00a85	0f b6 80 4c 0e
	00 00		 movzx	 eax, BYTE PTR [rax+3660]
  00a8c	85 c0		 test	 eax, eax
  00a8e	74 5c		 je	 SHORT $LN47@z900_instf
  00a90	48 8b 84 24 c0
	00 00 00	 mov	 rax, QWORD PTR regs$[rsp]
  00a98	48 8b 8c 24 c0
	00 00 00	 mov	 rcx, QWORD PTR regs$[rsp]
  00aa0	48 8b 89 60 af
	00 00		 mov	 rcx, QWORD PTR [rcx+44896]
  00aa7	48 39 48 68	 cmp	 QWORD PTR [rax+104], rcx
  00aab	72 3f		 jb	 SHORT $LN47@z900_instf
  00aad	48 8b 84 24 c0
	00 00 00	 mov	 rax, QWORD PTR regs$[rsp]
  00ab5	8b 80 84 af 00
	00		 mov	 eax, DWORD PTR [rax+44932]
  00abb	0f ba e8 1f	 bts	 eax, 31
  00abf	48 8b 8c 24 c0
	00 00 00	 mov	 rcx, QWORD PTR regs$[rsp]
  00ac7	89 81 84 af 00
	00		 mov	 DWORD PTR [rcx+44932], eax
  00acd	4c 8d 0d 00 00
	00 00		 lea	 r9, OFFSET FLAT:??_C@_0CM@NOJKKEDI@C?3?2papa?2MyGit?2hyperion?9zvector?2@
  00ad4	41 b8 0b 00 00
	00		 mov	 r8d, 11
  00ada	ba fe ff ff ff	 mov	 edx, -2
  00adf	48 8b 8c 24 c0
	00 00 00	 mov	 rcx, QWORD PTR regs$[rsp]
  00ae7	e8 00 00 00 00	 call	 z900_abort_transaction
$LN47@z900_instf:
  00aec	33 c0		 xor	 eax, eax
  00aee	85 c0		 test	 eax, eax
  00af0	75 84		 jne	 SHORT $LN19@z900_instf

; 944  : 
; 945  : #endif /* defined( FEATURE_073_TRANSACT_EXEC_FACILITY ) */
; 946  : 
; 947  :     /* Save the address of the instruction ABOUT to be executed */
; 948  :     regs->periaddr = PSW_IA_FROM_IP( regs, 0 );

  00af2	48 8b 84 24 c0
	00 00 00	 mov	 rax, QWORD PTR regs$[rsp]
  00afa	48 8b 8c 24 c0
	00 00 00	 mov	 rcx, QWORD PTR regs$[rsp]
  00b02	48 8b 89 00 02
	00 00		 mov	 rcx, QWORD PTR [rcx+512]
  00b09	48 8b 40 68	 mov	 rax, QWORD PTR [rax+104]
  00b0d	48 2b c1	 sub	 rax, rcx
  00b10	48 8b 8c 24 c0
	00 00 00	 mov	 rcx, QWORD PTR regs$[rsp]
  00b18	48 8b 89 10 02
	00 00		 mov	 rcx, QWORD PTR [rcx+528]
  00b1f	48 03 c8	 add	 rcx, rax
  00b22	48 8b c1	 mov	 rax, rcx
  00b25	48 8b 8c 24 c0
	00 00 00	 mov	 rcx, QWORD PTR regs$[rsp]
  00b2d	48 23 81 90 00
	00 00		 and	 rax, QWORD PTR [rcx+144]
  00b34	48 8b 8c 24 c0
	00 00 00	 mov	 rcx, QWORD PTR regs$[rsp]
  00b3c	48 89 81 e8 08
	00 00		 mov	 QWORD PTR [rcx+2280], rax

; 949  : 
; 950  :     /* Suppress PER instruction fetch event if appropriate */
; 951  :     if (IS_PER_SUPRESS( regs, CR9_IF ))

  00b43	ba 00 00 00 40	 mov	 edx, 1073741824		; 40000000H
  00b48	48 8b 8c 24 c0
	00 00 00	 mov	 rcx, QWORD PTR regs$[rsp]
  00b50	e8 00 00 00 00	 call	 z900_is_per3_event_suppressed
  00b55	0f b6 c0	 movzx	 eax, al
  00b58	85 c0		 test	 eax, eax
  00b5a	74 20		 je	 SHORT $LN48@z900_instf
$LN22@z900_instf:

; 952  :         OFF_IC_PER_IF( regs );

  00b5c	48 8b 84 24 c0
	00 00 00	 mov	 rax, QWORD PTR regs$[rsp]
  00b64	8b 40 4c	 mov	 eax, DWORD PTR [rax+76]
  00b67	0f ba f0 16	 btr	 eax, 22
  00b6b	48 8b 8c 24 c0
	00 00 00	 mov	 rcx, QWORD PTR regs$[rsp]
  00b73	89 41 4c	 mov	 DWORD PTR [rcx+76], eax
  00b76	33 c0		 xor	 eax, eax
  00b78	85 c0		 test	 eax, eax
  00b7a	75 e0		 jne	 SHORT $LN22@z900_instf
$LN48@z900_instf:

; 953  : 
; 954  :     /* Return to caller to execute this instruction */
; 955  :     return dest;

  00b7c	48 8b 84 24 90
	00 00 00	 mov	 rax, QWORD PTR dest$[rsp]
$LN1@z900_instf:

; 956  : 
; 957  : } /* end function ARCH_DEP( instfetch ) */

  00b84	48 81 c4 b8 00
	00 00		 add	 rsp, 184		; 000000b8H
  00b8b	c3		 ret	 0
z900_instfetch ENDP
_TEXT	ENDS
; Function compile flags: /Odtp
; File C:\papa\MyGit\hyperion-zvector\vstore.h
;	COMDAT z900_vfetchc
_TEXT	SEGMENT
len2$ = 48
tv76 = 52
main1$ = 56
main2$ = 64
dest$ = 112
len$ = 120
addr$ = 128
arn$ = 136
regs$ = 144
z900_vfetchc PROC					; COMDAT

; 631  : {

$LN9:
  00000	44 89 4c 24 20	 mov	 DWORD PTR [rsp+32], r9d
  00005	4c 89 44 24 18	 mov	 QWORD PTR [rsp+24], r8
  0000a	88 54 24 10	 mov	 BYTE PTR [rsp+16], dl
  0000e	48 89 4c 24 08	 mov	 QWORD PTR [rsp+8], rcx
  00013	56		 push	 rsi
  00014	57		 push	 rdi
  00015	48 83 ec 58	 sub	 rsp, 88			; 00000058H

; 632  : BYTE   *main1, *main2;                  /* Main storage addresses    */
; 633  : int     len2;                           /* Length to copy on page    */
; 634  : 
; 635  :     if (NOCROSSPAGE( addr, len ))

  00019	48 8b 84 24 80
	00 00 00	 mov	 rax, QWORD PTR addr$[rsp]
  00021	48 25 ff 0f 00
	00		 and	 rax, 4095		; 00000fffH
  00027	0f b6 4c 24 78	 movzx	 ecx, BYTE PTR len$[rsp]
  0002c	ba ff 0f 00 00	 mov	 edx, 4095		; 00000fffH
  00031	2b d1		 sub	 edx, ecx
  00033	8b ca		 mov	 ecx, edx
  00035	3b c1		 cmp	 eax, ecx
  00037	7f 0a		 jg	 SHORT $LN7@z900_vfetc
  00039	c7 44 24 34 01
	00 00 00	 mov	 DWORD PTR tv76[rsp], 1
  00041	eb 08		 jmp	 SHORT $LN8@z900_vfetc
$LN7@z900_vfetc:
  00043	c7 44 24 34 00
	00 00 00	 mov	 DWORD PTR tv76[rsp], 0
$LN8@z900_vfetc:
  0004b	83 7c 24 34 00	 cmp	 DWORD PTR tv76[rsp], 0
  00050	74 63		 je	 SHORT $LN2@z900_vfetc

; 636  :     {
; 637  :         ITIMER_SYNC( addr, len, regs );
; 638  :         main1 = MADDRL( addr, len + 1, arn, regs, ACCTYPE_READ, regs->psw.pkey );

  00052	0f b6 44 24 78	 movzx	 eax, BYTE PTR len$[rsp]
  00057	ff c0		 inc	 eax
  00059	48 98		 cdqe
  0005b	48 8b 8c 24 90
	00 00 00	 mov	 rcx, QWORD PTR regs$[rsp]
  00063	0f b6 49 79	 movzx	 ecx, BYTE PTR [rcx+121]
  00067	88 4c 24 28	 mov	 BYTE PTR [rsp+40], cl
  0006b	c7 44 24 20 04
	00 00 00	 mov	 DWORD PTR [rsp+32], 4
  00073	4c 8b 8c 24 90
	00 00 00	 mov	 r9, QWORD PTR regs$[rsp]
  0007b	44 8b 84 24 88
	00 00 00	 mov	 r8d, DWORD PTR arn$[rsp]
  00083	48 8b d0	 mov	 rdx, rax
  00086	48 8b 8c 24 80
	00 00 00	 mov	 rcx, QWORD PTR addr$[rsp]
  0008e	e8 00 00 00 00	 call	 z900_maddr_l
  00093	48 89 44 24 38	 mov	 QWORD PTR main1$[rsp], rax

; 639  :         memcpy( dest, main1, len + 1 );

  00098	0f b6 44 24 78	 movzx	 eax, BYTE PTR len$[rsp]
  0009d	ff c0		 inc	 eax
  0009f	48 98		 cdqe
  000a1	48 8b 7c 24 70	 mov	 rdi, QWORD PTR dest$[rsp]
  000a6	48 8b 74 24 38	 mov	 rsi, QWORD PTR main1$[rsp]
  000ab	48 8b c8	 mov	 rcx, rax
  000ae	f3 a4		 rep movsb

; 640  :     }

  000b0	e9 01 01 00 00	 jmp	 $LN3@z900_vfetc
$LN2@z900_vfetc:

; 641  :     else
; 642  :     {
; 643  :         len2 = PAGEFRAME_PAGESIZE - (addr & PAGEFRAME_BYTEMASK);

  000b5	48 8b 84 24 80
	00 00 00	 mov	 rax, QWORD PTR addr$[rsp]
  000bd	48 25 ff 0f 00
	00		 and	 rax, 4095		; 00000fffH
  000c3	b9 00 10 00 00	 mov	 ecx, 4096		; 00001000H
  000c8	48 2b c8	 sub	 rcx, rax
  000cb	48 8b c1	 mov	 rax, rcx
  000ce	89 44 24 30	 mov	 DWORD PTR len2$[rsp], eax

; 644  :         main1 = MADDRL( addr, len2, arn, regs, ACCTYPE_READ, regs->psw.pkey );

  000d2	48 63 44 24 30	 movsxd	 rax, DWORD PTR len2$[rsp]
  000d7	48 8b 8c 24 90
	00 00 00	 mov	 rcx, QWORD PTR regs$[rsp]
  000df	0f b6 49 79	 movzx	 ecx, BYTE PTR [rcx+121]
  000e3	88 4c 24 28	 mov	 BYTE PTR [rsp+40], cl
  000e7	c7 44 24 20 04
	00 00 00	 mov	 DWORD PTR [rsp+32], 4
  000ef	4c 8b 8c 24 90
	00 00 00	 mov	 r9, QWORD PTR regs$[rsp]
  000f7	44 8b 84 24 88
	00 00 00	 mov	 r8d, DWORD PTR arn$[rsp]
  000ff	48 8b d0	 mov	 rdx, rax
  00102	48 8b 8c 24 80
	00 00 00	 mov	 rcx, QWORD PTR addr$[rsp]
  0010a	e8 00 00 00 00	 call	 z900_maddr_l
  0010f	48 89 44 24 38	 mov	 QWORD PTR main1$[rsp], rax

; 645  :         main2 = MADDRL( (addr + len2) & ADDRESS_MAXWRAP( regs ), len + 1 - len2,

  00114	0f b6 44 24 78	 movzx	 eax, BYTE PTR len$[rsp]
  00119	ff c0		 inc	 eax
  0011b	2b 44 24 30	 sub	 eax, DWORD PTR len2$[rsp]
  0011f	48 98		 cdqe
  00121	48 63 4c 24 30	 movsxd	 rcx, DWORD PTR len2$[rsp]
  00126	48 8b 94 24 80
	00 00 00	 mov	 rdx, QWORD PTR addr$[rsp]
  0012e	48 03 d1	 add	 rdx, rcx
  00131	48 8b ca	 mov	 rcx, rdx
  00134	48 8b 94 24 90
	00 00 00	 mov	 rdx, QWORD PTR regs$[rsp]
  0013c	48 23 8a 90 00
	00 00		 and	 rcx, QWORD PTR [rdx+144]
  00143	48 8b 94 24 90
	00 00 00	 mov	 rdx, QWORD PTR regs$[rsp]
  0014b	0f b6 52 79	 movzx	 edx, BYTE PTR [rdx+121]
  0014f	88 54 24 28	 mov	 BYTE PTR [rsp+40], dl
  00153	c7 44 24 20 04
	00 00 00	 mov	 DWORD PTR [rsp+32], 4
  0015b	4c 8b 8c 24 90
	00 00 00	 mov	 r9, QWORD PTR regs$[rsp]
  00163	44 8b 84 24 88
	00 00 00	 mov	 r8d, DWORD PTR arn$[rsp]
  0016b	48 8b d0	 mov	 rdx, rax
  0016e	e8 00 00 00 00	 call	 z900_maddr_l
  00173	48 89 44 24 40	 mov	 QWORD PTR main2$[rsp], rax

; 646  :                         arn, regs, ACCTYPE_READ, regs->psw.pkey );
; 647  :         memcpy(        dest,        main1,           len2 );

  00178	48 63 44 24 30	 movsxd	 rax, DWORD PTR len2$[rsp]
  0017d	48 8b 7c 24 70	 mov	 rdi, QWORD PTR dest$[rsp]
  00182	48 8b 74 24 38	 mov	 rsi, QWORD PTR main1$[rsp]
  00187	48 8b c8	 mov	 rcx, rax
  0018a	f3 a4		 rep movsb

; 648  :         memcpy( (BYTE*)dest + len2, main2, len + 1 - len2 );

  0018c	0f b6 44 24 78	 movzx	 eax, BYTE PTR len$[rsp]
  00191	ff c0		 inc	 eax
  00193	2b 44 24 30	 sub	 eax, DWORD PTR len2$[rsp]
  00197	48 98		 cdqe
  00199	48 63 4c 24 30	 movsxd	 rcx, DWORD PTR len2$[rsp]
  0019e	48 8b 54 24 70	 mov	 rdx, QWORD PTR dest$[rsp]
  001a3	48 03 d1	 add	 rdx, rcx
  001a6	48 8b ca	 mov	 rcx, rdx
  001a9	48 8b f9	 mov	 rdi, rcx
  001ac	48 8b 74 24 40	 mov	 rsi, QWORD PTR main2$[rsp]
  001b1	48 8b c8	 mov	 rcx, rax
  001b4	f3 a4		 rep movsb
$LN3@z900_vfetc:

; 649  :     }
; 650  : }

  001b6	48 83 c4 58	 add	 rsp, 88			; 00000058H
  001ba	5f		 pop	 rdi
  001bb	5e		 pop	 rsi
  001bc	c3		 ret	 0
z900_vfetchc ENDP
_TEXT	ENDS
; Function compile flags: /Odtp
; File C:\papa\MyGit\hyperion-zvector\vstore.h
;	COMDAT z900_vstorec
_TEXT	SEGMENT
len2$ = 48
tv76 = 52
sk$ = 56
tv83 = 64
main1$ = 72
main2$ = 80
src$ = 128
len$ = 136
addr$ = 144
arn$ = 152
regs$ = 160
z900_vstorec PROC					; COMDAT

; 489  : {

$LN9:
  00000	44 89 4c 24 20	 mov	 DWORD PTR [rsp+32], r9d
  00005	4c 89 44 24 18	 mov	 QWORD PTR [rsp+24], r8
  0000a	88 54 24 10	 mov	 BYTE PTR [rsp+16], dl
  0000e	48 89 4c 24 08	 mov	 QWORD PTR [rsp+8], rcx
  00013	56		 push	 rsi
  00014	57		 push	 rdi
  00015	48 83 ec 68	 sub	 rsp, 104		; 00000068H

; 490  : BYTE   *main1, *main2;                  /* Mainstor addresses        */
; 491  : BYTE   *sk;                             /* Storage key addresses     */
; 492  : int     len2;                           /* Length to end of page     */
; 493  : 
; 494  :     if (NOCROSSPAGE( addr,len ))

  00019	48 8b 84 24 90
	00 00 00	 mov	 rax, QWORD PTR addr$[rsp]
  00021	48 25 ff 0f 00
	00		 and	 rax, 4095		; 00000fffH
  00027	0f b6 8c 24 88
	00 00 00	 movzx	 ecx, BYTE PTR len$[rsp]
  0002f	ba ff 0f 00 00	 mov	 edx, 4095		; 00000fffH
  00034	2b d1		 sub	 edx, ecx
  00036	8b ca		 mov	 ecx, edx
  00038	3b c1		 cmp	 eax, ecx
  0003a	7f 0a		 jg	 SHORT $LN7@z900_vstor
  0003c	c7 44 24 34 01
	00 00 00	 mov	 DWORD PTR tv76[rsp], 1
  00044	eb 08		 jmp	 SHORT $LN8@z900_vstor
$LN7@z900_vstor:
  00046	c7 44 24 34 00
	00 00 00	 mov	 DWORD PTR tv76[rsp], 0
$LN8@z900_vstor:
  0004e	83 7c 24 34 00	 cmp	 DWORD PTR tv76[rsp], 0
  00053	74 70		 je	 SHORT $LN2@z900_vstor

; 495  :     {
; 496  :         memcpy( MADDRL( addr, len+1, arn, regs, ACCTYPE_WRITE, regs->psw.pkey ),

  00055	0f b6 84 24 88
	00 00 00	 movzx	 eax, BYTE PTR len$[rsp]
  0005d	ff c0		 inc	 eax
  0005f	48 98		 cdqe
  00061	48 89 44 24 40	 mov	 QWORD PTR tv83[rsp], rax
  00066	0f b6 8c 24 88
	00 00 00	 movzx	 ecx, BYTE PTR len$[rsp]
  0006e	ff c1		 inc	 ecx
  00070	48 63 c9	 movsxd	 rcx, ecx
  00073	48 8b 94 24 a0
	00 00 00	 mov	 rdx, QWORD PTR regs$[rsp]
  0007b	0f b6 52 79	 movzx	 edx, BYTE PTR [rdx+121]
  0007f	88 54 24 28	 mov	 BYTE PTR [rsp+40], dl
  00083	c7 44 24 20 02
	00 00 00	 mov	 DWORD PTR [rsp+32], 2
  0008b	4c 8b 8c 24 a0
	00 00 00	 mov	 r9, QWORD PTR regs$[rsp]
  00093	44 8b 84 24 98
	00 00 00	 mov	 r8d, DWORD PTR arn$[rsp]
  0009b	48 8b d1	 mov	 rdx, rcx
  0009e	48 8b 8c 24 90
	00 00 00	 mov	 rcx, QWORD PTR addr$[rsp]
  000a6	e8 00 00 00 00	 call	 z900_maddr_l
  000ab	48 8b f8	 mov	 rdi, rax
  000ae	48 8b b4 24 80
	00 00 00	 mov	 rsi, QWORD PTR src$[rsp]
  000b6	48 8b 44 24 40	 mov	 rax, QWORD PTR tv83[rsp]
  000bb	48 8b c8	 mov	 rcx, rax
  000be	f3 a4		 rep movsb

; 497  :                src, len + 1);
; 498  :         ITIMER_UPDATE( addr, len, regs );
; 499  :     }

  000c0	e9 33 01 00 00	 jmp	 $LN3@z900_vstor
$LN2@z900_vstor:

; 500  :     else
; 501  :     {
; 502  :         len2 = PAGEFRAME_PAGESIZE - (addr & PAGEFRAME_BYTEMASK);

  000c5	48 8b 84 24 90
	00 00 00	 mov	 rax, QWORD PTR addr$[rsp]
  000cd	48 25 ff 0f 00
	00		 and	 rax, 4095		; 00000fffH
  000d3	b9 00 10 00 00	 mov	 ecx, 4096		; 00001000H
  000d8	48 2b c8	 sub	 rcx, rax
  000db	48 8b c1	 mov	 rax, rcx
  000de	89 44 24 30	 mov	 DWORD PTR len2$[rsp], eax

; 503  :         main1 = MADDRL( addr, len2, arn, regs, ACCTYPE_WRITE_SKP,

  000e2	48 63 44 24 30	 movsxd	 rax, DWORD PTR len2$[rsp]
  000e7	48 8b 8c 24 a0
	00 00 00	 mov	 rcx, QWORD PTR regs$[rsp]
  000ef	0f b6 49 79	 movzx	 ecx, BYTE PTR [rcx+121]
  000f3	88 4c 24 28	 mov	 BYTE PTR [rsp+40], cl
  000f7	c7 44 24 20 01
	00 00 00	 mov	 DWORD PTR [rsp+32], 1
  000ff	4c 8b 8c 24 a0
	00 00 00	 mov	 r9, QWORD PTR regs$[rsp]
  00107	44 8b 84 24 98
	00 00 00	 mov	 r8d, DWORD PTR arn$[rsp]
  0010f	48 8b d0	 mov	 rdx, rax
  00112	48 8b 8c 24 90
	00 00 00	 mov	 rcx, QWORD PTR addr$[rsp]
  0011a	e8 00 00 00 00	 call	 z900_maddr_l
  0011f	48 89 44 24 48	 mov	 QWORD PTR main1$[rsp], rax

; 504  :                         regs->psw.pkey );
; 505  :         sk = regs->dat.storkey;

  00124	48 8b 84 24 a0
	00 00 00	 mov	 rax, QWORD PTR regs$[rsp]
  0012c	48 8b 80 28 08
	00 00		 mov	 rax, QWORD PTR [rax+2088]
  00133	48 89 44 24 38	 mov	 QWORD PTR sk$[rsp], rax

; 506  :         main2 = MADDRL( (addr + len2) & ADDRESS_MAXWRAP( regs ),

  00138	0f b6 84 24 88
	00 00 00	 movzx	 eax, BYTE PTR len$[rsp]
  00140	ff c0		 inc	 eax
  00142	2b 44 24 30	 sub	 eax, DWORD PTR len2$[rsp]
  00146	48 98		 cdqe
  00148	48 63 4c 24 30	 movsxd	 rcx, DWORD PTR len2$[rsp]
  0014d	48 8b 94 24 90
	00 00 00	 mov	 rdx, QWORD PTR addr$[rsp]
  00155	48 03 d1	 add	 rdx, rcx
  00158	48 8b ca	 mov	 rcx, rdx
  0015b	48 8b 94 24 a0
	00 00 00	 mov	 rdx, QWORD PTR regs$[rsp]
  00163	48 23 8a 90 00
	00 00		 and	 rcx, QWORD PTR [rdx+144]
  0016a	48 8b 94 24 a0
	00 00 00	 mov	 rdx, QWORD PTR regs$[rsp]
  00172	0f b6 52 79	 movzx	 edx, BYTE PTR [rdx+121]
  00176	88 54 24 28	 mov	 BYTE PTR [rsp+40], dl
  0017a	c7 44 24 20 02
	00 00 00	 mov	 DWORD PTR [rsp+32], 2
  00182	4c 8b 8c 24 a0
	00 00 00	 mov	 r9, QWORD PTR regs$[rsp]
  0018a	44 8b 84 24 98
	00 00 00	 mov	 r8d, DWORD PTR arn$[rsp]
  00192	48 8b d0	 mov	 rdx, rax
  00195	e8 00 00 00 00	 call	 z900_maddr_l
  0019a	48 89 44 24 50	 mov	 QWORD PTR main2$[rsp], rax

; 507  :                         len+1-len2, arn,
; 508  :                         regs, ACCTYPE_WRITE, regs->psw.pkey );
; 509  :         *sk |= (STORKEY_REF | STORKEY_CHANGE);

  0019f	48 8b 44 24 38	 mov	 rax, QWORD PTR sk$[rsp]
  001a4	0f b6 00	 movzx	 eax, BYTE PTR [rax]
  001a7	83 c8 06	 or	 eax, 6
  001aa	48 8b 4c 24 38	 mov	 rcx, QWORD PTR sk$[rsp]
  001af	88 01		 mov	 BYTE PTR [rcx], al

; 510  :         memcpy( main1, src, len2 );

  001b1	48 63 44 24 30	 movsxd	 rax, DWORD PTR len2$[rsp]
  001b6	48 8b 7c 24 48	 mov	 rdi, QWORD PTR main1$[rsp]
  001bb	48 8b b4 24 80
	00 00 00	 mov	 rsi, QWORD PTR src$[rsp]
  001c3	48 8b c8	 mov	 rcx, rax
  001c6	f3 a4		 rep movsb

; 511  :         memcpy( main2, (BYTE*)src + len2, len + 1 - len2 );

  001c8	0f b6 84 24 88
	00 00 00	 movzx	 eax, BYTE PTR len$[rsp]
  001d0	ff c0		 inc	 eax
  001d2	2b 44 24 30	 sub	 eax, DWORD PTR len2$[rsp]
  001d6	48 98		 cdqe
  001d8	48 63 4c 24 30	 movsxd	 rcx, DWORD PTR len2$[rsp]
  001dd	48 8b 94 24 80
	00 00 00	 mov	 rdx, QWORD PTR src$[rsp]
  001e5	48 03 d1	 add	 rdx, rcx
  001e8	48 8b ca	 mov	 rcx, rdx
  001eb	48 8b 7c 24 50	 mov	 rdi, QWORD PTR main2$[rsp]
  001f0	48 8b f1	 mov	 rsi, rcx
  001f3	48 8b c8	 mov	 rcx, rax
  001f6	f3 a4		 rep movsb
$LN3@z900_vstor:

; 512  :     }
; 513  : }

  001f8	48 83 c4 68	 add	 rsp, 104		; 00000068H
  001fc	5f		 pop	 rdi
  001fd	5e		 pop	 rsi
  001fe	c3		 ret	 0
z900_vstorec ENDP
_TEXT	ENDS
; Function compile flags: /Odtp
; File C:\papa\MyGit\hyperion-zvector\dat.h
;	COMDAT z900_maddr_l
_TEXT	SEGMENT
tlbix$ = 48
aea_crn$ = 52
tv70 = 56
maddr$ = 64
addr$ = 96
len$ = 104
arn$ = 112
regs$ = 120
acctype$ = 128
akey$ = 136
z900_maddr_l PROC					; COMDAT

; 307  : {

$LN18:
  00000	4c 89 4c 24 20	 mov	 QWORD PTR [rsp+32], r9
  00005	44 89 44 24 18	 mov	 DWORD PTR [rsp+24], r8d
  0000a	48 89 54 24 10	 mov	 QWORD PTR [rsp+16], rdx
  0000f	48 89 4c 24 08	 mov	 QWORD PTR [rsp+8], rcx
  00014	48 83 ec 58	 sub	 rsp, 88			; 00000058H

; 308  :     /* Note: ALL of the below conditions must be true for a TLB hit
; 309  :        to occur.  If ANY of them are false, then it's a TLB miss,
; 310  :        requiring us to then perform a full DAT address translation.
; 311  : 
; 312  :        Note too that on the grand scheme of things the order/sequence
; 313  :        of the below tests (if statements) is completely unimportant
; 314  :        since ALL conditions must be checked anyway in order for a hit
; 315  :        to occur, and it doesn't matter that a miss tests a few extra
; 316  :        conditions since it's going to do a full translation anyway!
; 317  :        (which is many, many instructions)
; 318  :     */
; 319  : 
; 320  :     int  aea_crn  = (arn >= USE_ARMODE) ? 0 : regs->AEA_AR( arn );

  00018	83 7c 24 70 10	 cmp	 DWORD PTR arn$[rsp], 16
  0001d	7c 0a		 jl	 SHORT $LN16@z900_maddr
  0001f	c7 44 24 38 00
	00 00 00	 mov	 DWORD PTR tv70[rsp], 0
  00027	eb 19		 jmp	 SHORT $LN17@z900_maddr
$LN16@z900_maddr:
  00029	8b 44 24 70	 mov	 eax, DWORD PTR arn$[rsp]
  0002d	83 c0 05	 add	 eax, 5
  00030	48 98		 cdqe
  00032	48 8b 4c 24 78	 mov	 rcx, QWORD PTR regs$[rsp]
  00037	8b 84 81 94 0c
	00 00		 mov	 eax, DWORD PTR [rcx+rax*4+3220]
  0003e	89 44 24 38	 mov	 DWORD PTR tv70[rsp], eax
$LN17@z900_maddr:
  00042	8b 44 24 38	 mov	 eax, DWORD PTR tv70[rsp]
  00046	89 44 24 34	 mov	 DWORD PTR aea_crn$[rsp], eax

; 321  :     U16  tlbix    = TLBIX( addr );

  0004a	48 8b 44 24 60	 mov	 rax, QWORD PTR addr$[rsp]
  0004f	48 c1 e8 0c	 shr	 rax, 12
  00053	48 25 ff 03 00
	00		 and	 rax, 1023		; 000003ffH
  00059	66 89 44 24 30	 mov	 WORD PTR tlbix$[rsp], ax

; 322  :     BYTE *maddr   = NULL;

  0005e	48 c7 44 24 40
	00 00 00 00	 mov	 QWORD PTR maddr$[rsp], 0

; 323  : 
; 324  :     /* Non-zero AEA Control Register number? */
; 325  :     if (aea_crn)

  00067	83 7c 24 34 00	 cmp	 DWORD PTR aea_crn$[rsp], 0
  0006c	0f 84 2d 01 00
	00		 je	 $LN2@z900_maddr

; 326  :     {
; 327  :         /* Same Addess Space Designator as before? */
; 328  :         /* Or if not, is address in a common segment? */
; 329  :         if (0
; 330  :             || (regs->CR( aea_crn ) == regs->tlb.TLB_ASD( tlbix ))
; 331  :             || (regs->AEA_COMMON( aea_crn ) & regs->tlb.common[ tlbix ])

  00072	33 c0		 xor	 eax, eax
  00074	85 c0		 test	 eax, eax
  00076	75 5a		 jne	 SHORT $LN4@z900_maddr
  00078	8b 44 24 34	 mov	 eax, DWORD PTR aea_crn$[rsp]
  0007c	ff c0		 inc	 eax
  0007e	48 98		 cdqe
  00080	0f b7 4c 24 30	 movzx	 ecx, WORD PTR tlbix$[rsp]
  00085	48 8b 54 24 78	 mov	 rdx, QWORD PTR regs$[rsp]
  0008a	4c 8b 44 24 78	 mov	 r8, QWORD PTR regs$[rsp]
  0008f	49 8b 8c c8 60
	b0 00 00	 mov	 rcx, QWORD PTR [r8+rcx*8+45152]
  00097	48 39 8c c2 00
	06 00 00	 cmp	 QWORD PTR [rdx+rax*8+1536], rcx
  0009f	74 31		 je	 SHORT $LN4@z900_maddr
  000a1	8b 44 24 34	 mov	 eax, DWORD PTR aea_crn$[rsp]
  000a5	ff c0		 inc	 eax
  000a7	48 98		 cdqe
  000a9	48 8b 4c 24 78	 mov	 rcx, QWORD PTR regs$[rsp]
  000ae	0f b6 84 01 e8
	0c 00 00	 movzx	 eax, BYTE PTR [rcx+rax+3304]
  000b6	0f b7 4c 24 30	 movzx	 ecx, WORD PTR tlbix$[rsp]
  000bb	48 8b 54 24 78	 mov	 rdx, QWORD PTR regs$[rsp]
  000c0	0f b6 8c 0a 60
	54 01 00	 movzx	 ecx, BYTE PTR [rdx+rcx+87136]
  000c8	23 c1		 and	 eax, ecx
  000ca	85 c0		 test	 eax, eax
  000cc	0f 84 cd 00 00
	00		 je	 $LN3@z900_maddr
$LN4@z900_maddr:

; 332  :         )
; 333  :         {
; 334  :             /* Storage Key zero? */
; 335  :             /* Or if not, same Storage Key as before? */
; 336  :             if (0
; 337  :                 || akey == 0
; 338  :                 || akey == regs->tlb.skey[ tlbix ]

  000d2	33 c0		 xor	 eax, eax
  000d4	85 c0		 test	 eax, eax
  000d6	75 2e		 jne	 SHORT $LN6@z900_maddr
  000d8	0f b6 84 24 88
	00 00 00	 movzx	 eax, BYTE PTR akey$[rsp]
  000e0	85 c0		 test	 eax, eax
  000e2	74 22		 je	 SHORT $LN6@z900_maddr
  000e4	0f b6 84 24 88
	00 00 00	 movzx	 eax, BYTE PTR akey$[rsp]
  000ec	0f b7 4c 24 30	 movzx	 ecx, WORD PTR tlbix$[rsp]
  000f1	48 8b 54 24 78	 mov	 rdx, QWORD PTR regs$[rsp]
  000f6	0f b6 8c 0a 60
	50 01 00	 movzx	 ecx, BYTE PTR [rdx+rcx+86112]
  000fe	3b c1		 cmp	 eax, ecx
  00100	0f 85 99 00 00
	00		 jne	 $LN5@z900_maddr
$LN6@z900_maddr:

; 339  :             )
; 340  :             {
; 341  :                 /* Does the page address match the one in the TLB? */
; 342  :                 /* (does a TLB entry exist for this page address?) */
; 343  :                 if (
; 344  :                     ((addr & TLBID_PAGEMASK) | regs->tlbID)
; 345  :                     ==

  00106	48 8b 44 24 60	 mov	 rax, QWORD PTR addr$[rsp]
  0010b	48 25 00 00 c0
	ff		 and	 rax, -4194304		; ffffffffffc00000H
  00111	48 8b 4c 24 78	 mov	 rcx, QWORD PTR regs$[rsp]
  00116	8b 89 58 b0 00
	00		 mov	 ecx, DWORD PTR [rcx+45144]
  0011c	48 0b c1	 or	 rax, rcx
  0011f	0f b7 4c 24 30	 movzx	 ecx, WORD PTR tlbix$[rsp]
  00124	48 8b 54 24 78	 mov	 rdx, QWORD PTR regs$[rsp]
  00129	48 3b 84 ca 60
	d0 00 00	 cmp	 rax, QWORD PTR [rdx+rcx*8+53344]
  00131	75 6c		 jne	 SHORT $LN7@z900_maddr

; 346  :                     regs->tlb.TLB_VADDR( tlbix )
; 347  :                 )
; 348  :                 {
; 349  :                     /* Is storage being accessed same way as before? */
; 350  :                     if (acctype & regs->tlb.acc[ tlbix ])

  00133	0f b7 44 24 30	 movzx	 eax, WORD PTR tlbix$[rsp]
  00138	48 8b 4c 24 78	 mov	 rcx, QWORD PTR regs$[rsp]
  0013d	0f b6 84 01 60
	5c 01 00	 movzx	 eax, BYTE PTR [rcx+rax+89184]
  00145	8b 8c 24 80 00
	00 00		 mov	 ecx, DWORD PTR acctype$[rsp]
  0014c	23 c8		 and	 ecx, eax
  0014e	8b c1		 mov	 eax, ecx
  00150	85 c0		 test	 eax, eax
  00152	74 4b		 je	 SHORT $LN8@z900_maddr

; 351  :                     {
; 352  :                         /*------------------------------------------*/
; 353  :                         /* TLB hit: use previously translated value */
; 354  :                         /*------------------------------------------*/
; 355  : 
; 356  :                         if (acctype & ACC_CHECK)

  00154	8b 84 24 80 00
	00 00		 mov	 eax, DWORD PTR acctype$[rsp]
  0015b	83 e0 01	 and	 eax, 1
  0015e	85 c0		 test	 eax, eax
  00160	74 1e		 je	 SHORT $LN9@z900_maddr

; 357  :                             regs->dat.storkey = regs->tlb.storkey[ tlbix ];

  00162	0f b7 44 24 30	 movzx	 eax, WORD PTR tlbix$[rsp]
  00167	48 8b 4c 24 78	 mov	 rcx, QWORD PTR regs$[rsp]
  0016c	48 8b 54 24 78	 mov	 rdx, QWORD PTR regs$[rsp]
  00171	48 8b 84 c2 60
	30 01 00	 mov	 rax, QWORD PTR [rdx+rax*8+77920]
  00179	48 89 81 28 08
	00 00		 mov	 QWORD PTR [rcx+2088], rax
$LN9@z900_maddr:

; 358  : 
; 359  :                         maddr = MAINADDR( regs->tlb.main[tlbix], addr );

  00180	0f b7 44 24 30	 movzx	 eax, WORD PTR tlbix$[rsp]
  00185	48 8b 4c 24 78	 mov	 rcx, QWORD PTR regs$[rsp]
  0018a	48 8b 54 24 60	 mov	 rdx, QWORD PTR addr$[rsp]
  0018f	48 8b 84 c1 60
	10 01 00	 mov	 rax, QWORD PTR [rcx+rax*8+69728]
  00197	48 33 c2	 xor	 rax, rdx
  0019a	48 89 44 24 40	 mov	 QWORD PTR maddr$[rsp], rax
$LN8@z900_maddr:
$LN7@z900_maddr:
$LN5@z900_maddr:
$LN3@z900_maddr:
$LN2@z900_maddr:

; 360  :                     }
; 361  :                 }
; 362  :             }
; 363  :         }
; 364  :     }
; 365  : 
; 366  :     /*---------------------------------------*/
; 367  :     /* TLB miss: do full address translation */
; 368  :     /*---------------------------------------*/
; 369  :     if (!maddr)

  0019f	48 83 7c 24 40
	00		 cmp	 QWORD PTR maddr$[rsp], 0
  001a5	75 36		 jne	 SHORT $LN10@z900_maddr

; 370  :         maddr = ARCH_DEP( logical_to_main_l )( addr, arn, regs, acctype, akey, len );

  001a7	48 8b 44 24 68	 mov	 rax, QWORD PTR len$[rsp]
  001ac	48 89 44 24 28	 mov	 QWORD PTR [rsp+40], rax
  001b1	0f b6 84 24 88
	00 00 00	 movzx	 eax, BYTE PTR akey$[rsp]
  001b9	88 44 24 20	 mov	 BYTE PTR [rsp+32], al
  001bd	44 8b 8c 24 80
	00 00 00	 mov	 r9d, DWORD PTR acctype$[rsp]
  001c5	4c 8b 44 24 78	 mov	 r8, QWORD PTR regs$[rsp]
  001ca	8b 54 24 70	 mov	 edx, DWORD PTR arn$[rsp]
  001ce	48 8b 4c 24 60	 mov	 rcx, QWORD PTR addr$[rsp]
  001d3	e8 00 00 00 00	 call	 z900_logical_to_main_l
  001d8	48 89 44 24 40	 mov	 QWORD PTR maddr$[rsp], rax
$LN10@z900_maddr:

; 371  : 
; 372  : #if defined( FEATURE_073_TRANSACT_EXEC_FACILITY )
; 373  :     if (FACILITY_ENABLED( 073_TRANSACT_EXEC, regs ))

  001dd	b8 01 00 00 00	 mov	 eax, 1
  001e2	48 6b c0 09	 imul	 rax, rax, 9
  001e6	48 8b 4c 24 78	 mov	 rcx, QWORD PTR regs$[rsp]
  001eb	0f b6 84 01 28
	0d 00 00	 movzx	 eax, BYTE PTR [rcx+rax+3368]
  001f3	83 e0 40	 and	 eax, 64			; 00000040H
  001f6	85 c0		 test	 eax, eax
  001f8	0f 84 89 00 00
	00		 je	 $LN11@z900_maddr

; 374  :     {
; 375  :         /* SA22-7832-12 Principles of Operation, page 5-99:
; 376  : 
; 377  :              "Storage accesses for instruction and DAT- and ART-
; 378  :               table fetches follow the non-transactional rules."
; 379  :         */
; 380  :         if (0
; 381  :             || !regs
; 382  :             || !regs->txf_tnd
; 383  :             || arn == USE_INST_SPACE    /* Instruction fetching */
; 384  :             || arn == USE_REAL_ADDR     /* Address translation  */

  001fe	33 c0		 xor	 eax, eax
  00200	85 c0		 test	 eax, eax
  00202	75 26		 jne	 SHORT $LN13@z900_maddr
  00204	48 83 7c 24 78
	00		 cmp	 QWORD PTR regs$[rsp], 0
  0020a	74 1e		 je	 SHORT $LN13@z900_maddr
  0020c	48 8b 44 24 78	 mov	 rax, QWORD PTR regs$[rsp]
  00211	0f b6 80 58 0e
	00 00		 movzx	 eax, BYTE PTR [rax+3672]
  00218	85 c0		 test	 eax, eax
  0021a	74 0e		 je	 SHORT $LN13@z900_maddr
  0021c	83 7c 24 70 ff	 cmp	 DWORD PTR arn$[rsp], -1
  00221	74 07		 je	 SHORT $LN13@z900_maddr
  00223	83 7c 24 70 fe	 cmp	 DWORD PTR arn$[rsp], -2
  00228	75 07		 jne	 SHORT $LN12@z900_maddr
$LN13@z900_maddr:

; 385  :         )
; 386  :             return maddr;

  0022a	48 8b 44 24 40	 mov	 rax, QWORD PTR maddr$[rsp]
  0022f	eb 5b		 jmp	 SHORT $LN1@z900_maddr
$LN12@z900_maddr:

; 387  : 
; 388  :         /* Quick exit if NTSTG call */
; 389  :         if (regs->txf_NTSTG)

  00231	48 8b 44 24 78	 mov	 rax, QWORD PTR regs$[rsp]
  00236	0f b6 80 4b 0e
	00 00		 movzx	 eax, BYTE PTR [rax+3659]
  0023d	85 c0		 test	 eax, eax
  0023f	74 13		 je	 SHORT $LN14@z900_maddr

; 390  :         {
; 391  :             regs->txf_NTSTG = false;

  00241	48 8b 44 24 78	 mov	 rax, QWORD PTR regs$[rsp]
  00246	c6 80 4b 0e 00
	00 00		 mov	 BYTE PTR [rax+3659], 0

; 392  :             return maddr;

  0024d	48 8b 44 24 40	 mov	 rax, QWORD PTR maddr$[rsp]
  00252	eb 38		 jmp	 SHORT $LN1@z900_maddr
$LN14@z900_maddr:

; 393  :         }
; 394  : 
; 395  :         /* Translate to alternate TXF address */
; 396  :         maddr = TXF_MADDRL( addr, len, arn, regs, acctype, maddr );

  00254	48 8b 44 24 40	 mov	 rax, QWORD PTR maddr$[rsp]
  00259	48 89 44 24 28	 mov	 QWORD PTR [rsp+40], rax
  0025e	8b 84 24 80 00
	00 00		 mov	 eax, DWORD PTR acctype$[rsp]
  00265	89 44 24 20	 mov	 DWORD PTR [rsp+32], eax
  00269	4c 8b 4c 24 78	 mov	 r9, QWORD PTR regs$[rsp]
  0026e	44 8b 44 24 70	 mov	 r8d, DWORD PTR arn$[rsp]
  00273	48 8b 54 24 68	 mov	 rdx, QWORD PTR len$[rsp]
  00278	48 8b 4c 24 60	 mov	 rcx, QWORD PTR addr$[rsp]
  0027d	e8 00 00 00 00	 call	 txf_maddr_l
  00282	48 89 44 24 40	 mov	 QWORD PTR maddr$[rsp], rax
$LN11@z900_maddr:

; 397  :     }
; 398  : #endif
; 399  : 
; 400  :     return maddr;

  00287	48 8b 44 24 40	 mov	 rax, QWORD PTR maddr$[rsp]
$LN1@z900_maddr:

; 401  : }

  0028c	48 83 c4 58	 add	 rsp, 88			; 00000058H
  00290	c3		 ret	 0
z900_maddr_l ENDP
_TEXT	ENDS
; Function compile flags: /Odtp
; File C:\papa\MyGit\hyperion-zvector\inline.h
;	COMDAT z900_per3_zero_xcheck
_TEXT	SEGMENT
tv79 = 32
regs$ = 64
b1$ = 72
z900_per3_zero_xcheck PROC				; COMDAT

; 754  : {

$LN6:
  00000	89 54 24 10	 mov	 DWORD PTR [rsp+16], edx
  00004	48 89 4c 24 08	 mov	 QWORD PTR [rsp+8], rcx
  00009	48 83 ec 38	 sub	 rsp, 56			; 00000038H

; 755  : #if defined( FEATURE_PER_ZERO_ADDRESS_DETECTION_FACILITY )
; 756  :     if (b1 && GR_A( b1, regs ) == 0)

  0000d	83 7c 24 48 00	 cmp	 DWORD PTR b1$[rsp], 0
  00012	74 53		 je	 SHORT $LN2@z900_per3_
  00014	48 8b 44 24 40	 mov	 rax, QWORD PTR regs$[rsp]
  00019	8b 80 80 00 00
	00		 mov	 eax, DWORD PTR [rax+128]
  0001f	83 e0 01	 and	 eax, 1
  00022	85 c0		 test	 eax, eax
  00024	74 19		 je	 SHORT $LN4@z900_per3_
  00026	48 63 44 24 48	 movsxd	 rax, DWORD PTR b1$[rsp]
  0002b	48 8b 4c 24 40	 mov	 rcx, QWORD PTR regs$[rsp]
  00030	48 8b 84 c1 80
	02 00 00	 mov	 rax, QWORD PTR [rcx+rax*8+640]
  00038	48 89 44 24 20	 mov	 QWORD PTR tv79[rsp], rax
  0003d	eb 16		 jmp	 SHORT $LN5@z900_per3_
$LN4@z900_per3_:
  0003f	48 63 44 24 48	 movsxd	 rax, DWORD PTR b1$[rsp]
  00044	48 8b 4c 24 40	 mov	 rcx, QWORD PTR regs$[rsp]
  00049	8b 84 c1 80 02
	00 00		 mov	 eax, DWORD PTR [rcx+rax*8+640]
  00050	48 89 44 24 20	 mov	 QWORD PTR tv79[rsp], rax
$LN5@z900_per3_:
  00055	48 83 7c 24 20
	00		 cmp	 QWORD PTR tv79[rsp], 0
  0005b	75 0a		 jne	 SHORT $LN2@z900_per3_

; 757  :         ARCH_DEP( per3_zero )( regs );

  0005d	48 8b 4c 24 40	 mov	 rcx, QWORD PTR regs$[rsp]
  00062	e8 00 00 00 00	 call	 z900_per3_zero
$LN2@z900_per3_:

; 758  : #else
; 759  :     UNREFERENCED( regs );
; 760  :     UNREFERENCED( b1 );
; 761  : #endif
; 762  : }

  00067	48 83 c4 38	 add	 rsp, 56			; 00000038H
  0006b	c3		 ret	 0
z900_per3_zero_xcheck ENDP
_TEXT	ENDS
; Function compile flags: /Odtp
; File C:\papa\MyGit\hyperion-zvector\inline.h
;	COMDAT z900_per3_zero
_TEXT	SEGMENT
tv75 = 32
regs$ = 64
z900_per3_zero PROC					; COMDAT

; 602  : {

$LN12:
  00000	48 89 4c 24 08	 mov	 QWORD PTR [rsp+8], rcx
  00005	48 83 ec 38	 sub	 rsp, 56			; 00000038H

; 603  : #if defined( FEATURE_PER_ZERO_ADDRESS_DETECTION_FACILITY )
; 604  :     if (1
; 605  :         && EN_IC_PER_ZEROADDR( regs )
; 606  :         && !IS_PER_SUPRESS( regs, CR9_ZEROADDR )

  00009	33 c0		 xor	 eax, eax
  0000b	83 f8 01	 cmp	 eax, 1
  0000e	0f 84 be 00 00
	00		 je	 $LN5@z900_per3_
  00014	48 8b 44 24 40	 mov	 rax, QWORD PTR regs$[rsp]
  00019	8b 80 28 07 00
	00		 mov	 eax, DWORD PTR [rax+1832]
  0001f	c1 e8 02	 shr	 eax, 2
  00022	83 e0 01	 and	 eax, 1
  00025	85 c0		 test	 eax, eax
  00027	74 0a		 je	 SHORT $LN10@z900_per3_
  00029	c7 44 24 20 01
	00 00 00	 mov	 DWORD PTR tv75[rsp], 1
  00031	eb 08		 jmp	 SHORT $LN11@z900_per3_
$LN10@z900_per3_:
  00033	c7 44 24 20 00
	00 00 00	 mov	 DWORD PTR tv75[rsp], 0
$LN11@z900_per3_:
  0003b	83 7c 24 20 00	 cmp	 DWORD PTR tv75[rsp], 0
  00040	0f 84 8c 00 00
	00		 je	 $LN5@z900_per3_
  00046	48 8b 44 24 40	 mov	 rax, QWORD PTR regs$[rsp]
  0004b	8b 40 48	 mov	 eax, DWORD PTR [rax+72]
  0004e	25 00 00 04 00	 and	 eax, 262144		; 00040000H
  00053	85 c0		 test	 eax, eax
  00055	74 7b		 je	 SHORT $LN5@z900_per3_
  00057	ba 00 00 00 04	 mov	 edx, 67108864		; 04000000H
  0005c	48 8b 4c 24 40	 mov	 rcx, QWORD PTR regs$[rsp]
  00061	e8 00 00 00 00	 call	 z900_is_per3_event_suppressed
  00066	0f b6 c0	 movzx	 eax, al
  00069	85 c0		 test	 eax, eax
  0006b	75 65		 jne	 SHORT $LN5@z900_per3_

; 607  :     )
; 608  :     {
; 609  :         regs->peradr = regs->periaddr;

  0006d	48 8b 44 24 40	 mov	 rax, QWORD PTR regs$[rsp]
  00072	48 8b 4c 24 40	 mov	 rcx, QWORD PTR regs$[rsp]
  00077	48 8b 89 e8 08
	00 00		 mov	 rcx, QWORD PTR [rcx+2280]
  0007e	48 89 88 d8 08
	00 00		 mov	 QWORD PTR [rax+2264], rcx
$LN4@z900_per3_:

; 610  :         ON_IC_PER_ZEROADDR( regs );

  00085	48 8b 44 24 40	 mov	 rax, QWORD PTR regs$[rsp]
  0008a	8b 40 4c	 mov	 eax, DWORD PTR [rax+76]
  0008d	0f ba e8 12	 bts	 eax, 18
  00091	48 8b 4c 24 40	 mov	 rcx, QWORD PTR regs$[rsp]
  00096	89 41 4c	 mov	 DWORD PTR [rcx+76], eax
  00099	33 c0		 xor	 eax, eax
  0009b	85 c0		 test	 eax, eax
  0009d	75 e6		 jne	 SHORT $LN4@z900_per3_

; 611  :         if (OPEN_IC_PER_ZEROADDR( regs ))

  0009f	48 8b 44 24 40	 mov	 rax, QWORD PTR regs$[rsp]
  000a4	48 8b 4c 24 40	 mov	 rcx, QWORD PTR regs$[rsp]
  000a9	8b 49 4c	 mov	 ecx, DWORD PTR [rcx+76]
  000ac	8b 40 48	 mov	 eax, DWORD PTR [rax+72]
  000af	23 c1		 and	 eax, ecx
  000b1	25 00 00 04 00	 and	 eax, 262144		; 00040000H
  000b6	85 c0		 test	 eax, eax
  000b8	74 18		 je	 SHORT $LN6@z900_per3_

; 612  :             RETURN_INTCHECK( regs );

  000ba	48 8b 44 24 40	 mov	 rax, QWORD PTR regs$[rsp]
  000bf	48 05 80 09 00
	00		 add	 rax, 2432		; 00000980H
  000c5	ba ff ff ff ff	 mov	 edx, -1
  000ca	48 8b c8	 mov	 rcx, rax
  000cd	e8 00 00 00 00	 call	 longjmp
$LN6@z900_per3_:
$LN5@z900_per3_:
$LN7@z900_per3_:

; 613  :     }
; 614  : #else
; 615  :     UNREFERENCED( regs );
; 616  : #endif
; 617  : }

  000d2	48 83 c4 38	 add	 rsp, 56			; 00000038H
  000d6	c3		 ret	 0
z900_per3_zero ENDP
_TEXT	ENDS
; Function compile flags: /Odtp
; File C:\papa\MyGit\hyperion-zvector\inline.h
;	COMDAT z900_is_per3_event_suppressed
_TEXT	SEGMENT
regs$ = 8
cr9_per_event$ = 16
z900_is_per3_event_suppressed PROC			; COMDAT

; 566  : {

  00000	89 54 24 10	 mov	 DWORD PTR [rsp+16], edx
  00004	48 89 4c 24 08	 mov	 QWORD PTR [rsp+8], rcx

; 567  : #if !defined( FEATURE_PER3 )
; 568  :     UNREFERENCED( regs );
; 569  :     UNREFERENCED( cr9_per_event );
; 570  : #else
; 571  :     /* DON'T suppress this event if Event Suppression isn't enabled */
; 572  :     if (!(regs->CR_L(9) & CR9_SUPPRESS))

  00009	b8 08 00 00 00	 mov	 eax, 8
  0000e	48 6b c0 0a	 imul	 rax, rax, 10
  00012	48 8b 4c 24 08	 mov	 rcx, QWORD PTR regs$[rsp]
  00017	8b 84 01 00 06
	00 00		 mov	 eax, DWORD PTR [rcx+rax+1536]
  0001e	25 00 00 40 00	 and	 eax, 4194304		; 00400000H
  00023	85 c0		 test	 eax, eax
  00025	75 04		 jne	 SHORT $LN2@z900_is_pe

; 573  :         return false;

  00027	32 c0		 xor	 al, al
  00029	eb 78		 jmp	 SHORT $LN1@z900_is_pe
$LN2@z900_is_pe:

; 574  : 
; 575  :     /* Is this PER event one that is ALLOWED to be suppressed? */
; 576  :     if (cr9_per_event & CR9_SUPPRESSABLE)

  0002b	8b 44 24 10	 mov	 eax, DWORD PTR cr9_per_event$[rsp]
  0002f	25 00 00 00 ed	 and	 eax, -318767104		; ed000000H
  00034	85 c0		 test	 eax, eax
  00036	74 69		 je	 SHORT $LN3@z900_is_pe

; 577  :     {
; 578  :         /* Is there an active transaction? */
; 579  :         if (regs->txf_tnd)

  00038	48 8b 44 24 08	 mov	 rax, QWORD PTR regs$[rsp]
  0003d	0f b6 80 58 0e
	00 00		 movzx	 eax, BYTE PTR [rax+3672]
  00044	85 c0		 test	 eax, eax
  00046	74 04		 je	 SHORT $LN4@z900_is_pe

; 580  :             return true;        /* Yes, then suppress it! */

  00048	b0 01		 mov	 al, 1
  0004a	eb 57		 jmp	 SHORT $LN1@z900_is_pe
$LN4@z900_is_pe:

; 581  : 
; 582  :         /* Suppress instruction-fetch events for TBEGIN/TBEGINC */
; 583  :         if (1
; 584  :             && cr9_per_event & CR9_IF
; 585  :             && *(regs->ip+0) == 0xE5
; 586  :             && (0

  0004c	33 c0		 xor	 eax, eax
  0004e	83 f8 01	 cmp	 eax, 1
  00051	74 4e		 je	 SHORT $LN5@z900_is_pe
  00053	8b 44 24 10	 mov	 eax, DWORD PTR cr9_per_event$[rsp]
  00057	25 00 00 00 40	 and	 eax, 1073741824		; 40000000H
  0005c	85 c0		 test	 eax, eax
  0005e	74 41		 je	 SHORT $LN5@z900_is_pe
  00060	48 8b 44 24 08	 mov	 rax, QWORD PTR regs$[rsp]
  00065	48 8b 40 68	 mov	 rax, QWORD PTR [rax+104]
  00069	0f b6 00	 movzx	 eax, BYTE PTR [rax]
  0006c	3d e5 00 00 00	 cmp	 eax, 229		; 000000e5H
  00071	75 2e		 jne	 SHORT $LN5@z900_is_pe
  00073	33 c0		 xor	 eax, eax
  00075	85 c0		 test	 eax, eax
  00077	75 24		 jne	 SHORT $LN6@z900_is_pe
  00079	48 8b 44 24 08	 mov	 rax, QWORD PTR regs$[rsp]
  0007e	48 8b 40 68	 mov	 rax, QWORD PTR [rax+104]
  00082	0f b6 40 01	 movzx	 eax, BYTE PTR [rax+1]
  00086	83 f8 60	 cmp	 eax, 96			; 00000060H
  00089	74 12		 je	 SHORT $LN6@z900_is_pe
  0008b	48 8b 44 24 08	 mov	 rax, QWORD PTR regs$[rsp]
  00090	48 8b 40 68	 mov	 rax, QWORD PTR [rax+104]
  00094	0f b6 40 01	 movzx	 eax, BYTE PTR [rax+1]
  00098	83 f8 61	 cmp	 eax, 97			; 00000061H
  0009b	75 04		 jne	 SHORT $LN5@z900_is_pe
$LN6@z900_is_pe:

; 587  :                 || *(regs->ip+1) == 0x60
; 588  :                 || *(regs->ip+1) == 0x61
; 589  :                )
; 590  :         )
; 591  :             return true;        /* TBEGIN/TBEGINC: suppress it! */

  0009d	b0 01		 mov	 al, 1
  0009f	eb 02		 jmp	 SHORT $LN1@z900_is_pe
$LN5@z900_is_pe:
$LN3@z900_is_pe:

; 592  :     }
; 593  : #endif
; 594  :     /* Otherwise DON'T suppress this PER event */
; 595  :     return false;

  000a1	32 c0		 xor	 al, al
$LN1@z900_is_pe:

; 596  : }

  000a3	c3		 ret	 0
z900_is_per3_event_suppressed ENDP
_TEXT	ENDS
; Function compile flags: /Odtp
; File C:\papa\MyGit\hyperion-zvector\skey.h
;	COMDAT z900_get_ptr_to_storekey
_TEXT	SEGMENT
abs$ = 48
z900_get_ptr_to_storekey PROC				; COMDAT

; 308  : {

$LN3:
  00000	48 89 4c 24 08	 mov	 QWORD PTR [rsp+8], rcx
  00005	48 83 ec 28	 sub	 rsp, 40			; 00000028H

; 309  : #if defined( FEATURE_2K_STORAGE_KEYS )
; 310  :     return ARCH_DEP( get_ptr_to_2K_storekey )( abs );
; 311  : #else
; 312  :     return ARCH_DEP( get_ptr_to_4K_storekey )( abs );

  00009	48 8b 4c 24 30	 mov	 rcx, QWORD PTR abs$[rsp]
  0000e	e8 00 00 00 00	 call	 z900_get_ptr_to_4K_storekey

; 313  : #endif
; 314  : }

  00013	48 83 c4 28	 add	 rsp, 40			; 00000028H
  00017	c3		 ret	 0
z900_get_ptr_to_storekey ENDP
_TEXT	ENDS
; Function compile flags: /Odtp
; File C:\papa\MyGit\hyperion-zvector\skey.h
;	COMDAT z900_or_4K_storage_key
_TEXT	SEGMENT
abs$ = 48
bits$ = 56
z900_or_4K_storage_key PROC				; COMDAT

; 242  :   inline void  ARCH_DEP( or_4K_storage_key )      (              U64 abs, BYTE bits ) {        ARCH_DEP( _or_storage_key      )(      abs, bits & ~STORKEY_BADFRM, 4 ); }

$LN3:
  00000	88 54 24 10	 mov	 BYTE PTR [rsp+16], dl
  00004	48 89 4c 24 08	 mov	 QWORD PTR [rsp+8], rcx
  00009	48 83 ec 28	 sub	 rsp, 40			; 00000028H
  0000d	0f b6 44 24 38	 movzx	 eax, BYTE PTR bits$[rsp]
  00012	83 e0 fe	 and	 eax, -2
  00015	41 b0 04	 mov	 r8b, 4
  00018	0f b6 d0	 movzx	 edx, al
  0001b	48 8b 4c 24 30	 mov	 rcx, QWORD PTR abs$[rsp]
  00020	e8 00 00 00 00	 call	 z900__or_storage_key
  00025	48 83 c4 28	 add	 rsp, 40			; 00000028H
  00029	c3		 ret	 0
z900_or_4K_storage_key ENDP
_TEXT	ENDS
; Function compile flags: /Odtp
; File C:\papa\MyGit\hyperion-zvector\skey.h
;	COMDAT z900_get_ptr_to_4K_storekey
_TEXT	SEGMENT
abs$ = 48
z900_get_ptr_to_4K_storekey PROC			; COMDAT

; 238  :   inline BYTE* ARCH_DEP( get_ptr_to_4K_storekey ) (              U64 abs            ) { return           _get_storekey_ptr     (      abs, 4 );                         }

$LN3:
  00000	48 89 4c 24 08	 mov	 QWORD PTR [rsp+8], rcx
  00005	48 83 ec 28	 sub	 rsp, 40			; 00000028H
  00009	b2 04		 mov	 dl, 4
  0000b	48 8b 4c 24 30	 mov	 rcx, QWORD PTR abs$[rsp]
  00010	e8 00 00 00 00	 call	 _get_storekey_ptr
  00015	48 83 c4 28	 add	 rsp, 40			; 00000028H
  00019	c3		 ret	 0
z900_get_ptr_to_4K_storekey ENDP
_TEXT	ENDS
; Function compile flags: /Odtp
; File C:\papa\MyGit\hyperion-zvector\skey.h
;	COMDAT z900__or_storage_key
_TEXT	SEGMENT
skey1_ptr$1 = 32
skey2_ptr$2 = 40
skey_ptr$3 = 48
abs$ = 80
bits$ = 88
K$ = 96
z900__or_storage_key PROC				; COMDAT

; 189  : {

$LN8:
  00000	44 88 44 24 18	 mov	 BYTE PTR [rsp+24], r8b
  00005	88 54 24 10	 mov	 BYTE PTR [rsp+16], dl
  00009	48 89 4c 24 08	 mov	 QWORD PTR [rsp+8], rcx
  0000e	48 83 ec 48	 sub	 rsp, 72			; 00000048H
$LN4@z900__or_s:

; 190  :     UNREFERENCED( K ); // (for FEATURE_4K_STORAGE_KEYS case)

  00012	33 c0		 xor	 eax, eax
  00014	85 c0		 test	 eax, eax
  00016	75 fa		 jne	 SHORT $LN4@z900__or_s

; 191  :     if (IS_DOUBLE_KEYED_4K_BYTE_BLOCK( K ))

  00018	33 c0		 xor	 eax, eax
  0001a	85 c0		 test	 eax, eax
  0001c	74 50		 je	 SHORT $LN5@z900__or_s

; 192  :     {
; 193  :         BYTE* skey1_ptr = _get_storekey1_ptr( abs );

  0001e	48 8b 4c 24 50	 mov	 rcx, QWORD PTR abs$[rsp]
  00023	e8 00 00 00 00	 call	 _get_storekey1_ptr
  00028	48 89 44 24 20	 mov	 QWORD PTR skey1_ptr$1[rsp], rax

; 194  :         BYTE* skey2_ptr = _get_storekey2_ptr( abs );

  0002d	48 8b 4c 24 50	 mov	 rcx, QWORD PTR abs$[rsp]
  00032	e8 00 00 00 00	 call	 _get_storekey2_ptr
  00037	48 89 44 24 28	 mov	 QWORD PTR skey2_ptr$2[rsp], rax

; 195  :         OR_SKEY( skey1_ptr, bits );

  0003c	0f b6 44 24 58	 movzx	 eax, BYTE PTR bits$[rsp]
  00041	48 8b 4c 24 20	 mov	 rcx, QWORD PTR skey1_ptr$1[rsp]
  00046	0f b6 09	 movzx	 ecx, BYTE PTR [rcx]
  00049	0b c8		 or	 ecx, eax
  0004b	8b c1		 mov	 eax, ecx
  0004d	48 8b 4c 24 20	 mov	 rcx, QWORD PTR skey1_ptr$1[rsp]
  00052	88 01		 mov	 BYTE PTR [rcx], al

; 196  :         OR_SKEY( skey2_ptr, bits );

  00054	0f b6 44 24 58	 movzx	 eax, BYTE PTR bits$[rsp]
  00059	48 8b 4c 24 28	 mov	 rcx, QWORD PTR skey2_ptr$2[rsp]
  0005e	0f b6 09	 movzx	 ecx, BYTE PTR [rcx]
  00061	0b c8		 or	 ecx, eax
  00063	8b c1		 mov	 eax, ecx
  00065	48 8b 4c 24 28	 mov	 rcx, QWORD PTR skey2_ptr$2[rsp]
  0006a	88 01		 mov	 BYTE PTR [rcx], al

; 197  :     }

  0006c	eb 2c		 jmp	 SHORT $LN6@z900__or_s
$LN5@z900__or_s:

; 198  :     else
; 199  :     {
; 200  :         BYTE* skey_ptr  = _get_storekey_ptr( abs, K );

  0006e	0f b6 54 24 60	 movzx	 edx, BYTE PTR K$[rsp]
  00073	48 8b 4c 24 50	 mov	 rcx, QWORD PTR abs$[rsp]
  00078	e8 00 00 00 00	 call	 _get_storekey_ptr
  0007d	48 89 44 24 30	 mov	 QWORD PTR skey_ptr$3[rsp], rax

; 201  :         OR_SKEY( skey_ptr, bits );

  00082	0f b6 44 24 58	 movzx	 eax, BYTE PTR bits$[rsp]
  00087	48 8b 4c 24 30	 mov	 rcx, QWORD PTR skey_ptr$3[rsp]
  0008c	0f b6 09	 movzx	 ecx, BYTE PTR [rcx]
  0008f	0b c8		 or	 ecx, eax
  00091	8b c1		 mov	 eax, ecx
  00093	48 8b 4c 24 30	 mov	 rcx, QWORD PTR skey_ptr$3[rsp]
  00098	88 01		 mov	 BYTE PTR [rcx], al
$LN6@z900__or_s:

; 202  :     }
; 203  : }

  0009a	48 83 c4 48	 add	 rsp, 72			; 00000048H
  0009e	c3		 ret	 0
z900__or_storage_key ENDP
_TEXT	ENDS
; Function compile flags: /Odtp
; File C:\papa\MyGit\hyperion-zvector\sie.c
_TEXT	SEGMENT
temp$1 = 32
r2$ = 36
r1$ = 40
m3$ = 44
inst$ = 64
regs$ = 72
z900_extract_and_set_storage_attributes PROC

; 2032 : {

$LN11:
  00000	48 89 54 24 10	 mov	 QWORD PTR [rsp+16], rdx
  00005	48 89 4c 24 08	 mov	 QWORD PTR [rsp+8], rcx
  0000a	48 83 ec 38	 sub	 rsp, 56			; 00000038H

; 2033 :     int r1, r2, m3;
; 2034 :     RRF_M( inst, regs, r1, r2, m3 );

  0000e	48 8b 4c 24 40	 mov	 rcx, QWORD PTR inst$[rsp]
  00013	e8 00 00 00 00	 call	 fetch_fw_noswap
  00018	8b c8		 mov	 ecx, eax
  0001a	e8 00 00 00 00	 call	 _byteswap_ulong
  0001f	89 44 24 20	 mov	 DWORD PTR temp$1[rsp], eax
  00023	8b 44 24 20	 mov	 eax, DWORD PTR temp$1[rsp]
  00027	83 e0 0f	 and	 eax, 15
  0002a	89 44 24 24	 mov	 DWORD PTR r2$[rsp], eax
  0002e	8b 44 24 20	 mov	 eax, DWORD PTR temp$1[rsp]
  00032	c1 e8 04	 shr	 eax, 4
  00035	83 e0 0f	 and	 eax, 15
  00038	89 44 24 28	 mov	 DWORD PTR r1$[rsp], eax
  0003c	8b 44 24 20	 mov	 eax, DWORD PTR temp$1[rsp]
  00040	c1 e8 0c	 shr	 eax, 12
  00043	83 e0 0f	 and	 eax, 15
  00046	89 44 24 2c	 mov	 DWORD PTR m3$[rsp], eax
$LN4@z900_extra:
  0004a	48 8b 44 24 48	 mov	 rax, QWORD PTR regs$[rsp]
  0004f	48 8b 40 68	 mov	 rax, QWORD PTR [rax+104]
  00053	48 83 c0 04	 add	 rax, 4
  00057	48 8b 4c 24 48	 mov	 rcx, QWORD PTR regs$[rsp]
  0005c	48 89 41 68	 mov	 QWORD PTR [rcx+104], rax
  00060	33 c0		 xor	 eax, eax
  00062	83 f8 04	 cmp	 eax, 4
  00065	74 0c		 je	 SHORT $LN8@z900_extra
  00067	48 8b 44 24 48	 mov	 rax, QWORD PTR regs$[rsp]
  0006c	c6 80 9a 00 00
	00 04		 mov	 BYTE PTR [rax+154], 4
$LN8@z900_extra:
  00073	33 c0		 xor	 eax, eax
  00075	85 c0		 test	 eax, eax
  00077	75 d1		 jne	 SHORT $LN4@z900_extra
$LN7@z900_extra:

; 2035 :     SIE_INTERCEPT( regs );

  00079	48 8b 44 24 48	 mov	 rax, QWORD PTR regs$[rsp]
  0007e	8b 80 c8 08 00
	00		 mov	 eax, DWORD PTR [rax+2248]
  00084	d1 e8		 shr	 eax, 1
  00086	83 e0 01	 and	 eax, 1
  00089	85 c0		 test	 eax, eax
  0008b	74 18		 je	 SHORT $LN9@z900_extra
  0008d	48 8b 44 24 48	 mov	 rax, QWORD PTR regs$[rsp]
  00092	48 05 80 09 00
	00		 add	 rax, 2432		; 00000980H
  00098	ba fc ff ff ff	 mov	 edx, -4
  0009d	48 8b c8	 mov	 rcx, rax
  000a0	e8 00 00 00 00	 call	 longjmp
$LN9@z900_extra:
  000a5	33 c0		 xor	 eax, eax
  000a7	85 c0		 test	 eax, eax
  000a9	75 ce		 jne	 SHORT $LN7@z900_extra

; 2036 :     ARCH_DEP( program_interrupt )( regs, PGM_OPERATION_EXCEPTION );

  000ab	ba 01 00 00 00	 mov	 edx, 1
  000b0	48 8b 4c 24 48	 mov	 rcx, QWORD PTR regs$[rsp]
  000b5	e8 00 00 00 00	 call	 z900_program_interrupt
$LN10@z900_extra:

; 2037 : }

  000ba	48 83 c4 38	 add	 rsp, 56			; 00000038H
  000be	c3		 ret	 0
z900_extract_and_set_storage_attributes ENDP
_TEXT	ENDS
; Function compile flags: /Odtp
; File C:\papa\MyGit\hyperion-zvector\sie.c
_TEXT	SEGMENT
zone$ = 64
temp$1 = 68
b2$ = 72
effective_addr2$ = 80
mso$ = 88
msl$ = 96
eso$ = 104
esl$ = 112
zpb$ = 120
__$ArrayPad$ = 152
inst$ = 176
regs$ = 184
z900_set_zone_parameter PROC

; 1808 : {

$LN30:
  00000	48 89 54 24 10	 mov	 QWORD PTR [rsp+16], rdx
  00005	48 89 4c 24 08	 mov	 QWORD PTR [rsp+8], rcx
  0000a	48 81 ec a8 00
	00 00		 sub	 rsp, 168		; 000000a8H
  00011	48 8b 05 00 00
	00 00		 mov	 rax, QWORD PTR __security_cookie
  00018	48 33 c4	 xor	 rax, rsp
  0001b	48 89 84 24 98
	00 00 00	 mov	 QWORD PTR __$ArrayPad$[rsp], rax

; 1809 : int     b2;                             /* Values of R fields        */
; 1810 : RADR    effective_addr2;                /* address of state desc.    */
; 1811 : ZPB     zpb;                            /* Zone Parameter Block      */
; 1812 : int     zone;                           /* Zone number               */
; 1813 : RADR    mso,                            /* Main Storage Origin       */
; 1814 :         msl,                            /* Main Storage Length       */
; 1815 :         eso,                            /* Expanded Storage Origin   */
; 1816 :         esl;                            /* Expanded Storage Length   */
; 1817 : 
; 1818 :     S(inst, regs, b2, effective_addr2);

  00023	48 8b 8c 24 b0
	00 00 00	 mov	 rcx, QWORD PTR inst$[rsp]
  0002b	e8 00 00 00 00	 call	 fetch_fw_noswap
  00030	8b c8		 mov	 ecx, eax
  00032	e8 00 00 00 00	 call	 _byteswap_ulong
  00037	89 44 24 44	 mov	 DWORD PTR temp$1[rsp], eax
  0003b	8b 44 24 44	 mov	 eax, DWORD PTR temp$1[rsp]
  0003f	25 ff 0f 00 00	 and	 eax, 4095		; 00000fffH
  00044	8b c0		 mov	 eax, eax
  00046	48 89 44 24 50	 mov	 QWORD PTR effective_addr2$[rsp], rax
  0004b	8b 44 24 44	 mov	 eax, DWORD PTR temp$1[rsp]
  0004f	c1 e8 0c	 shr	 eax, 12
  00052	83 e0 0f	 and	 eax, 15
  00055	89 44 24 48	 mov	 DWORD PTR b2$[rsp], eax
  00059	83 7c 24 48 00	 cmp	 DWORD PTR b2$[rsp], 0
  0005e	74 44		 je	 SHORT $LN17@z900_set_z
  00060	48 63 44 24 48	 movsxd	 rax, DWORD PTR b2$[rsp]
  00065	48 8b 8c 24 b8
	00 00 00	 mov	 rcx, QWORD PTR regs$[rsp]
  0006d	48 8b 84 c1 80
	02 00 00	 mov	 rax, QWORD PTR [rcx+rax*8+640]
  00075	48 8b 4c 24 50	 mov	 rcx, QWORD PTR effective_addr2$[rsp]
  0007a	48 03 c8	 add	 rcx, rax
  0007d	48 8b c1	 mov	 rax, rcx
  00080	48 89 44 24 50	 mov	 QWORD PTR effective_addr2$[rsp], rax
  00085	48 8b 84 24 b8
	00 00 00	 mov	 rax, QWORD PTR regs$[rsp]
  0008d	48 8b 80 90 00
	00 00		 mov	 rax, QWORD PTR [rax+144]
  00094	48 8b 4c 24 50	 mov	 rcx, QWORD PTR effective_addr2$[rsp]
  00099	48 23 c8	 and	 rcx, rax
  0009c	48 8b c1	 mov	 rax, rcx
  0009f	48 89 44 24 50	 mov	 QWORD PTR effective_addr2$[rsp], rax
$LN17@z900_set_z:
$LN4@z900_set_z:
  000a4	48 8b 84 24 b8
	00 00 00	 mov	 rax, QWORD PTR regs$[rsp]
  000ac	48 8b 40 68	 mov	 rax, QWORD PTR [rax+104]
  000b0	48 83 c0 04	 add	 rax, 4
  000b4	48 8b 8c 24 b8
	00 00 00	 mov	 rcx, QWORD PTR regs$[rsp]
  000bc	48 89 41 68	 mov	 QWORD PTR [rcx+104], rax
  000c0	33 c0		 xor	 eax, eax
  000c2	83 f8 04	 cmp	 eax, 4
  000c5	74 0f		 je	 SHORT $LN18@z900_set_z
  000c7	48 8b 84 24 b8
	00 00 00	 mov	 rax, QWORD PTR regs$[rsp]
  000cf	c6 80 9a 00 00
	00 04		 mov	 BYTE PTR [rax+154], 4
$LN18@z900_set_z:
  000d6	33 c0		 xor	 eax, eax
  000d8	85 c0		 test	 eax, eax
  000da	75 c8		 jne	 SHORT $LN4@z900_set_z
$LN7@z900_set_z:

; 1819 : 
; 1820 :     TXF_INSTR_CHECK( regs );

  000dc	48 8b 84 24 b8
	00 00 00	 mov	 rax, QWORD PTR regs$[rsp]
  000e4	0f b6 80 58 0e
	00 00		 movzx	 eax, BYTE PTR [rax+3672]
  000eb	85 c0		 test	 eax, eax
  000ed	74 3f		 je	 SHORT $LN19@z900_set_z
  000ef	48 8b 84 24 b8
	00 00 00	 mov	 rax, QWORD PTR regs$[rsp]
  000f7	8b 80 84 af 00
	00		 mov	 eax, DWORD PTR [rax+44932]
  000fd	0f ba e8 0c	 bts	 eax, 12
  00101	48 8b 8c 24 b8
	00 00 00	 mov	 rcx, QWORD PTR regs$[rsp]
  00109	89 81 84 af 00
	00		 mov	 DWORD PTR [rcx+44932], eax
  0010f	4c 8d 0d 00 00
	00 00		 lea	 r9, OFFSET FLAT:$SG195884
  00116	41 b8 0b 00 00
	00		 mov	 r8d, 11
  0011c	ba 02 00 00 00	 mov	 edx, 2
  00121	48 8b 8c 24 b8
	00 00 00	 mov	 rcx, QWORD PTR regs$[rsp]
  00129	e8 00 00 00 00	 call	 z900_abort_transaction
$LN19@z900_set_z:
  0012e	33 c0		 xor	 eax, eax
  00130	85 c0		 test	 eax, eax
  00132	75 a8		 jne	 SHORT $LN7@z900_set_z

; 1821 :     PRIV_CHECK(regs);

  00134	48 8b 84 24 b8
	00 00 00	 mov	 rax, QWORD PTR regs$[rsp]
  0013c	0f b6 40 7a	 movzx	 eax, BYTE PTR [rax+122]
  00140	83 e0 01	 and	 eax, 1
  00143	85 c0		 test	 eax, eax
  00145	74 1b		 je	 SHORT $LN20@z900_set_z
  00147	ba 02 00 00 00	 mov	 edx, 2
  0014c	48 8b 8c 24 b8
	00 00 00	 mov	 rcx, QWORD PTR regs$[rsp]
  00154	48 8b 84 24 b8
	00 00 00	 mov	 rax, QWORD PTR regs$[rsp]
  0015c	ff 90 20 0d 00
	00		 call	 QWORD PTR [rax+3360]
$LN20@z900_set_z:
$LN10@z900_set_z:

; 1822 : 
; 1823 :     SIE_INTERCEPT(regs);

  00162	48 8b 84 24 b8
	00 00 00	 mov	 rax, QWORD PTR regs$[rsp]
  0016a	8b 80 c8 08 00
	00		 mov	 eax, DWORD PTR [rax+2248]
  00170	d1 e8		 shr	 eax, 1
  00172	83 e0 01	 and	 eax, 1
  00175	85 c0		 test	 eax, eax
  00177	74 1b		 je	 SHORT $LN21@z900_set_z
  00179	48 8b 84 24 b8
	00 00 00	 mov	 rax, QWORD PTR regs$[rsp]
  00181	48 05 80 09 00
	00		 add	 rax, 2432		; 00000980H
  00187	ba fc ff ff ff	 mov	 edx, -4
  0018c	48 8b c8	 mov	 rcx, rax
  0018f	e8 00 00 00 00	 call	 longjmp
$LN21@z900_set_z:
  00194	33 c0		 xor	 eax, eax
  00196	85 c0		 test	 eax, eax
  00198	75 c8		 jne	 SHORT $LN10@z900_set_z
$LN13@z900_set_z:

; 1824 : 
; 1825 :     PTT_IO("SZP", regs->GR_L(1), regs->GR_L(2),regs->psw.IA_L);

  0019a	48 8b 05 00 00
	00 00		 mov	 rax, QWORD PTR __imp_pttclass
  001a1	48 8b 00	 mov	 rax, QWORD PTR [rax]
  001a4	48 25 00 02 00
	00		 and	 rax, 512		; 00000200H
  001aa	48 85 c0	 test	 rax, rax
  001ad	74 71		 je	 SHORT $LN22@z900_set_z
  001af	48 8b 84 24 b8
	00 00 00	 mov	 rax, QWORD PTR regs$[rsp]
  001b7	8b 80 88 00 00
	00		 mov	 eax, DWORD PTR [rax+136]
  001bd	b9 08 00 00 00	 mov	 ecx, 8
  001c2	48 6b c9 02	 imul	 rcx, rcx, 2
  001c6	48 8b 94 24 b8
	00 00 00	 mov	 rdx, QWORD PTR regs$[rsp]
  001ce	8b 8c 0a 80 02
	00 00		 mov	 ecx, DWORD PTR [rdx+rcx+640]
  001d5	ba 08 00 00 00	 mov	 edx, 8
  001da	48 6b d2 01	 imul	 rdx, rdx, 1
  001de	4c 8b 84 24 b8
	00 00 00	 mov	 r8, QWORD PTR regs$[rsp]
  001e6	41 8b 94 10 80
	02 00 00	 mov	 edx, DWORD PTR [r8+rdx+640]
  001ee	48 c7 44 24 30
	00 00 00 00	 mov	 QWORD PTR [rsp+48], 0
  001f7	48 89 44 24 28	 mov	 QWORD PTR [rsp+40], rax
  001fc	48 8d 05 00 00
	00 00		 lea	 rax, OFFSET FLAT:$SG195888
  00203	48 89 44 24 20	 mov	 QWORD PTR [rsp+32], rax
  00208	44 8b c9	 mov	 r9d, ecx
  0020b	44 8b c2	 mov	 r8d, edx
  0020e	48 8d 15 00 00
	00 00		 lea	 rdx, OFFSET FLAT:$SG195889
  00215	b9 00 02 00 00	 mov	 ecx, 512		; 00000200H
  0021a	ff 15 00 00 00
	00		 call	 QWORD PTR __imp_ptt_pthread_trace
$LN22@z900_set_z:
  00220	33 c0		 xor	 eax, eax
  00222	85 c0		 test	 eax, eax
  00224	0f 85 70 ff ff
	ff		 jne	 $LN13@z900_set_z

; 1826 : 
; 1827 :     FW_CHECK(regs->GR(2), regs);

  0022a	b8 08 00 00 00	 mov	 eax, 8
  0022f	48 6b c0 02	 imul	 rax, rax, 2
  00233	48 8b 8c 24 b8
	00 00 00	 mov	 rcx, QWORD PTR regs$[rsp]
  0023b	48 8b 84 01 80
	02 00 00	 mov	 rax, QWORD PTR [rcx+rax+640]
  00243	48 83 e0 03	 and	 rax, 3
  00247	48 85 c0	 test	 rax, rax
  0024a	74 1b		 je	 SHORT $LN23@z900_set_z
  0024c	ba 06 00 00 00	 mov	 edx, 6
  00251	48 8b 8c 24 b8
	00 00 00	 mov	 rcx, QWORD PTR regs$[rsp]
  00259	48 8b 84 24 b8
	00 00 00	 mov	 rax, QWORD PTR regs$[rsp]
  00261	ff 90 20 0d 00
	00		 call	 QWORD PTR [rax+3360]
$LN23@z900_set_z:

; 1828 : 
; 1829 :     zone = regs->GR_LHLCL(1);

  00267	b8 08 00 00 00	 mov	 eax, 8
  0026c	48 6b c0 01	 imul	 rax, rax, 1
  00270	48 8b 8c 24 b8
	00 00 00	 mov	 rcx, QWORD PTR regs$[rsp]
  00278	0f b6 84 01 80
	02 00 00	 movzx	 eax, BYTE PTR [rcx+rax+640]
  00280	89 44 24 40	 mov	 DWORD PTR zone$[rsp], eax

; 1830 : 
; 1831 :     if(zone == 0 || zone >= FEATURE_SIE_MAXZONES)

  00284	83 7c 24 40 00	 cmp	 DWORD PTR zone$[rsp], 0
  00289	74 0b		 je	 SHORT $LN25@z900_set_z
  0028b	83 7c 24 40 08	 cmp	 DWORD PTR zone$[rsp], 8
  00290	0f 8c 9f 00 00
	00		 jl	 $LN24@z900_set_z
$LN25@z900_set_z:
$LN16@z900_set_z:

; 1832 :     {
; 1833 :         PTT_ERR("*SZP", regs->GR_L(1), regs->GR_L(2),regs->psw.IA_L);

  00296	48 8b 05 00 00
	00 00		 mov	 rax, QWORD PTR __imp_pttclass
  0029d	48 8b 00	 mov	 rax, QWORD PTR [rax]
  002a0	48 83 e0 10	 and	 rax, 16
  002a4	48 85 c0	 test	 rax, rax
  002a7	74 71		 je	 SHORT $LN26@z900_set_z
  002a9	48 8b 84 24 b8
	00 00 00	 mov	 rax, QWORD PTR regs$[rsp]
  002b1	8b 80 88 00 00
	00		 mov	 eax, DWORD PTR [rax+136]
  002b7	b9 08 00 00 00	 mov	 ecx, 8
  002bc	48 6b c9 02	 imul	 rcx, rcx, 2
  002c0	48 8b 94 24 b8
	00 00 00	 mov	 rdx, QWORD PTR regs$[rsp]
  002c8	8b 8c 0a 80 02
	00 00		 mov	 ecx, DWORD PTR [rdx+rcx+640]
  002cf	ba 08 00 00 00	 mov	 edx, 8
  002d4	48 6b d2 01	 imul	 rdx, rdx, 1
  002d8	4c 8b 84 24 b8
	00 00 00	 mov	 r8, QWORD PTR regs$[rsp]
  002e0	41 8b 94 10 80
	02 00 00	 mov	 edx, DWORD PTR [r8+rdx+640]
  002e8	48 c7 44 24 30
	00 00 00 00	 mov	 QWORD PTR [rsp+48], 0
  002f1	48 89 44 24 28	 mov	 QWORD PTR [rsp+40], rax
  002f6	48 8d 05 00 00
	00 00		 lea	 rax, OFFSET FLAT:$SG195894
  002fd	48 89 44 24 20	 mov	 QWORD PTR [rsp+32], rax
  00302	44 8b c9	 mov	 r9d, ecx
  00305	44 8b c2	 mov	 r8d, edx
  00308	48 8d 15 00 00
	00 00		 lea	 rdx, OFFSET FLAT:$SG195895
  0030f	b9 10 00 00 00	 mov	 ecx, 16
  00314	ff 15 00 00 00
	00		 call	 QWORD PTR __imp_ptt_pthread_trace
$LN26@z900_set_z:
  0031a	33 c0		 xor	 eax, eax
  0031c	85 c0		 test	 eax, eax
  0031e	0f 85 72 ff ff
	ff		 jne	 $LN16@z900_set_z

; 1834 :         regs->psw.cc = 3;

  00324	48 8b 84 24 b8
	00 00 00	 mov	 rax, QWORD PTR regs$[rsp]
  0032c	c6 40 7c 03	 mov	 BYTE PTR [rax+124], 3

; 1835 :         return;

  00330	e9 97 01 00 00	 jmp	 $LN1@z900_set_z
$LN24@z900_set_z:

; 1836 :     }
; 1837 : 
; 1838 :     ARCH_DEP(vfetchc(&zpb, sizeof(ZPB)-1,regs->GR(2), 2, regs));

  00335	b8 08 00 00 00	 mov	 eax, 8
  0033a	48 6b c0 02	 imul	 rax, rax, 2
  0033e	48 8b 8c 24 b8
	00 00 00	 mov	 rcx, QWORD PTR regs$[rsp]
  00346	48 89 4c 24 20	 mov	 QWORD PTR [rsp+32], rcx
  0034b	41 b9 02 00 00
	00		 mov	 r9d, 2
  00351	48 8b 8c 24 b8
	00 00 00	 mov	 rcx, QWORD PTR regs$[rsp]
  00359	4c 8b 84 01 80
	02 00 00	 mov	 r8, QWORD PTR [rcx+rax+640]
  00361	b2 1f		 mov	 dl, 31
  00363	48 8d 4c 24 78	 lea	 rcx, QWORD PTR zpb$[rsp]
  00368	e8 00 00 00 00	 call	 z900_vfetchc

; 1839 : 
; 1840 :     FETCH_W(mso,zpb.mso);

  0036d	48 8d 4c 24 78	 lea	 rcx, QWORD PTR zpb$[rsp]
  00372	e8 00 00 00 00	 call	 fetch_dw_noswap
  00377	48 8b c8	 mov	 rcx, rax
  0037a	e8 00 00 00 00	 call	 _byteswap_uint64
  0037f	48 89 44 24 58	 mov	 QWORD PTR mso$[rsp], rax

; 1841 :     FETCH_W(msl,zpb.msl);

  00384	48 8d 8c 24 80
	00 00 00	 lea	 rcx, QWORD PTR zpb$[rsp+8]
  0038c	e8 00 00 00 00	 call	 fetch_dw_noswap
  00391	48 8b c8	 mov	 rcx, rax
  00394	e8 00 00 00 00	 call	 _byteswap_uint64
  00399	48 89 44 24 60	 mov	 QWORD PTR msl$[rsp], rax

; 1842 :     FETCH_W(eso,zpb.eso);

  0039e	48 8d 8c 24 88
	00 00 00	 lea	 rcx, QWORD PTR zpb$[rsp+16]
  003a6	e8 00 00 00 00	 call	 fetch_dw_noswap
  003ab	48 8b c8	 mov	 rcx, rax
  003ae	e8 00 00 00 00	 call	 _byteswap_uint64
  003b3	48 89 44 24 68	 mov	 QWORD PTR eso$[rsp], rax

; 1843 :     FETCH_W(esl,zpb.esl);

  003b8	48 8d 8c 24 90
	00 00 00	 lea	 rcx, QWORD PTR zpb$[rsp+24]
  003c0	e8 00 00 00 00	 call	 fetch_dw_noswap
  003c5	48 8b c8	 mov	 rcx, rax
  003c8	e8 00 00 00 00	 call	 _byteswap_uint64
  003cd	48 89 44 24 70	 mov	 QWORD PTR esl$[rsp], rax

; 1844 : 
; 1845 : #if defined( FEATURE_001_ZARCH_INSTALLED_FACILITY )
; 1846 :     if(  (mso & ~ZPB2_MS_VALID)
; 1847 :       || (msl & ~ZPB2_MS_VALID)
; 1848 :       || (eso & ~ZPB2_ES_VALID)
; 1849 :       || (esl & ~ZPB2_ES_VALID) )

  003d2	48 b8 00 00 00
	00 00 f0 ff ff	 mov	 rax, -17592186044416	; fffff00000000000H
  003dc	48 8b 4c 24 58	 mov	 rcx, QWORD PTR mso$[rsp]
  003e1	48 23 c8	 and	 rcx, rax
  003e4	48 8b c1	 mov	 rax, rcx
  003e7	48 85 c0	 test	 rax, rax
  003ea	75 4e		 jne	 SHORT $LN28@z900_set_z
  003ec	48 b8 00 00 00
	00 00 f0 ff ff	 mov	 rax, -17592186044416	; fffff00000000000H
  003f6	48 8b 4c 24 60	 mov	 rcx, QWORD PTR msl$[rsp]
  003fb	48 23 c8	 and	 rcx, rax
  003fe	48 8b c1	 mov	 rax, rcx
  00401	48 85 c0	 test	 rax, rax
  00404	75 34		 jne	 SHORT $LN28@z900_set_z
  00406	48 b8 00 00 00
	00 00 00 00 ff	 mov	 rax, -72057594037927936	; ff00000000000000H
  00410	48 8b 4c 24 68	 mov	 rcx, QWORD PTR eso$[rsp]
  00415	48 23 c8	 and	 rcx, rax
  00418	48 8b c1	 mov	 rax, rcx
  0041b	48 85 c0	 test	 rax, rax
  0041e	75 1a		 jne	 SHORT $LN28@z900_set_z
  00420	48 b8 00 00 00
	00 00 00 00 ff	 mov	 rax, -72057594037927936	; ff00000000000000H
  0042a	48 8b 4c 24 70	 mov	 rcx, QWORD PTR esl$[rsp]
  0042f	48 23 c8	 and	 rcx, rax
  00432	48 8b c1	 mov	 rax, rcx
  00435	48 85 c0	 test	 rax, rax
  00438	74 12		 je	 SHORT $LN27@z900_set_z
$LN28@z900_set_z:

; 1850 :         ARCH_DEP(program_interrupt) (regs, PGM_OPERAND_EXCEPTION);

  0043a	ba 15 00 00 00	 mov	 edx, 21
  0043f	48 8b 8c 24 b8
	00 00 00	 mov	 rcx, QWORD PTR regs$[rsp]
  00447	e8 00 00 00 00	 call	 z900_program_interrupt
$LN27@z900_set_z:

; 1851 : #endif
; 1852 : 
; 1853 :     sysblk.zpb[zone].mso = mso;

  0044c	48 63 44 24 40	 movsxd	 rax, DWORD PTR zone$[rsp]
  00451	48 6b c0 38	 imul	 rax, rax, 56		; 00000038H
  00455	48 8b 0d 00 00
	00 00		 mov	 rcx, QWORD PTR __imp_sysblk
  0045c	48 8b 54 24 58	 mov	 rdx, QWORD PTR mso$[rsp]
  00461	48 89 94 01 a0
	0e 00 00	 mov	 QWORD PTR [rcx+rax+3744], rdx

; 1854 :     sysblk.zpb[zone].msl = msl;

  00469	48 63 44 24 40	 movsxd	 rax, DWORD PTR zone$[rsp]
  0046e	48 6b c0 38	 imul	 rax, rax, 56		; 00000038H
  00472	48 8b 0d 00 00
	00 00		 mov	 rcx, QWORD PTR __imp_sysblk
  00479	48 8b 54 24 60	 mov	 rdx, QWORD PTR msl$[rsp]
  0047e	48 89 94 01 a8
	0e 00 00	 mov	 QWORD PTR [rcx+rax+3752], rdx

; 1855 :     sysblk.zpb[zone].eso = eso;

  00486	48 63 44 24 40	 movsxd	 rax, DWORD PTR zone$[rsp]
  0048b	48 6b c0 38	 imul	 rax, rax, 56		; 00000038H
  0048f	48 8b 0d 00 00
	00 00		 mov	 rcx, QWORD PTR __imp_sysblk
  00496	48 8b 54 24 68	 mov	 rdx, QWORD PTR eso$[rsp]
  0049b	48 89 94 01 b0
	0e 00 00	 mov	 QWORD PTR [rcx+rax+3760], rdx

; 1856 :     sysblk.zpb[zone].esl = esl;

  004a3	48 63 44 24 40	 movsxd	 rax, DWORD PTR zone$[rsp]
  004a8	48 6b c0 38	 imul	 rax, rax, 56		; 00000038H
  004ac	48 8b 0d 00 00
	00 00		 mov	 rcx, QWORD PTR __imp_sysblk
  004b3	48 8b 54 24 70	 mov	 rdx, QWORD PTR esl$[rsp]
  004b8	48 89 94 01 b8
	0e 00 00	 mov	 QWORD PTR [rcx+rax+3768], rdx

; 1857 : 
; 1858 :     regs->psw.cc = 0;

  004c0	48 8b 84 24 b8
	00 00 00	 mov	 rax, QWORD PTR regs$[rsp]
  004c8	c6 40 7c 00	 mov	 BYTE PTR [rax+124], 0
$LN1@z900_set_z:
$LN29@z900_set_z:

; 1859 : }

  004cc	48 8b 8c 24 98
	00 00 00	 mov	 rcx, QWORD PTR __$ArrayPad$[rsp]
  004d4	48 33 cc	 xor	 rcx, rsp
  004d7	e8 00 00 00 00	 call	 __security_check_cookie
  004dc	48 81 c4 a8 00
	00 00		 add	 rsp, 168		; 000000a8H
  004e3	c3		 ret	 0
z900_set_zone_parameter ENDP
_TEXT	ENDS
; Function compile flags: /Odtp
; File C:\papa\MyGit\hyperion-zvector\sie.c
_TEXT	SEGMENT
zone$ = 64
temp$1 = 68
b2$ = 72
effective_addr2$ = 80
zpb$ = 88
__$ArrayPad$ = 120
inst$ = 144
regs$ = 152
z900_store_zone_parameter PROC

; 1767 : {

$LN27:
  00000	48 89 54 24 10	 mov	 QWORD PTR [rsp+16], rdx
  00005	48 89 4c 24 08	 mov	 QWORD PTR [rsp+8], rcx
  0000a	48 81 ec 88 00
	00 00		 sub	 rsp, 136		; 00000088H
  00011	48 8b 05 00 00
	00 00		 mov	 rax, QWORD PTR __security_cookie
  00018	48 33 c4	 xor	 rax, rsp
  0001b	48 89 44 24 78	 mov	 QWORD PTR __$ArrayPad$[rsp], rax

; 1768 : int     b2;                             /* Values of R fields        */
; 1769 : RADR    effective_addr2;                /* address of state desc.    */
; 1770 : ZPB     zpb;                            /* Zone Parameter Block      */
; 1771 : int     zone;                           /* Zone number               */
; 1772 : 
; 1773 :     S(inst, regs, b2, effective_addr2);

  00020	48 8b 8c 24 90
	00 00 00	 mov	 rcx, QWORD PTR inst$[rsp]
  00028	e8 00 00 00 00	 call	 fetch_fw_noswap
  0002d	8b c8		 mov	 ecx, eax
  0002f	e8 00 00 00 00	 call	 _byteswap_ulong
  00034	89 44 24 44	 mov	 DWORD PTR temp$1[rsp], eax
  00038	8b 44 24 44	 mov	 eax, DWORD PTR temp$1[rsp]
  0003c	25 ff 0f 00 00	 and	 eax, 4095		; 00000fffH
  00041	8b c0		 mov	 eax, eax
  00043	48 89 44 24 50	 mov	 QWORD PTR effective_addr2$[rsp], rax
  00048	8b 44 24 44	 mov	 eax, DWORD PTR temp$1[rsp]
  0004c	c1 e8 0c	 shr	 eax, 12
  0004f	83 e0 0f	 and	 eax, 15
  00052	89 44 24 48	 mov	 DWORD PTR b2$[rsp], eax
  00056	83 7c 24 48 00	 cmp	 DWORD PTR b2$[rsp], 0
  0005b	74 44		 je	 SHORT $LN17@z900_store
  0005d	48 63 44 24 48	 movsxd	 rax, DWORD PTR b2$[rsp]
  00062	48 8b 8c 24 98
	00 00 00	 mov	 rcx, QWORD PTR regs$[rsp]
  0006a	48 8b 84 c1 80
	02 00 00	 mov	 rax, QWORD PTR [rcx+rax*8+640]
  00072	48 8b 4c 24 50	 mov	 rcx, QWORD PTR effective_addr2$[rsp]
  00077	48 03 c8	 add	 rcx, rax
  0007a	48 8b c1	 mov	 rax, rcx
  0007d	48 89 44 24 50	 mov	 QWORD PTR effective_addr2$[rsp], rax
  00082	48 8b 84 24 98
	00 00 00	 mov	 rax, QWORD PTR regs$[rsp]
  0008a	48 8b 80 90 00
	00 00		 mov	 rax, QWORD PTR [rax+144]
  00091	48 8b 4c 24 50	 mov	 rcx, QWORD PTR effective_addr2$[rsp]
  00096	48 23 c8	 and	 rcx, rax
  00099	48 8b c1	 mov	 rax, rcx
  0009c	48 89 44 24 50	 mov	 QWORD PTR effective_addr2$[rsp], rax
$LN17@z900_store:
$LN4@z900_store:
  000a1	48 8b 84 24 98
	00 00 00	 mov	 rax, QWORD PTR regs$[rsp]
  000a9	48 8b 40 68	 mov	 rax, QWORD PTR [rax+104]
  000ad	48 83 c0 04	 add	 rax, 4
  000b1	48 8b 8c 24 98
	00 00 00	 mov	 rcx, QWORD PTR regs$[rsp]
  000b9	48 89 41 68	 mov	 QWORD PTR [rcx+104], rax
  000bd	33 c0		 xor	 eax, eax
  000bf	83 f8 04	 cmp	 eax, 4
  000c2	74 0f		 je	 SHORT $LN18@z900_store
  000c4	48 8b 84 24 98
	00 00 00	 mov	 rax, QWORD PTR regs$[rsp]
  000cc	c6 80 9a 00 00
	00 04		 mov	 BYTE PTR [rax+154], 4
$LN18@z900_store:
  000d3	33 c0		 xor	 eax, eax
  000d5	85 c0		 test	 eax, eax
  000d7	75 c8		 jne	 SHORT $LN4@z900_store
$LN7@z900_store:

; 1774 : 
; 1775 :     TXF_INSTR_CHECK( regs );

  000d9	48 8b 84 24 98
	00 00 00	 mov	 rax, QWORD PTR regs$[rsp]
  000e1	0f b6 80 58 0e
	00 00		 movzx	 eax, BYTE PTR [rax+3672]
  000e8	85 c0		 test	 eax, eax
  000ea	74 3f		 je	 SHORT $LN19@z900_store
  000ec	48 8b 84 24 98
	00 00 00	 mov	 rax, QWORD PTR regs$[rsp]
  000f4	8b 80 84 af 00
	00		 mov	 eax, DWORD PTR [rax+44932]
  000fa	0f ba e8 0c	 bts	 eax, 12
  000fe	48 8b 8c 24 98
	00 00 00	 mov	 rcx, QWORD PTR regs$[rsp]
  00106	89 81 84 af 00
	00		 mov	 DWORD PTR [rcx+44932], eax
  0010c	4c 8d 0d 00 00
	00 00		 lea	 r9, OFFSET FLAT:$SG195827
  00113	41 b8 0b 00 00
	00		 mov	 r8d, 11
  00119	ba 02 00 00 00	 mov	 edx, 2
  0011e	48 8b 8c 24 98
	00 00 00	 mov	 rcx, QWORD PTR regs$[rsp]
  00126	e8 00 00 00 00	 call	 z900_abort_transaction
$LN19@z900_store:
  0012b	33 c0		 xor	 eax, eax
  0012d	85 c0		 test	 eax, eax
  0012f	75 a8		 jne	 SHORT $LN7@z900_store

; 1776 :     PRIV_CHECK(regs);

  00131	48 8b 84 24 98
	00 00 00	 mov	 rax, QWORD PTR regs$[rsp]
  00139	0f b6 40 7a	 movzx	 eax, BYTE PTR [rax+122]
  0013d	83 e0 01	 and	 eax, 1
  00140	85 c0		 test	 eax, eax
  00142	74 1b		 je	 SHORT $LN20@z900_store
  00144	ba 02 00 00 00	 mov	 edx, 2
  00149	48 8b 8c 24 98
	00 00 00	 mov	 rcx, QWORD PTR regs$[rsp]
  00151	48 8b 84 24 98
	00 00 00	 mov	 rax, QWORD PTR regs$[rsp]
  00159	ff 90 20 0d 00
	00		 call	 QWORD PTR [rax+3360]
$LN20@z900_store:
$LN10@z900_store:

; 1777 : 
; 1778 :     SIE_INTERCEPT(regs);

  0015f	48 8b 84 24 98
	00 00 00	 mov	 rax, QWORD PTR regs$[rsp]
  00167	8b 80 c8 08 00
	00		 mov	 eax, DWORD PTR [rax+2248]
  0016d	d1 e8		 shr	 eax, 1
  0016f	83 e0 01	 and	 eax, 1
  00172	85 c0		 test	 eax, eax
  00174	74 1b		 je	 SHORT $LN21@z900_store
  00176	48 8b 84 24 98
	00 00 00	 mov	 rax, QWORD PTR regs$[rsp]
  0017e	48 05 80 09 00
	00		 add	 rax, 2432		; 00000980H
  00184	ba fc ff ff ff	 mov	 edx, -4
  00189	48 8b c8	 mov	 rcx, rax
  0018c	e8 00 00 00 00	 call	 longjmp
$LN21@z900_store:
  00191	33 c0		 xor	 eax, eax
  00193	85 c0		 test	 eax, eax
  00195	75 c8		 jne	 SHORT $LN10@z900_store
$LN13@z900_store:

; 1779 : 
; 1780 :     PTT_IO("STZP", regs->GR_L(1), regs->GR_L(2),regs->psw.IA_L);

  00197	48 8b 05 00 00
	00 00		 mov	 rax, QWORD PTR __imp_pttclass
  0019e	48 8b 00	 mov	 rax, QWORD PTR [rax]
  001a1	48 25 00 02 00
	00		 and	 rax, 512		; 00000200H
  001a7	48 85 c0	 test	 rax, rax
  001aa	74 71		 je	 SHORT $LN22@z900_store
  001ac	48 8b 84 24 98
	00 00 00	 mov	 rax, QWORD PTR regs$[rsp]
  001b4	8b 80 88 00 00
	00		 mov	 eax, DWORD PTR [rax+136]
  001ba	b9 08 00 00 00	 mov	 ecx, 8
  001bf	48 6b c9 02	 imul	 rcx, rcx, 2
  001c3	48 8b 94 24 98
	00 00 00	 mov	 rdx, QWORD PTR regs$[rsp]
  001cb	8b 8c 0a 80 02
	00 00		 mov	 ecx, DWORD PTR [rdx+rcx+640]
  001d2	ba 08 00 00 00	 mov	 edx, 8
  001d7	48 6b d2 01	 imul	 rdx, rdx, 1
  001db	4c 8b 84 24 98
	00 00 00	 mov	 r8, QWORD PTR regs$[rsp]
  001e3	41 8b 94 10 80
	02 00 00	 mov	 edx, DWORD PTR [r8+rdx+640]
  001eb	48 c7 44 24 30
	00 00 00 00	 mov	 QWORD PTR [rsp+48], 0
  001f4	48 89 44 24 28	 mov	 QWORD PTR [rsp+40], rax
  001f9	48 8d 05 00 00
	00 00		 lea	 rax, OFFSET FLAT:$SG195831
  00200	48 89 44 24 20	 mov	 QWORD PTR [rsp+32], rax
  00205	44 8b c9	 mov	 r9d, ecx
  00208	44 8b c2	 mov	 r8d, edx
  0020b	48 8d 15 00 00
	00 00		 lea	 rdx, OFFSET FLAT:$SG195832
  00212	b9 00 02 00 00	 mov	 ecx, 512		; 00000200H
  00217	ff 15 00 00 00
	00		 call	 QWORD PTR __imp_ptt_pthread_trace
$LN22@z900_store:
  0021d	33 c0		 xor	 eax, eax
  0021f	85 c0		 test	 eax, eax
  00221	0f 85 70 ff ff
	ff		 jne	 $LN13@z900_store

; 1781 : 
; 1782 :     FW_CHECK(regs->GR(2), regs);

  00227	b8 08 00 00 00	 mov	 eax, 8
  0022c	48 6b c0 02	 imul	 rax, rax, 2
  00230	48 8b 8c 24 98
	00 00 00	 mov	 rcx, QWORD PTR regs$[rsp]
  00238	48 8b 84 01 80
	02 00 00	 mov	 rax, QWORD PTR [rcx+rax+640]
  00240	48 83 e0 03	 and	 rax, 3
  00244	48 85 c0	 test	 rax, rax
  00247	74 1b		 je	 SHORT $LN23@z900_store
  00249	ba 06 00 00 00	 mov	 edx, 6
  0024e	48 8b 8c 24 98
	00 00 00	 mov	 rcx, QWORD PTR regs$[rsp]
  00256	48 8b 84 24 98
	00 00 00	 mov	 rax, QWORD PTR regs$[rsp]
  0025e	ff 90 20 0d 00
	00		 call	 QWORD PTR [rax+3360]
$LN23@z900_store:

; 1783 : 
; 1784 :     zone = regs->GR_LHLCL(1);

  00264	b8 08 00 00 00	 mov	 eax, 8
  00269	48 6b c0 01	 imul	 rax, rax, 1
  0026d	48 8b 8c 24 98
	00 00 00	 mov	 rcx, QWORD PTR regs$[rsp]
  00275	0f b6 84 01 80
	02 00 00	 movzx	 eax, BYTE PTR [rcx+rax+640]
  0027d	89 44 24 40	 mov	 DWORD PTR zone$[rsp], eax

; 1785 : 
; 1786 :     if(zone >= FEATURE_SIE_MAXZONES)

  00281	83 7c 24 40 08	 cmp	 DWORD PTR zone$[rsp], 8
  00286	0f 8c 9f 00 00
	00		 jl	 $LN24@z900_store
$LN16@z900_store:

; 1787 :     {
; 1788 :         PTT_ERR("*STZP", regs->GR_L(1), regs->GR_L(2),regs->psw.IA_L);

  0028c	48 8b 05 00 00
	00 00		 mov	 rax, QWORD PTR __imp_pttclass
  00293	48 8b 00	 mov	 rax, QWORD PTR [rax]
  00296	48 83 e0 10	 and	 rax, 16
  0029a	48 85 c0	 test	 rax, rax
  0029d	74 71		 je	 SHORT $LN25@z900_store
  0029f	48 8b 84 24 98
	00 00 00	 mov	 rax, QWORD PTR regs$[rsp]
  002a7	8b 80 88 00 00
	00		 mov	 eax, DWORD PTR [rax+136]
  002ad	b9 08 00 00 00	 mov	 ecx, 8
  002b2	48 6b c9 02	 imul	 rcx, rcx, 2
  002b6	48 8b 94 24 98
	00 00 00	 mov	 rdx, QWORD PTR regs$[rsp]
  002be	8b 8c 0a 80 02
	00 00		 mov	 ecx, DWORD PTR [rdx+rcx+640]
  002c5	ba 08 00 00 00	 mov	 edx, 8
  002ca	48 6b d2 01	 imul	 rdx, rdx, 1
  002ce	4c 8b 84 24 98
	00 00 00	 mov	 r8, QWORD PTR regs$[rsp]
  002d6	41 8b 94 10 80
	02 00 00	 mov	 edx, DWORD PTR [r8+rdx+640]
  002de	48 c7 44 24 30
	00 00 00 00	 mov	 QWORD PTR [rsp+48], 0
  002e7	48 89 44 24 28	 mov	 QWORD PTR [rsp+40], rax
  002ec	48 8d 05 00 00
	00 00		 lea	 rax, OFFSET FLAT:$SG195836
  002f3	48 89 44 24 20	 mov	 QWORD PTR [rsp+32], rax
  002f8	44 8b c9	 mov	 r9d, ecx
  002fb	44 8b c2	 mov	 r8d, edx
  002fe	48 8d 15 00 00
	00 00		 lea	 rdx, OFFSET FLAT:$SG195837
  00305	b9 10 00 00 00	 mov	 ecx, 16
  0030a	ff 15 00 00 00
	00		 call	 QWORD PTR __imp_ptt_pthread_trace
$LN25@z900_store:
  00310	33 c0		 xor	 eax, eax
  00312	85 c0		 test	 eax, eax
  00314	0f 85 72 ff ff
	ff		 jne	 $LN16@z900_store

; 1789 :         regs->psw.cc = 3;

  0031a	48 8b 84 24 98
	00 00 00	 mov	 rax, QWORD PTR regs$[rsp]
  00322	c6 40 7c 03	 mov	 BYTE PTR [rax+124], 3

; 1790 :         return;

  00326	e9 ec 00 00 00	 jmp	 $LN1@z900_store
$LN24@z900_store:

; 1791 :     }
; 1792 : 
; 1793 :     STORE_W(zpb.mso,sysblk.zpb[zone].mso);

  0032b	48 63 44 24 40	 movsxd	 rax, DWORD PTR zone$[rsp]
  00330	48 6b c0 38	 imul	 rax, rax, 56		; 00000038H
  00334	48 8b 0d 00 00
	00 00		 mov	 rcx, QWORD PTR __imp_sysblk
  0033b	48 8b 8c 01 a0
	0e 00 00	 mov	 rcx, QWORD PTR [rcx+rax+3744]
  00343	e8 00 00 00 00	 call	 _byteswap_uint64
  00348	48 8b d0	 mov	 rdx, rax
  0034b	48 8d 4c 24 58	 lea	 rcx, QWORD PTR zpb$[rsp]
  00350	e8 00 00 00 00	 call	 store_dw_noswap

; 1794 :     STORE_W(zpb.msl,sysblk.zpb[zone].msl);

  00355	48 63 44 24 40	 movsxd	 rax, DWORD PTR zone$[rsp]
  0035a	48 6b c0 38	 imul	 rax, rax, 56		; 00000038H
  0035e	48 8b 0d 00 00
	00 00		 mov	 rcx, QWORD PTR __imp_sysblk
  00365	48 8b 8c 01 a8
	0e 00 00	 mov	 rcx, QWORD PTR [rcx+rax+3752]
  0036d	e8 00 00 00 00	 call	 _byteswap_uint64
  00372	48 8b d0	 mov	 rdx, rax
  00375	48 8d 4c 24 60	 lea	 rcx, QWORD PTR zpb$[rsp+8]
  0037a	e8 00 00 00 00	 call	 store_dw_noswap

; 1795 :     STORE_W(zpb.eso,sysblk.zpb[zone].eso);

  0037f	48 63 44 24 40	 movsxd	 rax, DWORD PTR zone$[rsp]
  00384	48 6b c0 38	 imul	 rax, rax, 56		; 00000038H
  00388	48 8b 0d 00 00
	00 00		 mov	 rcx, QWORD PTR __imp_sysblk
  0038f	48 8b 8c 01 b0
	0e 00 00	 mov	 rcx, QWORD PTR [rcx+rax+3760]
  00397	e8 00 00 00 00	 call	 _byteswap_uint64
  0039c	48 8b d0	 mov	 rdx, rax
  0039f	48 8d 4c 24 68	 lea	 rcx, QWORD PTR zpb$[rsp+16]
  003a4	e8 00 00 00 00	 call	 store_dw_noswap

; 1796 :     STORE_W(zpb.esl,sysblk.zpb[zone].esl);

  003a9	48 63 44 24 40	 movsxd	 rax, DWORD PTR zone$[rsp]
  003ae	48 6b c0 38	 imul	 rax, rax, 56		; 00000038H
  003b2	48 8b 0d 00 00
	00 00		 mov	 rcx, QWORD PTR __imp_sysblk
  003b9	48 8b 8c 01 b8
	0e 00 00	 mov	 rcx, QWORD PTR [rcx+rax+3768]
  003c1	e8 00 00 00 00	 call	 _byteswap_uint64
  003c6	48 8b d0	 mov	 rdx, rax
  003c9	48 8d 4c 24 70	 lea	 rcx, QWORD PTR zpb$[rsp+24]
  003ce	e8 00 00 00 00	 call	 store_dw_noswap

; 1797 : 
; 1798 :     ARCH_DEP(vstorec(&zpb, sizeof(ZPB)-1,regs->GR(2), 2, regs));

  003d3	b8 08 00 00 00	 mov	 eax, 8
  003d8	48 6b c0 02	 imul	 rax, rax, 2
  003dc	48 8b 8c 24 98
	00 00 00	 mov	 rcx, QWORD PTR regs$[rsp]
  003e4	48 89 4c 24 20	 mov	 QWORD PTR [rsp+32], rcx
  003e9	41 b9 02 00 00
	00		 mov	 r9d, 2
  003ef	48 8b 8c 24 98
	00 00 00	 mov	 rcx, QWORD PTR regs$[rsp]
  003f7	4c 8b 84 01 80
	02 00 00	 mov	 r8, QWORD PTR [rcx+rax+640]
  003ff	b2 1f		 mov	 dl, 31
  00401	48 8d 4c 24 58	 lea	 rcx, QWORD PTR zpb$[rsp]
  00406	e8 00 00 00 00	 call	 z900_vstorec

; 1799 : 
; 1800 :     regs->psw.cc = 0;

  0040b	48 8b 84 24 98
	00 00 00	 mov	 rax, QWORD PTR regs$[rsp]
  00413	c6 40 7c 00	 mov	 BYTE PTR [rax+124], 0
$LN1@z900_store:
$LN26@z900_store:

; 1801 : }

  00417	48 8b 4c 24 78	 mov	 rcx, QWORD PTR __$ArrayPad$[rsp]
  0041c	48 33 cc	 xor	 rcx, rsp
  0041f	e8 00 00 00 00	 call	 __security_check_cookie
  00424	48 81 c4 88 00
	00 00		 add	 rsp, 136		; 00000088H
  0042b	c3		 ret	 0
z900_store_zone_parameter ENDP
_TEXT	ENDS
; Function compile flags: /Odtp
; File C:\papa\MyGit\hyperion-zvector\sie.c
_TEXT	SEGMENT
effective_addr2$ = 64
temp$1 = 72
b2$ = 76
zone$ = 80
ioid$ = 84
ioparm$ = 88
iointid$ = 92
tpziid$ = 96
__$ArrayPad$ = 112
inst$ = 144
regs$ = 152
z900_test_pending_zone_interrupt PROC

; 1868 : {

$LN34:
  00000	48 89 54 24 10	 mov	 QWORD PTR [rsp+16], rdx
  00005	48 89 4c 24 08	 mov	 QWORD PTR [rsp+8], rcx
  0000a	48 81 ec 88 00
	00 00		 sub	 rsp, 136		; 00000088H
  00011	48 8b 05 00 00
	00 00		 mov	 rax, QWORD PTR __security_cookie
  00018	48 33 c4	 xor	 rax, rsp
  0001b	48 89 44 24 70	 mov	 QWORD PTR __$ArrayPad$[rsp], rax

; 1869 : int     b2;                             /* Values of R fields        */
; 1870 : RADR    effective_addr2;                /* address of state desc.    */
; 1871 : U32     ioid;                           /* I/O interruption address  */
; 1872 : U32     ioparm;                         /* I/O interruption parameter*/
; 1873 : U32     iointid;                        /* I/O interruption ident    */
; 1874 : FWORD   tpziid[3];
; 1875 : int     zone;                           /* Zone number               */
; 1876 : 
; 1877 :     S(inst, regs, b2, effective_addr2);

  00020	48 8b 8c 24 90
	00 00 00	 mov	 rcx, QWORD PTR inst$[rsp]
  00028	e8 00 00 00 00	 call	 fetch_fw_noswap
  0002d	8b c8		 mov	 ecx, eax
  0002f	e8 00 00 00 00	 call	 _byteswap_ulong
  00034	89 44 24 48	 mov	 DWORD PTR temp$1[rsp], eax
  00038	8b 44 24 48	 mov	 eax, DWORD PTR temp$1[rsp]
  0003c	25 ff 0f 00 00	 and	 eax, 4095		; 00000fffH
  00041	8b c0		 mov	 eax, eax
  00043	48 89 44 24 40	 mov	 QWORD PTR effective_addr2$[rsp], rax
  00048	8b 44 24 48	 mov	 eax, DWORD PTR temp$1[rsp]
  0004c	c1 e8 0c	 shr	 eax, 12
  0004f	83 e0 0f	 and	 eax, 15
  00052	89 44 24 4c	 mov	 DWORD PTR b2$[rsp], eax
  00056	83 7c 24 4c 00	 cmp	 DWORD PTR b2$[rsp], 0
  0005b	74 44		 je	 SHORT $LN20@z900_test_
  0005d	48 63 44 24 4c	 movsxd	 rax, DWORD PTR b2$[rsp]
  00062	48 8b 8c 24 98
	00 00 00	 mov	 rcx, QWORD PTR regs$[rsp]
  0006a	48 8b 84 c1 80
	02 00 00	 mov	 rax, QWORD PTR [rcx+rax*8+640]
  00072	48 8b 4c 24 40	 mov	 rcx, QWORD PTR effective_addr2$[rsp]
  00077	48 03 c8	 add	 rcx, rax
  0007a	48 8b c1	 mov	 rax, rcx
  0007d	48 89 44 24 40	 mov	 QWORD PTR effective_addr2$[rsp], rax
  00082	48 8b 84 24 98
	00 00 00	 mov	 rax, QWORD PTR regs$[rsp]
  0008a	48 8b 80 90 00
	00 00		 mov	 rax, QWORD PTR [rax+144]
  00091	48 8b 4c 24 40	 mov	 rcx, QWORD PTR effective_addr2$[rsp]
  00096	48 23 c8	 and	 rcx, rax
  00099	48 8b c1	 mov	 rax, rcx
  0009c	48 89 44 24 40	 mov	 QWORD PTR effective_addr2$[rsp], rax
$LN20@z900_test_:
$LN4@z900_test_:
  000a1	48 8b 84 24 98
	00 00 00	 mov	 rax, QWORD PTR regs$[rsp]
  000a9	48 8b 40 68	 mov	 rax, QWORD PTR [rax+104]
  000ad	48 83 c0 04	 add	 rax, 4
  000b1	48 8b 8c 24 98
	00 00 00	 mov	 rcx, QWORD PTR regs$[rsp]
  000b9	48 89 41 68	 mov	 QWORD PTR [rcx+104], rax
  000bd	33 c0		 xor	 eax, eax
  000bf	83 f8 04	 cmp	 eax, 4
  000c2	74 0f		 je	 SHORT $LN21@z900_test_
  000c4	48 8b 84 24 98
	00 00 00	 mov	 rax, QWORD PTR regs$[rsp]
  000cc	c6 80 9a 00 00
	00 04		 mov	 BYTE PTR [rax+154], 4
$LN21@z900_test_:
  000d3	33 c0		 xor	 eax, eax
  000d5	85 c0		 test	 eax, eax
  000d7	75 c8		 jne	 SHORT $LN4@z900_test_
$LN7@z900_test_:

; 1878 : 
; 1879 :     TXF_INSTR_CHECK( regs );

  000d9	48 8b 84 24 98
	00 00 00	 mov	 rax, QWORD PTR regs$[rsp]
  000e1	0f b6 80 58 0e
	00 00		 movzx	 eax, BYTE PTR [rax+3672]
  000e8	85 c0		 test	 eax, eax
  000ea	74 3f		 je	 SHORT $LN22@z900_test_
  000ec	48 8b 84 24 98
	00 00 00	 mov	 rax, QWORD PTR regs$[rsp]
  000f4	8b 80 84 af 00
	00		 mov	 eax, DWORD PTR [rax+44932]
  000fa	0f ba e8 0c	 bts	 eax, 12
  000fe	48 8b 8c 24 98
	00 00 00	 mov	 rcx, QWORD PTR regs$[rsp]
  00106	89 81 84 af 00
	00		 mov	 DWORD PTR [rcx+44932], eax
  0010c	4c 8d 0d 00 00
	00 00		 lea	 r9, OFFSET FLAT:$SG195948
  00113	41 b8 0b 00 00
	00		 mov	 r8d, 11
  00119	ba 02 00 00 00	 mov	 edx, 2
  0011e	48 8b 8c 24 98
	00 00 00	 mov	 rcx, QWORD PTR regs$[rsp]
  00126	e8 00 00 00 00	 call	 z900_abort_transaction
$LN22@z900_test_:
  0012b	33 c0		 xor	 eax, eax
  0012d	85 c0		 test	 eax, eax
  0012f	75 a8		 jne	 SHORT $LN7@z900_test_

; 1880 :     PRIV_CHECK(regs);

  00131	48 8b 84 24 98
	00 00 00	 mov	 rax, QWORD PTR regs$[rsp]
  00139	0f b6 40 7a	 movzx	 eax, BYTE PTR [rax+122]
  0013d	83 e0 01	 and	 eax, 1
  00140	85 c0		 test	 eax, eax
  00142	74 1b		 je	 SHORT $LN23@z900_test_
  00144	ba 02 00 00 00	 mov	 edx, 2
  00149	48 8b 8c 24 98
	00 00 00	 mov	 rcx, QWORD PTR regs$[rsp]
  00151	48 8b 84 24 98
	00 00 00	 mov	 rax, QWORD PTR regs$[rsp]
  00159	ff 90 20 0d 00
	00		 call	 QWORD PTR [rax+3360]
$LN23@z900_test_:
$LN10@z900_test_:

; 1881 : 
; 1882 :     SIE_INTERCEPT(regs);

  0015f	48 8b 84 24 98
	00 00 00	 mov	 rax, QWORD PTR regs$[rsp]
  00167	8b 80 c8 08 00
	00		 mov	 eax, DWORD PTR [rax+2248]
  0016d	d1 e8		 shr	 eax, 1
  0016f	83 e0 01	 and	 eax, 1
  00172	85 c0		 test	 eax, eax
  00174	74 1b		 je	 SHORT $LN24@z900_test_
  00176	48 8b 84 24 98
	00 00 00	 mov	 rax, QWORD PTR regs$[rsp]
  0017e	48 05 80 09 00
	00		 add	 rax, 2432		; 00000980H
  00184	ba fc ff ff ff	 mov	 edx, -4
  00189	48 8b c8	 mov	 rcx, rax
  0018c	e8 00 00 00 00	 call	 longjmp
$LN24@z900_test_:
  00191	33 c0		 xor	 eax, eax
  00193	85 c0		 test	 eax, eax
  00195	75 c8		 jne	 SHORT $LN10@z900_test_
$LN13@z900_test_:

; 1883 : 
; 1884 :     PTT_IO("TPZI", regs->GR_L(1),(U32)(effective_addr2 & 0xffffffff),regs->psw.IA_L);

  00197	48 8b 05 00 00
	00 00		 mov	 rax, QWORD PTR __imp_pttclass
  0019e	48 8b 00	 mov	 rax, QWORD PTR [rax]
  001a1	48 25 00 02 00
	00		 and	 rax, 512		; 00000200H
  001a7	48 85 c0	 test	 rax, rax
  001aa	74 6b		 je	 SHORT $LN25@z900_test_
  001ac	48 8b 84 24 98
	00 00 00	 mov	 rax, QWORD PTR regs$[rsp]
  001b4	8b 80 88 00 00
	00		 mov	 eax, DWORD PTR [rax+136]
  001ba	b9 ff ff ff ff	 mov	 ecx, -1			; ffffffffH
  001bf	48 8b 54 24 40	 mov	 rdx, QWORD PTR effective_addr2$[rsp]
  001c4	48 23 d1	 and	 rdx, rcx
  001c7	48 8b ca	 mov	 rcx, rdx
  001ca	8b c9		 mov	 ecx, ecx
  001cc	ba 08 00 00 00	 mov	 edx, 8
  001d1	48 6b d2 01	 imul	 rdx, rdx, 1
  001d5	4c 8b 84 24 98
	00 00 00	 mov	 r8, QWORD PTR regs$[rsp]
  001dd	41 8b 94 10 80
	02 00 00	 mov	 edx, DWORD PTR [r8+rdx+640]
  001e5	48 c7 44 24 30
	00 00 00 00	 mov	 QWORD PTR [rsp+48], 0
  001ee	48 89 44 24 28	 mov	 QWORD PTR [rsp+40], rax
  001f3	48 8d 05 00 00
	00 00		 lea	 rax, OFFSET FLAT:$SG195952
  001fa	48 89 44 24 20	 mov	 QWORD PTR [rsp+32], rax
  001ff	44 8b c9	 mov	 r9d, ecx
  00202	44 8b c2	 mov	 r8d, edx
  00205	48 8d 15 00 00
	00 00		 lea	 rdx, OFFSET FLAT:$SG195953
  0020c	b9 00 02 00 00	 mov	 ecx, 512		; 00000200H
  00211	ff 15 00 00 00
	00		 call	 QWORD PTR __imp_ptt_pthread_trace
$LN25@z900_test_:
  00217	33 c0		 xor	 eax, eax
  00219	85 c0		 test	 eax, eax
  0021b	0f 85 76 ff ff
	ff		 jne	 $LN13@z900_test_

; 1885 : 
; 1886 :     FW_CHECK(regs->GR(2), regs);

  00221	b8 08 00 00 00	 mov	 eax, 8
  00226	48 6b c0 02	 imul	 rax, rax, 2
  0022a	48 8b 8c 24 98
	00 00 00	 mov	 rcx, QWORD PTR regs$[rsp]
  00232	48 8b 84 01 80
	02 00 00	 mov	 rax, QWORD PTR [rcx+rax+640]
  0023a	48 83 e0 03	 and	 rax, 3
  0023e	48 85 c0	 test	 rax, rax
  00241	74 1b		 je	 SHORT $LN26@z900_test_
  00243	ba 06 00 00 00	 mov	 edx, 6
  00248	48 8b 8c 24 98
	00 00 00	 mov	 rcx, QWORD PTR regs$[rsp]
  00250	48 8b 84 24 98
	00 00 00	 mov	 rax, QWORD PTR regs$[rsp]
  00258	ff 90 20 0d 00
	00		 call	 QWORD PTR [rax+3360]
$LN26@z900_test_:

; 1887 : 
; 1888 :     /* Perform serialization and checkpoint-synchronization */
; 1889 :     PERFORM_SERIALIZATION (regs);

  0025e	0f ae f0	 mfence
$LN16@z900_test_:

; 1890 :     PERFORM_CHKPT_SYNC (regs);

  00261	33 c0		 xor	 eax, eax
  00263	85 c0		 test	 eax, eax
  00265	75 fa		 jne	 SHORT $LN16@z900_test_

; 1891 : 
; 1892 :     zone = regs->GR_LHLCL(1);

  00267	b8 08 00 00 00	 mov	 eax, 8
  0026c	48 6b c0 01	 imul	 rax, rax, 1
  00270	48 8b 8c 24 98
	00 00 00	 mov	 rcx, QWORD PTR regs$[rsp]
  00278	0f b6 84 01 80
	02 00 00	 movzx	 eax, BYTE PTR [rcx+rax+640]
  00280	89 44 24 50	 mov	 DWORD PTR zone$[rsp], eax

; 1893 : 
; 1894 :     if(zone >= FEATURE_SIE_MAXZONES)

  00284	83 7c 24 50 08	 cmp	 DWORD PTR zone$[rsp], 8
  00289	0f 8c 99 00 00
	00		 jl	 $LN27@z900_test_
$LN19@z900_test_:

; 1895 :     {
; 1896 :         PTT_ERR("*TPZI", regs->GR_L(1),(U32)(effective_addr2 & 0xffffffff),regs->psw.IA_L);

  0028f	48 8b 05 00 00
	00 00		 mov	 rax, QWORD PTR __imp_pttclass
  00296	48 8b 00	 mov	 rax, QWORD PTR [rax]
  00299	48 83 e0 10	 and	 rax, 16
  0029d	48 85 c0	 test	 rax, rax
  002a0	74 6b		 je	 SHORT $LN28@z900_test_
  002a2	48 8b 84 24 98
	00 00 00	 mov	 rax, QWORD PTR regs$[rsp]
  002aa	8b 80 88 00 00
	00		 mov	 eax, DWORD PTR [rax+136]
  002b0	b9 ff ff ff ff	 mov	 ecx, -1			; ffffffffH
  002b5	48 8b 54 24 40	 mov	 rdx, QWORD PTR effective_addr2$[rsp]
  002ba	48 23 d1	 and	 rdx, rcx
  002bd	48 8b ca	 mov	 rcx, rdx
  002c0	8b c9		 mov	 ecx, ecx
  002c2	ba 08 00 00 00	 mov	 edx, 8
  002c7	48 6b d2 01	 imul	 rdx, rdx, 1
  002cb	4c 8b 84 24 98
	00 00 00	 mov	 r8, QWORD PTR regs$[rsp]
  002d3	41 8b 94 10 80
	02 00 00	 mov	 edx, DWORD PTR [r8+rdx+640]
  002db	48 c7 44 24 30
	00 00 00 00	 mov	 QWORD PTR [rsp+48], 0
  002e4	48 89 44 24 28	 mov	 QWORD PTR [rsp+40], rax
  002e9	48 8d 05 00 00
	00 00		 lea	 rax, OFFSET FLAT:$SG195957
  002f0	48 89 44 24 20	 mov	 QWORD PTR [rsp+32], rax
  002f5	44 8b c9	 mov	 r9d, ecx
  002f8	44 8b c2	 mov	 r8d, edx
  002fb	48 8d 15 00 00
	00 00		 lea	 rdx, OFFSET FLAT:$SG195958
  00302	b9 10 00 00 00	 mov	 ecx, 16
  00307	ff 15 00 00 00
	00		 call	 QWORD PTR __imp_ptt_pthread_trace
$LN28@z900_test_:
  0030d	33 c0		 xor	 eax, eax
  0030f	85 c0		 test	 eax, eax
  00311	0f 85 78 ff ff
	ff		 jne	 $LN19@z900_test_

; 1897 :         regs->psw.cc = 0;

  00317	48 8b 84 24 98
	00 00 00	 mov	 rax, QWORD PTR regs$[rsp]
  0031f	c6 40 7c 00	 mov	 BYTE PTR [rax+124], 0

; 1898 :         return;

  00323	e9 32 01 00 00	 jmp	 $LN1@z900_test_
$LN27@z900_test_:

; 1899 :     }
; 1900 : 
; 1901 :     if( IS_IC_IOPENDING )

  00328	48 8b 05 00 00
	00 00		 mov	 rax, QWORD PTR __imp_sysblk
  0032f	8b 80 a0 12 00
	00		 mov	 eax, DWORD PTR [rax+4768]
  00335	25 00 00 00 40	 and	 eax, 1073741824		; 40000000H
  0033a	85 c0		 test	 eax, eax
  0033c	0f 84 0c 01 00
	00		 je	 $LN29@z900_test_

; 1902 :     {
; 1903 :         /* Obtain the interrupt lock */
; 1904 :         OBTAIN_INTLOCK(regs);

  00342	48 8d 15 00 00
	00 00		 lea	 rdx, OFFSET FLAT:$SG195961
  00349	48 8b 8c 24 98
	00 00 00	 mov	 rcx, QWORD PTR regs$[rsp]
  00351	e8 00 00 00 00	 call	 Obtain_Interrupt_Lock

; 1905 : 
; 1906 :         /* Test (but don't clear!) pending interrupt, and set condition code */
; 1907 :         if( ARCH_DEP(present_zone_io_interrupt) (&ioid, &ioparm,

  00356	44 0f b6 4c 24
	50		 movzx	 r9d, BYTE PTR zone$[rsp]
  0035c	4c 8d 44 24 5c	 lea	 r8, QWORD PTR iointid$[rsp]
  00361	48 8d 54 24 58	 lea	 rdx, QWORD PTR ioparm$[rsp]
  00366	48 8d 4c 24 54	 lea	 rcx, QWORD PTR ioid$[rsp]
  0036b	e8 00 00 00 00	 call	 z900_present_zone_io_interrupt
  00370	85 c0		 test	 eax, eax
  00372	0f 84 b4 00 00
	00		 je	 $LN31@z900_test_

; 1908 :                                                        &iointid, zone) )
; 1909 : 
; 1910 :         /* Store the SSID word and I/O parameter if an interrupt was pending */
; 1911 :         {
; 1912 :             /* Store interruption parms */
; 1913 :             STORE_FW(tpziid[0],ioid);

  00378	8b 4c 24 54	 mov	 ecx, DWORD PTR ioid$[rsp]
  0037c	e8 00 00 00 00	 call	 _byteswap_ulong
  00381	b9 04 00 00 00	 mov	 ecx, 4
  00386	48 6b c9 00	 imul	 rcx, rcx, 0
  0038a	48 8d 4c 0c 60	 lea	 rcx, QWORD PTR tpziid$[rsp+rcx]
  0038f	8b d0		 mov	 edx, eax
  00391	e8 00 00 00 00	 call	 store_fw_noswap

; 1914 :             STORE_FW(tpziid[1],ioparm);

  00396	8b 4c 24 58	 mov	 ecx, DWORD PTR ioparm$[rsp]
  0039a	e8 00 00 00 00	 call	 _byteswap_ulong
  0039f	b9 04 00 00 00	 mov	 ecx, 4
  003a4	48 6b c9 01	 imul	 rcx, rcx, 1
  003a8	48 8d 4c 0c 60	 lea	 rcx, QWORD PTR tpziid$[rsp+rcx]
  003ad	8b d0		 mov	 edx, eax
  003af	e8 00 00 00 00	 call	 store_fw_noswap

; 1915 :             STORE_FW(tpziid[2],iointid);

  003b4	8b 4c 24 5c	 mov	 ecx, DWORD PTR iointid$[rsp]
  003b8	e8 00 00 00 00	 call	 _byteswap_ulong
  003bd	b9 04 00 00 00	 mov	 ecx, 4
  003c2	48 6b c9 02	 imul	 rcx, rcx, 2
  003c6	48 8d 4c 0c 60	 lea	 rcx, QWORD PTR tpziid$[rsp+rcx]
  003cb	8b d0		 mov	 edx, eax
  003cd	e8 00 00 00 00	 call	 store_fw_noswap

; 1916 : 
; 1917 :             /* Release the interrupt lock */
; 1918 :             RELEASE_INTLOCK(regs);

  003d2	48 8d 15 00 00
	00 00		 lea	 rdx, OFFSET FLAT:$SG195964
  003d9	48 8b 8c 24 98
	00 00 00	 mov	 rcx, QWORD PTR regs$[rsp]
  003e1	e8 00 00 00 00	 call	 Release_Interrupt_Lock

; 1919 : 
; 1920 :             ARCH_DEP(vstorec(&tpziid, sizeof(tpziid)-1,regs->GR(2), 2, regs));

  003e6	b8 08 00 00 00	 mov	 eax, 8
  003eb	48 6b c0 02	 imul	 rax, rax, 2
  003ef	48 8b 8c 24 98
	00 00 00	 mov	 rcx, QWORD PTR regs$[rsp]
  003f7	48 89 4c 24 20	 mov	 QWORD PTR [rsp+32], rcx
  003fc	41 b9 02 00 00
	00		 mov	 r9d, 2
  00402	48 8b 8c 24 98
	00 00 00	 mov	 rcx, QWORD PTR regs$[rsp]
  0040a	4c 8b 84 01 80
	02 00 00	 mov	 r8, QWORD PTR [rcx+rax+640]
  00412	b2 0b		 mov	 dl, 11
  00414	48 8d 4c 24 60	 lea	 rcx, QWORD PTR tpziid$[rsp]
  00419	e8 00 00 00 00	 call	 z900_vstorec

; 1921 : 
; 1922 :             regs->psw.cc = 1;

  0041e	48 8b 84 24 98
	00 00 00	 mov	 rax, QWORD PTR regs$[rsp]
  00426	c6 40 7c 01	 mov	 BYTE PTR [rax+124], 1

; 1923 :         }

  0042a	eb 20		 jmp	 SHORT $LN32@z900_test_
$LN31@z900_test_:

; 1924 :         else
; 1925 :         {
; 1926 :             /* Release the interrupt lock */
; 1927 :             RELEASE_INTLOCK(regs);

  0042c	48 8d 15 00 00
	00 00		 lea	 rdx, OFFSET FLAT:$SG195965
  00433	48 8b 8c 24 98
	00 00 00	 mov	 rcx, QWORD PTR regs$[rsp]
  0043b	e8 00 00 00 00	 call	 Release_Interrupt_Lock

; 1928 :             regs->psw.cc = 0;

  00440	48 8b 84 24 98
	00 00 00	 mov	 rax, QWORD PTR regs$[rsp]
  00448	c6 40 7c 00	 mov	 BYTE PTR [rax+124], 0
$LN32@z900_test_:

; 1929 :         }
; 1930 : 
; 1931 :     }

  0044c	eb 0c		 jmp	 SHORT $LN30@z900_test_
$LN29@z900_test_:

; 1932 :     else
; 1933 :         regs->psw.cc = 0;

  0044e	48 8b 84 24 98
	00 00 00	 mov	 rax, QWORD PTR regs$[rsp]
  00456	c6 40 7c 00	 mov	 BYTE PTR [rax+124], 0
$LN30@z900_test_:
$LN1@z900_test_:
$LN33@z900_test_:

; 1934 : }

  0045a	48 8b 4c 24 70	 mov	 rcx, QWORD PTR __$ArrayPad$[rsp]
  0045f	48 33 cc	 xor	 rcx, rsp
  00462	e8 00 00 00 00	 call	 __security_check_cookie
  00467	48 81 c4 88 00
	00 00		 add	 rsp, 136		; 00000088H
  0046e	c3		 ret	 0
z900_test_pending_zone_interrupt ENDP
_TEXT	ENDS
; Function compile flags: /Odtp
; File C:\papa\MyGit\hyperion-zvector\sie.c
_TEXT	SEGMENT
icode$ = 96
effective_addr2$ = 104
n$ = 112
fld$ = 116
lpsw_xcode$ = 120
same_cpu$ = 124
same_state$ = 125
lhcpu$ = 128
b2$ = 132
tv1056 = 136
mso$1 = 144
temp$2 = 152
tv302 = 156
tv1035 = 160
tv1037 = 164
tv1040 = 168
tv1042 = 172
msl$3 = 176
tv235 = 184
sie_scaoh$4 = 188
tv225 = 192
eso$5 = 200
esl$6 = 208
tv229 = 216
tv237 = 224
dreg$ = 232
sie_state$ = 240
p$7 = 248
tv1448 = 256
inst$ = 304
regs$ = 312
z900_start_interpretive_execution PROC

; 308  : {

$LN171:
  00000	48 89 54 24 10	 mov	 QWORD PTR [rsp+16], rdx
  00005	48 89 4c 24 08	 mov	 QWORD PTR [rsp+8], rcx
  0000a	56		 push	 rsi
  0000b	57		 push	 rdi
  0000c	48 81 ec 18 01
	00 00		 sub	 rsp, 280		; 00000118H

; 309  : int     b2;                             /* Values of R fields        */
; 310  : RADR    effective_addr2;                /* address of state desc.    */
; 311  : int     n;                              /* Loop counter              */
; 312  : U16     lhcpu;                          /* Last Host CPU address     */
; 313  : U64     sie_state;                      /* Last SIE state            */
; 314  : int lpsw_xcode;                         /* xcode from load_psw       */
; 315  : volatile int icode = 0;                 /* interrupt code            */

  00013	c7 44 24 60 00
	00 00 00	 mov	 DWORD PTR icode$[rsp], 0

; 316  :                                         /* (why is this volatile?!)  */
; 317  : bool    same_cpu, same_state;           /* boolean helper flags      */
; 318  : U64     dreg;
; 319  : 
; 320  : #if defined( FEATURE_VIRTUAL_ARCHITECTURE_LEVEL )
; 321  : U32     fld;                            /* Facility List Designator  */
; 322  : #if !defined( OPTION_SIE2BK_FLD_COPY)
; 323  : int     i;                              /* (work)                    */
; 324  : #endif
; 325  : #endif
; 326  : 
; 327  :     //-----------------------------------------------------------
; 328  :     //             IMPORTANT SIE PROGRAMMING NOTE!
; 329  :     //-----------------------------------------------------------
; 330  :     // NOTE: Our execution architectural mode is that of the SIE
; 331  :     // HOST and our 'regs' variable is pointing the the HOST's
; 332  :     // registers. Since the GUEST could be running in a completely
; 333  :     // different architecture from the HOST, if you need to call
; 334  :     // a ARCH_DEP function for the GUEST (passing it GUESTREGS),
; 335  :     // you must TAKE SPECIAL CARE to ensure the correct version
; 336  :     // of that function is called! You cannot simply call the
; 337  :     // "ARCH_DEP" version of that function as they are for the
; 338  :     // architectue of the HOST, not the GUEST! (i.e. you cannot
; 339  :     // call a "z900_xxx" function expecting it to work correctly
; 340  :     // if the GUEST is supposed to call "s390_xxx" functions!)
; 341  :     //-----------------------------------------------------------
; 342  : 
; 343  :     S( inst, regs, b2, effective_addr2 );

  0001b	48 8b 8c 24 30
	01 00 00	 mov	 rcx, QWORD PTR inst$[rsp]
  00023	e8 00 00 00 00	 call	 fetch_fw_noswap
  00028	8b c8		 mov	 ecx, eax
  0002a	e8 00 00 00 00	 call	 _byteswap_ulong
  0002f	89 84 24 98 00
	00 00		 mov	 DWORD PTR temp$2[rsp], eax
  00036	8b 84 24 98 00
	00 00		 mov	 eax, DWORD PTR temp$2[rsp]
  0003d	25 ff 0f 00 00	 and	 eax, 4095		; 00000fffH
  00042	8b c0		 mov	 eax, eax
  00044	48 89 44 24 68	 mov	 QWORD PTR effective_addr2$[rsp], rax
  00049	8b 84 24 98 00
	00 00		 mov	 eax, DWORD PTR temp$2[rsp]
  00050	c1 e8 0c	 shr	 eax, 12
  00053	83 e0 0f	 and	 eax, 15
  00056	89 84 24 84 00
	00 00		 mov	 DWORD PTR b2$[rsp], eax
  0005d	83 bc 24 84 00
	00 00 00	 cmp	 DWORD PTR b2$[rsp], 0
  00065	74 47		 je	 SHORT $LN100@z900_start
  00067	48 63 84 24 84
	00 00 00	 movsxd	 rax, DWORD PTR b2$[rsp]
  0006f	48 8b 8c 24 38
	01 00 00	 mov	 rcx, QWORD PTR regs$[rsp]
  00077	48 8b 84 c1 80
	02 00 00	 mov	 rax, QWORD PTR [rcx+rax*8+640]
  0007f	48 8b 4c 24 68	 mov	 rcx, QWORD PTR effective_addr2$[rsp]
  00084	48 03 c8	 add	 rcx, rax
  00087	48 8b c1	 mov	 rax, rcx
  0008a	48 89 44 24 68	 mov	 QWORD PTR effective_addr2$[rsp], rax
  0008f	48 8b 84 24 38
	01 00 00	 mov	 rax, QWORD PTR regs$[rsp]
  00097	48 8b 80 90 00
	00 00		 mov	 rax, QWORD PTR [rax+144]
  0009e	48 8b 4c 24 68	 mov	 rcx, QWORD PTR effective_addr2$[rsp]
  000a3	48 23 c8	 and	 rcx, rax
  000a6	48 8b c1	 mov	 rax, rcx
  000a9	48 89 44 24 68	 mov	 QWORD PTR effective_addr2$[rsp], rax
$LN100@z900_start:
$LN4@z900_start:
  000ae	48 8b 84 24 38
	01 00 00	 mov	 rax, QWORD PTR regs$[rsp]
  000b6	48 8b 40 68	 mov	 rax, QWORD PTR [rax+104]
  000ba	48 83 c0 04	 add	 rax, 4
  000be	48 8b 8c 24 38
	01 00 00	 mov	 rcx, QWORD PTR regs$[rsp]
  000c6	48 89 41 68	 mov	 QWORD PTR [rcx+104], rax
  000ca	33 c0		 xor	 eax, eax
  000cc	83 f8 04	 cmp	 eax, 4
  000cf	74 0f		 je	 SHORT $LN101@z900_start
  000d1	48 8b 84 24 38
	01 00 00	 mov	 rax, QWORD PTR regs$[rsp]
  000d9	c6 80 9a 00 00
	00 04		 mov	 BYTE PTR [rax+154], 4
$LN101@z900_start:
  000e0	33 c0		 xor	 eax, eax
  000e2	85 c0		 test	 eax, eax
  000e4	75 c8		 jne	 SHORT $LN4@z900_start

; 344  :     PER_ZEROADDR_XCHECK( regs, b2 );

  000e6	8b 94 24 84 00
	00 00		 mov	 edx, DWORD PTR b2$[rsp]
  000ed	48 8b 8c 24 38
	01 00 00	 mov	 rcx, QWORD PTR regs$[rsp]
  000f5	e8 00 00 00 00	 call	 z900_per3_zero_xcheck
$LN7@z900_start:

; 345  : 
; 346  :     TXF_INSTR_CHECK( regs );

  000fa	48 8b 84 24 38
	01 00 00	 mov	 rax, QWORD PTR regs$[rsp]
  00102	0f b6 80 58 0e
	00 00		 movzx	 eax, BYTE PTR [rax+3672]
  00109	85 c0		 test	 eax, eax
  0010b	74 3f		 je	 SHORT $LN102@z900_start
  0010d	48 8b 84 24 38
	01 00 00	 mov	 rax, QWORD PTR regs$[rsp]
  00115	8b 80 84 af 00
	00		 mov	 eax, DWORD PTR [rax+44932]
  0011b	0f ba e8 0c	 bts	 eax, 12
  0011f	48 8b 8c 24 38
	01 00 00	 mov	 rcx, QWORD PTR regs$[rsp]
  00127	89 81 84 af 00
	00		 mov	 DWORD PTR [rcx+44932], eax
  0012d	4c 8d 0d 00 00
	00 00		 lea	 r9, OFFSET FLAT:$SG194852
  00134	41 b8 0b 00 00
	00		 mov	 r8d, 11
  0013a	ba 02 00 00 00	 mov	 edx, 2
  0013f	48 8b 8c 24 38
	01 00 00	 mov	 rcx, QWORD PTR regs$[rsp]
  00147	e8 00 00 00 00	 call	 z900_abort_transaction
$LN102@z900_start:
  0014c	33 c0		 xor	 eax, eax
  0014e	85 c0		 test	 eax, eax
  00150	75 a8		 jne	 SHORT $LN7@z900_start

; 347  :     PRIV_CHECK( regs );

  00152	48 8b 84 24 38
	01 00 00	 mov	 rax, QWORD PTR regs$[rsp]
  0015a	0f b6 40 7a	 movzx	 eax, BYTE PTR [rax+122]
  0015e	83 e0 01	 and	 eax, 1
  00161	85 c0		 test	 eax, eax
  00163	74 1b		 je	 SHORT $LN103@z900_start
  00165	ba 02 00 00 00	 mov	 edx, 2
  0016a	48 8b 8c 24 38
	01 00 00	 mov	 rcx, QWORD PTR regs$[rsp]
  00172	48 8b 84 24 38
	01 00 00	 mov	 rax, QWORD PTR regs$[rsp]
  0017a	ff 90 20 0d 00
	00		 call	 QWORD PTR [rax+3360]
$LN103@z900_start:
$LN10@z900_start:

; 348  : 
; 349  :     SIE_INTERCEPT( regs );

  00180	48 8b 84 24 38
	01 00 00	 mov	 rax, QWORD PTR regs$[rsp]
  00188	8b 80 c8 08 00
	00		 mov	 eax, DWORD PTR [rax+2248]
  0018e	d1 e8		 shr	 eax, 1
  00190	83 e0 01	 and	 eax, 1
  00193	85 c0		 test	 eax, eax
  00195	74 1b		 je	 SHORT $LN104@z900_start
  00197	48 8b 84 24 38
	01 00 00	 mov	 rax, QWORD PTR regs$[rsp]
  0019f	48 05 80 09 00
	00		 add	 rax, 2432		; 00000980H
  001a5	ba fc ff ff ff	 mov	 edx, -4
  001aa	48 8b c8	 mov	 rcx, rax
  001ad	e8 00 00 00 00	 call	 longjmp
$LN104@z900_start:
  001b2	33 c0		 xor	 eax, eax
  001b4	85 c0		 test	 eax, eax
  001b6	75 c8		 jne	 SHORT $LN10@z900_start
$LN13@z900_start:

; 350  : 
; 351  :     PTT_SIE( "SIE", regs->GR(14), regs->GR(15), effective_addr2);

  001b8	48 8b 05 00 00
	00 00		 mov	 rax, QWORD PTR __imp_pttclass
  001bf	48 8b 00	 mov	 rax, QWORD PTR [rax]
  001c2	48 25 80 00 00
	00		 and	 rax, 128		; 00000080H
  001c8	48 85 c0	 test	 rax, rax
  001cb	74 63		 je	 SHORT $LN105@z900_start
  001cd	b8 08 00 00 00	 mov	 eax, 8
  001d2	48 6b c0 0f	 imul	 rax, rax, 15
  001d6	b9 08 00 00 00	 mov	 ecx, 8
  001db	48 6b c9 0e	 imul	 rcx, rcx, 14
  001df	48 c7 44 24 30
	00 00 00 00	 mov	 QWORD PTR [rsp+48], 0
  001e8	48 8b 54 24 68	 mov	 rdx, QWORD PTR effective_addr2$[rsp]
  001ed	48 89 54 24 28	 mov	 QWORD PTR [rsp+40], rdx
  001f2	48 8d 15 00 00
	00 00		 lea	 rdx, OFFSET FLAT:$SG194856
  001f9	48 89 54 24 20	 mov	 QWORD PTR [rsp+32], rdx
  001fe	48 8b 94 24 38
	01 00 00	 mov	 rdx, QWORD PTR regs$[rsp]
  00206	4c 8b 8c 02 80
	02 00 00	 mov	 r9, QWORD PTR [rdx+rax+640]
  0020e	48 8b 84 24 38
	01 00 00	 mov	 rax, QWORD PTR regs$[rsp]
  00216	4c 8b 84 08 80
	02 00 00	 mov	 r8, QWORD PTR [rax+rcx+640]
  0021e	48 8d 15 00 00
	00 00		 lea	 rdx, OFFSET FLAT:$SG194857
  00225	b9 80 00 00 00	 mov	 ecx, 128		; 00000080H
  0022a	ff 15 00 00 00
	00		 call	 QWORD PTR __imp_ptt_pthread_trace
$LN105@z900_start:
  00230	33 c0		 xor	 eax, eax
  00232	85 c0		 test	 eax, eax
  00234	75 82		 jne	 SHORT $LN13@z900_start

; 352  : 
; 353  :     SIE_PERFMON( SIE_PERF_ENTER );
; 354  : 
; 355  : #if !defined( FEATURE_001_ZARCH_INSTALLED_FACILITY ) && !defined( FEATURE_MULTIPLE_CONTROLLED_DATA_SPACE )
; 356  :     if (!regs->psw.amode || !PRIMARY_SPACE_MODE( &regs->psw ))
; 357  :         ARCH_DEP( program_interrupt )( regs, PGM_SPECIAL_OPERATION_EXCEPTION );
; 358  : #endif
; 359  : 
; 360  :     if (0
; 361  :         || (effective_addr2 & (sizeof(SIEBK)-1)) != 0
; 362  : 
; 363  : #if defined( FEATURE_001_ZARCH_INSTALLED_FACILITY )
; 364  : 
; 365  :         || (effective_addr2 & PREFIXING_900_MASK) == 0
; 366  :         || (effective_addr2 & PREFIXING_900_MASK) == regs->PX_900

  00236	33 c0		 xor	 eax, eax
  00238	85 c0		 test	 eax, eax
  0023a	75 39		 jne	 SHORT $LN107@z900_start
  0023c	48 8b 44 24 68	 mov	 rax, QWORD PTR effective_addr2$[rsp]
  00241	48 25 ff 01 00
	00		 and	 rax, 511		; 000001ffH
  00247	48 85 c0	 test	 rax, rax
  0024a	75 29		 jne	 SHORT $LN107@z900_start
  0024c	48 8b 44 24 68	 mov	 rax, QWORD PTR effective_addr2$[rsp]
  00251	48 25 00 e0 ff
	ff		 and	 rax, -8192		; ffffffffffffe000H
  00257	48 85 c0	 test	 rax, rax
  0025a	74 19		 je	 SHORT $LN107@z900_start
  0025c	48 8b 44 24 68	 mov	 rax, QWORD PTR effective_addr2$[rsp]
  00261	48 25 00 e0 ff
	ff		 and	 rax, -8192		; ffffffffffffe000H
  00267	48 8b 8c 24 38
	01 00 00	 mov	 rcx, QWORD PTR regs$[rsp]
  0026f	48 3b 41 70	 cmp	 rax, QWORD PTR [rcx+112]
  00273	75 12		 jne	 SHORT $LN106@z900_start
$LN107@z900_start:

; 367  : 
; 368  : #elif defined( FEATURE_S390_DAT )
; 369  :         || (effective_addr2 & PREFIXING_390_MASK) == 0
; 370  :         || (effective_addr2 & PREFIXING_390_MASK) == regs->PX_390
; 371  : #else
; 372  :         || (effective_addr2 & PREFIXING_370_MASK) == 0
; 373  :         || (effective_addr2 & PREFIXING_370_MASK) == regs->PX_370
; 374  : #endif
; 375  :     )
; 376  :         ARCH_DEP( program_interrupt )( regs, PGM_SPECIFICATION_EXCEPTION );

  00275	ba 06 00 00 00	 mov	 edx, 6
  0027a	48 8b 8c 24 38
	01 00 00	 mov	 rcx, QWORD PTR regs$[rsp]
  00282	e8 00 00 00 00	 call	 z900_program_interrupt
$LN106@z900_start:

; 377  : 
; 378  :     /* Perform serialization and checkpoint synchronization */
; 379  :     PERFORM_SERIALIZATION( regs );

  00287	0f ae f0	 mfence
$LN16@z900_start:

; 380  :     PERFORM_CHKPT_SYNC( regs );

  0028a	33 c0		 xor	 eax, eax
  0028c	85 c0		 test	 eax, eax
  0028e	75 fa		 jne	 SHORT $LN16@z900_start

; 381  : 
; 382  : #if defined( SIE_DEBUG )
; 383  :     LOGMSG( "SIE: state descriptor " F_RADR "\n", effective_addr2 );
; 384  :     ARCH_DEP( display_inst )( regs, regs->instinvalid ? NULL : regs->ip );
; 385  : #endif
; 386  : 
; 387  :     if (effective_addr2 > regs->mainlim - (sizeof( SIEBK ) - 1))

  00290	48 8b 84 24 38
	01 00 00	 mov	 rax, QWORD PTR regs$[rsp]
  00298	48 8b 80 58 08
	00 00		 mov	 rax, QWORD PTR [rax+2136]
  0029f	48 2d ff 01 00
	00		 sub	 rax, 511		; 000001ffH
  002a5	48 39 44 24 68	 cmp	 QWORD PTR effective_addr2$[rsp], rax
  002aa	76 12		 jbe	 SHORT $LN108@z900_start

; 388  :         ARCH_DEP( program_interrupt )( regs, PGM_ADDRESSING_EXCEPTION );

  002ac	ba 05 00 00 00	 mov	 edx, 5
  002b1	48 8b 8c 24 38
	01 00 00	 mov	 rcx, QWORD PTR regs$[rsp]
  002b9	e8 00 00 00 00	 call	 z900_program_interrupt
$LN108@z900_start:
$LN19@z900_start:

; 389  : 
; 390  :     /*
; 391  :      * As long as regs->sie_active is off, no serialization is
; 392  :      * required for GUESTREGS.  sie_active should always be off here.
; 393  :      * Any other thread looking at sie_active holds the intlock.
; 394  :      */
; 395  :     PTT_SIE( "SIE h,g,a", regs->host, regs->guest, regs->sie_active );

  002be	48 8b 05 00 00
	00 00		 mov	 rax, QWORD PTR __imp_pttclass
  002c5	48 8b 00	 mov	 rax, QWORD PTR [rax]
  002c8	48 25 80 00 00
	00		 and	 rax, 128		; 00000080H
  002ce	48 85 c0	 test	 rax, rax
  002d1	74 71		 je	 SHORT $LN109@z900_start
  002d3	48 8b 84 24 38
	01 00 00	 mov	 rax, QWORD PTR regs$[rsp]
  002db	8b 80 c8 08 00
	00		 mov	 eax, DWORD PTR [rax+2248]
  002e1	83 e0 01	 and	 eax, 1
  002e4	8b c0		 mov	 eax, eax
  002e6	48 8b 8c 24 38
	01 00 00	 mov	 rcx, QWORD PTR regs$[rsp]
  002ee	8b 89 28 07 00
	00		 mov	 ecx, DWORD PTR [rcx+1832]
  002f4	c1 e9 08	 shr	 ecx, 8
  002f7	83 e1 01	 and	 ecx, 1
  002fa	8b c9		 mov	 ecx, ecx
  002fc	48 8b 94 24 38
	01 00 00	 mov	 rdx, QWORD PTR regs$[rsp]
  00304	8b 92 28 07 00
	00		 mov	 edx, DWORD PTR [rdx+1832]
  0030a	c1 ea 07	 shr	 edx, 7
  0030d	83 e2 01	 and	 edx, 1
  00310	8b d2		 mov	 edx, edx
  00312	48 c7 44 24 30
	00 00 00 00	 mov	 QWORD PTR [rsp+48], 0
  0031b	48 89 44 24 28	 mov	 QWORD PTR [rsp+40], rax
  00320	48 8d 05 00 00
	00 00		 lea	 rax, OFFSET FLAT:$SG194862
  00327	48 89 44 24 20	 mov	 QWORD PTR [rsp+32], rax
  0032c	44 8b c9	 mov	 r9d, ecx
  0032f	44 8b c2	 mov	 r8d, edx
  00332	48 8d 15 00 00
	00 00		 lea	 rdx, OFFSET FLAT:$SG194863
  00339	b9 80 00 00 00	 mov	 ecx, 128		; 00000080H
  0033e	ff 15 00 00 00
	00		 call	 QWORD PTR __imp_ptt_pthread_trace
$LN109@z900_start:
  00344	33 c0		 xor	 eax, eax
  00346	85 c0		 test	 eax, eax
  00348	0f 85 70 ff ff
	ff		 jne	 $LN19@z900_start

; 396  :     if (regs->sie_active)

  0034e	48 8b 84 24 38
	01 00 00	 mov	 rax, QWORD PTR regs$[rsp]
  00356	8b 80 c8 08 00
	00		 mov	 eax, DWORD PTR [rax+2248]
  0035c	83 e0 01	 and	 eax, 1
  0035f	85 c0		 test	 eax, eax
  00361	74 47		 je	 SHORT $LN110@z900_start

; 397  :     {
; 398  :         OBTAIN_INTLOCK( regs );

  00363	48 8d 15 00 00
	00 00		 lea	 rdx, OFFSET FLAT:$SG194865
  0036a	48 8b 8c 24 38
	01 00 00	 mov	 rcx, QWORD PTR regs$[rsp]
  00372	e8 00 00 00 00	 call	 Obtain_Interrupt_Lock

; 399  :         {
; 400  :             regs->sie_active = 0;

  00377	48 8b 84 24 38
	01 00 00	 mov	 rax, QWORD PTR regs$[rsp]
  0037f	8b 80 c8 08 00
	00		 mov	 eax, DWORD PTR [rax+2248]
  00385	83 e0 fe	 and	 eax, -2			; fffffffeH
  00388	48 8b 8c 24 38
	01 00 00	 mov	 rcx, QWORD PTR regs$[rsp]
  00390	89 81 c8 08 00
	00		 mov	 DWORD PTR [rcx+2248], eax

; 401  :         }
; 402  :         RELEASE_INTLOCK( regs );

  00396	48 8d 15 00 00
	00 00		 lea	 rdx, OFFSET FLAT:$SG194866
  0039d	48 8b 8c 24 38
	01 00 00	 mov	 rcx, QWORD PTR regs$[rsp]
  003a5	e8 00 00 00 00	 call	 Release_Interrupt_Lock
$LN110@z900_start:

; 403  :     }
; 404  : 
; 405  :     /* Initialize guestregs if first time */
; 406  :     if (!GUESTREGS)

  003aa	48 8b 84 24 38
	01 00 00	 mov	 rax, QWORD PTR regs$[rsp]
  003b2	48 83 b8 70 08
	00 00 00	 cmp	 QWORD PTR [rax+2160], 0
  003ba	0f 85 a5 01 00
	00		 jne	 $LN111@z900_start
$LN22@z900_start:

; 407  :     {
; 408  :         PTT_SIE( "SIE calloc g", 0, 0, 0 );

  003c0	48 8b 05 00 00
	00 00		 mov	 rax, QWORD PTR __imp_pttclass
  003c7	48 8b 00	 mov	 rax, QWORD PTR [rax]
  003ca	48 25 80 00 00
	00		 and	 rax, 128		; 00000080H
  003d0	48 85 c0	 test	 rax, rax
  003d3	74 36		 je	 SHORT $LN112@z900_start
  003d5	48 c7 44 24 30
	00 00 00 00	 mov	 QWORD PTR [rsp+48], 0
  003de	48 c7 44 24 28
	00 00 00 00	 mov	 QWORD PTR [rsp+40], 0
  003e7	48 8d 05 00 00
	00 00		 lea	 rax, OFFSET FLAT:$SG194869
  003ee	48 89 44 24 20	 mov	 QWORD PTR [rsp+32], rax
  003f3	45 33 c9	 xor	 r9d, r9d
  003f6	45 33 c0	 xor	 r8d, r8d
  003f9	48 8d 15 00 00
	00 00		 lea	 rdx, OFFSET FLAT:$SG194870
  00400	b9 80 00 00 00	 mov	 ecx, 128		; 00000080H
  00405	ff 15 00 00 00
	00		 call	 QWORD PTR __imp_ptt_pthread_trace
$LN112@z900_start:
  0040b	33 c0		 xor	 eax, eax
  0040d	85 c0		 test	 eax, eax
  0040f	75 af		 jne	 SHORT $LN22@z900_start

; 409  :         if (!(GUESTREGS = calloc_aligned( sizeof( REGS ), 4096 )))

  00411	ba 00 10 00 00	 mov	 edx, 4096		; 00001000H
  00416	b9 80 60 01 00	 mov	 ecx, 90240		; 00016080H
  0041b	e8 00 00 00 00	 call	 calloc_aligned
  00420	48 89 84 24 c0
	00 00 00	 mov	 QWORD PTR tv225[rsp], rax
  00428	48 8b 84 24 38
	01 00 00	 mov	 rax, QWORD PTR regs$[rsp]
  00430	48 8b 8c 24 c0
	00 00 00	 mov	 rcx, QWORD PTR tv225[rsp]
  00438	48 89 88 70 08
	00 00		 mov	 QWORD PTR [rax+2160], rcx
  0043f	48 83 bc 24 c0
	00 00 00 00	 cmp	 QWORD PTR tv225[rsp], 0
  00448	0f 85 d6 00 00
	00		 jne	 $LN113@z900_start

; 410  :         {
; 411  :             // "Processor %s%02X: error in function %s: %s"
; 412  :             WRMSG( HHC00813, "E", PTYPSTR( regs->cpuad ), regs->cpuad, "calloc()", strerror( errno ));

  0044e	ff 15 00 00 00
	00		 call	 QWORD PTR __imp__errno
  00454	8b 08		 mov	 ecx, DWORD PTR [rax]
  00456	ff 15 00 00 00
	00		 call	 QWORD PTR __imp_w32_strerror
  0045c	48 89 84 24 d8
	00 00 00	 mov	 QWORD PTR tv229[rsp], rax
  00464	48 8b 8c 24 38
	01 00 00	 mov	 rcx, QWORD PTR regs$[rsp]
  0046c	0f b7 89 3c 08
	00 00		 movzx	 ecx, WORD PTR [rcx+2108]
  00473	89 8c 24 b8 00
	00 00		 mov	 DWORD PTR tv235[rsp], ecx
  0047a	48 8b 94 24 38
	01 00 00	 mov	 rdx, QWORD PTR regs$[rsp]
  00482	0f b7 92 3c 08
	00 00		 movzx	 edx, WORD PTR [rdx+2108]
  00489	4c 8b 05 00 00
	00 00		 mov	 r8, QWORD PTR __imp_sysblk
  00490	41 0f b6 8c 10
	48 0b 00 00	 movzx	 ecx, BYTE PTR [r8+rdx+2888]
  00499	ff 15 00 00 00
	00		 call	 QWORD PTR __imp_ptyp2short
  0049f	48 89 84 24 e0
	00 00 00	 mov	 QWORD PTR tv237[rsp], rax
  004a7	b9 01 00 00 00	 mov	 ecx, 1
  004ac	ff 15 00 00 00
	00		 call	 QWORD PTR __imp___acrt_iob_func
  004b2	48 8b 8c 24 d8
	00 00 00	 mov	 rcx, QWORD PTR tv229[rsp]
  004ba	48 89 4c 24 50	 mov	 QWORD PTR [rsp+80], rcx
  004bf	48 8d 0d 00 00
	00 00		 lea	 rcx, OFFSET FLAT:$SG194872
  004c6	48 89 4c 24 48	 mov	 QWORD PTR [rsp+72], rcx
  004cb	8b 8c 24 b8 00
	00 00		 mov	 ecx, DWORD PTR tv235[rsp]
  004d2	89 4c 24 40	 mov	 DWORD PTR [rsp+64], ecx
  004d6	48 8b 8c 24 e0
	00 00 00	 mov	 rcx, QWORD PTR tv237[rsp]
  004de	48 89 4c 24 38	 mov	 QWORD PTR [rsp+56], rcx
  004e3	48 8d 0d 00 00
	00 00		 lea	 rcx, OFFSET FLAT:$SG194873
  004ea	48 89 4c 24 30	 mov	 QWORD PTR [rsp+48], rcx
  004ef	48 8d 0d 00 00
	00 00		 lea	 rcx, OFFSET FLAT:$SG194874
  004f6	48 89 4c 24 28	 mov	 QWORD PTR [rsp+40], rcx
  004fb	48 89 44 24 20	 mov	 QWORD PTR [rsp+32], rax
  00500	41 b9 03 00 00
	00		 mov	 r9d, 3
  00506	4c 8d 05 00 00
	00 00		 lea	 r8, OFFSET FLAT:$SG194875
  0050d	ba 9c 01 00 00	 mov	 edx, 412		; 0000019cH
  00512	48 8d 0d 00 00
	00 00		 lea	 rcx, OFFSET FLAT:$SG194876
  00519	ff 15 00 00 00
	00		 call	 QWORD PTR __imp_fwritemsg

; 413  :             return;

  0051f	e9 48 22 00 00	 jmp	 $LN1@z900_start
$LN113@z900_start:

; 414  :         }
; 415  :         cpu_init( regs->cpuad, GUESTREGS, regs );

  00524	48 8b 84 24 38
	01 00 00	 mov	 rax, QWORD PTR regs$[rsp]
  0052c	0f b7 80 3c 08
	00 00		 movzx	 eax, WORD PTR [rax+2108]
  00533	4c 8b 84 24 38
	01 00 00	 mov	 r8, QWORD PTR regs$[rsp]
  0053b	48 8b 8c 24 38
	01 00 00	 mov	 rcx, QWORD PTR regs$[rsp]
  00543	48 8b 91 70 08
	00 00		 mov	 rdx, QWORD PTR [rcx+2160]
  0054a	8b c8		 mov	 ecx, eax
  0054c	e8 00 00 00 00	 call	 cpu_init

; 416  :         TXF_ALLOCMAP( GUESTREGS );

  00551	48 8b 84 24 38
	01 00 00	 mov	 rax, QWORD PTR regs$[rsp]
  00559	48 8b 88 70 08
	00 00		 mov	 rcx, QWORD PTR [rax+2160]
  00560	e8 00 00 00 00	 call	 alloc_txfmap
$LN111@z900_start:

; 417  :     }
; 418  : 
; 419  :     /* Direct pointer to state descriptor block */
; 420  :     GUESTREGS->siebk = (void*)(regs->mainstor + effective_addr2);

  00565	48 8b 84 24 38
	01 00 00	 mov	 rax, QWORD PTR regs$[rsp]
  0056d	48 8b 80 48 08
	00 00		 mov	 rax, QWORD PTR [rax+2120]
  00574	48 03 44 24 68	 add	 rax, QWORD PTR effective_addr2$[rsp]
  00579	48 8b 8c 24 38
	01 00 00	 mov	 rcx, QWORD PTR regs$[rsp]
  00581	48 8b 89 70 08
	00 00		 mov	 rcx, QWORD PTR [rcx+2160]
  00588	48 89 81 88 08
	00 00		 mov	 QWORD PTR [rcx+2184], rax

; 421  : 
; 422  :     /* Set the guest's execution arch_mode and load its PSW */
; 423  : #if defined( FEATURE_001_ZARCH_INSTALLED_FACILITY )
; 424  :     if (STATEBK->mx & SIE_MX_ESAME)

  0058f	48 8b 84 24 38
	01 00 00	 mov	 rax, QWORD PTR regs$[rsp]
  00597	48 8b 80 70 08
	00 00		 mov	 rax, QWORD PTR [rax+2160]
  0059e	48 8b 80 88 08
	00 00		 mov	 rax, QWORD PTR [rax+2184]
  005a5	0f b6 40 02	 movzx	 eax, BYTE PTR [rax+2]
  005a9	83 e0 08	 and	 eax, 8
  005ac	85 c0		 test	 eax, eax
  005ae	74 6c		 je	 SHORT $LN114@z900_start

; 425  :     {
; 426  :         GUESTREGS->arch_mode = ARCH_900_IDX;

  005b0	48 8b 84 24 38
	01 00 00	 mov	 rax, QWORD PTR regs$[rsp]
  005b8	48 8b 80 70 08
	00 00		 mov	 rax, QWORD PTR [rax+2160]
  005bf	c7 40 64 02 00
	00 00		 mov	 DWORD PTR [rax+100], 2

; 427  :         GUESTREGS->program_interrupt = &z900_program_interrupt;

  005c6	48 8b 84 24 38
	01 00 00	 mov	 rax, QWORD PTR regs$[rsp]
  005ce	48 8b 80 70 08
	00 00		 mov	 rax, QWORD PTR [rax+2160]
  005d5	48 8d 0d 00 00
	00 00		 lea	 rcx, OFFSET FLAT:z900_program_interrupt
  005dc	48 89 88 20 0d
	00 00		 mov	 QWORD PTR [rax+3360], rcx

; 428  :         lpsw_xcode = z900_load_psw( GUESTREGS, STATEBK->psw );

  005e3	48 8b 84 24 38
	01 00 00	 mov	 rax, QWORD PTR regs$[rsp]
  005eb	48 8b 80 70 08
	00 00		 mov	 rax, QWORD PTR [rax+2160]
  005f2	48 8b 80 88 08
	00 00		 mov	 rax, QWORD PTR [rax+2184]
  005f9	48 05 90 00 00
	00		 add	 rax, 144		; 00000090H
  005ff	48 8b d0	 mov	 rdx, rax
  00602	48 8b 84 24 38
	01 00 00	 mov	 rax, QWORD PTR regs$[rsp]
  0060a	48 8b 88 70 08
	00 00		 mov	 rcx, QWORD PTR [rax+2160]
  00611	e8 00 00 00 00	 call	 z900_load_psw
  00616	89 44 24 78	 mov	 DWORD PTR lpsw_xcode$[rsp], eax

; 429  :     }

  0061a	eb 6a		 jmp	 SHORT $LN115@z900_start
$LN114@z900_start:

; 430  : #else /* !defined( FEATURE_001_ZARCH_INSTALLED_FACILITY ) */
; 431  :     if (STATEBK->m & SIE_M_370)
; 432  :     {
; 433  : #if defined(_370)
; 434  :         GUESTREGS->arch_mode = ARCH_370_IDX;
; 435  :         GUESTREGS->program_interrupt = &s370_program_interrupt;
; 436  :         lpsw_xcode = s370_load_psw(GUESTREGS, STATEBK->psw);
; 437  : #else
; 438  :         /* Validity intercept when 370 mode not installed */
; 439  :         SIE_SET_VI(SIE_VI_WHO_CPU, SIE_VI_WHEN_SIENT, SIE_VI_WHY_370NI, GUESTREGS);
; 440  :         STATEBK->c = SIE_C_VALIDITY;
; 441  :         return;
; 442  : #endif
; 443  :     }
; 444  : #endif /* !defined( FEATURE_001_ZARCH_INSTALLED_FACILITY ) */
; 445  :     else
; 446  : #if !defined( FEATURE_001_ZARCH_INSTALLED_FACILITY )
; 447  :     if (STATEBK->m & SIE_M_XA)
; 448  : #endif
; 449  :     {
; 450  :         GUESTREGS->arch_mode = ARCH_390_IDX;

  0061c	48 8b 84 24 38
	01 00 00	 mov	 rax, QWORD PTR regs$[rsp]
  00624	48 8b 80 70 08
	00 00		 mov	 rax, QWORD PTR [rax+2160]
  0062b	c7 40 64 01 00
	00 00		 mov	 DWORD PTR [rax+100], 1

; 451  :         GUESTREGS->program_interrupt = &s390_program_interrupt;

  00632	48 8b 84 24 38
	01 00 00	 mov	 rax, QWORD PTR regs$[rsp]
  0063a	48 8b 80 70 08
	00 00		 mov	 rax, QWORD PTR [rax+2160]
  00641	48 8d 0d 00 00
	00 00		 lea	 rcx, OFFSET FLAT:s390_program_interrupt
  00648	48 89 88 20 0d
	00 00		 mov	 QWORD PTR [rax+3360], rcx

; 452  :         lpsw_xcode = s390_load_psw(GUESTREGS, STATEBK->psw);

  0064f	48 8b 84 24 38
	01 00 00	 mov	 rax, QWORD PTR regs$[rsp]
  00657	48 8b 80 70 08
	00 00		 mov	 rax, QWORD PTR [rax+2160]
  0065e	48 8b 80 88 08
	00 00		 mov	 rax, QWORD PTR [rax+2184]
  00665	48 05 90 00 00
	00		 add	 rax, 144		; 00000090H
  0066b	48 8b d0	 mov	 rdx, rax
  0066e	48 8b 84 24 38
	01 00 00	 mov	 rax, QWORD PTR regs$[rsp]
  00676	48 8b 88 70 08
	00 00		 mov	 rcx, QWORD PTR [rax+2160]
  0067d	e8 00 00 00 00	 call	 s390_load_psw
  00682	89 44 24 78	 mov	 DWORD PTR lpsw_xcode$[rsp], eax
$LN115@z900_start:

; 453  :     }
; 454  : #if !defined( FEATURE_001_ZARCH_INSTALLED_FACILITY )
; 455  :     else
; 456  :     {
; 457  :         /* Validity intercept for invalid mode */
; 458  :         SIE_SET_VI( SIE_VI_WHO_CPU, SIE_VI_WHEN_SIENT, SIE_VI_WHY_MODE, GUESTREGS );
; 459  :         STATEBK->c = SIE_C_VALIDITY;
; 460  :         return;
; 461  :     }
; 462  : #endif
; 463  : 
; 464  :     /* Prefered guest indication */
; 465  :     GUESTREGS->sie_pref = (STATEBK->m & SIE_M_VR) ? 1 : 0;

  00686	48 8b 84 24 38
	01 00 00	 mov	 rax, QWORD PTR regs$[rsp]
  0068e	48 8b 80 70 08
	00 00		 mov	 rax, QWORD PTR [rax+2160]
  00695	48 8b 80 88 08
	00 00		 mov	 rax, QWORD PTR [rax+2184]
  0069c	0f b6 40 03	 movzx	 eax, BYTE PTR [rax+3]
  006a0	83 e0 08	 and	 eax, 8
  006a3	85 c0		 test	 eax, eax
  006a5	74 0d		 je	 SHORT $LN161@z900_start
  006a7	c7 84 24 9c 00
	00 00 01 00 00
	00		 mov	 DWORD PTR tv302[rsp], 1
  006b2	eb 0b		 jmp	 SHORT $LN162@z900_start
$LN161@z900_start:
  006b4	c7 84 24 9c 00
	00 00 00 00 00
	00		 mov	 DWORD PTR tv302[rsp], 0
$LN162@z900_start:
  006bf	48 8b 84 24 38
	01 00 00	 mov	 rax, QWORD PTR regs$[rsp]
  006c7	48 8b 80 70 08
	00 00		 mov	 rax, QWORD PTR [rax+2160]
  006ce	8b 8c 24 9c 00
	00 00		 mov	 ecx, DWORD PTR tv302[rsp]
  006d5	83 e1 01	 and	 ecx, 1
  006d8	c1 e1 02	 shl	 ecx, 2
  006db	8b 80 c8 08 00
	00		 mov	 eax, DWORD PTR [rax+2248]
  006e1	83 e0 fb	 and	 eax, -5			; fffffffbH
  006e4	0b c1		 or	 eax, ecx
  006e6	48 8b 8c 24 38
	01 00 00	 mov	 rcx, QWORD PTR regs$[rsp]
  006ee	48 8b 89 70 08
	00 00		 mov	 rcx, QWORD PTR [rcx+2160]
  006f5	89 81 c8 08 00
	00		 mov	 DWORD PTR [rcx+2248], eax

; 466  : 
; 467  :     /* Load prefix from state descriptor... (Using 'PX_L' is okay
; 468  :        since prefix is always a FWORD regardless of architecture) */
; 469  :     FETCH_FW( GUESTREGS->PX_L, STATEBK->prefix );

  006fb	48 8b 84 24 38
	01 00 00	 mov	 rax, QWORD PTR regs$[rsp]
  00703	48 8b 80 70 08
	00 00		 mov	 rax, QWORD PTR [rax+2160]
  0070a	48 8b 80 88 08
	00 00		 mov	 rax, QWORD PTR [rax+2184]
  00711	48 83 c0 04	 add	 rax, 4
  00715	48 8b c8	 mov	 rcx, rax
  00718	e8 00 00 00 00	 call	 fetch_fw_noswap
  0071d	8b c8		 mov	 ecx, eax
  0071f	e8 00 00 00 00	 call	 _byteswap_ulong
  00724	48 8b 8c 24 38
	01 00 00	 mov	 rcx, QWORD PTR regs$[rsp]
  0072c	48 8b 89 70 08
	00 00		 mov	 rcx, QWORD PTR [rcx+2160]
  00733	89 41 70	 mov	 DWORD PTR [rcx+112], eax

; 470  : 
; 471  : #if defined( FEATURE_REGION_RELOCATE )
; 472  : 
; 473  :     if (STATEBK->mx & SIE_MX_RRF)

  00736	48 8b 84 24 38
	01 00 00	 mov	 rax, QWORD PTR regs$[rsp]
  0073e	48 8b 80 70 08
	00 00		 mov	 rax, QWORD PTR [rax+2160]
  00745	48 8b 80 88 08
	00 00		 mov	 rax, QWORD PTR [rax+2184]
  0074c	0f b6 40 02	 movzx	 eax, BYTE PTR [rax+2]
  00750	25 80 00 00 00	 and	 eax, 128		; 00000080H
  00755	85 c0		 test	 eax, eax
  00757	0f 84 88 04 00
	00		 je	 $LN116@z900_start

; 474  :     {
; 475  :         RADR mso, msl, eso = 0, esl = 0;

  0075d	48 c7 84 24 c8
	00 00 00 00 00
	00 00		 mov	 QWORD PTR eso$5[rsp], 0
  00769	48 c7 84 24 d0
	00 00 00 00 00
	00 00		 mov	 QWORD PTR esl$6[rsp], 0

; 476  : 
; 477  :         if (STATEBK->zone >= FEATURE_SIE_MAXZONES)

  00775	48 8b 84 24 38
	01 00 00	 mov	 rax, QWORD PTR regs$[rsp]
  0077d	48 8b 80 70 08
	00 00		 mov	 rax, QWORD PTR [rax+2160]
  00784	48 8b 80 88 08
	00 00		 mov	 rax, QWORD PTR [rax+2184]
  0078b	0f b6 40 74	 movzx	 eax, BYTE PTR [rax+116]
  0078f	83 f8 08	 cmp	 eax, 8
  00792	0f 8c c2 00 00
	00		 jl	 $LN118@z900_start
$LN25@z900_start:

; 478  :         {
; 479  :             /* Validity intercept for invalid zone */
; 480  :             SIE_SET_VI( SIE_VI_WHO_CPU, SIE_VI_WHEN_SIENT, SIE_VI_WHY_AZNNI, GUESTREGS );

  00798	48 8b 84 24 38
	01 00 00	 mov	 rax, QWORD PTR regs$[rsp]
  007a0	48 8b 80 70 08
	00 00		 mov	 rax, QWORD PTR [rax+2160]
  007a7	48 8b 80 88 08
	00 00		 mov	 rax, QWORD PTR [rax+2184]
  007ae	b9 01 00 00 00	 mov	 ecx, 1
  007b3	48 6b c9 00	 imul	 rcx, rcx, 0
  007b7	c6 44 08 56 01	 mov	 BYTE PTR [rax+rcx+86], 1
  007bc	48 8b 84 24 38
	01 00 00	 mov	 rax, QWORD PTR regs$[rsp]
  007c4	48 8b 80 70 08
	00 00		 mov	 rax, QWORD PTR [rax+2160]
  007cb	48 8b 80 88 08
	00 00		 mov	 rax, QWORD PTR [rax+2184]
  007d2	b9 01 00 00 00	 mov	 ecx, 1
  007d7	48 6b c9 01	 imul	 rcx, rcx, 1
  007db	c6 44 08 56 10	 mov	 BYTE PTR [rax+rcx+86], 16
  007e0	66 b9 05 10	 mov	 cx, 4101		; 00001005H
  007e4	e8 00 00 00 00	 call	 _byteswap_ushort
  007e9	48 8b 8c 24 38
	01 00 00	 mov	 rcx, QWORD PTR regs$[rsp]
  007f1	48 8b 89 70 08
	00 00		 mov	 rcx, QWORD PTR [rcx+2160]
  007f8	48 8b 89 88 08
	00 00		 mov	 rcx, QWORD PTR [rcx+2184]
  007ff	48 83 c1 58	 add	 rcx, 88			; 00000058H
  00803	0f b7 d0	 movzx	 edx, ax
  00806	e8 00 00 00 00	 call	 store_hw_noswap
  0080b	48 8b 84 24 38
	01 00 00	 mov	 rax, QWORD PTR regs$[rsp]
  00813	48 8b 80 70 08
	00 00		 mov	 rax, QWORD PTR [rax+2160]
  0081a	48 8b 80 88 08
	00 00		 mov	 rax, QWORD PTR [rax+2184]
  00821	48 83 c0 5a	 add	 rax, 90			; 0000005aH
  00825	48 8b f8	 mov	 rdi, rax
  00828	33 c0		 xor	 eax, eax
  0082a	b9 06 00 00 00	 mov	 ecx, 6
  0082f	f3 aa		 rep stosb
  00831	33 c0		 xor	 eax, eax
  00833	85 c0		 test	 eax, eax
  00835	0f 85 5d ff ff
	ff		 jne	 $LN25@z900_start

; 481  :             STATEBK->c = SIE_C_VALIDITY;

  0083b	48 8b 84 24 38
	01 00 00	 mov	 rax, QWORD PTR regs$[rsp]
  00843	48 8b 80 70 08
	00 00		 mov	 rax, QWORD PTR [rax+2160]
  0084a	48 8b 80 88 08
	00 00		 mov	 rax, QWORD PTR [rax+2184]
  00851	c6 40 50 20	 mov	 BYTE PTR [rax+80], 32	; 00000020H

; 482  :             return;

  00855	e9 12 1f 00 00	 jmp	 $LN1@z900_start
$LN118@z900_start:

; 483  :         }
; 484  : 
; 485  :         mso = (sysblk.zpb[ STATEBK->zone ].mso & 0xFFFFF) << 20;

  0085a	48 8b 84 24 38
	01 00 00	 mov	 rax, QWORD PTR regs$[rsp]
  00862	48 8b 80 70 08
	00 00		 mov	 rax, QWORD PTR [rax+2160]
  00869	48 8b 80 88 08
	00 00		 mov	 rax, QWORD PTR [rax+2184]
  00870	0f b6 40 74	 movzx	 eax, BYTE PTR [rax+116]
  00874	48 6b c0 38	 imul	 rax, rax, 56		; 00000038H
  00878	48 8b 0d 00 00
	00 00		 mov	 rcx, QWORD PTR __imp_sysblk
  0087f	48 8b 84 01 a0
	0e 00 00	 mov	 rax, QWORD PTR [rcx+rax+3744]
  00887	48 25 ff ff 0f
	00		 and	 rax, 1048575		; 000fffffH
  0088d	48 c1 e0 14	 shl	 rax, 20
  00891	48 89 84 24 90
	00 00 00	 mov	 QWORD PTR mso$1[rsp], rax

; 486  :         msl = (sysblk.zpb[ STATEBK->zone ].msl & 0xFFFFF) << 20;

  00899	48 8b 84 24 38
	01 00 00	 mov	 rax, QWORD PTR regs$[rsp]
  008a1	48 8b 80 70 08
	00 00		 mov	 rax, QWORD PTR [rax+2160]
  008a8	48 8b 80 88 08
	00 00		 mov	 rax, QWORD PTR [rax+2184]
  008af	0f b6 40 74	 movzx	 eax, BYTE PTR [rax+116]
  008b3	48 6b c0 38	 imul	 rax, rax, 56		; 00000038H
  008b7	48 8b 0d 00 00
	00 00		 mov	 rcx, QWORD PTR __imp_sysblk
  008be	48 8b 84 01 a8
	0e 00 00	 mov	 rax, QWORD PTR [rcx+rax+3752]
  008c6	48 25 ff ff 0f
	00		 and	 rax, 1048575		; 000fffffH
  008cc	48 c1 e0 14	 shl	 rax, 20
  008d0	48 89 84 24 b0
	00 00 00	 mov	 QWORD PTR msl$3[rsp], rax

; 487  :         eso = (sysblk.zpb[ STATEBK->zone ].eso & 0xFFFFF) << 20;

  008d8	48 8b 84 24 38
	01 00 00	 mov	 rax, QWORD PTR regs$[rsp]
  008e0	48 8b 80 70 08
	00 00		 mov	 rax, QWORD PTR [rax+2160]
  008e7	48 8b 80 88 08
	00 00		 mov	 rax, QWORD PTR [rax+2184]
  008ee	0f b6 40 74	 movzx	 eax, BYTE PTR [rax+116]
  008f2	48 6b c0 38	 imul	 rax, rax, 56		; 00000038H
  008f6	48 8b 0d 00 00
	00 00		 mov	 rcx, QWORD PTR __imp_sysblk
  008fd	48 8b 84 01 b0
	0e 00 00	 mov	 rax, QWORD PTR [rcx+rax+3760]
  00905	48 25 ff ff 0f
	00		 and	 rax, 1048575		; 000fffffH
  0090b	48 c1 e0 14	 shl	 rax, 20
  0090f	48 89 84 24 c8
	00 00 00	 mov	 QWORD PTR eso$5[rsp], rax

; 488  :         esl = (sysblk.zpb[ STATEBK->zone ].esl & 0xFFFFF) << 20;

  00917	48 8b 84 24 38
	01 00 00	 mov	 rax, QWORD PTR regs$[rsp]
  0091f	48 8b 80 70 08
	00 00		 mov	 rax, QWORD PTR [rax+2160]
  00926	48 8b 80 88 08
	00 00		 mov	 rax, QWORD PTR [rax+2184]
  0092d	0f b6 40 74	 movzx	 eax, BYTE PTR [rax+116]
  00931	48 6b c0 38	 imul	 rax, rax, 56		; 00000038H
  00935	48 8b 0d 00 00
	00 00		 mov	 rcx, QWORD PTR __imp_sysblk
  0093c	48 8b 84 01 b8
	0e 00 00	 mov	 rax, QWORD PTR [rcx+rax+3768]
  00944	48 25 ff ff 0f
	00		 and	 rax, 1048575		; 000fffffH
  0094a	48 c1 e0 14	 shl	 rax, 20
  0094e	48 89 84 24 d0
	00 00 00	 mov	 QWORD PTR esl$6[rsp], rax

; 489  : 
; 490  :         if (mso > msl)

  00956	48 8b 84 24 b0
	00 00 00	 mov	 rax, QWORD PTR msl$3[rsp]
  0095e	48 39 84 24 90
	00 00 00	 cmp	 QWORD PTR mso$1[rsp], rax
  00966	0f 86 c2 00 00
	00		 jbe	 $LN119@z900_start
$LN28@z900_start:

; 491  :         {
; 492  :             /* Validity intercept for invalid zone */
; 493  :             SIE_SET_VI( SIE_VI_WHO_CPU, SIE_VI_WHEN_SIENT, SIE_VI_WHY_MSDEF, GUESTREGS );

  0096c	48 8b 84 24 38
	01 00 00	 mov	 rax, QWORD PTR regs$[rsp]
  00974	48 8b 80 70 08
	00 00		 mov	 rax, QWORD PTR [rax+2160]
  0097b	48 8b 80 88 08
	00 00		 mov	 rax, QWORD PTR [rax+2184]
  00982	b9 01 00 00 00	 mov	 ecx, 1
  00987	48 6b c9 00	 imul	 rcx, rcx, 0
  0098b	c6 44 08 56 01	 mov	 BYTE PTR [rax+rcx+86], 1
  00990	48 8b 84 24 38
	01 00 00	 mov	 rax, QWORD PTR regs$[rsp]
  00998	48 8b 80 70 08
	00 00		 mov	 rax, QWORD PTR [rax+2160]
  0099f	48 8b 80 88 08
	00 00		 mov	 rax, QWORD PTR [rax+2184]
  009a6	b9 01 00 00 00	 mov	 ecx, 1
  009ab	48 6b c9 01	 imul	 rcx, rcx, 1
  009af	c6 44 08 56 10	 mov	 BYTE PTR [rax+rcx+86], 16
  009b4	66 b9 41 00	 mov	 cx, 65			; 00000041H
  009b8	e8 00 00 00 00	 call	 _byteswap_ushort
  009bd	48 8b 8c 24 38
	01 00 00	 mov	 rcx, QWORD PTR regs$[rsp]
  009c5	48 8b 89 70 08
	00 00		 mov	 rcx, QWORD PTR [rcx+2160]
  009cc	48 8b 89 88 08
	00 00		 mov	 rcx, QWORD PTR [rcx+2184]
  009d3	48 83 c1 58	 add	 rcx, 88			; 00000058H
  009d7	0f b7 d0	 movzx	 edx, ax
  009da	e8 00 00 00 00	 call	 store_hw_noswap
  009df	48 8b 84 24 38
	01 00 00	 mov	 rax, QWORD PTR regs$[rsp]
  009e7	48 8b 80 70 08
	00 00		 mov	 rax, QWORD PTR [rax+2160]
  009ee	48 8b 80 88 08
	00 00		 mov	 rax, QWORD PTR [rax+2184]
  009f5	48 83 c0 5a	 add	 rax, 90			; 0000005aH
  009f9	48 8b f8	 mov	 rdi, rax
  009fc	33 c0		 xor	 eax, eax
  009fe	b9 06 00 00 00	 mov	 ecx, 6
  00a03	f3 aa		 rep stosb
  00a05	33 c0		 xor	 eax, eax
  00a07	85 c0		 test	 eax, eax
  00a09	0f 85 5d ff ff
	ff		 jne	 $LN28@z900_start

; 494  :             STATEBK->c = SIE_C_VALIDITY;

  00a0f	48 8b 84 24 38
	01 00 00	 mov	 rax, QWORD PTR regs$[rsp]
  00a17	48 8b 80 70 08
	00 00		 mov	 rax, QWORD PTR [rax+2160]
  00a1e	48 8b 80 88 08
	00 00		 mov	 rax, QWORD PTR [rax+2184]
  00a25	c6 40 50 20	 mov	 BYTE PTR [rax+80], 32	; 00000020H

; 495  :             return;

  00a29	e9 3e 1d 00 00	 jmp	 $LN1@z900_start
$LN119@z900_start:

; 496  :         }
; 497  : 
; 498  :         /* Ensure addressing exceptions on incorrect zone defs */
; 499  :         if (0
; 500  :             || mso > regs->mainlim
; 501  :             || msl > regs->mainlim

  00a2e	33 c0		 xor	 eax, eax
  00a30	85 c0		 test	 eax, eax
  00a32	75 32		 jne	 SHORT $LN121@z900_start
  00a34	48 8b 84 24 38
	01 00 00	 mov	 rax, QWORD PTR regs$[rsp]
  00a3c	48 8b 80 58 08
	00 00		 mov	 rax, QWORD PTR [rax+2136]
  00a43	48 39 84 24 90
	00 00 00	 cmp	 QWORD PTR mso$1[rsp], rax
  00a4b	77 19		 ja	 SHORT $LN121@z900_start
  00a4d	48 8b 84 24 38
	01 00 00	 mov	 rax, QWORD PTR regs$[rsp]
  00a55	48 8b 80 58 08
	00 00		 mov	 rax, QWORD PTR [rax+2136]
  00a5c	48 39 84 24 b0
	00 00 00	 cmp	 QWORD PTR msl$3[rsp], rax
  00a64	76 1c		 jbe	 SHORT $LN120@z900_start
$LN121@z900_start:

; 502  :         )
; 503  :             mso = msl = 0;

  00a66	48 c7 84 24 b0
	00 00 00 00 00
	00 00		 mov	 QWORD PTR msl$3[rsp], 0
  00a72	48 8b 84 24 b0
	00 00 00	 mov	 rax, QWORD PTR msl$3[rsp]
  00a7a	48 89 84 24 90
	00 00 00	 mov	 QWORD PTR mso$1[rsp], rax
$LN120@z900_start:

; 504  : 
; 505  : #if defined( SIE_DEBUG )
; 506  :         LOGMSG( "SIE: zone %d: mso=" F_RADR " msl=" F_RADR "\n", STATEBK->zone, mso, msl );
; 507  : #endif
; 508  : 
; 509  :         GUESTREGS->sie_pref  =  1;

  00a82	48 8b 84 24 38
	01 00 00	 mov	 rax, QWORD PTR regs$[rsp]
  00a8a	48 8b 80 70 08
	00 00		 mov	 rax, QWORD PTR [rax+2160]
  00a91	8b 80 c8 08 00
	00		 mov	 eax, DWORD PTR [rax+2248]
  00a97	83 c8 04	 or	 eax, 4
  00a9a	48 8b 8c 24 38
	01 00 00	 mov	 rcx, QWORD PTR regs$[rsp]
  00aa2	48 8b 89 70 08
	00 00		 mov	 rcx, QWORD PTR [rcx+2160]
  00aa9	89 81 c8 08 00
	00		 mov	 DWORD PTR [rcx+2248], eax

; 510  :         GUESTREGS->sie_mso   =  0;

  00aaf	48 8b 84 24 38
	01 00 00	 mov	 rax, QWORD PTR regs$[rsp]
  00ab7	48 8b 80 70 08
	00 00		 mov	 rax, QWORD PTR [rax+2160]
  00abe	48 c7 80 98 08
	00 00 00 00 00
	00		 mov	 QWORD PTR [rax+2200], 0

; 511  :         GUESTREGS->mainstor  =  &sysblk.mainstor[mso];

  00ac9	48 8b 05 00 00
	00 00		 mov	 rax, QWORD PTR __imp_sysblk
  00ad0	48 8b 80 98 00
	00 00		 mov	 rax, QWORD PTR [rax+152]
  00ad7	48 03 84 24 90
	00 00 00	 add	 rax, QWORD PTR mso$1[rsp]
  00adf	48 8b 8c 24 38
	01 00 00	 mov	 rcx, QWORD PTR regs$[rsp]
  00ae7	48 8b 89 70 08
	00 00		 mov	 rcx, QWORD PTR [rcx+2160]
  00aee	48 89 81 48 08
	00 00		 mov	 QWORD PTR [rcx+2120], rax

; 512  :         GUESTREGS->mainlim   =  msl - mso;

  00af5	48 8b 84 24 90
	00 00 00	 mov	 rax, QWORD PTR mso$1[rsp]
  00afd	48 8b 8c 24 b0
	00 00 00	 mov	 rcx, QWORD PTR msl$3[rsp]
  00b05	48 2b c8	 sub	 rcx, rax
  00b08	48 8b c1	 mov	 rax, rcx
  00b0b	48 8b 8c 24 38
	01 00 00	 mov	 rcx, QWORD PTR regs$[rsp]
  00b13	48 8b 89 70 08
	00 00		 mov	 rcx, QWORD PTR [rcx+2160]
  00b1a	48 89 81 58 08
	00 00		 mov	 QWORD PTR [rcx+2136], rax

; 513  :         GUESTREGS->storkeys  =  ARCH_DEP( get_ptr_to_storekey )( mso );

  00b21	48 8b 8c 24 90
	00 00 00	 mov	 rcx, QWORD PTR mso$1[rsp]
  00b29	e8 00 00 00 00	 call	 z900_get_ptr_to_storekey
  00b2e	48 8b 8c 24 38
	01 00 00	 mov	 rcx, QWORD PTR regs$[rsp]
  00b36	48 8b 89 70 08
	00 00		 mov	 rcx, QWORD PTR [rcx+2160]
  00b3d	48 89 81 50 08
	00 00		 mov	 QWORD PTR [rcx+2128], rax

; 514  :         GUESTREGS->sie_xso   =  eso;

  00b44	48 8b 84 24 38
	01 00 00	 mov	 rax, QWORD PTR regs$[rsp]
  00b4c	48 8b 80 70 08
	00 00		 mov	 rax, QWORD PTR [rax+2160]
  00b53	48 8b 8c 24 c8
	00 00 00	 mov	 rcx, QWORD PTR eso$5[rsp]
  00b5b	48 89 88 a0 08
	00 00		 mov	 QWORD PTR [rax+2208], rcx

; 515  :         GUESTREGS->sie_xsl   =  esl;

  00b62	48 8b 84 24 38
	01 00 00	 mov	 rax, QWORD PTR regs$[rsp]
  00b6a	48 8b 80 70 08
	00 00		 mov	 rax, QWORD PTR [rax+2160]
  00b71	48 8b 8c 24 d0
	00 00 00	 mov	 rcx, QWORD PTR esl$6[rsp]
  00b79	48 89 88 a8 08
	00 00		 mov	 QWORD PTR [rax+2216], rcx

; 516  :         GUESTREGS->sie_xso  *=  (XSTORE_INCREMENT_SIZE >> XSTORE_PAGESHIFT);

  00b80	48 8b 84 24 38
	01 00 00	 mov	 rax, QWORD PTR regs$[rsp]
  00b88	48 8b 80 70 08
	00 00		 mov	 rax, QWORD PTR [rax+2160]
  00b8f	48 69 80 a0 08
	00 00 00 01 00
	00		 imul	 rax, QWORD PTR [rax+2208], 256 ; 00000100H
  00b9a	48 8b 8c 24 38
	01 00 00	 mov	 rcx, QWORD PTR regs$[rsp]
  00ba2	48 8b 89 70 08
	00 00		 mov	 rcx, QWORD PTR [rcx+2160]
  00ba9	48 89 81 a0 08
	00 00		 mov	 QWORD PTR [rcx+2208], rax

; 517  :         GUESTREGS->sie_xsl  *=  (XSTORE_INCREMENT_SIZE >> XSTORE_PAGESHIFT);

  00bb0	48 8b 84 24 38
	01 00 00	 mov	 rax, QWORD PTR regs$[rsp]
  00bb8	48 8b 80 70 08
	00 00		 mov	 rax, QWORD PTR [rax+2160]
  00bbf	48 69 80 a8 08
	00 00 00 01 00
	00		 imul	 rax, QWORD PTR [rax+2216], 256 ; 00000100H
  00bca	48 8b 8c 24 38
	01 00 00	 mov	 rcx, QWORD PTR regs$[rsp]
  00bd2	48 8b 89 70 08
	00 00		 mov	 rcx, QWORD PTR [rcx+2160]
  00bd9	48 89 81 a8 08
	00 00		 mov	 QWORD PTR [rcx+2216], rax

; 518  :     }

  00be0	e9 db 04 00 00	 jmp	 $LN117@z900_start
$LN116@z900_start:

; 519  :     else
; 520  : #endif /* defined( FEATURE_REGION_RELOCATE ) */
; 521  :     {
; 522  :         GUESTREGS->mainstor = sysblk.mainstor;

  00be5	48 8b 84 24 38
	01 00 00	 mov	 rax, QWORD PTR regs$[rsp]
  00bed	48 8b 80 70 08
	00 00		 mov	 rax, QWORD PTR [rax+2160]
  00bf4	48 8b 0d 00 00
	00 00		 mov	 rcx, QWORD PTR __imp_sysblk
  00bfb	48 8b 89 98 00
	00 00		 mov	 rcx, QWORD PTR [rcx+152]
  00c02	48 89 88 48 08
	00 00		 mov	 QWORD PTR [rax+2120], rcx

; 523  :         GUESTREGS->storkeys = sysblk.storkeys;

  00c09	48 8b 84 24 38
	01 00 00	 mov	 rax, QWORD PTR regs$[rsp]
  00c11	48 8b 80 70 08
	00 00		 mov	 rax, QWORD PTR [rax+2160]
  00c18	48 8b 0d 00 00
	00 00		 mov	 rcx, QWORD PTR __imp_sysblk
  00c1f	48 8b 89 a0 00
	00 00		 mov	 rcx, QWORD PTR [rcx+160]
  00c26	48 89 88 50 08
	00 00		 mov	 QWORD PTR [rax+2128], rcx

; 524  : 
; 525  :         if (STATEBK->zone)

  00c2d	48 8b 84 24 38
	01 00 00	 mov	 rax, QWORD PTR regs$[rsp]
  00c35	48 8b 80 70 08
	00 00		 mov	 rax, QWORD PTR [rax+2160]
  00c3c	48 8b 80 88 08
	00 00		 mov	 rax, QWORD PTR [rax+2184]
  00c43	0f b6 40 74	 movzx	 eax, BYTE PTR [rax+116]
  00c47	85 c0		 test	 eax, eax
  00c49	0f 84 c2 00 00
	00		 je	 $LN122@z900_start
$LN31@z900_start:

; 526  :         {
; 527  :             /* Validity intercept for invalid zone */
; 528  :             SIE_SET_VI( SIE_VI_WHO_CPU, SIE_VI_WHEN_SIENT, SIE_VI_WHY_AZNNZ, GUESTREGS );

  00c4f	48 8b 84 24 38
	01 00 00	 mov	 rax, QWORD PTR regs$[rsp]
  00c57	48 8b 80 70 08
	00 00		 mov	 rax, QWORD PTR [rax+2160]
  00c5e	48 8b 80 88 08
	00 00		 mov	 rax, QWORD PTR [rax+2184]
  00c65	b9 01 00 00 00	 mov	 ecx, 1
  00c6a	48 6b c9 00	 imul	 rcx, rcx, 0
  00c6e	c6 44 08 56 01	 mov	 BYTE PTR [rax+rcx+86], 1
  00c73	48 8b 84 24 38
	01 00 00	 mov	 rax, QWORD PTR regs$[rsp]
  00c7b	48 8b 80 70 08
	00 00		 mov	 rax, QWORD PTR [rax+2160]
  00c82	48 8b 80 88 08
	00 00		 mov	 rax, QWORD PTR [rax+2184]
  00c89	b9 01 00 00 00	 mov	 ecx, 1
  00c8e	48 6b c9 01	 imul	 rcx, rcx, 1
  00c92	c6 44 08 56 10	 mov	 BYTE PTR [rax+rcx+86], 16
  00c97	66 b9 06 10	 mov	 cx, 4102		; 00001006H
  00c9b	e8 00 00 00 00	 call	 _byteswap_ushort
  00ca0	48 8b 8c 24 38
	01 00 00	 mov	 rcx, QWORD PTR regs$[rsp]
  00ca8	48 8b 89 70 08
	00 00		 mov	 rcx, QWORD PTR [rcx+2160]
  00caf	48 8b 89 88 08
	00 00		 mov	 rcx, QWORD PTR [rcx+2184]
  00cb6	48 83 c1 58	 add	 rcx, 88			; 00000058H
  00cba	0f b7 d0	 movzx	 edx, ax
  00cbd	e8 00 00 00 00	 call	 store_hw_noswap
  00cc2	48 8b 84 24 38
	01 00 00	 mov	 rax, QWORD PTR regs$[rsp]
  00cca	48 8b 80 70 08
	00 00		 mov	 rax, QWORD PTR [rax+2160]
  00cd1	48 8b 80 88 08
	00 00		 mov	 rax, QWORD PTR [rax+2184]
  00cd8	48 83 c0 5a	 add	 rax, 90			; 0000005aH
  00cdc	48 8b f8	 mov	 rdi, rax
  00cdf	33 c0		 xor	 eax, eax
  00ce1	b9 06 00 00 00	 mov	 ecx, 6
  00ce6	f3 aa		 rep stosb
  00ce8	33 c0		 xor	 eax, eax
  00cea	85 c0		 test	 eax, eax
  00cec	0f 85 5d ff ff
	ff		 jne	 $LN31@z900_start

; 529  :             STATEBK->c = SIE_C_VALIDITY;

  00cf2	48 8b 84 24 38
	01 00 00	 mov	 rax, QWORD PTR regs$[rsp]
  00cfa	48 8b 80 70 08
	00 00		 mov	 rax, QWORD PTR [rax+2160]
  00d01	48 8b 80 88 08
	00 00		 mov	 rax, QWORD PTR [rax+2184]
  00d08	c6 40 50 20	 mov	 BYTE PTR [rax+80], 32	; 00000020H

; 530  :             return;

  00d0c	e9 5b 1a 00 00	 jmp	 $LN1@z900_start
$LN122@z900_start:

; 531  :         }
; 532  : 
; 533  : #if defined( FEATURE_001_ZARCH_INSTALLED_FACILITY )
; 534  : 
; 535  :         /* Load main storage origin */
; 536  :         FETCH_DW( GUESTREGS->sie_mso, STATEBK->mso );

  00d11	48 8b 84 24 38
	01 00 00	 mov	 rax, QWORD PTR regs$[rsp]
  00d19	48 8b 80 70 08
	00 00		 mov	 rax, QWORD PTR [rax+2160]
  00d20	48 8b 80 88 08
	00 00		 mov	 rax, QWORD PTR [rax+2184]
  00d27	48 05 80 00 00
	00		 add	 rax, 128		; 00000080H
  00d2d	48 8b c8	 mov	 rcx, rax
  00d30	e8 00 00 00 00	 call	 fetch_dw_noswap
  00d35	48 8b c8	 mov	 rcx, rax
  00d38	e8 00 00 00 00	 call	 _byteswap_uint64
  00d3d	48 8b 8c 24 38
	01 00 00	 mov	 rcx, QWORD PTR regs$[rsp]
  00d45	48 8b 89 70 08
	00 00		 mov	 rcx, QWORD PTR [rcx+2160]
  00d4c	48 89 81 98 08
	00 00		 mov	 QWORD PTR [rcx+2200], rax

; 537  :         GUESTREGS->sie_mso &= SIE2_MS_MASK;

  00d53	48 8b 84 24 38
	01 00 00	 mov	 rax, QWORD PTR regs$[rsp]
  00d5b	48 8b 80 70 08
	00 00		 mov	 rax, QWORD PTR [rax+2160]
  00d62	48 8b 80 98 08
	00 00		 mov	 rax, QWORD PTR [rax+2200]
  00d69	48 25 00 00 f0
	ff		 and	 rax, -1048576		; fffffffffff00000H
  00d6f	48 8b 8c 24 38
	01 00 00	 mov	 rcx, QWORD PTR regs$[rsp]
  00d77	48 8b 89 70 08
	00 00		 mov	 rcx, QWORD PTR [rcx+2160]
  00d7e	48 89 81 98 08
	00 00		 mov	 QWORD PTR [rcx+2200], rax

; 538  : 
; 539  :         /* Load main storage extent */
; 540  :         FETCH_DW( GUESTREGS->mainlim, STATEBK->mse );

  00d85	48 8b 84 24 38
	01 00 00	 mov	 rax, QWORD PTR regs$[rsp]
  00d8d	48 8b 80 70 08
	00 00		 mov	 rax, QWORD PTR [rax+2160]
  00d94	48 8b 80 88 08
	00 00		 mov	 rax, QWORD PTR [rax+2184]
  00d9b	48 05 88 00 00
	00		 add	 rax, 136		; 00000088H
  00da1	48 8b c8	 mov	 rcx, rax
  00da4	e8 00 00 00 00	 call	 fetch_dw_noswap
  00da9	48 8b c8	 mov	 rcx, rax
  00dac	e8 00 00 00 00	 call	 _byteswap_uint64
  00db1	48 8b 8c 24 38
	01 00 00	 mov	 rcx, QWORD PTR regs$[rsp]
  00db9	48 8b 89 70 08
	00 00		 mov	 rcx, QWORD PTR [rcx+2160]
  00dc0	48 89 81 58 08
	00 00		 mov	 QWORD PTR [rcx+2136], rax

; 541  :         GUESTREGS->mainlim |= ~SIE2_MS_MASK;

  00dc7	48 8b 84 24 38
	01 00 00	 mov	 rax, QWORD PTR regs$[rsp]
  00dcf	48 8b 80 70 08
	00 00		 mov	 rax, QWORD PTR [rax+2160]
  00dd6	48 8b 80 58 08
	00 00		 mov	 rax, QWORD PTR [rax+2136]
  00ddd	48 0d ff ff 0f
	00		 or	 rax, 1048575		; 000fffffH
  00de3	48 8b 8c 24 38
	01 00 00	 mov	 rcx, QWORD PTR regs$[rsp]
  00deb	48 8b 89 70 08
	00 00		 mov	 rcx, QWORD PTR [rcx+2160]
  00df2	48 89 81 58 08
	00 00		 mov	 QWORD PTR [rcx+2136], rax

; 542  : 
; 543  :         if (GUESTREGS->sie_mso > GUESTREGS->mainlim)

  00df9	48 8b 84 24 38
	01 00 00	 mov	 rax, QWORD PTR regs$[rsp]
  00e01	48 8b 80 70 08
	00 00		 mov	 rax, QWORD PTR [rax+2160]
  00e08	48 8b 8c 24 38
	01 00 00	 mov	 rcx, QWORD PTR regs$[rsp]
  00e10	48 8b 89 70 08
	00 00		 mov	 rcx, QWORD PTR [rcx+2160]
  00e17	48 8b 89 58 08
	00 00		 mov	 rcx, QWORD PTR [rcx+2136]
  00e1e	48 39 88 98 08
	00 00		 cmp	 QWORD PTR [rax+2200], rcx
  00e25	0f 86 c2 00 00
	00		 jbe	 $LN123@z900_start
$LN34@z900_start:

; 544  :         {
; 545  :             SIE_SET_VI( SIE_VI_WHO_CPU, SIE_VI_WHEN_SIENT, SIE_VI_WHY_MSDEF, GUESTREGS );

  00e2b	48 8b 84 24 38
	01 00 00	 mov	 rax, QWORD PTR regs$[rsp]
  00e33	48 8b 80 70 08
	00 00		 mov	 rax, QWORD PTR [rax+2160]
  00e3a	48 8b 80 88 08
	00 00		 mov	 rax, QWORD PTR [rax+2184]
  00e41	b9 01 00 00 00	 mov	 ecx, 1
  00e46	48 6b c9 00	 imul	 rcx, rcx, 0
  00e4a	c6 44 08 56 01	 mov	 BYTE PTR [rax+rcx+86], 1
  00e4f	48 8b 84 24 38
	01 00 00	 mov	 rax, QWORD PTR regs$[rsp]
  00e57	48 8b 80 70 08
	00 00		 mov	 rax, QWORD PTR [rax+2160]
  00e5e	48 8b 80 88 08
	00 00		 mov	 rax, QWORD PTR [rax+2184]
  00e65	b9 01 00 00 00	 mov	 ecx, 1
  00e6a	48 6b c9 01	 imul	 rcx, rcx, 1
  00e6e	c6 44 08 56 10	 mov	 BYTE PTR [rax+rcx+86], 16
  00e73	66 b9 41 00	 mov	 cx, 65			; 00000041H
  00e77	e8 00 00 00 00	 call	 _byteswap_ushort
  00e7c	48 8b 8c 24 38
	01 00 00	 mov	 rcx, QWORD PTR regs$[rsp]
  00e84	48 8b 89 70 08
	00 00		 mov	 rcx, QWORD PTR [rcx+2160]
  00e8b	48 8b 89 88 08
	00 00		 mov	 rcx, QWORD PTR [rcx+2184]
  00e92	48 83 c1 58	 add	 rcx, 88			; 00000058H
  00e96	0f b7 d0	 movzx	 edx, ax
  00e99	e8 00 00 00 00	 call	 store_hw_noswap
  00e9e	48 8b 84 24 38
	01 00 00	 mov	 rax, QWORD PTR regs$[rsp]
  00ea6	48 8b 80 70 08
	00 00		 mov	 rax, QWORD PTR [rax+2160]
  00ead	48 8b 80 88 08
	00 00		 mov	 rax, QWORD PTR [rax+2184]
  00eb4	48 83 c0 5a	 add	 rax, 90			; 0000005aH
  00eb8	48 8b f8	 mov	 rdi, rax
  00ebb	33 c0		 xor	 eax, eax
  00ebd	b9 06 00 00 00	 mov	 ecx, 6
  00ec2	f3 aa		 rep stosb
  00ec4	33 c0		 xor	 eax, eax
  00ec6	85 c0		 test	 eax, eax
  00ec8	0f 85 5d ff ff
	ff		 jne	 $LN34@z900_start

; 546  :             STATEBK->c = SIE_C_VALIDITY;

  00ece	48 8b 84 24 38
	01 00 00	 mov	 rax, QWORD PTR regs$[rsp]
  00ed6	48 8b 80 70 08
	00 00		 mov	 rax, QWORD PTR [rax+2160]
  00edd	48 8b 80 88 08
	00 00		 mov	 rax, QWORD PTR [rax+2184]
  00ee4	c6 40 50 20	 mov	 BYTE PTR [rax+80], 32	; 00000020H

; 547  :             return;

  00ee8	e9 7f 18 00 00	 jmp	 $LN1@z900_start
$LN123@z900_start:

; 548  :         }
; 549  : 
; 550  :         /* Calculate main storage size */
; 551  :         GUESTREGS->mainlim -= GUESTREGS->sie_mso;

  00eed	48 8b 84 24 38
	01 00 00	 mov	 rax, QWORD PTR regs$[rsp]
  00ef5	48 8b 80 70 08
	00 00		 mov	 rax, QWORD PTR [rax+2160]
  00efc	48 8b 8c 24 38
	01 00 00	 mov	 rcx, QWORD PTR regs$[rsp]
  00f04	48 8b 89 70 08
	00 00		 mov	 rcx, QWORD PTR [rcx+2160]
  00f0b	48 8b 89 98 08
	00 00		 mov	 rcx, QWORD PTR [rcx+2200]
  00f12	48 8b 80 58 08
	00 00		 mov	 rax, QWORD PTR [rax+2136]
  00f19	48 2b c1	 sub	 rax, rcx
  00f1c	48 8b 8c 24 38
	01 00 00	 mov	 rcx, QWORD PTR regs$[rsp]
  00f24	48 8b 89 70 08
	00 00		 mov	 rcx, QWORD PTR [rcx+2160]
  00f2b	48 89 81 58 08
	00 00		 mov	 QWORD PTR [rcx+2136], rax

; 552  : 
; 553  : #else /* !defined( FEATURE_001_ZARCH_INSTALLED_FACILITY ) */
; 554  : 
; 555  :         /* Load main storage origin */
; 556  :         FETCH_HW( GUESTREGS->sie_mso, STATEBK->mso );
; 557  :         GUESTREGS->sie_mso <<= 16;
; 558  : 
; 559  :         /* Load main storage extent */
; 560  :         FETCH_HW( GUESTREGS->mainlim, STATEBK->mse );
; 561  :         GUESTREGS->mainlim = ((GUESTREGS->mainlim + 1) << 16) - 1;
; 562  : 
; 563  : #endif /* defined( FEATURE_001_ZARCH_INSTALLED_FACILITY ) */
; 564  : 
; 565  :         /* Load expanded storage origin */
; 566  :         GUESTREGS->sie_xso = STATEBK->xso[0] << 16

  00f32	48 8b 84 24 38
	01 00 00	 mov	 rax, QWORD PTR regs$[rsp]
  00f3a	48 8b 80 70 08
	00 00		 mov	 rax, QWORD PTR [rax+2160]
  00f41	48 8b 80 88 08
	00 00		 mov	 rax, QWORD PTR [rax+2184]
  00f48	b9 01 00 00 00	 mov	 ecx, 1
  00f4d	48 6b c9 00	 imul	 rcx, rcx, 0
  00f51	0f b6 84 08 ba
	00 00 00	 movzx	 eax, BYTE PTR [rax+rcx+186]
  00f59	c1 e0 10	 shl	 eax, 16
  00f5c	48 8b 8c 24 38
	01 00 00	 mov	 rcx, QWORD PTR regs$[rsp]
  00f64	48 8b 89 70 08
	00 00		 mov	 rcx, QWORD PTR [rcx+2160]
  00f6b	48 8b 89 88 08
	00 00		 mov	 rcx, QWORD PTR [rcx+2184]
  00f72	ba 01 00 00 00	 mov	 edx, 1
  00f77	48 6b d2 01	 imul	 rdx, rdx, 1
  00f7b	0f b6 8c 11 ba
	00 00 00	 movzx	 ecx, BYTE PTR [rcx+rdx+186]
  00f83	c1 e1 08	 shl	 ecx, 8
  00f86	0b c1		 or	 eax, ecx
  00f88	48 8b 8c 24 38
	01 00 00	 mov	 rcx, QWORD PTR regs$[rsp]
  00f90	48 8b 89 70 08
	00 00		 mov	 rcx, QWORD PTR [rcx+2160]
  00f97	48 8b 89 88 08
	00 00		 mov	 rcx, QWORD PTR [rcx+2184]
  00f9e	ba 01 00 00 00	 mov	 edx, 1
  00fa3	48 6b d2 02	 imul	 rdx, rdx, 2
  00fa7	0f b6 8c 11 ba
	00 00 00	 movzx	 ecx, BYTE PTR [rcx+rdx+186]
  00faf	0b c1		 or	 eax, ecx
  00fb1	48 8b 8c 24 38
	01 00 00	 mov	 rcx, QWORD PTR regs$[rsp]
  00fb9	48 8b 89 70 08
	00 00		 mov	 rcx, QWORD PTR [rcx+2160]
  00fc0	48 98		 cdqe
  00fc2	48 89 81 a0 08
	00 00		 mov	 QWORD PTR [rcx+2208], rax

; 567  :                            | STATEBK->xso[1] <<  8
; 568  :                            | STATEBK->xso[2];
; 569  :         GUESTREGS->sie_xso *= (XSTORE_INCREMENT_SIZE >> XSTORE_PAGESHIFT);

  00fc9	48 8b 84 24 38
	01 00 00	 mov	 rax, QWORD PTR regs$[rsp]
  00fd1	48 8b 80 70 08
	00 00		 mov	 rax, QWORD PTR [rax+2160]
  00fd8	48 69 80 a0 08
	00 00 00 01 00
	00		 imul	 rax, QWORD PTR [rax+2208], 256 ; 00000100H
  00fe3	48 8b 8c 24 38
	01 00 00	 mov	 rcx, QWORD PTR regs$[rsp]
  00feb	48 8b 89 70 08
	00 00		 mov	 rcx, QWORD PTR [rcx+2160]
  00ff2	48 89 81 a0 08
	00 00		 mov	 QWORD PTR [rcx+2208], rax

; 570  : 
; 571  :         /* Load expanded storage limit */
; 572  :         GUESTREGS->sie_xsl = STATEBK->xsl[0] << 16

  00ff9	48 8b 84 24 38
	01 00 00	 mov	 rax, QWORD PTR regs$[rsp]
  01001	48 8b 80 70 08
	00 00		 mov	 rax, QWORD PTR [rax+2160]
  01008	48 8b 80 88 08
	00 00		 mov	 rax, QWORD PTR [rax+2184]
  0100f	b9 01 00 00 00	 mov	 ecx, 1
  01014	48 6b c9 00	 imul	 rcx, rcx, 0
  01018	0f b6 84 08 bd
	00 00 00	 movzx	 eax, BYTE PTR [rax+rcx+189]
  01020	c1 e0 10	 shl	 eax, 16
  01023	48 8b 8c 24 38
	01 00 00	 mov	 rcx, QWORD PTR regs$[rsp]
  0102b	48 8b 89 70 08
	00 00		 mov	 rcx, QWORD PTR [rcx+2160]
  01032	48 8b 89 88 08
	00 00		 mov	 rcx, QWORD PTR [rcx+2184]
  01039	ba 01 00 00 00	 mov	 edx, 1
  0103e	48 6b d2 01	 imul	 rdx, rdx, 1
  01042	0f b6 8c 11 bd
	00 00 00	 movzx	 ecx, BYTE PTR [rcx+rdx+189]
  0104a	c1 e1 08	 shl	 ecx, 8
  0104d	0b c1		 or	 eax, ecx
  0104f	48 8b 8c 24 38
	01 00 00	 mov	 rcx, QWORD PTR regs$[rsp]
  01057	48 8b 89 70 08
	00 00		 mov	 rcx, QWORD PTR [rcx+2160]
  0105e	48 8b 89 88 08
	00 00		 mov	 rcx, QWORD PTR [rcx+2184]
  01065	ba 01 00 00 00	 mov	 edx, 1
  0106a	48 6b d2 02	 imul	 rdx, rdx, 2
  0106e	0f b6 8c 11 bd
	00 00 00	 movzx	 ecx, BYTE PTR [rcx+rdx+189]
  01076	0b c1		 or	 eax, ecx
  01078	48 8b 8c 24 38
	01 00 00	 mov	 rcx, QWORD PTR regs$[rsp]
  01080	48 8b 89 70 08
	00 00		 mov	 rcx, QWORD PTR [rcx+2160]
  01087	48 98		 cdqe
  01089	48 89 81 a8 08
	00 00		 mov	 QWORD PTR [rcx+2216], rax

; 573  :                            | STATEBK->xsl[1] <<  8
; 574  :                            | STATEBK->xsl[2];
; 575  :         GUESTREGS->sie_xsl *= (XSTORE_INCREMENT_SIZE >> XSTORE_PAGESHIFT);

  01090	48 8b 84 24 38
	01 00 00	 mov	 rax, QWORD PTR regs$[rsp]
  01098	48 8b 80 70 08
	00 00		 mov	 rax, QWORD PTR [rax+2160]
  0109f	48 69 80 a8 08
	00 00 00 01 00
	00		 imul	 rax, QWORD PTR [rax+2216], 256 ; 00000100H
  010aa	48 8b 8c 24 38
	01 00 00	 mov	 rcx, QWORD PTR regs$[rsp]
  010b2	48 8b 89 70 08
	00 00		 mov	 rcx, QWORD PTR [rcx+2160]
  010b9	48 89 81 a8 08
	00 00		 mov	 QWORD PTR [rcx+2216], rax
$LN117@z900_start:

; 576  :     }
; 577  : 
; 578  :     /* Validate Guest prefix */
; 579  :     if (GUESTREGS->PX > GUESTREGS->mainlim)

  010c0	48 8b 84 24 38
	01 00 00	 mov	 rax, QWORD PTR regs$[rsp]
  010c8	48 8b 80 70 08
	00 00		 mov	 rax, QWORD PTR [rax+2160]
  010cf	48 8b 8c 24 38
	01 00 00	 mov	 rcx, QWORD PTR regs$[rsp]
  010d7	48 8b 89 70 08
	00 00		 mov	 rcx, QWORD PTR [rcx+2160]
  010de	48 8b 89 58 08
	00 00		 mov	 rcx, QWORD PTR [rcx+2136]
  010e5	48 39 48 70	 cmp	 QWORD PTR [rax+112], rcx
  010e9	0f 86 c2 00 00
	00		 jbe	 $LN124@z900_start
$LN37@z900_start:

; 580  :     {
; 581  :         SIE_SET_VI( SIE_VI_WHO_CPU, SIE_VI_WHEN_SIENT, SIE_VI_WHY_PFOUT, GUESTREGS );

  010ef	48 8b 84 24 38
	01 00 00	 mov	 rax, QWORD PTR regs$[rsp]
  010f7	48 8b 80 70 08
	00 00		 mov	 rax, QWORD PTR [rax+2160]
  010fe	48 8b 80 88 08
	00 00		 mov	 rax, QWORD PTR [rax+2184]
  01105	b9 01 00 00 00	 mov	 ecx, 1
  0110a	48 6b c9 00	 imul	 rcx, rcx, 0
  0110e	c6 44 08 56 01	 mov	 BYTE PTR [rax+rcx+86], 1
  01113	48 8b 84 24 38
	01 00 00	 mov	 rax, QWORD PTR regs$[rsp]
  0111b	48 8b 80 70 08
	00 00		 mov	 rax, QWORD PTR [rax+2160]
  01122	48 8b 80 88 08
	00 00		 mov	 rax, QWORD PTR [rax+2184]
  01129	b9 01 00 00 00	 mov	 ecx, 1
  0112e	48 6b c9 01	 imul	 rcx, rcx, 1
  01132	c6 44 08 56 10	 mov	 BYTE PTR [rax+rcx+86], 16
  01137	66 b9 10 00	 mov	 cx, 16
  0113b	e8 00 00 00 00	 call	 _byteswap_ushort
  01140	48 8b 8c 24 38
	01 00 00	 mov	 rcx, QWORD PTR regs$[rsp]
  01148	48 8b 89 70 08
	00 00		 mov	 rcx, QWORD PTR [rcx+2160]
  0114f	48 8b 89 88 08
	00 00		 mov	 rcx, QWORD PTR [rcx+2184]
  01156	48 83 c1 58	 add	 rcx, 88			; 00000058H
  0115a	0f b7 d0	 movzx	 edx, ax
  0115d	e8 00 00 00 00	 call	 store_hw_noswap
  01162	48 8b 84 24 38
	01 00 00	 mov	 rax, QWORD PTR regs$[rsp]
  0116a	48 8b 80 70 08
	00 00		 mov	 rax, QWORD PTR [rax+2160]
  01171	48 8b 80 88 08
	00 00		 mov	 rax, QWORD PTR [rax+2184]
  01178	48 83 c0 5a	 add	 rax, 90			; 0000005aH
  0117c	48 8b f8	 mov	 rdi, rax
  0117f	33 c0		 xor	 eax, eax
  01181	b9 06 00 00 00	 mov	 ecx, 6
  01186	f3 aa		 rep stosb
  01188	33 c0		 xor	 eax, eax
  0118a	85 c0		 test	 eax, eax
  0118c	0f 85 5d ff ff
	ff		 jne	 $LN37@z900_start

; 582  :         STATEBK->c = SIE_C_VALIDITY;

  01192	48 8b 84 24 38
	01 00 00	 mov	 rax, QWORD PTR regs$[rsp]
  0119a	48 8b 80 70 08
	00 00		 mov	 rax, QWORD PTR [rax+2160]
  011a1	48 8b 80 88 08
	00 00		 mov	 rax, QWORD PTR [rax+2184]
  011a8	c6 40 50 20	 mov	 BYTE PTR [rax+80], 32	; 00000020H

; 583  :         return;

  011ac	e9 bb 15 00 00	 jmp	 $LN1@z900_start
$LN124@z900_start:

; 584  :     }
; 585  : 
; 586  :     /* System Control Area Origin */
; 587  :     FETCH_FW( GUESTREGS->sie_scao, STATEBK->scao );

  011b1	48 8b 84 24 38
	01 00 00	 mov	 rax, QWORD PTR regs$[rsp]
  011b9	48 8b 80 70 08
	00 00		 mov	 rax, QWORD PTR [rax+2160]
  011c0	48 8b 80 88 08
	00 00		 mov	 rax, QWORD PTR [rax+2184]
  011c7	48 83 c0 64	 add	 rax, 100		; 00000064H
  011cb	48 8b c8	 mov	 rcx, rax
  011ce	e8 00 00 00 00	 call	 fetch_fw_noswap
  011d3	8b c8		 mov	 ecx, eax
  011d5	e8 00 00 00 00	 call	 _byteswap_ulong
  011da	48 8b 8c 24 38
	01 00 00	 mov	 rcx, QWORD PTR regs$[rsp]
  011e2	48 8b 89 70 08
	00 00		 mov	 rcx, QWORD PTR [rcx+2160]
  011e9	8b c0		 mov	 eax, eax
  011eb	48 89 81 b8 08
	00 00		 mov	 QWORD PTR [rcx+2232], rax

; 588  :     GUESTREGS->sie_scao &= SIEISCAM;

  011f2	48 8b 84 24 38
	01 00 00	 mov	 rax, QWORD PTR regs$[rsp]
  011fa	48 8b 80 70 08
	00 00		 mov	 rax, QWORD PTR [rax+2160]
  01201	b9 f0 ff ff ff	 mov	 ecx, -16		; fffffff0H
  01206	48 8b 80 b8 08
	00 00		 mov	 rax, QWORD PTR [rax+2232]
  0120d	48 23 c1	 and	 rax, rcx
  01210	48 8b 8c 24 38
	01 00 00	 mov	 rcx, QWORD PTR regs$[rsp]
  01218	48 8b 89 70 08
	00 00		 mov	 rcx, QWORD PTR [rcx+2160]
  0121f	48 89 81 b8 08
	00 00		 mov	 QWORD PTR [rcx+2232], rax

; 589  : 
; 590  : #if defined( FEATURE_001_ZARCH_INSTALLED_FACILITY )
; 591  :     {
; 592  :         /* For ESAME insert the high word of the address */
; 593  :         U32 sie_scaoh;
; 594  :         FETCH_FW( sie_scaoh, STATEBK->scaoh );

  01226	48 8b 84 24 38
	01 00 00	 mov	 rax, QWORD PTR regs$[rsp]
  0122e	48 8b 80 70 08
	00 00		 mov	 rax, QWORD PTR [rax+2160]
  01235	48 8b 80 88 08
	00 00		 mov	 rax, QWORD PTR [rax+2184]
  0123c	48 83 c0 5c	 add	 rax, 92			; 0000005cH
  01240	48 8b c8	 mov	 rcx, rax
  01243	e8 00 00 00 00	 call	 fetch_fw_noswap
  01248	8b c8		 mov	 ecx, eax
  0124a	e8 00 00 00 00	 call	 _byteswap_ulong
  0124f	89 84 24 bc 00
	00 00		 mov	 DWORD PTR sie_scaoh$4[rsp], eax

; 595  :         GUESTREGS->sie_scao |= (RADR)sie_scaoh << 32;

  01256	48 8b 84 24 38
	01 00 00	 mov	 rax, QWORD PTR regs$[rsp]
  0125e	48 8b 80 70 08
	00 00		 mov	 rax, QWORD PTR [rax+2160]
  01265	8b 8c 24 bc 00
	00 00		 mov	 ecx, DWORD PTR sie_scaoh$4[rsp]
  0126c	48 c1 e1 20	 shl	 rcx, 32			; 00000020H
  01270	48 8b 80 b8 08
	00 00		 mov	 rax, QWORD PTR [rax+2232]
  01277	48 0b c1	 or	 rax, rcx
  0127a	48 8b 8c 24 38
	01 00 00	 mov	 rcx, QWORD PTR regs$[rsp]
  01282	48 8b 89 70 08
	00 00		 mov	 rcx, QWORD PTR [rcx+2160]
  01289	48 89 81 b8 08
	00 00		 mov	 QWORD PTR [rcx+2232], rax

; 596  :     }
; 597  : #endif
; 598  : 
; 599  :     if (GUESTREGS->sie_scao > regs->mainlim)

  01290	48 8b 84 24 38
	01 00 00	 mov	 rax, QWORD PTR regs$[rsp]
  01298	48 8b 80 70 08
	00 00		 mov	 rax, QWORD PTR [rax+2160]
  0129f	48 8b 8c 24 38
	01 00 00	 mov	 rcx, QWORD PTR regs$[rsp]
  012a7	48 8b 89 58 08
	00 00		 mov	 rcx, QWORD PTR [rcx+2136]
  012ae	48 39 88 b8 08
	00 00		 cmp	 QWORD PTR [rax+2232], rcx
  012b5	0f 86 c2 00 00
	00		 jbe	 $LN125@z900_start
$LN40@z900_start:

; 600  :     {
; 601  :         SIE_SET_VI( SIE_VI_WHO_CPU, SIE_VI_WHEN_SIENT, SIE_VI_WHY_SCADR, GUESTREGS );

  012bb	48 8b 84 24 38
	01 00 00	 mov	 rax, QWORD PTR regs$[rsp]
  012c3	48 8b 80 70 08
	00 00		 mov	 rax, QWORD PTR [rax+2160]
  012ca	48 8b 80 88 08
	00 00		 mov	 rax, QWORD PTR [rax+2184]
  012d1	b9 01 00 00 00	 mov	 ecx, 1
  012d6	48 6b c9 00	 imul	 rcx, rcx, 0
  012da	c6 44 08 56 01	 mov	 BYTE PTR [rax+rcx+86], 1
  012df	48 8b 84 24 38
	01 00 00	 mov	 rax, QWORD PTR regs$[rsp]
  012e7	48 8b 80 70 08
	00 00		 mov	 rax, QWORD PTR [rax+2160]
  012ee	48 8b 80 88 08
	00 00		 mov	 rax, QWORD PTR [rax+2184]
  012f5	b9 01 00 00 00	 mov	 ecx, 1
  012fa	48 6b c9 01	 imul	 rcx, rcx, 1
  012fe	c6 44 08 56 10	 mov	 BYTE PTR [rax+rcx+86], 16
  01303	66 b9 34 00	 mov	 cx, 52			; 00000034H
  01307	e8 00 00 00 00	 call	 _byteswap_ushort
  0130c	48 8b 8c 24 38
	01 00 00	 mov	 rcx, QWORD PTR regs$[rsp]
  01314	48 8b 89 70 08
	00 00		 mov	 rcx, QWORD PTR [rcx+2160]
  0131b	48 8b 89 88 08
	00 00		 mov	 rcx, QWORD PTR [rcx+2184]
  01322	48 83 c1 58	 add	 rcx, 88			; 00000058H
  01326	0f b7 d0	 movzx	 edx, ax
  01329	e8 00 00 00 00	 call	 store_hw_noswap
  0132e	48 8b 84 24 38
	01 00 00	 mov	 rax, QWORD PTR regs$[rsp]
  01336	48 8b 80 70 08
	00 00		 mov	 rax, QWORD PTR [rax+2160]
  0133d	48 8b 80 88 08
	00 00		 mov	 rax, QWORD PTR [rax+2184]
  01344	48 83 c0 5a	 add	 rax, 90			; 0000005aH
  01348	48 8b f8	 mov	 rdi, rax
  0134b	33 c0		 xor	 eax, eax
  0134d	b9 06 00 00 00	 mov	 ecx, 6
  01352	f3 aa		 rep stosb
  01354	33 c0		 xor	 eax, eax
  01356	85 c0		 test	 eax, eax
  01358	0f 85 5d ff ff
	ff		 jne	 $LN40@z900_start

; 602  :         STATEBK->c = SIE_C_VALIDITY;

  0135e	48 8b 84 24 38
	01 00 00	 mov	 rax, QWORD PTR regs$[rsp]
  01366	48 8b 80 70 08
	00 00		 mov	 rax, QWORD PTR [rax+2160]
  0136d	48 8b 80 88 08
	00 00		 mov	 rax, QWORD PTR [rax+2184]
  01374	c6 40 50 20	 mov	 BYTE PTR [rax+80], 32	; 00000020H

; 603  :         return;

  01378	e9 ef 13 00 00	 jmp	 $LN1@z900_start
$LN125@z900_start:

; 604  :     }
; 605  : 
; 606  :     /* Validate MSO */
; 607  :     if (GUESTREGS->sie_mso)

  0137d	48 8b 84 24 38
	01 00 00	 mov	 rax, QWORD PTR regs$[rsp]
  01385	48 8b 80 70 08
	00 00		 mov	 rax, QWORD PTR [rax+2160]
  0138c	48 83 b8 98 08
	00 00 00	 cmp	 QWORD PTR [rax+2200], 0
  01394	0f 84 cc 01 00
	00		 je	 $LN126@z900_start

; 608  :     {
; 609  :         /* Preferred guest must have zero MSO */
; 610  :         if (GUESTREGS->sie_pref)

  0139a	48 8b 84 24 38
	01 00 00	 mov	 rax, QWORD PTR regs$[rsp]
  013a2	48 8b 80 70 08
	00 00		 mov	 rax, QWORD PTR [rax+2160]
  013a9	8b 80 c8 08 00
	00		 mov	 eax, DWORD PTR [rax+2248]
  013af	c1 e8 02	 shr	 eax, 2
  013b2	83 e0 01	 and	 eax, 1
  013b5	85 c0		 test	 eax, eax
  013b7	0f 84 c2 00 00
	00		 je	 $LN127@z900_start
$LN43@z900_start:

; 611  :         {
; 612  :             SIE_SET_VI( SIE_VI_WHO_CPU, SIE_VI_WHEN_SIENT, SIE_VI_WHY_MSONZ, GUESTREGS );

  013bd	48 8b 84 24 38
	01 00 00	 mov	 rax, QWORD PTR regs$[rsp]
  013c5	48 8b 80 70 08
	00 00		 mov	 rax, QWORD PTR [rax+2160]
  013cc	48 8b 80 88 08
	00 00		 mov	 rax, QWORD PTR [rax+2184]
  013d3	b9 01 00 00 00	 mov	 ecx, 1
  013d8	48 6b c9 00	 imul	 rcx, rcx, 0
  013dc	c6 44 08 56 01	 mov	 BYTE PTR [rax+rcx+86], 1
  013e1	48 8b 84 24 38
	01 00 00	 mov	 rax, QWORD PTR regs$[rsp]
  013e9	48 8b 80 70 08
	00 00		 mov	 rax, QWORD PTR [rax+2160]
  013f0	48 8b 80 88 08
	00 00		 mov	 rax, QWORD PTR [rax+2184]
  013f7	b9 01 00 00 00	 mov	 ecx, 1
  013fc	48 6b c9 01	 imul	 rcx, rcx, 1
  01400	c6 44 08 56 10	 mov	 BYTE PTR [rax+rcx+86], 16
  01405	66 b9 51 00	 mov	 cx, 81			; 00000051H
  01409	e8 00 00 00 00	 call	 _byteswap_ushort
  0140e	48 8b 8c 24 38
	01 00 00	 mov	 rcx, QWORD PTR regs$[rsp]
  01416	48 8b 89 70 08
	00 00		 mov	 rcx, QWORD PTR [rcx+2160]
  0141d	48 8b 89 88 08
	00 00		 mov	 rcx, QWORD PTR [rcx+2184]
  01424	48 83 c1 58	 add	 rcx, 88			; 00000058H
  01428	0f b7 d0	 movzx	 edx, ax
  0142b	e8 00 00 00 00	 call	 store_hw_noswap
  01430	48 8b 84 24 38
	01 00 00	 mov	 rax, QWORD PTR regs$[rsp]
  01438	48 8b 80 70 08
	00 00		 mov	 rax, QWORD PTR [rax+2160]
  0143f	48 8b 80 88 08
	00 00		 mov	 rax, QWORD PTR [rax+2184]
