; Listing generated by Microsoft (R) Optimizing Compiler Version 19.34.31937.0 

include listing.inc

INCLUDELIB MSVCRTD
INCLUDELIB OLDNAMES

PUBLIC	TapeDevtypeList
PUBLIC	TapeCommandTable
PUBLIC	TapeSenseTable
PUBLIC	TapeImmedOther
PUBLIC	TapeImmed3590
PUBLIC	build_sense_3410
PUBLIC	build_sense_3420
PUBLIC	build_sense_3480_etal
PUBLIC	build_sense_3490
PUBLIC	build_sense_3590
PUBLIC	build_sense_Streaming
PUBLIC	TapeCommands3410
PUBLIC	TapeCommands3420
PUBLIC	TapeCommands3422
PUBLIC	TapeCommands3430
PUBLIC	TapeCommands3480
PUBLIC	TapeCommands3490
PUBLIC	TapeCommands3590
PUBLIC	TapeCommands9347
_DATA	SEGMENT
TapeDevtypeList DD 03410H
	DD	00H
	DD	01H
	DD	00H
	DD	00H
	DD	03411H
	DD	00H
	DD	01H
	DD	00H
	DD	00H
	DD	03420H
	DD	01H
	DD	01H
	DD	01H
	DD	01H
	DD	03422H
	DD	02H
	DD	00H
	DD	00H
	DD	02H
	DD	03430H
	DD	03H
	DD	00H
	DD	00H
	DD	03H
	DD	03480H
	DD	04H
	DD	00H
	DD	00H
	DD	04H
	DD	03490H
	DD	05H
	DD	00H
	DD	00H
	DD	05H
	DD	03590H
	DD	06H
	DD	00H
	DD	00H
	DD	06H
	DD	09347H
	DD	07H
	DD	00H
	DD	00H
	DD	07H
	DD	09348H
	DD	07H
	DD	00H
	DD	00H
	DD	07H
	DD	08809H
	DD	07H
	DD	00H
	DD	00H
	DD	07H
	DD	00H
	DD	00H
	DD	00H
	DD	00H
	DD	00H
TapeCommandTable DQ FLAT:TapeCommands3410
	DQ	FLAT:TapeCommands3420
	DQ	FLAT:TapeCommands3422
	DQ	FLAT:TapeCommands3430
	DQ	FLAT:TapeCommands3480
	DQ	FLAT:TapeCommands3490
	DQ	FLAT:TapeCommands3590
	DQ	FLAT:TapeCommands9347
	DQ	0000000000000000H
	ORG $+8
TapeSenseTable DQ FLAT:build_sense_3410
	DQ	FLAT:build_sense_3420
	DQ	FLAT:build_sense_3420
	DQ	FLAT:build_sense_3420
	DQ	FLAT:build_sense_3480_etal
	DQ	FLAT:build_sense_3490
	DQ	FLAT:build_sense_3590
	DQ	FLAT:build_sense_Streaming
	DQ	0000000000000000H
	ORG $+8
TapeImmedOther DB 00H
	DB	00H
	DB	00H
	DB	01H
	DB	00H
	DB	00H
	DB	00H
	DB	01H
	DB	00H
	DB	00H
	DB	00H
	DB	00H
	DB	00H
	DB	00H
	DB	00H
	DB	01H
	DB	00H
	DB	00H
	DB	00H
	DB	01H
	DB	00H
	DB	00H
	DB	00H
	DB	01H
	DB	00H
	DB	00H
	DB	00H
	DB	01H
	DB	00H
	DB	00H
	DB	00H
	DB	01H
	DB	00H
	DB	00H
	DB	00H
	DB	01H
	DB	00H
	DB	00H
	DB	00H
	DB	01H
	DB	00H
	DB	00H
	DB	00H
	DB	01H
	DB	00H
	DB	00H
	DB	00H
	DB	01H
	DB	00H
	DB	00H
	DB	00H
	DB	01H
	DB	00H
	DB	00H
	DB	00H
	DB	01H
	DB	00H
	DB	00H
	DB	00H
	DB	01H
	DB	00H
	DB	00H
	DB	00H
	DB	01H
	DB	00H
	DB	00H
	DB	00H
	DB	01H
	DB	00H
	DB	00H
	DB	00H
	DB	01H
	DB	00H
	DB	00H
	DB	00H
	DB	00H
	DB	00H
	DB	00H
	DB	00H
	DB	00H
	DB	00H
	DB	00H
	DB	00H
	DB	01H
	DB	00H
	DB	00H
	DB	00H
	DB	01H
	DB	00H
	DB	00H
	DB	00H
	DB	01H
	DB	00H
	DB	00H
	DB	00H
	DB	01H
	DB	00H
	DB	00H
	DB	00H
	DB	01H
	DB	00H
	DB	00H
	DB	00H
	DB	01H
	DB	00H
	DB	00H
	DB	00H
	DB	01H
	DB	00H
	DB	00H
	DB	00H
	DB	01H
	DB	00H
	DB	00H
	DB	00H
	DB	01H
	DB	00H
	DB	00H
	DB	00H
	DB	00H
	DB	00H
	DB	00H
	DB	00H
	DB	01H
	DB	00H
	DB	00H
	DB	00H
	DB	01H
	DB	00H
	DB	00H
	DB	00H
	DB	01H
	DB	00H
	DB	00H
	DB	00H
	DB	01H
	DB	00H
	DB	00H
	DB	00H
	DB	01H
	DB	00H
	DB	00H
	DB	00H
	DB	01H
	DB	00H
	DB	00H
	DB	00H
	DB	01H
	DB	00H
	DB	00H
	DB	00H
	DB	01H
	DB	00H
	DB	00H
	DB	00H
	DB	01H
	DB	00H
	DB	00H
	DB	00H
	DB	00H
	DB	00H
	DB	00H
	DB	00H
	DB	01H
	DB	00H
	DB	00H
	DB	00H
	DB	01H
	DB	00H
	DB	00H
	DB	00H
	DB	01H
	DB	00H
	DB	00H
	DB	00H
	DB	00H
	DB	00H
	DB	00H
	DB	00H
	DB	01H
	DB	00H
	DB	00H
	DB	00H
	DB	00H
	DB	00H
	DB	00H
	DB	00H
	DB	01H
	DB	00H
	DB	00H
	DB	00H
	DB	01H
	DB	00H
	DB	00H
	DB	00H
	DB	01H
	DB	00H
	DB	00H
	DB	00H
	DB	00H
	DB	00H
	DB	00H
	DB	00H
	DB	01H
	DB	00H
	DB	00H
	DB	00H
	DB	01H
	DB	00H
	DB	00H
	DB	00H
	DB	01H
	DB	00H
	DB	00H
	DB	00H
	DB	01H
	DB	00H
	DB	00H
	DB	00H
	DB	00H
	DB	00H
	DB	00H
	DB	00H
	DB	01H
	DB	00H
	DB	00H
	DB	00H
	DB	00H
	DB	00H
	DB	00H
	DB	00H
	DB	01H
	DB	00H
	DB	00H
	DB	00H
	DB	01H
	DB	00H
	DB	00H
	DB	00H
	DB	01H
	DB	00H
	DB	00H
	DB	00H
	DB	01H
	DB	00H
	DB	00H
	DB	00H
	DB	01H
	DB	00H
	DB	00H
	DB	00H
	DB	01H
	DB	00H
	DB	00H
	DB	00H
	DB	01H
TapeImmed3590 DB 00H
	DB	00H
	DB	00H
	DB	01H
	DB	00H
	DB	00H
	DB	00H
	DB	01H
	DB	00H
	DB	00H
	DB	00H
	DB	00H
	DB	00H
	DB	00H
	DB	00H
	DB	01H
	DB	00H
	DB	00H
	DB	00H
	DB	01H
	DB	00H
	DB	00H
	DB	00H
	DB	01H
	DB	00H
	DB	00H
	DB	00H
	DB	01H
	DB	00H
	DB	00H
	DB	00H
	DB	01H
	DB	00H
	DB	00H
	DB	00H
	DB	01H
	DB	00H
	DB	00H
	DB	00H
	DB	01H
	DB	00H
	DB	00H
	DB	00H
	DB	01H
	DB	00H
	DB	00H
	DB	00H
	DB	01H
	DB	00H
	DB	00H
	DB	00H
	DB	01H
	DB	00H
	DB	00H
	DB	00H
	DB	01H
	DB	00H
	DB	00H
	DB	00H
	DB	01H
	DB	00H
	DB	00H
	DB	00H
	DB	01H
	DB	00H
	DB	00H
	DB	00H
	DB	01H
	DB	00H
	DB	00H
	DB	00H
	DB	01H
	DB	00H
	DB	00H
	DB	00H
	DB	00H
	DB	00H
	DB	00H
	DB	00H
	DB	00H
	DB	00H
	DB	00H
	DB	00H
	DB	01H
	DB	00H
	DB	00H
	DB	00H
	DB	01H
	DB	00H
	DB	00H
	DB	00H
	DB	01H
	DB	00H
	DB	00H
	DB	00H
	DB	01H
	DB	00H
	DB	00H
	DB	00H
	DB	01H
	DB	00H
	DB	00H
	DB	00H
	DB	01H
	DB	00H
	DB	00H
	DB	00H
	DB	01H
	DB	00H
	DB	00H
	DB	00H
	DB	01H
	DB	00H
	DB	00H
	DB	00H
	DB	01H
	DB	00H
	DB	00H
	DB	00H
	DB	00H
	DB	00H
	DB	00H
	DB	00H
	DB	01H
	DB	00H
	DB	00H
	DB	00H
	DB	01H
	DB	00H
	DB	00H
	DB	00H
	DB	01H
	DB	00H
	DB	00H
	DB	00H
	DB	01H
	DB	00H
	DB	00H
	DB	00H
	DB	01H
	DB	00H
	DB	00H
	DB	00H
	DB	01H
	DB	00H
	DB	00H
	DB	00H
	DB	01H
	DB	00H
	DB	00H
	DB	00H
	DB	01H
	DB	00H
	DB	00H
	DB	00H
	DB	01H
	DB	00H
	DB	00H
	DB	00H
	DB	00H
	DB	00H
	DB	00H
	DB	00H
	DB	01H
	DB	00H
	DB	00H
	DB	00H
	DB	01H
	DB	00H
	DB	00H
	DB	00H
	DB	01H
	DB	00H
	DB	00H
	DB	00H
	DB	00H
	DB	00H
	DB	00H
	DB	00H
	DB	01H
	DB	00H
	DB	00H
	DB	00H
	DB	00H
	DB	00H
	DB	00H
	DB	00H
	DB	01H
	DB	00H
	DB	00H
	DB	00H
	DB	01H
	DB	00H
	DB	00H
	DB	00H
	DB	01H
	DB	00H
	DB	00H
	DB	00H
	DB	00H
	DB	00H
	DB	00H
	DB	00H
	DB	00H
	DB	00H
	DB	00H
	DB	00H
	DB	00H
	DB	00H
	DB	00H
	DB	00H
	DB	01H
	DB	00H
	DB	00H
	DB	00H
	DB	01H
	DB	00H
	DB	00H
	DB	00H
	DB	00H
	DB	00H
	DB	00H
	DB	00H
	DB	01H
	DB	00H
	DB	00H
	DB	00H
	DB	00H
	DB	00H
	DB	00H
	DB	00H
	DB	01H
	DB	00H
	DB	00H
	DB	00H
	DB	01H
	DB	00H
	DB	00H
	DB	00H
	DB	01H
	DB	00H
	DB	00H
	DB	00H
	DB	01H
	DB	00H
	DB	00H
	DB	00H
	DB	01H
	DB	00H
	DB	00H
	DB	00H
	DB	01H
	DB	00H
	DB	00H
	DB	00H
	DB	01H
TapeCommands3410 DB 00H
	DB	01H
	DB	01H
	DB	01H
	DB	02H
	DB	00H
	DB	00H
	DB	05H
	DB	00H
	DB	00H
	DB	00H
	DB	00H
	DB	01H
	DB	00H
	DB	00H
	DB	05H
	DB	00H
	DB	00H
	DB	00H
	DB	04H
	DB	00H
	DB	00H
	DB	00H
	DB	01H
	DB	00H
	DB	00H
	DB	00H
	DB	01H
	DB	00H
	DB	00H
	DB	00H
	DB	01H
	DB	00H
	DB	00H
	DB	00H
	DB	04H
	DB	00H
	DB	00H
	DB	00H
	DB	01H
	DB	00H
	DB	00H
	DB	00H
	DB	04H
	DB	00H
	DB	00H
	DB	00H
	DB	01H
	DB	00H
	DB	00H
	DB	00H
	DB	04H
	DB	00H
	DB	00H
	DB	00H
	DB	01H
	DB	00H
	DB	00H
	DB	00H
	DB	04H
	DB	00H
	DB	00H
	DB	00H
	DB	01H
	DB	00H
	DB	00H
	DB	00H
	DB	00H
	DB	00H
	DB	00H
	DB	00H
	DB	00H
	DB	00H
	DB	00H
	DB	00H
	DB	02H
	DB	00H
	DB	00H
	DB	00H
	DB	00H
	DB	00H
	DB	00H
	DB	00H
	DB	04H
	DB	00H
	DB	00H
	DB	00H
	DB	00H
	DB	00H
	DB	00H
	DB	00H
	DB	00H
	DB	00H
	DB	00H
	DB	00H
	DB	00H
	DB	00H
	DB	00H
	DB	00H
	DB	04H
	DB	00H
	DB	00H
	DB	00H
	DB	00H
	DB	00H
	DB	00H
	DB	00H
	DB	04H
	DB	00H
	DB	00H
	DB	00H
	DB	00H
	DB	00H
	DB	00H
	DB	00H
	DB	04H
	DB	00H
	DB	00H
	DB	00H
	DB	00H
	DB	00H
	DB	00H
	DB	00H
	DB	04H
	DB	00H
	DB	00H
	DB	00H
	DB	00H
	DB	00H
	DB	00H
	DB	00H
	DB	00H
	DB	00H
	DB	00H
	DB	00H
	DB	00H
	DB	00H
	DB	00H
	DB	00H
	DB	00H
	DB	00H
	DB	00H
	DB	00H
	DB	00H
	DB	00H
	DB	00H
	DB	00H
	DB	04H
	DB	00H
	DB	00H
	DB	00H
	DB	01H
	DB	00H
	DB	00H
	DB	00H
	DB	00H
	DB	00H
	DB	00H
	DB	00H
	DB	00H
	DB	00H
	DB	00H
	DB	00H
	DB	04H
	DB	00H
	DB	00H
	DB	00H
	DB	00H
	DB	00H
	DB	00H
	DB	00H
	DB	04H
	DB	00H
	DB	00H
	DB	00H
	DB	00H
	DB	00H
	DB	00H
	DB	00H
	DB	04H
	DB	00H
	DB	00H
	DB	00H
	DB	00H
	DB	00H
	DB	00H
	DB	00H
	DB	04H
	DB	00H
	DB	00H
	DB	00H
	DB	00H
	DB	00H
	DB	00H
	DB	00H
	DB	04H
	DB	00H
	DB	00H
	DB	00H
	DB	00H
	DB	00H
	DB	00H
	DB	00H
	DB	04H
	DB	00H
	DB	00H
	DB	00H
	DB	00H
	DB	00H
	DB	00H
	DB	00H
	DB	00H
	DB	00H
	DB	00H
	DB	00H
	DB	00H
	DB	00H
	DB	00H
	DB	00H
	DB	00H
	DB	00H
	DB	00H
	DB	00H
	DB	00H
	DB	00H
	DB	00H
	DB	00H
	DB	00H
	DB	02H
	DB	00H
	DB	00H
	DB	00H
	DB	00H
	DB	00H
	DB	00H
	DB	03H
	DB	00H
	DB	00H
	DB	00H
	DB	00H
	DB	00H
	DB	00H
	DB	00H
	DB	00H
	DB	00H
	DB	00H
	DB	00H
	DB	00H
	DB	00H
	DB	00H
	DB	00H
	DB	00H
	DB	00H
	DB	00H
	DB	00H
	DB	00H
TapeCommands3420 DB 00H
	DB	01H
	DB	01H
	DB	01H
	DB	02H
	DB	00H
	DB	00H
	DB	05H
	DB	00H
	DB	00H
	DB	00H
	DB	02H
	DB	01H
	DB	00H
	DB	00H
	DB	05H
	DB	00H
	DB	00H
	DB	00H
	DB	04H
	DB	00H
	DB	00H
	DB	00H
	DB	01H
	DB	00H
	DB	00H
	DB	00H
	DB	01H
	DB	00H
	DB	00H
	DB	00H
	DB	01H
	DB	00H
	DB	00H
	DB	00H
	DB	04H
	DB	00H
	DB	00H
	DB	00H
	DB	01H
	DB	00H
	DB	00H
	DB	00H
	DB	04H
	DB	00H
	DB	00H
	DB	00H
	DB	01H
	DB	00H
	DB	00H
	DB	00H
	DB	04H
	DB	00H
	DB	00H
	DB	00H
	DB	01H
	DB	00H
	DB	00H
	DB	00H
	DB	04H
	DB	00H
	DB	00H
	DB	00H
	DB	01H
	DB	00H
	DB	00H
	DB	00H
	DB	00H
	DB	00H
	DB	00H
	DB	00H
	DB	00H
	DB	00H
	DB	00H
	DB	00H
	DB	02H
	DB	00H
	DB	00H
	DB	00H
	DB	00H
	DB	00H
	DB	00H
	DB	00H
	DB	04H
	DB	00H
	DB	00H
	DB	00H
	DB	00H
	DB	00H
	DB	00H
	DB	00H
	DB	00H
	DB	00H
	DB	00H
	DB	00H
	DB	00H
	DB	00H
	DB	00H
	DB	00H
	DB	04H
	DB	00H
	DB	00H
	DB	00H
	DB	00H
	DB	00H
	DB	00H
	DB	00H
	DB	04H
	DB	00H
	DB	00H
	DB	00H
	DB	00H
	DB	00H
	DB	00H
	DB	00H
	DB	04H
	DB	00H
	DB	00H
	DB	00H
	DB	00H
	DB	00H
	DB	00H
	DB	00H
	DB	04H
	DB	00H
	DB	00H
	DB	00H
	DB	00H
	DB	00H
	DB	00H
	DB	00H
	DB	00H
	DB	00H
	DB	00H
	DB	00H
	DB	00H
	DB	00H
	DB	00H
	DB	00H
	DB	02H
	DB	00H
	DB	00H
	DB	00H
	DB	00H
	DB	00H
	DB	00H
	DB	00H
	DB	04H
	DB	00H
	DB	00H
	DB	00H
	DB	01H
	DB	00H
	DB	00H
	DB	00H
	DB	00H
	DB	00H
	DB	00H
	DB	00H
	DB	00H
	DB	00H
	DB	00H
	DB	00H
	DB	04H
	DB	00H
	DB	00H
	DB	00H
	DB	00H
	DB	00H
	DB	00H
	DB	00H
	DB	04H
	DB	00H
	DB	00H
	DB	00H
	DB	00H
	DB	00H
	DB	00H
	DB	00H
	DB	04H
	DB	00H
	DB	00H
	DB	00H
	DB	00H
	DB	00H
	DB	00H
	DB	00H
	DB	04H
	DB	00H
	DB	00H
	DB	00H
	DB	00H
	DB	00H
	DB	00H
	DB	00H
	DB	04H
	DB	00H
	DB	00H
	DB	00H
	DB	00H
	DB	00H
	DB	00H
	DB	00H
	DB	04H
	DB	00H
	DB	00H
	DB	00H
	DB	00H
	DB	00H
	DB	00H
	DB	00H
	DB	04H
	DB	04H
	DB	00H
	DB	00H
	DB	00H
	DB	00H
	DB	00H
	DB	00H
	DB	00H
	DB	00H
	DB	00H
	DB	00H
	DB	00H
	DB	00H
	DB	00H
	DB	00H
	DB	00H
	DB	02H
	DB	00H
	DB	00H
	DB	00H
	DB	00H
	DB	00H
	DB	00H
	DB	03H
	DB	00H
	DB	00H
	DB	00H
	DB	00H
	DB	00H
	DB	00H
	DB	00H
	DB	02H
	DB	04H
	DB	00H
	DB	00H
	DB	00H
	DB	00H
	DB	00H
	DB	00H
	DB	00H
	DB	00H
	DB	02H
	DB	00H
	DB	00H
TapeCommands3422 DB 00H
	DB	01H
	DB	01H
	DB	01H
	DB	02H
	DB	00H
	DB	00H
	DB	05H
	DB	00H
	DB	00H
	DB	00H
	DB	02H
	DB	01H
	DB	00H
	DB	00H
	DB	05H
	DB	00H
	DB	00H
	DB	00H
	DB	00H
	DB	00H
	DB	00H
	DB	00H
	DB	01H
	DB	00H
	DB	00H
	DB	00H
	DB	00H
	DB	00H
	DB	00H
	DB	00H
	DB	01H
	DB	00H
	DB	00H
	DB	00H
	DB	00H
	DB	00H
	DB	00H
	DB	00H
	DB	01H
	DB	00H
	DB	00H
	DB	00H
	DB	00H
	DB	00H
	DB	00H
	DB	00H
	DB	01H
	DB	00H
	DB	00H
	DB	00H
	DB	00H
	DB	00H
	DB	00H
	DB	00H
	DB	01H
	DB	00H
	DB	00H
	DB	00H
	DB	00H
	DB	00H
	DB	00H
	DB	00H
	DB	01H
	DB	00H
	DB	00H
	DB	00H
	DB	00H
	DB	00H
	DB	00H
	DB	00H
	DB	00H
	DB	00H
	DB	00H
	DB	00H
	DB	02H
	DB	00H
	DB	00H
	DB	00H
	DB	00H
	DB	00H
	DB	00H
	DB	00H
	DB	00H
	DB	00H
	DB	00H
	DB	00H
	DB	00H
	DB	00H
	DB	00H
	DB	00H
	DB	00H
	DB	00H
	DB	00H
	DB	00H
	DB	00H
	DB	00H
	DB	00H
	DB	00H
	DB	00H
	DB	00H
	DB	00H
	DB	00H
	DB	00H
	DB	00H
	DB	00H
	DB	00H
	DB	00H
	DB	00H
	DB	00H
	DB	00H
	DB	00H
	DB	00H
	DB	00H
	DB	00H
	DB	00H
	DB	00H
	DB	00H
	DB	00H
	DB	00H
	DB	00H
	DB	00H
	DB	00H
	DB	00H
	DB	00H
	DB	00H
	DB	00H
	DB	00H
	DB	00H
	DB	00H
	DB	00H
	DB	00H
	DB	00H
	DB	00H
	DB	00H
	DB	00H
	DB	00H
	DB	00H
	DB	00H
	DB	01H
	DB	00H
	DB	00H
	DB	00H
	DB	00H
	DB	00H
	DB	00H
	DB	00H
	DB	00H
	DB	00H
	DB	00H
	DB	00H
	DB	01H
	DB	00H
	DB	00H
	DB	00H
	DB	00H
	DB	00H
	DB	00H
	DB	00H
	DB	00H
	DB	00H
	DB	00H
	DB	00H
	DB	00H
	DB	00H
	DB	00H
	DB	00H
	DB	00H
	DB	00H
	DB	00H
	DB	00H
	DB	00H
	DB	00H
	DB	00H
	DB	00H
	DB	00H
	DB	00H
	DB	00H
	DB	00H
	DB	00H
	DB	00H
	DB	00H
	DB	00H
	DB	00H
	DB	00H
	DB	00H
	DB	00H
	DB	00H
	DB	00H
	DB	00H
	DB	00H
	DB	00H
	DB	00H
	DB	00H
	DB	00H
	DB	04H
	DB	00H
	DB	00H
	DB	00H
	DB	00H
	DB	00H
	DB	00H
	DB	00H
	DB	00H
	DB	00H
	DB	00H
	DB	00H
	DB	00H
	DB	00H
	DB	00H
	DB	00H
	DB	04H
	DB	04H
	DB	00H
	DB	00H
	DB	00H
	DB	00H
	DB	00H
	DB	00H
	DB	00H
	DB	00H
	DB	00H
	DB	00H
	DB	00H
	DB	00H
	DB	00H
	DB	00H
	DB	00H
	DB	02H
	DB	00H
	DB	00H
	DB	00H
	DB	00H
	DB	00H
	DB	00H
	DB	03H
	DB	00H
	DB	00H
	DB	00H
	DB	00H
	DB	00H
	DB	00H
	DB	00H
	DB	02H
	DB	04H
	DB	00H
	DB	00H
	DB	00H
	DB	00H
	DB	00H
	DB	00H
	DB	00H
	DB	00H
	DB	02H
	DB	00H
	DB	00H
TapeCommands3430 DB 00H
	DB	01H
	DB	01H
	DB	01H
	DB	02H
	DB	00H
	DB	00H
	DB	05H
	DB	00H
	DB	00H
	DB	00H
	DB	02H
	DB	01H
	DB	00H
	DB	00H
	DB	05H
	DB	00H
	DB	00H
	DB	00H
	DB	00H
	DB	00H
	DB	00H
	DB	00H
	DB	01H
	DB	00H
	DB	00H
	DB	00H
	DB	01H
	DB	00H
	DB	00H
	DB	00H
	DB	01H
	DB	00H
	DB	00H
	DB	00H
	DB	00H
	DB	00H
	DB	00H
	DB	00H
	DB	01H
	DB	00H
	DB	00H
	DB	00H
	DB	00H
	DB	00H
	DB	00H
	DB	00H
	DB	01H
	DB	00H
	DB	00H
	DB	00H
	DB	00H
	DB	00H
	DB	00H
	DB	00H
	DB	01H
	DB	00H
	DB	00H
	DB	00H
	DB	00H
	DB	00H
	DB	00H
	DB	00H
	DB	01H
	DB	00H
	DB	00H
	DB	00H
	DB	00H
	DB	00H
	DB	00H
	DB	00H
	DB	00H
	DB	00H
	DB	00H
	DB	00H
	DB	02H
	DB	00H
	DB	00H
	DB	00H
	DB	00H
	DB	00H
	DB	00H
	DB	00H
	DB	00H
	DB	00H
	DB	00H
	DB	00H
	DB	00H
	DB	00H
	DB	00H
	DB	00H
	DB	00H
	DB	00H
	DB	00H
	DB	00H
	DB	00H
	DB	00H
	DB	00H
	DB	00H
	DB	00H
	DB	00H
	DB	00H
	DB	00H
	DB	00H
	DB	00H
	DB	00H
	DB	00H
	DB	00H
	DB	00H
	DB	00H
	DB	00H
	DB	00H
	DB	00H
	DB	00H
	DB	00H
	DB	00H
	DB	00H
	DB	00H
	DB	00H
	DB	00H
	DB	00H
	DB	00H
	DB	00H
	DB	00H
	DB	00H
	DB	00H
	DB	00H
	DB	00H
	DB	00H
	DB	00H
	DB	00H
	DB	00H
	DB	00H
	DB	00H
	DB	00H
	DB	00H
	DB	00H
	DB	00H
	DB	00H
	DB	00H
	DB	00H
	DB	00H
	DB	00H
	DB	00H
	DB	00H
	DB	00H
	DB	00H
	DB	00H
	DB	00H
	DB	00H
	DB	00H
	DB	01H
	DB	00H
	DB	00H
	DB	00H
	DB	00H
	DB	00H
	DB	00H
	DB	00H
	DB	00H
	DB	00H
	DB	00H
	DB	00H
	DB	00H
	DB	00H
	DB	00H
	DB	00H
	DB	00H
	DB	00H
	DB	00H
	DB	00H
	DB	00H
	DB	00H
	DB	00H
	DB	00H
	DB	00H
	DB	00H
	DB	00H
	DB	00H
	DB	00H
	DB	00H
	DB	00H
	DB	00H
	DB	00H
	DB	00H
	DB	00H
	DB	00H
	DB	00H
	DB	00H
	DB	00H
	DB	00H
	DB	00H
	DB	00H
	DB	00H
	DB	00H
	DB	04H
	DB	00H
	DB	00H
	DB	00H
	DB	00H
	DB	00H
	DB	00H
	DB	00H
	DB	00H
	DB	00H
	DB	00H
	DB	00H
	DB	00H
	DB	00H
	DB	00H
	DB	00H
	DB	04H
	DB	04H
	DB	00H
	DB	00H
	DB	00H
	DB	00H
	DB	00H
	DB	00H
	DB	00H
	DB	00H
	DB	00H
	DB	00H
	DB	00H
	DB	00H
	DB	00H
	DB	00H
	DB	00H
	DB	02H
	DB	00H
	DB	00H
	DB	00H
	DB	00H
	DB	00H
	DB	00H
	DB	03H
	DB	00H
	DB	00H
	DB	00H
	DB	00H
	DB	00H
	DB	00H
	DB	00H
	DB	02H
	DB	04H
	DB	00H
	DB	00H
	DB	00H
	DB	00H
	DB	00H
	DB	00H
	DB	00H
	DB	00H
	DB	02H
	DB	00H
	DB	00H
TapeCommands3480 DB 03H
	DB	01H
	DB	01H
	DB	01H
	DB	02H
	DB	00H
	DB	00H
	DB	05H
	DB	00H
	DB	00H
	DB	00H
	DB	00H
	DB	01H
	DB	00H
	DB	00H
	DB	05H
	DB	00H
	DB	00H
	DB	01H
	DB	03H
	DB	00H
	DB	00H
	DB	00H
	DB	01H
	DB	00H
	DB	00H
	DB	00H
	DB	00H
	DB	00H
	DB	00H
	DB	00H
	DB	01H
	DB	00H
	DB	00H
	DB	01H
	DB	03H
	DB	02H
	DB	00H
	DB	00H
	DB	01H
	DB	00H
	DB	00H
	DB	00H
	DB	03H
	DB	00H
	DB	00H
	DB	00H
	DB	01H
	DB	00H
	DB	00H
	DB	00H
	DB	03H
	DB	02H
	DB	00H
	DB	00H
	DB	01H
	DB	00H
	DB	00H
	DB	00H
	DB	03H
	DB	00H
	DB	00H
	DB	00H
	DB	01H
	DB	00H
	DB	00H
	DB	00H
	DB	01H
	DB	00H
	DB	00H
	DB	00H
	DB	00H
	DB	00H
	DB	00H
	DB	00H
	DB	02H
	DB	00H
	DB	00H
	DB	00H
	DB	01H
	DB	00H
	DB	00H
	DB	00H
	DB	03H
	DB	00H
	DB	00H
	DB	00H
	DB	00H
	DB	00H
	DB	00H
	DB	00H
	DB	03H
	DB	00H
	DB	00H
	DB	00H
	DB	00H
	DB	00H
	DB	00H
	DB	00H
	DB	03H
	DB	02H
	DB	00H
	DB	00H
	DB	00H
	DB	00H
	DB	00H
	DB	00H
	DB	03H
	DB	00H
	DB	00H
	DB	00H
	DB	00H
	DB	00H
	DB	00H
	DB	00H
	DB	03H
	DB	00H
	DB	00H
	DB	00H
	DB	02H
	DB	00H
	DB	00H
	DB	00H
	DB	03H
	DB	00H
	DB	00H
	DB	00H
	DB	00H
	DB	00H
	DB	00H
	DB	00H
	DB	00H
	DB	00H
	DB	00H
	DB	00H
	DB	00H
	DB	00H
	DB	00H
	DB	00H
	DB	00H
	DB	00H
	DB	00H
	DB	00H
	DB	00H
	DB	00H
	DB	00H
	DB	00H
	DB	03H
	DB	00H
	DB	00H
	DB	00H
	DB	01H
	DB	00H
	DB	00H
	DB	00H
	DB	00H
	DB	00H
	DB	00H
	DB	00H
	DB	02H
	DB	00H
	DB	00H
	DB	00H
	DB	03H
	DB	00H
	DB	00H
	DB	00H
	DB	00H
	DB	00H
	DB	00H
	DB	00H
	DB	03H
	DB	00H
	DB	00H
	DB	00H
	DB	02H
	DB	00H
	DB	00H
	DB	00H
	DB	03H
	DB	00H
	DB	00H
	DB	00H
	DB	02H
	DB	00H
	DB	00H
	DB	00H
	DB	03H
	DB	00H
	DB	00H
	DB	00H
	DB	00H
	DB	00H
	DB	00H
	DB	00H
	DB	02H
	DB	00H
	DB	00H
	DB	00H
	DB	02H
	DB	00H
	DB	00H
	DB	00H
	DB	03H
	DB	00H
	DB	00H
	DB	00H
	DB	00H
	DB	00H
	DB	00H
	DB	00H
	DB	03H
	DB	00H
	DB	00H
	DB	00H
	DB	00H
	DB	00H
	DB	00H
	DB	00H
	DB	02H
	DB	00H
	DB	00H
	DB	00H
	DB	00H
	DB	00H
	DB	00H
	DB	00H
	DB	02H
	DB	02H
	DB	00H
	DB	00H
	DB	00H
	DB	00H
	DB	00H
	DB	00H
	DB	00H
	DB	00H
	DB	00H
	DB	00H
	DB	00H
	DB	00H
	DB	00H
	DB	00H
	DB	00H
	DB	00H
	DB	00H
	DB	00H
	DB	00H
	DB	00H
	DB	00H
	DB	00H
	DB	00H
	DB	00H
	DB	00H
	DB	00H
	DB	00H
TapeCommands3490 DB 03H
	DB	01H
	DB	01H
	DB	01H
	DB	02H
	DB	00H
	DB	00H
	DB	05H
	DB	00H
	DB	00H
	DB	00H
	DB	00H
	DB	01H
	DB	00H
	DB	00H
	DB	05H
	DB	00H
	DB	00H
	DB	01H
	DB	03H
	DB	00H
	DB	00H
	DB	00H
	DB	01H
	DB	00H
	DB	00H
	DB	00H
	DB	00H
	DB	00H
	DB	00H
	DB	00H
	DB	01H
	DB	00H
	DB	00H
	DB	01H
	DB	03H
	DB	02H
	DB	00H
	DB	00H
	DB	01H
	DB	00H
	DB	00H
	DB	00H
	DB	03H
	DB	00H
	DB	00H
	DB	00H
	DB	01H
	DB	00H
	DB	00H
	DB	00H
	DB	03H
	DB	02H
	DB	00H
	DB	00H
	DB	01H
	DB	00H
	DB	00H
	DB	00H
	DB	03H
	DB	00H
	DB	00H
	DB	02H
	DB	01H
	DB	00H
	DB	00H
	DB	00H
	DB	01H
	DB	00H
	DB	00H
	DB	00H
	DB	00H
	DB	00H
	DB	00H
	DB	00H
	DB	02H
	DB	00H
	DB	00H
	DB	02H
	DB	01H
	DB	00H
	DB	00H
	DB	00H
	DB	03H
	DB	00H
	DB	00H
	DB	00H
	DB	00H
	DB	00H
	DB	00H
	DB	00H
	DB	02H
	DB	00H
	DB	00H
	DB	00H
	DB	00H
	DB	00H
	DB	00H
	DB	00H
	DB	03H
	DB	02H
	DB	00H
	DB	00H
	DB	00H
	DB	00H
	DB	00H
	DB	00H
	DB	03H
	DB	00H
	DB	00H
	DB	00H
	DB	00H
	DB	00H
	DB	00H
	DB	00H
	DB	03H
	DB	00H
	DB	00H
	DB	00H
	DB	02H
	DB	00H
	DB	00H
	DB	00H
	DB	03H
	DB	00H
	DB	00H
	DB	00H
	DB	00H
	DB	00H
	DB	00H
	DB	00H
	DB	00H
	DB	00H
	DB	00H
	DB	00H
	DB	00H
	DB	00H
	DB	00H
	DB	00H
	DB	00H
	DB	00H
	DB	00H
	DB	00H
	DB	00H
	DB	00H
	DB	00H
	DB	00H
	DB	03H
	DB	00H
	DB	00H
	DB	00H
	DB	01H
	DB	00H
	DB	00H
	DB	00H
	DB	00H
	DB	00H
	DB	00H
	DB	00H
	DB	02H
	DB	00H
	DB	00H
	DB	00H
	DB	03H
	DB	00H
	DB	00H
	DB	00H
	DB	00H
	DB	00H
	DB	00H
	DB	00H
	DB	03H
	DB	00H
	DB	00H
	DB	00H
	DB	02H
	DB	00H
	DB	00H
	DB	00H
	DB	03H
	DB	00H
	DB	00H
	DB	00H
	DB	02H
	DB	00H
	DB	00H
	DB	00H
	DB	03H
	DB	00H
	DB	00H
	DB	00H
	DB	00H
	DB	00H
	DB	00H
	DB	00H
	DB	02H
	DB	00H
	DB	00H
	DB	00H
	DB	02H
	DB	00H
	DB	00H
	DB	00H
	DB	00H
	DB	00H
	DB	00H
	DB	00H
	DB	00H
	DB	00H
	DB	00H
	DB	00H
	DB	03H
	DB	00H
	DB	00H
	DB	00H
	DB	00H
	DB	00H
	DB	00H
	DB	00H
	DB	02H
	DB	00H
	DB	00H
	DB	00H
	DB	00H
	DB	00H
	DB	00H
	DB	00H
	DB	02H
	DB	02H
	DB	00H
	DB	00H
	DB	00H
	DB	00H
	DB	00H
	DB	00H
	DB	00H
	DB	00H
	DB	00H
	DB	00H
	DB	00H
	DB	00H
	DB	00H
	DB	00H
	DB	00H
	DB	00H
	DB	00H
	DB	00H
	DB	00H
	DB	00H
	DB	00H
	DB	02H
	DB	00H
	DB	00H
	DB	00H
	DB	00H
	DB	00H
TapeCommands3590 DB 03H
	DB	01H
	DB	01H
	DB	01H
	DB	02H
	DB	00H
	DB	01H
	DB	05H
	DB	00H
	DB	00H
	DB	01H
	DB	00H
	DB	01H
	DB	00H
	DB	00H
	DB	05H
	DB	00H
	DB	00H
	DB	01H
	DB	03H
	DB	00H
	DB	00H
	DB	00H
	DB	01H
	DB	00H
	DB	00H
	DB	00H
	DB	00H
	DB	00H
	DB	00H
	DB	00H
	DB	01H
	DB	00H
	DB	00H
	DB	01H
	DB	03H
	DB	02H
	DB	00H
	DB	00H
	DB	01H
	DB	00H
	DB	00H
	DB	00H
	DB	03H
	DB	00H
	DB	00H
	DB	00H
	DB	01H
	DB	00H
	DB	00H
	DB	00H
	DB	03H
	DB	02H
	DB	00H
	DB	00H
	DB	01H
	DB	00H
	DB	00H
	DB	00H
	DB	03H
	DB	00H
	DB	00H
	DB	02H
	DB	01H
	DB	00H
	DB	00H
	DB	00H
	DB	01H
	DB	00H
	DB	00H
	DB	00H
	DB	00H
	DB	00H
	DB	00H
	DB	00H
	DB	02H
	DB	00H
	DB	00H
	DB	02H
	DB	01H
	DB	00H
	DB	00H
	DB	00H
	DB	03H
	DB	00H
	DB	00H
	DB	00H
	DB	00H
	DB	00H
	DB	00H
	DB	00H
	DB	02H
	DB	00H
	DB	00H
	DB	00H
	DB	00H
	DB	00H
	DB	00H
	DB	01H
	DB	03H
	DB	02H
	DB	00H
	DB	00H
	DB	00H
	DB	00H
	DB	00H
	DB	00H
	DB	03H
	DB	00H
	DB	00H
	DB	00H
	DB	00H
	DB	00H
	DB	00H
	DB	00H
	DB	03H
	DB	00H
	DB	00H
	DB	00H
	DB	02H
	DB	00H
	DB	00H
	DB	00H
	DB	03H
	DB	00H
	DB	00H
	DB	00H
	DB	00H
	DB	00H
	DB	00H
	DB	00H
	DB	00H
	DB	00H
	DB	00H
	DB	00H
	DB	00H
	DB	00H
	DB	00H
	DB	00H
	DB	00H
	DB	00H
	DB	00H
	DB	00H
	DB	00H
	DB	00H
	DB	00H
	DB	00H
	DB	03H
	DB	00H
	DB	00H
	DB	00H
	DB	01H
	DB	00H
	DB	00H
	DB	00H
	DB	00H
	DB	00H
	DB	00H
	DB	00H
	DB	02H
	DB	00H
	DB	00H
	DB	00H
	DB	03H
	DB	00H
	DB	00H
	DB	00H
	DB	00H
	DB	00H
	DB	00H
	DB	00H
	DB	03H
	DB	00H
	DB	00H
	DB	00H
	DB	02H
	DB	00H
	DB	00H
	DB	00H
	DB	03H
	DB	00H
	DB	00H
	DB	00H
	DB	02H
	DB	00H
	DB	00H
	DB	00H
	DB	03H
	DB	00H
	DB	00H
	DB	00H
	DB	00H
	DB	00H
	DB	00H
	DB	02H
	DB	02H
	DB	00H
	DB	00H
	DB	00H
	DB	02H
	DB	00H
	DB	00H
	DB	00H
	DB	03H
	DB	00H
	DB	00H
	DB	00H
	DB	03H
	DB	00H
	DB	00H
	DB	00H
	DB	03H
	DB	00H
	DB	00H
	DB	00H
	DB	00H
	DB	00H
	DB	00H
	DB	00H
	DB	02H
	DB	00H
	DB	00H
	DB	00H
	DB	00H
	DB	00H
	DB	00H
	DB	00H
	DB	02H
	DB	02H
	DB	00H
	DB	00H
	DB	00H
	DB	00H
	DB	00H
	DB	00H
	DB	00H
	DB	00H
	DB	00H
	DB	00H
	DB	00H
	DB	00H
	DB	00H
	DB	00H
	DB	00H
	DB	00H
	DB	00H
	DB	00H
	DB	00H
	DB	00H
	DB	00H
	DB	02H
	DB	00H
	DB	00H
	DB	00H
	DB	00H
	DB	00H
TapeCommands9347 DB 00H
	DB	01H
	DB	01H
	DB	01H
	DB	02H
	DB	00H
	DB	00H
	DB	05H
	DB	00H
	DB	00H
	DB	00H
	DB	02H
	DB	01H
	DB	00H
	DB	00H
	DB	05H
	DB	00H
	DB	00H
	DB	00H
	DB	04H
	DB	00H
	DB	00H
	DB	00H
	DB	01H
	DB	00H
	DB	00H
	DB	00H
	DB	01H
	DB	00H
	DB	00H
	DB	00H
	DB	01H
	DB	00H
	DB	00H
	DB	00H
	DB	04H
	DB	00H
	DB	00H
	DB	00H
	DB	01H
	DB	00H
	DB	00H
	DB	00H
	DB	04H
	DB	00H
	DB	00H
	DB	00H
	DB	01H
	DB	00H
	DB	00H
	DB	00H
	DB	04H
	DB	00H
	DB	00H
	DB	00H
	DB	01H
	DB	00H
	DB	00H
	DB	00H
	DB	04H
	DB	00H
	DB	00H
	DB	00H
	DB	01H
	DB	00H
	DB	00H
	DB	00H
	DB	00H
	DB	00H
	DB	00H
	DB	00H
	DB	00H
	DB	00H
	DB	00H
	DB	00H
	DB	02H
	DB	00H
	DB	00H
	DB	00H
	DB	00H
	DB	00H
	DB	00H
	DB	00H
	DB	04H
	DB	00H
	DB	00H
	DB	00H
	DB	00H
	DB	00H
	DB	00H
	DB	00H
	DB	00H
	DB	00H
	DB	00H
	DB	00H
	DB	00H
	DB	00H
	DB	00H
	DB	00H
	DB	04H
	DB	00H
	DB	00H
	DB	00H
	DB	00H
	DB	00H
	DB	00H
	DB	00H
	DB	04H
	DB	00H
	DB	00H
	DB	00H
	DB	00H
	DB	00H
	DB	00H
	DB	00H
	DB	04H
	DB	00H
	DB	00H
	DB	00H
	DB	00H
	DB	00H
	DB	00H
	DB	00H
	DB	04H
	DB	00H
	DB	00H
	DB	00H
	DB	00H
	DB	00H
	DB	00H
	DB	00H
	DB	00H
	DB	00H
	DB	00H
	DB	00H
	DB	00H
	DB	00H
	DB	00H
	DB	00H
	DB	02H
	DB	00H
	DB	00H
	DB	00H
	DB	00H
	DB	00H
	DB	00H
	DB	00H
	DB	04H
	DB	00H
	DB	00H
	DB	00H
	DB	01H
	DB	00H
	DB	00H
	DB	00H
	DB	00H
	DB	00H
	DB	00H
	DB	00H
	DB	00H
	DB	00H
	DB	00H
	DB	00H
	DB	04H
	DB	02H
	DB	00H
	DB	00H
	DB	00H
	DB	00H
	DB	00H
	DB	00H
	DB	04H
	DB	00H
	DB	00H
	DB	00H
	DB	00H
	DB	00H
	DB	00H
	DB	00H
	DB	04H
	DB	00H
	DB	00H
	DB	00H
	DB	00H
	DB	00H
	DB	00H
	DB	00H
	DB	04H
	DB	00H
	DB	00H
	DB	00H
	DB	00H
	DB	00H
	DB	00H
	DB	00H
	DB	04H
	DB	00H
	DB	00H
	DB	00H
	DB	00H
	DB	00H
	DB	00H
	DB	00H
	DB	04H
	DB	00H
	DB	00H
	DB	00H
	DB	00H
	DB	00H
	DB	00H
	DB	00H
	DB	04H
	DB	04H
	DB	00H
	DB	00H
	DB	00H
	DB	00H
	DB	00H
	DB	00H
	DB	00H
	DB	00H
	DB	00H
	DB	00H
	DB	00H
	DB	00H
	DB	00H
	DB	00H
	DB	00H
	DB	02H
	DB	00H
	DB	00H
	DB	00H
	DB	00H
	DB	00H
	DB	00H
	DB	03H
	DB	00H
	DB	00H
	DB	00H
	DB	00H
	DB	00H
	DB	00H
	DB	00H
	DB	02H
	DB	04H
	DB	00H
	DB	00H
	DB	00H
	DB	00H
	DB	00H
	DB	00H
	DB	00H
	DB	00H
	DB	02H
	DB	00H
	DB	00H
_DATA	ENDS
CONST	SEGMENT
CKD_ENDTRK DB	0ffH
	DB	0ffH
	DB	0ffH
	DB	0ffH
	DB	0ffH
	DB	0ffH
	DB	0ffH
	DB	0ffH
CONST	ENDS
PUBLIC	__local_stdio_printf_options
PUBLIC	_vsnprintf_s_l
PUBLIC	_vsnprintf_s
PUBLIC	store_hw_noswap
PUBLIC	fetch_fw_noswap
PUBLIC	store_fw_noswap
PUBLIC	TapeCommandIsValid
PUBLIC	tapedev_execute_ccw
PUBLIC	load_display
PUBLIC	build_senseX
PUBLIC	build_sense_3410_3420
EXTRN	__report_rangecheckfailure:PROC
EXTRN	strcmp:PROC
EXTRN	__imp__stricmp:PROC
EXTRN	strlen:PROC
EXTRN	__imp__strnicmp:PROC
EXTRN	__imp_strdup:PROC
EXTRN	__imp_IsDebuggerPresent:PROC
EXTRN	__imp_OutputDebugStringA:PROC
EXTRN	__imp_free:PROC
EXTRN	__imp_malloc:PROC
EXTRN	_byteswap_ushort:PROC
EXTRN	_byteswap_ulong:PROC
EXTRN	__imp_access:PROC
EXTRN	__imp___acrt_iob_func:PROC
EXTRN	__imp___stdio_common_vsnprintf_s:PROC
EXTRN	__imp_hthread_obtain_lock:PROC
EXTRN	__imp_hthread_release_lock:PROC
EXTRN	__imp_hthread_create_thread:PROC
EXTRN	__imp_strlcpy:PROC
EXTRN	__imp_strlcat:PROC
EXTRN	__imp_w32_strerror:PROC
EXTRN	__imp_realpath:PROC
EXTRN	__imp_hostpath:PROC
EXTRN	__imp_w32_snprintf:PROC
EXTRN	__imp_guest_to_host:PROC
EXTRN	__imp_str_guest_to_host:PROC
EXTRN	__imp_str_host_to_guest:PROC
EXTRN	__imp_het_cntl:PROC
EXTRN	__imp_fwritemsg:PROC
EXTRN	__imp_logmsg:PROC
EXTRN	int_scsi_rewind_unload:PROC
EXTRN	autoload_wait_for_tapemount_thread:PROC
EXTRN	IsAtLoadPoint:PROC
EXTRN	ReqAutoMount:PROC
EXTRN	UpdateDisplay:PROC
EXTRN	__GSHandlerCheck:PROC
EXTRN	__security_check_cookie:PROC
EXTRN	memcmp:PROC
EXTRN	__imp_sysblk:BYTE
EXTRN	__ImageBase:BYTE
EXTRN	__security_cookie:QWORD
_DATA	SEGMENT
COMM	?_OptionsStorage@?1??__local_stdio_printf_options@@9@9:QWORD							; `__local_stdio_printf_options'::`2'::_OptionsStorage
_DATA	ENDS
_BSS	SEGMENT
$SG169697 DB	01H DUP (?)
	ALIGN	4

$SG169746 DB	05H DUP (?)
	ALIGN	4

$SG169750 DB	05H DUP (?)
	ALIGN	4

$SG169785 DB	0cH DUP (?)
$SG169796 DB	0bH DUP (?)
	ALIGN	4

$SG169828 DB	0cH DUP (?)
$SG169831 DB	0cH DUP (?)
$SG169836 DB	0cH DUP (?)
$SG169839 DB	0cH DUP (?)
_BSS	ENDS
;	COMDAT pdata
pdata	SEGMENT
$pdata$_vsnprintf_s_l DD imagerel $LN5
	DD	imagerel $LN5+127
	DD	imagerel $unwind$_vsnprintf_s_l
pdata	ENDS
;	COMDAT pdata
pdata	SEGMENT
$pdata$_vsnprintf_s DD imagerel $LN3
	DD	imagerel $LN3+73
	DD	imagerel $unwind$_vsnprintf_s
pdata	ENDS
pdata	SEGMENT
$pdata$DebuggerTrace DD imagerel DebuggerTrace
	DD	imagerel DebuggerTrace+247
	DD	imagerel $unwind$DebuggerTrace
pdata	ENDS
;	COMDAT pdata
pdata	SEGMENT
$pdata$fetch_fw_noswap DD imagerel $LN3
	DD	imagerel $LN3+27
	DD	imagerel $unwind$fetch_fw_noswap
pdata	ENDS
pdata	SEGMENT
$pdata$is_tape_feat DD imagerel is_tape_feat
	DD	imagerel is_tape_feat+94
	DD	imagerel $unwind$is_tape_feat
$pdata$TapeCommandIsValid DD imagerel $LN10
	DD	imagerel $LN10+265
	DD	imagerel $unwind$TapeCommandIsValid
$pdata$tapedev_execute_ccw DD imagerel $LN627
	DD	imagerel $LN627+27543
	DD	imagerel $unwind$tapedev_execute_ccw
$pdata$load_display DD imagerel $LN108
	DD	imagerel $LN108+4357
	DD	imagerel $unwind$load_display
$pdata$build_senseX DD imagerel $LN13
	DD	imagerel $LN13+451
	DD	imagerel $unwind$build_senseX
$pdata$build_sense_3410 DD imagerel $LN3
	DD	imagerel $LN3+184
	DD	imagerel $unwind$build_sense_3410
$pdata$build_sense_3420 DD imagerel $LN3
	DD	imagerel $LN3+294
	DD	imagerel $unwind$build_sense_3420
$pdata$build_sense_3410_3420 DD imagerel $LN38
	DD	imagerel $LN38+1352
	DD	imagerel $unwind$build_sense_3410_3420
$pdata$build_sense_3480_etal DD imagerel $LN49
	DD	imagerel $LN49+2324
	DD	imagerel $unwind$build_sense_3480_etal
$pdata$build_sense_3490 DD imagerel $LN3
	DD	imagerel $LN3+53
	DD	imagerel $unwind$build_sense_3490
$pdata$build_sense_3590 DD imagerel $LN59
	DD	imagerel $LN59+1072
	DD	imagerel $unwind$build_sense_3590
$pdata$build_sense_Streaming DD imagerel $LN38
	DD	imagerel $LN38+1356
	DD	imagerel $unwind$build_sense_Streaming
$pdata$findtamdir DD imagerel findtamdir
	DD	imagerel findtamdir+245
	DD	imagerel $unwind$findtamdir
pdata	ENDS
_DATA	SEGMENT
$SG169351 DB	'AWS', 00H
$SG169352 DB	'OMA', 00H
$SG169353 DB	'SCSI', 00H
	ORG $+3
$SG169354 DB	'HET', 00H
$SG169355 DB	'FAKE', 00H
	ORG $+3
$SG169356 DB	'DWTVF', 00H
	ORG $+2
$SG169358 DB	'E', 00H
	ORG $+2
$SG169357 DB	'UNKNOWN', 00H
$SG169359 DB	'HHC00212%s %1d:%04X Tape file %s, type %s: data chaining'
	DB	' not supported for CCW %2.2X', 0aH, 00H
	ORG $+2
$SG169360 DB	'tapedev_execute_ccw', 00H
$SG169386 DB	'*', 00H
	ORG $+2
$SG169361 DB	'tapeccws.c', 00H
	ORG $+1
$SG169461 DB	'E', 00H
	ORG $+2
$SG169365 DB	'tapedev_execute_ccw', 00H
$SG169541 DB	'*', 00H
	ORG $+2
$SG169366 DB	'tapeccws.c', 00H
	ORG $+5
$SG169369 DB	'tapedev_execute_ccw', 00H
	ORG $+4
$SG169367 DB	'%s(%d) : warning HHC90999W : *** Assertion Failed! *** f'
	DB	'unction: %s', 0aH, 00H
	ORG $+3
$SG169370 DB	'tapeccws.c', 00H
	ORG $+5
$SG169459 DB	'tapeccws.c:1054', 00H
$SG169462 DB	'HHC00102%s Error in function create_thread(): %s', 0aH, 00H
	ORG $+6
$SG169371 DB	'%s(%d) : warning HHC90999W : *** Assertion Failed! *** f'
	DB	'unction: %s', 0aH, 00H
	ORG $+3
$SG169458 DB	'autoload wait for %4.4X tapemount thread', 00H
	ORG $+3
$SG169544 DB	'*', 00H
	ORG $+2
$SG169463 DB	'tapedev_execute_ccw', 00H
$SG169551 DB	'AWS', 00H
$SG169464 DB	'tapeccws.c', 00H
	ORG $+1
$SG169552 DB	'OMA', 00H
$SG169540 DB	'OFFLINE', 00H
$SG169542 DB	'tapeccws.c:1630', 00H
$SG169549 DB	'unresolvable path', 00H
	ORG $+2
$SG169554 DB	'HET', 00H
$SG169550 DB	'auto-mount', 00H
	ORG $+1
$SG169553 DB	'SCSI', 00H
	ORG $+3
$SG169555 DB	'FAKE', 00H
	ORG $+3
$SG169556 DB	'DWTVF', 00H
	ORG $+2
$SG169558 DB	'E', 00H
	ORG $+2
$SG169557 DB	'UNKNOWN', 00H
$SG169559 DB	'HHC00205%s %1d:%04X Tape file %s, type %s: error in func'
	DB	'tion %s: %s', 0aH, 00H
	ORG $+3
$SG169560 DB	'tapedev_execute_ccw', 00H
$SG169566 DB	'AWS', 00H
$SG169561 DB	'tapeccws.c', 00H
	ORG $+1
$SG169567 DB	'OMA', 00H
$SG169562 DB	'tapeccws.c:1671', 00H
$SG169564 DB	'impermissible directory', 00H
$SG169565 DB	'auto-mount', 00H
	ORG $+1
$SG169568 DB	'SCSI', 00H
	ORG $+3
$SG169569 DB	'HET', 00H
$SG169570 DB	'FAKE', 00H
	ORG $+3
$SG169571 DB	'DWTVF', 00H
	ORG $+2
$SG169572 DB	'UNKNOWN', 00H
$SG169573 DB	'E', 00H
	ORG $+6
$SG169574 DB	'HHC00205%s %1d:%04X Tape file %s, type %s: error in func'
	DB	'tion %s: %s', 0aH, 00H
	ORG $+3
$SG169575 DB	'tapedev_execute_ccw', 00H
$SG169581 DB	'AWS', 00H
$SG169576 DB	'tapeccws.c', 00H
	ORG $+1
$SG169582 DB	'OMA', 00H
$SG169577 DB	'tapeccws.c:1687', 00H
$SG169579 DB	'file not found', 00H
	ORG $+1
$SG169580 DB	'auto-mount', 00H
	ORG $+1
$SG169583 DB	'SCSI', 00H
	ORG $+3
$SG169584 DB	'HET', 00H
$SG169585 DB	'FAKE', 00H
	ORG $+3
$SG169586 DB	'DWTVF', 00H
	ORG $+2
$SG169587 DB	'UNKNOWN', 00H
$SG169588 DB	'E', 00H
	ORG $+6
$SG169590 DB	'tapedev_execute_ccw', 00H
	ORG $+4
$SG169589 DB	'HHC00205%s %1d:%04X Tape file %s, type %s: error in func'
	DB	'tion %s: %s', 0aH, 00H
	ORG $+3
$SG169591 DB	'tapeccws.c', 00H
	ORG $+1
$SG169594 DB	'*', 00H
	ORG $+2
$SG169592 DB	'tapeccws.c:1691', 00H
$SG169595 DB	'*', 00H
	ORG $+2
$SG169596 DB	'AWS', 00H
$SG169597 DB	'OMA', 00H
$SG169598 DB	'SCSI', 00H
	ORG $+3
$SG169599 DB	'HET', 00H
$SG169600 DB	'FAKE', 00H
	ORG $+3
$SG169601 DB	'DWTVF', 00H
	ORG $+2
$SG169602 DB	'UNKNOWN', 00H
$SG169603 DB	'E', 00H
	ORG $+6
$SG169604 DB	'HHC00214%s %1d:%04X Tape file %s, type %s: auto-mount re'
	DB	'jected: drive not empty', 0aH, 00H
	ORG $+3
$SG169616 DB	'*', 00H
	ORG $+2
$SG169605 DB	'tapedev_execute_ccw', 00H
$SG169619 DB	'AWS', 00H
$SG169606 DB	'tapeccws.c', 00H
	ORG $+1
$SG169620 DB	'OMA', 00H
$SG169607 DB	'tapeccws.c:1703', 00H
$SG169617 DB	'see previous message', 00H
	ORG $+3
$SG169618 DB	'auto-unmount', 00H
	ORG $+3
$SG169621 DB	'SCSI', 00H
	ORG $+3
$SG169622 DB	'HET', 00H
$SG169623 DB	'FAKE', 00H
	ORG $+3
$SG169624 DB	'DWTVF', 00H
	ORG $+2
$SG169626 DB	'E', 00H
	ORG $+2
$SG169625 DB	'UNKNOWN', 00H
$SG169627 DB	'HHC00205%s %1d:%04X Tape file %s, type %s: error in func'
	DB	'tion %s: %s', 0aH, 00H
	ORG $+3
$SG169628 DB	'tapedev_execute_ccw', 00H
$SG169632 DB	'AWS', 00H
$SG169629 DB	'tapeccws.c', 00H
	ORG $+1
$SG169633 DB	'OMA', 00H
$SG169630 DB	'file not found', 00H
	ORG $+1
$SG169631 DB	'auto-mount', 00H
	ORG $+1
$SG169634 DB	'SCSI', 00H
	ORG $+3
$SG169635 DB	'HET', 00H
$SG169636 DB	'FAKE', 00H
	ORG $+3
$SG169637 DB	'DWTVF', 00H
	ORG $+2
$SG169638 DB	'UNKNOWN', 00H
$SG169639 DB	'E', 00H
	ORG $+6
$SG169641 DB	'tapedev_execute_ccw', 00H
	ORG $+4
$SG169640 DB	'HHC00205%s %1d:%04X Tape file %s, type %s: error in func'
	DB	'tion %s: %s', 0aH, 00H
	ORG $+3
$SG169642 DB	'tapeccws.c', 00H
	ORG $+1
$SG169646 DB	'*', 00H
	ORG $+2
$SG169643 DB	'tapeccws.c:1747', 00H
$SG169647 DB	'AWS', 00H
$SG169648 DB	'OMA', 00H
$SG169649 DB	'SCSI', 00H
	ORG $+3
$SG169650 DB	'HET', 00H
$SG169651 DB	'FAKE', 00H
	ORG $+3
$SG169652 DB	'DWTVF', 00H
	ORG $+2
$SG169654 DB	'I', 00H
	ORG $+2
$SG169653 DB	'UNKNOWN', 00H
$SG169655 DB	'HHC00216%s %1d:%04X Tape file %s, type %s: auto-unmounte'
	DB	'd', 0aH, 00H
	ORG $+1
$SG169658 DB	'AWS', 00H
$SG169656 DB	'tapedev_execute_ccw', 00H
$SG169659 DB	'OMA', 00H
$SG169657 DB	'tapeccws.c', 00H
	ORG $+1
$SG169660 DB	'SCSI', 00H
	ORG $+3
$SG169661 DB	'HET', 00H
$SG169662 DB	'FAKE', 00H
	ORG $+3
$SG169663 DB	'DWTVF', 00H
	ORG $+2
$SG169664 DB	'UNKNOWN', 00H
$SG169665 DB	'I', 00H
	ORG $+2
$SG169690 DB	'AWS', 00H
$SG169666 DB	'HHC00215%s %1d:%04X Tape file %s, type %s: auto-mounted', 0aH
	DB	00H
	ORG $+3
$SG169691 DB	'OMA', 00H
$SG169667 DB	'tapedev_execute_ccw', 00H
$SG169693 DB	'HET', 00H
$SG169668 DB	'tapeccws.c', 00H
	ORG $+1
$SG169698 DB	'I', 00H
	ORG $+2
$SG169669 DB	'tapeccws.c:1770', 00H
$SG169678 DB	'tapedev_execute_ccw', 00H
$SG169895 DB	'AWS', 00H
$SG169679 DB	'tapeccws.c', 00H
	ORG $+5
$SG169682 DB	'tapedev_execute_ccw', 00H
	ORG $+4
$SG169680 DB	'%s(%d) : warning HHC90999W : *** Assertion Failed! *** f'
	DB	'unction: %s', 0aH, 00H
	ORG $+3
$SG169683 DB	'tapeccws.c', 00H
	ORG $+1
$SG169692 DB	'SCSI', 00H
	ORG $+7
$SG169684 DB	'%s(%d) : warning HHC90999W : *** Assertion Failed! *** f'
	DB	'unction: %s', 0aH, 00H
	ORG $+3
$SG169694 DB	'FAKE', 00H
	ORG $+3
$SG169695 DB	'DWTVF', 00H
	ORG $+2
$SG169696 DB	'UNKNOWN', 00H
$SG169699 DB	'HHC00217%s %1d:%04X Tape file %s, type %s: locate block '
	DB	'0x%8.8X', 0aH, 00H
	ORG $+3
$SG169896 DB	'OMA', 00H
$SG169700 DB	'tapedev_execute_ccw', 00H
$SG169898 DB	'HET', 00H
$SG169701 DB	'tapeccws.c', 00H
	ORG $+1
$SG169897 DB	'SCSI', 00H
	ORG $+3
$SG169899 DB	'FAKE', 00H
	ORG $+3
$SG169900 DB	'DWTVF', 00H
	ORG $+2
$SG169902 DB	'I', 00H
	ORG $+2
$SG169901 DB	'UNKNOWN', 00H
$SG169903 DB	'HHC00218%s %1d:%04X Tape file %s, type %s: display %s un'
	DB	'til unmounted', 0aH, 00H
	ORG $+1
$SG169904 DB	'load_display', 00H
	ORG $+3
$SG169905 DB	'tapeccws.c', 00H
	ORG $+1
$SG169909 DB	'AWS', 00H
$SG169910 DB	'OMA', 00H
$SG169911 DB	'SCSI', 00H
	ORG $+3
$SG169912 DB	'HET', 00H
$SG169913 DB	'FAKE', 00H
	ORG $+3
$SG169914 DB	'DWTVF', 00H
	ORG $+2
$SG169915 DB	'UNKNOWN', 00H
$SG169916 DB	'I', 00H
	ORG $+6
$SG169918 DB	'load_display', 00H
	ORG $+3
$SG169927 DB	'AWS', 00H
	ORG $+4
$SG169917 DB	'HHC00218%s %1d:%04X Tape file %s, type %s: display %s un'
	DB	'til unmounted', 0aH, 00H
	ORG $+1
$SG169919 DB	'tapeccws.c', 00H
	ORG $+1
$SG169928 DB	'OMA', 00H
$SG169929 DB	'SCSI', 00H
	ORG $+3
$SG169930 DB	'HET', 00H
$SG169931 DB	'FAKE', 00H
	ORG $+3
$SG169932 DB	'DWTVF', 00H
	ORG $+2
$SG169934 DB	'I', 00H
	ORG $+2
$SG169933 DB	'UNKNOWN', 00H
$SG169935 DB	'HHC00219%s %1d:%04X Tape file %s, type %s: display %s un'
	DB	'til unmounted, then %s until mounted', 0aH, 00H
	ORG $+2
$SG169936 DB	'load_display', 00H
	ORG $+3
$SG169937 DB	'tapeccws.c', 00H
	ORG $+1
$SG169939 DB	'AWS', 00H
$SG169940 DB	'OMA', 00H
$SG169941 DB	'SCSI', 00H
	ORG $+3
$SG169942 DB	'HET', 00H
$SG169943 DB	'FAKE', 00H
	ORG $+3
$SG169944 DB	'DWTVF', 00H
	ORG $+2
$SG169945 DB	'UNKNOWN', 00H
$SG169946 DB	'I', 00H
	ORG $+6
$SG169947 DB	'HHC00218%s %1d:%04X Tape file %s, type %s: display %s un'
	DB	'til unmounted', 0aH, 00H
	ORG $+1
$SG169948 DB	'load_display', 00H
	ORG $+3
$SG169949 DB	'tapeccws.c', 00H
	ORG $+1
$SG170015 DB	'*', 00H
	ORG $+2
$SG170093 DB	'*', 00H
	ORG $+2
$SG170204 DB	'*', 00H
_DATA	ENDS
voltbl	SEGMENT
_volmd	DD	0ffffffffH
	DDSymXIndex: 	FLAT:findtamdir
	DD	01eH
	DD	0ddH
_volmd	DD	0ffffffffH
	DDSymXIndex: 	FLAT:load_display
	DD	022H
	DD	0fefH
_volmd	DD	0ffffffffH
	DDSymXIndex: 	FLAT:tapedev_execute_ccw
	DD	026H
	DD	068c9H
voltbl	ENDS
;	COMDAT xdata
xdata	SEGMENT
$unwind$fetch_fw_noswap DD 010901H
	DD	02209H
xdata	ENDS
xdata	SEGMENT
$unwind$DebuggerTrace DD 011801H
	DD	0a218H
$unwind$is_tape_feat DD 010d01H
	DD	0620dH
$unwind$TapeCommandIsValid DD 011201H
	DD	02212H
$unwind$tapedev_execute_ccw DD 042e19H
	DD	0ef011cH
	DD	060147015H
	DD	imagerel __GSHandlerCheck
	DD	0760H
$unwind$load_display DD 032a19H
	DD	0400118H
	DD	07011H
	DD	imagerel __GSHandlerCheck
	DD	01f8H
$unwind$build_senseX DD 021801H
	DD	070147218H
$unwind$build_sense_3410 DD 011701H
	DD	04217H
$unwind$build_sense_3420 DD 011701H
	DD	04217H
$unwind$build_sense_3410_3420 DD 011701H
	DD	06217H
$unwind$build_sense_3480_etal DD 021801H
	DD	070145218H
$unwind$build_sense_3490 DD 011701H
	DD	04217H
$unwind$build_sense_3590 DD 011701H
	DD	06217H
$unwind$build_sense_Streaming DD 011701H
	DD	06217H
$unwind$findtamdir DD 022619H
	DD	04d0114H
	DD	imagerel __GSHandlerCheck
	DD	0250H
xdata	ENDS
;	COMDAT xdata
xdata	SEGMENT
$unwind$_vsnprintf_s DD 011801H
	DD	06218H
xdata	ENDS
;	COMDAT xdata
xdata	SEGMENT
$unwind$_vsnprintf_s_l DD 011801H
	DD	0a218H
xdata	ENDS
; Function compile flags: /Odtp
; File C:\papa\MyGit\hyperion-zvector\tapeccws.c
_TEXT	SEGMENT
pTAMDIR$ = 32
szTAMDIR$ = 48
szDIR$ = 320
__$ArrayPad$ = 592
rej$ = 624
minlen$ = 632
pszDir$ = 640
findtamdir PROC

; 3349 : {

  00000	4c 89 44 24 18	 mov	 QWORD PTR [rsp+24], r8
  00005	89 54 24 10	 mov	 DWORD PTR [rsp+16], edx
  00009	89 4c 24 08	 mov	 DWORD PTR [rsp+8], ecx
  0000d	48 81 ec 68 02
	00 00		 sub	 rsp, 616		; 00000268H
  00014	48 8b 05 00 00
	00 00		 mov	 rax, QWORD PTR __security_cookie
  0001b	48 33 c4	 xor	 rax, rsp
  0001e	48 89 84 24 50
	02 00 00	 mov	 QWORD PTR __$ArrayPad$[rsp], rax

; 3350 :     char    szDIR[MAX_PATH + 1];
; 3351 :     char    szTAMDIR[MAX_PATH + 1];
; 3352 :     TAMDIR *pTAMDIR;
; 3353 : 
; 3354 :     hostpath(szDIR, pszDir, sizeof(szDIR));

  00026	41 b8 05 01 00
	00		 mov	 r8d, 261		; 00000105H
  0002c	48 8b 94 24 80
	02 00 00	 mov	 rdx, QWORD PTR pszDir$[rsp]
  00034	48 8d 8c 24 40
	01 00 00	 lea	 rcx, QWORD PTR szDIR$[rsp]
  0003c	ff 15 00 00 00
	00		 call	 QWORD PTR __imp_hostpath

; 3355 : 
; 3356 :     pTAMDIR = sysblk.tamdir;    /* always search entire list */

  00042	48 8b 05 00 00
	00 00		 mov	 rax, QWORD PTR __imp_sysblk
  00049	48 8b 80 80 12
	00 00		 mov	 rax, QWORD PTR [rax+4736]
  00050	48 89 44 24 20	 mov	 QWORD PTR pTAMDIR$[rsp], rax
$LN4@findtamdir:

; 3357 : 
; 3358 :     do
; 3359 :     {
; 3360 :         hostpath(szTAMDIR, pTAMDIR->dir, sizeof(szTAMDIR));

  00055	41 b8 05 01 00
	00		 mov	 r8d, 261		; 00000105H
  0005b	48 8b 44 24 20	 mov	 rax, QWORD PTR pTAMDIR$[rsp]
  00060	48 8b 50 08	 mov	 rdx, QWORD PTR [rax+8]
  00064	48 8d 4c 24 30	 lea	 rcx, QWORD PTR szTAMDIR$[rsp]
  00069	ff 15 00 00 00
	00		 call	 QWORD PTR __imp_hostpath

; 3361 :         if (1
; 3362 :             && pTAMDIR->rej == rej
; 3363 :             && pTAMDIR->len > minlen
; 3364 :             && strnfilenamecmp( szDIR, szTAMDIR, pTAMDIR->len ) == 0

  0006f	33 c0		 xor	 eax, eax
  00071	83 f8 01	 cmp	 eax, 1
  00074	74 4c		 je	 SHORT $LN5@findtamdir
  00076	48 8b 44 24 20	 mov	 rax, QWORD PTR pTAMDIR$[rsp]
  0007b	8b 8c 24 70 02
	00 00		 mov	 ecx, DWORD PTR rej$[rsp]
  00082	39 48 14	 cmp	 DWORD PTR [rax+20], ecx
  00085	75 3b		 jne	 SHORT $LN5@findtamdir
  00087	48 8b 44 24 20	 mov	 rax, QWORD PTR pTAMDIR$[rsp]
  0008c	8b 8c 24 78 02
	00 00		 mov	 ecx, DWORD PTR minlen$[rsp]
  00093	39 48 10	 cmp	 DWORD PTR [rax+16], ecx
  00096	7e 2a		 jle	 SHORT $LN5@findtamdir
  00098	48 8b 44 24 20	 mov	 rax, QWORD PTR pTAMDIR$[rsp]
  0009d	48 63 40 10	 movsxd	 rax, DWORD PTR [rax+16]
  000a1	4c 8b c0	 mov	 r8, rax
  000a4	48 8d 54 24 30	 lea	 rdx, QWORD PTR szTAMDIR$[rsp]
  000a9	48 8d 8c 24 40
	01 00 00	 lea	 rcx, QWORD PTR szDIR$[rsp]
  000b1	ff 15 00 00 00
	00		 call	 QWORD PTR __imp__strnicmp
  000b7	85 c0		 test	 eax, eax
  000b9	75 07		 jne	 SHORT $LN5@findtamdir

; 3365 :         )
; 3366 :             return pTAMDIR;

  000bb	48 8b 44 24 20	 mov	 rax, QWORD PTR pTAMDIR$[rsp]
  000c0	eb 1b		 jmp	 SHORT $LN1@findtamdir
$LN5@findtamdir:

; 3367 :     }
; 3368 :         while ((pTAMDIR = pTAMDIR->next) != NULL);

  000c2	48 8b 44 24 20	 mov	 rax, QWORD PTR pTAMDIR$[rsp]
  000c7	48 8b 00	 mov	 rax, QWORD PTR [rax]
  000ca	48 89 44 24 20	 mov	 QWORD PTR pTAMDIR$[rsp], rax
  000cf	48 83 7c 24 20
	00		 cmp	 QWORD PTR pTAMDIR$[rsp], 0
  000d5	0f 85 7a ff ff
	ff		 jne	 $LN4@findtamdir

; 3369 :     return NULL;

  000db	33 c0		 xor	 eax, eax
$LN1@findtamdir:

; 3370 : }

  000dd	48 8b 8c 24 50
	02 00 00	 mov	 rcx, QWORD PTR __$ArrayPad$[rsp]
  000e5	48 33 cc	 xor	 rcx, rsp
  000e8	e8 00 00 00 00	 call	 __security_check_cookie
  000ed	48 81 c4 68 02
	00 00		 add	 rsp, 616		; 00000268H
  000f4	c3		 ret	 0
findtamdir ENDP
_TEXT	ENDS
; Function compile flags: /Odtp
; File C:\papa\MyGit\hyperion-zvector\tapeccws.c
_TEXT	SEGMENT
tv65 = 32
tv217 = 36
tv235 = 40
ERCode$ = 64
dev$ = 72
unitstat$ = 80
ccwcode$ = 88
build_sense_Streaming PROC

; 4147 : {

$LN38:
  00000	44 88 4c 24 20	 mov	 BYTE PTR [rsp+32], r9b
  00005	4c 89 44 24 18	 mov	 QWORD PTR [rsp+24], r8
  0000a	48 89 54 24 10	 mov	 QWORD PTR [rsp+16], rdx
  0000f	89 4c 24 08	 mov	 DWORD PTR [rsp+8], ecx
  00013	48 83 ec 38	 sub	 rsp, 56			; 00000038H
$LN4@build_sens:

; 4148 :     // NOTE: caller should have cleared sense area to zeros
; 4149 :     //       if this isn't a 'TAPE_BSENSE_STATUSONLY' call
; 4150 : 
; 4151 :     UNREFERENCED(ccwcode);

  00017	33 c0		 xor	 eax, eax
  00019	85 c0		 test	 eax, eax
  0001b	75 fa		 jne	 SHORT $LN4@build_sens

; 4152 : 
; 4153 :     switch(ERCode)

  0001d	8b 44 24 40	 mov	 eax, DWORD PTR ERCode$[rsp]
  00021	89 44 24 20	 mov	 DWORD PTR tv65[rsp], eax
  00025	83 7c 24 20 14	 cmp	 DWORD PTR tv65[rsp], 20
  0002a	0f 87 2f 02 00
	00		 ja	 $LN5@build_sens
  00030	48 63 44 24 20	 movsxd	 rax, DWORD PTR tv65[rsp]
  00035	48 8d 0d 00 00
	00 00		 lea	 rcx, OFFSET FLAT:__ImageBase
  0003c	8b 84 81 00 00
	00 00		 mov	 eax, DWORD PTR $LN37@build_sens[rcx+rax*4]
  00043	48 03 c1	 add	 rax, rcx
  00046	ff e0		 jmp	 rax
$LN7@build_sens:

; 4154 :     {
; 4155 :     case TAPE_BSENSE_TAPEUNLOADED:
; 4156 :         *unitstat = CSW_UC;

  00048	48 8b 44 24 50	 mov	 rax, QWORD PTR unitstat$[rsp]
  0004d	c6 00 02	 mov	 BYTE PTR [rax], 2

; 4157 :         dev->sense[0] = SENSE_IR;

  00050	b8 01 00 00 00	 mov	 eax, 1
  00055	48 6b c0 00	 imul	 rax, rax, 0
  00059	48 8b 4c 24 48	 mov	 rcx, QWORD PTR dev$[rsp]
  0005e	c6 84 01 64 03
	00 00 40	 mov	 BYTE PTR [rcx+rax+868], 64 ; 00000040H

; 4158 :         dev->sense[3] = 6;        /* Int Req ERAC */

  00066	b8 01 00 00 00	 mov	 eax, 1
  0006b	48 6b c0 03	 imul	 rax, rax, 3
  0006f	48 8b 4c 24 48	 mov	 rcx, QWORD PTR dev$[rsp]
  00074	c6 84 01 64 03
	00 00 06	 mov	 BYTE PTR [rcx+rax+868], 6

; 4159 :         break;

  0007c	e9 de 01 00 00	 jmp	 $LN5@build_sens
$LN8@build_sens:

; 4160 :     case TAPE_BSENSE_RUN_SUCCESS: /* RewUnld op */
; 4161 :         *unitstat = CSW_UC | CSW_CE | CSW_DE | CSW_CUE;

  00081	48 8b 44 24 50	 mov	 rax, QWORD PTR unitstat$[rsp]
  00086	c6 00 2e	 mov	 BYTE PTR [rax], 46	; 0000002eH

; 4162 :         /*
; 4163 :         *unitstat = CSW_CE | CSW_UC | CSW_DE | CSW_CUE;
; 4164 :         */
; 4165 :         dev->sense[0] = SENSE_IR;

  00089	b8 01 00 00 00	 mov	 eax, 1
  0008e	48 6b c0 00	 imul	 rax, rax, 0
  00092	48 8b 4c 24 48	 mov	 rcx, QWORD PTR dev$[rsp]
  00097	c6 84 01 64 03
	00 00 40	 mov	 BYTE PTR [rcx+rax+868], 64 ; 00000040H

; 4166 :         dev->sense[3] = 6;        /* Int Req ERAC */

  0009f	b8 01 00 00 00	 mov	 eax, 1
  000a4	48 6b c0 03	 imul	 rax, rax, 3
  000a8	48 8b 4c 24 48	 mov	 rcx, QWORD PTR dev$[rsp]
  000ad	c6 84 01 64 03
	00 00 06	 mov	 BYTE PTR [rcx+rax+868], 6

; 4167 :         break;

  000b5	e9 a5 01 00 00	 jmp	 $LN5@build_sens
$LN9@build_sens:
$LN10@build_sens:

; 4168 :     case TAPE_BSENSE_REWINDFAILED:
; 4169 :     case TAPE_BSENSE_ITFERROR:
; 4170 :         dev->sense[0] = SENSE_EC;

  000ba	b8 01 00 00 00	 mov	 eax, 1
  000bf	48 6b c0 00	 imul	 rax, rax, 0
  000c3	48 8b 4c 24 48	 mov	 rcx, QWORD PTR dev$[rsp]
  000c8	c6 84 01 64 03
	00 00 10	 mov	 BYTE PTR [rcx+rax+868], 16

; 4171 :         dev->sense[3] = 0x03;     /* Perm Equip Check */

  000d0	b8 01 00 00 00	 mov	 eax, 1
  000d5	48 6b c0 03	 imul	 rax, rax, 3
  000d9	48 8b 4c 24 48	 mov	 rcx, QWORD PTR dev$[rsp]
  000de	c6 84 01 64 03
	00 00 03	 mov	 BYTE PTR [rcx+rax+868], 3

; 4172 :         *unitstat = CSW_CE|CSW_DE|CSW_UC;

  000e6	48 8b 44 24 50	 mov	 rax, QWORD PTR unitstat$[rsp]
  000eb	c6 00 0e	 mov	 BYTE PTR [rax], 14

; 4173 :         break;

  000ee	e9 6c 01 00 00	 jmp	 $LN5@build_sens
$LN11@build_sens:
$LN12@build_sens:
$LN13@build_sens:
$LN14@build_sens:
$LN15@build_sens:
$LN16@build_sens:
$LN17@build_sens:

; 4174 :     case TAPE_BSENSE_TAPELOADFAIL:
; 4175 :     case TAPE_BSENSE_LOCATEERR:
; 4176 :     case TAPE_BSENSE_ENDOFTAPE:
; 4177 :     case TAPE_BSENSE_EMPTYTAPE:
; 4178 :     case TAPE_BSENSE_FENCED:
; 4179 :     case TAPE_BSENSE_BLOCKSHORT:
; 4180 :     case TAPE_BSENSE_INCOMPAT:
; 4181 :         dev->sense[0] = SENSE_EC;

  000f3	b8 01 00 00 00	 mov	 eax, 1
  000f8	48 6b c0 00	 imul	 rax, rax, 0
  000fc	48 8b 4c 24 48	 mov	 rcx, QWORD PTR dev$[rsp]
  00101	c6 84 01 64 03
	00 00 10	 mov	 BYTE PTR [rcx+rax+868], 16

; 4182 :         dev->sense[3] = 0x10; /* PE-ID Burst Check */

  00109	b8 01 00 00 00	 mov	 eax, 1
  0010e	48 6b c0 03	 imul	 rax, rax, 3
  00112	48 8b 4c 24 48	 mov	 rcx, QWORD PTR dev$[rsp]
  00117	c6 84 01 64 03
	00 00 10	 mov	 BYTE PTR [rcx+rax+868], 16

; 4183 :         *unitstat = CSW_CE|CSW_DE|CSW_UC;

  0011f	48 8b 44 24 50	 mov	 rax, QWORD PTR unitstat$[rsp]
  00124	c6 00 0e	 mov	 BYTE PTR [rax], 14

; 4184 :         break;

  00127	e9 33 01 00 00	 jmp	 $LN5@build_sens
$LN18@build_sens:
$LN19@build_sens:

; 4185 :     case TAPE_BSENSE_BADALGORITHM:
; 4186 :     case TAPE_BSENSE_READFAIL:
; 4187 :         dev->sense[0] = SENSE_DC;

  0012c	b8 01 00 00 00	 mov	 eax, 1
  00131	48 6b c0 00	 imul	 rax, rax, 0
  00135	48 8b 4c 24 48	 mov	 rcx, QWORD PTR dev$[rsp]
  0013a	c6 84 01 64 03
	00 00 08	 mov	 BYTE PTR [rcx+rax+868], 8

; 4188 :         dev->sense[3] = 0x09;     /* Read Data Check */

  00142	b8 01 00 00 00	 mov	 eax, 1
  00147	48 6b c0 03	 imul	 rax, rax, 3
  0014b	48 8b 4c 24 48	 mov	 rcx, QWORD PTR dev$[rsp]
  00150	c6 84 01 64 03
	00 00 09	 mov	 BYTE PTR [rcx+rax+868], 9

; 4189 :         *unitstat = CSW_CE|CSW_DE|CSW_UC;

  00158	48 8b 44 24 50	 mov	 rax, QWORD PTR unitstat$[rsp]
  0015d	c6 00 0e	 mov	 BYTE PTR [rax], 14

; 4190 :         break;

  00160	e9 fa 00 00 00	 jmp	 $LN5@build_sens
$LN20@build_sens:

; 4191 :     case TAPE_BSENSE_WRITEFAIL:
; 4192 :         dev->sense[0] = SENSE_DC;

  00165	b8 01 00 00 00	 mov	 eax, 1
  0016a	48 6b c0 00	 imul	 rax, rax, 0
  0016e	48 8b 4c 24 48	 mov	 rcx, QWORD PTR dev$[rsp]
  00173	c6 84 01 64 03
	00 00 08	 mov	 BYTE PTR [rcx+rax+868], 8

; 4193 :         dev->sense[3] = 0x07;     /* Write Data Check (Media Error) */

  0017b	b8 01 00 00 00	 mov	 eax, 1
  00180	48 6b c0 03	 imul	 rax, rax, 3
  00184	48 8b 4c 24 48	 mov	 rcx, QWORD PTR dev$[rsp]
  00189	c6 84 01 64 03
	00 00 07	 mov	 BYTE PTR [rcx+rax+868], 7

; 4194 :         *unitstat = CSW_CE|CSW_DE|CSW_UC;

  00191	48 8b 44 24 50	 mov	 rax, QWORD PTR unitstat$[rsp]
  00196	c6 00 0e	 mov	 BYTE PTR [rax], 14

; 4195 :         break;

  00199	e9 c1 00 00 00	 jmp	 $LN5@build_sens
$LN21@build_sens:

; 4196 :     case TAPE_BSENSE_BADCOMMAND:
; 4197 :         dev->sense[0] = SENSE_CR;

  0019e	b8 01 00 00 00	 mov	 eax, 1
  001a3	48 6b c0 00	 imul	 rax, rax, 0
  001a7	48 8b 4c 24 48	 mov	 rcx, QWORD PTR dev$[rsp]
  001ac	c6 84 01 64 03
	00 00 80	 mov	 BYTE PTR [rcx+rax+868], 128 ; 00000080H

; 4198 :         dev->sense[3] = 0x0C;     /* Bad Command */

  001b4	b8 01 00 00 00	 mov	 eax, 1
  001b9	48 6b c0 03	 imul	 rax, rax, 3
  001bd	48 8b 4c 24 48	 mov	 rcx, QWORD PTR dev$[rsp]
  001c2	c6 84 01 64 03
	00 00 0c	 mov	 BYTE PTR [rcx+rax+868], 12

; 4199 :         *unitstat = CSW_UC;

  001ca	48 8b 44 24 50	 mov	 rax, QWORD PTR unitstat$[rsp]
  001cf	c6 00 02	 mov	 BYTE PTR [rax], 2

; 4200 :         break;

  001d2	e9 88 00 00 00	 jmp	 $LN5@build_sens
$LN22@build_sens:

; 4201 :     case TAPE_BSENSE_WRITEPROTECT:
; 4202 :         dev->sense[0] = SENSE_CR;

  001d7	b8 01 00 00 00	 mov	 eax, 1
  001dc	48 6b c0 00	 imul	 rax, rax, 0
  001e0	48 8b 4c 24 48	 mov	 rcx, QWORD PTR dev$[rsp]
  001e5	c6 84 01 64 03
	00 00 80	 mov	 BYTE PTR [rcx+rax+868], 128 ; 00000080H

; 4203 :         dev->sense[3] = 0x0B;     /* File Protect */

  001ed	b8 01 00 00 00	 mov	 eax, 1
  001f2	48 6b c0 03	 imul	 rax, rax, 3
  001f6	48 8b 4c 24 48	 mov	 rcx, QWORD PTR dev$[rsp]
  001fb	c6 84 01 64 03
	00 00 0b	 mov	 BYTE PTR [rcx+rax+868], 11

; 4204 :         *unitstat = CSW_CE|CSW_DE|CSW_UC;

  00203	48 8b 44 24 50	 mov	 rax, QWORD PTR unitstat$[rsp]
  00208	c6 00 0e	 mov	 BYTE PTR [rax], 14

; 4205 :         break;

  0020b	eb 52		 jmp	 SHORT $LN5@build_sens
$LN23@build_sens:

; 4206 :     case TAPE_BSENSE_LOADPTERR:
; 4207 :         dev->sense[0] = SENSE_CR;

  0020d	b8 01 00 00 00	 mov	 eax, 1
  00212	48 6b c0 00	 imul	 rax, rax, 0
  00216	48 8b 4c 24 48	 mov	 rcx, QWORD PTR dev$[rsp]
  0021b	c6 84 01 64 03
	00 00 80	 mov	 BYTE PTR [rcx+rax+868], 128 ; 00000080H

; 4208 :         dev->sense[3] = 0x0D;     /* Backspace at Load Point */

  00223	b8 01 00 00 00	 mov	 eax, 1
  00228	48 6b c0 03	 imul	 rax, rax, 3
  0022c	48 8b 4c 24 48	 mov	 rcx, QWORD PTR dev$[rsp]
  00231	c6 84 01 64 03
	00 00 0d	 mov	 BYTE PTR [rcx+rax+868], 13

; 4209 :         *unitstat = CSW_CE|CSW_DE|CSW_UC;

  00239	48 8b 44 24 50	 mov	 rax, QWORD PTR unitstat$[rsp]
  0023e	c6 00 0e	 mov	 BYTE PTR [rax], 14

; 4210 :         break;

  00241	eb 1c		 jmp	 SHORT $LN5@build_sens
$LN24@build_sens:

; 4211 :     case TAPE_BSENSE_READTM:
; 4212 :         *unitstat = CSW_CE|CSW_DE|CSW_UX;

  00243	48 8b 44 24 50	 mov	 rax, QWORD PTR unitstat$[rsp]
  00248	c6 00 0d	 mov	 BYTE PTR [rax], 13

; 4213 :         break;

  0024b	eb 12		 jmp	 SHORT $LN5@build_sens
$LN25@build_sens:

; 4214 :     case TAPE_BSENSE_UNSOLICITED:
; 4215 :         *unitstat = CSW_CE|CSW_DE;

  0024d	48 8b 44 24 50	 mov	 rax, QWORD PTR unitstat$[rsp]
  00252	c6 00 0c	 mov	 BYTE PTR [rax], 12

; 4216 :         break;

  00255	eb 08		 jmp	 SHORT $LN5@build_sens
$LN26@build_sens:

; 4217 :     case TAPE_BSENSE_STATUSONLY:
; 4218 :         *unitstat = CSW_CE|CSW_DE;

  00257	48 8b 44 24 50	 mov	 rax, QWORD PTR unitstat$[rsp]
  0025c	c6 00 0c	 mov	 BYTE PTR [rax], 12
$LN5@build_sens:

; 4219 :         break;
; 4220 :     } // end switch(ERCode)
; 4221 : 
; 4222 :     if (TAPE_BSENSE_STATUSONLY == ERCode)

  0025f	83 7c 24 40 0d	 cmp	 DWORD PTR ERCode$[rsp], 13
  00264	75 05		 jne	 SHORT $LN27@build_sens

; 4223 :         return; // (mission accomplished)

  00266	e9 85 02 00 00	 jmp	 $LN1@build_sens
$LN27@build_sens:

; 4224 : 
; 4225 :     /* Fill in the common sense information */
; 4226 : 
; 4227 :     if (strcmp(dev->filename,TAPE_UNLOADED) == 0
; 4228 :         || !dev->tmh->tapeloaded(dev,NULL,0))

  0026b	48 8b 44 24 48	 mov	 rax, QWORD PTR dev$[rsp]
  00270	48 05 a4 00 00
	00		 add	 rax, 164		; 000000a4H
  00276	48 8d 15 00 00
	00 00		 lea	 rdx, OFFSET FLAT:$SG170204
  0027d	48 8b c8	 mov	 rcx, rax
  00280	e8 00 00 00 00	 call	 strcmp
  00285	85 c0		 test	 eax, eax
  00287	74 21		 je	 SHORT $LN30@build_sens
  00289	48 8b 44 24 48	 mov	 rax, QWORD PTR dev$[rsp]
  0028e	48 8b 80 e0 10
	00 00		 mov	 rax, QWORD PTR [rax+4320]
  00295	45 33 c0	 xor	 r8d, r8d
  00298	33 d2		 xor	 edx, edx
  0029a	48 8b 4c 24 48	 mov	 rcx, QWORD PTR dev$[rsp]
  0029f	ff 50 70	 call	 QWORD PTR [rax+112]
  002a2	85 c0		 test	 eax, eax
  002a4	0f 85 bd 00 00
	00		 jne	 $LN28@build_sens
$LN30@build_sens:

; 4229 :     {
; 4230 :         dev->sense[0] |= SENSE_IR;

  002aa	b8 01 00 00 00	 mov	 eax, 1
  002af	48 6b c0 00	 imul	 rax, rax, 0
  002b3	48 8b 4c 24 48	 mov	 rcx, QWORD PTR dev$[rsp]
  002b8	0f b6 84 01 64
	03 00 00	 movzx	 eax, BYTE PTR [rcx+rax+868]
  002c0	83 c8 40	 or	 eax, 64			; 00000040H
  002c3	b9 01 00 00 00	 mov	 ecx, 1
  002c8	48 6b c9 00	 imul	 rcx, rcx, 0
  002cc	48 8b 54 24 48	 mov	 rdx, QWORD PTR dev$[rsp]
  002d1	88 84 0a 64 03
	00 00		 mov	 BYTE PTR [rdx+rcx+868], al

; 4231 :         dev->sense[1] |= SENSE1_TAPE_FP;

  002d8	b8 01 00 00 00	 mov	 eax, 1
  002dd	48 6b c0 01	 imul	 rax, rax, 1
  002e1	48 8b 4c 24 48	 mov	 rcx, QWORD PTR dev$[rsp]
  002e6	0f b6 84 01 64
	03 00 00	 movzx	 eax, BYTE PTR [rcx+rax+868]
  002ee	83 c8 02	 or	 eax, 2
  002f1	b9 01 00 00 00	 mov	 ecx, 1
  002f6	48 6b c9 01	 imul	 rcx, rcx, 1
  002fa	48 8b 54 24 48	 mov	 rdx, QWORD PTR dev$[rsp]
  002ff	88 84 0a 64 03
	00 00		 mov	 BYTE PTR [rdx+rcx+868], al

; 4232 :         dev->sense[1] &= ~SENSE1_TAPE_TUA;

  00306	b8 01 00 00 00	 mov	 eax, 1
  0030b	48 6b c0 01	 imul	 rax, rax, 1
  0030f	48 8b 4c 24 48	 mov	 rcx, QWORD PTR dev$[rsp]
  00314	0f b6 84 01 64
	03 00 00	 movzx	 eax, BYTE PTR [rcx+rax+868]
  0031c	83 e0 bf	 and	 eax, -65		; ffffffffffffffbfH
  0031f	b9 01 00 00 00	 mov	 ecx, 1
  00324	48 6b c9 01	 imul	 rcx, rcx, 1
  00328	48 8b 54 24 48	 mov	 rdx, QWORD PTR dev$[rsp]
  0032d	88 84 0a 64 03
	00 00		 mov	 BYTE PTR [rdx+rcx+868], al

; 4233 :         dev->sense[1] |= SENSE1_TAPE_TUB;

  00334	b8 01 00 00 00	 mov	 eax, 1
  00339	48 6b c0 01	 imul	 rax, rax, 1
  0033d	48 8b 4c 24 48	 mov	 rcx, QWORD PTR dev$[rsp]
  00342	0f b6 84 01 64
	03 00 00	 movzx	 eax, BYTE PTR [rcx+rax+868]
  0034a	83 c8 20	 or	 eax, 32			; 00000020H
  0034d	b9 01 00 00 00	 mov	 ecx, 1
  00352	48 6b c9 01	 imul	 rcx, rcx, 1
  00356	48 8b 54 24 48	 mov	 rdx, QWORD PTR dev$[rsp]
  0035b	88 84 0a 64 03
	00 00		 mov	 BYTE PTR [rdx+rcx+868], al

; 4234 :     }

  00362	e9 43 01 00 00	 jmp	 $LN29@build_sens
$LN28@build_sens:

; 4235 :     else
; 4236 :     {
; 4237 :         dev->sense[0] &= ~SENSE_IR;

  00367	b8 01 00 00 00	 mov	 eax, 1
  0036c	48 6b c0 00	 imul	 rax, rax, 0
  00370	48 8b 4c 24 48	 mov	 rcx, QWORD PTR dev$[rsp]
  00375	0f b6 84 01 64
	03 00 00	 movzx	 eax, BYTE PTR [rcx+rax+868]
  0037d	83 e0 bf	 and	 eax, -65		; ffffffffffffffbfH
  00380	b9 01 00 00 00	 mov	 ecx, 1
  00385	48 6b c9 00	 imul	 rcx, rcx, 0
  00389	48 8b 54 24 48	 mov	 rdx, QWORD PTR dev$[rsp]
  0038e	88 84 0a 64 03
	00 00		 mov	 BYTE PTR [rdx+rcx+868], al

; 4238 :         dev->sense[1] |= IsAtLoadPoint( dev ) ? SENSE1_TAPE_LOADPT : 0;

  00395	48 8b 4c 24 48	 mov	 rcx, QWORD PTR dev$[rsp]
  0039a	e8 00 00 00 00	 call	 IsAtLoadPoint
  0039f	85 c0		 test	 eax, eax
  003a1	74 0a		 je	 SHORT $LN33@build_sens
  003a3	c7 44 24 24 08
	00 00 00	 mov	 DWORD PTR tv217[rsp], 8
  003ab	eb 08		 jmp	 SHORT $LN34@build_sens
$LN33@build_sens:
  003ad	c7 44 24 24 00
	00 00 00	 mov	 DWORD PTR tv217[rsp], 0
$LN34@build_sens:
  003b5	b8 01 00 00 00	 mov	 eax, 1
  003ba	48 6b c0 01	 imul	 rax, rax, 1
  003be	48 8b 4c 24 48	 mov	 rcx, QWORD PTR dev$[rsp]
  003c3	0f b6 84 01 64
	03 00 00	 movzx	 eax, BYTE PTR [rcx+rax+868]
  003cb	0b 44 24 24	 or	 eax, DWORD PTR tv217[rsp]
  003cf	b9 01 00 00 00	 mov	 ecx, 1
  003d4	48 6b c9 01	 imul	 rcx, rcx, 1
  003d8	48 8b 54 24 48	 mov	 rdx, QWORD PTR dev$[rsp]
  003dd	88 84 0a 64 03
	00 00		 mov	 BYTE PTR [rdx+rcx+868], al

; 4239 :         dev->sense[1] |= dev->readonly || dev->tdparms.logical_readonly ?

  003e4	48 8b 44 24 48	 mov	 rax, QWORD PTR dev$[rsp]
  003e9	8b 80 78 10 00
	00		 mov	 eax, DWORD PTR [rax+4216]
  003ef	d1 e8		 shr	 eax, 1
  003f1	83 e0 01	 and	 eax, 1
  003f4	85 c0		 test	 eax, eax
  003f6	75 1f		 jne	 SHORT $LN35@build_sens
  003f8	48 8b 44 24 48	 mov	 rax, QWORD PTR dev$[rsp]
  003fd	8b 80 30 10 00
	00		 mov	 eax, DWORD PTR [rax+4144]
  00403	c1 e8 0b	 shr	 eax, 11
  00406	83 e0 01	 and	 eax, 1
  00409	85 c0		 test	 eax, eax
  0040b	75 0a		 jne	 SHORT $LN35@build_sens
  0040d	c7 44 24 28 00
	00 00 00	 mov	 DWORD PTR tv235[rsp], 0
  00415	eb 08		 jmp	 SHORT $LN36@build_sens
$LN35@build_sens:
  00417	c7 44 24 28 02
	00 00 00	 mov	 DWORD PTR tv235[rsp], 2
$LN36@build_sens:
  0041f	b8 01 00 00 00	 mov	 eax, 1
  00424	48 6b c0 01	 imul	 rax, rax, 1
  00428	48 8b 4c 24 48	 mov	 rcx, QWORD PTR dev$[rsp]
  0042d	0f b6 84 01 64
	03 00 00	 movzx	 eax, BYTE PTR [rcx+rax+868]
  00435	0b 44 24 28	 or	 eax, DWORD PTR tv235[rsp]
  00439	b9 01 00 00 00	 mov	 ecx, 1
  0043e	48 6b c9 01	 imul	 rcx, rcx, 1
  00442	48 8b 54 24 48	 mov	 rdx, QWORD PTR dev$[rsp]
  00447	88 84 0a 64 03
	00 00		 mov	 BYTE PTR [rdx+rcx+868], al

; 4240 :             SENSE1_TAPE_FP : 0;
; 4241 :         dev->sense[1] |= SENSE1_TAPE_TUA;

  0044e	b8 01 00 00 00	 mov	 eax, 1
  00453	48 6b c0 01	 imul	 rax, rax, 1
  00457	48 8b 4c 24 48	 mov	 rcx, QWORD PTR dev$[rsp]
  0045c	0f b6 84 01 64
	03 00 00	 movzx	 eax, BYTE PTR [rcx+rax+868]
  00464	83 c8 40	 or	 eax, 64			; 00000040H
  00467	b9 01 00 00 00	 mov	 ecx, 1
  0046c	48 6b c9 01	 imul	 rcx, rcx, 1
  00470	48 8b 54 24 48	 mov	 rdx, QWORD PTR dev$[rsp]
  00475	88 84 0a 64 03
	00 00		 mov	 BYTE PTR [rdx+rcx+868], al

; 4242 :         dev->sense[1] &= ~SENSE1_TAPE_TUB;

  0047c	b8 01 00 00 00	 mov	 eax, 1
  00481	48 6b c0 01	 imul	 rax, rax, 1
  00485	48 8b 4c 24 48	 mov	 rcx, QWORD PTR dev$[rsp]
  0048a	0f b6 84 01 64
	03 00 00	 movzx	 eax, BYTE PTR [rcx+rax+868]
  00492	83 e0 df	 and	 eax, -33		; ffffffffffffffdfH
  00495	b9 01 00 00 00	 mov	 ecx, 1
  0049a	48 6b c9 01	 imul	 rcx, rcx, 1
  0049e	48 8b 54 24 48	 mov	 rdx, QWORD PTR dev$[rsp]
  004a3	88 84 0a 64 03
	00 00		 mov	 BYTE PTR [rdx+rcx+868], al
$LN29@build_sens:

; 4243 :     }
; 4244 :     if (dev->tmh->passedeot(dev))

  004aa	48 8b 44 24 48	 mov	 rax, QWORD PTR dev$[rsp]
  004af	48 8b 80 e0 10
	00 00		 mov	 rax, QWORD PTR [rax+4320]
  004b6	48 8b 4c 24 48	 mov	 rcx, QWORD PTR dev$[rsp]
  004bb	ff 50 78	 call	 QWORD PTR [rax+120]
  004be	85 c0		 test	 eax, eax
  004c0	74 2e		 je	 SHORT $LN31@build_sens

; 4245 :     {
; 4246 :         dev->sense[4] |= 0x40;

  004c2	b8 01 00 00 00	 mov	 eax, 1
  004c7	48 6b c0 04	 imul	 rax, rax, 4
  004cb	48 8b 4c 24 48	 mov	 rcx, QWORD PTR dev$[rsp]
  004d0	0f b6 84 01 64
	03 00 00	 movzx	 eax, BYTE PTR [rcx+rax+868]
  004d8	83 c8 40	 or	 eax, 64			; 00000040H
  004db	b9 01 00 00 00	 mov	 ecx, 1
  004e0	48 6b c9 04	 imul	 rcx, rcx, 4
  004e4	48 8b 54 24 48	 mov	 rdx, QWORD PTR dev$[rsp]
  004e9	88 84 0a 64 03
	00 00		 mov	 BYTE PTR [rdx+rcx+868], al
$LN31@build_sens:
$LN1@build_sens:

; 4247 :     }
; 4248 : 
; 4249 : } /* end function build_sense_Streaming */

  004f0	48 83 c4 38	 add	 rsp, 56			; 00000038H
  004f4	c3		 ret	 0
  004f5	0f 1f 00	 npad	 3
$LN37@build_sens:
  004f8	00 00 00 00	 DD	 $LN7@build_sens
  004fc	00 00 00 00	 DD	 $LN11@build_sens
  00500	00 00 00 00	 DD	 $LN19@build_sens
  00504	00 00 00 00	 DD	 $LN20@build_sens
  00508	00 00 00 00	 DD	 $LN21@build_sens
  0050c	00 00 00 00	 DD	 $LN17@build_sens
  00510	00 00 00 00	 DD	 $LN22@build_sens
  00514	00 00 00 00	 DD	 $LN14@build_sens
  00518	00 00 00 00	 DD	 $LN13@build_sens
  0051c	00 00 00 00	 DD	 $LN23@build_sens
  00520	00 00 00 00	 DD	 $LN15@build_sens
  00524	00 00 00 00	 DD	 $LN18@build_sens
  00528	00 00 00 00	 DD	 $LN8@build_sens
  0052c	00 00 00 00	 DD	 $LN26@build_sens
  00530	00 00 00 00	 DD	 $LN12@build_sens
  00534	00 00 00 00	 DD	 $LN24@build_sens
  00538	00 00 00 00	 DD	 $LN5@build_sens
  0053c	00 00 00 00	 DD	 $LN16@build_sens
  00540	00 00 00 00	 DD	 $LN10@build_sens
  00544	00 00 00 00	 DD	 $LN9@build_sens
  00548	00 00 00 00	 DD	 $LN25@build_sens
build_sense_Streaming ENDP
_TEXT	ENDS
; Function compile flags: /Odtp
; File C:\papa\MyGit\hyperion-zvector\tapeccws.c
_TEXT	SEGMENT
ERA$ = 32
tv72 = 36
tv166 = 40
ERCode$ = 64
dev$ = 72
unitstat$ = 80
ccwcode$ = 88
build_sense_3590 PROC

; 4037 : {

$LN59:
  00000	44 88 4c 24 20	 mov	 BYTE PTR [rsp+32], r9b
  00005	4c 89 44 24 18	 mov	 QWORD PTR [rsp+24], r8
  0000a	48 89 54 24 10	 mov	 QWORD PTR [rsp+16], rdx
  0000f	89 4c 24 08	 mov	 DWORD PTR [rsp+8], ecx
  00013	48 83 ec 38	 sub	 rsp, 56			; 00000038H

; 4038 :     unsigned char ERA;
; 4039 :     // Until we know for sure that we have to do something different,
; 4040 :     // we should be able to safely use the 3480 sense function here...
; 4041 : 
; 4042 :     build_sense_3480_etal( ERCode, dev, unitstat, ccwcode );

  00017	44 0f b6 4c 24
	58		 movzx	 r9d, BYTE PTR ccwcode$[rsp]
  0001d	4c 8b 44 24 50	 mov	 r8, QWORD PTR unitstat$[rsp]
  00022	48 8b 54 24 48	 mov	 rdx, QWORD PTR dev$[rsp]
  00027	8b 4c 24 40	 mov	 ecx, DWORD PTR ERCode$[rsp]
  0002b	e8 00 00 00 00	 call	 build_sense_3480_etal

; 4043 : 
; 4044 : /* This information is from GA32-0127-03 sections 4.2 and 4.3
; 4045 :    although it is a 3490E reference guide, the values are correct
; 4046 :    for a 3590. For the 3480 and 3490 devices, these actions are
; 4047 :    determined by the OS. For 3590, the device through sense byte
; 4048 :    2 (two) tells the OS what to do.
; 4049 : */
; 4050 :     ERA = dev->sense[3];

  00030	b8 01 00 00 00	 mov	 eax, 1
  00035	48 6b c0 03	 imul	 rax, rax, 3
  00039	48 8b 4c 24 48	 mov	 rcx, QWORD PTR dev$[rsp]
  0003e	0f b6 84 01 64
	03 00 00	 movzx	 eax, BYTE PTR [rcx+rax+868]
  00046	88 44 24 20	 mov	 BYTE PTR ERA$[rsp], al

; 4051 : 
; 4052 :     switch ( ERA )          /* Set Software Recovery */

  0004a	0f b6 44 24 20	 movzx	 eax, BYTE PTR ERA$[rsp]
  0004f	89 44 24 24	 mov	 DWORD PTR tv72[rsp], eax
  00053	83 7c 24 24 57	 cmp	 DWORD PTR tv72[rsp], 87	; 00000057H
  00058	0f 87 5c 01 00
	00		 ja	 $LN25@build_sens
  0005e	48 63 44 24 24	 movsxd	 rax, DWORD PTR tv72[rsp]
  00063	48 8d 0d 00 00
	00 00		 lea	 rcx, OFFSET FLAT:__ImageBase
  0006a	0f b6 84 01 00
	00 00 00	 movzx	 eax, BYTE PTR $LN57@build_sens[rcx+rax]
  00072	8b 84 81 00 00
	00 00		 mov	 eax, DWORD PTR $LN58@build_sens[rcx+rax*4]
  00079	48 03 c1	 add	 rax, rcx
  0007c	ff e0		 jmp	 rax
$LN6@build_sens:

; 4053 :     {
; 4054 :     case TAPE_ERA_00_UNSOLICITED_SENSE:
; 4055 :         if ( unitstat[0] & CSW_UC )

  0007e	b8 01 00 00 00	 mov	 eax, 1
  00083	48 6b c0 00	 imul	 rax, rax, 0
  00087	48 8b 4c 24 50	 mov	 rcx, QWORD PTR unitstat$[rsp]
  0008c	0f b6 04 01	 movzx	 eax, BYTE PTR [rcx+rax]
  00090	83 e0 02	 and	 eax, 2
  00093	85 c0		 test	 eax, eax
  00095	74 5c		 je	 SHORT $LN7@build_sens

; 4056 :         {
; 4057 :             dev->sense[2] |= TAPE_SNS2_NTP_BRAC_00_PERM_ERR;

  00097	b8 01 00 00 00	 mov	 eax, 1
  0009c	48 6b c0 02	 imul	 rax, rax, 2
  000a0	b9 01 00 00 00	 mov	 ecx, 1
  000a5	48 6b c9 02	 imul	 rcx, rcx, 2
  000a9	48 8b 54 24 48	 mov	 rdx, QWORD PTR dev$[rsp]
  000ae	4c 8b 44 24 48	 mov	 r8, QWORD PTR dev$[rsp]
  000b3	41 0f b6 84 00
	64 03 00 00	 movzx	 eax, BYTE PTR [r8+rax+868]
  000bc	88 84 0a 64 03
	00 00		 mov	 BYTE PTR [rdx+rcx+868], al

; 4058 :             dev->sense[2] |= TAPE_SNS2_NTP_LOG_CD2_PERM_OBR;

  000c3	b8 01 00 00 00	 mov	 eax, 1
  000c8	48 6b c0 02	 imul	 rax, rax, 2
  000cc	48 8b 4c 24 48	 mov	 rcx, QWORD PTR dev$[rsp]
  000d1	0f b6 84 01 64
	03 00 00	 movzx	 eax, BYTE PTR [rcx+rax+868]
  000d9	83 c8 10	 or	 eax, 16
  000dc	b9 01 00 00 00	 mov	 ecx, 1
  000e1	48 6b c9 02	 imul	 rcx, rcx, 2
  000e5	48 8b 54 24 48	 mov	 rdx, QWORD PTR dev$[rsp]
  000ea	88 84 0a 64 03
	00 00		 mov	 BYTE PTR [rdx+rcx+868], al

; 4059 :         }

  000f1	eb 2c		 jmp	 SHORT $LN8@build_sens
$LN7@build_sens:

; 4060 :         else
; 4061 :         {
; 4062 :             dev->sense[2] |= TAPE_SNS2_NTP_LOG_CD0_NO_LOG;

  000f3	b8 01 00 00 00	 mov	 eax, 1
  000f8	48 6b c0 02	 imul	 rax, rax, 2
  000fc	b9 01 00 00 00	 mov	 ecx, 1
  00101	48 6b c9 02	 imul	 rcx, rcx, 2
  00105	48 8b 54 24 48	 mov	 rdx, QWORD PTR dev$[rsp]
  0010a	4c 8b 44 24 48	 mov	 r8, QWORD PTR dev$[rsp]
  0010f	41 0f b6 84 00
	64 03 00 00	 movzx	 eax, BYTE PTR [r8+rax+868]
  00118	88 84 0a 64 03
	00 00		 mov	 BYTE PTR [rdx+rcx+868], al
$LN8@build_sens:

; 4063 :         }
; 4064 :         break;

  0011f	e9 c2 00 00 00	 jmp	 $LN2@build_sens
$LN9@build_sens:
$LN10@build_sens:

; 4065 :         /* Software Recovery - CONTINUE */
; 4066 :     case TAPE_ERA_2B_ENVIRONMENTAL_DATA_PRESENT:
; 4067 :     case TAPE_ERA_52_END_OF_VOLUME_COMPLETE:
; 4068 :         dev->sense[2] |= TAPE_SNS2_NTP_BRAC_01_CONTINUE;

  00124	b8 01 00 00 00	 mov	 eax, 1
  00129	48 6b c0 02	 imul	 rax, rax, 2
  0012d	48 8b 4c 24 48	 mov	 rcx, QWORD PTR dev$[rsp]
  00132	0f b6 84 01 64
	03 00 00	 movzx	 eax, BYTE PTR [rcx+rax+868]
  0013a	83 c8 40	 or	 eax, 64			; 00000040H
  0013d	b9 01 00 00 00	 mov	 ecx, 1
  00142	48 6b c9 02	 imul	 rcx, rcx, 2
  00146	48 8b 54 24 48	 mov	 rdx, QWORD PTR dev$[rsp]
  0014b	88 84 0a 64 03
	00 00		 mov	 BYTE PTR [rdx+rcx+868], al

; 4069 :         break;

  00152	e9 8f 00 00 00	 jmp	 $LN2@build_sens
$LN11@build_sens:
$LN12@build_sens:
$LN13@build_sens:
$LN14@build_sens:
$LN15@build_sens:
$LN16@build_sens:
$LN17@build_sens:
$LN18@build_sens:
$LN19@build_sens:
$LN20@build_sens:

; 4070 :         /* Software Recovery - REISSUE */
; 4071 :     case TAPE_ERA_21_DATA_STREAMING_NOT_OPER:
; 4072 :     case TAPE_ERA_2A_UNSOL_ENVIRONMENTAL_DATA:
; 4073 :     case TAPE_ERA_42_DEGRADED_MODE:
; 4074 :     case TAPE_ERA_48_UNSOL_INFORMATIONAL_DATA:
; 4075 :     case TAPE_ERA_4C_RECOVERED_CHECKONE_FAILURE:
; 4076 :     case TAPE_ERA_50_BUFFERED_LOG_OVERFLOW:
; 4077 :     case TAPE_ERA_51_BUFFERED_LOG_END_OF_VOLUME:
; 4078 :     case TAPE_ERA_53_GLOBAL_COMMAND_INTERCEPT:
; 4079 :     case TAPE_ERA_54_TEMP_CHNL_INTERFACE_ERROR:
; 4080 :     case TAPE_ERA_57_GLOBAL_STATUS_INTERCEPT:
; 4081 :         dev->sense[2] |= TAPE_SNS2_NTP_BRAC_10_REISSUE;

  00157	b8 01 00 00 00	 mov	 eax, 1
  0015c	48 6b c0 02	 imul	 rax, rax, 2
  00160	48 8b 4c 24 48	 mov	 rcx, QWORD PTR dev$[rsp]
  00165	0f b6 84 01 64
	03 00 00	 movzx	 eax, BYTE PTR [rcx+rax+868]
  0016d	0f ba e8 07	 bts	 eax, 7
  00171	b9 01 00 00 00	 mov	 ecx, 1
  00176	48 6b c9 02	 imul	 rcx, rcx, 2
  0017a	48 8b 54 24 48	 mov	 rdx, QWORD PTR dev$[rsp]
  0017f	88 84 0a 64 03
	00 00		 mov	 BYTE PTR [rdx+rcx+868], al

; 4082 :         break;

  00186	eb 5e		 jmp	 SHORT $LN2@build_sens
$LN21@build_sens:
$LN22@build_sens:
$LN23@build_sens:
$LN24@build_sens:

; 4083 :         /* Software Recovery - DEFER REISSUE */
; 4084 :     case TAPE_ERA_33_LOAD_FAILURE:
; 4085 :     case TAPE_ERA_34_UNLOAD_FAILURE:
; 4086 :     case TAPE_ERA_3A_DRIVE_SWITCHED_NOT_READY:
; 4087 :     case TAPE_ERA_43_DRIVE_NOT_READY:
; 4088 :         dev->sense[2] |= TAPE_SNS2_NTP_BRAC_11_DEFER_REISS;

  00188	b8 01 00 00 00	 mov	 eax, 1
  0018d	48 6b c0 02	 imul	 rax, rax, 2
  00191	48 8b 4c 24 48	 mov	 rcx, QWORD PTR dev$[rsp]
  00196	0f b6 84 01 64
	03 00 00	 movzx	 eax, BYTE PTR [rcx+rax+868]
  0019e	0d c0 00 00 00	 or	 eax, 192		; 000000c0H
  001a3	b9 01 00 00 00	 mov	 ecx, 1
  001a8	48 6b c9 02	 imul	 rcx, rcx, 2
  001ac	48 8b 54 24 48	 mov	 rdx, QWORD PTR dev$[rsp]
  001b1	88 84 0a 64 03
	00 00		 mov	 BYTE PTR [rdx+rcx+868], al

; 4089 :         break;

  001b8	eb 2c		 jmp	 SHORT $LN2@build_sens
$LN25@build_sens:

; 4090 :     default:
; 4091 :         /* Software Recovery - NONE - PERMANENT */
; 4092 :         dev->sense[2] |= TAPE_SNS2_NTP_BRAC_00_PERM_ERR;

  001ba	b8 01 00 00 00	 mov	 eax, 1
  001bf	48 6b c0 02	 imul	 rax, rax, 2
  001c3	b9 01 00 00 00	 mov	 ecx, 1
  001c8	48 6b c9 02	 imul	 rcx, rcx, 2
  001cc	48 8b 54 24 48	 mov	 rdx, QWORD PTR dev$[rsp]
  001d1	4c 8b 44 24 48	 mov	 r8, QWORD PTR dev$[rsp]
  001d6	41 0f b6 84 00
	64 03 00 00	 movzx	 eax, BYTE PTR [r8+rax+868]
  001df	88 84 0a 64 03
	00 00		 mov	 BYTE PTR [rdx+rcx+868], al
$LN2@build_sens:

; 4093 :         break;
; 4094 :     }
; 4095 : 
; 4096 :     /* Check for OBR  */
; 4097 :     switch ( ERA )

  001e6	0f b6 44 24 20	 movzx	 eax, BYTE PTR ERA$[rsp]
  001eb	89 44 24 28	 mov	 DWORD PTR tv166[rsp], eax
  001ef	83 7c 24 28 57	 cmp	 DWORD PTR tv166[rsp], 87 ; 00000057H
  001f4	0f 87 83 00 00
	00		 ja	 $LN52@build_sens
  001fa	48 63 44 24 28	 movsxd	 rax, DWORD PTR tv166[rsp]
  001ff	48 8d 0d 00 00
	00 00		 lea	 rcx, OFFSET FLAT:__ImageBase
  00206	0f b6 84 01 00
	00 00 00	 movzx	 eax, BYTE PTR $LN55@build_sens[rcx+rax]
  0020e	8b 84 81 00 00
	00 00		 mov	 eax, DWORD PTR $LN56@build_sens[rcx+rax*4]
  00215	48 03 c1	 add	 rax, rcx
  00218	ff e0		 jmp	 rax
$LN26@build_sens:

; 4098 :     {
; 4099 :     case TAPE_ERA_00_UNSOLICITED_SENSE:
; 4100 :         break;

  0021a	e9 a6 00 00 00	 jmp	 $LN4@build_sens
$LN27@build_sens:
$LN28@build_sens:
$LN29@build_sens:
$LN30@build_sens:
$LN31@build_sens:
$LN32@build_sens:
$LN33@build_sens:
$LN34@build_sens:
$LN35@build_sens:
$LN36@build_sens:
$LN37@build_sens:
$LN38@build_sens:
$LN39@build_sens:
$LN40@build_sens:
$LN41@build_sens:
$LN42@build_sens:
$LN43@build_sens:
$LN44@build_sens:
$LN45@build_sens:

; 4101 :     case TAPE_ERA_24_LOAD_DISPLAY_CHECK:
; 4102 :     case TAPE_ERA_26_READ_OPPOSITE:
; 4103 :     case TAPE_ERA_27_COMMAND_REJECT:
; 4104 :     case TAPE_ERA_29_FUNCTION_INCOMPATIBLE:
; 4105 :     case TAPE_ERA_2A_UNSOL_ENVIRONMENTAL_DATA:
; 4106 :     case TAPE_ERA_2B_ENVIRONMENTAL_DATA_PRESENT:
; 4107 :     case TAPE_ERA_30_WRITE_PROTECTED:
; 4108 :     case TAPE_ERA_38_PHYSICAL_END_OF_TAPE:
; 4109 :     case TAPE_ERA_3A_DRIVE_SWITCHED_NOT_READY:
; 4110 :     case TAPE_ERA_43_DRIVE_NOT_READY:
; 4111 :     case TAPE_ERA_44_LOCATE_BLOCK_FAILED:
; 4112 :     case TAPE_ERA_45_DRIVE_ASSIGNED_ELSEWHERE:
; 4113 :     case TAPE_ERA_46_DRIVE_NOT_ONLINE:
; 4114 :     case TAPE_ERA_4E_MAX_BLOCKSIZE_EXCEEDED:
; 4115 :     case TAPE_ERA_50_BUFFERED_LOG_OVERFLOW:
; 4116 :     case TAPE_ERA_51_BUFFERED_LOG_END_OF_VOLUME:
; 4117 :     case TAPE_ERA_52_END_OF_VOLUME_COMPLETE:
; 4118 :     case TAPE_ERA_53_GLOBAL_COMMAND_INTERCEPT:
; 4119 :     case TAPE_ERA_57_GLOBAL_STATUS_INTERCEPT:
; 4120 :         /* OBR - NO LOG */
; 4121 :         dev->sense[2] |= TAPE_SNS2_NTP_LOG_CD0_NO_LOG;

  0021f	b8 01 00 00 00	 mov	 eax, 1
  00224	48 6b c0 02	 imul	 rax, rax, 2
  00228	b9 01 00 00 00	 mov	 ecx, 1
  0022d	48 6b c9 02	 imul	 rcx, rcx, 2
  00231	48 8b 54 24 48	 mov	 rdx, QWORD PTR dev$[rsp]
  00236	4c 8b 44 24 48	 mov	 r8, QWORD PTR dev$[rsp]
  0023b	41 0f b6 84 00
	64 03 00 00	 movzx	 eax, BYTE PTR [r8+rax+868]
  00244	88 84 0a 64 03
	00 00		 mov	 BYTE PTR [rdx+rcx+868], al

; 4122 :         break;

  0024b	eb 78		 jmp	 SHORT $LN4@build_sens
$LN46@build_sens:
$LN47@build_sens:
$LN48@build_sens:
$LN49@build_sens:
$LN50@build_sens:
$LN51@build_sens:

; 4123 :     case TAPE_ERA_21_DATA_STREAMING_NOT_OPER:
; 4124 :     case TAPE_ERA_33_LOAD_FAILURE:
; 4125 :     case TAPE_ERA_34_UNLOAD_FAILURE:
; 4126 :     case TAPE_ERA_48_UNSOL_INFORMATIONAL_DATA:
; 4127 :     case TAPE_ERA_4D_RESETTING_EVENT:
; 4128 :     case TAPE_ERA_54_TEMP_CHNL_INTERFACE_ERROR:
; 4129 :         /* OBR - TEMP */
; 4130 :         dev->sense[2] |= TAPE_SNS2_NTP_LOG_CD1_TEMP_OBR;

  0024d	b8 01 00 00 00	 mov	 eax, 1
  00252	48 6b c0 02	 imul	 rax, rax, 2
  00256	48 8b 4c 24 48	 mov	 rcx, QWORD PTR dev$[rsp]
  0025b	0f b6 84 01 64
	03 00 00	 movzx	 eax, BYTE PTR [rcx+rax+868]
  00263	83 c8 08	 or	 eax, 8
  00266	b9 01 00 00 00	 mov	 ecx, 1
  0026b	48 6b c9 02	 imul	 rcx, rcx, 2
  0026f	48 8b 54 24 48	 mov	 rdx, QWORD PTR dev$[rsp]
  00274	88 84 0a 64 03
	00 00		 mov	 BYTE PTR [rdx+rcx+868], al

; 4131 :         break;

  0027b	eb 48		 jmp	 SHORT $LN4@build_sens
$LN52@build_sens:

; 4132 :     default:
; 4133 :         /* OBR - NONE - PERMANENT */
; 4134 :         if ( ERA == TAPE_ERA_39_BACKWARD_AT_BOT && dev->blockid == 0 )

  0027d	0f b6 44 24 20	 movzx	 eax, BYTE PTR ERA$[rsp]
  00282	83 f8 39	 cmp	 eax, 57			; 00000039H
  00285	75 10		 jne	 SHORT $LN53@build_sens
  00287	48 8b 44 24 48	 mov	 rax, QWORD PTR dev$[rsp]
  0028c	83 b8 04 10 00
	00 00		 cmp	 DWORD PTR [rax+4100], 0
  00293	75 02		 jne	 SHORT $LN53@build_sens

; 4135 :             break;

  00295	eb 2e		 jmp	 SHORT $LN4@build_sens
$LN53@build_sens:

; 4136 :         dev->sense[2] |= TAPE_SNS2_NTP_LOG_CD2_PERM_OBR;

  00297	b8 01 00 00 00	 mov	 eax, 1
  0029c	48 6b c0 02	 imul	 rax, rax, 2
  002a0	48 8b 4c 24 48	 mov	 rcx, QWORD PTR dev$[rsp]
  002a5	0f b6 84 01 64
	03 00 00	 movzx	 eax, BYTE PTR [rcx+rax+868]
  002ad	83 c8 10	 or	 eax, 16
  002b0	b9 01 00 00 00	 mov	 ecx, 1
  002b5	48 6b c9 02	 imul	 rcx, rcx, 2
  002b9	48 8b 54 24 48	 mov	 rdx, QWORD PTR dev$[rsp]
  002be	88 84 0a 64 03
	00 00		 mov	 BYTE PTR [rdx+rcx+868], al
$LN4@build_sens:

; 4137 :         break;
; 4138 : 
; 4139 :     }
; 4140 : }

  002c5	48 83 c4 38	 add	 rsp, 56			; 00000038H
  002c9	c3		 ret	 0
  002ca	66 90		 npad	 2
$LN58@build_sens:
  002cc	00 00 00 00	 DD	 $LN6@build_sens
  002d0	00 00 00 00	 DD	 $LN11@build_sens
  002d4	00 00 00 00	 DD	 $LN12@build_sens
  002d8	00 00 00 00	 DD	 $LN9@build_sens
  002dc	00 00 00 00	 DD	 $LN21@build_sens
  002e0	00 00 00 00	 DD	 $LN22@build_sens
  002e4	00 00 00 00	 DD	 $LN23@build_sens
  002e8	00 00 00 00	 DD	 $LN13@build_sens
  002ec	00 00 00 00	 DD	 $LN24@build_sens
  002f0	00 00 00 00	 DD	 $LN14@build_sens
  002f4	00 00 00 00	 DD	 $LN15@build_sens
  002f8	00 00 00 00	 DD	 $LN16@build_sens
  002fc	00 00 00 00	 DD	 $LN17@build_sens
  00300	00 00 00 00	 DD	 $LN10@build_sens
  00304	00 00 00 00	 DD	 $LN18@build_sens
  00308	00 00 00 00	 DD	 $LN19@build_sens
  0030c	00 00 00 00	 DD	 $LN20@build_sens
  00310	00 00 00 00	 DD	 $LN25@build_sens
$LN57@build_sens:
  00314	00		 DB	 0
  00315	11		 DB	 17
  00316	11		 DB	 17
  00317	11		 DB	 17
  00318	11		 DB	 17
  00319	11		 DB	 17
  0031a	11		 DB	 17
  0031b	11		 DB	 17
  0031c	11		 DB	 17
  0031d	11		 DB	 17
  0031e	11		 DB	 17
  0031f	11		 DB	 17
  00320	11		 DB	 17
  00321	11		 DB	 17
  00322	11		 DB	 17
  00323	11		 DB	 17
  00324	11		 DB	 17
  00325	11		 DB	 17
  00326	11		 DB	 17
  00327	11		 DB	 17
  00328	11		 DB	 17
  00329	11		 DB	 17
  0032a	11		 DB	 17
  0032b	11		 DB	 17
  0032c	11		 DB	 17
  0032d	11		 DB	 17
  0032e	11		 DB	 17
  0032f	11		 DB	 17
  00330	11		 DB	 17
  00331	11		 DB	 17
  00332	11		 DB	 17
  00333	11		 DB	 17
  00334	11		 DB	 17
  00335	01		 DB	 1
  00336	11		 DB	 17
  00337	11		 DB	 17
  00338	11		 DB	 17
  00339	11		 DB	 17
  0033a	11		 DB	 17
  0033b	11		 DB	 17
  0033c	11		 DB	 17
  0033d	11		 DB	 17
  0033e	02		 DB	 2
  0033f	03		 DB	 3
  00340	11		 DB	 17
  00341	11		 DB	 17
  00342	11		 DB	 17
  00343	11		 DB	 17
  00344	11		 DB	 17
  00345	11		 DB	 17
  00346	11		 DB	 17
  00347	04		 DB	 4
  00348	05		 DB	 5
  00349	11		 DB	 17
  0034a	11		 DB	 17
  0034b	11		 DB	 17
  0034c	11		 DB	 17
  0034d	11		 DB	 17
  0034e	06		 DB	 6
  0034f	11		 DB	 17
  00350	11		 DB	 17
  00351	11		 DB	 17
  00352	11		 DB	 17
  00353	11		 DB	 17
  00354	11		 DB	 17
  00355	11		 DB	 17
  00356	07		 DB	 7
  00357	08		 DB	 8
  00358	11		 DB	 17
  00359	11		 DB	 17
  0035a	11		 DB	 17
  0035b	11		 DB	 17
  0035c	09		 DB	 9
  0035d	11		 DB	 17
  0035e	11		 DB	 17
  0035f	11		 DB	 17
  00360	0a		 DB	 10
  00361	11		 DB	 17
  00362	11		 DB	 17
  00363	11		 DB	 17
  00364	0b		 DB	 11
  00365	0c		 DB	 12
  00366	0d		 DB	 13
  00367	0e		 DB	 14
  00368	0f		 DB	 15
  00369	11		 DB	 17
  0036a	11		 DB	 17
  0036b	10		 DB	 16
$LN56@build_sens:
  0036c	00 00 00 00	 DD	 $LN26@build_sens
  00370	00 00 00 00	 DD	 $LN46@build_sens
  00374	00 00 00 00	 DD	 $LN27@build_sens
  00378	00 00 00 00	 DD	 $LN28@build_sens
  0037c	00 00 00 00	 DD	 $LN29@build_sens
  00380	00 00 00 00	 DD	 $LN30@build_sens
  00384	00 00 00 00	 DD	 $LN31@build_sens
  00388	00 00 00 00	 DD	 $LN32@build_sens
  0038c	00 00 00 00	 DD	 $LN33@build_sens
  00390	00 00 00 00	 DD	 $LN47@build_sens
  00394	00 00 00 00	 DD	 $LN48@build_sens
  00398	00 00 00 00	 DD	 $LN34@build_sens
  0039c	00 00 00 00	 DD	 $LN35@build_sens
  003a0	00 00 00 00	 DD	 $LN36@build_sens
  003a4	00 00 00 00	 DD	 $LN37@build_sens
  003a8	00 00 00 00	 DD	 $LN38@build_sens
  003ac	00 00 00 00	 DD	 $LN39@build_sens
  003b0	00 00 00 00	 DD	 $LN49@build_sens
  003b4	00 00 00 00	 DD	 $LN50@build_sens
  003b8	00 00 00 00	 DD	 $LN40@build_sens
  003bc	00 00 00 00	 DD	 $LN41@build_sens
  003c0	00 00 00 00	 DD	 $LN42@build_sens
  003c4	00 00 00 00	 DD	 $LN43@build_sens
  003c8	00 00 00 00	 DD	 $LN44@build_sens
  003cc	00 00 00 00	 DD	 $LN51@build_sens
  003d0	00 00 00 00	 DD	 $LN45@build_sens
  003d4	00 00 00 00	 DD	 $LN52@build_sens
$LN55@build_sens:
  003d8	00		 DB	 0
  003d9	1a		 DB	 26
  003da	1a		 DB	 26
  003db	1a		 DB	 26
  003dc	1a		 DB	 26
  003dd	1a		 DB	 26
  003de	1a		 DB	 26
  003df	1a		 DB	 26
  003e0	1a		 DB	 26
  003e1	1a		 DB	 26
  003e2	1a		 DB	 26
  003e3	1a		 DB	 26
  003e4	1a		 DB	 26
  003e5	1a		 DB	 26
  003e6	1a		 DB	 26
  003e7	1a		 DB	 26
  003e8	1a		 DB	 26
  003e9	1a		 DB	 26
  003ea	1a		 DB	 26
  003eb	1a		 DB	 26
  003ec	1a		 DB	 26
  003ed	1a		 DB	 26
  003ee	1a		 DB	 26
  003ef	1a		 DB	 26
  003f0	1a		 DB	 26
  003f1	1a		 DB	 26
  003f2	1a		 DB	 26
  003f3	1a		 DB	 26
  003f4	1a		 DB	 26
  003f5	1a		 DB	 26
  003f6	1a		 DB	 26
  003f7	1a		 DB	 26
  003f8	1a		 DB	 26
  003f9	01		 DB	 1
  003fa	1a		 DB	 26
  003fb	1a		 DB	 26
  003fc	02		 DB	 2
  003fd	1a		 DB	 26
  003fe	03		 DB	 3
  003ff	04		 DB	 4
  00400	1a		 DB	 26
  00401	05		 DB	 5
  00402	06		 DB	 6
  00403	07		 DB	 7
  00404	1a		 DB	 26
  00405	1a		 DB	 26
  00406	1a		 DB	 26
  00407	1a		 DB	 26
  00408	08		 DB	 8
  00409	1a		 DB	 26
  0040a	1a		 DB	 26
  0040b	09		 DB	 9
  0040c	0a		 DB	 10
  0040d	1a		 DB	 26
  0040e	1a		 DB	 26
  0040f	1a		 DB	 26
  00410	0b		 DB	 11
  00411	1a		 DB	 26
  00412	0c		 DB	 12
  00413	1a		 DB	 26
  00414	1a		 DB	 26
  00415	1a		 DB	 26
  00416	1a		 DB	 26
  00417	1a		 DB	 26
  00418	1a		 DB	 26
  00419	1a		 DB	 26
  0041a	1a		 DB	 26
  0041b	0d		 DB	 13
  0041c	0e		 DB	 14
  0041d	0f		 DB	 15
  0041e	10		 DB	 16
  0041f	1a		 DB	 26
  00420	11		 DB	 17
  00421	1a		 DB	 26
  00422	1a		 DB	 26
  00423	1a		 DB	 26
  00424	1a		 DB	 26
  00425	12		 DB	 18
  00426	13		 DB	 19
  00427	1a		 DB	 26
  00428	14		 DB	 20
  00429	15		 DB	 21
  0042a	16		 DB	 22
  0042b	17		 DB	 23
  0042c	18		 DB	 24
  0042d	1a		 DB	 26
  0042e	1a		 DB	 26
  0042f	19		 DB	 25
build_sense_3590 ENDP
_TEXT	ENDS
; Function compile flags: /Odtp
; File C:\papa\MyGit\hyperion-zvector\tapeccws.c
_TEXT	SEGMENT
ERCode$ = 48
dev$ = 56
unitstat$ = 64
ccwcode$ = 72
build_sense_3490 PROC

; 4026 : {

$LN3:
  00000	44 88 4c 24 20	 mov	 BYTE PTR [rsp+32], r9b
  00005	4c 89 44 24 18	 mov	 QWORD PTR [rsp+24], r8
  0000a	48 89 54 24 10	 mov	 QWORD PTR [rsp+16], rdx
  0000f	89 4c 24 08	 mov	 DWORD PTR [rsp+8], ecx
  00013	48 83 ec 28	 sub	 rsp, 40			; 00000028H

; 4027 :     // Until we know for sure that we have to do something different,
; 4028 :     // we should be able to safely use the 3480 sense function here...
; 4029 : 
; 4030 :     build_sense_3480_etal( ERCode, dev, unitstat, ccwcode );

  00017	44 0f b6 4c 24
	48		 movzx	 r9d, BYTE PTR ccwcode$[rsp]
  0001d	4c 8b 44 24 40	 mov	 r8, QWORD PTR unitstat$[rsp]
  00022	48 8b 54 24 38	 mov	 rdx, QWORD PTR dev$[rsp]
  00027	8b 4c 24 30	 mov	 ecx, DWORD PTR ERCode$[rsp]
  0002b	e8 00 00 00 00	 call	 build_sense_3480_etal

; 4031 : }

  00030	48 83 c4 28	 add	 rsp, 40			; 00000028H
  00034	c3		 ret	 0
build_sense_3490 ENDP
_TEXT	ENDS
; Function compile flags: /Odtp
; File C:\papa\MyGit\hyperion-zvector\tapeccws.c
_TEXT	SEGMENT
sns4mat$ = 32
tv64 = 36
tv361 = 40
tv379 = 44
ERCode$ = 64
dev$ = 72
unitstat$ = 80
ccwcode$ = 88
build_sense_3480_etal PROC

; 3828 : {

$LN49:
  00000	44 88 4c 24 20	 mov	 BYTE PTR [rsp+32], r9b
  00005	4c 89 44 24 18	 mov	 QWORD PTR [rsp+24], r8
  0000a	48 89 54 24 10	 mov	 QWORD PTR [rsp+16], rdx
  0000f	89 4c 24 08	 mov	 DWORD PTR [rsp+8], ecx
  00013	57		 push	 rdi
  00014	48 83 ec 30	 sub	 rsp, 48			; 00000030H

; 3829 : int sns4mat = TAPE_SNS7_FMT_20_3480;

  00018	c7 44 24 20 20
	00 00 00	 mov	 DWORD PTR sns4mat$[rsp], 32 ; 00000020H

; 3830 : 
; 3831 :     // NOTE: caller should have cleared sense area to zeros
; 3832 :     //       if this isn't a 'TAPE_BSENSE_STATUSONLY' call
; 3833 : 
; 3834 :     switch(ERCode)

  00020	8b 44 24 40	 mov	 eax, DWORD PTR ERCode$[rsp]
  00024	89 44 24 24	 mov	 DWORD PTR tv64[rsp], eax
  00028	83 7c 24 24 14	 cmp	 DWORD PTR tv64[rsp], 20
  0002d	0f 87 38 04 00
	00		 ja	 $LN26@build_sens
  00033	48 63 44 24 24	 movsxd	 rax, DWORD PTR tv64[rsp]
  00038	48 8d 0d 00 00
	00 00		 lea	 rcx, OFFSET FLAT:__ImageBase
  0003f	8b 84 81 00 00
	00 00		 mov	 eax, DWORD PTR $LN48@build_sens[rcx+rax*4]
  00046	48 03 c1	 add	 rax, rcx
  00049	ff e0		 jmp	 rax
$LN4@build_sens:

; 3835 :     {
; 3836 :     case TAPE_BSENSE_TAPEUNLOADED:
; 3837 :         dev->sense[0] = TAPE_SNS0_INTVREQ;

  0004b	b8 01 00 00 00	 mov	 eax, 1
  00050	48 6b c0 00	 imul	 rax, rax, 0
  00054	48 8b 4c 24 48	 mov	 rcx, QWORD PTR dev$[rsp]
  00059	c6 84 01 64 03
	00 00 40	 mov	 BYTE PTR [rcx+rax+868], 64 ; 00000040H

; 3838 :         dev->sense[3] = TAPE_ERA_43_DRIVE_NOT_READY; /* ERA 43 = Int Req */

  00061	b8 01 00 00 00	 mov	 eax, 1
  00066	48 6b c0 03	 imul	 rax, rax, 3
  0006a	48 8b 4c 24 48	 mov	 rcx, QWORD PTR dev$[rsp]
  0006f	c6 84 01 64 03
	00 00 43	 mov	 BYTE PTR [rcx+rax+868], 67 ; 00000043H

; 3839 :         *unitstat = CSW_UC;

  00077	48 8b 44 24 50	 mov	 rax, QWORD PTR unitstat$[rsp]
  0007c	c6 00 02	 mov	 BYTE PTR [rax], 2

; 3840 :         break;

  0007f	e9 1d 04 00 00	 jmp	 $LN2@build_sens
$LN5@build_sens:

; 3841 :     case TAPE_BSENSE_RUN_SUCCESS:        /* Not an error */
; 3842 :         /* NOT an error, But according to GA32-0219-02 2.1.2.2
; 3843 :            Rewind Unload always ends with with DE+UC on secondary status */
; 3844 :         /* FIXME! */
; 3845 :         /* Note that Initial status & Secondary statuses are merged here */
; 3846 :         /* when they should be presented separatly */
; 3847 :         *unitstat = CSW_CE|CSW_DE|CSW_UC;

  00084	48 8b 44 24 50	 mov	 rax, QWORD PTR unitstat$[rsp]
  00089	c6 00 0e	 mov	 BYTE PTR [rax], 14

; 3848 :         dev->sense[0] = TAPE_SNS0_INTVREQ;

  0008c	b8 01 00 00 00	 mov	 eax, 1
  00091	48 6b c0 00	 imul	 rax, rax, 0
  00095	48 8b 4c 24 48	 mov	 rcx, QWORD PTR dev$[rsp]
  0009a	c6 84 01 64 03
	00 00 40	 mov	 BYTE PTR [rcx+rax+868], 64 ; 00000040H

; 3849 :         dev->sense[3] = TAPE_ERA_2B_ENVIRONMENTAL_DATA_PRESENT;

  000a2	b8 01 00 00 00	 mov	 eax, 1
  000a7	48 6b c0 03	 imul	 rax, rax, 3
  000ab	48 8b 4c 24 48	 mov	 rcx, QWORD PTR dev$[rsp]
  000b0	c6 84 01 64 03
	00 00 2b	 mov	 BYTE PTR [rcx+rax+868], 43 ; 0000002bH

; 3850 :         sns4mat = TAPE_SNS7_FMT_22_3480_EOV_STATS;

  000b8	c7 44 24 20 22
	00 00 00	 mov	 DWORD PTR sns4mat$[rsp], 34 ; 00000022H

; 3851 :         break;

  000c0	e9 dc 03 00 00	 jmp	 $LN2@build_sens
$LN6@build_sens:

; 3852 :     case TAPE_BSENSE_TAPELOADFAIL:
; 3853 :         *unitstat = CSW_CE|CSW_DE|CSW_UC;

  000c5	48 8b 44 24 50	 mov	 rax, QWORD PTR unitstat$[rsp]
  000ca	c6 00 0e	 mov	 BYTE PTR [rax], 14

; 3854 :         dev->sense[0] = TAPE_SNS0_INTVREQ|TAPE_SNS0_DEFUNITCK;

  000cd	b8 01 00 00 00	 mov	 eax, 1
  000d2	48 6b c0 00	 imul	 rax, rax, 0
  000d6	48 8b 4c 24 48	 mov	 rcx, QWORD PTR dev$[rsp]
  000db	c6 84 01 64 03
	00 00 42	 mov	 BYTE PTR [rcx+rax+868], 66 ; 00000042H

; 3855 :         dev->sense[3] = TAPE_ERA_33_LOAD_FAILURE; /* ERA 33 = Load Failed */

  000e3	b8 01 00 00 00	 mov	 eax, 1
  000e8	48 6b c0 03	 imul	 rax, rax, 3
  000ec	48 8b 4c 24 48	 mov	 rcx, QWORD PTR dev$[rsp]
  000f1	c6 84 01 64 03
	00 00 33	 mov	 BYTE PTR [rcx+rax+868], 51 ; 00000033H

; 3856 :         break;

  000f9	e9 a3 03 00 00	 jmp	 $LN2@build_sens
$LN7@build_sens:

; 3857 :     case TAPE_BSENSE_READFAIL:
; 3858 :         *unitstat = CSW_CE|CSW_DE|CSW_UC;

  000fe	48 8b 44 24 50	 mov	 rax, QWORD PTR unitstat$[rsp]
  00103	c6 00 0e	 mov	 BYTE PTR [rax], 14

; 3859 :         dev->sense[0] = TAPE_SNS0_DATACHK;

  00106	b8 01 00 00 00	 mov	 eax, 1
  0010b	48 6b c0 00	 imul	 rax, rax, 0
  0010f	48 8b 4c 24 48	 mov	 rcx, QWORD PTR dev$[rsp]
  00114	c6 84 01 64 03
	00 00 08	 mov	 BYTE PTR [rcx+rax+868], 8

; 3860 :         dev->sense[3] = TAPE_ERA_23_READ_DATA_CHECK;

  0011c	b8 01 00 00 00	 mov	 eax, 1
  00121	48 6b c0 03	 imul	 rax, rax, 3
  00125	48 8b 4c 24 48	 mov	 rcx, QWORD PTR dev$[rsp]
  0012a	c6 84 01 64 03
	00 00 23	 mov	 BYTE PTR [rcx+rax+868], 35 ; 00000023H

; 3861 :         break;

  00132	e9 6a 03 00 00	 jmp	 $LN2@build_sens
$LN8@build_sens:

; 3862 :     case TAPE_BSENSE_WRITEFAIL:
; 3863 :         *unitstat = CSW_CE|CSW_DE|CSW_UC;

  00137	48 8b 44 24 50	 mov	 rax, QWORD PTR unitstat$[rsp]
  0013c	c6 00 0e	 mov	 BYTE PTR [rax], 14

; 3864 :         dev->sense[0] = TAPE_SNS0_DATACHK;

  0013f	b8 01 00 00 00	 mov	 eax, 1
  00144	48 6b c0 00	 imul	 rax, rax, 0
  00148	48 8b 4c 24 48	 mov	 rcx, QWORD PTR dev$[rsp]
  0014d	c6 84 01 64 03
	00 00 08	 mov	 BYTE PTR [rcx+rax+868], 8

; 3865 :         dev->sense[3] = TAPE_ERA_25_WRITE_DATA_CHECK;

  00155	b8 01 00 00 00	 mov	 eax, 1
  0015a	48 6b c0 03	 imul	 rax, rax, 3
  0015e	48 8b 4c 24 48	 mov	 rcx, QWORD PTR dev$[rsp]
  00163	c6 84 01 64 03
	00 00 25	 mov	 BYTE PTR [rcx+rax+868], 37 ; 00000025H

; 3866 :         break;

  0016b	e9 31 03 00 00	 jmp	 $LN2@build_sens
$LN9@build_sens:

; 3867 :     case TAPE_BSENSE_BADCOMMAND:
; 3868 :         *unitstat = CSW_UC;

  00170	48 8b 44 24 50	 mov	 rax, QWORD PTR unitstat$[rsp]
  00175	c6 00 02	 mov	 BYTE PTR [rax], 2

; 3869 :         dev->sense[0] = TAPE_SNS0_CMDREJ;

  00178	b8 01 00 00 00	 mov	 eax, 1
  0017d	48 6b c0 00	 imul	 rax, rax, 0
  00181	48 8b 4c 24 48	 mov	 rcx, QWORD PTR dev$[rsp]
  00186	c6 84 01 64 03
	00 00 80	 mov	 BYTE PTR [rcx+rax+868], 128 ; 00000080H

; 3870 :         dev->sense[3] = TAPE_ERA_27_COMMAND_REJECT;

  0018e	b8 01 00 00 00	 mov	 eax, 1
  00193	48 6b c0 03	 imul	 rax, rax, 3
  00197	48 8b 4c 24 48	 mov	 rcx, QWORD PTR dev$[rsp]
  0019c	c6 84 01 64 03
	00 00 27	 mov	 BYTE PTR [rcx+rax+868], 39 ; 00000027H

; 3871 :         break;

  001a4	e9 f8 02 00 00	 jmp	 $LN2@build_sens
$LN10@build_sens:

; 3872 :     case TAPE_BSENSE_INCOMPAT:
; 3873 :         *unitstat = CSW_CE|CSW_DE|CSW_UC;

  001a9	48 8b 44 24 50	 mov	 rax, QWORD PTR unitstat$[rsp]
  001ae	c6 00 0e	 mov	 BYTE PTR [rax], 14

; 3874 :         dev->sense[0] = TAPE_SNS0_CMDREJ;

  001b1	b8 01 00 00 00	 mov	 eax, 1
  001b6	48 6b c0 00	 imul	 rax, rax, 0
  001ba	48 8b 4c 24 48	 mov	 rcx, QWORD PTR dev$[rsp]
  001bf	c6 84 01 64 03
	00 00 80	 mov	 BYTE PTR [rcx+rax+868], 128 ; 00000080H

; 3875 :         dev->sense[3] = TAPE_ERA_29_FUNCTION_INCOMPATIBLE;

  001c7	b8 01 00 00 00	 mov	 eax, 1
  001cc	48 6b c0 03	 imul	 rax, rax, 3
  001d0	48 8b 4c 24 48	 mov	 rcx, QWORD PTR dev$[rsp]
  001d5	c6 84 01 64 03
	00 00 29	 mov	 BYTE PTR [rcx+rax+868], 41 ; 00000029H

; 3876 :         break;

  001dd	e9 bf 02 00 00	 jmp	 $LN2@build_sens
$LN11@build_sens:

; 3877 :     case TAPE_BSENSE_WRITEPROTECT:
; 3878 :         *unitstat = CSW_CE|CSW_DE|CSW_UC;

  001e2	48 8b 44 24 50	 mov	 rax, QWORD PTR unitstat$[rsp]
  001e7	c6 00 0e	 mov	 BYTE PTR [rax], 14

; 3879 :         dev->sense[0] = TAPE_SNS0_CMDREJ;

  001ea	b8 01 00 00 00	 mov	 eax, 1
  001ef	48 6b c0 00	 imul	 rax, rax, 0
  001f3	48 8b 4c 24 48	 mov	 rcx, QWORD PTR dev$[rsp]
  001f8	c6 84 01 64 03
	00 00 80	 mov	 BYTE PTR [rcx+rax+868], 128 ; 00000080H

; 3880 :         dev->sense[3] = TAPE_ERA_30_WRITE_PROTECTED;

  00200	b8 01 00 00 00	 mov	 eax, 1
  00205	48 6b c0 03	 imul	 rax, rax, 3
  00209	48 8b 4c 24 48	 mov	 rcx, QWORD PTR dev$[rsp]
  0020e	c6 84 01 64 03
	00 00 30	 mov	 BYTE PTR [rcx+rax+868], 48 ; 00000030H

; 3881 :         break;

  00216	e9 86 02 00 00	 jmp	 $LN2@build_sens
$LN12@build_sens:

; 3882 :     case TAPE_BSENSE_EMPTYTAPE:
; 3883 :         *unitstat = CSW_CE|CSW_DE|CSW_UC;

  0021b	48 8b 44 24 50	 mov	 rax, QWORD PTR unitstat$[rsp]
  00220	c6 00 0e	 mov	 BYTE PTR [rax], 14

; 3884 :         dev->sense[0] = TAPE_SNS0_DATACHK;

  00223	b8 01 00 00 00	 mov	 eax, 1
  00228	48 6b c0 00	 imul	 rax, rax, 0
  0022c	48 8b 4c 24 48	 mov	 rcx, QWORD PTR dev$[rsp]
  00231	c6 84 01 64 03
	00 00 08	 mov	 BYTE PTR [rcx+rax+868], 8

; 3885 :         dev->sense[3] = TAPE_ERA_31_TAPE_VOID;

  00239	b8 01 00 00 00	 mov	 eax, 1
  0023e	48 6b c0 03	 imul	 rax, rax, 3
  00242	48 8b 4c 24 48	 mov	 rcx, QWORD PTR dev$[rsp]
  00247	c6 84 01 64 03
	00 00 31	 mov	 BYTE PTR [rcx+rax+868], 49 ; 00000031H

; 3886 :         break;

  0024f	e9 4d 02 00 00	 jmp	 $LN2@build_sens
$LN13@build_sens:

; 3887 :     case TAPE_BSENSE_ENDOFTAPE:
; 3888 :         *unitstat = CSW_CE|CSW_DE|CSW_UC;

  00254	48 8b 44 24 50	 mov	 rax, QWORD PTR unitstat$[rsp]
  00259	c6 00 0e	 mov	 BYTE PTR [rax], 14

; 3889 :         dev->sense[0] = TAPE_SNS0_EQUIPCHK;

  0025c	b8 01 00 00 00	 mov	 eax, 1
  00261	48 6b c0 00	 imul	 rax, rax, 0
  00265	48 8b 4c 24 48	 mov	 rcx, QWORD PTR dev$[rsp]
  0026a	c6 84 01 64 03
	00 00 10	 mov	 BYTE PTR [rcx+rax+868], 16

; 3890 :         dev->sense[3] = TAPE_ERA_38_PHYSICAL_END_OF_TAPE;

  00272	b8 01 00 00 00	 mov	 eax, 1
  00277	48 6b c0 03	 imul	 rax, rax, 3
  0027b	48 8b 4c 24 48	 mov	 rcx, QWORD PTR dev$[rsp]
  00280	c6 84 01 64 03
	00 00 38	 mov	 BYTE PTR [rcx+rax+868], 56 ; 00000038H

; 3891 :         break;

  00288	e9 14 02 00 00	 jmp	 $LN2@build_sens
$LN14@build_sens:

; 3892 :     case TAPE_BSENSE_LOADPTERR:
; 3893 :         *unitstat = CSW_CE|CSW_DE|CSW_UC;

  0028d	48 8b 44 24 50	 mov	 rax, QWORD PTR unitstat$[rsp]
  00292	c6 00 0e	 mov	 BYTE PTR [rax], 14

; 3894 :         dev->sense[0] = 0;

  00295	b8 01 00 00 00	 mov	 eax, 1
  0029a	48 6b c0 00	 imul	 rax, rax, 0
  0029e	48 8b 4c 24 48	 mov	 rcx, QWORD PTR dev$[rsp]
  002a3	c6 84 01 64 03
	00 00 00	 mov	 BYTE PTR [rcx+rax+868], 0

; 3895 :         dev->sense[3] = TAPE_ERA_39_BACKWARD_AT_BOT;

  002ab	b8 01 00 00 00	 mov	 eax, 1
  002b0	48 6b c0 03	 imul	 rax, rax, 3
  002b4	48 8b 4c 24 48	 mov	 rcx, QWORD PTR dev$[rsp]
  002b9	c6 84 01 64 03
	00 00 39	 mov	 BYTE PTR [rcx+rax+868], 57 ; 00000039H

; 3896 :         break;

  002c1	e9 db 01 00 00	 jmp	 $LN2@build_sens
$LN15@build_sens:

; 3897 :     case TAPE_BSENSE_FENCED:
; 3898 :         *unitstat = CSW_CE|CSW_DE|CSW_UC;

  002c6	48 8b 44 24 50	 mov	 rax, QWORD PTR unitstat$[rsp]
  002cb	c6 00 0e	 mov	 BYTE PTR [rax], 14

; 3899 :         dev->sense[0] = TAPE_SNS0_EQUIPCHK|TAPE_SNS0_DEFUNITCK; /* Deffered UC */

  002ce	b8 01 00 00 00	 mov	 eax, 1
  002d3	48 6b c0 00	 imul	 rax, rax, 0
  002d7	48 8b 4c 24 48	 mov	 rcx, QWORD PTR dev$[rsp]
  002dc	c6 84 01 64 03
	00 00 12	 mov	 BYTE PTR [rcx+rax+868], 18

; 3900 :         dev->sense[3] = TAPE_ERA_47_VOLUME_FENCED;

  002e4	b8 01 00 00 00	 mov	 eax, 1
  002e9	48 6b c0 03	 imul	 rax, rax, 3
  002ed	48 8b 4c 24 48	 mov	 rcx, QWORD PTR dev$[rsp]
  002f2	c6 84 01 64 03
	00 00 47	 mov	 BYTE PTR [rcx+rax+868], 71 ; 00000047H

; 3901 :         break;

  002fa	e9 a2 01 00 00	 jmp	 $LN2@build_sens
$LN16@build_sens:

; 3902 :     case TAPE_BSENSE_BADALGORITHM:
; 3903 :         *unitstat = CSW_CE|CSW_DE|CSW_UC;

  002ff	48 8b 44 24 50	 mov	 rax, QWORD PTR unitstat$[rsp]
  00304	c6 00 0e	 mov	 BYTE PTR [rax], 14

; 3904 :         dev->sense[0] = TAPE_SNS0_EQUIPCHK;

  00307	b8 01 00 00 00	 mov	 eax, 1
  0030c	48 6b c0 00	 imul	 rax, rax, 0
  00310	48 8b 4c 24 48	 mov	 rcx, QWORD PTR dev$[rsp]
  00315	c6 84 01 64 03
	00 00 10	 mov	 BYTE PTR [rcx+rax+868], 16

; 3905 :         if (dev->devtype==0x3480)

  0031d	48 8b 44 24 48	 mov	 rax, QWORD PTR dev$[rsp]
  00322	0f b7 40 4a	 movzx	 eax, WORD PTR [rax+74]
  00326	3d 80 34 00 00	 cmp	 eax, 13440		; 00003480H
  0032b	75 18		 jne	 SHORT $LN17@build_sens

; 3906 :         {
; 3907 :             dev->sense[3] = TAPE_ERA_47_VOLUME_FENCED;   // (volume fenced)

  0032d	b8 01 00 00 00	 mov	 eax, 1
  00332	48 6b c0 03	 imul	 rax, rax, 3
  00336	48 8b 4c 24 48	 mov	 rcx, QWORD PTR dev$[rsp]
  0033b	c6 84 01 64 03
	00 00 47	 mov	 BYTE PTR [rcx+rax+868], 71 ; 00000047H

; 3908 :         }

  00343	eb 16		 jmp	 SHORT $LN18@build_sens
$LN17@build_sens:

; 3909 :         else // 3490, 3590, etc.
; 3910 :         {
; 3911 :             dev->sense[3] = TAPE_ERA_5E_COMPACT_ALGORITHM_INCOMPAT;   // (bad compaction algorithm)

  00345	b8 01 00 00 00	 mov	 eax, 1
  0034a	48 6b c0 03	 imul	 rax, rax, 3
  0034e	48 8b 4c 24 48	 mov	 rcx, QWORD PTR dev$[rsp]
  00353	c6 84 01 64 03
	00 00 5e	 mov	 BYTE PTR [rcx+rax+868], 94 ; 0000005eH
$LN18@build_sens:

; 3912 :         }
; 3913 :         break;

  0035b	e9 41 01 00 00	 jmp	 $LN2@build_sens
$LN19@build_sens:

; 3914 :     case TAPE_BSENSE_LOCATEERR:
; 3915 :         *unitstat = CSW_CE|CSW_DE|CSW_UC;

  00360	48 8b 44 24 50	 mov	 rax, QWORD PTR unitstat$[rsp]
  00365	c6 00 0e	 mov	 BYTE PTR [rax], 14

; 3916 :         dev->sense[0] = TAPE_SNS0_EQUIPCHK;

  00368	b8 01 00 00 00	 mov	 eax, 1
  0036d	48 6b c0 00	 imul	 rax, rax, 0
  00371	48 8b 4c 24 48	 mov	 rcx, QWORD PTR dev$[rsp]
  00376	c6 84 01 64 03
	00 00 10	 mov	 BYTE PTR [rcx+rax+868], 16

; 3917 :         dev->sense[3] = TAPE_ERA_44_LOCATE_BLOCK_FAILED;

  0037e	b8 01 00 00 00	 mov	 eax, 1
  00383	48 6b c0 03	 imul	 rax, rax, 3
  00387	48 8b 4c 24 48	 mov	 rcx, QWORD PTR dev$[rsp]
  0038c	c6 84 01 64 03
	00 00 44	 mov	 BYTE PTR [rcx+rax+868], 68 ; 00000044H

; 3918 :         break;

  00394	e9 08 01 00 00	 jmp	 $LN2@build_sens
$LN20@build_sens:

; 3919 :     case TAPE_BSENSE_BLOCKSHORT:
; 3920 :         *unitstat = CSW_CE|CSW_DE|CSW_UC;

  00399	48 8b 44 24 50	 mov	 rax, QWORD PTR unitstat$[rsp]
  0039e	c6 00 0e	 mov	 BYTE PTR [rax], 14

; 3921 :         dev->sense[0] = TAPE_SNS0_EQUIPCHK;

  003a1	b8 01 00 00 00	 mov	 eax, 1
  003a6	48 6b c0 00	 imul	 rax, rax, 0
  003aa	48 8b 4c 24 48	 mov	 rcx, QWORD PTR dev$[rsp]
  003af	c6 84 01 64 03
	00 00 10	 mov	 BYTE PTR [rcx+rax+868], 16

; 3922 :         dev->sense[3] = TAPE_ERA_36_END_OF_DATA;

  003b7	b8 01 00 00 00	 mov	 eax, 1
  003bc	48 6b c0 03	 imul	 rax, rax, 3
  003c0	48 8b 4c 24 48	 mov	 rcx, QWORD PTR dev$[rsp]
  003c5	c6 84 01 64 03
	00 00 36	 mov	 BYTE PTR [rcx+rax+868], 54 ; 00000036H

; 3923 :         break;

  003cd	e9 cf 00 00 00	 jmp	 $LN2@build_sens
$LN21@build_sens:

; 3924 :     case TAPE_BSENSE_ITFERROR:
; 3925 :         *unitstat = CSW_CE|CSW_DE|CSW_UC;

  003d2	48 8b 44 24 50	 mov	 rax, QWORD PTR unitstat$[rsp]
  003d7	c6 00 0e	 mov	 BYTE PTR [rax], 14

; 3926 :         dev->sense[0] = TAPE_SNS0_EQUIPCHK;

  003da	b8 01 00 00 00	 mov	 eax, 1
  003df	48 6b c0 00	 imul	 rax, rax, 0
  003e3	48 8b 4c 24 48	 mov	 rcx, QWORD PTR dev$[rsp]
  003e8	c6 84 01 64 03
	00 00 10	 mov	 BYTE PTR [rcx+rax+868], 16

; 3927 :         dev->sense[3] = TAPE_ERA_22_PATH_EQUIPMENT_CHECK;

  003f0	b8 01 00 00 00	 mov	 eax, 1
  003f5	48 6b c0 03	 imul	 rax, rax, 3
  003f9	48 8b 4c 24 48	 mov	 rcx, QWORD PTR dev$[rsp]
  003fe	c6 84 01 64 03
	00 00 22	 mov	 BYTE PTR [rcx+rax+868], 34 ; 00000022H

; 3928 :         break;

  00406	e9 96 00 00 00	 jmp	 $LN2@build_sens
$LN22@build_sens:

; 3929 :     case TAPE_BSENSE_REWINDFAILED:
; 3930 :         *unitstat = CSW_CE|CSW_DE|CSW_UC;

  0040b	48 8b 44 24 50	 mov	 rax, QWORD PTR unitstat$[rsp]
  00410	c6 00 0e	 mov	 BYTE PTR [rax], 14

; 3931 :         dev->sense[0] = TAPE_SNS0_EQUIPCHK;

  00413	b8 01 00 00 00	 mov	 eax, 1
  00418	48 6b c0 00	 imul	 rax, rax, 0
  0041c	48 8b 4c 24 48	 mov	 rcx, QWORD PTR dev$[rsp]
  00421	c6 84 01 64 03
	00 00 10	 mov	 BYTE PTR [rcx+rax+868], 16

; 3932 :         dev->sense[3] = TAPE_ERA_2C_PERMANENT_EQUIPMENT_CHECK; /* Generic Equipment Malfunction ERP code */

  00429	b8 01 00 00 00	 mov	 eax, 1
  0042e	48 6b c0 03	 imul	 rax, rax, 3
  00432	48 8b 4c 24 48	 mov	 rcx, QWORD PTR dev$[rsp]
  00437	c6 84 01 64 03
	00 00 2c	 mov	 BYTE PTR [rcx+rax+868], 44 ; 0000002cH

; 3933 :         break;

  0043f	eb 60		 jmp	 SHORT $LN2@build_sens
$LN23@build_sens:

; 3934 :     case TAPE_BSENSE_READTM:
; 3935 :         *unitstat = CSW_CE|CSW_DE|CSW_UX;

  00441	48 8b 44 24 50	 mov	 rax, QWORD PTR unitstat$[rsp]
  00446	c6 00 0d	 mov	 BYTE PTR [rax], 13

; 3936 :         break;

  00449	eb 56		 jmp	 SHORT $LN2@build_sens
$LN24@build_sens:

; 3937 :     case TAPE_BSENSE_UNSOLICITED:
; 3938 :         *unitstat = CSW_CE|CSW_DE;

  0044b	48 8b 44 24 50	 mov	 rax, QWORD PTR unitstat$[rsp]
  00450	c6 00 0c	 mov	 BYTE PTR [rax], 12

; 3939 :         dev->sense[3] = TAPE_ERA_00_UNSOLICITED_SENSE;

  00453	b8 01 00 00 00	 mov	 eax, 1
  00458	48 6b c0 03	 imul	 rax, rax, 3
  0045c	48 8b 4c 24 48	 mov	 rcx, QWORD PTR dev$[rsp]
  00461	c6 84 01 64 03
	00 00 00	 mov	 BYTE PTR [rcx+rax+868], 0

; 3940 :         break;

  00469	eb 36		 jmp	 SHORT $LN2@build_sens
$LN25@build_sens:
$LN26@build_sens:

; 3941 :     case TAPE_BSENSE_STATUSONLY:
; 3942 :     default:
; 3943 :         if ( ccwcode == 0x24 )      // READ BUFFERED LOG

  0046b	0f b6 44 24 58	 movzx	 eax, BYTE PTR ccwcode$[rsp]
  00470	83 f8 24	 cmp	 eax, 36			; 00000024H
  00473	75 24		 jne	 SHORT $LN27@build_sens

; 3944 :         {
; 3945 :             if ( dev->tdparms.compress == 0 )

  00475	48 8b 44 24 48	 mov	 rax, QWORD PTR dev$[rsp]
  0047a	8b 80 30 10 00
	00		 mov	 eax, DWORD PTR [rax+4144]
  00480	83 e0 01	 and	 eax, 1
  00483	85 c0		 test	 eax, eax
  00485	75 0a		 jne	 SHORT $LN28@build_sens

; 3946 :                 sns4mat = TAPE_SNS7_FMT_21_3480_READ_BUF_LOG;

  00487	c7 44 24 20 21
	00 00 00	 mov	 DWORD PTR sns4mat$[rsp], 33 ; 00000021H
  0048f	eb 08		 jmp	 SHORT $LN29@build_sens
$LN28@build_sens:

; 3947 :             else
; 3948 :                 sns4mat = TAPE_SNS7_FMT_30_3480_READ_BUF_LOG;

  00491	c7 44 24 20 30
	00 00 00	 mov	 DWORD PTR sns4mat$[rsp], 48 ; 00000030H
$LN29@build_sens:
$LN27@build_sens:

; 3949 :         }
; 3950 :         *unitstat = CSW_CE|CSW_DE;

  00499	48 8b 44 24 50	 mov	 rax, QWORD PTR unitstat$[rsp]
  0049e	c6 00 0c	 mov	 BYTE PTR [rax], 12
$LN2@build_sens:

; 3951 :         break;
; 3952 :     } // end switch(ERCode)
; 3953 : 
; 3954 :     if (TAPE_BSENSE_STATUSONLY == ERCode)

  004a1	83 7c 24 40 0d	 cmp	 DWORD PTR ERCode$[rsp], 13
  004a6	75 05		 jne	 SHORT $LN30@build_sens

; 3955 :         return; // (mission accomplished)

  004a8	e9 0d 04 00 00	 jmp	 $LN1@build_sens
$LN30@build_sens:

; 3956 : 
; 3957 :     /* Fill in the common sense information */
; 3958 : 
; 3959 :     if ( sns4mat == TAPE_SNS7_FMT_20_3480              ||
; 3960 :          sns4mat == TAPE_SNS7_FMT_21_3480_READ_BUF_LOG ||
; 3961 :          sns4mat == TAPE_SNS7_FMT_22_3480_EOV_STATS    ||

  004ad	83 7c 24 20 20	 cmp	 DWORD PTR sns4mat$[rsp], 32 ; 00000020H
  004b2	74 19		 je	 SHORT $LN32@build_sens
  004b4	83 7c 24 20 21	 cmp	 DWORD PTR sns4mat$[rsp], 33 ; 00000021H
  004b9	74 12		 je	 SHORT $LN32@build_sens
  004bb	83 7c 24 20 22	 cmp	 DWORD PTR sns4mat$[rsp], 34 ; 00000022H
  004c0	74 0b		 je	 SHORT $LN32@build_sens
  004c2	83 7c 24 20 30	 cmp	 DWORD PTR sns4mat$[rsp], 48 ; 00000030H
  004c7	0f 85 c0 01 00
	00		 jne	 $LN31@build_sens
$LN32@build_sens:

; 3962 :          sns4mat == TAPE_SNS7_FMT_30_3480_READ_BUF_LOG )
; 3963 :     {
; 3964 :         dev->sense[7] = sns4mat;

  004cd	b8 01 00 00 00	 mov	 eax, 1
  004d2	48 6b c0 07	 imul	 rax, rax, 7
  004d6	48 8b 4c 24 48	 mov	 rcx, QWORD PTR dev$[rsp]
  004db	0f b6 54 24 20	 movzx	 edx, BYTE PTR sns4mat$[rsp]
  004e0	88 94 01 64 03
	00 00		 mov	 BYTE PTR [rcx+rax+868], dl

; 3965 :         memset(&dev->sense[8], 0,31-8);

  004e7	b8 01 00 00 00	 mov	 eax, 1
  004ec	48 6b c0 08	 imul	 rax, rax, 8
  004f0	48 8b 4c 24 48	 mov	 rcx, QWORD PTR dev$[rsp]
  004f5	48 8d 84 01 64
	03 00 00	 lea	 rax, QWORD PTR [rcx+rax+868]
  004fd	48 8b f8	 mov	 rdi, rax
  00500	33 c0		 xor	 eax, eax
  00502	b9 17 00 00 00	 mov	 ecx, 23
  00507	f3 aa		 rep stosb

; 3966 : 
; 3967 :         if ( sns4mat == TAPE_SNS7_FMT_20_3480 )

  00509	83 7c 24 20 20	 cmp	 DWORD PTR sns4mat$[rsp], 32 ; 00000020H
  0050e	75 55		 jne	 SHORT $LN33@build_sens

; 3968 :         {
; 3969 :             dev->sense[25] = 0x06;                  // IDRC Installed & Upgraded Buffer

  00510	b8 01 00 00 00	 mov	 eax, 1
  00515	48 6b c0 19	 imul	 rax, rax, 25
  00519	48 8b 4c 24 48	 mov	 rcx, QWORD PTR dev$[rsp]
  0051e	c6 84 01 64 03
	00 00 06	 mov	 BYTE PTR [rcx+rax+868], 6

; 3970 :             if ( sysblk.tamdir != NULL )            // is AUTOLOADER ENABLED

  00526	48 8b 05 00 00
	00 00		 mov	 rax, QWORD PTR __imp_sysblk
  0052d	48 83 b8 80 12
	00 00 00	 cmp	 QWORD PTR [rax+4736], 0
  00535	74 2e		 je	 SHORT $LN34@build_sens

; 3971 :             {
; 3972 :                 dev->sense[25] |= 0x01;             // ACL is installed

  00537	b8 01 00 00 00	 mov	 eax, 1
  0053c	48 6b c0 19	 imul	 rax, rax, 25
  00540	48 8b 4c 24 48	 mov	 rcx, QWORD PTR dev$[rsp]
  00545	0f b6 84 01 64
	03 00 00	 movzx	 eax, BYTE PTR [rcx+rax+868]
  0054d	83 c8 01	 or	 eax, 1
  00550	b9 01 00 00 00	 mov	 ecx, 1
  00555	48 6b c9 19	 imul	 rcx, rcx, 25
  00559	48 8b 54 24 48	 mov	 rdx, QWORD PTR dev$[rsp]
  0055e	88 84 0a 64 03
	00 00		 mov	 BYTE PTR [rdx+rcx+868], al
$LN34@build_sens:
$LN33@build_sens:

; 3973 :             }
; 3974 :         }
; 3975 : 
; 3976 :         if ( dev->devtype == 0x3480 )

  00565	48 8b 44 24 48	 mov	 rax, QWORD PTR dev$[rsp]
  0056a	0f b7 40 4a	 movzx	 eax, WORD PTR [rax+74]
  0056e	3d 80 34 00 00	 cmp	 eax, 13440		; 00003480H
  00573	75 18		 jne	 SHORT $LN35@build_sens

; 3977 :         {
; 3978 :             dev->sense[27] = 0xf0;                  // indicate 3480-A22/B22

  00575	b8 01 00 00 00	 mov	 eax, 1
  0057a	48 6b c0 1b	 imul	 rax, rax, 27
  0057e	48 8b 4c 24 48	 mov	 rcx, QWORD PTR dev$[rsp]
  00583	c6 84 01 64 03
	00 00 f0	 mov	 BYTE PTR [rcx+rax+868], 240 ; 000000f0H

; 3979 :         }

  0058b	eb 4e		 jmp	 SHORT $LN36@build_sens
$LN35@build_sens:

; 3980 :         else if ( dev->devtype==0x3490 )

  0058d	48 8b 44 24 48	 mov	 rax, QWORD PTR dev$[rsp]
  00592	0f b7 40 4a	 movzx	 eax, WORD PTR [rax+74]
  00596	3d 90 34 00 00	 cmp	 eax, 13456		; 00003490H
  0059b	75 18		 jne	 SHORT $LN37@build_sens

; 3981 :         {
; 3982 :             dev->sense[27] = 0xe0;                  // indicate 3490-D31/D32

  0059d	b8 01 00 00 00	 mov	 eax, 1
  005a2	48 6b c0 1b	 imul	 rax, rax, 27
  005a6	48 8b 4c 24 48	 mov	 rcx, QWORD PTR dev$[rsp]
  005ab	c6 84 01 64 03
	00 00 e0	 mov	 BYTE PTR [rcx+rax+868], 224 ; 000000e0H

; 3983 :         }

  005b3	eb 26		 jmp	 SHORT $LN38@build_sens
$LN37@build_sens:

; 3984 :         else if ( dev->devtype==0x3590 )

  005b5	48 8b 44 24 48	 mov	 rax, QWORD PTR dev$[rsp]
  005ba	0f b7 40 4a	 movzx	 eax, WORD PTR [rax+74]
  005be	3d 90 35 00 00	 cmp	 eax, 13712		; 00003590H
  005c3	75 16		 jne	 SHORT $LN39@build_sens

; 3985 :         {
; 3986 :             dev->sense[27] = 0xe0;                  // indicate same as 3490 for now

  005c5	b8 01 00 00 00	 mov	 eax, 1
  005ca	48 6b c0 1b	 imul	 rax, rax, 27
  005ce	48 8b 4c 24 48	 mov	 rcx, QWORD PTR dev$[rsp]
  005d3	c6 84 01 64 03
	00 00 e0	 mov	 BYTE PTR [rcx+rax+868], 224 ; 000000e0H
$LN39@build_sens:
$LN38@build_sens:
$LN36@build_sens:

; 3987 :         }
; 3988 : 
; 3989 :         /* create a serial Number */
; 3990 :         dev->sense[27] |= 0x0C;

  005db	b8 01 00 00 00	 mov	 eax, 1
  005e0	48 6b c0 1b	 imul	 rax, rax, 27
  005e4	48 8b 4c 24 48	 mov	 rcx, QWORD PTR dev$[rsp]
  005e9	0f b6 84 01 64
	03 00 00	 movzx	 eax, BYTE PTR [rcx+rax+868]
  005f1	83 c8 0c	 or	 eax, 12
  005f4	b9 01 00 00 00	 mov	 ecx, 1
  005f9	48 6b c9 1b	 imul	 rcx, rcx, 27
  005fd	48 8b 54 24 48	 mov	 rdx, QWORD PTR dev$[rsp]
  00602	88 84 0a 64 03
	00 00		 mov	 BYTE PTR [rdx+rcx+868], al

; 3991 :         dev->sense[28] = (BYTE)( ( dev->devnum >> 12 ) & 0xFF );

  00609	48 8b 44 24 48	 mov	 rax, QWORD PTR dev$[rsp]
  0060e	0f b7 40 48	 movzx	 eax, WORD PTR [rax+72]
  00612	c1 f8 0c	 sar	 eax, 12
  00615	25 ff 00 00 00	 and	 eax, 255		; 000000ffH
  0061a	b9 01 00 00 00	 mov	 ecx, 1
  0061f	48 6b c9 1c	 imul	 rcx, rcx, 28
  00623	48 8b 54 24 48	 mov	 rdx, QWORD PTR dev$[rsp]
  00628	88 84 0a 64 03
	00 00		 mov	 BYTE PTR [rdx+rcx+868], al

; 3992 :         dev->sense[29] = (BYTE)( ( dev->devnum >>  4 ) & 0xFF );

  0062f	48 8b 44 24 48	 mov	 rax, QWORD PTR dev$[rsp]
  00634	0f b7 40 48	 movzx	 eax, WORD PTR [rax+72]
  00638	c1 f8 04	 sar	 eax, 4
  0063b	25 ff 00 00 00	 and	 eax, 255		; 000000ffH
  00640	b9 01 00 00 00	 mov	 ecx, 1
  00645	48 6b c9 1d	 imul	 rcx, rcx, 29
  00649	48 8b 54 24 48	 mov	 rdx, QWORD PTR dev$[rsp]
  0064e	88 84 0a 64 03
	00 00		 mov	 BYTE PTR [rdx+rcx+868], al

; 3993 : 
; 3994 :         dev->sense[30] = (BYTE)( dev->devnum & 0x000F ) | ( (BYTE)((BYTE)( dev->devnum & 0x000F )) << 4 );

  00655	48 8b 44 24 48	 mov	 rax, QWORD PTR dev$[rsp]
  0065a	0f b7 40 48	 movzx	 eax, WORD PTR [rax+72]
  0065e	83 e0 0f	 and	 eax, 15
  00661	0f b6 c0	 movzx	 eax, al
  00664	48 8b 4c 24 48	 mov	 rcx, QWORD PTR dev$[rsp]
  00669	0f b7 49 48	 movzx	 ecx, WORD PTR [rcx+72]
  0066d	83 e1 0f	 and	 ecx, 15
  00670	0f b6 c9	 movzx	 ecx, cl
  00673	c1 e1 04	 shl	 ecx, 4
  00676	0b c1		 or	 eax, ecx
  00678	b9 01 00 00 00	 mov	 ecx, 1
  0067d	48 6b c9 1e	 imul	 rcx, rcx, 30
  00681	48 8b 54 24 48	 mov	 rdx, QWORD PTR dev$[rsp]
  00686	88 84 0a 64 03
	00 00		 mov	 BYTE PTR [rdx+rcx+868], al
$LN31@build_sens:

; 3995 :     }
; 3996 : 
; 3997 :     if (0
; 3998 :         || strcmp( dev->filename, TAPE_UNLOADED ) == 0
; 3999 :         || (1

  0068d	33 c0		 xor	 eax, eax
  0068f	85 c0		 test	 eax, eax
  00691	75 55		 jne	 SHORT $LN42@build_sens
  00693	48 8b 44 24 48	 mov	 rax, QWORD PTR dev$[rsp]
  00698	48 05 a4 00 00
	00		 add	 rax, 164		; 000000a4H
  0069e	48 8d 15 00 00
	00 00		 lea	 rdx, OFFSET FLAT:$SG170093
  006a5	48 8b c8	 mov	 rcx, rax
  006a8	e8 00 00 00 00	 call	 strcmp
  006ad	85 c0		 test	 eax, eax
  006af	74 37		 je	 SHORT $LN42@build_sens
  006b1	33 c0		 xor	 eax, eax
  006b3	83 f8 01	 cmp	 eax, 1
  006b6	0f 84 8d 00 00
	00		 je	 $LN40@build_sens
  006bc	48 8b 44 24 48	 mov	 rax, QWORD PTR dev$[rsp]
  006c1	48 83 b8 e0 10
	00 00 00	 cmp	 QWORD PTR [rax+4320], 0
  006c9	74 7e		 je	 SHORT $LN40@build_sens
  006cb	48 8b 44 24 48	 mov	 rax, QWORD PTR dev$[rsp]
  006d0	48 8b 80 e0 10
	00 00		 mov	 rax, QWORD PTR [rax+4320]
  006d7	45 33 c0	 xor	 r8d, r8d
  006da	33 d2		 xor	 edx, edx
  006dc	48 8b 4c 24 48	 mov	 rcx, QWORD PTR dev$[rsp]
  006e1	ff 50 70	 call	 QWORD PTR [rax+112]
  006e4	85 c0		 test	 eax, eax
  006e6	75 61		 jne	 SHORT $LN40@build_sens
$LN42@build_sens:

; 4000 :             &&  dev->tmh
; 4001 :             && !dev->tmh->tapeloaded( dev, NULL, 0 )
; 4002 :            )
; 4003 :     )
; 4004 :     {
; 4005 :         dev->sense[0] |= TAPE_SNS0_INTVREQ;

  006e8	b8 01 00 00 00	 mov	 eax, 1
  006ed	48 6b c0 00	 imul	 rax, rax, 0
  006f1	48 8b 4c 24 48	 mov	 rcx, QWORD PTR dev$[rsp]
  006f6	0f b6 84 01 64
	03 00 00	 movzx	 eax, BYTE PTR [rcx+rax+868]
  006fe	83 c8 40	 or	 eax, 64			; 00000040H
  00701	b9 01 00 00 00	 mov	 ecx, 1
  00706	48 6b c9 00	 imul	 rcx, rcx, 0
  0070a	48 8b 54 24 48	 mov	 rdx, QWORD PTR dev$[rsp]
  0070f	88 84 0a 64 03
	00 00		 mov	 BYTE PTR [rdx+rcx+868], al

; 4006 :         dev->sense[1] |= TAPE_SNS1_FILEPROT;

  00716	b8 01 00 00 00	 mov	 eax, 1
  0071b	48 6b c0 01	 imul	 rax, rax, 1
  0071f	48 8b 4c 24 48	 mov	 rcx, QWORD PTR dev$[rsp]
  00724	0f b6 84 01 64
	03 00 00	 movzx	 eax, BYTE PTR [rcx+rax+868]
  0072c	83 c8 02	 or	 eax, 2
  0072f	b9 01 00 00 00	 mov	 ecx, 1
  00734	48 6b c9 01	 imul	 rcx, rcx, 1
  00738	48 8b 54 24 48	 mov	 rdx, QWORD PTR dev$[rsp]
  0073d	88 84 0a 64 03
	00 00		 mov	 BYTE PTR [rdx+rcx+868], al

; 4007 :     }

  00744	e9 15 01 00 00	 jmp	 $LN41@build_sens
$LN40@build_sens:

; 4008 :     else
; 4009 :     {
; 4010 :         dev->sense[0] &= ~TAPE_SNS0_INTVREQ;

  00749	b8 01 00 00 00	 mov	 eax, 1
  0074e	48 6b c0 00	 imul	 rax, rax, 0
  00752	48 8b 4c 24 48	 mov	 rcx, QWORD PTR dev$[rsp]
  00757	0f b6 84 01 64
	03 00 00	 movzx	 eax, BYTE PTR [rcx+rax+868]
  0075f	83 e0 bf	 and	 eax, -65		; ffffffffffffffbfH
  00762	b9 01 00 00 00	 mov	 ecx, 1
  00767	48 6b c9 00	 imul	 rcx, rcx, 0
  0076b	48 8b 54 24 48	 mov	 rdx, QWORD PTR dev$[rsp]
  00770	88 84 0a 64 03
	00 00		 mov	 BYTE PTR [rdx+rcx+868], al

; 4011 :         dev->sense[1] &= ~(TAPE_SNS1_BOT|TAPE_SNS1_FILEPROT);

  00777	b8 01 00 00 00	 mov	 eax, 1
  0077c	48 6b c0 01	 imul	 rax, rax, 1
  00780	48 8b 4c 24 48	 mov	 rcx, QWORD PTR dev$[rsp]
  00785	0f b6 84 01 64
	03 00 00	 movzx	 eax, BYTE PTR [rcx+rax+868]
  0078d	83 e0 f5	 and	 eax, -11
  00790	b9 01 00 00 00	 mov	 ecx, 1
  00795	48 6b c9 01	 imul	 rcx, rcx, 1
  00799	48 8b 54 24 48	 mov	 rdx, QWORD PTR dev$[rsp]
  0079e	88 84 0a 64 03
	00 00		 mov	 BYTE PTR [rdx+rcx+868], al

; 4012 :         dev->sense[1] |= IsAtLoadPoint( dev ) ? TAPE_SNS1_BOT : 0;

  007a5	48 8b 4c 24 48	 mov	 rcx, QWORD PTR dev$[rsp]
  007aa	e8 00 00 00 00	 call	 IsAtLoadPoint
  007af	85 c0		 test	 eax, eax
  007b1	74 0a		 je	 SHORT $LN44@build_sens
  007b3	c7 44 24 28 08
	00 00 00	 mov	 DWORD PTR tv361[rsp], 8
  007bb	eb 08		 jmp	 SHORT $LN45@build_sens
$LN44@build_sens:
  007bd	c7 44 24 28 00
	00 00 00	 mov	 DWORD PTR tv361[rsp], 0
$LN45@build_sens:
  007c5	b8 01 00 00 00	 mov	 eax, 1
  007ca	48 6b c0 01	 imul	 rax, rax, 1
  007ce	48 8b 4c 24 48	 mov	 rcx, QWORD PTR dev$[rsp]
  007d3	0f b6 84 01 64
	03 00 00	 movzx	 eax, BYTE PTR [rcx+rax+868]
  007db	0b 44 24 28	 or	 eax, DWORD PTR tv361[rsp]
  007df	b9 01 00 00 00	 mov	 ecx, 1
  007e4	48 6b c9 01	 imul	 rcx, rcx, 1
  007e8	48 8b 54 24 48	 mov	 rdx, QWORD PTR dev$[rsp]
  007ed	88 84 0a 64 03
	00 00		 mov	 BYTE PTR [rdx+rcx+868], al

; 4013 :         dev->sense[1] |= dev->readonly || dev->tdparms.logical_readonly ?

  007f4	48 8b 44 24 48	 mov	 rax, QWORD PTR dev$[rsp]
  007f9	8b 80 78 10 00
	00		 mov	 eax, DWORD PTR [rax+4216]
  007ff	d1 e8		 shr	 eax, 1
  00801	83 e0 01	 and	 eax, 1
  00804	85 c0		 test	 eax, eax
  00806	75 1f		 jne	 SHORT $LN46@build_sens
  00808	48 8b 44 24 48	 mov	 rax, QWORD PTR dev$[rsp]
  0080d	8b 80 30 10 00
	00		 mov	 eax, DWORD PTR [rax+4144]
  00813	c1 e8 0b	 shr	 eax, 11
  00816	83 e0 01	 and	 eax, 1
  00819	85 c0		 test	 eax, eax
  0081b	75 0a		 jne	 SHORT $LN46@build_sens
  0081d	c7 44 24 2c 00
	00 00 00	 mov	 DWORD PTR tv379[rsp], 0
  00825	eb 08		 jmp	 SHORT $LN47@build_sens
$LN46@build_sens:
  00827	c7 44 24 2c 02
	00 00 00	 mov	 DWORD PTR tv379[rsp], 2
$LN47@build_sens:
  0082f	b8 01 00 00 00	 mov	 eax, 1
  00834	48 6b c0 01	 imul	 rax, rax, 1
  00838	48 8b 4c 24 48	 mov	 rcx, QWORD PTR dev$[rsp]
  0083d	0f b6 84 01 64
	03 00 00	 movzx	 eax, BYTE PTR [rcx+rax+868]
  00845	0b 44 24 2c	 or	 eax, DWORD PTR tv379[rsp]
  00849	b9 01 00 00 00	 mov	 ecx, 1
  0084e	48 6b c9 01	 imul	 rcx, rcx, 1
  00852	48 8b 54 24 48	 mov	 rdx, QWORD PTR dev$[rsp]
  00857	88 84 0a 64 03
	00 00		 mov	 BYTE PTR [rdx+rcx+868], al
$LN41@build_sens:

; 4014 :             TAPE_SNS1_FILEPROT : 0;
; 4015 :     }
; 4016 : 
; 4017 :     dev->sense[1] |= TAPE_SNS1_ONLINE;

  0085e	b8 01 00 00 00	 mov	 eax, 1
  00863	48 6b c0 01	 imul	 rax, rax, 1
  00867	48 8b 4c 24 48	 mov	 rcx, QWORD PTR dev$[rsp]
  0086c	0f b6 84 01 64
	03 00 00	 movzx	 eax, BYTE PTR [rcx+rax+868]
  00874	83 c8 40	 or	 eax, 64			; 00000040H
  00877	b9 01 00 00 00	 mov	 ecx, 1
  0087c	48 6b c9 01	 imul	 rcx, rcx, 1
  00880	48 8b 54 24 48	 mov	 rdx, QWORD PTR dev$[rsp]
  00885	88 84 0a 64 03
	00 00		 mov	 BYTE PTR [rdx+rcx+868], al

; 4018 :     dev->sense[2] |= TAPE_SNS2_REPORTING_CHAN_A;

  0088c	b8 01 00 00 00	 mov	 eax, 1
  00891	48 6b c0 02	 imul	 rax, rax, 2
  00895	48 8b 4c 24 48	 mov	 rcx, QWORD PTR dev$[rsp]
  0089a	0f b6 84 01 64
	03 00 00	 movzx	 eax, BYTE PTR [rcx+rax+868]
  008a2	83 c8 20	 or	 eax, 32			; 00000020H
  008a5	b9 01 00 00 00	 mov	 ecx, 1
  008aa	48 6b c9 02	 imul	 rcx, rcx, 2
  008ae	48 8b 54 24 48	 mov	 rdx, QWORD PTR dev$[rsp]
  008b3	88 84 0a 64 03
	00 00		 mov	 BYTE PTR [rdx+rcx+868], al
$LN1@build_sens:

; 4019 : 
; 4020 : } /* end function build_sense_3480_etal */

  008ba	48 83 c4 30	 add	 rsp, 48			; 00000030H
  008be	5f		 pop	 rdi
  008bf	c3		 ret	 0
$LN48@build_sens:
  008c0	00 00 00 00	 DD	 $LN4@build_sens
  008c4	00 00 00 00	 DD	 $LN6@build_sens
  008c8	00 00 00 00	 DD	 $LN7@build_sens
  008cc	00 00 00 00	 DD	 $LN8@build_sens
  008d0	00 00 00 00	 DD	 $LN9@build_sens
  008d4	00 00 00 00	 DD	 $LN10@build_sens
  008d8	00 00 00 00	 DD	 $LN11@build_sens
  008dc	00 00 00 00	 DD	 $LN12@build_sens
  008e0	00 00 00 00	 DD	 $LN13@build_sens
  008e4	00 00 00 00	 DD	 $LN14@build_sens
  008e8	00 00 00 00	 DD	 $LN15@build_sens
  008ec	00 00 00 00	 DD	 $LN16@build_sens
  008f0	00 00 00 00	 DD	 $LN5@build_sens
  008f4	00 00 00 00	 DD	 $LN25@build_sens
  008f8	00 00 00 00	 DD	 $LN19@build_sens
  008fc	00 00 00 00	 DD	 $LN23@build_sens
  00900	00 00 00 00	 DD	 $LN26@build_sens
  00904	00 00 00 00	 DD	 $LN20@build_sens
  00908	00 00 00 00	 DD	 $LN21@build_sens
  0090c	00 00 00 00	 DD	 $LN22@build_sens
  00910	00 00 00 00	 DD	 $LN24@build_sens
build_sense_3480_etal ENDP
_TEXT	ENDS
; Function compile flags: /Odtp
; File C:\papa\MyGit\hyperion-zvector\tapeccws.c
_TEXT	SEGMENT
tv65 = 32
tv217 = 36
tv235 = 40
ERCode$ = 64
dev$ = 72
unitstat$ = 80
ccwcode$ = 88
build_sense_3410_3420 PROC

; 3679 : {

$LN38:
  00000	44 88 4c 24 20	 mov	 BYTE PTR [rsp+32], r9b
  00005	4c 89 44 24 18	 mov	 QWORD PTR [rsp+24], r8
  0000a	48 89 54 24 10	 mov	 QWORD PTR [rsp+16], rdx
  0000f	89 4c 24 08	 mov	 DWORD PTR [rsp+8], ecx
  00013	48 83 ec 38	 sub	 rsp, 56			; 00000038H
$LN4@build_sens:

; 3680 :     // NOTE: caller should have cleared sense area to zeros
; 3681 :     //       if this isn't a 'TAPE_BSENSE_STATUSONLY' call
; 3682 : 
; 3683 :     UNREFERENCED(ccwcode);

  00017	33 c0		 xor	 eax, eax
  00019	85 c0		 test	 eax, eax
  0001b	75 fa		 jne	 SHORT $LN4@build_sens

; 3684 : 
; 3685 :     switch(ERCode)

  0001d	8b 44 24 40	 mov	 eax, DWORD PTR ERCode$[rsp]
  00021	89 44 24 20	 mov	 DWORD PTR tv65[rsp], eax
  00025	83 7c 24 20 14	 cmp	 DWORD PTR tv65[rsp], 20
  0002a	0f 87 2c 02 00
	00		 ja	 $LN5@build_sens
  00030	48 63 44 24 20	 movsxd	 rax, DWORD PTR tv65[rsp]
  00035	48 8d 0d 00 00
	00 00		 lea	 rcx, OFFSET FLAT:__ImageBase
  0003c	8b 84 81 00 00
	00 00		 mov	 eax, DWORD PTR $LN37@build_sens[rcx+rax*4]
  00043	48 03 c1	 add	 rax, rcx
  00046	ff e0		 jmp	 rax
$LN7@build_sens:

; 3686 :     {
; 3687 :     case TAPE_BSENSE_TAPEUNLOADED:
; 3688 :         *unitstat = CSW_UC;

  00048	48 8b 44 24 50	 mov	 rax, QWORD PTR unitstat$[rsp]
  0004d	c6 00 02	 mov	 BYTE PTR [rax], 2

; 3689 :         dev->sense[0] = SENSE_IR;

  00050	b8 01 00 00 00	 mov	 eax, 1
  00055	48 6b c0 00	 imul	 rax, rax, 0
  00059	48 8b 4c 24 48	 mov	 rcx, QWORD PTR dev$[rsp]
  0005e	c6 84 01 64 03
	00 00 40	 mov	 BYTE PTR [rcx+rax+868], 64 ; 00000040H

; 3690 :         dev->sense[1] = SENSE1_TAPE_TUB;

  00066	b8 01 00 00 00	 mov	 eax, 1
  0006b	48 6b c0 01	 imul	 rax, rax, 1
  0006f	48 8b 4c 24 48	 mov	 rcx, QWORD PTR dev$[rsp]
  00074	c6 84 01 64 03
	00 00 20	 mov	 BYTE PTR [rcx+rax+868], 32 ; 00000020H

; 3691 :         break;

  0007c	e9 db 01 00 00	 jmp	 $LN5@build_sens
$LN8@build_sens:

; 3692 :     case TAPE_BSENSE_RUN_SUCCESS: /* RewUnld op */
; 3693 :         /* FIXME : CE Should have been presented before */
; 3694 :         /*         Same as for 348x drives */
; 3695 :         *unitstat = CSW_CE | CSW_UC | CSW_DE | CSW_CUE;

  00081	48 8b 44 24 50	 mov	 rax, QWORD PTR unitstat$[rsp]
  00086	c6 00 2e	 mov	 BYTE PTR [rax], 46	; 0000002eH

; 3696 :         /*
; 3697 :         *unitstat = CSW_UC | CSW_DE | CSW_CUE;
; 3698 :         */
; 3699 :         dev->sense[0] = SENSE_IR;

  00089	b8 01 00 00 00	 mov	 eax, 1
  0008e	48 6b c0 00	 imul	 rax, rax, 0
  00092	48 8b 4c 24 48	 mov	 rcx, QWORD PTR dev$[rsp]
  00097	c6 84 01 64 03
	00 00 40	 mov	 BYTE PTR [rcx+rax+868], 64 ; 00000040H

; 3700 :         dev->sense[1] = SENSE1_TAPE_TUB;

  0009f	b8 01 00 00 00	 mov	 eax, 1
  000a4	48 6b c0 01	 imul	 rax, rax, 1
  000a8	48 8b 4c 24 48	 mov	 rcx, QWORD PTR dev$[rsp]
  000ad	c6 84 01 64 03
	00 00 20	 mov	 BYTE PTR [rcx+rax+868], 32 ; 00000020H

; 3701 :         break;

  000b5	e9 a2 01 00 00	 jmp	 $LN5@build_sens
$LN9@build_sens:
$LN10@build_sens:
$LN11@build_sens:
$LN12@build_sens:
$LN13@build_sens:
$LN14@build_sens:
$LN15@build_sens:

; 3702 :     case TAPE_BSENSE_REWINDFAILED:
; 3703 :     case TAPE_BSENSE_FENCED:
; 3704 :     case TAPE_BSENSE_EMPTYTAPE:
; 3705 :     case TAPE_BSENSE_ENDOFTAPE:
; 3706 :     case TAPE_BSENSE_BLOCKSHORT:
; 3707 :         /* On 3411/3420 the tape runs off the reel in that case */
; 3708 :         /* this will cause pressure loss in both columns */
; 3709 :     case TAPE_BSENSE_LOCATEERR:
; 3710 :         /* Locate error: This is more like improperly formatted tape */
; 3711 :         /* i.e. the tape broke inside the drive                       */
; 3712 :         /* So EC instead of DC                                        */
; 3713 :     case TAPE_BSENSE_TAPELOADFAIL:
; 3714 :         *unitstat = CSW_CE|CSW_DE|CSW_UC;

  000ba	48 8b 44 24 50	 mov	 rax, QWORD PTR unitstat$[rsp]
  000bf	c6 00 0e	 mov	 BYTE PTR [rax], 14

; 3715 :         dev->sense[0] = SENSE_EC;

  000c2	b8 01 00 00 00	 mov	 eax, 1
  000c7	48 6b c0 00	 imul	 rax, rax, 0
  000cb	48 8b 4c 24 48	 mov	 rcx, QWORD PTR dev$[rsp]
  000d0	c6 84 01 64 03
	00 00 10	 mov	 BYTE PTR [rcx+rax+868], 16

; 3716 :         dev->sense[1] = SENSE1_TAPE_TUB;

  000d8	b8 01 00 00 00	 mov	 eax, 1
  000dd	48 6b c0 01	 imul	 rax, rax, 1
  000e1	48 8b 4c 24 48	 mov	 rcx, QWORD PTR dev$[rsp]
  000e6	c6 84 01 64 03
	00 00 20	 mov	 BYTE PTR [rcx+rax+868], 32 ; 00000020H

; 3717 :         dev->sense[7] = 0x60;

  000ee	b8 01 00 00 00	 mov	 eax, 1
  000f3	48 6b c0 07	 imul	 rax, rax, 7
  000f7	48 8b 4c 24 48	 mov	 rcx, QWORD PTR dev$[rsp]
  000fc	c6 84 01 64 03
	00 00 60	 mov	 BYTE PTR [rcx+rax+868], 96 ; 00000060H

; 3718 :         break;

  00104	e9 53 01 00 00	 jmp	 $LN5@build_sens
$LN16@build_sens:

; 3719 :     case TAPE_BSENSE_ITFERROR:
; 3720 :         *unitstat = CSW_CE|CSW_DE|CSW_UC;

  00109	48 8b 44 24 50	 mov	 rax, QWORD PTR unitstat$[rsp]
  0010e	c6 00 0e	 mov	 BYTE PTR [rax], 14

; 3721 :         dev->sense[0] = SENSE_EC;

  00111	b8 01 00 00 00	 mov	 eax, 1
  00116	48 6b c0 00	 imul	 rax, rax, 0
  0011a	48 8b 4c 24 48	 mov	 rcx, QWORD PTR dev$[rsp]
  0011f	c6 84 01 64 03
	00 00 10	 mov	 BYTE PTR [rcx+rax+868], 16

; 3722 :         dev->sense[1] = SENSE1_TAPE_TUB;

  00127	b8 01 00 00 00	 mov	 eax, 1
  0012c	48 6b c0 01	 imul	 rax, rax, 1
  00130	48 8b 4c 24 48	 mov	 rcx, QWORD PTR dev$[rsp]
  00135	c6 84 01 64 03
	00 00 20	 mov	 BYTE PTR [rcx+rax+868], 32 ; 00000020H

; 3723 :         dev->sense[4] = 0x80; /* Tape Unit Reject */

  0013d	b8 01 00 00 00	 mov	 eax, 1
  00142	48 6b c0 04	 imul	 rax, rax, 4
  00146	48 8b 4c 24 48	 mov	 rcx, QWORD PTR dev$[rsp]
  0014b	c6 84 01 64 03
	00 00 80	 mov	 BYTE PTR [rcx+rax+868], 128 ; 00000080H

; 3724 :         break;

  00153	e9 04 01 00 00	 jmp	 $LN5@build_sens
$LN17@build_sens:
$LN18@build_sens:

; 3725 :     case TAPE_BSENSE_READFAIL:
; 3726 :     case TAPE_BSENSE_BADALGORITHM:
; 3727 :         *unitstat = CSW_CE|CSW_DE|CSW_UC;

  00158	48 8b 44 24 50	 mov	 rax, QWORD PTR unitstat$[rsp]
  0015d	c6 00 0e	 mov	 BYTE PTR [rax], 14

; 3728 :         dev->sense[0] = SENSE_DC;

  00160	b8 01 00 00 00	 mov	 eax, 1
  00165	48 6b c0 00	 imul	 rax, rax, 0
  00169	48 8b 4c 24 48	 mov	 rcx, QWORD PTR dev$[rsp]
  0016e	c6 84 01 64 03
	00 00 08	 mov	 BYTE PTR [rcx+rax+868], 8

; 3729 :         dev->sense[3] = 0xC0; /* Vertical CRC check & Multitrack error */

  00176	b8 01 00 00 00	 mov	 eax, 1
  0017b	48 6b c0 03	 imul	 rax, rax, 3
  0017f	48 8b 4c 24 48	 mov	 rcx, QWORD PTR dev$[rsp]
  00184	c6 84 01 64 03
	00 00 c0	 mov	 BYTE PTR [rcx+rax+868], 192 ; 000000c0H

; 3730 :         break;

  0018c	e9 cb 00 00 00	 jmp	 $LN5@build_sens
$LN19@build_sens:

; 3731 :     case TAPE_BSENSE_WRITEFAIL:
; 3732 :         *unitstat = CSW_CE|CSW_DE|CSW_UC;

  00191	48 8b 44 24 50	 mov	 rax, QWORD PTR unitstat$[rsp]
  00196	c6 00 0e	 mov	 BYTE PTR [rax], 14

; 3733 :         dev->sense[0] = SENSE_DC;

  00199	b8 01 00 00 00	 mov	 eax, 1
  0019e	48 6b c0 00	 imul	 rax, rax, 0
  001a2	48 8b 4c 24 48	 mov	 rcx, QWORD PTR dev$[rsp]
  001a7	c6 84 01 64 03
	00 00 08	 mov	 BYTE PTR [rcx+rax+868], 8

; 3734 :         dev->sense[3] = 0x60; /* Longitudinal CRC check & Multitrack error */

  001af	b8 01 00 00 00	 mov	 eax, 1
  001b4	48 6b c0 03	 imul	 rax, rax, 3
  001b8	48 8b 4c 24 48	 mov	 rcx, QWORD PTR dev$[rsp]
  001bd	c6 84 01 64 03
	00 00 60	 mov	 BYTE PTR [rcx+rax+868], 96 ; 00000060H

; 3735 :         break;

  001c5	e9 92 00 00 00	 jmp	 $LN5@build_sens
$LN20@build_sens:
$LN21@build_sens:

; 3736 :     case TAPE_BSENSE_BADCOMMAND:
; 3737 :     case TAPE_BSENSE_INCOMPAT:
; 3738 :         *unitstat = CSW_UC;

  001ca	48 8b 44 24 50	 mov	 rax, QWORD PTR unitstat$[rsp]
  001cf	c6 00 02	 mov	 BYTE PTR [rax], 2

; 3739 :         dev->sense[0] = SENSE_CR;

  001d2	b8 01 00 00 00	 mov	 eax, 1
  001d7	48 6b c0 00	 imul	 rax, rax, 0
  001db	48 8b 4c 24 48	 mov	 rcx, QWORD PTR dev$[rsp]
  001e0	c6 84 01 64 03
	00 00 80	 mov	 BYTE PTR [rcx+rax+868], 128 ; 00000080H

; 3740 :         dev->sense[4] = 0x01;

  001e8	b8 01 00 00 00	 mov	 eax, 1
  001ed	48 6b c0 04	 imul	 rax, rax, 4
  001f1	48 8b 4c 24 48	 mov	 rcx, QWORD PTR dev$[rsp]
  001f6	c6 84 01 64 03
	00 00 01	 mov	 BYTE PTR [rcx+rax+868], 1

; 3741 :         break;

  001fe	eb 5c		 jmp	 SHORT $LN5@build_sens
$LN22@build_sens:

; 3742 :     case TAPE_BSENSE_WRITEPROTECT:
; 3743 :         *unitstat = CSW_CE|CSW_DE|CSW_UC;

  00200	48 8b 44 24 50	 mov	 rax, QWORD PTR unitstat$[rsp]
  00205	c6 00 0e	 mov	 BYTE PTR [rax], 14

; 3744 :         dev->sense[0] = SENSE_CR;

  00208	b8 01 00 00 00	 mov	 eax, 1
  0020d	48 6b c0 00	 imul	 rax, rax, 0
  00211	48 8b 4c 24 48	 mov	 rcx, QWORD PTR dev$[rsp]
  00216	c6 84 01 64 03
	00 00 80	 mov	 BYTE PTR [rcx+rax+868], 128 ; 00000080H

; 3745 :         break;

  0021e	eb 3c		 jmp	 SHORT $LN5@build_sens
$LN23@build_sens:

; 3746 :     case TAPE_BSENSE_LOADPTERR:
; 3747 :         *unitstat = CSW_CE|CSW_DE|CSW_UC;

  00220	48 8b 44 24 50	 mov	 rax, QWORD PTR unitstat$[rsp]
  00225	c6 00 0e	 mov	 BYTE PTR [rax], 14

; 3748 :         dev->sense[0] = 0;

  00228	b8 01 00 00 00	 mov	 eax, 1
  0022d	48 6b c0 00	 imul	 rax, rax, 0
  00231	48 8b 4c 24 48	 mov	 rcx, QWORD PTR dev$[rsp]
  00236	c6 84 01 64 03
	00 00 00	 mov	 BYTE PTR [rcx+rax+868], 0

; 3749 :         break;

  0023e	eb 1c		 jmp	 SHORT $LN5@build_sens
$LN24@build_sens:

; 3750 :     case TAPE_BSENSE_READTM:
; 3751 :         *unitstat = CSW_CE|CSW_DE|CSW_UX;

  00240	48 8b 44 24 50	 mov	 rax, QWORD PTR unitstat$[rsp]
  00245	c6 00 0d	 mov	 BYTE PTR [rax], 13

; 3752 :         break;

  00248	eb 12		 jmp	 SHORT $LN5@build_sens
$LN25@build_sens:

; 3753 :     case TAPE_BSENSE_UNSOLICITED:
; 3754 :         *unitstat = CSW_CE|CSW_DE;

  0024a	48 8b 44 24 50	 mov	 rax, QWORD PTR unitstat$[rsp]
  0024f	c6 00 0c	 mov	 BYTE PTR [rax], 12

; 3755 :         break;

  00252	eb 08		 jmp	 SHORT $LN5@build_sens
$LN26@build_sens:

; 3756 :     case TAPE_BSENSE_STATUSONLY:
; 3757 :         *unitstat = CSW_CE|CSW_DE;

  00254	48 8b 44 24 50	 mov	 rax, QWORD PTR unitstat$[rsp]
  00259	c6 00 0c	 mov	 BYTE PTR [rax], 12
$LN5@build_sens:

; 3758 :         break;
; 3759 :     } // end switch(ERCode)
; 3760 : 
; 3761 :     if (TAPE_BSENSE_STATUSONLY == ERCode)

  0025c	83 7c 24 40 0d	 cmp	 DWORD PTR ERCode$[rsp], 13
  00261	75 05		 jne	 SHORT $LN27@build_sens

; 3762 :         return; // (mission accomplished)

  00263	e9 85 02 00 00	 jmp	 $LN1@build_sens
$LN27@build_sens:

; 3763 : 
; 3764 :     /* Fill in the common sense information */
; 3765 : 
; 3766 :     if (strcmp(dev->filename,TAPE_UNLOADED) == 0
; 3767 :         || !dev->tmh->tapeloaded(dev,NULL,0))

  00268	48 8b 44 24 48	 mov	 rax, QWORD PTR dev$[rsp]
  0026d	48 05 a4 00 00
	00		 add	 rax, 164		; 000000a4H
  00273	48 8d 15 00 00
	00 00		 lea	 rdx, OFFSET FLAT:$SG170015
  0027a	48 8b c8	 mov	 rcx, rax
  0027d	e8 00 00 00 00	 call	 strcmp
  00282	85 c0		 test	 eax, eax
  00284	74 21		 je	 SHORT $LN30@build_sens
  00286	48 8b 44 24 48	 mov	 rax, QWORD PTR dev$[rsp]
  0028b	48 8b 80 e0 10
	00 00		 mov	 rax, QWORD PTR [rax+4320]
  00292	45 33 c0	 xor	 r8d, r8d
  00295	33 d2		 xor	 edx, edx
  00297	48 8b 4c 24 48	 mov	 rcx, QWORD PTR dev$[rsp]
  0029c	ff 50 70	 call	 QWORD PTR [rax+112]
  0029f	85 c0		 test	 eax, eax
  002a1	0f 85 bd 00 00
	00		 jne	 $LN28@build_sens
$LN30@build_sens:

; 3768 :     {
; 3769 :         dev->sense[0] |= SENSE_IR;

  002a7	b8 01 00 00 00	 mov	 eax, 1
  002ac	48 6b c0 00	 imul	 rax, rax, 0
  002b0	48 8b 4c 24 48	 mov	 rcx, QWORD PTR dev$[rsp]
  002b5	0f b6 84 01 64
	03 00 00	 movzx	 eax, BYTE PTR [rcx+rax+868]
  002bd	83 c8 40	 or	 eax, 64			; 00000040H
  002c0	b9 01 00 00 00	 mov	 ecx, 1
  002c5	48 6b c9 00	 imul	 rcx, rcx, 0
  002c9	48 8b 54 24 48	 mov	 rdx, QWORD PTR dev$[rsp]
  002ce	88 84 0a 64 03
	00 00		 mov	 BYTE PTR [rdx+rcx+868], al

; 3770 :         dev->sense[1] |= SENSE1_TAPE_FP;

  002d5	b8 01 00 00 00	 mov	 eax, 1
  002da	48 6b c0 01	 imul	 rax, rax, 1
  002de	48 8b 4c 24 48	 mov	 rcx, QWORD PTR dev$[rsp]
  002e3	0f b6 84 01 64
	03 00 00	 movzx	 eax, BYTE PTR [rcx+rax+868]
  002eb	83 c8 02	 or	 eax, 2
  002ee	b9 01 00 00 00	 mov	 ecx, 1
  002f3	48 6b c9 01	 imul	 rcx, rcx, 1
  002f7	48 8b 54 24 48	 mov	 rdx, QWORD PTR dev$[rsp]
  002fc	88 84 0a 64 03
	00 00		 mov	 BYTE PTR [rdx+rcx+868], al

; 3771 :         dev->sense[1] &= ~SENSE1_TAPE_TUA;

  00303	b8 01 00 00 00	 mov	 eax, 1
  00308	48 6b c0 01	 imul	 rax, rax, 1
  0030c	48 8b 4c 24 48	 mov	 rcx, QWORD PTR dev$[rsp]
  00311	0f b6 84 01 64
	03 00 00	 movzx	 eax, BYTE PTR [rcx+rax+868]
  00319	83 e0 bf	 and	 eax, -65		; ffffffffffffffbfH
  0031c	b9 01 00 00 00	 mov	 ecx, 1
  00321	48 6b c9 01	 imul	 rcx, rcx, 1
  00325	48 8b 54 24 48	 mov	 rdx, QWORD PTR dev$[rsp]
  0032a	88 84 0a 64 03
	00 00		 mov	 BYTE PTR [rdx+rcx+868], al

; 3772 :         dev->sense[1] |= SENSE1_TAPE_TUB;

  00331	b8 01 00 00 00	 mov	 eax, 1
  00336	48 6b c0 01	 imul	 rax, rax, 1
  0033a	48 8b 4c 24 48	 mov	 rcx, QWORD PTR dev$[rsp]
  0033f	0f b6 84 01 64
	03 00 00	 movzx	 eax, BYTE PTR [rcx+rax+868]
  00347	83 c8 20	 or	 eax, 32			; 00000020H
  0034a	b9 01 00 00 00	 mov	 ecx, 1
  0034f	48 6b c9 01	 imul	 rcx, rcx, 1
  00353	48 8b 54 24 48	 mov	 rdx, QWORD PTR dev$[rsp]
  00358	88 84 0a 64 03
	00 00		 mov	 BYTE PTR [rdx+rcx+868], al

; 3773 :     }

  0035f	e9 43 01 00 00	 jmp	 $LN29@build_sens
$LN28@build_sens:

; 3774 :     else
; 3775 :     {
; 3776 :         dev->sense[0] &= ~SENSE_IR;

  00364	b8 01 00 00 00	 mov	 eax, 1
  00369	48 6b c0 00	 imul	 rax, rax, 0
  0036d	48 8b 4c 24 48	 mov	 rcx, QWORD PTR dev$[rsp]
  00372	0f b6 84 01 64
	03 00 00	 movzx	 eax, BYTE PTR [rcx+rax+868]
  0037a	83 e0 bf	 and	 eax, -65		; ffffffffffffffbfH
  0037d	b9 01 00 00 00	 mov	 ecx, 1
  00382	48 6b c9 00	 imul	 rcx, rcx, 0
  00386	48 8b 54 24 48	 mov	 rdx, QWORD PTR dev$[rsp]
  0038b	88 84 0a 64 03
	00 00		 mov	 BYTE PTR [rdx+rcx+868], al

; 3777 :         dev->sense[1] |= IsAtLoadPoint( dev ) ? SENSE1_TAPE_LOADPT : 0;

  00392	48 8b 4c 24 48	 mov	 rcx, QWORD PTR dev$[rsp]
  00397	e8 00 00 00 00	 call	 IsAtLoadPoint
  0039c	85 c0		 test	 eax, eax
  0039e	74 0a		 je	 SHORT $LN33@build_sens
  003a0	c7 44 24 24 08
	00 00 00	 mov	 DWORD PTR tv217[rsp], 8
  003a8	eb 08		 jmp	 SHORT $LN34@build_sens
$LN33@build_sens:
  003aa	c7 44 24 24 00
	00 00 00	 mov	 DWORD PTR tv217[rsp], 0
$LN34@build_sens:
  003b2	b8 01 00 00 00	 mov	 eax, 1
  003b7	48 6b c0 01	 imul	 rax, rax, 1
  003bb	48 8b 4c 24 48	 mov	 rcx, QWORD PTR dev$[rsp]
  003c0	0f b6 84 01 64
	03 00 00	 movzx	 eax, BYTE PTR [rcx+rax+868]
  003c8	0b 44 24 24	 or	 eax, DWORD PTR tv217[rsp]
  003cc	b9 01 00 00 00	 mov	 ecx, 1
  003d1	48 6b c9 01	 imul	 rcx, rcx, 1
  003d5	48 8b 54 24 48	 mov	 rdx, QWORD PTR dev$[rsp]
  003da	88 84 0a 64 03
	00 00		 mov	 BYTE PTR [rdx+rcx+868], al

; 3778 :         dev->sense[1] |= dev->readonly || dev->tdparms.logical_readonly ?

  003e1	48 8b 44 24 48	 mov	 rax, QWORD PTR dev$[rsp]
  003e6	8b 80 78 10 00
	00		 mov	 eax, DWORD PTR [rax+4216]
  003ec	d1 e8		 shr	 eax, 1
  003ee	83 e0 01	 and	 eax, 1
  003f1	85 c0		 test	 eax, eax
  003f3	75 1f		 jne	 SHORT $LN35@build_sens
  003f5	48 8b 44 24 48	 mov	 rax, QWORD PTR dev$[rsp]
  003fa	8b 80 30 10 00
	00		 mov	 eax, DWORD PTR [rax+4144]
  00400	c1 e8 0b	 shr	 eax, 11
  00403	83 e0 01	 and	 eax, 1
  00406	85 c0		 test	 eax, eax
  00408	75 0a		 jne	 SHORT $LN35@build_sens
  0040a	c7 44 24 28 00
	00 00 00	 mov	 DWORD PTR tv235[rsp], 0
  00412	eb 08		 jmp	 SHORT $LN36@build_sens
$LN35@build_sens:
  00414	c7 44 24 28 02
	00 00 00	 mov	 DWORD PTR tv235[rsp], 2
$LN36@build_sens:
  0041c	b8 01 00 00 00	 mov	 eax, 1
  00421	48 6b c0 01	 imul	 rax, rax, 1
  00425	48 8b 4c 24 48	 mov	 rcx, QWORD PTR dev$[rsp]
  0042a	0f b6 84 01 64
	03 00 00	 movzx	 eax, BYTE PTR [rcx+rax+868]
  00432	0b 44 24 28	 or	 eax, DWORD PTR tv235[rsp]
  00436	b9 01 00 00 00	 mov	 ecx, 1
  0043b	48 6b c9 01	 imul	 rcx, rcx, 1
  0043f	48 8b 54 24 48	 mov	 rdx, QWORD PTR dev$[rsp]
  00444	88 84 0a 64 03
	00 00		 mov	 BYTE PTR [rdx+rcx+868], al

; 3779 :             SENSE1_TAPE_FP : 0;
; 3780 :         dev->sense[1] |= SENSE1_TAPE_TUA;

  0044b	b8 01 00 00 00	 mov	 eax, 1
  00450	48 6b c0 01	 imul	 rax, rax, 1
  00454	48 8b 4c 24 48	 mov	 rcx, QWORD PTR dev$[rsp]
  00459	0f b6 84 01 64
	03 00 00	 movzx	 eax, BYTE PTR [rcx+rax+868]
  00461	83 c8 40	 or	 eax, 64			; 00000040H
  00464	b9 01 00 00 00	 mov	 ecx, 1
  00469	48 6b c9 01	 imul	 rcx, rcx, 1
  0046d	48 8b 54 24 48	 mov	 rdx, QWORD PTR dev$[rsp]
  00472	88 84 0a 64 03
	00 00		 mov	 BYTE PTR [rdx+rcx+868], al

; 3781 :         dev->sense[1] &= ~SENSE1_TAPE_TUB;

  00479	b8 01 00 00 00	 mov	 eax, 1
  0047e	48 6b c0 01	 imul	 rax, rax, 1
  00482	48 8b 4c 24 48	 mov	 rcx, QWORD PTR dev$[rsp]
  00487	0f b6 84 01 64
	03 00 00	 movzx	 eax, BYTE PTR [rcx+rax+868]
  0048f	83 e0 df	 and	 eax, -33		; ffffffffffffffdfH
  00492	b9 01 00 00 00	 mov	 ecx, 1
  00497	48 6b c9 01	 imul	 rcx, rcx, 1
  0049b	48 8b 54 24 48	 mov	 rdx, QWORD PTR dev$[rsp]
  004a0	88 84 0a 64 03
	00 00		 mov	 BYTE PTR [rdx+rcx+868], al
$LN29@build_sens:

; 3782 :     }
; 3783 :     if (dev->tmh->passedeot(dev))

  004a7	48 8b 44 24 48	 mov	 rax, QWORD PTR dev$[rsp]
  004ac	48 8b 80 e0 10
	00 00		 mov	 rax, QWORD PTR [rax+4320]
  004b3	48 8b 4c 24 48	 mov	 rcx, QWORD PTR dev$[rsp]
  004b8	ff 50 78	 call	 QWORD PTR [rax+120]
  004bb	85 c0		 test	 eax, eax
  004bd	74 2e		 je	 SHORT $LN31@build_sens

; 3784 :     {
; 3785 :         dev->sense[4] |= 0x40;

  004bf	b8 01 00 00 00	 mov	 eax, 1
  004c4	48 6b c0 04	 imul	 rax, rax, 4
  004c8	48 8b 4c 24 48	 mov	 rcx, QWORD PTR dev$[rsp]
  004cd	0f b6 84 01 64
	03 00 00	 movzx	 eax, BYTE PTR [rcx+rax+868]
  004d5	83 c8 40	 or	 eax, 64			; 00000040H
  004d8	b9 01 00 00 00	 mov	 ecx, 1
  004dd	48 6b c9 04	 imul	 rcx, rcx, 4
  004e1	48 8b 54 24 48	 mov	 rdx, QWORD PTR dev$[rsp]
  004e6	88 84 0a 64 03
	00 00		 mov	 BYTE PTR [rdx+rcx+868], al
$LN31@build_sens:
$LN1@build_sens:

; 3786 :     }
; 3787 : 
; 3788 : } /* end function build_sense_3410_3420 */

  004ed	48 83 c4 38	 add	 rsp, 56			; 00000038H
  004f1	c3		 ret	 0
  004f2	66 90		 npad	 2
$LN37@build_sens:
  004f4	00 00 00 00	 DD	 $LN7@build_sens
  004f8	00 00 00 00	 DD	 $LN15@build_sens
  004fc	00 00 00 00	 DD	 $LN17@build_sens
  00500	00 00 00 00	 DD	 $LN19@build_sens
  00504	00 00 00 00	 DD	 $LN20@build_sens
  00508	00 00 00 00	 DD	 $LN21@build_sens
  0050c	00 00 00 00	 DD	 $LN22@build_sens
  00510	00 00 00 00	 DD	 $LN11@build_sens
  00514	00 00 00 00	 DD	 $LN12@build_sens
  00518	00 00 00 00	 DD	 $LN23@build_sens
  0051c	00 00 00 00	 DD	 $LN10@build_sens
  00520	00 00 00 00	 DD	 $LN18@build_sens
  00524	00 00 00 00	 DD	 $LN8@build_sens
  00528	00 00 00 00	 DD	 $LN26@build_sens
  0052c	00 00 00 00	 DD	 $LN14@build_sens
  00530	00 00 00 00	 DD	 $LN24@build_sens
  00534	00 00 00 00	 DD	 $LN5@build_sens
  00538	00 00 00 00	 DD	 $LN13@build_sens
  0053c	00 00 00 00	 DD	 $LN16@build_sens
  00540	00 00 00 00	 DD	 $LN9@build_sens
  00544	00 00 00 00	 DD	 $LN25@build_sens
build_sense_3410_3420 ENDP
_TEXT	ENDS
; Function compile flags: /Odtp
; File C:\papa\MyGit\hyperion-zvector\tapeccws.c
_TEXT	SEGMENT
ERCode$ = 48
dev$ = 56
unitstat$ = 64
ccwcode$ = 72
build_sense_3420 PROC

; 3808 : {

$LN3:
  00000	44 88 4c 24 20	 mov	 BYTE PTR [rsp+32], r9b
  00005	4c 89 44 24 18	 mov	 QWORD PTR [rsp+24], r8
  0000a	48 89 54 24 10	 mov	 QWORD PTR [rsp+16], rdx
  0000f	89 4c 24 08	 mov	 DWORD PTR [rsp+8], ecx
  00013	48 83 ec 28	 sub	 rsp, 40			; 00000028H

; 3809 :     build_sense_3410_3420(ERCode,dev,unitstat,ccwcode);

  00017	44 0f b6 4c 24
	48		 movzx	 r9d, BYTE PTR ccwcode$[rsp]
  0001d	4c 8b 44 24 40	 mov	 r8, QWORD PTR unitstat$[rsp]
  00022	48 8b 54 24 38	 mov	 rdx, QWORD PTR dev$[rsp]
  00027	8b 4c 24 30	 mov	 ecx, DWORD PTR ERCode$[rsp]
  0002b	e8 00 00 00 00	 call	 build_sense_3410_3420

; 3810 : 
; 3811 :     /* Following stripped from original 'build_sense' */
; 3812 :     dev->sense[5] |= 0xC0;

  00030	b8 01 00 00 00	 mov	 eax, 1
  00035	48 6b c0 05	 imul	 rax, rax, 5
  00039	48 8b 4c 24 38	 mov	 rcx, QWORD PTR dev$[rsp]
  0003e	0f b6 84 01 64
	03 00 00	 movzx	 eax, BYTE PTR [rcx+rax+868]
  00046	0d c0 00 00 00	 or	 eax, 192		; 000000c0H
  0004b	b9 01 00 00 00	 mov	 ecx, 1
  00050	48 6b c9 05	 imul	 rcx, rcx, 5
  00054	48 8b 54 24 38	 mov	 rdx, QWORD PTR dev$[rsp]
  00059	88 84 0a 64 03
	00 00		 mov	 BYTE PTR [rdx+rcx+868], al

; 3813 :     dev->sense[6] |= 0x03;

  00060	b8 01 00 00 00	 mov	 eax, 1
  00065	48 6b c0 06	 imul	 rax, rax, 6
  00069	48 8b 4c 24 38	 mov	 rcx, QWORD PTR dev$[rsp]
  0006e	0f b6 84 01 64
	03 00 00	 movzx	 eax, BYTE PTR [rcx+rax+868]
  00076	83 c8 03	 or	 eax, 3
  00079	b9 01 00 00 00	 mov	 ecx, 1
  0007e	48 6b c9 06	 imul	 rcx, rcx, 6
  00082	48 8b 54 24 38	 mov	 rdx, QWORD PTR dev$[rsp]
  00087	88 84 0a 64 03
	00 00		 mov	 BYTE PTR [rdx+rcx+868], al

; 3814 :     dev->sense[13] = 0x80;

  0008e	b8 01 00 00 00	 mov	 eax, 1
  00093	48 6b c0 0d	 imul	 rax, rax, 13
  00097	48 8b 4c 24 38	 mov	 rcx, QWORD PTR dev$[rsp]
  0009c	c6 84 01 64 03
	00 00 80	 mov	 BYTE PTR [rcx+rax+868], 128 ; 00000080H

; 3815 :     dev->sense[14] = 0x01;

  000a4	b8 01 00 00 00	 mov	 eax, 1
  000a9	48 6b c0 0e	 imul	 rax, rax, 14
  000ad	48 8b 4c 24 38	 mov	 rcx, QWORD PTR dev$[rsp]
  000b2	c6 84 01 64 03
	00 00 01	 mov	 BYTE PTR [rcx+rax+868], 1

; 3816 :     dev->sense[15] = 0x00;

  000ba	b8 01 00 00 00	 mov	 eax, 1
  000bf	48 6b c0 0f	 imul	 rax, rax, 15
  000c3	48 8b 4c 24 38	 mov	 rcx, QWORD PTR dev$[rsp]
  000c8	c6 84 01 64 03
	00 00 00	 mov	 BYTE PTR [rcx+rax+868], 0

; 3817 :     dev->sense[16] = 0x01;

  000d0	b8 01 00 00 00	 mov	 eax, 1
  000d5	48 6b c0 10	 imul	 rax, rax, 16
  000d9	48 8b 4c 24 38	 mov	 rcx, QWORD PTR dev$[rsp]
  000de	c6 84 01 64 03
	00 00 01	 mov	 BYTE PTR [rcx+rax+868], 1

; 3818 :     dev->sense[19] = 0xFF;

  000e6	b8 01 00 00 00	 mov	 eax, 1
  000eb	48 6b c0 13	 imul	 rax, rax, 19
  000ef	48 8b 4c 24 38	 mov	 rcx, QWORD PTR dev$[rsp]
  000f4	c6 84 01 64 03
	00 00 ff	 mov	 BYTE PTR [rcx+rax+868], 255 ; 000000ffH

; 3819 :     dev->sense[20] = 0xFF;

  000fc	b8 01 00 00 00	 mov	 eax, 1
  00101	48 6b c0 14	 imul	 rax, rax, 20
  00105	48 8b 4c 24 38	 mov	 rcx, QWORD PTR dev$[rsp]
  0010a	c6 84 01 64 03
	00 00 ff	 mov	 BYTE PTR [rcx+rax+868], 255 ; 000000ffH

; 3820 :     dev->numsense = 24;

  00112	48 8b 44 24 38	 mov	 rax, QWORD PTR dev$[rsp]
  00117	c7 80 60 03 00
	00 18 00 00 00	 mov	 DWORD PTR [rax+864], 24

; 3821 : 
; 3822 : } /* end function build_sense_3420 */

  00121	48 83 c4 28	 add	 rsp, 40			; 00000028H
  00125	c3		 ret	 0
build_sense_3420 ENDP
_TEXT	ENDS
; Function compile flags: /Odtp
; File C:\papa\MyGit\hyperion-zvector\tapeccws.c
_TEXT	SEGMENT
ERCode$ = 48
dev$ = 56
unitstat$ = 64
ccwcode$ = 72
build_sense_3410 PROC

; 3794 : {

$LN3:
  00000	44 88 4c 24 20	 mov	 BYTE PTR [rsp+32], r9b
  00005	4c 89 44 24 18	 mov	 QWORD PTR [rsp+24], r8
  0000a	48 89 54 24 10	 mov	 QWORD PTR [rsp+16], rdx
  0000f	89 4c 24 08	 mov	 DWORD PTR [rsp+8], ecx
  00013	48 83 ec 28	 sub	 rsp, 40			; 00000028H

; 3795 :     build_sense_3410_3420(ERCode,dev,unitstat,ccwcode);

  00017	44 0f b6 4c 24
	48		 movzx	 r9d, BYTE PTR ccwcode$[rsp]
  0001d	4c 8b 44 24 40	 mov	 r8, QWORD PTR unitstat$[rsp]
  00022	48 8b 54 24 38	 mov	 rdx, QWORD PTR dev$[rsp]
  00027	8b 4c 24 30	 mov	 ecx, DWORD PTR ERCode$[rsp]
  0002b	e8 00 00 00 00	 call	 build_sense_3410_3420

; 3796 : 
; 3797 :     dev->sense[5] &= 0x80;

  00030	b8 01 00 00 00	 mov	 eax, 1
  00035	48 6b c0 05	 imul	 rax, rax, 5
  00039	48 8b 4c 24 38	 mov	 rcx, QWORD PTR dev$[rsp]
  0003e	0f b6 84 01 64
	03 00 00	 movzx	 eax, BYTE PTR [rcx+rax+868]
  00046	25 80 00 00 00	 and	 eax, 128		; 00000080H
  0004b	b9 01 00 00 00	 mov	 ecx, 1
  00050	48 6b c9 05	 imul	 rcx, rcx, 5
  00054	48 8b 54 24 38	 mov	 rdx, QWORD PTR dev$[rsp]
  00059	88 84 0a 64 03
	00 00		 mov	 BYTE PTR [rdx+rcx+868], al

; 3798 :     dev->sense[5] |= 0x40;

  00060	b8 01 00 00 00	 mov	 eax, 1
  00065	48 6b c0 05	 imul	 rax, rax, 5
  00069	48 8b 4c 24 38	 mov	 rcx, QWORD PTR dev$[rsp]
  0006e	0f b6 84 01 64
	03 00 00	 movzx	 eax, BYTE PTR [rcx+rax+868]
  00076	83 c8 40	 or	 eax, 64			; 00000040H
  00079	b9 01 00 00 00	 mov	 ecx, 1
  0007e	48 6b c9 05	 imul	 rcx, rcx, 5
  00082	48 8b 54 24 38	 mov	 rdx, QWORD PTR dev$[rsp]
  00087	88 84 0a 64 03
	00 00		 mov	 BYTE PTR [rdx+rcx+868], al

; 3799 :     dev->sense[6] = 0x22; /* Dual Dens - 3410/3411 Model 2 */

  0008e	b8 01 00 00 00	 mov	 eax, 1
  00093	48 6b c0 06	 imul	 rax, rax, 6
  00097	48 8b 4c 24 38	 mov	 rcx, QWORD PTR dev$[rsp]
  0009c	c6 84 01 64 03
	00 00 22	 mov	 BYTE PTR [rcx+rax+868], 34 ; 00000022H

; 3800 :     dev->numsense = 9;

  000a4	48 8b 44 24 38	 mov	 rax, QWORD PTR dev$[rsp]
  000a9	c7 80 60 03 00
	00 09 00 00 00	 mov	 DWORD PTR [rax+864], 9

; 3801 : 
; 3802 : } /* end function build_sense_3410 */

  000b3	48 83 c4 28	 add	 rsp, 40			; 00000028H
  000b7	c3		 ret	 0
build_sense_3410 ENDP
_TEXT	ENDS
; Function compile flags: /Odtp
; File C:\papa\MyGit\hyperion-zvector\tapeccws.c
_TEXT	SEGMENT
usr$ = 32
i$ = 36
sense_built$ = 40
tv163 = 48
ERCode$ = 80
dev$ = 88
unitstat$ = 96
ccwcode$ = 104
build_senseX PROC

; 3613 : {

$LN13:
  00000	44 88 4c 24 20	 mov	 BYTE PTR [rsp+32], r9b
  00005	4c 89 44 24 18	 mov	 QWORD PTR [rsp+24], r8
  0000a	48 89 54 24 10	 mov	 QWORD PTR [rsp+16], rdx
  0000f	89 4c 24 08	 mov	 DWORD PTR [rsp+8], ecx
  00013	57		 push	 rdi
  00014	48 83 ec 40	 sub	 rsp, 64			; 00000040H

; 3614 : int i;
; 3615 : BYTE usr;
; 3616 : int sense_built;
; 3617 :     sense_built = 0;

  00018	c7 44 24 28 00
	00 00 00	 mov	 DWORD PTR sense_built$[rsp], 0

; 3618 :     if(unitstat==NULL)

  00020	48 83 7c 24 60
	00		 cmp	 QWORD PTR unitstat$[rsp], 0
  00026	75 0a		 jne	 SHORT $LN5@build_sens

; 3619 :     {
; 3620 :         unitstat = &usr;

  00028	48 8d 44 24 20	 lea	 rax, QWORD PTR usr$[rsp]
  0002d	48 89 44 24 60	 mov	 QWORD PTR unitstat$[rsp], rax
$LN5@build_sens:

; 3621 :     }
; 3622 :     for(i = 0;TapeDevtypeList[i] != 0; i += TAPEDEVTYPELIST_ENTRYSIZE)

  00032	c7 44 24 24 00
	00 00 00	 mov	 DWORD PTR i$[rsp], 0
  0003a	eb 0b		 jmp	 SHORT $LN4@build_sens
$LN2@build_sens:
  0003c	8b 44 24 24	 mov	 eax, DWORD PTR i$[rsp]
  00040	83 c0 05	 add	 eax, 5
  00043	89 44 24 24	 mov	 DWORD PTR i$[rsp], eax
$LN4@build_sens:
  00047	48 63 44 24 24	 movsxd	 rax, DWORD PTR i$[rsp]
  0004c	48 8d 0d 00 00
	00 00		 lea	 rcx, OFFSET FLAT:TapeDevtypeList
  00053	83 3c 81 00	 cmp	 DWORD PTR [rcx+rax*4], 0
  00057	0f 84 fc 00 00
	00		 je	 $LN3@build_sens

; 3623 :     {
; 3624 :         if (TapeDevtypeList[i] == dev->devtype)

  0005d	48 63 44 24 24	 movsxd	 rax, DWORD PTR i$[rsp]
  00062	48 8d 0d 00 00
	00 00		 lea	 rcx, OFFSET FLAT:TapeDevtypeList
  00069	48 8b 54 24 58	 mov	 rdx, QWORD PTR dev$[rsp]
  0006e	0f b7 52 4a	 movzx	 edx, WORD PTR [rdx+74]
  00072	39 14 81	 cmp	 DWORD PTR [rcx+rax*4], edx
  00075	0f 85 d9 00 00
	00		 jne	 $LN6@build_sens

; 3625 :         {
; 3626 :             // Clear old sense if we're going to completely rebuild it...
; 3627 : 
; 3628 :             if (TAPE_BSENSE_STATUSONLY != ERCode)

  0007b	83 7c 24 50 0d	 cmp	 DWORD PTR ERCode$[rsp], 13
  00080	74 30		 je	 SHORT $LN7@build_sens

; 3629 :             {
; 3630 :                 memset( dev->sense, 0, sizeof(dev->sense) );

  00082	48 8b 44 24 58	 mov	 rax, QWORD PTR dev$[rsp]
  00087	48 05 64 03 00
	00		 add	 rax, 868		; 00000364H
  0008d	48 8b f8	 mov	 rdi, rax
  00090	33 c0		 xor	 eax, eax
  00092	b9 00 01 00 00	 mov	 ecx, 256		; 00000100H
  00097	f3 aa		 rep stosb

; 3631 :                 dev->sns_pending = 0;

  00099	48 8b 44 24 58	 mov	 rax, QWORD PTR dev$[rsp]
  0009e	8b 80 78 10 00
	00		 mov	 eax, DWORD PTR [rax+4216]
  000a4	83 e0 fb	 and	 eax, -5			; fffffffbH
  000a7	48 8b 4c 24 58	 mov	 rcx, QWORD PTR dev$[rsp]
  000ac	89 81 78 10 00
	00		 mov	 DWORD PTR [rcx+4216], eax
$LN7@build_sens:

; 3632 :             }
; 3633 : 
; 3634 :             // Call the primary sense function (e.g. "build_sense_3480_etal")...
; 3635 : 
; 3636 :             TapeSenseTable[TapeDevtypeList[i+4]](ERCode,dev,unitstat,ccwcode);

  000b2	8b 44 24 24	 mov	 eax, DWORD PTR i$[rsp]
  000b6	83 c0 04	 add	 eax, 4
  000b9	48 98		 cdqe
  000bb	48 8d 0d 00 00
	00 00		 lea	 rcx, OFFSET FLAT:TapeDevtypeList
  000c2	48 63 04 81	 movsxd	 rax, DWORD PTR [rcx+rax*4]
  000c6	48 8d 0d 00 00
	00 00		 lea	 rcx, OFFSET FLAT:TapeSenseTable
  000cd	48 89 4c 24 30	 mov	 QWORD PTR tv163[rsp], rcx
  000d2	44 0f b6 4c 24
	68		 movzx	 r9d, BYTE PTR ccwcode$[rsp]
  000d8	4c 8b 44 24 60	 mov	 r8, QWORD PTR unitstat$[rsp]
  000dd	48 8b 54 24 58	 mov	 rdx, QWORD PTR dev$[rsp]
  000e2	8b 4c 24 50	 mov	 ecx, DWORD PTR ERCode$[rsp]
  000e6	48 8b 7c 24 30	 mov	 rdi, QWORD PTR tv163[rsp]
  000eb	ff 14 c7	 call	 QWORD PTR [rdi+rax*8]

; 3637 :             sense_built = 1;

  000ee	c7 44 24 28 01
	00 00 00	 mov	 DWORD PTR sense_built$[rsp], 1

; 3638 : 
; 3639 :             // Unit-exception s/b signalled for all write operations
; 3640 :             // once the end-of-tape (EOT) reflector has been passed...
; 3641 : 
; 3642 :             if (1
; 3643 :                 && TAPE_BSENSE_STATUSONLY == ERCode
; 3644 :                 &&
; 3645 :                 (0
; 3646 :                     || 0x01 == ccwcode      // write
; 3647 :                     || 0x17 == ccwcode      // erase gap
; 3648 :                     || 0x1F == ccwcode      // write tapemark
; 3649 :                 )
; 3650 :                 && dev->tmh->passedeot(dev)

  000f6	33 c0		 xor	 eax, eax
  000f8	83 f8 01	 cmp	 eax, 1
  000fb	74 55		 je	 SHORT $LN8@build_sens
  000fd	83 7c 24 50 0d	 cmp	 DWORD PTR ERCode$[rsp], 13
  00102	75 4e		 jne	 SHORT $LN8@build_sens
  00104	33 c0		 xor	 eax, eax
  00106	85 c0		 test	 eax, eax
  00108	75 1e		 jne	 SHORT $LN9@build_sens
  0010a	0f b6 44 24 68	 movzx	 eax, BYTE PTR ccwcode$[rsp]
  0010f	83 f8 01	 cmp	 eax, 1
  00112	74 14		 je	 SHORT $LN9@build_sens
  00114	0f b6 44 24 68	 movzx	 eax, BYTE PTR ccwcode$[rsp]
  00119	83 f8 17	 cmp	 eax, 23
  0011c	74 0a		 je	 SHORT $LN9@build_sens
  0011e	0f b6 44 24 68	 movzx	 eax, BYTE PTR ccwcode$[rsp]
  00123	83 f8 1f	 cmp	 eax, 31
  00126	75 2a		 jne	 SHORT $LN8@build_sens
$LN9@build_sens:
  00128	48 8b 44 24 58	 mov	 rax, QWORD PTR dev$[rsp]
  0012d	48 8b 80 e0 10
	00 00		 mov	 rax, QWORD PTR [rax+4320]
  00134	48 8b 4c 24 58	 mov	 rcx, QWORD PTR dev$[rsp]
  00139	ff 50 78	 call	 QWORD PTR [rax+120]
  0013c	85 c0		 test	 eax, eax
  0013e	74 12		 je	 SHORT $LN8@build_sens

; 3651 :             )
; 3652 :             {
; 3653 :                 // We're still in the "Early Warning Zone",
; 3654 :                 // so keep warning them...
; 3655 : 
; 3656 :                 *unitstat |= CSW_UX;        // ("Warning!")

  00140	48 8b 44 24 60	 mov	 rax, QWORD PTR unitstat$[rsp]
  00145	0f b6 00	 movzx	 eax, BYTE PTR [rax]
  00148	83 c8 01	 or	 eax, 1
  0014b	48 8b 4c 24 60	 mov	 rcx, QWORD PTR unitstat$[rsp]
  00150	88 01		 mov	 BYTE PTR [rcx], al
$LN8@build_sens:

; 3657 :             }
; 3658 :             break;

  00152	eb 05		 jmp	 SHORT $LN3@build_sens
$LN6@build_sens:

; 3659 :         }
; 3660 :     }

  00154	e9 e3 fe ff ff	 jmp	 $LN2@build_sens
$LN3@build_sens:

; 3661 :     if (!sense_built)

  00159	83 7c 24 28 00	 cmp	 DWORD PTR sense_built$[rsp], 0
  0015e	75 35		 jne	 SHORT $LN10@build_sens

; 3662 :     {
; 3663 :         memset( dev->sense, 0, sizeof(dev->sense) );

  00160	48 8b 44 24 58	 mov	 rax, QWORD PTR dev$[rsp]
  00165	48 05 64 03 00
	00		 add	 rax, 868		; 00000364H
  0016b	48 8b f8	 mov	 rdi, rax
  0016e	33 c0		 xor	 eax, eax
  00170	b9 00 01 00 00	 mov	 ecx, 256		; 00000100H
  00175	f3 aa		 rep stosb

; 3664 :         dev->sense[0]=SENSE_EC;

  00177	b8 01 00 00 00	 mov	 eax, 1
  0017c	48 6b c0 00	 imul	 rax, rax, 0
  00180	48 8b 4c 24 58	 mov	 rcx, QWORD PTR dev$[rsp]
  00185	c6 84 01 64 03
	00 00 10	 mov	 BYTE PTR [rcx+rax+868], 16

; 3665 :         *unitstat = CSW_CE|CSW_DE|CSW_UC;

  0018d	48 8b 44 24 60	 mov	 rax, QWORD PTR unitstat$[rsp]
  00192	c6 00 0e	 mov	 BYTE PTR [rax], 14
$LN10@build_sens:

; 3666 :     }
; 3667 :     if (*unitstat & CSW_UC)

  00195	48 8b 44 24 60	 mov	 rax, QWORD PTR unitstat$[rsp]
  0019a	0f b6 00	 movzx	 eax, BYTE PTR [rax]
  0019d	83 e0 02	 and	 eax, 2
  001a0	85 c0		 test	 eax, eax
  001a2	74 19		 je	 SHORT $LN11@build_sens

; 3668 :     {
; 3669 :         dev->sns_pending = 1;

  001a4	48 8b 44 24 58	 mov	 rax, QWORD PTR dev$[rsp]
  001a9	8b 80 78 10 00
	00		 mov	 eax, DWORD PTR [rax+4216]
  001af	83 c8 04	 or	 eax, 4
  001b2	48 8b 4c 24 58	 mov	 rcx, QWORD PTR dev$[rsp]
  001b7	89 81 78 10 00
	00		 mov	 DWORD PTR [rcx+4216], eax
$LN11@build_sens:

; 3670 :     }
; 3671 :     return;
; 3672 : 
; 3673 : } /* end function build_senseX */

  001bd	48 83 c4 40	 add	 rsp, 64			; 00000040H
  001c1	5f		 pop	 rdi
  001c2	c3		 ret	 0
build_senseX ENDP
_TEXT	ENDS
; Function compile flags: /Odtp
; File C:\papa\MyGit\hyperion-zvector\tapeccws.c
_TEXT	SEGMENT
fcb$ = 112
i$ = 116
tapeloaded$ = 120
tv90 = 121
tv141 = 122
rc$ = 124
msg$ = 128
tv158 = 136
tv214 = 140
tv220 = 144
tv276 = 148
tv282 = 152
tv346 = 156
tv352 = 160
tv433 = 164
tv439 = 168
tv495 = 172
tv491 = 176
tv500 = 180
tv505 = 184
$T1 = 192
$T2 = 200
tv202 = 208
tv203 = 216
tv204 = 224
tv205 = 232
tv206 = 240
tv207 = 248
tv264 = 256
tv265 = 264
tv266 = 272
tv267 = 280
tv268 = 288
tv269 = 296
tv334 = 304
tv335 = 312
tv336 = 320
tv337 = 328
tv338 = 336
tv339 = 344
tv421 = 352
tv422 = 360
tv423 = 368
tv424 = 376
tv425 = 384
tv426 = 392
tv182 = 400
tv209 = 408
tv244 = 416
tv271 = 424
tv312 = 432
tv314 = 440
tv341 = 448
tv369 = 456
tv428 = 464
msg1$ = 472
msg2$ = 488
__$ArrayPad$ = 504
dev$ = 528
buf$ = 536
count$ = 544
load_display PROC

; 3376 : {

$LN108:
  00000	66 44 89 44 24
	18		 mov	 WORD PTR [rsp+24], r8w
  00006	48 89 54 24 10	 mov	 QWORD PTR [rsp+16], rdx
  0000b	48 89 4c 24 08	 mov	 QWORD PTR [rsp+8], rcx
  00010	57		 push	 rdi
  00011	48 81 ec 00 02
	00 00		 sub	 rsp, 512		; 00000200H
  00018	48 8b 05 00 00
	00 00		 mov	 rax, QWORD PTR __security_cookie
  0001f	48 33 c4	 xor	 rax, rsp
  00022	48 89 84 24 f8
	01 00 00	 mov	 QWORD PTR __$ArrayPad$[rsp], rax

; 3377 : int             rc = 0;                 /* Return code               */

  0002a	c7 44 24 7c 00
	00 00 00	 mov	 DWORD PTR rc$[rsp], 0

; 3378 : U16             i;                      /* Array subscript           */
; 3379 : char            msg1[9], msg2[9];       /* Message areas (ASCIIZ)    */
; 3380 : BYTE            fcb;                    /* Format Control Byte       */
; 3381 : BYTE            tapeloaded;             /* (boolean true/false)      */
; 3382 : BYTE*           msg;                    /* (work buf ptr)            */
; 3383 : 
; 3384 :     if (!count)

  00032	0f b7 84 24 20
	02 00 00	 movzx	 eax, WORD PTR count$[rsp]
  0003a	85 c0		 test	 eax, eax
  0003c	75 09		 jne	 SHORT $LN10@load_displ

; 3385 :         return rc;

  0003e	8b 44 24 7c	 mov	 eax, DWORD PTR rc$[rsp]
  00042	e9 a8 0f 00 00	 jmp	 $LN1@load_displ
$LN10@load_displ:

; 3386 : 
; 3387 :     /* Pick up format control byte */
; 3388 :     fcb = *buf;

  00047	48 8b 84 24 18
	02 00 00	 mov	 rax, QWORD PTR buf$[rsp]
  0004f	0f b6 00	 movzx	 eax, BYTE PTR [rax]
  00052	88 44 24 70	 mov	 BYTE PTR fcb$[rsp], al

; 3389 : 
; 3390 :     /* Copy and translate messages... */
; 3391 : 
; 3392 :     memset( msg1, 0, sizeof(msg1) );

  00056	48 8d 84 24 d8
	01 00 00	 lea	 rax, QWORD PTR msg1$[rsp]
  0005e	48 8b f8	 mov	 rdi, rax
  00061	33 c0		 xor	 eax, eax
  00063	b9 09 00 00 00	 mov	 ecx, 9
  00068	f3 aa		 rep stosb

; 3393 :     memset( msg2, 0, sizeof(msg2) );

  0006a	48 8d 84 24 e8
	01 00 00	 lea	 rax, QWORD PTR msg2$[rsp]
  00072	48 8b f8	 mov	 rdi, rax
  00075	33 c0		 xor	 eax, eax
  00077	b9 09 00 00 00	 mov	 ecx, 9
  0007c	f3 aa		 rep stosb

; 3394 : 
; 3395 :     msg = buf+1;

  0007e	48 8b 84 24 18
	02 00 00	 mov	 rax, QWORD PTR buf$[rsp]
  00086	48 ff c0	 inc	 rax
  00089	48 89 84 24 80
	00 00 00	 mov	 QWORD PTR msg$[rsp], rax

; 3396 : 
; 3397 :     for (i=0; *msg && i < 8 && ((i+1)+0) < count; i++)

  00091	33 c0		 xor	 eax, eax
  00093	66 89 44 24 74	 mov	 WORD PTR i$[rsp], ax
  00098	eb 0d		 jmp	 SHORT $LN4@load_displ
$LN2@load_displ:
  0009a	0f b7 44 24 74	 movzx	 eax, WORD PTR i$[rsp]
  0009f	66 ff c0	 inc	 ax
  000a2	66 89 44 24 74	 mov	 WORD PTR i$[rsp], ax
$LN4@load_displ:
  000a7	48 8b 84 24 80
	00 00 00	 mov	 rax, QWORD PTR msg$[rsp]
  000af	0f b6 00	 movzx	 eax, BYTE PTR [rax]
  000b2	85 c0		 test	 eax, eax
  000b4	74 58		 je	 SHORT $LN3@load_displ
  000b6	0f b7 44 24 74	 movzx	 eax, WORD PTR i$[rsp]
  000bb	83 f8 08	 cmp	 eax, 8
  000be	7d 4e		 jge	 SHORT $LN3@load_displ
  000c0	0f b7 44 24 74	 movzx	 eax, WORD PTR i$[rsp]
  000c5	ff c0		 inc	 eax
  000c7	0f b7 8c 24 20
	02 00 00	 movzx	 ecx, WORD PTR count$[rsp]
  000cf	3b c1		 cmp	 eax, ecx
  000d1	7d 3b		 jge	 SHORT $LN3@load_displ

; 3398 :         msg1[i] = guest_to_host(*msg++);

  000d3	48 8b 84 24 80
	00 00 00	 mov	 rax, QWORD PTR msg$[rsp]
  000db	0f b6 00	 movzx	 eax, BYTE PTR [rax]
  000de	88 44 24 79	 mov	 BYTE PTR tv90[rsp], al
  000e2	0f b6 4c 24 79	 movzx	 ecx, BYTE PTR tv90[rsp]
  000e7	ff 15 00 00 00
	00		 call	 QWORD PTR __imp_guest_to_host
  000ed	0f b7 4c 24 74	 movzx	 ecx, WORD PTR i$[rsp]
  000f2	88 84 0c d8 01
	00 00		 mov	 BYTE PTR msg1$[rsp+rcx], al
  000f9	48 8b 84 24 80
	00 00 00	 mov	 rax, QWORD PTR msg$[rsp]
  00101	48 ff c0	 inc	 rax
  00104	48 89 84 24 80
	00 00 00	 mov	 QWORD PTR msg$[rsp], rax
  0010c	eb 8c		 jmp	 SHORT $LN2@load_displ
$LN3@load_displ:

; 3399 : 
; 3400 :     msg = buf+1+8;

  0010e	48 8b 84 24 18
	02 00 00	 mov	 rax, QWORD PTR buf$[rsp]
  00116	48 83 c0 09	 add	 rax, 9
  0011a	48 89 84 24 80
	00 00 00	 mov	 QWORD PTR msg$[rsp], rax

; 3401 : 
; 3402 :     for (i=0; *msg && i < 8 && ((i+1)+8) < count; i++)

  00122	33 c0		 xor	 eax, eax
  00124	66 89 44 24 74	 mov	 WORD PTR i$[rsp], ax
  00129	eb 0d		 jmp	 SHORT $LN7@load_displ
$LN5@load_displ:
  0012b	0f b7 44 24 74	 movzx	 eax, WORD PTR i$[rsp]
  00130	66 ff c0	 inc	 ax
  00133	66 89 44 24 74	 mov	 WORD PTR i$[rsp], ax
$LN7@load_displ:
  00138	48 8b 84 24 80
	00 00 00	 mov	 rax, QWORD PTR msg$[rsp]
  00140	0f b6 00	 movzx	 eax, BYTE PTR [rax]
  00143	85 c0		 test	 eax, eax
  00145	74 59		 je	 SHORT $LN6@load_displ
  00147	0f b7 44 24 74	 movzx	 eax, WORD PTR i$[rsp]
  0014c	83 f8 08	 cmp	 eax, 8
  0014f	7d 4f		 jge	 SHORT $LN6@load_displ
  00151	0f b7 44 24 74	 movzx	 eax, WORD PTR i$[rsp]
  00156	83 c0 09	 add	 eax, 9
  00159	0f b7 8c 24 20
	02 00 00	 movzx	 ecx, WORD PTR count$[rsp]
  00161	3b c1		 cmp	 eax, ecx
  00163	7d 3b		 jge	 SHORT $LN6@load_displ

; 3403 :         msg2[i] = guest_to_host(*msg++);

  00165	48 8b 84 24 80
	00 00 00	 mov	 rax, QWORD PTR msg$[rsp]
  0016d	0f b6 00	 movzx	 eax, BYTE PTR [rax]
  00170	88 44 24 7a	 mov	 BYTE PTR tv141[rsp], al
  00174	0f b6 4c 24 7a	 movzx	 ecx, BYTE PTR tv141[rsp]
  00179	ff 15 00 00 00
	00		 call	 QWORD PTR __imp_guest_to_host
  0017f	0f b7 4c 24 74	 movzx	 ecx, WORD PTR i$[rsp]
  00184	88 84 0c e8 01
	00 00		 mov	 BYTE PTR msg2$[rsp+rcx], al
  0018b	48 8b 84 24 80
	00 00 00	 mov	 rax, QWORD PTR msg$[rsp]
  00193	48 ff c0	 inc	 rax
  00196	48 89 84 24 80
	00 00 00	 mov	 QWORD PTR msg$[rsp], rax
  0019e	eb 8b		 jmp	 SHORT $LN5@load_displ
$LN6@load_displ:

; 3404 : 
; 3405 :     msg1[ sizeof(msg1) - 1 ] = 0;

  001a0	b8 01 00 00 00	 mov	 eax, 1
  001a5	48 6b c0 08	 imul	 rax, rax, 8
  001a9	48 89 84 24 c0
	00 00 00	 mov	 QWORD PTR $T1[rsp], rax
  001b1	48 83 bc 24 c0
	00 00 00 09	 cmp	 QWORD PTR $T1[rsp], 9
  001ba	73 02		 jae	 SHORT $LN30@load_displ
  001bc	eb 05		 jmp	 SHORT $LN31@load_displ
$LN30@load_displ:
  001be	e8 00 00 00 00	 call	 __report_rangecheckfailure
$LN31@load_displ:
  001c3	48 8b 84 24 c0
	00 00 00	 mov	 rax, QWORD PTR $T1[rsp]
  001cb	c6 84 04 d8 01
	00 00 00	 mov	 BYTE PTR msg1$[rsp+rax], 0

; 3406 :     msg2[ sizeof(msg2) - 1 ] = 0;

  001d3	b8 01 00 00 00	 mov	 eax, 1
  001d8	48 6b c0 08	 imul	 rax, rax, 8
  001dc	48 89 84 24 c8
	00 00 00	 mov	 QWORD PTR $T2[rsp], rax
  001e4	48 83 bc 24 c8
	00 00 00 09	 cmp	 QWORD PTR $T2[rsp], 9
  001ed	73 02		 jae	 SHORT $LN32@load_displ
  001ef	eb 05		 jmp	 SHORT $LN33@load_displ
$LN32@load_displ:
  001f1	e8 00 00 00 00	 call	 __report_rangecheckfailure
$LN33@load_displ:
  001f6	48 8b 84 24 c8
	00 00 00	 mov	 rax, QWORD PTR $T2[rsp]
  001fe	c6 84 04 e8 01
	00 00 00	 mov	 BYTE PTR msg2$[rsp+rax], 0

; 3407 : 
; 3408 :     tapeloaded = dev->tmh->tapeloaded( dev, NULL, 0 );

  00206	48 8b 84 24 10
	02 00 00	 mov	 rax, QWORD PTR dev$[rsp]
  0020e	48 8b 80 e0 10
	00 00		 mov	 rax, QWORD PTR [rax+4320]
  00215	45 33 c0	 xor	 r8d, r8d
  00218	33 d2		 xor	 edx, edx
  0021a	48 8b 8c 24 10
	02 00 00	 mov	 rcx, QWORD PTR dev$[rsp]
  00222	ff 50 70	 call	 QWORD PTR [rax+112]
  00225	88 44 24 78	 mov	 BYTE PTR tapeloaded$[rsp], al

; 3409 : 
; 3410 :     switch ( fcb & FCB_FS )  // (high-order 3 bits)

  00229	0f b6 44 24 70	 movzx	 eax, BYTE PTR fcb$[rsp]
  0022e	25 e0 00 00 00	 and	 eax, 224		; 000000e0H
  00233	89 84 24 88 00
	00 00		 mov	 DWORD PTR tv158[rsp], eax
  0023a	81 bc 24 88 00
	00 00 e0 00 00
	00		 cmp	 DWORD PTR tv158[rsp], 224 ; 000000e0H
  00245	0f 87 2e 06 00
	00		 ja	 $LN19@load_displ
  0024b	48 63 84 24 88
	00 00 00	 movsxd	 rax, DWORD PTR tv158[rsp]
  00253	48 8d 0d 00 00
	00 00		 lea	 rcx, OFFSET FLAT:__ImageBase
  0025a	0f b6 84 01 00
	00 00 00	 movzx	 eax, BYTE PTR $LN106@load_displ[rcx+rax]
  00262	8b 84 81 00 00
	00 00		 mov	 eax, DWORD PTR $LN107@load_displ[rcx+rax*4]
  00269	48 03 c1	 add	 rax, rcx
  0026c	ff e0		 jmp	 rax
$LN11@load_displ:

; 3411 :     {
; 3412 :     case FCB_FS_READYGO:     // 0x00
; 3413 : 
; 3414 :         /*
; 3415 :         || 000b: "The message specified in bytes 1-8 and 9-16 is
; 3416 :         ||       maintained until the tape drive next starts tape
; 3417 :         ||       motion, or until the message is updated."
; 3418 :         */
; 3419 : 
; 3420 :         dev->tapedispflags = 0;

  0026e	48 8b 84 24 10
	02 00 00	 mov	 rax, QWORD PTR dev$[rsp]
  00276	c6 80 61 11 00
	00 00		 mov	 BYTE PTR [rax+4449], 0

; 3421 : 
; 3422 :         STRLCPY( dev->tapemsg1, msg1 );

  0027d	48 8b 84 24 10
	02 00 00	 mov	 rax, QWORD PTR dev$[rsp]
  00285	48 05 20 11 00
	00		 add	 rax, 4384		; 00001120H
  0028b	41 b8 09 00 00
	00		 mov	 r8d, 9
  00291	48 8d 94 24 d8
	01 00 00	 lea	 rdx, QWORD PTR msg1$[rsp]
  00299	48 8b c8	 mov	 rcx, rax
  0029c	ff 15 00 00 00
	00		 call	 QWORD PTR __imp_strlcpy

; 3423 :         STRLCPY( dev->tapemsg2, msg2 );

  002a2	48 8b 84 24 10
	02 00 00	 mov	 rax, QWORD PTR dev$[rsp]
  002aa	48 05 29 11 00
	00		 add	 rax, 4393		; 00001129H
  002b0	41 b8 09 00 00
	00		 mov	 r8d, 9
  002b6	48 8d 94 24 e8
	01 00 00	 lea	 rdx, QWORD PTR msg2$[rsp]
  002be	48 8b c8	 mov	 rcx, rax
  002c1	ff 15 00 00 00
	00		 call	 QWORD PTR __imp_strlcpy

; 3424 : 
; 3425 :         dev->tapedisptype  = TAPEDISPTYP_WAITACT;

  002c7	48 8b 84 24 10
	02 00 00	 mov	 rax, QWORD PTR dev$[rsp]
  002cf	c6 80 60 11 00
	00 09		 mov	 BYTE PTR [rax+4448], 9

; 3426 : 
; 3427 :         break;

  002d6	e9 6b 0b 00 00	 jmp	 $LN8@load_displ
$LN12@load_displ:

; 3428 : 
; 3429 :     case FCB_FS_UNMOUNT:     // 0x20
; 3430 : 
; 3431 :         /*
; 3432 :         || 001b: "The message specified in bytes 1-8 is maintained
; 3433 :         ||       until the tape cartridge is physically removed from
; 3434 :         ||       the tape drive, or until the next unload/load cycle.
; 3435 :         ||       If the drive does not contain a cartridge when the
; 3436 :         ||       Load Display command is received, the display will
; 3437 :         ||       contain the message that existed prior to the receipt
; 3438 :         ||       of the command."
; 3439 :         */
; 3440 : 
; 3441 :         dev->tapedispflags = 0;

  002db	48 8b 84 24 10
	02 00 00	 mov	 rax, QWORD PTR dev$[rsp]
  002e3	c6 80 61 11 00
	00 00		 mov	 BYTE PTR [rax+4449], 0

; 3442 : 
; 3443 :         if ( tapeloaded )

  002ea	0f b6 44 24 78	 movzx	 eax, BYTE PTR tapeloaded$[rsp]
  002ef	85 c0		 test	 eax, eax
  002f1	0f 84 ae 02 00
	00		 je	 $LN13@load_displ

; 3444 :         {
; 3445 :             dev->tapedisptype  = TAPEDISPTYP_UNMOUNT;

  002f7	48 8b 84 24 10
	02 00 00	 mov	 rax, QWORD PTR dev$[rsp]
  002ff	c6 80 60 11 00
	00 07		 mov	 BYTE PTR [rax+4448], 7

; 3446 :             dev->tapedispflags = TAPEDISPFLG_REQAUTOMNT;

  00306	48 8b 84 24 10
	02 00 00	 mov	 rax, QWORD PTR dev$[rsp]
  0030e	c6 80 61 11 00
	00 08		 mov	 BYTE PTR [rax+4449], 8

; 3447 : 
; 3448 :             STRLCPY( dev->tapemsg1, msg1 );

  00315	48 8b 84 24 10
	02 00 00	 mov	 rax, QWORD PTR dev$[rsp]
  0031d	48 05 20 11 00
	00		 add	 rax, 4384		; 00001120H
  00323	41 b8 09 00 00
	00		 mov	 r8d, 9
  00329	48 8d 94 24 d8
	01 00 00	 lea	 rdx, QWORD PTR msg1$[rsp]
  00331	48 8b c8	 mov	 rcx, rax
  00334	ff 15 00 00 00
	00		 call	 QWORD PTR __imp_strlcpy

; 3449 : 
; 3450 :             if (dev->ccwtrace)

  0033a	48 8b 84 24 10
	02 00 00	 mov	 rax, QWORD PTR dev$[rsp]
  00342	8b 80 f8 05 00
	00		 mov	 eax, DWORD PTR [rax+1528]
  00348	c1 e8 0f	 shr	 eax, 15
  0034b	83 e0 01	 and	 eax, 1
  0034e	85 c0		 test	 eax, eax
  00350	0f 84 4f 02 00
	00		 je	 $LN14@load_displ

; 3451 :                 WRMSG(HHC00218, "I", LCSS_DEVNUM, dev->filename, TTYPSTR(dev->tapedevt), dev->tapemsg1 );

  00356	48 8b 84 24 10
	02 00 00	 mov	 rax, QWORD PTR dev$[rsp]
  0035e	0f b6 80 dc 10
	00 00		 movzx	 eax, BYTE PTR [rax+4316]
  00365	83 f8 01	 cmp	 eax, 1
  00368	75 14		 jne	 SHORT $LN44@load_displ
  0036a	48 8d 05 00 00
	00 00		 lea	 rax, OFFSET FLAT:$SG169895
  00371	48 89 84 24 f8
	00 00 00	 mov	 QWORD PTR tv207[rsp], rax
  00379	e9 1e 01 00 00	 jmp	 $LN45@load_displ
$LN44@load_displ:
  0037e	48 8b 84 24 10
	02 00 00	 mov	 rax, QWORD PTR dev$[rsp]
  00386	0f b6 80 dc 10
	00 00		 movzx	 eax, BYTE PTR [rax+4316]
  0038d	83 f8 02	 cmp	 eax, 2
  00390	75 14		 jne	 SHORT $LN42@load_displ
  00392	48 8d 05 00 00
	00 00		 lea	 rax, OFFSET FLAT:$SG169896
  00399	48 89 84 24 f0
	00 00 00	 mov	 QWORD PTR tv206[rsp], rax
  003a1	e9 e6 00 00 00	 jmp	 $LN43@load_displ
$LN42@load_displ:
  003a6	48 8b 84 24 10
	02 00 00	 mov	 rax, QWORD PTR dev$[rsp]
  003ae	0f b6 80 dc 10
	00 00		 movzx	 eax, BYTE PTR [rax+4316]
  003b5	83 f8 03	 cmp	 eax, 3
  003b8	75 14		 jne	 SHORT $LN40@load_displ
  003ba	48 8d 05 00 00
	00 00		 lea	 rax, OFFSET FLAT:$SG169897
  003c1	48 89 84 24 e8
	00 00 00	 mov	 QWORD PTR tv205[rsp], rax
  003c9	e9 ae 00 00 00	 jmp	 $LN41@load_displ
$LN40@load_displ:
  003ce	48 8b 84 24 10
	02 00 00	 mov	 rax, QWORD PTR dev$[rsp]
  003d6	0f b6 80 dc 10
	00 00		 movzx	 eax, BYTE PTR [rax+4316]
  003dd	83 f8 04	 cmp	 eax, 4
  003e0	75 11		 jne	 SHORT $LN38@load_displ
  003e2	48 8d 05 00 00
	00 00		 lea	 rax, OFFSET FLAT:$SG169898
  003e9	48 89 84 24 e0
	00 00 00	 mov	 QWORD PTR tv204[rsp], rax
  003f1	eb 79		 jmp	 SHORT $LN39@load_displ
$LN38@load_displ:
  003f3	48 8b 84 24 10
	02 00 00	 mov	 rax, QWORD PTR dev$[rsp]
  003fb	0f b6 80 dc 10
	00 00		 movzx	 eax, BYTE PTR [rax+4316]
  00402	83 f8 05	 cmp	 eax, 5
  00405	75 11		 jne	 SHORT $LN36@load_displ
  00407	48 8d 05 00 00
	00 00		 lea	 rax, OFFSET FLAT:$SG169899
  0040e	48 89 84 24 d8
	00 00 00	 mov	 QWORD PTR tv203[rsp], rax
  00416	eb 44		 jmp	 SHORT $LN37@load_displ
$LN36@load_displ:
  00418	48 8b 84 24 10
	02 00 00	 mov	 rax, QWORD PTR dev$[rsp]
  00420	0f b6 80 dc 10
	00 00		 movzx	 eax, BYTE PTR [rax+4316]
  00427	83 f8 06	 cmp	 eax, 6
  0042a	75 11		 jne	 SHORT $LN34@load_displ
  0042c	48 8d 05 00 00
	00 00		 lea	 rax, OFFSET FLAT:$SG169900
  00433	48 89 84 24 d0
	00 00 00	 mov	 QWORD PTR tv202[rsp], rax
  0043b	eb 0f		 jmp	 SHORT $LN35@load_displ
$LN34@load_displ:
  0043d	48 8d 05 00 00
	00 00		 lea	 rax, OFFSET FLAT:$SG169901
  00444	48 89 84 24 d0
	00 00 00	 mov	 QWORD PTR tv202[rsp], rax
$LN35@load_displ:
  0044c	48 8b 84 24 d0
	00 00 00	 mov	 rax, QWORD PTR tv202[rsp]
  00454	48 89 84 24 d8
	00 00 00	 mov	 QWORD PTR tv203[rsp], rax
$LN37@load_displ:
  0045c	48 8b 84 24 d8
	00 00 00	 mov	 rax, QWORD PTR tv203[rsp]
  00464	48 89 84 24 e0
	00 00 00	 mov	 QWORD PTR tv204[rsp], rax
$LN39@load_displ:
  0046c	48 8b 84 24 e0
	00 00 00	 mov	 rax, QWORD PTR tv204[rsp]
  00474	48 89 84 24 e8
	00 00 00	 mov	 QWORD PTR tv205[rsp], rax
$LN41@load_displ:
  0047c	48 8b 84 24 e8
	00 00 00	 mov	 rax, QWORD PTR tv205[rsp]
  00484	48 89 84 24 f0
	00 00 00	 mov	 QWORD PTR tv206[rsp], rax
$LN43@load_displ:
  0048c	48 8b 84 24 f0
	00 00 00	 mov	 rax, QWORD PTR tv206[rsp]
  00494	48 89 84 24 f8
	00 00 00	 mov	 QWORD PTR tv207[rsp], rax
$LN45@load_displ:
  0049c	48 83 bc 24 10
	02 00 00 00	 cmp	 QWORD PTR dev$[rsp], 0
  004a5	74 15		 je	 SHORT $LN46@load_displ
  004a7	48 8b 84 24 10
	02 00 00	 mov	 rax, QWORD PTR dev$[rsp]
  004af	0f b7 40 48	 movzx	 eax, WORD PTR [rax+72]
  004b3	89 84 24 8c 00
	00 00		 mov	 DWORD PTR tv214[rsp], eax
  004ba	eb 0b		 jmp	 SHORT $LN47@load_displ
$LN46@load_displ:
  004bc	c7 84 24 8c 00
	00 00 00 00 00
	00		 mov	 DWORD PTR tv214[rsp], 0
$LN47@load_displ:
  004c7	48 83 bc 24 10
	02 00 00 00	 cmp	 QWORD PTR dev$[rsp], 0
  004d0	74 17		 je	 SHORT $LN48@load_displ
  004d2	48 8b 84 24 10
	02 00 00	 mov	 rax, QWORD PTR dev$[rsp]
  004da	0f b7 40 44	 movzx	 eax, WORD PTR [rax+68]
  004de	d1 f8		 sar	 eax, 1
  004e0	89 84 24 90 00
	00 00		 mov	 DWORD PTR tv220[rsp], eax
  004e7	eb 0b		 jmp	 SHORT $LN49@load_displ
$LN48@load_displ:
  004e9	c7 84 24 90 00
	00 00 00 00 00
	00		 mov	 DWORD PTR tv220[rsp], 0
$LN49@load_displ:
  004f4	48 8b 84 24 10
	02 00 00	 mov	 rax, QWORD PTR dev$[rsp]
  004fc	48 05 20 11 00
	00		 add	 rax, 4384		; 00001120H
  00502	48 89 84 24 90
	01 00 00	 mov	 QWORD PTR tv182[rsp], rax
  0050a	48 8b 8c 24 10
	02 00 00	 mov	 rcx, QWORD PTR dev$[rsp]
  00512	48 81 c1 a4 00
	00 00		 add	 rcx, 164		; 000000a4H
  00519	48 89 8c 24 98
	01 00 00	 mov	 QWORD PTR tv209[rsp], rcx
  00521	b9 01 00 00 00	 mov	 ecx, 1
  00526	ff 15 00 00 00
	00		 call	 QWORD PTR __imp___acrt_iob_func
  0052c	48 8b 8c 24 90
	01 00 00	 mov	 rcx, QWORD PTR tv182[rsp]
  00534	48 89 4c 24 58	 mov	 QWORD PTR [rsp+88], rcx
  00539	48 8b 8c 24 f8
	00 00 00	 mov	 rcx, QWORD PTR tv207[rsp]
  00541	48 89 4c 24 50	 mov	 QWORD PTR [rsp+80], rcx
  00546	48 8b 8c 24 98
	01 00 00	 mov	 rcx, QWORD PTR tv209[rsp]
  0054e	48 89 4c 24 48	 mov	 QWORD PTR [rsp+72], rcx
  00553	8b 8c 24 8c 00
	00 00		 mov	 ecx, DWORD PTR tv214[rsp]
  0055a	89 4c 24 40	 mov	 DWORD PTR [rsp+64], ecx
  0055e	8b 8c 24 90 00
	00 00		 mov	 ecx, DWORD PTR tv220[rsp]
  00565	89 4c 24 38	 mov	 DWORD PTR [rsp+56], ecx
  00569	48 8d 0d 00 00
	00 00		 lea	 rcx, OFFSET FLAT:$SG169902
  00570	48 89 4c 24 30	 mov	 QWORD PTR [rsp+48], rcx
  00575	48 8d 0d 00 00
	00 00		 lea	 rcx, OFFSET FLAT:$SG169903
  0057c	48 89 4c 24 28	 mov	 QWORD PTR [rsp+40], rcx
  00581	48 89 44 24 20	 mov	 QWORD PTR [rsp+32], rax
  00586	41 b9 03 00 00
	00		 mov	 r9d, 3
  0058c	4c 8d 05 00 00
	00 00		 lea	 r8, OFFSET FLAT:$SG169904
  00593	ba 7b 0d 00 00	 mov	 edx, 3451		; 00000d7bH
  00598	48 8d 0d 00 00
	00 00		 lea	 rcx, OFFSET FLAT:$SG169905
  0059f	ff 15 00 00 00
	00		 call	 QWORD PTR __imp_fwritemsg
$LN14@load_displ:
$LN13@load_displ:

; 3452 :         }
; 3453 : 
; 3454 :         break;

  005a5	e9 9c 08 00 00	 jmp	 $LN8@load_displ
$LN15@load_displ:

; 3455 : 
; 3456 :     case FCB_FS_MOUNT:       // 0x40
; 3457 : 
; 3458 :         /*
; 3459 :         || 010b: "The message specified in bytes 1-8 is maintained
; 3460 :         ||       until the drive is next loaded. If the drive is
; 3461 :         ||       loaded when the Load Display command is received,
; 3462 :         ||       the display will contain the message that existed
; 3463 :         ||       prior to the receipt of the command."
; 3464 :         */
; 3465 : 
; 3466 :         dev->tapedispflags = 0;

  005aa	48 8b 84 24 10
	02 00 00	 mov	 rax, QWORD PTR dev$[rsp]
  005b2	c6 80 61 11 00
	00 00		 mov	 BYTE PTR [rax+4449], 0

; 3467 : 
; 3468 :         if ( !tapeloaded )

  005b9	0f b6 44 24 78	 movzx	 eax, BYTE PTR tapeloaded$[rsp]
  005be	85 c0		 test	 eax, eax
  005c0	0f 85 ae 02 00
	00		 jne	 $LN16@load_displ

; 3469 :         {
; 3470 :             dev->tapedisptype  = TAPEDISPTYP_MOUNT;

  005c6	48 8b 84 24 10
	02 00 00	 mov	 rax, QWORD PTR dev$[rsp]
  005ce	c6 80 60 11 00
	00 06		 mov	 BYTE PTR [rax+4448], 6

; 3471 :             dev->tapedispflags = TAPEDISPFLG_REQAUTOMNT;

  005d5	48 8b 84 24 10
	02 00 00	 mov	 rax, QWORD PTR dev$[rsp]
  005dd	c6 80 61 11 00
	00 08		 mov	 BYTE PTR [rax+4449], 8

; 3472 : 
; 3473 :             STRLCPY( dev->tapemsg1, msg1 );

  005e4	48 8b 84 24 10
	02 00 00	 mov	 rax, QWORD PTR dev$[rsp]
  005ec	48 05 20 11 00
	00		 add	 rax, 4384		; 00001120H
  005f2	41 b8 09 00 00
	00		 mov	 r8d, 9
  005f8	48 8d 94 24 d8
	01 00 00	 lea	 rdx, QWORD PTR msg1$[rsp]
  00600	48 8b c8	 mov	 rcx, rax
  00603	ff 15 00 00 00
	00		 call	 QWORD PTR __imp_strlcpy

; 3474 : 
; 3475 :             if (dev->ccwtrace)

  00609	48 8b 84 24 10
	02 00 00	 mov	 rax, QWORD PTR dev$[rsp]
  00611	8b 80 f8 05 00
	00		 mov	 eax, DWORD PTR [rax+1528]
  00617	c1 e8 0f	 shr	 eax, 15
  0061a	83 e0 01	 and	 eax, 1
  0061d	85 c0		 test	 eax, eax
  0061f	0f 84 4f 02 00
	00		 je	 $LN17@load_displ

; 3476 :                 WRMSG(HHC00218, "I", LCSS_DEVNUM, dev->filename, TTYPSTR(dev->tapedevt), dev->tapemsg1 );

  00625	48 8b 84 24 10
	02 00 00	 mov	 rax, QWORD PTR dev$[rsp]
  0062d	0f b6 80 dc 10
	00 00		 movzx	 eax, BYTE PTR [rax+4316]
  00634	83 f8 01	 cmp	 eax, 1
  00637	75 14		 jne	 SHORT $LN60@load_displ
  00639	48 8d 05 00 00
	00 00		 lea	 rax, OFFSET FLAT:$SG169909
  00640	48 89 84 24 28
	01 00 00	 mov	 QWORD PTR tv269[rsp], rax
  00648	e9 1e 01 00 00	 jmp	 $LN61@load_displ
$LN60@load_displ:
  0064d	48 8b 84 24 10
	02 00 00	 mov	 rax, QWORD PTR dev$[rsp]
  00655	0f b6 80 dc 10
	00 00		 movzx	 eax, BYTE PTR [rax+4316]
  0065c	83 f8 02	 cmp	 eax, 2
  0065f	75 14		 jne	 SHORT $LN58@load_displ
  00661	48 8d 05 00 00
	00 00		 lea	 rax, OFFSET FLAT:$SG169910
  00668	48 89 84 24 20
	01 00 00	 mov	 QWORD PTR tv268[rsp], rax
  00670	e9 e6 00 00 00	 jmp	 $LN59@load_displ
$LN58@load_displ:
  00675	48 8b 84 24 10
	02 00 00	 mov	 rax, QWORD PTR dev$[rsp]
  0067d	0f b6 80 dc 10
	00 00		 movzx	 eax, BYTE PTR [rax+4316]
  00684	83 f8 03	 cmp	 eax, 3
  00687	75 14		 jne	 SHORT $LN56@load_displ
  00689	48 8d 05 00 00
	00 00		 lea	 rax, OFFSET FLAT:$SG169911
  00690	48 89 84 24 18
	01 00 00	 mov	 QWORD PTR tv267[rsp], rax
  00698	e9 ae 00 00 00	 jmp	 $LN57@load_displ
$LN56@load_displ:
  0069d	48 8b 84 24 10
	02 00 00	 mov	 rax, QWORD PTR dev$[rsp]
  006a5	0f b6 80 dc 10
	00 00		 movzx	 eax, BYTE PTR [rax+4316]
  006ac	83 f8 04	 cmp	 eax, 4
  006af	75 11		 jne	 SHORT $LN54@load_displ
  006b1	48 8d 05 00 00
	00 00		 lea	 rax, OFFSET FLAT:$SG169912
  006b8	48 89 84 24 10
	01 00 00	 mov	 QWORD PTR tv266[rsp], rax
  006c0	eb 79		 jmp	 SHORT $LN55@load_displ
$LN54@load_displ:
  006c2	48 8b 84 24 10
	02 00 00	 mov	 rax, QWORD PTR dev$[rsp]
  006ca	0f b6 80 dc 10
	00 00		 movzx	 eax, BYTE PTR [rax+4316]
  006d1	83 f8 05	 cmp	 eax, 5
  006d4	75 11		 jne	 SHORT $LN52@load_displ
  006d6	48 8d 05 00 00
	00 00		 lea	 rax, OFFSET FLAT:$SG169913
  006dd	48 89 84 24 08
	01 00 00	 mov	 QWORD PTR tv265[rsp], rax
  006e5	eb 44		 jmp	 SHORT $LN53@load_displ
$LN52@load_displ:
  006e7	48 8b 84 24 10
	02 00 00	 mov	 rax, QWORD PTR dev$[rsp]
  006ef	0f b6 80 dc 10
	00 00		 movzx	 eax, BYTE PTR [rax+4316]
  006f6	83 f8 06	 cmp	 eax, 6
  006f9	75 11		 jne	 SHORT $LN50@load_displ
  006fb	48 8d 05 00 00
	00 00		 lea	 rax, OFFSET FLAT:$SG169914
  00702	48 89 84 24 00
	01 00 00	 mov	 QWORD PTR tv264[rsp], rax
  0070a	eb 0f		 jmp	 SHORT $LN51@load_displ
$LN50@load_displ:
  0070c	48 8d 05 00 00
	00 00		 lea	 rax, OFFSET FLAT:$SG169915
  00713	48 89 84 24 00
	01 00 00	 mov	 QWORD PTR tv264[rsp], rax
$LN51@load_displ:
  0071b	48 8b 84 24 00
	01 00 00	 mov	 rax, QWORD PTR tv264[rsp]
  00723	48 89 84 24 08
	01 00 00	 mov	 QWORD PTR tv265[rsp], rax
$LN53@load_displ:
  0072b	48 8b 84 24 08
	01 00 00	 mov	 rax, QWORD PTR tv265[rsp]
  00733	48 89 84 24 10
	01 00 00	 mov	 QWORD PTR tv266[rsp], rax
$LN55@load_displ:
  0073b	48 8b 84 24 10
	01 00 00	 mov	 rax, QWORD PTR tv266[rsp]
  00743	48 89 84 24 18
	01 00 00	 mov	 QWORD PTR tv267[rsp], rax
$LN57@load_displ:
  0074b	48 8b 84 24 18
	01 00 00	 mov	 rax, QWORD PTR tv267[rsp]
  00753	48 89 84 24 20
	01 00 00	 mov	 QWORD PTR tv268[rsp], rax
$LN59@load_displ:
  0075b	48 8b 84 24 20
	01 00 00	 mov	 rax, QWORD PTR tv268[rsp]
  00763	48 89 84 24 28
	01 00 00	 mov	 QWORD PTR tv269[rsp], rax
$LN61@load_displ:
  0076b	48 83 bc 24 10
	02 00 00 00	 cmp	 QWORD PTR dev$[rsp], 0
  00774	74 15		 je	 SHORT $LN62@load_displ
  00776	48 8b 84 24 10
	02 00 00	 mov	 rax, QWORD PTR dev$[rsp]
  0077e	0f b7 40 48	 movzx	 eax, WORD PTR [rax+72]
  00782	89 84 24 94 00
	00 00		 mov	 DWORD PTR tv276[rsp], eax
  00789	eb 0b		 jmp	 SHORT $LN63@load_displ
$LN62@load_displ:
  0078b	c7 84 24 94 00
	00 00 00 00 00
	00		 mov	 DWORD PTR tv276[rsp], 0
$LN63@load_displ:
  00796	48 83 bc 24 10
	02 00 00 00	 cmp	 QWORD PTR dev$[rsp], 0
  0079f	74 17		 je	 SHORT $LN64@load_displ
  007a1	48 8b 84 24 10
	02 00 00	 mov	 rax, QWORD PTR dev$[rsp]
  007a9	0f b7 40 44	 movzx	 eax, WORD PTR [rax+68]
  007ad	d1 f8		 sar	 eax, 1
  007af	89 84 24 98 00
	00 00		 mov	 DWORD PTR tv282[rsp], eax
  007b6	eb 0b		 jmp	 SHORT $LN65@load_displ
$LN64@load_displ:
  007b8	c7 84 24 98 00
	00 00 00 00 00
	00		 mov	 DWORD PTR tv282[rsp], 0
$LN65@load_displ:
  007c3	48 8b 84 24 10
	02 00 00	 mov	 rax, QWORD PTR dev$[rsp]
  007cb	48 05 20 11 00
	00		 add	 rax, 4384		; 00001120H
  007d1	48 89 84 24 a0
	01 00 00	 mov	 QWORD PTR tv244[rsp], rax
  007d9	48 8b 8c 24 10
	02 00 00	 mov	 rcx, QWORD PTR dev$[rsp]
  007e1	48 81 c1 a4 00
	00 00		 add	 rcx, 164		; 000000a4H
  007e8	48 89 8c 24 a8
	01 00 00	 mov	 QWORD PTR tv271[rsp], rcx
  007f0	b9 01 00 00 00	 mov	 ecx, 1
  007f5	ff 15 00 00 00
	00		 call	 QWORD PTR __imp___acrt_iob_func
  007fb	48 8b 8c 24 a0
	01 00 00	 mov	 rcx, QWORD PTR tv244[rsp]
  00803	48 89 4c 24 58	 mov	 QWORD PTR [rsp+88], rcx
  00808	48 8b 8c 24 28
	01 00 00	 mov	 rcx, QWORD PTR tv269[rsp]
  00810	48 89 4c 24 50	 mov	 QWORD PTR [rsp+80], rcx
  00815	48 8b 8c 24 a8
	01 00 00	 mov	 rcx, QWORD PTR tv271[rsp]
  0081d	48 89 4c 24 48	 mov	 QWORD PTR [rsp+72], rcx
  00822	8b 8c 24 94 00
	00 00		 mov	 ecx, DWORD PTR tv276[rsp]
  00829	89 4c 24 40	 mov	 DWORD PTR [rsp+64], ecx
  0082d	8b 8c 24 98 00
	00 00		 mov	 ecx, DWORD PTR tv282[rsp]
  00834	89 4c 24 38	 mov	 DWORD PTR [rsp+56], ecx
  00838	48 8d 0d 00 00
	00 00		 lea	 rcx, OFFSET FLAT:$SG169916
  0083f	48 89 4c 24 30	 mov	 QWORD PTR [rsp+48], rcx
  00844	48 8d 0d 00 00
	00 00		 lea	 rcx, OFFSET FLAT:$SG169917
  0084b	48 89 4c 24 28	 mov	 QWORD PTR [rsp+40], rcx
  00850	48 89 44 24 20	 mov	 QWORD PTR [rsp+32], rax
  00855	41 b9 03 00 00
	00		 mov	 r9d, 3
  0085b	4c 8d 05 00 00
	00 00		 lea	 r8, OFFSET FLAT:$SG169918
  00862	ba 94 0d 00 00	 mov	 edx, 3476		; 00000d94H
  00867	48 8d 0d 00 00
	00 00		 lea	 rcx, OFFSET FLAT:$SG169919
  0086e	ff 15 00 00 00
	00		 call	 QWORD PTR __imp_fwritemsg
$LN17@load_displ:
$LN16@load_displ:

; 3477 :         }
; 3478 : 
; 3479 :         break;

  00874	e9 cd 05 00 00	 jmp	 $LN8@load_displ
$LN18@load_displ:
$LN19@load_displ:

; 3480 : 
; 3481 :     case FCB_FS_NOP:         // 0x60
; 3482 :     default:
; 3483 : 
; 3484 :         /*
; 3485 :         || 011b: "This value is used to physically access a drive
; 3486 :         ||       without changing the message display. This option
; 3487 :         ||       can be used to test whether a control unit can
; 3488 :         ||       physically communicate with a drive."
; 3489 :         */
; 3490 : 
; 3491 :         return rc;

  00879	8b 44 24 7c	 mov	 eax, DWORD PTR rc$[rsp]
  0087d	e9 6d 07 00 00	 jmp	 $LN1@load_displ
$LN20@load_displ:

; 3492 : 
; 3493 :     case FCB_FS_RESET_DISPLAY: // 0x80
; 3494 : 
; 3495 :         /*
; 3496 :         || 100b: "The host message being displayed is cancelled and
; 3497 :         ||       a unit message is displayed instead."
; 3498 :         */
; 3499 : 
; 3500 :         dev->tapedispflags = 0;

  00882	48 8b 84 24 10
	02 00 00	 mov	 rax, QWORD PTR dev$[rsp]
  0088a	c6 80 61 11 00
	00 00		 mov	 BYTE PTR [rax+4449], 0

; 3501 :         dev->tapedisptype  = TAPEDISPTYP_IDLE;

  00891	48 8b 84 24 10
	02 00 00	 mov	 rax, QWORD PTR dev$[rsp]
  00899	c6 80 60 11 00
	00 00		 mov	 BYTE PTR [rax+4448], 0

; 3502 : 
; 3503 :         break;

  008a0	e9 a1 05 00 00	 jmp	 $LN8@load_displ
$LN21@load_displ:

; 3504 : 
; 3505 :     case FCB_FS_UMOUNTMOUNT: // 0xE0
; 3506 : 
; 3507 :         /*
; 3508 :         || 111b: "The message in bytes 1-8 is displayed until a tape
; 3509 :         ||       cartridge is physically removed from the tape drive,
; 3510 :         ||       or until the drive is next loaded. The message in
; 3511 :         ||       bytes 9-16 is displayed until the drive is next loaded.
; 3512 :         ||       If no cartridge is present in the drive, the first
; 3513 :         ||       message is ignored and only the second message is
; 3514 :         ||       displayed until the drive is next loaded."
; 3515 :         */
; 3516 : 
; 3517 :         dev->tapedispflags = 0;

  008a5	48 8b 84 24 10
	02 00 00	 mov	 rax, QWORD PTR dev$[rsp]
  008ad	c6 80 61 11 00
	00 00		 mov	 BYTE PTR [rax+4449], 0

; 3518 : 
; 3519 :         STRLCPY( dev->tapemsg1, msg1 );

  008b4	48 8b 84 24 10
	02 00 00	 mov	 rax, QWORD PTR dev$[rsp]
  008bc	48 05 20 11 00
	00		 add	 rax, 4384		; 00001120H
  008c2	41 b8 09 00 00
	00		 mov	 r8d, 9
  008c8	48 8d 94 24 d8
	01 00 00	 lea	 rdx, QWORD PTR msg1$[rsp]
  008d0	48 8b c8	 mov	 rcx, rax
  008d3	ff 15 00 00 00
	00		 call	 QWORD PTR __imp_strlcpy

; 3520 :         STRLCPY( dev->tapemsg2, msg2 );

  008d9	48 8b 84 24 10
	02 00 00	 mov	 rax, QWORD PTR dev$[rsp]
  008e1	48 05 29 11 00
	00		 add	 rax, 4393		; 00001129H
  008e7	41 b8 09 00 00
	00		 mov	 r8d, 9
  008ed	48 8d 94 24 e8
	01 00 00	 lea	 rdx, QWORD PTR msg2$[rsp]
  008f5	48 8b c8	 mov	 rcx, rax
  008f8	ff 15 00 00 00
	00		 call	 QWORD PTR __imp_strlcpy

; 3521 : 
; 3522 :         if ( tapeloaded )

  008fe	0f b6 44 24 78	 movzx	 eax, BYTE PTR tapeloaded$[rsp]
  00903	85 c0		 test	 eax, eax
  00905	0f 84 b2 02 00
	00		 je	 $LN22@load_displ

; 3523 :         {
; 3524 :             dev->tapedisptype  = TAPEDISPTYP_UMOUNTMOUNT;

  0090b	48 8b 84 24 10
	02 00 00	 mov	 rax, QWORD PTR dev$[rsp]
  00913	c6 80 60 11 00
	00 08		 mov	 BYTE PTR [rax+4448], 8

; 3525 :             dev->tapedispflags = TAPEDISPFLG_REQAUTOMNT;

  0091a	48 8b 84 24 10
	02 00 00	 mov	 rax, QWORD PTR dev$[rsp]
  00922	c6 80 61 11 00
	00 08		 mov	 BYTE PTR [rax+4449], 8

; 3526 : 
; 3527 :             if (dev->ccwtrace)

  00929	48 8b 84 24 10
	02 00 00	 mov	 rax, QWORD PTR dev$[rsp]
  00931	8b 80 f8 05 00
	00		 mov	 eax, DWORD PTR [rax+1528]
  00937	c1 e8 0f	 shr	 eax, 15
  0093a	83 e0 01	 and	 eax, 1
  0093d	85 c0		 test	 eax, eax
  0093f	0f 84 73 02 00
	00		 je	 $LN24@load_displ

; 3528 :                 WRMSG(HHC00219, "I", LCSS_DEVNUM, dev->filename, TTYPSTR(dev->tapedevt), dev->tapemsg1, dev->tapemsg2 );

  00945	48 8b 84 24 10
	02 00 00	 mov	 rax, QWORD PTR dev$[rsp]
  0094d	0f b6 80 dc 10
	00 00		 movzx	 eax, BYTE PTR [rax+4316]
  00954	83 f8 01	 cmp	 eax, 1
  00957	75 14		 jne	 SHORT $LN76@load_displ
  00959	48 8d 05 00 00
	00 00		 lea	 rax, OFFSET FLAT:$SG169927
  00960	48 89 84 24 58
	01 00 00	 mov	 QWORD PTR tv339[rsp], rax
  00968	e9 1e 01 00 00	 jmp	 $LN77@load_displ
$LN76@load_displ:
  0096d	48 8b 84 24 10
	02 00 00	 mov	 rax, QWORD PTR dev$[rsp]
  00975	0f b6 80 dc 10
	00 00		 movzx	 eax, BYTE PTR [rax+4316]
  0097c	83 f8 02	 cmp	 eax, 2
  0097f	75 14		 jne	 SHORT $LN74@load_displ
  00981	48 8d 05 00 00
	00 00		 lea	 rax, OFFSET FLAT:$SG169928
  00988	48 89 84 24 50
	01 00 00	 mov	 QWORD PTR tv338[rsp], rax
  00990	e9 e6 00 00 00	 jmp	 $LN75@load_displ
$LN74@load_displ:
  00995	48 8b 84 24 10
	02 00 00	 mov	 rax, QWORD PTR dev$[rsp]
  0099d	0f b6 80 dc 10
	00 00		 movzx	 eax, BYTE PTR [rax+4316]
  009a4	83 f8 03	 cmp	 eax, 3
  009a7	75 14		 jne	 SHORT $LN72@load_displ
  009a9	48 8d 05 00 00
	00 00		 lea	 rax, OFFSET FLAT:$SG169929
  009b0	48 89 84 24 48
	01 00 00	 mov	 QWORD PTR tv337[rsp], rax
  009b8	e9 ae 00 00 00	 jmp	 $LN73@load_displ
$LN72@load_displ:
  009bd	48 8b 84 24 10
	02 00 00	 mov	 rax, QWORD PTR dev$[rsp]
  009c5	0f b6 80 dc 10
	00 00		 movzx	 eax, BYTE PTR [rax+4316]
  009cc	83 f8 04	 cmp	 eax, 4
  009cf	75 11		 jne	 SHORT $LN70@load_displ
  009d1	48 8d 05 00 00
	00 00		 lea	 rax, OFFSET FLAT:$SG169930
  009d8	48 89 84 24 40
	01 00 00	 mov	 QWORD PTR tv336[rsp], rax
  009e0	eb 79		 jmp	 SHORT $LN71@load_displ
$LN70@load_displ:
  009e2	48 8b 84 24 10
	02 00 00	 mov	 rax, QWORD PTR dev$[rsp]
  009ea	0f b6 80 dc 10
	00 00		 movzx	 eax, BYTE PTR [rax+4316]
  009f1	83 f8 05	 cmp	 eax, 5
  009f4	75 11		 jne	 SHORT $LN68@load_displ
  009f6	48 8d 05 00 00
	00 00		 lea	 rax, OFFSET FLAT:$SG169931
  009fd	48 89 84 24 38
	01 00 00	 mov	 QWORD PTR tv335[rsp], rax
  00a05	eb 44		 jmp	 SHORT $LN69@load_displ
$LN68@load_displ:
  00a07	48 8b 84 24 10
	02 00 00	 mov	 rax, QWORD PTR dev$[rsp]
  00a0f	0f b6 80 dc 10
	00 00		 movzx	 eax, BYTE PTR [rax+4316]
  00a16	83 f8 06	 cmp	 eax, 6
  00a19	75 11		 jne	 SHORT $LN66@load_displ
  00a1b	48 8d 05 00 00
	00 00		 lea	 rax, OFFSET FLAT:$SG169932
  00a22	48 89 84 24 30
	01 00 00	 mov	 QWORD PTR tv334[rsp], rax
  00a2a	eb 0f		 jmp	 SHORT $LN67@load_displ
$LN66@load_displ:
  00a2c	48 8d 05 00 00
	00 00		 lea	 rax, OFFSET FLAT:$SG169933
  00a33	48 89 84 24 30
	01 00 00	 mov	 QWORD PTR tv334[rsp], rax
$LN67@load_displ:
  00a3b	48 8b 84 24 30
	01 00 00	 mov	 rax, QWORD PTR tv334[rsp]
  00a43	48 89 84 24 38
	01 00 00	 mov	 QWORD PTR tv335[rsp], rax
$LN69@load_displ:
  00a4b	48 8b 84 24 38
	01 00 00	 mov	 rax, QWORD PTR tv335[rsp]
  00a53	48 89 84 24 40
	01 00 00	 mov	 QWORD PTR tv336[rsp], rax
$LN71@load_displ:
  00a5b	48 8b 84 24 40
	01 00 00	 mov	 rax, QWORD PTR tv336[rsp]
  00a63	48 89 84 24 48
	01 00 00	 mov	 QWORD PTR tv337[rsp], rax
$LN73@load_displ:
  00a6b	48 8b 84 24 48
	01 00 00	 mov	 rax, QWORD PTR tv337[rsp]
  00a73	48 89 84 24 50
	01 00 00	 mov	 QWORD PTR tv338[rsp], rax
$LN75@load_displ:
  00a7b	48 8b 84 24 50
	01 00 00	 mov	 rax, QWORD PTR tv338[rsp]
  00a83	48 89 84 24 58
	01 00 00	 mov	 QWORD PTR tv339[rsp], rax
$LN77@load_displ:
  00a8b	48 83 bc 24 10
	02 00 00 00	 cmp	 QWORD PTR dev$[rsp], 0
  00a94	74 15		 je	 SHORT $LN78@load_displ
  00a96	48 8b 84 24 10
	02 00 00	 mov	 rax, QWORD PTR dev$[rsp]
  00a9e	0f b7 40 48	 movzx	 eax, WORD PTR [rax+72]
  00aa2	89 84 24 9c 00
	00 00		 mov	 DWORD PTR tv346[rsp], eax
  00aa9	eb 0b		 jmp	 SHORT $LN79@load_displ
$LN78@load_displ:
  00aab	c7 84 24 9c 00
	00 00 00 00 00
	00		 mov	 DWORD PTR tv346[rsp], 0
$LN79@load_displ:
  00ab6	48 83 bc 24 10
	02 00 00 00	 cmp	 QWORD PTR dev$[rsp], 0
  00abf	74 17		 je	 SHORT $LN80@load_displ
  00ac1	48 8b 84 24 10
	02 00 00	 mov	 rax, QWORD PTR dev$[rsp]
  00ac9	0f b7 40 44	 movzx	 eax, WORD PTR [rax+68]
  00acd	d1 f8		 sar	 eax, 1
  00acf	89 84 24 a0 00
	00 00		 mov	 DWORD PTR tv352[rsp], eax
  00ad6	eb 0b		 jmp	 SHORT $LN81@load_displ
$LN80@load_displ:
  00ad8	c7 84 24 a0 00
	00 00 00 00 00
	00		 mov	 DWORD PTR tv352[rsp], 0
$LN81@load_displ:
  00ae3	48 8b 84 24 10
	02 00 00	 mov	 rax, QWORD PTR dev$[rsp]
  00aeb	48 05 29 11 00
	00		 add	 rax, 4393		; 00001129H
  00af1	48 89 84 24 b0
	01 00 00	 mov	 QWORD PTR tv312[rsp], rax
  00af9	48 8b 8c 24 10
	02 00 00	 mov	 rcx, QWORD PTR dev$[rsp]
  00b01	48 81 c1 20 11
	00 00		 add	 rcx, 4384		; 00001120H
  00b08	48 89 8c 24 b8
	01 00 00	 mov	 QWORD PTR tv314[rsp], rcx
  00b10	48 8b 94 24 10
	02 00 00	 mov	 rdx, QWORD PTR dev$[rsp]
  00b18	48 81 c2 a4 00
	00 00		 add	 rdx, 164		; 000000a4H
  00b1f	48 89 94 24 c0
	01 00 00	 mov	 QWORD PTR tv341[rsp], rdx
  00b27	b9 01 00 00 00	 mov	 ecx, 1
  00b2c	ff 15 00 00 00
	00		 call	 QWORD PTR __imp___acrt_iob_func
  00b32	48 8b 8c 24 b0
	01 00 00	 mov	 rcx, QWORD PTR tv312[rsp]
  00b3a	48 89 4c 24 60	 mov	 QWORD PTR [rsp+96], rcx
  00b3f	48 8b 8c 24 b8
	01 00 00	 mov	 rcx, QWORD PTR tv314[rsp]
  00b47	48 89 4c 24 58	 mov	 QWORD PTR [rsp+88], rcx
  00b4c	48 8b 8c 24 58
	01 00 00	 mov	 rcx, QWORD PTR tv339[rsp]
  00b54	48 89 4c 24 50	 mov	 QWORD PTR [rsp+80], rcx
  00b59	48 8b 8c 24 c0
	01 00 00	 mov	 rcx, QWORD PTR tv341[rsp]
  00b61	48 89 4c 24 48	 mov	 QWORD PTR [rsp+72], rcx
  00b66	8b 8c 24 9c 00
	00 00		 mov	 ecx, DWORD PTR tv346[rsp]
  00b6d	89 4c 24 40	 mov	 DWORD PTR [rsp+64], ecx
  00b71	8b 8c 24 a0 00
	00 00		 mov	 ecx, DWORD PTR tv352[rsp]
  00b78	89 4c 24 38	 mov	 DWORD PTR [rsp+56], ecx
  00b7c	48 8d 0d 00 00
	00 00		 lea	 rcx, OFFSET FLAT:$SG169934
  00b83	48 89 4c 24 30	 mov	 QWORD PTR [rsp+48], rcx
  00b88	48 8d 0d 00 00
	00 00		 lea	 rcx, OFFSET FLAT:$SG169935
  00b8f	48 89 4c 24 28	 mov	 QWORD PTR [rsp+40], rcx
  00b94	48 89 44 24 20	 mov	 QWORD PTR [rsp+32], rax
  00b99	41 b9 03 00 00
	00		 mov	 r9d, 3
  00b9f	4c 8d 05 00 00
	00 00		 lea	 r8, OFFSET FLAT:$SG169936
  00ba6	ba c8 0d 00 00	 mov	 edx, 3528		; 00000dc8H
  00bab	48 8d 0d 00 00
	00 00		 lea	 rcx, OFFSET FLAT:$SG169937
  00bb2	ff 15 00 00 00
	00		 call	 QWORD PTR __imp_fwritemsg
$LN24@load_displ:

; 3529 :         }

  00bb8	e9 89 02 00 00	 jmp	 $LN23@load_displ
$LN22@load_displ:

; 3530 :         else
; 3531 :         {
; 3532 :             dev->tapedisptype  = TAPEDISPTYP_MOUNT;

  00bbd	48 8b 84 24 10
	02 00 00	 mov	 rax, QWORD PTR dev$[rsp]
  00bc5	c6 80 60 11 00
	00 06		 mov	 BYTE PTR [rax+4448], 6

; 3533 :             dev->tapedispflags = TAPEDISPFLG_MESSAGE2 | TAPEDISPFLG_REQAUTOMNT;

  00bcc	48 8b 84 24 10
	02 00 00	 mov	 rax, QWORD PTR dev$[rsp]
  00bd4	c6 80 61 11 00
	00 28		 mov	 BYTE PTR [rax+4449], 40	; 00000028H

; 3534 : 
; 3535 :             if (dev->ccwtrace)

  00bdb	48 8b 84 24 10
	02 00 00	 mov	 rax, QWORD PTR dev$[rsp]
  00be3	8b 80 f8 05 00
	00		 mov	 eax, DWORD PTR [rax+1528]
  00be9	c1 e8 0f	 shr	 eax, 15
  00bec	83 e0 01	 and	 eax, 1
  00bef	85 c0		 test	 eax, eax
  00bf1	0f 84 4f 02 00
	00		 je	 $LN25@load_displ

; 3536 :                 WRMSG(HHC00218, "I", LCSS_DEVNUM, dev->filename, TTYPSTR(dev->tapedevt), dev->tapemsg2 );

  00bf7	48 8b 84 24 10
	02 00 00	 mov	 rax, QWORD PTR dev$[rsp]
  00bff	0f b6 80 dc 10
	00 00		 movzx	 eax, BYTE PTR [rax+4316]
  00c06	83 f8 01	 cmp	 eax, 1
  00c09	75 14		 jne	 SHORT $LN92@load_displ
  00c0b	48 8d 05 00 00
	00 00		 lea	 rax, OFFSET FLAT:$SG169939
  00c12	48 89 84 24 88
	01 00 00	 mov	 QWORD PTR tv426[rsp], rax
  00c1a	e9 1e 01 00 00	 jmp	 $LN93@load_displ
$LN92@load_displ:
  00c1f	48 8b 84 24 10
	02 00 00	 mov	 rax, QWORD PTR dev$[rsp]
  00c27	0f b6 80 dc 10
	00 00		 movzx	 eax, BYTE PTR [rax+4316]
  00c2e	83 f8 02	 cmp	 eax, 2
  00c31	75 14		 jne	 SHORT $LN90@load_displ
  00c33	48 8d 05 00 00
	00 00		 lea	 rax, OFFSET FLAT:$SG169940
  00c3a	48 89 84 24 80
	01 00 00	 mov	 QWORD PTR tv425[rsp], rax
  00c42	e9 e6 00 00 00	 jmp	 $LN91@load_displ
$LN90@load_displ:
  00c47	48 8b 84 24 10
	02 00 00	 mov	 rax, QWORD PTR dev$[rsp]
  00c4f	0f b6 80 dc 10
	00 00		 movzx	 eax, BYTE PTR [rax+4316]
  00c56	83 f8 03	 cmp	 eax, 3
  00c59	75 14		 jne	 SHORT $LN88@load_displ
  00c5b	48 8d 05 00 00
	00 00		 lea	 rax, OFFSET FLAT:$SG169941
  00c62	48 89 84 24 78
	01 00 00	 mov	 QWORD PTR tv424[rsp], rax
  00c6a	e9 ae 00 00 00	 jmp	 $LN89@load_displ
$LN88@load_displ:
  00c6f	48 8b 84 24 10
	02 00 00	 mov	 rax, QWORD PTR dev$[rsp]
  00c77	0f b6 80 dc 10
	00 00		 movzx	 eax, BYTE PTR [rax+4316]
  00c7e	83 f8 04	 cmp	 eax, 4
  00c81	75 11		 jne	 SHORT $LN86@load_displ
  00c83	48 8d 05 00 00
	00 00		 lea	 rax, OFFSET FLAT:$SG169942
  00c8a	48 89 84 24 70
	01 00 00	 mov	 QWORD PTR tv423[rsp], rax
  00c92	eb 79		 jmp	 SHORT $LN87@load_displ
$LN86@load_displ:
  00c94	48 8b 84 24 10
	02 00 00	 mov	 rax, QWORD PTR dev$[rsp]
  00c9c	0f b6 80 dc 10
	00 00		 movzx	 eax, BYTE PTR [rax+4316]
  00ca3	83 f8 05	 cmp	 eax, 5
  00ca6	75 11		 jne	 SHORT $LN84@load_displ
  00ca8	48 8d 05 00 00
	00 00		 lea	 rax, OFFSET FLAT:$SG169943
  00caf	48 89 84 24 68
	01 00 00	 mov	 QWORD PTR tv422[rsp], rax
  00cb7	eb 44		 jmp	 SHORT $LN85@load_displ
$LN84@load_displ:
  00cb9	48 8b 84 24 10
	02 00 00	 mov	 rax, QWORD PTR dev$[rsp]
  00cc1	0f b6 80 dc 10
	00 00		 movzx	 eax, BYTE PTR [rax+4316]
  00cc8	83 f8 06	 cmp	 eax, 6
  00ccb	75 11		 jne	 SHORT $LN82@load_displ
  00ccd	48 8d 05 00 00
	00 00		 lea	 rax, OFFSET FLAT:$SG169944
  00cd4	48 89 84 24 60
	01 00 00	 mov	 QWORD PTR tv421[rsp], rax
  00cdc	eb 0f		 jmp	 SHORT $LN83@load_displ
$LN82@load_displ:
  00cde	48 8d 05 00 00
	00 00		 lea	 rax, OFFSET FLAT:$SG169945
  00ce5	48 89 84 24 60
	01 00 00	 mov	 QWORD PTR tv421[rsp], rax
$LN83@load_displ:
  00ced	48 8b 84 24 60
	01 00 00	 mov	 rax, QWORD PTR tv421[rsp]
  00cf5	48 89 84 24 68
	01 00 00	 mov	 QWORD PTR tv422[rsp], rax
$LN85@load_displ:
  00cfd	48 8b 84 24 68
	01 00 00	 mov	 rax, QWORD PTR tv422[rsp]
  00d05	48 89 84 24 70
	01 00 00	 mov	 QWORD PTR tv423[rsp], rax
$LN87@load_displ:
  00d0d	48 8b 84 24 70
	01 00 00	 mov	 rax, QWORD PTR tv423[rsp]
  00d15	48 89 84 24 78
	01 00 00	 mov	 QWORD PTR tv424[rsp], rax
$LN89@load_displ:
  00d1d	48 8b 84 24 78
	01 00 00	 mov	 rax, QWORD PTR tv424[rsp]
  00d25	48 89 84 24 80
	01 00 00	 mov	 QWORD PTR tv425[rsp], rax
$LN91@load_displ:
  00d2d	48 8b 84 24 80
	01 00 00	 mov	 rax, QWORD PTR tv425[rsp]
  00d35	48 89 84 24 88
	01 00 00	 mov	 QWORD PTR tv426[rsp], rax
$LN93@load_displ:
  00d3d	48 83 bc 24 10
	02 00 00 00	 cmp	 QWORD PTR dev$[rsp], 0
  00d46	74 15		 je	 SHORT $LN94@load_displ
  00d48	48 8b 84 24 10
	02 00 00	 mov	 rax, QWORD PTR dev$[rsp]
  00d50	0f b7 40 48	 movzx	 eax, WORD PTR [rax+72]
  00d54	89 84 24 a4 00
	00 00		 mov	 DWORD PTR tv433[rsp], eax
  00d5b	eb 0b		 jmp	 SHORT $LN95@load_displ
$LN94@load_displ:
  00d5d	c7 84 24 a4 00
	00 00 00 00 00
	00		 mov	 DWORD PTR tv433[rsp], 0
$LN95@load_displ:
  00d68	48 83 bc 24 10
	02 00 00 00	 cmp	 QWORD PTR dev$[rsp], 0
  00d71	74 17		 je	 SHORT $LN96@load_displ
  00d73	48 8b 84 24 10
	02 00 00	 mov	 rax, QWORD PTR dev$[rsp]
  00d7b	0f b7 40 44	 movzx	 eax, WORD PTR [rax+68]
  00d7f	d1 f8		 sar	 eax, 1
  00d81	89 84 24 a8 00
	00 00		 mov	 DWORD PTR tv439[rsp], eax
  00d88	eb 0b		 jmp	 SHORT $LN97@load_displ
$LN96@load_displ:
  00d8a	c7 84 24 a8 00
	00 00 00 00 00
	00		 mov	 DWORD PTR tv439[rsp], 0
$LN97@load_displ:
  00d95	48 8b 84 24 10
	02 00 00	 mov	 rax, QWORD PTR dev$[rsp]
  00d9d	48 05 29 11 00
	00		 add	 rax, 4393		; 00001129H
  00da3	48 89 84 24 c8
	01 00 00	 mov	 QWORD PTR tv369[rsp], rax
  00dab	48 8b 8c 24 10
	02 00 00	 mov	 rcx, QWORD PTR dev$[rsp]
  00db3	48 81 c1 a4 00
	00 00		 add	 rcx, 164		; 000000a4H
  00dba	48 89 8c 24 d0
	01 00 00	 mov	 QWORD PTR tv428[rsp], rcx
  00dc2	b9 01 00 00 00	 mov	 ecx, 1
  00dc7	ff 15 00 00 00
	00		 call	 QWORD PTR __imp___acrt_iob_func
  00dcd	48 8b 8c 24 c8
	01 00 00	 mov	 rcx, QWORD PTR tv369[rsp]
  00dd5	48 89 4c 24 58	 mov	 QWORD PTR [rsp+88], rcx
  00dda	48 8b 8c 24 88
	01 00 00	 mov	 rcx, QWORD PTR tv426[rsp]
  00de2	48 89 4c 24 50	 mov	 QWORD PTR [rsp+80], rcx
  00de7	48 8b 8c 24 d0
	01 00 00	 mov	 rcx, QWORD PTR tv428[rsp]
  00def	48 89 4c 24 48	 mov	 QWORD PTR [rsp+72], rcx
  00df4	8b 8c 24 a4 00
	00 00		 mov	 ecx, DWORD PTR tv433[rsp]
  00dfb	89 4c 24 40	 mov	 DWORD PTR [rsp+64], ecx
  00dff	8b 8c 24 a8 00
	00 00		 mov	 ecx, DWORD PTR tv439[rsp]
  00e06	89 4c 24 38	 mov	 DWORD PTR [rsp+56], ecx
  00e0a	48 8d 0d 00 00
	00 00		 lea	 rcx, OFFSET FLAT:$SG169946
  00e11	48 89 4c 24 30	 mov	 QWORD PTR [rsp+48], rcx
  00e16	48 8d 0d 00 00
	00 00		 lea	 rcx, OFFSET FLAT:$SG169947
  00e1d	48 89 4c 24 28	 mov	 QWORD PTR [rsp+40], rcx
  00e22	48 89 44 24 20	 mov	 QWORD PTR [rsp+32], rax
  00e27	41 b9 03 00 00
	00		 mov	 r9d, 3
  00e2d	4c 8d 05 00 00
	00 00		 lea	 r8, OFFSET FLAT:$SG169948
  00e34	ba d0 0d 00 00	 mov	 edx, 3536		; 00000dd0H
  00e39	48 8d 0d 00 00
	00 00		 lea	 rcx, OFFSET FLAT:$SG169949
  00e40	ff 15 00 00 00
	00		 call	 QWORD PTR __imp_fwritemsg
$LN25@load_displ:
$LN23@load_displ:
$LN8@load_displ:

; 3537 :         }
; 3538 : 
; 3539 :         break;
; 3540 :     }
; 3541 : 
; 3542 :     /* Set the flags... */
; 3543 : 
; 3544 :     /*
; 3545 :         "When bit 7 (FCB_AL) is active and bits 0-2 (FCB_FS) specify
; 3546 :         a Mount Message, then only the first eight characters of the
; 3547 :         message are displayed and bits 3-5 (FCB_AM, FCB_BM, FCB_M2)
; 3548 :         are ignored."
; 3549 :     */
; 3550 :     if (1
; 3551 :         &&   ( fcb & FCB_AL )
; 3552 :         && ( ( fcb & FCB_FS ) == FCB_FS_MOUNT )

  00e46	33 c0		 xor	 eax, eax
  00e48	83 f8 01	 cmp	 eax, 1
  00e4b	74 47		 je	 SHORT $LN26@load_displ
  00e4d	0f b6 44 24 70	 movzx	 eax, BYTE PTR fcb$[rsp]
  00e52	83 e0 01	 and	 eax, 1
  00e55	85 c0		 test	 eax, eax
  00e57	74 3b		 je	 SHORT $LN26@load_displ
  00e59	0f b6 44 24 70	 movzx	 eax, BYTE PTR fcb$[rsp]
  00e5e	25 e0 00 00 00	 and	 eax, 224		; 000000e0H
  00e63	83 f8 40	 cmp	 eax, 64			; 00000040H
  00e66	75 2c		 jne	 SHORT $LN26@load_displ

; 3553 :     )
; 3554 :     {
; 3555 :         fcb  &=  ~( FCB_AM | FCB_BM | FCB_M2 );

  00e68	0f b6 44 24 70	 movzx	 eax, BYTE PTR fcb$[rsp]
  00e6d	83 e0 e3	 and	 eax, -29
  00e70	88 44 24 70	 mov	 BYTE PTR fcb$[rsp], al

; 3556 :         dev->tapedispflags &= ~TAPEDISPFLG_MESSAGE2;

  00e74	48 8b 84 24 10
	02 00 00	 mov	 rax, QWORD PTR dev$[rsp]
  00e7c	0f b6 80 61 11
	00 00		 movzx	 eax, BYTE PTR [rax+4449]
  00e83	83 e0 df	 and	 eax, -33		; ffffffffffffffdfH
  00e86	48 8b 8c 24 10
	02 00 00	 mov	 rcx, QWORD PTR dev$[rsp]
  00e8e	88 81 61 11 00
	00		 mov	 BYTE PTR [rcx+4449], al
$LN26@load_displ:

; 3557 :     }
; 3558 : 
; 3559 :     /*
; 3560 :         "When bit 7 (FCB_AL) is active and bits 0-2 (FCB_FS) specify
; 3561 :         a Demount/Mount message, then only the last eight characters
; 3562 :         of the message are displayed. Bits 3-5 (FCB_AM, FCB_BM, FCB_M2)
; 3563 :         are ignored."
; 3564 :     */
; 3565 :     if (1
; 3566 :         &&   ( fcb & FCB_AL )
; 3567 :         && ( ( fcb & FCB_FS ) == FCB_FS_UMOUNTMOUNT )

  00e94	33 c0		 xor	 eax, eax
  00e96	83 f8 01	 cmp	 eax, 1
  00e99	74 49		 je	 SHORT $LN27@load_displ
  00e9b	0f b6 44 24 70	 movzx	 eax, BYTE PTR fcb$[rsp]
  00ea0	83 e0 01	 and	 eax, 1
  00ea3	85 c0		 test	 eax, eax
  00ea5	74 3d		 je	 SHORT $LN27@load_displ
  00ea7	0f b6 44 24 70	 movzx	 eax, BYTE PTR fcb$[rsp]
  00eac	25 e0 00 00 00	 and	 eax, 224		; 000000e0H
  00eb1	3d e0 00 00 00	 cmp	 eax, 224		; 000000e0H
  00eb6	75 2c		 jne	 SHORT $LN27@load_displ

; 3568 :     )
; 3569 :     {
; 3570 :         fcb  &=  ~( FCB_AM | FCB_BM | FCB_M2 );

  00eb8	0f b6 44 24 70	 movzx	 eax, BYTE PTR fcb$[rsp]
  00ebd	83 e0 e3	 and	 eax, -29
  00ec0	88 44 24 70	 mov	 BYTE PTR fcb$[rsp], al

; 3571 :         dev->tapedispflags |= TAPEDISPFLG_MESSAGE2;

  00ec4	48 8b 84 24 10
	02 00 00	 mov	 rax, QWORD PTR dev$[rsp]
  00ecc	0f b6 80 61 11
	00 00		 movzx	 eax, BYTE PTR [rax+4449]
  00ed3	83 c8 20	 or	 eax, 32			; 00000020H
  00ed6	48 8b 8c 24 10
	02 00 00	 mov	 rcx, QWORD PTR dev$[rsp]
  00ede	88 81 61 11 00
	00		 mov	 BYTE PTR [rcx+4449], al
$LN27@load_displ:

; 3572 :     }
; 3573 : 
; 3574 :     /*
; 3575 :         "When bit 3 (FCB_AM) is set to 1, then bits 4 (FCB_BM) and 5
; 3576 :         (FCB_M2) are ignored."
; 3577 :     */
; 3578 :     if ( fcb & FCB_AM )

  00ee4	0f b6 44 24 70	 movzx	 eax, BYTE PTR fcb$[rsp]
  00ee9	83 e0 10	 and	 eax, 16
  00eec	85 c0		 test	 eax, eax
  00eee	74 0c		 je	 SHORT $LN28@load_displ

; 3579 :         fcb  &=  ~( FCB_BM | FCB_M2 );

  00ef0	0f b6 44 24 70	 movzx	 eax, BYTE PTR fcb$[rsp]
  00ef5	83 e0 f3	 and	 eax, -13
  00ef8	88 44 24 70	 mov	 BYTE PTR fcb$[rsp], al
$LN28@load_displ:

; 3580 : 
; 3581 :     dev->tapedispflags |= (((fcb & FCB_AM) ? TAPEDISPFLG_ALTERNATE  : 0 ) |

  00efc	0f b6 44 24 70	 movzx	 eax, BYTE PTR fcb$[rsp]
  00f01	83 e0 10	 and	 eax, 16
  00f04	85 c0		 test	 eax, eax
  00f06	74 0d		 je	 SHORT $LN98@load_displ
  00f08	c7 84 24 b0 00
	00 00 80 00 00
	00		 mov	 DWORD PTR tv491[rsp], 128 ; 00000080H
  00f13	eb 0b		 jmp	 SHORT $LN99@load_displ
$LN98@load_displ:
  00f15	c7 84 24 b0 00
	00 00 00 00 00
	00		 mov	 DWORD PTR tv491[rsp], 0
$LN99@load_displ:
  00f20	0f b6 44 24 70	 movzx	 eax, BYTE PTR fcb$[rsp]
  00f25	83 e0 08	 and	 eax, 8
  00f28	85 c0		 test	 eax, eax
  00f2a	74 0d		 je	 SHORT $LN100@load_displ
  00f2c	c7 84 24 ac 00
	00 00 40 00 00
	00		 mov	 DWORD PTR tv495[rsp], 64 ; 00000040H
  00f37	eb 0b		 jmp	 SHORT $LN101@load_displ
$LN100@load_displ:
  00f39	c7 84 24 ac 00
	00 00 00 00 00
	00		 mov	 DWORD PTR tv495[rsp], 0
$LN101@load_displ:
  00f44	0f b6 44 24 70	 movzx	 eax, BYTE PTR fcb$[rsp]
  00f49	83 e0 04	 and	 eax, 4
  00f4c	85 c0		 test	 eax, eax
  00f4e	74 0d		 je	 SHORT $LN102@load_displ
  00f50	c7 84 24 b4 00
	00 00 20 00 00
	00		 mov	 DWORD PTR tv500[rsp], 32 ; 00000020H
  00f5b	eb 0b		 jmp	 SHORT $LN103@load_displ
$LN102@load_displ:
  00f5d	c7 84 24 b4 00
	00 00 00 00 00
	00		 mov	 DWORD PTR tv500[rsp], 0
$LN103@load_displ:
  00f68	0f b6 44 24 70	 movzx	 eax, BYTE PTR fcb$[rsp]
  00f6d	83 e0 01	 and	 eax, 1
  00f70	85 c0		 test	 eax, eax
  00f72	74 0d		 je	 SHORT $LN104@load_displ
  00f74	c7 84 24 b8 00
	00 00 10 00 00
	00		 mov	 DWORD PTR tv505[rsp], 16
  00f7f	eb 0b		 jmp	 SHORT $LN105@load_displ
$LN104@load_displ:
  00f81	c7 84 24 b8 00
	00 00 00 00 00
	00		 mov	 DWORD PTR tv505[rsp], 0
$LN105@load_displ:
  00f8c	8b 84 24 ac 00
	00 00		 mov	 eax, DWORD PTR tv495[rsp]
  00f93	8b 8c 24 b0 00
	00 00		 mov	 ecx, DWORD PTR tv491[rsp]
  00f9a	0b c8		 or	 ecx, eax
  00f9c	8b c1		 mov	 eax, ecx
  00f9e	0b 84 24 b4 00
	00 00		 or	 eax, DWORD PTR tv500[rsp]
  00fa5	0b 84 24 b8 00
	00 00		 or	 eax, DWORD PTR tv505[rsp]
  00fac	48 8b 8c 24 10
	02 00 00	 mov	 rcx, QWORD PTR dev$[rsp]
  00fb4	0f b6 89 61 11
	00 00		 movzx	 ecx, BYTE PTR [rcx+4449]
  00fbb	0b c8		 or	 ecx, eax
  00fbd	8b c1		 mov	 eax, ecx
  00fbf	48 8b 8c 24 10
	02 00 00	 mov	 rcx, QWORD PTR dev$[rsp]
  00fc7	88 81 61 11 00
	00		 mov	 BYTE PTR [rcx+4449], al

; 3582 :                           ( (fcb & FCB_BM) ? TAPEDISPFLG_BLINKING   : 0 ) |
; 3583 :                           ( (fcb & FCB_M2) ? TAPEDISPFLG_MESSAGE2   : 0 ) |
; 3584 :                           ( (fcb & FCB_AL) ? TAPEDISPFLG_AUTOLOADER : 0 ));
; 3585 : 
; 3586 :     UpdateDisplay( dev );

  00fcd	48 8b 8c 24 10
	02 00 00	 mov	 rcx, QWORD PTR dev$[rsp]
  00fd5	e8 00 00 00 00	 call	 UpdateDisplay

; 3587 :     rc = ReqAutoMount( dev );

  00fda	48 8b 8c 24 10
	02 00 00	 mov	 rcx, QWORD PTR dev$[rsp]
  00fe2	e8 00 00 00 00	 call	 ReqAutoMount
  00fe7	89 44 24 7c	 mov	 DWORD PTR rc$[rsp], eax

; 3588 :     return rc;

  00feb	8b 44 24 7c	 mov	 eax, DWORD PTR rc$[rsp]
$LN1@load_displ:
$LN29@load_displ:

; 3589 : 
; 3590 : } /* end function load_display */

  00fef	48 8b 8c 24 f8
	01 00 00	 mov	 rcx, QWORD PTR __$ArrayPad$[rsp]
  00ff7	48 33 cc	 xor	 rcx, rsp
  00ffa	e8 00 00 00 00	 call	 __security_check_cookie
  00fff	48 81 c4 00 02
	00 00		 add	 rsp, 512		; 00000200H
  01006	5f		 pop	 rdi
  01007	c3		 ret	 0
$LN107@load_displ:
  01008	00 00 00 00	 DD	 $LN11@load_displ
  0100c	00 00 00 00	 DD	 $LN12@load_displ
  01010	00 00 00 00	 DD	 $LN15@load_displ
  01014	00 00 00 00	 DD	 $LN18@load_displ
  01018	00 00 00 00	 DD	 $LN20@load_displ
  0101c	00 00 00 00	 DD	 $LN21@load_displ
  01020	00 00 00 00	 DD	 $LN19@load_displ
$LN106@load_displ:
  01024	00		 DB	 0
  01025	06		 DB	 6
  01026	06		 DB	 6
  01027	06		 DB	 6
  01028	06		 DB	 6
  01029	06		 DB	 6
  0102a	06		 DB	 6
  0102b	06		 DB	 6
  0102c	06		 DB	 6
  0102d	06		 DB	 6
  0102e	06		 DB	 6
  0102f	06		 DB	 6
  01030	06		 DB	 6
  01031	06		 DB	 6
  01032	06		 DB	 6
  01033	06		 DB	 6
  01034	06		 DB	 6
  01035	06		 DB	 6
  01036	06		 DB	 6
  01037	06		 DB	 6
  01038	06		 DB	 6
  01039	06		 DB	 6
  0103a	06		 DB	 6
  0103b	06		 DB	 6
  0103c	06		 DB	 6
  0103d	06		 DB	 6
  0103e	06		 DB	 6
  0103f	06		 DB	 6
  01040	06		 DB	 6
  01041	06		 DB	 6
  01042	06		 DB	 6
  01043	06		 DB	 6
  01044	01		 DB	 1
  01045	06		 DB	 6
  01046	06		 DB	 6
  01047	06		 DB	 6
  01048	06		 DB	 6
  01049	06		 DB	 6
  0104a	06		 DB	 6
  0104b	06		 DB	 6
  0104c	06		 DB	 6
  0104d	06		 DB	 6
  0104e	06		 DB	 6
  0104f	06		 DB	 6
  01050	06		 DB	 6
  01051	06		 DB	 6
  01052	06		 DB	 6
  01053	06		 DB	 6
  01054	06		 DB	 6
  01055	06		 DB	 6
  01056	06		 DB	 6
  01057	06		 DB	 6
  01058	06		 DB	 6
  01059	06		 DB	 6
  0105a	06		 DB	 6
  0105b	06		 DB	 6
  0105c	06		 DB	 6
  0105d	06		 DB	 6
  0105e	06		 DB	 6
  0105f	06		 DB	 6
  01060	06		 DB	 6
  01061	06		 DB	 6
  01062	06		 DB	 6
  01063	06		 DB	 6
  01064	02		 DB	 2
  01065	06		 DB	 6
  01066	06		 DB	 6
  01067	06		 DB	 6
  01068	06		 DB	 6
  01069	06		 DB	 6
  0106a	06		 DB	 6
  0106b	06		 DB	 6
  0106c	06		 DB	 6
  0106d	06		 DB	 6
  0106e	06		 DB	 6
  0106f	06		 DB	 6
  01070	06		 DB	 6
  01071	06		 DB	 6
  01072	06		 DB	 6
  01073	06		 DB	 6
  01074	06		 DB	 6
  01075	06		 DB	 6
  01076	06		 DB	 6
  01077	06		 DB	 6
  01078	06		 DB	 6
  01079	06		 DB	 6
  0107a	06		 DB	 6
  0107b	06		 DB	 6
  0107c	06		 DB	 6
  0107d	06		 DB	 6
  0107e	06		 DB	 6
  0107f	06		 DB	 6
  01080	06		 DB	 6
  01081	06		 DB	 6
  01082	06		 DB	 6
  01083	06		 DB	 6
  01084	03		 DB	 3
  01085	06		 DB	 6
  01086	06		 DB	 6
  01087	06		 DB	 6
  01088	06		 DB	 6
  01089	06		 DB	 6
  0108a	06		 DB	 6
  0108b	06		 DB	 6
  0108c	06		 DB	 6
  0108d	06		 DB	 6
  0108e	06		 DB	 6
  0108f	06		 DB	 6
  01090	06		 DB	 6
  01091	06		 DB	 6
  01092	06		 DB	 6
  01093	06		 DB	 6
  01094	06		 DB	 6
  01095	06		 DB	 6
  01096	06		 DB	 6
  01097	06		 DB	 6
  01098	06		 DB	 6
  01099	06		 DB	 6
  0109a	06		 DB	 6
  0109b	06		 DB	 6
  0109c	06		 DB	 6
  0109d	06		 DB	 6
  0109e	06		 DB	 6
  0109f	06		 DB	 6
  010a0	06		 DB	 6
  010a1	06		 DB	 6
  010a2	06		 DB	 6
  010a3	06		 DB	 6
  010a4	04		 DB	 4
  010a5	06		 DB	 6
  010a6	06		 DB	 6
  010a7	06		 DB	 6
  010a8	06		 DB	 6
  010a9	06		 DB	 6
  010aa	06		 DB	 6
  010ab	06		 DB	 6
  010ac	06		 DB	 6
  010ad	06		 DB	 6
  010ae	06		 DB	 6
  010af	06		 DB	 6
  010b0	06		 DB	 6
  010b1	06		 DB	 6
  010b2	06		 DB	 6
  010b3	06		 DB	 6
  010b4	06		 DB	 6
  010b5	06		 DB	 6
  010b6	06		 DB	 6
  010b7	06		 DB	 6
  010b8	06		 DB	 6
  010b9	06		 DB	 6
  010ba	06		 DB	 6
  010bb	06		 DB	 6
  010bc	06		 DB	 6
  010bd	06		 DB	 6
  010be	06		 DB	 6
  010bf	06		 DB	 6
  010c0	06		 DB	 6
  010c1	06		 DB	 6
  010c2	06		 DB	 6
  010c3	06		 DB	 6
  010c4	06		 DB	 6
  010c5	06		 DB	 6
  010c6	06		 DB	 6
  010c7	06		 DB	 6
  010c8	06		 DB	 6
  010c9	06		 DB	 6
  010ca	06		 DB	 6
  010cb	06		 DB	 6
  010cc	06		 DB	 6
  010cd	06		 DB	 6
  010ce	06		 DB	 6
  010cf	06		 DB	 6
  010d0	06		 DB	 6
  010d1	06		 DB	 6
  010d2	06		 DB	 6
  010d3	06		 DB	 6
  010d4	06		 DB	 6
  010d5	06		 DB	 6
  010d6	06		 DB	 6
  010d7	06		 DB	 6
  010d8	06		 DB	 6
  010d9	06		 DB	 6
  010da	06		 DB	 6
  010db	06		 DB	 6
  010dc	06		 DB	 6
  010dd	06		 DB	 6
  010de	06		 DB	 6
  010df	06		 DB	 6
  010e0	06		 DB	 6
  010e1	06		 DB	 6
  010e2	06		 DB	 6
  010e3	06		 DB	 6
  010e4	06		 DB	 6
  010e5	06		 DB	 6
  010e6	06		 DB	 6
  010e7	06		 DB	 6
  010e8	06		 DB	 6
  010e9	06		 DB	 6
  010ea	06		 DB	 6
  010eb	06		 DB	 6
  010ec	06		 DB	 6
  010ed	06		 DB	 6
  010ee	06		 DB	 6
  010ef	06		 DB	 6
  010f0	06		 DB	 6
  010f1	06		 DB	 6
  010f2	06		 DB	 6
  010f3	06		 DB	 6
  010f4	06		 DB	 6
  010f5	06		 DB	 6
  010f6	06		 DB	 6
  010f7	06		 DB	 6
  010f8	06		 DB	 6
  010f9	06		 DB	 6
  010fa	06		 DB	 6
  010fb	06		 DB	 6
  010fc	06		 DB	 6
  010fd	06		 DB	 6
  010fe	06		 DB	 6
  010ff	06		 DB	 6
  01100	06		 DB	 6
  01101	06		 DB	 6
  01102	06		 DB	 6
  01103	06		 DB	 6
  01104	05		 DB	 5
load_display ENDP
_TEXT	ENDS
; Function compile flags: /Odtp
; File C:\papa\MyGit\hyperion-zvector\tapeccws.c
_TEXT	SEGMENT
len$ = 112
num$ = 116
rc$ = 120
parm$1 = 124
order$2 = 125
i$3 = 128
bEnable$4 = 132
flag$5 = 133
bEnable$6 = 134
rej$7 = 136
locblock$8 = 140
tv294 = 144
tv2137 = 148
rustat$ = 152
drc$ = 156
minlen$9 = 160
argc$10 = 164
tv2563 = 168
tv2858 = 172
argv$11 = 176
tv174 = 184
tv180 = 188
tv211 = 192
tv399 = 196
tv435 = 200
tv546 = 204
tv693 = 208
tv828 = 212
errcode$12 = 216
tv866 = 220
tv868 = 224
tv882 = 228
tv974 = 232
tv1051 = 236
tv1151 = 240
tv1265 = 244
tv1271 = 248
tv1298 = 252
tv1332 = 256
tv1338 = 260
tv1391 = 264
tv1397 = 268
tv1490 = 272
tv1496 = 276
tv1639 = 280
tv1645 = 284
tv1719 = 288
tv1725 = 292
tv1780 = 296
tv1786 = 300
tv1859 = 304
tv1865 = 308
tv1903 = 312
tv1974 = 316
tv2016 = 320
tv2022 = 324
errcode$13 = 328
tv2102 = 332
tv2140 = 336
tv2143 = 340
tv2158 = 344
tv2170 = 348
tv2173 = 352
tv2194 = 356
tv2209 = 360
tv2222 = 364
tv2238 = 368
tv2255 = 372
tv2268 = 376
tv2411 = 380
tv2505 = 384
tv2517 = 388
tv2551 = 392
tv2626 = 396
tv2676 = 400
tv2740 = 404
tv2779 = 408
tv2847 = 412
tv3023 = 416
tv3042 = 420
tv3062 = 424
tv79 = 428
log_blockid$14 = 432
phys_blockid$15 = 436
tamdir$16 = 440
tv142 = 448
tv2011 = 456
tv162 = 464
tv163 = 472
tv164 = 480
tv165 = 488
tv166 = 496
tv167 = 504
$T17 = 512
$T18 = 520
tv1254 = 528
tv1255 = 536
tv1256 = 544
tv1257 = 552
tv1258 = 560
tv1259 = 568
tv1321 = 576
tv1322 = 584
tv1323 = 592
tv1324 = 600
tv1325 = 608
tv1326 = 616
tv1380 = 624
tv1381 = 632
tv1382 = 640
tv1383 = 648
tv1384 = 656
tv1385 = 664
tv1479 = 672
tv1480 = 680
tv1481 = 688
tv1482 = 696
tv1483 = 704
tv1484 = 712
tv1628 = 720
tv1629 = 728
tv1630 = 736
tv1631 = 744
tv1632 = 752
tv1633 = 760
tv1708 = 768
tv1709 = 776
tv1710 = 784
tv1711 = 792
tv1712 = 800
tv1713 = 808
tv1769 = 816
tv1770 = 824
tv1771 = 832
tv1772 = 840
tv1773 = 848
tv1774 = 856
tv1815 = 864
tv1816 = 872
tv1817 = 880
tv1818 = 888
tv1819 = 896
tv1820 = 904
tv2000 = 912
tv2001 = 920
tv2002 = 928
tv2003 = 936
tv2004 = 944
tv2005 = 952
dummy_tid$19 = 960
tv169 = 968
tv657 = 976
tv873 = 984
tv1822 = 992
tv2681 = 1000
newfile$20 = 1008
thread_name$21 = 1280
resolve_in$22 = 1344
resolve_out$23 = 1616
__$ArrayPad$ = 1888
dev$ = 1936
code$ = 1944
flags$ = 1952
chained$ = 1960
count$ = 1968
prevcode$ = 1976
ccwseq$ = 1984
iobuf$ = 1992
more$ = 2000
unitstat$ = 2008
residual$ = 2016
tapedev_execute_ccw PROC

; 449  : {

$LN627:
  00000	44 88 4c 24 20	 mov	 BYTE PTR [rsp+32], r9b
  00005	44 88 44 24 18	 mov	 BYTE PTR [rsp+24], r8b
  0000a	88 54 24 10	 mov	 BYTE PTR [rsp+16], dl
  0000e	48 89 4c 24 08	 mov	 QWORD PTR [rsp+8], rcx
  00013	56		 push	 rsi
  00014	57		 push	 rdi
  00015	48 81 ec 78 07
	00 00		 sub	 rsp, 1912		; 00000778H
  0001c	48 8b 05 00 00
	00 00		 mov	 rax, QWORD PTR __security_cookie
  00023	48 33 c4	 xor	 rax, rsp
  00026	48 89 84 24 60
	07 00 00	 mov	 QWORD PTR __$ArrayPad$[rsp], rax
$LN4@tapedev_ex:

; 450  : int     rc;                             /* Return code               */
; 451  : U32     len;     /*(see NOTE below)*/   /* Length of data block      */
; 452  : U32     num;     /*(see NOTE below)*/   /* Number of bytes to read   */
; 453  : int     drc;                            /* code disposition          */
; 454  : BYTE    rustat;                         /* Addl CSW stat on RewUnld  */
; 455  : 
; 456  :     UNREFERENCED( ccwseq );

  0002e	33 c0		 xor	 eax, eax
  00030	85 c0		 test	 eax, eax
  00032	75 fa		 jne	 SHORT $LN4@tapedev_ex

; 457  : 
; 458  :     /* PROGRAMMING NOTE: len, num, count, *residual and *more are
; 459  :        used and updated automatically by the RESIDUAL_CALC macro */
; 460  : 
; 461  :     /* Reset flags at start of CCW chain */
; 462  :     if (dev->ccwseq == 0)

  00034	48 8b 84 24 90
	07 00 00	 mov	 rax, QWORD PTR dev$[rsp]
  0003c	83 b8 7c 02 00
	00 00		 cmp	 DWORD PTR [rax+636], 0
  00043	75 51		 jne	 SHORT $LN35@tapedev_ex

; 463  :     {
; 464  :         dev->supvr_inhibit = 0;         /* (reset to default mode)   */

  00045	48 8b 84 24 90
	07 00 00	 mov	 rax, QWORD PTR dev$[rsp]
  0004d	8b 80 78 10 00
	00		 mov	 eax, DWORD PTR [rax+4216]
  00053	0f ba f0 07	 btr	 eax, 7
  00057	48 8b 8c 24 90
	07 00 00	 mov	 rcx, QWORD PTR dev$[rsp]
  0005f	89 81 78 10 00
	00		 mov	 DWORD PTR [rcx+4216], eax

; 465  :         dev->write_immed   = 0;         /* (reset to default mode)   */

  00065	48 8b 84 24 90
	07 00 00	 mov	 rax, QWORD PTR dev$[rsp]
  0006d	8b 80 78 10 00
	00		 mov	 eax, DWORD PTR [rax+4216]
  00073	0f ba f0 08	 btr	 eax, 8
  00077	48 8b 8c 24 90
	07 00 00	 mov	 rcx, QWORD PTR dev$[rsp]
  0007f	89 81 78 10 00
	00		 mov	 DWORD PTR [rcx+4216], eax

; 466  :         dev->tapssdlen     = 0;         /* (clear all subsys data)   */

  00085	33 c0		 xor	 eax, eax
  00087	48 8b 8c 24 90
	07 00 00	 mov	 rcx, QWORD PTR dev$[rsp]
  0008f	66 89 81 20 10
	00 00		 mov	 WORD PTR [rcx+4128], ax
$LN35@tapedev_ex:

; 467  :     }
; 468  : 
; 469  :     /* If this is a data-chained READ, then return any data remaining
; 470  :        in the buffer which was not used by the previous CCW */
; 471  :     if (chained & CCW_FLAGS_CD)

  00096	0f b6 84 24 a8
	07 00 00	 movzx	 eax, BYTE PTR chained$[rsp]
  0009e	25 80 00 00 00	 and	 eax, 128		; 00000080H
  000a3	85 c0		 test	 eax, eax
  000a5	0f 84 0a 01 00
	00		 je	 $LN36@tapedev_ex

; 472  :     {
; 473  :         /* Calculate number of bytes to read and residual byte count */
; 474  :         RESIDUAL_CALC (dev->curblkrem);

  000ab	48 8b 84 24 90
	07 00 00	 mov	 rax, QWORD PTR dev$[rsp]
  000b3	8b 80 18 10 00
	00		 mov	 eax, DWORD PTR [rax+4120]
  000b9	89 44 24 70	 mov	 DWORD PTR len$[rsp], eax
  000bd	8b 44 24 70	 mov	 eax, DWORD PTR len$[rsp]
  000c1	39 84 24 b0 07
	00 00		 cmp	 DWORD PTR count$[rsp], eax
  000c8	73 10		 jae	 SHORT $LN378@tapedev_ex
  000ca	8b 84 24 b0 07
	00 00		 mov	 eax, DWORD PTR count$[rsp]
  000d1	89 84 24 ac 01
	00 00		 mov	 DWORD PTR tv79[rsp], eax
  000d8	eb 0b		 jmp	 SHORT $LN379@tapedev_ex
$LN378@tapedev_ex:
  000da	8b 44 24 70	 mov	 eax, DWORD PTR len$[rsp]
  000de	89 84 24 ac 01
	00 00		 mov	 DWORD PTR tv79[rsp], eax
$LN379@tapedev_ex:
  000e5	8b 84 24 ac 01
	00 00		 mov	 eax, DWORD PTR tv79[rsp]
  000ec	89 44 24 74	 mov	 DWORD PTR num$[rsp], eax
  000f0	8b 44 24 74	 mov	 eax, DWORD PTR num$[rsp]
  000f4	8b 8c 24 b0 07
	00 00		 mov	 ecx, DWORD PTR count$[rsp]
  000fb	2b c8		 sub	 ecx, eax
  000fd	8b c1		 mov	 eax, ecx
  000ff	48 8b 8c 24 e0
	07 00 00	 mov	 rcx, QWORD PTR residual$[rsp]
  00107	89 01		 mov	 DWORD PTR [rcx], eax
  00109	8b 44 24 70	 mov	 eax, DWORD PTR len$[rsp]
  0010d	39 84 24 b0 07
	00 00		 cmp	 DWORD PTR count$[rsp], eax
  00114	73 0b		 jae	 SHORT $LN37@tapedev_ex
  00116	48 8b 84 24 d0
	07 00 00	 mov	 rax, QWORD PTR more$[rsp]
  0011e	c6 00 01	 mov	 BYTE PTR [rax], 1
$LN37@tapedev_ex:

; 475  : 
; 476  :         if (IS_CCW_RDBACK(code))

  00121	0f b6 84 24 98
	07 00 00	 movzx	 eax, BYTE PTR code$[rsp]
  00129	83 e0 0f	 and	 eax, 15
  0012c	83 f8 0c	 cmp	 eax, 12
  0012f	75 02		 jne	 SHORT $LN38@tapedev_ex

; 477  :         {
; 478  :             /* We don't need to move anything in this case - just set length */
; 479  :         }

  00131	eb 30		 jmp	 SHORT $LN39@tapedev_ex
$LN38@tapedev_ex:

; 480  :         else
; 481  :         {
; 482  :             memcpy (iobuf, dev->buf + dev->curbufoff, num);

  00133	8b 44 24 74	 mov	 eax, DWORD PTR num$[rsp]
  00137	48 8b 8c 24 90
	07 00 00	 mov	 rcx, QWORD PTR dev$[rsp]
  0013f	8b 89 1c 10 00
	00		 mov	 ecx, DWORD PTR [rcx+4124]
  00145	48 8b 94 24 90
	07 00 00	 mov	 rdx, QWORD PTR dev$[rsp]
  0014d	48 03 8a c8 01
	00 00		 add	 rcx, QWORD PTR [rdx+456]
  00154	48 8b bc 24 c8
	07 00 00	 mov	 rdi, QWORD PTR iobuf$[rsp]
  0015c	48 8b f1	 mov	 rsi, rcx
  0015f	8b c8		 mov	 ecx, eax
  00161	f3 a4		 rep movsb
$LN39@tapedev_ex:

; 483  :         }
; 484  : 
; 485  :         /* Save size and offset of data not used by this CCW */
; 486  :         dev->curblkrem -= num;

  00163	48 8b 84 24 90
	07 00 00	 mov	 rax, QWORD PTR dev$[rsp]
  0016b	8b 4c 24 74	 mov	 ecx, DWORD PTR num$[rsp]
  0016f	8b 80 18 10 00
	00		 mov	 eax, DWORD PTR [rax+4120]
  00175	2b c1		 sub	 eax, ecx
  00177	48 8b 8c 24 90
	07 00 00	 mov	 rcx, QWORD PTR dev$[rsp]
  0017f	89 81 18 10 00
	00		 mov	 DWORD PTR [rcx+4120], eax

; 487  :         dev->curbufoff += num;

  00185	48 8b 84 24 90
	07 00 00	 mov	 rax, QWORD PTR dev$[rsp]
  0018d	8b 80 1c 10 00
	00		 mov	 eax, DWORD PTR [rax+4124]
  00193	03 44 24 74	 add	 eax, DWORD PTR num$[rsp]
  00197	48 8b 8c 24 90
	07 00 00	 mov	 rcx, QWORD PTR dev$[rsp]
  0019f	89 81 1c 10 00
	00		 mov	 DWORD PTR [rcx+4124], eax

; 488  : 
; 489  :         *unitstat = CSW_CE | CSW_DE;

  001a5	48 8b 84 24 d8
	07 00 00	 mov	 rax, QWORD PTR unitstat$[rsp]
  001ad	c6 00 0c	 mov	 BYTE PTR [rax], 12

; 490  :         return;

  001b0	e9 14 67 00 00	 jmp	 $LN1@tapedev_ex
$LN36@tapedev_ex:

; 491  :     }
; 492  : 
; 493  :     /* Command reject if data chaining and command is not a read type */
; 494  :     if ((flags & CCW_FLAGS_CD) &&

  001b5	0f b6 84 24 a0
	07 00 00	 movzx	 eax, BYTE PTR flags$[rsp]
  001bd	25 80 00 00 00	 and	 eax, 128		; 00000080H
  001c2	85 c0		 test	 eax, eax
  001c4	0f 84 96 02 00
	00		 je	 $LN40@tapedev_ex
  001ca	0f b6 84 24 98
	07 00 00	 movzx	 eax, BYTE PTR code$[rsp]
  001d2	83 e0 03	 and	 eax, 3
  001d5	83 f8 02	 cmp	 eax, 2
  001d8	0f 84 82 02 00
	00		 je	 $LN40@tapedev_ex
  001de	0f b6 84 24 98
	07 00 00	 movzx	 eax, BYTE PTR code$[rsp]
  001e6	83 e0 0f	 and	 eax, 15
  001e9	83 f8 0c	 cmp	 eax, 12
  001ec	0f 84 6e 02 00
	00		 je	 $LN40@tapedev_ex

; 495  :         !(IS_CCW_READ(code) || IS_CCW_RDBACK(code)))
; 496  :     {
; 497  :         WRMSG(HHC00212, "E", LCSS_DEVNUM, dev->filename, TTYPSTR(dev->tapedevt), code);

  001f2	48 8b 84 24 90
	07 00 00	 mov	 rax, QWORD PTR dev$[rsp]
  001fa	0f b6 80 dc 10
	00 00		 movzx	 eax, BYTE PTR [rax+4316]
  00201	83 f8 01	 cmp	 eax, 1
  00204	75 14		 jne	 SHORT $LN390@tapedev_ex
  00206	48 8d 05 00 00
	00 00		 lea	 rax, OFFSET FLAT:$SG169351
  0020d	48 89 84 24 f8
	01 00 00	 mov	 QWORD PTR tv167[rsp], rax
  00215	e9 1e 01 00 00	 jmp	 $LN391@tapedev_ex
$LN390@tapedev_ex:
  0021a	48 8b 84 24 90
	07 00 00	 mov	 rax, QWORD PTR dev$[rsp]
  00222	0f b6 80 dc 10
	00 00		 movzx	 eax, BYTE PTR [rax+4316]
  00229	83 f8 02	 cmp	 eax, 2
  0022c	75 14		 jne	 SHORT $LN388@tapedev_ex
  0022e	48 8d 05 00 00
	00 00		 lea	 rax, OFFSET FLAT:$SG169352
  00235	48 89 84 24 f0
	01 00 00	 mov	 QWORD PTR tv166[rsp], rax
  0023d	e9 e6 00 00 00	 jmp	 $LN389@tapedev_ex
$LN388@tapedev_ex:
  00242	48 8b 84 24 90
	07 00 00	 mov	 rax, QWORD PTR dev$[rsp]
  0024a	0f b6 80 dc 10
	00 00		 movzx	 eax, BYTE PTR [rax+4316]
  00251	83 f8 03	 cmp	 eax, 3
  00254	75 14		 jne	 SHORT $LN386@tapedev_ex
  00256	48 8d 05 00 00
	00 00		 lea	 rax, OFFSET FLAT:$SG169353
  0025d	48 89 84 24 e8
	01 00 00	 mov	 QWORD PTR tv165[rsp], rax
  00265	e9 ae 00 00 00	 jmp	 $LN387@tapedev_ex
$LN386@tapedev_ex:
  0026a	48 8b 84 24 90
	07 00 00	 mov	 rax, QWORD PTR dev$[rsp]
  00272	0f b6 80 dc 10
	00 00		 movzx	 eax, BYTE PTR [rax+4316]
  00279	83 f8 04	 cmp	 eax, 4
  0027c	75 11		 jne	 SHORT $LN384@tapedev_ex
  0027e	48 8d 05 00 00
	00 00		 lea	 rax, OFFSET FLAT:$SG169354
  00285	48 89 84 24 e0
	01 00 00	 mov	 QWORD PTR tv164[rsp], rax
  0028d	eb 79		 jmp	 SHORT $LN385@tapedev_ex
$LN384@tapedev_ex:
  0028f	48 8b 84 24 90
	07 00 00	 mov	 rax, QWORD PTR dev$[rsp]
  00297	0f b6 80 dc 10
	00 00		 movzx	 eax, BYTE PTR [rax+4316]
  0029e	83 f8 05	 cmp	 eax, 5
  002a1	75 11		 jne	 SHORT $LN382@tapedev_ex
  002a3	48 8d 05 00 00
	00 00		 lea	 rax, OFFSET FLAT:$SG169355
  002aa	48 89 84 24 d8
	01 00 00	 mov	 QWORD PTR tv163[rsp], rax
  002b2	eb 44		 jmp	 SHORT $LN383@tapedev_ex
$LN382@tapedev_ex:
  002b4	48 8b 84 24 90
	07 00 00	 mov	 rax, QWORD PTR dev$[rsp]
  002bc	0f b6 80 dc 10
	00 00		 movzx	 eax, BYTE PTR [rax+4316]
  002c3	83 f8 06	 cmp	 eax, 6
  002c6	75 11		 jne	 SHORT $LN380@tapedev_ex
  002c8	48 8d 05 00 00
	00 00		 lea	 rax, OFFSET FLAT:$SG169356
  002cf	48 89 84 24 d0
	01 00 00	 mov	 QWORD PTR tv162[rsp], rax
  002d7	eb 0f		 jmp	 SHORT $LN381@tapedev_ex
$LN380@tapedev_ex:
  002d9	48 8d 05 00 00
	00 00		 lea	 rax, OFFSET FLAT:$SG169357
  002e0	48 89 84 24 d0
	01 00 00	 mov	 QWORD PTR tv162[rsp], rax
$LN381@tapedev_ex:
  002e8	48 8b 84 24 d0
	01 00 00	 mov	 rax, QWORD PTR tv162[rsp]
  002f0	48 89 84 24 d8
	01 00 00	 mov	 QWORD PTR tv163[rsp], rax
$LN383@tapedev_ex:
  002f8	48 8b 84 24 d8
	01 00 00	 mov	 rax, QWORD PTR tv163[rsp]
  00300	48 89 84 24 e0
	01 00 00	 mov	 QWORD PTR tv164[rsp], rax
$LN385@tapedev_ex:
  00308	48 8b 84 24 e0
	01 00 00	 mov	 rax, QWORD PTR tv164[rsp]
  00310	48 89 84 24 e8
	01 00 00	 mov	 QWORD PTR tv165[rsp], rax
$LN387@tapedev_ex:
  00318	48 8b 84 24 e8
	01 00 00	 mov	 rax, QWORD PTR tv165[rsp]
  00320	48 89 84 24 f0
	01 00 00	 mov	 QWORD PTR tv166[rsp], rax
$LN389@tapedev_ex:
  00328	48 8b 84 24 f0
	01 00 00	 mov	 rax, QWORD PTR tv166[rsp]
  00330	48 89 84 24 f8
	01 00 00	 mov	 QWORD PTR tv167[rsp], rax
$LN391@tapedev_ex:
  00338	48 83 bc 24 90
	07 00 00 00	 cmp	 QWORD PTR dev$[rsp], 0
  00341	74 15		 je	 SHORT $LN392@tapedev_ex
  00343	48 8b 84 24 90
	07 00 00	 mov	 rax, QWORD PTR dev$[rsp]
  0034b	0f b7 40 48	 movzx	 eax, WORD PTR [rax+72]
  0034f	89 84 24 b8 00
	00 00		 mov	 DWORD PTR tv174[rsp], eax
  00356	eb 0b		 jmp	 SHORT $LN393@tapedev_ex
$LN392@tapedev_ex:
  00358	c7 84 24 b8 00
	00 00 00 00 00
	00		 mov	 DWORD PTR tv174[rsp], 0
$LN393@tapedev_ex:
  00363	48 83 bc 24 90
	07 00 00 00	 cmp	 QWORD PTR dev$[rsp], 0
  0036c	74 17		 je	 SHORT $LN394@tapedev_ex
  0036e	48 8b 84 24 90
	07 00 00	 mov	 rax, QWORD PTR dev$[rsp]
  00376	0f b7 40 44	 movzx	 eax, WORD PTR [rax+68]
  0037a	d1 f8		 sar	 eax, 1
  0037c	89 84 24 bc 00
	00 00		 mov	 DWORD PTR tv180[rsp], eax
  00383	eb 0b		 jmp	 SHORT $LN395@tapedev_ex
$LN394@tapedev_ex:
  00385	c7 84 24 bc 00
	00 00 00 00 00
	00		 mov	 DWORD PTR tv180[rsp], 0
$LN395@tapedev_ex:
  00390	0f b6 84 24 98
	07 00 00	 movzx	 eax, BYTE PTR code$[rsp]
  00398	89 84 24 c0 01
	00 00		 mov	 DWORD PTR tv142[rsp], eax
  0039f	48 8b 8c 24 90
	07 00 00	 mov	 rcx, QWORD PTR dev$[rsp]
  003a7	48 81 c1 a4 00
	00 00		 add	 rcx, 164		; 000000a4H
  003ae	48 89 8c 24 c8
	03 00 00	 mov	 QWORD PTR tv169[rsp], rcx
  003b6	b9 01 00 00 00	 mov	 ecx, 1
  003bb	ff 15 00 00 00
	00		 call	 QWORD PTR __imp___acrt_iob_func
  003c1	8b 8c 24 c0 01
	00 00		 mov	 ecx, DWORD PTR tv142[rsp]
  003c8	89 4c 24 58	 mov	 DWORD PTR [rsp+88], ecx
  003cc	48 8b 8c 24 f8
	01 00 00	 mov	 rcx, QWORD PTR tv167[rsp]
  003d4	48 89 4c 24 50	 mov	 QWORD PTR [rsp+80], rcx
  003d9	48 8b 8c 24 c8
	03 00 00	 mov	 rcx, QWORD PTR tv169[rsp]
  003e1	48 89 4c 24 48	 mov	 QWORD PTR [rsp+72], rcx
  003e6	8b 8c 24 b8 00
	00 00		 mov	 ecx, DWORD PTR tv174[rsp]
  003ed	89 4c 24 40	 mov	 DWORD PTR [rsp+64], ecx
  003f1	8b 8c 24 bc 00
	00 00		 mov	 ecx, DWORD PTR tv180[rsp]
  003f8	89 4c 24 38	 mov	 DWORD PTR [rsp+56], ecx
  003fc	48 8d 0d 00 00
	00 00		 lea	 rcx, OFFSET FLAT:$SG169358
  00403	48 89 4c 24 30	 mov	 QWORD PTR [rsp+48], rcx
  00408	48 8d 0d 00 00
	00 00		 lea	 rcx, OFFSET FLAT:$SG169359
  0040f	48 89 4c 24 28	 mov	 QWORD PTR [rsp+40], rcx
  00414	48 89 44 24 20	 mov	 QWORD PTR [rsp+32], rax
  00419	41 b9 03 00 00
	00		 mov	 r9d, 3
  0041f	4c 8d 05 00 00
	00 00		 lea	 r8, OFFSET FLAT:$SG169360
  00426	ba f1 01 00 00	 mov	 edx, 497		; 000001f1H
  0042b	48 8d 0d 00 00
	00 00		 lea	 rcx, OFFSET FLAT:$SG169361
  00432	ff 15 00 00 00
	00		 call	 QWORD PTR __imp_fwritemsg

; 498  :         build_senseX(TAPE_BSENSE_BADCOMMAND,dev,unitstat,code);

  00438	44 0f b6 8c 24
	98 07 00 00	 movzx	 r9d, BYTE PTR code$[rsp]
  00441	4c 8b 84 24 d8
	07 00 00	 mov	 r8, QWORD PTR unitstat$[rsp]
  00449	48 8b 94 24 90
	07 00 00	 mov	 rdx, QWORD PTR dev$[rsp]
  00451	b9 04 00 00 00	 mov	 ecx, 4
  00456	e8 00 00 00 00	 call	 build_senseX

; 499  :         return;

  0045b	e9 69 64 00 00	 jmp	 $LN1@tapedev_ex
$LN40@tapedev_ex:

; 500  :     }
; 501  : 
; 502  :     /* Command reject if command is not Read Subsystem Data command
; 503  :        if the previous one was a Perform Subsystem Function command
; 504  :        that prepared some subsystem data for subsequent reading
; 505  :     */
; 506  :     if (0x77 == prevcode && dev->tapssdlen && 0x3E != code)

  00460	0f b6 84 24 b8
	07 00 00	 movzx	 eax, BYTE PTR prevcode$[rsp]
  00468	83 f8 77	 cmp	 eax, 119		; 00000077H
  0046b	75 48		 jne	 SHORT $LN41@tapedev_ex
  0046d	48 8b 84 24 90
	07 00 00	 mov	 rax, QWORD PTR dev$[rsp]
  00475	0f b7 80 20 10
	00 00		 movzx	 eax, WORD PTR [rax+4128]
  0047c	85 c0		 test	 eax, eax
  0047e	74 35		 je	 SHORT $LN41@tapedev_ex
  00480	0f b6 84 24 98
	07 00 00	 movzx	 eax, BYTE PTR code$[rsp]
  00488	83 f8 3e	 cmp	 eax, 62			; 0000003eH
  0048b	74 28		 je	 SHORT $LN41@tapedev_ex

; 507  :     {
; 508  :         build_senseX (TAPE_BSENSE_BADCOMMAND, dev, unitstat, code);

  0048d	44 0f b6 8c 24
	98 07 00 00	 movzx	 r9d, BYTE PTR code$[rsp]
  00496	4c 8b 84 24 d8
	07 00 00	 mov	 r8, QWORD PTR unitstat$[rsp]
  0049e	48 8b 94 24 90
	07 00 00	 mov	 rdx, QWORD PTR dev$[rsp]
  004a6	b9 04 00 00 00	 mov	 ecx, 4
  004ab	e8 00 00 00 00	 call	 build_senseX

; 509  :         return;

  004b0	e9 14 64 00 00	 jmp	 $LN1@tapedev_ex
$LN41@tapedev_ex:

; 510  :     }
; 511  : 
; 512  :     /* Early determination of CCW validity via TapeCommandTable lookup... */
; 513  : 
; 514  :     drc = TapeCommandIsValid (code, dev->devtype, &rustat);

  004b5	4c 8d 84 24 98
	00 00 00	 lea	 r8, QWORD PTR rustat$[rsp]
  004bd	48 8b 84 24 90
	07 00 00	 mov	 rax, QWORD PTR dev$[rsp]
  004c5	0f b7 50 4a	 movzx	 edx, WORD PTR [rax+74]
  004c9	0f b6 8c 24 98
	07 00 00	 movzx	 ecx, BYTE PTR code$[rsp]
  004d1	e8 00 00 00 00	 call	 TapeCommandIsValid
  004d6	89 84 24 9c 00
	00 00		 mov	 DWORD PTR drc$[rsp], eax

; 515  : 
; 516  :     switch (drc)

  004dd	8b 84 24 9c 00
	00 00		 mov	 eax, DWORD PTR drc$[rsp]
  004e4	89 84 24 c0 00
	00 00		 mov	 DWORD PTR tv211[rsp], eax
  004eb	83 bc 24 c0 00
	00 00 05	 cmp	 DWORD PTR tv211[rsp], 5
  004f3	77 1b		 ja	 SHORT $LN42@tapedev_ex
  004f5	48 63 84 24 c0
	00 00 00	 movsxd	 rax, DWORD PTR tv211[rsp]
  004fd	48 8d 0d 00 00
	00 00		 lea	 rcx, OFFSET FLAT:__ImageBase
  00504	8b 84 81 00 00
	00 00		 mov	 eax, DWORD PTR $LN626@tapedev_ex[rcx+rax*4]
  0050b	48 03 c1	 add	 rax, rcx
  0050e	ff e0		 jmp	 rax
$LN42@tapedev_ex:
$LN9@tapedev_ex:

; 517  :     {
; 518  :         default:    /* Should NOT occur! */
; 519  : 
; 520  :             ASSERT(0);  // (fall thru to case 0 = unsupported)

  00510	33 c0		 xor	 eax, eax
  00512	83 f8 01	 cmp	 eax, 1
  00515	74 5c		 je	 SHORT $LN43@tapedev_ex
$LN12@tapedev_ex:
  00517	4c 8d 0d 00 00
	00 00		 lea	 r9, OFFSET FLAT:$SG169365
  0051e	41 b8 08 02 00
	00		 mov	 r8d, 520		; 00000208H
  00524	48 8d 15 00 00
	00 00		 lea	 rdx, OFFSET FLAT:$SG169366
  0052b	48 8d 0d 00 00
	00 00		 lea	 rcx, OFFSET FLAT:$SG169367
  00532	ff 15 00 00 00
	00		 call	 QWORD PTR __imp_logmsg
  00538	ff 15 00 00 00
	00		 call	 QWORD PTR __imp_IsDebuggerPresent
  0053e	85 c0		 test	 eax, eax
  00540	74 20		 je	 SHORT $LN44@tapedev_ex
  00542	4c 8d 0d 00 00
	00 00		 lea	 r9, OFFSET FLAT:$SG169369
  00549	41 b8 08 02 00
	00		 mov	 r8d, 520		; 00000208H
  0054f	48 8d 15 00 00
	00 00		 lea	 rdx, OFFSET FLAT:$SG169370
  00556	48 8d 0d 00 00
	00 00		 lea	 rcx, OFFSET FLAT:$SG169371
  0055d	e8 00 00 00 00	 call	 DebuggerTrace
$LN44@tapedev_ex:
  00562	33 c0		 xor	 eax, eax
  00564	85 c0		 test	 eax, eax
  00566	75 af		 jne	 SHORT $LN12@tapedev_ex
  00568	ff 15 00 00 00
	00		 call	 QWORD PTR __imp_IsDebuggerPresent
  0056e	85 c0		 test	 eax, eax
  00570	74 01		 je	 SHORT $LN45@tapedev_ex
  00572	cc		 int	 3
$LN45@tapedev_ex:
$LN43@tapedev_ex:
  00573	33 c0		 xor	 eax, eax
  00575	85 c0		 test	 eax, eax
  00577	75 97		 jne	 SHORT $LN9@tapedev_ex
$LN46@tapedev_ex:

; 521  :             /* FALLTHRU */
; 522  : 
; 523  :         case 0:     /* Unsupported CCW code for given device-type */
; 524  : 
; 525  :             build_senseX (TAPE_BSENSE_BADCOMMAND, dev, unitstat, code);

  00579	44 0f b6 8c 24
	98 07 00 00	 movzx	 r9d, BYTE PTR code$[rsp]
  00582	4c 8b 84 24 d8
	07 00 00	 mov	 r8, QWORD PTR unitstat$[rsp]
  0058a	48 8b 94 24 90
	07 00 00	 mov	 rdx, QWORD PTR dev$[rsp]
  00592	b9 04 00 00 00	 mov	 ecx, 4
  00597	e8 00 00 00 00	 call	 build_senseX

; 526  :             return;

  0059c	e9 28 63 00 00	 jmp	 $LN1@tapedev_ex
$LN47@tapedev_ex:

; 527  : 
; 528  :         case 1:     /* Valid - Tape MUST be loaded                    */
; 529  :             break;

  005a1	e9 e5 00 00 00	 jmp	 $LN5@tapedev_ex
$LN48@tapedev_ex:

; 530  : 
; 531  :         case 2:     /* Valid - Tape NEED NOT be loaded                */
; 532  :             break;

  005a6	e9 e0 00 00 00	 jmp	 $LN5@tapedev_ex
$LN49@tapedev_ex:

; 533  : 
; 534  :         case 3:     /* Valid - But is a NO-OP (return CE+DE now) */
; 535  : 
; 536  :             /* Command reject if the volume is currently fenced */
; 537  :             if (dev->fenced)

  005ab	48 8b 84 24 90
	07 00 00	 mov	 rax, QWORD PTR dev$[rsp]
  005b3	8b 80 78 10 00
	00		 mov	 eax, DWORD PTR [rax+4216]
  005b9	83 e0 01	 and	 eax, 1
  005bc	85 c0		 test	 eax, eax
  005be	74 28		 je	 SHORT $LN50@tapedev_ex

; 538  :             {
; 539  :                 build_senseX (TAPE_BSENSE_FENCED, dev, unitstat, code);

  005c0	44 0f b6 8c 24
	98 07 00 00	 movzx	 r9d, BYTE PTR code$[rsp]
  005c9	4c 8b 84 24 d8
	07 00 00	 mov	 r8, QWORD PTR unitstat$[rsp]
  005d1	48 8b 94 24 90
	07 00 00	 mov	 rdx, QWORD PTR dev$[rsp]
  005d9	b9 0a 00 00 00	 mov	 ecx, 10
  005de	e8 00 00 00 00	 call	 build_senseX

; 540  :                 return;

  005e3	e9 e1 62 00 00	 jmp	 $LN1@tapedev_ex
$LN50@tapedev_ex:

; 541  :             }
; 542  : 
; 543  :             build_senseX (TAPE_BSENSE_STATUSONLY, dev, unitstat, code);

  005e8	44 0f b6 8c 24
	98 07 00 00	 movzx	 r9d, BYTE PTR code$[rsp]
  005f1	4c 8b 84 24 d8
	07 00 00	 mov	 r8, QWORD PTR unitstat$[rsp]
  005f9	48 8b 94 24 90
	07 00 00	 mov	 rdx, QWORD PTR dev$[rsp]
  00601	b9 0d 00 00 00	 mov	 ecx, 13
  00606	e8 00 00 00 00	 call	 build_senseX

; 544  :             return;

  0060b	e9 b9 62 00 00	 jmp	 $LN1@tapedev_ex
$LN51@tapedev_ex:

; 545  : 
; 546  :         case 4:     /* Valid, But is a NO-OP (for virtual tapes) */
; 547  : 
; 548  :             /* Command reject if the volume is currently fenced */
; 549  :             if (dev->fenced)

  00610	48 8b 84 24 90
	07 00 00	 mov	 rax, QWORD PTR dev$[rsp]
  00618	8b 80 78 10 00
	00		 mov	 eax, DWORD PTR [rax+4216]
  0061e	83 e0 01	 and	 eax, 1
  00621	85 c0		 test	 eax, eax
  00623	74 28		 je	 SHORT $LN52@tapedev_ex

; 550  :             {
; 551  :                 build_senseX (TAPE_BSENSE_FENCED, dev, unitstat, code);

  00625	44 0f b6 8c 24
	98 07 00 00	 movzx	 r9d, BYTE PTR code$[rsp]
  0062e	4c 8b 84 24 d8
	07 00 00	 mov	 r8, QWORD PTR unitstat$[rsp]
  00636	48 8b 94 24 90
	07 00 00	 mov	 rdx, QWORD PTR dev$[rsp]
  0063e	b9 0a 00 00 00	 mov	 ecx, 10
  00643	e8 00 00 00 00	 call	 build_senseX

; 552  :                 return;

  00648	e9 7c 62 00 00	 jmp	 $LN1@tapedev_ex
$LN52@tapedev_ex:

; 553  :             }
; 554  : 
; 555  :             /* If non-virtual (SCSI) then further processing required */
; 556  :             if (dev->tapedevt == TAPEDEVT_SCSITAPE)

  0064d	48 8b 84 24 90
	07 00 00	 mov	 rax, QWORD PTR dev$[rsp]
  00655	0f b6 80 dc 10
	00 00		 movzx	 eax, BYTE PTR [rax+4316]
  0065c	83 f8 03	 cmp	 eax, 3
  0065f	75 02		 jne	 SHORT $LN53@tapedev_ex

; 557  :                 break;

  00661	eb 28		 jmp	 SHORT $LN5@tapedev_ex
$LN53@tapedev_ex:

; 558  : 
; 559  :             build_senseX (TAPE_BSENSE_STATUSONLY, dev, unitstat, code);

  00663	44 0f b6 8c 24
	98 07 00 00	 movzx	 r9d, BYTE PTR code$[rsp]
  0066c	4c 8b 84 24 d8
	07 00 00	 mov	 r8, QWORD PTR unitstat$[rsp]
  00674	48 8b 94 24 90
	07 00 00	 mov	 rdx, QWORD PTR dev$[rsp]
  0067c	b9 0d 00 00 00	 mov	 ecx, 13
  00681	e8 00 00 00 00	 call	 build_senseX

; 560  :             return;

  00686	e9 3e 62 00 00	 jmp	 $LN1@tapedev_ex
$LN54@tapedev_ex:
$LN5@tapedev_ex:

; 561  : 
; 562  :         case 5:     /* Valid - Tape MUST be loaded (add DE to status) */
; 563  :             break;
; 564  :     }
; 565  :     // end switch (drc)
; 566  : 
; 567  :     /* Verify a tape is loaded if that is required for this CCW... */
; 568  : 
; 569  :     if ((1 == drc || 5 == drc) &&                               // (tape MUST be loaded?)

  0068b	83 bc 24 9c 00
	00 00 01	 cmp	 DWORD PTR drc$[rsp], 1
  00693	74 0e		 je	 SHORT $LN56@tapedev_ex
  00695	83 bc 24 9c 00
	00 00 05	 cmp	 DWORD PTR drc$[rsp], 5
  0069d	0f 85 20 01 00
	00		 jne	 $LN55@tapedev_ex
$LN56@tapedev_ex:
  006a3	48 8b 84 24 90
	07 00 00	 mov	 rax, QWORD PTR dev$[rsp]
  006ab	83 b8 ac 01 00
	00 00		 cmp	 DWORD PTR [rax+428], 0
  006b2	7c 18		 jl	 SHORT $LN57@tapedev_ex
  006b4	48 8b 84 24 90
	07 00 00	 mov	 rax, QWORD PTR dev$[rsp]
  006bc	0f b6 80 dc 10
	00 00		 movzx	 eax, BYTE PTR [rax+4316]
  006c3	83 f8 03	 cmp	 eax, 3
  006c6	0f 85 f7 00 00
	00		 jne	 $LN55@tapedev_ex
$LN57@tapedev_ex:

; 570  :         (dev->fd < 0 || TAPEDEVT_SCSITAPE == dev->tapedevt))    // (no tape loaded or non-virtual?)
; 571  :     {
; 572  :         *residual = count;

  006cc	48 8b 84 24 e0
	07 00 00	 mov	 rax, QWORD PTR residual$[rsp]
  006d4	8b 8c 24 b0 07
	00 00		 mov	 ecx, DWORD PTR count$[rsp]
  006db	89 08		 mov	 DWORD PTR [rax], ecx

; 573  : 
; 574  :         /* Error if tape unloaded */
; 575  :         if (!strcmp (dev->filename, TAPE_UNLOADED))

  006dd	48 8b 84 24 90
	07 00 00	 mov	 rax, QWORD PTR dev$[rsp]
  006e5	48 05 a4 00 00
	00		 add	 rax, 164		; 000000a4H
  006eb	48 8d 15 00 00
	00 00		 lea	 rdx, OFFSET FLAT:$SG169386
  006f2	48 8b c8	 mov	 rcx, rax
  006f5	e8 00 00 00 00	 call	 strcmp
  006fa	85 c0		 test	 eax, eax
  006fc	75 25		 jne	 SHORT $LN58@tapedev_ex

; 576  :         {
; 577  :             build_senseX (TAPE_BSENSE_TAPEUNLOADED, dev, unitstat, code);

  006fe	44 0f b6 8c 24
	98 07 00 00	 movzx	 r9d, BYTE PTR code$[rsp]
  00707	4c 8b 84 24 d8
	07 00 00	 mov	 r8, QWORD PTR unitstat$[rsp]
  0070f	48 8b 94 24 90
	07 00 00	 mov	 rdx, QWORD PTR dev$[rsp]
  00717	33 c9		 xor	 ecx, ecx
  00719	e8 00 00 00 00	 call	 build_senseX

; 578  :             return;

  0071e	e9 a6 61 00 00	 jmp	 $LN1@tapedev_ex
$LN58@tapedev_ex:

; 579  :         }
; 580  : 
; 581  :         /* Open the device file if necessary */
; 582  :         if (dev->fd < 0)

  00723	48 8b 84 24 90
	07 00 00	 mov	 rax, QWORD PTR dev$[rsp]
  0072b	83 b8 ac 01 00
	00 00		 cmp	 DWORD PTR [rax+428], 0
  00732	7d 3b		 jge	 SHORT $LN59@tapedev_ex

; 583  :         {
; 584  :             rc = dev->tmh->open( dev, unitstat, code );

  00734	48 8b 84 24 90
	07 00 00	 mov	 rax, QWORD PTR dev$[rsp]
  0073c	48 8b 80 e0 10
	00 00		 mov	 rax, QWORD PTR [rax+4320]
  00743	44 0f b6 84 24
	98 07 00 00	 movzx	 r8d, BYTE PTR code$[rsp]
  0074c	48 8b 94 24 d8
	07 00 00	 mov	 rdx, QWORD PTR unitstat$[rsp]
  00754	48 8b 8c 24 90
	07 00 00	 mov	 rcx, QWORD PTR dev$[rsp]
  0075c	ff 50 08	 call	 QWORD PTR [rax+8]
  0075f	89 44 24 78	 mov	 DWORD PTR rc$[rsp], eax

; 585  : 
; 586  :             if (rc < 0)     /* Did open fail? */

  00763	83 7c 24 78 00	 cmp	 DWORD PTR rc$[rsp], 0
  00768	7d 05		 jge	 SHORT $LN60@tapedev_ex

; 587  :             {
; 588  :                 return;     /* Yes, exit with unit status */

  0076a	e9 5a 61 00 00	 jmp	 $LN1@tapedev_ex
$LN60@tapedev_ex:
$LN59@tapedev_ex:

; 589  :             }
; 590  :         }
; 591  : 
; 592  :         /* Error if tape is not loaded */
; 593  :         if (!dev->tmh->tapeloaded( dev, unitstat, code ))

  0076f	48 8b 84 24 90
	07 00 00	 mov	 rax, QWORD PTR dev$[rsp]
  00777	48 8b 80 e0 10
	00 00		 mov	 rax, QWORD PTR [rax+4320]
  0077e	44 0f b6 84 24
	98 07 00 00	 movzx	 r8d, BYTE PTR code$[rsp]
  00787	48 8b 94 24 d8
	07 00 00	 mov	 rdx, QWORD PTR unitstat$[rsp]
  0078f	48 8b 8c 24 90
	07 00 00	 mov	 rcx, QWORD PTR dev$[rsp]
  00797	ff 50 70	 call	 QWORD PTR [rax+112]
  0079a	85 c0		 test	 eax, eax
  0079c	75 25		 jne	 SHORT $LN61@tapedev_ex

; 594  :         {
; 595  :             build_senseX (TAPE_BSENSE_TAPEUNLOADED, dev, unitstat, code);

  0079e	44 0f b6 8c 24
	98 07 00 00	 movzx	 r9d, BYTE PTR code$[rsp]
  007a7	4c 8b 84 24 d8
	07 00 00	 mov	 r8, QWORD PTR unitstat$[rsp]
  007af	48 8b 94 24 90
	07 00 00	 mov	 rdx, QWORD PTR dev$[rsp]
  007b7	33 c9		 xor	 ecx, ecx
  007b9	e8 00 00 00 00	 call	 build_senseX

; 596  :             return;

  007be	e9 06 61 00 00	 jmp	 $LN1@tapedev_ex
$LN61@tapedev_ex:
$LN55@tapedev_ex:

; 597  :         }
; 598  :     }
; 599  : 
; 600  :     /* Process depending on CCW opcode */
; 601  :     switch (code) {

  007c3	0f b6 84 24 98
	07 00 00	 movzx	 eax, BYTE PTR code$[rsp]
  007cb	89 84 24 90 00
	00 00		 mov	 DWORD PTR tv294[rsp], eax
  007d2	8b 84 24 90 00
	00 00		 mov	 eax, DWORD PTR tv294[rsp]
  007d9	ff c8		 dec	 eax
  007db	89 84 24 90 00
	00 00		 mov	 DWORD PTR tv294[rsp], eax
  007e2	81 bc 24 90 00
	00 00 f9 00 00
	00		 cmp	 DWORD PTR tv294[rsp], 249 ; 000000f9H
  007ed	0f 87 b3 60 00
	00		 ja	 $LN376@tapedev_ex
  007f3	48 63 84 24 90
	00 00 00	 movsxd	 rax, DWORD PTR tv294[rsp]
  007fb	48 8d 0d 00 00
	00 00		 lea	 rcx, OFFSET FLAT:__ImageBase
  00802	0f b6 84 01 00
	00 00 00	 movzx	 eax, BYTE PTR $LN624@tapedev_ex[rcx+rax]
  0080a	8b 84 81 00 00
	00 00		 mov	 eax, DWORD PTR $LN625@tapedev_ex[rcx+rax*4]
  00811	48 03 c1	 add	 rax, rcx
  00814	ff e0		 jmp	 rax
$LN62@tapedev_ex:
$LN63@tapedev_ex:
$LN64@tapedev_ex:
$LN65@tapedev_ex:
$LN66@tapedev_ex:
$LN67@tapedev_ex:
$LN68@tapedev_ex:
$LN69@tapedev_ex:
$LN70@tapedev_ex:
$LN71@tapedev_ex:
$LN72@tapedev_ex:
$LN73@tapedev_ex:
$LN74@tapedev_ex:
$LN75@tapedev_ex:
$LN76@tapedev_ex:

; 602  : 
; 603  :     /*---------------------------------------------------------------*/
; 604  :     /* MODE SET   (pre-3480 and earlier drives)                      */
; 605  :     /*---------------------------------------------------------------*/
; 606  :         /* Patch to no-op modeset 1 (7-track) commands -             */
; 607  :         /*   causes VM problems                                      */
; 608  :         /* Andy Norrie 2002/10/06                                    */
; 609  :     case 0x13:
; 610  :     case 0x23:
; 611  :     case 0x33:
; 612  :     case 0x3B:
; 613  :     case 0x53:
; 614  :     case 0x63:
; 615  :     case 0x6B:
; 616  : //  case 0x73:  // Mode Set (7-track 556/Odd/Normal) for 3420-3/5/7
; 617  :                 // with 7-track feature installed, No-op for 3420-2/4/6
; 618  :                 // and 3480, Invalid for 3422/3430, "Set Interface
; 619  :                 // Identifier" for 3490 and later. NOTE: 3480 and earlier
; 620  :                 // interpretation handled by command-table; 3490 and
; 621  :                 // and later handled further below.
; 622  :     case 0x7B:
; 623  :     case 0x93:
; 624  :     case 0xA3:
; 625  :     case 0xAB:
; 626  :     case 0xB3:
; 627  :     case 0xBB:
; 628  : //  case 0xC3:  // Mode Set (9-track 1600 bpi) for models earlier than
; 629  :                 // 3480, "Set Tape-Write-Immediate" for 3480 and later.
; 630  :                 // NOTE: handled by command-table for all models earlier
; 631  :                 // than 3480; 3480 and later handled further below.
; 632  : //  case 0xCB:  // "Mode Set" (9-track 800 bpi) for some models (3410,
; 633  :                 // 3420, etc.) but some other unknown command for other
; 634  :                 // models (3480, 3590, etc) and completely invalid for
; 635  :                 // yet other models (3422, 3430). For all device types
; 636  :                 // except 3590, this code is handled by command-table
; 637  :                 // and not here. For 3590, it is handled further below.
; 638  :     case 0xD3: /* 9-track 6250 bpi */
; 639  :     case 0xEB: /* invalid mode set issued by DOS/VS */
; 640  :     {
; 641  :         build_senseX(TAPE_BSENSE_STATUSONLY,dev,unitstat,code);

  00816	44 0f b6 8c 24
	98 07 00 00	 movzx	 r9d, BYTE PTR code$[rsp]
  0081f	4c 8b 84 24 d8
	07 00 00	 mov	 r8, QWORD PTR unitstat$[rsp]
  00827	48 8b 94 24 90
	07 00 00	 mov	 rdx, QWORD PTR dev$[rsp]
  0082f	b9 0d 00 00 00	 mov	 ecx, 13
  00834	e8 00 00 00 00	 call	 build_senseX

; 642  :         break;

  00839	e9 8b 60 00 00	 jmp	 $LN13@tapedev_ex
$LN77@tapedev_ex:

; 643  :     }
; 644  : 
; 645  :     /*---------------------------------------------------------------*/
; 646  :     /* WRITE                                                         */
; 647  :     /*---------------------------------------------------------------*/
; 648  :     case 0x01:
; 649  :     {
; 650  :         /* Command reject if the volume is currently fenced */
; 651  :         if (dev->fenced)

  0083e	48 8b 84 24 90
	07 00 00	 mov	 rax, QWORD PTR dev$[rsp]
  00846	8b 80 78 10 00
	00		 mov	 eax, DWORD PTR [rax+4216]
  0084c	83 e0 01	 and	 eax, 1
  0084f	85 c0		 test	 eax, eax
  00851	74 28		 je	 SHORT $LN78@tapedev_ex

; 652  :         {
; 653  :             build_senseX (TAPE_BSENSE_FENCED, dev, unitstat, code);

  00853	44 0f b6 8c 24
	98 07 00 00	 movzx	 r9d, BYTE PTR code$[rsp]
  0085c	4c 8b 84 24 d8
	07 00 00	 mov	 r8, QWORD PTR unitstat$[rsp]
  00864	48 8b 94 24 90
	07 00 00	 mov	 rdx, QWORD PTR dev$[rsp]
  0086c	b9 0a 00 00 00	 mov	 ecx, 10
  00871	e8 00 00 00 00	 call	 build_senseX

; 654  :             break;

  00876	e9 4e 60 00 00	 jmp	 $LN13@tapedev_ex
$LN78@tapedev_ex:

; 655  :         }
; 656  : 
; 657  :         /* Unit check if tape is write-protected */
; 658  :         if (dev->readonly || dev->tdparms.logical_readonly)

  0087b	48 8b 84 24 90
	07 00 00	 mov	 rax, QWORD PTR dev$[rsp]
  00883	8b 80 78 10 00
	00		 mov	 eax, DWORD PTR [rax+4216]
  00889	d1 e8		 shr	 eax, 1
  0088b	83 e0 01	 and	 eax, 1
  0088e	85 c0		 test	 eax, eax
  00890	75 18		 jne	 SHORT $LN80@tapedev_ex
  00892	48 8b 84 24 90
	07 00 00	 mov	 rax, QWORD PTR dev$[rsp]
  0089a	8b 80 30 10 00
	00		 mov	 eax, DWORD PTR [rax+4144]
  008a0	c1 e8 0b	 shr	 eax, 11
  008a3	83 e0 01	 and	 eax, 1
  008a6	85 c0		 test	 eax, eax
  008a8	74 28		 je	 SHORT $LN79@tapedev_ex
$LN80@tapedev_ex:

; 659  :         {
; 660  :             build_senseX (TAPE_BSENSE_WRITEPROTECT, dev, unitstat, code);

  008aa	44 0f b6 8c 24
	98 07 00 00	 movzx	 r9d, BYTE PTR code$[rsp]
  008b3	4c 8b 84 24 d8
	07 00 00	 mov	 r8, QWORD PTR unitstat$[rsp]
  008bb	48 8b 94 24 90
	07 00 00	 mov	 rdx, QWORD PTR dev$[rsp]
  008c3	b9 06 00 00 00	 mov	 ecx, 6
  008c8	e8 00 00 00 00	 call	 build_senseX

; 661  :             break;

  008cd	e9 f7 5f 00 00	 jmp	 $LN13@tapedev_ex
$LN79@tapedev_ex:

; 662  :         }
; 663  : 
; 664  :         /* Update matrix display if needed */
; 665  :         if ( TAPEDISPTYP_WAITACT == dev->tapedisptype )

  008d2	48 8b 84 24 90
	07 00 00	 mov	 rax, QWORD PTR dev$[rsp]
  008da	0f b6 80 60 11
	00 00		 movzx	 eax, BYTE PTR [rax+4448]
  008e1	83 f8 09	 cmp	 eax, 9
  008e4	75 1c		 jne	 SHORT $LN81@tapedev_ex

; 666  :         {
; 667  :             dev->tapedisptype = TAPEDISPTYP_IDLE;

  008e6	48 8b 84 24 90
	07 00 00	 mov	 rax, QWORD PTR dev$[rsp]
  008ee	c6 80 60 11 00
	00 00		 mov	 BYTE PTR [rax+4448], 0

; 668  :             UpdateDisplay( dev );

  008f5	48 8b 8c 24 90
	07 00 00	 mov	 rcx, QWORD PTR dev$[rsp]
  008fd	e8 00 00 00 00	 call	 UpdateDisplay
$LN81@tapedev_ex:

; 669  :         }
; 670  : 
; 671  :         /* Assign a unique Message Id for this I/O if needed */
; 672  :         INCREMENT_MESSAGEID(dev);

  00902	48 8b 84 24 90
	07 00 00	 mov	 rax, QWORD PTR dev$[rsp]
  0090a	8b 80 78 10 00
	00		 mov	 eax, DWORD PTR [rax+4216]
  00910	c1 e8 03	 shr	 eax, 3
  00913	83 e0 01	 and	 eax, 1
  00916	85 c0		 test	 eax, eax
  00918	74 1e		 je	 SHORT $LN82@tapedev_ex
  0091a	48 8b 84 24 90
	07 00 00	 mov	 rax, QWORD PTR dev$[rsp]
  00922	8b 80 d8 10 00
	00		 mov	 eax, DWORD PTR [rax+4312]
  00928	ff c0		 inc	 eax
  0092a	48 8b 8c 24 90
	07 00 00	 mov	 rcx, QWORD PTR dev$[rsp]
  00932	89 81 d8 10 00
	00		 mov	 DWORD PTR [rcx+4312], eax
$LN82@tapedev_ex:

; 673  : 
; 674  :         /* Write a block to the tape according to device type */
; 675  :         if ((rc = dev->tmh->write( dev, iobuf, count, unitstat, code)) < 0)

  00938	48 8b 84 24 90
	07 00 00	 mov	 rax, QWORD PTR dev$[rsp]
  00940	48 8b 80 e0 10
	00 00		 mov	 rax, QWORD PTR [rax+4320]
  00947	0f b6 8c 24 98
	07 00 00	 movzx	 ecx, BYTE PTR code$[rsp]
  0094f	88 4c 24 20	 mov	 BYTE PTR [rsp+32], cl
  00953	4c 8b 8c 24 d8
	07 00 00	 mov	 r9, QWORD PTR unitstat$[rsp]
  0095b	44 8b 84 24 b0
	07 00 00	 mov	 r8d, DWORD PTR count$[rsp]
  00963	48 8b 94 24 c8
	07 00 00	 mov	 rdx, QWORD PTR iobuf$[rsp]
  0096b	48 8b 8c 24 90
	07 00 00	 mov	 rcx, QWORD PTR dev$[rsp]
  00973	ff 50 20	 call	 QWORD PTR [rax+32]
  00976	89 44 24 78	 mov	 DWORD PTR rc$[rsp], eax
  0097a	83 7c 24 78 00	 cmp	 DWORD PTR rc$[rsp], 0
  0097f	7d 05		 jge	 SHORT $LN83@tapedev_ex

; 676  :             break;      // (error)

  00981	e9 43 5f 00 00	 jmp	 $LN13@tapedev_ex
$LN83@tapedev_ex:

; 677  : 
; 678  :         *residual = 0;

  00986	48 8b 84 24 e0
	07 00 00	 mov	 rax, QWORD PTR residual$[rsp]
  0098e	c7 00 00 00 00
	00		 mov	 DWORD PTR [rax], 0

; 679  : 
; 680  :         /* Perform flush/sync and/or set normal completion status */
; 681  :         if (0
; 682  :             || !dev->write_immed
; 683  :             || (rc = dev->tmh->sync( dev, unitstat, code )) == 0

  00994	33 c0		 xor	 eax, eax
  00996	85 c0		 test	 eax, eax
  00998	75 4e		 jne	 SHORT $LN85@tapedev_ex
  0099a	48 8b 84 24 90
	07 00 00	 mov	 rax, QWORD PTR dev$[rsp]
  009a2	8b 80 78 10 00
	00		 mov	 eax, DWORD PTR [rax+4216]
  009a8	c1 e8 08	 shr	 eax, 8
  009ab	83 e0 01	 and	 eax, 1
  009ae	85 c0		 test	 eax, eax
  009b0	74 36		 je	 SHORT $LN85@tapedev_ex
  009b2	48 8b 84 24 90
	07 00 00	 mov	 rax, QWORD PTR dev$[rsp]
  009ba	48 8b 80 e0 10
	00 00		 mov	 rax, QWORD PTR [rax+4320]
  009c1	44 0f b6 84 24
	98 07 00 00	 movzx	 r8d, BYTE PTR code$[rsp]
  009ca	48 8b 94 24 d8
	07 00 00	 mov	 rdx, QWORD PTR unitstat$[rsp]
  009d2	48 8b 8c 24 90
	07 00 00	 mov	 rcx, QWORD PTR dev$[rsp]
  009da	ff 50 58	 call	 QWORD PTR [rax+88]
  009dd	89 44 24 78	 mov	 DWORD PTR rc$[rsp], eax
  009e1	83 7c 24 78 00	 cmp	 DWORD PTR rc$[rsp], 0
  009e6	75 23		 jne	 SHORT $LN84@tapedev_ex
$LN85@tapedev_ex:

; 684  :         )
; 685  :             build_senseX( TAPE_BSENSE_STATUSONLY, dev, unitstat, code );

  009e8	44 0f b6 8c 24
	98 07 00 00	 movzx	 r9d, BYTE PTR code$[rsp]
  009f1	4c 8b 84 24 d8
	07 00 00	 mov	 r8, QWORD PTR unitstat$[rsp]
  009f9	48 8b 94 24 90
	07 00 00	 mov	 rdx, QWORD PTR dev$[rsp]
  00a01	b9 0d 00 00 00	 mov	 ecx, 13
  00a06	e8 00 00 00 00	 call	 build_senseX
$LN84@tapedev_ex:

; 686  : 
; 687  :         break;

  00a0b	e9 b9 5e 00 00	 jmp	 $LN13@tapedev_ex
$LN86@tapedev_ex:

; 688  :     }
; 689  : 
; 690  :     /*---------------------------------------------------------------*/
; 691  :     /* READ FORWARD  (3590 only)                                     */
; 692  :     /*---------------------------------------------------------------*/
; 693  :     case 0x06:
; 694  :     {
; 695  :         if (!RDFWD_SUPPORTED())

  00a10	b8 01 00 00 00	 mov	 eax, 1
  00a15	48 6b c0 00	 imul	 rax, rax, 0
  00a19	48 8b 8c 24 90
	07 00 00	 mov	 rcx, QWORD PTR dev$[rsp]
  00a21	48 8d 84 01 78
	05 00 00	 lea	 rax, QWORD PTR [rcx+rax+1400]
  00a29	ba 00 00 80 00	 mov	 edx, 8388608		; 00800000H
  00a2e	48 8b c8	 mov	 rcx, rax
  00a31	e8 00 00 00 00	 call	 is_tape_feat
  00a36	0f b6 c0	 movzx	 eax, al
  00a39	85 c0		 test	 eax, eax
  00a3b	75 28		 jne	 SHORT $LN87@tapedev_ex

; 696  :         {
; 697  :             build_senseX (TAPE_BSENSE_BADCOMMAND, dev, unitstat, code);

  00a3d	44 0f b6 8c 24
	98 07 00 00	 movzx	 r9d, BYTE PTR code$[rsp]
  00a46	4c 8b 84 24 d8
	07 00 00	 mov	 r8, QWORD PTR unitstat$[rsp]
  00a4e	48 8b 94 24 90
	07 00 00	 mov	 rdx, QWORD PTR dev$[rsp]
  00a56	b9 04 00 00 00	 mov	 ecx, 4
  00a5b	e8 00 00 00 00	 call	 build_senseX

; 698  :             break;

  00a60	e9 64 5e 00 00	 jmp	 $LN13@tapedev_ex
$LN87@tapedev_ex:
$LN88@tapedev_ex:

; 699  :         }
; 700  : 
; 701  :         /*   SG24-2506 IBM 3590 Tape Subsystem Technical Guide
; 702  : 
; 703  :         5.2.1 Separate Channel Commands for IPL Read and Normal Read
; 704  : 
; 705  :         On IBM 3480/3490 tape devices there is only one Read Forward
; 706  :         CCW, the X'02' command code.  This CCW is used to perform
; 707  :         not only normal read operations but also an IPL Read from
; 708  :         tape, for example, DFSMSdss Stand-Alone Restore.  When the
; 709  :         CCW is used as an IPL Read, it is not subject to resetting
; 710  :         event notification, by definition.  Because there is only
; 711  :         one Read Forward CCW, it cannot be subject to resetting event
; 712  :         notification on IBM 3480 and 3490 devices.
; 713  : 
; 714  :         To differentiate between an IPL Read and a normal read
; 715  :         forward operation, the X'02' command code has been redefined
; 716  :         to be the IPL Read CCW, and a new X'06' command code has been
; 717  :         defined to be the Read Forward CCW.  The new Read Forward
; 718  :         CCW, X'06', is subject to resetting event notification, as
; 719  :         should be the case for normal read CCWs issued by applications
; 720  :         or other host software.
; 721  :         */
; 722  : 
; 723  :         // PROGRAMMING NOTE: I'm not sure what they mean by "resetting
; 724  :         // event notification" above, but for now we'll just FALL THROUGH
; 725  :         // to the below IPL READ logic...
; 726  :     }
; 727  : 
; 728  :     /* (purposely FALL THROUGH to below IPL READ logic for now) */
; 729  :     /* comment Below to silent GCC warning */
; 730  :     /* FALLTHRU */
; 731  : 
; 732  :     /*---------------------------------------------------------------*/
; 733  :     /* IPL READ  (non-3590)                                          */
; 734  :     /*---------------------------------------------------------------*/
; 735  :     case 0x02:
; 736  :     {
; 737  :         /* Command reject if the volume is currently fenced */
; 738  :         if (dev->fenced)

  00a65	48 8b 84 24 90
	07 00 00	 mov	 rax, QWORD PTR dev$[rsp]
  00a6d	8b 80 78 10 00
	00		 mov	 eax, DWORD PTR [rax+4216]
  00a73	83 e0 01	 and	 eax, 1
  00a76	85 c0		 test	 eax, eax
  00a78	74 28		 je	 SHORT $LN89@tapedev_ex

; 739  :         {
; 740  :             build_senseX (TAPE_BSENSE_FENCED, dev, unitstat, code);

  00a7a	44 0f b6 8c 24
	98 07 00 00	 movzx	 r9d, BYTE PTR code$[rsp]
  00a83	4c 8b 84 24 d8
	07 00 00	 mov	 r8, QWORD PTR unitstat$[rsp]
  00a8b	48 8b 94 24 90
	07 00 00	 mov	 rdx, QWORD PTR dev$[rsp]
  00a93	b9 0a 00 00 00	 mov	 ecx, 10
  00a98	e8 00 00 00 00	 call	 build_senseX

; 741  :             break;

  00a9d	e9 27 5e 00 00	 jmp	 $LN13@tapedev_ex
$LN89@tapedev_ex:

; 742  :         }
; 743  : 
; 744  :         /* Update matrix display if needed */
; 745  :         if ( TAPEDISPTYP_WAITACT == dev->tapedisptype )

  00aa2	48 8b 84 24 90
	07 00 00	 mov	 rax, QWORD PTR dev$[rsp]
  00aaa	0f b6 80 60 11
	00 00		 movzx	 eax, BYTE PTR [rax+4448]
  00ab1	83 f8 09	 cmp	 eax, 9
  00ab4	75 1c		 jne	 SHORT $LN90@tapedev_ex

; 746  :         {
; 747  :             dev->tapedisptype = TAPEDISPTYP_IDLE;

  00ab6	48 8b 84 24 90
	07 00 00	 mov	 rax, QWORD PTR dev$[rsp]
  00abe	c6 80 60 11 00
	00 00		 mov	 BYTE PTR [rax+4448], 0

; 748  :             UpdateDisplay( dev );

  00ac5	48 8b 8c 24 90
	07 00 00	 mov	 rcx, QWORD PTR dev$[rsp]
  00acd	e8 00 00 00 00	 call	 UpdateDisplay
$LN90@tapedev_ex:

; 749  :         }
; 750  : 
; 751  :         /* Assign a unique Message Id for this I/O if needed */
; 752  :         INCREMENT_MESSAGEID(dev);

  00ad2	48 8b 84 24 90
	07 00 00	 mov	 rax, QWORD PTR dev$[rsp]
  00ada	8b 80 78 10 00
	00		 mov	 eax, DWORD PTR [rax+4216]
  00ae0	c1 e8 03	 shr	 eax, 3
  00ae3	83 e0 01	 and	 eax, 1
  00ae6	85 c0		 test	 eax, eax
  00ae8	74 1e		 je	 SHORT $LN91@tapedev_ex
  00aea	48 8b 84 24 90
	07 00 00	 mov	 rax, QWORD PTR dev$[rsp]
  00af2	8b 80 d8 10 00
	00		 mov	 eax, DWORD PTR [rax+4312]
  00af8	ff c0		 inc	 eax
  00afa	48 8b 8c 24 90
	07 00 00	 mov	 rcx, QWORD PTR dev$[rsp]
  00b02	89 81 d8 10 00
	00		 mov	 DWORD PTR [rcx+4312], eax
$LN91@tapedev_ex:

; 753  : 
; 754  :         /* Read a block from the tape according to device type */
; 755  :         /* Exit with unit check status if read error condition */
; 756  :         if ((S32)(len = dev->tmh->read( dev, dev->buf, unitstat, code)) < 0)

  00b08	48 8b 84 24 90
	07 00 00	 mov	 rax, QWORD PTR dev$[rsp]
  00b10	48 8b 80 e0 10
	00 00		 mov	 rax, QWORD PTR [rax+4320]
  00b17	44 0f b6 8c 24
	98 07 00 00	 movzx	 r9d, BYTE PTR code$[rsp]
  00b20	4c 8b 84 24 d8
	07 00 00	 mov	 r8, QWORD PTR unitstat$[rsp]
  00b28	48 8b 8c 24 90
	07 00 00	 mov	 rcx, QWORD PTR dev$[rsp]
  00b30	48 8b 91 c8 01
	00 00		 mov	 rdx, QWORD PTR [rcx+456]
  00b37	48 8b 8c 24 90
	07 00 00	 mov	 rcx, QWORD PTR dev$[rsp]
  00b3f	ff 50 18	 call	 QWORD PTR [rax+24]
  00b42	89 44 24 70	 mov	 DWORD PTR len$[rsp], eax
  00b46	83 7c 24 70 00	 cmp	 DWORD PTR len$[rsp], 0
  00b4b	7d 05		 jge	 SHORT $LN92@tapedev_ex

; 757  :             break;      // (error)

  00b4d	e9 77 5d 00 00	 jmp	 $LN13@tapedev_ex
$LN92@tapedev_ex:

; 758  : 
; 759  :         /* Calculate number of bytes to read and residual byte count */
; 760  :         RESIDUAL_CALC (len);

  00b52	8b 44 24 70	 mov	 eax, DWORD PTR len$[rsp]
  00b56	89 44 24 70	 mov	 DWORD PTR len$[rsp], eax
  00b5a	8b 44 24 70	 mov	 eax, DWORD PTR len$[rsp]
  00b5e	39 84 24 b0 07
	00 00		 cmp	 DWORD PTR count$[rsp], eax
  00b65	73 10		 jae	 SHORT $LN396@tapedev_ex
  00b67	8b 84 24 b0 07
	00 00		 mov	 eax, DWORD PTR count$[rsp]
  00b6e	89 84 24 c4 00
	00 00		 mov	 DWORD PTR tv399[rsp], eax
  00b75	eb 0b		 jmp	 SHORT $LN397@tapedev_ex
$LN396@tapedev_ex:
  00b77	8b 44 24 70	 mov	 eax, DWORD PTR len$[rsp]
  00b7b	89 84 24 c4 00
	00 00		 mov	 DWORD PTR tv399[rsp], eax
$LN397@tapedev_ex:
  00b82	8b 84 24 c4 00
	00 00		 mov	 eax, DWORD PTR tv399[rsp]
  00b89	89 44 24 74	 mov	 DWORD PTR num$[rsp], eax
  00b8d	8b 44 24 74	 mov	 eax, DWORD PTR num$[rsp]
  00b91	8b 8c 24 b0 07
	00 00		 mov	 ecx, DWORD PTR count$[rsp]
  00b98	2b c8		 sub	 ecx, eax
  00b9a	8b c1		 mov	 eax, ecx
  00b9c	48 8b 8c 24 e0
	07 00 00	 mov	 rcx, QWORD PTR residual$[rsp]
  00ba4	89 01		 mov	 DWORD PTR [rcx], eax
  00ba6	8b 44 24 70	 mov	 eax, DWORD PTR len$[rsp]
  00baa	39 84 24 b0 07
	00 00		 cmp	 DWORD PTR count$[rsp], eax
  00bb1	73 0b		 jae	 SHORT $LN93@tapedev_ex
  00bb3	48 8b 84 24 d0
	07 00 00	 mov	 rax, QWORD PTR more$[rsp]
  00bbb	c6 00 01	 mov	 BYTE PTR [rax], 1
$LN93@tapedev_ex:

; 761  : 
; 762  :         /* Copy data to I/O buffer */
; 763  :         memcpy (iobuf, dev->buf, num);

  00bbe	8b 44 24 74	 mov	 eax, DWORD PTR num$[rsp]
  00bc2	48 8b 8c 24 90
	07 00 00	 mov	 rcx, QWORD PTR dev$[rsp]
  00bca	48 8b bc 24 c8
	07 00 00	 mov	 rdi, QWORD PTR iobuf$[rsp]
  00bd2	48 8b b1 c8 01
	00 00		 mov	 rsi, QWORD PTR [rcx+456]
  00bd9	8b c8		 mov	 ecx, eax
  00bdb	f3 a4		 rep movsb

; 764  : 
; 765  :         /* Save size and offset of data not used by this CCW */
; 766  :         dev->curblkrem = len - num;

  00bdd	8b 44 24 74	 mov	 eax, DWORD PTR num$[rsp]
  00be1	8b 4c 24 70	 mov	 ecx, DWORD PTR len$[rsp]
  00be5	2b c8		 sub	 ecx, eax
  00be7	8b c1		 mov	 eax, ecx
  00be9	48 8b 8c 24 90
	07 00 00	 mov	 rcx, QWORD PTR dev$[rsp]
  00bf1	89 81 18 10 00
	00		 mov	 DWORD PTR [rcx+4120], eax

; 767  :         dev->curbufoff = num;

  00bf7	48 8b 84 24 90
	07 00 00	 mov	 rax, QWORD PTR dev$[rsp]
  00bff	8b 4c 24 74	 mov	 ecx, DWORD PTR num$[rsp]
  00c03	89 88 1c 10 00
	00		 mov	 DWORD PTR [rax+4124], ecx

; 768  :         dev->buflen = len;

  00c09	48 8b 84 24 90
	07 00 00	 mov	 rax, QWORD PTR dev$[rsp]
  00c11	8b 4c 24 70	 mov	 ecx, DWORD PTR len$[rsp]
  00c15	89 88 dc 01 00
	00		 mov	 DWORD PTR [rax+476], ecx

; 769  : 
; 770  :         /* Exit with unit exception status if tapemark was read */
; 771  :         if (len == 0)

  00c1b	83 7c 24 70 00	 cmp	 DWORD PTR len$[rsp], 0
  00c20	75 25		 jne	 SHORT $LN94@tapedev_ex

; 772  :             build_senseX (TAPE_BSENSE_READTM, dev, unitstat, code);

  00c22	44 0f b6 8c 24
	98 07 00 00	 movzx	 r9d, BYTE PTR code$[rsp]
  00c2b	4c 8b 84 24 d8
	07 00 00	 mov	 r8, QWORD PTR unitstat$[rsp]
  00c33	48 8b 94 24 90
	07 00 00	 mov	 rdx, QWORD PTR dev$[rsp]
  00c3b	b9 0f 00 00 00	 mov	 ecx, 15
  00c40	e8 00 00 00 00	 call	 build_senseX
  00c45	eb 23		 jmp	 SHORT $LN95@tapedev_ex
$LN94@tapedev_ex:

; 773  :         else
; 774  :             build_senseX (TAPE_BSENSE_STATUSONLY, dev, unitstat, code);

  00c47	44 0f b6 8c 24
	98 07 00 00	 movzx	 r9d, BYTE PTR code$[rsp]
  00c50	4c 8b 84 24 d8
	07 00 00	 mov	 r8, QWORD PTR unitstat$[rsp]
  00c58	48 8b 94 24 90
	07 00 00	 mov	 rdx, QWORD PTR dev$[rsp]
  00c60	b9 0d 00 00 00	 mov	 ecx, 13
  00c65	e8 00 00 00 00	 call	 build_senseX
$LN95@tapedev_ex:

; 775  : 
; 776  :         break;

  00c6a	e9 5a 5c 00 00	 jmp	 $LN13@tapedev_ex
$LN96@tapedev_ex:

; 777  :     }
; 778  : 
; 779  :     /*---------------------------------------------------------------*/
; 780  :     /* CONTROL NO-OPERATION                                          */
; 781  :     /*---------------------------------------------------------------*/
; 782  :     case 0x03:
; 783  :     {
; 784  :         /* Command reject if the volume is currently fenced */
; 785  :         if (dev->fenced)

  00c6f	48 8b 84 24 90
	07 00 00	 mov	 rax, QWORD PTR dev$[rsp]
  00c77	8b 80 78 10 00
	00		 mov	 eax, DWORD PTR [rax+4216]
  00c7d	83 e0 01	 and	 eax, 1
  00c80	85 c0		 test	 eax, eax
  00c82	74 28		 je	 SHORT $LN97@tapedev_ex

; 786  :         {
; 787  :             build_senseX (TAPE_BSENSE_FENCED, dev, unitstat, code);

  00c84	44 0f b6 8c 24
	98 07 00 00	 movzx	 r9d, BYTE PTR code$[rsp]
  00c8d	4c 8b 84 24 d8
	07 00 00	 mov	 r8, QWORD PTR unitstat$[rsp]
  00c95	48 8b 94 24 90
	07 00 00	 mov	 rdx, QWORD PTR dev$[rsp]
  00c9d	b9 0a 00 00 00	 mov	 ecx, 10
  00ca2	e8 00 00 00 00	 call	 build_senseX

; 788  :             break;

  00ca7	e9 1d 5c 00 00	 jmp	 $LN13@tapedev_ex
$LN97@tapedev_ex:

; 789  :         }
; 790  : 
; 791  :         build_senseX (TAPE_BSENSE_STATUSONLY, dev, unitstat, code);

  00cac	44 0f b6 8c 24
	98 07 00 00	 movzx	 r9d, BYTE PTR code$[rsp]
  00cb5	4c 8b 84 24 d8
	07 00 00	 mov	 r8, QWORD PTR unitstat$[rsp]
  00cbd	48 8b 94 24 90
