; Listing generated by Microsoft (R) Optimizing Compiler Version 19.34.31937.0 

include listing.inc

INCLUDELIB MSVCRTD
INCLUDELIB OLDNAMES

_DATA	SEGMENT
COMM	tcpnje_pendccw:DWORD
COMM	tcpnje_kw:DWORD
_DATA	ENDS
_DATA	SEGMENT
tcpnje_immed_command DB 00H
	DB	00H
	DB	00H
	DB	01H
	DB	00H
	DB	00H
	DB	00H
	DB	00H
	DB	00H
	DB	00H
	DB	00H
	DB	00H
	DB	00H
	DB	00H
	DB	00H
	DB	00H
	DB	00H
	DB	00H
	DB	00H
	DB	00H
	DB	00H
	DB	00H
	DB	00H
	DB	00H
	DB	00H
	DB	00H
	DB	00H
	DB	00H
	DB	00H
	DB	00H
	DB	00H
	DB	00H
	DB	00H
	DB	00H
	DB	00H
	DB	00H
	DB	00H
	DB	00H
	DB	00H
	DB	00H
	DB	00H
	DB	00H
	DB	00H
	DB	00H
	DB	00H
	DB	00H
	DB	00H
	DB	00H
	DB	00H
	DB	00H
	DB	00H
	DB	00H
	DB	00H
	DB	00H
	DB	00H
	DB	00H
	DB	00H
	DB	00H
	DB	00H
	DB	00H
	DB	00H
	DB	00H
	DB	00H
	DB	00H
	DB	00H
	DB	00H
	DB	00H
	DB	00H
	DB	00H
	DB	00H
	DB	00H
	DB	00H
	DB	00H
	DB	00H
	DB	00H
	DB	00H
	DB	00H
	DB	00H
	DB	00H
	DB	00H
	DB	00H
	DB	00H
	DB	00H
	DB	00H
	DB	00H
	DB	00H
	DB	00H
	DB	00H
	DB	00H
	DB	00H
	DB	00H
	DB	00H
	DB	00H
	DB	00H
	DB	00H
	DB	00H
	DB	00H
	DB	00H
	DB	00H
	DB	00H
	DB	00H
	DB	00H
	DB	00H
	DB	00H
	DB	00H
	DB	00H
	DB	00H
	DB	00H
	DB	00H
	DB	00H
	DB	00H
	DB	00H
	DB	00H
	DB	00H
	DB	00H
	DB	00H
	DB	00H
	DB	00H
	DB	00H
	DB	00H
	DB	00H
	DB	00H
	DB	00H
	DB	00H
	DB	00H
	DB	00H
	DB	00H
	DB	00H
	DB	00H
	DB	00H
	DB	00H
	DB	00H
	DB	00H
	DB	00H
	DB	00H
	DB	00H
	DB	00H
	DB	00H
	DB	00H
	DB	00H
	DB	00H
	DB	00H
	DB	00H
	DB	00H
	DB	00H
	DB	00H
	DB	00H
	DB	00H
	DB	00H
	DB	00H
	DB	00H
	DB	00H
	DB	00H
	DB	00H
	DB	00H
	DB	00H
	DB	00H
	DB	00H
	DB	00H
	DB	00H
	DB	00H
	DB	00H
	DB	00H
	DB	00H
	DB	00H
	DB	00H
	DB	00H
	DB	00H
	DB	00H
	DB	00H
	DB	00H
	DB	00H
	DB	00H
	DB	00H
	DB	00H
	DB	00H
	DB	00H
	DB	00H
	DB	00H
	DB	00H
	DB	00H
	DB	00H
	DB	00H
	DB	00H
	DB	00H
	DB	00H
	DB	00H
	DB	00H
	DB	00H
	DB	00H
	DB	00H
	DB	00H
	DB	00H
	DB	00H
	DB	00H
	DB	00H
	DB	00H
	DB	00H
	DB	00H
	DB	00H
	DB	00H
	DB	00H
	DB	00H
	DB	00H
	DB	00H
	DB	00H
	DB	00H
	DB	00H
	DB	00H
	DB	00H
	DB	00H
	DB	00H
	DB	00H
	DB	00H
	DB	00H
	DB	00H
	DB	00H
	DB	00H
	DB	00H
	DB	00H
	DB	00H
	DB	00H
	DB	00H
	DB	00H
	DB	00H
	DB	00H
	DB	00H
	DB	00H
	DB	00H
	DB	00H
	DB	00H
	DB	00H
	DB	00H
	DB	00H
	DB	00H
	DB	00H
	DB	00H
	DB	00H
	DB	00H
	DB	00H
	DB	00H
	DB	00H
	DB	00H
	DB	00H
	DB	00H
	DB	00H
	DB	00H
	DB	00H
	DB	00H
	DB	00H
	DB	00H
	DB	00H
	DB	00H
	DB	00H
	DB	00H
	DB	00H
$SG159200 DB	'IDLE', 00H
	ORG $+3
$SG159201 DB	'READ', 00H
	ORG $+3
$SG159202 DB	'WRITE', 00H
	ORG $+2
$SG159203 DB	'CONNECT', 00H
$SG159204 DB	'DIAL', 00H
	ORG $+3
$SG159205 DB	'DISABLE', 00H
$SG159206 DB	'PREPARE', 00H
$SG159207 DB	'WAIT', 00H
	ORG $+3
$SG159208 DB	'TINIT', 00H
	ORG $+2
$SG159209 DB	'CLOSED', 00H
	ORG $+1
$SG159210 DB	'SHUTDOWN', 00H
	ORG $+3
$SG159212 DB	'CLOSED', 00H
	ORG $+1
$SG159229 DB	'%s', 00H
	ORG $+1
$SG159213 DB	'TCPLISTEN', 00H
	ORG $+2
$SG159231 DB	'%s', 00H
	ORG $+1
$SG159214 DB	'TCPCONSNT', 00H
	ORG $+2
$SG159233 DB	'%s', 00H
	ORG $+1
$SG159215 DB	'TCPCONACT', 00H
	ORG $+2
$SG159235 DB	'%s', 00H
	ORG $+1
$SG159216 DB	'TCPCONPAS', 00H
	ORG $+2
$SG159237 DB	'%s', 00H
	ORG $+1
$SG159217 DB	'NJEOPNSNT', 00H
	ORG $+2
$SG159238 DB	'rto', 00H
$SG159218 DB	'NJEACKSNT', 00H
	ORG $+2
$SG159239 DB	'%s', 00H
	ORG $+1
$SG159219 DB	'NJEACKRCD', 00H
	ORG $+2
$SG159240 DB	'cto', 00H
$SG159220 DB	'NJECONPRI', 00H
	ORG $+2
$SG159241 DB	'%s', 00H
	ORG $+1
$SG159221 DB	'NJECONSEC', 00H
	ORG $+2
$SG159228 DB	'lport', 00H
	ORG $+2
$SG159230 DB	'lhost', 00H
	ORG $+2
$SG159232 DB	'rport', 00H
	ORG $+2
$SG159234 DB	'rhost', 00H
	ORG $+2
$SG159236 DB	'dial', 00H
	ORG $+3
$SG159243 DB	'%s', 00H
	ORG $+1
$SG159242 DB	'keepalive', 00H
	ORG $+2
$SG159245 DB	'%s', 00H
	ORG $+1
$SG159244 DB	'switched', 00H
	ORG $+3
$SG159246 DB	'lnode', 00H
	ORG $+2
$SG159247 DB	'%s', 00H
	ORG $+1
$SG159248 DB	'rnode', 00H
	ORG $+2
$SG159249 DB	'%s', 00H
	ORG $+1
$SG159250 DB	'debug', 00H
	ORG $+2
$SG159251 DB	'%s', 00H
	ORG $+1
$SG159252 DB	'trace', 00H
	ORG $+2
$SG159253 DB	'%s', 00H
	ORG $+1
$SG159255 DB	'%s', 00H
	ORG $+1
$SG159254 DB	'bufsize', 00H
$SG159256 DB	'listen', 00H
	ORG $+1
$SG159257 DB	'%s', 00H
	ORG $+1
$SG159259 DB	'%s', 00H
	ORG $+1
$SG159258 DB	'connect', 00H
_DATA	ENDS
CONST	SEGMENT
CKD_ENDTRK DB	0ffH
	DB	0ffH
	DB	0ffH
	DB	0ffH
	DB	0ffH
	DB	0ffH
	DB	0ffH
	DB	0ffH
TCPNJE_OPEN DB	0d6H
	DB	0d7H
	DB	0c5H
	DB	0d5H
	DB	040H
	DB	040H
	DB	040H
	DB	040H
TCPNJE_ACK DB	0c1H
	DB	0c3H
	DB	0d2H
	DB	040H
	DB	040H
	DB	040H
	DB	040H
	DB	040H
TCPNJE_NAK DB	0d5H
	DB	0c1H
	DB	0d2H
	DB	040H
	DB	040H
	DB	040H
	DB	040H
	DB	040H
CONST	ENDS
PUBLIC	hdl_check_depends_ep
PUBLIC	hdl_define_devtypes_ep
EXTRN	__report_rangecheckfailure:PROC
EXTRN	__imp_isprint:PROC
EXTRN	__imp_toupper:PROC
EXTRN	__imp__errno:PROC
EXTRN	strcmp:PROC
EXTRN	__imp__stricmp:PROC
EXTRN	strlen:PROC
EXTRN	__imp_free:PROC
EXTRN	__imp_malloc:PROC
EXTRN	__imp_atoi:PROC
EXTRN	__imp_bind:PROC
EXTRN	__imp_connect:PROC
EXTRN	__imp_getpeername:PROC
EXTRN	__imp_getsockname:PROC
EXTRN	__imp_getsockopt:PROC
EXTRN	__imp_htons:PROC
EXTRN	__imp_inet_ntoa:PROC
EXTRN	__imp_listen:PROC
EXTRN	__imp_ntohs:PROC
EXTRN	__imp_recv:PROC
EXTRN	__imp_send:PROC
EXTRN	__imp_setsockopt:PROC
EXTRN	__imp_gethostbyname:PROC
EXTRN	__imp_getservbyname:PROC
EXTRN	__imp_WSAGetLastError:PROC
EXTRN	__imp___acrt_iob_func:PROC
EXTRN	__imp_fthread_self:PROC
EXTRN	__imp_hthread_initialize_lock:PROC
EXTRN	__imp_hthread_obtain_lock:PROC
EXTRN	__imp_hthread_release_lock:PROC
EXTRN	__imp_hthread_initialize_condition:PROC
EXTRN	__imp_hthread_signal_condition:PROC
EXTRN	__imp_hthread_wait_condition:PROC
EXTRN	__imp_hthread_create_thread:PROC
EXTRN	__imp_strlcpy:PROC
EXTRN	__imp_w32_strerror:PROC
EXTRN	__imp_socketpair:PROC
EXTRN	__imp_gettimeofday:PROC
EXTRN	__imp_usleep:PROC
EXTRN	__imp_inet_aton:PROC
EXTRN	__imp_socket_set_blocking_mode:PROC
EXTRN	__imp_socket_is_socket:PROC
EXTRN	__imp_w32_socket:PROC
EXTRN	__imp_w32_accept:PROC
EXTRN	__imp_w32_close_socket:PROC
EXTRN	__imp_w32_FD_SET:PROC
EXTRN	__imp_w32_FD_ISSET:PROC
EXTRN	__imp_w32_select:PROC
EXTRN	__imp_w32_snprintf:PROC
EXTRN	__imp_w32_basename:PROC
EXTRN	__imp_host_to_guest:PROC
EXTRN	__imp_guest_to_host:PROC
EXTRN	__imp_disable_nagle:PROC
EXTRN	__imp_fwritemsg:PROC
EXTRN	__imp_logmsg:PROC
EXTRN	__imp_parser:PROC
EXTRN	__GSHandlerCheck:PROC
EXTRN	__chkstk:PROC
EXTRN	__security_check_cookie:PROC
EXTRN	memcmp:PROC
EXTRN	__imp_sysblk:BYTE
EXTRN	__ImageBase:BYTE
EXTRN	__security_cookie:QWORD
pdata	SEGMENT
$pdata$logdump DD imagerel logdump
	DD	imagerel logdump+617
	DD	imagerel $unwind$logdump
$pdata$guest_to_host_string DD imagerel guest_to_host_string
	DD	imagerel guest_to_host_string+193
	DD	imagerel $unwind$guest_to_host_string
$pdata$tcpnje_clean_device DD imagerel tcpnje_clean_device
	DD	imagerel tcpnje_clean_device+366
	DD	imagerel $unwind$tcpnje_clean_device
$pdata$tcpnje_alloc_device DD imagerel tcpnje_alloc_device
	DD	imagerel tcpnje_alloc_device+147
	DD	imagerel $unwind$tcpnje_alloc_device
$pdata$tcpnje_getport DD imagerel tcpnje_getport
	DD	imagerel tcpnje_getport+91
	DD	imagerel $unwind$tcpnje_getport
$pdata$tcpnje_getaddr DD imagerel tcpnje_getaddr
	DD	imagerel tcpnje_getaddr+131
	DD	imagerel $unwind$tcpnje_getaddr
$pdata$tcpnje_listen DD imagerel tcpnje_listen
	DD	imagerel tcpnje_listen+2074
	DD	imagerel $unwind$tcpnje_listen
$pdata$tcpnje_connout DD imagerel tcpnje_connout
	DD	imagerel tcpnje_connout+2023
	DD	imagerel $unwind$tcpnje_connout
$pdata$tcpnje_initiate_userdial DD imagerel tcpnje_initiate_userdial
	DD	imagerel tcpnje_initiate_userdial+1140
	DD	imagerel $unwind$tcpnje_initiate_userdial
$pdata$tcpnje_wakeup DD imagerel tcpnje_wakeup
	DD	imagerel tcpnje_wakeup+179
	DD	imagerel $unwind$tcpnje_wakeup
$pdata$tcpnje_close DD imagerel tcpnje_close
	DD	imagerel tcpnje_close+403
	DD	imagerel $unwind$tcpnje_close
$pdata$tcpnje_read DD imagerel tcpnje_read
	DD	imagerel tcpnje_read+617
	DD	imagerel $unwind$tcpnje_read
$pdata$tcpnje_write DD imagerel tcpnje_write
	DD	imagerel tcpnje_write+853
	DD	imagerel $unwind$tcpnje_write
$pdata$tcpnje_ttc DD imagerel tcpnje_ttc
	DD	imagerel tcpnje_ttc+1757
	DD	imagerel $unwind$tcpnje_ttc
$pdata$tcpnje_process_request DD imagerel tcpnje_process_request
	DD	imagerel tcpnje_process_request+5432
	DD	imagerel $unwind$tcpnje_process_request
$pdata$tcpnje_process_reply DD imagerel tcpnje_process_reply
	DD	imagerel tcpnje_process_reply+2072
	DD	imagerel $unwind$tcpnje_process_reply
$pdata$tcpnje_thread DD imagerel tcpnje_thread
	DD	imagerel tcpnje_thread+10316
	DD	imagerel $unwind$tcpnje_thread
$pdata$tcpnje_wait DD imagerel tcpnje_wait
	DD	imagerel tcpnje_wait+65
	DD	imagerel $unwind$tcpnje_wait
$pdata$tcpnje_wakeup_and_wait DD imagerel tcpnje_wakeup_and_wait
	DD	imagerel tcpnje_wakeup_and_wait+105
	DD	imagerel $unwind$tcpnje_wakeup_and_wait
$pdata$tcpnje_halt DD imagerel tcpnje_halt
	DD	imagerel tcpnje_halt+150
	DD	imagerel $unwind$tcpnje_halt
$pdata$msg013e DD imagerel msg013e
	DD	imagerel msg013e+121
	DD	imagerel $unwind$msg013e
$pdata$msg073w DD imagerel msg073w
	DD	imagerel msg073w+111
	DD	imagerel $unwind$msg073w
$pdata$msg074e DD imagerel msg074e
	DD	imagerel msg074e+111
	DD	imagerel $unwind$msg074e
$pdata$tcpnje_init_handler DD imagerel tcpnje_init_handler
	DD	imagerel tcpnje_init_handler+5344
	DD	imagerel $unwind$tcpnje_init_handler
$pdata$tcpnje_query_device DD imagerel tcpnje_query_device
	DD	imagerel tcpnje_query_device+767
	DD	imagerel $unwind$tcpnje_query_device
$pdata$tcpnje_close_device DD imagerel tcpnje_close_device
	DD	imagerel tcpnje_close_device+367
	DD	imagerel $unwind$tcpnje_close_device
$pdata$tcpnje_flush DD imagerel tcpnje_flush
	DD	imagerel tcpnje_flush+360
	DD	imagerel $unwind$tcpnje_flush
$pdata$tcpnje_execute_ccw DD imagerel tcpnje_execute_ccw
	DD	imagerel tcpnje_execute_ccw+15256
	DD	imagerel $unwind$tcpnje_execute_ccw
$pdata$hdl_check_depends_ep DD imagerel $LN15
	DD	imagerel $LN15+152
	DD	imagerel $unwind$hdl_check_depends_ep
$pdata$hdl_define_devtypes_ep DD imagerel $LN3
	DD	imagerel $LN3+32
	DD	imagerel $unwind$hdl_define_devtypes_ep
pdata	ENDS
_DATA	SEGMENT
tcpnje_pendccw_text DQ FLAT:$SG159200
	DQ	FLAT:$SG159201
	DQ	FLAT:$SG159202
	DQ	FLAT:$SG159203
	DQ	FLAT:$SG159204
	DQ	FLAT:$SG159205
	DQ	FLAT:$SG159206
	DQ	FLAT:$SG159207
	DQ	FLAT:$SG159208
	DQ	FLAT:$SG159209
	DQ	FLAT:$SG159210
$SG159310 DB	'HHCTN101D %4.4X:%s', 0aH, 00H
$SG159314 DB	' ', 00H
	ORG $+2
tcpnje_state_text DQ FLAT:$SG159212
	DQ	FLAT:$SG159213
	DQ	FLAT:$SG159214
	DQ	FLAT:$SG159215
	DQ	FLAT:$SG159216
	DQ	FLAT:$SG159217
	DQ	FLAT:$SG159218
	DQ	FLAT:$SG159219
	DQ	FLAT:$SG159220
	DQ	FLAT:$SG159221
ptab	DQ	FLAT:$SG159228
	DQ	FLAT:$SG159229
	DQ	FLAT:$SG159230
	DQ	FLAT:$SG159231
	DQ	FLAT:$SG159232
	DQ	FLAT:$SG159233
	DQ	FLAT:$SG159234
	DQ	FLAT:$SG159235
	DQ	FLAT:$SG159236
	DQ	FLAT:$SG159237
	DQ	FLAT:$SG159238
	DQ	FLAT:$SG159239
	DQ	FLAT:$SG159240
	DQ	FLAT:$SG159241
	DQ	FLAT:$SG159242
	DQ	FLAT:$SG159243
	DQ	FLAT:$SG159244
	DQ	FLAT:$SG159245
	DQ	FLAT:$SG159246
	DQ	FLAT:$SG159247
	DQ	FLAT:$SG159248
	DQ	FLAT:$SG159249
	DQ	FLAT:$SG159250
	DQ	FLAT:$SG159251
	DQ	FLAT:$SG159252
	DQ	FLAT:$SG159253
	DQ	FLAT:$SG159254
	DQ	FLAT:$SG159255
	DQ	FLAT:$SG159256
	DQ	FLAT:$SG159257
	DQ	FLAT:$SG159258
	DQ	FLAT:$SG159259
	DQ	0000000000000000H
	DQ	0000000000000000H
$SG159311 DB	'HHCTN102D %4.4X:%s : Dump of %d (%x) byte(s)', 0aH, 00H
	ORG $+2
$SG159312 DB	'HHCTN103D %4.4X:%s : %4.4X:', 00H
$SG159315 DB	'%2.2X', 00H
	ORG $+2
$SG159317 DB	' ', 00H
	ORG $+2
$SG159318 DB	'  ', 00H
	ORG $+1
$SG159320 DB	'%c', 00H
	ORG $+1
$SG159321 DB	0aH, 00H
	ORG $+2
$SG159389 DB	'tcp', 00H
$SG159365 DB	'tcpnje.c:254', 00H
	ORG $+3
$SG159367 DB	'HHCTN104D %4.4X:TCPNJE - control block freed', 0aH, 00H
	ORG $+2
$SG159544 DB	'HHCTN039E %4.4X:TCPNJE - found data beyond EON', 0aH, 00H
$SG159592 DB	'W', 00H
	ORG $+6
$SG159368 DB	'HHCTN023E %4.4X:TCPNJE - control block not freed : not a'
	DB	'llocated', 0aH, 00H
	ORG $+6
$SG159556 DB	'HHCTN041E %4.4X:TCPNJE - %d greater than 255', 0aH, 00H
	ORG $+2
$SG159593 DB	'HHC04000%s Error in function %s: %s', 0aH, 00H
	ORG $+3
$SG159379 DB	'HHCTN020E %4.4X:TCPNJE - memory allocation failure for m'
	DB	'ain control block', 0aH, 00H
	ORG $+1
$SG159750 DB	0aH, 00H
	ORG $+2
$SG159380 DB	'TCPNJE10', 00H
	ORG $+7
$SG159426 DB	'HHCTN003E %4.4X:TCPNJE - cannot obtain socket for incomi'
	DB	'ng calls : %s', 0aH, 00H
	ORG $+1
$SG159636 DB	'Fm net', 00H
	ORG $+1
$SG159431 DB	'HHCTN028E %4.4X:TCPNJE - cannot use socket obtained for '
	DB	'incoming calls : %s', 0aH, 00H
	ORG $+3
$SG159436 DB	'HHCTN029E %4.4X:TCPNJE - error setting socket for incomi'
	DB	'ng calls to non-blocking : %s', 0aH, 00H
	ORG $+1
$SG159648 DB	'HHCTN048E %4.4X:TCPNJE - error reading from socket: %s', 0aH
	DB	00H
$SG159441 DB	'HHCTN030W %4.4X:TCPNJE - unable to set SO_REUSEADDR opti'
	DB	'on on listening socket: %s', 0aH, 00H
$SG159665 DB	'To net', 00H
	ORG $+5
$SG159450 DB	'HHCTN004W %4.4X:TCPNJE - listener: address/port combinat'
	DB	'ion %s:%d currently in use', 0aH, 00H
$SG159794 DB	0aH, 00H
	ORG $+2
$SG159669 DB	'HHCTN105D %4.4X:TCPNJE - wrote %d out of %d bytes', 0aH, 00H
	ORG $+5
$SG159456 DB	'HHCTN031W %4.4X:TCPNJE - no permission to bind privilege'
	DB	'd port %d for listen', 0aH, 00H
	ORG $+2
$SG159460 DB	'HHCTN018W %4.4X:TCPNJE - bind for incoming connections t'
	DB	'o %s:%d failed: %s', 0aH, 00H
	ORG $+4
$SG159465 DB	'HHCTN032W %4.4X:TCPNJE - listen on %d:%s for incoming TC'
	DB	'P connections failed: %s', 0aH, 00H
	ORG $+6
$SG159560 DB	'HHCTN042E %4.4X:TCPNJE - too many separators in dial dat'
	DB	'a', 0aH, 00H
	ORG $+5
$SG159594 DB	'tcpnje_wakeup', 00H
	ORG $+2
$SG159805 DB	' received from %s:%d', 0aH, 00H
	ORG $+2
$SG159469 DB	'HHCTN005I %4.4X:TCPNJE - listening on %s:%d for incoming'
	DB	' connections', 0aH, 00H
	ORG $+2
$SG159903 DB	' reason code %d', 0aH, 00H
	ORG $+7
$SG159489 DB	'HHCTN033I %4.4X:TCPNJE - delaying link %s - %s active op'
	DB	'en for %d attempt(s)', 0aH, 00H
	ORG $+2
$SG159495 DB	'HHCTN034W %4.4X:TCPNJE - cannot make outgoing connection'
	DB	'.  Remote ip address not specified', 0aH, 00H
	ORG $+4
$SG159500 DB	'HHCTN035W %4.4X:TCPNJE - closing outgoing socket as it i'
	DB	's unexpectedly open', 0aH, 00H
	ORG $+3
$SG159505 DB	'HHCTN036E %4.4X:TCPNJE - error setting socket for outgoi'
	DB	'ng calls to non-blocking : %s', 0aH, 00H
	ORG $+1
$SG159994 DB	'HHCTN124D %4.4X:TCPNJE - top of loop - Operation = %s', 0aH
	DB	00H
	ORG $+1
$SG159510 DB	'HHCTN037I %4.4X:TCPNJE - connecting out to %s:%d for lin'
	DB	'k %s - %s', 0aH, 00H
	ORG $+5
$SG159611 DB	'tcpnje.c:746', 00H
	ORG $+3
$SG159756 DB	'HHCTN052E %4.4X:TCPNJE - Error writing %s TTC to network'
	DB	': %s', 0aH, 00H
	ORG $+2
$SG160080 DB	'HHCTN126D %4.4X:TCPNJE - select() returned %d', 0aH, 00H
	ORG $+1
$SG160107 DB	'HHCTN129D %4.4X:TCPNJE - IPC Pipe Data ; code = %d', 0aH
	DB	00H
	ORG $+4
$SG159518 DB	'HHCTN001W %4.4X:TCPNJE - connect out to %s:%d failed for'
	DB	' link %s - %s : %s', 0aH, 00H
	ORG $+4
$SG159523 DB	'HHCTN038I %4.4X:TCPNJE - connected out to %s:%d for link'
	DB	' %s - %s', 0aH, 00H
	ORG $+6
$SG159591 DB	'write_pipe', 00H
	ORG $+5
$SG159740 DB	'HHCTN108D %4.4X:TCPNJE - sending TCPNJE %s for link %s -'
	DB	' %s', 00H
$SG159809 DB	0aH, 00H
	ORG $+2
$SG160114 DB	'HHCTN130D %4.4X:TCPNJE - Closing socket due to halt', 0aH
	DB	00H
	ORG $+3
$SG159552 DB	'HHCTN040E %4.4X:TCPNJE - found incorrect IP address sect'
	DB	'ion at position %d', 0aH, 00H
$SG159907 DB	0aH, 00H
	ORG $+2
$SG159569 DB	'HHCTN043E %4.4X:TCPNJE - incorrect dial data byte %2.2x', 0aH
	DB	00H
	ORG $+7
$SG159577 DB	'HHCTN044E %4.4X:TCPNJE - not enough separators (only %d '
	DB	'found) in dial data', 0aH, 00H
	ORG $+3
$SG159582 DB	'HHCTN045E %4.4X:TCPNJE - destination TCP port %d exceeds'
	DB	' maximum of 65535', 0aH, 00H
	ORG $+1
$SG160395 DB	'BSC', 00H
$SG159595 DB	'tcpnje.c', 00H
	ORG $+7
$SG159632 DB	'HHCTN046E %4.4X:TCPNJE - no room in input buffer for %d '
	DB	'bytes requested. Stopping link.', 0aH, 00H
	ORG $+7
$SG159644 DB	'HHCTN047W %4.4X:TCPNJE - connection unexpectedly closed '
	DB	'by remote peer.', 0aH, 00H
	ORG $+7
$SG159678 DB	'HHCTN106D %4.4X:TCPNJE - holding outgoing data transmiss'
	DB	'ion due to write contention', 0aH, 00H
	ORG $+3
$SG159827 DB	'tcpnje.c:1134', 00H
	ORG $+2
$SG160280 DB	'HHCTN009I %4.4X:TCPNJE - networking thread terminated', 0aH
	DB	00H
	ORG $+1
$SG159682 DB	'HHCTN049E %4.4X:TCPNJE - Attempt to write %d bytes to ou'
	DB	'tput socket only wrote %d bytes. Error: %s', 0aH, 00H
$SG160394 DB	'2703', 00H
	ORG $+7
$SG159687 DB	'HHCTN107D %4.4X:TCPNJE - resuming outgoing data transmis'
	DB	'sion after successful network write', 0aH, 00H
	ORG $+3
$SG159728 DB	'HHCTN050W %4.4X:TCPNJE - Error obtaining local ip addres'
	DB	's for TCPNJE OPEN: %s. Using %s', 0aH, 00H
	ORG $+7
$SG159736 DB	'HHCTN051W %4.4X:TCPNJE - Error obtaining remote ip addre'
	DB	'ss for TCPNJE OPEN: %s. Using %s', 0aH, 00H
	ORG $+2
$SG160396 DB	'BISYNC', 00H
	ORG $+1
$SG160401 DB	'CTC', 00H
$SG159746 DB	' reason %d', 0aH, 00H
$SG160400 DB	'3088', 00H
	ORG $+7
$SG159790 DB	'HHCTN109D %4.4X:TCPNJE - processing TCPNJE %s received f'
	DB	'or link %s - %s', 00H
$SG160318 DB	'HHCTN013E %4.4X:TCPNJE - incorrect %s specification %s', 0aH
	DB	00H
$SG159799 DB	'HHCTN123D %4.4X:TCPNJE - unrecognised TCPNJE control sta'
	DB	'tement "%s"', 00H
$SG160402 DB	'CTCA', 00H
	ORG $+7
$SG159815 DB	'HHCTN110D %4.4X:TCPNJE - link %s - %s is not handled by '
	DB	'this device. Checking other TCPNJE devices.', 0aH, 00H
	ORG $+3
$SG159818 DB	'TCPNJE10', 00H
	ORG $+7
$SG159837 DB	'tcpnje.c:1156', 00H
	ORG $+2
$SG160338 DB	'HHCTN074E %4.4X:TCPNJE - %s has not been specified', 0aH
	DB	00H
	ORG $+4
$SG159826 DB	'HHCTN111D %4.4X:TCPNJE - processing TCPNJE OPEN received'
	DB	' for link %s - %s on device %4.4X', 0aH, 00H
	ORG $+5
$SG159832 DB	'HHCTN112D %4.4X:TCPNJE - rejecting incoming TCPNJE OPEN '
	DB	'for link %s - %s on device %4.4X : already connected', 0aH, 00H
	ORG $+2
$SG159836 DB	'HHCTN113D %4.4X:TCPNJE - closing link %s - %s on device '
	DB	'%4.4X due to unexpected TCPNJE OPEN received for same', 0aH, 00H
	ORG $+1
$SG159841 DB	'tcpnje.c:1166', 00H
	ORG $+2
$SG159845 DB	'HHCTN114D %4.4X:TCPNJE - rejecting incoming TCPNJE OPEN '
	DB	'for link %s - %s on device %4.4X : already doing active open', 0aH
	DB	00H
	ORG $+2
$SG160381 DB	'HHCTN140D %4.4X:TCPNJE - initialisation starting', 0aH, 00H
	ORG $+6
$SG159850 DB	'HHCTN115D %4.4X:TCPNJE - Interrupting incoming connectio'
	DB	'n in progress on device %4.4X', 0aH, 00H
	ORG $+1
$SG160383 DB	'HHCTN010E %4.4X:TCPNJE - initialisation not performed', 0aH
	DB	00H
	ORG $+1
$SG159854 DB	'HHCTN053I %4.4X:TCPNJE - passing TCPNJE OPEN for link %s'
	DB	' - %s to device %4.4X', 0aH, 00H
	ORG $+1
$SG159855 DB	'tcpnje.c:1210', 00H
	ORG $+2
$SG159861 DB	'HHCTN116D %4.4X:TCPNJE - rejecting TCPNJE OPEN for unrec'
	DB	'ognised or inactive link %s - %s', 0aH, 00H
	ORG $+6
$SG159867 DB	'HHCTN117D %4.4X:TCPNJE - rejecting incoming TCPNJE OPEN '
	DB	'for link %s - %s : already connected', 0aH, 00H
	ORG $+2
$SG159871 DB	'HHCTN118D %4.4X:TCPNJE - closing link %s - %s due to une'
	DB	'xpected TCPNJE OPEN received for same', 0aH, 00H
	ORG $+1
$SG159877 DB	'HHCTN119D %4.4X:TCPNJE - rejecting incoming TCPNJE OPEN '
	DB	'for link %s - %s : already doing active open', 0aH, 00H
	ORG $+2
$SG160410 DB	'HHCTN076E %4.4X:TCPNJE - device type %s is not valid', 0aH
	DB	00H
	ORG $+2
$SG159882 DB	'HHCTN120D %4.4X:TCPNJE - ignoring unexpected TCPNJE OPEN'
	DB	' for link %s - %s while in connection state: %s', 0aH, 00H
	ORG $+7
$SG159897 DB	'HHCTN109D %4.4X:TCPNJE - processing TCPNJE %s received f'
	DB	'or link %s - %s', 00H
$SG160420 DB	'HHCTN012E %4.4X:TCPNJE - unrecognized parameter %s', 0aH
	DB	00H
	ORG $+4
$SG159913 DB	'HHCTN121D %4.4X:TCPNJE - ignoring TCPNJE %s received for'
	DB	' unrecognised link %s - %s', 0aH, 00H
$SG160423 DB	'LPORT', 00H
	ORG $+6
$SG159918 DB	'HHCTN122D %4.4X:TCPNJE - ignoring unexpected TCPNJE %s r'
	DB	'eceived for link %s - %s', 0aH, 00H
	ORG $+6
$SG159984 DB	'tcpnje.c:1448', 00H
	ORG $+2
$SG160428 DB	'LHOST', 00H
	ORG $+2
$SG159928 DB	'HHCTN123D %4.4X:TCPNJE - unrecognised or unexpected TCPN'
	DB	'JE control statement "%s" received for link %s - %s', 0aH, 00H
	ORG $+3
$SG159988 DB	'HHCTN002I %4.4X:TCPNJE - networking thread %8.8x started'
	DB	' for link %s - %s', 0aH, 00H
	ORG $+1
$SG160426 DB	'*', 00H
	ORG $+2
$SG159990 DB	'tcpnje.c:1465', 00H
	ORG $+2
$SG160000 DB	'tcpnje.c:1508', 00H
	ORG $+2
$SG160006 DB	'tcpnje.c:1543', 00H
	ORG $+2
$SG160009 DB	'tcpnje.c:1549', 00H
	ORG $+2
$SG160012 DB	'tcpnje.c:1556', 00H
	ORG $+2
$SG160018 DB	'tcpnje.c:1628', 00H
	ORG $+2
$SG160025 DB	'HHCTN054I %4.4X:TCPNJE - making outgoing leased line con'
	DB	'nection', 0aH, 00H
	ORG $+7
$SG160045 DB	'tcpnje.c:1713', 00H
	ORG $+2
$SG160431 DB	'RPORT', 00H
	ORG $+2
$SG160035 DB	'HHCTN055W %4.4X:TCPNJE - unexpected state after outgoing'
	DB	' call: %s', 0aH, 00H
	ORG $+5
$SG160058 DB	'tcpnje.c:1750', 00H
	ORG $+2
$SG160436 DB	'RHOST', 00H
	ORG $+2
$SG160040 DB	'HHCTN007W %4.4X:TCPNJE - outgoing connection for link %s'
	DB	' - %s failed or deferred', 0aH, 00H
	ORG $+6
$SG160062 DB	'tcpnje.c:1758', 00H
	ORG $+2
$SG160444 DB	'yes', 00H
	ORG $+4
$SG160052 DB	'HHCTN056I %4.4X:TCPNJE - closing listening socket due to'
	DB	' DISABLE', 0aH, 00H
	ORG $+6
$SG160066 DB	'tcpnje.c:1776', 00H
	ORG $+2
$SG160446 DB	'inout', 00H
	ORG $+2
$SG160057 DB	'HHCTN057I %4.4X:TCPNJE - closing connection socket due t'
	DB	'o DISABLE', 0aH, 00H
	ORG $+1
$SG160434 DB	'*', 00H
	ORG $+2
$SG160073 DB	'HHCTN125D %4.4X:TCPNJE - Entering select(). Operation: %'
	DB	's', 0aH, 00H
	ORG $+1
$SG160445 DB	'1', 00H
	ORG $+2
$SG160074 DB	'tcpnje.c:1814', 00H
	ORG $+2
$SG160075 DB	'tcpnje.c', 00H
	ORG $+3
$SG160449 DB	'no', 00H
	ORG $+1
$SG160076 DB	'tcpnje.c:1822', 00H
	ORG $+2
$SG160452 DB	'in', 00H
	ORG $+5
$SG160087 DB	'HHCTN058W %4.4X:TCPNJE - select() unexpectedly interrupt'
	DB	'ed %d times in a row', 0aH, 00H
	ORG $+2
$SG160091 DB	'HHCTN006E %4.4X:TCPNJE - select() error : %s', 0aH, 00H
	ORG $+2
$SG160096 DB	'HHCTN127D %4.4X:TCPNJE - select() timeout after %ld seco'
	DB	'nds %ld microseconds', 0aH, 00H
	ORG $+2
$SG160097 DB	'tcpnje.c:1854', 00H
	ORG $+2
$SG160103 DB	'HHCTN128D %4.4X:TCPNJE - IPC Pipe closed', 0aH, 00H
	ORG $+2
$SG160450 DB	'0', 00H
	ORG $+2
$SG160116 DB	'tcpnje.c:1905', 00H
	ORG $+2
$SG160117 DB	'tcpnje.c:1908', 00H
	ORG $+2
$SG160122 DB	'HHCTN059I %4.4X:TCPNJE - TCPNJE OPEN redirected from ano'
	DB	'ther device. Connection state: %s', 0aH, 00H
	ORG $+5
$SG160129 DB	'HHCTN131D %4.4X:TCPNJE - Write buffer space available.  '
	DB	'Retrying last write.', 0aH, 00H
	ORG $+2
$SG160136 DB	'HHCTN132D %4.4X:TCPNJE - connection event', 0aH, 00H
	ORG $+5
$SG160146 DB	'HHCTN133D %4.4X:TCPNJE - outgoing call connected for lin'
	DB	'k %s - %s', 0aH, 00H
	ORG $+5
$SG160158 DB	'tcpnje.c:2008', 00H
	ORG $+2
$SG160454 DB	'out', 00H
	ORG $+4
$SG160150 DB	'HHCTN060W %4.4X:TCPNJE - unexpected state %s after outgo'
	DB	'ing call connected', 0aH, 00H
	ORG $+4
$SG160155 DB	'HHCTN061W %4.4X:TCPNJE - outgoing call to %s:%d for link'
	DB	' %s - %s failed: %s', 0aH, 00H
	ORG $+3
$SG160164 DB	'HHCTN134D %4.4X:TCPNJE - inbound data. Connection state:'
	DB	' %s', 0aH, 00H
	ORG $+3
$SG160169 DB	'HHCTN135D %4.4X:TCPNJE incoming TTB, length %d. Connecti'
	DB	'on state %s', 0aH, 00H
	ORG $+3
$SG160176 DB	'tcpnje.c:2056', 00H
	ORG $+2
$SG160461 DB	'LNODE', 00H
	ORG $+2
$SG160174 DB	'HHCTN136D %4.4X:TCPNJE - bytes required %d - read so far'
	DB	' %ld. Connection state %s', 0aH, 00H
	ORG $+5
$SG160220 DB	'HHCTN063I %4.4X:TCPNJE - incoming connection', 0aH, 00H
	ORG $+2
$SG160464 DB	'RNODE', 00H
	ORG $+2
$SG160180 DB	'HHCTN137D %4.4X:TCPNJE - TTB read complete. Connection s'
	DB	'tate %s', 0aH, 00H
	ORG $+7
$SG160238 DB	'HHCTN066W %4.4X:TCPNJE - rejecting unexpected incoming c'
	DB	'all', 0aH, 00H
	ORG $+3
$SG160277 DB	'tcpnje.c:2254', 00H
	ORG $+2
$SG160467 DB	'DEBUG', 00H
	ORG $+2
$SG160185 DB	'HHCTN138D %4.4X:TCPNJE - passive open TCPNJE protocol tr'
	DB	'affic. Connection state: %s', 0aH, 00H
	ORG $+3
$SG160279 DB	'tcpnje.c:2261', 00H
	ORG $+2
$SG160471 DB	'BUFSIZE', 00H
$SG160194 DB	'HHCTN100E %4.4X:TCPNJE - Excess connection traffic. Conn'
	DB	'ection state: %s', 0aH, 00H
	ORG $+2
$SG160498 DB	'W', 00H
	ORG $+2
$SG160199 DB	'HHCTN099W %4.4X:TCPNJE - repeating messages suppressed.', 0aH
	DB	00H
	ORG $+7
$SG160204 DB	'HHCTN139D %4.4X:TCPNJE - active open TCPNJE protocol tra'
	DB	'ffic. Connection state: %s', 0aH, 00H
$SG160476 DB	'RNODE', 00H
	ORG $+6
$SG160210 DB	'HHCTN062E %4.4X:TCPNJE - incoming connection - accept fa'
	DB	'iled: %s', 0aH, 00H
	ORG $+2
$SG160542 DB	'.', 00H
	ORG $+2
$SG160216 DB	'HHCTN008I %4.4X:TCPNJE - incoming connection from %s:%d', 0aH
	DB	00H
	ORG $+7
$SG160281 DB	'tcpnje.c:2273', 00H
	ORG $+2
$SG160478 DB	'LNODE', 00H
	ORG $+2
$SG160227 DB	'HHCTN064W %4.4X:TCPNJE - rejecting incoming connection d'
	DB	'ue to connection already in progress', 0aH, 00H
	ORG $+2
$SG160232 DB	'HHCTN065E %4.4X:TCPNJE - error setting socket for incomi'
	DB	'ng call to non-blocking : %s', 0aH, 00H
	ORG $+2
$SG160499 DB	'HHC04000%s Error in function %s: %s', 0aH, 00H
	ORG $+3
$SG160245 DB	'HHCTN067E %4.4X:TCPNJE - possible logic error.  Outstand'
	DB	'ing count from select(): %d', 0aH, 00H
	ORG $+3
$SG160288 DB	'tcpnje.c:2286', 00H
	ORG $+2
$SG160500 DB	'tcpnje_init_handler', 00H
	ORG $+4
$SG160250 DB	'HHCTN068W %4.4X:TCPNJE - unexpected return from select()'
	DB	' due to write event on data connection', 0aH, 00H
$SG160255 DB	'HHCTN069W %4.4X:TCPNJE - unexpected connection traffic r'
	DB	'eceived on incoming connection', 0aH, 00H
$SG160506 DB	'tcpnje %4.4X thread', 00H
	ORG $+4
$SG160260 DB	'HHCTN070W %4.4X:TCPNJE - unexpected connection traffic r'
	DB	'eceived on outgoing connection', 0aH, 00H
$SG160536 DB	'LINE', 00H
	ORG $+3
$SG160265 DB	'HHCTN071W %4.4X:TCPNJE - traffic received on data connec'
	DB	'tion when not in connected state', 0aH, 00H
	ORG $+6
$SG160270 DB	'HHCTN072W %4.4X:TCPNJE - traffic received on listener po'
	DB	'rt when not listening', 0aH, 00H
	ORG $+1
$SG160275 DB	'HHCTN099W %4.4X:TCPNJE - repeating messages suppressed.', 0aH
	DB	00H
	ORG $+3
$SG160669 DB	'EIB', 00H
$SG160296 DB	'tcpnje.c:2299', 00H
	ORG $+2
$SG160304 DB	'tcpnje.c:2319', 00H
	ORG $+2
$SG160305 DB	'tcpnje.c:2329', 00H
	ORG $+2
$SG160306 DB	'tcpnje.c:2330', 00H
	ORG $+2
$SG160328 DB	'HHCTN073W %4.4X:TCPNJE - DIAL/SWITCHED=%s is not current'
	DB	'ly supported by TCPNJE', 0aH, 00H
$SG160387 DB	'HHCTN141D %4.4X:TCPNJE - Initialisation: Control block a'
	DB	'llocated', 0aH, 00H
	ORG $+2
$SG160670 DB	'NO EIB', 00H
	ORG $+1
$SG160739 DB	010H, '=', 00H
	ORG $+1
$SG160390 DB	'device type', 00H
$SG160790 DB	010H, 02H, 00H
	ORG $+1
$SG160406 DB	'HHCTN075E %4.4X:TCPNJE - device type %s is not yet suppo'
	DB	'rted', 0aH, 00H
	ORG $+2
$SG160415 DB	'HHCTN011E %4.4X:TCPNJE - error parsing %s', 0aH, 00H
	ORG $+5
$SG160458 DB	'HHCTN014E %4.4X:TCPNJE - incorrect switched/dial specifi'
	DB	'cation %s; defaulting to DIAL=NO', 0aH, 00H
	ORG $+6
$SG160483 DB	'HHCTN021I %4.4X:TCPNJE - initialisation failed due to pr'
	DB	'evious errors', 0aH, 00H
	ORG $+1
$SG160543 DB	'ENAB', 00H
	ORG $+3
$SG160485 DB	'HHCTN024E %4.4X:TCPNJE - memory allocation failure for T'
	DB	'CPNJE TTC passive open buffer', 0aH, 00H
	ORG $+1
$SG160544 DB	'DISA', 00H
	ORG $+3
$SG160487 DB	'HHCTN025E %4.4X:TCPNJE - memory allocation failure for T'
	DB	'CPNJE TTC active open buffer', 0aH, 00H
	ORG $+2
$SG160557 DB	'HHCTN142D %4.4X:TCPNJE - closing down', 0aH, 00H
	ORG $+1
$SG160489 DB	'HHCTN026E %4.4X:TCPNJE - memory allocation failure for T'
	DB	'CPNJE TTB/TTR input buffer', 0aH, 00H
$SG160700 DB	'Read S', 00H
	ORG $+5
$SG160491 DB	'HHCTN027E %4.4X:TCPNJE - memory allocation failure for T'
	DB	'CPNJE TTB/TTR output buffer', 0aH, 00H
	ORG $+3
$SG160492 DB	'tcpnje.c:2814', 00H
	ORG $+2
$SG160493 DB	'&tn->lock', 00H
	ORG $+2
$SG160708 DB	'Read H', 00H
	ORG $+1
$SG160795 DB	010H, 00H
	ORG $+2
$SG160494 DB	'tcpnje.c:2817', 00H
	ORG $+2
$SG160495 DB	'tcpnje.c:2818', 00H
	ORG $+2
$SG160497 DB	'create_pipe', 00H
$SG160796 DB	'&', 00H
	ORG $+2
$SG160501 DB	'tcpnje.c', 00H
	ORG $+3
$SG160724 DB	'Read A', 00H
	ORG $+1
$SG160800 DB	'2=', 00H
	ORG $+1
$SG160502 DB	'tcpnje.c:2833', 00H
	ORG $+2
$SG160507 DB	'tcpnje.c:2854', 00H
	ORG $+2
$SG160509 DB	'HHCTN022E TCPNJE - error creating communiction thread: %'
	DB	's', 0aH, 00H
	ORG $+1
$SG160898 DB	01H, '-', 00H
	ORG $+1
$SG160510 DB	'tcpnje.c:2858', 00H
	ORG $+2
$SG160562 DB	'HHCTN143D %4.4X:TCPNJE - closed down', 0aH, 00H
	ORG $+2
$SG160515 DB	'HHCTN019E %4.4X:TCPNJE communication thread did not init'
	DB	'ialise', 0aH, 00H
$SG160516 DB	'tcpnje.c:2867', 00H
	ORG $+2
$SG160517 DB	'tcpnje.c:2873', 00H
	ORG $+2
$SG160545 DB	'TCPNJE %s %s RH=%s RP=%d RN=%s LP=%d LN=%s IN=%d OUT=%d '
	DB	'OP=%s', 00H
	ORG $+2
$SG160559 DB	'tcpnje.c:2942', 00H
	ORG $+2
$SG160633 DB	'HHCTN144D %4.4X:TCPNJE CCW Execute opcode %2.2X', 0aH, 00H
	ORG $+3
$SG160738 DB	'Read T', 00H
	ORG $+1
$SG160899 DB	'2=', 00H
	ORG $+1
$SG160634 DB	'tcpnje.c:3074', 00H
	ORG $+2
$SG160639 DB	'HHCTN145D %4.4X:TCPNJE CCW CONTROL NO-OP', 0aH, 00H
	ORG $+2
$SG160741 DB	'Read N', 00H
	ORG $+1
$SG160913 DB	010H, '&', 00H
	ORG $+1
$SG160644 DB	'HHCTN146D %4.4X:TCPNJE CCW SENSE', 0aH, 00H
	ORG $+2
$SG160798 DB	'Read  ', 00H
	ORG $+1
$SG160921 DB	010H, 'p', 00H
	ORG $+1
$SG160649 DB	'HHCTN147D %4.4X:TCPNJE CCW SENSE ID', 0aH, 00H
	ORG $+3
$SG160654 DB	'HHCTN148D %4.4X:TCPNJE CCW ENABLE', 0aH, 00H
	ORG $+1
$SG160927 DB	01H, '-', 00H
	ORG $+1
$SG160662 DB	'HHCTN149D %4.4X:TCPNJE CCW DISABLE', 0aH, 00H
$SG160933 DB	'2=', 00H
	ORG $+1
$SG160671 DB	'HHCTN150D %4.4X:TCPNJE CCW SET MODE %s', 0aH, 00H
$SG160676 DB	'HHCTN151D %4.4X:TCPNJE - CCW DIAL', 0aH, 00H
	ORG $+5
$SG160682 DB	'HHCTN077W %4.4X:TCPNJE - DIAL operation is not currently'
	DB	' supported by TCPNJE', 0aH, 00H
	ORG $+2
$SG160691 DB	'HHCTN152D %4.4X:TCPNJE CCW READ count %d', 0aH, 00H
	ORG $+6
$SG160698 DB	'HHCTN078I %4.4X:TCPNJE READ - inserting signoff BCB: %2.'
	DB	'2X FCS: %2.2X%2.2X', 0aH, 00H
	ORG $+4
$SG160706 DB	'HHCTN153D %4.4X:TCPNJE READ - inserting incoming null bu'
	DB	'ffer BCB: %2.2X FCS: %2.2X%2.2X because incoming data is curr'
	DB	'ently held', 0aH, 00H
	ORG $+7
$SG160794 DB	'HHCTN170D %4.4X:TCPNJE READ - adding DLE ETB to end of b'
	DB	'uffer', 0aH, 00H
	ORG $+1
$SG160811 DB	'Write ', 00H
	ORG $+1
$SG160722 DB	'HHCTN154D %4.4X:TCPNJE READ - inserting incoming null bu'
	DB	'ffer BCB: %2.2X FCS: %2.2X%2.2X in lieu of ACK', 0aH, 00H
$SG160814 DB	'2222', 00H
	ORG $+3
$SG160736 DB	'HHCTN155D %4.4X:TCPNJE READ - inserting incoming null bu'
	DB	'ffer BCB: %2.2X FCS: %2.2X%2.2X in lieu of timeout', 0aH, 00H
	ORG $+4
$SG160751 DB	'HHCTN079I %4.4X:TCPNJE - received initial signon request'
	DB	' for RSCS link %s - connection state %s', 0aH, 00H
	ORG $+7
$SG160810 DB	'HHCTN156D %4.4X:TCPNJE CCW WRITE count %d', 0aH, 00H
	ORG $+1
$SG160907 DB	'2222', 00H
	ORG $+7
$SG160756 DB	'HHCTN080I %4.4X:TCPNJE - received TPbuffer size requeste'
	DB	'd by RSCS link %s: %d', 0aH, 00H
	ORG $+1
$SG160761 DB	'HHCTN081I %4.4X:TCPNJE - resetting request by RSCS link '
	DB	'%s for unsupported PREPARE protocol', 0aH, 00H
	ORG $+3
$SG160769 DB	'HHCTN082I %4.4X:TCPNJE - received response signon for RS'
	DB	'CS link %s - connection state %s', 0aH, 00H
	ORG $+6
$SG160774 DB	'HHCTN083I %4.4X:TCPNJE - received TPbuffer size negotiat'
	DB	'ed by RSCS link %s: %d', 0aH, 00H
$SG160779 DB	'HHCTN084E %4.4X:TCPNJE - attempt by RSCS link %s to forc'
	DB	'e use of unsupported PREPARE protocol', 0aH, 00H
	ORG $+1
$SG160787 DB	'HHCTN085W %4.4X:TCPNJE READ - Link partner issued FASTOP'
	DB	'EN request for stream %2.2X.  Implementation at this end is i'
	DB	'ncomplete.', 0aH, 00H
	ORG $+7
$SG160964 DB	'HHCTN167D %4.4X:TCPNJE CCW PREPARE', 0aH, 00H
	ORG $+4
$SG160804 DB	'HHCTN169D %4.4X:TCPNJE READ - incoming SYN NAK - Connect'
	DB	'ion state: %s', 0aH, 00H
	ORG $+1
$SG160978 DB	'HHCTN168D %4.4X:TCPNJE CCW POLL', 0aH, 00H
	ORG $+7
$SG160818 DB	'HHCTN157D %4.4X:TCPNJE WRITE - kludge dropping outgoing '
	DB	'SYN SYN SYN SYN. Connection state: %s', 0aH, 00H
	ORG $+1
$SG160826 DB	'HHCTN158D %4.4X:TCPNJE WRITE - Resuming incoming data du'
	DB	'e to outgoing FCS %2.2X%2.2X', 0aH, 00H
	ORG $+2
$SG160987 DB	'HHCTN098E %4.4X:TCPNJE - Invalid CCW opcode %2.2X', 0aH, 00H
	ORG $+5
$SG160831 DB	'HHCTN159D %4.4X:TCPNJE WRITE - Holding incoming data due'
	DB	' to outgoing FCS %2.2X%2.2X', 0aH, 00H
	ORG $+3
$SG160988 DB	'tcpnje.c:4264', 00H
	ORG $+2
$SG161030 DB	'DEVBLK', 00H
	ORG $+1
$SG160836 DB	'HHCTN160D %4.4X:TCPNJE WRITE - RSCS sent FCS %2.2X%2.2X '
	DB	'with wait-a-bit bit set', 0aH, 00H
	ORG $+7
$SG161032 DB	'SDL 4.2', 00H
$SG160841 DB	'HHCTN161D %4.4X:TCPNJE WRITE - Dropping outgoing null bu'
	DB	'ffer BCB: %2.2X FCS: %2.2X%2.2X', 0aH, 00H
	ORG $+7
$SG160849 DB	'HHCTN086W %4.4X:TCPNJE WRITE - Received BCB with reset b'
	DB	'it set from RSCS: %2.2X', 0aH, 00H
	ORG $+3
$SG161033 DB	'SYSBLK', 00H
	ORG $+5
$SG160853 DB	'HHCTN162D %4.4X:TCPNJE WRITE - Resetting outgoing BCB to'
	DB	' %2.2X', 0aH, 00H
$SG160858 DB	'HHCTN087I %4.4X:TCPNJE WRITE - Permission to open stream'
	DB	' %2.2X suppressed due to preceeding FASTOPEN', 0aH, 00H
	ORG $+2
$SG161038 DB	'tcpnje', 00H
	ORG $+1
$SG160866 DB	'HHCTN088I %4.4X:TCPNJE - sending initial signon for loca'
	DB	'l RSCS name %s.  Connection state %s', 0aH, 00H
	ORG $+2
$SG160871 DB	'HHCTN089I %4.4X:TCPNJE - sending TPbuffer size requested'
	DB	' by local RSCS name %s: %d', 0aH, 00H
	ORG $+12
$SG160876 DB	'HHCTN090I %4.4X:TCPNJE - resetting unsupported PREPARE f'
	DB	'eature requested by local RSCS name %s', 0aH, 00H
$SG160884 DB	'HHCTN091I %4.4X:TCPNJE - sending response signon for loc'
	DB	'al RSCS name %s.  Connection state %s', 0aH, 00H
	ORG $+1
$SG160889 DB	'HHCTN092I %4.4X:TCPNJE - sending TPbuffer size negotiate'
	DB	'd by local RSCS name %s: %d', 0aH, 00H
	ORG $+11
$SG160894 DB	'HHCTN093W %4.4X:TCPNJE - resetting forced use of unsuppo'
	DB	'red PREPARE protocol by local RSCS name %s', 0aH, 00H
	ORG $+12
$SG160903 DB	'HHCTN094W %4.4X:TCPNJE WRITE - Attempting to send other '
	DB	'than SOH ENQ or SYN NAK when not connected. Connection state:'
	DB	' %s', 0aH, 00H
	ORG $+6
$SG160911 DB	'HHCTN157D %4.4X:TCPNJE WRITE - dropping outgoing SYN SYN'
	DB	' SYN SYN. Connection state: %s', 0aH, 00H
	ORG $+8
$SG160917 DB	'HHCTN163D %4.4X:TCPNJE WRITE - dropping outgoing DLE ETB'
	DB	' - connection state %s', 0aH, 00H
$SG160925 DB	'HHCTN164D %4.4X:TCPNJE WRITE - Dropping outgoing DLE ACK'
	DB	'0 - Connection state %s', 0aH, 00H
	ORG $+15
$SG160931 DB	'HHCTN165D %4.4X:TCPNJE WRITE - dropping outgoing SOH ENQ'
	DB	' - Connection state: %s', 0aH, 00H
	ORG $+15
$SG160937 DB	'HHCTN171D %4.4X:TCPNJE WRITE - outgoing SYN NAK - Connec'
	DB	'tion state: %s', 0aH, 00H
	ORG $+8
$SG160944 DB	'HHCTN095E %4.4X:TCPNJE WRITE - outgoing record size %d w'
	DB	'ill not fit in output buffer', 0aH, 00H
	ORG $+10
$SG160955 DB	'HHCTN166D %4.4X:TCPNJE WRITE - Sending outgoing buffer a'
	DB	's it is nearly full', 0aH, 00H
	ORG $+3
$SG160959 DB	'HHCTN096W %4.4X:TCPNJE WRITE - outgoing record cannot be'
	DB	' buffered as buffer is busy', 0aH, 00H
	ORG $+11
$SG160969 DB	'HHCTN097W %4.4X:TCPNJE - PREPARE operation is not suppor'
	DB	'ted by TCPNJE', 0aH, 00H
	ORG $+9
$SG160982 DB	'HHCTN098E %4.4X:TCPNJE - POLL operation is not supported'
	DB	' by TCPNJE', 0aH, 00H
	ORG $+12
tcpnje_device_hndinfo DQ FLAT:tcpnje_init_handler
	DQ	FLAT:tcpnje_execute_ccw
	DQ	FLAT:tcpnje_close_device
	DQ	FLAT:tcpnje_query_device
	DQ	0000000000000000H
	DQ	0000000000000000H
	DQ	0000000000000000H
	DQ	0000000000000000H
	DQ	0000000000000000H
	DQ	FLAT:tcpnje_halt
	DQ	0000000000000000H
	DQ	0000000000000000H
	DQ	0000000000000000H
	DQ	0000000000000000H
	DQ	0000000000000000H
	DQ	0000000000000000H
	DQ	FLAT:tcpnje_immed_command
	DQ	0000000000000000H
	DQ	0000000000000000H
	DQ	0000000000000000H
	DQ	0000000000000000H
	DQ	0000000000000000H
	DQ	0000000000000000H
	DQ	0000000000000000H
	DQ	0000000000000000H
$SG161026 DB	'SDL 4.60', 00H
	ORG $+7
$SG161027 DB	'HERCULES', 00H
	ORG $+7
$SG161029 DB	'SDL 4.00', 00H
_DATA	ENDS
voltbl	SEGMENT
_volmd	DD	0ffffffffH
	DDSymXIndex: 	FLAT:tcpnje_execute_ccw
	DD	026H
	DD	03a68H
_volmd	DD	0ffffffffH
	DDSymXIndex: 	FLAT:tcpnje_query_device
	DD	025H
	DD	02e7H
_volmd	DD	0ffffffffH
	DDSymXIndex: 	FLAT:tcpnje_init_handler
	DD	020H
	DD	01487H
_volmd	DD	0ffffffffH
	DDSymXIndex: 	FLAT:tcpnje_thread
	DD	01cH
	DD	0280bH
_volmd	DD	0ffffffffH
	DDSymXIndex: 	FLAT:tcpnje_process_reply
	DD	01bH
	DD	0800H
_volmd	DD	0ffffffffH
	DDSymXIndex: 	FLAT:tcpnje_process_request
	DD	01bH
	DD	01520H
_volmd	DD	0ffffffffH
	DDSymXIndex: 	FLAT:tcpnje_ttc
	DD	024H
	DD	06c5H
_volmd	DD	0ffffffffH
	DDSymXIndex: 	FLAT:tcpnje_connout
	DD	016H
	DD	07cfH
_volmd	DD	0ffffffffH
	DDSymXIndex: 	FLAT:tcpnje_listen
	DD	016H
	DD	0805H
voltbl	ENDS
xdata	SEGMENT
$unwind$logdump DD 011801H
	DD	0a218H
$unwind$guest_to_host_string DD 011301H
	DD	06213H
$unwind$tcpnje_clean_device DD 010901H
	DD	06209H
$unwind$tcpnje_alloc_device DD 020a01H
	DD	07006520aH
$unwind$tcpnje_getport DD 010901H
	DD	06209H
$unwind$tcpnje_getaddr DD 031001H
	DD	0700c6210H
	DD	0600bH
$unwind$tcpnje_listen DD 021b19H
	DD	011010cH
	DD	imagerel __GSHandlerCheck
	DD	070H
$unwind$tcpnje_connout DD 021e19H
	DD	01b010cH
	DD	imagerel __GSHandlerCheck
	DD	0c8H
$unwind$tcpnje_initiate_userdial DD 010901H
	DD	08209H
$unwind$tcpnje_wakeup DD 010d01H
	DD	0c20dH
$unwind$tcpnje_close DD 010d01H
	DD	0620dH
$unwind$tcpnje_read DD 011701H
	DD	08217H
$unwind$tcpnje_write DD 011201H
	DD	08212H
$unwind$tcpnje_ttc DD 022c19H
	DD	01b011aH
	DD	imagerel __GSHandlerCheck
	DD	0c0H
$unwind$tcpnje_process_request DD 022319H
	DD	0290111H
	DD	imagerel __GSHandlerCheck
	DD	0138H
$unwind$tcpnje_process_reply DD 022319H
	DD	0190111H
	DD	imagerel __GSHandlerCheck
	DD	0b8H
$unwind$tcpnje_thread DD 022419H
	DD	0c350112H
	DD	imagerel __GSHandlerCheck
	DD	06190H
$unwind$tcpnje_wait DD 010901H
	DD	06209H
$unwind$tcpnje_wakeup_and_wait DD 010d01H
	DD	0420dH
$unwind$tcpnje_halt DD 010901H
	DD	06209H
$unwind$msg013e DD 011301H
	DD	04213H
$unwind$msg073w DD 010e01H
	DD	0420eH
$unwind$msg074e DD 010e01H
	DD	0420eH
$unwind$tcpnje_init_handler DD 032819H
	DD	0260116H
	DD	0700fH
	DD	imagerel __GSHandlerCheck
	DD	0120H
$unwind$tcpnje_query_device DD 022d19H
	DD	041011bH
	DD	imagerel __GSHandlerCheck
	DD	01f0H
$unwind$tcpnje_close_device DD 010901H
	DD	06209H
$unwind$tcpnje_flush DD 010901H
	DD	04209H
$unwind$tcpnje_execute_ccw DD 042e19H
	DD	02d011cH
	DD	060147015H
	DD	imagerel __GSHandlerCheck
	DD	0158H
$unwind$hdl_check_depends_ep DD 010901H
	DD	06209H
$unwind$hdl_define_devtypes_ep DD 010901H
	DD	04209H
xdata	ENDS
; Function compile flags: /Odtp
; File C:\papa\MyGit\hyperion-zvector\tcpnje.c
_TEXT	SEGMENT
defdev$ = 48
hdl_define_devtypes_ep PROC

; 4340 : HDL_DEVICE_SECTION;

$LN3:
  00000	48 89 4c 24 08	 mov	 QWORD PTR [rsp+8], rcx
  00005	48 83 ec 28	 sub	 rsp, 40			; 00000028H

; 4341 : {
; 4342 :     HDL_DEVICE(tcpnje, tcpnje_device_hndinfo);

  00009	48 8d 15 00 00
	00 00		 lea	 rdx, OFFSET FLAT:tcpnje_device_hndinfo
  00010	48 8d 0d 00 00
	00 00		 lea	 rcx, OFFSET FLAT:$SG161038
  00017	ff 54 24 30	 call	 QWORD PTR defdev$[rsp]

; 4343 : }
; 4344 : END_DEVICE_SECTION

  0001b	48 83 c4 28	 add	 rsp, 40			; 00000028H
  0001f	c3		 ret	 0
hdl_define_devtypes_ep ENDP
_TEXT	ENDS
; Function compile flags: /Odtp
; File C:\papa\MyGit\hyperion-zvector\tcpnje.c
_TEXT	SEGMENT
depchk_rc$ = 32
depchk$ = 64
hdl_check_depends_ep PROC

; 4321 : HDL_DEPENDENCY_SECTION;

$LN15:
  00000	48 89 4c 24 08	 mov	 QWORD PTR [rsp+8], rcx
  00005	48 83 ec 38	 sub	 rsp, 56			; 00000038H
  00009	c7 44 24 20 00
	00 00 00	 mov	 DWORD PTR depchk_rc$[rsp], 0
$LN4@hdl_check_:

; 4322 : {
; 4323 :      HDL_DEPENDENCY(HERCULES);

  00011	41 b8 08 00 00
	00		 mov	 r8d, 8
  00017	48 8d 15 00 00
	00 00		 lea	 rdx, OFFSET FLAT:$SG161026
  0001e	48 8d 0d 00 00
	00 00		 lea	 rcx, OFFSET FLAT:$SG161027
  00025	ff 54 24 40	 call	 QWORD PTR depchk$[rsp]
  00029	85 c0		 test	 eax, eax
  0002b	74 08		 je	 SHORT $LN11@hdl_check_
  0002d	c7 44 24 20 01
	00 00 00	 mov	 DWORD PTR depchk_rc$[rsp], 1
$LN11@hdl_check_:
  00035	33 c0		 xor	 eax, eax
  00037	85 c0		 test	 eax, eax
  00039	75 d6		 jne	 SHORT $LN4@hdl_check_
$LN7@hdl_check_:

; 4324 :      HDL_DEPENDENCY(DEVBLK);

  0003b	41 b8 a0 1b 00
	00		 mov	 r8d, 7072		; 00001ba0H
  00041	48 8d 15 00 00
	00 00		 lea	 rdx, OFFSET FLAT:$SG161029
  00048	48 8d 0d 00 00
	00 00		 lea	 rcx, OFFSET FLAT:$SG161030
  0004f	ff 54 24 40	 call	 QWORD PTR depchk$[rsp]
  00053	85 c0		 test	 eax, eax
  00055	74 08		 je	 SHORT $LN12@hdl_check_
  00057	c7 44 24 20 01
	00 00 00	 mov	 DWORD PTR depchk_rc$[rsp], 1
$LN12@hdl_check_:
  0005f	33 c0		 xor	 eax, eax
  00061	85 c0		 test	 eax, eax
  00063	75 d6		 jne	 SHORT $LN7@hdl_check_
$LN10@hdl_check_:

; 4325 :      HDL_DEPENDENCY(SYSBLK);

  00065	41 b8 00 76 01
	00		 mov	 r8d, 95744		; 00017600H
  0006b	48 8d 15 00 00
	00 00		 lea	 rdx, OFFSET FLAT:$SG161032
  00072	48 8d 0d 00 00
	00 00		 lea	 rcx, OFFSET FLAT:$SG161033
  00079	ff 54 24 40	 call	 QWORD PTR depchk$[rsp]
  0007d	85 c0		 test	 eax, eax
  0007f	74 08		 je	 SHORT $LN13@hdl_check_
  00081	c7 44 24 20 01
	00 00 00	 mov	 DWORD PTR depchk_rc$[rsp], 1
$LN13@hdl_check_:
  00089	33 c0		 xor	 eax, eax
  0008b	85 c0		 test	 eax, eax
  0008d	75 d6		 jne	 SHORT $LN10@hdl_check_

; 4326 : }
; 4327 : END_DEPENDENCY_SECTION

  0008f	8b 44 24 20	 mov	 eax, DWORD PTR depchk_rc$[rsp]
  00093	48 83 c4 38	 add	 rsp, 56			; 00000038H
  00097	c3		 ret	 0
hdl_check_depends_ep ENDP
_TEXT	ENDS
; Function compile flags: /Odtp
; File C:\papa\MyGit\hyperion-zvector\tcpnje.c
_TEXT	SEGMENT
tn$ = 48
num$ = 56
tpb$ = 64
TTRlength$ = 72
tv90 = 76
tpbufsize$1 = 80
tpbufsize$2 = 84
tv188 = 88
tv191 = 92
tv226 = 96
tv230 = 100
tv346 = 104
tv803 = 108
tv823 = 112
tv906 = 116
tv1032 = 120
tv1621 = 124
tv1741 = 128
tv748 = 136
tv333 = 144
tv404 = 152
tv481 = 160
tv545 = 168
tv650 = 176
tv203 = 184
tv2299 = 192
tv866 = 200
tv2303 = 208
tv990 = 216
tv2308 = 224
tv1584 = 232
tv2309 = 240
tv1702 = 248
nullbuffer$ = 256
signoff$ = 264
nodestring$3 = 280
nodestring$4 = 296
nodestring$5 = 312
nodestring$6 = 328
__$ArrayPad$ = 344
dev$ = 384
code$ = 392
flags$ = 400
chained$ = 408
count$ = 416
prevcode$ = 424
ccwseq$ = 432
iobuf$ = 440
more$ = 448
unitstat$ = 456
residual$ = 464
tcpnje_execute_ccw PROC

; 3047 : {

  00000	44 88 4c 24 20	 mov	 BYTE PTR [rsp+32], r9b
  00005	44 88 44 24 18	 mov	 BYTE PTR [rsp+24], r8b
  0000a	88 54 24 10	 mov	 BYTE PTR [rsp+16], dl
  0000e	48 89 4c 24 08	 mov	 QWORD PTR [rsp+8], rcx
  00013	56		 push	 rsi
  00014	57		 push	 rdi
  00015	48 81 ec 68 01
	00 00		 sub	 rsp, 360		; 00000168H
  0001c	48 8b 05 00 00
	00 00		 mov	 rax, QWORD PTR __security_cookie
  00023	48 33 c4	 xor	 rax, rsp
  00026	48 89 84 24 58
	01 00 00	 mov	 QWORD PTR __$ArrayPad$[rsp], rax

; 3048 : struct  TCPNJE *tn;          /* Pointer to device dependent block    */
; 3049 : struct  TPB    *tpb;         /* Pointer to RSCS TPbuffer in iobuf    */
; 3050 : U32     num;                 /* Work : Actual CCW transfer count     */
; 3051 : U32     TTRlength;           /* TTR length in host byte order        */
; 3052 : BYTE    nullbuffer[] = {0x10, 0x02, 0x90, 0x8f, 0xcf, 0x00, 0x10, 0x26};

  0002e	c6 84 24 00 01
	00 00 10	 mov	 BYTE PTR nullbuffer$[rsp], 16
  00036	c6 84 24 01 01
	00 00 02	 mov	 BYTE PTR nullbuffer$[rsp+1], 2
  0003e	c6 84 24 02 01
	00 00 90	 mov	 BYTE PTR nullbuffer$[rsp+2], 144 ; 00000090H
  00046	c6 84 24 03 01
	00 00 8f	 mov	 BYTE PTR nullbuffer$[rsp+3], 143 ; 0000008fH
  0004e	c6 84 24 04 01
	00 00 cf	 mov	 BYTE PTR nullbuffer$[rsp+4], 207 ; 000000cfH
  00056	c6 84 24 05 01
	00 00 00	 mov	 BYTE PTR nullbuffer$[rsp+5], 0
  0005e	c6 84 24 06 01
	00 00 10	 mov	 BYTE PTR nullbuffer$[rsp+6], 16
  00066	c6 84 24 07 01
	00 00 26	 mov	 BYTE PTR nullbuffer$[rsp+7], 38 ; 00000026H

; 3053 : BYTE    signoff[] =    {0x10, 0x02, 0x90, 0x8f, 0xcf,

  0006e	c6 84 24 08 01
	00 00 10	 mov	 BYTE PTR signoff$[rsp], 16
  00076	c6 84 24 09 01
	00 00 02	 mov	 BYTE PTR signoff$[rsp+1], 2
  0007e	c6 84 24 0a 01
	00 00 90	 mov	 BYTE PTR signoff$[rsp+2], 144 ; 00000090H
  00086	c6 84 24 0b 01
	00 00 8f	 mov	 BYTE PTR signoff$[rsp+3], 143 ; 0000008fH
  0008e	c6 84 24 0c 01
	00 00 cf	 mov	 BYTE PTR signoff$[rsp+4], 207 ; 000000cfH
  00096	c6 84 24 0d 01
	00 00 f0	 mov	 BYTE PTR signoff$[rsp+5], 240 ; 000000f0H
  0009e	c6 84 24 0e 01
	00 00 c2	 mov	 BYTE PTR signoff$[rsp+6], 194 ; 000000c2H
  000a6	c6 84 24 0f 01
	00 00 00	 mov	 BYTE PTR signoff$[rsp+7], 0
  000ae	c6 84 24 10 01
	00 00 10	 mov	 BYTE PTR signoff$[rsp+8], 16
  000b6	c6 84 24 11 01
	00 00 26	 mov	 BYTE PTR signoff$[rsp+9], 38 ; 00000026H
$LN4@tcpnje_exe:

; 3054 :                                           0xf0, 0xc2, 0x00, 0x10, 0x26};
; 3055 :     UNREFERENCED(flags);

  000be	33 c0		 xor	 eax, eax
  000c0	85 c0		 test	 eax, eax
  000c2	75 fa		 jne	 SHORT $LN4@tcpnje_exe
$LN7@tcpnje_exe:

; 3056 :     UNREFERENCED(chained);

  000c4	33 c0		 xor	 eax, eax
  000c6	85 c0		 test	 eax, eax
  000c8	75 fa		 jne	 SHORT $LN7@tcpnje_exe
$LN10@tcpnje_exe:

; 3057 :     UNREFERENCED(prevcode);

  000ca	33 c0		 xor	 eax, eax
  000cc	85 c0		 test	 eax, eax
  000ce	75 fa		 jne	 SHORT $LN10@tcpnje_exe
$LN13@tcpnje_exe:

; 3058 :     UNREFERENCED(ccwseq);

  000d0	33 c0		 xor	 eax, eax
  000d2	85 c0		 test	 eax, eax
  000d4	75 fa		 jne	 SHORT $LN13@tcpnje_exe

; 3059 :     *residual = 0;

  000d6	48 8b 84 24 d0
	01 00 00	 mov	 rax, QWORD PTR residual$[rsp]
  000de	c7 00 00 00 00
	00		 mov	 DWORD PTR [rax], 0

; 3060 : 
; 3061 :     tn = (struct TCPNJE *) dev->commadpt;

  000e4	48 8b 84 24 80
	01 00 00	 mov	 rax, QWORD PTR dev$[rsp]
  000ec	48 8b 80 68 11
	00 00		 mov	 rax, QWORD PTR [rax+4456]
  000f3	48 89 44 24 30	 mov	 QWORD PTR tn$[rsp], rax

; 3062 :     /*
; 3063 :      * The following pointer is used in READ and WRITE to locate various
; 3064 :      * items in iobuf which normally contains an RSCS TPbuffer.
; 3065 :      */
; 3066 :     tpb = (struct TPB *)iobuf;

  000f8	48 8b 84 24 b8
	01 00 00	 mov	 rax, QWORD PTR iobuf$[rsp]
  00100	48 89 44 24 40	 mov	 QWORD PTR tpb$[rsp], rax

; 3067 :     /*
; 3068 :      * Obtain the TCPNJE lock
; 3069 :      */
; 3070 : 
; 3071 :     DBGMSG(1024, "HHCTN144D %4.4X:TCPNJE CCW Execute opcode %2.2X\n",

  00105	48 8b 44 24 30	 mov	 rax, QWORD PTR tn$[rsp]
  0010a	48 8b 00	 mov	 rax, QWORD PTR [rax]
  0010d	8b 80 f8 05 00
	00		 mov	 eax, DWORD PTR [rax+1528]
  00113	c1 e8 0f	 shr	 eax, 15
  00116	83 e0 01	 and	 eax, 1
  00119	85 c0		 test	 eax, eax
  0011b	74 14		 je	 SHORT $LN18@tcpnje_exe
  0011d	48 8b 44 24 30	 mov	 rax, QWORD PTR tn$[rsp]
  00122	8b 80 4c 01 00
	00		 mov	 eax, DWORD PTR [rax+332]
  00128	25 00 04 00 00	 and	 eax, 1024		; 00000400H
  0012d	85 c0		 test	 eax, eax
  0012f	75 14		 jne	 SHORT $LN17@tcpnje_exe
$LN18@tcpnje_exe:
  00131	48 8b 44 24 30	 mov	 rax, QWORD PTR tn$[rsp]
  00136	8b 80 50 01 00
	00		 mov	 eax, DWORD PTR [rax+336]
  0013c	25 00 04 00 00	 and	 eax, 1024		; 00000400H
  00141	85 c0		 test	 eax, eax
  00143	74 26		 je	 SHORT $LN16@tcpnje_exe
$LN17@tcpnje_exe:
  00145	0f b6 84 24 88
	01 00 00	 movzx	 eax, BYTE PTR code$[rsp]
  0014d	48 8b 8c 24 80
	01 00 00	 mov	 rcx, QWORD PTR dev$[rsp]
  00155	0f b7 49 48	 movzx	 ecx, WORD PTR [rcx+72]
  00159	44 8b c0	 mov	 r8d, eax
  0015c	8b d1		 mov	 edx, ecx
  0015e	48 8d 0d 00 00
	00 00		 lea	 rcx, OFFSET FLAT:$SG160633
  00165	ff 15 00 00 00
	00		 call	 QWORD PTR __imp_logmsg
$LN16@tcpnje_exe:

; 3072 :             dev->devnum, code);
; 3073 : 
; 3074 :     obtain_lock(&tn->lock);

  0016b	48 8b 44 24 30	 mov	 rax, QWORD PTR tn$[rsp]
  00170	48 83 c0 60	 add	 rax, 96			; 00000060H
  00174	48 8d 15 00 00
	00 00		 lea	 rdx, OFFSET FLAT:$SG160634
  0017b	48 8b c8	 mov	 rcx, rax
  0017e	ff 15 00 00 00
	00		 call	 QWORD PTR __imp_hthread_obtain_lock

; 3075 :     switch (code) {

  00184	0f b6 84 24 88
	01 00 00	 movzx	 eax, BYTE PTR code$[rsp]
  0018c	89 44 24 4c	 mov	 DWORD PTR tv90[rsp], eax
  00190	8b 44 24 4c	 mov	 eax, DWORD PTR tv90[rsp]
  00194	ff c8		 dec	 eax
  00196	89 44 24 4c	 mov	 DWORD PTR tv90[rsp], eax
  0019a	81 7c 24 4c e3
	00 00 00	 cmp	 DWORD PTR tv90[rsp], 227 ; 000000e3H
  001a2	0f 87 04 38 00
	00		 ja	 $LN295@tcpnje_exe
  001a8	48 63 44 24 4c	 movsxd	 rax, DWORD PTR tv90[rsp]
  001ad	48 8d 0d 00 00
	00 00		 lea	 rcx, OFFSET FLAT:__ImageBase
  001b4	0f b6 84 01 00
	00 00 00	 movzx	 eax, BYTE PTR $LN326@tcpnje_exe[rcx+rax]
  001bc	8b 84 81 00 00
	00 00		 mov	 eax, DWORD PTR $LN327@tcpnje_exe[rcx+rax*4]
  001c3	48 03 c1	 add	 rax, rcx
  001c6	ff e0		 jmp	 rax
$LN19@tcpnje_exe:

; 3076 :         /*---------------------------------------------------------------*/
; 3077 :         /* CONTROL NO-OP                                                 */
; 3078 :         /*---------------------------------------------------------------*/
; 3079 :         case 0x03:
; 3080 :                 DBGMSG(1024, "HHCTN145D %4.4X:TCPNJE CCW CONTROL NO-OP\n",

  001c8	48 8b 44 24 30	 mov	 rax, QWORD PTR tn$[rsp]
  001cd	48 8b 00	 mov	 rax, QWORD PTR [rax]
  001d0	8b 80 f8 05 00
	00		 mov	 eax, DWORD PTR [rax+1528]
  001d6	c1 e8 0f	 shr	 eax, 15
  001d9	83 e0 01	 and	 eax, 1
  001dc	85 c0		 test	 eax, eax
  001de	74 14		 je	 SHORT $LN22@tcpnje_exe
  001e0	48 8b 44 24 30	 mov	 rax, QWORD PTR tn$[rsp]
  001e5	8b 80 4c 01 00
	00		 mov	 eax, DWORD PTR [rax+332]
  001eb	25 00 04 00 00	 and	 eax, 1024		; 00000400H
  001f0	85 c0		 test	 eax, eax
  001f2	75 14		 jne	 SHORT $LN21@tcpnje_exe
$LN22@tcpnje_exe:
  001f4	48 8b 44 24 30	 mov	 rax, QWORD PTR tn$[rsp]
  001f9	8b 80 50 01 00
	00		 mov	 eax, DWORD PTR [rax+336]
  001ff	25 00 04 00 00	 and	 eax, 1024		; 00000400H
  00204	85 c0		 test	 eax, eax
  00206	74 1b		 je	 SHORT $LN20@tcpnje_exe
$LN21@tcpnje_exe:
  00208	48 8b 84 24 80
	01 00 00	 mov	 rax, QWORD PTR dev$[rsp]
  00210	0f b7 40 48	 movzx	 eax, WORD PTR [rax+72]
  00214	8b d0		 mov	 edx, eax
  00216	48 8d 0d 00 00
	00 00		 lea	 rcx, OFFSET FLAT:$SG160639
  0021d	ff 15 00 00 00
	00		 call	 QWORD PTR __imp_logmsg
$LN20@tcpnje_exe:

; 3081 :                         dev->devnum);
; 3082 : 
; 3083 :                 *residual = 0;

  00223	48 8b 84 24 d0
	01 00 00	 mov	 rax, QWORD PTR residual$[rsp]
  0022b	c7 00 00 00 00
	00		 mov	 DWORD PTR [rax], 0

; 3084 :                 *unitstat = CSW_CE | CSW_DE;

  00231	48 8b 84 24 c8
	01 00 00	 mov	 rax, QWORD PTR unitstat$[rsp]
  00239	c6 00 0c	 mov	 BYTE PTR [rax], 12

; 3085 :                 break;

  0023c	e9 0e 38 00 00	 jmp	 $LN14@tcpnje_exe
$LN23@tcpnje_exe:

; 3086 : 
; 3087 :         /*---------------------------------------------------------------*/
; 3088 :         /* BASIC SENSE                                                   */
; 3089 :         /*---------------------------------------------------------------*/
; 3090 :         case 0x04:
; 3091 :                 DBGMSG(1024, "HHCTN146D %4.4X:TCPNJE CCW SENSE\n",

  00241	48 8b 44 24 30	 mov	 rax, QWORD PTR tn$[rsp]
  00246	48 8b 00	 mov	 rax, QWORD PTR [rax]
  00249	8b 80 f8 05 00
	00		 mov	 eax, DWORD PTR [rax+1528]
  0024f	c1 e8 0f	 shr	 eax, 15
  00252	83 e0 01	 and	 eax, 1
  00255	85 c0		 test	 eax, eax
  00257	74 14		 je	 SHORT $LN26@tcpnje_exe
  00259	48 8b 44 24 30	 mov	 rax, QWORD PTR tn$[rsp]
  0025e	8b 80 4c 01 00
	00		 mov	 eax, DWORD PTR [rax+332]
  00264	25 00 04 00 00	 and	 eax, 1024		; 00000400H
  00269	85 c0		 test	 eax, eax
  0026b	75 14		 jne	 SHORT $LN25@tcpnje_exe
$LN26@tcpnje_exe:
  0026d	48 8b 44 24 30	 mov	 rax, QWORD PTR tn$[rsp]
  00272	8b 80 50 01 00
	00		 mov	 eax, DWORD PTR [rax+336]
  00278	25 00 04 00 00	 and	 eax, 1024		; 00000400H
  0027d	85 c0		 test	 eax, eax
  0027f	74 1b		 je	 SHORT $LN24@tcpnje_exe
$LN25@tcpnje_exe:
  00281	48 8b 84 24 80
	01 00 00	 mov	 rax, QWORD PTR dev$[rsp]
  00289	0f b7 40 48	 movzx	 eax, WORD PTR [rax+72]
  0028d	8b d0		 mov	 edx, eax
  0028f	48 8d 0d 00 00
	00 00		 lea	 rcx, OFFSET FLAT:$SG160644
  00296	ff 15 00 00 00
	00		 call	 QWORD PTR __imp_logmsg
$LN24@tcpnje_exe:

; 3092 :                         dev->devnum);
; 3093 : 
; 3094 :                 num = count < dev->numsense ? count : dev->numsense;

  0029c	48 8b 84 24 80
	01 00 00	 mov	 rax, QWORD PTR dev$[rsp]
  002a4	8b 80 60 03 00
	00		 mov	 eax, DWORD PTR [rax+864]
  002aa	39 84 24 a0 01
	00 00		 cmp	 DWORD PTR count$[rsp], eax
  002b1	73 0d		 jae	 SHORT $LN300@tcpnje_exe
  002b3	8b 84 24 a0 01
	00 00		 mov	 eax, DWORD PTR count$[rsp]
  002ba	89 44 24 58	 mov	 DWORD PTR tv188[rsp], eax
  002be	eb 12		 jmp	 SHORT $LN301@tcpnje_exe
$LN300@tcpnje_exe:
  002c0	48 8b 84 24 80
	01 00 00	 mov	 rax, QWORD PTR dev$[rsp]
  002c8	8b 80 60 03 00
	00		 mov	 eax, DWORD PTR [rax+864]
  002ce	89 44 24 58	 mov	 DWORD PTR tv188[rsp], eax
$LN301@tcpnje_exe:
  002d2	8b 44 24 58	 mov	 eax, DWORD PTR tv188[rsp]
  002d6	89 44 24 38	 mov	 DWORD PTR num$[rsp], eax

; 3095 :                 *more = count < dev->numsense ? 1 : 0;

  002da	48 8b 84 24 80
	01 00 00	 mov	 rax, QWORD PTR dev$[rsp]
  002e2	8b 80 60 03 00
	00		 mov	 eax, DWORD PTR [rax+864]
  002e8	39 84 24 a0 01
	00 00		 cmp	 DWORD PTR count$[rsp], eax
  002ef	73 0a		 jae	 SHORT $LN302@tcpnje_exe
  002f1	c7 44 24 5c 01
	00 00 00	 mov	 DWORD PTR tv191[rsp], 1
  002f9	eb 08		 jmp	 SHORT $LN303@tcpnje_exe
$LN302@tcpnje_exe:
  002fb	c7 44 24 5c 00
	00 00 00	 mov	 DWORD PTR tv191[rsp], 0
$LN303@tcpnje_exe:
  00303	48 8b 84 24 c0
	01 00 00	 mov	 rax, QWORD PTR more$[rsp]
  0030b	0f b6 4c 24 5c	 movzx	 ecx, BYTE PTR tv191[rsp]
  00310	88 08		 mov	 BYTE PTR [rax], cl

; 3096 :                 memcpy(iobuf, dev->sense, num);

  00312	8b 44 24 38	 mov	 eax, DWORD PTR num$[rsp]
  00316	48 8b 8c 24 80
	01 00 00	 mov	 rcx, QWORD PTR dev$[rsp]
  0031e	48 81 c1 64 03
	00 00		 add	 rcx, 868		; 00000364H
  00325	48 8b bc 24 b8
	01 00 00	 mov	 rdi, QWORD PTR iobuf$[rsp]
  0032d	48 8b f1	 mov	 rsi, rcx
  00330	8b c8		 mov	 ecx, eax
  00332	f3 a4		 rep movsb

; 3097 :                 /* I'm assuming sense bytes should be cleared once read. */
; 3098 :                 /* They don't seem to get cleared anywhere else and its  */
; 3099 :                 /* very confusing when old sense bytes which no longer   */
; 3100 :                 /* apply get presented on the Hercules console.          */
; 3101 :                 memset(dev->sense, 0, dev->numsense);

  00334	48 8b 84 24 80
	01 00 00	 mov	 rax, QWORD PTR dev$[rsp]
  0033c	8b 80 60 03 00
	00		 mov	 eax, DWORD PTR [rax+864]
  00342	48 89 84 24 b8
	00 00 00	 mov	 QWORD PTR tv203[rsp], rax
  0034a	48 8b 8c 24 80
	01 00 00	 mov	 rcx, QWORD PTR dev$[rsp]
  00352	48 81 c1 64 03
	00 00		 add	 rcx, 868		; 00000364H
  00359	48 8b f9	 mov	 rdi, rcx
  0035c	33 c0		 xor	 eax, eax
  0035e	48 8b 8c 24 b8
	00 00 00	 mov	 rcx, QWORD PTR tv203[rsp]
  00366	f3 aa		 rep stosb

; 3102 :                 *residual = count - num;

  00368	8b 44 24 38	 mov	 eax, DWORD PTR num$[rsp]
  0036c	8b 8c 24 a0 01
	00 00		 mov	 ecx, DWORD PTR count$[rsp]
  00373	2b c8		 sub	 ecx, eax
  00375	8b c1		 mov	 eax, ecx
  00377	48 8b 8c 24 d0
	01 00 00	 mov	 rcx, QWORD PTR residual$[rsp]
  0037f	89 01		 mov	 DWORD PTR [rcx], eax

; 3103 :                 *unitstat = CSW_CE | CSW_DE;

  00381	48 8b 84 24 c8
	01 00 00	 mov	 rax, QWORD PTR unitstat$[rsp]
  00389	c6 00 0c	 mov	 BYTE PTR [rax], 12

; 3104 :                 break;

  0038c	e9 be 36 00 00	 jmp	 $LN14@tcpnje_exe
$LN27@tcpnje_exe:

; 3105 : 
; 3106 :         /*---------------------------------------------------------------*/
; 3107 :         /* SENSE ID                                                      */
; 3108 :         /*---------------------------------------------------------------*/
; 3109 :         case 0xE4:
; 3110 :                 DBGMSG(1024, "HHCTN147D %4.4X:TCPNJE CCW SENSE ID\n",

  00391	48 8b 44 24 30	 mov	 rax, QWORD PTR tn$[rsp]
  00396	48 8b 00	 mov	 rax, QWORD PTR [rax]
  00399	8b 80 f8 05 00
	00		 mov	 eax, DWORD PTR [rax+1528]
  0039f	c1 e8 0f	 shr	 eax, 15
  003a2	83 e0 01	 and	 eax, 1
  003a5	85 c0		 test	 eax, eax
  003a7	74 14		 je	 SHORT $LN30@tcpnje_exe
  003a9	48 8b 44 24 30	 mov	 rax, QWORD PTR tn$[rsp]
  003ae	8b 80 4c 01 00
	00		 mov	 eax, DWORD PTR [rax+332]
  003b4	25 00 04 00 00	 and	 eax, 1024		; 00000400H
  003b9	85 c0		 test	 eax, eax
  003bb	75 14		 jne	 SHORT $LN29@tcpnje_exe
$LN30@tcpnje_exe:
  003bd	48 8b 44 24 30	 mov	 rax, QWORD PTR tn$[rsp]
  003c2	8b 80 50 01 00
	00		 mov	 eax, DWORD PTR [rax+336]
  003c8	25 00 04 00 00	 and	 eax, 1024		; 00000400H
  003cd	85 c0		 test	 eax, eax
  003cf	74 1b		 je	 SHORT $LN28@tcpnje_exe
$LN29@tcpnje_exe:
  003d1	48 8b 84 24 80
	01 00 00	 mov	 rax, QWORD PTR dev$[rsp]
  003d9	0f b7 40 48	 movzx	 eax, WORD PTR [rax+72]
  003dd	8b d0		 mov	 edx, eax
  003df	48 8d 0d 00 00
	00 00		 lea	 rcx, OFFSET FLAT:$SG160649
  003e6	ff 15 00 00 00
	00		 call	 QWORD PTR __imp_logmsg
$LN28@tcpnje_exe:

; 3111 :                         dev->devnum);
; 3112 : 
; 3113 :                 /* Calculate residual byte count */
; 3114 :                 num = (count  <  dev->numdevid) ? count : dev->numdevid;

  003ec	48 8b 84 24 80
	01 00 00	 mov	 rax, QWORD PTR dev$[rsp]
  003f4	8b 80 64 04 00
	00		 mov	 eax, DWORD PTR [rax+1124]
  003fa	39 84 24 a0 01
	00 00		 cmp	 DWORD PTR count$[rsp], eax
  00401	73 0d		 jae	 SHORT $LN304@tcpnje_exe
  00403	8b 84 24 a0 01
	00 00		 mov	 eax, DWORD PTR count$[rsp]
  0040a	89 44 24 60	 mov	 DWORD PTR tv226[rsp], eax
  0040e	eb 12		 jmp	 SHORT $LN305@tcpnje_exe
$LN304@tcpnje_exe:
  00410	48 8b 84 24 80
	01 00 00	 mov	 rax, QWORD PTR dev$[rsp]
  00418	8b 80 64 04 00
	00		 mov	 eax, DWORD PTR [rax+1124]
  0041e	89 44 24 60	 mov	 DWORD PTR tv226[rsp], eax
$LN305@tcpnje_exe:
  00422	8b 44 24 60	 mov	 eax, DWORD PTR tv226[rsp]
  00426	89 44 24 38	 mov	 DWORD PTR num$[rsp], eax

; 3115 :                 *residual = count - num;

  0042a	8b 44 24 38	 mov	 eax, DWORD PTR num$[rsp]
  0042e	8b 8c 24 a0 01
	00 00		 mov	 ecx, DWORD PTR count$[rsp]
  00435	2b c8		 sub	 ecx, eax
  00437	8b c1		 mov	 eax, ecx
  00439	48 8b 8c 24 d0
	01 00 00	 mov	 rcx, QWORD PTR residual$[rsp]
  00441	89 01		 mov	 DWORD PTR [rcx], eax

; 3116 :                 *more = count < dev->numdevid ? 1 : 0;

  00443	48 8b 84 24 80
	01 00 00	 mov	 rax, QWORD PTR dev$[rsp]
  0044b	8b 80 64 04 00
	00		 mov	 eax, DWORD PTR [rax+1124]
  00451	39 84 24 a0 01
	00 00		 cmp	 DWORD PTR count$[rsp], eax
  00458	73 0a		 jae	 SHORT $LN306@tcpnje_exe
  0045a	c7 44 24 64 01
	00 00 00	 mov	 DWORD PTR tv230[rsp], 1
  00462	eb 08		 jmp	 SHORT $LN307@tcpnje_exe
$LN306@tcpnje_exe:
  00464	c7 44 24 64 00
	00 00 00	 mov	 DWORD PTR tv230[rsp], 0
$LN307@tcpnje_exe:
  0046c	48 8b 84 24 c0
	01 00 00	 mov	 rax, QWORD PTR more$[rsp]
  00474	0f b6 4c 24 64	 movzx	 ecx, BYTE PTR tv230[rsp]
  00479	88 08		 mov	 BYTE PTR [rax], cl

; 3117 : 
; 3118 :                 /* Copy device identifier bytes to channel I/O Buffer */
; 3119 :                 memcpy (iobuf, dev->devid, num);

  0047b	8b 44 24 38	 mov	 eax, DWORD PTR num$[rsp]
  0047f	48 8b 8c 24 80
	01 00 00	 mov	 rcx, QWORD PTR dev$[rsp]
  00487	48 81 c1 68 04
	00 00		 add	 rcx, 1128		; 00000468H
  0048e	48 8b bc 24 b8
	01 00 00	 mov	 rdi, QWORD PTR iobuf$[rsp]
  00496	48 8b f1	 mov	 rsi, rcx
  00499	8b c8		 mov	 ecx, eax
  0049b	f3 a4		 rep movsb

; 3120 : 
; 3121 :                 /* Return unit status */
; 3122 :                 *unitstat = CSW_CE | CSW_DE;

  0049d	48 8b 84 24 c8
	01 00 00	 mov	 rax, QWORD PTR unitstat$[rsp]
  004a5	c6 00 0c	 mov	 BYTE PTR [rax], 12

; 3123 :                 break;

  004a8	e9 a2 35 00 00	 jmp	 $LN14@tcpnje_exe
$LN31@tcpnje_exe:

; 3124 : 
; 3125 :         /*---------------------------------------------------------------*/
; 3126 :         /* ENABLE                                                        */
; 3127 :         /*---------------------------------------------------------------*/
; 3128 :         case 0x27:
; 3129 :                 DBGMSG(1024, "HHCTN148D %4.4X:TCPNJE CCW ENABLE\n",

  004ad	48 8b 44 24 30	 mov	 rax, QWORD PTR tn$[rsp]
  004b2	48 8b 00	 mov	 rax, QWORD PTR [rax]
  004b5	8b 80 f8 05 00
	00		 mov	 eax, DWORD PTR [rax+1528]
  004bb	c1 e8 0f	 shr	 eax, 15
  004be	83 e0 01	 and	 eax, 1
  004c1	85 c0		 test	 eax, eax
  004c3	74 14		 je	 SHORT $LN34@tcpnje_exe
  004c5	48 8b 44 24 30	 mov	 rax, QWORD PTR tn$[rsp]
  004ca	8b 80 4c 01 00
	00		 mov	 eax, DWORD PTR [rax+332]
  004d0	25 00 04 00 00	 and	 eax, 1024		; 00000400H
  004d5	85 c0		 test	 eax, eax
  004d7	75 14		 jne	 SHORT $LN33@tcpnje_exe
$LN34@tcpnje_exe:
  004d9	48 8b 44 24 30	 mov	 rax, QWORD PTR tn$[rsp]
  004de	8b 80 50 01 00
	00		 mov	 eax, DWORD PTR [rax+336]
  004e4	25 00 04 00 00	 and	 eax, 1024		; 00000400H
  004e9	85 c0		 test	 eax, eax
  004eb	74 1b		 je	 SHORT $LN32@tcpnje_exe
$LN33@tcpnje_exe:
  004ed	48 8b 84 24 80
	01 00 00	 mov	 rax, QWORD PTR dev$[rsp]
  004f5	0f b7 40 48	 movzx	 eax, WORD PTR [rax+72]
  004f9	8b d0		 mov	 edx, eax
  004fb	48 8d 0d 00 00
	00 00		 lea	 rcx, OFFSET FLAT:$SG160654
  00502	ff 15 00 00 00
	00		 call	 QWORD PTR __imp_logmsg
$LN32@tcpnje_exe:

; 3130 :                         dev->devnum);
; 3131 : 
; 3132 :                 if (tn->dialin + tn->dialout * 2 == 2)

  00508	48 8b 44 24 30	 mov	 rax, QWORD PTR tn$[rsp]
  0050d	8b 80 64 01 00
	00		 mov	 eax, DWORD PTR [rax+356]
  00513	c1 e8 02	 shr	 eax, 2
  00516	83 e0 01	 and	 eax, 1
  00519	48 8b 4c 24 30	 mov	 rcx, QWORD PTR tn$[rsp]
  0051e	8b 89 64 01 00
	00		 mov	 ecx, DWORD PTR [rcx+356]
  00524	c1 e9 03	 shr	 ecx, 3
  00527	83 e1 01	 and	 ecx, 1
  0052a	8d 04 48	 lea	 eax, DWORD PTR [rax+rcx*2]
  0052d	83 f8 02	 cmp	 eax, 2
  00530	75 42		 jne	 SHORT $LN35@tcpnje_exe

; 3133 :                 {
; 3134 :                     /* Enable makes no sense on a dial out only line */
; 3135 :                     *unitstat = CSW_CE | CSW_DE | CSW_UC;

  00532	48 8b 84 24 c8
	01 00 00	 mov	 rax, QWORD PTR unitstat$[rsp]
  0053a	c6 00 0e	 mov	 BYTE PTR [rax], 14

; 3136 :                     dev->sense[0] = SENSE_IR;

  0053d	b8 01 00 00 00	 mov	 eax, 1
  00542	48 6b c0 00	 imul	 rax, rax, 0
  00546	48 8b 8c 24 80
	01 00 00	 mov	 rcx, QWORD PTR dev$[rsp]
  0054e	c6 84 01 64 03
	00 00 40	 mov	 BYTE PTR [rcx+rax+868], 64 ; 00000040H

; 3137 :                     dev->sense[1] = 0x2E; /* Simulate Failed Call In */

  00556	b8 01 00 00 00	 mov	 eax, 1
  0055b	48 6b c0 01	 imul	 rax, rax, 1
  0055f	48 8b 8c 24 80
	01 00 00	 mov	 rcx, QWORD PTR dev$[rsp]
  00567	c6 84 01 64 03
	00 00 2e	 mov	 BYTE PTR [rcx+rax+868], 46 ; 0000002eH

; 3138 :                     break;

  0056f	e9 db 34 00 00	 jmp	 $LN14@tcpnje_exe
$LN35@tcpnje_exe:

; 3139 :                 }
; 3140 :                 if (tn->haltpending)

  00574	48 8b 44 24 30	 mov	 rax, QWORD PTR tn$[rsp]
  00579	8b 80 64 01 00
	00		 mov	 eax, DWORD PTR [rax+356]
  0057f	c1 e8 06	 shr	 eax, 6
  00582	83 e0 01	 and	 eax, 1
  00585	85 c0		 test	 eax, eax
  00587	74 29		 je	 SHORT $LN36@tcpnje_exe

; 3141 :                 {
; 3142 :                     *unitstat = CSW_CE | CSW_DE | CSW_UX;

  00589	48 8b 84 24 c8
	01 00 00	 mov	 rax, QWORD PTR unitstat$[rsp]
  00591	c6 00 0d	 mov	 BYTE PTR [rax], 13

; 3143 :                     tn->haltpending = 0;

  00594	48 8b 44 24 30	 mov	 rax, QWORD PTR tn$[rsp]
  00599	8b 80 64 01 00
	00		 mov	 eax, DWORD PTR [rax+356]
  0059f	83 e0 bf	 and	 eax, -65		; ffffffbfH
  005a2	48 8b 4c 24 30	 mov	 rcx, QWORD PTR tn$[rsp]
  005a7	89 81 64 01 00
	00		 mov	 DWORD PTR [rcx+356], eax

; 3144 :                     break;

  005ad	e9 9d 34 00 00	 jmp	 $LN14@tcpnje_exe
$LN36@tcpnje_exe:

; 3145 :                 }
; 3146 :                 if (!tn->enabled)

  005b2	48 8b 44 24 30	 mov	 rax, QWORD PTR tn$[rsp]
  005b7	8b 80 64 01 00
	00		 mov	 eax, DWORD PTR [rax+356]
  005bd	83 e0 01	 and	 eax, 1
  005c0	85 c0		 test	 eax, eax
  005c2	75 28		 jne	 SHORT $LN37@tcpnje_exe

; 3147 :                 {
; 3148 :                     tn->activeopendelay = 0;

  005c4	48 8b 44 24 30	 mov	 rax, QWORD PTR tn$[rsp]
  005c9	c7 80 30 01 00
	00 00 00 00 00	 mov	 DWORD PTR [rax+304], 0

; 3149 :                     tn->enabled = 1;

  005d3	48 8b 44 24 30	 mov	 rax, QWORD PTR tn$[rsp]
  005d8	8b 80 64 01 00
	00		 mov	 eax, DWORD PTR [rax+356]
  005de	83 c8 01	 or	 eax, 1
  005e1	48 8b 4c 24 30	 mov	 rcx, QWORD PTR tn$[rsp]
  005e6	89 81 64 01 00
	00		 mov	 DWORD PTR [rcx+356], eax
$LN37@tcpnje_exe:

; 3150 :                 }
; 3151 :                 *unitstat = CSW_CE | CSW_DE;

  005ec	48 8b 84 24 c8
	01 00 00	 mov	 rax, QWORD PTR unitstat$[rsp]
  005f4	c6 00 0c	 mov	 BYTE PTR [rax], 12

; 3152 :                 break;

  005f7	e9 53 34 00 00	 jmp	 $LN14@tcpnje_exe
$LN38@tcpnje_exe:

; 3153 : 
; 3154 :         /*---------------------------------------------------------------*/
; 3155 :         /* DISABLE                                                       */
; 3156 :         /*---------------------------------------------------------------*/
; 3157 :         case 0x2F:
; 3158 :                 DBGMSG(1024, "HHCTN149D %4.4X:TCPNJE CCW DISABLE\n",

  005fc	48 8b 44 24 30	 mov	 rax, QWORD PTR tn$[rsp]
  00601	48 8b 00	 mov	 rax, QWORD PTR [rax]
  00604	8b 80 f8 05 00
	00		 mov	 eax, DWORD PTR [rax+1528]
  0060a	c1 e8 0f	 shr	 eax, 15
  0060d	83 e0 01	 and	 eax, 1
  00610	85 c0		 test	 eax, eax
  00612	74 14		 je	 SHORT $LN41@tcpnje_exe
  00614	48 8b 44 24 30	 mov	 rax, QWORD PTR tn$[rsp]
  00619	8b 80 4c 01 00
	00		 mov	 eax, DWORD PTR [rax+332]
  0061f	25 00 04 00 00	 and	 eax, 1024		; 00000400H
  00624	85 c0		 test	 eax, eax
  00626	75 14		 jne	 SHORT $LN40@tcpnje_exe
$LN41@tcpnje_exe:
  00628	48 8b 44 24 30	 mov	 rax, QWORD PTR tn$[rsp]
  0062d	8b 80 50 01 00
	00		 mov	 eax, DWORD PTR [rax+336]
  00633	25 00 04 00 00	 and	 eax, 1024		; 00000400H
  00638	85 c0		 test	 eax, eax
  0063a	74 1b		 je	 SHORT $LN39@tcpnje_exe
$LN40@tcpnje_exe:
  0063c	48 8b 84 24 80
	01 00 00	 mov	 rax, QWORD PTR dev$[rsp]
  00644	0f b7 40 48	 movzx	 eax, WORD PTR [rax+72]
  00648	8b d0		 mov	 edx, eax
  0064a	48 8d 0d 00 00
	00 00		 lea	 rcx, OFFSET FLAT:$SG160662
  00651	ff 15 00 00 00
	00		 call	 QWORD PTR __imp_logmsg
$LN39@tcpnje_exe:

; 3159 :                         dev->devnum);
; 3160 : 
; 3161 :                 if (tn->state == CLOSED)

  00657	48 8b 44 24 30	 mov	 rax, QWORD PTR tn$[rsp]
  0065c	83 b8 54 01 00
	00 00		 cmp	 DWORD PTR [rax+340], 0
  00663	75 29		 jne	 SHORT $LN42@tcpnje_exe

; 3162 :                 {
; 3163 :                     *unitstat = CSW_CE | CSW_DE;

  00665	48 8b 84 24 c8
	01 00 00	 mov	 rax, QWORD PTR unitstat$[rsp]
  0066d	c6 00 0c	 mov	 BYTE PTR [rax], 12

; 3164 :                     tn->enabled = 0;

  00670	48 8b 44 24 30	 mov	 rax, QWORD PTR tn$[rsp]
  00675	8b 80 64 01 00
	00		 mov	 eax, DWORD PTR [rax+356]
  0067b	83 e0 fe	 and	 eax, -2			; fffffffeH
  0067e	48 8b 4c 24 30	 mov	 rcx, QWORD PTR tn$[rsp]
  00683	89 81 64 01 00
	00		 mov	 DWORD PTR [rcx+356], eax

; 3165 :                     break;

  00689	e9 c1 33 00 00	 jmp	 $LN14@tcpnje_exe
$LN42@tcpnje_exe:

; 3166 :                 }
; 3167 :                 tn->curpending = TCPNJE_PEND_DISABLE;

  0068e	48 8b 44 24 30	 mov	 rax, QWORD PTR tn$[rsp]
  00693	c6 80 60 01 00
	00 05		 mov	 BYTE PTR [rax+352], 5

; 3168 : 
; 3169 :                 /* Tell worker thread to go execute DISABLE and wait for it to complete */
; 3170 :                 if (!tcpnje_wakeup_and_wait(tn, 0))

  0069a	33 d2		 xor	 edx, edx
  0069c	48 8b 4c 24 30	 mov	 rcx, QWORD PTR tn$[rsp]
  006a1	e8 00 00 00 00	 call	 tcpnje_wakeup_and_wait
  006a6	85 c0		 test	 eax, eax
  006a8	75 42		 jne	 SHORT $LN43@tcpnje_exe

; 3171 :                 {
; 3172 :                     /* If thread is not running, indicate something is wrong */
; 3173 :                     *unitstat = CSW_CE | CSW_DE | CSW_UC;

  006aa	48 8b 84 24 c8
	01 00 00	 mov	 rax, QWORD PTR unitstat$[rsp]
  006b2	c6 00 0e	 mov	 BYTE PTR [rax], 14

; 3174 :                     dev->sense[0] = SENSE_IR;

  006b5	b8 01 00 00 00	 mov	 eax, 1
  006ba	48 6b c0 00	 imul	 rax, rax, 0
  006be	48 8b 8c 24 80
	01 00 00	 mov	 rcx, QWORD PTR dev$[rsp]
  006c6	c6 84 01 64 03
	00 00 40	 mov	 BYTE PTR [rcx+rax+868], 64 ; 00000040H

; 3175 :                     dev->sense[1] = 0;

  006ce	b8 01 00 00 00	 mov	 eax, 1
  006d3	48 6b c0 01	 imul	 rax, rax, 1
  006d7	48 8b 8c 24 80
	01 00 00	 mov	 rcx, QWORD PTR dev$[rsp]
  006df	c6 84 01 64 03
	00 00 00	 mov	 BYTE PTR [rcx+rax+868], 0

; 3176 :                     break;

  006e7	e9 63 33 00 00	 jmp	 $LN14@tcpnje_exe
$LN43@tcpnje_exe:

; 3177 :                 }
; 3178 : 
; 3179 :                 tn->enabled = 0;

  006ec	48 8b 44 24 30	 mov	 rax, QWORD PTR tn$[rsp]
  006f1	8b 80 64 01 00
	00		 mov	 eax, DWORD PTR [rax+356]
  006f7	83 e0 fe	 and	 eax, -2			; fffffffeH
  006fa	48 8b 4c 24 30	 mov	 rcx, QWORD PTR tn$[rsp]
  006ff	89 81 64 01 00
	00		 mov	 DWORD PTR [rcx+356], eax

; 3180 :                 *unitstat = CSW_CE | CSW_DE;

  00705	48 8b 84 24 c8
	01 00 00	 mov	 rax, QWORD PTR unitstat$[rsp]
  0070d	c6 00 0c	 mov	 BYTE PTR [rax], 12

; 3181 :                 break;

  00710	e9 3a 33 00 00	 jmp	 $LN14@tcpnje_exe
$LN44@tcpnje_exe:

; 3182 :         /*---------------------------------------------------------------*/
; 3183 :         /* SET MODE                                                      */
; 3184 :         /*---------------------------------------------------------------*/
; 3185 :         case 0x23:
; 3186 :                 DBGMSG(1024, "HHCTN150D %4.4X:TCPNJE CCW SET MODE %s\n",

  00715	48 8b 44 24 30	 mov	 rax, QWORD PTR tn$[rsp]
  0071a	48 8b 00	 mov	 rax, QWORD PTR [rax]
  0071d	8b 80 f8 05 00
	00		 mov	 eax, DWORD PTR [rax+1528]
  00723	c1 e8 0f	 shr	 eax, 15
  00726	83 e0 01	 and	 eax, 1
  00729	85 c0		 test	 eax, eax
  0072b	74 14		 je	 SHORT $LN47@tcpnje_exe
  0072d	48 8b 44 24 30	 mov	 rax, QWORD PTR tn$[rsp]
  00732	8b 80 4c 01 00
	00		 mov	 eax, DWORD PTR [rax+332]
  00738	25 00 04 00 00	 and	 eax, 1024		; 00000400H
  0073d	85 c0		 test	 eax, eax
  0073f	75 14		 jne	 SHORT $LN46@tcpnje_exe
$LN47@tcpnje_exe:
  00741	48 8b 44 24 30	 mov	 rax, QWORD PTR tn$[rsp]
  00746	8b 80 50 01 00
	00		 mov	 eax, DWORD PTR [rax+336]
  0074c	25 00 04 00 00	 and	 eax, 1024		; 00000400H
  00751	85 c0		 test	 eax, eax
  00753	74 5f		 je	 SHORT $LN45@tcpnje_exe
$LN46@tcpnje_exe:
  00755	b8 01 00 00 00	 mov	 eax, 1
  0075a	48 6b c0 00	 imul	 rax, rax, 0
  0075e	48 8b 8c 24 b8
	01 00 00	 mov	 rcx, QWORD PTR iobuf$[rsp]
  00766	0f b6 04 01	 movzx	 eax, BYTE PTR [rcx+rax]
  0076a	83 e0 40	 and	 eax, 64			; 00000040H
  0076d	85 c0		 test	 eax, eax
  0076f	74 11		 je	 SHORT $LN308@tcpnje_exe
  00771	48 8d 05 00 00
	00 00		 lea	 rax, OFFSET FLAT:$SG160669
  00778	48 89 84 24 90
	00 00 00	 mov	 QWORD PTR tv333[rsp], rax
  00780	eb 0f		 jmp	 SHORT $LN309@tcpnje_exe
$LN308@tcpnje_exe:
  00782	48 8d 05 00 00
	00 00		 lea	 rax, OFFSET FLAT:$SG160670
  00789	48 89 84 24 90
	00 00 00	 mov	 QWORD PTR tv333[rsp], rax
$LN309@tcpnje_exe:
  00791	48 8b 84 24 80
	01 00 00	 mov	 rax, QWORD PTR dev$[rsp]
  00799	0f b7 40 48	 movzx	 eax, WORD PTR [rax+72]
  0079d	4c 8b 84 24 90
	00 00 00	 mov	 r8, QWORD PTR tv333[rsp]
  007a5	8b d0		 mov	 edx, eax
  007a7	48 8d 0d 00 00
	00 00		 lea	 rcx, OFFSET FLAT:$SG160671
  007ae	ff 15 00 00 00
	00		 call	 QWORD PTR __imp_logmsg
$LN45@tcpnje_exe:

; 3187 :                         dev->devnum, iobuf[0] & 0x40 ? "EIB" : "NO EIB");
; 3188 : 
; 3189 :                 num = 1;

  007b4	c7 44 24 38 01
	00 00 00	 mov	 DWORD PTR num$[rsp], 1

; 3190 :                 *residual = count - num;

  007bc	8b 44 24 38	 mov	 eax, DWORD PTR num$[rsp]
  007c0	8b 8c 24 a0 01
	00 00		 mov	 ecx, DWORD PTR count$[rsp]
  007c7	2b c8		 sub	 ecx, eax
  007c9	8b c1		 mov	 eax, ecx
  007cb	48 8b 8c 24 d0
	01 00 00	 mov	 rcx, QWORD PTR residual$[rsp]
  007d3	89 01		 mov	 DWORD PTR [rcx], eax

; 3191 :                 *unitstat = CSW_CE | CSW_DE;

  007d5	48 8b 84 24 c8
	01 00 00	 mov	 rax, QWORD PTR unitstat$[rsp]
  007dd	c6 00 0c	 mov	 BYTE PTR [rax], 12

; 3192 : 
; 3193 :                 tn->eibmode = (iobuf[0] & 0x40) ? 1 : 0;

  007e0	b8 01 00 00 00	 mov	 eax, 1
  007e5	48 6b c0 00	 imul	 rax, rax, 0
  007e9	48 8b 8c 24 b8
	01 00 00	 mov	 rcx, QWORD PTR iobuf$[rsp]
  007f1	0f b6 04 01	 movzx	 eax, BYTE PTR [rcx+rax]
  007f5	83 e0 40	 and	 eax, 64			; 00000040H
  007f8	85 c0		 test	 eax, eax
  007fa	74 0a		 je	 SHORT $LN310@tcpnje_exe
  007fc	c7 44 24 68 01
	00 00 00	 mov	 DWORD PTR tv346[rsp], 1
  00804	eb 08		 jmp	 SHORT $LN311@tcpnje_exe
$LN310@tcpnje_exe:
  00806	c7 44 24 68 00
	00 00 00	 mov	 DWORD PTR tv346[rsp], 0
$LN311@tcpnje_exe:
  0080e	8b 44 24 68	 mov	 eax, DWORD PTR tv346[rsp]
  00812	83 e0 01	 and	 eax, 1
  00815	d1 e0		 shl	 eax, 1
  00817	48 8b 4c 24 30	 mov	 rcx, QWORD PTR tn$[rsp]
  0081c	8b 89 64 01 00
	00		 mov	 ecx, DWORD PTR [rcx+356]
  00822	83 e1 fd	 and	 ecx, -3			; fffffffdH
  00825	0b c8		 or	 ecx, eax
  00827	8b c1		 mov	 eax, ecx
  00829	48 8b 4c 24 30	 mov	 rcx, QWORD PTR tn$[rsp]
  0082e	89 81 64 01 00
	00		 mov	 DWORD PTR [rcx+356], eax

; 3194 :                 break;

  00834	e9 16 32 00 00	 jmp	 $LN14@tcpnje_exe
$LN48@tcpnje_exe:

; 3195 : 
; 3196 :         /*---------------------------------------------------------------*/
; 3197 :         /* DIAL                                                          */
; 3198 :         /* Info on DIAL DATA :                                           */
; 3199 :         /* Dial character formats :                                      */
; 3200 :         /*                        x x x x 0 0 0 0 : 0                    */
; 3201 :         /*                            ........                           */
; 3202 :         /*                        x x x x 1 0 0 1 : 9                    */
; 3203 :         /*                        x x x x 1 1 0 0 : SEP                  */
; 3204 :         /*                        x x x x 1 1 0 1 : EON                  */
; 3205 :         /* EON is ignored                                                */
; 3206 :         /* format is : AAA/SEP/BBB/SEP/CCC/SEP/DDD/SEP/PPPP              */
; 3207 :         /*          where A,B,C,D,P are numbers from 0 to 9              */
; 3208 :         /* This perfoms an outgoing call to AAA.BBB.CCC.DDD port PPPP    */
; 3209 :         /*---------------------------------------------------------------*/
; 3210 :         /* NOTE:  DIAL is mostly as it was in commadpt with tweaks to    */
; 3211 :         /*        adapt it to the TCPNJE environment.  It is most        */
; 3212 :         /*        unlikely to function correctly without further work.   */
; 3213 :         /*        I will look into getting it working if interest is     */
; 3214 :         /*        expressed in making use of it.                         */
; 3215 :         /*---------------------------------------------------------------*/
; 3216 :         case 0x29:
; 3217 :                 DBGMSG(1024, "HHCTN151D %4.4X:TCPNJE - CCW DIAL\n",

  00839	48 8b 44 24 30	 mov	 rax, QWORD PTR tn$[rsp]
  0083e	48 8b 00	 mov	 rax, QWORD PTR [rax]
  00841	8b 80 f8 05 00
	00		 mov	 eax, DWORD PTR [rax+1528]
  00847	c1 e8 0f	 shr	 eax, 15
  0084a	83 e0 01	 and	 eax, 1
  0084d	85 c0		 test	 eax, eax
  0084f	74 14		 je	 SHORT $LN51@tcpnje_exe
  00851	48 8b 44 24 30	 mov	 rax, QWORD PTR tn$[rsp]
  00856	8b 80 4c 01 00
	00		 mov	 eax, DWORD PTR [rax+332]
  0085c	25 00 04 00 00	 and	 eax, 1024		; 00000400H
  00861	85 c0		 test	 eax, eax
  00863	75 14		 jne	 SHORT $LN50@tcpnje_exe
$LN51@tcpnje_exe:
  00865	48 8b 44 24 30	 mov	 rax, QWORD PTR tn$[rsp]
  0086a	8b 80 50 01 00
	00		 mov	 eax, DWORD PTR [rax+336]
  00870	25 00 04 00 00	 and	 eax, 1024		; 00000400H
  00875	85 c0		 test	 eax, eax
  00877	74 1b		 je	 SHORT $LN49@tcpnje_exe
$LN50@tcpnje_exe:
  00879	48 8b 84 24 80
	01 00 00	 mov	 rax, QWORD PTR dev$[rsp]
  00881	0f b7 40 48	 movzx	 eax, WORD PTR [rax+72]
  00885	8b d0		 mov	 edx, eax
  00887	48 8d 0d 00 00
	00 00		 lea	 rcx, OFFSET FLAT:$SG160676
  0088e	ff 15 00 00 00
	00		 call	 QWORD PTR __imp_logmsg
$LN49@tcpnje_exe:

; 3218 :                         dev->devnum);
; 3219 : 
; 3220 :                 /* The line must have dial-out capability */
; 3221 :                 if (!tn->dialout)

  00894	48 8b 44 24 30	 mov	 rax, QWORD PTR tn$[rsp]
  00899	8b 80 64 01 00
	00		 mov	 eax, DWORD PTR [rax+356]
  0089f	c1 e8 03	 shr	 eax, 3
  008a2	83 e0 01	 and	 eax, 1
  008a5	85 c0		 test	 eax, eax
  008a7	75 42		 jne	 SHORT $LN52@tcpnje_exe

; 3222 :                 {
; 3223 :                     *unitstat = CSW_CE | CSW_DE | CSW_UC;

  008a9	48 8b 84 24 c8
	01 00 00	 mov	 rax, QWORD PTR unitstat$[rsp]
  008b1	c6 00 0e	 mov	 BYTE PTR [rax], 14

; 3224 :                     dev->sense[0] = SENSE_CR;

  008b4	b8 01 00 00 00	 mov	 eax, 1
  008b9	48 6b c0 00	 imul	 rax, rax, 0
  008bd	48 8b 8c 24 80
	01 00 00	 mov	 rcx, QWORD PTR dev$[rsp]
  008c5	c6 84 01 64 03
	00 00 80	 mov	 BYTE PTR [rcx+rax+868], 128 ; 00000080H

; 3225 :                     dev->sense[1] = 0x04;

  008cd	b8 01 00 00 00	 mov	 eax, 1
  008d2	48 6b c0 01	 imul	 rax, rax, 1
  008d6	48 8b 8c 24 80
	01 00 00	 mov	 rcx, QWORD PTR dev$[rsp]
  008de	c6 84 01 64 03
	00 00 04	 mov	 BYTE PTR [rcx+rax+868], 4

; 3226 :                     break;

  008e6	e9 64 31 00 00	 jmp	 $LN14@tcpnje_exe
$LN52@tcpnje_exe:

; 3227 :                 }
; 3228 :                 /* The line must be disabled */
; 3229 :                 if (tn->enabled)

  008eb	48 8b 44 24 30	 mov	 rax, QWORD PTR tn$[rsp]
  008f0	8b 80 64 01 00
	00		 mov	 eax, DWORD PTR [rax+356]
  008f6	83 e0 01	 and	 eax, 1
  008f9	85 c0		 test	 eax, eax
  008fb	74 42		 je	 SHORT $LN53@tcpnje_exe

; 3230 :                 {
; 3231 :                     *unitstat = CSW_CE | CSW_DE | CSW_UC;

  008fd	48 8b 84 24 c8
	01 00 00	 mov	 rax, QWORD PTR unitstat$[rsp]
  00905	c6 00 0e	 mov	 BYTE PTR [rax], 14

; 3232 :                     dev->sense[0] = SENSE_CR;

  00908	b8 01 00 00 00	 mov	 eax, 1
  0090d	48 6b c0 00	 imul	 rax, rax, 0
  00911	48 8b 8c 24 80
	01 00 00	 mov	 rcx, QWORD PTR dev$[rsp]
  00919	c6 84 01 64 03
	00 00 80	 mov	 BYTE PTR [rcx+rax+868], 128 ; 00000080H

; 3233 :                     dev->sense[1] = 0x05;

  00921	b8 01 00 00 00	 mov	 eax, 1
  00926	48 6b c0 01	 imul	 rax, rax, 1
  0092a	48 8b 8c 24 80
	01 00 00	 mov	 rcx, QWORD PTR dev$[rsp]
  00932	c6 84 01 64 03
	00 00 05	 mov	 BYTE PTR [rcx+rax+868], 5

; 3234 :                     break;

  0093a	e9 10 31 00 00	 jmp	 $LN14@tcpnje_exe
$LN53@tcpnje_exe:

; 3235 :                 }
; 3236 : 
; 3237 :                 DBGMSG(1, "HHCTN077W %4.4X:TCPNJE - DIAL operation is not currently supported by TCPNJE\n",

  0093f	48 8b 44 24 30	 mov	 rax, QWORD PTR tn$[rsp]
  00944	48 8b 00	 mov	 rax, QWORD PTR [rax]
  00947	8b 80 f8 05 00
	00		 mov	 eax, DWORD PTR [rax+1528]
  0094d	c1 e8 0f	 shr	 eax, 15
  00950	83 e0 01	 and	 eax, 1
  00953	85 c0		 test	 eax, eax
  00955	74 12		 je	 SHORT $LN56@tcpnje_exe
  00957	48 8b 44 24 30	 mov	 rax, QWORD PTR tn$[rsp]
  0095c	8b 80 4c 01 00
	00		 mov	 eax, DWORD PTR [rax+332]
  00962	83 e0 01	 and	 eax, 1
  00965	85 c0		 test	 eax, eax
  00967	75 12		 jne	 SHORT $LN55@tcpnje_exe
$LN56@tcpnje_exe:
  00969	48 8b 44 24 30	 mov	 rax, QWORD PTR tn$[rsp]
  0096e	8b 80 50 01 00
	00		 mov	 eax, DWORD PTR [rax+336]
  00974	83 e0 01	 and	 eax, 1
  00977	85 c0		 test	 eax, eax
  00979	74 1b		 je	 SHORT $LN54@tcpnje_exe
$LN55@tcpnje_exe:
  0097b	48 8b 84 24 80
	01 00 00	 mov	 rax, QWORD PTR dev$[rsp]
  00983	0f b7 40 48	 movzx	 eax, WORD PTR [rax+72]
  00987	8b d0		 mov	 edx, eax
  00989	48 8d 0d 00 00
	00 00		 lea	 rcx, OFFSET FLAT:$SG160682
  00990	ff 15 00 00 00
	00		 call	 QWORD PTR __imp_logmsg
$LN54@tcpnje_exe:

; 3238 :                         dev->devnum);
; 3239 : 
; 3240 :                 num = count > sizeof(tn->dialdata) ? sizeof(tn->dialdata) : count;

  00996	8b 84 24 a0 01
	00 00		 mov	 eax, DWORD PTR count$[rsp]
  0099d	48 83 f8 20	 cmp	 rax, 32			; 00000020H
  009a1	76 0e		 jbe	 SHORT $LN312@tcpnje_exe
  009a3	48 c7 84 24 98
	00 00 00 20 00
	00 00		 mov	 QWORD PTR tv404[rsp], 32 ; 00000020H
  009af	eb 0f		 jmp	 SHORT $LN313@tcpnje_exe
$LN312@tcpnje_exe:
  009b1	8b 84 24 a0 01
	00 00		 mov	 eax, DWORD PTR count$[rsp]
  009b8	48 89 84 24 98
	00 00 00	 mov	 QWORD PTR tv404[rsp], rax
$LN313@tcpnje_exe:
  009c0	8b 84 24 98 00
	00 00		 mov	 eax, DWORD PTR tv404[rsp]
  009c7	89 44 24 38	 mov	 DWORD PTR num$[rsp], eax

; 3241 :                 memcpy(tn->dialdata, iobuf, num);

  009cb	8b 44 24 38	 mov	 eax, DWORD PTR num$[rsp]
  009cf	48 8b 4c 24 30	 mov	 rcx, QWORD PTR tn$[rsp]
  009d4	48 83 c1 10	 add	 rcx, 16
  009d8	48 8b f9	 mov	 rdi, rcx
  009db	48 8b b4 24 b8
	01 00 00	 mov	 rsi, QWORD PTR iobuf$[rsp]
  009e3	8b c8		 mov	 ecx, eax
  009e5	f3 a4		 rep movsb

; 3242 :                 tn->curpending = TCPNJE_PEND_DIAL;

  009e7	48 8b 44 24 30	 mov	 rax, QWORD PTR tn$[rsp]
  009ec	c6 80 60 01 00
	00 04		 mov	 BYTE PTR [rax+352], 4

; 3243 : 
; 3244 :                 /* Tell worker thread to DIAL and wait for it to complete */
; 3245 :                 if (!tcpnje_wakeup_and_wait(tn, 0))

  009f3	33 d2		 xor	 edx, edx
  009f5	48 8b 4c 24 30	 mov	 rcx, QWORD PTR tn$[rsp]
  009fa	e8 00 00 00 00	 call	 tcpnje_wakeup_and_wait
  009ff	85 c0		 test	 eax, eax
  00a01	75 42		 jne	 SHORT $LN57@tcpnje_exe

; 3246 :                 {
; 3247 :                     /* If thread is not running, indicate something is wrong */
; 3248 :                     *unitstat = CSW_CE | CSW_DE | CSW_UC;

  00a03	48 8b 84 24 c8
	01 00 00	 mov	 rax, QWORD PTR unitstat$[rsp]
  00a0b	c6 00 0e	 mov	 BYTE PTR [rax], 14

; 3249 :                     dev->sense[0] = SENSE_IR;

  00a0e	b8 01 00 00 00	 mov	 eax, 1
  00a13	48 6b c0 00	 imul	 rax, rax, 0
  00a17	48 8b 8c 24 80
	01 00 00	 mov	 rcx, QWORD PTR dev$[rsp]
  00a1f	c6 84 01 64 03
	00 00 40	 mov	 BYTE PTR [rcx+rax+868], 64 ; 00000040H

; 3250 :                     dev->sense[1] = 0;

  00a27	b8 01 00 00 00	 mov	 eax, 1
  00a2c	48 6b c0 01	 imul	 rax, rax, 1
  00a30	48 8b 8c 24 80
	01 00 00	 mov	 rcx, QWORD PTR dev$[rsp]
  00a38	c6 84 01 64 03
	00 00 00	 mov	 BYTE PTR [rcx+rax+868], 0

; 3251 :                     break;

  00a40	e9 0a 30 00 00	 jmp	 $LN14@tcpnje_exe
$LN57@tcpnje_exe:

; 3252 :                 }
; 3253 : 
; 3254 :                 *residual = count - num;

  00a45	8b 44 24 38	 mov	 eax, DWORD PTR num$[rsp]
  00a49	8b 8c 24 a0 01
	00 00		 mov	 ecx, DWORD PTR count$[rsp]
  00a50	2b c8		 sub	 ecx, eax
  00a52	8b c1		 mov	 eax, ecx
  00a54	48 8b 8c 24 d0
	01 00 00	 mov	 rcx, QWORD PTR residual$[rsp]
  00a5c	89 01		 mov	 DWORD PTR [rcx], eax

; 3255 :                 if (tn->haltpending)

  00a5e	48 8b 44 24 30	 mov	 rax, QWORD PTR tn$[rsp]
  00a63	8b 80 64 01 00
	00		 mov	 eax, DWORD PTR [rax+356]
  00a69	c1 e8 06	 shr	 eax, 6
  00a6c	83 e0 01	 and	 eax, 1
  00a6f	85 c0		 test	 eax, eax
  00a71	74 29		 je	 SHORT $LN58@tcpnje_exe

; 3256 :                 {
; 3257 :                     *unitstat = CSW_CE | CSW_DE | CSW_UX;

  00a73	48 8b 84 24 c8
	01 00 00	 mov	 rax, QWORD PTR unitstat$[rsp]
  00a7b	c6 00 0d	 mov	 BYTE PTR [rax], 13

; 3258 :                     tn->haltpending = 0;

  00a7e	48 8b 44 24 30	 mov	 rax, QWORD PTR tn$[rsp]
  00a83	8b 80 64 01 00
	00		 mov	 eax, DWORD PTR [rax+356]
  00a89	83 e0 bf	 and	 eax, -65		; ffffffbfH
  00a8c	48 8b 4c 24 30	 mov	 rcx, QWORD PTR tn$[rsp]
  00a91	89 81 64 01 00
	00		 mov	 DWORD PTR [rcx+356], eax

; 3259 :                     break;

  00a97	e9 b3 2f 00 00	 jmp	 $LN14@tcpnje_exe
$LN58@tcpnje_exe:

; 3260 :                 }
; 3261 :                 if (tn->state < NJECONPRI)

  00a9c	48 8b 44 24 30	 mov	 rax, QWORD PTR tn$[rsp]
  00aa1	83 b8 54 01 00
	00 08		 cmp	 DWORD PTR [rax+340], 8
  00aa8	7d 58		 jge	 SHORT $LN59@tcpnje_exe

; 3262 :                 {
; 3263 :                     *unitstat = CSW_CE | CSW_DE | CSW_UC;

  00aaa	48 8b 84 24 c8
	01 00 00	 mov	 rax, QWORD PTR unitstat$[rsp]
  00ab2	c6 00 0e	 mov	 BYTE PTR [rax], 14

; 3264 :                     dev->sense[0] = SENSE_IR;

  00ab5	b8 01 00 00 00	 mov	 eax, 1
  00aba	48 6b c0 00	 imul	 rax, rax, 0
  00abe	48 8b 8c 24 80
	01 00 00	 mov	 rcx, QWORD PTR dev$[rsp]
  00ac6	c6 84 01 64 03
	00 00 40	 mov	 BYTE PTR [rcx+rax+868], 64 ; 00000040H

; 3265 :                     dev->sense[1] = 0;

  00ace	b8 01 00 00 00	 mov	 eax, 1
  00ad3	48 6b c0 01	 imul	 rax, rax, 1
  00ad7	48 8b 8c 24 80
	01 00 00	 mov	 rcx, QWORD PTR dev$[rsp]
  00adf	c6 84 01 64 03
	00 00 00	 mov	 BYTE PTR [rcx+rax+868], 0

; 3266 :                     tn->enabled = 0;

  00ae7	48 8b 44 24 30	 mov	 rax, QWORD PTR tn$[rsp]
  00aec	8b 80 64 01 00
	00		 mov	 eax, DWORD PTR [rax+356]
  00af2	83 e0 fe	 and	 eax, -2			; fffffffeH
  00af5	48 8b 4c 24 30	 mov	 rcx, QWORD PTR tn$[rsp]
  00afa	89 81 64 01 00
	00		 mov	 DWORD PTR [rcx+356], eax

; 3267 :                 }

  00b00	eb 24		 jmp	 SHORT $LN60@tcpnje_exe
$LN59@tcpnje_exe:

; 3268 :                 else
; 3269 :                 {
; 3270 :                     *unitstat = CSW_CE | CSW_DE;

  00b02	48 8b 84 24 c8
	01 00 00	 mov	 rax, QWORD PTR unitstat$[rsp]
  00b0a	c6 00 0c	 mov	 BYTE PTR [rax], 12

; 3271 :                     tn->enabled = 1;

  00b0d	48 8b 44 24 30	 mov	 rax, QWORD PTR tn$[rsp]
  00b12	8b 80 64 01 00
	00		 mov	 eax, DWORD PTR [rax+356]
  00b18	83 c8 01	 or	 eax, 1
  00b1b	48 8b 4c 24 30	 mov	 rcx, QWORD PTR tn$[rsp]
  00b20	89 81 64 01 00
	00		 mov	 DWORD PTR [rcx+356], eax
$LN60@tcpnje_exe:

; 3272 :                 }
; 3273 :                 break;

  00b26	e9 24 2f 00 00	 jmp	 $LN14@tcpnje_exe
$LN61@tcpnje_exe:

; 3274 : 
; 3275 :         /*---------------------------------------------------------------*/
; 3276 :         /* READ                                                          */
; 3277 :         /*---------------------------------------------------------------*/
; 3278 :         case 0x02:
; 3279 :                 DBGMSG(1024, "HHCTN152D %4.4X:TCPNJE CCW READ count %d\n",

  00b2b	48 8b 44 24 30	 mov	 rax, QWORD PTR tn$[rsp]
  00b30	48 8b 00	 mov	 rax, QWORD PTR [rax]
  00b33	8b 80 f8 05 00
	00		 mov	 eax, DWORD PTR [rax+1528]
  00b39	c1 e8 0f	 shr	 eax, 15
  00b3c	83 e0 01	 and	 eax, 1
  00b3f	85 c0		 test	 eax, eax
  00b41	74 14		 je	 SHORT $LN64@tcpnje_exe
  00b43	48 8b 44 24 30	 mov	 rax, QWORD PTR tn$[rsp]
  00b48	8b 80 4c 01 00
	00		 mov	 eax, DWORD PTR [rax+332]
  00b4e	25 00 04 00 00	 and	 eax, 1024		; 00000400H
  00b53	85 c0		 test	 eax, eax
  00b55	75 14		 jne	 SHORT $LN63@tcpnje_exe
$LN64@tcpnje_exe:
  00b57	48 8b 44 24 30	 mov	 rax, QWORD PTR tn$[rsp]
  00b5c	8b 80 50 01 00
	00		 mov	 eax, DWORD PTR [rax+336]
  00b62	25 00 04 00 00	 and	 eax, 1024		; 00000400H
  00b67	85 c0		 test	 eax, eax
  00b69	74 23		 je	 SHORT $LN62@tcpnje_exe
$LN63@tcpnje_exe:
  00b6b	48 8b 84 24 80
	01 00 00	 mov	 rax, QWORD PTR dev$[rsp]
  00b73	0f b7 40 48	 movzx	 eax, WORD PTR [rax+72]
  00b77	44 8b 84 24 a0
	01 00 00	 mov	 r8d, DWORD PTR count$[rsp]
  00b7f	8b d0		 mov	 edx, eax
  00b81	48 8d 0d 00 00
	00 00		 lea	 rcx, OFFSET FLAT:$SG160691
  00b88	ff 15 00 00 00
	00		 call	 QWORD PTR __imp_logmsg
$LN62@tcpnje_exe:

; 3280 :                         dev->devnum, count);
; 3281 : 
; 3282 :                 /*  Read strategy is complicated in order to avoid       */
; 3283 :                 /*  delaying transmission of files being sent in one     */
; 3284 :                 /*  direction while the link is idle in the other        */
; 3285 :                 /*  direction, to avoid files being sent in opposite     */
; 3286 :                 /*  directions at the same time interfering with each    */
; 3287 :                 /*  other or getting delayed and to avoid wasting        */
; 3288 :                 /*  resources in tight loops when the link is idle in    */
; 3289 :                 /*  both directions.  It is also necessary to implement  */
; 3290 :                 /*  flow control.  This is how it is supposed to work:   */
; 3291 :                 /*                                                       */
; 3292 :                 /*  - Check for any data remaining in input buffer from  */
; 3293 :                 /*    a previous read.                                   */
; 3294 :                 /*  - If no data, using a very short timeout, check for  */
; 3295 :                 /*    incoming data not yet read from the TCP/IP stack.  */
; 3296 :                 /*  - If no data and outgoing buffers have been written  */
; 3297 :                 /*    out but not acknowledged, fake an acknowledgement. */
; 3298 :                 /*  - If there was no outgoing data to acknowledge, try  */
; 3299 :                 /*    reading from the network with a longer timeout.    */
; 3300 :                 /*  - If the read times out and the link is connected    */
; 3301 :                 /*    and signed on, fake an acknowledgement anyway.     */
; 3302 :                 /*  - If link is not signed on, fail with timeout error. */
; 3303 :                 /*                                                       */
; 3304 :                 /*  For each buffer presented to RSCS, alter the FCS     */
; 3305 :                 /*  according to whether outgoing data from RSCS can be  */
; 3306 :                 /*  accepted at the moment.                              */
; 3307 : 
; 3308 :                 /* Check the line is enabled */
; 3309 :                 if (!tn->enabled)

  00b8e	48 8b 44 24 30	 mov	 rax, QWORD PTR tn$[rsp]
  00b93	8b 80 64 01 00
	00		 mov	 eax, DWORD PTR [rax+356]
  00b99	83 e0 01	 and	 eax, 1
  00b9c	85 c0		 test	 eax, eax
  00b9e	75 53		 jne	 SHORT $LN65@tcpnje_exe

; 3310 :                 {
; 3311 :                     *residual = count;

  00ba0	48 8b 84 24 d0
	01 00 00	 mov	 rax, QWORD PTR residual$[rsp]
  00ba8	8b 8c 24 a0 01
	00 00		 mov	 ecx, DWORD PTR count$[rsp]
  00baf	89 08		 mov	 DWORD PTR [rax], ecx

; 3312 :                     *unitstat = CSW_CE | CSW_DE | CSW_UC;

  00bb1	48 8b 84 24 c8
	01 00 00	 mov	 rax, QWORD PTR unitstat$[rsp]
  00bb9	c6 00 0e	 mov	 BYTE PTR [rax], 14

; 3313 :                     dev->sense[0] = SENSE_CR;

  00bbc	b8 01 00 00 00	 mov	 eax, 1
  00bc1	48 6b c0 00	 imul	 rax, rax, 0
  00bc5	48 8b 8c 24 80
	01 00 00	 mov	 rcx, QWORD PTR dev$[rsp]
  00bcd	c6 84 01 64 03
	00 00 80	 mov	 BYTE PTR [rcx+rax+868], 128 ; 00000080H

; 3314 :                     dev->sense[1] = 0x06;

  00bd5	b8 01 00 00 00	 mov	 eax, 1
  00bda	48 6b c0 01	 imul	 rax, rax, 1
  00bde	48 8b 8c 24 80
	01 00 00	 mov	 rcx, QWORD PTR dev$[rsp]
  00be6	c6 84 01 64 03
	00 00 06	 mov	 BYTE PTR [rcx+rax+868], 6

; 3315 :                     break;

  00bee	e9 5c 2e 00 00	 jmp	 $LN14@tcpnje_exe
$LN65@tcpnje_exe:

; 3316 :                 }
; 3317 : 
; 3318 :                 /* Data lost condition cleared by read (if it was ever set)  */
; 3319 :                 tn->datalostcond = 0;

  00bf3	48 8b 44 24 30	 mov	 rax, QWORD PTR tn$[rsp]
  00bf8	8b 80 64 01 00
	00		 mov	 eax, DWORD PTR [rax+356]
  00bfe	0f ba f0 0f	 btr	 eax, 15
  00c02	48 8b 4c 24 30	 mov	 rcx, QWORD PTR tn$[rsp]
  00c07	89 81 64 01 00
	00		 mov	 DWORD PTR [rcx+356], eax

; 3320 : 
; 3321 :                 /* If link partner has gone away, tell RSCS to stop link.    */
; 3322 :                 if (tn->signoff)

  00c0d	48 8b 44 24 30	 mov	 rax, QWORD PTR tn$[rsp]
  00c12	8b 80 64 01 00
	00		 mov	 eax, DWORD PTR [rax+356]
  00c18	c1 e8 0e	 shr	 eax, 14
  00c1b	83 e0 01	 and	 eax, 1
  00c1e	85 c0		 test	 eax, eax
  00c20	0f 84 9d 01 00
	00		 je	 $LN66@tcpnje_exe

; 3323 :                 {
; 3324 :                     num = count < sizeof(signoff) ? count : sizeof(signoff);

  00c26	8b 84 24 a0 01
	00 00		 mov	 eax, DWORD PTR count$[rsp]
  00c2d	48 83 f8 0a	 cmp	 rax, 10
  00c31	73 11		 jae	 SHORT $LN314@tcpnje_exe
  00c33	8b 84 24 a0 01
	00 00		 mov	 eax, DWORD PTR count$[rsp]
  00c3a	48 89 84 24 a0
	00 00 00	 mov	 QWORD PTR tv481[rsp], rax
  00c42	eb 0c		 jmp	 SHORT $LN315@tcpnje_exe
$LN314@tcpnje_exe:
  00c44	48 c7 84 24 a0
	00 00 00 0a 00
	00 00		 mov	 QWORD PTR tv481[rsp], 10
$LN315@tcpnje_exe:
  00c50	8b 84 24 a0 00
	00 00		 mov	 eax, DWORD PTR tv481[rsp]
  00c57	89 44 24 38	 mov	 DWORD PTR num$[rsp], eax

; 3325 :                     memcpy(iobuf, signoff, num);

  00c5b	8b 44 24 38	 mov	 eax, DWORD PTR num$[rsp]
  00c5f	48 8d 8c 24 08
	01 00 00	 lea	 rcx, QWORD PTR signoff$[rsp]
  00c67	48 8b bc 24 b8
	01 00 00	 mov	 rdi, QWORD PTR iobuf$[rsp]
  00c6f	48 8b f1	 mov	 rsi, rcx
  00c72	8b c8		 mov	 ecx, eax
  00c74	f3 a4		 rep movsb

; 3326 :                     if (tn->holdoutgoing)

  00c76	48 8b 44 24 30	 mov	 rax, QWORD PTR tn$[rsp]
  00c7b	8b 80 64 01 00
	00		 mov	 eax, DWORD PTR [rax+356]
  00c81	c1 e8 09	 shr	 eax, 9
  00c84	83 e0 01	 and	 eax, 1
  00c87	85 c0		 test	 eax, eax
  00c89	74 26		 je	 SHORT $LN67@tcpnje_exe

; 3327 :                     {
; 3328 :                         /* Outgoing buffers are full.  Fix FCS to stop RSCS sending more */
; 3329 :                         tpb->fcs[0] = 0xc0;

  00c8b	b8 01 00 00 00	 mov	 eax, 1
  00c90	48 6b c0 00	 imul	 rax, rax, 0
  00c94	48 8b 4c 24 40	 mov	 rcx, QWORD PTR tpb$[rsp]
  00c99	c6 44 01 03 c0	 mov	 BYTE PTR [rcx+rax+3], 192 ; 000000c0H

; 3330 :                         tpb->fcs[1] = 0x80;

  00c9e	b8 01 00 00 00	 mov	 eax, 1
  00ca3	48 6b c0 01	 imul	 rax, rax, 1
  00ca7	48 8b 4c 24 40	 mov	 rcx, QWORD PTR tpb$[rsp]
  00cac	c6 44 01 03 80	 mov	 BYTE PTR [rcx+rax+3], 128 ; 00000080H
$LN67@tcpnje_exe:

; 3331 :                     }
; 3332 : 
; 3333 :                     DBGMSG(2048, "HHCTN078I %4.4X:TCPNJE READ - inserting signoff BCB: %2.2X FCS: %2.2X%2.2X\n",

  00cb1	48 8b 44 24 30	 mov	 rax, QWORD PTR tn$[rsp]
  00cb6	48 8b 00	 mov	 rax, QWORD PTR [rax]
  00cb9	8b 80 f8 05 00
	00		 mov	 eax, DWORD PTR [rax+1528]
  00cbf	c1 e8 0f	 shr	 eax, 15
  00cc2	83 e0 01	 and	 eax, 1
  00cc5	85 c0		 test	 eax, eax
  00cc7	74 14		 je	 SHORT $LN70@tcpnje_exe
  00cc9	48 8b 44 24 30	 mov	 rax, QWORD PTR tn$[rsp]
  00cce	8b 80 4c 01 00
	00		 mov	 eax, DWORD PTR [rax+332]
  00cd4	25 00 08 00 00	 and	 eax, 2048		; 00000800H
  00cd9	85 c0		 test	 eax, eax
  00cdb	75 14		 jne	 SHORT $LN69@tcpnje_exe
$LN70@tcpnje_exe:
  00cdd	48 8b 44 24 30	 mov	 rax, QWORD PTR tn$[rsp]
  00ce2	8b 80 50 01 00
	00		 mov	 eax, DWORD PTR [rax+336]
  00ce8	25 00 08 00 00	 and	 eax, 2048		; 00000800H
  00ced	85 c0		 test	 eax, eax
  00cef	74 54		 je	 SHORT $LN68@tcpnje_exe
$LN69@tcpnje_exe:
  00cf1	b8 01 00 00 00	 mov	 eax, 1
  00cf6	48 6b c0 01	 imul	 rax, rax, 1
  00cfa	48 8b 4c 24 40	 mov	 rcx, QWORD PTR tpb$[rsp]
  00cff	0f b6 44 01 03	 movzx	 eax, BYTE PTR [rcx+rax+3]
  00d04	b9 01 00 00 00	 mov	 ecx, 1
  00d09	48 6b c9 00	 imul	 rcx, rcx, 0
  00d0d	48 8b 54 24 40	 mov	 rdx, QWORD PTR tpb$[rsp]
  00d12	0f b6 4c 0a 03	 movzx	 ecx, BYTE PTR [rdx+rcx+3]
  00d17	48 8b 54 24 40	 mov	 rdx, QWORD PTR tpb$[rsp]
  00d1c	0f b6 52 02	 movzx	 edx, BYTE PTR [rdx+2]
  00d20	48 8b bc 24 80
	01 00 00	 mov	 rdi, QWORD PTR dev$[rsp]
  00d28	0f b7 7f 48	 movzx	 edi, WORD PTR [rdi+72]
  00d2c	89 44 24 20	 mov	 DWORD PTR [rsp+32], eax
  00d30	44 8b c9	 mov	 r9d, ecx
  00d33	44 8b c2	 mov	 r8d, edx
  00d36	8b d7		 mov	 edx, edi
  00d38	48 8d 0d 00 00
	00 00		 lea	 rcx, OFFSET FLAT:$SG160698
  00d3f	ff 15 00 00 00
	00		 call	 QWORD PTR __imp_logmsg
$LN68@tcpnje_exe:

; 3334 :                             dev->devnum, tpb->bcb, tpb->fcs[0], tpb->fcs[1]);
; 3335 : 
; 3336 :                     if (count < sizeof(signoff))

  00d45	8b 84 24 a0 01
	00 00		 mov	 eax, DWORD PTR count$[rsp]
  00d4c	48 83 f8 0a	 cmp	 rax, 10
  00d50	73 0b		 jae	 SHORT $LN71@tcpnje_exe

; 3337 :                     {
; 3338 :                         *more = 1;

  00d52	48 8b 84 24 c0
	01 00 00	 mov	 rax, QWORD PTR more$[rsp]
  00d5a	c6 00 01	 mov	 BYTE PTR [rax], 1
$LN71@tcpnje_exe:

; 3339 :                     }
; 3340 :                     *residual = count - num;

  00d5d	8b 44 24 38	 mov	 eax, DWORD PTR num$[rsp]
  00d61	8b 8c 24 a0 01
	00 00		 mov	 ecx, DWORD PTR count$[rsp]
  00d68	2b c8		 sub	 ecx, eax
  00d6a	8b c1		 mov	 eax, ecx
  00d6c	48 8b 8c 24 d0
	01 00 00	 mov	 rcx, QWORD PTR residual$[rsp]
  00d74	89 01		 mov	 DWORD PTR [rcx], eax

; 3341 :                     *unitstat = CSW_CE | CSW_DE;

  00d76	48 8b 84 24 c8
	01 00 00	 mov	 rax, QWORD PTR unitstat$[rsp]
  00d7e	c6 00 0c	 mov	 BYTE PTR [rax], 12

; 3342 :                     logdump("Read S", dev, iobuf, num);

  00d81	8b 44 24 38	 mov	 eax, DWORD PTR num$[rsp]
  00d85	44 8b c8	 mov	 r9d, eax
  00d88	4c 8b 84 24 b8
	01 00 00	 mov	 r8, QWORD PTR iobuf$[rsp]
  00d90	48 8b 94 24 80
	01 00 00	 mov	 rdx, QWORD PTR dev$[rsp]
  00d98	48 8d 0d 00 00
	00 00		 lea	 rcx, OFFSET FLAT:$SG160700
  00d9f	e8 00 00 00 00	 call	 logdump

; 3343 :                     tn->signoff = 0;

  00da4	48 8b 44 24 30	 mov	 rax, QWORD PTR tn$[rsp]
  00da9	8b 80 64 01 00
	00		 mov	 eax, DWORD PTR [rax+356]
  00daf	0f ba f0 0e	 btr	 eax, 14
  00db3	48 8b 4c 24 30	 mov	 rcx, QWORD PTR tn$[rsp]
  00db8	89 81 64 01 00
	00		 mov	 DWORD PTR [rcx+356], eax

; 3344 :                     break;

  00dbe	e9 8c 2c 00 00	 jmp	 $LN14@tcpnje_exe
$LN66@tcpnje_exe:

; 3345 :                 }
; 3346 : 
; 3347 :                 /* Check if input is suspended due to receipt of an FCS from */
; 3348 :                 /* RSCS with one or more streams disabled or the wait-a-bit  */
; 3349 :                 /* bit set.  If so, don't pass any incoming data this time.  */
; 3350 :                 if (tn->holdincoming)

  00dc3	48 8b 44 24 30	 mov	 rax, QWORD PTR tn$[rsp]
  00dc8	8b 80 64 01 00
	00		 mov	 eax, DWORD PTR [rax+356]
  00dce	c1 e8 08	 shr	 eax, 8
  00dd1	83 e0 01	 and	 eax, 1
  00dd4	85 c0		 test	 eax, eax
  00dd6	0f 84 83 01 00
	00		 je	 $LN72@tcpnje_exe

; 3351 :                 {
; 3352 :                     /* Reply to RSCS with a null buffer instead of real data.*/
; 3353 :                     /* Use a null buffer instead of DLE ACK0 in order that   */
; 3354 :                     /* we do not inadvertently tell RSCS to send more data   */
; 3355 :                     /* out when outgoing data is held due to lack of buffers.*/
; 3356 :                     num = count < sizeof(nullbuffer) ? count : sizeof(nullbuffer);

  00ddc	8b 84 24 a0 01
	00 00		 mov	 eax, DWORD PTR count$[rsp]
  00de3	48 83 f8 08	 cmp	 rax, 8
  00de7	73 11		 jae	 SHORT $LN316@tcpnje_exe
  00de9	8b 84 24 a0 01
	00 00		 mov	 eax, DWORD PTR count$[rsp]
  00df0	48 89 84 24 a8
	00 00 00	 mov	 QWORD PTR tv545[rsp], rax
  00df8	eb 0c		 jmp	 SHORT $LN317@tcpnje_exe
$LN316@tcpnje_exe:
  00dfa	48 c7 84 24 a8
	00 00 00 08 00
	00 00		 mov	 QWORD PTR tv545[rsp], 8
$LN317@tcpnje_exe:
  00e06	8b 84 24 a8 00
	00 00		 mov	 eax, DWORD PTR tv545[rsp]
  00e0d	89 44 24 38	 mov	 DWORD PTR num$[rsp], eax

; 3357 :                     memcpy(iobuf, nullbuffer, num);

  00e11	8b 44 24 38	 mov	 eax, DWORD PTR num$[rsp]
  00e15	48 8d 8c 24 00
	01 00 00	 lea	 rcx, QWORD PTR nullbuffer$[rsp]
  00e1d	48 8b bc 24 b8
	01 00 00	 mov	 rdi, QWORD PTR iobuf$[rsp]
  00e25	48 8b f1	 mov	 rsi, rcx
  00e28	8b c8		 mov	 ecx, eax
  00e2a	f3 a4		 rep movsb

; 3358 :                     if (tn->holdoutgoing)

  00e2c	48 8b 44 24 30	 mov	 rax, QWORD PTR tn$[rsp]
  00e31	8b 80 64 01 00
	00		 mov	 eax, DWORD PTR [rax+356]
  00e37	c1 e8 09	 shr	 eax, 9
  00e3a	83 e0 01	 and	 eax, 1
  00e3d	85 c0		 test	 eax, eax
  00e3f	74 26		 je	 SHORT $LN73@tcpnje_exe

; 3359 :                     {
; 3360 :                         /* Outgoing buffers are full.  Fix FCS to stop RSCS sending more */
; 3361 :                         tpb->fcs[0] = 0xc0;

  00e41	b8 01 00 00 00	 mov	 eax, 1
  00e46	48 6b c0 00	 imul	 rax, rax, 0
  00e4a	48 8b 4c 24 40	 mov	 rcx, QWORD PTR tpb$[rsp]
  00e4f	c6 44 01 03 c0	 mov	 BYTE PTR [rcx+rax+3], 192 ; 000000c0H

; 3362 :                         tpb->fcs[1] = 0x80;

  00e54	b8 01 00 00 00	 mov	 eax, 1
  00e59	48 6b c0 01	 imul	 rax, rax, 1
  00e5d	48 8b 4c 24 40	 mov	 rcx, QWORD PTR tpb$[rsp]
  00e62	c6 44 01 03 80	 mov	 BYTE PTR [rcx+rax+3], 128 ; 00000080H
$LN73@tcpnje_exe:

; 3363 :                     }
; 3364 : 
; 3365 :                     DBGMSG(2048, "HHCTN153D %4.4X:TCPNJE READ - inserting incoming null buffer BCB: %2.2X FCS: %2.2X%2.2X because incoming data is currently held\n",

  00e67	48 8b 44 24 30	 mov	 rax, QWORD PTR tn$[rsp]
  00e6c	48 8b 00	 mov	 rax, QWORD PTR [rax]
  00e6f	8b 80 f8 05 00
	00		 mov	 eax, DWORD PTR [rax+1528]
  00e75	c1 e8 0f	 shr	 eax, 15
  00e78	83 e0 01	 and	 eax, 1
  00e7b	85 c0		 test	 eax, eax
  00e7d	74 14		 je	 SHORT $LN76@tcpnje_exe
  00e7f	48 8b 44 24 30	 mov	 rax, QWORD PTR tn$[rsp]
  00e84	8b 80 4c 01 00
	00		 mov	 eax, DWORD PTR [rax+332]
  00e8a	25 00 08 00 00	 and	 eax, 2048		; 00000800H
  00e8f	85 c0		 test	 eax, eax
  00e91	75 14		 jne	 SHORT $LN75@tcpnje_exe
$LN76@tcpnje_exe:
  00e93	48 8b 44 24 30	 mov	 rax, QWORD PTR tn$[rsp]
  00e98	8b 80 50 01 00
	00		 mov	 eax, DWORD PTR [rax+336]
  00e9e	25 00 08 00 00	 and	 eax, 2048		; 00000800H
  00ea3	85 c0		 test	 eax, eax
  00ea5	74 54		 je	 SHORT $LN74@tcpnje_exe
$LN75@tcpnje_exe:
  00ea7	b8 01 00 00 00	 mov	 eax, 1
  00eac	48 6b c0 01	 imul	 rax, rax, 1
  00eb0	48 8b 4c 24 40	 mov	 rcx, QWORD PTR tpb$[rsp]
  00eb5	0f b6 44 01 03	 movzx	 eax, BYTE PTR [rcx+rax+3]
  00eba	b9 01 00 00 00	 mov	 ecx, 1
  00ebf	48 6b c9 00	 imul	 rcx, rcx, 0
  00ec3	48 8b 54 24 40	 mov	 rdx, QWORD PTR tpb$[rsp]
  00ec8	0f b6 4c 0a 03	 movzx	 ecx, BYTE PTR [rdx+rcx+3]
  00ecd	48 8b 54 24 40	 mov	 rdx, QWORD PTR tpb$[rsp]
  00ed2	0f b6 52 02	 movzx	 edx, BYTE PTR [rdx+2]
  00ed6	48 8b bc 24 80
	01 00 00	 mov	 rdi, QWORD PTR dev$[rsp]
  00ede	0f b7 7f 48	 movzx	 edi, WORD PTR [rdi+72]
  00ee2	89 44 24 20	 mov	 DWORD PTR [rsp+32], eax
  00ee6	44 8b c9	 mov	 r9d, ecx
  00ee9	44 8b c2	 mov	 r8d, edx
  00eec	8b d7		 mov	 edx, edi
  00eee	48 8d 0d 00 00
	00 00		 lea	 rcx, OFFSET FLAT:$SG160706
  00ef5	ff 15 00 00 00
	00		 call	 QWORD PTR __imp_logmsg
$LN74@tcpnje_exe:

; 3366 :                             dev->devnum, tpb->bcb, tpb->fcs[0], tpb->fcs[1]);
; 3367 : 
; 3368 :                     if (count < sizeof(nullbuffer))

  00efb	8b 84 24 a0 01
	00 00		 mov	 eax, DWORD PTR count$[rsp]
  00f02	48 83 f8 08	 cmp	 rax, 8
  00f06	73 0b		 jae	 SHORT $LN77@tcpnje_exe

; 3369 :                     {
; 3370 :                         *more = 1;

  00f08	48 8b 84 24 c0
	01 00 00	 mov	 rax, QWORD PTR more$[rsp]
  00f10	c6 00 01	 mov	 BYTE PTR [rax], 1
$LN77@tcpnje_exe:

; 3371 :                     }
; 3372 :                     *residual = count - num;

  00f13	8b 44 24 38	 mov	 eax, DWORD PTR num$[rsp]
  00f17	8b 8c 24 a0 01
	00 00		 mov	 ecx, DWORD PTR count$[rsp]
  00f1e	2b c8		 sub	 ecx, eax
  00f20	8b c1		 mov	 eax, ecx
  00f22	48 8b 8c 24 d0
	01 00 00	 mov	 rcx, QWORD PTR residual$[rsp]
  00f2a	89 01		 mov	 DWORD PTR [rcx], eax

; 3373 :                     *unitstat = CSW_CE | CSW_DE;

  00f2c	48 8b 84 24 c8
	01 00 00	 mov	 rax, QWORD PTR unitstat$[rsp]
  00f34	c6 00 0c	 mov	 BYTE PTR [rax], 12

; 3374 :                     logdump("Read H", dev, iobuf, num);

  00f37	8b 44 24 38	 mov	 eax, DWORD PTR num$[rsp]
  00f3b	44 8b c8	 mov	 r9d, eax
  00f3e	4c 8b 84 24 b8
	01 00 00	 mov	 r8, QWORD PTR iobuf$[rsp]
  00f46	48 8b 94 24 80
	01 00 00	 mov	 rdx, QWORD PTR dev$[rsp]
  00f4e	48 8d 0d 00 00
	00 00		 lea	 rcx, OFFSET FLAT:$SG160708
  00f55	e8 00 00 00 00	 call	 logdump

; 3375 :                     break;

  00f5a	e9 f0 2a 00 00	 jmp	 $LN14@tcpnje_exe
$LN72@tcpnje_exe:

; 3376 :                 }
; 3377 : 
; 3378 :                 /* Check for any remaining data in the input buffer from */
; 3379 :                 /* a previous read operation.  There likely will be some */
; 3380 :                 /* because each TTB can contain multiple TTRs.  We need  */
; 3381 :                 /* to get these sent on to RSCS before we accept more    */
; 3382 :                 /* data from the network, otherwise we will rapidly run  */
; 3383 :                 /* out of buffer space.                                  */
; 3384 :                 if (!tn->tcpinbuf.valid || (tn->tcpinbuf.valid &&

  00f5f	48 8b 44 24 30	 mov	 rax, QWORD PTR tn$[rsp]
  00f64	0f b6 80 d8 00
	00 00		 movzx	 eax, BYTE PTR [rax+216]
  00f6b	85 c0		 test	 eax, eax
  00f6d	74 2c		 je	 SHORT $LN79@tcpnje_exe
  00f6f	48 8b 44 24 30	 mov	 rax, QWORD PTR tn$[rsp]
  00f74	0f b6 80 d8 00
	00 00		 movzx	 eax, BYTE PTR [rax+216]
  00f7b	85 c0		 test	 eax, eax
  00f7d	0f 84 fc 00 00
	00		 je	 $LN78@tcpnje_exe
  00f83	48 8b 44 24 30	 mov	 rax, QWORD PTR tn$[rsp]
  00f88	48 8b 80 c8 00
	00 00		 mov	 rax, QWORD PTR [rax+200]
  00f8f	0f b7 40 0a	 movzx	 eax, WORD PTR [rax+10]
  00f93	85 c0		 test	 eax, eax
  00f95	0f 85 e4 00 00
	00		 jne	 $LN78@tcpnje_exe
$LN79@tcpnje_exe:

; 3385 :                    (tn->tcpinbuf.outptr.block->record.ttr.length == 0)))
; 3386 :                 {
; 3387 :                     /* Nothing in the local buffer.  Do a quick    */
; 3388 :                     /* poll to see if there is any incoming data   */
; 3389 :                     /* waiting in the TCP/IP stack buffer.         */
; 3390 :                     tn->curpending = TCPNJE_PEND_READ;

  00f9b	48 8b 44 24 30	 mov	 rax, QWORD PTR tn$[rsp]
  00fa0	c6 80 60 01 00
	00 01		 mov	 BYTE PTR [rax+352], 1

; 3391 :                     /* Set minimum timeout to ensure response ASAP */
; 3392 :                     tn->timeout = -1;

  00fa7	48 8b 44 24 30	 mov	 rax, QWORD PTR tn$[rsp]
  00fac	c7 80 2c 01 00
	00 ff ff ff ff	 mov	 DWORD PTR [rax+300], -1

; 3393 : 
; 3394 :                     /* Tell worker thread to get more data and wait for it to do this */
; 3395 :                     if (!tcpnje_wakeup_and_wait(tn, 0))

  00fb6	33 d2		 xor	 edx, edx
  00fb8	48 8b 4c 24 30	 mov	 rcx, QWORD PTR tn$[rsp]
  00fbd	e8 00 00 00 00	 call	 tcpnje_wakeup_and_wait
  00fc2	85 c0		 test	 eax, eax
  00fc4	75 42		 jne	 SHORT $LN80@tcpnje_exe

; 3396 :                     {
; 3397 :                         /* If thread is not running, indicate something is wrong */
; 3398 :                         *unitstat = CSW_CE | CSW_DE | CSW_UC;

  00fc6	48 8b 84 24 c8
	01 00 00	 mov	 rax, QWORD PTR unitstat$[rsp]
  00fce	c6 00 0e	 mov	 BYTE PTR [rax], 14

; 3399 :                         dev->sense[0] = SENSE_IR;

  00fd1	b8 01 00 00 00	 mov	 eax, 1
  00fd6	48 6b c0 00	 imul	 rax, rax, 0
  00fda	48 8b 8c 24 80
	01 00 00	 mov	 rcx, QWORD PTR dev$[rsp]
  00fe2	c6 84 01 64 03
	00 00 40	 mov	 BYTE PTR [rcx+rax+868], 64 ; 00000040H

; 3400 :                         dev->sense[1] = 0;

  00fea	b8 01 00 00 00	 mov	 eax, 1
  00fef	48 6b c0 01	 imul	 rax, rax, 1
  00ff3	48 8b 8c 24 80
	01 00 00	 mov	 rcx, QWORD PTR dev$[rsp]
  00ffb	c6 84 01 64 03
	00 00 00	 mov	 BYTE PTR [rcx+rax+868], 0

; 3401 :                         break;

  01003	e9 47 2a 00 00	 jmp	 $LN14@tcpnje_exe
$LN80@tcpnje_exe:

; 3402 :                     }
; 3403 : 
; 3404 :                     /* Point to the first record in the new buffer */
; 3405 :                     if (tn->tcpinbuf.valid)

  01008	48 8b 44 24 30	 mov	 rax, QWORD PTR tn$[rsp]
  0100d	0f b6 80 d8 00
	00 00		 movzx	 eax, BYTE PTR [rax+216]
  01014	85 c0		 test	 eax, eax
  01016	74 18		 je	 SHORT $LN81@tcpnje_exe

; 3406 :                     {
; 3407 :                         tn->tcpinbuf.outptr.address =

  01018	48 8b 44 24 30	 mov	 rax, QWORD PTR tn$[rsp]
  0101d	48 8b 4c 24 30	 mov	 rcx, QWORD PTR tn$[rsp]
  01022	48 8b 89 b8 00
	00 00		 mov	 rcx, QWORD PTR [rcx+184]
  01029	48 89 88 c8 00
	00 00		 mov	 QWORD PTR [rax+200], rcx
$LN81@tcpnje_exe:

; 3408 :                             tn->tcpinbuf.base.address;
; 3409 :                     }
; 3410 : 
; 3411 :                     /* If the I/O was halted - indicate Unit Exception */
; 3412 :                     if (tn->haltpending)

  01030	48 8b 44 24 30	 mov	 rax, QWORD PTR tn$[rsp]
  01035	8b 80 64 01 00
	00		 mov	 eax, DWORD PTR [rax+356]
  0103b	c1 e8 06	 shr	 eax, 6
  0103e	83 e0 01	 and	 eax, 1
  01041	85 c0		 test	 eax, eax
  01043	74 3a		 je	 SHORT $LN82@tcpnje_exe

; 3413 :                     {
; 3414 :                         *residual = count;

  01045	48 8b 84 24 d0
	01 00 00	 mov	 rax, QWORD PTR residual$[rsp]
  0104d	8b 8c 24 a0 01
	00 00		 mov	 ecx, DWORD PTR count$[rsp]
  01054	89 08		 mov	 DWORD PTR [rax], ecx

; 3415 :                         *unitstat = CSW_CE | CSW_DE | CSW_UX;

  01056	48 8b 84 24 c8
	01 00 00	 mov	 rax, QWORD PTR unitstat$[rsp]
  0105e	c6 00 0d	 mov	 BYTE PTR [rax], 13

; 3416 :                         tn->haltpending = 0;

  01061	48 8b 44 24 30	 mov	 rax, QWORD PTR tn$[rsp]
  01066	8b 80 64 01 00
	00		 mov	 eax, DWORD PTR [rax+356]
  0106c	83 e0 bf	 and	 eax, -65		; ffffffbfH
  0106f	48 8b 4c 24 30	 mov	 rcx, QWORD PTR tn$[rsp]
  01074	89 81 64 01 00
	00		 mov	 DWORD PTR [rcx+356], eax

; 3417 :                         break;

  0107a	e9 d0 29 00 00	 jmp	 $LN14@tcpnje_exe
$LN82@tcpnje_exe:
$LN78@tcpnje_exe:

; 3418 :                     }
; 3419 :                 }
; 3420 : 
; 3421 :                 /* If there wasn't any data waiting in incoming network  */
; 3422 :                 /* buffers but we are connected and signed on, check if  */
; 3423 :                 /* there are any outgoing buffers which have not yet     */
; 3424 :                 /* been ACKed to RSCS.  If so, use a null buffer to      */
; 3425 :                 /* present an ACK to RSCS and avoid delay due to timeout.*/
; 3426 : 
; 3427 :                 if (!tn->tcpinbuf.valid || (tn->tcpinbuf.valid &&

  0107f	48 8b 44 24 30	 mov	 rax, QWORD PTR tn$[rsp]
  01084	0f b6 80 d8 00
	00 00		 movzx	 eax, BYTE PTR [rax+216]
  0108b	85 c0		 test	 eax, eax
  0108d	74 2c		 je	 SHORT $LN84@tcpnje_exe
  0108f	48 8b 44 24 30	 mov	 rax, QWORD PTR tn$[rsp]
  01094	0f b6 80 d8 00
	00 00		 movzx	 eax, BYTE PTR [rax+216]
  0109b	85 c0		 test	 eax, eax
  0109d	0f 84 c7 02 00
	00		 je	 $LN83@tcpnje_exe
  010a3	48 8b 44 24 30	 mov	 rax, QWORD PTR tn$[rsp]
  010a8	48 8b 80 c8 00
	00 00		 mov	 rax, QWORD PTR [rax+200]
  010af	0f b7 40 0a	 movzx	 eax, WORD PTR [rax+10]
  010b3	85 c0		 test	 eax, eax
  010b5	0f 85 af 02 00
	00		 jne	 $LN83@tcpnje_exe
$LN84@tcpnje_exe:

; 3428 :                    (tn->tcpinbuf.outptr.block->record.ttr.length == 0)))
; 3429 :                 {
; 3430 :                     if ((tn->state > NJEACKRCD) && (tn->ackcount > 0))

  010bb	48 8b 44 24 30	 mov	 rax, QWORD PTR tn$[rsp]
  010c0	83 b8 54 01 00
	00 07		 cmp	 DWORD PTR [rax+340], 7
  010c7	0f 8e b2 01 00
	00		 jle	 $LN85@tcpnje_exe
  010cd	48 8b 44 24 30	 mov	 rax, QWORD PTR tn$[rsp]
  010d2	83 b8 08 01 00
	00 00		 cmp	 DWORD PTR [rax+264], 0
  010d9	0f 8e a0 01 00
	00		 jle	 $LN85@tcpnje_exe

; 3431 :                     {
; 3432 :                         /* Present null buffer to RSCS to avoid timeout  */
; 3433 :                         num = count < sizeof(nullbuffer) ? count : sizeof(nullbuffer);

  010df	8b 84 24 a0 01
	00 00		 mov	 eax, DWORD PTR count$[rsp]
  010e6	48 83 f8 08	 cmp	 rax, 8
  010ea	73 11		 jae	 SHORT $LN318@tcpnje_exe
  010ec	8b 84 24 a0 01
	00 00		 mov	 eax, DWORD PTR count$[rsp]
  010f3	48 89 84 24 b0
	00 00 00	 mov	 QWORD PTR tv650[rsp], rax
  010fb	eb 0c		 jmp	 SHORT $LN319@tcpnje_exe
$LN318@tcpnje_exe:
  010fd	48 c7 84 24 b0
	00 00 00 08 00
	00 00		 mov	 QWORD PTR tv650[rsp], 8
$LN319@tcpnje_exe:
  01109	8b 84 24 b0 00
	00 00		 mov	 eax, DWORD PTR tv650[rsp]
  01110	89 44 24 38	 mov	 DWORD PTR num$[rsp], eax

; 3434 :                         memcpy(iobuf, nullbuffer, num);

  01114	8b 44 24 38	 mov	 eax, DWORD PTR num$[rsp]
  01118	48 8d 8c 24 00
	01 00 00	 lea	 rcx, QWORD PTR nullbuffer$[rsp]
  01120	48 8b bc 24 b8
	01 00 00	 mov	 rdi, QWORD PTR iobuf$[rsp]
  01128	48 8b f1	 mov	 rsi, rcx
  0112b	8b c8		 mov	 ecx, eax
  0112d	f3 a4		 rep movsb

; 3435 :                         if (tn->holdoutgoing)

  0112f	48 8b 44 24 30	 mov	 rax, QWORD PTR tn$[rsp]
  01134	8b 80 64 01 00
	00		 mov	 eax, DWORD PTR [rax+356]
  0113a	c1 e8 09	 shr	 eax, 9
  0113d	83 e0 01	 and	 eax, 1
  01140	85 c0		 test	 eax, eax
  01142	74 26		 je	 SHORT $LN87@tcpnje_exe

; 3436 :                         {
; 3437 :                             /* Outgoing buffers are full.  Fix FCS to stop RSCS sending more */
; 3438 :                             tpb->fcs[0] = 0xc0;

  01144	b8 01 00 00 00	 mov	 eax, 1
  01149	48 6b c0 00	 imul	 rax, rax, 0
  0114d	48 8b 4c 24 40	 mov	 rcx, QWORD PTR tpb$[rsp]
  01152	c6 44 01 03 c0	 mov	 BYTE PTR [rcx+rax+3], 192 ; 000000c0H

; 3439 :                             tpb->fcs[1] = 0x80;

  01157	b8 01 00 00 00	 mov	 eax, 1
  0115c	48 6b c0 01	 imul	 rax, rax, 1
  01160	48 8b 4c 24 40	 mov	 rcx, QWORD PTR tpb$[rsp]
  01165	c6 44 01 03 80	 mov	 BYTE PTR [rcx+rax+3], 128 ; 00000080H
$LN87@tcpnje_exe:

; 3440 :                         }
; 3441 : 
; 3442 :                         DBGMSG(2048, "HHCTN154D %4.4X:TCPNJE READ - inserting incoming null buffer BCB: %2.2X FCS: %2.2X%2.2X in lieu of ACK\n",

  0116a	48 8b 44 24 30	 mov	 rax, QWORD PTR tn$[rsp]
  0116f	48 8b 00	 mov	 rax, QWORD PTR [rax]
  01172	8b 80 f8 05 00
	00		 mov	 eax, DWORD PTR [rax+1528]
  01178	c1 e8 0f	 shr	 eax, 15
  0117b	83 e0 01	 and	 eax, 1
  0117e	85 c0		 test	 eax, eax
  01180	74 14		 je	 SHORT $LN90@tcpnje_exe
  01182	48 8b 44 24 30	 mov	 rax, QWORD PTR tn$[rsp]
  01187	8b 80 4c 01 00
	00		 mov	 eax, DWORD PTR [rax+332]
  0118d	25 00 08 00 00	 and	 eax, 2048		; 00000800H
  01192	85 c0		 test	 eax, eax
  01194	75 14		 jne	 SHORT $LN89@tcpnje_exe
$LN90@tcpnje_exe:
  01196	48 8b 44 24 30	 mov	 rax, QWORD PTR tn$[rsp]
  0119b	8b 80 50 01 00
	00		 mov	 eax, DWORD PTR [rax+336]
  011a1	25 00 08 00 00	 and	 eax, 2048		; 00000800H
  011a6	85 c0		 test	 eax, eax
  011a8	74 54		 je	 SHORT $LN88@tcpnje_exe
$LN89@tcpnje_exe:
  011aa	b8 01 00 00 00	 mov	 eax, 1
  011af	48 6b c0 01	 imul	 rax, rax, 1
  011b3	48 8b 4c 24 40	 mov	 rcx, QWORD PTR tpb$[rsp]
  011b8	0f b6 44 01 03	 movzx	 eax, BYTE PTR [rcx+rax+3]
  011bd	b9 01 00 00 00	 mov	 ecx, 1
  011c2	48 6b c9 00	 imul	 rcx, rcx, 0
  011c6	48 8b 54 24 40	 mov	 rdx, QWORD PTR tpb$[rsp]
  011cb	0f b6 4c 0a 03	 movzx	 ecx, BYTE PTR [rdx+rcx+3]
  011d0	48 8b 54 24 40	 mov	 rdx, QWORD PTR tpb$[rsp]
  011d5	0f b6 52 02	 movzx	 edx, BYTE PTR [rdx+2]
  011d9	48 8b bc 24 80
	01 00 00	 mov	 rdi, QWORD PTR dev$[rsp]
  011e1	0f b7 7f 48	 movzx	 edi, WORD PTR [rdi+72]
  011e5	89 44 24 20	 mov	 DWORD PTR [rsp+32], eax
  011e9	44 8b c9	 mov	 r9d, ecx
  011ec	44 8b c2	 mov	 r8d, edx
  011ef	8b d7		 mov	 edx, edi
  011f1	48 8d 0d 00 00
	00 00		 lea	 rcx, OFFSET FLAT:$SG160722
  011f8	ff 15 00 00 00
	00		 call	 QWORD PTR __imp_logmsg
$LN88@tcpnje_exe:

; 3443 :                                 dev->devnum, tpb->bcb, tpb->fcs[0], tpb->fcs[1]);
; 3444 : 
; 3445 :                         if (count < sizeof(nullbuffer))

  011fe	8b 84 24 a0 01
	00 00		 mov	 eax, DWORD PTR count$[rsp]
  01205	48 83 f8 08	 cmp	 rax, 8
  01209	73 0b		 jae	 SHORT $LN91@tcpnje_exe

; 3446 :                         {
; 3447 :                             *more = 1;

  0120b	48 8b 84 24 c0
	01 00 00	 mov	 rax, QWORD PTR more$[rsp]
  01213	c6 00 01	 mov	 BYTE PTR [rax], 1
$LN91@tcpnje_exe:

; 3448 :                         }
; 3449 :                         *residual = count - num;

  01216	8b 44 24 38	 mov	 eax, DWORD PTR num$[rsp]
  0121a	8b 8c 24 a0 01
	00 00		 mov	 ecx, DWORD PTR count$[rsp]
  01221	2b c8		 sub	 ecx, eax
  01223	8b c1		 mov	 eax, ecx
  01225	48 8b 8c 24 d0
	01 00 00	 mov	 rcx, QWORD PTR residual$[rsp]
  0122d	89 01		 mov	 DWORD PTR [rcx], eax

; 3450 :                         *unitstat = CSW_CE | CSW_DE;

  0122f	48 8b 84 24 c8
	01 00 00	 mov	 rax, QWORD PTR unitstat$[rsp]
  01237	c6 00 0c	 mov	 BYTE PTR [rax], 12

; 3451 :                         logdump("Read A", dev, iobuf, num);

  0123a	8b 44 24 38	 mov	 eax, DWORD PTR num$[rsp]
  0123e	44 8b c8	 mov	 r9d, eax
  01241	4c 8b 84 24 b8
	01 00 00	 mov	 r8, QWORD PTR iobuf$[rsp]
  01249	48 8b 94 24 80
	01 00 00	 mov	 rdx, QWORD PTR dev$[rsp]
  01251	48 8d 0d 00 00
	00 00		 lea	 rcx, OFFSET FLAT:$SG160724
  01258	e8 00 00 00 00	 call	 logdump

; 3452 :                         /* Count this response as one ACK */
; 3453 :                         tn->ackcount--;

  0125d	48 8b 44 24 30	 mov	 rax, QWORD PTR tn$[rsp]
  01262	8b 80 08 01 00
	00		 mov	 eax, DWORD PTR [rax+264]
  01268	ff c8		 dec	 eax
  0126a	48 8b 4c 24 30	 mov	 rcx, QWORD PTR tn$[rsp]
  0126f	89 81 08 01 00
	00		 mov	 DWORD PTR [rcx+264], eax

; 3454 :                         break;

  01275	e9 d5 27 00 00	 jmp	 $LN14@tcpnje_exe

; 3455 :                     }

  0127a	e9 eb 00 00 00	 jmp	 $LN86@tcpnje_exe
$LN85@tcpnje_exe:

; 3456 :                     else
; 3457 :                     {
; 3458 :                         /* If not connected and signed on or RSCS has not */
; 3459 :                         /* sent out anything that has not been ACKed, we  */
; 3460 :                         /* just have to wait for real data to arrive or   */
; 3461 :                         /* time out after a number of seconds.            */
; 3462 :                         tn->curpending = TCPNJE_PEND_READ;

  0127f	48 8b 44 24 30	 mov	 rax, QWORD PTR tn$[rsp]
  01284	c6 80 60 01 00
	00 01		 mov	 BYTE PTR [rax+352], 1

; 3463 :                         /* Set normal read timeout (typically 3 seconds)  */
; 3464 :                         tn->timeout = tn->rto;

  0128b	48 8b 44 24 30	 mov	 rax, QWORD PTR tn$[rsp]
  01290	48 8b 4c 24 30	 mov	 rcx, QWORD PTR tn$[rsp]
  01295	8b 89 34 01 00
	00		 mov	 ecx, DWORD PTR [rcx+308]
  0129b	89 88 2c 01 00
	00		 mov	 DWORD PTR [rax+300], ecx

; 3465 : 
; 3466 :                         /* Tell worker thread to get more data.  Wait for it to do this. */
; 3467 :                         if (!tcpnje_wakeup_and_wait(tn, 0))

  012a1	33 d2		 xor	 edx, edx
  012a3	48 8b 4c 24 30	 mov	 rcx, QWORD PTR tn$[rsp]
  012a8	e8 00 00 00 00	 call	 tcpnje_wakeup_and_wait
  012ad	85 c0		 test	 eax, eax
  012af	75 42		 jne	 SHORT $LN92@tcpnje_exe

; 3468 :                         {
; 3469 :                             /* If thread is not running, indicate something is wrong */
; 3470 :                             *unitstat = CSW_CE | CSW_DE | CSW_UC;

  012b1	48 8b 84 24 c8
	01 00 00	 mov	 rax, QWORD PTR unitstat$[rsp]
  012b9	c6 00 0e	 mov	 BYTE PTR [rax], 14

; 3471 :                             dev->sense[0] = SENSE_IR;

  012bc	b8 01 00 00 00	 mov	 eax, 1
  012c1	48 6b c0 00	 imul	 rax, rax, 0
  012c5	48 8b 8c 24 80
	01 00 00	 mov	 rcx, QWORD PTR dev$[rsp]
  012cd	c6 84 01 64 03
	00 00 40	 mov	 BYTE PTR [rcx+rax+868], 64 ; 00000040H

; 3472 :                             dev->sense[1] = 0;

  012d5	b8 01 00 00 00	 mov	 eax, 1
  012da	48 6b c0 01	 imul	 rax, rax, 1
  012de	48 8b 8c 24 80
	01 00 00	 mov	 rcx, QWORD PTR dev$[rsp]
  012e6	c6 84 01 64 03
	00 00 00	 mov	 BYTE PTR [rcx+rax+868], 0

; 3473 :                             break;

  012ee	e9 5c 27 00 00	 jmp	 $LN14@tcpnje_exe
$LN92@tcpnje_exe:

; 3474 :                         }
; 3475 : 
; 3476 :                         /* Point to the first record in the new buffer    */
; 3477 :                         if (tn->tcpinbuf.valid)

  012f3	48 8b 44 24 30	 mov	 rax, QWORD PTR tn$[rsp]
  012f8	0f b6 80 d8 00
	00 00		 movzx	 eax, BYTE PTR [rax+216]
  012ff	85 c0		 test	 eax, eax
  01301	74 18		 je	 SHORT $LN93@tcpnje_exe

; 3478 :                         {
; 3479 :                             tn->tcpinbuf.outptr.address =

  01303	48 8b 44 24 30	 mov	 rax, QWORD PTR tn$[rsp]
  01308	48 8b 4c 24 30	 mov	 rcx, QWORD PTR tn$[rsp]
  0130d	48 8b 89 b8 00
	00 00		 mov	 rcx, QWORD PTR [rcx+184]
  01314	48 89 88 c8 00
	00 00		 mov	 QWORD PTR [rax+200], rcx
$LN93@tcpnje_exe:

; 3480 :                                 tn->tcpinbuf.base.address;
; 3481 :                         }
; 3482 : 
; 3483 :                         /* If the I/O was halted - indicate Unit Exception */
; 3484 :                         if (tn->haltpending)

  0131b	48 8b 44 24 30	 mov	 rax, QWORD PTR tn$[rsp]
  01320	8b 80 64 01 00
	00		 mov	 eax, DWORD PTR [rax+356]
  01326	c1 e8 06	 shr	 eax, 6
  01329	83 e0 01	 and	 eax, 1
  0132c	85 c0		 test	 eax, eax
  0132e	74 3a		 je	 SHORT $LN94@tcpnje_exe

; 3485 :                         {
; 3486 :                             *residual = count;

  01330	48 8b 84 24 d0
	01 00 00	 mov	 rax, QWORD PTR residual$[rsp]
  01338	8b 8c 24 a0 01
	00 00		 mov	 ecx, DWORD PTR count$[rsp]
  0133f	89 08		 mov	 DWORD PTR [rax], ecx

; 3487 :                             *unitstat = CSW_CE | CSW_DE | CSW_UX;

  01341	48 8b 84 24 c8
	01 00 00	 mov	 rax, QWORD PTR unitstat$[rsp]
  01349	c6 00 0d	 mov	 BYTE PTR [rax], 13

; 3488 :                             tn->haltpending = 0;

  0134c	48 8b 44 24 30	 mov	 rax, QWORD PTR tn$[rsp]
  01351	8b 80 64 01 00
	00		 mov	 eax, DWORD PTR [rax+356]
  01357	83 e0 bf	 and	 eax, -65		; ffffffbfH
  0135a	48 8b 4c 24 30	 mov	 rcx, QWORD PTR tn$[rsp]
  0135f	89 81 64 01 00
	00		 mov	 DWORD PTR [rcx+356], eax

; 3489 :                             break;

  01365	e9 e5 26 00 00	 jmp	 $LN14@tcpnje_exe
$LN94@tcpnje_exe:
$LN86@tcpnje_exe:
$LN83@tcpnje_exe:

; 3490 :                         }
; 3491 :                     }
; 3492 :                 }
; 3493 : 
; 3494 :                 /* If there is still no data is present - some seconds    */
; 3495 :                 /* have passed without receiving data from the network.   */
; 3496 :                 if (!tn->tcpinbuf.valid || (tn->tcpinbuf.valid &&

  0136a	48 8b 44 24 30	 mov	 rax, QWORD PTR tn$[rsp]
  0136f	0f b6 80 d8 00
	00 00		 movzx	 eax, BYTE PTR [rax+216]
  01376	85 c0		 test	 eax, eax
  01378	74 2c		 je	 SHORT $LN96@tcpnje_exe
  0137a	48 8b 44 24 30	 mov	 rax, QWORD PTR tn$[rsp]
  0137f	0f b6 80 d8 00
	00 00		 movzx	 eax, BYTE PTR [rax+216]
  01386	85 c0		 test	 eax, eax
  01388	0f 84 4f 02 00
	00		 je	 $LN95@tcpnje_exe
  0138e	48 8b 44 24 30	 mov	 rax, QWORD PTR tn$[rsp]
  01393	48 8b 80 c8 00
	00 00		 mov	 rax, QWORD PTR [rax+200]
  0139a	0f b7 40 0a	 movzx	 eax, WORD PTR [rax+10]
  0139e	85 c0		 test	 eax, eax
  013a0	0f 85 37 02 00
	00		 jne	 $LN95@tcpnje_exe
$LN96@tcpnje_exe:

; 3497 :                    (tn->tcpinbuf.outptr.block->record.ttr.length == 0)))
; 3498 :                 {
; 3499 :                     /* If we are connected and signed on, as last resort  */
; 3500 :                     /* fake an incoming DLE ACK0 or null buffer instead   */
; 3501 :                     /* of failing with a timeout which will cause grief.  */
; 3502 :                     if (tn->state > NJEACKRCD)

  013a6	48 8b 44 24 30	 mov	 rax, QWORD PTR tn$[rsp]
  013ab	83 b8 54 01 00
	00 07		 cmp	 DWORD PTR [rax+340], 7
  013b2	0f 8e 83 01 00
	00		 jle	 $LN97@tcpnje_exe

; 3503 :                     {
; 3504 :                         /* Present null buffer to RSCS to avoid timeout  */
; 3505 :                         num = count < sizeof(nullbuffer) ? count : sizeof(nullbuffer);

  013b8	8b 84 24 a0 01
	00 00		 mov	 eax, DWORD PTR count$[rsp]
  013bf	48 83 f8 08	 cmp	 rax, 8
  013c3	73 11		 jae	 SHORT $LN320@tcpnje_exe
  013c5	8b 84 24 a0 01
	00 00		 mov	 eax, DWORD PTR count$[rsp]
  013cc	48 89 84 24 88
	00 00 00	 mov	 QWORD PTR tv748[rsp], rax
  013d4	eb 0c		 jmp	 SHORT $LN321@tcpnje_exe
$LN320@tcpnje_exe:
  013d6	48 c7 84 24 88
	00 00 00 08 00
	00 00		 mov	 QWORD PTR tv748[rsp], 8
$LN321@tcpnje_exe:
  013e2	8b 84 24 88 00
	00 00		 mov	 eax, DWORD PTR tv748[rsp]
  013e9	89 44 24 38	 mov	 DWORD PTR num$[rsp], eax

; 3506 :                         memcpy(iobuf, nullbuffer, num);

  013ed	8b 44 24 38	 mov	 eax, DWORD PTR num$[rsp]
  013f1	48 8d 8c 24 00
	01 00 00	 lea	 rcx, QWORD PTR nullbuffer$[rsp]
  013f9	48 8b bc 24 b8
	01 00 00	 mov	 rdi, QWORD PTR iobuf$[rsp]
  01401	48 8b f1	 mov	 rsi, rcx
  01404	8b c8		 mov	 ecx, eax
  01406	f3 a4		 rep movsb

; 3507 :                         if (tn->holdoutgoing)

  01408	48 8b 44 24 30	 mov	 rax, QWORD PTR tn$[rsp]
  0140d	8b 80 64 01 00
	00		 mov	 eax, DWORD PTR [rax+356]
  01413	c1 e8 09	 shr	 eax, 9
  01416	83 e0 01	 and	 eax, 1
  01419	85 c0		 test	 eax, eax
  0141b	74 26		 je	 SHORT $LN99@tcpnje_exe

; 3508 :                         {
; 3509 :                             /* Outgoing buffers are full.  Fix FCS to stop RSCS sending more */
; 3510 :                             tpb->fcs[0] = 0xc0;

  0141d	b8 01 00 00 00	 mov	 eax, 1
  01422	48 6b c0 00	 imul	 rax, rax, 0
  01426	48 8b 4c 24 40	 mov	 rcx, QWORD PTR tpb$[rsp]
  0142b	c6 44 01 03 c0	 mov	 BYTE PTR [rcx+rax+3], 192 ; 000000c0H

; 3511 :                             tpb->fcs[1] = 0x80;

  01430	b8 01 00 00 00	 mov	 eax, 1
  01435	48 6b c0 01	 imul	 rax, rax, 1
  01439	48 8b 4c 24 40	 mov	 rcx, QWORD PTR tpb$[rsp]
  0143e	c6 44 01 03 80	 mov	 BYTE PTR [rcx+rax+3], 128 ; 00000080H
$LN99@tcpnje_exe:

; 3512 :                         }
; 3513 : 
; 3514 :                         DBGMSG(2048, "HHCTN155D %4.4X:TCPNJE READ - inserting incoming null buffer BCB: %2.2X FCS: %2.2X%2.2X in lieu of timeout\n",

  01443	48 8b 44 24 30	 mov	 rax, QWORD PTR tn$[rsp]
  01448	48 8b 00	 mov	 rax, QWORD PTR [rax]
  0144b	8b 80 f8 05 00
	00		 mov	 eax, DWORD PTR [rax+1528]
  01451	c1 e8 0f	 shr	 eax, 15
  01454	83 e0 01	 and	 eax, 1
  01457	85 c0		 test	 eax, eax
  01459	74 14		 je	 SHORT $LN102@tcpnje_exe
  0145b	48 8b 44 24 30	 mov	 rax, QWORD PTR tn$[rsp]
  01460	8b 80 4c 01 00
	00		 mov	 eax, DWORD PTR [rax+332]
  01466	25 00 08 00 00	 and	 eax, 2048		; 00000800H
  0146b	85 c0		 test	 eax, eax
  0146d	75 14		 jne	 SHORT $LN101@tcpnje_exe
$LN102@tcpnje_exe:
  0146f	48 8b 44 24 30	 mov	 rax, QWORD PTR tn$[rsp]
  01474	8b 80 50 01 00
	00		 mov	 eax, DWORD PTR [rax+336]
  0147a	25 00 08 00 00	 and	 eax, 2048		; 00000800H
  0147f	85 c0		 test	 eax, eax
  01481	74 54		 je	 SHORT $LN100@tcpnje_exe
$LN101@tcpnje_exe:
  01483	b8 01 00 00 00	 mov	 eax, 1
  01488	48 6b c0 01	 imul	 rax, rax, 1
  0148c	48 8b 4c 24 40	 mov	 rcx, QWORD PTR tpb$[rsp]
  01491	0f b6 44 01 03	 movzx	 eax, BYTE PTR [rcx+rax+3]
  01496	b9 01 00 00 00	 mov	 ecx, 1
  0149b	48 6b c9 00	 imul	 rcx, rcx, 0
  0149f	48 8b 54 24 40	 mov	 rdx, QWORD PTR tpb$[rsp]
  014a4	0f b6 4c 0a 03	 movzx	 ecx, BYTE PTR [rdx+rcx+3]
  014a9	48 8b 54 24 40	 mov	 rdx, QWORD PTR tpb$[rsp]
  014ae	0f b6 52 02	 movzx	 edx, BYTE PTR [rdx+2]
  014b2	48 8b bc 24 80
	01 00 00	 mov	 rdi, QWORD PTR dev$[rsp]
  014ba	0f b7 7f 48	 movzx	 edi, WORD PTR [rdi+72]
  014be	89 44 24 20	 mov	 DWORD PTR [rsp+32], eax
  014c2	44 8b c9	 mov	 r9d, ecx
  014c5	44 8b c2	 mov	 r8d, edx
  014c8	8b d7		 mov	 edx, edi
  014ca	48 8d 0d 00 00
	00 00		 lea	 rcx, OFFSET FLAT:$SG160736
  014d1	ff 15 00 00 00
	00		 call	 QWORD PTR __imp_logmsg
$LN100@tcpnje_exe:

; 3515 :                                     dev->devnum, tpb->bcb, tpb->fcs[0], tpb->fcs[1]);
; 3516 : 
; 3517 :                         if (count < sizeof(nullbuffer))

  014d7	8b 84 24 a0 01
	00 00		 mov	 eax, DWORD PTR count$[rsp]
  014de	48 83 f8 08	 cmp	 rax, 8
  014e2	73 0b		 jae	 SHORT $LN103@tcpnje_exe

; 3518 :                         {
; 3519 :                             *more = 1;

  014e4	48 8b 84 24 c0
	01 00 00	 mov	 rax, QWORD PTR more$[rsp]
  014ec	c6 00 01	 mov	 BYTE PTR [rax], 1
$LN103@tcpnje_exe:

; 3520 :                         }
; 3521 :                         *residual = count - num;

  014ef	8b 44 24 38	 mov	 eax, DWORD PTR num$[rsp]
  014f3	8b 8c 24 a0 01
	00 00		 mov	 ecx, DWORD PTR count$[rsp]
  014fa	2b c8		 sub	 ecx, eax
  014fc	8b c1		 mov	 eax, ecx
  014fe	48 8b 8c 24 d0
	01 00 00	 mov	 rcx, QWORD PTR residual$[rsp]
  01506	89 01		 mov	 DWORD PTR [rcx], eax

; 3522 :                         *unitstat = CSW_CE | CSW_DE;

  01508	48 8b 84 24 c8
	01 00 00	 mov	 rax, QWORD PTR unitstat$[rsp]
  01510	c6 00 0c	 mov	 BYTE PTR [rax], 12

; 3523 :                         logdump("Read T", dev, iobuf, num);

  01513	8b 44 24 38	 mov	 eax, DWORD PTR num$[rsp]
  01517	44 8b c8	 mov	 r9d, eax
  0151a	4c 8b 84 24 b8
	01 00 00	 mov	 r8, QWORD PTR iobuf$[rsp]
  01522	48 8b 94 24 80
	01 00 00	 mov	 rdx, QWORD PTR dev$[rsp]
  0152a	48 8d 0d 00 00
	00 00		 lea	 rcx, OFFSET FLAT:$SG160738
  01531	e8 00 00 00 00	 call	 logdump

; 3524 :                     }

  01536	e9 9d 00 00 00	 jmp	 $LN98@tcpnje_exe
$LN97@tcpnje_exe:

; 3525 :                     else
; 3526 : #if 0
; 3527 :                     {
; 3528 :                         /* No options left. Fail with timeout. */
; 3529 :                         *residual = count;
; 3530 :                         *unitstat = CSW_DE | CSW_CE | CSW_UC;
; 3531 :                         dev->sense[0] = 0x01;
; 3532 :                         dev->sense[1] = 0xe3;
; 3533 :                     }
; 3534 : #else
; 3535 :                     {
; 3536 :                         /* Try replying with DLE NAK (somewhat randomly chosen as something
; 3537 :                            that is not DLE ACK0) instead of timing out.  This results in
; 3538 :                            less whinges on the Hercules console due to device unit checks
; 3539 :                            without making RSCS think it has successfully connected.        */
; 3540 : 
; 3541 :                         num = count < 2 ? count : 2;

  0153b	83 bc 24 a0 01
	00 00 02	 cmp	 DWORD PTR count$[rsp], 2
  01543	73 0d		 jae	 SHORT $LN322@tcpnje_exe
  01545	8b 84 24 a0 01
	00 00		 mov	 eax, DWORD PTR count$[rsp]
  0154c	89 44 24 6c	 mov	 DWORD PTR tv803[rsp], eax
  01550	eb 08		 jmp	 SHORT $LN323@tcpnje_exe
$LN322@tcpnje_exe:
  01552	c7 44 24 6c 02
	00 00 00	 mov	 DWORD PTR tv803[rsp], 2
$LN323@tcpnje_exe:
  0155a	8b 44 24 6c	 mov	 eax, DWORD PTR tv803[rsp]
  0155e	89 44 24 38	 mov	 DWORD PTR num$[rsp], eax

; 3542 :                         memcpy(iobuf, DLE NAK, num);

  01562	8b 44 24 38	 mov	 eax, DWORD PTR num$[rsp]
  01566	48 8d 0d 00 00
	00 00		 lea	 rcx, OFFSET FLAT:$SG160739
  0156d	48 8b bc 24 b8
	01 00 00	 mov	 rdi, QWORD PTR iobuf$[rsp]
  01575	48 8b f1	 mov	 rsi, rcx
  01578	8b c8		 mov	 ecx, eax
  0157a	f3 a4		 rep movsb

; 3543 : 
; 3544 :                         if (count < 2)

  0157c	83 bc 24 a0 01
	00 00 02	 cmp	 DWORD PTR count$[rsp], 2
  01584	73 0b		 jae	 SHORT $LN104@tcpnje_exe

; 3545 :                         {
; 3546 :                             *more = 1;

  01586	48 8b 84 24 c0
	01 00 00	 mov	 rax, QWORD PTR more$[rsp]
  0158e	c6 00 01	 mov	 BYTE PTR [rax], 1
$LN104@tcpnje_exe:

; 3547 :                         }
; 3548 :                         *residual = count - num;

  01591	8b 44 24 38	 mov	 eax, DWORD PTR num$[rsp]
  01595	8b 8c 24 a0 01
	00 00		 mov	 ecx, DWORD PTR count$[rsp]
  0159c	2b c8		 sub	 ecx, eax
  0159e	8b c1		 mov	 eax, ecx
  015a0	48 8b 8c 24 d0
	01 00 00	 mov	 rcx, QWORD PTR residual$[rsp]
  015a8	89 01		 mov	 DWORD PTR [rcx], eax

; 3549 :                         *unitstat = CSW_CE | CSW_DE;

  015aa	48 8b 84 24 c8
	01 00 00	 mov	 rax, QWORD PTR unitstat$[rsp]
  015b2	c6 00 0c	 mov	 BYTE PTR [rax], 12

; 3550 :                         logdump("Read N", dev, iobuf, num);

  015b5	8b 44 24 38	 mov	 eax, DWORD PTR num$[rsp]
  015b9	44 8b c8	 mov	 r9d, eax
  015bc	4c 8b 84 24 b8
	01 00 00	 mov	 r8, QWORD PTR iobuf$[rsp]
  015c4	48 8b 94 24 80
	01 00 00	 mov	 rdx, QWORD PTR dev$[rsp]
  015cc	48 8d 0d 00 00
	00 00		 lea	 rcx, OFFSET FLAT:$SG160741
  015d3	e8 00 00 00 00	 call	 logdump
$LN98@tcpnje_exe:

; 3551 :                     }
; 3552 : #endif
; 3553 :                     break;

  015d8	e9 72 24 00 00	 jmp	 $LN14@tcpnje_exe
$LN95@tcpnje_exe:

; 3554 :                 }
; 3555 : 
; 3556 :                 /* At this point there is data available.  */
; 3557 :                 /* Get the length of the next record.      */
; 3558 :                 TTRlength = ntohs(tn->tcpinbuf.outptr.block->record.ttr.length);

  015dd	48 8b 44 24 30	 mov	 rax, QWORD PTR tn$[rsp]
  015e2	48 8b 80 c8 00
	00 00		 mov	 rax, QWORD PTR [rax+200]
  015e9	0f b7 48 0a	 movzx	 ecx, WORD PTR [rax+10]
  015ed	ff 15 00 00 00
	00		 call	 QWORD PTR __imp_ntohs
  015f3	0f b7 c0	 movzx	 eax, ax
  015f6	89 44 24 48	 mov	 DWORD PTR TTRlength$[rsp], eax

; 3559 : 
; 3560 :                 /* Now copy the actual record from the input buffer into iobuf */
; 3561 :                 num = count < TTRlength ? count : TTRlength;

  015fa	8b 44 24 48	 mov	 eax, DWORD PTR TTRlength$[rsp]
  015fe	39 84 24 a0 01
	00 00		 cmp	 DWORD PTR count$[rsp], eax
  01605	73 0d		 jae	 SHORT $LN324@tcpnje_exe
  01607	8b 84 24 a0 01
	00 00		 mov	 eax, DWORD PTR count$[rsp]
  0160e	89 44 24 70	 mov	 DWORD PTR tv823[rsp], eax
  01612	eb 08		 jmp	 SHORT $LN325@tcpnje_exe
$LN324@tcpnje_exe:
  01614	8b 44 24 48	 mov	 eax, DWORD PTR TTRlength$[rsp]
  01618	89 44 24 70	 mov	 DWORD PTR tv823[rsp], eax
$LN325@tcpnje_exe:
  0161c	8b 44 24 70	 mov	 eax, DWORD PTR tv823[rsp]
  01620	89 44 24 38	 mov	 DWORD PTR num$[rsp], eax

; 3562 :                 memcpy(iobuf, &tn->tcpinbuf.outptr.block->record.tpb, num);

  01624	8b 44 24 38	 mov	 eax, DWORD PTR num$[rsp]
  01628	48 8b 4c 24 30	 mov	 rcx, QWORD PTR tn$[rsp]
  0162d	48 8b 89 c8 00
	00 00		 mov	 rcx, QWORD PTR [rcx+200]
  01634	48 83 c1 0c	 add	 rcx, 12
  01638	48 8b bc 24 b8
	01 00 00	 mov	 rdi, QWORD PTR iobuf$[rsp]
  01640	48 8b f1	 mov	 rsi, rcx
  01643	8b c8		 mov	 ecx, eax
  01645	f3 a4		 rep movsb

; 3563 : 
; 3564 :                 /* Check if we snagged an incoming NCC J response signon  */
; 3565 :                 /* record and modify the connection state accordingly.    */
; 3566 :                 /* Also check NCC I initial signon records in case the    */
; 3567 :                 /* other end has requested use of the PREPARE mode option */
; 3568 :                 /* which is not currently supported and if so, reset the  */
; 3569 :                 /* bit corresponding to that option in case the RSCS at   */
; 3570 :                 /* our end decides to go with it.  If the same option is  */
; 3571 :                 /* set in an incoming J record, something is badly wrong. */
; 3572 :                 /* Also take note of the buffer size specified on an      */
; 3573 :                 /* incoming J record as this is the buffer size the two   */
; 3574 :                 /* link ends have negotiated to use.  */
; 3575 :                 if ((TTRlength > 6) && (tn->tcpinbuf.outptr.block->record.tpb.rcb == 0xf0))

  01647	83 7c 24 48 06	 cmp	 DWORD PTR TTRlength$[rsp], 6
  0164c	0f 86 0f 06 00
	00		 jbe	 $LN105@tcpnje_exe
  01652	48 8b 44 24 30	 mov	 rax, QWORD PTR tn$[rsp]
  01657	48 8b 80 c8 00
	00 00		 mov	 rax, QWORD PTR [rax+200]
  0165e	0f b6 40 11	 movzx	 eax, BYTE PTR [rax+17]
  01662	3d f0 00 00 00	 cmp	 eax, 240		; 000000f0H
  01667	0f 85 f4 05 00
	00		 jne	 $LN105@tcpnje_exe

; 3576 :                 {
; 3577 :                     if ((tn->tcpinbuf.outptr.block->record.tpb.srcb == 0xc9) &&

  0166d	48 8b 44 24 30	 mov	 rax, QWORD PTR tn$[rsp]
  01672	48 8b 80 c8 00
	00 00		 mov	 rax, QWORD PTR [rax+200]
  01679	0f b6 40 12	 movzx	 eax, BYTE PTR [rax+18]
  0167d	3d c9 00 00 00	 cmp	 eax, 201		; 000000c9H
  01682	0f 85 d3 02 00
	00		 jne	 $LN106@tcpnje_exe
  01688	48 8b 44 24 30	 mov	 rax, QWORD PTR tn$[rsp]
  0168d	83 b8 54 01 00
	00 06		 cmp	 DWORD PTR [rax+340], 6
  01694	75 15		 jne	 SHORT $LN109@tcpnje_exe
  01696	48 8b 44 24 30	 mov	 rax, QWORD PTR tn$[rsp]
  0169b	8b 80 64 01 00
	00		 mov	 eax, DWORD PTR [rax+356]
  016a1	c1 e8 0c	 shr	 eax, 12
  016a4	83 e0 01	 and	 eax, 1
  016a7	85 c0		 test	 eax, eax
  016a9	74 2b		 je	 SHORT $LN108@tcpnje_exe
$LN109@tcpnje_exe:
  016ab	48 8b 44 24 30	 mov	 rax, QWORD PTR tn$[rsp]
  016b0	83 b8 54 01 00
	00 07		 cmp	 DWORD PTR [rax+340], 7
  016b7	0f 85 9e 02 00
	00		 jne	 $LN106@tcpnje_exe
  016bd	48 8b 44 24 30	 mov	 rax, QWORD PTR tn$[rsp]
  016c2	8b 80 64 01 00
	00		 mov	 eax, DWORD PTR [rax+356]
  016c8	c1 e8 0c	 shr	 eax, 12
  016cb	83 e0 01	 and	 eax, 1
  016ce	85 c0		 test	 eax, eax
  016d0	0f 84 85 02 00
	00		 je	 $LN106@tcpnje_exe
$LN108@tcpnje_exe:

; 3578 :                        (((tn->state == NJEACKSNT) && !tn->synnaksent) ||
; 3579 :                         ((tn->state == NJEACKRCD) && tn->synnaksent)))
; 3580 :                     {
; 3581 :                         char nodestring[9];
; 3582 : 
; 3583 :                         /* SRCB == I Initial signon record received */
; 3584 :                         if (TTRlength > (5 + 0x0b))

  016d6	83 7c 24 48 10	 cmp	 DWORD PTR TTRlength$[rsp], 16
  016db	0f 86 b6 00 00
	00		 jbe	 $LN110@tcpnje_exe

; 3585 :                         {
; 3586 :                             DBGMSG(64, "HHCTN079I %4.4X:TCPNJE - received initial signon request for RSCS link %s - connection state %s\n",

  016e1	48 8b 44 24 30	 mov	 rax, QWORD PTR tn$[rsp]
  016e6	48 8b 00	 mov	 rax, QWORD PTR [rax]
  016e9	8b 80 f8 05 00
	00		 mov	 eax, DWORD PTR [rax+1528]
  016ef	c1 e8 0f	 shr	 eax, 15
  016f2	83 e0 01	 and	 eax, 1
  016f5	85 c0		 test	 eax, eax
  016f7	74 12		 je	 SHORT $LN113@tcpnje_exe
  016f9	48 8b 44 24 30	 mov	 rax, QWORD PTR tn$[rsp]
  016fe	8b 80 4c 01 00
	00		 mov	 eax, DWORD PTR [rax+332]
  01704	83 e0 40	 and	 eax, 64			; 00000040H
  01707	85 c0		 test	 eax, eax
  01709	75 12		 jne	 SHORT $LN112@tcpnje_exe
$LN113@tcpnje_exe:
  0170b	48 8b 44 24 30	 mov	 rax, QWORD PTR tn$[rsp]
  01710	8b 80 50 01 00
	00		 mov	 eax, DWORD PTR [rax+336]
  01716	83 e0 40	 and	 eax, 64			; 00000040H
  01719	85 c0		 test	 eax, eax
  0171b	74 7a		 je	 SHORT $LN111@tcpnje_exe
$LN112@tcpnje_exe:
  0171d	48 8b 44 24 30	 mov	 rax, QWORD PTR tn$[rsp]
  01722	48 63 80 54 01
	00 00		 movsxd	 rax, DWORD PTR [rax+340]
  01729	48 89 84 24 c8
	00 00 00	 mov	 QWORD PTR tv866[rsp], rax
  01731	48 8d 0d 00 00
	00 00		 lea	 rcx, OFFSET FLAT:tcpnje_state_text
  01738	48 89 8c 24 c0
	00 00 00	 mov	 QWORD PTR tv2299[rsp], rcx
  01740	48 8b 54 24 30	 mov	 rdx, QWORD PTR tn$[rsp]
  01745	48 8b 92 c8 00
	00 00		 mov	 rdx, QWORD PTR [rdx+200]
  0174c	48 83 c2 14	 add	 rdx, 20
  01750	4c 8b c2	 mov	 r8, rdx
  01753	ba 09 00 00 00	 mov	 edx, 9
  01758	48 8d 8c 24 18
	01 00 00	 lea	 rcx, QWORD PTR nodestring$3[rsp]
  01760	e8 00 00 00 00	 call	 guest_to_host_string
  01765	48 8b 8c 24 80
	01 00 00	 mov	 rcx, QWORD PTR dev$[rsp]
  0176d	0f b7 49 48	 movzx	 ecx, WORD PTR [rcx+72]
  01771	48 8b bc 24 c0
	00 00 00	 mov	 rdi, QWORD PTR tv2299[rsp]
  01779	48 8b 94 24 c8
	00 00 00	 mov	 rdx, QWORD PTR tv866[rsp]
  01781	4c 8b 0c d7	 mov	 r9, QWORD PTR [rdi+rdx*8]
  01785	4c 8b c0	 mov	 r8, rax
  01788	8b d1		 mov	 edx, ecx
  0178a	48 8d 0d 00 00
	00 00		 lea	 rcx, OFFSET FLAT:$SG160751
  01791	ff 15 00 00 00
	00		 call	 QWORD PTR __imp_logmsg
$LN111@tcpnje_exe:
$LN110@tcpnje_exe:

; 3587 :                                 dev->devnum, guest_to_host_string(nodestring, sizeof(nodestring),
; 3588 :                                 tn->tcpinbuf.outptr.block->record.tpb.nccinode), tcpnje_state_text[tn->state]);
; 3589 :                         }
; 3590 :                         if (TTRlength > (5 + 0x13))

  01797	83 7c 24 48 18	 cmp	 DWORD PTR TTRlength$[rsp], 24
  0179c	0f 86 cd 00 00
	00		 jbe	 $LN114@tcpnje_exe

; 3591 :                         {
; 3592 :                             U16 tpbufsize;
; 3593 : 
; 3594 :                             /* The following contortion is due to improper alignment in I/J signon records */
; 3595 :                             tpbufsize = (tn->tcpinbuf.outptr.block->record.tpb.nccibfsz[0] << 8)

  017a2	48 8b 44 24 30	 mov	 rax, QWORD PTR tn$[rsp]
  017a7	48 8b 80 c8 00
	00 00		 mov	 rax, QWORD PTR [rax+200]
  017ae	b9 01 00 00 00	 mov	 ecx, 1
  017b3	48 6b c9 00	 imul	 rcx, rcx, 0
  017b7	0f b6 44 08 23	 movzx	 eax, BYTE PTR [rax+rcx+35]
  017bc	c1 e0 08	 shl	 eax, 8
  017bf	48 8b 4c 24 30	 mov	 rcx, QWORD PTR tn$[rsp]
  017c4	48 8b 89 c8 00
	00 00		 mov	 rcx, QWORD PTR [rcx+200]
  017cb	ba 01 00 00 00	 mov	 edx, 1
  017d0	48 6b d2 01	 imul	 rdx, rdx, 1
  017d4	0f b6 4c 11 23	 movzx	 ecx, BYTE PTR [rcx+rdx+35]
  017d9	03 c1		 add	 eax, ecx
  017db	66 89 44 24 50	 mov	 WORD PTR tpbufsize$1[rsp], ax

; 3596 :                                        + tn->tcpinbuf.outptr.block->record.tpb.nccibfsz[1];
; 3597 :                             DBGMSG(64, "HHCTN080I %4.4X:TCPNJE - received TPbuffer size requested by RSCS link %s: %d\n",

  017e0	48 8b 44 24 30	 mov	 rax, QWORD PTR tn$[rsp]
  017e5	48 8b 00	 mov	 rax, QWORD PTR [rax]
  017e8	8b 80 f8 05 00
	00		 mov	 eax, DWORD PTR [rax+1528]
  017ee	c1 e8 0f	 shr	 eax, 15
  017f1	83 e0 01	 and	 eax, 1
  017f4	85 c0		 test	 eax, eax
  017f6	74 12		 je	 SHORT $LN117@tcpnje_exe
  017f8	48 8b 44 24 30	 mov	 rax, QWORD PTR tn$[rsp]
  017fd	8b 80 4c 01 00
	00		 mov	 eax, DWORD PTR [rax+332]
  01803	83 e0 40	 and	 eax, 64			; 00000040H
  01806	85 c0		 test	 eax, eax
  01808	75 12		 jne	 SHORT $LN116@tcpnje_exe
$LN117@tcpnje_exe:
  0180a	48 8b 44 24 30	 mov	 rax, QWORD PTR tn$[rsp]
  0180f	8b 80 50 01 00
	00		 mov	 eax, DWORD PTR [rax+336]
  01815	83 e0 40	 and	 eax, 64			; 00000040H
  01818	85 c0		 test	 eax, eax
  0181a	74 53		 je	 SHORT $LN115@tcpnje_exe
$LN116@tcpnje_exe:
  0181c	0f b7 44 24 50	 movzx	 eax, WORD PTR tpbufsize$1[rsp]
  01821	89 44 24 74	 mov	 DWORD PTR tv906[rsp], eax
  01825	48 8b 4c 24 30	 mov	 rcx, QWORD PTR tn$[rsp]
  0182a	48 8b 89 c8 00
	00 00		 mov	 rcx, QWORD PTR [rcx+200]
  01831	48 83 c1 14	 add	 rcx, 20
  01835	4c 8b c1	 mov	 r8, rcx
  01838	ba 09 00 00 00	 mov	 edx, 9
  0183d	48 8d 8c 24 18
	01 00 00	 lea	 rcx, QWORD PTR nodestring$3[rsp]
  01845	e8 00 00 00 00	 call	 guest_to_host_string
  0184a	48 8b 8c 24 80
	01 00 00	 mov	 rcx, QWORD PTR dev$[rsp]
  01852	0f b7 49 48	 movzx	 ecx, WORD PTR [rcx+72]
  01856	8b 54 24 74	 mov	 edx, DWORD PTR tv906[rsp]
  0185a	44 8b ca	 mov	 r9d, edx
  0185d	4c 8b c0	 mov	 r8, rax
  01860	8b d1		 mov	 edx, ecx
  01862	48 8d 0d 00 00
	00 00		 lea	 rcx, OFFSET FLAT:$SG160756
  01869	ff 15 00 00 00
	00		 call	 QWORD PTR __imp_logmsg
$LN115@tcpnje_exe:
$LN114@tcpnje_exe:

; 3598 :                                     dev->devnum, guest_to_host_string(nodestring, sizeof(nodestring),
; 3599 :                                     tn->tcpinbuf.outptr.block->record.tpb.nccinode), tpbufsize);
; 3600 :                         }
; 3601 :                         /* If the other end has requested the PREPARE feature, reset it as we can't do that */
; 3602 :                         if ((TTRlength > (5 + 0x25)) && (tn->tcpinbuf.outptr.block->record.tpb.nccifeat[0] & 0x80))

  0186f	83 7c 24 48 2a	 cmp	 DWORD PTR TTRlength$[rsp], 42 ; 0000002aH
  01874	0f 86 dc 00 00
	00		 jbe	 $LN118@tcpnje_exe
  0187a	48 8b 44 24 30	 mov	 rax, QWORD PTR tn$[rsp]
  0187f	48 8b 80 c8 00
	00 00		 mov	 rax, QWORD PTR [rax+200]
  01886	b9 01 00 00 00	 mov	 ecx, 1
  0188b	48 6b c9 00	 imul	 rcx, rcx, 0
  0188f	0f b6 44 08 36	 movzx	 eax, BYTE PTR [rax+rcx+54]
  01894	25 80 00 00 00	 and	 eax, 128		; 00000080H
  01899	85 c0		 test	 eax, eax
  0189b	0f 84 b5 00 00
	00		 je	 $LN118@tcpnje_exe

; 3603 :                         {
; 3604 :                             tn->tcpinbuf.outptr.block->record.tpb.nccifeat[0] &= 0x7f;

  018a1	48 8b 44 24 30	 mov	 rax, QWORD PTR tn$[rsp]
  018a6	48 8b 80 c8 00
	00 00		 mov	 rax, QWORD PTR [rax+200]
  018ad	b9 01 00 00 00	 mov	 ecx, 1
  018b2	48 6b c9 00	 imul	 rcx, rcx, 0
  018b6	0f b6 44 08 36	 movzx	 eax, BYTE PTR [rax+rcx+54]
  018bb	83 e0 7f	 and	 eax, 127		; 0000007fH
  018be	b9 01 00 00 00	 mov	 ecx, 1
  018c3	48 6b c9 00	 imul	 rcx, rcx, 0
  018c7	48 8b 54 24 30	 mov	 rdx, QWORD PTR tn$[rsp]
  018cc	48 8b 92 c8 00
	00 00		 mov	 rdx, QWORD PTR [rdx+200]
  018d3	88 44 0a 36	 mov	 BYTE PTR [rdx+rcx+54], al

; 3605 :                             DBGMSG(64, "HHCTN081I %4.4X:TCPNJE - resetting request by RSCS link %s for unsupported PREPARE protocol\n",

  018d7	48 8b 44 24 30	 mov	 rax, QWORD PTR tn$[rsp]
  018dc	48 8b 00	 mov	 rax, QWORD PTR [rax]
  018df	8b 80 f8 05 00
	00		 mov	 eax, DWORD PTR [rax+1528]
  018e5	c1 e8 0f	 shr	 eax, 15
  018e8	83 e0 01	 and	 eax, 1
  018eb	85 c0		 test	 eax, eax
  018ed	74 12		 je	 SHORT $LN121@tcpnje_exe
  018ef	48 8b 44 24 30	 mov	 rax, QWORD PTR tn$[rsp]
  018f4	8b 80 4c 01 00
	00		 mov	 eax, DWORD PTR [rax+332]
  018fa	83 e0 40	 and	 eax, 64			; 00000040H
  018fd	85 c0		 test	 eax, eax
  018ff	75 12		 jne	 SHORT $LN120@tcpnje_exe
$LN121@tcpnje_exe:
  01901	48 8b 44 24 30	 mov	 rax, QWORD PTR tn$[rsp]
  01906	8b 80 50 01 00
	00		 mov	 eax, DWORD PTR [rax+336]
  0190c	83 e0 40	 and	 eax, 64			; 00000040H
  0190f	85 c0		 test	 eax, eax
  01911	74 43		 je	 SHORT $LN119@tcpnje_exe
$LN120@tcpnje_exe:
  01913	48 8b 44 24 30	 mov	 rax, QWORD PTR tn$[rsp]
  01918	48 8b 80 c8 00
	00 00		 mov	 rax, QWORD PTR [rax+200]
  0191f	48 83 c0 14	 add	 rax, 20
  01923	4c 8b c0	 mov	 r8, rax
  01926	ba 09 00 00 00	 mov	 edx, 9
  0192b	48 8d 8c 24 18
	01 00 00	 lea	 rcx, QWORD PTR nodestring$3[rsp]
  01933	e8 00 00 00 00	 call	 guest_to_host_string
  01938	48 8b 8c 24 80
	01 00 00	 mov	 rcx, QWORD PTR dev$[rsp]
  01940	0f b7 49 48	 movzx	 ecx, WORD PTR [rcx+72]
  01944	4c 8b c0	 mov	 r8, rax
  01947	8b d1		 mov	 edx, ecx
  01949	48 8d 0d 00 00
	00 00		 lea	 rcx, OFFSET FLAT:$SG160761
  01950	ff 15 00 00 00
	00		 call	 QWORD PTR __imp_logmsg
$LN119@tcpnje_exe:
$LN118@tcpnje_exe:

; 3606 :                                     dev->devnum, guest_to_host_string(nodestring, sizeof(nodestring),
; 3607 :                                     tn->tcpinbuf.outptr.block->record.tpb.nccinode));
; 3608 :                         }
; 3609 :                     }

  01956	e9 06 03 00 00	 jmp	 $LN107@tcpnje_exe
$LN106@tcpnje_exe:

; 3610 :                     else if ((tn->tcpinbuf.outptr.block->record.tpb.srcb == 0xd1) &&

  0195b	48 8b 44 24 30	 mov	 rax, QWORD PTR tn$[rsp]
  01960	48 8b 80 c8 00
	00 00		 mov	 rax, QWORD PTR [rax+200]
  01967	0f b6 40 12	 movzx	 eax, BYTE PTR [rax+18]
  0196b	3d d1 00 00 00	 cmp	 eax, 209		; 000000d1H
  01970	0f 85 eb 02 00
	00		 jne	 $LN122@tcpnje_exe
  01976	48 8b 44 24 30	 mov	 rax, QWORD PTR tn$[rsp]
  0197b	83 b8 54 01 00
	00 07		 cmp	 DWORD PTR [rax+340], 7
  01982	75 15		 jne	 SHORT $LN124@tcpnje_exe
  01984	48 8b 44 24 30	 mov	 rax, QWORD PTR tn$[rsp]
  01989	8b 80 64 01 00
	00		 mov	 eax, DWORD PTR [rax+356]
  0198f	c1 e8 0b	 shr	 eax, 11
  01992	83 e0 01	 and	 eax, 1
  01995	85 c0		 test	 eax, eax
  01997	74 2b		 je	 SHORT $LN123@tcpnje_exe
$LN124@tcpnje_exe:
  01999	48 8b 44 24 30	 mov	 rax, QWORD PTR tn$[rsp]
  0199e	83 b8 54 01 00
	00 06		 cmp	 DWORD PTR [rax+340], 6
  019a5	0f 85 b6 02 00
	00		 jne	 $LN122@tcpnje_exe
  019ab	48 8b 44 24 30	 mov	 rax, QWORD PTR tn$[rsp]
  019b0	8b 80 64 01 00
	00		 mov	 eax, DWORD PTR [rax+356]
  019b6	c1 e8 0b	 shr	 eax, 11
  019b9	83 e0 01	 and	 eax, 1
  019bc	85 c0		 test	 eax, eax
  019be	0f 84 9d 02 00
	00		 je	 $LN122@tcpnje_exe
$LN123@tcpnje_exe:

; 3611 :                             (((tn->state == NJEACKRCD) && !tn->synnakreceived) ||
; 3612 :                              ((tn->state == NJEACKSNT) && tn->synnakreceived)))
; 3613 : 
; 3614 :                     {
; 3615 :                         char nodestring[9];
; 3616 : 
; 3617 :                         /* SRCB == J Response signon record received */
; 3618 :                         tn->state = NJECONPRI;

  019c4	48 8b 44 24 30	 mov	 rax, QWORD PTR tn$[rsp]
  019c9	c7 80 54 01 00
	00 08 00 00 00	 mov	 DWORD PTR [rax+340], 8

; 3619 :                         if (TTRlength > (5 + 0x0b))

  019d3	83 7c 24 48 10	 cmp	 DWORD PTR TTRlength$[rsp], 16
  019d8	0f 86 b6 00 00
	00		 jbe	 $LN125@tcpnje_exe

; 3620 :                         {
; 3621 :                             DBGMSG(64, "HHCTN082I %4.4X:TCPNJE - received response signon for RSCS link %s - connection state %s\n",

  019de	48 8b 44 24 30	 mov	 rax, QWORD PTR tn$[rsp]
  019e3	48 8b 00	 mov	 rax, QWORD PTR [rax]
  019e6	8b 80 f8 05 00
	00		 mov	 eax, DWORD PTR [rax+1528]
  019ec	c1 e8 0f	 shr	 eax, 15
  019ef	83 e0 01	 and	 eax, 1
  019f2	85 c0		 test	 eax, eax
  019f4	74 12		 je	 SHORT $LN128@tcpnje_exe
  019f6	48 8b 44 24 30	 mov	 rax, QWORD PTR tn$[rsp]
  019fb	8b 80 4c 01 00
	00		 mov	 eax, DWORD PTR [rax+332]
  01a01	83 e0 40	 and	 eax, 64			; 00000040H
  01a04	85 c0		 test	 eax, eax
  01a06	75 12		 jne	 SHORT $LN127@tcpnje_exe
$LN128@tcpnje_exe:
  01a08	48 8b 44 24 30	 mov	 rax, QWORD PTR tn$[rsp]
  01a0d	8b 80 50 01 00
	00		 mov	 eax, DWORD PTR [rax+336]
  01a13	83 e0 40	 and	 eax, 64			; 00000040H
  01a16	85 c0		 test	 eax, eax
  01a18	74 7a		 je	 SHORT $LN126@tcpnje_exe
$LN127@tcpnje_exe:
  01a1a	48 8b 44 24 30	 mov	 rax, QWORD PTR tn$[rsp]
  01a1f	48 63 80 54 01
	00 00		 movsxd	 rax, DWORD PTR [rax+340]
  01a26	48 89 84 24 d8
	00 00 00	 mov	 QWORD PTR tv990[rsp], rax
  01a2e	48 8d 0d 00 00
	00 00		 lea	 rcx, OFFSET FLAT:tcpnje_state_text
  01a35	48 89 8c 24 d0
	00 00 00	 mov	 QWORD PTR tv2303[rsp], rcx
  01a3d	48 8b 54 24 30	 mov	 rdx, QWORD PTR tn$[rsp]
  01a42	48 8b 92 c8 00
	00 00		 mov	 rdx, QWORD PTR [rdx+200]
  01a49	48 83 c2 14	 add	 rdx, 20
  01a4d	4c 8b c2	 mov	 r8, rdx
  01a50	ba 09 00 00 00	 mov	 edx, 9
  01a55	48 8d 8c 24 28
	01 00 00	 lea	 rcx, QWORD PTR nodestring$4[rsp]
  01a5d	e8 00 00 00 00	 call	 guest_to_host_string
  01a62	48 8b 8c 24 80
	01 00 00	 mov	 rcx, QWORD PTR dev$[rsp]
  01a6a	0f b7 49 48	 movzx	 ecx, WORD PTR [rcx+72]
  01a6e	48 8b bc 24 d0
	00 00 00	 mov	 rdi, QWORD PTR tv2303[rsp]
  01a76	48 8b 94 24 d8
	00 00 00	 mov	 rdx, QWORD PTR tv990[rsp]
  01a7e	4c 8b 0c d7	 mov	 r9, QWORD PTR [rdi+rdx*8]
  01a82	4c 8b c0	 mov	 r8, rax
  01a85	8b d1		 mov	 edx, ecx
  01a87	48 8d 0d 00 00
	00 00		 lea	 rcx, OFFSET FLAT:$SG160769
  01a8e	ff 15 00 00 00
	00		 call	 QWORD PTR __imp_logmsg
$LN126@tcpnje_exe:
$LN125@tcpnje_exe:

; 3622 :                                 dev->devnum, guest_to_host_string(nodestring, sizeof(nodestring),
; 3623 :                                 tn->tcpinbuf.outptr.block->record.tpb.nccinode), tcpnje_state_text[tn->state]);
; 3624 :                         }
; 3625 :                         if (TTRlength > (5 + 0x13))

  01a94	83 7c 24 48 18	 cmp	 DWORD PTR TTRlength$[rsp], 24
  01a99	0f 86 db 00 00
	00		 jbe	 $LN129@tcpnje_exe

; 3626 :                         {
; 3627 :                             /* The following contortion is due to improper alignment in I/J signon records */
; 3628 :                             tn->tpbufsize = (tn->tcpinbuf.outptr.block->record.tpb.nccibfsz[0] << 8)

  01a9f	48 8b 44 24 30	 mov	 rax, QWORD PTR tn$[rsp]
  01aa4	48 8b 80 c8 00
	00 00		 mov	 rax, QWORD PTR [rax+200]
  01aab	b9 01 00 00 00	 mov	 ecx, 1
  01ab0	48 6b c9 00	 imul	 rcx, rcx, 0
  01ab4	0f b6 44 08 23	 movzx	 eax, BYTE PTR [rax+rcx+35]
  01ab9	c1 e0 08	 shl	 eax, 8
  01abc	48 8b 4c 24 30	 mov	 rcx, QWORD PTR tn$[rsp]
  01ac1	48 8b 89 c8 00
	00 00		 mov	 rcx, QWORD PTR [rcx+200]
  01ac8	ba 01 00 00 00	 mov	 edx, 1
  01acd	48 6b d2 01	 imul	 rdx, rdx, 1
  01ad1	0f b6 4c 11 23	 movzx	 ecx, BYTE PTR [rcx+rdx+35]
  01ad6	03 c1		 add	 eax, ecx
  01ad8	48 8b 4c 24 30	 mov	 rcx, QWORD PTR tn$[rsp]
  01add	66 89 81 5e 01
	00 00		 mov	 WORD PTR [rcx+350], ax

; 3629 :                                                     + tn->tcpinbuf.outptr.block->record.tpb.nccibfsz[1];
; 3630 :                             DBGMSG(64, "HHCTN083I %4.4X:TCPNJE - received TPbuffer size negotiated by RSCS link %s: %d\n",

  01ae4	48 8b 44 24 30	 mov	 rax, QWORD PTR tn$[rsp]
  01ae9	48 8b 00	 mov	 rax, QWORD PTR [rax]
  01aec	8b 80 f8 05 00
	00		 mov	 eax, DWORD PTR [rax+1528]
  01af2	c1 e8 0f	 shr	 eax, 15
  01af5	83 e0 01	 and	 eax, 1
  01af8	85 c0		 test	 eax, eax
  01afa	74 12		 je	 SHORT $LN132@tcpnje_exe
  01afc	48 8b 44 24 30	 mov	 rax, QWORD PTR tn$[rsp]
  01b01	8b 80 4c 01 00
	00		 mov	 eax, DWORD PTR [rax+332]
  01b07	83 e0 40	 and	 eax, 64			; 00000040H
  01b0a	85 c0		 test	 eax, eax
  01b0c	75 12		 jne	 SHORT $LN131@tcpnje_exe
$LN132@tcpnje_exe:
  01b0e	48 8b 44 24 30	 mov	 rax, QWORD PTR tn$[rsp]
  01b13	8b 80 50 01 00
	00		 mov	 eax, DWORD PTR [rax+336]
  01b19	83 e0 40	 and	 eax, 64			; 00000040H
  01b1c	85 c0		 test	 eax, eax
  01b1e	74 5a		 je	 SHORT $LN130@tcpnje_exe
$LN131@tcpnje_exe:
  01b20	48 8b 44 24 30	 mov	 rax, QWORD PTR tn$[rsp]
  01b25	0f b7 80 5e 01
	00 00		 movzx	 eax, WORD PTR [rax+350]
  01b2c	89 44 24 78	 mov	 DWORD PTR tv1032[rsp], eax
  01b30	48 8b 4c 24 30	 mov	 rcx, QWORD PTR tn$[rsp]
  01b35	48 8b 89 c8 00
	00 00		 mov	 rcx, QWORD PTR [rcx+200]
  01b3c	48 83 c1 14	 add	 rcx, 20
  01b40	4c 8b c1	 mov	 r8, rcx
  01b43	ba 09 00 00 00	 mov	 edx, 9
  01b48	48 8d 8c 24 28
	01 00 00	 lea	 rcx, QWORD PTR nodestring$4[rsp]
  01b50	e8 00 00 00 00	 call	 guest_to_host_string
  01b55	48 8b 8c 24 80
	01 00 00	 mov	 rcx, QWORD PTR dev$[rsp]
  01b5d	0f b7 49 48	 movzx	 ecx, WORD PTR [rcx+72]
  01b61	8b 54 24 78	 mov	 edx, DWORD PTR tv1032[rsp]
  01b65	44 8b ca	 mov	 r9d, edx
  01b68	4c 8b c0	 mov	 r8, rax
  01b6b	8b d1		 mov	 edx, ecx
  01b6d	48 8d 0d 00 00
	00 00		 lea	 rcx, OFFSET FLAT:$SG160774
  01b74	ff 15 00 00 00
	00		 call	 QWORD PTR __imp_logmsg
$LN130@tcpnje_exe:
$LN129@tcpnje_exe:

; 3631 :                                     dev->devnum, guest_to_host_string(nodestring, sizeof(nodestring),
; 3632 :                                     tn->tcpinbuf.outptr.block->record.tpb.nccinode), tn->tpbufsize);
; 3633 :                         }
; 3634 :                         /* If the other end set the prepare flag, it's going against our request */
; 3635 :                         if ((TTRlength > (5 + 0x25)) && (tn->tcpinbuf.outptr.block->record.tpb.nccifeat[0] & 0x80))

  01b7a	83 7c 24 48 2a	 cmp	 DWORD PTR TTRlength$[rsp], 42 ; 0000002aH
  01b7f	0f 86 dc 00 00
	00		 jbe	 $LN133@tcpnje_exe
  01b85	48 8b 44 24 30	 mov	 rax, QWORD PTR tn$[rsp]
  01b8a	48 8b 80 c8 00
	00 00		 mov	 rax, QWORD PTR [rax+200]
  01b91	b9 01 00 00 00	 mov	 ecx, 1
  01b96	48 6b c9 00	 imul	 rcx, rcx, 0
  01b9a	0f b6 44 08 36	 movzx	 eax, BYTE PTR [rax+rcx+54]
  01b9f	25 80 00 00 00	 and	 eax, 128		; 00000080H
  01ba4	85 c0		 test	 eax, eax
  01ba6	0f 84 b5 00 00
	00		 je	 $LN133@tcpnje_exe

; 3636 :                         {
; 3637 :                             DBGMSG(16, "HHCTN084E %4.4X:TCPNJE - attempt by RSCS link %s to force use of unsupported PREPARE protocol\n",

  01bac	48 8b 44 24 30	 mov	 rax, QWORD PTR tn$[rsp]
  01bb1	48 8b 00	 mov	 rax, QWORD PTR [rax]
  01bb4	8b 80 f8 05 00
	00		 mov	 eax, DWORD PTR [rax+1528]
  01bba	c1 e8 0f	 shr	 eax, 15
  01bbd	83 e0 01	 and	 eax, 1
  01bc0	85 c0		 test	 eax, eax
  01bc2	74 12		 je	 SHORT $LN136@tcpnje_exe
  01bc4	48 8b 44 24 30	 mov	 rax, QWORD PTR tn$[rsp]
  01bc9	8b 80 4c 01 00
	00		 mov	 eax, DWORD PTR [rax+332]
  01bcf	83 e0 10	 and	 eax, 16
  01bd2	85 c0		 test	 eax, eax
  01bd4	75 12		 jne	 SHORT $LN135@tcpnje_exe
$LN136@tcpnje_exe:
  01bd6	48 8b 44 24 30	 mov	 rax, QWORD PTR tn$[rsp]
  01bdb	8b 80 50 01 00
	00		 mov	 eax, DWORD PTR [rax+336]
  01be1	83 e0 10	 and	 eax, 16
  01be4	85 c0		 test	 eax, eax
  01be6	74 43		 je	 SHORT $LN134@tcpnje_exe
$LN135@tcpnje_exe:
  01be8	48 8b 44 24 30	 mov	 rax, QWORD PTR tn$[rsp]
  01bed	48 8b 80 c8 00
	00 00		 mov	 rax, QWORD PTR [rax+200]
  01bf4	48 83 c0 14	 add	 rax, 20
  01bf8	4c 8b c0	 mov	 r8, rax
  01bfb	ba 09 00 00 00	 mov	 edx, 9
  01c00	48 8d 8c 24 28
	01 00 00	 lea	 rcx, QWORD PTR nodestring$4[rsp]
  01c08	e8 00 00 00 00	 call	 guest_to_host_string
  01c0d	48 8b 8c 24 80
	01 00 00	 mov	 rcx, QWORD PTR dev$[rsp]
  01c15	0f b7 49 48	 movzx	 ecx, WORD PTR [rcx+72]
  01c19	4c 8b c0	 mov	 r8, rax
  01c1c	8b d1		 mov	 edx, ecx
  01c1e	48 8d 0d 00 00
	00 00		 lea	 rcx, OFFSET FLAT:$SG160779
  01c25	ff 15 00 00 00
	00		 call	 QWORD PTR __imp_logmsg
$LN134@tcpnje_exe:

; 3638 :                                     dev->devnum, guest_to_host_string(nodestring, sizeof(nodestring),
; 3639 :                                     tn->tcpinbuf.outptr.block->record.tpb.nccinode));
; 3640 :                             tn->tcpinbuf.outptr.block->record.tpb.nccifeat[0] &= 0x7f;

  01c2b	48 8b 44 24 30	 mov	 rax, QWORD PTR tn$[rsp]
  01c30	48 8b 80 c8 00
	00 00		 mov	 rax, QWORD PTR [rax+200]
  01c37	b9 01 00 00 00	 mov	 ecx, 1
  01c3c	48 6b c9 00	 imul	 rcx, rcx, 0
  01c40	0f b6 44 08 36	 movzx	 eax, BYTE PTR [rax+rcx+54]
  01c45	83 e0 7f	 and	 eax, 127		; 0000007fH
  01c48	b9 01 00 00 00	 mov	 ecx, 1
  01c4d	48 6b c9 00	 imul	 rcx, rcx, 0
  01c51	48 8b 54 24 30	 mov	 rdx, QWORD PTR tn$[rsp]
  01c56	48 8b 92 c8 00
	00 00		 mov	 rdx, QWORD PTR [rdx+200]
  01c5d	88 44 0a 36	 mov	 BYTE PTR [rdx+rcx+54], al
$LN133@tcpnje_exe:
$LN122@tcpnje_exe:
$LN107@tcpnje_exe:
$LN105@tcpnje_exe:

; 3641 :                         }
; 3642 :                     }
; 3643 :                 }
; 3644 : 
; 3645 :                 /* If this record contains an FCS, the VMNET equipvelant at the other end will have acted  */
; 3646 :                 /* on it already.  If it requests transmission be stopped and we pass it on to our RSCS,   */
; 3647 :                 /* we will get all hung up so we should set the FCS to cause RSCS to proceed as normal.    */
; 3648 :                 /* On the other hand, if our outgoing TCP/IP buffers are full, we need to set the FCS so   */
; 3649 :                 /* that RSCS doesn't attempt to send out any more data for now.                            */
; 3650 :                 if (TTRlength >= 6)

  01c61	83 7c 24 48 06	 cmp	 DWORD PTR TTRlength$[rsp], 6
  01c66	0f 82 fa 00 00
	00		 jb	 $LN137@tcpnje_exe

; 3651 :                 {
; 3652 :                     if (tn->holdoutgoing)

  01c6c	48 8b 44 24 30	 mov	 rax, QWORD PTR tn$[rsp]
  01c71	8b 80 64 01 00
	00		 mov	 eax, DWORD PTR [rax+356]
  01c77	c1 e8 09	 shr	 eax, 9
  01c7a	83 e0 01	 and	 eax, 1
  01c7d	85 c0		 test	 eax, eax
  01c7f	74 28		 je	 SHORT $LN138@tcpnje_exe

; 3653 :                     {
; 3654 :                         tpb->fcs[0] = 0xc0;

  01c81	b8 01 00 00 00	 mov	 eax, 1
  01c86	48 6b c0 00	 imul	 rax, rax, 0
  01c8a	48 8b 4c 24 40	 mov	 rcx, QWORD PTR tpb$[rsp]
  01c8f	c6 44 01 03 c0	 mov	 BYTE PTR [rcx+rax+3], 192 ; 000000c0H

; 3655 :                         tpb->fcs[1] = 0x80;

  01c94	b8 01 00 00 00	 mov	 eax, 1
  01c99	48 6b c0 01	 imul	 rax, rax, 1
  01c9d	48 8b 4c 24 40	 mov	 rcx, QWORD PTR tpb$[rsp]
  01ca2	c6 44 01 03 80	 mov	 BYTE PTR [rcx+rax+3], 128 ; 00000080H

; 3656 :                     }

  01ca7	eb 26		 jmp	 SHORT $LN139@tcpnje_exe
$LN138@tcpnje_exe:

; 3657 :                     else
; 3658 :                     {
; 3659 :                         tpb->fcs[0] = 0x8f;

  01ca9	b8 01 00 00 00	 mov	 eax, 1
  01cae	48 6b c0 00	 imul	 rax, rax, 0
  01cb2	48 8b 4c 24 40	 mov	 rcx, QWORD PTR tpb$[rsp]
  01cb7	c6 44 01 03 8f	 mov	 BYTE PTR [rcx+rax+3], 143 ; 0000008fH

; 3660 :                         tpb->fcs[1] = 0xcf;

  01cbc	b8 01 00 00 00	 mov	 eax, 1
  01cc1	48 6b c0 01	 imul	 rax, rax, 1
  01cc5	48 8b 4c 24 40	 mov	 rcx, QWORD PTR tpb$[rsp]
  01cca	c6 44 01 03 cf	 mov	 BYTE PTR [rcx+rax+3], 207 ; 000000cfH
$LN139@tcpnje_exe:

; 3661 :                     }
; 3662 :                     /* Also check for FASTOPEN flag set and if so, note which stream it has been applied to */
; 3663 :                     if ((tn->tcpinbuf.outptr.block->record.ttr.flags&0x80) && (num >= 7))

  01ccf	48 8b 44 24 30	 mov	 rax, QWORD PTR tn$[rsp]
  01cd4	48 8b 80 c8 00
	00 00		 mov	 rax, QWORD PTR [rax+200]
  01cdb	0f b6 40 08	 movzx	 eax, BYTE PTR [rax+8]
  01cdf	25 80 00 00 00	 and	 eax, 128		; 00000080H
  01ce4	85 c0		 test	 eax, eax
  01ce6	74 7e		 je	 SHORT $LN140@tcpnje_exe
  01ce8	83 7c 24 38 07	 cmp	 DWORD PTR num$[rsp], 7
  01ced	72 77		 jb	 SHORT $LN140@tcpnje_exe

; 3664 :                     {
; 3665 :                         DBGMSG(16, "HHCTN085W %4.4X:TCPNJE READ - Link partner issued FASTOPEN request for stream %2.2X.  Implementation at this end is incomplete.\n",

  01cef	48 8b 44 24 30	 mov	 rax, QWORD PTR tn$[rsp]
  01cf4	48 8b 00	 mov	 rax, QWORD PTR [rax]
  01cf7	8b 80 f8 05 00
	00		 mov	 eax, DWORD PTR [rax+1528]
  01cfd	c1 e8 0f	 shr	 eax, 15
  01d00	83 e0 01	 and	 eax, 1
  01d03	85 c0		 test	 eax, eax
  01d05	74 12		 je	 SHORT $LN143@tcpnje_exe
  01d07	48 8b 44 24 30	 mov	 rax, QWORD PTR tn$[rsp]
  01d0c	8b 80 4c 01 00
	00		 mov	 eax, DWORD PTR [rax+332]
  01d12	83 e0 10	 and	 eax, 16
  01d15	85 c0		 test	 eax, eax
  01d17	75 12		 jne	 SHORT $LN142@tcpnje_exe
$LN143@tcpnje_exe:
  01d19	48 8b 44 24 30	 mov	 rax, QWORD PTR tn$[rsp]
  01d1e	8b 80 50 01 00
	00		 mov	 eax, DWORD PTR [rax+336]
  01d24	83 e0 10	 and	 eax, 16
  01d27	85 c0		 test	 eax, eax
  01d29	74 27		 je	 SHORT $LN141@tcpnje_exe
$LN142@tcpnje_exe:
  01d2b	48 8b 44 24 40	 mov	 rax, QWORD PTR tpb$[rsp]
  01d30	0f b6 40 06	 movzx	 eax, BYTE PTR [rax+6]
  01d34	48 8b 8c 24 80
	01 00 00	 mov	 rcx, QWORD PTR dev$[rsp]
  01d3c	0f b7 49 48	 movzx	 ecx, WORD PTR [rcx+72]
  01d40	44 8b c0	 mov	 r8d, eax
  01d43	8b d1		 mov	 edx, ecx
  01d45	48 8d 0d 00 00
	00 00		 lea	 rcx, OFFSET FLAT:$SG160787
  01d4c	ff 15 00 00 00
	00		 call	 QWORD PTR __imp_logmsg
$LN141@tcpnje_exe:

; 3666 :                                 dev->devnum, tpb->srcb);
; 3667 :                         tn->fastopen = tpb->srcb;

  01d52	48 8b 44 24 30	 mov	 rax, QWORD PTR tn$[rsp]
  01d57	48 8b 4c 24 40	 mov	 rcx, QWORD PTR tpb$[rsp]
  01d5c	0f b6 49 06	 movzx	 ecx, BYTE PTR [rcx+6]
  01d60	88 88 61 01 00
	00		 mov	 BYTE PTR [rax+353], cl
$LN140@tcpnje_exe:
$LN137@tcpnje_exe:

; 3668 :                     }
; 3669 :                 }
; 3670 : 
; 3671 :                 /* Point to next record after this one */
; 3672 :                 tn->tcpinbuf.outptr.address += SIZEOF_TTR + TTRlength;

  01d66	8b 44 24 48	 mov	 eax, DWORD PTR TTRlength$[rsp]
  01d6a	48 8b 4c 24 30	 mov	 rcx, QWORD PTR tn$[rsp]
  01d6f	48 8b 89 c8 00
	00 00		 mov	 rcx, QWORD PTR [rcx+200]
  01d76	48 8d 44 08 04	 lea	 rax, QWORD PTR [rax+rcx+4]
  01d7b	48 8b 4c 24 30	 mov	 rcx, QWORD PTR tn$[rsp]
  01d80	48 89 81 c8 00
	00 00		 mov	 QWORD PTR [rcx+200], rax

; 3673 : 
; 3674 :                 /* Count the data received.  Some overhead is included */
; 3675 :                 /* and some data is not counted due to compression.    */
; 3676 : 
; 3677 :                 if (num > 2)

  01d87	83 7c 24 38 02	 cmp	 DWORD PTR num$[rsp], 2
  01d8c	76 32		 jbe	 SHORT $LN144@tcpnje_exe

; 3678 :                 {
; 3679 :                     tn->inbytecount += num;

  01d8e	48 8b 44 24 30	 mov	 rax, QWORD PTR tn$[rsp]
  01d93	8b 80 10 01 00
	00		 mov	 eax, DWORD PTR [rax+272]
  01d99	03 44 24 38	 add	 eax, DWORD PTR num$[rsp]
  01d9d	48 8b 4c 24 30	 mov	 rcx, QWORD PTR tn$[rsp]
  01da2	89 81 10 01 00
	00		 mov	 DWORD PTR [rcx+272], eax

; 3680 :                     tn->inbuffcount++;

  01da8	48 8b 44 24 30	 mov	 rax, QWORD PTR tn$[rsp]
  01dad	8b 80 0c 01 00
	00		 mov	 eax, DWORD PTR [rax+268]
  01db3	ff c0		 inc	 eax
  01db5	48 8b 4c 24 30	 mov	 rcx, QWORD PTR tn$[rsp]
  01dba	89 81 0c 01 00
	00		 mov	 DWORD PTR [rcx+268], eax
$LN144@tcpnje_exe:

; 3681 :                 }
; 3682 : 
; 3683 :                 /* If the buffer started with DLE STX, fake DLE ETB after it. */
; 3684 :                 if (!memcmp(tpb->start, DLE STX, 2) && ((num + 2) <= count))

  01dc0	48 8b 44 24 40	 mov	 rax, QWORD PTR tpb$[rsp]
  01dc5	41 b8 02 00 00
	00		 mov	 r8d, 2
  01dcb	48 8d 15 00 00
	00 00		 lea	 rdx, OFFSET FLAT:$SG160790
  01dd2	48 8b c8	 mov	 rcx, rax
  01dd5	e8 00 00 00 00	 call	 memcmp
  01dda	85 c0		 test	 eax, eax
  01ddc	0f 85 d4 00 00
	00		 jne	 $LN145@tcpnje_exe
  01de2	8b 44 24 38	 mov	 eax, DWORD PTR num$[rsp]
  01de6	83 c0 02	 add	 eax, 2
  01de9	3b 84 24 a0 01
	00 00		 cmp	 eax, DWORD PTR count$[rsp]
  01df0	0f 87 c0 00 00
	00		 ja	 $LN145@tcpnje_exe

; 3685 :                 {
; 3686 :                     DBGMSG(4096, "HHCTN170D %4.4X:TCPNJE READ - adding DLE ETB to end of buffer\n", dev->devnum);

  01df6	48 8b 44 24 30	 mov	 rax, QWORD PTR tn$[rsp]
  01dfb	48 8b 00	 mov	 rax, QWORD PTR [rax]
  01dfe	8b 80 f8 05 00
	00		 mov	 eax, DWORD PTR [rax+1528]
  01e04	c1 e8 0f	 shr	 eax, 15
  01e07	83 e0 01	 and	 eax, 1
  01e0a	85 c0		 test	 eax, eax
  01e0c	74 14		 je	 SHORT $LN148@tcpnje_exe
  01e0e	48 8b 44 24 30	 mov	 rax, QWORD PTR tn$[rsp]
  01e13	8b 80 4c 01 00
	00		 mov	 eax, DWORD PTR [rax+332]
  01e19	25 00 10 00 00	 and	 eax, 4096		; 00001000H
  01e1e	85 c0		 test	 eax, eax
  01e20	75 14		 jne	 SHORT $LN147@tcpnje_exe
$LN148@tcpnje_exe:
  01e22	48 8b 44 24 30	 mov	 rax, QWORD PTR tn$[rsp]
  01e27	8b 80 50 01 00
	00		 mov	 eax, DWORD PTR [rax+336]
  01e2d	25 00 10 00 00	 and	 eax, 4096		; 00001000H
  01e32	85 c0		 test	 eax, eax
  01e34	74 1b		 je	 SHORT $LN146@tcpnje_exe
$LN147@tcpnje_exe:
  01e36	48 8b 84 24 80
	01 00 00	 mov	 rax, QWORD PTR dev$[rsp]
  01e3e	0f b7 40 48	 movzx	 eax, WORD PTR [rax+72]
  01e42	8b d0		 mov	 edx, eax
  01e44	48 8d 0d 00 00
	00 00		 lea	 rcx, OFFSET FLAT:$SG160794
  01e4b	ff 15 00 00 00
	00		 call	 QWORD PTR __imp_logmsg
$LN146@tcpnje_exe:

; 3687 : 
; 3688 :                     iobuf[num++] = *DLE;

  01e51	b8 01 00 00 00	 mov	 eax, 1
  01e56	48 6b c0 00	 imul	 rax, rax, 0
  01e5a	48 8d 0d 00 00
	00 00		 lea	 rcx, OFFSET FLAT:$SG160795
  01e61	8b 54 24 38	 mov	 edx, DWORD PTR num$[rsp]
  01e65	48 8b bc 24 b8
	01 00 00	 mov	 rdi, QWORD PTR iobuf$[rsp]
  01e6d	0f b6 04 01	 movzx	 eax, BYTE PTR [rcx+rax]
  01e71	88 04 17	 mov	 BYTE PTR [rdi+rdx], al
  01e74	8b 44 24 38	 mov	 eax, DWORD PTR num$[rsp]
  01e78	ff c0		 inc	 eax
  01e7a	89 44 24 38	 mov	 DWORD PTR num$[rsp], eax

; 3689 :                     iobuf[num++] = *ETB;

  01e7e	b8 01 00 00 00	 mov	 eax, 1
  01e83	48 6b c0 00	 imul	 rax, rax, 0
  01e87	48 8d 0d 00 00
	00 00		 lea	 rcx, OFFSET FLAT:$SG160796
  01e8e	8b 54 24 38	 mov	 edx, DWORD PTR num$[rsp]
  01e92	48 8b bc 24 b8
	01 00 00	 mov	 rdi, QWORD PTR iobuf$[rsp]
  01e9a	0f b6 04 01	 movzx	 eax, BYTE PTR [rcx+rax]
  01e9e	88 04 17	 mov	 BYTE PTR [rdi+rdx], al
  01ea1	8b 44 24 38	 mov	 eax, DWORD PTR num$[rsp]
  01ea5	ff c0		 inc	 eax
  01ea7	89 44 24 38	 mov	 DWORD PTR num$[rsp], eax

; 3690 :                     TTRlength += 2;

  01eab	8b 44 24 48	 mov	 eax, DWORD PTR TTRlength$[rsp]
  01eaf	83 c0 02	 add	 eax, 2
  01eb2	89 44 24 48	 mov	 DWORD PTR TTRlength$[rsp], eax
$LN145@tcpnje_exe:

; 3691 :                 }
; 3692 : 
; 3693 :                 if (count < TTRlength)

  01eb6	8b 44 24 48	 mov	 eax, DWORD PTR TTRlength$[rsp]
  01eba	39 84 24 a0 01
	00 00		 cmp	 DWORD PTR count$[rsp], eax
  01ec1	73 0b		 jae	 SHORT $LN149@tcpnje_exe

; 3694 :                 {
; 3695 :                     *more = 1;

  01ec3	48 8b 84 24 c0
	01 00 00	 mov	 rax, QWORD PTR more$[rsp]
  01ecb	c6 00 01	 mov	 BYTE PTR [rax], 1
$LN149@tcpnje_exe:

; 3696 :                 }
; 3697 : 
; 3698 :                 *residual = count - num;

  01ece	8b 44 24 38	 mov	 eax, DWORD PTR num$[rsp]
  01ed2	8b 8c 24 a0 01
	00 00		 mov	 ecx, DWORD PTR count$[rsp]
  01ed9	2b c8		 sub	 ecx, eax
  01edb	8b c1		 mov	 eax, ecx
  01edd	48 8b 8c 24 d0
	01 00 00	 mov	 rcx, QWORD PTR residual$[rsp]
  01ee5	89 01		 mov	 DWORD PTR [rcx], eax

; 3699 :                 *unitstat = CSW_CE | CSW_DE;

  01ee7	48 8b 84 24 c8
	01 00 00	 mov	 rax, QWORD PTR unitstat$[rsp]
  01eef	c6 00 0c	 mov	 BYTE PTR [rax], 12

; 3700 : 
; 3701 :                 logdump("Read  ", dev, iobuf, num);

  01ef2	8b 44 24 38	 mov	 eax, DWORD PTR num$[rsp]
  01ef6	44 8b c8	 mov	 r9d, eax
  01ef9	4c 8b 84 24 b8
	01 00 00	 mov	 r8, QWORD PTR iobuf$[rsp]
  01f01	48 8b 94 24 80
	01 00 00	 mov	 rdx, QWORD PTR dev$[rsp]
  01f09	48 8d 0d 00 00
	00 00		 lea	 rcx, OFFSET FLAT:$SG160798
  01f10	e8 00 00 00 00	 call	 logdump

; 3702 : 
; 3703 :                 /* Check for SYN NAK indicating the other end wants to be secondary */
; 3704 :                 if ((TTRlength == 2) && !memcmp(tpb->start, SYN NAK, 2))

  01f15	83 7c 24 48 02	 cmp	 DWORD PTR TTRlength$[rsp], 2
  01f1a	0f 85 b1 00 00
	00		 jne	 $LN150@tcpnje_exe
  01f20	48 8b 44 24 40	 mov	 rax, QWORD PTR tpb$[rsp]
  01f25	41 b8 02 00 00
	00		 mov	 r8d, 2
  01f2b	48 8d 15 00 00
	00 00		 lea	 rdx, OFFSET FLAT:$SG160800
  01f32	48 8b c8	 mov	 rcx, rax
  01f35	e8 00 00 00 00	 call	 memcmp
  01f3a	85 c0		 test	 eax, eax
  01f3c	0f 85 8f 00 00
	00		 jne	 $LN150@tcpnje_exe

; 3705 :                 {
; 3706 :                     tn->synnakreceived = 1;

  01f42	48 8b 44 24 30	 mov	 rax, QWORD PTR tn$[rsp]
  01f47	8b 80 64 01 00
	00		 mov	 eax, DWORD PTR [rax+356]
  01f4d	0f ba e8 0b	 bts	 eax, 11
  01f51	48 8b 4c 24 30	 mov	 rcx, QWORD PTR tn$[rsp]
  01f56	89 81 64 01 00
	00		 mov	 DWORD PTR [rcx+356], eax

; 3707 : 
; 3708 :                     DBGMSG(4096, "HHCTN169D %4.4X:TCPNJE READ - incoming SYN NAK - Connection state: %s\n",

  01f5c	48 8b 44 24 30	 mov	 rax, QWORD PTR tn$[rsp]
  01f61	48 8b 00	 mov	 rax, QWORD PTR [rax]
  01f64	8b 80 f8 05 00
	00		 mov	 eax, DWORD PTR [rax+1528]
  01f6a	c1 e8 0f	 shr	 eax, 15
  01f6d	83 e0 01	 and	 eax, 1
  01f70	85 c0		 test	 eax, eax
  01f72	74 14		 je	 SHORT $LN153@tcpnje_exe
  01f74	48 8b 44 24 30	 mov	 rax, QWORD PTR tn$[rsp]
  01f79	8b 80 4c 01 00
	00		 mov	 eax, DWORD PTR [rax+332]
  01f7f	25 00 10 00 00	 and	 eax, 4096		; 00001000H
  01f84	85 c0		 test	 eax, eax
  01f86	75 14		 jne	 SHORT $LN152@tcpnje_exe
$LN153@tcpnje_exe:
  01f88	48 8b 44 24 30	 mov	 rax, QWORD PTR tn$[rsp]
  01f8d	8b 80 50 01 00
	00		 mov	 eax, DWORD PTR [rax+336]
  01f93	25 00 10 00 00	 and	 eax, 4096		; 00001000H
  01f98	85 c0		 test	 eax, eax
  01f9a	74 30		 je	 SHORT $LN151@tcpnje_exe
$LN152@tcpnje_exe:
  01f9c	48 8b 44 24 30	 mov	 rax, QWORD PTR tn$[rsp]
  01fa1	48 63 80 54 01
	00 00		 movsxd	 rax, DWORD PTR [rax+340]
  01fa8	48 8d 0d 00 00
	00 00		 lea	 rcx, OFFSET FLAT:tcpnje_state_text
  01faf	48 8b 94 24 80
	01 00 00	 mov	 rdx, QWORD PTR dev$[rsp]
  01fb7	0f b7 52 48	 movzx	 edx, WORD PTR [rdx+72]
  01fbb	4c 8b 04 c1	 mov	 r8, QWORD PTR [rcx+rax*8]
  01fbf	48 8d 0d 00 00
	00 00		 lea	 rcx, OFFSET FLAT:$SG160804
  01fc6	ff 15 00 00 00
	00		 call	 QWORD PTR __imp_logmsg
$LN151@tcpnje_exe:

; 3709 :                            dev->devnum, tcpnje_state_text[tn->state]);
; 3710 : 
; 3711 :                     break;

  01fcc	e9 7e 1a 00 00	 jmp	 $LN14@tcpnje_exe
$LN150@tcpnje_exe:

; 3712 :                 }
; 3713 : 
; 3714 :                 /* Receipt of this buffer will serve as ACK for an outgoing buffer */
; 3715 :                 if (tn->ackcount > 0)

  01fd1	48 8b 44 24 30	 mov	 rax, QWORD PTR tn$[rsp]
  01fd6	83 b8 08 01 00
	00 00		 cmp	 DWORD PTR [rax+264], 0
  01fdd	7e 18		 jle	 SHORT $LN154@tcpnje_exe

; 3716 :                 {
; 3717 :                     tn->ackcount--;

  01fdf	48 8b 44 24 30	 mov	 rax, QWORD PTR tn$[rsp]
  01fe4	8b 80 08 01 00
	00		 mov	 eax, DWORD PTR [rax+264]
  01fea	ff c8		 dec	 eax
  01fec	48 8b 4c 24 30	 mov	 rcx, QWORD PTR tn$[rsp]
  01ff1	89 81 08 01 00
	00		 mov	 DWORD PTR [rcx+264], eax
$LN154@tcpnje_exe:

; 3718 :                 }
; 3719 : 
; 3720 :                 break;

  01ff7	e9 53 1a 00 00	 jmp	 $LN14@tcpnje_exe
$LN155@tcpnje_exe:

; 3721 : 
; 3722 :         /*---------------------------------------------------------------*/
; 3723 :         /* WRITE                                                         */
; 3724 :         /*---------------------------------------------------------------*/
; 3725 :         case 0x01:
; 3726 :                 DBGMSG(1024, "HHCTN156D %4.4X:TCPNJE CCW WRITE count %d\n",

  01ffc	48 8b 44 24 30	 mov	 rax, QWORD PTR tn$[rsp]
  02001	48 8b 00	 mov	 rax, QWORD PTR [rax]
  02004	8b 80 f8 05 00
	00		 mov	 eax, DWORD PTR [rax+1528]
  0200a	c1 e8 0f	 shr	 eax, 15
  0200d	83 e0 01	 and	 eax, 1
  02010	85 c0		 test	 eax, eax
  02012	74 14		 je	 SHORT $LN158@tcpnje_exe
  02014	48 8b 44 24 30	 mov	 rax, QWORD PTR tn$[rsp]
  02019	8b 80 4c 01 00
	00		 mov	 eax, DWORD PTR [rax+332]
  0201f	25 00 04 00 00	 and	 eax, 1024		; 00000400H
  02024	85 c0		 test	 eax, eax
  02026	75 14		 jne	 SHORT $LN157@tcpnje_exe
$LN158@tcpnje_exe:
  02028	48 8b 44 24 30	 mov	 rax, QWORD PTR tn$[rsp]
  0202d	8b 80 50 01 00
	00		 mov	 eax, DWORD PTR [rax+336]
  02033	25 00 04 00 00	 and	 eax, 1024		; 00000400H
  02038	85 c0		 test	 eax, eax
  0203a	74 23		 je	 SHORT $LN156@tcpnje_exe
$LN157@tcpnje_exe:
  0203c	48 8b 84 24 80
	01 00 00	 mov	 rax, QWORD PTR dev$[rsp]
  02044	0f b7 40 48	 movzx	 eax, WORD PTR [rax+72]
  02048	44 8b 84 24 a0
	01 00 00	 mov	 r8d, DWORD PTR count$[rsp]
  02050	8b d0		 mov	 edx, eax
  02052	48 8d 0d 00 00
	00 00		 lea	 rcx, OFFSET FLAT:$SG160810
  02059	ff 15 00 00 00
	00		 call	 QWORD PTR __imp_logmsg
$LN156@tcpnje_exe:

; 3727 :                         dev->devnum, count);
; 3728 : 
; 3729 :                 /* Write strategy is as follows:                         */
; 3730 :                 /*                                                       */
; 3731 :                 /* - Check FCS in buffer coming from RSCS and flag it    */
; 3732 :                 /*   if RSCS does not want incoming data for now.        */
; 3733 :                 /* - Drop outgoing null buffers, SYN SYN SYN SYN or      */
; 3734 :                 /*   DLE ETB sequences. Also drop DLE ACK0 if signed on. */
; 3735 :                 /* - If the data to be written doesn't fit in the output */
; 3736 :                 /*   buffer, send the buffer.                            */
; 3737 :                 /* - Put the data to be sent in the buffer.              */
; 3738 :                 /* - If the remaining space in the buffer is less than   */
; 3739 :                 /*   the size of a TPbuffer, send the buffer.            */
; 3740 :                 /* - If RSCS has gone idle, send the buffer.             */
; 3741 :                 /* - If a keepalive is due, send the (empty) buffer.     */
; 3742 : 
; 3743 :                 logdump("Write ", dev, iobuf, count);

  0205f	8b 84 24 a0 01
	00 00		 mov	 eax, DWORD PTR count$[rsp]
  02066	44 8b c8	 mov	 r9d, eax
  02069	4c 8b 84 24 b8
	01 00 00	 mov	 r8, QWORD PTR iobuf$[rsp]
  02071	48 8b 94 24 80
	01 00 00	 mov	 rdx, QWORD PTR dev$[rsp]
  02079	48 8d 0d 00 00
	00 00		 lea	 rcx, OFFSET FLAT:$SG160811
  02080	e8 00 00 00 00	 call	 logdump

; 3744 : 
; 3745 :                 /* Check if the line has been enabled */
; 3746 :                 if (!tn->enabled)

  02085	48 8b 44 24 30	 mov	 rax, QWORD PTR tn$[rsp]
  0208a	8b 80 64 01 00
	00		 mov	 eax, DWORD PTR [rax+356]
  02090	83 e0 01	 and	 eax, 1
  02093	85 c0		 test	 eax, eax
  02095	75 53		 jne	 SHORT $LN159@tcpnje_exe

; 3747 :                 {
; 3748 :                     *residual = count;

  02097	48 8b 84 24 d0
	01 00 00	 mov	 rax, QWORD PTR residual$[rsp]
  0209f	8b 8c 24 a0 01
	00 00		 mov	 ecx, DWORD PTR count$[rsp]
  020a6	89 08		 mov	 DWORD PTR [rax], ecx

; 3749 :                     *unitstat = CSW_CE | CSW_DE | CSW_UC;

  020a8	48 8b 84 24 c8
	01 00 00	 mov	 rax, QWORD PTR unitstat$[rsp]
  020b0	c6 00 0e	 mov	 BYTE PTR [rax], 14

; 3750 :                     dev->sense[0] = SENSE_CR;

  020b3	b8 01 00 00 00	 mov	 eax, 1
  020b8	48 6b c0 00	 imul	 rax, rax, 0
  020bc	48 8b 8c 24 80
	01 00 00	 mov	 rcx, QWORD PTR dev$[rsp]
  020c4	c6 84 01 64 03
	00 00 80	 mov	 BYTE PTR [rcx+rax+868], 128 ; 00000080H

; 3751 :                     dev->sense[1] = 0;

  020cc	b8 01 00 00 00	 mov	 eax, 1
  020d1	48 6b c0 01	 imul	 rax, rax, 1
  020d5	48 8b 8c 24 80
	01 00 00	 mov	 rcx, QWORD PTR dev$[rsp]
  020dd	c6 84 01 64 03
	00 00 00	 mov	 BYTE PTR [rcx+rax+868], 0

; 3752 :                     break;

  020e5	e9 65 19 00 00	 jmp	 $LN14@tcpnje_exe
$LN159@tcpnje_exe:

; 3753 :                 }
; 3754 : 
; 3755 : #if defined(TCPNJE_CDWMERGE_KLUDGE)
; 3756 :                 /* Check for a write of SYN SYN SYN SYN that channel.c has already appended
; 3757 :                    a chained write to, despite being told not to by dev->cdwmerge = 0.       */
; 3758 :                 if  ((count > 4) && !memcmp(iobuf, SYN SYN SYN SYN, 4))

  020ea	83 bc 24 a0 01
	00 00 04	 cmp	 DWORD PTR count$[rsp], 4
  020f2	0f 86 bf 00 00
	00		 jbe	 $LN160@tcpnje_exe
  020f8	41 b8 04 00 00
	00		 mov	 r8d, 4
  020fe	48 8d 15 00 00
	00 00		 lea	 rdx, OFFSET FLAT:$SG160814
  02105	48 8b 8c 24 b8
	01 00 00	 mov	 rcx, QWORD PTR iobuf$[rsp]
  0210d	e8 00 00 00 00	 call	 memcmp
  02112	85 c0		 test	 eax, eax
  02114	0f 85 9d 00 00
	00		 jne	 $LN160@tcpnje_exe

; 3759 :                 {
; 3760 :                     DBGMSG(4096, "HHCTN157D %4.4X:TCPNJE WRITE - kludge dropping outgoing SYN SYN SYN SYN. Connection state: %s\n",

  0211a	48 8b 44 24 30	 mov	 rax, QWORD PTR tn$[rsp]
  0211f	48 8b 00	 mov	 rax, QWORD PTR [rax]
  02122	8b 80 f8 05 00
	00		 mov	 eax, DWORD PTR [rax+1528]
  02128	c1 e8 0f	 shr	 eax, 15
  0212b	83 e0 01	 and	 eax, 1
  0212e	85 c0		 test	 eax, eax
  02130	74 14		 je	 SHORT $LN163@tcpnje_exe
  02132	48 8b 44 24 30	 mov	 rax, QWORD PTR tn$[rsp]
  02137	8b 80 4c 01 00
	00		 mov	 eax, DWORD PTR [rax+332]
  0213d	25 00 10 00 00	 and	 eax, 4096		; 00001000H
  02142	85 c0		 test	 eax, eax
  02144	75 14		 jne	 SHORT $LN162@tcpnje_exe
$LN163@tcpnje_exe:
  02146	48 8b 44 24 30	 mov	 rax, QWORD PTR tn$[rsp]
  0214b	8b 80 50 01 00
	00		 mov	 eax, DWORD PTR [rax+336]
  02151	25 00 10 00 00	 and	 eax, 4096		; 00001000H
  02156	85 c0		 test	 eax, eax
  02158	74 30		 je	 SHORT $LN161@tcpnje_exe
$LN162@tcpnje_exe:
  0215a	48 8b 44 24 30	 mov	 rax, QWORD PTR tn$[rsp]
  0215f	48 63 80 54 01
	00 00		 movsxd	 rax, DWORD PTR [rax+340]
  02166	48 8d 0d 00 00
	00 00		 lea	 rcx, OFFSET FLAT:tcpnje_state_text
  0216d	48 8b 94 24 80
	01 00 00	 mov	 rdx, QWORD PTR dev$[rsp]
  02175	0f b7 52 48	 movzx	 edx, WORD PTR [rdx+72]
  02179	4c 8b 04 c1	 mov	 r8, QWORD PTR [rcx+rax*8]
  0217d	48 8d 0d 00 00
	00 00		 lea	 rcx, OFFSET FLAT:$SG160818
  02184	ff 15 00 00 00
	00		 call	 QWORD PTR __imp_logmsg
$LN161@tcpnje_exe:

; 3761 :                             dev->devnum, tcpnje_state_text[tn->state]);
; 3762 : 
; 3763 :                     tpb = (struct TPB *)&iobuf[4];

  0218a	b8 01 00 00 00	 mov	 eax, 1
  0218f	48 6b c0 04	 imul	 rax, rax, 4
  02193	48 8b 8c 24 b8
	01 00 00	 mov	 rcx, QWORD PTR iobuf$[rsp]
  0219b	48 03 c8	 add	 rcx, rax
  0219e	48 8b c1	 mov	 rax, rcx
  021a1	48 89 44 24 40	 mov	 QWORD PTR tpb$[rsp], rax

; 3764 :                     count -= 4;

  021a6	8b 84 24 a0 01
	00 00		 mov	 eax, DWORD PTR count$[rsp]
  021ad	83 e8 04	 sub	 eax, 4
  021b0	89 84 24 a0 01
	00 00		 mov	 DWORD PTR count$[rsp], eax
$LN160@tcpnje_exe:

; 3765 :                 }
; 3766 : #endif /* TCPNJE_CDWMERGE_KLUDGE */
; 3767 : 
; 3768 :                 /* Perform various checks on outgoing buffers that contain BCB and FCS bytes */
; 3769 :                 if (count >= 6)

  021b7	83 bc 24 a0 01
	00 00 06	 cmp	 DWORD PTR count$[rsp], 6
  021bf	0f 82 3b 0b 00
	00		 jb	 $LN164@tcpnje_exe

; 3770 :                 {
; 3771 :                     /* Check FCS in case RSCS is trying to stop incoming data */
; 3772 :                     /* 8FCF => all is good.  Anything else => bad.            */
; 3773 :                     if ((tpb->fcs[0] == 0x8f) && (tpb->fcs[1] == 0xcf))

  021c5	b8 01 00 00 00	 mov	 eax, 1
  021ca	48 6b c0 00	 imul	 rax, rax, 0
  021ce	48 8b 4c 24 40	 mov	 rcx, QWORD PTR tpb$[rsp]
  021d3	0f b6 44 01 03	 movzx	 eax, BYTE PTR [rcx+rax+3]
  021d8	3d 8f 00 00 00	 cmp	 eax, 143		; 0000008fH
  021dd	0f 85 db 00 00
	00		 jne	 $LN165@tcpnje_exe
  021e3	b8 01 00 00 00	 mov	 eax, 1
  021e8	48 6b c0 01	 imul	 rax, rax, 1
  021ec	48 8b 4c 24 40	 mov	 rcx, QWORD PTR tpb$[rsp]
  021f1	0f b6 44 01 03	 movzx	 eax, BYTE PTR [rcx+rax+3]
  021f6	3d cf 00 00 00	 cmp	 eax, 207		; 000000cfH
  021fb	0f 85 bd 00 00
	00		 jne	 $LN165@tcpnje_exe

; 3774 :                     {
; 3775 :                         if (tn->holdincoming)

  02201	48 8b 44 24 30	 mov	 rax, QWORD PTR tn$[rsp]
  02206	8b 80 64 01 00
	00		 mov	 eax, DWORD PTR [rax+356]
  0220c	c1 e8 08	 shr	 eax, 8
  0220f	83 e0 01	 and	 eax, 1
  02212	85 c0		 test	 eax, eax
  02214	0f 84 85 00 00
	00		 je	 $LN167@tcpnje_exe

; 3776 :                         {
; 3777 :                             DBGMSG(2048, "HHCTN158D %4.4X:TCPNJE WRITE - Resuming incoming data due to outgoing FCS %2.2X%2.2X\n",

  0221a	48 8b 44 24 30	 mov	 rax, QWORD PTR tn$[rsp]
  0221f	48 8b 00	 mov	 rax, QWORD PTR [rax]
  02222	8b 80 f8 05 00
	00		 mov	 eax, DWORD PTR [rax+1528]
  02228	c1 e8 0f	 shr	 eax, 15
  0222b	83 e0 01	 and	 eax, 1
  0222e	85 c0		 test	 eax, eax
  02230	74 14		 je	 SHORT $LN170@tcpnje_exe
  02232	48 8b 44 24 30	 mov	 rax, QWORD PTR tn$[rsp]
  02237	8b 80 4c 01 00
	00		 mov	 eax, DWORD PTR [rax+332]
  0223d	25 00 08 00 00	 and	 eax, 2048		; 00000800H
  02242	85 c0		 test	 eax, eax
  02244	75 14		 jne	 SHORT $LN169@tcpnje_exe
$LN170@tcpnje_exe:
  02246	48 8b 44 24 30	 mov	 rax, QWORD PTR tn$[rsp]
  0224b	8b 80 50 01 00
	00		 mov	 eax, DWORD PTR [rax+336]
  02251	25 00 08 00 00	 and	 eax, 2048		; 00000800H
  02256	85 c0		 test	 eax, eax
  02258	74 45		 je	 SHORT $LN168@tcpnje_exe
$LN169@tcpnje_exe:
  0225a	b8 01 00 00 00	 mov	 eax, 1
  0225f	48 6b c0 01	 imul	 rax, rax, 1
  02263	48 8b 4c 24 40	 mov	 rcx, QWORD PTR tpb$[rsp]
  02268	0f b6 44 01 03	 movzx	 eax, BYTE PTR [rcx+rax+3]
  0226d	b9 01 00 00 00	 mov	 ecx, 1
  02272	48 6b c9 00	 imul	 rcx, rcx, 0
  02276	48 8b 54 24 40	 mov	 rdx, QWORD PTR tpb$[rsp]
  0227b	0f b6 4c 0a 03	 movzx	 ecx, BYTE PTR [rdx+rcx+3]
  02280	48 8b 94 24 80
	01 00 00	 mov	 rdx, QWORD PTR dev$[rsp]
  02288	0f b7 52 48	 movzx	 edx, WORD PTR [rdx+72]
  0228c	44 8b c8	 mov	 r9d, eax
  0228f	44 8b c1	 mov	 r8d, ecx
  02292	48 8d 0d 00 00
	00 00		 lea	 rcx, OFFSET FLAT:$SG160826
  02299	ff 15 00 00 00
	00		 call	 QWORD PTR __imp_logmsg
$LN168@tcpnje_exe:
$LN167@tcpnje_exe:

; 3778 :                                     dev->devnum, tpb->fcs[0], tpb->fcs[1]);
; 3779 :                         }
; 3780 :                         tn->holdincoming = 0;

  0229f	48 8b 44 24 30	 mov	 rax, QWORD PTR tn$[rsp]
  022a4	8b 80 64 01 00
	00		 mov	 eax, DWORD PTR [rax+356]
  022aa	0f ba f0 08	 btr	 eax, 8
  022ae	48 8b 4c 24 30	 mov	 rcx, QWORD PTR tn$[rsp]
  022b3	89 81 64 01 00
	00		 mov	 DWORD PTR [rcx+356], eax

; 3781 :                     }

  022b9	e9 b8 00 00 00	 jmp	 $LN166@tcpnje_exe
$LN165@tcpnje_exe:

; 3782 :                     else
; 3783 :                     {
; 3784 :                         if (!tn->holdincoming)

  022be	48 8b 44 24 30	 mov	 rax, QWORD PTR tn$[rsp]
  022c3	8b 80 64 01 00
	00		 mov	 eax, DWORD PTR [rax+356]
  022c9	c1 e8 08	 shr	 eax, 8
  022cc	83 e0 01	 and	 eax, 1
  022cf	85 c0		 test	 eax, eax
  022d1	0f 85 85 00 00
	00		 jne	 $LN171@tcpnje_exe

; 3785 :                         {
; 3786 :                             DBGMSG(2048, "HHCTN159D %4.4X:TCPNJE WRITE - Holding incoming data due to outgoing FCS %2.2X%2.2X\n",

  022d7	48 8b 44 24 30	 mov	 rax, QWORD PTR tn$[rsp]
  022dc	48 8b 00	 mov	 rax, QWORD PTR [rax]
  022df	8b 80 f8 05 00
	00		 mov	 eax, DWORD PTR [rax+1528]
  022e5	c1 e8 0f	 shr	 eax, 15
  022e8	83 e0 01	 and	 eax, 1
  022eb	85 c0		 test	 eax, eax
  022ed	74 14		 je	 SHORT $LN174@tcpnje_exe
  022ef	48 8b 44 24 30	 mov	 rax, QWORD PTR tn$[rsp]
  022f4	8b 80 4c 01 00
	00		 mov	 eax, DWORD PTR [rax+332]
  022fa	25 00 08 00 00	 and	 eax, 2048		; 00000800H
  022ff	85 c0		 test	 eax, eax
  02301	75 14		 jne	 SHORT $LN173@tcpnje_exe
$LN174@tcpnje_exe:
  02303	48 8b 44 24 30	 mov	 rax, QWORD PTR tn$[rsp]
  02308	8b 80 50 01 00
	00		 mov	 eax, DWORD PTR [rax+336]
  0230e	25 00 08 00 00	 and	 eax, 2048		; 00000800H
  02313	85 c0		 test	 eax, eax
  02315	74 45		 je	 SHORT $LN172@tcpnje_exe
$LN173@tcpnje_exe:
  02317	b8 01 00 00 00	 mov	 eax, 1
  0231c	48 6b c0 01	 imul	 rax, rax, 1
  02320	48 8b 4c 24 40	 mov	 rcx, QWORD PTR tpb$[rsp]
  02325	0f b6 44 01 03	 movzx	 eax, BYTE PTR [rcx+rax+3]
  0232a	b9 01 00 00 00	 mov	 ecx, 1
  0232f	48 6b c9 00	 imul	 rcx, rcx, 0
  02333	48 8b 54 24 40	 mov	 rdx, QWORD PTR tpb$[rsp]
  02338	0f b6 4c 0a 03	 movzx	 ecx, BYTE PTR [rdx+rcx+3]
  0233d	48 8b 94 24 80
	01 00 00	 mov	 rdx, QWORD PTR dev$[rsp]
  02345	0f b7 52 48	 movzx	 edx, WORD PTR [rdx+72]
  02349	44 8b c8	 mov	 r9d, eax
  0234c	44 8b c1	 mov	 r8d, ecx
  0234f	48 8d 0d 00 00
	00 00		 lea	 rcx, OFFSET FLAT:$SG160831
  02356	ff 15 00 00 00
	00		 call	 QWORD PTR __imp_logmsg
$LN172@tcpnje_exe:
$LN171@tcpnje_exe:

; 3787 :                                     dev->devnum, tpb->fcs[0], tpb->fcs[1]);
; 3788 :                         }
; 3789 :                         tn->holdincoming = 1;

  0235c	48 8b 44 24 30	 mov	 rax, QWORD PTR tn$[rsp]
  02361	8b 80 64 01 00
	00		 mov	 eax, DWORD PTR [rax+356]
  02367	0f ba e8 08	 bts	 eax, 8
  0236b	48 8b 4c 24 30	 mov	 rcx, QWORD PTR tn$[rsp]
  02370	89 81 64 01 00
	00		 mov	 DWORD PTR [rcx+356], eax
$LN166@tcpnje_exe:

; 3790 :                     }
; 3791 :                     /* Is the wait-a-bit bit set? */
; 3792 :                     if (tpb->fcs[0] & 0x40)

  02376	b8 01 00 00 00	 mov	 eax, 1
  0237b	48 6b c0 00	 imul	 rax, rax, 0
  0237f	48 8b 4c 24 40	 mov	 rcx, QWORD PTR tpb$[rsp]
  02384	0f b6 44 01 03	 movzx	 eax, BYTE PTR [rcx+rax+3]
  02389	83 e0 40	 and	 eax, 64			; 00000040H
  0238c	85 c0		 test	 eax, eax
  0238e	0f 84 9f 00 00
	00		 je	 $LN175@tcpnje_exe

; 3793 :                     {
; 3794 :                         tn->waitabit = 1;

  02394	48 8b 44 24 30	 mov	 rax, QWORD PTR tn$[rsp]
  02399	8b 80 64 01 00
	00		 mov	 eax, DWORD PTR [rax+356]
  0239f	0f ba e8 07	 bts	 eax, 7
  023a3	48 8b 4c 24 30	 mov	 rcx, QWORD PTR tn$[rsp]
  023a8	89 81 64 01 00
	00		 mov	 DWORD PTR [rcx+356], eax

; 3795 : 
; 3796 :                         DBGMSG(2048, "HHCTN160D %4.4X:TCPNJE WRITE - RSCS sent FCS %2.2X%2.2X with wait-a-bit bit set\n",

  023ae	48 8b 44 24 30	 mov	 rax, QWORD PTR tn$[rsp]
  023b3	48 8b 00	 mov	 rax, QWORD PTR [rax]
  023b6	8b 80 f8 05 00
	00		 mov	 eax, DWORD PTR [rax+1528]
  023bc	c1 e8 0f	 shr	 eax, 15
  023bf	83 e0 01	 and	 eax, 1
  023c2	85 c0		 test	 eax, eax
  023c4	74 14		 je	 SHORT $LN178@tcpnje_exe
  023c6	48 8b 44 24 30	 mov	 rax, QWORD PTR tn$[rsp]
  023cb	8b 80 4c 01 00
	00		 mov	 eax, DWORD PTR [rax+332]
  023d1	25 00 08 00 00	 and	 eax, 2048		; 00000800H
  023d6	85 c0		 test	 eax, eax
  023d8	75 14		 jne	 SHORT $LN177@tcpnje_exe
$LN178@tcpnje_exe:
  023da	48 8b 44 24 30	 mov	 rax, QWORD PTR tn$[rsp]
  023df	8b 80 50 01 00
	00		 mov	 eax, DWORD PTR [rax+336]
  023e5	25 00 08 00 00	 and	 eax, 2048		; 00000800H
  023ea	85 c0		 test	 eax, eax
  023ec	74 45		 je	 SHORT $LN176@tcpnje_exe
$LN177@tcpnje_exe:
  023ee	b8 01 00 00 00	 mov	 eax, 1
  023f3	48 6b c0 01	 imul	 rax, rax, 1
  023f7	48 8b 4c 24 40	 mov	 rcx, QWORD PTR tpb$[rsp]
  023fc	0f b6 44 01 03	 movzx	 eax, BYTE PTR [rcx+rax+3]
  02401	b9 01 00 00 00	 mov	 ecx, 1
  02406	48 6b c9 00	 imul	 rcx, rcx, 0
  0240a	48 8b 54 24 40	 mov	 rdx, QWORD PTR tpb$[rsp]
  0240f	0f b6 4c 0a 03	 movzx	 ecx, BYTE PTR [rdx+rcx+3]
  02414	48 8b 94 24 80
	01 00 00	 mov	 rdx, QWORD PTR dev$[rsp]
  0241c	0f b7 52 48	 movzx	 edx, WORD PTR [rdx+72]
  02420	44 8b c8	 mov	 r9d, eax
  02423	44 8b c1	 mov	 r8d, ecx
  02426	48 8d 0d 00 00
	00 00		 lea	 rcx, OFFSET FLAT:$SG160836
  0242d	ff 15 00 00 00
	00		 call	 QWORD PTR __imp_logmsg
$LN176@tcpnje_exe:
$LN175@tcpnje_exe:

; 3797 :                                 dev->devnum, tpb->fcs[0], tpb->fcs[1]);
; 3798 : 
; 3799 : #if 0
; 3800 :                         /* Ask the worker thread to wait a few seconds */
; 3801 :                         /* Holding up the write while we wait probably */
; 3802 :                         /* does not help RSCS to deal with incoming    */
; 3803 :                         /* data but it'll do until I think of          */
; 3804 :                         /* something better to do.                     */
; 3805 :                         tn->curpending = TCPNJE_PEND_WAIT;
; 3806 : 
; 3807 :                         /* Wake-up the worker thread */
; 3808 :                         tcpnje_wakeup_and_wait(tn, 0);
; 3809 : 
; 3810 :                         tn->waitabit = 0;
; 3811 : #endif
; 3812 :                     }
; 3813 :                     /* If this is a null buffer, no need to send it to the other end */
; 3814 :                     if (count == 6)

  02433	83 bc 24 a0 01
	00 00 06	 cmp	 DWORD PTR count$[rsp], 6
  0243b	0f 85 d6 00 00
	00		 jne	 $LN179@tcpnje_exe

; 3815 :                     {
; 3816 :                         DBGMSG(2048, "HHCTN161D %4.4X:TCPNJE WRITE - Dropping outgoing null buffer BCB: %2.2X FCS: %2.2X%2.2X\n",

  02441	48 8b 44 24 30	 mov	 rax, QWORD PTR tn$[rsp]
  02446	48 8b 00	 mov	 rax, QWORD PTR [rax]
  02449	8b 80 f8 05 00
	00		 mov	 eax, DWORD PTR [rax+1528]
  0244f	c1 e8 0f	 shr	 eax, 15
  02452	83 e0 01	 and	 eax, 1
  02455	85 c0		 test	 eax, eax
  02457	74 14		 je	 SHORT $LN182@tcpnje_exe
  02459	48 8b 44 24 30	 mov	 rax, QWORD PTR tn$[rsp]
  0245e	8b 80 4c 01 00
	00		 mov	 eax, DWORD PTR [rax+332]
  02464	25 00 08 00 00	 and	 eax, 2048		; 00000800H
  02469	85 c0		 test	 eax, eax
  0246b	75 14		 jne	 SHORT $LN181@tcpnje_exe
$LN182@tcpnje_exe:
  0246d	48 8b 44 24 30	 mov	 rax, QWORD PTR tn$[rsp]
  02472	8b 80 50 01 00
	00		 mov	 eax, DWORD PTR [rax+336]
  02478	25 00 08 00 00	 and	 eax, 2048		; 00000800H
  0247d	85 c0		 test	 eax, eax
  0247f	74 54		 je	 SHORT $LN180@tcpnje_exe
$LN181@tcpnje_exe:
  02481	b8 01 00 00 00	 mov	 eax, 1
  02486	48 6b c0 01	 imul	 rax, rax, 1
  0248a	48 8b 4c 24 40	 mov	 rcx, QWORD PTR tpb$[rsp]
  0248f	0f b6 44 01 03	 movzx	 eax, BYTE PTR [rcx+rax+3]
  02494	b9 01 00 00 00	 mov	 ecx, 1
  02499	48 6b c9 00	 imul	 rcx, rcx, 0
  0249d	48 8b 54 24 40	 mov	 rdx, QWORD PTR tpb$[rsp]
  024a2	0f b6 4c 0a 03	 movzx	 ecx, BYTE PTR [rdx+rcx+3]
  024a7	48 8b 54 24 40	 mov	 rdx, QWORD PTR tpb$[rsp]
  024ac	0f b6 52 02	 movzx	 edx, BYTE PTR [rdx+2]
  024b0	48 8b bc 24 80
	01 00 00	 mov	 rdi, QWORD PTR dev$[rsp]
  024b8	0f b7 7f 48	 movzx	 edi, WORD PTR [rdi+72]
  024bc	89 44 24 20	 mov	 DWORD PTR [rsp+32], eax
  024c0	44 8b c9	 mov	 r9d, ecx
  024c3	44 8b c2	 mov	 r8d, edx
  024c6	8b d7		 mov	 edx, edi
  024c8	48 8d 0d 00 00
	00 00		 lea	 rcx, OFFSET FLAT:$SG160841
  024cf	ff 15 00 00 00
	00		 call	 QWORD PTR __imp_logmsg
$LN180@tcpnje_exe:

; 3817 :                                 dev->devnum, tpb->bcb, tpb->fcs[0], tpb->fcs[1]);
; 3818 : 
; 3819 :                         *residual = 0;

  024d5	48 8b 84 24 d0
	01 00 00	 mov	 rax, QWORD PTR residual$[rsp]
  024dd	c7 00 00 00 00
	00		 mov	 DWORD PTR [rax], 0

; 3820 :                         *unitstat = CSW_CE | CSW_DE;

  024e3	48 8b 84 24 c8
	01 00 00	 mov	 rax, QWORD PTR unitstat$[rsp]
  024eb	c6 00 0c	 mov	 BYTE PTR [rax], 12

; 3821 :                         /* Flag that the next outgoing BCB will not be what the other end expects    */
; 3822 :                         tn->resetoutbcb = 1;

  024ee	48 8b 44 24 30	 mov	 rax, QWORD PTR tn$[rsp]
  024f3	8b 80 64 01 00
	00		 mov	 eax, DWORD PTR [rax+356]
  024f9	0f ba e8 0a	 bts	 eax, 10
  024fd	48 8b 4c 24 30	 mov	 rcx, QWORD PTR tn$[rsp]
  02502	89 81 64 01 00
	00		 mov	 DWORD PTR [rcx+356], eax

; 3823 : 
; 3824 :                         /* RSCS has no real data to send out if it sent a null buffer.  In order to  */
; 3825 :                         /* avoid causing delays, we should send the accumulated output buffer out    */
; 3826 :                         /* now instead of waiting around until RSCS has something else to send out.  */
; 3827 :                         tcpnje_flush(tn);

  02508	48 8b 4c 24 30	 mov	 rcx, QWORD PTR tn$[rsp]
  0250d	e8 00 00 00 00	 call	 tcpnje_flush

; 3828 :                         break;

  02512	e9 38 15 00 00	 jmp	 $LN14@tcpnje_exe
$LN179@tcpnje_exe:

; 3829 :                     }
; 3830 :                     /* If we have already dropped something containing a BCB, reset the BCB this time */
; 3831 :                     if (tn->resetoutbcb)

  02517	48 8b 44 24 30	 mov	 rax, QWORD PTR tn$[rsp]
  0251c	8b 80 64 01 00
	00		 mov	 eax, DWORD PTR [rax+356]
  02522	c1 e8 0a	 shr	 eax, 10
  02525	83 e0 01	 and	 eax, 1
  02528	85 c0		 test	 eax, eax
  0252a	0f 84 32 01 00
	00		 je	 $LN183@tcpnje_exe

; 3832 :                     {
; 3833 :                         /* I am not very clear on how this works.  It appears that setting the reset */
; 3834 :                         /* flag in this BCB causes this BCB to not be flagged as in error if not in  */
; 3835 :                         /* sequence with the last one received and also causes this BCB to be become */
; 3836 :                         /* the BCB that RSCS expects to find in the next buffer it receives.         */
; 3837 :                         /* Anyway, if I set the reset flag and make the BCB count the same as the    */
; 3838 :                         /* last one received plus one, RSCS seems to be relatively happy.  If the    */
; 3839 :                         /* reset bit is already set by the time it gets here, all bets are off.  If  */
; 3840 :                         /* the ignore bit is set, it's probably not a problem (yet).                 */
; 3841 :                         if (tpb->bcb & 0x30)

  02530	48 8b 44 24 40	 mov	 rax, QWORD PTR tpb$[rsp]
  02535	0f b6 40 02	 movzx	 eax, BYTE PTR [rax+2]
  02539	83 e0 30	 and	 eax, 48			; 00000030H
  0253c	85 c0		 test	 eax, eax
  0253e	74 78		 je	 SHORT $LN184@tcpnje_exe

; 3842 :                         {
; 3843 :                             if (tpb->bcb & 0x20)

  02540	48 8b 44 24 40	 mov	 rax, QWORD PTR tpb$[rsp]
  02545	0f b6 40 02	 movzx	 eax, BYTE PTR [rax+2]
  02549	83 e0 20	 and	 eax, 32			; 00000020H
  0254c	85 c0		 test	 eax, eax
  0254e	74 63		 je	 SHORT $LN186@tcpnje_exe

; 3844 :                             {
; 3845 :                                 DBGMSG(16, "HHCTN086W %4.4X:TCPNJE WRITE - Received BCB with reset bit set from RSCS: %2.2X\n",

  02550	48 8b 44 24 30	 mov	 rax, QWORD PTR tn$[rsp]
  02555	48 8b 00	 mov	 rax, QWORD PTR [rax]
  02558	8b 80 f8 05 00
	00		 mov	 eax, DWORD PTR [rax+1528]
  0255e	c1 e8 0f	 shr	 eax, 15
  02561	83 e0 01	 and	 eax, 1
  02564	85 c0		 test	 eax, eax
  02566	74 12		 je	 SHORT $LN189@tcpnje_exe
  02568	48 8b 44 24 30	 mov	 rax, QWORD PTR tn$[rsp]
  0256d	8b 80 4c 01 00
	00		 mov	 eax, DWORD PTR [rax+332]
  02573	83 e0 10	 and	 eax, 16
  02576	85 c0		 test	 eax, eax
  02578	75 12		 jne	 SHORT $LN188@tcpnje_exe
$LN189@tcpnje_exe:
  0257a	48 8b 44 24 30	 mov	 rax, QWORD PTR tn$[rsp]
  0257f	8b 80 50 01 00
	00		 mov	 eax, DWORD PTR [rax+336]
  02585	83 e0 10	 and	 eax, 16
  02588	85 c0		 test	 eax, eax
  0258a	74 27		 je	 SHORT $LN187@tcpnje_exe
$LN188@tcpnje_exe:
  0258c	48 8b 44 24 40	 mov	 rax, QWORD PTR tpb$[rsp]
  02591	0f b6 40 02	 movzx	 eax, BYTE PTR [rax+2]
  02595	48 8b 8c 24 80
	01 00 00	 mov	 rcx, QWORD PTR dev$[rsp]
  0259d	0f b7 49 48	 movzx	 ecx, WORD PTR [rcx+72]
  025a1	44 8b c0	 mov	 r8d, eax
  025a4	8b d1		 mov	 edx, ecx
  025a6	48 8d 0d 00 00
	00 00		 lea	 rcx, OFFSET FLAT:$SG160849
  025ad	ff 15 00 00 00
	00		 call	 QWORD PTR __imp_logmsg
$LN187@tcpnje_exe:
$LN186@tcpnje_exe:

; 3846 :                                         dev->devnum, tpb->bcb);
; 3847 :                             }
; 3848 :                         }

  025b3	e9 90 00 00 00	 jmp	 $LN185@tcpnje_exe
$LN184@tcpnje_exe:

; 3849 :                         else
; 3850 :                         {
; 3851 :                             tpb->bcb = (tpb->bcb & 0xf0) | 0x20 | ((tpb->bcb + 1) & 0x0f);

  025b8	48 8b 44 24 40	 mov	 rax, QWORD PTR tpb$[rsp]
  025bd	0f b6 40 02	 movzx	 eax, BYTE PTR [rax+2]
  025c1	25 f0 00 00 00	 and	 eax, 240		; 000000f0H
  025c6	83 c8 20	 or	 eax, 32			; 00000020H
  025c9	48 8b 4c 24 40	 mov	 rcx, QWORD PTR tpb$[rsp]
  025ce	0f b6 49 02	 movzx	 ecx, BYTE PTR [rcx+2]
  025d2	ff c1		 inc	 ecx
  025d4	83 e1 0f	 and	 ecx, 15
  025d7	0b c1		 or	 eax, ecx
  025d9	48 8b 4c 24 40	 mov	 rcx, QWORD PTR tpb$[rsp]
  025de	88 41 02	 mov	 BYTE PTR [rcx+2], al

; 3852 : 
; 3853 :                             DBGMSG(2048, "HHCTN162D %4.4X:TCPNJE WRITE - Resetting outgoing BCB to %2.2X\n",

  025e1	48 8b 44 24 30	 mov	 rax, QWORD PTR tn$[rsp]
  025e6	48 8b 00	 mov	 rax, QWORD PTR [rax]
  025e9	8b 80 f8 05 00
	00		 mov	 eax, DWORD PTR [rax+1528]
  025ef	c1 e8 0f	 shr	 eax, 15
  025f2	83 e0 01	 and	 eax, 1
  025f5	85 c0		 test	 eax, eax
  025f7	74 14		 je	 SHORT $LN192@tcpnje_exe
  025f9	48 8b 44 24 30	 mov	 rax, QWORD PTR tn$[rsp]
  025fe	8b 80 4c 01 00
	00		 mov	 eax, DWORD PTR [rax+332]
  02604	25 00 08 00 00	 and	 eax, 2048		; 00000800H
  02609	85 c0		 test	 eax, eax
  0260b	75 14		 jne	 SHORT $LN191@tcpnje_exe
$LN192@tcpnje_exe:
  0260d	48 8b 44 24 30	 mov	 rax, QWORD PTR tn$[rsp]
  02612	8b 80 50 01 00
	00		 mov	 eax, DWORD PTR [rax+336]
  02618	25 00 08 00 00	 and	 eax, 2048		; 00000800H
  0261d	85 c0		 test	 eax, eax
  0261f	74 27		 je	 SHORT $LN190@tcpnje_exe
$LN191@tcpnje_exe:
  02621	48 8b 44 24 40	 mov	 rax, QWORD PTR tpb$[rsp]
  02626	0f b6 40 02	 movzx	 eax, BYTE PTR [rax+2]
  0262a	48 8b 8c 24 80
	01 00 00	 mov	 rcx, QWORD PTR dev$[rsp]
  02632	0f b7 49 48	 movzx	 ecx, WORD PTR [rcx+72]
  02636	44 8b c0	 mov	 r8d, eax
  02639	8b d1		 mov	 edx, ecx
  0263b	48 8d 0d 00 00
	00 00		 lea	 rcx, OFFSET FLAT:$SG160853
  02642	ff 15 00 00 00
	00		 call	 QWORD PTR __imp_logmsg
$LN190@tcpnje_exe:
$LN185@tcpnje_exe:

; 3854 :                                     dev->devnum, tpb->bcb);
; 3855 :                         }
; 3856 :                         tn->resetoutbcb = 0;

  02648	48 8b 44 24 30	 mov	 rax, QWORD PTR tn$[rsp]
  0264d	8b 80 64 01 00
	00		 mov	 eax, DWORD PTR [rax+356]
  02653	0f ba f0 0a	 btr	 eax, 10
  02657	48 8b 4c 24 30	 mov	 rcx, QWORD PTR tn$[rsp]
  0265c	89 81 64 01 00
	00		 mov	 DWORD PTR [rcx+356], eax
$LN183@tcpnje_exe:

; 3857 :                     }
; 3858 :                     /* Also check for "permssion to open stream" response  */
; 3859 :                     /* going out and suppress it if FASTOPEN flag was used */
; 3860 :                     /* on the "open stream" request.  This falls short of  */
; 3861 :                     /* the full response called for but it is better than  */
; 3862 :                     /* doing nothing at all.                               */
; 3863 :                     if ((count >= 7) && (tpb->rcb == 0xa0) && (tn->fastopen == tpb->srcb))

  02662	83 bc 24 a0 01
	00 00 07	 cmp	 DWORD PTR count$[rsp], 7
  0266a	0f 82 df 00 00
	00		 jb	 $LN193@tcpnje_exe
  02670	48 8b 44 24 40	 mov	 rax, QWORD PTR tpb$[rsp]
  02675	0f b6 40 05	 movzx	 eax, BYTE PTR [rax+5]
  02679	3d a0 00 00 00	 cmp	 eax, 160		; 000000a0H
  0267e	0f 85 cb 00 00
	00		 jne	 $LN193@tcpnje_exe
  02684	48 8b 44 24 30	 mov	 rax, QWORD PTR tn$[rsp]
  02689	0f b6 80 61 01
	00 00		 movzx	 eax, BYTE PTR [rax+353]
  02690	48 8b 4c 24 40	 mov	 rcx, QWORD PTR tpb$[rsp]
  02695	0f b6 49 06	 movzx	 ecx, BYTE PTR [rcx+6]
  02699	3b c1		 cmp	 eax, ecx
  0269b	0f 85 ae 00 00
	00		 jne	 $LN193@tcpnje_exe

; 3864 :                     {
; 3865 :                         DBGMSG(2048, "HHCTN087I %4.4X:TCPNJE WRITE - Permission to open stream %2.2X suppressed due to preceeding FASTOPEN\n",

  026a1	48 8b 44 24 30	 mov	 rax, QWORD PTR tn$[rsp]
  026a6	48 8b 00	 mov	 rax, QWORD PTR [rax]
  026a9	8b 80 f8 05 00
	00		 mov	 eax, DWORD PTR [rax+1528]
  026af	c1 e8 0f	 shr	 eax, 15
  026b2	83 e0 01	 and	 eax, 1
  026b5	85 c0		 test	 eax, eax
  026b7	74 14		 je	 SHORT $LN196@tcpnje_exe
  026b9	48 8b 44 24 30	 mov	 rax, QWORD PTR tn$[rsp]
  026be	8b 80 4c 01 00
	00		 mov	 eax, DWORD PTR [rax+332]
  026c4	25 00 08 00 00	 and	 eax, 2048		; 00000800H
  026c9	85 c0		 test	 eax, eax
  026cb	75 14		 jne	 SHORT $LN195@tcpnje_exe
$LN196@tcpnje_exe:
  026cd	48 8b 44 24 30	 mov	 rax, QWORD PTR tn$[rsp]
  026d2	8b 80 50 01 00
	00		 mov	 eax, DWORD PTR [rax+336]
  026d8	25 00 08 00 00	 and	 eax, 2048		; 00000800H
  026dd	85 c0		 test	 eax, eax
  026df	74 2a		 je	 SHORT $LN194@tcpnje_exe
$LN195@tcpnje_exe:
  026e1	48 8b 44 24 30	 mov	 rax, QWORD PTR tn$[rsp]
  026e6	0f b6 80 61 01
	00 00		 movzx	 eax, BYTE PTR [rax+353]
  026ed	48 8b 8c 24 80
	01 00 00	 mov	 rcx, QWORD PTR dev$[rsp]
  026f5	0f b7 49 48	 movzx	 ecx, WORD PTR [rcx+72]
  026f9	44 8b c0	 mov	 r8d, eax
  026fc	8b d1		 mov	 edx, ecx
  026fe	48 8d 0d 00 00
	00 00		 lea	 rcx, OFFSET FLAT:$SG160858
  02705	ff 15 00 00 00
	00		 call	 QWORD PTR __imp_logmsg
$LN194@tcpnje_exe:

; 3866 :                                 dev->devnum, tn->fastopen);
; 3867 :                         tn->fastopen = 0;

  0270b	48 8b 44 24 30	 mov	 rax, QWORD PTR tn$[rsp]
  02710	c6 80 61 01 00
	00 00		 mov	 BYTE PTR [rax+353], 0

; 3868 :                         tn->resetoutbcb = 1;

  02717	48 8b 44 24 30	 mov	 rax, QWORD PTR tn$[rsp]
  0271c	8b 80 64 01 00
	00		 mov	 eax, DWORD PTR [rax+356]
  02722	0f ba e8 0a	 bts	 eax, 10
  02726	48 8b 4c 24 30	 mov	 rcx, QWORD PTR tn$[rsp]
  0272b	89 81 64 01 00
	00		 mov	 DWORD PTR [rcx+356], eax

; 3869 :                         *residual = 0;

  02731	48 8b 84 24 d0
	01 00 00	 mov	 rax, QWORD PTR residual$[rsp]
  02739	c7 00 00 00 00
	00		 mov	 DWORD PTR [rax], 0

; 3870 :                         *unitstat = CSW_CE | CSW_DE;

  0273f	48 8b 84 24 c8
	01 00 00	 mov	 rax, QWORD PTR unitstat$[rsp]
  02747	c6 00 0c	 mov	 BYTE PTR [rax], 12

; 3871 :                         break;

  0274a	e9 00 13 00 00	 jmp	 $LN14@tcpnje_exe
$LN193@tcpnje_exe:

; 3872 :                     }
; 3873 :                     /* Are we sending an outgoing NCC I initial signon     */
; 3874 :                     /* record? Did RSCS request the PREPARE feature?       */
; 3875 :                     /* If so, reset it as we are not currently able to     */
; 3876 :                     /* provide this feature.                               */
; 3877 : 
; 3878 :                     if ((tpb->rcb == 0xf0) && (tpb->srcb == 0xc9) &&

  0274f	48 8b 44 24 40	 mov	 rax, QWORD PTR tpb$[rsp]
  02754	0f b6 40 05	 movzx	 eax, BYTE PTR [rax+5]
  02758	3d f0 00 00 00	 cmp	 eax, 240		; 000000f0H
  0275d	0f 85 b3 02 00
	00		 jne	 $LN197@tcpnje_exe
  02763	48 8b 44 24 40	 mov	 rax, QWORD PTR tpb$[rsp]
  02768	0f b6 40 06	 movzx	 eax, BYTE PTR [rax+6]
  0276c	3d c9 00 00 00	 cmp	 eax, 201		; 000000c9H
  02771	0f 85 9f 02 00
	00		 jne	 $LN197@tcpnje_exe
  02777	48 8b 44 24 30	 mov	 rax, QWORD PTR tn$[rsp]
  0277c	83 b8 54 01 00
	00 07		 cmp	 DWORD PTR [rax+340], 7
  02783	75 15		 jne	 SHORT $LN199@tcpnje_exe
  02785	48 8b 44 24 30	 mov	 rax, QWORD PTR tn$[rsp]
  0278a	8b 80 64 01 00
	00		 mov	 eax, DWORD PTR [rax+356]
  02790	c1 e8 0b	 shr	 eax, 11
  02793	83 e0 01	 and	 eax, 1
  02796	85 c0		 test	 eax, eax
  02798	74 2b		 je	 SHORT $LN198@tcpnje_exe
$LN199@tcpnje_exe:
  0279a	48 8b 44 24 30	 mov	 rax, QWORD PTR tn$[rsp]
  0279f	83 b8 54 01 00
	00 06		 cmp	 DWORD PTR [rax+340], 6
  027a6	0f 85 6a 02 00
	00		 jne	 $LN197@tcpnje_exe
  027ac	48 8b 44 24 30	 mov	 rax, QWORD PTR tn$[rsp]
  027b1	8b 80 64 01 00
	00		 mov	 eax, DWORD PTR [rax+356]
  027b7	c1 e8 0b	 shr	 eax, 11
  027ba	83 e0 01	 and	 eax, 1
  027bd	85 c0		 test	 eax, eax
  027bf	0f 84 51 02 00
	00		 je	 $LN197@tcpnje_exe
$LN198@tcpnje_exe:

; 3879 :                        (((tn->state == NJEACKRCD) && !tn->synnakreceived) ||
; 3880 :                         ((tn->state == NJEACKSNT) && tn->synnakreceived)))
; 3881 :                     {
; 3882 :                         char nodestring[9];
; 3883 : 
; 3884 :                         if (count >= (5 + 0x0b))

  027c5	83 bc 24 a0 01
	00 00 10	 cmp	 DWORD PTR count$[rsp], 16
  027cd	0f 82 af 00 00
	00		 jb	 $LN200@tcpnje_exe

; 3885 :                         {
; 3886 :                             DBGMSG(64, "HHCTN088I %4.4X:TCPNJE - sending initial signon for local RSCS name %s.  Connection state %s\n",

  027d3	48 8b 44 24 30	 mov	 rax, QWORD PTR tn$[rsp]
  027d8	48 8b 00	 mov	 rax, QWORD PTR [rax]
  027db	8b 80 f8 05 00
	00		 mov	 eax, DWORD PTR [rax+1528]
  027e1	c1 e8 0f	 shr	 eax, 15
  027e4	83 e0 01	 and	 eax, 1
  027e7	85 c0		 test	 eax, eax
  027e9	74 12		 je	 SHORT $LN203@tcpnje_exe
  027eb	48 8b 44 24 30	 mov	 rax, QWORD PTR tn$[rsp]
  027f0	8b 80 4c 01 00
	00		 mov	 eax, DWORD PTR [rax+332]
  027f6	83 e0 40	 and	 eax, 64			; 00000040H
  027f9	85 c0		 test	 eax, eax
  027fb	75 12		 jne	 SHORT $LN202@tcpnje_exe
$LN203@tcpnje_exe:
  027fd	48 8b 44 24 30	 mov	 rax, QWORD PTR tn$[rsp]
  02802	8b 80 50 01 00
	00		 mov	 eax, DWORD PTR [rax+336]
  02808	83 e0 40	 and	 eax, 64			; 00000040H
  0280b	85 c0		 test	 eax, eax
  0280d	74 73		 je	 SHORT $LN201@tcpnje_exe
$LN202@tcpnje_exe:
  0280f	48 8b 44 24 30	 mov	 rax, QWORD PTR tn$[rsp]
  02814	48 63 80 54 01
	00 00		 movsxd	 rax, DWORD PTR [rax+340]
  0281b	48 89 84 24 e8
	00 00 00	 mov	 QWORD PTR tv1584[rsp], rax
  02823	48 8d 0d 00 00
	00 00		 lea	 rcx, OFFSET FLAT:tcpnje_state_text
  0282a	48 89 8c 24 e0
	00 00 00	 mov	 QWORD PTR tv2308[rsp], rcx
  02832	48 8b 54 24 40	 mov	 rdx, QWORD PTR tpb$[rsp]
  02837	48 83 c2 08	 add	 rdx, 8
  0283b	4c 8b c2	 mov	 r8, rdx
  0283e	ba 09 00 00 00	 mov	 edx, 9
  02843	48 8d 8c 24 38
	01 00 00	 lea	 rcx, QWORD PTR nodestring$5[rsp]
  0284b	e8 00 00 00 00	 call	 guest_to_host_string
  02850	48 8b 8c 24 80
	01 00 00	 mov	 rcx, QWORD PTR dev$[rsp]
  02858	0f b7 49 48	 movzx	 ecx, WORD PTR [rcx+72]
  0285c	48 8b bc 24 e0
	00 00 00	 mov	 rdi, QWORD PTR tv2308[rsp]
  02864	48 8b 94 24 e8
	00 00 00	 mov	 rdx, QWORD PTR tv1584[rsp]
  0286c	4c 8b 0c d7	 mov	 r9, QWORD PTR [rdi+rdx*8]
  02870	4c 8b c0	 mov	 r8, rax
  02873	8b d1		 mov	 edx, ecx
  02875	48 8d 0d 00 00
	00 00		 lea	 rcx, OFFSET FLAT:$SG160866
  0287c	ff 15 00 00 00
	00		 call	 QWORD PTR __imp_logmsg
$LN201@tcpnje_exe:
$LN200@tcpnje_exe:

; 3887 :                                 dev->devnum, guest_to_host_string(nodestring, sizeof(nodestring), tpb->nccinode),
; 3888 :                                 tcpnje_state_text[tn->state]);
; 3889 :                         }
; 3890 : 
; 3891 :                         if (count >= (5 + 0x14))

  02882	83 bc 24 a0 01
	00 00 19	 cmp	 DWORD PTR count$[rsp], 25
  0288a	0f 82 b8 00 00
	00		 jb	 $LN204@tcpnje_exe

; 3892 :                         {
; 3893 :                             U16 tpbufsize;
; 3894 : 
; 3895 :                             /* The following contortion is required because */
; 3896 :                             /* of incorrect alignment in I/J signon records */
; 3897 :                             tpbufsize = (tpb->nccibfsz[0] << 8) + tpb->nccibfsz[1];

  02890	b8 01 00 00 00	 mov	 eax, 1
  02895	48 6b c0 00	 imul	 rax, rax, 0
  02899	48 8b 4c 24 40	 mov	 rcx, QWORD PTR tpb$[rsp]
  0289e	0f b6 44 01 17	 movzx	 eax, BYTE PTR [rcx+rax+23]
  028a3	c1 e0 08	 shl	 eax, 8
  028a6	b9 01 00 00 00	 mov	 ecx, 1
  028ab	48 6b c9 01	 imul	 rcx, rcx, 1
  028af	48 8b 54 24 40	 mov	 rdx, QWORD PTR tpb$[rsp]
  028b4	0f b6 4c 0a 17	 movzx	 ecx, BYTE PTR [rdx+rcx+23]
  028b9	03 c1		 add	 eax, ecx
  028bb	66 89 44 24 54	 mov	 WORD PTR tpbufsize$2[rsp], ax

; 3898 :                             DBGMSG(64, "HHCTN089I %4.4X:TCPNJE - sending TPbuffer size requested by local RSCS name %s: %d\n",

  028c0	48 8b 44 24 30	 mov	 rax, QWORD PTR tn$[rsp]
  028c5	48 8b 00	 mov	 rax, QWORD PTR [rax]
  028c8	8b 80 f8 05 00
	00		 mov	 eax, DWORD PTR [rax+1528]
  028ce	c1 e8 0f	 shr	 eax, 15
  028d1	83 e0 01	 and	 eax, 1
  028d4	85 c0		 test	 eax, eax
  028d6	74 12		 je	 SHORT $LN207@tcpnje_exe
  028d8	48 8b 44 24 30	 mov	 rax, QWORD PTR tn$[rsp]
  028dd	8b 80 4c 01 00
	00		 mov	 eax, DWORD PTR [rax+332]
  028e3	83 e0 40	 and	 eax, 64			; 00000040H
  028e6	85 c0		 test	 eax, eax
  028e8	75 12		 jne	 SHORT $LN206@tcpnje_exe
$LN207@tcpnje_exe:
  028ea	48 8b 44 24 30	 mov	 rax, QWORD PTR tn$[rsp]
  028ef	8b 80 50 01 00
	00		 mov	 eax, DWORD PTR [rax+336]
  028f5	83 e0 40	 and	 eax, 64			; 00000040H
  028f8	85 c0		 test	 eax, eax
  028fa	74 4c		 je	 SHORT $LN205@tcpnje_exe
$LN206@tcpnje_exe:
  028fc	0f b7 44 24 54	 movzx	 eax, WORD PTR tpbufsize$2[rsp]
  02901	89 44 24 7c	 mov	 DWORD PTR tv1621[rsp], eax
  02905	48 8b 4c 24 40	 mov	 rcx, QWORD PTR tpb$[rsp]
  0290a	48 83 c1 08	 add	 rcx, 8
  0290e	4c 8b c1	 mov	 r8, rcx
  02911	ba 09 00 00 00	 mov	 edx, 9
  02916	48 8d 8c 24 38
	01 00 00	 lea	 rcx, QWORD PTR nodestring$5[rsp]
  0291e	e8 00 00 00 00	 call	 guest_to_host_string
  02923	48 8b 8c 24 80
	01 00 00	 mov	 rcx, QWORD PTR dev$[rsp]
  0292b	0f b7 49 48	 movzx	 ecx, WORD PTR [rcx+72]
  0292f	8b 54 24 7c	 mov	 edx, DWORD PTR tv1621[rsp]
  02933	44 8b ca	 mov	 r9d, edx
  02936	4c 8b c0	 mov	 r8, rax
  02939	8b d1		 mov	 edx, ecx
  0293b	48 8d 0d 00 00
	00 00		 lea	 rcx, OFFSET FLAT:$SG160871
  02942	ff 15 00 00 00
	00		 call	 QWORD PTR __imp_logmsg
$LN205@tcpnje_exe:
$LN204@tcpnje_exe:

; 3899 :                                     dev->devnum, guest_to_host_string(nodestring, sizeof(nodestring), tpb->nccinode), tpbufsize);
; 3900 :                         }
; 3901 : 
; 3902 :                         if ((count >= (5 + 0x25)) && (tpb->nccifeat[0] & 0x80))

  02948	83 bc 24 a0 01
	00 00 2a	 cmp	 DWORD PTR count$[rsp], 42 ; 0000002aH
  02950	0f 82 c0 00 00
	00		 jb	 $LN208@tcpnje_exe
  02956	b8 01 00 00 00	 mov	 eax, 1
  0295b	48 6b c0 00	 imul	 rax, rax, 0
  0295f	48 8b 4c 24 40	 mov	 rcx, QWORD PTR tpb$[rsp]
  02964	0f b6 44 01 2a	 movzx	 eax, BYTE PTR [rcx+rax+42]
  02969	25 80 00 00 00	 and	 eax, 128		; 00000080H
  0296e	85 c0		 test	 eax, eax
  02970	0f 84 a0 00 00
	00		 je	 $LN208@tcpnje_exe

; 3903 :                         {
; 3904 :                             DBGMSG(64, "HHCTN090I %4.4X:TCPNJE - resetting unsupported PREPARE feature requested by local RSCS name %s\n",

  02976	48 8b 44 24 30	 mov	 rax, QWORD PTR tn$[rsp]
  0297b	48 8b 00	 mov	 rax, QWORD PTR [rax]
  0297e	8b 80 f8 05 00
	00		 mov	 eax, DWORD PTR [rax+1528]
  02984	c1 e8 0f	 shr	 eax, 15
  02987	83 e0 01	 and	 eax, 1
  0298a	85 c0		 test	 eax, eax
  0298c	74 12		 je	 SHORT $LN211@tcpnje_exe
  0298e	48 8b 44 24 30	 mov	 rax, QWORD PTR tn$[rsp]
  02993	8b 80 4c 01 00
	00		 mov	 eax, DWORD PTR [rax+332]
  02999	83 e0 40	 and	 eax, 64			; 00000040H
  0299c	85 c0		 test	 eax, eax
  0299e	75 12		 jne	 SHORT $LN210@tcpnje_exe
$LN211@tcpnje_exe:
  029a0	48 8b 44 24 30	 mov	 rax, QWORD PTR tn$[rsp]
  029a5	8b 80 50 01 00
	00		 mov	 eax, DWORD PTR [rax+336]
  029ab	83 e0 40	 and	 eax, 64			; 00000040H
  029ae	85 c0		 test	 eax, eax
  029b0	74 3c		 je	 SHORT $LN209@tcpnje_exe
$LN210@tcpnje_exe:
  029b2	48 8b 44 24 40	 mov	 rax, QWORD PTR tpb$[rsp]
  029b7	48 83 c0 08	 add	 rax, 8
  029bb	4c 8b c0	 mov	 r8, rax
  029be	ba 09 00 00 00	 mov	 edx, 9
  029c3	48 8d 8c 24 38
	01 00 00	 lea	 rcx, QWORD PTR nodestring$5[rsp]
  029cb	e8 00 00 00 00	 call	 guest_to_host_string
  029d0	48 8b 8c 24 80
	01 00 00	 mov	 rcx, QWORD PTR dev$[rsp]
  029d8	0f b7 49 48	 movzx	 ecx, WORD PTR [rcx+72]
  029dc	4c 8b c0	 mov	 r8, rax
  029df	8b d1		 mov	 edx, ecx
  029e1	48 8d 0d 00 00
	00 00		 lea	 rcx, OFFSET FLAT:$SG160876
  029e8	ff 15 00 00 00
	00		 call	 QWORD PTR __imp_logmsg
$LN209@tcpnje_exe:

; 3905 :                                     dev->devnum, guest_to_host_string(nodestring, sizeof(nodestring), tpb->nccinode));
; 3906 :                             tpb->nccifeat[0] &= 0x7f;

  029ee	b8 01 00 00 00	 mov	 eax, 1
  029f3	48 6b c0 00	 imul	 rax, rax, 0
  029f7	48 8b 4c 24 40	 mov	 rcx, QWORD PTR tpb$[rsp]
  029fc	0f b6 44 01 2a	 movzx	 eax, BYTE PTR [rcx+rax+42]
  02a01	83 e0 7f	 and	 eax, 127		; 0000007fH
  02a04	b9 01 00 00 00	 mov	 ecx, 1
  02a09	48 6b c9 00	 imul	 rcx, rcx, 0
  02a0d	48 8b 54 24 40	 mov	 rdx, QWORD PTR tpb$[rsp]
  02a12	88 44 0a 2a	 mov	 BYTE PTR [rdx+rcx+42], al
$LN208@tcpnje_exe:
$LN197@tcpnje_exe:

; 3907 :                         }
; 3908 :                     }
; 3909 :                     /* Are we sending an outgoing NCC J response signon    */
; 3910 :                     /* record?  If so, note the change in connection state */
; 3911 :                     if ((tpb->rcb == 0xf0) && (tpb->srcb == 0xd1) &&

  02a16	48 8b 44 24 40	 mov	 rax, QWORD PTR tpb$[rsp]
  02a1b	0f b6 40 05	 movzx	 eax, BYTE PTR [rax+5]
  02a1f	3d f0 00 00 00	 cmp	 eax, 240		; 000000f0H
  02a24	0f 85 d6 02 00
	00		 jne	 $LN212@tcpnje_exe
  02a2a	48 8b 44 24 40	 mov	 rax, QWORD PTR tpb$[rsp]
  02a2f	0f b6 40 06	 movzx	 eax, BYTE PTR [rax+6]
  02a33	3d d1 00 00 00	 cmp	 eax, 209		; 000000d1H
  02a38	0f 85 c2 02 00
	00		 jne	 $LN212@tcpnje_exe
  02a3e	48 8b 44 24 30	 mov	 rax, QWORD PTR tn$[rsp]
  02a43	83 b8 54 01 00
	00 06		 cmp	 DWORD PTR [rax+340], 6
  02a4a	75 15		 jne	 SHORT $LN214@tcpnje_exe
  02a4c	48 8b 44 24 30	 mov	 rax, QWORD PTR tn$[rsp]
  02a51	8b 80 64 01 00
	00		 mov	 eax, DWORD PTR [rax+356]
  02a57	c1 e8 0c	 shr	 eax, 12
  02a5a	83 e0 01	 and	 eax, 1
  02a5d	85 c0		 test	 eax, eax
  02a5f	74 2b		 je	 SHORT $LN213@tcpnje_exe
$LN214@tcpnje_exe:
  02a61	48 8b 44 24 30	 mov	 rax, QWORD PTR tn$[rsp]
  02a66	83 b8 54 01 00
	00 07		 cmp	 DWORD PTR [rax+340], 7
  02a6d	0f 85 8d 02 00
	00		 jne	 $LN212@tcpnje_exe
  02a73	48 8b 44 24 30	 mov	 rax, QWORD PTR tn$[rsp]
  02a78	8b 80 64 01 00
	00		 mov	 eax, DWORD PTR [rax+356]
  02a7e	c1 e8 0c	 shr	 eax, 12
  02a81	83 e0 01	 and	 eax, 1
  02a84	85 c0		 test	 eax, eax
  02a86	0f 84 74 02 00
	00		 je	 $LN212@tcpnje_exe
$LN213@tcpnje_exe:

; 3912 :                        (((tn->state == NJEACKSNT) && !tn->synnaksent) ||
; 3913 :                         ((tn->state == NJEACKRCD) && tn->synnaksent)))
; 3914 :                     {
; 3915 :                         char nodestring[9];
; 3916 : 
; 3917 :                         tn->state = NJECONSEC;

  02a8c	48 8b 44 24 30	 mov	 rax, QWORD PTR tn$[rsp]
  02a91	c7 80 54 01 00
	00 09 00 00 00	 mov	 DWORD PTR [rax+340], 9

; 3918 : 
; 3919 :                         if (count >= (5 + 0x0b))

  02a9b	83 bc 24 a0 01
	00 00 10	 cmp	 DWORD PTR count$[rsp], 16
  02aa3	0f 82 af 00 00
	00		 jb	 $LN215@tcpnje_exe

; 3920 :                         {
; 3921 :                             DBGMSG(64, "HHCTN091I %4.4X:TCPNJE - sending response signon for local RSCS name %s.  Connection state %s\n",

  02aa9	48 8b 44 24 30	 mov	 rax, QWORD PTR tn$[rsp]
  02aae	48 8b 00	 mov	 rax, QWORD PTR [rax]
  02ab1	8b 80 f8 05 00
	00		 mov	 eax, DWORD PTR [rax+1528]
  02ab7	c1 e8 0f	 shr	 eax, 15
  02aba	83 e0 01	 and	 eax, 1
  02abd	85 c0		 test	 eax, eax
  02abf	74 12		 je	 SHORT $LN218@tcpnje_exe
  02ac1	48 8b 44 24 30	 mov	 rax, QWORD PTR tn$[rsp]
  02ac6	8b 80 4c 01 00
	00		 mov	 eax, DWORD PTR [rax+332]
  02acc	83 e0 40	 and	 eax, 64			; 00000040H
  02acf	85 c0		 test	 eax, eax
  02ad1	75 12		 jne	 SHORT $LN217@tcpnje_exe
$LN218@tcpnje_exe:
  02ad3	48 8b 44 24 30	 mov	 rax, QWORD PTR tn$[rsp]
  02ad8	8b 80 50 01 00
	00		 mov	 eax, DWORD PTR [rax+336]
  02ade	83 e0 40	 and	 eax, 64			; 00000040H
  02ae1	85 c0		 test	 eax, eax
  02ae3	74 73		 je	 SHORT $LN216@tcpnje_exe
$LN217@tcpnje_exe:
  02ae5	48 8b 44 24 30	 mov	 rax, QWORD PTR tn$[rsp]
  02aea	48 63 80 54 01
	00 00		 movsxd	 rax, DWORD PTR [rax+340]
  02af1	48 89 84 24 f8
	00 00 00	 mov	 QWORD PTR tv1702[rsp], rax
  02af9	48 8d 0d 00 00
	00 00		 lea	 rcx, OFFSET FLAT:tcpnje_state_text
  02b00	48 89 8c 24 f0
	00 00 00	 mov	 QWORD PTR tv2309[rsp], rcx
  02b08	48 8b 54 24 40	 mov	 rdx, QWORD PTR tpb$[rsp]
  02b0d	48 83 c2 08	 add	 rdx, 8
  02b11	4c 8b c2	 mov	 r8, rdx
  02b14	ba 09 00 00 00	 mov	 edx, 9
  02b19	48 8d 8c 24 48
	01 00 00	 lea	 rcx, QWORD PTR nodestring$6[rsp]
  02b21	e8 00 00 00 00	 call	 guest_to_host_string
  02b26	48 8b 8c 24 80
	01 00 00	 mov	 rcx, QWORD PTR dev$[rsp]
  02b2e	0f b7 49 48	 movzx	 ecx, WORD PTR [rcx+72]
  02b32	48 8b bc 24 f0
	00 00 00	 mov	 rdi, QWORD PTR tv2309[rsp]
  02b3a	48 8b 94 24 f8
	00 00 00	 mov	 rdx, QWORD PTR tv1702[rsp]
  02b42	4c 8b 0c d7	 mov	 r9, QWORD PTR [rdi+rdx*8]
  02b46	4c 8b c0	 mov	 r8, rax
  02b49	8b d1		 mov	 edx, ecx
  02b4b	48 8d 0d 00 00
	00 00		 lea	 rcx, OFFSET FLAT:$SG160884
  02b52	ff 15 00 00 00
	00		 call	 QWORD PTR __imp_logmsg
$LN216@tcpnje_exe:
$LN215@tcpnje_exe:

; 3922 :                                 dev->devnum, guest_to_host_string(nodestring, sizeof(nodestring), tpb->nccinode),
; 3923 :                                 tcpnje_state_text[tn->state]);
; 3924 :                         }
; 3925 : 
; 3926 :                         if (count >= (5 + 0x14))

  02b58	83 bc 24 a0 01
	00 00 19	 cmp	 DWORD PTR count$[rsp], 25
  02b60	0f 82 cc 00 00
	00		 jb	 $LN219@tcpnje_exe

; 3927 :                         {
; 3928 :                             /* The following contortion is required because */
; 3929 :                             /* of incorrect alignment in I/J signon records */
; 3930 :                             tn->tpbufsize = (tpb->nccibfsz[0] << 8) + tpb->nccibfsz[1];

  02b66	b8 01 00 00 00	 mov	 eax, 1
  02b6b	48 6b c0 00	 imul	 rax, rax, 0
  02b6f	48 8b 4c 24 40	 mov	 rcx, QWORD PTR tpb$[rsp]
  02b74	0f b6 44 01 17	 movzx	 eax, BYTE PTR [rcx+rax+23]
  02b79	c1 e0 08	 shl	 eax, 8
  02b7c	b9 01 00 00 00	 mov	 ecx, 1
  02b81	48 6b c9 01	 imul	 rcx, rcx, 1
  02b85	48 8b 54 24 40	 mov	 rdx, QWORD PTR tpb$[rsp]
  02b8a	0f b6 4c 0a 17	 movzx	 ecx, BYTE PTR [rdx+rcx+23]
  02b8f	03 c1		 add	 eax, ecx
  02b91	48 8b 4c 24 30	 mov	 rcx, QWORD PTR tn$[rsp]
  02b96	66 89 81 5e 01
	00 00		 mov	 WORD PTR [rcx+350], ax

; 3931 :                             DBGMSG(64, "HHCTN092I %4.4X:TCPNJE - sending TPbuffer size negotiated by local RSCS name %s: %d\n",

  02b9d	48 8b 44 24 30	 mov	 rax, QWORD PTR tn$[rsp]
  02ba2	48 8b 00	 mov	 rax, QWORD PTR [rax]
  02ba5	8b 80 f8 05 00
	00		 mov	 eax, DWORD PTR [rax+1528]
  02bab	c1 e8 0f	 shr	 eax, 15
  02bae	83 e0 01	 and	 eax, 1
  02bb1	85 c0		 test	 eax, eax
  02bb3	74 12		 je	 SHORT $LN222@tcpnje_exe
  02bb5	48 8b 44 24 30	 mov	 rax, QWORD PTR tn$[rsp]
  02bba	8b 80 4c 01 00
	00		 mov	 eax, DWORD PTR [rax+332]
  02bc0	83 e0 40	 and	 eax, 64			; 00000040H
  02bc3	85 c0		 test	 eax, eax
  02bc5	75 12		 jne	 SHORT $LN221@tcpnje_exe
$LN222@tcpnje_exe:
  02bc7	48 8b 44 24 30	 mov	 rax, QWORD PTR tn$[rsp]
  02bcc	8b 80 50 01 00
	00		 mov	 eax, DWORD PTR [rax+336]
  02bd2	83 e0 40	 and	 eax, 64			; 00000040H
  02bd5	85 c0		 test	 eax, eax
  02bd7	74 59		 je	 SHORT $LN220@tcpnje_exe
$LN221@tcpnje_exe:
  02bd9	48 8b 44 24 30	 mov	 rax, QWORD PTR tn$[rsp]
  02bde	0f b7 80 5e 01
	00 00		 movzx	 eax, WORD PTR [rax+350]
  02be5	89 84 24 80 00
	00 00		 mov	 DWORD PTR tv1741[rsp], eax
  02bec	48 8b 4c 24 40	 mov	 rcx, QWORD PTR tpb$[rsp]
  02bf1	48 83 c1 08	 add	 rcx, 8
  02bf5	4c 8b c1	 mov	 r8, rcx
  02bf8	ba 09 00 00 00	 mov	 edx, 9
  02bfd	48 8d 8c 24 48
	01 00 00	 lea	 rcx, QWORD PTR nodestring$6[rsp]
  02c05	e8 00 00 00 00	 call	 guest_to_host_string
  02c0a	48 8b 8c 24 80
	01 00 00	 mov	 rcx, QWORD PTR dev$[rsp]
  02c12	0f b7 49 48	 movzx	 ecx, WORD PTR [rcx+72]
  02c16	8b 94 24 80 00
	00 00		 mov	 edx, DWORD PTR tv1741[rsp]
  02c1d	44 8b ca	 mov	 r9d, edx
  02c20	4c 8b c0	 mov	 r8, rax
  02c23	8b d1		 mov	 edx, ecx
  02c25	48 8d 0d 00 00
	00 00		 lea	 rcx, OFFSET FLAT:$SG160889
  02c2c	ff 15 00 00 00
	00		 call	 QWORD PTR __imp_logmsg
$LN220@tcpnje_exe:
$LN219@tcpnje_exe:

; 3932 :                                     dev->devnum, guest_to_host_string(nodestring, sizeof(nodestring), tpb->nccinode),
; 3933 :                                     tn->tpbufsize);
; 3934 :                         }
; 3935 :                         if ((count >= (5 + 0x25)) && (tpb->nccifeat[0] & 0x80))

  02c32	83 bc 24 a0 01
	00 00 2a	 cmp	 DWORD PTR count$[rsp], 42 ; 0000002aH
  02c3a	0f 82 c0 00 00
	00		 jb	 $LN223@tcpnje_exe
  02c40	b8 01 00 00 00	 mov	 eax, 1
  02c45	48 6b c0 00	 imul	 rax, rax, 0
  02c49	48 8b 4c 24 40	 mov	 rcx, QWORD PTR tpb$[rsp]
  02c4e	0f b6 44 01 2a	 movzx	 eax, BYTE PTR [rcx+rax+42]
  02c53	25 80 00 00 00	 and	 eax, 128		; 00000080H
  02c58	85 c0		 test	 eax, eax
  02c5a	0f 84 a0 00 00
	00		 je	 $LN223@tcpnje_exe

; 3936 :                         {
; 3937 :                             DBGMSG(16, "HHCTN093W %4.4X:TCPNJE - resetting forced use of unsuppored PREPARE protocol by local RSCS name %s\n",

  02c60	48 8b 44 24 30	 mov	 rax, QWORD PTR tn$[rsp]
  02c65	48 8b 00	 mov	 rax, QWORD PTR [rax]
  02c68	8b 80 f8 05 00
	00		 mov	 eax, DWORD PTR [rax+1528]
  02c6e	c1 e8 0f	 shr	 eax, 15
  02c71	83 e0 01	 and	 eax, 1
  02c74	85 c0		 test	 eax, eax
  02c76	74 12		 je	 SHORT $LN226@tcpnje_exe
  02c78	48 8b 44 24 30	 mov	 rax, QWORD PTR tn$[rsp]
  02c7d	8b 80 4c 01 00
	00		 mov	 eax, DWORD PTR [rax+332]
  02c83	83 e0 10	 and	 eax, 16
  02c86	85 c0		 test	 eax, eax
  02c88	75 12		 jne	 SHORT $LN225@tcpnje_exe
$LN226@tcpnje_exe:
  02c8a	48 8b 44 24 30	 mov	 rax, QWORD PTR tn$[rsp]
  02c8f	8b 80 50 01 00
	00		 mov	 eax, DWORD PTR [rax+336]
  02c95	83 e0 10	 and	 eax, 16
  02c98	85 c0		 test	 eax, eax
  02c9a	74 3c		 je	 SHORT $LN224@tcpnje_exe
$LN225@tcpnje_exe:
  02c9c	48 8b 44 24 40	 mov	 rax, QWORD PTR tpb$[rsp]
  02ca1	48 83 c0 08	 add	 rax, 8
  02ca5	4c 8b c0	 mov	 r8, rax
  02ca8	ba 09 00 00 00	 mov	 edx, 9
  02cad	48 8d 8c 24 48
	01 00 00	 lea	 rcx, QWORD PTR nodestring$6[rsp]
  02cb5	e8 00 00 00 00	 call	 guest_to_host_string
  02cba	48 8b 8c 24 80
	01 00 00	 mov	 rcx, QWORD PTR dev$[rsp]
  02cc2	0f b7 49 48	 movzx	 ecx, WORD PTR [rcx+72]
  02cc6	4c 8b c0	 mov	 r8, rax
  02cc9	8b d1		 mov	 edx, ecx
  02ccb	48 8d 0d 00 00
	00 00		 lea	 rcx, OFFSET FLAT:$SG160894
  02cd2	ff 15 00 00 00
	00		 call	 QWORD PTR __imp_logmsg
$LN224@tcpnje_exe:

; 3938 :                                     dev->devnum, guest_to_host_string(nodestring, sizeof(nodestring), tpb->nccinode));
; 3939 :                             tpb->nccifeat[0] &= 0x7f;

  02cd8	b8 01 00 00 00	 mov	 eax, 1
  02cdd	48 6b c0 00	 imul	 rax, rax, 0
  02ce1	48 8b 4c 24 40	 mov	 rcx, QWORD PTR tpb$[rsp]
  02ce6	0f b6 44 01 2a	 movzx	 eax, BYTE PTR [rcx+rax+42]
  02ceb	83 e0 7f	 and	 eax, 127		; 0000007fH
  02cee	b9 01 00 00 00	 mov	 ecx, 1
  02cf3	48 6b c9 00	 imul	 rcx, rcx, 0
  02cf7	48 8b 54 24 40	 mov	 rdx, QWORD PTR tpb$[rsp]
  02cfc	88 44 0a 2a	 mov	 BYTE PTR [rdx+rcx+42], al
$LN223@tcpnje_exe:
$LN212@tcpnje_exe:
$LN164@tcpnje_exe:

; 3940 :                         }
; 3941 :                     }
; 3942 :                 }
; 3943 :                 /* Check if we have an opened path */
; 3944 :                 if (tn->state < TCPCONACT)

  02d00	48 8b 44 24 30	 mov	 rax, QWORD PTR tn$[rsp]
  02d05	83 b8 54 01 00
	00 03		 cmp	 DWORD PTR [rax+340], 3
  02d0c	0f 8d 7c 01 00
	00		 jge	 $LN227@tcpnje_exe

; 3945 :                 {
; 3946 :                     /* Is this an attempt to get connected? */
; 3947 :                     if ((count != 2) || (memcmp(tpb->start, SOH ENQ, 2) && memcmp(tpb->start, SYN NAK, 2)))

  02d12	83 bc 24 a0 01
	00 00 02	 cmp	 DWORD PTR count$[rsp], 2
  02d1a	75 44		 jne	 SHORT $LN229@tcpnje_exe
  02d1c	48 8b 44 24 40	 mov	 rax, QWORD PTR tpb$[rsp]
  02d21	41 b8 02 00 00
	00		 mov	 r8d, 2
  02d27	48 8d 15 00 00
	00 00		 lea	 rdx, OFFSET FLAT:$SG160898
  02d2e	48 8b c8	 mov	 rcx, rax
  02d31	e8 00 00 00 00	 call	 memcmp
  02d36	85 c0		 test	 eax, eax
  02d38	0f 84 c6 00 00
	00		 je	 $LN228@tcpnje_exe
  02d3e	48 8b 44 24 40	 mov	 rax, QWORD PTR tpb$[rsp]
  02d43	41 b8 02 00 00
	00		 mov	 r8d, 2
  02d49	48 8d 15 00 00
	00 00		 lea	 rdx, OFFSET FLAT:$SG160899
  02d50	48 8b c8	 mov	 rcx, rax
  02d53	e8 00 00 00 00	 call	 memcmp
  02d58	85 c0		 test	 eax, eax
  02d5a	0f 84 a4 00 00
	00		 je	 $LN228@tcpnje_exe
$LN229@tcpnje_exe:

; 3948 :                     {
; 3949 :                         DBGMSG(64, "HHCTN094W %4.4X:TCPNJE WRITE - Attempting to send other than SOH ENQ or SYN NAK when not connected. Connection state: %s\n",

  02d60	48 8b 44 24 30	 mov	 rax, QWORD PTR tn$[rsp]
  02d65	48 8b 00	 mov	 rax, QWORD PTR [rax]
  02d68	8b 80 f8 05 00
	00		 mov	 eax, DWORD PTR [rax+1528]
  02d6e	c1 e8 0f	 shr	 eax, 15
  02d71	83 e0 01	 and	 eax, 1
  02d74	85 c0		 test	 eax, eax
  02d76	74 12		 je	 SHORT $LN232@tcpnje_exe
  02d78	48 8b 44 24 30	 mov	 rax, QWORD PTR tn$[rsp]
  02d7d	8b 80 4c 01 00
	00		 mov	 eax, DWORD PTR [rax+332]
  02d83	83 e0 40	 and	 eax, 64			; 00000040H
  02d86	85 c0		 test	 eax, eax
  02d88	75 12		 jne	 SHORT $LN231@tcpnje_exe
$LN232@tcpnje_exe:
  02d8a	48 8b 44 24 30	 mov	 rax, QWORD PTR tn$[rsp]
  02d8f	8b 80 50 01 00
	00		 mov	 eax, DWORD PTR [rax+336]
  02d95	83 e0 40	 and	 eax, 64			; 00000040H
  02d98	85 c0		 test	 eax, eax
  02d9a	74 30		 je	 SHORT $LN230@tcpnje_exe
$LN231@tcpnje_exe:
  02d9c	48 8b 44 24 30	 mov	 rax, QWORD PTR tn$[rsp]
  02da1	48 63 80 54 01
	00 00		 movsxd	 rax, DWORD PTR [rax+340]
  02da8	48 8d 0d 00 00
	00 00		 lea	 rcx, OFFSET FLAT:tcpnje_state_text
  02daf	48 8b 94 24 80
	01 00 00	 mov	 rdx, QWORD PTR dev$[rsp]
  02db7	0f b7 52 48	 movzx	 edx, WORD PTR [rdx+72]
  02dbb	4c 8b 04 c1	 mov	 r8, QWORD PTR [rcx+rax*8]
  02dbf	48 8d 0d 00 00
	00 00		 lea	 rcx, OFFSET FLAT:$SG160903
  02dc6	ff 15 00 00 00
	00		 call	 QWORD PTR __imp_logmsg
$LN230@tcpnje_exe:

; 3950 :                                 dev->devnum, tcpnje_state_text[tn->state]);
; 3951 :                         /* RSCS must be confused.  Send it a signoff at next read.  */
; 3952 :                         tn->signoff = 1;

  02dcc	48 8b 44 24 30	 mov	 rax, QWORD PTR tn$[rsp]
  02dd1	8b 80 64 01 00
	00		 mov	 eax, DWORD PTR [rax+356]
  02dd7	0f ba e8 0e	 bts	 eax, 14
  02ddb	48 8b 4c 24 30	 mov	 rcx, QWORD PTR tn$[rsp]
  02de0	89 81 64 01 00
	00		 mov	 DWORD PTR [rcx+356], eax

; 3953 :                         /* Drop write as connecting now will only cause more confusion */
; 3954 :                         *residual = 0;

  02de6	48 8b 84 24 d0
	01 00 00	 mov	 rax, QWORD PTR residual$[rsp]
  02dee	c7 00 00 00 00
	00		 mov	 DWORD PTR [rax], 0

; 3955 :                         *unitstat = CSW_CE | CSW_DE;

  02df4	48 8b 84 24 c8
	01 00 00	 mov	 rax, QWORD PTR unitstat$[rsp]
  02dfc	c6 00 0c	 mov	 BYTE PTR [rax], 12

; 3956 :                         break;

  02dff	e9 4b 0c 00 00	 jmp	 $LN14@tcpnje_exe
$LN228@tcpnje_exe:

; 3957 :                     }
; 3958 : 
; 3959 :                     /* Not connected and sending SOH ENQ or SYN NAK. Try to connect. */
; 3960 :                     tn->curpending = TCPNJE_PEND_CONNECT;

  02e04	48 8b 44 24 30	 mov	 rax, QWORD PTR tn$[rsp]
  02e09	c6 80 60 01 00
	00 03		 mov	 BYTE PTR [rax+352], 3

; 3961 : 
; 3962 :                     /* Wakeup worker thread and wait for it to complete CONNECT */
; 3963 :                     if (!tcpnje_wakeup_and_wait(tn, 0))

  02e10	33 d2		 xor	 edx, edx
  02e12	48 8b 4c 24 30	 mov	 rcx, QWORD PTR tn$[rsp]
  02e17	e8 00 00 00 00	 call	 tcpnje_wakeup_and_wait
  02e1c	85 c0		 test	 eax, eax
  02e1e	75 42		 jne	 SHORT $LN233@tcpnje_exe

; 3964 :                     {
; 3965 :                         /* If thread is not running, indicate something is wrong */
; 3966 :                         *unitstat = CSW_CE | CSW_DE | CSW_UC;

  02e20	48 8b 84 24 c8
	01 00 00	 mov	 rax, QWORD PTR unitstat$[rsp]
  02e28	c6 00 0e	 mov	 BYTE PTR [rax], 14

; 3967 :                         dev->sense[0] = SENSE_IR;

  02e2b	b8 01 00 00 00	 mov	 eax, 1
  02e30	48 6b c0 00	 imul	 rax, rax, 0
  02e34	48 8b 8c 24 80
	01 00 00	 mov	 rcx, QWORD PTR dev$[rsp]
  02e3c	c6 84 01 64 03
	00 00 40	 mov	 BYTE PTR [rcx+rax+868], 64 ; 00000040H

; 3968 :                         dev->sense[1] = 0;

  02e44	b8 01 00 00 00	 mov	 eax, 1
  02e49	48 6b c0 01	 imul	 rax, rax, 1
  02e4d	48 8b 8c 24 80
	01 00 00	 mov	 rcx, QWORD PTR dev$[rsp]
  02e55	c6 84 01 64 03
	00 00 00	 mov	 BYTE PTR [rcx+rax+868], 0

; 3969 :                         break;

  02e5d	e9 ed 0b 00 00	 jmp	 $LN14@tcpnje_exe
$LN233@tcpnje_exe:

; 3970 :                     }
; 3971 : 
; 3972 :                     /* Did we connect? */
; 3973 :                     if (tn->state < NJEACKSNT)

  02e62	48 8b 44 24 30	 mov	 rax, QWORD PTR tn$[rsp]
  02e67	83 b8 54 01 00
	00 06		 cmp	 DWORD PTR [rax+340], 6
  02e6e	7d 1e		 jge	 SHORT $LN234@tcpnje_exe

; 3974 :                     {
; 3975 :                         /* Connect failed. Pretend the write worked */
; 3976 :                         *residual = 0;

  02e70	48 8b 84 24 d0
	01 00 00	 mov	 rax, QWORD PTR residual$[rsp]
  02e78	c7 00 00 00 00
	00		 mov	 DWORD PTR [rax], 0

; 3977 :                         *unitstat = CSW_CE | CSW_DE;

  02e7e	48 8b 84 24 c8
	01 00 00	 mov	 rax, QWORD PTR unitstat$[rsp]
  02e86	c6 00 0c	 mov	 BYTE PTR [rax], 12

; 3978 :                         break;

  02e89	e9 c1 0b 00 00	 jmp	 $LN14@tcpnje_exe
$LN234@tcpnje_exe:
$LN227@tcpnje_exe:

; 3979 :                     }
; 3980 :                 }
; 3981 :                 /* Is this SYN SYN SYN SYN? */
; 3982 :                 if  ((count == 4) && !memcmp(iobuf, SYN SYN SYN SYN, 4))

  02e8e	83 bc 24 a0 01
	00 00 04	 cmp	 DWORD PTR count$[rsp], 4
  02e96	0f 85 b0 00 00
	00		 jne	 $LN235@tcpnje_exe
  02e9c	41 b8 04 00 00
	00		 mov	 r8d, 4
  02ea2	48 8d 15 00 00
	00 00		 lea	 rdx, OFFSET FLAT:$SG160907
  02ea9	48 8b 8c 24 b8
	01 00 00	 mov	 rcx, QWORD PTR iobuf$[rsp]
  02eb1	e8 00 00 00 00	 call	 memcmp
  02eb6	85 c0		 test	 eax, eax
  02eb8	0f 85 8e 00 00
	00		 jne	 $LN235@tcpnje_exe

; 3983 :                 {
; 3984 :                     DBGMSG(4096, "HHCTN157D %4.4X:TCPNJE WRITE - dropping outgoing SYN SYN SYN SYN. Connection state: %s\n",

  02ebe	48 8b 44 24 30	 mov	 rax, QWORD PTR tn$[rsp]
  02ec3	48 8b 00	 mov	 rax, QWORD PTR [rax]
  02ec6	8b 80 f8 05 00
	00		 mov	 eax, DWORD PTR [rax+1528]
  02ecc	c1 e8 0f	 shr	 eax, 15
  02ecf	83 e0 01	 and	 eax, 1
  02ed2	85 c0		 test	 eax, eax
  02ed4	74 14		 je	 SHORT $LN238@tcpnje_exe
  02ed6	48 8b 44 24 30	 mov	 rax, QWORD PTR tn$[rsp]
  02edb	8b 80 4c 01 00
	00		 mov	 eax, DWORD PTR [rax+332]
  02ee1	25 00 10 00 00	 and	 eax, 4096		; 00001000H
  02ee6	85 c0		 test	 eax, eax
  02ee8	75 14		 jne	 SHORT $LN237@tcpnje_exe
$LN238@tcpnje_exe:
  02eea	48 8b 44 24 30	 mov	 rax, QWORD PTR tn$[rsp]
  02eef	8b 80 50 01 00
	00		 mov	 eax, DWORD PTR [rax+336]
  02ef5	25 00 10 00 00	 and	 eax, 4096		; 00001000H
  02efa	85 c0		 test	 eax, eax
  02efc	74 30		 je	 SHORT $LN236@tcpnje_exe
$LN237@tcpnje_exe:
  02efe	48 8b 44 24 30	 mov	 rax, QWORD PTR tn$[rsp]
  02f03	48 63 80 54 01
	00 00		 movsxd	 rax, DWORD PTR [rax+340]
  02f0a	48 8d 0d 00 00
	00 00		 lea	 rcx, OFFSET FLAT:tcpnje_state_text
  02f11	48 8b 94 24 80
	01 00 00	 mov	 rdx, QWORD PTR dev$[rsp]
  02f19	0f b7 52 48	 movzx	 edx, WORD PTR [rdx+72]
  02f1d	4c 8b 04 c1	 mov	 r8, QWORD PTR [rcx+rax*8]
  02f21	48 8d 0d 00 00
	00 00		 lea	 rcx, OFFSET FLAT:$SG160911
  02f28	ff 15 00 00 00
	00		 call	 QWORD PTR __imp_logmsg
$LN236@tcpnje_exe:

; 3985 :                             dev->devnum, tcpnje_state_text[tn->state]);
; 3986 : 
; 3987 :                     /* Yes. Drop it on the floor.  It would get eaten at the far end anyway. */
; 3988 :                     *residual = 0;

  02f2e	48 8b 84 24 d0
	01 00 00	 mov	 rax, QWORD PTR residual$[rsp]
  02f36	c7 00 00 00 00
	00		 mov	 DWORD PTR [rax], 0

; 3989 :                     *unitstat = CSW_CE | CSW_DE;

  02f3c	48 8b 84 24 c8
	01 00 00	 mov	 rax, QWORD PTR unitstat$[rsp]
  02f44	c6 00 0c	 mov	 BYTE PTR [rax], 12

; 3990 :                     break;

  02f47	e9 03 0b 00 00	 jmp	 $LN14@tcpnje_exe
$LN235@tcpnje_exe:

; 3991 :                 }
; 3992 :                 /* Drop DLE ETB as these are not used in TCPNJE protocol. */
; 3993 :                 /* They will be recreated at the receiving end using the  */
; 3994 :                 /* TTR length. We could have RSCS neither send nor expect */
; 3995 :                 /* them but then we would lose compatibility with the     */
; 3996 :                 /* real(ish) 2703 (if we still have it).                  */
; 3997 :                 if ((count == 2) && !memcmp(tpb->start, DLE ETB, 2))

  02f4c	83 bc 24 a0 01
	00 00 02	 cmp	 DWORD PTR count$[rsp], 2
  02f54	0f 85 d6 00 00
	00		 jne	 $LN239@tcpnje_exe
  02f5a	48 8b 44 24 40	 mov	 rax, QWORD PTR tpb$[rsp]
  02f5f	41 b8 02 00 00
	00		 mov	 r8d, 2
  02f65	48 8d 15 00 00
	00 00		 lea	 rdx, OFFSET FLAT:$SG160913
  02f6c	48 8b c8	 mov	 rcx, rax
  02f6f	e8 00 00 00 00	 call	 memcmp
  02f74	85 c0		 test	 eax, eax
  02f76	0f 85 b4 00 00
	00		 jne	 $LN239@tcpnje_exe

; 3998 :                 {
; 3999 :                     DBGMSG(4096, "HHCTN163D %4.4X:TCPNJE WRITE - dropping outgoing DLE ETB - connection state %s\n",

  02f7c	48 8b 44 24 30	 mov	 rax, QWORD PTR tn$[rsp]
  02f81	48 8b 00	 mov	 rax, QWORD PTR [rax]
  02f84	8b 80 f8 05 00
	00		 mov	 eax, DWORD PTR [rax+1528]
  02f8a	c1 e8 0f	 shr	 eax, 15
  02f8d	83 e0 01	 and	 eax, 1
  02f90	85 c0		 test	 eax, eax
  02f92	74 14		 je	 SHORT $LN242@tcpnje_exe
  02f94	48 8b 44 24 30	 mov	 rax, QWORD PTR tn$[rsp]
  02f99	8b 80 4c 01 00
	00		 mov	 eax, DWORD PTR [rax+332]
  02f9f	25 00 10 00 00	 and	 eax, 4096		; 00001000H
  02fa4	85 c0		 test	 eax, eax
  02fa6	75 14		 jne	 SHORT $LN241@tcpnje_exe
$LN242@tcpnje_exe:
  02fa8	48 8b 44 24 30	 mov	 rax, QWORD PTR tn$[rsp]
  02fad	8b 80 50 01 00
	00		 mov	 eax, DWORD PTR [rax+336]
  02fb3	25 00 10 00 00	 and	 eax, 4096		; 00001000H
  02fb8	85 c0		 test	 eax, eax
  02fba	74 30		 je	 SHORT $LN240@tcpnje_exe
$LN241@tcpnje_exe:
  02fbc	48 8b 44 24 30	 mov	 rax, QWORD PTR tn$[rsp]
  02fc1	48 63 80 54 01
	00 00		 movsxd	 rax, DWORD PTR [rax+340]
  02fc8	48 8d 0d 00 00
	00 00		 lea	 rcx, OFFSET FLAT:tcpnje_state_text
  02fcf	48 8b 94 24 80
	01 00 00	 mov	 rdx, QWORD PTR dev$[rsp]
  02fd7	0f b7 52 48	 movzx	 edx, WORD PTR [rdx+72]
  02fdb	4c 8b 04 c1	 mov	 r8, QWORD PTR [rcx+rax*8]
  02fdf	48 8d 0d 00 00
	00 00		 lea	 rcx, OFFSET FLAT:$SG160917
  02fe6	ff 15 00 00 00
	00		 call	 QWORD PTR __imp_logmsg
$LN240@tcpnje_exe:

; 4000 :                             dev->devnum, tcpnje_state_text[tn->state]);
; 4001 : 
; 4002 :                     /* If we are connected and signed on, count this as an        */
; 4003 :                     /* outgoing buffer which should have an ACK faked for it so   */
; 4004 :                     /* the read following this write is not delayed by waiting    */
; 4005 :                     /* for a timeout when not idle.                               */
; 4006 :                     if (tn->state > NJEACKRCD)

  02fec	48 8b 44 24 30	 mov	 rax, QWORD PTR tn$[rsp]
  02ff1	83 b8 54 01 00
	00 07		 cmp	 DWORD PTR [rax+340], 7
  02ff8	7e 18		 jle	 SHORT $LN243@tcpnje_exe

; 4007 :                     {
; 4008 :                         tn->ackcount++;

  02ffa	48 8b 44 24 30	 mov	 rax, QWORD PTR tn$[rsp]
  02fff	8b 80 08 01 00
	00		 mov	 eax, DWORD PTR [rax+264]
  03005	ff c0		 inc	 eax
  03007	48 8b 4c 24 30	 mov	 rcx, QWORD PTR tn$[rsp]
  0300c	89 81 08 01 00
	00		 mov	 DWORD PTR [rcx+264], eax
$LN243@tcpnje_exe:

; 4009 :                     }
; 4010 :                     *residual = 0;

  03012	48 8b 84 24 d0
	01 00 00	 mov	 rax, QWORD PTR residual$[rsp]
  0301a	c7 00 00 00 00
	00		 mov	 DWORD PTR [rax], 0

; 4011 :                     *unitstat = CSW_CE | CSW_DE;

  03020	48 8b 84 24 c8
	01 00 00	 mov	 rax, QWORD PTR unitstat$[rsp]
  03028	c6 00 0c	 mov	 BYTE PTR [rax], 12

; 4012 :                     break;

  0302b	e9 1f 0a 00 00	 jmp	 $LN14@tcpnje_exe
$LN239@tcpnje_exe:

; 4013 :                 }
; 4014 :                 /* If we are connected and signed on, we can take some shortcuts  */
; 4015 :                 if (tn->state > NJEACKRCD)

  03030	48 8b 44 24 30	 mov	 rax, QWORD PTR tn$[rsp]
  03035	83 b8 54 01 00
	00 07		 cmp	 DWORD PTR [rax+340], 7
  0303c	0f 8e c8 00 00
	00		 jle	 $LN244@tcpnje_exe

; 4016 :                 {
; 4017 :                     /* If we are attempting to send DLE ACK0 then drop it as      */
; 4018 :                     /* the other end will fake it for us.                         */
; 4019 :                     if ((count == 2) && !memcmp(tpb->start, DLE ACK0, 2))

  03042	83 bc 24 a0 01
	00 00 02	 cmp	 DWORD PTR count$[rsp], 2
  0304a	0f 85 ba 00 00
	00		 jne	 $LN245@tcpnje_exe
  03050	48 8b 44 24 40	 mov	 rax, QWORD PTR tpb$[rsp]
  03055	41 b8 02 00 00
	00		 mov	 r8d, 2
  0305b	48 8d 15 00 00
	00 00		 lea	 rdx, OFFSET FLAT:$SG160921
  03062	48 8b c8	 mov	 rcx, rax
  03065	e8 00 00 00 00	 call	 memcmp
  0306a	85 c0		 test	 eax, eax
  0306c	0f 85 98 00 00
	00		 jne	 $LN245@tcpnje_exe

; 4020 :                     {
; 4021 :                         DBGMSG(4096, "HHCTN164D %4.4X:TCPNJE WRITE - Dropping outgoing DLE ACK0 - Connection state %s\n",

  03072	48 8b 44 24 30	 mov	 rax, QWORD PTR tn$[rsp]
  03077	48 8b 00	 mov	 rax, QWORD PTR [rax]
  0307a	8b 80 f8 05 00
	00		 mov	 eax, DWORD PTR [rax+1528]
  03080	c1 e8 0f	 shr	 eax, 15
  03083	83 e0 01	 and	 eax, 1
  03086	85 c0		 test	 eax, eax
  03088	74 14		 je	 SHORT $LN248@tcpnje_exe
  0308a	48 8b 44 24 30	 mov	 rax, QWORD PTR tn$[rsp]
  0308f	8b 80 4c 01 00
	00		 mov	 eax, DWORD PTR [rax+332]
  03095	25 00 10 00 00	 and	 eax, 4096		; 00001000H
  0309a	85 c0		 test	 eax, eax
  0309c	75 14		 jne	 SHORT $LN247@tcpnje_exe
$LN248@tcpnje_exe:
  0309e	48 8b 44 24 30	 mov	 rax, QWORD PTR tn$[rsp]
  030a3	8b 80 50 01 00
	00		 mov	 eax, DWORD PTR [rax+336]
  030a9	25 00 10 00 00	 and	 eax, 4096		; 00001000H
  030ae	85 c0		 test	 eax, eax
  030b0	74 30		 je	 SHORT $LN246@tcpnje_exe
$LN247@tcpnje_exe:
  030b2	48 8b 44 24 30	 mov	 rax, QWORD PTR tn$[rsp]
  030b7	48 63 80 54 01
	00 00		 movsxd	 rax, DWORD PTR [rax+340]
  030be	48 8d 0d 00 00
	00 00		 lea	 rcx, OFFSET FLAT:tcpnje_state_text
  030c5	48 8b 94 24 80
	01 00 00	 mov	 rdx, QWORD PTR dev$[rsp]
  030cd	0f b7 52 48	 movzx	 edx, WORD PTR [rdx+72]
  030d1	4c 8b 04 c1	 mov	 r8, QWORD PTR [rcx+rax*8]
  030d5	48 8d 0d 00 00
	00 00		 lea	 rcx, OFFSET FLAT:$SG160925
  030dc	ff 15 00 00 00
	00		 call	 QWORD PTR __imp_logmsg
$LN246@tcpnje_exe:

; 4022 :                                 dev->devnum, tcpnje_state_text[tn->state]);
; 4023 : 
; 4024 :                         *residual = 0;

  030e2	48 8b 84 24 d0
	01 00 00	 mov	 rax, QWORD PTR residual$[rsp]
  030ea	c7 00 00 00 00
	00		 mov	 DWORD PTR [rax], 0

; 4025 :                         *unitstat = CSW_CE | CSW_DE;

  030f0	48 8b 84 24 c8
	01 00 00	 mov	 rax, QWORD PTR unitstat$[rsp]
  030f8	c6 00 0c	 mov	 BYTE PTR [rax], 12

; 4026 : 
; 4027 :                         /* RSCS has no real data to send out if it sent DLE ACK0. */
; 4028 :                         /* In order to avoid causing delays, we should send the   */
; 4029 :                         /* accumulated output buffer out now instead of waiting   */
; 4030 :                         /* around until RSCS has something else to send out.      */
; 4031 :                         tcpnje_flush(tn);

  030fb	48 8b 4c 24 30	 mov	 rcx, QWORD PTR tn$[rsp]
  03100	e8 00 00 00 00	 call	 tcpnje_flush

; 4032 :                         break;

  03105	e9 45 09 00 00	 jmp	 $LN14@tcpnje_exe
$LN245@tcpnje_exe:
$LN244@tcpnje_exe:

; 4033 :                     }
; 4034 :                 }
; 4035 :                 /* Is this an attempt to become primary when we have already accepted the other end as primary?  Usually */
; 4036 :                 /* the end which connects out and sends the TCPNJE OPEN and receives the TCPNJE ACK then sends SOH ENQ   */
; 4037 :                 /* in an attempt to become primary.  If the other end is in this state, we are in the NJE ACK sent state */
; 4038 :                 /* and we want to avoid trying to become primary as well.  However, the other end can instead send       */
; 4039 :                 /* SYN NAK in an attempt to become secondary.  So, if we have seen an incoming SYN NAK, allow us to send */
; 4040 :                 /* out SOH ENQ to become primary.                                                                        */
; 4041 :                 if  ((count == 2) && !memcmp(tpb->start, SOH ENQ, 2) && (tn->state == NJEACKSNT) && !tn->synnakreceived)

  0310a	83 bc 24 a0 01
	00 00 02	 cmp	 DWORD PTR count$[rsp], 2
  03112	0f 85 db 00 00
	00		 jne	 $LN249@tcpnje_exe
  03118	48 8b 44 24 40	 mov	 rax, QWORD PTR tpb$[rsp]
  0311d	41 b8 02 00 00
	00		 mov	 r8d, 2
  03123	48 8d 15 00 00
	00 00		 lea	 rdx, OFFSET FLAT:$SG160927
  0312a	48 8b c8	 mov	 rcx, rax
  0312d	e8 00 00 00 00	 call	 memcmp
  03132	85 c0		 test	 eax, eax
  03134	0f 85 b9 00 00
	00		 jne	 $LN249@tcpnje_exe
  0313a	48 8b 44 24 30	 mov	 rax, QWORD PTR tn$[rsp]
  0313f	83 b8 54 01 00
	00 06		 cmp	 DWORD PTR [rax+340], 6
  03146	0f 85 a7 00 00
	00		 jne	 $LN249@tcpnje_exe
  0314c	48 8b 44 24 30	 mov	 rax, QWORD PTR tn$[rsp]
  03151	8b 80 64 01 00
	00		 mov	 eax, DWORD PTR [rax+356]
  03157	c1 e8 0b	 shr	 eax, 11
  0315a	83 e0 01	 and	 eax, 1
  0315d	85 c0		 test	 eax, eax
  0315f	0f 85 8e 00 00
	00		 jne	 $LN249@tcpnje_exe

; 4042 :                 {
; 4043 :                     /* Other end is going to be primary.  Drop data and pretend write succeeded. */
; 4044 : 
; 4045 :                     DBGMSG(4096, "HHCTN165D %4.4X:TCPNJE WRITE - dropping outgoing SOH ENQ - Connection state: %s\n",

  03165	48 8b 44 24 30	 mov	 rax, QWORD PTR tn$[rsp]
  0316a	48 8b 00	 mov	 rax, QWORD PTR [rax]
  0316d	8b 80 f8 05 00
	00		 mov	 eax, DWORD PTR [rax+1528]
  03173	c1 e8 0f	 shr	 eax, 15
  03176	83 e0 01	 and	 eax, 1
  03179	85 c0		 test	 eax, eax
  0317b	74 14		 je	 SHORT $LN252@tcpnje_exe
  0317d	48 8b 44 24 30	 mov	 rax, QWORD PTR tn$[rsp]
  03182	8b 80 4c 01 00
	00		 mov	 eax, DWORD PTR [rax+332]
  03188	25 00 10 00 00	 and	 eax, 4096		; 00001000H
  0318d	85 c0		 test	 eax, eax
  0318f	75 14		 jne	 SHORT $LN251@tcpnje_exe
$LN252@tcpnje_exe:
  03191	48 8b 44 24 30	 mov	 rax, QWORD PTR tn$[rsp]
  03196	8b 80 50 01 00
	00		 mov	 eax, DWORD PTR [rax+336]
  0319c	25 00 10 00 00	 and	 eax, 4096		; 00001000H
  031a1	85 c0		 test	 eax, eax
  031a3	74 30		 je	 SHORT $LN250@tcpnje_exe
$LN251@tcpnje_exe:
  031a5	48 8b 44 24 30	 mov	 rax, QWORD PTR tn$[rsp]
  031aa	48 63 80 54 01
	00 00		 movsxd	 rax, DWORD PTR [rax+340]
  031b1	48 8d 0d 00 00
	00 00		 lea	 rcx, OFFSET FLAT:tcpnje_state_text
  031b8	48 8b 94 24 80
	01 00 00	 mov	 rdx, QWORD PTR dev$[rsp]
  031c0	0f b7 52 48	 movzx	 edx, WORD PTR [rdx+72]
  031c4	4c 8b 04 c1	 mov	 r8, QWORD PTR [rcx+rax*8]
  031c8	48 8d 0d 00 00
	00 00		 lea	 rcx, OFFSET FLAT:$SG160931
  031cf	ff 15 00 00 00
	00		 call	 QWORD PTR __imp_logmsg
$LN250@tcpnje_exe:

; 4046 :                            dev->devnum, tcpnje_state_text[tn->state]);
; 4047 : 
; 4048 :                     *residual = 0;

  031d5	48 8b 84 24 d0
	01 00 00	 mov	 rax, QWORD PTR residual$[rsp]
  031dd	c7 00 00 00 00
	00		 mov	 DWORD PTR [rax], 0

; 4049 :                     *unitstat = CSW_CE | CSW_DE;

  031e3	48 8b 84 24 c8
	01 00 00	 mov	 rax, QWORD PTR unitstat$[rsp]
  031eb	c6 00 0c	 mov	 BYTE PTR [rax], 12

; 4050 :                     break;

  031ee	e9 5c 08 00 00	 jmp	 $LN14@tcpnje_exe
$LN249@tcpnje_exe:

; 4051 :                 }
; 4052 : 
; 4053 :                 /* Check for SYN NAK indicating this end wants to be secondary (this has not been tested) */
; 4054 :                 if ((count == 2) && !memcmp(tpb->start, SYN NAK, 2) && (tn->state == NJEACKRCD) && !tn->synnaksent)

  031f3	83 bc 24 a0 01
	00 00 02	 cmp	 DWORD PTR count$[rsp], 2
  031fb	0f 85 d7 00 00
	00		 jne	 $LN253@tcpnje_exe
  03201	48 8b 44 24 40	 mov	 rax, QWORD PTR tpb$[rsp]
  03206	41 b8 02 00 00
	00		 mov	 r8d, 2
  0320c	48 8d 15 00 00
	00 00		 lea	 rdx, OFFSET FLAT:$SG160933
  03213	48 8b c8	 mov	 rcx, rax
  03216	e8 00 00 00 00	 call	 memcmp
  0321b	85 c0		 test	 eax, eax
  0321d	0f 85 b5 00 00
	00		 jne	 $LN253@tcpnje_exe
  03223	48 8b 44 24 30	 mov	 rax, QWORD PTR tn$[rsp]
  03228	83 b8 54 01 00
	00 07		 cmp	 DWORD PTR [rax+340], 7
  0322f	0f 85 a3 00 00
	00		 jne	 $LN253@tcpnje_exe
  03235	48 8b 44 24 30	 mov	 rax, QWORD PTR tn$[rsp]
  0323a	8b 80 64 01 00
	00		 mov	 eax, DWORD PTR [rax+356]
  03240	c1 e8 0c	 shr	 eax, 12
  03243	83 e0 01	 and	 eax, 1
  03246	85 c0		 test	 eax, eax
  03248	0f 85 8a 00 00
	00		 jne	 $LN253@tcpnje_exe

; 4055 :                 {
; 4056 :                     tn->synnaksent = 1;

  0324e	48 8b 44 24 30	 mov	 rax, QWORD PTR tn$[rsp]
  03253	8b 80 64 01 00
	00		 mov	 eax, DWORD PTR [rax+356]
  03259	0f ba e8 0c	 bts	 eax, 12
  0325d	48 8b 4c 24 30	 mov	 rcx, QWORD PTR tn$[rsp]
  03262	89 81 64 01 00
	00		 mov	 DWORD PTR [rcx+356], eax

; 4057 : 
; 4058 :                     DBGMSG(4096, "HHCTN171D %4.4X:TCPNJE WRITE - outgoing SYN NAK - Connection state: %s\n",

  03268	48 8b 44 24 30	 mov	 rax, QWORD PTR tn$[rsp]
  0326d	48 8b 00	 mov	 rax, QWORD PTR [rax]
  03270	8b 80 f8 05 00
	00		 mov	 eax, DWORD PTR [rax+1528]
  03276	c1 e8 0f	 shr	 eax, 15
  03279	83 e0 01	 and	 eax, 1
  0327c	85 c0		 test	 eax, eax
  0327e	74 14		 je	 SHORT $LN256@tcpnje_exe
  03280	48 8b 44 24 30	 mov	 rax, QWORD PTR tn$[rsp]
  03285	8b 80 4c 01 00
	00		 mov	 eax, DWORD PTR [rax+332]
  0328b	25 00 10 00 00	 and	 eax, 4096		; 00001000H
  03290	85 c0		 test	 eax, eax
  03292	75 14		 jne	 SHORT $LN255@tcpnje_exe
$LN256@tcpnje_exe:
  03294	48 8b 44 24 30	 mov	 rax, QWORD PTR tn$[rsp]
  03299	8b 80 50 01 00
	00		 mov	 eax, DWORD PTR [rax+336]
  0329f	25 00 10 00 00	 and	 eax, 4096		; 00001000H
  032a4	85 c0		 test	 eax, eax
  032a6	74 30		 je	 SHORT $LN254@tcpnje_exe
$LN255@tcpnje_exe:
  032a8	48 8b 44 24 30	 mov	 rax, QWORD PTR tn$[rsp]
  032ad	48 63 80 54 01
	00 00		 movsxd	 rax, DWORD PTR [rax+340]
  032b4	48 8d 0d 00 00
	00 00		 lea	 rcx, OFFSET FLAT:tcpnje_state_text
  032bb	48 8b 94 24 80
	01 00 00	 mov	 rdx, QWORD PTR dev$[rsp]
  032c3	0f b7 52 48	 movzx	 edx, WORD PTR [rdx+72]
  032c7	4c 8b 04 c1	 mov	 r8, QWORD PTR [rcx+rax*8]
  032cb	48 8d 0d 00 00
	00 00		 lea	 rcx, OFFSET FLAT:$SG160937
  032d2	ff 15 00 00 00
	00		 call	 QWORD PTR __imp_logmsg
$LN254@tcpnje_exe:
$LN253@tcpnje_exe:

; 4059 :                            dev->devnum, tcpnje_state_text[tn->state]);
; 4060 :                 }
; 4061 : 
; 4062 :                 /* Check if the I/O was interrupted */
; 4063 :                 if (tn->haltpending)

  032d8	48 8b 44 24 30	 mov	 rax, QWORD PTR tn$[rsp]
  032dd	8b 80 64 01 00
	00		 mov	 eax, DWORD PTR [rax+356]
  032e3	c1 e8 06	 shr	 eax, 6
  032e6	83 e0 01	 and	 eax, 1
  032e9	85 c0		 test	 eax, eax
  032eb	74 3a		 je	 SHORT $LN257@tcpnje_exe

; 4064 :                 {
; 4065 :                     tn->haltpending = 0;

  032ed	48 8b 44 24 30	 mov	 rax, QWORD PTR tn$[rsp]
  032f2	8b 80 64 01 00
	00		 mov	 eax, DWORD PTR [rax+356]
  032f8	83 e0 bf	 and	 eax, -65		; ffffffbfH
  032fb	48 8b 4c 24 30	 mov	 rcx, QWORD PTR tn$[rsp]
  03300	89 81 64 01 00
	00		 mov	 DWORD PTR [rcx+356], eax

; 4066 :                     *residual = count;

  03306	48 8b 84 24 d0
	01 00 00	 mov	 rax, QWORD PTR residual$[rsp]
  0330e	8b 8c 24 a0 01
	00 00		 mov	 ecx, DWORD PTR count$[rsp]
  03315	89 08		 mov	 DWORD PTR [rax], ecx

; 4067 :                     *unitstat = CSW_CE | CSW_DE | CSW_UX;

  03317	48 8b 84 24 c8
	01 00 00	 mov	 rax, QWORD PTR unitstat$[rsp]
  0331f	c6 00 0d	 mov	 BYTE PTR [rax], 13

; 4068 :                     break;

  03322	e9 28 07 00 00	 jmp	 $LN14@tcpnje_exe
$LN257@tcpnje_exe:

; 4069 :                 }
; 4070 : 
; 4071 :                 /* At this point, we have used up every possible excuse not to send data to the  */
; 4072 :                 /* network except for putting it in a buffer and leaving it there to send later. */
; 4073 : 
; 4074 :                 /* Is there room in the output buffer for this record */
; 4075 :                 if (tn->tcpoutbuf.inptr.address - tn->tcpoutbuf.base.address +
; 4076 :                     2 * SIZEOF_TTR + count > tn->tcpoutbuf.size)

  03327	48 8b 44 24 30	 mov	 rax, QWORD PTR tn$[rsp]
  0332c	48 8b 4c 24 30	 mov	 rcx, QWORD PTR tn$[rsp]
  03331	48 8b 89 e0 00
	00 00		 mov	 rcx, QWORD PTR [rcx+224]
  03338	48 8b 80 e8 00
	00 00		 mov	 rax, QWORD PTR [rax+232]
  0333f	48 2b c1	 sub	 rax, rcx
  03342	8b 8c 24 a0 01
	00 00		 mov	 ecx, DWORD PTR count$[rsp]
  03349	48 8d 44 08 08	 lea	 rax, QWORD PTR [rax+rcx+8]
  0334e	48 8b 4c 24 30	 mov	 rcx, QWORD PTR tn$[rsp]
  03353	48 3b 81 f8 00
	00 00		 cmp	 rax, QWORD PTR [rcx+248]
  0335a	76 0a		 jbe	 SHORT $LN258@tcpnje_exe

; 4077 :                 {
; 4078 :                     /* No room in the buffer.  Send out the current buffer first.    */
; 4079 :                     tcpnje_flush(tn);

  0335c	48 8b 4c 24 30	 mov	 rcx, QWORD PTR tn$[rsp]
  03361	e8 00 00 00 00	 call	 tcpnje_flush
$LN258@tcpnje_exe:

; 4080 :                 }
; 4081 : 
; 4082 :                 /* Is there room in the buffer now? If not, there may be a problem.  */
; 4083 :                 if (tn->tcpoutbuf.inptr.address - tn->tcpoutbuf.base.address +
; 4084 :                     2 * SIZEOF_TTR + count > tn->tcpoutbuf.size)

  03366	48 8b 44 24 30	 mov	 rax, QWORD PTR tn$[rsp]
  0336b	48 8b 4c 24 30	 mov	 rcx, QWORD PTR tn$[rsp]
  03370	48 8b 89 e0 00
	00 00		 mov	 rcx, QWORD PTR [rcx+224]
  03377	48 8b 80 e8 00
	00 00		 mov	 rax, QWORD PTR [rax+232]
  0337e	48 2b c1	 sub	 rax, rcx
  03381	8b 8c 24 a0 01
	00 00		 mov	 ecx, DWORD PTR count$[rsp]
  03388	48 8d 44 08 08	 lea	 rax, QWORD PTR [rax+rcx+8]
  0338d	48 8b 4c 24 30	 mov	 rcx, QWORD PTR tn$[rsp]
  03392	48 3b 81 f8 00
	00 00		 cmp	 rax, QWORD PTR [rcx+248]
  03399	0f 86 b2 00 00
	00		 jbe	 $LN259@tcpnje_exe

; 4085 :                 {
; 4086 :                     /* All we can do now is have the write fail.  Believe it or not, */
; 4087 :                     /* it appears that RSCS will cope and retry the same write again */
; 4088 :                     /* and all will still be well, at least for some RSCS versions.  */
; 4089 :                     /* I'm not looking forward to trying this with a CTC though.     */
; 4090 :                     DBGMSG(16, "HHCTN095E %4.4X:TCPNJE WRITE - outgoing record size %d will not fit in output buffer\n",

  0339f	48 8b 44 24 30	 mov	 rax, QWORD PTR tn$[rsp]
  033a4	48 8b 00	 mov	 rax, QWORD PTR [rax]
  033a7	8b 80 f8 05 00
	00		 mov	 eax, DWORD PTR [rax+1528]
  033ad	c1 e8 0f	 shr	 eax, 15
  033b0	83 e0 01	 and	 eax, 1
  033b3	85 c0		 test	 eax, eax
  033b5	74 12		 je	 SHORT $LN262@tcpnje_exe
  033b7	48 8b 44 24 30	 mov	 rax, QWORD PTR tn$[rsp]
  033bc	8b 80 4c 01 00
	00		 mov	 eax, DWORD PTR [rax+332]
  033c2	83 e0 10	 and	 eax, 16
  033c5	85 c0		 test	 eax, eax
  033c7	75 12		 jne	 SHORT $LN261@tcpnje_exe
$LN262@tcpnje_exe:
  033c9	48 8b 44 24 30	 mov	 rax, QWORD PTR tn$[rsp]
  033ce	8b 80 50 01 00
