; Listing generated by Microsoft (R) Optimizing Compiler Version 19.34.31937.0 

include listing.inc

INCLUDELIB MSVCRTD
INCLUDELIB OLDNAMES

_DATA	SEGMENT
$SG160331 DB	'none', 00H
	ORG $+3
$SG160332 DB	'index', 00H
	ORG $+2
$SG160333 DB	'count', 00H
	ORG $+2
$SG160334 DB	'key', 00H
$SG160335 DB	'data', 00H
	ORG $+3
$SG160336 DB	'eot', 00H
$SG161457 DB	'info', 00H
	ORG $+3
$SG161458 DB	'cpu', 00H
$SG161461 DB	'msg', 00H
$SG161459 DB	'traceopt', 00H
	ORG $+3
$SG161460 DB	'count', 00H
	ORG $+2
$SG161465 DB	'opcode', 00H
	ORG $+5
$SG161462 DB	'storage', 00H
$SG161463 DB	'date', 00H
	ORG $+3
$SG161464 DB	'time', 00H
	ORG $+3
$SG161466 DB	'msglvl', 00H
	ORG $+1
$SG161467 DB	'unit', 00H
	ORG $+3
$SG161468 DB	'codepage', 00H
_DATA	ENDS
CONST	SEGMENT
CKD_ENDTRK DB	0ffH
	DB	0ffH
	DB	0ffH
	DB	0ffH
	DB	0ffH
	DB	0ffH
	DB	0ffH
	DB	0ffH
?hbuf_end@?4??print_op_stor@@9@9 DB 00H			; `print_op_stor'::`5'::hbuf_end
	DB	02H
	DB	04H
	DB	06H
	DB	08H
	DB	0bH
	DB	0dH
	DB	0fH
	DB	011H
	DB	014H
	DB	016H
	DB	018H
	DB	01aH
	DB	01dH
	DB	01fH
	DB	021H
	DB	023H
CONST	ENDS
PUBLIC	__local_stdio_printf_options
PUBLIC	__local_stdio_scanf_options
PUBLIC	_vfprintf_l
PUBLIC	printf
PUBLIC	_vsnprintf_s_l
PUBLIC	_vsnprintf_s
PUBLIC	_vsscanf_l
PUBLIC	sscanf
PUBLIC	store_dw_noswap
PUBLIC	main
PUBLIC	__real@4059000000000000
EXTRN	__report_rangecheckfailure:PROC
EXTRN	__imp_isprint:PROC
EXTRN	__imp_toupper:PROC
EXTRN	__imp__errno:PROC
EXTRN	strchr:PROC
EXTRN	__imp__stricmp:PROC
EXTRN	strlen:PROC
EXTRN	__imp_strpbrk:PROC
EXTRN	__imp_IsDebuggerPresent:PROC
EXTRN	__imp_OutputDebugStringA:PROC
EXTRN	__imp_free:PROC
EXTRN	__imp_malloc:PROC
EXTRN	__imp_realloc:PROC
EXTRN	__imp_exit:PROC
EXTRN	_byteswap_uint64:PROC
EXTRN	__imp_isatty:PROC
EXTRN	__imp___acrt_iob_func:PROC
EXTRN	__imp_fopen:PROC
EXTRN	__imp_fread:PROC
EXTRN	__imp__fseeki64:PROC
EXTRN	__imp__ftelli64:PROC
EXTRN	__imp___stdio_common_vfprintf:PROC
EXTRN	__imp___stdio_common_vsnprintf_s:PROC
EXTRN	__imp___stdio_common_vsscanf:PROC
EXTRN	__imp_fileno:PROC
EXTRN	__imp__difftime64:PROC
EXTRN	__imp__gmtime64:PROC
EXTRN	__imp__mktime64:PROC
EXTRN	__imp__time64:PROC
EXTRN	__imp_strlcpy:PROC
EXTRN	__imp_strlcat:PROC
EXTRN	__imp_timeval_subtract:PROC
EXTRN	__imp_trimloc:PROC
EXTRN	__imp_FormatTIMEVAL:PROC
EXTRN	__imp_fmt_S64:PROC
EXTRN	__imp_initialize_utility:PROC
EXTRN	__imp_rtrim:PROC
EXTRN	__imp_is_numeric:PROC
EXTRN	__imp_is_hex:PROC
EXTRN	__imp_is_hex_l:PROC
EXTRN	__imp_ptyp2short:PROC
EXTRN	__imp_do_make_psw64:PROC
EXTRN	__imp_PIC2Name:PROC
EXTRN	__imp_order2name:PROC
EXTRN	__imp_perc2name:PROC
EXTRN	__imp_FormatORB:PROC
EXTRN	__imp_are_big_endian:PROC
EXTRN	__imp_tf_are_swaps_needed:PROC
EXTRN	__imp_tf_swap_sys:PROC
EXTRN	__imp_tf_swap_hdr:PROC
EXTRN	__imp_tf_swap_rec:PROC
EXTRN	__imp_w32_strerror:PROC
EXTRN	__imp_hostpath:PROC
EXTRN	__imp_w32_snprintf:PROC
EXTRN	__imp_w32_fprintf:PROC
EXTRN	__imp_w32_fclose:PROC
EXTRN	__imp_valid_codepage_name:PROC
EXTRN	__imp_set_codepage:PROC
EXTRN	__imp_guest_to_host:PROC
EXTRN	__imp_str_guest_to_host:PROC
EXTRN	__imp_prt_guest_to_host:PROC
EXTRN	__imp_iprint_router_func:PROC
EXTRN	__imp_txf_why_str:PROC
EXTRN	__imp_the_real_panel_command:PROC
EXTRN	__imp_getopt_long:PROC
EXTRN	__imp_default_sns:PROC
EXTRN	__imp_fwritemsg:PROC
EXTRN	__imp_logmsg:PROC
EXTRN	__GSHandlerCheck:PROC
EXTRN	__security_check_cookie:PROC
EXTRN	memcmp:PROC
EXTRN	__imp_sysblk:BYTE
EXTRN	__imp_extgui:DWORD
EXTRN	__imp_opterr:DWORD
EXTRN	__imp_optind:DWORD
EXTRN	__imp_optarg:QWORD
EXTRN	__ImageBase:BYTE
EXTRN	__security_cookie:QWORD
EXTRN	_fltused:DWORD
_DATA	SEGMENT
COMM	?_OptionsStorage@?1??__local_stdio_printf_options@@9@9:QWORD							; `__local_stdio_printf_options'::`2'::_OptionsStorage
COMM	?_OptionsStorage@?1??__local_stdio_scanf_options@@9@9:QWORD							; `__local_stdio_scanf_options'::`2'::_OptionsStorage
_DATA	ENDS
_BSS	SEGMENT
pgm	DQ	01H DUP (?)
inf	DQ	01H DUP (?)
arg_errs DD	01H DUP (?)
info_only DB	01H DUP (?)
	ALIGN	4

regsfirst DB	01H DUP (?)
	ALIGN	4

noregs	DB	01H DUP (?)
	ALIGN	4

doendswap DB	01H DUP (?)
	ALIGN	4

out_istty DB	01H DUP (?)
	ALIGN	4

err_istty DB	01H DUP (?)
	ALIGN	8

filesize DQ	01H DUP (?)
cpu_map	DQ	01H DUP (?)
recnum	DQ	01H DUP (?)
fromrec	DQ	01H DUP (?)
totins	DQ	01H DUP (?)
totios	DQ	01H DUP (?)
pMsgMOPT DQ	01H DUP (?)
nMsgMOPT DD	01H DUP (?)
	ALIGN	8

pStorMOPT DQ	01H DUP (?)
nStorMOPT DD	01H DUP (?)
	ALIGN	8

pInstMOPT DQ	01H DUP (?)
nInstMOPT DD	01H DUP (?)
	ALIGN	8

pUnitMOPT DQ	01H DUP (?)
nUnitMOPT DD	01H DUP (?)
	ALIGN	8

beg_tim	DQ	01H DUP (?)
end_tim	DQ	01H DUP (?)
beg_dat	DQ	01H DUP (?)
end_dat	DQ	01H DUP (?)
prvcpuad DW	01H DUP (?)
	ALIGN	4

prvdevnum DW	01H DUP (?)
	ALIGN	4

pathname DB	0104H DUP (?)
iobuff	DB	010000H DUP (?)
all_recs DB	09a704H DUP (?)
ptyp_strs DB	0140H DUP (?)
?max_past@?2??is_time_wanted@@9@9 DQ 01H DUP (?)	; `is_time_wanted'::`3'::max_past
?psw_str@?1??fmt_psw_str@@9@9 DB 040H DUP (?)		; `fmt_psw_str'::`2'::psw_str
?psw_inst@?1??fmt_psw_inst_str@@9@9 DB 040H DUP (?)	; `fmt_psw_inst_str'::`2'::psw_inst
$SG159948 DB	01H DUP (?)
	ALIGN	4

?mnemonic_etc@?1??fmt_inst_name@@9@9 DB 080H DUP (?)	; `fmt_inst_name'::`2'::mnemonic_etc
$SG160175 DB	01H DUP (?)
	ALIGN	4

?both_buf@?1??fmtdata@@9@9 DB 060H DUP (?)		; `fmtdata'::`2'::both_buf
$SG160774 DB	01H DUP (?)
_BSS	ENDS
;	COMDAT pdata
pdata	SEGMENT
$pdata$_vfprintf_l DD imagerel $LN3
	DD	imagerel $LN3+68
	DD	imagerel $unwind$_vfprintf_l
pdata	ENDS
;	COMDAT pdata
pdata	SEGMENT
$pdata$printf DD imagerel $LN3
	DD	imagerel $LN3+88
	DD	imagerel $unwind$printf
pdata	ENDS
;	COMDAT pdata
pdata	SEGMENT
$pdata$_vsnprintf_s_l DD imagerel $LN5
	DD	imagerel $LN5+127
	DD	imagerel $unwind$_vsnprintf_s_l
pdata	ENDS
;	COMDAT pdata
pdata	SEGMENT
$pdata$_vsnprintf_s DD imagerel $LN3
	DD	imagerel $LN3+73
	DD	imagerel $unwind$_vsnprintf_s
pdata	ENDS
;	COMDAT pdata
pdata	SEGMENT
$pdata$_vsscanf_l DD imagerel $LN3
	DD	imagerel $LN3+80
	DD	imagerel $unwind$_vsscanf_l
pdata	ENDS
;	COMDAT pdata
pdata	SEGMENT
$pdata$sscanf DD imagerel $LN3
	DD	imagerel $LN3+79
	DD	imagerel $unwind$sscanf
pdata	ENDS
pdata	SEGMENT
$pdata$difftime DD imagerel difftime
	DD	imagerel difftime+35
	DD	imagerel $unwind$difftime
$pdata$gmtime DD imagerel gmtime
	DD	imagerel gmtime+25
	DD	imagerel $unwind$gmtime
$pdata$mktime DD imagerel mktime
	DD	imagerel mktime+25
	DD	imagerel $unwind$mktime
$pdata$time DD	imagerel time
	DD	imagerel time+25
	DD	imagerel $unwind$time
$pdata$DebuggerTrace DD imagerel DebuggerTrace
	DD	imagerel DebuggerTrace+247
	DD	imagerel $unwind$DebuggerTrace
$pdata$show_usage DD imagerel show_usage
	DD	imagerel show_usage+157
	DD	imagerel $unwind$show_usage
$pdata$show_file_progress DD imagerel show_file_progress
	DD	imagerel show_file_progress+482
	DD	imagerel $unwind$show_file_progress
$pdata$gotmask DD imagerel gotmask
	DD	imagerel gotmask+1541
	DD	imagerel $unwind$gotmask
$pdata$recsize DD imagerel recsize
	DD	imagerel recsize+1541
	DD	imagerel $unwind$recsize
$pdata$all_recs_ptr DD imagerel all_recs_ptr
	DD	imagerel all_recs_ptr+3177
	DD	imagerel $unwind$all_recs_ptr
$pdata$ptyp_str DD imagerel ptyp_str
	DD	imagerel ptyp_str+43
	DD	imagerel $unwind$ptyp_str
$pdata$tf_store_psw DD imagerel tf_store_psw
	DD	imagerel tf_store_psw+307
	DD	imagerel $unwind$tf_store_psw
$pdata$is_recnum_wanted DD imagerel is_recnum_wanted
	DD	imagerel is_recnum_wanted+86
	DD	imagerel $unwind$is_recnum_wanted
$pdata$is_msgnum_wanted DD imagerel is_msgnum_wanted
	DD	imagerel is_msgnum_wanted+86
	DD	imagerel $unwind$is_msgnum_wanted
$pdata$is_cpu_wanted DD imagerel is_cpu_wanted
	DD	imagerel is_cpu_wanted+118
	DD	imagerel $unwind$is_cpu_wanted
$pdata$is_time_wanted DD imagerel is_time_wanted
	DD	imagerel is_time_wanted+198
	DD	imagerel $unwind$is_time_wanted
$pdata$is_wanted_storage DD imagerel is_wanted_storage
	DD	imagerel is_wanted_storage+195
	DD	imagerel $unwind$is_wanted_storage
$pdata$is_wanted_operand DD imagerel is_wanted_operand
	DD	imagerel is_wanted_operand+239
	DD	imagerel $unwind$is_wanted_operand
$pdata$is_wanted_tf02326 DD imagerel is_wanted_tf02326
	DD	imagerel is_wanted_tf02326+210
	DD	imagerel $unwind$is_wanted_tf02326
$pdata$is_wanted_opcode DD imagerel is_wanted_opcode
	DD	imagerel is_wanted_opcode+243
	DD	imagerel $unwind$is_wanted_opcode
$pdata$is_wanted DD imagerel is_wanted
	DD	imagerel is_wanted+112
	DD	imagerel $unwind$is_wanted
$pdata$is_devnum_wanted DD imagerel is_devnum_wanted
	DD	imagerel is_devnum_wanted+224
	DD	imagerel $unwind$is_devnum_wanted
$pdata$tf_do_blank_sep DD imagerel tf_do_blank_sep
	DD	imagerel tf_do_blank_sep+114
	DD	imagerel $unwind$tf_do_blank_sep
$pdata$tf_dev_do_blank_sep DD imagerel tf_dev_do_blank_sep
	DD	imagerel tf_dev_do_blank_sep+119
	DD	imagerel $unwind$tf_dev_do_blank_sep
$pdata$print_TFSYS DD imagerel print_TFSYS
	DD	imagerel print_TFSYS+1549
	DD	imagerel $unwind$print_TFSYS
$pdata$print_gr_regs DD imagerel print_gr_regs
	DD	imagerel print_gr_regs+875
	DD	imagerel $unwind$print_gr_regs
$pdata$print_cr_regs DD imagerel print_cr_regs
	DD	imagerel print_cr_regs+841
	DD	imagerel $unwind$print_cr_regs
$pdata$print_ar_regs DD imagerel print_ar_regs
	DD	imagerel print_ar_regs+519
	DD	imagerel $unwind$print_ar_regs
$pdata$print_fpr_regs DD imagerel print_fpr_regs
	DD	imagerel print_fpr_regs+1240
	DD	imagerel $unwind$print_fpr_regs
$pdata$print_fpc_reg DD imagerel print_fpc_reg
	DD	imagerel print_fpc_reg+244
	DD	imagerel $unwind$print_fpc_reg
$pdata$print_all_available_regs DD imagerel print_all_available_regs
	DD	imagerel print_all_available_regs+363
	DD	imagerel $unwind$print_all_available_regs
$pdata$fmt_psw_str DD imagerel fmt_psw_str
	DD	imagerel fmt_psw_str+604
	DD	imagerel $unwind$fmt_psw_str
$pdata$fmt_psw_inst_str DD imagerel fmt_psw_inst_str
	DD	imagerel fmt_psw_inst_str+599
	DD	imagerel $unwind$fmt_psw_inst_str
$pdata$print_800_wait_state_psw DD imagerel print_800_wait_state_psw
	DD	imagerel print_800_wait_state_psw+288
	DD	imagerel $unwind$print_800_wait_state_psw
$pdata$print_801_program_interrupt DD imagerel print_801_program_interrupt
	DD	imagerel print_801_program_interrupt+601
	DD	imagerel $unwind$print_801_program_interrupt
$pdata$print_802_per_event DD imagerel print_802_per_event
	DD	imagerel print_802_per_event+593
	DD	imagerel $unwind$print_802_per_event
$pdata$print_803_pgm_int_loop DD imagerel print_803_pgm_int_loop
	DD	imagerel print_803_pgm_int_loop+268
	DD	imagerel $unwind$print_803_pgm_int_loop
$pdata$print_804_io_rupt_370 DD imagerel print_804_io_rupt_370
	DD	imagerel print_804_io_rupt_370+626
	DD	imagerel $unwind$print_804_io_rupt_370
$pdata$print_807_machine_check_interrupt DD imagerel print_807_machine_check_interrupt
	DD	imagerel print_807_machine_check_interrupt+258
	DD	imagerel $unwind$print_807_machine_check_interrupt
$pdata$print_808_store_status DD imagerel print_808_store_status
	DD	imagerel print_808_store_status+241
	DD	imagerel $unwind$print_808_store_status
$pdata$print_809_disabled_wait DD imagerel print_809_disabled_wait
	DD	imagerel print_809_disabled_wait+268
	DD	imagerel $unwind$print_809_disabled_wait
$pdata$print_811_arch_mode DD imagerel print_811_arch_mode
	DD	imagerel print_811_arch_mode+268
	DD	imagerel $unwind$print_811_arch_mode
$pdata$print_812_vect_online_370 DD imagerel print_812_vect_online_370
	DD	imagerel print_812_vect_online_370+241
	DD	imagerel $unwind$print_812_vect_online_370
$pdata$print_840_ext_rupt DD imagerel print_840_ext_rupt
	DD	imagerel print_840_ext_rupt+768
	DD	imagerel $unwind$print_840_ext_rupt
$pdata$print_844_blkio_rupt DD imagerel print_844_blkio_rupt
	DD	imagerel print_844_blkio_rupt+394
	DD	imagerel $unwind$print_844_blkio_rupt
$pdata$print_845_blkio_ext_rupt DD imagerel print_845_blkio_ext_rupt
	DD	imagerel print_845_blkio_ext_rupt+419
	DD	imagerel $unwind$print_845_blkio_ext_rupt
$pdata$print_846_srvsig_ext_rupt DD imagerel print_846_srvsig_ext_rupt
	DD	imagerel print_846_srvsig_ext_rupt+256
	DD	imagerel $unwind$print_846_srvsig_ext_rupt
$pdata$fmt_inst_name DD imagerel fmt_inst_name
	DD	imagerel fmt_inst_name+53
	DD	imagerel $unwind$fmt_inst_name
$pdata$print_op_stor DD imagerel print_op_stor
	DD	imagerel print_op_stor+1737
	DD	imagerel $unwind$print_op_stor
$pdata$print_storage_lines DD imagerel print_storage_lines
	DD	imagerel print_storage_lines+535
	DD	imagerel $unwind$print_storage_lines
$pdata$print_806_io_rupt DD imagerel print_806_io_rupt
	DD	imagerel print_806_io_rupt+529
	DD	imagerel $unwind$print_806_io_rupt
$pdata$print_814_sigp DD imagerel print_814_sigp
	DD	imagerel print_814_sigp+621
	DD	imagerel $unwind$print_814_sigp
$pdata$fmtdata DD imagerel fmtdata
	DD	imagerel fmtdata+890
	DD	imagerel $unwind$fmtdata
$pdata$print_TF00423 DD imagerel print_TF00423
	DD	imagerel print_TF00423+384
	DD	imagerel $unwind$print_TF00423
$pdata$print_TF00424 DD imagerel print_TF00424
	DD	imagerel print_TF00424+304
	DD	imagerel $unwind$print_TF00424
$pdata$print_TF00425 DD imagerel print_TF00425
	DD	imagerel print_TF00425+289
	DD	imagerel $unwind$print_TF00425
$pdata$print_TF00426 DD imagerel print_TF00426
	DD	imagerel print_TF00426+304
	DD	imagerel $unwind$print_TF00426
$pdata$print_TF00427 DD imagerel print_TF00427
	DD	imagerel print_TF00427+289
	DD	imagerel $unwind$print_TF00427
$pdata$print_TF00428 DD imagerel print_TF00428
	DD	imagerel print_TF00428+304
	DD	imagerel $unwind$print_TF00428
$pdata$print_TF00429 DD imagerel print_TF00429
	DD	imagerel print_TF00429+345
	DD	imagerel $unwind$print_TF00429
$pdata$print_TF00430 DD imagerel print_TF00430
	DD	imagerel print_TF00430+512
	DD	imagerel $unwind$print_TF00430
$pdata$print_TF00431 DD imagerel print_TF00431
	DD	imagerel print_TF00431+304
	DD	imagerel $unwind$print_TF00431
$pdata$print_TF00432 DD imagerel print_TF00432
	DD	imagerel print_TF00432+336
	DD	imagerel $unwind$print_TF00432
$pdata$print_TF00433 DD imagerel print_TF00433
	DD	imagerel print_TF00433+304
	DD	imagerel $unwind$print_TF00433
$pdata$print_TF00434 DD imagerel print_TF00434
	DD	imagerel print_TF00434+342
	DD	imagerel $unwind$print_TF00434
$pdata$print_TF00435 DD imagerel print_TF00435
	DD	imagerel print_TF00435+409
	DD	imagerel $unwind$print_TF00435
$pdata$print_TF00436 DD imagerel print_TF00436
	DD	imagerel print_TF00436+289
	DD	imagerel $unwind$print_TF00436
$pdata$print_TF00437 DD imagerel print_TF00437
	DD	imagerel print_TF00437+310
	DD	imagerel $unwind$print_TF00437
$pdata$print_TF00438 DD imagerel print_TF00438
	DD	imagerel print_TF00438+426
	DD	imagerel $unwind$print_TF00438
$pdata$print_TF00439 DD imagerel print_TF00439
	DD	imagerel print_TF00439+346
	DD	imagerel $unwind$print_TF00439
$pdata$print_TF00440 DD imagerel print_TF00440
	DD	imagerel print_TF00440+394
	DD	imagerel $unwind$print_TF00440
$pdata$print_TF00441 DD imagerel print_TF00441
	DD	imagerel print_TF00441+361
	DD	imagerel $unwind$print_TF00441
$pdata$print_TF00442 DD imagerel print_TF00442
	DD	imagerel print_TF00442+310
	DD	imagerel $unwind$print_TF00442
$pdata$print_TF00516 DD imagerel print_TF00516
	DD	imagerel print_TF00516+304
	DD	imagerel $unwind$print_TF00516
$pdata$print_TF00517 DD imagerel print_TF00517
	DD	imagerel print_TF00517+289
	DD	imagerel $unwind$print_TF00517
$pdata$print_TF00518 DD imagerel print_TF00518
	DD	imagerel print_TF00518+304
	DD	imagerel $unwind$print_TF00518
$pdata$print_TF00519 DD imagerel print_TF00519
	DD	imagerel print_TF00519+330
	DD	imagerel $unwind$print_TF00519
$pdata$print_TF00520 DD imagerel print_TF00520
	DD	imagerel print_TF00520+308
	DD	imagerel $unwind$print_TF00520
$pdata$print_TF01300 DD imagerel print_TF01300
	DD	imagerel print_TF01300+271
	DD	imagerel $unwind$print_TF01300
$pdata$print_TF01301 DD imagerel print_TF01301
	DD	imagerel print_TF01301+994
	DD	imagerel $unwind$print_TF01301
$pdata$print_TF01304 DD imagerel print_TF01304
	DD	imagerel print_TF01304+257
	DD	imagerel $unwind$print_TF01304
$pdata$print_TF01305 DD imagerel print_TF01305
	DD	imagerel print_TF01305+257
	DD	imagerel $unwind$print_TF01305
$pdata$print_TF01306 DD imagerel print_TF01306
	DD	imagerel print_TF01306+257
	DD	imagerel $unwind$print_TF01306
$pdata$print_TF01307 DD imagerel print_TF01307
	DD	imagerel print_TF01307+257
	DD	imagerel $unwind$print_TF01307
$pdata$print_TF01308 DD imagerel print_TF01308
	DD	imagerel print_TF01308+257
	DD	imagerel $unwind$print_TF01308
$pdata$print_TF01309 DD imagerel print_TF01309
	DD	imagerel print_TF01309+257
	DD	imagerel $unwind$print_TF01309
$pdata$print_TF01310 DD imagerel print_TF01310
	DD	imagerel print_TF01310+257
	DD	imagerel $unwind$print_TF01310
$pdata$print_TF01311 DD imagerel print_TF01311
	DD	imagerel print_TF01311+257
	DD	imagerel $unwind$print_TF01311
$pdata$print_TF01312 DD imagerel print_TF01312
	DD	imagerel print_TF01312+322
	DD	imagerel $unwind$print_TF01312
$pdata$print_TF01313 DD imagerel print_TF01313
	DD	imagerel print_TF01313+1938
	DD	imagerel $unwind$print_TF01313
$pdata$print_TF01315 DD imagerel print_TF01315
	DD	imagerel print_TF01315+618
	DD	imagerel $unwind$print_TF01315
$pdata$print_TF01316 DD imagerel print_TF01316
	DD	imagerel print_TF01316+569
	DD	imagerel $unwind$print_TF01316
$pdata$print_TF01317 DD imagerel print_TF01317
	DD	imagerel print_TF01317+646
	DD	imagerel $unwind$print_TF01317
$pdata$print_TF01318 DD imagerel print_TF01318
	DD	imagerel print_TF01318+271
	DD	imagerel $unwind$print_TF01318
$pdata$print_TF01320 DD imagerel print_TF01320
	DD	imagerel print_TF01320+257
	DD	imagerel $unwind$print_TF01320
$pdata$print_TF01321 DD imagerel print_TF01321
	DD	imagerel print_TF01321+257
	DD	imagerel $unwind$print_TF01321
$pdata$print_TF01329 DD imagerel print_TF01329
	DD	imagerel print_TF01329+257
	DD	imagerel $unwind$print_TF01329
$pdata$print_TF01330 DD imagerel print_TF01330
	DD	imagerel print_TF01330+257
	DD	imagerel $unwind$print_TF01330
$pdata$print_TF01331 DD imagerel print_TF01331
	DD	imagerel print_TF01331+257
	DD	imagerel $unwind$print_TF01331
$pdata$print_TF01332 DD imagerel print_TF01332
	DD	imagerel print_TF01332+257
	DD	imagerel $unwind$print_TF01332
$pdata$print_TF01333 DD imagerel print_TF01333
	DD	imagerel print_TF01333+271
	DD	imagerel $unwind$print_TF01333
$pdata$print_TF01334 DD imagerel print_TF01334
	DD	imagerel print_TF01334+342
	DD	imagerel $unwind$print_TF01334
$pdata$print_TF01336 DD imagerel print_TF01336
	DD	imagerel print_TF01336+307
	DD	imagerel $unwind$print_TF01336
$pdata$process_TF00800 DD imagerel process_TF00800
	DD	imagerel process_TF00800+88
	DD	imagerel $unwind$process_TF00800
$pdata$process_TF00801 DD imagerel process_TF00801
	DD	imagerel process_TF00801+88
	DD	imagerel $unwind$process_TF00801
$pdata$process_TF00802 DD imagerel process_TF00802
	DD	imagerel process_TF00802+88
	DD	imagerel $unwind$process_TF00802
$pdata$process_TF00803 DD imagerel process_TF00803
	DD	imagerel process_TF00803+88
	DD	imagerel $unwind$process_TF00803
$pdata$process_TF00804 DD imagerel process_TF00804
	DD	imagerel process_TF00804+88
	DD	imagerel $unwind$process_TF00804
$pdata$process_TF00806 DD imagerel process_TF00806
	DD	imagerel process_TF00806+88
	DD	imagerel $unwind$process_TF00806
$pdata$process_TF00807 DD imagerel process_TF00807
	DD	imagerel process_TF00807+88
	DD	imagerel $unwind$process_TF00807
$pdata$process_TF00808 DD imagerel process_TF00808
	DD	imagerel process_TF00808+88
	DD	imagerel $unwind$process_TF00808
$pdata$process_TF00809 DD imagerel process_TF00809
	DD	imagerel process_TF00809+88
	DD	imagerel $unwind$process_TF00809
$pdata$process_TF00811 DD imagerel process_TF00811
	DD	imagerel process_TF00811+88
	DD	imagerel $unwind$process_TF00811
$pdata$process_TF00812 DD imagerel process_TF00812
	DD	imagerel process_TF00812+88
	DD	imagerel $unwind$process_TF00812
$pdata$process_TF00814 DD imagerel process_TF00814
	DD	imagerel process_TF00814+88
	DD	imagerel $unwind$process_TF00814
$pdata$process_TF00840 DD imagerel process_TF00840
	DD	imagerel process_TF00840+88
	DD	imagerel $unwind$process_TF00840
$pdata$process_TF00844 DD imagerel process_TF00844
	DD	imagerel process_TF00844+88
	DD	imagerel $unwind$process_TF00844
$pdata$process_TF00845 DD imagerel process_TF00845
	DD	imagerel process_TF00845+88
	DD	imagerel $unwind$process_TF00845
$pdata$process_TF00846 DD imagerel process_TF00846
	DD	imagerel process_TF00846+88
	DD	imagerel $unwind$process_TF00846
$pdata$process_TF02269 DD imagerel process_TF02269
	DD	imagerel process_TF02269+423
	DD	imagerel $unwind$process_TF02269
$pdata$process_TF02324 DD imagerel process_TF02324
	DD	imagerel process_TF02324+795
	DD	imagerel $unwind$process_TF02324
$pdata$process_TF02326 DD imagerel process_TF02326
	DD	imagerel process_TF02326+299
	DD	imagerel $unwind$process_TF02326
$pdata$process_TF00423 DD imagerel process_TF00423
	DD	imagerel process_TF00423+108
	DD	imagerel $unwind$process_TF00423
$pdata$process_TF00424 DD imagerel process_TF00424
	DD	imagerel process_TF00424+108
	DD	imagerel $unwind$process_TF00424
$pdata$process_TF00425 DD imagerel process_TF00425
	DD	imagerel process_TF00425+108
	DD	imagerel $unwind$process_TF00425
$pdata$process_TF00426 DD imagerel process_TF00426
	DD	imagerel process_TF00426+108
	DD	imagerel $unwind$process_TF00426
$pdata$process_TF00427 DD imagerel process_TF00427
	DD	imagerel process_TF00427+108
	DD	imagerel $unwind$process_TF00427
$pdata$process_TF00428 DD imagerel process_TF00428
	DD	imagerel process_TF00428+108
	DD	imagerel $unwind$process_TF00428
$pdata$process_TF00429 DD imagerel process_TF00429
	DD	imagerel process_TF00429+108
	DD	imagerel $unwind$process_TF00429
$pdata$process_TF00430 DD imagerel process_TF00430
	DD	imagerel process_TF00430+108
	DD	imagerel $unwind$process_TF00430
$pdata$process_TF00431 DD imagerel process_TF00431
	DD	imagerel process_TF00431+108
	DD	imagerel $unwind$process_TF00431
$pdata$process_TF00432 DD imagerel process_TF00432
	DD	imagerel process_TF00432+108
	DD	imagerel $unwind$process_TF00432
$pdata$process_TF00433 DD imagerel process_TF00433
	DD	imagerel process_TF00433+108
	DD	imagerel $unwind$process_TF00433
$pdata$process_TF00434 DD imagerel process_TF00434
	DD	imagerel process_TF00434+108
	DD	imagerel $unwind$process_TF00434
$pdata$process_TF00435 DD imagerel process_TF00435
	DD	imagerel process_TF00435+108
	DD	imagerel $unwind$process_TF00435
$pdata$process_TF00436 DD imagerel process_TF00436
	DD	imagerel process_TF00436+108
	DD	imagerel $unwind$process_TF00436
$pdata$process_TF00437 DD imagerel process_TF00437
	DD	imagerel process_TF00437+108
	DD	imagerel $unwind$process_TF00437
$pdata$process_TF00438 DD imagerel process_TF00438
	DD	imagerel process_TF00438+108
	DD	imagerel $unwind$process_TF00438
$pdata$process_TF00439 DD imagerel process_TF00439
	DD	imagerel process_TF00439+108
	DD	imagerel $unwind$process_TF00439
$pdata$process_TF00440 DD imagerel process_TF00440
	DD	imagerel process_TF00440+108
	DD	imagerel $unwind$process_TF00440
$pdata$process_TF00441 DD imagerel process_TF00441
	DD	imagerel process_TF00441+108
	DD	imagerel $unwind$process_TF00441
$pdata$process_TF00442 DD imagerel process_TF00442
	DD	imagerel process_TF00442+108
	DD	imagerel $unwind$process_TF00442
$pdata$process_TF00516 DD imagerel process_TF00516
	DD	imagerel process_TF00516+108
	DD	imagerel $unwind$process_TF00516
$pdata$process_TF00517 DD imagerel process_TF00517
	DD	imagerel process_TF00517+108
	DD	imagerel $unwind$process_TF00517
$pdata$process_TF00518 DD imagerel process_TF00518
	DD	imagerel process_TF00518+108
	DD	imagerel $unwind$process_TF00518
$pdata$process_TF00519 DD imagerel process_TF00519
	DD	imagerel process_TF00519+108
	DD	imagerel $unwind$process_TF00519
$pdata$process_TF00520 DD imagerel process_TF00520
	DD	imagerel process_TF00520+108
	DD	imagerel $unwind$process_TF00520
$pdata$process_TF01300 DD imagerel process_TF01300
	DD	imagerel process_TF01300+108
	DD	imagerel $unwind$process_TF01300
$pdata$process_TF01301 DD imagerel process_TF01301
	DD	imagerel process_TF01301+108
	DD	imagerel $unwind$process_TF01301
$pdata$process_TF01304 DD imagerel process_TF01304
	DD	imagerel process_TF01304+108
	DD	imagerel $unwind$process_TF01304
$pdata$process_TF01305 DD imagerel process_TF01305
	DD	imagerel process_TF01305+108
	DD	imagerel $unwind$process_TF01305
$pdata$process_TF01306 DD imagerel process_TF01306
	DD	imagerel process_TF01306+108
	DD	imagerel $unwind$process_TF01306
$pdata$process_TF01307 DD imagerel process_TF01307
	DD	imagerel process_TF01307+108
	DD	imagerel $unwind$process_TF01307
$pdata$process_TF01308 DD imagerel process_TF01308
	DD	imagerel process_TF01308+108
	DD	imagerel $unwind$process_TF01308
$pdata$process_TF01309 DD imagerel process_TF01309
	DD	imagerel process_TF01309+108
	DD	imagerel $unwind$process_TF01309
$pdata$process_TF01310 DD imagerel process_TF01310
	DD	imagerel process_TF01310+108
	DD	imagerel $unwind$process_TF01310
$pdata$process_TF01311 DD imagerel process_TF01311
	DD	imagerel process_TF01311+108
	DD	imagerel $unwind$process_TF01311
$pdata$process_TF01312 DD imagerel process_TF01312
	DD	imagerel process_TF01312+108
	DD	imagerel $unwind$process_TF01312
$pdata$process_TF01313 DD imagerel process_TF01313
	DD	imagerel process_TF01313+108
	DD	imagerel $unwind$process_TF01313
$pdata$process_TF01315 DD imagerel process_TF01315
	DD	imagerel process_TF01315+108
	DD	imagerel $unwind$process_TF01315
$pdata$process_TF01316 DD imagerel process_TF01316
	DD	imagerel process_TF01316+108
	DD	imagerel $unwind$process_TF01316
$pdata$process_TF01317 DD imagerel process_TF01317
	DD	imagerel process_TF01317+108
	DD	imagerel $unwind$process_TF01317
$pdata$process_TF01318 DD imagerel process_TF01318
	DD	imagerel process_TF01318+108
	DD	imagerel $unwind$process_TF01318
$pdata$process_TF01320 DD imagerel process_TF01320
	DD	imagerel process_TF01320+108
	DD	imagerel $unwind$process_TF01320
$pdata$process_TF01321 DD imagerel process_TF01321
	DD	imagerel process_TF01321+108
	DD	imagerel $unwind$process_TF01321
$pdata$process_TF01329 DD imagerel process_TF01329
	DD	imagerel process_TF01329+108
	DD	imagerel $unwind$process_TF01329
$pdata$process_TF01330 DD imagerel process_TF01330
	DD	imagerel process_TF01330+108
	DD	imagerel $unwind$process_TF01330
$pdata$process_TF01331 DD imagerel process_TF01331
	DD	imagerel process_TF01331+108
	DD	imagerel $unwind$process_TF01331
$pdata$process_TF01332 DD imagerel process_TF01332
	DD	imagerel process_TF01332+108
	DD	imagerel $unwind$process_TF01332
$pdata$process_TF01333 DD imagerel process_TF01333
	DD	imagerel process_TF01333+108
	DD	imagerel $unwind$process_TF01333
$pdata$process_TF01334 DD imagerel process_TF01334
	DD	imagerel process_TF01334+108
	DD	imagerel $unwind$process_TF01334
$pdata$process_TF01336 DD imagerel process_TF01336
	DD	imagerel process_TF01336+108
	DD	imagerel $unwind$process_TF01336
$pdata$finish_reading_rec DD imagerel finish_reading_rec
	DD	imagerel finish_reading_rec+708
	DD	imagerel $unwind$finish_reading_rec
$pdata$process_args DD imagerel process_args
	DD	imagerel process_args+3359
	DD	imagerel $unwind$process_args
$pdata$main DD	imagerel $LN268
	DD	imagerel $LN268+5313
	DD	imagerel $unwind$main
$pdata$print_args DD imagerel print_args
	DD	imagerel print_args+414
	DD	imagerel $unwind$print_args
$pdata$parse_option_msglvl DD imagerel parse_option_msglvl
	DD	imagerel parse_option_msglvl+111
	DD	imagerel $unwind$parse_option_msglvl
$pdata$parse_option_cpu DD imagerel parse_option_cpu
	DD	imagerel parse_option_cpu+435
	DD	imagerel $unwind$parse_option_cpu
$pdata$parse_option_traceopt DD imagerel parse_option_traceopt
	DD	imagerel parse_option_traceopt+153
	DD	imagerel $unwind$parse_option_traceopt
$pdata$parse_option_count DD imagerel parse_option_count
	DD	imagerel parse_option_count+219
	DD	imagerel $unwind$parse_option_count
$pdata$parse_option_msg DD imagerel parse_option_msg
	DD	imagerel parse_option_msg+129
	DD	imagerel $unwind$parse_option_msg
$pdata$parse_option_storage DD imagerel parse_option_storage
	DD	imagerel parse_option_storage+133
	DD	imagerel $unwind$parse_option_storage
$pdata$parse_option_date DD imagerel parse_option_date
	DD	imagerel parse_option_date+267
	DD	imagerel $unwind$parse_option_date
$pdata$parse_option_time DD imagerel parse_option_time
	DD	imagerel parse_option_time+297
	DD	imagerel $unwind$parse_option_time
$pdata$parse_option_opcode DD imagerel parse_option_opcode
	DD	imagerel parse_option_opcode+133
	DD	imagerel $unwind$parse_option_opcode
$pdata$parse_option_unit DD imagerel parse_option_unit
	DD	imagerel parse_option_unit+129
	DD	imagerel $unwind$parse_option_unit
$pdata$parse_option_codepage DD imagerel parse_option_codepage
	DD	imagerel parse_option_codepage+65
	DD	imagerel $unwind$parse_option_codepage
$pdata$parse_tracefile DD imagerel parse_tracefile
	DD	imagerel parse_tracefile+723
	DD	imagerel $unwind$parse_tracefile
$pdata$time_zone_offset DD imagerel time_zone_offset
	DD	imagerel time_zone_offset+83
	DD	imagerel $unwind$time_zone_offset
$pdata$convert_opt_str DD imagerel convert_opt_str
	DD	imagerel convert_opt_str+351
	DD	imagerel $unwind$convert_opt_str
$pdata$parse_opt_str DD imagerel parse_opt_str
	DD	imagerel parse_opt_str+1767
	DD	imagerel $unwind$parse_opt_str
$pdata$parse_option_error DD imagerel parse_option_error
	DD	imagerel parse_option_error+124
	DD	imagerel $unwind$parse_option_error
$pdata$convert_storage_opt_str DD imagerel convert_storage_opt_str
	DD	imagerel convert_storage_opt_str+335
	DD	imagerel $unwind$convert_storage_opt_str
$pdata$parse_date_str DD imagerel parse_date_str
	DD	imagerel parse_date_str+814
	DD	imagerel $unwind$parse_date_str
$pdata$parse_time_str DD imagerel parse_time_str
	DD	imagerel parse_time_str+1093
	DD	imagerel $unwind$parse_time_str
$pdata$convert_opcode_opt_str DD imagerel convert_opcode_opt_str
	DD	imagerel convert_opcode_opt_str+423
	DD	imagerel $unwind$convert_opcode_opt_str
pdata	ENDS
;	COMDAT __real@4059000000000000
CONST	SEGMENT
__real@4059000000000000 DQ 04059000000000000r	; 100
CONST	ENDS
_DATA	SEGMENT
previnst DB	01H
?first_time@?1??finish_reading_rec@@9@9 DB 01H		; `finish_reading_rec'::`2'::first_time
	ORG $+5
torec	DQ	ffffffffffffffffH
$SG159101 DB	0aH, 00H
	ORG $+2
$SG159102 DB	'I', 00H
	ORG $+2
$SG159103 DB	'HHC03200%s Usage:  %s  [options...] tracefile', 0aH, 'HH'
	DB	'C03200I', 0aH, 'HHC03200I        [-i|--info]', 0aH, 'HHC03200'
	DB	'I        [-c|--cpu hh[[-hh][,hh]]', 0aH, 'HHC03200I        [-'
	DB	'r|--traceopt TRADITIONAL|REGSFIRST|NOREGS]', 0aH, 'HHC03200I '
	DB	'       [-n|--count nnnnnn[[-nnnnnn]|[.nnn]]', 0aH, 'HHC03200I'
	DB	'        [-e|--msg nnnnn[,nnnnn]', 0aH, 'HHC03200I        [-s|'
	DB	'--storage V|R:hhhhhh[[-hhhhhh]|[.hhh]]', 0aH, 'HHC03200I     '
	DB	'   [-d|--date YYYY/MM/DD-YYYY/MM/DD', 0aH, 'HHC03200I        '
	DB	'[-t|--time HH:MM:SS.nnnnnn-HH:MM:SS.nnnnnn', 0aH, 'HHC03200I '
	DB	'       [-o|--opcode hhhhhhhh[,hhxxhhxxhhhh]', 0aH, 'HHC03200I'
	DB	'        [-m|--msglvl xxxxx', 0aH, 'HHC03200I        [-u|--uni'
	DB	't uuuu[[-uuuu]|[.nnn]]', 0aH, 'HHC03200I        [-p|--codepag'
	DB	'e zzzzzzzz', 0aH, 'HHC03200I', 0aH, 'HHC03200I   -i   Print o'
	DB	'nly TFSYS header information then exit', 0aH, 'HHC03200I   -c'
	DB	'   Print only specified CPU(s)', 0aH, 'HHC03200I   -r   Print'
	DB	' registers trace option', 0aH, 'HHC03200I   -n   Print only r'
	DB	'ecords nnnnnn to nnnnnn (by count)', 0aH, 'HHC03200I   -e   P'
	DB	'rint only messages with specified message number', 0aH, 'HHC0'
	DB	'3200I   -s   Print only instructions that reference or modify'
	DB	0aH, 'HHC03200I        the specified ''V''irtual or ''R''eal s'
	DB	'torage range', 0aH, 'HHC03200I   -d   Print only records with'
	DB	'in specified date range', 0aH, 'HHC03200I   -t   Print only r'
	DB	'ecords within specified time range', 0aH, 'HHC03200I   -o   P'
	DB	'rint only specified instruction(s) (by opcode)', 0aH, 'HHC032'
	DB	'00I        Only as many bytes are checked as are specified', 0aH
	DB	'HHC03200I        Use ''x'' as wildcard for nibbles not to be '
	DB	'checked', 0aH, 'HHC03200I   -m   Modify Hercules ''msglvl'' s'
	DB	'etting', 0aH, 'HHC03200I   -u   Print only trace records for '
	DB	'specified I/O unit(s)', 0aH, 'HHC03200I   -p   Use EBCDIC/ASC'
	DB	'II codepage conversion table zzzzzzzz', 0aH, 00H
	ORG $+3
$SG159104 DB	'show_usage', 00H
	ORG $+1
$SG159106 DB	0aH, 00H
	ORG $+2
$SG159105 DB	'tfprint.c', 00H
	ORG $+2
$SG159119 DB	'ftell', 00H
	ORG $+2
$SG159120 DB	'E', 00H
	ORG $+2
$SG159121 DB	'HHC00075%s Error in function %s: %s', 0aH, 00H
	ORG $+3
$SG159122 DB	'show_file_progress', 00H
	ORG $+1
$SG159682 DB	0aH, 00H
	ORG $+2
$SG159123 DB	'tfprint.c', 00H
	ORG $+2
$SG159689 DB	0aH, 00H
	ORG $+2
$SG159126 DB	'PCT=%.0f', 0aH, 00H
	ORG $+2
$SG159707 DB	'I', 00H
	ORG $+2
$SG159130 DB	'%.0f%% of file processed...   [%s]', 0dH, 00H
$SG159711 DB	0aH, 00H
	ORG $+2
$SG159708 DB	'HHC03208%s Format-%c trace file created by: %s', 0aH, 00H
$SG159709 DB	'print_TFSYS', 00H
$SG159713 DB	'I', 00H
	ORG $+2
$SG159710 DB	'tfprint.c', 00H
	ORG $+2
$SG159712 DB	'began', 00H
	ORG $+2
$SG159717 DB	'I', 00H
	ORG $+2
$SG159714 DB	'HHC03209%s Trace %s: %s', 0aH, 00H
	ORG $+3
$SG159721 DB	'ended', 00H
	ORG $+2
$SG159722 DB	'I', 00H
	ORG $+2
$SG159715 DB	'print_TFSYS', 00H
$SG159728 DB	0aH, 00H
	ORG $+2
$SG159716 DB	'tfprint.c', 00H
	ORG $+2
$SG159726 DB	'%s%02X', 00H
	ORG $+1
$SG159729 DB	'BIG', 00H
$SG159718 DB	'HHC03211%s Trace count: ins=%s records, dev=%s records', 0aH
	DB	00H
$SG159719 DB	'print_TFSYS', 00H
$SG159732 DB	'I', 00H
	ORG $+2
$SG159720 DB	'tfprint.c', 00H
	ORG $+2
$SG159730 DB	'little', 00H
	ORG $+1
$SG159736 DB	'BIG', 00H
$SG159723 DB	'HHC03209%s Trace %s: %s', 0aH, 00H
	ORG $+3
$SG159737 DB	'little', 00H
	ORG $+1
$SG159739 DB	'I', 00H
	ORG $+2
$SG159724 DB	'print_TFSYS', 00H
$SG159743 DB	0aH, 00H
	ORG $+2
$SG159725 DB	'tfprint.c', 00H
	ORG $+2
$SG159731 DB	'file', 00H
	ORG $+3
$SG159744 DB	'W', 00H
	ORG $+2
$SG159733 DB	'HHC03221%s Endianness of %s = %s', 0aH, 00H
	ORG $+2
$SG159749 DB	'BIG', 00H
$SG159734 DB	'print_TFSYS', 00H
$SG159752 DB	'I', 00H
	ORG $+2
$SG159735 DB	'tfprint.c', 00H
	ORG $+2
$SG159738 DB	'host', 00H
	ORG $+3
$SG159750 DB	'little', 00H
	ORG $+1
$SG159756 DB	'BIG', 00H
$SG159740 DB	'HHC03221%s Endianness of %s = %s', 0aH, 00H
	ORG $+2
$SG159757 DB	'little', 00H
	ORG $+1
$SG159759 DB	'I', 00H
	ORG $+2
$SG159741 DB	'print_TFSYS', 00H
$SG159763 DB	'W', 00H
	ORG $+2
$SG159742 DB	'tfprint.c', 00H
	ORG $+6
$SG159746 DB	'print_TFSYS', 00H
$SG159751 DB	'file', 00H
	ORG $+7
$SG159745 DB	'HHC03222%s WARNING: possible performance impact due to e'
	DB	'ndianness!', 0aH, 00H
$SG159784 DB	0aH, 00H
	ORG $+2
$SG159747 DB	'tfprint.c', 00H
	ORG $+2
$SG159789 DB	'%s', 0aH, 00H
$SG159753 DB	'HHC03221%s Endianness of %s = %s', 0aH, 00H
	ORG $+2
$SG159793 DB	'%s', 0aH, 00H
$SG159754 DB	'print_TFSYS', 00H
$SG159816 DB	'%s', 0aH, 00H
$SG159755 DB	'tfprint.c', 00H
	ORG $+2
$SG159758 DB	'host', 00H
	ORG $+3
$SG159820 DB	'%s', 0aH, 00H
$SG159760 DB	'HHC03221%s Endianness of %s = %s', 0aH, 00H
	ORG $+2
$SG159837 DB	'%s', 0aH, 00H
$SG159761 DB	'print_TFSYS', 00H
$SG160049 DB	'W', 00H
	ORG $+2
$SG159762 DB	'tfprint.c', 00H
	ORG $+6
$SG159764 DB	'HHC03222%s WARNING: possible performance impact due to e'
	DB	'ndianness!', 0aH, 00H
$SG160134 DB	' ', 00H
	ORG $+2
$SG159765 DB	'print_TFSYS', 00H
$SG160192 DB	'%s', 0aH, 00H
$SG159766 DB	'tfprint.c', 00H
	ORG $+2
$SG160132 DB	'%s %s ', 00H
	ORG $+1
$SG160214 DB	'%s', 0aH, 00H
$SG159785 DB	'%s HHC02269I %s:', 00H
	ORG $+7
$SG159790 DB	'print_gr_regs', 00H
	ORG $+2
$SG159812 DB	'%s HHC02271I %s:', 00H
	ORG $+7
$SG159788 DB	'%s R%1.1X=%16.16llX R%1.1X=%16.16llX R%1.1X=%16.16llX R%'
	DB	'1.1X=%16.16llX', 00H
	ORG $+1
$SG159791 DB	'tfprint.c', 00H
	ORG $+2
$SG160133 DB	' ', 09H, 0aH, 0bH, 0cH, 0dH, 00H
	ORG $+1
$SG160794 DB	0aH, 00H
	ORG $+2
$SG159792 DB	'%s GR%2.2d=%8.8X GR%2.2d=%8.8X GR%2.2d=%8.8X GR%2.2d=%8.'
	DB	'8X', 00H
	ORG $+1
$SG161078 DB	'E', 00H
	ORG $+2
$SG159794 DB	'print_gr_regs', 00H
	ORG $+2
$SG159795 DB	'tfprint.c', 00H
	ORG $+6
$SG159815 DB	'%s C%1.1X=%16.16llX C%1.1X=%16.16llX C%1.1X=%16.16llX C%'
	DB	'1.1X=%16.16llX', 00H
	ORG $+1
$SG159817 DB	'print_cr_regs', 00H
	ORG $+2
$SG159818 DB	'tfprint.c', 00H
	ORG $+2
$SG160246 DB	' ', 09H, 0aH, 0bH, 0cH, 0dH, 00H
	ORG $+1
$SG161083 DB	'%hu', 00H
$SG159819 DB	'%s CR%2.2d=%8.8X CR%2.2d=%8.8X CR%2.2d=%8.8X CR%2.2d=%8.'
	DB	'8X', 00H
	ORG $+1
$SG161084 DB	'E', 00H
	ORG $+2
$SG159821 DB	'print_cr_regs', 00H
	ORG $+2
$SG159822 DB	'tfprint.c', 00H
	ORG $+2
$SG161201 DB	'E', 00H
	ORG $+2
$SG159835 DB	'%s HHC02272I %s:', 00H
	ORG $+3
$SG159947 DB	'SIE: ', 00H
	ORG $+2
$SG161207 DB	'E', 00H
	ORG $+2
$SG159836 DB	'%s AR%2.2d=%8.8X AR%2.2d=%8.8X AR%2.2d=%8.8X AR%2.2d=%8.'
	DB	'8X', 00H
	ORG $+1
$SG161213 DB	'E', 00H
	ORG $+2
$SG159838 DB	'print_ar_regs', 00H
	ORG $+2
$SG159839 DB	'tfprint.c', 00H
	ORG $+2
$SG161219 DB	'E', 00H
	ORG $+2
$SG159851 DB	'%s HHC02270I %s:', 00H
	ORG $+3
$SG160174 DB	'SIE: ', 00H
	ORG $+2
$SG161224 DB	'E', 00H
	ORG $+2
$SG159854 DB	'%s FP%u=%8.8X%8.8X FPR%u=%8.8X%8.8X', 00H
$SG161230 DB	'E', 00H
	ORG $+2
$SG159855 DB	'print_fpr_regs', 00H
	ORG $+1
$SG159856 DB	'tfprint.c', 00H
	ORG $+2
$SG161238 DB	'E', 00H
	ORG $+2
$SG159857 DB	'%s FP%u=%8.8X%8.8X FPR%u=%8.8X%8.8X', 00H
$SG161245 DB	'E', 00H
	ORG $+2
$SG159858 DB	'print_fpr_regs', 00H
	ORG $+1
$SG159859 DB	'tfprint.c', 00H
	ORG $+2
$SG161398 DB	'W', 00H
	ORG $+2
$SG159860 DB	'%s FPR0=%8.8X%8.8X FPR2=%8.8X%8.8X', 0aH, 00H
$SG161402 DB	0aH, 00H
	ORG $+2
$SG159861 DB	'print_fpr_regs', 00H
	ORG $+1
$SG159862 DB	'tfprint.c', 00H
	ORG $+2
$SG161404 DB	'I', 00H
	ORG $+2
$SG159863 DB	'%s FPR4=%8.8X%8.8X FPR6=%8.8X%8.8X', 0aH, 00H
$SG161409 DB	'I', 00H
	ORG $+2
$SG159864 DB	'print_fpr_regs', 00H
	ORG $+1
$SG159865 DB	'tfprint.c', 00H
	ORG $+2
$SG161426 DB	0aH, 00H
	ORG $+2
$SG159872 DB	'%s HHC02276I Floating point control register: %08X', 0aH
	DB	00H
$SG161431 DB	'%s', 00H
	ORG $+1
$SG159873 DB	'print_fpc_reg', 00H
	ORG $+2
$SG159874 DB	'tfprint.c', 00H
	ORG $+2
$SG161429 DB	'%s(%d)', 00H
	ORG $+1
$SG161433 DB	' ', 00H
	ORG $+2
$SG159899 DB	' %2.2X%2.2X%2.2X%2.2X%2.2X%2.2X%2.2X%2.2X', 00H
	ORG $+2
$SG161435 DB	' ', 09H, 0aH, 0bH, 0cH, 0dH, 00H
	ORG $+1
$SG161436 DB	'"', 00H
	ORG $+2
$SG159900 DB	'%2.2X%2.2X%2.2X%2.2X%2.2X%2.2X%2.2X%2.2X%s', 00H
	ORG $+1
$SG161437 DB	'%s', 00H
	ORG $+1
$SG159921 DB	'%2.2X%2.2X        ', 00H
	ORG $+1
$SG161439 DB	'"', 00H
	ORG $+2
$SG159924 DB	'%2.2X%2.2X%2.2X%2.2X    ', 00H
	ORG $+3
$SG160210 DB	'%8.8X', 00H
	ORG $+2
$SG161440 DB	0aH, 0aH, 00H
	ORG $+1
$SG159927 DB	'%2.2X%2.2X%2.2X%2.2X%2.2X%2.2X', 00H
	ORG $+1
$SG159928 DB	'PSW=%s INST=%s', 00H
	ORG $+1
$SG159934 DB	'%s HHC00800I Processor %s: loaded wait state PSW %s', 0aH
	DB	00H
	ORG $+3
$SG159935 DB	'print_800_wait_state_psw', 00H
	ORG $+3
$SG160773 DB	'SIE: ', 00H
	ORG $+2
$SG161533 DB	'E', 00H
	ORG $+2
$SG159936 DB	'tfprint.c', 00H
	ORG $+2
$SG161538 DB	'E', 00H
	ORG $+2
$SG159945 DB	' DXC=%2.2X', 00H
	ORG $+5
$SG159950 DB	'print_801_program_interrupt', 00H
$SG160777 DB	'%s%s', 0aH, 00H
	ORG $+6
$SG159949 DB	'%s HHC00801I Processor %s: %s%s interruption code %4.4X '
	DB	'ilc %d%s%s', 0aH, 00H
$SG161545 DB	'E', 00H
	ORG $+2
$SG159951 DB	'tfprint.c', 00H
	ORG $+6
$SG159962 DB	'print_802_per_event', 00H
	ORG $+4
$SG159961 DB	'%s HHC00802I Processor %s: PER event: code %4.4X perc %2'
	DB	'.2X=%s addr %16.16llX', 0aH, 00H
	ORG $+1
$SG159963 DB	'tfprint.c', 00H
	ORG $+6
$SG159964 DB	'%s HHC00802I Processor %s: PER event: code %4.4X perc %2'
	DB	'.2X=%s addr %8.8X', 0aH, 00H
	ORG $+1
$SG161551 DB	'E', 00H
	ORG $+2
$SG159965 DB	'print_802_per_event', 00H
$SG161557 DB	'E', 00H
	ORG $+2
$SG159966 DB	'tfprint.c', 00H
	ORG $+2
$SG161563 DB	'E', 00H
	ORG $+2
$SG159972 DB	'%s HHC00803I Processor %s: program interrupt loop PSW %s'
	DB	0aH, 00H
	ORG $+2
$SG161569 DB	'E', 00H
	ORG $+2
$SG159973 DB	'print_803_pgm_int_loop', 00H
	ORG $+1
$SG159974 DB	'tfprint.c', 00H
	ORG $+6
$SG159980 DB	'%s HHC00804I Processor %s: I/O interrupt code %1.1X:%4.4'
	DB	'X CSW %2.2X%2.2X%2.2X%2.2X %2.2X%2.2X%2.2X%2.2X', 0aH, 00H
	ORG $+3
$SG161206 DB	'TFSYS', 00H
	ORG $+2
$SG161575 DB	'E', 00H
	ORG $+2
$SG159981 DB	'print_804_io_rupt_370', 00H
	ORG $+2
$SG159982 DB	'tfprint.c', 00H
	ORG $+2
$SG161581 DB	'E', 00H
	ORG $+2
$SG159988 DB	'%s HHC00807I Processor %s: machine check code %16.16llu', 0aH
	DB	00H
	ORG $+3
$SG161244 DB	'TFHDR', 00H
	ORG $+2
$SG161587 DB	'E', 00H
	ORG $+2
$SG159989 DB	'print_807_machine_check_interrupt', 00H
	ORG $+2
$SG161593 DB	'E', 00H
	ORG $+2
$SG159990 DB	'tfprint.c', 00H
	ORG $+2
$SG161599 DB	'E', 00H
	ORG $+2
$SG159996 DB	'%s HHC00808I Processor %s: store status completed', 0aH, 00H
	ORG $+1
$SG161605 DB	'E', 00H
	ORG $+2
$SG159997 DB	'print_808_store_status', 00H
	ORG $+1
$SG159998 DB	'tfprint.c', 00H
	ORG $+2
$SG161611 DB	'E', 00H
	ORG $+2
$SG160004 DB	'%s HHC00809I Processor %s: disabled wait state %s', 0aH, 00H
	ORG $+1
$SG161616 DB	'E', 00H
	ORG $+2
$SG160005 DB	'print_809_disabled_wait', 00H
$SG160006 DB	'tfprint.c', 00H
	ORG $+2
$SG161625 DB	'E', 00H
	ORG $+2
$SG160012 DB	'%s HHC00811I Processor %s: architecture mode %s', 0aH, 00H
	ORG $+3
$SG161758 DB	'E', 00H
	ORG $+2
$SG160013 DB	'print_811_arch_mode', 00H
$SG162123 DB	'rbS', 00H
$SG160014 DB	'tfprint.c', 00H
	ORG $+2
$SG161798 DB	'NOREGS', 00H
	ORG $+1
$SG162124 DB	'E', 00H
	ORG $+2
$SG160020 DB	'%s HHC00812I Processor %s: vector facility online', 0aH, 00H
	ORG $+1
$SG162131 DB	'E', 00H
	ORG $+2
$SG160021 DB	'print_812_vect_online_370', 00H
	ORG $+2
$SG162138 DB	'E', 00H
	ORG $+2
$SG160022 DB	'tfprint.c', 00H
	ORG $+2
$SG162145 DB	'E', 00H
	ORG $+2
$SG160031 DB	'%s HHC0084?I Processor %s: External interrupt', 00H
	ORG $+2
$SG160033 DB	'%s: interrupt key', 0aH, 00H
	ORG $+5
$SG160034 DB	'print_840_ext_rupt', 00H
	ORG $+5
$SG160035 DB	'tfprint.c', 00H
	ORG $+6
$SG160037 DB	'%s: clock comparator', 0aH, 00H
	ORG $+2
$SG160038 DB	'print_840_ext_rupt', 00H
	ORG $+5
$SG160039 DB	'tfprint.c', 00H
	ORG $+6
$SG160041 DB	'%s: CPU timer=%16.16llX', 0aH, 00H
	ORG $+7
$SG160042 DB	'print_840_ext_rupt', 00H
	ORG $+5
$SG160043 DB	'tfprint.c', 00H
	ORG $+6
$SG160045 DB	'%s: interval timer', 0aH, 00H
	ORG $+4
$SG160046 DB	'print_840_ext_rupt', 00H
	ORG $+5
$SG160047 DB	'tfprint.c', 00H
	ORG $+6
$SG160051 DB	'print_840_ext_rupt', 00H
	ORG $+5
$SG160050 DB	'HHC03218%s Unsupported external interrupt: processor %s,'
	DB	' code %4.4hX', 0aH, 00H
	ORG $+2
$SG160052 DB	'tfprint.c', 00H
	ORG $+6
$SG160059 DB	'print_844_blkio_rupt', 00H
	ORG $+3
$SG160058 DB	'%s HHC00844I Processor %s: %1d:%04X: processing block I/'
	DB	'O interrupt: code %4.4X parm %16.16llX status %2.2X subcode %'
	DB	'2.2X', 0aH, 00H
	ORG $+5
$SG160060 DB	'tfprint.c', 00H
	ORG $+6
$SG160070 DB	'%s HHC00845I Processor %s: External interrupt: block I/O'
	DB	' %16.16llX', 0aH, 00H
	ORG $+4
$SG160071 DB	'print_845_blkio_ext_rupt', 00H
	ORG $+7
$SG160072 DB	'tfprint.c', 00H
	ORG $+6
$SG160128 DB	'V:%16.16llX:', 00H
	ORG $+3
$SG160135 DB	'%sTranslation exception %04.4hX (%s)', 0aH, 00H
	ORG $+2
$SG160073 DB	'%s HHC00845I Processor %s: External interrupt: block I/O'
	DB	' %8.8X', 0aH, 00H
$SG160074 DB	'print_845_blkio_ext_rupt', 00H
	ORG $+7
$SG160075 DB	'tfprint.c', 00H
	ORG $+6
$SG160081 DB	'%s HHC00846I Processor %s: External interrupt: service s'
	DB	'ignal %8.8X', 0aH, 00H
	ORG $+3
$SG160082 DB	'print_846_srvsig_ext_rupt', 00H
	ORG $+6
$SG160083 DB	'tfprint.c', 00H
	ORG $+6
$SG160129 DB	'V:%8.8X:', 00H
	ORG $+7
$SG160136 DB	'print_op_stor', 00H
	ORG $+2
$SG160137 DB	'tfprint.c', 00H
	ORG $+6
$SG160142 DB	'%-36.36s %-16.16s', 00H
	ORG $+6
$SG160140 DB	'%02.2X%02.2X%02.2X%02.2X %02.2X%02.2X%02.2X%02.2X %02.2X'
	DB	'%02.2X%02.2X%02.2X %02.2X%02.2X%02.2X%02.2X', 00H
	ORG $+4
$SG160145 DB	'%s%sR:%16.16llX:K:%02.2X=%s', 0aH, 00H
	ORG $+3
$SG160146 DB	'print_op_stor', 00H
	ORG $+2
$SG160147 DB	'tfprint.c', 00H
	ORG $+6
$SG160148 DB	'%s%sR:%8.8X:K:%02.2X=%s', 0aH, 00H
	ORG $+7
$SG160149 DB	'print_op_stor', 00H
	ORG $+2
$SG160150 DB	'tfprint.c', 00H
	ORG $+6
$SG160165 DB	'print_storage_lines', 00H
	ORG $+4
$SG160166 DB	'tfprint.c', 00H
	ORG $+6
$SG160167 DB	'%s(%d) : warning HHC90999W : *** Assertion Failed! *** f'
	DB	'unction: %s', 0aH, 00H
	ORG $+3
$SG160169 DB	'print_storage_lines', 00H
	ORG $+4
$SG160170 DB	'tfprint.c', 00H
	ORG $+6
$SG160171 DB	'%s(%d) : warning HHC90999W : *** Assertion Failed! *** f'
	DB	'unction: %s', 0aH, 00H
	ORG $+3
$SG160176 DB	'%s HHC02326I %s%s: ', 00H
	ORG $+4
$SG160187 DB	'HHC00805I', 00H
	ORG $+6
$SG160188 DB	'HHC00806I', 00H
	ORG $+6
$SG160189 DB	'%s %s Processor %s: I/O interrupt code %8.8X parm %8.8X', 00H
$SG160193 DB	'print_806_io_rupt', 00H
	ORG $+6
$SG160194 DB	'tfprint.c', 00H
	ORG $+6
$SG160195 DB	'%s id %8.8X', 0aH, 00H
	ORG $+3
$SG160196 DB	'print_806_io_rupt', 00H
	ORG $+6
$SG160197 DB	'tfprint.c', 00H
	ORG $+6
$SG160209 DB	'%16.16llX', 00H
	ORG $+6
$SG160215 DB	'print_814_sigp', 00H
	ORG $+1
$SG160217 DB	'%s status %8.8X', 0aH, 00H
	ORG $+7
$SG160211 DB	'%s HHC00814I Processor %s: SIGP %-32s (%02.2X) %s, PARM '
	DB	'%s: CC %d', 00H
	ORG $+6
$SG160216 DB	'tfprint.c', 00H
	ORG $+6
$SG160218 DB	'print_814_sigp', 00H
	ORG $+1
$SG160219 DB	'tfprint.c', 00H
	ORG $+6
$SG160240 DB	'%-40.40s%s', 00H
	ORG $+5
$SG160247 DB	'%s HHC00423I %1d:%04X CKD file %s: search key %s', 0aH, 00H
	ORG $+6
$SG160239 DB	' => %2.2X%2.2X%2.2X%2.2X %2.2X%2.2X%2.2X%2.2X %2.2X%2.2X'
	DB	'%2.2X%2.2X %2.2X%2.2X%2.2X%2.2X', 00H
$SG160248 DB	'print_TF00423', 00H
	ORG $+2
$SG160249 DB	'tfprint.c', 00H
	ORG $+6
$SG160255 DB	'%s HHC00424I %1d:%04X CKD file %s: read trk %d cur trk %'
	DB	'd', 0aH, 00H
	ORG $+5
$SG160256 DB	'print_TF00424', 00H
	ORG $+2
$SG160257 DB	'tfprint.c', 00H
	ORG $+6
$SG160264 DB	'print_TF00425', 00H
	ORG $+2
orient	DQ	FLAT:$SG160331
	DQ	FLAT:$SG160332
	DQ	FLAT:$SG160333
	DQ	FLAT:$SG160334
	DQ	FLAT:$SG160335
	DQ	FLAT:$SG160336
$SG160358 DB	'%s HHC00436I %1d:%04X CKD file %s: read key %d bytes', 0aH
	DB	00H
	ORG $+2
$SG160263 DB	'%s HHC00425I %1d:%04X CKD file %s: read track updating t'
	DB	'rack %d', 0aH, 00H
	ORG $+7
$SG160265 DB	'tfprint.c', 00H
	ORG $+6
$SG160272 DB	'print_TF00426', 00H
	ORG $+2
$SG160366 DB	'%s HHC00437I %1d:%04X CKD file %s: read data %d bytes', 0aH
	DB	00H
	ORG $+1
$SG160271 DB	'%s HHC00426I %1d:%04X CKD file %s: read trk %d cache hit'
	DB	', using cache[%d]', 0aH, 00H
	ORG $+5
$SG160273 DB	'tfprint.c', 00H
	ORG $+6
$SG160279 DB	'%s HHC00427I %1d:%04X CKD file %s: read trk %d no availa'
	DB	'ble cache entry, waiting', 0aH, 00H
	ORG $+6
$SG160280 DB	'print_TF00427', 00H
	ORG $+2
$SG160281 DB	'tfprint.c', 00H
	ORG $+6
$SG160288 DB	'print_TF00428', 00H
	ORG $+2
$SG160406 DB	'%s HHC00442I %1d:%04X CKD file %s: set file mask %02X', 0aH
	DB	00H
	ORG $+1
$SG160287 DB	'%s HHC00428I %1d:%04X CKD file %s: read trk %d cache mis'
	DB	's, using cache[%d]', 0aH, 00H
	ORG $+4
$SG160289 DB	'tfprint.c', 00H
	ORG $+6
$SG160295 DB	'%s HHC00429I %1d:%04X CKD file %s: read trk %d reading f'
	DB	'ile %d offset %lld len %d', 0aH, 00H
	ORG $+5
$SG160296 DB	'print_TF00429', 00H
	ORG $+2
$SG160297 DB	'tfprint.c', 00H
	ORG $+6
$SG160304 DB	'print_TF00430', 00H
	ORG $+2
$SG160446 DB	'%s HHC00520I %1d:%04X FBA file %s: positioning to 0x%llX'
	DB	' %lld', 0aH, 00H
	ORG $+1
$SG160454 DB	'%s HHC01300I %1d:%04X CHAN: halt subchannel: cc=%d', 0aH
	DB	00H
	ORG $+4
$SG160303 DB	'%s HHC00430I %1d:%04X CKD file %s: read trk %d trkhdr %0'
	DB	'2X %02X%02X %02X%02X', 0aH, 00H
	ORG $+2
$SG160305 DB	'tfprint.c', 00H
	ORG $+6
$SG160311 DB	'%s HHC00431I %1d:%04X CKD file %s: seeking to cyl %d hea'
	DB	'd %d', 0aH, 00H
	ORG $+2
$SG160312 DB	'print_TF00431', 00H
	ORG $+2
$SG160313 DB	'tfprint.c', 00H
	ORG $+6
$SG160319 DB	'%s HHC00432I %1d:%04X CKD file %s: error: MT advance: lo'
	DB	'cate record %d file mask %02X', 0aH, 00H
	ORG $+1
$SG160320 DB	'print_TF00432', 00H
	ORG $+2
$SG160321 DB	'tfprint.c', 00H
	ORG $+6
$SG160328 DB	'print_TF00433', 00H
	ORG $+2
$SG160473 DB	'%s HHC01302I %1d:%04X CHAN: idaw %8.8X, len %3.3hX%s', 0aH
	DB	00H
	ORG $+2
$SG160327 DB	'%s HHC00433I %1d:%04X CKD file %s: MT advance to cyl(%d)'
	DB	' head(%d)', 0aH, 00H
	ORG $+5
$SG160329 DB	'tfprint.c', 00H
	ORG $+6
$SG160342 DB	'%s HHC00434I %1d:%04X CKD file %s: read count orientatio'
	DB	'n %s', 0aH, 00H
	ORG $+2
$SG160343 DB	'print_TF00434', 00H
	ORG $+2
$SG160344 DB	'tfprint.c', 00H
	ORG $+6
$SG160351 DB	'print_TF00435', 00H
	ORG $+2
$SG160490 DB	'%s HHC01304I %1d:%04X CHAN: attention signaled', 0aH, 00H
$SG160498 DB	'%s HHC01305I %1d:%04X CHAN: attention', 0aH, 00H
	ORG $+1
$SG160350 DB	'%s HHC00435I %1d:%04X CKD file %s: cyl %d head %d record'
	DB	' %d kl %d dl %d of %d', 0aH, 00H
	ORG $+1
$SG160352 DB	'tfprint.c', 00H
	ORG $+6
$SG160359 DB	'print_TF00436', 00H
	ORG $+2
$SG160360 DB	'tfprint.c', 00H
	ORG $+6
$SG160367 DB	'print_TF00437', 00H
	ORG $+2
$SG160368 DB	'tfprint.c', 00H
	ORG $+6
$SG160374 DB	'%s HHC00438I %1d:%04X CKD file %s: writing cyl %d head %'
	DB	'd record %d kl %d dl %d', 0aH, 00H
	ORG $+7
$SG160375 DB	'print_TF00438', 00H
	ORG $+2
$SG160376 DB	'tfprint.c', 00H
	ORG $+6
$SG160383 DB	'print_TF00439', 00H
	ORG $+2
$SG160506 DB	'%s HHC01306I %1d:%04X CHAN: initial status interrupt', 0aH
	DB	00H
	ORG $+2
$SG160382 DB	'%s HHC00439I %1d:%04X CKD file %s: setting track overflo'
	DB	'w flag for cyl %d head %d record %d', 0aH, 00H
	ORG $+3
$SG160384 DB	'tfprint.c', 00H
	ORG $+6
$SG160390 DB	'%s HHC00440I %1d:%04X CKD file %s: updating cyl %d head '
	DB	'%d record %d kl %d dl %d', 0aH, 00H
	ORG $+6
$SG160391 DB	'print_TF00440', 00H
	ORG $+2
$SG160392 DB	'tfprint.c', 00H
	ORG $+6
$SG160399 DB	'print_TF00441', 00H
	ORG $+2
$SG160514 DB	'%s HHC01307I %1d:%04X CHAN: attention completed', 0aH, 00H
	ORG $+7
$SG160398 DB	'%s HHC00441I %1d:%04X CKD file %s: updating cyl %d head '
	DB	'%d record %d dl %d', 0aH, 00H
	ORG $+4
$SG160400 DB	'tfprint.c', 00H
	ORG $+6
$SG160407 DB	'print_TF00442', 00H
	ORG $+2
$SG160408 DB	'tfprint.c', 00H
	ORG $+6
$SG160414 DB	'%s HHC00516I %1d:%04X FBA file %s: read blkgrp %d cache '
	DB	'hit, using cache[%d]', 0aH, 00H
	ORG $+2
$SG160415 DB	'print_TF00516', 00H
	ORG $+2
$SG160416 DB	'tfprint.c', 00H
	ORG $+6
$SG160422 DB	'%s HHC00517I %1d:%04X FBA file %s: read blkgrp %d no ava'
	DB	'ilable cache entry, waiting', 0aH, 00H
	ORG $+3
$SG160423 DB	'print_TF00517', 00H
	ORG $+2
$SG160424 DB	'tfprint.c', 00H
	ORG $+6
$SG160431 DB	'print_TF00518', 00H
	ORG $+2
$SG160538 DB	'%s HHC01310I %1d:%04X CHAN: suspended', 0aH, 00H
	ORG $+1
$SG160430 DB	'%s HHC00518I %1d:%04X FBA file %s: read blkgrp %d cache '
	DB	'miss, using cache[%d]', 0aH, 00H
	ORG $+1
$SG160432 DB	'tfprint.c', 00H
	ORG $+6
$SG160438 DB	'%s HHC00519I %1d:%04X FBA file %s: read blkgrp %d offset'
	DB	' %lld len %d', 0aH, 00H
	ORG $+2
$SG160439 DB	'print_TF00519', 00H
	ORG $+2
$SG160440 DB	'tfprint.c', 00H
	ORG $+6
$SG160447 DB	'print_TF00520', 00H
	ORG $+2
$SG160448 DB	'tfprint.c', 00H
	ORG $+6
$SG160455 DB	'print_TF01300', 00H
	ORG $+2
$SG160456 DB	'tfprint.c', 00H
	ORG $+6
$SG160474 DB	'print_TF01301', 00H
	ORG $+2
$SG160475 DB	'tfprint.c', 00H
	ORG $+6
$SG160477 DB	'%s HHC01303I %1d:%04X CHAN: idaw %16.16llX, len %4.4hX%s'
	DB	0aH, 00H
	ORG $+6
$SG160478 DB	'print_TF01301', 00H
	ORG $+2
$SG160479 DB	'tfprint.c', 00H
	ORG $+6
$SG160481 DB	'%s HHC01301I %1d:%04X CHAN: midaw %2.2X %4.4hX %16.16llX'
	DB	'%s', 0aH, 00H
	ORG $+4
$SG160482 DB	'print_TF01301', 00H
	ORG $+2
$SG160483 DB	'tfprint.c', 00H
	ORG $+6
$SG160491 DB	'print_TF01304', 00H
	ORG $+2
$SG160492 DB	'tfprint.c', 00H
	ORG $+6
$SG160499 DB	'print_TF01305', 00H
	ORG $+2
$SG160500 DB	'tfprint.c', 00H
	ORG $+6
$SG160507 DB	'print_TF01306', 00H
	ORG $+2
$SG160508 DB	'tfprint.c', 00H
	ORG $+6
$SG160515 DB	'print_TF01307', 00H
	ORG $+2
$SG160516 DB	'tfprint.c', 00H
	ORG $+6
$SG160522 DB	'%s HHC01308I %1d:%04X CHAN: clear completed', 0aH, 00H
	ORG $+3
$SG160523 DB	'print_TF01308', 00H
	ORG $+2
$SG160524 DB	'tfprint.c', 00H
	ORG $+6
$SG160530 DB	'%s HHC01309I %1d:%04X CHAN: halt completed', 0aH, 00H
	ORG $+4
$SG160531 DB	'print_TF01309', 00H
	ORG $+2
$SG160532 DB	'tfprint.c', 00H
	ORG $+6
$SG160539 DB	'print_TF01310', 00H
	ORG $+2
$SG160540 DB	'tfprint.c', 00H
	ORG $+6
$SG160546 DB	'%s HHC01311I %1d:%04X CHAN: resumed', 0aH, 00H
	ORG $+3
$SG160547 DB	'print_TF01311', 00H
	ORG $+2
$SG160548 DB	'tfprint.c', 00H
	ORG $+6
$SG160554 DB	'%s HHC01312I %1d:%04X CHAN: stat %2.2X%2.2X, count %4.4X'
	DB	0aH, 00H
	ORG $+6
$SG160555 DB	'print_TF01312', 00H
	ORG $+2
$SG160556 DB	'tfprint.c', 00H
	ORG $+6
$SG160562 DB	'%s HHC01313I %1d:%04X CHAN: sense %2.2X%2.2X%2.2X%2.2X %'
	DB	'2.2X%2.2X%2.2X%2.2X %2.2X%2.2X%2.2X%2.2X %2.2X%2.2X%2.2X%2.2X'
	DB	' %2.2X%2.2X%2.2X%2.2X %2.2X%2.2X%2.2X%2.2X %2.2X%2.2X%2.2X%2.'
	DB	'2X %2.2X%2.2X%2.2X%2.2X', 0aH, 00H
	ORG $+5
$SG160563 DB	'print_TF01313', 00H
	ORG $+2
$SG160564 DB	'tfprint.c', 00H
	ORG $+6
$SG160566 DB	'%s HHC01314I %1d:%04X CHAN: sense %s', 0aH, 00H
	ORG $+2
$SG160567 DB	'print_TF01313', 00H
	ORG $+2
$SG160568 DB	'tfprint.c', 00H
	ORG $+6
$SG160575 DB	'print_TF01315', 00H
	ORG $+2
$SG160622 DB	'%s HHC01329I %1d:%04X CHAN: halt I/O', 0aH, 00H
	ORG $+2
$SG160574 DB	'%s HHC01315I %1d:%04X CHAN: ccw %2.2X%2.2X%2.2X%2.2X %2.'
	DB	'2X%2.2X%2.2X%2.2X%s', 0aH, 00H
	ORG $+3
$SG160576 DB	'tfprint.c', 00H
	ORG $+6
$SG160582 DB	'%s HHC01316I %1d:%04X CHAN: csw %2.2X, stat %2.2X%2.2X, '
	DB	'count %2.2X%2.2X, ccw %2.2X%2.2X%2.2X', 0aH, 00H
	ORG $+1
$SG160583 DB	'print_TF01316', 00H
	ORG $+2
$SG160584 DB	'tfprint.c', 00H
	ORG $+6
$SG160590 DB	'%s HHC01317I %1d:%04X CHAN: scsw %2.2X%2.2X%2.2X%2.2X, s'
	DB	'tat %2.2X%2.2X, count %2.2X%2.2X, ccw %2.2X%2.2X%2.2X%2.2X', 0aH
	DB	00H
	ORG $+4
$SG160591 DB	'print_TF01317', 00H
	ORG $+2
$SG160592 DB	'tfprint.c', 00H
	ORG $+6
$SG160598 DB	'%s HHC01318I %1d:%04X CHAN: test I/O: cc=%d', 0aH, 00H
	ORG $+3
$SG160599 DB	'print_TF01318', 00H
	ORG $+2
$SG160600 DB	'tfprint.c', 00H
	ORG $+6
$SG160607 DB	'print_TF01320', 00H
	ORG $+2
$SG160654 DB	'%s HHC01333I %1d:%04X CHAN: resume subchannel: cc=%d', 0aH
	DB	00H
	ORG $+2
$SG160606 DB	'%s HHC01320I %1d:%04X CHAN: start I/O S/370 conversion t'
	DB	'o asynchronous operation started', 0aH, 00H
	ORG $+6
$SG160608 DB	'tfprint.c', 00H
	ORG $+6
$SG160614 DB	'%s HHC01321I %1d:%04X CHAN: start I/O S/370 conversion t'
	DB	'o asynchronous operation successful', 0aH, 00H
	ORG $+3
$SG160615 DB	'print_TF01321', 00H
	ORG $+2
$SG160616 DB	'tfprint.c', 00H
	ORG $+6
$SG160623 DB	'print_TF01329', 00H
	ORG $+2
$SG160624 DB	'tfprint.c', 00H
	ORG $+6
$SG160630 DB	'%s HHC01330I %1d:%04X CHAN: HIO modification executed: c'
	DB	'c=1', 0aH, 00H
	ORG $+3
$SG160631 DB	'print_TF01330', 00H
	ORG $+2
$SG160632 DB	'tfprint.c', 00H
	ORG $+6
$SG160638 DB	'%s HHC01331I %1d:%04X CHAN: clear subchannel', 0aH, 00H
	ORG $+2
$SG160639 DB	'print_TF01331', 00H
	ORG $+2
$SG160640 DB	'tfprint.c', 00H
	ORG $+6
$SG160646 DB	'%s HHC01332I %1d:%04X CHAN: halt subchannel', 0aH, 00H
	ORG $+3
$SG160647 DB	'print_TF01332', 00H
	ORG $+2
$SG160648 DB	'tfprint.c', 00H
	ORG $+6
$SG160655 DB	'print_TF01333', 00H
	ORG $+2
$SG160656 DB	'tfprint.c', 00H
	ORG $+6
$SG160663 DB	'%s HHC01334I %1d:%04X CHAN: ORB: %s', 0aH, 00H
	ORG $+3
$SG160664 DB	'print_TF01334', 00H
	ORG $+2
$SG160665 DB	'tfprint.c', 00H
	ORG $+6
$SG160672 DB	'print_TF01336', 00H
	ORG $+2
$SG160775 DB	'%s HHC02269E %s', 00H
$SG160776 DB	'Instruction fetch error', 00H
$SG160671 DB	'%s HHC01336I %1d:%04X CHAN: startio cc=2 (busy=%d startp'
	DB	'ending=%d)', 0aH, 00H
	ORG $+4
$SG160673 DB	'tfprint.c', 00H
	ORG $+6
$SG160778 DB	'process_TF02269', 00H
$SG160779 DB	'tfprint.c', 00H
	ORG $+6
$SG160795 DB	'%s HHC02324I %s: %s %s', 0aH, 00H
$SG160796 DB	'process_TF02324', 00H
$SG160797 DB	'tfprint.c', 00H
	ORG $+6
$SG160806 DB	'%s HHC02267I Real address is not valid', 0aH, 00H
$SG160807 DB	'process_TF02326', 00H
$SG160808 DB	'tfprint.c', 00H
	ORG $+6
$SG161079 DB	'HHC03206%s Error reading trace file: %s', 0aH, 00H
	ORG $+7
$SG161080 DB	'finish_reading_rec', 00H
	ORG $+5
$SG161081 DB	'tfprint.c', 00H
	ORG $+6
$SG161085 DB	'HHC03207%s Truncated %s record; aborting', 0aH, 00H
	ORG $+6
$SG161086 DB	'finish_reading_rec', 00H
	ORG $+5
$SG161087 DB	'tfprint.c', 00H
	ORG $+6
$SG161198 DB	'Print Trace File Utility', 00H
	ORG $+7
$SG161199 DB	'tfprint', 00H
$SG161202 DB	'HHC03206%s Error reading trace file: %s', 0aH, 00H
	ORG $+3
$SG161203 DB	'main', 00H
	ORG $+7
$SG161204 DB	'tfprint.c', 00H
	ORG $+6
$SG161208 DB	'HHC03207%s Truncated %s record; aborting', 0aH, 00H
	ORG $+2
$SG161209 DB	'main', 00H
	ORG $+7
$SG161210 DB	'tfprint.c', 00H
	ORG $+6
$SG161214 DB	'HHC03212%s File does not start with TFSYS record; aborti'
	DB	'ng', 0aH, 00H
$SG161215 DB	'main', 00H
	ORG $+7
$SG161216 DB	'tfprint.c', 00H
	ORG $+6
$SG161220 DB	'HHC03213%s Unsupported Trace File format: %%TF%c', 0aH, 00H
	ORG $+2
$SG161221 DB	'main', 00H
	ORG $+7
$SG161222 DB	'tfprint.c', 00H
	ORG $+6
$SG161225 DB	'HHC03210%s Incompatible MAX_CPU_ENGS', 0aH, 00H
	ORG $+2
$SG161226 DB	'main', 00H
	ORG $+3
$SG161227 DB	'tfprint.c', 00H
	ORG $+6
$SG161231 DB	'HHC03216%s Incompatible Hercules build architectures', 0aH
	DB	00H
	ORG $+2
$SG161232 DB	'main', 00H
	ORG $+3
$SG161233 DB	'tfprint.c', 00H
	ORG $+6
$SG161239 DB	'HHC03206%s Error reading trace file: %s', 0aH, 00H
	ORG $+3
$SG161240 DB	'main', 00H
	ORG $+7
$SG161241 DB	'tfprint.c', 00H
	ORG $+6
$SG161246 DB	'HHC03207%s Truncated %s record; aborting', 0aH, 00H
	ORG $+2
$SG161247 DB	'main', 00H
	ORG $+7
$SG161248 DB	'tfprint.c', 00H
	ORG $+6
$SG161399 DB	'HHC03214%s Unsupported Trace File record: msgnum %hu', 0aH
	DB	00H
	ORG $+2
$SG161400 DB	'main', 00H
	ORG $+3
$SG161401 DB	'tfprint.c', 00H
	ORG $+6
$SG161403 DB	'instructions', 00H
	ORG $+3
$SG161405 DB	'HHC03215%s %s %s printed', 0aH, 00H
	ORG $+2
$SG161406 DB	'main', 00H
	ORG $+7
$SG161407 DB	'tfprint.c', 00H
	ORG $+6
$SG161408 DB	'device I/O''s', 00H
	ORG $+3
$SG161410 DB	'HHC03215%s %s %s printed', 0aH, 00H
	ORG $+2
$SG161411 DB	'main', 00H
	ORG $+7
$SG161412 DB	'tfprint.c', 00H
	ORG $+6
$SG161428 DB	'tfprint.c', 00H
	ORG $+6
$SG161430 DB	'%-17.17s ', 00H
	ORG $+6
$SG161432 DB	'HHC03217I Args:', 00H
shortopts DB	':ic:r:n:e:s:d:t:o:m:u:p:', 00H
	ORG $+7
$SG161534 DB	'HHC03219%s Invalid/unsupported option: %s', 0aH, 00H
	ORG $+5
$SG161535 DB	'process_args', 00H
	ORG $+3
$SG161680 DB	'%llx', 00H
	ORG $+3
longopts DQ	FLAT:$SG161457
	DD	00H
	ORG $+4
	DQ	0000000000000000H
	DD	069H
	ORG $+4
	DQ	FLAT:$SG161458
	DD	01H
	ORG $+4
	DQ	0000000000000000H
	DD	063H
	ORG $+4
	DQ	FLAT:$SG161459
	DD	01H
	ORG $+4
	DQ	0000000000000000H
	DD	072H
	ORG $+4
	DQ	FLAT:$SG161460
	DD	01H
	ORG $+4
	DQ	0000000000000000H
	DD	06eH
	ORG $+4
	DQ	FLAT:$SG161461
	DD	01H
	ORG $+4
	DQ	0000000000000000H
	DD	065H
	ORG $+4
	DQ	FLAT:$SG161462
	DD	01H
	ORG $+4
	DQ	0000000000000000H
	DD	073H
	ORG $+4
	DQ	FLAT:$SG161463
	DD	01H
	ORG $+4
	DQ	0000000000000000H
	DD	064H
	ORG $+4
	DQ	FLAT:$SG161464
	DD	01H
	ORG $+4
	DQ	0000000000000000H
	DD	074H
	ORG $+4
	DQ	FLAT:$SG161465
	DD	01H
	ORG $+4
	DQ	0000000000000000H
	DD	06fH
	ORG $+4
	DQ	FLAT:$SG161466
	DD	01H
	ORG $+4
	DQ	0000000000000000H
	DD	06dH
	ORG $+4
	DQ	FLAT:$SG161467
	DD	01H
	ORG $+4
	DQ	0000000000000000H
	DD	075H
	ORG $+4
	DQ	FLAT:$SG161468
	DD	01H
	ORG $+4
	DQ	0000000000000000H
	DD	070H
	ORG $+4
	DQ	0000000000000000H
	DD	00H
	ORG $+4
	DQ	0000000000000000H
	DD	00H
	ORG $+4
$SG161536 DB	'tfprint.c', 00H
	ORG $+6
$SG161539 DB	'HHC03204%s Missing argument for option %s', 0aH, 00H
	ORG $+5
$SG161540 DB	'process_args', 00H
	ORG $+3
$SG161541 DB	'tfprint.c', 00H
	ORG $+6
$SG161546 DB	'HHC03204%s Missing argument for option %s', 0aH, 00H
	ORG $+5
$SG161547 DB	'process_args', 00H
	ORG $+3
$SG161548 DB	'tfprint.c', 00H
	ORG $+6
$SG161552 DB	'HHC03204%s Missing argument for option %s', 0aH, 00H
	ORG $+5
$SG161553 DB	'process_args', 00H
	ORG $+3
$SG161554 DB	'tfprint.c', 00H
	ORG $+6
$SG161558 DB	'HHC03204%s Missing argument for option %s', 0aH, 00H
	ORG $+5
$SG161559 DB	'process_args', 00H
	ORG $+3
$SG161560 DB	'tfprint.c', 00H
	ORG $+6
$SG161564 DB	'HHC03204%s Missing argument for option %s', 0aH, 00H
	ORG $+5
$SG161565 DB	'process_args', 00H
	ORG $+3
$SG161566 DB	'tfprint.c', 00H
	ORG $+6
$SG161570 DB	'HHC03204%s Missing argument for option %s', 0aH, 00H
	ORG $+5
$SG161571 DB	'process_args', 00H
	ORG $+3
$SG161572 DB	'tfprint.c', 00H
	ORG $+6
$SG161576 DB	'HHC03204%s Missing argument for option %s', 0aH, 00H
	ORG $+5
$SG161577 DB	'process_args', 00H
	ORG $+3
$SG161578 DB	'tfprint.c', 00H
	ORG $+6
$SG161582 DB	'HHC03204%s Missing argument for option %s', 0aH, 00H
	ORG $+5
$SG161583 DB	'process_args', 00H
	ORG $+3
$SG161584 DB	'tfprint.c', 00H
	ORG $+6
$SG161588 DB	'HHC03204%s Missing argument for option %s', 0aH, 00H
	ORG $+5
$SG161589 DB	'process_args', 00H
	ORG $+3
$SG161590 DB	'tfprint.c', 00H
	ORG $+6
$SG161594 DB	'HHC03204%s Missing argument for option %s', 0aH, 00H
	ORG $+5
$SG161595 DB	'process_args', 00H
	ORG $+3
$SG161596 DB	'tfprint.c', 00H
	ORG $+6
$SG161600 DB	'HHC03204%s Missing argument for option %s', 0aH, 00H
	ORG $+5
$SG161601 DB	'process_args', 00H
	ORG $+3
$SG161602 DB	'tfprint.c', 00H
	ORG $+6
$SG161606 DB	'HHC03204%s Missing argument for option %s', 0aH, 00H
	ORG $+5
$SG161607 DB	'process_args', 00H
	ORG $+3
$SG161608 DB	'tfprint.c', 00H
	ORG $+6
$SG161612 DB	'HHC03219%s Invalid/unsupported option: %s', 0aH, 00H
	ORG $+5
$SG161613 DB	'process_args', 00H
	ORG $+3
$SG161614 DB	'tfprint.c', 00H
	ORG $+6
$SG161617 DB	'HHC03201%s Missing input-file specification', 0aH, 00H
	ORG $+3
$SG161618 DB	'process_args', 00H
	ORG $+3
$SG161619 DB	'tfprint.c', 00H
	ORG $+6
$SG161626 DB	'HHC03220%s --date range is required when --time range sp'
	DB	'ecified', 0aH, 00H
	ORG $+7
$SG161627 DB	'process_args', 00H
	ORG $+3
$SG161628 DB	'tfprint.c', 00H
	ORG $+6
$SG161644 DB	'msglvl %s', 00H
	ORG $+6
$SG161681 DB	'convert_opt_str', 00H
$SG161682 DB	'tfprint.c', 00H
	ORG $+6
$SG161685 DB	'convert_opt_str', 00H
$SG161691 DB	'%llu', 00H
	ORG $+3
$SG161683 DB	'%s(%d) : warning HHC90999W : *** Assertion Failed! *** f'
	DB	'unction: %s', 0aH, 00H
	ORG $+3
$SG161686 DB	'tfprint.c', 00H
	ORG $+6
$SG161692 DB	'convert_opt_str', 00H
$SG161760 DB	'parse_option_error', 00H
	ORG $+5
$SG161687 DB	'%s(%d) : warning HHC90999W : *** Assertion Failed! *** f'
	DB	'unction: %s', 0aH, 00H
	ORG $+3
$SG161693 DB	'tfprint.c', 00H
	ORG $+6
$SG161696 DB	'convert_opt_str', 00H
$SG161853 DB	'%llx', 00H
	ORG $+3
$SG161694 DB	'%s(%d) : warning HHC90999W : *** Assertion Failed! *** f'
	DB	'unction: %s', 0aH, 00H
	ORG $+3
$SG161697 DB	'tfprint.c', 00H
	ORG $+6
$SG161759 DB	'HHC03205%s Option "%s" value "%s" is invalid', 0aH, 00H
	ORG $+2
$SG161854 DB	'convert_storage_opt_str', 00H
$SG161698 DB	'%s(%d) : warning HHC90999W : *** Assertion Failed! *** f'
	DB	'unction: %s', 0aH, 00H
	ORG $+3
$SG161761 DB	'tfprint.c', 00H
	ORG $+6
$SG161801 DB	'REGSFIRST', 00H
	ORG $+6
$SG161804 DB	'TRADITIONAL', 00H
	ORG $+4
$SG161855 DB	'tfprint.c', 00H
	ORG $+6
$SG161858 DB	'convert_storage_opt_str', 00H
$SG161856 DB	'%s(%d) : warning HHC90999W : *** Assertion Failed! *** f'
	DB	'unction: %s', 0aH, 00H
	ORG $+3
$SG161859 DB	'tfprint.c', 00H
	ORG $+2
$SG161908 DB	'%llu', 00H
	ORG $+7
$SG161860 DB	'%s(%d) : warning HHC90999W : *** Assertion Failed! *** f'
	DB	'unction: %s', 0aH, 00H
	ORG $+3
$SG161909 DB	'parse_date_str', 00H
	ORG $+1
$SG161910 DB	'tfprint.c', 00H
	ORG $+6
$SG161913 DB	'parse_date_str', 00H
	ORG $+1
$SG161918 DB	'%llu', 00H
	ORG $+3
$SG161911 DB	'%s(%d) : warning HHC90999W : *** Assertion Failed! *** f'
	DB	'unction: %s', 0aH, 00H
	ORG $+3
$SG161914 DB	'tfprint.c', 00H
	ORG $+6
$SG161919 DB	'parse_date_str', 00H
	ORG $+1
$SG161928 DB	'%llu', 00H
	ORG $+3
$SG161915 DB	'%s(%d) : warning HHC90999W : *** Assertion Failed! *** f'
	DB	'unction: %s', 0aH, 00H
	ORG $+3
$SG161920 DB	'tfprint.c', 00H
	ORG $+6
$SG161923 DB	'parse_date_str', 00H
	ORG $+1
$SG161993 DB	'%llu', 00H
	ORG $+3
$SG161921 DB	'%s(%d) : warning HHC90999W : *** Assertion Failed! *** f'
	DB	'unction: %s', 0aH, 00H
	ORG $+3
$SG161924 DB	'tfprint.c', 00H
	ORG $+6
$SG161929 DB	'parse_date_str', 00H
	ORG $+1
$SG162003 DB	'%llu', 00H
	ORG $+3
$SG161925 DB	'%s(%d) : warning HHC90999W : *** Assertion Failed! *** f'
	DB	'unction: %s', 0aH, 00H
	ORG $+3
$SG161930 DB	'tfprint.c', 00H
	ORG $+6
$SG161933 DB	'parse_date_str', 00H
	ORG $+1
$SG162013 DB	'%llu', 00H
	ORG $+3
$SG161931 DB	'%s(%d) : warning HHC90999W : *** Assertion Failed! *** f'
	DB	'unction: %s', 0aH, 00H
	ORG $+3
$SG161934 DB	'tfprint.c', 00H
	ORG $+6
$SG161994 DB	'parse_time_str', 00H
	ORG $+1
$SG162023 DB	'%llu', 00H
	ORG $+3
$SG161935 DB	'%s(%d) : warning HHC90999W : *** Assertion Failed! *** f'
	DB	'unction: %s', 0aH, 00H
	ORG $+3
$SG161995 DB	'tfprint.c', 00H
	ORG $+6
$SG161998 DB	'parse_time_str', 00H
	ORG $+1
$SG162125 DB	'HHC03202%s Error opening "%s": %s', 0aH, 00H
	ORG $+5
$SG161996 DB	'%s(%d) : warning HHC90999W : *** Assertion Failed! *** f'
	DB	'unction: %s', 0aH, 00H
	ORG $+3
$SG161999 DB	'tfprint.c', 00H
	ORG $+6
$SG162004 DB	'parse_time_str', 00H
	ORG $+1
$SG162126 DB	'parse_tracefile', 00H
$SG162130 DB	'fseek', 00H
	ORG $+2
$SG162000 DB	'%s(%d) : warning HHC90999W : *** Assertion Failed! *** f'
	DB	'unction: %s', 0aH, 00H
	ORG $+3
$SG162005 DB	'tfprint.c', 00H
	ORG $+6
$SG162008 DB	'parse_time_str', 00H
	ORG $+1
$SG162132 DB	'HHC00075%s Error in function %s: %s', 0aH, 00H
	ORG $+3
$SG162006 DB	'%s(%d) : warning HHC90999W : *** Assertion Failed! *** f'
	DB	'unction: %s', 0aH, 00H
	ORG $+3
$SG162009 DB	'tfprint.c', 00H
	ORG $+6
$SG162014 DB	'parse_time_str', 00H
	ORG $+1
$SG162133 DB	'parse_tracefile', 00H
$SG162137 DB	'ftell', 00H
	ORG $+2
$SG162010 DB	'%s(%d) : warning HHC90999W : *** Assertion Failed! *** f'
	DB	'unction: %s', 0aH, 00H
	ORG $+3
$SG162015 DB	'tfprint.c', 00H
	ORG $+6
$SG162018 DB	'parse_time_str', 00H
	ORG $+1
$SG162139 DB	'HHC00075%s Error in function %s: %s', 0aH, 00H
	ORG $+3
$SG162016 DB	'%s(%d) : warning HHC90999W : *** Assertion Failed! *** f'
	DB	'unction: %s', 0aH, 00H
	ORG $+3
$SG162019 DB	'tfprint.c', 00H
	ORG $+6
$SG162024 DB	'parse_time_str', 00H
	ORG $+1
$SG162140 DB	'parse_tracefile', 00H
$SG162144 DB	'fseek', 00H
	ORG $+2
$SG162020 DB	'%s(%d) : warning HHC90999W : *** Assertion Failed! *** f'
	DB	'unction: %s', 0aH, 00H
	ORG $+3
$SG162025 DB	'tfprint.c', 00H
	ORG $+6
$SG162028 DB	'parse_time_str', 00H
	ORG $+1
$SG162146 DB	'HHC00075%s Error in function %s: %s', 0aH, 00H
	ORG $+3
$SG162026 DB	'%s(%d) : warning HHC90999W : *** Assertion Failed! *** f'
	DB	'unction: %s', 0aH, 00H
	ORG $+3
$SG162029 DB	'tfprint.c', 00H
	ORG $+6
$SG162147 DB	'parse_tracefile', 00H
	ORG $+8
$SG162030 DB	'%s(%d) : warning HHC90999W : *** Assertion Failed! *** f'
	DB	'unction: %s', 0aH, 00H
	ORG $+3
$SG162127 DB	'tfprint.c', 00H
	ORG $+6
$SG162134 DB	'tfprint.c', 00H
	ORG $+6
$SG162141 DB	'tfprint.c', 00H
	ORG $+6
$SG162148 DB	'tfprint.c', 00H
_DATA	ENDS
voltbl	SEGMENT
_volmd	DD	0ffffffffH
	DDSymXIndex: 	FLAT:parse_time_str
	DD	01bH
	DD	042dH
_volmd	DD	0ffffffffH
	DDSymXIndex: 	FLAT:parse_date_str
	DD	01bH
	DD	0316H
_volmd	DD	0ffffffffH
	DDSymXIndex: 	FLAT:parse_opt_str
	DD	024H
	DD	06d1H
_volmd	DD	0ffffffffH
	DDSymXIndex: 	FLAT:parse_option_time
	DD	014H
	DD	0116H
_volmd	DD	0ffffffffH
	DDSymXIndex: 	FLAT:parse_option_date
	DD	014H
	DD	0f8H
_volmd	DD	0ffffffffH
	DDSymXIndex: 	FLAT:parse_option_msglvl
	DD	013H
	DD	05dH
_volmd	DD	0ffffffffH
	DDSymXIndex: 	FLAT:print_args
	DD	01aH
	DD	0189H
_volmd	DD	0ffffffffH
	DDSymXIndex: 	FLAT:main
	DD	01bH
	DD	01285H
_volmd	DD	0ffffffffH
	DDSymXIndex: 	FLAT:finish_reading_rec
	DD	018H
	DD	02aaH
_volmd	DD	0ffffffffH
	DDSymXIndex: 	FLAT:process_TF02326
	DD	017H
	DD	0112H
_volmd	DD	0ffffffffH
	DDSymXIndex: 	FLAT:process_TF02324
	DD	017H
	DD	0302H
_volmd	DD	0ffffffffH
	DDSymXIndex: 	FLAT:process_TF02269
	DD	017H
	DD	018eH
_volmd	DD	0ffffffffH
	DDSymXIndex: 	FLAT:print_TF01336
	DD	017H
	DD	011aH
_volmd	DD	0ffffffffH
	DDSymXIndex: 	FLAT:print_TF01334
	DD	017H
	DD	013dH
_volmd	DD	0ffffffffH
	DDSymXIndex: 	FLAT:print_TF01333
	DD	017H
	DD	0f6H
_volmd	DD	0ffffffffH
	DDSymXIndex: 	FLAT:print_TF01332
	DD	017H
	DD	0e8H
_volmd	DD	0ffffffffH
	DDSymXIndex: 	FLAT:print_TF01331
	DD	017H
	DD	0e8H
_volmd	DD	0ffffffffH
	DDSymXIndex: 	FLAT:print_TF01330
	DD	017H
	DD	0e8H
_volmd	DD	0ffffffffH
	DDSymXIndex: 	FLAT:print_TF01329
	DD	017H
	DD	0e8H
_volmd	DD	0ffffffffH
	DDSymXIndex: 	FLAT:print_TF01321
	DD	017H
	DD	0e8H
_volmd	DD	0ffffffffH
	DDSymXIndex: 	FLAT:print_TF01320
	DD	017H
	DD	0e8H
_volmd	DD	0ffffffffH
	DDSymXIndex: 	FLAT:print_TF01318
	DD	017H
	DD	0f6H
_volmd	DD	0ffffffffH
	DDSymXIndex: 	FLAT:print_TF01317
	DD	022H
	DD	0262H
_volmd	DD	0ffffffffH
	DDSymXIndex: 	FLAT:print_TF01316
	DD	01aH
	DD	021dH
_volmd	DD	0ffffffffH
	DDSymXIndex: 	FLAT:print_TF01315
	DD	01cH
	DD	024cH
_volmd	DD	0ffffffffH
	DDSymXIndex: 	FLAT:print_TF01313
	DD	022H
	DD	076eH
_volmd	DD	0ffffffffH
	DDSymXIndex: 	FLAT:print_TF01312
	DD	017H
	DD	0129H
_volmd	DD	0ffffffffH
	DDSymXIndex: 	FLAT:print_TF01311
	DD	017H
	DD	0e8H
_volmd	DD	0ffffffffH
	DDSymXIndex: 	FLAT:print_TF01310
	DD	017H
	DD	0e8H
_volmd	DD	0ffffffffH
	DDSymXIndex: 	FLAT:print_TF01309
	DD	017H
	DD	0e8H
_volmd	DD	0ffffffffH
	DDSymXIndex: 	FLAT:print_TF01308
	DD	017H
	DD	0e8H
_volmd	DD	0ffffffffH
	DDSymXIndex: 	FLAT:print_TF01307
	DD	017H
	DD	0e8H
_volmd	DD	0ffffffffH
	DDSymXIndex: 	FLAT:print_TF01306
	DD	017H
	DD	0e8H
_volmd	DD	0ffffffffH
	DDSymXIndex: 	FLAT:print_TF01305
	DD	017H
	DD	0e8H
_volmd	DD	0ffffffffH
	DDSymXIndex: 	FLAT:print_TF01304
	DD	017H
	DD	0e8H
_volmd	DD	0ffffffffH
	DDSymXIndex: 	FLAT:print_TF01301
	DD	017H
	DD	03c9H
_volmd	DD	0ffffffffH
	DDSymXIndex: 	FLAT:print_TF01300
	DD	017H
	DD	0f6H
_volmd	DD	0ffffffffH
	DDSymXIndex: 	FLAT:print_TF00520
	DD	017H
	DD	011bH
_volmd	DD	0ffffffffH
	DDSymXIndex: 	FLAT:print_TF00519
	DD	017H
	DD	0131H
_volmd	DD	0ffffffffH
	DDSymXIndex: 	FLAT:print_TF00518
	DD	017H
	DD	0117H
_volmd	DD	0ffffffffH
	DDSymXIndex: 	FLAT:print_TF00517
	DD	017H
	DD	0108H
_volmd	DD	0ffffffffH
	DDSymXIndex: 	FLAT:print_TF00516
	DD	017H
	DD	0117H
_volmd	DD	0ffffffffH
	DDSymXIndex: 	FLAT:print_TF00442
	DD	017H
	DD	011dH
_volmd	DD	0ffffffffH
	DDSymXIndex: 	FLAT:print_TF00441
	DD	017H
	DD	0150H
_volmd	DD	0ffffffffH
	DDSymXIndex: 	FLAT:print_TF00440
	DD	017H
	DD	0171H
_volmd	DD	0ffffffffH
	DDSymXIndex: 	FLAT:print_TF00439
	DD	017H
	DD	0141H
_volmd	DD	0ffffffffH
	DDSymXIndex: 	FLAT:print_TF00438
	DD	017H
	DD	0191H
_volmd	DD	0ffffffffH
	DDSymXIndex: 	FLAT:print_TF00437
	DD	017H
	DD	011dH
_volmd	DD	0ffffffffH
	DDSymXIndex: 	FLAT:print_TF00436
	DD	017H
	DD	0108H
_volmd	DD	0ffffffffH
	DDSymXIndex: 	FLAT:print_TF00435
	DD	017H
	DD	0180H
_volmd	DD	0ffffffffH
	DDSymXIndex: 	FLAT:print_TF00434
	DD	017H
	DD	013dH
_volmd	DD	0ffffffffH
	DDSymXIndex: 	FLAT:print_TF00433
	DD	017H
	DD	0117H
_volmd	DD	0ffffffffH
	DDSymXIndex: 	FLAT:print_TF00432
	DD	017H
	DD	0137H
_volmd	DD	0ffffffffH
	DDSymXIndex: 	FLAT:print_TF00431
	DD	017H
	DD	0117H
_volmd	DD	0ffffffffH
	DDSymXIndex: 	FLAT:print_TF00430
	DD	018H
	DD	01e6H
_volmd	DD	0ffffffffH
	DDSymXIndex: 	FLAT:print_TF00429
	DD	017H
	DD	0140H
_volmd	DD	0ffffffffH
	DDSymXIndex: 	FLAT:print_TF00428
	DD	017H
	DD	0117H
_volmd	DD	0ffffffffH
	DDSymXIndex: 	FLAT:print_TF00427
	DD	017H
	DD	0108H
_volmd	DD	0ffffffffH
	DDSymXIndex: 	FLAT:print_TF00426
	DD	017H
	DD	0117H
_volmd	DD	0ffffffffH
	DDSymXIndex: 	FLAT:print_TF00425
	DD	017H
	DD	0108H
_volmd	DD	0ffffffffH
	DDSymXIndex: 	FLAT:print_TF00424
	DD	017H
	DD	0117H
_volmd	DD	0ffffffffH
	DDSymXIndex: 	FLAT:print_TF00423
	DD	017H
	DD	0167H
_volmd	DD	0ffffffffH
	DDSymXIndex: 	FLAT:fmtdata
	DD	026H
	DD	0356H
_volmd	DD	0ffffffffH
	DDSymXIndex: 	FLAT:print_814_sigp
	DD	017H
	DD	0254H
_volmd	DD	0ffffffffH
	DDSymXIndex: 	FLAT:print_806_io_rupt
	DD	017H
	DD	01f8H
_volmd	DD	0ffffffffH
	DDSymXIndex: 	FLAT:print_storage_lines
	DD	016H
	DD	01feH
_volmd	DD	0ffffffffH
	DDSymXIndex: 	FLAT:print_op_stor
	DD	030H
	DD	06a5H
_volmd	DD	0ffffffffH
	DDSymXIndex: 	FLAT:print_846_srvsig_ext_rupt
	DD	017H
	DD	0e7H
_volmd	DD	0ffffffffH
	DDSymXIndex: 	FLAT:print_845_blkio_ext_rupt
	DD	017H
	DD	018aH
_volmd	DD	0ffffffffH
	DDSymXIndex: 	FLAT:print_844_blkio_rupt
	DD	017H
	DD	0171H
_volmd	DD	0ffffffffH
	DDSymXIndex: 	FLAT:print_840_ext_rupt
	DD	017H
	DD	02e7H
_volmd	DD	0ffffffffH
	DDSymXIndex: 	FLAT:print_812_vect_online_370
	DD	017H
	DD	0d8H
_volmd	DD	0ffffffffH
	DDSymXIndex: 	FLAT:print_811_arch_mode
	DD	017H
	DD	0f3H
_volmd	DD	0ffffffffH
	DDSymXIndex: 	FLAT:print_809_disabled_wait
	DD	017H
	DD	0f3H
_volmd	DD	0ffffffffH
	DDSymXIndex: 	FLAT:print_808_store_status
	DD	017H
	DD	0d8H
_volmd	DD	0ffffffffH
	DDSymXIndex: 	FLAT:print_807_machine_check_interrupt
	DD	017H
	DD	0e9H
_volmd	DD	0ffffffffH
	DDSymXIndex: 	FLAT:print_804_io_rupt_370
	DD	01aH
	DD	0256H
_volmd	DD	0ffffffffH
	DDSymXIndex: 	FLAT:print_803_pgm_int_loop
	DD	017H
	DD	0f3H
_volmd	DD	0ffffffffH
	DDSymXIndex: 	FLAT:print_802_per_event
	DD	017H
	DD	0238H
_volmd	DD	0ffffffffH
	DDSymXIndex: 	FLAT:print_801_program_interrupt
	DD	017H
	DD	0240H
_volmd	DD	0ffffffffH
	DDSymXIndex: 	FLAT:print_800_wait_state_psw
	DD	017H
	DD	0107H
_volmd	DD	0ffffffffH
	DDSymXIndex: 	FLAT:fmt_psw_inst_str
	DD	025H
	DD	0241H
_volmd	DD	0ffffffffH
	DDSymXIndex: 	FLAT:fmt_psw_str
	DD	01cH
	DD	0242H
_volmd	DD	0ffffffffH
	DDSymXIndex: 	FLAT:print_fpc_reg
	DD	017H
	DD	0dbH
_volmd	DD	0ffffffffH
	DDSymXIndex: 	FLAT:print_fpr_regs
	DD	017H
	DD	04bfH
_volmd	DD	0ffffffffH
	DDSymXIndex: 	FLAT:print_ar_regs
	DD	017H
	DD	01eeH
_volmd	DD	0ffffffffH
	DDSymXIndex: 	FLAT:print_cr_regs
	DD	017H
	DD	0330H
_volmd	DD	0ffffffffH
	DDSymXIndex: 	FLAT:print_gr_regs
	DD	017H
	DD	0352H
_volmd	DD	0ffffffffH
	DDSymXIndex: 	FLAT:print_TFSYS
	DD	01bH
	DD	05f4H
_volmd	DD	0ffffffffH
	DDSymXIndex: 	FLAT:is_wanted_opcode
	DD	013H
	DD	0e1H
_volmd	DD	0ffffffffH
	DDSymXIndex: 	FLAT:show_file_progress
	DD	013H
	DD	01c9H
voltbl	ENDS
xdata	SEGMENT
$unwind$difftime DD 010e01H
	DD	0420eH
$unwind$gmtime DD 010901H
	DD	04209H
$unwind$mktime DD 010901H
	DD	04209H
$unwind$time DD	010901H
	DD	04209H
$unwind$DebuggerTrace DD 011801H
	DD	0a218H
$unwind$show_usage DD 010401H
	DD	08204H
$unwind$show_file_progress DD 031b19H
	DD	0180109H
	DD	07002H
	DD	imagerel __GSHandlerCheck
	DD	0b0H
$unwind$gotmask DD 010901H
	DD	02209H
$unwind$recsize DD 010901H
	DD	02209H
$unwind$all_recs_ptr DD 010e01H
	DD	0220eH
$unwind$ptyp_str DD 010801H
	DD	02208H
$unwind$tf_store_psw DD 011301H
	DD	08213H
$unwind$is_recnum_wanted DD 010401H
	DD	02204H
$unwind$is_msgnum_wanted DD 010801H
	DD	02208H
$unwind$is_cpu_wanted DD 010801H
	DD	02208H
$unwind$is_time_wanted DD 010901H
	DD	06209H
$unwind$is_wanted_storage DD 011801H
	DD	02218H
$unwind$is_wanted_operand DD 010e01H
	DD	0a20eH
$unwind$is_wanted_tf02326 DD 010901H
	DD	06209H
$unwind$is_wanted_opcode DD 011819H
	DD	08209H
	DD	imagerel __GSHandlerCheck
	DD	030H
$unwind$is_wanted DD 010901H
	DD	04209H
$unwind$is_devnum_wanted DD 010901H
	DD	02209H
$unwind$tf_do_blank_sep DD 010901H
	DD	04209H
$unwind$tf_dev_do_blank_sep DD 010901H
	DD	04209H
$unwind$print_TFSYS DD 032319H
	DD	02c0111H
	DD	0700aH
	DD	imagerel __GSHandlerCheck
	DD	0150H
$unwind$print_gr_regs DD 031f19H
	DD	030010dH
	DD	07006H
	DD	imagerel __GSHandlerCheck
	DD	0170H
$unwind$print_cr_regs DD 031f19H
	DD	030010dH
	DD	07006H
	DD	imagerel __GSHandlerCheck
	DD	0170H
$unwind$print_ar_regs DD 031f19H
	DD	030010dH
	DD	07006H
	DD	imagerel __GSHandlerCheck
	DD	0170H
$unwind$print_fpr_regs DD 031f19H
	DD	030010dH
	DD	07006H
	DD	imagerel __GSHandlerCheck
	DD	0170H
$unwind$print_fpc_reg DD 031f19H
	DD	014010dH
	DD	07006H
	DD	imagerel __GSHandlerCheck
	DD	090H
$unwind$print_all_available_regs DD 010801H
	DD	04208H
$unwind$fmt_psw_str DD 042419H
	DD	0170112H
	DD	0300a700bH
	DD	imagerel __GSHandlerCheck
	DD	0a0H
$unwind$fmt_psw_inst_str DD 022a19H
	DD	07014f21bH
	DD	imagerel __GSHandlerCheck
	DD	078H
$unwind$print_800_wait_state_psw DD 031f19H
	DD	018010dH
	DD	07006H
	DD	imagerel __GSHandlerCheck
	DD	0b0H
$unwind$print_801_program_interrupt DD 031f19H
	DD	03e010dH
	DD	07006H
	DD	imagerel __GSHandlerCheck
	DD	01e0H
$unwind$print_802_per_event DD 031f19H
	DD	020010dH
	DD	07006H
	DD	imagerel __GSHandlerCheck
	DD	0f0H
$unwind$print_803_pgm_int_loop DD 031f19H
	DD	018010dH
	DD	07006H
	DD	imagerel __GSHandlerCheck
	DD	0b0H
$unwind$print_804_io_rupt_370 DD 062219H
	DD	0230110H
	DD	060087009H
	DD	030065007H
	DD	imagerel __GSHandlerCheck
	DD	0100H
$unwind$print_807_machine_check_interrupt DD 031f19H
	DD	016010dH
	DD	07006H
	DD	imagerel __GSHandlerCheck
	DD	0a0H
$unwind$print_808_store_status DD 031f19H
	DD	014010dH
	DD	07006H
	DD	imagerel __GSHandlerCheck
	DD	090H
$unwind$print_809_disabled_wait DD 031f19H
	DD	018010dH
	DD	07006H
	DD	imagerel __GSHandlerCheck
	DD	0b0H
$unwind$print_811_arch_mode DD 031f19H
	DD	018010dH
	DD	07006H
	DD	imagerel __GSHandlerCheck
	DD	0b0H
$unwind$print_812_vect_online_370 DD 031f19H
	DD	014010dH
	DD	07006H
	DD	imagerel __GSHandlerCheck
	DD	090H
$unwind$print_840_ext_rupt DD 031f19H
	DD	01e010dH
	DD	07006H
	DD	imagerel __GSHandlerCheck
	DD	0e0H
$unwind$print_844_blkio_rupt DD 031f19H
	DD	01c010dH
	DD	07006H
	DD	imagerel __GSHandlerCheck
	DD	0d0H
$unwind$print_845_blkio_ext_rupt DD 031f19H
	DD	018010dH
	DD	07006H
	DD	imagerel __GSHandlerCheck
	DD	0b0H
$unwind$print_846_srvsig_ext_rupt DD 031f19H
	DD	016010dH
	DD	07006H
	DD	imagerel __GSHandlerCheck
	DD	0a0H
$unwind$fmt_inst_name DD 010d01H
	DD	0420dH
$unwind$print_op_stor DD 0a3819H
	DD	0470126H
	DD	0e01df01fH
	DD	0c019d01bH
	DD	060167017H
	DD	030145015H
	DD	imagerel __GSHandlerCheck
	DD	0220H
$unwind$print_storage_lines DD 031e19H
	DD	01a010cH
	DD	07005H
	DD	imagerel __GSHandlerCheck
	DD	0c0H
$unwind$print_806_io_rupt DD 031f19H
	DD	022010dH
	DD	07006H
	DD	imagerel __GSHandlerCheck
	DD	0100H
$unwind$print_814_sigp DD 031f19H
	DD	02c010dH
	DD	07006H
	DD	imagerel __GSHandlerCheck
	DD	0150H
$unwind$fmtdata DD 0a2e19H
	DD	027011cH
	DD	0e013f015H
	DD	0c00fd011H
	DD	0600c700dH
	DD	0300a500bH
	DD	imagerel __GSHandlerCheck
	DD	0120H
$unwind$print_TF00423 DD 031f19H
	DD	01c010dH
	DD	07006H
	DD	imagerel __GSHandlerCheck
	DD	0d0H
$unwind$print_TF00424 DD 031f19H
	DD	018010dH
	DD	07006H
	DD	imagerel __GSHandlerCheck
	DD	0b0H
$unwind$print_TF00425 DD 031f19H
	DD	018010dH
	DD	07006H
	DD	imagerel __GSHandlerCheck
	DD	0b0H
$unwind$print_TF00426 DD 031f19H
	DD	018010dH
	DD	07006H
	DD	imagerel __GSHandlerCheck
	DD	0b0H
$unwind$print_TF00427 DD 031f19H
	DD	018010dH
	DD	07006H
	DD	imagerel __GSHandlerCheck
	DD	0b0H
$unwind$print_TF00428 DD 031f19H
	DD	018010dH
	DD	07006H
	DD	imagerel __GSHandlerCheck
	DD	0b0H
$unwind$print_TF00429 DD 031f19H
	DD	01a010dH
	DD	07006H
	DD	imagerel __GSHandlerCheck
	DD	0c0H
$unwind$print_TF00430 DD 042019H
	DD	01f010eH
	DD	030067007H
	DD	imagerel __GSHandlerCheck
	DD	0e0H
$unwind$print_TF00431 DD 031f19H
	DD	018010dH
	DD	07006H
	DD	imagerel __GSHandlerCheck
	DD	0b0H
$unwind$print_TF00432 DD 031f19H
	DD	01a010dH
	DD	07006H
	DD	imagerel __GSHandlerCheck
	DD	0c0H
$unwind$print_TF00433 DD 031f19H
	DD	018010dH
	DD	07006H
	DD	imagerel __GSHandlerCheck
	DD	0b0H
$unwind$print_TF00434 DD 031f19H
	DD	01c010dH
	DD	07006H
	DD	imagerel __GSHandlerCheck
	DD	0d0H
$unwind$print_TF00435 DD 031f19H
	DD	01e010dH
	DD	07006H
	DD	imagerel __GSHandlerCheck
	DD	0e0H
$unwind$print_TF00436 DD 031f19H
	DD	018010dH
	DD	07006H
	DD	imagerel __GSHandlerCheck
	DD	0b0H
$unwind$print_TF00437 DD 031f19H
	DD	01a010dH
	DD	07006H
	DD	imagerel __GSHandlerCheck
	DD	0c0H
$unwind$print_TF00438 DD 031f19H
	DD	01e010dH
	DD	07006H
	DD	imagerel __GSHandlerCheck
	DD	0e0H
$unwind$print_TF00439 DD 031f19H
	DD	01c010dH
	DD	07006H
	DD	imagerel __GSHandlerCheck
	DD	0d0H
$unwind$print_TF00440 DD 031f19H
	DD	01e010dH
	DD	07006H
	DD	imagerel __GSHandlerCheck
	DD	0e0H
$unwind$print_TF00441 DD 031f19H
	DD	01c010dH
	DD	07006H
	DD	imagerel __GSHandlerCheck
	DD	0d0H
$unwind$print_TF00442 DD 031f19H
	DD	01a010dH
	DD	07006H
	DD	imagerel __GSHandlerCheck
	DD	0c0H
$unwind$print_TF00516 DD 031f19H
	DD	018010dH
	DD	07006H
	DD	imagerel __GSHandlerCheck
	DD	0b0H
$unwind$print_TF00517 DD 031f19H
	DD	018010dH
	DD	07006H
	DD	imagerel __GSHandlerCheck
	DD	0b0H
$unwind$print_TF00518 DD 031f19H
	DD	018010dH
	DD	07006H
	DD	imagerel __GSHandlerCheck
	DD	0b0H
$unwind$print_TF00519 DD 031f19H
	DD	01a010dH
	DD	07006H
	DD	imagerel __GSHandlerCheck
	DD	0c0H
$unwind$print_TF00520 DD 031f19H
	DD	018010dH
	DD	07006H
	DD	imagerel __GSHandlerCheck
	DD	0b0H
$unwind$print_TF01300 DD 031f19H
	DD	016010dH
	DD	07006H
	DD	imagerel __GSHandlerCheck
	DD	0a0H
$unwind$print_TF01301 DD 031f19H
	DD	024010dH
	DD	07006H
	DD	imagerel __GSHandlerCheck
	DD	0110H
$unwind$print_TF01304 DD 031f19H
	DD	016010dH
	DD	07006H
	DD	imagerel __GSHandlerCheck
	DD	0a0H
$unwind$print_TF01305 DD 031f19H
	DD	016010dH
	DD	07006H
	DD	imagerel __GSHandlerCheck
	DD	0a0H
$unwind$print_TF01306 DD 031f19H
	DD	016010dH
	DD	07006H
	DD	imagerel __GSHandlerCheck
	DD	0a0H
$unwind$print_TF01307 DD 031f19H
	DD	016010dH
	DD	07006H
	DD	imagerel __GSHandlerCheck
	DD	0a0H
$unwind$print_TF01308 DD 031f19H
	DD	016010dH
	DD	07006H
	DD	imagerel __GSHandlerCheck
	DD	0a0H
$unwind$print_TF01309 DD 031f19H
	DD	016010dH
	DD	07006H
	DD	imagerel __GSHandlerCheck
	DD	0a0H
$unwind$print_TF01310 DD 031f19H
	DD	016010dH
	DD	07006H
	DD	imagerel __GSHandlerCheck
	DD	0a0H
$unwind$print_TF01311 DD 031f19H
	DD	016010dH
	DD	07006H
	DD	imagerel __GSHandlerCheck
	DD	0a0H
$unwind$print_TF01312 DD 031f19H
	DD	01a010dH
	DD	07006H
	DD	imagerel __GSHandlerCheck
	DD	0c0H
$unwind$print_TF01313 DD 0a2a19H
	DD	0470118H
	DD	0e00ff011H
	DD	0c00bd00dH
	DD	060087009H
	DD	030065007H
	DD	imagerel __GSHandlerCheck
	DD	0220H
$unwind$print_TF01315 DD 072419H
	DD	0200112H
	DD	07009e00bH
	DD	050076008H
	DD	03006H
	DD	imagerel __GSHandlerCheck
	DD	0f0H
$unwind$print_TF01316 DD 062219H
	DD	0210110H
	DD	060087009H
	DD	030065007H
	DD	imagerel __GSHandlerCheck
	DD	0f0H
$unwind$print_TF01317 DD 0a2a19H
	DD	0250118H
	DD	0e00ff011H
	DD	0c00bd00dH
	DD	060087009H
	DD	030065007H
	DD	imagerel __GSHandlerCheck
	DD	0110H
$unwind$print_TF01318 DD 031f19H
	DD	016010dH
	DD	07006H
	DD	imagerel __GSHandlerCheck
	DD	0a0H
$unwind$print_TF01320 DD 031f19H
	DD	016010dH
	DD	07006H
	DD	imagerel __GSHandlerCheck
	DD	0a0H
$unwind$print_TF01321 DD 031f19H
	DD	016010dH
	DD	07006H
	DD	imagerel __GSHandlerCheck
	DD	0a0H
$unwind$print_TF01329 DD 031f19H
	DD	016010dH
	DD	07006H
	DD	imagerel __GSHandlerCheck
	DD	0a0H
$unwind$print_TF01330 DD 031f19H
	DD	016010dH
	DD	07006H
	DD	imagerel __GSHandlerCheck
	DD	0a0H
$unwind$print_TF01331 DD 031f19H
	DD	016010dH
	DD	07006H
	DD	imagerel __GSHandlerCheck
	DD	0a0H
$unwind$print_TF01332 DD 031f19H
	DD	016010dH
	DD	07006H
	DD	imagerel __GSHandlerCheck
	DD	0a0H
$unwind$print_TF01333 DD 031f19H
	DD	016010dH
	DD	07006H
	DD	imagerel __GSHandlerCheck
	DD	0a0H
$unwind$print_TF01334 DD 031f19H
	DD	026010dH
	DD	07006H
	DD	imagerel __GSHandlerCheck
	DD	0120H
$unwind$print_TF01336 DD 031f19H
	DD	01a010dH
	DD	07006H
	DD	imagerel __GSHandlerCheck
	DD	0c0H
$unwind$process_TF00800 DD 010901H
	DD	04209H
$unwind$process_TF00801 DD 010901H
	DD	04209H
$unwind$process_TF00802 DD 010901H
	DD	04209H
$unwind$process_TF00803 DD 010901H
	DD	04209H
$unwind$process_TF00804 DD 010901H
	DD	04209H
$unwind$process_TF00806 DD 010901H
	DD	04209H
$unwind$process_TF00807 DD 010901H
	DD	04209H
$unwind$process_TF00808 DD 010901H
	DD	04209H
$unwind$process_TF00809 DD 010901H
	DD	04209H
$unwind$process_TF00811 DD 010901H
	DD	04209H
$unwind$process_TF00812 DD 010901H
	DD	04209H
$unwind$process_TF00814 DD 010901H
	DD	04209H
$unwind$process_TF00840 DD 010901H
	DD	04209H
$unwind$process_TF00844 DD 010901H
	DD	04209H
$unwind$process_TF00845 DD 010901H
	DD	04209H
$unwind$process_TF00846 DD 010901H
	DD	04209H
$unwind$process_TF02269 DD 031f19H
	DD	01c010dH
	DD	07006H
	DD	imagerel __GSHandlerCheck
	DD	0d0H
$unwind$process_TF02324 DD 031f19H
	DD	01a010dH
	DD	07006H
	DD	imagerel __GSHandlerCheck
	DD	0c0H
$unwind$process_TF02326 DD 031f19H
	DD	014010dH
	DD	07006H
	DD	imagerel __GSHandlerCheck
	DD	090H
$unwind$process_TF00423 DD 010901H
	DD	04209H
$unwind$process_TF00424 DD 010901H
	DD	04209H
$unwind$process_TF00425 DD 010901H
	DD	04209H
$unwind$process_TF00426 DD 010901H
	DD	04209H
$unwind$process_TF00427 DD 010901H
	DD	04209H
$unwind$process_TF00428 DD 010901H
	DD	04209H
$unwind$process_TF00429 DD 010901H
	DD	04209H
$unwind$process_TF00430 DD 010901H
	DD	04209H
$unwind$process_TF00431 DD 010901H
	DD	04209H
$unwind$process_TF00432 DD 010901H
	DD	04209H
$unwind$process_TF00433 DD 010901H
	DD	04209H
$unwind$process_TF00434 DD 010901H
	DD	04209H
$unwind$process_TF00435 DD 010901H
	DD	04209H
$unwind$process_TF00436 DD 010901H
	DD	04209H
$unwind$process_TF00437 DD 010901H
	DD	04209H
$unwind$process_TF00438 DD 010901H
	DD	04209H
$unwind$process_TF00439 DD 010901H
	DD	04209H
$unwind$process_TF00440 DD 010901H
	DD	04209H
$unwind$process_TF00441 DD 010901H
	DD	04209H
$unwind$process_TF00442 DD 010901H
	DD	04209H
$unwind$process_TF00516 DD 010901H
	DD	04209H
$unwind$process_TF00517 DD 010901H
	DD	04209H
$unwind$process_TF00518 DD 010901H
	DD	04209H
$unwind$process_TF00519 DD 010901H
	DD	04209H
$unwind$process_TF00520 DD 010901H
	DD	04209H
$unwind$process_TF01300 DD 010901H
	DD	04209H
$unwind$process_TF01301 DD 010901H
	DD	04209H
$unwind$process_TF01304 DD 010901H
	DD	04209H
$unwind$process_TF01305 DD 010901H
	DD	04209H
$unwind$process_TF01306 DD 010901H
	DD	04209H
$unwind$process_TF01307 DD 010901H
	DD	04209H
$unwind$process_TF01308 DD 010901H
	DD	04209H
$unwind$process_TF01309 DD 010901H
	DD	04209H
$unwind$process_TF01310 DD 010901H
	DD	04209H
$unwind$process_TF01311 DD 010901H
	DD	04209H
$unwind$process_TF01312 DD 010901H
	DD	04209H
$unwind$process_TF01313 DD 010901H
	DD	04209H
$unwind$process_TF01315 DD 010901H
	DD	04209H
$unwind$process_TF01316 DD 010901H
	DD	04209H
$unwind$process_TF01317 DD 010901H
	DD	04209H
$unwind$process_TF01318 DD 010901H
	DD	04209H
$unwind$process_TF01320 DD 010901H
	DD	04209H
$unwind$process_TF01321 DD 010901H
	DD	04209H
$unwind$process_TF01329 DD 010901H
	DD	04209H
$unwind$process_TF01330 DD 010901H
	DD	04209H
$unwind$process_TF01331 DD 010901H
	DD	04209H
$unwind$process_TF01332 DD 010901H
	DD	04209H
$unwind$process_TF01333 DD 010901H
	DD	04209H
$unwind$process_TF01334 DD 010901H
	DD	04209H
$unwind$process_TF01336 DD 010901H
	DD	04209H
$unwind$finish_reading_rec DD 042019H
	DD	013010eH
	DD	060067007H
	DD	imagerel __GSHandlerCheck
	DD	088H
$unwind$process_args DD 021001H
	DD	01b0110H
$unwind$main DD	032319H
	DD	01e0111H
	DD	0700aH
	DD	imagerel __GSHandlerCheck
	DD	0e8H
$unwind$print_args DD 021f19H
	DD	0110110H
	DD	imagerel __GSHandlerCheck
	DD	070H
$unwind$parse_option_msglvl DD 011819H
	DD	0e209H
	DD	imagerel __GSHandlerCheck
	DD	060H
$unwind$parse_option_cpu DD 010901H
	DD	0c209H
$unwind$parse_option_traceopt DD 010901H
	DD	04209H
$unwind$parse_option_count DD 010901H
	DD	08209H
$unwind$parse_option_msg DD 010901H
	DD	08209H
$unwind$parse_option_storage DD 010901H
	DD	08209H
$unwind$parse_option_date DD 021919H
	DD	07006920aH
	DD	imagerel __GSHandlerCheck
	DD	048H
$unwind$parse_option_time DD 021919H
	DD	07006920aH
	DD	imagerel __GSHandlerCheck
	DD	048H
$unwind$parse_option_opcode DD 010901H
	DD	08209H
$unwind$parse_option_unit DD 010901H
	DD	08209H
$unwind$parse_option_codepage DD 010901H
	DD	04209H
$unwind$parse_tracefile DD 020c01H
	DD	011010cH
$unwind$time_zone_offset DD 010401H
	DD	08204H
$unwind$convert_opt_str DD 011701H
	DD	04217H
$unwind$parse_opt_str DD 022919H
	DD	07013f21aH
	DD	imagerel __GSHandlerCheck
	DD	070H
$unwind$parse_option_error DD 010901H
	DD	0a209H
$unwind$convert_storage_opt_str DD 011701H
	DD	06217H
$unwind$parse_date_str DD 022319H
	DD	0130111H
	DD	imagerel __GSHandlerCheck
	DD	088H
$unwind$parse_time_str DD 022319H
	DD	0190111H
	DD	imagerel __GSHandlerCheck
	DD	0b0H
$unwind$convert_opcode_opt_str DD 011701H
	DD	08217H
xdata	ENDS
;	COMDAT xdata
xdata	SEGMENT
$unwind$sscanf DD 011801H
	DD	06218H
xdata	ENDS
;	COMDAT xdata
xdata	SEGMENT
$unwind$_vsscanf_l DD 011801H
	DD	06218H
xdata	ENDS
;	COMDAT xdata
xdata	SEGMENT
$unwind$_vsnprintf_s DD 011801H
	DD	06218H
xdata	ENDS
;	COMDAT xdata
xdata	SEGMENT
$unwind$_vsnprintf_s_l DD 011801H
	DD	0a218H
xdata	ENDS
;	COMDAT xdata
xdata	SEGMENT
$unwind$printf DD 011801H
	DD	06218H
xdata	ENDS
;	COMDAT xdata
xdata	SEGMENT
$unwind$_vfprintf_l DD 011801H
	DD	06218H
xdata	ENDS
; Function compile flags: /Odtp
; File C:\papa\MyGit\hyperion-zvector\tfprint.c
_TEXT	SEGMENT
c$ = 32
left_inst$ = 33
right_inst$ = 34
left_mask$ = 35
right_mask$ = 36
i$ = 40
n$ = 48
ishex$ = 80
str$ = 88
pU64$ = 96
pMOPT$ = 104
convert_opcode_opt_str PROC

; 3812 : {

  00000	4c 89 4c 24 20	 mov	 QWORD PTR [rsp+32], r9
  00005	4c 89 44 24 18	 mov	 QWORD PTR [rsp+24], r8
  0000a	48 89 54 24 10	 mov	 QWORD PTR [rsp+16], rdx
  0000f	88 4c 24 08	 mov	 BYTE PTR [rsp+8], cl
  00013	48 83 ec 48	 sub	 rsp, 72			; 00000048H

; 3813 :     size_t  i, n;
; 3814 :     BYTE    left_inst, right_inst;
; 3815 :     BYTE    left_mask, right_mask;
; 3816 :     char    c;
; 3817 : 
; 3818 :     *pU64 = 0;                  // (not used)

  00017	48 8b 44 24 60	 mov	 rax, QWORD PTR pU64$[rsp]
  0001c	48 c7 00 00 00
	00 00		 mov	 QWORD PTR [rax], 0

; 3819 : 
; 3820 :     if (!ishex)                 // Instructions always specified in hex

  00023	0f b6 44 24 50	 movzx	 eax, BYTE PTR ishex$[rsp]
  00028	85 c0		 test	 eax, eax
  0002a	75 07		 jne	 SHORT $LN5@convert_op

; 3821 :         return false;

  0002c	32 c0		 xor	 al, al
  0002e	e9 6f 01 00 00	 jmp	 $LN1@convert_op
$LN5@convert_op:

; 3822 : 
; 3823 :     if (1
; 3824 :         && (n = strlen( str )) != 4
; 3825 :         &&  n                  != 8
; 3826 :         &&  n                  != 12

  00033	33 c0		 xor	 eax, eax
  00035	83 f8 01	 cmp	 eax, 1
  00038	74 2e		 je	 SHORT $LN6@convert_op
  0003a	48 8b 4c 24 58	 mov	 rcx, QWORD PTR str$[rsp]
  0003f	e8 00 00 00 00	 call	 strlen
  00044	48 89 44 24 30	 mov	 QWORD PTR n$[rsp], rax
  00049	48 83 7c 24 30
	04		 cmp	 QWORD PTR n$[rsp], 4
  0004f	74 17		 je	 SHORT $LN6@convert_op
  00051	48 83 7c 24 30
	08		 cmp	 QWORD PTR n$[rsp], 8
  00057	74 0f		 je	 SHORT $LN6@convert_op
  00059	48 83 7c 24 30
	0c		 cmp	 QWORD PTR n$[rsp], 12
  0005f	74 07		 je	 SHORT $LN6@convert_op

; 3827 :     )
; 3828 :         return false;               // Not proper length

  00061	32 c0		 xor	 al, al
  00063	e9 3a 01 00 00	 jmp	 $LN1@convert_op
$LN6@convert_op:

; 3829 : 
; 3830 :     for (i=0; i < n; i += 2)

  00068	48 c7 44 24 28
	00 00 00 00	 mov	 QWORD PTR i$[rsp], 0
  00071	eb 0e		 jmp	 SHORT $LN4@convert_op
$LN2@convert_op:
  00073	48 8b 44 24 28	 mov	 rax, QWORD PTR i$[rsp]
  00078	48 83 c0 02	 add	 rax, 2
  0007c	48 89 44 24 28	 mov	 QWORD PTR i$[rsp], rax
$LN4@convert_op:
  00081	48 8b 44 24 30	 mov	 rax, QWORD PTR n$[rsp]
  00086	48 39 44 24 28	 cmp	 QWORD PTR i$[rsp], rax
  0008b	0f 83 0f 01 00
	00		 jae	 $LN3@convert_op

; 3831 :     {
; 3832 :         c = toupper( str[i] );      // Left nibble

  00091	48 8b 44 24 28	 mov	 rax, QWORD PTR i$[rsp]
  00096	48 8b 4c 24 58	 mov	 rcx, QWORD PTR str$[rsp]
  0009b	48 03 c8	 add	 rcx, rax
  0009e	48 8b c1	 mov	 rax, rcx
  000a1	0f be 00	 movsx	 eax, BYTE PTR [rax]
  000a4	8b c8		 mov	 ecx, eax
  000a6	ff 15 00 00 00
	00		 call	 QWORD PTR __imp_toupper
  000ac	88 44 24 20	 mov	 BYTE PTR c$[rsp], al

; 3833 : 
; 3834 :         if (is_hex_l( &c, 1 ))

  000b0	ba 01 00 00 00	 mov	 edx, 1
  000b5	48 8d 4c 24 20	 lea	 rcx, QWORD PTR c$[rsp]
  000ba	ff 15 00 00 00
	00		 call	 QWORD PTR __imp_is_hex_l
  000c0	0f b6 c0	 movzx	 eax, al
  000c3	85 c0		 test	 eax, eax
  000c5	74 15		 je	 SHORT $LN7@convert_op

; 3835 :         {
; 3836 :             left_inst = c2x( c );

  000c7	0f b6 4c 24 20	 movzx	 ecx, BYTE PTR c$[rsp]
  000cc	e8 00 00 00 00	 call	 c2x
  000d1	88 44 24 21	 mov	 BYTE PTR left_inst$[rsp], al

; 3837 :             left_mask = 0xF;

  000d5	c6 44 24 23 0f	 mov	 BYTE PTR left_mask$[rsp], 15

; 3838 :         }

  000da	eb 1b		 jmp	 SHORT $LN8@convert_op
$LN7@convert_op:

; 3839 :         else
; 3840 :         {
; 3841 :             if (c != 'X')

  000dc	0f be 44 24 20	 movsx	 eax, BYTE PTR c$[rsp]
  000e1	83 f8 58	 cmp	 eax, 88			; 00000058H
  000e4	74 07		 je	 SHORT $LN9@convert_op

; 3842 :                 return false;

  000e6	32 c0		 xor	 al, al
  000e8	e9 b5 00 00 00	 jmp	 $LN1@convert_op
$LN9@convert_op:

; 3843 :             left_inst = 0;

  000ed	c6 44 24 21 00	 mov	 BYTE PTR left_inst$[rsp], 0

; 3844 :             left_mask = 0;

  000f2	c6 44 24 23 00	 mov	 BYTE PTR left_mask$[rsp], 0
$LN8@convert_op:

; 3845 :         }
; 3846 : 
; 3847 :         c = toupper( str[i+1] );    // Right nibble

  000f7	48 8b 44 24 28	 mov	 rax, QWORD PTR i$[rsp]
  000fc	48 8b 4c 24 58	 mov	 rcx, QWORD PTR str$[rsp]
  00101	48 03 c8	 add	 rcx, rax
  00104	48 8b c1	 mov	 rax, rcx
  00107	0f be 40 01	 movsx	 eax, BYTE PTR [rax+1]
  0010b	8b c8		 mov	 ecx, eax
  0010d	ff 15 00 00 00
	00		 call	 QWORD PTR __imp_toupper
  00113	88 44 24 20	 mov	 BYTE PTR c$[rsp], al

; 3848 : 
; 3849 :         if (is_hex_l( &c, 1 ))

  00117	ba 01 00 00 00	 mov	 edx, 1
  0011c	48 8d 4c 24 20	 lea	 rcx, QWORD PTR c$[rsp]
  00121	ff 15 00 00 00
	00		 call	 QWORD PTR __imp_is_hex_l
  00127	0f b6 c0	 movzx	 eax, al
  0012a	85 c0		 test	 eax, eax
  0012c	74 15		 je	 SHORT $LN10@convert_op

; 3850 :         {
; 3851 :             right_inst = c2x( c );

  0012e	0f b6 4c 24 20	 movzx	 ecx, BYTE PTR c$[rsp]
  00133	e8 00 00 00 00	 call	 c2x
  00138	88 44 24 22	 mov	 BYTE PTR right_inst$[rsp], al

; 3852 :             right_mask = 0xF;

  0013c	c6 44 24 24 0f	 mov	 BYTE PTR right_mask$[rsp], 15

; 3853 :         }

  00141	eb 18		 jmp	 SHORT $LN11@convert_op
$LN10@convert_op:

; 3854 :         else
; 3855 :         {
; 3856 :             if (c != 'X')

  00143	0f be 44 24 20	 movsx	 eax, BYTE PTR c$[rsp]
  00148	83 f8 58	 cmp	 eax, 88			; 00000058H
  0014b	74 04		 je	 SHORT $LN12@convert_op

; 3857 :                 return false;

  0014d	32 c0		 xor	 al, al
  0014f	eb 51		 jmp	 SHORT $LN1@convert_op
$LN12@convert_op:

; 3858 :             right_inst = 0;

  00151	c6 44 24 22 00	 mov	 BYTE PTR right_inst$[rsp], 0

; 3859 :             right_mask = 0;

  00156	c6 44 24 24 00	 mov	 BYTE PTR right_mask$[rsp], 0
$LN11@convert_op:

; 3860 :         }
; 3861 : 
; 3862 :         pMOPT->icode[ i >> 1 ] = (left_inst << 4) | right_inst;

  0015b	0f b6 44 24 21	 movzx	 eax, BYTE PTR left_inst$[rsp]
  00160	c1 e0 04	 shl	 eax, 4
  00163	0f b6 4c 24 22	 movzx	 ecx, BYTE PTR right_inst$[rsp]
  00168	0b c1		 or	 eax, ecx
  0016a	48 8b 4c 24 28	 mov	 rcx, QWORD PTR i$[rsp]
  0016f	48 d1 e9	 shr	 rcx, 1
  00172	48 8b 54 24 68	 mov	 rdx, QWORD PTR pMOPT$[rsp]
  00177	88 44 0a 10	 mov	 BYTE PTR [rdx+rcx+16], al

; 3863 :         pMOPT->imask[ i >> 1 ] = (left_mask << 4) | right_mask;

  0017b	0f b6 44 24 23	 movzx	 eax, BYTE PTR left_mask$[rsp]
  00180	c1 e0 04	 shl	 eax, 4
  00183	0f b6 4c 24 24	 movzx	 ecx, BYTE PTR right_mask$[rsp]
  00188	0b c1		 or	 eax, ecx
  0018a	48 8b 4c 24 28	 mov	 rcx, QWORD PTR i$[rsp]
  0018f	48 d1 e9	 shr	 rcx, 1
  00192	48 8b 54 24 68	 mov	 rdx, QWORD PTR pMOPT$[rsp]
  00197	88 44 0a 16	 mov	 BYTE PTR [rdx+rcx+22], al

; 3864 :     }

  0019b	e9 d3 fe ff ff	 jmp	 $LN2@convert_op
$LN3@convert_op:

; 3865 : 
; 3866 :     return true;

  001a0	b0 01		 mov	 al, 1
$LN1@convert_op:

; 3867 : }

  001a2	48 83 c4 48	 add	 rsp, 72			; 00000048H
  001a6	c3		 ret	 0
convert_opcode_opt_str ENDP
_TEXT	ENDS
; Function compile flags: /Odtp
; File C:\papa\MyGit\hyperion-zvector\tfprint.c
_TEXT	SEGMENT
c$ = 8
c2x	PROC

; 3807 : {

  00000	88 4c 24 08	 mov	 BYTE PTR [rsp+8], cl

; 3808 :     if (c <='9') return (c - '0') +  0;

  00004	0f be 44 24 08	 movsx	 eax, BYTE PTR c$[rsp]
  00009	83 f8 39	 cmp	 eax, 57			; 00000039H
  0000c	7f 0c		 jg	 SHORT $LN2@c2x
  0000e	0f be 44 24 08	 movsx	 eax, BYTE PTR c$[rsp]
  00013	83 e8 30	 sub	 eax, 48			; 00000030H
  00016	eb 0a		 jmp	 SHORT $LN1@c2x
  00018	eb 08		 jmp	 SHORT $LN3@c2x
$LN2@c2x:

; 3809 :     else         return (c - 'A') + 10;

  0001a	0f be 44 24 08	 movsx	 eax, BYTE PTR c$[rsp]
  0001f	83 e8 37	 sub	 eax, 55			; 00000037H
$LN3@c2x:
$LN1@c2x:

; 3810 : }

  00022	c3		 ret	 0
c2x	ENDP
_TEXT	ENDS
; Function compile flags: /Odtp
; File C:\papa\MyGit\hyperion-zvector\tfprint.c
_TEXT	SEGMENT
NN$ = 32
pDot$ = 40
pCol2$ = 48
pCol1$ = 56
pHH$ = 64
pMM$ = 72
pSS$ = 80
pNN$ = 88
nn_len$ = 96
HH$ = 104
MM$ = 112
SS$ = 120
secs$ = 128
tm$ = 136
__$ArrayPad$ = 176
optstr$ = 208
tv$ = 216
parse_time_str PROC

; 3666 : {

  00000	48 89 54 24 10	 mov	 QWORD PTR [rsp+16], rdx
  00005	48 89 4c 24 08	 mov	 QWORD PTR [rsp+8], rcx
  0000a	48 81 ec c8 00
	00 00		 sub	 rsp, 200		; 000000c8H
  00011	48 8b 05 00 00
	00 00		 mov	 rax, QWORD PTR __security_cookie
  00018	48 33 c4	 xor	 rax, rsp
  0001b	48 89 84 24 b0
	00 00 00	 mov	 QWORD PTR __$ArrayPad$[rsp], rax

; 3667 :     char *pHH, *pCol1, *pMM, *pCol2, *pSS, *pDot, *pNN;
; 3668 :     U64    HH,           MM,           SS,          NN;
; 3669 :     TM     tm;
; 3670 :     time_t secs;
; 3671 :     size_t nn_len;
; 3672 : 
; 3673 :     if (!(pCol1 = strchr( pHH = optstr, ':' )))

  00023	48 8b 84 24 d0
	00 00 00	 mov	 rax, QWORD PTR optstr$[rsp]
  0002b	48 89 44 24 40	 mov	 QWORD PTR pHH$[rsp], rax
  00030	ba 3a 00 00 00	 mov	 edx, 58			; 0000003aH
  00035	48 8b 4c 24 40	 mov	 rcx, QWORD PTR pHH$[rsp]
  0003a	e8 00 00 00 00	 call	 strchr
  0003f	48 89 44 24 38	 mov	 QWORD PTR pCol1$[rsp], rax
  00044	48 83 7c 24 38
	00		 cmp	 QWORD PTR pCol1$[rsp], 0
  0004a	75 07		 jne	 SHORT $LN29@parse_time

; 3674 :         return false;

  0004c	32 c0		 xor	 al, al
  0004e	e9 da 03 00 00	 jmp	 $LN1@parse_time
$LN29@parse_time:

; 3675 : 
; 3676 :     if (!(pCol2 = strchr( pMM = pCol1+1, ':' )))

  00053	48 8b 44 24 38	 mov	 rax, QWORD PTR pCol1$[rsp]
  00058	48 ff c0	 inc	 rax
  0005b	48 89 44 24 48	 mov	 QWORD PTR pMM$[rsp], rax
  00060	ba 3a 00 00 00	 mov	 edx, 58			; 0000003aH
  00065	48 8b 4c 24 48	 mov	 rcx, QWORD PTR pMM$[rsp]
  0006a	e8 00 00 00 00	 call	 strchr
  0006f	48 89 44 24 30	 mov	 QWORD PTR pCol2$[rsp], rax
  00074	48 83 7c 24 30
	00		 cmp	 QWORD PTR pCol2$[rsp], 0
  0007a	75 07		 jne	 SHORT $LN30@parse_time

; 3677 :         return false;

  0007c	32 c0		 xor	 al, al
  0007e	e9 aa 03 00 00	 jmp	 $LN1@parse_time
$LN30@parse_time:

; 3678 : 
; 3679 :     if (!(pDot = strchr( pSS = pCol2+1, '.' )))

  00083	48 8b 44 24 30	 mov	 rax, QWORD PTR pCol2$[rsp]
  00088	48 ff c0	 inc	 rax
  0008b	48 89 44 24 50	 mov	 QWORD PTR pSS$[rsp], rax
  00090	ba 2e 00 00 00	 mov	 edx, 46			; 0000002eH
  00095	48 8b 4c 24 50	 mov	 rcx, QWORD PTR pSS$[rsp]
  0009a	e8 00 00 00 00	 call	 strchr
  0009f	48 89 44 24 28	 mov	 QWORD PTR pDot$[rsp], rax
  000a4	48 83 7c 24 28
	00		 cmp	 QWORD PTR pDot$[rsp], 0
  000aa	75 07		 jne	 SHORT $LN31@parse_time

; 3680 :         return false;

  000ac	32 c0		 xor	 al, al
  000ae	e9 7a 03 00 00	 jmp	 $LN1@parse_time
$LN31@parse_time:

; 3681 : 
; 3682 :     pNN = pDot+1;

  000b3	48 8b 44 24 28	 mov	 rax, QWORD PTR pDot$[rsp]
  000b8	48 ff c0	 inc	 rax
  000bb	48 89 44 24 58	 mov	 QWORD PTR pNN$[rsp], rax

; 3683 : 
; 3684 :     *pCol1 = *pCol2 = *pDot = 0;

  000c0	48 8b 44 24 28	 mov	 rax, QWORD PTR pDot$[rsp]
  000c5	c6 00 00	 mov	 BYTE PTR [rax], 0
  000c8	48 8b 44 24 30	 mov	 rax, QWORD PTR pCol2$[rsp]
  000cd	c6 00 00	 mov	 BYTE PTR [rax], 0
  000d0	48 8b 44 24 38	 mov	 rax, QWORD PTR pCol1$[rsp]
  000d5	c6 00 00	 mov	 BYTE PTR [rax], 0

; 3685 : 
; 3686 :     if (0
; 3687 :         || !is_numeric( pHH )
; 3688 :         || !is_numeric( pMM )
; 3689 :         || !is_numeric( pSS )
; 3690 :         || !is_numeric( pNN )

  000d8	33 c0		 xor	 eax, eax
  000da	85 c0		 test	 eax, eax
  000dc	75 48		 jne	 SHORT $LN33@parse_time
  000de	48 8b 4c 24 40	 mov	 rcx, QWORD PTR pHH$[rsp]
  000e3	ff 15 00 00 00
	00		 call	 QWORD PTR __imp_is_numeric
  000e9	0f b6 c0	 movzx	 eax, al
  000ec	85 c0		 test	 eax, eax
  000ee	74 36		 je	 SHORT $LN33@parse_time
  000f0	48 8b 4c 24 48	 mov	 rcx, QWORD PTR pMM$[rsp]
  000f5	ff 15 00 00 00
	00		 call	 QWORD PTR __imp_is_numeric
  000fb	0f b6 c0	 movzx	 eax, al
  000fe	85 c0		 test	 eax, eax
  00100	74 24		 je	 SHORT $LN33@parse_time
  00102	48 8b 4c 24 50	 mov	 rcx, QWORD PTR pSS$[rsp]
  00107	ff 15 00 00 00
	00		 call	 QWORD PTR __imp_is_numeric
  0010d	0f b6 c0	 movzx	 eax, al
  00110	85 c0		 test	 eax, eax
  00112	74 12		 je	 SHORT $LN33@parse_time
  00114	48 8b 4c 24 58	 mov	 rcx, QWORD PTR pNN$[rsp]
  00119	ff 15 00 00 00
	00		 call	 QWORD PTR __imp_is_numeric
  0011f	0f b6 c0	 movzx	 eax, al
  00122	85 c0		 test	 eax, eax
  00124	75 07		 jne	 SHORT $LN32@parse_time
$LN33@parse_time:

; 3691 :     )
; 3692 :         return false;

  00126	32 c0		 xor	 al, al
  00128	e9 00 03 00 00	 jmp	 $LN1@parse_time
$LN32@parse_time:
$LN4@parse_time:

; 3693 : 
; 3694 :     VERIFY( sscanf( pHH, "%"SCNu64, &HH ) == 1 );

  0012d	4c 8d 44 24 68	 lea	 r8, QWORD PTR HH$[rsp]
  00132	48 8d 15 00 00
	00 00		 lea	 rdx, OFFSET FLAT:$SG161993
  00139	48 8b 4c 24 40	 mov	 rcx, QWORD PTR pHH$[rsp]
  0013e	e8 00 00 00 00	 call	 sscanf
  00143	83 f8 01	 cmp	 eax, 1
  00146	74 5c		 je	 SHORT $LN34@parse_time
$LN7@parse_time:
  00148	4c 8d 0d 00 00
	00 00		 lea	 r9, OFFSET FLAT:$SG161994
  0014f	41 b8 6e 0e 00
	00		 mov	 r8d, 3694		; 00000e6eH
  00155	48 8d 15 00 00
	00 00		 lea	 rdx, OFFSET FLAT:$SG161995
  0015c	48 8d 0d 00 00
	00 00		 lea	 rcx, OFFSET FLAT:$SG161996
  00163	ff 15 00 00 00
	00		 call	 QWORD PTR __imp_logmsg
  00169	ff 15 00 00 00
	00		 call	 QWORD PTR __imp_IsDebuggerPresent
  0016f	85 c0		 test	 eax, eax
  00171	74 20		 je	 SHORT $LN35@parse_time
  00173	4c 8d 0d 00 00
	00 00		 lea	 r9, OFFSET FLAT:$SG161998
  0017a	41 b8 6e 0e 00
	00		 mov	 r8d, 3694		; 00000e6eH
  00180	48 8d 15 00 00
	00 00		 lea	 rdx, OFFSET FLAT:$SG161999
  00187	48 8d 0d 00 00
	00 00		 lea	 rcx, OFFSET FLAT:$SG162000
  0018e	e8 00 00 00 00	 call	 DebuggerTrace
$LN35@parse_time:
  00193	33 c0		 xor	 eax, eax
  00195	85 c0		 test	 eax, eax
  00197	75 af		 jne	 SHORT $LN7@parse_time
  00199	ff 15 00 00 00
	00		 call	 QWORD PTR __imp_IsDebuggerPresent
  0019f	85 c0		 test	 eax, eax
  001a1	74 01		 je	 SHORT $LN36@parse_time
  001a3	cc		 int	 3
$LN36@parse_time:
$LN34@parse_time:
  001a4	33 c0		 xor	 eax, eax
  001a6	85 c0		 test	 eax, eax
  001a8	75 83		 jne	 SHORT $LN4@parse_time
$LN10@parse_time:

; 3695 :     VERIFY( sscanf( pMM, "%"SCNu64, &MM ) == 1 );

  001aa	4c 8d 44 24 70	 lea	 r8, QWORD PTR MM$[rsp]
  001af	48 8d 15 00 00
	00 00		 lea	 rdx, OFFSET FLAT:$SG162003
  001b6	48 8b 4c 24 48	 mov	 rcx, QWORD PTR pMM$[rsp]
  001bb	e8 00 00 00 00	 call	 sscanf
  001c0	83 f8 01	 cmp	 eax, 1
  001c3	74 5c		 je	 SHORT $LN37@parse_time
$LN13@parse_time:
  001c5	4c 8d 0d 00 00
	00 00		 lea	 r9, OFFSET FLAT:$SG162004
  001cc	41 b8 6f 0e 00
	00		 mov	 r8d, 3695		; 00000e6fH
  001d2	48 8d 15 00 00
	00 00		 lea	 rdx, OFFSET FLAT:$SG162005
  001d9	48 8d 0d 00 00
	00 00		 lea	 rcx, OFFSET FLAT:$SG162006
  001e0	ff 15 00 00 00
	00		 call	 QWORD PTR __imp_logmsg
  001e6	ff 15 00 00 00
	00		 call	 QWORD PTR __imp_IsDebuggerPresent
  001ec	85 c0		 test	 eax, eax
  001ee	74 20		 je	 SHORT $LN38@parse_time
  001f0	4c 8d 0d 00 00
	00 00		 lea	 r9, OFFSET FLAT:$SG162008
  001f7	41 b8 6f 0e 00
	00		 mov	 r8d, 3695		; 00000e6fH
  001fd	48 8d 15 00 00
	00 00		 lea	 rdx, OFFSET FLAT:$SG162009
  00204	48 8d 0d 00 00
	00 00		 lea	 rcx, OFFSET FLAT:$SG162010
  0020b	e8 00 00 00 00	 call	 DebuggerTrace
$LN38@parse_time:
  00210	33 c0		 xor	 eax, eax
  00212	85 c0		 test	 eax, eax
  00214	75 af		 jne	 SHORT $LN13@parse_time
  00216	ff 15 00 00 00
	00		 call	 QWORD PTR __imp_IsDebuggerPresent
  0021c	85 c0		 test	 eax, eax
  0021e	74 01		 je	 SHORT $LN39@parse_time
  00220	cc		 int	 3
$LN39@parse_time:
$LN37@parse_time:
  00221	33 c0		 xor	 eax, eax
  00223	85 c0		 test	 eax, eax
  00225	75 83		 jne	 SHORT $LN10@parse_time
$LN16@parse_time:

; 3696 :     VERIFY( sscanf( pSS, "%"SCNu64, &SS ) == 1 );

  00227	4c 8d 44 24 78	 lea	 r8, QWORD PTR SS$[rsp]
  0022c	48 8d 15 00 00
	00 00		 lea	 rdx, OFFSET FLAT:$SG162013
  00233	48 8b 4c 24 50	 mov	 rcx, QWORD PTR pSS$[rsp]
  00238	e8 00 00 00 00	 call	 sscanf
  0023d	83 f8 01	 cmp	 eax, 1
  00240	74 5c		 je	 SHORT $LN40@parse_time
$LN19@parse_time:
  00242	4c 8d 0d 00 00
	00 00		 lea	 r9, OFFSET FLAT:$SG162014
  00249	41 b8 70 0e 00
	00		 mov	 r8d, 3696		; 00000e70H
  0024f	48 8d 15 00 00
	00 00		 lea	 rdx, OFFSET FLAT:$SG162015
  00256	48 8d 0d 00 00
	00 00		 lea	 rcx, OFFSET FLAT:$SG162016
  0025d	ff 15 00 00 00
	00		 call	 QWORD PTR __imp_logmsg
  00263	ff 15 00 00 00
	00		 call	 QWORD PTR __imp_IsDebuggerPresent
  00269	85 c0		 test	 eax, eax
  0026b	74 20		 je	 SHORT $LN41@parse_time
  0026d	4c 8d 0d 00 00
	00 00		 lea	 r9, OFFSET FLAT:$SG162018
  00274	41 b8 70 0e 00
	00		 mov	 r8d, 3696		; 00000e70H
  0027a	48 8d 15 00 00
	00 00		 lea	 rdx, OFFSET FLAT:$SG162019
  00281	48 8d 0d 00 00
	00 00		 lea	 rcx, OFFSET FLAT:$SG162020
  00288	e8 00 00 00 00	 call	 DebuggerTrace
$LN41@parse_time:
  0028d	33 c0		 xor	 eax, eax
  0028f	85 c0		 test	 eax, eax
  00291	75 af		 jne	 SHORT $LN19@parse_time
  00293	ff 15 00 00 00
	00		 call	 QWORD PTR __imp_IsDebuggerPresent
  00299	85 c0		 test	 eax, eax
  0029b	74 01		 je	 SHORT $LN42@parse_time
  0029d	cc		 int	 3
$LN42@parse_time:
$LN40@parse_time:
  0029e	33 c0		 xor	 eax, eax
  002a0	85 c0		 test	 eax, eax
  002a2	75 83		 jne	 SHORT $LN16@parse_time
$LN22@parse_time:

; 3697 :     VERIFY( sscanf( pNN, "%"SCNu64, &NN ) == 1 );

  002a4	4c 8d 44 24 20	 lea	 r8, QWORD PTR NN$[rsp]
  002a9	48 8d 15 00 00
	00 00		 lea	 rdx, OFFSET FLAT:$SG162023
  002b0	48 8b 4c 24 58	 mov	 rcx, QWORD PTR pNN$[rsp]
  002b5	e8 00 00 00 00	 call	 sscanf
  002ba	83 f8 01	 cmp	 eax, 1
  002bd	74 5c		 je	 SHORT $LN43@parse_time
$LN25@parse_time:
  002bf	4c 8d 0d 00 00
	00 00		 lea	 r9, OFFSET FLAT:$SG162024
  002c6	41 b8 71 0e 00
	00		 mov	 r8d, 3697		; 00000e71H
  002cc	48 8d 15 00 00
	00 00		 lea	 rdx, OFFSET FLAT:$SG162025
  002d3	48 8d 0d 00 00
	00 00		 lea	 rcx, OFFSET FLAT:$SG162026
  002da	ff 15 00 00 00
	00		 call	 QWORD PTR __imp_logmsg
  002e0	ff 15 00 00 00
	00		 call	 QWORD PTR __imp_IsDebuggerPresent
  002e6	85 c0		 test	 eax, eax
  002e8	74 20		 je	 SHORT $LN44@parse_time
  002ea	4c 8d 0d 00 00
	00 00		 lea	 r9, OFFSET FLAT:$SG162028
  002f1	41 b8 71 0e 00
	00		 mov	 r8d, 3697		; 00000e71H
  002f7	48 8d 15 00 00
	00 00		 lea	 rdx, OFFSET FLAT:$SG162029
  002fe	48 8d 0d 00 00
	00 00		 lea	 rcx, OFFSET FLAT:$SG162030
  00305	e8 00 00 00 00	 call	 DebuggerTrace
$LN44@parse_time:
  0030a	33 c0		 xor	 eax, eax
  0030c	85 c0		 test	 eax, eax
  0030e	75 af		 jne	 SHORT $LN25@parse_time
  00310	ff 15 00 00 00
	00		 call	 QWORD PTR __imp_IsDebuggerPresent
  00316	85 c0		 test	 eax, eax
  00318	74 01		 je	 SHORT $LN45@parse_time
  0031a	cc		 int	 3
$LN45@parse_time:
$LN43@parse_time:
  0031b	33 c0		 xor	 eax, eax
  0031d	85 c0		 test	 eax, eax
  0031f	75 83		 jne	 SHORT $LN22@parse_time

; 3698 : 
; 3699 :     if (0
; 3700 :         || HH > 23
; 3701 :         || MM > 59
; 3702 :         || SS > 59
; 3703 :         || NN > 999999

  00321	33 c0		 xor	 eax, eax
  00323	85 c0		 test	 eax, eax
  00325	75 23		 jne	 SHORT $LN47@parse_time
  00327	48 83 7c 24 68
	17		 cmp	 QWORD PTR HH$[rsp], 23
  0032d	77 1b		 ja	 SHORT $LN47@parse_time
  0032f	48 83 7c 24 70
	3b		 cmp	 QWORD PTR MM$[rsp], 59	; 0000003bH
  00335	77 13		 ja	 SHORT $LN47@parse_time
  00337	48 83 7c 24 78
	3b		 cmp	 QWORD PTR SS$[rsp], 59	; 0000003bH
  0033d	77 0b		 ja	 SHORT $LN47@parse_time
  0033f	48 81 7c 24 20
	3f 42 0f 00	 cmp	 QWORD PTR NN$[rsp], 999999 ; 000f423fH
  00348	76 07		 jbe	 SHORT $LN46@parse_time
$LN47@parse_time:

; 3704 :     )
; 3705 :         return false;

  0034a	32 c0		 xor	 al, al
  0034c	e9 dc 00 00 00	 jmp	 $LN1@parse_time
$LN46@parse_time:

; 3706 : 
; 3707 :     tm.tm_hour  =  HH;          // Hours since midnight     - [0,23]

  00351	8b 44 24 68	 mov	 eax, DWORD PTR HH$[rsp]
  00355	89 84 24 90 00
	00 00		 mov	 DWORD PTR tm$[rsp+8], eax

; 3708 :     tm.tm_min   =  MM;          // Minutes after the hour   - [0,59]

  0035c	8b 44 24 70	 mov	 eax, DWORD PTR MM$[rsp]
  00360	89 84 24 8c 00
	00 00		 mov	 DWORD PTR tm$[rsp+4], eax

; 3709 :     tm.tm_sec   =  SS;          // Seconds after the minute - [0,59]

  00367	8b 44 24 78	 mov	 eax, DWORD PTR SS$[rsp]
  0036b	89 84 24 88 00
	00 00		 mov	 DWORD PTR tm$[rsp], eax

; 3710 : 
; 3711 :     tm.tm_year  =  1970-1900;   // Years since 1900

  00372	c7 84 24 9c 00
	00 00 46 00 00
	00		 mov	 DWORD PTR tm$[rsp+20], 70 ; 00000046H

; 3712 :     tm.tm_mon   =  0;           // Months since January     - [0,11]

  0037d	c7 84 24 98 00
	00 00 00 00 00
	00		 mov	 DWORD PTR tm$[rsp+16], 0

; 3713 :     tm.tm_mday  =  1;           // Day of the month         - [1,31]

  00388	c7 84 24 94 00
	00 00 01 00 00
	00		 mov	 DWORD PTR tm$[rsp+12], 1

; 3714 : 
; 3715 :     tm.tm_wday  =  0;           // Days since Sunday        - [0,6]

  00393	c7 84 24 a0 00
	00 00 00 00 00
	00		 mov	 DWORD PTR tm$[rsp+24], 0

; 3716 :     tm.tm_yday  =  0;           // Days since January 1     - [0,365]

  0039e	c7 84 24 a4 00
	00 00 00 00 00
	00		 mov	 DWORD PTR tm$[rsp+28], 0

; 3717 :     tm.tm_isdst = -1;           // Daylight savings time flag

  003a9	c7 84 24 a8 00
	00 00 ff ff ff
	ff		 mov	 DWORD PTR tm$[rsp+32], -1

; 3718 : 
; 3719 :     if ((secs = mktime( &tm )) < 0)

  003b4	48 8d 8c 24 88
	00 00 00	 lea	 rcx, QWORD PTR tm$[rsp]
  003bc	e8 00 00 00 00	 call	 mktime
  003c1	48 89 84 24 80
	00 00 00	 mov	 QWORD PTR secs$[rsp], rax
  003c9	48 83 bc 24 80
	00 00 00 00	 cmp	 QWORD PTR secs$[rsp], 0
  003d2	7d 04		 jge	 SHORT $LN48@parse_time

; 3720 :         return false;

  003d4	32 c0		 xor	 al, al
  003d6	eb 55		 jmp	 SHORT $LN1@parse_time
$LN48@parse_time:

; 3721 : 
; 3722 :     for (nn_len = strlen( pNN ); nn_len < 6; ++nn_len)

  003d8	48 8b 4c 24 58	 mov	 rcx, QWORD PTR pNN$[rsp]
  003dd	e8 00 00 00 00	 call	 strlen
  003e2	48 89 44 24 60	 mov	 QWORD PTR nn_len$[rsp], rax
  003e7	eb 0d		 jmp	 SHORT $LN28@parse_time
$LN26@parse_time:
  003e9	48 8b 44 24 60	 mov	 rax, QWORD PTR nn_len$[rsp]
  003ee	48 ff c0	 inc	 rax
  003f1	48 89 44 24 60	 mov	 QWORD PTR nn_len$[rsp], rax
$LN28@parse_time:
  003f6	48 83 7c 24 60
	06		 cmp	 QWORD PTR nn_len$[rsp], 6
  003fc	73 0d		 jae	 SHORT $LN27@parse_time

; 3723 :         NN *= 10;

  003fe	48 6b 44 24 20
	0a		 imul	 rax, QWORD PTR NN$[rsp], 10
  00404	48 89 44 24 20	 mov	 QWORD PTR NN$[rsp], rax
  00409	eb de		 jmp	 SHORT $LN26@parse_time
$LN27@parse_time:

; 3724 : 
; 3725 :     tv->tv_sec  = secs;

  0040b	48 8b 84 24 d8
	00 00 00	 mov	 rax, QWORD PTR tv$[rsp]
  00413	8b 8c 24 80 00
	00 00		 mov	 ecx, DWORD PTR secs$[rsp]
  0041a	89 08		 mov	 DWORD PTR [rax], ecx

; 3726 :     tv->tv_usec = NN;

  0041c	48 8b 84 24 d8
	00 00 00	 mov	 rax, QWORD PTR tv$[rsp]
  00424	8b 4c 24 20	 mov	 ecx, DWORD PTR NN$[rsp]
  00428	89 48 04	 mov	 DWORD PTR [rax+4], ecx

; 3727 : 
; 3728 :     return true;

  0042b	b0 01		 mov	 al, 1
$LN1@parse_time:

; 3729 : }

  0042d	48 8b 8c 24 b0
	00 00 00	 mov	 rcx, QWORD PTR __$ArrayPad$[rsp]
  00435	48 33 cc	 xor	 rcx, rsp
  00438	e8 00 00 00 00	 call	 __security_check_cookie
  0043d	48 81 c4 c8 00
	00 00		 add	 rsp, 200		; 000000c8H
  00444	c3		 ret	 0
parse_time_str ENDP
_TEXT	ENDS
; Function compile flags: /Odtp
; File C:\papa\MyGit\hyperion-zvector\tfprint.c
_TEXT	SEGMENT
pSlash2$ = 32
pSlash1$ = 40
pYY$ = 48
pMM$ = 56
YY$ = 64
MM$ = 72
DD$ = 80
pDD$ = 88
tm$ = 96
__$ArrayPad$ = 136
optstr$ = 160
tt$ = 168
parse_date_str PROC

; 3608 : {

  00000	48 89 54 24 10	 mov	 QWORD PTR [rsp+16], rdx
  00005	48 89 4c 24 08	 mov	 QWORD PTR [rsp+8], rcx
  0000a	48 81 ec 98 00
	00 00		 sub	 rsp, 152		; 00000098H
  00011	48 8b 05 00 00
	00 00		 mov	 rax, QWORD PTR __security_cookie
  00018	48 33 c4	 xor	 rax, rsp
  0001b	48 89 84 24 88
	00 00 00	 mov	 QWORD PTR __$ArrayPad$[rsp], rax

; 3609 :     char *pYY, *pSlash1, *pMM, *pSlash2, *pDD;
; 3610 :     U64    YY,             MM,             DD;
; 3611 :     TM     tm;
; 3612 : 
; 3613 :     if (!(pSlash1 = strchr( pYY = optstr, '/' )))

  00023	48 8b 84 24 a0
	00 00 00	 mov	 rax, QWORD PTR optstr$[rsp]
  0002b	48 89 44 24 30	 mov	 QWORD PTR pYY$[rsp], rax
  00030	ba 2f 00 00 00	 mov	 edx, 47			; 0000002fH
  00035	48 8b 4c 24 30	 mov	 rcx, QWORD PTR pYY$[rsp]
  0003a	e8 00 00 00 00	 call	 strchr
  0003f	48 89 44 24 28	 mov	 QWORD PTR pSlash1$[rsp], rax
  00044	48 83 7c 24 28
	00		 cmp	 QWORD PTR pSlash1$[rsp], 0
  0004a	75 07		 jne	 SHORT $LN20@parse_date

; 3614 :         return false;

  0004c	32 c0		 xor	 al, al
  0004e	e9 c3 02 00 00	 jmp	 $LN1@parse_date
$LN20@parse_date:

; 3615 : 
; 3616 :     if (!(pSlash2 = strchr( pMM = pSlash1+1, '/' )))

  00053	48 8b 44 24 28	 mov	 rax, QWORD PTR pSlash1$[rsp]
  00058	48 ff c0	 inc	 rax
  0005b	48 89 44 24 38	 mov	 QWORD PTR pMM$[rsp], rax
  00060	ba 2f 00 00 00	 mov	 edx, 47			; 0000002fH
  00065	48 8b 4c 24 38	 mov	 rcx, QWORD PTR pMM$[rsp]
  0006a	e8 00 00 00 00	 call	 strchr
  0006f	48 89 44 24 20	 mov	 QWORD PTR pSlash2$[rsp], rax
  00074	48 83 7c 24 20
	00		 cmp	 QWORD PTR pSlash2$[rsp], 0
  0007a	75 07		 jne	 SHORT $LN21@parse_date

; 3617 :         return false;

  0007c	32 c0		 xor	 al, al
  0007e	e9 93 02 00 00	 jmp	 $LN1@parse_date
$LN21@parse_date:

; 3618 : 
; 3619 :     pDD = pSlash2+1;

  00083	48 8b 44 24 20	 mov	 rax, QWORD PTR pSlash2$[rsp]
  00088	48 ff c0	 inc	 rax
  0008b	48 89 44 24 58	 mov	 QWORD PTR pDD$[rsp], rax

; 3620 : 
; 3621 :     *pSlash1 = *pSlash2 = 0;

  00090	48 8b 44 24 20	 mov	 rax, QWORD PTR pSlash2$[rsp]
  00095	c6 00 00	 mov	 BYTE PTR [rax], 0
  00098	48 8b 44 24 28	 mov	 rax, QWORD PTR pSlash1$[rsp]
  0009d	c6 00 00	 mov	 BYTE PTR [rax], 0

; 3622 : 
; 3623 :     if (0
; 3624 :         || !is_numeric( pYY )
; 3625 :         || !is_numeric( pMM )
; 3626 :         || !is_numeric( pDD )

  000a0	33 c0		 xor	 eax, eax
  000a2	85 c0		 test	 eax, eax
  000a4	75 36		 jne	 SHORT $LN23@parse_date
  000a6	48 8b 4c 24 30	 mov	 rcx, QWORD PTR pYY$[rsp]
  000ab	ff 15 00 00 00
	00		 call	 QWORD PTR __imp_is_numeric
  000b1	0f b6 c0	 movzx	 eax, al
  000b4	85 c0		 test	 eax, eax
  000b6	74 24		 je	 SHORT $LN23@parse_date
  000b8	48 8b 4c 24 38	 mov	 rcx, QWORD PTR pMM$[rsp]
  000bd	ff 15 00 00 00
	00		 call	 QWORD PTR __imp_is_numeric
  000c3	0f b6 c0	 movzx	 eax, al
  000c6	85 c0		 test	 eax, eax
  000c8	74 12		 je	 SHORT $LN23@parse_date
  000ca	48 8b 4c 24 58	 mov	 rcx, QWORD PTR pDD$[rsp]
  000cf	ff 15 00 00 00
	00		 call	 QWORD PTR __imp_is_numeric
  000d5	0f b6 c0	 movzx	 eax, al
  000d8	85 c0		 test	 eax, eax
  000da	75 07		 jne	 SHORT $LN22@parse_date
$LN23@parse_date:

; 3627 :     )
; 3628 :         return false;

  000dc	32 c0		 xor	 al, al
  000de	e9 33 02 00 00	 jmp	 $LN1@parse_date
$LN22@parse_date:
$LN4@parse_date:

; 3629 : 
; 3630 :     VERIFY( sscanf( pYY, "%"SCNu64, &YY ) == 1 );

  000e3	4c 8d 44 24 40	 lea	 r8, QWORD PTR YY$[rsp]
  000e8	48 8d 15 00 00
	00 00		 lea	 rdx, OFFSET FLAT:$SG161908
  000ef	48 8b 4c 24 30	 mov	 rcx, QWORD PTR pYY$[rsp]
  000f4	e8 00 00 00 00	 call	 sscanf
  000f9	83 f8 01	 cmp	 eax, 1
  000fc	74 5c		 je	 SHORT $LN24@parse_date
$LN7@parse_date:
  000fe	4c 8d 0d 00 00
	00 00		 lea	 r9, OFFSET FLAT:$SG161909
  00105	41 b8 2e 0e 00
	00		 mov	 r8d, 3630		; 00000e2eH
  0010b	48 8d 15 00 00
	00 00		 lea	 rdx, OFFSET FLAT:$SG161910
  00112	48 8d 0d 00 00
	00 00		 lea	 rcx, OFFSET FLAT:$SG161911
  00119	ff 15 00 00 00
	00		 call	 QWORD PTR __imp_logmsg
  0011f	ff 15 00 00 00
	00		 call	 QWORD PTR __imp_IsDebuggerPresent
  00125	85 c0		 test	 eax, eax
  00127	74 20		 je	 SHORT $LN25@parse_date
  00129	4c 8d 0d 00 00
	00 00		 lea	 r9, OFFSET FLAT:$SG161913
  00130	41 b8 2e 0e 00
	00		 mov	 r8d, 3630		; 00000e2eH
  00136	48 8d 15 00 00
	00 00		 lea	 rdx, OFFSET FLAT:$SG161914
  0013d	48 8d 0d 00 00
	00 00		 lea	 rcx, OFFSET FLAT:$SG161915
  00144	e8 00 00 00 00	 call	 DebuggerTrace
$LN25@parse_date:
  00149	33 c0		 xor	 eax, eax
  0014b	85 c0		 test	 eax, eax
  0014d	75 af		 jne	 SHORT $LN7@parse_date
  0014f	ff 15 00 00 00
	00		 call	 QWORD PTR __imp_IsDebuggerPresent
  00155	85 c0		 test	 eax, eax
  00157	74 01		 je	 SHORT $LN26@parse_date
  00159	cc		 int	 3
$LN26@parse_date:
$LN24@parse_date:
  0015a	33 c0		 xor	 eax, eax
  0015c	85 c0		 test	 eax, eax
  0015e	75 83		 jne	 SHORT $LN4@parse_date
$LN10@parse_date:

; 3631 :     VERIFY( sscanf( pMM, "%"SCNu64, &MM ) == 1 );

  00160	4c 8d 44 24 48	 lea	 r8, QWORD PTR MM$[rsp]
  00165	48 8d 15 00 00
	00 00		 lea	 rdx, OFFSET FLAT:$SG161918
  0016c	48 8b 4c 24 38	 mov	 rcx, QWORD PTR pMM$[rsp]
  00171	e8 00 00 00 00	 call	 sscanf
  00176	83 f8 01	 cmp	 eax, 1
  00179	74 5c		 je	 SHORT $LN27@parse_date
$LN13@parse_date:
  0017b	4c 8d 0d 00 00
	00 00		 lea	 r9, OFFSET FLAT:$SG161919
  00182	41 b8 2f 0e 00
	00		 mov	 r8d, 3631		; 00000e2fH
  00188	48 8d 15 00 00
	00 00		 lea	 rdx, OFFSET FLAT:$SG161920
  0018f	48 8d 0d 00 00
	00 00		 lea	 rcx, OFFSET FLAT:$SG161921
  00196	ff 15 00 00 00
	00		 call	 QWORD PTR __imp_logmsg
  0019c	ff 15 00 00 00
	00		 call	 QWORD PTR __imp_IsDebuggerPresent
  001a2	85 c0		 test	 eax, eax
  001a4	74 20		 je	 SHORT $LN28@parse_date
  001a6	4c 8d 0d 00 00
	00 00		 lea	 r9, OFFSET FLAT:$SG161923
  001ad	41 b8 2f 0e 00
	00		 mov	 r8d, 3631		; 00000e2fH
  001b3	48 8d 15 00 00
	00 00		 lea	 rdx, OFFSET FLAT:$SG161924
  001ba	48 8d 0d 00 00
	00 00		 lea	 rcx, OFFSET FLAT:$SG161925
  001c1	e8 00 00 00 00	 call	 DebuggerTrace
$LN28@parse_date:
  001c6	33 c0		 xor	 eax, eax
  001c8	85 c0		 test	 eax, eax
  001ca	75 af		 jne	 SHORT $LN13@parse_date
  001cc	ff 15 00 00 00
	00		 call	 QWORD PTR __imp_IsDebuggerPresent
  001d2	85 c0		 test	 eax, eax
  001d4	74 01		 je	 SHORT $LN29@parse_date
  001d6	cc		 int	 3
$LN29@parse_date:
$LN27@parse_date:
  001d7	33 c0		 xor	 eax, eax
  001d9	85 c0		 test	 eax, eax
  001db	75 83		 jne	 SHORT $LN10@parse_date
$LN16@parse_date:

; 3632 :     VERIFY( sscanf( pDD, "%"SCNu64, &DD ) == 1 );

  001dd	4c 8d 44 24 50	 lea	 r8, QWORD PTR DD$[rsp]
  001e2	48 8d 15 00 00
	00 00		 lea	 rdx, OFFSET FLAT:$SG161928
  001e9	48 8b 4c 24 58	 mov	 rcx, QWORD PTR pDD$[rsp]
  001ee	e8 00 00 00 00	 call	 sscanf
  001f3	83 f8 01	 cmp	 eax, 1
  001f6	74 5c		 je	 SHORT $LN30@parse_date
$LN19@parse_date:
  001f8	4c 8d 0d 00 00
	00 00		 lea	 r9, OFFSET FLAT:$SG161929
  001ff	41 b8 30 0e 00
	00		 mov	 r8d, 3632		; 00000e30H
  00205	48 8d 15 00 00
	00 00		 lea	 rdx, OFFSET FLAT:$SG161930
  0020c	48 8d 0d 00 00
	00 00		 lea	 rcx, OFFSET FLAT:$SG161931
  00213	ff 15 00 00 00
	00		 call	 QWORD PTR __imp_logmsg
  00219	ff 15 00 00 00
	00		 call	 QWORD PTR __imp_IsDebuggerPresent
  0021f	85 c0		 test	 eax, eax
  00221	74 20		 je	 SHORT $LN31@parse_date
  00223	4c 8d 0d 00 00
	00 00		 lea	 r9, OFFSET FLAT:$SG161933
  0022a	41 b8 30 0e 00
	00		 mov	 r8d, 3632		; 00000e30H
  00230	48 8d 15 00 00
	00 00		 lea	 rdx, OFFSET FLAT:$SG161934
  00237	48 8d 0d 00 00
	00 00		 lea	 rcx, OFFSET FLAT:$SG161935
  0023e	e8 00 00 00 00	 call	 DebuggerTrace
$LN31@parse_date:
  00243	33 c0		 xor	 eax, eax
  00245	85 c0		 test	 eax, eax
  00247	75 af		 jne	 SHORT $LN19@parse_date
  00249	ff 15 00 00 00
	00		 call	 QWORD PTR __imp_IsDebuggerPresent
  0024f	85 c0		 test	 eax, eax
  00251	74 01		 je	 SHORT $LN32@parse_date
  00253	cc		 int	 3
$LN32@parse_date:
$LN30@parse_date:
  00254	33 c0		 xor	 eax, eax
  00256	85 c0		 test	 eax, eax
  00258	75 83		 jne	 SHORT $LN16@parse_date

; 3633 : 
; 3634 :     if (0
; 3635 :         || YY <     1
; 3636 :         || YY >= 2038           // (2038 epoch bug)
; 3637 :         || MM <     1
; 3638 :         || MM >    12
; 3639 :         || DD <     1
; 3640 :         || DD >    31

  0025a	33 c0		 xor	 eax, eax
  0025c	85 c0		 test	 eax, eax
  0025e	75 33		 jne	 SHORT $LN34@parse_date
  00260	48 83 7c 24 40
	01		 cmp	 QWORD PTR YY$[rsp], 1
  00266	72 2b		 jb	 SHORT $LN34@parse_date
  00268	48 81 7c 24 40
	f6 07 00 00	 cmp	 QWORD PTR YY$[rsp], 2038 ; 000007f6H
  00271	73 20		 jae	 SHORT $LN34@parse_date
  00273	48 83 7c 24 48
	01		 cmp	 QWORD PTR MM$[rsp], 1
  00279	72 18		 jb	 SHORT $LN34@parse_date
  0027b	48 83 7c 24 48
	0c		 cmp	 QWORD PTR MM$[rsp], 12
  00281	77 10		 ja	 SHORT $LN34@parse_date
  00283	48 83 7c 24 50
	01		 cmp	 QWORD PTR DD$[rsp], 1
  00289	72 08		 jb	 SHORT $LN34@parse_date
  0028b	48 83 7c 24 50
	1f		 cmp	 QWORD PTR DD$[rsp], 31
  00291	76 04		 jbe	 SHORT $LN33@parse_date
$LN34@parse_date:

; 3641 :     )
; 3642 :         return false;

  00293	32 c0		 xor	 al, al
  00295	eb 7f		 jmp	 SHORT $LN1@parse_date
$LN33@parse_date:

; 3643 : 
; 3644 :     tm.tm_year  =  YY-1900;     // Years since 1900

  00297	48 8b 44 24 40	 mov	 rax, QWORD PTR YY$[rsp]
  0029c	48 2d 6c 07 00
	00		 sub	 rax, 1900		; 0000076cH
  002a2	89 44 24 74	 mov	 DWORD PTR tm$[rsp+20], eax

; 3645 :     tm.tm_mon   =  MM-1;        // Months since January     - [0,11]

  002a6	48 8b 44 24 48	 mov	 rax, QWORD PTR MM$[rsp]
  002ab	48 ff c8	 dec	 rax
  002ae	89 44 24 70	 mov	 DWORD PTR tm$[rsp+16], eax

; 3646 :     tm.tm_mday  =  DD;          // Day of the month         - [1,31]

  002b2	8b 44 24 50	 mov	 eax, DWORD PTR DD$[rsp]
  002b6	89 44 24 6c	 mov	 DWORD PTR tm$[rsp+12], eax

; 3647 : 
; 3648 :     tm.tm_hour  =  0;           // Hours since midnight     - [0,23]

  002ba	c7 44 24 68 00
	00 00 00	 mov	 DWORD PTR tm$[rsp+8], 0

; 3649 :     tm.tm_min   =  0;           // Minutes after the hour   - [0,59]

  002c2	c7 44 24 64 00
	00 00 00	 mov	 DWORD PTR tm$[rsp+4], 0

; 3650 :     tm.tm_sec   =  0;           // Seconds after the minute - [0,59]

  002ca	c7 44 24 60 00
	00 00 00	 mov	 DWORD PTR tm$[rsp], 0

; 3651 : 
; 3652 :     tm.tm_wday  =  0;           // Days since Sunday        - [0,6]

  002d2	c7 44 24 78 00
	00 00 00	 mov	 DWORD PTR tm$[rsp+24], 0

; 3653 :     tm.tm_yday  =  0;           // Days since January 1     - [0,365]

  002da	c7 44 24 7c 00
	00 00 00	 mov	 DWORD PTR tm$[rsp+28], 0

; 3654 :     tm.tm_isdst = -1;           // Daylight savings time flag

  002e2	c7 84 24 80 00
	00 00 ff ff ff
	ff		 mov	 DWORD PTR tm$[rsp+32], -1

; 3655 : 
; 3656 :     if ((*tt = mktime( &tm )) < 0)

  002ed	48 8d 4c 24 60	 lea	 rcx, QWORD PTR tm$[rsp]
  002f2	e8 00 00 00 00	 call	 mktime
  002f7	48 8b 8c 24 a8
	00 00 00	 mov	 rcx, QWORD PTR tt$[rsp]
  002ff	48 89 01	 mov	 QWORD PTR [rcx], rax
  00302	48 8b 84 24 a8
	00 00 00	 mov	 rax, QWORD PTR tt$[rsp]
  0030a	48 83 38 00	 cmp	 QWORD PTR [rax], 0
  0030e	7d 04		 jge	 SHORT $LN35@parse_date

; 3657 :         return false;

  00310	32 c0		 xor	 al, al
  00312	eb 02		 jmp	 SHORT $LN1@parse_date
$LN35@parse_date:

; 3658 : 
; 3659 :     return true;

  00314	b0 01		 mov	 al, 1
$LN1@parse_date:

; 3660 : }

  00316	48 8b 8c 24 88
	00 00 00	 mov	 rcx, QWORD PTR __$ArrayPad$[rsp]
  0031e	48 33 cc	 xor	 rcx, rsp
  00321	e8 00 00 00 00	 call	 __security_check_cookie
  00326	48 81 c4 98 00
	00 00		 add	 rsp, 152		; 00000098H
  0032d	c3		 ret	 0
parse_date_str ENDP
_TEXT	ENDS
; Function compile flags: /Odtp
; File C:\papa\MyGit\hyperion-zvector\tfprint.c
_TEXT	SEGMENT
str0$1 = 32
tv84 = 36
ishex$ = 64
str$ = 72
pU64$ = 80
pMOPT$ = 88
convert_storage_opt_str PROC

; 3561 : {

  00000	4c 89 4c 24 20	 mov	 QWORD PTR [rsp+32], r9
  00005	4c 89 44 24 18	 mov	 QWORD PTR [rsp+24], r8
  0000a	48 89 54 24 10	 mov	 QWORD PTR [rsp+16], rdx
  0000f	88 4c 24 08	 mov	 BYTE PTR [rsp+8], cl
  00013	48 83 ec 38	 sub	 rsp, 56			; 00000038H

; 3562 :     if (!ishex)                 // storage addrs must always be in hex

  00017	0f b6 44 24 40	 movzx	 eax, BYTE PTR ishex$[rsp]
  0001c	85 c0		 test	 eax, eax
  0001e	75 07		 jne	 SHORT $LN8@convert_st

; 3563 :         return false;

  00020	32 c0		 xor	 al, al
  00022	e9 23 01 00 00	 jmp	 $LN1@convert_st
$LN8@convert_st:

; 3564 : 
; 3565 :     if (str[1] == ':')

  00027	b8 01 00 00 00	 mov	 eax, 1
  0002c	48 6b c0 01	 imul	 rax, rax, 1
  00030	48 8b 4c 24 48	 mov	 rcx, QWORD PTR str$[rsp]
  00035	0f be 04 01	 movsx	 eax, BYTE PTR [rcx+rax]
  00039	83 f8 3a	 cmp	 eax, 58			; 0000003aH
  0003c	75 77		 jne	 SHORT $LN9@convert_st

; 3566 :     {
; 3567 :         char str0 = toupper( str[0] );

  0003e	b8 01 00 00 00	 mov	 eax, 1
  00043	48 6b c0 00	 imul	 rax, rax, 0
  00047	48 8b 4c 24 48	 mov	 rcx, QWORD PTR str$[rsp]
  0004c	0f be 04 01	 movsx	 eax, BYTE PTR [rcx+rax]
  00050	8b c8		 mov	 ecx, eax
  00052	ff 15 00 00 00
	00		 call	 QWORD PTR __imp_toupper
  00058	88 44 24 20	 mov	 BYTE PTR str0$1[rsp], al

; 3568 : 
; 3569 :         if (1
; 3570 :             && str0 != 'V'      // Virtual address?
; 3571 :             && str0 != 'R'      // Real address?

  0005c	33 c0		 xor	 eax, eax
  0005e	83 f8 01	 cmp	 eax, 1
  00061	74 1b		 je	 SHORT $LN10@convert_st
  00063	0f be 44 24 20	 movsx	 eax, BYTE PTR str0$1[rsp]
  00068	83 f8 56	 cmp	 eax, 86			; 00000056H
  0006b	74 11		 je	 SHORT $LN10@convert_st
  0006d	0f be 44 24 20	 movsx	 eax, BYTE PTR str0$1[rsp]
  00072	83 f8 52	 cmp	 eax, 82			; 00000052H
  00075	74 07		 je	 SHORT $LN10@convert_st

; 3572 :         )
; 3573 :             return false;

  00077	32 c0		 xor	 al, al
  00079	e9 cc 00 00 00	 jmp	 $LN1@convert_st
$LN10@convert_st:

; 3574 : 
; 3575 :         pMOPT->isreal = (str0 == 'R');

  0007e	0f be 44 24 20	 movsx	 eax, BYTE PTR str0$1[rsp]
  00083	83 f8 52	 cmp	 eax, 82			; 00000052H
  00086	75 0a		 jne	 SHORT $LN16@convert_st
  00088	c7 44 24 24 01
	00 00 00	 mov	 DWORD PTR tv84[rsp], 1
  00090	eb 08		 jmp	 SHORT $LN17@convert_st
$LN16@convert_st:
  00092	c7 44 24 24 00
	00 00 00	 mov	 DWORD PTR tv84[rsp], 0
$LN17@convert_st:
  0009a	48 8b 44 24 58	 mov	 rax, QWORD PTR pMOPT$[rsp]
  0009f	0f b6 4c 24 24	 movzx	 ecx, BYTE PTR tv84[rsp]
  000a4	88 48 1d	 mov	 BYTE PTR [rax+29], cl

; 3576 :         str += 2; // (get past "V:" or "R:")

  000a7	48 8b 44 24 48	 mov	 rax, QWORD PTR str$[rsp]
  000ac	48 83 c0 02	 add	 rax, 2
  000b0	48 89 44 24 48	 mov	 QWORD PTR str$[rsp], rax
$LN9@convert_st:

; 3577 :     }
; 3578 : 
; 3579 :     if (!is_hex( str ))

  000b5	48 8b 4c 24 48	 mov	 rcx, QWORD PTR str$[rsp]
  000ba	ff 15 00 00 00
	00		 call	 QWORD PTR __imp_is_hex
  000c0	0f b6 c0	 movzx	 eax, al
  000c3	85 c0		 test	 eax, eax
  000c5	75 04		 jne	 SHORT $LN11@convert_st

; 3580 :         return false;

  000c7	32 c0		 xor	 al, al
  000c9	eb 7f		 jmp	 SHORT $LN1@convert_st
$LN11@convert_st:
$LN4@convert_st:

; 3581 : 
; 3582 :     VERIFY( sscanf( str, "%"SCNx64, pU64 ) == 1 );

  000cb	4c 8b 44 24 50	 mov	 r8, QWORD PTR pU64$[rsp]
  000d0	48 8d 15 00 00
	00 00		 lea	 rdx, OFFSET FLAT:$SG161853
  000d7	48 8b 4c 24 48	 mov	 rcx, QWORD PTR str$[rsp]
  000dc	e8 00 00 00 00	 call	 sscanf
  000e1	83 f8 01	 cmp	 eax, 1
  000e4	74 5c		 je	 SHORT $LN12@convert_st
$LN7@convert_st:
  000e6	4c 8d 0d 00 00
	00 00		 lea	 r9, OFFSET FLAT:$SG161854
  000ed	41 b8 fe 0d 00
	00		 mov	 r8d, 3582		; 00000dfeH
  000f3	48 8d 15 00 00
	00 00		 lea	 rdx, OFFSET FLAT:$SG161855
  000fa	48 8d 0d 00 00
	00 00		 lea	 rcx, OFFSET FLAT:$SG161856
  00101	ff 15 00 00 00
	00		 call	 QWORD PTR __imp_logmsg
  00107	ff 15 00 00 00
	00		 call	 QWORD PTR __imp_IsDebuggerPresent
  0010d	85 c0		 test	 eax, eax
  0010f	74 20		 je	 SHORT $LN13@convert_st
  00111	4c 8d 0d 00 00
	00 00		 lea	 r9, OFFSET FLAT:$SG161858
  00118	41 b8 fe 0d 00
	00		 mov	 r8d, 3582		; 00000dfeH
  0011e	48 8d 15 00 00
	00 00		 lea	 rdx, OFFSET FLAT:$SG161859
  00125	48 8d 0d 00 00
	00 00		 lea	 rcx, OFFSET FLAT:$SG161860
  0012c	e8 00 00 00 00	 call	 DebuggerTrace
$LN13@convert_st:
  00131	33 c0		 xor	 eax, eax
  00133	85 c0		 test	 eax, eax
  00135	75 af		 jne	 SHORT $LN7@convert_st
  00137	ff 15 00 00 00
	00		 call	 QWORD PTR __imp_IsDebuggerPresent
  0013d	85 c0		 test	 eax, eax
  0013f	74 01		 je	 SHORT $LN14@convert_st
  00141	cc		 int	 3
$LN14@convert_st:
$LN12@convert_st:
  00142	33 c0		 xor	 eax, eax
  00144	85 c0		 test	 eax, eax
  00146	75 83		 jne	 SHORT $LN4@convert_st

; 3583 :     return true;

  00148	b0 01		 mov	 al, 1
$LN1@convert_st:

; 3584 : }

  0014a	48 83 c4 38	 add	 rsp, 56			; 00000038H
  0014e	c3		 ret	 0
convert_storage_opt_str ENDP
_TEXT	ENDS
; Function compile flags: /Odtp
; File C:\papa\MyGit\hyperion-zvector\tfprint.c
_TEXT	SEGMENT
optname$ = 96
parse_option_error PROC

; 3417 : {

  00000	48 89 4c 24 08	 mov	 QWORD PTR [rsp+8], rcx
  00005	48 83 ec 58	 sub	 rsp, 88			; 00000058H

; 3418 :     // "Option \"%s\" value \"%s\" is invalid"
; 3419 :     FWRMSG( stderr, HHC03205, "E", optname, optarg );

  00009	b9 02 00 00 00	 mov	 ecx, 2
  0000e	ff 15 00 00 00
	00		 call	 QWORD PTR __imp___acrt_iob_func
  00014	48 8b 0d 00 00
	00 00		 mov	 rcx, QWORD PTR __imp_optarg
  0001b	48 8b 09	 mov	 rcx, QWORD PTR [rcx]
  0001e	48 89 4c 24 40	 mov	 QWORD PTR [rsp+64], rcx
  00023	48 8b 4c 24 60	 mov	 rcx, QWORD PTR optname$[rsp]
  00028	48 89 4c 24 38	 mov	 QWORD PTR [rsp+56], rcx
  0002d	48 8d 0d 00 00
	00 00		 lea	 rcx, OFFSET FLAT:$SG161758
  00034	48 89 4c 24 30	 mov	 QWORD PTR [rsp+48], rcx
  00039	48 8d 0d 00 00
	00 00		 lea	 rcx, OFFSET FLAT:$SG161759
  00040	48 89 4c 24 28	 mov	 QWORD PTR [rsp+40], rcx
  00045	48 89 44 24 20	 mov	 QWORD PTR [rsp+32], rax
  0004a	41 b9 03 00 00
	00		 mov	 r9d, 3
  00050	4c 8d 05 00 00
	00 00		 lea	 r8, OFFSET FLAT:$SG161760
  00057	ba 5b 0d 00 00	 mov	 edx, 3419		; 00000d5bH
  0005c	48 8d 0d 00 00
	00 00		 lea	 rcx, OFFSET FLAT:$SG161761
  00063	ff 15 00 00 00
	00		 call	 QWORD PTR __imp_fwritemsg

; 3420 :     arg_errs++;

  00069	8b 05 00 00 00
	00		 mov	 eax, DWORD PTR arg_errs
  0006f	ff c0		 inc	 eax
  00071	89 05 00 00 00
	00		 mov	 DWORD PTR arg_errs, eax

; 3421 : }

  00077	48 83 c4 58	 add	 rsp, 88			; 00000058H
  0007b	c3		 ret	 0
parse_option_error ENDP
_TEXT	ENDS
; Function compile flags: /Odtp
; File C:\papa\MyGit\hyperion-zvector\tfprint.c
_TEXT	SEGMENT
range$ = 32
dotlen$ = 33
n$ = 36
i$ = 40
tv138 = 44
tv140 = 48
k$ = 52
$T1 = 56
$T2 = 64
$T3 = 72
work$ = 80
__$ArrayPad$ = 112
ishex$ = 144
rangeok$ = 152
optstr$ = 160
pCNVOPT$ = 168
ppMOPT$ = 176
nMOPT$ = 184
parse_opt_str PROC

; 3285 : {

  00000	4c 89 4c 24 20	 mov	 QWORD PTR [rsp+32], r9
  00005	4c 89 44 24 18	 mov	 QWORD PTR [rsp+24], r8
  0000a	88 54 24 10	 mov	 BYTE PTR [rsp+16], dl
  0000e	88 4c 24 08	 mov	 BYTE PTR [rsp+8], cl
  00012	57		 push	 rdi
  00013	48 81 ec 80 00
	00 00		 sub	 rsp, 128		; 00000080H
  0001a	48 8b 05 00 00
	00 00		 mov	 rax, QWORD PTR __security_cookie
  00021	48 33 c4	 xor	 rax, rsp
  00024	48 89 44 24 70	 mov	 QWORD PTR __$ArrayPad$[rsp], rax

; 3286 :     int   i, n, k;
; 3287 :     char  work[32] = {0};

  00029	48 8d 44 24 50	 lea	 rax, QWORD PTR work$[rsp]
  0002e	48 8b f8	 mov	 rdi, rax
  00031	33 c0		 xor	 eax, eax
  00033	b9 20 00 00 00	 mov	 ecx, 32			; 00000020H
  00038	f3 aa		 rep stosb

; 3288 :     bool  range = false;    // "xxx-xxx"

  0003a	c6 44 24 20 00	 mov	 BYTE PTR range$[rsp], 0

; 3289 :     bool  dotlen = false;   // "xxx.xxx"

  0003f	c6 44 24 21 00	 mov	 BYTE PTR dotlen$[rsp], 0

; 3290 : 
; 3291 :     *nMOPT = 0;

  00044	48 8b 84 24 b8
	00 00 00	 mov	 rax, QWORD PTR nMOPT$[rsp]
  0004c	c7 00 00 00 00
	00		 mov	 DWORD PTR [rax], 0

; 3292 :     *ppMOPT = malloc(   sizeof( MOPT ));

  00052	b9 20 00 00 00	 mov	 ecx, 32			; 00000020H
  00057	ff 15 00 00 00
	00		 call	 QWORD PTR __imp_malloc
  0005d	48 8b 8c 24 b0
	00 00 00	 mov	 rcx, QWORD PTR ppMOPT$[rsp]
  00065	48 89 01	 mov	 QWORD PTR [rcx], rax

; 3293 :     memset( *ppMOPT, 0, sizeof( MOPT ));

  00068	48 8b 84 24 b0
	00 00 00	 mov	 rax, QWORD PTR ppMOPT$[rsp]
  00070	48 8b 38	 mov	 rdi, QWORD PTR [rax]
  00073	33 c0		 xor	 eax, eax
  00075	b9 20 00 00 00	 mov	 ecx, 32			; 00000020H
  0007a	f3 aa		 rep stosb

; 3294 : 
; 3295 :     if (!pCNVOPT)                   // (if not specified)

  0007c	48 83 bc 24 a8
	00 00 00 00	 cmp	 QWORD PTR pCNVOPT$[rsp], 0
  00085	75 0f		 jne	 SHORT $LN5@parse_opt_

; 3296 :         pCNVOPT = &convert_opt_str; // (then use default)

  00087	48 8d 05 00 00
	00 00		 lea	 rax, OFFSET FLAT:convert_opt_str
  0008e	48 89 84 24 a8
	00 00 00	 mov	 QWORD PTR pCNVOPT$[rsp], rax
$LN5@parse_opt_:

; 3297 : 
; 3298 :     for (i=0, n=0, k = strlen( optstr ); i < k; ++i)

  00096	c7 44 24 28 00
	00 00 00	 mov	 DWORD PTR i$[rsp], 0
  0009e	c7 44 24 24 00
	00 00 00	 mov	 DWORD PTR n$[rsp], 0
  000a6	48 8b 8c 24 a0
	00 00 00	 mov	 rcx, QWORD PTR optstr$[rsp]
  000ae	e8 00 00 00 00	 call	 strlen
  000b3	89 44 24 34	 mov	 DWORD PTR k$[rsp], eax
  000b7	eb 0a		 jmp	 SHORT $LN4@parse_opt_
$LN2@parse_opt_:
  000b9	8b 44 24 28	 mov	 eax, DWORD PTR i$[rsp]
  000bd	ff c0		 inc	 eax
  000bf	89 44 24 28	 mov	 DWORD PTR i$[rsp], eax
$LN4@parse_opt_:
  000c3	8b 44 24 34	 mov	 eax, DWORD PTR k$[rsp]
  000c7	39 44 24 28	 cmp	 DWORD PTR i$[rsp], eax
  000cb	0f 8d fb 03 00
	00		 jge	 $LN3@parse_opt_

; 3299 :     {
; 3300 :         if (0
; 3301 :             || optstr[i] == '-'
; 3302 :             || optstr[i] == '.'

  000d1	33 c0		 xor	 eax, eax
  000d3	85 c0		 test	 eax, eax
  000d5	75 30		 jne	 SHORT $LN8@parse_opt_
  000d7	48 63 44 24 28	 movsxd	 rax, DWORD PTR i$[rsp]
  000dc	48 8b 8c 24 a0
	00 00 00	 mov	 rcx, QWORD PTR optstr$[rsp]
  000e4	0f be 04 01	 movsx	 eax, BYTE PTR [rcx+rax]
  000e8	83 f8 2d	 cmp	 eax, 45			; 0000002dH
  000eb	74 1a		 je	 SHORT $LN8@parse_opt_
  000ed	48 63 44 24 28	 movsxd	 rax, DWORD PTR i$[rsp]
  000f2	48 8b 8c 24 a0
	00 00 00	 mov	 rcx, QWORD PTR optstr$[rsp]
  000fa	0f be 04 01	 movsx	 eax, BYTE PTR [rcx+rax]
  000fe	83 f8 2e	 cmp	 eax, 46			; 0000002eH
  00101	0f 85 11 01 00
	00		 jne	 $LN6@parse_opt_
$LN8@parse_opt_:

; 3303 :         )
; 3304 :         {
; 3305 :             if (!rangeok)           // Is range syntax allowed?

  00107	0f b6 84 24 98
	00 00 00	 movzx	 eax, BYTE PTR rangeok$[rsp]
  0010f	85 c0		 test	 eax, eax
  00111	75 07		 jne	 SHORT $LN9@parse_opt_

; 3306 :                 return false;       // No, error

  00113	32 c0		 xor	 al, al
  00115	e9 b7 05 00 00	 jmp	 $LN1@parse_opt_
$LN9@parse_opt_:

; 3307 : 
; 3308 :             work[n] = 0;            // Mark end of value string

  0011a	48 63 44 24 24	 movsxd	 rax, DWORD PTR n$[rsp]
  0011f	48 89 44 24 38	 mov	 QWORD PTR $T1[rsp], rax
  00124	48 83 7c 24 38
	20		 cmp	 QWORD PTR $T1[rsp], 32	; 00000020H
  0012a	73 02		 jae	 SHORT $LN29@parse_opt_
  0012c	eb 05		 jmp	 SHORT $LN30@parse_opt_
$LN29@parse_opt_:
  0012e	e8 00 00 00 00	 call	 __report_rangecheckfailure
$LN30@parse_opt_:
  00133	48 8b 44 24 38	 mov	 rax, QWORD PTR $T1[rsp]
  00138	c6 44 04 50 00	 mov	 BYTE PTR work$[rsp+rax], 0

; 3309 :             n = 0;                  // Next char begins new value

  0013d	c7 44 24 24 00
	00 00 00	 mov	 DWORD PTR n$[rsp], 0

; 3310 : 
; 3311 :             if (range)              // Not first time here? ("xx-xx-xx")

  00145	0f b6 44 24 20	 movzx	 eax, BYTE PTR range$[rsp]
  0014a	85 c0		 test	 eax, eax
  0014c	74 07		 je	 SHORT $LN10@parse_opt_

; 3312 :                 return false;       // Yes, error

  0014e	32 c0		 xor	 al, al
  00150	e9 7c 05 00 00	 jmp	 $LN1@parse_opt_
$LN10@parse_opt_:

; 3313 : 
; 3314 :             range = true;           // Remember range delimiter seen

  00155	c6 44 24 20 01	 mov	 BYTE PTR range$[rsp], 1

; 3315 :             dotlen = (optstr[i] == '.');

  0015a	48 63 44 24 28	 movsxd	 rax, DWORD PTR i$[rsp]
  0015f	48 8b 8c 24 a0
	00 00 00	 mov	 rcx, QWORD PTR optstr$[rsp]
  00167	0f be 04 01	 movsx	 eax, BYTE PTR [rcx+rax]
  0016b	83 f8 2e	 cmp	 eax, 46			; 0000002eH
  0016e	75 0a		 jne	 SHORT $LN31@parse_opt_
  00170	c7 44 24 2c 01
	00 00 00	 mov	 DWORD PTR tv138[rsp], 1
  00178	eb 08		 jmp	 SHORT $LN32@parse_opt_
$LN31@parse_opt_:
  0017a	c7 44 24 2c 00
	00 00 00	 mov	 DWORD PTR tv138[rsp], 0
$LN32@parse_opt_:
  00182	83 7c 24 2c 00	 cmp	 DWORD PTR tv138[rsp], 0
  00187	75 0a		 jne	 SHORT $LN33@parse_opt_
  00189	c7 44 24 30 00
	00 00 00	 mov	 DWORD PTR tv140[rsp], 0
  00191	eb 08		 jmp	 SHORT $LN34@parse_opt_
$LN33@parse_opt_:
  00193	c7 44 24 30 01
	00 00 00	 mov	 DWORD PTR tv140[rsp], 1
$LN34@parse_opt_:
  0019b	0f b6 44 24 30	 movzx	 eax, BYTE PTR tv140[rsp]
  001a0	88 44 24 21	 mov	 BYTE PTR dotlen$[rsp], al

; 3316 : 
; 3317 :             // Save opt1 start of range
; 3318 : 
; 3319 :             (*ppMOPT)[ *nMOPT ].isrange = true;

  001a4	48 8b 84 24 b8
	00 00 00	 mov	 rax, QWORD PTR nMOPT$[rsp]
  001ac	48 63 00	 movsxd	 rax, DWORD PTR [rax]
  001af	48 6b c0 20	 imul	 rax, rax, 32		; 00000020H
  001b3	48 8b 8c 24 b0
	00 00 00	 mov	 rcx, QWORD PTR ppMOPT$[rsp]
  001bb	48 8b 09	 mov	 rcx, QWORD PTR [rcx]
  001be	c6 44 01 1c 01	 mov	 BYTE PTR [rcx+rax+28], 1

; 3320 : 
; 3321 :             if (!pCNVOPT( ishex, work, &(*ppMOPT)[ *nMOPT ].opt1, *ppMOPT ))

  001c3	48 8b 84 24 b8
	00 00 00	 mov	 rax, QWORD PTR nMOPT$[rsp]
  001cb	48 63 00	 movsxd	 rax, DWORD PTR [rax]
  001ce	48 6b c0 20	 imul	 rax, rax, 32		; 00000020H
  001d2	48 8b 8c 24 b0
	00 00 00	 mov	 rcx, QWORD PTR ppMOPT$[rsp]
  001da	48 8b 09	 mov	 rcx, QWORD PTR [rcx]
  001dd	48 03 c8	 add	 rcx, rax
  001e0	48 8b c1	 mov	 rax, rcx
  001e3	48 8b 8c 24 b0
	00 00 00	 mov	 rcx, QWORD PTR ppMOPT$[rsp]
  001eb	4c 8b 09	 mov	 r9, QWORD PTR [rcx]
  001ee	4c 8b c0	 mov	 r8, rax
  001f1	48 8d 54 24 50	 lea	 rdx, QWORD PTR work$[rsp]
  001f6	0f b6 8c 24 90
	00 00 00	 movzx	 ecx, BYTE PTR ishex$[rsp]
  001fe	ff 94 24 a8 00
	00 00		 call	 QWORD PTR pCNVOPT$[rsp]
  00205	0f b6 c0	 movzx	 eax, al
  00208	85 c0		 test	 eax, eax
  0020a	75 07		 jne	 SHORT $LN11@parse_opt_

; 3322 :                 return false;

  0020c	32 c0		 xor	 al, al
  0020e	e9 be 04 00 00	 jmp	 $LN1@parse_opt_
$LN11@parse_opt_:

; 3323 :         }

  00213	e9 af 02 00 00	 jmp	 $LN7@parse_opt_
$LN6@parse_opt_:

; 3324 :         else if (optstr[i] == ',')

  00218	48 63 44 24 28	 movsxd	 rax, DWORD PTR i$[rsp]
  0021d	48 8b 8c 24 a0
	00 00 00	 mov	 rcx, QWORD PTR optstr$[rsp]
  00225	0f be 04 01	 movsx	 eax, BYTE PTR [rcx+rax]
  00229	83 f8 2c	 cmp	 eax, 44			; 0000002cH
  0022c	0f 85 63 02 00
	00		 jne	 $LN12@parse_opt_

; 3325 :         {
; 3326 :             work[n] = 0;            // Mark end of value string

  00232	48 63 44 24 24	 movsxd	 rax, DWORD PTR n$[rsp]
  00237	48 89 44 24 40	 mov	 QWORD PTR $T2[rsp], rax
  0023c	48 83 7c 24 40
	20		 cmp	 QWORD PTR $T2[rsp], 32	; 00000020H
  00242	73 02		 jae	 SHORT $LN35@parse_opt_
  00244	eb 05		 jmp	 SHORT $LN36@parse_opt_
$LN35@parse_opt_:
  00246	e8 00 00 00 00	 call	 __report_rangecheckfailure
$LN36@parse_opt_:
  0024b	48 8b 44 24 40	 mov	 rax, QWORD PTR $T2[rsp]
  00250	c6 44 04 50 00	 mov	 BYTE PTR work$[rsp+rax], 0

; 3327 :             n = 0;                  // Next char begins new value

  00255	c7 44 24 24 00
	00 00 00	 mov	 DWORD PTR n$[rsp], 0

; 3328 : 
; 3329 :             if (range)              // Was previous delimiter range?

  0025d	0f b6 44 24 20	 movzx	 eax, BYTE PTR range$[rsp]
  00262	85 c0		 test	 eax, eax
  00264	0f 84 4d 01 00
	00		 je	 $LN14@parse_opt_

; 3330 :             {
; 3331 :                 // Save opt2 end of range
; 3332 : 
; 3333 :                 (*ppMOPT)[ *nMOPT ].isrange = true;

  0026a	48 8b 84 24 b8
	00 00 00	 mov	 rax, QWORD PTR nMOPT$[rsp]
  00272	48 63 00	 movsxd	 rax, DWORD PTR [rax]
  00275	48 6b c0 20	 imul	 rax, rax, 32		; 00000020H
  00279	48 8b 8c 24 b0
	00 00 00	 mov	 rcx, QWORD PTR ppMOPT$[rsp]
  00281	48 8b 09	 mov	 rcx, QWORD PTR [rcx]
  00284	c6 44 01 1c 01	 mov	 BYTE PTR [rcx+rax+28], 1

; 3334 : 
; 3335 :                 if (!pCNVOPT( ishex, work, &(*ppMOPT)[ *nMOPT ].opt2, *ppMOPT ))

  00289	48 8b 84 24 b8
	00 00 00	 mov	 rax, QWORD PTR nMOPT$[rsp]
  00291	48 63 00	 movsxd	 rax, DWORD PTR [rax]
  00294	48 6b c0 20	 imul	 rax, rax, 32		; 00000020H
  00298	48 8b 8c 24 b0
	00 00 00	 mov	 rcx, QWORD PTR ppMOPT$[rsp]
  002a0	48 8b 09	 mov	 rcx, QWORD PTR [rcx]
  002a3	48 8d 44 01 08	 lea	 rax, QWORD PTR [rcx+rax+8]
  002a8	48 8b 8c 24 b0
	00 00 00	 mov	 rcx, QWORD PTR ppMOPT$[rsp]
  002b0	4c 8b 09	 mov	 r9, QWORD PTR [rcx]
  002b3	4c 8b c0	 mov	 r8, rax
  002b6	48 8d 54 24 50	 lea	 rdx, QWORD PTR work$[rsp]
  002bb	0f b6 8c 24 90
	00 00 00	 movzx	 ecx, BYTE PTR ishex$[rsp]
  002c3	ff 94 24 a8 00
	00 00		 call	 QWORD PTR pCNVOPT$[rsp]
  002ca	0f b6 c0	 movzx	 eax, al
  002cd	85 c0		 test	 eax, eax
  002cf	75 07		 jne	 SHORT $LN16@parse_opt_

; 3336 :                     return false;

  002d1	32 c0		 xor	 al, al
  002d3	e9 f9 03 00 00	 jmp	 $LN1@parse_opt_
$LN16@parse_opt_:

; 3337 : 
; 3338 :                 if (dotlen)

  002d8	0f b6 44 24 21	 movzx	 eax, BYTE PTR dotlen$[rsp]
  002dd	85 c0		 test	 eax, eax
  002df	0f 84 c6 00 00
	00		 je	 $LN17@parse_opt_

; 3339 :                 {
; 3340 :                     if (!(*ppMOPT)[ *nMOPT ].opt2)

  002e5	48 8b 84 24 b8
	00 00 00	 mov	 rax, QWORD PTR nMOPT$[rsp]
  002ed	48 63 00	 movsxd	 rax, DWORD PTR [rax]
  002f0	48 6b c0 20	 imul	 rax, rax, 32		; 00000020H
  002f4	48 8b 8c 24 b0
	00 00 00	 mov	 rcx, QWORD PTR ppMOPT$[rsp]
  002fc	48 8b 09	 mov	 rcx, QWORD PTR [rcx]
  002ff	48 83 7c 01 08
	00		 cmp	 QWORD PTR [rcx+rax+8], 0
  00305	75 07		 jne	 SHORT $LN18@parse_opt_

; 3341 :                         return false;

  00307	32 c0		 xor	 al, al
  00309	e9 c3 03 00 00	 jmp	 $LN1@parse_opt_
$LN18@parse_opt_:

; 3342 : 
; 3343 :                     (*ppMOPT)[ *nMOPT ].opt2 += (*ppMOPT)[ *nMOPT ].opt1;

  0030e	48 8b 84 24 b8
	00 00 00	 mov	 rax, QWORD PTR nMOPT$[rsp]
  00316	48 63 00	 movsxd	 rax, DWORD PTR [rax]
  00319	48 6b c0 20	 imul	 rax, rax, 32		; 00000020H
  0031d	48 8b 8c 24 b0
	00 00 00	 mov	 rcx, QWORD PTR ppMOPT$[rsp]
  00325	48 8b 09	 mov	 rcx, QWORD PTR [rcx]
  00328	48 8b 94 24 b8
	00 00 00	 mov	 rdx, QWORD PTR nMOPT$[rsp]
  00330	48 63 12	 movsxd	 rdx, DWORD PTR [rdx]
  00333	48 6b d2 20	 imul	 rdx, rdx, 32		; 00000020H
  00337	48 8b bc 24 b0
	00 00 00	 mov	 rdi, QWORD PTR ppMOPT$[rsp]
  0033f	48 8b 3f	 mov	 rdi, QWORD PTR [rdi]
  00342	48 8b 44 01 08	 mov	 rax, QWORD PTR [rcx+rax+8]
  00347	48 03 04 17	 add	 rax, QWORD PTR [rdi+rdx]
  0034b	48 8b 8c 24 b8
	00 00 00	 mov	 rcx, QWORD PTR nMOPT$[rsp]
  00353	48 63 09	 movsxd	 rcx, DWORD PTR [rcx]
  00356	48 6b c9 20	 imul	 rcx, rcx, 32		; 00000020H
  0035a	48 8b 94 24 b0
	00 00 00	 mov	 rdx, QWORD PTR ppMOPT$[rsp]
  00362	48 8b 12	 mov	 rdx, QWORD PTR [rdx]
  00365	48 89 44 0a 08	 mov	 QWORD PTR [rdx+rcx+8], rax

; 3344 :                     (*ppMOPT)[ *nMOPT ].opt2--;

  0036a	48 8b 84 24 b8
	00 00 00	 mov	 rax, QWORD PTR nMOPT$[rsp]
  00372	48 63 00	 movsxd	 rax, DWORD PTR [rax]
  00375	48 6b c0 20	 imul	 rax, rax, 32		; 00000020H
  00379	48 8b 8c 24 b0
	00 00 00	 mov	 rcx, QWORD PTR ppMOPT$[rsp]
  00381	48 8b 09	 mov	 rcx, QWORD PTR [rcx]
  00384	48 8b 44 01 08	 mov	 rax, QWORD PTR [rcx+rax+8]
  00389	48 ff c8	 dec	 rax
  0038c	48 8b 8c 24 b8
	00 00 00	 mov	 rcx, QWORD PTR nMOPT$[rsp]
  00394	48 63 09	 movsxd	 rcx, DWORD PTR [rcx]
  00397	48 6b c9 20	 imul	 rcx, rcx, 32		; 00000020H
  0039b	48 8b 94 24 b0
	00 00 00	 mov	 rdx, QWORD PTR ppMOPT$[rsp]
  003a3	48 8b 12	 mov	 rdx, QWORD PTR [rdx]
  003a6	48 89 44 0a 08	 mov	 QWORD PTR [rdx+rcx+8], rax
$LN17@parse_opt_:

; 3345 :                 }
; 3346 : 
; 3347 :                 range = false;      // Range complete; reset flag

  003ab	c6 44 24 20 00	 mov	 BYTE PTR range$[rsp], 0

; 3348 :                 dotlen = false;     // Range complete; reset flag

  003b0	c6 44 24 21 00	 mov	 BYTE PTR dotlen$[rsp], 0

; 3349 :             }

  003b5	eb 6f		 jmp	 SHORT $LN15@parse_opt_
$LN14@parse_opt_:

; 3350 :             else
; 3351 :             {
; 3352 :                 // Save lone opt1 value
; 3353 : 
; 3354 :                 (*ppMOPT)[ *nMOPT ].isrange = false;

  003b7	48 8b 84 24 b8
	00 00 00	 mov	 rax, QWORD PTR nMOPT$[rsp]
  003bf	48 63 00	 movsxd	 rax, DWORD PTR [rax]
  003c2	48 6b c0 20	 imul	 rax, rax, 32		; 00000020H
  003c6	48 8b 8c 24 b0
	00 00 00	 mov	 rcx, QWORD PTR ppMOPT$[rsp]
  003ce	48 8b 09	 mov	 rcx, QWORD PTR [rcx]
  003d1	c6 44 01 1c 00	 mov	 BYTE PTR [rcx+rax+28], 0

; 3355 : 
; 3356 :                 if (!pCNVOPT( ishex, work, &(*ppMOPT)[ *nMOPT ].opt1, *ppMOPT ))

  003d6	48 8b 84 24 b8
	00 00 00	 mov	 rax, QWORD PTR nMOPT$[rsp]
  003de	48 63 00	 movsxd	 rax, DWORD PTR [rax]
  003e1	48 6b c0 20	 imul	 rax, rax, 32		; 00000020H
  003e5	48 8b 8c 24 b0
	00 00 00	 mov	 rcx, QWORD PTR ppMOPT$[rsp]
  003ed	48 8b 09	 mov	 rcx, QWORD PTR [rcx]
  003f0	48 03 c8	 add	 rcx, rax
  003f3	48 8b c1	 mov	 rax, rcx
  003f6	48 8b 8c 24 b0
	00 00 00	 mov	 rcx, QWORD PTR ppMOPT$[rsp]
  003fe	4c 8b 09	 mov	 r9, QWORD PTR [rcx]
  00401	4c 8b c0	 mov	 r8, rax
  00404	48 8d 54 24 50	 lea	 rdx, QWORD PTR work$[rsp]
  00409	0f b6 8c 24 90
	00 00 00	 movzx	 ecx, BYTE PTR ishex$[rsp]
  00411	ff 94 24 a8 00
	00 00		 call	 QWORD PTR pCNVOPT$[rsp]
  00418	0f b6 c0	 movzx	 eax, al
  0041b	85 c0		 test	 eax, eax
  0041d	75 07		 jne	 SHORT $LN19@parse_opt_

; 3357 :                     return false;

  0041f	32 c0		 xor	 al, al
  00421	e9 ab 02 00 00	 jmp	 $LN1@parse_opt_
$LN19@parse_opt_:
$LN15@parse_opt_:

; 3358 :             }
; 3359 : 
; 3360 :             // Need another entry for next range or next lone value
; 3361 : 
; 3362 :             *nMOPT += 1;

  00426	48 8b 84 24 b8
	00 00 00	 mov	 rax, QWORD PTR nMOPT$[rsp]
  0042e	8b 00		 mov	 eax, DWORD PTR [rax]
  00430	ff c0		 inc	 eax
  00432	48 8b 8c 24 b8
	00 00 00	 mov	 rcx, QWORD PTR nMOPT$[rsp]
  0043a	89 01		 mov	 DWORD PTR [rcx], eax

; 3363 :             *ppMOPT = realloc( *ppMOPT, (*nMOPT + 1) * sizeof( MOPT ));

  0043c	48 8b 84 24 b8
	00 00 00	 mov	 rax, QWORD PTR nMOPT$[rsp]
  00444	8b 00		 mov	 eax, DWORD PTR [rax]
  00446	ff c0		 inc	 eax
  00448	48 98		 cdqe
  0044a	48 6b c0 20	 imul	 rax, rax, 32		; 00000020H
  0044e	48 8b d0	 mov	 rdx, rax
  00451	48 8b 84 24 b0
	00 00 00	 mov	 rax, QWORD PTR ppMOPT$[rsp]
  00459	48 8b 08	 mov	 rcx, QWORD PTR [rax]
  0045c	ff 15 00 00 00
	00		 call	 QWORD PTR __imp_realloc
  00462	48 8b 8c 24 b0
	00 00 00	 mov	 rcx, QWORD PTR ppMOPT$[rsp]
  0046a	48 89 01	 mov	 QWORD PTR [rcx], rax

; 3364 :             memset( &(*ppMOPT)[ *nMOPT ], 0,  sizeof( MOPT ));

  0046d	48 8b 84 24 b8
	00 00 00	 mov	 rax, QWORD PTR nMOPT$[rsp]
  00475	48 63 00	 movsxd	 rax, DWORD PTR [rax]
  00478	48 6b c0 20	 imul	 rax, rax, 32		; 00000020H
  0047c	48 8b 8c 24 b0
	00 00 00	 mov	 rcx, QWORD PTR ppMOPT$[rsp]
  00484	48 03 01	 add	 rax, QWORD PTR [rcx]
  00487	48 8b f8	 mov	 rdi, rax
  0048a	33 c0		 xor	 eax, eax
  0048c	b9 20 00 00 00	 mov	 ecx, 32			; 00000020H
  00491	f3 aa		 rep stosb

; 3365 :         }

  00493	eb 32		 jmp	 SHORT $LN13@parse_opt_
$LN12@parse_opt_:

; 3366 :         else // (anything else is a value character)
; 3367 :         {
; 3368 :             if (n >= (int)sizeof( work)) // Room for another char in work?

  00495	83 7c 24 24 20	 cmp	 DWORD PTR n$[rsp], 32	; 00000020H
  0049a	7c 07		 jl	 SHORT $LN20@parse_opt_

; 3369 :                 return false;            // No, error

  0049c	32 c0		 xor	 al, al
  0049e	e9 2e 02 00 00	 jmp	 $LN1@parse_opt_
$LN20@parse_opt_:

; 3370 :             work[n++] = optstr[i];       // Save value character

  004a3	48 63 44 24 28	 movsxd	 rax, DWORD PTR i$[rsp]
  004a8	48 63 4c 24 24	 movsxd	 rcx, DWORD PTR n$[rsp]
  004ad	48 8b 94 24 a0
	00 00 00	 mov	 rdx, QWORD PTR optstr$[rsp]
  004b5	0f b6 04 02	 movzx	 eax, BYTE PTR [rdx+rax]
  004b9	88 44 0c 50	 mov	 BYTE PTR work$[rsp+rcx], al
  004bd	8b 44 24 24	 mov	 eax, DWORD PTR n$[rsp]
  004c1	ff c0		 inc	 eax
  004c3	89 44 24 24	 mov	 DWORD PTR n$[rsp], eax
$LN13@parse_opt_:
$LN7@parse_opt_:

; 3371 :         }
; 3372 :     }

  004c7	e9 ed fb ff ff	 jmp	 $LN2@parse_opt_
$LN3@parse_opt_:

; 3373 : 
; 3374 :     // End of string reached. Convert final value.
; 3375 : 
; 3376 :     if (!n)                 // Can only occur if e.g. "xx," or "xx-"

  004cc	83 7c 24 24 00	 cmp	 DWORD PTR n$[rsp], 0
  004d1	75 07		 jne	 SHORT $LN21@parse_opt_

; 3377 :         return false;       // Syntax error

  004d3	32 c0		 xor	 al, al
  004d5	e9 f7 01 00 00	 jmp	 $LN1@parse_opt_
$LN21@parse_opt_:

; 3378 : 
; 3379 :     work[n] = 0;            // Mark end of value string

  004da	48 63 44 24 24	 movsxd	 rax, DWORD PTR n$[rsp]
  004df	48 89 44 24 48	 mov	 QWORD PTR $T3[rsp], rax
  004e4	48 83 7c 24 48
	20		 cmp	 QWORD PTR $T3[rsp], 32	; 00000020H
  004ea	73 02		 jae	 SHORT $LN37@parse_opt_
  004ec	eb 05		 jmp	 SHORT $LN38@parse_opt_
$LN37@parse_opt_:
  004ee	e8 00 00 00 00	 call	 __report_rangecheckfailure
$LN38@parse_opt_:
  004f3	48 8b 44 24 48	 mov	 rax, QWORD PTR $T3[rsp]
  004f8	c6 44 04 50 00	 mov	 BYTE PTR work$[rsp+rax], 0

; 3380 : 
; 3381 :     if (range)              // Was previous delimiter range?

  004fd	0f b6 44 24 20	 movzx	 eax, BYTE PTR range$[rsp]
  00502	85 c0		 test	 eax, eax
  00504	0f 84 43 01 00
	00		 je	 $LN22@parse_opt_

; 3382 :     {
; 3383 :         // Save opt2 end of range
; 3384 : 
; 3385 :         (*ppMOPT)[ *nMOPT ].isrange = true;

  0050a	48 8b 84 24 b8
	00 00 00	 mov	 rax, QWORD PTR nMOPT$[rsp]
  00512	48 63 00	 movsxd	 rax, DWORD PTR [rax]
  00515	48 6b c0 20	 imul	 rax, rax, 32		; 00000020H
  00519	48 8b 8c 24 b0
	00 00 00	 mov	 rcx, QWORD PTR ppMOPT$[rsp]
  00521	48 8b 09	 mov	 rcx, QWORD PTR [rcx]
  00524	c6 44 01 1c 01	 mov	 BYTE PTR [rcx+rax+28], 1

; 3386 : 
; 3387 :         if (!pCNVOPT( ishex, work, &(*ppMOPT)[ *nMOPT ].opt2, *ppMOPT ))

  00529	48 8b 84 24 b8
	00 00 00	 mov	 rax, QWORD PTR nMOPT$[rsp]
  00531	48 63 00	 movsxd	 rax, DWORD PTR [rax]
  00534	48 6b c0 20	 imul	 rax, rax, 32		; 00000020H
  00538	48 8b 8c 24 b0
	00 00 00	 mov	 rcx, QWORD PTR ppMOPT$[rsp]
  00540	48 8b 09	 mov	 rcx, QWORD PTR [rcx]
  00543	48 8d 44 01 08	 lea	 rax, QWORD PTR [rcx+rax+8]
  00548	48 8b 8c 24 b0
	00 00 00	 mov	 rcx, QWORD PTR ppMOPT$[rsp]
  00550	4c 8b 09	 mov	 r9, QWORD PTR [rcx]
  00553	4c 8b c0	 mov	 r8, rax
  00556	48 8d 54 24 50	 lea	 rdx, QWORD PTR work$[rsp]
  0055b	0f b6 8c 24 90
	00 00 00	 movzx	 ecx, BYTE PTR ishex$[rsp]
  00563	ff 94 24 a8 00
	00 00		 call	 QWORD PTR pCNVOPT$[rsp]
  0056a	0f b6 c0	 movzx	 eax, al
  0056d	85 c0		 test	 eax, eax
  0056f	75 07		 jne	 SHORT $LN24@parse_opt_

; 3388 :             return false;

  00571	32 c0		 xor	 al, al
  00573	e9 59 01 00 00	 jmp	 $LN1@parse_opt_
$LN24@parse_opt_:

; 3389 : 
; 3390 :         if (dotlen)

  00578	0f b6 44 24 21	 movzx	 eax, BYTE PTR dotlen$[rsp]
  0057d	85 c0		 test	 eax, eax
  0057f	0f 84 c6 00 00
	00		 je	 $LN25@parse_opt_

; 3391 :         {
; 3392 :             if (!(*ppMOPT)[ *nMOPT ].opt2)

  00585	48 8b 84 24 b8
	00 00 00	 mov	 rax, QWORD PTR nMOPT$[rsp]
  0058d	48 63 00	 movsxd	 rax, DWORD PTR [rax]
  00590	48 6b c0 20	 imul	 rax, rax, 32		; 00000020H
  00594	48 8b 8c 24 b0
	00 00 00	 mov	 rcx, QWORD PTR ppMOPT$[rsp]
  0059c	48 8b 09	 mov	 rcx, QWORD PTR [rcx]
  0059f	48 83 7c 01 08
	00		 cmp	 QWORD PTR [rcx+rax+8], 0
  005a5	75 07		 jne	 SHORT $LN26@parse_opt_

; 3393 :                 return false;

  005a7	32 c0		 xor	 al, al
  005a9	e9 23 01 00 00	 jmp	 $LN1@parse_opt_
$LN26@parse_opt_:

; 3394 : 
; 3395 :             (*ppMOPT)[ *nMOPT ].opt2 += (*ppMOPT)[ *nMOPT ].opt1;

  005ae	48 8b 84 24 b8
	00 00 00	 mov	 rax, QWORD PTR nMOPT$[rsp]
  005b6	48 63 00	 movsxd	 rax, DWORD PTR [rax]
  005b9	48 6b c0 20	 imul	 rax, rax, 32		; 00000020H
  005bd	48 8b 8c 24 b0
	00 00 00	 mov	 rcx, QWORD PTR ppMOPT$[rsp]
  005c5	48 8b 09	 mov	 rcx, QWORD PTR [rcx]
  005c8	48 8b 94 24 b8
	00 00 00	 mov	 rdx, QWORD PTR nMOPT$[rsp]
  005d0	48 63 12	 movsxd	 rdx, DWORD PTR [rdx]
  005d3	48 6b d2 20	 imul	 rdx, rdx, 32		; 00000020H
  005d7	48 8b bc 24 b0
	00 00 00	 mov	 rdi, QWORD PTR ppMOPT$[rsp]
  005df	48 8b 3f	 mov	 rdi, QWORD PTR [rdi]
  005e2	48 8b 44 01 08	 mov	 rax, QWORD PTR [rcx+rax+8]
  005e7	48 03 04 17	 add	 rax, QWORD PTR [rdi+rdx]
  005eb	48 8b 8c 24 b8
	00 00 00	 mov	 rcx, QWORD PTR nMOPT$[rsp]
  005f3	48 63 09	 movsxd	 rcx, DWORD PTR [rcx]
  005f6	48 6b c9 20	 imul	 rcx, rcx, 32		; 00000020H
  005fa	48 8b 94 24 b0
	00 00 00	 mov	 rdx, QWORD PTR ppMOPT$[rsp]
  00602	48 8b 12	 mov	 rdx, QWORD PTR [rdx]
  00605	48 89 44 0a 08	 mov	 QWORD PTR [rdx+rcx+8], rax

; 3396 :             (*ppMOPT)[ *nMOPT ].opt2--;

  0060a	48 8b 84 24 b8
	00 00 00	 mov	 rax, QWORD PTR nMOPT$[rsp]
  00612	48 63 00	 movsxd	 rax, DWORD PTR [rax]
  00615	48 6b c0 20	 imul	 rax, rax, 32		; 00000020H
  00619	48 8b 8c 24 b0
	00 00 00	 mov	 rcx, QWORD PTR ppMOPT$[rsp]
  00621	48 8b 09	 mov	 rcx, QWORD PTR [rcx]
  00624	48 8b 44 01 08	 mov	 rax, QWORD PTR [rcx+rax+8]
  00629	48 ff c8	 dec	 rax
  0062c	48 8b 8c 24 b8
	00 00 00	 mov	 rcx, QWORD PTR nMOPT$[rsp]
  00634	48 63 09	 movsxd	 rcx, DWORD PTR [rcx]
  00637	48 6b c9 20	 imul	 rcx, rcx, 32		; 00000020H
  0063b	48 8b 94 24 b0
	00 00 00	 mov	 rdx, QWORD PTR ppMOPT$[rsp]
  00643	48 8b 12	 mov	 rdx, QWORD PTR [rdx]
  00646	48 89 44 0a 08	 mov	 QWORD PTR [rdx+rcx+8], rax
$LN25@parse_opt_:

; 3397 :         }
; 3398 :     }

  0064b	eb 6c		 jmp	 SHORT $LN23@parse_opt_
$LN22@parse_opt_:

; 3399 :     else
; 3400 :     {
; 3401 :         // Save opt1 only value
; 3402 : 
; 3403 :         (*ppMOPT)[ *nMOPT ].isrange = false;

  0064d	48 8b 84 24 b8
	00 00 00	 mov	 rax, QWORD PTR nMOPT$[rsp]
  00655	48 63 00	 movsxd	 rax, DWORD PTR [rax]
  00658	48 6b c0 20	 imul	 rax, rax, 32		; 00000020H
  0065c	48 8b 8c 24 b0
	00 00 00	 mov	 rcx, QWORD PTR ppMOPT$[rsp]
  00664	48 8b 09	 mov	 rcx, QWORD PTR [rcx]
  00667	c6 44 01 1c 00	 mov	 BYTE PTR [rcx+rax+28], 0

; 3404 : 
; 3405 :         if (!pCNVOPT( ishex, work, &(*ppMOPT)[ *nMOPT ].opt1, *ppMOPT ))

  0066c	48 8b 84 24 b8
	00 00 00	 mov	 rax, QWORD PTR nMOPT$[rsp]
  00674	48 63 00	 movsxd	 rax, DWORD PTR [rax]
  00677	48 6b c0 20	 imul	 rax, rax, 32		; 00000020H
  0067b	48 8b 8c 24 b0
	00 00 00	 mov	 rcx, QWORD PTR ppMOPT$[rsp]
  00683	48 8b 09	 mov	 rcx, QWORD PTR [rcx]
  00686	48 03 c8	 add	 rcx, rax
  00689	48 8b c1	 mov	 rax, rcx
  0068c	48 8b 8c 24 b0
	00 00 00	 mov	 rcx, QWORD PTR ppMOPT$[rsp]
  00694	4c 8b 09	 mov	 r9, QWORD PTR [rcx]
  00697	4c 8b c0	 mov	 r8, rax
  0069a	48 8d 54 24 50	 lea	 rdx, QWORD PTR work$[rsp]
  0069f	0f b6 8c 24 90
	00 00 00	 movzx	 ecx, BYTE PTR ishex$[rsp]
  006a7	ff 94 24 a8 00
	00 00		 call	 QWORD PTR pCNVOPT$[rsp]
  006ae	0f b6 c0	 movzx	 eax, al
  006b1	85 c0		 test	 eax, eax
  006b3	75 04		 jne	 SHORT $LN27@parse_opt_

; 3406 :             return false;

  006b5	32 c0		 xor	 al, al
  006b7	eb 18		 jmp	 SHORT $LN1@parse_opt_
$LN27@parse_opt_:
$LN23@parse_opt_:

; 3407 :     }
; 3408 : 
; 3409 :     *nMOPT += 1;            // Account for last array entry

  006b9	48 8b 84 24 b8
	00 00 00	 mov	 rax, QWORD PTR nMOPT$[rsp]
  006c1	8b 00		 mov	 eax, DWORD PTR [rax]
  006c3	ff c0		 inc	 eax
  006c5	48 8b 8c 24 b8
	00 00 00	 mov	 rcx, QWORD PTR nMOPT$[rsp]
  006cd	89 01		 mov	 DWORD PTR [rcx], eax

; 3410 :     return true;            // Successful parse

  006cf	b0 01		 mov	 al, 1
$LN1@parse_opt_:
$LN28@parse_opt_:

; 3411 : }

  006d1	48 8b 4c 24 70	 mov	 rcx, QWORD PTR __$ArrayPad$[rsp]
  006d6	48 33 cc	 xor	 rcx, rsp
  006d9	e8 00 00 00 00	 call	 __security_check_cookie
  006de	48 81 c4 80 00
	00 00		 add	 rsp, 128		; 00000080H
  006e5	5f		 pop	 rdi
  006e6	c3		 ret	 0
parse_opt_str ENDP
_TEXT	ENDS
; Function compile flags: /Odtp
; File C:\papa\MyGit\hyperion-zvector\tfprint.c
_TEXT	SEGMENT
ishex$ = 48
str$ = 56
pU64$ = 64
pMOPT$ = 72
convert_opt_str PROC

; 3254 : {

  00000	4c 89 4c 24 20	 mov	 QWORD PTR [rsp+32], r9
  00005	4c 89 44 24 18	 mov	 QWORD PTR [rsp+24], r8
  0000a	48 89 54 24 10	 mov	 QWORD PTR [rsp+16], rdx
  0000f	88 4c 24 08	 mov	 BYTE PTR [rsp+8], cl
  00013	48 83 ec 28	 sub	 rsp, 40			; 00000028H
$LN4@convert_op:

; 3255 :     UNREFERENCED( pMOPT );

  00017	33 c0		 xor	 eax, eax
  00019	85 c0		 test	 eax, eax
  0001b	75 fa		 jne	 SHORT $LN4@convert_op

; 3256 : 
; 3257 :     if (ishex)

  0001d	0f b6 44 24 30	 movzx	 eax, BYTE PTR ishex$[rsp]
  00022	85 c0		 test	 eax, eax
  00024	0f 84 9b 00 00
	00		 je	 $LN17@convert_op

; 3258 :     {
; 3259 :         if (!is_hex( str ))

  0002a	48 8b 4c 24 38	 mov	 rcx, QWORD PTR str$[rsp]
  0002f	ff 15 00 00 00
	00		 call	 QWORD PTR __imp_is_hex
  00035	0f b6 c0	 movzx	 eax, al
  00038	85 c0		 test	 eax, eax
  0003a	75 07		 jne	 SHORT $LN19@convert_op

; 3260 :             return false;

  0003c	32 c0		 xor	 al, al
  0003e	e9 17 01 00 00	 jmp	 $LN1@convert_op
$LN19@convert_op:
$LN7@convert_op:

; 3261 :         VERIFY( sscanf( str, "%"SCNx64, pU64 ) == 1 );

  00043	4c 8b 44 24 40	 mov	 r8, QWORD PTR pU64$[rsp]
  00048	48 8d 15 00 00
	00 00		 lea	 rdx, OFFSET FLAT:$SG161680
  0004f	48 8b 4c 24 38	 mov	 rcx, QWORD PTR str$[rsp]
  00054	e8 00 00 00 00	 call	 sscanf
  00059	83 f8 01	 cmp	 eax, 1
  0005c	74 5c		 je	 SHORT $LN20@convert_op
$LN10@convert_op:
  0005e	4c 8d 0d 00 00
	00 00		 lea	 r9, OFFSET FLAT:$SG161681
  00065	41 b8 bd 0c 00
	00		 mov	 r8d, 3261		; 00000cbdH
  0006b	48 8d 15 00 00
	00 00		 lea	 rdx, OFFSET FLAT:$SG161682
  00072	48 8d 0d 00 00
	00 00		 lea	 rcx, OFFSET FLAT:$SG161683
  00079	ff 15 00 00 00
	00		 call	 QWORD PTR __imp_logmsg
  0007f	ff 15 00 00 00
	00		 call	 QWORD PTR __imp_IsDebuggerPresent
  00085	85 c0		 test	 eax, eax
  00087	74 20		 je	 SHORT $LN21@convert_op
  00089	4c 8d 0d 00 00
	00 00		 lea	 r9, OFFSET FLAT:$SG161685
  00090	41 b8 bd 0c 00
	00		 mov	 r8d, 3261		; 00000cbdH
  00096	48 8d 15 00 00
	00 00		 lea	 rdx, OFFSET FLAT:$SG161686
  0009d	48 8d 0d 00 00
	00 00		 lea	 rcx, OFFSET FLAT:$SG161687
  000a4	e8 00 00 00 00	 call	 DebuggerTrace
$LN21@convert_op:
  000a9	33 c0		 xor	 eax, eax
  000ab	85 c0		 test	 eax, eax
  000ad	75 af		 jne	 SHORT $LN10@convert_op
  000af	ff 15 00 00 00
	00		 call	 QWORD PTR __imp_IsDebuggerPresent
  000b5	85 c0		 test	 eax, eax
  000b7	74 01		 je	 SHORT $LN22@convert_op
  000b9	cc		 int	 3
$LN22@convert_op:
$LN20@convert_op:
  000ba	33 c0		 xor	 eax, eax
  000bc	85 c0		 test	 eax, eax
  000be	75 83		 jne	 SHORT $LN7@convert_op

; 3262 :     }

  000c0	e9 93 00 00 00	 jmp	 $LN18@convert_op
$LN17@convert_op:

; 3263 :     else
; 3264 :     {
; 3265 :         if (!is_numeric( str ))

  000c5	48 8b 4c 24 38	 mov	 rcx, QWORD PTR str$[rsp]
  000ca	ff 15 00 00 00
	00		 call	 QWORD PTR __imp_is_numeric
  000d0	0f b6 c0	 movzx	 eax, al
  000d3	85 c0		 test	 eax, eax
  000d5	75 04		 jne	 SHORT $LN23@convert_op

; 3266 :             return false;

  000d7	32 c0		 xor	 al, al
  000d9	eb 7f		 jmp	 SHORT $LN1@convert_op
$LN23@convert_op:
$LN13@convert_op:

; 3267 :         VERIFY( sscanf( str, "%"SCNu64, pU64 ) == 1 );

  000db	4c 8b 44 24 40	 mov	 r8, QWORD PTR pU64$[rsp]
  000e0	48 8d 15 00 00
	00 00		 lea	 rdx, OFFSET FLAT:$SG161691
  000e7	48 8b 4c 24 38	 mov	 rcx, QWORD PTR str$[rsp]
  000ec	e8 00 00 00 00	 call	 sscanf
  000f1	83 f8 01	 cmp	 eax, 1
  000f4	74 5c		 je	 SHORT $LN24@convert_op
$LN16@convert_op:
  000f6	4c 8d 0d 00 00
	00 00		 lea	 r9, OFFSET FLAT:$SG161692
  000fd	41 b8 c3 0c 00
	00		 mov	 r8d, 3267		; 00000cc3H
  00103	48 8d 15 00 00
	00 00		 lea	 rdx, OFFSET FLAT:$SG161693
  0010a	48 8d 0d 00 00
	00 00		 lea	 rcx, OFFSET FLAT:$SG161694
  00111	ff 15 00 00 00
	00		 call	 QWORD PTR __imp_logmsg
  00117	ff 15 00 00 00
	00		 call	 QWORD PTR __imp_IsDebuggerPresent
  0011d	85 c0		 test	 eax, eax
  0011f	74 20		 je	 SHORT $LN25@convert_op
  00121	4c 8d 0d 00 00
	00 00		 lea	 r9, OFFSET FLAT:$SG161696
  00128	41 b8 c3 0c 00
	00		 mov	 r8d, 3267		; 00000cc3H
  0012e	48 8d 15 00 00
	00 00		 lea	 rdx, OFFSET FLAT:$SG161697
  00135	48 8d 0d 00 00
	00 00		 lea	 rcx, OFFSET FLAT:$SG161698
  0013c	e8 00 00 00 00	 call	 DebuggerTrace
$LN25@convert_op:
  00141	33 c0		 xor	 eax, eax
  00143	85 c0		 test	 eax, eax
  00145	75 af		 jne	 SHORT $LN16@convert_op
  00147	ff 15 00 00 00
	00		 call	 QWORD PTR __imp_IsDebuggerPresent
  0014d	85 c0		 test	 eax, eax
  0014f	74 01		 je	 SHORT $LN26@convert_op
  00151	cc		 int	 3
$LN26@convert_op:
$LN24@convert_op:
  00152	33 c0		 xor	 eax, eax
  00154	85 c0		 test	 eax, eax
  00156	75 83		 jne	 SHORT $LN13@convert_op
$LN18@convert_op:

; 3268 :     }
; 3269 :     return true;

  00158	b0 01		 mov	 al, 1
$LN1@convert_op:

; 3270 : }

  0015a	48 83 c4 28	 add	 rsp, 40			; 00000028H
  0015e	c3		 ret	 0
convert_opt_str ENDP
_TEXT	ENDS
; Function compile flags: /Odtp
; File C:\papa\MyGit\hyperion-zvector\tfprint.c
_TEXT	SEGMENT
pTM$ = 32
rawtime$ = 40
gmttime$ = 48
time_zone_offset PROC

; 3093 : {

  00000	48 83 ec 48	 sub	 rsp, 72			; 00000048H

; 3094 :     time_t  gmttime;
; 3095 :     time_t  rawtime;
; 3096 :     TM*     pTM;
; 3097 : 
; 3098 :     rawtime = time( NULL );

  00004	33 c9		 xor	 ecx, ecx
  00006	e8 00 00 00 00	 call	 time
  0000b	48 89 44 24 28	 mov	 QWORD PTR rawtime$[rsp], rax

; 3099 :     pTM = gmtime( &rawtime );

  00010	48 8d 4c 24 28	 lea	 rcx, QWORD PTR rawtime$[rsp]
  00015	e8 00 00 00 00	 call	 gmtime
  0001a	48 89 44 24 20	 mov	 QWORD PTR pTM$[rsp], rax

; 3100 :     pTM->tm_isdst = -1;

  0001f	48 8b 44 24 20	 mov	 rax, QWORD PTR pTM$[rsp]
  00024	c7 40 20 ff ff
	ff ff		 mov	 DWORD PTR [rax+32], -1

; 3101 :     gmttime = mktime( pTM );

  0002b	48 8b 4c 24 20	 mov	 rcx, QWORD PTR pTM$[rsp]
  00030	e8 00 00 00 00	 call	 mktime
  00035	48 89 44 24 30	 mov	 QWORD PTR gmttime$[rsp], rax

; 3102 : 
; 3103 :     return (time_t) difftime( rawtime, gmttime );

  0003a	48 8b 54 24 30	 mov	 rdx, QWORD PTR gmttime$[rsp]
  0003f	48 8b 4c 24 28	 mov	 rcx, QWORD PTR rawtime$[rsp]
  00044	e8 00 00 00 00	 call	 difftime
  00049	f2 48 0f 2c c0	 cvttsd2si rax, xmm0

; 3104 : }

  0004e	48 83 c4 48	 add	 rsp, 72			; 00000048H
  00052	c3		 ret	 0
time_zone_offset ENDP
_TEXT	ENDS
; Function compile flags: /Odtp
; File C:\papa\MyGit\hyperion-zvector\tfprint.c
_TEXT	SEGMENT
off_size$ = 80
tv72 = 88
tv92 = 96
tv142 = 104
tv162 = 112
filename$ = 144
parse_tracefile PROC

; 3919 : {

  00000	48 89 4c 24 08	 mov	 QWORD PTR [rsp+8], rcx
  00005	48 81 ec 88 00
	00 00		 sub	 rsp, 136		; 00000088H

; 3920 :     off_t  off_size;    // (file size)
; 3921 : 
; 3922 :     /* ALWAYS save the filename if it was provided to us */
; 3923 :     hostpath( pathname, filename, sizeof( pathname ));

  0000c	41 b8 04 01 00
	00		 mov	 r8d, 260		; 00000104H
  00012	48 8b 94 24 90
	00 00 00	 mov	 rdx, QWORD PTR filename$[rsp]
  0001a	48 8d 0d 00 00
	00 00		 lea	 rcx, OFFSET FLAT:pathname
  00021	ff 15 00 00 00
	00		 call	 QWORD PTR __imp_hostpath

; 3924 : 
; 3925 :     /* Don't bother opening it if we're going to be aborting anyway */
; 3926 :     if (arg_errs)

  00027	83 3d 00 00 00
	00 00		 cmp	 DWORD PTR arg_errs, 0
  0002e	74 05		 je	 SHORT $LN2@parse_trac

; 3927 :         return;         // (quick exit)

  00030	e9 96 02 00 00	 jmp	 $LN1@parse_trac
$LN2@parse_trac:

; 3928 : 
; 3929 : #if defined( _MSVC_ )
; 3930 : #define FOPEN_MODE    "rbS"     // ('S' = cached sequential access)
; 3931 : #else
; 3932 : #define FOPEN_MODE    "rb"
; 3933 : #endif
; 3934 : 
; 3935 :     /* Otherwise open it and determine its size */
; 3936 :     if (!(inf = fopen( pathname, FOPEN_MODE )))

  00035	48 8d 15 00 00
	00 00		 lea	 rdx, OFFSET FLAT:$SG162123
  0003c	48 8d 0d 00 00
	00 00		 lea	 rcx, OFFSET FLAT:pathname
  00043	ff 15 00 00 00
	00		 call	 QWORD PTR __imp_fopen
  00049	48 89 05 00 00
	00 00		 mov	 QWORD PTR inf, rax
  00050	48 83 3d 00 00
	00 00 00	 cmp	 QWORD PTR inf, 0
  00058	0f 85 83 00 00
	00		 jne	 $LN3@parse_trac

; 3937 :     {
; 3938 :         // "Error opening \"%s\": %s"
; 3939 :         FWRMSG( stderr, HHC03202, "E", pathname, strerror( errno ));

  0005e	ff 15 00 00 00
	00		 call	 QWORD PTR __imp__errno
  00064	8b 08		 mov	 ecx, DWORD PTR [rax]
  00066	ff 15 00 00 00
	00		 call	 QWORD PTR __imp_w32_strerror
  0006c	48 89 44 24 58	 mov	 QWORD PTR tv72[rsp], rax
  00071	b9 02 00 00 00	 mov	 ecx, 2
  00076	ff 15 00 00 00
	00		 call	 QWORD PTR __imp___acrt_iob_func
  0007c	48 8b 4c 24 58	 mov	 rcx, QWORD PTR tv72[rsp]
  00081	48 89 4c 24 40	 mov	 QWORD PTR [rsp+64], rcx
  00086	48 8d 0d 00 00
	00 00		 lea	 rcx, OFFSET FLAT:pathname
  0008d	48 89 4c 24 38	 mov	 QWORD PTR [rsp+56], rcx
  00092	48 8d 0d 00 00
	00 00		 lea	 rcx, OFFSET FLAT:$SG162124
  00099	48 89 4c 24 30	 mov	 QWORD PTR [rsp+48], rcx
  0009e	48 8d 0d 00 00
	00 00		 lea	 rcx, OFFSET FLAT:$SG162125
  000a5	48 89 4c 24 28	 mov	 QWORD PTR [rsp+40], rcx
  000aa	48 89 44 24 20	 mov	 QWORD PTR [rsp+32], rax
  000af	41 b9 03 00 00
	00		 mov	 r9d, 3
  000b5	4c 8d 05 00 00
	00 00		 lea	 r8, OFFSET FLAT:$SG162126
  000bc	ba 63 0f 00 00	 mov	 edx, 3939		; 00000f63H
  000c1	48 8d 0d 00 00
	00 00		 lea	 rcx, OFFSET FLAT:$SG162127
  000c8	ff 15 00 00 00
	00		 call	 QWORD PTR __imp_fwritemsg

; 3940 :         arg_errs++;

  000ce	8b 05 00 00 00
	00		 mov	 eax, DWORD PTR arg_errs
  000d4	ff c0		 inc	 eax
  000d6	89 05 00 00 00
	00		 mov	 DWORD PTR arg_errs, eax

; 3941 :     }

  000dc	e9 ea 01 00 00	 jmp	 $LN4@parse_trac
$LN3@parse_trac:

; 3942 :     else
; 3943 :     {
; 3944 :         /* Save file size */
; 3945 :         if (fseek( inf, 0, SEEK_END ) < 0)

  000e1	41 b8 02 00 00
	00		 mov	 r8d, 2
  000e7	33 d2		 xor	 edx, edx
  000e9	48 8b 0d 00 00
	00 00		 mov	 rcx, QWORD PTR inf
  000f0	ff 15 00 00 00
	00		 call	 QWORD PTR __imp__fseeki64
  000f6	85 c0		 test	 eax, eax
  000f8	0f 8d 83 00 00
	00		 jge	 $LN5@parse_trac

; 3946 :         {
; 3947 :             // "Error in function %s: %s"
; 3948 :             FWRMSG( stderr, HHC00075, "E", "fseek", strerror( errno ));

  000fe	ff 15 00 00 00
	00		 call	 QWORD PTR __imp__errno
  00104	8b 08		 mov	 ecx, DWORD PTR [rax]
  00106	ff 15 00 00 00
	00		 call	 QWORD PTR __imp_w32_strerror
  0010c	48 89 44 24 60	 mov	 QWORD PTR tv92[rsp], rax
  00111	b9 02 00 00 00	 mov	 ecx, 2
  00116	ff 15 00 00 00
	00		 call	 QWORD PTR __imp___acrt_iob_func
  0011c	48 8b 4c 24 60	 mov	 rcx, QWORD PTR tv92[rsp]
  00121	48 89 4c 24 40	 mov	 QWORD PTR [rsp+64], rcx
  00126	48 8d 0d 00 00
	00 00		 lea	 rcx, OFFSET FLAT:$SG162130
  0012d	48 89 4c 24 38	 mov	 QWORD PTR [rsp+56], rcx
  00132	48 8d 0d 00 00
	00 00		 lea	 rcx, OFFSET FLAT:$SG162131
  00139	48 89 4c 24 30	 mov	 QWORD PTR [rsp+48], rcx
  0013e	48 8d 0d 00 00
	00 00		 lea	 rcx, OFFSET FLAT:$SG162132
  00145	48 89 4c 24 28	 mov	 QWORD PTR [rsp+40], rcx
  0014a	48 89 44 24 20	 mov	 QWORD PTR [rsp+32], rax
  0014f	41 b9 03 00 00
	00		 mov	 r9d, 3
  00155	4c 8d 05 00 00
	00 00		 lea	 r8, OFFSET FLAT:$SG162133
  0015c	ba 6c 0f 00 00	 mov	 edx, 3948		; 00000f6cH
  00161	48 8d 0d 00 00
	00 00		 lea	 rcx, OFFSET FLAT:$SG162134
  00168	ff 15 00 00 00
	00		 call	 QWORD PTR __imp_fwritemsg

; 3949 :             arg_errs++;

  0016e	8b 05 00 00 00
	00		 mov	 eax, DWORD PTR arg_errs
  00174	ff c0		 inc	 eax
  00176	89 05 00 00 00
	00		 mov	 DWORD PTR arg_errs, eax

; 3950 :         }

  0017c	e9 4a 01 00 00	 jmp	 $LN6@parse_trac
$LN5@parse_trac:

; 3951 :         else
; 3952 :         {
; 3953 :             if ((off_size = ftell( inf )) < 0)

  00181	48 8b 0d 00 00
	00 00		 mov	 rcx, QWORD PTR inf
  00188	ff 15 00 00 00
	00		 call	 QWORD PTR __imp__ftelli64
  0018e	48 89 44 24 50	 mov	 QWORD PTR off_size$[rsp], rax
  00193	48 83 7c 24 50
	00		 cmp	 QWORD PTR off_size$[rsp], 0
  00199	0f 8d 83 00 00
	00		 jge	 $LN7@parse_trac

; 3954 :             {
; 3955 :                 // "Error in function %s: %s"
; 3956 :                 FWRMSG( stderr, HHC00075, "E", "ftell", strerror( errno ));

  0019f	ff 15 00 00 00
	00		 call	 QWORD PTR __imp__errno
  001a5	8b 08		 mov	 ecx, DWORD PTR [rax]
  001a7	ff 15 00 00 00
	00		 call	 QWORD PTR __imp_w32_strerror
  001ad	48 89 44 24 68	 mov	 QWORD PTR tv142[rsp], rax
  001b2	b9 02 00 00 00	 mov	 ecx, 2
  001b7	ff 15 00 00 00
	00		 call	 QWORD PTR __imp___acrt_iob_func
  001bd	48 8b 4c 24 68	 mov	 rcx, QWORD PTR tv142[rsp]
  001c2	48 89 4c 24 40	 mov	 QWORD PTR [rsp+64], rcx
  001c7	48 8d 0d 00 00
	00 00		 lea	 rcx, OFFSET FLAT:$SG162137
  001ce	48 89 4c 24 38	 mov	 QWORD PTR [rsp+56], rcx
  001d3	48 8d 0d 00 00
	00 00		 lea	 rcx, OFFSET FLAT:$SG162138
  001da	48 89 4c 24 30	 mov	 QWORD PTR [rsp+48], rcx
  001df	48 8d 0d 00 00
	00 00		 lea	 rcx, OFFSET FLAT:$SG162139
  001e6	48 89 4c 24 28	 mov	 QWORD PTR [rsp+40], rcx
  001eb	48 89 44 24 20	 mov	 QWORD PTR [rsp+32], rax
  001f0	41 b9 03 00 00
	00		 mov	 r9d, 3
  001f6	4c 8d 05 00 00
	00 00		 lea	 r8, OFFSET FLAT:$SG162140
  001fd	ba 74 0f 00 00	 mov	 edx, 3956		; 00000f74H
  00202	48 8d 0d 00 00
	00 00		 lea	 rcx, OFFSET FLAT:$SG162141
  00209	ff 15 00 00 00
	00		 call	 QWORD PTR __imp_fwritemsg

; 3957 :                 arg_errs++;

  0020f	8b 05 00 00 00
	00		 mov	 eax, DWORD PTR arg_errs
  00215	ff c0		 inc	 eax
  00217	89 05 00 00 00
	00		 mov	 DWORD PTR arg_errs, eax

; 3958 :             }

  0021d	e9 a9 00 00 00	 jmp	 $LN8@parse_trac
$LN7@parse_trac:

; 3959 :             else
; 3960 :             {
; 3961 :                 if (fseek( inf, 0, SEEK_SET ) < 0)

  00222	45 33 c0	 xor	 r8d, r8d
  00225	33 d2		 xor	 edx, edx
  00227	48 8b 0d 00 00
	00 00		 mov	 rcx, QWORD PTR inf
  0022e	ff 15 00 00 00
	00		 call	 QWORD PTR __imp__fseeki64
  00234	85 c0		 test	 eax, eax
  00236	0f 8d 80 00 00
	00		 jge	 $LN9@parse_trac

; 3962 :                 {
; 3963 :                     // "Error in function %s: %s"
; 3964 :                     FWRMSG( stderr, HHC00075, "E", "fseek", strerror( errno ));

  0023c	ff 15 00 00 00
	00		 call	 QWORD PTR __imp__errno
  00242	8b 08		 mov	 ecx, DWORD PTR [rax]
  00244	ff 15 00 00 00
	00		 call	 QWORD PTR __imp_w32_strerror
  0024a	48 89 44 24 70	 mov	 QWORD PTR tv162[rsp], rax
  0024f	b9 02 00 00 00	 mov	 ecx, 2
  00254	ff 15 00 00 00
	00		 call	 QWORD PTR __imp___acrt_iob_func
  0025a	48 8b 4c 24 70	 mov	 rcx, QWORD PTR tv162[rsp]
  0025f	48 89 4c 24 40	 mov	 QWORD PTR [rsp+64], rcx
  00264	48 8d 0d 00 00
	00 00		 lea	 rcx, OFFSET FLAT:$SG162144
  0026b	48 89 4c 24 38	 mov	 QWORD PTR [rsp+56], rcx
  00270	48 8d 0d 00 00
	00 00		 lea	 rcx, OFFSET FLAT:$SG162145
  00277	48 89 4c 24 30	 mov	 QWORD PTR [rsp+48], rcx
  0027c	48 8d 0d 00 00
	00 00		 lea	 rcx, OFFSET FLAT:$SG162146
  00283	48 89 4c 24 28	 mov	 QWORD PTR [rsp+40], rcx
  00288	48 89 44 24 20	 mov	 QWORD PTR [rsp+32], rax
  0028d	41 b9 03 00 00
	00		 mov	 r9d, 3
  00293	4c 8d 05 00 00
	00 00		 lea	 r8, OFFSET FLAT:$SG162147
  0029a	ba 7c 0f 00 00	 mov	 edx, 3964		; 00000f7cH
  0029f	48 8d 0d 00 00
	00 00		 lea	 rcx, OFFSET FLAT:$SG162148
  002a6	ff 15 00 00 00
	00		 call	 QWORD PTR __imp_fwritemsg

; 3965 :                     arg_errs++;

  002ac	8b 05 00 00 00
	00		 mov	 eax, DWORD PTR arg_errs
  002b2	ff c0		 inc	 eax
  002b4	89 05 00 00 00
	00		 mov	 DWORD PTR arg_errs, eax

; 3966 :                 }

  002ba	eb 0f		 jmp	 SHORT $LN10@parse_trac
$LN9@parse_trac:

; 3967 :                 else
; 3968 :                     filesize = (double) off_size;

  002bc	f2 48 0f 2a 44
	24 50		 cvtsi2sd xmm0, QWORD PTR off_size$[rsp]
  002c3	f2 0f 11 05 00
	00 00 00	 movsd	 QWORD PTR filesize, xmm0
$LN10@parse_trac:
$LN8@parse_trac:
$LN6@parse_trac:
$LN4@parse_trac:
$LN1@parse_trac:

; 3969 :             }
; 3970 :         }
; 3971 :     }
; 3972 : }

  002cb	48 81 c4 88 00
	00 00		 add	 rsp, 136		; 00000088H
  002d2	c3		 ret	 0
parse_tracefile ENDP
_TEXT	ENDS
; Function compile flags: /Odtp
; File C:\papa\MyGit\hyperion-zvector\tfprint.c
_TEXT	SEGMENT
optname$ = 48
parse_option_codepage PROC

; 3908 : {

  00000	48 89 4c 24 08	 mov	 QWORD PTR [rsp+8], rcx
  00005	48 83 ec 28	 sub	 rsp, 40			; 00000028H

; 3909 :     if (!valid_codepage_name( optarg ))

  00009	48 8b 05 00 00
	00 00		 mov	 rax, QWORD PTR __imp_optarg
  00010	48 8b 08	 mov	 rcx, QWORD PTR [rax]
  00013	ff 15 00 00 00
	00		 call	 QWORD PTR __imp_valid_codepage_name
  00019	0f b6 c0	 movzx	 eax, al
  0001c	85 c0		 test	 eax, eax
  0001e	75 0c		 jne	 SHORT $LN2@parse_opti

; 3910 :         parse_option_error( optname );

  00020	48 8b 4c 24 30	 mov	 rcx, QWORD PTR optname$[rsp]
  00025	e8 00 00 00 00	 call	 parse_option_error
  0002a	eb 10		 jmp	 SHORT $LN3@parse_opti
$LN2@parse_opti:

; 3911 :     else
; 3912 :         set_codepage( optarg );

  0002c	48 8b 05 00 00
	00 00		 mov	 rax, QWORD PTR __imp_optarg
  00033	48 8b 08	 mov	 rcx, QWORD PTR [rax]
  00036	ff 15 00 00 00
	00		 call	 QWORD PTR __imp_set_codepage
$LN3@parse_opti:

; 3913 : }

  0003c	48 83 c4 28	 add	 rsp, 40			; 00000028H
  00040	c3		 ret	 0
parse_option_codepage ENDP
_TEXT	ENDS
; Function compile flags: /Odtp
; File C:\papa\MyGit\hyperion-zvector\tfprint.c
_TEXT	SEGMENT
rangeok$ = 48
ishex$ = 49
optname$ = 80
parse_option_unit PROC

; 3891 : {

  00000	48 89 4c 24 08	 mov	 QWORD PTR [rsp+8], rcx
  00005	48 83 ec 48	 sub	 rsp, 72			; 00000048H

; 3892 :     bool ishex = true;

  00009	c6 44 24 31 01	 mov	 BYTE PTR ishex$[rsp], 1

; 3893 :     bool rangeok = true;

  0000e	c6 44 24 30 01	 mov	 BYTE PTR rangeok$[rsp], 1

; 3894 : 
; 3895 :     if (parse_opt_str( ishex, rangeok, optarg, NULL, &pUnitMOPT, &nUnitMOPT ))

  00013	48 8d 05 00 00
	00 00		 lea	 rax, OFFSET FLAT:nUnitMOPT
  0001a	48 89 44 24 28	 mov	 QWORD PTR [rsp+40], rax
  0001f	48 8d 05 00 00
	00 00		 lea	 rax, OFFSET FLAT:pUnitMOPT
  00026	48 89 44 24 20	 mov	 QWORD PTR [rsp+32], rax
  0002b	45 33 c9	 xor	 r9d, r9d
  0002e	48 8b 05 00 00
	00 00		 mov	 rax, QWORD PTR __imp_optarg
  00035	4c 8b 00	 mov	 r8, QWORD PTR [rax]
  00038	0f b6 54 24 30	 movzx	 edx, BYTE PTR rangeok$[rsp]
  0003d	0f b6 4c 24 31	 movzx	 ecx, BYTE PTR ishex$[rsp]
  00042	e8 00 00 00 00	 call	 parse_opt_str
  00047	0f b6 c0	 movzx	 eax, al
  0004a	85 c0		 test	 eax, eax
  0004c	74 02		 je	 SHORT $LN2@parse_opti

; 3896 :         return;

  0004e	eb 2c		 jmp	 SHORT $LN1@parse_opti
$LN2@parse_opti:

; 3897 : 
; 3898 :     parse_option_error( optname );

  00050	48 8b 4c 24 50	 mov	 rcx, QWORD PTR optname$[rsp]
  00055	e8 00 00 00 00	 call	 parse_option_error

; 3899 :     free( pMsgMOPT );

  0005a	48 8b 0d 00 00
	00 00		 mov	 rcx, QWORD PTR pMsgMOPT
  00061	ff 15 00 00 00
	00		 call	 QWORD PTR __imp_free

; 3900 :     pMsgMOPT = NULL;

  00067	48 c7 05 00 00
	00 00 00 00 00
	00		 mov	 QWORD PTR pMsgMOPT, 0

; 3901 :     nMsgMOPT = 0;

  00072	c7 05 00 00 00
	00 00 00 00 00	 mov	 DWORD PTR nMsgMOPT, 0
$LN1@parse_opti:

; 3902 : }

  0007c	48 83 c4 48	 add	 rsp, 72			; 00000048H
  00080	c3		 ret	 0
parse_option_unit ENDP
_TEXT	ENDS
; Function compile flags: /Odtp
; File C:\papa\MyGit\hyperion-zvector\tfprint.c
_TEXT	SEGMENT
rangeok$ = 48
ishex$ = 49
optname$ = 80
parse_option_opcode PROC

; 3873 : {

  00000	48 89 4c 24 08	 mov	 QWORD PTR [rsp+8], rcx
  00005	48 83 ec 48	 sub	 rsp, 72			; 00000048H

; 3874 :     bool ishex = true;

  00009	c6 44 24 31 01	 mov	 BYTE PTR ishex$[rsp], 1

; 3875 :     bool rangeok = false;

  0000e	c6 44 24 30 00	 mov	 BYTE PTR rangeok$[rsp], 0

; 3876 : 
; 3877 :     if (parse_opt_str( ishex, rangeok, optarg, &convert_opcode_opt_str,

  00013	48 8d 05 00 00
	00 00		 lea	 rax, OFFSET FLAT:nInstMOPT
  0001a	48 89 44 24 28	 mov	 QWORD PTR [rsp+40], rax
  0001f	48 8d 05 00 00
	00 00		 lea	 rax, OFFSET FLAT:pInstMOPT
  00026	48 89 44 24 20	 mov	 QWORD PTR [rsp+32], rax
  0002b	4c 8d 0d 00 00
	00 00		 lea	 r9, OFFSET FLAT:convert_opcode_opt_str
  00032	48 8b 05 00 00
	00 00		 mov	 rax, QWORD PTR __imp_optarg
  00039	4c 8b 00	 mov	 r8, QWORD PTR [rax]
  0003c	0f b6 54 24 30	 movzx	 edx, BYTE PTR rangeok$[rsp]
  00041	0f b6 4c 24 31	 movzx	 ecx, BYTE PTR ishex$[rsp]
  00046	e8 00 00 00 00	 call	 parse_opt_str
  0004b	0f b6 c0	 movzx	 eax, al
  0004e	85 c0		 test	 eax, eax
  00050	74 02		 je	 SHORT $LN2@parse_opti

; 3878 :                        &pInstMOPT, &nInstMOPT ))
; 3879 :         return;

  00052	eb 2c		 jmp	 SHORT $LN1@parse_opti
$LN2@parse_opti:

; 3880 : 
; 3881 :     parse_option_error( optname );

  00054	48 8b 4c 24 50	 mov	 rcx, QWORD PTR optname$[rsp]
  00059	e8 00 00 00 00	 call	 parse_option_error

; 3882 :     free( pInstMOPT );

  0005e	48 8b 0d 00 00
	00 00		 mov	 rcx, QWORD PTR pInstMOPT
  00065	ff 15 00 00 00
	00		 call	 QWORD PTR __imp_free

; 3883 :     pInstMOPT = NULL;

  0006b	48 c7 05 00 00
	00 00 00 00 00
	00		 mov	 QWORD PTR pInstMOPT, 0

; 3884 :     nInstMOPT = 0;

  00076	c7 05 00 00 00
	00 00 00 00 00	 mov	 DWORD PTR nInstMOPT, 0
$LN1@parse_opti:

; 3885 : }

  00080	48 83 c4 48	 add	 rsp, 72			; 00000048H
  00084	c3		 ret	 0
parse_option_opcode ENDP
_TEXT	ENDS
; Function compile flags: /Odtp
; File C:\papa\MyGit\hyperion-zvector\tfprint.c
_TEXT	SEGMENT
pDash$ = 32
begstr$ = 40
endstr$ = 56
__$ArrayPad$ = 72
optname$ = 96
parse_option_time PROC

; 3768 : {

  00000	48 89 4c 24 08	 mov	 QWORD PTR [rsp+8], rcx
  00005	57		 push	 rdi
  00006	48 83 ec 50	 sub	 rsp, 80			; 00000050H
  0000a	48 8b 05 00 00
	00 00		 mov	 rax, QWORD PTR __security_cookie
  00011	48 33 c4	 xor	 rax, rsp
  00014	48 89 44 24 48	 mov	 QWORD PTR __$ArrayPad$[rsp], rax

; 3769 :     char  begstr[16] = {0};   // "HH:MM:SS.nnnnnn"

  00019	48 8d 44 24 28	 lea	 rax, QWORD PTR begstr$[rsp]
  0001e	48 8b f8	 mov	 rdi, rax
  00021	33 c0		 xor	 eax, eax
  00023	b9 10 00 00 00	 mov	 ecx, 16
  00028	f3 aa		 rep stosb

; 3770 :     char  endstr[16] = {0};   // "HH:MM:SS.nnnnnn"

  0002a	48 8d 44 24 38	 lea	 rax, QWORD PTR endstr$[rsp]
  0002f	48 8b f8	 mov	 rdi, rax
  00032	33 c0		 xor	 eax, eax
  00034	b9 10 00 00 00	 mov	 ecx, 16
  00039	f3 aa		 rep stosb

; 3771 :     char* pDash;
; 3772 : 
; 3773 :     if (!(pDash = strchr( optarg, '-' )))

  0003b	ba 2d 00 00 00	 mov	 edx, 45			; 0000002dH
  00040	48 8b 05 00 00
	00 00		 mov	 rax, QWORD PTR __imp_optarg
  00047	48 8b 08	 mov	 rcx, QWORD PTR [rax]
  0004a	e8 00 00 00 00	 call	 strchr
  0004f	48 89 44 24 20	 mov	 QWORD PTR pDash$[rsp], rax
  00054	48 83 7c 24 20
	00		 cmp	 QWORD PTR pDash$[rsp], 0
  0005a	75 05		 jne	 SHORT $LN2@parse_opti

; 3774 :         goto opt_error;

  0005c	e9 ab 00 00 00	 jmp	 $opt_error$9
$LN2@parse_opti:

; 3775 : 
; 3776 :     *pDash = 0;

  00061	48 8b 44 24 20	 mov	 rax, QWORD PTR pDash$[rsp]
  00066	c6 00 00	 mov	 BYTE PTR [rax], 0

; 3777 :     STRLCPY( begstr, optarg ); 

  00069	41 b8 10 00 00
	00		 mov	 r8d, 16
  0006f	48 8b 05 00 00
	00 00		 mov	 rax, QWORD PTR __imp_optarg
  00076	48 8b 10	 mov	 rdx, QWORD PTR [rax]
  00079	48 8d 4c 24 28	 lea	 rcx, QWORD PTR begstr$[rsp]
  0007e	ff 15 00 00 00
	00		 call	 QWORD PTR __imp_strlcpy

; 3778 :     STRLCPY( endstr, pDash+1); 

  00084	48 8b 44 24 20	 mov	 rax, QWORD PTR pDash$[rsp]
  00089	48 ff c0	 inc	 rax
  0008c	41 b8 10 00 00
	00		 mov	 r8d, 16
  00092	48 8b d0	 mov	 rdx, rax
  00095	48 8d 4c 24 38	 lea	 rcx, QWORD PTR endstr$[rsp]
  0009a	ff 15 00 00 00
	00		 call	 QWORD PTR __imp_strlcpy

; 3779 :     *pDash = '-';

  000a0	48 8b 44 24 20	 mov	 rax, QWORD PTR pDash$[rsp]
  000a5	c6 00 2d	 mov	 BYTE PTR [rax], 45	; 0000002dH

; 3780 : 
; 3781 :     if (!parse_time_str( begstr, &beg_tim ))

  000a8	48 8d 15 00 00
	00 00		 lea	 rdx, OFFSET FLAT:beg_tim
  000af	48 8d 4c 24 28	 lea	 rcx, QWORD PTR begstr$[rsp]
  000b4	e8 00 00 00 00	 call	 parse_time_str
  000b9	0f b6 c0	 movzx	 eax, al
  000bc	85 c0		 test	 eax, eax
  000be	75 02		 jne	 SHORT $LN3@parse_opti

; 3782 :         goto opt_error;

  000c0	eb 4a		 jmp	 SHORT $opt_error$9
$LN3@parse_opti:

; 3783 : 
; 3784 :     if (!parse_time_str( endstr, &end_tim ))

  000c2	48 8d 15 00 00
	00 00		 lea	 rdx, OFFSET FLAT:end_tim
  000c9	48 8d 4c 24 38	 lea	 rcx, QWORD PTR endstr$[rsp]
  000ce	e8 00 00 00 00	 call	 parse_time_str
  000d3	0f b6 c0	 movzx	 eax, al
  000d6	85 c0		 test	 eax, eax
  000d8	75 02		 jne	 SHORT $LN4@parse_opti

; 3785 :         goto opt_error;

  000da	eb 30		 jmp	 SHORT $opt_error$9
$LN4@parse_opti:

; 3786 : 
; 3787 :     // Validate parsed value
; 3788 : 
; 3789 :     if (beg_tim.tv_sec > end_tim.tv_sec)

  000dc	8b 05 00 00 00
	00		 mov	 eax, DWORD PTR end_tim
  000e2	39 05 00 00 00
	00		 cmp	 DWORD PTR beg_tim, eax
  000e8	7e 02		 jle	 SHORT $LN5@parse_opti

; 3790 :         goto opt_error;

  000ea	eb 20		 jmp	 SHORT $opt_error$9
$LN5@parse_opti:

; 3791 : 
; 3792 :     if (beg_tim.tv_sec < end_tim.tv_sec)

  000ec	8b 05 00 00 00
	00		 mov	 eax, DWORD PTR end_tim
  000f2	39 05 00 00 00
	00		 cmp	 DWORD PTR beg_tim, eax
  000f8	7d 02		 jge	 SHORT $LN6@parse_opti

; 3793 :         return;

  000fa	eb 1a		 jmp	 SHORT $LN1@parse_opti
$LN6@parse_opti:

; 3794 : 
; 3795 :     if (beg_tim.tv_usec <= end_tim.tv_usec)

  000fc	8b 05 04 00 00
	00		 mov	 eax, DWORD PTR end_tim+4
  00102	39 05 04 00 00
	00		 cmp	 DWORD PTR beg_tim+4, eax
  00108	7f 02		 jg	 SHORT $LN7@parse_opti

; 3796 :         return;

  0010a	eb 0a		 jmp	 SHORT $LN1@parse_opti
$LN7@parse_opti:
$opt_error$9:

; 3797 : 
; 3798 : opt_error:
; 3799 : 
; 3800 :     parse_option_error( optname );

  0010c	48 8b 4c 24 60	 mov	 rcx, QWORD PTR optname$[rsp]
  00111	e8 00 00 00 00	 call	 parse_option_error
$LN1@parse_opti:

; 3801 : }

  00116	48 8b 4c 24 48	 mov	 rcx, QWORD PTR __$ArrayPad$[rsp]
  0011b	48 33 cc	 xor	 rcx, rsp
  0011e	e8 00 00 00 00	 call	 __security_check_cookie
  00123	48 83 c4 50	 add	 rsp, 80			; 00000050H
  00127	5f		 pop	 rdi
  00128	c3		 ret	 0
parse_option_time ENDP
_TEXT	ENDS
; Function compile flags: /Odtp
; File C:\papa\MyGit\hyperion-zvector\tfprint.c
_TEXT	SEGMENT
pDash$ = 32
begstr$ = 40
endstr$ = 56
__$ArrayPad$ = 72
optname$ = 96
parse_option_date PROC

; 3735 : {

  00000	48 89 4c 24 08	 mov	 QWORD PTR [rsp+8], rcx
  00005	57		 push	 rdi
  00006	48 83 ec 50	 sub	 rsp, 80			; 00000050H
  0000a	48 8b 05 00 00
	00 00		 mov	 rax, QWORD PTR __security_cookie
  00011	48 33 c4	 xor	 rax, rsp
  00014	48 89 44 24 48	 mov	 QWORD PTR __$ArrayPad$[rsp], rax

; 3736 :     char  begstr[11] = {0};   // "YYYY/MM/DD"

  00019	48 8d 44 24 28	 lea	 rax, QWORD PTR begstr$[rsp]
  0001e	48 8b f8	 mov	 rdi, rax
  00021	33 c0		 xor	 eax, eax
  00023	b9 0b 00 00 00	 mov	 ecx, 11
  00028	f3 aa		 rep stosb

; 3737 :     char  endstr[11] = {0};   // "YYYY/MM/DD"

  0002a	48 8d 44 24 38	 lea	 rax, QWORD PTR endstr$[rsp]
  0002f	48 8b f8	 mov	 rdi, rax
  00032	33 c0		 xor	 eax, eax
  00034	b9 0b 00 00 00	 mov	 ecx, 11
  00039	f3 aa		 rep stosb

; 3738 :     char* pDash;
; 3739 : 
; 3740 :     if (!(pDash = strchr( optarg, '-' )))

  0003b	ba 2d 00 00 00	 mov	 edx, 45			; 0000002dH
  00040	48 8b 05 00 00
	00 00		 mov	 rax, QWORD PTR __imp_optarg
  00047	48 8b 08	 mov	 rcx, QWORD PTR [rax]
  0004a	e8 00 00 00 00	 call	 strchr
  0004f	48 89 44 24 20	 mov	 QWORD PTR pDash$[rsp], rax
  00054	48 83 7c 24 20
	00		 cmp	 QWORD PTR pDash$[rsp], 0
  0005a	75 05		 jne	 SHORT $LN2@parse_opti

; 3741 :         goto opt_error;

  0005c	e9 8d 00 00 00	 jmp	 $opt_error$7
$LN2@parse_opti:

; 3742 : 
; 3743 :     *pDash = 0;

  00061	48 8b 44 24 20	 mov	 rax, QWORD PTR pDash$[rsp]
  00066	c6 00 00	 mov	 BYTE PTR [rax], 0

; 3744 :     STRLCPY( begstr, optarg ); 

  00069	41 b8 0b 00 00
	00		 mov	 r8d, 11
  0006f	48 8b 05 00 00
	00 00		 mov	 rax, QWORD PTR __imp_optarg
  00076	48 8b 10	 mov	 rdx, QWORD PTR [rax]
  00079	48 8d 4c 24 28	 lea	 rcx, QWORD PTR begstr$[rsp]
  0007e	ff 15 00 00 00
	00		 call	 QWORD PTR __imp_strlcpy

; 3745 :     STRLCPY( endstr, pDash+1); 

  00084	48 8b 44 24 20	 mov	 rax, QWORD PTR pDash$[rsp]
  00089	48 ff c0	 inc	 rax
  0008c	41 b8 0b 00 00
	00		 mov	 r8d, 11
  00092	48 8b d0	 mov	 rdx, rax
  00095	48 8d 4c 24 38	 lea	 rcx, QWORD PTR endstr$[rsp]
  0009a	ff 15 00 00 00
	00		 call	 QWORD PTR __imp_strlcpy

; 3746 :     *pDash = '-';

  000a0	48 8b 44 24 20	 mov	 rax, QWORD PTR pDash$[rsp]
  000a5	c6 00 2d	 mov	 BYTE PTR [rax], 45	; 0000002dH

; 3747 : 
; 3748 :     if (!parse_date_str( begstr, &beg_dat ))

  000a8	48 8d 15 00 00
	00 00		 lea	 rdx, OFFSET FLAT:beg_dat
  000af	48 8d 4c 24 28	 lea	 rcx, QWORD PTR begstr$[rsp]
  000b4	e8 00 00 00 00	 call	 parse_date_str
  000b9	0f b6 c0	 movzx	 eax, al
  000bc	85 c0		 test	 eax, eax
  000be	75 02		 jne	 SHORT $LN3@parse_opti

; 3749 :         goto opt_error;

  000c0	eb 2c		 jmp	 SHORT $opt_error$7
$LN3@parse_opti:

; 3750 : 
; 3751 :     if (!parse_date_str( endstr, &end_dat ))

  000c2	48 8d 15 00 00
	00 00		 lea	 rdx, OFFSET FLAT:end_dat
  000c9	48 8d 4c 24 38	 lea	 rcx, QWORD PTR endstr$[rsp]
  000ce	e8 00 00 00 00	 call	 parse_date_str
  000d3	0f b6 c0	 movzx	 eax, al
  000d6	85 c0		 test	 eax, eax
  000d8	75 02		 jne	 SHORT $LN4@parse_opti

; 3752 :         goto opt_error;

  000da	eb 12		 jmp	 SHORT $opt_error$7
$LN4@parse_opti:

; 3753 : 
; 3754 :     // Validate parsed value
; 3755 : 
; 3756 :     if (beg_dat <= end_dat)

  000dc	48 8b 05 00 00
	00 00		 mov	 rax, QWORD PTR end_dat
  000e3	48 39 05 00 00
	00 00		 cmp	 QWORD PTR beg_dat, rax
  000ea	7f 02		 jg	 SHORT $LN5@parse_opti

; 3757 :         return;

  000ec	eb 0a		 jmp	 SHORT $LN1@parse_opti
$LN5@parse_opti:
$opt_error$7:

; 3758 : 
; 3759 : opt_error:
; 3760 : 
; 3761 :     parse_option_error( optname );

  000ee	48 8b 4c 24 60	 mov	 rcx, QWORD PTR optname$[rsp]
  000f3	e8 00 00 00 00	 call	 parse_option_error
$LN1@parse_opti:

; 3762 : }

  000f8	48 8b 4c 24 48	 mov	 rcx, QWORD PTR __$ArrayPad$[rsp]
  000fd	48 33 cc	 xor	 rcx, rsp
  00100	e8 00 00 00 00	 call	 __security_check_cookie
  00105	48 83 c4 50	 add	 rsp, 80			; 00000050H
  00109	5f		 pop	 rdi
  0010a	c3		 ret	 0
parse_option_date ENDP
_TEXT	ENDS
; Function compile flags: /Odtp
; File C:\papa\MyGit\hyperion-zvector\tfprint.c
_TEXT	SEGMENT
rangeok$ = 48
ishex$ = 49
optname$ = 80
parse_option_storage PROC

; 3590 : {

  00000	48 89 4c 24 08	 mov	 QWORD PTR [rsp+8], rcx
  00005	48 83 ec 48	 sub	 rsp, 72			; 00000048H

; 3591 :     bool ishex = true;

  00009	c6 44 24 31 01	 mov	 BYTE PTR ishex$[rsp], 1

; 3592 :     bool rangeok = true;

  0000e	c6 44 24 30 01	 mov	 BYTE PTR rangeok$[rsp], 1

; 3593 : 
; 3594 :     if (parse_opt_str( ishex, rangeok, optarg, &convert_storage_opt_str,

  00013	48 8d 05 00 00
	00 00		 lea	 rax, OFFSET FLAT:nStorMOPT
  0001a	48 89 44 24 28	 mov	 QWORD PTR [rsp+40], rax
  0001f	48 8d 05 00 00
	00 00		 lea	 rax, OFFSET FLAT:pStorMOPT
  00026	48 89 44 24 20	 mov	 QWORD PTR [rsp+32], rax
  0002b	4c 8d 0d 00 00
	00 00		 lea	 r9, OFFSET FLAT:convert_storage_opt_str
  00032	48 8b 05 00 00
	00 00		 mov	 rax, QWORD PTR __imp_optarg
  00039	4c 8b 00	 mov	 r8, QWORD PTR [rax]
  0003c	0f b6 54 24 30	 movzx	 edx, BYTE PTR rangeok$[rsp]
  00041	0f b6 4c 24 31	 movzx	 ecx, BYTE PTR ishex$[rsp]
  00046	e8 00 00 00 00	 call	 parse_opt_str
  0004b	0f b6 c0	 movzx	 eax, al
  0004e	85 c0		 test	 eax, eax
  00050	74 02		 je	 SHORT $LN2@parse_opti

; 3595 :                        &pStorMOPT, &nStorMOPT ))
; 3596 :         return;

  00052	eb 2c		 jmp	 SHORT $LN1@parse_opti
$LN2@parse_opti:

; 3597 : 
; 3598 :     parse_option_error( optname );

  00054	48 8b 4c 24 50	 mov	 rcx, QWORD PTR optname$[rsp]
  00059	e8 00 00 00 00	 call	 parse_option_error

; 3599 :     free( pStorMOPT );

  0005e	48 8b 0d 00 00
	00 00		 mov	 rcx, QWORD PTR pStorMOPT
  00065	ff 15 00 00 00
	00		 call	 QWORD PTR __imp_free

; 3600 :     pStorMOPT = NULL;

  0006b	48 c7 05 00 00
	00 00 00 00 00
	00		 mov	 QWORD PTR pStorMOPT, 0

; 3601 :     nStorMOPT = 0;

  00076	c7 05 00 00 00
	00 00 00 00 00	 mov	 DWORD PTR nStorMOPT, 0
$LN1@parse_opti:

; 3602 : }

  00080	48 83 c4 48	 add	 rsp, 72			; 00000048H
  00084	c3		 ret	 0
parse_option_storage ENDP
_TEXT	ENDS
; Function compile flags: /Odtp
; File C:\papa\MyGit\hyperion-zvector\tfprint.c
_TEXT	SEGMENT
rangeok$ = 48
ishex$ = 49
optname$ = 80
parse_option_msg PROC

; 3544 : {

  00000	48 89 4c 24 08	 mov	 QWORD PTR [rsp+8], rcx
  00005	48 83 ec 48	 sub	 rsp, 72			; 00000048H

; 3545 :     bool ishex = false;

  00009	c6 44 24 31 00	 mov	 BYTE PTR ishex$[rsp], 0

; 3546 :     bool rangeok = false;

  0000e	c6 44 24 30 00	 mov	 BYTE PTR rangeok$[rsp], 0

; 3547 : 
; 3548 :     if (parse_opt_str( ishex, rangeok, optarg, NULL, &pMsgMOPT, &nMsgMOPT ))

  00013	48 8d 05 00 00
	00 00		 lea	 rax, OFFSET FLAT:nMsgMOPT
  0001a	48 89 44 24 28	 mov	 QWORD PTR [rsp+40], rax
  0001f	48 8d 05 00 00
	00 00		 lea	 rax, OFFSET FLAT:pMsgMOPT
  00026	48 89 44 24 20	 mov	 QWORD PTR [rsp+32], rax
  0002b	45 33 c9	 xor	 r9d, r9d
  0002e	48 8b 05 00 00
	00 00		 mov	 rax, QWORD PTR __imp_optarg
  00035	4c 8b 00	 mov	 r8, QWORD PTR [rax]
  00038	0f b6 54 24 30	 movzx	 edx, BYTE PTR rangeok$[rsp]
  0003d	0f b6 4c 24 31	 movzx	 ecx, BYTE PTR ishex$[rsp]
  00042	e8 00 00 00 00	 call	 parse_opt_str
  00047	0f b6 c0	 movzx	 eax, al
  0004a	85 c0		 test	 eax, eax
  0004c	74 02		 je	 SHORT $LN2@parse_opti

; 3549 :         return;

  0004e	eb 2c		 jmp	 SHORT $LN1@parse_opti
$LN2@parse_opti:

; 3550 : 
; 3551 :     parse_option_error( optname );

  00050	48 8b 4c 24 50	 mov	 rcx, QWORD PTR optname$[rsp]
  00055	e8 00 00 00 00	 call	 parse_option_error

; 3552 :     free( pMsgMOPT );

  0005a	48 8b 0d 00 00
	00 00		 mov	 rcx, QWORD PTR pMsgMOPT
  00061	ff 15 00 00 00
	00		 call	 QWORD PTR __imp_free

; 3553 :     pMsgMOPT = NULL;

  00067	48 c7 05 00 00
	00 00 00 00 00
	00		 mov	 QWORD PTR pMsgMOPT, 0

; 3554 :     nMsgMOPT = 0;

  00072	c7 05 00 00 00
	00 00 00 00 00	 mov	 DWORD PTR nMsgMOPT, 0
$LN1@parse_opti:

; 3555 : }

  0007c	48 83 c4 48	 add	 rsp, 72			; 00000048H
  00080	c3		 ret	 0
parse_option_msg ENDP
_TEXT	ENDS
; Function compile flags: /Odtp
; File C:\papa\MyGit\hyperion-zvector\tfprint.c
_TEXT	SEGMENT
rangeok$ = 48
ishex$ = 49
nMOPT$ = 52
pMOPT$ = 56
optname$ = 80
parse_option_count PROC

; 3503 : {

  00000	48 89 4c 24 08	 mov	 QWORD PTR [rsp+8], rcx
  00005	48 83 ec 48	 sub	 rsp, 72			; 00000048H

; 3504 :     MOPT* pMOPT = NULL;

  00009	48 c7 44 24 38
	00 00 00 00	 mov	 QWORD PTR pMOPT$[rsp], 0

; 3505 :     int   nMOPT = 0;

  00012	c7 44 24 34 00
	00 00 00	 mov	 DWORD PTR nMOPT$[rsp], 0

; 3506 :     bool  ishex = false;

  0001a	c6 44 24 31 00	 mov	 BYTE PTR ishex$[rsp], 0

; 3507 :     bool  rangeok = true;

  0001f	c6 44 24 30 01	 mov	 BYTE PTR rangeok$[rsp], 1

; 3508 : 
; 3509 :     if (0
; 3510 :         || !parse_opt_str( ishex, rangeok, optarg, NULL, &pMOPT, &nMOPT )
; 3511 :         || nMOPT != 1

  00024	33 c0		 xor	 eax, eax
  00026	85 c0		 test	 eax, eax
  00028	75 3e		 jne	 SHORT $LN3@parse_opti
  0002a	48 8d 44 24 34	 lea	 rax, QWORD PTR nMOPT$[rsp]
  0002f	48 89 44 24 28	 mov	 QWORD PTR [rsp+40], rax
  00034	48 8d 44 24 38	 lea	 rax, QWORD PTR pMOPT$[rsp]
  00039	48 89 44 24 20	 mov	 QWORD PTR [rsp+32], rax
  0003e	45 33 c9	 xor	 r9d, r9d
  00041	48 8b 05 00 00
	00 00		 mov	 rax, QWORD PTR __imp_optarg
  00048	4c 8b 00	 mov	 r8, QWORD PTR [rax]
  0004b	0f b6 54 24 30	 movzx	 edx, BYTE PTR rangeok$[rsp]
  00050	0f b6 4c 24 31	 movzx	 ecx, BYTE PTR ishex$[rsp]
  00055	e8 00 00 00 00	 call	 parse_opt_str
  0005a	0f b6 c0	 movzx	 eax, al
  0005d	85 c0		 test	 eax, eax
  0005f	74 07		 je	 SHORT $LN3@parse_opti
  00061	83 7c 24 34 01	 cmp	 DWORD PTR nMOPT$[rsp], 1
  00066	74 02		 je	 SHORT $LN2@parse_opti
$LN3@parse_opti:

; 3512 :     )
; 3513 :         goto opt_error;

  00068	eb 57		 jmp	 SHORT $opt_error$8
$LN2@parse_opti:

; 3514 : 
; 3515 :     if (pMOPT->isrange)

  0006a	48 8b 44 24 38	 mov	 rax, QWORD PTR pMOPT$[rsp]
  0006f	0f b6 40 1c	 movzx	 eax, BYTE PTR [rax+28]
  00073	85 c0		 test	 eax, eax
  00075	74 21		 je	 SHORT $LN4@parse_opti

; 3516 :     {
; 3517 :         fromrec = pMOPT->opt1;

  00077	48 8b 44 24 38	 mov	 rax, QWORD PTR pMOPT$[rsp]
  0007c	48 8b 00	 mov	 rax, QWORD PTR [rax]
  0007f	48 89 05 00 00
	00 00		 mov	 QWORD PTR fromrec, rax

; 3518 :         torec   = pMOPT->opt2;

  00086	48 8b 44 24 38	 mov	 rax, QWORD PTR pMOPT$[rsp]
  0008b	48 8b 40 08	 mov	 rax, QWORD PTR [rax+8]
  0008f	48 89 05 00 00
	00 00		 mov	 QWORD PTR torec, rax

; 3519 :     }

  00096	eb 27		 jmp	 SHORT $LN5@parse_opti
$LN4@parse_opti:

; 3520 :     else
; 3521 :     {
; 3522 :         if (!pMOPT->opt1)

  00098	48 8b 44 24 38	 mov	 rax, QWORD PTR pMOPT$[rsp]
  0009d	48 83 38 00	 cmp	 QWORD PTR [rax], 0
  000a1	75 02		 jne	 SHORT $LN6@parse_opti

; 3523 :             goto opt_error;

  000a3	eb 1c		 jmp	 SHORT $opt_error$8
$LN6@parse_opti:

; 3524 : 
; 3525 :         fromrec = 0;

  000a5	48 c7 05 00 00
	00 00 00 00 00
	00		 mov	 QWORD PTR fromrec, 0

; 3526 :         torec   = pMOPT->opt1;

  000b0	48 8b 44 24 38	 mov	 rax, QWORD PTR pMOPT$[rsp]
  000b5	48 8b 00	 mov	 rax, QWORD PTR [rax]
  000b8	48 89 05 00 00
	00 00		 mov	 QWORD PTR torec, rax
$LN5@parse_opti:

; 3527 :     }
; 3528 : 
; 3529 :     goto opt_return;

  000bf	eb 0a		 jmp	 SHORT $opt_return$9
$opt_error$8:

; 3530 : 
; 3531 : opt_error:
; 3532 : 
; 3533 :     parse_option_error( optname );

  000c1	48 8b 4c 24 50	 mov	 rcx, QWORD PTR optname$[rsp]
  000c6	e8 00 00 00 00	 call	 parse_option_error
$opt_return$9:

; 3534 : 
; 3535 : opt_return:
; 3536 : 
; 3537 :     free( pMOPT );

  000cb	48 8b 4c 24 38	 mov	 rcx, QWORD PTR pMOPT$[rsp]
  000d0	ff 15 00 00 00
	00		 call	 QWORD PTR __imp_free

; 3538 : }

  000d6	48 83 c4 48	 add	 rsp, 72			; 00000048H
  000da	c3		 ret	 0
parse_option_count ENDP
_TEXT	ENDS
; Function compile flags: /Odtp
; File C:\papa\MyGit\hyperion-zvector\tfprint.c
_TEXT	SEGMENT
optname$ = 48
parse_option_traceopt PROC

; 3477 : {

  00000	48 89 4c 24 08	 mov	 QWORD PTR [rsp+8], rcx
  00005	48 83 ec 28	 sub	 rsp, 40			; 00000028H

; 3478 :     if (str_caseless_eq( "NOREGS", optarg ))

  00009	48 8b 05 00 00
	00 00		 mov	 rax, QWORD PTR __imp_optarg
  00010	48 8b 10	 mov	 rdx, QWORD PTR [rax]
  00013	48 8d 0d 00 00
	00 00		 lea	 rcx, OFFSET FLAT:$SG161798
  0001a	ff 15 00 00 00
	00		 call	 QWORD PTR __imp__stricmp
  00020	85 c0		 test	 eax, eax
  00022	75 10		 jne	 SHORT $LN2@parse_opti

; 3479 :     {
; 3480 :         regsfirst = false;

  00024	c6 05 00 00 00
	00 00		 mov	 BYTE PTR regsfirst, 0

; 3481 :         noregs    = true;

  0002b	c6 05 00 00 00
	00 01		 mov	 BYTE PTR noregs, 1

; 3482 :     }

  00032	eb 60		 jmp	 SHORT $LN3@parse_opti
$LN2@parse_opti:

; 3483 :     else
; 3484 :     if (str_caseless_eq( "REGSFIRST", optarg ))

  00034	48 8b 05 00 00
	00 00		 mov	 rax, QWORD PTR __imp_optarg
  0003b	48 8b 10	 mov	 rdx, QWORD PTR [rax]
  0003e	48 8d 0d 00 00
	00 00		 lea	 rcx, OFFSET FLAT:$SG161801
  00045	ff 15 00 00 00
	00		 call	 QWORD PTR __imp__stricmp
  0004b	85 c0		 test	 eax, eax
  0004d	75 10		 jne	 SHORT $LN4@parse_opti

; 3485 :     {
; 3486 :         regsfirst = true;

  0004f	c6 05 00 00 00
	00 01		 mov	 BYTE PTR regsfirst, 1

; 3487 :         noregs    = false;

  00056	c6 05 00 00 00
	00 00		 mov	 BYTE PTR noregs, 0

; 3488 :     }

  0005d	eb 35		 jmp	 SHORT $LN5@parse_opti
$LN4@parse_opti:

; 3489 :     else
; 3490 :     if (str_caseless_eq( "TRADITIONAL", optarg ))

  0005f	48 8b 05 00 00
	00 00		 mov	 rax, QWORD PTR __imp_optarg
  00066	48 8b 10	 mov	 rdx, QWORD PTR [rax]
  00069	48 8d 0d 00 00
	00 00		 lea	 rcx, OFFSET FLAT:$SG161804
  00070	ff 15 00 00 00
	00		 call	 QWORD PTR __imp__stricmp
  00076	85 c0		 test	 eax, eax
  00078	75 10		 jne	 SHORT $LN6@parse_opti

; 3491 :     {
; 3492 :         regsfirst = false;

  0007a	c6 05 00 00 00
	00 00		 mov	 BYTE PTR regsfirst, 0

; 3493 :         noregs    = false;

  00081	c6 05 00 00 00
	00 00		 mov	 BYTE PTR noregs, 0

; 3494 :     }

  00088	eb 0a		 jmp	 SHORT $LN7@parse_opti
$LN6@parse_opti:

; 3495 :     else
; 3496 :         parse_option_error( optname );

  0008a	48 8b 4c 24 30	 mov	 rcx, QWORD PTR optname$[rsp]
  0008f	e8 00 00 00 00	 call	 parse_option_error
$LN7@parse_opti:
$LN5@parse_opti:
$LN3@parse_opti:

; 3497 : }

  00094	48 83 c4 28	 add	 rsp, 40			; 00000028H
  00098	c3		 ret	 0
parse_option_traceopt ENDP
_TEXT	ENDS
; Function compile flags: /Odtp
; File C:\papa\MyGit\hyperion-zvector\tfprint.c
_TEXT	SEGMENT
i$ = 48
rangeok$ = 52
ishex$ = 53
cpu1$ = 56
pMOPT$ = 64
nMOPT$ = 72
cpu2$ = 76
tv162 = 80
tv173 = 88
optname$ = 112
parse_option_cpu PROC

; 3427 : {

  00000	48 89 4c 24 08	 mov	 QWORD PTR [rsp+8], rcx
  00005	48 83 ec 68	 sub	 rsp, 104		; 00000068H

; 3428 :     MOPT* pMOPT = NULL;

  00009	48 c7 44 24 40
	00 00 00 00	 mov	 QWORD PTR pMOPT$[rsp], 0

; 3429 :     int   nMOPT = 0;

  00012	c7 44 24 48 00
	00 00 00	 mov	 DWORD PTR nMOPT$[rsp], 0

; 3430 :     int   i, cpu1, cpu2;
; 3431 :     bool  ishex = true;

  0001a	c6 44 24 35 01	 mov	 BYTE PTR ishex$[rsp], 1

; 3432 :     bool  rangeok = true;

  0001f	c6 44 24 34 01	 mov	 BYTE PTR rangeok$[rsp], 1

; 3433 : 
; 3434 :     if (!parse_opt_str( ishex, rangeok, optarg, NULL, &pMOPT, &nMOPT ))

  00024	48 8d 44 24 48	 lea	 rax, QWORD PTR nMOPT$[rsp]
  00029	48 89 44 24 28	 mov	 QWORD PTR [rsp+40], rax
  0002e	48 8d 44 24 40	 lea	 rax, QWORD PTR pMOPT$[rsp]
  00033	48 89 44 24 20	 mov	 QWORD PTR [rsp+32], rax
  00038	45 33 c9	 xor	 r9d, r9d
  0003b	48 8b 05 00 00
	00 00		 mov	 rax, QWORD PTR __imp_optarg
  00042	4c 8b 00	 mov	 r8, QWORD PTR [rax]
  00045	0f b6 54 24 34	 movzx	 edx, BYTE PTR rangeok$[rsp]
  0004a	0f b6 4c 24 35	 movzx	 ecx, BYTE PTR ishex$[rsp]
  0004f	e8 00 00 00 00	 call	 parse_opt_str
  00054	0f b6 c0	 movzx	 eax, al
  00057	85 c0		 test	 eax, eax
  00059	75 05		 jne	 SHORT $LN8@parse_opti

; 3435 :         goto opt_error;

  0005b	e9 39 01 00 00	 jmp	 $opt_error$14
$LN8@parse_opti:

; 3436 : 
; 3437 :     for (i=0; i < nMOPT; ++i)

  00060	c7 44 24 30 00
	00 00 00	 mov	 DWORD PTR i$[rsp], 0
  00068	eb 0a		 jmp	 SHORT $LN4@parse_opti
$LN2@parse_opti:
  0006a	8b 44 24 30	 mov	 eax, DWORD PTR i$[rsp]
  0006e	ff c0		 inc	 eax
  00070	89 44 24 30	 mov	 DWORD PTR i$[rsp], eax
$LN4@parse_opti:
  00074	8b 44 24 48	 mov	 eax, DWORD PTR nMOPT$[rsp]
  00078	39 44 24 30	 cmp	 DWORD PTR i$[rsp], eax
  0007c	0f 8d 15 01 00
	00		 jge	 $LN3@parse_opti

; 3438 :     {
; 3439 :         if (0
; 3440 :             || pMOPT[i].opt1 >= MAX_CPU_ENGS
; 3441 :             || pMOPT[i].opt2 >= MAX_CPU_ENGS

  00082	33 c0		 xor	 eax, eax
  00084	85 c0		 test	 eax, eax
  00086	75 2b		 jne	 SHORT $LN10@parse_opti
  00088	48 63 44 24 30	 movsxd	 rax, DWORD PTR i$[rsp]
  0008d	48 6b c0 20	 imul	 rax, rax, 32		; 00000020H
  00091	48 8b 4c 24 40	 mov	 rcx, QWORD PTR pMOPT$[rsp]
  00096	48 83 3c 01 40	 cmp	 QWORD PTR [rcx+rax], 64	; 00000040H
  0009b	73 16		 jae	 SHORT $LN10@parse_opti
  0009d	48 63 44 24 30	 movsxd	 rax, DWORD PTR i$[rsp]
  000a2	48 6b c0 20	 imul	 rax, rax, 32		; 00000020H
  000a6	48 8b 4c 24 40	 mov	 rcx, QWORD PTR pMOPT$[rsp]
  000ab	48 83 7c 01 08
	40		 cmp	 QWORD PTR [rcx+rax+8], 64 ; 00000040H
  000b1	72 05		 jb	 SHORT $LN9@parse_opti
$LN10@parse_opti:

; 3442 :         )
; 3443 :             goto opt_error;

  000b3	e9 e1 00 00 00	 jmp	 $opt_error$14
$LN9@parse_opti:

; 3444 : 
; 3445 :         if (!pMOPT[i].isrange)

  000b8	48 63 44 24 30	 movsxd	 rax, DWORD PTR i$[rsp]
  000bd	48 6b c0 20	 imul	 rax, rax, 32		; 00000020H
  000c1	48 8b 4c 24 40	 mov	 rcx, QWORD PTR pMOPT$[rsp]
  000c6	0f b6 44 01 1c	 movzx	 eax, BYTE PTR [rcx+rax+28]
  000cb	85 c0		 test	 eax, eax
  000cd	75 47		 jne	 SHORT $LN11@parse_opti

; 3446 :         {
; 3447 :             cpu1 = (int) pMOPT[i].opt1;

  000cf	48 63 44 24 30	 movsxd	 rax, DWORD PTR i$[rsp]
  000d4	48 6b c0 20	 imul	 rax, rax, 32		; 00000020H
  000d8	48 8b 4c 24 40	 mov	 rcx, QWORD PTR pMOPT$[rsp]
  000dd	8b 04 01	 mov	 eax, DWORD PTR [rcx+rax]
  000e0	89 44 24 38	 mov	 DWORD PTR cpu1$[rsp], eax

; 3448 :             cpu_map |= CPU_BIT( cpu1 );

  000e4	8b 44 24 38	 mov	 eax, DWORD PTR cpu1$[rsp]
  000e8	b9 01 00 00 00	 mov	 ecx, 1
  000ed	48 89 4c 24 50	 mov	 QWORD PTR tv162[rsp], rcx
  000f2	0f b6 c8	 movzx	 ecx, al
  000f5	48 8b 44 24 50	 mov	 rax, QWORD PTR tv162[rsp]
  000fa	48 d3 e0	 shl	 rax, cl
  000fd	48 8b 0d 00 00
	00 00		 mov	 rcx, QWORD PTR cpu_map
  00104	48 0b c8	 or	 rcx, rax
  00107	48 8b c1	 mov	 rax, rcx
  0010a	48 89 05 00 00
	00 00		 mov	 QWORD PTR cpu_map, rax

; 3449 :             continue;

  00111	e9 54 ff ff ff	 jmp	 $LN2@parse_opti
$LN11@parse_opti:

; 3450 :         }
; 3451 : 
; 3452 :         cpu1 = (int) pMOPT[i].opt1;

  00116	48 63 44 24 30	 movsxd	 rax, DWORD PTR i$[rsp]
  0011b	48 6b c0 20	 imul	 rax, rax, 32		; 00000020H
  0011f	48 8b 4c 24 40	 mov	 rcx, QWORD PTR pMOPT$[rsp]
  00124	8b 04 01	 mov	 eax, DWORD PTR [rcx+rax]
  00127	89 44 24 38	 mov	 DWORD PTR cpu1$[rsp], eax

; 3453 :         cpu2 = (int) pMOPT[i].opt2;

  0012b	48 63 44 24 30	 movsxd	 rax, DWORD PTR i$[rsp]
  00130	48 6b c0 20	 imul	 rax, rax, 32		; 00000020H
  00134	48 8b 4c 24 40	 mov	 rcx, QWORD PTR pMOPT$[rsp]
  00139	8b 44 01 08	 mov	 eax, DWORD PTR [rcx+rax+8]
  0013d	89 44 24 4c	 mov	 DWORD PTR cpu2$[rsp], eax

; 3454 : 
; 3455 :         if (cpu1 > cpu2)

  00141	8b 44 24 4c	 mov	 eax, DWORD PTR cpu2$[rsp]
  00145	39 44 24 38	 cmp	 DWORD PTR cpu1$[rsp], eax
  00149	7e 02		 jle	 SHORT $LN12@parse_opti

; 3456 :             goto opt_error;

  0014b	eb 4c		 jmp	 SHORT $opt_error$14
$LN12@parse_opti:

; 3457 : 
; 3458 :         for (; cpu1 <= cpu2; ++cpu1)

  0014d	eb 0a		 jmp	 SHORT $LN7@parse_opti
$LN5@parse_opti:
  0014f	8b 44 24 38	 mov	 eax, DWORD PTR cpu1$[rsp]
  00153	ff c0		 inc	 eax
  00155	89 44 24 38	 mov	 DWORD PTR cpu1$[rsp], eax
$LN7@parse_opti:
  00159	8b 44 24 4c	 mov	 eax, DWORD PTR cpu2$[rsp]
  0015d	39 44 24 38	 cmp	 DWORD PTR cpu1$[rsp], eax
  00161	7f 2f		 jg	 SHORT $LN6@parse_opti

; 3459 :             cpu_map |= CPU_BIT( cpu1 );

  00163	8b 44 24 38	 mov	 eax, DWORD PTR cpu1$[rsp]
  00167	b9 01 00 00 00	 mov	 ecx, 1
  0016c	48 89 4c 24 58	 mov	 QWORD PTR tv173[rsp], rcx
  00171	0f b6 c8	 movzx	 ecx, al
  00174	48 8b 44 24 58	 mov	 rax, QWORD PTR tv173[rsp]
  00179	48 d3 e0	 shl	 rax, cl
  0017c	48 8b 0d 00 00
	00 00		 mov	 rcx, QWORD PTR cpu_map
  00183	48 0b c8	 or	 rcx, rax
  00186	48 8b c1	 mov	 rax, rcx
  00189	48 89 05 00 00
	00 00		 mov	 QWORD PTR cpu_map, rax
  00190	eb bd		 jmp	 SHORT $LN5@parse_opti
$LN6@parse_opti:

; 3460 :     }

  00192	e9 d3 fe ff ff	 jmp	 $LN2@parse_opti
$LN3@parse_opti:

; 3461 : 
; 3462 :     goto opt_return;

  00197	eb 0a		 jmp	 SHORT $opt_return$15
$opt_error$14:

; 3463 : 
; 3464 : opt_error:
; 3465 : 
; 3466 :     parse_option_error( optname );

  00199	48 8b 4c 24 70	 mov	 rcx, QWORD PTR optname$[rsp]
  0019e	e8 00 00 00 00	 call	 parse_option_error
$opt_return$15:

; 3467 : 
; 3468 : opt_return:
; 3469 : 
; 3470 :     free( pMOPT );

  001a3	48 8b 4c 24 40	 mov	 rcx, QWORD PTR pMOPT$[rsp]
  001a8	ff 15 00 00 00
	00		 call	 QWORD PTR __imp_free

; 3471 : }

  001ae	48 83 c4 68	 add	 rsp, 104		; 00000068H
  001b2	c3		 ret	 0
parse_option_cpu ENDP
_TEXT	ENDS
; Function compile flags: /Odtp
; File C:\papa\MyGit\hyperion-zvector\tfprint.c
_TEXT	SEGMENT
optname$ = 8
parse_option_info PROC

; 3228 : {

  00000	48 89 4c 24 08	 mov	 QWORD PTR [rsp+8], rcx
$LN4@parse_opti:

; 3229 :     UNREFERENCED( optname );

  00005	33 c0		 xor	 eax, eax
  00007	85 c0		 test	 eax, eax
  00009	75 fa		 jne	 SHORT $LN4@parse_opti

; 3230 :     info_only = true;

  0000b	c6 05 00 00 00
	00 01		 mov	 BYTE PTR info_only, 1

; 3231 : }

  00012	c3		 ret	 0
parse_option_info ENDP
_TEXT	ENDS
; Function compile flags: /Odtp
; File C:\papa\MyGit\hyperion-zvector\tfprint.c
_TEXT	SEGMENT
msglvl_cmd$ = 32
__$ArrayPad$ = 96
optname$ = 128
parse_option_msglvl PROC

; 3237 : {

  00000	48 89 4c 24 08	 mov	 QWORD PTR [rsp+8], rcx
  00005	48 83 ec 78	 sub	 rsp, 120		; 00000078H
  00009	48 8b 05 00 00
	00 00		 mov	 rax, QWORD PTR __security_cookie
  00010	48 33 c4	 xor	 rax, rsp
  00013	48 89 44 24 60	 mov	 QWORD PTR __$ArrayPad$[rsp], rax
$LN4@parse_opti:

; 3238 :     char msglvl_cmd[64];
; 3239 :     UNREFERENCED( optname );

  00018	33 c0		 xor	 eax, eax
  0001a	85 c0		 test	 eax, eax
  0001c	75 fa		 jne	 SHORT $LN4@parse_opti

; 3240 :     MSGBUF( msglvl_cmd, "msglvl %s", optarg );

  0001e	48 8b 05 00 00
	00 00		 mov	 rax, QWORD PTR __imp_optarg
  00025	4c 8b 08	 mov	 r9, QWORD PTR [rax]
  00028	4c 8d 05 00 00
	00 00		 lea	 r8, OFFSET FLAT:$SG161644
  0002f	ba 40 00 00 00	 mov	 edx, 64			; 00000040H
  00034	48 8d 4c 24 20	 lea	 rcx, QWORD PTR msglvl_cmd$[rsp]
  00039	ff 15 00 00 00
	00		 call	 QWORD PTR __imp_w32_snprintf

; 3241 :     if ((S64)the_real_panel_command( msglvl_cmd ) < 0)

  0003f	48 8d 4c 24 20	 lea	 rcx, QWORD PTR msglvl_cmd$[rsp]
  00044	ff 15 00 00 00
	00		 call	 QWORD PTR __imp_the_real_panel_command
  0004a	48 85 c0	 test	 rax, rax
  0004d	7d 0e		 jge	 SHORT $LN5@parse_opti

; 3242 :         arg_errs++;

  0004f	8b 05 00 00 00
	00		 mov	 eax, DWORD PTR arg_errs
  00055	ff c0		 inc	 eax
  00057	89 05 00 00 00
	00		 mov	 DWORD PTR arg_errs, eax
$LN5@parse_opti:

; 3243 : }

  0005d	48 8b 4c 24 60	 mov	 rcx, QWORD PTR __$ArrayPad$[rsp]
  00062	48 33 cc	 xor	 rcx, rsp
  00065	e8 00 00 00 00	 call	 __security_check_cookie
  0006a	48 83 c4 78	 add	 rsp, 120		; 00000078H
  0006e	c3		 ret	 0
parse_option_msglvl ENDP
_TEXT	ENDS
; Function compile flags: /Odtp
; File C:\papa\MyGit\hyperion-zvector\tfprint.c
_TEXT	SEGMENT
hasblanks$ = 48
i$ = 52
tv92 = 56
tv94 = 60
wrk$1 = 64
prefix$2 = 88
__$ArrayPad$ = 112
argc$ = 144
argv$ = 152
print_args PROC

; 2936 : {

  00000	48 89 54 24 10	 mov	 QWORD PTR [rsp+16], rdx
  00005	89 4c 24 08	 mov	 DWORD PTR [rsp+8], ecx
  00009	48 81 ec 88 00
	00 00		 sub	 rsp, 136		; 00000088H
  00010	48 8b 05 00 00
	00 00		 mov	 rax, QWORD PTR __security_cookie
  00017	48 33 c4	 xor	 rax, rsp
  0001a	48 89 44 24 70	 mov	 QWORD PTR __$ArrayPad$[rsp], rax

; 2937 :     // PROGRAMMING NOTE: I know of no other way to accomplish this!
; 2938 : 
; 2939 :     int i; bool hasblanks;
; 2940 : 
; 2941 :     printf( "\n" );

  0001f	48 8d 0d 00 00
	00 00		 lea	 rcx, OFFSET FLAT:$SG161426
  00026	e8 00 00 00 00	 call	 printf

; 2942 : 
; 2943 :     /* If debug mode, show filename and line number prefix
; 2944 :        the same way the logmsg.c "vfwritemsg" function does. */
; 2945 :     if (MLVL( DEBUG ))

  0002b	48 8b 05 00 00
	00 00		 mov	 rax, QWORD PTR __imp_sysblk
  00032	8b 80 80 75 01
	00		 mov	 eax, DWORD PTR [rax+95616]
  00038	25 00 00 00 40	 and	 eax, 1073741824		; 40000000H
  0003d	85 c0		 test	 eax, eax
  0003f	74 5c		 je	 SHORT $LN5@print_args

; 2946 :     {
; 2947 :         char wrk    [ MLVL_DEBUG_PFXLEN + 2 ];
; 2948 :         char prefix [ MLVL_DEBUG_PFXLEN + 2 ];
; 2949 : 
; 2950 :         MSGBUF( wrk, "%s(%d)", TRIMLOC( __FILE__ ), __LINE__ );

  00041	48 8d 0d 00 00
	00 00		 lea	 rcx, OFFSET FLAT:$SG161428
  00048	ff 15 00 00 00
	00		 call	 QWORD PTR __imp_trimloc
  0004e	c7 44 24 20 86
	0b 00 00	 mov	 DWORD PTR [rsp+32], 2950 ; 00000b86H
  00056	4c 8b c8	 mov	 r9, rax
  00059	4c 8d 05 00 00
	00 00		 lea	 r8, OFFSET FLAT:$SG161429
  00060	ba 13 00 00 00	 mov	 edx, 19
  00065	48 8d 4c 24 40	 lea	 rcx, QWORD PTR wrk$1[rsp]
  0006a	ff 15 00 00 00
	00		 call	 QWORD PTR __imp_w32_snprintf

; 2951 :         MSGBUF( prefix, MLVL_DEBUG_PFXFMT, wrk );

  00070	4c 8d 4c 24 40	 lea	 r9, QWORD PTR wrk$1[rsp]
  00075	4c 8d 05 00 00
	00 00		 lea	 r8, OFFSET FLAT:$SG161430
  0007c	ba 13 00 00 00	 mov	 edx, 19
  00081	48 8d 4c 24 58	 lea	 rcx, QWORD PTR prefix$2[rsp]
  00086	ff 15 00 00 00
	00		 call	 QWORD PTR __imp_w32_snprintf

; 2952 :         printf( "%s", prefix );

  0008c	48 8d 54 24 58	 lea	 rdx, QWORD PTR prefix$2[rsp]
  00091	48 8d 0d 00 00
	00 00		 lea	 rcx, OFFSET FLAT:$SG161431
  00098	e8 00 00 00 00	 call	 printf
$LN5@print_args:

; 2953 :     }
; 2954 : 
; 2955 :     // PROGRAMMING NOTE: we purposely do *NOT* try to print everything
; 2956 :     // into a buffer and then do one printf of that buffer since we do
; 2957 :     // not know how big that buffer should be. Some arguments could be
; 2958 :     // quite long! (Yeah, yeah, we COULD use malloc/realloc much like
; 2959 :     // BFR_VSNPRINTF does, but that would be overkill IMHO).
; 2960 : 
; 2961 :     // HHC03217 "Args: %s"
; 2962 :     printf( "HHC03217I Args:" );

  0009d	48 8d 0d 00 00
	00 00		 lea	 rcx, OFFSET FLAT:$SG161432
  000a4	e8 00 00 00 00	 call	 printf

; 2963 : 
; 2964 :     for (i=1; i < argc; ++i)

  000a9	c7 44 24 34 01
	00 00 00	 mov	 DWORD PTR i$[rsp], 1
  000b1	eb 0a		 jmp	 SHORT $LN4@print_args
$LN2@print_args:
  000b3	8b 44 24 34	 mov	 eax, DWORD PTR i$[rsp]
  000b7	ff c0		 inc	 eax
  000b9	89 44 24 34	 mov	 DWORD PTR i$[rsp], eax
$LN4@print_args:
  000bd	8b 84 24 90 00
	00 00		 mov	 eax, DWORD PTR argc$[rsp]
  000c4	39 44 24 34	 cmp	 DWORD PTR i$[rsp], eax
  000c8	0f 8d af 00 00
	00		 jge	 $LN3@print_args

; 2965 :     {
; 2966 :         printf( " " );  // (separate arguments with a blank)

  000ce	48 8d 0d 00 00
	00 00		 lea	 rcx, OFFSET FLAT:$SG161433
  000d5	e8 00 00 00 00	 call	 printf

; 2967 : 
; 2968 :         if ((hasblanks = strpbrk( argv[i], WHITESPACE ) ? true : false))

  000da	48 63 44 24 34	 movsxd	 rax, DWORD PTR i$[rsp]
  000df	48 8d 15 00 00
	00 00		 lea	 rdx, OFFSET FLAT:$SG161435
  000e6	48 8b 8c 24 98
	00 00 00	 mov	 rcx, QWORD PTR argv$[rsp]
  000ee	48 8b 0c c1	 mov	 rcx, QWORD PTR [rcx+rax*8]
  000f2	ff 15 00 00 00
	00		 call	 QWORD PTR __imp_strpbrk
  000f8	48 85 c0	 test	 rax, rax
  000fb	74 0a		 je	 SHORT $LN9@print_args
  000fd	c7 44 24 38 01
	00 00 00	 mov	 DWORD PTR tv92[rsp], 1
  00105	eb 08		 jmp	 SHORT $LN10@print_args
$LN9@print_args:
  00107	c7 44 24 38 00
	00 00 00	 mov	 DWORD PTR tv92[rsp], 0
$LN10@print_args:
  0010f	83 7c 24 38 00	 cmp	 DWORD PTR tv92[rsp], 0
  00114	75 0a		 jne	 SHORT $LN11@print_args
  00116	c7 44 24 3c 00
	00 00 00	 mov	 DWORD PTR tv94[rsp], 0
  0011e	eb 08		 jmp	 SHORT $LN12@print_args
$LN11@print_args:
  00120	c7 44 24 3c 01
	00 00 00	 mov	 DWORD PTR tv94[rsp], 1
$LN12@print_args:
  00128	0f b6 44 24 3c	 movzx	 eax, BYTE PTR tv94[rsp]
  0012d	88 44 24 30	 mov	 BYTE PTR hasblanks$[rsp], al
  00131	0f b6 44 24 30	 movzx	 eax, BYTE PTR hasblanks$[rsp]
  00136	85 c0		 test	 eax, eax
  00138	74 0c		 je	 SHORT $LN6@print_args

; 2969 :             printf( "\"" ); // (enclose within quotes if needed)

  0013a	48 8d 0d 00 00
	00 00		 lea	 rcx, OFFSET FLAT:$SG161436
  00141	e8 00 00 00 00	 call	 printf
$LN6@print_args:

; 2970 : 
; 2971 :         printf( "%s", argv[i] );  // (the argument, as-is)

  00146	48 63 44 24 34	 movsxd	 rax, DWORD PTR i$[rsp]
  0014b	48 8b 8c 24 98
	00 00 00	 mov	 rcx, QWORD PTR argv$[rsp]
  00153	48 8b 14 c1	 mov	 rdx, QWORD PTR [rcx+rax*8]
  00157	48 8d 0d 00 00
	00 00		 lea	 rcx, OFFSET FLAT:$SG161437
  0015e	e8 00 00 00 00	 call	 printf

; 2972 : 
; 2973 :         if (hasblanks)

  00163	0f b6 44 24 30	 movzx	 eax, BYTE PTR hasblanks$[rsp]
  00168	85 c0		 test	 eax, eax
  0016a	74 0c		 je	 SHORT $LN7@print_args

; 2974 :             printf( "\"" );

  0016c	48 8d 0d 00 00
	00 00		 lea	 rcx, OFFSET FLAT:$SG161439
  00173	e8 00 00 00 00	 call	 printf
$LN7@print_args:

; 2975 :     }

  00178	e9 36 ff ff ff	 jmp	 $LN2@print_args
$LN3@print_args:

; 2976 : 
; 2977 :     printf( "\n\n" );

  0017d	48 8d 0d 00 00
	00 00		 lea	 rcx, OFFSET FLAT:$SG161440
  00184	e8 00 00 00 00	 call	 printf

; 2978 : }

  00189	48 8b 4c 24 70	 mov	 rcx, QWORD PTR __$ArrayPad$[rsp]
  0018e	48 33 cc	 xor	 rcx, rsp
  00191	e8 00 00 00 00	 call	 __security_check_cookie
  00196	48 81 c4 88 00
	00 00		 add	 rsp, 136		; 00000088H
  0019d	c3		 ret	 0
print_args ENDP
_TEXT	ENDS
; Function compile flags: /Odtp
; File C:\papa\MyGit\hyperion-zvector\tfprint.c
_TEXT	SEGMENT
hdr$ = 80
tv335 = 88
was_bigend$ = 92
sys$ = 96
bytes_read$ = 104
tv77 = 112
tv79 = 116
tv88 = 120
tv90 = 124
tv246 = 128
tv766 = 132
tv768 = 136
tv198 = 140
tv702 = 144
tv132 = 152
tv297 = 160
inscnt$1 = 168
tiocnt$2 = 200
__$ArrayPad$ = 232
argc$ = 256
argv$ = 264
main	PROC

; 2671 : {

$LN268:
  00000	48 89 54 24 10	 mov	 QWORD PTR [rsp+16], rdx
  00005	89 4c 24 08	 mov	 DWORD PTR [rsp+8], ecx
  00009	57		 push	 rdi
  0000a	48 81 ec f0 00
	00 00		 sub	 rsp, 240		; 000000f0H
  00011	48 8b 05 00 00
	00 00		 mov	 rax, QWORD PTR __security_cookie
  00018	48 33 c4	 xor	 rax, rsp
  0001b	48 89 84 24 e8
	00 00 00	 mov	 QWORD PTR __$ArrayPad$[rsp], rax

; 2672 :     TFSYS*  sys         = NULL;     /* Ptr to SYSTEM record          */

  00023	48 c7 44 24 60
	00 00 00 00	 mov	 QWORD PTR sys$[rsp], 0

; 2673 :     TFHDR*  hdr         = NULL;     /* Ptr to record header          */

  0002c	48 c7 44 24 50
	00 00 00 00	 mov	 QWORD PTR hdr$[rsp], 0

; 2674 :     size_t  bytes_read  = 0;        /* Number of BYTES read          */

  00035	48 c7 44 24 68
	00 00 00 00	 mov	 QWORD PTR bytes_read$[rsp], 0

; 2675 :     bool    was_bigend  = false;    /* Endianness of TFSYS record    */

  0003e	c6 44 24 5c 00	 mov	 BYTE PTR was_bigend$[rsp], 0

; 2676 : 
; 2677 :     INITIALIZE_UTILITY( UTILITY_NAME, UTILITY_DESC, &pgm );

  00043	48 8d 05 00 00
	00 00		 lea	 rax, OFFSET FLAT:pgm
  0004a	48 89 44 24 20	 mov	 QWORD PTR [rsp+32], rax
  0004f	4c 8d 0d 00 00
	00 00		 lea	 r9, OFFSET FLAT:$SG161198
  00056	4c 8d 05 00 00
	00 00		 lea	 r8, OFFSET FLAT:$SG161199
  0005d	48 8b 94 24 08
	01 00 00	 mov	 rdx, QWORD PTR argv$[rsp]
  00065	8b 8c 24 00 01
	00 00		 mov	 ecx, DWORD PTR argc$[rsp]
  0006c	ff 15 00 00 00
	00		 call	 QWORD PTR __imp_initialize_utility
  00072	89 84 24 00 01
	00 00		 mov	 DWORD PTR argc$[rsp], eax

; 2678 : 
; 2679 :     /* Save for later */
; 2680 :     out_istty = isatty( fileno( stdout )) ? true : false;

  00079	b9 01 00 00 00	 mov	 ecx, 1
  0007e	ff 15 00 00 00
	00		 call	 QWORD PTR __imp___acrt_iob_func
  00084	48 8b c8	 mov	 rcx, rax
  00087	ff 15 00 00 00
	00		 call	 QWORD PTR __imp_fileno
  0008d	8b c8		 mov	 ecx, eax
  0008f	ff 15 00 00 00
	00		 call	 QWORD PTR __imp_isatty
  00095	85 c0		 test	 eax, eax
  00097	74 0a		 je	 SHORT $LN171@main
  00099	c7 44 24 70 01
	00 00 00	 mov	 DWORD PTR tv77[rsp], 1
  000a1	eb 08		 jmp	 SHORT $LN172@main
$LN171@main:
  000a3	c7 44 24 70 00
	00 00 00	 mov	 DWORD PTR tv77[rsp], 0
$LN172@main:
  000ab	83 7c 24 70 00	 cmp	 DWORD PTR tv77[rsp], 0
  000b0	75 0a		 jne	 SHORT $LN173@main
  000b2	c7 44 24 74 00
	00 00 00	 mov	 DWORD PTR tv79[rsp], 0
  000ba	eb 08		 jmp	 SHORT $LN174@main
$LN173@main:
  000bc	c7 44 24 74 01
	00 00 00	 mov	 DWORD PTR tv79[rsp], 1
$LN174@main:
  000c4	0f b6 44 24 74	 movzx	 eax, BYTE PTR tv79[rsp]
  000c9	88 05 00 00 00
	00		 mov	 BYTE PTR out_istty, al

; 2681 :     err_istty = isatty( fileno( stderr )) ? true : false;

  000cf	b9 02 00 00 00	 mov	 ecx, 2
  000d4	ff 15 00 00 00
	00		 call	 QWORD PTR __imp___acrt_iob_func
  000da	48 8b c8	 mov	 rcx, rax
  000dd	ff 15 00 00 00
	00		 call	 QWORD PTR __imp_fileno
  000e3	8b c8		 mov	 ecx, eax
  000e5	ff 15 00 00 00
	00		 call	 QWORD PTR __imp_isatty
  000eb	85 c0		 test	 eax, eax
  000ed	74 0a		 je	 SHORT $LN175@main
  000ef	c7 44 24 78 01
	00 00 00	 mov	 DWORD PTR tv88[rsp], 1
  000f7	eb 08		 jmp	 SHORT $LN176@main
$LN175@main:
  000f9	c7 44 24 78 00
	00 00 00	 mov	 DWORD PTR tv88[rsp], 0
$LN176@main:
  00101	83 7c 24 78 00	 cmp	 DWORD PTR tv88[rsp], 0
  00106	75 0a		 jne	 SHORT $LN177@main
  00108	c7 44 24 7c 00
	00 00 00	 mov	 DWORD PTR tv90[rsp], 0
  00110	eb 08		 jmp	 SHORT $LN178@main
$LN177@main:
  00112	c7 44 24 7c 01
	00 00 00	 mov	 DWORD PTR tv90[rsp], 1
$LN178@main:
  0011a	0f b6 44 24 7c	 movzx	 eax, BYTE PTR tv90[rsp]
  0011f	88 05 00 00 00
	00		 mov	 BYTE PTR err_istty, al

; 2682 : 
; 2683 :     /* Process command-line arguments. Show help and exit if errors. */
; 2684 :     process_args( argc, argv );

  00125	48 8b 94 24 08
	01 00 00	 mov	 rdx, QWORD PTR argv$[rsp]
  0012d	8b 8c 24 00 01
	00 00		 mov	 ecx, DWORD PTR argc$[rsp]
  00134	e8 00 00 00 00	 call	 process_args

; 2685 : 
; 2686 :     /* Read Trace File TFSYS record */
; 2687 :     if ((bytes_read = fread( iobuff, 1, sizeof( TFSYS ), inf )) != sizeof( TFSYS ))

  00139	4c 8b 0d 00 00
	00 00		 mov	 r9, QWORD PTR inf
  00140	41 b8 f0 00 00
	00		 mov	 r8d, 240		; 000000f0H
  00146	ba 01 00 00 00	 mov	 edx, 1
  0014b	48 8d 0d 00 00
	00 00		 lea	 rcx, OFFSET FLAT:iobuff
  00152	ff 15 00 00 00
	00		 call	 QWORD PTR __imp_fread
  00158	48 89 44 24 68	 mov	 QWORD PTR bytes_read$[rsp], rax
  0015d	48 81 7c 24 68
	f0 00 00 00	 cmp	 QWORD PTR bytes_read$[rsp], 240 ; 000000f0H
  00166	74 75		 je	 SHORT $LN6@main

; 2688 :     {
; 2689 :         // "Error reading trace file: %s"
; 2690 :         FWRMSG( stderr, HHC03206, "E", strerror( errno ));

  00168	ff 15 00 00 00
	00		 call	 QWORD PTR __imp__errno
  0016e	8b 08		 mov	 ecx, DWORD PTR [rax]
  00170	ff 15 00 00 00
	00		 call	 QWORD PTR __imp_w32_strerror
  00176	48 89 84 24 98
	00 00 00	 mov	 QWORD PTR tv132[rsp], rax
  0017e	b9 02 00 00 00	 mov	 ecx, 2
  00183	ff 15 00 00 00
	00		 call	 QWORD PTR __imp___acrt_iob_func
  00189	48 8b 8c 24 98
	00 00 00	 mov	 rcx, QWORD PTR tv132[rsp]
  00191	48 89 4c 24 38	 mov	 QWORD PTR [rsp+56], rcx
  00196	48 8d 0d 00 00
	00 00		 lea	 rcx, OFFSET FLAT:$SG161201
  0019d	48 89 4c 24 30	 mov	 QWORD PTR [rsp+48], rcx
  001a2	48 8d 0d 00 00
	00 00		 lea	 rcx, OFFSET FLAT:$SG161202
  001a9	48 89 4c 24 28	 mov	 QWORD PTR [rsp+40], rcx
  001ae	48 89 44 24 20	 mov	 QWORD PTR [rsp+32], rax
  001b3	41 b9 03 00 00
	00		 mov	 r9d, 3
  001b9	4c 8d 05 00 00
	00 00		 lea	 r8, OFFSET FLAT:$SG161203
  001c0	ba 82 0a 00 00	 mov	 edx, 2690		; 00000a82H
  001c5	48 8d 0d 00 00
	00 00		 lea	 rcx, OFFSET FLAT:$SG161204
  001cc	ff 15 00 00 00
	00		 call	 QWORD PTR __imp_fwritemsg

; 2691 :         exit( -1 );

  001d2	b9 ff ff ff ff	 mov	 ecx, -1
  001d7	ff 15 00 00 00
	00		 call	 QWORD PTR __imp_exit
$LN6@main:

; 2692 :     }
; 2693 : 
; 2694 :     if (bytes_read < sizeof( TFSYS ))

  001dd	48 81 7c 24 68
	f0 00 00 00	 cmp	 QWORD PTR bytes_read$[rsp], 240 ; 000000f0H
  001e6	73 5e		 jae	 SHORT $LN7@main

; 2695 :     {
; 2696 :         // "Truncated %s record; aborting"
; 2697 :         FWRMSG( stderr, HHC03207, "E", "TFSYS" );

  001e8	b9 02 00 00 00	 mov	 ecx, 2
  001ed	ff 15 00 00 00
	00		 call	 QWORD PTR __imp___acrt_iob_func
  001f3	48 8d 0d 00 00
	00 00		 lea	 rcx, OFFSET FLAT:$SG161206
  001fa	48 89 4c 24 38	 mov	 QWORD PTR [rsp+56], rcx
  001ff	48 8d 0d 00 00
	00 00		 lea	 rcx, OFFSET FLAT:$SG161207
  00206	48 89 4c 24 30	 mov	 QWORD PTR [rsp+48], rcx
  0020b	48 8d 0d 00 00
	00 00		 lea	 rcx, OFFSET FLAT:$SG161208
  00212	48 89 4c 24 28	 mov	 QWORD PTR [rsp+40], rcx
  00217	48 89 44 24 20	 mov	 QWORD PTR [rsp+32], rax
  0021c	41 b9 03 00 00
	00		 mov	 r9d, 3
  00222	4c 8d 05 00 00
	00 00		 lea	 r8, OFFSET FLAT:$SG161209
  00229	ba 89 0a 00 00	 mov	 edx, 2697		; 00000a89H
  0022e	48 8d 0d 00 00
	00 00		 lea	 rcx, OFFSET FLAT:$SG161210
  00235	ff 15 00 00 00
	00		 call	 QWORD PTR __imp_fwritemsg

; 2698 :         exit( -1 );

  0023b	b9 ff ff ff ff	 mov	 ecx, -1
  00240	ff 15 00 00 00
	00		 call	 QWORD PTR __imp_exit
$LN7@main:

; 2699 :     }
; 2700 : 
; 2701 :     /* Point to the TFSYS record we just read */
; 2702 :     sys = (TFSYS*) iobuff;

  00246	48 8d 05 00 00
	00 00		 lea	 rax, OFFSET FLAT:iobuff
  0024d	48 89 44 24 60	 mov	 QWORD PTR sys$[rsp], rax

; 2703 : 
; 2704 :     /* Check the TFSYS record for compatibility */
; 2705 :     if (0
; 2706 :         || sys->ffmt[0] != '%'
; 2707 :         || sys->ffmt[1] != 'T'
; 2708 :         || sys->ffmt[2] != 'F'

  00252	33 c0		 xor	 eax, eax
  00254	85 c0		 test	 eax, eax
  00256	75 45		 jne	 SHORT $LN9@main
  00258	b8 01 00 00 00	 mov	 eax, 1
  0025d	48 6b c0 00	 imul	 rax, rax, 0
  00261	48 8b 4c 24 60	 mov	 rcx, QWORD PTR sys$[rsp]
  00266	0f be 04 01	 movsx	 eax, BYTE PTR [rcx+rax]
  0026a	83 f8 25	 cmp	 eax, 37			; 00000025H
  0026d	75 2e		 jne	 SHORT $LN9@main
  0026f	b8 01 00 00 00	 mov	 eax, 1
  00274	48 6b c0 01	 imul	 rax, rax, 1
  00278	48 8b 4c 24 60	 mov	 rcx, QWORD PTR sys$[rsp]
  0027d	0f be 04 01	 movsx	 eax, BYTE PTR [rcx+rax]
  00281	83 f8 54	 cmp	 eax, 84			; 00000054H
  00284	75 17		 jne	 SHORT $LN9@main
  00286	b8 01 00 00 00	 mov	 eax, 1
  0028b	48 6b c0 02	 imul	 rax, rax, 2
  0028f	48 8b 4c 24 60	 mov	 rcx, QWORD PTR sys$[rsp]
  00294	0f be 04 01	 movsx	 eax, BYTE PTR [rcx+rax]
  00298	83 f8 46	 cmp	 eax, 70			; 00000046H
  0029b	74 52		 je	 SHORT $LN8@main
$LN9@main:

; 2709 :     )
; 2710 :     {
; 2711 :         // "File does not start with TFSYS record; aborting"
; 2712 :         FWRMSG( stderr, HHC03212, "E" );

  0029d	b9 02 00 00 00	 mov	 ecx, 2
  002a2	ff 15 00 00 00
	00		 call	 QWORD PTR __imp___acrt_iob_func
  002a8	48 8d 0d 00 00
	00 00		 lea	 rcx, OFFSET FLAT:$SG161213
  002af	48 89 4c 24 30	 mov	 QWORD PTR [rsp+48], rcx
  002b4	48 8d 0d 00 00
	00 00		 lea	 rcx, OFFSET FLAT:$SG161214
  002bb	48 89 4c 24 28	 mov	 QWORD PTR [rsp+40], rcx
  002c0	48 89 44 24 20	 mov	 QWORD PTR [rsp+32], rax
  002c5	41 b9 03 00 00
	00		 mov	 r9d, 3
  002cb	4c 8d 05 00 00
	00 00		 lea	 r8, OFFSET FLAT:$SG161215
  002d2	ba 98 0a 00 00	 mov	 edx, 2712		; 00000a98H
  002d7	48 8d 0d 00 00
	00 00		 lea	 rcx, OFFSET FLAT:$SG161216
  002de	ff 15 00 00 00
	00		 call	 QWORD PTR __imp_fwritemsg

; 2713 :         exit( -1 );

  002e4	b9 ff ff ff ff	 mov	 ecx, -1
  002e9	ff 15 00 00 00
	00		 call	 QWORD PTR __imp_exit
$LN8@main:

; 2714 :     }
; 2715 : 
; 2716 :     if (0
; 2717 :         || sys->ffmt[3] < '0'
; 2718 :         || sys->ffmt[3] > TF_FMT

  002ef	33 c0		 xor	 eax, eax
  002f1	85 c0		 test	 eax, eax
  002f3	75 2e		 jne	 SHORT $LN11@main
  002f5	b8 01 00 00 00	 mov	 eax, 1
  002fa	48 6b c0 03	 imul	 rax, rax, 3
  002fe	48 8b 4c 24 60	 mov	 rcx, QWORD PTR sys$[rsp]
  00303	0f be 04 01	 movsx	 eax, BYTE PTR [rcx+rax]
  00307	83 f8 30	 cmp	 eax, 48			; 00000030H
  0030a	7c 17		 jl	 SHORT $LN11@main
  0030c	b8 01 00 00 00	 mov	 eax, 1
  00311	48 6b c0 03	 imul	 rax, rax, 3
  00315	48 8b 4c 24 60	 mov	 rcx, QWORD PTR sys$[rsp]
  0031a	0f be 04 01	 movsx	 eax, BYTE PTR [rcx+rax]
  0031e	83 f8 30	 cmp	 eax, 48			; 00000030H
  00321	7e 76		 jle	 SHORT $LN10@main
$LN11@main:

; 2719 :     )
; 2720 :     {
; 2721 :         // "Unsupported Trace File format: %%TF%c"
; 2722 :         FWRMSG( stderr, HHC03213, "E", sys->ffmt[3] );

  00323	b8 01 00 00 00	 mov	 eax, 1
  00328	48 6b c0 03	 imul	 rax, rax, 3
  0032c	48 8b 4c 24 60	 mov	 rcx, QWORD PTR sys$[rsp]
  00331	0f be 04 01	 movsx	 eax, BYTE PTR [rcx+rax]
  00335	89 84 24 8c 00
	00 00		 mov	 DWORD PTR tv198[rsp], eax
  0033c	b9 02 00 00 00	 mov	 ecx, 2
  00341	ff 15 00 00 00
	00		 call	 QWORD PTR __imp___acrt_iob_func
  00347	8b 8c 24 8c 00
	00 00		 mov	 ecx, DWORD PTR tv198[rsp]
  0034e	89 4c 24 38	 mov	 DWORD PTR [rsp+56], ecx
  00352	48 8d 0d 00 00
	00 00		 lea	 rcx, OFFSET FLAT:$SG161219
  00359	48 89 4c 24 30	 mov	 QWORD PTR [rsp+48], rcx
  0035e	48 8d 0d 00 00
	00 00		 lea	 rcx, OFFSET FLAT:$SG161220
  00365	48 89 4c 24 28	 mov	 QWORD PTR [rsp+40], rcx
  0036a	48 89 44 24 20	 mov	 QWORD PTR [rsp+32], rax
  0036f	41 b9 03 00 00
	00		 mov	 r9d, 3
  00375	4c 8d 05 00 00
	00 00		 lea	 r8, OFFSET FLAT:$SG161221
  0037c	ba a2 0a 00 00	 mov	 edx, 2722		; 00000aa2H
  00381	48 8d 0d 00 00
	00 00		 lea	 rcx, OFFSET FLAT:$SG161222
  00388	ff 15 00 00 00
	00		 call	 QWORD PTR __imp_fwritemsg

; 2723 :         exit( -1 );

  0038e	b9 ff ff ff ff	 mov	 ecx, -1
  00393	ff 15 00 00 00
	00		 call	 QWORD PTR __imp_exit
$LN10@main:

; 2724 :     }
; 2725 : 
; 2726 :     if (sys->engs > MAX_CPU_ENGS)

  00399	48 8b 44 24 60	 mov	 rax, QWORD PTR sys$[rsp]
  0039e	0f b6 40 05	 movzx	 eax, BYTE PTR [rax+5]
  003a2	83 f8 40	 cmp	 eax, 64			; 00000040H
  003a5	7e 52		 jle	 SHORT $LN12@main

; 2727 :     {
; 2728 :         // "Incompatible MAX_CPU_ENGS"
; 2729 :         FWRMSG( stderr, HHC03210, "E" );

  003a7	b9 02 00 00 00	 mov	 ecx, 2
  003ac	ff 15 00 00 00
	00		 call	 QWORD PTR __imp___acrt_iob_func
  003b2	48 8d 0d 00 00
	00 00		 lea	 rcx, OFFSET FLAT:$SG161224
  003b9	48 89 4c 24 30	 mov	 QWORD PTR [rsp+48], rcx
  003be	48 8d 0d 00 00
	00 00		 lea	 rcx, OFFSET FLAT:$SG161225
  003c5	48 89 4c 24 28	 mov	 QWORD PTR [rsp+40], rcx
  003ca	48 89 44 24 20	 mov	 QWORD PTR [rsp+32], rax
  003cf	41 b9 03 00 00
	00		 mov	 r9d, 3
  003d5	4c 8d 05 00 00
	00 00		 lea	 r8, OFFSET FLAT:$SG161226
  003dc	ba a9 0a 00 00	 mov	 edx, 2729		; 00000aa9H
  003e1	48 8d 0d 00 00
	00 00		 lea	 rcx, OFFSET FLAT:$SG161227
  003e8	ff 15 00 00 00
	00		 call	 QWORD PTR __imp_fwritemsg

; 2730 :         exit( -1 );

  003ee	b9 ff ff ff ff	 mov	 ecx, -1
  003f3	ff 15 00 00 00
	00		 call	 QWORD PTR __imp_exit
$LN12@main:

; 2731 :     }
; 2732 : 
; 2733 :     if (0
; 2734 :         || sys->archnum0 != _ARCH_NUM_0
; 2735 :         || sys->archnum1 != _ARCH_NUM_1
; 2736 :         || sys->archnum2 != _ARCH_NUM_2

  003f9	33 c0		 xor	 eax, eax
  003fb	85 c0		 test	 eax, eax
  003fd	75 30		 jne	 SHORT $LN14@main
  003ff	48 8b 44 24 60	 mov	 rax, QWORD PTR sys$[rsp]
  00404	0f b7 40 06	 movzx	 eax, WORD PTR [rax+6]
  00408	3d 72 01 00 00	 cmp	 eax, 370		; 00000172H
  0040d	75 20		 jne	 SHORT $LN14@main
  0040f	48 8b 44 24 60	 mov	 rax, QWORD PTR sys$[rsp]
  00414	0f b7 40 08	 movzx	 eax, WORD PTR [rax+8]
  00418	3d 86 01 00 00	 cmp	 eax, 390		; 00000186H
  0041d	75 10		 jne	 SHORT $LN14@main
  0041f	48 8b 44 24 60	 mov	 rax, QWORD PTR sys$[rsp]
  00424	0f b7 40 0a	 movzx	 eax, WORD PTR [rax+10]
  00428	3d 84 03 00 00	 cmp	 eax, 900		; 00000384H
  0042d	74 52		 je	 SHORT $LN13@main
$LN14@main:

; 2737 :     )
; 2738 :     {
; 2739 :         // "Incompatible Hercules build architectures"
; 2740 :         FWRMSG( stderr, HHC03216, "E" );

  0042f	b9 02 00 00 00	 mov	 ecx, 2
  00434	ff 15 00 00 00
	00		 call	 QWORD PTR __imp___acrt_iob_func
  0043a	48 8d 0d 00 00
	00 00		 lea	 rcx, OFFSET FLAT:$SG161230
  00441	48 89 4c 24 30	 mov	 QWORD PTR [rsp+48], rcx
  00446	48 8d 0d 00 00
	00 00		 lea	 rcx, OFFSET FLAT:$SG161231
  0044d	48 89 4c 24 28	 mov	 QWORD PTR [rsp+40], rcx
  00452	48 89 44 24 20	 mov	 QWORD PTR [rsp+32], rax
  00457	41 b9 03 00 00
	00		 mov	 r9d, 3
  0045d	4c 8d 05 00 00
	00 00		 lea	 r8, OFFSET FLAT:$SG161232
  00464	ba b4 0a 00 00	 mov	 edx, 2740		; 00000ab4H
  00469	48 8d 0d 00 00
	00 00		 lea	 rcx, OFFSET FLAT:$SG161233
  00470	ff 15 00 00 00
	00		 call	 QWORD PTR __imp_fwritemsg

; 2741 :         exit( -1 );

  00476	b9 ff ff ff ff	 mov	 ecx, -1
  0047b	ff 15 00 00 00
	00		 call	 QWORD PTR __imp_exit
$LN13@main:

; 2742 :     }
; 2743 : 
; 2744 :     /* Save actual endianness of the file */
; 2745 :     was_bigend = sys->bigend;

  00481	48 8b 44 24 60	 mov	 rax, QWORD PTR sys$[rsp]
  00486	0f b6 40 04	 movzx	 eax, BYTE PTR [rax+4]
  0048a	85 c0		 test	 eax, eax
  0048c	75 0d		 jne	 SHORT $LN179@main
  0048e	c7 84 24 80 00
	00 00 00 00 00
	00		 mov	 DWORD PTR tv246[rsp], 0
  00499	eb 0b		 jmp	 SHORT $LN180@main
$LN179@main:
  0049b	c7 84 24 80 00
	00 00 01 00 00
	00		 mov	 DWORD PTR tv246[rsp], 1
$LN180@main:
  004a6	0f b6 84 24 80
	00 00 00	 movzx	 eax, BYTE PTR tv246[rsp]
  004ae	88 44 24 5c	 mov	 BYTE PTR was_bigend$[rsp], al

; 2746 : 
; 2747 :     /* Swap endianness of TFSYS record, if needed */
; 2748 :     if ((doendswap = tf_are_swaps_needed( sys )))

  004b2	48 8b 4c 24 60	 mov	 rcx, QWORD PTR sys$[rsp]
  004b7	ff 15 00 00 00
	00		 call	 QWORD PTR __imp_tf_are_swaps_needed
  004bd	88 05 00 00 00
	00		 mov	 BYTE PTR doendswap, al
  004c3	0f b6 05 00 00
	00 00		 movzx	 eax, BYTE PTR doendswap
  004ca	85 c0		 test	 eax, eax
  004cc	74 0b		 je	 SHORT $LN15@main

; 2749 :         tf_swap_sys( sys );

  004ce	48 8b 4c 24 60	 mov	 rcx, QWORD PTR sys$[rsp]
  004d3	ff 15 00 00 00
	00		 call	 QWORD PTR __imp_tf_swap_sys
$LN15@main:

; 2750 : 
; 2751 :     /* Print TFSYS record information */
; 2752 :     print_TFSYS( sys, was_bigend );

  004d9	0f b6 54 24 5c	 movzx	 edx, BYTE PTR was_bigend$[rsp]
  004de	48 8b 4c 24 60	 mov	 rcx, QWORD PTR sys$[rsp]
  004e3	e8 00 00 00 00	 call	 print_TFSYS

; 2753 : 
; 2754 :     if (info_only)

  004e8	0f b6 05 00 00
	00 00		 movzx	 eax, BYTE PTR info_only
  004ef	85 c0		 test	 eax, eax
  004f1	74 05		 je	 SHORT $LN16@main

; 2755 :         goto done;

  004f3	e9 27 0d 00 00	 jmp	 $done$269
$LN16@main:

; 2756 : 
; 2757 :     /* Now read and process trace file records until EOF is reached */
; 2758 :     hdr = (TFHDR*) iobuff;

  004f8	48 8d 05 00 00
	00 00		 lea	 rax, OFFSET FLAT:iobuff
  004ff	48 89 44 24 50	 mov	 QWORD PTR hdr$[rsp], rax
$LN260@main:
$LN259@main:
$LN258@main:
$LN257@main:
$LN256@main:
$LN255@main:
$LN254@main:
$LN253@main:
$LN252@main:
$LN251@main:
$LN250@main:
$LN249@main:
$LN248@main:
$LN247@main:
$LN246@main:
$LN245@main:
$LN244@main:
$LN243@main:
$LN242@main:
$LN241@main:
$LN240@main:
$LN239@main:
$LN238@main:
$LN237@main:
$LN236@main:
$LN235@main:
$LN234@main:
$LN233@main:
$LN232@main:
$LN231@main:
$LN230@main:
$LN229@main:
$LN228@main:
$LN227@main:
$LN226@main:
$LN225@main:
$LN224@main:
$LN223@main:
$LN222@main:
$LN221@main:
$LN220@main:
$LN219@main:
$LN218@main:
$LN217@main:
$LN216@main:
$LN215@main:
$LN214@main:
$LN213@main:
$LN212@main:
$LN211@main:
$LN210@main:
$LN209@main:
$LN208@main:
$LN207@main:
$LN206@main:
$LN205@main:
$LN204@main:
$LN203@main:
$LN202@main:
$LN201@main:
$LN200@main:
$LN199@main:
$LN198@main:
$LN197@main:
$LN196@main:
$LN195@main:
$LN194@main:
$LN193@main:
$LN192@main:
$LN191@main:
$LN190@main:
$LN189@main:
$LN188@main:
$LN2@main:

; 2759 :     while (recnum < torec)

  00504	48 8b 05 00 00
	00 00		 mov	 rax, QWORD PTR torec
  0050b	48 39 05 00 00
	00 00		 cmp	 QWORD PTR recnum, rax
  00512	0f 83 e4 0b 00
	00		 jae	 $LN3@main

; 2760 :     {
; 2761 :         /* Read just TFHDR for now, so we can identify record */
; 2762 :         if ((bytes_read = fread( hdr, 1, sizeof( TFHDR ), inf )) != sizeof( TFHDR ))

  00518	4c 8b 0d 00 00
	00 00		 mov	 r9, QWORD PTR inf
  0051f	41 b8 18 00 00
	00		 mov	 r8d, 24
  00525	ba 01 00 00 00	 mov	 edx, 1
  0052a	48 8b 4c 24 50	 mov	 rcx, QWORD PTR hdr$[rsp]
  0052f	ff 15 00 00 00
	00		 call	 QWORD PTR __imp_fread
  00535	48 89 44 24 68	 mov	 QWORD PTR bytes_read$[rsp], rax
  0053a	48 83 7c 24 68
	18		 cmp	 QWORD PTR bytes_read$[rsp], 24
  00540	0f 84 82 00 00
	00		 je	 $LN17@main

; 2763 :         {
; 2764 :             /* Stop when EOF reached */
; 2765 :             if (!bytes_read)

  00546	48 83 7c 24 68
	00		 cmp	 QWORD PTR bytes_read$[rsp], 0
  0054c	75 05		 jne	 SHORT $LN18@main

; 2766 :                 break;

  0054e	e9 a9 0b 00 00	 jmp	 $LN3@main
$LN18@main:

; 2767 : 
; 2768 :             // "Error reading trace file: %s"
; 2769 :             FWRMSG( stderr, HHC03206, "E", strerror( errno ));

  00553	ff 15 00 00 00
	00		 call	 QWORD PTR __imp__errno
  00559	8b 08		 mov	 ecx, DWORD PTR [rax]
  0055b	ff 15 00 00 00
	00		 call	 QWORD PTR __imp_w32_strerror
  00561	48 89 84 24 a0
	00 00 00	 mov	 QWORD PTR tv297[rsp], rax
  00569	b9 02 00 00 00	 mov	 ecx, 2
  0056e	ff 15 00 00 00
	00		 call	 QWORD PTR __imp___acrt_iob_func
  00574	48 8b 8c 24 a0
	00 00 00	 mov	 rcx, QWORD PTR tv297[rsp]
  0057c	48 89 4c 24 38	 mov	 QWORD PTR [rsp+56], rcx
  00581	48 8d 0d 00 00
	00 00		 lea	 rcx, OFFSET FLAT:$SG161238
  00588	48 89 4c 24 30	 mov	 QWORD PTR [rsp+48], rcx
  0058d	48 8d 0d 00 00
	00 00		 lea	 rcx, OFFSET FLAT:$SG161239
  00594	48 89 4c 24 28	 mov	 QWORD PTR [rsp+40], rcx
  00599	48 89 44 24 20	 mov	 QWORD PTR [rsp+32], rax
  0059e	41 b9 03 00 00
	00		 mov	 r9d, 3
  005a4	4c 8d 05 00 00
	00 00		 lea	 r8, OFFSET FLAT:$SG161240
  005ab	ba d1 0a 00 00	 mov	 edx, 2769		; 00000ad1H
  005b0	48 8d 0d 00 00
	00 00		 lea	 rcx, OFFSET FLAT:$SG161241
  005b7	ff 15 00 00 00
	00		 call	 QWORD PTR __imp_fwritemsg

; 2770 :             exit( -1 );

  005bd	b9 ff ff ff ff	 mov	 ecx, -1
  005c2	ff 15 00 00 00
	00		 call	 QWORD PTR __imp_exit
$LN17@main:

; 2771 :         }
; 2772 : 
; 2773 :         /* Count records read and show progress */
; 2774 :         if (!(++recnum % 3000))

  005c8	48 8b 05 00 00
	00 00		 mov	 rax, QWORD PTR recnum
  005cf	48 ff c0	 inc	 rax
  005d2	48 89 05 00 00
	00 00		 mov	 QWORD PTR recnum, rax
  005d9	33 d2		 xor	 edx, edx
  005db	48 8b 05 00 00
	00 00		 mov	 rax, QWORD PTR recnum
  005e2	b9 b8 0b 00 00	 mov	 ecx, 3000		; 00000bb8H
  005e7	48 f7 f1	 div	 rcx
  005ea	48 8b c2	 mov	 rax, rdx
  005ed	48 85 c0	 test	 rax, rax
  005f0	75 05		 jne	 SHORT $LN19@main

; 2775 :             show_file_progress();

  005f2	e8 00 00 00 00	 call	 show_file_progress
$LN19@main:

; 2776 : 
; 2777 :         /* Make sure we have a complete header to work with */
; 2778 :         if (bytes_read < sizeof( TFHDR ))

  005f7	48 83 7c 24 68
	18		 cmp	 QWORD PTR bytes_read$[rsp], 24
  005fd	73 5e		 jae	 SHORT $LN20@main

; 2779 :         {
; 2780 :             // "Truncated %s record; aborting"
; 2781 :             FWRMSG( stderr, HHC03207, "E", "TFHDR" );

  005ff	b9 02 00 00 00	 mov	 ecx, 2
  00604	ff 15 00 00 00
	00		 call	 QWORD PTR __imp___acrt_iob_func
  0060a	48 8d 0d 00 00
	00 00		 lea	 rcx, OFFSET FLAT:$SG161244
  00611	48 89 4c 24 38	 mov	 QWORD PTR [rsp+56], rcx
  00616	48 8d 0d 00 00
	00 00		 lea	 rcx, OFFSET FLAT:$SG161245
  0061d	48 89 4c 24 30	 mov	 QWORD PTR [rsp+48], rcx
  00622	48 8d 0d 00 00
	00 00		 lea	 rcx, OFFSET FLAT:$SG161246
  00629	48 89 4c 24 28	 mov	 QWORD PTR [rsp+40], rcx
  0062e	48 89 44 24 20	 mov	 QWORD PTR [rsp+32], rax
  00633	41 b9 03 00 00
	00		 mov	 r9d, 3
  00639	4c 8d 05 00 00
	00 00		 lea	 r8, OFFSET FLAT:$SG161247
  00640	ba dd 0a 00 00	 mov	 edx, 2781		; 00000addH
  00645	48 8d 0d 00 00
	00 00		 lea	 rcx, OFFSET FLAT:$SG161248
  0064c	ff 15 00 00 00
	00		 call	 QWORD PTR __imp_fwritemsg

; 2782 :             exit( -1 );

  00652	b9 ff ff ff ff	 mov	 ecx, -1
  00657	ff 15 00 00 00
	00		 call	 QWORD PTR __imp_exit
$LN20@main:

; 2783 :         }
; 2784 : 
; 2785 :         /* Swap endianness of header, if needed */
; 2786 :         if (doendswap)

  0065d	0f b6 05 00 00
	00 00		 movzx	 eax, BYTE PTR doendswap
  00664	85 c0		 test	 eax, eax
  00666	74 0b		 je	 SHORT $LN21@main

; 2787 :             tf_swap_hdr( hdr );

  00668	48 8b 4c 24 50	 mov	 rcx, QWORD PTR hdr$[rsp]
  0066d	ff 15 00 00 00
	00		 call	 QWORD PTR __imp_tf_swap_hdr
$LN21@main:

; 2788 : 
; 2789 :         /* Fix the 'cpuad' if this is a device trace record */
; 2790 :         if (hdr->cpuad == 0xFFFF)

  00673	48 8b 44 24 50	 mov	 rax, QWORD PTR hdr$[rsp]
  00678	0f b7 40 04	 movzx	 eax, WORD PTR [rax+4]
  0067c	3d ff ff 00 00	 cmp	 eax, 65535		; 0000ffffH
  00681	75 0e		 jne	 SHORT $LN22@main

; 2791 :             hdr->cpuad = MAX_CPU_ENGS;

  00683	b8 40 00 00 00	 mov	 eax, 64			; 00000040H
  00688	48 8b 4c 24 50	 mov	 rcx, QWORD PTR hdr$[rsp]
  0068d	66 89 41 04	 mov	 WORD PTR [rcx+4], ax
$LN22@main:

; 2792 : 
; 2793 :         /* Switch based on header's message number */
; 2794 :         switch (hdr->msgnum)

  00691	48 8b 44 24 50	 mov	 rax, QWORD PTR hdr$[rsp]
  00696	0f b7 40 06	 movzx	 eax, WORD PTR [rax+6]
  0069a	89 44 24 58	 mov	 DWORD PTR tv335[rsp], eax
  0069e	81 7c 24 58 20
	03 00 00	 cmp	 DWORD PTR tv335[rsp], 800 ; 00000320H
  006a6	7f 46		 jg	 SHORT $LN181@main
  006a8	81 7c 24 58 20
	03 00 00	 cmp	 DWORD PTR tv335[rsp], 800 ; 00000320H
  006b0	0f 84 08 01 00
	00		 je	 $LN23@main
  006b6	8b 44 24 58	 mov	 eax, DWORD PTR tv335[rsp]
  006ba	2d a7 01 00 00	 sub	 eax, 423		; 000001a7H
  006bf	89 44 24 58	 mov	 DWORD PTR tv335[rsp], eax
  006c3	83 7c 24 58 61	 cmp	 DWORD PTR tv335[rsp], 97 ; 00000061H
  006c8	0f 87 c7 09 00
	00		 ja	 $LN169@main
  006ce	48 63 44 24 58	 movsxd	 rax, DWORD PTR tv335[rsp]
  006d3	48 8d 0d 00 00
	00 00		 lea	 rcx, OFFSET FLAT:__ImageBase
  006da	0f b6 84 01 00
	00 00 00	 movzx	 eax, BYTE PTR $LN266@main[rcx+rax]
  006e2	8b 84 81 00 00
	00 00		 mov	 eax, DWORD PTR $LN267@main[rcx+rax*4]
  006e9	48 03 c1	 add	 rax, rcx
  006ec	ff e0		 jmp	 rax
$LN181@main:
  006ee	81 7c 24 58 14
	05 00 00	 cmp	 DWORD PTR tv335[rsp], 1300 ; 00000514H
  006f6	7f 46		 jg	 SHORT $LN182@main
  006f8	81 7c 24 58 14
	05 00 00	 cmp	 DWORD PTR tv335[rsp], 1300 ; 00000514H
  00700	0f 84 88 06 00
	00		 je	 $LN119@main
  00706	8b 44 24 58	 mov	 eax, DWORD PTR tv335[rsp]
  0070a	2d 21 03 00 00	 sub	 eax, 801		; 00000321H
  0070f	89 44 24 58	 mov	 DWORD PTR tv335[rsp], eax
  00713	83 7c 24 58 2d	 cmp	 DWORD PTR tv335[rsp], 45 ; 0000002dH
  00718	0f 87 77 09 00
	00		 ja	 $LN169@main
  0071e	48 63 44 24 58	 movsxd	 rax, DWORD PTR tv335[rsp]
  00723	48 8d 0d 00 00
	00 00		 lea	 rcx, OFFSET FLAT:__ImageBase
  0072a	0f b6 84 01 00
	00 00 00	 movzx	 eax, BYTE PTR $LN264@main[rcx+rax]
  00732	8b 84 81 00 00
	00 00		 mov	 eax, DWORD PTR $LN265@main[rcx+rax*4]
  00739	48 03 c1	 add	 rax, rcx
  0073c	ff e0		 jmp	 rax
$LN182@main:
  0073e	81 7c 24 58 dd
	08 00 00	 cmp	 DWORD PTR tv335[rsp], 2269 ; 000008ddH
  00746	7f 3e		 jg	 SHORT $LN183@main
  00748	81 7c 24 58 dd
	08 00 00	 cmp	 DWORD PTR tv335[rsp], 2269 ; 000008ddH
  00750	0f 84 58 02 00
	00		 je	 $LN55@main
  00756	8b 44 24 58	 mov	 eax, DWORD PTR tv335[rsp]
  0075a	2d 15 05 00 00	 sub	 eax, 1301		; 00000515H
  0075f	89 44 24 58	 mov	 DWORD PTR tv335[rsp], eax
  00763	83 7c 24 58 23	 cmp	 DWORD PTR tv335[rsp], 35 ; 00000023H
  00768	0f 87 27 09 00
	00		 ja	 $LN169@main
  0076e	48 63 44 24 58	 movsxd	 rax, DWORD PTR tv335[rsp]
  00773	48 8d 0d 00 00
	00 00		 lea	 rcx, OFFSET FLAT:__ImageBase
  0077a	8b 84 81 00 00
	00 00		 mov	 eax, DWORD PTR $LN263@main[rcx+rax*4]
  00781	48 03 c1	 add	 rax, rcx
  00784	ff e0		 jmp	 rax
$LN183@main:
  00786	8b 44 24 58	 mov	 eax, DWORD PTR tv335[rsp]
  0078a	2d de 08 00 00	 sub	 eax, 2270		; 000008deH
  0078f	89 44 24 58	 mov	 DWORD PTR tv335[rsp], eax
  00793	83 7c 24 58 38	 cmp	 DWORD PTR tv335[rsp], 56 ; 00000038H
  00798	0f 87 f7 08 00
	00		 ja	 $LN169@main
  0079e	48 63 44 24 58	 movsxd	 rax, DWORD PTR tv335[rsp]
  007a3	48 8d 0d 00 00
	00 00		 lea	 rcx, OFFSET FLAT:__ImageBase
  007aa	0f b6 84 01 00
	00 00 00	 movzx	 eax, BYTE PTR $LN261@main[rcx+rax]
  007b2	8b 84 81 00 00
	00 00		 mov	 eax, DWORD PTR $LN262@main[rcx+rax*4]
  007b9	48 03 c1	 add	 rax, rcx
  007bc	ff e0		 jmp	 rax
$LN23@main:

; 2795 :         {
; 2796 : 
; 2797 : #define CASE_FOR_MSGNUM( _num )                                       \
; 2798 :                                                                       \
; 2799 :         case _num:                                                    \
; 2800 :         {                                                             \
; 2801 :             if (finish_reading_rec( _num ))                           \
; 2802 :                 process_TF0  ## _num( (TF0 ## _num*) hdr );           \
; 2803 :             continue;                                                 \
; 2804 :         }
; 2805 : 
; 2806 : #define CASE_FOR_MSGNUM0( _num )                                      \
; 2807 :                                                                       \
; 2808 :         /* (same as above except "TF00" instead of "TF0") */          \
; 2809 :         case _num:                                                    \
; 2810 :         {                                                             \
; 2811 :             if (finish_reading_rec( _num ))                           \
; 2812 :                 process_TF00 ## _num( (TF00 ## _num*) hdr );          \
; 2813 :             continue;                                                 \
; 2814 :         }
; 2815 : 
; 2816 :         // Instruction tracing...
; 2817 : 
; 2818 :         CASE_FOR_MSGNUM0( 800 ); // Wait State PSW

  007be	66 b9 20 03	 mov	 cx, 800			; 00000320H
  007c2	e8 00 00 00 00	 call	 finish_reading_rec
  007c7	0f b6 c0	 movzx	 eax, al
  007ca	85 c0		 test	 eax, eax
  007cc	74 0a		 je	 SHORT $LN24@main
  007ce	48 8b 4c 24 50	 mov	 rcx, QWORD PTR hdr$[rsp]
  007d3	e8 00 00 00 00	 call	 process_TF00800
$LN24@main:
  007d8	e9 27 fd ff ff	 jmp	 $LN2@main
$LN25@main:

; 2819 :         CASE_FOR_MSGNUM0( 801 ); // Program Interrupt

  007dd	66 b9 21 03	 mov	 cx, 801			; 00000321H
  007e1	e8 00 00 00 00	 call	 finish_reading_rec
  007e6	0f b6 c0	 movzx	 eax, al
  007e9	85 c0		 test	 eax, eax
  007eb	74 0a		 je	 SHORT $LN26@main
  007ed	48 8b 4c 24 50	 mov	 rcx, QWORD PTR hdr$[rsp]
  007f2	e8 00 00 00 00	 call	 process_TF00801
$LN26@main:
  007f7	e9 08 fd ff ff	 jmp	 $LN188@main
$LN27@main:

; 2820 :         CASE_FOR_MSGNUM0( 802 ); // PER event

  007fc	66 b9 22 03	 mov	 cx, 802			; 00000322H
  00800	e8 00 00 00 00	 call	 finish_reading_rec
  00805	0f b6 c0	 movzx	 eax, al
  00808	85 c0		 test	 eax, eax
  0080a	74 0a		 je	 SHORT $LN28@main
  0080c	48 8b 4c 24 50	 mov	 rcx, QWORD PTR hdr$[rsp]
  00811	e8 00 00 00 00	 call	 process_TF00802
$LN28@main:
  00816	e9 e9 fc ff ff	 jmp	 $LN189@main
$LN29@main:

; 2821 :         CASE_FOR_MSGNUM0( 803 ); // Program interrupt loop

  0081b	66 b9 23 03	 mov	 cx, 803			; 00000323H
  0081f	e8 00 00 00 00	 call	 finish_reading_rec
  00824	0f b6 c0	 movzx	 eax, al
  00827	85 c0		 test	 eax, eax
  00829	74 0a		 je	 SHORT $LN30@main
  0082b	48 8b 4c 24 50	 mov	 rcx, QWORD PTR hdr$[rsp]
  00830	e8 00 00 00 00	 call	 process_TF00803
$LN30@main:
  00835	e9 ca fc ff ff	 jmp	 $LN190@main
$LN31@main:

; 2822 :         CASE_FOR_MSGNUM0( 804 ); // I/O interrupt (S/370)

  0083a	66 b9 24 03	 mov	 cx, 804			; 00000324H
  0083e	e8 00 00 00 00	 call	 finish_reading_rec
  00843	0f b6 c0	 movzx	 eax, al
  00846	85 c0		 test	 eax, eax
  00848	74 0a		 je	 SHORT $LN32@main
  0084a	48 8b 4c 24 50	 mov	 rcx, QWORD PTR hdr$[rsp]
  0084f	e8 00 00 00 00	 call	 process_TF00804
$LN32@main:
  00854	e9 ab fc ff ff	 jmp	 $LN191@main
$LN33@main:

; 2823 :         CASE_FOR_MSGNUM0( 806 ); // I/O Interrupt

  00859	66 b9 26 03	 mov	 cx, 806			; 00000326H
  0085d	e8 00 00 00 00	 call	 finish_reading_rec
  00862	0f b6 c0	 movzx	 eax, al
  00865	85 c0		 test	 eax, eax
  00867	74 0a		 je	 SHORT $LN34@main
  00869	48 8b 4c 24 50	 mov	 rcx, QWORD PTR hdr$[rsp]
  0086e	e8 00 00 00 00	 call	 process_TF00806
$LN34@main:
  00873	e9 8c fc ff ff	 jmp	 $LN192@main
$LN35@main:

; 2824 :         CASE_FOR_MSGNUM0( 807 ); // Machine Check Interrupt

  00878	66 b9 27 03	 mov	 cx, 807			; 00000327H
  0087c	e8 00 00 00 00	 call	 finish_reading_rec
  00881	0f b6 c0	 movzx	 eax, al
  00884	85 c0		 test	 eax, eax
  00886	74 0a		 je	 SHORT $LN36@main
  00888	48 8b 4c 24 50	 mov	 rcx, QWORD PTR hdr$[rsp]
  0088d	e8 00 00 00 00	 call	 process_TF00807
$LN36@main:
  00892	e9 6d fc ff ff	 jmp	 $LN193@main
$LN37@main:

; 2825 :         CASE_FOR_MSGNUM0( 808 ); // Store Status

  00897	66 b9 28 03	 mov	 cx, 808			; 00000328H
  0089b	e8 00 00 00 00	 call	 finish_reading_rec
  008a0	0f b6 c0	 movzx	 eax, al
  008a3	85 c0		 test	 eax, eax
  008a5	74 0a		 je	 SHORT $LN38@main
  008a7	48 8b 4c 24 50	 mov	 rcx, QWORD PTR hdr$[rsp]
  008ac	e8 00 00 00 00	 call	 process_TF00808
$LN38@main:
  008b1	e9 4e fc ff ff	 jmp	 $LN194@main
$LN39@main:

; 2826 :         CASE_FOR_MSGNUM0( 809 ); // Disabled Wait State

  008b6	66 b9 29 03	 mov	 cx, 809			; 00000329H
  008ba	e8 00 00 00 00	 call	 finish_reading_rec
  008bf	0f b6 c0	 movzx	 eax, al
  008c2	85 c0		 test	 eax, eax
  008c4	74 0a		 je	 SHORT $LN40@main
  008c6	48 8b 4c 24 50	 mov	 rcx, QWORD PTR hdr$[rsp]
  008cb	e8 00 00 00 00	 call	 process_TF00809
$LN40@main:
  008d0	e9 2f fc ff ff	 jmp	 $LN195@main
$LN41@main:

; 2827 :         CASE_FOR_MSGNUM0( 811 ); // Architecture mode

  008d5	66 b9 2b 03	 mov	 cx, 811			; 0000032bH
  008d9	e8 00 00 00 00	 call	 finish_reading_rec
  008de	0f b6 c0	 movzx	 eax, al
  008e1	85 c0		 test	 eax, eax
  008e3	74 0a		 je	 SHORT $LN42@main
  008e5	48 8b 4c 24 50	 mov	 rcx, QWORD PTR hdr$[rsp]
  008ea	e8 00 00 00 00	 call	 process_TF00811
$LN42@main:
  008ef	e9 10 fc ff ff	 jmp	 $LN196@main
$LN43@main:

; 2828 :         CASE_FOR_MSGNUM0( 812 ); // Vector facility online (370/390)

  008f4	66 b9 2c 03	 mov	 cx, 812			; 0000032cH
  008f8	e8 00 00 00 00	 call	 finish_reading_rec
  008fd	0f b6 c0	 movzx	 eax, al
  00900	85 c0		 test	 eax, eax
  00902	74 0a		 je	 SHORT $LN44@main
  00904	48 8b 4c 24 50	 mov	 rcx, QWORD PTR hdr$[rsp]
  00909	e8 00 00 00 00	 call	 process_TF00812
$LN44@main:
  0090e	e9 f1 fb ff ff	 jmp	 $LN197@main
$LN45@main:

; 2829 :         CASE_FOR_MSGNUM0( 814 ); // Signal Processor

  00913	66 b9 2e 03	 mov	 cx, 814			; 0000032eH
  00917	e8 00 00 00 00	 call	 finish_reading_rec
  0091c	0f b6 c0	 movzx	 eax, al
  0091f	85 c0		 test	 eax, eax
  00921	74 0a		 je	 SHORT $LN46@main
  00923	48 8b 4c 24 50	 mov	 rcx, QWORD PTR hdr$[rsp]
  00928	e8 00 00 00 00	 call	 process_TF00814
$LN46@main:
  0092d	e9 d2 fb ff ff	 jmp	 $LN198@main
$LN47@main:

; 2830 :         CASE_FOR_MSGNUM0( 840 ); // External Interrupt

  00932	66 b9 48 03	 mov	 cx, 840			; 00000348H
  00936	e8 00 00 00 00	 call	 finish_reading_rec
  0093b	0f b6 c0	 movzx	 eax, al
  0093e	85 c0		 test	 eax, eax
  00940	74 0a		 je	 SHORT $LN48@main
  00942	48 8b 4c 24 50	 mov	 rcx, QWORD PTR hdr$[rsp]
  00947	e8 00 00 00 00	 call	 process_TF00840
$LN48@main:
  0094c	e9 b3 fb ff ff	 jmp	 $LN199@main
$LN49@main:

; 2831 :         CASE_FOR_MSGNUM0( 844 ); // Block I/O Interrupt

  00951	66 b9 4c 03	 mov	 cx, 844			; 0000034cH
  00955	e8 00 00 00 00	 call	 finish_reading_rec
  0095a	0f b6 c0	 movzx	 eax, al
  0095d	85 c0		 test	 eax, eax
  0095f	74 0a		 je	 SHORT $LN50@main
  00961	48 8b 4c 24 50	 mov	 rcx, QWORD PTR hdr$[rsp]
  00966	e8 00 00 00 00	 call	 process_TF00844
$LN50@main:
  0096b	e9 94 fb ff ff	 jmp	 $LN200@main
$LN51@main:

; 2832 :         CASE_FOR_MSGNUM0( 845 ); // Block I/O External interrupt

  00970	66 b9 4d 03	 mov	 cx, 845			; 0000034dH
  00974	e8 00 00 00 00	 call	 finish_reading_rec
  00979	0f b6 c0	 movzx	 eax, al
  0097c	85 c0		 test	 eax, eax
  0097e	74 0a		 je	 SHORT $LN52@main
  00980	48 8b 4c 24 50	 mov	 rcx, QWORD PTR hdr$[rsp]
  00985	e8 00 00 00 00	 call	 process_TF00845
$LN52@main:
  0098a	e9 75 fb ff ff	 jmp	 $LN201@main
$LN53@main:

; 2833 :         CASE_FOR_MSGNUM0( 846 ); // Service Signal External Interrupt

  0098f	66 b9 4e 03	 mov	 cx, 846			; 0000034eH
  00993	e8 00 00 00 00	 call	 finish_reading_rec
  00998	0f b6 c0	 movzx	 eax, al
  0099b	85 c0		 test	 eax, eax
  0099d	74 0a		 je	 SHORT $LN54@main
  0099f	48 8b 4c 24 50	 mov	 rcx, QWORD PTR hdr$[rsp]
  009a4	e8 00 00 00 00	 call	 process_TF00846
$LN54@main:
  009a9	e9 56 fb ff ff	 jmp	 $LN202@main
$LN55@main:

; 2834 : 
; 2835 :         CASE_FOR_MSGNUM( 2269 ); // General Registers

  009ae	66 b9 dd 08	 mov	 cx, 2269		; 000008ddH
  009b2	e8 00 00 00 00	 call	 finish_reading_rec
  009b7	0f b6 c0	 movzx	 eax, al
  009ba	85 c0		 test	 eax, eax
  009bc	74 0a		 je	 SHORT $LN56@main
  009be	48 8b 4c 24 50	 mov	 rcx, QWORD PTR hdr$[rsp]
  009c3	e8 00 00 00 00	 call	 process_TF02269
$LN56@main:
  009c8	e9 37 fb ff ff	 jmp	 $LN203@main
$LN57@main:

; 2836 :         CASE_FOR_MSGNUM( 2270 ); // Floating Point Registers

  009cd	66 b9 de 08	 mov	 cx, 2270		; 000008deH
  009d1	e8 00 00 00 00	 call	 finish_reading_rec
  009d6	0f b6 c0	 movzx	 eax, al
  009d9	85 c0		 test	 eax, eax
  009db	74 0a		 je	 SHORT $LN58@main
  009dd	48 8b 4c 24 50	 mov	 rcx, QWORD PTR hdr$[rsp]
  009e2	e8 00 00 00 00	 call	 process_TF02270
$LN58@main:
  009e7	e9 18 fb ff ff	 jmp	 $LN204@main
$LN59@main:

; 2837 :         CASE_FOR_MSGNUM( 2271 ); // Control Registers

  009ec	66 b9 df 08	 mov	 cx, 2271		; 000008dfH
  009f0	e8 00 00 00 00	 call	 finish_reading_rec
  009f5	0f b6 c0	 movzx	 eax, al
  009f8	85 c0		 test	 eax, eax
  009fa	74 0a		 je	 SHORT $LN60@main
  009fc	48 8b 4c 24 50	 mov	 rcx, QWORD PTR hdr$[rsp]
  00a01	e8 00 00 00 00	 call	 process_TF02271
$LN60@main:
  00a06	e9 f9 fa ff ff	 jmp	 $LN205@main
$LN61@main:

; 2838 :         CASE_FOR_MSGNUM( 2272 ); // Access Registers

  00a0b	66 b9 e0 08	 mov	 cx, 2272		; 000008e0H
  00a0f	e8 00 00 00 00	 call	 finish_reading_rec
  00a14	0f b6 c0	 movzx	 eax, al
  00a17	85 c0		 test	 eax, eax
  00a19	74 0a		 je	 SHORT $LN62@main
  00a1b	48 8b 4c 24 50	 mov	 rcx, QWORD PTR hdr$[rsp]
  00a20	e8 00 00 00 00	 call	 process_TF02272
$LN62@main:
  00a25	e9 da fa ff ff	 jmp	 $LN206@main
$LN63@main:

; 2839 :         CASE_FOR_MSGNUM( 2276 ); // Floating Point Control Register

  00a2a	66 b9 e4 08	 mov	 cx, 2276		; 000008e4H
  00a2e	e8 00 00 00 00	 call	 finish_reading_rec
  00a33	0f b6 c0	 movzx	 eax, al
  00a36	85 c0		 test	 eax, eax
  00a38	74 0a		 je	 SHORT $LN64@main
  00a3a	48 8b 4c 24 50	 mov	 rcx, QWORD PTR hdr$[rsp]
  00a3f	e8 00 00 00 00	 call	 process_TF02276
$LN64@main:
  00a44	e9 bb fa ff ff	 jmp	 $LN207@main
$LN65@main:

; 2840 :         CASE_FOR_MSGNUM( 2324 ); // Instruction Trace

  00a49	66 b9 14 09	 mov	 cx, 2324		; 00000914H
  00a4d	e8 00 00 00 00	 call	 finish_reading_rec
  00a52	0f b6 c0	 movzx	 eax, al
  00a55	85 c0		 test	 eax, eax
  00a57	74 0a		 je	 SHORT $LN66@main
  00a59	48 8b 4c 24 50	 mov	 rcx, QWORD PTR hdr$[rsp]
  00a5e	e8 00 00 00 00	 call	 process_TF02324
$LN66@main:
  00a63	e9 9c fa ff ff	 jmp	 $LN208@main
$LN67@main:

; 2841 :         CASE_FOR_MSGNUM( 2326 ); // Instruction Operands

  00a68	66 b9 16 09	 mov	 cx, 2326		; 00000916H
  00a6c	e8 00 00 00 00	 call	 finish_reading_rec
  00a71	0f b6 c0	 movzx	 eax, al
  00a74	85 c0		 test	 eax, eax
  00a76	74 0a		 je	 SHORT $LN68@main
  00a78	48 8b 4c 24 50	 mov	 rcx, QWORD PTR hdr$[rsp]
  00a7d	e8 00 00 00 00	 call	 process_TF02326
$LN68@main:
  00a82	e9 7d fa ff ff	 jmp	 $LN209@main
$LN69@main:

; 2842 : 
; 2843 :         // Device tracing ...
; 2844 : 
; 2845 :         CASE_FOR_MSGNUM0( 423 ); // Search key

  00a87	66 b9 a7 01	 mov	 cx, 423			; 000001a7H
  00a8b	e8 00 00 00 00	 call	 finish_reading_rec
  00a90	0f b6 c0	 movzx	 eax, al
  00a93	85 c0		 test	 eax, eax
  00a95	74 0a		 je	 SHORT $LN70@main
  00a97	48 8b 4c 24 50	 mov	 rcx, QWORD PTR hdr$[rsp]
  00a9c	e8 00 00 00 00	 call	 process_TF00423
$LN70@main:
  00aa1	e9 5e fa ff ff	 jmp	 $LN210@main
$LN71@main:

; 2846 :         CASE_FOR_MSGNUM0( 424 ); // Cur trk

  00aa6	66 b9 a8 01	 mov	 cx, 424			; 000001a8H
  00aaa	e8 00 00 00 00	 call	 finish_reading_rec
  00aaf	0f b6 c0	 movzx	 eax, al
  00ab2	85 c0		 test	 eax, eax
  00ab4	74 0a		 je	 SHORT $LN72@main
  00ab6	48 8b 4c 24 50	 mov	 rcx, QWORD PTR hdr$[rsp]
  00abb	e8 00 00 00 00	 call	 process_TF00424
$LN72@main:
  00ac0	e9 3f fa ff ff	 jmp	 $LN211@main
$LN73@main:

; 2847 :         CASE_FOR_MSGNUM0( 425 ); // Updating track

  00ac5	66 b9 a9 01	 mov	 cx, 425			; 000001a9H
  00ac9	e8 00 00 00 00	 call	 finish_reading_rec
  00ace	0f b6 c0	 movzx	 eax, al
  00ad1	85 c0		 test	 eax, eax
  00ad3	74 0a		 je	 SHORT $LN74@main
  00ad5	48 8b 4c 24 50	 mov	 rcx, QWORD PTR hdr$[rsp]
  00ada	e8 00 00 00 00	 call	 process_TF00425
$LN74@main:
  00adf	e9 20 fa ff ff	 jmp	 $LN212@main
$LN75@main:

; 2848 :         CASE_FOR_MSGNUM0( 426 ); // Cache hit

  00ae4	66 b9 aa 01	 mov	 cx, 426			; 000001aaH
  00ae8	e8 00 00 00 00	 call	 finish_reading_rec
  00aed	0f b6 c0	 movzx	 eax, al
  00af0	85 c0		 test	 eax, eax
  00af2	74 0a		 je	 SHORT $LN76@main
  00af4	48 8b 4c 24 50	 mov	 rcx, QWORD PTR hdr$[rsp]
  00af9	e8 00 00 00 00	 call	 process_TF00426
$LN76@main:
  00afe	e9 01 fa ff ff	 jmp	 $LN213@main
$LN77@main:

; 2849 :         CASE_FOR_MSGNUM0( 427 ); // Unavailable cache

  00b03	66 b9 ab 01	 mov	 cx, 427			; 000001abH
  00b07	e8 00 00 00 00	 call	 finish_reading_rec
  00b0c	0f b6 c0	 movzx	 eax, al
  00b0f	85 c0		 test	 eax, eax
  00b11	74 0a		 je	 SHORT $LN78@main
  00b13	48 8b 4c 24 50	 mov	 rcx, QWORD PTR hdr$[rsp]
  00b18	e8 00 00 00 00	 call	 process_TF00427
