; Listing generated by Microsoft (R) Optimizing Compiler Version 19.34.31937.0 

include listing.inc

INCLUDELIB MSVCRTD
INCLUDELIB OLDNAMES

_DATA	SEGMENT
$SG194080 DB	'TAC 0', 00H
	ORG $+2
$SG194081 DB	'(undefined Abort Code)', 00H
	ORG $+1
$SG194082 DB	'TAC 1', 00H
	ORG $+2
$SG194083 DB	'(undefined Abort Code)', 00H
	ORG $+1
$SG194084 DB	'TAC_EXT', 00H
$SG194085 DB	'External interruption', 00H
	ORG $+2
$SG194086 DB	'TAC 3', 00H
	ORG $+2
$SG194087 DB	'(undefined Abort Code)', 00H
	ORG $+1
$SG194088 DB	'TAC_UPGM', 00H
	ORG $+3
$SG194092 DB	'TAC_IO', 00H
	ORG $+1
$SG194510 DB	'z13', 00H
$SG194089 DB	'PGM Interruption (Unfiltered)', 00H
	ORG $+2
$SG194090 DB	'TAC_MCK', 00H
$SG194091 DB	'Machine-check Interruption', 00H
	ORG $+1
$SG194514 DB	'z14', 00H
$SG194093 DB	'I/O Interruption', 00H
	ORG $+3
$SG194114 DB	'TAC 17', 00H
	ORG $+1
$SG194518 DB	'z15', 00H
$SG194094 DB	'TAC_FETCH_OVF', 00H
	ORG $+2
$SG194095 DB	'Fetch overflow', 00H
	ORG $+1
$SG194096 DB	'TAC_STORE_OVF', 00H
	ORG $+2
$SG194097 DB	'Store overflow', 00H
	ORG $+1
$SG194098 DB	'TAC_FETCH_CNF', 00H
	ORG $+2
$SG194099 DB	'Fetch conflict', 00H
	ORG $+1
$SG194100 DB	'TAC_STORE_CNF', 00H
	ORG $+2
$SG194101 DB	'Store conflict', 00H
	ORG $+1
$SG194102 DB	'TAC_INSTR', 00H
	ORG $+2
$SG194116 DB	'TAC 18', 00H
	ORG $+1
$SG194522 DB	'z16', 00H
$SG194103 DB	'Restricted instruction', 00H
	ORG $+1
$SG194104 DB	'TAC_FPGM', 00H
	ORG $+3
$SG194516 DB	'z14ZR1', 00H
	ORG $+5
$SG194105 DB	'PGM Interruption (Filtered)', 00H
	ORG $+4
$SG194106 DB	'TAC_NESTING', 00H
	ORG $+4
$SG194107 DB	'Nesting Depth exceeded', 00H
	ORG $+1
$SG194108 DB	'TAC_FETCH_OTH', 00H
	ORG $+2
$SG194109 DB	'Cache (fetch related)', 00H
	ORG $+2
$SG194110 DB	'TAC_STORE_OTH', 00H
	ORG $+2
$SG194111 DB	'Cache (store related)', 00H
	ORG $+2
$SG194112 DB	'TAC_CACHE_OTH', 00H
	ORG $+2
$SG194113 DB	'Cache (other)', 00H
	ORG $+2
$SG194115 DB	'(undefined Abort Code)', 00H
	ORG $+1
$SG194117 DB	'(undefined Abort Code)', 00H
	ORG $+1
$SG194118 DB	'TAC_GUARDED', 00H
	ORG $+4
$SG194119 DB	'Guarded-Storage Event related', 00H
	ORG $+2
$SG194503 DB	'1090', 00H
	ORG $+3
$SG194504 DB	'zPDT', 00H
	ORG $+3
$SG194505 DB	'2827', 00H
	ORG $+3
$SG194506 DB	'EC12', 00H
	ORG $+3
$SG194507 DB	'2828', 00H
	ORG $+3
$SG194508 DB	'BC12', 00H
	ORG $+3
$SG194509 DB	'2964', 00H
	ORG $+3
$SG194511 DB	'2965', 00H
	ORG $+3
$SG194512 DB	'z13s', 00H
	ORG $+3
$SG194513 DB	'3906', 00H
	ORG $+3
$SG194515 DB	'3907', 00H
	ORG $+3
$SG194517 DB	'8561', 00H
	ORG $+3
$SG194519 DB	'8562', 00H
	ORG $+3
$SG194520 DB	'z15T02', 00H
	ORG $+1
$SG194521 DB	'3931', 00H
_DATA	ENDS
CONST	SEGMENT
CKD_ENDTRK DB	0ffH
	DB	0ffH
	DB	0ffH
	DB	0ffH
	DB	0ffH
	DB	0ffH
	DB	0ffH
	DB	0ffH
?racode@?BA@??z900_process_tbegin@@9@9 DB 07H		; `z900_process_tbegin'::`16'::racode
	DB	08H
	DB	09H
	DB	0aH
	DB	0bH
	DB	0dH
	DB	0eH
	DB	0fH
	DB	010H
	DB	0ffH
	ORG $+14
tac2cc	DD	03H
	DD	03H
	DD	02H
	DD	03H
	DD	03H
	DD	02H
	DD	02H
	DD	02H
	DD	02H
	DD	02H
	DD	02H
	DD	03H
	DD	03H
	DD	03H
	DD	02H
	DD	02H
	DD	02H
	DD	03H
	DD	03H
	DD	02H
?skp@?1??dump_cache@@9@9 DQ 0000000000000000H		; `dump_cache'::`2'::skp
?amt@?1??dump_cache@@9@9 DQ 0000000000000100H		; `dump_cache'::`2'::amt
?bpg@?1??dump_cache@@9@9 DQ 0000000000000004H		; `dump_cache'::`2'::bpg
?gpl@?1??dump_cache@@9@9 DQ 0000000000000004H		; `dump_cache'::`2'::gpl
?skp@?2??dump_tdb@@9@9 DQ 0000000000000000H		; `dump_tdb'::`3'::skp
?amt@?2??dump_tdb@@9@9 DQ 0000000000000100H		; `dump_tdb'::`3'::amt
?adr@?2??dump_tdb@@9@9 DQ 0000000000000000H		; `dump_tdb'::`3'::adr
?bpg@?2??dump_tdb@@9@9 DQ 0000000000000008H		; `dump_tdb'::`3'::bpg
?gpl@?2??dump_tdb@@9@9 DQ 0000000000000002H		; `dump_tdb'::`3'::gpl
	ORG $+8
txf_models DW	01090H
	ORG $+6
	DQ	FLAT:$SG194503
	DQ	FLAT:$SG194504
	DW	02827H
	ORG $+6
	DQ	FLAT:$SG194505
	DQ	FLAT:$SG194506
	DW	02828H
	ORG $+6
	DQ	FLAT:$SG194507
	DQ	FLAT:$SG194508
	DW	02964H
	ORG $+6
	DQ	FLAT:$SG194509
	DQ	FLAT:$SG194510
	DW	02965H
	ORG $+6
	DQ	FLAT:$SG194511
	DQ	FLAT:$SG194512
	DW	03906H
	ORG $+6
	DQ	FLAT:$SG194513
	DQ	FLAT:$SG194514
	DW	03907H
	ORG $+6
	DQ	FLAT:$SG194515
	DQ	FLAT:$SG194516
	DW	08561H
	ORG $+6
	DQ	FLAT:$SG194517
	DQ	FLAT:$SG194518
	DW	08562H
	ORG $+6
	DQ	FLAT:$SG194519
	DQ	FLAT:$SG194520
	DW	03931H
	ORG $+6
	DQ	FLAT:$SG194521
	DQ	FLAT:$SG194522
CONST	ENDS
PUBLIC	__local_stdio_printf_options
PUBLIC	_vsnprintf_s_l
PUBLIC	_vsnprintf_s
PUBLIC	fetch_hw_noswap
PUBLIC	store_hw_noswap
PUBLIC	fetch_fw_noswap
PUBLIC	store_fw_noswap
PUBLIC	fetch_dw_noswap
PUBLIC	store_dw_noswap
PUBLIC	tac2short
PUBLIC	tac2long
PUBLIC	dump_cache
PUBLIC	dump_tdb
PUBLIC	txf_why_str
PUBLIC	is_TXF_model
PUBLIC	defsym_TXF_models
PUBLIC	txf_model_warning
PUBLIC	txf_set_timerint
PUBLIC	txf_maddr_l
PUBLIC	s370_abort_transaction
PUBLIC	s390_abort_transaction
PUBLIC	z900_abort_transaction
PUBLIC	z900_txf_do_pi_filtering
PUBLIC	alloc_txfmap
PUBLIC	free_txfmap
PUBLIC	txf_abort_all
PUBLIC	_get_storekey_ptr
PUBLIC	_get_storekey1_ptr
PUBLIC	_get_storekey2_ptr
PUBLIC	z900_perform_processor_assist
PUBLIC	z900_transaction_begin_constrained
PUBLIC	z900_transaction_end
PUBLIC	z900_extract_transaction_nesting_depth
PUBLIC	z900_transaction_abort
PUBLIC	z900_nontransactional_store
PUBLIC	z900_transaction_begin
PUBLIC	z900__or_storage_key
PUBLIC	z900_or_4K_storage_key
PUBLIC	z900_or_storage_key
PUBLIC	z900_is_per3_event_suppressed
PUBLIC	z900_per3_zero
PUBLIC	z900_per3_zero_xcheck
PUBLIC	z900_per3_zero_xcheck2
PUBLIC	z900_maddr_l
PUBLIC	z900_vstore8_full
PUBLIC	z900_vstore8
PUBLIC	z900_validate_operand
PUBLIC	z900_reset_txf_aie
PUBLIC	z900_set_txf_aie
PUBLIC	z900_process_tbegin
EXTRN	__imp__errno:PROC
EXTRN	__imp_IsDebuggerPresent:PROC
EXTRN	__imp_OutputDebugStringA:PROC
EXTRN	__imp_free:PROC
EXTRN	__imp_malloc:PROC
EXTRN	__imp__aligned_free:PROC
EXTRN	__imp__aligned_malloc:PROC
EXTRN	_byteswap_ushort:PROC
EXTRN	_byteswap_ulong:PROC
EXTRN	_byteswap_uint64:PROC
EXTRN	__imp_rand:PROC
EXTRN	longjmp:PROC
EXTRN	__imp___acrt_iob_func:PROC
EXTRN	__imp___stdio_common_vsnprintf_s:PROC
EXTRN	__imp_hthread_obtain_lock:PROC
EXTRN	__imp_hthread_release_lock:PROC
EXTRN	__imp_hthread_signal_condition:PROC
EXTRN	__imp_hthread_broadcast_condition:PROC
EXTRN	__imp_hthread_wait_condition:PROC
EXTRN	__imp_hthread_create_thread:PROC
EXTRN	__imp_ptt_pthread_trace:PROC
EXTRN	__imp_set_symbol:PROC
EXTRN	__imp_strlcpy:PROC
EXTRN	__imp_trimloc:PROC
EXTRN	__imp_rtrim:PROC
EXTRN	__imp_idx_snprintf:PROC
EXTRN	__imp_ptyp2short:PROC
EXTRN	__imp_PIC2Name:PROC
EXTRN	__imp_w32_strerror:PROC
EXTRN	__imp_w32_snprintf:PROC
EXTRN	iprint_router_func:PROC
EXTRN	rubato_thread:PROC
EXTRN	copy_regs:PROC
EXTRN	z900_virt_to_real:PROC
EXTRN	z900_program_interrupt:PROC
EXTRN	__imp_fwritemsg:PROC
EXTRN	__imp_logmsg:PROC
EXTRN	z900_logical_to_main_l:PROC
EXTRN	__imp_hexdumpew:PROC
EXTRN	z900_fix_program_interrupt_PSW:PROC
EXTRN	z900_trace_program_interrupt:PROC
EXTRN	__GSHandlerCheck:PROC
EXTRN	__security_check_cookie:PROC
EXTRN	memcmp:PROC
EXTRN	__imp_pttclass:QWORD
EXTRN	__imp_sysblk:BYTE
EXTRN	__ImageBase:BYTE
EXTRN	__security_cookie:QWORD
_DATA	SEGMENT
COMM	?_OptionsStorage@?1??__local_stdio_printf_options@@9@9:QWORD							; `__local_stdio_printf_options'::`2'::_OptionsStorage
_DATA	ENDS
_BSS	SEGMENT
$SG192876 DB	01H DUP (?)
$SG192912 DB	01H DUP (?)
$SG192923 DB	01H DUP (?)
$SG192950 DB	01H DUP (?)
$SG193342 DB	01H DUP (?)
$SG193346 DB	01H DUP (?)
$SG193363 DB	01H DUP (?)
$SG193588 DB	01H DUP (?)
$SG193613 DB	01H DUP (?)
$SG193628 DB	01H DUP (?)
$SG193644 DB	01H DUP (?)
$SG193688 DB	01H DUP (?)
$SG194147 DB	01H DUP (?)
$SG194149 DB	01H DUP (?)
$SG194151 DB	01H DUP (?)
$SG194153 DB	01H DUP (?)
$SG194155 DB	01H DUP (?)
$SG194157 DB	01H DUP (?)
$SG194159 DB	01H DUP (?)
$SG194161 DB	01H DUP (?)
$SG194163 DB	01H DUP (?)
$SG194165 DB	01H DUP (?)
$SG194167 DB	01H DUP (?)
$SG194169 DB	01H DUP (?)
$SG194171 DB	01H DUP (?)
$SG194173 DB	01H DUP (?)
$SG194175 DB	01H DUP (?)
$SG194177 DB	01H DUP (?)
$SG194179 DB	01H DUP (?)
$SG194181 DB	01H DUP (?)
$SG194183 DB	01H DUP (?)
$SG194185 DB	01H DUP (?)
$SG194187 DB	01H DUP (?)
$SG194189 DB	01H DUP (?)
$SG194191 DB	01H DUP (?)
$SG194193 DB	01H DUP (?)
$SG194195 DB	01H DUP (?)
$SG194197 DB	01H DUP (?)
$SG194199 DB	01H DUP (?)
$SG194201 DB	01H DUP (?)
$SG194203 DB	01H DUP (?)
$SG194205 DB	01H DUP (?)
$SG194207 DB	01H DUP (?)
$SG194209 DB	01H DUP (?)
$SG194236 DB	01H DUP (?)
$SG194245 DB	01H DUP (?)
$SG194331 DB	01H DUP (?)
$SG194337 DB	01H DUP (?)
$SG194348 DB	01H DUP (?)
$SG194356 DB	01H DUP (?)
$SG194365 DB	01H DUP (?)
$SG194367 DB	01H DUP (?)
$SG194373 DB	01H DUP (?)
$SG194380 DB	01H DUP (?)
$SG194387 DB	01H DUP (?)
$SG194396 DB	01H DUP (?)
$SG194398 DB	01H DUP (?)
$SG194406 DB	01H DUP (?)
$SG194419 DB	01H DUP (?)
$SG194422 DB	01H DUP (?)
$SG194427 DB	01H DUP (?)
$SG194429 DB	01H DUP (?)
$SG194436 DB	01H DUP (?)
$SG194443 DB	01H DUP (?)
$SG194450 DB	01H DUP (?)
$SG194457 DB	01H DUP (?)
$SG194464 DB	01H DUP (?)
$SG194471 DB	01H DUP (?)
$SG194478 DB	01H DUP (?)
$SG194485 DB	01H DUP (?)
$SG194492 DB	01H DUP (?)
_BSS	ENDS
;	COMDAT pdata
pdata	SEGMENT
$pdata$_vsnprintf_s_l DD imagerel $LN5
	DD	imagerel $LN5+127
	DD	imagerel $unwind$_vsnprintf_s_l
pdata	ENDS
;	COMDAT pdata
pdata	SEGMENT
$pdata$_vsnprintf_s DD imagerel $LN3
	DD	imagerel $LN3+73
	DD	imagerel $unwind$_vsnprintf_s
pdata	ENDS
pdata	SEGMENT
$pdata$DebuggerTrace DD imagerel DebuggerTrace
	DD	imagerel DebuggerTrace+247
	DD	imagerel $unwind$DebuggerTrace
pdata	ENDS
;	COMDAT pdata
pdata	SEGMENT
$pdata$fetch_hw_noswap DD imagerel $LN3
	DD	imagerel $LN3+30
	DD	imagerel $unwind$fetch_hw_noswap
pdata	ENDS
;	COMDAT pdata
pdata	SEGMENT
$pdata$fetch_fw_noswap DD imagerel $LN3
	DD	imagerel $LN3+27
	DD	imagerel $unwind$fetch_fw_noswap
pdata	ENDS
;	COMDAT pdata
pdata	SEGMENT
$pdata$fetch_dw_noswap DD imagerel $LN3
	DD	imagerel $LN3+30
	DD	imagerel $unwind$fetch_dw_noswap
pdata	ENDS
pdata	SEGMENT
$pdata$tac2short DD imagerel $LN3
	DD	imagerel $LN3+26
	DD	imagerel $unwind$tac2short
$pdata$tac2long DD imagerel $LN3
	DD	imagerel $LN3+26
	DD	imagerel $unwind$tac2long
$pdata$dump_cache DD imagerel $LN9
	DD	imagerel $LN9+754
	DD	imagerel $unwind$dump_cache
$pdata$dump_tdb DD imagerel $LN98
	DD	imagerel $LN98+8969
	DD	imagerel $unwind$dump_tdb
$pdata$txf_why_str DD imagerel $LN65
	DD	imagerel $LN65+2012
	DD	imagerel $unwind$txf_why_str
$pdata$is_TXF_model DD imagerel $LN7
	DD	imagerel $LN7+75
	DD	imagerel $unwind$is_TXF_model
$pdata$defsym_TXF_models DD imagerel $LN6
	DD	imagerel $LN6+95
	DD	imagerel $unwind$defsym_TXF_models
$pdata$txf_model_warning DD imagerel $LN4
	DD	imagerel $LN4+222
	DD	imagerel $unwind$txf_model_warning
$pdata$txf_set_timerint DD imagerel $LN11
	DD	imagerel $LN11+607
	DD	imagerel $unwind$txf_set_timerint
$pdata$txf_maddr_l DD imagerel $LN63
	DD	imagerel $LN63+2109
	DD	imagerel $unwind$txf_maddr_l
$pdata$s370_abort_transaction DD imagerel $LN18
	DD	imagerel $LN18+73
	DD	imagerel $unwind$s370_abort_transaction
$pdata$s390_abort_transaction DD imagerel $LN18
	DD	imagerel $LN18+73
	DD	imagerel $unwind$s390_abort_transaction
$pdata$z900_abort_transaction DD imagerel $LN217
	DD	imagerel $LN217+10070
	DD	imagerel $unwind$z900_abort_transaction
$pdata$z900_txf_do_pi_filtering DD imagerel $LN85
	DD	imagerel $LN85+1443
	DD	imagerel $unwind$z900_txf_do_pi_filtering
$pdata$alloc_txfmap DD imagerel $LN15
	DD	imagerel $LN15+404
	DD	imagerel $unwind$alloc_txfmap
$pdata$free_txfmap DD imagerel $LN14
	DD	imagerel $LN14+295
	DD	imagerel $unwind$free_txfmap
$pdata$txf_abort_all DD imagerel $LN18
	DD	imagerel $LN18+856
	DD	imagerel $unwind$txf_abort_all
$pdata$synchronize_cpus DD imagerel synchronize_cpus
	DD	imagerel synchronize_cpus+583
	DD	imagerel $unwind$synchronize_cpus
$pdata$Interrupt_Lock_Obtained DD imagerel Interrupt_Lock_Obtained
	DD	imagerel Interrupt_Lock_Obtained+269
	DD	imagerel $unwind$Interrupt_Lock_Obtained
$pdata$Obtain_Interrupt_Lock DD imagerel Obtain_Interrupt_Lock
	DD	imagerel Obtain_Interrupt_Lock+88
	DD	imagerel $unwind$Obtain_Interrupt_Lock
$pdata$Release_Interrupt_Lock DD imagerel Release_Interrupt_Lock
	DD	imagerel Release_Interrupt_Lock+71
	DD	imagerel $unwind$Release_Interrupt_Lock
pdata	ENDS
;	COMDAT pdata
pdata	SEGMENT
$pdata$_get_storekey_ptr DD imagerel $LN5
	DD	imagerel $LN5+104
	DD	imagerel $unwind$_get_storekey_ptr
pdata	ENDS
pdata	SEGMENT
$pdata$z900_perform_processor_assist DD imagerel $LN24
	DD	imagerel $LN24+385
	DD	imagerel $unwind$z900_perform_processor_assist
$pdata$z900_transaction_begin_constrained DD imagerel $LN31
	DD	imagerel $LN31+1111
	DD	imagerel $unwind$z900_transaction_begin_constrained
$pdata$z900_transaction_end DD imagerel $LN145
	DD	imagerel $LN145+7517
	DD	imagerel $unwind$z900_transaction_end
$pdata$z900_extract_transaction_nesting_depth DD imagerel $LN28
	DD	imagerel $LN28+840
	DD	imagerel $unwind$z900_extract_transaction_nesting_depth
$pdata$z900_transaction_abort DD imagerel $LN41
	DD	imagerel $LN41+1208
	DD	imagerel $unwind$z900_transaction_abort
$pdata$z900_nontransactional_store DD imagerel $LN25
	DD	imagerel $LN25+673
	DD	imagerel $unwind$z900_nontransactional_store
$pdata$z900_transaction_begin DD imagerel $LN33
	DD	imagerel $LN33+1211
	DD	imagerel $unwind$z900_transaction_begin
pdata	ENDS
;	COMDAT pdata
pdata	SEGMENT
$pdata$z900__or_storage_key DD imagerel $LN8
	DD	imagerel $LN8+159
	DD	imagerel $unwind$z900__or_storage_key
pdata	ENDS
;	COMDAT pdata
pdata	SEGMENT
$pdata$z900_or_4K_storage_key DD imagerel $LN3
	DD	imagerel $LN3+42
	DD	imagerel $unwind$z900_or_4K_storage_key
pdata	ENDS
;	COMDAT pdata
pdata	SEGMENT
$pdata$z900_or_storage_key DD imagerel $LN3
	DD	imagerel $LN3+33
	DD	imagerel $unwind$z900_or_storage_key
pdata	ENDS
;	COMDAT pdata
pdata	SEGMENT
$pdata$z900_per3_zero DD imagerel $LN12
	DD	imagerel $LN12+215
	DD	imagerel $unwind$z900_per3_zero
pdata	ENDS
;	COMDAT pdata
pdata	SEGMENT
$pdata$z900_per3_zero_xcheck DD imagerel $LN6
	DD	imagerel $LN6+108
	DD	imagerel $unwind$z900_per3_zero_xcheck
pdata	ENDS
;	COMDAT pdata
pdata	SEGMENT
$pdata$z900_per3_zero_xcheck2 DD imagerel $LN18
	DD	imagerel $LN18+485
	DD	imagerel $unwind$z900_per3_zero_xcheck2
pdata	ENDS
;	COMDAT pdata
pdata	SEGMENT
$pdata$z900_maddr_l DD imagerel $LN18
	DD	imagerel $LN18+657
	DD	imagerel $unwind$z900_maddr_l
pdata	ENDS
;	COMDAT pdata
pdata	SEGMENT
$pdata$z900_vstore8_full DD imagerel $LN3
	DD	imagerel $LN3+375
	DD	imagerel $unwind$z900_vstore8_full
pdata	ENDS
;	COMDAT pdata
pdata	SEGMENT
$pdata$z900_vstore8 DD imagerel $LN9
	DD	imagerel $LN9+174
	DD	imagerel $unwind$z900_vstore8
pdata	ENDS
;	COMDAT pdata
pdata	SEGMENT
$pdata$z900_validate_operand DD imagerel $LN8
	DD	imagerel $LN8+195
	DD	imagerel $unwind$z900_validate_operand
pdata	ENDS
pdata	SEGMENT
$pdata$z900_process_tbegin DD imagerel $LN88
	DD	imagerel $LN88+4665
	DD	imagerel $unwind$z900_process_tbegin
$pdata$tac2name DD imagerel tac2name
	DD	imagerel tac2name+241
	DD	imagerel $unwind$tac2name
pdata	ENDS
_DATA	SEGMENT
	ORG $+3
$SG192619 DB	'C:\papa\MyGit\hyperion-zvector\transact.c:99', 00H
	ORG $+3
$SG192621 DB	'C:\papa\MyGit\hyperion-zvector\transact.c:104', 00H
	ORG $+2
$SG192622 DB	'TXF PPA', 00H
$SG192669 DB	'ETND', 00H
	ORG $+3
$SG192670 DB	'D', 00H
	ORG $+2
$SG192836 DB	'D', 00H
	ORG $+2
$SG192671 DB	'HHC17715%s TXF: %s%02X: SIE: Intercepting %s instruction'
	DB	0aH, 00H
	ORG $+2
$SG192877 DB	'D', 00H
	ORG $+2
$SG192672 DB	'z900_extract_transaction_nesting_depth', 00H
	ORG $+1
$SG192673 DB	'C:\papa\MyGit\hyperion-zvector\transact.c', 00H
	ORG $+2
$SG192913 DB	'D', 00H
	ORG $+2
$SG192676 DB	'C:\papa\MyGit\hyperion-zvector\transact.c:175', 00H
	ORG $+2
$SG192677 DB	'*TXF ETND', 00H
	ORG $+2
$SG192924 DB	'D', 00H
	ORG $+2
$SG192679 DB	'C:\papa\MyGit\hyperion-zvector\transact.c:180', 00H
	ORG $+2
$SG192681 DB	'C:\papa\MyGit\hyperion-zvector\transact.c:184', 00H
	ORG $+2
$SG192682 DB	'TXF ETND', 00H
	ORG $+3
$SG192835 DB	'TEND', 00H
	ORG $+3
$SG192875 DB	'SIE: ', 00H
	ORG $+2
$SG192951 DB	'D', 00H
	ORG $+2
$SG192837 DB	'HHC17715%s TXF: %s%02X: SIE: Intercepting %s instruction'
	DB	0aH, 00H
	ORG $+2
$SG193015 DB	'TABORT', 00H
	ORG $+1
$SG193016 DB	'D', 00H
	ORG $+2
$SG192838 DB	'z900_transaction_end', 00H
	ORG $+3
$SG192839 DB	'C:\papa\MyGit\hyperion-zvector\transact.c', 00H
	ORG $+2
$SG193136 DB	'TBEGIN', 00H
	ORG $+1
$SG193137 DB	'D', 00H
	ORG $+2
$SG192843 DB	'C:\papa\MyGit\hyperion-zvector\transact.c:246', 00H
	ORG $+2
$SG192844 DB	'*TXF end', 00H
	ORG $+3
$SG192911 DB	'SIE: ', 00H
	ORG $+2
$SG193207 DB	'D', 00H
	ORG $+2
$SG192847 DB	'C:\papa\MyGit\hyperion-zvector\transact.c:253', 00H
	ORG $+2
$SG192848 DB	'*TXF end', 00H
	ORG $+3
$SG192922 DB	'SIE: ', 00H
	ORG $+2
$SG193341 DB	'C', 00H
	ORG $+2
$SG192849 DB	'C:\papa\MyGit\hyperion-zvector\transact.c:255', 00H
	ORG $+2
$SG192852 DB	'C:\papa\MyGit\hyperion-zvector\transact.c:266', 00H
	ORG $+2
$SG192853 DB	'*TXF end', 00H
	ORG $+3
$SG192949 DB	'SIE: ', 00H
	ORG $+2
$SG193343 DB	'nested', 00H
	ORG $+1
$SG193347 DB	'D', 00H
	ORG $+2
$SG192854 DB	'C:\papa\MyGit\hyperion-zvector\transact.c:278', 00H
	ORG $+2
$SG192855 DB	'C:\papa\MyGit\hyperion-zvector\transact.c:288', 00H
	ORG $+2
$SG192856 DB	'C:\papa\MyGit\hyperion-zvector\transact.c:290', 00H
	ORG $+2
$SG192857 DB	'C:\papa\MyGit\hyperion-zvector\transact.c:297', 00H
	ORG $+2
$SG192861 DB	'C:\papa\MyGit\hyperion-zvector\transact.c:309', 00H
	ORG $+2
$SG192862 DB	'*TXF end', 00H
	ORG $+3
$SG193345 DB	'SIE: ', 00H
	ORG $+2
$SG193364 DB	'D', 00H
	ORG $+2
$SG192863 DB	'C:\papa\MyGit\hyperion-zvector\transact.c:311', 00H
	ORG $+2
$SG192873 DB	'CONSTRAINED', 00H
$SG193589 DB	'D', 00H
	ORG $+2
$SG192874 DB	'UNconstrained', 00H
	ORG $+2
$SG192879 DB	'z900_transaction_end', 00H
	ORG $+3
$SG192878 DB	'HHC17700%s TXF: %s%02X: %sSuccessful %s Nested TEND for '
	DB	'TND %d => %d', 0aH, 00H
	ORG $+2
$SG192880 DB	'C:\papa\MyGit\hyperion-zvector\transact.c', 00H
	ORG $+2
$SG193607 DB	' ?', 00H
	ORG $+1
$SG192884 DB	'C:\papa\MyGit\hyperion-zvector\transact.c:347', 00H
	ORG $+2
$SG192885 DB	'TXF end', 00H
$SG192886 DB	'C:\papa\MyGit\hyperion-zvector\transact.c:348', 00H
	ORG $+2
$SG192889 DB	'C:\papa\MyGit\hyperion-zvector\transact.c:361', 00H
	ORG $+2
$SG192890 DB	'*TXF end', 00H
	ORG $+3
$SG193362 DB	'SIE: ', 00H
	ORG $+2
$SG193610 DB	'Nested', 00H
	ORG $+1
$SG193614 DB	'D', 00H
	ORG $+2
$SG192891 DB	'C:\papa\MyGit\hyperion-zvector\transact.c:364', 00H
	ORG $+2
$SG192897 DB	'C:\papa\MyGit\hyperion-zvector\transact.c:430', 00H
	ORG $+2
$SG192898 DB	'*TXF end', 00H
	ORG $+3
$SG193587 DB	'SIE: ', 00H
	ORG $+2
$SG193625 DB	'%s%02X', 00H
	ORG $+1
$SG193629 DB	'D', 00H
	ORG $+2
$SG192899 DB	'C:\papa\MyGit\hyperion-zvector\transact.c:441', 00H
	ORG $+2
$SG192909 DB	'CONSTRAINED', 00H
$SG193645 DB	'D', 00H
	ORG $+2
$SG192910 DB	'UNconstrained', 00H
	ORG $+2
$SG192914 DB	'HHC17701%s TXF: %s%02X: %sSuccessful Outermost %s TEND', 0aH
	DB	00H
$SG192915 DB	'z900_transaction_end', 00H
	ORG $+3
$SG192916 DB	'C:\papa\MyGit\hyperion-zvector\transact.c', 00H
	ORG $+6
$SG192925 DB	'HHC17704%s TXF: %s%02X: %svirt 0x%16.16llX, abs 0x%16.16'
	DB	'llX, alt 0x%16.16llX', 0aH, 00H
	ORG $+2
$SG192926 DB	'z900_transaction_end', 00H
	ORG $+3
$SG192927 DB	'C:\papa\MyGit\hyperion-zvector\transact.c', 00H
	ORG $+2
$SG193689 DB	'D', 00H
	ORG $+2
$SG192934 DB	'HHC17707D TXF: %s%02X: %sWe stored:  +', 00H
	ORG $+1
$SG192936 DB	'C:\papa\MyGit\hyperion-zvector\transact.c:505', 00H
	ORG $+2
$SG192937 DB	'TXF end', 00H
$SG192947 DB	'CONSTRAINED', 00H
$SG194240 DB	'%s', 00H
	ORG $+1
$SG192948 DB	'UNconstrained', 00H
	ORG $+2
$SG192953 DB	'z900_transaction_end', 00H
	ORG $+3
$SG192952 DB	'HHC17718%s TXF: %s%02X: %s%s transaction succeeded after'
	DB	' %d retries', 0aH, 00H
	ORG $+3
$SG192954 DB	'C:\papa\MyGit\hyperion-zvector\transact.c', 00H
	ORG $+2
$SG194237 DB	' ', 09H, 0aH, 0bH, 0cH, 0dH, 00H
	ORG $+1
$SG194246 DB	'E', 00H
	ORG $+2
$SG192957 DB	'C:\papa\MyGit\hyperion-zvector\transact.c:549', 00H
	ORG $+2
$SG193017 DB	'HHC17715%s TXF: %s%02X: SIE: Intercepting %s instruction'
	DB	0aH, 00H
	ORG $+2
$SG194332 DB	'D', 00H
	ORG $+2
$SG193018 DB	'z900_transaction_abort', 00H
	ORG $+1
$SG193019 DB	'C:\papa\MyGit\hyperion-zvector\transact.c', 00H
	ORG $+2
$SG194338 DB	'D', 00H
	ORG $+2
$SG193021 DB	'C:\papa\MyGit\hyperion-zvector\transact.c:575', 00H
	ORG $+2
$SG193025 DB	'C:\papa\MyGit\hyperion-zvector\transact.c:580', 00H
	ORG $+2
$SG193026 DB	'*TXF TABORT', 00H
$SG194343 DB	'%s', 00H
	ORG $+1
$SG193029 DB	'C:\papa\MyGit\hyperion-zvector\transact.c:587', 00H
	ORG $+2
$SG193030 DB	'*TXF TABORT', 00H
$SG194349 DB	'E', 00H
	ORG $+2
$SG193032 DB	'C:\papa\MyGit\hyperion-zvector\transact.c:592', 00H
	ORG $+2
$SG193034 DB	'C:\papa\MyGit\hyperion-zvector\transact.c:599', 00H
	ORG $+2
$SG193035 DB	'TXF TABORT', 00H
	ORG $+1
$SG194357 DB	'D', 00H
	ORG $+2
$SG193036 DB	'C:\papa\MyGit\hyperion-zvector\transact.c:601', 00H
	ORG $+2
$SG193070 DB	'C:\papa\MyGit\hyperion-zvector\transact.c:620', 00H
	ORG $+2
$SG193073 DB	'C:\papa\MyGit\hyperion-zvector\transact.c:623', 00H
	ORG $+2
$SG193074 DB	'TXF NTSTG', 00H
	ORG $+2
$SG194340 DB	' ', 09H, 0aH, 0bH, 0cH, 0dH, 00H
	ORG $+1
$SG194370 DB	',', 00H
	ORG $+2
$SG193138 DB	'HHC17715%s TXF: %s%02X: SIE: Intercepting %s instruction'
	DB	0aH, 00H
	ORG $+2
$SG194369 DB	' ', 09H, 0aH, 0bH, 0cH, 0dH, 00H
	ORG $+1
$SG194374 DB	'D', 00H
	ORG $+2
$SG193139 DB	'z900_transaction_begin', 00H
	ORG $+1
$SG193140 DB	'C:\papa\MyGit\hyperion-zvector\transact.c', 00H
	ORG $+2
$SG194381 DB	'D', 00H
	ORG $+2
$SG193143 DB	'C:\papa\MyGit\hyperion-zvector\transact.c:656', 00H
	ORG $+2
$SG193144 DB	'*TXF TBEGIN', 00H
$SG194388 DB	'D', 00H
	ORG $+2
$SG193148 DB	'C:\papa\MyGit\hyperion-zvector\transact.c:666', 00H
	ORG $+2
$SG193149 DB	'*TXF TBEGIN', 00H
$SG194399 DB	'D', 00H
	ORG $+2
$SG193152 DB	'C:\papa\MyGit\hyperion-zvector\transact.c:682', 00H
	ORG $+2
$SG193154 DB	'C:\papa\MyGit\hyperion-zvector\transact.c:685', 00H
	ORG $+2
$SG193155 DB	'TXF TBEGIN', 00H
	ORG $+1
$SG194407 DB	'D', 00H
	ORG $+2
$SG193156 DB	'C:\papa\MyGit\hyperion-zvector\transact.c:688', 00H
	ORG $+2
$SG193206 DB	'TBEGINC', 00H
$SG193208 DB	'HHC17715%s TXF: %s%02X: SIE: Intercepting %s instruction'
	DB	0aH, 00H
	ORG $+2
$SG194420 DB	' %s', 00H
$SG193209 DB	'z900_transaction_begin_constrained', 00H
	ORG $+1
$SG194423 DB	'D', 00H
	ORG $+2
$SG193210 DB	'C:\papa\MyGit\hyperion-zvector\transact.c', 00H
	ORG $+2
$SG194430 DB	'D', 00H
	ORG $+2
$SG193213 DB	'C:\papa\MyGit\hyperion-zvector\transact.c:716', 00H
	ORG $+2
$SG193214 DB	'*TXF TBEGINC', 00H
	ORG $+3
$SG193218 DB	'C:\papa\MyGit\hyperion-zvector\transact.c:726', 00H
	ORG $+2
$SG193219 DB	'*TXF TBEGINC', 00H
	ORG $+3
$SG193220 DB	'C:\papa\MyGit\hyperion-zvector\transact.c:735', 00H
	ORG $+2
$SG193222 DB	'C:\papa\MyGit\hyperion-zvector\transact.c:738', 00H
	ORG $+2
$SG193223 DB	'TXF TBEGINC', 00H
$SG194437 DB	'D', 00H
	ORG $+2
$SG193224 DB	'C:\papa\MyGit\hyperion-zvector\transact.c:741', 00H
	ORG $+2
$SG193295 DB	'C:\papa\MyGit\hyperion-zvector\transact.c:760', 00H
	ORG $+2
$SG193298 DB	'C:\papa\MyGit\hyperion-zvector\transact.c:767', 00H
	ORG $+2
$SG193299 DB	'*TXF beg', 00H
	ORG $+3
$SG193612 DB	'SIE: ', 00H
	ORG $+2
$SG194444 DB	'D', 00H
	ORG $+2
$SG193300 DB	'C:\papa\MyGit\hyperion-zvector\transact.c:769', 00H
	ORG $+2
$SG193302 DB	'C:\papa\MyGit\hyperion-zvector\transact.c:776', 00H
	ORG $+2
$SG193303 DB	'C:\papa\MyGit\hyperion-zvector\transact.c:781', 00H
	ORG $+2
$SG193304 DB	'C:\papa\MyGit\hyperion-zvector\transact.c:785', 00H
	ORG $+2
$SG193320 DB	'C:\papa\MyGit\hyperion-zvector\transact.c:929', 00H
	ORG $+2
$SG193321 DB	'*TXF begc', 00H
	ORG $+2
$SG194451 DB	'D', 00H
	ORG $+2
$SG193322 DB	'C:\papa\MyGit\hyperion-zvector\transact.c:931', 00H
	ORG $+2
$SG193330 DB	'C:\papa\MyGit\hyperion-zvector\transact.c:980', 00H
	ORG $+2
$SG193331 DB	'TXF beg', 00H
$SG193344 DB	'outermost', 00H
	ORG $+2
$SG194458 DB	'D', 00H
	ORG $+2
$SG193348 DB	'HHC17702%s TXF: %s%02X: %sSuccessful %s TBEGIN%s; TND no'
	DB	'w %d', 0aH, 00H
	ORG $+2
$SG193349 DB	'z900_process_tbegin', 00H
$SG194465 DB	'D', 00H
	ORG $+2
$SG193350 DB	'C:\papa\MyGit\hyperion-zvector\transact.c', 00H
	ORG $+2
$SG194472 DB	'D', 00H
	ORG $+2
$SG193360 DB	'CONSTRAINED', 00H
$SG194479 DB	'D', 00H
	ORG $+2
$SG193361 DB	'UNconstrained', 00H
	ORG $+2
$SG193365 DB	'HHC17717%s TXF: %s%02X: %s%s transaction retry #%d...', 0aH
	DB	00H
	ORG $+1
$SG193366 DB	'z900_process_tbegin', 00H
$SG194486 DB	'D', 00H
	ORG $+2
$SG193367 DB	'C:\papa\MyGit\hyperion-zvector\transact.c', 00H
	ORG $+2
$SG194493 DB	'D', 00H
	ORG $+2
$SG193561 DB	'C:\papa\MyGit\hyperion-zvector\transact.c:1100', 00H
	ORG $+1
$SG193562 DB	'*TXF abort', 00H
	ORG $+1
$SG194540 DB	'W', 00H
	ORG $+2
$SG193568 DB	'C:\papa\MyGit\hyperion-zvector\transact.c:1121', 00H
	ORG $+1
$SG193569 DB	'TXF ATIA', 00H
	ORG $+3
$SG193627 DB	'SIE: ', 00H
	ORG $+2
$SG194555 DB	'W', 00H
	ORG $+2
$SG193571 DB	'C:\papa\MyGit\hyperion-zvector\transact.c:1128', 00H
	ORG $+1
$SG193572 DB	'TXF ATIA', 00H
	ORG $+3
$SG193643 DB	'SIE: ', 00H
	ORG $+2
$SG194564 DB	'E', 00H
	ORG $+2
$SG193575 DB	'C:\papa\MyGit\hyperion-zvector\transact.c:1136', 00H
	ORG $+1
$SG193585 DB	'CONSTRAINED', 00H
	ORG $+4
$SG193586 DB	'UNconstrained', 00H
	ORG $+2
$SG193590 DB	'HHC17719%s TXF: %s%02X: %s%s transaction retry #%d FAILE'
	DB	'D!', 0aH, 00H
	ORG $+4
$SG193591 DB	'z900_abort_transaction', 00H
	ORG $+1
$SG193592 DB	'C:\papa\MyGit\hyperion-zvector\transact.c', 00H
	ORG $+6
$SG193608 DB	'CONSTRAINED', 00H
	ORG $+4
$SG193609 DB	'UNconstrained', 00H
	ORG $+2
$SG193611 DB	'Outermost', 00H
	ORG $+6
$SG193615 DB	'HHC17703%s TXF: %s%02X: %sFailed %s %s Transaction for T'
	DB	'ND %d: %s = %s, why =%s', 0aH, 00H
	ORG $+7
$SG193616 DB	'z900_abort_transaction', 00H
	ORG $+1
$SG193617 DB	'C:\papa\MyGit\hyperion-zvector\transact.c', 00H
	ORG $+6
$SG193621 DB	'channel', 00H
$SG193624 DB	'ourself', 00H
$SG193630 DB	'HHC17720%s TXF: %s%02X: %sAbort set by %s at %s', 0aH, 00H
	ORG $+7
$SG193631 DB	'z900_abort_transaction', 00H
	ORG $+1
$SG193632 DB	'C:\papa\MyGit\hyperion-zvector\transact.c', 00H
	ORG $+6
$SG193646 DB	'HHC17704%s TXF: %s%02X: %svirt 0x%16.16llX, abs 0x%16.16'
	DB	'llX, alt 0x%16.16llX', 0aH, 00H
	ORG $+2
$SG193647 DB	'z900_abort_transaction', 00H
	ORG $+1
$SG193648 DB	'C:\papa\MyGit\hyperion-zvector\transact.c', 00H
	ORG $+6
$SG193655 DB	'HHC17705D TXF: %s%02X: %sThere now:  +', 00H
	ORG $+1
$SG193658 DB	'HHC17706D TXF: %s%02X: %sWe fetched: +', 00H
	ORG $+1
$SG193659 DB	'HHC17707D TXF: %s%02X: %sWe stored:  +', 00H
	ORG $+1
$SG193660 DB	'C:\papa\MyGit\hyperion-zvector\transact.c:1291', 00H
	ORG $+1
$SG193661 DB	'C:\papa\MyGit\hyperion-zvector\transact.c:1295', 00H
	ORG $+1
$SG193666 DB	'C:\papa\MyGit\hyperion-zvector\transact.c:1332', 00H
	ORG $+1
$SG193667 DB	'TXF trpi+ilc', 00H
	ORG $+3
$SG193669 DB	'C:\papa\MyGit\hyperion-zvector\transact.c:1343', 00H
	ORG $+1
$SG193670 DB	'TXF trpi', 00H
	ORG $+7
$SG193684 DB	'C:\papa\MyGit\hyperion-zvector\transact.c:1429', 00H
	ORG $+1
$SG193685 DB	'*TXF vrfail', 00H
$SG193687 DB	'SIE: ', 00H
	ORG $+6
$SG193691 DB	'z900_abort_transaction', 00H
	ORG $+1
$SG193690 DB	'HHC17713%s TXF: %s%02X: %sTranslation exception %4.4hX ('
	DB	'%s) for TBEGIN tdba 0x%16.16llx', 0aH, 00H
	ORG $+7
$SG193692 DB	'C:\papa\MyGit\hyperion-zvector\transact.c', 00H
	ORG $+6
$SG193711 DB	'C:\papa\MyGit\hyperion-zvector\transact.c:1526', 00H
	ORG $+1
$SG193714 DB	'C:\papa\MyGit\hyperion-zvector\transact.c:1541', 00H
	ORG $+1
$SG193715 DB	'*TXF abrtret', 00H
	ORG $+3
$SG193718 DB	'C:\papa\MyGit\hyperion-zvector\transact.c:1562', 00H
	ORG $+1
$SG193719 DB	'*TXF abrtjmp', 00H
	ORG $+3
$SG193721 DB	'z900_abort_transaction', 00H
	ORG $+1
$SG193722 DB	'C:\papa\MyGit\hyperion-zvector\transact.c', 00H
	ORG $+6
$SG193725 DB	'z900_abort_transaction', 00H
	ORG $+1
$SG193723 DB	'%s(%d) : warning HHC90999W : *** Assertion Failed! *** f'
	DB	'unction: %s', 0aH, 00H
	ORG $+3
$SG193726 DB	'C:\papa\MyGit\hyperion-zvector\transact.c', 00H
	ORG $+6
$SG193730 DB	'C:\papa\MyGit\hyperion-zvector\transact.c:1581', 00H
	ORG $+1
$SG194128 DB	'(undefined Abort Code)', 00H
	ORG $+1
$SG193727 DB	'%s(%d) : warning HHC90999W : *** Assertion Failed! *** f'
	DB	'unction: %s', 0aH, 00H
	ORG $+3
$SG193731 DB	'*TXF abrtpgm', 00H
	ORG $+3
$SG193780 DB	'C:\papa\MyGit\hyperion-zvector\transact.c:1621', 00H
	ORG $+1
$SG193781 DB	'TXF filt?', 00H
	ORG $+6
$SG193834 DB	'C:\papa\MyGit\hyperion-zvector\transact.c:1788', 00H
	ORG $+1
$SG193835 DB	'TXF filt!', 00H
	ORG $+6
$SG193836 DB	'C:\papa\MyGit\hyperion-zvector\transact.c:1790', 00H
	ORG $+1
$SG193838 DB	'C:\papa\MyGit\hyperion-zvector\transact.c:1800', 00H
	ORG $+1
$SG193839 DB	'TXF unfilt!', 00H
	ORG $+4
$SG193840 DB	'C:\papa\MyGit\hyperion-zvector\transact.c:1802', 00H
	ORG $+1
$SG193868 DB	'C:\papa\MyGit\hyperion-zvector\transact.c:1841', 00H
	ORG $+1
$SG193869 DB	'TXF alloc', 00H
	ORG $+6
$SG193897 DB	'C:\papa\MyGit\hyperion-zvector\transact.c:1875', 00H
	ORG $+1
$SG193898 DB	'TXF free', 00H
	ORG $+7
$SG193933 DB	'C:\papa\MyGit\hyperion-zvector\transact.c:1917', 00H
	ORG $+1
$SG193936 DB	'C:\papa\MyGit\hyperion-zvector\transact.c:1929', 00H
	ORG $+1
$SG193937 DB	'*TXF h delay', 00H
	ORG $+3
$SG193940 DB	'C:\papa\MyGit\hyperion-zvector\transact.c:1945', 00H
	ORG $+1
$SG193941 DB	'*TXF g delay', 00H
	ORG $+3
$SG193942 DB	'C:\papa\MyGit\hyperion-zvector\transact.c:1948', 00H
	ORG $+1
$SG194042 DB	'txf_maddr_l', 00H
	ORG $+4
$SG194043 DB	'C:\papa\MyGit\hyperion-zvector\transact.c', 00H
	ORG $+6
$SG194046 DB	'txf_maddr_l', 00H
$SG194235 DB	'SIE: ', 00H
	ORG $+6
$SG194044 DB	'%s(%d) : warning HHC90999W : *** Assertion Failed! *** f'
	DB	'unction: %s', 0aH, 00H
	ORG $+3
$SG194047 DB	'C:\papa\MyGit\hyperion-zvector\transact.c', 00H
	ORG $+6
$SG194052 DB	'C:\papa\MyGit\hyperion-zvector\transact.c:2032', 00H
	ORG $+1
$SG194130 DB	'Miscellaneous condition', 00H
$SG194048 DB	'%s(%d) : warning HHC90999W : *** Assertion Failed! *** f'
	DB	'unction: %s', 0aH, 00H
	ORG $+3
$SG194053 DB	'*TXF mad TAC', 00H
	ORG $+3
$SG194055 DB	'C:\papa\MyGit\hyperion-zvector\transact.c:2037', 00H
	ORG $+1
$SG194056 DB	'C:\papa\MyGit\hyperion-zvector\transact.c:2039', 00H
	ORG $+1
$SG194059 DB	'C:\papa\MyGit\hyperion-zvector\transact.c:2057', 00H
	ORG $+1
$SG194060 DB	'*TXF mad len', 00H
	ORG $+3
$SG194061 DB	'C:\papa\MyGit\hyperion-zvector\transact.c:2058', 00H
	ORG $+1
$SG194067 DB	'C:\papa\MyGit\hyperion-zvector\transact.c:2119', 00H
	ORG $+1
$SG194068 DB	'*TXF mad max', 00H
	ORG $+3
$SG194069 DB	'C:\papa\MyGit\hyperion-zvector\transact.c:2120', 00H
	ORG $+1
$SG194071 DB	'C:\papa\MyGit\hyperion-zvector\transact.c:2143', 00H
	ORG $+1
$SG194072 DB	'TXF maddr_l:', 00H
	ORG $+3
$SG194077 DB	'C:\papa\MyGit\hyperion-zvector\transact.c:2182', 00H
	ORG $+1
$SG194078 DB	'TXF maddr_l', 00H
$SG194244 DB	'SIE: ', 00H
	ORG $+6
tac_names DQ	FLAT:$SG194080
	DQ	FLAT:$SG194081
	DQ	FLAT:$SG194082
	DQ	FLAT:$SG194083
	DQ	FLAT:$SG194084
	DQ	FLAT:$SG194085
	DQ	FLAT:$SG194086
	DQ	FLAT:$SG194087
	DQ	FLAT:$SG194088
	DQ	FLAT:$SG194089
	DQ	FLAT:$SG194090
	DQ	FLAT:$SG194091
	DQ	FLAT:$SG194092
	DQ	FLAT:$SG194093
	DQ	FLAT:$SG194094
	DQ	FLAT:$SG194095
	DQ	FLAT:$SG194096
	DQ	FLAT:$SG194097
	DQ	FLAT:$SG194098
	DQ	FLAT:$SG194099
	DQ	FLAT:$SG194100
	DQ	FLAT:$SG194101
	DQ	FLAT:$SG194102
	DQ	FLAT:$SG194103
	DQ	FLAT:$SG194104
	DQ	FLAT:$SG194105
	DQ	FLAT:$SG194106
	DQ	FLAT:$SG194107
	DQ	FLAT:$SG194108
	DQ	FLAT:$SG194109
	DQ	FLAT:$SG194110
	DQ	FLAT:$SG194111
	DQ	FLAT:$SG194112
	DQ	FLAT:$SG194113
	DQ	FLAT:$SG194114
	DQ	FLAT:$SG194115
	DQ	FLAT:$SG194116
	DQ	FLAT:$SG194117
	DQ	FLAT:$SG194118
	DQ	FLAT:$SG194119
$SG194129 DB	'TAC_?????', 00H
	ORG $+6
$SG194131 DB	'TAC_MISC', 00H
	ORG $+7
$SG194132 DB	'TABORT instruction', 00H
	ORG $+5
$SG194133 DB	'TAC_TABORT', 00H
	ORG $+5
$SG194148 DB	' TXF_WHY_CONSTRAINT_4', 00H
	ORG $+2
$SG194150 DB	' TXF_WHY_IDTE_INSTR', 00H
	ORG $+4
$SG194152 DB	' TXF_WHY_IPTE_INSTR', 00H
	ORG $+4
$SG194154 DB	' TXF_WHY_STORKEY', 00H
	ORG $+7
$SG194156 DB	' TXF_WHY_NESTING', 00H
	ORG $+7
$SG194158 DB	' TXF_WHY_TRAN_MISC_INSTR', 00H
	ORG $+7
$SG194160 DB	' TXF_WHY_TRAN_SET_ADDRESSING_MODE', 00H
	ORG $+6
$SG194162 DB	' TXF_WHY_TRAN_BRANCH_SET_MODE', 00H
	ORG $+2
$SG194164 DB	' TXF_WHY_TRAN_NONRELATIVE_BRANCH', 00H
	ORG $+7
$SG194166 DB	' TXF_WHY_TRAN_ACCESS_INSTR', 00H
	ORG $+5
$SG194168 DB	' TXF_WHY_TRAN_FLOAT_INSTR', 00H
	ORG $+6
$SG194170 DB	' TXF_WHY_TRAN_INSTR', 00H
	ORG $+4
$SG194172 DB	' TXF_WHY_CONTRAN_RELATIVE_BRANCH', 00H
	ORG $+7
$SG194174 DB	' TXF_WHY_CONTRAN_BRANCH', 00H
$SG194176 DB	' TXF_WHY_CONTRAN_INSTR', 00H
	ORG $+1
$SG194178 DB	' TXF_WHY_TABORT_INSTR', 00H
	ORG $+2
$SG194180 DB	' TXF_WHY_DELAYED_ABORT', 00H
	ORG $+1
$SG194182 DB	' TXF_WHY_MCK_INT', 00H
	ORG $+7
$SG194184 DB	' TXF_WHY_IO_INT', 00H
$SG194186 DB	' TXF_WHY_RESTART_INT', 00H
	ORG $+3
$SG194188 DB	' TXF_WHY_FILT_INT', 00H
	ORG $+6
$SG194190 DB	' TXF_WHY_UNFILT_INT', 00H
	ORG $+4
$SG194192 DB	' TXF_WHY_EXT_INT', 00H
	ORG $+7
$SG194194 DB	' TXF_WHY_MAX_PAGES', 00H
	ORG $+5
$SG194196 DB	' TXF_WHY_CONFLICT', 00H
	ORG $+6
$SG194198 DB	' TXF_WHY_SIE_EXIT', 00H
	ORG $+6
$SG194200 DB	' TXF_WHY_CSPG_INSTR', 00H
	ORG $+4
$SG194202 DB	' TXF_WHY_CSP_INSTR', 00H
	ORG $+5
$SG194204 DB	' TXF_WHY_RAND_ABORT', 00H
	ORG $+4
$SG194206 DB	' TXF_WHY_INSTRCOUNT', 00H
	ORG $+4
$SG194208 DB	' TXF_WHY_INSTRADDR', 00H
	ORG $+5
$SG194243 DB	'dump_cache()', 00H
	ORG $+3
$SG194247 DB	'HHC17708%s TXF: %s%02X: %sError in function %s: %s', 0aH
	DB	00H
	ORG $+4
$SG194210 DB	'%s%s%s%s%s%s%s%s%s%s%s%s%s%s%s%s%s%s%s%s%s%s%s%s%s%s%s%s'
	DB	'%s%s%s%s', 00H
	ORG $+7
$SG194241 DB	'dump_cache', 00H
	ORG $+5
$SG194242 DB	'C:\papa\MyGit\hyperion-zvector\transact.c', 00H
	ORG $+6
$SG194248 DB	'dump_cache', 00H
	ORG $+5
$SG194249 DB	'C:\papa\MyGit\hyperion-zvector\transact.c', 00H
	ORG $+6
$SG194329 DB	'Storage', 00H
$SG194330 DB	'SIE: ', 00H
	ORG $+2
$SG194333 DB	'HHC17709%s TXF: %s%02X: %s%s dump of TDB:', 0aH, 00H
	ORG $+5
$SG194334 DB	'dump_tdb', 00H
	ORG $+7
$SG194335 DB	'C:\papa\MyGit\hyperion-zvector\transact.c', 00H
	ORG $+2
$SG194336 DB	'SIE: ', 00H
	ORG $+6
$SG194339 DB	'HHC17710%s TXF: %s%02X: %s+', 0aH, 00H
	ORG $+3
$SG194344 DB	'dump_tdb', 00H
	ORG $+7
$SG194345 DB	'C:\papa\MyGit\hyperion-zvector\transact.c', 00H
	ORG $+6
$SG194346 DB	'dump_tdb()', 00H
	ORG $+1
$SG194347 DB	'SIE: ', 00H
	ORG $+6
$SG194350 DB	'HHC17708%s TXF: %s%02X: %sError in function %s: %s', 0aH
	DB	00H
	ORG $+4
$SG194351 DB	'dump_tdb', 00H
	ORG $+7
$SG194352 DB	'C:\papa\MyGit\hyperion-zvector\transact.c', 00H
	ORG $+6
$SG194354 DB	'Formatted', 00H
	ORG $+2
$SG194355 DB	'SIE: ', 00H
	ORG $+6
$SG194358 DB	'HHC17709%s TXF: %s%02X: %s%s dump of TDB:', 0aH, 00H
	ORG $+5
$SG194359 DB	'dump_tdb', 00H
	ORG $+7
$SG194360 DB	'C:\papa\MyGit\hyperion-zvector\transact.c', 00H
	ORG $+2
$SG194363 DB	'none', 00H
	ORG $+7
$SG194364 DB	'TDB_CTI, ', 00H
	ORG $+6
$SG194366 DB	'TDB_CTV, ', 00H
	ORG $+2
$SG194368 DB	'%s%s', 00H
	ORG $+3
$SG194372 DB	'SIE: ', 00H
	ORG $+6
$SG194371 DB	'Fmt: %u, TND: %hu, EAID: %02X, DXC/VXC: %02X, PIID: %08X'
	DB	', Flags: (%s)', 00H
	ORG $+2
$SG194375 DB	'HHC17721%s TXF: %s%02X: %s%s', 0aH, 00H
	ORG $+2
$SG194376 DB	'dump_tdb', 00H
	ORG $+7
$SG194377 DB	'C:\papa\MyGit\hyperion-zvector\transact.c', 00H
	ORG $+6
$SG194378 DB	'TAC:   0x%16.16llX: %s = %s', 00H
$SG194379 DB	'SIE: ', 00H
	ORG $+6
$SG194382 DB	'HHC17721%s TXF: %s%02X: %s%s', 0aH, 00H
	ORG $+2
$SG194383 DB	'dump_tdb', 00H
	ORG $+7
$SG194384 DB	'C:\papa\MyGit\hyperion-zvector\transact.c', 00H
	ORG $+6
$SG194385 DB	'Token: 0x%16.16llX, ATIA:  0x%16.16llX', 00H
	ORG $+1
$SG194386 DB	'SIE: ', 00H
	ORG $+2
$SG194389 DB	'HHC17721%s TXF: %s%02X: %s%s', 0aH, 00H
	ORG $+2
$SG194390 DB	'dump_tdb', 00H
	ORG $+7
$SG194391 DB	'C:\papa\MyGit\hyperion-zvector\transact.c', 00H
	ORG $+2
$SG194397 DB	'SIE: ', 00H
	ORG $+6
$SG194400 DB	'HHC17721%s TXF: %s%02X: %s%s', 0aH, 00H
	ORG $+2
$SG194401 DB	'dump_tdb', 00H
	ORG $+7
$SG194402 DB	'C:\papa\MyGit\hyperion-zvector\transact.c', 00H
	ORG $+6
$SG194404 DB	'%s code %4.4X ilc %d', 00H
	ORG $+3
$SG194405 DB	'SIE: ', 00H
	ORG $+2
$SG194408 DB	'HHC17721%s TXF: %s%02X: %s%s', 0aH, 00H
	ORG $+2
$SG194409 DB	'dump_tdb', 00H
	ORG $+7
$SG194410 DB	'C:\papa\MyGit\hyperion-zvector\transact.c', 00H
	ORG $+6
$SG194411 DB	'%16.16llX ', 00H
	ORG $+5
$SG194412 DB	'INST=%2.2X%2.2X', 00H
$SG194414 DB	'%2.2X%2.2X', 00H
	ORG $+5
$SG194416 DB	'%2.2X%2.2X', 00H
	ORG $+5
$SG194417 DB	'        ', 00H
	ORG $+3
$SG194418 DB	'    ', 00H
	ORG $+3
$SG194421 DB	'SIE: ', 00H
	ORG $+6
$SG194424 DB	'HHC17721%s TXF: %s%02X: %s%s', 0aH, 00H
	ORG $+2
$SG194425 DB	'dump_tdb', 00H
	ORG $+7
$SG194426 DB	'C:\papa\MyGit\hyperion-zvector\transact.c', 00H
	ORG $+2
$SG194428 DB	'SIE: ', 00H
	ORG $+6
$SG194431 DB	'HHC17721%s TXF: %s%02X: %s%s', 0aH, 00H
	ORG $+2
$SG194432 DB	'dump_tdb', 00H
	ORG $+7
$SG194433 DB	'C:\papa\MyGit\hyperion-zvector\transact.c', 00H
	ORG $+6
$SG194434 DB	'TEID:  0x%16.16llX, BEA:   0x%16.16llX', 00H
	ORG $+1
$SG194435 DB	'SIE: ', 00H
	ORG $+2
$SG194438 DB	'HHC17721%s TXF: %s%02X: %s%s', 0aH, 00H
	ORG $+2
$SG194439 DB	'dump_tdb', 00H
	ORG $+7
$SG194440 DB	'C:\papa\MyGit\hyperion-zvector\transact.c', 00H
	ORG $+6
$SG194441 DB	'GR %02u: 0x%16.16llX, GR %02u: 0x%16.16llX', 00H
	ORG $+1
$SG194442 DB	'SIE: ', 00H
	ORG $+6
$SG194445 DB	'HHC17721%s TXF: %s%02X: %s%s', 0aH, 00H
	ORG $+2
$SG194446 DB	'dump_tdb', 00H
	ORG $+7
$SG194447 DB	'C:\papa\MyGit\hyperion-zvector\transact.c', 00H
	ORG $+6
$SG194448 DB	'GR %02u: 0x%16.16llX, GR %02u: 0x%16.16llX', 00H
	ORG $+1
$SG194449 DB	'SIE: ', 00H
	ORG $+6
$SG194452 DB	'HHC17721%s TXF: %s%02X: %s%s', 0aH, 00H
	ORG $+2
$SG194453 DB	'dump_tdb', 00H
	ORG $+7
$SG194454 DB	'C:\papa\MyGit\hyperion-zvector\transact.c', 00H
	ORG $+6
$SG194455 DB	'GR %02u: 0x%16.16llX, GR %02u: 0x%16.16llX', 00H
	ORG $+1
$SG194456 DB	'SIE: ', 00H
	ORG $+6
$SG194459 DB	'HHC17721%s TXF: %s%02X: %s%s', 0aH, 00H
	ORG $+2
$SG194460 DB	'dump_tdb', 00H
	ORG $+7
$SG194461 DB	'C:\papa\MyGit\hyperion-zvector\transact.c', 00H
	ORG $+6
$SG194462 DB	'GR %02u: 0x%16.16llX, GR %02u: 0x%16.16llX', 00H
	ORG $+1
$SG194463 DB	'SIE: ', 00H
	ORG $+6
$SG194466 DB	'HHC17721%s TXF: %s%02X: %s%s', 0aH, 00H
	ORG $+2
$SG194467 DB	'dump_tdb', 00H
	ORG $+7
$SG194468 DB	'C:\papa\MyGit\hyperion-zvector\transact.c', 00H
	ORG $+6
$SG194469 DB	'GR %02u: 0x%16.16llX, GR %02u: 0x%16.16llX', 00H
	ORG $+1
$SG194470 DB	'SIE: ', 00H
	ORG $+6
$SG194473 DB	'HHC17721%s TXF: %s%02X: %s%s', 0aH, 00H
	ORG $+2
$SG194474 DB	'dump_tdb', 00H
	ORG $+7
$SG194475 DB	'C:\papa\MyGit\hyperion-zvector\transact.c', 00H
	ORG $+6
$SG194476 DB	'GR %02u: 0x%16.16llX, GR %02u: 0x%16.16llX', 00H
	ORG $+1
$SG194477 DB	'SIE: ', 00H
	ORG $+6
$SG194480 DB	'HHC17721%s TXF: %s%02X: %s%s', 0aH, 00H
	ORG $+2
$SG194481 DB	'dump_tdb', 00H
	ORG $+7
$SG194482 DB	'C:\papa\MyGit\hyperion-zvector\transact.c', 00H
	ORG $+6
$SG194483 DB	'GR %02u: 0x%16.16llX, GR %02u: 0x%16.16llX', 00H
	ORG $+1
$SG194484 DB	'SIE: ', 00H
	ORG $+6
$SG194487 DB	'HHC17721%s TXF: %s%02X: %s%s', 0aH, 00H
	ORG $+2
$SG194488 DB	'dump_tdb', 00H
	ORG $+7
$SG194489 DB	'C:\papa\MyGit\hyperion-zvector\transact.c', 00H
	ORG $+6
$SG194490 DB	'GR %02u: 0x%16.16llX, GR %02u: 0x%16.16llX', 00H
	ORG $+1
$SG194491 DB	'SIE: ', 00H
	ORG $+6
$SG194494 DB	'HHC17721%s TXF: %s%02X: %s%s', 0aH, 00H
	ORG $+2
$SG194495 DB	'dump_tdb', 00H
	ORG $+7
$SG194496 DB	'C:\papa\MyGit\hyperion-zvector\transact.c', 00H
	ORG $+6
$SG194541 DB	'HHC02385%s CPUMODEL %04X does not technically support TX'
	DB	'F', 0aH, 00H
	ORG $+5
$SG194542 DB	'txf_model_warning', 00H
	ORG $+6
$SG194543 DB	'C:\papa\MyGit\hyperion-zvector\transact.c', 00H
	ORG $+6
$SG194557 DB	'txf_set_timerint', 00H
	ORG $+7
$SG194556 DB	'HHC17736%s TXF: TIMERINT %d is too small; using default '
	DB	'of %d instead', 0aH, 00H
	ORG $+1
$SG194558 DB	'C:\papa\MyGit\hyperion-zvector\transact.c', 00H
	ORG $+6
$SG194559 DB	'C:\papa\MyGit\hyperion-zvector\transact.c:2593', 00H
	ORG $+1
$SG194561 DB	'C:\papa\MyGit\hyperion-zvector\transact.c:2598', 00H
	ORG $+1
$SG194562 DB	'rubato_thread', 00H
	ORG $+2
$SG194565 DB	'HHC00102%s Error in function create_thread(): %s', 0aH, 00H
	ORG $+6
$SG194566 DB	'txf_set_timerint', 00H
	ORG $+7
$SG194567 DB	'C:\papa\MyGit\hyperion-zvector\transact.c', 00H
	ORG $+6
$SG194568 DB	'C:\papa\MyGit\hyperion-zvector\transact.c:2604', 00H
	ORG $+1
$SG194569 DB	'C:\papa\MyGit\hyperion-zvector\transact.c:2609', 00H
	ORG $+1
$SG194570 DB	'C:\papa\MyGit\hyperion-zvector\transact.c:2614', 00H
_DATA	ENDS
;	COMDAT xdata
xdata	SEGMENT
$unwind$z900_validate_operand DD 011701H
	DD	08217H
xdata	ENDS
;	COMDAT xdata
xdata	SEGMENT
$unwind$z900_vstore8 DD 011801H
	DD	08218H
xdata	ENDS
;	COMDAT voltbl
voltbl	SEGMENT
_volmd	DW	024H
	DW	0163H
voltbl	ENDS
;	COMDAT xdata
xdata	SEGMENT
$unwind$z900_vstore8_full DD 032919H
	DD	07016c21aH
	DD	06015H
	DD	imagerel __GSHandlerCheck
	DD	058H
xdata	ENDS
;	COMDAT xdata
xdata	SEGMENT
$unwind$z900_maddr_l DD 011801H
	DD	0a218H
xdata	ENDS
;	COMDAT xdata
xdata	SEGMENT
$unwind$z900_per3_zero_xcheck2 DD 011201H
	DD	0a212H
xdata	ENDS
;	COMDAT xdata
xdata	SEGMENT
$unwind$z900_per3_zero_xcheck DD 010d01H
	DD	0620dH
xdata	ENDS
;	COMDAT xdata
xdata	SEGMENT
$unwind$z900_per3_zero DD 010901H
	DD	06209H
xdata	ENDS
;	COMDAT xdata
xdata	SEGMENT
$unwind$z900_or_storage_key DD 010d01H
	DD	0420dH
xdata	ENDS
;	COMDAT xdata
xdata	SEGMENT
$unwind$z900_or_4K_storage_key DD 010d01H
	DD	0420dH
xdata	ENDS
;	COMDAT xdata
xdata	SEGMENT
$unwind$z900__or_storage_key DD 011201H
	DD	08212H
xdata	ENDS
;	COMDAT xdata
xdata	SEGMENT
$unwind$_get_storekey_ptr DD 010d01H
	DD	0220dH
xdata	ENDS
voltbl	SEGMENT
_volmd	DD	0ffffffffH
	DDSymXIndex: 	FLAT:atomic_update64
	DD	014H
_volmd	DD	0ffffffffH
	DDSymXIndex: 	FLAT:atomic_update32
	DD	012H
_volmd	DD	0ffffffffH
	DDSymXIndex: 	FLAT:z900_process_tbegin
	DD	027H
	DD	0121fH
_volmd	DD	0ffffffffH
	DDSymXIndex: 	FLAT:z900_abort_transaction
	DD	026H
	DD	0273cH
_volmd	DD	0ffffffffH
	DDSymXIndex: 	FLAT:dump_tdb
	DD	01dH
	DD	022efH
_volmd	DD	0ffffffffH
	DDSymXIndex: 	FLAT:dump_cache
	DD	026H
	DD	02d9H
voltbl	ENDS
;	COMDAT xdata
xdata	SEGMENT
$unwind$fetch_dw_noswap DD 010901H
	DD	02209H
xdata	ENDS
;	COMDAT xdata
xdata	SEGMENT
$unwind$fetch_fw_noswap DD 010901H
	DD	02209H
xdata	ENDS
;	COMDAT xdata
xdata	SEGMENT
$unwind$fetch_hw_noswap DD 010901H
	DD	02209H
xdata	ENDS
xdata	SEGMENT
$unwind$DebuggerTrace DD 011801H
	DD	0a218H
$unwind$tac2short DD 010901H
	DD	04209H
$unwind$tac2long DD 010901H
	DD	04209H
$unwind$dump_cache DD 032e19H
	DD	01e011cH
	DD	07015H
	DD	imagerel __GSHandlerCheck
	DD	0e0H
$unwind$dump_tdb DD 042519H
	DD	0870113H
	DD	0600b700cH
	DD	imagerel __GSHandlerCheck
	DD	0420H
$unwind$txf_why_str DD 021501H
	DD	0450115H
$unwind$is_TXF_model DD 010901H
	DD	02209H
$unwind$defsym_TXF_models DD 010401H
	DD	06204H
$unwind$txf_model_warning DD 010801H
	DD	0a208H
$unwind$txf_set_timerint DD 010801H
	DD	0c208H
$unwind$txf_maddr_l DD 041d01H
	DD	01d011dH
	DD	060157016H
$unwind$s370_abort_transaction DD 011701H
	DD	02217H
$unwind$s390_abort_transaction DD 011701H
	DD	02217H
$unwind$z900_abort_transaction DD 042e19H
	DD	067011cH
	DD	060147015H
	DD	imagerel __GSHandlerCheck
	DD	0320H
$unwind$z900_txf_do_pi_filtering DD 021001H
	DD	0110110H
$unwind$alloc_txfmap DD 020a01H
	DD	07006d20aH
$unwind$free_txfmap DD 020a01H
	DD	07006b20aH
$unwind$txf_abort_all DD 011201H
	DD	0a212H
$unwind$synchronize_cpus DD 010e01H
	DD	0a20eH
$unwind$Interrupt_Lock_Obtained DD 010e01H
	DD	0420eH
$unwind$Obtain_Interrupt_Lock DD 010e01H
	DD	0420eH
$unwind$Release_Interrupt_Lock DD 010e01H
	DD	0420eH
$unwind$z900_perform_processor_assist DD 010e01H
	DD	0c20eH
$unwind$z900_transaction_begin_constrained DD 010e01H
	DD	0e20eH
$unwind$z900_transaction_end DD 041301H
	DD	02f0113H
	DD	0600b700cH
$unwind$z900_extract_transaction_nesting_depth DD 010e01H
	DD	0e20eH
$unwind$z900_transaction_abort DD 010e01H
	DD	0e20eH
$unwind$z900_nontransactional_store DD 010e01H
	DD	0c20eH
$unwind$z900_transaction_begin DD 010e01H
	DD	0e20eH
$unwind$z900_process_tbegin DD 042f19H
	DD	025011dH
	DD	060157016H
	DD	imagerel __GSHandlerCheck
	DD	0118H
$unwind$tac2name DD 010d01H
	DD	0620dH
xdata	ENDS
;	COMDAT xdata
xdata	SEGMENT
$unwind$_vsnprintf_s DD 011801H
	DD	06218H
xdata	ENDS
;	COMDAT xdata
xdata	SEGMENT
$unwind$_vsnprintf_s_l DD 011801H
	DD	0a218H
xdata	ENDS
; Function compile flags: /Odtp
; File C:\papa\MyGit\hyperion-zvector\transact.c
_TEXT	SEGMENT
tv68 = 0
tv76 = 8
tv80 = 16
tv83 = 24
tv84 = 32
tac$ = 64
bLong$ = 72
tac2name PROC

; 2231 : {

  00000	88 54 24 10	 mov	 BYTE PTR [rsp+16], dl
  00004	48 89 4c 24 08	 mov	 QWORD PTR [rsp+8], rcx
  00009	48 83 ec 38	 sub	 rsp, 56			; 00000038H

; 2232 :     if (tac < (_countof( tac_names )/2))

  0000d	48 83 7c 24 40
	14		 cmp	 QWORD PTR tac$[rsp], 20
  00013	73 36		 jae	 SHORT $LN2@tac2name

; 2233 :         return tac_names[ (tac * 2) + (bLong ? 1 : 0) ];

  00015	0f b6 44 24 48	 movzx	 eax, BYTE PTR bLong$[rsp]
  0001a	85 c0		 test	 eax, eax
  0001c	74 09		 je	 SHORT $LN5@tac2name
  0001e	c7 04 24 01 00
	00 00		 mov	 DWORD PTR tv68[rsp], 1
  00025	eb 07		 jmp	 SHORT $LN6@tac2name
$LN5@tac2name:
  00027	c7 04 24 00 00
	00 00		 mov	 DWORD PTR tv68[rsp], 0
$LN6@tac2name:
  0002e	48 63 04 24	 movsxd	 rax, DWORD PTR tv68[rsp]
  00032	48 8b 4c 24 40	 mov	 rcx, QWORD PTR tac$[rsp]
  00037	48 8d 04 48	 lea	 rax, QWORD PTR [rax+rcx*2]
  0003b	48 8d 0d 00 00
	00 00		 lea	 rcx, OFFSET FLAT:tac_names
  00042	48 8b 04 c1	 mov	 rax, QWORD PTR [rcx+rax*8]
  00046	e9 a1 00 00 00	 jmp	 $LN1@tac2name
$LN2@tac2name:

; 2234 :     if (tac < 255) return (bLong ? "(undefined Abort Code)"  : "TAC_?????"  );

  0004b	48 81 7c 24 40
	ff 00 00 00	 cmp	 QWORD PTR tac$[rsp], 255 ; 000000ffH
  00054	73 2a		 jae	 SHORT $LN3@tac2name
  00056	0f b6 44 24 48	 movzx	 eax, BYTE PTR bLong$[rsp]
  0005b	85 c0		 test	 eax, eax
  0005d	74 0e		 je	 SHORT $LN7@tac2name
  0005f	48 8d 05 00 00
	00 00		 lea	 rax, OFFSET FLAT:$SG194128
  00066	48 89 44 24 08	 mov	 QWORD PTR tv76[rsp], rax
  0006b	eb 0c		 jmp	 SHORT $LN8@tac2name
$LN7@tac2name:
  0006d	48 8d 05 00 00
	00 00		 lea	 rax, OFFSET FLAT:$SG194129
  00074	48 89 44 24 08	 mov	 QWORD PTR tv76[rsp], rax
$LN8@tac2name:
  00079	48 8b 44 24 08	 mov	 rax, QWORD PTR tv76[rsp]
  0007e	eb 6c		 jmp	 SHORT $LN1@tac2name
$LN3@tac2name:

; 2235 :     return (tac == 255) ? (bLong ? "Miscellaneous condition" : "TAC_MISC"   )

  00080	48 81 7c 24 40
	ff 00 00 00	 cmp	 QWORD PTR tac$[rsp], 255 ; 000000ffH
  00089	75 2f		 jne	 SHORT $LN13@tac2name
  0008b	0f b6 44 24 48	 movzx	 eax, BYTE PTR bLong$[rsp]
  00090	85 c0		 test	 eax, eax
  00092	74 0e		 je	 SHORT $LN9@tac2name
  00094	48 8d 05 00 00
	00 00		 lea	 rax, OFFSET FLAT:$SG194130
  0009b	48 89 44 24 10	 mov	 QWORD PTR tv80[rsp], rax
  000a0	eb 0c		 jmp	 SHORT $LN10@tac2name
$LN9@tac2name:
  000a2	48 8d 05 00 00
	00 00		 lea	 rax, OFFSET FLAT:$SG194131
  000a9	48 89 44 24 10	 mov	 QWORD PTR tv80[rsp], rax
$LN10@tac2name:
  000ae	48 8b 44 24 10	 mov	 rax, QWORD PTR tv80[rsp]
  000b3	48 89 44 24 20	 mov	 QWORD PTR tv84[rsp], rax
  000b8	eb 2d		 jmp	 SHORT $LN14@tac2name
$LN13@tac2name:
  000ba	0f b6 44 24 48	 movzx	 eax, BYTE PTR bLong$[rsp]
  000bf	85 c0		 test	 eax, eax
  000c1	74 0e		 je	 SHORT $LN11@tac2name
  000c3	48 8d 05 00 00
	00 00		 lea	 rax, OFFSET FLAT:$SG194132
  000ca	48 89 44 24 18	 mov	 QWORD PTR tv83[rsp], rax
  000cf	eb 0c		 jmp	 SHORT $LN12@tac2name
$LN11@tac2name:
  000d1	48 8d 05 00 00
	00 00		 lea	 rax, OFFSET FLAT:$SG194133
  000d8	48 89 44 24 18	 mov	 QWORD PTR tv83[rsp], rax
$LN12@tac2name:
  000dd	48 8b 44 24 18	 mov	 rax, QWORD PTR tv83[rsp]
  000e2	48 89 44 24 20	 mov	 QWORD PTR tv84[rsp], rax
$LN14@tac2name:
  000e7	48 8b 44 24 20	 mov	 rax, QWORD PTR tv84[rsp]
$LN1@tac2name:

; 2236 :                         : (bLong ? "TABORT instruction"      : "TAC_TABORT" );
; 2237 : }

  000ec	48 83 c4 38	 add	 rsp, 56			; 00000038H
  000f0	c3		 ret	 0
tac2name ENDP
_TEXT	ENDS
; Function compile flags: /Odtp
; File C:\papa\MyGit\hyperion-zvector\transact.c
_TEXT	SEGMENT
n$ = 112
tv177 = 116
tv242 = 120
tv251 = 124
tv268 = 128
tv321 = 132
tv427 = 136
pmap$ = 144
tdc$ = 152
tv322 = 156
tv506 = 160
tv525 = 164
tv626 = 168
tv319 = 176
tv511 = 184
tv516 = 192
tv522 = 200
tv617 = 208
tv623 = 216
tv527 = 224
tv628 = 232
origpsw$1 = 240
__$ArrayPad$ = 280
txf_contran$ = 320
regs$ = 328
i2$ = 336
tdba$ = 344
b1$ = 352
z900_process_tbegin PROC

; 754  : {

$LN88:
  00000	4c 89 4c 24 20	 mov	 QWORD PTR [rsp+32], r9
  00005	66 44 89 44 24
	18		 mov	 WORD PTR [rsp+24], r8w
  0000b	48 89 54 24 10	 mov	 QWORD PTR [rsp+16], rdx
  00010	88 4c 24 08	 mov	 BYTE PTR [rsp+8], cl
  00014	56		 push	 rsi
  00015	57		 push	 rdi
  00016	48 81 ec 28 01
	00 00		 sub	 rsp, 296		; 00000128H
  0001d	48 8b 05 00 00
	00 00		 mov	 rax, QWORD PTR __security_cookie
  00024	48 33 c4	 xor	 rax, rsp
  00027	48 89 84 24 18
	01 00 00	 mov	 QWORD PTR __$ArrayPad$[rsp], rax

; 755  : int         n, tdc;
; 756  : TPAGEMAP   *pmap;
; 757  : 
; 758  :     /* Temporarily pause other CPUs while TBEGIN/TBEGINC is processed.
; 759  :        NOTE: this *must* be done *BEFORE* checking nesting depth. */
; 760  :     SYNCHRONIZE_CPUS( regs );

  0002f	48 8d 15 00 00
	00 00		 lea	 rdx, OFFSET FLAT:$SG193295
  00036	48 8b 8c 24 48
	01 00 00	 mov	 rcx, QWORD PTR regs$[rsp]
  0003e	e8 00 00 00 00	 call	 synchronize_cpus

; 761  : 
; 762  :     PERFORM_SERIALIZATION( regs );

  00043	0f ae f0	 mfence

; 763  : 
; 764  :     /* Check for maximum nesting depth exceeded */
; 765  :     if (regs->txf_tnd >= MAX_TXF_TND)

  00046	48 8b 84 24 48
	01 00 00	 mov	 rax, QWORD PTR regs$[rsp]
  0004e	0f b6 80 58 0e
	00 00		 movzx	 eax, BYTE PTR [rax+3672]
  00055	83 f8 0f	 cmp	 eax, 15
  00058	0f 8c ac 00 00
	00		 jl	 $LN22@z900_proce
$LN4@z900_proce:

; 766  :     {
; 767  :         PTT_TXF( "*TXF beg", MAX_TXF_TND, regs->txf_contran, regs->txf_tnd );

  0005e	48 8b 05 00 00
	00 00		 mov	 rax, QWORD PTR __imp_pttclass
  00065	48 8b 00	 mov	 rax, QWORD PTR [rax]
  00068	48 25 00 04 00
	00		 and	 rax, 1024		; 00000400H
  0006e	48 85 c0	 test	 rax, rax
  00071	74 53		 je	 SHORT $LN23@z900_proce
  00073	48 8b 84 24 48
	01 00 00	 mov	 rax, QWORD PTR regs$[rsp]
  0007b	0f b6 80 58 0e
	00 00		 movzx	 eax, BYTE PTR [rax+3672]
  00082	48 8b 8c 24 48
	01 00 00	 mov	 rcx, QWORD PTR regs$[rsp]
  0008a	0f b6 89 4c 0e
	00 00		 movzx	 ecx, BYTE PTR [rcx+3660]
  00091	48 c7 44 24 30
	00 00 00 00	 mov	 QWORD PTR [rsp+48], 0
  0009a	48 89 44 24 28	 mov	 QWORD PTR [rsp+40], rax
  0009f	48 8d 05 00 00
	00 00		 lea	 rax, OFFSET FLAT:$SG193298
  000a6	48 89 44 24 20	 mov	 QWORD PTR [rsp+32], rax
  000ab	44 8b c9	 mov	 r9d, ecx
  000ae	41 b8 0f 00 00
	00		 mov	 r8d, 15
  000b4	48 8d 15 00 00
	00 00		 lea	 rdx, OFFSET FLAT:$SG193299
  000bb	b9 00 04 00 00	 mov	 ecx, 1024		; 00000400H
  000c0	ff 15 00 00 00
	00		 call	 QWORD PTR __imp_ptt_pthread_trace
$LN23@z900_proce:
  000c6	33 c0		 xor	 eax, eax
  000c8	85 c0		 test	 eax, eax
  000ca	75 92		 jne	 SHORT $LN4@z900_proce

; 768  :         regs->txf_why |= TXF_WHY_NESTING;

  000cc	48 8b 84 24 48
	01 00 00	 mov	 rax, QWORD PTR regs$[rsp]
  000d4	8b 80 84 af 00
	00		 mov	 eax, DWORD PTR [rax+44932]
  000da	83 c8 20	 or	 eax, 32			; 00000020H
  000dd	48 8b 8c 24 48
	01 00 00	 mov	 rcx, QWORD PTR regs$[rsp]
  000e5	89 81 84 af 00
	00		 mov	 DWORD PTR [rcx+44932], eax

; 769  :         ABORT_TRANS( regs, ABORT_RETRY_PGMCHK, TAC_NESTING );

  000eb	4c 8d 0d 00 00
	00 00		 lea	 r9, OFFSET FLAT:$SG193300
  000f2	41 b8 0d 00 00
	00		 mov	 r8d, 13
  000f8	ba 02 00 00 00	 mov	 edx, 2
  000fd	48 8b 8c 24 48
	01 00 00	 mov	 rcx, QWORD PTR regs$[rsp]
  00105	e8 00 00 00 00	 call	 z900_abort_transaction
$LN22@z900_proce:

; 770  :         UNREACHABLE_CODE( return );
; 771  :     }
; 772  : 
; 773  :     /* Count transaction */
; 774  :     atomic_update32( &sysblk.txf_counter, +1 );

  0010a	48 8b 05 00 00
	00 00		 mov	 rax, QWORD PTR __imp_sysblk
  00111	48 05 70 05 00
	00		 add	 rax, 1392		; 00000570H
  00117	ba 01 00 00 00	 mov	 edx, 1
  0011c	48 8b c8	 mov	 rcx, rax
  0011f	e8 00 00 00 00	 call	 atomic_update32
$LN7@z900_proce:

; 775  : 
; 776  :     TXFC_INSTR_CHECK( regs );    /* Unallowed in CONSTRAINED mode */

  00124	48 8b 84 24 48
	01 00 00	 mov	 rax, QWORD PTR regs$[rsp]
  0012c	0f b6 80 4c 0e
	00 00		 movzx	 eax, BYTE PTR [rax+3660]
  00133	85 c0		 test	 eax, eax
  00135	74 3f		 je	 SHORT $LN24@z900_proce
  00137	48 8b 84 24 48
	01 00 00	 mov	 rax, QWORD PTR regs$[rsp]
  0013f	8b 80 84 af 00
	00		 mov	 eax, DWORD PTR [rax+44932]
  00145	0f ba e8 0f	 bts	 eax, 15
  00149	48 8b 8c 24 48
	01 00 00	 mov	 rcx, QWORD PTR regs$[rsp]
  00151	89 81 84 af 00
	00		 mov	 DWORD PTR [rcx+44932], eax
  00157	4c 8d 0d 00 00
	00 00		 lea	 r9, OFFSET FLAT:$SG193302
  0015e	41 b8 0b 00 00
	00		 mov	 r8d, 11
  00164	ba 02 00 00 00	 mov	 edx, 2
  00169	48 8b 8c 24 48
	01 00 00	 mov	 rcx, QWORD PTR regs$[rsp]
  00171	e8 00 00 00 00	 call	 z900_abort_transaction
$LN24@z900_proce:
  00176	33 c0		 xor	 eax, eax
  00178	85 c0		 test	 eax, eax
  0017a	75 a8		 jne	 SHORT $LN7@z900_proce

; 777  : 
; 778  :     /*---------------------------------------------*/
; 779  :     /*  Increase nesting depth                     */
; 780  :     /*---------------------------------------------*/
; 781  :     OBTAIN_TXFLOCK( regs );

  0017c	48 8b 84 24 48
	01 00 00	 mov	 rax, QWORD PTR regs$[rsp]
  00184	0f b7 80 3c 08
	00 00		 movzx	 eax, WORD PTR [rax+2108]
  0018b	48 8b 0d 00 00
	00 00		 mov	 rcx, QWORD PTR __imp_sysblk
  00192	48 8d 84 c1 48
	03 00 00	 lea	 rax, QWORD PTR [rcx+rax*8+840]
  0019a	48 8d 15 00 00
	00 00		 lea	 rdx, OFFSET FLAT:$SG193303
  001a1	48 8b c8	 mov	 rcx, rax
  001a4	ff 15 00 00 00
	00		 call	 QWORD PTR __imp_hthread_obtain_lock

; 782  :     {
; 783  :         regs->txf_tnd++;

  001aa	48 8b 84 24 48
	01 00 00	 mov	 rax, QWORD PTR regs$[rsp]
  001b2	0f b6 80 58 0e
	00 00		 movzx	 eax, BYTE PTR [rax+3672]
  001b9	fe c0		 inc	 al
  001bb	48 8b 8c 24 48
	01 00 00	 mov	 rcx, QWORD PTR regs$[rsp]
  001c3	88 81 58 0e 00
	00		 mov	 BYTE PTR [rcx+3672], al

; 784  :     }
; 785  :     RELEASE_TXFLOCK( regs );

  001c9	48 8b 84 24 48
	01 00 00	 mov	 rax, QWORD PTR regs$[rsp]
  001d1	0f b7 80 3c 08
	00 00		 movzx	 eax, WORD PTR [rax+2108]
  001d8	48 8b 0d 00 00
	00 00		 mov	 rcx, QWORD PTR __imp_sysblk
  001df	48 8d 84 c1 48
	03 00 00	 lea	 rax, QWORD PTR [rcx+rax*8+840]
  001e7	48 8d 15 00 00
	00 00		 lea	 rdx, OFFSET FLAT:$SG193304
  001ee	48 8b c8	 mov	 rcx, rax
  001f1	ff 15 00 00 00
	00		 call	 QWORD PTR __imp_hthread_release_lock

; 786  : 
; 787  :     /* set cc=0 at transaction start */
; 788  :     regs->psw.cc = TXF_CC_SUCCESS;

  001f7	48 8b 84 24 48
	01 00 00	 mov	 rax, QWORD PTR regs$[rsp]
  001ff	c6 40 7c 00	 mov	 BYTE PTR [rax+124], 0
$LN10@z900_proce:

; 789  : 
; 790  :     TXF_TRACE_INIT( regs );

  00203	48 8b 84 24 48
	01 00 00	 mov	 rax, QWORD PTR regs$[rsp]
  0020b	48 8b 8c 24 48
	01 00 00	 mov	 rcx, QWORD PTR regs$[rsp]
  00213	8b 89 84 af 00
	00		 mov	 ecx, DWORD PTR [rcx+44932]
  00219	89 88 ac af 00
	00		 mov	 DWORD PTR [rax+44972], ecx
  0021f	48 8b 84 24 48
	01 00 00	 mov	 rax, QWORD PTR regs$[rsp]
  00227	0f bf 80 3c 08
	00 00		 movsx	 eax, WORD PTR [rax+2108]
  0022e	48 8b 8c 24 48
	01 00 00	 mov	 rcx, QWORD PTR regs$[rsp]
  00236	89 81 b0 af 00
	00		 mov	 DWORD PTR [rcx+44976], eax
  0023c	48 8b 84 24 48
	01 00 00	 mov	 rax, QWORD PTR regs$[rsp]
  00244	0f b6 80 58 0e
	00 00		 movzx	 eax, BYTE PTR [rax+3672]
  0024b	48 8b 8c 24 48
	01 00 00	 mov	 rcx, QWORD PTR regs$[rsp]
  00253	89 81 b4 af 00
	00		 mov	 DWORD PTR [rcx+44980], eax
  00259	48 8b 84 24 48
	01 00 00	 mov	 rax, QWORD PTR regs$[rsp]
  00261	48 8b 8c 24 48
	01 00 00	 mov	 rcx, QWORD PTR regs$[rsp]
  00269	8b 89 08 af 00
	00		 mov	 ecx, DWORD PTR [rcx+44808]
  0026f	89 88 b8 af 00
	00		 mov	 DWORD PTR [rax+44984], ecx
  00275	48 8b 84 24 48
	01 00 00	 mov	 rax, QWORD PTR regs$[rsp]
  0027d	48 8b 8c 24 48
	01 00 00	 mov	 rcx, QWORD PTR regs$[rsp]
  00285	8b 89 50 0e 00
	00		 mov	 ecx, DWORD PTR [rcx+3664]
  0028b	89 88 bc af 00
	00		 mov	 DWORD PTR [rax+44988], ecx
  00291	33 c0		 xor	 eax, eax
  00293	85 c0		 test	 eax, eax
  00295	0f 85 68 ff ff
	ff		 jne	 $LN10@z900_proce

; 791  : 
; 792  :     /* first/outermost transaction? */
; 793  :     if (regs->txf_tnd == 1)

  0029b	48 8b 84 24 48
	01 00 00	 mov	 rax, QWORD PTR regs$[rsp]
  002a3	0f b6 80 58 0e
	00 00		 movzx	 eax, BYTE PTR [rax+3672]
  002aa	83 f8 01	 cmp	 eax, 1
  002ad	0f 85 6e 05 00
	00		 jne	 $LN25@z900_proce

; 794  :     {
; 795  :         /*-----------------------------------------------------------*/
; 796  :         /*              BEGIN OUTERMOST TRANSACTION                  */
; 797  :         /*-----------------------------------------------------------*/
; 798  : 
; 799  :         /* Count total transactions */
; 800  :         if (!regs->txf_aborts)

  002b3	48 8b 84 24 48
	01 00 00	 mov	 rax, QWORD PTR regs$[rsp]
  002bb	83 b8 50 0e 00
	00 00		 cmp	 DWORD PTR [rax+3664], 0
  002c2	75 46		 jne	 SHORT $LN27@z900_proce

; 801  :             TXF_STATS( trans, txf_contran );

  002c4	0f b6 84 24 40
	01 00 00	 movzx	 eax, BYTE PTR txf_contran$[rsp]
  002cc	85 c0		 test	 eax, eax
  002ce	74 0a		 je	 SHORT $LN66@z900_proce
  002d0	c7 44 24 74 01
	00 00 00	 mov	 DWORD PTR tv177[rsp], 1
  002d8	eb 08		 jmp	 SHORT $LN67@z900_proce
$LN66@z900_proce:
  002da	c7 44 24 74 00
	00 00 00	 mov	 DWORD PTR tv177[rsp], 0
$LN67@z900_proce:
  002e2	48 63 44 24 74	 movsxd	 rax, DWORD PTR tv177[rsp]
  002e7	48 69 c0 e8 00
	00 00		 imul	 rax, rax, 232		; 000000e8H
  002ee	48 8b 0d 00 00
	00 00		 mov	 rcx, QWORD PTR __imp_sysblk
  002f5	48 8d 84 01 78
	05 00 00	 lea	 rax, QWORD PTR [rcx+rax+1400]
  002fd	ba 01 00 00 00	 mov	 edx, 1
  00302	48 8b c8	 mov	 rcx, rax
  00305	e8 00 00 00 00	 call	 atomic_update64
$LN27@z900_proce:

; 802  : 
; 803  :         /* Set internal TDB to invalid until it's actually populated */
; 804  :         memset( &regs->txf_tdb, 0, sizeof( TDB ));

  0030a	48 8b 84 24 48
	01 00 00	 mov	 rax, QWORD PTR regs$[rsp]
  00312	48 05 4b 0d 00
	00		 add	 rax, 3403		; 00000d4bH
  00318	48 8b f8	 mov	 rdi, rax
  0031b	33 c0		 xor	 eax, eax
  0031d	b9 00 01 00 00	 mov	 ecx, 256		; 00000100H
  00322	f3 aa		 rep stosb

; 805  : 
; 806  :         /* Initialize the page map */
; 807  : 
; 808  :         pmap = regs->txf_pagesmap;

  00324	48 8b 84 24 48
	01 00 00	 mov	 rax, QWORD PTR regs$[rsp]
  0032c	48 05 80 0e 00
	00		 add	 rax, 3712		; 00000e80H
  00332	48 89 84 24 90
	00 00 00	 mov	 QWORD PTR pmap$[rsp], rax

; 809  :         regs->txf_pgcnt = 0;

  0033a	48 8b 84 24 48
	01 00 00	 mov	 rax, QWORD PTR regs$[rsp]
  00342	c7 80 80 ae 00
	00 00 00 00 00	 mov	 DWORD PTR [rax+44672], 0

; 810  : 
; 811  :         for (n=0; n < MAX_TXF_PAGES; n++, pmap++)

  0034c	c7 44 24 70 00
	00 00 00	 mov	 DWORD PTR n$[rsp], 0
  00354	eb 1e		 jmp	 SHORT $LN13@z900_proce
$LN11@z900_proce:
  00356	8b 44 24 70	 mov	 eax, DWORD PTR n$[rsp]
  0035a	ff c0		 inc	 eax
  0035c	89 44 24 70	 mov	 DWORD PTR n$[rsp], eax
  00360	48 8b 84 24 90
	00 00 00	 mov	 rax, QWORD PTR pmap$[rsp]
  00368	48 83 c0 28	 add	 rax, 40			; 00000028H
  0036c	48 89 84 24 90
	00 00 00	 mov	 QWORD PTR pmap$[rsp], rax
$LN13@z900_proce:
  00374	81 7c 24 70 00
	04 00 00	 cmp	 DWORD PTR n$[rsp], 1024	; 00000400H
  0037c	7d 2a		 jge	 SHORT $LN12@z900_proce

; 812  :         {
; 813  :             pmap->mainpageaddr = NULL;

  0037e	48 8b 84 24 90
	00 00 00	 mov	 rax, QWORD PTR pmap$[rsp]
  00386	48 c7 40 08 00
	00 00 00	 mov	 QWORD PTR [rax+8], 0

; 814  :             memset( pmap->cachemap, CM_CLEAN, sizeof( pmap->cachemap ));

  0038e	48 8b 84 24 90
	00 00 00	 mov	 rax, QWORD PTR pmap$[rsp]
  00396	48 83 c0 18	 add	 rax, 24
  0039a	48 8b f8	 mov	 rdi, rax
  0039d	33 c0		 xor	 eax, eax
  0039f	b9 10 00 00 00	 mov	 ecx, 16
  003a4	f3 aa		 rep stosb

; 815  :         }

  003a6	eb ae		 jmp	 SHORT $LN11@z900_proce
$LN12@z900_proce:

; 816  : 
; 817  :         /* Initialize other fields */
; 818  : 
; 819  :         regs->txf_UPGM_abort = false;      /* reset flag             */

  003a8	48 8b 84 24 48
	01 00 00	 mov	 rax, QWORD PTR regs$[rsp]
  003b0	c6 80 4d 0e 00
	00 00		 mov	 BYTE PTR [rax+3661], 0

; 820  :         regs->txf_contran    = txf_contran;/* set transaction type   */

  003b7	48 8b 84 24 48
	01 00 00	 mov	 rax, QWORD PTR regs$[rsp]
  003bf	0f b6 8c 24 40
	01 00 00	 movzx	 ecx, BYTE PTR txf_contran$[rsp]
  003c7	88 88 4c 0e 00
	00		 mov	 BYTE PTR [rax+3660], cl

; 821  :         regs->txf_instctr    = 0;          /* instruction counter    */

  003cd	33 c0		 xor	 eax, eax
  003cf	48 8b 8c 24 48
	01 00 00	 mov	 rcx, QWORD PTR regs$[rsp]
  003d7	66 89 81 5e 0e
	00 00		 mov	 WORD PTR [rcx+3678], ax

; 822  :         regs->txf_abortctr   = 0;          /* abort instr count      */

  003de	33 c0		 xor	 eax, eax
  003e0	48 8b 8c 24 48
	01 00 00	 mov	 rcx, QWORD PTR regs$[rsp]
  003e8	66 89 81 60 0e
	00 00		 mov	 WORD PTR [rcx+3680], ax

; 823  :         regs->txf_tac        = 0;          /* clear the abort code   */

  003ef	48 8b 84 24 48
	01 00 00	 mov	 rax, QWORD PTR regs$[rsp]
  003f7	c7 80 08 af 00
	00 00 00 00 00	 mov	 DWORD PTR [rax+44808], 0

; 824  :         regs->txf_conflict   = 0;          /* clear conflict address */

  00401	48 8b 84 24 48
	01 00 00	 mov	 rax, QWORD PTR regs$[rsp]
  00409	48 c7 80 78 0e
	00 00 00 00 00
	00		 mov	 QWORD PTR [rax+3704], 0

; 825  :         regs->txf_piid       = 0;          /* program interrupt id   */

  00414	48 8b 84 24 48
	01 00 00	 mov	 rax, QWORD PTR regs$[rsp]
  0041c	c7 80 7c af 00
	00 00 00 00 00	 mov	 DWORD PTR [rax+44924], 0

; 826  :         regs->txf_lastarn    = 0;          /* last access arn        */

  00426	48 8b 84 24 48
	01 00 00	 mov	 rax, QWORD PTR regs$[rsp]
  0042e	c7 80 88 af 00
	00 00 00 00 00	 mov	 DWORD PTR [rax+44936], 0

; 827  :         regs->txf_why        = 0;          /* no abort cause (yet)   */

  00438	48 8b 84 24 48
	01 00 00	 mov	 rax, QWORD PTR regs$[rsp]
  00440	c7 80 84 af 00
	00 00 00 00 00	 mov	 DWORD PTR [rax+44932], 0

; 828  : 
; 829  :         memcpy( regs->txf_savedgr, regs->gr, sizeof( regs->txf_savedgr ));

  0044a	48 8b 84 24 48
	01 00 00	 mov	 rax, QWORD PTR regs$[rsp]
  00452	48 8b 8c 24 48
	01 00 00	 mov	 rcx, QWORD PTR regs$[rsp]
  0045a	48 8d b8 88 ae
	00 00		 lea	 rdi, QWORD PTR [rax+44680]
  00461	48 8d b1 80 02
	00 00		 lea	 rsi, QWORD PTR [rcx+640]
  00468	b9 80 00 00 00	 mov	 ecx, 128		; 00000080H
  0046d	f3 a4		 rep movsb

; 830  :         memset( regs->txf_pifctab, 0, sizeof( regs->txf_pifctab ));

  0046f	48 8b 84 24 48
	01 00 00	 mov	 rax, QWORD PTR regs$[rsp]
  00477	48 05 8c af 00
	00		 add	 rax, 44940		; 0000af8cH
  0047d	48 8b f8	 mov	 rdi, rax
  00480	33 c0		 xor	 eax, eax
  00482	b9 1e 00 00 00	 mov	 ecx, 30
  00487	f3 aa		 rep stosb

; 831  : 
; 832  :         regs->txf_ctlflag      = (i2 >> 0) & (TXF_CTL_AR | TXF_CTL_FLOAT);

  00489	0f bf 84 24 50
	01 00 00	 movsx	 eax, WORD PTR i2$[rsp]
  00491	83 e0 0c	 and	 eax, 12
  00494	48 8b 8c 24 48
	01 00 00	 mov	 rcx, QWORD PTR regs$[rsp]
  0049c	88 81 59 0e 00
	00		 mov	 BYTE PTR [rcx+3673], al

; 833  :         regs->txf_pifc         = (i2 >> 0) & (TXF_CTL_PIFC);

  004a2	0f bf 84 24 50
	01 00 00	 movsx	 eax, WORD PTR i2$[rsp]
  004aa	83 e0 03	 and	 eax, 3
  004ad	48 8b 8c 24 48
	01 00 00	 mov	 rcx, QWORD PTR regs$[rsp]
  004b5	66 89 81 62 0e
	00 00		 mov	 WORD PTR [rcx+3682], ax

; 834  :         regs->txf_gprmask      = (i2 >> 8) & (0xFF);

  004bc	0f bf 84 24 50
	01 00 00	 movsx	 eax, WORD PTR i2$[rsp]
  004c4	c1 f8 08	 sar	 eax, 8
  004c7	25 ff 00 00 00	 and	 eax, 255		; 000000ffH
  004cc	48 8b 8c 24 48
	01 00 00	 mov	 rcx, QWORD PTR regs$[rsp]
  004d4	88 81 84 ae 00
	00		 mov	 BYTE PTR [rcx+44676], al

; 835  :         regs->txf_higharchange = (regs->txf_ctlflag & TXF_CTL_AR)    ? regs->txf_tnd : 0;

  004da	48 8b 84 24 48
	01 00 00	 mov	 rax, QWORD PTR regs$[rsp]
  004e2	0f b6 80 59 0e
	00 00		 movzx	 eax, BYTE PTR [rax+3673]
  004e9	83 e0 08	 and	 eax, 8
  004ec	85 c0		 test	 eax, eax
  004ee	74 15		 je	 SHORT $LN68@z900_proce
  004f0	48 8b 84 24 48
	01 00 00	 mov	 rax, QWORD PTR regs$[rsp]
  004f8	0f b6 80 58 0e
	00 00		 movzx	 eax, BYTE PTR [rax+3672]
  004ff	89 44 24 78	 mov	 DWORD PTR tv242[rsp], eax
  00503	eb 08		 jmp	 SHORT $LN69@z900_proce
$LN68@z900_proce:
  00505	c7 44 24 78 00
	00 00 00	 mov	 DWORD PTR tv242[rsp], 0
$LN69@z900_proce:
  0050d	48 8b 84 24 48
	01 00 00	 mov	 rax, QWORD PTR regs$[rsp]
  00515	0f b7 4c 24 78	 movzx	 ecx, WORD PTR tv242[rsp]
  0051a	66 89 88 5a 0e
	00 00		 mov	 WORD PTR [rax+3674], cx

; 836  :         regs->txf_highfloat    = (regs->txf_ctlflag & TXF_CTL_FLOAT) ? regs->txf_tnd : 0;

  00521	48 8b 84 24 48
	01 00 00	 mov	 rax, QWORD PTR regs$[rsp]
  00529	0f b6 80 59 0e
	00 00		 movzx	 eax, BYTE PTR [rax+3673]
  00530	83 e0 04	 and	 eax, 4
  00533	85 c0		 test	 eax, eax
  00535	74 15		 je	 SHORT $LN70@z900_proce
  00537	48 8b 84 24 48
	01 00 00	 mov	 rax, QWORD PTR regs$[rsp]
  0053f	0f b6 80 58 0e
	00 00		 movzx	 eax, BYTE PTR [rax+3672]
  00546	89 44 24 7c	 mov	 DWORD PTR tv251[rsp], eax
  0054a	eb 08		 jmp	 SHORT $LN71@z900_proce
$LN70@z900_proce:
  0054c	c7 44 24 7c 00
	00 00 00	 mov	 DWORD PTR tv251[rsp], 0
$LN71@z900_proce:
  00554	48 8b 84 24 48
	01 00 00	 mov	 rax, QWORD PTR regs$[rsp]
  0055c	0f b7 4c 24 7c	 movzx	 ecx, WORD PTR tv251[rsp]
  00561	66 89 88 5c 0e
	00 00		 mov	 WORD PTR [rax+3676], cx

; 837  :         regs->txf_tdba         = tdba;

  00568	48 8b 84 24 48
	01 00 00	 mov	 rax, QWORD PTR regs$[rsp]
  00570	48 8b 8c 24 58
	01 00 00	 mov	 rcx, QWORD PTR tdba$[rsp]
  00578	48 89 88 68 0e
	00 00		 mov	 QWORD PTR [rax+3688], rcx

; 838  :         regs->txf_tdba_b1      = b1;

  0057f	48 8b 84 24 48
	01 00 00	 mov	 rax, QWORD PTR regs$[rsp]
  00587	8b 8c 24 60 01
	00 00		 mov	 ecx, DWORD PTR b1$[rsp]
  0058e	89 88 70 0e 00
	00		 mov	 DWORD PTR [rax+3696], ecx

; 839  : 
; 840  :         /* Set CONSTRAINED trans instruction fetch constraint */
; 841  :         if (txf_contran)

  00594	0f b6 84 24 40
	01 00 00	 movzx	 eax, BYTE PTR txf_contran$[rsp]
  0059c	85 c0		 test	 eax, eax
  0059e	74 0d		 je	 SHORT $LN28@z900_proce

; 842  :             ARCH_DEP( set_txf_aie )( regs );

  005a0	48 8b 8c 24 48
	01 00 00	 mov	 rcx, QWORD PTR regs$[rsp]
  005a8	e8 00 00 00 00	 call	 z900_set_txf_aie
$LN28@z900_proce:

; 843  : 
; 844  :         /*----------------------------------*/
; 845  :         /*  Save the Transaction Abort PSW  */
; 846  :         /*----------------------------------*/
; 847  :         {
; 848  :             PSW origpsw;
; 849  :             memcpy( &origpsw, &regs->psw, sizeof( PSW ));

  005ad	48 8d 84 24 f0
	00 00 00	 lea	 rax, QWORD PTR origpsw$1[rsp]
  005b5	48 8b 8c 24 48
	01 00 00	 mov	 rcx, QWORD PTR regs$[rsp]
  005bd	48 8b f8	 mov	 rdi, rax
  005c0	48 8d 71 78	 lea	 rsi, QWORD PTR [rcx+120]
  005c4	b9 28 00 00 00	 mov	 ecx, 40			; 00000028H
  005c9	f3 a4		 rep movsb

; 850  :             {
; 851  :                 n = txf_contran ? -6 : 0;

  005cb	0f b6 84 24 40
	01 00 00	 movzx	 eax, BYTE PTR txf_contran$[rsp]
  005d3	85 c0		 test	 eax, eax
  005d5	74 0d		 je	 SHORT $LN72@z900_proce
  005d7	c7 84 24 80 00
	00 00 fa ff ff
	ff		 mov	 DWORD PTR tv268[rsp], -6
  005e2	eb 0b		 jmp	 SHORT $LN73@z900_proce
$LN72@z900_proce:
  005e4	c7 84 24 80 00
	00 00 00 00 00
	00		 mov	 DWORD PTR tv268[rsp], 0
$LN73@z900_proce:
  005ef	8b 84 24 80 00
	00 00		 mov	 eax, DWORD PTR tv268[rsp]
  005f6	89 44 24 70	 mov	 DWORD PTR n$[rsp], eax

; 852  :                 regs->psw.IA = PSW_IA_FROM_IP( regs, n );

  005fa	48 8b 84 24 48
	01 00 00	 mov	 rax, QWORD PTR regs$[rsp]
  00602	48 8b 8c 24 48
	01 00 00	 mov	 rcx, QWORD PTR regs$[rsp]
  0060a	48 8b 89 00 02
	00 00		 mov	 rcx, QWORD PTR [rcx+512]
  00611	48 8b 40 68	 mov	 rax, QWORD PTR [rax+104]
  00615	48 2b c1	 sub	 rax, rcx
  00618	48 8b 8c 24 48
	01 00 00	 mov	 rcx, QWORD PTR regs$[rsp]
  00620	48 8b 89 10 02
	00 00		 mov	 rcx, QWORD PTR [rcx+528]
  00627	48 03 c8	 add	 rcx, rax
  0062a	48 8b c1	 mov	 rax, rcx
  0062d	48 63 4c 24 70	 movsxd	 rcx, DWORD PTR n$[rsp]
  00632	48 03 c1	 add	 rax, rcx
  00635	48 8b 8c 24 48
	01 00 00	 mov	 rcx, QWORD PTR regs$[rsp]
  0063d	48 23 81 90 00
	00 00		 and	 rax, QWORD PTR [rcx+144]
  00644	48 8b 8c 24 48
	01 00 00	 mov	 rcx, QWORD PTR regs$[rsp]
  0064c	48 89 81 88 00
	00 00		 mov	 QWORD PTR [rcx+136], rax

; 853  :                 memcpy( &regs->txf_tapsw, &regs->psw, sizeof( PSW ));

  00653	48 8b 84 24 48
	01 00 00	 mov	 rax, QWORD PTR regs$[rsp]
  0065b	48 8b 8c 24 48
	01 00 00	 mov	 rcx, QWORD PTR regs$[rsp]
  00663	48 8d b8 20 af
	00 00		 lea	 rdi, QWORD PTR [rax+44832]
  0066a	48 8d 71 78	 lea	 rsi, QWORD PTR [rcx+120]
  0066e	b9 28 00 00 00	 mov	 ecx, 40			; 00000028H
  00673	f3 a4		 rep movsb

; 854  :                 regs->txf_ip  = regs->ip;

  00675	48 8b 84 24 48
	01 00 00	 mov	 rax, QWORD PTR regs$[rsp]
  0067d	48 8b 8c 24 48
	01 00 00	 mov	 rcx, QWORD PTR regs$[rsp]
  00685	48 8b 49 68	 mov	 rcx, QWORD PTR [rcx+104]
  00689	48 89 88 48 af
	00 00		 mov	 QWORD PTR [rax+44872], rcx

; 855  :                 regs->txf_aip = regs->aip;

  00690	48 8b 84 24 48
	01 00 00	 mov	 rax, QWORD PTR regs$[rsp]
  00698	48 8b 8c 24 48
	01 00 00	 mov	 rcx, QWORD PTR regs$[rsp]
  006a0	48 8b 89 00 02
	00 00		 mov	 rcx, QWORD PTR [rcx+512]
  006a7	48 89 88 50 af
	00 00		 mov	 QWORD PTR [rax+44880], rcx

; 856  :                 regs->txf_aiv = regs->aiv;

  006ae	48 8b 84 24 48
	01 00 00	 mov	 rax, QWORD PTR regs$[rsp]
  006b6	48 8b 80 10 02
	00 00		 mov	 rax, QWORD PTR [rax+528]
  006bd	48 8b 8c 24 48
	01 00 00	 mov	 rcx, QWORD PTR regs$[rsp]
  006c5	48 89 81 58 af
	00 00		 mov	 QWORD PTR [rcx+44888], rax

; 857  :             }
; 858  :             memcpy( &regs->psw, &origpsw, sizeof( PSW ));

  006cc	48 8b 84 24 48
	01 00 00	 mov	 rax, QWORD PTR regs$[rsp]
  006d4	48 8d 8c 24 f0
	00 00 00	 lea	 rcx, QWORD PTR origpsw$1[rsp]
  006dc	48 8d 78 78	 lea	 rdi, QWORD PTR [rax+120]
  006e0	48 8b f1	 mov	 rsi, rcx
  006e3	b9 28 00 00 00	 mov	 ecx, 40			; 00000028H
  006e8	f3 a4		 rep movsb

; 859  :         }
; 860  : 
; 861  :         /* Honor TDC (Transaction Diagnostic Control) setting */
; 862  : 
; 863  :         tdc = (int)

  006ea	33 c0		 xor	 eax, eax
  006ec	83 f8 01	 cmp	 eax, 1
  006ef	74 43		 je	 SHORT $LN74@z900_proce
  006f1	b8 08 00 00 00	 mov	 eax, 8
  006f6	48 6b c0 03	 imul	 rax, rax, 3
  006fa	48 8b 8c 24 48
	01 00 00	 mov	 rcx, QWORD PTR regs$[rsp]
  00702	48 8b 84 01 00
	06 00 00	 mov	 rax, QWORD PTR [rcx+rax+1536]
  0070a	48 83 e0 04	 and	 rax, 4
  0070e	48 85 c0	 test	 rax, rax
  00711	74 21		 je	 SHORT $LN74@z900_proce
  00713	48 8b 84 24 48
	01 00 00	 mov	 rax, QWORD PTR regs$[rsp]
  0071b	0f b6 40 7a	 movzx	 eax, BYTE PTR [rax+122]
  0071f	83 e0 01	 and	 eax, 1
  00722	85 c0		 test	 eax, eax
  00724	75 0e		 jne	 SHORT $LN74@z900_proce
  00726	48 c7 84 24 b0
	00 00 00 00 00
	00 00		 mov	 QWORD PTR tv319[rsp], 0
  00732	eb 25		 jmp	 SHORT $LN75@z900_proce
$LN74@z900_proce:
  00734	b8 08 00 00 00	 mov	 eax, 8
  00739	48 6b c0 03	 imul	 rax, rax, 3
  0073d	48 8b 8c 24 48
	01 00 00	 mov	 rcx, QWORD PTR regs$[rsp]
  00745	48 8b 84 01 00
	06 00 00	 mov	 rax, QWORD PTR [rcx+rax+1536]
  0074d	48 83 e0 03	 and	 rax, 3
  00751	48 89 84 24 b0
	00 00 00	 mov	 QWORD PTR tv319[rsp], rax
$LN75@z900_proce:
  00759	8b 84 24 b0 00
	00 00		 mov	 eax, DWORD PTR tv319[rsp]
  00760	89 84 24 98 00
	00 00		 mov	 DWORD PTR tdc$[rsp], eax

; 864  :         (1
; 865  :          && (regs->CR(2) & CR2_TDS)     /* TDC applies ONLY in problem state */
; 866  :          && !PROBSTATE( &regs->psw )    /* but CPU is *NOT* in problem state */
; 867  :         )
; 868  :         ? TDC_NORMAL                    /* Treat as if TDC contained zero    */
; 869  :         : (regs->CR(2) & CR2_TDC);      /* Otherwise, honor the TDC value    */
; 870  : 
; 871  :         switch (tdc)

  00767	8b 84 24 98 00
	00 00		 mov	 eax, DWORD PTR tdc$[rsp]
  0076e	89 84 24 84 00
	00 00		 mov	 DWORD PTR tv321[rsp], eax
  00775	83 bc 24 84 00
	00 00 01	 cmp	 DWORD PTR tv321[rsp], 1
  0077d	74 2f		 je	 SHORT $LN34@z900_proce
  0077f	83 bc 24 84 00
	00 00 02	 cmp	 DWORD PTR tv321[rsp], 2
  00787	74 05		 je	 SHORT $LN32@z900_proce

; 872  :         {
; 873  :             default:
; 874  :             case TDC_NORMAL:                /* NEVER randomly abort */
; 875  :             case TDC_RESERVED:
; 876  : 
; 877  :                 break;

  00789	e9 8e 00 00 00	 jmp	 $LN14@z900_proce
$LN32@z900_proce:

; 878  : 
; 879  :             case TDC_MAYBE_RANDOM:          /* MAYBE randomly abort */
; 880  : 
; 881  :                 if (rand() >= rand())

  0078e	ff 15 00 00 00
	00		 call	 QWORD PTR __imp_rand
  00794	89 84 24 9c 00
	00 00		 mov	 DWORD PTR tv322[rsp], eax
  0079b	ff 15 00 00 00
	00		 call	 QWORD PTR __imp_rand
  007a1	8b 8c 24 9c 00
	00 00		 mov	 ecx, DWORD PTR tv322[rsp]
  007a8	3b c8		 cmp	 ecx, eax
  007aa	7c 02		 jl	 SHORT $LN33@z900_proce

; 882  :                     break;

  007ac	eb 6e		 jmp	 SHORT $LN14@z900_proce
$LN33@z900_proce:
$LN34@z900_proce:

; 883  : 
; 884  :                 /* Fall through to choose when to randomly abort */
; 885  :                 /* FALLTHRU */
; 886  : 
; 887  :             case TDC_ALWAYS_RANDOM:         /* ALWAYS randomly abort */
; 888  :             {
; 889  :                 /* Choose a random instruction to abort at */
; 890  :                 regs->txf_abortctr = (U16) (rand() % MAX_TXF_CONTRAN_INSTR);

  007ae	ff 15 00 00 00
	00		 call	 QWORD PTR __imp_rand
  007b4	99		 cdq
  007b5	83 e2 1f	 and	 edx, 31
  007b8	03 c2		 add	 eax, edx
  007ba	83 e0 1f	 and	 eax, 31
  007bd	2b c2		 sub	 eax, edx
  007bf	48 8b 8c 24 48
	01 00 00	 mov	 rcx, QWORD PTR regs$[rsp]
  007c7	66 89 81 60 0e
	00 00		 mov	 WORD PTR [rcx+3680], ax

; 891  : 
; 892  :                 if (!txf_contran)

  007ce	0f b6 84 24 40
	01 00 00	 movzx	 eax, BYTE PTR txf_contran$[rsp]
  007d6	85 c0		 test	 eax, eax
  007d8	75 14		 jne	 SHORT $LN35@z900_proce

; 893  :                     regs->txf_random_tac = (U16) 0;

  007da	48 8b 84 24 48
	01 00 00	 mov	 rax, QWORD PTR regs$[rsp]
  007e2	c7 80 0c af 00
	00 00 00 00 00	 mov	 DWORD PTR [rax+44812], 0
  007ec	eb 2e		 jmp	 SHORT $LN36@z900_proce
$LN35@z900_proce:

; 894  :                 else
; 895  :                 {
; 896  :                     /* Randomly chosen abort codes */
; 897  :                     static const BYTE racode[10] =
; 898  :                     {
; 899  :                         TAC_FETCH_OVF,
; 900  :                         TAC_STORE_OVF,
; 901  :                         TAC_FETCH_CNF,
; 902  :                         TAC_STORE_CNF,
; 903  :                         TAC_INSTR,
; 904  :                         TAC_NESTING,
; 905  :                         TAC_FETCH_OTH,
; 906  :                         TAC_STORE_OTH,
; 907  :                         TAC_CACHE_OTH,
; 908  :                         TAC_MISC,
; 909  :                     };
; 910  : 
; 911  :                     /* Choose a random abort code */
; 912  :                     regs->txf_random_tac = (U16) racode[ rand() % _countof( racode ) ];

  007ee	ff 15 00 00 00
	00		 call	 QWORD PTR __imp_rand
  007f4	48 98		 cdqe
  007f6	33 d2		 xor	 edx, edx
  007f8	b9 0a 00 00 00	 mov	 ecx, 10
  007fd	48 f7 f1	 div	 rcx
  00800	48 8b c2	 mov	 rax, rdx
  00803	48 8d 0d 00 00
	00 00		 lea	 rcx, OFFSET FLAT:?racode@?BA@??z900_process_tbegin@@9@9
  0080a	0f b6 04 01	 movzx	 eax, BYTE PTR [rcx+rax]
  0080e	48 8b 8c 24 48
	01 00 00	 mov	 rcx, QWORD PTR regs$[rsp]
  00816	89 81 0c af 00
	00		 mov	 DWORD PTR [rcx+44812], eax
$LN36@z900_proce:
$LN14@z900_proce:

; 913  :                 }
; 914  :                 break;
; 915  :             }
; 916  :         }
; 917  :     }

  0081c	e9 81 02 00 00	 jmp	 $LN26@z900_proce
$LN25@z900_proce:

; 918  :     else /* (nested transaction) */
; 919  :     {
; 920  :         /*------------------------------------------------------*/
; 921  :         /*              BEGIN NESTED TRANSACTION                */
; 922  :         /*------------------------------------------------------*/
; 923  : 
; 924  :         if (txf_contran)

  00821	0f b6 84 24 40
	01 00 00	 movzx	 eax, BYTE PTR txf_contran$[rsp]
  00829	85 c0		 test	 eax, eax
  0082b	0f 84 f9 00 00
	00		 je	 $LN37@z900_proce

; 925  :         {
; 926  :             /* Nested CONSTRAINED transactions are not allowed */
; 927  :             if (regs->txf_contran)

  00831	48 8b 84 24 48
	01 00 00	 mov	 rax, QWORD PTR regs$[rsp]
  00839	0f b6 80 4c 0e
	00 00		 movzx	 eax, BYTE PTR [rax+3660]
  00840	85 c0		 test	 eax, eax
  00842	0f 84 ac 00 00
	00		 je	 $LN38@z900_proce
$LN18@z900_proce:

; 928  :             {
; 929  :                 PTT_TXF( "*TXF begc", MAX_TXF_TND, regs->txf_contran, regs->txf_tnd );

  00848	48 8b 05 00 00
	00 00		 mov	 rax, QWORD PTR __imp_pttclass
  0084f	48 8b 00	 mov	 rax, QWORD PTR [rax]
  00852	48 25 00 04 00
	00		 and	 rax, 1024		; 00000400H
  00858	48 85 c0	 test	 rax, rax
  0085b	74 53		 je	 SHORT $LN39@z900_proce
  0085d	48 8b 84 24 48
	01 00 00	 mov	 rax, QWORD PTR regs$[rsp]
  00865	0f b6 80 58 0e
	00 00		 movzx	 eax, BYTE PTR [rax+3672]
  0086c	48 8b 8c 24 48
	01 00 00	 mov	 rcx, QWORD PTR regs$[rsp]
  00874	0f b6 89 4c 0e
	00 00		 movzx	 ecx, BYTE PTR [rcx+3660]
  0087b	48 c7 44 24 30
	00 00 00 00	 mov	 QWORD PTR [rsp+48], 0
  00884	48 89 44 24 28	 mov	 QWORD PTR [rsp+40], rax
  00889	48 8d 05 00 00
	00 00		 lea	 rax, OFFSET FLAT:$SG193320
  00890	48 89 44 24 20	 mov	 QWORD PTR [rsp+32], rax
  00895	44 8b c9	 mov	 r9d, ecx
  00898	41 b8 0f 00 00
	00		 mov	 r8d, 15
  0089e	48 8d 15 00 00
	00 00		 lea	 rdx, OFFSET FLAT:$SG193321
  008a5	b9 00 04 00 00	 mov	 ecx, 1024		; 00000400H
  008aa	ff 15 00 00 00
	00		 call	 QWORD PTR __imp_ptt_pthread_trace
$LN39@z900_proce:
  008b0	33 c0		 xor	 eax, eax
  008b2	85 c0		 test	 eax, eax
  008b4	75 92		 jne	 SHORT $LN18@z900_proce

; 930  :                 regs->txf_why |= TXF_WHY_NESTING;

  008b6	48 8b 84 24 48
	01 00 00	 mov	 rax, QWORD PTR regs$[rsp]
  008be	8b 80 84 af 00
	00		 mov	 eax, DWORD PTR [rax+44932]
  008c4	83 c8 20	 or	 eax, 32			; 00000020H
  008c7	48 8b 8c 24 48
	01 00 00	 mov	 rcx, QWORD PTR regs$[rsp]
  008cf	89 81 84 af 00
	00		 mov	 DWORD PTR [rcx+44932], eax

; 931  :                 ABORT_TRANS( regs, ABORT_RETRY_PGMCHK, TAC_NESTING );

  008d5	4c 8d 0d 00 00
	00 00		 lea	 r9, OFFSET FLAT:$SG193322
  008dc	41 b8 0d 00 00
	00		 mov	 r8d, 13
  008e2	ba 02 00 00 00	 mov	 edx, 2
  008e7	48 8b 8c 24 48
	01 00 00	 mov	 rcx, QWORD PTR regs$[rsp]
  008ef	e8 00 00 00 00	 call	 z900_abort_transaction
$LN38@z900_proce:

; 932  :                 UNREACHABLE_CODE( return );
; 933  :             }
; 934  : 
; 935  :             /* CONSTRAINED nested within unconstrained... */
; 936  : 
; 937  :             /* For CONSTRAINED transactions, if the transaction
; 938  :                nesting depth is already greater than zero (i.e.
; 939  :                the CPU is already in the unconstrained TX mode),
; 940  :                then execution simply proceeds as if this were a
; 941  :                unconstrained transaction. (The TX mode does NOT
; 942  :                switch to constrained mode)
; 943  : 
; 944  :                In this case, the effective F control is zeroed,
; 945  :                and the effective PIFC remains unchanged. This
; 946  :                allows an outer, nonconstrained transaction to
; 947  :                call a service function that may use constrained
; 948  :                TX mode.
; 949  :             */
; 950  :             i2 &= ~(TXF_CTL_FLOAT | TXF_CTL_PIFC);

  008f4	0f bf 84 24 50
	01 00 00	 movsx	 eax, WORD PTR i2$[rsp]
  008fc	83 e0 f8	 and	 eax, -8
  008ff	66 89 84 24 50
	01 00 00	 mov	 WORD PTR i2$[rsp], ax

; 951  :             i2 |= regs->txf_pifc;

  00907	48 8b 84 24 48
	01 00 00	 mov	 rax, QWORD PTR regs$[rsp]
  0090f	0f b7 80 62 0e
	00 00		 movzx	 eax, WORD PTR [rax+3682]
  00916	0f bf 8c 24 50
	01 00 00	 movsx	 ecx, WORD PTR i2$[rsp]
  0091e	0b c8		 or	 ecx, eax
  00920	8b c1		 mov	 eax, ecx
  00922	66 89 84 24 50
	01 00 00	 mov	 WORD PTR i2$[rsp], ax
$LN37@z900_proce:

; 952  :         }
; 953  : 
; 954  :         /*------------------------------------------------------*/
; 955  :         /* Update highest nesting level that allowed AR changes */
; 956  :         /*------------------------------------------------------*/
; 957  : 
; 958  :         if (!(i2 & TXF_CTL_AR))

  0092a	0f bf 84 24 50
	01 00 00	 movsx	 eax, WORD PTR i2$[rsp]
  00932	83 e0 08	 and	 eax, 8
  00935	85 c0		 test	 eax, eax
  00937	75 22		 jne	 SHORT $LN40@z900_proce

; 959  :             regs->txf_ctlflag &= ~TXF_CTL_AR;

  00939	48 8b 84 24 48
	01 00 00	 mov	 rax, QWORD PTR regs$[rsp]
  00941	0f b6 80 59 0e
	00 00		 movzx	 eax, BYTE PTR [rax+3673]
  00948	83 e0 f7	 and	 eax, -9
  0094b	48 8b 8c 24 48
	01 00 00	 mov	 rcx, QWORD PTR regs$[rsp]
  00953	88 81 59 0e 00
	00		 mov	 BYTE PTR [rcx+3673], al
  00959	eb 42		 jmp	 SHORT $LN41@z900_proce
$LN40@z900_proce:

; 960  :         else if (regs->txf_higharchange == (regs->txf_tnd - 1))

  0095b	48 8b 84 24 48
	01 00 00	 mov	 rax, QWORD PTR regs$[rsp]
  00963	0f b7 80 5a 0e
	00 00		 movzx	 eax, WORD PTR [rax+3674]
  0096a	48 8b 8c 24 48
	01 00 00	 mov	 rcx, QWORD PTR regs$[rsp]
  00972	0f b6 89 58 0e
	00 00		 movzx	 ecx, BYTE PTR [rcx+3672]
  00979	ff c9		 dec	 ecx
  0097b	3b c1		 cmp	 eax, ecx
  0097d	75 1e		 jne	 SHORT $LN42@z900_proce

; 961  :             regs->txf_higharchange = regs->txf_tnd;

  0097f	48 8b 84 24 48
	01 00 00	 mov	 rax, QWORD PTR regs$[rsp]
  00987	0f b6 80 58 0e
	00 00		 movzx	 eax, BYTE PTR [rax+3672]
  0098e	48 8b 8c 24 48
	01 00 00	 mov	 rcx, QWORD PTR regs$[rsp]
  00996	66 89 81 5a 0e
	00 00		 mov	 WORD PTR [rcx+3674], ax
$LN42@z900_proce:
$LN41@z900_proce:

; 962  : 
; 963  :         /*--------------------------------------------------------------*/
; 964  :         /* Update highest nesting level that allowed float instructions */
; 965  :         /*--------------------------------------------------------------*/
; 966  : 
; 967  :         if (!(i2 & TXF_CTL_FLOAT))

  0099d	0f bf 84 24 50
	01 00 00	 movsx	 eax, WORD PTR i2$[rsp]
  009a5	83 e0 04	 and	 eax, 4
  009a8	85 c0		 test	 eax, eax
  009aa	75 22		 jne	 SHORT $LN43@z900_proce

; 968  :             regs->txf_ctlflag &= ~TXF_CTL_FLOAT;

  009ac	48 8b 84 24 48
	01 00 00	 mov	 rax, QWORD PTR regs$[rsp]
  009b4	0f b6 80 59 0e
	00 00		 movzx	 eax, BYTE PTR [rax+3673]
  009bb	83 e0 fb	 and	 eax, -5
  009be	48 8b 8c 24 48
	01 00 00	 mov	 rcx, QWORD PTR regs$[rsp]
  009c6	88 81 59 0e 00
	00		 mov	 BYTE PTR [rcx+3673], al
  009cc	eb 42		 jmp	 SHORT $LN44@z900_proce
$LN43@z900_proce:

; 969  :         else if (regs->txf_highfloat == (regs->txf_tnd - 1))

  009ce	48 8b 84 24 48
	01 00 00	 mov	 rax, QWORD PTR regs$[rsp]
  009d6	0f b7 80 5c 0e
	00 00		 movzx	 eax, WORD PTR [rax+3676]
  009dd	48 8b 8c 24 48
	01 00 00	 mov	 rcx, QWORD PTR regs$[rsp]
  009e5	0f b6 89 58 0e
	00 00		 movzx	 ecx, BYTE PTR [rcx+3672]
  009ec	ff c9		 dec	 ecx
  009ee	3b c1		 cmp	 eax, ecx
  009f0	75 1e		 jne	 SHORT $LN45@z900_proce

; 970  :             regs->txf_highfloat = regs->txf_tnd;

  009f2	48 8b 84 24 48
	01 00 00	 mov	 rax, QWORD PTR regs$[rsp]
  009fa	0f b6 80 58 0e
	00 00		 movzx	 eax, BYTE PTR [rax+3672]
  00a01	48 8b 8c 24 48
	01 00 00	 mov	 rcx, QWORD PTR regs$[rsp]
  00a09	66 89 81 5c 0e
	00 00		 mov	 WORD PTR [rcx+3676], ax
$LN45@z900_proce:
$LN44@z900_proce:

; 971  : 
; 972  :         /*-----------------------------*/
; 973  :         /* Update program filter level */
; 974  :         /*-----------------------------*/
; 975  : 
; 976  :         regs->txf_pifctab[ regs->txf_tnd - 2 ] = regs->txf_pifc;

  00a10	48 8b 84 24 48
	01 00 00	 mov	 rax, QWORD PTR regs$[rsp]
  00a18	0f b6 80 58 0e
	00 00		 movzx	 eax, BYTE PTR [rax+3672]
  00a1f	83 e8 02	 sub	 eax, 2
  00a22	48 98		 cdqe
  00a24	48 8b 8c 24 48
	01 00 00	 mov	 rcx, QWORD PTR regs$[rsp]
  00a2c	48 8b 94 24 48
	01 00 00	 mov	 rdx, QWORD PTR regs$[rsp]
  00a34	0f b7 92 62 0e
	00 00		 movzx	 edx, WORD PTR [rdx+3682]
  00a3b	66 89 94 41 8c
	af 00 00	 mov	 WORD PTR [rcx+rax*2+44940], dx

; 977  :         regs->txf_pifc = MAX( regs->txf_pifc, (i2 & TXF_CTL_PIFC) );

  00a43	48 8b 84 24 48
	01 00 00	 mov	 rax, QWORD PTR regs$[rsp]
  00a4b	0f b7 80 62 0e
	00 00		 movzx	 eax, WORD PTR [rax+3682]
  00a52	0f bf 8c 24 50
	01 00 00	 movsx	 ecx, WORD PTR i2$[rsp]
  00a5a	83 e1 03	 and	 ecx, 3
  00a5d	3b c1		 cmp	 eax, ecx
  00a5f	7e 18		 jle	 SHORT $LN76@z900_proce
  00a61	48 8b 84 24 48
	01 00 00	 mov	 rax, QWORD PTR regs$[rsp]
  00a69	0f b7 80 62 0e
	00 00		 movzx	 eax, WORD PTR [rax+3682]
  00a70	89 84 24 88 00
	00 00		 mov	 DWORD PTR tv427[rsp], eax
  00a77	eb 12		 jmp	 SHORT $LN77@z900_proce
$LN76@z900_proce:
  00a79	0f bf 84 24 50
	01 00 00	 movsx	 eax, WORD PTR i2$[rsp]
  00a81	83 e0 03	 and	 eax, 3
  00a84	89 84 24 88 00
	00 00		 mov	 DWORD PTR tv427[rsp], eax
$LN77@z900_proce:
  00a8b	48 8b 84 24 48
	01 00 00	 mov	 rax, QWORD PTR regs$[rsp]
  00a93	0f b7 8c 24 88
	00 00 00	 movzx	 ecx, WORD PTR tv427[rsp]
  00a9b	66 89 88 62 0e
	00 00		 mov	 WORD PTR [rax+3682], cx
$LN26@z900_proce:
$LN21@z900_proce:

; 978  :     }
; 979  : 
; 980  :     PTT_TXF( "TXF beg", 0, regs->txf_contran, regs->txf_tnd );

  00aa2	48 8b 05 00 00
	00 00		 mov	 rax, QWORD PTR __imp_pttclass
  00aa9	48 8b 00	 mov	 rax, QWORD PTR [rax]
  00aac	48 25 00 04 00
	00		 and	 rax, 1024		; 00000400H
  00ab2	48 85 c0	 test	 rax, rax
  00ab5	74 50		 je	 SHORT $LN46@z900_proce
  00ab7	48 8b 84 24 48
	01 00 00	 mov	 rax, QWORD PTR regs$[rsp]
  00abf	0f b6 80 58 0e
	00 00		 movzx	 eax, BYTE PTR [rax+3672]
  00ac6	48 8b 8c 24 48
	01 00 00	 mov	 rcx, QWORD PTR regs$[rsp]
  00ace	0f b6 89 4c 0e
	00 00		 movzx	 ecx, BYTE PTR [rcx+3660]
  00ad5	48 c7 44 24 30
	00 00 00 00	 mov	 QWORD PTR [rsp+48], 0
  00ade	48 89 44 24 28	 mov	 QWORD PTR [rsp+40], rax
  00ae3	48 8d 05 00 00
	00 00		 lea	 rax, OFFSET FLAT:$SG193330
  00aea	48 89 44 24 20	 mov	 QWORD PTR [rsp+32], rax
  00aef	44 8b c9	 mov	 r9d, ecx
  00af2	45 33 c0	 xor	 r8d, r8d
  00af5	48 8d 15 00 00
	00 00		 lea	 rdx, OFFSET FLAT:$SG193331
  00afc	b9 00 04 00 00	 mov	 ecx, 1024		; 00000400H
  00b01	ff 15 00 00 00
	00		 call	 QWORD PTR __imp_ptt_pthread_trace
$LN46@z900_proce:
  00b07	33 c0		 xor	 eax, eax
  00b09	85 c0		 test	 eax, eax
  00b0b	75 95		 jne	 SHORT $LN21@z900_proce

; 981  : 
; 982  :     if (TXF_TRACE( regs, SUCCESS, regs->txf_contran ))

  00b0d	33 c0		 xor	 eax, eax
  00b0f	83 f8 01	 cmp	 eax, 1
  00b12	0f 84 89 03 00
	00		 je	 $LN47@z900_proce
  00b18	48 8b 05 00 00
	00 00		 mov	 rax, QWORD PTR __imp_sysblk
  00b1f	8b 80 4c 05 00
	00		 mov	 eax, DWORD PTR [rax+1356]
  00b25	25 00 00 80 00	 and	 eax, 8388608		; 00800000H
  00b2a	85 c0		 test	 eax, eax
  00b2c	0f 84 6f 03 00
	00		 je	 $LN47@z900_proce
  00b32	33 c0		 xor	 eax, eax
  00b34	83 f8 01	 cmp	 eax, 1
  00b37	0f 84 64 03 00
	00		 je	 $LN47@z900_proce
  00b3d	33 c0		 xor	 eax, eax
  00b3f	85 c0		 test	 eax, eax
  00b41	75 37		 jne	 SHORT $LN48@z900_proce
  00b43	48 8b 05 00 00
	00 00		 mov	 rax, QWORD PTR __imp_sysblk
  00b4a	8b 80 4c 05 00
	00		 mov	 eax, DWORD PTR [rax+1356]
  00b50	25 00 00 04 00	 and	 eax, 262144		; 00040000H
  00b55	85 c0		 test	 eax, eax
  00b57	74 21		 je	 SHORT $LN48@z900_proce
  00b59	48 8b 84 24 48
	01 00 00	 mov	 rax, QWORD PTR regs$[rsp]
  00b61	48 8b 0d 00 00
	00 00		 mov	 rcx, QWORD PTR __imp_sysblk
  00b68	8b 89 60 05 00
	00		 mov	 ecx, DWORD PTR [rcx+1376]
  00b6e	39 88 b0 af 00
	00		 cmp	 DWORD PTR [rax+44976], ecx
  00b74	0f 85 27 03 00
	00		 jne	 $LN47@z900_proce
$LN48@z900_proce:
  00b7a	33 c0		 xor	 eax, eax
  00b7c	85 c0		 test	 eax, eax
  00b7e	75 37		 jne	 SHORT $LN49@z900_proce
  00b80	48 8b 05 00 00
	00 00		 mov	 rax, QWORD PTR __imp_sysblk
  00b87	8b 80 4c 05 00
	00		 mov	 eax, DWORD PTR [rax+1356]
  00b8d	25 00 00 08 00	 and	 eax, 524288		; 00080000H
  00b92	85 c0		 test	 eax, eax
  00b94	74 21		 je	 SHORT $LN49@z900_proce
  00b96	48 8b 84 24 48
	01 00 00	 mov	 rax, QWORD PTR regs$[rsp]
  00b9e	48 8b 0d 00 00
	00 00		 mov	 rcx, QWORD PTR __imp_sysblk
  00ba5	8b 89 58 05 00
	00		 mov	 ecx, DWORD PTR [rcx+1368]
  00bab	39 88 b4 af 00
	00		 cmp	 DWORD PTR [rax+44980], ecx
  00bb1	0f 8c ea 02 00
	00		 jl	 $LN47@z900_proce
$LN49@z900_proce:
  00bb7	33 c0		 xor	 eax, eax
  00bb9	85 c0		 test	 eax, eax
  00bbb	75 73		 jne	 SHORT $LN50@z900_proce
  00bbd	48 8b 05 00 00
	00 00		 mov	 rax, QWORD PTR __imp_sysblk
  00bc4	8b 80 4c 05 00
	00		 mov	 eax, DWORD PTR [rax+1356]
  00bca	25 00 00 00 0c	 and	 eax, 201326592		; 0c000000H
  00bcf	3d 00 00 00 0c	 cmp	 eax, 201326592		; 0c000000H
  00bd4	74 5a		 je	 SHORT $LN50@z900_proce
  00bd6	48 8b 05 00 00
	00 00		 mov	 rax, QWORD PTR __imp_sysblk
  00bdd	8b 80 4c 05 00
	00		 mov	 eax, DWORD PTR [rax+1356]
  00be3	25 00 00 00 08	 and	 eax, 134217728		; 08000000H
  00be8	85 c0		 test	 eax, eax
  00bea	74 13		 je	 SHORT $LN51@z900_proce
  00bec	48 8b 84 24 48
	01 00 00	 mov	 rax, QWORD PTR regs$[rsp]
  00bf4	0f b6 80 4c 0e
	00 00		 movzx	 eax, BYTE PTR [rax+3660]
  00bfb	85 c0		 test	 eax, eax
  00bfd	75 31		 jne	 SHORT $LN50@z900_proce
$LN51@z900_proce:
  00bff	48 8b 05 00 00
	00 00		 mov	 rax, QWORD PTR __imp_sysblk
  00c06	8b 80 4c 05 00
	00		 mov	 eax, DWORD PTR [rax+1356]
  00c0c	25 00 00 00 04	 and	 eax, 67108864		; 04000000H
  00c11	85 c0		 test	 eax, eax
  00c13	0f 84 88 02 00
	00		 je	 $LN47@z900_proce
  00c19	48 8b 84 24 48
	01 00 00	 mov	 rax, QWORD PTR regs$[rsp]
  00c21	0f b6 80 4c 0e
	00 00		 movzx	 eax, BYTE PTR [rax+3660]
  00c28	85 c0		 test	 eax, eax
  00c2a	0f 85 71 02 00
	00		 jne	 $LN47@z900_proce
$LN50@z900_proce:
  00c30	33 c0		 xor	 eax, eax
  00c32	85 c0		 test	 eax, eax
  00c34	0f 85 e0 00 00
	00		 jne	 $LN52@z900_proce
  00c3a	48 8b 05 00 00
	00 00		 mov	 rax, QWORD PTR __imp_sysblk
  00c41	8b 80 4c 05 00
	00		 mov	 eax, DWORD PTR [rax+1356]
  00c47	25 00 00 40 00	 and	 eax, 4194304		; 00400000H
  00c4c	85 c0		 test	 eax, eax
  00c4e	0f 84 c6 00 00
	00		 je	 $LN52@z900_proce
  00c54	33 c0		 xor	 eax, eax
  00c56	83 f8 01	 cmp	 eax, 1
  00c59	0f 84 42 02 00
	00		 je	 $LN47@z900_proce
  00c5f	33 c0		 xor	 eax, eax
  00c61	85 c0		 test	 eax, eax
  00c63	75 3b		 jne	 SHORT $LN53@z900_proce
  00c65	48 8b 05 00 00
	00 00		 mov	 rax, QWORD PTR __imp_sysblk
  00c6c	8b 80 4c 05 00
	00		 mov	 eax, DWORD PTR [rax+1356]
  00c72	25 00 00 20 00	 and	 eax, 2097152		; 00200000H
  00c77	85 c0		 test	 eax, eax
  00c79	74 25		 je	 SHORT $LN53@z900_proce
  00c7b	48 8b 84 24 48
	01 00 00	 mov	 rax, QWORD PTR regs$[rsp]
  00c83	48 8b 0d 00 00
	00 00		 mov	 rcx, QWORD PTR __imp_sysblk
  00c8a	8b 89 50 05 00
	00		 mov	 ecx, DWORD PTR [rcx+1360]
  00c90	8b 80 ac af 00
	00		 mov	 eax, DWORD PTR [rax+44972]
  00c96	23 c1		 and	 eax, ecx
  00c98	85 c0		 test	 eax, eax
  00c9a	0f 84 01 02 00
	00		 je	 $LN47@z900_proce
$LN53@z900_proce:
  00ca0	33 c0		 xor	 eax, eax
  00ca2	85 c0		 test	 eax, eax
  00ca4	75 37		 jne	 SHORT $LN54@z900_proce
  00ca6	48 8b 05 00 00
	00 00		 mov	 rax, QWORD PTR __imp_sysblk
  00cad	8b 80 4c 05 00
	00		 mov	 eax, DWORD PTR [rax+1356]
  00cb3	25 00 00 10 00	 and	 eax, 1048576		; 00100000H
  00cb8	85 c0		 test	 eax, eax
  00cba	74 21		 je	 SHORT $LN54@z900_proce
  00cbc	48 8b 84 24 48
	01 00 00	 mov	 rax, QWORD PTR regs$[rsp]
  00cc4	48 8b 0d 00 00
	00 00		 mov	 rcx, QWORD PTR __imp_sysblk
  00ccb	8b 89 54 05 00
	00		 mov	 ecx, DWORD PTR [rcx+1364]
  00cd1	39 88 b8 af 00
	00		 cmp	 DWORD PTR [rax+44984], ecx
  00cd7	0f 85 c4 01 00
	00		 jne	 $LN47@z900_proce
$LN54@z900_proce:
  00cdd	33 c0		 xor	 eax, eax
  00cdf	85 c0		 test	 eax, eax
  00ce1	75 37		 jne	 SHORT $LN55@z900_proce
  00ce3	48 8b 05 00 00
	00 00		 mov	 rax, QWORD PTR __imp_sysblk
  00cea	8b 80 4c 05 00
	00		 mov	 eax, DWORD PTR [rax+1356]
  00cf0	25 00 00 02 00	 and	 eax, 131072		; 00020000H
  00cf5	85 c0		 test	 eax, eax
  00cf7	74 21		 je	 SHORT $LN55@z900_proce
  00cf9	48 8b 84 24 48
	01 00 00	 mov	 rax, QWORD PTR regs$[rsp]
  00d01	48 8b 0d 00 00
	00 00		 mov	 rcx, QWORD PTR __imp_sysblk
  00d08	8b 89 5c 05 00
	00		 mov	 ecx, DWORD PTR [rcx+1372]
  00d0e	39 88 bc af 00
	00		 cmp	 DWORD PTR [rax+44988], ecx
  00d14	0f 8c 87 01 00
	00		 jl	 $LN47@z900_proce
$LN55@z900_proce:
$LN52@z900_proce:

; 983  :     {
; 984  :         // "TXF: %s%02X: %sSuccessful %s TBEGIN%s; TND now %d"
; 985  :         WRMSG( HHC17702, "D", TXF_CPUAD( regs ), TXF_QSIE( regs ),

  00d1a	48 8b 84 24 48
	01 00 00	 mov	 rax, QWORD PTR regs$[rsp]
  00d22	0f b6 80 4c 0e
	00 00		 movzx	 eax, BYTE PTR [rax+3660]
  00d29	85 c0		 test	 eax, eax
  00d2b	74 11		 je	 SHORT $LN78@z900_proce
  00d2d	48 8d 05 00 00
	00 00		 lea	 rax, OFFSET FLAT:$SG193341
  00d34	48 89 84 24 b8
	00 00 00	 mov	 QWORD PTR tv511[rsp], rax
  00d3c	eb 0f		 jmp	 SHORT $LN79@z900_proce
$LN78@z900_proce:
  00d3e	48 8d 05 00 00
	00 00		 lea	 rax, OFFSET FLAT:$SG193342
  00d45	48 89 84 24 b8
	00 00 00	 mov	 QWORD PTR tv511[rsp], rax
$LN79@z900_proce:
  00d4d	48 8b 84 24 48
	01 00 00	 mov	 rax, QWORD PTR regs$[rsp]
  00d55	0f b6 80 58 0e
	00 00		 movzx	 eax, BYTE PTR [rax+3672]
  00d5c	83 f8 01	 cmp	 eax, 1
  00d5f	7e 11		 jle	 SHORT $LN80@z900_proce
  00d61	48 8d 05 00 00
	00 00		 lea	 rax, OFFSET FLAT:$SG193343
  00d68	48 89 84 24 c0
	00 00 00	 mov	 QWORD PTR tv516[rsp], rax
  00d70	eb 0f		 jmp	 SHORT $LN81@z900_proce
$LN80@z900_proce:
  00d72	48 8d 05 00 00
	00 00		 lea	 rax, OFFSET FLAT:$SG193344
  00d79	48 89 84 24 c0
	00 00 00	 mov	 QWORD PTR tv516[rsp], rax
$LN81@z900_proce:
  00d81	48 8b 84 24 48
	01 00 00	 mov	 rax, QWORD PTR regs$[rsp]
  00d89	8b 80 c8 08 00
	00		 mov	 eax, DWORD PTR [rax+2248]
  00d8f	d1 e8		 shr	 eax, 1
  00d91	83 e0 01	 and	 eax, 1
  00d94	85 c0		 test	 eax, eax
  00d96	74 11		 je	 SHORT $LN82@z900_proce
  00d98	48 8d 05 00 00
	00 00		 lea	 rax, OFFSET FLAT:$SG193345
  00d9f	48 89 84 24 c8
	00 00 00	 mov	 QWORD PTR tv522[rsp], rax
  00da7	eb 0f		 jmp	 SHORT $LN83@z900_proce
$LN82@z900_proce:
  00da9	48 8d 05 00 00
	00 00		 lea	 rax, OFFSET FLAT:$SG193346
  00db0	48 89 84 24 c8
	00 00 00	 mov	 QWORD PTR tv522[rsp], rax
$LN83@z900_proce:
  00db8	48 8b 84 24 48
	01 00 00	 mov	 rax, QWORD PTR regs$[rsp]
  00dc0	0f b6 80 58 0e
	00 00		 movzx	 eax, BYTE PTR [rax+3672]
  00dc7	89 84 24 a0 00
	00 00		 mov	 DWORD PTR tv506[rsp], eax
  00dce	48 8b 8c 24 48
	01 00 00	 mov	 rcx, QWORD PTR regs$[rsp]
  00dd6	0f b7 89 3c 08
	00 00		 movzx	 ecx, WORD PTR [rcx+2108]
  00ddd	89 8c 24 a4 00
	00 00		 mov	 DWORD PTR tv525[rsp], ecx
  00de4	48 8b 94 24 48
	01 00 00	 mov	 rdx, QWORD PTR regs$[rsp]
  00dec	0f b7 92 3c 08
	00 00		 movzx	 edx, WORD PTR [rdx+2108]
  00df3	48 8b 3d 00 00
	00 00		 mov	 rdi, QWORD PTR __imp_sysblk
  00dfa	0f b6 8c 17 48
	0b 00 00	 movzx	 ecx, BYTE PTR [rdi+rdx+2888]
  00e02	ff 15 00 00 00
	00		 call	 QWORD PTR __imp_ptyp2short
  00e08	48 89 84 24 e0
	00 00 00	 mov	 QWORD PTR tv527[rsp], rax
  00e10	b9 01 00 00 00	 mov	 ecx, 1
  00e15	ff 15 00 00 00
	00		 call	 QWORD PTR __imp___acrt_iob_func
  00e1b	8b 8c 24 a0 00
	00 00		 mov	 ecx, DWORD PTR tv506[rsp]
  00e22	89 4c 24 60	 mov	 DWORD PTR [rsp+96], ecx
  00e26	48 8b 8c 24 b8
	00 00 00	 mov	 rcx, QWORD PTR tv511[rsp]
  00e2e	48 89 4c 24 58	 mov	 QWORD PTR [rsp+88], rcx
  00e33	48 8b 8c 24 c0
	00 00 00	 mov	 rcx, QWORD PTR tv516[rsp]
  00e3b	48 89 4c 24 50	 mov	 QWORD PTR [rsp+80], rcx
  00e40	48 8b 8c 24 c8
	00 00 00	 mov	 rcx, QWORD PTR tv522[rsp]
  00e48	48 89 4c 24 48	 mov	 QWORD PTR [rsp+72], rcx
  00e4d	8b 8c 24 a4 00
	00 00		 mov	 ecx, DWORD PTR tv525[rsp]
  00e54	89 4c 24 40	 mov	 DWORD PTR [rsp+64], ecx
  00e58	48 8b 8c 24 e0
	00 00 00	 mov	 rcx, QWORD PTR tv527[rsp]
  00e60	48 89 4c 24 38	 mov	 QWORD PTR [rsp+56], rcx
  00e65	48 8d 0d 00 00
	00 00		 lea	 rcx, OFFSET FLAT:$SG193347
  00e6c	48 89 4c 24 30	 mov	 QWORD PTR [rsp+48], rcx
  00e71	48 8d 0d 00 00
	00 00		 lea	 rcx, OFFSET FLAT:$SG193348
  00e78	48 89 4c 24 28	 mov	 QWORD PTR [rsp+40], rcx
  00e7d	48 89 44 24 20	 mov	 QWORD PTR [rsp+32], rax
  00e82	41 b9 03 00 00
	00		 mov	 r9d, 3
  00e88	4c 8d 05 00 00
	00 00		 lea	 r8, OFFSET FLAT:$SG193349
  00e8f	ba db 03 00 00	 mov	 edx, 987		; 000003dbH
  00e94	48 8d 0d 00 00
	00 00		 lea	 rcx, OFFSET FLAT:$SG193350
  00e9b	ff 15 00 00 00
	00		 call	 QWORD PTR __imp_fwritemsg
$LN47@z900_proce:

; 986  :             regs->txf_tnd > 1 ? "nested" : "outermost",
; 987  :             regs->txf_contran ? "C" : "", regs->txf_tnd );
; 988  :     }
; 989  : 
; 990  :     /*--------------------------------------------------------------*/
; 991  :     /*           Report failed transaction retries                  */
; 992  :     /*--------------------------------------------------------------*/
; 993  :     if (1
; 994  :         && MLVL( VERBOSE )
; 995  :         && regs->txf_aborts
; 996  :         && TXF_TRACE( regs, FAILURE, regs->txf_contran )

  00ea1	33 c0		 xor	 eax, eax
  00ea3	83 f8 01	 cmp	 eax, 1
  00ea6	0f 84 73 03 00
	00		 je	 $LN56@z900_proce
  00eac	48 8b 05 00 00
	00 00		 mov	 rax, QWORD PTR __imp_sysblk
  00eb3	8b 80 80 75 01
	00		 mov	 eax, DWORD PTR [rax+95616]
  00eb9	25 00 00 00 80	 and	 eax, -2147483648	; 80000000H
  00ebe	85 c0		 test	 eax, eax
  00ec0	0f 84 59 03 00
	00		 je	 $LN56@z900_proce
  00ec6	48 8b 84 24 48
	01 00 00	 mov	 rax, QWORD PTR regs$[rsp]
  00ece	83 b8 50 0e 00
	00 00		 cmp	 DWORD PTR [rax+3664], 0
  00ed5	0f 84 44 03 00
	00		 je	 $LN56@z900_proce
  00edb	33 c0		 xor	 eax, eax
  00edd	83 f8 01	 cmp	 eax, 1
  00ee0	0f 84 39 03 00
	00		 je	 $LN56@z900_proce
  00ee6	48 8b 05 00 00
	00 00		 mov	 rax, QWORD PTR __imp_sysblk
  00eed	8b 80 4c 05 00
	00		 mov	 eax, DWORD PTR [rax+1356]
  00ef3	25 00 00 40 00	 and	 eax, 4194304		; 00400000H
  00ef8	85 c0		 test	 eax, eax
  00efa	0f 84 1f 03 00
	00		 je	 $LN56@z900_proce
  00f00	33 c0		 xor	 eax, eax
  00f02	83 f8 01	 cmp	 eax, 1
  00f05	0f 84 14 03 00
	00		 je	 $LN56@z900_proce
  00f0b	33 c0		 xor	 eax, eax
  00f0d	85 c0		 test	 eax, eax
  00f0f	75 37		 jne	 SHORT $LN57@z900_proce
  00f11	48 8b 05 00 00
	00 00		 mov	 rax, QWORD PTR __imp_sysblk
  00f18	8b 80 4c 05 00
	00		 mov	 eax, DWORD PTR [rax+1356]
  00f1e	25 00 00 04 00	 and	 eax, 262144		; 00040000H
  00f23	85 c0		 test	 eax, eax
  00f25	74 21		 je	 SHORT $LN57@z900_proce
  00f27	48 8b 84 24 48
	01 00 00	 mov	 rax, QWORD PTR regs$[rsp]
  00f2f	48 8b 0d 00 00
	00 00		 mov	 rcx, QWORD PTR __imp_sysblk
  00f36	8b 89 60 05 00
	00		 mov	 ecx, DWORD PTR [rcx+1376]
  00f3c	39 88 b0 af 00
	00		 cmp	 DWORD PTR [rax+44976], ecx
  00f42	0f 85 d7 02 00
	00		 jne	 $LN56@z900_proce
$LN57@z900_proce:
  00f48	33 c0		 xor	 eax, eax
  00f4a	85 c0		 test	 eax, eax
  00f4c	75 37		 jne	 SHORT $LN58@z900_proce
  00f4e	48 8b 05 00 00
	00 00		 mov	 rax, QWORD PTR __imp_sysblk
  00f55	8b 80 4c 05 00
	00		 mov	 eax, DWORD PTR [rax+1356]
  00f5b	25 00 00 08 00	 and	 eax, 524288		; 00080000H
  00f60	85 c0		 test	 eax, eax
  00f62	74 21		 je	 SHORT $LN58@z900_proce
  00f64	48 8b 84 24 48
	01 00 00	 mov	 rax, QWORD PTR regs$[rsp]
  00f6c	48 8b 0d 00 00
	00 00		 mov	 rcx, QWORD PTR __imp_sysblk
  00f73	8b 89 58 05 00
	00		 mov	 ecx, DWORD PTR [rcx+1368]
  00f79	39 88 b4 af 00
	00		 cmp	 DWORD PTR [rax+44980], ecx
  00f7f	0f 8c 9a 02 00
	00		 jl	 $LN56@z900_proce
$LN58@z900_proce:
  00f85	33 c0		 xor	 eax, eax
  00f87	85 c0		 test	 eax, eax
  00f89	75 73		 jne	 SHORT $LN59@z900_proce
  00f8b	48 8b 05 00 00
	00 00		 mov	 rax, QWORD PTR __imp_sysblk
  00f92	8b 80 4c 05 00
	00		 mov	 eax, DWORD PTR [rax+1356]
  00f98	25 00 00 00 0c	 and	 eax, 201326592		; 0c000000H
  00f9d	3d 00 00 00 0c	 cmp	 eax, 201326592		; 0c000000H
  00fa2	74 5a		 je	 SHORT $LN59@z900_proce
  00fa4	48 8b 05 00 00
	00 00		 mov	 rax, QWORD PTR __imp_sysblk
  00fab	8b 80 4c 05 00
	00		 mov	 eax, DWORD PTR [rax+1356]
  00fb1	25 00 00 00 08	 and	 eax, 134217728		; 08000000H
  00fb6	85 c0		 test	 eax, eax
  00fb8	74 13		 je	 SHORT $LN60@z900_proce
  00fba	48 8b 84 24 48
	01 00 00	 mov	 rax, QWORD PTR regs$[rsp]
  00fc2	0f b6 80 4c 0e
	00 00		 movzx	 eax, BYTE PTR [rax+3660]
  00fc9	85 c0		 test	 eax, eax
  00fcb	75 31		 jne	 SHORT $LN59@z900_proce
$LN60@z900_proce:
  00fcd	48 8b 05 00 00
	00 00		 mov	 rax, QWORD PTR __imp_sysblk
  00fd4	8b 80 4c 05 00
	00		 mov	 eax, DWORD PTR [rax+1356]
  00fda	25 00 00 00 04	 and	 eax, 67108864		; 04000000H
  00fdf	85 c0		 test	 eax, eax
  00fe1	0f 84 38 02 00
	00		 je	 $LN56@z900_proce
  00fe7	48 8b 84 24 48
	01 00 00	 mov	 rax, QWORD PTR regs$[rsp]
  00fef	0f b6 80 4c 0e
	00 00		 movzx	 eax, BYTE PTR [rax+3660]
  00ff6	85 c0		 test	 eax, eax
  00ff8	0f 85 21 02 00
	00		 jne	 $LN56@z900_proce
$LN59@z900_proce:
  00ffe	33 c0		 xor	 eax, eax
  01000	85 c0		 test	 eax, eax
  01002	0f 85 e0 00 00
	00		 jne	 $LN61@z900_proce
  01008	48 8b 05 00 00
	00 00		 mov	 rax, QWORD PTR __imp_sysblk
  0100f	8b 80 4c 05 00
	00		 mov	 eax, DWORD PTR [rax+1356]
  01015	25 00 00 40 00	 and	 eax, 4194304		; 00400000H
  0101a	85 c0		 test	 eax, eax
  0101c	0f 84 c6 00 00
	00		 je	 $LN61@z900_proce
  01022	33 c0		 xor	 eax, eax
  01024	83 f8 01	 cmp	 eax, 1
  01027	0f 84 f2 01 00
	00		 je	 $LN56@z900_proce
  0102d	33 c0		 xor	 eax, eax
  0102f	85 c0		 test	 eax, eax
  01031	75 3b		 jne	 SHORT $LN62@z900_proce
  01033	48 8b 05 00 00
	00 00		 mov	 rax, QWORD PTR __imp_sysblk
  0103a	8b 80 4c 05 00
	00		 mov	 eax, DWORD PTR [rax+1356]
  01040	25 00 00 20 00	 and	 eax, 2097152		; 00200000H
  01045	85 c0		 test	 eax, eax
  01047	74 25		 je	 SHORT $LN62@z900_proce
  01049	48 8b 84 24 48
	01 00 00	 mov	 rax, QWORD PTR regs$[rsp]
  01051	48 8b 0d 00 00
	00 00		 mov	 rcx, QWORD PTR __imp_sysblk
  01058	8b 89 50 05 00
	00		 mov	 ecx, DWORD PTR [rcx+1360]
  0105e	8b 80 ac af 00
	00		 mov	 eax, DWORD PTR [rax+44972]
  01064	23 c1		 and	 eax, ecx
  01066	85 c0		 test	 eax, eax
  01068	0f 84 b1 01 00
	00		 je	 $LN56@z900_proce
$LN62@z900_proce:
  0106e	33 c0		 xor	 eax, eax
  01070	85 c0		 test	 eax, eax
  01072	75 37		 jne	 SHORT $LN63@z900_proce
  01074	48 8b 05 00 00
	00 00		 mov	 rax, QWORD PTR __imp_sysblk
  0107b	8b 80 4c 05 00
	00		 mov	 eax, DWORD PTR [rax+1356]
  01081	25 00 00 10 00	 and	 eax, 1048576		; 00100000H
  01086	85 c0		 test	 eax, eax
  01088	74 21		 je	 SHORT $LN63@z900_proce
  0108a	48 8b 84 24 48
	01 00 00	 mov	 rax, QWORD PTR regs$[rsp]
  01092	48 8b 0d 00 00
	00 00		 mov	 rcx, QWORD PTR __imp_sysblk
  01099	8b 89 54 05 00
	00		 mov	 ecx, DWORD PTR [rcx+1364]
  0109f	39 88 b8 af 00
	00		 cmp	 DWORD PTR [rax+44984], ecx
  010a5	0f 85 74 01 00
	00		 jne	 $LN56@z900_proce
$LN63@z900_proce:
  010ab	33 c0		 xor	 eax, eax
  010ad	85 c0		 test	 eax, eax
  010af	75 37		 jne	 SHORT $LN64@z900_proce
  010b1	48 8b 05 00 00
	00 00		 mov	 rax, QWORD PTR __imp_sysblk
  010b8	8b 80 4c 05 00
	00		 mov	 eax, DWORD PTR [rax+1356]
  010be	25 00 00 02 00	 and	 eax, 131072		; 00020000H
  010c3	85 c0		 test	 eax, eax
  010c5	74 21		 je	 SHORT $LN64@z900_proce
  010c7	48 8b 84 24 48
	01 00 00	 mov	 rax, QWORD PTR regs$[rsp]
  010cf	48 8b 0d 00 00
	00 00		 mov	 rcx, QWORD PTR __imp_sysblk
  010d6	8b 89 5c 05 00
	00		 mov	 ecx, DWORD PTR [rcx+1372]
  010dc	39 88 bc af 00
	00		 cmp	 DWORD PTR [rax+44988], ecx
  010e2	0f 8c 37 01 00
	00		 jl	 $LN56@z900_proce
$LN64@z900_proce:
$LN61@z900_proce:

; 997  :     )
; 998  :     {
; 999  :         // "TXF: %s%02X: %s%s transaction retry #%d..."
; 1000 :         WRMSG( HHC17717, "D", TXF_CPUAD( regs ), TXF_QSIE( regs ),

  010e8	48 8b 84 24 48
	01 00 00	 mov	 rax, QWORD PTR regs$[rsp]
  010f0	0f b6 80 4c 0e
	00 00		 movzx	 eax, BYTE PTR [rax+3660]
  010f7	85 c0		 test	 eax, eax
  010f9	74 11		 je	 SHORT $LN84@z900_proce
  010fb	48 8d 05 00 00
	00 00		 lea	 rax, OFFSET FLAT:$SG193360
  01102	48 89 84 24 d0
	00 00 00	 mov	 QWORD PTR tv617[rsp], rax
  0110a	eb 0f		 jmp	 SHORT $LN85@z900_proce
$LN84@z900_proce:
  0110c	48 8d 05 00 00
	00 00		 lea	 rax, OFFSET FLAT:$SG193361
  01113	48 89 84 24 d0
	00 00 00	 mov	 QWORD PTR tv617[rsp], rax
$LN85@z900_proce:
  0111b	48 8b 84 24 48
	01 00 00	 mov	 rax, QWORD PTR regs$[rsp]
  01123	8b 80 c8 08 00
	00		 mov	 eax, DWORD PTR [rax+2248]
  01129	d1 e8		 shr	 eax, 1
  0112b	83 e0 01	 and	 eax, 1
  0112e	85 c0		 test	 eax, eax
  01130	74 11		 je	 SHORT $LN86@z900_proce
  01132	48 8d 05 00 00
	00 00		 lea	 rax, OFFSET FLAT:$SG193362
  01139	48 89 84 24 d8
	00 00 00	 mov	 QWORD PTR tv623[rsp], rax
  01141	eb 0f		 jmp	 SHORT $LN87@z900_proce
$LN86@z900_proce:
  01143	48 8d 05 00 00
	00 00		 lea	 rax, OFFSET FLAT:$SG193363
  0114a	48 89 84 24 d8
	00 00 00	 mov	 QWORD PTR tv623[rsp], rax
$LN87@z900_proce:
  01152	48 8b 84 24 48
	01 00 00	 mov	 rax, QWORD PTR regs$[rsp]
  0115a	0f b7 80 3c 08
	00 00		 movzx	 eax, WORD PTR [rax+2108]
  01161	89 84 24 a8 00
	00 00		 mov	 DWORD PTR tv626[rsp], eax
  01168	48 8b 8c 24 48
	01 00 00	 mov	 rcx, QWORD PTR regs$[rsp]
  01170	0f b7 89 3c 08
	00 00		 movzx	 ecx, WORD PTR [rcx+2108]
  01177	48 8b 15 00 00
	00 00		 mov	 rdx, QWORD PTR __imp_sysblk
  0117e	0f b6 8c 0a 48
	0b 00 00	 movzx	 ecx, BYTE PTR [rdx+rcx+2888]
  01186	ff 15 00 00 00
	00		 call	 QWORD PTR __imp_ptyp2short
  0118c	48 89 84 24 e8
	00 00 00	 mov	 QWORD PTR tv628[rsp], rax
  01194	b9 01 00 00 00	 mov	 ecx, 1
  01199	ff 15 00 00 00
	00		 call	 QWORD PTR __imp___acrt_iob_func
  0119f	48 8b 8c 24 48
	01 00 00	 mov	 rcx, QWORD PTR regs$[rsp]
  011a7	8b 89 50 0e 00
	00		 mov	 ecx, DWORD PTR [rcx+3664]
  011ad	89 4c 24 58	 mov	 DWORD PTR [rsp+88], ecx
  011b1	48 8b 8c 24 d0
	00 00 00	 mov	 rcx, QWORD PTR tv617[rsp]
  011b9	48 89 4c 24 50	 mov	 QWORD PTR [rsp+80], rcx
  011be	48 8b 8c 24 d8
	00 00 00	 mov	 rcx, QWORD PTR tv623[rsp]
  011c6	48 89 4c 24 48	 mov	 QWORD PTR [rsp+72], rcx
  011cb	8b 8c 24 a8 00
	00 00		 mov	 ecx, DWORD PTR tv626[rsp]
  011d2	89 4c 24 40	 mov	 DWORD PTR [rsp+64], ecx
  011d6	48 8b 8c 24 e8
	00 00 00	 mov	 rcx, QWORD PTR tv628[rsp]
  011de	48 89 4c 24 38	 mov	 QWORD PTR [rsp+56], rcx
  011e3	48 8d 0d 00 00
	00 00		 lea	 rcx, OFFSET FLAT:$SG193364
  011ea	48 89 4c 24 30	 mov	 QWORD PTR [rsp+48], rcx
  011ef	48 8d 0d 00 00
	00 00		 lea	 rcx, OFFSET FLAT:$SG193365
  011f6	48 89 4c 24 28	 mov	 QWORD PTR [rsp+40], rcx
  011fb	48 89 44 24 20	 mov	 QWORD PTR [rsp+32], rax
  01200	41 b9 03 00 00
	00		 mov	 r9d, 3
  01206	4c 8d 05 00 00
	00 00		 lea	 r8, OFFSET FLAT:$SG193366
  0120d	ba e9 03 00 00	 mov	 edx, 1001		; 000003e9H
  01212	48 8d 0d 00 00
	00 00		 lea	 rcx, OFFSET FLAT:$SG193367
  01219	ff 15 00 00 00
	00		 call	 QWORD PTR __imp_fwritemsg
$LN56@z900_proce:
$LN65@z900_proce:

; 1001 :             TXF_CONSTRAINED( regs->txf_contran ), regs->txf_aborts );
; 1002 :     }
; 1003 : 
; 1004 : } /* end ARCH_DEP( process_tbegin ) */

  0121f	48 8b 8c 24 18
	01 00 00	 mov	 rcx, QWORD PTR __$ArrayPad$[rsp]
  01227	48 33 cc	 xor	 rcx, rsp
  0122a	e8 00 00 00 00	 call	 __security_check_cookie
  0122f	48 81 c4 28 01
	00 00		 add	 rsp, 296		; 00000128H
  01236	5f		 pop	 rdi
  01237	5e		 pop	 rsi
  01238	c3		 ret	 0
z900_process_tbegin ENDP
_TEXT	ENDS
; Function compile flags: /Odtp
; File C:\papa\MyGit\hyperion-zvector\transact.c
_TEXT	SEGMENT
regs$ = 8
z900_set_txf_aie PROC

; 204  : {

  00000	48 89 4c 24 08	 mov	 QWORD PTR [rsp+8], rcx

; 205  :     regs->txf_contran  = true;

  00005	48 8b 44 24 08	 mov	 rax, QWORD PTR regs$[rsp]
  0000a	c6 80 4c 0e 00
	00 01		 mov	 BYTE PTR [rax+3660], 1

; 206  :     regs->txf_aie      = regs->ip - 6 + 256; // (minus-6 for TBEGINC)

  00011	48 8b 44 24 08	 mov	 rax, QWORD PTR regs$[rsp]
  00016	48 8b 40 68	 mov	 rax, QWORD PTR [rax+104]
  0001a	48 05 fa 00 00
	00		 add	 rax, 250		; 000000faH
  00020	48 8b 4c 24 08	 mov	 rcx, QWORD PTR regs$[rsp]
  00025	48 89 81 60 af
	00 00		 mov	 QWORD PTR [rcx+44896], rax

; 207  :     regs->txf_aie_aiv  = regs->AIV;

  0002c	48 8b 44 24 08	 mov	 rax, QWORD PTR regs$[rsp]
  00031	48 8b 4c 24 08	 mov	 rcx, QWORD PTR regs$[rsp]
  00036	48 8b 89 10 02
	00 00		 mov	 rcx, QWORD PTR [rcx+528]
  0003d	48 89 88 68 af
	00 00		 mov	 QWORD PTR [rax+44904], rcx

; 208  : 
; 209  :     /* Is aie in next page? */
; 210  :     if (regs->txf_aie >= (regs->aip + ZPAGEFRAME_PAGESIZE))

  00044	48 8b 44 24 08	 mov	 rax, QWORD PTR regs$[rsp]
  00049	48 8b 80 00 02
	00 00		 mov	 rax, QWORD PTR [rax+512]
  00050	48 05 00 10 00
	00		 add	 rax, 4096		; 00001000H
  00056	48 8b 4c 24 08	 mov	 rcx, QWORD PTR regs$[rsp]
  0005b	48 39 81 60 af
	00 00		 cmp	 QWORD PTR [rcx+44896], rax
  00062	72 4f		 jb	 SHORT $LN2@z900_set_t

; 211  :     {
; 212  :         /* Define aie offset into next page for vstore.h */
; 213  :         regs->txf_aie_aiv2 = regs->txf_aie_aiv + ZPAGEFRAME_PAGESIZE;

  00064	48 8b 44 24 08	 mov	 rax, QWORD PTR regs$[rsp]
  00069	48 8b 80 68 af
	00 00		 mov	 rax, QWORD PTR [rax+44904]
  00070	48 05 00 10 00
	00		 add	 rax, 4096		; 00001000H
  00076	48 8b 4c 24 08	 mov	 rcx, QWORD PTR regs$[rsp]
  0007b	48 89 81 70 af
	00 00		 mov	 QWORD PTR [rcx+44912], rax

; 214  :         regs->txf_aie_off2 = regs->txf_aie - (regs->aip + ZPAGEFRAME_PAGESIZE);

  00082	48 8b 44 24 08	 mov	 rax, QWORD PTR regs$[rsp]
  00087	48 8b 80 00 02
	00 00		 mov	 rax, QWORD PTR [rax+512]
  0008e	48 05 00 10 00
	00		 add	 rax, 4096		; 00001000H
  00094	48 8b 4c 24 08	 mov	 rcx, QWORD PTR regs$[rsp]
  00099	48 8b 89 60 af
	00 00		 mov	 rcx, QWORD PTR [rcx+44896]
  000a0	48 2b c8	 sub	 rcx, rax
  000a3	48 8b c1	 mov	 rax, rcx
  000a6	48 8b 4c 24 08	 mov	 rcx, QWORD PTR regs$[rsp]
  000ab	89 81 78 af 00
	00		 mov	 DWORD PTR [rcx+44920], eax

; 215  :     }

  000b1	eb 1b		 jmp	 SHORT $LN3@z900_set_t
$LN2@z900_set_t:

; 216  :     else
; 217  :     {
; 218  :         /* Prevent vstore.h next page offset match */
; 219  :         regs->txf_aie_aiv2 = ~regs->txf_aie_aiv;

  000b3	48 8b 44 24 08	 mov	 rax, QWORD PTR regs$[rsp]
  000b8	48 8b 80 68 af
	00 00		 mov	 rax, QWORD PTR [rax+44904]
  000bf	48 f7 d0	 not	 rax
  000c2	48 8b 4c 24 08	 mov	 rcx, QWORD PTR regs$[rsp]
  000c7	48 89 81 70 af
	00 00		 mov	 QWORD PTR [rcx+44912], rax
$LN3@z900_set_t:

; 220  :     }
; 221  : }

  000ce	c3		 ret	 0
z900_set_txf_aie ENDP
_TEXT	ENDS
; Function compile flags: /Odtp
; File C:\papa\MyGit\hyperion-zvector\transact.c
_TEXT	SEGMENT
regs$ = 8
z900_reset_txf_aie PROC

; 192  : {

  00000	48 89 4c 24 08	 mov	 QWORD PTR [rsp+8], rcx

; 193  :     regs->txf_contran  = false;

  00005	48 8b 44 24 08	 mov	 rax, QWORD PTR regs$[rsp]
  0000a	c6 80 4c 0e 00
	00 00		 mov	 BYTE PTR [rax+3660], 0

; 194  :     regs->txf_aie      = NULL;

  00011	48 8b 44 24 08	 mov	 rax, QWORD PTR regs$[rsp]
  00016	48 c7 80 60 af
	00 00 00 00 00
	00		 mov	 QWORD PTR [rax+44896], 0

; 195  :     regs->txf_aie_aiv  = 0;

  00021	48 8b 44 24 08	 mov	 rax, QWORD PTR regs$[rsp]
  00026	48 c7 80 68 af
	00 00 00 00 00
	00		 mov	 QWORD PTR [rax+44904], 0

; 196  :     regs->txf_aie_aiv2 = 0;

  00031	48 8b 44 24 08	 mov	 rax, QWORD PTR regs$[rsp]
  00036	48 c7 80 70 af
	00 00 00 00 00
	00		 mov	 QWORD PTR [rax+44912], 0

; 197  :     regs->txf_aie_off2 = 0;

  00041	48 8b 44 24 08	 mov	 rax, QWORD PTR regs$[rsp]
  00046	c7 80 78 af 00
	00 00 00 00 00	 mov	 DWORD PTR [rax+44920], 0

; 198  : }

  00050	c3		 ret	 0
z900_reset_txf_aie ENDP
_TEXT	ENDS
; Function compile flags: /Odtp
; File C:\papa\MyGit\hyperion-zvector\vstore.h
;	COMDAT z900_validate_operand
_TEXT	SEGMENT
tv81 = 48
addr$ = 80
arn$ = 88
len$ = 96
acctype$ = 104
regs$ = 112
z900_validate_operand PROC				; COMDAT

; 1376 : {

$LN8:
  00000	44 89 4c 24 20	 mov	 DWORD PTR [rsp+32], r9d
  00005	44 89 44 24 18	 mov	 DWORD PTR [rsp+24], r8d
  0000a	89 54 24 10	 mov	 DWORD PTR [rsp+16], edx
  0000e	48 89 4c 24 08	 mov	 QWORD PTR [rsp+8], rcx
  00013	48 83 ec 48	 sub	 rsp, 72			; 00000048H

; 1377 :     /* Translate address of leftmost operand byte */
; 1378 :     MADDR( addr, arn, regs, acctype, regs->psw.pkey );

  00017	48 8b 44 24 70	 mov	 rax, QWORD PTR regs$[rsp]
  0001c	0f b6 40 79	 movzx	 eax, BYTE PTR [rax+121]
  00020	88 44 24 28	 mov	 BYTE PTR [rsp+40], al
  00024	8b 44 24 68	 mov	 eax, DWORD PTR acctype$[rsp]
  00028	89 44 24 20	 mov	 DWORD PTR [rsp+32], eax
  0002c	4c 8b 4c 24 70	 mov	 r9, QWORD PTR regs$[rsp]
  00031	44 8b 44 24 58	 mov	 r8d, DWORD PTR arn$[rsp]
  00036	ba 01 00 00 00	 mov	 edx, 1
  0003b	48 8b 4c 24 50	 mov	 rcx, QWORD PTR addr$[rsp]
  00040	e8 00 00 00 00	 call	 z900_maddr_l

; 1379 : 
; 1380 :     /* Translate next page if boundary crossed */
; 1381 :     if (CROSSPAGE( addr, len ))

  00045	48 8b 44 24 50	 mov	 rax, QWORD PTR addr$[rsp]
  0004a	48 25 ff 0f 00
	00		 and	 rax, 4095		; 00000fffH
  00050	b9 ff 0f 00 00	 mov	 ecx, 4095		; 00000fffH
  00055	2b 4c 24 60	 sub	 ecx, DWORD PTR len$[rsp]
  00059	3b c1		 cmp	 eax, ecx
  0005b	7e 0a		 jle	 SHORT $LN6@z900_valid
  0005d	c7 44 24 30 01
	00 00 00	 mov	 DWORD PTR tv81[rsp], 1
  00065	eb 08		 jmp	 SHORT $LN7@z900_valid
$LN6@z900_valid:
  00067	c7 44 24 30 00
	00 00 00	 mov	 DWORD PTR tv81[rsp], 0
$LN7@z900_valid:
  0006f	83 7c 24 30 00	 cmp	 DWORD PTR tv81[rsp], 0
  00074	74 48		 je	 SHORT $LN2@z900_valid

; 1382 :     {
; 1383 :         MADDR( (addr + len) & ADDRESS_MAXWRAP( regs ),

  00076	48 63 44 24 60	 movsxd	 rax, DWORD PTR len$[rsp]
  0007b	48 8b 4c 24 50	 mov	 rcx, QWORD PTR addr$[rsp]
  00080	48 03 c8	 add	 rcx, rax
  00083	48 8b c1	 mov	 rax, rcx
  00086	48 8b 4c 24 70	 mov	 rcx, QWORD PTR regs$[rsp]
  0008b	48 23 81 90 00
	00 00		 and	 rax, QWORD PTR [rcx+144]
  00092	48 8b 4c 24 70	 mov	 rcx, QWORD PTR regs$[rsp]
  00097	0f b6 49 79	 movzx	 ecx, BYTE PTR [rcx+121]
  0009b	88 4c 24 28	 mov	 BYTE PTR [rsp+40], cl
  0009f	8b 4c 24 68	 mov	 ecx, DWORD PTR acctype$[rsp]
  000a3	89 4c 24 20	 mov	 DWORD PTR [rsp+32], ecx
  000a7	4c 8b 4c 24 70	 mov	 r9, QWORD PTR regs$[rsp]
  000ac	44 8b 44 24 58	 mov	 r8d, DWORD PTR arn$[rsp]
  000b1	ba 01 00 00 00	 mov	 edx, 1
  000b6	48 8b c8	 mov	 rcx, rax
  000b9	e8 00 00 00 00	 call	 z900_maddr_l
$LN2@z900_valid:

; 1384 :                arn, regs, acctype, regs->psw.pkey );
; 1385 :     }
; 1386 : #if defined( FEATURE_INTERVAL_TIMER )
; 1387 :     else
; 1388 :         ITIMER_SYNC( addr, len, regs );
; 1389 : #endif
; 1390 : }

  000be	48 83 c4 48	 add	 rsp, 72			; 00000048H
  000c2	c3		 ret	 0
z900_validate_operand ENDP
_TEXT	ENDS
; Function compile flags: /Odtp
; File C:\papa\MyGit\hyperion-zvector\vstore.h
;	COMDAT z900_vstore8
_TEXT	SEGMENT
tv70 = 48
mn$1 = 56
value$ = 80
addr$ = 88
arn$ = 96
regs$ = 104
z900_vstore8 PROC					; COMDAT

; 577  : {

$LN9:
  00000	4c 89 4c 24 20	 mov	 QWORD PTR [rsp+32], r9
  00005	44 89 44 24 18	 mov	 DWORD PTR [rsp+24], r8d
  0000a	48 89 54 24 10	 mov	 QWORD PTR [rsp+16], rdx
  0000f	48 89 4c 24 08	 mov	 QWORD PTR [rsp+8], rcx
  00014	48 83 ec 48	 sub	 rsp, 72			; 00000048H

; 578  : #if defined( OPTION_SINGLE_CPU_DW ) && defined( ASSIST_STORE_DW )
; 579  :     /* Check alignement. If aligned then we are guaranteed
; 580  :        not to cross a page boundary */
; 581  :     if (likely(!((VADR_L)addr & 0x07)))
; 582  :     {
; 583  :         /* Most common case : Aligned */
; 584  :         U64 *mn;
; 585  :         mn = (U64*)MADDRL( addr, 8, arn, regs, ACCTYPE_WRITE, regs->psw.pkey );
; 586  :         if (regs->cpubit == regs->sysblk->started_mask)
; 587  :             *mn = CSWAP64( value );
; 588  :         else
; 589  :             STORE_DW( mn, value );
; 590  :     }
; 591  :     else
; 592  : #endif
; 593  :     {
; 594  :         /* We're not aligned. So we have to check whether we are
; 595  :            crossing a page boundary. This cannot be the same
; 596  :            code as above because casting U64* to a non aligned
; 597  :            pointer may break on those architectures mandating
; 598  :            strict alignement */
; 599  :         if (likely(((VADR_L)addr & PAGEFRAME_BYTEMASK) <= (PAGEFRAME_BYTEMASK-7)))

  00018	48 8b 44 24 58	 mov	 rax, QWORD PTR addr$[rsp]
  0001d	48 25 ff 0f 00
	00		 and	 rax, 4095		; 00000fffH
  00023	48 3d f8 0f 00
	00		 cmp	 rax, 4088		; 00000ff8H
  00029	77 0a		 ja	 SHORT $LN7@z900_vstor
  0002b	c7 44 24 30 01
	00 00 00	 mov	 DWORD PTR tv70[rsp], 1
  00033	eb 08		 jmp	 SHORT $LN8@z900_vstor
$LN7@z900_vstor:
  00035	c7 44 24 30 00
	00 00 00	 mov	 DWORD PTR tv70[rsp], 0
$LN8@z900_vstor:
  0003d	83 7c 24 30 00	 cmp	 DWORD PTR tv70[rsp], 0
  00042	74 4c		 je	 SHORT $LN2@z900_vstor

; 600  :         {
; 601  :             /* Non aligned but not crossing page boundary */
; 602  :             BYTE *mn;
; 603  :             mn = MADDRL( addr, 8, arn, regs, ACCTYPE_WRITE, regs->psw.pkey );

  00044	48 8b 44 24 68	 mov	 rax, QWORD PTR regs$[rsp]
  00049	0f b6 40 79	 movzx	 eax, BYTE PTR [rax+121]
  0004d	88 44 24 28	 mov	 BYTE PTR [rsp+40], al
  00051	c7 44 24 20 02
	00 00 00	 mov	 DWORD PTR [rsp+32], 2
  00059	4c 8b 4c 24 68	 mov	 r9, QWORD PTR regs$[rsp]
  0005e	44 8b 44 24 60	 mov	 r8d, DWORD PTR arn$[rsp]
  00063	ba 08 00 00 00	 mov	 edx, 8
  00068	48 8b 4c 24 58	 mov	 rcx, QWORD PTR addr$[rsp]
  0006d	e8 00 00 00 00	 call	 z900_maddr_l
  00072	48 89 44 24 38	 mov	 QWORD PTR mn$1[rsp], rax

; 604  :             /* invoking STORE_DW ensures endianness correctness */
; 605  :             STORE_DW( mn, value );

  00077	48 8b 4c 24 50	 mov	 rcx, QWORD PTR value$[rsp]
  0007c	e8 00 00 00 00	 call	 _byteswap_uint64
  00081	48 8b d0	 mov	 rdx, rax
  00084	48 8b 4c 24 38	 mov	 rcx, QWORD PTR mn$1[rsp]
  00089	e8 00 00 00 00	 call	 store_dw_noswap

; 606  :         }

  0008e	eb 19		 jmp	 SHORT $LN3@z900_vstor
$LN2@z900_vstor:

; 607  :         else
; 608  :             /* Crossing page boundary */
; 609  :             ARCH_DEP( vstore8_full )( value, addr, arn, regs );

  00090	4c 8b 4c 24 68	 mov	 r9, QWORD PTR regs$[rsp]
  00095	44 8b 44 24 60	 mov	 r8d, DWORD PTR arn$[rsp]
  0009a	48 8b 54 24 58	 mov	 rdx, QWORD PTR addr$[rsp]
  0009f	48 8b 4c 24 50	 mov	 rcx, QWORD PTR value$[rsp]
  000a4	e8 00 00 00 00	 call	 z900_vstore8_full
$LN3@z900_vstor:

; 610  :     }
; 611  :     ITIMER_UPDATE( addr, 8-1, regs );
; 612  : }

  000a9	48 83 c4 48	 add	 rsp, 72			; 00000048H
  000ad	c3		 ret	 0
z900_vstore8 ENDP
_TEXT	ENDS
; Function compile flags: /Odtp
; File C:\papa\MyGit\hyperion-zvector\vstore.h
;	COMDAT z900_vstore8_full
_TEXT	SEGMENT
len$ = 48
sk$ = 56
main1$ = 64
main2$ = 72
temp$ = 80
__$ArrayPad$ = 88
value$ = 128
addr$ = 136
arn$ = 144
regs$ = 152
z900_vstore8_full PROC					; COMDAT

; 369  : {

$LN3:
  00000	4c 89 4c 24 20	 mov	 QWORD PTR [rsp+32], r9
  00005	44 89 44 24 18	 mov	 DWORD PTR [rsp+24], r8d
  0000a	48 89 54 24 10	 mov	 QWORD PTR [rsp+16], rdx
  0000f	48 89 4c 24 08	 mov	 QWORD PTR [rsp+8], rcx
  00014	56		 push	 rsi
  00015	57		 push	 rdi
  00016	48 83 ec 68	 sub	 rsp, 104		; 00000068H
  0001a	48 8b 05 00 00
	00 00		 mov	 rax, QWORD PTR __security_cookie
  00021	48 33 c4	 xor	 rax, rsp
  00024	48 89 44 24 58	 mov	 QWORD PTR __$ArrayPad$[rsp], rax

; 370  : BYTE   *main1, *main2;                  /* Mainstor addresses        */
; 371  : BYTE   *sk;                             /* Storage key addresses     */
; 372  : int     len;                            /* Length to end of page     */
; 373  : BYTE    temp[8];                        /* Copied value              */
; 374  : 
; 375  :     len = PAGEFRAME_PAGESIZE - (addr & PAGEFRAME_BYTEMASK);

  00029	48 8b 84 24 88
	00 00 00	 mov	 rax, QWORD PTR addr$[rsp]
  00031	48 25 ff 0f 00
	00		 and	 rax, 4095		; 00000fffH
  00037	b9 00 10 00 00	 mov	 ecx, 4096		; 00001000H
  0003c	48 2b c8	 sub	 rcx, rax
  0003f	48 8b c1	 mov	 rax, rcx
  00042	89 44 24 30	 mov	 DWORD PTR len$[rsp], eax

; 376  :     main1 = MADDRL( addr, len, arn, regs, ACCTYPE_WRITE_SKP, regs->psw.pkey );

  00046	48 63 44 24 30	 movsxd	 rax, DWORD PTR len$[rsp]
  0004b	48 8b 8c 24 98
	00 00 00	 mov	 rcx, QWORD PTR regs$[rsp]
  00053	0f b6 49 79	 movzx	 ecx, BYTE PTR [rcx+121]
  00057	88 4c 24 28	 mov	 BYTE PTR [rsp+40], cl
  0005b	c7 44 24 20 01
	00 00 00	 mov	 DWORD PTR [rsp+32], 1
  00063	4c 8b 8c 24 98
	00 00 00	 mov	 r9, QWORD PTR regs$[rsp]
  0006b	44 8b 84 24 90
	00 00 00	 mov	 r8d, DWORD PTR arn$[rsp]
  00073	48 8b d0	 mov	 rdx, rax
  00076	48 8b 8c 24 88
	00 00 00	 mov	 rcx, QWORD PTR addr$[rsp]
  0007e	e8 00 00 00 00	 call	 z900_maddr_l
  00083	48 89 44 24 40	 mov	 QWORD PTR main1$[rsp], rax

; 377  :     sk = regs->dat.storkey;

  00088	48 8b 84 24 98
	00 00 00	 mov	 rax, QWORD PTR regs$[rsp]
  00090	48 8b 80 28 08
	00 00		 mov	 rax, QWORD PTR [rax+2088]
  00097	48 89 44 24 38	 mov	 QWORD PTR sk$[rsp], rax

; 378  :     main2 = MADDRL( (addr + len) & ADDRESS_MAXWRAP( regs ), 8-len, arn, regs,

  0009c	b8 08 00 00 00	 mov	 eax, 8
  000a1	2b 44 24 30	 sub	 eax, DWORD PTR len$[rsp]
  000a5	48 98		 cdqe
  000a7	48 63 4c 24 30	 movsxd	 rcx, DWORD PTR len$[rsp]
  000ac	48 8b 94 24 88
	00 00 00	 mov	 rdx, QWORD PTR addr$[rsp]
  000b4	48 03 d1	 add	 rdx, rcx
  000b7	48 8b ca	 mov	 rcx, rdx
  000ba	48 8b 94 24 98
	00 00 00	 mov	 rdx, QWORD PTR regs$[rsp]
  000c2	48 23 8a 90 00
	00 00		 and	 rcx, QWORD PTR [rdx+144]
  000c9	48 8b 94 24 98
	00 00 00	 mov	 rdx, QWORD PTR regs$[rsp]
  000d1	0f b6 52 79	 movzx	 edx, BYTE PTR [rdx+121]
  000d5	88 54 24 28	 mov	 BYTE PTR [rsp+40], dl
  000d9	c7 44 24 20 02
	00 00 00	 mov	 DWORD PTR [rsp+32], 2
  000e1	4c 8b 8c 24 98
	00 00 00	 mov	 r9, QWORD PTR regs$[rsp]
  000e9	44 8b 84 24 90
	00 00 00	 mov	 r8d, DWORD PTR arn$[rsp]
  000f1	48 8b d0	 mov	 rdx, rax
  000f4	e8 00 00 00 00	 call	 z900_maddr_l
  000f9	48 89 44 24 48	 mov	 QWORD PTR main2$[rsp], rax

; 379  :                     ACCTYPE_WRITE, regs->psw.pkey );
; 380  :     *sk |= (STORKEY_REF | STORKEY_CHANGE);

  000fe	48 8b 44 24 38	 mov	 rax, QWORD PTR sk$[rsp]
  00103	0f b6 00	 movzx	 eax, BYTE PTR [rax]
  00106	83 c8 06	 or	 eax, 6
  00109	48 8b 4c 24 38	 mov	 rcx, QWORD PTR sk$[rsp]
  0010e	88 01		 mov	 BYTE PTR [rcx], al

; 381  :     STORE_DW( temp, value );

  00110	48 8b 8c 24 80
	00 00 00	 mov	 rcx, QWORD PTR value$[rsp]
  00118	e8 00 00 00 00	 call	 _byteswap_uint64
  0011d	48 8b d0	 mov	 rdx, rax
  00120	48 8d 4c 24 50	 lea	 rcx, QWORD PTR temp$[rsp]
  00125	e8 00 00 00 00	 call	 store_dw_noswap

; 382  :     memcpy( main1, temp,       len );

  0012a	48 63 44 24 30	 movsxd	 rax, DWORD PTR len$[rsp]
  0012f	48 8d 4c 24 50	 lea	 rcx, QWORD PTR temp$[rsp]
  00134	48 8b 7c 24 40	 mov	 rdi, QWORD PTR main1$[rsp]
  00139	48 8b f1	 mov	 rsi, rcx
  0013c	48 8b c8	 mov	 rcx, rax
  0013f	f3 a4		 rep movsb

; 383  :     memcpy( main2, temp+len, 8-len );

  00141	b8 08 00 00 00	 mov	 eax, 8
  00146	2b 44 24 30	 sub	 eax, DWORD PTR len$[rsp]
  0014a	48 98		 cdqe
  0014c	48 63 4c 24 30	 movsxd	 rcx, DWORD PTR len$[rsp]
  00151	48 8d 4c 0c 50	 lea	 rcx, QWORD PTR temp$[rsp+rcx]
  00156	48 8b 7c 24 48	 mov	 rdi, QWORD PTR main2$[rsp]
  0015b	48 8b f1	 mov	 rsi, rcx
  0015e	48 8b c8	 mov	 rcx, rax
  00161	f3 a4		 rep movsb

; 384  : }

  00163	48 8b 4c 24 58	 mov	 rcx, QWORD PTR __$ArrayPad$[rsp]
  00168	48 33 cc	 xor	 rcx, rsp
  0016b	e8 00 00 00 00	 call	 __security_check_cookie
  00170	48 83 c4 68	 add	 rsp, 104		; 00000068H
  00174	5f		 pop	 rdi
  00175	5e		 pop	 rsi
  00176	c3		 ret	 0
z900_vstore8_full ENDP
_TEXT	ENDS
; Function compile flags: /Odtp
; File C:\papa\MyGit\hyperion-zvector\dat.h
;	COMDAT z900_maddr_l
_TEXT	SEGMENT
tlbix$ = 48
aea_crn$ = 52
tv70 = 56
maddr$ = 64
addr$ = 96
len$ = 104
arn$ = 112
regs$ = 120
acctype$ = 128
akey$ = 136
z900_maddr_l PROC					; COMDAT

; 307  : {

$LN18:
  00000	4c 89 4c 24 20	 mov	 QWORD PTR [rsp+32], r9
  00005	44 89 44 24 18	 mov	 DWORD PTR [rsp+24], r8d
  0000a	48 89 54 24 10	 mov	 QWORD PTR [rsp+16], rdx
  0000f	48 89 4c 24 08	 mov	 QWORD PTR [rsp+8], rcx
  00014	48 83 ec 58	 sub	 rsp, 88			; 00000058H

; 308  :     /* Note: ALL of the below conditions must be true for a TLB hit
; 309  :        to occur.  If ANY of them are false, then it's a TLB miss,
; 310  :        requiring us to then perform a full DAT address translation.
; 311  : 
; 312  :        Note too that on the grand scheme of things the order/sequence
; 313  :        of the below tests (if statements) is completely unimportant
; 314  :        since ALL conditions must be checked anyway in order for a hit
; 315  :        to occur, and it doesn't matter that a miss tests a few extra
; 316  :        conditions since it's going to do a full translation anyway!
; 317  :        (which is many, many instructions)
; 318  :     */
; 319  : 
; 320  :     int  aea_crn  = (arn >= USE_ARMODE) ? 0 : regs->AEA_AR( arn );

  00018	83 7c 24 70 10	 cmp	 DWORD PTR arn$[rsp], 16
  0001d	7c 0a		 jl	 SHORT $LN16@z900_maddr
  0001f	c7 44 24 38 00
	00 00 00	 mov	 DWORD PTR tv70[rsp], 0
  00027	eb 19		 jmp	 SHORT $LN17@z900_maddr
$LN16@z900_maddr:
  00029	8b 44 24 70	 mov	 eax, DWORD PTR arn$[rsp]
  0002d	83 c0 05	 add	 eax, 5
  00030	48 98		 cdqe
  00032	48 8b 4c 24 78	 mov	 rcx, QWORD PTR regs$[rsp]
  00037	8b 84 81 94 0c
	00 00		 mov	 eax, DWORD PTR [rcx+rax*4+3220]
  0003e	89 44 24 38	 mov	 DWORD PTR tv70[rsp], eax
$LN17@z900_maddr:
  00042	8b 44 24 38	 mov	 eax, DWORD PTR tv70[rsp]
  00046	89 44 24 34	 mov	 DWORD PTR aea_crn$[rsp], eax

; 321  :     U16  tlbix    = TLBIX( addr );

  0004a	48 8b 44 24 60	 mov	 rax, QWORD PTR addr$[rsp]
  0004f	48 c1 e8 0c	 shr	 rax, 12
  00053	48 25 ff 03 00
	00		 and	 rax, 1023		; 000003ffH
  00059	66 89 44 24 30	 mov	 WORD PTR tlbix$[rsp], ax

; 322  :     BYTE *maddr   = NULL;

  0005e	48 c7 44 24 40
	00 00 00 00	 mov	 QWORD PTR maddr$[rsp], 0

; 323  : 
; 324  :     /* Non-zero AEA Control Register number? */
; 325  :     if (aea_crn)

  00067	83 7c 24 34 00	 cmp	 DWORD PTR aea_crn$[rsp], 0
  0006c	0f 84 2d 01 00
	00		 je	 $LN2@z900_maddr

; 326  :     {
; 327  :         /* Same Addess Space Designator as before? */
; 328  :         /* Or if not, is address in a common segment? */
; 329  :         if (0
; 330  :             || (regs->CR( aea_crn ) == regs->tlb.TLB_ASD( tlbix ))
; 331  :             || (regs->AEA_COMMON( aea_crn ) & regs->tlb.common[ tlbix ])

  00072	33 c0		 xor	 eax, eax
  00074	85 c0		 test	 eax, eax
  00076	75 5a		 jne	 SHORT $LN4@z900_maddr
  00078	8b 44 24 34	 mov	 eax, DWORD PTR aea_crn$[rsp]
  0007c	ff c0		 inc	 eax
  0007e	48 98		 cdqe
  00080	0f b7 4c 24 30	 movzx	 ecx, WORD PTR tlbix$[rsp]
  00085	48 8b 54 24 78	 mov	 rdx, QWORD PTR regs$[rsp]
  0008a	4c 8b 44 24 78	 mov	 r8, QWORD PTR regs$[rsp]
  0008f	49 8b 8c c8 60
	b0 00 00	 mov	 rcx, QWORD PTR [r8+rcx*8+45152]
  00097	48 39 8c c2 00
	06 00 00	 cmp	 QWORD PTR [rdx+rax*8+1536], rcx
  0009f	74 31		 je	 SHORT $LN4@z900_maddr
  000a1	8b 44 24 34	 mov	 eax, DWORD PTR aea_crn$[rsp]
  000a5	ff c0		 inc	 eax
  000a7	48 98		 cdqe
  000a9	48 8b 4c 24 78	 mov	 rcx, QWORD PTR regs$[rsp]
  000ae	0f b6 84 01 e8
	0c 00 00	 movzx	 eax, BYTE PTR [rcx+rax+3304]
  000b6	0f b7 4c 24 30	 movzx	 ecx, WORD PTR tlbix$[rsp]
  000bb	48 8b 54 24 78	 mov	 rdx, QWORD PTR regs$[rsp]
  000c0	0f b6 8c 0a 60
	54 01 00	 movzx	 ecx, BYTE PTR [rdx+rcx+87136]
  000c8	23 c1		 and	 eax, ecx
  000ca	85 c0		 test	 eax, eax
  000cc	0f 84 cd 00 00
	00		 je	 $LN3@z900_maddr
$LN4@z900_maddr:

; 332  :         )
; 333  :         {
; 334  :             /* Storage Key zero? */
; 335  :             /* Or if not, same Storage Key as before? */
; 336  :             if (0
; 337  :                 || akey == 0
; 338  :                 || akey == regs->tlb.skey[ tlbix ]

  000d2	33 c0		 xor	 eax, eax
  000d4	85 c0		 test	 eax, eax
  000d6	75 2e		 jne	 SHORT $LN6@z900_maddr
  000d8	0f b6 84 24 88
	00 00 00	 movzx	 eax, BYTE PTR akey$[rsp]
  000e0	85 c0		 test	 eax, eax
  000e2	74 22		 je	 SHORT $LN6@z900_maddr
  000e4	0f b6 84 24 88
	00 00 00	 movzx	 eax, BYTE PTR akey$[rsp]
  000ec	0f b7 4c 24 30	 movzx	 ecx, WORD PTR tlbix$[rsp]
  000f1	48 8b 54 24 78	 mov	 rdx, QWORD PTR regs$[rsp]
  000f6	0f b6 8c 0a 60
	50 01 00	 movzx	 ecx, BYTE PTR [rdx+rcx+86112]
  000fe	3b c1		 cmp	 eax, ecx
  00100	0f 85 99 00 00
	00		 jne	 $LN5@z900_maddr
$LN6@z900_maddr:

; 339  :             )
; 340  :             {
; 341  :                 /* Does the page address match the one in the TLB? */
; 342  :                 /* (does a TLB entry exist for this page address?) */
; 343  :                 if (
; 344  :                     ((addr & TLBID_PAGEMASK) | regs->tlbID)
; 345  :                     ==

  00106	48 8b 44 24 60	 mov	 rax, QWORD PTR addr$[rsp]
  0010b	48 25 00 00 c0
	ff		 and	 rax, -4194304		; ffffffffffc00000H
  00111	48 8b 4c 24 78	 mov	 rcx, QWORD PTR regs$[rsp]
  00116	8b 89 58 b0 00
	00		 mov	 ecx, DWORD PTR [rcx+45144]
  0011c	48 0b c1	 or	 rax, rcx
  0011f	0f b7 4c 24 30	 movzx	 ecx, WORD PTR tlbix$[rsp]
  00124	48 8b 54 24 78	 mov	 rdx, QWORD PTR regs$[rsp]
  00129	48 3b 84 ca 60
	d0 00 00	 cmp	 rax, QWORD PTR [rdx+rcx*8+53344]
  00131	75 6c		 jne	 SHORT $LN7@z900_maddr

; 346  :                     regs->tlb.TLB_VADDR( tlbix )
; 347  :                 )
; 348  :                 {
; 349  :                     /* Is storage being accessed same way as before? */
; 350  :                     if (acctype & regs->tlb.acc[ tlbix ])

  00133	0f b7 44 24 30	 movzx	 eax, WORD PTR tlbix$[rsp]
  00138	48 8b 4c 24 78	 mov	 rcx, QWORD PTR regs$[rsp]
  0013d	0f b6 84 01 60
	5c 01 00	 movzx	 eax, BYTE PTR [rcx+rax+89184]
  00145	8b 8c 24 80 00
	00 00		 mov	 ecx, DWORD PTR acctype$[rsp]
  0014c	23 c8		 and	 ecx, eax
  0014e	8b c1		 mov	 eax, ecx
  00150	85 c0		 test	 eax, eax
  00152	74 4b		 je	 SHORT $LN8@z900_maddr

; 351  :                     {
; 352  :                         /*------------------------------------------*/
; 353  :                         /* TLB hit: use previously translated value */
; 354  :                         /*------------------------------------------*/
; 355  : 
; 356  :                         if (acctype & ACC_CHECK)

  00154	8b 84 24 80 00
	00 00		 mov	 eax, DWORD PTR acctype$[rsp]
  0015b	83 e0 01	 and	 eax, 1
  0015e	85 c0		 test	 eax, eax
  00160	74 1e		 je	 SHORT $LN9@z900_maddr

; 357  :                             regs->dat.storkey = regs->tlb.storkey[ tlbix ];

  00162	0f b7 44 24 30	 movzx	 eax, WORD PTR tlbix$[rsp]
  00167	48 8b 4c 24 78	 mov	 rcx, QWORD PTR regs$[rsp]
  0016c	48 8b 54 24 78	 mov	 rdx, QWORD PTR regs$[rsp]
  00171	48 8b 84 c2 60
	30 01 00	 mov	 rax, QWORD PTR [rdx+rax*8+77920]
  00179	48 89 81 28 08
	00 00		 mov	 QWORD PTR [rcx+2088], rax
$LN9@z900_maddr:

; 358  : 
; 359  :                         maddr = MAINADDR( regs->tlb.main[tlbix], addr );

  00180	0f b7 44 24 30	 movzx	 eax, WORD PTR tlbix$[rsp]
  00185	48 8b 4c 24 78	 mov	 rcx, QWORD PTR regs$[rsp]
  0018a	48 8b 54 24 60	 mov	 rdx, QWORD PTR addr$[rsp]
  0018f	48 8b 84 c1 60
	10 01 00	 mov	 rax, QWORD PTR [rcx+rax*8+69728]
  00197	48 33 c2	 xor	 rax, rdx
  0019a	48 89 44 24 40	 mov	 QWORD PTR maddr$[rsp], rax
$LN8@z900_maddr:
$LN7@z900_maddr:
$LN5@z900_maddr:
$LN3@z900_maddr:
$LN2@z900_maddr:

; 360  :                     }
; 361  :                 }
; 362  :             }
; 363  :         }
; 364  :     }
; 365  : 
; 366  :     /*---------------------------------------*/
; 367  :     /* TLB miss: do full address translation */
; 368  :     /*---------------------------------------*/
; 369  :     if (!maddr)

  0019f	48 83 7c 24 40
	00		 cmp	 QWORD PTR maddr$[rsp], 0
  001a5	75 36		 jne	 SHORT $LN10@z900_maddr

; 370  :         maddr = ARCH_DEP( logical_to_main_l )( addr, arn, regs, acctype, akey, len );

  001a7	48 8b 44 24 68	 mov	 rax, QWORD PTR len$[rsp]
  001ac	48 89 44 24 28	 mov	 QWORD PTR [rsp+40], rax
  001b1	0f b6 84 24 88
	00 00 00	 movzx	 eax, BYTE PTR akey$[rsp]
  001b9	88 44 24 20	 mov	 BYTE PTR [rsp+32], al
  001bd	44 8b 8c 24 80
	00 00 00	 mov	 r9d, DWORD PTR acctype$[rsp]
  001c5	4c 8b 44 24 78	 mov	 r8, QWORD PTR regs$[rsp]
  001ca	8b 54 24 70	 mov	 edx, DWORD PTR arn$[rsp]
  001ce	48 8b 4c 24 60	 mov	 rcx, QWORD PTR addr$[rsp]
  001d3	e8 00 00 00 00	 call	 z900_logical_to_main_l
  001d8	48 89 44 24 40	 mov	 QWORD PTR maddr$[rsp], rax
$LN10@z900_maddr:

; 371  : 
; 372  : #if defined( FEATURE_073_TRANSACT_EXEC_FACILITY )
; 373  :     if (FACILITY_ENABLED( 073_TRANSACT_EXEC, regs ))

  001dd	b8 01 00 00 00	 mov	 eax, 1
  001e2	48 6b c0 09	 imul	 rax, rax, 9
  001e6	48 8b 4c 24 78	 mov	 rcx, QWORD PTR regs$[rsp]
  001eb	0f b6 84 01 28
	0d 00 00	 movzx	 eax, BYTE PTR [rcx+rax+3368]
  001f3	83 e0 40	 and	 eax, 64			; 00000040H
  001f6	85 c0		 test	 eax, eax
  001f8	0f 84 89 00 00
	00		 je	 $LN11@z900_maddr

; 374  :     {
; 375  :         /* SA22-7832-12 Principles of Operation, page 5-99:
; 376  : 
; 377  :              "Storage accesses for instruction and DAT- and ART-
; 378  :               table fetches follow the non-transactional rules."
; 379  :         */
; 380  :         if (0
; 381  :             || !regs
; 382  :             || !regs->txf_tnd
; 383  :             || arn == USE_INST_SPACE    /* Instruction fetching */
; 384  :             || arn == USE_REAL_ADDR     /* Address translation  */

  001fe	33 c0		 xor	 eax, eax
  00200	85 c0		 test	 eax, eax
  00202	75 26		 jne	 SHORT $LN13@z900_maddr
  00204	48 83 7c 24 78
	00		 cmp	 QWORD PTR regs$[rsp], 0
  0020a	74 1e		 je	 SHORT $LN13@z900_maddr
  0020c	48 8b 44 24 78	 mov	 rax, QWORD PTR regs$[rsp]
  00211	0f b6 80 58 0e
	00 00		 movzx	 eax, BYTE PTR [rax+3672]
  00218	85 c0		 test	 eax, eax
  0021a	74 0e		 je	 SHORT $LN13@z900_maddr
  0021c	83 7c 24 70 ff	 cmp	 DWORD PTR arn$[rsp], -1
  00221	74 07		 je	 SHORT $LN13@z900_maddr
  00223	83 7c 24 70 fe	 cmp	 DWORD PTR arn$[rsp], -2
  00228	75 07		 jne	 SHORT $LN12@z900_maddr
$LN13@z900_maddr:

; 385  :         )
; 386  :             return maddr;

  0022a	48 8b 44 24 40	 mov	 rax, QWORD PTR maddr$[rsp]
  0022f	eb 5b		 jmp	 SHORT $LN1@z900_maddr
$LN12@z900_maddr:

; 387  : 
; 388  :         /* Quick exit if NTSTG call */
; 389  :         if (regs->txf_NTSTG)

  00231	48 8b 44 24 78	 mov	 rax, QWORD PTR regs$[rsp]
  00236	0f b6 80 4b 0e
	00 00		 movzx	 eax, BYTE PTR [rax+3659]
  0023d	85 c0		 test	 eax, eax
  0023f	74 13		 je	 SHORT $LN14@z900_maddr

; 390  :         {
; 391  :             regs->txf_NTSTG = false;

  00241	48 8b 44 24 78	 mov	 rax, QWORD PTR regs$[rsp]
  00246	c6 80 4b 0e 00
	00 00		 mov	 BYTE PTR [rax+3659], 0

; 392  :             return maddr;

  0024d	48 8b 44 24 40	 mov	 rax, QWORD PTR maddr$[rsp]
  00252	eb 38		 jmp	 SHORT $LN1@z900_maddr
$LN14@z900_maddr:

; 393  :         }
; 394  : 
; 395  :         /* Translate to alternate TXF address */
; 396  :         maddr = TXF_MADDRL( addr, len, arn, regs, acctype, maddr );

  00254	48 8b 44 24 40	 mov	 rax, QWORD PTR maddr$[rsp]
  00259	48 89 44 24 28	 mov	 QWORD PTR [rsp+40], rax
  0025e	8b 84 24 80 00
	00 00		 mov	 eax, DWORD PTR acctype$[rsp]
  00265	89 44 24 20	 mov	 DWORD PTR [rsp+32], eax
  00269	4c 8b 4c 24 78	 mov	 r9, QWORD PTR regs$[rsp]
  0026e	44 8b 44 24 70	 mov	 r8d, DWORD PTR arn$[rsp]
  00273	48 8b 54 24 68	 mov	 rdx, QWORD PTR len$[rsp]
  00278	48 8b 4c 24 60	 mov	 rcx, QWORD PTR addr$[rsp]
  0027d	e8 00 00 00 00	 call	 txf_maddr_l
  00282	48 89 44 24 40	 mov	 QWORD PTR maddr$[rsp], rax
$LN11@z900_maddr:

; 397  :     }
; 398  : #endif
; 399  : 
; 400  :     return maddr;

  00287	48 8b 44 24 40	 mov	 rax, QWORD PTR maddr$[rsp]
$LN1@z900_maddr:

; 401  : }

  0028c	48 83 c4 58	 add	 rsp, 88			; 00000058H
  00290	c3		 ret	 0
z900_maddr_l ENDP
_TEXT	ENDS
; Function compile flags: /Odtp
; File C:\papa\MyGit\hyperion-zvector\inline.h
;	COMDAT z900_per3_zero_xcheck2
_TEXT	SEGMENT
tv81 = 32
tv131 = 40
tv150 = 48
tv181 = 56
tv166 = 64
regs$ = 96
x2$ = 104
b2$ = 112
z900_per3_zero_xcheck2 PROC				; COMDAT

; 765  : {

$LN18:
  00000	44 89 44 24 18	 mov	 DWORD PTR [rsp+24], r8d
  00005	89 54 24 10	 mov	 DWORD PTR [rsp+16], edx
  00009	48 89 4c 24 08	 mov	 QWORD PTR [rsp+8], rcx
  0000e	48 83 ec 58	 sub	 rsp, 88			; 00000058H

; 766  : #if defined( FEATURE_PER_ZERO_ADDRESS_DETECTION_FACILITY )
; 767  :     if (0
; 768  :         || (!b2 && x2 && GR_A( x2, regs ) == 0)
; 769  :         || (!x2 && b2 && GR_A( b2, regs ) == 0)
; 770  :         || ( b2 && x2 && (0

  00012	33 c0		 xor	 eax, eax
  00014	85 c0		 test	 eax, eax
  00016	0f 85 ba 01 00
	00		 jne	 $LN3@z900_per3_
  0001c	83 7c 24 70 00	 cmp	 DWORD PTR b2$[rsp], 0
  00021	75 54		 jne	 SHORT $LN4@z900_per3_
  00023	83 7c 24 68 00	 cmp	 DWORD PTR x2$[rsp], 0
  00028	74 4d		 je	 SHORT $LN4@z900_per3_
  0002a	48 8b 44 24 60	 mov	 rax, QWORD PTR regs$[rsp]
  0002f	8b 80 80 00 00
	00		 mov	 eax, DWORD PTR [rax+128]
  00035	83 e0 01	 and	 eax, 1
  00038	85 c0		 test	 eax, eax
  0003a	74 19		 je	 SHORT $LN8@z900_per3_
  0003c	48 63 44 24 68	 movsxd	 rax, DWORD PTR x2$[rsp]
  00041	48 8b 4c 24 60	 mov	 rcx, QWORD PTR regs$[rsp]
  00046	48 8b 84 c1 80
	02 00 00	 mov	 rax, QWORD PTR [rcx+rax*8+640]
  0004e	48 89 44 24 20	 mov	 QWORD PTR tv81[rsp], rax
  00053	eb 16		 jmp	 SHORT $LN9@z900_per3_
$LN8@z900_per3_:
  00055	48 63 44 24 68	 movsxd	 rax, DWORD PTR x2$[rsp]
  0005a	48 8b 4c 24 60	 mov	 rcx, QWORD PTR regs$[rsp]
  0005f	8b 84 c1 80 02
	00 00		 mov	 eax, DWORD PTR [rcx+rax*8+640]
  00066	48 89 44 24 20	 mov	 QWORD PTR tv81[rsp], rax
$LN9@z900_per3_:
  0006b	48 83 7c 24 20
	00		 cmp	 QWORD PTR tv81[rsp], 0
  00071	0f 84 5f 01 00
	00		 je	 $LN3@z900_per3_
$LN4@z900_per3_:
  00077	83 7c 24 68 00	 cmp	 DWORD PTR x2$[rsp], 0
  0007c	75 54		 jne	 SHORT $LN5@z900_per3_
  0007e	83 7c 24 70 00	 cmp	 DWORD PTR b2$[rsp], 0
  00083	74 4d		 je	 SHORT $LN5@z900_per3_
  00085	48 8b 44 24 60	 mov	 rax, QWORD PTR regs$[rsp]
  0008a	8b 80 80 00 00
	00		 mov	 eax, DWORD PTR [rax+128]
  00090	83 e0 01	 and	 eax, 1
  00093	85 c0		 test	 eax, eax
  00095	74 19		 je	 SHORT $LN10@z900_per3_
  00097	48 63 44 24 70	 movsxd	 rax, DWORD PTR b2$[rsp]
  0009c	48 8b 4c 24 60	 mov	 rcx, QWORD PTR regs$[rsp]
  000a1	48 8b 84 c1 80
	02 00 00	 mov	 rax, QWORD PTR [rcx+rax*8+640]
  000a9	48 89 44 24 28	 mov	 QWORD PTR tv131[rsp], rax
  000ae	eb 16		 jmp	 SHORT $LN11@z900_per3_
$LN10@z900_per3_:
  000b0	48 63 44 24 70	 movsxd	 rax, DWORD PTR b2$[rsp]
  000b5	48 8b 4c 24 60	 mov	 rcx, QWORD PTR regs$[rsp]
  000ba	8b 84 c1 80 02
	00 00		 mov	 eax, DWORD PTR [rcx+rax*8+640]
  000c1	48 89 44 24 28	 mov	 QWORD PTR tv131[rsp], rax
$LN11@z900_per3_:
  000c6	48 83 7c 24 28
	00		 cmp	 QWORD PTR tv131[rsp], 0
  000cc	0f 84 04 01 00
	00		 je	 $LN3@z900_per3_
$LN5@z900_per3_:
  000d2	83 7c 24 70 00	 cmp	 DWORD PTR b2$[rsp], 0
  000d7	0f 84 03 01 00
	00		 je	 $LN2@z900_per3_
  000dd	83 7c 24 68 00	 cmp	 DWORD PTR x2$[rsp], 0
  000e2	0f 84 f8 00 00
	00		 je	 $LN2@z900_per3_
  000e8	33 c0		 xor	 eax, eax
  000ea	85 c0		 test	 eax, eax
  000ec	0f 85 e4 00 00
	00		 jne	 $LN6@z900_per3_
  000f2	48 8b 44 24 60	 mov	 rax, QWORD PTR regs$[rsp]
  000f7	8b 80 80 00 00
	00		 mov	 eax, DWORD PTR [rax+128]
  000fd	83 e0 01	 and	 eax, 1
  00100	85 c0		 test	 eax, eax
  00102	74 19		 je	 SHORT $LN12@z900_per3_
  00104	48 63 44 24 70	 movsxd	 rax, DWORD PTR b2$[rsp]
  00109	48 8b 4c 24 60	 mov	 rcx, QWORD PTR regs$[rsp]
  0010e	48 8b 84 c1 80
	02 00 00	 mov	 rax, QWORD PTR [rcx+rax*8+640]
  00116	48 89 44 24 30	 mov	 QWORD PTR tv150[rsp], rax
  0011b	eb 16		 jmp	 SHORT $LN13@z900_per3_
$LN12@z900_per3_:
  0011d	48 63 44 24 70	 movsxd	 rax, DWORD PTR b2$[rsp]
  00122	48 8b 4c 24 60	 mov	 rcx, QWORD PTR regs$[rsp]
  00127	8b 84 c1 80 02
	00 00		 mov	 eax, DWORD PTR [rcx+rax*8+640]
  0012e	48 89 44 24 30	 mov	 QWORD PTR tv150[rsp], rax
$LN13@z900_per3_:
  00133	48 83 7c 24 30
	00		 cmp	 QWORD PTR tv150[rsp], 0
  00139	0f 84 97 00 00
	00		 je	 $LN6@z900_per3_
  0013f	48 8b 44 24 60	 mov	 rax, QWORD PTR regs$[rsp]
  00144	8b 80 80 00 00
	00		 mov	 eax, DWORD PTR [rax+128]
  0014a	83 e0 01	 and	 eax, 1
  0014d	85 c0		 test	 eax, eax
  0014f	74 19		 je	 SHORT $LN14@z900_per3_
  00151	48 63 44 24 70	 movsxd	 rax, DWORD PTR b2$[rsp]
  00156	48 8b 4c 24 60	 mov	 rcx, QWORD PTR regs$[rsp]
  0015b	48 8b 84 c1 80
	02 00 00	 mov	 rax, QWORD PTR [rcx+rax*8+640]
  00163	48 89 44 24 40	 mov	 QWORD PTR tv166[rsp], rax
  00168	eb 16		 jmp	 SHORT $LN15@z900_per3_
$LN14@z900_per3_:
  0016a	48 63 44 24 70	 movsxd	 rax, DWORD PTR b2$[rsp]
  0016f	48 8b 4c 24 60	 mov	 rcx, QWORD PTR regs$[rsp]
  00174	8b 84 c1 80 02
	00 00		 mov	 eax, DWORD PTR [rcx+rax*8+640]
  0017b	48 89 44 24 40	 mov	 QWORD PTR tv166[rsp], rax
$LN15@z900_per3_:
  00180	48 8b 44 24 60	 mov	 rax, QWORD PTR regs$[rsp]
  00185	8b 80 80 00 00
	00		 mov	 eax, DWORD PTR [rax+128]
  0018b	83 e0 01	 and	 eax, 1
  0018e	85 c0		 test	 eax, eax
  00190	74 19		 je	 SHORT $LN16@z900_per3_
  00192	48 63 44 24 68	 movsxd	 rax, DWORD PTR x2$[rsp]
  00197	48 8b 4c 24 60	 mov	 rcx, QWORD PTR regs$[rsp]
  0019c	48 8b 84 c1 80
	02 00 00	 mov	 rax, QWORD PTR [rcx+rax*8+640]
  001a4	48 89 44 24 38	 mov	 QWORD PTR tv181[rsp], rax
  001a9	eb 16		 jmp	 SHORT $LN17@z900_per3_
$LN16@z900_per3_:
  001ab	48 63 44 24 68	 movsxd	 rax, DWORD PTR x2$[rsp]
  001b0	48 8b 4c 24 60	 mov	 rcx, QWORD PTR regs$[rsp]
  001b5	8b 84 c1 80 02
	00 00		 mov	 eax, DWORD PTR [rcx+rax*8+640]
  001bc	48 89 44 24 38	 mov	 QWORD PTR tv181[rsp], rax
$LN17@z900_per3_:
  001c1	48 8b 44 24 38	 mov	 rax, QWORD PTR tv181[rsp]
  001c6	48 8b 4c 24 40	 mov	 rcx, QWORD PTR tv166[rsp]
  001cb	48 03 c8	 add	 rcx, rax
  001ce	48 8b c1	 mov	 rax, rcx
  001d1	48 85 c0	 test	 rax, rax
  001d4	75 0a		 jne	 SHORT $LN2@z900_per3_
$LN6@z900_per3_:
$LN3@z900_per3_:

; 771  :                           || GR_A( b2, regs ) == 0
; 772  :                           || GR_A( b2, regs ) + GR_A( x2, regs ) == 0
; 773  :                          )
; 774  :            )
; 775  :     )
; 776  :         ARCH_DEP( per3_zero )( regs );

  001d6	48 8b 4c 24 60	 mov	 rcx, QWORD PTR regs$[rsp]
  001db	e8 00 00 00 00	 call	 z900_per3_zero
$LN2@z900_per3_:

; 777  : #else
; 778  :     UNREFERENCED( regs );
; 779  :     UNREFERENCED( x2 );
; 780  :     UNREFERENCED( b2 );
; 781  : #endif
; 782  : }

  001e0	48 83 c4 58	 add	 rsp, 88			; 00000058H
  001e4	c3		 ret	 0
z900_per3_zero_xcheck2 ENDP
_TEXT	ENDS
; Function compile flags: /Odtp
; File C:\papa\MyGit\hyperion-zvector\inline.h
;	COMDAT z900_per3_zero_xcheck
_TEXT	SEGMENT
tv79 = 32
regs$ = 64
b1$ = 72
z900_per3_zero_xcheck PROC				; COMDAT

; 754  : {

$LN6:
  00000	89 54 24 10	 mov	 DWORD PTR [rsp+16], edx
  00004	48 89 4c 24 08	 mov	 QWORD PTR [rsp+8], rcx
  00009	48 83 ec 38	 sub	 rsp, 56			; 00000038H

; 755  : #if defined( FEATURE_PER_ZERO_ADDRESS_DETECTION_FACILITY )
; 756  :     if (b1 && GR_A( b1, regs ) == 0)

  0000d	83 7c 24 48 00	 cmp	 DWORD PTR b1$[rsp], 0
  00012	74 53		 je	 SHORT $LN2@z900_per3_
  00014	48 8b 44 24 40	 mov	 rax, QWORD PTR regs$[rsp]
  00019	8b 80 80 00 00
	00		 mov	 eax, DWORD PTR [rax+128]
  0001f	83 e0 01	 and	 eax, 1
  00022	85 c0		 test	 eax, eax
  00024	74 19		 je	 SHORT $LN4@z900_per3_
  00026	48 63 44 24 48	 movsxd	 rax, DWORD PTR b1$[rsp]
  0002b	48 8b 4c 24 40	 mov	 rcx, QWORD PTR regs$[rsp]
  00030	48 8b 84 c1 80
	02 00 00	 mov	 rax, QWORD PTR [rcx+rax*8+640]
  00038	48 89 44 24 20	 mov	 QWORD PTR tv79[rsp], rax
  0003d	eb 16		 jmp	 SHORT $LN5@z900_per3_
$LN4@z900_per3_:
  0003f	48 63 44 24 48	 movsxd	 rax, DWORD PTR b1$[rsp]
  00044	48 8b 4c 24 40	 mov	 rcx, QWORD PTR regs$[rsp]
  00049	8b 84 c1 80 02
	00 00		 mov	 eax, DWORD PTR [rcx+rax*8+640]
  00050	48 89 44 24 20	 mov	 QWORD PTR tv79[rsp], rax
$LN5@z900_per3_:
  00055	48 83 7c 24 20
	00		 cmp	 QWORD PTR tv79[rsp], 0
  0005b	75 0a		 jne	 SHORT $LN2@z900_per3_

; 757  :         ARCH_DEP( per3_zero )( regs );

  0005d	48 8b 4c 24 40	 mov	 rcx, QWORD PTR regs$[rsp]
  00062	e8 00 00 00 00	 call	 z900_per3_zero
$LN2@z900_per3_:

; 758  : #else
; 759  :     UNREFERENCED( regs );
; 760  :     UNREFERENCED( b1 );
; 761  : #endif
; 762  : }

  00067	48 83 c4 38	 add	 rsp, 56			; 00000038H
  0006b	c3		 ret	 0
z900_per3_zero_xcheck ENDP
_TEXT	ENDS
; Function compile flags: /Odtp
; File C:\papa\MyGit\hyperion-zvector\inline.h
;	COMDAT z900_per3_zero
_TEXT	SEGMENT
tv75 = 32
regs$ = 64
z900_per3_zero PROC					; COMDAT

; 602  : {

$LN12:
  00000	48 89 4c 24 08	 mov	 QWORD PTR [rsp+8], rcx
  00005	48 83 ec 38	 sub	 rsp, 56			; 00000038H

; 603  : #if defined( FEATURE_PER_ZERO_ADDRESS_DETECTION_FACILITY )
; 604  :     if (1
; 605  :         && EN_IC_PER_ZEROADDR( regs )
; 606  :         && !IS_PER_SUPRESS( regs, CR9_ZEROADDR )

  00009	33 c0		 xor	 eax, eax
  0000b	83 f8 01	 cmp	 eax, 1
  0000e	0f 84 be 00 00
	00		 je	 $LN5@z900_per3_
  00014	48 8b 44 24 40	 mov	 rax, QWORD PTR regs$[rsp]
  00019	8b 80 28 07 00
	00		 mov	 eax, DWORD PTR [rax+1832]
  0001f	c1 e8 02	 shr	 eax, 2
  00022	83 e0 01	 and	 eax, 1
  00025	85 c0		 test	 eax, eax
  00027	74 0a		 je	 SHORT $LN10@z900_per3_
  00029	c7 44 24 20 01
	00 00 00	 mov	 DWORD PTR tv75[rsp], 1
  00031	eb 08		 jmp	 SHORT $LN11@z900_per3_
$LN10@z900_per3_:
  00033	c7 44 24 20 00
	00 00 00	 mov	 DWORD PTR tv75[rsp], 0
$LN11@z900_per3_:
  0003b	83 7c 24 20 00	 cmp	 DWORD PTR tv75[rsp], 0
  00040	0f 84 8c 00 00
	00		 je	 $LN5@z900_per3_
  00046	48 8b 44 24 40	 mov	 rax, QWORD PTR regs$[rsp]
  0004b	8b 40 48	 mov	 eax, DWORD PTR [rax+72]
  0004e	25 00 00 04 00	 and	 eax, 262144		; 00040000H
  00053	85 c0		 test	 eax, eax
  00055	74 7b		 je	 SHORT $LN5@z900_per3_
  00057	ba 00 00 00 04	 mov	 edx, 67108864		; 04000000H
  0005c	48 8b 4c 24 40	 mov	 rcx, QWORD PTR regs$[rsp]
  00061	e8 00 00 00 00	 call	 z900_is_per3_event_suppressed
  00066	0f b6 c0	 movzx	 eax, al
  00069	85 c0		 test	 eax, eax
  0006b	75 65		 jne	 SHORT $LN5@z900_per3_

; 607  :     )
; 608  :     {
; 609  :         regs->peradr = regs->periaddr;

  0006d	48 8b 44 24 40	 mov	 rax, QWORD PTR regs$[rsp]
  00072	48 8b 4c 24 40	 mov	 rcx, QWORD PTR regs$[rsp]
  00077	48 8b 89 e8 08
	00 00		 mov	 rcx, QWORD PTR [rcx+2280]
  0007e	48 89 88 d8 08
	00 00		 mov	 QWORD PTR [rax+2264], rcx
$LN4@z900_per3_:

; 610  :         ON_IC_PER_ZEROADDR( regs );

  00085	48 8b 44 24 40	 mov	 rax, QWORD PTR regs$[rsp]
  0008a	8b 40 4c	 mov	 eax, DWORD PTR [rax+76]
  0008d	0f ba e8 12	 bts	 eax, 18
  00091	48 8b 4c 24 40	 mov	 rcx, QWORD PTR regs$[rsp]
  00096	89 41 4c	 mov	 DWORD PTR [rcx+76], eax
  00099	33 c0		 xor	 eax, eax
  0009b	85 c0		 test	 eax, eax
  0009d	75 e6		 jne	 SHORT $LN4@z900_per3_

; 611  :         if (OPEN_IC_PER_ZEROADDR( regs ))

  0009f	48 8b 44 24 40	 mov	 rax, QWORD PTR regs$[rsp]
  000a4	48 8b 4c 24 40	 mov	 rcx, QWORD PTR regs$[rsp]
  000a9	8b 49 4c	 mov	 ecx, DWORD PTR [rcx+76]
  000ac	8b 40 48	 mov	 eax, DWORD PTR [rax+72]
  000af	23 c1		 and	 eax, ecx
  000b1	25 00 00 04 00	 and	 eax, 262144		; 00040000H
  000b6	85 c0		 test	 eax, eax
  000b8	74 18		 je	 SHORT $LN6@z900_per3_

; 612  :             RETURN_INTCHECK( regs );

  000ba	48 8b 44 24 40	 mov	 rax, QWORD PTR regs$[rsp]
  000bf	48 05 80 09 00
	00		 add	 rax, 2432		; 00000980H
  000c5	ba ff ff ff ff	 mov	 edx, -1
  000ca	48 8b c8	 mov	 rcx, rax
  000cd	e8 00 00 00 00	 call	 longjmp
$LN6@z900_per3_:
$LN5@z900_per3_:
$LN7@z900_per3_:

; 613  :     }
; 614  : #else
; 615  :     UNREFERENCED( regs );
; 616  : #endif
; 617  : }

  000d2	48 83 c4 38	 add	 rsp, 56			; 00000038H
  000d6	c3		 ret	 0
z900_per3_zero ENDP
_TEXT	ENDS
; Function compile flags: /Odtp
; File C:\papa\MyGit\hyperion-zvector\inline.h
;	COMDAT z900_is_per3_event_suppressed
_TEXT	SEGMENT
regs$ = 8
cr9_per_event$ = 16
z900_is_per3_event_suppressed PROC			; COMDAT

; 566  : {

  00000	89 54 24 10	 mov	 DWORD PTR [rsp+16], edx
  00004	48 89 4c 24 08	 mov	 QWORD PTR [rsp+8], rcx

; 567  : #if !defined( FEATURE_PER3 )
; 568  :     UNREFERENCED( regs );
; 569  :     UNREFERENCED( cr9_per_event );
; 570  : #else
; 571  :     /* DON'T suppress this event if Event Suppression isn't enabled */
; 572  :     if (!(regs->CR_L(9) & CR9_SUPPRESS))

  00009	b8 08 00 00 00	 mov	 eax, 8
  0000e	48 6b c0 0a	 imul	 rax, rax, 10
  00012	48 8b 4c 24 08	 mov	 rcx, QWORD PTR regs$[rsp]
  00017	8b 84 01 00 06
	00 00		 mov	 eax, DWORD PTR [rcx+rax+1536]
  0001e	25 00 00 40 00	 and	 eax, 4194304		; 00400000H
  00023	85 c0		 test	 eax, eax
  00025	75 04		 jne	 SHORT $LN2@z900_is_pe

; 573  :         return false;

  00027	32 c0		 xor	 al, al
  00029	eb 78		 jmp	 SHORT $LN1@z900_is_pe
$LN2@z900_is_pe:

; 574  : 
; 575  :     /* Is this PER event one that is ALLOWED to be suppressed? */
; 576  :     if (cr9_per_event & CR9_SUPPRESSABLE)

  0002b	8b 44 24 10	 mov	 eax, DWORD PTR cr9_per_event$[rsp]
  0002f	25 00 00 00 ed	 and	 eax, -318767104		; ed000000H
  00034	85 c0		 test	 eax, eax
  00036	74 69		 je	 SHORT $LN3@z900_is_pe

; 577  :     {
; 578  :         /* Is there an active transaction? */
; 579  :         if (regs->txf_tnd)

  00038	48 8b 44 24 08	 mov	 rax, QWORD PTR regs$[rsp]
  0003d	0f b6 80 58 0e
	00 00		 movzx	 eax, BYTE PTR [rax+3672]
  00044	85 c0		 test	 eax, eax
  00046	74 04		 je	 SHORT $LN4@z900_is_pe

; 580  :             return true;        /* Yes, then suppress it! */

  00048	b0 01		 mov	 al, 1
  0004a	eb 57		 jmp	 SHORT $LN1@z900_is_pe
$LN4@z900_is_pe:

; 581  : 
; 582  :         /* Suppress instruction-fetch events for TBEGIN/TBEGINC */
; 583  :         if (1
; 584  :             && cr9_per_event & CR9_IF
; 585  :             && *(regs->ip+0) == 0xE5
; 586  :             && (0

  0004c	33 c0		 xor	 eax, eax
  0004e	83 f8 01	 cmp	 eax, 1
  00051	74 4e		 je	 SHORT $LN5@z900_is_pe
  00053	8b 44 24 10	 mov	 eax, DWORD PTR cr9_per_event$[rsp]
  00057	25 00 00 00 40	 and	 eax, 1073741824		; 40000000H
  0005c	85 c0		 test	 eax, eax
  0005e	74 41		 je	 SHORT $LN5@z900_is_pe
  00060	48 8b 44 24 08	 mov	 rax, QWORD PTR regs$[rsp]
  00065	48 8b 40 68	 mov	 rax, QWORD PTR [rax+104]
  00069	0f b6 00	 movzx	 eax, BYTE PTR [rax]
  0006c	3d e5 00 00 00	 cmp	 eax, 229		; 000000e5H
  00071	75 2e		 jne	 SHORT $LN5@z900_is_pe
  00073	33 c0		 xor	 eax, eax
  00075	85 c0		 test	 eax, eax
  00077	75 24		 jne	 SHORT $LN6@z900_is_pe
  00079	48 8b 44 24 08	 mov	 rax, QWORD PTR regs$[rsp]
  0007e	48 8b 40 68	 mov	 rax, QWORD PTR [rax+104]
  00082	0f b6 40 01	 movzx	 eax, BYTE PTR [rax+1]
  00086	83 f8 60	 cmp	 eax, 96			; 00000060H
  00089	74 12		 je	 SHORT $LN6@z900_is_pe
  0008b	48 8b 44 24 08	 mov	 rax, QWORD PTR regs$[rsp]
  00090	48 8b 40 68	 mov	 rax, QWORD PTR [rax+104]
  00094	0f b6 40 01	 movzx	 eax, BYTE PTR [rax+1]
  00098	83 f8 61	 cmp	 eax, 97			; 00000061H
  0009b	75 04		 jne	 SHORT $LN5@z900_is_pe
$LN6@z900_is_pe:

; 587  :                 || *(regs->ip+1) == 0x60
; 588  :                 || *(regs->ip+1) == 0x61
; 589  :                )
; 590  :         )
; 591  :             return true;        /* TBEGIN/TBEGINC: suppress it! */

  0009d	b0 01		 mov	 al, 1
  0009f	eb 02		 jmp	 SHORT $LN1@z900_is_pe
$LN5@z900_is_pe:
$LN3@z900_is_pe:

; 592  :     }
; 593  : #endif
; 594  :     /* Otherwise DON'T suppress this PER event */
; 595  :     return false;

  000a1	32 c0		 xor	 al, al
$LN1@z900_is_pe:

; 596  : }

  000a3	c3		 ret	 0
z900_is_per3_event_suppressed ENDP
_TEXT	ENDS
; Function compile flags: /Odtp
; File C:\papa\MyGit\hyperion-zvector\skey.h
;	COMDAT z900_or_storage_key
_TEXT	SEGMENT
abs$ = 48
bits$ = 56
z900_or_storage_key PROC				; COMDAT

; 290  : {

$LN3:
  00000	88 54 24 10	 mov	 BYTE PTR [rsp+16], dl
  00004	48 89 4c 24 08	 mov	 QWORD PTR [rsp+8], rcx
  00009	48 83 ec 28	 sub	 rsp, 40			; 00000028H

; 291  : #if defined( FEATURE_2K_STORAGE_KEYS )
; 292  :     ARCH_DEP( or_2K_storage_key )( abs, bits );
; 293  : #else
; 294  :     ARCH_DEP( or_4K_storage_key )( abs, bits );

  0000d	0f b6 54 24 38	 movzx	 edx, BYTE PTR bits$[rsp]
  00012	48 8b 4c 24 30	 mov	 rcx, QWORD PTR abs$[rsp]
  00017	e8 00 00 00 00	 call	 z900_or_4K_storage_key

; 295  : #endif
; 296  : }

  0001c	48 83 c4 28	 add	 rsp, 40			; 00000028H
  00020	c3		 ret	 0
z900_or_storage_key ENDP
_TEXT	ENDS
; Function compile flags: /Odtp
; File C:\papa\MyGit\hyperion-zvector\skey.h
;	COMDAT z900_or_4K_storage_key
_TEXT	SEGMENT
abs$ = 48
bits$ = 56
z900_or_4K_storage_key PROC				; COMDAT

; 242  :   inline void  ARCH_DEP( or_4K_storage_key )      (              U64 abs, BYTE bits ) {        ARCH_DEP( _or_storage_key      )(      abs, bits & ~STORKEY_BADFRM, 4 ); }

$LN3:
  00000	88 54 24 10	 mov	 BYTE PTR [rsp+16], dl
  00004	48 89 4c 24 08	 mov	 QWORD PTR [rsp+8], rcx
  00009	48 83 ec 28	 sub	 rsp, 40			; 00000028H
  0000d	0f b6 44 24 38	 movzx	 eax, BYTE PTR bits$[rsp]
  00012	83 e0 fe	 and	 eax, -2
  00015	41 b0 04	 mov	 r8b, 4
  00018	0f b6 d0	 movzx	 edx, al
  0001b	48 8b 4c 24 30	 mov	 rcx, QWORD PTR abs$[rsp]
  00020	e8 00 00 00 00	 call	 z900__or_storage_key
  00025	48 83 c4 28	 add	 rsp, 40			; 00000028H
  00029	c3		 ret	 0
z900_or_4K_storage_key ENDP
_TEXT	ENDS
; Function compile flags: /Odtp
; File C:\papa\MyGit\hyperion-zvector\skey.h
;	COMDAT z900__or_storage_key
_TEXT	SEGMENT
skey1_ptr$1 = 32
skey2_ptr$2 = 40
skey_ptr$3 = 48
abs$ = 80
bits$ = 88
K$ = 96
z900__or_storage_key PROC				; COMDAT

; 189  : {

$LN8:
  00000	44 88 44 24 18	 mov	 BYTE PTR [rsp+24], r8b
  00005	88 54 24 10	 mov	 BYTE PTR [rsp+16], dl
  00009	48 89 4c 24 08	 mov	 QWORD PTR [rsp+8], rcx
  0000e	48 83 ec 48	 sub	 rsp, 72			; 00000048H
$LN4@z900__or_s:

; 190  :     UNREFERENCED( K ); // (for FEATURE_4K_STORAGE_KEYS case)

  00012	33 c0		 xor	 eax, eax
  00014	85 c0		 test	 eax, eax
  00016	75 fa		 jne	 SHORT $LN4@z900__or_s

; 191  :     if (IS_DOUBLE_KEYED_4K_BYTE_BLOCK( K ))

  00018	33 c0		 xor	 eax, eax
  0001a	85 c0		 test	 eax, eax
  0001c	74 50		 je	 SHORT $LN5@z900__or_s

; 192  :     {
; 193  :         BYTE* skey1_ptr = _get_storekey1_ptr( abs );

  0001e	48 8b 4c 24 50	 mov	 rcx, QWORD PTR abs$[rsp]
  00023	e8 00 00 00 00	 call	 _get_storekey1_ptr
  00028	48 89 44 24 20	 mov	 QWORD PTR skey1_ptr$1[rsp], rax

; 194  :         BYTE* skey2_ptr = _get_storekey2_ptr( abs );

  0002d	48 8b 4c 24 50	 mov	 rcx, QWORD PTR abs$[rsp]
  00032	e8 00 00 00 00	 call	 _get_storekey2_ptr
  00037	48 89 44 24 28	 mov	 QWORD PTR skey2_ptr$2[rsp], rax

; 195  :         OR_SKEY( skey1_ptr, bits );

  0003c	0f b6 44 24 58	 movzx	 eax, BYTE PTR bits$[rsp]
  00041	48 8b 4c 24 20	 mov	 rcx, QWORD PTR skey1_ptr$1[rsp]
  00046	0f b6 09	 movzx	 ecx, BYTE PTR [rcx]
  00049	0b c8		 or	 ecx, eax
  0004b	8b c1		 mov	 eax, ecx
  0004d	48 8b 4c 24 20	 mov	 rcx, QWORD PTR skey1_ptr$1[rsp]
  00052	88 01		 mov	 BYTE PTR [rcx], al

; 196  :         OR_SKEY( skey2_ptr, bits );

  00054	0f b6 44 24 58	 movzx	 eax, BYTE PTR bits$[rsp]
  00059	48 8b 4c 24 28	 mov	 rcx, QWORD PTR skey2_ptr$2[rsp]
  0005e	0f b6 09	 movzx	 ecx, BYTE PTR [rcx]
  00061	0b c8		 or	 ecx, eax
  00063	8b c1		 mov	 eax, ecx
  00065	48 8b 4c 24 28	 mov	 rcx, QWORD PTR skey2_ptr$2[rsp]
  0006a	88 01		 mov	 BYTE PTR [rcx], al

; 197  :     }

  0006c	eb 2c		 jmp	 SHORT $LN6@z900__or_s
$LN5@z900__or_s:

; 198  :     else
; 199  :     {
; 200  :         BYTE* skey_ptr  = _get_storekey_ptr( abs, K );

  0006e	0f b6 54 24 60	 movzx	 edx, BYTE PTR K$[rsp]
  00073	48 8b 4c 24 50	 mov	 rcx, QWORD PTR abs$[rsp]
  00078	e8 00 00 00 00	 call	 _get_storekey_ptr
  0007d	48 89 44 24 30	 mov	 QWORD PTR skey_ptr$3[rsp], rax

; 201  :         OR_SKEY( skey_ptr, bits );

  00082	0f b6 44 24 58	 movzx	 eax, BYTE PTR bits$[rsp]
  00087	48 8b 4c 24 30	 mov	 rcx, QWORD PTR skey_ptr$3[rsp]
  0008c	0f b6 09	 movzx	 ecx, BYTE PTR [rcx]
  0008f	0b c8		 or	 ecx, eax
  00091	8b c1		 mov	 eax, ecx
  00093	48 8b 4c 24 30	 mov	 rcx, QWORD PTR skey_ptr$3[rsp]
  00098	88 01		 mov	 BYTE PTR [rcx], al
$LN6@z900__or_s:

; 202  :     }
; 203  : }

  0009a	48 83 c4 48	 add	 rsp, 72			; 00000048H
  0009e	c3		 ret	 0
z900__or_storage_key ENDP
_TEXT	ENDS
; Function compile flags: /Odtp
; File C:\papa\MyGit\hyperion-zvector\transact.c
_TEXT	SEGMENT
i2$ = 80
b1$ = 84
temp$1 = 88
tv142 = 92
effective_addr1$ = 96
tv144 = 104
inst$ = 128
regs$ = 136
z900_transaction_begin PROC

; 644  : {

$LN33:
  00000	48 89 54 24 10	 mov	 QWORD PTR [rsp+16], rdx
  00005	48 89 4c 24 08	 mov	 QWORD PTR [rsp+8], rcx
  0000a	48 83 ec 78	 sub	 rsp, 120		; 00000078H

; 645  : S16     i2;                             /* 16-bit immediate value    */
; 646  : int     b1;                             /* Base of effective addr    */
; 647  : VADR    effective_addr1;                /* Effective address         */
; 648  : 
; 649  :     SIL( inst, regs, i2, b1, effective_addr1 );

  0000e	b8 01 00 00 00	 mov	 eax, 1
  00013	48 6b c0 02	 imul	 rax, rax, 2
  00017	48 8b 8c 24 80
	00 00 00	 mov	 rcx, QWORD PTR inst$[rsp]
  0001f	48 03 c8	 add	 rcx, rax
  00022	48 8b c1	 mov	 rax, rcx
  00025	48 8b c8	 mov	 rcx, rax
  00028	e8 00 00 00 00	 call	 fetch_fw_noswap
  0002d	8b c8		 mov	 ecx, eax
  0002f	e8 00 00 00 00	 call	 _byteswap_ulong
  00034	89 44 24 58	 mov	 DWORD PTR temp$1[rsp], eax
  00038	8b 44 24 58	 mov	 eax, DWORD PTR temp$1[rsp]
  0003c	25 ff ff 00 00	 and	 eax, 65535		; 0000ffffH
  00041	66 89 44 24 50	 mov	 WORD PTR i2$[rsp], ax
  00046	8b 44 24 58	 mov	 eax, DWORD PTR temp$1[rsp]
  0004a	c1 e8 10	 shr	 eax, 16
  0004d	25 ff 0f 00 00	 and	 eax, 4095		; 00000fffH
  00052	8b c0		 mov	 eax, eax
  00054	48 89 44 24 60	 mov	 QWORD PTR effective_addr1$[rsp], rax
  00059	8b 44 24 58	 mov	 eax, DWORD PTR temp$1[rsp]
  0005d	c1 e8 1c	 shr	 eax, 28
  00060	83 e0 0f	 and	 eax, 15
  00063	89 44 24 54	 mov	 DWORD PTR b1$[rsp], eax
  00067	83 7c 24 54 00	 cmp	 DWORD PTR b1$[rsp], 0
  0006c	74 44		 je	 SHORT $LN20@z900_trans
  0006e	48 63 44 24 54	 movsxd	 rax, DWORD PTR b1$[rsp]
  00073	48 8b 8c 24 88
	00 00 00	 mov	 rcx, QWORD PTR regs$[rsp]
  0007b	48 8b 84 c1 80
	02 00 00	 mov	 rax, QWORD PTR [rcx+rax*8+640]
  00083	48 8b 4c 24 60	 mov	 rcx, QWORD PTR effective_addr1$[rsp]
  00088	48 03 c8	 add	 rcx, rax
  0008b	48 8b c1	 mov	 rax, rcx
  0008e	48 89 44 24 60	 mov	 QWORD PTR effective_addr1$[rsp], rax
  00093	48 8b 84 24 88
	00 00 00	 mov	 rax, QWORD PTR regs$[rsp]
  0009b	48 8b 80 90 00
	00 00		 mov	 rax, QWORD PTR [rax+144]
  000a2	48 8b 4c 24 60	 mov	 rcx, QWORD PTR effective_addr1$[rsp]
  000a7	48 23 c8	 and	 rcx, rax
  000aa	48 8b c1	 mov	 rax, rcx
  000ad	48 89 44 24 60	 mov	 QWORD PTR effective_addr1$[rsp], rax
$LN20@z900_trans:
$LN4@z900_trans:
  000b2	48 8b 84 24 88
	00 00 00	 mov	 rax, QWORD PTR regs$[rsp]
  000ba	48 8b 40 68	 mov	 rax, QWORD PTR [rax+104]
  000be	48 83 c0 06	 add	 rax, 6
  000c2	48 8b 8c 24 88
	00 00 00	 mov	 rcx, QWORD PTR regs$[rsp]
  000ca	48 89 41 68	 mov	 QWORD PTR [rcx+104], rax
  000ce	33 c0		 xor	 eax, eax
  000d0	83 f8 06	 cmp	 eax, 6
  000d3	74 0f		 je	 SHORT $LN21@z900_trans
  000d5	48 8b 84 24 88
	00 00 00	 mov	 rax, QWORD PTR regs$[rsp]
  000dd	c6 80 9a 00 00
	00 06		 mov	 BYTE PTR [rax+154], 6
$LN21@z900_trans:
  000e4	33 c0		 xor	 eax, eax
  000e6	85 c0		 test	 eax, eax
  000e8	75 c8		 jne	 SHORT $LN4@z900_trans

; 650  :     PER_ZEROADDR_XCHECK( regs, b1 );

  000ea	8b 54 24 54	 mov	 edx, DWORD PTR b1$[rsp]
  000ee	48 8b 8c 24 88
	00 00 00	 mov	 rcx, QWORD PTR regs$[rsp]
  000f6	e8 00 00 00 00	 call	 z900_per3_zero_xcheck
$LN7@z900_trans:

; 651  : 
; 652  :     TXF_SIE_INTERCEPT( regs, TBEGIN );

  000fb	33 c0		 xor	 eax, eax
  000fd	83 f8 01	 cmp	 eax, 1
  00100	0f 84 13 01 00
	00		 je	 $LN22@z900_trans
  00106	48 8b 84 24 88
	00 00 00	 mov	 rax, QWORD PTR regs$[rsp]
  0010e	8b 80 c8 08 00
	00		 mov	 eax, DWORD PTR [rax+2248]
  00114	d1 e8		 shr	 eax, 1
  00116	83 e0 01	 and	 eax, 1
  00119	85 c0		 test	 eax, eax
  0011b	0f 84 f8 00 00
	00		 je	 $LN22@z900_trans
  00121	48 8b 84 24 88
	00 00 00	 mov	 rax, QWORD PTR regs$[rsp]
  00129	48 8b 80 88 08
	00 00		 mov	 rax, QWORD PTR [rax+2184]
  00130	b9 01 00 00 00	 mov	 ecx, 1
  00135	48 6b c9 01	 imul	 rcx, rcx, 1
  00139	0f b6 44 08 60	 movzx	 eax, BYTE PTR [rax+rcx+96]
  0013e	83 e0 10	 and	 eax, 16
  00141	85 c0		 test	 eax, eax
  00143	0f 85 d0 00 00
	00		 jne	 $LN22@z900_trans
  00149	48 8b 05 00 00
	00 00		 mov	 rax, QWORD PTR __imp_sysblk
  00150	83 b8 4c 05 00
	00 00		 cmp	 DWORD PTR [rax+1356], 0
  00157	0f 84 a1 00 00
	00		 je	 $LN23@z900_trans
  0015d	48 8b 84 24 88
	00 00 00	 mov	 rax, QWORD PTR regs$[rsp]
  00165	0f b7 80 3c 08
	00 00		 movzx	 eax, WORD PTR [rax+2108]
  0016c	89 44 24 5c	 mov	 DWORD PTR tv142[rsp], eax
  00170	48 8b 8c 24 88
	00 00 00	 mov	 rcx, QWORD PTR regs$[rsp]
  00178	0f b7 89 3c 08
	00 00		 movzx	 ecx, WORD PTR [rcx+2108]
  0017f	48 8b 15 00 00
	00 00		 mov	 rdx, QWORD PTR __imp_sysblk
  00186	0f b6 8c 0a 48
	0b 00 00	 movzx	 ecx, BYTE PTR [rdx+rcx+2888]
  0018e	ff 15 00 00 00
	00		 call	 QWORD PTR __imp_ptyp2short
  00194	48 89 44 24 68	 mov	 QWORD PTR tv144[rsp], rax
  00199	b9 01 00 00 00	 mov	 ecx, 1
  0019e	ff 15 00 00 00
	00		 call	 QWORD PTR __imp___acrt_iob_func
  001a4	48 8d 0d 00 00
	00 00		 lea	 rcx, OFFSET FLAT:$SG193136
  001ab	48 89 4c 24 48	 mov	 QWORD PTR [rsp+72], rcx
  001b0	8b 4c 24 5c	 mov	 ecx, DWORD PTR tv142[rsp]
  001b4	89 4c 24 40	 mov	 DWORD PTR [rsp+64], ecx
  001b8	48 8b 4c 24 68	 mov	 rcx, QWORD PTR tv144[rsp]
  001bd	48 89 4c 24 38	 mov	 QWORD PTR [rsp+56], rcx
  001c2	48 8d 0d 00 00
	00 00		 lea	 rcx, OFFSET FLAT:$SG193137
  001c9	48 89 4c 24 30	 mov	 QWORD PTR [rsp+48], rcx
  001ce	48 8d 0d 00 00
	00 00		 lea	 rcx, OFFSET FLAT:$SG193138
  001d5	48 89 4c 24 28	 mov	 QWORD PTR [rsp+40], rcx
  001da	48 89 44 24 20	 mov	 QWORD PTR [rsp+32], rax
  001df	41 b9 03 00 00
	00		 mov	 r9d, 3
  001e5	4c 8d 05 00 00
	00 00		 lea	 r8, OFFSET FLAT:$SG193139
  001ec	ba 8c 02 00 00	 mov	 edx, 652		; 0000028cH
  001f1	48 8d 0d 00 00
	00 00		 lea	 rcx, OFFSET FLAT:$SG193140
  001f8	ff 15 00 00 00
	00		 call	 QWORD PTR __imp_fwritemsg
$LN23@z900_trans:
  001fe	48 8b 84 24 88
	00 00 00	 mov	 rax, QWORD PTR regs$[rsp]
  00206	48 05 80 09 00
	00		 add	 rax, 2432		; 00000980H
  0020c	ba fc ff ff ff	 mov	 edx, -4
  00211	48 8b c8	 mov	 rcx, rax
  00214	e8 00 00 00 00	 call	 longjmp
$LN22@z900_trans:
  00219	33 c0		 xor	 eax, eax
  0021b	85 c0		 test	 eax, eax
  0021d	0f 85 d8 fe ff
	ff		 jne	 $LN7@z900_trans

; 653  : 
; 654  :     if (!(regs->CR(0) & CR0_TXC))

  00223	b8 08 00 00 00	 mov	 eax, 8
  00228	48 6b c0 01	 imul	 rax, rax, 1
  0022c	48 8b 8c 24 88
	00 00 00	 mov	 rcx, QWORD PTR regs$[rsp]
  00234	48 ba 00 00 00
	00 00 00 80 00	 mov	 rdx, 36028797018963968	; 0080000000000000H
  0023e	48 8b 84 01 00
	06 00 00	 mov	 rax, QWORD PTR [rcx+rax+1536]
  00246	48 23 c2	 and	 rax, rdx
  00249	48 85 c0	 test	 rax, rax
  0024c	0f 85 97 00 00
	00		 jne	 $LN24@z900_trans
$LN10@z900_trans:

; 655  :     {
; 656  :         PTT_TXF( "*TXF TBEGIN", regs->CR(0), regs->txf_contran, regs->txf_tnd );

  00252	48 8b 05 00 00
	00 00		 mov	 rax, QWORD PTR __imp_pttclass
  00259	48 8b 00	 mov	 rax, QWORD PTR [rax]
  0025c	48 25 00 04 00
	00		 and	 rax, 1024		; 00000400H
  00262	48 85 c0	 test	 rax, rax
  00265	74 66		 je	 SHORT $LN25@z900_trans
  00267	48 8b 84 24 88
	00 00 00	 mov	 rax, QWORD PTR regs$[rsp]
  0026f	0f b6 80 58 0e
	00 00		 movzx	 eax, BYTE PTR [rax+3672]
  00276	48 8b 8c 24 88
	00 00 00	 mov	 rcx, QWORD PTR regs$[rsp]
  0027e	0f b6 89 4c 0e
	00 00		 movzx	 ecx, BYTE PTR [rcx+3660]
  00285	ba 08 00 00 00	 mov	 edx, 8
  0028a	48 6b d2 01	 imul	 rdx, rdx, 1
  0028e	48 c7 44 24 30
	00 00 00 00	 mov	 QWORD PTR [rsp+48], 0
  00297	48 89 44 24 28	 mov	 QWORD PTR [rsp+40], rax
  0029c	48 8d 05 00 00
	00 00		 lea	 rax, OFFSET FLAT:$SG193143
  002a3	48 89 44 24 20	 mov	 QWORD PTR [rsp+32], rax
  002a8	44 8b c9	 mov	 r9d, ecx
  002ab	48 8b 84 24 88
	00 00 00	 mov	 rax, QWORD PTR regs$[rsp]
  002b3	4c 8b 84 10 00
	06 00 00	 mov	 r8, QWORD PTR [rax+rdx+1536]
  002bb	48 8d 15 00 00
	00 00		 lea	 rdx, OFFSET FLAT:$SG193144
  002c2	b9 00 04 00 00	 mov	 ecx, 1024		; 00000400H
  002c7	ff 15 00 00 00
	00		 call	 QWORD PTR __imp_ptt_pthread_trace
$LN25@z900_trans:
  002cd	33 c0		 xor	 eax, eax
  002cf	85 c0		 test	 eax, eax
  002d1	0f 85 7b ff ff
	ff		 jne	 $LN10@z900_trans

; 657  :         ARCH_DEP( program_interrupt )( regs, PGM_SPECIAL_OPERATION_EXCEPTION );

  002d7	ba 13 00 00 00	 mov	 edx, 19
  002dc	48 8b 8c 24 88
	00 00 00	 mov	 rcx, QWORD PTR regs$[rsp]
  002e4	e8 00 00 00 00	 call	 z900_program_interrupt
$LN24@z900_trans:
$LN13@z900_trans:

; 658  :         UNREACHABLE_CODE( return );
; 659  :     }
; 660  : 
; 661  :     TXF_EXECUTE_INSTR_CHECK( regs );

  002e9	48 8b 84 24 88
	00 00 00	 mov	 rax, QWORD PTR regs$[rsp]
  002f1	8b 80 28 07 00
	00		 mov	 eax, DWORD PTR [rax+1832]
  002f7	83 e0 01	 and	 eax, 1
  002fa	85 c0		 test	 eax, eax
  002fc	74 12		 je	 SHORT $LN26@z900_trans
  002fe	ba 03 00 00 00	 mov	 edx, 3
  00303	48 8b 8c 24 88
	00 00 00	 mov	 rcx, QWORD PTR regs$[rsp]
  0030b	e8 00 00 00 00	 call	 z900_program_interrupt
$LN26@z900_trans:
  00310	33 c0		 xor	 eax, eax
  00312	85 c0		 test	 eax, eax
  00314	75 d3		 jne	 SHORT $LN13@z900_trans

; 662  : 
; 663  :     /* Unconstrained: PIFC of 3 is invalid */
; 664  :     if ((i2 & TXF_CTL_PIFC) == 3)

  00316	0f bf 44 24 50	 movsx	 eax, WORD PTR i2$[rsp]
  0031b	83 e0 03	 and	 eax, 3
  0031e	83 f8 03	 cmp	 eax, 3
  00321	0f 85 83 00 00
	00		 jne	 $LN27@z900_trans
$LN16@z900_trans:

; 665  :     {
; 666  :         PTT_TXF( "*TXF TBEGIN", i2, regs->txf_contran, regs->txf_tnd );

  00327	48 8b 05 00 00
	00 00		 mov	 rax, QWORD PTR __imp_pttclass
  0032e	48 8b 00	 mov	 rax, QWORD PTR [rax]
  00331	48 25 00 04 00
	00		 and	 rax, 1024		; 00000400H
  00337	48 85 c0	 test	 rax, rax
  0033a	74 56		 je	 SHORT $LN28@z900_trans
  0033c	48 8b 84 24 88
	00 00 00	 mov	 rax, QWORD PTR regs$[rsp]
  00344	0f b6 80 58 0e
	00 00		 movzx	 eax, BYTE PTR [rax+3672]
  0034b	48 8b 8c 24 88
	00 00 00	 mov	 rcx, QWORD PTR regs$[rsp]
  00353	0f b6 89 4c 0e
	00 00		 movzx	 ecx, BYTE PTR [rcx+3660]
  0035a	48 0f bf 54 24
	50		 movsx	 rdx, WORD PTR i2$[rsp]
  00360	48 c7 44 24 30
	00 00 00 00	 mov	 QWORD PTR [rsp+48], 0
  00369	48 89 44 24 28	 mov	 QWORD PTR [rsp+40], rax
  0036e	48 8d 05 00 00
	00 00		 lea	 rax, OFFSET FLAT:$SG193148
  00375	48 89 44 24 20	 mov	 QWORD PTR [rsp+32], rax
  0037a	44 8b c9	 mov	 r9d, ecx
  0037d	4c 8b c2	 mov	 r8, rdx
  00380	48 8d 15 00 00
	00 00		 lea	 rdx, OFFSET FLAT:$SG193149
  00387	b9 00 04 00 00	 mov	 ecx, 1024		; 00000400H
  0038c	ff 15 00 00 00
	00		 call	 QWORD PTR __imp_ptt_pthread_trace
$LN28@z900_trans:
  00392	33 c0		 xor	 eax, eax
  00394	85 c0		 test	 eax, eax
  00396	75 8f		 jne	 SHORT $LN16@z900_trans

; 667  :         ARCH_DEP( program_interrupt )( regs, PGM_SPECIFICATION_EXCEPTION );

  00398	ba 06 00 00 00	 mov	 edx, 6
  0039d	48 8b 8c 24 88
	00 00 00	 mov	 rcx, QWORD PTR regs$[rsp]
  003a5	e8 00 00 00 00	 call	 z900_program_interrupt
$LN27@z900_trans:

; 668  :         UNREACHABLE_CODE( return );
; 669  :     }
; 670  : 
; 671  :     /* Unconstrained: if b1 non-zero TDB must be aligned else ignore */
; 672  :     if (b1)

  003aa	83 7c 24 54 00	 cmp	 DWORD PTR b1$[rsp], 0
  003af	74 50		 je	 SHORT $LN29@z900_trans

; 673  :     {
; 674  :         DW_CHECK( effective_addr1, regs );

  003b1	48 8b 44 24 60	 mov	 rax, QWORD PTR effective_addr1$[rsp]
  003b6	48 83 e0 07	 and	 rax, 7
  003ba	48 85 c0	 test	 rax, rax
  003bd	74 1b		 je	 SHORT $LN30@z900_trans
  003bf	ba 06 00 00 00	 mov	 edx, 6
  003c4	48 8b 8c 24 88
	00 00 00	 mov	 rcx, QWORD PTR regs$[rsp]
  003cc	48 8b 84 24 88
	00 00 00	 mov	 rax, QWORD PTR regs$[rsp]
  003d4	ff 90 20 0d 00
	00		 call	 QWORD PTR [rax+3360]
$LN30@z900_trans:

; 675  : 
; 676  :         /* Check that all bytes of the TDB are accessible */
; 677  :         ARCH_DEP( validate_operand )( effective_addr1, b1,

  003da	48 8b 84 24 88
	00 00 00	 mov	 rax, QWORD PTR regs$[rsp]
  003e2	48 89 44 24 20	 mov	 QWORD PTR [rsp+32], rax
  003e7	41 b9 02 00 00
	00		 mov	 r9d, 2
  003ed	41 b8 ff 00 00
	00		 mov	 r8d, 255		; 000000ffH
  003f3	8b 54 24 54	 mov	 edx, DWORD PTR b1$[rsp]
  003f7	48 8b 4c 24 60	 mov	 rcx, QWORD PTR effective_addr1$[rsp]
  003fc	e8 00 00 00 00	 call	 z900_validate_operand
$LN29@z900_trans:

; 678  :                                       sizeof( TDB ) - 1,
; 679  :                                       ACCTYPE_WRITE, regs );
; 680  :     }
; 681  : 
; 682  :     OBTAIN_INTLOCK( regs );

  00401	48 8d 15 00 00
	00 00		 lea	 rdx, OFFSET FLAT:$SG193152
  00408	48 8b 8c 24 88
	00 00 00	 mov	 rcx, QWORD PTR regs$[rsp]
  00410	e8 00 00 00 00	 call	 Obtain_Interrupt_Lock
$LN19@z900_trans:

; 683  :     {
; 684  :         /* Let our helper function do all the grunt work */
; 685  :         PTT_TXF( "TXF TBEGIN", 0, regs->txf_contran, regs->txf_tnd );

  00415	48 8b 05 00 00
	00 00		 mov	 rax, QWORD PTR __imp_pttclass
  0041c	48 8b 00	 mov	 rax, QWORD PTR [rax]
  0041f	48 25 00 04 00
	00		 and	 rax, 1024		; 00000400H
  00425	48 85 c0	 test	 rax, rax
  00428	74 50		 je	 SHORT $LN31@z900_trans
  0042a	48 8b 84 24 88
	00 00 00	 mov	 rax, QWORD PTR regs$[rsp]
  00432	0f b6 80 58 0e
	00 00		 movzx	 eax, BYTE PTR [rax+3672]
  00439	48 8b 8c 24 88
	00 00 00	 mov	 rcx, QWORD PTR regs$[rsp]
  00441	0f b6 89 4c 0e
	00 00		 movzx	 ecx, BYTE PTR [rcx+3660]
  00448	48 c7 44 24 30
	00 00 00 00	 mov	 QWORD PTR [rsp+48], 0
  00451	48 89 44 24 28	 mov	 QWORD PTR [rsp+40], rax
  00456	48 8d 05 00 00
	00 00		 lea	 rax, OFFSET FLAT:$SG193154
  0045d	48 89 44 24 20	 mov	 QWORD PTR [rsp+32], rax
  00462	44 8b c9	 mov	 r9d, ecx
  00465	45 33 c0	 xor	 r8d, r8d
  00468	48 8d 15 00 00
	00 00		 lea	 rdx, OFFSET FLAT:$SG193155
  0046f	b9 00 04 00 00	 mov	 ecx, 1024		; 00000400H
  00474	ff 15 00 00 00
	00		 call	 QWORD PTR __imp_ptt_pthread_trace
$LN31@z900_trans:
  0047a	33 c0		 xor	 eax, eax
  0047c	85 c0		 test	 eax, eax
  0047e	75 95		 jne	 SHORT $LN19@z900_trans

; 686  :         ARCH_DEP( process_tbegin )( false, regs, i2, effective_addr1, b1 );

  00480	8b 44 24 54	 mov	 eax, DWORD PTR b1$[rsp]
  00484	89 44 24 20	 mov	 DWORD PTR [rsp+32], eax
  00488	4c 8b 4c 24 60	 mov	 r9, QWORD PTR effective_addr1$[rsp]
  0048d	44 0f b7 44 24
	50		 movzx	 r8d, WORD PTR i2$[rsp]
  00493	48 8b 94 24 88
	00 00 00	 mov	 rdx, QWORD PTR regs$[rsp]
  0049b	33 c9		 xor	 ecx, ecx
  0049d	e8 00 00 00 00	 call	 z900_process_tbegin

; 687  :     }
; 688  :     RELEASE_INTLOCK( regs );

  004a2	48 8d 15 00 00
	00 00		 lea	 rdx, OFFSET FLAT:$SG193156
  004a9	48 8b 8c 24 88
	00 00 00	 mov	 rcx, QWORD PTR regs$[rsp]
  004b1	e8 00 00 00 00	 call	 Release_Interrupt_Lock
$LN32@z900_trans:

; 689  : 
; 690  : } /* end DEF_INST( transaction_begin ) */

  004b6	48 83 c4 78	 add	 rsp, 120		; 00000078H
  004ba	c3		 ret	 0
z900_transaction_begin ENDP
_TEXT	ENDS
; Function compile flags: /Odtp
; File C:\papa\MyGit\hyperion-zvector\transact.c
_TEXT	SEGMENT
disp2$1 = 64
temp$2 = 68
b2$ = 72
x2$ = 76
tv131 = 80
r1$ = 84
effective_addr2$ = 88
inst$ = 112
regs$ = 120
z900_nontransactional_store PROC

; 611  : {

$LN25:
  00000	48 89 54 24 10	 mov	 QWORD PTR [rsp+16], rdx
  00005	48 89 4c 24 08	 mov	 QWORD PTR [rsp+8], rcx
  0000a	48 83 ec 68	 sub	 rsp, 104		; 00000068H

; 612  : int     r1;                             /* Value of r1 field         */
; 613  : int     b2;                             /* Base of effective address */
; 614  : int     x2;                             /* Index register            */
; 615  : VADR    effective_addr2;                /* Effective address         */
; 616  : 
; 617  :     RXY( inst, regs, r1, x2, b2, effective_addr2 );

  0000e	48 8b 4c 24 70	 mov	 rcx, QWORD PTR inst$[rsp]
  00013	e8 00 00 00 00	 call	 fetch_fw_noswap
  00018	8b c8		 mov	 ecx, eax
  0001a	e8 00 00 00 00	 call	 _byteswap_ulong
  0001f	89 44 24 44	 mov	 DWORD PTR temp$2[rsp], eax
  00023	48 c7 44 24 58
	00 00 00 00	 mov	 QWORD PTR effective_addr2$[rsp], 0
  0002c	8b 44 24 44	 mov	 eax, DWORD PTR temp$2[rsp]
  00030	25 ff 0f 00 00	 and	 eax, 4095		; 00000fffH
  00035	89 44 24 40	 mov	 DWORD PTR disp2$1[rsp], eax
  00039	8b 44 24 44	 mov	 eax, DWORD PTR temp$2[rsp]
  0003d	c1 e8 10	 shr	 eax, 16
  00040	83 e0 0f	 and	 eax, 15
  00043	89 44 24 4c	 mov	 DWORD PTR x2$[rsp], eax
  00047	8b 44 24 44	 mov	 eax, DWORD PTR temp$2[rsp]
  0004b	c1 e8 14	 shr	 eax, 20
  0004e	83 e0 0f	 and	 eax, 15
  00051	89 44 24 54	 mov	 DWORD PTR r1$[rsp], eax
  00055	83 7c 24 4c 00	 cmp	 DWORD PTR x2$[rsp], 0
  0005a	74 22		 je	 SHORT $LN11@z900_nontr
  0005c	48 63 44 24 4c	 movsxd	 rax, DWORD PTR x2$[rsp]
  00061	48 8b 4c 24 78	 mov	 rcx, QWORD PTR regs$[rsp]
  00066	48 8b 84 c1 80
	02 00 00	 mov	 rax, QWORD PTR [rcx+rax*8+640]
  0006e	48 8b 4c 24 58	 mov	 rcx, QWORD PTR effective_addr2$[rsp]
  00073	48 03 c8	 add	 rcx, rax
  00076	48 8b c1	 mov	 rax, rcx
  00079	48 89 44 24 58	 mov	 QWORD PTR effective_addr2$[rsp], rax
$LN11@z900_nontr:
  0007e	8b 44 24 44	 mov	 eax, DWORD PTR temp$2[rsp]
  00082	c1 e8 0c	 shr	 eax, 12
  00085	83 e0 0f	 and	 eax, 15
  00088	89 44 24 48	 mov	 DWORD PTR b2$[rsp], eax
  0008c	83 7c 24 48 00	 cmp	 DWORD PTR b2$[rsp], 0
  00091	74 22		 je	 SHORT $LN12@z900_nontr
  00093	48 63 44 24 48	 movsxd	 rax, DWORD PTR b2$[rsp]
  00098	48 8b 4c 24 78	 mov	 rcx, QWORD PTR regs$[rsp]
  0009d	48 8b 84 c1 80
	02 00 00	 mov	 rax, QWORD PTR [rcx+rax*8+640]
  000a5	48 8b 4c 24 58	 mov	 rcx, QWORD PTR effective_addr2$[rsp]
  000aa	48 03 c8	 add	 rcx, rax
  000ad	48 8b c1	 mov	 rax, rcx
  000b0	48 89 44 24 58	 mov	 QWORD PTR effective_addr2$[rsp], rax
$LN12@z900_nontr:
  000b5	b8 01 00 00 00	 mov	 eax, 1
  000ba	48 6b c0 04	 imul	 rax, rax, 4
  000be	48 8b 4c 24 70	 mov	 rcx, QWORD PTR inst$[rsp]
  000c3	0f b6 04 01	 movzx	 eax, BYTE PTR [rcx+rax]
  000c7	85 c0		 test	 eax, eax
  000c9	74 0a		 je	 SHORT $LN23@z900_nontr
  000cb	c7 44 24 50 01
	00 00 00	 mov	 DWORD PTR tv131[rsp], 1
  000d3	eb 08		 jmp	 SHORT $LN24@z900_nontr
$LN23@z900_nontr:
  000d5	c7 44 24 50 00
	00 00 00	 mov	 DWORD PTR tv131[rsp], 0
$LN24@z900_nontr:
  000dd	83 7c 24 50 00	 cmp	 DWORD PTR tv131[rsp], 0
  000e2	74 3b		 je	 SHORT $LN13@z900_nontr
  000e4	b8 01 00 00 00	 mov	 eax, 1
  000e9	48 6b c0 04	 imul	 rax, rax, 4
  000ed	48 8b 4c 24 70	 mov	 rcx, QWORD PTR inst$[rsp]
  000f2	0f b6 04 01	 movzx	 eax, BYTE PTR [rcx+rax]
  000f6	c1 e0 0c	 shl	 eax, 12
  000f9	8b 4c 24 40	 mov	 ecx, DWORD PTR disp2$1[rsp]
  000fd	0b c8		 or	 ecx, eax
  000ff	8b c1		 mov	 eax, ecx
  00101	89 44 24 40	 mov	 DWORD PTR disp2$1[rsp], eax
  00105	8b 44 24 40	 mov	 eax, DWORD PTR disp2$1[rsp]
  00109	25 00 00 08 00	 and	 eax, 524288		; 00080000H
  0010e	85 c0		 test	 eax, eax
  00110	74 0d		 je	 SHORT $LN14@z900_nontr
  00112	8b 44 24 40	 mov	 eax, DWORD PTR disp2$1[rsp]
  00116	0d 00 00 f0 ff	 or	 eax, -1048576		; fff00000H
  0011b	89 44 24 40	 mov	 DWORD PTR disp2$1[rsp], eax
$LN14@z900_nontr:
$LN13@z900_nontr:
  0011f	48 63 44 24 40	 movsxd	 rax, DWORD PTR disp2$1[rsp]
  00124	48 8b 4c 24 58	 mov	 rcx, QWORD PTR effective_addr2$[rsp]
  00129	48 03 c8	 add	 rcx, rax
  0012c	48 8b c1	 mov	 rax, rcx
  0012f	48 89 44 24 58	 mov	 QWORD PTR effective_addr2$[rsp], rax
  00134	33 c0		 xor	 eax, eax
  00136	83 f8 06	 cmp	 eax, 6
  00139	74 1c		 je	 SHORT $LN15@z900_nontr
  0013b	48 8b 44 24 78	 mov	 rax, QWORD PTR regs$[rsp]
  00140	48 8b 80 90 00
	00 00		 mov	 rax, QWORD PTR [rax+144]
  00147	48 8b 4c 24 58	 mov	 rcx, QWORD PTR effective_addr2$[rsp]
  0014c	48 23 c8	 and	 rcx, rax
  0014f	48 8b c1	 mov	 rax, rcx
  00152	48 89 44 24 58	 mov	 QWORD PTR effective_addr2$[rsp], rax
$LN15@z900_nontr:
$LN4@z900_nontr:
  00157	48 8b 44 24 78	 mov	 rax, QWORD PTR regs$[rsp]
  0015c	48 8b 40 68	 mov	 rax, QWORD PTR [rax+104]
  00160	48 83 c0 06	 add	 rax, 6
  00164	48 8b 4c 24 78	 mov	 rcx, QWORD PTR regs$[rsp]
  00169	48 89 41 68	 mov	 QWORD PTR [rcx+104], rax
  0016d	33 c0		 xor	 eax, eax
  0016f	83 f8 06	 cmp	 eax, 6
  00172	74 0c		 je	 SHORT $LN16@z900_nontr
  00174	48 8b 44 24 78	 mov	 rax, QWORD PTR regs$[rsp]
  00179	c6 80 9a 00 00
	00 06		 mov	 BYTE PTR [rax+154], 6
$LN16@z900_nontr:
  00180	33 c0		 xor	 eax, eax
  00182	85 c0		 test	 eax, eax
  00184	75 d1		 jne	 SHORT $LN4@z900_nontr

; 618  :     PER_ZEROADDR_XCHECK2( regs, x2, b2 );

  00186	44 8b 44 24 48	 mov	 r8d, DWORD PTR b2$[rsp]
  0018b	8b 54 24 4c	 mov	 edx, DWORD PTR x2$[rsp]
  0018f	48 8b 4c 24 78	 mov	 rcx, QWORD PTR regs$[rsp]
  00194	e8 00 00 00 00	 call	 z900_per3_zero_xcheck2
$LN7@z900_nontr:

; 619  : 
; 620  :     TXFC_INSTR_CHECK( regs );

  00199	48 8b 44 24 78	 mov	 rax, QWORD PTR regs$[rsp]
  0019e	0f b6 80 4c 0e
	00 00		 movzx	 eax, BYTE PTR [rax+3660]
  001a5	85 c0		 test	 eax, eax
  001a7	74 36		 je	 SHORT $LN17@z900_nontr
  001a9	48 8b 44 24 78	 mov	 rax, QWORD PTR regs$[rsp]
  001ae	8b 80 84 af 00
	00		 mov	 eax, DWORD PTR [rax+44932]
  001b4	0f ba e8 0f	 bts	 eax, 15
  001b8	48 8b 4c 24 78	 mov	 rcx, QWORD PTR regs$[rsp]
  001bd	89 81 84 af 00
	00		 mov	 DWORD PTR [rcx+44932], eax
  001c3	4c 8d 0d 00 00
	00 00		 lea	 r9, OFFSET FLAT:$SG193070
  001ca	41 b8 0b 00 00
	00		 mov	 r8d, 11
  001d0	ba 02 00 00 00	 mov	 edx, 2
  001d5	48 8b 4c 24 78	 mov	 rcx, QWORD PTR regs$[rsp]
  001da	e8 00 00 00 00	 call	 z900_abort_transaction
$LN17@z900_nontr:
  001df	33 c0		 xor	 eax, eax
  001e1	85 c0		 test	 eax, eax
  001e3	75 b4		 jne	 SHORT $LN7@z900_nontr

; 621  :     DW_CHECK( effective_addr2, regs );

  001e5	48 8b 44 24 58	 mov	 rax, QWORD PTR effective_addr2$[rsp]
  001ea	48 83 e0 07	 and	 rax, 7
  001ee	48 85 c0	 test	 rax, rax
  001f1	74 15		 je	 SHORT $LN18@z900_nontr
  001f3	ba 06 00 00 00	 mov	 edx, 6
  001f8	48 8b 4c 24 78	 mov	 rcx, QWORD PTR regs$[rsp]
  001fd	48 8b 44 24 78	 mov	 rax, QWORD PTR regs$[rsp]
  00202	ff 90 20 0d 00
	00		 call	 QWORD PTR [rax+3360]
$LN18@z900_nontr:
$LN10@z900_nontr:

; 622  : 
; 623  :     PTT_TXF( "TXF NTSTG", regs->GR_G( r1 ), effective_addr2, 0 );

  00208	48 8b 05 00 00
	00 00		 mov	 rax, QWORD PTR __imp_pttclass
  0020f	48 8b 00	 mov	 rax, QWORD PTR [rax]
  00212	48 25 00 04 00
	00		 and	 rax, 1024		; 00000400H
  00218	48 85 c0	 test	 rax, rax
  0021b	74 47		 je	 SHORT $LN19@z900_nontr
  0021d	48 63 44 24 54	 movsxd	 rax, DWORD PTR r1$[rsp]
  00222	48 c7 44 24 30
	00 00 00 00	 mov	 QWORD PTR [rsp+48], 0
  0022b	48 c7 44 24 28
	00 00 00 00	 mov	 QWORD PTR [rsp+40], 0
  00234	48 8d 0d 00 00
	00 00		 lea	 rcx, OFFSET FLAT:$SG193073
  0023b	48 89 4c 24 20	 mov	 QWORD PTR [rsp+32], rcx
  00240	4c 8b 4c 24 58	 mov	 r9, QWORD PTR effective_addr2$[rsp]
  00245	48 8b 4c 24 78	 mov	 rcx, QWORD PTR regs$[rsp]
  0024a	4c 8b 84 c1 80
	02 00 00	 mov	 r8, QWORD PTR [rcx+rax*8+640]
  00252	48 8d 15 00 00
	00 00		 lea	 rdx, OFFSET FLAT:$SG193074
  00259	b9 00 04 00 00	 mov	 ecx, 1024		; 00000400H
  0025e	ff 15 00 00 00
	00		 call	 QWORD PTR __imp_ptt_pthread_trace
$LN19@z900_nontr:
  00264	33 c0		 xor	 eax, eax
  00266	85 c0		 test	 eax, eax
  00268	75 9e		 jne	 SHORT $LN10@z900_nontr

; 624  : 
; 625  :     /* Nontransactionally store register contents at operand address */
; 626  :     regs->txf_NTSTG = true;

  0026a	48 8b 44 24 78	 mov	 rax, QWORD PTR regs$[rsp]
  0026f	c6 80 4b 0e 00
	00 01		 mov	 BYTE PTR [rax+3659], 1

; 627  :     ARCH_DEP( vstore8 )( regs->GR_G( r1 ), effective_addr2, b2, regs );

  00276	48 63 44 24 54	 movsxd	 rax, DWORD PTR r1$[rsp]
  0027b	4c 8b 4c 24 78	 mov	 r9, QWORD PTR regs$[rsp]
  00280	44 8b 44 24 48	 mov	 r8d, DWORD PTR b2$[rsp]
  00285	48 8b 54 24 58	 mov	 rdx, QWORD PTR effective_addr2$[rsp]
  0028a	48 8b 4c 24 78	 mov	 rcx, QWORD PTR regs$[rsp]
  0028f	48 8b 8c c1 80
	02 00 00	 mov	 rcx, QWORD PTR [rcx+rax*8+640]
  00297	e8 00 00 00 00	 call	 z900_vstore8

; 628  : 
; 629  : } /* end DEF_INST( nontransactional_store ) */

  0029c	48 83 c4 68	 add	 rsp, 104		; 00000068H
  002a0	c3		 ret	 0
z900_nontransactional_store ENDP
_TEXT	ENDS
; Function compile flags: /Odtp
; File C:\papa\MyGit\hyperion-zvector\transact.c
_TEXT	SEGMENT
temp$1 = 80
b2$ = 84
tv222 = 88
tv135 = 92
effective_addr2$ = 96
tv137 = 104
inst$ = 128
regs$ = 136
z900_transaction_abort PROC

; 567  : {

$LN41:
  00000	48 89 54 24 10	 mov	 QWORD PTR [rsp+16], rdx
  00005	48 89 4c 24 08	 mov	 QWORD PTR [rsp+8], rcx
  0000a	48 83 ec 78	 sub	 rsp, 120		; 00000078H

; 568  : int     b2;                             /* Base of effective addr    */
; 569  : VADR    effective_addr2;                /* Effective address         */
; 570  : 
; 571  :     S( inst, regs, b2, effective_addr2 );

  0000e	48 8b 8c 24 80
	00 00 00	 mov	 rcx, QWORD PTR inst$[rsp]
  00016	e8 00 00 00 00	 call	 fetch_fw_noswap
  0001b	8b c8		 mov	 ecx, eax
  0001d	e8 00 00 00 00	 call	 _byteswap_ulong
  00022	89 44 24 50	 mov	 DWORD PTR temp$1[rsp], eax
  00026	8b 44 24 50	 mov	 eax, DWORD PTR temp$1[rsp]
  0002a	25 ff 0f 00 00	 and	 eax, 4095		; 00000fffH
  0002f	8b c0		 mov	 eax, eax
  00031	48 89 44 24 60	 mov	 QWORD PTR effective_addr2$[rsp], rax
  00036	8b 44 24 50	 mov	 eax, DWORD PTR temp$1[rsp]
  0003a	c1 e8 0c	 shr	 eax, 12
  0003d	83 e0 0f	 and	 eax, 15
  00040	89 44 24 54	 mov	 DWORD PTR b2$[rsp], eax
  00044	83 7c 24 54 00	 cmp	 DWORD PTR b2$[rsp], 0
  00049	74 44		 je	 SHORT $LN26@z900_trans
  0004b	48 63 44 24 54	 movsxd	 rax, DWORD PTR b2$[rsp]
  00050	48 8b 8c 24 88
	00 00 00	 mov	 rcx, QWORD PTR regs$[rsp]
  00058	48 8b 84 c1 80
	02 00 00	 mov	 rax, QWORD PTR [rcx+rax*8+640]
  00060	48 8b 4c 24 60	 mov	 rcx, QWORD PTR effective_addr2$[rsp]
  00065	48 03 c8	 add	 rcx, rax
  00068	48 8b c1	 mov	 rax, rcx
  0006b	48 89 44 24 60	 mov	 QWORD PTR effective_addr2$[rsp], rax
  00070	48 8b 84 24 88
	00 00 00	 mov	 rax, QWORD PTR regs$[rsp]
  00078	48 8b 80 90 00
	00 00		 mov	 rax, QWORD PTR [rax+144]
  0007f	48 8b 4c 24 60	 mov	 rcx, QWORD PTR effective_addr2$[rsp]
  00084	48 23 c8	 and	 rcx, rax
  00087	48 8b c1	 mov	 rax, rcx
  0008a	48 89 44 24 60	 mov	 QWORD PTR effective_addr2$[rsp], rax
$LN26@z900_trans:
$LN4@z900_trans:
  0008f	48 8b 84 24 88
	00 00 00	 mov	 rax, QWORD PTR regs$[rsp]
  00097	48 8b 40 68	 mov	 rax, QWORD PTR [rax+104]
  0009b	48 83 c0 04	 add	 rax, 4
  0009f	48 8b 8c 24 88
	00 00 00	 mov	 rcx, QWORD PTR regs$[rsp]
  000a7	48 89 41 68	 mov	 QWORD PTR [rcx+104], rax
  000ab	33 c0		 xor	 eax, eax
  000ad	83 f8 04	 cmp	 eax, 4
  000b0	74 0f		 je	 SHORT $LN27@z900_trans
  000b2	48 8b 84 24 88
	00 00 00	 mov	 rax, QWORD PTR regs$[rsp]
  000ba	c6 80 9a 00 00
	00 04		 mov	 BYTE PTR [rax+154], 4
$LN27@z900_trans:
  000c1	33 c0		 xor	 eax, eax
  000c3	85 c0		 test	 eax, eax
  000c5	75 c8		 jne	 SHORT $LN4@z900_trans
$LN7@z900_trans:

; 572  : 
; 573  :     TXF_SIE_INTERCEPT( regs, TABORT );

  000c7	33 c0		 xor	 eax, eax
  000c9	83 f8 01	 cmp	 eax, 1
  000cc	0f 84 13 01 00
	00		 je	 $LN28@z900_trans
  000d2	48 8b 84 24 88
	00 00 00	 mov	 rax, QWORD PTR regs$[rsp]
  000da	8b 80 c8 08 00
	00		 mov	 eax, DWORD PTR [rax+2248]
  000e0	d1 e8		 shr	 eax, 1
  000e2	83 e0 01	 and	 eax, 1
  000e5	85 c0		 test	 eax, eax
  000e7	0f 84 f8 00 00
	00		 je	 $LN28@z900_trans
  000ed	48 8b 84 24 88
	00 00 00	 mov	 rax, QWORD PTR regs$[rsp]
  000f5	48 8b 80 88 08
	00 00		 mov	 rax, QWORD PTR [rax+2184]
  000fc	b9 01 00 00 00	 mov	 ecx, 1
  00101	48 6b c9 01	 imul	 rcx, rcx, 1
  00105	0f b6 44 08 60	 movzx	 eax, BYTE PTR [rax+rcx+96]
  0010a	83 e0 10	 and	 eax, 16
  0010d	85 c0		 test	 eax, eax
  0010f	0f 85 d0 00 00
	00		 jne	 $LN28@z900_trans
  00115	48 8b 05 00 00
	00 00		 mov	 rax, QWORD PTR __imp_sysblk
  0011c	83 b8 4c 05 00
	00 00		 cmp	 DWORD PTR [rax+1356], 0
  00123	0f 84 a1 00 00
	00		 je	 $LN29@z900_trans
  00129	48 8b 84 24 88
	00 00 00	 mov	 rax, QWORD PTR regs$[rsp]
  00131	0f b7 80 3c 08
	00 00		 movzx	 eax, WORD PTR [rax+2108]
  00138	89 44 24 5c	 mov	 DWORD PTR tv135[rsp], eax
  0013c	48 8b 8c 24 88
	00 00 00	 mov	 rcx, QWORD PTR regs$[rsp]
  00144	0f b7 89 3c 08
	00 00		 movzx	 ecx, WORD PTR [rcx+2108]
  0014b	48 8b 15 00 00
	00 00		 mov	 rdx, QWORD PTR __imp_sysblk
  00152	0f b6 8c 0a 48
	0b 00 00	 movzx	 ecx, BYTE PTR [rdx+rcx+2888]
  0015a	ff 15 00 00 00
	00		 call	 QWORD PTR __imp_ptyp2short
  00160	48 89 44 24 68	 mov	 QWORD PTR tv137[rsp], rax
  00165	b9 01 00 00 00	 mov	 ecx, 1
  0016a	ff 15 00 00 00
	00		 call	 QWORD PTR __imp___acrt_iob_func
  00170	48 8d 0d 00 00
	00 00		 lea	 rcx, OFFSET FLAT:$SG193015
  00177	48 89 4c 24 48	 mov	 QWORD PTR [rsp+72], rcx
  0017c	8b 4c 24 5c	 mov	 ecx, DWORD PTR tv135[rsp]
  00180	89 4c 24 40	 mov	 DWORD PTR [rsp+64], ecx
  00184	48 8b 4c 24 68	 mov	 rcx, QWORD PTR tv137[rsp]
  00189	48 89 4c 24 38	 mov	 QWORD PTR [rsp+56], rcx
  0018e	48 8d 0d 00 00
	00 00		 lea	 rcx, OFFSET FLAT:$SG193016
  00195	48 89 4c 24 30	 mov	 QWORD PTR [rsp+48], rcx
  0019a	48 8d 0d 00 00
	00 00		 lea	 rcx, OFFSET FLAT:$SG193017
  001a1	48 89 4c 24 28	 mov	 QWORD PTR [rsp+40], rcx
  001a6	48 89 44 24 20	 mov	 QWORD PTR [rsp+32], rax
  001ab	41 b9 03 00 00
	00		 mov	 r9d, 3
  001b1	4c 8d 05 00 00
	00 00		 lea	 r8, OFFSET FLAT:$SG193018
  001b8	ba 3d 02 00 00	 mov	 edx, 573		; 0000023dH
  001bd	48 8d 0d 00 00
	00 00		 lea	 rcx, OFFSET FLAT:$SG193019
  001c4	ff 15 00 00 00
	00		 call	 QWORD PTR __imp_fwritemsg
$LN29@z900_trans:
  001ca	48 8b 84 24 88
	00 00 00	 mov	 rax, QWORD PTR regs$[rsp]
  001d2	48 05 80 09 00
	00		 add	 rax, 2432		; 00000980H
  001d8	ba fc ff ff ff	 mov	 edx, -4
  001dd	48 8b c8	 mov	 rcx, rax
  001e0	e8 00 00 00 00	 call	 longjmp
$LN28@z900_trans:
  001e5	33 c0		 xor	 eax, eax
  001e7	85 c0		 test	 eax, eax
  001e9	0f 85 d8 fe ff
	ff		 jne	 $LN7@z900_trans
$LN10@z900_trans:

; 574  : 
; 575  :     TXFC_INSTR_CHECK( regs );

  001ef	48 8b 84 24 88
	00 00 00	 mov	 rax, QWORD PTR regs$[rsp]
  001f7	0f b6 80 4c 0e
	00 00		 movzx	 eax, BYTE PTR [rax+3660]
  001fe	85 c0		 test	 eax, eax
  00200	74 3f		 je	 SHORT $LN30@z900_trans
  00202	48 8b 84 24 88
	00 00 00	 mov	 rax, QWORD PTR regs$[rsp]
  0020a	8b 80 84 af 00
	00		 mov	 eax, DWORD PTR [rax+44932]
  00210	0f ba e8 0f	 bts	 eax, 15
  00214	48 8b 8c 24 88
	00 00 00	 mov	 rcx, QWORD PTR regs$[rsp]
  0021c	89 81 84 af 00
	00		 mov	 DWORD PTR [rcx+44932], eax
  00222	4c 8d 0d 00 00
	00 00		 lea	 r9, OFFSET FLAT:$SG193021
  00229	41 b8 0b 00 00
	00		 mov	 r8d, 11
  0022f	ba 02 00 00 00	 mov	 edx, 2
  00234	48 8b 8c 24 88
	00 00 00	 mov	 rcx, QWORD PTR regs$[rsp]
  0023c	e8 00 00 00 00	 call	 z900_abort_transaction
$LN30@z900_trans:
  00241	33 c0		 xor	 eax, eax
  00243	85 c0		 test	 eax, eax
  00245	75 a8		 jne	 SHORT $LN10@z900_trans
$LN13@z900_trans:

; 576  :     TXF_EXECUTE_INSTR_CHECK( regs );

  00247	48 8b 84 24 88
	00 00 00	 mov	 rax, QWORD PTR regs$[rsp]
  0024f	8b 80 28 07 00
	00		 mov	 eax, DWORD PTR [rax+1832]
  00255	83 e0 01	 and	 eax, 1
  00258	85 c0		 test	 eax, eax
  0025a	74 12		 je	 SHORT $LN31@z900_trans
  0025c	ba 03 00 00 00	 mov	 edx, 3
  00261	48 8b 8c 24 88
	00 00 00	 mov	 rcx, QWORD PTR regs$[rsp]
  00269	e8 00 00 00 00	 call	 z900_program_interrupt
$LN31@z900_trans:
  0026e	33 c0		 xor	 eax, eax
  00270	85 c0		 test	 eax, eax
  00272	75 d3		 jne	 SHORT $LN13@z900_trans

; 577  : 
; 578  :     if (effective_addr2 <= 255)

  00274	48 81 7c 24 60
	ff 00 00 00	 cmp	 QWORD PTR effective_addr2$[rsp], 255 ; 000000ffH
  0027d	77 7f		 ja	 SHORT $LN32@z900_trans
$LN16@z900_trans:

; 579  :     {
; 580  :         PTT_TXF( "*TXF TABORT", effective_addr2, regs->txf_contran, regs->txf_tnd );

  0027f	48 8b 05 00 00
	00 00		 mov	 rax, QWORD PTR __imp_pttclass
  00286	48 8b 00	 mov	 rax, QWORD PTR [rax]
  00289	48 25 00 04 00
	00		 and	 rax, 1024		; 00000400H
  0028f	48 85 c0	 test	 rax, rax
  00292	74 52		 je	 SHORT $LN33@z900_trans
  00294	48 8b 84 24 88
	00 00 00	 mov	 rax, QWORD PTR regs$[rsp]
  0029c	0f b6 80 58 0e
	00 00		 movzx	 eax, BYTE PTR [rax+3672]
  002a3	48 8b 8c 24 88
	00 00 00	 mov	 rcx, QWORD PTR regs$[rsp]
  002ab	0f b6 89 4c 0e
	00 00		 movzx	 ecx, BYTE PTR [rcx+3660]
  002b2	48 c7 44 24 30
	00 00 00 00	 mov	 QWORD PTR [rsp+48], 0
  002bb	48 89 44 24 28	 mov	 QWORD PTR [rsp+40], rax
  002c0	48 8d 05 00 00
	00 00		 lea	 rax, OFFSET FLAT:$SG193025
  002c7	48 89 44 24 20	 mov	 QWORD PTR [rsp+32], rax
  002cc	44 8b c9	 mov	 r9d, ecx
  002cf	4c 8b 44 24 60	 mov	 r8, QWORD PTR effective_addr2$[rsp]
  002d4	48 8d 15 00 00
	00 00		 lea	 rdx, OFFSET FLAT:$SG193026
  002db	b9 00 04 00 00	 mov	 ecx, 1024		; 00000400H
  002e0	ff 15 00 00 00
	00		 call	 QWORD PTR __imp_ptt_pthread_trace
$LN33@z900_trans:
  002e6	33 c0		 xor	 eax, eax
  002e8	85 c0		 test	 eax, eax
  002ea	75 93		 jne	 SHORT $LN16@z900_trans

; 581  :         ARCH_DEP( program_interrupt )( regs, PGM_SPECIFICATION_EXCEPTION );

  002ec	ba 06 00 00 00	 mov	 edx, 6
  002f1	48 8b 8c 24 88
	00 00 00	 mov	 rcx, QWORD PTR regs$[rsp]
  002f9	e8 00 00 00 00	 call	 z900_program_interrupt
$LN32@z900_trans:

; 582  :         UNREACHABLE_CODE( return );
; 583  :     }
; 584  : 
; 585  :     if (!regs->txf_tnd)

  002fe	48 8b 84 24 88
	00 00 00	 mov	 rax, QWORD PTR regs$[rsp]
  00306	0f b6 80 58 0e
	00 00		 movzx	 eax, BYTE PTR [rax+3672]
  0030d	85 c0		 test	 eax, eax
  0030f	75 6c		 jne	 SHORT $LN34@z900_trans
$LN19@z900_trans:

; 586  :     {
; 587  :         PTT_TXF( "*TXF TABORT", 0, 0, 0 );

  00311	48 8b 05 00 00
	00 00		 mov	 rax, QWORD PTR __imp_pttclass
  00318	48 8b 00	 mov	 rax, QWORD PTR [rax]
  0031b	48 25 00 04 00
	00		 and	 rax, 1024		; 00000400H
  00321	48 85 c0	 test	 rax, rax
  00324	74 36		 je	 SHORT $LN35@z900_trans
  00326	48 c7 44 24 30
	00 00 00 00	 mov	 QWORD PTR [rsp+48], 0
  0032f	48 c7 44 24 28
	00 00 00 00	 mov	 QWORD PTR [rsp+40], 0
  00338	48 8d 05 00 00
	00 00		 lea	 rax, OFFSET FLAT:$SG193029
  0033f	48 89 44 24 20	 mov	 QWORD PTR [rsp+32], rax
  00344	45 33 c9	 xor	 r9d, r9d
  00347	45 33 c0	 xor	 r8d, r8d
  0034a	48 8d 15 00 00
	00 00		 lea	 rdx, OFFSET FLAT:$SG193030
  00351	b9 00 04 00 00	 mov	 ecx, 1024		; 00000400H
  00356	ff 15 00 00 00
	00		 call	 QWORD PTR __imp_ptt_pthread_trace
$LN35@z900_trans:
  0035c	33 c0		 xor	 eax, eax
  0035e	85 c0		 test	 eax, eax
  00360	75 af		 jne	 SHORT $LN19@z900_trans

; 588  :         regs->program_interrupt( regs, PGM_SPECIAL_OPERATION_EXCEPTION );

  00362	ba 13 00 00 00	 mov	 edx, 19
  00367	48 8b 8c 24 88
	00 00 00	 mov	 rcx, QWORD PTR regs$[rsp]
  0036f	48 8b 84 24 88
	00 00 00	 mov	 rax, QWORD PTR regs$[rsp]
  00377	ff 90 20 0d 00
	00		 call	 QWORD PTR [rax+3360]
$LN34@z900_trans:
$LN22@z900_trans:

; 589  :         UNREACHABLE_CODE( return );
; 590  :     }
; 591  : 
; 592  :     TXFC_INSTR_CHECK( regs );

  0037d	48 8b 84 24 88
	00 00 00	 mov	 rax, QWORD PTR regs$[rsp]
  00385	0f b6 80 4c 0e
	00 00		 movzx	 eax, BYTE PTR [rax+3660]
  0038c	85 c0		 test	 eax, eax
  0038e	74 3f		 je	 SHORT $LN36@z900_trans
  00390	48 8b 84 24 88
	00 00 00	 mov	 rax, QWORD PTR regs$[rsp]
  00398	8b 80 84 af 00
	00		 mov	 eax, DWORD PTR [rax+44932]
  0039e	0f ba e8 0f	 bts	 eax, 15
  003a2	48 8b 8c 24 88
	00 00 00	 mov	 rcx, QWORD PTR regs$[rsp]
  003aa	89 81 84 af 00
	00		 mov	 DWORD PTR [rcx+44932], eax
  003b0	4c 8d 0d 00 00
	00 00		 lea	 r9, OFFSET FLAT:$SG193032
  003b7	41 b8 0b 00 00
	00		 mov	 r8d, 11
  003bd	ba 02 00 00 00	 mov	 edx, 2
  003c2	48 8b 8c 24 88
	00 00 00	 mov	 rcx, QWORD PTR regs$[rsp]
  003ca	e8 00 00 00 00	 call	 z900_abort_transaction
$LN36@z900_trans:
  003cf	33 c0		 xor	 eax, eax
  003d1	85 c0		 test	 eax, eax
  003d3	75 a8		 jne	 SHORT $LN22@z900_trans

; 593  : 
; 594  :     /* CC in transaction abort PSW = 2 or 3 based on operand2 bit 63 */
; 595  :     regs->txf_tapsw.cc = (effective_addr2 & 0x1) == 0 ? 2 : 3;

  003d5	48 8b 44 24 60	 mov	 rax, QWORD PTR effective_addr2$[rsp]
  003da	48 83 e0 01	 and	 rax, 1
  003de	48 85 c0	 test	 rax, rax
  003e1	75 0a		 jne	 SHORT $LN39@z900_trans
  003e3	c7 44 24 58 02
	00 00 00	 mov	 DWORD PTR tv222[rsp], 2
  003eb	eb 08		 jmp	 SHORT $LN40@z900_trans
$LN39@z900_trans:
  003ed	c7 44 24 58 03
	00 00 00	 mov	 DWORD PTR tv222[rsp], 3
$LN40@z900_trans:
  003f5	48 8b 84 24 88
	00 00 00	 mov	 rax, QWORD PTR regs$[rsp]
  003fd	0f b6 4c 24 58	 movzx	 ecx, BYTE PTR tv222[rsp]
  00402	88 88 24 af 00
	00		 mov	 BYTE PTR [rax+44836], cl
$LN25@z900_trans:

; 596  : 
; 597  :     /* Abort the transaction */
; 598  : 
; 599  :     PTT_TXF( "TXF TABORT", effective_addr2, regs->txf_contran, regs->txf_tnd );

  00408	48 8b 05 00 00
	00 00		 mov	 rax, QWORD PTR __imp_pttclass
  0040f	48 8b 00	 mov	 rax, QWORD PTR [rax]
  00412	48 25 00 04 00
	00		 and	 rax, 1024		; 00000400H
  00418	48 85 c0	 test	 rax, rax
  0041b	74 52		 je	 SHORT $LN37@z900_trans
  0041d	48 8b 84 24 88
	00 00 00	 mov	 rax, QWORD PTR regs$[rsp]
  00425	0f b6 80 58 0e
	00 00		 movzx	 eax, BYTE PTR [rax+3672]
  0042c	48 8b 8c 24 88
	00 00 00	 mov	 rcx, QWORD PTR regs$[rsp]
  00434	0f b6 89 4c 0e
	00 00		 movzx	 ecx, BYTE PTR [rcx+3660]
  0043b	48 c7 44 24 30
	00 00 00 00	 mov	 QWORD PTR [rsp+48], 0
  00444	48 89 44 24 28	 mov	 QWORD PTR [rsp+40], rax
  00449	48 8d 05 00 00
	00 00		 lea	 rax, OFFSET FLAT:$SG193034
  00450	48 89 44 24 20	 mov	 QWORD PTR [rsp+32], rax
  00455	44 8b c9	 mov	 r9d, ecx
  00458	4c 8b 44 24 60	 mov	 r8, QWORD PTR effective_addr2$[rsp]
  0045d	48 8d 15 00 00
	00 00		 lea	 rdx, OFFSET FLAT:$SG193035
  00464	b9 00 04 00 00	 mov	 ecx, 1024		; 00000400H
  00469	ff 15 00 00 00
	00		 call	 QWORD PTR __imp_ptt_pthread_trace
$LN37@z900_trans:
  0046f	33 c0		 xor	 eax, eax
  00471	85 c0		 test	 eax, eax
  00473	75 93		 jne	 SHORT $LN25@z900_trans

; 600  :     regs->txf_why |= TXF_WHY_TABORT_INSTR;

  00475	48 8b 84 24 88
	00 00 00	 mov	 rax, QWORD PTR regs$[rsp]
  0047d	8b 80 84 af 00
	00		 mov	 eax, DWORD PTR [rax+44932]
  00483	0f ba e8 10	 bts	 eax, 16
  00487	48 8b 8c 24 88
	00 00 00	 mov	 rcx, QWORD PTR regs$[rsp]
  0048f	89 81 84 af 00
	00		 mov	 DWORD PTR [rcx+44932], eax

; 601  :     ABORT_TRANS( regs, ABORT_RETRY_CC, (int) effective_addr2 );

  00495	4c 8d 0d 00 00
	00 00		 lea	 r9, OFFSET FLAT:$SG193036
  0049c	44 8b 44 24 60	 mov	 r8d, DWORD PTR effective_addr2$[rsp]
  004a1	ba 01 00 00 00	 mov	 edx, 1
  004a6	48 8b 8c 24 88
	00 00 00	 mov	 rcx, QWORD PTR regs$[rsp]
  004ae	e8 00 00 00 00	 call	 z900_abort_transaction
$LN38@z900_trans:

; 602  :     UNREACHABLE_CODE( return );
; 603  : 
; 604  : } /* end DEF_INST( transaction_abort ) */

  004b3	48 83 c4 78	 add	 rsp, 120		; 00000078H
  004b7	c3		 ret	 0
z900_transaction_abort ENDP
_TEXT	ENDS
; Function compile flags: /Odtp
; File C:\papa\MyGit\hyperion-zvector\transact.c
_TEXT	SEGMENT
i$1 = 80
tv93 = 84
r1$ = 88
r2$ = 92
tv95 = 96
inst$ = 128
regs$ = 136
z900_extract_transaction_nesting_depth PROC

; 164  : {

$LN28:
  00000	48 89 54 24 10	 mov	 QWORD PTR [rsp+16], rdx
  00005	48 89 4c 24 08	 mov	 QWORD PTR [rsp+8], rcx
  0000a	48 83 ec 78	 sub	 rsp, 120		; 00000078H

; 165  : int     r1, r2;                         /* Operand register numbers  */
; 166  : 
; 167  :     RRE( inst, regs, r1, r2 );

  0000e	b8 01 00 00 00	 mov	 eax, 1
  00013	48 6b c0 03	 imul	 rax, rax, 3
  00017	48 8b 8c 24 80
	00 00 00	 mov	 rcx, QWORD PTR inst$[rsp]
  0001f	0f b6 04 01	 movzx	 eax, BYTE PTR [rcx+rax]
  00023	89 44 24 50	 mov	 DWORD PTR i$1[rsp], eax
  00027	8b 44 24 50	 mov	 eax, DWORD PTR i$1[rsp]
  0002b	83 e0 0f	 and	 eax, 15
  0002e	89 44 24 5c	 mov	 DWORD PTR r2$[rsp], eax
  00032	8b 44 24 50	 mov	 eax, DWORD PTR i$1[rsp]
  00036	c1 f8 04	 sar	 eax, 4
  00039	83 e0 0f	 and	 eax, 15
  0003c	89 44 24 58	 mov	 DWORD PTR r1$[rsp], eax
$LN4@z900_extra:
  00040	48 8b 84 24 88
	00 00 00	 mov	 rax, QWORD PTR regs$[rsp]
  00048	48 8b 40 68	 mov	 rax, QWORD PTR [rax+104]
  0004c	48 83 c0 04	 add	 rax, 4
  00050	48 8b 8c 24 88
	00 00 00	 mov	 rcx, QWORD PTR regs$[rsp]
  00058	48 89 41 68	 mov	 QWORD PTR [rcx+104], rax
  0005c	33 c0		 xor	 eax, eax
  0005e	83 f8 04	 cmp	 eax, 4
  00061	74 0f		 je	 SHORT $LN20@z900_extra
  00063	48 8b 84 24 88
	00 00 00	 mov	 rax, QWORD PTR regs$[rsp]
  0006b	c6 80 9a 00 00
	00 04		 mov	 BYTE PTR [rax+154], 4
$LN20@z900_extra:
  00072	33 c0		 xor	 eax, eax
  00074	85 c0		 test	 eax, eax
  00076	75 c8		 jne	 SHORT $LN4@z900_extra
$LN7@z900_extra:

; 168  : 
; 169  :     UNREFERENCED( r2 );

  00078	33 c0		 xor	 eax, eax
  0007a	85 c0		 test	 eax, eax
  0007c	75 fa		 jne	 SHORT $LN7@z900_extra
$LN10@z900_extra:

; 170  : 
; 171  :     TXF_SIE_INTERCEPT( regs, ETND );

  0007e	33 c0		 xor	 eax, eax
  00080	83 f8 01	 cmp	 eax, 1
  00083	0f 84 13 01 00
	00		 je	 $LN21@z900_extra
  00089	48 8b 84 24 88
	00 00 00	 mov	 rax, QWORD PTR regs$[rsp]
  00091	8b 80 c8 08 00
	00		 mov	 eax, DWORD PTR [rax+2248]
  00097	d1 e8		 shr	 eax, 1
  00099	83 e0 01	 and	 eax, 1
  0009c	85 c0		 test	 eax, eax
  0009e	0f 84 f8 00 00
	00		 je	 $LN21@z900_extra
  000a4	48 8b 84 24 88
	00 00 00	 mov	 rax, QWORD PTR regs$[rsp]
  000ac	48 8b 80 88 08
	00 00		 mov	 rax, QWORD PTR [rax+2184]
  000b3	b9 01 00 00 00	 mov	 ecx, 1
  000b8	48 6b c9 01	 imul	 rcx, rcx, 1
  000bc	0f b6 44 08 60	 movzx	 eax, BYTE PTR [rax+rcx+96]
  000c1	83 e0 10	 and	 eax, 16
  000c4	85 c0		 test	 eax, eax
  000c6	0f 85 d0 00 00
	00		 jne	 $LN21@z900_extra
  000cc	48 8b 05 00 00
	00 00		 mov	 rax, QWORD PTR __imp_sysblk
  000d3	83 b8 4c 05 00
	00 00		 cmp	 DWORD PTR [rax+1356], 0
  000da	0f 84 a1 00 00
	00		 je	 $LN22@z900_extra
  000e0	48 8b 84 24 88
	00 00 00	 mov	 rax, QWORD PTR regs$[rsp]
  000e8	0f b7 80 3c 08
	00 00		 movzx	 eax, WORD PTR [rax+2108]
  000ef	89 44 24 54	 mov	 DWORD PTR tv93[rsp], eax
  000f3	48 8b 8c 24 88
	00 00 00	 mov	 rcx, QWORD PTR regs$[rsp]
  000fb	0f b7 89 3c 08
	00 00		 movzx	 ecx, WORD PTR [rcx+2108]
  00102	48 8b 15 00 00
	00 00		 mov	 rdx, QWORD PTR __imp_sysblk
  00109	0f b6 8c 0a 48
	0b 00 00	 movzx	 ecx, BYTE PTR [rdx+rcx+2888]
  00111	ff 15 00 00 00
	00		 call	 QWORD PTR __imp_ptyp2short
  00117	48 89 44 24 60	 mov	 QWORD PTR tv95[rsp], rax
  0011c	b9 01 00 00 00	 mov	 ecx, 1
  00121	ff 15 00 00 00
	00		 call	 QWORD PTR __imp___acrt_iob_func
  00127	48 8d 0d 00 00
	00 00		 lea	 rcx, OFFSET FLAT:$SG192669
  0012e	48 89 4c 24 48	 mov	 QWORD PTR [rsp+72], rcx
  00133	8b 4c 24 54	 mov	 ecx, DWORD PTR tv93[rsp]
  00137	89 4c 24 40	 mov	 DWORD PTR [rsp+64], ecx
  0013b	48 8b 4c 24 60	 mov	 rcx, QWORD PTR tv95[rsp]
  00140	48 89 4c 24 38	 mov	 QWORD PTR [rsp+56], rcx
  00145	48 8d 0d 00 00
	00 00		 lea	 rcx, OFFSET FLAT:$SG192670
  0014c	48 89 4c 24 30	 mov	 QWORD PTR [rsp+48], rcx
  00151	48 8d 0d 00 00
	00 00		 lea	 rcx, OFFSET FLAT:$SG192671
  00158	48 89 4c 24 28	 mov	 QWORD PTR [rsp+40], rcx
  0015d	48 89 44 24 20	 mov	 QWORD PTR [rsp+32], rax
  00162	41 b9 03 00 00
	00		 mov	 r9d, 3
  00168	4c 8d 05 00 00
	00 00		 lea	 r8, OFFSET FLAT:$SG192672
  0016f	ba ab 00 00 00	 mov	 edx, 171		; 000000abH
  00174	48 8d 0d 00 00
	00 00		 lea	 rcx, OFFSET FLAT:$SG192673
  0017b	ff 15 00 00 00
	00		 call	 QWORD PTR __imp_fwritemsg
$LN22@z900_extra:
  00181	48 8b 84 24 88
	00 00 00	 mov	 rax, QWORD PTR regs$[rsp]
  00189	48 05 80 09 00
	00		 add	 rax, 2432		; 00000980H
  0018f	ba fc ff ff ff	 mov	 edx, -4
  00194	48 8b c8	 mov	 rcx, rax
  00197	e8 00 00 00 00	 call	 longjmp
$LN21@z900_extra:
  0019c	33 c0		 xor	 eax, eax
  0019e	85 c0		 test	 eax, eax
  001a0	0f 85 d8 fe ff
	ff		 jne	 $LN10@z900_extra

; 172  : 
; 173  :     if (!(regs->CR(0) & CR0_TXC))

  001a6	b8 08 00 00 00	 mov	 eax, 8
  001ab	48 6b c0 01	 imul	 rax, rax, 1
  001af	48 8b 8c 24 88
	00 00 00	 mov	 rcx, QWORD PTR regs$[rsp]
  001b7	48 ba 00 00 00
	00 00 00 80 00	 mov	 rdx, 36028797018963968	; 0080000000000000H
  001c1	48 8b 84 01 00
	06 00 00	 mov	 rax, QWORD PTR [rcx+rax+1536]
  001c9	48 23 c2	 and	 rax, rdx
  001cc	48 85 c0	 test	 rax, rax
  001cf	0f 85 97 00 00
	00		 jne	 $LN23@z900_extra
$LN13@z900_extra:

; 174  :     {
; 175  :         PTT_TXF( "*TXF ETND", regs->CR(0), regs->txf_contran, regs->txf_tnd );

  001d5	48 8b 05 00 00
	00 00		 mov	 rax, QWORD PTR __imp_pttclass
  001dc	48 8b 00	 mov	 rax, QWORD PTR [rax]
  001df	48 25 00 04 00
	00		 and	 rax, 1024		; 00000400H
  001e5	48 85 c0	 test	 rax, rax
  001e8	74 66		 je	 SHORT $LN24@z900_extra
  001ea	48 8b 84 24 88
	00 00 00	 mov	 rax, QWORD PTR regs$[rsp]
  001f2	0f b6 80 58 0e
	00 00		 movzx	 eax, BYTE PTR [rax+3672]
  001f9	48 8b 8c 24 88
	00 00 00	 mov	 rcx, QWORD PTR regs$[rsp]
  00201	0f b6 89 4c 0e
	00 00		 movzx	 ecx, BYTE PTR [rcx+3660]
  00208	ba 08 00 00 00	 mov	 edx, 8
  0020d	48 6b d2 01	 imul	 rdx, rdx, 1
  00211	48 c7 44 24 30
	00 00 00 00	 mov	 QWORD PTR [rsp+48], 0
  0021a	48 89 44 24 28	 mov	 QWORD PTR [rsp+40], rax
  0021f	48 8d 05 00 00
	00 00		 lea	 rax, OFFSET FLAT:$SG192676
  00226	48 89 44 24 20	 mov	 QWORD PTR [rsp+32], rax
  0022b	44 8b c9	 mov	 r9d, ecx
  0022e	48 8b 84 24 88
	00 00 00	 mov	 rax, QWORD PTR regs$[rsp]
  00236	4c 8b 84 10 00
	06 00 00	 mov	 r8, QWORD PTR [rax+rdx+1536]
  0023e	48 8d 15 00 00
	00 00		 lea	 rdx, OFFSET FLAT:$SG192677
  00245	b9 00 04 00 00	 mov	 ecx, 1024		; 00000400H
  0024a	ff 15 00 00 00
	00		 call	 QWORD PTR __imp_ptt_pthread_trace
$LN24@z900_extra:
  00250	33 c0		 xor	 eax, eax
  00252	85 c0		 test	 eax, eax
  00254	0f 85 7b ff ff
	ff		 jne	 $LN13@z900_extra

; 176  :         ARCH_DEP( program_interrupt )( regs, PGM_SPECIAL_OPERATION_EXCEPTION );

  0025a	ba 13 00 00 00	 mov	 edx, 19
  0025f	48 8b 8c 24 88
	00 00 00	 mov	 rcx, QWORD PTR regs$[rsp]
  00267	e8 00 00 00 00	 call	 z900_program_interrupt
$LN23@z900_extra:
$LN16@z900_extra:

; 177  :         UNREACHABLE_CODE( return );
; 178  :     }
; 179  : 
; 180  :     TXFC_INSTR_CHECK( regs );

  0026c	48 8b 84 24 88
	00 00 00	 mov	 rax, QWORD PTR regs$[rsp]
  00274	0f b6 80 4c 0e
	00 00		 movzx	 eax, BYTE PTR [rax+3660]
  0027b	85 c0		 test	 eax, eax
  0027d	74 3f		 je	 SHORT $LN25@z900_extra
  0027f	48 8b 84 24 88
	00 00 00	 mov	 rax, QWORD PTR regs$[rsp]
  00287	8b 80 84 af 00
	00		 mov	 eax, DWORD PTR [rax+44932]
  0028d	0f ba e8 0f	 bts	 eax, 15
  00291	48 8b 8c 24 88
	00 00 00	 mov	 rcx, QWORD PTR regs$[rsp]
  00299	89 81 84 af 00
	00		 mov	 DWORD PTR [rcx+44932], eax
  0029f	4c 8d 0d 00 00
	00 00		 lea	 r9, OFFSET FLAT:$SG192679
  002a6	41 b8 0b 00 00
	00		 mov	 r8d, 11
  002ac	ba 02 00 00 00	 mov	 edx, 2
  002b1	48 8b 8c 24 88
	00 00 00	 mov	 rcx, QWORD PTR regs$[rsp]
  002b9	e8 00 00 00 00	 call	 z900_abort_transaction
$LN25@z900_extra:
  002be	33 c0		 xor	 eax, eax
  002c0	85 c0		 test	 eax, eax
  002c2	75 a8		 jne	 SHORT $LN16@z900_extra

; 181  : 
; 182  :     regs->GR_L(r1) = (U32) regs->txf_tnd;

  002c4	48 8b 84 24 88
	00 00 00	 mov	 rax, QWORD PTR regs$[rsp]
  002cc	0f b6 80 58 0e
	00 00		 movzx	 eax, BYTE PTR [rax+3672]
  002d3	48 63 4c 24 58	 movsxd	 rcx, DWORD PTR r1$[rsp]
  002d8	48 8b 94 24 88
	00 00 00	 mov	 rdx, QWORD PTR regs$[rsp]
  002e0	89 84 ca 80 02
	00 00		 mov	 DWORD PTR [rdx+rcx*8+640], eax
$LN19@z900_extra:

; 183  : 
; 184  :     PTT_TXF( "TXF ETND", 0, 0, regs->txf_tnd );

  002e7	48 8b 05 00 00
	00 00		 mov	 rax, QWORD PTR __imp_pttclass
  002ee	48 8b 00	 mov	 rax, QWORD PTR [rax]
  002f1	48 25 00 04 00
	00		 and	 rax, 1024		; 00000400H
  002f7	48 85 c0	 test	 rax, rax
  002fa	74 41		 je	 SHORT $LN26@z900_extra
  002fc	48 8b 84 24 88
	00 00 00	 mov	 rax, QWORD PTR regs$[rsp]
  00304	0f b6 80 58 0e
	00 00		 movzx	 eax, BYTE PTR [rax+3672]
  0030b	48 c7 44 24 30
	00 00 00 00	 mov	 QWORD PTR [rsp+48], 0
  00314	48 89 44 24 28	 mov	 QWORD PTR [rsp+40], rax
  00319	48 8d 05 00 00
	00 00		 lea	 rax, OFFSET FLAT:$SG192681
  00320	48 89 44 24 20	 mov	 QWORD PTR [rsp+32], rax
  00325	45 33 c9	 xor	 r9d, r9d
  00328	45 33 c0	 xor	 r8d, r8d
  0032b	48 8d 15 00 00
	00 00		 lea	 rdx, OFFSET FLAT:$SG192682
  00332	b9 00 04 00 00	 mov	 ecx, 1024		; 00000400H
  00337	ff 15 00 00 00
	00		 call	 QWORD PTR __imp_ptt_pthread_trace
$LN26@z900_extra:
  0033d	33 c0		 xor	 eax, eax
  0033f	85 c0		 test	 eax, eax
  00341	75 a4		 jne	 SHORT $LN19@z900_extra
$LN27@z900_extra:

; 185  : 
; 186  : } /* end DEF_INST( extract_transaction_nesting_depth ) */

  00343	48 83 c4 78	 add	 rsp, 120		; 00000078H
  00347	c3		 ret	 0
z900_extract_transaction_nesting_depth ENDP
_TEXT	ENDS
; Function compile flags: /Odtp
; File C:\papa\MyGit\hyperion-zvector\transact.c
_TEXT	SEGMENT
txf_contran$1 = 112
j$ = 116
refchg$2 = 120
txf_tnd$ = 124
per_tend$ = 128
txf_tac$ = 132
pmap$ = 136
i$ = 144
txf_abortctr$3 = 148
temp$4 = 152
b2$ = 156
tv542 = 160
tv915 = 164
tv920 = 168
tv957 = 172
effective_addr2$ = 176
tv370 = 184
txf_aie_off2$5 = 188
tv644 = 192
tv716 = 196
tv893 = 200
slot$ = 204
tv135 = 208
tv356 = 212
mainaddr$ = 216
tv361 = 224
tv367 = 232
tv635 = 240
tv641 = 248
tv713 = 256
altaddr$ = 264
tv884 = 272
tv890 = 280
tv137 = 288
tv372 = 296
saveaddr$ = 304
txf_aie$6 = 312
txf_aie_aiv$7 = 320
txf_aie_aiv2$8 = 328
tv646 = 336
tv705 = 344
tv718 = 352
tv895 = 360
inst$ = 400
regs$ = 408
z900_transaction_end PROC

; 227  : {

$LN145:
  00000	48 89 54 24 10	 mov	 QWORD PTR [rsp+16], rdx
  00005	48 89 4c 24 08	 mov	 QWORD PTR [rsp+8], rcx
  0000a	56		 push	 rsi
  0000b	57		 push	 rdi
  0000c	48 81 ec 78 01
	00 00		 sub	 rsp, 376		; 00000178H

; 228  : int         i, j;                       /* (work)                    */
; 229  : int         b2;                         /* Base of effective addr    */
; 230  : VADR        effective_addr2;            /* Effective address         */
; 231  : BYTE       *altaddr;
; 232  : BYTE       *saveaddr;
; 233  : BYTE       *mainaddr;
; 234  : TPAGEMAP   *pmap;
; 235  : int         txf_tnd, txf_tac, slot;
; 236  : bool        per_tend = false;           /* true = check for PER TEND */

  00013	c6 84 24 80 00
	00 00 00	 mov	 BYTE PTR per_tend$[rsp], 0

; 237  : 
; 238  :     S( inst, regs, b2, effective_addr2 );

  0001b	48 8b 8c 24 90
	01 00 00	 mov	 rcx, QWORD PTR inst$[rsp]
  00023	e8 00 00 00 00	 call	 fetch_fw_noswap
  00028	8b c8		 mov	 ecx, eax
  0002a	e8 00 00 00 00	 call	 _byteswap_ulong
  0002f	89 84 24 98 00
	00 00		 mov	 DWORD PTR temp$4[rsp], eax
  00036	8b 84 24 98 00
	00 00		 mov	 eax, DWORD PTR temp$4[rsp]
  0003d	25 ff 0f 00 00	 and	 eax, 4095		; 00000fffH
  00042	8b c0		 mov	 eax, eax
  00044	48 89 84 24 b0
	00 00 00	 mov	 QWORD PTR effective_addr2$[rsp], rax
  0004c	8b 84 24 98 00
	00 00		 mov	 eax, DWORD PTR temp$4[rsp]
  00053	c1 e8 0c	 shr	 eax, 12
  00056	83 e0 0f	 and	 eax, 15
  00059	89 84 24 9c 00
	00 00		 mov	 DWORD PTR b2$[rsp], eax
  00060	83 bc 24 9c 00
	00 00 00	 cmp	 DWORD PTR b2$[rsp], 0
  00068	74 53		 je	 SHORT $LN53@z900_trans
  0006a	48 63 84 24 9c
	00 00 00	 movsxd	 rax, DWORD PTR b2$[rsp]
  00072	48 8b 8c 24 98
	01 00 00	 mov	 rcx, QWORD PTR regs$[rsp]
  0007a	48 8b 84 c1 80
	02 00 00	 mov	 rax, QWORD PTR [rcx+rax*8+640]
  00082	48 8b 8c 24 b0
	00 00 00	 mov	 rcx, QWORD PTR effective_addr2$[rsp]
  0008a	48 03 c8	 add	 rcx, rax
  0008d	48 8b c1	 mov	 rax, rcx
  00090	48 89 84 24 b0
	00 00 00	 mov	 QWORD PTR effective_addr2$[rsp], rax
  00098	48 8b 84 24 98
	01 00 00	 mov	 rax, QWORD PTR regs$[rsp]
  000a0	48 8b 80 90 00
	00 00		 mov	 rax, QWORD PTR [rax+144]
  000a7	48 8b 8c 24 b0
	00 00 00	 mov	 rcx, QWORD PTR effective_addr2$[rsp]
  000af	48 23 c8	 and	 rcx, rax
  000b2	48 8b c1	 mov	 rax, rcx
  000b5	48 89 84 24 b0
	00 00 00	 mov	 QWORD PTR effective_addr2$[rsp], rax
$LN53@z900_trans:
$LN4@z900_trans:
  000bd	48 8b 84 24 98
	01 00 00	 mov	 rax, QWORD PTR regs$[rsp]
  000c5	48 8b 40 68	 mov	 rax, QWORD PTR [rax+104]
  000c9	48 83 c0 04	 add	 rax, 4
  000cd	48 8b 8c 24 98
	01 00 00	 mov	 rcx, QWORD PTR regs$[rsp]
  000d5	48 89 41 68	 mov	 QWORD PTR [rcx+104], rax
  000d9	33 c0		 xor	 eax, eax
  000db	83 f8 04	 cmp	 eax, 4
  000de	74 0f		 je	 SHORT $LN54@z900_trans
  000e0	48 8b 84 24 98
	01 00 00	 mov	 rax, QWORD PTR regs$[rsp]
  000e8	c6 80 9a 00 00
	00 04		 mov	 BYTE PTR [rax+154], 4
$LN54@z900_trans:
  000ef	33 c0		 xor	 eax, eax
  000f1	85 c0		 test	 eax, eax
  000f3	75 c8		 jne	 SHORT $LN4@z900_trans
$LN7@z900_trans:

; 239  : 
; 240  :     TXF_SIE_INTERCEPT( regs, TEND );

  000f5	33 c0		 xor	 eax, eax
  000f7	83 f8 01	 cmp	 eax, 1
  000fa	0f 84 1f 01 00
	00		 je	 $LN55@z900_trans
  00100	48 8b 84 24 98
	01 00 00	 mov	 rax, QWORD PTR regs$[rsp]
  00108	8b 80 c8 08 00
	00		 mov	 eax, DWORD PTR [rax+2248]
  0010e	d1 e8		 shr	 eax, 1
  00110	83 e0 01	 and	 eax, 1
  00113	85 c0		 test	 eax, eax
  00115	0f 84 04 01 00
	00		 je	 $LN55@z900_trans
  0011b	48 8b 84 24 98
	01 00 00	 mov	 rax, QWORD PTR regs$[rsp]
  00123	48 8b 80 88 08
	00 00		 mov	 rax, QWORD PTR [rax+2184]
  0012a	b9 01 00 00 00	 mov	 ecx, 1
  0012f	48 6b c9 01	 imul	 rcx, rcx, 1
  00133	0f b6 44 08 60	 movzx	 eax, BYTE PTR [rax+rcx+96]
  00138	83 e0 10	 and	 eax, 16
  0013b	85 c0		 test	 eax, eax
  0013d	0f 85 dc 00 00
	00		 jne	 $LN55@z900_trans
  00143	48 8b 05 00 00
	00 00		 mov	 rax, QWORD PTR __imp_sysblk
  0014a	83 b8 4c 05 00
	00 00		 cmp	 DWORD PTR [rax+1356], 0
  00151	0f 84 ad 00 00
	00		 je	 $LN56@z900_trans
  00157	48 8b 84 24 98
	01 00 00	 mov	 rax, QWORD PTR regs$[rsp]
  0015f	0f b7 80 3c 08
	00 00		 movzx	 eax, WORD PTR [rax+2108]
  00166	89 84 24 d0 00
	00 00		 mov	 DWORD PTR tv135[rsp], eax
  0016d	48 8b 8c 24 98
	01 00 00	 mov	 rcx, QWORD PTR regs$[rsp]
  00175	0f b7 89 3c 08
	00 00		 movzx	 ecx, WORD PTR [rcx+2108]
  0017c	48 8b 15 00 00
	00 00		 mov	 rdx, QWORD PTR __imp_sysblk
  00183	0f b6 8c 0a 48
	0b 00 00	 movzx	 ecx, BYTE PTR [rdx+rcx+2888]
  0018b	ff 15 00 00 00
	00		 call	 QWORD PTR __imp_ptyp2short
  00191	48 89 84 24 20
	01 00 00	 mov	 QWORD PTR tv137[rsp], rax
  00199	b9 01 00 00 00	 mov	 ecx, 1
  0019e	ff 15 00 00 00
	00		 call	 QWORD PTR __imp___acrt_iob_func
  001a4	48 8d 0d 00 00
	00 00		 lea	 rcx, OFFSET FLAT:$SG192835
  001ab	48 89 4c 24 48	 mov	 QWORD PTR [rsp+72], rcx
  001b0	8b 8c 24 d0 00
	00 00		 mov	 ecx, DWORD PTR tv135[rsp]
  001b7	89 4c 24 40	 mov	 DWORD PTR [rsp+64], ecx
  001bb	48 8b 8c 24 20
	01 00 00	 mov	 rcx, QWORD PTR tv137[rsp]
  001c3	48 89 4c 24 38	 mov	 QWORD PTR [rsp+56], rcx
  001c8	48 8d 0d 00 00
	00 00		 lea	 rcx, OFFSET FLAT:$SG192836
  001cf	48 89 4c 24 30	 mov	 QWORD PTR [rsp+48], rcx
  001d4	48 8d 0d 00 00
	00 00		 lea	 rcx, OFFSET FLAT:$SG192837
  001db	48 89 4c 24 28	 mov	 QWORD PTR [rsp+40], rcx
  001e0	48 89 44 24 20	 mov	 QWORD PTR [rsp+32], rax
  001e5	41 b9 03 00 00
	00		 mov	 r9d, 3
  001eb	4c 8d 05 00 00
	00 00		 lea	 r8, OFFSET FLAT:$SG192838
  001f2	ba f0 00 00 00	 mov	 edx, 240		; 000000f0H
  001f7	48 8d 0d 00 00
	00 00		 lea	 rcx, OFFSET FLAT:$SG192839
  001fe	ff 15 00 00 00
	00		 call	 QWORD PTR __imp_fwritemsg
$LN56@z900_trans:
  00204	48 8b 84 24 98
	01 00 00	 mov	 rax, QWORD PTR regs$[rsp]
  0020c	48 05 80 09 00
	00		 add	 rax, 2432		; 00000980H
  00212	ba fc ff ff ff	 mov	 edx, -4
  00217	48 8b c8	 mov	 rcx, rax
  0021a	e8 00 00 00 00	 call	 longjmp
$LN55@z900_trans:
  0021f	33 c0		 xor	 eax, eax
  00221	85 c0		 test	 eax, eax
  00223	0f 85 cc fe ff
	ff		 jne	 $LN7@z900_trans
$LN10@z900_trans:

; 241  : 
; 242  :     TXF_EXECUTE_INSTR_CHECK( regs );

  00229	48 8b 84 24 98
	01 00 00	 mov	 rax, QWORD PTR regs$[rsp]
  00231	8b 80 28 07 00
	00		 mov	 eax, DWORD PTR [rax+1832]
  00237	83 e0 01	 and	 eax, 1
  0023a	85 c0		 test	 eax, eax
  0023c	74 12		 je	 SHORT $LN57@z900_trans
  0023e	ba 03 00 00 00	 mov	 edx, 3
  00243	48 8b 8c 24 98
	01 00 00	 mov	 rcx, QWORD PTR regs$[rsp]
  0024b	e8 00 00 00 00	 call	 z900_program_interrupt
$LN57@z900_trans:
  00250	33 c0		 xor	 eax, eax
  00252	85 c0		 test	 eax, eax
  00254	75 d3		 jne	 SHORT $LN10@z900_trans

; 243  : 
; 244  :     if (!(regs->CR(0) & CR0_TXC))

  00256	b8 08 00 00 00	 mov	 eax, 8
  0025b	48 6b c0 01	 imul	 rax, rax, 1
  0025f	48 8b 8c 24 98
	01 00 00	 mov	 rcx, QWORD PTR regs$[rsp]
  00267	48 ba 00 00 00
	00 00 00 80 00	 mov	 rdx, 36028797018963968	; 0080000000000000H
  00271	48 8b 84 01 00
	06 00 00	 mov	 rax, QWORD PTR [rcx+rax+1536]
  00279	48 23 c2	 and	 rax, rdx
  0027c	48 85 c0	 test	 rax, rax
  0027f	0f 85 97 00 00
	00		 jne	 $LN58@z900_trans
$LN13@z900_trans:

; 245  :     {
; 246  :         PTT_TXF( "*TXF end", regs->CR(0), regs->txf_contran, regs->txf_tnd );

  00285	48 8b 05 00 00
	00 00		 mov	 rax, QWORD PTR __imp_pttclass
  0028c	48 8b 00	 mov	 rax, QWORD PTR [rax]
  0028f	48 25 00 04 00
	00		 and	 rax, 1024		; 00000400H
  00295	48 85 c0	 test	 rax, rax
  00298	74 66		 je	 SHORT $LN59@z900_trans
  0029a	48 8b 84 24 98
	01 00 00	 mov	 rax, QWORD PTR regs$[rsp]
  002a2	0f b6 80 58 0e
	00 00		 movzx	 eax, BYTE PTR [rax+3672]
  002a9	48 8b 8c 24 98
	01 00 00	 mov	 rcx, QWORD PTR regs$[rsp]
  002b1	0f b6 89 4c 0e
	00 00		 movzx	 ecx, BYTE PTR [rcx+3660]
  002b8	ba 08 00 00 00	 mov	 edx, 8
  002bd	48 6b d2 01	 imul	 rdx, rdx, 1
  002c1	48 c7 44 24 30
	00 00 00 00	 mov	 QWORD PTR [rsp+48], 0
  002ca	48 89 44 24 28	 mov	 QWORD PTR [rsp+40], rax
  002cf	48 8d 05 00 00
	00 00		 lea	 rax, OFFSET FLAT:$SG192843
  002d6	48 89 44 24 20	 mov	 QWORD PTR [rsp+32], rax
  002db	44 8b c9	 mov	 r9d, ecx
  002de	48 8b 84 24 98
	01 00 00	 mov	 rax, QWORD PTR regs$[rsp]
  002e6	4c 8b 84 10 00
	06 00 00	 mov	 r8, QWORD PTR [rax+rdx+1536]
  002ee	48 8d 15 00 00
	00 00		 lea	 rdx, OFFSET FLAT:$SG192844
  002f5	b9 00 04 00 00	 mov	 ecx, 1024		; 00000400H
  002fa	ff 15 00 00 00
	00		 call	 QWORD PTR __imp_ptt_pthread_trace
$LN59@z900_trans:
  00300	33 c0		 xor	 eax, eax
  00302	85 c0		 test	 eax, eax
  00304	0f 85 7b ff ff
	ff		 jne	 $LN13@z900_trans

; 247  :         ARCH_DEP( program_interrupt )( regs, PGM_SPECIAL_OPERATION_EXCEPTION );

  0030a	ba 13 00 00 00	 mov	 edx, 19
  0030f	48 8b 8c 24 98
	01 00 00	 mov	 rcx, QWORD PTR regs$[rsp]
  00317	e8 00 00 00 00	 call	 z900_program_interrupt
$LN58@z900_trans:

; 248  :         UNREACHABLE_CODE( return );
; 249  :     }
; 250  : 
; 251  :     if (regs->txf_abortctr)

  0031c	48 8b 84 24 98
	01 00 00	 mov	 rax, QWORD PTR regs$[rsp]
  00324	0f b7 80 60 0e
	00 00		 movzx	 eax, WORD PTR [rax+3680]
  0032b	85 c0		 test	 eax, eax
  0032d	0f 84 c2 00 00
	00		 je	 $LN60@z900_trans
$LN16@z900_trans:

; 252  :     {
; 253  :         PTT_TXF( "*TXF end", regs->txf_abortctr, regs->txf_contran, regs->txf_tnd );

  00333	48 8b 05 00 00
	00 00		 mov	 rax, QWORD PTR __imp_pttclass
  0033a	48 8b 00	 mov	 rax, QWORD PTR [rax]
  0033d	48 25 00 04 00
	00		 and	 rax, 1024		; 00000400H
  00343	48 85 c0	 test	 rax, rax
  00346	74 5f		 je	 SHORT $LN61@z900_trans
  00348	48 8b 84 24 98
	01 00 00	 mov	 rax, QWORD PTR regs$[rsp]
  00350	0f b6 80 58 0e
	00 00		 movzx	 eax, BYTE PTR [rax+3672]
  00357	48 8b 8c 24 98
	01 00 00	 mov	 rcx, QWORD PTR regs$[rsp]
  0035f	0f b6 89 4c 0e
	00 00		 movzx	 ecx, BYTE PTR [rcx+3660]
  00366	48 8b 94 24 98
	01 00 00	 mov	 rdx, QWORD PTR regs$[rsp]
  0036e	0f b7 92 60 0e
	00 00		 movzx	 edx, WORD PTR [rdx+3680]
  00375	48 c7 44 24 30
	00 00 00 00	 mov	 QWORD PTR [rsp+48], 0
  0037e	48 89 44 24 28	 mov	 QWORD PTR [rsp+40], rax
  00383	48 8d 05 00 00
	00 00		 lea	 rax, OFFSET FLAT:$SG192847
  0038a	48 89 44 24 20	 mov	 QWORD PTR [rsp+32], rax
  0038f	44 8b c9	 mov	 r9d, ecx
  00392	44 8b c2	 mov	 r8d, edx
  00395	48 8d 15 00 00
	00 00		 lea	 rdx, OFFSET FLAT:$SG192848
  0039c	b9 00 04 00 00	 mov	 ecx, 1024		; 00000400H
  003a1	ff 15 00 00 00
	00		 call	 QWORD PTR __imp_ptt_pthread_trace
$LN61@z900_trans:
  003a7	33 c0		 xor	 eax, eax
  003a9	85 c0		 test	 eax, eax
  003ab	75 86		 jne	 SHORT $LN16@z900_trans

; 254  :         regs->txf_why |= TXF_WHY_RAND_ABORT;

  003ad	48 8b 84 24 98
	01 00 00	 mov	 rax, QWORD PTR regs$[rsp]
  003b5	8b 80 84 af 00
	00		 mov	 eax, DWORD PTR [rax+44932]
  003bb	0f ba e8 1d	 bts	 eax, 29
  003bf	48 8b 8c 24 98
	01 00 00	 mov	 rcx, QWORD PTR regs$[rsp]
  003c7	89 81 84 af 00
	00		 mov	 DWORD PTR [rcx+44932], eax

; 255  :         ABORT_TRANS( regs, ABORT_RETRY_PGMCHK, regs->txf_random_tac );

  003cd	4c 8d 0d 00 00
	00 00		 lea	 r9, OFFSET FLAT:$SG192849
  003d4	48 8b 84 24 98
	01 00 00	 mov	 rax, QWORD PTR regs$[rsp]
  003dc	44 8b 80 0c af
	00 00		 mov	 r8d, DWORD PTR [rax+44812]
  003e3	ba 02 00 00 00	 mov	 edx, 2
  003e8	48 8b 8c 24 98
	01 00 00	 mov	 rcx, QWORD PTR regs$[rsp]
  003f0	e8 00 00 00 00	 call	 z900_abort_transaction
$LN60@z900_trans:

; 256  :         UNREACHABLE_CODE( return );
; 257  :     }
; 258  : 
; 259  :     /* Set condition code based on CURRENT transaction level */
; 260  :     if (!regs->txf_tnd)

  003f5	48 8b 84 24 98
	01 00 00	 mov	 rax, QWORD PTR regs$[rsp]
  003fd	0f b6 80 58 0e
	00 00		 movzx	 eax, BYTE PTR [rax+3672]
  00404	85 c0		 test	 eax, eax
  00406	75 62		 jne	 SHORT $LN62@z900_trans
$LN19@z900_trans:

; 261  :     {
; 262  :         /* Not currently in transactional-execution mode.
; 263  :            Set CC 2 and treat as no-op (i.e. just return
; 264  :            since there is no active transaction to end)
; 265  :         */
; 266  :         PTT_TXF( "*TXF end", 0, 0, 0 );

  00408	48 8b 05 00 00
	00 00		 mov	 rax, QWORD PTR __imp_pttclass
  0040f	48 8b 00	 mov	 rax, QWORD PTR [rax]
  00412	48 25 00 04 00
	00		 and	 rax, 1024		; 00000400H
  00418	48 85 c0	 test	 rax, rax
  0041b	74 36		 je	 SHORT $LN63@z900_trans
  0041d	48 c7 44 24 30
	00 00 00 00	 mov	 QWORD PTR [rsp+48], 0
  00426	48 c7 44 24 28
	00 00 00 00	 mov	 QWORD PTR [rsp+40], 0
  0042f	48 8d 05 00 00
	00 00		 lea	 rax, OFFSET FLAT:$SG192852
  00436	48 89 44 24 20	 mov	 QWORD PTR [rsp+32], rax
  0043b	45 33 c9	 xor	 r9d, r9d
  0043e	45 33 c0	 xor	 r8d, r8d
  00441	48 8d 15 00 00
	00 00		 lea	 rdx, OFFSET FLAT:$SG192853
  00448	b9 00 04 00 00	 mov	 ecx, 1024		; 00000400H
  0044d	ff 15 00 00 00
	00		 call	 QWORD PTR __imp_ptt_pthread_trace
$LN63@z900_trans:
  00453	33 c0		 xor	 eax, eax
  00455	85 c0		 test	 eax, eax
  00457	75 af		 jne	 SHORT $LN19@z900_trans

; 267  :         regs->psw.cc = 2;   /* CPU wasn't in transaction mode */

  00459	48 8b 84 24 98
	01 00 00	 mov	 rax, QWORD PTR regs$[rsp]
  00461	c6 40 7c 02	 mov	 BYTE PTR [rax+124], 2

; 268  :         return;             /* Nothing to do. Just return. */

  00465	e9 e9 18 00 00	 jmp	 $LN1@z900_trans
$LN62@z900_trans:

; 269  :     }
; 270  : 
; 271  :     /* CPU was in transaction-execution mode at start of operation */
; 272  :     regs->psw.cc = 0;

  0046a	48 8b 84 24 98
	01 00 00	 mov	 rax, QWORD PTR regs$[rsp]
  00472	c6 40 7c 00	 mov	 BYTE PTR [rax+124], 0

; 273  : 
; 274  :     /*-----------------------------------------------------*/
; 275  :     /*  Serialize TEND processing by obtaining INTLOCK     */
; 276  :     /*  and synchronizing the CPUS.                        */
; 277  :     /*-----------------------------------------------------*/
; 278  :     OBTAIN_INTLOCK( regs );

  00476	48 8d 15 00 00
	00 00		 lea	 rdx, OFFSET FLAT:$SG192854
  0047d	48 8b 8c 24 98
	01 00 00	 mov	 rcx, QWORD PTR regs$[rsp]
  00485	e8 00 00 00 00	 call	 Obtain_Interrupt_Lock

; 279  :     {
; 280  :         bool   txf_contran;      /* (saved original value) */
; 281  :         U16    txf_abortctr;     /* (saved original value) */
; 282  :         BYTE*  txf_aie;          /* (saved original value) */
; 283  :         U64    txf_aie_aiv;      /* (saved original value) */
; 284  :         U64    txf_aie_aiv2;     /* (saved original value) */
; 285  :         int    txf_aie_off2;     /* (saved original value) */
; 286  :         BYTE   refchg;           /* (storagekey work flag) */
; 287  : 
; 288  :         SYNCHRONIZE_CPUS( regs );

  0048a	48 8d 15 00 00
	00 00		 lea	 rdx, OFFSET FLAT:$SG192855
  00491	48 8b 8c 24 98
	01 00 00	 mov	 rcx, QWORD PTR regs$[rsp]
  00499	e8 00 00 00 00	 call	 synchronize_cpus

; 289  : 
; 290  :         OBTAIN_TXFLOCK( regs );

  0049e	48 8b 84 24 98
	01 00 00	 mov	 rax, QWORD PTR regs$[rsp]
  004a6	0f b7 80 3c 08
	00 00		 movzx	 eax, WORD PTR [rax+2108]
  004ad	48 8b 0d 00 00
	00 00		 mov	 rcx, QWORD PTR __imp_sysblk
  004b4	48 8d 84 c1 48
	03 00 00	 lea	 rax, QWORD PTR [rcx+rax*8+840]
  004bc	48 8d 15 00 00
	00 00		 lea	 rdx, OFFSET FLAT:$SG192856
  004c3	48 8b c8	 mov	 rcx, rax
  004c6	ff 15 00 00 00
	00		 call	 QWORD PTR __imp_hthread_obtain_lock

; 291  :         {
; 292  :             regs->txf_tnd--;

  004cc	48 8b 84 24 98
	01 00 00	 mov	 rax, QWORD PTR regs$[rsp]
  004d4	0f b6 80 58 0e
	00 00		 movzx	 eax, BYTE PTR [rax+3672]
  004db	fe c8		 dec	 al
  004dd	48 8b 8c 24 98
	01 00 00	 mov	 rcx, QWORD PTR regs$[rsp]
  004e5	88 81 58 0e 00
	00		 mov	 BYTE PTR [rcx+3672], al

; 293  : 
; 294  :             txf_tnd = regs->txf_tnd;

  004eb	48 8b 84 24 98
	01 00 00	 mov	 rax, QWORD PTR regs$[rsp]
  004f3	0f b6 80 58 0e
	00 00		 movzx	 eax, BYTE PTR [rax+3672]
  004fa	89 44 24 7c	 mov	 DWORD PTR txf_tnd$[rsp], eax

; 295  :             txf_tac = regs->txf_tac;

  004fe	48 8b 84 24 98
	01 00 00	 mov	 rax, QWORD PTR regs$[rsp]
  00506	8b 80 08 af 00
	00		 mov	 eax, DWORD PTR [rax+44808]
  0050c	89 84 24 84 00
	00 00		 mov	 DWORD PTR txf_tac$[rsp], eax

; 296  :         }
; 297  :         RELEASE_TXFLOCK( regs );

  00513	48 8b 84 24 98
	01 00 00	 mov	 rax, QWORD PTR regs$[rsp]
  0051b	0f b7 80 3c 08
	00 00		 movzx	 eax, WORD PTR [rax+2108]
  00522	48 8b 0d 00 00
	00 00		 mov	 rcx, QWORD PTR __imp_sysblk
  00529	48 8d 84 c1 48
	03 00 00	 lea	 rax, QWORD PTR [rcx+rax*8+840]
  00531	48 8d 15 00 00
	00 00		 lea	 rdx, OFFSET FLAT:$SG192857
  00538	48 8b c8	 mov	 rcx, rax
  0053b	ff 15 00 00 00
	00		 call	 QWORD PTR __imp_hthread_release_lock
$LN22@z900_trans:

; 298  : 
; 299  :         TXF_TRACE_INIT( regs );

  00541	48 8b 84 24 98
	01 00 00	 mov	 rax, QWORD PTR regs$[rsp]
  00549	48 8b 8c 24 98
	01 00 00	 mov	 rcx, QWORD PTR regs$[rsp]
  00551	8b 89 84 af 00
	00		 mov	 ecx, DWORD PTR [rcx+44932]
  00557	89 88 ac af 00
	00		 mov	 DWORD PTR [rax+44972], ecx
  0055d	48 8b 84 24 98
	01 00 00	 mov	 rax, QWORD PTR regs$[rsp]
  00565	0f bf 80 3c 08
	00 00		 movsx	 eax, WORD PTR [rax+2108]
  0056c	48 8b 8c 24 98
	01 00 00	 mov	 rcx, QWORD PTR regs$[rsp]
  00574	89 81 b0 af 00
	00		 mov	 DWORD PTR [rcx+44976], eax
  0057a	48 8b 84 24 98
	01 00 00	 mov	 rax, QWORD PTR regs$[rsp]
  00582	0f b6 80 58 0e
	00 00		 movzx	 eax, BYTE PTR [rax+3672]
  00589	48 8b 8c 24 98
	01 00 00	 mov	 rcx, QWORD PTR regs$[rsp]
  00591	89 81 b4 af 00
	00		 mov	 DWORD PTR [rcx+44980], eax
  00597	48 8b 84 24 98
	01 00 00	 mov	 rax, QWORD PTR regs$[rsp]
  0059f	48 8b 8c 24 98
	01 00 00	 mov	 rcx, QWORD PTR regs$[rsp]
  005a7	8b 89 08 af 00
	00		 mov	 ecx, DWORD PTR [rcx+44808]
  005ad	89 88 b8 af 00
	00		 mov	 DWORD PTR [rax+44984], ecx
  005b3	48 8b 84 24 98
	01 00 00	 mov	 rax, QWORD PTR regs$[rsp]
  005bb	48 8b 8c 24 98
	01 00 00	 mov	 rcx, QWORD PTR regs$[rsp]
  005c3	8b 89 50 0e 00
	00		 mov	 ecx, DWORD PTR [rcx+3664]
  005c9	89 88 bc af 00
	00		 mov	 DWORD PTR [rax+44988], ecx
  005cf	33 c0		 xor	 eax, eax
  005d1	85 c0		 test	 eax, eax
  005d3	0f 85 68 ff ff
	ff		 jne	 $LN22@z900_trans

; 300  : 
; 301  :         /* Still in transaction-execution mode? */
; 302  :         if (txf_tnd)

  005d9	83 7c 24 7c 00	 cmp	 DWORD PTR txf_tnd$[rsp], 0
  005de	0f 84 3e 05 00
	00		 je	 $LN64@z900_trans

; 303  :         {
; 304  :             /*---------------------------------------------------------*/
; 305  :             /* Abort transaction if abort code already set by someone. */
; 306  :             /*---------------------------------------------------------*/
; 307  :             if (txf_tac)

  005e4	83 bc 24 84 00
	00 00 00	 cmp	 DWORD PTR txf_tac$[rsp], 0
  005ec	0f 84 aa 00 00
	00		 je	 $LN65@z900_trans
$LN25@z900_trans:

; 308  :             {
; 309  :                 PTT_TXF( "*TXF end", txf_tac, regs->txf_contran, txf_tnd );

  005f2	48 8b 05 00 00
	00 00		 mov	 rax, QWORD PTR __imp_pttclass
  005f9	48 8b 00	 mov	 rax, QWORD PTR [rax]
  005fc	48 25 00 04 00
	00		 and	 rax, 1024		; 00000400H
  00602	48 85 c0	 test	 rax, rax
  00605	74 4e		 je	 SHORT $LN66@z900_trans
  00607	48 63 44 24 7c	 movsxd	 rax, DWORD PTR txf_tnd$[rsp]
  0060c	48 8b 8c 24 98
	01 00 00	 mov	 rcx, QWORD PTR regs$[rsp]
  00614	0f b6 89 4c 0e
	00 00		 movzx	 ecx, BYTE PTR [rcx+3660]
  0061b	48 63 94 24 84
	00 00 00	 movsxd	 rdx, DWORD PTR txf_tac$[rsp]
  00623	48 c7 44 24 30
	00 00 00 00	 mov	 QWORD PTR [rsp+48], 0
  0062c	48 89 44 24 28	 mov	 QWORD PTR [rsp+40], rax
  00631	48 8d 05 00 00
	00 00		 lea	 rax, OFFSET FLAT:$SG192861
  00638	48 89 44 24 20	 mov	 QWORD PTR [rsp+32], rax
  0063d	44 8b c9	 mov	 r9d, ecx
  00640	4c 8b c2	 mov	 r8, rdx
  00643	48 8d 15 00 00
	00 00		 lea	 rdx, OFFSET FLAT:$SG192862
  0064a	b9 00 04 00 00	 mov	 ecx, 1024		; 00000400H
  0064f	ff 15 00 00 00
	00		 call	 QWORD PTR __imp_ptt_pthread_trace
$LN66@z900_trans:
  00655	33 c0		 xor	 eax, eax
  00657	85 c0		 test	 eax, eax
  00659	75 97		 jne	 SHORT $LN25@z900_trans

; 310  :                 regs->txf_why |= TXF_WHY_DELAYED_ABORT;

  0065b	48 8b 84 24 98
	01 00 00	 mov	 rax, QWORD PTR regs$[rsp]
  00663	8b 80 84 af 00
	00		 mov	 eax, DWORD PTR [rax+44932]
  00669	0f ba e8 11	 bts	 eax, 17
  0066d	48 8b 8c 24 98
	01 00 00	 mov	 rcx, QWORD PTR regs$[rsp]
  00675	89 81 84 af 00
	00		 mov	 DWORD PTR [rcx+44932], eax

; 311  :                 ABORT_TRANS( regs, ABORT_RETRY_CC, txf_tac );

  0067b	4c 8d 0d 00 00
	00 00		 lea	 r9, OFFSET FLAT:$SG192863
  00682	44 8b 84 24 84
	00 00 00	 mov	 r8d, DWORD PTR txf_tac$[rsp]
  0068a	ba 01 00 00 00	 mov	 edx, 1
  0068f	48 8b 8c 24 98
	01 00 00	 mov	 rcx, QWORD PTR regs$[rsp]
  00697	e8 00 00 00 00	 call	 z900_abort_transaction
$LN65@z900_trans:

; 312  :                 UNREACHABLE_CODE( return );
; 313  :             }
; 314  : 
; 315  :             /*--------------------------------------------*/
; 316  :             /*           NESTED TRANSACTION END           */
; 317  :             /*--------------------------------------------*/
; 318  : 
; 319  :             if (TXF_TRACE( regs, SUCCESS, regs->txf_contran ))

  0069c	33 c0		 xor	 eax, eax
  0069e	83 f8 01	 cmp	 eax, 1
  006a1	0f 84 48 03 00
	00		 je	 $LN67@z900_trans
  006a7	48 8b 05 00 00
	00 00		 mov	 rax, QWORD PTR __imp_sysblk
  006ae	8b 80 4c 05 00
	00		 mov	 eax, DWORD PTR [rax+1356]
  006b4	25 00 00 80 00	 and	 eax, 8388608		; 00800000H
  006b9	85 c0		 test	 eax, eax
  006bb	0f 84 2e 03 00
	00		 je	 $LN67@z900_trans
  006c1	33 c0		 xor	 eax, eax
  006c3	83 f8 01	 cmp	 eax, 1
  006c6	0f 84 23 03 00
	00		 je	 $LN67@z900_trans
  006cc	33 c0		 xor	 eax, eax
  006ce	85 c0		 test	 eax, eax
  006d0	75 37		 jne	 SHORT $LN68@z900_trans
  006d2	48 8b 05 00 00
	00 00		 mov	 rax, QWORD PTR __imp_sysblk
  006d9	8b 80 4c 05 00
	00		 mov	 eax, DWORD PTR [rax+1356]
  006df	25 00 00 04 00	 and	 eax, 262144		; 00040000H
  006e4	85 c0		 test	 eax, eax
  006e6	74 21		 je	 SHORT $LN68@z900_trans
  006e8	48 8b 84 24 98
	01 00 00	 mov	 rax, QWORD PTR regs$[rsp]
  006f0	48 8b 0d 00 00
	00 00		 mov	 rcx, QWORD PTR __imp_sysblk
  006f7	8b 89 60 05 00
	00		 mov	 ecx, DWORD PTR [rcx+1376]
  006fd	39 88 b0 af 00
	00		 cmp	 DWORD PTR [rax+44976], ecx
  00703	0f 85 e6 02 00
	00		 jne	 $LN67@z900_trans
$LN68@z900_trans:
  00709	33 c0		 xor	 eax, eax
  0070b	85 c0		 test	 eax, eax
  0070d	75 37		 jne	 SHORT $LN69@z900_trans
  0070f	48 8b 05 00 00
	00 00		 mov	 rax, QWORD PTR __imp_sysblk
  00716	8b 80 4c 05 00
	00		 mov	 eax, DWORD PTR [rax+1356]
  0071c	25 00 00 08 00	 and	 eax, 524288		; 00080000H
  00721	85 c0		 test	 eax, eax
  00723	74 21		 je	 SHORT $LN69@z900_trans
  00725	48 8b 84 24 98
	01 00 00	 mov	 rax, QWORD PTR regs$[rsp]
  0072d	48 8b 0d 00 00
	00 00		 mov	 rcx, QWORD PTR __imp_sysblk
  00734	8b 89 58 05 00
	00		 mov	 ecx, DWORD PTR [rcx+1368]
  0073a	39 88 b4 af 00
	00		 cmp	 DWORD PTR [rax+44980], ecx
  00740	0f 8c a9 02 00
	00		 jl	 $LN67@z900_trans
$LN69@z900_trans:
  00746	33 c0		 xor	 eax, eax
  00748	85 c0		 test	 eax, eax
  0074a	75 73		 jne	 SHORT $LN70@z900_trans
  0074c	48 8b 05 00 00
	00 00		 mov	 rax, QWORD PTR __imp_sysblk
  00753	8b 80 4c 05 00
	00		 mov	 eax, DWORD PTR [rax+1356]
  00759	25 00 00 00 0c	 and	 eax, 201326592		; 0c000000H
  0075e	3d 00 00 00 0c	 cmp	 eax, 201326592		; 0c000000H
  00763	74 5a		 je	 SHORT $LN70@z900_trans
  00765	48 8b 05 00 00
	00 00		 mov	 rax, QWORD PTR __imp_sysblk
  0076c	8b 80 4c 05 00
	00		 mov	 eax, DWORD PTR [rax+1356]
  00772	25 00 00 00 08	 and	 eax, 134217728		; 08000000H
  00777	85 c0		 test	 eax, eax
  00779	74 13		 je	 SHORT $LN71@z900_trans
  0077b	48 8b 84 24 98
	01 00 00	 mov	 rax, QWORD PTR regs$[rsp]
  00783	0f b6 80 4c 0e
	00 00		 movzx	 eax, BYTE PTR [rax+3660]
  0078a	85 c0		 test	 eax, eax
  0078c	75 31		 jne	 SHORT $LN70@z900_trans
$LN71@z900_trans:
  0078e	48 8b 05 00 00
	00 00		 mov	 rax, QWORD PTR __imp_sysblk
  00795	8b 80 4c 05 00
	00		 mov	 eax, DWORD PTR [rax+1356]
  0079b	25 00 00 00 04	 and	 eax, 67108864		; 04000000H
  007a0	85 c0		 test	 eax, eax
  007a2	0f 84 47 02 00
	00		 je	 $LN67@z900_trans
  007a8	48 8b 84 24 98
	01 00 00	 mov	 rax, QWORD PTR regs$[rsp]
  007b0	0f b6 80 4c 0e
	00 00		 movzx	 eax, BYTE PTR [rax+3660]
  007b7	85 c0		 test	 eax, eax
  007b9	0f 85 30 02 00
	00		 jne	 $LN67@z900_trans
$LN70@z900_trans:
  007bf	33 c0		 xor	 eax, eax
  007c1	85 c0		 test	 eax, eax
  007c3	0f 85 e0 00 00
	00		 jne	 $LN72@z900_trans
  007c9	48 8b 05 00 00
	00 00		 mov	 rax, QWORD PTR __imp_sysblk
  007d0	8b 80 4c 05 00
	00		 mov	 eax, DWORD PTR [rax+1356]
  007d6	25 00 00 40 00	 and	 eax, 4194304		; 00400000H
  007db	85 c0		 test	 eax, eax
  007dd	0f 84 c6 00 00
	00		 je	 $LN72@z900_trans
  007e3	33 c0		 xor	 eax, eax
  007e5	83 f8 01	 cmp	 eax, 1
  007e8	0f 84 01 02 00
	00		 je	 $LN67@z900_trans
  007ee	33 c0		 xor	 eax, eax
  007f0	85 c0		 test	 eax, eax
  007f2	75 3b		 jne	 SHORT $LN73@z900_trans
  007f4	48 8b 05 00 00
	00 00		 mov	 rax, QWORD PTR __imp_sysblk
  007fb	8b 80 4c 05 00
	00		 mov	 eax, DWORD PTR [rax+1356]
  00801	25 00 00 20 00	 and	 eax, 2097152		; 00200000H
  00806	85 c0		 test	 eax, eax
  00808	74 25		 je	 SHORT $LN73@z900_trans
  0080a	48 8b 84 24 98
	01 00 00	 mov	 rax, QWORD PTR regs$[rsp]
  00812	48 8b 0d 00 00
	00 00		 mov	 rcx, QWORD PTR __imp_sysblk
  00819	8b 89 50 05 00
	00		 mov	 ecx, DWORD PTR [rcx+1360]
  0081f	8b 80 ac af 00
	00		 mov	 eax, DWORD PTR [rax+44972]
  00825	23 c1		 and	 eax, ecx
  00827	85 c0		 test	 eax, eax
  00829	0f 84 c0 01 00
	00		 je	 $LN67@z900_trans
$LN73@z900_trans:
  0082f	33 c0		 xor	 eax, eax
  00831	85 c0		 test	 eax, eax
  00833	75 37		 jne	 SHORT $LN74@z900_trans
  00835	48 8b 05 00 00
	00 00		 mov	 rax, QWORD PTR __imp_sysblk
  0083c	8b 80 4c 05 00
	00		 mov	 eax, DWORD PTR [rax+1356]
  00842	25 00 00 10 00	 and	 eax, 1048576		; 00100000H
  00847	85 c0		 test	 eax, eax
  00849	74 21		 je	 SHORT $LN74@z900_trans
  0084b	48 8b 84 24 98
	01 00 00	 mov	 rax, QWORD PTR regs$[rsp]
  00853	48 8b 0d 00 00
	00 00		 mov	 rcx, QWORD PTR __imp_sysblk
  0085a	8b 89 54 05 00
	00		 mov	 ecx, DWORD PTR [rcx+1364]
  00860	39 88 b8 af 00
	00		 cmp	 DWORD PTR [rax+44984], ecx
  00866	0f 85 83 01 00
	00		 jne	 $LN67@z900_trans
$LN74@z900_trans:
  0086c	33 c0		 xor	 eax, eax
  0086e	85 c0		 test	 eax, eax
  00870	75 37		 jne	 SHORT $LN75@z900_trans
  00872	48 8b 05 00 00
	00 00		 mov	 rax, QWORD PTR __imp_sysblk
  00879	8b 80 4c 05 00
	00		 mov	 eax, DWORD PTR [rax+1356]
  0087f	25 00 00 02 00	 and	 eax, 131072		; 00020000H
  00884	85 c0		 test	 eax, eax
  00886	74 21		 je	 SHORT $LN75@z900_trans
  00888	48 8b 84 24 98
	01 00 00	 mov	 rax, QWORD PTR regs$[rsp]
  00890	48 8b 0d 00 00
	00 00		 mov	 rcx, QWORD PTR __imp_sysblk
  00897	8b 89 5c 05 00
	00		 mov	 ecx, DWORD PTR [rcx+1372]
  0089d	39 88 bc af 00
	00		 cmp	 DWORD PTR [rax+44988], ecx
  008a3	0f 8c 46 01 00
	00		 jl	 $LN67@z900_trans
$LN75@z900_trans:
$LN72@z900_trans:

; 320  :             {
; 321  :                 // "TXF: %s%02X: %sSuccessful %s Nested TEND for TND %d => %d"
; 322  :                 WRMSG( HHC17700, "D", TXF_CPUAD( regs ), TXF_QSIE( regs ),

  008a9	48 8b 84 24 98
	01 00 00	 mov	 rax, QWORD PTR regs$[rsp]
  008b1	0f b6 80 4c 0e
	00 00		 movzx	 eax, BYTE PTR [rax+3660]
  008b8	85 c0		 test	 eax, eax
  008ba	74 11		 je	 SHORT $LN121@z900_trans
  008bc	48 8d 05 00 00
	00 00		 lea	 rax, OFFSET FLAT:$SG192873
  008c3	48 89 84 24 e0
	00 00 00	 mov	 QWORD PTR tv361[rsp], rax
  008cb	eb 0f		 jmp	 SHORT $LN122@z900_trans
$LN121@z900_trans:
  008cd	48 8d 05 00 00
	00 00		 lea	 rax, OFFSET FLAT:$SG192874
  008d4	48 89 84 24 e0
	00 00 00	 mov	 QWORD PTR tv361[rsp], rax
$LN122@z900_trans:
  008dc	48 8b 84 24 98
	01 00 00	 mov	 rax, QWORD PTR regs$[rsp]
  008e4	8b 80 c8 08 00
	00		 mov	 eax, DWORD PTR [rax+2248]
  008ea	d1 e8		 shr	 eax, 1
  008ec	83 e0 01	 and	 eax, 1
  008ef	85 c0		 test	 eax, eax
  008f1	74 11		 je	 SHORT $LN123@z900_trans
  008f3	48 8d 05 00 00
	00 00		 lea	 rax, OFFSET FLAT:$SG192875
  008fa	48 89 84 24 e8
	00 00 00	 mov	 QWORD PTR tv367[rsp], rax
  00902	eb 0f		 jmp	 SHORT $LN124@z900_trans
$LN123@z900_trans:
  00904	48 8d 05 00 00
	00 00		 lea	 rax, OFFSET FLAT:$SG192876
  0090b	48 89 84 24 e8
	00 00 00	 mov	 QWORD PTR tv367[rsp], rax
$LN124@z900_trans:
  00913	8b 44 24 7c	 mov	 eax, DWORD PTR txf_tnd$[rsp]
  00917	ff c0		 inc	 eax
  00919	89 84 24 d4 00
	00 00		 mov	 DWORD PTR tv356[rsp], eax
  00920	48 8b 8c 24 98
	01 00 00	 mov	 rcx, QWORD PTR regs$[rsp]
  00928	0f b7 89 3c 08
	00 00		 movzx	 ecx, WORD PTR [rcx+2108]
  0092f	89 8c 24 b8 00
	00 00		 mov	 DWORD PTR tv370[rsp], ecx
  00936	48 8b 94 24 98
	01 00 00	 mov	 rdx, QWORD PTR regs$[rsp]
  0093e	0f b7 92 3c 08
	00 00		 movzx	 edx, WORD PTR [rdx+2108]
  00945	4c 8b 05 00 00
	00 00		 mov	 r8, QWORD PTR __imp_sysblk
  0094c	41 0f b6 8c 10
	48 0b 00 00	 movzx	 ecx, BYTE PTR [r8+rdx+2888]
  00955	ff 15 00 00 00
	00		 call	 QWORD PTR __imp_ptyp2short
  0095b	48 89 84 24 28
	01 00 00	 mov	 QWORD PTR tv372[rsp], rax
  00963	b9 01 00 00 00	 mov	 ecx, 1
  00968	ff 15 00 00 00
	00		 call	 QWORD PTR __imp___acrt_iob_func
  0096e	8b 4c 24 7c	 mov	 ecx, DWORD PTR txf_tnd$[rsp]
  00972	89 4c 24 60	 mov	 DWORD PTR [rsp+96], ecx
  00976	8b 8c 24 d4 00
	00 00		 mov	 ecx, DWORD PTR tv356[rsp]
  0097d	89 4c 24 58	 mov	 DWORD PTR [rsp+88], ecx
  00981	48 8b 8c 24 e0
	00 00 00	 mov	 rcx, QWORD PTR tv361[rsp]
  00989	48 89 4c 24 50	 mov	 QWORD PTR [rsp+80], rcx
  0098e	48 8b 8c 24 e8
	00 00 00	 mov	 rcx, QWORD PTR tv367[rsp]
  00996	48 89 4c 24 48	 mov	 QWORD PTR [rsp+72], rcx
  0099b	8b 8c 24 b8 00
	00 00		 mov	 ecx, DWORD PTR tv370[rsp]
  009a2	89 4c 24 40	 mov	 DWORD PTR [rsp+64], ecx
  009a6	48 8b 8c 24 28
	01 00 00	 mov	 rcx, QWORD PTR tv372[rsp]
  009ae	48 89 4c 24 38	 mov	 QWORD PTR [rsp+56], rcx
  009b3	48 8d 0d 00 00
	00 00		 lea	 rcx, OFFSET FLAT:$SG192877
  009ba	48 89 4c 24 30	 mov	 QWORD PTR [rsp+48], rcx
  009bf	48 8d 0d 00 00
	00 00		 lea	 rcx, OFFSET FLAT:$SG192878
  009c6	48 89 4c 24 28	 mov	 QWORD PTR [rsp+40], rcx
  009cb	48 89 44 24 20	 mov	 QWORD PTR [rsp+32], rax
  009d0	41 b9 03 00 00
	00		 mov	 r9d, 3
  009d6	4c 8d 05 00 00
	00 00		 lea	 r8, OFFSET FLAT:$SG192879
  009dd	ba 43 01 00 00	 mov	 edx, 323		; 00000143H
  009e2	48 8d 0d 00 00
	00 00		 lea	 rcx, OFFSET FLAT:$SG192880
  009e9	ff 15 00 00 00
	00		 call	 QWORD PTR __imp_fwritemsg
$LN67@z900_trans:

; 323  :                     TXF_CONSTRAINED( regs->txf_contran ), txf_tnd + 1, txf_tnd );
; 324  :             }
; 325  : 
; 326  :             /* If we're now at or below the highest nesting level
; 327  :                that allowed AR changes or float instructions, then
; 328  :                enable (set) the corresponding control flag.
; 329  :                Otherwise leave it alone (should already be off).
; 330  :             */
; 331  :             if (txf_tnd <= regs->txf_higharchange)

  009ef	48 8b 84 24 98
	01 00 00	 mov	 rax, QWORD PTR regs$[rsp]
  009f7	0f b7 80 5a 0e
	00 00		 movzx	 eax, WORD PTR [rax+3674]
  009fe	39 44 24 7c	 cmp	 DWORD PTR txf_tnd$[rsp], eax
  00a02	7f 34		 jg	 SHORT $LN76@z900_trans

; 332  :             {
; 333  :                 regs->txf_higharchange = txf_tnd;

  00a04	48 8b 84 24 98
	01 00 00	 mov	 rax, QWORD PTR regs$[rsp]
  00a0c	0f b7 4c 24 7c	 movzx	 ecx, WORD PTR txf_tnd$[rsp]
  00a11	66 89 88 5a 0e
	00 00		 mov	 WORD PTR [rax+3674], cx

; 334  :                 regs->txf_ctlflag |= TXF_CTL_AR;

  00a18	48 8b 84 24 98
	01 00 00	 mov	 rax, QWORD PTR regs$[rsp]
  00a20	0f b6 80 59 0e
	00 00		 movzx	 eax, BYTE PTR [rax+3673]
  00a27	83 c8 08	 or	 eax, 8
  00a2a	48 8b 8c 24 98
	01 00 00	 mov	 rcx, QWORD PTR regs$[rsp]
  00a32	88 81 59 0e 00
	00		 mov	 BYTE PTR [rcx+3673], al
$LN76@z900_trans:

; 335  :             }
; 336  : 
; 337  :             if (txf_tnd <= regs->txf_highfloat)

  00a38	48 8b 84 24 98
	01 00 00	 mov	 rax, QWORD PTR regs$[rsp]
  00a40	0f b7 80 5c 0e
	00 00		 movzx	 eax, WORD PTR [rax+3676]
  00a47	39 44 24 7c	 cmp	 DWORD PTR txf_tnd$[rsp], eax
  00a4b	7f 34		 jg	 SHORT $LN77@z900_trans

; 338  :             {
; 339  :                 regs->txf_highfloat = txf_tnd;

  00a4d	48 8b 84 24 98
	01 00 00	 mov	 rax, QWORD PTR regs$[rsp]
  00a55	0f b7 4c 24 7c	 movzx	 ecx, WORD PTR txf_tnd$[rsp]
  00a5a	66 89 88 5c 0e
	00 00		 mov	 WORD PTR [rax+3676], cx

; 340  :                 regs->txf_ctlflag |= TXF_CTL_FLOAT;

  00a61	48 8b 84 24 98
	01 00 00	 mov	 rax, QWORD PTR regs$[rsp]
  00a69	0f b6 80 59 0e
	00 00		 movzx	 eax, BYTE PTR [rax+3673]
  00a70	83 c8 04	 or	 eax, 4
  00a73	48 8b 8c 24 98
	01 00 00	 mov	 rcx, QWORD PTR regs$[rsp]
  00a7b	88 81 59 0e 00
	00		 mov	 BYTE PTR [rcx+3673], al
$LN77@z900_trans:

; 341  :             }
; 342  : 
; 343  :             /* Set PIFC for this nesting level */
; 344  :             regs->txf_pifc = regs->txf_pifctab[ txf_tnd - 1 ];

  00a81	8b 44 24 7c	 mov	 eax, DWORD PTR txf_tnd$[rsp]
  00a85	ff c8		 dec	 eax
  00a87	48 98		 cdqe
  00a89	48 8b 8c 24 98
	01 00 00	 mov	 rcx, QWORD PTR regs$[rsp]
  00a91	48 8b 94 24 98
	01 00 00	 mov	 rdx, QWORD PTR regs$[rsp]
  00a99	0f b7 84 42 8c
	af 00 00	 movzx	 eax, WORD PTR [rdx+rax*2+44940]
  00aa1	66 89 81 62 0e
	00 00		 mov	 WORD PTR [rcx+3682], ax
$LN28@z900_trans:

; 345  : 
; 346  :             /* Remain in transactional-execution mode */
; 347  :             PTT_TXF( "TXF end", 0, regs->txf_contran, txf_tnd );

  00aa8	48 8b 05 00 00
	00 00		 mov	 rax, QWORD PTR __imp_pttclass
  00aaf	48 8b 00	 mov	 rax, QWORD PTR [rax]
  00ab2	48 25 00 04 00
	00		 and	 rax, 1024		; 00000400H
  00ab8	48 85 c0	 test	 rax, rax
  00abb	74 46		 je	 SHORT $LN78@z900_trans
  00abd	48 63 44 24 7c	 movsxd	 rax, DWORD PTR txf_tnd$[rsp]
  00ac2	48 8b 8c 24 98
	01 00 00	 mov	 rcx, QWORD PTR regs$[rsp]
  00aca	0f b6 89 4c 0e
	00 00		 movzx	 ecx, BYTE PTR [rcx+3660]
  00ad1	48 c7 44 24 30
	00 00 00 00	 mov	 QWORD PTR [rsp+48], 0
  00ada	48 89 44 24 28	 mov	 QWORD PTR [rsp+40], rax
  00adf	48 8d 05 00 00
	00 00		 lea	 rax, OFFSET FLAT:$SG192884
  00ae6	48 89 44 24 20	 mov	 QWORD PTR [rsp+32], rax
  00aeb	44 8b c9	 mov	 r9d, ecx
  00aee	45 33 c0	 xor	 r8d, r8d
  00af1	48 8d 15 00 00
	00 00		 lea	 rdx, OFFSET FLAT:$SG192885
  00af8	b9 00 04 00 00	 mov	 ecx, 1024		; 00000400H
  00afd	ff 15 00 00 00
	00		 call	 QWORD PTR __imp_ptt_pthread_trace
$LN78@z900_trans:
  00b03	33 c0		 xor	 eax, eax
  00b05	85 c0		 test	 eax, eax
  00b07	75 9f		 jne	 SHORT $LN28@z900_trans

; 348  :             RELEASE_INTLOCK( regs );

  00b09	48 8d 15 00 00
	00 00		 lea	 rdx, OFFSET FLAT:$SG192886
  00b10	48 8b 8c 24 98
	01 00 00	 mov	 rcx, QWORD PTR regs$[rsp]
  00b18	e8 00 00 00 00	 call	 Release_Interrupt_Lock

; 349  :             return;

  00b1d	e9 31 12 00 00	 jmp	 $LN1@z900_trans
$LN64@z900_trans:

; 350  :         }
; 351  : 
; 352  :         /*---------------------------------------------------------*/
; 353  :         /*         THE OUTERMOST TRANSACTION HAS ENDED             */
; 354  :         /*---------------------------------------------------------*/
; 355  : 
; 356  :         /*---------------------------------------------------------*/
; 357  :         /* Abort transaction if abort code already set by someone. */
; 358  :         /*---------------------------------------------------------*/
; 359  :         if (txf_tac)

  00b22	83 bc 24 84 00
	00 00 00	 cmp	 DWORD PTR txf_tac$[rsp], 0
  00b2a	0f 84 c9 00 00
	00		 je	 $LN79@z900_trans
$LN31@z900_trans:

; 360  :         {
; 361  :             PTT_TXF( "*TXF end", txf_tac, regs->txf_contran, txf_tnd );

  00b30	48 8b 05 00 00
	00 00		 mov	 rax, QWORD PTR __imp_pttclass
  00b37	48 8b 00	 mov	 rax, QWORD PTR [rax]
  00b3a	48 25 00 04 00
	00		 and	 rax, 1024		; 00000400H
  00b40	48 85 c0	 test	 rax, rax
  00b43	74 4e		 je	 SHORT $LN80@z900_trans
  00b45	48 63 44 24 7c	 movsxd	 rax, DWORD PTR txf_tnd$[rsp]
  00b4a	48 8b 8c 24 98
	01 00 00	 mov	 rcx, QWORD PTR regs$[rsp]
  00b52	0f b6 89 4c 0e
	00 00		 movzx	 ecx, BYTE PTR [rcx+3660]
  00b59	48 63 94 24 84
	00 00 00	 movsxd	 rdx, DWORD PTR txf_tac$[rsp]
  00b61	48 c7 44 24 30
	00 00 00 00	 mov	 QWORD PTR [rsp+48], 0
  00b6a	48 89 44 24 28	 mov	 QWORD PTR [rsp+40], rax
  00b6f	48 8d 05 00 00
	00 00		 lea	 rax, OFFSET FLAT:$SG192889
  00b76	48 89 44 24 20	 mov	 QWORD PTR [rsp+32], rax
  00b7b	44 8b c9	 mov	 r9d, ecx
  00b7e	4c 8b c2	 mov	 r8, rdx
  00b81	48 8d 15 00 00
	00 00		 lea	 rdx, OFFSET FLAT:$SG192890
  00b88	b9 00 04 00 00	 mov	 ecx, 1024		; 00000400H
  00b8d	ff 15 00 00 00
	00		 call	 QWORD PTR __imp_ptt_pthread_trace
$LN80@z900_trans:
  00b93	33 c0		 xor	 eax, eax
  00b95	85 c0		 test	 eax, eax
  00b97	75 97		 jne	 SHORT $LN31@z900_trans

; 362  :             regs->txf_why |= TXF_WHY_DELAYED_ABORT;

  00b99	48 8b 84 24 98
	01 00 00	 mov	 rax, QWORD PTR regs$[rsp]
  00ba1	8b 80 84 af 00
	00		 mov	 eax, DWORD PTR [rax+44932]
  00ba7	0f ba e8 11	 bts	 eax, 17
  00bab	48 8b 8c 24 98
	01 00 00	 mov	 rcx, QWORD PTR regs$[rsp]
  00bb3	89 81 84 af 00
	00		 mov	 DWORD PTR [rcx+44932], eax

; 363  :             regs->txf_tnd++; // (prevent 'abort_transaction' crash)

  00bb9	48 8b 84 24 98
	01 00 00	 mov	 rax, QWORD PTR regs$[rsp]
  00bc1	0f b6 80 58 0e
	00 00		 movzx	 eax, BYTE PTR [rax+3672]
  00bc8	fe c0		 inc	 al
  00bca	48 8b 8c 24 98
	01 00 00	 mov	 rcx, QWORD PTR regs$[rsp]
  00bd2	88 81 58 0e 00
	00		 mov	 BYTE PTR [rcx+3672], al

; 364  :             ABORT_TRANS( regs, ABORT_RETRY_CC, txf_tac );

  00bd8	4c 8d 0d 00 00
	00 00		 lea	 r9, OFFSET FLAT:$SG192891
  00bdf	44 8b 84 24 84
	00 00 00	 mov	 r8d, DWORD PTR txf_tac$[rsp]
  00be7	ba 01 00 00 00	 mov	 edx, 1
  00bec	48 8b 8c 24 98
	01 00 00	 mov	 rcx, QWORD PTR regs$[rsp]
  00bf4	e8 00 00 00 00	 call	 z900_abort_transaction
$LN79@z900_trans:

; 365  :             UNREACHABLE_CODE( return );
; 366  :         }
; 367  : 
; 368  :         /*---------------------------------------------------------*/
; 369  :         /*  End the transaction normally if no conflicts detected  */
; 370  :         /*---------------------------------------------------------*/
; 371  : 
; 372  :         txf_contran  = regs->txf_contran;        /* save */

  00bf9	48 8b 84 24 98
	01 00 00	 mov	 rax, QWORD PTR regs$[rsp]
  00c01	0f b6 80 4c 0e
	00 00		 movzx	 eax, BYTE PTR [rax+3660]
  00c08	88 44 24 70	 mov	 BYTE PTR txf_contran$1[rsp], al

; 373  :         txf_abortctr = regs->txf_abortctr;       /* save */

  00c0c	48 8b 84 24 98
	01 00 00	 mov	 rax, QWORD PTR regs$[rsp]
  00c14	0f b7 80 60 0e
	00 00		 movzx	 eax, WORD PTR [rax+3680]
  00c1b	66 89 84 24 94
	00 00 00	 mov	 WORD PTR txf_abortctr$3[rsp], ax

; 374  :         txf_aie      = regs->txf_aie;            /* save */

  00c23	48 8b 84 24 98
	01 00 00	 mov	 rax, QWORD PTR regs$[rsp]
  00c2b	48 8b 80 60 af
	00 00		 mov	 rax, QWORD PTR [rax+44896]
  00c32	48 89 84 24 38
	01 00 00	 mov	 QWORD PTR txf_aie$6[rsp], rax

; 375  :         txf_aie_aiv  = regs->txf_aie_aiv;        /* save */

  00c3a	48 8b 84 24 98
	01 00 00	 mov	 rax, QWORD PTR regs$[rsp]
  00c42	48 8b 80 68 af
	00 00		 mov	 rax, QWORD PTR [rax+44904]
  00c49	48 89 84 24 40
	01 00 00	 mov	 QWORD PTR txf_aie_aiv$7[rsp], rax

; 376  :         txf_aie_aiv2 = regs->txf_aie_aiv2;       /* save */

  00c51	48 8b 84 24 98
	01 00 00	 mov	 rax, QWORD PTR regs$[rsp]
  00c59	48 8b 80 70 af
	00 00		 mov	 rax, QWORD PTR [rax+44912]
  00c60	48 89 84 24 48
	01 00 00	 mov	 QWORD PTR txf_aie_aiv2$8[rsp], rax

; 377  :         txf_aie_off2 = regs->txf_aie_off2;       /* save */

  00c68	48 8b 84 24 98
	01 00 00	 mov	 rax, QWORD PTR regs$[rsp]
  00c70	8b 80 78 af 00
	00		 mov	 eax, DWORD PTR [rax+44920]
  00c76	89 84 24 bc 00
	00 00		 mov	 DWORD PTR txf_aie_off2$5[rsp], eax

; 378  : 
; 379  :         regs->txf_contran  = false;              /* reset */

  00c7d	48 8b 84 24 98
	01 00 00	 mov	 rax, QWORD PTR regs$[rsp]
  00c85	c6 80 4c 0e 00
	00 00		 mov	 BYTE PTR [rax+3660], 0

; 380  :         regs->txf_abortctr = 0;                  /* reset */

  00c8c	33 c0		 xor	 eax, eax
  00c8e	48 8b 8c 24 98
	01 00 00	 mov	 rcx, QWORD PTR regs$[rsp]
  00c96	66 89 81 60 0e
	00 00		 mov	 WORD PTR [rcx+3680], ax

; 381  :         regs->txf_aie      = NULL;               /* reset */

  00c9d	48 8b 84 24 98
	01 00 00	 mov	 rax, QWORD PTR regs$[rsp]
  00ca5	48 c7 80 60 af
	00 00 00 00 00
	00		 mov	 QWORD PTR [rax+44896], 0

; 382  :         regs->txf_aie_aiv  = 0;                  /* reset */

  00cb0	48 8b 84 24 98
	01 00 00	 mov	 rax, QWORD PTR regs$[rsp]
  00cb8	48 c7 80 68 af
	00 00 00 00 00
	00		 mov	 QWORD PTR [rax+44904], 0

; 383  :         regs->txf_aie_aiv2 = 0;                  /* reset */

  00cc3	48 8b 84 24 98
	01 00 00	 mov	 rax, QWORD PTR regs$[rsp]
  00ccb	48 c7 80 70 af
	00 00 00 00 00
	00		 mov	 QWORD PTR [rax+44912], 0

; 384  :         regs->txf_aie_off2 = 0;                  /* reset */

  00cd6	48 8b 84 24 98
	01 00 00	 mov	 rax, QWORD PTR regs$[rsp]
  00cde	c7 80 78 af 00
	00 00 00 00 00	 mov	 DWORD PTR [rax+44920], 0

; 385  : 
; 386  :         /*---------------------------------------------------------*/
; 387  :         /*                 Scan for conflicts                      */
; 388  :         /*---------------------------------------------------------*/
; 389  :         /*  Scan the page map table.  There is one entry in the    */
; 390  :         /*  page map table for each page referenced while in       */
; 391  :         /*  transaction mode.  There is also a cache line map      */
; 392  :         /*  that keeps track of what cache lines within the        */
; 393  :         /*  page have been referenced and whether the reference    */
; 394  :         /*  was a store or a fetch.  The current data in the       */
; 395  :         /*  cache line is saved when the alternate entry is        */
; 396  :         /*  created. This saved data MUST match what is in main    */
; 397  :         /*  storage now, or the transation will be aborted with    */
; 398  :         /*  a conflict, since that means that some other CPU or    */
; 399  :         /*  the channel subsystem has stored into the cache line.  */
; 400  :         /*---------------------------------------------------------*/
; 401  : 
; 402  :         regs->txf_conflict = 0;

  00ce8	48 8b 84 24 98
	01 00 00	 mov	 rax, QWORD PTR regs$[rsp]
  00cf0	48 c7 80 78 0e
	00 00 00 00 00
	00		 mov	 QWORD PTR [rax+3704], 0

; 403  :         pmap = regs->txf_pagesmap;

  00cfb	48 8b 84 24 98
	01 00 00	 mov	 rax, QWORD PTR regs$[rsp]
  00d03	48 05 80 0e 00
	00		 add	 rax, 3712		; 00000e80H
  00d09	48 89 84 24 88
	00 00 00	 mov	 QWORD PTR pmap$[rsp], rax

; 404  : 
; 405  :         for (i=0; i < regs->txf_pgcnt; i++, pmap++)

  00d11	c7 84 24 90 00
	00 00 00 00 00
	00		 mov	 DWORD PTR i$[rsp], 0
  00d1c	eb 24		 jmp	 SHORT $LN34@z900_trans
$LN32@z900_trans:
  00d1e	8b 84 24 90 00
	00 00		 mov	 eax, DWORD PTR i$[rsp]
  00d25	ff c0		 inc	 eax
  00d27	89 84 24 90 00
	00 00		 mov	 DWORD PTR i$[rsp], eax
  00d2e	48 8b 84 24 88
	00 00 00	 mov	 rax, QWORD PTR pmap$[rsp]
  00d36	48 83 c0 28	 add	 rax, 40			; 00000028H
  00d3a	48 89 84 24 88
	00 00 00	 mov	 QWORD PTR pmap$[rsp], rax
$LN34@z900_trans:
  00d42	48 8b 84 24 98
	01 00 00	 mov	 rax, QWORD PTR regs$[rsp]
  00d4a	8b 80 80 ae 00
	00		 mov	 eax, DWORD PTR [rax+44672]
  00d50	39 84 24 90 00
	00 00		 cmp	 DWORD PTR i$[rsp], eax
  00d57	0f 8d 6d 02 00
	00		 jge	 $LN33@z900_trans

; 406  :         {
; 407  :             for (j=0; j < ZCACHE_LINE_PAGE; j++)

  00d5d	c7 44 24 74 00
	00 00 00	 mov	 DWORD PTR j$[rsp], 0
  00d65	eb 0a		 jmp	 SHORT $LN37@z900_trans
$LN35@z900_trans:
  00d67	8b 44 24 74	 mov	 eax, DWORD PTR j$[rsp]
  00d6b	ff c0		 inc	 eax
  00d6d	89 44 24 74	 mov	 DWORD PTR j$[rsp], eax
$LN37@z900_trans:
  00d71	83 7c 24 74 10	 cmp	 DWORD PTR j$[rsp], 16
  00d76	0f 8d 49 02 00
	00		 jge	 $LN36@z900_trans

; 408  :             {
; 409  :                 if (pmap->cachemap[j] == CM_CLEAN)

  00d7c	48 63 44 24 74	 movsxd	 rax, DWORD PTR j$[rsp]
  00d81	48 8b 8c 24 88
	00 00 00	 mov	 rcx, QWORD PTR pmap$[rsp]
  00d89	0f b6 44 01 18	 movzx	 eax, BYTE PTR [rcx+rax+24]
  00d8e	85 c0		 test	 eax, eax
  00d90	75 02		 jne	 SHORT $LN81@z900_trans

; 410  :                     continue;

  00d92	eb d3		 jmp	 SHORT $LN35@z900_trans
$LN81@z900_trans:

; 411  : 
; 412  :                 mainaddr = pmap->mainpageaddr + (j << ZCACHE_LINE_SHIFT);

  00d94	8b 44 24 74	 mov	 eax, DWORD PTR j$[rsp]
  00d98	c1 e0 08	 shl	 eax, 8
  00d9b	48 98		 cdqe
  00d9d	48 8b 8c 24 88
	00 00 00	 mov	 rcx, QWORD PTR pmap$[rsp]
  00da5	48 03 41 08	 add	 rax, QWORD PTR [rcx+8]
  00da9	48 89 84 24 d8
	00 00 00	 mov	 QWORD PTR mainaddr$[rsp], rax

; 413  :                 saveaddr = pmap->altpageaddr  + (j << ZCACHE_LINE_SHIFT) + ZPAGEFRAME_PAGESIZE;

  00db1	8b 44 24 74	 mov	 eax, DWORD PTR j$[rsp]
  00db5	c1 e0 08	 shl	 eax, 8
  00db8	48 98		 cdqe
  00dba	48 8b 8c 24 88
	00 00 00	 mov	 rcx, QWORD PTR pmap$[rsp]
  00dc2	48 8b 49 10	 mov	 rcx, QWORD PTR [rcx+16]
  00dc6	48 8d 84 01 00
	10 00 00	 lea	 rax, QWORD PTR [rcx+rax+4096]
  00dce	48 89 84 24 30
	01 00 00	 mov	 QWORD PTR saveaddr$[rsp], rax

; 414  : 
; 415  :                 if (memcmp( saveaddr, mainaddr, ZCACHE_LINE_SIZE ) == 0)

  00dd6	41 b8 00 01 00
	00		 mov	 r8d, 256		; 00000100H
  00ddc	48 8b 94 24 d8
	00 00 00	 mov	 rdx, QWORD PTR mainaddr$[rsp]
  00de4	48 8b 8c 24 30
	01 00 00	 mov	 rcx, QWORD PTR saveaddr$[rsp]
  00dec	e8 00 00 00 00	 call	 memcmp
  00df1	85 c0		 test	 eax, eax
  00df3	75 05		 jne	 SHORT $LN82@z900_trans

; 416  :                     continue;

  00df5	e9 6d ff ff ff	 jmp	 $LN35@z900_trans
$LN82@z900_trans:

; 417  : 
; 418  :                 /*--------------------------------------*/
; 419  :                 /*          TRANSACTION FAILURE         */
; 420  :                 /*--------------------------------------*/
; 421  : 
; 422  :                 if (pmap->virtpageaddr)

  00dfa	48 8b 84 24 88
	00 00 00	 mov	 rax, QWORD PTR pmap$[rsp]
  00e02	48 83 38 00	 cmp	 QWORD PTR [rax], 0
  00e06	74 25		 je	 SHORT $LN83@z900_trans

; 423  :                     regs->txf_conflict = pmap->virtpageaddr + (j << ZCACHE_LINE_SHIFT);

  00e08	8b 44 24 74	 mov	 eax, DWORD PTR j$[rsp]
  00e0c	c1 e0 08	 shl	 eax, 8
  00e0f	48 98		 cdqe
  00e11	48 8b 8c 24 88
	00 00 00	 mov	 rcx, QWORD PTR pmap$[rsp]
  00e19	48 03 01	 add	 rax, QWORD PTR [rcx]
  00e1c	48 8b 8c 24 98
	01 00 00	 mov	 rcx, QWORD PTR regs$[rsp]
  00e24	48 89 81 78 0e
	00 00		 mov	 QWORD PTR [rcx+3704], rax
  00e2b	eb 13		 jmp	 SHORT $LN84@z900_trans
$LN83@z900_trans:

; 424  :                 else
; 425  :                     regs->txf_conflict = 0;

  00e2d	48 8b 84 24 98
	01 00 00	 mov	 rax, QWORD PTR regs$[rsp]
  00e35	48 c7 80 78 0e
	00 00 00 00 00
	00		 mov	 QWORD PTR [rax+3704], 0
$LN84@z900_trans:

; 426  : 
; 427  :                 txf_tac = (pmap->cachemap[j] == CM_STORED) ?

  00e40	48 63 44 24 74	 movsxd	 rax, DWORD PTR j$[rsp]
  00e45	48 8b 8c 24 88
	00 00 00	 mov	 rcx, QWORD PTR pmap$[rsp]
