; Listing generated by Microsoft (R) Optimizing Compiler Version 19.34.31937.0 

include listing.inc

INCLUDELIB MSVCRTD
INCLUDELIB OLDNAMES

_DATA	SEGMENT
$SG169205 DB	'ABCDEFGHIJKLMNOPQRSTUVWXYZ0123456789$#@+-:_', 00H
	ORG $+4
$SG169207 DB	'0123456', 00H
_DATA	ENDS
CONST	SEGMENT
CKD_ENDTRK DB	0ffH
	DB	0ffH
	DB	0ffH
	DB	0ffH
	DB	0ffH
	DB	0ffH
	DB	0ffH
	DB	0ffH
PLCH_hdr DB	02H
	DB	0d7H
	DB	0d3H
	DB	0c3H
	DB	0c8H
	ORG $+3
PLCD_hdr DB	02H
	DB	0d7H
	DB	0d3H
	DB	0c3H
	DB	0c4H
	ORG $+3
CMS__hdr DB	02H
	DB	0c3H
	DB	0d4H
	DB	0e2H
	DB	040H
	ORG $+3
CMSN_hdr DB	02H
	DB	0c3H
	DB	0d4H
	DB	0e2H
	DB	0d5H
	ORG $+3
empty_adt	ORG $+6
CONST	ENDS
PUBLIC	__local_stdio_printf_options
PUBLIC	_vsnprintf_s_l
PUBLIC	_vsnprintf_s
PUBLIC	fetch_hw_noswap
PUBLIC	store_hw_noswap
PUBLIC	fetch_fw_noswap
PUBLIC	store_fw_noswap
PUBLIC	tape_write_block
PUBLIC	main
EXTRN	__report_rangecheckfailure:PROC
EXTRN	__imp_isalpha:PROC
EXTRN	__imp_toupper:PROC
EXTRN	__imp__errno:PROC
EXTRN	strchr:PROC
EXTRN	__imp__stricmp:PROC
EXTRN	strlen:PROC
EXTRN	__imp_strdup:PROC
EXTRN	__imp_IsDebuggerPresent:PROC
EXTRN	__imp_OutputDebugStringA:PROC
EXTRN	__imp_free:PROC
EXTRN	__imp_malloc:PROC
EXTRN	__imp_realloc:PROC
EXTRN	_byteswap_ushort:PROC
EXTRN	_byteswap_ulong:PROC
EXTRN	__imp_strtoul:PROC
EXTRN	__imp___acrt_iob_func:PROC
EXTRN	__imp_ferror:PROC
EXTRN	__imp_fgets:PROC
EXTRN	__imp_fopen:PROC
EXTRN	__imp_fread:PROC
EXTRN	__imp___stdio_common_vsnprintf_s:PROC
EXTRN	__imp__localtime64:PROC
EXTRN	__imp__stat64:PROC
EXTRN	__imp_strlcpy:PROC
EXTRN	__imp_strlcat:PROC
EXTRN	__imp_initialize_utility:PROC
EXTRN	__imp_parse_args:PROC
EXTRN	__imp_w32_strerror:PROC
EXTRN	__imp_w32_fwrite:PROC
EXTRN	__imp_w32_snprintf:PROC
EXTRN	__imp_w32_fclose:PROC
EXTRN	__imp_w32_basename:PROC
EXTRN	__imp_query_codepage:PROC
EXTRN	__imp_valid_codepage_name:PROC
EXTRN	__imp_set_codepage:PROC
EXTRN	__imp_host_to_guest:PROC
EXTRN	__imp_guest_to_host:PROC
EXTRN	__imp_buf_guest_to_host:PROC
EXTRN	__imp_str_guest_to_host:PROC
EXTRN	__imp_str_host_to_guest:PROC
EXTRN	__imp_het_error:PROC
EXTRN	__imp_fwritemsg:PROC
EXTRN	__imp_logmsg:PROC
EXTRN	__imp_open_awstape:PROC
EXTRN	__imp_close_awstape:PROC
EXTRN	__imp_rewind_awstape:PROC
EXTRN	__imp_write_awsmark:PROC
EXTRN	__imp_fsb_awstape:PROC
EXTRN	__imp_read_awstape:PROC
EXTRN	__imp_write_awstape:PROC
EXTRN	__imp_open_het:PROC
EXTRN	__imp_close_het:PROC
EXTRN	__imp_rewind_het:PROC
EXTRN	__imp_write_hetmark:PROC
EXTRN	__imp_fsb_het:PROC
EXTRN	__imp_read_het:PROC
EXTRN	__imp_write_het:PROC
EXTRN	__GSHandlerCheck:PROC
EXTRN	__chkstk:PROC
EXTRN	__security_check_cookie:PROC
EXTRN	memcmp:PROC
EXTRN	__imp_sysblk:BYTE
EXTRN	__ImageBase:BYTE
EXTRN	__security_cookie:QWORD
_DATA	SEGMENT
COMM	?_OptionsStorage@?1??__local_stdio_printf_options@@9@9:QWORD							; `__local_stdio_printf_options'::`2'::_OptionsStorage
_DATA	ENDS
_BSS	SEGMENT
pgm	DQ	01H DUP (?)
bfr	DB	0ffffH DUP (?)
	ALIGN	4

wrk	DB	0ffffH DUP (?)
	ALIGN	8

defaultcp DQ	01H DUP (?)
?msg@?1??validate_cmsfile@@9@9 DB 0200H DUP (?)		; `validate_cmsfile'::`2'::msg
ctltab	DQ	01H DUP (?)
numctl	DD	01H DUP (?)
?buf@?BE@??parse_ctlfile_stmt@@9@9 DB 040H DUP (?)	; `parse_ctlfile_stmt'::`20'::buf
_BSS	ENDS
;	COMDAT pdata
pdata	SEGMENT
$pdata$_vsnprintf_s_l DD imagerel $LN5
	DD	imagerel $LN5+127
	DD	imagerel $unwind$_vsnprintf_s_l
pdata	ENDS
;	COMDAT pdata
pdata	SEGMENT
$pdata$_vsnprintf_s DD imagerel $LN3
	DD	imagerel $LN3+73
	DD	imagerel $unwind$_vsnprintf_s
pdata	ENDS
pdata	SEGMENT
$pdata$localtime DD imagerel localtime
	DD	imagerel localtime+25
	DD	imagerel $unwind$localtime
$pdata$DebuggerTrace DD imagerel DebuggerTrace
	DD	imagerel DebuggerTrace+247
	DD	imagerel $unwind$DebuggerTrace
$pdata$strcaseabbrev DD imagerel strcaseabbrev
	DD	imagerel strcaseabbrev+320
	DD	imagerel $unwind$strcaseabbrev
$pdata$strupper DD imagerel strupper
	DD	imagerel strupper+114
	DD	imagerel $unwind$strupper
pdata	ENDS
;	COMDAT pdata
pdata	SEGMENT
$pdata$fetch_hw_noswap DD imagerel $LN3
	DD	imagerel $LN3+30
	DD	imagerel $unwind$fetch_hw_noswap
pdata	ENDS
;	COMDAT pdata
pdata	SEGMENT
$pdata$fetch_fw_noswap DD imagerel $LN3
	DD	imagerel $LN3+27
	DD	imagerel $unwind$fetch_fw_noswap
pdata	ENDS
pdata	SEGMENT
$pdata$syntax DD imagerel syntax
	DD	imagerel syntax+97
	DD	imagerel $unwind$syntax
$pdata$parse_parms DD imagerel parse_parms
	DD	imagerel parse_parms+2517
	DD	imagerel $unwind$parse_parms
$pdata$tape_close DD imagerel tape_close
	DD	imagerel tape_close+65
	DD	imagerel $unwind$tape_close
$pdata$tape_open DD imagerel tape_open
	DD	imagerel tape_open+935
	DD	imagerel $unwind$tape_open
$pdata$tape_rewind DD imagerel tape_rewind
	DD	imagerel tape_rewind+361
	DD	imagerel $unwind$tape_rewind
$pdata$tape_fsb DD imagerel tape_fsb
	DD	imagerel tape_fsb+361
	DD	imagerel $unwind$tape_fsb
$pdata$tape_set_position DD imagerel tape_set_position
	DD	imagerel tape_set_position+147
	DD	imagerel $unwind$tape_set_position
$pdata$tape_read DD imagerel tape_read
	DD	imagerel tape_read+375
	DD	imagerel $unwind$tape_read
$pdata$tape_write_mark DD imagerel tape_write_mark
	DD	imagerel tape_write_mark+361
	DD	imagerel $unwind$tape_write_mark
$pdata$tape_write_block DD imagerel $LN7
	DD	imagerel $LN7+407
	DD	imagerel $unwind$tape_write_block
$pdata$write_TAPE_BLOCK DD imagerel write_TAPE_BLOCK
	DD	imagerel write_TAPE_BLOCK+163
	DD	imagerel $unwind$write_TAPE_BLOCK
$pdata$write_TAPE_BLOCKS DD imagerel write_TAPE_BLOCKS
	DD	imagerel write_TAPE_BLOCKS+109
	DD	imagerel $unwind$write_TAPE_BLOCKS
$pdata$init_blocks DD imagerel init_blocks
	DD	imagerel init_blocks+156
	DD	imagerel $unwind$init_blocks
$pdata$append_data DD imagerel append_data
	DD	imagerel append_data+617
	DD	imagerel $unwind$append_data
$pdata$free_blocks DD imagerel free_blocks
	DD	imagerel free_blocks+108
	DD	imagerel $unwind$free_blocks
$pdata$initrecs DD imagerel initrecs
	DD	imagerel initrecs+185
	DD	imagerel $unwind$initrecs
$pdata$addrecs DD imagerel addrecs
	DD	imagerel addrecs+303
	DD	imagerel $unwind$addrecs
$pdata$flushrecs DD imagerel flushrecs
	DD	imagerel flushrecs+491
	DD	imagerel $unwind$flushrecs
$pdata$dump_binary_file DD imagerel dump_binary_file
	DD	imagerel dump_binary_file+807
	DD	imagerel $unwind$dump_binary_file
$pdata$dump_text_file DD imagerel dump_text_file
	DD	imagerel dump_text_file+1273
	DD	imagerel $unwind$dump_text_file
$pdata$dump_structured_file DD imagerel dump_structured_file
	DD	imagerel dump_structured_file+1375
	DD	imagerel $unwind$dump_structured_file
$pdata$dump_file DD imagerel dump_file
	DD	imagerel dump_file+352
	DD	imagerel $unwind$dump_file
$pdata$to_dcb DD imagerel to_dcb
	DD	imagerel to_dcb+56
	DD	imagerel $unwind$to_dcb
$pdata$dcb_to_str DD imagerel dcb_to_str
	DD	imagerel dcb_to_str+350
	DD	imagerel $unwind$dcb_to_str
$pdata$build_fst_block DD imagerel build_fst_block
	DD	imagerel build_fst_block+1101
	DD	imagerel $unwind$build_fst_block
$pdata$build_cms_block DD imagerel build_cms_block
	DD	imagerel build_cms_block+679
	DD	imagerel $unwind$build_cms_block
$pdata$format_fst_datetime DD imagerel format_fst_datetime
	DD	imagerel format_fst_datetime+782
	DD	imagerel $unwind$format_fst_datetime
$pdata$format_cms_datetime DD imagerel format_cms_datetime
	DD	imagerel format_cms_datetime+348
	DD	imagerel $unwind$format_cms_datetime
$pdata$format_fst_info DD imagerel format_fst_info
	DD	imagerel format_fst_info+578
	DD	imagerel $unwind$format_fst_info
$pdata$format_cms_info DD imagerel format_cms_info
	DD	imagerel format_cms_info+500
	DD	imagerel $unwind$format_cms_info
$pdata$validate_fnft DD imagerel validate_fnft
	DD	imagerel validate_fnft+154
	DD	imagerel $unwind$validate_fnft
$pdata$validate_cmsfile DD imagerel validate_cmsfile
	DD	imagerel validate_cmsfile+420
	DD	imagerel $unwind$validate_cmsfile
$pdata$add_ctltab_entry DD imagerel add_ctltab_entry
	DD	imagerel add_ctltab_entry+133
	DD	imagerel $unwind$add_ctltab_entry
$pdata$find_ctltab_entry DD imagerel find_ctltab_entry
	DD	imagerel find_ctltab_entry+271
	DD	imagerel $unwind$find_ctltab_entry
$pdata$parse_ctlfile_stmt DD imagerel parse_ctlfile_stmt
	DD	imagerel parse_ctlfile_stmt+2816
	DD	imagerel $unwind$parse_ctlfile_stmt
$pdata$parse_ctlfile DD imagerel parse_ctlfile
	DD	imagerel parse_ctlfile+676
	DD	imagerel $unwind$parse_ctlfile
$pdata$dodump DD imagerel dodump
	DD	imagerel dodump+2145
	DD	imagerel $unwind$dodump
$pdata$doscan DD imagerel doscan
	DD	imagerel doscan+902
	DD	imagerel $unwind$doscan
$pdata$write_siz DD imagerel write_siz
	DD	imagerel write_siz+212
	DD	imagerel $unwind$write_siz
$pdata$write_rec DD imagerel write_rec
	DD	imagerel write_rec+335
	DD	imagerel $unwind$write_rec
$pdata$endof_rec DD imagerel endof_rec
	DD	imagerel endof_rec+205
	DD	imagerel $unwind$endof_rec
$pdata$log_loaded DD imagerel log_loaded
	DD	imagerel log_loaded+308
	DD	imagerel $unwind$log_loaded
$pdata$log_cms_loaded DD imagerel log_cms_loaded
	DD	imagerel log_cms_loaded+106
	DD	imagerel $unwind$log_cms_loaded
$pdata$log_fst_loaded DD imagerel log_fst_loaded
	DD	imagerel log_fst_loaded+106
	DD	imagerel $unwind$log_fst_loaded
$pdata$log_skipped DD imagerel log_skipped
	DD	imagerel log_skipped+249
	DD	imagerel $unwind$log_skipped
$pdata$log_cms_skipped DD imagerel log_cms_skipped
	DD	imagerel log_cms_skipped+101
	DD	imagerel $unwind$log_cms_skipped
$pdata$log_fst_skipped DD imagerel log_fst_skipped
	DD	imagerel log_fst_skipped+101
	DD	imagerel $unwind$log_fst_skipped
$pdata$load_file DD imagerel load_file
	DD	imagerel load_file+2215
	DD	imagerel $unwind$load_file
$pdata$doload_cms DD imagerel doload_cms
	DD	imagerel doload_cms+2210
	DD	imagerel $unwind$doload_cms
$pdata$doload DD imagerel doload
	DD	imagerel doload+2010
	DD	imagerel $unwind$doload
$pdata$main DD	imagerel $LN10
	DD	imagerel $LN10+351
	DD	imagerel $unwind$main
pdata	ENDS
_DATA	SEGMENT
validchars DQ	FLAT:$SG169205
validfmnum DQ	FLAT:$SG169207
$SG169228 DB	'DUMP', 00H
	ORG $+3
$SG169230 DB	'LOAD', 00H
	ORG $+3
$SG169232 DB	'SCAN', 00H
	ORG $+3
$SG169233 DB	'???', 00H
$SG169236 DB	'I', 00H
	ORG $+2
$SG169238 DB	'syntax', 00H
	ORG $+1
$SG169237 DB	'HHC02620%s Usage: %s [options] VERB [<ctlfile>] <tapein>'
	DB	' | <tapeout>', 0aH, 'HHC02620I   VERB      desired action    '
	DB	'           (DUMP/LOAD/SCAN)', 0aH, 'HHC02620I   ctlfile   fil'
	DB	'ename of control file     (DUMP/LOAD only)', 0aH, 'HHC02620I '
	DB	'  tapein    filename of input tape file  (LOAD/SCAN only)', 0aH
	DB	'HHC02620I   tapeout   filename of output tape file (DUMP only'
	DB	')', 0aH, 'HHC02620I Options:', 0aH, 'HHC02620I   -c cp     de'
	DB	'sired translation codepage', 0aH, 'HHC02620I   -t        read'
	DB	'/write tape in CMS ''TAPE'' DUMP format', 0aH, 'HHC02620I   -'
	DB	'v        don''t suppress certain informational messages', 0aH
	DB	'HHC02620I   -u        create uncompressed .aws output', 0aH, 'H'
	DB	'HC02620I   -z        create compressed .het using zlib (defau'
	DB	'lt)', 0aH, 'HHC02620I   -b        create compressed .het usin'
	DB	'g bzip2', 0aH, 'HHC02620I   -4        desired compression lev'
	DB	'el (-1, -2 ... -9)', 0aH, 00H
$SG169267 DB	'E', 00H
	ORG $+2
$SG169239 DB	'vmfplc2.c', 00H
	ORG $+2
$SG169273 DB	'E', 00H
	ORG $+2
$SG169266 DB	'code page', 00H
	ORG $+2
$SG169279 DB	'option', 00H
	ORG $+1
$SG169280 DB	'E', 00H
	ORG $+2
$SG169268 DB	'HHC02622%s %s not specified', 0aH, 00H
	ORG $+3
$SG169269 DB	'parse_parms', 00H
$SG169286 DB	'E', 00H
	ORG $+2
$SG169270 DB	'vmfplc2.c', 00H
	ORG $+2
$SG169300 DB	'E', 00H
	ORG $+2
$SG169272 DB	'code page', 00H
	ORG $+2
$SG169307 DB	'E', 00H
	ORG $+2
$SG169274 DB	'HHC02621%s Invalid %s "%s"', 0aH, 00H
$SG169315 DB	'E', 00H
	ORG $+2
$SG169275 DB	'parse_parms', 00H
$SG169322 DB	'E', 00H
	ORG $+2
$SG169276 DB	'vmfplc2.c', 00H
	ORG $+2
$SG169321 DB	'infile', 00H
	ORG $+1
$SG169328 DB	'E', 00H
	ORG $+2
$SG169281 DB	'HHC02621%s Invalid %s "%s"', 0aH, 00H
$SG169336 DB	'I', 00H
	ORG $+2
$SG169282 DB	'parse_parms', 00H
$SG169369 DB	'E', 00H
	ORG $+2
$SG169283 DB	'vmfplc2.c', 00H
	ORG $+2
$SG169285 DB	'VERB', 00H
	ORG $+3
$SG169334 DB	'Output', 00H
	ORG $+1
$SG169375 DB	'E', 00H
	ORG $+2
$SG169287 DB	'HHC02622%s %s not specified', 0aH, 00H
	ORG $+3
$SG169288 DB	'parse_parms', 00H
$SG169388 DB	'E', 00H
	ORG $+2
$SG169289 DB	'vmfplc2.c', 00H
	ORG $+2
$SG169292 DB	'DUMP', 00H
	ORG $+3
$SG169295 DB	'SCAN', 00H
	ORG $+3
$SG169298 DB	'LOAD', 00H
	ORG $+3
$SG169335 DB	'Input', 00H
	ORG $+2
$SG169394 DB	'E', 00H
	ORG $+2
$SG169299 DB	'function', 00H
	ORG $+3
$SG169407 DB	'E', 00H
	ORG $+2
$SG169301 DB	'HHC02621%s Invalid %s "%s"', 0aH, 00H
$SG169413 DB	'E', 00H
	ORG $+2
$SG169302 DB	'parse_parms', 00H
$SG169440 DB	'E', 00H
	ORG $+2
$SG169303 DB	'vmfplc2.c', 00H
	ORG $+2
$SG169446 DB	'E', 00H
	ORG $+2
$SG169306 DB	'tape file', 00H
	ORG $+2
$SG169459 DB	'E', 00H
	ORG $+2
$SG169308 DB	'HHC02622%s %s not specified', 0aH, 00H
	ORG $+3
$SG169309 DB	'parse_parms', 00H
$SG169465 DB	'E', 00H
	ORG $+2
$SG169310 DB	'vmfplc2.c', 00H
	ORG $+2
$SG169482 DB	'E', 00H
	ORG $+2
$SG169314 DB	'ctlfile', 00H
$SG169316 DB	'HHC02622%s %s not specified', 0aH, 00H
	ORG $+3
$SG169317 DB	'parse_parms', 00H
$SG169488 DB	'E', 00H
	ORG $+2
$SG169318 DB	'vmfplc2.c', 00H
	ORG $+2
$SG169678 DB	'rb', 00H
	ORG $+1
$SG169320 DB	'outfile', 00H
$SG169323 DB	'HHC02622%s %s not specified', 0aH, 00H
	ORG $+3
$SG169324 DB	'parse_parms', 00H
$SG169679 DB	'E', 00H
	ORG $+2
$SG169325 DB	'vmfplc2.c', 00H
	ORG $+2
$SG169685 DB	'E', 00H
	ORG $+2
$SG169327 DB	'argument', 00H
	ORG $+3
$SG169752 DB	'r', 00H
	ORG $+2
$SG169329 DB	'HHC02621%s Invalid %s "%s"', 0aH, 00H
$SG169753 DB	'E', 00H
	ORG $+2
$SG169330 DB	'parse_parms', 00H
$SG169766 DB	'E', 00H
	ORG $+2
$SG169331 DB	'vmfplc2.c', 00H
	ORG $+2
$SG169789 DB	'W', 00H
	ORG $+2
$SG169332 DB	'CMS TAPE', 00H
	ORG $+3
$SG169845 DB	'rb', 00H
	ORG $+1
$SG169333 DB	'VMFPLC2', 00H
$SG169337 DB	'HHC02637%s %s tape format set to %s', 0aH, 00H
	ORG $+3
$SG169338 DB	'parse_parms', 00H
$SG169846 DB	'E', 00H
	ORG $+2
$SG169339 DB	'vmfplc2.c', 00H
	ORG $+2
$SG169853 DB	'E', 00H
	ORG $+2
$SG169368 DB	'open_het()', 00H
	ORG $+1
$SG169857 DB	'E', 00H
	ORG $+2
$SG169370 DB	'HHC02624%s Error in function %s: %s', 0aH, 00H
	ORG $+3
$SG169371 DB	'tape_open', 00H
	ORG $+2
$SG169875 DB	'E', 00H
	ORG $+2
$SG169372 DB	'vmfplc2.c', 00H
	ORG $+2
$SG169879 DB	'E', 00H
	ORG $+2
$SG169374 DB	'open_awstape()', 00H
	ORG $+1
$SG169376 DB	'HHC02624%s Error in function %s: %s', 0aH, 00H
	ORG $+3
$SG169377 DB	'tape_open', 00H
	ORG $+2
$SG169926 DB	'E', 00H
	ORG $+2
$SG169378 DB	'vmfplc2.c', 00H
	ORG $+2
$SG170132 DB	'20', 00H
	ORG $+1
$SG169387 DB	'rewind_het()', 00H
	ORG $+3
$SG169389 DB	'HHC02624%s Error in function %s: %s', 0aH, 00H
	ORG $+3
$SG169390 DB	'tape_rewind', 00H
$SG170133 DB	'19', 00H
	ORG $+1
$SG169391 DB	'vmfplc2.c', 00H
	ORG $+2
$SG170136 DB	'00', 00H
	ORG $+1
$SG169393 DB	'rewind_awstape()', 00H
	ORG $+3
$SG170069 DB	'%2.2u', 00H
	ORG $+2
$SG170273 DB	'@TM', 00H
$SG169395 DB	'HHC02624%s Error in function %s: %s', 0aH, 00H
	ORG $+3
$SG169396 DB	'tape_rewind', 00H
$SG170347 DB	'@TM', 00H
$SG169397 DB	'vmfplc2.c', 00H
	ORG $+2
$SG170348 DB	'@TM', 00H
$SG169406 DB	'fsb_het()', 00H
	ORG $+2
$SG170382 DB	'BINARY', 00H
	ORG $+1
$SG170384 DB	'TXT', 00H
$SG169408 DB	'HHC02624%s Error in function %s: %s', 0aH, 00H
	ORG $+3
$SG169409 DB	'tape_fsb', 00H
	ORG $+3
$SG170116 DB	'%2.2u', 00H
	ORG $+2
$SG170401 DB	'E', 00H
	ORG $+2
$SG169410 DB	'vmfplc2.c', 00H
	ORG $+2
$SG170405 DB	'E', 00H
	ORG $+2
$SG169412 DB	'fsb_awstape()', 00H
	ORG $+2
$SG169414 DB	'HHC02624%s Error in function %s: %s', 0aH, 00H
	ORG $+3
$SG169415 DB	'tape_fsb', 00H
	ORG $+3
$SG170366 DB	'FIXED', 00H
	ORG $+2
$SG170409 DB	'E', 00H
	ORG $+2
$SG169416 DB	'vmfplc2.c', 00H
	ORG $+2
$SG170432 DB	'r', 00H
	ORG $+2
$SG169439 DB	'read_het()', 00H
	ORG $+1
$SG170433 DB	'E', 00H
	ORG $+2
$SG169441 DB	'HHC02624%s Error in function %s: %s', 0aH, 00H
	ORG $+3
$SG169442 DB	'tape_read', 00H
	ORG $+2
$SG170439 DB	'E', 00H
	ORG $+2
$SG169443 DB	'vmfplc2.c', 00H
	ORG $+2
$SG170453 DB	'W', 00H
	ORG $+2
$SG169445 DB	'read_awstape()', 00H
	ORG $+1
$SG169447 DB	'HHC02624%s Error in function %s: %s', 0aH, 00H
	ORG $+3
$SG169448 DB	'tape_read', 00H
	ORG $+2
$SG170487 DB	'I', 00H
	ORG $+2
$SG169449 DB	'vmfplc2.c', 00H
	ORG $+2
$SG170489 DB	'dodump', 00H
	ORG $+1
$SG170494 DB	'@TM', 00H
$SG169458 DB	'write_hetmark()', 00H
$SG169460 DB	'HHC02624%s Error in function %s: %s', 0aH, 00H
	ORG $+3
$SG169461 DB	'tape_write_mark', 00H
$SG169462 DB	'vmfplc2.c', 00H
	ORG $+2
$SG170496 DB	'@TM', 00H
$SG169464 DB	'write_awsmark()', 00H
$SG169466 DB	'HHC02624%s Error in function %s: %s', 0aH, 00H
	ORG $+3
$SG169467 DB	'tape_write_mark', 00H
$SG169468 DB	'vmfplc2.c', 00H
	ORG $+2
$SG170497 DB	'I', 00H
	ORG $+2
$SG169481 DB	'write_het()', 00H
$SG170503 DB	'I', 00H
	ORG $+2
$SG169483 DB	'HHC02624%s Error in function %s: %s', 0aH, 00H
	ORG $+3
$SG169484 DB	'tape_write_block', 00H
	ORG $+3
$SG170499 DB	'dodump', 00H
	ORG $+1
$SG170520 DB	'I', 00H
	ORG $+2
$SG169485 DB	'vmfplc2.c', 00H
	ORG $+2
$SG170505 DB	'dodump', 00H
	ORG $+1
$SG170528 DB	'@TM', 00H
$SG169487 DB	'write_awstape()', 00H
$SG169489 DB	'HHC02624%s Error in function %s: %s', 0aH, 00H
	ORG $+3
$SG169490 DB	'tape_write_block', 00H
	ORG $+3
$SG170522 DB	'dodump', 00H
	ORG $+1
$SG170529 DB	'I', 00H
	ORG $+2
$SG169491 DB	'vmfplc2.c', 00H
	ORG $+2
$SG170531 DB	'dodump', 00H
	ORG $+1
$SG170535 DB	'@TM', 00H
$SG169680 DB	'HHC02623%s File open error: "%s": %s', 0aH, 00H
	ORG $+2
$SG169681 DB	'dump_binary_file', 00H
	ORG $+3
$SG170536 DB	'I', 00H
	ORG $+2
$SG169682 DB	'vmfplc2.c', 00H
	ORG $+2
$SG170538 DB	'dodump', 00H
	ORG $+1
$SG170541 DB	'I', 00H
	ORG $+2
$SG169686 DB	'HHC02627%s I/O error on file "%s": %s', 0aH, 00H
	ORG $+1
$SG169687 DB	'dump_binary_file', 00H
	ORG $+3
$SG170543 DB	'dodump', 00H
	ORG $+1
$SG170546 DB	'I', 00H
	ORG $+2
$SG169688 DB	'vmfplc2.c', 00H
	ORG $+2
$SG170548 DB	'dodump', 00H
	ORG $+1
$SG170565 DB	'I', 00H
	ORG $+2
$SG169690 DB	'dump_binary_file', 00H
	ORG $+3
$SG170567 DB	'doscan', 00H
	ORG $+1
$SG170574 DB	'I', 00H
	ORG $+2
$SG169691 DB	'vmfplc2.c', 00H
	ORG $+6
$SG169694 DB	'dump_binary_file', 00H
	ORG $+7
$SG169692 DB	'%s(%d) : warning HHC90999W : *** Assertion Failed! *** f'
	DB	'unction: %s', 0aH, 00H
	ORG $+3
$SG169695 DB	'vmfplc2.c', 00H
	ORG $+6
$SG169699 DB	'dump_binary_file', 00H
	ORG $+7
$SG169696 DB	'%s(%d) : warning HHC90999W : *** Assertion Failed! *** f'
	DB	'unction: %s', 0aH, 00H
	ORG $+3
$SG169700 DB	'vmfplc2.c', 00H
	ORG $+6
$SG169703 DB	'dump_binary_file', 00H
	ORG $+7
$SG169701 DB	'%s(%d) : warning HHC90999W : *** Assertion Failed! *** f'
	DB	'unction: %s', 0aH, 00H
	ORG $+3
$SG169704 DB	'vmfplc2.c', 00H
	ORG $+6
$SG169754 DB	'HHC02623%s File open error: "%s": %s', 0aH, 00H
	ORG $+2
$SG169705 DB	'%s(%d) : warning HHC90999W : *** Assertion Failed! *** f'
	DB	'unction: %s', 0aH, 00H
	ORG $+3
$SG169755 DB	'dump_text_file', 00H
	ORG $+1
$SG169756 DB	'vmfplc2.c', 00H
	ORG $+2
$SG170576 DB	'doscan', 00H
	ORG $+1
$SG170579 DB	'I', 00H
	ORG $+2
$SG169767 DB	'HHC02627%s I/O error on file "%s": %s', 0aH, 00H
	ORG $+1
$SG169768 DB	'dump_text_file', 00H
	ORG $+1
$SG169769 DB	'vmfplc2.c', 00H
	ORG $+2
$SG170581 DB	'doscan', 00H
	ORG $+1
$SG170583 DB	'@TM', 00H
$SG169771 DB	'dump_text_file', 00H
	ORG $+1
$SG169772 DB	'vmfplc2.c', 00H
	ORG $+6
$SG169773 DB	'%s(%d) : warning HHC90999W : *** Assertion Failed! *** f'
	DB	'unction: %s', 0aH, 00H
	ORG $+3
$SG169775 DB	'dump_text_file', 00H
	ORG $+1
$SG169776 DB	'vmfplc2.c', 00H
	ORG $+6
$SG169780 DB	'dump_text_file', 00H
	ORG $+1
$SG169847 DB	'HHC02623%s File open error: "%s": %s', 0aH, 00H
	ORG $+2
$SG169777 DB	'%s(%d) : warning HHC90999W : *** Assertion Failed! *** f'
	DB	'unction: %s', 0aH, 00H
	ORG $+3
$SG169781 DB	'vmfplc2.c', 00H
	ORG $+6
$SG169784 DB	'dump_text_file', 00H
	ORG $+1
$SG169848 DB	'dump_structured_file', 00H
	ORG $+3
$SG169782 DB	'%s(%d) : warning HHC90999W : *** Assertion Failed! *** f'
	DB	'unction: %s', 0aH, 00H
	ORG $+3
$SG169785 DB	'vmfplc2.c', 00H
	ORG $+6
$SG169791 DB	'dump_text_file', 00H
	ORG $+1
$SG169854 DB	'HHC02627%s I/O error on file "%s": %s', 0aH, 00H
	ORG $+1
$SG169786 DB	'%s(%d) : warning HHC90999W : *** Assertion Failed! *** f'
	DB	'unction: %s', 0aH, 00H
	ORG $+3
$SG169855 DB	'dump_structured_file', 00H
	ORG $+3
$SG169790 DB	'HHC02628%s lrecl %u less than %u; one or more records tr'
	DB	'uncated', 0aH, 00H
	ORG $+3
$SG170584 DB	'I', 00H
	ORG $+2
$SG169792 DB	'vmfplc2.c', 00H
	ORG $+2
$SG170586 DB	'doscan', 00H
	ORG $+1
$SG170589 DB	'I', 00H
	ORG $+2
$SG169849 DB	'vmfplc2.c', 00H
	ORG $+2
$SG170591 DB	'doscan', 00H
	ORG $+1
$SG170608 DB	'E', 00H
	ORG $+2
$SG169856 DB	'vmfplc2.c', 00H
	ORG $+6
$SG169859 DB	'dump_structured_file', 00H
	ORG $+3
$SG169858 DB	'HHC02629%s Expected %d bytes from file "%s", but only %d'
	DB	' bytes read', 0aH, 00H
	ORG $+3
$SG169860 DB	'vmfplc2.c', 00H
	ORG $+2
$SG170636 DB	'E', 00H
	ORG $+2
$SG169862 DB	'dump_structured_file', 00H
	ORG $+3
$SG169863 DB	'vmfplc2.c', 00H
	ORG $+6
$SG169864 DB	'%s(%d) : warning HHC90999W : *** Assertion Failed! *** f'
	DB	'unction: %s', 0aH, 00H
	ORG $+3
$SG169866 DB	'dump_structured_file', 00H
	ORG $+3
$SG169867 DB	'vmfplc2.c', 00H
	ORG $+6
$SG169868 DB	'%s(%d) : warning HHC90999W : *** Assertion Failed! *** f'
	DB	'unction: %s', 0aH, 00H
	ORG $+3
$SG169877 DB	'dump_structured_file', 00H
	ORG $+3
$SG169876 DB	'HHC02629%s Expected %d bytes from file "%s", but only %d'
	DB	' bytes read', 0aH, 00H
	ORG $+3
$SG169878 DB	'vmfplc2.c', 00H
	ORG $+2
$SG170651 DB	0dH, 0aH, 00H
	ORG $+1
$SG169880 DB	'HHC02627%s I/O error on file "%s": %s', 0aH, 00H
	ORG $+1
$SG169881 DB	'dump_structured_file', 00H
	ORG $+3
$SG169882 DB	'vmfplc2.c', 00H
	ORG $+2
$SG170652 DB	'E', 00H
	ORG $+2
$SG169884 DB	'dump_structured_file', 00H
	ORG $+3
$SG169885 DB	'vmfplc2.c', 00H
	ORG $+6
$SG169886 DB	'%s(%d) : warning HHC90999W : *** Assertion Failed! *** f'
	DB	'unction: %s', 0aH, 00H
	ORG $+3
$SG169888 DB	'dump_structured_file', 00H
	ORG $+3
$SG169889 DB	'vmfplc2.c', 00H
	ORG $+6
$SG169890 DB	'%s(%d) : warning HHC90999W : *** Assertion Failed! *** f'
	DB	'unction: %s', 0aH, 00H
	ORG $+3
$SG169893 DB	'dump_structured_file', 00H
	ORG $+3
$SG169894 DB	'vmfplc2.c', 00H
	ORG $+6
$SG169895 DB	'%s(%d) : warning HHC90999W : *** Assertion Failed! *** f'
	DB	'unction: %s', 0aH, 00H
	ORG $+3
$SG169897 DB	'dump_structured_file', 00H
	ORG $+3
$SG169898 DB	'vmfplc2.c', 00H
	ORG $+6
$SG169899 DB	'%s(%d) : warning HHC90999W : *** Assertion Failed! *** f'
	DB	'unction: %s', 0aH, 00H
	ORG $+3
$SG169925 DB	'0001', 00H
	ORG $+3
$SG169927 DB	'HHC02634%s INTERNAL ERROR %s', 0aH, 00H
	ORG $+2
$SG169928 DB	'dump_file', 00H
	ORG $+2
$SG170666 DB	'I', 00H
	ORG $+2
$SG169929 DB	'vmfplc2.c', 00H
	ORG $+2
$SG170672 DB	'I', 00H
	ORG $+2
$SG170016 DB	'dcb_to_str', 00H
	ORG $+1
$SG170700 DB	'I', 00H
	ORG $+2
$SG170017 DB	'vmfplc2.c', 00H
	ORG $+6
$SG170018 DB	'%s(%d) : warning HHC90999W : *** Assertion Failed! *** f'
	DB	'unction: %s', 0aH, 00H
	ORG $+3
$SG170020 DB	'dcb_to_str', 00H
	ORG $+1
$SG170705 DB	'I', 00H
	ORG $+2
$SG170021 DB	'vmfplc2.c', 00H
	ORG $+2
$SG170026 DB	'%02u', 00H
	ORG $+7
$SG170022 DB	'%s(%d) : warning HHC90999W : *** Assertion Failed! *** f'
	DB	'unction: %s', 0aH, 00H
	ORG $+3
$SG170137 DB	'%2.2s%2.2s-%2.2s-%2.2s %2.2s:%2.2s:%2.2s', 00H
	ORG $+3
$SG170859 DB	'I', 00H
	ORG $+2
$SG170151 DB	'%s/%s/%s %s:%s', 00H
	ORG $+1
$SG170170 DB	'%-8s %-8s %-2s %c %-5u %s recs %4u blks %u', 00H
	ORG $+1
$SG170885 DB	'wb', 00H
	ORG $+1
$SG170188 DB	'%-8s %-8s %-2s %c %-5u %s recs %4u blks %u', 00H
	ORG $+1
$SG170886 DB	'E', 00H
	ORG $+2
$SG170218 DB	'CMS File name too long', 00H
	ORG $+1
$SG170220 DB	'CMS File type too long', 00H
	ORG $+1
$SG170222 DB	'CMS File mode too long', 00H
	ORG $+1
$SG170224 DB	'name', 00H
	ORG $+3
$SG170225 DB	'Invalid character in CMS file %s at position %d', 00H
$SG170227 DB	'type', 00H
	ORG $+3
$SG170228 DB	'Invalid character in CMS file %s at position %d', 00H
$SG170230 DB	'CMS File mode must start with a letter', 00H
	ORG $+1
$SG170233 DB	'CMS File mode number must be 0-6', 00H
	ORG $+3
$SG170904 DB	'W', 00H
	ORG $+2
$SG170343 DB	'Invalid codepage', 00H
	ORG $+3
$SG170908 DB	'@TM', 00H
$SG170345 DB	'File name missing', 00H
	ORG $+2
$SG170909 DB	'I', 00H
	ORG $+2
$SG170350 DB	'parse_ctlfile_stmt', 00H
	ORG $+1
$SG170924 DB	'I', 00H
	ORG $+2
$SG170351 DB	'vmfplc2.c', 00H
	ORG $+6
$SG170354 DB	'parse_ctlfile_stmt', 00H
	ORG $+5
$SG170352 DB	'%s(%d) : warning HHC90999W : *** Assertion Failed! *** f'
	DB	'unction: %s', 0aH, 00H
	ORG $+3
$SG170355 DB	'vmfplc2.c', 00H
	ORG $+6
$SG170359 DB	'File type missing', 00H
	ORG $+6
$SG170356 DB	'%s(%d) : warning HHC90999W : *** Assertion Failed! *** f'
	DB	'unction: %s', 0aH, 00H
	ORG $+3
$SG170361 DB	'File mode missing', 00H
	ORG $+2
$SG170978 DB	'I', 00H
	ORG $+2
$SG170364 DB	'Record format missing', 00H
	ORG $+2
$SG170367 DB	'VARIABLE', 00H
	ORG $+3
$SG170980 DB	'doload', 00H
	ORG $+1
$SG171003 DB	'wb', 00H
	ORG $+1
$SG170368 DB	'Record format must be ''F''ixed or ''V''ariable', 00H
$SG171004 DB	'E', 00H
	ORG $+2
$SG170372 DB	'Logical Record Length missing for ''F''ixed record forma'
	DB	't file', 00H
	ORG $+3
$SG170375 DB	'Logical Record Length must be a numeric value', 00H
	ORG $+2
$SG170378 DB	'Logical Record Length must be between 1 and %u', 00H
	ORG $+1
$SG170380 DB	'File format is missing', 00H
	ORG $+1
$SG170383 DB	'TEXTUAL', 00H
$SG170385 DB	'STRUCTURED', 00H
	ORG $+1
$SG171011 DB	'W', 00H
	ORG $+2
$SG170386 DB	'File format must be either ''B''inary, ''T''extual or '''
	DB	'S''tructured', 00H
	ORG $+1
$SG170388 DB	'Input file name missing', 00H
$SG170393 DB	'parse_ctlfile_stmt', 00H
	ORG $+5
$SG170390 DB	'Dumping structured input to anything other than RECFM V '
	DB	'is not supported', 00H
	ORG $+3
$SG170990 DB	'doload', 00H
	ORG $+1
$SG171015 DB	'@TM', 00H
$SG170394 DB	'vmfplc2.c', 00H
	ORG $+6
$SG170397 DB	'parse_ctlfile_stmt', 00H
	ORG $+5
$SG170395 DB	'%s(%d) : warning HHC90999W : *** Assertion Failed! *** f'
	DB	'unction: %s', 0aH, 00H
	ORG $+3
$SG170398 DB	'vmfplc2.c', 00H
	ORG $+6
$SG170402 DB	'HHC02626%s >>> %s', 0aH, 00H
	ORG $+5
$SG170399 DB	'%s(%d) : warning HHC90999W : *** Assertion Failed! *** f'
	DB	'unction: %s', 0aH, 00H
	ORG $+3
$SG170403 DB	'parse_ctlfile_stmt', 00H
	ORG $+1
$SG171016 DB	'I', 00H
	ORG $+2
$SG170404 DB	'vmfplc2.c', 00H
	ORG $+2
$SG170994 DB	'doload', 00H
	ORG $+1
$SG171031 DB	'I', 00H
	ORG $+2
$SG170406 DB	'HHC02632%s     Bad entry at line %d in file "%s"', 0aH, 00H
	ORG $+2
$SG171006 DB	'doload', 00H
	ORG $+1
$SG171053 DB	'E', 00H
	ORG $+2
$SG170407 DB	'parse_ctlfile_stmt', 00H
	ORG $+5
$SG170408 DB	'vmfplc2.c', 00H
	ORG $+6
$SG170410 DB	'HHC02633%s     %s', 0aH, 00H
	ORG $+5
$SG170411 DB	'parse_ctlfile_stmt', 00H
	ORG $+5
$SG170412 DB	'vmfplc2.c', 00H
	ORG $+6
$SG170434 DB	'HHC02623%s File open error: "%s": %s', 0aH, 00H
	ORG $+2
$SG170435 DB	'parse_ctlfile', 00H
	ORG $+2
$SG170436 DB	'vmfplc2.c', 00H
	ORG $+6
$SG170440 DB	'HHC02627%s I/O error on file "%s": %s', 0aH, 00H
	ORG $+1
$SG170441 DB	'parse_ctlfile', 00H
	ORG $+2
$SG170442 DB	'vmfplc2.c', 00H
	ORG $+6
$SG170444 DB	'parse_ctlfile', 00H
	ORG $+2
$SG170445 DB	'vmfplc2.c', 00H
	ORG $+6
$SG170446 DB	'%s(%d) : warning HHC90999W : *** Assertion Failed! *** f'
	DB	'unction: %s', 0aH, 00H
	ORG $+3
$SG170448 DB	'parse_ctlfile', 00H
	ORG $+2
$SG170449 DB	'vmfplc2.c', 00H
	ORG $+6
$SG170454 DB	'HHC02630%s %d errors encountered', 0aH, 00H
	ORG $+6
$SG170450 DB	'%s(%d) : warning HHC90999W : *** Assertion Failed! *** f'
	DB	'unction: %s', 0aH, 00H
	ORG $+3
$SG170455 DB	'parse_ctlfile', 00H
	ORG $+2
$SG170456 DB	'vmfplc2.c', 00H
	ORG $+6
$SG170486 DB	'DUMPING...', 00H
	ORG $+5
$SG170488 DB	'HHC02625%s %s', 0aH, 00H
	ORG $+1
$SG170490 DB	'vmfplc2.c', 00H
	ORG $+6
$SG170498 DB	'HHC02626%s >>> %s', 0aH, 00H
	ORG $+5
$SG170500 DB	'vmfplc2.c', 00H
	ORG $+6
$SG170504 DB	'HHC02626%s >>> %s', 0aH, 00H
	ORG $+5
$SG170506 DB	'vmfplc2.c', 00H
	ORG $+6
$SG170521 DB	'HHC02633%s     %s', 0aH, 00H
	ORG $+5
$SG170523 DB	'vmfplc2.c', 00H
	ORG $+6
$SG170530 DB	'HHC02626%s >>> %s', 0aH, 00H
	ORG $+5
$SG170532 DB	'vmfplc2.c', 00H
	ORG $+6
$SG170537 DB	'HHC02626%s >>> %s', 0aH, 00H
	ORG $+5
$SG170539 DB	'vmfplc2.c', 00H
	ORG $+6
$SG170542 DB	'HHC02631%s %s complete', 0aH, 00H
$SG170544 DB	'vmfplc2.c', 00H
	ORG $+6
$SG170547 DB	'HHC02635%s Tape "%s" created', 0aH, 00H
	ORG $+2
$SG170549 DB	'vmfplc2.c', 00H
	ORG $+6
$SG170564 DB	'SCANNING...', 00H
	ORG $+4
$SG170566 DB	'HHC02625%s %s', 0aH, 00H
	ORG $+1
$SG170568 DB	'vmfplc2.c', 00H
	ORG $+6
$SG170575 DB	'HHC02626%s >>> %s', 0aH, 00H
	ORG $+5
$SG170577 DB	'vmfplc2.c', 00H
	ORG $+6
$SG170580 DB	'HHC02626%s >>> %s', 0aH, 00H
	ORG $+5
$SG170582 DB	'vmfplc2.c', 00H
	ORG $+6
$SG170585 DB	'HHC02633%s     %s', 0aH, 00H
	ORG $+5
$SG170587 DB	'vmfplc2.c', 00H
	ORG $+6
$SG170590 DB	'HHC02631%s %s complete', 0aH, 00H
$SG170592 DB	'vmfplc2.c', 00H
	ORG $+6
$SG170609 DB	'HHC02627%s I/O error on file "%s": %s', 0aH, 00H
	ORG $+1
$SG170610 DB	'write_siz', 00H
	ORG $+6
$SG170611 DB	'vmfplc2.c', 00H
	ORG $+6
$SG170637 DB	'HHC02627%s I/O error on file "%s": %s', 0aH, 00H
	ORG $+1
$SG170638 DB	'write_rec', 00H
	ORG $+6
$SG170639 DB	'vmfplc2.c', 00H
	ORG $+6
$SG170653 DB	'HHC02627%s I/O error on file "%s": %s', 0aH, 00H
	ORG $+1
$SG170654 DB	'endof_rec', 00H
	ORG $+6
$SG170655 DB	'vmfplc2.c', 00H
	ORG $+6
$SG170665 DB	'LOADING:    %s', 00H
	ORG $+1
$SG170667 DB	'HHC02626%s >>> %s', 0aH, 00H
	ORG $+5
$SG170668 DB	'log_loaded', 00H
	ORG $+5
$SG170669 DB	'vmfplc2.c', 00H
	ORG $+6
$SG170671 DB	'     to:    %s', 00H
	ORG $+1
$SG170673 DB	'HHC02633%s     %s', 0aH, 00H
	ORG $+5
$SG170674 DB	'log_loaded', 00H
	ORG $+5
$SG170675 DB	'vmfplc2.c', 00H
	ORG $+6
$SG170699 DB	'SKIPPED:    %s', 00H
	ORG $+1
$SG170701 DB	'HHC02626%s >>> %s', 0aH, 00H
	ORG $+5
$SG170702 DB	'log_skipped', 00H
	ORG $+4
$SG170703 DB	'vmfplc2.c', 00H
	ORG $+6
$SG170704 DB	'            (no matching ctlfile entry)', 00H
$SG170706 DB	'HHC02633%s     %s', 0aH, 00H
	ORG $+5
$SG170707 DB	'log_skipped', 00H
	ORG $+4
$SG170708 DB	'vmfplc2.c', 00H
	ORG $+6
$SG170784 DB	'load_file', 00H
	ORG $+6
$SG170785 DB	'vmfplc2.c', 00H
	ORG $+6
$SG170858 DB	'LOADING...', 00H
	ORG $+5
$SG170860 DB	'HHC02625%s %s', 0aH, 00H
	ORG $+1
$SG170887 DB	'HHC02623%s File open error: "%s": %s', 0aH, 00H
	ORG $+2
$SG170786 DB	'%s(%d) : warning HHC90999W : *** Assertion Failed! *** f'
	DB	'unction: %s', 0aH, 00H
	ORG $+3
$SG170788 DB	'load_file', 00H
	ORG $+6
$SG170789 DB	'vmfplc2.c', 00H
	ORG $+6
$SG170861 DB	'doload_cms', 00H
	ORG $+5
$SG170905 DB	'HHC02636%s Invalid block encountered @ %d:%d', 0aH, 00H
	ORG $+2
$SG170910 DB	'HHC02633%s     %s', 0aH, 00H
	ORG $+5
$SG170790 DB	'%s(%d) : warning HHC90999W : *** Assertion Failed! *** f'
	DB	'unction: %s', 0aH, 00H
	ORG $+3
$SG170862 DB	'vmfplc2.c', 00H
	ORG $+6
$SG170874 DB	'doload_cms', 00H
	ORG $+5
$SG170875 DB	'vmfplc2.c', 00H
	ORG $+6
$SG170878 DB	'doload_cms', 00H
	ORG $+5
$SG170925 DB	'HHC02631%s %s complete', 0aH, 00H
$SG170876 DB	'%s(%d) : warning HHC90999W : *** Assertion Failed! *** f'
	DB	'unction: %s', 0aH, 00H
	ORG $+3
$SG170879 DB	'vmfplc2.c', 00H
	ORG $+6
$SG170888 DB	'doload_cms', 00H
	ORG $+5
$SG170979 DB	'HHC02625%s %s', 0aH, 00H
	ORG $+1
$SG171005 DB	'HHC02623%s File open error: "%s": %s', 0aH, 00H
	ORG $+2
$SG170880 DB	'%s(%d) : warning HHC90999W : *** Assertion Failed! *** f'
	DB	'unction: %s', 0aH, 00H
	ORG $+3
$SG170889 DB	'vmfplc2.c', 00H
	ORG $+6
$SG170894 DB	'doload_cms', 00H
	ORG $+5
$SG170895 DB	'vmfplc2.c', 00H
	ORG $+6
$SG170898 DB	'doload_cms', 00H
	ORG $+5
$SG171012 DB	'HHC02636%s Invalid block encountered @ %d:%d', 0aH, 00H
	ORG $+2
$SG171013 DB	'doload', 00H
	ORG $+1
$SG170896 DB	'%s(%d) : warning HHC90999W : *** Assertion Failed! *** f'
	DB	'unction: %s', 0aH, 00H
	ORG $+3
$SG170899 DB	'vmfplc2.c', 00H
	ORG $+6
$SG170906 DB	'doload_cms', 00H
	ORG $+5
$SG171017 DB	'HHC02633%s     %s', 0aH, 00H
	ORG $+5
$SG170900 DB	'%s(%d) : warning HHC90999W : *** Assertion Failed! *** f'
	DB	'unction: %s', 0aH, 00H
	ORG $+3
$SG170907 DB	'vmfplc2.c', 00H
	ORG $+6
$SG170911 DB	'doload_cms', 00H
	ORG $+5
$SG170912 DB	'vmfplc2.c', 00H
	ORG $+6
$SG170915 DB	'doload_cms', 00H
	ORG $+5
$SG170916 DB	'vmfplc2.c', 00H
	ORG $+6
$SG170919 DB	'doload_cms', 00H
	ORG $+1
$SG171018 DB	'doload', 00H
	ORG $+5
$SG170917 DB	'%s(%d) : warning HHC90999W : *** Assertion Failed! *** f'
	DB	'unction: %s', 0aH, 00H
	ORG $+3
$SG170920 DB	'vmfplc2.c', 00H
	ORG $+6
$SG170926 DB	'doload_cms', 00H
	ORG $+1
$SG171022 DB	'doload', 00H
	ORG $+5
$SG170921 DB	'%s(%d) : warning HHC90999W : *** Assertion Failed! *** f'
	DB	'unction: %s', 0aH, 00H
	ORG $+3
$SG170927 DB	'vmfplc2.c', 00H
	ORG $+6
$SG170977 DB	'LOADING...', 00H
	ORG $+5
$SG170981 DB	'vmfplc2.c', 00H
	ORG $+6
$SG170991 DB	'vmfplc2.c', 00H
	ORG $+2
$SG171026 DB	'doload', 00H
	ORG $+5
$SG170992 DB	'%s(%d) : warning HHC90999W : *** Assertion Failed! *** f'
	DB	'unction: %s', 0aH, 00H
	ORG $+3
$SG170995 DB	'vmfplc2.c', 00H
	ORG $+6
$SG171032 DB	'HHC02631%s %s complete', 0aH, 00H
$SG170996 DB	'%s(%d) : warning HHC90999W : *** Assertion Failed! *** f'
	DB	'unction: %s', 0aH, 00H
	ORG $+3
$SG171007 DB	'vmfplc2.c', 00H
	ORG $+6
$SG171014 DB	'vmfplc2.c', 00H
	ORG $+6
$SG171019 DB	'vmfplc2.c', 00H
	ORG $+6
$SG171023 DB	'vmfplc2.c', 00H
	ORG $+2
$SG171033 DB	'doload', 00H
	ORG $+5
$SG171024 DB	'%s(%d) : warning HHC90999W : *** Assertion Failed! *** f'
	DB	'unction: %s', 0aH, 00H
	ORG $+3
$SG171027 DB	'vmfplc2.c', 00H
	ORG $+6
$SG171045 DB	'VM/CMS VMFPLC2/TAPE Utility', 00H
$SG171052 DB	'0002', 00H
	ORG $+7
$SG171028 DB	'%s(%d) : warning HHC90999W : *** Assertion Failed! *** f'
	DB	'unction: %s', 0aH, 00H
	ORG $+3
$SG171034 DB	'vmfplc2.c', 00H
	ORG $+6
$SG171046 DB	'vmfplc2', 00H
$SG171054 DB	'HHC02634%s INTERNAL ERROR %s', 0aH, 00H
	ORG $+2
$SG171055 DB	'main', 00H
	ORG $+3
$SG171056 DB	'vmfplc2.c', 00H
_DATA	ENDS
voltbl	SEGMENT
_volmd	DD	0ffffffffH
	DDSymXIndex: 	FLAT:main
	DD	021H
	DD	0146H
_volmd	DD	0ffffffffH
	DDSymXIndex: 	FLAT:doload
	DD	018H
	DD	07c0H
_volmd	DD	0ffffffffH
	DDSymXIndex: 	FLAT:doload_cms
	DD	018H
	DD	0888H
_volmd	DD	0ffffffffH
	DDSymXIndex: 	FLAT:log_fst_skipped
	DD	01bH
	DD	050H
_volmd	DD	0ffffffffH
	DDSymXIndex: 	FLAT:log_cms_skipped
	DD	01bH
	DD	050H
_volmd	DD	0ffffffffH
	DDSymXIndex: 	FLAT:log_skipped
	DD	016H
	DD	0e1H
_volmd	DD	0ffffffffH
	DDSymXIndex: 	FLAT:log_fst_loaded
	DD	020H
	DD	055H
_volmd	DD	0ffffffffH
	DDSymXIndex: 	FLAT:log_cms_loaded
	DD	020H
	DD	055H
_volmd	DD	0ffffffffH
	DDSymXIndex: 	FLAT:log_loaded
	DD	020H
	DD	011cH
_volmd	DD	0ffffffffH
	DDSymXIndex: 	FLAT:doscan
	DD	018H
	DD	036cH
_volmd	DD	0ffffffffH
	DDSymXIndex: 	FLAT:dodump
	DD	016H
	DD	0849H
_volmd	DD	0ffffffffH
	DDSymXIndex: 	FLAT:parse_ctlfile_stmt
	DD	027H
	DD	0ae7H
_volmd	DD	0ffffffffH
	DDSymXIndex: 	FLAT:format_cms_info
	DD	021H
	DD	01dbH
_volmd	DD	0ffffffffH
	DDSymXIndex: 	FLAT:format_fst_info
	DD	021H
	DD	0229H
voltbl	ENDS
;	COMDAT xdata
xdata	SEGMENT
$unwind$fetch_fw_noswap DD 010901H
	DD	02209H
xdata	ENDS
;	COMDAT xdata
xdata	SEGMENT
$unwind$fetch_hw_noswap DD 010901H
	DD	02209H
xdata	ENDS
xdata	SEGMENT
$unwind$localtime DD 010901H
	DD	04209H
$unwind$DebuggerTrace DD 011801H
	DD	0a218H
$unwind$strcaseabbrev DD 011301H
	DD	08213H
$unwind$strupper DD 010e01H
	DD	0620eH
$unwind$syntax DD 010401H
	DD	08204H
$unwind$parse_parms DD 021501H
	DD	0150115H
$unwind$tape_close DD 010901H
	DD	04209H
$unwind$tape_open DD 010901H
	DD	0e209H
$unwind$tape_rewind DD 010901H
	DD	0e209H
$unwind$tape_fsb DD 010901H
	DD	0e209H
$unwind$tape_set_position DD 010d01H
	DD	0620dH
$unwind$tape_read DD 010901H
	DD	0e209H
$unwind$tape_write_mark DD 010901H
	DD	0e209H
$unwind$tape_write_block DD 011301H
	DD	0e213H
$unwind$write_TAPE_BLOCK DD 011801H
	DD	06218H
$unwind$write_TAPE_BLOCKS DD 010e01H
	DD	0620eH
$unwind$init_blocks DD 011801H
	DD	06218H
$unwind$append_data DD 031501H
	DD	070118215H
	DD	06010H
$unwind$free_blocks DD 010901H
	DD	06209H
$unwind$initrecs DD 011701H
	DD	08217H
$unwind$addrecs DD 011301H
	DD	06213H
$unwind$flushrecs DD 021901H
	DD	070159219H
$unwind$dump_binary_file DD 021b01H
	DD	013011bH
$unwind$dump_text_file DD 031c01H
	DD	016011cH
	DD	07015H
$unwind$dump_structured_file DD 021b01H
	DD	017011bH
$unwind$dump_file DD 011801H
	DD	0a218H
$unwind$to_dcb DD 010801H
	DD	02208H
$unwind$dcb_to_str DD 021901H
	DD	070155219H
$unwind$build_fst_block DD 031a01H
	DD	07016821aH
	DD	06015H
$unwind$build_cms_block DD 031a01H
	DD	07016821aH
	DD	06015H
$unwind$format_fst_datetime DD 021701H
	DD	07010f217H
$unwind$format_cms_datetime DD 021401H
	DD	07010b214H
$unwind$format_fst_info DD 032919H
	DD	0180117H
	DD	07010H
	DD	imagerel __GSHandlerCheck
	DD	0b0H
$unwind$format_cms_info DD 032919H
	DD	0180117H
	DD	07010H
	DD	imagerel __GSHandlerCheck
	DD	0b0H
$unwind$validate_fnft DD 010901H
	DD	02209H
$unwind$validate_cmsfile DD 011301H
	DD	08213H
$unwind$add_ctltab_entry DD 030b01H
	DD	07007620bH
	DD	06006H
$unwind$find_ctltab_entry DD 011301H
	DD	06213H
$unwind$parse_ctlfile_stmt DD 032f19H
	DD	0432011dH
	DD	07010H
	DD	imagerel __GSHandlerCheck
	DD	02180H
$unwind$parse_ctlfile DD 020c01H
	DD	011010cH
$unwind$dodump DD 021e19H
	DD	023010cH
	DD	imagerel __GSHandlerCheck
	DD	0100H
$unwind$doscan DD 042019H
	DD	031010eH
	DD	060067007H
	DD	imagerel __GSHandlerCheck
	DD	0170H
$unwind$write_siz DD 011801H
	DD	0c218H
$unwind$write_rec DD 011801H
	DD	0c218H
$unwind$endof_rec DD 011201H
	DD	0c212H
$unwind$log_loaded DD 022819H
	DD	0370116H
	DD	imagerel __GSHandlerCheck
	DD	01a0H
$unwind$log_cms_loaded DD 022519H
	DD	0110116H
	DD	imagerel __GSHandlerCheck
	DD	070H
$unwind$log_fst_loaded DD 022519H
	DD	0110116H
	DD	imagerel __GSHandlerCheck
	DD	070H
$unwind$log_skipped DD 021e19H
	DD	037010cH
	DD	imagerel __GSHandlerCheck
	DD	01a0H
$unwind$log_cms_skipped DD 022019H
	DD	0110111H
	DD	imagerel __GSHandlerCheck
	DD	070H
$unwind$log_fst_skipped DD 022019H
	DD	0110111H
	DD	imagerel __GSHandlerCheck
	DD	070H
$unwind$load_file DD 021b01H
	DD	011011bH
$unwind$doload_cms DD 042019H
	DD	02b010eH
	DD	060067007H
	DD	imagerel __GSHandlerCheck
	DD	0140H
$unwind$doload DD 042019H
	DD	027010eH
	DD	060067007H
	DD	imagerel __GSHandlerCheck
	DD	0120H
$unwind$main DD	032919H
	DD	03860117H
	DD	0700aH
	DD	imagerel __GSHandlerCheck
	DD	01c20H
xdata	ENDS
;	COMDAT xdata
xdata	SEGMENT
$unwind$_vsnprintf_s DD 011801H
	DD	06218H
xdata	ENDS
;	COMDAT xdata
xdata	SEGMENT
$unwind$_vsnprintf_s_l DD 011801H
	DD	0a218H
xdata	ENDS
; Function compile flags: /Odtp
; File C:\papa\MyGit\hyperion-zvector\vmfplc2.c
_TEXT	SEGMENT
rc$ = 64
tv80 = 68
opts$ = 80
__$ArrayPad$ = 7200
argc$ = 7232
argv$ = 7240
main	PROC

; 2804 : {

$LN10:
  00000	48 89 54 24 10	 mov	 QWORD PTR [rsp+16], rdx
  00005	89 4c 24 08	 mov	 DWORD PTR [rsp+8], ecx
  00009	57		 push	 rdi
  0000a	b8 30 1c 00 00	 mov	 eax, 7216		; 00001c30H
  0000f	e8 00 00 00 00	 call	 __chkstk
  00014	48 2b e0	 sub	 rsp, rax
  00017	48 8b 05 00 00
	00 00		 mov	 rax, QWORD PTR __security_cookie
  0001e	48 33 c4	 xor	 rax, rsp
  00021	48 89 84 24 20
	1c 00 00	 mov	 QWORD PTR __$ArrayPad$[rsp], rax

; 2805 :     int      rc;
; 2806 :     OPTIONS  opts  = {0};

  00029	48 8d 44 24 50	 lea	 rax, QWORD PTR opts$[rsp]
  0002e	48 8b f8	 mov	 rdi, rax
  00031	33 c0		 xor	 eax, eax
  00033	b9 d0 1b 00 00	 mov	 ecx, 7120		; 00001bd0H
  00038	f3 aa		 rep stosb

; 2807 : 
; 2808 :     INITIALIZE_UTILITY( UTILITY_NAME, UTILITY_DESC, &pgm );

  0003a	48 8d 05 00 00
	00 00		 lea	 rax, OFFSET FLAT:pgm
  00041	48 89 44 24 20	 mov	 QWORD PTR [rsp+32], rax
  00046	4c 8d 0d 00 00
	00 00		 lea	 r9, OFFSET FLAT:$SG171045
  0004d	4c 8d 05 00 00
	00 00		 lea	 r8, OFFSET FLAT:$SG171046
  00054	48 8b 94 24 48
	1c 00 00	 mov	 rdx, QWORD PTR argv$[rsp]
  0005c	8b 8c 24 40 1c
	00 00		 mov	 ecx, DWORD PTR argc$[rsp]
  00063	ff 15 00 00 00
	00		 call	 QWORD PTR __imp_initialize_utility
  00069	89 84 24 40 1c
	00 00		 mov	 DWORD PTR argc$[rsp], eax

; 2809 : 
; 2810 :     if (parse_parms( argc, argv, &opts ) != 0)

  00070	4c 8d 44 24 50	 lea	 r8, QWORD PTR opts$[rsp]
  00075	48 8b 94 24 48
	1c 00 00	 mov	 rdx, QWORD PTR argv$[rsp]
  0007d	8b 8c 24 40 1c
	00 00		 mov	 ecx, DWORD PTR argc$[rsp]
  00084	e8 00 00 00 00	 call	 parse_parms
  00089	85 c0		 test	 eax, eax
  0008b	74 0a		 je	 SHORT $LN4@main

; 2811 :         return -1;

  0008d	b8 ff ff ff ff	 mov	 eax, -1
  00092	e9 af 00 00 00	 jmp	 $LN1@main
$LN4@main:

; 2812 : 
; 2813 :     switch (opts.verb)

  00097	0f b6 44 24 6d	 movzx	 eax, BYTE PTR opts$[rsp+29]
  0009c	88 44 24 44	 mov	 BYTE PTR tv80[rsp], al
  000a0	80 7c 24 44 00	 cmp	 BYTE PTR tv80[rsp], 0
  000a5	74 10		 je	 SHORT $LN5@main
  000a7	80 7c 24 44 01	 cmp	 BYTE PTR tv80[rsp], 1
  000ac	74 29		 je	 SHORT $LN7@main
  000ae	80 7c 24 44 02	 cmp	 BYTE PTR tv80[rsp], 2
  000b3	74 12		 je	 SHORT $LN6@main
  000b5	eb 30		 jmp	 SHORT $LN8@main
$LN5@main:

; 2814 :     {
; 2815 :         case DUMP_VERB: rc = dodump( &opts ); break;

  000b7	48 8d 4c 24 50	 lea	 rcx, QWORD PTR opts$[rsp]
  000bc	e8 00 00 00 00	 call	 dodump
  000c1	89 44 24 40	 mov	 DWORD PTR rc$[rsp], eax
  000c5	eb 7b		 jmp	 SHORT $LN2@main
$LN6@main:

; 2816 :         case SCAN_VERB: rc = doscan( &opts ); break;

  000c7	48 8d 4c 24 50	 lea	 rcx, QWORD PTR opts$[rsp]
  000cc	e8 00 00 00 00	 call	 doscan
  000d1	89 44 24 40	 mov	 DWORD PTR rc$[rsp], eax
  000d5	eb 6b		 jmp	 SHORT $LN2@main
$LN7@main:

; 2817 :         case LOAD_VERB: rc = doload( &opts ); break;

  000d7	48 8d 4c 24 50	 lea	 rcx, QWORD PTR opts$[rsp]
  000dc	e8 00 00 00 00	 call	 doload
  000e1	89 44 24 40	 mov	 DWORD PTR rc$[rsp], eax
  000e5	eb 5b		 jmp	 SHORT $LN2@main
$LN8@main:

; 2818 : 
; 2819 :         default:
; 2820 :             // "INTERNAL ERROR %s"
; 2821 :             FWRMSG( stderr, HHC02634, "E", "0002" );

  000e7	b9 02 00 00 00	 mov	 ecx, 2
  000ec	ff 15 00 00 00
	00		 call	 QWORD PTR __imp___acrt_iob_func
  000f2	48 8d 0d 00 00
	00 00		 lea	 rcx, OFFSET FLAT:$SG171052
  000f9	48 89 4c 24 38	 mov	 QWORD PTR [rsp+56], rcx
  000fe	48 8d 0d 00 00
	00 00		 lea	 rcx, OFFSET FLAT:$SG171053
  00105	48 89 4c 24 30	 mov	 QWORD PTR [rsp+48], rcx
  0010a	48 8d 0d 00 00
	00 00		 lea	 rcx, OFFSET FLAT:$SG171054
  00111	48 89 4c 24 28	 mov	 QWORD PTR [rsp+40], rcx
  00116	48 89 44 24 20	 mov	 QWORD PTR [rsp+32], rax
  0011b	41 b9 03 00 00
	00		 mov	 r9d, 3
  00121	4c 8d 05 00 00
	00 00		 lea	 r8, OFFSET FLAT:$SG171055
  00128	ba 05 0b 00 00	 mov	 edx, 2821		; 00000b05H
  0012d	48 8d 0d 00 00
	00 00		 lea	 rcx, OFFSET FLAT:$SG171056
  00134	ff 15 00 00 00
	00		 call	 QWORD PTR __imp_fwritemsg

; 2822 :             rc = -1;

  0013a	c7 44 24 40 ff
	ff ff ff	 mov	 DWORD PTR rc$[rsp], -1
$LN2@main:

; 2823 :             break;
; 2824 :     }
; 2825 : 
; 2826 :     return rc;

  00142	8b 44 24 40	 mov	 eax, DWORD PTR rc$[rsp]
$LN1@main:

; 2827 : }

  00146	48 8b 8c 24 20
	1c 00 00	 mov	 rcx, QWORD PTR __$ArrayPad$[rsp]
  0014e	48 33 cc	 xor	 rcx, rsp
  00151	e8 00 00 00 00	 call	 __security_check_cookie
  00156	48 81 c4 30 1c
	00 00		 add	 rsp, 7216		; 00001c30H
  0015d	5f		 pop	 rdi
  0015e	c3		 ret	 0
main	ENDP
_TEXT	ENDS
; Function compile flags: /Odtp
; File C:\papa\MyGit\hyperion-zvector\vmfplc2.c
_TEXT	SEGMENT
rc$ = 80
recfm$ = 84
i$ = 88
rszsplit$ = 92
blksize$ = 96
tapemark_count$ = 100
ctl$ = 104
ofile$ = 112
rsz1$ = 120
recs$ = 124
recrem$ = 128
fm$ = 132
recl$ = 136
tv282 = 140
$T1 = 144
$T2 = 152
tv244 = 160
tv356 = 168
fst$ = 176
ft$ = 256
fn$ = 272
__$ArrayPad$ = 288
opts$ = 336
doload	PROC

; 2650 : {

  00000	48 89 4c 24 08	 mov	 QWORD PTR [rsp+8], rcx
  00005	56		 push	 rsi
  00006	57		 push	 rdi
  00007	48 81 ec 38 01
	00 00		 sub	 rsp, 312		; 00000138H
  0000e	48 8b 05 00 00
	00 00		 mov	 rax, QWORD PTR __security_cookie
  00015	48 33 c4	 xor	 rax, rsp
  00018	48 89 84 24 20
	01 00 00	 mov	 QWORD PTR __$ArrayPad$[rsp], rax

; 2651 :     FILE*    ofile = NULL;

  00020	48 c7 44 24 70
	00 00 00 00	 mov	 QWORD PTR ofile$[rsp], 0

; 2652 :     CTLTAB*  ctl;
; 2653 :     FST      fst;
; 2654 : 
; 2655 :     int   i, rc = 0;

  00029	c7 44 24 50 00
	00 00 00	 mov	 DWORD PTR rc$[rsp], 0

; 2656 :     int   blksize;              // (size of current tape block)
; 2657 :     int   recrem = 0;           // (unwritten record bytes remaining)

  00031	c7 84 24 80 00
	00 00 00 00 00
	00		 mov	 DWORD PTR recrem$[rsp], 0

; 2658 :     int   recl, recs;
; 2659 :     int   tapemark_count = 0;

  0003c	c7 44 24 64 00
	00 00 00	 mov	 DWORD PTR tapemark_count$[rsp], 0

; 2660 : 
; 2661 :     char  fn [ sizeof( fst.fn ) + 1 ]  = {0};

  00044	48 8d 84 24 10
	01 00 00	 lea	 rax, QWORD PTR fn$[rsp]
  0004c	48 8b f8	 mov	 rdi, rax
  0004f	33 c0		 xor	 eax, eax
  00051	b9 09 00 00 00	 mov	 ecx, 9
  00056	f3 aa		 rep stosb

; 2662 :     char  ft [ sizeof( fst.ft ) + 1 ]  = {0};

  00058	48 8d 84 24 00
	01 00 00	 lea	 rax, QWORD PTR ft$[rsp]
  00060	48 8b f8	 mov	 rdi, rax
  00063	33 c0		 xor	 eax, eax
  00065	b9 09 00 00 00	 mov	 ecx, 9
  0006a	f3 aa		 rep stosb

; 2663 :     char  fm [ sizeof( fst.fm ) + 1 ]  = {0};

  0006c	48 8d 84 24 84
	00 00 00	 lea	 rax, QWORD PTR fm$[rsp]
  00074	48 8b f8	 mov	 rdi, rax
  00077	33 c0		 xor	 eax, eax
  00079	b9 03 00 00 00	 mov	 ecx, 3
  0007e	f3 aa		 rep stosb

; 2664 :     char  recfm;
; 2665 : 
; 2666 :     bool  rszsplit = false;     // (SPECIAL: rsz split across 2 blocks)

  00080	c6 44 24 5c 00	 mov	 BYTE PTR rszsplit$[rsp], 0

; 2667 :     BYTE  rsz1;                 // (SPECIAL: 1st byte of record size)
; 2668 : 
; 2669 : 
; 2670 :     /* Process CMS 'TAPE' formatted dump tape if requested */
; 2671 :     if (opts->cms)

  00085	48 8b 84 24 50
	01 00 00	 mov	 rax, QWORD PTR opts$[rsp]
  0008d	0f b6 40 18	 movzx	 eax, BYTE PTR [rax+24]
  00091	85 c0		 test	 eax, eax
  00093	74 12		 je	 SHORT $LN22@doload

; 2672 :         return doload_cms( opts );

  00095	48 8b 8c 24 50
	01 00 00	 mov	 rcx, QWORD PTR opts$[rsp]
  0009d	e8 00 00 00 00	 call	 doload_cms
  000a2	e9 19 07 00 00	 jmp	 $LN1@doload
$LN22@doload:

; 2673 : 
; 2674 :     // "%s"
; 2675 :     WRMSG( HHC02625, "I", "LOADING..." );

  000a7	b9 01 00 00 00	 mov	 ecx, 1
  000ac	ff 15 00 00 00
	00		 call	 QWORD PTR __imp___acrt_iob_func
  000b2	48 8d 0d 00 00
	00 00		 lea	 rcx, OFFSET FLAT:$SG170977
  000b9	48 89 4c 24 38	 mov	 QWORD PTR [rsp+56], rcx
  000be	48 8d 0d 00 00
	00 00		 lea	 rcx, OFFSET FLAT:$SG170978
  000c5	48 89 4c 24 30	 mov	 QWORD PTR [rsp+48], rcx
  000ca	48 8d 0d 00 00
	00 00		 lea	 rcx, OFFSET FLAT:$SG170979
  000d1	48 89 4c 24 28	 mov	 QWORD PTR [rsp+40], rcx
  000d6	48 89 44 24 20	 mov	 QWORD PTR [rsp+32], rax
  000db	41 b9 03 00 00
	00		 mov	 r9d, 3
  000e1	4c 8d 05 00 00
	00 00		 lea	 r8, OFFSET FLAT:$SG170980
  000e8	ba 73 0a 00 00	 mov	 edx, 2675		; 00000a73H
  000ed	48 8d 0d 00 00
	00 00		 lea	 rcx, OFFSET FLAT:$SG170981
  000f4	ff 15 00 00 00
	00		 call	 QWORD PTR __imp_fwritemsg

; 2676 : 
; 2677 :     /* Parse the DUMP control file */
; 2678 :     if ((rc = parse_ctlfile( opts )) != 0)

  000fa	48 8b 8c 24 50
	01 00 00	 mov	 rcx, QWORD PTR opts$[rsp]
  00102	e8 00 00 00 00	 call	 parse_ctlfile
  00107	89 44 24 50	 mov	 DWORD PTR rc$[rsp], eax
  0010b	83 7c 24 50 00	 cmp	 DWORD PTR rc$[rsp], 0
  00110	74 09		 je	 SHORT $LN23@doload

; 2679 :         return rc;

  00112	8b 44 24 50	 mov	 eax, DWORD PTR rc$[rsp]
  00116	e9 a5 06 00 00	 jmp	 $LN1@doload
$LN23@doload:

; 2680 : 
; 2681 :     /* Open the input tape file */
; 2682 :     if ((rc = tape_open( opts )) != 0)

  0011b	48 8b 8c 24 50
	01 00 00	 mov	 rcx, QWORD PTR opts$[rsp]
  00123	e8 00 00 00 00	 call	 tape_open
  00128	89 44 24 50	 mov	 DWORD PTR rc$[rsp], eax
  0012c	83 7c 24 50 00	 cmp	 DWORD PTR rc$[rsp], 0
  00131	74 09		 je	 SHORT $LN24@doload

; 2683 :         return rc;

  00133	8b 44 24 50	 mov	 eax, DWORD PTR rc$[rsp]
  00137	e9 84 06 00 00	 jmp	 $LN1@doload
$LN24@doload:
$LN53@doload:
$LN52@doload:
$LN51@doload:
$LN2@doload:

; 2684 : 
; 2685 :     /* Read tape until end-of-tape reached (two tapemarks in a row) */
; 2686 :     while (1
; 2687 :         && rc >= 0
; 2688 :         && tapemark_count < 2
; 2689 :         && (rc = tape_read( opts )) >= 0

  0013c	33 c0		 xor	 eax, eax
  0013e	83 f8 01	 cmp	 eax, 1
  00141	0f 84 7f 05 00
	00		 je	 $LN3@doload
  00147	83 7c 24 50 00	 cmp	 DWORD PTR rc$[rsp], 0
  0014c	0f 8c 74 05 00
	00		 jl	 $LN3@doload
  00152	83 7c 24 64 02	 cmp	 DWORD PTR tapemark_count$[rsp], 2
  00157	0f 8d 69 05 00
	00		 jge	 $LN3@doload
  0015d	48 8b 8c 24 50
	01 00 00	 mov	 rcx, QWORD PTR opts$[rsp]
  00165	e8 00 00 00 00	 call	 tape_read
  0016a	89 44 24 50	 mov	 DWORD PTR rc$[rsp], eax
  0016e	83 7c 24 50 00	 cmp	 DWORD PTR rc$[rsp], 0
  00173	0f 8c 4d 05 00
	00		 jl	 $LN3@doload

; 2690 :     )
; 2691 :     {
; 2692 :         blksize = rc;

  00179	8b 44 24 50	 mov	 eax, DWORD PTR rc$[rsp]
  0017d	89 44 24 60	 mov	 DWORD PTR blksize$[rsp], eax

; 2693 : 
; 2694 :         if (blksize)

  00181	83 7c 24 60 00	 cmp	 DWORD PTR blksize$[rsp], 0
  00186	0f 84 d8 04 00
	00		 je	 $LN25@doload

; 2695 :         {
; 2696 :             tapemark_count = 0;

  0018c	c7 44 24 64 00
	00 00 00	 mov	 DWORD PTR tapemark_count$[rsp], 0

; 2697 : 
; 2698 :             /* Is this a PLCH header (FST) block? */
; 2699 :             if (1
; 2700 :                 && blksize >= BLK_HDRSIZE
; 2701 :                 && memcmp( bfr, PLCH_hdr, BLK_HDRSIZE ) == 0

  00194	33 c0		 xor	 eax, eax
  00196	83 f8 01	 cmp	 eax, 1
  00199	0f 84 a6 03 00
	00		 je	 $LN27@doload
  0019f	83 7c 24 60 05	 cmp	 DWORD PTR blksize$[rsp], 5
  001a4	0f 8c 9b 03 00
	00		 jl	 $LN27@doload
  001aa	41 b8 05 00 00
	00		 mov	 r8d, 5
  001b0	48 8d 15 00 00
	00 00		 lea	 rdx, OFFSET FLAT:PLCH_hdr
  001b7	48 8d 0d 00 00
	00 00		 lea	 rcx, OFFSET FLAT:bfr
  001be	e8 00 00 00 00	 call	 memcmp
  001c3	85 c0		 test	 eax, eax
  001c5	0f 85 7a 03 00
	00		 jne	 $LN27@doload

; 2702 :             )
; 2703 :             {
; 2704 :                 /* Close output file if opened */
; 2705 :                 if (ofile)

  001cb	48 83 7c 24 70
	00		 cmp	 QWORD PTR ofile$[rsp], 0
  001d1	74 7a		 je	 SHORT $LN29@doload
$LN6@doload:

; 2706 :                 {
; 2707 :                     VERIFY( fclose( ofile ) == 0 );

  001d3	48 8b 4c 24 70	 mov	 rcx, QWORD PTR ofile$[rsp]
  001d8	ff 15 00 00 00
	00		 call	 QWORD PTR __imp_w32_fclose
  001de	85 c0		 test	 eax, eax
  001e0	74 5c		 je	 SHORT $LN30@doload
$LN9@doload:
  001e2	4c 8d 0d 00 00
	00 00		 lea	 r9, OFFSET FLAT:$SG170990
  001e9	41 b8 93 0a 00
	00		 mov	 r8d, 2707		; 00000a93H
  001ef	48 8d 15 00 00
	00 00		 lea	 rdx, OFFSET FLAT:$SG170991
  001f6	48 8d 0d 00 00
	00 00		 lea	 rcx, OFFSET FLAT:$SG170992
  001fd	ff 15 00 00 00
	00		 call	 QWORD PTR __imp_logmsg
  00203	ff 15 00 00 00
	00		 call	 QWORD PTR __imp_IsDebuggerPresent
  00209	85 c0		 test	 eax, eax
  0020b	74 20		 je	 SHORT $LN31@doload
  0020d	4c 8d 0d 00 00
	00 00		 lea	 r9, OFFSET FLAT:$SG170994
  00214	41 b8 93 0a 00
	00		 mov	 r8d, 2707		; 00000a93H
  0021a	48 8d 15 00 00
	00 00		 lea	 rdx, OFFSET FLAT:$SG170995
  00221	48 8d 0d 00 00
	00 00		 lea	 rcx, OFFSET FLAT:$SG170996
  00228	e8 00 00 00 00	 call	 DebuggerTrace
$LN31@doload:
  0022d	33 c0		 xor	 eax, eax
  0022f	85 c0		 test	 eax, eax
  00231	75 af		 jne	 SHORT $LN9@doload
  00233	ff 15 00 00 00
	00		 call	 QWORD PTR __imp_IsDebuggerPresent
  00239	85 c0		 test	 eax, eax
  0023b	74 01		 je	 SHORT $LN32@doload
  0023d	cc		 int	 3
$LN32@doload:
$LN30@doload:
  0023e	33 c0		 xor	 eax, eax
  00240	85 c0		 test	 eax, eax
  00242	75 8f		 jne	 SHORT $LN6@doload

; 2708 :                     ofile = NULL;

  00244	48 c7 44 24 70
	00 00 00 00	 mov	 QWORD PTR ofile$[rsp], 0
$LN29@doload:

; 2709 :                 }
; 2710 : 
; 2711 :                 /* Extract needed FST information */
; 2712 :                 memcpy( &fst, &bfr[ BLK_HDRSIZE ], sizeof( FST ));

  0024d	b8 01 00 00 00	 mov	 eax, 1
  00252	48 6b c0 05	 imul	 rax, rax, 5
  00256	48 8d 0d 00 00
	00 00		 lea	 rcx, OFFSET FLAT:bfr
  0025d	48 8d 94 24 b0
	00 00 00	 lea	 rdx, QWORD PTR fst$[rsp]
  00265	48 8b fa	 mov	 rdi, rdx
  00268	48 8d 34 01	 lea	 rsi, QWORD PTR [rcx+rax]
  0026c	b9 48 00 00 00	 mov	 ecx, 72			; 00000048H
  00271	f3 a4		 rep movsb

; 2713 : 
; 2714 :                 str_guest_to_host( fst.fn, fn, sizeof( fst.fn ));

  00273	41 b8 08 00 00
	00		 mov	 r8d, 8
  00279	48 8d 94 24 10
	01 00 00	 lea	 rdx, QWORD PTR fn$[rsp]
  00281	48 8d 8c 24 b0
	00 00 00	 lea	 rcx, QWORD PTR fst$[rsp]
  00289	ff 15 00 00 00
	00		 call	 QWORD PTR __imp_str_guest_to_host

; 2715 :                 str_guest_to_host( fst.ft, ft, sizeof( fst.ft ));

  0028f	41 b8 08 00 00
	00		 mov	 r8d, 8
  00295	48 8d 94 24 00
	01 00 00	 lea	 rdx, QWORD PTR ft$[rsp]
  0029d	48 8d 8c 24 b8
	00 00 00	 lea	 rcx, QWORD PTR fst$[rsp+8]
  002a5	ff 15 00 00 00
	00		 call	 QWORD PTR __imp_str_guest_to_host

; 2716 :                 str_guest_to_host( fst.fm, fm, sizeof( fst.fm ));

  002ab	41 b8 02 00 00
	00		 mov	 r8d, 2
  002b1	48 8d 94 24 84
	00 00 00	 lea	 rdx, QWORD PTR fm$[rsp]
  002b9	48 8d 8c 24 c8
	00 00 00	 lea	 rcx, QWORD PTR fst$[rsp+24]
  002c1	ff 15 00 00 00
	00		 call	 QWORD PTR __imp_str_guest_to_host

; 2717 : 
; 2718 :                 /* Remove trailing blanks from fn and ft */
; 2719 :                 for (i=(int)(sizeof( fst.fn ) - 1); i >= 0 && fn[i] == ' '; fn[i]=0, i--);

  002c7	c7 44 24 58 07
	00 00 00	 mov	 DWORD PTR i$[rsp], 7
  002cf	eb 39		 jmp	 SHORT $LN12@doload
$LN10@doload:
  002d1	48 63 44 24 58	 movsxd	 rax, DWORD PTR i$[rsp]
  002d6	48 89 84 24 90
	00 00 00	 mov	 QWORD PTR $T1[rsp], rax
  002de	48 83 bc 24 90
	00 00 00 09	 cmp	 QWORD PTR $T1[rsp], 9
  002e7	73 02		 jae	 SHORT $LN47@doload
  002e9	eb 05		 jmp	 SHORT $LN48@doload
$LN47@doload:
  002eb	e8 00 00 00 00	 call	 __report_rangecheckfailure
$LN48@doload:
  002f0	48 8b 84 24 90
	00 00 00	 mov	 rax, QWORD PTR $T1[rsp]
  002f8	c6 84 04 10 01
	00 00 00	 mov	 BYTE PTR fn$[rsp+rax], 0
  00300	8b 44 24 58	 mov	 eax, DWORD PTR i$[rsp]
  00304	ff c8		 dec	 eax
  00306	89 44 24 58	 mov	 DWORD PTR i$[rsp], eax
$LN12@doload:
  0030a	83 7c 24 58 00	 cmp	 DWORD PTR i$[rsp], 0
  0030f	7c 14		 jl	 SHORT $LN11@doload
  00311	48 63 44 24 58	 movsxd	 rax, DWORD PTR i$[rsp]
  00316	0f be 84 04 10
	01 00 00	 movsx	 eax, BYTE PTR fn$[rsp+rax]
  0031e	83 f8 20	 cmp	 eax, 32			; 00000020H
  00321	75 02		 jne	 SHORT $LN11@doload
  00323	eb ac		 jmp	 SHORT $LN10@doload
$LN11@doload:

; 2720 :                 for (i=(int)(sizeof( fst.ft ) - 1); i >= 0 && ft[i] == ' '; ft[i]=0, i--);

  00325	c7 44 24 58 07
	00 00 00	 mov	 DWORD PTR i$[rsp], 7
  0032d	eb 39		 jmp	 SHORT $LN15@doload
$LN13@doload:
  0032f	48 63 44 24 58	 movsxd	 rax, DWORD PTR i$[rsp]
  00334	48 89 84 24 98
	00 00 00	 mov	 QWORD PTR $T2[rsp], rax
  0033c	48 83 bc 24 98
	00 00 00 09	 cmp	 QWORD PTR $T2[rsp], 9
  00345	73 02		 jae	 SHORT $LN49@doload
  00347	eb 05		 jmp	 SHORT $LN50@doload
$LN49@doload:
  00349	e8 00 00 00 00	 call	 __report_rangecheckfailure
$LN50@doload:
  0034e	48 8b 84 24 98
	00 00 00	 mov	 rax, QWORD PTR $T2[rsp]
  00356	c6 84 04 00 01
	00 00 00	 mov	 BYTE PTR ft$[rsp+rax], 0
  0035e	8b 44 24 58	 mov	 eax, DWORD PTR i$[rsp]
  00362	ff c8		 dec	 eax
  00364	89 44 24 58	 mov	 DWORD PTR i$[rsp], eax
$LN15@doload:
  00368	83 7c 24 58 00	 cmp	 DWORD PTR i$[rsp], 0
  0036d	7c 14		 jl	 SHORT $LN14@doload
  0036f	48 63 44 24 58	 movsxd	 rax, DWORD PTR i$[rsp]
  00374	0f be 84 04 00
	01 00 00	 movsx	 eax, BYTE PTR ft$[rsp+rax]
  0037c	83 f8 20	 cmp	 eax, 32			; 00000020H
  0037f	75 02		 jne	 SHORT $LN14@doload
  00381	eb ac		 jmp	 SHORT $LN13@doload
$LN14@doload:

; 2721 : 
; 2722 :                 recfm = (char) guest_to_host( fst.recfm );

  00383	0f b6 8c 24 ce
	00 00 00	 movzx	 ecx, BYTE PTR fst$[rsp+30]
  0038b	ff 15 00 00 00
	00		 call	 QWORD PTR __imp_guest_to_host
  00391	88 44 24 54	 mov	 BYTE PTR recfm$[rsp], al

; 2723 : 
; 2724 :                 recl = fetch_fw( fst.lrecl );

  00395	48 8d 8c 24 d0
	00 00 00	 lea	 rcx, QWORD PTR fst$[rsp+32]
  0039d	e8 00 00 00 00	 call	 fetch_fw_noswap
  003a2	8b c8		 mov	 ecx, eax
  003a4	e8 00 00 00 00	 call	 _byteswap_ulong
  003a9	89 84 24 88 00
	00 00		 mov	 DWORD PTR recl$[rsp], eax

; 2725 : 
; 2726 :                 if (!(recs = fetch_fw( fst.aic )))

  003b0	48 8d 8c 24 e8
	00 00 00	 lea	 rcx, QWORD PTR fst$[rsp+56]
  003b8	e8 00 00 00 00	 call	 fetch_fw_noswap
  003bd	8b c8		 mov	 ecx, eax
  003bf	e8 00 00 00 00	 call	 _byteswap_ulong
  003c4	89 44 24 7c	 mov	 DWORD PTR recs$[rsp], eax
  003c8	83 7c 24 7c 00	 cmp	 DWORD PTR recs$[rsp], 0
  003cd	75 1c		 jne	 SHORT $LN33@doload

; 2727 :                     recs = fetch_hw( fst.reccount );

  003cf	48 8d 8c 24 ca
	00 00 00	 lea	 rcx, QWORD PTR fst$[rsp+26]
  003d7	e8 00 00 00 00	 call	 fetch_hw_noswap
  003dc	0f b7 c8	 movzx	 ecx, ax
  003df	e8 00 00 00 00	 call	 _byteswap_ushort
  003e4	0f b7 c0	 movzx	 eax, ax
  003e7	89 44 24 7c	 mov	 DWORD PTR recs$[rsp], eax
$LN33@doload:

; 2728 : 
; 2729 :                 /* Find corresponding CTLTAB entry */
; 2730 :                 if (!(ctl = find_ctltab_entry( fn, ft, recfm )))

  003eb	44 0f b6 44 24
	54		 movzx	 r8d, BYTE PTR recfm$[rsp]
  003f1	48 8d 94 24 00
	01 00 00	 lea	 rdx, QWORD PTR ft$[rsp]
  003f9	48 8d 8c 24 10
	01 00 00	 lea	 rcx, QWORD PTR fn$[rsp]
  00401	e8 00 00 00 00	 call	 find_ctltab_entry
  00406	48 89 44 24 68	 mov	 QWORD PTR ctl$[rsp], rax
  0040b	48 83 7c 24 68
	00		 cmp	 QWORD PTR ctl$[rsp], 0
  00411	75 1a		 jne	 SHORT $LN34@doload

; 2731 :                 {
; 2732 :                     /* No match in ctlfile; skip loading this file ... */
; 2733 :                     log_fst_skipped( &fst, opts );

  00413	48 8b 94 24 50
	01 00 00	 mov	 rdx, QWORD PTR opts$[rsp]
  0041b	48 8d 8c 24 b0
	00 00 00	 lea	 rcx, QWORD PTR fst$[rsp]
  00423	e8 00 00 00 00	 call	 log_fst_skipped

; 2734 :                     continue; // (skip this file)

  00428	e9 0f fd ff ff	 jmp	 $LN2@doload
$LN34@doload:

; 2735 :                 }
; 2736 : 
; 2737 :                 /* Show them the DUMPed file on the tape that we are LOADing... */
; 2738 :                 log_fst_loaded( &fst, ctl, opts );

  0042d	4c 8b 84 24 50
	01 00 00	 mov	 r8, QWORD PTR opts$[rsp]
  00435	48 8b 54 24 68	 mov	 rdx, QWORD PTR ctl$[rsp]
  0043a	48 8d 8c 24 b0
	00 00 00	 lea	 rcx, QWORD PTR fst$[rsp]
  00442	e8 00 00 00 00	 call	 log_fst_loaded

; 2739 :                 ctl->loaded = true;

  00447	48 8b 44 24 68	 mov	 rax, QWORD PTR ctl$[rsp]
  0044c	c6 40 3e 01	 mov	 BYTE PTR [rax+62], 1

; 2740 : 
; 2741 :                 /* Set translation codepage if file is TEXT format */
; 2742 :                 if (ctl->filefmt == 'T')

  00450	48 8b 44 24 68	 mov	 rax, QWORD PTR ctl$[rsp]
  00455	0f be 40 3d	 movsx	 eax, BYTE PTR [rax+61]
  00459	83 f8 54	 cmp	 eax, 84			; 00000054H
  0045c	75 2b		 jne	 SHORT $LN35@doload

; 2743 :                     if (strcasecmp( ctl->codepage, query_codepage()) != 0)

  0045e	ff 15 00 00 00
	00		 call	 QWORD PTR __imp_query_codepage
  00464	48 8b d0	 mov	 rdx, rax
  00467	48 8b 44 24 68	 mov	 rax, QWORD PTR ctl$[rsp]
  0046c	48 8b 48 08	 mov	 rcx, QWORD PTR [rax+8]
  00470	ff 15 00 00 00
	00		 call	 QWORD PTR __imp__stricmp
  00476	85 c0		 test	 eax, eax
  00478	74 0f		 je	 SHORT $LN36@doload

; 2744 :                         set_codepage( ctl->codepage );

  0047a	48 8b 44 24 68	 mov	 rax, QWORD PTR ctl$[rsp]
  0047f	48 8b 48 08	 mov	 rcx, QWORD PTR [rax+8]
  00483	ff 15 00 00 00
	00		 call	 QWORD PTR __imp_set_codepage
$LN36@doload:
$LN35@doload:

; 2745 : 
; 2746 :                 /* Create the empty host output file */
; 2747 :                 if (!(ofile = fopen( ctl->hostfile, "wb" )))

  00489	48 8d 15 00 00
	00 00		 lea	 rdx, OFFSET FLAT:$SG171003
  00490	48 8b 44 24 68	 mov	 rax, QWORD PTR ctl$[rsp]
  00495	48 8b 48 28	 mov	 rcx, QWORD PTR [rax+40]
  00499	ff 15 00 00 00
	00		 call	 QWORD PTR __imp_fopen
  0049f	48 89 44 24 70	 mov	 QWORD PTR ofile$[rsp], rax
  004a4	48 83 7c 24 70
	00		 cmp	 QWORD PTR ofile$[rsp], 0
  004aa	0f 85 85 00 00
	00		 jne	 $LN37@doload

; 2748 :                 {
; 2749 :                     // "File open error: \"%s\": %s"
; 2750 :                     FWRMSG( stderr, HHC02623, "E", ctl->hostfile, strerror( errno ));

  004b0	ff 15 00 00 00
	00		 call	 QWORD PTR __imp__errno
  004b6	8b 08		 mov	 ecx, DWORD PTR [rax]
  004b8	ff 15 00 00 00
	00		 call	 QWORD PTR __imp_w32_strerror
  004be	48 89 84 24 a0
	00 00 00	 mov	 QWORD PTR tv244[rsp], rax
  004c6	b9 02 00 00 00	 mov	 ecx, 2
  004cb	ff 15 00 00 00
	00		 call	 QWORD PTR __imp___acrt_iob_func
  004d1	48 8b 8c 24 a0
	00 00 00	 mov	 rcx, QWORD PTR tv244[rsp]
  004d9	48 89 4c 24 40	 mov	 QWORD PTR [rsp+64], rcx
  004de	48 8b 4c 24 68	 mov	 rcx, QWORD PTR ctl$[rsp]
  004e3	48 8b 49 28	 mov	 rcx, QWORD PTR [rcx+40]
  004e7	48 89 4c 24 38	 mov	 QWORD PTR [rsp+56], rcx
  004ec	48 8d 0d 00 00
	00 00		 lea	 rcx, OFFSET FLAT:$SG171004
  004f3	48 89 4c 24 30	 mov	 QWORD PTR [rsp+48], rcx
  004f8	48 8d 0d 00 00
	00 00		 lea	 rcx, OFFSET FLAT:$SG171005
  004ff	48 89 4c 24 28	 mov	 QWORD PTR [rsp+40], rcx
  00504	48 89 44 24 20	 mov	 QWORD PTR [rsp+32], rax
  00509	41 b9 03 00 00
	00		 mov	 r9d, 3
  0050f	4c 8d 05 00 00
	00 00		 lea	 r8, OFFSET FLAT:$SG171006
  00516	ba be 0a 00 00	 mov	 edx, 2750		; 00000abeH
  0051b	48 8d 0d 00 00
	00 00		 lea	 rcx, OFFSET FLAT:$SG171007
  00522	ff 15 00 00 00
	00		 call	 QWORD PTR __imp_fwritemsg

; 2751 :                     rc = -1;

  00528	c7 44 24 50 ff
	ff ff ff	 mov	 DWORD PTR rc$[rsp], -1

; 2752 :                     continue;

  00530	e9 07 fc ff ff	 jmp	 $LN51@doload
$LN37@doload:

; 2753 :                 }
; 2754 : 
; 2755 :                 /* Reset unwritten record bytes */
; 2756 :                 recrem = 0;

  00535	c7 84 24 80 00
	00 00 00 00 00
	00		 mov	 DWORD PTR recrem$[rsp], 0

; 2757 :             }

  00540	e9 1d 01 00 00	 jmp	 $LN28@doload
$LN27@doload:

; 2758 :             /* Is this a PLCD header (DATA) block? */
; 2759 :             else if (1
; 2760 :                 && blksize >= BLK_HDRSIZE
; 2761 :                 && memcmp( bfr, PLCD_hdr, BLK_HDRSIZE ) == 0

  00545	33 c0		 xor	 eax, eax
  00547	83 f8 01	 cmp	 eax, 1
  0054a	0f 84 8b 00 00
	00		 je	 $LN38@doload
  00550	83 7c 24 60 05	 cmp	 DWORD PTR blksize$[rsp], 5
  00555	0f 8c 80 00 00
	00		 jl	 $LN38@doload
  0055b	41 b8 05 00 00
	00		 mov	 r8d, 5
  00561	48 8d 15 00 00
	00 00		 lea	 rdx, OFFSET FLAT:PLCD_hdr
  00568	48 8d 0d 00 00
	00 00		 lea	 rcx, OFFSET FLAT:bfr
  0056f	e8 00 00 00 00	 call	 memcmp
  00574	85 c0		 test	 eax, eax
  00576	75 63		 jne	 SHORT $LN38@doload

; 2762 :             )
; 2763 :             {
; 2764 :                 /* Continue writing the file if selected */
; 2765 :                 if (ofile)

  00578	48 83 7c 24 70
	00		 cmp	 QWORD PTR ofile$[rsp], 0
  0057e	74 56		 je	 SHORT $LN40@doload

; 2766 :                     rc = load_file( ctl, ofile, recfm, blksize,

  00580	48 8d 44 24 78	 lea	 rax, QWORD PTR rsz1$[rsp]
  00585	48 89 44 24 40	 mov	 QWORD PTR [rsp+64], rax
  0058a	48 8d 44 24 5c	 lea	 rax, QWORD PTR rszsplit$[rsp]
  0058f	48 89 44 24 38	 mov	 QWORD PTR [rsp+56], rax
  00594	48 8d 84 24 80
	00 00 00	 lea	 rax, QWORD PTR recrem$[rsp]
  0059c	48 89 44 24 30	 mov	 QWORD PTR [rsp+48], rax
  005a1	48 8d 44 24 7c	 lea	 rax, QWORD PTR recs$[rsp]
  005a6	48 89 44 24 28	 mov	 QWORD PTR [rsp+40], rax
  005ab	48 8d 84 24 88
	00 00 00	 lea	 rax, QWORD PTR recl$[rsp]
  005b3	48 89 44 24 20	 mov	 QWORD PTR [rsp+32], rax
  005b8	44 8b 4c 24 60	 mov	 r9d, DWORD PTR blksize$[rsp]
  005bd	44 0f b6 44 24
	54		 movzx	 r8d, BYTE PTR recfm$[rsp]
  005c3	48 8b 54 24 70	 mov	 rdx, QWORD PTR ofile$[rsp]
  005c8	48 8b 4c 24 68	 mov	 rcx, QWORD PTR ctl$[rsp]
  005cd	e8 00 00 00 00	 call	 load_file
  005d2	89 44 24 50	 mov	 DWORD PTR rc$[rsp], eax
$LN40@doload:

; 2767 :                         &recl, &recs, &recrem, &rszsplit, &rsz1 );
; 2768 :             }

  005d6	e9 87 00 00 00	 jmp	 $LN39@doload
$LN38@doload:

; 2769 :             else
; 2770 :             {
; 2771 :                 // "Invalid block encountered @ %d:%d"
; 2772 :                 FWRMSG( stderr, HHC02636, "W",

  005db	48 8b 84 24 50
	01 00 00	 mov	 rax, QWORD PTR opts$[rsp]
  005e3	0f b7 80 22 10
	00 00		 movzx	 eax, WORD PTR [rax+4130]
  005ea	89 84 24 8c 00
	00 00		 mov	 DWORD PTR tv282[rsp], eax
  005f1	b9 02 00 00 00	 mov	 ecx, 2
  005f6	ff 15 00 00 00
	00		 call	 QWORD PTR __imp___acrt_iob_func
  005fc	48 8b 8c 24 50
	01 00 00	 mov	 rcx, QWORD PTR opts$[rsp]
  00604	8b 89 24 10 00
	00		 mov	 ecx, DWORD PTR [rcx+4132]
  0060a	89 4c 24 40	 mov	 DWORD PTR [rsp+64], ecx
  0060e	8b 8c 24 8c 00
	00 00		 mov	 ecx, DWORD PTR tv282[rsp]
  00615	89 4c 24 38	 mov	 DWORD PTR [rsp+56], ecx
  00619	48 8d 0d 00 00
	00 00		 lea	 rcx, OFFSET FLAT:$SG171011
  00620	48 89 4c 24 30	 mov	 QWORD PTR [rsp+48], rcx
  00625	48 8d 0d 00 00
	00 00		 lea	 rcx, OFFSET FLAT:$SG171012
  0062c	48 89 4c 24 28	 mov	 QWORD PTR [rsp+40], rcx
  00631	48 89 44 24 20	 mov	 QWORD PTR [rsp+32], rax
  00636	41 b9 03 00 00
	00		 mov	 r9d, 3
  0063c	4c 8d 05 00 00
	00 00		 lea	 r8, OFFSET FLAT:$SG171013
  00643	ba d5 0a 00 00	 mov	 edx, 2773		; 00000ad5H
  00648	48 8d 0d 00 00
	00 00		 lea	 rcx, OFFSET FLAT:$SG171014
  0064f	ff 15 00 00 00
	00		 call	 QWORD PTR __imp_fwritemsg

; 2773 :                     opts->devblk.curfilen, opts->devblk.blockid );
; 2774 :                 rc = -1;

  00655	c7 44 24 50 ff
	ff ff ff	 mov	 DWORD PTR rc$[rsp], -1

; 2775 :                 continue;

  0065d	e9 da fa ff ff	 jmp	 $LN52@doload
$LN39@doload:
$LN28@doload:

; 2776 :             }
; 2777 :         }

  00662	eb 5d		 jmp	 SHORT $LN26@doload
$LN25@doload:

; 2778 :         else
; 2779 :         {
; 2780 :             // "    %s"
; 2781 :             WRMSG( HHC02633, "I", "@TM" );

  00664	b9 01 00 00 00	 mov	 ecx, 1
  00669	ff 15 00 00 00
	00		 call	 QWORD PTR __imp___acrt_iob_func
  0066f	48 8d 0d 00 00
	00 00		 lea	 rcx, OFFSET FLAT:$SG171015
  00676	48 89 4c 24 38	 mov	 QWORD PTR [rsp+56], rcx
  0067b	48 8d 0d 00 00
	00 00		 lea	 rcx, OFFSET FLAT:$SG171016
  00682	48 89 4c 24 30	 mov	 QWORD PTR [rsp+48], rcx
  00687	48 8d 0d 00 00
	00 00		 lea	 rcx, OFFSET FLAT:$SG171017
  0068e	48 89 4c 24 28	 mov	 QWORD PTR [rsp+40], rcx
  00693	48 89 44 24 20	 mov	 QWORD PTR [rsp+32], rax
  00698	41 b9 03 00 00
	00		 mov	 r9d, 3
  0069e	4c 8d 05 00 00
	00 00		 lea	 r8, OFFSET FLAT:$SG171018
  006a5	ba dd 0a 00 00	 mov	 edx, 2781		; 00000addH
  006aa	48 8d 0d 00 00
	00 00		 lea	 rcx, OFFSET FLAT:$SG171019
  006b1	ff 15 00 00 00
	00		 call	 QWORD PTR __imp_fwritemsg

; 2782 :             tapemark_count++;

  006b7	8b 44 24 64	 mov	 eax, DWORD PTR tapemark_count$[rsp]
  006bb	ff c0		 inc	 eax
  006bd	89 44 24 64	 mov	 DWORD PTR tapemark_count$[rsp], eax
$LN26@doload:

; 2783 :         }
; 2784 :     }

  006c1	e9 76 fa ff ff	 jmp	 $LN53@doload
$LN3@doload:

; 2785 : 
; 2786 :     /* Close host output file if opened */
; 2787 :     if (ofile)

  006c6	48 83 7c 24 70
	00		 cmp	 QWORD PTR ofile$[rsp], 0
  006cc	74 71		 je	 SHORT $LN41@doload
$LN18@doload:

; 2788 :         VERIFY( fclose( ofile ) == 0 );

  006ce	48 8b 4c 24 70	 mov	 rcx, QWORD PTR ofile$[rsp]
  006d3	ff 15 00 00 00
	00		 call	 QWORD PTR __imp_w32_fclose
  006d9	85 c0		 test	 eax, eax
  006db	74 5c		 je	 SHORT $LN42@doload
$LN21@doload:
  006dd	4c 8d 0d 00 00
	00 00		 lea	 r9, OFFSET FLAT:$SG171022
  006e4	41 b8 e4 0a 00
	00		 mov	 r8d, 2788		; 00000ae4H
  006ea	48 8d 15 00 00
	00 00		 lea	 rdx, OFFSET FLAT:$SG171023
  006f1	48 8d 0d 00 00
	00 00		 lea	 rcx, OFFSET FLAT:$SG171024
  006f8	ff 15 00 00 00
	00		 call	 QWORD PTR __imp_logmsg
  006fe	ff 15 00 00 00
	00		 call	 QWORD PTR __imp_IsDebuggerPresent
  00704	85 c0		 test	 eax, eax
  00706	74 20		 je	 SHORT $LN43@doload
  00708	4c 8d 0d 00 00
	00 00		 lea	 r9, OFFSET FLAT:$SG171026
  0070f	41 b8 e4 0a 00
	00		 mov	 r8d, 2788		; 00000ae4H
  00715	48 8d 15 00 00
	00 00		 lea	 rdx, OFFSET FLAT:$SG171027
  0071c	48 8d 0d 00 00
	00 00		 lea	 rcx, OFFSET FLAT:$SG171028
  00723	e8 00 00 00 00	 call	 DebuggerTrace
$LN43@doload:
  00728	33 c0		 xor	 eax, eax
  0072a	85 c0		 test	 eax, eax
  0072c	75 af		 jne	 SHORT $LN21@doload
  0072e	ff 15 00 00 00
	00		 call	 QWORD PTR __imp_IsDebuggerPresent
  00734	85 c0		 test	 eax, eax
  00736	74 01		 je	 SHORT $LN44@doload
  00738	cc		 int	 3
$LN44@doload:
$LN42@doload:
  00739	33 c0		 xor	 eax, eax
  0073b	85 c0		 test	 eax, eax
  0073d	75 8f		 jne	 SHORT $LN18@doload
$LN41@doload:

; 2789 : 
; 2790 :     /* Close input tape and issue completion message */
; 2791 :     tape_close( opts );

  0073f	48 8b 8c 24 50
	01 00 00	 mov	 rcx, QWORD PTR opts$[rsp]
  00747	e8 00 00 00 00	 call	 tape_close

; 2792 : 
; 2793 :     if (rc == 0)

  0074c	83 7c 24 50 00	 cmp	 DWORD PTR rc$[rsp], 0
  00751	75 69		 jne	 SHORT $LN45@doload

; 2794 :         // "%s complete"
; 2795 :         WRMSG( HHC02631, "I", verb( opts ));

  00753	48 8b 8c 24 50
	01 00 00	 mov	 rcx, QWORD PTR opts$[rsp]
  0075b	e8 00 00 00 00	 call	 verb
  00760	48 89 84 24 a8
	00 00 00	 mov	 QWORD PTR tv356[rsp], rax
  00768	b9 01 00 00 00	 mov	 ecx, 1
  0076d	ff 15 00 00 00
	00		 call	 QWORD PTR __imp___acrt_iob_func
  00773	48 8b 8c 24 a8
	00 00 00	 mov	 rcx, QWORD PTR tv356[rsp]
  0077b	48 89 4c 24 38	 mov	 QWORD PTR [rsp+56], rcx
  00780	48 8d 0d 00 00
	00 00		 lea	 rcx, OFFSET FLAT:$SG171031
  00787	48 89 4c 24 30	 mov	 QWORD PTR [rsp+48], rcx
  0078c	48 8d 0d 00 00
	00 00		 lea	 rcx, OFFSET FLAT:$SG171032
  00793	48 89 4c 24 28	 mov	 QWORD PTR [rsp+40], rcx
  00798	48 89 44 24 20	 mov	 QWORD PTR [rsp+32], rax
  0079d	41 b9 03 00 00
	00		 mov	 r9d, 3
  007a3	4c 8d 05 00 00
	00 00		 lea	 r8, OFFSET FLAT:$SG171033
  007aa	ba eb 0a 00 00	 mov	 edx, 2795		; 00000aebH
  007af	48 8d 0d 00 00
	00 00		 lea	 rcx, OFFSET FLAT:$SG171034
  007b6	ff 15 00 00 00
	00		 call	 QWORD PTR __imp_fwritemsg
$LN45@doload:

; 2796 : 
; 2797 :     return rc;

  007bc	8b 44 24 50	 mov	 eax, DWORD PTR rc$[rsp]
$LN1@doload:
$LN46@doload:

; 2798 : }

  007c0	48 8b 8c 24 20
	01 00 00	 mov	 rcx, QWORD PTR __$ArrayPad$[rsp]
  007c8	48 33 cc	 xor	 rcx, rsp
  007cb	e8 00 00 00 00	 call	 __security_check_cookie
  007d0	48 81 c4 38 01
	00 00		 add	 rsp, 312		; 00000138H
  007d7	5f		 pop	 rdi
  007d8	5e		 pop	 rsi
  007d9	c3		 ret	 0
doload	ENDP
_TEXT	ENDS
; Function compile flags: /Odtp
; File C:\papa\MyGit\hyperion-zvector\vmfplc2.c
_TEXT	SEGMENT
loading$ = 80
rc$ = 84
gotblkid$ = 88
recfm$ = 89
i$ = 92
rszsplit$ = 96
blockid$ = 100
ctl$ = 104
blksize$ = 112
tapemark_count$ = 116
ofile$ = 120
rsz1$ = 128
recrem$ = 132
fm$ = 136
recs$ = 140
recl$ = 144
tv299 = 148
$T1 = 152
$T2 = 160
tv236 = 168
tv373 = 176
cms$ = 192
ft$ = 288
fn$ = 304
__$ArrayPad$ = 320
opts$ = 368
doload_cms PROC

; 2442 : {

  00000	48 89 4c 24 08	 mov	 QWORD PTR [rsp+8], rcx
  00005	56		 push	 rsi
  00006	57		 push	 rdi
  00007	48 81 ec 58 01
	00 00		 sub	 rsp, 344		; 00000158H
  0000e	48 8b 05 00 00
	00 00		 mov	 rax, QWORD PTR __security_cookie
  00015	48 33 c4	 xor	 rax, rsp
  00018	48 89 84 24 40
	01 00 00	 mov	 QWORD PTR __$ArrayPad$[rsp], rax

; 2443 :     // CHALLENGES: the tape block containing the name of the file
; 2444 :     // that was dumped is written FOLLOWING (comes AFTER) all of
; 2445 :     // its data blocks, so as you read the tape during a LOAD op-
; 2446 :     // eration you're reading data blocks but you don't know what
; 2447 :     // file they're for until it's too late! (You need to know what
; 2448 :     // file you're reading BEFOREHAND so you can determine whether
; 2449 :     // it's a Text file or not so you can know whether to translate
; 2450 :     // from EBCDIC to ASCII or not as well as whether to write line
; 2451 :     // endings (LF/CRLF) or trim trailing blanks or not! You don't
; 2452 :     // want to do that for Binary or Structured files, just as you
; 2453 :     // don't want to NOT do that for Text files!)
; 2454 : 
; 2455 :     // To resolve this dilemma, we save the current tape position
; 2456 :     // whenever we read a file's very first data block and continue
; 2457 :     // reading and ignoring all data blocks we read until we reach
; 2458 :     // the name block. Once the name block is reached (and we have
; 2459 :     // all the information we need), we position the tape back to
; 2460 :     // the file's first data block and THIS time process each one
; 2461 :     // normally.
; 2462 : 
; 2463 :     // Yes, it's inefficient to keep seeking all over the place but
; 2464 :     // it's really the only way we can hope to accomplish our goal!
; 2465 : 
; 2466 :     FILE*    ofile = NULL;

  00020	48 c7 44 24 78
	00 00 00 00	 mov	 QWORD PTR ofile$[rsp], 0

; 2467 :     CTLTAB*  ctl = NULL;

  00029	48 c7 44 24 68
	00 00 00 00	 mov	 QWORD PTR ctl$[rsp], 0

; 2468 :     CMS      cms;
; 2469 : 
; 2470 :     int   i, rc = 0;

  00032	c7 44 24 54 00
	00 00 00	 mov	 DWORD PTR rc$[rsp], 0

; 2471 :     int   blksize;              // (size of current tape block)
; 2472 :     int   recrem = 0;           // (unwritten record bytes remaining)

  0003a	c7 84 24 84 00
	00 00 00 00 00
	00		 mov	 DWORD PTR recrem$[rsp], 0

; 2473 :     int   recl, recs;
; 2474 :     int   tapemark_count = 0;

  00045	c7 44 24 74 00
	00 00 00	 mov	 DWORD PTR tapemark_count$[rsp], 0

; 2475 : 
; 2476 :     char  fn [ sizeof( cms.fn ) + 1 ]  = {0};

  0004d	48 8d 84 24 30
	01 00 00	 lea	 rax, QWORD PTR fn$[rsp]
  00055	48 8b f8	 mov	 rdi, rax
  00058	33 c0		 xor	 eax, eax
  0005a	b9 09 00 00 00	 mov	 ecx, 9
  0005f	f3 aa		 rep stosb

; 2477 :     char  ft [ sizeof( cms.ft ) + 1 ]  = {0};

  00061	48 8d 84 24 20
	01 00 00	 lea	 rax, QWORD PTR ft$[rsp]
  00069	48 8b f8	 mov	 rdi, rax
  0006c	33 c0		 xor	 eax, eax
  0006e	b9 09 00 00 00	 mov	 ecx, 9
  00073	f3 aa		 rep stosb

; 2478 :     char  fm [ sizeof( cms.fm ) + 1 ]  = {0};

  00075	48 8d 84 24 88
	00 00 00	 lea	 rax, QWORD PTR fm$[rsp]
  0007d	48 8b f8	 mov	 rdi, rax
  00080	33 c0		 xor	 eax, eax
  00082	b9 03 00 00 00	 mov	 ecx, 3
  00087	f3 aa		 rep stosb

; 2479 :     char  recfm = 'F';

  00089	c6 44 24 59 46	 mov	 BYTE PTR recfm$[rsp], 70 ; 00000046H

; 2480 : 
; 2481 :     bool  rszsplit = false;     // (SPECIAL: rsz split across 2 blocks)

  0008e	c6 44 24 60 00	 mov	 BYTE PTR rszsplit$[rsp], 0

; 2482 :     BYTE  rsz1;                 // (SPECIAL: 1st byte of record size)
; 2483 : 
; 2484 :     U32   blockid = 0;          // (current file starting data block)

  00093	c7 44 24 64 00
	00 00 00	 mov	 DWORD PTR blockid$[rsp], 0

; 2485 :     bool  gotblkid = false;     // (false until first data block read)

  0009b	c6 44 24 58 00	 mov	 BYTE PTR gotblkid$[rsp], 0

; 2486 :     bool  loading  = false;     // (false until name block is read)

  000a0	c6 44 24 50 00	 mov	 BYTE PTR loading$[rsp], 0

; 2487 : 
; 2488 :     // "%s"
; 2489 :     WRMSG( HHC02625, "I", "LOADING..." );

  000a5	b9 01 00 00 00	 mov	 ecx, 1
  000aa	ff 15 00 00 00
	00		 call	 QWORD PTR __imp___acrt_iob_func
  000b0	48 8d 0d 00 00
	00 00		 lea	 rcx, OFFSET FLAT:$SG170858
  000b7	48 89 4c 24 38	 mov	 QWORD PTR [rsp+56], rcx
  000bc	48 8d 0d 00 00
	00 00		 lea	 rcx, OFFSET FLAT:$SG170859
  000c3	48 89 4c 24 30	 mov	 QWORD PTR [rsp+48], rcx
  000c8	48 8d 0d 00 00
	00 00		 lea	 rcx, OFFSET FLAT:$SG170860
  000cf	48 89 4c 24 28	 mov	 QWORD PTR [rsp+40], rcx
  000d4	48 89 44 24 20	 mov	 QWORD PTR [rsp+32], rax
  000d9	41 b9 03 00 00
	00		 mov	 r9d, 3
  000df	4c 8d 05 00 00
	00 00		 lea	 r8, OFFSET FLAT:$SG170861
  000e6	ba b9 09 00 00	 mov	 edx, 2489		; 000009b9H
  000eb	48 8d 0d 00 00
	00 00		 lea	 rcx, OFFSET FLAT:$SG170862
  000f2	ff 15 00 00 00
	00		 call	 QWORD PTR __imp_fwritemsg

; 2490 : 
; 2491 :     /* Parse the DUMP control file */
; 2492 :     if ((rc = parse_ctlfile( opts )) != 0)

  000f8	48 8b 8c 24 70
	01 00 00	 mov	 rcx, QWORD PTR opts$[rsp]
  00100	e8 00 00 00 00	 call	 parse_ctlfile
  00105	89 44 24 54	 mov	 DWORD PTR rc$[rsp], eax
  00109	83 7c 24 54 00	 cmp	 DWORD PTR rc$[rsp], 0
  0010e	74 09		 je	 SHORT $LN28@doload_cms

; 2493 :         return rc;

  00110	8b 44 24 54	 mov	 eax, DWORD PTR rc$[rsp]
  00114	e9 6f 07 00 00	 jmp	 $LN1@doload_cms
$LN28@doload_cms:

; 2494 : 
; 2495 :     /* Open the input tape file */
; 2496 :     if ((rc = tape_open( opts )) != 0)

  00119	48 8b 8c 24 70
	01 00 00	 mov	 rcx, QWORD PTR opts$[rsp]
  00121	e8 00 00 00 00	 call	 tape_open
  00126	89 44 24 54	 mov	 DWORD PTR rc$[rsp], eax
  0012a	83 7c 24 54 00	 cmp	 DWORD PTR rc$[rsp], 0
  0012f	74 09		 je	 SHORT $LN29@doload_cms

; 2497 :         return rc;

  00131	8b 44 24 54	 mov	 eax, DWORD PTR rc$[rsp]
  00135	e9 4e 07 00 00	 jmp	 $LN1@doload_cms
$LN29@doload_cms:
$LN66@doload_cms:
$LN65@doload_cms:
$LN64@doload_cms:
$LN63@doload_cms:
$LN62@doload_cms:
$LN2@doload_cms:

; 2498 : 
; 2499 :     /* Read tape until end-of-tape reached (two tapemarks in a row) */
; 2500 :     while (1
; 2501 :         && rc >= 0
; 2502 :         && tapemark_count < 2
; 2503 :         && (rc = tape_read( opts )) >= 0

  0013a	33 c0		 xor	 eax, eax
  0013c	83 f8 01	 cmp	 eax, 1
  0013f	0f 84 49 06 00
	00		 je	 $LN3@doload_cms
  00145	83 7c 24 54 00	 cmp	 DWORD PTR rc$[rsp], 0
  0014a	0f 8c 3e 06 00
	00		 jl	 $LN3@doload_cms
  00150	83 7c 24 74 02	 cmp	 DWORD PTR tapemark_count$[rsp], 2
  00155	0f 8d 33 06 00
	00		 jge	 $LN3@doload_cms
  0015b	48 8b 8c 24 70
	01 00 00	 mov	 rcx, QWORD PTR opts$[rsp]
  00163	e8 00 00 00 00	 call	 tape_read
  00168	89 44 24 54	 mov	 DWORD PTR rc$[rsp], eax
  0016c	83 7c 24 54 00	 cmp	 DWORD PTR rc$[rsp], 0
  00171	0f 8c 17 06 00
	00		 jl	 $LN3@doload_cms

; 2504 :     )
; 2505 :     {
; 2506 :         blksize = rc;

  00177	8b 44 24 54	 mov	 eax, DWORD PTR rc$[rsp]
  0017b	89 44 24 70	 mov	 DWORD PTR blksize$[rsp], eax

; 2507 : 
; 2508 :         if (blksize)

  0017f	83 7c 24 70 00	 cmp	 DWORD PTR blksize$[rsp], 0
  00184	0f 84 a2 05 00
	00		 je	 $LN30@doload_cms

; 2509 :         {
; 2510 :             tapemark_count = 0;

  0018a	c7 44 24 74 00
	00 00 00	 mov	 DWORD PTR tapemark_count$[rsp], 0

; 2511 : 
; 2512 :             /* Is this a CMSN (name) block? */
; 2513 :             if (1
; 2514 :                 && blksize >= BLK_HDRSIZE
; 2515 :                 && memcmp( bfr, CMSN_hdr, BLK_HDRSIZE ) == 0

  00192	33 c0		 xor	 eax, eax
  00194	83 f8 01	 cmp	 eax, 1
  00197	0f 84 c2 03 00
	00		 je	 $LN32@doload_cms
  0019d	83 7c 24 70 05	 cmp	 DWORD PTR blksize$[rsp], 5
  001a2	0f 8c b7 03 00
	00		 jl	 $LN32@doload_cms
  001a8	41 b8 05 00 00
	00		 mov	 r8d, 5
  001ae	48 8d 15 00 00
	00 00		 lea	 rdx, OFFSET FLAT:CMSN_hdr
  001b5	48 8d 0d 00 00
	00 00		 lea	 rcx, OFFSET FLAT:bfr
  001bc	e8 00 00 00 00	 call	 memcmp
  001c1	85 c0		 test	 eax, eax
  001c3	0f 85 96 03 00
	00		 jne	 $LN32@doload_cms

; 2516 :             )
; 2517 :             {
; 2518 :                 gotblkid = false;  // (reset)

  001c9	c6 44 24 58 00	 mov	 BYTE PTR gotblkid$[rsp], 0

; 2519 : 
; 2520 :                 /* Are we scanning or loading? */
; 2521 :                 if (!loading)

  001ce	0f b6 44 24 50	 movzx	 eax, BYTE PTR loading$[rsp]
  001d3	85 c0		 test	 eax, eax
  001d5	0f 85 c6 01 00
	00		 jne	 $LN34@doload_cms

; 2522 :                 {
; 2523 :                     /* Extract needed CMS information */
; 2524 :                     memcpy( &cms, &bfr[ BLK_HDRSIZE ], sizeof( CMS ));

  001db	b8 01 00 00 00	 mov	 eax, 1
  001e0	48 6b c0 05	 imul	 rax, rax, 5
  001e4	48 8d 0d 00 00
	00 00		 lea	 rcx, OFFSET FLAT:bfr
  001eb	48 8d 94 24 c0
	00 00 00	 lea	 rdx, QWORD PTR cms$[rsp]
  001f3	48 8b fa	 mov	 rdi, rdx
  001f6	48 8d 34 01	 lea	 rsi, QWORD PTR [rcx+rax]
  001fa	b9 52 00 00 00	 mov	 ecx, 82			; 00000052H
  001ff	f3 a4		 rep movsb

; 2525 : 
; 2526 :                     str_guest_to_host( cms.fn, fn, sizeof( cms.fn ));

  00201	41 b8 08 00 00
	00		 mov	 r8d, 8
  00207	48 8d 94 24 30
	01 00 00	 lea	 rdx, QWORD PTR fn$[rsp]
  0020f	48 8d 8c 24 00
	01 00 00	 lea	 rcx, QWORD PTR cms$[rsp+64]
  00217	ff 15 00 00 00
	00		 call	 QWORD PTR __imp_str_guest_to_host

; 2527 :                     str_guest_to_host( cms.ft, ft, sizeof( cms.ft ));

  0021d	41 b8 08 00 00
	00		 mov	 r8d, 8
  00223	48 8d 94 24 20
	01 00 00	 lea	 rdx, QWORD PTR ft$[rsp]
  0022b	48 8d 8c 24 08
	01 00 00	 lea	 rcx, QWORD PTR cms$[rsp+72]
  00233	ff 15 00 00 00
	00		 call	 QWORD PTR __imp_str_guest_to_host

; 2528 :                     str_guest_to_host( cms.fm, fm, sizeof( cms.fm ));

  00239	41 b8 02 00 00
	00		 mov	 r8d, 2
  0023f	48 8d 94 24 88
	00 00 00	 lea	 rdx, QWORD PTR fm$[rsp]
  00247	48 8d 8c 24 10
	01 00 00	 lea	 rcx, QWORD PTR cms$[rsp+80]
  0024f	ff 15 00 00 00
	00		 call	 QWORD PTR __imp_str_guest_to_host

; 2529 : 
; 2530 :                     /* Remove trailing blanks from fn and ft */
; 2531 :                     for (i=(int)(sizeof( cms.fn ) - 1); i >= 0 && fn[i] == ' '; fn[i]=0, i--);

  00255	c7 44 24 5c 07
	00 00 00	 mov	 DWORD PTR i$[rsp], 7
  0025d	eb 39		 jmp	 SHORT $LN6@doload_cms
$LN4@doload_cms:
  0025f	48 63 44 24 5c	 movsxd	 rax, DWORD PTR i$[rsp]
  00264	48 89 84 24 98
	00 00 00	 mov	 QWORD PTR $T1[rsp], rax
  0026c	48 83 bc 24 98
	00 00 00 09	 cmp	 QWORD PTR $T1[rsp], 9
  00275	73 02		 jae	 SHORT $LN58@doload_cms
  00277	eb 05		 jmp	 SHORT $LN59@doload_cms
$LN58@doload_cms:
  00279	e8 00 00 00 00	 call	 __report_rangecheckfailure
$LN59@doload_cms:
  0027e	48 8b 84 24 98
	00 00 00	 mov	 rax, QWORD PTR $T1[rsp]
  00286	c6 84 04 30 01
	00 00 00	 mov	 BYTE PTR fn$[rsp+rax], 0
  0028e	8b 44 24 5c	 mov	 eax, DWORD PTR i$[rsp]
  00292	ff c8		 dec	 eax
  00294	89 44 24 5c	 mov	 DWORD PTR i$[rsp], eax
$LN6@doload_cms:
  00298	83 7c 24 5c 00	 cmp	 DWORD PTR i$[rsp], 0
  0029d	7c 14		 jl	 SHORT $LN5@doload_cms
  0029f	48 63 44 24 5c	 movsxd	 rax, DWORD PTR i$[rsp]
  002a4	0f be 84 04 30
	01 00 00	 movsx	 eax, BYTE PTR fn$[rsp+rax]
  002ac	83 f8 20	 cmp	 eax, 32			; 00000020H
  002af	75 02		 jne	 SHORT $LN5@doload_cms
  002b1	eb ac		 jmp	 SHORT $LN4@doload_cms
$LN5@doload_cms:

; 2532 :                     for (i=(int)(sizeof( cms.ft ) - 1); i >= 0 && ft[i] == ' '; ft[i]=0, i--);

  002b3	c7 44 24 5c 07
	00 00 00	 mov	 DWORD PTR i$[rsp], 7
  002bb	eb 39		 jmp	 SHORT $LN9@doload_cms
$LN7@doload_cms:
  002bd	48 63 44 24 5c	 movsxd	 rax, DWORD PTR i$[rsp]
  002c2	48 89 84 24 a0
	00 00 00	 mov	 QWORD PTR $T2[rsp], rax
  002ca	48 83 bc 24 a0
	00 00 00 09	 cmp	 QWORD PTR $T2[rsp], 9
  002d3	73 02		 jae	 SHORT $LN60@doload_cms
  002d5	eb 05		 jmp	 SHORT $LN61@doload_cms
$LN60@doload_cms:
  002d7	e8 00 00 00 00	 call	 __report_rangecheckfailure
$LN61@doload_cms:
  002dc	48 8b 84 24 a0
	00 00 00	 mov	 rax, QWORD PTR $T2[rsp]
  002e4	c6 84 04 20 01
	00 00 00	 mov	 BYTE PTR ft$[rsp+rax], 0
  002ec	8b 44 24 5c	 mov	 eax, DWORD PTR i$[rsp]
  002f0	ff c8		 dec	 eax
  002f2	89 44 24 5c	 mov	 DWORD PTR i$[rsp], eax
$LN9@doload_cms:
  002f6	83 7c 24 5c 00	 cmp	 DWORD PTR i$[rsp], 0
  002fb	7c 14		 jl	 SHORT $LN8@doload_cms
  002fd	48 63 44 24 5c	 movsxd	 rax, DWORD PTR i$[rsp]
  00302	0f be 84 04 20
	01 00 00	 movsx	 eax, BYTE PTR ft$[rsp+rax]
  0030a	83 f8 20	 cmp	 eax, 32			; 00000020H
  0030d	75 02		 jne	 SHORT $LN8@doload_cms
  0030f	eb ac		 jmp	 SHORT $LN7@doload_cms
$LN8@doload_cms:

; 2533 : 
; 2534 :                     recfm = (char) guest_to_host( cms.recfm );

  00311	0f b6 8c 24 ca
	00 00 00	 movzx	 ecx, BYTE PTR cms$[rsp+10]
  00319	ff 15 00 00 00
	00		 call	 QWORD PTR __imp_guest_to_host
  0031f	88 44 24 59	 mov	 BYTE PTR recfm$[rsp], al

; 2535 : 
; 2536 :                     recl = fetch_fw( cms.lrecl    );

  00323	48 8d 8c 24 cc
	00 00 00	 lea	 rcx, QWORD PTR cms$[rsp+12]
  0032b	e8 00 00 00 00	 call	 fetch_fw_noswap
  00330	8b c8		 mov	 ecx, eax
  00332	e8 00 00 00 00	 call	 _byteswap_ulong
  00337	89 84 24 90 00
	00 00		 mov	 DWORD PTR recl$[rsp], eax

; 2537 :                     recs = fetch_hw( cms.reccount );

  0033e	48 8d 8c 24 c6
	00 00 00	 lea	 rcx, QWORD PTR cms$[rsp+6]
  00346	e8 00 00 00 00	 call	 fetch_hw_noswap
  0034b	0f b7 c8	 movzx	 ecx, ax
  0034e	e8 00 00 00 00	 call	 _byteswap_ushort
  00353	0f b7 c0	 movzx	 eax, ax
  00356	89 84 24 8c 00
	00 00		 mov	 DWORD PTR recs$[rsp], eax

; 2538 : 
; 2539 :                     /* Find corresponding CTLTAB entry */
; 2540 :                     if (!(ctl = find_ctltab_entry( fn, ft, recfm )))

  0035d	44 0f b6 44 24
	59		 movzx	 r8d, BYTE PTR recfm$[rsp]
  00363	48 8d 94 24 20
	01 00 00	 lea	 rdx, QWORD PTR ft$[rsp]
  0036b	48 8d 8c 24 30
	01 00 00	 lea	 rcx, QWORD PTR fn$[rsp]
  00373	e8 00 00 00 00	 call	 find_ctltab_entry
  00378	48 89 44 24 68	 mov	 QWORD PTR ctl$[rsp], rax
  0037d	48 83 7c 24 68
	00		 cmp	 QWORD PTR ctl$[rsp], 0
  00383	75 1a		 jne	 SHORT $LN36@doload_cms

; 2541 :                     {
; 2542 :                         /* No match in ctlfile; skip loading this file ... */
; 2543 :                         log_cms_skipped( &cms, opts );

  00385	48 8b 94 24 70
	01 00 00	 mov	 rdx, QWORD PTR opts$[rsp]
  0038d	48 8d 8c 24 c0
	00 00 00	 lea	 rcx, QWORD PTR cms$[rsp]
  00395	e8 00 00 00 00	 call	 log_cms_skipped

; 2544 :                         continue; // (skip this file)

  0039a	e9 9b fd ff ff	 jmp	 $LN2@doload_cms
$LN36@doload_cms:

; 2545 :                     }
; 2546 :                 }

  0039f	eb 0a		 jmp	 SHORT $LN35@doload_cms
$LN34@doload_cms:

; 2547 :                 else /* We WERE loading, but now we're DONE loading */
; 2548 :                 {
; 2549 :                     loading = false;

  003a1	c6 44 24 50 00	 mov	 BYTE PTR loading$[rsp], 0

; 2550 :                     continue;

  003a6	e9 8f fd ff ff	 jmp	 $LN62@doload_cms
$LN35@doload_cms:

; 2551 :                 }
; 2552 : 
; 2553 :                 /* Show them the DUMPed file on the tape that we are LOADing... */
; 2554 :                 log_cms_loaded( &cms, ctl, opts );

  003ab	4c 8b 84 24 70
	01 00 00	 mov	 r8, QWORD PTR opts$[rsp]
  003b3	48 8b 54 24 68	 mov	 rdx, QWORD PTR ctl$[rsp]
  003b8	48 8d 8c 24 c0
	00 00 00	 lea	 rcx, QWORD PTR cms$[rsp]
  003c0	e8 00 00 00 00	 call	 log_cms_loaded

; 2555 :                 ctl->loaded = true;

  003c5	48 8b 44 24 68	 mov	 rax, QWORD PTR ctl$[rsp]
  003ca	c6 40 3e 01	 mov	 BYTE PTR [rax+62], 1

; 2556 : 
; 2557 :                 /* Close output file if opened */
; 2558 :                 if (ofile)

  003ce	48 83 7c 24 78
	00		 cmp	 QWORD PTR ofile$[rsp], 0
  003d4	74 7a		 je	 SHORT $LN37@doload_cms
$LN12@doload_cms:

; 2559 :                 {
; 2560 :                     VERIFY( fclose( ofile ) == 0 );

  003d6	48 8b 4c 24 78	 mov	 rcx, QWORD PTR ofile$[rsp]
  003db	ff 15 00 00 00
	00		 call	 QWORD PTR __imp_w32_fclose
  003e1	85 c0		 test	 eax, eax
  003e3	74 5c		 je	 SHORT $LN38@doload_cms
$LN15@doload_cms:
  003e5	4c 8d 0d 00 00
	00 00		 lea	 r9, OFFSET FLAT:$SG170874
  003ec	41 b8 00 0a 00
	00		 mov	 r8d, 2560		; 00000a00H
  003f2	48 8d 15 00 00
	00 00		 lea	 rdx, OFFSET FLAT:$SG170875
  003f9	48 8d 0d 00 00
	00 00		 lea	 rcx, OFFSET FLAT:$SG170876
  00400	ff 15 00 00 00
	00		 call	 QWORD PTR __imp_logmsg
  00406	ff 15 00 00 00
	00		 call	 QWORD PTR __imp_IsDebuggerPresent
  0040c	85 c0		 test	 eax, eax
  0040e	74 20		 je	 SHORT $LN39@doload_cms
  00410	4c 8d 0d 00 00
	00 00		 lea	 r9, OFFSET FLAT:$SG170878
  00417	41 b8 00 0a 00
	00		 mov	 r8d, 2560		; 00000a00H
  0041d	48 8d 15 00 00
	00 00		 lea	 rdx, OFFSET FLAT:$SG170879
  00424	48 8d 0d 00 00
	00 00		 lea	 rcx, OFFSET FLAT:$SG170880
  0042b	e8 00 00 00 00	 call	 DebuggerTrace
$LN39@doload_cms:
  00430	33 c0		 xor	 eax, eax
  00432	85 c0		 test	 eax, eax
  00434	75 af		 jne	 SHORT $LN15@doload_cms
  00436	ff 15 00 00 00
	00		 call	 QWORD PTR __imp_IsDebuggerPresent
  0043c	85 c0		 test	 eax, eax
  0043e	74 01		 je	 SHORT $LN40@doload_cms
  00440	cc		 int	 3
$LN40@doload_cms:
$LN38@doload_cms:
  00441	33 c0		 xor	 eax, eax
  00443	85 c0		 test	 eax, eax
  00445	75 8f		 jne	 SHORT $LN12@doload_cms

; 2561 :                     ofile = NULL;

  00447	48 c7 44 24 78
	00 00 00 00	 mov	 QWORD PTR ofile$[rsp], 0
$LN37@doload_cms:

; 2562 :                 }
; 2563 : 
; 2564 :                 /* Set translation codepage if file is TEXT format */
; 2565 :                 if (ctl->filefmt == 'T')

  00450	48 8b 44 24 68	 mov	 rax, QWORD PTR ctl$[rsp]
  00455	0f be 40 3d	 movsx	 eax, BYTE PTR [rax+61]
  00459	83 f8 54	 cmp	 eax, 84			; 00000054H
  0045c	75 2b		 jne	 SHORT $LN41@doload_cms

; 2566 :                     if (strcasecmp( ctl->codepage, query_codepage()) != 0)

  0045e	ff 15 00 00 00
	00		 call	 QWORD PTR __imp_query_codepage
  00464	48 8b d0	 mov	 rdx, rax
  00467	48 8b 44 24 68	 mov	 rax, QWORD PTR ctl$[rsp]
  0046c	48 8b 48 08	 mov	 rcx, QWORD PTR [rax+8]
  00470	ff 15 00 00 00
	00		 call	 QWORD PTR __imp__stricmp
  00476	85 c0		 test	 eax, eax
  00478	74 0f		 je	 SHORT $LN42@doload_cms

; 2567 :                         set_codepage( ctl->codepage );

  0047a	48 8b 44 24 68	 mov	 rax, QWORD PTR ctl$[rsp]
  0047f	48 8b 48 08	 mov	 rcx, QWORD PTR [rax+8]
  00483	ff 15 00 00 00
	00		 call	 QWORD PTR __imp_set_codepage
$LN42@doload_cms:
$LN41@doload_cms:

; 2568 : 
; 2569 :                 /* Create the empty host output file */
; 2570 :                 if (!(ofile = fopen( ctl->hostfile, "wb" )))

  00489	48 8d 15 00 00
	00 00		 lea	 rdx, OFFSET FLAT:$SG170885
  00490	48 8b 44 24 68	 mov	 rax, QWORD PTR ctl$[rsp]
  00495	48 8b 48 28	 mov	 rcx, QWORD PTR [rax+40]
  00499	ff 15 00 00 00
	00		 call	 QWORD PTR __imp_fopen
  0049f	48 89 44 24 78	 mov	 QWORD PTR ofile$[rsp], rax
  004a4	48 83 7c 24 78
	00		 cmp	 QWORD PTR ofile$[rsp], 0
  004aa	0f 85 85 00 00
	00		 jne	 $LN43@doload_cms

; 2571 :                 {
; 2572 :                     // "File open error: \"%s\": %s"
; 2573 :                     FWRMSG( stderr, HHC02623, "E", ctl->hostfile, strerror( errno ));

  004b0	ff 15 00 00 00
	00		 call	 QWORD PTR __imp__errno
  004b6	8b 08		 mov	 ecx, DWORD PTR [rax]
  004b8	ff 15 00 00 00
	00		 call	 QWORD PTR __imp_w32_strerror
  004be	48 89 84 24 a8
	00 00 00	 mov	 QWORD PTR tv236[rsp], rax
  004c6	b9 02 00 00 00	 mov	 ecx, 2
  004cb	ff 15 00 00 00
	00		 call	 QWORD PTR __imp___acrt_iob_func
  004d1	48 8b 8c 24 a8
	00 00 00	 mov	 rcx, QWORD PTR tv236[rsp]
  004d9	48 89 4c 24 40	 mov	 QWORD PTR [rsp+64], rcx
  004de	48 8b 4c 24 68	 mov	 rcx, QWORD PTR ctl$[rsp]
  004e3	48 8b 49 28	 mov	 rcx, QWORD PTR [rcx+40]
  004e7	48 89 4c 24 38	 mov	 QWORD PTR [rsp+56], rcx
  004ec	48 8d 0d 00 00
	00 00		 lea	 rcx, OFFSET FLAT:$SG170886
  004f3	48 89 4c 24 30	 mov	 QWORD PTR [rsp+48], rcx
  004f8	48 8d 0d 00 00
	00 00		 lea	 rcx, OFFSET FLAT:$SG170887
  004ff	48 89 4c 24 28	 mov	 QWORD PTR [rsp+40], rcx
  00504	48 89 44 24 20	 mov	 QWORD PTR [rsp+32], rax
  00509	41 b9 03 00 00
	00		 mov	 r9d, 3
  0050f	4c 8d 05 00 00
	00 00		 lea	 r8, OFFSET FLAT:$SG170888
  00516	ba 0d 0a 00 00	 mov	 edx, 2573		; 00000a0dH
  0051b	48 8d 0d 00 00
	00 00		 lea	 rcx, OFFSET FLAT:$SG170889
  00522	ff 15 00 00 00
	00		 call	 QWORD PTR __imp_fwritemsg

; 2574 :                     rc = -1;

  00528	c7 44 24 54 ff
	ff ff ff	 mov	 DWORD PTR rc$[rsp], -1

; 2575 :                     continue;

  00530	e9 05 fc ff ff	 jmp	 $LN63@doload_cms
$LN43@doload_cms:

; 2576 :                 }
; 2577 : 
; 2578 :                 /* Reset unwritten record bytes */
; 2579 :                 recrem = 0;

  00535	c7 84 24 84 00
	00 00 00 00 00
	00		 mov	 DWORD PTR recrem$[rsp], 0

; 2580 : 
; 2581 :                 /* Reposition tape and begin loading this file */
; 2582 :                 rc = tape_set_position( opts, blockid );

  00540	8b 54 24 64	 mov	 edx, DWORD PTR blockid$[rsp]
  00544	48 8b 8c 24 70
	01 00 00	 mov	 rcx, QWORD PTR opts$[rsp]
  0054c	e8 00 00 00 00	 call	 tape_set_position
  00551	89 44 24 54	 mov	 DWORD PTR rc$[rsp], eax

; 2583 :                 loading = true;

  00555	c6 44 24 50 01	 mov	 BYTE PTR loading$[rsp], 1

; 2584 :             }

  0055a	e9 cb 01 00 00	 jmp	 $LN33@doload_cms
$LN32@doload_cms:

; 2585 :             /* Is this a CMSb header (DATA) block? */
; 2586 :             else if (1
; 2587 :                 && blksize >= BLK_HDRSIZE
; 2588 :                 && memcmp( bfr, CMS__hdr, BLK_HDRSIZE ) == 0

  0055f	33 c0		 xor	 eax, eax
  00561	83 f8 01	 cmp	 eax, 1
  00564	0f 84 39 01 00
	00		 je	 $LN44@doload_cms
  0056a	83 7c 24 70 05	 cmp	 DWORD PTR blksize$[rsp], 5
  0056f	0f 8c 2e 01 00
	00		 jl	 $LN44@doload_cms
  00575	41 b8 05 00 00
	00		 mov	 r8d, 5
  0057b	48 8d 15 00 00
	00 00		 lea	 rdx, OFFSET FLAT:CMS__hdr
  00582	48 8d 0d 00 00
	00 00		 lea	 rcx, OFFSET FLAT:bfr
  00589	e8 00 00 00 00	 call	 memcmp
  0058e	85 c0		 test	 eax, eax
  00590	0f 85 0d 01 00
	00		 jne	 $LN44@doload_cms

; 2589 :             )
; 2590 :             {
; 2591 :                 /* Save tape position of first data block */
; 2592 :                 if (!gotblkid)

  00596	0f b6 44 24 58	 movzx	 eax, BYTE PTR gotblkid$[rsp]
  0059b	85 c0		 test	 eax, eax
  0059d	0f 85 89 00 00
	00		 jne	 $LN46@doload_cms

; 2593 :                 {
; 2594 :                     blockid = tape_get_position( opts );

  005a3	48 8b 8c 24 70
	01 00 00	 mov	 rcx, QWORD PTR opts$[rsp]
  005ab	e8 00 00 00 00	 call	 tape_get_position
  005b0	89 44 24 64	 mov	 DWORD PTR blockid$[rsp], eax
$LN18@doload_cms:

; 2595 : 
; 2596 :                     /* PROGRAMMING NOTE: the blockid is updated after
; 2597 :                        the block is read. Thus to re-read the block
; 2598 :                        we just read, we need to save the blockid of
; 2599 :                        the PREVIOUS block.
; 2600 :                     */
; 2601 :                     ASSERT( blockid >= 1 );  // (sanity check)

  005b4	83 7c 24 64 01	 cmp	 DWORD PTR blockid$[rsp], 1
  005b9	73 5c		 jae	 SHORT $LN47@doload_cms
$LN21@doload_cms:
  005bb	4c 8d 0d 00 00
	00 00		 lea	 r9, OFFSET FLAT:$SG170894
  005c2	41 b8 29 0a 00
	00		 mov	 r8d, 2601		; 00000a29H
  005c8	48 8d 15 00 00
	00 00		 lea	 rdx, OFFSET FLAT:$SG170895
  005cf	48 8d 0d 00 00
	00 00		 lea	 rcx, OFFSET FLAT:$SG170896
  005d6	ff 15 00 00 00
	00		 call	 QWORD PTR __imp_logmsg
  005dc	ff 15 00 00 00
	00		 call	 QWORD PTR __imp_IsDebuggerPresent
  005e2	85 c0		 test	 eax, eax
  005e4	74 20		 je	 SHORT $LN48@doload_cms
  005e6	4c 8d 0d 00 00
	00 00		 lea	 r9, OFFSET FLAT:$SG170898
  005ed	41 b8 29 0a 00
	00		 mov	 r8d, 2601		; 00000a29H
  005f3	48 8d 15 00 00
	00 00		 lea	 rdx, OFFSET FLAT:$SG170899
  005fa	48 8d 0d 00 00
	00 00		 lea	 rcx, OFFSET FLAT:$SG170900
  00601	e8 00 00 00 00	 call	 DebuggerTrace
$LN48@doload_cms:
  00606	33 c0		 xor	 eax, eax
  00608	85 c0		 test	 eax, eax
  0060a	75 af		 jne	 SHORT $LN21@doload_cms
  0060c	ff 15 00 00 00
	00		 call	 QWORD PTR __imp_IsDebuggerPresent
  00612	85 c0		 test	 eax, eax
  00614	74 01		 je	 SHORT $LN49@doload_cms
  00616	cc		 int	 3
$LN49@doload_cms:
$LN47@doload_cms:
  00617	33 c0		 xor	 eax, eax
  00619	85 c0		 test	 eax, eax
  0061b	75 97		 jne	 SHORT $LN18@doload_cms

; 2602 :                     blockid--;

  0061d	8b 44 24 64	 mov	 eax, DWORD PTR blockid$[rsp]
  00621	ff c8		 dec	 eax
  00623	89 44 24 64	 mov	 DWORD PTR blockid$[rsp], eax

; 2603 :                     gotblkid = true;

  00627	c6 44 24 58 01	 mov	 BYTE PTR gotblkid$[rsp], 1
$LN46@doload_cms:

; 2604 :                 }
; 2605 : 
; 2606 :                 /* Ignore data blocks if not loading file */
; 2607 :                 if (!loading)

  0062c	0f b6 44 24 50	 movzx	 eax, BYTE PTR loading$[rsp]
  00631	85 c0		 test	 eax, eax
  00633	75 05		 jne	 SHORT $LN50@doload_cms

; 2608 :                     continue;

  00635	e9 00 fb ff ff	 jmp	 $LN64@doload_cms
$LN50@doload_cms:

; 2609 : 
; 2610 :                 /* Continue writing the file if selected */
; 2611 :                 if (ofile)

  0063a	48 83 7c 24 78
	00		 cmp	 QWORD PTR ofile$[rsp], 0
  00640	74 5c		 je	 SHORT $LN51@doload_cms

; 2612 :                     rc = load_file( ctl, ofile, recfm, blksize,

  00642	48 8d 84 24 80
	00 00 00	 lea	 rax, QWORD PTR rsz1$[rsp]
  0064a	48 89 44 24 40	 mov	 QWORD PTR [rsp+64], rax
  0064f	48 8d 44 24 60	 lea	 rax, QWORD PTR rszsplit$[rsp]
  00654	48 89 44 24 38	 mov	 QWORD PTR [rsp+56], rax
  00659	48 8d 84 24 84
	00 00 00	 lea	 rax, QWORD PTR recrem$[rsp]
  00661	48 89 44 24 30	 mov	 QWORD PTR [rsp+48], rax
  00666	48 8d 84 24 8c
	00 00 00	 lea	 rax, QWORD PTR recs$[rsp]
  0066e	48 89 44 24 28	 mov	 QWORD PTR [rsp+40], rax
  00673	48 8d 84 24 90
	00 00 00	 lea	 rax, QWORD PTR recl$[rsp]
  0067b	48 89 44 24 20	 mov	 QWORD PTR [rsp+32], rax
  00680	44 8b 4c 24 70	 mov	 r9d, DWORD PTR blksize$[rsp]
  00685	44 0f b6 44 24
	59		 movzx	 r8d, BYTE PTR recfm$[rsp]
  0068b	48 8b 54 24 78	 mov	 rdx, QWORD PTR ofile$[rsp]
  00690	48 8b 4c 24 68	 mov	 rcx, QWORD PTR ctl$[rsp]
  00695	e8 00 00 00 00	 call	 load_file
  0069a	89 44 24 54	 mov	 DWORD PTR rc$[rsp], eax
$LN51@doload_cms:

; 2613 :                         &recl, &recs, &recrem, &rszsplit, &rsz1 );
; 2614 :             }

  0069e	e9 87 00 00 00	 jmp	 $LN45@doload_cms
$LN44@doload_cms:

; 2615 :             else
; 2616 :             {
; 2617 :                 // "Invalid block encountered @ %d:%d"
; 2618 :                 FWRMSG( stderr, HHC02636, "W",

  006a3	48 8b 84 24 70
	01 00 00	 mov	 rax, QWORD PTR opts$[rsp]
  006ab	0f b7 80 22 10
	00 00		 movzx	 eax, WORD PTR [rax+4130]
  006b2	89 84 24 94 00
	00 00		 mov	 DWORD PTR tv299[rsp], eax
  006b9	b9 02 00 00 00	 mov	 ecx, 2
  006be	ff 15 00 00 00
	00		 call	 QWORD PTR __imp___acrt_iob_func
  006c4	48 8b 8c 24 70
	01 00 00	 mov	 rcx, QWORD PTR opts$[rsp]
  006cc	8b 89 24 10 00
	00		 mov	 ecx, DWORD PTR [rcx+4132]
  006d2	89 4c 24 40	 mov	 DWORD PTR [rsp+64], ecx
  006d6	8b 8c 24 94 00
	00 00		 mov	 ecx, DWORD PTR tv299[rsp]
  006dd	89 4c 24 38	 mov	 DWORD PTR [rsp+56], ecx
  006e1	48 8d 0d 00 00
	00 00		 lea	 rcx, OFFSET FLAT:$SG170904
  006e8	48 89 4c 24 30	 mov	 QWORD PTR [rsp+48], rcx
  006ed	48 8d 0d 00 00
	00 00		 lea	 rcx, OFFSET FLAT:$SG170905
  006f4	48 89 4c 24 28	 mov	 QWORD PTR [rsp+40], rcx
  006f9	48 89 44 24 20	 mov	 QWORD PTR [rsp+32], rax
  006fe	41 b9 03 00 00
	00		 mov	 r9d, 3
  00704	4c 8d 05 00 00
	00 00		 lea	 r8, OFFSET FLAT:$SG170906
  0070b	ba 3b 0a 00 00	 mov	 edx, 2619		; 00000a3bH
  00710	48 8d 0d 00 00
	00 00		 lea	 rcx, OFFSET FLAT:$SG170907
  00717	ff 15 00 00 00
	00		 call	 QWORD PTR __imp_fwritemsg

; 2619 :                     opts->devblk.curfilen, opts->devblk.blockid );
; 2620 :                 rc = -1;

  0071d	c7 44 24 54 ff
	ff ff ff	 mov	 DWORD PTR rc$[rsp], -1

; 2621 :                 continue;

  00725	e9 10 fa ff ff	 jmp	 $LN65@doload_cms
$LN45@doload_cms:
$LN33@doload_cms:

; 2622 :             }
; 2623 :         }

  0072a	eb 5d		 jmp	 SHORT $LN31@doload_cms
$LN30@doload_cms:

; 2624 :         else
; 2625 :         {
; 2626 :             // "    %s"
; 2627 :             WRMSG( HHC02633, "I", "@TM" );

  0072c	b9 01 00 00 00	 mov	 ecx, 1
  00731	ff 15 00 00 00
	00		 call	 QWORD PTR __imp___acrt_iob_func
  00737	48 8d 0d 00 00
	00 00		 lea	 rcx, OFFSET FLAT:$SG170908
  0073e	48 89 4c 24 38	 mov	 QWORD PTR [rsp+56], rcx
  00743	48 8d 0d 00 00
	00 00		 lea	 rcx, OFFSET FLAT:$SG170909
  0074a	48 89 4c 24 30	 mov	 QWORD PTR [rsp+48], rcx
  0074f	48 8d 0d 00 00
	00 00		 lea	 rcx, OFFSET FLAT:$SG170910
  00756	48 89 4c 24 28	 mov	 QWORD PTR [rsp+40], rcx
  0075b	48 89 44 24 20	 mov	 QWORD PTR [rsp+32], rax
  00760	41 b9 03 00 00
	00		 mov	 r9d, 3
  00766	4c 8d 05 00 00
	00 00		 lea	 r8, OFFSET FLAT:$SG170911
  0076d	ba 43 0a 00 00	 mov	 edx, 2627		; 00000a43H
  00772	48 8d 0d 00 00
	00 00		 lea	 rcx, OFFSET FLAT:$SG170912
  00779	ff 15 00 00 00
	00		 call	 QWORD PTR __imp_fwritemsg

; 2628 :             tapemark_count++;

  0077f	8b 44 24 74	 mov	 eax, DWORD PTR tapemark_count$[rsp]
  00783	ff c0		 inc	 eax
  00785	89 44 24 74	 mov	 DWORD PTR tapemark_count$[rsp], eax
$LN31@doload_cms:

; 2629 :         }
; 2630 :     }

  00789	e9 ac f9 ff ff	 jmp	 $LN66@doload_cms
$LN3@doload_cms:

; 2631 : 
; 2632 :     /* Close host output file if opened */
; 2633 :     if (ofile)

  0078e	48 83 7c 24 78
	00		 cmp	 QWORD PTR ofile$[rsp], 0
  00794	74 71		 je	 SHORT $LN52@doload_cms
$LN24@doload_cms:

; 2634 :         VERIFY( fclose( ofile ) == 0 );

  00796	48 8b 4c 24 78	 mov	 rcx, QWORD PTR ofile$[rsp]
  0079b	ff 15 00 00 00
	00		 call	 QWORD PTR __imp_w32_fclose
  007a1	85 c0		 test	 eax, eax
  007a3	74 5c		 je	 SHORT $LN53@doload_cms
$LN27@doload_cms:
  007a5	4c 8d 0d 00 00
	00 00		 lea	 r9, OFFSET FLAT:$SG170915
  007ac	41 b8 4a 0a 00
	00		 mov	 r8d, 2634		; 00000a4aH
  007b2	48 8d 15 00 00
	00 00		 lea	 rdx, OFFSET FLAT:$SG170916
  007b9	48 8d 0d 00 00
	00 00		 lea	 rcx, OFFSET FLAT:$SG170917
  007c0	ff 15 00 00 00
	00		 call	 QWORD PTR __imp_logmsg
  007c6	ff 15 00 00 00
	00		 call	 QWORD PTR __imp_IsDebuggerPresent
  007cc	85 c0		 test	 eax, eax
  007ce	74 20		 je	 SHORT $LN54@doload_cms
  007d0	4c 8d 0d 00 00
	00 00		 lea	 r9, OFFSET FLAT:$SG170919
  007d7	41 b8 4a 0a 00
	00		 mov	 r8d, 2634		; 00000a4aH
  007dd	48 8d 15 00 00
	00 00		 lea	 rdx, OFFSET FLAT:$SG170920
  007e4	48 8d 0d 00 00
	00 00		 lea	 rcx, OFFSET FLAT:$SG170921
  007eb	e8 00 00 00 00	 call	 DebuggerTrace
$LN54@doload_cms:
  007f0	33 c0		 xor	 eax, eax
  007f2	85 c0		 test	 eax, eax
  007f4	75 af		 jne	 SHORT $LN27@doload_cms
  007f6	ff 15 00 00 00
	00		 call	 QWORD PTR __imp_IsDebuggerPresent
  007fc	85 c0		 test	 eax, eax
  007fe	74 01		 je	 SHORT $LN55@doload_cms
  00800	cc		 int	 3
$LN55@doload_cms:
$LN53@doload_cms:
  00801	33 c0		 xor	 eax, eax
  00803	85 c0		 test	 eax, eax
  00805	75 8f		 jne	 SHORT $LN24@doload_cms
$LN52@doload_cms:

; 2635 : 
; 2636 :     /* Close input tape and issue completion message */
; 2637 :     tape_close( opts );

  00807	48 8b 8c 24 70
	01 00 00	 mov	 rcx, QWORD PTR opts$[rsp]
  0080f	e8 00 00 00 00	 call	 tape_close

; 2638 : 
; 2639 :     if (rc == 0)

  00814	83 7c 24 54 00	 cmp	 DWORD PTR rc$[rsp], 0
  00819	75 69		 jne	 SHORT $LN56@doload_cms

; 2640 :         // "%s complete"
; 2641 :         WRMSG( HHC02631, "I", verb( opts ));

  0081b	48 8b 8c 24 70
	01 00 00	 mov	 rcx, QWORD PTR opts$[rsp]
  00823	e8 00 00 00 00	 call	 verb
  00828	48 89 84 24 b0
	00 00 00	 mov	 QWORD PTR tv373[rsp], rax
  00830	b9 01 00 00 00	 mov	 ecx, 1
  00835	ff 15 00 00 00
	00		 call	 QWORD PTR __imp___acrt_iob_func
  0083b	48 8b 8c 24 b0
	00 00 00	 mov	 rcx, QWORD PTR tv373[rsp]
  00843	48 89 4c 24 38	 mov	 QWORD PTR [rsp+56], rcx
  00848	48 8d 0d 00 00
	00 00		 lea	 rcx, OFFSET FLAT:$SG170924
  0084f	48 89 4c 24 30	 mov	 QWORD PTR [rsp+48], rcx
  00854	48 8d 0d 00 00
	00 00		 lea	 rcx, OFFSET FLAT:$SG170925
  0085b	48 89 4c 24 28	 mov	 QWORD PTR [rsp+40], rcx
  00860	48 89 44 24 20	 mov	 QWORD PTR [rsp+32], rax
  00865	41 b9 03 00 00
	00		 mov	 r9d, 3
  0086b	4c 8d 05 00 00
	00 00		 lea	 r8, OFFSET FLAT:$SG170926
  00872	ba 51 0a 00 00	 mov	 edx, 2641		; 00000a51H
  00877	48 8d 0d 00 00
	00 00		 lea	 rcx, OFFSET FLAT:$SG170927
  0087e	ff 15 00 00 00
	00		 call	 QWORD PTR __imp_fwritemsg
$LN56@doload_cms:

; 2642 : 
; 2643 :     return rc;

  00884	8b 44 24 54	 mov	 eax, DWORD PTR rc$[rsp]
$LN1@doload_cms:
$LN57@doload_cms:

; 2644 : }

  00888	48 8b 8c 24 40
	01 00 00	 mov	 rcx, QWORD PTR __$ArrayPad$[rsp]
  00890	48 33 cc	 xor	 rcx, rsp
  00893	e8 00 00 00 00	 call	 __security_check_cookie
  00898	48 81 c4 58 01
	00 00		 add	 rsp, 344		; 00000158H
  0089f	5f		 pop	 rdi
  008a0	5e		 pop	 rsi
  008a1	c3		 ret	 0
doload_cms ENDP
_TEXT	ENDS
; Function compile flags: /Odtp
; File C:\papa\MyGit\hyperion-zvector\vmfplc2.c
_TEXT	SEGMENT
rem$ = 48
rc$ = 52
endofrec$ = 56
rec$ = 64
recremblk$ = 72
recsize$1 = 76
rsz$2 = 80
tv305 = 84
tv71 = 88
tv73 = 92
tv75 = 96
tv176 = 100
tv178 = 104
tv180 = 108
tv303 = 112
ctl$ = 144
ofile$ = 152
recfm$ = 160
blksize$ = 168
recl$ = 176
recs$ = 184
recrem$ = 192
rszsplit$ = 200
rsz1$ = 208
load_file PROC

; 2249 : {

  00000	44 89 4c 24 20	 mov	 DWORD PTR [rsp+32], r9d
  00005	44 88 44 24 18	 mov	 BYTE PTR [rsp+24], r8b
  0000a	48 89 54 24 10	 mov	 QWORD PTR [rsp+16], rdx
  0000f	48 89 4c 24 08	 mov	 QWORD PTR [rsp+8], rcx
  00014	48 81 ec 88 00
	00 00		 sub	 rsp, 136		; 00000088H

; 2250 :     BYTE*  rec = &bfr[ BLK_HDRSIZE ];

  0001b	b8 01 00 00 00	 mov	 eax, 1
  00020	48 6b c0 05	 imul	 rax, rax, 5
  00024	48 8d 0d 00 00
	00 00		 lea	 rcx, OFFSET FLAT:bfr
  0002b	48 03 c8	 add	 rcx, rax
  0002e	48 8b c1	 mov	 rax, rcx
  00031	48 89 44 24 40	 mov	 QWORD PTR rec$[rsp], rax

; 2251 :     int    rem = blksize - BLK_HDRSIZE;

  00036	8b 84 24 a8 00
	00 00		 mov	 eax, DWORD PTR blksize$[rsp]
  0003d	83 e8 05	 sub	 eax, 5
  00040	89 44 24 30	 mov	 DWORD PTR rem$[rsp], eax

; 2252 :     bool   endofrec = false;

  00044	c6 44 24 38 00	 mov	 BYTE PTR endofrec$[rsp], 0

; 2253 :     int    recremblk = 0;

  00049	c7 44 24 48 00
	00 00 00	 mov	 DWORD PTR recremblk$[rsp], 0

; 2254 :     int    rc = 0;

  00051	c7 44 24 34 00
	00 00 00	 mov	 DWORD PTR rc$[rsp], 0

; 2255 : 
; 2256 :     if (recfm == 'F')   /* Fixed */

  00059	0f be 84 24 a0
	00 00 00	 movsx	 eax, BYTE PTR recfm$[rsp]
  00061	83 f8 46	 cmp	 eax, 70			; 00000046H
  00064	0f 85 18 03 00
	00		 jne	 $LN12@load_file

; 2257 :     {
; 2258 :         /* Finish writing previous record if incomplete */
; 2259 :         if (*recrem)

  0006a	48 8b 84 24 c0
	00 00 00	 mov	 rax, QWORD PTR recrem$[rsp]
  00072	83 38 00	 cmp	 DWORD PTR [rax], 0
  00075	0f 84 6a 01 00
	00		 je	 $LN14@load_file

; 2260 :         {
; 2261 :             /* How much of record bytes remain in this block */
; 2262 :             recremblk = MIN( *recrem, rem );

  0007b	48 8b 84 24 c0
	00 00 00	 mov	 rax, QWORD PTR recrem$[rsp]
  00083	8b 4c 24 30	 mov	 ecx, DWORD PTR rem$[rsp]
  00087	39 08		 cmp	 DWORD PTR [rax], ecx
  00089	7d 10		 jge	 SHORT $LN41@load_file
  0008b	48 8b 84 24 c0
	00 00 00	 mov	 rax, QWORD PTR recrem$[rsp]
  00093	8b 00		 mov	 eax, DWORD PTR [rax]
  00095	89 44 24 58	 mov	 DWORD PTR tv71[rsp], eax
  00099	eb 08		 jmp	 SHORT $LN42@load_file
$LN41@load_file:
  0009b	8b 44 24 30	 mov	 eax, DWORD PTR rem$[rsp]
  0009f	89 44 24 58	 mov	 DWORD PTR tv71[rsp], eax
$LN42@load_file:
  000a3	8b 44 24 58	 mov	 eax, DWORD PTR tv71[rsp]
  000a7	89 44 24 48	 mov	 DWORD PTR recremblk$[rsp], eax

; 2263 :             endofrec  = (recremblk >= *recrem);

  000ab	48 8b 84 24 c0
	00 00 00	 mov	 rax, QWORD PTR recrem$[rsp]
  000b3	8b 00		 mov	 eax, DWORD PTR [rax]
  000b5	39 44 24 48	 cmp	 DWORD PTR recremblk$[rsp], eax
  000b9	7c 0a		 jl	 SHORT $LN43@load_file
  000bb	c7 44 24 5c 01
	00 00 00	 mov	 DWORD PTR tv73[rsp], 1
  000c3	eb 08		 jmp	 SHORT $LN44@load_file
$LN43@load_file:
  000c5	c7 44 24 5c 00
	00 00 00	 mov	 DWORD PTR tv73[rsp], 0
$LN44@load_file:
  000cd	83 7c 24 5c 00	 cmp	 DWORD PTR tv73[rsp], 0
  000d2	75 0a		 jne	 SHORT $LN45@load_file
  000d4	c7 44 24 60 00
	00 00 00	 mov	 DWORD PTR tv75[rsp], 0
  000dc	eb 08		 jmp	 SHORT $LN46@load_file
$LN45@load_file:
  000de	c7 44 24 60 01
	00 00 00	 mov	 DWORD PTR tv75[rsp], 1
$LN46@load_file:
  000e6	0f b6 44 24 60	 movzx	 eax, BYTE PTR tv75[rsp]
  000eb	88 44 24 38	 mov	 BYTE PTR endofrec$[rsp], al

; 2264 : 
; 2265 :             if ((rc = write_rec( ofile, rec, recremblk, endofrec,
; 2266 :                 ctl->filefmt, ctl->hostfile )) < 0)

  000ef	48 8b 84 24 90
	00 00 00	 mov	 rax, QWORD PTR ctl$[rsp]
  000f7	48 8b 40 28	 mov	 rax, QWORD PTR [rax+40]
  000fb	48 89 44 24 28	 mov	 QWORD PTR [rsp+40], rax
  00100	48 8b 84 24 90
	00 00 00	 mov	 rax, QWORD PTR ctl$[rsp]
  00108	0f b6 40 3d	 movzx	 eax, BYTE PTR [rax+61]
  0010c	88 44 24 20	 mov	 BYTE PTR [rsp+32], al
  00110	44 0f b6 4c 24
	38		 movzx	 r9d, BYTE PTR endofrec$[rsp]
  00116	44 8b 44 24 48	 mov	 r8d, DWORD PTR recremblk$[rsp]
  0011b	48 8b 54 24 40	 mov	 rdx, QWORD PTR rec$[rsp]
  00120	48 8b 8c 24 98
	00 00 00	 mov	 rcx, QWORD PTR ofile$[rsp]
  00128	e8 00 00 00 00	 call	 write_rec
  0012d	89 44 24 34	 mov	 DWORD PTR rc$[rsp], eax
  00131	83 7c 24 34 00	 cmp	 DWORD PTR rc$[rsp], 0
  00136	7d 09		 jge	 SHORT $LN15@load_file

; 2267 :                 return rc;

  00138	8b 44 24 34	 mov	 eax, DWORD PTR rc$[rsp]
  0013c	e9 5e 07 00 00	 jmp	 $LN1@load_file
$LN15@load_file:

; 2268 : 
; 2269 :             if (endofrec && (rc = endof_rec( ofile,

  00141	0f b6 44 24 38	 movzx	 eax, BYTE PTR endofrec$[rsp]
  00146	85 c0		 test	 eax, eax
  00148	74 39		 je	 SHORT $LN16@load_file
  0014a	48 8b 84 24 90
	00 00 00	 mov	 rax, QWORD PTR ctl$[rsp]
  00152	4c 8b 40 28	 mov	 r8, QWORD PTR [rax+40]
  00156	48 8b 84 24 90
	00 00 00	 mov	 rax, QWORD PTR ctl$[rsp]
  0015e	0f b6 50 3d	 movzx	 edx, BYTE PTR [rax+61]
  00162	48 8b 8c 24 98
	00 00 00	 mov	 rcx, QWORD PTR ofile$[rsp]
  0016a	e8 00 00 00 00	 call	 endof_rec
  0016f	89 44 24 34	 mov	 DWORD PTR rc$[rsp], eax
  00173	83 7c 24 34 00	 cmp	 DWORD PTR rc$[rsp], 0
  00178	7d 09		 jge	 SHORT $LN16@load_file

; 2270 :                 ctl->filefmt, ctl->hostfile )) < 0)
; 2271 :                 return rc;

  0017a	8b 44 24 34	 mov	 eax, DWORD PTR rc$[rsp]
  0017e	e9 1c 07 00 00	 jmp	 $LN1@load_file
$LN16@load_file:

; 2272 : 
; 2273 :             /* Adjust record pointer and bytes remaining */
; 2274 :             rec     +=  recremblk;

  00183	48 63 44 24 48	 movsxd	 rax, DWORD PTR recremblk$[rsp]
  00188	48 8b 4c 24 40	 mov	 rcx, QWORD PTR rec$[rsp]
  0018d	48 03 c8	 add	 rcx, rax
  00190	48 8b c1	 mov	 rax, rcx
  00193	48 89 44 24 40	 mov	 QWORD PTR rec$[rsp], rax

; 2275 :             rem     -=  recremblk;

  00198	8b 44 24 48	 mov	 eax, DWORD PTR recremblk$[rsp]
  0019c	8b 4c 24 30	 mov	 ecx, DWORD PTR rem$[rsp]
  001a0	2b c8		 sub	 ecx, eax
  001a2	8b c1		 mov	 eax, ecx
  001a4	89 44 24 30	 mov	 DWORD PTR rem$[rsp], eax

; 2276 :             *recrem -=  recremblk;

  001a8	48 8b 84 24 c0
	00 00 00	 mov	 rax, QWORD PTR recrem$[rsp]
  001b0	8b 4c 24 48	 mov	 ecx, DWORD PTR recremblk$[rsp]
  001b4	8b 00		 mov	 eax, DWORD PTR [rax]
  001b6	2b c1		 sub	 eax, ecx
  001b8	48 8b 8c 24 c0
	00 00 00	 mov	 rcx, QWORD PTR recrem$[rsp]
  001c0	89 01		 mov	 DWORD PTR [rcx], eax

; 2277 : 
; 2278 :             /* Adjust records remaining if record now complete */
; 2279 :             if (*recrem == 0)

  001c2	48 8b 84 24 c0
	00 00 00	 mov	 rax, QWORD PTR recrem$[rsp]
  001ca	83 38 00	 cmp	 DWORD PTR [rax], 0
  001cd	75 16		 jne	 SHORT $LN17@load_file

; 2280 :                 --*recs;

  001cf	48 8b 84 24 b8
	00 00 00	 mov	 rax, QWORD PTR recs$[rsp]
  001d7	8b 00		 mov	 eax, DWORD PTR [rax]
  001d9	ff c8		 dec	 eax
  001db	48 8b 8c 24 b8
	00 00 00	 mov	 rcx, QWORD PTR recs$[rsp]
  001e3	89 01		 mov	 DWORD PTR [rcx], eax
$LN17@load_file:
$LN14@load_file:
$LN2@load_file:

; 2281 :         }
; 2282 : 
; 2283 :         /* Write fixed length recs until end of block */
; 2284 :         while (rc >= 0 && rem && *recs)

  001e5	83 7c 24 34 00	 cmp	 DWORD PTR rc$[rsp], 0
  001ea	0f 8c 8d 01 00
	00		 jl	 $LN3@load_file
  001f0	83 7c 24 30 00	 cmp	 DWORD PTR rem$[rsp], 0
  001f5	0f 84 82 01 00
	00		 je	 $LN3@load_file
  001fb	48 8b 84 24 b8
	00 00 00	 mov	 rax, QWORD PTR recs$[rsp]
  00203	83 38 00	 cmp	 DWORD PTR [rax], 0
  00206	0f 84 71 01 00
	00		 je	 $LN3@load_file

; 2285 :         {
; 2286 :             /* Can we write a complete record? */
; 2287 :             if (rem >= *recl)

  0020c	48 8b 84 24 b0
	00 00 00	 mov	 rax, QWORD PTR recl$[rsp]
  00214	8b 00		 mov	 eax, DWORD PTR [rax]
  00216	39 44 24 30	 cmp	 DWORD PTR rem$[rsp], eax
  0021a	0f 8c d3 00 00
	00		 jl	 $LN18@load_file

; 2288 :             {
; 2289 :                 if (1
; 2290 :                     && (rc = write_rec( ofile,
; 2291 :                                         rec, *recl,
; 2292 :                                         true,
; 2293 :                                         ctl->filefmt, ctl->hostfile )) == 0
; 2294 : 
; 2295 :                     && (rc = endof_rec( ofile,

  00220	33 c0		 xor	 eax, eax
  00222	83 f8 01	 cmp	 eax, 1
  00225	0f 84 c3 00 00
	00		 je	 $LN20@load_file
  0022b	48 8b 84 24 90
	00 00 00	 mov	 rax, QWORD PTR ctl$[rsp]
  00233	48 8b 40 28	 mov	 rax, QWORD PTR [rax+40]
  00237	48 89 44 24 28	 mov	 QWORD PTR [rsp+40], rax
  0023c	48 8b 84 24 90
	00 00 00	 mov	 rax, QWORD PTR ctl$[rsp]
  00244	0f b6 40 3d	 movzx	 eax, BYTE PTR [rax+61]
  00248	88 44 24 20	 mov	 BYTE PTR [rsp+32], al
  0024c	41 b1 01	 mov	 r9b, 1
  0024f	48 8b 84 24 b0
	00 00 00	 mov	 rax, QWORD PTR recl$[rsp]
  00257	44 8b 00	 mov	 r8d, DWORD PTR [rax]
  0025a	48 8b 54 24 40	 mov	 rdx, QWORD PTR rec$[rsp]
  0025f	48 8b 8c 24 98
	00 00 00	 mov	 rcx, QWORD PTR ofile$[rsp]
  00267	e8 00 00 00 00	 call	 write_rec
  0026c	89 44 24 34	 mov	 DWORD PTR rc$[rsp], eax
  00270	83 7c 24 34 00	 cmp	 DWORD PTR rc$[rsp], 0
  00275	75 77		 jne	 SHORT $LN20@load_file
  00277	48 8b 84 24 90
	00 00 00	 mov	 rax, QWORD PTR ctl$[rsp]
  0027f	4c 8b 40 28	 mov	 r8, QWORD PTR [rax+40]
  00283	48 8b 84 24 90
	00 00 00	 mov	 rax, QWORD PTR ctl$[rsp]
  0028b	0f b6 50 3d	 movzx	 edx, BYTE PTR [rax+61]
  0028f	48 8b 8c 24 98
	00 00 00	 mov	 rcx, QWORD PTR ofile$[rsp]
  00297	e8 00 00 00 00	 call	 endof_rec
  0029c	89 44 24 34	 mov	 DWORD PTR rc$[rsp], eax
  002a0	83 7c 24 34 00	 cmp	 DWORD PTR rc$[rsp], 0
  002a5	75 47		 jne	 SHORT $LN20@load_file

; 2296 :                                         ctl->filefmt, ctl->hostfile )) == 0
; 2297 :                 )
; 2298 :                 {
; 2299 :                     /* Adjust record pointer and bytes remaining */
; 2300 :                     rec += *recl;

  002a7	48 8b 84 24 b0
	00 00 00	 mov	 rax, QWORD PTR recl$[rsp]
  002af	48 63 00	 movsxd	 rax, DWORD PTR [rax]
  002b2	48 8b 4c 24 40	 mov	 rcx, QWORD PTR rec$[rsp]
  002b7	48 03 c8	 add	 rcx, rax
  002ba	48 8b c1	 mov	 rax, rcx
  002bd	48 89 44 24 40	 mov	 QWORD PTR rec$[rsp], rax

; 2301 :                     rem -= *recl;

  002c2	48 8b 84 24 b0
	00 00 00	 mov	 rax, QWORD PTR recl$[rsp]
  002ca	8b 00		 mov	 eax, DWORD PTR [rax]
  002cc	8b 4c 24 30	 mov	 ecx, DWORD PTR rem$[rsp]
  002d0	2b c8		 sub	 ecx, eax
  002d2	8b c1		 mov	 eax, ecx
  002d4	89 44 24 30	 mov	 DWORD PTR rem$[rsp], eax

; 2302 : 
; 2303 :                     /* Adjust records remaining */
; 2304 :                     --*recs;

  002d8	48 8b 84 24 b8
	00 00 00	 mov	 rax, QWORD PTR recs$[rsp]
  002e0	8b 00		 mov	 eax, DWORD PTR [rax]
  002e2	ff c8		 dec	 eax
  002e4	48 8b 8c 24 b8
	00 00 00	 mov	 rcx, QWORD PTR recs$[rsp]
  002ec	89 01		 mov	 DWORD PTR [rcx], eax
$LN20@load_file:

; 2305 :                 }
; 2306 :             }

  002ee	e9 85 00 00 00	 jmp	 $LN19@load_file
$LN18@load_file:

; 2307 :             else /* (rem < *recl): Write incomplete record */
; 2308 :             {
; 2309 :                 if ((rc = write_rec( ofile,
; 2310 :                                      rec, rem,
; 2311 :                                      false,
; 2312 :                                      ctl->filefmt, ctl->hostfile )) == 0)

  002f3	48 8b 84 24 90
	00 00 00	 mov	 rax, QWORD PTR ctl$[rsp]
  002fb	48 8b 40 28	 mov	 rax, QWORD PTR [rax+40]
  002ff	48 89 44 24 28	 mov	 QWORD PTR [rsp+40], rax
  00304	48 8b 84 24 90
	00 00 00	 mov	 rax, QWORD PTR ctl$[rsp]
  0030c	0f b6 40 3d	 movzx	 eax, BYTE PTR [rax+61]
  00310	88 44 24 20	 mov	 BYTE PTR [rsp+32], al
  00314	45 33 c9	 xor	 r9d, r9d
  00317	44 8b 44 24 30	 mov	 r8d, DWORD PTR rem$[rsp]
  0031c	48 8b 54 24 40	 mov	 rdx, QWORD PTR rec$[rsp]
  00321	48 8b 8c 24 98
	00 00 00	 mov	 rcx, QWORD PTR ofile$[rsp]
  00329	e8 00 00 00 00	 call	 write_rec
  0032e	89 44 24 34	 mov	 DWORD PTR rc$[rsp], eax
  00332	83 7c 24 34 00	 cmp	 DWORD PTR rc$[rsp], 0
  00337	75 3f		 jne	 SHORT $LN21@load_file

; 2313 :                 {
; 2314 :                     /* Save unwritten bytes in next block */
; 2315 :                     *recrem = *recl - rem;

  00339	48 8b 84 24 b0
	00 00 00	 mov	 rax, QWORD PTR recl$[rsp]
  00341	8b 4c 24 30	 mov	 ecx, DWORD PTR rem$[rsp]
  00345	8b 00		 mov	 eax, DWORD PTR [rax]
  00347	2b c1		 sub	 eax, ecx
  00349	48 8b 8c 24 c0
	00 00 00	 mov	 rcx, QWORD PTR recrem$[rsp]
  00351	89 01		 mov	 DWORD PTR [rcx], eax

; 2316 : 
; 2317 :                     /* Adjust record pointer and bytes remaining */
; 2318 :                     rec += rem;

  00353	48 63 44 24 30	 movsxd	 rax, DWORD PTR rem$[rsp]
  00358	48 8b 4c 24 40	 mov	 rcx, QWORD PTR rec$[rsp]
  0035d	48 03 c8	 add	 rcx, rax
  00360	48 8b c1	 mov	 rax, rcx
  00363	48 89 44 24 40	 mov	 QWORD PTR rec$[rsp], rax

; 2319 :                     rem -= rem;

  00368	8b 44 24 30	 mov	 eax, DWORD PTR rem$[rsp]
  0036c	8b 4c 24 30	 mov	 ecx, DWORD PTR rem$[rsp]
  00370	2b c8		 sub	 ecx, eax
  00372	8b c1		 mov	 eax, ecx
  00374	89 44 24 30	 mov	 DWORD PTR rem$[rsp], eax
$LN21@load_file:
$LN19@load_file:

; 2320 :                 }
; 2321 :             }
; 2322 :         }

  00378	e9 68 fe ff ff	 jmp	 $LN2@load_file
$LN3@load_file:

; 2323 :     }

  0037d	e9 19 05 00 00	 jmp	 $LN13@load_file
$LN12@load_file:

; 2324 :     else // (recfm == 'V')  /* Variable */
; 2325 :     {
; 2326 :         /* Finish writing previous record if incomplete */
; 2327 :         if (*recrem)

  00382	48 8b 84 24 c0
	00 00 00	 mov	 rax, QWORD PTR recrem$[rsp]
  0038a	83 38 00	 cmp	 DWORD PTR [rax], 0
  0038d	0f 84 6a 01 00
	00		 je	 $LN22@load_file

; 2328 :         {
; 2329 :             /* How much of record bytes remain in this block */
; 2330 :             recremblk = MIN( *recrem, rem );

  00393	48 8b 84 24 c0
	00 00 00	 mov	 rax, QWORD PTR recrem$[rsp]
  0039b	8b 4c 24 30	 mov	 ecx, DWORD PTR rem$[rsp]
  0039f	39 08		 cmp	 DWORD PTR [rax], ecx
  003a1	7d 10		 jge	 SHORT $LN47@load_file
  003a3	48 8b 84 24 c0
	00 00 00	 mov	 rax, QWORD PTR recrem$[rsp]
  003ab	8b 00		 mov	 eax, DWORD PTR [rax]
  003ad	89 44 24 64	 mov	 DWORD PTR tv176[rsp], eax
  003b1	eb 08		 jmp	 SHORT $LN48@load_file
$LN47@load_file:
  003b3	8b 44 24 30	 mov	 eax, DWORD PTR rem$[rsp]
  003b7	89 44 24 64	 mov	 DWORD PTR tv176[rsp], eax
$LN48@load_file:
  003bb	8b 44 24 64	 mov	 eax, DWORD PTR tv176[rsp]
  003bf	89 44 24 48	 mov	 DWORD PTR recremblk$[rsp], eax

; 2331 :             endofrec  = (recremblk >= *recrem);

  003c3	48 8b 84 24 c0
	00 00 00	 mov	 rax, QWORD PTR recrem$[rsp]
  003cb	8b 00		 mov	 eax, DWORD PTR [rax]
  003cd	39 44 24 48	 cmp	 DWORD PTR recremblk$[rsp], eax
  003d1	7c 0a		 jl	 SHORT $LN49@load_file
  003d3	c7 44 24 68 01
	00 00 00	 mov	 DWORD PTR tv178[rsp], 1
  003db	eb 08		 jmp	 SHORT $LN50@load_file
$LN49@load_file:
  003dd	c7 44 24 68 00
	00 00 00	 mov	 DWORD PTR tv178[rsp], 0
$LN50@load_file:
  003e5	83 7c 24 68 00	 cmp	 DWORD PTR tv178[rsp], 0
  003ea	75 0a		 jne	 SHORT $LN51@load_file
  003ec	c7 44 24 6c 00
	00 00 00	 mov	 DWORD PTR tv180[rsp], 0
  003f4	eb 08		 jmp	 SHORT $LN52@load_file
$LN51@load_file:
  003f6	c7 44 24 6c 01
	00 00 00	 mov	 DWORD PTR tv180[rsp], 1
$LN52@load_file:
  003fe	0f b6 44 24 6c	 movzx	 eax, BYTE PTR tv180[rsp]
  00403	88 44 24 38	 mov	 BYTE PTR endofrec$[rsp], al

; 2332 : 
; 2333 :             if ((rc = write_rec( ofile, rec, recremblk, endofrec,
; 2334 :                 ctl->filefmt, ctl->hostfile )) < 0)

  00407	48 8b 84 24 90
	00 00 00	 mov	 rax, QWORD PTR ctl$[rsp]
  0040f	48 8b 40 28	 mov	 rax, QWORD PTR [rax+40]
  00413	48 89 44 24 28	 mov	 QWORD PTR [rsp+40], rax
  00418	48 8b 84 24 90
	00 00 00	 mov	 rax, QWORD PTR ctl$[rsp]
  00420	0f b6 40 3d	 movzx	 eax, BYTE PTR [rax+61]
  00424	88 44 24 20	 mov	 BYTE PTR [rsp+32], al
  00428	44 0f b6 4c 24
	38		 movzx	 r9d, BYTE PTR endofrec$[rsp]
  0042e	44 8b 44 24 48	 mov	 r8d, DWORD PTR recremblk$[rsp]
  00433	48 8b 54 24 40	 mov	 rdx, QWORD PTR rec$[rsp]
  00438	48 8b 8c 24 98
	00 00 00	 mov	 rcx, QWORD PTR ofile$[rsp]
  00440	e8 00 00 00 00	 call	 write_rec
  00445	89 44 24 34	 mov	 DWORD PTR rc$[rsp], eax
  00449	83 7c 24 34 00	 cmp	 DWORD PTR rc$[rsp], 0
  0044e	7d 09		 jge	 SHORT $LN23@load_file

; 2335 :                 return rc;

  00450	8b 44 24 34	 mov	 eax, DWORD PTR rc$[rsp]
  00454	e9 46 04 00 00	 jmp	 $LN1@load_file
$LN23@load_file:

; 2336 : 
; 2337 :             if (endofrec && (rc = endof_rec( ofile,

  00459	0f b6 44 24 38	 movzx	 eax, BYTE PTR endofrec$[rsp]
  0045e	85 c0		 test	 eax, eax
  00460	74 39		 je	 SHORT $LN24@load_file
  00462	48 8b 84 24 90
	00 00 00	 mov	 rax, QWORD PTR ctl$[rsp]
  0046a	4c 8b 40 28	 mov	 r8, QWORD PTR [rax+40]
  0046e	48 8b 84 24 90
	00 00 00	 mov	 rax, QWORD PTR ctl$[rsp]
  00476	0f b6 50 3d	 movzx	 edx, BYTE PTR [rax+61]
  0047a	48 8b 8c 24 98
	00 00 00	 mov	 rcx, QWORD PTR ofile$[rsp]
  00482	e8 00 00 00 00	 call	 endof_rec
  00487	89 44 24 34	 mov	 DWORD PTR rc$[rsp], eax
  0048b	83 7c 24 34 00	 cmp	 DWORD PTR rc$[rsp], 0
  00490	7d 09		 jge	 SHORT $LN24@load_file

; 2338 :                 ctl->filefmt, ctl->hostfile )) < 0)
; 2339 :                 return rc;

  00492	8b 44 24 34	 mov	 eax, DWORD PTR rc$[rsp]
  00496	e9 04 04 00 00	 jmp	 $LN1@load_file
$LN24@load_file:

; 2340 : 
; 2341 :             /* Adjust record pointer and bytes remaining */
; 2342 :             rec     +=  recremblk;

  0049b	48 63 44 24 48	 movsxd	 rax, DWORD PTR recremblk$[rsp]
  004a0	48 8b 4c 24 40	 mov	 rcx, QWORD PTR rec$[rsp]
  004a5	48 03 c8	 add	 rcx, rax
  004a8	48 8b c1	 mov	 rax, rcx
  004ab	48 89 44 24 40	 mov	 QWORD PTR rec$[rsp], rax

; 2343 :             rem     -=  recremblk;

  004b0	8b 44 24 48	 mov	 eax, DWORD PTR recremblk$[rsp]
  004b4	8b 4c 24 30	 mov	 ecx, DWORD PTR rem$[rsp]
  004b8	2b c8		 sub	 ecx, eax
  004ba	8b c1		 mov	 eax, ecx
  004bc	89 44 24 30	 mov	 DWORD PTR rem$[rsp], eax

; 2344 :             *recrem -=  recremblk;

  004c0	48 8b 84 24 c0
	00 00 00	 mov	 rax, QWORD PTR recrem$[rsp]
  004c8	8b 4c 24 48	 mov	 ecx, DWORD PTR recremblk$[rsp]
  004cc	8b 00		 mov	 eax, DWORD PTR [rax]
  004ce	2b c1		 sub	 eax, ecx
  004d0	48 8b 8c 24 c0
	00 00 00	 mov	 rcx, QWORD PTR recrem$[rsp]
  004d8	89 01		 mov	 DWORD PTR [rcx], eax

; 2345 : 
; 2346 :             /* Adjust records remaining if record now complete */
; 2347 :             if (*recrem == 0)

  004da	48 8b 84 24 c0
	00 00 00	 mov	 rax, QWORD PTR recrem$[rsp]
  004e2	83 38 00	 cmp	 DWORD PTR [rax], 0
  004e5	75 16		 jne	 SHORT $LN25@load_file

; 2348 :                 --*recs;

  004e7	48 8b 84 24 b8
	00 00 00	 mov	 rax, QWORD PTR recs$[rsp]
  004ef	8b 00		 mov	 eax, DWORD PTR [rax]
  004f1	ff c8		 dec	 eax
  004f3	48 8b 8c 24 b8
	00 00 00	 mov	 rcx, QWORD PTR recs$[rsp]
  004fb	89 01		 mov	 DWORD PTR [rcx], eax
$LN25@load_file:
$LN22@load_file:
$LN4@load_file:

; 2349 :         }
; 2350 : 
; 2351 :         /* Write variable len recs until end of block */
; 2352 :         while (rc >= 0 && *recs && rem >= (int) sizeof( HWORD ))

  004fd	83 7c 24 34 00	 cmp	 DWORD PTR rc$[rsp], 0
  00502	0f 8c 23 03 00
	00		 jl	 $LN5@load_file
  00508	48 8b 84 24 b8
	00 00 00	 mov	 rax, QWORD PTR recs$[rsp]
  00510	83 38 00	 cmp	 DWORD PTR [rax], 0
  00513	0f 84 12 03 00
	00		 je	 $LN5@load_file
  00519	83 7c 24 30 02	 cmp	 DWORD PTR rem$[rsp], 2
  0051e	0f 8c 07 03 00
	00		 jl	 $LN5@load_file

; 2353 :         {
; 2354 :             HWORD recsize;
; 2355 :             int rsz;
; 2356 : 
; 2357 :             /* Get size of this record */
; 2358 :             if (*rszsplit)

  00524	48 8b 84 24 c8
	00 00 00	 mov	 rax, QWORD PTR rszsplit$[rsp]
  0052c	0f b6 00	 movzx	 eax, BYTE PTR [rax]
  0052f	85 c0		 test	 eax, eax
  00531	74 50		 je	 SHORT $LN26@load_file

; 2359 :             {
; 2360 :                 recsize[0] = *rsz1;

  00533	b8 01 00 00 00	 mov	 eax, 1
  00538	48 6b c0 00	 imul	 rax, rax, 0
  0053c	48 8b 8c 24 d0
	00 00 00	 mov	 rcx, QWORD PTR rsz1$[rsp]
  00544	0f b6 09	 movzx	 ecx, BYTE PTR [rcx]
  00547	88 4c 04 4c	 mov	 BYTE PTR recsize$1[rsp+rax], cl

; 2361 :                 recsize[1] = rec[0];

  0054b	b8 01 00 00 00	 mov	 eax, 1
  00550	48 6b c0 00	 imul	 rax, rax, 0
  00554	b9 01 00 00 00	 mov	 ecx, 1
  00559	48 6b c9 01	 imul	 rcx, rcx, 1
  0055d	48 8b 54 24 40	 mov	 rdx, QWORD PTR rec$[rsp]
  00562	0f b6 04 02	 movzx	 eax, BYTE PTR [rdx+rax]
  00566	88 44 0c 4c	 mov	 BYTE PTR recsize$1[rsp+rcx], al

; 2362 :                 --rec;

  0056a	48 8b 44 24 40	 mov	 rax, QWORD PTR rec$[rsp]
  0056f	48 ff c8	 dec	 rax
  00572	48 89 44 24 40	 mov	 QWORD PTR rec$[rsp], rax

; 2363 :                 ++rem;

  00577	8b 44 24 30	 mov	 eax, DWORD PTR rem$[rsp]
  0057b	ff c0		 inc	 eax
  0057d	89 44 24 30	 mov	 DWORD PTR rem$[rsp], eax

; 2364 :             }

  00581	eb 3e		 jmp	 SHORT $LN27@load_file
$LN26@load_file:

; 2365 :             else
; 2366 :             {
; 2367 :                 recsize[0] = rec[0];

  00583	b8 01 00 00 00	 mov	 eax, 1
  00588	48 6b c0 00	 imul	 rax, rax, 0
  0058c	b9 01 00 00 00	 mov	 ecx, 1
  00591	48 6b c9 00	 imul	 rcx, rcx, 0
  00595	48 8b 54 24 40	 mov	 rdx, QWORD PTR rec$[rsp]
  0059a	0f b6 04 02	 movzx	 eax, BYTE PTR [rdx+rax]
  0059e	88 44 0c 4c	 mov	 BYTE PTR recsize$1[rsp+rcx], al

; 2368 :                 recsize[1] = rec[1];

  005a2	b8 01 00 00 00	 mov	 eax, 1
  005a7	48 6b c0 01	 imul	 rax, rax, 1
  005ab	b9 01 00 00 00	 mov	 ecx, 1
  005b0	48 6b c9 01	 imul	 rcx, rcx, 1
  005b4	48 8b 54 24 40	 mov	 rdx, QWORD PTR rec$[rsp]
  005b9	0f b6 04 02	 movzx	 eax, BYTE PTR [rdx+rax]
  005bd	88 44 0c 4c	 mov	 BYTE PTR recsize$1[rsp+rcx], al
$LN27@load_file:

; 2369 :             }
; 2370 :             *rszsplit = false;

  005c1	48 8b 84 24 c8
	00 00 00	 mov	 rax, QWORD PTR rszsplit$[rsp]
  005c9	c6 00 00	 mov	 BYTE PTR [rax], 0

; 2371 :             rsz = fetch_hw( recsize );

  005cc	48 8d 4c 24 4c	 lea	 rcx, QWORD PTR recsize$1[rsp]
  005d1	e8 00 00 00 00	 call	 fetch_hw_noswap
  005d6	0f b7 c8	 movzx	 ecx, ax
  005d9	e8 00 00 00 00	 call	 _byteswap_ushort
  005de	0f b7 c0	 movzx	 eax, ax
  005e1	89 44 24 50	 mov	 DWORD PTR rsz$2[rsp], eax
$LN8@load_file:

; 2372 :             ASSERT( rsz > 0 && rsz <= *recl );

  005e5	83 7c 24 50 00	 cmp	 DWORD PTR rsz$2[rsp], 0
  005ea	7e 10		 jle	 SHORT $LN29@load_file
  005ec	48 8b 84 24 b0
	00 00 00	 mov	 rax, QWORD PTR recl$[rsp]
  005f4	8b 00		 mov	 eax, DWORD PTR [rax]
  005f6	39 44 24 50	 cmp	 DWORD PTR rsz$2[rsp], eax
  005fa	7e 5c		 jle	 SHORT $LN28@load_file
$LN29@load_file:
$LN11@load_file:
  005fc	4c 8d 0d 00 00
	00 00		 lea	 r9, OFFSET FLAT:$SG170784
  00603	41 b8 44 09 00
	00		 mov	 r8d, 2372		; 00000944H
  00609	48 8d 15 00 00
	00 00		 lea	 rdx, OFFSET FLAT:$SG170785
  00610	48 8d 0d 00 00
	00 00		 lea	 rcx, OFFSET FLAT:$SG170786
  00617	ff 15 00 00 00
	00		 call	 QWORD PTR __imp_logmsg
  0061d	ff 15 00 00 00
	00		 call	 QWORD PTR __imp_IsDebuggerPresent
  00623	85 c0		 test	 eax, eax
  00625	74 20		 je	 SHORT $LN30@load_file
  00627	4c 8d 0d 00 00
	00 00		 lea	 r9, OFFSET FLAT:$SG170788
  0062e	41 b8 44 09 00
	00		 mov	 r8d, 2372		; 00000944H
  00634	48 8d 15 00 00
	00 00		 lea	 rdx, OFFSET FLAT:$SG170789
  0063b	48 8d 0d 00 00
	00 00		 lea	 rcx, OFFSET FLAT:$SG170790
  00642	e8 00 00 00 00	 call	 DebuggerTrace
$LN30@load_file:
  00647	33 c0		 xor	 eax, eax
  00649	85 c0		 test	 eax, eax
  0064b	75 af		 jne	 SHORT $LN11@load_file
  0064d	ff 15 00 00 00
	00		 call	 QWORD PTR __imp_IsDebuggerPresent
  00653	85 c0		 test	 eax, eax
  00655	74 01		 je	 SHORT $LN31@load_file
  00657	cc		 int	 3
$LN31@load_file:
$LN28@load_file:
  00658	33 c0		 xor	 eax, eax
  0065a	85 c0		 test	 eax, eax
  0065c	75 87		 jne	 SHORT $LN8@load_file

; 2373 : 
; 2374 :             if ((rc = write_siz( ofile, recsize, ctl->filefmt, ctl->hostfile )) == 0)

  0065e	48 8b 84 24 90
	00 00 00	 mov	 rax, QWORD PTR ctl$[rsp]
  00666	4c 8b 48 28	 mov	 r9, QWORD PTR [rax+40]
  0066a	48 8b 84 24 90
	00 00 00	 mov	 rax, QWORD PTR ctl$[rsp]
  00672	44 0f b6 40 3d	 movzx	 r8d, BYTE PTR [rax+61]
  00677	48 8d 54 24 4c	 lea	 rdx, QWORD PTR recsize$1[rsp]
  0067c	48 8b 8c 24 98
	00 00 00	 mov	 rcx, QWORD PTR ofile$[rsp]
  00684	e8 00 00 00 00	 call	 write_siz
  00689	89 44 24 34	 mov	 DWORD PTR rc$[rsp], eax
  0068d	83 7c 24 34 00	 cmp	 DWORD PTR rc$[rsp], 0
  00692	0f 85 8e 01 00
	00		 jne	 $LN32@load_file

; 2375 :             {
; 2376 :                 rec  +=  sizeof( HWORD );

  00698	48 8b 44 24 40	 mov	 rax, QWORD PTR rec$[rsp]
  0069d	48 83 c0 02	 add	 rax, 2
  006a1	48 89 44 24 40	 mov	 QWORD PTR rec$[rsp], rax

; 2377 :                 rem  -=  sizeof( HWORD );

  006a6	48 63 44 24 30	 movsxd	 rax, DWORD PTR rem$[rsp]
  006ab	48 83 e8 02	 sub	 rax, 2
  006af	89 44 24 30	 mov	 DWORD PTR rem$[rsp], eax

; 2378 : 
; 2379 :                 /* Can we write a complete record? */
; 2380 :                 if (rem >= rsz)

  006b3	8b 44 24 50	 mov	 eax, DWORD PTR rsz$2[rsp]
  006b7	39 44 24 30	 cmp	 DWORD PTR rem$[rsp], eax
  006bb	0f 8c c1 00 00
	00		 jl	 $LN33@load_file

; 2381 :                 {
; 2382 :                     if (1
; 2383 :                         && (rc = write_rec( ofile,
; 2384 :                                             rec, rsz,
; 2385 :                                             true,
; 2386 :                                             ctl->filefmt, ctl->hostfile )) == 0
; 2387 : 
; 2388 :                         && (rc = endof_rec( ofile,

  006c1	33 c0		 xor	 eax, eax
  006c3	83 f8 01	 cmp	 eax, 1
  006c6	0f 84 b1 00 00
	00		 je	 $LN35@load_file
  006cc	48 8b 84 24 90
	00 00 00	 mov	 rax, QWORD PTR ctl$[rsp]
  006d4	48 8b 40 28	 mov	 rax, QWORD PTR [rax+40]
  006d8	48 89 44 24 28	 mov	 QWORD PTR [rsp+40], rax
  006dd	48 8b 84 24 90
	00 00 00	 mov	 rax, QWORD PTR ctl$[rsp]
  006e5	0f b6 40 3d	 movzx	 eax, BYTE PTR [rax+61]
  006e9	88 44 24 20	 mov	 BYTE PTR [rsp+32], al
  006ed	41 b1 01	 mov	 r9b, 1
  006f0	44 8b 44 24 50	 mov	 r8d, DWORD PTR rsz$2[rsp]
  006f5	48 8b 54 24 40	 mov	 rdx, QWORD PTR rec$[rsp]
  006fa	48 8b 8c 24 98
	00 00 00	 mov	 rcx, QWORD PTR ofile$[rsp]
  00702	e8 00 00 00 00	 call	 write_rec
  00707	89 44 24 34	 mov	 DWORD PTR rc$[rsp], eax
  0070b	83 7c 24 34 00	 cmp	 DWORD PTR rc$[rsp], 0
  00710	75 6b		 jne	 SHORT $LN35@load_file
  00712	48 8b 84 24 90
	00 00 00	 mov	 rax, QWORD PTR ctl$[rsp]
  0071a	4c 8b 40 28	 mov	 r8, QWORD PTR [rax+40]
  0071e	48 8b 84 24 90
	00 00 00	 mov	 rax, QWORD PTR ctl$[rsp]
  00726	0f b6 50 3d	 movzx	 edx, BYTE PTR [rax+61]
  0072a	48 8b 8c 24 98
	00 00 00	 mov	 rcx, QWORD PTR ofile$[rsp]
  00732	e8 00 00 00 00	 call	 endof_rec
  00737	89 44 24 34	 mov	 DWORD PTR rc$[rsp], eax
  0073b	83 7c 24 34 00	 cmp	 DWORD PTR rc$[rsp], 0
  00740	75 3b		 jne	 SHORT $LN35@load_file

; 2389 :                                             ctl->filefmt, ctl->hostfile )) == 0
; 2390 :                     )
; 2391 :                     {
; 2392 :                         /* Adjust record pointer and bytes remaining */
; 2393 :                         rec += rsz;

  00742	48 63 44 24 50	 movsxd	 rax, DWORD PTR rsz$2[rsp]
  00747	48 8b 4c 24 40	 mov	 rcx, QWORD PTR rec$[rsp]
  0074c	48 03 c8	 add	 rcx, rax
  0074f	48 8b c1	 mov	 rax, rcx
  00752	48 89 44 24 40	 mov	 QWORD PTR rec$[rsp], rax

; 2394 :                         rem -= rsz;

  00757	8b 44 24 50	 mov	 eax, DWORD PTR rsz$2[rsp]
  0075b	8b 4c 24 30	 mov	 ecx, DWORD PTR rem$[rsp]
  0075f	2b c8		 sub	 ecx, eax
  00761	8b c1		 mov	 eax, ecx
  00763	89 44 24 30	 mov	 DWORD PTR rem$[rsp], eax

; 2395 : 
; 2396 :                         /* Adjust records remaining */
; 2397 :                         --*recs;

  00767	48 8b 84 24 b8
	00 00 00	 mov	 rax, QWORD PTR recs$[rsp]
  0076f	8b 00		 mov	 eax, DWORD PTR [rax]
  00771	ff c8		 dec	 eax
  00773	48 8b 8c 24 b8
	00 00 00	 mov	 rcx, QWORD PTR recs$[rsp]
  0077b	89 01		 mov	 DWORD PTR [rcx], eax
$LN35@load_file:

; 2398 :                     }
; 2399 :                 }

  0077d	e9 a4 00 00 00	 jmp	 $LN34@load_file
$LN33@load_file:

; 2400 :                 else /* (rem < rsz): Write incomplete record */
; 2401 :                 {
; 2402 :                     /* Are ANY record bytes remaining in this block? */
; 2403 :                     if (rem)

  00782	83 7c 24 30 00	 cmp	 DWORD PTR rem$[rsp], 0
  00787	0f 84 83 00 00
	00		 je	 $LN36@load_file

; 2404 :                     {
; 2405 :                         if ((rc = write_rec( ofile,
; 2406 :                                              rec, rem,
; 2407 :                                              false,
; 2408 :                                              ctl->filefmt, ctl->hostfile )) == 0)

  0078d	48 8b 84 24 90
	00 00 00	 mov	 rax, QWORD PTR ctl$[rsp]
  00795	48 8b 40 28	 mov	 rax, QWORD PTR [rax+40]
  00799	48 89 44 24 28	 mov	 QWORD PTR [rsp+40], rax
  0079e	48 8b 84 24 90
	00 00 00	 mov	 rax, QWORD PTR ctl$[rsp]
  007a6	0f b6 40 3d	 movzx	 eax, BYTE PTR [rax+61]
  007aa	88 44 24 20	 mov	 BYTE PTR [rsp+32], al
  007ae	45 33 c9	 xor	 r9d, r9d
  007b1	44 8b 44 24 30	 mov	 r8d, DWORD PTR rem$[rsp]
  007b6	48 8b 54 24 40	 mov	 rdx, QWORD PTR rec$[rsp]
  007bb	48 8b 8c 24 98
	00 00 00	 mov	 rcx, QWORD PTR ofile$[rsp]
  007c3	e8 00 00 00 00	 call	 write_rec
  007c8	89 44 24 34	 mov	 DWORD PTR rc$[rsp], eax
  007cc	83 7c 24 34 00	 cmp	 DWORD PTR rc$[rsp], 0
  007d1	75 3b		 jne	 SHORT $LN38@load_file

; 2409 :                         {
; 2410 :                             /* Save unwritten bytes in next block */
; 2411 :                             *recrem = rsz - rem;

  007d3	8b 44 24 30	 mov	 eax, DWORD PTR rem$[rsp]
  007d7	8b 4c 24 50	 mov	 ecx, DWORD PTR rsz$2[rsp]
  007db	2b c8		 sub	 ecx, eax
  007dd	8b c1		 mov	 eax, ecx
  007df	48 8b 8c 24 c0
	00 00 00	 mov	 rcx, QWORD PTR recrem$[rsp]
  007e7	89 01		 mov	 DWORD PTR [rcx], eax

; 2412 : 
; 2413 :                             /* Adjust record pointer and bytes remaining */
; 2414 :                             rec += rem;

  007e9	48 63 44 24 30	 movsxd	 rax, DWORD PTR rem$[rsp]
  007ee	48 8b 4c 24 40	 mov	 rcx, QWORD PTR rec$[rsp]
  007f3	48 03 c8	 add	 rcx, rax
  007f6	48 8b c1	 mov	 rax, rcx
  007f9	48 89 44 24 40	 mov	 QWORD PTR rec$[rsp], rax

; 2415 :                             rem -= rem;

  007fe	8b 44 24 30	 mov	 eax, DWORD PTR rem$[rsp]
  00802	8b 4c 24 30	 mov	 ecx, DWORD PTR rem$[rsp]
  00806	2b c8		 sub	 ecx, eax
  00808	8b c1		 mov	 eax, ecx
  0080a	89 44 24 30	 mov	 DWORD PTR rem$[rsp], eax
$LN38@load_file:

; 2416 :                         }
; 2417 :                     }

  0080e	eb 16		 jmp	 SHORT $LN37@load_file
$LN36@load_file:

; 2418 :                     else // (rem == 0)
; 2419 :                     {
; 2420 :                         /* Save unwritten bytes in next block */
; 2421 :                         *recrem = rsz - rem;

  00810	8b 44 24 30	 mov	 eax, DWORD PTR rem$[rsp]
  00814	8b 4c 24 50	 mov	 ecx, DWORD PTR rsz$2[rsp]
  00818	2b c8		 sub	 ecx, eax
  0081a	8b c1		 mov	 eax, ecx
  0081c	48 8b 8c 24 c0
	00 00 00	 mov	 rcx, QWORD PTR recrem$[rsp]
  00824	89 01		 mov	 DWORD PTR [rcx], eax
$LN37@load_file:
$LN34@load_file:
$LN32@load_file:

; 2422 :                     }
; 2423 :                 }
; 2424 :             }
; 2425 :         }

  00826	e9 d2 fc ff ff	 jmp	 $LN4@load_file
$LN5@load_file:

; 2426 : 
; 2427 :         /* Did we exit our loop because there weren't
; 2428 :            enough bytes in the buffer to fetch_hw the
; 2429 :            next record's HWORD rsz record size value?
; 2430 :         */
; 2431 :         if ((*rszsplit = (rc >= 0 && *recs && 1 == rem)))

  0082b	83 7c 24 34 00	 cmp	 DWORD PTR rc$[rsp], 0
  00830	7c 1e		 jl	 SHORT $LN53@load_file
  00832	48 8b 84 24 b8
	00 00 00	 mov	 rax, QWORD PTR recs$[rsp]
  0083a	83 38 00	 cmp	 DWORD PTR [rax], 0
  0083d	74 11		 je	 SHORT $LN53@load_file
  0083f	83 7c 24 30 01	 cmp	 DWORD PTR rem$[rsp], 1
  00844	75 0a		 jne	 SHORT $LN53@load_file
  00846	c7 44 24 70 01
	00 00 00	 mov	 DWORD PTR tv303[rsp], 1
  0084e	eb 08		 jmp	 SHORT $LN54@load_file
$LN53@load_file:
  00850	c7 44 24 70 00
	00 00 00	 mov	 DWORD PTR tv303[rsp], 0
$LN54@load_file:
  00858	83 7c 24 70 00	 cmp	 DWORD PTR tv303[rsp], 0
  0085d	75 0a		 jne	 SHORT $LN55@load_file
  0085f	c7 44 24 54 00
	00 00 00	 mov	 DWORD PTR tv305[rsp], 0
  00867	eb 08		 jmp	 SHORT $LN56@load_file
$LN55@load_file:
  00869	c7 44 24 54 01
	00 00 00	 mov	 DWORD PTR tv305[rsp], 1
$LN56@load_file:
  00871	48 8b 84 24 c8
	00 00 00	 mov	 rax, QWORD PTR rszsplit$[rsp]
  00879	0f b6 4c 24 54	 movzx	 ecx, BYTE PTR tv305[rsp]
  0087e	88 08		 mov	 BYTE PTR [rax], cl
  00880	0f b6 44 24 54	 movzx	 eax, BYTE PTR tv305[rsp]
  00885	85 c0		 test	 eax, eax
  00887	74 12		 je	 SHORT $LN39@load_file

; 2432 :             *rsz1 = *rec;

  00889	48 8b 84 24 d0
	00 00 00	 mov	 rax, QWORD PTR rsz1$[rsp]
  00891	48 8b 4c 24 40	 mov	 rcx, QWORD PTR rec$[rsp]
  00896	0f b6 09	 movzx	 ecx, BYTE PTR [rcx]
  00899	88 08		 mov	 BYTE PTR [rax], cl
$LN39@load_file:
$LN13@load_file:

; 2433 :     }
; 2434 : 
; 2435 :     return rc;

  0089b	8b 44 24 34	 mov	 eax, DWORD PTR rc$[rsp]
$LN1@load_file:

; 2436 : }

  0089f	48 81 c4 88 00
	00 00		 add	 rsp, 136		; 00000088H
  008a6	c3		 ret	 0
load_file ENDP
_TEXT	ENDS
; Function compile flags: /Odtp
; File C:\papa\MyGit\hyperion-zvector\vmfplc2.c
_TEXT	SEGMENT
info$ = 32
__$ArrayPad$ = 112
fst$ = 144
opts$ = 152
log_fst_skipped PROC

; 2228 : {

  00000	48 89 54 24 10	 mov	 QWORD PTR [rsp+16], rdx
  00005	48 89 4c 24 08	 mov	 QWORD PTR [rsp+8], rcx
  0000a	48 81 ec 88 00
	00 00		 sub	 rsp, 136		; 00000088H
  00011	48 8b 05 00 00
	00 00		 mov	 rax, QWORD PTR __security_cookie
  00018	48 33 c4	 xor	 rax, rsp
  0001b	48 89 44 24 70	 mov	 QWORD PTR __$ArrayPad$[rsp], rax

; 2229 :     char info[80];
; 2230 :     if (!opts->quiet)

  00020	48 8b 84 24 98
	00 00 00	 mov	 rax, QWORD PTR opts$[rsp]
  00028	0f b6 40 19	 movzx	 eax, BYTE PTR [rax+25]
  0002c	85 c0		 test	 eax, eax
  0002e	75 20		 jne	 SHORT $LN2@log_fst_sk

; 2231 :         log_skipped( format_fst_info( fst, info, sizeof( info )));

  00030	41 b8 50 00 00
	00		 mov	 r8d, 80			; 00000050H
  00036	48 8d 54 24 20	 lea	 rdx, QWORD PTR info$[rsp]
  0003b	48 8b 8c 24 90
	00 00 00	 mov	 rcx, QWORD PTR fst$[rsp]
  00043	e8 00 00 00 00	 call	 format_fst_info
  00048	48 8b c8	 mov	 rcx, rax
  0004b	e8 00 00 00 00	 call	 log_skipped
$LN2@log_fst_sk:

; 2232 : }

  00050	48 8b 4c 24 70	 mov	 rcx, QWORD PTR __$ArrayPad$[rsp]
  00055	48 33 cc	 xor	 rcx, rsp
  00058	e8 00 00 00 00	 call	 __security_check_cookie
  0005d	48 81 c4 88 00
	00 00		 add	 rsp, 136		; 00000088H
  00064	c3		 ret	 0
log_fst_skipped ENDP
_TEXT	ENDS
; Function compile flags: /Odtp
; File C:\papa\MyGit\hyperion-zvector\vmfplc2.c
_TEXT	SEGMENT
info$ = 32
__$ArrayPad$ = 112
cms$ = 144
opts$ = 152
log_cms_skipped PROC

; 2222 : {

  00000	48 89 54 24 10	 mov	 QWORD PTR [rsp+16], rdx
  00005	48 89 4c 24 08	 mov	 QWORD PTR [rsp+8], rcx
  0000a	48 81 ec 88 00
	00 00		 sub	 rsp, 136		; 00000088H
  00011	48 8b 05 00 00
	00 00		 mov	 rax, QWORD PTR __security_cookie
  00018	48 33 c4	 xor	 rax, rsp
  0001b	48 89 44 24 70	 mov	 QWORD PTR __$ArrayPad$[rsp], rax

; 2223 :     char info[80];
; 2224 :     if (!opts->quiet)

  00020	48 8b 84 24 98
	00 00 00	 mov	 rax, QWORD PTR opts$[rsp]
  00028	0f b6 40 19	 movzx	 eax, BYTE PTR [rax+25]
  0002c	85 c0		 test	 eax, eax
  0002e	75 20		 jne	 SHORT $LN2@log_cms_sk

; 2225 :         log_skipped( format_cms_info( cms, info, sizeof( info )));

  00030	41 b8 50 00 00
	00		 mov	 r8d, 80			; 00000050H
  00036	48 8d 54 24 20	 lea	 rdx, QWORD PTR info$[rsp]
  0003b	48 8b 8c 24 90
	00 00 00	 mov	 rcx, QWORD PTR cms$[rsp]
  00043	e8 00 00 00 00	 call	 format_cms_info
  00048	48 8b c8	 mov	 rcx, rax
  0004b	e8 00 00 00 00	 call	 log_skipped
$LN2@log_cms_sk:

; 2226 : }

  00050	48 8b 4c 24 70	 mov	 rcx, QWORD PTR __$ArrayPad$[rsp]
  00055	48 33 cc	 xor	 rcx, rsp
  00058	e8 00 00 00 00	 call	 __security_check_cookie
  0005d	48 81 c4 88 00
	00 00		 add	 rsp, 136		; 00000088H
  00064	c3		 ret	 0
log_cms_skipped ENDP
_TEXT	ENDS
; Function compile flags: /Odtp
; File C:\papa\MyGit\hyperion-zvector\vmfplc2.c
_TEXT	SEGMENT
msgbuf$ = 64
__$ArrayPad$ = 416
info$ = 448
log_skipped PROC

; 2212 : {

  00000	48 89 4c 24 08	 mov	 QWORD PTR [rsp+8], rcx
  00005	48 81 ec b8 01
	00 00		 sub	 rsp, 440		; 000001b8H
  0000c	48 8b 05 00 00
	00 00		 mov	 rax, QWORD PTR __security_cookie
  00013	48 33 c4	 xor	 rax, rsp
  00016	48 89 84 24 a0
	01 00 00	 mov	 QWORD PTR __$ArrayPad$[rsp], rax

; 2213 :     char msgbuf[80+MAX_PATH];
; 2214 :     MSGBUF( msgbuf, "SKIPPED:    %s", info );

  0001e	4c 8b 8c 24 c0
	01 00 00	 mov	 r9, QWORD PTR info$[rsp]
  00026	4c 8d 05 00 00
	00 00		 lea	 r8, OFFSET FLAT:$SG170699
  0002d	ba 54 01 00 00	 mov	 edx, 340		; 00000154H
  00032	48 8d 4c 24 40	 lea	 rcx, QWORD PTR msgbuf$[rsp]
  00037	ff 15 00 00 00
	00		 call	 QWORD PTR __imp_w32_snprintf

; 2215 :     // ">>> %s"
; 2216 :     WRMSG( HHC02626, "I", msgbuf );

  0003d	b9 01 00 00 00	 mov	 ecx, 1
  00042	ff 15 00 00 00
	00		 call	 QWORD PTR __imp___acrt_iob_func
  00048	48 8d 4c 24 40	 lea	 rcx, QWORD PTR msgbuf$[rsp]
  0004d	48 89 4c 24 38	 mov	 QWORD PTR [rsp+56], rcx
  00052	48 8d 0d 00 00
	00 00		 lea	 rcx, OFFSET FLAT:$SG170700
  00059	48 89 4c 24 30	 mov	 QWORD PTR [rsp+48], rcx
  0005e	48 8d 0d 00 00
	00 00		 lea	 rcx, OFFSET FLAT:$SG170701
  00065	48 89 4c 24 28	 mov	 QWORD PTR [rsp+40], rcx
  0006a	48 89 44 24 20	 mov	 QWORD PTR [rsp+32], rax
  0006f	41 b9 03 00 00
	00		 mov	 r9d, 3
  00075	4c 8d 05 00 00
	00 00		 lea	 r8, OFFSET FLAT:$SG170702
  0007c	ba a8 08 00 00	 mov	 edx, 2216		; 000008a8H
  00081	48 8d 0d 00 00
	00 00		 lea	 rcx, OFFSET FLAT:$SG170703
  00088	ff 15 00 00 00
	00		 call	 QWORD PTR __imp_fwritemsg

; 2217 :     /* Show them why file is being skipped... */
; 2218 :     // "    %s"
; 2219 :     WRMSG( HHC02633, "I", "            (no matching ctlfile entry)");

  0008e	b9 01 00 00 00	 mov	 ecx, 1
  00093	ff 15 00 00 00
	00		 call	 QWORD PTR __imp___acrt_iob_func
  00099	48 8d 0d 00 00
	00 00		 lea	 rcx, OFFSET FLAT:$SG170704
  000a0	48 89 4c 24 38	 mov	 QWORD PTR [rsp+56], rcx
  000a5	48 8d 0d 00 00
	00 00		 lea	 rcx, OFFSET FLAT:$SG170705
  000ac	48 89 4c 24 30	 mov	 QWORD PTR [rsp+48], rcx
  000b1	48 8d 0d 00 00
	00 00		 lea	 rcx, OFFSET FLAT:$SG170706
  000b8	48 89 4c 24 28	 mov	 QWORD PTR [rsp+40], rcx
  000bd	48 89 44 24 20	 mov	 QWORD PTR [rsp+32], rax
  000c2	41 b9 03 00 00
	00		 mov	 r9d, 3
  000c8	4c 8d 05 00 00
	00 00		 lea	 r8, OFFSET FLAT:$SG170707
  000cf	ba ab 08 00 00	 mov	 edx, 2219		; 000008abH
  000d4	48 8d 0d 00 00
	00 00		 lea	 rcx, OFFSET FLAT:$SG170708
  000db	ff 15 00 00 00
	00		 call	 QWORD PTR __imp_fwritemsg

; 2220 : }

  000e1	48 8b 8c 24 a0
	01 00 00	 mov	 rcx, QWORD PTR __$ArrayPad$[rsp]
  000e9	48 33 cc	 xor	 rcx, rsp
  000ec	e8 00 00 00 00	 call	 __security_check_cookie
  000f1	48 81 c4 b8 01
	00 00		 add	 rsp, 440		; 000001b8H
  000f8	c3		 ret	 0
log_skipped ENDP
_TEXT	ENDS
; Function compile flags: /Odtp
; File C:\papa\MyGit\hyperion-zvector\vmfplc2.c
_TEXT	SEGMENT
info$ = 32
__$ArrayPad$ = 112
fst$ = 144
ctl$ = 152
opts$ = 160
log_fst_loaded PROC

; 2203 : {

  00000	4c 89 44 24 18	 mov	 QWORD PTR [rsp+24], r8
  00005	48 89 54 24 10	 mov	 QWORD PTR [rsp+16], rdx
  0000a	48 89 4c 24 08	 mov	 QWORD PTR [rsp+8], rcx
  0000f	48 81 ec 88 00
	00 00		 sub	 rsp, 136		; 00000088H
  00016	48 8b 05 00 00
	00 00		 mov	 rax, QWORD PTR __security_cookie
  0001d	48 33 c4	 xor	 rax, rsp
  00020	48 89 44 24 70	 mov	 QWORD PTR __$ArrayPad$[rsp], rax

; 2204 :     char info[80];
; 2205 :     log_loaded( opts, ctl, format_fst_info( fst, info, sizeof( info )));

  00025	41 b8 50 00 00
	00		 mov	 r8d, 80			; 00000050H
  0002b	48 8d 54 24 20	 lea	 rdx, QWORD PTR info$[rsp]
  00030	48 8b 8c 24 90
	00 00 00	 mov	 rcx, QWORD PTR fst$[rsp]
  00038	e8 00 00 00 00	 call	 format_fst_info
  0003d	4c 8b c0	 mov	 r8, rax
  00040	48 8b 94 24 98
	00 00 00	 mov	 rdx, QWORD PTR ctl$[rsp]
  00048	48 8b 8c 24 a0
	00 00 00	 mov	 rcx, QWORD PTR opts$[rsp]
  00050	e8 00 00 00 00	 call	 log_loaded

; 2206 : }

  00055	48 8b 4c 24 70	 mov	 rcx, QWORD PTR __$ArrayPad$[rsp]
  0005a	48 33 cc	 xor	 rcx, rsp
  0005d	e8 00 00 00 00	 call	 __security_check_cookie
  00062	48 81 c4 88 00
	00 00		 add	 rsp, 136		; 00000088H
  00069	c3		 ret	 0
log_fst_loaded ENDP
_TEXT	ENDS
; Function compile flags: /Odtp
; File C:\papa\MyGit\hyperion-zvector\vmfplc2.c
_TEXT	SEGMENT
info$ = 32
__$ArrayPad$ = 112
cms$ = 144
ctl$ = 152
opts$ = 160
log_cms_loaded PROC

; 2198 : {

  00000	4c 89 44 24 18	 mov	 QWORD PTR [rsp+24], r8
  00005	48 89 54 24 10	 mov	 QWORD PTR [rsp+16], rdx
  0000a	48 89 4c 24 08	 mov	 QWORD PTR [rsp+8], rcx
  0000f	48 81 ec 88 00
	00 00		 sub	 rsp, 136		; 00000088H
  00016	48 8b 05 00 00
	00 00		 mov	 rax, QWORD PTR __security_cookie
  0001d	48 33 c4	 xor	 rax, rsp
  00020	48 89 44 24 70	 mov	 QWORD PTR __$ArrayPad$[rsp], rax

; 2199 :     char info[80];
; 2200 :     log_loaded( opts, ctl, format_cms_info( cms, info, sizeof( info )));

  00025	41 b8 50 00 00
	00		 mov	 r8d, 80			; 00000050H
  0002b	48 8d 54 24 20	 lea	 rdx, QWORD PTR info$[rsp]
  00030	48 8b 8c 24 90
	00 00 00	 mov	 rcx, QWORD PTR cms$[rsp]
  00038	e8 00 00 00 00	 call	 format_cms_info
  0003d	4c 8b c0	 mov	 r8, rax
  00040	48 8b 94 24 98
	00 00 00	 mov	 rdx, QWORD PTR ctl$[rsp]
  00048	48 8b 8c 24 a0
	00 00 00	 mov	 rcx, QWORD PTR opts$[rsp]
  00050	e8 00 00 00 00	 call	 log_loaded

; 2201 : }

  00055	48 8b 4c 24 70	 mov	 rcx, QWORD PTR __$ArrayPad$[rsp]
  0005a	48 33 cc	 xor	 rcx, rsp
  0005d	e8 00 00 00 00	 call	 __security_check_cookie
  00062	48 81 c4 88 00
	00 00		 add	 rsp, 136		; 00000088H
  00069	c3		 ret	 0
log_cms_loaded ENDP
_TEXT	ENDS
; Function compile flags: /Odtp
; File C:\papa\MyGit\hyperion-zvector\vmfplc2.c
_TEXT	SEGMENT
msgbuf$ = 64
__$ArrayPad$ = 416
opts$ = 448
ctl$ = 456
info$ = 464
log_loaded PROC

; 2184 : {

  00000	4c 89 44 24 18	 mov	 QWORD PTR [rsp+24], r8
  00005	48 89 54 24 10	 mov	 QWORD PTR [rsp+16], rdx
  0000a	48 89 4c 24 08	 mov	 QWORD PTR [rsp+8], rcx
  0000f	48 81 ec b8 01
	00 00		 sub	 rsp, 440		; 000001b8H
  00016	48 8b 05 00 00
	00 00		 mov	 rax, QWORD PTR __security_cookie
  0001d	48 33 c4	 xor	 rax, rsp
  00020	48 89 84 24 a0
	01 00 00	 mov	 QWORD PTR __$ArrayPad$[rsp], rax

; 2185 :     char msgbuf[80+MAX_PATH];
; 2186 :     // ">>> %s"
; 2187 :     MSGBUF( msgbuf, "LOADING:    %s", info );

  00028	4c 8b 8c 24 d0
	01 00 00	 mov	 r9, QWORD PTR info$[rsp]
  00030	4c 8d 05 00 00
	00 00		 lea	 r8, OFFSET FLAT:$SG170665
  00037	ba 54 01 00 00	 mov	 edx, 340		; 00000154H
  0003c	48 8d 4c 24 40	 lea	 rcx, QWORD PTR msgbuf$[rsp]
  00041	ff 15 00 00 00
	00		 call	 QWORD PTR __imp_w32_snprintf

; 2188 :     WRMSG( HHC02626, "I", msgbuf );

  00047	b9 01 00 00 00	 mov	 ecx, 1
  0004c	ff 15 00 00 00
	00		 call	 QWORD PTR __imp___acrt_iob_func
  00052	48 8d 4c 24 40	 lea	 rcx, QWORD PTR msgbuf$[rsp]
  00057	48 89 4c 24 38	 mov	 QWORD PTR [rsp+56], rcx
  0005c	48 8d 0d 00 00
	00 00		 lea	 rcx, OFFSET FLAT:$SG170666
  00063	48 89 4c 24 30	 mov	 QWORD PTR [rsp+48], rcx
  00068	48 8d 0d 00 00
	00 00		 lea	 rcx, OFFSET FLAT:$SG170667
  0006f	48 89 4c 24 28	 mov	 QWORD PTR [rsp+40], rcx
  00074	48 89 44 24 20	 mov	 QWORD PTR [rsp+32], rax
  00079	41 b9 03 00 00
	00		 mov	 r9d, 3
  0007f	4c 8d 05 00 00
	00 00		 lea	 r8, OFFSET FLAT:$SG170668
  00086	ba 8c 08 00 00	 mov	 edx, 2188		; 0000088cH
  0008b	48 8d 0d 00 00
	00 00		 lea	 rcx, OFFSET FLAT:$SG170669
  00092	ff 15 00 00 00
	00		 call	 QWORD PTR __imp_fwritemsg

; 2189 :     if (!opts->quiet)

  00098	48 8b 84 24 c0
	01 00 00	 mov	 rax, QWORD PTR opts$[rsp]
  000a0	0f b6 40 19	 movzx	 eax, BYTE PTR [rax+25]
  000a4	85 c0		 test	 eax, eax
  000a6	75 74		 jne	 SHORT $LN2@log_loaded

; 2190 :     {
; 2191 :         /* Show them where file is being loaded to... */
; 2192 :         // "    %s"
; 2193 :         MSGBUF( msgbuf, "     to:    %s", ctl->hostfile );

  000a8	48 8b 84 24 c8
	01 00 00	 mov	 rax, QWORD PTR ctl$[rsp]
  000b0	4c 8b 48 28	 mov	 r9, QWORD PTR [rax+40]
  000b4	4c 8d 05 00 00
	00 00		 lea	 r8, OFFSET FLAT:$SG170671
  000bb	ba 54 01 00 00	 mov	 edx, 340		; 00000154H
  000c0	48 8d 4c 24 40	 lea	 rcx, QWORD PTR msgbuf$[rsp]
  000c5	ff 15 00 00 00
	00		 call	 QWORD PTR __imp_w32_snprintf

; 2194 :         WRMSG( HHC02633, "I", msgbuf );

  000cb	b9 01 00 00 00	 mov	 ecx, 1
  000d0	ff 15 00 00 00
	00		 call	 QWORD PTR __imp___acrt_iob_func
  000d6	48 8d 4c 24 40	 lea	 rcx, QWORD PTR msgbuf$[rsp]
  000db	48 89 4c 24 38	 mov	 QWORD PTR [rsp+56], rcx
  000e0	48 8d 0d 00 00
	00 00		 lea	 rcx, OFFSET FLAT:$SG170672
  000e7	48 89 4c 24 30	 mov	 QWORD PTR [rsp+48], rcx
  000ec	48 8d 0d 00 00
	00 00		 lea	 rcx, OFFSET FLAT:$SG170673
  000f3	48 89 4c 24 28	 mov	 QWORD PTR [rsp+40], rcx
  000f8	48 89 44 24 20	 mov	 QWORD PTR [rsp+32], rax
  000fd	41 b9 03 00 00
	00		 mov	 r9d, 3
  00103	4c 8d 05 00 00
	00 00		 lea	 r8, OFFSET FLAT:$SG170674
  0010a	ba 92 08 00 00	 mov	 edx, 2194		; 00000892H
  0010f	48 8d 0d 00 00
	00 00		 lea	 rcx, OFFSET FLAT:$SG170675
  00116	ff 15 00 00 00
	00		 call	 QWORD PTR __imp_fwritemsg
$LN2@log_loaded:

; 2195 :     }
; 2196 : }

  0011c	48 8b 8c 24 a0
	01 00 00	 mov	 rcx, QWORD PTR __$ArrayPad$[rsp]
  00124	48 33 cc	 xor	 rcx, rsp
  00127	e8 00 00 00 00	 call	 __security_check_cookie
  0012c	48 81 c4 b8 01
	00 00		 add	 rsp, 440		; 000001b8H
  00133	c3		 ret	 0
log_loaded ENDP
_TEXT	ENDS
; Function compile flags: /Odtp
; File C:\papa\MyGit\hyperion-zvector\vmfplc2.c
_TEXT	SEGMENT
rc$ = 80
tv72 = 88
ofile$ = 112
filefmt$ = 120
name$ = 128
endof_rec PROC

; 2162 : {

  00000	4c 89 44 24 18	 mov	 QWORD PTR [rsp+24], r8
  00005	88 54 24 10	 mov	 BYTE PTR [rsp+16], dl
  00009	48 89 4c 24 08	 mov	 QWORD PTR [rsp+8], rcx
  0000e	48 83 ec 68	 sub	 rsp, 104		; 00000068H

; 2163 :     int rc = 0;

  00012	c7 44 24 50 00
	00 00 00	 mov	 DWORD PTR rc$[rsp], 0

; 2164 :     if (filefmt == 'T')  // ('T'extual)

  0001a	0f be 44 24 78	 movsx	 eax, BYTE PTR filefmt$[rsp]
  0001f	83 f8 54	 cmp	 eax, 84			; 00000054H
  00022	0f 85 9c 00 00
	00		 jne	 $LN2@endof_rec

; 2165 :     {
; 2166 : #if defined( _MSVC_ )
; 2167 :         if (fwrite( "\r\n", 1, 2, ofile ) != 2)

  00028	4c 8b 4c 24 70	 mov	 r9, QWORD PTR ofile$[rsp]
  0002d	41 b8 02 00 00
	00		 mov	 r8d, 2
  00033	ba 01 00 00 00	 mov	 edx, 1
  00038	48 8d 0d 00 00
	00 00		 lea	 rcx, OFFSET FLAT:$SG170651
  0003f	ff 15 00 00 00
	00		 call	 QWORD PTR __imp_w32_fwrite
  00045	48 83 f8 02	 cmp	 rax, 2
  00049	74 79		 je	 SHORT $LN3@endof_rec

; 2168 : #else
; 2169 :         if (fwrite( "\n",   1, 1, ofile ) != 1)
; 2170 : #endif
; 2171 :         {
; 2172 :             // "I/O error on file \"%s\": %s"
; 2173 :             FWRMSG( stderr, HHC02627, "E", name, strerror( errno ));

  0004b	ff 15 00 00 00
	00		 call	 QWORD PTR __imp__errno
  00051	8b 08		 mov	 ecx, DWORD PTR [rax]
  00053	ff 15 00 00 00
	00		 call	 QWORD PTR __imp_w32_strerror
  00059	48 89 44 24 58	 mov	 QWORD PTR tv72[rsp], rax
  0005e	b9 02 00 00 00	 mov	 ecx, 2
  00063	ff 15 00 00 00
	00		 call	 QWORD PTR __imp___acrt_iob_func
  00069	48 8b 4c 24 58	 mov	 rcx, QWORD PTR tv72[rsp]
  0006e	48 89 4c 24 40	 mov	 QWORD PTR [rsp+64], rcx
  00073	48 8b 8c 24 80
	00 00 00	 mov	 rcx, QWORD PTR name$[rsp]
  0007b	48 89 4c 24 38	 mov	 QWORD PTR [rsp+56], rcx
  00080	48 8d 0d 00 00
	00 00		 lea	 rcx, OFFSET FLAT:$SG170652
  00087	48 89 4c 24 30	 mov	 QWORD PTR [rsp+48], rcx
  0008c	48 8d 0d 00 00
	00 00		 lea	 rcx, OFFSET FLAT:$SG170653
  00093	48 89 4c 24 28	 mov	 QWORD PTR [rsp+40], rcx
  00098	48 89 44 24 20	 mov	 QWORD PTR [rsp+32], rax
  0009d	41 b9 03 00 00
	00		 mov	 r9d, 3
  000a3	4c 8d 05 00 00
	00 00		 lea	 r8, OFFSET FLAT:$SG170654
  000aa	ba 7d 08 00 00	 mov	 edx, 2173		; 0000087dH
  000af	48 8d 0d 00 00
	00 00		 lea	 rcx, OFFSET FLAT:$SG170655
  000b6	ff 15 00 00 00
	00		 call	 QWORD PTR __imp_fwritemsg

; 2174 :             rc = -1;

  000bc	c7 44 24 50 ff
	ff ff ff	 mov	 DWORD PTR rc$[rsp], -1
$LN3@endof_rec:
$LN2@endof_rec:

; 2175 :         }
; 2176 :     }
; 2177 :     return rc;

  000c4	8b 44 24 50	 mov	 eax, DWORD PTR rc$[rsp]

; 2178 : }

  000c8	48 83 c4 68	 add	 rsp, 104		; 00000068H
  000cc	c3		 ret	 0
endof_rec ENDP
_TEXT	ENDS
; Function compile flags: /Odtp
; File C:\papa\MyGit\hyperion-zvector\vmfplc2.c
_TEXT	SEGMENT
rc$ = 80
tv88 = 88
ofile$ = 112
p$ = 120
len$ = 128
trim$ = 136
filefmt$ = 144
name$ = 152
write_rec PROC

; 2137 : {

  00000	44 88 4c 24 20	 mov	 BYTE PTR [rsp+32], r9b
  00005	44 89 44 24 18	 mov	 DWORD PTR [rsp+24], r8d
  0000a	48 89 54 24 10	 mov	 QWORD PTR [rsp+16], rdx
  0000f	48 89 4c 24 08	 mov	 QWORD PTR [rsp+8], rcx
  00014	48 83 ec 68	 sub	 rsp, 104		; 00000068H

; 2138 :     int rc = 0;

  00018	c7 44 24 50 00
	00 00 00	 mov	 DWORD PTR rc$[rsp], 0

; 2139 :     if (len)

  00020	83 bc 24 80 00
	00 00 00	 cmp	 DWORD PTR len$[rsp], 0
  00028	0f 84 18 01 00
	00		 je	 $LN4@write_rec

; 2140 :     {
; 2141 :         if (filefmt == 'T')  // ('T'extual)

  0002e	0f be 84 24 90
	00 00 00	 movsx	 eax, BYTE PTR filefmt$[rsp]
  00036	83 f8 54	 cmp	 eax, 84			; 00000054H
  00039	75 57		 jne	 SHORT $LN5@write_rec

; 2142 :         {
; 2143 :             buf_guest_to_host( p, p, len );

  0003b	44 8b 84 24 80
	00 00 00	 mov	 r8d, DWORD PTR len$[rsp]
  00043	48 8b 54 24 78	 mov	 rdx, QWORD PTR p$[rsp]
  00048	48 8b 4c 24 78	 mov	 rcx, QWORD PTR p$[rsp]
  0004d	ff 15 00 00 00
	00		 call	 QWORD PTR __imp_buf_guest_to_host

; 2144 :             if (trim)

  00053	0f b6 84 24 88
	00 00 00	 movzx	 eax, BYTE PTR trim$[rsp]
  0005b	85 c0		 test	 eax, eax
  0005d	74 33		 je	 SHORT $LN6@write_rec
$LN2@write_rec:

; 2145 :                 while (len && ' ' == (char)(*(p + len - 1)))

  0005f	83 bc 24 80 00
	00 00 00	 cmp	 DWORD PTR len$[rsp], 0
  00067	74 29		 je	 SHORT $LN3@write_rec
  00069	48 63 84 24 80
	00 00 00	 movsxd	 rax, DWORD PTR len$[rsp]
  00071	48 8b 4c 24 78	 mov	 rcx, QWORD PTR p$[rsp]
  00076	0f be 44 01 ff	 movsx	 eax, BYTE PTR [rcx+rax-1]
  0007b	83 f8 20	 cmp	 eax, 32			; 00000020H
  0007e	75 12		 jne	 SHORT $LN3@write_rec

; 2146 :                     --len;

  00080	8b 84 24 80 00
	00 00		 mov	 eax, DWORD PTR len$[rsp]
  00087	ff c8		 dec	 eax
  00089	89 84 24 80 00
	00 00		 mov	 DWORD PTR len$[rsp], eax
  00090	eb cd		 jmp	 SHORT $LN2@write_rec
$LN3@write_rec:
$LN6@write_rec:
$LN5@write_rec:

; 2147 :         }
; 2148 :         if (len && fwrite( p, 1, (size_t) len, ofile ) != (size_t) len)

  00092	83 bc 24 80 00
	00 00 00	 cmp	 DWORD PTR len$[rsp], 0
  0009a	0f 84 a6 00 00
	00		 je	 $LN7@write_rec
  000a0	48 63 84 24 80
	00 00 00	 movsxd	 rax, DWORD PTR len$[rsp]
  000a8	4c 8b 4c 24 70	 mov	 r9, QWORD PTR ofile$[rsp]
  000ad	4c 8b c0	 mov	 r8, rax
  000b0	ba 01 00 00 00	 mov	 edx, 1
  000b5	48 8b 4c 24 78	 mov	 rcx, QWORD PTR p$[rsp]
  000ba	ff 15 00 00 00
	00		 call	 QWORD PTR __imp_w32_fwrite
  000c0	48 63 8c 24 80
	00 00 00	 movsxd	 rcx, DWORD PTR len$[rsp]
  000c8	48 3b c1	 cmp	 rax, rcx
  000cb	74 79		 je	 SHORT $LN7@write_rec

; 2149 :         {
; 2150 :             // "I/O error on file \"%s\": %s"
; 2151 :             FWRMSG( stderr, HHC02627, "E", name, strerror( errno ));

  000cd	ff 15 00 00 00
	00		 call	 QWORD PTR __imp__errno
  000d3	8b 08		 mov	 ecx, DWORD PTR [rax]
  000d5	ff 15 00 00 00
	00		 call	 QWORD PTR __imp_w32_strerror
  000db	48 89 44 24 58	 mov	 QWORD PTR tv88[rsp], rax
  000e0	b9 02 00 00 00	 mov	 ecx, 2
  000e5	ff 15 00 00 00
	00		 call	 QWORD PTR __imp___acrt_iob_func
  000eb	48 8b 4c 24 58	 mov	 rcx, QWORD PTR tv88[rsp]
  000f0	48 89 4c 24 40	 mov	 QWORD PTR [rsp+64], rcx
  000f5	48 8b 8c 24 98
	00 00 00	 mov	 rcx, QWORD PTR name$[rsp]
  000fd	48 89 4c 24 38	 mov	 QWORD PTR [rsp+56], rcx
  00102	48 8d 0d 00 00
	00 00		 lea	 rcx, OFFSET FLAT:$SG170636
  00109	48 89 4c 24 30	 mov	 QWORD PTR [rsp+48], rcx
  0010e	48 8d 0d 00 00
	00 00		 lea	 rcx, OFFSET FLAT:$SG170637
  00115	48 89 4c 24 28	 mov	 QWORD PTR [rsp+40], rcx
  0011a	48 89 44 24 20	 mov	 QWORD PTR [rsp+32], rax
  0011f	41 b9 03 00 00
	00		 mov	 r9d, 3
  00125	4c 8d 05 00 00
	00 00		 lea	 r8, OFFSET FLAT:$SG170638
  0012c	ba 67 08 00 00	 mov	 edx, 2151		; 00000867H
  00131	48 8d 0d 00 00
	00 00		 lea	 rcx, OFFSET FLAT:$SG170639
  00138	ff 15 00 00 00
	00		 call	 QWORD PTR __imp_fwritemsg

; 2152 :             rc = -1;

  0013e	c7 44 24 50 ff
	ff ff ff	 mov	 DWORD PTR rc$[rsp], -1
$LN7@write_rec:
$LN4@write_rec:

; 2153 :         }
; 2154 :     }
; 2155 :     return rc;

  00146	8b 44 24 50	 mov	 eax, DWORD PTR rc$[rsp]

; 2156 : }

  0014a	48 83 c4 68	 add	 rsp, 104		; 00000068H
  0014e	c3		 ret	 0
write_rec ENDP
_TEXT	ENDS
; Function compile flags: /Odtp
; File C:\papa\MyGit\hyperion-zvector\vmfplc2.c
_TEXT	SEGMENT
rc$ = 80
tv72 = 88
ofile$ = 112
p$ = 120
filefmt$ = 128
name$ = 136
write_siz PROC

; 2118 : {

  00000	4c 89 4c 24 20	 mov	 QWORD PTR [rsp+32], r9
  00005	44 88 44 24 18	 mov	 BYTE PTR [rsp+24], r8b
  0000a	48 89 54 24 10	 mov	 QWORD PTR [rsp+16], rdx
  0000f	48 89 4c 24 08	 mov	 QWORD PTR [rsp+8], rcx
  00014	48 83 ec 68	 sub	 rsp, 104		; 00000068H

; 2119 :     int rc = 0;

  00018	c7 44 24 50 00
	00 00 00	 mov	 DWORD PTR rc$[rsp], 0

; 2120 :     if (filefmt == 'S')  // ('S'tructured)

  00020	0f be 84 24 80
	00 00 00	 movsx	 eax, BYTE PTR filefmt$[rsp]
  00028	83 f8 53	 cmp	 eax, 83			; 00000053H
  0002b	0f 85 9a 00 00
	00		 jne	 $LN2@write_siz

; 2121 :     {
; 2122 :         if (fwrite( p, 1, sizeof( HWORD ), ofile ) != sizeof( HWORD ))

  00031	4c 8b 4c 24 70	 mov	 r9, QWORD PTR ofile$[rsp]
  00036	41 b8 02 00 00
	00		 mov	 r8d, 2
  0003c	ba 01 00 00 00	 mov	 edx, 1
  00041	48 8b 4c 24 78	 mov	 rcx, QWORD PTR p$[rsp]
  00046	ff 15 00 00 00
	00		 call	 QWORD PTR __imp_w32_fwrite
  0004c	48 83 f8 02	 cmp	 rax, 2
  00050	74 79		 je	 SHORT $LN3@write_siz

; 2123 :         {
; 2124 :             // "I/O error on file \"%s\": %s"
; 2125 :             FWRMSG( stderr, HHC02627, "E", name, strerror( errno ));

  00052	ff 15 00 00 00
	00		 call	 QWORD PTR __imp__errno
  00058	8b 08		 mov	 ecx, DWORD PTR [rax]
  0005a	ff 15 00 00 00
	00		 call	 QWORD PTR __imp_w32_strerror
  00060	48 89 44 24 58	 mov	 QWORD PTR tv72[rsp], rax
  00065	b9 02 00 00 00	 mov	 ecx, 2
  0006a	ff 15 00 00 00
	00		 call	 QWORD PTR __imp___acrt_iob_func
  00070	48 8b 4c 24 58	 mov	 rcx, QWORD PTR tv72[rsp]
  00075	48 89 4c 24 40	 mov	 QWORD PTR [rsp+64], rcx
  0007a	48 8b 8c 24 88
	00 00 00	 mov	 rcx, QWORD PTR name$[rsp]
  00082	48 89 4c 24 38	 mov	 QWORD PTR [rsp+56], rcx
  00087	48 8d 0d 00 00
	00 00		 lea	 rcx, OFFSET FLAT:$SG170608
  0008e	48 89 4c 24 30	 mov	 QWORD PTR [rsp+48], rcx
  00093	48 8d 0d 00 00
	00 00		 lea	 rcx, OFFSET FLAT:$SG170609
  0009a	48 89 4c 24 28	 mov	 QWORD PTR [rsp+40], rcx
  0009f	48 89 44 24 20	 mov	 QWORD PTR [rsp+32], rax
  000a4	41 b9 03 00 00
	00		 mov	 r9d, 3
  000aa	4c 8d 05 00 00
	00 00		 lea	 r8, OFFSET FLAT:$SG170610
  000b1	ba 4d 08 00 00	 mov	 edx, 2125		; 0000084dH
  000b6	48 8d 0d 00 00
	00 00		 lea	 rcx, OFFSET FLAT:$SG170611
  000bd	ff 15 00 00 00
	00		 call	 QWORD PTR __imp_fwritemsg

; 2126 :             rc = -1;

  000c3	c7 44 24 50 ff
	ff ff ff	 mov	 DWORD PTR rc$[rsp], -1
$LN3@write_siz:
$LN2@write_siz:

; 2127 :         }
; 2128 :     }
; 2129 :     return rc;

  000cb	8b 44 24 50	 mov	 eax, DWORD PTR rc$[rsp]

; 2130 : }

  000cf	48 83 c4 68	 add	 rsp, 104		; 00000068H
  000d3	c3		 ret	 0
write_siz ENDP
_TEXT	ENDS
; Function compile flags: /Odtp
; File C:\papa\MyGit\hyperion-zvector\vmfplc2.c
_TEXT	SEGMENT
rc$ = 64
tapemark_count$ = 68
blksize$ = 72
tv132 = 80
tv167 = 88
tv194 = 96
fst$ = 112
cms$ = 192
info$ = 288
__$ArrayPad$ = 368
opts$ = 416
doscan	PROC

; 2044 : {

  00000	48 89 4c 24 08	 mov	 QWORD PTR [rsp+8], rcx
  00005	56		 push	 rsi
  00006	57		 push	 rdi
  00007	48 81 ec 88 01
	00 00		 sub	 rsp, 392		; 00000188H
  0000e	48 8b 05 00 00
	00 00		 mov	 rax, QWORD PTR __security_cookie
  00015	48 33 c4	 xor	 rax, rsp
  00018	48 89 84 24 70
	01 00 00	 mov	 QWORD PTR __$ArrayPad$[rsp], rax

; 2045 :     int   rc;
; 2046 :     int   blksize;
; 2047 :     int   tapemark_count = 0;

  00020	c7 44 24 44 00
	00 00 00	 mov	 DWORD PTR tapemark_count$[rsp], 0

; 2048 :     FST   fst;
; 2049 :     CMS   cms;
; 2050 :     char  info[80];
; 2051 : 
; 2052 :     // "%s"
; 2053 :     WRMSG( HHC02625, "I", "SCANNING..." );

  00028	b9 01 00 00 00	 mov	 ecx, 1
  0002d	ff 15 00 00 00
	00		 call	 QWORD PTR __imp___acrt_iob_func
  00033	48 8d 0d 00 00
	00 00		 lea	 rcx, OFFSET FLAT:$SG170564
  0003a	48 89 4c 24 38	 mov	 QWORD PTR [rsp+56], rcx
  0003f	48 8d 0d 00 00
	00 00		 lea	 rcx, OFFSET FLAT:$SG170565
  00046	48 89 4c 24 30	 mov	 QWORD PTR [rsp+48], rcx
  0004b	48 8d 0d 00 00
	00 00		 lea	 rcx, OFFSET FLAT:$SG170566
  00052	48 89 4c 24 28	 mov	 QWORD PTR [rsp+40], rcx
  00057	48 89 44 24 20	 mov	 QWORD PTR [rsp+32], rax
  0005c	41 b9 03 00 00
	00		 mov	 r9d, 3
  00062	4c 8d 05 00 00
	00 00		 lea	 r8, OFFSET FLAT:$SG170567
  00069	ba 05 08 00 00	 mov	 edx, 2053		; 00000805H
  0006e	48 8d 0d 00 00
	00 00		 lea	 rcx, OFFSET FLAT:$SG170568
  00075	ff 15 00 00 00
	00		 call	 QWORD PTR __imp_fwritemsg

; 2054 : 
; 2055 :     /* Open the output tape file */
; 2056 :     if ((rc = tape_open( opts )) != 0)

  0007b	48 8b 8c 24 a0
	01 00 00	 mov	 rcx, QWORD PTR opts$[rsp]
  00083	e8 00 00 00 00	 call	 tape_open
  00088	89 44 24 40	 mov	 DWORD PTR rc$[rsp], eax
  0008c	83 7c 24 40 00	 cmp	 DWORD PTR rc$[rsp], 0
  00091	74 09		 je	 SHORT $LN4@doscan

; 2057 :         return rc;

  00093	8b 44 24 40	 mov	 eax, DWORD PTR rc$[rsp]
  00097	e9 d0 02 00 00	 jmp	 $LN1@doscan
$LN4@doscan:
$LN2@doscan:

; 2058 : 
; 2059 :     /* Scan tape until end-of-tape reached (two tapemarks in a row) */
; 2060 :     while (tapemark_count < 2 && (rc = tape_read( opts )) >= 0)

  0009c	83 7c 24 44 02	 cmp	 DWORD PTR tapemark_count$[rsp], 2
  000a1	0f 8d 4a 02 00
	00		 jge	 $LN3@doscan
  000a7	48 8b 8c 24 a0
	01 00 00	 mov	 rcx, QWORD PTR opts$[rsp]
  000af	e8 00 00 00 00	 call	 tape_read
  000b4	89 44 24 40	 mov	 DWORD PTR rc$[rsp], eax
  000b8	83 7c 24 40 00	 cmp	 DWORD PTR rc$[rsp], 0
  000bd	0f 8c 2e 02 00
	00		 jl	 $LN3@doscan

; 2061 :     {
; 2062 :         blksize = rc;

  000c3	8b 44 24 40	 mov	 eax, DWORD PTR rc$[rsp]
  000c7	89 44 24 48	 mov	 DWORD PTR blksize$[rsp], eax

; 2063 : 
; 2064 :         if (blksize)

  000cb	83 7c 24 48 00	 cmp	 DWORD PTR blksize$[rsp], 0
  000d0	0f 84 b9 01 00
	00		 je	 $LN5@doscan

; 2065 :         {
; 2066 :             tapemark_count = 0;

  000d6	c7 44 24 44 00
	00 00 00	 mov	 DWORD PTR tapemark_count$[rsp], 0

; 2067 : 
; 2068 :             /* Is this a PLCH header (FST) block? */
; 2069 :             if (1
; 2070 :                 && blksize >= BLK_HDRSIZE
; 2071 :                 && memcmp( bfr, PLCH_hdr, BLK_HDRSIZE ) == 0

  000de	33 c0		 xor	 eax, eax
  000e0	83 f8 01	 cmp	 eax, 1
  000e3	0f 84 c2 00 00
	00		 je	 $LN7@doscan
  000e9	83 7c 24 48 05	 cmp	 DWORD PTR blksize$[rsp], 5
  000ee	0f 8c b7 00 00
	00		 jl	 $LN7@doscan
  000f4	41 b8 05 00 00
	00		 mov	 r8d, 5
  000fa	48 8d 15 00 00
	00 00		 lea	 rdx, OFFSET FLAT:PLCH_hdr
  00101	48 8d 0d 00 00
	00 00		 lea	 rcx, OFFSET FLAT:bfr
  00108	e8 00 00 00 00	 call	 memcmp
  0010d	85 c0		 test	 eax, eax
  0010f	0f 85 96 00 00
	00		 jne	 $LN7@doscan

; 2072 :             )
; 2073 :             {
; 2074 :                 /* Yes, display file information */
; 2075 :                 memcpy( &fst, &bfr[ BLK_HDRSIZE ], sizeof( FST ));

  00115	b8 01 00 00 00	 mov	 eax, 1
  0011a	48 6b c0 05	 imul	 rax, rax, 5
  0011e	48 8d 0d 00 00
	00 00		 lea	 rcx, OFFSET FLAT:bfr
  00125	48 8d 54 24 70	 lea	 rdx, QWORD PTR fst$[rsp]
  0012a	48 8b fa	 mov	 rdi, rdx
  0012d	48 8d 34 01	 lea	 rsi, QWORD PTR [rcx+rax]
  00131	b9 48 00 00 00	 mov	 ecx, 72			; 00000048H
  00136	f3 a4		 rep movsb

; 2076 : 
; 2077 :                 // ">>> %s"
; 2078 :                 WRMSG( HHC02626, "I",

  00138	41 b8 50 00 00
	00		 mov	 r8d, 80			; 00000050H
  0013e	48 8d 94 24 20
	01 00 00	 lea	 rdx, QWORD PTR info$[rsp]
  00146	48 8d 4c 24 70	 lea	 rcx, QWORD PTR fst$[rsp]
  0014b	e8 00 00 00 00	 call	 format_fst_info
  00150	48 89 44 24 50	 mov	 QWORD PTR tv132[rsp], rax
  00155	b9 01 00 00 00	 mov	 ecx, 1
  0015a	ff 15 00 00 00
	00		 call	 QWORD PTR __imp___acrt_iob_func
  00160	48 8b 4c 24 50	 mov	 rcx, QWORD PTR tv132[rsp]
  00165	48 89 4c 24 38	 mov	 QWORD PTR [rsp+56], rcx
  0016a	48 8d 0d 00 00
	00 00		 lea	 rcx, OFFSET FLAT:$SG170574
  00171	48 89 4c 24 30	 mov	 QWORD PTR [rsp+48], rcx
  00176	48 8d 0d 00 00
	00 00		 lea	 rcx, OFFSET FLAT:$SG170575
  0017d	48 89 4c 24 28	 mov	 QWORD PTR [rsp+40], rcx
  00182	48 89 44 24 20	 mov	 QWORD PTR [rsp+32], rax
  00187	41 b9 03 00 00
	00		 mov	 r9d, 3
  0018d	4c 8d 05 00 00
	00 00		 lea	 r8, OFFSET FLAT:$SG170576
  00194	ba 1f 08 00 00	 mov	 edx, 2079		; 0000081fH
  00199	48 8d 0d 00 00
	00 00		 lea	 rcx, OFFSET FLAT:$SG170577
  001a0	ff 15 00 00 00
	00		 call	 QWORD PTR __imp_fwritemsg

; 2079 :                     format_fst_info( &fst, info, sizeof( info )));
; 2080 :             }

  001a6	e9 e2 00 00 00	 jmp	 $LN8@doscan
$LN7@doscan:

; 2081 :             /* Is this a CMSN header (FST) block? */
; 2082 :             else if (1
; 2083 :                 && opts->cms
; 2084 :                 && blksize >= BLK_HDRSIZE
; 2085 :                 && memcmp( bfr, CMSN_hdr, BLK_HDRSIZE ) == 0

  001ab	33 c0		 xor	 eax, eax
  001ad	83 f8 01	 cmp	 eax, 1
  001b0	0f 84 d7 00 00
	00		 je	 $LN9@doscan
  001b6	48 8b 84 24 a0
	01 00 00	 mov	 rax, QWORD PTR opts$[rsp]
  001be	0f b6 40 18	 movzx	 eax, BYTE PTR [rax+24]
  001c2	85 c0		 test	 eax, eax
  001c4	0f 84 c3 00 00
	00		 je	 $LN9@doscan
  001ca	83 7c 24 48 05	 cmp	 DWORD PTR blksize$[rsp], 5
  001cf	0f 8c b8 00 00
	00		 jl	 $LN9@doscan
  001d5	41 b8 05 00 00
	00		 mov	 r8d, 5
  001db	48 8d 15 00 00
	00 00		 lea	 rdx, OFFSET FLAT:CMSN_hdr
  001e2	48 8d 0d 00 00
	00 00		 lea	 rcx, OFFSET FLAT:bfr
  001e9	e8 00 00 00 00	 call	 memcmp
  001ee	85 c0		 test	 eax, eax
  001f0	0f 85 97 00 00
	00		 jne	 $LN9@doscan

; 2086 :             )
; 2087 :             {
; 2088 :                 /* Yes, display file information */
; 2089 :                 memcpy( &cms, &bfr[ BLK_HDRSIZE ], sizeof( CMS ));

  001f6	b8 01 00 00 00	 mov	 eax, 1
  001fb	48 6b c0 05	 imul	 rax, rax, 5
  001ff	48 8d 0d 00 00
	00 00		 lea	 rcx, OFFSET FLAT:bfr
  00206	48 8d 94 24 c0
	00 00 00	 lea	 rdx, QWORD PTR cms$[rsp]
  0020e	48 8b fa	 mov	 rdi, rdx
  00211	48 8d 34 01	 lea	 rsi, QWORD PTR [rcx+rax]
  00215	b9 52 00 00 00	 mov	 ecx, 82			; 00000052H
  0021a	f3 a4		 rep movsb

; 2090 : 
; 2091 :                 // ">>> %s"
; 2092 :                 WRMSG( HHC02626, "I",

  0021c	41 b8 50 00 00
	00		 mov	 r8d, 80			; 00000050H
  00222	48 8d 94 24 20
	01 00 00	 lea	 rdx, QWORD PTR info$[rsp]
  0022a	48 8d 8c 24 c0
	00 00 00	 lea	 rcx, QWORD PTR cms$[rsp]
  00232	e8 00 00 00 00	 call	 format_cms_info
  00237	48 89 44 24 58	 mov	 QWORD PTR tv167[rsp], rax
  0023c	b9 01 00 00 00	 mov	 ecx, 1
  00241	ff 15 00 00 00
	00		 call	 QWORD PTR __imp___acrt_iob_func
  00247	48 8b 4c 24 58	 mov	 rcx, QWORD PTR tv167[rsp]
  0024c	48 89 4c 24 38	 mov	 QWORD PTR [rsp+56], rcx
  00251	48 8d 0d 00 00
	00 00		 lea	 rcx, OFFSET FLAT:$SG170579
  00258	48 89 4c 24 30	 mov	 QWORD PTR [rsp+48], rcx
  0025d	48 8d 0d 00 00
	00 00		 lea	 rcx, OFFSET FLAT:$SG170580
  00264	48 89 4c 24 28	 mov	 QWORD PTR [rsp+40], rcx
  00269	48 89 44 24 20	 mov	 QWORD PTR [rsp+32], rax
  0026e	41 b9 03 00 00
	00		 mov	 r9d, 3
  00274	4c 8d 05 00 00
	00 00		 lea	 r8, OFFSET FLAT:$SG170581
  0027b	ba 2d 08 00 00	 mov	 edx, 2093		; 0000082dH
  00280	48 8d 0d 00 00
	00 00		 lea	 rcx, OFFSET FLAT:$SG170582
  00287	ff 15 00 00 00
	00		 call	 QWORD PTR __imp_fwritemsg
$LN9@doscan:
$LN8@doscan:

; 2093 :                     format_cms_info( &cms, info, sizeof( info )));
; 2094 :             }
; 2095 :         }

  0028d	eb 5d		 jmp	 SHORT $LN6@doscan
$LN5@doscan:

; 2096 :         else /* (zero length block == tapemark) */
; 2097 :         {
; 2098 :             // "    %s"
; 2099 :             WRMSG( HHC02633, "I", "@TM" );

  0028f	b9 01 00 00 00	 mov	 ecx, 1
  00294	ff 15 00 00 00
	00		 call	 QWORD PTR __imp___acrt_iob_func
  0029a	48 8d 0d 00 00
	00 00		 lea	 rcx, OFFSET FLAT:$SG170583
  002a1	48 89 4c 24 38	 mov	 QWORD PTR [rsp+56], rcx
  002a6	48 8d 0d 00 00
	00 00		 lea	 rcx, OFFSET FLAT:$SG170584
  002ad	48 89 4c 24 30	 mov	 QWORD PTR [rsp+48], rcx
  002b2	48 8d 0d 00 00
	00 00		 lea	 rcx, OFFSET FLAT:$SG170585
  002b9	48 89 4c 24 28	 mov	 QWORD PTR [rsp+40], rcx
  002be	48 89 44 24 20	 mov	 QWORD PTR [rsp+32], rax
  002c3	41 b9 03 00 00
	00		 mov	 r9d, 3
  002c9	4c 8d 05 00 00
	00 00		 lea	 r8, OFFSET FLAT:$SG170586
  002d0	ba 33 08 00 00	 mov	 edx, 2099		; 00000833H
  002d5	48 8d 0d 00 00
	00 00		 lea	 rcx, OFFSET FLAT:$SG170587
  002dc	ff 15 00 00 00
	00		 call	 QWORD PTR __imp_fwritemsg

; 2100 :             tapemark_count++;

  002e2	8b 44 24 44	 mov	 eax, DWORD PTR tapemark_count$[rsp]
  002e6	ff c0		 inc	 eax
  002e8	89 44 24 44	 mov	 DWORD PTR tapemark_count$[rsp], eax
$LN6@doscan:

; 2101 :         }
; 2102 :     }

  002ec	e9 ab fd ff ff	 jmp	 $LN2@doscan
$LN3@doscan:

; 2103 : 
; 2104 :     /* Close input tape and issue completion message */
; 2105 :     tape_close( opts );

  002f1	48 8b 8c 24 a0
	01 00 00	 mov	 rcx, QWORD PTR opts$[rsp]
  002f9	e8 00 00 00 00	 call	 tape_close

; 2106 : 
; 2107 :     if (!(rc < 0))

  002fe	83 7c 24 40 00	 cmp	 DWORD PTR rc$[rsp], 0
  00303	7c 63		 jl	 SHORT $LN10@doscan

; 2108 :         // "%s complete"
; 2109 :         WRMSG( HHC02631, "I", verb( opts ));

  00305	48 8b 8c 24 a0
	01 00 00	 mov	 rcx, QWORD PTR opts$[rsp]
  0030d	e8 00 00 00 00	 call	 verb
  00312	48 89 44 24 60	 mov	 QWORD PTR tv194[rsp], rax
  00317	b9 01 00 00 00	 mov	 ecx, 1
  0031c	ff 15 00 00 00
	00		 call	 QWORD PTR __imp___acrt_iob_func
  00322	48 8b 4c 24 60	 mov	 rcx, QWORD PTR tv194[rsp]
  00327	48 89 4c 24 38	 mov	 QWORD PTR [rsp+56], rcx
  0032c	48 8d 0d 00 00
	00 00		 lea	 rcx, OFFSET FLAT:$SG170589
  00333	48 89 4c 24 30	 mov	 QWORD PTR [rsp+48], rcx
  00338	48 8d 0d 00 00
	00 00		 lea	 rcx, OFFSET FLAT:$SG170590
  0033f	48 89 4c 24 28	 mov	 QWORD PTR [rsp+40], rcx
  00344	48 89 44 24 20	 mov	 QWORD PTR [rsp+32], rax
  00349	41 b9 03 00 00
	00		 mov	 r9d, 3
  0034f	4c 8d 05 00 00
	00 00		 lea	 r8, OFFSET FLAT:$SG170591
  00356	ba 3d 08 00 00	 mov	 edx, 2109		; 0000083dH
  0035b	48 8d 0d 00 00
	00 00		 lea	 rcx, OFFSET FLAT:$SG170592
  00362	ff 15 00 00 00
	00		 call	 QWORD PTR __imp_fwritemsg
$LN10@doscan:

; 2110 : 
; 2111 :     return rc;

  00368	8b 44 24 40	 mov	 eax, DWORD PTR rc$[rsp]
$LN1@doscan:

; 2112 : }

  0036c	48 8b 8c 24 70
	01 00 00	 mov	 rcx, QWORD PTR __$ArrayPad$[rsp]
  00374	48 33 cc	 xor	 rcx, rsp
  00377	e8 00 00 00 00	 call	 __security_check_cookie
  0037c	48 81 c4 88 01
	00 00		 add	 rsp, 392		; 00000188H
  00383	5f		 pop	 rdi
  00384	5e		 pop	 rsi
  00385	c3		 ret	 0
doscan	ENDP
_TEXT	ENDS
; Function compile flags: /Odtp
; File C:\papa\MyGit\hyperion-zvector\vmfplc2.c
_TEXT	SEGMENT
rc$ = 80
i$ = 84
blks$ = 88
fstb$ = 96
cmsb$ = 104
reccount$ = 112
filesz$ = 120
tv157 = 128
tv189 = 136
tv224 = 144
tv259 = 152
tv356 = 160
info$ = 176
__$ArrayPad$ = 256
opts$ = 288
dodump	PROC

; 1914 : {

  00000	48 89 4c 24 08	 mov	 QWORD PTR [rsp+8], rcx
  00005	48 81 ec 18 01
	00 00		 sub	 rsp, 280		; 00000118H
  0000c	48 8b 05 00 00
	00 00		 mov	 rax, QWORD PTR __security_cookie
  00013	48 33 c4	 xor	 rax, rsp
  00016	48 89 84 24 00
	01 00 00	 mov	 QWORD PTR __$ArrayPad$[rsp], rax

; 1915 :     TAPE_BLOCKS*  blks = NULL;

  0001e	48 c7 44 24 58
	00 00 00 00	 mov	 QWORD PTR blks$[rsp], 0

; 1916 :     FST_BLOCK*    fstb = NULL;

  00027	48 c7 44 24 60
	00 00 00 00	 mov	 QWORD PTR fstb$[rsp], 0

; 1917 :     CMS_BLOCK*    cmsb = NULL;

  00030	48 c7 44 24 68
	00 00 00 00	 mov	 QWORD PTR cmsb$[rsp], 0

; 1918 :     size_t        filesz;
; 1919 :     int           i, rc, reccount;
; 1920 :     char          info[80];
; 1921 : 
; 1922 :     // "%s"
; 1923 :     WRMSG( HHC02625, "I", "DUMPING..." );

  00039	b9 01 00 00 00	 mov	 ecx, 1
  0003e	ff 15 00 00 00
	00		 call	 QWORD PTR __imp___acrt_iob_func
  00044	48 8d 0d 00 00
	00 00		 lea	 rcx, OFFSET FLAT:$SG170486
  0004b	48 89 4c 24 38	 mov	 QWORD PTR [rsp+56], rcx
  00050	48 8d 0d 00 00
	00 00		 lea	 rcx, OFFSET FLAT:$SG170487
  00057	48 89 4c 24 30	 mov	 QWORD PTR [rsp+48], rcx
  0005c	48 8d 0d 00 00
	00 00		 lea	 rcx, OFFSET FLAT:$SG170488
  00063	48 89 4c 24 28	 mov	 QWORD PTR [rsp+40], rcx
  00068	48 89 44 24 20	 mov	 QWORD PTR [rsp+32], rax
  0006d	41 b9 03 00 00
	00		 mov	 r9d, 3
  00073	4c 8d 05 00 00
	00 00		 lea	 r8, OFFSET FLAT:$SG170489
  0007a	ba 83 07 00 00	 mov	 edx, 1923		; 00000783H
  0007f	48 8d 0d 00 00
	00 00		 lea	 rcx, OFFSET FLAT:$SG170490
  00086	ff 15 00 00 00
	00		 call	 QWORD PTR __imp_fwritemsg

; 1924 : 
; 1925 :     /* Parse the DUMP control file */
; 1926 :     if ((rc = parse_ctlfile( opts )) != 0)

  0008c	48 8b 8c 24 20
	01 00 00	 mov	 rcx, QWORD PTR opts$[rsp]
  00094	e8 00 00 00 00	 call	 parse_ctlfile
  00099	89 44 24 50	 mov	 DWORD PTR rc$[rsp], eax
  0009d	83 7c 24 50 00	 cmp	 DWORD PTR rc$[rsp], 0
  000a2	74 09		 je	 SHORT $LN5@dodump

; 1927 :         return rc;

  000a4	8b 44 24 50	 mov	 eax, DWORD PTR rc$[rsp]
  000a8	e9 9c 07 00 00	 jmp	 $LN1@dodump
$LN5@dodump:

; 1928 : 
; 1929 :     /* Open the output tape file */
; 1930 :     if ((rc = tape_open( opts )) != 0)

  000ad	48 8b 8c 24 20
	01 00 00	 mov	 rcx, QWORD PTR opts$[rsp]
  000b5	e8 00 00 00 00	 call	 tape_open
  000ba	89 44 24 50	 mov	 DWORD PTR rc$[rsp], eax
  000be	83 7c 24 50 00	 cmp	 DWORD PTR rc$[rsp], 0
  000c3	74 09		 je	 SHORT $LN6@dodump

; 1931 :         return rc;

  000c5	8b 44 24 50	 mov	 eax, DWORD PTR rc$[rsp]
  000c9	e9 7b 07 00 00	 jmp	 $LN1@dodump
$LN6@dodump:

; 1932 : 
; 1933 :     /* Process each entry in the parsed CTLTAB */
; 1934 :     for (i=0, rc=0; rc == 0 && i < numctl; i++)

  000ce	c7 44 24 54 00
	00 00 00	 mov	 DWORD PTR i$[rsp], 0
  000d6	c7 44 24 50 00
	00 00 00	 mov	 DWORD PTR rc$[rsp], 0
  000de	eb 0a		 jmp	 SHORT $LN4@dodump
$LN2@dodump:
  000e0	8b 44 24 54	 mov	 eax, DWORD PTR i$[rsp]
  000e4	ff c0		 inc	 eax
  000e6	89 44 24 54	 mov	 DWORD PTR i$[rsp], eax
$LN4@dodump:
  000ea	83 7c 24 50 00	 cmp	 DWORD PTR rc$[rsp], 0
  000ef	0f 85 83 05 00
	00		 jne	 $LN3@dodump
  000f5	8b 05 00 00 00
	00		 mov	 eax, DWORD PTR numctl
  000fb	39 44 24 54	 cmp	 DWORD PTR i$[rsp], eax
  000ff	0f 8d 73 05 00
	00		 jge	 $LN3@dodump

; 1935 :     {
; 1936 :         /* Write tapemark if requested */
; 1937 :         if (strcasecmp( ctltab[i].fn, "@TM" ) == 0)

  00105	48 63 44 24 54	 movsxd	 rax, DWORD PTR i$[rsp]
  0010a	48 6b c0 40	 imul	 rax, rax, 64		; 00000040H
  0010e	48 8d 15 00 00
	00 00		 lea	 rdx, OFFSET FLAT:$SG170494
  00115	48 8b 0d 00 00
	00 00		 mov	 rcx, QWORD PTR ctltab
  0011c	48 8b 4c 01 10	 mov	 rcx, QWORD PTR [rcx+rax+16]
  00121	ff 15 00 00 00
	00		 call	 QWORD PTR __imp__stricmp
  00127	85 c0		 test	 eax, eax
  00129	75 70		 jne	 SHORT $LN7@dodump

; 1938 :         {
; 1939 :             if ((rc = tape_write_mark( opts )) == 0)

  0012b	48 8b 8c 24 20
	01 00 00	 mov	 rcx, QWORD PTR opts$[rsp]
  00133	e8 00 00 00 00	 call	 tape_write_mark
  00138	89 44 24 50	 mov	 DWORD PTR rc$[rsp], eax
  0013c	83 7c 24 50 00	 cmp	 DWORD PTR rc$[rsp], 0
  00141	75 53		 jne	 SHORT $LN8@dodump

; 1940 :                 // ">>> %s"
; 1941 :                 WRMSG( HHC02626, "I", "@TM" );

  00143	b9 01 00 00 00	 mov	 ecx, 1
  00148	ff 15 00 00 00
	00		 call	 QWORD PTR __imp___acrt_iob_func
  0014e	48 8d 0d 00 00
	00 00		 lea	 rcx, OFFSET FLAT:$SG170496
  00155	48 89 4c 24 38	 mov	 QWORD PTR [rsp+56], rcx
  0015a	48 8d 0d 00 00
	00 00		 lea	 rcx, OFFSET FLAT:$SG170497
  00161	48 89 4c 24 30	 mov	 QWORD PTR [rsp+48], rcx
  00166	48 8d 0d 00 00
	00 00		 lea	 rcx, OFFSET FLAT:$SG170498
  0016d	48 89 4c 24 28	 mov	 QWORD PTR [rsp+40], rcx
  00172	48 89 44 24 20	 mov	 QWORD PTR [rsp+32], rax
  00177	41 b9 03 00 00
	00		 mov	 r9d, 3
  0017d	4c 8d 05 00 00
	00 00		 lea	 r8, OFFSET FLAT:$SG170499
  00184	ba 95 07 00 00	 mov	 edx, 1941		; 00000795H
  00189	48 8d 0d 00 00
	00 00		 lea	 rcx, OFFSET FLAT:$SG170500
  00190	ff 15 00 00 00
	00		 call	 QWORD PTR __imp_fwritemsg
$LN8@dodump:

; 1942 :             continue;

  00196	e9 45 ff ff ff	 jmp	 $LN2@dodump
$LN7@dodump:

; 1943 :         }
; 1944 : 
; 1945 :         /* Set translation codepage if file is TEXT format */
; 1946 :         if (ctltab[i].filefmt == 'T')

  0019b	48 63 44 24 54	 movsxd	 rax, DWORD PTR i$[rsp]
  001a0	48 6b c0 40	 imul	 rax, rax, 64		; 00000040H
  001a4	48 8b 0d 00 00
	00 00		 mov	 rcx, QWORD PTR ctltab
  001ab	0f be 44 01 3d	 movsx	 eax, BYTE PTR [rcx+rax+61]
  001b0	83 f8 54	 cmp	 eax, 84			; 00000054H
  001b3	75 43		 jne	 SHORT $LN9@dodump

; 1947 :             if (strcasecmp( ctltab[i].codepage, query_codepage()) != 0)

  001b5	ff 15 00 00 00
	00		 call	 QWORD PTR __imp_query_codepage
  001bb	48 63 4c 24 54	 movsxd	 rcx, DWORD PTR i$[rsp]
  001c0	48 6b c9 40	 imul	 rcx, rcx, 64		; 00000040H
  001c4	48 8b d0	 mov	 rdx, rax
  001c7	48 8b 05 00 00
	00 00		 mov	 rax, QWORD PTR ctltab
  001ce	48 8b 4c 08 08	 mov	 rcx, QWORD PTR [rax+rcx+8]
  001d3	ff 15 00 00 00
	00		 call	 QWORD PTR __imp__stricmp
  001d9	85 c0		 test	 eax, eax
  001db	74 1b		 je	 SHORT $LN10@dodump

; 1948 :                 set_codepage( ctltab[i].codepage );

  001dd	48 63 44 24 54	 movsxd	 rax, DWORD PTR i$[rsp]
  001e2	48 6b c0 40	 imul	 rax, rax, 64		; 00000040H
  001e6	48 8b 0d 00 00
	00 00		 mov	 rcx, QWORD PTR ctltab
  001ed	48 8b 4c 01 08	 mov	 rcx, QWORD PTR [rcx+rax+8]
  001f2	ff 15 00 00 00
	00		 call	 QWORD PTR __imp_set_codepage
$LN10@dodump:
$LN9@dodump:

; 1949 : 
; 1950 :         // ">>> %s"
; 1951 :         WRMSG( HHC02626, "I", ctltab[i].orec );

  001f8	48 63 44 24 54	 movsxd	 rax, DWORD PTR i$[rsp]
  001fd	48 6b c0 40	 imul	 rax, rax, 64		; 00000040H
  00201	48 89 84 24 80
	00 00 00	 mov	 QWORD PTR tv157[rsp], rax
  00209	b9 01 00 00 00	 mov	 ecx, 1
  0020e	ff 15 00 00 00
	00		 call	 QWORD PTR __imp___acrt_iob_func
  00214	48 8b 0d 00 00
	00 00		 mov	 rcx, QWORD PTR ctltab
  0021b	48 8b 94 24 80
	00 00 00	 mov	 rdx, QWORD PTR tv157[rsp]
  00223	48 8b 0c 11	 mov	 rcx, QWORD PTR [rcx+rdx]
  00227	48 89 4c 24 38	 mov	 QWORD PTR [rsp+56], rcx
  0022c	48 8d 0d 00 00
	00 00		 lea	 rcx, OFFSET FLAT:$SG170503
  00233	48 89 4c 24 30	 mov	 QWORD PTR [rsp+48], rcx
  00238	48 8d 0d 00 00
	00 00		 lea	 rcx, OFFSET FLAT:$SG170504
  0023f	48 89 4c 24 28	 mov	 QWORD PTR [rsp+40], rcx
  00244	48 89 44 24 20	 mov	 QWORD PTR [rsp+32], rax
  00249	41 b9 03 00 00
	00		 mov	 r9d, 3
  0024f	4c 8d 05 00 00
	00 00		 lea	 r8, OFFSET FLAT:$SG170505
  00256	ba 9f 07 00 00	 mov	 edx, 1951		; 0000079fH
  0025b	48 8d 0d 00 00
	00 00		 lea	 rcx, OFFSET FLAT:$SG170506
  00262	ff 15 00 00 00
	00		 call	 QWORD PTR __imp_fwritemsg

; 1952 : 
; 1953 :         /* DUMP file, creating TAPE_BLOCKS */
; 1954 :         if (!(blks = dump_file( opts,

  00268	48 63 44 24 54	 movsxd	 rax, DWORD PTR i$[rsp]
  0026d	48 6b c0 40	 imul	 rax, rax, 64		; 00000040H
  00271	48 8b 0d 00 00
	00 00		 mov	 rcx, QWORD PTR ctltab
  00278	48 8d 44 01 38	 lea	 rax, QWORD PTR [rcx+rax+56]
  0027d	48 63 4c 24 54	 movsxd	 rcx, DWORD PTR i$[rsp]
  00282	48 6b c9 40	 imul	 rcx, rcx, 64		; 00000040H
  00286	48 63 54 24 54	 movsxd	 rdx, DWORD PTR i$[rsp]
  0028b	48 6b d2 40	 imul	 rdx, rdx, 64		; 00000040H
  0028f	4c 63 44 24 54	 movsxd	 r8, DWORD PTR i$[rsp]
  00294	4d 6b c0 40	 imul	 r8, r8, 64		; 00000040H
  00298	4c 89 84 24 88
	00 00 00	 mov	 QWORD PTR tv189[rsp], r8
  002a0	4c 8d 4c 24 78	 lea	 r9, QWORD PTR filesz$[rsp]
  002a5	4c 89 4c 24 30	 mov	 QWORD PTR [rsp+48], r9
  002aa	4c 8d 4c 24 70	 lea	 r9, QWORD PTR reccount$[rsp]
  002af	4c 89 4c 24 28	 mov	 QWORD PTR [rsp+40], r9
  002b4	48 89 44 24 20	 mov	 QWORD PTR [rsp+32], rax
  002b9	48 8b 05 00 00
	00 00		 mov	 rax, QWORD PTR ctltab
  002c0	44 0f b6 4c 08
	3c		 movzx	 r9d, BYTE PTR [rax+rcx+60]
  002c6	48 8b 05 00 00
	00 00		 mov	 rax, QWORD PTR ctltab
  002cd	44 0f b6 44 10
	3d		 movzx	 r8d, BYTE PTR [rax+rdx+61]
  002d3	48 8b 05 00 00
	00 00		 mov	 rax, QWORD PTR ctltab
  002da	48 8b 8c 24 88
	00 00 00	 mov	 rcx, QWORD PTR tv189[rsp]
  002e2	48 8b 54 08 28	 mov	 rdx, QWORD PTR [rax+rcx+40]
  002e7	48 8b 8c 24 20
	01 00 00	 mov	 rcx, QWORD PTR opts$[rsp]
  002ef	e8 00 00 00 00	 call	 dump_file
  002f4	48 89 44 24 58	 mov	 QWORD PTR blks$[rsp], rax
  002f9	48 83 7c 24 58
	00		 cmp	 QWORD PTR blks$[rsp], 0
  002ff	75 0d		 jne	 SHORT $LN11@dodump

; 1955 :                                 ctltab[i].hostfile, ctltab[i].filefmt,
; 1956 :                                 ctltab[i].recfm, &ctltab[i].reclen,
; 1957 :                                 &reccount, &filesz )))
; 1958 :         {
; 1959 :             rc = -1;

  00301	c7 44 24 50 ff
	ff ff ff	 mov	 DWORD PTR rc$[rsp], -1

; 1960 :             break;

  00309	e9 6a 03 00 00	 jmp	 $LN3@dodump
$LN11@dodump:

; 1961 :         }
; 1962 : 
; 1963 :         /* Build FST_BLOCK or CMS_BLOCK for this file */
; 1964 :         if (opts->cms)

  0030e	48 8b 84 24 20
	01 00 00	 mov	 rax, QWORD PTR opts$[rsp]
  00316	0f b6 40 18	 movzx	 eax, BYTE PTR [rax+24]
  0031a	85 c0		 test	 eax, eax
  0031c	0f 84 c4 00 00
	00		 je	 $LN12@dodump

; 1965 :             cmsb = build_cms_block( ctltab[i].fn, ctltab[i].ft, ctltab[i].fm,

  00322	48 63 44 24 54	 movsxd	 rax, DWORD PTR i$[rsp]
  00327	48 6b c0 40	 imul	 rax, rax, 64		; 00000040H
  0032b	48 63 4c 24 54	 movsxd	 rcx, DWORD PTR i$[rsp]
  00330	48 6b c9 40	 imul	 rcx, rcx, 64		; 00000040H
  00334	48 63 54 24 54	 movsxd	 rdx, DWORD PTR i$[rsp]
  00339	48 6b d2 40	 imul	 rdx, rdx, 64		; 00000040H
  0033d	4c 63 44 24 54	 movsxd	 r8, DWORD PTR i$[rsp]
  00342	4d 6b c0 40	 imul	 r8, r8, 64		; 00000040H
  00346	4c 63 4c 24 54	 movsxd	 r9, DWORD PTR i$[rsp]
  0034b	4d 6b c9 40	 imul	 r9, r9, 64		; 00000040H
  0034f	4c 89 8c 24 90
	00 00 00	 mov	 QWORD PTR tv224[rsp], r9
  00357	4c 63 54 24 54	 movsxd	 r10, DWORD PTR i$[rsp]
  0035c	4d 6b d2 40	 imul	 r10, r10, 64		; 00000040H
  00360	4c 8b 5c 24 58	 mov	 r11, QWORD PTR blks$[rsp]
  00365	4d 8b 5b 20	 mov	 r11, QWORD PTR [r11+32]
  00369	4c 89 5c 24 40	 mov	 QWORD PTR [rsp+64], r11
  0036e	4c 8b 1d 00 00
	00 00		 mov	 r11, QWORD PTR ctltab
  00375	49 8b 44 03 30	 mov	 rax, QWORD PTR [r11+rax+48]
  0037a	48 89 44 24 38	 mov	 QWORD PTR [rsp+56], rax
  0037f	8b 44 24 78	 mov	 eax, DWORD PTR filesz$[rsp]
  00383	89 44 24 30	 mov	 DWORD PTR [rsp+48], eax
  00387	8b 44 24 70	 mov	 eax, DWORD PTR reccount$[rsp]
  0038b	89 44 24 28	 mov	 DWORD PTR [rsp+40], eax
  0038f	48 8b 05 00 00
	00 00		 mov	 rax, QWORD PTR ctltab
  00396	8b 44 08 38	 mov	 eax, DWORD PTR [rax+rcx+56]
  0039a	89 44 24 20	 mov	 DWORD PTR [rsp+32], eax
  0039e	48 8b 05 00 00
	00 00		 mov	 rax, QWORD PTR ctltab
  003a5	44 0f b6 4c 10
	3c		 movzx	 r9d, BYTE PTR [rax+rdx+60]
  003ab	48 8b 05 00 00
	00 00		 mov	 rax, QWORD PTR ctltab
  003b2	4e 8b 44 00 20	 mov	 r8, QWORD PTR [rax+r8+32]
  003b7	48 8b 05 00 00
	00 00		 mov	 rax, QWORD PTR ctltab
  003be	48 8b 8c 24 90
	00 00 00	 mov	 rcx, QWORD PTR tv224[rsp]
  003c6	48 8b 54 08 18	 mov	 rdx, QWORD PTR [rax+rcx+24]
  003cb	48 8b 05 00 00
	00 00		 mov	 rax, QWORD PTR ctltab
  003d2	4a 8b 4c 10 10	 mov	 rcx, QWORD PTR [rax+r10+16]
  003d7	e8 00 00 00 00	 call	 build_cms_block
  003dc	48 89 44 24 68	 mov	 QWORD PTR cmsb$[rsp], rax
  003e1	e9 bf 00 00 00	 jmp	 $LN13@dodump
$LN12@dodump:

; 1966 :                                     ctltab[i].recfm, ctltab[i].reclen, reccount,
; 1967 :                                     (int) filesz, ctltab[i].mtime, blks->blk_count );
; 1968 :         else // (vmfplc2 format)
; 1969 :             fstb = build_fst_block( ctltab[i].fn, ctltab[i].ft, ctltab[i].fm,

  003e6	48 63 44 24 54	 movsxd	 rax, DWORD PTR i$[rsp]
  003eb	48 6b c0 40	 imul	 rax, rax, 64		; 00000040H
  003ef	48 63 4c 24 54	 movsxd	 rcx, DWORD PTR i$[rsp]
  003f4	48 6b c9 40	 imul	 rcx, rcx, 64		; 00000040H
  003f8	48 63 54 24 54	 movsxd	 rdx, DWORD PTR i$[rsp]
  003fd	48 6b d2 40	 imul	 rdx, rdx, 64		; 00000040H
  00401	4c 63 44 24 54	 movsxd	 r8, DWORD PTR i$[rsp]
  00406	4d 6b c0 40	 imul	 r8, r8, 64		; 00000040H
  0040a	4c 63 4c 24 54	 movsxd	 r9, DWORD PTR i$[rsp]
  0040f	4d 6b c9 40	 imul	 r9, r9, 64		; 00000040H
  00413	4c 89 8c 24 98
	00 00 00	 mov	 QWORD PTR tv259[rsp], r9
  0041b	4c 63 54 24 54	 movsxd	 r10, DWORD PTR i$[rsp]
  00420	4d 6b d2 40	 imul	 r10, r10, 64		; 00000040H
  00424	4c 8b 5c 24 58	 mov	 r11, QWORD PTR blks$[rsp]
  00429	4d 8b 5b 20	 mov	 r11, QWORD PTR [r11+32]
  0042d	4c 89 5c 24 40	 mov	 QWORD PTR [rsp+64], r11
  00432	4c 8b 1d 00 00
	00 00		 mov	 r11, QWORD PTR ctltab
  00439	49 8b 44 03 30	 mov	 rax, QWORD PTR [r11+rax+48]
  0043e	48 89 44 24 38	 mov	 QWORD PTR [rsp+56], rax
  00443	8b 44 24 78	 mov	 eax, DWORD PTR filesz$[rsp]
  00447	89 44 24 30	 mov	 DWORD PTR [rsp+48], eax
  0044b	8b 44 24 70	 mov	 eax, DWORD PTR reccount$[rsp]
  0044f	89 44 24 28	 mov	 DWORD PTR [rsp+40], eax
  00453	48 8b 05 00 00
	00 00		 mov	 rax, QWORD PTR ctltab
  0045a	8b 44 08 38	 mov	 eax, DWORD PTR [rax+rcx+56]
  0045e	89 44 24 20	 mov	 DWORD PTR [rsp+32], eax
  00462	48 8b 05 00 00
	00 00		 mov	 rax, QWORD PTR ctltab
  00469	44 0f b6 4c 10
	3c		 movzx	 r9d, BYTE PTR [rax+rdx+60]
  0046f	48 8b 05 00 00
	00 00		 mov	 rax, QWORD PTR ctltab
  00476	4e 8b 44 00 20	 mov	 r8, QWORD PTR [rax+r8+32]
  0047b	48 8b 05 00 00
	00 00		 mov	 rax, QWORD PTR ctltab
  00482	48 8b 8c 24 98
	00 00 00	 mov	 rcx, QWORD PTR tv259[rsp]
  0048a	48 8b 54 08 18	 mov	 rdx, QWORD PTR [rax+rcx+24]
  0048f	48 8b 05 00 00
	00 00		 mov	 rax, QWORD PTR ctltab
  00496	4a 8b 4c 10 10	 mov	 rcx, QWORD PTR [rax+r10+16]
  0049b	e8 00 00 00 00	 call	 build_fst_block
  004a0	48 89 44 24 60	 mov	 QWORD PTR fstb$[rsp], rax
$LN13@dodump:

; 1970 :                                     ctltab[i].recfm, ctltab[i].reclen, reccount,
; 1971 :                                     (int) filesz, ctltab[i].mtime, blks->blk_count );
; 1972 : 
; 1973 :         /* (check for success/failure) */
; 1974 :         if (0
; 1975 :             || ( opts->cms && !cmsb)
; 1976 :             || (!opts->cms && !fstb)

  004a5	33 c0		 xor	 eax, eax
  004a7	85 c0		 test	 eax, eax
  004a9	75 30		 jne	 SHORT $LN15@dodump
  004ab	48 8b 84 24 20
	01 00 00	 mov	 rax, QWORD PTR opts$[rsp]
  004b3	0f b6 40 18	 movzx	 eax, BYTE PTR [rax+24]
  004b7	85 c0		 test	 eax, eax
  004b9	74 08		 je	 SHORT $LN16@dodump
  004bb	48 83 7c 24 68
	00		 cmp	 QWORD PTR cmsb$[rsp], 0
  004c1	74 18		 je	 SHORT $LN15@dodump
$LN16@dodump:
  004c3	48 8b 84 24 20
	01 00 00	 mov	 rax, QWORD PTR opts$[rsp]
  004cb	0f b6 40 18	 movzx	 eax, BYTE PTR [rax+24]
  004cf	85 c0		 test	 eax, eax
  004d1	75 1f		 jne	 SHORT $LN14@dodump
  004d3	48 83 7c 24 60
	00		 cmp	 QWORD PTR fstb$[rsp], 0
  004d9	75 17		 jne	 SHORT $LN14@dodump
$LN15@dodump:

; 1977 :         )
; 1978 :         {
; 1979 :             free_blocks( blks );

  004db	48 8b 4c 24 58	 mov	 rcx, QWORD PTR blks$[rsp]
  004e0	e8 00 00 00 00	 call	 free_blocks

; 1980 :             rc = -1;

  004e5	c7 44 24 50 ff
	ff ff ff	 mov	 DWORD PTR rc$[rsp], -1

; 1981 :             break;

  004ed	e9 86 01 00 00	 jmp	 $LN3@dodump
$LN14@dodump:

; 1982 :         }
; 1983 : 
; 1984 :         /* Create the DUMP tape */
; 1985 :         if (opts->cms)

  004f2	48 8b 84 24 20
	01 00 00	 mov	 rax, QWORD PTR opts$[rsp]
  004fa	0f b6 40 18	 movzx	 eax, BYTE PTR [rax+24]
  004fe	85 c0		 test	 eax, eax
  00500	74 61		 je	 SHORT $LN17@dodump

; 1986 :         {
; 1987 :             /* Write all TAPE_BLOCKS and the CMS_BLOCK for this file */
; 1988 :             if ((rc = write_TAPE_BLOCKS( opts, blks )) == 0)

  00502	48 8b 54 24 58	 mov	 rdx, QWORD PTR blks$[rsp]
  00507	48 8b 8c 24 20
	01 00 00	 mov	 rcx, QWORD PTR opts$[rsp]
  0050f	e8 00 00 00 00	 call	 write_TAPE_BLOCKS
  00514	89 44 24 50	 mov	 DWORD PTR rc$[rsp], eax
  00518	83 7c 24 50 00	 cmp	 DWORD PTR rc$[rsp], 0
  0051d	75 42		 jne	 SHORT $LN19@dodump

; 1989 :                 if ((rc = tape_write_block( opts, (BYTE*) cmsb, sizeof( CMS_BLOCK ))) == 0)

  0051f	41 b8 25 03 00
	00		 mov	 r8d, 805		; 00000325H
  00525	48 8b 54 24 68	 mov	 rdx, QWORD PTR cmsb$[rsp]
  0052a	48 8b 8c 24 20
	01 00 00	 mov	 rcx, QWORD PTR opts$[rsp]
  00532	e8 00 00 00 00	 call	 tape_write_block
  00537	89 44 24 50	 mov	 DWORD PTR rc$[rsp], eax
  0053b	83 7c 24 50 00	 cmp	 DWORD PTR rc$[rsp], 0
  00540	75 1f		 jne	 SHORT $LN20@dodump

; 1990 :                     format_cms_info( &cmsb->cms, info, sizeof( info ));

  00542	48 8b 44 24 68	 mov	 rax, QWORD PTR cmsb$[rsp]
  00547	48 83 c0 05	 add	 rax, 5
  0054b	41 b8 50 00 00
	00		 mov	 r8d, 80			; 00000050H
  00551	48 8d 94 24 b0
	00 00 00	 lea	 rdx, QWORD PTR info$[rsp]
  00559	48 8b c8	 mov	 rcx, rax
  0055c	e8 00 00 00 00	 call	 format_cms_info
$LN20@dodump:
$LN19@dodump:

; 1991 :         }

  00561	eb 5f		 jmp	 SHORT $LN18@dodump
$LN17@dodump:

; 1992 :         else // (vmfplc2 format)
; 1993 :         {
; 1994 :             /* Write the FST_BLOCK and all TAPE_BLOCKS for this file */
; 1995 :             if ((rc = tape_write_block( opts, (BYTE*) fstb, sizeof( FST_BLOCK ))) == 0)

  00563	41 b8 4d 00 00
	00		 mov	 r8d, 77			; 0000004dH
  00569	48 8b 54 24 60	 mov	 rdx, QWORD PTR fstb$[rsp]
  0056e	48 8b 8c 24 20
	01 00 00	 mov	 rcx, QWORD PTR opts$[rsp]
  00576	e8 00 00 00 00	 call	 tape_write_block
  0057b	89 44 24 50	 mov	 DWORD PTR rc$[rsp], eax
  0057f	83 7c 24 50 00	 cmp	 DWORD PTR rc$[rsp], 0
  00584	75 3c		 jne	 SHORT $LN21@dodump

; 1996 :                 if ((rc = write_TAPE_BLOCKS( opts, blks )) == 0)

  00586	48 8b 54 24 58	 mov	 rdx, QWORD PTR blks$[rsp]
  0058b	48 8b 8c 24 20
	01 00 00	 mov	 rcx, QWORD PTR opts$[rsp]
  00593	e8 00 00 00 00	 call	 write_TAPE_BLOCKS
  00598	89 44 24 50	 mov	 DWORD PTR rc$[rsp], eax
  0059c	83 7c 24 50 00	 cmp	 DWORD PTR rc$[rsp], 0
  005a1	75 1f		 jne	 SHORT $LN22@dodump

; 1997 :                     format_fst_info( &fstb->fst, info, sizeof( info ));

  005a3	48 8b 44 24 60	 mov	 rax, QWORD PTR fstb$[rsp]
  005a8	48 83 c0 05	 add	 rax, 5
  005ac	41 b8 50 00 00
	00		 mov	 r8d, 80			; 00000050H
  005b2	48 8d 94 24 b0
	00 00 00	 lea	 rdx, QWORD PTR info$[rsp]
  005ba	48 8b c8	 mov	 rcx, rax
  005bd	e8 00 00 00 00	 call	 format_fst_info
$LN22@dodump:
$LN21@dodump:
$LN18@dodump:

; 1998 :         }
; 1999 : 
; 2000 :         if (!opts->quiet)

  005c2	48 8b 84 24 20
	01 00 00	 mov	 rax, QWORD PTR opts$[rsp]
  005ca	0f b6 40 19	 movzx	 eax, BYTE PTR [rax+25]
  005ce	85 c0		 test	 eax, eax
  005d0	75 54		 jne	 SHORT $LN23@dodump

; 2001 :             // "    %s"
; 2002 :             WRMSG( HHC02633, "I", info );

  005d2	b9 01 00 00 00	 mov	 ecx, 1
  005d7	ff 15 00 00 00
	00		 call	 QWORD PTR __imp___acrt_iob_func
  005dd	48 8d 8c 24 b0
	00 00 00	 lea	 rcx, QWORD PTR info$[rsp]
  005e5	48 89 4c 24 38	 mov	 QWORD PTR [rsp+56], rcx
  005ea	48 8d 0d 00 00
	00 00		 lea	 rcx, OFFSET FLAT:$SG170520
  005f1	48 89 4c 24 30	 mov	 QWORD PTR [rsp+48], rcx
  005f6	48 8d 0d 00 00
	00 00		 lea	 rcx, OFFSET FLAT:$SG170521
  005fd	48 89 4c 24 28	 mov	 QWORD PTR [rsp+40], rcx
  00602	48 89 44 24 20	 mov	 QWORD PTR [rsp+32], rax
  00607	41 b9 03 00 00
	00		 mov	 r9d, 3
  0060d	4c 8d 05 00 00
	00 00		 lea	 r8, OFFSET FLAT:$SG170522
  00614	ba d2 07 00 00	 mov	 edx, 2002		; 000007d2H
  00619	48 8d 0d 00 00
	00 00		 lea	 rcx, OFFSET FLAT:$SG170523
  00620	ff 15 00 00 00
	00		 call	 QWORD PTR __imp_fwritemsg
$LN23@dodump:

; 2003 : 
; 2004 :         if (opts->cms) free( cmsb );

  00626	48 8b 84 24 20
	01 00 00	 mov	 rax, QWORD PTR opts$[rsp]
  0062e	0f b6 40 18	 movzx	 eax, BYTE PTR [rax+24]
  00632	85 c0		 test	 eax, eax
  00634	74 0d		 je	 SHORT $LN24@dodump
  00636	48 8b 4c 24 68	 mov	 rcx, QWORD PTR cmsb$[rsp]
  0063b	ff 15 00 00 00
	00		 call	 QWORD PTR __imp_free
  00641	eb 0b		 jmp	 SHORT $LN25@dodump
$LN24@dodump:

; 2005 :         else           free( fstb );

  00643	48 8b 4c 24 60	 mov	 rcx, QWORD PTR fstb$[rsp]
  00648	ff 15 00 00 00
	00		 call	 QWORD PTR __imp_free
$LN25@dodump:

; 2006 : 
; 2007 :         free_blocks( blks );

  0064e	48 8b 4c 24 58	 mov	 rcx, QWORD PTR blks$[rsp]
  00653	e8 00 00 00 00	 call	 free_blocks

; 2008 : 
; 2009 :         fstb = NULL;

  00658	48 c7 44 24 60
	00 00 00 00	 mov	 QWORD PTR fstb$[rsp], 0

; 2010 :         cmsb = NULL;

  00661	48 c7 44 24 68
	00 00 00 00	 mov	 QWORD PTR cmsb$[rsp], 0

; 2011 :         blks = NULL;

  0066a	48 c7 44 24 58
	00 00 00 00	 mov	 QWORD PTR blks$[rsp], 0

; 2012 :     }

  00673	e9 68 fa ff ff	 jmp	 $LN2@dodump
$LN3@dodump:

; 2013 : 
; 2014 :     if (rc == 0)

  00678	83 7c 24 50 00	 cmp	 DWORD PTR rc$[rsp], 0
  0067d	75 6b		 jne	 SHORT $LN26@dodump

; 2015 :         if ((rc = tape_write_mark( opts )) == 0)

  0067f	48 8b 8c 24 20
	01 00 00	 mov	 rcx, QWORD PTR opts$[rsp]
  00687	e8 00 00 00 00	 call	 tape_write_mark
  0068c	89 44 24 50	 mov	 DWORD PTR rc$[rsp], eax
  00690	83 7c 24 50 00	 cmp	 DWORD PTR rc$[rsp], 0
  00695	75 53		 jne	 SHORT $LN27@dodump

; 2016 :             // ">>> %s"
; 2017 :             WRMSG( HHC02626, "I", "@TM" );

  00697	b9 01 00 00 00	 mov	 ecx, 1
  0069c	ff 15 00 00 00
	00		 call	 QWORD PTR __imp___acrt_iob_func
  006a2	48 8d 0d 00 00
	00 00		 lea	 rcx, OFFSET FLAT:$SG170528
  006a9	48 89 4c 24 38	 mov	 QWORD PTR [rsp+56], rcx
  006ae	48 8d 0d 00 00
	00 00		 lea	 rcx, OFFSET FLAT:$SG170529
  006b5	48 89 4c 24 30	 mov	 QWORD PTR [rsp+48], rcx
  006ba	48 8d 0d 00 00
	00 00		 lea	 rcx, OFFSET FLAT:$SG170530
  006c1	48 89 4c 24 28	 mov	 QWORD PTR [rsp+40], rcx
  006c6	48 89 44 24 20	 mov	 QWORD PTR [rsp+32], rax
  006cb	41 b9 03 00 00
	00		 mov	 r9d, 3
  006d1	4c 8d 05 00 00
	00 00		 lea	 r8, OFFSET FLAT:$SG170531
  006d8	ba e1 07 00 00	 mov	 edx, 2017		; 000007e1H
  006dd	48 8d 0d 00 00
	00 00		 lea	 rcx, OFFSET FLAT:$SG170532
  006e4	ff 15 00 00 00
	00		 call	 QWORD PTR __imp_fwritemsg
$LN27@dodump:
$LN26@dodump:

; 2018 : 
; 2019 :     if (rc == 0)

  006ea	83 7c 24 50 00	 cmp	 DWORD PTR rc$[rsp], 0
  006ef	75 6b		 jne	 SHORT $LN28@dodump

; 2020 :         if ((rc = tape_write_mark( opts )) == 0)

  006f1	48 8b 8c 24 20
	01 00 00	 mov	 rcx, QWORD PTR opts$[rsp]
  006f9	e8 00 00 00 00	 call	 tape_write_mark
  006fe	89 44 24 50	 mov	 DWORD PTR rc$[rsp], eax
  00702	83 7c 24 50 00	 cmp	 DWORD PTR rc$[rsp], 0
  00707	75 53		 jne	 SHORT $LN29@dodump

; 2021 :             // ">>> %s"
; 2022 :             WRMSG( HHC02626, "I", "@TM" );

  00709	b9 01 00 00 00	 mov	 ecx, 1
  0070e	ff 15 00 00 00
	00		 call	 QWORD PTR __imp___acrt_iob_func
  00714	48 8d 0d 00 00
	00 00		 lea	 rcx, OFFSET FLAT:$SG170535
  0071b	48 89 4c 24 38	 mov	 QWORD PTR [rsp+56], rcx
  00720	48 8d 0d 00 00
	00 00		 lea	 rcx, OFFSET FLAT:$SG170536
  00727	48 89 4c 24 30	 mov	 QWORD PTR [rsp+48], rcx
  0072c	48 8d 0d 00 00
	00 00		 lea	 rcx, OFFSET FLAT:$SG170537
  00733	48 89 4c 24 28	 mov	 QWORD PTR [rsp+40], rcx
  00738	48 89 44 24 20	 mov	 QWORD PTR [rsp+32], rax
  0073d	41 b9 03 00 00
	00		 mov	 r9d, 3
  00743	4c 8d 05 00 00
	00 00		 lea	 r8, OFFSET FLAT:$SG170538
  0074a	ba e6 07 00 00	 mov	 edx, 2022		; 000007e6H
  0074f	48 8d 0d 00 00
	00 00		 lea	 rcx, OFFSET FLAT:$SG170539
  00756	ff 15 00 00 00
	00		 call	 QWORD PTR __imp_fwritemsg
$LN29@dodump:
$LN28@dodump:

; 2023 : 
; 2024 :     /* Close output tape and issue completion message */
; 2025 :     tape_close( opts );

  0075c	48 8b 8c 24 20
	01 00 00	 mov	 rcx, QWORD PTR opts$[rsp]
  00764	e8 00 00 00 00	 call	 tape_close

; 2026 : 
; 2027 :     if (rc == 0)

  00769	83 7c 24 50 00	 cmp	 DWORD PTR rc$[rsp], 0
  0076e	0f 85 d1 00 00
	00		 jne	 $LN30@dodump

; 2028 :     {
; 2029 :         // "%s complete"
; 2030 :         WRMSG( HHC02631, "I", verb( opts ));

  00774	48 8b 8c 24 20
	01 00 00	 mov	 rcx, QWORD PTR opts$[rsp]
  0077c	e8 00 00 00 00	 call	 verb
  00781	48 89 84 24 a0
	00 00 00	 mov	 QWORD PTR tv356[rsp], rax
  00789	b9 01 00 00 00	 mov	 ecx, 1
  0078e	ff 15 00 00 00
	00		 call	 QWORD PTR __imp___acrt_iob_func
  00794	48 8b 8c 24 a0
	00 00 00	 mov	 rcx, QWORD PTR tv356[rsp]
  0079c	48 89 4c 24 38	 mov	 QWORD PTR [rsp+56], rcx
  007a1	48 8d 0d 00 00
	00 00		 lea	 rcx, OFFSET FLAT:$SG170541
  007a8	48 89 4c 24 30	 mov	 QWORD PTR [rsp+48], rcx
  007ad	48 8d 0d 00 00
	00 00		 lea	 rcx, OFFSET FLAT:$SG170542
  007b4	48 89 4c 24 28	 mov	 QWORD PTR [rsp+40], rcx
  007b9	48 89 44 24 20	 mov	 QWORD PTR [rsp+32], rax
  007be	41 b9 03 00 00
	00		 mov	 r9d, 3
  007c4	4c 8d 05 00 00
	00 00		 lea	 r8, OFFSET FLAT:$SG170543
  007cb	ba ee 07 00 00	 mov	 edx, 2030		; 000007eeH
  007d0	48 8d 0d 00 00
	00 00		 lea	 rcx, OFFSET FLAT:$SG170544
  007d7	ff 15 00 00 00
	00		 call	 QWORD PTR __imp_fwritemsg

; 2031 : 
; 2032 :         if (!opts->quiet)

  007dd	48 8b 84 24 20
	01 00 00	 mov	 rax, QWORD PTR opts$[rsp]
  007e5	0f b6 40 19	 movzx	 eax, BYTE PTR [rax+25]
  007e9	85 c0		 test	 eax, eax
  007eb	75 58		 jne	 SHORT $LN31@dodump

; 2033 :             // "Tape \"%s\" created"
; 2034 :             WRMSG( HHC02635, "I", opts->tapefile );

  007ed	b9 01 00 00 00	 mov	 ecx, 1
  007f2	ff 15 00 00 00
	00		 call	 QWORD PTR __imp___acrt_iob_func
  007f8	48 8b 8c 24 20
	01 00 00	 mov	 rcx, QWORD PTR opts$[rsp]
  00800	48 8b 49 10	 mov	 rcx, QWORD PTR [rcx+16]
  00804	48 89 4c 24 38	 mov	 QWORD PTR [rsp+56], rcx
  00809	48 8d 0d 00 00
	00 00		 lea	 rcx, OFFSET FLAT:$SG170546
  00810	48 89 4c 24 30	 mov	 QWORD PTR [rsp+48], rcx
  00815	48 8d 0d 00 00
	00 00		 lea	 rcx, OFFSET FLAT:$SG170547
  0081c	48 89 4c 24 28	 mov	 QWORD PTR [rsp+40], rcx
  00821	48 89 44 24 20	 mov	 QWORD PTR [rsp+32], rax
  00826	41 b9 03 00 00
	00		 mov	 r9d, 3
  0082c	4c 8d 05 00 00
	00 00		 lea	 r8, OFFSET FLAT:$SG170548
  00833	ba f2 07 00 00	 mov	 edx, 2034		; 000007f2H
  00838	48 8d 0d 00 00
	00 00		 lea	 rcx, OFFSET FLAT:$SG170549
  0083f	ff 15 00 00 00
	00		 call	 QWORD PTR __imp_fwritemsg
$LN31@dodump:
$LN30@dodump:

; 2035 :     }
; 2036 : 
; 2037 :     return rc;

  00845	8b 44 24 50	 mov	 eax, DWORD PTR rc$[rsp]
$LN1@dodump:

; 2038 : }

  00849	48 8b 8c 24 00
	01 00 00	 mov	 rcx, QWORD PTR __$ArrayPad$[rsp]
  00851	48 33 cc	 xor	 rcx, rsp
  00854	e8 00 00 00 00	 call	 __security_check_cookie
  00859	48 81 c4 18 01
	00 00		 add	 rsp, 280		; 00000118H
  00860	c3		 ret	 0
dodump	ENDP
_TEXT	ENDS
; Function compile flags: /Odtp
; File C:\papa\MyGit\hyperion-zvector\vmfplc2.c
_TEXT	SEGMENT
errs$ = 80
recno$ = 84
tv181 = 88
rec$ = 96
cfile$ = 104
tv69 = 112
tv136 = 120
opts$ = 144
parse_ctlfile PROC

; 1868 : {

  00000	48 89 4c 24 08	 mov	 QWORD PTR [rsp+8], rcx
  00005	48 81 ec 88 00
	00 00		 sub	 rsp, 136		; 00000088H

; 1869 :     FILE*   cfile;
; 1870 :     char*   rec;
; 1871 :     int     recno = 0;

  0000c	c7 44 24 54 00
	00 00 00	 mov	 DWORD PTR recno$[rsp], 0

; 1872 :     int     errs  = 0;

  00014	c7 44 24 50 00
	00 00 00	 mov	 DWORD PTR errs$[rsp], 0

; 1873 : 
; 1874 :     /* Open the control file */
; 1875 :     if (!(cfile = fopen( opts->ctlfile, "r" )))

  0001c	48 8d 15 00 00
	00 00		 lea	 rdx, OFFSET FLAT:$SG170432
  00023	48 8b 84 24 90
	00 00 00	 mov	 rax, QWORD PTR opts$[rsp]
  0002b	48 8b 48 08	 mov	 rcx, QWORD PTR [rax+8]
  0002f	ff 15 00 00 00
	00		 call	 QWORD PTR __imp_fopen
  00035	48 89 44 24 68	 mov	 QWORD PTR cfile$[rsp], rax
  0003a	48 83 7c 24 68
	00		 cmp	 QWORD PTR cfile$[rsp], 0
  00040	75 7f		 jne	 SHORT $LN10@parse_ctlf

; 1876 :     {
; 1877 :         // "File open error: \"%s\": %s"
; 1878 :         FWRMSG( stderr, HHC02623, "E", opts->ctlfile, strerror( errno ));

  00042	ff 15 00 00 00
	00		 call	 QWORD PTR __imp__errno
  00048	8b 08		 mov	 ecx, DWORD PTR [rax]
  0004a	ff 15 00 00 00
	00		 call	 QWORD PTR __imp_w32_strerror
  00050	48 89 44 24 70	 mov	 QWORD PTR tv69[rsp], rax
  00055	b9 02 00 00 00	 mov	 ecx, 2
  0005a	ff 15 00 00 00
	00		 call	 QWORD PTR __imp___acrt_iob_func
  00060	48 8b 4c 24 70	 mov	 rcx, QWORD PTR tv69[rsp]
  00065	48 89 4c 24 40	 mov	 QWORD PTR [rsp+64], rcx
  0006a	48 8b 8c 24 90
	00 00 00	 mov	 rcx, QWORD PTR opts$[rsp]
  00072	48 8b 49 08	 mov	 rcx, QWORD PTR [rcx+8]
  00076	48 89 4c 24 38	 mov	 QWORD PTR [rsp+56], rcx
  0007b	48 8d 0d 00 00
	00 00		 lea	 rcx, OFFSET FLAT:$SG170433
  00082	48 89 4c 24 30	 mov	 QWORD PTR [rsp+48], rcx
  00087	48 8d 0d 00 00
	00 00		 lea	 rcx, OFFSET FLAT:$SG170434
  0008e	48 89 4c 24 28	 mov	 QWORD PTR [rsp+40], rcx
  00093	48 89 44 24 20	 mov	 QWORD PTR [rsp+32], rax
  00098	41 b9 03 00 00
	00		 mov	 r9d, 3
  0009e	4c 8d 05 00 00
	00 00		 lea	 r8, OFFSET FLAT:$SG170435
  000a5	ba 56 07 00 00	 mov	 edx, 1878		; 00000756H
  000aa	48 8d 0d 00 00
	00 00		 lea	 rcx, OFFSET FLAT:$SG170436
  000b1	ff 15 00 00 00
	00		 call	 QWORD PTR __imp_fwritemsg

; 1879 :         return -1;

  000b7	b8 ff ff ff ff	 mov	 eax, -1
  000bc	e9 db 01 00 00	 jmp	 $LN1@parse_ctlf
$LN10@parse_ctlf:
$LN2@parse_ctlf:

; 1880 :     }
; 1881 : 
; 1882 :     /* Parse and save each control file statement */
; 1883 :     while ((rec = fgets( (char*) bfr, sizeof( bfr ), cfile )) != NULL)

  000c1	4c 8b 44 24 68	 mov	 r8, QWORD PTR cfile$[rsp]
  000c6	ba ff ff 00 00	 mov	 edx, 65535		; 0000ffffH
  000cb	48 8d 0d 00 00
	00 00		 lea	 rcx, OFFSET FLAT:bfr
  000d2	ff 15 00 00 00
	00		 call	 QWORD PTR __imp_fgets
  000d8	48 89 44 24 60	 mov	 QWORD PTR rec$[rsp], rax
  000dd	48 83 7c 24 60
	00		 cmp	 QWORD PTR rec$[rsp], 0
  000e3	74 45		 je	 SHORT $LN3@parse_ctlf

; 1884 :     {
; 1885 :         recno++;

  000e5	8b 44 24 54	 mov	 eax, DWORD PTR recno$[rsp]
  000e9	ff c0		 inc	 eax
  000eb	89 44 24 54	 mov	 DWORD PTR recno$[rsp], eax

; 1886 :         rec[ strlen( rec ) - 1 ] = 0;  // (remove newline)

  000ef	48 8b 4c 24 60	 mov	 rcx, QWORD PTR rec$[rsp]
  000f4	e8 00 00 00 00	 call	 strlen
  000f9	48 8b 4c 24 60	 mov	 rcx, QWORD PTR rec$[rsp]
  000fe	c6 44 01 ff 00	 mov	 BYTE PTR [rcx+rax-1], 0

; 1887 : 
; 1888 :         if (parse_ctlfile_stmt( opts, rec, recno ) != 0)

  00103	44 8b 44 24 54	 mov	 r8d, DWORD PTR recno$[rsp]
  00108	48 8b 54 24 60	 mov	 rdx, QWORD PTR rec$[rsp]
  0010d	48 8b 8c 24 90
	00 00 00	 mov	 rcx, QWORD PTR opts$[rsp]
  00115	e8 00 00 00 00	 call	 parse_ctlfile_stmt
  0011a	85 c0		 test	 eax, eax
  0011c	74 0a		 je	 SHORT $LN11@parse_ctlf

; 1889 :             errs++;

  0011e	8b 44 24 50	 mov	 eax, DWORD PTR errs$[rsp]
  00122	ff c0		 inc	 eax
  00124	89 44 24 50	 mov	 DWORD PTR errs$[rsp], eax
$LN11@parse_ctlf:

; 1890 :     }

  00128	eb 97		 jmp	 SHORT $LN2@parse_ctlf
$LN3@parse_ctlf:

; 1891 : 
; 1892 :     /* Check for ctlfile I/O error */
; 1893 :     if (ferror( cfile ))

  0012a	48 8b 4c 24 68	 mov	 rcx, QWORD PTR cfile$[rsp]
  0012f	ff 15 00 00 00
	00		 call	 QWORD PTR __imp_ferror
  00135	85 c0		 test	 eax, eax
  00137	74 7f		 je	 SHORT $LN12@parse_ctlf

; 1894 :     {
; 1895 :         // "I/O error on file \"%s\": %s"
; 1896 :         FWRMSG( stderr, HHC02627, "E", opts->ctlfile, strerror( errno ));

  00139	ff 15 00 00 00
	00		 call	 QWORD PTR __imp__errno
  0013f	8b 08		 mov	 ecx, DWORD PTR [rax]
  00141	ff 15 00 00 00
	00		 call	 QWORD PTR __imp_w32_strerror
  00147	48 89 44 24 78	 mov	 QWORD PTR tv136[rsp], rax
  0014c	b9 02 00 00 00	 mov	 ecx, 2
  00151	ff 15 00 00 00
	00		 call	 QWORD PTR __imp___acrt_iob_func
  00157	48 8b 4c 24 78	 mov	 rcx, QWORD PTR tv136[rsp]
  0015c	48 89 4c 24 40	 mov	 QWORD PTR [rsp+64], rcx
  00161	48 8b 8c 24 90
	00 00 00	 mov	 rcx, QWORD PTR opts$[rsp]
  00169	48 8b 49 08	 mov	 rcx, QWORD PTR [rcx+8]
  0016d	48 89 4c 24 38	 mov	 QWORD PTR [rsp+56], rcx
  00172	48 8d 0d 00 00
	00 00		 lea	 rcx, OFFSET FLAT:$SG170439
  00179	48 89 4c 24 30	 mov	 QWORD PTR [rsp+48], rcx
  0017e	48 8d 0d 00 00
	00 00		 lea	 rcx, OFFSET FLAT:$SG170440
  00185	48 89 4c 24 28	 mov	 QWORD PTR [rsp+40], rcx
  0018a	48 89 44 24 20	 mov	 QWORD PTR [rsp+32], rax
  0018f	41 b9 03 00 00
	00		 mov	 r9d, 3
  00195	4c 8d 05 00 00
	00 00		 lea	 r8, OFFSET FLAT:$SG170441
  0019c	ba 68 07 00 00	 mov	 edx, 1896		; 00000768H
  001a1	48 8d 0d 00 00
	00 00		 lea	 rcx, OFFSET FLAT:$SG170442
  001a8	ff 15 00 00 00
	00		 call	 QWORD PTR __imp_fwritemsg

; 1897 :         errs++;

  001ae	8b 44 24 50	 mov	 eax, DWORD PTR errs$[rsp]
  001b2	ff c0		 inc	 eax
  001b4	89 44 24 50	 mov	 DWORD PTR errs$[rsp], eax
$LN12@parse_ctlf:
$LN6@parse_ctlf:

; 1898 :     }
; 1899 : 
; 1900 :     /* Close the control file */
; 1901 :     VERIFY( fclose( cfile ) == 0 );

  001b8	48 8b 4c 24 68	 mov	 rcx, QWORD PTR cfile$[rsp]
  001bd	ff 15 00 00 00
	00		 call	 QWORD PTR __imp_w32_fclose
  001c3	85 c0		 test	 eax, eax
  001c5	74 5c		 je	 SHORT $LN13@parse_ctlf
$LN9@parse_ctlf:
  001c7	4c 8d 0d 00 00
	00 00		 lea	 r9, OFFSET FLAT:$SG170444
  001ce	41 b8 6d 07 00
	00		 mov	 r8d, 1901		; 0000076dH
  001d4	48 8d 15 00 00
	00 00		 lea	 rdx, OFFSET FLAT:$SG170445
  001db	48 8d 0d 00 00
	00 00		 lea	 rcx, OFFSET FLAT:$SG170446
  001e2	ff 15 00 00 00
	00		 call	 QWORD PTR __imp_logmsg
  001e8	ff 15 00 00 00
	00		 call	 QWORD PTR __imp_IsDebuggerPresent
  001ee	85 c0		 test	 eax, eax
  001f0	74 20		 je	 SHORT $LN14@parse_ctlf
  001f2	4c 8d 0d 00 00
	00 00		 lea	 r9, OFFSET FLAT:$SG170448
  001f9	41 b8 6d 07 00
	00		 mov	 r8d, 1901		; 0000076dH
  001ff	48 8d 15 00 00
	00 00		 lea	 rdx, OFFSET FLAT:$SG170449
  00206	48 8d 0d 00 00
	00 00		 lea	 rcx, OFFSET FLAT:$SG170450
  0020d	e8 00 00 00 00	 call	 DebuggerTrace
$LN14@parse_ctlf:
  00212	33 c0		 xor	 eax, eax
  00214	85 c0		 test	 eax, eax
  00216	75 af		 jne	 SHORT $LN9@parse_ctlf
  00218	ff 15 00 00 00
	00		 call	 QWORD PTR __imp_IsDebuggerPresent
  0021e	85 c0		 test	 eax, eax
  00220	74 01		 je	 SHORT $LN15@parse_ctlf
  00222	cc		 int	 3
$LN15@parse_ctlf:
$LN13@parse_ctlf:
  00223	33 c0		 xor	 eax, eax
  00225	85 c0		 test	 eax, eax
  00227	75 8f		 jne	 SHORT $LN6@parse_ctlf

; 1902 : 
; 1903 :     if (errs)

  00229	83 7c 24 50 00	 cmp	 DWORD PTR errs$[rsp], 0
  0022e	74 4f		 je	 SHORT $LN16@parse_ctlf

; 1904 :         // "%d errors encountered"
; 1905 :         FWRMSG( stderr, HHC02630, "W", errs );

  00230	b9 02 00 00 00	 mov	 ecx, 2
  00235	ff 15 00 00 00
	00		 call	 QWORD PTR __imp___acrt_iob_func
  0023b	8b 4c 24 50	 mov	 ecx, DWORD PTR errs$[rsp]
  0023f	89 4c 24 38	 mov	 DWORD PTR [rsp+56], ecx
  00243	48 8d 0d 00 00
	00 00		 lea	 rcx, OFFSET FLAT:$SG170453
  0024a	48 89 4c 24 30	 mov	 QWORD PTR [rsp+48], rcx
  0024f	48 8d 0d 00 00
	00 00		 lea	 rcx, OFFSET FLAT:$SG170454
  00256	48 89 4c 24 28	 mov	 QWORD PTR [rsp+40], rcx
  0025b	48 89 44 24 20	 mov	 QWORD PTR [rsp+32], rax
  00260	41 b9 03 00 00
	00		 mov	 r9d, 3
  00266	4c 8d 05 00 00
	00 00		 lea	 r8, OFFSET FLAT:$SG170455
  0026d	ba 71 07 00 00	 mov	 edx, 1905		; 00000771H
  00272	48 8d 0d 00 00
	00 00		 lea	 rcx, OFFSET FLAT:$SG170456
  00279	ff 15 00 00 00
	00		 call	 QWORD PTR __imp_fwritemsg
$LN16@parse_ctlf:

; 1906 : 
; 1907 :     return errs ? -1 : 0;

  0027f	83 7c 24 50 00	 cmp	 DWORD PTR errs$[rsp], 0
  00284	74 0a		 je	 SHORT $LN18@parse_ctlf
  00286	c7 44 24 58 ff
	ff ff ff	 mov	 DWORD PTR tv181[rsp], -1
  0028e	eb 08		 jmp	 SHORT $LN19@parse_ctlf
$LN18@parse_ctlf:
  00290	c7 44 24 58 00
	00 00 00	 mov	 DWORD PTR tv181[rsp], 0
$LN19@parse_ctlf:
  00298	8b 44 24 58	 mov	 eax, DWORD PTR tv181[rsp]
$LN1@parse_ctlf:

; 1908 : }

  0029c	48 81 c4 88 00
	00 00		 add	 rsp, 136		; 00000088H
  002a3	c3		 ret	 0
parse_ctlfile ENDP
_TEXT	ENDS
; Function compile flags: /Odtp
; File C:\papa\MyGit\hyperion-zvector\vmfplc2.c
_TEXT	SEGMENT
argc$ = 80
msg$ = 88
filefmt$ = 96
reclen$ = 104
fn$ = 112
recfm$ = 120
ft$ = 128
fm$ = 136
codepage$ = 144
lrecl$ = 152
infile$ = 160
rec$ = 168
rc$ = 176
tv139 = 184
tv143 = 192
tv147 = 200
tv151 = 208
tv155 = 216
tv159 = 224
tv163 = 232
tv167 = 240
endptr$ = 248
ctl$ = 256
stt$ = 320
argv$ = 384
__$ArrayPad$ = 8576
opts$ = 8608
orec$ = 8616
recno$ = 8624
parse_ctlfile_stmt PROC

; 1642 : {

  00000	44 89 44 24 18	 mov	 DWORD PTR [rsp+24], r8d
  00005	48 89 54 24 10	 mov	 QWORD PTR [rsp+16], rdx
  0000a	48 89 4c 24 08	 mov	 QWORD PTR [rsp+8], rcx
  0000f	57		 push	 rdi
  00010	b8 90 21 00 00	 mov	 eax, 8592		; 00002190H
  00015	e8 00 00 00 00	 call	 __chkstk
  0001a	48 2b e0	 sub	 rsp, rax
  0001d	48 8b 05 00 00
	00 00		 mov	 rax, QWORD PTR __security_cookie
  00024	48 33 c4	 xor	 rax, rsp
  00027	48 89 84 24 80
	21 00 00	 mov	 QWORD PTR __$ArrayPad$[rsp], rax

; 1643 :     int            rc;
; 1644 :     int            argc;
; 1645 :     int            reclen;
; 1646 : 
; 1647 :     struct  stat   stt                  = {0};

  0002f	48 8d 84 24 40
	01 00 00	 lea	 rax, QWORD PTR stt$[rsp]
  00037	48 8b f8	 mov	 rdi, rax
  0003a	33 c0		 xor	 eax, eax
  0003c	b9 38 00 00 00	 mov	 ecx, 56			; 00000038H
  00041	f3 aa		 rep stosb

; 1648 :     CTLTAB         ctl                  = {0};

  00043	48 8d 84 24 00
	01 00 00	 lea	 rax, QWORD PTR ctl$[rsp]
  0004b	48 8b f8	 mov	 rdi, rax
  0004e	33 c0		 xor	 eax, eax
  00050	b9 40 00 00 00	 mov	 ecx, 64			; 00000040H
  00055	f3 aa		 rep stosb

; 1649 :     char*          argv[ MAX_ARGS ]     = {0};

  00057	48 8d 84 24 80
	01 00 00	 lea	 rax, QWORD PTR argv$[rsp]
  0005f	48 8b f8	 mov	 rdi, rax
  00062	33 c0		 xor	 eax, eax
  00064	b9 00 20 00 00	 mov	 ecx, 8192		; 00002000H
  00069	f3 aa		 rep stosb

; 1650 :     char*          fn                   = NULL;

  0006b	48 c7 44 24 70
	00 00 00 00	 mov	 QWORD PTR fn$[rsp], 0

; 1651 :     char*          ft                   = NULL;

  00074	48 c7 84 24 80
	00 00 00 00 00
	00 00		 mov	 QWORD PTR ft$[rsp], 0

; 1652 :     char*          fm                   = NULL;

  00080	48 c7 84 24 88
	00 00 00 00 00
	00 00		 mov	 QWORD PTR fm$[rsp], 0

; 1653 :     char*          recfm                = NULL;

  0008c	48 c7 44 24 78
	00 00 00 00	 mov	 QWORD PTR recfm$[rsp], 0

; 1654 :     char*          lrecl                = NULL;

  00095	48 c7 84 24 98
	00 00 00 00 00
	00 00		 mov	 QWORD PTR lrecl$[rsp], 0

; 1655 :     char*          filefmt              = NULL;

  000a1	48 c7 44 24 60
	00 00 00 00	 mov	 QWORD PTR filefmt$[rsp], 0

; 1656 :     char*          infile               = NULL;

  000aa	48 c7 84 24 a0
	00 00 00 00 00
	00 00		 mov	 QWORD PTR infile$[rsp], 0

; 1657 :     char*          rec                  = NULL;

  000b6	48 c7 84 24 a8
	00 00 00 00 00
	00 00		 mov	 QWORD PTR rec$[rsp], 0

; 1658 :     char*          endptr               = NULL;

  000c2	48 c7 84 24 f8
	00 00 00 00 00
	00 00		 mov	 QWORD PTR endptr$[rsp], 0

; 1659 :     const char*    msg                  = NULL;

  000ce	48 c7 44 24 58
	00 00 00 00	 mov	 QWORD PTR msg$[rsp], 0

; 1660 :     const char*    codepage             = NULL;

  000d7	48 c7 84 24 90
	00 00 00 00 00
	00 00		 mov	 QWORD PTR codepage$[rsp], 0

; 1661 : 
; 1662 :     /* Parse the ctlfile statement */
; 1663 :     if (0
; 1664 :         || parse_args((rec = strdup( orec )), MAX_ARGS, argv, &argc ) == 0
; 1665 :         || argv[0][0] == '*'
; 1666 :         || argv[0][0] == '#'
; 1667 :         || argv[0][0] == ';'

  000e3	33 c0		 xor	 eax, eax
  000e5	85 c0		 test	 eax, eax
  000e7	0f 85 a3 00 00
	00		 jne	 $LN15@parse_ctlf
  000ed	48 8b 8c 24 a8
	21 00 00	 mov	 rcx, QWORD PTR orec$[rsp]
  000f5	ff 15 00 00 00
	00		 call	 QWORD PTR __imp_strdup
  000fb	48 89 84 24 a8
	00 00 00	 mov	 QWORD PTR rec$[rsp], rax
  00103	4c 8d 4c 24 50	 lea	 r9, QWORD PTR argc$[rsp]
  00108	4c 8d 84 24 80
	01 00 00	 lea	 r8, QWORD PTR argv$[rsp]
  00110	ba 00 04 00 00	 mov	 edx, 1024		; 00000400H
  00115	48 8b 8c 24 a8
	00 00 00	 mov	 rcx, QWORD PTR rec$[rsp]
  0011d	ff 15 00 00 00
	00		 call	 QWORD PTR __imp_parse_args
  00123	85 c0		 test	 eax, eax
  00125	74 69		 je	 SHORT $LN15@parse_ctlf
  00127	b8 08 00 00 00	 mov	 eax, 8
  0012c	48 6b c0 00	 imul	 rax, rax, 0
  00130	b9 01 00 00 00	 mov	 ecx, 1
  00135	48 6b c9 00	 imul	 rcx, rcx, 0
  00139	48 8b 84 04 80
	01 00 00	 mov	 rax, QWORD PTR argv$[rsp+rax]
  00141	0f be 04 08	 movsx	 eax, BYTE PTR [rax+rcx]
  00145	83 f8 2a	 cmp	 eax, 42			; 0000002aH
  00148	74 46		 je	 SHORT $LN15@parse_ctlf
  0014a	b8 08 00 00 00	 mov	 eax, 8
  0014f	48 6b c0 00	 imul	 rax, rax, 0
  00153	b9 01 00 00 00	 mov	 ecx, 1
  00158	48 6b c9 00	 imul	 rcx, rcx, 0
  0015c	48 8b 84 04 80
	01 00 00	 mov	 rax, QWORD PTR argv$[rsp+rax]
  00164	0f be 04 08	 movsx	 eax, BYTE PTR [rax+rcx]
  00168	83 f8 23	 cmp	 eax, 35			; 00000023H
  0016b	74 23		 je	 SHORT $LN15@parse_ctlf
  0016d	b8 08 00 00 00	 mov	 eax, 8
  00172	48 6b c0 00	 imul	 rax, rax, 0
  00176	b9 01 00 00 00	 mov	 ecx, 1
  0017b	48 6b c9 00	 imul	 rcx, rcx, 0
  0017f	48 8b 84 04 80
	01 00 00	 mov	 rax, QWORD PTR argv$[rsp+rax]
  00187	0f be 04 08	 movsx	 eax, BYTE PTR [rax+rcx]
  0018b	83 f8 3b	 cmp	 eax, 59			; 0000003bH
  0018e	75 15		 jne	 SHORT $LN14@parse_ctlf
$LN15@parse_ctlf:

; 1668 :     )
; 1669 :     {
; 1670 :         /* Blank line or comment line; ignore */
; 1671 :         free( rec );

  00190	48 8b 8c 24 a8
	00 00 00	 mov	 rcx, QWORD PTR rec$[rsp]
  00198	ff 15 00 00 00
	00		 call	 QWORD PTR __imp_free

; 1672 :         return 0;

  0019e	33 c0		 xor	 eax, eax
  001a0	e9 42 09 00 00	 jmp	 $LN1@parse_ctlf
$LN14@parse_ctlf:

; 1673 :     }
; 1674 : 
; 1675 :     /*     0        1     2     3       4        5       6         7      */
; 1676 :     /* [codepage]  <FN>  <FT>  <FM>  <recfm>  <lrecl>  <type>  <hostfile> */
; 1677 : 
; 1678 :     codepage = argc >= 1 ? argv[0] : NULL;

  001a5	83 7c 24 50 01	 cmp	 DWORD PTR argc$[rsp], 1
  001aa	7c 1b		 jl	 SHORT $LN45@parse_ctlf
  001ac	b8 08 00 00 00	 mov	 eax, 8
  001b1	48 6b c0 00	 imul	 rax, rax, 0
  001b5	48 8b 84 04 80
	01 00 00	 mov	 rax, QWORD PTR argv$[rsp+rax]
  001bd	48 89 84 24 b8
	00 00 00	 mov	 QWORD PTR tv139[rsp], rax
  001c5	eb 0c		 jmp	 SHORT $LN46@parse_ctlf
$LN45@parse_ctlf:
  001c7	48 c7 84 24 b8
	00 00 00 00 00
	00 00		 mov	 QWORD PTR tv139[rsp], 0
$LN46@parse_ctlf:
  001d3	48 8b 84 24 b8
	00 00 00	 mov	 rax, QWORD PTR tv139[rsp]
  001db	48 89 84 24 90
	00 00 00	 mov	 QWORD PTR codepage$[rsp], rax

; 1679 :     fn       = argc >= 2 ? argv[1] : NULL;

  001e3	83 7c 24 50 02	 cmp	 DWORD PTR argc$[rsp], 2
  001e8	7c 1b		 jl	 SHORT $LN47@parse_ctlf
  001ea	b8 08 00 00 00	 mov	 eax, 8
  001ef	48 6b c0 01	 imul	 rax, rax, 1
  001f3	48 8b 84 04 80
	01 00 00	 mov	 rax, QWORD PTR argv$[rsp+rax]
  001fb	48 89 84 24 c0
	00 00 00	 mov	 QWORD PTR tv143[rsp], rax
  00203	eb 0c		 jmp	 SHORT $LN48@parse_ctlf
$LN47@parse_ctlf:
  00205	48 c7 84 24 c0
	00 00 00 00 00
	00 00		 mov	 QWORD PTR tv143[rsp], 0
$LN48@parse_ctlf:
  00211	48 8b 84 24 c0
	00 00 00	 mov	 rax, QWORD PTR tv143[rsp]
  00219	48 89 44 24 70	 mov	 QWORD PTR fn$[rsp], rax

; 1680 :     ft       = argc >= 3 ? argv[2] : NULL;

  0021e	83 7c 24 50 03	 cmp	 DWORD PTR argc$[rsp], 3
  00223	7c 1b		 jl	 SHORT $LN49@parse_ctlf
  00225	b8 08 00 00 00	 mov	 eax, 8
  0022a	48 6b c0 02	 imul	 rax, rax, 2
  0022e	48 8b 84 04 80
	01 00 00	 mov	 rax, QWORD PTR argv$[rsp+rax]
  00236	48 89 84 24 c8
	00 00 00	 mov	 QWORD PTR tv147[rsp], rax
  0023e	eb 0c		 jmp	 SHORT $LN50@parse_ctlf
$LN49@parse_ctlf:
  00240	48 c7 84 24 c8
	00 00 00 00 00
	00 00		 mov	 QWORD PTR tv147[rsp], 0
$LN50@parse_ctlf:
  0024c	48 8b 84 24 c8
	00 00 00	 mov	 rax, QWORD PTR tv147[rsp]
  00254	48 89 84 24 80
	00 00 00	 mov	 QWORD PTR ft$[rsp], rax

; 1681 :     fm       = argc >= 4 ? argv[3] : NULL;

  0025c	83 7c 24 50 04	 cmp	 DWORD PTR argc$[rsp], 4
  00261	7c 1b		 jl	 SHORT $LN51@parse_ctlf
  00263	b8 08 00 00 00	 mov	 eax, 8
  00268	48 6b c0 03	 imul	 rax, rax, 3
  0026c	48 8b 84 04 80
	01 00 00	 mov	 rax, QWORD PTR argv$[rsp+rax]
  00274	48 89 84 24 d0
	00 00 00	 mov	 QWORD PTR tv151[rsp], rax
  0027c	eb 0c		 jmp	 SHORT $LN52@parse_ctlf
$LN51@parse_ctlf:
  0027e	48 c7 84 24 d0
	00 00 00 00 00
	00 00		 mov	 QWORD PTR tv151[rsp], 0
$LN52@parse_ctlf:
  0028a	48 8b 84 24 d0
	00 00 00	 mov	 rax, QWORD PTR tv151[rsp]
  00292	48 89 84 24 88
	00 00 00	 mov	 QWORD PTR fm$[rsp], rax

; 1682 :     recfm    = argc >= 5 ? argv[4] : NULL;

  0029a	83 7c 24 50 05	 cmp	 DWORD PTR argc$[rsp], 5
  0029f	7c 1b		 jl	 SHORT $LN53@parse_ctlf
  002a1	b8 08 00 00 00	 mov	 eax, 8
  002a6	48 6b c0 04	 imul	 rax, rax, 4
  002aa	48 8b 84 04 80
	01 00 00	 mov	 rax, QWORD PTR argv$[rsp+rax]
  002b2	48 89 84 24 d8
	00 00 00	 mov	 QWORD PTR tv155[rsp], rax
  002ba	eb 0c		 jmp	 SHORT $LN54@parse_ctlf
$LN53@parse_ctlf:
  002bc	48 c7 84 24 d8
	00 00 00 00 00
	00 00		 mov	 QWORD PTR tv155[rsp], 0
$LN54@parse_ctlf:
  002c8	48 8b 84 24 d8
	00 00 00	 mov	 rax, QWORD PTR tv155[rsp]
  002d0	48 89 44 24 78	 mov	 QWORD PTR recfm$[rsp], rax

; 1683 :     lrecl    = argc >= 6 ? argv[5] : NULL;

  002d5	83 7c 24 50 06	 cmp	 DWORD PTR argc$[rsp], 6
  002da	7c 1b		 jl	 SHORT $LN55@parse_ctlf
  002dc	b8 08 00 00 00	 mov	 eax, 8
  002e1	48 6b c0 05	 imul	 rax, rax, 5
  002e5	48 8b 84 04 80
	01 00 00	 mov	 rax, QWORD PTR argv$[rsp+rax]
  002ed	48 89 84 24 e0
	00 00 00	 mov	 QWORD PTR tv159[rsp], rax
  002f5	eb 0c		 jmp	 SHORT $LN56@parse_ctlf
$LN55@parse_ctlf:
  002f7	48 c7 84 24 e0
	00 00 00 00 00
	00 00		 mov	 QWORD PTR tv159[rsp], 0
$LN56@parse_ctlf:
  00303	48 8b 84 24 e0
	00 00 00	 mov	 rax, QWORD PTR tv159[rsp]
  0030b	48 89 84 24 98
	00 00 00	 mov	 QWORD PTR lrecl$[rsp], rax

; 1684 :     filefmt  = argc >= 7 ? argv[6] : NULL;

  00313	83 7c 24 50 07	 cmp	 DWORD PTR argc$[rsp], 7
  00318	7c 1b		 jl	 SHORT $LN57@parse_ctlf
  0031a	b8 08 00 00 00	 mov	 eax, 8
  0031f	48 6b c0 06	 imul	 rax, rax, 6
  00323	48 8b 84 04 80
	01 00 00	 mov	 rax, QWORD PTR argv$[rsp+rax]
  0032b	48 89 84 24 e8
	00 00 00	 mov	 QWORD PTR tv163[rsp], rax
  00333	eb 0c		 jmp	 SHORT $LN58@parse_ctlf
$LN57@parse_ctlf:
  00335	48 c7 84 24 e8
	00 00 00 00 00
	00 00		 mov	 QWORD PTR tv163[rsp], 0
$LN58@parse_ctlf:
  00341	48 8b 84 24 e8
	00 00 00	 mov	 rax, QWORD PTR tv163[rsp]
  00349	48 89 44 24 60	 mov	 QWORD PTR filefmt$[rsp], rax

; 1685 :     infile   = argc >= 8 ? argv[7] : NULL;

  0034e	83 7c 24 50 08	 cmp	 DWORD PTR argc$[rsp], 8
  00353	7c 1b		 jl	 SHORT $LN59@parse_ctlf
  00355	b8 08 00 00 00	 mov	 eax, 8
  0035a	48 6b c0 07	 imul	 rax, rax, 7
  0035e	48 8b 84 04 80
	01 00 00	 mov	 rax, QWORD PTR argv$[rsp+rax]
  00366	48 89 84 24 f0
	00 00 00	 mov	 QWORD PTR tv167[rsp], rax
  0036e	eb 0c		 jmp	 SHORT $LN60@parse_ctlf
$LN59@parse_ctlf:
  00370	48 c7 84 24 f0
	00 00 00 00 00
	00 00		 mov	 QWORD PTR tv167[rsp], 0
$LN60@parse_ctlf:
  0037c	48 8b 84 24 f0
	00 00 00	 mov	 rax, QWORD PTR tv167[rsp]
  00384	48 89 84 24 a0
	00 00 00	 mov	 QWORD PTR infile$[rsp], rax

; 1686 : 
; 1687 :     /* Was codepage specified? */
; 1688 :     if (codepage && strchr( codepage, '/' ))

  0038c	48 83 bc 24 90
	00 00 00 00	 cmp	 QWORD PTR codepage$[rsp], 0
  00395	74 3f		 je	 SHORT $LN16@parse_ctlf
  00397	ba 2f 00 00 00	 mov	 edx, 47			; 0000002fH
  0039c	48 8b 8c 24 90
	00 00 00	 mov	 rcx, QWORD PTR codepage$[rsp]
  003a4	e8 00 00 00 00	 call	 strchr
  003a9	48 85 c0	 test	 rax, rax
  003ac	74 28		 je	 SHORT $LN16@parse_ctlf

; 1689 :     {
; 1690 :         if (!valid_codepage_name( codepage ))

  003ae	48 8b 8c 24 90
	00 00 00	 mov	 rcx, QWORD PTR codepage$[rsp]
  003b6	ff 15 00 00 00
	00		 call	 QWORD PTR __imp_valid_codepage_name
  003bc	0f b6 c0	 movzx	 eax, al
  003bf	85 c0		 test	 eax, eax
  003c1	75 11		 jne	 SHORT $LN18@parse_ctlf

; 1691 :         {
; 1692 :             msg = "Invalid codepage";

  003c3	48 8d 05 00 00
	00 00		 lea	 rax, OFFSET FLAT:$SG170343
  003ca	48 89 44 24 58	 mov	 QWORD PTR msg$[rsp], rax

; 1693 :             goto process_entry_error;

  003cf	e9 f8 05 00 00	 jmp	 $process_entry_error$61
$LN18@parse_ctlf:

; 1694 :         }
; 1695 :     }

  003d4	eb 6d		 jmp	 SHORT $LN17@parse_ctlf
$LN16@parse_ctlf:

; 1696 :     else /* codepage NOT specified; adjust parameters */
; 1697 :     {
; 1698 :         infile   = filefmt;

  003d6	48 8b 44 24 60	 mov	 rax, QWORD PTR filefmt$[rsp]
  003db	48 89 84 24 a0
	00 00 00	 mov	 QWORD PTR infile$[rsp], rax

; 1699 :         filefmt  = lrecl;

  003e3	48 8b 84 24 98
	00 00 00	 mov	 rax, QWORD PTR lrecl$[rsp]
  003eb	48 89 44 24 60	 mov	 QWORD PTR filefmt$[rsp], rax

; 1700 :         lrecl    = recfm;

  003f0	48 8b 44 24 78	 mov	 rax, QWORD PTR recfm$[rsp]
  003f5	48 89 84 24 98
	00 00 00	 mov	 QWORD PTR lrecl$[rsp], rax

; 1701 :         recfm    = fm;

  003fd	48 8b 84 24 88
	00 00 00	 mov	 rax, QWORD PTR fm$[rsp]
  00405	48 89 44 24 78	 mov	 QWORD PTR recfm$[rsp], rax

; 1702 :         fm       = ft;

  0040a	48 8b 84 24 80
	00 00 00	 mov	 rax, QWORD PTR ft$[rsp]
  00412	48 89 84 24 88
	00 00 00	 mov	 QWORD PTR fm$[rsp], rax

; 1703 :         ft       = fn;

  0041a	48 8b 44 24 70	 mov	 rax, QWORD PTR fn$[rsp]
  0041f	48 89 84 24 80
	00 00 00	 mov	 QWORD PTR ft$[rsp], rax

; 1704 :         fn       = (char*) codepage;

  00427	48 8b 84 24 90
	00 00 00	 mov	 rax, QWORD PTR codepage$[rsp]
  0042f	48 89 44 24 70	 mov	 QWORD PTR fn$[rsp], rax

; 1705 :         codepage = defaultcp;

  00434	48 8b 05 00 00
	00 00		 mov	 rax, QWORD PTR defaultcp
  0043b	48 89 84 24 90
	00 00 00	 mov	 QWORD PTR codepage$[rsp], rax
$LN17@parse_ctlf:

; 1706 :     }
; 1707 : 
; 1708 :     /* Validate each argument... */
; 1709 : 
; 1710 :     if (!fn)

  00443	48 83 7c 24 70
	00		 cmp	 QWORD PTR fn$[rsp], 0
  00449	75 11		 jne	 SHORT $LN19@parse_ctlf

; 1711 :     {
; 1712 :         msg = "File name missing";

  0044b	48 8d 05 00 00
	00 00		 lea	 rax, OFFSET FLAT:$SG170345
  00452	48 89 44 24 58	 mov	 QWORD PTR msg$[rsp], rax

; 1713 :         goto process_entry_error;

  00457	e9 70 05 00 00	 jmp	 $process_entry_error$61
$LN19@parse_ctlf:

; 1714 :     }
; 1715 : 
; 1716 :     if (strcasecmp( fn, "@TM" ) == 0)

  0045c	48 8d 15 00 00
	00 00		 lea	 rdx, OFFSET FLAT:$SG170347
  00463	48 8b 4c 24 70	 mov	 rcx, QWORD PTR fn$[rsp]
  00468	ff 15 00 00 00
	00		 call	 QWORD PTR __imp__stricmp
  0046e	85 c0		 test	 eax, eax
  00470	0f 85 9a 00 00
	00		 jne	 $LN20@parse_ctlf

; 1717 :     {
; 1718 :         ctl.fn = strdup( "@TM" );

  00476	48 8d 0d 00 00
	00 00		 lea	 rcx, OFFSET FLAT:$SG170348
  0047d	ff 15 00 00 00
	00		 call	 QWORD PTR __imp_strdup
  00483	48 89 84 24 10
	01 00 00	 mov	 QWORD PTR ctl$[rsp+16], rax

; 1719 :         ctl.loaded = false;

  0048b	c6 84 24 3e 01
	00 00 00	 mov	 BYTE PTR ctl$[rsp+62], 0
$LN4@parse_ctlf:

; 1720 :         VERIFY( add_ctltab_entry( &ctl ));

  00493	48 8d 8c 24 00
	01 00 00	 lea	 rcx, QWORD PTR ctl$[rsp]
  0049b	e8 00 00 00 00	 call	 add_ctltab_entry
  004a0	0f b6 c0	 movzx	 eax, al
  004a3	85 c0		 test	 eax, eax
  004a5	75 5c		 jne	 SHORT $LN21@parse_ctlf
$LN7@parse_ctlf:
  004a7	4c 8d 0d 00 00
	00 00		 lea	 r9, OFFSET FLAT:$SG170350
  004ae	41 b8 b8 06 00
	00		 mov	 r8d, 1720		; 000006b8H
  004b4	48 8d 15 00 00
	00 00		 lea	 rdx, OFFSET FLAT:$SG170351
  004bb	48 8d 0d 00 00
	00 00		 lea	 rcx, OFFSET FLAT:$SG170352
  004c2	ff 15 00 00 00
	00		 call	 QWORD PTR __imp_logmsg
  004c8	ff 15 00 00 00
	00		 call	 QWORD PTR __imp_IsDebuggerPresent
  004ce	85 c0		 test	 eax, eax
  004d0	74 20		 je	 SHORT $LN22@parse_ctlf
  004d2	4c 8d 0d 00 00
	00 00		 lea	 r9, OFFSET FLAT:$SG170354
  004d9	41 b8 b8 06 00
	00		 mov	 r8d, 1720		; 000006b8H
  004df	48 8d 15 00 00
	00 00		 lea	 rdx, OFFSET FLAT:$SG170355
  004e6	48 8d 0d 00 00
	00 00		 lea	 rcx, OFFSET FLAT:$SG170356
  004ed	e8 00 00 00 00	 call	 DebuggerTrace
$LN22@parse_ctlf:
  004f2	33 c0		 xor	 eax, eax
  004f4	85 c0		 test	 eax, eax
  004f6	75 af		 jne	 SHORT $LN7@parse_ctlf
  004f8	ff 15 00 00 00
	00		 call	 QWORD PTR __imp_IsDebuggerPresent
  004fe	85 c0		 test	 eax, eax
  00500	74 01		 je	 SHORT $LN23@parse_ctlf
  00502	cc		 int	 3
$LN23@parse_ctlf:
$LN21@parse_ctlf:
  00503	33 c0		 xor	 eax, eax
  00505	85 c0		 test	 eax, eax
  00507	75 8a		 jne	 SHORT $LN4@parse_ctlf

; 1721 :         return 0;

  00509	33 c0		 xor	 eax, eax
  0050b	e9 d7 05 00 00	 jmp	 $LN1@parse_ctlf
$LN20@parse_ctlf:

; 1722 :     }
; 1723 : 
; 1724 :     if (!ft)

  00510	48 83 bc 24 80
	00 00 00 00	 cmp	 QWORD PTR ft$[rsp], 0
  00519	75 11		 jne	 SHORT $LN24@parse_ctlf

; 1725 :     {
; 1726 :         msg = "File type missing";

  0051b	48 8d 05 00 00
	00 00		 lea	 rax, OFFSET FLAT:$SG170359
  00522	48 89 44 24 58	 mov	 QWORD PTR msg$[rsp], rax

; 1727 :         goto process_entry_error;

  00527	e9 a0 04 00 00	 jmp	 $process_entry_error$61
$LN24@parse_ctlf:

; 1728 :     }
; 1729 : 
; 1730 :     if (!fm)

  0052c	48 83 bc 24 88
	00 00 00 00	 cmp	 QWORD PTR fm$[rsp], 0
  00535	75 11		 jne	 SHORT $LN25@parse_ctlf

; 1731 :     {
; 1732 :         msg = "File mode missing";

  00537	48 8d 05 00 00
	00 00		 lea	 rax, OFFSET FLAT:$SG170361
  0053e	48 89 44 24 58	 mov	 QWORD PTR msg$[rsp], rax

; 1733 :         goto process_entry_error;

  00543	e9 84 04 00 00	 jmp	 $process_entry_error$61
$LN25@parse_ctlf:

; 1734 :     }
; 1735 : 
; 1736 :     strupper( fn, fn );

  00548	48 8b 54 24 70	 mov	 rdx, QWORD PTR fn$[rsp]
  0054d	48 8b 4c 24 70	 mov	 rcx, QWORD PTR fn$[rsp]
  00552	e8 00 00 00 00	 call	 strupper

; 1737 :     strupper( ft, ft );

  00557	48 8b 94 24 80
	00 00 00	 mov	 rdx, QWORD PTR ft$[rsp]
  0055f	48 8b 8c 24 80
	00 00 00	 mov	 rcx, QWORD PTR ft$[rsp]
  00567	e8 00 00 00 00	 call	 strupper

; 1738 :     strupper( fm, fm );

  0056c	48 8b 94 24 88
	00 00 00	 mov	 rdx, QWORD PTR fm$[rsp]
  00574	48 8b 8c 24 88
	00 00 00	 mov	 rcx, QWORD PTR fm$[rsp]
  0057c	e8 00 00 00 00	 call	 strupper

; 1739 : 
; 1740 :     if ((msg = validate_cmsfile( fn, ft, fm )) != NULL)

  00581	4c 8b 84 24 88
	00 00 00	 mov	 r8, QWORD PTR fm$[rsp]
  00589	48 8b 94 24 80
	00 00 00	 mov	 rdx, QWORD PTR ft$[rsp]
  00591	48 8b 4c 24 70	 mov	 rcx, QWORD PTR fn$[rsp]
  00596	e8 00 00 00 00	 call	 validate_cmsfile
  0059b	48 89 44 24 58	 mov	 QWORD PTR msg$[rsp], rax
  005a0	48 83 7c 24 58
	00		 cmp	 QWORD PTR msg$[rsp], 0
  005a6	74 05		 je	 SHORT $LN26@parse_ctlf

; 1741 :         goto process_entry_error;

  005a8	e9 1f 04 00 00	 jmp	 $process_entry_error$61
$LN26@parse_ctlf:

; 1742 : 
; 1743 :     if (!recfm)

  005ad	48 83 7c 24 78
	00		 cmp	 QWORD PTR recfm$[rsp], 0
  005b3	75 11		 jne	 SHORT $LN27@parse_ctlf

; 1744 :     {
; 1745 :         msg = "Record format missing";

  005b5	48 8d 05 00 00
	00 00		 lea	 rax, OFFSET FLAT:$SG170364
  005bc	48 89 44 24 58	 mov	 QWORD PTR msg$[rsp], rax

; 1746 :         goto process_entry_error;

  005c1	e9 06 04 00 00	 jmp	 $process_entry_error$61
$LN27@parse_ctlf:

; 1747 :     }
; 1748 : 
; 1749 :     if (1
; 1750 :         && !CMD( recfm, FIXED,    1 )
; 1751 :         && !CMD( recfm, VARIABLE, 1 )

  005c6	33 c0		 xor	 eax, eax
  005c8	83 f8 01	 cmp	 eax, 1
  005cb	74 47		 je	 SHORT $LN28@parse_ctlf
  005cd	41 b8 01 00 00
	00		 mov	 r8d, 1
  005d3	48 8b 54 24 78	 mov	 rdx, QWORD PTR recfm$[rsp]
  005d8	48 8d 0d 00 00
	00 00		 lea	 rcx, OFFSET FLAT:$SG170366
  005df	e8 00 00 00 00	 call	 strcaseabbrev
  005e4	85 c0		 test	 eax, eax
  005e6	75 2c		 jne	 SHORT $LN28@parse_ctlf
  005e8	41 b8 01 00 00
	00		 mov	 r8d, 1
  005ee	48 8b 54 24 78	 mov	 rdx, QWORD PTR recfm$[rsp]
  005f3	48 8d 0d 00 00
	00 00		 lea	 rcx, OFFSET FLAT:$SG170367
  005fa	e8 00 00 00 00	 call	 strcaseabbrev
  005ff	85 c0		 test	 eax, eax
  00601	75 11		 jne	 SHORT $LN28@parse_ctlf

; 1752 :     )
; 1753 :     {
; 1754 :         msg = "Record format must be 'F'ixed or 'V'ariable";

  00603	48 8d 05 00 00
	00 00		 lea	 rax, OFFSET FLAT:$SG170368
  0060a	48 89 44 24 58	 mov	 QWORD PTR msg$[rsp], rax

; 1755 :         goto process_entry_error;

  0060f	e9 b8 03 00 00	 jmp	 $process_entry_error$61
$LN28@parse_ctlf:

; 1756 :     }
; 1757 : 
; 1758 :     /* For recfm 'V'ariable files the lrecl should not be specified. */
; 1759 :     if (recfm[0] == 'V')

  00614	b8 01 00 00 00	 mov	 eax, 1
  00619	48 6b c0 00	 imul	 rax, rax, 0
  0061d	48 8b 4c 24 78	 mov	 rcx, QWORD PTR recfm$[rsp]
  00622	0f be 04 01	 movsx	 eax, BYTE PTR [rcx+rax]
  00626	83 f8 56	 cmp	 eax, 86			; 00000056H
  00629	75 27		 jne	 SHORT $LN29@parse_ctlf

; 1760 :     {
; 1761 :         infile  = filefmt;

  0062b	48 8b 44 24 60	 mov	 rax, QWORD PTR filefmt$[rsp]
  00630	48 89 84 24 a0
	00 00 00	 mov	 QWORD PTR infile$[rsp], rax

; 1762 :         filefmt = lrecl;

  00638	48 8b 84 24 98
	00 00 00	 mov	 rax, QWORD PTR lrecl$[rsp]
  00640	48 89 44 24 60	 mov	 QWORD PTR filefmt$[rsp], rax

; 1763 :         reclen  = 0;     // (recln meaningless for recfm V = variable)

  00645	c7 44 24 68 00
	00 00 00	 mov	 DWORD PTR reclen$[rsp], 0

; 1764 :     }

  0064d	e9 bb 00 00 00	 jmp	 $LN30@parse_ctlf
$LN29@parse_ctlf:

; 1765 :     else /* (recfm[0]) */
; 1766 :     {
; 1767 :         if (!lrecl)

  00652	48 83 bc 24 98
	00 00 00 00	 cmp	 QWORD PTR lrecl$[rsp], 0
  0065b	75 11		 jne	 SHORT $LN31@parse_ctlf

; 1768 :         {
; 1769 :             msg = "Logical Record Length missing for 'F'ixed record format file";

  0065d	48 8d 05 00 00
	00 00		 lea	 rax, OFFSET FLAT:$SG170372
  00664	48 89 44 24 58	 mov	 QWORD PTR msg$[rsp], rax

; 1770 :             goto process_entry_error;

  00669	e9 5e 03 00 00	 jmp	 $process_entry_error$61
$LN31@parse_ctlf:

; 1771 :         }
; 1772 : 
; 1773 :         errno  = 0;

  0066e	ff 15 00 00 00
	00		 call	 QWORD PTR __imp__errno
  00674	c7 00 00 00 00
	00		 mov	 DWORD PTR [rax], 0

; 1774 :         reclen = strtoul( lrecl, &endptr, 0 );

  0067a	45 33 c0	 xor	 r8d, r8d
  0067d	48 8d 94 24 f8
	00 00 00	 lea	 rdx, QWORD PTR endptr$[rsp]
  00685	48 8b 8c 24 98
	00 00 00	 mov	 rcx, QWORD PTR lrecl$[rsp]
  0068d	ff 15 00 00 00
	00		 call	 QWORD PTR __imp_strtoul
  00693	89 44 24 68	 mov	 DWORD PTR reclen$[rsp], eax

; 1775 : 
; 1776 :         if (errno || endptr[0] != 0)

  00697	ff 15 00 00 00
	00		 call	 QWORD PTR __imp__errno
  0069d	83 38 00	 cmp	 DWORD PTR [rax], 0
  006a0	75 19		 jne	 SHORT $LN33@parse_ctlf
  006a2	b8 01 00 00 00	 mov	 eax, 1
  006a7	48 6b c0 00	 imul	 rax, rax, 0
  006ab	48 8b 8c 24 f8
	00 00 00	 mov	 rcx, QWORD PTR endptr$[rsp]
  006b3	0f be 04 01	 movsx	 eax, BYTE PTR [rcx+rax]
  006b7	85 c0		 test	 eax, eax
  006b9	74 11		 je	 SHORT $LN32@parse_ctlf
$LN33@parse_ctlf:

; 1777 :         {
; 1778 :             msg = "Logical Record Length must be a numeric value";

  006bb	48 8d 05 00 00
	00 00		 lea	 rax, OFFSET FLAT:$SG170375
  006c2	48 89 44 24 58	 mov	 QWORD PTR msg$[rsp], rax

; 1779 :             goto process_entry_error;

  006c7	e9 00 03 00 00	 jmp	 $process_entry_error$61
$LN32@parse_ctlf:

; 1780 :         }
; 1781 : 
; 1782 :         if (reclen < 1 || reclen >= MAX_PLC2_BLKSIZE)

  006cc	83 7c 24 68 01	 cmp	 DWORD PTR reclen$[rsp], 1
  006d1	7c 0a		 jl	 SHORT $LN35@parse_ctlf
  006d3	81 7c 24 68 ff
	ff 00 00	 cmp	 DWORD PTR reclen$[rsp], 65535 ; 0000ffffH
  006db	7c 30		 jl	 SHORT $LN34@parse_ctlf
$LN35@parse_ctlf:

; 1783 :         {
; 1784 :             static char buf[64];
; 1785 :             MSGBUF( buf, "Logical Record Length must be between 1 and %u",

  006dd	41 b9 ff ff 00
	00		 mov	 r9d, 65535		; 0000ffffH
  006e3	4c 8d 05 00 00
	00 00		 lea	 r8, OFFSET FLAT:$SG170378
  006ea	ba 40 00 00 00	 mov	 edx, 64			; 00000040H
  006ef	48 8d 0d 00 00
	00 00		 lea	 rcx, OFFSET FLAT:?buf@?BE@??parse_ctlfile_stmt@@9@9
  006f6	ff 15 00 00 00
	00		 call	 QWORD PTR __imp_w32_snprintf

; 1786 :                 MAX_PLC2_BLKSIZE );
; 1787 :             msg = buf;

  006fc	48 8d 05 00 00
	00 00		 lea	 rax, OFFSET FLAT:?buf@?BE@??parse_ctlfile_stmt@@9@9
  00703	48 89 44 24 58	 mov	 QWORD PTR msg$[rsp], rax

; 1788 :             goto process_entry_error;

  00708	e9 bf 02 00 00	 jmp	 $process_entry_error$61
$LN34@parse_ctlf:
$LN30@parse_ctlf:

; 1789 :         }
; 1790 :     }
; 1791 : 
; 1792 :     if (!filefmt)

  0070d	48 83 7c 24 60
	00		 cmp	 QWORD PTR filefmt$[rsp], 0
  00713	75 11		 jne	 SHORT $LN36@parse_ctlf

; 1793 :     {
; 1794 :         msg = "File format is missing";

  00715	48 8d 05 00 00
	00 00		 lea	 rax, OFFSET FLAT:$SG170380
  0071c	48 89 44 24 58	 mov	 QWORD PTR msg$[rsp], rax

; 1795 :         goto process_entry_error;

  00721	e9 a6 02 00 00	 jmp	 $process_entry_error$61
$LN36@parse_ctlf:

; 1796 :     }
; 1797 : 
; 1798 :     if (1
; 1799 :         && !CMD( filefmt, BINARY,     1 )
; 1800 :         && !CMD( filefmt, TEXTUAL,    1 )
; 1801 :         && !CMD( filefmt, TXT,        1 )
; 1802 :         && !CMD( filefmt, STRUCTURED, 1 )

  00726	33 c0		 xor	 eax, eax
  00728	83 f8 01	 cmp	 eax, 1
  0072b	74 7d		 je	 SHORT $LN37@parse_ctlf
  0072d	41 b8 01 00 00
	00		 mov	 r8d, 1
  00733	48 8b 54 24 60	 mov	 rdx, QWORD PTR filefmt$[rsp]
  00738	48 8d 0d 00 00
	00 00		 lea	 rcx, OFFSET FLAT:$SG170382
  0073f	e8 00 00 00 00	 call	 strcaseabbrev
  00744	85 c0		 test	 eax, eax
  00746	75 62		 jne	 SHORT $LN37@parse_ctlf
  00748	41 b8 01 00 00
	00		 mov	 r8d, 1
  0074e	48 8b 54 24 60	 mov	 rdx, QWORD PTR filefmt$[rsp]
  00753	48 8d 0d 00 00
	00 00		 lea	 rcx, OFFSET FLAT:$SG170383
  0075a	e8 00 00 00 00	 call	 strcaseabbrev
  0075f	85 c0		 test	 eax, eax
  00761	75 47		 jne	 SHORT $LN37@parse_ctlf
  00763	41 b8 01 00 00
	00		 mov	 r8d, 1
  00769	48 8b 54 24 60	 mov	 rdx, QWORD PTR filefmt$[rsp]
  0076e	48 8d 0d 00 00
	00 00		 lea	 rcx, OFFSET FLAT:$SG170384
  00775	e8 00 00 00 00	 call	 strcaseabbrev
  0077a	85 c0		 test	 eax, eax
  0077c	75 2c		 jne	 SHORT $LN37@parse_ctlf
  0077e	41 b8 01 00 00
	00		 mov	 r8d, 1
  00784	48 8b 54 24 60	 mov	 rdx, QWORD PTR filefmt$[rsp]
  00789	48 8d 0d 00 00
	00 00		 lea	 rcx, OFFSET FLAT:$SG170385
  00790	e8 00 00 00 00	 call	 strcaseabbrev
  00795	85 c0		 test	 eax, eax
  00797	75 11		 jne	 SHORT $LN37@parse_ctlf

; 1803 :     )
; 1804 :     {
; 1805 :         msg = "File format must be either 'B'inary, 'T'extual or 'S'tructured";

  00799	48 8d 05 00 00
	00 00		 lea	 rax, OFFSET FLAT:$SG170386
  007a0	48 89 44 24 58	 mov	 QWORD PTR msg$[rsp], rax

; 1806 :         goto process_entry_error;

  007a5	e9 22 02 00 00	 jmp	 $process_entry_error$61
$LN37@parse_ctlf:

; 1807 :     }
; 1808 : 
; 1809 :     if (!infile)

  007aa	48 83 bc 24 a0
	00 00 00 00	 cmp	 QWORD PTR infile$[rsp], 0
  007b3	75 11		 jne	 SHORT $LN38@parse_ctlf

; 1810 :     {
; 1811 :         msg = "Input file name missing";

  007b5	48 8d 05 00 00
	00 00		 lea	 rax, OFFSET FLAT:$SG170388
  007bc	48 89 44 24 58	 mov	 QWORD PTR msg$[rsp], rax

; 1812 :         goto process_entry_error;

  007c1	e9 06 02 00 00	 jmp	 $process_entry_error$61
$LN38@parse_ctlf:

; 1813 :     }
; 1814 : 
; 1815 :     /* Structured files are only for RECFM V for the time being */
; 1816 :     if (filefmt[0] == 'S' && recfm[0] != 'V')

  007c6	b8 01 00 00 00	 mov	 eax, 1
  007cb	48 6b c0 00	 imul	 rax, rax, 0
  007cf	48 8b 4c 24 60	 mov	 rcx, QWORD PTR filefmt$[rsp]
  007d4	0f be 04 01	 movsx	 eax, BYTE PTR [rcx+rax]
  007d8	83 f8 53	 cmp	 eax, 83			; 00000053H
  007db	75 28		 jne	 SHORT $LN39@parse_ctlf
  007dd	b8 01 00 00 00	 mov	 eax, 1
  007e2	48 6b c0 00	 imul	 rax, rax, 0
  007e6	48 8b 4c 24 78	 mov	 rcx, QWORD PTR recfm$[rsp]
  007eb	0f be 04 01	 movsx	 eax, BYTE PTR [rcx+rax]
  007ef	83 f8 56	 cmp	 eax, 86			; 00000056H
  007f2	74 11		 je	 SHORT $LN39@parse_ctlf

; 1817 :     {
; 1818 :         msg = "Dumping structured input to anything other than RECFM V is not supported";

  007f4	48 8d 05 00 00
	00 00		 lea	 rax, OFFSET FLAT:$SG170390
  007fb	48 89 44 24 58	 mov	 QWORD PTR msg$[rsp], rax

; 1819 :         goto process_entry_error;

  00800	e9 c7 01 00 00	 jmp	 $process_entry_error$61
$LN39@parse_ctlf:

; 1820 :     }
; 1821 : 
; 1822 :     /* If 'DUMP'ing, verify host file exists */
; 1823 :     if (1
; 1824 :         && DUMP_VERB == opts->verb
; 1825 :         && (rc = stat( infile, &stt )) != 0

  00805	33 c0		 xor	 eax, eax
  00807	83 f8 01	 cmp	 eax, 1
  0080a	74 4f		 je	 SHORT $LN40@parse_ctlf
  0080c	48 8b 84 24 a0
	21 00 00	 mov	 rax, QWORD PTR opts$[rsp]
  00814	0f b6 40 1d	 movzx	 eax, BYTE PTR [rax+29]
  00818	85 c0		 test	 eax, eax
  0081a	75 3f		 jne	 SHORT $LN40@parse_ctlf
  0081c	48 8d 94 24 40
	01 00 00	 lea	 rdx, QWORD PTR stt$[rsp]
  00824	48 8b 8c 24 a0
	00 00 00	 mov	 rcx, QWORD PTR infile$[rsp]
  0082c	ff 15 00 00 00
	00		 call	 QWORD PTR __imp__stat64
  00832	89 84 24 b0 00
	00 00		 mov	 DWORD PTR rc$[rsp], eax
  00839	83 bc 24 b0 00
	00 00 00	 cmp	 DWORD PTR rc$[rsp], 0
  00841	74 18		 je	 SHORT $LN40@parse_ctlf

; 1826 :     )
; 1827 :     {
; 1828 :         msg = strerror( errno );

  00843	ff 15 00 00 00
	00		 call	 QWORD PTR __imp__errno
  00849	8b 08		 mov	 ecx, DWORD PTR [rax]
  0084b	ff 15 00 00 00
	00		 call	 QWORD PTR __imp_w32_strerror
  00851	48 89 44 24 58	 mov	 QWORD PTR msg$[rsp], rax

; 1829 :         goto process_entry_error;

  00856	e9 71 01 00 00	 jmp	 $process_entry_error$61
$LN40@parse_ctlf:

; 1830 :     }
; 1831 : 
; 1832 :     /* Add this entry to the table */
; 1833 :     ctl.orec     = strdup( orec );

  0085b	48 8b 8c 24 a8
	21 00 00	 mov	 rcx, QWORD PTR orec$[rsp]
  00863	ff 15 00 00 00
	00		 call	 QWORD PTR __imp_strdup
  00869	48 89 84 24 00
	01 00 00	 mov	 QWORD PTR ctl$[rsp], rax

; 1834 :     ctl.codepage = strdup( codepage );

  00871	48 8b 8c 24 90
	00 00 00	 mov	 rcx, QWORD PTR codepage$[rsp]
  00879	ff 15 00 00 00
	00		 call	 QWORD PTR __imp_strdup
  0087f	48 89 84 24 08
	01 00 00	 mov	 QWORD PTR ctl$[rsp+8], rax

; 1835 :     ctl.fn       = strdup( fn );

  00887	48 8b 4c 24 70	 mov	 rcx, QWORD PTR fn$[rsp]
  0088c	ff 15 00 00 00
	00		 call	 QWORD PTR __imp_strdup
  00892	48 89 84 24 10
	01 00 00	 mov	 QWORD PTR ctl$[rsp+16], rax

; 1836 :     ctl.ft       = strdup( ft );

  0089a	48 8b 8c 24 80
	00 00 00	 mov	 rcx, QWORD PTR ft$[rsp]
  008a2	ff 15 00 00 00
	00		 call	 QWORD PTR __imp_strdup
  008a8	48 89 84 24 18
	01 00 00	 mov	 QWORD PTR ctl$[rsp+24], rax

; 1837 :     ctl.fm       = strdup( fm );

  008b0	48 8b 8c 24 88
	00 00 00	 mov	 rcx, QWORD PTR fm$[rsp]
  008b8	ff 15 00 00 00
	00		 call	 QWORD PTR __imp_strdup
  008be	48 89 84 24 20
	01 00 00	 mov	 QWORD PTR ctl$[rsp+32], rax

; 1838 :     ctl.hostfile = strdup( infile );

  008c6	48 8b 8c 24 a0
	00 00 00	 mov	 rcx, QWORD PTR infile$[rsp]
  008ce	ff 15 00 00 00
	00		 call	 QWORD PTR __imp_strdup
  008d4	48 89 84 24 28
	01 00 00	 mov	 QWORD PTR ctl$[rsp+40], rax

; 1839 :     ctl.mtime    = stt.st_mtime;

  008dc	48 8b 84 24 68
	01 00 00	 mov	 rax, QWORD PTR stt$[rsp+40]
  008e4	48 89 84 24 30
	01 00 00	 mov	 QWORD PTR ctl$[rsp+48], rax

; 1840 :     ctl.reclen   = reclen;

  008ec	8b 44 24 68	 mov	 eax, DWORD PTR reclen$[rsp]
  008f0	89 84 24 38 01
	00 00		 mov	 DWORD PTR ctl$[rsp+56], eax

; 1841 :     ctl.recfm    = toupper( recfm  [0] );

  008f7	b8 01 00 00 00	 mov	 eax, 1
  008fc	48 6b c0 00	 imul	 rax, rax, 0
  00900	48 8b 4c 24 78	 mov	 rcx, QWORD PTR recfm$[rsp]
  00905	0f be 04 01	 movsx	 eax, BYTE PTR [rcx+rax]
  00909	8b c8		 mov	 ecx, eax
  0090b	ff 15 00 00 00
	00		 call	 QWORD PTR __imp_toupper
  00911	88 84 24 3c 01
	00 00		 mov	 BYTE PTR ctl$[rsp+60], al

; 1842 :     ctl.filefmt  = toupper( filefmt[0] );

  00918	b8 01 00 00 00	 mov	 eax, 1
  0091d	48 6b c0 00	 imul	 rax, rax, 0
  00921	48 8b 4c 24 60	 mov	 rcx, QWORD PTR filefmt$[rsp]
  00926	0f be 04 01	 movsx	 eax, BYTE PTR [rcx+rax]
  0092a	8b c8		 mov	 ecx, eax
  0092c	ff 15 00 00 00
	00		 call	 QWORD PTR __imp_toupper
  00932	88 84 24 3d 01
	00 00		 mov	 BYTE PTR ctl$[rsp+61], al

; 1843 :     ctl.loaded   = false;

  00939	c6 84 24 3e 01
	00 00 00	 mov	 BYTE PTR ctl$[rsp+62], 0
$LN10@parse_ctlf:

; 1844 : 
; 1845 :     VERIFY( add_ctltab_entry( &ctl ));

  00941	48 8d 8c 24 00
	01 00 00	 lea	 rcx, QWORD PTR ctl$[rsp]
  00949	e8 00 00 00 00	 call	 add_ctltab_entry
  0094e	0f b6 c0	 movzx	 eax, al
  00951	85 c0		 test	 eax, eax
  00953	75 5c		 jne	 SHORT $LN41@parse_ctlf
$LN13@parse_ctlf:
  00955	4c 8d 0d 00 00
	00 00		 lea	 r9, OFFSET FLAT:$SG170393
  0095c	41 b8 35 07 00
	00		 mov	 r8d, 1845		; 00000735H
  00962	48 8d 15 00 00
	00 00		 lea	 rdx, OFFSET FLAT:$SG170394
  00969	48 8d 0d 00 00
	00 00		 lea	 rcx, OFFSET FLAT:$SG170395
  00970	ff 15 00 00 00
	00		 call	 QWORD PTR __imp_logmsg
  00976	ff 15 00 00 00
	00		 call	 QWORD PTR __imp_IsDebuggerPresent
  0097c	85 c0		 test	 eax, eax
  0097e	74 20		 je	 SHORT $LN42@parse_ctlf
  00980	4c 8d 0d 00 00
	00 00		 lea	 r9, OFFSET FLAT:$SG170397
  00987	41 b8 35 07 00
	00		 mov	 r8d, 1845		; 00000735H
  0098d	48 8d 15 00 00
	00 00		 lea	 rdx, OFFSET FLAT:$SG170398
  00994	48 8d 0d 00 00
	00 00		 lea	 rcx, OFFSET FLAT:$SG170399
  0099b	e8 00 00 00 00	 call	 DebuggerTrace
$LN42@parse_ctlf:
  009a0	33 c0		 xor	 eax, eax
  009a2	85 c0		 test	 eax, eax
  009a4	75 af		 jne	 SHORT $LN13@parse_ctlf
  009a6	ff 15 00 00 00
	00		 call	 QWORD PTR __imp_IsDebuggerPresent
  009ac	85 c0		 test	 eax, eax
  009ae	74 01		 je	 SHORT $LN43@parse_ctlf
  009b0	cc		 int	 3
$LN43@parse_ctlf:
$LN41@parse_ctlf:
  009b1	33 c0		 xor	 eax, eax
  009b3	85 c0		 test	 eax, eax
  009b5	75 8a		 jne	 SHORT $LN10@parse_ctlf

; 1846 : 
; 1847 :     free( rec );

  009b7	48 8b 8c 24 a8
	00 00 00	 mov	 rcx, QWORD PTR rec$[rsp]
  009bf	ff 15 00 00 00
	00		 call	 QWORD PTR __imp_free

; 1848 :     return 0;

  009c5	33 c0		 xor	 eax, eax
  009c7	e9 1b 01 00 00	 jmp	 $LN1@parse_ctlf
$process_entry_error$61:

; 1849 : 
; 1850 : process_entry_error:
; 1851 : 
; 1852 :     // ">>> %s"
; 1853 :     // "    Bad entry at line %d in file \"%s\""
; 1854 :     // "    %s"
; 1855 : 
; 1856 :     FWRMSG( stderr, HHC02626, "E", orec );

  009cc	b9 02 00 00 00	 mov	 ecx, 2
  009d1	ff 15 00 00 00
	00		 call	 QWORD PTR __imp___acrt_iob_func
  009d7	48 8b 8c 24 a8
	21 00 00	 mov	 rcx, QWORD PTR orec$[rsp]
  009df	48 89 4c 24 38	 mov	 QWORD PTR [rsp+56], rcx
  009e4	48 8d 0d 00 00
	00 00		 lea	 rcx, OFFSET FLAT:$SG170401
  009eb	48 89 4c 24 30	 mov	 QWORD PTR [rsp+48], rcx
  009f0	48 8d 0d 00 00
	00 00		 lea	 rcx, OFFSET FLAT:$SG170402
  009f7	48 89 4c 24 28	 mov	 QWORD PTR [rsp+40], rcx
  009fc	48 89 44 24 20	 mov	 QWORD PTR [rsp+32], rax
  00a01	41 b9 03 00 00
	00		 mov	 r9d, 3
  00a07	4c 8d 05 00 00
	00 00		 lea	 r8, OFFSET FLAT:$SG170403
  00a0e	ba 40 07 00 00	 mov	 edx, 1856		; 00000740H
  00a13	48 8d 0d 00 00
	00 00		 lea	 rcx, OFFSET FLAT:$SG170404
  00a1a	ff 15 00 00 00
	00		 call	 QWORD PTR __imp_fwritemsg

; 1857 :     FWRMSG( stderr, HHC02632, "E", recno, opts->ctlfile );

  00a20	b9 02 00 00 00	 mov	 ecx, 2
  00a25	ff 15 00 00 00
	00		 call	 QWORD PTR __imp___acrt_iob_func
  00a2b	48 8b 8c 24 a0
	21 00 00	 mov	 rcx, QWORD PTR opts$[rsp]
  00a33	48 8b 49 08	 mov	 rcx, QWORD PTR [rcx+8]
  00a37	48 89 4c 24 40	 mov	 QWORD PTR [rsp+64], rcx
  00a3c	8b 8c 24 b0 21
	00 00		 mov	 ecx, DWORD PTR recno$[rsp]
  00a43	89 4c 24 38	 mov	 DWORD PTR [rsp+56], ecx
  00a47	48 8d 0d 00 00
	00 00		 lea	 rcx, OFFSET FLAT:$SG170405
  00a4e	48 89 4c 24 30	 mov	 QWORD PTR [rsp+48], rcx
  00a53	48 8d 0d 00 00
	00 00		 lea	 rcx, OFFSET FLAT:$SG170406
  00a5a	48 89 4c 24 28	 mov	 QWORD PTR [rsp+40], rcx
  00a5f	48 89 44 24 20	 mov	 QWORD PTR [rsp+32], rax
  00a64	41 b9 03 00 00
	00		 mov	 r9d, 3
  00a6a	4c 8d 05 00 00
	00 00		 lea	 r8, OFFSET FLAT:$SG170407
  00a71	ba 41 07 00 00	 mov	 edx, 1857		; 00000741H
  00a76	48 8d 0d 00 00
	00 00		 lea	 rcx, OFFSET FLAT:$SG170408
  00a7d	ff 15 00 00 00
	00		 call	 QWORD PTR __imp_fwritemsg

; 1858 :     FWRMSG( stderr, HHC02633, "E", msg );

  00a83	b9 02 00 00 00	 mov	 ecx, 2
  00a88	ff 15 00 00 00
	00		 call	 QWORD PTR __imp___acrt_iob_func
  00a8e	48 8b 4c 24 58	 mov	 rcx, QWORD PTR msg$[rsp]
  00a93	48 89 4c 24 38	 mov	 QWORD PTR [rsp+56], rcx
  00a98	48 8d 0d 00 00
	00 00		 lea	 rcx, OFFSET FLAT:$SG170409
  00a9f	48 89 4c 24 30	 mov	 QWORD PTR [rsp+48], rcx
  00aa4	48 8d 0d 00 00
	00 00		 lea	 rcx, OFFSET FLAT:$SG170410
  00aab	48 89 4c 24 28	 mov	 QWORD PTR [rsp+40], rcx
  00ab0	48 89 44 24 20	 mov	 QWORD PTR [rsp+32], rax
  00ab5	41 b9 03 00 00
	00		 mov	 r9d, 3
  00abb	4c 8d 05 00 00
	00 00		 lea	 r8, OFFSET FLAT:$SG170411
  00ac2	ba 42 07 00 00	 mov	 edx, 1858		; 00000742H
  00ac7	48 8d 0d 00 00
	00 00		 lea	 rcx, OFFSET FLAT:$SG170412
  00ace	ff 15 00 00 00
	00		 call	 QWORD PTR __imp_fwritemsg

; 1859 : 
; 1860 :     free( rec );

  00ad4	48 8b 8c 24 a8
	00 00 00	 mov	 rcx, QWORD PTR rec$[rsp]
  00adc	ff 15 00 00 00
	00		 call	 QWORD PTR __imp_free

; 1861 :     return -1;

  00ae2	b8 ff ff ff ff	 mov	 eax, -1
$LN1@parse_ctlf:

; 1862 : }

  00ae7	48 8b 8c 24 80
	21 00 00	 mov	 rcx, QWORD PTR __$ArrayPad$[rsp]
  00aef	48 33 cc	 xor	 rcx, rsp
  00af2	e8 00 00 00 00	 call	 __security_check_cookie
  00af7	48 81 c4 90 21
	00 00		 add	 rsp, 8592		; 00002190H
  00afe	5f		 pop	 rdi
  00aff	c3		 ret	 0
parse_ctlfile_stmt ENDP
_TEXT	ENDS
; Function compile flags: /Odtp
; File C:\papa\MyGit\hyperion-zvector\vmfplc2.c
_TEXT	SEGMENT
i$ = 32
fn$ = 64
ft$ = 72
recfm$ = 80
find_ctltab_entry PROC

; 1624 : {

  00000	44 88 44 24 18	 mov	 BYTE PTR [rsp+24], r8b
  00005	48 89 54 24 10	 mov	 QWORD PTR [rsp+16], rdx
  0000a	48 89 4c 24 08	 mov	 QWORD PTR [rsp+8], rcx
  0000f	48 83 ec 38	 sub	 rsp, 56			; 00000038H

; 1625 :     int  i;
; 1626 :     for (i=0; i < numctl; i++)

  00013	c7 44 24 20 00
	00 00 00	 mov	 DWORD PTR i$[rsp], 0
  0001b	eb 0a		 jmp	 SHORT $LN4@find_ctlta
$LN2@find_ctlta:
  0001d	8b 44 24 20	 mov	 eax, DWORD PTR i$[rsp]
  00021	ff c0		 inc	 eax
  00023	89 44 24 20	 mov	 DWORD PTR i$[rsp], eax
$LN4@find_ctlta:
  00027	8b 05 00 00 00
	00		 mov	 eax, DWORD PTR numctl
  0002d	39 44 24 20	 cmp	 DWORD PTR i$[rsp], eax
  00031	0f 8d d1 00 00
	00		 jge	 $LN3@find_ctlta

; 1627 :         if (1
; 1628 :             && strcasecmp( ctltab[i].fn,    "@TM"   ) != 0  // not tapemark entry
; 1629 :             && strcasecmp( ctltab[i].fn,      fn    ) == 0  // file name matches
; 1630 :             && strcasecmp( ctltab[i].ft,      ft    ) == 0  // file type matches
; 1631 :             &&             ctltab[i].recfm == recfm         // recfm matches
; 1632 :             &&            !ctltab[i].loaded                 // not already loaded

  00037	33 c0		 xor	 eax, eax
  00039	83 f8 01	 cmp	 eax, 1
  0003c	0f 84 c1 00 00
	00		 je	 $LN5@find_ctlta
  00042	48 63 44 24 20	 movsxd	 rax, DWORD PTR i$[rsp]
  00047	48 6b c0 40	 imul	 rax, rax, 64		; 00000040H
  0004b	48 8d 15 00 00
	00 00		 lea	 rdx, OFFSET FLAT:$SG170273
  00052	48 8b 0d 00 00
	00 00		 mov	 rcx, QWORD PTR ctltab
  00059	48 8b 4c 01 10	 mov	 rcx, QWORD PTR [rcx+rax+16]
  0005e	ff 15 00 00 00
	00		 call	 QWORD PTR __imp__stricmp
  00064	85 c0		 test	 eax, eax
  00066	0f 84 97 00 00
	00		 je	 $LN5@find_ctlta
  0006c	48 63 44 24 20	 movsxd	 rax, DWORD PTR i$[rsp]
  00071	48 6b c0 40	 imul	 rax, rax, 64		; 00000040H
  00075	48 8b 54 24 40	 mov	 rdx, QWORD PTR fn$[rsp]
  0007a	48 8b 0d 00 00
	00 00		 mov	 rcx, QWORD PTR ctltab
  00081	48 8b 4c 01 10	 mov	 rcx, QWORD PTR [rcx+rax+16]
  00086	ff 15 00 00 00
	00		 call	 QWORD PTR __imp__stricmp
  0008c	85 c0		 test	 eax, eax
  0008e	75 73		 jne	 SHORT $LN5@find_ctlta
  00090	48 63 44 24 20	 movsxd	 rax, DWORD PTR i$[rsp]
  00095	48 6b c0 40	 imul	 rax, rax, 64		; 00000040H
  00099	48 8b 54 24 48	 mov	 rdx, QWORD PTR ft$[rsp]
  0009e	48 8b 0d 00 00
	00 00		 mov	 rcx, QWORD PTR ctltab
  000a5	48 8b 4c 01 18	 mov	 rcx, QWORD PTR [rcx+rax+24]
  000aa	ff 15 00 00 00
	00		 call	 QWORD PTR __imp__stricmp
  000b0	85 c0		 test	 eax, eax
  000b2	75 4f		 jne	 SHORT $LN5@find_ctlta
  000b4	48 63 44 24 20	 movsxd	 rax, DWORD PTR i$[rsp]
  000b9	48 6b c0 40	 imul	 rax, rax, 64		; 00000040H
  000bd	48 8b 0d 00 00
	00 00		 mov	 rcx, QWORD PTR ctltab
  000c4	0f be 44 01 3c	 movsx	 eax, BYTE PTR [rcx+rax+60]
  000c9	0f be 4c 24 50	 movsx	 ecx, BYTE PTR recfm$[rsp]
  000ce	3b c1		 cmp	 eax, ecx
  000d0	75 31		 jne	 SHORT $LN5@find_ctlta
  000d2	48 63 44 24 20	 movsxd	 rax, DWORD PTR i$[rsp]
  000d7	48 6b c0 40	 imul	 rax, rax, 64		; 00000040H
  000db	48 8b 0d 00 00
	00 00		 mov	 rcx, QWORD PTR ctltab
  000e2	0f b6 44 01 3e	 movzx	 eax, BYTE PTR [rcx+rax+62]
  000e7	85 c0		 test	 eax, eax
  000e9	75 18		 jne	 SHORT $LN5@find_ctlta

; 1633 :         )
; 1634 :             return &ctltab[i];  // (found)

  000eb	48 63 44 24 20	 movsxd	 rax, DWORD PTR i$[rsp]
  000f0	48 6b c0 40	 imul	 rax, rax, 64		; 00000040H
  000f4	48 8b 0d 00 00
	00 00		 mov	 rcx, QWORD PTR ctltab
  000fb	48 03 c8	 add	 rcx, rax
  000fe	48 8b c1	 mov	 rax, rcx
  00101	eb 07		 jmp	 SHORT $LN1@find_ctlta
$LN5@find_ctlta:
  00103	e9 15 ff ff ff	 jmp	 $LN2@find_ctlta
$LN3@find_ctlta:

; 1635 :     return NULL;                // (not found)

  00108	33 c0		 xor	 eax, eax
$LN1@find_ctlta:

; 1636 : }

  0010a	48 83 c4 38	 add	 rsp, 56			; 00000038H
  0010e	c3		 ret	 0
find_ctltab_entry ENDP
_TEXT	ENDS
; Function compile flags: /Odtp
; File C:\papa\MyGit\hyperion-zvector\vmfplc2.c
_TEXT	SEGMENT
num$ = 32
tab$ = 40
ctl$ = 80
add_ctltab_entry PROC

; 1604 : {

  00000	48 89 4c 24 08	 mov	 QWORD PTR [rsp+8], rcx
  00005	56		 push	 rsi
  00006	57		 push	 rdi
  00007	48 83 ec 38	 sub	 rsp, 56			; 00000038H

; 1605 :     CTLTAB* tab;
; 1606 :     int     num;
; 1607 : 
; 1608 :     /* Make room for new entry */
; 1609 :     if (!(tab = realloc( ctltab, sizeof( CTLTAB ) * (num = numctl + 1))))

  0000b	8b 05 00 00 00
	00		 mov	 eax, DWORD PTR numctl
  00011	ff c0		 inc	 eax
  00013	89 44 24 20	 mov	 DWORD PTR num$[rsp], eax
  00017	48 63 44 24 20	 movsxd	 rax, DWORD PTR num$[rsp]
  0001c	48 6b c0 40	 imul	 rax, rax, 64		; 00000040H
  00020	48 8b d0	 mov	 rdx, rax
  00023	48 8b 0d 00 00
	00 00		 mov	 rcx, QWORD PTR ctltab
  0002a	ff 15 00 00 00
	00		 call	 QWORD PTR __imp_realloc
  00030	48 89 44 24 28	 mov	 QWORD PTR tab$[rsp], rax
  00035	48 83 7c 24 28
	00		 cmp	 QWORD PTR tab$[rsp], 0
  0003b	75 04		 jne	 SHORT $LN2@add_ctltab

; 1610 :         return false; // (out of memory)

  0003d	32 c0		 xor	 al, al
  0003f	eb 3d		 jmp	 SHORT $LN1@add_ctltab
$LN2@add_ctltab:

; 1611 : 
; 1612 :     ctltab = tab;

  00041	48 8b 44 24 28	 mov	 rax, QWORD PTR tab$[rsp]
  00046	48 89 05 00 00
	00 00		 mov	 QWORD PTR ctltab, rax

; 1613 :     numctl = num;

  0004d	8b 44 24 20	 mov	 eax, DWORD PTR num$[rsp]
  00051	89 05 00 00 00
	00		 mov	 DWORD PTR numctl, eax

; 1614 : 
; 1615 :     /* Append new entry to end of table */
; 1616 :     memcpy( &ctltab[ numctl - 1 ], ctl, sizeof( CTLTAB ));

  00057	8b 05 00 00 00
	00		 mov	 eax, DWORD PTR numctl
  0005d	ff c8		 dec	 eax
  0005f	48 98		 cdqe
  00061	48 6b c0 40	 imul	 rax, rax, 64		; 00000040H
  00065	48 8b 0d 00 00
	00 00		 mov	 rcx, QWORD PTR ctltab
  0006c	48 8d 3c 01	 lea	 rdi, QWORD PTR [rcx+rax]
  00070	48 8b 74 24 50	 mov	 rsi, QWORD PTR ctl$[rsp]
  00075	b9 40 00 00 00	 mov	 ecx, 64			; 00000040H
  0007a	f3 a4		 rep movsb

; 1617 :     return true;

  0007c	b0 01		 mov	 al, 1
$LN1@add_ctltab:

; 1618 : }

  0007e	48 83 c4 38	 add	 rsp, 56			; 00000038H
  00082	5f		 pop	 rdi
  00083	5e		 pop	 rsi
  00084	c3		 ret	 0
add_ctltab_entry ENDP
_TEXT	ENDS
