; Listing generated by Microsoft (R) Optimizing Compiler Version 19.34.31937.0 

include listing.inc

INCLUDELIB MSVCRTD
INCLUDELIB OLDNAMES

PUBLIC	w32_errno_tab
PUBLIC	buffer_overflow_msg
PUBLIC	buffer_overflow_msg_len
_BSS	SEGMENT
buffer_overflow_msg DQ 01H DUP (?)
buffer_overflow_msg_len DQ 01H DUP (?)
_BSS	ENDS
_DATA	SEGMENT
w32_errno_tab DD 04H
	DD	018H
	DD	05H
	DD	0dH
	DD	06H
	DD	09H
	DD	08H
	DD	0cH
	DD	0eH
	DD	0cH
	DD	0fH
	DD	02H
	DD	013H
	DD	0dH
	DD	015H
	DD	05H
	DD	017H
	DD	05H
	DD	01dH
	DD	05H
	DD	01eH
	DD	05H
	DD	01fH
	DD	05H
	DD	020H
	DD	0dH
_DATA	ENDS
CONST	SEGMENT
CKD_ENDTRK DB	0ffH
	DB	0ffH
	DB	0ffH
	DB	0ffH
	DB	0ffH
	DB	0ffH
	DB	0ffH
	DB	0ffH
CONST	ENDS
PUBLIC	__local_stdio_printf_options
PUBLIC	_vfprintf_l
PUBLIC	vfprintf
PUBLIC	_vsnprintf_l
PUBLIC	_vsnprintf
PUBLIC	_vsnprintf_s_l
PUBLIC	_vsnprintf_s
PUBLIC	_vscprintf_l
PUBLIC	_vscprintf
PUBLIC	_snprintf
PUBLIC	are_elevated
PUBLIC	w32_trans_w32error
PUBLIC	w32_strerror
PUBLIC	w32_strerror_r
PUBLIC	w32_w32errmsg
PUBLIC	w32_NtStatusToLastError
PUBLIC	socketpair
PUBLIC	fork
PUBLIC	strtok_r
PUBLIC	clock_gettime
PUBLIC	gettimeofday
PUBLIC	nanosleep
PUBLIC	usleep
PUBLIC	sleep
PUBLIC	sched_yield
PUBLIC	scandir
PUBLIC	alphasort
PUBLIC	getrusage
PUBLIC	pthread_getcpuclockid
PUBLIC	getlogin
PUBLIC	getlogin_r
PUBLIC	realpath
PUBLIC	inet_aton
PUBLIC	hostpath
PUBLIC	get_file_accmode_flags
PUBLIC	gethostid
PUBLIC	socket_init
PUBLIC	socket_deinit
PUBLIC	socket_set_blocking_mode
PUBLIC	socket_is_socket
PUBLIC	set_socket_keepalive
PUBLIC	get_socket_keepalive
PUBLIC	get_process_directory
PUBLIC	expand_environ_vars
PUBLIC	w32_init_hostinfo
PUBLIC	w32_socket
PUBLIC	w32_accept
PUBLIC	w32_close_socket
PUBLIC	w32_FD_SET
PUBLIC	w32_FD_ISSET
PUBLIC	w32_select
PUBLIC	w32_pselect
PUBLIC	w32_if_nametoindex
PUBLIC	w32_inet_ntop
PUBLIC	w32_inet_pton
PUBLIC	w32_fdopen
PUBLIC	w32_fwrite
PUBLIC	w32_vsnprintf
PUBLIC	w32_snprintf
PUBLIC	w32_fprintf
PUBLIC	w32_fclose
PUBLIC	w32_get_stdin_char
PUBLIC	w32_poor_mans_fork
PUBLIC	w32_set_thread_name
PUBLIC	w32_hpagesize
PUBLIC	w32_mlock
PUBLIC	w32_munlock
PUBLIC	w32_hopen
PUBLIC	w32_basename
PUBLIC	w32_dirname
PUBLIC	w32_strcasestr
PUBLIC	DisableInvalidParameterHandling
PUBLIC	EnableInvalidParameterHandling
PUBLIC	DoGetRUsage
PUBLIC	CountSetBits
PUBLIC	w32_read_piped_process_stdxxx_output_thread
PUBLIC	w32_parse_piped_process_stdxxx_data
EXTRN	__imp_isalpha:PROC
EXTRN	__imp_isspace:PROC
EXTRN	__imp_tolower:PROC
EXTRN	__imp__errno:PROC
EXTRN	memmove:PROC
EXTRN	strchr:PROC
EXTRN	strrchr:PROC
EXTRN	__imp_strtok_s:PROC
EXTRN	strcmp:PROC
EXTRN	__imp__stricmp:PROC
EXTRN	strlen:PROC
EXTRN	__imp_strncmp:PROC
EXTRN	__imp__strnicmp:PROC
EXTRN	__imp_GetStdHandle:PROC
EXTRN	__imp_ExpandEnvironmentStringsA:PROC
EXTRN	__imp_FindClose:PROC
EXTRN	__imp_FindFirstFileA:PROC
EXTRN	__imp_FindNextFileA:PROC
EXTRN	__imp_ReadFile:PROC
EXTRN	__imp_WriteFile:PROC
EXTRN	__imp_IsDebuggerPresent:PROC
EXTRN	__imp_OutputDebugStringA:PROC
EXTRN	__imp_CloseHandle:PROC
EXTRN	__imp_DuplicateHandle:PROC
EXTRN	__imp_RaiseException:PROC
EXTRN	__imp_GetLastError:PROC
EXTRN	__imp_SetLastError:PROC
EXTRN	__imp_CreatePipe:PROC
EXTRN	__imp_QueryPerformanceCounter:PROC
EXTRN	__imp_QueryPerformanceFrequency:PROC
EXTRN	__imp_GetOverlappedResult:PROC
EXTRN	__imp_InitializeCriticalSection:PROC
EXTRN	__imp_EnterCriticalSection:PROC
EXTRN	__imp_LeaveCriticalSection:PROC
EXTRN	__imp_InitializeCriticalSectionAndSpinCount:PROC
EXTRN	__imp_TryEnterCriticalSection:PROC
EXTRN	__imp_DeleteCriticalSection:PROC
EXTRN	__imp_SetEvent:PROC
EXTRN	__imp_ResetEvent:PROC
EXTRN	__imp_WaitForSingleObject:PROC
EXTRN	__imp_CreateEventA:PROC
EXTRN	__imp_SetWaitableTimer:PROC
EXTRN	__imp_Sleep:PROC
EXTRN	__imp_WaitForMultipleObjects:PROC
EXTRN	__imp_GetProcessTimes:PROC
EXTRN	__imp_GetCurrentProcess:PROC
EXTRN	__imp_GetCurrentProcessId:PROC
EXTRN	__imp_SwitchToThread:PROC
EXTRN	__imp_GetCurrentThreadId:PROC
EXTRN	__imp_CreateProcessA:PROC
EXTRN	__imp_OpenProcessToken:PROC
EXTRN	__imp_GetThreadTimes:PROC
EXTRN	__imp_OpenProcess:PROC
EXTRN	__imp_GlobalMemoryStatusEx:PROC
EXTRN	__imp_GetSystemInfo:PROC
EXTRN	__imp_GetSystemTimeAsFileTime:PROC
EXTRN	__imp_GetVersionExA:PROC
EXTRN	__imp_VirtualLock:PROC
EXTRN	__imp_VirtualUnlock:PROC
EXTRN	__imp_GetModuleFileNameA:PROC
EXTRN	__imp_GetModuleHandleA:PROC
EXTRN	__imp_GetProcAddress:PROC
EXTRN	__imp_LoadLibraryA:PROC
EXTRN	__imp_GetTokenInformation:PROC
EXTRN	__imp_FormatMessageA:PROC
EXTRN	__imp_CreateWaitableTimerA:PROC
EXTRN	__imp_GetComputerNameA:PROC
EXTRN	__imp_GetUserNameA:PROC
EXTRN	__imp_GetSystemMetrics:PROC
EXTRN	__imp_RegCloseKey:PROC
EXTRN	__imp_RegOpenKeyExA:PROC
EXTRN	__imp_RegQueryValueExA:PROC
EXTRN	__imp_free:PROC
EXTRN	__imp_malloc:PROC
EXTRN	__imp_realloc:PROC
EXTRN	__imp_qsort:PROC
EXTRN	__imp_exit:PROC
EXTRN	__imp__set_invalid_parameter_handler:PROC
EXTRN	__imp___sys_errlist:PROC
EXTRN	__imp___sys_nerr:PROC
EXTRN	__imp__fullpath:PROC
EXTRN	__imp__splitpath_s:PROC
EXTRN	__WSAFDIsSet:PROC
EXTRN	__imp_bind:PROC
EXTRN	__imp_closesocket:PROC
EXTRN	__imp_connect:PROC
EXTRN	__imp_ioctlsocket:PROC
EXTRN	__imp_getsockname:PROC
EXTRN	__imp_getsockopt:PROC
EXTRN	__imp_htonl:PROC
EXTRN	__imp_htons:PROC
EXTRN	__imp_inet_addr:PROC
EXTRN	__imp_listen:PROC
EXTRN	__imp_select:PROC
EXTRN	__imp_send:PROC
EXTRN	__imp_shutdown:PROC
EXTRN	__imp_socket:PROC
EXTRN	__imp_gethostbyname:PROC
EXTRN	__imp_gethostname:PROC
EXTRN	__imp_WSAStartup:PROC
EXTRN	__imp_WSASetLastError:PROC
EXTRN	__imp_WSAGetLastError:PROC
EXTRN	__imp_WSAAccept:PROC
EXTRN	__imp_WSAHtonl:PROC
EXTRN	__imp_WSAIoctl:PROC
EXTRN	__imp_WSASocketA:PROC
EXTRN	__imp__get_osfhandle:PROC
EXTRN	__imp__open_osfhandle:PROC
EXTRN	__imp__sopen_s:PROC
EXTRN	CreateToolhelp32Snapshot:PROC
EXTRN	Process32First:PROC
EXTRN	Process32Next:PROC
EXTRN	__imp__CrtSetReportMode:PROC
EXTRN	__imp___acrt_iob_func:PROC
EXTRN	__imp_fclose:PROC
EXTRN	__imp__fdopen:PROC
EXTRN	__imp_fflush:PROC
EXTRN	__imp_fwrite:PROC
EXTRN	__imp__getmaxstdio:PROC
EXTRN	__imp___stdio_common_vfprintf:PROC
EXTRN	__imp___stdio_common_vsprintf:PROC
EXTRN	__imp___stdio_common_vsnprintf_s:PROC
EXTRN	__imp_fileno:PROC
EXTRN	__imp__beginthreadex:PROC
EXTRN	fthread_get_handle:PROC
EXTRN	hthread_set_thread_name:PROC
EXTRN	strlcpy:PROC
EXTRN	strlcat:PROC
EXTRN	timeval_add:PROC
EXTRN	rtrim:PROC
EXTRN	fwritemsg:PROC
EXTRN	logmsg:PROC
EXTRN	__C_specific_handler:PROC
EXTRN	__GSHandlerCheck:PROC
EXTRN	__chkstk:PROC
EXTRN	__security_check_cookie:PROC
EXTRN	memcmp:PROC
EXTRN	__imp_sysblk:BYTE
EXTRN	__ImageBase:BYTE
EXTRN	__security_cookie:QWORD
_DATA	SEGMENT
COMM	?_OptionsStorage@?1??__local_stdio_printf_options@@9@9:QWORD							; `__local_stdio_printf_options'::`2'::_OptionsStorage
_DATA	ENDS
_BSS	SEGMENT
old_iph	DQ	01H DUP (?)
prev_rm	DD	01H DUP (?)
?szMsgBuff@?1??w32_strerror@@9@9 DB 0100H DUP (?)	; `w32_strerror'::`2'::szMsgBuff
	ALIGN	8

?uliHPCTicksPerSec@?1??clock_gettime@@9@9 DQ 01H DUP (?) ; `clock_gettime'::`2'::uliHPCTicksPerSec
?uliStartingHPCTick@?1??clock_gettime@@9@9 DQ 01H DUP (?) ; `clock_gettime'::`2'::uliStartingHPCTick
?uliMaxElapsedHPCTicks@?1??clock_gettime@@9@9 DQ 01H DUP (?) ; `clock_gettime'::`2'::uliMaxElapsedHPCTicks
?uliStartingNanoTime@?1??clock_gettime@@9@9 DQ 01H DUP (?) ; `clock_gettime'::`2'::uliStartingNanoTime
?tsPrevRetVal@?1??clock_gettime@@9@9 DB 010H DUP (?)	; `clock_gettime'::`2'::tsPrevRetVal
?u64ClockNanoScale@?1??clock_gettime@@9@9 DQ 01H DUP (?) ; `clock_gettime'::`2'::u64ClockNanoScale
?bInSync@?1??clock_gettime@@9@9 DD 01H DUP (?)		; `clock_gettime'::`2'::bInSync
	ALIGN	8

?timerint@?1??w32_nanosleep@@9@9 DQ 01H DUP (?)		; `w32_nanosleep'::`2'::timerint
?hTimer@?1??w32_nanosleep@@9@9 DQ 01H DUP (?)		; `w32_nanosleep'::`2'::hTimer
?liWaitAmt@?1??w32_nanosleep@@9@9 DQ 01H DUP (?)	; `w32_nanosleep'::`2'::liWaitAmt
?waitlock@?1??w32_nanosleep@@9@9 DB 028H DUP (?)	; `w32_nanosleep'::`2'::waitlock
?tsCurrTime@?1??w32_nanosleep@@9@9 DB 010H DUP (?)	; `w32_nanosleep'::`2'::tsCurrTime
?tsWakeTime@?1??w32_nanosleep@@9@9 DB 010H DUP (?)	; `w32_nanosleep'::`2'::tsWakeTime
?login_name@?1??getlogin@@9@9 DB 0101H DUP (?)		; `getlogin'::`2'::login_name
	ALIGN	4

$SG159931 DB	01H DUP (?)
	ALIGN	4

$SG159932 DB	01H DUP (?)
	ALIGN	4

$SG159933 DB	01H DUP (?)
	ALIGN	4

$SG160186 DB	01H DUP (?)
	ALIGN	4

$SG160189 DB	01H DUP (?)
	ALIGN	4

dwThreadId DD	01H DUP (?)
	ALIGN	8

hThread	DQ	01H DUP (?)
hGotStdIn DQ	01H DUP (?)
hStdInAvailable DQ 01H DUP (?)
hDupedStdIn DQ	01H DUP (?)
chStdIn	DB	01H DUP (?)
	ALIGN	4

kasock_head DB	010H DUP (?)
kasock_lock DB	028H DUP (?)
def_ka_time DD	01H DUP (?)
def_ka_intv DD	01H DUP (?)
def_ka_cnt DD	01H DUP (?)
?bDidThis@?1??kasock_init@@9@9 DD 01H DUP (?)		; `kasock_init'::`2'::bDidThis
	ALIGN	8

g_hIphlpapi_dll DQ 01H DUP (?)
g_pIf_NameToIndex DQ 01H DUP (?)
g_pRtlIpv4AddressToStringExA DQ 01H DUP (?)
g_pRtlIpv4StringToAddressExA DQ 01H DUP (?)
g_pRtlIpv6AddressToStringExA DQ 01H DUP (?)
g_pRtlIpv6StringToAddressExA DQ 01H DUP (?)
g_hNtdll_dll DQ	01H DUP (?)
?_basename@?1??w32_basename@@9@9 DB 0104H DUP (?)	; `w32_basename'::`2'::_basename
?_dirname@?1??w32_dirname@@9@9 DB 0104H DUP (?)		; `w32_dirname'::`2'::_dirname
?g_pagesize@?1??w32_hpagesize@@9@9 DD 01H DUP (?)	; `w32_hpagesize'::`2'::g_pagesize
_BSS	ENDS
;	COMDAT pdata
pdata	SEGMENT
$pdata$_vfprintf_l DD imagerel $LN3
	DD	imagerel $LN3+68
	DD	imagerel $unwind$_vfprintf_l
pdata	ENDS
;	COMDAT pdata
pdata	SEGMENT
$pdata$vfprintf DD imagerel $LN3
	DD	imagerel $LN3+47
	DD	imagerel $unwind$vfprintf
pdata	ENDS
;	COMDAT pdata
pdata	SEGMENT
$pdata$_vsnprintf_l DD imagerel $LN5
	DD	imagerel $LN5+118
	DD	imagerel $unwind$_vsnprintf_l
pdata	ENDS
;	COMDAT pdata
pdata	SEGMENT
$pdata$_vsnprintf DD imagerel $LN3
	DD	imagerel $LN3+62
	DD	imagerel $unwind$_vsnprintf
pdata	ENDS
;	COMDAT pdata
pdata	SEGMENT
$pdata$_vsnprintf_s_l DD imagerel $LN5
	DD	imagerel $LN5+127
	DD	imagerel $unwind$_vsnprintf_s_l
pdata	ENDS
;	COMDAT pdata
pdata	SEGMENT
$pdata$_vsnprintf_s DD imagerel $LN3
	DD	imagerel $LN3+73
	DD	imagerel $unwind$_vsnprintf_s
pdata	ENDS
;	COMDAT pdata
pdata	SEGMENT
$pdata$_vscprintf_l DD imagerel $LN5
	DD	imagerel $LN5+108
	DD	imagerel $unwind$_vscprintf_l
pdata	ENDS
;	COMDAT pdata
pdata	SEGMENT
$pdata$_vscprintf DD imagerel $LN3
	DD	imagerel $LN3+36
	DD	imagerel $unwind$_vscprintf
pdata	ENDS
;	COMDAT pdata
pdata	SEGMENT
$pdata$_snprintf DD imagerel $LN3
	DD	imagerel $LN3+81
	DD	imagerel $unwind$_snprintf
pdata	ENDS
pdata	SEGMENT
$pdata$DebuggerTrace DD imagerel DebuggerTrace
	DD	imagerel DebuggerTrace+247
	DD	imagerel $unwind$DebuggerTrace
$pdata$are_elevated DD imagerel $LN10
	DD	imagerel $LN10+204
	DD	imagerel $unwind$are_elevated
$pdata$w32_trans_w32error DD imagerel $LN7
	DD	imagerel $LN7+83
	DD	imagerel $unwind$w32_trans_w32error
$pdata$w32_strerror DD imagerel $LN3
	DD	imagerel $LN3+42
	DD	imagerel $unwind$w32_strerror
$pdata$w32_strerror_r DD imagerel $LN7
	DD	imagerel $LN7+120
	DD	imagerel $unwind$w32_strerror_r
$pdata$w32_w32errmsg DD imagerel $LN13
	DD	imagerel $LN13+237
	DD	imagerel $unwind$w32_w32errmsg
$pdata$w32_NtStatusToLastError DD imagerel $LN3
	DD	imagerel $LN3+112
	DD	imagerel $unwind$w32_NtStatusToLastError
$pdata$socketpair DD imagerel $LN11
	DD	imagerel $LN11+796
	DD	imagerel $unwind$socketpair
$pdata$fork DD	imagerel $LN3
	DD	imagerel $LN3+26
	DD	imagerel $unwind$fork
$pdata$strtok_r DD imagerel $LN3
	DD	imagerel $LN3+45
	DD	imagerel $unwind$strtok_r
$pdata$clock_gettime DD imagerel $LN94
	DD	imagerel $LN94+1965
	DD	imagerel $unwind$clock_gettime
$pdata$gettimeofday DD imagerel $LN36
	DD	imagerel $LN36+484
	DD	imagerel $unwind$gettimeofday
$pdata$nanosleep DD imagerel $LN8
	DD	imagerel $LN8+86
	DD	imagerel $unwind$nanosleep
$pdata$usleep DD imagerel $LN8
	DD	imagerel $LN8+126
	DD	imagerel $unwind$usleep
$pdata$sleep DD	imagerel $LN3
	DD	imagerel $LN3+31
	DD	imagerel $unwind$sleep
$pdata$sched_yield DD imagerel $LN4
	DD	imagerel $LN4+29
	DD	imagerel $unwind$sched_yield
$pdata$scandir DD imagerel $LN16
	DD	imagerel $LN16+677
	DD	imagerel $unwind$scandir
$pdata$alphasort DD imagerel $LN3
	DD	imagerel $LN3+52
	DD	imagerel $unwind$alphasort
$pdata$getrusage DD imagerel $LN47
	DD	imagerel $LN47+926
	DD	imagerel $unwind$getrusage
$pdata$getlogin DD imagerel $LN4
	DD	imagerel $LN4+60
	DD	imagerel $unwind$getlogin
$pdata$getlogin_r DD imagerel $LN8
	DD	imagerel $LN8+110
	DD	imagerel $unwind$getlogin_r
$pdata$realpath DD imagerel $LN6
	DD	imagerel $LN6+103
	DD	imagerel $unwind$realpath
$pdata$inet_aton DD imagerel $LN6
	DD	imagerel $LN6+124
	DD	imagerel $unwind$inet_aton
$pdata$hostpath DD imagerel $LN25
	DD	imagerel $LN25+673
	DD	imagerel $unwind$hostpath
$pdata$get_file_accmode_flags DD imagerel $LN34
	DD	imagerel $LN34+569
	DD	imagerel $unwind$get_file_accmode_flags
$pdata$gethostid DD imagerel $LN5
	DD	imagerel $LN5+145
	DD	imagerel $unwind$gethostid
$pdata$socket_init DD imagerel $LN5
	DD	imagerel $LN5+114
	DD	imagerel $unwind$socket_init
$pdata$socket_set_blocking_mode DD imagerel $LN12
	DD	imagerel $LN12+184
	DD	imagerel $unwind$socket_set_blocking_mode
$pdata$socket_is_socket DD imagerel $LN11
	DD	imagerel $LN11+190
	DD	imagerel $unwind$socket_is_socket
$pdata$set_socket_keepalive DD imagerel $LN3
	DD	imagerel $LN3+55
	DD	imagerel $unwind$set_socket_keepalive
$pdata$get_socket_keepalive DD imagerel $LN13
	DD	imagerel $LN13+221
	DD	imagerel $unwind$get_socket_keepalive
$pdata$get_process_directory DD imagerel $LN8
	DD	imagerel $LN8+215
	DD	imagerel $unwind$get_process_directory
$pdata$expand_environ_vars DD imagerel $LN5
	DD	imagerel $LN5+88
	DD	imagerel $unwind$expand_environ_vars
$pdata$w32_init_hostinfo DD imagerel $LN198
	DD	imagerel $LN198+5792
	DD	imagerel $unwind$w32_init_hostinfo
$pdata$w32_socket DD imagerel $LN14
	DD	imagerel $LN14+221
	DD	imagerel $unwind$w32_socket
$pdata$w32_accept DD imagerel $LN14
	DD	imagerel $LN14+220
	DD	imagerel $unwind$w32_accept
$pdata$w32_close_socket DD imagerel $LN5
	DD	imagerel $LN5+67
	DD	imagerel $unwind$w32_close_socket
$pdata$w32_FD_SET DD imagerel $LN13
	DD	imagerel $LN13+195
	DD	imagerel $unwind$w32_FD_SET
$pdata$w32_FD_ISSET DD imagerel $LN10
	DD	imagerel $LN10+166
	DD	imagerel $unwind$w32_FD_ISSET
$pdata$w32_select DD imagerel $LN41
	DD	imagerel $LN41+1371
	DD	imagerel $unwind$w32_select
$pdata$w32_pselect DD imagerel $LN8
	DD	imagerel $LN8+211
	DD	imagerel $unwind$w32_pselect
$pdata$w32_if_nametoindex DD imagerel $LN8
	DD	imagerel $LN8+134
	DD	imagerel $unwind$w32_if_nametoindex
$pdata$w32_inet_ntop DD imagerel $LN10
	DD	imagerel $LN10+366
	DD	imagerel $unwind$w32_inet_ntop
$pdata$w32_inet_pton DD imagerel $LN12
	DD	imagerel $LN12+350
	DD	imagerel $unwind$w32_inet_pton
$pdata$w32_fdopen DD imagerel $LN20
	DD	imagerel $LN20+906
	DD	imagerel $unwind$w32_fdopen
$pdata$w32_fwrite DD imagerel $LN15
	DD	imagerel $LN15+320
	DD	imagerel $unwind$w32_fwrite
$pdata$w32_vsnprintf DD imagerel $LN4
	DD	imagerel $LN4+100
	DD	imagerel $unwind$w32_vsnprintf
$pdata$w32_snprintf DD imagerel $LN3
	DD	imagerel $LN3+81
	DD	imagerel $unwind$w32_snprintf
$pdata$w32_fprintf DD imagerel $LN19
	DD	imagerel $LN19+433
	DD	imagerel $unwind$w32_fprintf
$pdata$w32_fclose DD imagerel $LN14
	DD	imagerel $LN14+266
	DD	imagerel $unwind$w32_fclose
$pdata$w32_get_stdin_char DD imagerel $LN5
	DD	imagerel $LN5+131
	DD	imagerel $unwind$w32_get_stdin_char
$pdata$w32_poor_mans_fork DD imagerel $LN230
	DD	imagerel $LN230+4452
	DD	imagerel $unwind$w32_poor_mans_fork
$pdata$w32_set_thread_name DD imagerel $LN10
	DD	imagerel $LN10+88
	DD	imagerel $unwind$w32_set_thread_name
pdata	ENDS
pdata	SEGMENT
$pdata$w32_set_thread_name$filt$0 DD imagerel w32_set_thread_name$filt$0
	DD	imagerel w32_set_thread_name$filt$0+21
	DD	imagerel $unwind$w32_set_thread_name$filt$0
pdata	ENDS
pdata	SEGMENT
$pdata$w32_hpagesize DD imagerel $LN4
	DD	imagerel $LN4+45
	DD	imagerel $unwind$w32_hpagesize
$pdata$w32_mlock DD imagerel $LN5
	DD	imagerel $LN5+61
	DD	imagerel $unwind$w32_mlock
$pdata$w32_munlock DD imagerel $LN5
	DD	imagerel $LN5+61
	DD	imagerel $unwind$w32_munlock
$pdata$w32_hopen DD imagerel $LN6
	DD	imagerel $LN6+481
	DD	imagerel $unwind$w32_hopen
$pdata$w32_basename DD imagerel $LN7
	DD	imagerel $LN7+362
	DD	imagerel $unwind$w32_basename
$pdata$w32_dirname DD imagerel $LN7
	DD	imagerel $LN7+391
	DD	imagerel $unwind$w32_dirname
$pdata$w32_strcasestr DD imagerel $LN10
	DD	imagerel $LN10+336
	DD	imagerel $unwind$w32_strcasestr
$pdata$DisableInvalidParameterHandling DD imagerel $LN4
	DD	imagerel $LN4+60
	DD	imagerel $unwind$DisableInvalidParameterHandling
$pdata$EnableInvalidParameterHandling DD imagerel $LN4
	DD	imagerel $LN4+62
	DD	imagerel $unwind$EnableInvalidParameterHandling
$pdata$FileTimeTo1970Nanoseconds DD imagerel FileTimeTo1970Nanoseconds
	DD	imagerel FileTimeTo1970Nanoseconds+184
	DD	imagerel $unwind$FileTimeTo1970Nanoseconds
$pdata$w32_nanosleep DD imagerel w32_nanosleep
	DD	imagerel w32_nanosleep+1811
	DD	imagerel $unwind$w32_nanosleep
$pdata$rusage_failure DD imagerel rusage_failure
	DD	imagerel rusage_failure+78
	DD	imagerel $unwind$rusage_failure
$pdata$FileTime2us DD imagerel FileTime2us
	DD	imagerel FileTime2us+63
	DD	imagerel $unwind$FileTime2us
$pdata$FileTime2timeval DD imagerel FileTime2timeval
	DD	imagerel FileTime2timeval+42
	DD	imagerel $unwind$FileTime2timeval
$pdata$DoGetRUsage DD imagerel $LN12
	DD	imagerel $LN12+388
	DD	imagerel $unwind$DoGetRUsage
$pdata$CountSetBits DD imagerel $LN8
	DD	imagerel $LN8+167
	DD	imagerel $unwind$CountSetBits
$pdata$ReadStdInThread DD imagerel ReadStdInThread
	DD	imagerel ReadStdInThread+518
	DD	imagerel $unwind$ReadStdInThread
$pdata$CreateReadStdInThread DD imagerel CreateReadStdInThread
	DD	imagerel CreateReadStdInThread+983
	DD	imagerel $unwind$CreateReadStdInThread
$pdata$kasock_init DD imagerel kasock_init
	DD	imagerel kasock_init+1010
	DD	imagerel $unwind$kasock_init
$pdata$lock_kasock_list DD imagerel lock_kasock_list
	DD	imagerel lock_kasock_list+22
	DD	imagerel $unwind$lock_kasock_list
$pdata$unlock_kasock_list DD imagerel unlock_kasock_list
	DD	imagerel unlock_kasock_list+22
	DD	imagerel $unwind$unlock_kasock_list
$pdata$get_kasock DD imagerel get_kasock
	DD	imagerel get_kasock+108
	DD	imagerel $unwind$get_kasock
$pdata$add_kasock DD imagerel add_kasock
	DD	imagerel add_kasock+229
	DD	imagerel $unwind$add_kasock
$pdata$rem_kasock DD imagerel rem_kasock
	DD	imagerel rem_kasock+143
	DD	imagerel $unwind$rem_kasock
$pdata$internal_set_socket_keepalive DD imagerel internal_set_socket_keepalive
	DD	imagerel internal_set_socket_keepalive+466
	DD	imagerel $unwind$internal_set_socket_keepalive
$pdata$SelectSet DD imagerel SelectSet
	DD	imagerel SelectSet+308
	DD	imagerel $unwind$SelectSet
$pdata$w32_read_piped_process_stdxxx_output_thread DD imagerel $LN20
	DD	imagerel $LN20+597
	DD	imagerel $unwind$w32_read_piped_process_stdxxx_output_thread
$pdata$w32_parse_piped_process_stdxxx_data DD imagerel $LN56
	DD	imagerel $LN56+1156
	DD	imagerel $unwind$w32_parse_piped_process_stdxxx_data
pdata	ENDS
_DATA	SEGMENT
$SG159123 DB	'w32_w32errmsg', 00H
	ORG $+2
$SG159124 DB	'w32util.c', 00H
	ORG $+6
$SG159127 DB	'w32_w32errmsg', 00H
	ORG $+2
$SG159131 DB	' ', 09H, 0aH, 0bH, 0cH, 0dH, 00H
	ORG $+1
$SG159125 DB	'%s(%d) : warning HHC90999W : *** Assertion Failed! *** f'
	DB	'unction: %s', 0aH, 00H
	ORG $+3
$SG159128 DB	'w32util.c', 00H
	ORG $+6
?u64ClockResolution@?1??clock_gettime@@9@9 DQ 000000003b9aca00H ; `clock_gettime'::`2'::u64ClockResolution
$SG159129 DB	'%s(%d) : warning HHC90999W : *** Assertion Failed! *** f'
	DB	'unction: %s', 0aH, 00H
	ORG $+3
$SG159165 DB	'FileTimeTo1970Nanoseconds', 00H
	ORG $+2
?uiResyncSecs@?1??clock_gettime@@9@9 DD 01eH		; `clock_gettime'::`2'::uiResyncSecs
$SG159166 DB	'w32util.c', 00H
	ORG $+6
$SG159229 DB	'clock_gettime', 00H
	ORG $+2
$SG159516 DB	'*.*', 00H
	ORG $+4
$SG159167 DB	'%s(%d) : warning HHC90999W : *** Assertion Failed! *** f'
	DB	'unction: %s', 0aH, 00H
	ORG $+3
$SG159169 DB	'FileTimeTo1970Nanoseconds', 00H
	ORG $+2
$SG159261 DB	'S', 00H
	ORG $+2
$SG159170 DB	'w32util.c', 00H
	ORG $+6
$SG159233 DB	'clock_gettime', 00H
	ORG $+2
$SG159717 DB	'\\.\', 00H
	ORG $+3
$SG159171 DB	'%s(%d) : warning HHC90999W : *** Assertion Failed! *** f'
	DB	'unction: %s', 0aH, 00H
	ORG $+3
$SG159230 DB	'w32util.c', 00H
	ORG $+6
$SG159241 DB	'clock_gettime', 00H
	ORG $+2
$SG159718 DB	'//./', 00H
	ORG $+3
$SG159231 DB	'%s(%d) : warning HHC90999W : *** Assertion Failed! *** f'
	DB	'unction: %s', 0aH, 00H
	ORG $+3
$SG159234 DB	'w32util.c', 00H
	ORG $+6
$SG159245 DB	'clock_gettime', 00H
	ORG $+2
$SG159719 DB	'\\.\', 00H
	ORG $+3
$SG159235 DB	'%s(%d) : warning HHC90999W : *** Assertion Failed! *** f'
	DB	'unction: %s', 0aH, 00H
	ORG $+3
$SG159242 DB	'w32util.c', 00H
	ORG $+6
$SG159252 DB	'clock_gettime', 00H
	ORG $+2
$SG159759 DB	'get_file_accmode_flags', 00H
	ORG $+1
$SG159243 DB	'%s(%d) : warning HHC90999W : *** Assertion Failed! *** f'
	DB	'unction: %s', 0aH, 00H
	ORG $+3
$SG159246 DB	'w32util.c', 00H
	ORG $+6
$SG159256 DB	'clock_gettime', 00H
	ORG $+2
$SG159763 DB	'get_file_accmode_flags', 00H
	ORG $+1
$SG159247 DB	'%s(%d) : warning HHC90999W : *** Assertion Failed! *** f'
	DB	'unction: %s', 0aH, 00H
	ORG $+3
$SG159253 DB	'w32util.c', 00H
	ORG $+6
$SG159263 DB	'clock_gettime', 00H
	ORG $+2
$SG159768 DB	'get_file_accmode_flags', 00H
	ORG $+1
$SG159254 DB	'%s(%d) : warning HHC90999W : *** Assertion Failed! *** f'
	DB	'unction: %s', 0aH, 00H
	ORG $+3
$SG159257 DB	'w32util.c', 00H
	ORG $+6
$SG159304 DB	'gettimeofday', 00H
	ORG $+3
$SG159392 DB	'w32_nanosleep', 00H
	ORG $+2
$SG159772 DB	'get_file_accmode_flags', 00H
	ORG $+1
$SG159258 DB	'%s(%d) : warning HHC90999W : *** Assertion Failed! *** f'
	DB	'unction: %s', 0aH, 00H
	ORG $+3
$SG159396 DB	'w32_nanosleep', 00H
	ORG $+2
$SG159780 DB	'get_file_accmode_flags', 00H
	ORG $+1
$SG159262 DB	'HHC04112%s Cannot provide minimum emulated TOD clock res'
	DB	'olution', 0aH, 00H
	ORG $+3
$SG159515 DB	'/', 00H
	ORG $+2
$SG159264 DB	'w32util.c', 00H
	ORG $+2
$SG159970 DB	'??', 00H
	ORG $+1
$SG159305 DB	'w32util.c', 00H
	ORG $+6
$SG159308 DB	'gettimeofday', 00H
	ORG $+3
$SG159403 DB	'w32_nanosleep', 00H
	ORG $+2
$SG159784 DB	'get_file_accmode_flags', 00H
	ORG $+1
$SG159306 DB	'%s(%d) : warning HHC90999W : *** Assertion Failed! *** f'
	DB	'unction: %s', 0aH, 00H
	ORG $+3
$SG159309 DB	'w32util.c', 00H
	ORG $+6
$SG159314 DB	'gettimeofday', 00H
	ORG $+3
$SG159407 DB	'w32_nanosleep', 00H
	ORG $+2
$SG159934 DB	'GetLogicalProcessorInformation', 00H
	ORG $+1
$SG159958 DB	'CallNtPowerInformation', 00H
	ORG $+1
$SG159310 DB	'%s(%d) : warning HHC90999W : *** Assertion Failed! *** f'
	DB	'unction: %s', 0aH, 00H
	ORG $+3
$SG159315 DB	'w32util.c', 00H
	ORG $+6
$SG159318 DB	'gettimeofday', 00H
	ORG $+3
$SG159413 DB	'w32_nanosleep', 00H
	ORG $+2
$SG159964 DB	'GetNativeSystemInfo', 00H
	ORG $+4
$SG159316 DB	'%s(%d) : warning HHC90999W : *** Assertion Failed! *** f'
	DB	'unction: %s', 0aH, 00H
	ORG $+3
$SG159319 DB	'w32util.c', 00H
	ORG $+6
$SG159417 DB	'w32_nanosleep', 00H
	ORG $+2
$SG159972 DB	'9x', 00H
	ORG $+5
$SG159320 DB	'%s(%d) : warning HHC90999W : *** Assertion Failed! *** f'
	DB	'unction: %s', 0aH, 00H
	ORG $+3
$SG159393 DB	'w32util.c', 00H
	ORG $+6
$SG159427 DB	'w32_nanosleep', 00H
	ORG $+2
$SG159975 DB	'GetProductInfo', 00H
	ORG $+1
$SG159980 DB	'Vista', 00H
	ORG $+2
$SG159394 DB	'%s(%d) : warning HHC90999W : *** Assertion Failed! *** f'
	DB	'unction: %s', 0aH, 00H
	ORG $+3
$SG159397 DB	'w32util.c', 00H
	ORG $+6
$SG159431 DB	'w32_nanosleep', 00H
	ORG $+2
$SG159986 DB	'Server 2008 R2', 00H
	ORG $+1
$SG159990 DB	'Ultimate Edition', 00H
	ORG $+7
$SG159398 DB	'%s(%d) : warning HHC90999W : *** Assertion Failed! *** f'
	DB	'unction: %s', 0aH, 00H
	ORG $+3
$SG159404 DB	'w32util.c', 00H
	ORG $+6
$SG159436 DB	'w32_nanosleep', 00H
	ORG $+2
$SG159998 DB	'Home Premium Edition', 00H
	ORG $+3
$SG159405 DB	'%s(%d) : warning HHC90999W : *** Assertion Failed! *** f'
	DB	'unction: %s', 0aH, 00H
	ORG $+3
$SG159408 DB	'w32util.c', 00H
	ORG $+6
$SG159440 DB	'w32_nanosleep', 00H
	ORG $+2
$SG160002 DB	'Home Basic Edition', 00H
	ORG $+5
$SG159409 DB	'%s(%d) : warning HHC90999W : *** Assertion Failed! *** f'
	DB	'unction: %s', 0aH, 00H
	ORG $+3
$SG159414 DB	'w32util.c', 00H
	ORG $+6
$SG159446 DB	'w32_nanosleep', 00H
	ORG $+2
$SG160006 DB	'Home Premium Server', 00H
	ORG $+4
$SG159415 DB	'%s(%d) : warning HHC90999W : *** Assertion Failed! *** f'
	DB	'unction: %s', 0aH, 00H
	ORG $+3
$SG159418 DB	'w32util.c', 00H
	ORG $+6
$SG159450 DB	'w32_nanosleep', 00H
	ORG $+2
$SG160008 DB	'Hyper-V', 00H
$SG159419 DB	'%s(%d) : warning HHC90999W : *** Assertion Failed! *** f'
	DB	'unction: %s', 0aH, 00H
	ORG $+3
$SG159428 DB	'w32util.c', 00H
	ORG $+6
$SG159722 DB	'/cygdrive/', 00H
	ORG $+5
$SG159935 DB	'kernel32.dll', 00H
	ORG $+3
$SG159985 DB	'7', 00H
	ORG $+6
$SG159429 DB	'%s(%d) : warning HHC90999W : *** Assertion Failed! *** f'
	DB	'unction: %s', 0aH, 00H
	ORG $+3
$SG159432 DB	'w32util.c', 00H
	ORG $+6
$SG159959 DB	'powrprof.dll', 00H
	ORG $+3
$SG160012 DB	'Enterprise Edition', 00H
	ORG $+5
$SG159433 DB	'%s(%d) : warning HHC90999W : *** Assertion Failed! *** f'
	DB	'unction: %s', 0aH, 00H
	ORG $+3
$SG159437 DB	'w32util.c', 00H
	ORG $+6
$SG159965 DB	'kernel32.dll', 00H
	ORG $+3
$SG160015 DB	'Business Edition', 00H
	ORG $+7
$SG159438 DB	'%s(%d) : warning HHC90999W : *** Assertion Failed! *** f'
	DB	'unction: %s', 0aH, 00H
	ORG $+3
$SG159441 DB	'w32util.c', 00H
	ORG $+6
$SG159976 DB	'kernel32.dll', 00H
	ORG $+3
$SG160017 DB	'Essential Business Server Management', 00H
	ORG $+3
$SG159442 DB	'%s(%d) : warning HHC90999W : *** Assertion Failed! *** f'
	DB	'unction: %s', 0aH, 00H
	ORG $+3
$SG159447 DB	'w32util.c', 00H
	ORG $+6
$SG159981 DB	'Server 2008', 00H
$SG160171 DB	'2000', 00H
	ORG $+7
$SG159448 DB	'%s(%d) : warning HHC90999W : *** Assertion Failed! *** f'
	DB	'unction: %s', 0aH, 00H
	ORG $+3
$SG159451 DB	'w32util.c', 00H
	ORG $+6
$SG159994 DB	'Professional', 00H
	ORG $+3
$SG160019 DB	'Essential Business Server Messaging', 00H
	ORG $+4
$SG159452 DB	'%s(%d) : warning HHC90999W : *** Assertion Failed! *** f'
	DB	'unction: %s', 0aH, 00H
	ORG $+3
$SG159622 DB	'getrusage', 00H
	ORG $+2
$SG160178 DB	'Server', 00H
	ORG $+1
$SG160212 DB	'SH', 00H
	ORG $+1
$SG159623 DB	'w32util.c', 00H
	ORG $+6
$SG159624 DB	'%s(%d) : warning HHC90999W : *** Assertion Failed! *** f'
	DB	'unction: %s', 0aH, 00H
	ORG $+3
$SG159626 DB	'getrusage', 00H
	ORG $+2
$SG160214 DB	'ARM', 00H
$SG159627 DB	'w32util.c', 00H
	ORG $+6
$SG160004 DB	'Home Server', 00H
$SG160198 DB	'i%d86', 00H
	ORG $+6
$SG159628 DB	'%s(%d) : warning HHC90999W : *** Assertion Failed! *** f'
	DB	'unction: %s', 0aH, 00H
	ORG $+3
$SG159631 DB	'getrusage', 00H
	ORG $+2
$SG160224 DB	'???', 00H
$SG159632 DB	'w32util.c', 00H
	ORG $+6
$SG160021 DB	'Essential Business Server Security', 00H
	ORG $+5
$SG159633 DB	'%s(%d) : warning HHC90999W : *** Assertion Failed! *** f'
	DB	'unction: %s', 0aH, 00H
	ORG $+3
$SG159635 DB	'getrusage', 00H
	ORG $+2
$SG160267 DB	'D', 00H
	ORG $+2
$SG159636 DB	'w32util.c', 00H
	ORG $+6
$SG160025 DB	'Starter Edition', 00H
$SG160027 DB	'Cluster Server Edition', 00H
	ORG $+1
$SG159637 DB	'%s(%d) : warning HHC90999W : *** Assertion Failed! *** f'
	DB	'unction: %s', 0aH, 00H
	ORG $+3
$SG159640 DB	'getrusage', 00H
	ORG $+2
$SG160355 DB	'W', 00H
	ORG $+2
$SG159641 DB	'w32util.c', 00H
	ORG $+6
$SG160029 DB	'Cluster Server Edition w/o Hyper-V', 00H
	ORG $+5
$SG159642 DB	'%s(%d) : warning HHC90999W : *** Assertion Failed! *** f'
	DB	'unction: %s', 0aH, 00H
	ORG $+3
$SG159644 DB	'getrusage', 00H
	ORG $+2
$SG160666 DB	'E', 00H
	ORG $+2
$SG159645 DB	'w32util.c', 00H
	ORG $+6
$SG160031 DB	'Datacenter Edition', 00H
	ORG $+5
$SG159646 DB	'%s(%d) : warning HHC90999W : *** Assertion Failed! *** f'
	DB	'unction: %s', 0aH, 00H
	ORG $+3
$SG159707 DB	'hostpath', 00H
	ORG $+3
$SG160208 DB	'AMD64', 00H
	ORG $+2
$SG160876 DB	'D', 00H
	ORG $+2
$SG159708 DB	'w32util.c', 00H
	ORG $+6
$SG159709 DB	'%s(%d) : warning HHC90999W : *** Assertion Failed! *** f'
	DB	'unction: %s', 0aH, 00H
	ORG $+3
$SG159711 DB	'hostpath', 00H
	ORG $+3
$SG160220 DB	'ALPHA', 00H
	ORG $+2
$SG160889 DB	'D', 00H
	ORG $+2
$SG159712 DB	'w32util.c', 00H
	ORG $+6
$SG159713 DB	'%s(%d) : warning HHC90999W : *** Assertion Failed! *** f'
	DB	'unction: %s', 0aH, 00H
	ORG $+3
$SG159760 DB	'w32util.c', 00H
	ORG $+6
$SG160033 DB	'Datacenter Edition w/o Hyper-V', 00H
	ORG $+1
$SG160037 DB	'Datacenter Edition w/o Hyper-V (core)', 00H
	ORG $+2
$SG159761 DB	'%s(%d) : warning HHC90999W : *** Assertion Failed! *** f'
	DB	'unction: %s', 0aH, 00H
	ORG $+3
$SG159764 DB	'w32util.c', 00H
	ORG $+6
$SG160039 DB	'Enterprise Edition', 00H
	ORG $+5
$SG159765 DB	'%s(%d) : warning HHC90999W : *** Assertion Failed! *** f'
	DB	'unction: %s', 0aH, 00H
	ORG $+3
$SG159769 DB	'w32util.c', 00H
	ORG $+6
$SG160041 DB	'Enterprise Edition w/o Hyper-V', 00H
	ORG $+1
$SG160045 DB	'Enterprise Edition w/o Hyper-V (core)', 00H
	ORG $+2
$SG159770 DB	'%s(%d) : warning HHC90999W : *** Assertion Failed! *** f'
	DB	'unction: %s', 0aH, 00H
	ORG $+3
$SG159773 DB	'w32util.c', 00H
	ORG $+6
$SG160047 DB	'Enterprise Edition for IA64 Systems', 00H
	ORG $+4
$SG159774 DB	'%s(%d) : warning HHC90999W : *** Assertion Failed! *** f'
	DB	'unction: %s', 0aH, 00H
	ORG $+3
$SG159781 DB	'w32util.c', 00H
	ORG $+6
$SG160049 DB	'Essential Server Solutions', 00H
	ORG $+5
$SG160051 DB	'Essential Server Solutions w/o Hyper-V', 00H
	ORG $+1
$SG159782 DB	'%s(%d) : warning HHC90999W : *** Assertion Failed! *** f'
	DB	'unction: %s', 0aH, 00H
	ORG $+3
$SG159785 DB	'w32util.c', 00H
	ORG $+6
$SG160053 DB	'Server Foundation', 00H
	ORG $+6
$SG159786 DB	'%s(%d) : warning HHC90999W : *** Assertion Failed! *** f'
	DB	'unction: %s', 0aH, 00H
	ORG $+3
$SG160035 DB	'Datacenter Edition (core)', 00H
	ORG $+2
$SG160895 DB	'D', 00H
	ORG $+2
$SG160043 DB	'Enterprise Edition (core)', 00H
	ORG $+2
$SG161115 DB	'r', 00H
	ORG $+2
$SG160055 DB	'Small Business Server', 00H
	ORG $+2
$SG160057 DB	'Small Business Server Premium Edition', 00H
	ORG $+2
$SG160059 DB	'Standard Edition', 00H
	ORG $+3
$SG161117 DB	'rbc', 00H
$SG160061 DB	'Standard Edition w/o Hyper-V', 00H
	ORG $+3
$SG160063 DB	'Standard Edition (core)', 00H
$SG160065 DB	'Standard Edition w/o Hyper-V (core)', 00H
$SG161119 DB	'r+', 00H
	ORG $+1
$SG160067 DB	'Storage Server Enterprise', 00H
	ORG $+2
$SG161123 DB	'r+b', 00H
$SG160069 DB	'Storage Server Express', 00H
	ORG $+1
$SG160071 DB	'Storage Server Standard', 00H
$SG160073 DB	'Storage Server Workgroup', 00H
	ORG $+3
$SG161127 DB	'rb+', 00H
$SG160075 DB	'Storage Server Enterprise (core)', 00H
	ORG $+3
$SG161131 DB	'w', 00H
	ORG $+2
$SG160077 DB	'Storage Server Express (core)', 00H
	ORG $+2
$SG160079 DB	'Storage Server Standard (core)', 00H
	ORG $+1
$SG160081 DB	'Storage Server Workgroup (core)', 00H
$SG160084 DB	'Small Business Solution Server', 00H
	ORG $+1
$SG160087 DB	'Server for Small Business Solutions', 00H
$SG161133 DB	'wbc', 00H
$SG160089 DB	'Standard Server Solutions', 00H
	ORG $+2
$SG161135 DB	'w+', 00H
	ORG $+1
$SG160091 DB	'Standard Server Solutions (core)', 00H
	ORG $+3
$SG161139 DB	'w+b', 00H
$SG160093 DB	'Embedded Solution Server', 00H
	ORG $+3
$SG161143 DB	'wb+', 00H
$SG160095 DB	'Embedded Solution Server (core)', 00H
$SG160097 DB	'Small Business Server Premium Edition (core)', 00H
	ORG $+3
$SG160099 DB	'EBS 2008 Management', 00H
$SG161147 DB	'a', 00H
	ORG $+2
$SG160101 DB	'EBS 2008 Additional', 00H
$SG161149 DB	'abc', 00H
$SG160103 DB	'EBS 2008 Management Services', 00H
	ORG $+3
$SG160105 DB	'EBS 2008 Additional Services', 00H
	ORG $+3
$SG160107 DB	'Embedded Server', 00H
$SG160109 DB	'Web Server Edition', 00H
	ORG $+1
$SG161151 DB	'a+', 00H
	ORG $+1
$SG160111 DB	'Web Server Edition (core)', 00H
	ORG $+2
$SG161155 DB	'a+b', 00H
$SG160113 DB	'Undefined Product', 00H
	ORG $+2
$SG161159 DB	'ab+', 00H
$SG160115 DB	'Unlicensed Product', 00H
	ORG $+1
$SG161741 DB	'%s', 0aH, 00H
$SG160117 DB	'unknown', 00H
$SG160121 DB	'Server 2003 R2', 00H
	ORG $+1
$SG160124 DB	'Storage Server 2003', 00H
$SG161841 DB	'%s', 0aH, 00H
$SG160127 DB	'Home Server', 00H
$SG161916 DB	'.', 00H
	ORG $+2
$SG160130 DB	'XP Professional x64 Edition', 00H
$SG161917 DB	'/', 00H
	ORG $+2
$SG160131 DB	'Server 2003', 00H
$SG161919 DB	'.', 00H
	ORG $+2
$SG160137 DB	'Datacenter Edition for IA64 Systems', 00H
$SG161933 DB	'.', 00H
	ORG $+2
$SG160139 DB	'Enterprise Edition for IA64 Systems', 00H
$SG161934 DB	'/', 00H
	ORG $+2
$SG160144 DB	'Datacenter x64 Edition', 00H
	ORG $+1
$SG160147 DB	'Enterprise x64 Edition', 00H
	ORG $+1
$SG160148 DB	'Standard x64 Edition', 00H
	ORG $+3
$SG160151 DB	'Computer Cluster Edition', 00H
	ORG $+3
$SG161936 DB	'.', 00H
	ORG $+2
$SG160154 DB	'Datacenter Edition', 00H
	ORG $+1
$SG161998 DB	'D', 00H
	ORG $+2
$SG160157 DB	'Enterprise Edition', 00H
	ORG $+5
$SG160160 DB	'Web Edition', 00H
	ORG $+4
$SG160161 DB	'Standard Edition', 00H
	ORG $+7
$SG160165 DB	'XP Home Edition', 00H
$SG160166 DB	'XP Professional', 00H
$SG160170 DB	'2000 Professional', 00H
	ORG $+6
$SG160174 DB	'Datacenter Server', 00H
	ORG $+6
$SG160177 DB	'Enterprise Server', 00H
	ORG $+6
$SG160182 DB	' 64-bit', 00H
$SG160185 DB	' 32-bit', 00H
$SG160188 DB	'unknown', 00H
$SG160190 DB	'Windows', 00H
$SG160191 DB	'%d.%d.%d', 00H
	ORG $+7
$SG160192 DB	'%s %s%s', 00H
$SG160202 DB	'GenuineIntel', 00H
	ORG $+3
$SG160203 DB	'Intel(R) x64', 00H
	ORG $+3
$SG160206 DB	'AuthenticAMD', 00H
	ORG $+3
$SG160207 DB	'AMD(R) x64', 00H
	ORG $+5
$SG160210 DB	'PowerPC', 00H
$SG160216 DB	'IA64', 00H
	ORG $+3
$SG160218 DB	'IA32_ON_WIN64', 00H
	ORG $+2
$SG160222 DB	'MIPS', 00H
	ORG $+3
$SG160261 DB	'ReadStdInThread', 00H
$SG160262 DB	'ReadStdInThread', 00H
$SG160266 DB	'ReadFile( hDupedStdIn ) failed! dwLastError=%d (0x%8.8X)'
	DB	': %s', 00H
	ORG $+3
$SG160268 DB	'HHC90000%s DBG: %s', 0aH, 00H
	ORG $+4
$SG160269 DB	'ReadStdInThread', 00H
$SG160270 DB	'w32util.c', 00H
	ORG $+6
$SG160272 DB	'ReadStdInThread', 00H
$SG160273 DB	'w32util.c', 00H
	ORG $+6
$SG160274 DB	'%s(%d) : warning HHC90999W : *** Assertion Failed! *** f'
	DB	'unction: %s', 0aH, 00H
	ORG $+3
$SG160276 DB	'ReadStdInThread', 00H
$SG160277 DB	'w32util.c', 00H
	ORG $+6
$SG160335 DB	'CreateReadStdInThread', 00H
	ORG $+2
$SG160278 DB	'%s(%d) : warning HHC90999W : *** Assertion Failed! *** f'
	DB	'unction: %s', 0aH, 00H
	ORG $+3
$SG160336 DB	'w32util.c', 00H
	ORG $+6
$SG160339 DB	'CreateReadStdInThread', 00H
	ORG $+2
$SG160337 DB	'%s(%d) : warning HHC90999W : *** Assertion Failed! *** f'
	DB	'unction: %s', 0aH, 00H
	ORG $+3
$SG160340 DB	'w32util.c', 00H
	ORG $+6
$SG160345 DB	'CreateReadStdInThread', 00H
	ORG $+2
$SG160341 DB	'%s(%d) : warning HHC90999W : *** Assertion Failed! *** f'
	DB	'unction: %s', 0aH, 00H
	ORG $+3
$SG160346 DB	'w32util.c', 00H
	ORG $+6
$SG160349 DB	'CreateReadStdInThread', 00H
	ORG $+2
$SG160347 DB	'%s(%d) : warning HHC90999W : *** Assertion Failed! *** f'
	DB	'unction: %s', 0aH, 00H
	ORG $+3
$SG160350 DB	'w32util.c', 00H
	ORG $+6
$SG160357 DB	'CreateReadStdInThread', 00H
	ORG $+2
$SG160351 DB	'%s(%d) : warning HHC90999W : *** Assertion Failed! *** f'
	DB	'unction: %s', 0aH, 00H
	ORG $+3
$SG160361 DB	'CreateReadStdInThread', 00H
	ORG $+2
$SG160356 DB	'HHC04110%s DuplicateHandle() failed: dwLastError=%d (0x%'
	DB	'8.8X): %s', 0aH, 00H
	ORG $+5
$SG160358 DB	'w32util.c', 00H
	ORG $+6
$SG160362 DB	'w32util.c', 00H
	ORG $+6
$SG160365 DB	'CreateReadStdInThread', 00H
	ORG $+2
$SG160363 DB	'%s(%d) : warning HHC90999W : *** Assertion Failed! *** f'
	DB	'unction: %s', 0aH, 00H
	ORG $+3
$SG160366 DB	'w32util.c', 00H
	ORG $+6
$SG160371 DB	'CreateReadStdInThread', 00H
	ORG $+2
$SG160367 DB	'%s(%d) : warning HHC90999W : *** Assertion Failed! *** f'
	DB	'unction: %s', 0aH, 00H
	ORG $+3
$SG160372 DB	'w32util.c', 00H
	ORG $+6
$SG160375 DB	'CreateReadStdInThread', 00H
	ORG $+2
$SG160373 DB	'%s(%d) : warning HHC90999W : *** Assertion Failed! *** f'
	DB	'unction: %s', 0aH, 00H
	ORG $+3
$SG160376 DB	'w32util.c', 00H
	ORG $+6
$SG160380 DB	'CreateReadStdInThread', 00H
	ORG $+2
$SG160377 DB	'%s(%d) : warning HHC90999W : *** Assertion Failed! *** f'
	DB	'unction: %s', 0aH, 00H
	ORG $+3
$SG160381 DB	'w32util.c', 00H
	ORG $+6
$SG160384 DB	'CreateReadStdInThread', 00H
	ORG $+2
$SG160382 DB	'%s(%d) : warning HHC90999W : *** Assertion Failed! *** f'
	DB	'unction: %s', 0aH, 00H
	ORG $+3
$SG160385 DB	'w32util.c', 00H
	ORG $+6
$SG160497 DB	'kasock_init', 00H
$SG161121 DB	'r+bc', 00H
	ORG $+7
$SG160386 DB	'%s(%d) : warning HHC90999W : *** Assertion Failed! *** f'
	DB	'unction: %s', 0aH, 00H
	ORG $+3
$SG160498 DB	'w32util.c', 00H
	ORG $+6
$SG160501 DB	'kasock_init', 00H
$SG161125 DB	'r+bc', 00H
	ORG $+7
$SG160499 DB	'%s(%d) : warning HHC90999W : *** Assertion Failed! *** f'
	DB	'unction: %s', 0aH, 00H
	ORG $+3
$SG160502 DB	'w32util.c', 00H
	ORG $+6
$SG160505 DB	'SYSTEM\CurrentControlSet\Services\Tcpip\Parameters', 00H
	ORG $+5
$SG160503 DB	'%s(%d) : warning HHC90999W : *** Assertion Failed! *** f'
	DB	'unction: %s', 0aH, 00H
	ORG $+3
$SG160507 DB	'KeepAliveTime', 00H
	ORG $+2
$SG160510 DB	'KeepAliveInterval', 00H
	ORG $+6
$SG160513 DB	'TcpMaxDataRetransmissions', 00H
	ORG $+6
$SG160517 DB	'PPTPTcpMaxDataRetransmissions', 00H
	ORG $+2
$SG160578 DB	'w32_socket', 00H
	ORG $+5
$SG160579 DB	'w32util.c', 00H
	ORG $+6
$SG160580 DB	'%s(%d) : warning HHC90999W : *** Assertion Failed! *** f'
	DB	'unction: %s', 0aH, 00H
	ORG $+3
$SG160582 DB	'w32_socket', 00H
	ORG $+5
$SG160583 DB	'w32util.c', 00H
	ORG $+6
$SG160608 DB	'w32_accept', 00H
	ORG $+5
$SG160665 DB	'WSAIoctl( SIO_KEEPALIVE_VALS )', 00H
	ORG $+1
$SG160667 DB	'HHC02219%s Error in function %s: %s', 0aH, 00H
	ORG $+3
$SG160584 DB	'%s(%d) : warning HHC90999W : *** Assertion Failed! *** f'
	DB	'unction: %s', 0aH, 00H
	ORG $+3
$SG160609 DB	'w32util.c', 00H
	ORG $+6
$SG160612 DB	'w32_accept', 00H
	ORG $+5
$SG160668 DB	'internal_set_socket_keepalive', 00H
	ORG $+2
$SG160699 DB	'get_socket_keepalive', 00H
	ORG $+3
$SG160610 DB	'%s(%d) : warning HHC90999W : *** Assertion Failed! *** f'
	DB	'unction: %s', 0aH, 00H
	ORG $+3
$SG160613 DB	'w32util.c', 00H
	ORG $+6
$SG160703 DB	'get_socket_keepalive', 00H
	ORG $+3
$SG160614 DB	'%s(%d) : warning HHC90999W : *** Assertion Failed! *** f'
	DB	'unction: %s', 0aH, 00H
	ORG $+3
$SG160669 DB	'w32util.c', 00H
	ORG $+6
$SG160700 DB	'w32util.c', 00H
	ORG $+6
$SG160712 DB	'255.255.255.255', 00H
$SG160877 DB	'HHC90000%s DBG: %s', 0aH, 00H
	ORG $+4
$SG160701 DB	'%s(%d) : warning HHC90999W : *** Assertion Failed! *** f'
	DB	'unction: %s', 0aH, 00H
	ORG $+3
$SG160704 DB	'w32util.c', 00H
	ORG $+6
$SG160866 DB	'w32_select', 00H
	ORG $+5
$SG160890 DB	'HHC90000%s DBG: %s', 0aH, 00H
	ORG $+4
$SG160705 DB	'%s(%d) : warning HHC90999W : *** Assertion Failed! *** f'
	DB	'unction: %s', 0aH, 00H
	ORG $+3
$SG160867 DB	'w32util.c', 00H
	ORG $+6
$SG160870 DB	'w32_select', 00H
	ORG $+5
$SG160896 DB	'HHC90000%s DBG: %s', 0aH, 00H
	ORG $+4
$SG160868 DB	'%s(%d) : warning HHC90999W : *** Assertion Failed! *** f'
	DB	'unction: %s', 0aH, 00H
	ORG $+3
$SG160871 DB	'w32util.c', 00H
	ORG $+6
$SG160878 DB	'w32_select', 00H
	ORG $+5
$SG160985 DB	'iphlpapi.dll', 00H
	ORG $+3
$SG160988 DB	'if_nametoindex', 00H
	ORG $+1
$SG161129 DB	'r+bc', 00H
	ORG $+3
$SG160872 DB	'%s(%d) : warning HHC90999W : *** Assertion Failed! *** f'
	DB	'unction: %s', 0aH, 00H
	ORG $+3
$SG161137 DB	'w+bc', 00H
	ORG $+3
$SG160875 DB	'** Win32 porting error: invalid call to ''w32_select'' f'
	DB	'rom %s(%d): NULL args', 00H
	ORG $+4
$SG160879 DB	'w32util.c', 00H
	ORG $+6
$SG160888 DB	'** Win32 porting error: invalid call to ''w32_select'' f'
	DB	'rom %s(%d): mixed set(s)', 00H
	ORG $+1
$SG160891 DB	'w32_select', 00H
	ORG $+5
$SG160892 DB	'w32util.c', 00H
	ORG $+6
$SG160894 DB	'** Win32 porting error: invalid call to ''w32_select'' f'
	DB	'rom %s(%d): non-socket except set', 00H
$SG160897 DB	'w32_select', 00H
	ORG $+5
$SG160898 DB	'w32util.c', 00H
	ORG $+6
$SG160906 DB	'w32_select', 00H
	ORG $+5
$SG160907 DB	'w32util.c', 00H
	ORG $+6
$SG160910 DB	'w32_select', 00H
	ORG $+1
$SG161141 DB	'w+bc', 00H
	ORG $+7
$SG160908 DB	'%s(%d) : warning HHC90999W : *** Assertion Failed! *** f'
	DB	'unction: %s', 0aH, 00H
	ORG $+3
$SG160911 DB	'w32util.c', 00H
	ORG $+2
$SG161145 DB	'w+bc', 00H
	ORG $+7
$SG160912 DB	'%s(%d) : warning HHC90999W : *** Assertion Failed! *** f'
	DB	'unction: %s', 0aH, 00H
	ORG $+3
$SG160940 DB	'SelectSet', 00H
	ORG $+6
$SG160941 DB	'w32util.c', 00H
	ORG $+2
$SG161153 DB	'a+bc', 00H
	ORG $+7
$SG160942 DB	'%s(%d) : warning HHC90999W : *** Assertion Failed! *** f'
	DB	'unction: %s', 0aH, 00H
	ORG $+3
$SG160944 DB	'SelectSet', 00H
	ORG $+6
$SG160945 DB	'w32util.c', 00H
	ORG $+2
$SG161157 DB	'a+bc', 00H
	ORG $+7
$SG160946 DB	'%s(%d) : warning HHC90999W : *** Assertion Failed! *** f'
	DB	'unction: %s', 0aH, 00H
	ORG $+3
$SG161056 DB	'ntdll.dll', 00H
	ORG $+6
$SG161059 DB	'RtlIpv4AddressToStringExA', 00H
	ORG $+6
$SG161063 DB	'RtlIpv6AddressToStringExA', 00H
	ORG $+6
$SG161078 DB	'ntdll.dll', 00H
	ORG $+6
$SG161081 DB	'RtlIpv4StringToAddressExA', 00H
	ORG $+6
$SG161084 DB	'RtlIpv6StringToAddressExA', 00H
	ORG $+2
$SG161161 DB	'a+bc', 00H
	ORG $+7
$SG161163 DB	'w32_fdopen', 00H
	ORG $+5
$SG161164 DB	'w32util.c', 00H
	ORG $+6
$SG161165 DB	'%s(%d) : warning HHC90999W : *** Assertion Failed! *** f'
	DB	'unction: %s', 0aH, 00H
	ORG $+3
$SG161167 DB	'w32_fdopen', 00H
	ORG $+5
$SG161168 DB	'w32util.c', 00H
	ORG $+6
$SG161198 DB	'w32_fwrite', 00H
	ORG $+5
$SG161259 DB	'w32_fprintf', 00H
	ORG $+12
$SG161169 DB	'%s(%d) : warning HHC90999W : *** Assertion Failed! *** f'
	DB	'unction: %s', 0aH, 00H
	ORG $+3
$SG161199 DB	'w32util.c', 00H
	ORG $+14
$SG161200 DB	'%s(%d) : warning HHC90999W : *** Assertion Failed! *** f'
	DB	'unction: %s', 0aH, 00H
	ORG $+3
$SG161202 DB	'w32_fwrite', 00H
	ORG $+5
$SG161203 DB	'w32util.c', 00H
	ORG $+14
$SG161204 DB	'%s(%d) : warning HHC90999W : *** Assertion Failed! *** f'
	DB	'unction: %s', 0aH, 00H
	ORG $+3
$SG161260 DB	'w32util.c', 00H
	ORG $+14
$SG161261 DB	'%s(%d) : warning HHC90999W : *** Assertion Failed! *** f'
	DB	'unction: %s', 0aH, 00H
	ORG $+3
$SG161263 DB	'w32_fprintf', 00H
	ORG $+4
$SG161264 DB	'w32util.c', 00H
	ORG $+14
$SG161265 DB	'%s(%d) : warning HHC90999W : *** Assertion Failed! *** f'
	DB	'unction: %s', 0aH, 00H
	ORG $+3
$SG161285 DB	'w32_fclose', 00H
	ORG $+5
$SG161286 DB	'w32util.c', 00H
	ORG $+14
$SG161287 DB	'%s(%d) : warning HHC90999W : *** Assertion Failed! *** f'
	DB	'unction: %s', 0aH, 00H
	ORG $+3
$SG161289 DB	'w32_fclose', 00H
	ORG $+5
$SG161290 DB	'w32util.c', 00H
	ORG $+14
$SG161291 DB	'%s(%d) : warning HHC90999W : *** Assertion Failed! *** f'
	DB	'unction: %s', 0aH, 00H
	ORG $+3
$SG161520 DB	'...(truncated)', 0aH, 00H
$SG161524 DB	'w32_poor_mans_fork', 00H
	ORG $+5
$SG161525 DB	'w32util.c', 00H
	ORG $+6
$SG161526 DB	'%s(%d) : warning HHC90999W : *** Assertion Failed! *** f'
	DB	'unction: %s', 0aH, 00H
	ORG $+3
$SG161528 DB	'w32_poor_mans_fork', 00H
	ORG $+5
$SG161529 DB	'w32util.c', 00H
	ORG $+6
$SG161530 DB	'%s(%d) : warning HHC90999W : *** Assertion Failed! *** f'
	DB	'unction: %s', 0aH, 00H
	ORG $+3
$SG161533 DB	'w32_poor_mans_fork', 00H
	ORG $+5
$SG161534 DB	'w32util.c', 00H
	ORG $+6
$SG161535 DB	'%s(%d) : warning HHC90999W : *** Assertion Failed! *** f'
	DB	'unction: %s', 0aH, 00H
	ORG $+3
$SG161537 DB	'w32_poor_mans_fork', 00H
	ORG $+5
$SG161538 DB	'w32util.c', 00H
	ORG $+6
$SG161539 DB	'%s(%d) : warning HHC90999W : *** Assertion Failed! *** f'
	DB	'unction: %s', 0aH, 00H
	ORG $+3
$SG161542 DB	'w32_poor_mans_fork', 00H
	ORG $+5
$SG161543 DB	'w32util.c', 00H
	ORG $+6
$SG161544 DB	'%s(%d) : warning HHC90999W : *** Assertion Failed! *** f'
	DB	'unction: %s', 0aH, 00H
	ORG $+3
$SG161546 DB	'w32_poor_mans_fork', 00H
	ORG $+5
$SG161547 DB	'w32util.c', 00H
	ORG $+6
$SG161548 DB	'%s(%d) : warning HHC90999W : *** Assertion Failed! *** f'
	DB	'unction: %s', 0aH, 00H
	ORG $+3
$SG161551 DB	'w32_poor_mans_fork', 00H
	ORG $+5
$SG161552 DB	'w32util.c', 00H
	ORG $+6
$SG161553 DB	'%s(%d) : warning HHC90999W : *** Assertion Failed! *** f'
	DB	'unction: %s', 0aH, 00H
	ORG $+3
$SG161555 DB	'w32_poor_mans_fork', 00H
	ORG $+5
$SG161556 DB	'w32util.c', 00H
	ORG $+6
$SG161557 DB	'%s(%d) : warning HHC90999W : *** Assertion Failed! *** f'
	DB	'unction: %s', 0aH, 00H
	ORG $+3
$SG161560 DB	'w32_poor_mans_fork', 00H
	ORG $+5
$SG161561 DB	'w32util.c', 00H
	ORG $+6
$SG161562 DB	'%s(%d) : warning HHC90999W : *** Assertion Failed! *** f'
	DB	'unction: %s', 0aH, 00H
	ORG $+3
$SG161564 DB	'w32_poor_mans_fork', 00H
	ORG $+5
$SG161565 DB	'w32util.c', 00H
	ORG $+6
$SG161566 DB	'%s(%d) : warning HHC90999W : *** Assertion Failed! *** f'
	DB	'unction: %s', 0aH, 00H
	ORG $+3
$SG161569 DB	'w32_poor_mans_fork', 00H
	ORG $+5
$SG161570 DB	'w32util.c', 00H
	ORG $+6
$SG161571 DB	'%s(%d) : warning HHC90999W : *** Assertion Failed! *** f'
	DB	'unction: %s', 0aH, 00H
	ORG $+3
$SG161573 DB	'w32_poor_mans_fork', 00H
	ORG $+5
$SG161574 DB	'w32util.c', 00H
	ORG $+6
$SG161575 DB	'%s(%d) : warning HHC90999W : *** Assertion Failed! *** f'
	DB	'unction: %s', 0aH, 00H
	ORG $+3
$SG161578 DB	'w32_poor_mans_fork', 00H
	ORG $+5
$SG161579 DB	'w32util.c', 00H
	ORG $+6
$SG161580 DB	'%s(%d) : warning HHC90999W : *** Assertion Failed! *** f'
	DB	'unction: %s', 0aH, 00H
	ORG $+3
$SG161582 DB	'w32_poor_mans_fork', 00H
	ORG $+5
$SG161583 DB	'w32util.c', 00H
	ORG $+6
$SG161584 DB	'%s(%d) : warning HHC90999W : *** Assertion Failed! *** f'
	DB	'unction: %s', 0aH, 00H
	ORG $+3
$SG161587 DB	'w32_poor_mans_fork', 00H
	ORG $+5
$SG161588 DB	'w32util.c', 00H
	ORG $+6
$SG161589 DB	'%s(%d) : warning HHC90999W : *** Assertion Failed! *** f'
	DB	'unction: %s', 0aH, 00H
	ORG $+3
$SG161591 DB	'w32_poor_mans_fork', 00H
	ORG $+5
$SG161592 DB	'w32util.c', 00H
	ORG $+6
$SG161593 DB	'%s(%d) : warning HHC90999W : *** Assertion Failed! *** f'
	DB	'unction: %s', 0aH, 00H
	ORG $+3
$SG161596 DB	'w32_poor_mans_fork', 00H
	ORG $+5
$SG161597 DB	'w32util.c', 00H
	ORG $+6
$SG161598 DB	'%s(%d) : warning HHC90999W : *** Assertion Failed! *** f'
	DB	'unction: %s', 0aH, 00H
	ORG $+3
$SG161600 DB	'w32_poor_mans_fork', 00H
	ORG $+5
$SG161601 DB	'w32util.c', 00H
	ORG $+6
$SG161602 DB	'%s(%d) : warning HHC90999W : *** Assertion Failed! *** f'
	DB	'unction: %s', 0aH, 00H
	ORG $+3
$SG161606 DB	'w32_poor_mans_fork', 00H
	ORG $+5
$SG161607 DB	'w32util.c', 00H
	ORG $+6
$SG161608 DB	'%s(%d) : warning HHC90999W : *** Assertion Failed! *** f'
	DB	'unction: %s', 0aH, 00H
	ORG $+3
$SG161610 DB	'w32_poor_mans_fork', 00H
	ORG $+5
$SG161611 DB	'w32util.c', 00H
	ORG $+6
$SG161612 DB	'%s(%d) : warning HHC90999W : *** Assertion Failed! *** f'
	DB	'unction: %s', 0aH, 00H
	ORG $+3
$SG161615 DB	'w32_poor_mans_fork', 00H
	ORG $+5
$SG161616 DB	'w32util.c', 00H
	ORG $+6
$SG161617 DB	'%s(%d) : warning HHC90999W : *** Assertion Failed! *** f'
	DB	'unction: %s', 0aH, 00H
	ORG $+3
$SG161619 DB	'w32_poor_mans_fork', 00H
	ORG $+5
$SG161620 DB	'w32util.c', 00H
	ORG $+6
$SG161621 DB	'%s(%d) : warning HHC90999W : *** Assertion Failed! *** f'
	DB	'unction: %s', 0aH, 00H
	ORG $+3
$SG161624 DB	'w32_poor_mans_fork', 00H
	ORG $+5
$SG161625 DB	'w32util.c', 00H
	ORG $+6
$SG161626 DB	'%s(%d) : warning HHC90999W : *** Assertion Failed! *** f'
	DB	'unction: %s', 0aH, 00H
	ORG $+3
$SG161628 DB	'w32_poor_mans_fork', 00H
	ORG $+5
$SG161629 DB	'w32util.c', 00H
	ORG $+6
$SG161630 DB	'%s(%d) : warning HHC90999W : *** Assertion Failed! *** f'
	DB	'unction: %s', 0aH, 00H
	ORG $+3
$SG161633 DB	'*** CreateProcess() failed! rc = %d : %s', 0aH, 00H
	ORG $+6
$SG161635 DB	'*** CreateProcess() failed! rc = %d : %s', 0aH, 00H
	ORG $+6
$SG161638 DB	'w32_poor_mans_fork', 00H
	ORG $+5
$SG161639 DB	'w32util.c', 00H
	ORG $+6
$SG161640 DB	'%s(%d) : warning HHC90999W : *** Assertion Failed! *** f'
	DB	'unction: %s', 0aH, 00H
	ORG $+3
$SG161642 DB	'w32_poor_mans_fork', 00H
	ORG $+5
$SG161643 DB	'w32util.c', 00H
	ORG $+6
$SG161644 DB	'%s(%d) : warning HHC90999W : *** Assertion Failed! *** f'
	DB	'unction: %s', 0aH, 00H
	ORG $+3
$SG161647 DB	'w32_poor_mans_fork', 00H
	ORG $+5
$SG161648 DB	'w32util.c', 00H
	ORG $+6
$SG161649 DB	'%s(%d) : warning HHC90999W : *** Assertion Failed! *** f'
	DB	'unction: %s', 0aH, 00H
	ORG $+3
$SG161651 DB	'w32_poor_mans_fork', 00H
	ORG $+5
$SG161652 DB	'w32util.c', 00H
	ORG $+6
$SG161653 DB	'%s(%d) : warning HHC90999W : *** Assertion Failed! *** f'
	DB	'unction: %s', 0aH, 00H
	ORG $+3
$SG161656 DB	'w32_poor_mans_fork', 00H
	ORG $+5
$SG161657 DB	'w32util.c', 00H
	ORG $+6
$SG161658 DB	'%s(%d) : warning HHC90999W : *** Assertion Failed! *** f'
	DB	'unction: %s', 0aH, 00H
	ORG $+3
$SG161660 DB	'w32_poor_mans_fork', 00H
	ORG $+5
$SG161661 DB	'w32util.c', 00H
	ORG $+6
$SG161662 DB	'%s(%d) : warning HHC90999W : *** Assertion Failed! *** f'
	DB	'unction: %s', 0aH, 00H
	ORG $+3
$SG161668 DB	'*** _beginthreadex() failed! rc = %d : %s', 0aH, 00H
	ORG $+5
$SG161670 DB	'*** _beginthreadex() failed! rc = %d : %s', 0aH, 00H
	ORG $+5
$SG161673 DB	'w32_poor_mans_fork', 00H
	ORG $+5
$SG161674 DB	'w32util.c', 00H
	ORG $+6
$SG161675 DB	'%s(%d) : warning HHC90999W : *** Assertion Failed! *** f'
	DB	'unction: %s', 0aH, 00H
	ORG $+3
$SG161677 DB	'w32_poor_mans_fork', 00H
	ORG $+5
$SG161678 DB	'w32util.c', 00H
	ORG $+6
$SG161679 DB	'%s(%d) : warning HHC90999W : *** Assertion Failed! *** f'
	DB	'unction: %s', 0aH, 00H
	ORG $+3
$SG161682 DB	'w32_poor_mans_fork', 00H
	ORG $+5
$SG161683 DB	'w32util.c', 00H
	ORG $+6
$SG161684 DB	'%s(%d) : warning HHC90999W : *** Assertion Failed! *** f'
	DB	'unction: %s', 0aH, 00H
	ORG $+3
$SG161686 DB	'w32_poor_mans_fork', 00H
	ORG $+5
$SG161687 DB	'w32util.c', 00H
	ORG $+6
$SG161688 DB	'%s(%d) : warning HHC90999W : *** Assertion Failed! *** f'
	DB	'unction: %s', 0aH, 00H
	ORG $+3
$SG161691 DB	'w32_poor_mans_fork', 00H
	ORG $+5
$SG161692 DB	'w32util.c', 00H
	ORG $+6
$SG161693 DB	'%s(%d) : warning HHC90999W : *** Assertion Failed! *** f'
	DB	'unction: %s', 0aH, 00H
	ORG $+3
$SG161695 DB	'w32_poor_mans_fork', 00H
	ORG $+5
$SG161696 DB	'w32util.c', 00H
	ORG $+6
$SG161697 DB	'%s(%d) : warning HHC90999W : *** Assertion Failed! *** f'
	DB	'unction: %s', 0aH, 00H
	ORG $+3
$SG161700 DB	'w32_pipe_stdOUT', 00H
$SG161701 DB	'w32_pipe_stdOUT', 00H
$SG161704 DB	'*** _beginthreadex() failed! rc = %d : %s', 0aH, 00H
	ORG $+5
$SG161706 DB	'*** _beginthreadex() failed! rc = %d : %s', 0aH, 00H
	ORG $+5
$SG161709 DB	'w32_poor_mans_fork', 00H
	ORG $+5
$SG161710 DB	'w32util.c', 00H
	ORG $+6
$SG161711 DB	'%s(%d) : warning HHC90999W : *** Assertion Failed! *** f'
	DB	'unction: %s', 0aH, 00H
	ORG $+3
$SG161713 DB	'w32_poor_mans_fork', 00H
	ORG $+5
$SG161714 DB	'w32util.c', 00H
	ORG $+6
$SG161715 DB	'%s(%d) : warning HHC90999W : *** Assertion Failed! *** f'
	DB	'unction: %s', 0aH, 00H
	ORG $+3
$SG161718 DB	'w32_poor_mans_fork', 00H
	ORG $+5
$SG161719 DB	'w32util.c', 00H
	ORG $+6
$SG161720 DB	'%s(%d) : warning HHC90999W : *** Assertion Failed! *** f'
	DB	'unction: %s', 0aH, 00H
	ORG $+3
$SG161722 DB	'w32_poor_mans_fork', 00H
	ORG $+5
$SG161723 DB	'w32util.c', 00H
	ORG $+6
$SG161724 DB	'%s(%d) : warning HHC90999W : *** Assertion Failed! *** f'
	DB	'unction: %s', 0aH, 00H
	ORG $+3
$SG161727 DB	'w32_poor_mans_fork', 00H
	ORG $+5
$SG161728 DB	'w32util.c', 00H
	ORG $+6
$SG161729 DB	'%s(%d) : warning HHC90999W : *** Assertion Failed! *** f'
	DB	'unction: %s', 0aH, 00H
	ORG $+3
$SG161731 DB	'w32_poor_mans_fork', 00H
	ORG $+5
$SG161732 DB	'w32util.c', 00H
	ORG $+6
$SG161733 DB	'%s(%d) : warning HHC90999W : *** Assertion Failed! *** f'
	DB	'unction: %s', 0aH, 00H
	ORG $+3
$SG161736 DB	'w32_pipe_stdERR', 00H
$SG161737 DB	'w32_pipe_stdERR', 00H
$SG161783 DB	'w32_read_piped_process_stdxxx_output_thread', 00H
	ORG $+4
$SG161784 DB	'w32util.c', 00H
	ORG $+14
$SG161785 DB	'%s(%d) : warning HHC90999W : *** Assertion Failed! *** f'
	DB	'unction: %s', 0aH, 00H
	ORG $+3
$SG161787 DB	'w32_read_piped_process_stdxxx_output_thread', 00H
	ORG $+4
$SG161788 DB	'w32util.c', 00H
	ORG $+14
$SG161789 DB	'%s(%d) : warning HHC90999W : *** Assertion Failed! *** f'
	DB	'unction: %s', 0aH, 00H
	ORG $+3
$SG161844 DB	'w32_parse_piped_process_stdxxx_data', 00H
	ORG $+4
$SG161845 DB	'w32util.c', 00H
	ORG $+6
$SG161846 DB	'%s(%d) : warning HHC90999W : *** Assertion Failed! *** f'
	DB	'unction: %s', 0aH, 00H
	ORG $+3
$SG161848 DB	'w32_parse_piped_process_stdxxx_data', 00H
	ORG $+4
$SG161849 DB	'w32util.c', 00H
	ORG $+6
$SG161850 DB	'%s(%d) : warning HHC90999W : *** Assertion Failed! *** f'
	DB	'unction: %s', 0aH, 00H
	ORG $+3
$SG161854 DB	'w32_parse_piped_process_stdxxx_data', 00H
	ORG $+4
$SG161855 DB	'w32util.c', 00H
	ORG $+6
$SG161856 DB	'%s(%d) : warning HHC90999W : *** Assertion Failed! *** f'
	DB	'unction: %s', 0aH, 00H
	ORG $+3
$SG161858 DB	'w32_parse_piped_process_stdxxx_data', 00H
	ORG $+4
$SG161859 DB	'w32util.c', 00H
	ORG $+6
$SG161860 DB	'%s(%d) : warning HHC90999W : *** Assertion Failed! *** f'
	DB	'unction: %s', 0aH, 00H
	ORG $+3
$SG161864 DB	'w32_parse_piped_process_stdxxx_data', 00H
	ORG $+4
$SG161865 DB	'w32util.c', 00H
	ORG $+6
$SG161866 DB	'%s(%d) : warning HHC90999W : *** Assertion Failed! *** f'
	DB	'unction: %s', 0aH, 00H
	ORG $+3
$SG161868 DB	'w32_parse_piped_process_stdxxx_data', 00H
	ORG $+4
$SG161869 DB	'w32util.c', 00H
	ORG $+6
$SG161870 DB	'%s(%d) : warning HHC90999W : *** Assertion Failed! *** f'
	DB	'unction: %s', 0aH, 00H
	ORG $+3
$SG161873 DB	'*** ParseStdxxxMsg logic error! ***', 0aH, 00H
	ORG $+3
$SG161875 DB	'*** ParseStdxxxMsg logic error! ***', 0aH, 00H
	ORG $+3
$SG161877 DB	'w32_parse_piped_process_stdxxx_data', 00H
	ORG $+4
$SG161878 DB	'w32util.c', 00H
	ORG $+6
$SG161879 DB	'%s(%d) : warning HHC90999W : *** Assertion Failed! *** f'
	DB	'unction: %s', 0aH, 00H
	ORG $+3
$SG161881 DB	'w32_parse_piped_process_stdxxx_data', 00H
	ORG $+4
$SG161882 DB	'w32util.c', 00H
	ORG $+6
$SG161883 DB	'%s(%d) : warning HHC90999W : *** Assertion Failed! *** f'
	DB	'unction: %s', 0aH, 00H
	ORG $+3
$SG161997 DB	'Error opening ''%s''; errno(%d) %s', 00H
	ORG $+7
$SG161999 DB	'HHC90000%s DBG: %s', 0aH, 00H
	ORG $+4
$SG162000 DB	'w32_hopen', 00H
	ORG $+6
$SG162001 DB	'w32util.c', 00H
_DATA	ENDS
voltbl	SEGMENT
_volmd	DD	0ffffffffH
	DDSymXIndex: 	FLAT:w32_read_piped_process_stdxxx_output_thread
	DD	018H
	DD	023bH
_volmd	DD	0ffffffffH
	DDSymXIndex: 	FLAT:internal_set_socket_keepalive
	DD	023H
	DD	01baH
_volmd	DD	0ffffffffH
	DDSymXIndex: 	FLAT:kasock_init
	DD	013H
	DD	03d9H
_volmd	DD	0ffffffffH
	DDSymXIndex: 	FLAT:CreateReadStdInThread
	DD	011H
	DD	03bfH
_volmd	DD	0ffffffffH
	DDSymXIndex: 	FLAT:ReadStdInThread
	DD	016H
	DD	01eeH
_volmd	DD	0ffffffffH
	DDSymXIndex: 	FLAT:w32_nanosleep
	DD	018H
	DD	06fcH
_volmd	DD	0ffffffffH
	DDSymXIndex: 	FLAT:w32_dirname
	DD	017H
	DD	016eH
_volmd	DD	0ffffffffH
	DDSymXIndex: 	FLAT:w32_basename
	DD	017H
	DD	0151H
_volmd	DD	0ffffffffH
	DDSymXIndex: 	FLAT:w32_hopen
	DD	024H
	DD	01c9H
_volmd	DD	0ffffffffH
	DDSymXIndex: 	FLAT:w32_fdopen
	DD	01aH
	DD	0372H
_volmd	DD	0ffffffffH
	DDSymXIndex: 	FLAT:w32_select
	DD	02aH
	DD	0543H
_volmd	DD	0ffffffffH
	DDSymXIndex: 	FLAT:w32_init_hostinfo
	DD	019H
	DD	0155fH
_volmd	DD	0ffffffffH
	DDSymXIndex: 	FLAT:get_process_directory
	DD	01bH
	DD	0bfH
_volmd	DD	0ffffffffH
	DDSymXIndex: 	FLAT:socket_init
	DD	011H
	DD	05aH
_volmd	DD	0ffffffffH
	DDSymXIndex: 	FLAT:gethostid
	DD	011H
	DD	079H
_volmd	DD	0ffffffffH
	DDSymXIndex: 	FLAT:getrusage
	DD	01bH
	DD	0385H
_volmd	DD	0ffffffffH
	DDSymXIndex: 	FLAT:scandir
	DD	026H
	DD	028cH
_volmd	DD	0ffffffffH
	DDSymXIndex: 	FLAT:usleep
	DD	012H
	DD	06cH
_volmd	DD	0ffffffffH
	DDSymXIndex: 	FLAT:gettimeofday
	DD	019H
	DD	01d1H
_volmd	DD	0ffffffffH
	DDSymXIndex: 	FLAT:clock_gettime
	DD	01aH
	DD	0795H
_volmd	DD	0ffffffffH
	DDSymXIndex: 	FLAT:socketpair
	DD	024H
	DD	0303H
voltbl	ENDS
xdata	SEGMENT
$unwind$DebuggerTrace DD 011801H
	DD	0a218H
$unwind$are_elevated DD 020601H
	DD	070029206H
$unwind$w32_trans_w32error DD 010801H
	DD	02208H
$unwind$w32_strerror DD 010801H
	DD	04208H
$unwind$w32_strerror_r DD 011201H
	DD	04212H
$unwind$w32_w32errmsg DD 011201H
	DD	0a212H
$unwind$w32_NtStatusToLastError DD 010801H
	DD	0a208H
$unwind$socketpair DD 032c19H
	DD	012011aH
	DD	07013H
	DD	imagerel __GSHandlerCheck
	DD	080H
$unwind$fork DD	010401H
	DD	04204H
$unwind$strtok_r DD 011301H
	DD	04213H
$unwind$clock_gettime DD 022219H
	DD	0170110H
	DD	imagerel __GSHandlerCheck
	DD	0a0H
$unwind$gettimeofday DD 021e19H
	DD	0700b920fH
	DD	imagerel __GSHandlerCheck
	DD	040H
$unwind$nanosleep DD 010e01H
	DD	0620eH
$unwind$usleep DD 011719H
	DD	08208H
	DD	imagerel __GSHandlerCheck
	DD	038H
$unwind$sleep DD 010801H
	DD	04208H
$unwind$sched_yield DD 010401H
	DD	04204H
$unwind$scandir DD 032e19H
	DD	058011cH
	DD	07015H
	DD	imagerel __GSHandlerCheck
	DD	02b0H
$unwind$alphasort DD 010e01H
	DD	0420eH
$unwind$getrusage DD 032319H
	DD	0320111H
	DD	0700aH
	DD	imagerel __GSHandlerCheck
	DD	0180H
$unwind$getlogin DD 010401H
	DD	06204H
$unwind$getlogin_r DD 010e01H
	DD	0620eH
$unwind$realpath DD 010e01H
	DD	0620eH
$unwind$inet_aton DD 010e01H
	DD	0620eH
$unwind$hostpath DD 011301H
	DD	06213H
$unwind$get_file_accmode_flags DD 010801H
	DD	0a208H
$unwind$gethostid DD 021919H
	DD	0290107H
	DD	imagerel __GSHandlerCheck
	DD	0130H
$unwind$socket_init DD 021919H
	DD	03d0107H
	DD	imagerel __GSHandlerCheck
	DD	01d0H
$unwind$socket_set_blocking_mode DD 010c01H
	DD	0620cH
$unwind$socket_is_socket DD 010801H
	DD	0a208H
$unwind$set_socket_keepalive DD 011601H
	DD	06216H
$unwind$get_socket_keepalive DD 011701H
	DD	06217H
$unwind$get_process_directory DD 022319H
	DD	02b0111H
	DD	imagerel __GSHandlerCheck
	DD	0140H
$unwind$expand_environ_vars DD 011301H
	DD	06213H
$unwind$w32_init_hostinfo DD 052119H
	DD	052010fH
	DD	060077008H
	DD	03006H
	DD	imagerel __GSHandlerCheck
	DD	0280H
$unwind$w32_socket DD 011101H
	DD	08211H
$unwind$w32_accept DD 011201H
	DD	08212H
$unwind$w32_close_socket DD 010801H
	DD	06208H
$unwind$w32_FD_SET DD 010d01H
	DD	0620dH
$unwind$w32_FD_ISSET DD 010d01H
	DD	0620dH
$unwind$w32_select DD 023219H
	DD	086f0120H
	DD	imagerel __GSHandlerCheck
	DD	04360H
$unwind$w32_pselect DD 011701H
	DD	0a217H
$unwind$w32_if_nametoindex DD 010901H
	DD	06209H
$unwind$w32_inet_ntop DD 011701H
	DD	08217H
$unwind$w32_inet_pton DD 011201H
	DD	08212H
$unwind$w32_fdopen DD 022219H
	DD	0330110H
	DD	imagerel __GSHandlerCheck
	DD	0180H
$unwind$w32_fwrite DD 011801H
	DD	08218H
$unwind$w32_vsnprintf DD 011801H
	DD	08218H
$unwind$w32_snprintf DD 011801H
	DD	06218H
$unwind$w32_fprintf DD 011801H
	DD	0a218H
$unwind$w32_fclose DD 010901H
	DD	08209H
$unwind$w32_get_stdin_char DD 010d01H
	DD	0420dH
$unwind$w32_poor_mans_fork DD 031201H
	DD	0320112H
	DD	0700bH
$unwind$w32_set_thread_name DD 010d09H
	DD	0820dH
	DD	imagerel __C_specific_handler
	DD	01H
	DD	imagerel $LN10+57
	DD	imagerel $LN10+83
	DD	imagerel w32_set_thread_name$filt$0
	DD	imagerel $LN10+83
$unwind$w32_set_thread_name$filt$0 DD 020601H
	DD	050023206H
$unwind$w32_hpagesize DD 010401H
	DD	0a204H
$unwind$w32_mlock DD 010e01H
	DD	0620eH
$unwind$w32_munlock DD 010e01H
	DD	0620eH
$unwind$w32_hopen DD 022c19H
	DD	051011aH
	DD	imagerel __GSHandlerCheck
	DD	0270H
$unwind$w32_basename DD 031f19H
	DD	06e010dH
	DD	07006H
	DD	imagerel __GSHandlerCheck
	DD	0360H
$unwind$w32_dirname DD 031f19H
	DD	050010dH
	DD	07006H
	DD	imagerel __GSHandlerCheck
	DD	0270H
$unwind$w32_strcasestr DD 010e01H
	DD	0820eH
$unwind$DisableInvalidParameterHandling DD 010401H
	DD	04204H
$unwind$EnableInvalidParameterHandling DD 010401H
	DD	04204H
$unwind$FileTimeTo1970Nanoseconds DD 010901H
	DD	06209H
$unwind$w32_nanosleep DD 041d19H
	DD	011010eH
	DD	060067007H
	DD	imagerel __GSHandlerCheck
	DD	078H
$unwind$rusage_failure DD 010901H
	DD	04209H
$unwind$FileTime2us DD 010901H
	DD	02209H
$unwind$FileTime2timeval DD 010e01H
	DD	0420eH
$unwind$DoGetRUsage DD 011101H
	DD	0c211H
$unwind$CountSetBits DD 010901H
	DD	04209H
$unwind$ReadStdInThread DD 021e19H
	DD	06d010cH
	DD	imagerel __GSHandlerCheck
	DD	0350H
$unwind$CreateReadStdInThread DD 021919H
	DD	0310107H
	DD	imagerel __GSHandlerCheck
	DD	0170H
$unwind$kasock_init DD 031b19H
	DD	0280109H
	DD	07002H
	DD	imagerel __GSHandlerCheck
	DD	0130H
$unwind$lock_kasock_list DD 010401H
	DD	04204H
$unwind$unlock_kasock_list DD 010401H
	DD	04204H
$unwind$get_kasock DD 010901H
	DD	06209H
$unwind$add_kasock DD 010901H
	DD	08209H
$unwind$rem_kasock DD 010901H
	DD	08209H
$unwind$internal_set_socket_keepalive DD 022b19H
	DD	0130119H
	DD	imagerel __GSHandlerCheck
	DD	088H
$unwind$SelectSet DD 011801H
	DD	06218H
$unwind$w32_read_piped_process_stdxxx_output_thread DD 042019H
	DD	018f010eH
	DD	060067007H
	DD	imagerel __GSHandlerCheck
	DD	0c60H
$unwind$w32_parse_piped_process_stdxxx_data DD 031501H
	DD	07011a215H
	DD	06010H
xdata	ENDS
;	COMDAT xdata
xdata	SEGMENT
$unwind$_snprintf DD 011801H
	DD	06218H
xdata	ENDS
;	COMDAT xdata
xdata	SEGMENT
$unwind$_vscprintf DD 010e01H
	DD	0420eH
xdata	ENDS
;	COMDAT xdata
xdata	SEGMENT
$unwind$_vscprintf_l DD 011301H
	DD	08213H
xdata	ENDS
;	COMDAT xdata
xdata	SEGMENT
$unwind$_vsnprintf_s DD 011801H
	DD	06218H
xdata	ENDS
;	COMDAT xdata
xdata	SEGMENT
$unwind$_vsnprintf_s_l DD 011801H
	DD	0a218H
xdata	ENDS
;	COMDAT xdata
xdata	SEGMENT
$unwind$_vsnprintf DD 011801H
	DD	06218H
xdata	ENDS
;	COMDAT xdata
xdata	SEGMENT
$unwind$_vsnprintf_l DD 011801H
	DD	08218H
xdata	ENDS
;	COMDAT xdata
xdata	SEGMENT
$unwind$vfprintf DD 011301H
	DD	04213H
xdata	ENDS
;	COMDAT xdata
xdata	SEGMENT
$unwind$_vfprintf_l DD 011801H
	DD	06218H
xdata	ENDS
; Function compile flags: /Odtp
; File C:\papa\MyGit\hyperion-zvector\w32util.c
_TEXT	SEGMENT
nlen$ = 32
ntotlen$ = 36
pbeg$ = 40
pend$ = 48
pmsgend$ = 56
nNewStrLen$1 = 64
nAllocSizeNeeded$2 = 72
pPipedProcessCtl$ = 112
holdbuff$ = 120
pnHoldAmount$ = 128
w32_parse_piped_process_stdxxx_data PROC

; 4353 : {

$LN56:
  00000	4c 89 44 24 18	 mov	 QWORD PTR [rsp+24], r8
  00005	48 89 54 24 10	 mov	 QWORD PTR [rsp+16], rdx
  0000a	48 89 4c 24 08	 mov	 QWORD PTR [rsp+8], rcx
  0000f	56		 push	 rsi
  00010	57		 push	 rdi
  00011	48 83 ec 58	 sub	 rsp, 88			; 00000058H

; 4354 :     // This function executes in the context of the worker thread that calls it.
; 4355 : 
; 4356 :     char* pbeg;                         // ptr to start of message
; 4357 :     char* pend;                         // find end of message (MUST NOT BE MODIFIED!)
; 4358 :     char* pmsgend;                      // work ptr to end of message
; 4359 :                                         // 'pend' variable MUST NOT BE MODIFIED
; 4360 :     int nlen;                           // work length of one message
; 4361 :     int ntotlen;                        // accumulated length of all parsed messages
; 4362 : 
; 4363 :     // A worker thread that monitors a child's Stdout o/p has received a message
; 4364 :     // and is calling this function to determine what, if anything, to do with it.
; 4365 : 
; 4366 :     // (Note: the worker thread that calls us ensures holdbuff is null terminated)
; 4367 : 
; 4368 :     pbeg = holdbuff;                    // ptr to start of message

  00015	48 8b 44 24 78	 mov	 rax, QWORD PTR holdbuff$[rsp]
  0001a	48 89 44 24 28	 mov	 QWORD PTR pbeg$[rsp], rax

; 4369 :     pend = strchr(pbeg,'\n');           // find end of message (MUST NOT BE MODIFIED!)

  0001f	ba 0a 00 00 00	 mov	 edx, 10
  00024	48 8b 4c 24 28	 mov	 rcx, QWORD PTR pbeg$[rsp]
  00029	e8 00 00 00 00	 call	 strchr
  0002e	48 89 44 24 30	 mov	 QWORD PTR pend$[rsp], rax

; 4370 :     if (!pend) return;                  // we don't we have a complete message yet

  00033	48 83 7c 24 30
	00		 cmp	 QWORD PTR pend$[rsp], 0
  00039	75 05		 jne	 SHORT $LN34@w32_parse_
  0003b	e9 3d 04 00 00	 jmp	 $LN1@w32_parse_
$LN34@w32_parse_:

; 4371 :     ntotlen = 0;                        // accumulated length of all parsed messages

  00040	c7 44 24 24 00
	00 00 00	 mov	 DWORD PTR ntotlen$[rsp], 0
$LN4@w32_parse_:

; 4372 : 
; 4373 :     // Parse the message...
; 4374 : 
; 4375 :     do
; 4376 :     {
; 4377 :         nlen = (pend-pbeg);             // get length of THIS message

  00048	48 8b 44 24 28	 mov	 rax, QWORD PTR pbeg$[rsp]
  0004d	48 8b 4c 24 30	 mov	 rcx, QWORD PTR pend$[rsp]
  00052	48 2b c8	 sub	 rcx, rax
  00055	48 8b c1	 mov	 rax, rcx
  00058	89 44 24 20	 mov	 DWORD PTR nlen$[rsp], eax

; 4378 :         ntotlen += nlen + 1;            // keep track of all that we see

  0005c	8b 44 24 24	 mov	 eax, DWORD PTR ntotlen$[rsp]
  00060	8b 4c 24 20	 mov	 ecx, DWORD PTR nlen$[rsp]
  00064	8d 44 08 01	 lea	 eax, DWORD PTR [rax+rcx+1]
  00068	89 44 24 24	 mov	 DWORD PTR ntotlen$[rsp], eax

; 4379 : 
; 4380 :         // Remove trailing newline character and any other trailing blanks...
; 4381 : 
; 4382 :         // (Note: we MUST NOT MODIFY the 'pend' variable. It should always
; 4383 :         // point to where the newline character was found so we can start
; 4384 :         // looking for the next message (if there is one) where this message
; 4385 :         // ended).
; 4386 : 
; 4387 :         *pend = 0;                      // (change newline character to null)

  0006c	48 8b 44 24 30	 mov	 rax, QWORD PTR pend$[rsp]
  00071	c6 00 00	 mov	 BYTE PTR [rax], 0

; 4388 :         pmsgend = pend;                 // (start removing blanks from here)

  00074	48 8b 44 24 30	 mov	 rax, QWORD PTR pend$[rsp]
  00079	48 89 44 24 38	 mov	 QWORD PTR pmsgend$[rsp], rax
$LN5@w32_parse_:

; 4389 : 
; 4390 :         while (--pmsgend >= pbeg && isspace(*pmsgend)) {*pmsgend = 0; --nlen;}

  0007e	48 8b 44 24 38	 mov	 rax, QWORD PTR pmsgend$[rsp]
  00083	48 ff c8	 dec	 rax
  00086	48 89 44 24 38	 mov	 QWORD PTR pmsgend$[rsp], rax
  0008b	48 8b 44 24 28	 mov	 rax, QWORD PTR pbeg$[rsp]
  00090	48 39 44 24 38	 cmp	 QWORD PTR pmsgend$[rsp], rax
  00095	72 28		 jb	 SHORT $LN6@w32_parse_
  00097	48 8b 44 24 38	 mov	 rax, QWORD PTR pmsgend$[rsp]
  0009c	0f be 00	 movsx	 eax, BYTE PTR [rax]
  0009f	8b c8		 mov	 ecx, eax
  000a1	ff 15 00 00 00
	00		 call	 QWORD PTR __imp_isspace
  000a7	85 c0		 test	 eax, eax
  000a9	74 14		 je	 SHORT $LN6@w32_parse_
  000ab	48 8b 44 24 38	 mov	 rax, QWORD PTR pmsgend$[rsp]
  000b0	c6 00 00	 mov	 BYTE PTR [rax], 0
  000b3	8b 44 24 20	 mov	 eax, DWORD PTR nlen$[rsp]
  000b7	ff c8		 dec	 eax
  000b9	89 44 24 20	 mov	 DWORD PTR nlen$[rsp], eax
  000bd	eb bf		 jmp	 SHORT $LN5@w32_parse_
$LN6@w32_parse_:

; 4391 : 
; 4392 :         // If we were passed a PIPED_PROCESS_CTL pointer, then the root thread
; 4393 :         // wants us to just capture the o/p and IT will issue the logmsg within
; 4394 :         // its own thread. Otherwise root thread isn't interested in capturing
; 4395 :         // and thus we must issue the individual logmsg's ourselves...
; 4396 : 
; 4397 :         if (!pPipedProcessCtl)

  000bf	48 83 7c 24 70
	00		 cmp	 QWORD PTR pPipedProcessCtl$[rsp], 0
  000c5	75 16		 jne	 SHORT $LN35@w32_parse_

; 4398 :         {
; 4399 :             logmsg("%s\n",pbeg);    // send all child's msgs to Herc console

  000c7	48 8b 54 24 28	 mov	 rdx, QWORD PTR pbeg$[rsp]
  000cc	48 8d 0d 00 00
	00 00		 lea	 rcx, OFFSET FLAT:$SG161841
  000d3	e8 00 00 00 00	 call	 logmsg

; 4400 :         }

  000d8	e9 fb 01 00 00	 jmp	 $LN36@w32_parse_
$LN35@w32_parse_:

; 4401 :         else
; 4402 :         {
; 4403 :             size_t  nNewStrLen, nAllocSizeNeeded;   // (work)
; 4404 : 
; 4405 :             EnterCriticalSection( &pPipedProcessCtl->csLock );

  000dd	48 8b 44 24 70	 mov	 rax, QWORD PTR pPipedProcessCtl$[rsp]
  000e2	48 83 c0 18	 add	 rax, 24
  000e6	48 8b c8	 mov	 rcx, rax
  000e9	ff 15 00 00 00
	00		 call	 QWORD PTR __imp_EnterCriticalSection

; 4406 : 
; 4407 :             nNewStrLen        = strlen( pbeg );

  000ef	48 8b 4c 24 28	 mov	 rcx, QWORD PTR pbeg$[rsp]
  000f4	e8 00 00 00 00	 call	 strlen
  000f9	48 89 44 24 40	 mov	 QWORD PTR nNewStrLen$1[rsp], rax

; 4408 :             nAllocSizeNeeded  = ((((pPipedProcessCtl->nStrLen + nNewStrLen + 2) / 4096) + 1) * 4096);

  000fe	48 8b 44 24 70	 mov	 rax, QWORD PTR pPipedProcessCtl$[rsp]
  00103	48 8b 40 10	 mov	 rax, QWORD PTR [rax+16]
  00107	48 8b 4c 24 40	 mov	 rcx, QWORD PTR nNewStrLen$1[rsp]
  0010c	48 8d 44 08 02	 lea	 rax, QWORD PTR [rax+rcx+2]
  00111	33 d2		 xor	 edx, edx
  00113	b9 00 10 00 00	 mov	 ecx, 4096		; 00001000H
  00118	48 f7 f1	 div	 rcx
  0011b	48 ff c0	 inc	 rax
  0011e	48 69 c0 00 10
	00 00		 imul	 rax, rax, 4096		; 00001000H
  00125	48 89 44 24 48	 mov	 QWORD PTR nAllocSizeNeeded$2[rsp], rax

; 4409 : 
; 4410 :             if ( nAllocSizeNeeded > pPipedProcessCtl->nAllocSize )

  0012a	48 8b 44 24 70	 mov	 rax, QWORD PTR pPipedProcessCtl$[rsp]
  0012f	48 8b 40 08	 mov	 rax, QWORD PTR [rax+8]
  00133	48 39 44 24 48	 cmp	 QWORD PTR nAllocSizeNeeded$2[rsp], rax
  00138	0f 86 95 00 00
	00		 jbe	 $LN37@w32_parse_

; 4411 :             {
; 4412 :                 pPipedProcessCtl->nAllocSize = nAllocSizeNeeded;

  0013e	48 8b 44 24 70	 mov	 rax, QWORD PTR pPipedProcessCtl$[rsp]
  00143	48 8b 4c 24 48	 mov	 rcx, QWORD PTR nAllocSizeNeeded$2[rsp]
  00148	48 89 48 08	 mov	 QWORD PTR [rax+8], rcx

; 4413 :                 pPipedProcessCtl->pszBuffer  = realloc( pPipedProcessCtl->pszBuffer, nAllocSizeNeeded );

  0014c	48 8b 54 24 48	 mov	 rdx, QWORD PTR nAllocSizeNeeded$2[rsp]
  00151	48 8b 44 24 70	 mov	 rax, QWORD PTR pPipedProcessCtl$[rsp]
  00156	48 8b 08	 mov	 rcx, QWORD PTR [rax]
  00159	ff 15 00 00 00
	00		 call	 QWORD PTR __imp_realloc
  0015f	48 8b 4c 24 70	 mov	 rcx, QWORD PTR pPipedProcessCtl$[rsp]
  00164	48 89 01	 mov	 QWORD PTR [rcx], rax
$LN9@w32_parse_:

; 4414 :                 ASSERT( pPipedProcessCtl->pszBuffer );

  00167	48 8b 44 24 70	 mov	 rax, QWORD PTR pPipedProcessCtl$[rsp]
  0016c	48 83 38 00	 cmp	 QWORD PTR [rax], 0
  00170	75 5b		 jne	 SHORT $LN38@w32_parse_
$LN12@w32_parse_:
  00172	4c 8d 0d 00 00
	00 00		 lea	 r9, OFFSET FLAT:$SG161844
  00179	41 b8 3e 11 00
	00		 mov	 r8d, 4414		; 0000113eH
  0017f	48 8d 15 00 00
	00 00		 lea	 rdx, OFFSET FLAT:$SG161845
  00186	48 8d 0d 00 00
	00 00		 lea	 rcx, OFFSET FLAT:$SG161846
  0018d	e8 00 00 00 00	 call	 logmsg
  00192	ff 15 00 00 00
	00		 call	 QWORD PTR __imp_IsDebuggerPresent
  00198	85 c0		 test	 eax, eax
  0019a	74 20		 je	 SHORT $LN39@w32_parse_
  0019c	4c 8d 0d 00 00
	00 00		 lea	 r9, OFFSET FLAT:$SG161848
  001a3	41 b8 3e 11 00
	00		 mov	 r8d, 4414		; 0000113eH
  001a9	48 8d 15 00 00
	00 00		 lea	 rdx, OFFSET FLAT:$SG161849
  001b0	48 8d 0d 00 00
	00 00		 lea	 rcx, OFFSET FLAT:$SG161850
  001b7	e8 00 00 00 00	 call	 DebuggerTrace
$LN39@w32_parse_:
  001bc	33 c0		 xor	 eax, eax
  001be	85 c0		 test	 eax, eax
  001c0	75 b0		 jne	 SHORT $LN12@w32_parse_
  001c2	ff 15 00 00 00
	00		 call	 QWORD PTR __imp_IsDebuggerPresent
  001c8	85 c0		 test	 eax, eax
  001ca	74 01		 je	 SHORT $LN40@w32_parse_
  001cc	cc		 int	 3
$LN40@w32_parse_:
$LN38@w32_parse_:
  001cd	33 c0		 xor	 eax, eax
  001cf	85 c0		 test	 eax, eax
  001d1	75 94		 jne	 SHORT $LN9@w32_parse_
$LN37@w32_parse_:

; 4415 :             }
; 4416 : 
; 4417 :             if (nNewStrLen)

  001d3	48 83 7c 24 40
	00		 cmp	 QWORD PTR nNewStrLen$1[rsp], 0
  001d9	74 37		 je	 SHORT $LN41@w32_parse_

; 4418 :             {
; 4419 :                 memcpy( pPipedProcessCtl->pszBuffer + pPipedProcessCtl->nStrLen, pbeg, nNewStrLen );

  001db	48 8b 44 24 70	 mov	 rax, QWORD PTR pPipedProcessCtl$[rsp]
  001e0	48 8b 00	 mov	 rax, QWORD PTR [rax]
  001e3	48 8b 4c 24 70	 mov	 rcx, QWORD PTR pPipedProcessCtl$[rsp]
  001e8	48 03 41 10	 add	 rax, QWORD PTR [rcx+16]
  001ec	48 8b f8	 mov	 rdi, rax
  001ef	48 8b 74 24 28	 mov	 rsi, QWORD PTR pbeg$[rsp]
  001f4	48 8b 4c 24 40	 mov	 rcx, QWORD PTR nNewStrLen$1[rsp]
  001f9	f3 a4		 rep movsb

; 4420 :                 pPipedProcessCtl->nStrLen += nNewStrLen;

  001fb	48 8b 44 24 70	 mov	 rax, QWORD PTR pPipedProcessCtl$[rsp]
  00200	48 8b 40 10	 mov	 rax, QWORD PTR [rax+16]
  00204	48 03 44 24 40	 add	 rax, QWORD PTR nNewStrLen$1[rsp]
  00209	48 8b 4c 24 70	 mov	 rcx, QWORD PTR pPipedProcessCtl$[rsp]
  0020e	48 89 41 10	 mov	 QWORD PTR [rcx+16], rax
$LN41@w32_parse_:

; 4421 :             }
; 4422 : 
; 4423 :             *(pPipedProcessCtl->pszBuffer + pPipedProcessCtl->nStrLen) = '\n';

  00212	48 8b 44 24 70	 mov	 rax, QWORD PTR pPipedProcessCtl$[rsp]
  00217	48 8b 00	 mov	 rax, QWORD PTR [rax]
  0021a	48 8b 4c 24 70	 mov	 rcx, QWORD PTR pPipedProcessCtl$[rsp]
  0021f	48 8b 49 10	 mov	 rcx, QWORD PTR [rcx+16]
  00223	c6 04 08 0a	 mov	 BYTE PTR [rax+rcx], 10

; 4424 :             pPipedProcessCtl->nStrLen++;

  00227	48 8b 44 24 70	 mov	 rax, QWORD PTR pPipedProcessCtl$[rsp]
  0022c	48 8b 40 10	 mov	 rax, QWORD PTR [rax+16]
  00230	48 ff c0	 inc	 rax
  00233	48 8b 4c 24 70	 mov	 rcx, QWORD PTR pPipedProcessCtl$[rsp]
  00238	48 89 41 10	 mov	 QWORD PTR [rcx+16], rax

; 4425 :             *(pPipedProcessCtl->pszBuffer + pPipedProcessCtl->nStrLen) = '\0';

  0023c	48 8b 44 24 70	 mov	 rax, QWORD PTR pPipedProcessCtl$[rsp]
  00241	48 8b 00	 mov	 rax, QWORD PTR [rax]
  00244	48 8b 4c 24 70	 mov	 rcx, QWORD PTR pPipedProcessCtl$[rsp]
  00249	48 8b 49 10	 mov	 rcx, QWORD PTR [rcx+16]
  0024d	c6 04 08 00	 mov	 BYTE PTR [rax+rcx], 0
$LN15@w32_parse_:

; 4426 : 
; 4427 :             ASSERT( pPipedProcessCtl->nStrLen <= pPipedProcessCtl->nAllocSize );

  00251	48 8b 44 24 70	 mov	 rax, QWORD PTR pPipedProcessCtl$[rsp]
  00256	48 8b 4c 24 70	 mov	 rcx, QWORD PTR pPipedProcessCtl$[rsp]
  0025b	48 8b 49 08	 mov	 rcx, QWORD PTR [rcx+8]
  0025f	48 39 48 10	 cmp	 QWORD PTR [rax+16], rcx
  00263	76 5b		 jbe	 SHORT $LN42@w32_parse_
$LN18@w32_parse_:
  00265	4c 8d 0d 00 00
	00 00		 lea	 r9, OFFSET FLAT:$SG161854
  0026c	41 b8 4b 11 00
	00		 mov	 r8d, 4427		; 0000114bH
  00272	48 8d 15 00 00
	00 00		 lea	 rdx, OFFSET FLAT:$SG161855
  00279	48 8d 0d 00 00
	00 00		 lea	 rcx, OFFSET FLAT:$SG161856
  00280	e8 00 00 00 00	 call	 logmsg
  00285	ff 15 00 00 00
	00		 call	 QWORD PTR __imp_IsDebuggerPresent
  0028b	85 c0		 test	 eax, eax
  0028d	74 20		 je	 SHORT $LN43@w32_parse_
  0028f	4c 8d 0d 00 00
	00 00		 lea	 r9, OFFSET FLAT:$SG161858
  00296	41 b8 4b 11 00
	00		 mov	 r8d, 4427		; 0000114bH
  0029c	48 8d 15 00 00
	00 00		 lea	 rdx, OFFSET FLAT:$SG161859
  002a3	48 8d 0d 00 00
	00 00		 lea	 rcx, OFFSET FLAT:$SG161860
  002aa	e8 00 00 00 00	 call	 DebuggerTrace
$LN43@w32_parse_:
  002af	33 c0		 xor	 eax, eax
  002b1	85 c0		 test	 eax, eax
  002b3	75 b0		 jne	 SHORT $LN18@w32_parse_
  002b5	ff 15 00 00 00
	00		 call	 QWORD PTR __imp_IsDebuggerPresent
  002bb	85 c0		 test	 eax, eax
  002bd	74 01		 je	 SHORT $LN44@w32_parse_
  002bf	cc		 int	 3
$LN44@w32_parse_:
$LN42@w32_parse_:
  002c0	33 c0		 xor	 eax, eax
  002c2	85 c0		 test	 eax, eax
  002c4	75 8b		 jne	 SHORT $LN15@w32_parse_

; 4428 : 
; 4429 :             LeaveCriticalSection( &pPipedProcessCtl->csLock );

  002c6	48 8b 44 24 70	 mov	 rax, QWORD PTR pPipedProcessCtl$[rsp]
  002cb	48 83 c0 18	 add	 rax, 24
  002cf	48 8b c8	 mov	 rcx, rax
  002d2	ff 15 00 00 00
	00		 call	 QWORD PTR __imp_LeaveCriticalSection
$LN36@w32_parse_:

; 4430 :         }
; 4431 : 
; 4432 :         // 'pend' should still point to the end of this message (where newline was)
; 4433 : 
; 4434 :         pbeg = (pend + 1);              // point to beg of next message (if any)

  002d8	48 8b 44 24 30	 mov	 rax, QWORD PTR pend$[rsp]
  002dd	48 ff c0	 inc	 rax
  002e0	48 89 44 24 28	 mov	 QWORD PTR pbeg$[rsp], rax

; 4435 : 
; 4436 :         if (pbeg >= (holdbuff + *pnHoldAmount))   // past end of data?

  002e5	48 8b 84 24 80
	00 00 00	 mov	 rax, QWORD PTR pnHoldAmount$[rsp]
  002ed	48 63 00	 movsxd	 rax, DWORD PTR [rax]
  002f0	48 8b 4c 24 78	 mov	 rcx, QWORD PTR holdbuff$[rsp]
  002f5	48 03 c8	 add	 rcx, rax
  002f8	48 8b c1	 mov	 rax, rcx
  002fb	48 39 44 24 28	 cmp	 QWORD PTR pbeg$[rsp], rax
  00300	72 79		 jb	 SHORT $LN45@w32_parse_

; 4437 :         {
; 4438 :             pbeg = pend;                // re-point back to our null

  00302	48 8b 44 24 30	 mov	 rax, QWORD PTR pend$[rsp]
  00307	48 89 44 24 28	 mov	 QWORD PTR pbeg$[rsp], rax
$LN21@w32_parse_:

; 4439 :             ASSERT(*pbeg == 0);         // sanity check

  0030c	48 8b 44 24 28	 mov	 rax, QWORD PTR pbeg$[rsp]
  00311	0f be 00	 movsx	 eax, BYTE PTR [rax]
  00314	85 c0		 test	 eax, eax
  00316	74 5b		 je	 SHORT $LN46@w32_parse_
$LN24@w32_parse_:
  00318	4c 8d 0d 00 00
	00 00		 lea	 r9, OFFSET FLAT:$SG161864
  0031f	41 b8 57 11 00
	00		 mov	 r8d, 4439		; 00001157H
  00325	48 8d 15 00 00
	00 00		 lea	 rdx, OFFSET FLAT:$SG161865
  0032c	48 8d 0d 00 00
	00 00		 lea	 rcx, OFFSET FLAT:$SG161866
  00333	e8 00 00 00 00	 call	 logmsg
  00338	ff 15 00 00 00
	00		 call	 QWORD PTR __imp_IsDebuggerPresent
  0033e	85 c0		 test	 eax, eax
  00340	74 20		 je	 SHORT $LN47@w32_parse_
  00342	4c 8d 0d 00 00
	00 00		 lea	 r9, OFFSET FLAT:$SG161868
  00349	41 b8 57 11 00
	00		 mov	 r8d, 4439		; 00001157H
  0034f	48 8d 15 00 00
	00 00		 lea	 rdx, OFFSET FLAT:$SG161869
  00356	48 8d 0d 00 00
	00 00		 lea	 rcx, OFFSET FLAT:$SG161870
  0035d	e8 00 00 00 00	 call	 DebuggerTrace
$LN47@w32_parse_:
  00362	33 c0		 xor	 eax, eax
  00364	85 c0		 test	 eax, eax
  00366	75 b0		 jne	 SHORT $LN24@w32_parse_
  00368	ff 15 00 00 00
	00		 call	 QWORD PTR __imp_IsDebuggerPresent
  0036e	85 c0		 test	 eax, eax
  00370	74 01		 je	 SHORT $LN48@w32_parse_
  00372	cc		 int	 3
$LN48@w32_parse_:
$LN46@w32_parse_:
  00373	33 c0		 xor	 eax, eax
  00375	85 c0		 test	 eax, eax
  00377	75 93		 jne	 SHORT $LN21@w32_parse_

; 4440 :             break;                      // we're done with this batch

  00379	eb 20		 jmp	 SHORT $LN3@w32_parse_
$LN45@w32_parse_:

; 4441 :         }
; 4442 : 
; 4443 :         pend = strchr(pbeg,'\n');       // is there another message?

  0037b	ba 0a 00 00 00	 mov	 edx, 10
  00380	48 8b 4c 24 28	 mov	 rcx, QWORD PTR pbeg$[rsp]
  00385	e8 00 00 00 00	 call	 strchr
  0038a	48 89 44 24 30	 mov	 QWORD PTR pend$[rsp], rax

; 4444 :     }
; 4445 :     while (pend);                       // while messages remain...

  0038f	48 83 7c 24 30
	00		 cmp	 QWORD PTR pend$[rsp], 0
  00395	0f 85 ad fc ff
	ff		 jne	 $LN4@w32_parse_
$LN3@w32_parse_:

; 4446 : 
; 4447 :     if (ntotlen > *pnHoldAmount)        // make sure we didn't process too much

  0039b	48 8b 84 24 80
	00 00 00	 mov	 rax, QWORD PTR pnHoldAmount$[rsp]
  003a3	8b 00		 mov	 eax, DWORD PTR [rax]
  003a5	39 44 24 24	 cmp	 DWORD PTR ntotlen$[rsp], eax
  003a9	0f 8e 90 00 00
	00		 jle	 $LN49@w32_parse_
$LN27@w32_parse_:

; 4448 :     {
; 4449 :         TRACE("*** ParseStdxxxMsg logic error! ***\n");

  003af	48 8d 0d 00 00
	00 00		 lea	 rcx, OFFSET FLAT:$SG161873
  003b6	e8 00 00 00 00	 call	 logmsg
  003bb	ff 15 00 00 00
	00		 call	 QWORD PTR __imp_IsDebuggerPresent
  003c1	85 c0		 test	 eax, eax
  003c3	74 0c		 je	 SHORT $LN50@w32_parse_
  003c5	48 8d 0d 00 00
	00 00		 lea	 rcx, OFFSET FLAT:$SG161875
  003cc	e8 00 00 00 00	 call	 DebuggerTrace
$LN50@w32_parse_:
  003d1	33 c0		 xor	 eax, eax
  003d3	85 c0		 test	 eax, eax
  003d5	75 d8		 jne	 SHORT $LN27@w32_parse_
$LN30@w32_parse_:

; 4450 :         ASSERT(FALSE);                  // oops!

  003d7	33 c0		 xor	 eax, eax
  003d9	83 f8 01	 cmp	 eax, 1
  003dc	74 5b		 je	 SHORT $LN51@w32_parse_
$LN33@w32_parse_:
  003de	4c 8d 0d 00 00
	00 00		 lea	 r9, OFFSET FLAT:$SG161877
  003e5	41 b8 62 11 00
	00		 mov	 r8d, 4450		; 00001162H
  003eb	48 8d 15 00 00
	00 00		 lea	 rdx, OFFSET FLAT:$SG161878
  003f2	48 8d 0d 00 00
	00 00		 lea	 rcx, OFFSET FLAT:$SG161879
  003f9	e8 00 00 00 00	 call	 logmsg
  003fe	ff 15 00 00 00
	00		 call	 QWORD PTR __imp_IsDebuggerPresent
  00404	85 c0		 test	 eax, eax
  00406	74 20		 je	 SHORT $LN52@w32_parse_
  00408	4c 8d 0d 00 00
	00 00		 lea	 r9, OFFSET FLAT:$SG161881
  0040f	41 b8 62 11 00
	00		 mov	 r8d, 4450		; 00001162H
  00415	48 8d 15 00 00
	00 00		 lea	 rdx, OFFSET FLAT:$SG161882
  0041c	48 8d 0d 00 00
	00 00		 lea	 rcx, OFFSET FLAT:$SG161883
  00423	e8 00 00 00 00	 call	 DebuggerTrace
$LN52@w32_parse_:
  00428	33 c0		 xor	 eax, eax
  0042a	85 c0		 test	 eax, eax
  0042c	75 b0		 jne	 SHORT $LN33@w32_parse_
  0042e	ff 15 00 00 00
	00		 call	 QWORD PTR __imp_IsDebuggerPresent
  00434	85 c0		 test	 eax, eax
  00436	74 01		 je	 SHORT $LN53@w32_parse_
  00438	cc		 int	 3
$LN53@w32_parse_:
$LN51@w32_parse_:
  00439	33 c0		 xor	 eax, eax
  0043b	85 c0		 test	 eax, eax
  0043d	75 98		 jne	 SHORT $LN30@w32_parse_
$LN49@w32_parse_:

; 4451 :     }
; 4452 : 
; 4453 :     // 'Remove' the messages that we parsed from the caller's hold buffer by
; 4454 :     // sliding the remainder to the left (i.e. left justifying the remainder
; 4455 :     // in their hold buffer) and then telling them how much data now remains
; 4456 :     // in their hold buffer.
; 4457 : 
; 4458 :     // IMPORTANT PROGRAMMING NOTE! We must use memmove here and not strcpy!
; 4459 :     // strcpy doesn't work correctly for overlapping source and destination.
; 4460 :     // If there's 100 bytes remaining and we just want to slide it left by 1
; 4461 :     // byte (just as an illustrative example), strcpy screws up. This is more
; 4462 :     // than likely because strcpy is trying to be as efficient as possible and
; 4463 :     // is grabbing multiple bytes at a time from the source string and plonking
; 4464 :     // them down into the destination string, thus wiping out part of our source
; 4465 :     // string. Thus, we MUST use memmove here and NOT strcpy.
; 4466 : 
; 4467 :     if ((*pnHoldAmount = (int)strlen(pbeg)) > 0)   // new amount of data remaining

  0043f	48 8b 4c 24 28	 mov	 rcx, QWORD PTR pbeg$[rsp]
  00444	e8 00 00 00 00	 call	 strlen
  00449	48 8b 8c 24 80
	00 00 00	 mov	 rcx, QWORD PTR pnHoldAmount$[rsp]
  00451	89 01		 mov	 DWORD PTR [rcx], eax
  00453	48 8b 84 24 80
	00 00 00	 mov	 rax, QWORD PTR pnHoldAmount$[rsp]
  0045b	83 38 00	 cmp	 DWORD PTR [rax], 0
  0045e	7e 1d		 jle	 SHORT $LN54@w32_parse_

; 4468 :         memmove(holdbuff,pbeg,*pnHoldAmount);      // slide left justify remainder

  00460	48 8b 84 24 80
	00 00 00	 mov	 rax, QWORD PTR pnHoldAmount$[rsp]
  00468	48 63 00	 movsxd	 rax, DWORD PTR [rax]
  0046b	4c 8b c0	 mov	 r8, rax
  0046e	48 8b 54 24 28	 mov	 rdx, QWORD PTR pbeg$[rsp]
  00473	48 8b 4c 24 78	 mov	 rcx, QWORD PTR holdbuff$[rsp]
  00478	e8 00 00 00 00	 call	 memmove
$LN54@w32_parse_:
$LN1@w32_parse_:

; 4469 : }

  0047d	48 83 c4 58	 add	 rsp, 88			; 00000058H
  00481	5f		 pop	 rdi
  00482	5e		 pop	 rsi
  00483	c3		 ret	 0
w32_parse_piped_process_stdxxx_data ENDP
_TEXT	ENDS
; Function compile flags: /Odtp
; File C:\papa\MyGit\hyperion-zvector\w32util.c
_TEXT	SEGMENT
nHoldAmount$ = 48
nAmountRead$ = 52
nRetcode$ = 56
oflow$ = 60
pPipedStdXXXThreadCtl$ = 64
hOurReadFromStdxxx$ = 72
pPipedProcessCtl$ = 80
readbuff$ = 96
holdbuff$ = 1120
__$ArrayPad$ = 3168
pThreadParm$ = 3216
w32_read_piped_process_stdxxx_output_thread PROC

; 4280 : {

$LN20:
  00000	48 89 4c 24 08	 mov	 QWORD PTR [rsp+8], rcx
  00005	56		 push	 rsi
  00006	57		 push	 rdi
  00007	48 81 ec 78 0c
	00 00		 sub	 rsp, 3192		; 00000c78H
  0000e	48 8b 05 00 00
	00 00		 mov	 rax, QWORD PTR __security_cookie
  00015	48 33 c4	 xor	 rax, rsp
  00018	48 89 84 24 60
	0c 00 00	 mov	 QWORD PTR __$ArrayPad$[rsp], rax

; 4281 :     PIPED_THREAD_CTL*   pPipedStdXXXThreadCtl   = NULL;

  00020	48 c7 44 24 40
	00 00 00 00	 mov	 QWORD PTR pPipedStdXXXThreadCtl$[rsp], 0

; 4282 :     PIPED_PROCESS_CTL*  pPipedProcessCtl        = NULL;

  00029	48 c7 44 24 50
	00 00 00 00	 mov	 QWORD PTR pPipedProcessCtl$[rsp], 0

; 4283 : 
; 4284 :     HANDLE    hOurReadFromStdxxx  = NULL;

  00032	48 c7 44 24 48
	00 00 00 00	 mov	 QWORD PTR hOurReadFromStdxxx$[rsp], 0

; 4285 :     DWORD     nAmountRead         = 0;

  0003b	c7 44 24 34 00
	00 00 00	 mov	 DWORD PTR nAmountRead$[rsp], 0

; 4286 :     int       nHoldAmount         = 0;

  00043	c7 44 24 30 00
	00 00 00	 mov	 DWORD PTR nHoldAmount$[rsp], 0

; 4287 :     BOOL      oflow               = FALSE;

  0004b	c7 44 24 3c 00
	00 00 00	 mov	 DWORD PTR oflow$[rsp], 0

; 4288 :     unsigned  nRetcode            = 0;

  00053	c7 44 24 38 00
	00 00 00	 mov	 DWORD PTR nRetcode$[rsp], 0

; 4289 : 
; 4290 :     char   readbuff [ PIPEBUFSIZE ];
; 4291 :     char   holdbuff [ HOLDBUFSIZE ];
; 4292 : 
; 4293 :     // Extract parms
; 4294 : 
; 4295 :     pPipedStdXXXThreadCtl = (PIPED_THREAD_CTL*) pThreadParm;

  0005b	48 8b 84 24 90
	0c 00 00	 mov	 rax, QWORD PTR pThreadParm$[rsp]
  00063	48 89 44 24 40	 mov	 QWORD PTR pPipedStdXXXThreadCtl$[rsp], rax

; 4296 : 
; 4297 :     pPipedProcessCtl    = pPipedStdXXXThreadCtl->pPipedProcessCtl;

  00068	48 8b 44 24 40	 mov	 rax, QWORD PTR pPipedStdXXXThreadCtl$[rsp]
  0006d	48 8b 40 08	 mov	 rax, QWORD PTR [rax+8]
  00071	48 89 44 24 50	 mov	 QWORD PTR pPipedProcessCtl$[rsp], rax

; 4298 :     hOurReadFromStdxxx  = pPipedStdXXXThreadCtl->hStdXXX;

  00076	48 8b 44 24 40	 mov	 rax, QWORD PTR pPipedStdXXXThreadCtl$[rsp]
  0007b	48 8b 00	 mov	 rax, QWORD PTR [rax]
  0007e	48 89 44 24 48	 mov	 QWORD PTR hOurReadFromStdxxx$[rsp], rax

; 4299 : 
; 4300 :     free( pPipedStdXXXThreadCtl );      // (prevent memory leak)

  00083	48 8b 4c 24 40	 mov	 rcx, QWORD PTR pPipedStdXXXThreadCtl$[rsp]
  00088	ff 15 00 00 00
	00		 call	 QWORD PTR __imp_free
$LN2@w32_read_p:

; 4301 : 
; 4302 :     // Begin work...
; 4303 : 
; 4304 :     for (;;)
; 4305 :     {
; 4306 :         if (!ReadFile(hOurReadFromStdxxx, readbuff, PIPEBUFSIZE-1, &nAmountRead, NULL))

  0008e	48 c7 44 24 20
	00 00 00 00	 mov	 QWORD PTR [rsp+32], 0
  00097	4c 8d 4c 24 34	 lea	 r9, QWORD PTR nAmountRead$[rsp]
  0009c	41 b8 ff 03 00
	00		 mov	 r8d, 1023		; 000003ffH
  000a2	48 8d 54 24 60	 lea	 rdx, QWORD PTR readbuff$[rsp]
  000a7	48 8b 4c 24 48	 mov	 rcx, QWORD PTR hOurReadFromStdxxx$[rsp]
  000ac	ff 15 00 00 00
	00		 call	 QWORD PTR __imp_ReadFile
  000b2	85 c0		 test	 eax, eax
  000b4	75 1e		 jne	 SHORT $LN11@w32_read_p

; 4307 :         {
; 4308 :             if (ERROR_BROKEN_PIPE == (nRetcode = GetLastError()))

  000b6	ff 15 00 00 00
	00		 call	 QWORD PTR __imp_GetLastError
  000bc	89 44 24 38	 mov	 DWORD PTR nRetcode$[rsp], eax
  000c0	83 7c 24 38 6d	 cmp	 DWORD PTR nRetcode$[rsp], 109 ; 0000006dH
  000c5	75 08		 jne	 SHORT $LN12@w32_read_p

; 4309 :                 nRetcode = 0;

  000c7	c7 44 24 38 00
	00 00 00	 mov	 DWORD PTR nRetcode$[rsp], 0
$LN12@w32_read_p:

; 4310 :             // (else keep value returned from GetLastError())
; 4311 :             break;

  000cf	e9 58 01 00 00	 jmp	 $LN3@w32_read_p
$LN11@w32_read_p:

; 4312 :         }
; 4313 :         *(readbuff+nAmountRead) = 0;

  000d4	8b 44 24 34	 mov	 eax, DWORD PTR nAmountRead$[rsp]
  000d8	c6 44 04 60 00	 mov	 BYTE PTR readbuff$[rsp+rax], 0

; 4314 : 
; 4315 :         if (!nAmountRead) break;    // (pipe closed (i.e. broken pipe); time to exit)

  000dd	83 7c 24 34 00	 cmp	 DWORD PTR nAmountRead$[rsp], 0
  000e2	75 05		 jne	 SHORT $LN13@w32_read_p
  000e4	e9 43 01 00 00	 jmp	 $LN3@w32_read_p
$LN13@w32_read_p:

; 4316 : 
; 4317 :         if ((nHoldAmount + nAmountRead) >= (HOLDBUFSIZE-1))

  000e9	8b 44 24 34	 mov	 eax, DWORD PTR nAmountRead$[rsp]
  000ed	8b 4c 24 30	 mov	 ecx, DWORD PTR nHoldAmount$[rsp]
  000f1	03 c8		 add	 ecx, eax
  000f3	8b c1		 mov	 eax, ecx
  000f5	3d ff 07 00 00	 cmp	 eax, 2047		; 000007ffH
  000fa	72 60		 jb	 SHORT $LN14@w32_read_p

; 4318 :         {
; 4319 :             // OVERFLOW! append "truncated" string and force end-of-msg...
; 4320 : 
; 4321 :             oflow = TRUE;

  000fc	c7 44 24 3c 01
	00 00 00	 mov	 DWORD PTR oflow$[rsp], 1

; 4322 :             memcpy( holdbuff + nHoldAmount, readbuff, HOLDBUFSIZE - nHoldAmount);

  00104	b8 00 08 00 00	 mov	 eax, 2048		; 00000800H
  00109	2b 44 24 30	 sub	 eax, DWORD PTR nHoldAmount$[rsp]
  0010d	48 98		 cdqe
  0010f	48 63 4c 24 30	 movsxd	 rcx, DWORD PTR nHoldAmount$[rsp]
  00114	48 8d 8c 0c 60
	04 00 00	 lea	 rcx, QWORD PTR holdbuff$[rsp+rcx]
  0011c	48 8d 54 24 60	 lea	 rdx, QWORD PTR readbuff$[rsp]
  00121	48 8b f9	 mov	 rdi, rcx
  00124	48 8b f2	 mov	 rsi, rdx
  00127	48 8b c8	 mov	 rcx, rax
  0012a	f3 a4		 rep movsb

; 4323 :             STRLCPY(                        readbuff, buffer_overflow_msg );

  0012c	41 b8 00 04 00
	00		 mov	 r8d, 1024		; 00000400H
  00132	48 8b 15 00 00
	00 00		 mov	 rdx, QWORD PTR buffer_overflow_msg
  00139	48 8d 4c 24 60	 lea	 rcx, QWORD PTR readbuff$[rsp]
  0013e	e8 00 00 00 00	 call	 strlcpy

; 4324 :             nAmountRead =                   (DWORD)buffer_overflow_msg_len;

  00143	8b 05 00 00 00
	00		 mov	 eax, DWORD PTR buffer_overflow_msg_len
  00149	89 44 24 34	 mov	 DWORD PTR nAmountRead$[rsp], eax

; 4325 :             nHoldAmount =  HOLDBUFSIZE  -   nAmountRead - 1;

  0014d	b8 00 08 00 00	 mov	 eax, 2048		; 00000800H
  00152	2b 44 24 34	 sub	 eax, DWORD PTR nAmountRead$[rsp]
  00156	ff c8		 dec	 eax
  00158	89 44 24 30	 mov	 DWORD PTR nHoldAmount$[rsp], eax
$LN14@w32_read_p:

; 4326 :         }
; 4327 : 
; 4328 :         // Append new data to end of hold buffer...
; 4329 : 
; 4330 :         memcpy(holdbuff+nHoldAmount,readbuff,nAmountRead);

  0015c	8b 44 24 34	 mov	 eax, DWORD PTR nAmountRead$[rsp]
  00160	48 63 4c 24 30	 movsxd	 rcx, DWORD PTR nHoldAmount$[rsp]
  00165	48 8d 8c 0c 60
	04 00 00	 lea	 rcx, QWORD PTR holdbuff$[rsp+rcx]
  0016d	48 8d 54 24 60	 lea	 rdx, QWORD PTR readbuff$[rsp]
  00172	48 8b f9	 mov	 rdi, rcx
  00175	48 8b f2	 mov	 rsi, rdx
  00178	8b c8		 mov	 ecx, eax
  0017a	f3 a4		 rep movsb

; 4331 :         nHoldAmount += nAmountRead;

  0017c	8b 44 24 34	 mov	 eax, DWORD PTR nAmountRead$[rsp]
  00180	8b 4c 24 30	 mov	 ecx, DWORD PTR nHoldAmount$[rsp]
  00184	03 c8		 add	 ecx, eax
  00186	8b c1		 mov	 eax, ecx
  00188	89 44 24 30	 mov	 DWORD PTR nHoldAmount$[rsp], eax

; 4332 :         *(holdbuff+nHoldAmount) = 0;

  0018c	48 63 44 24 30	 movsxd	 rax, DWORD PTR nHoldAmount$[rsp]
  00191	c6 84 04 60 04
	00 00 00	 mov	 BYTE PTR holdbuff$[rsp+rax], 0

; 4333 : 
; 4334 :         // Pass all existing data to parsing function...
; 4335 : 
; 4336 :         w32_parse_piped_process_stdxxx_data( pPipedProcessCtl, holdbuff, &nHoldAmount );

  00199	4c 8d 44 24 30	 lea	 r8, QWORD PTR nHoldAmount$[rsp]
  0019e	48 8d 94 24 60
	04 00 00	 lea	 rdx, QWORD PTR holdbuff$[rsp]
  001a6	48 8b 4c 24 50	 mov	 rcx, QWORD PTR pPipedProcessCtl$[rsp]
  001ab	e8 00 00 00 00	 call	 w32_parse_piped_process_stdxxx_data

; 4337 : 
; 4338 :         if (oflow) ASSERT(!nHoldAmount); oflow = FALSE;

  001b0	83 7c 24 3c 00	 cmp	 DWORD PTR oflow$[rsp], 0
  001b5	74 68		 je	 SHORT $LN15@w32_read_p
$LN7@w32_read_p:
  001b7	83 7c 24 30 00	 cmp	 DWORD PTR nHoldAmount$[rsp], 0
  001bc	74 5b		 je	 SHORT $LN16@w32_read_p
$LN10@w32_read_p:
  001be	4c 8d 0d 00 00
	00 00		 lea	 r9, OFFSET FLAT:$SG161783
  001c5	41 b8 f2 10 00
	00		 mov	 r8d, 4338		; 000010f2H
  001cb	48 8d 15 00 00
	00 00		 lea	 rdx, OFFSET FLAT:$SG161784
  001d2	48 8d 0d 00 00
	00 00		 lea	 rcx, OFFSET FLAT:$SG161785
  001d9	e8 00 00 00 00	 call	 logmsg
  001de	ff 15 00 00 00
	00		 call	 QWORD PTR __imp_IsDebuggerPresent
  001e4	85 c0		 test	 eax, eax
  001e6	74 20		 je	 SHORT $LN17@w32_read_p
  001e8	4c 8d 0d 00 00
	00 00		 lea	 r9, OFFSET FLAT:$SG161787
  001ef	41 b8 f2 10 00
	00		 mov	 r8d, 4338		; 000010f2H
  001f5	48 8d 15 00 00
	00 00		 lea	 rdx, OFFSET FLAT:$SG161788
  001fc	48 8d 0d 00 00
	00 00		 lea	 rcx, OFFSET FLAT:$SG161789
  00203	e8 00 00 00 00	 call	 DebuggerTrace
$LN17@w32_read_p:
  00208	33 c0		 xor	 eax, eax
  0020a	85 c0		 test	 eax, eax
  0020c	75 b0		 jne	 SHORT $LN10@w32_read_p
  0020e	ff 15 00 00 00
	00		 call	 QWORD PTR __imp_IsDebuggerPresent
  00214	85 c0		 test	 eax, eax
  00216	74 01		 je	 SHORT $LN18@w32_read_p
  00218	cc		 int	 3
$LN18@w32_read_p:
$LN16@w32_read_p:
  00219	33 c0		 xor	 eax, eax
  0021b	85 c0		 test	 eax, eax
  0021d	75 98		 jne	 SHORT $LN7@w32_read_p
$LN15@w32_read_p:
  0021f	c7 44 24 3c 00
	00 00 00	 mov	 DWORD PTR oflow$[rsp], 0

; 4339 :     }

  00227	e9 62 fe ff ff	 jmp	 $LN2@w32_read_p
$LN3@w32_read_p:

; 4340 : 
; 4341 :     // Finish up...
; 4342 : 
; 4343 :     CloseHandle( hOurReadFromStdxxx );      // (prevent HANDLE leak)

  0022c	48 8b 4c 24 48	 mov	 rcx, QWORD PTR hOurReadFromStdxxx$[rsp]
  00231	ff 15 00 00 00
	00		 call	 QWORD PTR __imp_CloseHandle

; 4344 : 
; 4345 :     return nRetcode;

  00237	8b 44 24 38	 mov	 eax, DWORD PTR nRetcode$[rsp]

; 4346 : }

  0023b	48 8b 8c 24 60
	0c 00 00	 mov	 rcx, QWORD PTR __$ArrayPad$[rsp]
  00243	48 33 cc	 xor	 rcx, rsp
  00246	e8 00 00 00 00	 call	 __security_check_cookie
  0024b	48 81 c4 78 0c
	00 00		 add	 rsp, 3192		; 00000c78H
  00252	5f		 pop	 rdi
  00253	5e		 pop	 rsi
  00254	c3		 ret	 0
w32_read_piped_process_stdxxx_output_thread ENDP
_TEXT	ENDS
; Function compile flags: /Odtp
; File C:\papa\MyGit\hyperion-zvector\w32util.c
_TEXT	SEGMENT
i$ = 32
pSet$ = 64
pbSocketFound$ = 72
pbNonSocketFound$ = 80
pdwHandles$ = 88
parHandles$ = 96
SelectSet PROC

; 3410 : {

  00000	4c 89 4c 24 20	 mov	 QWORD PTR [rsp+32], r9
  00005	4c 89 44 24 18	 mov	 QWORD PTR [rsp+24], r8
  0000a	48 89 54 24 10	 mov	 QWORD PTR [rsp+16], rdx
  0000f	48 89 4c 24 08	 mov	 QWORD PTR [rsp+8], rcx
  00014	48 83 ec 38	 sub	 rsp, 56			; 00000038H

; 3411 :     unsigned int i;
; 3412 : 
; 3413 :     if ( !pSet ) return;

  00018	48 83 7c 24 40
	00		 cmp	 QWORD PTR pSet$[rsp], 0
  0001e	75 05		 jne	 SHORT $LN11@SelectSet
  00020	e9 0a 01 00 00	 jmp	 $LN1@SelectSet
$LN11@SelectSet:

; 3414 : 
; 3415 :     for (i=0; i < pSet->fd_count && i < FD_SETSIZE; i++)

  00025	c7 44 24 20 00
	00 00 00	 mov	 DWORD PTR i$[rsp], 0
  0002d	eb 0a		 jmp	 SHORT $LN4@SelectSet
$LN2@SelectSet:
  0002f	8b 44 24 20	 mov	 eax, DWORD PTR i$[rsp]
  00033	ff c0		 inc	 eax
  00035	89 44 24 20	 mov	 DWORD PTR i$[rsp], eax
$LN4@SelectSet:
  00039	48 8b 44 24 40	 mov	 rax, QWORD PTR pSet$[rsp]
  0003e	8b 00		 mov	 eax, DWORD PTR [rax]
  00040	39 44 24 20	 cmp	 DWORD PTR i$[rsp], eax
  00044	0f 83 e5 00 00
	00		 jae	 $LN3@SelectSet
  0004a	81 7c 24 20 00
	04 00 00	 cmp	 DWORD PTR i$[rsp], 1024	; 00000400H
  00052	0f 83 d7 00 00
	00		 jae	 $LN3@SelectSet

; 3416 :     {
; 3417 :         if ( socket_is_socket( pSet->fd_array[i] ) )

  00058	8b 44 24 20	 mov	 eax, DWORD PTR i$[rsp]
  0005c	48 8b 4c 24 40	 mov	 rcx, QWORD PTR pSet$[rsp]
  00061	8b 4c c1 08	 mov	 ecx, DWORD PTR [rcx+rax*8+8]
  00065	e8 00 00 00 00	 call	 socket_is_socket
  0006a	85 c0		 test	 eax, eax
  0006c	74 0d		 je	 SHORT $LN12@SelectSet

; 3418 :         {
; 3419 :             *pbSocketFound = TRUE;

  0006e	48 8b 44 24 48	 mov	 rax, QWORD PTR pbSocketFound$[rsp]
  00073	c7 00 01 00 00
	00		 mov	 DWORD PTR [rax], 1

; 3420 :             continue;

  00079	eb b4		 jmp	 SHORT $LN2@SelectSet
$LN12@SelectSet:

; 3421 :         }
; 3422 : 
; 3423 :         *pbNonSocketFound = TRUE;

  0007b	48 8b 44 24 50	 mov	 rax, QWORD PTR pbNonSocketFound$[rsp]
  00080	c7 00 01 00 00
	00		 mov	 DWORD PTR [rax], 1

; 3424 : 
; 3425 :         // If parHandles is NULL, then we're
; 3426 :         // only interested in the BOOLean flags...
; 3427 : 
; 3428 :         if ( !parHandles ) continue;

  00086	48 83 7c 24 60
	00		 cmp	 QWORD PTR parHandles$[rsp], 0
  0008c	75 02		 jne	 SHORT $LN13@SelectSet
  0008e	eb 9f		 jmp	 SHORT $LN2@SelectSet
$LN13@SelectSet:
$LN7@SelectSet:

; 3429 :         ASSERT( *pdwHandles < ( 2 * FD_SETSIZE ) );

  00090	48 8b 44 24 58	 mov	 rax, QWORD PTR pdwHandles$[rsp]
  00095	81 38 00 08 00
	00		 cmp	 DWORD PTR [rax], 2048	; 00000800H
  0009b	72 5b		 jb	 SHORT $LN14@SelectSet
$LN10@SelectSet:
  0009d	4c 8d 0d 00 00
	00 00		 lea	 r9, OFFSET FLAT:$SG160940
  000a4	41 b8 65 0d 00
	00		 mov	 r8d, 3429		; 00000d65H
  000aa	48 8d 15 00 00
	00 00		 lea	 rdx, OFFSET FLAT:$SG160941
  000b1	48 8d 0d 00 00
	00 00		 lea	 rcx, OFFSET FLAT:$SG160942
  000b8	e8 00 00 00 00	 call	 logmsg
  000bd	ff 15 00 00 00
	00		 call	 QWORD PTR __imp_IsDebuggerPresent
  000c3	85 c0		 test	 eax, eax
  000c5	74 20		 je	 SHORT $LN15@SelectSet
  000c7	4c 8d 0d 00 00
	00 00		 lea	 r9, OFFSET FLAT:$SG160944
  000ce	41 b8 65 0d 00
	00		 mov	 r8d, 3429		; 00000d65H
  000d4	48 8d 15 00 00
	00 00		 lea	 rdx, OFFSET FLAT:$SG160945
  000db	48 8d 0d 00 00
	00 00		 lea	 rcx, OFFSET FLAT:$SG160946
  000e2	e8 00 00 00 00	 call	 DebuggerTrace
$LN15@SelectSet:
  000e7	33 c0		 xor	 eax, eax
  000e9	85 c0		 test	 eax, eax
  000eb	75 b0		 jne	 SHORT $LN10@SelectSet
  000ed	ff 15 00 00 00
	00		 call	 QWORD PTR __imp_IsDebuggerPresent
  000f3	85 c0		 test	 eax, eax
  000f5	74 01		 je	 SHORT $LN16@SelectSet
  000f7	cc		 int	 3
$LN16@SelectSet:
$LN14@SelectSet:
  000f8	33 c0		 xor	 eax, eax
  000fa	85 c0		 test	 eax, eax
  000fc	75 92		 jne	 SHORT $LN7@SelectSet

; 3430 :         *( parHandles + *pdwHandles ) = (HANDLE) pSet->fd_array[i];

  000fe	8b 44 24 20	 mov	 eax, DWORD PTR i$[rsp]
  00102	48 8b 4c 24 58	 mov	 rcx, QWORD PTR pdwHandles$[rsp]
  00107	8b 09		 mov	 ecx, DWORD PTR [rcx]
  00109	48 8b 54 24 60	 mov	 rdx, QWORD PTR parHandles$[rsp]
  0010e	4c 8b 44 24 40	 mov	 r8, QWORD PTR pSet$[rsp]
  00113	49 8b 44 c0 08	 mov	 rax, QWORD PTR [r8+rax*8+8]
  00118	48 89 04 ca	 mov	 QWORD PTR [rdx+rcx*8], rax

; 3431 :         *pdwHandles++;

  0011c	48 8b 44 24 58	 mov	 rax, QWORD PTR pdwHandles$[rsp]
  00121	48 83 c0 04	 add	 rax, 4
  00125	48 89 44 24 58	 mov	 QWORD PTR pdwHandles$[rsp], rax

; 3432 :     }

  0012a	e9 00 ff ff ff	 jmp	 $LN2@SelectSet
$LN3@SelectSet:
$LN1@SelectSet:

; 3433 : }

  0012f	48 83 c4 38	 add	 rsp, 56			; 00000038H
  00133	c3		 ret	 0
SelectSet ENDP
_TEXT	ENDS
; Function compile flags: /Odtp
; File C:\papa\MyGit\hyperion-zvector\w32util.c
_TEXT	SEGMENT
tv136 = 80
lasterror$1 = 84
pKASOCK$ = 88
dwBytesReturned$ = 96
tv81 = 104
p$2 = 112
ka$ = 120
__$ArrayPad$ = 136
sfd$ = 160
idle_time$ = 168
probe_interval$ = 176
probe_count$ = 184
quiet$ = 192
internal_set_socket_keepalive PROC

; 2885 : {

  00000	44 89 4c 24 20	 mov	 DWORD PTR [rsp+32], r9d
  00005	44 89 44 24 18	 mov	 DWORD PTR [rsp+24], r8d
  0000a	89 54 24 10	 mov	 DWORD PTR [rsp+16], edx
  0000e	89 4c 24 08	 mov	 DWORD PTR [rsp+8], ecx
  00012	48 81 ec 98 00
	00 00		 sub	 rsp, 152		; 00000098H
  00019	48 8b 05 00 00
	00 00		 mov	 rax, QWORD PTR __security_cookie
  00020	48 33 c4	 xor	 rax, rsp
  00023	48 89 84 24 88
	00 00 00	 mov	 QWORD PTR __$ArrayPad$[rsp], rax

; 2886 : #if !defined( HAVE_BASIC_KEEPALIVE )
; 2887 : 
; 2888 :     // Not basic support == No TCP keepalive support at all
; 2889 : 
; 2890 :     if (!quiet)
; 2891 :     {
; 2892 :         WSASetLastError( EOPNOTSUPP );
; 2893 :         // "Error in function %s: %s"
; 2894 :         WRMSG( HHC02219, "E", "internal_set_socket_keepalive()", strerror( HSO_errno ));
; 2895 :     }
; 2896 :     WSASetLastError( EOPNOTSUPP );
; 2897 :     return -1;
; 2898 : 
; 2899 : #elif !defined( HAVE_PARTIAL_KEEPALIVE )
; 2900 : 
; 2901 :     // Not partial support == only Basic TCP keepalive support
; 2902 : 
; 2903 :     BOOL  bOptVal  = TRUE;
; 2904 :     int   nOptLen  = sizeof( bOptVal );
; 2905 : 
; 2906 :     if (setsockopt( (SOCKET) sfd, SOL_SOCKET, SO_KEEPALIVE, (char*) &bOptVal, nOptLen ) == SOCKET_ERROR)
; 2907 :     {
; 2908 :         if (!quiet)
; 2909 :         {
; 2910 :             int lasterror = WSAGetLastError();
; 2911 :             // "Error in function %s: %s"
; 2912 :             WRMSG( HHC02219, "E", "internal_set_socket_keepalive()", strerror( HSO_errno ));
; 2913 :             WSASetLastError( lasterror );
; 2914 :         }
; 2915 :         return -1;
; 2916 :     }
; 2917 : 
; 2918 :     return idle_time      != def_ka_time ? +1 :
; 2919 :            probe_interval != def_ka_intv ? +1 :
; 2920 :            probe_count    != def_ka_cnt  ? +1 : 0;
; 2921 : 
; 2922 : #else
; 2923 : 
; 2924 :     // Partial or Full TCP keepalive support
; 2925 : 
; 2926 :     KASOCK* pKASOCK;
; 2927 :     DWORD   dwBytesReturned;
; 2928 :     struct tcp_keepalive ka;
; 2929 : 
; 2930 :     ka.onoff              = TRUE;

  0002b	c7 44 24 78 01
	00 00 00	 mov	 DWORD PTR ka$[rsp], 1

; 2931 :     ka.keepalivetime      = idle_time       * 1000;  // (seconds to milliseconds)

  00033	69 84 24 a8 00
	00 00 e8 03 00
	00		 imul	 eax, DWORD PTR idle_time$[rsp], 1000 ; 000003e8H
  0003e	89 44 24 7c	 mov	 DWORD PTR ka$[rsp+4], eax

; 2932 :     ka.keepaliveinterval  = probe_interval  * 1000;  // (seconds to milliseconds)

  00042	69 84 24 b0 00
	00 00 e8 03 00
	00		 imul	 eax, DWORD PTR probe_interval$[rsp], 1000 ; 000003e8H
  0004d	89 84 24 80 00
	00 00		 mov	 DWORD PTR ka$[rsp+8], eax

; 2933 : 
; 2934 :     // It either works or it doesn't <shrug>
; 2935 : 
; 2936 :     // PROGRAMMING NOTE: the 'dwBytesReturned' value must apparently always be
; 2937 :     // specified in order for this call to work at all. If you don't specify it,
; 2938 :     // even though the call succeeds (does not return an error), the automatic
; 2939 :     // keepalive polling does not occur.
; 2940 : 
; 2941 :     // Also note that QUERYING the current SIO_KEEPALIVE_VALS is unsupported.
; 2942 :     // See programming note further below in 'get_socket_keepalive' function.
; 2943 : 
; 2944 :     if (0 != WSAIoctl

  00054	48 63 84 24 a0
	00 00 00	 movsxd	 rax, DWORD PTR sfd$[rsp]
  0005c	48 c7 44 24 40
	00 00 00 00	 mov	 QWORD PTR [rsp+64], 0
  00065	48 c7 44 24 38
	00 00 00 00	 mov	 QWORD PTR [rsp+56], 0
  0006e	48 8d 4c 24 60	 lea	 rcx, QWORD PTR dwBytesReturned$[rsp]
  00073	48 89 4c 24 30	 mov	 QWORD PTR [rsp+48], rcx
  00078	c7 44 24 28 00
	00 00 00	 mov	 DWORD PTR [rsp+40], 0
  00080	48 c7 44 24 20
	00 00 00 00	 mov	 QWORD PTR [rsp+32], 0
  00089	41 b9 0c 00 00
	00		 mov	 r9d, 12
  0008f	4c 8d 44 24 78	 lea	 r8, QWORD PTR ka$[rsp]
  00094	ba 04 00 00 98	 mov	 edx, -1744830460	; 98000004H
  00099	48 8b c8	 mov	 rcx, rax
  0009c	ff 15 00 00 00
	00		 call	 QWORD PTR __imp_WSAIoctl
  000a2	85 c0		 test	 eax, eax
  000a4	0f 84 99 00 00
	00		 je	 $LN5@internal_s

; 2945 :     (
; 2946 :         (SOCKET) sfd,                   // [in]  Descriptor identifying a socket
; 2947 :         SIO_KEEPALIVE_VALS,             // [in]  Control code of operation to perform
; 2948 :         &ka,                            // [in]  Pointer to the input buffer
; 2949 :         sizeof( ka ),                   // [in]  Size of the input buffer, in bytes
; 2950 :         NULL,                           // [in]  Pointer to the output buffer
; 2951 :         0,                              // [in]  Size of the output buffer, in bytes
; 2952 :         &dwBytesReturned,               // [out] Pointer to actual number of bytes of output
; 2953 :         NULL,                           // [in]  Pointer to a WSAOVERLAPPED structure
; 2954 :                                         //       (ignored for nonoverlapped sockets)
; 2955 :         NULL                            // [in]  Pointer to the completion routine called
; 2956 :                                         //       when the operation has been completed
; 2957 :                                         //       (ignored for nonoverlapped sockets)
; 2958 :     ))
; 2959 :     {
; 2960 :         if (!quiet)

  000aa	0f b6 84 24 c0
	00 00 00	 movzx	 eax, BYTE PTR quiet$[rsp]
  000b2	85 c0		 test	 eax, eax
  000b4	0f 85 82 00 00
	00		 jne	 $LN6@internal_s

; 2961 :         {
; 2962 :             int lasterror = WSAGetLastError();

  000ba	ff 15 00 00 00
	00		 call	 QWORD PTR __imp_WSAGetLastError
  000c0	89 44 24 54	 mov	 DWORD PTR lasterror$1[rsp], eax

; 2963 :             // "Error in function %s: %s"
; 2964 :             WRMSG( HHC02219, "E", "WSAIoctl( SIO_KEEPALIVE_VALS )", strerror( HSO_errno ));

  000c4	ff 15 00 00 00
	00		 call	 QWORD PTR __imp_WSAGetLastError
  000ca	8b c8		 mov	 ecx, eax
  000cc	e8 00 00 00 00	 call	 w32_strerror
  000d1	48 89 44 24 68	 mov	 QWORD PTR tv81[rsp], rax
  000d6	b9 01 00 00 00	 mov	 ecx, 1
  000db	ff 15 00 00 00
	00		 call	 QWORD PTR __imp___acrt_iob_func
  000e1	48 8b 4c 24 68	 mov	 rcx, QWORD PTR tv81[rsp]
  000e6	48 89 4c 24 40	 mov	 QWORD PTR [rsp+64], rcx
  000eb	48 8d 0d 00 00
	00 00		 lea	 rcx, OFFSET FLAT:$SG160665
  000f2	48 89 4c 24 38	 mov	 QWORD PTR [rsp+56], rcx
  000f7	48 8d 0d 00 00
	00 00		 lea	 rcx, OFFSET FLAT:$SG160666
  000fe	48 89 4c 24 30	 mov	 QWORD PTR [rsp+48], rcx
  00103	48 8d 0d 00 00
	00 00		 lea	 rcx, OFFSET FLAT:$SG160667
  0010a	48 89 4c 24 28	 mov	 QWORD PTR [rsp+40], rcx
  0010f	48 89 44 24 20	 mov	 QWORD PTR [rsp+32], rax
  00114	41 b9 03 00 00
	00		 mov	 r9d, 3
  0011a	4c 8d 05 00 00
	00 00		 lea	 r8, OFFSET FLAT:$SG160668
  00121	ba 94 0b 00 00	 mov	 edx, 2964		; 00000b94H
  00126	48 8d 0d 00 00
	00 00		 lea	 rcx, OFFSET FLAT:$SG160669
  0012d	e8 00 00 00 00	 call	 fwritemsg

; 2965 :             WSASetLastError( lasterror );

  00132	8b 4c 24 54	 mov	 ecx, DWORD PTR lasterror$1[rsp]
  00136	ff 15 00 00 00
	00		 call	 QWORD PTR __imp_WSASetLastError
$LN6@internal_s:

; 2966 :         }
; 2967 :         return -1;  // (failure)

  0013c	b8 ff ff ff ff	 mov	 eax, -1
  00141	eb 77		 jmp	 SHORT $LN1@internal_s
$LN5@internal_s:

; 2968 :     }
; 2969 : 
; 2970 :     // Save new values so 'get_socket_keepalive' can retrieve them if desired
; 2971 : 
; 2972 :     if (!(pKASOCK = get_kasock( sfd )))

  00143	48 63 84 24 a0
	00 00 00	 movsxd	 rax, DWORD PTR sfd$[rsp]
  0014b	48 8b c8	 mov	 rcx, rax
  0014e	e8 00 00 00 00	 call	 get_kasock
  00153	48 89 44 24 58	 mov	 QWORD PTR pKASOCK$[rsp], rax
  00158	48 83 7c 24 58
	00		 cmp	 QWORD PTR pKASOCK$[rsp], 0
  0015e	75 17		 jne	 SHORT $LN7@internal_s
$LN4@internal_s:

; 2973 :         CRASH(); // (should NEVER occur!)

  00160	48 c7 44 24 70
	00 00 00 00	 mov	 QWORD PTR p$2[rsp], 0
  00169	48 8b 44 24 70	 mov	 rax, QWORD PTR p$2[rsp]
  0016e	c6 00 00	 mov	 BYTE PTR [rax], 0
  00171	33 c0		 xor	 eax, eax
  00173	85 c0		 test	 eax, eax
  00175	75 e9		 jne	 SHORT $LN4@internal_s
$LN7@internal_s:

; 2974 : 
; 2975 :     pKASOCK->time = idle_time;

  00177	48 8b 44 24 58	 mov	 rax, QWORD PTR pKASOCK$[rsp]
  0017c	8b 8c 24 a8 00
	00 00		 mov	 ecx, DWORD PTR idle_time$[rsp]
  00183	89 48 08	 mov	 DWORD PTR [rax+8], ecx

; 2976 :     pKASOCK->intv = probe_interval;

  00186	48 8b 44 24 58	 mov	 rax, QWORD PTR pKASOCK$[rsp]
  0018b	8b 8c 24 b0 00
	00 00		 mov	 ecx, DWORD PTR probe_interval$[rsp]
  00192	89 48 0c	 mov	 DWORD PTR [rax+12], ecx

; 2977 : 
; 2978 :     // Probe count cannot be changed on Windows
; 2979 : 
; 2980 :     return (probe_count != def_ka_cnt) ? +1 : 0;  // (partial or complete success)

  00195	8b 05 00 00 00
	00		 mov	 eax, DWORD PTR def_ka_cnt
  0019b	39 84 24 b8 00
	00 00		 cmp	 DWORD PTR probe_count$[rsp], eax
  001a2	74 0a		 je	 SHORT $LN9@internal_s
  001a4	c7 44 24 50 01
	00 00 00	 mov	 DWORD PTR tv136[rsp], 1
  001ac	eb 08		 jmp	 SHORT $LN10@internal_s
$LN9@internal_s:
  001ae	c7 44 24 50 00
	00 00 00	 mov	 DWORD PTR tv136[rsp], 0
$LN10@internal_s:
  001b6	8b 44 24 50	 mov	 eax, DWORD PTR tv136[rsp]
$LN1@internal_s:

; 2981 : 
; 2982 : #endif // (KEEPALIVE)
; 2983 : }

  001ba	48 8b 8c 24 88
	00 00 00	 mov	 rcx, QWORD PTR __$ArrayPad$[rsp]
  001c2	48 33 cc	 xor	 rcx, rsp
  001c5	e8 00 00 00 00	 call	 __security_check_cookie
  001ca	48 81 c4 98 00
	00 00		 add	 rsp, 152		; 00000098H
  001d1	c3		 ret	 0
internal_set_socket_keepalive ENDP
_TEXT	ENDS
; Function compile flags: /Odtp
; File C:\papa\MyGit\hyperion-zvector\w32util.c
_TEXT	SEGMENT
tv73 = 32
pKASOCK$ = 40
_EX_Flink$1 = 48
_EX_Blink$2 = 56
sock$ = 80
rem_kasock PROC

; 2732 : {

  00000	48 89 4c 24 08	 mov	 QWORD PTR [rsp+8], rcx
  00005	48 83 ec 48	 sub	 rsp, 72			; 00000048H

; 2733 :     KASOCK* pKASOCK;
; 2734 :     lock_kasock_list();

  00009	e8 00 00 00 00	 call	 lock_kasock_list

; 2735 :     if ((pKASOCK = get_kasock( sock )) != NULL)

  0000e	48 8b 4c 24 50	 mov	 rcx, QWORD PTR sock$[rsp]
  00013	e8 00 00 00 00	 call	 get_kasock
  00018	48 89 44 24 28	 mov	 QWORD PTR pKASOCK$[rsp], rax
  0001d	48 83 7c 24 28
	00		 cmp	 QWORD PTR pKASOCK$[rsp], 0
  00023	74 42		 je	 SHORT $LN2@rem_kasock

; 2736 :     {
; 2737 :         RemoveListEntry( &pKASOCK->link );

  00025	48 8b 44 24 28	 mov	 rax, QWORD PTR pKASOCK$[rsp]
  0002a	48 8b 40 18	 mov	 rax, QWORD PTR [rax+24]
  0002e	48 89 44 24 30	 mov	 QWORD PTR _EX_Flink$1[rsp], rax
  00033	48 8b 44 24 28	 mov	 rax, QWORD PTR pKASOCK$[rsp]
  00038	48 8b 40 20	 mov	 rax, QWORD PTR [rax+32]
  0003c	48 89 44 24 38	 mov	 QWORD PTR _EX_Blink$2[rsp], rax
  00041	48 8b 44 24 38	 mov	 rax, QWORD PTR _EX_Blink$2[rsp]
  00046	48 8b 4c 24 30	 mov	 rcx, QWORD PTR _EX_Flink$1[rsp]
  0004b	48 89 08	 mov	 QWORD PTR [rax], rcx
  0004e	48 8b 44 24 30	 mov	 rax, QWORD PTR _EX_Flink$1[rsp]
  00053	48 8b 4c 24 38	 mov	 rcx, QWORD PTR _EX_Blink$2[rsp]
  00058	48 89 48 08	 mov	 QWORD PTR [rax+8], rcx

; 2738 :         free( pKASOCK );

  0005c	48 8b 4c 24 28	 mov	 rcx, QWORD PTR pKASOCK$[rsp]
  00061	ff 15 00 00 00
	00		 call	 QWORD PTR __imp_free
$LN2@rem_kasock:

; 2739 :     }
; 2740 :     unlock_kasock_list();

  00067	e8 00 00 00 00	 call	 unlock_kasock_list

; 2741 :     return pKASOCK ? TRUE : FALSE;

  0006c	48 83 7c 24 28
	00		 cmp	 QWORD PTR pKASOCK$[rsp], 0
  00072	74 0a		 je	 SHORT $LN4@rem_kasock
  00074	c7 44 24 20 01
	00 00 00	 mov	 DWORD PTR tv73[rsp], 1
  0007c	eb 08		 jmp	 SHORT $LN5@rem_kasock
$LN4@rem_kasock:
  0007e	c7 44 24 20 00
	00 00 00	 mov	 DWORD PTR tv73[rsp], 0
$LN5@rem_kasock:
  00086	8b 44 24 20	 mov	 eax, DWORD PTR tv73[rsp]

; 2742 : }

  0008a	48 83 c4 48	 add	 rsp, 72			; 00000048H
  0008e	c3		 ret	 0
rem_kasock ENDP
_TEXT	ENDS
; Function compile flags: /Odtp
; File C:\papa\MyGit\hyperion-zvector\w32util.c
_TEXT	SEGMENT
pKASOCK$ = 32
_EX_Head$1 = 40
_EX_Next$2 = 48
sock$ = 80
add_kasock PROC

; 2714 : {

  00000	48 89 4c 24 08	 mov	 QWORD PTR [rsp+8], rcx
  00005	48 83 ec 48	 sub	 rsp, 72			; 00000048H

; 2715 :     KASOCK* pKASOCK;
; 2716 :     if (!(pKASOCK = (KASOCK*) malloc( sizeof( KASOCK )))) return FALSE;

  00009	b9 28 00 00 00	 mov	 ecx, 40			; 00000028H
  0000e	ff 15 00 00 00
	00		 call	 QWORD PTR __imp_malloc
  00014	48 89 44 24 20	 mov	 QWORD PTR pKASOCK$[rsp], rax
  00019	48 83 7c 24 20
	00		 cmp	 QWORD PTR pKASOCK$[rsp], 0
  0001f	75 07		 jne	 SHORT $LN2@add_kasock
  00021	33 c0		 xor	 eax, eax
  00023	e9 b8 00 00 00	 jmp	 $LN1@add_kasock
$LN2@add_kasock:

; 2717 :     pKASOCK->sock = sock;

  00028	48 8b 44 24 20	 mov	 rax, QWORD PTR pKASOCK$[rsp]
  0002d	48 8b 4c 24 50	 mov	 rcx, QWORD PTR sock$[rsp]
  00032	48 89 08	 mov	 QWORD PTR [rax], rcx

; 2718 :     pKASOCK->time = def_ka_time;

  00035	48 8b 44 24 20	 mov	 rax, QWORD PTR pKASOCK$[rsp]
  0003a	8b 0d 00 00 00
	00		 mov	 ecx, DWORD PTR def_ka_time
  00040	89 48 08	 mov	 DWORD PTR [rax+8], ecx

; 2719 :     pKASOCK->intv = def_ka_intv;

  00043	48 8b 44 24 20	 mov	 rax, QWORD PTR pKASOCK$[rsp]
  00048	8b 0d 00 00 00
	00		 mov	 ecx, DWORD PTR def_ka_intv
  0004e	89 48 0c	 mov	 DWORD PTR [rax+12], ecx

; 2720 :     pKASOCK->cnt  = def_ka_cnt;

  00051	48 8b 44 24 20	 mov	 rax, QWORD PTR pKASOCK$[rsp]
  00056	8b 0d 00 00 00
	00		 mov	 ecx, DWORD PTR def_ka_cnt
  0005c	89 48 10	 mov	 DWORD PTR [rax+16], ecx

; 2721 :     InitializeListLink( &pKASOCK->link );

  0005f	48 8b 44 24 20	 mov	 rax, QWORD PTR pKASOCK$[rsp]
  00064	48 c7 40 20 00
	00 00 00	 mov	 QWORD PTR [rax+32], 0
  0006c	48 8b 44 24 20	 mov	 rax, QWORD PTR pKASOCK$[rsp]
  00071	48 c7 40 18 00
	00 00 00	 mov	 QWORD PTR [rax+24], 0

; 2722 :     lock_kasock_list();

  00079	e8 00 00 00 00	 call	 lock_kasock_list

; 2723 :     InsertListHead( &kasock_head, &pKASOCK->link );

  0007e	48 8d 05 00 00
	00 00		 lea	 rax, OFFSET FLAT:kasock_head
  00085	48 89 44 24 28	 mov	 QWORD PTR _EX_Head$1[rsp], rax
  0008a	48 8b 44 24 28	 mov	 rax, QWORD PTR _EX_Head$1[rsp]
  0008f	48 8b 00	 mov	 rax, QWORD PTR [rax]
  00092	48 89 44 24 30	 mov	 QWORD PTR _EX_Next$2[rsp], rax
  00097	48 8b 44 24 20	 mov	 rax, QWORD PTR pKASOCK$[rsp]
  0009c	48 8b 4c 24 30	 mov	 rcx, QWORD PTR _EX_Next$2[rsp]
  000a1	48 89 48 18	 mov	 QWORD PTR [rax+24], rcx
  000a5	48 8b 44 24 20	 mov	 rax, QWORD PTR pKASOCK$[rsp]
  000aa	48 8b 4c 24 28	 mov	 rcx, QWORD PTR _EX_Head$1[rsp]
  000af	48 89 48 20	 mov	 QWORD PTR [rax+32], rcx
  000b3	48 8b 44 24 20	 mov	 rax, QWORD PTR pKASOCK$[rsp]
  000b8	48 83 c0 18	 add	 rax, 24
  000bc	48 8b 4c 24 28	 mov	 rcx, QWORD PTR _EX_Head$1[rsp]
  000c1	48 89 01	 mov	 QWORD PTR [rcx], rax
  000c4	48 8b 44 24 20	 mov	 rax, QWORD PTR pKASOCK$[rsp]
  000c9	48 83 c0 18	 add	 rax, 24
  000cd	48 8b 4c 24 30	 mov	 rcx, QWORD PTR _EX_Next$2[rsp]
  000d2	48 89 41 08	 mov	 QWORD PTR [rcx+8], rax

; 2724 :     unlock_kasock_list();

  000d6	e8 00 00 00 00	 call	 unlock_kasock_list

; 2725 :     return TRUE;

  000db	b8 01 00 00 00	 mov	 eax, 1
$LN1@add_kasock:

; 2726 : }

  000e0	48 83 c4 48	 add	 rsp, 72			; 00000048H
  000e4	c3		 ret	 0
add_kasock ENDP
_TEXT	ENDS
; Function compile flags: /Odtp
; File C:\papa\MyGit\hyperion-zvector\w32util.c
_TEXT	SEGMENT
pListEntry$ = 32
pKASOCK$ = 40
sock$ = 64
get_kasock PROC

; 2686 : {

  00000	48 89 4c 24 08	 mov	 QWORD PTR [rsp+8], rcx
  00005	48 83 ec 38	 sub	 rsp, 56			; 00000038H

; 2687 :     KASOCK*      pKASOCK;
; 2688 :     LIST_ENTRY*  pListEntry;
; 2689 : 
; 2690 :     lock_kasock_list();

  00009	e8 00 00 00 00	 call	 lock_kasock_list

; 2691 :     pListEntry = kasock_head.Flink;         // (start with first entry)

  0000e	48 8b 05 00 00
	00 00		 mov	 rax, QWORD PTR kasock_head
  00015	48 89 44 24 20	 mov	 QWORD PTR pListEntry$[rsp], rax
$LN2@get_kasock:

; 2692 : 
; 2693 :     while (pListEntry != &kasock_head)      // (while not at beginning)

  0001a	48 8d 05 00 00
	00 00		 lea	 rax, OFFSET FLAT:kasock_head
  00021	48 39 44 24 20	 cmp	 QWORD PTR pListEntry$[rsp], rax
  00026	74 38		 je	 SHORT $LN3@get_kasock

; 2694 :     {
; 2695 :         pKASOCK = CONTAINING_RECORD( pListEntry, KASOCK, link );

  00028	48 8b 44 24 20	 mov	 rax, QWORD PTR pListEntry$[rsp]
  0002d	48 83 e8 18	 sub	 rax, 24
  00031	48 89 44 24 28	 mov	 QWORD PTR pKASOCK$[rsp], rax

; 2696 : 
; 2697 :         if (pKASOCK->sock == sock)          // (is this the one?)

  00036	48 8b 44 24 28	 mov	 rax, QWORD PTR pKASOCK$[rsp]
  0003b	48 8b 4c 24 40	 mov	 rcx, QWORD PTR sock$[rsp]
  00040	48 39 08	 cmp	 QWORD PTR [rax], rcx
  00043	75 0c		 jne	 SHORT $LN4@get_kasock

; 2698 :         {
; 2699 :             unlock_kasock_list();

  00045	e8 00 00 00 00	 call	 unlock_kasock_list

; 2700 :             return pKASOCK;                 // (yes, return it)

  0004a	48 8b 44 24 28	 mov	 rax, QWORD PTR pKASOCK$[rsp]
  0004f	eb 16		 jmp	 SHORT $LN1@get_kasock
$LN4@get_kasock:

; 2701 :         }
; 2702 : 
; 2703 :         pListEntry = pListEntry->Flink;     // (next entry)

  00051	48 8b 44 24 20	 mov	 rax, QWORD PTR pListEntry$[rsp]
  00056	48 8b 00	 mov	 rax, QWORD PTR [rax]
  00059	48 89 44 24 20	 mov	 QWORD PTR pListEntry$[rsp], rax

; 2704 :     }

  0005e	eb ba		 jmp	 SHORT $LN2@get_kasock
$LN3@get_kasock:

; 2705 : 
; 2706 :     unlock_kasock_list();

  00060	e8 00 00 00 00	 call	 unlock_kasock_list

; 2707 :     return NULL;                            // (not found)

  00065	33 c0		 xor	 eax, eax
$LN1@get_kasock:

; 2708 : }

  00067	48 83 c4 38	 add	 rsp, 56			; 00000038H
  0006b	c3		 ret	 0
get_kasock ENDP
_TEXT	ENDS
; Function compile flags: /Odtp
; File C:\papa\MyGit\hyperion-zvector\w32util.c
_TEXT	SEGMENT
unlock_kasock_list PROC

; 2531 : static void unlock_kasock_list()  { LeaveCriticalSection( &kasock_lock ); }

  00000	48 83 ec 28	 sub	 rsp, 40			; 00000028H
  00004	48 8d 0d 00 00
	00 00		 lea	 rcx, OFFSET FLAT:kasock_lock
  0000b	ff 15 00 00 00
	00		 call	 QWORD PTR __imp_LeaveCriticalSection
  00011	48 83 c4 28	 add	 rsp, 40			; 00000028H
  00015	c3		 ret	 0
unlock_kasock_list ENDP
_TEXT	ENDS
; Function compile flags: /Odtp
; File C:\papa\MyGit\hyperion-zvector\w32util.c
_TEXT	SEGMENT
lock_kasock_list PROC

; 2530 : static void lock_kasock_list()    { EnterCriticalSection( &kasock_lock ); }

  00000	48 83 ec 28	 sub	 rsp, 40			; 00000028H
  00004	48 8d 0d 00 00
	00 00		 lea	 rcx, OFFSET FLAT:kasock_lock
  0000b	ff 15 00 00 00
	00		 call	 QWORD PTR __imp_EnterCriticalSection
  00011	48 83 c4 28	 add	 rsp, 40			; 00000028H
  00015	c3		 ret	 0
lock_kasock_list ENDP
_TEXT	ENDS
; Function compile flags: /Odtp
; File C:\papa\MyGit\hyperion-zvector\w32util.c
_TEXT	SEGMENT
lResult$1 = 48
dwCnt1$2 = 52
dwCnt2$3 = 56
dwSize$4 = 60
bPreVista$5 = 64
dwTime$6 = 68
dwIntv$7 = 72
hKey$8 = 80
tv89 = 88
tv161 = 92
tv174 = 96
p$9 = 104
p$10 = 112
p$11 = 120
p$12 = 128
p$13 = 136
vi$14 = 144
__$ArrayPad$ = 304
kasock_init PROC

; 2541 : {

  00000	40 57		 push	 rdi
  00002	48 81 ec 40 01
	00 00		 sub	 rsp, 320		; 00000140H
  00009	48 8b 05 00 00
	00 00		 mov	 rax, QWORD PTR __security_cookie
  00010	48 33 c4	 xor	 rax, rsp
  00013	48 89 84 24 30
	01 00 00	 mov	 QWORD PTR __$ArrayPad$[rsp], rax

; 2542 :     static BOOL bDidThis = FALSE;   // (we only need to do this once)
; 2543 :     if (bDidThis) return;           // (we only need to do this once)

  0001b	83 3d 00 00 00
	00 00		 cmp	 DWORD PTR ?bDidThis@?1??kasock_init@@9@9, 0
  00022	74 05		 je	 SHORT $LN23@kasock_ini
  00024	e9 b0 03 00 00	 jmp	 $LN1@kasock_ini
$LN23@kasock_ini:

; 2544 :     bDidThis = TRUE;                // (we only need to do this once)

  00029	c7 05 00 00 00
	00 01 00 00 00	 mov	 DWORD PTR ?bDidThis@?1??kasock_init@@9@9, 1

; 2545 : 
; 2546 :     InitializeCriticalSectionAndSpinCount( &kasock_lock, 4000 );

  00033	ba a0 0f 00 00	 mov	 edx, 4000		; 00000fa0H
  00038	48 8d 0d 00 00
	00 00		 lea	 rcx, OFFSET FLAT:kasock_lock
  0003f	ff 15 00 00 00
	00		 call	 QWORD PTR __imp_InitializeCriticalSectionAndSpinCount

; 2547 :     InitializeListHead( &kasock_head );

  00045	48 8d 05 00 00
	00 00		 lea	 rax, OFFSET FLAT:kasock_head
  0004c	48 89 05 08 00
	00 00		 mov	 QWORD PTR kasock_head+8, rax
  00053	48 8b 05 08 00
	00 00		 mov	 rax, QWORD PTR kasock_head+8
  0005a	48 89 05 00 00
	00 00		 mov	 QWORD PTR kasock_head, rax

; 2548 : 
; 2549 :     // http://msdn.microsoft.com/en-us/library/windows/desktop/dd877220(v=vs.85).aspx
; 2550 : 
; 2551 :     // The default settings when a TCP socket is initialized sets the
; 2552 :     // keepalive timeout to 2 hours and the keepalive interval to 1 second.
; 2553 : 
; 2554 : #define DEF_KA_TIME             ((2*60*60)*1000)    // 2 hours
; 2555 : #define DEF_KA_INTV             (1*1000)            // 1 second
; 2556 : 
; 2557 :     // The default system-wide value of the keepalive timeout
; 2558 :     // is controllable through the KeepAliveTime registry setting
; 2559 :     // which takes a value in milliseconds.
; 2560 : 
; 2561 : #define KA_REGROOT    HKEY_LOCAL_MACHINE
; 2562 : #define KA_REGKEY     "SYSTEM\\CurrentControlSet\\Services\\Tcpip\\Parameters"
; 2563 : #define REG_KA_TIME   "KeepAliveTime"
; 2564 : 
; 2565 :     // The default system-wide value of the keepalive interval
; 2566 :     // is controllable through the KeepAliveInterval registry setting
; 2567 :     // which takes a value in milliseconds.
; 2568 : 
; 2569 : #define REG_KA_INTV   "KeepAliveInterval"
; 2570 : 
; 2571 :     // On Windows Vista and later, the number of keepalive probes
; 2572 :     // (data retransmissions) is set to 10 and cannot be changed.
; 2573 : 
; 2574 : #define DEF_KA_CNT              10                  // 10 probes
; 2575 : 
; 2576 :     // On Windows Server 2003, Windows XP, and Windows 2000, the default
; 2577 :     // setting for number of keepalive probes is 5.
; 2578 : 
; 2579 : #define PREVISTA_DEF_KA_CNT     5                   // 5 probes
; 2580 : 
; 2581 :     // The number of keepalive probes is controllable through the
; 2582 :     // TcpMaxDataRetransmissions and PPTPTcpMaxDataRetransmissions
; 2583 :     // registry settings.
; 2584 : 
; 2585 : #define REG_KA_CNT1   "TcpMaxDataRetransmissions"
; 2586 : #define REG_KA_CNT2   "PPTPTcpMaxDataRetransmissions"
; 2587 : 
; 2588 :     // The number of keepalive probes is set to the larger of the two
; 2589 :     // registry key values. If this number is 0, then keepalive probes
; 2590 :     // are not sent. If this number is above 255, it is adjusted to 255.
; 2591 : 
; 2592 : #define MAX_KA_CNT              255                 // maximum probes
; 2593 : 
; 2594 :     {
; 2595 :         OSVERSIONINFO  vi  = { sizeof( vi ), 0 };

  00061	c7 84 24 90 00
	00 00 94 00 00
	00		 mov	 DWORD PTR vi$14[rsp], 148 ; 00000094H
  0006c	c7 84 24 94 00
	00 00 00 00 00
	00		 mov	 DWORD PTR vi$14[rsp+4], 0
  00077	48 8d 84 24 98
	00 00 00	 lea	 rax, QWORD PTR vi$14[rsp+8]
  0007f	48 8b f8	 mov	 rdi, rax
  00082	33 c0		 xor	 eax, eax
  00084	b9 8c 00 00 00	 mov	 ecx, 140		; 0000008cH
  00089	f3 aa		 rep stosb

; 2596 :         BOOL    bPreVista  = FALSE;

  0008b	c7 44 24 40 00
	00 00 00	 mov	 DWORD PTR bPreVista$5[rsp], 0

; 2597 :         DWORD   dwSize     = sizeof( DWORD );

  00093	c7 44 24 3c 04
	00 00 00	 mov	 DWORD PTR dwSize$4[rsp], 4

; 2598 :         LONG    lResult    = 0;

  0009b	c7 44 24 30 00
	00 00 00	 mov	 DWORD PTR lResult$1[rsp], 0

; 2599 :         HKEY    hKey       = NULL;

  000a3	48 c7 44 24 50
	00 00 00 00	 mov	 QWORD PTR hKey$8[rsp], 0

; 2600 :         DWORD   dwTime     = 0;

  000ac	c7 44 24 44 00
	00 00 00	 mov	 DWORD PTR dwTime$6[rsp], 0

; 2601 :         DWORD   dwIntv     = 0;

  000b4	c7 44 24 48 00
	00 00 00	 mov	 DWORD PTR dwIntv$7[rsp], 0

; 2602 :         DWORD   dwCnt1     = 0;

  000bc	c7 44 24 34 00
	00 00 00	 mov	 DWORD PTR dwCnt1$2[rsp], 0

; 2603 :         DWORD   dwCnt2     = 0;

  000c4	c7 44 24 38 00
	00 00 00	 mov	 DWORD PTR dwCnt2$3[rsp], 0
$LN4@kasock_ini:

; 2604 : 
; 2605 :         VERIFY( GetVersionEx( &vi ));

  000cc	48 8d 8c 24 90
	00 00 00	 lea	 rcx, QWORD PTR vi$14[rsp]
  000d4	ff 15 00 00 00
	00		 call	 QWORD PTR __imp_GetVersionExA
  000da	85 c0		 test	 eax, eax
  000dc	75 5b		 jne	 SHORT $LN24@kasock_ini
$LN7@kasock_ini:
  000de	4c 8d 0d 00 00
	00 00		 lea	 r9, OFFSET FLAT:$SG160497
  000e5	41 b8 2d 0a 00
	00		 mov	 r8d, 2605		; 00000a2dH
  000eb	48 8d 15 00 00
	00 00		 lea	 rdx, OFFSET FLAT:$SG160498
  000f2	48 8d 0d 00 00
	00 00		 lea	 rcx, OFFSET FLAT:$SG160499
  000f9	e8 00 00 00 00	 call	 logmsg
  000fe	ff 15 00 00 00
	00		 call	 QWORD PTR __imp_IsDebuggerPresent
  00104	85 c0		 test	 eax, eax
  00106	74 20		 je	 SHORT $LN25@kasock_ini
  00108	4c 8d 0d 00 00
	00 00		 lea	 r9, OFFSET FLAT:$SG160501
  0010f	41 b8 2d 0a 00
	00		 mov	 r8d, 2605		; 00000a2dH
  00115	48 8d 15 00 00
	00 00		 lea	 rdx, OFFSET FLAT:$SG160502
  0011c	48 8d 0d 00 00
	00 00		 lea	 rcx, OFFSET FLAT:$SG160503
  00123	e8 00 00 00 00	 call	 DebuggerTrace
$LN25@kasock_ini:
  00128	33 c0		 xor	 eax, eax
  0012a	85 c0		 test	 eax, eax
  0012c	75 b0		 jne	 SHORT $LN7@kasock_ini
  0012e	ff 15 00 00 00
	00		 call	 QWORD PTR __imp_IsDebuggerPresent
  00134	85 c0		 test	 eax, eax
  00136	74 01		 je	 SHORT $LN26@kasock_ini
  00138	cc		 int	 3
$LN26@kasock_ini:
$LN24@kasock_ini:
  00139	33 c0		 xor	 eax, eax
  0013b	85 c0		 test	 eax, eax
  0013d	75 8d		 jne	 SHORT $LN4@kasock_ini

; 2606 :         bPreVista = (vi.dwMajorVersion < 6);

  0013f	83 bc 24 94 00
	00 00 06	 cmp	 DWORD PTR vi$14[rsp+4], 6
  00147	73 0a		 jae	 SHORT $LN40@kasock_ini
  00149	c7 44 24 58 01
	00 00 00	 mov	 DWORD PTR tv89[rsp], 1
  00151	eb 08		 jmp	 SHORT $LN41@kasock_ini
$LN40@kasock_ini:
  00153	c7 44 24 58 00
	00 00 00	 mov	 DWORD PTR tv89[rsp], 0
$LN41@kasock_ini:
  0015b	8b 44 24 58	 mov	 eax, DWORD PTR tv89[rsp]
  0015f	89 44 24 40	 mov	 DWORD PTR bPreVista$5[rsp], eax

; 2607 : 
; 2608 :         lResult = RegOpenKeyEx( KA_REGROOT, KA_REGKEY, 0, KEY_QUERY_VALUE, &hKey );

  00163	48 8d 44 24 50	 lea	 rax, QWORD PTR hKey$8[rsp]
  00168	48 89 44 24 20	 mov	 QWORD PTR [rsp+32], rax
  0016d	41 b9 01 00 00
	00		 mov	 r9d, 1
  00173	45 33 c0	 xor	 r8d, r8d
  00176	48 8d 15 00 00
	00 00		 lea	 rdx, OFFSET FLAT:$SG160505
  0017d	48 c7 c1 02 00
	00 80		 mov	 rcx, -2147483646	; ffffffff80000002H
  00184	ff 15 00 00 00
	00		 call	 QWORD PTR __imp_RegOpenKeyExA
  0018a	89 44 24 30	 mov	 DWORD PTR lResult$1[rsp], eax

; 2609 : 
; 2610 :         if (ERROR_SUCCESS != lResult)

  0018e	83 7c 24 30 00	 cmp	 DWORD PTR lResult$1[rsp], 0
  00193	74 17		 je	 SHORT $LN27@kasock_ini
$LN10@kasock_ini:

; 2611 :             CRASH();

  00195	48 c7 44 24 68
	00 00 00 00	 mov	 QWORD PTR p$9[rsp], 0
  0019e	48 8b 44 24 68	 mov	 rax, QWORD PTR p$9[rsp]
  001a3	c6 00 00	 mov	 BYTE PTR [rax], 0
  001a6	33 c0		 xor	 eax, eax
  001a8	85 c0		 test	 eax, eax
  001aa	75 e9		 jne	 SHORT $LN10@kasock_ini
$LN27@kasock_ini:

; 2612 : 
; 2613 :         // keepalive timeout
; 2614 : 
; 2615 :         lResult = RegQueryValueEx( hKey, REG_KA_TIME, NULL, NULL, (BYTE*) &dwTime, &dwSize );

  001ac	48 8d 44 24 3c	 lea	 rax, QWORD PTR dwSize$4[rsp]
  001b1	48 89 44 24 28	 mov	 QWORD PTR [rsp+40], rax
  001b6	48 8d 44 24 44	 lea	 rax, QWORD PTR dwTime$6[rsp]
  001bb	48 89 44 24 20	 mov	 QWORD PTR [rsp+32], rax
  001c0	45 33 c9	 xor	 r9d, r9d
  001c3	45 33 c0	 xor	 r8d, r8d
  001c6	48 8d 15 00 00
	00 00		 lea	 rdx, OFFSET FLAT:$SG160507
  001cd	48 8b 4c 24 50	 mov	 rcx, QWORD PTR hKey$8[rsp]
  001d2	ff 15 00 00 00
	00		 call	 QWORD PTR __imp_RegQueryValueExA
  001d8	89 44 24 30	 mov	 DWORD PTR lResult$1[rsp], eax

; 2616 : 
; 2617 :         if (ERROR_SUCCESS != lResult)

  001dc	83 7c 24 30 00	 cmp	 DWORD PTR lResult$1[rsp], 0
  001e1	74 26		 je	 SHORT $LN28@kasock_ini

; 2618 :         {
; 2619 :             if (ERROR_FILE_NOT_FOUND != lResult)

  001e3	83 7c 24 30 02	 cmp	 DWORD PTR lResult$1[rsp], 2
  001e8	74 17		 je	 SHORT $LN29@kasock_ini
$LN13@kasock_ini:

; 2620 :                 CRASH();

  001ea	48 c7 44 24 70
	00 00 00 00	 mov	 QWORD PTR p$10[rsp], 0
  001f3	48 8b 44 24 70	 mov	 rax, QWORD PTR p$10[rsp]
  001f8	c6 00 00	 mov	 BYTE PTR [rax], 0
  001fb	33 c0		 xor	 eax, eax
  001fd	85 c0		 test	 eax, eax
  001ff	75 e9		 jne	 SHORT $LN13@kasock_ini
$LN29@kasock_ini:

; 2621 :             dwTime = DEF_KA_TIME;

  00201	c7 44 24 44 00
	dd 6d 00	 mov	 DWORD PTR dwTime$6[rsp], 7200000 ; 006ddd00H
$LN28@kasock_ini:

; 2622 :         }
; 2623 : 
; 2624 :         // keepalive interval
; 2625 : 
; 2626 :         lResult = RegQueryValueEx( hKey, REG_KA_INTV, NULL, NULL, (BYTE*) &dwIntv, &dwSize );

  00209	48 8d 44 24 3c	 lea	 rax, QWORD PTR dwSize$4[rsp]
  0020e	48 89 44 24 28	 mov	 QWORD PTR [rsp+40], rax
  00213	48 8d 44 24 48	 lea	 rax, QWORD PTR dwIntv$7[rsp]
  00218	48 89 44 24 20	 mov	 QWORD PTR [rsp+32], rax
  0021d	45 33 c9	 xor	 r9d, r9d
  00220	45 33 c0	 xor	 r8d, r8d
  00223	48 8d 15 00 00
	00 00		 lea	 rdx, OFFSET FLAT:$SG160510
  0022a	48 8b 4c 24 50	 mov	 rcx, QWORD PTR hKey$8[rsp]
  0022f	ff 15 00 00 00
	00		 call	 QWORD PTR __imp_RegQueryValueExA
  00235	89 44 24 30	 mov	 DWORD PTR lResult$1[rsp], eax

; 2627 : 
; 2628 :         if (ERROR_SUCCESS != lResult)

  00239	83 7c 24 30 00	 cmp	 DWORD PTR lResult$1[rsp], 0
  0023e	74 26		 je	 SHORT $LN30@kasock_ini

; 2629 :         {
; 2630 :             if (ERROR_FILE_NOT_FOUND != lResult)

  00240	83 7c 24 30 02	 cmp	 DWORD PTR lResult$1[rsp], 2
  00245	74 17		 je	 SHORT $LN31@kasock_ini
$LN16@kasock_ini:

; 2631 :                 CRASH();

  00247	48 c7 44 24 78
	00 00 00 00	 mov	 QWORD PTR p$11[rsp], 0
  00250	48 8b 44 24 78	 mov	 rax, QWORD PTR p$11[rsp]
  00255	c6 00 00	 mov	 BYTE PTR [rax], 0
  00258	33 c0		 xor	 eax, eax
  0025a	85 c0		 test	 eax, eax
  0025c	75 e9		 jne	 SHORT $LN16@kasock_ini
$LN31@kasock_ini:

; 2632 :             dwIntv = DEF_KA_INTV;

  0025e	c7 44 24 48 e8
	03 00 00	 mov	 DWORD PTR dwIntv$7[rsp], 1000 ; 000003e8H
$LN30@kasock_ini:

; 2633 :         }
; 2634 : 
; 2635 :         // TcpMaxDataRetransmissions
; 2636 : 
; 2637 :         lResult = RegQueryValueEx( hKey, REG_KA_CNT1, NULL, NULL, (BYTE*) &dwCnt1, &dwSize );

  00266	48 8d 44 24 3c	 lea	 rax, QWORD PTR dwSize$4[rsp]
  0026b	48 89 44 24 28	 mov	 QWORD PTR [rsp+40], rax
  00270	48 8d 44 24 34	 lea	 rax, QWORD PTR dwCnt1$2[rsp]
  00275	48 89 44 24 20	 mov	 QWORD PTR [rsp+32], rax
  0027a	45 33 c9	 xor	 r9d, r9d
  0027d	45 33 c0	 xor	 r8d, r8d
  00280	48 8d 15 00 00
	00 00		 lea	 rdx, OFFSET FLAT:$SG160513
  00287	48 8b 4c 24 50	 mov	 rcx, QWORD PTR hKey$8[rsp]
  0028c	ff 15 00 00 00
	00		 call	 QWORD PTR __imp_RegQueryValueExA
  00292	89 44 24 30	 mov	 DWORD PTR lResult$1[rsp], eax

; 2638 : 
; 2639 :         if (ERROR_SUCCESS != lResult)

  00296	83 7c 24 30 00	 cmp	 DWORD PTR lResult$1[rsp], 0
  0029b	74 45		 je	 SHORT $LN32@kasock_ini

; 2640 :         {
; 2641 :             if (ERROR_FILE_NOT_FOUND != lResult)

  0029d	83 7c 24 30 02	 cmp	 DWORD PTR lResult$1[rsp], 2
  002a2	74 1d		 je	 SHORT $LN33@kasock_ini
$LN19@kasock_ini:

; 2642 :                 CRASH();

  002a4	48 c7 84 24 80
	00 00 00 00 00
	00 00		 mov	 QWORD PTR p$12[rsp], 0
  002b0	48 8b 84 24 80
	00 00 00	 mov	 rax, QWORD PTR p$12[rsp]
  002b8	c6 00 00	 mov	 BYTE PTR [rax], 0
  002bb	33 c0		 xor	 eax, eax
  002bd	85 c0		 test	 eax, eax
  002bf	75 e3		 jne	 SHORT $LN19@kasock_ini
$LN33@kasock_ini:

; 2643 :             dwCnt1 = bPreVista ? PREVISTA_DEF_KA_CNT : DEF_KA_CNT;

  002c1	83 7c 24 40 00	 cmp	 DWORD PTR bPreVista$5[rsp], 0
  002c6	74 0a		 je	 SHORT $LN42@kasock_ini
  002c8	c7 44 24 5c 05
	00 00 00	 mov	 DWORD PTR tv161[rsp], 5
  002d0	eb 08		 jmp	 SHORT $LN43@kasock_ini
$LN42@kasock_ini:
  002d2	c7 44 24 5c 0a
	00 00 00	 mov	 DWORD PTR tv161[rsp], 10
$LN43@kasock_ini:
  002da	8b 44 24 5c	 mov	 eax, DWORD PTR tv161[rsp]
  002de	89 44 24 34	 mov	 DWORD PTR dwCnt1$2[rsp], eax
$LN32@kasock_ini:

; 2644 :         }
; 2645 : 
; 2646 :         // (round down to maximum allowed)
; 2647 : 
; 2648 :         if (dwCnt1 > MAX_KA_CNT)

  002e2	81 7c 24 34 ff
	00 00 00	 cmp	 DWORD PTR dwCnt1$2[rsp], 255 ; 000000ffH
  002ea	76 08		 jbe	 SHORT $LN34@kasock_ini

; 2649 :             dwCnt1 = MAX_KA_CNT;

  002ec	c7 44 24 34 ff
	00 00 00	 mov	 DWORD PTR dwCnt1$2[rsp], 255 ; 000000ffH
$LN34@kasock_ini:

; 2650 : 
; 2651 :         // PPTPTcpMaxDataRetransmissions
; 2652 : 
; 2653 :         lResult = RegQueryValueEx( hKey, REG_KA_CNT2, NULL, NULL, (BYTE*) &dwCnt2, &dwSize );

  002f4	48 8d 44 24 3c	 lea	 rax, QWORD PTR dwSize$4[rsp]
  002f9	48 89 44 24 28	 mov	 QWORD PTR [rsp+40], rax
  002fe	48 8d 44 24 38	 lea	 rax, QWORD PTR dwCnt2$3[rsp]
  00303	48 89 44 24 20	 mov	 QWORD PTR [rsp+32], rax
  00308	45 33 c9	 xor	 r9d, r9d
  0030b	45 33 c0	 xor	 r8d, r8d
  0030e	48 8d 15 00 00
	00 00		 lea	 rdx, OFFSET FLAT:$SG160517
  00315	48 8b 4c 24 50	 mov	 rcx, QWORD PTR hKey$8[rsp]
  0031a	ff 15 00 00 00
	00		 call	 QWORD PTR __imp_RegQueryValueExA
  00320	89 44 24 30	 mov	 DWORD PTR lResult$1[rsp], eax

; 2654 : 
; 2655 :         if (ERROR_SUCCESS != lResult)

  00324	83 7c 24 30 00	 cmp	 DWORD PTR lResult$1[rsp], 0
  00329	74 45		 je	 SHORT $LN35@kasock_ini

; 2656 :         {
; 2657 :             if (ERROR_FILE_NOT_FOUND != lResult)

  0032b	83 7c 24 30 02	 cmp	 DWORD PTR lResult$1[rsp], 2
  00330	74 1d		 je	 SHORT $LN36@kasock_ini
$LN22@kasock_ini:

; 2658 :                 CRASH();

  00332	48 c7 84 24 88
	00 00 00 00 00
	00 00		 mov	 QWORD PTR p$13[rsp], 0
  0033e	48 8b 84 24 88
	00 00 00	 mov	 rax, QWORD PTR p$13[rsp]
  00346	c6 00 00	 mov	 BYTE PTR [rax], 0
  00349	33 c0		 xor	 eax, eax
  0034b	85 c0		 test	 eax, eax
  0034d	75 e3		 jne	 SHORT $LN22@kasock_ini
$LN36@kasock_ini:

; 2659 :             dwCnt2 = bPreVista ? PREVISTA_DEF_KA_CNT : DEF_KA_CNT;

  0034f	83 7c 24 40 00	 cmp	 DWORD PTR bPreVista$5[rsp], 0
  00354	74 0a		 je	 SHORT $LN44@kasock_ini
  00356	c7 44 24 60 05
	00 00 00	 mov	 DWORD PTR tv174[rsp], 5
  0035e	eb 08		 jmp	 SHORT $LN45@kasock_ini
$LN44@kasock_ini:
  00360	c7 44 24 60 0a
	00 00 00	 mov	 DWORD PTR tv174[rsp], 10
$LN45@kasock_ini:
  00368	8b 44 24 60	 mov	 eax, DWORD PTR tv174[rsp]
  0036c	89 44 24 38	 mov	 DWORD PTR dwCnt2$3[rsp], eax
$LN35@kasock_ini:

; 2660 :         }
; 2661 : 
; 2662 :         // (round down to maximum allowed)
; 2663 : 
; 2664 :         if (dwCnt2 > MAX_KA_CNT)

  00370	81 7c 24 38 ff
	00 00 00	 cmp	 DWORD PTR dwCnt2$3[rsp], 255 ; 000000ffH
  00378	76 08		 jbe	 SHORT $LN37@kasock_ini

; 2665 :             dwCnt2 = MAX_KA_CNT;

  0037a	c7 44 24 38 ff
	00 00 00	 mov	 DWORD PTR dwCnt2$3[rsp], 255 ; 000000ffH
$LN37@kasock_ini:

; 2666 : 
; 2667 :         RegCloseKey( hKey );

  00382	48 8b 4c 24 50	 mov	 rcx, QWORD PTR hKey$8[rsp]
  00387	ff 15 00 00 00
	00		 call	 QWORD PTR __imp_RegCloseKey

; 2668 : 
; 2669 :         // Choose the greater of the two probe count values
; 2670 : 
; 2671 :         if (dwCnt1 < dwCnt2)

  0038d	8b 44 24 38	 mov	 eax, DWORD PTR dwCnt2$3[rsp]
  00391	39 44 24 34	 cmp	 DWORD PTR dwCnt1$2[rsp], eax
  00395	73 08		 jae	 SHORT $LN38@kasock_ini

; 2672 :             dwCnt1 = dwCnt2;

  00397	8b 44 24 38	 mov	 eax, DWORD PTR dwCnt2$3[rsp]
  0039b	89 44 24 34	 mov	 DWORD PTR dwCnt1$2[rsp], eax
$LN38@kasock_ini:

; 2673 : 
; 2674 :         // Save default values in number of whole seconds
; 2675 : 
; 2676 :         def_ka_time  =  (int) ((dwTime + 500) / 1000);

  0039f	8b 44 24 44	 mov	 eax, DWORD PTR dwTime$6[rsp]
  003a3	05 f4 01 00 00	 add	 eax, 500		; 000001f4H
  003a8	33 d2		 xor	 edx, edx
  003aa	b9 e8 03 00 00	 mov	 ecx, 1000		; 000003e8H
  003af	f7 f1		 div	 ecx
  003b1	89 05 00 00 00
	00		 mov	 DWORD PTR def_ka_time, eax

; 2677 :         def_ka_intv  =  (int) ((dwIntv + 500) / 1000);

  003b7	8b 44 24 48	 mov	 eax, DWORD PTR dwIntv$7[rsp]
  003bb	05 f4 01 00 00	 add	 eax, 500		; 000001f4H
  003c0	33 d2		 xor	 edx, edx
  003c2	b9 e8 03 00 00	 mov	 ecx, 1000		; 000003e8H
  003c7	f7 f1		 div	 ecx
  003c9	89 05 00 00 00
	00		 mov	 DWORD PTR def_ka_intv, eax

; 2678 :         def_ka_cnt   =  (int) (dwCnt1);

  003cf	8b 44 24 34	 mov	 eax, DWORD PTR dwCnt1$2[rsp]
  003d3	89 05 00 00 00
	00		 mov	 DWORD PTR def_ka_cnt, eax
$LN1@kasock_ini:

; 2679 :     }
; 2680 : }

  003d9	48 8b 8c 24 30
	01 00 00	 mov	 rcx, QWORD PTR __$ArrayPad$[rsp]
  003e1	48 33 cc	 xor	 rcx, rsp
  003e4	e8 00 00 00 00	 call	 __security_check_cookie
  003e9	48 81 c4 40 01
	00 00		 add	 rsp, 320		; 00000140H
  003f0	5f		 pop	 rdi
  003f1	c3		 ret	 0
kasock_init ENDP
_TEXT	ENDS
; Function compile flags: /Odtp
; File C:\papa\MyGit\hyperion-zvector\w32util.c
_TEXT	SEGMENT
dwLastError$1 = 80
hOrigStdIn$2 = 88
hOurProcess$3 = 96
tv153 = 104
szErrMsg$4 = 112
__$ArrayPad$ = 368
CreateReadStdInThread PROC

; 2252 : {

  00000	48 81 ec 88 01
	00 00		 sub	 rsp, 392		; 00000188H
  00007	48 8b 05 00 00
	00 00		 mov	 rax, QWORD PTR __security_cookie
  0000e	48 33 c4	 xor	 rax, rsp
  00011	48 89 84 24 70
	01 00 00	 mov	 QWORD PTR __$ArrayPad$[rsp], rax

; 2253 :     if (!dwThreadId)  // (only do this once)

  00019	83 3d 00 00 00
	00 00		 cmp	 DWORD PTR dwThreadId, 0
  00020	0f 85 99 03 00
	00		 jne	 $LN32@CreateRead

; 2254 :     {
; 2255 :         HANDLE hOrigStdIn, hOurProcess;
; 2256 : 
; 2257 :         hStdInAvailable = CreateEvent( NULL, TRUE, FALSE, NULL );

  00026	45 33 c9	 xor	 r9d, r9d
  00029	45 33 c0	 xor	 r8d, r8d
  0002c	ba 01 00 00 00	 mov	 edx, 1
  00031	33 c9		 xor	 ecx, ecx
  00033	ff 15 00 00 00
	00		 call	 QWORD PTR __imp_CreateEventA
  00039	48 89 05 00 00
	00 00		 mov	 QWORD PTR hStdInAvailable, rax

; 2258 :         hGotStdIn       = CreateEvent( NULL, TRUE, TRUE,  NULL );

  00040	45 33 c9	 xor	 r9d, r9d
  00043	41 b8 01 00 00
	00		 mov	 r8d, 1
  00049	ba 01 00 00 00	 mov	 edx, 1
  0004e	33 c9		 xor	 ecx, ecx
  00050	ff 15 00 00 00
	00		 call	 QWORD PTR __imp_CreateEventA
  00056	48 89 05 00 00
	00 00		 mov	 QWORD PTR hGotStdIn, rax
$LN4@CreateRead:

; 2259 : 
; 2260 :         ASSERT( hStdInAvailable && INVALID_HANDLE_VALUE != hStdInAvailable );

  0005d	48 83 3d 00 00
	00 00 00	 cmp	 QWORD PTR hStdInAvailable, 0
  00065	74 0a		 je	 SHORT $LN34@CreateRead
  00067	48 83 3d 00 00
	00 00 ff	 cmp	 QWORD PTR hStdInAvailable, -1
  0006f	75 5b		 jne	 SHORT $LN33@CreateRead
$LN34@CreateRead:
$LN7@CreateRead:
  00071	4c 8d 0d 00 00
	00 00		 lea	 r9, OFFSET FLAT:$SG160335
  00078	41 b8 d4 08 00
	00		 mov	 r8d, 2260		; 000008d4H
  0007e	48 8d 15 00 00
	00 00		 lea	 rdx, OFFSET FLAT:$SG160336
  00085	48 8d 0d 00 00
	00 00		 lea	 rcx, OFFSET FLAT:$SG160337
  0008c	e8 00 00 00 00	 call	 logmsg
  00091	ff 15 00 00 00
	00		 call	 QWORD PTR __imp_IsDebuggerPresent
  00097	85 c0		 test	 eax, eax
  00099	74 20		 je	 SHORT $LN35@CreateRead
  0009b	4c 8d 0d 00 00
	00 00		 lea	 r9, OFFSET FLAT:$SG160339
  000a2	41 b8 d4 08 00
	00		 mov	 r8d, 2260		; 000008d4H
  000a8	48 8d 15 00 00
	00 00		 lea	 rdx, OFFSET FLAT:$SG160340
  000af	48 8d 0d 00 00
	00 00		 lea	 rcx, OFFSET FLAT:$SG160341
  000b6	e8 00 00 00 00	 call	 DebuggerTrace
$LN35@CreateRead:
  000bb	33 c0		 xor	 eax, eax
  000bd	85 c0		 test	 eax, eax
  000bf	75 b0		 jne	 SHORT $LN7@CreateRead
  000c1	ff 15 00 00 00
	00		 call	 QWORD PTR __imp_IsDebuggerPresent
  000c7	85 c0		 test	 eax, eax
  000c9	74 01		 je	 SHORT $LN36@CreateRead
  000cb	cc		 int	 3
$LN36@CreateRead:
$LN33@CreateRead:
  000cc	33 c0		 xor	 eax, eax
  000ce	85 c0		 test	 eax, eax
  000d0	75 8b		 jne	 SHORT $LN4@CreateRead
$LN10@CreateRead:

; 2261 :         ASSERT( hGotStdIn       && INVALID_HANDLE_VALUE != hGotStdIn       );

  000d2	48 83 3d 00 00
	00 00 00	 cmp	 QWORD PTR hGotStdIn, 0
  000da	74 0a		 je	 SHORT $LN38@CreateRead
  000dc	48 83 3d 00 00
	00 00 ff	 cmp	 QWORD PTR hGotStdIn, -1
  000e4	75 5b		 jne	 SHORT $LN37@CreateRead
$LN38@CreateRead:
$LN13@CreateRead:
  000e6	4c 8d 0d 00 00
	00 00		 lea	 r9, OFFSET FLAT:$SG160345
  000ed	41 b8 d5 08 00
	00		 mov	 r8d, 2261		; 000008d5H
  000f3	48 8d 15 00 00
	00 00		 lea	 rdx, OFFSET FLAT:$SG160346
  000fa	48 8d 0d 00 00
	00 00		 lea	 rcx, OFFSET FLAT:$SG160347
  00101	e8 00 00 00 00	 call	 logmsg
  00106	ff 15 00 00 00
	00		 call	 QWORD PTR __imp_IsDebuggerPresent
  0010c	85 c0		 test	 eax, eax
  0010e	74 20		 je	 SHORT $LN39@CreateRead
  00110	4c 8d 0d 00 00
	00 00		 lea	 r9, OFFSET FLAT:$SG160349
  00117	41 b8 d5 08 00
	00		 mov	 r8d, 2261		; 000008d5H
  0011d	48 8d 15 00 00
	00 00		 lea	 rdx, OFFSET FLAT:$SG160350
  00124	48 8d 0d 00 00
	00 00		 lea	 rcx, OFFSET FLAT:$SG160351
  0012b	e8 00 00 00 00	 call	 DebuggerTrace
$LN39@CreateRead:
  00130	33 c0		 xor	 eax, eax
  00132	85 c0		 test	 eax, eax
  00134	75 b0		 jne	 SHORT $LN13@CreateRead
  00136	ff 15 00 00 00
	00		 call	 QWORD PTR __imp_IsDebuggerPresent
  0013c	85 c0		 test	 eax, eax
  0013e	74 01		 je	 SHORT $LN40@CreateRead
  00140	cc		 int	 3
$LN40@CreateRead:
$LN37@CreateRead:
  00141	33 c0		 xor	 eax, eax
  00143	85 c0		 test	 eax, eax
  00145	75 8b		 jne	 SHORT $LN10@CreateRead

; 2262 : 
; 2263 :         // PROGRAMMING NOTE: during testing of Rexx is was discovered
; 2264 :         // that OORexx would get stuck in its PeekNamedPipe() API call
; 2265 :         // whenever Hercules was run under the control of an External
; 2266 :         // GUI (e.g. HercGUI) thereby preventing the Rexx script from
; 2267 :         // ever finishing/exiting (i.e. returning back to Hercules).
; 2268 :         //
; 2269 :         // Invoking a Rexx script which permanently hangs (i.e. never
; 2270 :         // completes) is clearly a disastrous situation, but is made
; 2271 :         // even more disastrous should the thread invoking the Rexx
; 2272 :         // script happen to be one of the CPU threads invoking said
; 2273 :         // Rexx script via the Hercules DIAGNOSE X'008' interface.
; 2274 :         // The DIAG8 instruction would hang causing a Machine Check.
; 2275 :         //
; 2276 :         // After much research is was determined the cause was due to
; 2277 :         // the above read from stdin thread was stuck waiting for its
; 2278 :         // ReadFile of stdin to be satisfied, thereby causing OORexx's
; 2279 :         // PeekNamedPipe call to hang. (Apparently the way Microsoft
; 2280 :         // designed their anonymous pipe handling you can't have two
; 2281 :         // threads within the same process both trying to access the
; 2282 :         // same Windows HANDLE at the same time, which makes sense).
; 2283 :         // The unsatisfied (blocked) ReadFile on the stdin HANDLE was
; 2284 :         // causing OORexx's PeekNamedPipe() call to hang.
; 2285 :         //
; 2286 :         // Many different workarounds were attempted but the simplest
; 2287 :         // and most straightforward of them all was determined to be
; 2288 :         // the technique used below: to simply create a duplicate of
; 2289 :         // the original stdin HANDLE and use it instead to read from
; 2290 :         // our end of the anonymous pipe (closing the original stdin
; 2291 :         // HANDLE afterwards of course). Doing this prevents OORexx's
; 2292 :         // PeekNamedPipe() call on the original handle from hanging
; 2293 :         // since now only one thread was accessing the handle (Rexx)
; 2294 :         // since we closed our copy and were now using a completely
; 2295 :         // different HANDLE to read from that Rexx wasn't also using.
; 2296 : 
; 2297 :         hOurProcess = GetCurrentProcess();

  00147	ff 15 00 00 00
	00		 call	 QWORD PTR __imp_GetCurrentProcess
  0014d	48 89 44 24 60	 mov	 QWORD PTR hOurProcess$3[rsp], rax

; 2298 :         hOrigStdIn  = GetStdHandle( STD_INPUT_HANDLE );

  00152	b9 f6 ff ff ff	 mov	 ecx, -10		; fffffff6H
  00157	ff 15 00 00 00
	00		 call	 QWORD PTR __imp_GetStdHandle
  0015d	48 89 44 24 58	 mov	 QWORD PTR hOrigStdIn$2[rsp], rax

; 2299 : 
; 2300 :         if (DuplicateHandle

  00162	c7 44 24 30 02
	00 00 00	 mov	 DWORD PTR [rsp+48], 2
  0016a	c7 44 24 28 00
	00 00 00	 mov	 DWORD PTR [rsp+40], 0
  00172	c7 44 24 20 00
	00 00 00	 mov	 DWORD PTR [rsp+32], 0
  0017a	4c 8d 0d 00 00
	00 00		 lea	 r9, OFFSET FLAT:hDupedStdIn
  00181	4c 8b 44 24 60	 mov	 r8, QWORD PTR hOurProcess$3[rsp]
  00186	48 8b 54 24 58	 mov	 rdx, QWORD PTR hOrigStdIn$2[rsp]
  0018b	48 8b 4c 24 60	 mov	 rcx, QWORD PTR hOurProcess$3[rsp]
  00190	ff 15 00 00 00
	00		 call	 QWORD PTR __imp_DuplicateHandle
  00196	85 c0		 test	 eax, eax
  00198	74 10		 je	 SHORT $LN41@CreateRead

; 2301 :         (
; 2302 :             hOurProcess,            // Process with handle to be duplicated
; 2303 :             hOrigStdIn,             // Original handle to be duplicated
; 2304 :             hOurProcess,            // Process to receive duplicated handle
; 2305 :             &hDupedStdIn,           // The resulting duplicated handle
; 2306 :             0,                      // (ignored for DUPLICATE_SAME_ACCESS)
; 2307 :             FALSE,                  // Never inherit resulting duplicate
; 2308 :             DUPLICATE_SAME_ACCESS   // Give duplicate same access rights
; 2309 :         ))
; 2310 :         {
; 2311 :             CloseHandle( hOrigStdIn );  // (see above PROGRAMMING NOTE)

  0019a	48 8b 4c 24 58	 mov	 rcx, QWORD PTR hOrigStdIn$2[rsp]
  0019f	ff 15 00 00 00
	00		 call	 QWORD PTR __imp_CloseHandle

; 2312 :         }

  001a5	e9 8f 00 00 00	 jmp	 $LN42@CreateRead
$LN41@CreateRead:

; 2313 :         else
; 2314 :         {
; 2315 :             DWORD  dwLastError;
; 2316 :             char   szErrMsg[ 256 ];
; 2317 : 
; 2318 :             // "DuplicateHandle() failed: dwLastError=%d (0x%8.8X): %s"
; 2319 :             dwLastError = GetLastError();

  001aa	ff 15 00 00 00
	00		 call	 QWORD PTR __imp_GetLastError
  001b0	89 44 24 50	 mov	 DWORD PTR dwLastError$1[rsp], eax

; 2320 :             WRMSG( HHC04110, "W", dwLastError, dwLastError,

  001b4	41 b8 00 01 00
	00		 mov	 r8d, 256		; 00000100H
  001ba	48 8d 54 24 70	 lea	 rdx, QWORD PTR szErrMsg$4[rsp]
  001bf	8b 4c 24 50	 mov	 ecx, DWORD PTR dwLastError$1[rsp]
  001c3	e8 00 00 00 00	 call	 w32_w32errmsg
  001c8	48 89 44 24 68	 mov	 QWORD PTR tv153[rsp], rax
  001cd	b9 01 00 00 00	 mov	 ecx, 1
  001d2	ff 15 00 00 00
	00		 call	 QWORD PTR __imp___acrt_iob_func
  001d8	48 8b 4c 24 68	 mov	 rcx, QWORD PTR tv153[rsp]
  001dd	48 89 4c 24 48	 mov	 QWORD PTR [rsp+72], rcx
  001e2	8b 4c 24 50	 mov	 ecx, DWORD PTR dwLastError$1[rsp]
  001e6	89 4c 24 40	 mov	 DWORD PTR [rsp+64], ecx
  001ea	8b 4c 24 50	 mov	 ecx, DWORD PTR dwLastError$1[rsp]
  001ee	89 4c 24 38	 mov	 DWORD PTR [rsp+56], ecx
  001f2	48 8d 0d 00 00
	00 00		 lea	 rcx, OFFSET FLAT:$SG160355
  001f9	48 89 4c 24 30	 mov	 QWORD PTR [rsp+48], rcx
  001fe	48 8d 0d 00 00
	00 00		 lea	 rcx, OFFSET FLAT:$SG160356
  00205	48 89 4c 24 28	 mov	 QWORD PTR [rsp+40], rcx
  0020a	48 89 44 24 20	 mov	 QWORD PTR [rsp+32], rax
  0020f	41 b9 03 00 00
	00		 mov	 r9d, 3
  00215	4c 8d 05 00 00
	00 00		 lea	 r8, OFFSET FLAT:$SG160357
  0021c	ba 11 09 00 00	 mov	 edx, 2321		; 00000911H
  00221	48 8d 0d 00 00
	00 00		 lea	 rcx, OFFSET FLAT:$SG160358
  00228	e8 00 00 00 00	 call	 fwritemsg

; 2321 :                 w32_w32errmsg( dwLastError, szErrMsg, sizeof( szErrMsg )));
; 2322 : 
; 2323 :             hDupedStdIn = hOrigStdIn;   // (we have no other choice!)

  0022d	48 8b 44 24 58	 mov	 rax, QWORD PTR hOrigStdIn$2[rsp]
  00232	48 89 05 00 00
	00 00		 mov	 QWORD PTR hDupedStdIn, rax
$LN42@CreateRead:
$LN16@CreateRead:

; 2324 :         }
; 2325 : 
; 2326 :         ASSERT( hDupedStdIn && INVALID_HANDLE_VALUE != hDupedStdIn );

  00239	48 83 3d 00 00
	00 00 00	 cmp	 QWORD PTR hDupedStdIn, 0
  00241	74 0a		 je	 SHORT $LN44@CreateRead
  00243	48 83 3d 00 00
	00 00 ff	 cmp	 QWORD PTR hDupedStdIn, -1
  0024b	75 5b		 jne	 SHORT $LN43@CreateRead
$LN44@CreateRead:
$LN19@CreateRead:
  0024d	4c 8d 0d 00 00
	00 00		 lea	 r9, OFFSET FLAT:$SG160361
  00254	41 b8 16 09 00
	00		 mov	 r8d, 2326		; 00000916H
  0025a	48 8d 15 00 00
	00 00		 lea	 rdx, OFFSET FLAT:$SG160362
  00261	48 8d 0d 00 00
	00 00		 lea	 rcx, OFFSET FLAT:$SG160363
  00268	e8 00 00 00 00	 call	 logmsg
  0026d	ff 15 00 00 00
	00		 call	 QWORD PTR __imp_IsDebuggerPresent
  00273	85 c0		 test	 eax, eax
  00275	74 20		 je	 SHORT $LN45@CreateRead
  00277	4c 8d 0d 00 00
	00 00		 lea	 r9, OFFSET FLAT:$SG160365
  0027e	41 b8 16 09 00
	00		 mov	 r8d, 2326		; 00000916H
  00284	48 8d 15 00 00
	00 00		 lea	 rdx, OFFSET FLAT:$SG160366
  0028b	48 8d 0d 00 00
	00 00		 lea	 rcx, OFFSET FLAT:$SG160367
  00292	e8 00 00 00 00	 call	 DebuggerTrace
$LN45@CreateRead:
  00297	33 c0		 xor	 eax, eax
  00299	85 c0		 test	 eax, eax
  0029b	75 b0		 jne	 SHORT $LN19@CreateRead
  0029d	ff 15 00 00 00
	00		 call	 QWORD PTR __imp_IsDebuggerPresent
  002a3	85 c0		 test	 eax, eax
  002a5	74 01		 je	 SHORT $LN46@CreateRead
  002a7	cc		 int	 3
$LN46@CreateRead:
$LN43@CreateRead:
  002a8	33 c0		 xor	 eax, eax
  002aa	85 c0		 test	 eax, eax
  002ac	75 8b		 jne	 SHORT $LN16@CreateRead

; 2327 : 
; 2328 :         hThread = (HANDLE) _beginthreadex

  002ae	48 8d 05 00 00
	00 00		 lea	 rax, OFFSET FLAT:dwThreadId
  002b5	48 89 44 24 28	 mov	 QWORD PTR [rsp+40], rax
  002ba	c7 44 24 20 00
	00 00 00	 mov	 DWORD PTR [rsp+32], 0
  002c2	45 33 c9	 xor	 r9d, r9d
  002c5	4c 8d 05 00 00
	00 00		 lea	 r8, OFFSET FLAT:ReadStdInThread
  002cc	ba 00 00 01 00	 mov	 edx, 65536		; 00010000H
  002d1	33 c9		 xor	 ecx, ecx
  002d3	ff 15 00 00 00
	00		 call	 QWORD PTR __imp__beginthreadex
  002d9	48 89 05 00 00
	00 00		 mov	 QWORD PTR hThread, rax
$LN22@CreateRead:

; 2329 :         (
; 2330 :             NULL,                   // Pointer to security attributes
; 2331 :             64*1024,                // Initial thread stack size in bytes
; 2332 :             ReadStdInThread,        // Pointer to thread function
; 2333 :             NULL,                   // Argument for new thread
; 2334 :             0,                      // Creation flags
; 2335 :             &dwThreadId             // Pointer to receive thread ID
; 2336 :         );
; 2337 : 
; 2338 :         ASSERT( hThread && INVALID_HANDLE_VALUE != hThread );

  002e0	48 83 3d 00 00
	00 00 00	 cmp	 QWORD PTR hThread, 0
  002e8	74 0a		 je	 SHORT $LN48@CreateRead
  002ea	48 83 3d 00 00
	00 00 ff	 cmp	 QWORD PTR hThread, -1
  002f2	75 5b		 jne	 SHORT $LN47@CreateRead
$LN48@CreateRead:
$LN25@CreateRead:
  002f4	4c 8d 0d 00 00
	00 00		 lea	 r9, OFFSET FLAT:$SG160371
  002fb	41 b8 22 09 00
	00		 mov	 r8d, 2338		; 00000922H
  00301	48 8d 15 00 00
	00 00		 lea	 rdx, OFFSET FLAT:$SG160372
  00308	48 8d 0d 00 00
	00 00		 lea	 rcx, OFFSET FLAT:$SG160373
  0030f	e8 00 00 00 00	 call	 logmsg
  00314	ff 15 00 00 00
	00		 call	 QWORD PTR __imp_IsDebuggerPresent
  0031a	85 c0		 test	 eax, eax
  0031c	74 20		 je	 SHORT $LN49@CreateRead
  0031e	4c 8d 0d 00 00
	00 00		 lea	 r9, OFFSET FLAT:$SG160375
  00325	41 b8 22 09 00
	00		 mov	 r8d, 2338		; 00000922H
  0032b	48 8d 15 00 00
	00 00		 lea	 rdx, OFFSET FLAT:$SG160376
  00332	48 8d 0d 00 00
	00 00		 lea	 rcx, OFFSET FLAT:$SG160377
  00339	e8 00 00 00 00	 call	 DebuggerTrace
$LN49@CreateRead:
  0033e	33 c0		 xor	 eax, eax
  00340	85 c0		 test	 eax, eax
  00342	75 b0		 jne	 SHORT $LN25@CreateRead
  00344	ff 15 00 00 00
	00		 call	 QWORD PTR __imp_IsDebuggerPresent
  0034a	85 c0		 test	 eax, eax
  0034c	74 01		 je	 SHORT $LN50@CreateRead
  0034e	cc		 int	 3
$LN50@CreateRead:
$LN47@CreateRead:
  0034f	33 c0		 xor	 eax, eax
  00351	85 c0		 test	 eax, eax
  00353	75 8b		 jne	 SHORT $LN22@CreateRead
$LN28@CreateRead:

; 2339 :         ASSERT( dwThreadId != 0 );

  00355	83 3d 00 00 00
	00 00		 cmp	 DWORD PTR dwThreadId, 0
  0035c	75 5b		 jne	 SHORT $LN51@CreateRead
$LN31@CreateRead:
  0035e	4c 8d 0d 00 00
	00 00		 lea	 r9, OFFSET FLAT:$SG160380
  00365	41 b8 23 09 00
	00		 mov	 r8d, 2339		; 00000923H
  0036b	48 8d 15 00 00
	00 00		 lea	 rdx, OFFSET FLAT:$SG160381
  00372	48 8d 0d 00 00
	00 00		 lea	 rcx, OFFSET FLAT:$SG160382
  00379	e8 00 00 00 00	 call	 logmsg
  0037e	ff 15 00 00 00
	00		 call	 QWORD PTR __imp_IsDebuggerPresent
  00384	85 c0		 test	 eax, eax
  00386	74 20		 je	 SHORT $LN52@CreateRead
  00388	4c 8d 0d 00 00
	00 00		 lea	 r9, OFFSET FLAT:$SG160384
  0038f	41 b8 23 09 00
	00		 mov	 r8d, 2339		; 00000923H
  00395	48 8d 15 00 00
	00 00		 lea	 rdx, OFFSET FLAT:$SG160385
  0039c	48 8d 0d 00 00
	00 00		 lea	 rcx, OFFSET FLAT:$SG160386
  003a3	e8 00 00 00 00	 call	 DebuggerTrace
$LN52@CreateRead:
  003a8	33 c0		 xor	 eax, eax
  003aa	85 c0		 test	 eax, eax
  003ac	75 b0		 jne	 SHORT $LN31@CreateRead
  003ae	ff 15 00 00 00
	00		 call	 QWORD PTR __imp_IsDebuggerPresent
  003b4	85 c0		 test	 eax, eax
  003b6	74 01		 je	 SHORT $LN53@CreateRead
  003b8	cc		 int	 3
$LN53@CreateRead:
$LN51@CreateRead:
  003b9	33 c0		 xor	 eax, eax
  003bb	85 c0		 test	 eax, eax
  003bd	75 96		 jne	 SHORT $LN28@CreateRead
$LN32@CreateRead:

; 2340 :     }
; 2341 : }

  003bf	48 8b 8c 24 70
	01 00 00	 mov	 rcx, QWORD PTR __$ArrayPad$[rsp]
  003c7	48 33 cc	 xor	 rcx, rsp
  003ca	e8 00 00 00 00	 call	 __security_check_cookie
  003cf	48 81 c4 88 01
	00 00		 add	 rsp, 392		; 00000188H
  003d6	c3		 ret	 0
CreateReadStdInThread ENDP
_TEXT	ENDS
; Function compile flags: /Odtp
; File C:\papa\MyGit\hyperion-zvector\w32util.c
_TEXT	SEGMENT
dwLastError$1 = 64
dwBytesRead$ = 68
szErrMsg$2 = 80
buf$3 = 336
__$ArrayPad$ = 848
lpParameter$ = 880
ReadStdInThread PROC

; 2206 : {

  00000	48 89 4c 24 08	 mov	 QWORD PTR [rsp+8], rcx
  00005	48 81 ec 68 03
	00 00		 sub	 rsp, 872		; 00000368H
  0000c	48 8b 05 00 00
	00 00		 mov	 rax, QWORD PTR __security_cookie
  00013	48 33 c4	 xor	 rax, rsp
  00016	48 89 84 24 50
	03 00 00	 mov	 QWORD PTR __$ArrayPad$[rsp], rax

; 2207 :     DWORD   dwBytesRead  = 0;

  0001e	c7 44 24 44 00
	00 00 00	 mov	 DWORD PTR dwBytesRead$[rsp], 0
$LN4@ReadStdInT:

; 2208 : 
; 2209 :     UNREFERENCED( lpParameter );

  00026	33 c0		 xor	 eax, eax
  00028	85 c0		 test	 eax, eax
  0002a	75 fa		 jne	 SHORT $LN4@ReadStdInT
$LN7@ReadStdInT:

; 2210 : 
; 2211 :     SET_THREAD_NAME ("ReadStdInThread");

  0002c	ff 15 00 00 00
	00		 call	 QWORD PTR __imp_GetCurrentThreadId
  00032	48 8d 15 00 00
	00 00		 lea	 rdx, OFFSET FLAT:$SG160261
  00039	8b c8		 mov	 ecx, eax
  0003b	e8 00 00 00 00	 call	 w32_set_thread_name
  00040	ff 15 00 00 00
	00		 call	 QWORD PTR __imp_GetCurrentThreadId
  00046	48 8d 15 00 00
	00 00		 lea	 rdx, OFFSET FLAT:$SG160262
  0004d	8b c8		 mov	 ecx, eax
  0004f	e8 00 00 00 00	 call	 hthread_set_thread_name
  00054	33 c0		 xor	 eax, eax
  00056	85 c0		 test	 eax, eax
  00058	75 d2		 jne	 SHORT $LN7@ReadStdInT
$LN8@ReadStdInT:

; 2212 : 
; 2213 :     for (;;)
; 2214 :     {
; 2215 :         WaitForSingleObject( hGotStdIn, INFINITE );

  0005a	ba ff ff ff ff	 mov	 edx, -1			; ffffffffH
  0005f	48 8b 0d 00 00
	00 00		 mov	 rcx, QWORD PTR hGotStdIn
  00066	ff 15 00 00 00
	00		 call	 QWORD PTR __imp_WaitForSingleObject

; 2216 : 
; 2217 :         if (!ReadFile( hDupedStdIn, &chStdIn, 1, &dwBytesRead, NULL ))

  0006c	48 c7 44 24 20
	00 00 00 00	 mov	 QWORD PTR [rsp+32], 0
  00075	4c 8d 4c 24 44	 lea	 r9, QWORD PTR dwBytesRead$[rsp]
  0007a	41 b8 01 00 00
	00		 mov	 r8d, 1
  00080	48 8d 15 00 00
	00 00		 lea	 rdx, OFFSET FLAT:chStdIn
  00087	48 8b 0d 00 00
	00 00		 mov	 rcx, QWORD PTR hDupedStdIn
  0008e	ff 15 00 00 00
	00		 call	 QWORD PTR __imp_ReadFile
  00094	85 c0		 test	 eax, eax
  00096	0f 85 c9 00 00
	00		 jne	 $LN17@ReadStdInT

; 2218 :         {
; 2219 :             char  buf[512];
; 2220 :             char  szErrMsg[256];
; 2221 :             DWORD dwLastError = GetLastError();

  0009c	ff 15 00 00 00
	00		 call	 QWORD PTR __imp_GetLastError
  000a2	89 44 24 40	 mov	 DWORD PTR dwLastError$1[rsp], eax

; 2222 : 
; 2223 :             if ( ERROR_BROKEN_PIPE == dwLastError || sysblk.shutdown )

  000a6	83 7c 24 40 6d	 cmp	 DWORD PTR dwLastError$1[rsp], 109 ; 0000006dH
  000ab	74 17		 je	 SHORT $LN19@ReadStdInT
  000ad	48 8b 05 00 00
	00 00		 mov	 rax, QWORD PTR __imp_sysblk
  000b4	8b 80 94 12 00
	00		 mov	 eax, DWORD PTR [rax+4756]
  000ba	c1 e8 0b	 shr	 eax, 11
  000bd	83 e0 01	 and	 eax, 1
  000c0	85 c0		 test	 eax, eax
  000c2	74 05		 je	 SHORT $LN18@ReadStdInT
$LN19@ReadStdInT:

; 2224 :                 break; // (shutting down; time to exit)

  000c4	e9 23 01 00 00	 jmp	 $LN9@ReadStdInT
$LN18@ReadStdInT:

; 2225 : 
; 2226 :             w32_w32errmsg( dwLastError, szErrMsg, sizeof(szErrMsg) );

  000c9	41 b8 00 01 00
	00		 mov	 r8d, 256		; 00000100H
  000cf	48 8d 54 24 50	 lea	 rdx, QWORD PTR szErrMsg$2[rsp]
  000d4	8b 4c 24 40	 mov	 ecx, DWORD PTR dwLastError$1[rsp]
  000d8	e8 00 00 00 00	 call	 w32_w32errmsg

; 2227 : 
; 2228 :             MSGBUF

  000dd	48 8d 44 24 50	 lea	 rax, QWORD PTR szErrMsg$2[rsp]
  000e2	48 89 44 24 28	 mov	 QWORD PTR [rsp+40], rax
  000e7	8b 44 24 40	 mov	 eax, DWORD PTR dwLastError$1[rsp]
  000eb	89 44 24 20	 mov	 DWORD PTR [rsp+32], eax
  000ef	44 8b 4c 24 40	 mov	 r9d, DWORD PTR dwLastError$1[rsp]
  000f4	4c 8d 05 00 00
	00 00		 lea	 r8, OFFSET FLAT:$SG160266
  000fb	ba 00 02 00 00	 mov	 edx, 512		; 00000200H
  00100	48 8d 8c 24 50
	01 00 00	 lea	 rcx, QWORD PTR buf$3[rsp]
  00108	e8 00 00 00 00	 call	 w32_snprintf

; 2229 :             (
; 2230 :                  buf, "ReadFile( hDupedStdIn ) failed! dwLastError=%d (0x%8.8X): %s"
; 2231 :                 ,dwLastError
; 2232 :                 ,dwLastError
; 2233 :                 ,szErrMsg
; 2234 :             );
; 2235 :             WRMSG(HHC90000, "D", buf);

  0010d	b9 01 00 00 00	 mov	 ecx, 1
  00112	ff 15 00 00 00
	00		 call	 QWORD PTR __imp___acrt_iob_func
  00118	48 8d 8c 24 50
	01 00 00	 lea	 rcx, QWORD PTR buf$3[rsp]
  00120	48 89 4c 24 38	 mov	 QWORD PTR [rsp+56], rcx
  00125	48 8d 0d 00 00
	00 00		 lea	 rcx, OFFSET FLAT:$SG160267
  0012c	48 89 4c 24 30	 mov	 QWORD PTR [rsp+48], rcx
  00131	48 8d 0d 00 00
	00 00		 lea	 rcx, OFFSET FLAT:$SG160268
  00138	48 89 4c 24 28	 mov	 QWORD PTR [rsp+40], rcx
  0013d	48 89 44 24 20	 mov	 QWORD PTR [rsp+32], rax
  00142	41 b9 03 00 00
	00		 mov	 r9d, 3
  00148	4c 8d 05 00 00
	00 00		 lea	 r8, OFFSET FLAT:$SG160269
  0014f	ba bb 08 00 00	 mov	 edx, 2235		; 000008bbH
  00154	48 8d 0d 00 00
	00 00		 lea	 rcx, OFFSET FLAT:$SG160270
  0015b	e8 00 00 00 00	 call	 fwritemsg

; 2236 :             continue;

  00160	e9 f5 fe ff ff	 jmp	 $LN8@ReadStdInT
$LN17@ReadStdInT:
$LN13@ReadStdInT:

; 2237 :         }
; 2238 : 
; 2239 :         ASSERT( 1 == dwBytesRead );

  00165	83 7c 24 44 01	 cmp	 DWORD PTR dwBytesRead$[rsp], 1
  0016a	74 5b		 je	 SHORT $LN20@ReadStdInT
$LN16@ReadStdInT:
  0016c	4c 8d 0d 00 00
	00 00		 lea	 r9, OFFSET FLAT:$SG160272
  00173	41 b8 bf 08 00
	00		 mov	 r8d, 2239		; 000008bfH
  00179	48 8d 15 00 00
	00 00		 lea	 rdx, OFFSET FLAT:$SG160273
  00180	48 8d 0d 00 00
	00 00		 lea	 rcx, OFFSET FLAT:$SG160274
  00187	e8 00 00 00 00	 call	 logmsg
  0018c	ff 15 00 00 00
	00		 call	 QWORD PTR __imp_IsDebuggerPresent
  00192	85 c0		 test	 eax, eax
  00194	74 20		 je	 SHORT $LN21@ReadStdInT
  00196	4c 8d 0d 00 00
	00 00		 lea	 r9, OFFSET FLAT:$SG160276
  0019d	41 b8 bf 08 00
	00		 mov	 r8d, 2239		; 000008bfH
  001a3	48 8d 15 00 00
	00 00		 lea	 rdx, OFFSET FLAT:$SG160277
  001aa	48 8d 0d 00 00
	00 00		 lea	 rcx, OFFSET FLAT:$SG160278
  001b1	e8 00 00 00 00	 call	 DebuggerTrace
$LN21@ReadStdInT:
  001b6	33 c0		 xor	 eax, eax
  001b8	85 c0		 test	 eax, eax
  001ba	75 b0		 jne	 SHORT $LN16@ReadStdInT
  001bc	ff 15 00 00 00
	00		 call	 QWORD PTR __imp_IsDebuggerPresent
  001c2	85 c0		 test	 eax, eax
  001c4	74 01		 je	 SHORT $LN22@ReadStdInT
  001c6	cc		 int	 3
$LN22@ReadStdInT:
$LN20@ReadStdInT:
  001c7	33 c0		 xor	 eax, eax
  001c9	85 c0		 test	 eax, eax
  001cb	75 98		 jne	 SHORT $LN13@ReadStdInT

; 2240 : 
; 2241 :         ResetEvent( hGotStdIn );

  001cd	48 8b 0d 00 00
	00 00		 mov	 rcx, QWORD PTR hGotStdIn
  001d4	ff 15 00 00 00
	00		 call	 QWORD PTR __imp_ResetEvent

; 2242 :         SetEvent( hStdInAvailable );

  001da	48 8b 0d 00 00
	00 00		 mov	 rcx, QWORD PTR hStdInAvailable
  001e1	ff 15 00 00 00
	00		 call	 QWORD PTR __imp_SetEvent

; 2243 :     }

  001e7	e9 6e fe ff ff	 jmp	 $LN8@ReadStdInT
$LN9@ReadStdInT:

; 2244 : 
; 2245 :     return 0;

  001ec	33 c0		 xor	 eax, eax

; 2246 : }

  001ee	48 8b 8c 24 50
	03 00 00	 mov	 rcx, QWORD PTR __$ArrayPad$[rsp]
  001f6	48 33 cc	 xor	 rcx, rsp
  001f9	e8 00 00 00 00	 call	 __security_check_cookie
  001fe	48 81 c4 68 03
	00 00		 add	 rsp, 872		; 00000368H
  00205	c3		 ret	 0
ReadStdInThread ENDP
_TEXT	ENDS
; Function compile flags: /Odtp
; File C:\papa\MyGit\hyperion-zvector\w32util.c
_TEXT	SEGMENT
i$ = 0
bitSetCount$ = 4
LSHIFT$ = 8
tv69 = 12
bitTest$ = 16
tv76 = 24
bitMask$ = 48
CountSetBits PROC

; 1431 : {

$LN8:
  00000	48 89 4c 24 08	 mov	 QWORD PTR [rsp+8], rcx
  00005	48 83 ec 28	 sub	 rsp, 40			; 00000028H

; 1432 :     DWORD LSHIFT = sizeof(U_LONG_PTR)*8 - 1;

  00009	c7 44 24 08 3f
	00 00 00	 mov	 DWORD PTR LSHIFT$[rsp], 63 ; 0000003fH

; 1433 :     DWORD bitSetCount = 0;

  00011	c7 44 24 04 00
	00 00 00	 mov	 DWORD PTR bitSetCount$[rsp], 0

; 1434 :     U_LONG_PTR bitTest = (U_LONG_PTR)1 << LSHIFT;

  00019	8b 44 24 08	 mov	 eax, DWORD PTR LSHIFT$[rsp]
  0001d	b9 01 00 00 00	 mov	 ecx, 1
  00022	48 89 4c 24 18	 mov	 QWORD PTR tv76[rsp], rcx
  00027	0f b6 c8	 movzx	 ecx, al
  0002a	48 8b 44 24 18	 mov	 rax, QWORD PTR tv76[rsp]
  0002f	48 d3 e0	 shl	 rax, cl
  00032	48 89 44 24 10	 mov	 QWORD PTR bitTest$[rsp], rax

; 1435 :     DWORD i;
; 1436 : 
; 1437 :     for (i = 0; i <= LSHIFT; ++i)

  00037	c7 04 24 00 00
	00 00		 mov	 DWORD PTR i$[rsp], 0
  0003e	eb 08		 jmp	 SHORT $LN4@CountSetBi
$LN2@CountSetBi:
  00040	8b 04 24	 mov	 eax, DWORD PTR i$[rsp]
  00043	ff c0		 inc	 eax
  00045	89 04 24	 mov	 DWORD PTR i$[rsp], eax
$LN4@CountSetBi:
  00048	8b 44 24 08	 mov	 eax, DWORD PTR LSHIFT$[rsp]
  0004c	39 04 24	 cmp	 DWORD PTR i$[rsp], eax
  0004f	77 4d		 ja	 SHORT $LN3@CountSetBi

; 1438 :     {
; 1439 :         bitSetCount += ((bitMask & bitTest)?1:0);

  00051	48 8b 44 24 10	 mov	 rax, QWORD PTR bitTest$[rsp]
  00056	48 8b 4c 24 30	 mov	 rcx, QWORD PTR bitMask$[rsp]
  0005b	48 23 c8	 and	 rcx, rax
  0005e	48 8b c1	 mov	 rax, rcx
  00061	48 85 c0	 test	 rax, rax
  00064	74 0a		 je	 SHORT $LN6@CountSetBi
  00066	c7 44 24 0c 01
	00 00 00	 mov	 DWORD PTR tv69[rsp], 1
  0006e	eb 08		 jmp	 SHORT $LN7@CountSetBi
$LN6@CountSetBi:
  00070	c7 44 24 0c 00
	00 00 00	 mov	 DWORD PTR tv69[rsp], 0
$LN7@CountSetBi:
  00078	8b 44 24 0c	 mov	 eax, DWORD PTR tv69[rsp]
  0007c	8b 4c 24 04	 mov	 ecx, DWORD PTR bitSetCount$[rsp]
  00080	03 c8		 add	 ecx, eax
  00082	8b c1		 mov	 eax, ecx
  00084	89 44 24 04	 mov	 DWORD PTR bitSetCount$[rsp], eax

; 1440 :         bitTest/=2;

  00088	33 d2		 xor	 edx, edx
  0008a	48 8b 44 24 10	 mov	 rax, QWORD PTR bitTest$[rsp]
  0008f	b9 02 00 00 00	 mov	 ecx, 2
  00094	48 f7 f1	 div	 rcx
  00097	48 89 44 24 10	 mov	 QWORD PTR bitTest$[rsp], rax

; 1441 :     }

  0009c	eb a2		 jmp	 SHORT $LN2@CountSetBi
$LN3@CountSetBi:

; 1442 : 
; 1443 :     return bitSetCount;

  0009e	8b 44 24 04	 mov	 eax, DWORD PTR bitSetCount$[rsp]

; 1444 : }

  000a2	48 83 c4 28	 add	 rsp, 40			; 00000028H
  000a6	c3		 ret	 0
CountSetBits ENDP
_TEXT	ENDS
; Function compile flags: /Odtp
; File C:\papa\MyGit\hyperion-zvector\w32util.c
_TEXT	SEGMENT
result$ = 48
tv64 = 52
whoHandle$ = 56
ftKernel$ = 64
ftUser$ = 72
ftExit$ = 80
ftCreation$ = 88
who$ = 112
whotype$ = 120
r_usage$ = 128
DoGetRUsage PROC

; 1025 : {

$LN12:
  00000	4c 89 44 24 18	 mov	 QWORD PTR [rsp+24], r8
  00005	89 54 24 10	 mov	 DWORD PTR [rsp+16], edx
  00009	89 4c 24 08	 mov	 DWORD PTR [rsp+8], ecx
  0000d	48 83 ec 68	 sub	 rsp, 104		; 00000068H

; 1026 :     FILETIME  ftCreation;   // When the process was created(*)
; 1027 :     FILETIME  ftExit;       // When the process exited(*)
; 1028 : 
; 1029 :     // (*) Windows standard FILETIME format: date/time expressed as the
; 1030 :     //     amount of time that has elapsed since midnight January 1,
; 1031 :     //     1601. These fields are NOT used in converting FILETIME usage
; 1032 :     //     times to rusage times.
; 1033 : 
; 1034 :     FILETIME  ftKernel;     // CPU time spent in kernel mode (in #of 100-nanosecond units)
; 1035 :     FILETIME  ftUser;       // CPU time spent in user   mode (in #of 100-nanosecond units)
; 1036 : 
; 1037 :     int result = 0;

  00011	c7 44 24 30 00
	00 00 00	 mov	 DWORD PTR result$[rsp], 0

; 1038 : 
; 1039 :     HANDLE  whoHandle;
; 1040 : 
; 1041 :     switch ( whotype )

  00019	8b 44 24 78	 mov	 eax, DWORD PTR whotype$[rsp]
  0001d	89 44 24 34	 mov	 DWORD PTR tv64[rsp], eax
  00021	83 7c 24 34 00	 cmp	 DWORD PTR tv64[rsp], 0
  00026	74 0c		 je	 SHORT $LN4@DoGetRUsag
  00028	83 7c 24 34 01	 cmp	 DWORD PTR tv64[rsp], 1
  0002d	74 6e		 je	 SHORT $LN6@DoGetRUsag
  0002f	e9 bb 00 00 00	 jmp	 $LN8@DoGetRUsag
$LN4@DoGetRUsag:

; 1042 :     {
; 1043 :         case rusage_type_process:
; 1044 :             whoHandle = OpenProcess( PROCESS_QUERY_INFORMATION, FALSE, who );

  00034	44 8b 44 24 70	 mov	 r8d, DWORD PTR who$[rsp]
  00039	33 d2		 xor	 edx, edx
  0003b	b9 00 04 00 00	 mov	 ecx, 1024		; 00000400H
  00040	ff 15 00 00 00
	00		 call	 QWORD PTR __imp_OpenProcess
  00046	48 89 44 24 38	 mov	 QWORD PTR whoHandle$[rsp], rax

; 1045 :             if ( whoHandle == NULL )

  0004b	48 83 7c 24 38
	00		 cmp	 QWORD PTR whoHandle$[rsp], 0
  00051	75 12		 jne	 SHORT $LN5@DoGetRUsag

; 1046 :                 return rusage_failure( r_usage );

  00053	48 8b 8c 24 80
	00 00 00	 mov	 rcx, QWORD PTR r_usage$[rsp]
  0005b	e8 00 00 00 00	 call	 rusage_failure
  00060	e9 1a 01 00 00	 jmp	 $LN1@DoGetRUsag
$LN5@DoGetRUsag:

; 1047 :             result = GetProcessTimes( whoHandle, &ftCreation, &ftExit, &ftKernel, &ftUser );

  00065	48 8d 44 24 48	 lea	 rax, QWORD PTR ftUser$[rsp]
  0006a	48 89 44 24 20	 mov	 QWORD PTR [rsp+32], rax
  0006f	4c 8d 4c 24 40	 lea	 r9, QWORD PTR ftKernel$[rsp]
  00074	4c 8d 44 24 50	 lea	 r8, QWORD PTR ftExit$[rsp]
  00079	48 8d 54 24 58	 lea	 rdx, QWORD PTR ftCreation$[rsp]
  0007e	48 8b 4c 24 38	 mov	 rcx, QWORD PTR whoHandle$[rsp]
  00083	ff 15 00 00 00
	00		 call	 QWORD PTR __imp_GetProcessTimes
  00089	89 44 24 30	 mov	 DWORD PTR result$[rsp], eax

; 1048 :             CloseHandle( whoHandle );

  0008d	48 8b 4c 24 38	 mov	 rcx, QWORD PTR whoHandle$[rsp]
  00092	ff 15 00 00 00
	00		 call	 QWORD PTR __imp_CloseHandle

; 1049 :             break;

  00098	e9 90 00 00 00	 jmp	 $LN2@DoGetRUsag
$LN6@DoGetRUsag:

; 1050 :         case rusage_type_thread:
; 1051 :             whoHandle = hthread_get_handle( who );

  0009d	8b 4c 24 70	 mov	 ecx, DWORD PTR who$[rsp]
  000a1	e8 00 00 00 00	 call	 fthread_get_handle
  000a6	48 89 44 24 38	 mov	 QWORD PTR whoHandle$[rsp], rax

; 1052 :             if ( whoHandle == NULL )

  000ab	48 83 7c 24 38
	00		 cmp	 QWORD PTR whoHandle$[rsp], 0
  000b1	75 12		 jne	 SHORT $LN7@DoGetRUsag

; 1053 :                 return rusage_failure( r_usage );

  000b3	48 8b 8c 24 80
	00 00 00	 mov	 rcx, QWORD PTR r_usage$[rsp]
  000bb	e8 00 00 00 00	 call	 rusage_failure
  000c0	e9 ba 00 00 00	 jmp	 $LN1@DoGetRUsag
$LN7@DoGetRUsag:

; 1054 :             result = GetThreadTimes( whoHandle, &ftCreation, &ftExit, &ftKernel, &ftUser );

  000c5	48 8d 44 24 48	 lea	 rax, QWORD PTR ftUser$[rsp]
  000ca	48 89 44 24 20	 mov	 QWORD PTR [rsp+32], rax
  000cf	4c 8d 4c 24 40	 lea	 r9, QWORD PTR ftKernel$[rsp]
  000d4	4c 8d 44 24 50	 lea	 r8, QWORD PTR ftExit$[rsp]
  000d9	48 8d 54 24 58	 lea	 rdx, QWORD PTR ftCreation$[rsp]
  000de	48 8b 4c 24 38	 mov	 rcx, QWORD PTR whoHandle$[rsp]
  000e3	ff 15 00 00 00
	00		 call	 QWORD PTR __imp_GetThreadTimes
  000e9	89 44 24 30	 mov	 DWORD PTR result$[rsp], eax

; 1055 :             break;

  000ed	eb 3e		 jmp	 SHORT $LN2@DoGetRUsag
$LN8@DoGetRUsag:

; 1056 :         default:
; 1057 :             // Check for thread ID first. If failure, handle as process ID.
; 1058 :             result = DoGetRUsage( who, rusage_type_thread, r_usage );

  000ef	4c 8b 84 24 80
	00 00 00	 mov	 r8, QWORD PTR r_usage$[rsp]
  000f7	ba 01 00 00 00	 mov	 edx, 1
  000fc	8b 4c 24 70	 mov	 ecx, DWORD PTR who$[rsp]
  00100	e8 00 00 00 00	 call	 DoGetRUsage
  00105	89 44 24 30	 mov	 DWORD PTR result$[rsp], eax

; 1059 :             if ( result == -1 )

  00109	83 7c 24 30 ff	 cmp	 DWORD PTR result$[rsp], -1
  0010e	75 17		 jne	 SHORT $LN9@DoGetRUsag

; 1060 :                 result = DoGetRUsage( who, rusage_type_process, r_usage );

  00110	4c 8b 84 24 80
	00 00 00	 mov	 r8, QWORD PTR r_usage$[rsp]
  00118	33 d2		 xor	 edx, edx
  0011a	8b 4c 24 70	 mov	 ecx, DWORD PTR who$[rsp]
  0011e	e8 00 00 00 00	 call	 DoGetRUsage
  00123	89 44 24 30	 mov	 DWORD PTR result$[rsp], eax
$LN9@DoGetRUsag:

; 1061 :             return (result);

  00127	8b 44 24 30	 mov	 eax, DWORD PTR result$[rsp]
  0012b	eb 52		 jmp	 SHORT $LN1@DoGetRUsag
$LN2@DoGetRUsag:

; 1062 :     }
; 1063 : 
; 1064 :     if ( !result )

  0012d	83 7c 24 30 00	 cmp	 DWORD PTR result$[rsp], 0
  00132	75 0f		 jne	 SHORT $LN10@DoGetRUsag

; 1065 :         return rusage_failure( r_usage );

  00134	48 8b 8c 24 80
	00 00 00	 mov	 rcx, QWORD PTR r_usage$[rsp]
  0013c	e8 00 00 00 00	 call	 rusage_failure
  00141	eb 3c		 jmp	 SHORT $LN1@DoGetRUsag
$LN10@DoGetRUsag:

; 1066 : 
; 1067 :     FileTime2timeval( ftKernel, &r_usage->ru_stime );   // Kernel time...

  00143	48 8b 84 24 80
	00 00 00	 mov	 rax, QWORD PTR r_usage$[rsp]
  0014b	48 83 c0 08	 add	 rax, 8
  0014f	48 8b d0	 mov	 rdx, rax
  00152	48 8b 4c 24 40	 mov	 rcx, QWORD PTR ftKernel$[rsp]
  00157	e8 00 00 00 00	 call	 FileTime2timeval

; 1068 :     FileTime2timeval( ftUser,   &r_usage->ru_utime );   // User time...

  0015c	48 8b 84 24 80
	00 00 00	 mov	 rax, QWORD PTR r_usage$[rsp]
  00164	48 8b d0	 mov	 rdx, rax
  00167	48 8b 4c 24 48	 mov	 rcx, QWORD PTR ftUser$[rsp]
  0016c	e8 00 00 00 00	 call	 FileTime2timeval

; 1069 : 
; 1070 :     errno = 0;

  00171	ff 15 00 00 00
	00		 call	 QWORD PTR __imp__errno
  00177	c7 00 00 00 00
	00		 mov	 DWORD PTR [rax], 0

; 1071 :     return ( 0 );

  0017d	33 c0		 xor	 eax, eax
$LN1@DoGetRUsag:

; 1072 : }

  0017f	48 83 c4 68	 add	 rsp, 104		; 00000068H
  00183	c3		 ret	 0
DoGetRUsage ENDP
_TEXT	ENDS
; Function compile flags: /Odtp
; File C:\papa\MyGit\hyperion-zvector\w32util.c
_TEXT	SEGMENT
ft$ = 48
tv$ = 56
FileTime2timeval PROC

; 1019 : {

  00000	48 89 54 24 10	 mov	 QWORD PTR [rsp+16], rdx
  00005	48 89 4c 24 08	 mov	 QWORD PTR [rsp+8], rcx
  0000a	48 83 ec 28	 sub	 rsp, 40			; 00000028H

; 1020 :     usecs2timeval( FileTime2us( ft ), tv );    // Convert to timeval

  0000e	48 8b 4c 24 30	 mov	 rcx, QWORD PTR ft$[rsp]
  00013	e8 00 00 00 00	 call	 FileTime2us
  00018	48 8b 54 24 38	 mov	 rdx, QWORD PTR tv$[rsp]
  0001d	48 8b c8	 mov	 rcx, rax
  00020	e8 00 00 00 00	 call	 usecs2timeval

; 1021 : }

  00025	48 83 c4 28	 add	 rsp, 40			; 00000028H
  00029	c3		 ret	 0
FileTime2timeval ENDP
_TEXT	ENDS
; Function compile flags: /Odtp
; File C:\papa\MyGit\hyperion-zvector\w32util.c
_TEXT	SEGMENT
uliWork$ = 0
ft$ = 32
FileTime2us PROC

; 1006 : {

  00000	48 89 4c 24 08	 mov	 QWORD PTR [rsp+8], rcx
  00005	48 83 ec 18	 sub	 rsp, 24

; 1007 :     ULARGE_INTEGER  uliWork;                // Work area
; 1008 : 
; 1009 :     uliWork.HighPart = ft.dwHighDateTime;   // Initialize work area for 64-bit

  00009	8b 44 24 24	 mov	 eax, DWORD PTR ft$[rsp+4]
  0000d	89 44 24 04	 mov	 DWORD PTR uliWork$[rsp+4], eax

; 1010 :     uliWork.LowPart  = ft.dwLowDateTime;    // operations

  00011	8b 44 24 20	 mov	 eax, DWORD PTR ft$[rsp]
  00015	89 04 24	 mov	 DWORD PTR uliWork$[rsp], eax

; 1011 : 
; 1012 :     uliWork.QuadPart +=  5;                 // Round FILETIME 100ns increments

  00018	48 8b 04 24	 mov	 rax, QWORD PTR uliWork$[rsp]
  0001c	48 83 c0 05	 add	 rax, 5
  00020	48 89 04 24	 mov	 QWORD PTR uliWork$[rsp], rax

; 1013 :     uliWork.QuadPart /= 10;                 // Convert to microseconds

  00024	33 d2		 xor	 edx, edx
  00026	48 8b 04 24	 mov	 rax, QWORD PTR uliWork$[rsp]
  0002a	b9 0a 00 00 00	 mov	 ecx, 10
  0002f	48 f7 f1	 div	 rcx
  00032	48 89 04 24	 mov	 QWORD PTR uliWork$[rsp], rax

; 1014 :     return ( uliWork.QuadPart );

  00036	48 8b 04 24	 mov	 rax, QWORD PTR uliWork$[rsp]

; 1015 : }

  0003a	48 83 c4 18	 add	 rsp, 24
  0003e	c3		 ret	 0
FileTime2us ENDP
_TEXT	ENDS
; Function compile flags: /Odtp
; File C:\papa\MyGit\hyperion-zvector\w32util.c
_TEXT	SEGMENT
r_usage$ = 48
rusage_failure PROC

; 995  : {

  00000	48 89 4c 24 08	 mov	 QWORD PTR [rsp+8], rcx
  00005	48 83 ec 28	 sub	 rsp, 40			; 00000028H

; 996  :     r_usage->ru_stime.tv_sec  = 0;

  00009	48 8b 44 24 30	 mov	 rax, QWORD PTR r_usage$[rsp]
  0000e	c7 40 08 00 00
	00 00		 mov	 DWORD PTR [rax+8], 0

; 997  :     r_usage->ru_stime.tv_usec = 0;

  00015	48 8b 44 24 30	 mov	 rax, QWORD PTR r_usage$[rsp]
  0001a	c7 40 0c 00 00
	00 00		 mov	 DWORD PTR [rax+12], 0

; 998  :     r_usage->ru_utime.tv_sec  = 0;

  00021	48 8b 44 24 30	 mov	 rax, QWORD PTR r_usage$[rsp]
  00026	c7 00 00 00 00
	00		 mov	 DWORD PTR [rax], 0

; 999  :     r_usage->ru_utime.tv_usec = 0;

  0002c	48 8b 44 24 30	 mov	 rax, QWORD PTR r_usage$[rsp]
  00031	c7 40 04 00 00
	00 00		 mov	 DWORD PTR [rax+4], 0

; 1000 :     errno = EINVAL;

  00038	ff 15 00 00 00
	00		 call	 QWORD PTR __imp__errno
  0003e	c7 00 16 00 00
	00		 mov	 DWORD PTR [rax], 22

; 1001 :     return ( -1 );

  00044	b8 ff ff ff ff	 mov	 eax, -1

; 1002 : }

  00049	48 83 c4 28	 add	 rsp, 40			; 00000028H
  0004d	c3		 ret	 0
rusage_failure ENDP
_TEXT	ENDS
; Function compile flags: /Odtp
; File C:\papa\MyGit\hyperion-zvector\w32util.c
_TEXT	SEGMENT
tv136 = 48
tv140 = 52
tv145 = 56
tv170 = 60
tv175 = 64
tv203 = 68
tv228 = 72
tv240 = 76
tv214 = 80
tsOurWake$ = 88
tsSaveWake$ = 104
__$ArrayPad$ = 120
rqtp$ = 160
w32_nanosleep PROC

; 558  : {

  00000	48 89 4c 24 08	 mov	 QWORD PTR [rsp+8], rcx
  00005	56		 push	 rsi
  00006	57		 push	 rdi
  00007	48 81 ec 88 00
	00 00		 sub	 rsp, 136		; 00000088H
  0000e	48 8b 05 00 00
	00 00		 mov	 rax, QWORD PTR __security_cookie
  00015	48 33 c4	 xor	 rax, rsp
  00018	48 89 44 24 78	 mov	 QWORD PTR __$ArrayPad$[rsp], rax

; 559  :     /**************************************************************************
; 560  : 
; 561  :                                 NANOSLEEP
; 562  : 
; 563  :     DESCRIPTION
; 564  : 
; 565  :         The nanosleep() function shall cause the current thread
; 566  :         to be suspended from execution until either the time interval
; 567  :         specified by the rqtp argument has elapsed or a signal is
; 568  :         delivered to the calling thread, and its action is to invoke
; 569  :         a signal-catching function or to terminate the process. The
; 570  :         suspension time may be longer than requested because the argument
; 571  :         value is rounded up to an integer multiple of the sleep resolution
; 572  :         or because of the scheduling of other activity by the system.
; 573  :         But, except for the case of being interrupted by a signal, the
; 574  :         suspension time shall not be less than the time specified by rqtp,
; 575  :         as measured by the system clock CLOCK_REALTIME.
; 576  : 
; 577  :         The use of the nanosleep() function has no effect on the action
; 578  :         or blockage of any signal.
; 579  : 
; 580  :     RETURN VALUE
; 581  : 
; 582  :         If the nanosleep() function returns because the requested time
; 583  :         has elapsed, its return value shall be zero.
; 584  : 
; 585  :         If the nanosleep() function returns because it has been interrupted
; 586  :         by a signal, it shall return a value of -1 and set errno to indicate
; 587  :         the interruption. If the rmtp argument is non-NULL, the timespec
; 588  :         structure referenced by it is updated to contain the amount of time
; 589  :         remaining in the interval (the requested time minus the time actually
; 590  :         slept). If the rmtp argument is NULL, the remaining time is not
; 591  :         returned.
; 592  : 
; 593  :         If nanosleep() fails, it shall return a value of -1 and set errno
; 594  :         to indicate the error.
; 595  : 
; 596  :     ERRORS
; 597  : 
; 598  :         The nanosleep() function shall fail if:
; 599  : 
; 600  :         [EINTR]   The nanosleep() function was interrupted by a signal.
; 601  : 
; 602  :         [EINVAL]  The rqtp argument specified a nanosecond value less than
; 603  :                   zero or greater than or equal to 1000 million.
; 604  : 
; 605  :     **************************************************************************/
; 606  : 
; 607  :     //                      IMPLEMENTATION NOTE
; 608  :     //
; 609  :     // The following code of course does not actually implement true nano-
; 610  :     // second resolution sleep functionality since Windows does not support
; 611  :     // such finely grained timers (yet). It is however coded in such a way
; 612  :     // that should Windows ever begin providing such support in the future,
; 613  :     // the changes needed to support such high precisions should be trivial.
; 614  : 
; 615  :     static LONGLONG         timerint    =  0;       // TOD clock interval
; 616  :     static HANDLE           hTimer      = NULL;     // Waitable timer handle
; 617  :     static LARGE_INTEGER    liWaitAmt   = {0};      // Amount of time to wait
; 618  :     static CRITICAL_SECTION waitlock    = {0};      // Multi-threading lock
; 619  :     static struct timespec  tsCurrTime  = {0};      // Current Time-of-Day
; 620  :     static struct timespec  tsWakeTime  = {0};      // Current wakeup time
; 621  :            struct timespec  tsSaveWake  = {0};      // Saved   wakeup time

  0001d	48 8d 44 24 68	 lea	 rax, QWORD PTR tsSaveWake$[rsp]
  00022	48 8b f8	 mov	 rdi, rax
  00025	33 c0		 xor	 eax, eax
  00027	b9 10 00 00 00	 mov	 ecx, 16
  0002c	f3 aa		 rep stosb

; 622  :            struct timespec  tsOurWake   = {0};      // Our wakeup time

  0002e	48 8d 44 24 58	 lea	 rax, QWORD PTR tsOurWake$[rsp]
  00033	48 8b f8	 mov	 rdi, rax
  00036	33 c0		 xor	 eax, eax
  00038	b9 10 00 00 00	 mov	 ecx, 16
  0003d	f3 aa		 rep stosb
$LN4@w32_nanosl:

; 623  : 
; 624  :     // Check passed parameters...
; 625  : 
; 626  :     ASSERT( rqtp );

  0003f	48 83 bc 24 a0
	00 00 00 00	 cmp	 QWORD PTR rqtp$[rsp], 0
  00048	75 5b		 jne	 SHORT $LN41@w32_nanosl
$LN7@w32_nanosl:
  0004a	4c 8d 0d 00 00
	00 00		 lea	 r9, OFFSET FLAT:$SG159392
  00051	41 b8 72 02 00
	00		 mov	 r8d, 626		; 00000272H
  00057	48 8d 15 00 00
	00 00		 lea	 rdx, OFFSET FLAT:$SG159393
  0005e	48 8d 0d 00 00
	00 00		 lea	 rcx, OFFSET FLAT:$SG159394
  00065	e8 00 00 00 00	 call	 logmsg
  0006a	ff 15 00 00 00
	00		 call	 QWORD PTR __imp_IsDebuggerPresent
  00070	85 c0		 test	 eax, eax
  00072	74 20		 je	 SHORT $LN42@w32_nanosl
  00074	4c 8d 0d 00 00
	00 00		 lea	 r9, OFFSET FLAT:$SG159396
  0007b	41 b8 72 02 00
	00		 mov	 r8d, 626		; 00000272H
  00081	48 8d 15 00 00
	00 00		 lea	 rdx, OFFSET FLAT:$SG159397
  00088	48 8d 0d 00 00
	00 00		 lea	 rcx, OFFSET FLAT:$SG159398
  0008f	e8 00 00 00 00	 call	 DebuggerTrace
$LN42@w32_nanosl:
  00094	33 c0		 xor	 eax, eax
  00096	85 c0		 test	 eax, eax
  00098	75 b0		 jne	 SHORT $LN7@w32_nanosl
  0009a	ff 15 00 00 00
	00		 call	 QWORD PTR __imp_IsDebuggerPresent
  000a0	85 c0		 test	 eax, eax
  000a2	74 01		 je	 SHORT $LN43@w32_nanosl
  000a4	cc		 int	 3
$LN43@w32_nanosl:
$LN41@w32_nanosl:
  000a5	33 c0		 xor	 eax, eax
  000a7	85 c0		 test	 eax, eax
  000a9	75 94		 jne	 SHORT $LN4@w32_nanosl

; 627  : 
; 628  :     if (unlikely

  000ab	33 c0		 xor	 eax, eax
  000ad	85 c0		 test	 eax, eax
  000af	75 34		 jne	 SHORT $LN70@w32_nanosl
  000b1	48 83 bc 24 a0
	00 00 00 00	 cmp	 QWORD PTR rqtp$[rsp], 0
  000ba	74 29		 je	 SHORT $LN70@w32_nanosl
  000bc	48 8b 84 24 a0
	00 00 00	 mov	 rax, QWORD PTR rqtp$[rsp]
  000c4	83 78 08 00	 cmp	 DWORD PTR [rax+8], 0
  000c8	7c 1b		 jl	 SHORT $LN70@w32_nanosl
  000ca	48 8b 84 24 a0
	00 00 00	 mov	 rax, QWORD PTR rqtp$[rsp]
  000d2	81 78 08 00 ca
	9a 3b		 cmp	 DWORD PTR [rax+8], 1000000000 ; 3b9aca00H
  000d9	7d 0a		 jge	 SHORT $LN70@w32_nanosl
  000db	c7 44 24 30 00
	00 00 00	 mov	 DWORD PTR tv136[rsp], 0
  000e3	eb 08		 jmp	 SHORT $LN73@w32_nanosl
$LN70@w32_nanosl:
  000e5	c7 44 24 30 01
	00 00 00	 mov	 DWORD PTR tv136[rsp], 1
$LN73@w32_nanosl:
  000ed	83 7c 24 30 00	 cmp	 DWORD PTR tv136[rsp], 0
  000f2	74 16		 je	 SHORT $LN44@w32_nanosl

; 629  :     (0
; 630  :         || !rqtp
; 631  :         || rqtp->tv_nsec < 0
; 632  :         || rqtp->tv_nsec >= BILLION
; 633  :     ))
; 634  :     {
; 635  :         errno = EINVAL;

  000f4	ff 15 00 00 00
	00		 call	 QWORD PTR __imp__errno
  000fa	c7 00 16 00 00
	00		 mov	 DWORD PTR [rax], 22

; 636  :         return -1;

  00100	b8 ff ff ff ff	 mov	 eax, -1
  00105	e9 f2 05 00 00	 jmp	 $LN1@w32_nanosl
$LN44@w32_nanosl:

; 637  :     }
; 638  : 
; 639  :     // Perform first time initialization...
; 640  : 
; 641  :     if (unlikely( !hTimer ))

  0010a	48 83 3d 00 00
	00 00 00	 cmp	 QWORD PTR ?hTimer@?1??w32_nanosleep@@9@9, 0
  00112	75 0a		 jne	 SHORT $LN74@w32_nanosl
  00114	c7 44 24 34 01
	00 00 00	 mov	 DWORD PTR tv140[rsp], 1
  0011c	eb 08		 jmp	 SHORT $LN75@w32_nanosl
$LN74@w32_nanosl:
  0011e	c7 44 24 34 00
	00 00 00	 mov	 DWORD PTR tv140[rsp], 0
$LN75@w32_nanosl:
  00126	83 7c 24 34 00	 cmp	 DWORD PTR tv140[rsp], 0
  0012b	74 0a		 je	 SHORT $LN78@w32_nanosl
  0012d	c7 44 24 38 01
	00 00 00	 mov	 DWORD PTR tv145[rsp], 1
  00135	eb 08		 jmp	 SHORT $LN79@w32_nanosl
$LN78@w32_nanosl:
  00137	c7 44 24 38 00
	00 00 00	 mov	 DWORD PTR tv145[rsp], 0
$LN79@w32_nanosl:
  0013f	83 7c 24 38 00	 cmp	 DWORD PTR tv145[rsp], 0
  00144	0f 84 98 00 00
	00		 je	 $LN45@w32_nanosl

; 642  :     {
; 643  :         InitializeCriticalSectionAndSpinCount( &waitlock, 4000 );

  0014a	ba a0 0f 00 00	 mov	 edx, 4000		; 00000fa0H
  0014f	48 8d 0d 00 00
	00 00		 lea	 rcx, OFFSET FLAT:?waitlock@?1??w32_nanosleep@@9@9
  00156	ff 15 00 00 00
	00		 call	 QWORD PTR __imp_InitializeCriticalSectionAndSpinCount
$LN10@w32_nanosl:

; 644  :         VERIFY(( hTimer = CreateWaitableTimer( NULL, TRUE, NULL ) ) != NULL );

  0015c	45 33 c0	 xor	 r8d, r8d
  0015f	ba 01 00 00 00	 mov	 edx, 1
  00164	33 c9		 xor	 ecx, ecx
  00166	ff 15 00 00 00
	00		 call	 QWORD PTR __imp_CreateWaitableTimerA
  0016c	48 89 05 00 00
	00 00		 mov	 QWORD PTR ?hTimer@?1??w32_nanosleep@@9@9, rax
  00173	48 83 3d 00 00
	00 00 00	 cmp	 QWORD PTR ?hTimer@?1??w32_nanosleep@@9@9, 0
  0017b	75 5b		 jne	 SHORT $LN46@w32_nanosl
$LN13@w32_nanosl:
  0017d	4c 8d 0d 00 00
	00 00		 lea	 r9, OFFSET FLAT:$SG159403
  00184	41 b8 84 02 00
	00		 mov	 r8d, 644		; 00000284H
  0018a	48 8d 15 00 00
	00 00		 lea	 rdx, OFFSET FLAT:$SG159404
  00191	48 8d 0d 00 00
	00 00		 lea	 rcx, OFFSET FLAT:$SG159405
  00198	e8 00 00 00 00	 call	 logmsg
  0019d	ff 15 00 00 00
	00		 call	 QWORD PTR __imp_IsDebuggerPresent
  001a3	85 c0		 test	 eax, eax
  001a5	74 20		 je	 SHORT $LN47@w32_nanosl
  001a7	4c 8d 0d 00 00
	00 00		 lea	 r9, OFFSET FLAT:$SG159407
  001ae	41 b8 84 02 00
	00		 mov	 r8d, 644		; 00000284H
  001b4	48 8d 15 00 00
	00 00		 lea	 rdx, OFFSET FLAT:$SG159408
  001bb	48 8d 0d 00 00
	00 00		 lea	 rcx, OFFSET FLAT:$SG159409
  001c2	e8 00 00 00 00	 call	 DebuggerTrace
$LN47@w32_nanosl:
  001c7	33 c0		 xor	 eax, eax
  001c9	85 c0		 test	 eax, eax
  001cb	75 b0		 jne	 SHORT $LN13@w32_nanosl
  001cd	ff 15 00 00 00
	00		 call	 QWORD PTR __imp_IsDebuggerPresent
  001d3	85 c0		 test	 eax, eax
  001d5	74 01		 je	 SHORT $LN48@w32_nanosl
  001d7	cc		 int	 3
$LN48@w32_nanosl:
$LN46@w32_nanosl:
  001d8	33 c0		 xor	 eax, eax
  001da	85 c0		 test	 eax, eax
  001dc	0f 85 7a ff ff
	ff		 jne	 $LN10@w32_nanosl
$LN45@w32_nanosl:

; 645  :     }
; 646  : 
; 647  :     EnterCriticalSection( &waitlock );

  001e2	48 8d 0d 00 00
	00 00		 lea	 rcx, OFFSET FLAT:?waitlock@?1??w32_nanosleep@@9@9
  001e9	ff 15 00 00 00
	00		 call	 QWORD PTR __imp_EnterCriticalSection
$LN99@w32_nanosl:
$LN98@w32_nanosl:
$LN16@w32_nanosl:

; 648  : 
; 649  :     do
; 650  :     {
; 651  :         // Calculate our wakeup time if we haven't done so yet...
; 652  : 
; 653  :         if (unlikely( !tsOurWake.tv_sec ))

  001ef	48 83 7c 24 58
	00		 cmp	 QWORD PTR tsOurWake$[rsp], 0
  001f5	75 0a		 jne	 SHORT $LN80@w32_nanosl
  001f7	c7 44 24 3c 01
	00 00 00	 mov	 DWORD PTR tv170[rsp], 1
  001ff	eb 08		 jmp	 SHORT $LN81@w32_nanosl
$LN80@w32_nanosl:
  00201	c7 44 24 3c 00
	00 00 00	 mov	 DWORD PTR tv170[rsp], 0
$LN81@w32_nanosl:
  00209	83 7c 24 3c 00	 cmp	 DWORD PTR tv170[rsp], 0
  0020e	74 0a		 je	 SHORT $LN84@w32_nanosl
  00210	c7 44 24 40 01
	00 00 00	 mov	 DWORD PTR tv175[rsp], 1
  00218	eb 08		 jmp	 SHORT $LN85@w32_nanosl
$LN84@w32_nanosl:
  0021a	c7 44 24 40 00
	00 00 00	 mov	 DWORD PTR tv175[rsp], 0
$LN85@w32_nanosl:
  00222	83 7c 24 40 00	 cmp	 DWORD PTR tv175[rsp], 0
  00227	0f 84 fb 00 00
	00		 je	 $LN49@w32_nanosl
$LN19@w32_nanosl:

; 654  :         {
; 655  :             VERIFY( clock_gettime( CLOCK_REALTIME, &tsCurrTime ) == 0);

  0022d	48 8d 15 00 00
	00 00		 lea	 rdx, OFFSET FLAT:?tsCurrTime@?1??w32_nanosleep@@9@9
  00234	33 c9		 xor	 ecx, ecx
  00236	e8 00 00 00 00	 call	 clock_gettime
  0023b	85 c0		 test	 eax, eax
  0023d	74 5b		 je	 SHORT $LN50@w32_nanosl
$LN22@w32_nanosl:
  0023f	4c 8d 0d 00 00
	00 00		 lea	 r9, OFFSET FLAT:$SG159413
  00246	41 b8 8f 02 00
	00		 mov	 r8d, 655		; 0000028fH
  0024c	48 8d 15 00 00
	00 00		 lea	 rdx, OFFSET FLAT:$SG159414
  00253	48 8d 0d 00 00
	00 00		 lea	 rcx, OFFSET FLAT:$SG159415
  0025a	e8 00 00 00 00	 call	 logmsg
  0025f	ff 15 00 00 00
	00		 call	 QWORD PTR __imp_IsDebuggerPresent
  00265	85 c0		 test	 eax, eax
  00267	74 20		 je	 SHORT $LN51@w32_nanosl
  00269	4c 8d 0d 00 00
	00 00		 lea	 r9, OFFSET FLAT:$SG159417
  00270	41 b8 8f 02 00
	00		 mov	 r8d, 655		; 0000028fH
  00276	48 8d 15 00 00
	00 00		 lea	 rdx, OFFSET FLAT:$SG159418
  0027d	48 8d 0d 00 00
	00 00		 lea	 rcx, OFFSET FLAT:$SG159419
  00284	e8 00 00 00 00	 call	 DebuggerTrace
$LN51@w32_nanosl:
  00289	33 c0		 xor	 eax, eax
  0028b	85 c0		 test	 eax, eax
  0028d	75 b0		 jne	 SHORT $LN22@w32_nanosl
  0028f	ff 15 00 00 00
	00		 call	 QWORD PTR __imp_IsDebuggerPresent
  00295	85 c0		 test	 eax, eax
  00297	74 01		 je	 SHORT $LN52@w32_nanosl
  00299	cc		 int	 3
$LN52@w32_nanosl:
$LN50@w32_nanosl:
  0029a	33 c0		 xor	 eax, eax
  0029c	85 c0		 test	 eax, eax
  0029e	75 8d		 jne	 SHORT $LN19@w32_nanosl

; 656  : 
; 657  :             tsOurWake = tsCurrTime;

  002a0	48 8d 44 24 58	 lea	 rax, QWORD PTR tsOurWake$[rsp]
  002a5	48 8d 0d 00 00
	00 00		 lea	 rcx, OFFSET FLAT:?tsCurrTime@?1??w32_nanosleep@@9@9
  002ac	48 8b f8	 mov	 rdi, rax
  002af	48 8b f1	 mov	 rsi, rcx
  002b2	b9 10 00 00 00	 mov	 ecx, 16
  002b7	f3 a4		 rep movsb

; 658  :             tsOurWake.tv_sec  += rqtp->tv_sec;

  002b9	48 8b 84 24 a0
	00 00 00	 mov	 rax, QWORD PTR rqtp$[rsp]
  002c1	48 8b 00	 mov	 rax, QWORD PTR [rax]
  002c4	48 8b 4c 24 58	 mov	 rcx, QWORD PTR tsOurWake$[rsp]
  002c9	48 03 c8	 add	 rcx, rax
  002cc	48 8b c1	 mov	 rax, rcx
  002cf	48 89 44 24 58	 mov	 QWORD PTR tsOurWake$[rsp], rax

; 659  :             tsOurWake.tv_nsec += rqtp->tv_nsec;

  002d4	48 8b 84 24 a0
	00 00 00	 mov	 rax, QWORD PTR rqtp$[rsp]
  002dc	8b 40 08	 mov	 eax, DWORD PTR [rax+8]
  002df	8b 4c 24 60	 mov	 ecx, DWORD PTR tsOurWake$[rsp+8]
  002e3	03 c8		 add	 ecx, eax
  002e5	8b c1		 mov	 eax, ecx
  002e7	89 44 24 60	 mov	 DWORD PTR tsOurWake$[rsp+8], eax

; 660  : 
; 661  :             if (unlikely( tsOurWake.tv_nsec >= BILLION ))

  002eb	81 7c 24 60 00
	ca 9a 3b	 cmp	 DWORD PTR tsOurWake$[rsp+8], 1000000000 ; 3b9aca00H
  002f3	7c 0a		 jl	 SHORT $LN88@w32_nanosl
  002f5	c7 44 24 44 01
	00 00 00	 mov	 DWORD PTR tv203[rsp], 1
  002fd	eb 08		 jmp	 SHORT $LN89@w32_nanosl
$LN88@w32_nanosl:
  002ff	c7 44 24 44 00
	00 00 00	 mov	 DWORD PTR tv203[rsp], 0
$LN89@w32_nanosl:
  00307	83 7c 24 44 00	 cmp	 DWORD PTR tv203[rsp], 0
  0030c	74 1a		 je	 SHORT $LN53@w32_nanosl

; 662  :             {
; 663  :                 tsOurWake.tv_sec  += 1;

  0030e	48 8b 44 24 58	 mov	 rax, QWORD PTR tsOurWake$[rsp]
  00313	48 ff c0	 inc	 rax
  00316	48 89 44 24 58	 mov	 QWORD PTR tsOurWake$[rsp], rax

; 664  :                 tsOurWake.tv_nsec -= BILLION;

  0031b	8b 44 24 60	 mov	 eax, DWORD PTR tsOurWake$[rsp+8]
  0031f	2d 00 ca 9a 3b	 sub	 eax, 1000000000		; 3b9aca00H
  00324	89 44 24 60	 mov	 DWORD PTR tsOurWake$[rsp+8], eax
$LN53@w32_nanosl:
$LN49@w32_nanosl:

; 665  :             }
; 666  :         }
; 667  : 
; 668  :         //                    (CRTICIAL TEST)
; 669  :         //
; 670  :         // If our wakeup time is earlier than the current alarm time,
; 671  :         // then set the timer again with our new earlier wakeup time.
; 672  :         //
; 673  :         // Otherwise (our wakeup time comes later than the currently
; 674  :         // set wakeup/alarm time) we proceed directly to waiting for
; 675  :         // the existing currently set alarm to expire first...
; 676  : 
; 677  :         if (0
; 678  :             || !tsWakeTime.tv_sec
; 679  :             || tsOurWake.tv_sec < tsWakeTime.tv_sec
; 680  :             || (1

  00328	33 c0		 xor	 eax, eax
  0032a	85 c0		 test	 eax, eax
  0032c	75 45		 jne	 SHORT $LN55@w32_nanosl
  0032e	48 83 3d 00 00
	00 00 00	 cmp	 QWORD PTR ?tsWakeTime@?1??w32_nanosleep@@9@9, 0
  00336	74 3b		 je	 SHORT $LN55@w32_nanosl
  00338	48 8b 05 00 00
	00 00		 mov	 rax, QWORD PTR ?tsWakeTime@?1??w32_nanosleep@@9@9
  0033f	48 39 44 24 58	 cmp	 QWORD PTR tsOurWake$[rsp], rax
  00344	7c 2d		 jl	 SHORT $LN55@w32_nanosl
  00346	33 c0		 xor	 eax, eax
  00348	83 f8 01	 cmp	 eax, 1
  0034b	0f 84 f5 01 00
	00		 je	 $LN54@w32_nanosl
  00351	48 8b 05 00 00
	00 00		 mov	 rax, QWORD PTR ?tsWakeTime@?1??w32_nanosleep@@9@9
  00358	48 39 44 24 58	 cmp	 QWORD PTR tsOurWake$[rsp], rax
  0035d	0f 85 e3 01 00
	00		 jne	 $LN54@w32_nanosl
  00363	8b 05 08 00 00
	00		 mov	 eax, DWORD PTR ?tsWakeTime@?1??w32_nanosleep@@9@9+8
  00369	39 44 24 60	 cmp	 DWORD PTR tsOurWake$[rsp+8], eax
  0036d	0f 8d d3 01 00
	00		 jge	 $LN54@w32_nanosl
$LN55@w32_nanosl:

; 681  :                 && tsOurWake.tv_sec  == tsWakeTime.tv_sec
; 682  :                 && tsOurWake.tv_nsec <  tsWakeTime.tv_nsec
; 683  :                )
; 684  :         )
; 685  :         {
; 686  :             // Calculate how long to wait in 100-nanosecond units...
; 687  : 
; 688  :             liWaitAmt.QuadPart =

  00373	48 8b 05 00 00
	00 00		 mov	 rax, QWORD PTR ?tsCurrTime@?1??w32_nanosleep@@9@9
  0037a	48 8b 4c 24 58	 mov	 rcx, QWORD PTR tsOurWake$[rsp]
  0037f	48 2b c8	 sub	 rcx, rax
  00382	48 8b c1	 mov	 rax, rcx
  00385	48 69 c0 80 96
	98 00		 imul	 rax, rax, 10000000	; 00989680H
  0038c	48 89 44 24 50	 mov	 QWORD PTR tv214[rsp], rax
  00391	8b 0d 08 00 00
	00		 mov	 ecx, DWORD PTR ?tsCurrTime@?1??w32_nanosleep@@9@9+8
  00397	8b 54 24 60	 mov	 edx, DWORD PTR tsOurWake$[rsp+8]
  0039b	2b d1		 sub	 edx, ecx
  0039d	8b ca		 mov	 ecx, edx
  0039f	48 63 c9	 movsxd	 rcx, ecx
  003a2	48 83 c1 32	 add	 rcx, 50			; 00000032H
  003a6	48 8b c1	 mov	 rax, rcx
  003a9	48 99		 cdq
  003ab	b9 64 00 00 00	 mov	 ecx, 100		; 00000064H
  003b0	48 f7 f9	 idiv	 rcx
  003b3	48 8b 4c 24 50	 mov	 rcx, QWORD PTR tv214[rsp]
  003b8	48 03 c8	 add	 rcx, rax
  003bb	48 8b c1	 mov	 rax, rcx
  003be	48 89 05 00 00
	00 00		 mov	 QWORD PTR ?liWaitAmt@?1??w32_nanosleep@@9@9, rax

; 689  :             (
; 690  :                 ( (LONGLONG)(tsOurWake.tv_sec  - tsCurrTime.tv_sec)  * 10000000 )
; 691  :                 +
; 692  :                 (((LONGLONG)(tsOurWake.tv_nsec - tsCurrTime.tv_nsec) + 50) / 100)
; 693  :             );
; 694  : 
; 695  :             // For efficiency don't allow any wait interval shorter
; 696  :             // than our currently defined TOD clock update interval...
; 697  : 
; 698  :             timerint = sysblk.timerint;   // (copy volatile value)

  003c5	48 8b 05 00 00
	00 00		 mov	 rax, QWORD PTR __imp_sysblk
  003cc	48 63 80 60 11
	00 00		 movsxd	 rax, DWORD PTR [rax+4448]
  003d3	48 89 05 00 00
	00 00		 mov	 QWORD PTR ?timerint@?1??w32_nanosleep@@9@9, rax

; 699  : 
; 700  :             if (unlikely( liWaitAmt.QuadPart < (timerint * 10) ))

  003da	48 6b 05 00 00
	00 00 0a	 imul	 rax, QWORD PTR ?timerint@?1??w32_nanosleep@@9@9, 10
  003e2	48 39 05 00 00
	00 00		 cmp	 QWORD PTR ?liWaitAmt@?1??w32_nanosleep@@9@9, rax
  003e9	7d 0a		 jge	 SHORT $LN92@w32_nanosl
  003eb	c7 44 24 48 01
	00 00 00	 mov	 DWORD PTR tv228[rsp], 1
  003f3	eb 08		 jmp	 SHORT $LN93@w32_nanosl
$LN92@w32_nanosl:
  003f5	c7 44 24 48 00
	00 00 00	 mov	 DWORD PTR tv228[rsp], 0
$LN93@w32_nanosl:
  003fd	83 7c 24 48 00	 cmp	 DWORD PTR tv228[rsp], 0
  00402	0f 84 80 00 00
	00		 je	 $LN56@w32_nanosl

; 701  :             {
; 702  :                 // (adjust wakeup time to respect imposed minimum)
; 703  : 
; 704  :                 tsOurWake.tv_nsec += (long) ((timerint * 10) - liWaitAmt.QuadPart) * 100;

  00408	48 6b 05 00 00
	00 00 0a	 imul	 rax, QWORD PTR ?timerint@?1??w32_nanosleep@@9@9, 10
  00410	48 2b 05 00 00
	00 00		 sub	 rax, QWORD PTR ?liWaitAmt@?1??w32_nanosleep@@9@9
  00417	6b c0 64	 imul	 eax, eax, 100		; 00000064H
  0041a	8b 4c 24 60	 mov	 ecx, DWORD PTR tsOurWake$[rsp+8]
  0041e	03 c8		 add	 ecx, eax
  00420	8b c1		 mov	 eax, ecx
  00422	89 44 24 60	 mov	 DWORD PTR tsOurWake$[rsp+8], eax

; 705  :                 liWaitAmt.QuadPart = (timerint * 10);

  00426	48 6b 05 00 00
	00 00 0a	 imul	 rax, QWORD PTR ?timerint@?1??w32_nanosleep@@9@9, 10
  0042e	48 89 05 00 00
	00 00		 mov	 QWORD PTR ?liWaitAmt@?1??w32_nanosleep@@9@9, rax

; 706  : 
; 707  :                 if (unlikely( tsOurWake.tv_nsec >= BILLION ))

  00435	81 7c 24 60 00
	ca 9a 3b	 cmp	 DWORD PTR tsOurWake$[rsp+8], 1000000000 ; 3b9aca00H
  0043d	7c 0a		 jl	 SHORT $LN96@w32_nanosl
  0043f	c7 44 24 4c 01
	00 00 00	 mov	 DWORD PTR tv240[rsp], 1
  00447	eb 08		 jmp	 SHORT $LN97@w32_nanosl
$LN96@w32_nanosl:
  00449	c7 44 24 4c 00
	00 00 00	 mov	 DWORD PTR tv240[rsp], 0
$LN97@w32_nanosl:
  00451	83 7c 24 4c 00	 cmp	 DWORD PTR tv240[rsp], 0
  00456	74 30		 je	 SHORT $LN57@w32_nanosl

; 708  :                 {
; 709  :                     tsOurWake.tv_sec  += (tsOurWake.tv_nsec / BILLION);

  00458	8b 44 24 60	 mov	 eax, DWORD PTR tsOurWake$[rsp+8]
  0045c	99		 cdq
  0045d	b9 00 ca 9a 3b	 mov	 ecx, 1000000000		; 3b9aca00H
  00462	f7 f9		 idiv	 ecx
  00464	48 98		 cdqe
  00466	48 8b 4c 24 58	 mov	 rcx, QWORD PTR tsOurWake$[rsp]
  0046b	48 03 c8	 add	 rcx, rax
  0046e	48 8b c1	 mov	 rax, rcx
  00471	48 89 44 24 58	 mov	 QWORD PTR tsOurWake$[rsp], rax

; 710  :                     tsOurWake.tv_nsec %= BILLION;

  00476	8b 44 24 60	 mov	 eax, DWORD PTR tsOurWake$[rsp+8]
  0047a	99		 cdq
  0047b	b9 00 ca 9a 3b	 mov	 ecx, 1000000000		; 3b9aca00H
  00480	f7 f9		 idiv	 ecx
  00482	8b c2		 mov	 eax, edx
  00484	89 44 24 60	 mov	 DWORD PTR tsOurWake$[rsp+8], eax
$LN57@w32_nanosl:
$LN56@w32_nanosl:

; 711  :                 }
; 712  :             }
; 713  : 
; 714  :             liWaitAmt.QuadPart = -liWaitAmt.QuadPart; // (negative == relative)

  00488	48 8b 05 00 00
	00 00		 mov	 rax, QWORD PTR ?liWaitAmt@?1??w32_nanosleep@@9@9
  0048f	48 f7 d8	 neg	 rax
  00492	48 89 05 00 00
	00 00		 mov	 QWORD PTR ?liWaitAmt@?1??w32_nanosleep@@9@9, rax
$LN25@w32_nanosl:

; 715  :             VERIFY( SetWaitableTimer( hTimer, &liWaitAmt, 0, NULL, NULL, FALSE ) );

  00499	c7 44 24 28 00
	00 00 00	 mov	 DWORD PTR [rsp+40], 0
  004a1	48 c7 44 24 20
	00 00 00 00	 mov	 QWORD PTR [rsp+32], 0
  004aa	45 33 c9	 xor	 r9d, r9d
  004ad	45 33 c0	 xor	 r8d, r8d
  004b0	48 8d 15 00 00
	00 00		 lea	 rdx, OFFSET FLAT:?liWaitAmt@?1??w32_nanosleep@@9@9
  004b7	48 8b 0d 00 00
	00 00		 mov	 rcx, QWORD PTR ?hTimer@?1??w32_nanosleep@@9@9
  004be	ff 15 00 00 00
	00		 call	 QWORD PTR __imp_SetWaitableTimer
  004c4	85 c0		 test	 eax, eax
  004c6	75 5b		 jne	 SHORT $LN58@w32_nanosl
$LN28@w32_nanosl:
  004c8	4c 8d 0d 00 00
	00 00		 lea	 r9, OFFSET FLAT:$SG159427
  004cf	41 b8 cb 02 00
	00		 mov	 r8d, 715		; 000002cbH
  004d5	48 8d 15 00 00
	00 00		 lea	 rdx, OFFSET FLAT:$SG159428
  004dc	48 8d 0d 00 00
	00 00		 lea	 rcx, OFFSET FLAT:$SG159429
  004e3	e8 00 00 00 00	 call	 logmsg
  004e8	ff 15 00 00 00
	00		 call	 QWORD PTR __imp_IsDebuggerPresent
  004ee	85 c0		 test	 eax, eax
  004f0	74 20		 je	 SHORT $LN59@w32_nanosl
  004f2	4c 8d 0d 00 00
	00 00		 lea	 r9, OFFSET FLAT:$SG159431
  004f9	41 b8 cb 02 00
	00		 mov	 r8d, 715		; 000002cbH
  004ff	48 8d 15 00 00
	00 00		 lea	 rdx, OFFSET FLAT:$SG159432
  00506	48 8d 0d 00 00
	00 00		 lea	 rcx, OFFSET FLAT:$SG159433
  0050d	e8 00 00 00 00	 call	 DebuggerTrace
$LN59@w32_nanosl:
  00512	33 c0		 xor	 eax, eax
  00514	85 c0		 test	 eax, eax
  00516	75 b0		 jne	 SHORT $LN28@w32_nanosl
  00518	ff 15 00 00 00
	00		 call	 QWORD PTR __imp_IsDebuggerPresent
  0051e	85 c0		 test	 eax, eax
  00520	74 01		 je	 SHORT $LN60@w32_nanosl
  00522	cc		 int	 3
$LN60@w32_nanosl:
$LN58@w32_nanosl:
  00523	33 c0		 xor	 eax, eax
  00525	85 c0		 test	 eax, eax
  00527	0f 85 6c ff ff
	ff		 jne	 $LN25@w32_nanosl

; 716  :             tsWakeTime = tsOurWake; // (use our wakeup time)

  0052d	48 8d 05 00 00
	00 00		 lea	 rax, OFFSET FLAT:?tsWakeTime@?1??w32_nanosleep@@9@9
  00534	48 8d 4c 24 58	 lea	 rcx, QWORD PTR tsOurWake$[rsp]
  00539	48 8b f8	 mov	 rdi, rax
  0053c	48 8b f1	 mov	 rsi, rcx
  0053f	b9 10 00 00 00	 mov	 ecx, 16
  00544	f3 a4		 rep movsb
$LN54@w32_nanosl:

; 717  :         }
; 718  : 
; 719  :         tsSaveWake = tsWakeTime;    // (save the wakeup time)

  00546	48 8d 44 24 68	 lea	 rax, QWORD PTR tsSaveWake$[rsp]
  0054b	48 8d 0d 00 00
	00 00		 lea	 rcx, OFFSET FLAT:?tsWakeTime@?1??w32_nanosleep@@9@9
  00552	48 8b f8	 mov	 rdi, rax
  00555	48 8b f1	 mov	 rsi, rcx
  00558	b9 10 00 00 00	 mov	 ecx, 16
  0055d	f3 a4		 rep movsb

; 720  : 
; 721  :         // Wait for the currently calculated wakeup time to arrive...
; 722  : 
; 723  :         LeaveCriticalSection( &waitlock );

  0055f	48 8d 0d 00 00
	00 00		 lea	 rcx, OFFSET FLAT:?waitlock@?1??w32_nanosleep@@9@9
  00566	ff 15 00 00 00
	00		 call	 QWORD PTR __imp_LeaveCriticalSection
$LN31@w32_nanosl:

; 724  :         {
; 725  :             VERIFY( WaitForSingleObject( hTimer, INFINITE ) == WAIT_OBJECT_0 );

  0056c	ba ff ff ff ff	 mov	 edx, -1			; ffffffffH
  00571	48 8b 0d 00 00
	00 00		 mov	 rcx, QWORD PTR ?hTimer@?1??w32_nanosleep@@9@9
  00578	ff 15 00 00 00
	00		 call	 QWORD PTR __imp_WaitForSingleObject
  0057e	85 c0		 test	 eax, eax
  00580	74 5b		 je	 SHORT $LN61@w32_nanosl
$LN34@w32_nanosl:
  00582	4c 8d 0d 00 00
	00 00		 lea	 r9, OFFSET FLAT:$SG159436
  00589	41 b8 d5 02 00
	00		 mov	 r8d, 725		; 000002d5H
  0058f	48 8d 15 00 00
	00 00		 lea	 rdx, OFFSET FLAT:$SG159437
  00596	48 8d 0d 00 00
	00 00		 lea	 rcx, OFFSET FLAT:$SG159438
  0059d	e8 00 00 00 00	 call	 logmsg
  005a2	ff 15 00 00 00
	00		 call	 QWORD PTR __imp_IsDebuggerPresent
  005a8	85 c0		 test	 eax, eax
  005aa	74 20		 je	 SHORT $LN62@w32_nanosl
  005ac	4c 8d 0d 00 00
	00 00		 lea	 r9, OFFSET FLAT:$SG159440
  005b3	41 b8 d5 02 00
	00		 mov	 r8d, 725		; 000002d5H
  005b9	48 8d 15 00 00
	00 00		 lea	 rdx, OFFSET FLAT:$SG159441
  005c0	48 8d 0d 00 00
	00 00		 lea	 rcx, OFFSET FLAT:$SG159442
  005c7	e8 00 00 00 00	 call	 DebuggerTrace
$LN62@w32_nanosl:
  005cc	33 c0		 xor	 eax, eax
  005ce	85 c0		 test	 eax, eax
  005d0	75 b0		 jne	 SHORT $LN34@w32_nanosl
  005d2	ff 15 00 00 00
	00		 call	 QWORD PTR __imp_IsDebuggerPresent
  005d8	85 c0		 test	 eax, eax
  005da	74 01		 je	 SHORT $LN63@w32_nanosl
  005dc	cc		 int	 3
$LN63@w32_nanosl:
$LN61@w32_nanosl:
  005dd	33 c0		 xor	 eax, eax
  005df	85 c0		 test	 eax, eax
  005e1	75 89		 jne	 SHORT $LN31@w32_nanosl

; 726  :         }
; 727  :         EnterCriticalSection( &waitlock );

  005e3	48 8d 0d 00 00
	00 00		 lea	 rcx, OFFSET FLAT:?waitlock@?1??w32_nanosleep@@9@9
  005ea	ff 15 00 00 00
	00		 call	 QWORD PTR __imp_EnterCriticalSection

; 728  : 
; 729  :         // Reset the wakeup time (if the previously awakened thread
; 730  :         // hasn't done that yet) and get a new updated current TOD.
; 731  : 
; 732  :         //                (CRTICIAL TEST)
; 733  :         if (1
; 734  :             && tsWakeTime.tv_sec  == tsSaveWake.tv_sec
; 735  :             && tsWakeTime.tv_nsec == tsSaveWake.tv_nsec
; 736  :             && WaitForSingleObject( hTimer, 0 ) == WAIT_OBJECT_0

  005f0	33 c0		 xor	 eax, eax
  005f2	83 f8 01	 cmp	 eax, 1
  005f5	74 42		 je	 SHORT $LN64@w32_nanosl
  005f7	48 8b 44 24 68	 mov	 rax, QWORD PTR tsSaveWake$[rsp]
  005fc	48 39 05 00 00
	00 00		 cmp	 QWORD PTR ?tsWakeTime@?1??w32_nanosleep@@9@9, rax
  00603	75 34		 jne	 SHORT $LN64@w32_nanosl
  00605	8b 44 24 70	 mov	 eax, DWORD PTR tsSaveWake$[rsp+8]
  00609	39 05 08 00 00
	00		 cmp	 DWORD PTR ?tsWakeTime@?1??w32_nanosleep@@9@9+8, eax
  0060f	75 28		 jne	 SHORT $LN64@w32_nanosl
  00611	33 d2		 xor	 edx, edx
  00613	48 8b 0d 00 00
	00 00		 mov	 rcx, QWORD PTR ?hTimer@?1??w32_nanosleep@@9@9
  0061a	ff 15 00 00 00
	00		 call	 QWORD PTR __imp_WaitForSingleObject
  00620	85 c0		 test	 eax, eax
  00622	75 15		 jne	 SHORT $LN64@w32_nanosl

; 737  :         )
; 738  :         {
; 739  :             // The wakeup time hasn't been changed and the timer
; 740  :             // is still signaled so we must be the first thread
; 741  :             // to be woken up (otherwise the previously awakened
; 742  :             // thread would have set a new wakeup time and the
; 743  :             // timer thus wouldn't still be signaled). We clear
; 744  :             // the wakeup time too (since it's now known to be
; 745  :             // obsolete) which forces us to calculate a new one
; 746  :             // further above.
; 747  : 
; 748  :             tsWakeTime.tv_sec = 0;     // (needs recalculated)

  00624	48 c7 05 00 00
	00 00 00 00 00
	00		 mov	 QWORD PTR ?tsWakeTime@?1??w32_nanosleep@@9@9, 0

; 749  :             tsWakeTime.tv_nsec = 0;    // (needs recalculated)

  0062f	c7 05 08 00 00
	00 00 00 00 00	 mov	 DWORD PTR ?tsWakeTime@?1??w32_nanosleep@@9@9+8, 0
$LN64@w32_nanosl:
$LN37@w32_nanosl:

; 750  :         }
; 751  : 
; 752  :         // PROGRAMMING NOTE: I thought about simply using either
; 753  :         // 'tsWakeTime' or 'tsSaveWake' (depending on the above
; 754  :         // condition) as our new current TOD value, but doing so
; 755  :         // does not yield the desired behavior, since the system
; 756  :         // does not always wake us at our exact requested time.
; 757  :         // Thus obtaining a fresh/current TOD value each time we
; 758  :         // are awakened yields more precise/desireable behavior.
; 759  : 
; 760  :         VERIFY( clock_gettime( CLOCK_REALTIME, &tsCurrTime ) == 0);

  00639	48 8d 15 00 00
	00 00		 lea	 rdx, OFFSET FLAT:?tsCurrTime@?1??w32_nanosleep@@9@9
  00640	33 c9		 xor	 ecx, ecx
  00642	e8 00 00 00 00	 call	 clock_gettime
  00647	85 c0		 test	 eax, eax
  00649	74 5b		 je	 SHORT $LN65@w32_nanosl
$LN40@w32_nanosl:
  0064b	4c 8d 0d 00 00
	00 00		 lea	 r9, OFFSET FLAT:$SG159446
  00652	41 b8 f8 02 00
	00		 mov	 r8d, 760		; 000002f8H
  00658	48 8d 15 00 00
	00 00		 lea	 rdx, OFFSET FLAT:$SG159447
  0065f	48 8d 0d 00 00
	00 00		 lea	 rcx, OFFSET FLAT:$SG159448
  00666	e8 00 00 00 00	 call	 logmsg
  0066b	ff 15 00 00 00
	00		 call	 QWORD PTR __imp_IsDebuggerPresent
  00671	85 c0		 test	 eax, eax
  00673	74 20		 je	 SHORT $LN66@w32_nanosl
  00675	4c 8d 0d 00 00
	00 00		 lea	 r9, OFFSET FLAT:$SG159450
  0067c	41 b8 f8 02 00
	00		 mov	 r8d, 760		; 000002f8H
  00682	48 8d 15 00 00
	00 00		 lea	 rdx, OFFSET FLAT:$SG159451
  00689	48 8d 0d 00 00
	00 00		 lea	 rcx, OFFSET FLAT:$SG159452
  00690	e8 00 00 00 00	 call	 DebuggerTrace
$LN66@w32_nanosl:
  00695	33 c0		 xor	 eax, eax
  00697	85 c0		 test	 eax, eax
  00699	75 b0		 jne	 SHORT $LN40@w32_nanosl
  0069b	ff 15 00 00 00
	00		 call	 QWORD PTR __imp_IsDebuggerPresent
  006a1	85 c0		 test	 eax, eax
  006a3	74 01		 je	 SHORT $LN67@w32_nanosl
  006a5	cc		 int	 3
$LN67@w32_nanosl:
$LN65@w32_nanosl:
  006a6	33 c0		 xor	 eax, eax
  006a8	85 c0		 test	 eax, eax
  006aa	75 8d		 jne	 SHORT $LN37@w32_nanosl

; 761  :     }
; 762  :     while // (has our wakeup time arrived yet?)
; 763  :     (0
; 764  :         || tsCurrTime.tv_sec < tsOurWake.tv_sec
; 765  :         || (1

  006ac	33 c0		 xor	 eax, eax
  006ae	85 c0		 test	 eax, eax
  006b0	0f 85 39 fb ff
	ff		 jne	 $LN16@w32_nanosl
  006b6	48 8b 44 24 58	 mov	 rax, QWORD PTR tsOurWake$[rsp]
  006bb	48 39 05 00 00
	00 00		 cmp	 QWORD PTR ?tsCurrTime@?1??w32_nanosleep@@9@9, rax
  006c2	0f 8c 27 fb ff
	ff		 jl	 $LN98@w32_nanosl
  006c8	33 c0		 xor	 eax, eax
  006ca	83 f8 01	 cmp	 eax, 1
  006cd	74 1e		 je	 SHORT $LN68@w32_nanosl
  006cf	48 8b 44 24 58	 mov	 rax, QWORD PTR tsOurWake$[rsp]
  006d4	48 39 05 00 00
	00 00		 cmp	 QWORD PTR ?tsCurrTime@?1??w32_nanosleep@@9@9, rax
  006db	75 10		 jne	 SHORT $LN68@w32_nanosl
  006dd	8b 44 24 60	 mov	 eax, DWORD PTR tsOurWake$[rsp+8]
  006e1	39 05 08 00 00
	00		 cmp	 DWORD PTR ?tsCurrTime@?1??w32_nanosleep@@9@9+8, eax
  006e7	0f 8c 02 fb ff
	ff		 jl	 $LN99@w32_nanosl
$LN68@w32_nanosl:

; 766  :             && tsCurrTime.tv_sec  == tsOurWake.tv_sec
; 767  :             && tsCurrTime.tv_nsec <  tsOurWake.tv_nsec
; 768  :            )
; 769  : 
; 770  :     );
; 771  : 
; 772  :     // Our wakeup time has arrived...
; 773  : 
; 774  :     LeaveCriticalSection( &waitlock );

  006ed	48 8d 0d 00 00
	00 00		 lea	 rcx, OFFSET FLAT:?waitlock@?1??w32_nanosleep@@9@9
  006f4	ff 15 00 00 00
	00		 call	 QWORD PTR __imp_LeaveCriticalSection

; 775  :     return 0;

  006fa	33 c0		 xor	 eax, eax
$LN1@w32_nanosl:

; 776  : }

  006fc	48 8b 4c 24 78	 mov	 rcx, QWORD PTR __$ArrayPad$[rsp]
  00701	48 33 cc	 xor	 rcx, rsp
  00704	e8 00 00 00 00	 call	 __security_check_cookie
  00709	48 81 c4 88 00
	00 00		 add	 rsp, 136		; 00000088H
  00710	5f		 pop	 rdi
  00711	5e		 pop	 rsi
  00712	c3		 ret	 0
w32_nanosleep ENDP
_TEXT	ENDS
; Function compile flags: /Odtp
; File C:\papa\MyGit\hyperion-zvector\w32util.c
_TEXT	SEGMENT
uliRetVal$ = 32
pFT$ = 64
FileTimeTo1970Nanoseconds PROC

; 262  : {

  00000	48 89 4c 24 08	 mov	 QWORD PTR [rsp+8], rcx
  00005	48 83 ec 38	 sub	 rsp, 56			; 00000038H
$LN4@FileTimeTo:

; 263  :     ULARGE_INTEGER  uliRetVal;
; 264  :     ASSERT( pFT );

  00009	48 83 7c 24 40
	00		 cmp	 QWORD PTR pFT$[rsp], 0
  0000f	75 5b		 jne	 SHORT $LN8@FileTimeTo
$LN7@FileTimeTo:
  00011	4c 8d 0d 00 00
	00 00		 lea	 r9, OFFSET FLAT:$SG159165
  00018	41 b8 08 01 00
	00		 mov	 r8d, 264		; 00000108H
  0001e	48 8d 15 00 00
	00 00		 lea	 rdx, OFFSET FLAT:$SG159166
  00025	48 8d 0d 00 00
	00 00		 lea	 rcx, OFFSET FLAT:$SG159167
  0002c	e8 00 00 00 00	 call	 logmsg
  00031	ff 15 00 00 00
	00		 call	 QWORD PTR __imp_IsDebuggerPresent
  00037	85 c0		 test	 eax, eax
  00039	74 20		 je	 SHORT $LN9@FileTimeTo
  0003b	4c 8d 0d 00 00
	00 00		 lea	 r9, OFFSET FLAT:$SG159169
  00042	41 b8 08 01 00
	00		 mov	 r8d, 264		; 00000108H
  00048	48 8d 15 00 00
	00 00		 lea	 rdx, OFFSET FLAT:$SG159170
  0004f	48 8d 0d 00 00
	00 00		 lea	 rcx, OFFSET FLAT:$SG159171
  00056	e8 00 00 00 00	 call	 DebuggerTrace
$LN9@FileTimeTo:
  0005b	33 c0		 xor	 eax, eax
  0005d	85 c0		 test	 eax, eax
  0005f	75 b0		 jne	 SHORT $LN7@FileTimeTo
  00061	ff 15 00 00 00
	00		 call	 QWORD PTR __imp_IsDebuggerPresent
  00067	85 c0		 test	 eax, eax
  00069	74 01		 je	 SHORT $LN10@FileTimeTo
  0006b	cc		 int	 3
$LN10@FileTimeTo:
$LN8@FileTimeTo:
  0006c	33 c0		 xor	 eax, eax
  0006e	85 c0		 test	 eax, eax
  00070	75 97		 jne	 SHORT $LN4@FileTimeTo

; 265  : 
; 266  :     // Convert FILETIME to ULARGE_INTEGER
; 267  : 
; 268  :     uliRetVal.HighPart = pFT->dwHighDateTime;

  00072	48 8b 44 24 40	 mov	 rax, QWORD PTR pFT$[rsp]
  00077	8b 40 04	 mov	 eax, DWORD PTR [rax+4]
  0007a	89 44 24 24	 mov	 DWORD PTR uliRetVal$[rsp+4], eax

; 269  :     uliRetVal.LowPart  = pFT->dwLowDateTime;

  0007e	48 8b 44 24 40	 mov	 rax, QWORD PTR pFT$[rsp]
  00083	8b 00		 mov	 eax, DWORD PTR [rax]
  00085	89 44 24 20	 mov	 DWORD PTR uliRetVal$[rsp], eax

; 270  : 
; 271  :     // Convert from 100-nsec units since 1/1/1601
; 272  :     // to number of 100-nsec units since 1/1/1970
; 273  : 
; 274  :     uliRetVal.QuadPart -= 116444736000000000ULL;

  00089	48 b8 00 80 3e
	d5 de b1 9d 01	 mov	 rax, 116444736000000000	; 019db1ded53e8000H
  00093	48 8b 4c 24 20	 mov	 rcx, QWORD PTR uliRetVal$[rsp]
  00098	48 2b c8	 sub	 rcx, rax
  0009b	48 8b c1	 mov	 rax, rcx
  0009e	48 89 44 24 20	 mov	 QWORD PTR uliRetVal$[rsp], rax

; 275  : 
; 276  :     // Convert from 100-nsec units to just nsecs
; 277  : 
; 278  :     uliRetVal.QuadPart *= 100;

  000a3	48 6b 44 24 20
	64		 imul	 rax, QWORD PTR uliRetVal$[rsp], 100 ; 00000064H
  000a9	48 89 44 24 20	 mov	 QWORD PTR uliRetVal$[rsp], rax

; 279  : 
; 280  :     return uliRetVal;

  000ae	48 8b 44 24 20	 mov	 rax, QWORD PTR uliRetVal$[rsp]

; 281  : }

  000b3	48 83 c4 38	 add	 rsp, 56			; 00000038H
  000b7	c3		 ret	 0
FileTimeTo1970Nanoseconds ENDP
_TEXT	ENDS
; Function compile flags: /Odtp
; File C:\papa\MyGit\hyperion-zvector\w32util.c
_TEXT	SEGMENT
expression$ = 8
function$ = 16
file$ = 24
line$ = 32
pReserved$ = 40
DummyCRTInvalidParameterHandler PROC

; 50   : {

  00000	44 89 4c 24 20	 mov	 DWORD PTR [rsp+32], r9d
  00005	4c 89 44 24 18	 mov	 QWORD PTR [rsp+24], r8
  0000a	48 89 54 24 10	 mov	 QWORD PTR [rsp+16], rdx
  0000f	48 89 4c 24 08	 mov	 QWORD PTR [rsp+8], rcx

; 51   :     // Do nothing to cause CRT to simply ignore the invalid parameter
; 52   :     // and to instead just pass back the return code to the caller.
; 53   : }

  00014	c3		 ret	 0
DummyCRTInvalidParameterHandler ENDP
_TEXT	ENDS
; Function compile flags: /Odtp
; File C:\papa\MyGit\hyperion-zvector\clock.h
_TEXT	SEGMENT
us$ = 8
tv$ = 16
usecs2timeval PROC

; 237  : {

  00000	48 89 54 24 10	 mov	 QWORD PTR [rsp+16], rdx
  00005	48 89 4c 24 08	 mov	 QWORD PTR [rsp+8], rcx

; 238  :     tv->tv_sec  = us / 1000000;

  0000a	33 d2		 xor	 edx, edx
  0000c	48 8b 44 24 08	 mov	 rax, QWORD PTR us$[rsp]
  00011	b9 40 42 0f 00	 mov	 ecx, 1000000		; 000f4240H
  00016	48 f7 f1	 div	 rcx
  00019	48 8b 4c 24 10	 mov	 rcx, QWORD PTR tv$[rsp]
  0001e	89 01		 mov	 DWORD PTR [rcx], eax

; 239  :     tv->tv_usec = us % 1000000;

  00020	33 d2		 xor	 edx, edx
  00022	48 8b 44 24 08	 mov	 rax, QWORD PTR us$[rsp]
  00027	b9 40 42 0f 00	 mov	 ecx, 1000000		; 000f4240H
  0002c	48 f7 f1	 div	 rcx
  0002f	48 8b c2	 mov	 rax, rdx
  00032	48 8b 4c 24 10	 mov	 rcx, QWORD PTR tv$[rsp]
  00037	89 41 04	 mov	 DWORD PTR [rcx+4], eax

; 240  : }

  0003a	c3		 ret	 0
usecs2timeval ENDP
_TEXT	ENDS
; Function compile flags: /Odtp
; File C:\papa\MyGit\hyperion-zvector\w32util.c
_TEXT	SEGMENT
EnableInvalidParameterHandling PROC

; 72   : {

$LN4:
  00000	48 83 ec 28	 sub	 rsp, 40			; 00000028H

; 73   :     if ( !old_iph ) return;

  00004	48 83 3d 00 00
	00 00 00	 cmp	 QWORD PTR old_iph, 0
  0000c	75 02		 jne	 SHORT $LN2@EnableInva
  0000e	eb 29		 jmp	 SHORT $LN1@EnableInva
$LN2@EnableInva:

; 74   :     _set_invalid_parameter_handler( old_iph ); old_iph = NULL;

  00010	48 8b 0d 00 00
	00 00		 mov	 rcx, QWORD PTR old_iph
  00017	ff 15 00 00 00
	00		 call	 QWORD PTR __imp__set_invalid_parameter_handler
  0001d	48 c7 05 00 00
	00 00 00 00 00
	00		 mov	 QWORD PTR old_iph, 0

; 75   : #if defined(DEBUG) || defined(_DEBUG)
; 76   :     _CrtSetReportMode( _CRT_ASSERT, prev_rm );

  00028	8b 15 00 00 00
	00		 mov	 edx, DWORD PTR prev_rm
  0002e	b9 02 00 00 00	 mov	 ecx, 2
  00033	ff 15 00 00 00
	00		 call	 QWORD PTR __imp__CrtSetReportMode
$LN1@EnableInva:

; 77   : #endif
; 78   : }

  00039	48 83 c4 28	 add	 rsp, 40			; 00000028H
  0003d	c3		 ret	 0
EnableInvalidParameterHandling ENDP
_TEXT	ENDS
; Function compile flags: /Odtp
; File C:\papa\MyGit\hyperion-zvector\w32util.c
_TEXT	SEGMENT
DisableInvalidParameterHandling PROC

; 63   : {

$LN4:
  00000	48 83 ec 28	 sub	 rsp, 40			; 00000028H

; 64   :     if ( old_iph ) return;

  00004	48 83 3d 00 00
	00 00 00	 cmp	 QWORD PTR old_iph, 0
  0000c	74 02		 je	 SHORT $LN2@DisableInv
  0000e	eb 27		 jmp	 SHORT $LN1@DisableInv
$LN2@DisableInv:

; 65   :     old_iph = _set_invalid_parameter_handler( DummyCRTInvalidParameterHandler );

  00010	48 8d 0d 00 00
	00 00		 lea	 rcx, OFFSET FLAT:DummyCRTInvalidParameterHandler
  00017	ff 15 00 00 00
	00		 call	 QWORD PTR __imp__set_invalid_parameter_handler
  0001d	48 89 05 00 00
	00 00		 mov	 QWORD PTR old_iph, rax

; 66   : #if defined(DEBUG) || defined(_DEBUG)
; 67   :     prev_rm = _CrtSetReportMode( _CRT_ASSERT, 0 );

  00024	33 d2		 xor	 edx, edx
  00026	b9 02 00 00 00	 mov	 ecx, 2
  0002b	ff 15 00 00 00
	00		 call	 QWORD PTR __imp__CrtSetReportMode
  00031	89 05 00 00 00
	00		 mov	 DWORD PTR prev_rm, eax
$LN1@DisableInv:

; 68   : #endif
; 69   : }

  00037	48 83 c4 28	 add	 rsp, 40			; 00000028H
  0003b	c3		 ret	 0
DisableInvalidParameterHandling ENDP
_TEXT	ENDS
; Function compile flags: /Odtp
; File C:\papa\MyGit\hyperion-zvector\w32util.c
_TEXT	SEGMENT
i$ = 32
k$1 = 36
j$2 = 40
match$3 = 44
tv70 = 48
tv89 = 52
haystack$ = 80
needle$ = 88
w32_strcasestr PROC

; 4642 : {

$LN10:
  00000	48 89 54 24 10	 mov	 QWORD PTR [rsp+16], rdx
  00005	48 89 4c 24 08	 mov	 QWORD PTR [rsp+8], rcx
  0000a	48 83 ec 48	 sub	 rsp, 72			; 00000048H

; 4643 :     int i = -1;

  0000e	c7 44 24 20 ff
	ff ff ff	 mov	 DWORD PTR i$[rsp], -1
$LN2@w32_strcas:

; 4644 : 
; 4645 :     while ( haystack[++i] != '\0' )

  00016	8b 44 24 20	 mov	 eax, DWORD PTR i$[rsp]
  0001a	ff c0		 inc	 eax
  0001c	89 44 24 20	 mov	 DWORD PTR i$[rsp], eax
  00020	48 63 44 24 20	 movsxd	 rax, DWORD PTR i$[rsp]
  00025	48 8b 4c 24 50	 mov	 rcx, QWORD PTR haystack$[rsp]
  0002a	0f be 04 01	 movsx	 eax, BYTE PTR [rcx+rax]
  0002e	85 c0		 test	 eax, eax
  00030	0f 84 13 01 00
	00		 je	 $LN3@w32_strcas

; 4646 :     {
; 4647 :         if ( tolower( haystack[i] ) == tolower( needle[0] ) )

  00036	48 63 44 24 20	 movsxd	 rax, DWORD PTR i$[rsp]
  0003b	48 8b 4c 24 50	 mov	 rcx, QWORD PTR haystack$[rsp]
  00040	0f be 04 01	 movsx	 eax, BYTE PTR [rcx+rax]
  00044	8b c8		 mov	 ecx, eax
  00046	ff 15 00 00 00
	00		 call	 QWORD PTR __imp_tolower
  0004c	89 44 24 30	 mov	 DWORD PTR tv70[rsp], eax
  00050	b9 01 00 00 00	 mov	 ecx, 1
  00055	48 6b c9 00	 imul	 rcx, rcx, 0
  00059	48 8b 54 24 58	 mov	 rdx, QWORD PTR needle$[rsp]
  0005e	0f be 0c 0a	 movsx	 ecx, BYTE PTR [rdx+rcx]
  00062	ff 15 00 00 00
	00		 call	 QWORD PTR __imp_tolower
  00068	8b 4c 24 30	 mov	 ecx, DWORD PTR tv70[rsp]
  0006c	3b c8		 cmp	 ecx, eax
  0006e	0f 85 d0 00 00
	00		 jne	 $LN6@w32_strcas

; 4648 :         {
; 4649 :             int j=i, k=0, match=0;

  00074	8b 44 24 20	 mov	 eax, DWORD PTR i$[rsp]
  00078	89 44 24 28	 mov	 DWORD PTR j$2[rsp], eax
  0007c	c7 44 24 24 00
	00 00 00	 mov	 DWORD PTR k$1[rsp], 0
  00084	c7 44 24 2c 00
	00 00 00	 mov	 DWORD PTR match$3[rsp], 0
$LN4@w32_strcas:

; 4650 :             while ( tolower( haystack[++j] ) == tolower( needle[++k] ) )

  0008c	8b 44 24 28	 mov	 eax, DWORD PTR j$2[rsp]
  00090	ff c0		 inc	 eax
  00092	89 44 24 28	 mov	 DWORD PTR j$2[rsp], eax
  00096	8b 44 24 24	 mov	 eax, DWORD PTR k$1[rsp]
  0009a	ff c0		 inc	 eax
  0009c	89 44 24 24	 mov	 DWORD PTR k$1[rsp], eax
  000a0	48 63 44 24 24	 movsxd	 rax, DWORD PTR k$1[rsp]
  000a5	48 8b 4c 24 58	 mov	 rcx, QWORD PTR needle$[rsp]
  000aa	0f be 04 01	 movsx	 eax, BYTE PTR [rcx+rax]
  000ae	8b c8		 mov	 ecx, eax
  000b0	ff 15 00 00 00
	00		 call	 QWORD PTR __imp_tolower
  000b6	89 44 24 34	 mov	 DWORD PTR tv89[rsp], eax
  000ba	48 63 4c 24 28	 movsxd	 rcx, DWORD PTR j$2[rsp]
  000bf	48 8b 54 24 50	 mov	 rdx, QWORD PTR haystack$[rsp]
  000c4	0f be 0c 0a	 movsx	 ecx, BYTE PTR [rdx+rcx]
  000c8	ff 15 00 00 00
	00		 call	 QWORD PTR __imp_tolower
  000ce	8b 4c 24 34	 mov	 ecx, DWORD PTR tv89[rsp]
  000d2	3b c1		 cmp	 eax, ecx
  000d4	75 43		 jne	 SHORT $LN5@w32_strcas

; 4651 :             {
; 4652 :                 match=1;

  000d6	c7 44 24 2c 01
	00 00 00	 mov	 DWORD PTR match$3[rsp], 1

; 4653 :                 // Catch case when they match at the end
; 4654 :                 if ( haystack[j] == '\0' && needle[k] == '\0' )

  000de	48 63 44 24 28	 movsxd	 rax, DWORD PTR j$2[rsp]
  000e3	48 8b 4c 24 50	 mov	 rcx, QWORD PTR haystack$[rsp]
  000e8	0f be 04 01	 movsx	 eax, BYTE PTR [rcx+rax]
  000ec	85 c0		 test	 eax, eax
  000ee	75 24		 jne	 SHORT $LN7@w32_strcas
  000f0	48 63 44 24 24	 movsxd	 rax, DWORD PTR k$1[rsp]
  000f5	48 8b 4c 24 58	 mov	 rcx, QWORD PTR needle$[rsp]
  000fa	0f be 04 01	 movsx	 eax, BYTE PTR [rcx+rax]
  000fe	85 c0		 test	 eax, eax
  00100	75 12		 jne	 SHORT $LN7@w32_strcas

; 4655 :                 {
; 4656 :                     return (char*)&haystack[i];

  00102	48 63 44 24 20	 movsxd	 rax, DWORD PTR i$[rsp]
  00107	48 8b 4c 24 50	 mov	 rcx, QWORD PTR haystack$[rsp]
  0010c	48 03 c8	 add	 rcx, rax
  0010f	48 8b c1	 mov	 rax, rcx
  00112	eb 37		 jmp	 SHORT $LN1@w32_strcas
$LN7@w32_strcas:

; 4657 :                 }
; 4658 :             }

  00114	e9 73 ff ff ff	 jmp	 $LN4@w32_strcas
$LN5@w32_strcas:

; 4659 :             // Catch normal case
; 4660 :             if ( match && needle[k] == '\0' )

  00119	83 7c 24 2c 00	 cmp	 DWORD PTR match$3[rsp], 0
  0011e	74 24		 je	 SHORT $LN8@w32_strcas
  00120	48 63 44 24 24	 movsxd	 rax, DWORD PTR k$1[rsp]
  00125	48 8b 4c 24 58	 mov	 rcx, QWORD PTR needle$[rsp]
  0012a	0f be 04 01	 movsx	 eax, BYTE PTR [rcx+rax]
  0012e	85 c0		 test	 eax, eax
  00130	75 12		 jne	 SHORT $LN8@w32_strcas

; 4661 :             {
; 4662 :                 return (char*)&haystack[i];

  00132	48 63 44 24 20	 movsxd	 rax, DWORD PTR i$[rsp]
  00137	48 8b 4c 24 50	 mov	 rcx, QWORD PTR haystack$[rsp]
  0013c	48 03 c8	 add	 rcx, rax
  0013f	48 8b c1	 mov	 rax, rcx
  00142	eb 07		 jmp	 SHORT $LN1@w32_strcas
$LN8@w32_strcas:
$LN6@w32_strcas:

; 4663 :             }
; 4664 :         }
; 4665 :     }

  00144	e9 cd fe ff ff	 jmp	 $LN2@w32_strcas
$LN3@w32_strcas:

; 4666 :     return NULL;

  00149	33 c0		 xor	 eax, eax
$LN1@w32_strcas:

; 4667 : }

  0014b	48 83 c4 48	 add	 rsp, 72			; 00000048H
  0014f	c3		 ret	 0
w32_strcasestr ENDP
_TEXT	ENDS
; Function compile flags: /Odtp
; File C:\papa\MyGit\hyperion-zvector\w32util.c
_TEXT	SEGMENT
drive$1 = 80
buffer$2 = 96
dir$3 = 368
__$ArrayPad$ = 624
path$ = 656
w32_dirname PROC

; 4580 : {

$LN7:
  00000	48 89 4c 24 08	 mov	 QWORD PTR [rsp+8], rcx
  00005	57		 push	 rdi
  00006	48 81 ec 80 02
	00 00		 sub	 rsp, 640		; 00000280H
  0000d	48 8b 05 00 00
	00 00		 mov	 rax, QWORD PTR __security_cookie
  00014	48 33 c4	 xor	 rax, rsp
  00017	48 89 84 24 70
	02 00 00	 mov	 QWORD PTR __$ArrayPad$[rsp], rax

; 4581 :     // The dirname() function shall return a pointer to a string
; 4582 :     // that is the parent directory of path.
; 4583 : 
; 4584 :     // If path is a NULL pointer, points to an empty string, or
; 4585 :     // does not contain a path separator character (indicating
; 4586 :     // that determining the parent directory of path would be
; 4587 :     // impossible), then a pointer to the string "." is returned.
; 4588 : 
; 4589 :     // The dirname() function may modify the string pointed to by path,
; 4590 :     // and may return a pointer to internal storage. The returned pointer
; 4591 :     // might be invalidated or the storage might be overwritten by a
; 4592 :     // subsequent call to dirname().
; 4593 : 
; 4594 :     // The dirname() function need not be thread-safe.
; 4595 : 
; 4596 :     static char _dirname [  MAX_PATH  ];
; 4597 : 
; 4598 :     /* We do a memset to not leak any of previous caller's results */
; 4599 :     memset( _dirname, 0, sizeof( _dirname ));

  0001f	48 8d 05 00 00
	00 00		 lea	 rax, OFFSET FLAT:?_dirname@?1??w32_dirname@@9@9
  00026	48 8b f8	 mov	 rdi, rax
  00029	33 c0		 xor	 eax, eax
  0002b	b9 04 01 00 00	 mov	 ecx, 260		; 00000104H
  00030	f3 aa		 rep stosb

; 4600 : 
; 4601 :     if (0
; 4602 :         || !path
; 4603 :         || !path[0]
; 4604 :         || !strchr( path, PATHSEPC )

  00032	33 c0		 xor	 eax, eax
  00034	85 c0		 test	 eax, eax
  00036	75 3b		 jne	 SHORT $LN4@w32_dirnam
  00038	48 83 bc 24 90
	02 00 00 00	 cmp	 QWORD PTR path$[rsp], 0
  00041	74 30		 je	 SHORT $LN4@w32_dirnam
  00043	b8 01 00 00 00	 mov	 eax, 1
  00048	48 6b c0 00	 imul	 rax, rax, 0
  0004c	48 8b 8c 24 90
	02 00 00	 mov	 rcx, QWORD PTR path$[rsp]
  00054	0f be 04 01	 movsx	 eax, BYTE PTR [rcx+rax]
  00058	85 c0		 test	 eax, eax
  0005a	74 17		 je	 SHORT $LN4@w32_dirnam
  0005c	ba 2f 00 00 00	 mov	 edx, 47			; 0000002fH
  00061	48 8b 8c 24 90
	02 00 00	 mov	 rcx, QWORD PTR path$[rsp]
  00069	e8 00 00 00 00	 call	 strchr
  0006e	48 85 c0	 test	 rax, rax
  00071	75 1e		 jne	 SHORT $LN2@w32_dirnam
$LN4@w32_dirnam:

; 4605 :     )
; 4606 :         STRLCPY( _dirname, "." );

  00073	41 b8 04 01 00
	00		 mov	 r8d, 260		; 00000104H
  00079	48 8d 15 00 00
	00 00		 lea	 rdx, OFFSET FLAT:$SG161933
  00080	48 8d 0d 00 00
	00 00		 lea	 rcx, OFFSET FLAT:?_dirname@?1??w32_dirname@@9@9
  00087	e8 00 00 00 00	 call	 strlcpy
  0008c	e9 d6 00 00 00	 jmp	 $LN3@w32_dirnam
$LN2@w32_dirnam:

; 4607 :     else
; 4608 :     {
; 4609 :         char buffer [  MAX_PATH  ];
; 4610 :         char drive  [ _MAX_DRIVE ];
; 4611 :         char dir    [ _MAX_DIR   ];
; 4612 : 
; 4613 :         /* Copy path to work buffer */
; 4614 :         STRLCPY( buffer, path );

  00091	41 b8 04 01 00
	00		 mov	 r8d, 260		; 00000104H
  00097	48 8b 94 24 90
	02 00 00	 mov	 rdx, QWORD PTR path$[rsp]
  0009f	48 8d 4c 24 60	 lea	 rcx, QWORD PTR buffer$2[rsp]
  000a4	e8 00 00 00 00	 call	 strlcpy

; 4615 : 
; 4616 :         /* Remove any trailing slashes before doing splitpath */
; 4617 :         rtrim( buffer, PATHSEPS );

  000a9	48 8d 15 00 00
	00 00		 lea	 rdx, OFFSET FLAT:$SG161934
  000b0	48 8d 4c 24 60	 lea	 rcx, QWORD PTR buffer$2[rsp]
  000b5	e8 00 00 00 00	 call	 rtrim

; 4618 : 
; 4619 :         /* Why does MSVC declare _splitpath_s as deprecated?! (C4996) */
; 4620 :         _splitpath_s

  000ba	48 c7 44 24 40
	00 00 00 00	 mov	 QWORD PTR [rsp+64], 0
  000c3	48 c7 44 24 38
	00 00 00 00	 mov	 QWORD PTR [rsp+56], 0
  000cc	48 c7 44 24 30
	00 00 00 00	 mov	 QWORD PTR [rsp+48], 0
  000d5	48 c7 44 24 28
	00 00 00 00	 mov	 QWORD PTR [rsp+40], 0
  000de	48 c7 44 24 20
	00 01 00 00	 mov	 QWORD PTR [rsp+32], 256	; 00000100H
  000e7	4c 8d 8c 24 70
	01 00 00	 lea	 r9, QWORD PTR dir$3[rsp]
  000ef	41 b8 03 00 00
	00		 mov	 r8d, 3
  000f5	48 8d 54 24 50	 lea	 rdx, QWORD PTR drive$1[rsp]
  000fa	48 8d 4c 24 60	 lea	 rcx, QWORD PTR buffer$2[rsp]
  000ff	ff 15 00 00 00
	00		 call	 QWORD PTR __imp__splitpath_s

; 4621 :         (
; 4622 :             buffer,                 // input
; 4623 :             drive, sizeof( drive ), // drive buffer and buffer size
; 4624 :             dir,   sizeof( dir   ), // directory buffer and buffer size
; 4625 :             NULL, 0,                // not interested in filename component
; 4626 :             NULL, 0                 // not interested in extension component
; 4627 :         );
; 4628 : 
; 4629 :         STRLCPY( _dirname, drive );

  00105	41 b8 04 01 00
	00		 mov	 r8d, 260		; 00000104H
  0010b	48 8d 54 24 50	 lea	 rdx, QWORD PTR drive$1[rsp]
  00110	48 8d 0d 00 00
	00 00		 lea	 rcx, OFFSET FLAT:?_dirname@?1??w32_dirname@@9@9
  00117	e8 00 00 00 00	 call	 strlcpy

; 4630 :         STRLCAT( _dirname, dir );

  0011c	41 b8 04 01 00
	00		 mov	 r8d, 260		; 00000104H
  00122	48 8d 94 24 70
	01 00 00	 lea	 rdx, QWORD PTR dir$3[rsp]
  0012a	48 8d 0d 00 00
	00 00		 lea	 rcx, OFFSET FLAT:?_dirname@?1??w32_dirname@@9@9
  00131	e8 00 00 00 00	 call	 strlcat

; 4631 : 
; 4632 :         if (!_dirname[0])

  00136	b8 01 00 00 00	 mov	 eax, 1
  0013b	48 6b c0 00	 imul	 rax, rax, 0
  0013f	48 8d 0d 00 00
	00 00		 lea	 rcx, OFFSET FLAT:?_dirname@?1??w32_dirname@@9@9
  00146	0f be 04 01	 movsx	 eax, BYTE PTR [rcx+rax]
  0014a	85 c0		 test	 eax, eax
  0014c	75 19		 jne	 SHORT $LN5@w32_dirnam

; 4633 :             STRLCPY( _dirname, "." );

  0014e	41 b8 04 01 00
	00		 mov	 r8d, 260		; 00000104H
  00154	48 8d 15 00 00
	00 00		 lea	 rdx, OFFSET FLAT:$SG161936
  0015b	48 8d 0d 00 00
	00 00		 lea	 rcx, OFFSET FLAT:?_dirname@?1??w32_dirname@@9@9
  00162	e8 00 00 00 00	 call	 strlcpy
$LN5@w32_dirnam:
$LN3@w32_dirnam:

; 4634 :     }
; 4635 : 
; 4636 :     return _dirname;

  00167	48 8d 05 00 00
	00 00		 lea	 rax, OFFSET FLAT:?_dirname@?1??w32_dirname@@9@9

; 4637 : }

  0016e	48 8b 8c 24 70
	02 00 00	 mov	 rcx, QWORD PTR __$ArrayPad$[rsp]
  00176	48 33 cc	 xor	 rcx, rsp
  00179	e8 00 00 00 00	 call	 __security_check_cookie
  0017e	48 81 c4 80 02
	00 00		 add	 rsp, 640		; 00000280H
  00185	5f		 pop	 rdi
  00186	c3		 ret	 0
w32_dirname ENDP
_TEXT	ENDS
; Function compile flags: /Odtp
; File C:\papa\MyGit\hyperion-zvector\w32util.c
_TEXT	SEGMENT
buffer$1 = 80
fname$2 = 352
ext$3 = 608
__$ArrayPad$ = 864
path$ = 896
w32_basename PROC

; 4516 : {

$LN7:
  00000	48 89 4c 24 08	 mov	 QWORD PTR [rsp+8], rcx
  00005	57		 push	 rdi
  00006	48 81 ec 70 03
	00 00		 sub	 rsp, 880		; 00000370H
  0000d	48 8b 05 00 00
	00 00		 mov	 rax, QWORD PTR __security_cookie
  00014	48 33 c4	 xor	 rax, rsp
  00017	48 89 84 24 60
	03 00 00	 mov	 QWORD PTR __$ArrayPad$[rsp], rax

; 4517 :     // The basename() function shall take the pathname pointed to by
; 4518 :     // path and return a pointer to the final component of the pathname,
; 4519 :     // deleting any trailing path separator characters.
; 4520 : 
; 4521 :     // If path is a NULL pointer or points to an empty string, basename()
; 4522 :     // shall return a pointer to the string ".".
; 4523 : 
; 4524 :     // The basename() function may modify the string pointed to by path,
; 4525 :     // and may return a pointer to internal storage. The returned pointer
; 4526 :     // might be invalidated or the storage might be overwritten by a
; 4527 :     // subsequent call to basename().
; 4528 : 
; 4529 :     // The basename() function need not be thread-safe.
; 4530 : 
; 4531 :     static char _basename[  MAX_PATH ];
; 4532 : 
; 4533 :     /* We do a memset to not leak any of previous caller's results */
; 4534 :     memset( _basename, 0, sizeof( _basename ));

  0001f	48 8d 05 00 00
	00 00		 lea	 rax, OFFSET FLAT:?_basename@?1??w32_basename@@9@9
  00026	48 8b f8	 mov	 rdi, rax
  00029	33 c0		 xor	 eax, eax
  0002b	b9 04 01 00 00	 mov	 ecx, 260		; 00000104H
  00030	f3 aa		 rep stosb

; 4535 : 
; 4536 :     if (!path || !path[0])

  00032	48 83 bc 24 80
	03 00 00 00	 cmp	 QWORD PTR path$[rsp], 0
  0003b	74 19		 je	 SHORT $LN4@w32_basena
  0003d	b8 01 00 00 00	 mov	 eax, 1
  00042	48 6b c0 00	 imul	 rax, rax, 0
  00046	48 8b 8c 24 80
	03 00 00	 mov	 rcx, QWORD PTR path$[rsp]
  0004e	0f be 04 01	 movsx	 eax, BYTE PTR [rcx+rax]
  00052	85 c0		 test	 eax, eax
  00054	75 1e		 jne	 SHORT $LN2@w32_basena
$LN4@w32_basena:

; 4537 :         STRLCPY( _basename, "." );

  00056	41 b8 04 01 00
	00		 mov	 r8d, 260		; 00000104H
  0005c	48 8d 15 00 00
	00 00		 lea	 rdx, OFFSET FLAT:$SG161916
  00063	48 8d 0d 00 00
	00 00		 lea	 rcx, OFFSET FLAT:?_basename@?1??w32_basename@@9@9
  0006a	e8 00 00 00 00	 call	 strlcpy
  0006f	e9 d6 00 00 00	 jmp	 $LN3@w32_basena
$LN2@w32_basena:

; 4538 :     else
; 4539 :     {
; 4540 :         char buffer [  MAX_PATH  ];
; 4541 :         char fname  [ _MAX_FNAME ];
; 4542 :         char ext    [ _MAX_EXT   ];
; 4543 : 
; 4544 :         /* Copy path to work buffer */
; 4545 :         STRLCPY( buffer, path );

  00074	41 b8 04 01 00
	00		 mov	 r8d, 260		; 00000104H
  0007a	48 8b 94 24 80
	03 00 00	 mov	 rdx, QWORD PTR path$[rsp]
  00082	48 8d 4c 24 50	 lea	 rcx, QWORD PTR buffer$1[rsp]
  00087	e8 00 00 00 00	 call	 strlcpy

; 4546 : 
; 4547 :         /* Remove any trailing slashes before doing splitpath */
; 4548 :         rtrim( buffer, PATHSEPS );

  0008c	48 8d 15 00 00
	00 00		 lea	 rdx, OFFSET FLAT:$SG161917
  00093	48 8d 4c 24 50	 lea	 rcx, QWORD PTR buffer$1[rsp]
  00098	e8 00 00 00 00	 call	 rtrim

; 4549 : 
; 4550 :         /* Why does MSVC declare _splitpath_s as deprecated?! (C4996) */
; 4551 :         _splitpath_s

  0009d	48 c7 44 24 40
	00 01 00 00	 mov	 QWORD PTR [rsp+64], 256	; 00000100H
  000a6	48 8d 84 24 60
	02 00 00	 lea	 rax, QWORD PTR ext$3[rsp]
  000ae	48 89 44 24 38	 mov	 QWORD PTR [rsp+56], rax
  000b3	48 c7 44 24 30
	00 01 00 00	 mov	 QWORD PTR [rsp+48], 256	; 00000100H
  000bc	48 8d 84 24 60
	01 00 00	 lea	 rax, QWORD PTR fname$2[rsp]
  000c4	48 89 44 24 28	 mov	 QWORD PTR [rsp+40], rax
  000c9	48 c7 44 24 20
	00 00 00 00	 mov	 QWORD PTR [rsp+32], 0
  000d2	45 33 c9	 xor	 r9d, r9d
  000d5	45 33 c0	 xor	 r8d, r8d
  000d8	33 d2		 xor	 edx, edx
  000da	48 8d 4c 24 50	 lea	 rcx, QWORD PTR buffer$1[rsp]
  000df	ff 15 00 00 00
	00		 call	 QWORD PTR __imp__splitpath_s

; 4552 :         (
; 4553 :             buffer,                 // input
; 4554 :             NULL, 0,                // not interested in drive component
; 4555 :             NULL, 0,                // not interested in dir  component
; 4556 :             fname, sizeof( fname ), // filename buffer and buffer size
; 4557 :             ext,   sizeof( ext   )  // extension buffer and buffer size
; 4558 :         );
; 4559 : 
; 4560 :         STRLCPY( _basename, fname );

  000e5	41 b8 04 01 00
	00		 mov	 r8d, 260		; 00000104H
  000eb	48 8d 94 24 60
	01 00 00	 lea	 rdx, QWORD PTR fname$2[rsp]
  000f3	48 8d 0d 00 00
	00 00		 lea	 rcx, OFFSET FLAT:?_basename@?1??w32_basename@@9@9
  000fa	e8 00 00 00 00	 call	 strlcpy

; 4561 :         STRLCAT( _basename, ext );

  000ff	41 b8 04 01 00
	00		 mov	 r8d, 260		; 00000104H
  00105	48 8d 94 24 60
	02 00 00	 lea	 rdx, QWORD PTR ext$3[rsp]
  0010d	48 8d 0d 00 00
	00 00		 lea	 rcx, OFFSET FLAT:?_basename@?1??w32_basename@@9@9
  00114	e8 00 00 00 00	 call	 strlcat

; 4562 : 
; 4563 :         if (!_basename[0])

  00119	b8 01 00 00 00	 mov	 eax, 1
  0011e	48 6b c0 00	 imul	 rax, rax, 0
  00122	48 8d 0d 00 00
	00 00		 lea	 rcx, OFFSET FLAT:?_basename@?1??w32_basename@@9@9
  00129	0f be 04 01	 movsx	 eax, BYTE PTR [rcx+rax]
  0012d	85 c0		 test	 eax, eax
  0012f	75 19		 jne	 SHORT $LN5@w32_basena

; 4564 :             STRLCPY( _basename, "." );

  00131	41 b8 04 01 00
	00		 mov	 r8d, 260		; 00000104H
  00137	48 8d 15 00 00
	00 00		 lea	 rdx, OFFSET FLAT:$SG161919
  0013e	48 8d 0d 00 00
	00 00		 lea	 rcx, OFFSET FLAT:?_basename@?1??w32_basename@@9@9
  00145	e8 00 00 00 00	 call	 strlcpy
$LN5@w32_basena:
$LN3@w32_basena:

; 4565 :     }
; 4566 : 
; 4567 :     return _basename;

  0014a	48 8d 05 00 00
	00 00		 lea	 rax, OFFSET FLAT:?_basename@?1??w32_basename@@9@9

; 4568 : }

  00151	48 8b 8c 24 60
	03 00 00	 mov	 rcx, QWORD PTR __$ArrayPad$[rsp]
  00159	48 33 cc	 xor	 rcx, rsp
  0015c	e8 00 00 00 00	 call	 __security_check_cookie
  00161	48 81 c4 70 03
	00 00		 add	 rsp, 880		; 00000370H
  00168	5f		 pop	 rdi
  00169	c3		 ret	 0
w32_basename ENDP
_TEXT	ENDS
; Function compile flags: /Odtp
; File C:\papa\MyGit\hyperion-zvector\w32util.c
_TEXT	SEGMENT
err$ = 64
pmode$ = 68
sh_flg$ = 72
fh$ = 76
vargs$1 = 80
msgbuf$2 = 96
__$ArrayPad$ = 624
path$ = 656
oflag$ = 664
w32_hopen PROC

; 4700 : {

$LN6:
  00000	89 54 24 10	 mov	 DWORD PTR [rsp+16], edx
  00004	48 89 4c 24 08	 mov	 QWORD PTR [rsp+8], rcx
  00009	4c 89 44 24 18	 mov	 QWORD PTR [rsp+24], r8
  0000e	4c 89 4c 24 20	 mov	 QWORD PTR [rsp+32], r9
  00013	48 81 ec 88 02
	00 00		 sub	 rsp, 648		; 00000288H
  0001a	48 8b 05 00 00
	00 00		 mov	 rax, QWORD PTR __security_cookie
  00021	48 33 c4	 xor	 rax, rsp
  00024	48 89 84 24 70
	02 00 00	 mov	 QWORD PTR __$ArrayPad$[rsp], rax

; 4701 :     int pmode   = _S_IREAD | _S_IWRITE;

  0002c	c7 44 24 44 80
	01 00 00	 mov	 DWORD PTR pmode$[rsp], 384 ; 00000180H

; 4702 :     int sh_flg  = _SH_DENYWR;

  00034	c7 44 24 48 20
	00 00 00	 mov	 DWORD PTR sh_flg$[rsp], 32 ; 00000020H

; 4703 :     int fh      = -1;

  0003c	c7 44 24 4c ff
	ff ff ff	 mov	 DWORD PTR fh$[rsp], -1

; 4704 :     errno_t err;
; 4705 : 
; 4706 :     if (oflag & O_CREAT)

  00044	8b 84 24 98 02
	00 00		 mov	 eax, DWORD PTR oflag$[rsp]
  0004b	25 00 01 00 00	 and	 eax, 256		; 00000100H
  00050	85 c0		 test	 eax, eax
  00052	74 27		 je	 SHORT $LN2@w32_hopen

; 4707 :     {
; 4708 :         va_list vargs;
; 4709 :         va_start( vargs, oflag );

  00054	48 8d 84 24 a0
	02 00 00	 lea	 rax, QWORD PTR oflag$[rsp+8]
  0005c	48 89 44 24 50	 mov	 QWORD PTR vargs$1[rsp], rax

; 4710 :         pmode = va_arg( vargs, int );

  00061	48 8b 44 24 50	 mov	 rax, QWORD PTR vargs$1[rsp]
  00066	48 83 c0 08	 add	 rax, 8
  0006a	48 89 44 24 50	 mov	 QWORD PTR vargs$1[rsp], rax
  0006f	48 8b 44 24 50	 mov	 rax, QWORD PTR vargs$1[rsp]
  00074	8b 40 f8	 mov	 eax, DWORD PTR [rax-8]
  00077	89 44 24 44	 mov	 DWORD PTR pmode$[rsp], eax
$LN2@w32_hopen:

; 4711 :     }
; 4712 : 
; 4713 :     err = _sopen_s( &fh, path, oflag, sh_flg, pmode );

  0007b	8b 44 24 44	 mov	 eax, DWORD PTR pmode$[rsp]
  0007f	89 44 24 20	 mov	 DWORD PTR [rsp+32], eax
  00083	44 8b 4c 24 48	 mov	 r9d, DWORD PTR sh_flg$[rsp]
  00088	44 8b 84 24 98
	02 00 00	 mov	 r8d, DWORD PTR oflag$[rsp]
  00090	48 8b 94 24 90
	02 00 00	 mov	 rdx, QWORD PTR path$[rsp]
  00098	48 8d 4c 24 4c	 lea	 rcx, QWORD PTR fh$[rsp]
  0009d	ff 15 00 00 00
	00		 call	 QWORD PTR __imp__sopen_s
  000a3	89 44 24 40	 mov	 DWORD PTR err$[rsp], eax

; 4714 : 
; 4715 :     // If only read-only access was requested and permission was denied,
; 4716 :     // then the file is already opened with write access by someone else.
; 4717 :     // Try again without requesting write access denial to others. This
; 4718 :     // allows batch utilities such as "dasdls" to open and read the file
; 4719 :     // even though e.g. Hercules already has it opened with write access.
; 4720 : 
; 4721 :     if (1
; 4722 :         && !(oflag & (_O_WRONLY | _O_RDWR))   // (open == read only?)
; 4723 :         && EACCES == err                      // (permission denied?)

  000a7	33 c0		 xor	 eax, eax
  000a9	83 f8 01	 cmp	 eax, 1
  000ac	74 49		 je	 SHORT $LN3@w32_hopen
  000ae	8b 84 24 98 02
	00 00		 mov	 eax, DWORD PTR oflag$[rsp]
  000b5	83 e0 03	 and	 eax, 3
  000b8	85 c0		 test	 eax, eax
  000ba	75 3b		 jne	 SHORT $LN3@w32_hopen
  000bc	83 7c 24 40 0d	 cmp	 DWORD PTR err$[rsp], 13
  000c1	75 34		 jne	 SHORT $LN3@w32_hopen

; 4724 :     )
; 4725 :     {
; 4726 :         sh_flg = _SH_DENYNO;  // (no read or write denials this time)

  000c3	c7 44 24 48 40
	00 00 00	 mov	 DWORD PTR sh_flg$[rsp], 64 ; 00000040H

; 4727 :         err = _sopen_s( &fh, path, oflag, sh_flg, pmode );

  000cb	8b 44 24 44	 mov	 eax, DWORD PTR pmode$[rsp]
  000cf	89 44 24 20	 mov	 DWORD PTR [rsp+32], eax
  000d3	44 8b 4c 24 48	 mov	 r9d, DWORD PTR sh_flg$[rsp]
  000d8	44 8b 84 24 98
	02 00 00	 mov	 r8d, DWORD PTR oflag$[rsp]
  000e0	48 8b 94 24 90
	02 00 00	 mov	 rdx, QWORD PTR path$[rsp]
  000e8	48 8d 4c 24 4c	 lea	 rcx, QWORD PTR fh$[rsp]
  000ed	ff 15 00 00 00
	00		 call	 QWORD PTR __imp__sopen_s
  000f3	89 44 24 40	 mov	 DWORD PTR err$[rsp], eax
$LN3@w32_hopen:

; 4728 :     }
; 4729 : 
; 4730 :     // Issue an error message only if verbose debugging is enabled
; 4731 :     if (1
; 4732 :         && err != 0
; 4733 :         && MLVL( DEBUG )
; 4734 :         && MLVL( VERBOSE )

  000f7	33 c0		 xor	 eax, eax
  000f9	83 f8 01	 cmp	 eax, 1
  000fc	0f 84 c3 00 00
	00		 je	 $LN4@w32_hopen
  00102	83 7c 24 40 00	 cmp	 DWORD PTR err$[rsp], 0
  00107	0f 84 b8 00 00
	00		 je	 $LN4@w32_hopen
  0010d	48 8b 05 00 00
	00 00		 mov	 rax, QWORD PTR __imp_sysblk
  00114	8b 80 80 75 01
	00		 mov	 eax, DWORD PTR [rax+95616]
  0011a	25 00 00 00 40	 and	 eax, 1073741824		; 40000000H
  0011f	85 c0		 test	 eax, eax
  00121	0f 84 9e 00 00
	00		 je	 $LN4@w32_hopen
  00127	48 8b 05 00 00
	00 00		 mov	 rax, QWORD PTR __imp_sysblk
  0012e	8b 80 80 75 01
	00		 mov	 eax, DWORD PTR [rax+95616]
  00134	25 00 00 00 80	 and	 eax, -2147483648	; 80000000H
  00139	85 c0		 test	 eax, eax
  0013b	0f 84 84 00 00
	00		 je	 $LN4@w32_hopen

; 4735 :     )
; 4736 :     {
; 4737 :         char msgbuf[MAX_PATH * 2];
; 4738 :         MSGBUF( msgbuf, "Error opening '%s'; errno(%d) %s", path, err, strerror(err) );

  00141	8b 4c 24 40	 mov	 ecx, DWORD PTR err$[rsp]
  00145	e8 00 00 00 00	 call	 w32_strerror
  0014a	48 89 44 24 28	 mov	 QWORD PTR [rsp+40], rax
  0014f	8b 44 24 40	 mov	 eax, DWORD PTR err$[rsp]
  00153	89 44 24 20	 mov	 DWORD PTR [rsp+32], eax
  00157	4c 8b 8c 24 90
	02 00 00	 mov	 r9, QWORD PTR path$[rsp]
  0015f	4c 8d 05 00 00
	00 00		 lea	 r8, OFFSET FLAT:$SG161997
  00166	ba 08 02 00 00	 mov	 edx, 520		; 00000208H
  0016b	48 8d 4c 24 60	 lea	 rcx, QWORD PTR msgbuf$2[rsp]
  00170	e8 00 00 00 00	 call	 w32_snprintf

; 4739 :         // "DBG: %s"
; 4740 :         WRMSG( HHC90000, "D", msgbuf );

  00175	b9 01 00 00 00	 mov	 ecx, 1
  0017a	ff 15 00 00 00
	00		 call	 QWORD PTR __imp___acrt_iob_func
  00180	48 8d 4c 24 60	 lea	 rcx, QWORD PTR msgbuf$2[rsp]
  00185	48 89 4c 24 38	 mov	 QWORD PTR [rsp+56], rcx
  0018a	48 8d 0d 00 00
	00 00		 lea	 rcx, OFFSET FLAT:$SG161998
  00191	48 89 4c 24 30	 mov	 QWORD PTR [rsp+48], rcx
  00196	48 8d 0d 00 00
	00 00		 lea	 rcx, OFFSET FLAT:$SG161999
  0019d	48 89 4c 24 28	 mov	 QWORD PTR [rsp+40], rcx
  001a2	48 89 44 24 20	 mov	 QWORD PTR [rsp+32], rax
  001a7	41 b9 03 00 00
	00		 mov	 r9d, 3
  001ad	4c 8d 05 00 00
	00 00		 lea	 r8, OFFSET FLAT:$SG162000
  001b4	ba 84 12 00 00	 mov	 edx, 4740		; 00001284H
  001b9	48 8d 0d 00 00
	00 00		 lea	 rcx, OFFSET FLAT:$SG162001
  001c0	e8 00 00 00 00	 call	 fwritemsg
$LN4@w32_hopen:

; 4741 :     }
; 4742 :     return fh;

  001c5	8b 44 24 4c	 mov	 eax, DWORD PTR fh$[rsp]

; 4743 : }

  001c9	48 8b 8c 24 70
	02 00 00	 mov	 rcx, QWORD PTR __$ArrayPad$[rsp]
  001d1	48 33 cc	 xor	 rcx, rsp
  001d4	e8 00 00 00 00	 call	 __security_check_cookie
  001d9	48 81 c4 88 02
	00 00		 add	 rsp, 648		; 00000288H
  001e0	c3		 ret	 0
w32_hopen ENDP
_TEXT	ENDS
; Function compile flags: /Odtp
; File C:\papa\MyGit\hyperion-zvector\w32util.c
_TEXT	SEGMENT
tv68 = 32
addr$ = 64
len$ = 72
w32_munlock PROC

; 4691 : {

$LN5:
  00000	48 89 54 24 10	 mov	 QWORD PTR [rsp+16], rdx
  00005	48 89 4c 24 08	 mov	 QWORD PTR [rsp+8], rcx
  0000a	48 83 ec 38	 sub	 rsp, 56			; 00000038H

; 4692 :     return VirtualUnlock( addr, len ) ? 0 : -1;

  0000e	48 8b 54 24 48	 mov	 rdx, QWORD PTR len$[rsp]
  00013	48 8b 4c 24 40	 mov	 rcx, QWORD PTR addr$[rsp]
  00018	ff 15 00 00 00
	00		 call	 QWORD PTR __imp_VirtualUnlock
  0001e	85 c0		 test	 eax, eax
  00020	74 0a		 je	 SHORT $LN3@w32_munloc
  00022	c7 44 24 20 00
	00 00 00	 mov	 DWORD PTR tv68[rsp], 0
  0002a	eb 08		 jmp	 SHORT $LN4@w32_munloc
$LN3@w32_munloc:
  0002c	c7 44 24 20 ff
	ff ff ff	 mov	 DWORD PTR tv68[rsp], -1
$LN4@w32_munloc:
  00034	8b 44 24 20	 mov	 eax, DWORD PTR tv68[rsp]

; 4693 : }

  00038	48 83 c4 38	 add	 rsp, 56			; 00000038H
  0003c	c3		 ret	 0
w32_munlock ENDP
_TEXT	ENDS
; Function compile flags: /Odtp
; File C:\papa\MyGit\hyperion-zvector\w32util.c
_TEXT	SEGMENT
tv68 = 32
addr$ = 64
len$ = 72
w32_mlock PROC

; 4686 : {

$LN5:
  00000	48 89 54 24 10	 mov	 QWORD PTR [rsp+16], rdx
  00005	48 89 4c 24 08	 mov	 QWORD PTR [rsp+8], rcx
  0000a	48 83 ec 38	 sub	 rsp, 56			; 00000038H

; 4687 :     return VirtualLock( addr, len ) ? 0 : -1;

  0000e	48 8b 54 24 48	 mov	 rdx, QWORD PTR len$[rsp]
  00013	48 8b 4c 24 40	 mov	 rcx, QWORD PTR addr$[rsp]
  00018	ff 15 00 00 00
	00		 call	 QWORD PTR __imp_VirtualLock
  0001e	85 c0		 test	 eax, eax
  00020	74 0a		 je	 SHORT $LN3@w32_mlock
  00022	c7 44 24 20 00
	00 00 00	 mov	 DWORD PTR tv68[rsp], 0
  0002a	eb 08		 jmp	 SHORT $LN4@w32_mlock
$LN3@w32_mlock:
  0002c	c7 44 24 20 ff
	ff ff ff	 mov	 DWORD PTR tv68[rsp], -1
$LN4@w32_mlock:
  00034	8b 44 24 20	 mov	 eax, DWORD PTR tv68[rsp]

; 4688 : }

  00038	48 83 c4 38	 add	 rsp, 56			; 00000038H
  0003c	c3		 ret	 0
w32_mlock ENDP
_TEXT	ENDS
; Function compile flags: /Odtp
; File C:\papa\MyGit\hyperion-zvector\w32util.c
_TEXT	SEGMENT
system_info$1 = 32
w32_hpagesize PROC

; 4672 : {

$LN4:
  00000	48 83 ec 58	 sub	 rsp, 88			; 00000058H

; 4673 :     static long g_pagesize = 0;
; 4674 :     if (!g_pagesize)

  00004	83 3d 00 00 00
	00 00		 cmp	 DWORD PTR ?g_pagesize@?1??w32_hpagesize@@9@9, 0
  0000b	75 15		 jne	 SHORT $LN2@w32_hpages

; 4675 :     {
; 4676 :         SYSTEM_INFO system_info ;
; 4677 :         GetSystemInfo(&system_info) ;

  0000d	48 8d 4c 24 20	 lea	 rcx, QWORD PTR system_info$1[rsp]
  00012	ff 15 00 00 00
	00		 call	 QWORD PTR __imp_GetSystemInfo

; 4678 :         g_pagesize = system_info.dwPageSize ;

  00018	8b 44 24 24	 mov	 eax, DWORD PTR system_info$1[rsp+4]
  0001c	89 05 00 00 00
	00		 mov	 DWORD PTR ?g_pagesize@?1??w32_hpagesize@@9@9, eax
$LN2@w32_hpages:

; 4679 :     }
; 4680 :     return (unsigned long) g_pagesize ;

  00022	8b 05 00 00 00
	00		 mov	 eax, DWORD PTR ?g_pagesize@?1??w32_hpagesize@@9@9

; 4681 : }

  00028	48 83 c4 58	 add	 rsp, 88			; 00000058H
  0002c	c3		 ret	 0
w32_hpagesize ENDP
_TEXT	ENDS
; Function compile flags: /Odtp
; File C:\papa\MyGit\hyperion-zvector\w32util.c
_TEXT	SEGMENT
info$ = 32
tid$ = 80
name$ = 88
w32_set_thread_name PROC

; 4486 : {

$LN10:
  00000	48 89 54 24 10	 mov	 QWORD PTR [rsp+16], rdx
  00005	89 4c 24 08	 mov	 DWORD PTR [rsp+8], ecx
  00009	48 83 ec 48	 sub	 rsp, 72			; 00000048H

; 4487 :     THREADNAME_INFO info;
; 4488 : 
; 4489 :     if (!name) return;              // (ignore premature calls)

  0000d	48 83 7c 24 58
	00		 cmp	 QWORD PTR name$[rsp], 0
  00013	75 02		 jne	 SHORT $LN2@w32_set_th
  00015	eb 3c		 jmp	 SHORT $LN5@w32_set_th
$LN2@w32_set_th:

; 4490 : 
; 4491 :     info.dwType     = 0x1000;

  00017	c7 44 24 20 00
	10 00 00	 mov	 DWORD PTR info$[rsp], 4096 ; 00001000H

; 4492 :     info.pszName    = name;         // (should really be LPCTSTR)

  0001f	48 8b 44 24 58	 mov	 rax, QWORD PTR name$[rsp]
  00024	48 89 44 24 28	 mov	 QWORD PTR info$[rsp+8], rax

; 4493 :     info.dwThreadID = (DWORD)tid;   // (-1 == current thread, else tid)

  00029	8b 44 24 50	 mov	 eax, DWORD PTR tid$[rsp]
  0002d	89 44 24 30	 mov	 DWORD PTR info$[rsp+16], eax

; 4494 :     info.dwFlags    = 0;

  00031	c7 44 24 34 00
	00 00 00	 mov	 DWORD PTR info$[rsp+20], 0

; 4495 : 
; 4496 :     __try
; 4497 :     {
; 4498 :         RaiseException( MS_VC_EXCEPTION, 0, sizeof(info) / sizeof(DWORD), (const U_LONG_PTR*)&info );

  00039	4c 8d 4c 24 20	 lea	 r9, QWORD PTR info$[rsp]
  0003e	41 b8 06 00 00
	00		 mov	 r8d, 6
  00044	33 d2		 xor	 edx, edx
  00046	b9 88 13 6d 40	 mov	 ecx, 1080890248		; 406d1388H
  0004b	ff 15 00 00 00
	00		 call	 QWORD PTR __imp_RaiseException

; 4499 :     }

  00051	eb 00		 jmp	 SHORT $LN5@w32_set_th
$LN7@w32_set_th:
$LN5@w32_set_th:

; 4500 :     __except ( EXCEPTION_CONTINUE_EXECUTION )
; 4501 :     {
; 4502 :         /* (do nothing) */
; 4503 :     }
; 4504 : }

  00053	48 83 c4 48	 add	 rsp, 72			; 00000048H
  00057	c3		 ret	 0
w32_set_thread_name ENDP
_TEXT	ENDS
; Function compile flags: /Odtp
text$x	SEGMENT
info$ = 32
tid$ = 80
name$ = 88
w32_set_thread_name$filt$0 PROC
  00000	40 55		 push	 rbp
  00002	48 83 ec 20	 sub	 rsp, 32			; 00000020H
  00006	48 8b ea	 mov	 rbp, rdx
$LN6@w32_set_th:

; 4500 :     __except ( EXCEPTION_CONTINUE_EXECUTION )

  00009	b8 ff ff ff ff	 mov	 eax, -1
$LN8@w32_set_th:
  0000e	48 83 c4 20	 add	 rsp, 32			; 00000020H
  00012	5d		 pop	 rbp
  00013	c3		 ret	 0
  00014	cc		 int	 3
w32_set_thread_name$filt$0 ENDP
text$x	ENDS
; Function compile flags: /Odtp
; File C:\papa\MyGit\hyperion-zvector\w32util.c
_TEXT	SEGMENT
rc$ = 80
pPipedProcessCtl$ = 88
dwThreadId$ = 96
pPipedStdOutThreadCtl$ = 104
pPipedStdErrThreadCtl$ = 112
hStdOutWorkerThread$ = 120
hOurProcess$ = 128
hPipeReadHandle$ = 136
hStdErrWorkerThread$ = 144
hOurReadFromStdout$ = 152
hOurReadFromStderr$ = 160
hOurWriteToStdin$ = 168
bSuccess$ = 176
hChildReadFromStdin$ = 184
pszNewCommandLine$ = 192
hPipeWriteHandle$ = 200
len$ = 208
hChildWriteToStdout$ = 216
hChildWriteToStderr$ = 224
piProcInfo$ = 232
saAttr$ = 256
siStartInfo$ = 288
pszCommandLine$ = 416
pnWriteToChildStdinFD$ = 424
w32_poor_mans_fork PROC

; 3899 : {

$LN230:
  00000	48 89 54 24 10	 mov	 QWORD PTR [rsp+16], rdx
  00005	48 89 4c 24 08	 mov	 QWORD PTR [rsp+8], rcx
  0000a	57		 push	 rdi
  0000b	48 81 ec 90 01
	00 00		 sub	 rsp, 400		; 00000190H

; 3900 :     HANDLE hChildReadFromStdin;         // child's stdin  pipe HANDLE (inherited from us)
; 3901 :     HANDLE hChildWriteToStdout;         // child's stdout pipe HANDLE (inherited from us)
; 3902 :     HANDLE hChildWriteToStderr;         // child's stderr pipe HANDLE (inherited from us)
; 3903 : 
; 3904 :     HANDLE hOurWriteToStdin;            // our HANDLE to write-end of child's stdin pipe
; 3905 :     HANDLE hOurReadFromStdout;          // our HANDLE to read-end of child's stdout pipe
; 3906 :     HANDLE hOurReadFromStderr;          // our HANDLE to read-end of child's stderr pipe
; 3907 : 
; 3908 :     HANDLE hOurProcess;                 // (temporary for creating pipes)
; 3909 :     HANDLE hPipeReadHandle;             // (temporary for creating pipes)
; 3910 :     HANDLE hPipeWriteHandle;            // (temporary for creating pipes)
; 3911 : 
; 3912 :     HANDLE hStdOutWorkerThread;         // (worker thread to monitor child's pipe)
; 3913 :     HANDLE hStdErrWorkerThread;         // (worker thread to monitor child's pipe)
; 3914 :     DWORD  dwThreadId;                  // (work)
; 3915 : 
; 3916 :     STARTUPINFO          siStartInfo;   // (info passed to CreateProcess)
; 3917 :     PROCESS_INFORMATION  piProcInfo;    // (info returned by CreateProcess)
; 3918 :     SECURITY_ATTRIBUTES  saAttr;        // (suckurity? we dunt need no stinkin suckurity!)
; 3919 : 
; 3920 :     char* pszNewCommandLine;            // (because we build pvt copy for CreateProcess)
; 3921 :     BOOL  bSuccess;                     // (work)
; 3922 :     int   rc;                           // (work)
; 3923 :     size_t len;                         // (work)
; 3924 : 
; 3925 :     PIPED_PROCESS_CTL*  pPipedProcessCtl        = NULL;

  00012	48 c7 44 24 58
	00 00 00 00	 mov	 QWORD PTR pPipedProcessCtl$[rsp], 0

; 3926 :     PIPED_THREAD_CTL*   pPipedStdOutThreadCtl   = NULL;

  0001b	48 c7 44 24 68
	00 00 00 00	 mov	 QWORD PTR pPipedStdOutThreadCtl$[rsp], 0

; 3927 :     PIPED_THREAD_CTL*   pPipedStdErrThreadCtl   = NULL;

  00024	48 c7 44 24 70
	00 00 00 00	 mov	 QWORD PTR pPipedStdErrThreadCtl$[rsp], 0

; 3928 : 
; 3929 :     //////////////////////////////////////////////////
; 3930 :     // Initialize fields...
; 3931 : 
; 3932 :     buffer_overflow_msg         = MSG_TRUNCATED_MSG;

  0002d	48 8d 05 00 00
	00 00		 lea	 rax, OFFSET FLAT:$SG161520
  00034	48 89 05 00 00
	00 00		 mov	 QWORD PTR buffer_overflow_msg, rax

; 3933 :     buffer_overflow_msg_len     = strlen( buffer_overflow_msg );

  0003b	48 8b 0d 00 00
	00 00		 mov	 rcx, QWORD PTR buffer_overflow_msg
  00042	e8 00 00 00 00	 call	 strlen
  00047	48 89 05 00 00
	00 00		 mov	 QWORD PTR buffer_overflow_msg_len, rax

; 3934 :     saAttr.nLength              = sizeof( SECURITY_ATTRIBUTES );

  0004e	c7 84 24 00 01
	00 00 18 00 00
	00		 mov	 DWORD PTR saAttr$[rsp], 24

; 3935 :     saAttr.lpSecurityDescriptor = NULL; // (we dunt need no stinkin suckurity!)

  00059	48 c7 84 24 08
	01 00 00 00 00
	00 00		 mov	 QWORD PTR saAttr$[rsp+8], 0

; 3936 :     saAttr.bInheritHandle       = TRUE; // (allows our inheritable HANDLEs

  00065	c7 84 24 10 01
	00 00 01 00 00
	00		 mov	 DWORD PTR saAttr$[rsp+16], 1

; 3937 :                                         // to be inherited by child)
; 3938 :     hOurProcess = GetCurrentProcess();  // (for creating pipes)

  00070	ff 15 00 00 00
	00		 call	 QWORD PTR __imp_GetCurrentProcess
  00076	48 89 84 24 80
	00 00 00	 mov	 QWORD PTR hOurProcess$[rsp], rax

; 3939 : 
; 3940 :     //////////////////////////////////////////////////
; 3941 :     // Only create a stdin pipe if caller will be providing the child's stdin data...
; 3942 : 
; 3943 :     if (!pnWriteToChildStdinFD)         // (will caller be providing child's stdin?)

  0007e	48 83 bc 24 a8
	01 00 00 00	 cmp	 QWORD PTR pnWriteToChildStdinFD$[rsp], 0
  00087	75 11		 jne	 SHORT $LN145@w32_poor_m

; 3944 :     {
; 3945 :         // PROGRAMMING NOTE: KB article 190351 "HOWTO: Spawn Console Processes with
; 3946 :         // Redirected Standard Handles" http://support.microsoft.com/?kbid=190351
; 3947 :         // is WRONG! (or at the very least quite misleading!)
; 3948 : 
; 3949 :         // It states that for those stdio handles you do NOT wish to redirect, you
; 3950 :         // should use "GetStdHandle(STD_xxx_HANDLE)", but that ONLY works when you
; 3951 :         // have a console to begin with! (which Hercules would NOT have when started
; 3952 :         // via HercGUI for example (since it specifies "DETACHED_PROCESS" (i.e. no
; 3953 :         // console) whenever it starts it via its own CreateProcess call).
; 3954 : 
; 3955 :         // If you wish to only redirect *some* (but NOT *all*) stdio handles in your
; 3956 :         // CreateProcess call, the ONLY way to properly do so (regardless of whether
; 3957 :         // you have a console or not) is by specifying NULL. Specifying NULL for your
; 3958 :         // stdio handle tells CreateProcess to use the default value for that HANDLE.
; 3959 : 
; 3960 :         hChildReadFromStdin = NULL;     // (no stdin redirection; use default)

  00089	48 c7 84 24 b8
	00 00 00 00 00
	00 00		 mov	 QWORD PTR hChildReadFromStdin$[rsp], 0

; 3961 :     }

  00095	e9 a7 01 00 00	 jmp	 $LN146@w32_poor_m
$LN145@w32_poor_m:
$LN4@w32_poor_m:

; 3962 :     else
; 3963 :     {
; 3964 :         // Create Stdin pipe for sending data to child...
; 3965 : 
; 3966 :         VERIFY( CreatePipe( &hChildReadFromStdin, &hPipeWriteHandle, &saAttr, PIPEBUFSIZE ));

  0009a	41 b9 00 04 00
	00		 mov	 r9d, 1024		; 00000400H
  000a0	4c 8d 84 24 00
	01 00 00	 lea	 r8, QWORD PTR saAttr$[rsp]
  000a8	48 8d 94 24 c8
	00 00 00	 lea	 rdx, QWORD PTR hPipeWriteHandle$[rsp]
  000b0	48 8d 8c 24 b8
	00 00 00	 lea	 rcx, QWORD PTR hChildReadFromStdin$[rsp]
  000b8	ff 15 00 00 00
	00		 call	 QWORD PTR __imp_CreatePipe
  000be	85 c0		 test	 eax, eax
  000c0	75 5b		 jne	 SHORT $LN147@w32_poor_m
$LN7@w32_poor_m:
  000c2	4c 8d 0d 00 00
	00 00		 lea	 r9, OFFSET FLAT:$SG161524
  000c9	41 b8 7e 0f 00
	00		 mov	 r8d, 3966		; 00000f7eH
  000cf	48 8d 15 00 00
	00 00		 lea	 rdx, OFFSET FLAT:$SG161525
  000d6	48 8d 0d 00 00
	00 00		 lea	 rcx, OFFSET FLAT:$SG161526
  000dd	e8 00 00 00 00	 call	 logmsg
  000e2	ff 15 00 00 00
	00		 call	 QWORD PTR __imp_IsDebuggerPresent
  000e8	85 c0		 test	 eax, eax
  000ea	74 20		 je	 SHORT $LN148@w32_poor_m
  000ec	4c 8d 0d 00 00
	00 00		 lea	 r9, OFFSET FLAT:$SG161528
  000f3	41 b8 7e 0f 00
	00		 mov	 r8d, 3966		; 00000f7eH
  000f9	48 8d 15 00 00
	00 00		 lea	 rdx, OFFSET FLAT:$SG161529
  00100	48 8d 0d 00 00
	00 00		 lea	 rcx, OFFSET FLAT:$SG161530
  00107	e8 00 00 00 00	 call	 DebuggerTrace
$LN148@w32_poor_m:
  0010c	33 c0		 xor	 eax, eax
  0010e	85 c0		 test	 eax, eax
  00110	75 b0		 jne	 SHORT $LN7@w32_poor_m
  00112	ff 15 00 00 00
	00		 call	 QWORD PTR __imp_IsDebuggerPresent
  00118	85 c0		 test	 eax, eax
  0011a	74 01		 je	 SHORT $LN149@w32_poor_m
  0011c	cc		 int	 3
$LN149@w32_poor_m:
$LN147@w32_poor_m:
  0011d	33 c0		 xor	 eax, eax
  0011f	85 c0		 test	 eax, eax
  00121	0f 85 73 ff ff
	ff		 jne	 $LN4@w32_poor_m
$LN10@w32_poor_m:

; 3967 : 
; 3968 :         // Create non-inheritable duplcate of pipe handle for our own private use...
; 3969 : 
; 3970 :         VERIFY( DuplicateHandle

  00127	c7 44 24 30 02
	00 00 00	 mov	 DWORD PTR [rsp+48], 2
  0012f	c7 44 24 28 00
	00 00 00	 mov	 DWORD PTR [rsp+40], 0
  00137	c7 44 24 20 00
	00 00 00	 mov	 DWORD PTR [rsp+32], 0
  0013f	4c 8d 8c 24 a8
	00 00 00	 lea	 r9, QWORD PTR hOurWriteToStdin$[rsp]
  00147	4c 8b 84 24 80
	00 00 00	 mov	 r8, QWORD PTR hOurProcess$[rsp]
  0014f	48 8b 94 24 c8
	00 00 00	 mov	 rdx, QWORD PTR hPipeWriteHandle$[rsp]
  00157	48 8b 8c 24 80
	00 00 00	 mov	 rcx, QWORD PTR hOurProcess$[rsp]
  0015f	ff 15 00 00 00
	00		 call	 QWORD PTR __imp_DuplicateHandle
  00165	85 c0		 test	 eax, eax
  00167	75 5b		 jne	 SHORT $LN150@w32_poor_m
$LN13@w32_poor_m:
  00169	4c 8d 0d 00 00
	00 00		 lea	 r9, OFFSET FLAT:$SG161533
  00170	41 b8 89 0f 00
	00		 mov	 r8d, 3977		; 00000f89H
  00176	48 8d 15 00 00
	00 00		 lea	 rdx, OFFSET FLAT:$SG161534
  0017d	48 8d 0d 00 00
	00 00		 lea	 rcx, OFFSET FLAT:$SG161535
  00184	e8 00 00 00 00	 call	 logmsg
  00189	ff 15 00 00 00
	00		 call	 QWORD PTR __imp_IsDebuggerPresent
  0018f	85 c0		 test	 eax, eax
  00191	74 20		 je	 SHORT $LN151@w32_poor_m
  00193	4c 8d 0d 00 00
	00 00		 lea	 r9, OFFSET FLAT:$SG161537
  0019a	41 b8 89 0f 00
	00		 mov	 r8d, 3977		; 00000f89H
  001a0	48 8d 15 00 00
	00 00		 lea	 rdx, OFFSET FLAT:$SG161538
  001a7	48 8d 0d 00 00
	00 00		 lea	 rcx, OFFSET FLAT:$SG161539
  001ae	e8 00 00 00 00	 call	 DebuggerTrace
$LN151@w32_poor_m:
  001b3	33 c0		 xor	 eax, eax
  001b5	85 c0		 test	 eax, eax
