 hdt1052c

 Timestamp is 63e3da0e (Wed Feb  8 18:21:18 2023)

 Preferred load address is 0000000100400000

 Start         Length     Name                   Class
 0001:00000000 00003670H .text$mn                CODE
 0001:00003670 00000040H .text$mn$00             CODE
 0001:000036b0 000000ddH .text$x                 CODE
 0002:00000000 00000200H .idata$5                DATA
 0002:00000200 00000038H .00cfg                  DATA
 0002:00000238 00000008H .CRT$XCA                DATA
 0002:00000240 00000008H .CRT$XCZ                DATA
 0002:00000248 00000008H .CRT$XIA                DATA
 0002:00000250 00000008H .CRT$XIZ                DATA
 0002:00000258 00000008H .CRT$XPA                DATA
 0002:00000260 00000008H .CRT$XPZ                DATA
 0002:00000268 00000008H .CRT$XTA                DATA
 0002:00000270 00000010H .CRT$XTZ                DATA
 0002:00000278 00000000H .gehcont$y              DATA
 0002:00000278 00000000H .gfids$y                DATA
 0002:00000280 00000200H .rdata                  DATA
 0002:00000480 00000080H .rdata$CastGuardVftablesA DATA
 0002:00000500 00000080H .rdata$CastGuardVftablesC DATA
 0002:00000580 00000090H .rdata$voltmd           DATA
 0002:00000610 00000310H .rdata$zzzdbg           DATA
 0002:00000920 00000008H .rtc$IAA                DATA
 0002:00000928 00000008H .rtc$IZZ                DATA
 0002:00000930 00000008H .rtc$TAA                DATA
 0002:00000938 00000008H .rtc$TZZ                DATA
 0002:00000940 00000330H .xdata                  DATA
 0002:00000c70 00000098H .edata                  DATA
 0002:00000d08 00000078H .idata$2                DATA
 0002:00000d80 00000018H .idata$3                DATA
 0002:00000d98 00000200H .idata$4                DATA
 0002:00000f98 000004b0H .idata$6                DATA
 0003:00000000 00000500H .data                   DATA
 0003:00000500 00000618H .bss                    DATA
 0004:00000000 000003d8H .pdata                  DATA
 0005:00000000 000002d0H .rsrc$01                DATA
 0005:000002d0 00013998H .rsrc$02                DATA

  Address         Publics by Value              Rva+Base               Lib:Object

 0000:00000000       __AbsoluteZero             0000000000000000     <absolute>
 0000:00000000       ___safe_se_handler_count   0000000000000000     <absolute>
 0000:00000000       ___safe_se_handler_table   0000000000000000     <absolute>
 0000:00000000       __arm64x_extra_rfe_table   0000000000000000     <absolute>
 0000:00000000       __arm64x_extra_rfe_table_size 0000000000000000     <absolute>
 0000:00000000       __arm64x_native_entrypoint 0000000000000000     <absolute>
 0000:00000000       __arm64x_redirection_metadata 0000000000000000     <absolute>
 0000:00000000       __arm64x_redirection_metadata_count 0000000000000000     <absolute>
 0000:00000000       __dynamic_value_reloc_table 0000000000000000     <absolute>
 0000:00000000       __enclave_config           0000000000000000     <absolute>
 0000:00000000       __guard_check_icall_a64n_fptr 0000000000000000     <absolute>
 0000:00000000       __guard_eh_cont_count      0000000000000000     <absolute>
 0000:00000000       __guard_eh_cont_table      0000000000000000     <absolute>
 0000:00000000       __guard_fids_count         0000000000000000     <absolute>
 0000:00000000       __guard_fids_table         0000000000000000     <absolute>
 0000:00000000       __guard_iat_count          0000000000000000     <absolute>
 0000:00000000       __guard_iat_table          0000000000000000     <absolute>
 0000:00000000       __guard_longjmp_count      0000000000000000     <absolute>
 0000:00000000       __guard_longjmp_table      0000000000000000     <absolute>
 0000:00000000       __hybrid_auxiliary_iat     0000000000000000     <absolute>
 0000:00000000       __hybrid_auxiliary_iat_copy 0000000000000000     <absolute>
 0000:00000000       __hybrid_code_map          0000000000000000     <absolute>
 0000:00000000       __hybrid_code_map_count    0000000000000000     <absolute>
 0000:00000000       __x64_code_ranges_to_entry_points 0000000000000000     <absolute>
 0000:00000000       __x64_code_ranges_to_entry_points_count 0000000000000000     <absolute>
 0000:00000100       __guard_flags              0000000000000100     <absolute>
 0000:00000000       __ImageBase                0000000100400000     <linker-defined>
 0001:00001440       hdl_check_depends_ep       0000000100402440 f   con1052c.obj
 0001:000014e0       hdl_define_devtypes_ep     00000001004024e0 f   con1052c.obj
 0001:00001520       hdl_register_symbols_ep    0000000100402520 f   con1052c.obj
 0001:00001540       __local_stdio_scanf_options 0000000100402540 f i con1052c.obj
 0001:00001550       _vsscanf_l                 0000000100402550 f i con1052c.obj
 0001:000015a0       sscanf                     00000001004025a0 f i con1052c.obj
 0001:000015ef       device_attention           00000001004025ef f   hengine:hengine.dll
 0001:000015f5       hthread_obtain_lock        00000001004025f5 f   hutil:hutil.dll
 0001:000015fb       hthread_release_lock       00000001004025fb f   hutil:hutil.dll
 0001:00001601       hthread_signal_condition   0000000100402601 f   hutil:hutil.dll
 0001:00001607       hthread_wait_condition     0000000100402607 f   hutil:hutil.dll
 0001:0000160d       strlcpy                    000000010040260d f   hutil:hutil.dll
 0001:00001613       w32_snprintf               0000000100402613 f   hutil:hutil.dll
 0001:00001619       w32_basename               0000000100402619 f   hutil:hutil.dll
 0001:0000161f       host_to_guest              000000010040261f f   hutil:hutil.dll
 0001:00001625       guest_to_host              0000000100402625 f   hutil:hutil.dll
 0001:0000162b       hdl_next                   000000010040262b f   hutil:hutil.dll
 0001:00001631       fwritemsg                  0000000100402631 f   hutil:hutil.dll
 0001:00001a50       _CRT_INIT                  0000000100402a50 f   MSVCRTD:dll_dllmain.obj
 0001:00001a80       _DllMainCRTStartup         0000000100402a80 f   MSVCRTD:dll_dllmain.obj
 0001:00001ac0       __raise_securityfailure    0000000100402ac0 f   MSVCRTD:gs_report.obj
 0001:00001b00       __report_gsfailure         0000000100402b00 f   MSVCRTD:gs_report.obj
 0001:00001be0       __report_rangecheckfailure 0000000100402be0 f   MSVCRTD:gs_report.obj
 0001:00001c00       __report_securityfailure   0000000100402c00 f   MSVCRTD:gs_report.obj
 0001:00001ca0       __report_securityfailureEx 0000000100402ca0 f   MSVCRTD:gs_report.obj
 0001:00001f10       __GSHandlerCheck           0000000100402f10 f   MSVCRTD:gshandler.obj
 0001:00001f50       __GSHandlerCheckCommon     0000000100402f50 f   MSVCRTD:gshandler.obj
 0001:00002060       __security_check_cookie    0000000100403060 f   MSVCRTD:amdsecgs.obj
 0001:00002140       __security_init_cookie     0000000100403140 f   MSVCRTD:gs_support.obj
 0001:000021c0       DllMain                    00000001004031c0 f   MSVCRTD:dll_dllmain_stub.obj
 0001:00002200       ?__scrt_initialize_type_info@@YAXXZ 0000000100403200 f   MSVCRTD:tncleanup.obj
 0001:00002220       ?__scrt_uninitialize_type_info@@YAXXZ 0000000100403220 f   MSVCRTD:tncleanup.obj
 0001:00002240       __local_stdio_printf_options 0000000100403240 f i MSVCRTD:default_local_stdio_options.obj
 0001:00002250       __scrt_initialize_default_local_stdio_options 0000000100403250 f   MSVCRTD:default_local_stdio_options.obj
 0001:000022a0       ?configure_argv@__scrt_narrow_argv_policy@@SAHXZ 00000001004032a0 f i MSVCRTD:utility.obj
 0001:00002390       ?initialize_environment@__scrt_narrow_environment_policy@@SAHXZ 0000000100403390 f i MSVCRTD:utility.obj
 0001:00002430       NtCurrentTeb               0000000100403430 f i MSVCRTD:utility.obj
 0001:00002440       __scrt_acquire_startup_lock 0000000100403440 f   MSVCRTD:utility.obj
 0001:000024b0       __scrt_dllmain_after_initialize_c 00000001004034b0 f   MSVCRTD:utility.obj
 0001:000024e0       __scrt_dllmain_before_initialize_c 00000001004034e0 f   MSVCRTD:utility.obj
 0001:00002500       __scrt_dllmain_crt_thread_attach 0000000100403500 f   MSVCRTD:utility.obj
 0001:00002530       __scrt_dllmain_crt_thread_detach 0000000100403530 f   MSVCRTD:utility.obj
 0001:00002550       __scrt_dllmain_exception_filter 0000000100403550 f   MSVCRTD:utility.obj
 0001:000025c0       __scrt_dllmain_uninitialize_c 00000001004035c0 f   MSVCRTD:utility.obj
 0001:000025f0       __scrt_dllmain_uninitialize_critical 00000001004035f0 f   MSVCRTD:utility.obj
 0001:00002610       __scrt_initialize_crt      0000000100403610 f   MSVCRTD:utility.obj
 0001:00002660       __scrt_initialize_onexit_tables 0000000100403660 f   MSVCRTD:utility.obj
 0001:00002770       __scrt_is_nonwritable_in_current_image 0000000100403770 f   MSVCRTD:utility.obj
 0001:00002800       __scrt_release_startup_lock 0000000100403800 f   MSVCRTD:utility.obj
 0001:00002830       __scrt_uninitialize_crt    0000000100403830 f   MSVCRTD:utility.obj
 0001:00002870       _onexit                    0000000100403870 f   MSVCRTD:utility.obj
 0001:000028f0       at_quick_exit              00000001004038f0 f   MSVCRTD:utility.obj
 0001:00002940       atexit                     0000000100403940 f   MSVCRTD:utility.obj
 0001:00002980       __scrt_get_dyn_tls_init_callback 0000000100403980 f   MSVCRTD:dyn_tls_init.obj
 0001:00002990       __crt_debugger_hook        0000000100403990 f   MSVCRTD:utility_desktop.obj
 0001:000029a0       __scrt_fastfail            00000001004039a0 f   MSVCRTD:utility_desktop.obj
 0001:00002b40       __scrt_get_show_window_mode 0000000100403b40 f   MSVCRTD:utility_desktop.obj
 0001:00002ba0       __scrt_initialize_mta      0000000100403ba0 f   MSVCRTD:utility_desktop.obj
 0001:00002bb0       __scrt_initialize_winrt    0000000100403bb0 f   MSVCRTD:utility_desktop.obj
 0001:00002bc0       __scrt_is_managed_app      0000000100403bc0 f   MSVCRTD:utility_desktop.obj
 0001:00002c70       __scrt_set_unhandled_exception_filter 0000000100403c70 f   MSVCRTD:utility_desktop.obj
 0001:00002c90       __scrt_exe_initialize_mta  0000000100403c90 f   MSVCRTD:utility_desktop.obj
 0001:00002c90       __scrt_stub_for_initialize_mta 0000000100403c90 f   MSVCRTD:utility_desktop.obj
 0001:00002ca0       __scrt_unhandled_exception_filter 0000000100403ca0 f   MSVCRTD:utility_desktop.obj
 0001:00002d40       _RTC_Initialize            0000000100403d40 f   MSVCRTD:initsect.obj
 0001:00002d90       _RTC_Terminate             0000000100403d90 f   MSVCRTD:initsect.obj
 0001:00002de0       _guard_check_icall_nop     0000000100403de0 f i MSVCRTD:guard_support.obj
 0001:00002df0       ReadNoFence64              0000000100403df0 f i MSVCRTD:guard_support.obj
 0001:00002e10       ReadPointerNoFence         0000000100403e10 f i MSVCRTD:guard_support.obj
 0001:00002e30       __castguard_check_failure_debugbreak 0000000100403e30 f i MSVCRTD:guard_support.obj
 0001:00002e50       __castguard_check_failure_fastfail 0000000100403e50 f i MSVCRTD:guard_support.obj
 0001:00002e80       __castguard_check_failure_nop 0000000100403e80 f i MSVCRTD:guard_support.obj
 0001:00002e90       __castguard_check_failure_os_handled 0000000100403e90 f i MSVCRTD:guard_support.obj
 0001:00002f60       __castguard_slow_path_check_debugbreak 0000000100403f60 f i MSVCRTD:guard_support.obj
 0001:00002fa0       __castguard_slow_path_check_fastfail 0000000100403fa0 f i MSVCRTD:guard_support.obj
 0001:00002ff0       __castguard_slow_path_check_nop 0000000100403ff0 f i MSVCRTD:guard_support.obj
 0001:00003000       __castguard_slow_path_check_os_handled 0000000100404000 f i MSVCRTD:guard_support.obj
 0001:000030c0       _guard_icall_checks_enforced 00000001004040c0 f i MSVCRTD:guard_support.obj
 0001:00003100       _guard_rf_checks_enforced  0000000100404100 f i MSVCRTD:guard_support.obj
 0001:00003110       __isa_available_init       0000000100404110 f   MSVCRTD:cpu_disp.obj
 0001:000034c0       _get_startup_argv_mode     00000001004044c0 f   MSVCRTD:argv_mode.obj
 0001:000034d0       __scrt_is_ucrt_dll_in_use  00000001004044d0 f   MSVCRTD:ucrt_detection.obj
 0001:00003500       memchr                     0000000100404500 f   vcruntimed:VCRUNTIME140D.dll
 0001:00003506       memmove                    0000000100404506 f   vcruntimed:VCRUNTIME140D.dll
 0001:0000350c       strchr                     000000010040450c f   vcruntimed:VCRUNTIME140D.dll
 0001:00003512       __C_specific_handler       0000000100404512 f   vcruntimed:VCRUNTIME140D.dll
 0001:00003518       __std_type_info_destroy_list 0000000100404518 f   vcruntimed:VCRUNTIME140D.dll
 0001:0000351e       __current_exception        000000010040451e f   vcruntimed:VCRUNTIME140D.dll
 0001:00003524       __current_exception_context 0000000100404524 f   vcruntimed:VCRUNTIME140D.dll
 0001:0000352a       isprint                    000000010040452a f   ucrtd:ucrtbased.dll
 0001:00003530       strcmp                     0000000100404530 f   ucrtd:ucrtbased.dll
 0001:00003536       _stricmp                   0000000100404536 f   ucrtd:ucrtbased.dll
 0001:0000353c       strlen                     000000010040453c f   ucrtd:ucrtbased.dll
 0001:00003542       strncmp                    0000000100404542 f   ucrtd:ucrtbased.dll
 0001:00003548       _strnicmp                  0000000100404548 f   ucrtd:ucrtbased.dll
 0001:0000354e       __acrt_iob_func            000000010040454e f   ucrtd:ucrtbased.dll
 0001:00003554       __stdio_common_vsscanf     0000000100404554 f   ucrtd:ucrtbased.dll
 0001:0000355a       _initterm                  000000010040455a f   ucrtd:ucrtbased.dll
 0001:00003560       _initterm_e                0000000100404560 f   ucrtd:ucrtbased.dll
 0001:00003566       _seh_filter_dll            0000000100404566 f   ucrtd:ucrtbased.dll
 0001:0000356c       _configure_narrow_argv     000000010040456c f   ucrtd:ucrtbased.dll
 0001:00003572       _initialize_narrow_environment 0000000100404572 f   ucrtd:ucrtbased.dll
 0001:00003578       _initialize_onexit_table   0000000100404578 f   ucrtd:ucrtbased.dll
 0001:0000357e       _register_onexit_function  000000010040457e f   ucrtd:ucrtbased.dll
 0001:00003584       _execute_onexit_table      0000000100404584 f   ucrtd:ucrtbased.dll
 0001:0000358a       _crt_atexit                000000010040458a f   ucrtd:ucrtbased.dll
 0001:00003590       _crt_at_quick_exit         0000000100404590 f   ucrtd:ucrtbased.dll
 0001:00003596       _cexit                     0000000100404596 f   ucrtd:ucrtbased.dll
 0001:0000359c       terminate                  000000010040459c f   ucrtd:ucrtbased.dll
 0001:000035a2       RtlCaptureContext          00000001004045a2 f   kernel32:KERNEL32.dll
 0001:000035a8       RtlLookupFunctionEntry     00000001004045a8 f   kernel32:KERNEL32.dll
 0001:000035ae       RtlVirtualUnwind           00000001004045ae f   kernel32:KERNEL32.dll
 0001:000035b4       UnhandledExceptionFilter   00000001004045b4 f   kernel32:KERNEL32.dll
 0001:000035ba       SetUnhandledExceptionFilter 00000001004045ba f   kernel32:KERNEL32.dll
 0001:000035c0       GetCurrentProcess          00000001004045c0 f   kernel32:KERNEL32.dll
 0001:000035c6       TerminateProcess           00000001004045c6 f   kernel32:KERNEL32.dll
 0001:000035cc       IsProcessorFeaturePresent  00000001004045cc f   kernel32:KERNEL32.dll
 0001:000035d2       QueryPerformanceCounter    00000001004045d2 f   kernel32:KERNEL32.dll
 0001:000035d8       GetCurrentProcessId        00000001004045d8 f   kernel32:KERNEL32.dll
 0001:000035de       GetCurrentThreadId         00000001004045de f   kernel32:KERNEL32.dll
 0001:000035e4       GetSystemTimeAsFileTime    00000001004045e4 f   kernel32:KERNEL32.dll
 0001:000035ea       DisableThreadLibraryCalls  00000001004045ea f   kernel32:KERNEL32.dll
 0001:000035f0       InitializeSListHead        00000001004045f0 f   kernel32:KERNEL32.dll
 0001:000035f6       IsDebuggerPresent          00000001004045f6 f   kernel32:KERNEL32.dll
 0001:000035fc       GetStartupInfoW            00000001004045fc f   kernel32:KERNEL32.dll
 0001:00003602       GetModuleHandleW           0000000100404602 f   kernel32:KERNEL32.dll
 0001:00003610       __acrt_initialize          0000000100404610 f   MSVCRTD:ucrt_stubs.obj
 0001:00003610       __scrt_stub_for_acrt_initialize 0000000100404610 f   MSVCRTD:ucrt_stubs.obj
 0001:00003610       __vcrt_initialize          0000000100404610 f   MSVCRTD:ucrt_stubs.obj
 0001:00003620       __acrt_thread_attach       0000000100404620 f   MSVCRTD:ucrt_stubs.obj
 0001:00003620       __scrt_stub_for_acrt_thread_attach 0000000100404620 f   MSVCRTD:ucrt_stubs.obj
 0001:00003620       __vcrt_thread_attach       0000000100404620 f   MSVCRTD:ucrt_stubs.obj
 0001:00003630       __acrt_thread_detach       0000000100404630 f   MSVCRTD:ucrt_stubs.obj
 0001:00003630       __scrt_stub_for_acrt_thread_detach 0000000100404630 f   MSVCRTD:ucrt_stubs.obj
 0001:00003630       __vcrt_thread_detach       0000000100404630 f   MSVCRTD:ucrt_stubs.obj
 0001:00003640       __acrt_uninitialize        0000000100404640 f   MSVCRTD:ucrt_stubs.obj
 0001:00003640       __scrt_stub_for_acrt_uninitialize 0000000100404640 f   MSVCRTD:ucrt_stubs.obj
 0001:00003640       __vcrt_uninitialize        0000000100404640 f   MSVCRTD:ucrt_stubs.obj
 0001:00003650       __acrt_uninitialize_critical 0000000100404650 f   MSVCRTD:ucrt_stubs.obj
 0001:00003650       __scrt_stub_for_acrt_uninitialize_critical 0000000100404650 f   MSVCRTD:ucrt_stubs.obj
 0001:00003650       __vcrt_uninitialize_critical 0000000100404650 f   MSVCRTD:ucrt_stubs.obj
 0001:00003660       __scrt_stub_for_is_c_termination_complete 0000000100404660 f   MSVCRTD:ucrt_stubs.obj
 0001:00003660       _is_c_termination_complete 0000000100404660 f   MSVCRTD:ucrt_stubs.obj
 0001:00003663       memcpy                     0000000100404663 f   vcruntimed:VCRUNTIME140D.dll
 0001:00003680       _guard_dispatch_icall_nop  0000000100404680 f   MSVCRTD:guard_dispatch.obj
 0001:000036a0       _guard_xfg_dispatch_icall_nop 00000001004046a0 f   MSVCRTD:guard_xfg_dispatch.obj
 0002:00000000       __imp_GetCurrentProcess    0000000100405000     kernel32:KERNEL32.dll
 0002:00000008       __imp_RtlLookupFunctionEntry 0000000100405008     kernel32:KERNEL32.dll
 0002:00000010       __imp_GetModuleHandleW     0000000100405010     kernel32:KERNEL32.dll
 0002:00000018       __imp_GetStartupInfoW      0000000100405018     kernel32:KERNEL32.dll
 0002:00000020       __imp_IsDebuggerPresent    0000000100405020     kernel32:KERNEL32.dll
 0002:00000028       __imp_InitializeSListHead  0000000100405028     kernel32:KERNEL32.dll
 0002:00000030       __imp_DisableThreadLibraryCalls 0000000100405030     kernel32:KERNEL32.dll
 0002:00000038       __imp_GetSystemTimeAsFileTime 0000000100405038     kernel32:KERNEL32.dll
 0002:00000040       __imp_GetCurrentThreadId   0000000100405040     kernel32:KERNEL32.dll
 0002:00000048       __imp_GetCurrentProcessId  0000000100405048     kernel32:KERNEL32.dll
 0002:00000050       __imp_QueryPerformanceCounter 0000000100405050     kernel32:KERNEL32.dll
 0002:00000058       __imp_IsProcessorFeaturePresent 0000000100405058     kernel32:KERNEL32.dll
 0002:00000060       __imp_TerminateProcess     0000000100405060     kernel32:KERNEL32.dll
 0002:00000068       __imp_RtlCaptureContext    0000000100405068     kernel32:KERNEL32.dll
 0002:00000070       __imp_SetUnhandledExceptionFilter 0000000100405070     kernel32:KERNEL32.dll
 0002:00000078       __imp_UnhandledExceptionFilter 0000000100405078     kernel32:KERNEL32.dll
 0002:00000080       __imp_RtlVirtualUnwind     0000000100405080     kernel32:KERNEL32.dll
 0002:00000088       \177KERNEL32_NULL_THUNK_DATA 0000000100405088     kernel32:KERNEL32.dll
 0002:00000090       __imp___C_specific_handler 0000000100405090     vcruntimed:VCRUNTIME140D.dll
 0002:00000098       __imp___std_type_info_destroy_list 0000000100405098     vcruntimed:VCRUNTIME140D.dll
 0002:000000a0       __imp___current_exception  00000001004050a0     vcruntimed:VCRUNTIME140D.dll
 0002:000000a8       __imp___current_exception_context 00000001004050a8     vcruntimed:VCRUNTIME140D.dll
 0002:000000b0       __imp_strchr               00000001004050b0     vcruntimed:VCRUNTIME140D.dll
 0002:000000b8       __imp_memmove              00000001004050b8     vcruntimed:VCRUNTIME140D.dll
 0002:000000c0       __imp_memchr               00000001004050c0     vcruntimed:VCRUNTIME140D.dll
 0002:000000c8       __imp_memcpy               00000001004050c8     vcruntimed:VCRUNTIME140D.dll
 0002:000000d0       \177VCRUNTIME140D_NULL_THUNK_DATA 00000001004050d0     vcruntimed:VCRUNTIME140D.dll
 0002:000000d8       __imp_device_attention     00000001004050d8     hengine:hengine.dll
 0002:000000e0       \177hengine_NULL_THUNK_DATA 00000001004050e0     hengine:hengine.dll
 0002:000000e8       __imp_sysblk               00000001004050e8     hsys:hsys.dll
 0002:000000f0       \177hsys_NULL_THUNK_DATA   00000001004050f0     hsys:hsys.dll
 0002:000000f8       __imp_strlcpy              00000001004050f8     hutil:hutil.dll
 0002:00000100       __imp_w32_snprintf         0000000100405100     hutil:hutil.dll
 0002:00000108       __imp_w32_basename         0000000100405108     hutil:hutil.dll
 0002:00000110       __imp_hthread_wait_condition 0000000100405110     hutil:hutil.dll
 0002:00000118       __imp_guest_to_host        0000000100405118     hutil:hutil.dll
 0002:00000120       __imp_hdl_next             0000000100405120     hutil:hutil.dll
 0002:00000128       __imp_fwritemsg            0000000100405128     hutil:hutil.dll
 0002:00000130       __imp_hthread_signal_condition 0000000100405130     hutil:hutil.dll
 0002:00000138       __imp_host_to_guest        0000000100405138     hutil:hutil.dll
 0002:00000140       __imp_hthread_obtain_lock  0000000100405140     hutil:hutil.dll
 0002:00000148       __imp_hthread_release_lock 0000000100405148     hutil:hutil.dll
 0002:00000150       \177hutil_NULL_THUNK_DATA  0000000100405150     hutil:hutil.dll
 0002:00000158       __imp__crt_atexit          0000000100405158     ucrtd:ucrtbased.dll
 0002:00000160       __imp__stricmp             0000000100405160     ucrtd:ucrtbased.dll
 0002:00000168       __imp__cexit               0000000100405168     ucrtd:ucrtbased.dll
 0002:00000170       __imp_isprint              0000000100405170     ucrtd:ucrtbased.dll
 0002:00000178       __imp__execute_onexit_table 0000000100405178     ucrtd:ucrtbased.dll
 0002:00000180       __imp__register_onexit_function 0000000100405180     ucrtd:ucrtbased.dll
 0002:00000188       __imp_strcmp               0000000100405188     ucrtd:ucrtbased.dll
 0002:00000190       __imp_terminate            0000000100405190     ucrtd:ucrtbased.dll
 0002:00000198       __imp__initialize_onexit_table 0000000100405198     ucrtd:ucrtbased.dll
 0002:000001a0       __imp__initialize_narrow_environment 00000001004051a0     ucrtd:ucrtbased.dll
 0002:000001a8       __imp__configure_narrow_argv 00000001004051a8     ucrtd:ucrtbased.dll
 0002:000001b0       __imp__seh_filter_dll      00000001004051b0     ucrtd:ucrtbased.dll
 0002:000001b8       __imp__initterm_e          00000001004051b8     ucrtd:ucrtbased.dll
 0002:000001c0       __imp_strlen               00000001004051c0     ucrtd:ucrtbased.dll
 0002:000001c8       __imp___stdio_common_vsscanf 00000001004051c8     ucrtd:ucrtbased.dll
 0002:000001d0       __imp___acrt_iob_func      00000001004051d0     ucrtd:ucrtbased.dll
 0002:000001d8       __imp__strnicmp            00000001004051d8     ucrtd:ucrtbased.dll
 0002:000001e0       __imp__crt_at_quick_exit   00000001004051e0     ucrtd:ucrtbased.dll
 0002:000001e8       __imp_strncmp              00000001004051e8     ucrtd:ucrtbased.dll
 0002:000001f0       __imp__initterm            00000001004051f0     ucrtd:ucrtbased.dll
 0002:000001f8       \177ucrtbased_NULL_THUNK_DATA 00000001004051f8     ucrtd:ucrtbased.dll
 0002:00000200       __guard_check_icall_fptr   0000000100405200     MSVCRTD:guard_support.obj
 0002:00000208       __guard_xfg_check_icall_fptr 0000000100405208     MSVCRTD:guard_support.obj
 0002:00000210       __guard_dispatch_icall_fptr 0000000100405210     MSVCRTD:guard_support.obj
 0002:00000218       __guard_xfg_dispatch_icall_fptr 0000000100405218     MSVCRTD:guard_support.obj
 0002:00000220       __guard_xfg_table_dispatch_icall_fptr 0000000100405220     MSVCRTD:guard_support.obj
 0002:00000228       __castguard_check_failure_os_handled_fptr 0000000100405228     MSVCRTD:guard_support.obj
 0002:00000230       __guard_memcpy_fptr        0000000100405230     vcruntimed:softmemtag.obj
 0002:00000238       __xc_a                     0000000100405238     MSVCRTD:initializers.obj
 0002:00000240       __xc_z                     0000000100405240     MSVCRTD:initializers.obj
 0002:00000248       __xi_a                     0000000100405248     MSVCRTD:initializers.obj
 0002:00000250       __xi_z                     0000000100405250     MSVCRTD:initializers.obj
 0002:00000258       __xp_a                     0000000100405258     MSVCRTD:initializers.obj
 0002:00000260       __xp_z                     0000000100405260     MSVCRTD:initializers.obj
 0002:00000268       __xt_a                     0000000100405268     MSVCRTD:initializers.obj
 0002:00000270       __xt_z                     0000000100405270     MSVCRTD:initializers.obj
 0002:000002a0       _pDefaultRawDllMain        00000001004052a0     MSVCRTD:dll_dllmain.obj
 0002:000002a0       _pRawDllMain               00000001004052a0     MSVCRTD:dll_dllmain.obj
 0002:000002c0       _load_config_used          00000001004052c0     MSVCRTD:loadcfg.obj
 0002:00000480       __CastGuardVftablesStart   0000000100405480     MSVCRTD:guard_support.obj
 0002:00000500       __CastGuardVftablesEnd     0000000100405500     MSVCRTD:guard_support.obj
 0002:00000580       __volatile_metadata        0000000100405580     <linker-defined>
 0002:00000920       __rtc_iaa                  0000000100405920     MSVCRTD:initsect.obj
 0002:00000928       __rtc_izz                  0000000100405928     MSVCRTD:initsect.obj
 0002:00000930       __rtc_taa                  0000000100405930     MSVCRTD:initsect.obj
 0002:00000938       __rtc_tzz                  0000000100405938     MSVCRTD:initsect.obj
 0002:00000d08       __IMPORT_DESCRIPTOR_hengine 0000000100405d08     hengine:hengine.dll
 0002:00000d1c       __IMPORT_DESCRIPTOR_hutil  0000000100405d1c     hutil:hutil.dll
 0002:00000d30       __IMPORT_DESCRIPTOR_hsys   0000000100405d30     hsys:hsys.dll
 0002:00000d44       __IMPORT_DESCRIPTOR_VCRUNTIME140D 0000000100405d44     vcruntimed:VCRUNTIME140D.dll
 0002:00000d58       __IMPORT_DESCRIPTOR_ucrtbased 0000000100405d58     ucrtd:ucrtbased.dll
 0002:00000d6c       __IMPORT_DESCRIPTOR_KERNEL32 0000000100405d6c     kernel32:KERNEL32.dll
 0002:00000d80       __NULL_IMPORT_DESCRIPTOR   0000000100405d80     hengine:hengine.dll
 0003:000004c0       __security_cookie_complement 00000001004074c0     MSVCRTD:gs_cookie.obj
 0003:000004c8       __security_cookie          00000001004074c8     MSVCRTD:gs_cookie.obj
 0003:000004d0       __scrt_native_dllmain_reason 00000001004074d0     MSVCRTD:utility.obj
 0003:000004d8       __isa_available            00000001004074d8     MSVCRTD:cpu_disp.obj
 0003:000004dc       __isa_enabled              00000001004074dc     MSVCRTD:cpu_disp.obj
 0003:000004e0       __memset_fast_string_threshold 00000001004074e0     MSVCRTD:cpu_disp.obj
 0003:000004e8       __memset_nt_threshold      00000001004074e8     MSVCRTD:cpu_disp.obj
 0003:000004f0       __scrt_ucrt_dll_is_in_use  00000001004074f0     MSVCRTD:ucrt_stubs.obj
 0003:00000a90       ?__type_info_root_node@@3U__type_info_node@@A 0000000100407a90     MSVCRTD:tncleanup.obj
 0003:00000aa0       ?_OptionsStorage@?1??__local_stdio_printf_options@@9@4_KA 0000000100407aa0     MSVCRTD:default_local_stdio_options.obj
 0003:00000aa8       ?_OptionsStorage@?1??__local_stdio_scanf_options@@9@4_KA 0000000100407aa8     MSVCRTD:default_local_stdio_options.obj
 0003:00000ab0       __scrt_current_native_startup_state 0000000100407ab0     MSVCRTD:utility.obj
 0003:00000ab8       __scrt_native_startup_lock 0000000100407ab8     MSVCRTD:utility.obj
 0003:00000af8       __scrt_debugger_hook_flag  0000000100407af8     MSVCRTD:utility_desktop.obj
 0003:00000afc       __favor                    0000000100407afc     MSVCRTD:cpu_disp.obj
 0003:00000b00       ?_OptionsStorage@?1??__local_stdio_scanf_options@@9@9 0000000100407b00     <common>
 0003:00000b08       __@@_PchSym_@00@UkzkzUnbtrgUsbkvirlmRaevxgliUnhexOwvyftOznwGEOlyqUyfrowPkxsOlyq@4B2008FD98C1DD4 0000000100407b08     <common>
 0003:00000b10       __dyn_tls_init_callback    0000000100407b10     <common>

 entry point at        0001:00001a80

 Static symbols

 0000:00000000       _volmd                     0000000100400000     con1052c.obj
 0000:fffe2000       .debug$S                   0000000100400000     hdt1052c.exp
 0000:fffe2000       .debug$S                   0000000100400000     kernel32:KERNEL32.dll
 0000:fffe2000       .debug$S                   0000000100400000     kernel32:KERNEL32.dll
 0000:fffe2000       .debug$S                   0000000100400000     kernel32:KERNEL32.dll
 0000:fffe2000       .debug$S                   0000000100400000     kernel32:KERNEL32.dll
 0000:fffe2000       .debug$S                   0000000100400000     kernel32:KERNEL32.dll
 0000:fffe2000       .debug$S                   0000000100400000     kernel32:KERNEL32.dll
 0000:fffe2000       .debug$S                   0000000100400000     kernel32:KERNEL32.dll
 0000:fffe2000       .debug$S                   0000000100400000     kernel32:KERNEL32.dll
 0000:fffe2000       .debug$S                   0000000100400000     kernel32:KERNEL32.dll
 0000:fffe2000       .debug$S                   0000000100400000     kernel32:KERNEL32.dll
 0000:fffe2000       .debug$S                   0000000100400000     kernel32:KERNEL32.dll
 0000:fffe2000       .debug$S                   0000000100400000     kernel32:KERNEL32.dll
 0000:fffe2000       .debug$S                   0000000100400000     kernel32:KERNEL32.dll
 0000:fffe2000       .debug$S                   0000000100400000     kernel32:KERNEL32.dll
 0000:fffe2000       .debug$S                   0000000100400000     kernel32:KERNEL32.dll
 0000:fffe2000       .debug$S                   0000000100400000     kernel32:KERNEL32.dll
 0000:fffe2000       .debug$S                   0000000100400000     kernel32:KERNEL32.dll
 0000:fffe2000       .debug$S                   0000000100400000     ucrtd:ucrtbased.dll
 0000:fffe2000       .debug$S                   0000000100400000     ucrtd:ucrtbased.dll
 0000:fffe2000       .debug$S                   0000000100400000     ucrtd:ucrtbased.dll
 0000:fffe2000       .debug$S                   0000000100400000     ucrtd:ucrtbased.dll
 0000:fffe2000       .debug$S                   0000000100400000     ucrtd:ucrtbased.dll
 0000:fffe2000       .debug$S                   0000000100400000     ucrtd:ucrtbased.dll
 0000:fffe2000       .debug$S                   0000000100400000     ucrtd:ucrtbased.dll
 0000:fffe2000       .debug$S                   0000000100400000     ucrtd:ucrtbased.dll
 0000:fffe2000       .debug$S                   0000000100400000     ucrtd:ucrtbased.dll
 0000:fffe2000       .debug$S                   0000000100400000     ucrtd:ucrtbased.dll
 0000:fffe2000       .debug$S                   0000000100400000     ucrtd:ucrtbased.dll
 0000:fffe2000       .debug$S                   0000000100400000     ucrtd:ucrtbased.dll
 0000:fffe2000       .debug$S                   0000000100400000     ucrtd:ucrtbased.dll
 0000:fffe2000       .debug$S                   0000000100400000     ucrtd:ucrtbased.dll
 0000:fffe2000       .debug$S                   0000000100400000     ucrtd:ucrtbased.dll
 0000:fffe2000       .debug$S                   0000000100400000     ucrtd:ucrtbased.dll
 0000:fffe2000       .debug$S                   0000000100400000     ucrtd:ucrtbased.dll
 0000:fffe2000       .debug$S                   0000000100400000     ucrtd:ucrtbased.dll
 0000:fffe2000       .debug$S                   0000000100400000     ucrtd:ucrtbased.dll
 0000:fffe2000       .debug$S                   0000000100400000     ucrtd:ucrtbased.dll
 0000:00000000       _volmd                     0000000100400000     MSVCRTD:cpu_disp.obj
 0002:ffffb000       __guard_ehcont_?dllmain_dispatch@@YAHQEAUHINSTANCE__@@KQEAX@Z 0000000100400000     MSVCRTD:dll_dllmain.obj
 0002:ffffb000       __guard_fids_?dllmain_dispatch@@YAHQEAUHINSTANCE__@@KQEAX@Z 0000000100400000     MSVCRTD:dll_dllmain.obj
 0000:00000000       _volmd                     0000000100400000     MSVCRTD:gs_report.obj
 0000:00000000       _volmd                     0000000100400000     MSVCRTD:gs_report.obj
 0000:00000000       _volmd                     0000000100400000     MSVCRTD:gs_report.obj
 0002:ffffb000       __guard_fids__             0000000100400000     MSVCRTD:guard_support.obj
 0002:ffffb000       __guard_fids__             0000000100400000     MSVCRTD:guard_support.obj
 0002:ffffb000       __guard_fids__guard_icall_checks_enforced 0000000100400000     MSVCRTD:guard_support.obj
 0000:00000000       _volmd                     0000000100400000     MSVCRTD:guard_support.obj
 0000:00000000       _volmd                     0000000100400000     MSVCRTD:guard_support.obj
 0002:ffffb000       __guard_ehcont___scrt_is_nonwritable_in_current_image 0000000100400000     MSVCRTD:utility.obj
 0000:00000000       _volmd                     0000000100400000     MSVCRTD:utility.obj
 0000:00000000       _volmd                     0000000100400000     MSVCRTD:utility.obj
 0000:00000000       _volmd                     0000000100400000     MSVCRTD:utility.obj
 0002:ffffb000       __guard_fids___scrt_set_unhandled_exception_filter 0000000100400000     MSVCRTD:utility_desktop.obj
 0000:00000000       _volmd                     0000000100400000     MSVCRTD:utility_desktop.obj
 0002:ffffb000       __guard_fids__             0000000100400000     vcruntimed:softmemtag.obj
 0000:fffe2000       .debug$S                   0000000100400000     vcruntimed:VCRUNTIME140D.dll
 0000:fffe2000       .debug$S                   0000000100400000     vcruntimed:VCRUNTIME140D.dll
 0000:fffe2000       .debug$S                   0000000100400000     vcruntimed:VCRUNTIME140D.dll
 0000:fffe2000       .debug$S                   0000000100400000     vcruntimed:VCRUNTIME140D.dll
 0000:fffe2000       .debug$S                   0000000100400000     vcruntimed:VCRUNTIME140D.dll
 0000:fffe2000       .debug$S                   0000000100400000     vcruntimed:VCRUNTIME140D.dll
 0000:fffe2000       .debug$S                   0000000100400000     vcruntimed:VCRUNTIME140D.dll
 0000:fffe2000       .debug$S                   0000000100400000     vcruntimed:VCRUNTIME140D.dll
 0000:fffe2000       .debug$S                   0000000100400000     hengine:hengine.dll
 0000:fffe2000       .debug$S                   0000000100400000     hsys:hsys.dll
 0000:fffe2000       .debug$S                   0000000100400000     hutil:hutil.dll
 0000:fffe2000       .debug$S                   0000000100400000     hutil:hutil.dll
 0000:fffe2000       .debug$S                   0000000100400000     hutil:hutil.dll
 0000:fffe2000       .debug$S                   0000000100400000     hutil:hutil.dll
 0000:fffe2000       .debug$S                   0000000100400000     hutil:hutil.dll
 0000:fffe2000       .debug$S                   0000000100400000     hutil:hutil.dll
 0000:fffe2000       .debug$S                   0000000100400000     hutil:hutil.dll
 0000:fffe2000       .debug$S                   0000000100400000     hutil:hutil.dll
 0000:fffe2000       .debug$S                   0000000100400000     hutil:hutil.dll
 0000:fffe2000       .debug$S                   0000000100400000     hutil:hutil.dll
 0000:fffe2000       .debug$S                   0000000100400000     hutil:hutil.dll
 0001:00000000       con1052_close_device       0000000100401000 f   con1052c.obj
 0001:00000090       con1052_query_device       0000000100401090 f   con1052c.obj
 0001:00000260       con1052_init_handler       0000000100401260 f   con1052c.obj
 0001:00000930       con1052_panel_command      0000000100401930 f   con1052c.obj
 0001:00000bd0       con1052_execute_ccw        0000000100401bd0 f   con1052c.obj
 0001:00001334       $LN52                      0000000100402334     con1052c.obj
 0001:00001354       $LN51                      0000000100402354     con1052c.obj
 0001:00001640       ?dllmain_crt_dispatch@@YAHQEAUHINSTANCE__@@KQEAX@Z 0000000100402640 f   MSVCRTD:dll_dllmain.obj
 0001:000016d0       ?dllmain_crt_process_attach@@YAHQEAUHINSTANCE__@@QEAX@Z 00000001004026d0 f   MSVCRTD:dll_dllmain.obj
 0001:00001810       ?dllmain_crt_process_detach@@YAH_N@Z 0000000100402810 f   MSVCRTD:dll_dllmain.obj
 0001:000018b0       ?dllmain_dispatch@@YAHQEAUHINSTANCE__@@KQEAX@Z 00000001004028b0 f   MSVCRTD:dll_dllmain.obj
 0001:000019f0       ?dllmain_raw@@YAHQEAUHINSTANCE__@@KQEAX@Z 00000001004029f0 f   MSVCRTD:dll_dllmain.obj
 0001:00001db0       capture_current_context    0000000100402db0 f   MSVCRTD:gs_report.obj
 0001:00001e50       capture_previous_context   0000000100402e50 f   MSVCRTD:gs_report.obj
 0001:00002050       $$000000                   0000000100403050     MSVCRTD:amdsecgs.obj
 0001:00002080       __get_entropy              0000000100403080 f   MSVCRTD:gs_support.obj
 0001:000022c0       ?find_pe_section@@YAPEAU_IMAGE_SECTION_HEADER@@QEAE_K@Z 00000001004032c0 f   MSVCRTD:utility.obj
 0001:000023a0       ?is_potentially_valid_image_base@@YA_NQEAX@Z 00000001004033a0 f   MSVCRTD:utility.obj
 0001:00002ec0       __castguard_check_failure_os_handled_wrapper 0000000100403ec0 f   MSVCRTD:guard_support.obj
 0001:00002ef0       __castguard_compat_check   0000000100403ef0 f   MSVCRTD:guard_support.obj
 0001:00003050       __castguard_slow_path_compat_check 0000000100404050 f   MSVCRTD:guard_support.obj
 0001:00003670       $$000000                   0000000100404670     MSVCRTD:guard_dispatch.obj
 0001:00003690       $$000000                   0000000100404690     MSVCRTD:guard_xfg_dispatch.obj
 0001:000036b0       ?fin$0@?0??dllmain_crt_process_attach@@YAHQEAUHINSTANCE__@@QEAX@Z@4HA 00000001004046b0 f   MSVCRTD:dll_dllmain.obj
 0001:000036d0       ?fin$0@?0??dllmain_crt_process_detach@@YAH_N@Z@4HA 00000001004046d0 f   MSVCRTD:dll_dllmain.obj
 0001:000036ea       ?fin$1@?0??dllmain_crt_process_detach@@YAH_N@Z@4HA 00000001004046ea f   MSVCRTD:dll_dllmain.obj
 0001:00003700       ?filt$0@?0??dllmain_dispatch@@YAHQEAUHINSTANCE__@@KQEAX@Z@4HA 0000000100404700 f   MSVCRTD:dll_dllmain.obj
 0001:00003750       __scrt_is_nonwritable_in_current_image$filt$0 0000000100404750 f   MSVCRTD:utility.obj
 0002:00000280       CKD_ENDTRK                 0000000100405280     con1052c.obj
 0002:00000288       default_pfxs               0000000100405288     con1052c.obj
 0002:000002a8       GS_ExceptionPointers       00000001004052a8     MSVCRTD:gs_report.obj
 0002:00000940       $unwind$_vsscanf_l         0000000100405940     con1052c.obj
 0002:00000948       $unwind$sscanf             0000000100405948     con1052c.obj
 0002:00000950       $unwind$con1052_close_device 0000000100405950     con1052c.obj
 0002:00000958       $unwind$con1052_query_device 0000000100405958     con1052c.obj
 0002:00000968       $unwind$con1052_init_handler 0000000100405968     con1052c.obj
 0002:00000970       $unwind$con1052_panel_command 0000000100405970     con1052c.obj
 0002:00000978       $unwind$con1052_execute_ccw 0000000100405978     con1052c.obj
 0002:00000984       $unwind$hdl_check_depends_ep 0000000100405984     con1052c.obj
 0002:0000098c       $unwind$hdl_define_devtypes_ep 000000010040598c     con1052c.obj
 0002:00000994       $unwind$hdl_register_symbols_ep 0000000100405994     con1052c.obj
 0002:0000099c       $unwind$?dllmain_crt_process_attach@@YAHQEAUHINSTANCE__@@QEAX@Z 000000010040599c     MSVCRTD:dll_dllmain.obj
 0002:000009bc       $unwind$?fin$0@?0??dllmain_crt_process_attach@@YAHQEAUHINSTANCE__@@QEAX@Z@4HA 00000001004059bc     MSVCRTD:dll_dllmain.obj
 0002:000009c4       $unwind$?dllmain_crt_process_detach@@YAH_N@Z 00000001004059c4     MSVCRTD:dll_dllmain.obj
 0002:000009f4       $unwind$?fin$0@?0??dllmain_crt_process_detach@@YAH_N@Z@4HA 00000001004059f4     MSVCRTD:dll_dllmain.obj
 0002:000009fc       $unwind$?fin$1@?0??dllmain_crt_process_detach@@YAH_N@Z@4HA 00000001004059fc     MSVCRTD:dll_dllmain.obj
 0002:00000a04       $unwind$?dllmain_crt_dispatch@@YAHQEAUHINSTANCE__@@KQEAX@Z 0000000100405a04     MSVCRTD:dll_dllmain.obj
 0002:00000a0c       $unwind$_CRT_INIT          0000000100405a0c     MSVCRTD:dll_dllmain.obj
 0002:00000a14       $unwind$?dllmain_raw@@YAHQEAUHINSTANCE__@@KQEAX@Z 0000000100405a14     MSVCRTD:dll_dllmain.obj
 0002:00000a1c       $unwind$?dllmain_dispatch@@YAHQEAUHINSTANCE__@@KQEAX@Z 0000000100405a1c     MSVCRTD:dll_dllmain.obj
 0002:00000a3c       $unwind$?filt$0@?0??dllmain_dispatch@@YAHQEAUHINSTANCE__@@KQEAX@Z@4HA 0000000100405a3c     MSVCRTD:dll_dllmain.obj
 0002:00000a44       $unwind$_DllMainCRTStartup 0000000100405a44     MSVCRTD:dll_dllmain.obj
 0002:00000a4c       $unwind$__report_securityfailure 0000000100405a4c     MSVCRTD:gs_report.obj
 0002:00000a54       $unwind$__report_securityfailureEx 0000000100405a54     MSVCRTD:gs_report.obj
 0002:00000a5c       $unwind$__report_rangecheckfailure 0000000100405a5c     MSVCRTD:gs_report.obj
 0002:00000a64       $unwind$__report_gsfailure 0000000100405a64     MSVCRTD:gs_report.obj
 0002:00000a6c       $unwind$capture_current_context 0000000100405a6c     MSVCRTD:gs_report.obj
 0002:00000a74       $unwind$capture_previous_context 0000000100405a74     MSVCRTD:gs_report.obj
 0002:00000a7c       $unwind$__raise_securityfailure 0000000100405a7c     MSVCRTD:gs_report.obj
 0002:00000a84       $unwind$__GSHandlerCheckCommon 0000000100405a84     MSVCRTD:gshandler.obj
 0002:00000a8c       $unwind$__GSHandlerCheck   0000000100405a8c     MSVCRTD:gshandler.obj
 0002:00000a98       $xdatasym                  0000000100405a98     MSVCRTD:amdsecgs.obj
 0002:00000a9c       $unwind$__security_init_cookie 0000000100405a9c     MSVCRTD:gs_support.obj
 0002:00000aa4       $unwind$__get_entropy      0000000100405aa4     MSVCRTD:gs_support.obj
 0002:00000aac       $unwind$DllMain            0000000100405aac     MSVCRTD:dll_dllmain_stub.obj
 0002:00000ab4       $unwind$?__scrt_initialize_type_info@@YAXXZ 0000000100405ab4     MSVCRTD:tncleanup.obj
 0002:00000abc       $unwind$?__scrt_uninitialize_type_info@@YAXXZ 0000000100405abc     MSVCRTD:tncleanup.obj
 0002:00000ac4       $unwind$__scrt_initialize_default_local_stdio_options 0000000100405ac4     MSVCRTD:default_local_stdio_options.obj
 0002:00000acc       $unwind$atexit             0000000100405acc     MSVCRTD:utility.obj
 0002:00000ad4       $unwind$_onexit            0000000100405ad4     MSVCRTD:utility.obj
 0002:00000adc       $unwind$at_quick_exit      0000000100405adc     MSVCRTD:utility.obj
 0002:00000ae4       $unwind$__scrt_is_nonwritable_in_current_image 0000000100405ae4     MSVCRTD:utility.obj
 0002:00000b04       $unwind$__scrt_is_nonwritable_in_current_image$filt$0 0000000100405b04     MSVCRTD:utility.obj
 0002:00000b0c       $unwind$__scrt_acquire_startup_lock 0000000100405b0c     MSVCRTD:utility.obj
 0002:00000b14       $unwind$__scrt_release_startup_lock 0000000100405b14     MSVCRTD:utility.obj
 0002:00000b1c       $unwind$__scrt_initialize_crt 0000000100405b1c     MSVCRTD:utility.obj
 0002:00000b24       $unwind$__scrt_uninitialize_crt 0000000100405b24     MSVCRTD:utility.obj
 0002:00000b2c       $unwind$__scrt_initialize_onexit_tables 0000000100405b2c     MSVCRTD:utility.obj
 0002:00000b38       $unwind$__scrt_dllmain_exception_filter 0000000100405b38     MSVCRTD:utility.obj
 0002:00000b40       $unwind$__scrt_dllmain_before_initialize_c 0000000100405b40     MSVCRTD:utility.obj
 0002:00000b48       $unwind$__scrt_dllmain_after_initialize_c 0000000100405b48     MSVCRTD:utility.obj
 0002:00000b50       $unwind$__scrt_dllmain_uninitialize_c 0000000100405b50     MSVCRTD:utility.obj
 0002:00000b58       $unwind$__scrt_dllmain_uninitialize_critical 0000000100405b58     MSVCRTD:utility.obj
 0002:00000b60       $unwind$__scrt_dllmain_crt_thread_attach 0000000100405b60     MSVCRTD:utility.obj
 0002:00000b68       $unwind$__scrt_dllmain_crt_thread_detach 0000000100405b68     MSVCRTD:utility.obj
 0002:00000b70       $unwind$?configure_argv@__scrt_narrow_argv_policy@@SAHXZ 0000000100405b70     MSVCRTD:utility.obj
 0002:00000b78       $unwind$?initialize_environment@__scrt_narrow_environment_policy@@SAHXZ 0000000100405b78     MSVCRTD:utility.obj
 0002:00000b80       $unwind$?is_potentially_valid_image_base@@YA_NQEAX@Z 0000000100405b80     MSVCRTD:utility.obj
 0002:00000b88       $unwind$?find_pe_section@@YAPEAU_IMAGE_SECTION_HEADER@@QEAE_K@Z 0000000100405b88     MSVCRTD:utility.obj
 0002:00000b90       $unwind$__scrt_get_show_window_mode 0000000100405b90     MSVCRTD:utility_desktop.obj
 0002:00000b9c       $unwind$__scrt_is_managed_app 0000000100405b9c     MSVCRTD:utility_desktop.obj
 0002:00000ba4       $unwind$__scrt_initialize_mta 0000000100405ba4     MSVCRTD:utility_desktop.obj
 0002:00000bac       $unwind$__scrt_set_unhandled_exception_filter 0000000100405bac     MSVCRTD:utility_desktop.obj
 0002:00000bb4       $unwind$__scrt_fastfail    0000000100405bb4     MSVCRTD:utility_desktop.obj
 0002:00000bc0       $unwind$__scrt_unhandled_exception_filter 0000000100405bc0     MSVCRTD:utility_desktop.obj
 0002:00000bc8       $unwind$_RTC_Initialize    0000000100405bc8     MSVCRTD:initsect.obj
 0002:00000bd4       $unwind$_RTC_Terminate     0000000100405bd4     MSVCRTD:initsect.obj
 0002:00000be0       $unwind$ReadNoFence64      0000000100405be0     MSVCRTD:guard_support.obj
 0002:00000be8       $unwind$ReadPointerNoFence 0000000100405be8     MSVCRTD:guard_support.obj
 0002:00000bf0       $unwind$_guard_icall_checks_enforced 0000000100405bf0     MSVCRTD:guard_support.obj
 0002:00000bf8       $unwind$__castguard_compat_check 0000000100405bf8     MSVCRTD:guard_support.obj
 0002:00000c00       $unwind$__castguard_check_failure_os_handled_wrapper 0000000100405c00     MSVCRTD:guard_support.obj
 0002:00000c08       $unwind$__castguard_check_failure_debugbreak 0000000100405c08     MSVCRTD:guard_support.obj
 0002:00000c10       $unwind$__castguard_check_failure_fastfail 0000000100405c10     MSVCRTD:guard_support.obj
 0002:00000c18       $unwind$__castguard_check_failure_os_handled 0000000100405c18     MSVCRTD:guard_support.obj
 0002:00000c20       $unwind$__castguard_slow_path_compat_check 0000000100405c20     MSVCRTD:guard_support.obj
 0002:00000c28       $unwind$__castguard_slow_path_check_debugbreak 0000000100405c28     MSVCRTD:guard_support.obj
 0002:00000c30       $unwind$__castguard_slow_path_check_fastfail 0000000100405c30     MSVCRTD:guard_support.obj
 0002:00000c38       $unwind$__castguard_slow_path_check_os_handled 0000000100405c38     MSVCRTD:guard_support.obj
 0002:00000c40       $unwind$__isa_available_init 0000000100405c40     MSVCRTD:cpu_disp.obj
 0002:00000c50       $unwind$__scrt_is_ucrt_dll_in_use 0000000100405c50     MSVCRTD:ucrt_detection.obj
 0002:00000c58       $xdatasym                  0000000100405c58     MSVCRTD:guard_dispatch.obj
 0002:00000c60       $xdatasym                  0000000100405c60     MSVCRTD:guard_xfg_dispatch.obj
 0002:00000c70       .edata                     0000000100405c70     hdt1052c.exp
 0002:00000c98       rgpv                       0000000100405c98     hdt1052c.exp
 0002:00000ca4       rgszName                   0000000100405ca4     hdt1052c.exp
 0002:00000cb0       rgwOrd                     0000000100405cb0     hdt1052c.exp
 0002:00000cb6       szName                     0000000100405cb6     hdt1052c.exp
 0002:00000cc3       $N00001                    0000000100405cc3     hdt1052c.exp
 0002:00000cd8       $N00002                    0000000100405cd8     hdt1052c.exp
 0002:00000cef       $N00003                    0000000100405cef     hdt1052c.exp
 0002:00000fac       .idata$6                   0000000100405fac     hengine:hengine.dll
 0002:0000107e       .idata$6                   000000010040607e     hutil:hutil.dll
 0002:00001092       .idata$6                   0000000100406092     hsys:hsys.dll
 0002:00001126       .idata$6                   0000000100406126     vcruntimed:VCRUNTIME140D.dll
 0002:00001296       .idata$6                   0000000100406296     ucrtd:ucrtbased.dll
 0002:00001430       .idata$6                   0000000100406430     kernel32:KERNEL32.dll
 0003:00000000       con1052_immed              0000000100407000     con1052c.obj
 0003:00000100       con1052_device_hndinfo     0000000100407100     con1052c.obj
 0003:000001c8       $SG177510                  00000001004071c8     con1052c.obj
 0003:000001cc       $SG177516                  00000001004071cc     con1052c.obj
 0003:000001d0       $SG177517                  00000001004071d0     con1052c.obj
 0003:000001dc       $SG177547                  00000001004071dc     con1052c.obj
 0003:000001e0       $SG177519                  00000001004071e0     con1052c.obj
 0003:00000200       $SG177550                  0000000100407200     con1052c.obj
 0003:0000020c       $SG177553                  000000010040720c     con1052c.obj
 0003:00000210       $SG177554                  0000000100407210     con1052c.obj
 0003:00000250       $SG177555                  0000000100407250     con1052c.obj
 0003:00000268       $SG177556                  0000000100407268     con1052c.obj
 0003:00000274       $SG177559                  0000000100407274     con1052c.obj
 0003:00000278       $SG177561                  0000000100407278     con1052c.obj
 0003:00000290       $SG177560                  0000000100407290     con1052c.obj
 0003:000002d4       $SG177655                  00000001004072d4     con1052c.obj
 0003:000002d8       $SG177562                  00000001004072d8     con1052c.obj
 0003:000002e4       $SG177585                  00000001004072e4     con1052c.obj
 0003:000002ec       $SG177666                  00000001004072ec     con1052c.obj
 0003:000002f0       $SG177586                  00000001004072f0     con1052c.obj
 0003:00000308       $SG177587                  0000000100407308     con1052c.obj
 0003:00000318       $SG177588                  0000000100407318     con1052c.obj
 0003:00000328       $SG177591                  0000000100407328     con1052c.obj
 0003:00000338       $SG177592                  0000000100407338     con1052c.obj
 0003:00000348       $SG177593                  0000000100407348     con1052c.obj
 0003:00000358       $SG177648                  0000000100407358     con1052c.obj
 0003:00000360       $SG177649                  0000000100407360     con1052c.obj
 0003:00000378       $SG177650                  0000000100407378     con1052c.obj
 0003:00000388       $SG177656                  0000000100407388     con1052c.obj
 0003:000003b8       $SG177657                  00000001004073b8     con1052c.obj
 0003:000003d0       $SG177658                  00000001004073d0     con1052c.obj
 0003:000003e0       $SG177659                  00000001004073e0     con1052c.obj
 0003:000003f0       $SG177660                  00000001004073f0     con1052c.obj
 0003:00000400       $SG177661                  0000000100407400     con1052c.obj
 0003:00000410       $SG177667                  0000000100407410     con1052c.obj
 0003:00000430       $SG177668                  0000000100407430     con1052c.obj
 0003:00000448       $SG177669                  0000000100407448     con1052c.obj
 0003:00000458       $SG177712                  0000000100407458     con1052c.obj
 0003:00000464       $SG177716                  0000000100407464     con1052c.obj
 0003:00000470       $SG177713                  0000000100407470     con1052c.obj
 0003:0000047c       $SG177719                  000000010040747c     con1052c.obj
 0003:00000488       $SG177715                  0000000100407488     con1052c.obj
 0003:00000494       $SG177724                  0000000100407494     con1052c.obj
 0003:000004a0       $SG177718                  00000001004074a0     con1052c.obj
 0003:000004a8       $SG177725                  00000001004074a8     con1052c.obj
 0003:000004b0       $SG177731                  00000001004074b0     con1052c.obj
 0003:00000500       used_pfxs                  0000000100407500     con1052c.obj
 0003:00000516       $SG177518                  0000000100407516     con1052c.obj
 0003:00000517       $SG177545                  0000000100407517     con1052c.obj
 0003:00000518       $SG177584                  0000000100407518     con1052c.obj
 0003:0000051c       ?__proc_attached@@3HA      000000010040751c     MSVCRTD:dll_dllmain.obj
 0003:00000520       GS_ExceptionRecord         0000000100407520     MSVCRTD:gs_report.obj
 0003:000005c0       GS_ContextRecord           00000001004075c0     MSVCRTD:gs_report.obj
 0003:00000ac0       ?is_initialized_as_dll@@3_NA 0000000100407ac0     MSVCRTD:utility.obj
 0003:00000ac1       ?module_local_atexit_table_initialized@@3_NA 0000000100407ac1     MSVCRTD:utility.obj
 0003:00000ac8       ?module_local_atexit_table@@3U_onexit_table_t@@A 0000000100407ac8     MSVCRTD:utility.obj
 0003:00000ae0       ?module_local_at_quick_exit_table@@3U_onexit_table_t@@A 0000000100407ae0     MSVCRTD:utility.obj
 0005:000002d0       $R000000                   00000001004092d0     hercprod.res
 0005:00000878       $R0005A8                   0000000100409878     hercprod.res
 0005:000009a0       $R0006D0                   00000001004099a0     hercprod.res
 0005:00000f08       $R000C38                   0000000100409f08     hercprod.res
 0005:00001370       $R0010A0                   000000010040a370     hercprod.res
 0005:00001658       $R001388                   000000010040a658     hercprod.res
 0005:00001f00       $R001C30                   000000010040af00     hercprod.res
 0005:00002fa8       $R002CD8                   000000010040bfa8     hercprod.res
 0005:00003610       $R003340                   000000010040c610     hercprod.res
 0005:000044b8       $R0041E8                   000000010040d4b8     hercprod.res
 0005:00006a60       $R006790                   000000010040fa60     hercprod.res
 0005:0000ff08       $R00FC38                   0000000100418f08     hercprod.res
 0005:00013bc8       $R0138F8                   000000010041cbc8     hercprod.res
