 hdt3270

 Timestamp is 63de2793 (Sat Feb  4 10:38:27 2023)

 Preferred load address is 0000000100400000

 Start         Length     Name                   Class
 0001:00000000 000040a0H .text                   CODE
 0001:000040a0 000129f0H .text$mn                CODE
 0001:00016a90 00000040H .text$mn$00             CODE
 0001:00016ad0 00000100H .text$x                 CODE
 0002:00000000 00000538H .idata$5                DATA
 0002:00000538 00000038H .00cfg                  DATA
 0002:00000570 00000008H .CRT$XCA                DATA
 0002:00000578 00000008H .CRT$XCZ                DATA
 0002:00000580 00000008H .CRT$XIA                DATA
 0002:00000588 00000008H .CRT$XIC                DATA
 0002:00000590 00000008H .CRT$XIZ                DATA
 0002:00000598 00000008H .CRT$XPA                DATA
 0002:000005a0 00000008H .CRT$XPZ                DATA
 0002:000005a8 00000008H .CRT$XTA                DATA
 0002:000005b0 00000010H .CRT$XTZ                DATA
 0002:000005b8 00000000H .gehcont$y              DATA
 0002:000005b8 00000000H .gfids$y                DATA
 0002:000005c0 000019c0H .rdata                  DATA
 0002:00001f80 00000080H .rdata$CastGuardVftablesA DATA
 0002:00002000 00000080H .rdata$CastGuardVftablesC DATA
 0002:00002080 00000138H .rdata$voltmd           DATA
 0002:000021b8 00000358H .rdata$zzzdbg           DATA
 0002:00002510 00000008H .rtc$IAA                DATA
 0002:00002518 00000008H .rtc$IMZ                DATA
 0002:00002520 00000008H .rtc$IZZ                DATA
 0002:00002528 00000008H .rtc$TAA                DATA
 0002:00002530 00000008H .rtc$TMZ                DATA
 0002:00002538 00000008H .rtc$TZZ                DATA
 0002:00002540 00001460H .xdata                  DATA
 0002:000039a0 00000074H .edata                  DATA
 0002:00003a14 0000008cH .idata$2                DATA
 0002:00003aa0 00000018H .idata$3                DATA
 0002:00003ab8 00000538H .idata$4                DATA
 0002:00003ff0 00000aeaH .idata$6                DATA
 0003:00000000 00004690H .data                   DATA
 0003:00004690 00000708H .bss                    DATA
 0004:00000000 000011f4H .pdata                  DATA
 0005:00000000 000002d0H .rsrc$01                DATA
 0005:000002d0 00013998H .rsrc$02                DATA

  Address         Publics by Value              Rva+Base               Lib:Object

 0000:00000000       __AbsoluteZero             0000000000000000     <absolute>
 0000:00000000       ___safe_se_handler_count   0000000000000000     <absolute>
 0000:00000000       ___safe_se_handler_table   0000000000000000     <absolute>
 0000:00000000       __arm64x_extra_rfe_table   0000000000000000     <absolute>
 0000:00000000       __arm64x_extra_rfe_table_size 0000000000000000     <absolute>
 0000:00000000       __arm64x_native_entrypoint 0000000000000000     <absolute>
 0000:00000000       __arm64x_redirection_metadata 0000000000000000     <absolute>
 0000:00000000       __arm64x_redirection_metadata_count 0000000000000000     <absolute>
 0000:00000000       __dynamic_value_reloc_table 0000000000000000     <absolute>
 0000:00000000       __enclave_config           0000000000000000     <absolute>
 0000:00000000       __guard_check_icall_a64n_fptr 0000000000000000     <absolute>
 0000:00000000       __guard_eh_cont_count      0000000000000000     <absolute>
 0000:00000000       __guard_eh_cont_table      0000000000000000     <absolute>
 0000:00000000       __guard_fids_count         0000000000000000     <absolute>
 0000:00000000       __guard_fids_table         0000000000000000     <absolute>
 0000:00000000       __guard_iat_count          0000000000000000     <absolute>
 0000:00000000       __guard_iat_table          0000000000000000     <absolute>
 0000:00000000       __guard_longjmp_count      0000000000000000     <absolute>
 0000:00000000       __guard_longjmp_table      0000000000000000     <absolute>
 0000:00000000       __hybrid_auxiliary_iat     0000000000000000     <absolute>
 0000:00000000       __hybrid_auxiliary_iat_copy 0000000000000000     <absolute>
 0000:00000000       __hybrid_code_map          0000000000000000     <absolute>
 0000:00000000       __hybrid_code_map_count    0000000000000000     <absolute>
 0000:00000000       __x64_code_ranges_to_entry_points 0000000000000000     <absolute>
 0000:00000000       __x64_code_ranges_to_entry_points_count 0000000000000000     <absolute>
 0000:00000100       __guard_flags              0000000000000100     <absolute>
 0000:00000000       __ImageBase                0000000100400000     <linker-defined>
 0001:00000000       telnet_init                0000000100401000 f   telnet64d:telnet.c.obj
 0001:00000190       telnet_free                0000000100401190 f   telnet64d:telnet.c.obj
 0001:00000240       telnet_negotiate           0000000100401240 f   telnet64d:telnet.c.obj
 0001:00000b50       telnet_recv                0000000100401b50 f   telnet64d:telnet.c.obj
 0001:000029f0       telnet_iac                 00000001004039f0 f   telnet64d:telnet.c.obj
 0001:00002a60       telnet_3270_cmd            0000000100403a60 f   telnet64d:telnet.c.obj
 0001:00002ad0       telnet_send                0000000100403ad0 f   telnet64d:telnet.c.obj
 0001:00002bc0       telnet_send_one_shot       0000000100403bc0 f   telnet64d:telnet.c.obj
 0001:00002d50       telnet_begin_sb            0000000100403d50 f   telnet64d:telnet.c.obj
 0001:00002dc0       telnet_subnegotiation      0000000100403dc0 f   telnet64d:telnet.c.obj
 0001:00002e90       telnet_vprintf             0000000100403e90 f   telnet64d:telnet.c.obj
 0001:00003240       telnet_printf              0000000100404240 f   telnet64d:telnet.c.obj
 0001:000032d0       telnet_raw_vprintf         00000001004042d0 f   telnet64d:telnet.c.obj
 0001:000034c0       telnet_raw_printf          00000001004044c0 f   telnet64d:telnet.c.obj
 0001:00003550       telnet_begin_newenviron    0000000100404550 f   telnet64d:telnet.c.obj
 0001:000035b0       telnet_newenviron_value    00000001004045b0 f   telnet64d:telnet.c.obj
 0001:00003630       telnet_ttype_send          0000000100404630 f   telnet64d:telnet.c.obj
 0001:00003680       telnet_ttype_is            0000000100404680 f   telnet64d:telnet.c.obj
 0001:00003700       telnet_cmd_name            0000000100404700 f   telnet64d:telnet.c.obj
 0001:00003930       telnet_opt_name            0000000100404930 f   telnet64d:telnet.c.obj
 0001:00003c30       telnet_evt_name            0000000100404c30 f   telnet64d:telnet.c.obj
 0001:00003d50       telnet_err_name            0000000100404d50 f   telnet64d:telnet.c.obj
 0001:00003e00       telnet_closesocket         0000000100404e00 f   telnet64d:telnet.c.obj
 0001:0000f8d0       hdl_check_depends_ep       00000001004108d0 f   console.obj
 0001:0000f970       hdl_define_devtypes_ep     0000000100410970 f   console.obj
 0001:0000f9e0       __local_stdio_printf_options 00000001004109e0 f i console.obj
 0001:0000f9f0       __local_stdio_scanf_options 00000001004109f0 f i console.obj
 0001:0000fa00       _vsnprintf_s               0000000100410a00 f i console.obj
 0001:0000fa50       _vsnprintf_s_l             0000000100410a50 f i console.obj
 0001:0000fad0       _vsscanf_l                 0000000100410ad0 f i console.obj
 0001:0000fb20       fetch_dw_noswap            0000000100410b20 f i console.obj
 0001:0000fb40       fetch_fw_noswap            0000000100410b40 f i console.obj
 0001:0000fb60       fetch_hw_noswap            0000000100410b60 f i console.obj
 0001:0000fb80       sscanf                     0000000100410b80 f i console.obj
 0001:0000fbd0       store_dw_noswap            0000000100410bd0 f i console.obj
 0001:0000fbf0       store_fw_noswap            0000000100410bf0 f i console.obj
 0001:0000fc10       store_hw_noswap            0000000100410c10 f i console.obj
 0001:0000fc28       readlogo                   0000000100410c28 f   hengine:hengine.dll
 0001:0000fc2e       sclp_sysg_attention        0000000100410c2e f   hengine:hengine.dll
 0001:0000fc34       device_attention           0000000100410c34 f   hengine:hengine.dll
 0001:0000fc3a       Dequeue_IO_Interrupt       0000000100410c3a f   hengine:hengine.dll
 0001:0000fc40       fthread_self               0000000100410c40 f   hutil:hutil.dll
 0001:0000fc46       hthread_obtain_lock        0000000100410c46 f   hutil:hutil.dll
 0001:0000fc4c       hthread_try_obtain_lock    0000000100410c4c f   hutil:hutil.dll
 0001:0000fc52       hthread_release_lock       0000000100410c52 f   hutil:hutil.dll
 0001:0000fc58       hthread_create_thread      0000000100410c58 f   hutil:hutil.dll
 0001:0000fc5e       hthread_join_thread        0000000100410c5e f   hutil:hutil.dll
 0001:0000fc64       hthread_set_thread_prio    0000000100410c64 f   hutil:hutil.dll
 0001:0000fc6a       hthread_get_thread_prio    0000000100410c6a f   hutil:hutil.dll
 0001:0000fc70       init_hostinfo              0000000100410c70 f   hutil:hutil.dll
 0001:0000fc76       get_symbol                 0000000100410c76 f   hutil:hutil.dll
 0001:0000fc7c       resolve_symbol_string      0000000100410c7c f   hutil:hutil.dll
 0001:0000fc82       set_symbol                 0000000100410c82 f   hutil:hutil.dll
 0001:0000fc88       strlcpy                    0000000100410c88 f   hutil:hutil.dll
 0001:0000fc8e       timeval_subtract           0000000100410c8e f   hutil:hutil.dll
 0001:0000fc94       w32_strerror               0000000100410c94 f   hutil:hutil.dll
 0001:0000fc9a       strtok_r                   0000000100410c9a f   hutil:hutil.dll
 0001:0000fca0       gettimeofday               0000000100410ca0 f   hutil:hutil.dll
 0001:0000fca6       usleep                     0000000100410ca6 f   hutil:hutil.dll
 0001:0000fcac       sleep                      0000000100410cac f   hutil:hutil.dll
 0001:0000fcb2       sched_yield                0000000100410cb2 f   hutil:hutil.dll
 0001:0000fcb8       hostpath                   0000000100410cb8 f   hutil:hutil.dll
 0001:0000fcbe       socket_set_blocking_mode   0000000100410cbe f   hutil:hutil.dll
 0001:0000fcc4       set_socket_keepalive       0000000100410cc4 f   hutil:hutil.dll
 0001:0000fcca       w32_socket                 0000000100410cca f   hutil:hutil.dll
 0001:0000fcd0       w32_accept                 0000000100410cd0 f   hutil:hutil.dll
 0001:0000fcd6       w32_close_socket           0000000100410cd6 f   hutil:hutil.dll
 0001:0000fcdc       w32_FD_SET                 0000000100410cdc f   hutil:hutil.dll
 0001:0000fce2       w32_FD_ISSET               0000000100410ce2 f   hutil:hutil.dll
 0001:0000fce8       w32_pselect                0000000100410ce8 f   hutil:hutil.dll
 0001:0000fcee       w32_fwrite                 0000000100410cee f   hutil:hutil.dll
 0001:0000fcf4       w32_snprintf               0000000100410cf4 f   hutil:hutil.dll
 0001:0000fcfa       w32_basename               0000000100410cfa f   hutil:hutil.dll
 0001:0000fd00       guest_to_host              0000000100410d00 f   hutil:hutil.dll
 0001:0000fd06       prt_host_to_guest          0000000100410d06 f   hutil:hutil.dll
 0001:0000fd0c       write_socket               0000000100410d0c f   hutil:hutil.dll
 0001:0000fd12       disable_nagle              0000000100410d12 f   hutil:hutil.dll
 0001:0000fd18       fwritemsg                  0000000100410d18 f   hutil:hutil.dll
 0001:0000fd1e       logmsg                     0000000100410d1e f   hutil:hutil.dll
 0001:0000fd24       IsDebuggerPresent          0000000100410d24 f   kernel32:KERNEL32.dll
 0001:0000fd2a       OutputDebugStringA         0000000100410d2a f   kernel32:KERNEL32.dll
 0001:0000fd30       bind                       0000000100410d30 f   ws2_32:WS2_32.dll
 0001:0000fd36       getpeername                0000000100410d36 f   ws2_32:WS2_32.dll
 0001:0000fd3c       htons                      0000000100410d3c f   ws2_32:WS2_32.dll
 0001:0000fd42       inet_addr                  0000000100410d42 f   ws2_32:WS2_32.dll
 0001:0000fd48       inet_ntoa                  0000000100410d48 f   ws2_32:WS2_32.dll
 0001:0000fd4e       listen                     0000000100410d4e f   ws2_32:WS2_32.dll
 0001:0000fd54       ntohs                      0000000100410d54 f   ws2_32:WS2_32.dll
 0001:0000fd5a       recv                       0000000100410d5a f   ws2_32:WS2_32.dll
 0001:0000fd60       send                       0000000100410d60 f   ws2_32:WS2_32.dll
 0001:0000fd66       setsockopt                 0000000100410d66 f   ws2_32:WS2_32.dll
 0001:0000fd6c       gethostbyname              0000000100410d6c f   ws2_32:WS2_32.dll
 0001:0000fd72       getservbyname              0000000100410d72 f   ws2_32:WS2_32.dll
 0001:0000fd78       WSASetLastError            0000000100410d78 f   ws2_32:WS2_32.dll
 0001:0000fd7e       WSAGetLastError            0000000100410d7e f   ws2_32:WS2_32.dll
 0001:0000fd84       inet_pton                  0000000100410d84 f   ws2_32:WS2_32.dll
 0001:0000fd8a       inet_ntop                  0000000100410d8a f   ws2_32:WS2_32.dll
 0001:0000fd90       closesocket                0000000100410d90 f   ws2_32:WS2_32.dll
 0001:0000fd96       shutdown                   0000000100410d96 f   ws2_32:WS2_32.dll
 0001:0000fd9c       select                     0000000100410d9c f   ws2_32:WS2_32.dll
 0001:000101c0       _CRT_INIT                  00000001004111c0 f   MSVCRTD:dll_dllmain.obj
 0001:000101f0       _DllMainCRTStartup         00000001004111f0 f   MSVCRTD:dll_dllmain.obj
 0001:00010230       __raise_securityfailure    0000000100411230 f   MSVCRTD:gs_report.obj
 0001:00010270       __report_gsfailure         0000000100411270 f   MSVCRTD:gs_report.obj
 0001:00010350       __report_rangecheckfailure 0000000100411350 f   MSVCRTD:gs_report.obj
 0001:00010370       __report_securityfailure   0000000100411370 f   MSVCRTD:gs_report.obj
 0001:00010410       __report_securityfailureEx 0000000100411410 f   MSVCRTD:gs_report.obj
 0001:00010680       __GSHandlerCheck           0000000100411680 f   MSVCRTD:gshandler.obj
 0001:000106c0       __GSHandlerCheckCommon     00000001004116c0 f   MSVCRTD:gshandler.obj
 0001:000107d0       __chkstk                   00000001004117d0 f   MSVCRTD:chkstk.obj
 0001:000107d0       _alloca_probe              00000001004117d0 f   MSVCRTD:chkstk.obj
 0001:00010830       __security_check_cookie    0000000100411830 f   MSVCRTD:amdsecgs.obj
 0001:00010850       _CRT_RTC_INIT              0000000100411850 f   MSVCRTD:init.obj
 0001:00010860       _CRT_RTC_INITW             0000000100411860 f   MSVCRTD:init.obj
 0001:00010870       _RTC_InitBase              0000000100411870 f   MSVCRTD:init.obj
 0001:000108b0       _RTC_Shutdown              00000001004118b0 f   MSVCRTD:init.obj
 0001:000108e0       _RTC_AllocaHelper          00000001004118e0 f   MSVCRTD:stack.obj
 0001:00010920       _RTC_CheckStackVars        0000000100411920 f   MSVCRTD:stack.obj
 0001:000109b0       _RTC_CheckStackVars2       00000001004119b0 f   MSVCRTD:stack.obj
 0001:00010b80       __security_init_cookie     0000000100411b80 f   MSVCRTD:gs_support.obj
 0001:00010c00       DllMain                    0000000100411c00 f   MSVCRTD:dll_dllmain_stub.obj
 0001:00010c40       ?__scrt_initialize_type_info@@YAXXZ 0000000100411c40 f   MSVCRTD:tncleanup.obj
 0001:00010c60       ?__scrt_uninitialize_type_info@@YAXXZ 0000000100411c60 f   MSVCRTD:tncleanup.obj
 0001:00010c80       __scrt_initialize_default_local_stdio_options 0000000100411c80 f   MSVCRTD:default_local_stdio_options.obj
 0001:00010cd0       ?configure_argv@__scrt_narrow_argv_policy@@SAHXZ 0000000100411cd0 f i MSVCRTD:utility.obj
 0001:00010dc0       ?initialize_environment@__scrt_narrow_environment_policy@@SAHXZ 0000000100411dc0 f i MSVCRTD:utility.obj
 0001:00010e60       NtCurrentTeb               0000000100411e60 f i MSVCRTD:utility.obj
 0001:00010e70       __scrt_acquire_startup_lock 0000000100411e70 f   MSVCRTD:utility.obj
 0001:00010ee0       __scrt_dllmain_after_initialize_c 0000000100411ee0 f   MSVCRTD:utility.obj
 0001:00010f10       __scrt_dllmain_before_initialize_c 0000000100411f10 f   MSVCRTD:utility.obj
 0001:00010f30       __scrt_dllmain_crt_thread_attach 0000000100411f30 f   MSVCRTD:utility.obj
 0001:00010f60       __scrt_dllmain_crt_thread_detach 0000000100411f60 f   MSVCRTD:utility.obj
 0001:00010f80       __scrt_dllmain_exception_filter 0000000100411f80 f   MSVCRTD:utility.obj
 0001:00010ff0       __scrt_dllmain_uninitialize_c 0000000100411ff0 f   MSVCRTD:utility.obj
 0001:00011020       __scrt_dllmain_uninitialize_critical 0000000100412020 f   MSVCRTD:utility.obj
 0001:00011040       __scrt_initialize_crt      0000000100412040 f   MSVCRTD:utility.obj
 0001:00011090       __scrt_initialize_onexit_tables 0000000100412090 f   MSVCRTD:utility.obj
 0001:000111a0       __scrt_is_nonwritable_in_current_image 00000001004121a0 f   MSVCRTD:utility.obj
 0001:00011230       __scrt_release_startup_lock 0000000100412230 f   MSVCRTD:utility.obj
 0001:00011260       __scrt_uninitialize_crt    0000000100412260 f   MSVCRTD:utility.obj
 0001:000112a0       _onexit                    00000001004122a0 f   MSVCRTD:utility.obj
 0001:00011320       at_quick_exit              0000000100412320 f   MSVCRTD:utility.obj
 0001:00011370       atexit                     0000000100412370 f   MSVCRTD:utility.obj
 0001:000113b0       __scrt_get_dyn_tls_init_callback 00000001004123b0 f   MSVCRTD:dyn_tls_init.obj
 0001:000113c0       __crt_debugger_hook        00000001004123c0 f   MSVCRTD:utility_desktop.obj
 0001:000113d0       __scrt_fastfail            00000001004123d0 f   MSVCRTD:utility_desktop.obj
 0001:00011570       __scrt_get_show_window_mode 0000000100412570 f   MSVCRTD:utility_desktop.obj
 0001:000115d0       __scrt_initialize_mta      00000001004125d0 f   MSVCRTD:utility_desktop.obj
 0001:000115e0       __scrt_initialize_winrt    00000001004125e0 f   MSVCRTD:utility_desktop.obj
 0001:000115f0       __scrt_is_managed_app      00000001004125f0 f   MSVCRTD:utility_desktop.obj
 0001:000116a0       __scrt_set_unhandled_exception_filter 00000001004126a0 f   MSVCRTD:utility_desktop.obj
 0001:000116c0       __scrt_exe_initialize_mta  00000001004126c0 f   MSVCRTD:utility_desktop.obj
 0001:000116c0       __scrt_stub_for_initialize_mta 00000001004126c0 f   MSVCRTD:utility_desktop.obj
 0001:000116d0       __scrt_unhandled_exception_filter 00000001004126d0 f   MSVCRTD:utility_desktop.obj
 0001:00011770       _RTC_Initialize            0000000100412770 f   MSVCRTD:initsect.obj
 0001:000117c0       _RTC_Terminate             00000001004127c0 f   MSVCRTD:initsect.obj
 0001:00011810       _guard_check_icall_nop     0000000100412810 f i MSVCRTD:guard_support.obj
 0001:00011820       ReadNoFence64              0000000100412820 f i MSVCRTD:guard_support.obj
 0001:00011840       ReadPointerNoFence         0000000100412840 f i MSVCRTD:guard_support.obj
 0001:00011860       __castguard_check_failure_debugbreak 0000000100412860 f i MSVCRTD:guard_support.obj
 0001:00011880       __castguard_check_failure_fastfail 0000000100412880 f i MSVCRTD:guard_support.obj
 0001:000118b0       __castguard_check_failure_nop 00000001004128b0 f i MSVCRTD:guard_support.obj
 0001:000118c0       __castguard_check_failure_os_handled 00000001004128c0 f i MSVCRTD:guard_support.obj
 0001:00011990       __castguard_slow_path_check_debugbreak 0000000100412990 f i MSVCRTD:guard_support.obj
 0001:000119d0       __castguard_slow_path_check_fastfail 00000001004129d0 f i MSVCRTD:guard_support.obj
 0001:00011a20       __castguard_slow_path_check_nop 0000000100412a20 f i MSVCRTD:guard_support.obj
 0001:00011a30       __castguard_slow_path_check_os_handled 0000000100412a30 f i MSVCRTD:guard_support.obj
 0001:00011af0       _guard_icall_checks_enforced 0000000100412af0 f i MSVCRTD:guard_support.obj
 0001:00011b30       _guard_rf_checks_enforced  0000000100412b30 f i MSVCRTD:guard_support.obj
 0001:00011b40       ?_RTC_GetErrorFunc@@YAP6AHHPEBDH00ZZPEBX@Z 0000000100412b40 f   MSVCRTD:userapi.obj
 0001:00011b50       ?_RTC_GetErrorFuncW@@YAP6AHHPEB_WH00ZZPEBX@Z 0000000100412b50 f   MSVCRTD:userapi.obj
 0001:00011b60       _RTC_GetErrDesc            0000000100412b60 f   MSVCRTD:userapi.obj
 0001:00011b80       _RTC_NumErrors             0000000100412b80 f   MSVCRTD:userapi.obj
 0001:00011b90       _RTC_SetErrorFunc          0000000100412b90 f   MSVCRTD:userapi.obj
 0001:00011bb0       _RTC_SetErrorFuncW         0000000100412bb0 f   MSVCRTD:userapi.obj
 0001:00011bd0       _RTC_SetErrorType          0000000100412bd0 f   MSVCRTD:userapi.obj
 0001:00011c80       ?_RTC_AllocaFailure@@YAXPEAXPEAU_RTC_ALLOCA_NODE@@H@Z 0000000100412c80 f   MSVCRTD:error.obj
 0001:00011de0       ?_RTC_Failure@@YAXPEAXH@Z  0000000100412de0 f   MSVCRTD:error.obj
 0001:00011e30       ?_RTC_StackFailure@@YAXPEAXPEBD@Z 0000000100412e30 f   MSVCRTD:error.obj
 0001:00012260       _RTC_UninitUse             0000000100413260 f   MSVCRTD:error.obj
 0001:00012330       _vsprintf_s_l              0000000100413330 f i MSVCRTD:error.obj
 0001:000123a0       sprintf_s                  00000001004133a0 f i MSVCRTD:error.obj
 0001:000123d0       __isa_available_init       00000001004133d0 f   MSVCRTD:cpu_disp.obj
 0001:00012780       _get_startup_argv_mode     0000000100413780 f   MSVCRTD:argv_mode.obj
 0001:00012790       __scrt_is_ucrt_dll_in_use  0000000100413790 f   MSVCRTD:ucrt_detection.obj
 0001:00012ce0       ?_RTC_GetSrcLine@@YAHPEAEPEA_WKPEAH1K@Z 0000000100413ce0 f   MSVCRTD:pdblkup.obj
 0001:000130a8       _vfwprintf_l               00000001004140a8 f i legacy_stdio_definitions:legacy_stdio_definitions.obj
 0001:000130f8       vfwprintf                  00000001004140f8 f i legacy_stdio_definitions:legacy_stdio_definitions.obj
 0001:0001313c       _vfwprintf_s_l             000000010041413c f i legacy_stdio_definitions:legacy_stdio_definitions.obj
 0001:0001318c       vfwprintf_s                000000010041418c f i legacy_stdio_definitions:legacy_stdio_definitions.obj
 0001:000131d0       _vfwprintf_p_l             00000001004141d0 f i legacy_stdio_definitions:legacy_stdio_definitions.obj
 0001:00013220       _vfwprintf_p               0000000100414220 f i legacy_stdio_definitions:legacy_stdio_definitions.obj
 0001:00013264       _vwprintf_l                0000000100414264 f i legacy_stdio_definitions:legacy_stdio_definitions.obj
 0001:000132c0       vwprintf                   00000001004142c0 f i legacy_stdio_definitions:legacy_stdio_definitions.obj
 0001:00013310       _vwprintf_s_l              0000000100414310 f i legacy_stdio_definitions:legacy_stdio_definitions.obj
 0001:0001336c       vwprintf_s                 000000010041436c f i legacy_stdio_definitions:legacy_stdio_definitions.obj
 0001:000133bc       _vwprintf_p_l              00000001004143bc f i legacy_stdio_definitions:legacy_stdio_definitions.obj
 0001:00013418       _vwprintf_p                0000000100414418 f i legacy_stdio_definitions:legacy_stdio_definitions.obj
 0001:00013468       _fwprintf_l                0000000100414468 f i legacy_stdio_definitions:legacy_stdio_definitions.obj
 0001:000134ac       fwprintf                   00000001004144ac f i legacy_stdio_definitions:legacy_stdio_definitions.obj
 0001:000134f0       _fwprintf_s_l              00000001004144f0 f i legacy_stdio_definitions:legacy_stdio_definitions.obj
 0001:00013534       fwprintf_s                 0000000100414534 f i legacy_stdio_definitions:legacy_stdio_definitions.obj
 0001:00013578       _fwprintf_p_l              0000000100414578 f i legacy_stdio_definitions:legacy_stdio_definitions.obj
 0001:000135bc       _fwprintf_p                00000001004145bc f i legacy_stdio_definitions:legacy_stdio_definitions.obj
 0001:00013600       _wprintf_l                 0000000100414600 f i legacy_stdio_definitions:legacy_stdio_definitions.obj
 0001:00013650       wprintf                    0000000100414650 f i legacy_stdio_definitions:legacy_stdio_definitions.obj
 0001:000136a0       _wprintf_s_l               00000001004146a0 f i legacy_stdio_definitions:legacy_stdio_definitions.obj
 0001:000136f0       wprintf_s                  00000001004146f0 f i legacy_stdio_definitions:legacy_stdio_definitions.obj
 0001:00013740       _wprintf_p_l               0000000100414740 f i legacy_stdio_definitions:legacy_stdio_definitions.obj
 0001:00013790       _wprintf_p                 0000000100414790 f i legacy_stdio_definitions:legacy_stdio_definitions.obj
 0001:000137e0       _vfwscanf_l                00000001004147e0 f i legacy_stdio_definitions:legacy_stdio_definitions.obj
 0001:00013830       vfwscanf                   0000000100414830 f i legacy_stdio_definitions:legacy_stdio_definitions.obj
 0001:00013874       _vfwscanf_s_l              0000000100414874 f i legacy_stdio_definitions:legacy_stdio_definitions.obj
 0001:000138c8       vfwscanf_s                 00000001004148c8 f i legacy_stdio_definitions:legacy_stdio_definitions.obj
 0001:00013910       _vwscanf_l                 0000000100414910 f i legacy_stdio_definitions:legacy_stdio_definitions.obj
 0001:00013968       vwscanf                    0000000100414968 f i legacy_stdio_definitions:legacy_stdio_definitions.obj
 0001:000139b4       _vwscanf_s_l               00000001004149b4 f i legacy_stdio_definitions:legacy_stdio_definitions.obj
 0001:00013a10       vwscanf_s                  0000000100414a10 f i legacy_stdio_definitions:legacy_stdio_definitions.obj
 0001:00013a60       _fwscanf_l                 0000000100414a60 f i legacy_stdio_definitions:legacy_stdio_definitions.obj
 0001:00013aa4       fwscanf                    0000000100414aa4 f i legacy_stdio_definitions:legacy_stdio_definitions.obj
 0001:00013ae8       _fwscanf_s_l               0000000100414ae8 f i legacy_stdio_definitions:legacy_stdio_definitions.obj
 0001:00013b30       fwscanf_s                  0000000100414b30 f i legacy_stdio_definitions:legacy_stdio_definitions.obj
 0001:00013b78       _wscanf_l                  0000000100414b78 f i legacy_stdio_definitions:legacy_stdio_definitions.obj
 0001:00013bc4       wscanf                     0000000100414bc4 f i legacy_stdio_definitions:legacy_stdio_definitions.obj
 0001:00013c10       _wscanf_s_l                0000000100414c10 f i legacy_stdio_definitions:legacy_stdio_definitions.obj
 0001:00013c60       wscanf_s                   0000000100414c60 f i legacy_stdio_definitions:legacy_stdio_definitions.obj
 0001:00013cb0       _vsnwprintf_l              0000000100414cb0 f i legacy_stdio_definitions:legacy_stdio_definitions.obj
 0001:00013d18       _vsnwprintf_s_l            0000000100414d18 f i legacy_stdio_definitions:legacy_stdio_definitions.obj
 0001:00013d84       _vsnwprintf_s              0000000100414d84 f i legacy_stdio_definitions:legacy_stdio_definitions.obj
 0001:00013dec       _snwprintf                 0000000100414dec f i legacy_stdio_definitions:legacy_stdio_definitions.obj
 0001:00013e44       _vsnwprintf                0000000100414e44 f i legacy_stdio_definitions:legacy_stdio_definitions.obj
 0001:00013ea8       _vswprintf_c_l             0000000100414ea8 f i legacy_stdio_definitions:legacy_stdio_definitions.obj
 0001:00013f0c       _vswprintf_c               0000000100414f0c f i legacy_stdio_definitions:legacy_stdio_definitions.obj
 0001:00013f6c       _vswprintf_l               0000000100414f6c f i legacy_stdio_definitions:legacy_stdio_definitions.obj
 0001:00013fd0       __vswprintf_l              0000000100414fd0 f i legacy_stdio_definitions:legacy_stdio_definitions.obj
 0001:00014030       _vswprintf                 0000000100415030 f i legacy_stdio_definitions:legacy_stdio_definitions.obj
 0001:00014084       vswprintf                  0000000100415084 f i legacy_stdio_definitions:legacy_stdio_definitions.obj
 0001:000140e4       _vswprintf_s_l             00000001004150e4 f i legacy_stdio_definitions:legacy_stdio_definitions.obj
 0001:00014148       vswprintf_s                0000000100415148 f i legacy_stdio_definitions:legacy_stdio_definitions.obj
 0001:000141a8       _vswprintf_p_l             00000001004151a8 f i legacy_stdio_definitions:legacy_stdio_definitions.obj
 0001:0001420c       _vswprintf_p               000000010041520c f i legacy_stdio_definitions:legacy_stdio_definitions.obj
 0001:0001426c       _vscwprintf_l              000000010041526c f i legacy_stdio_definitions:legacy_stdio_definitions.obj
 0001:000142c0       _vscwprintf                00000001004152c0 f i legacy_stdio_definitions:legacy_stdio_definitions.obj
 0001:00014308       _vscwprintf_p_l            0000000100415308 f i legacy_stdio_definitions:legacy_stdio_definitions.obj
 0001:0001435c       _vscwprintf_p              000000010041535c f i legacy_stdio_definitions:legacy_stdio_definitions.obj
 0001:000143a4       __swprintf_l               00000001004153a4 f i legacy_stdio_definitions:legacy_stdio_definitions.obj
 0001:000143f8       _swprintf_l                00000001004153f8 f i legacy_stdio_definitions:legacy_stdio_definitions.obj
 0001:0001444c       _swprintf                  000000010041544c f i legacy_stdio_definitions:legacy_stdio_definitions.obj
 0001:000144a0       swprintf                   00000001004154a0 f i legacy_stdio_definitions:legacy_stdio_definitions.obj
 0001:000144f4       _swprintf_s_l              00000001004154f4 f i legacy_stdio_definitions:legacy_stdio_definitions.obj
 0001:00014548       swprintf_s                 0000000100415548 f i legacy_stdio_definitions:legacy_stdio_definitions.obj
 0001:0001459c       _swprintf_p_l              000000010041559c f i legacy_stdio_definitions:legacy_stdio_definitions.obj
 0001:000145f0       _swprintf_p                00000001004155f0 f i legacy_stdio_definitions:legacy_stdio_definitions.obj
 0001:00014644       _swprintf_c_l              0000000100415644 f i legacy_stdio_definitions:legacy_stdio_definitions.obj
 0001:00014698       _swprintf_c                0000000100415698 f i legacy_stdio_definitions:legacy_stdio_definitions.obj
 0001:000146ec       _snwprintf_l               00000001004156ec f i legacy_stdio_definitions:legacy_stdio_definitions.obj
 0001:00014744       _snwprintf_s_l             0000000100415744 f i legacy_stdio_definitions:legacy_stdio_definitions.obj
 0001:000147a4       _snwprintf_s               00000001004157a4 f i legacy_stdio_definitions:legacy_stdio_definitions.obj
 0001:00014800       _scwprintf_l               0000000100415800 f i legacy_stdio_definitions:legacy_stdio_definitions.obj
 0001:00014854       _scwprintf                 0000000100415854 f i legacy_stdio_definitions:legacy_stdio_definitions.obj
 0001:000148a8       _scwprintf_p_l             00000001004158a8 f i legacy_stdio_definitions:legacy_stdio_definitions.obj
 0001:000148fc       _scwprintf_p               00000001004158fc f i legacy_stdio_definitions:legacy_stdio_definitions.obj
 0001:00014950       _vswscanf_l                0000000100415950 f i legacy_stdio_definitions:legacy_stdio_definitions.obj
 0001:000149a8       vswscanf                   00000001004159a8 f i legacy_stdio_definitions:legacy_stdio_definitions.obj
 0001:000149f4       _vswscanf_s_l              00000001004159f4 f i legacy_stdio_definitions:legacy_stdio_definitions.obj
 0001:00014a50       vswscanf_s                 0000000100415a50 f i legacy_stdio_definitions:legacy_stdio_definitions.obj
 0001:00014aa0       _vsnwscanf_l               0000000100415aa0 f i legacy_stdio_definitions:legacy_stdio_definitions.obj
 0001:00014afc       _vsnwscanf_s_l             0000000100415afc f i legacy_stdio_definitions:legacy_stdio_definitions.obj
 0001:00014b5c       _swscanf_l                 0000000100415b5c f i legacy_stdio_definitions:legacy_stdio_definitions.obj
 0001:00014ba8       swscanf                    0000000100415ba8 f i legacy_stdio_definitions:legacy_stdio_definitions.obj
 0001:00014bf4       _swscanf_s_l               0000000100415bf4 f i legacy_stdio_definitions:legacy_stdio_definitions.obj
 0001:00014c44       swscanf_s                  0000000100415c44 f i legacy_stdio_definitions:legacy_stdio_definitions.obj
 0001:00014c94       _snwscanf_l                0000000100415c94 f i legacy_stdio_definitions:legacy_stdio_definitions.obj
 0001:00014ce0       _snwscanf                  0000000100415ce0 f i legacy_stdio_definitions:legacy_stdio_definitions.obj
 0001:00014d2c       _snwscanf_s_l              0000000100415d2c f i legacy_stdio_definitions:legacy_stdio_definitions.obj
 0001:00014d7c       _snwscanf_s                0000000100415d7c f i legacy_stdio_definitions:legacy_stdio_definitions.obj
 0001:00014dcc       _vfprintf_l                0000000100415dcc f i legacy_stdio_definitions:legacy_stdio_definitions.obj
 0001:00014e1c       vfprintf                   0000000100415e1c f i legacy_stdio_definitions:legacy_stdio_definitions.obj
 0001:00014e60       _vfprintf_s_l              0000000100415e60 f i legacy_stdio_definitions:legacy_stdio_definitions.obj
 0001:00014eb0       vfprintf_s                 0000000100415eb0 f i legacy_stdio_definitions:legacy_stdio_definitions.obj
 0001:00014ef4       _vfprintf_p_l              0000000100415ef4 f i legacy_stdio_definitions:legacy_stdio_definitions.obj
 0001:00014f44       _vfprintf_p                0000000100415f44 f i legacy_stdio_definitions:legacy_stdio_definitions.obj
 0001:00014f88       _vprintf_l                 0000000100415f88 f i legacy_stdio_definitions:legacy_stdio_definitions.obj
 0001:00014fe4       vprintf                    0000000100415fe4 f i legacy_stdio_definitions:legacy_stdio_definitions.obj
 0001:00015034       _vprintf_s_l               0000000100416034 f i legacy_stdio_definitions:legacy_stdio_definitions.obj
 0001:00015090       vprintf_s                  0000000100416090 f i legacy_stdio_definitions:legacy_stdio_definitions.obj
 0001:000150e0       _vprintf_p_l               00000001004160e0 f i legacy_stdio_definitions:legacy_stdio_definitions.obj
 0001:0001513c       _vprintf_p                 000000010041613c f i legacy_stdio_definitions:legacy_stdio_definitions.obj
 0001:0001518c       _fprintf_l                 000000010041618c f i legacy_stdio_definitions:legacy_stdio_definitions.obj
 0001:000151d0       fprintf                    00000001004161d0 f i legacy_stdio_definitions:legacy_stdio_definitions.obj
 0001:00015214       _fprintf_s_l               0000000100416214 f i legacy_stdio_definitions:legacy_stdio_definitions.obj
 0001:00015258       fprintf_s                  0000000100416258 f i legacy_stdio_definitions:legacy_stdio_definitions.obj
 0001:0001529c       _fprintf_p_l               000000010041629c f i legacy_stdio_definitions:legacy_stdio_definitions.obj
 0001:000152e0       _fprintf_p                 00000001004162e0 f i legacy_stdio_definitions:legacy_stdio_definitions.obj
 0001:00015324       _printf_l                  0000000100416324 f i legacy_stdio_definitions:legacy_stdio_definitions.obj
 0001:00015374       printf                     0000000100416374 f i legacy_stdio_definitions:legacy_stdio_definitions.obj
 0001:000153c4       _printf_s_l                00000001004163c4 f i legacy_stdio_definitions:legacy_stdio_definitions.obj
 0001:00015414       printf_s                   0000000100416414 f i legacy_stdio_definitions:legacy_stdio_definitions.obj
 0001:00015464       _printf_p_l                0000000100416464 f i legacy_stdio_definitions:legacy_stdio_definitions.obj
 0001:000154b4       _printf_p                  00000001004164b4 f i legacy_stdio_definitions:legacy_stdio_definitions.obj
 0001:00015504       _vfscanf_l                 0000000100416504 f i legacy_stdio_definitions:legacy_stdio_definitions.obj
 0001:00015554       vfscanf                    0000000100416554 f i legacy_stdio_definitions:legacy_stdio_definitions.obj
 0001:00015598       _vfscanf_s_l               0000000100416598 f i legacy_stdio_definitions:legacy_stdio_definitions.obj
 0001:000155ec       vfscanf_s                  00000001004165ec f i legacy_stdio_definitions:legacy_stdio_definitions.obj
 0001:00015634       _vscanf_l                  0000000100416634 f i legacy_stdio_definitions:legacy_stdio_definitions.obj
 0001:0001568c       vscanf                     000000010041668c f i legacy_stdio_definitions:legacy_stdio_definitions.obj
 0001:000156d8       _vscanf_s_l                00000001004166d8 f i legacy_stdio_definitions:legacy_stdio_definitions.obj
 0001:00015734       vscanf_s                   0000000100416734 f i legacy_stdio_definitions:legacy_stdio_definitions.obj
 0001:00015784       _fscanf_l                  0000000100416784 f i legacy_stdio_definitions:legacy_stdio_definitions.obj
 0001:000157c8       fscanf                     00000001004167c8 f i legacy_stdio_definitions:legacy_stdio_definitions.obj
 0001:0001580c       _fscanf_s_l                000000010041680c f i legacy_stdio_definitions:legacy_stdio_definitions.obj
 0001:00015854       fscanf_s                   0000000100416854 f i legacy_stdio_definitions:legacy_stdio_definitions.obj
 0001:0001589c       _scanf_l                   000000010041689c f i legacy_stdio_definitions:legacy_stdio_definitions.obj
 0001:000158e8       scanf                      00000001004168e8 f i legacy_stdio_definitions:legacy_stdio_definitions.obj
 0001:00015934       _scanf_s_l                 0000000100416934 f i legacy_stdio_definitions:legacy_stdio_definitions.obj
 0001:00015984       scanf_s                    0000000100416984 f i legacy_stdio_definitions:legacy_stdio_definitions.obj
 0001:000159d4       _vsnprintf_l               00000001004169d4 f i legacy_stdio_definitions:legacy_stdio_definitions.obj
 0001:00015a3c       _vsnprintf                 0000000100416a3c f i legacy_stdio_definitions:legacy_stdio_definitions.obj
 0001:00015aa0       vsnprintf                  0000000100416aa0 f i legacy_stdio_definitions:legacy_stdio_definitions.obj
 0001:00015b04       _vsprintf_l                0000000100416b04 f i legacy_stdio_definitions:legacy_stdio_definitions.obj
 0001:00015b68       vsprintf                   0000000100416b68 f i legacy_stdio_definitions:legacy_stdio_definitions.obj
 0001:00015bc0       vsprintf_s                 0000000100416bc0 f i legacy_stdio_definitions:legacy_stdio_definitions.obj
 0001:00015c20       _vsprintf_p_l              0000000100416c20 f i legacy_stdio_definitions:legacy_stdio_definitions.obj
 0001:00015c84       _vsprintf_p                0000000100416c84 f i legacy_stdio_definitions:legacy_stdio_definitions.obj
 0001:00015ce4       vsnprintf_s                0000000100416ce4 f i legacy_stdio_definitions:legacy_stdio_definitions.obj
 0001:00015d4c       _vscprintf_l               0000000100416d4c f i legacy_stdio_definitions:legacy_stdio_definitions.obj
 0001:00015da0       _vscprintf                 0000000100416da0 f i legacy_stdio_definitions:legacy_stdio_definitions.obj
 0001:00015de8       _vscprintf_p_l             0000000100416de8 f i legacy_stdio_definitions:legacy_stdio_definitions.obj
 0001:00015e3c       _vscprintf_p               0000000100416e3c f i legacy_stdio_definitions:legacy_stdio_definitions.obj
 0001:00015e84       _vsnprintf_c_l             0000000100416e84 f i legacy_stdio_definitions:legacy_stdio_definitions.obj
 0001:00015ee8       _vsnprintf_c               0000000100416ee8 f i legacy_stdio_definitions:legacy_stdio_definitions.obj
 0001:00015f48       _sprintf_l                 0000000100416f48 f i legacy_stdio_definitions:legacy_stdio_definitions.obj
 0001:00015fa0       sprintf                    0000000100416fa0 f i legacy_stdio_definitions:legacy_stdio_definitions.obj
 0001:00015ff8       _sprintf_s_l               0000000100416ff8 f i legacy_stdio_definitions:legacy_stdio_definitions.obj
 0001:0001604c       _sprintf_p_l               000000010041704c f i legacy_stdio_definitions:legacy_stdio_definitions.obj
 0001:000160a0       _sprintf_p                 00000001004170a0 f i legacy_stdio_definitions:legacy_stdio_definitions.obj
 0001:000160f4       _snprintf_l                00000001004170f4 f i legacy_stdio_definitions:legacy_stdio_definitions.obj
 0001:0001614c       snprintf                   000000010041714c f i legacy_stdio_definitions:legacy_stdio_definitions.obj
 0001:000161a4       _snprintf                  00000001004171a4 f i legacy_stdio_definitions:legacy_stdio_definitions.obj
 0001:000161fc       _snprintf_c_l              00000001004171fc f i legacy_stdio_definitions:legacy_stdio_definitions.obj
 0001:00016250       _snprintf_c                0000000100417250 f i legacy_stdio_definitions:legacy_stdio_definitions.obj
 0001:000162a4       _snprintf_s_l              00000001004172a4 f i legacy_stdio_definitions:legacy_stdio_definitions.obj
 0001:00016304       _snprintf_s                0000000100417304 f i legacy_stdio_definitions:legacy_stdio_definitions.obj
 0001:00016360       _scprintf_l                0000000100417360 f i legacy_stdio_definitions:legacy_stdio_definitions.obj
 0001:000163b4       _scprintf                  00000001004173b4 f i legacy_stdio_definitions:legacy_stdio_definitions.obj
 0001:00016408       _scprintf_p_l              0000000100417408 f i legacy_stdio_definitions:legacy_stdio_definitions.obj
 0001:0001645c       _scprintf_p                000000010041745c f i legacy_stdio_definitions:legacy_stdio_definitions.obj
 0001:000164b0       vsscanf                    00000001004174b0 f i legacy_stdio_definitions:legacy_stdio_definitions.obj
 0001:000164fc       _vsscanf_s_l               00000001004174fc f i legacy_stdio_definitions:legacy_stdio_definitions.obj
 0001:00016558       vsscanf_s                  0000000100417558 f i legacy_stdio_definitions:legacy_stdio_definitions.obj
 0001:000165a8       _sscanf_l                  00000001004175a8 f i legacy_stdio_definitions:legacy_stdio_definitions.obj
 0001:000165f4       _sscanf_s_l                00000001004175f4 f i legacy_stdio_definitions:legacy_stdio_definitions.obj
 0001:00016644       sscanf_s                   0000000100417644 f i legacy_stdio_definitions:legacy_stdio_definitions.obj
 0001:00016694       _snscanf_l                 0000000100417694 f i legacy_stdio_definitions:legacy_stdio_definitions.obj
 0001:000166e0       _snscanf                   00000001004176e0 f i legacy_stdio_definitions:legacy_stdio_definitions.obj
 0001:0001672c       _snscanf_s_l               000000010041772c f i legacy_stdio_definitions:legacy_stdio_definitions.obj
 0001:0001677c       _snscanf_s                 000000010041777c f i legacy_stdio_definitions:legacy_stdio_definitions.obj
 0001:000167ca       memmove                    00000001004177ca f   vcruntimed:VCRUNTIME140D.dll
 0001:000167d0       strchr                     00000001004177d0 f   vcruntimed:VCRUNTIME140D.dll
 0001:000167d6       memset                     00000001004177d6 f   vcruntimed:VCRUNTIME140D.dll
 0001:000167dc       memcpy                     00000001004177dc f   vcruntimed:VCRUNTIME140D.dll
 0001:000167e2       __C_specific_handler       00000001004177e2 f   vcruntimed:VCRUNTIME140D.dll
 0001:000167e8       __std_type_info_destroy_list 00000001004177e8 f   vcruntimed:VCRUNTIME140D.dll
 0001:000167ee       __current_exception        00000001004177ee f   vcruntimed:VCRUNTIME140D.dll
 0001:000167f4       __current_exception_context 00000001004177f4 f   vcruntimed:VCRUNTIME140D.dll
 0001:000167fa       __C_specific_handler_noexcept 00000001004177fa f   vcruntimed:VCRUNTIME140D.dll
 0001:00016800       __vcrt_GetModuleFileNameW  0000000100417800 f   vcruntimed:VCRUNTIME140D.dll
 0001:00016806       __vcrt_GetModuleHandleW    0000000100417806 f   vcruntimed:VCRUNTIME140D.dll
 0001:0001680c       __vcrt_LoadLibraryExW      000000010041780c f   vcruntimed:VCRUNTIME140D.dll
 0001:00016812       isalpha                    0000000100417812 f   ucrtd:ucrtbased.dll
 0001:00016818       isdigit                    0000000100417818 f   ucrtd:ucrtbased.dll
 0001:0001681e       isalnum                    000000010041781e f   ucrtd:ucrtbased.dll
 0001:00016824       _errno                     0000000100417824 f   ucrtd:ucrtbased.dll
 0001:0001682a       strcmp                     000000010041782a f   ucrtd:ucrtbased.dll
 0001:00016830       _stricmp                   0000000100417830 f   ucrtd:ucrtbased.dll
 0001:00016836       strlen                     0000000100417836 f   ucrtd:ucrtbased.dll
 0001:0001683c       _strnicmp                  000000010041783c f   ucrtd:ucrtbased.dll
 0001:00016842       calloc                     0000000100417842 f   ucrtd:ucrtbased.dll
 0001:00016848       free                       0000000100417848 f   ucrtd:ucrtbased.dll
 0001:0001684e       malloc                     000000010041784e f   ucrtd:ucrtbased.dll
 0001:00016854       realloc                    0000000100417854 f   ucrtd:ucrtbased.dll
 0001:0001685a       _byteswap_ushort           000000010041785a f   ucrtd:ucrtbased.dll
 0001:00016860       _byteswap_ulong            0000000100417860 f   ucrtd:ucrtbased.dll
 0001:00016866       _byteswap_uint64           0000000100417866 f   ucrtd:ucrtbased.dll
 0001:0001686c       atoi                       000000010041786c f   ucrtd:ucrtbased.dll
 0001:00016872       __acrt_iob_func            0000000100417872 f   ucrtd:ucrtbased.dll
 0001:00016878       fread                      0000000100417878 f   ucrtd:ucrtbased.dll
 0001:0001687e       __stdio_common_vsnprintf_s 000000010041787e f   ucrtd:ucrtbased.dll
 0001:00016884       __stdio_common_vsscanf     0000000100417884 f   ucrtd:ucrtbased.dll
 0001:0001688a       strerror                   000000010041788a f   ucrtd:ucrtbased.dll
 0001:00016890       _initterm                  0000000100417890 f   ucrtd:ucrtbased.dll
 0001:00016896       _initterm_e                0000000100417896 f   ucrtd:ucrtbased.dll
 0001:0001689c       _CrtDbgReport              000000010041789c f   ucrtd:ucrtbased.dll
 0001:000168a2       _CrtDbgReportW             00000001004178a2 f   ucrtd:ucrtbased.dll
 0001:000168a8       _seh_filter_dll            00000001004178a8 f   ucrtd:ucrtbased.dll
 0001:000168ae       _configure_narrow_argv     00000001004178ae f   ucrtd:ucrtbased.dll
 0001:000168b4       _initialize_narrow_environment 00000001004178b4 f   ucrtd:ucrtbased.dll
 0001:000168ba       _initialize_onexit_table   00000001004178ba f   ucrtd:ucrtbased.dll
 0001:000168c0       _register_onexit_function  00000001004178c0 f   ucrtd:ucrtbased.dll
 0001:000168c6       _execute_onexit_table      00000001004178c6 f   ucrtd:ucrtbased.dll
 0001:000168cc       _crt_atexit                00000001004178cc f   ucrtd:ucrtbased.dll
 0001:000168d2       _crt_at_quick_exit         00000001004178d2 f   ucrtd:ucrtbased.dll
 0001:000168d8       _cexit                     00000001004178d8 f   ucrtd:ucrtbased.dll
 0001:000168de       terminate                  00000001004178de f   ucrtd:ucrtbased.dll
 0001:000168e4       strcpy_s                   00000001004178e4 f   ucrtd:ucrtbased.dll
 0001:000168ea       strcat_s                   00000001004178ea f   ucrtd:ucrtbased.dll
 0001:000168f0       __stdio_common_vsprintf_s  00000001004178f0 f   ucrtd:ucrtbased.dll
 0001:000168f6       _wmakepath_s               00000001004178f6 f   ucrtd:ucrtbased.dll
 0001:000168fc       _wsplitpath_s              00000001004178fc f   ucrtd:ucrtbased.dll
 0001:00016902       wcscpy_s                   0000000100417902 f   ucrtd:ucrtbased.dll
 0001:00016908       _strdup                    0000000100417908 f   ucrtd:ucrtbased.dll
 0001:0001690e       __stdio_common_vfwprintf   000000010041790e f   ucrtd:ucrtbased.dll
 0001:00016914       __stdio_common_vfwprintf_s 0000000100417914 f   ucrtd:ucrtbased.dll
 0001:0001691a       __stdio_common_vfwprintf_p 000000010041791a f   ucrtd:ucrtbased.dll
 0001:00016920       __stdio_common_vfwscanf    0000000100417920 f   ucrtd:ucrtbased.dll
 0001:00016926       __stdio_common_vswprintf   0000000100417926 f   ucrtd:ucrtbased.dll
 0001:0001692c       __stdio_common_vswprintf_s 000000010041792c f   ucrtd:ucrtbased.dll
 0001:00016932       __stdio_common_vsnwprintf_s 0000000100417932 f   ucrtd:ucrtbased.dll
 0001:00016938       __stdio_common_vswprintf_p 0000000100417938 f   ucrtd:ucrtbased.dll
 0001:0001693e       __stdio_common_vswscanf    000000010041793e f   ucrtd:ucrtbased.dll
 0001:00016944       __stdio_common_vfprintf    0000000100417944 f   ucrtd:ucrtbased.dll
 0001:0001694a       __stdio_common_vfprintf_s  000000010041794a f   ucrtd:ucrtbased.dll
 0001:00016950       __stdio_common_vfprintf_p  0000000100417950 f   ucrtd:ucrtbased.dll
 0001:00016956       __stdio_common_vfscanf     0000000100417956 f   ucrtd:ucrtbased.dll
 0001:0001695c       __stdio_common_vsprintf    000000010041795c f   ucrtd:ucrtbased.dll
 0001:00016962       __stdio_common_vsprintf_p  0000000100417962 f   ucrtd:ucrtbased.dll
 0001:00016985       RtlCaptureContext          0000000100417985 f   kernel32:KERNEL32.dll
 0001:0001698b       RtlLookupFunctionEntry     000000010041798b f   kernel32:KERNEL32.dll
 0001:00016991       RtlVirtualUnwind           0000000100417991 f   kernel32:KERNEL32.dll
 0001:00016997       UnhandledExceptionFilter   0000000100417997 f   kernel32:KERNEL32.dll
 0001:0001699d       SetUnhandledExceptionFilter 000000010041799d f   kernel32:KERNEL32.dll
 0001:000169a3       GetCurrentProcess          00000001004179a3 f   kernel32:KERNEL32.dll
 0001:000169a9       TerminateProcess           00000001004179a9 f   kernel32:KERNEL32.dll
 0001:000169af       IsProcessorFeaturePresent  00000001004179af f   kernel32:KERNEL32.dll
 0001:000169b5       QueryPerformanceCounter    00000001004179b5 f   kernel32:KERNEL32.dll
 0001:000169bb       GetCurrentProcessId        00000001004179bb f   kernel32:KERNEL32.dll
 0001:000169c1       GetCurrentThreadId         00000001004179c1 f   kernel32:KERNEL32.dll
 0001:000169c7       GetSystemTimeAsFileTime    00000001004179c7 f   kernel32:KERNEL32.dll
 0001:000169cd       DisableThreadLibraryCalls  00000001004179cd f   kernel32:KERNEL32.dll
 0001:000169d3       InitializeSListHead        00000001004179d3 f   kernel32:KERNEL32.dll
 0001:000169d9       GetStartupInfoW            00000001004179d9 f   kernel32:KERNEL32.dll
 0001:000169df       GetModuleHandleW           00000001004179df f   kernel32:KERNEL32.dll
 0001:000169e5       RaiseException             00000001004179e5 f   kernel32:KERNEL32.dll
 0001:000169eb       MultiByteToWideChar        00000001004179eb f   kernel32:KERNEL32.dll
 0001:000169f1       WideCharToMultiByte        00000001004179f1 f   kernel32:KERNEL32.dll
 0001:000169f7       GetLastError               00000001004179f7 f   kernel32:KERNEL32.dll
 0001:000169fd       HeapAlloc                  00000001004179fd f   kernel32:KERNEL32.dll
 0001:00016a03       HeapFree                   0000000100417a03 f   kernel32:KERNEL32.dll
 0001:00016a09       GetProcessHeap             0000000100417a09 f   kernel32:KERNEL32.dll
 0001:00016a0f       VirtualQuery               0000000100417a0f f   kernel32:KERNEL32.dll
 0001:00016a15       FreeLibrary                0000000100417a15 f   kernel32:KERNEL32.dll
 0001:00016a1b       GetProcAddress             0000000100417a1b f   kernel32:KERNEL32.dll
 0001:00016a30       __acrt_initialize          0000000100417a30 f   MSVCRTD:ucrt_stubs.obj
 0001:00016a30       __scrt_stub_for_acrt_initialize 0000000100417a30 f   MSVCRTD:ucrt_stubs.obj
 0001:00016a30       __vcrt_initialize          0000000100417a30 f   MSVCRTD:ucrt_stubs.obj
 0001:00016a40       __acrt_thread_attach       0000000100417a40 f   MSVCRTD:ucrt_stubs.obj
 0001:00016a40       __scrt_stub_for_acrt_thread_attach 0000000100417a40 f   MSVCRTD:ucrt_stubs.obj
 0001:00016a40       __vcrt_thread_attach       0000000100417a40 f   MSVCRTD:ucrt_stubs.obj
 0001:00016a50       __acrt_thread_detach       0000000100417a50 f   MSVCRTD:ucrt_stubs.obj
 0001:00016a50       __scrt_stub_for_acrt_thread_detach 0000000100417a50 f   MSVCRTD:ucrt_stubs.obj
 0001:00016a50       __vcrt_thread_detach       0000000100417a50 f   MSVCRTD:ucrt_stubs.obj
 0001:00016a60       __acrt_uninitialize        0000000100417a60 f   MSVCRTD:ucrt_stubs.obj
 0001:00016a60       __scrt_stub_for_acrt_uninitialize 0000000100417a60 f   MSVCRTD:ucrt_stubs.obj
 0001:00016a60       __vcrt_uninitialize        0000000100417a60 f   MSVCRTD:ucrt_stubs.obj
 0001:00016a70       __acrt_uninitialize_critical 0000000100417a70 f   MSVCRTD:ucrt_stubs.obj
 0001:00016a70       __scrt_stub_for_acrt_uninitialize_critical 0000000100417a70 f   MSVCRTD:ucrt_stubs.obj
 0001:00016a70       __vcrt_uninitialize_critical 0000000100417a70 f   MSVCRTD:ucrt_stubs.obj
 0001:00016a80       __scrt_stub_for_is_c_termination_complete 0000000100417a80 f   MSVCRTD:ucrt_stubs.obj
 0001:00016a80       _is_c_termination_complete 0000000100417a80 f   MSVCRTD:ucrt_stubs.obj
 0001:00016aa0       _guard_dispatch_icall_nop  0000000100417aa0 f   MSVCRTD:guard_dispatch.obj
 0001:00016ac0       _guard_xfg_dispatch_icall_nop 0000000100417ac0 f   MSVCRTD:guard_xfg_dispatch.obj
 0002:00000000       __imp_GetProcAddress       0000000100418000     kernel32:KERNEL32.dll
 0002:00000008       __imp_RtlLookupFunctionEntry 0000000100418008     kernel32:KERNEL32.dll
 0002:00000010       __imp_OutputDebugStringA   0000000100418010     kernel32:KERNEL32.dll
 0002:00000018       __imp_IsDebuggerPresent    0000000100418018     kernel32:KERNEL32.dll
 0002:00000020       __imp_FreeLibrary          0000000100418020     kernel32:KERNEL32.dll
 0002:00000028       __imp_VirtualQuery         0000000100418028     kernel32:KERNEL32.dll
 0002:00000030       __imp_GetProcessHeap       0000000100418030     kernel32:KERNEL32.dll
 0002:00000038       __imp_HeapFree             0000000100418038     kernel32:KERNEL32.dll
 0002:00000040       __imp_HeapAlloc            0000000100418040     kernel32:KERNEL32.dll
 0002:00000048       __imp_GetLastError         0000000100418048     kernel32:KERNEL32.dll
 0002:00000050       __imp_WideCharToMultiByte  0000000100418050     kernel32:KERNEL32.dll
 0002:00000058       __imp_MultiByteToWideChar  0000000100418058     kernel32:KERNEL32.dll
 0002:00000060       __imp_RaiseException       0000000100418060     kernel32:KERNEL32.dll
 0002:00000068       __imp_GetModuleHandleW     0000000100418068     kernel32:KERNEL32.dll
 0002:00000070       __imp_GetStartupInfoW      0000000100418070     kernel32:KERNEL32.dll
 0002:00000078       __imp_InitializeSListHead  0000000100418078     kernel32:KERNEL32.dll
 0002:00000080       __imp_DisableThreadLibraryCalls 0000000100418080     kernel32:KERNEL32.dll
 0002:00000088       __imp_GetSystemTimeAsFileTime 0000000100418088     kernel32:KERNEL32.dll
 0002:00000090       __imp_GetCurrentThreadId   0000000100418090     kernel32:KERNEL32.dll
 0002:00000098       __imp_GetCurrentProcessId  0000000100418098     kernel32:KERNEL32.dll
 0002:000000a0       __imp_QueryPerformanceCounter 00000001004180a0     kernel32:KERNEL32.dll
 0002:000000a8       __imp_IsProcessorFeaturePresent 00000001004180a8     kernel32:KERNEL32.dll
 0002:000000b0       __imp_TerminateProcess     00000001004180b0     kernel32:KERNEL32.dll
 0002:000000b8       __imp_GetCurrentProcess    00000001004180b8     kernel32:KERNEL32.dll
 0002:000000c0       __imp_SetUnhandledExceptionFilter 00000001004180c0     kernel32:KERNEL32.dll
 0002:000000c8       __imp_UnhandledExceptionFilter 00000001004180c8     kernel32:KERNEL32.dll
 0002:000000d0       __imp_RtlVirtualUnwind     00000001004180d0     kernel32:KERNEL32.dll
 0002:000000d8       __imp_RtlCaptureContext    00000001004180d8     kernel32:KERNEL32.dll
 0002:000000e0       \177KERNEL32_NULL_THUNK_DATA 00000001004180e0     kernel32:KERNEL32.dll
 0002:000000e8       __imp_memmove              00000001004180e8     vcruntimed:VCRUNTIME140D.dll
 0002:000000f0       __imp_strchr               00000001004180f0     vcruntimed:VCRUNTIME140D.dll
 0002:000000f8       __imp___vcrt_LoadLibraryExW 00000001004180f8     vcruntimed:VCRUNTIME140D.dll
 0002:00000100       __imp___vcrt_GetModuleHandleW 0000000100418100     vcruntimed:VCRUNTIME140D.dll
 0002:00000108       __imp___vcrt_GetModuleFileNameW 0000000100418108     vcruntimed:VCRUNTIME140D.dll
 0002:00000110       __imp___C_specific_handler_noexcept 0000000100418110     vcruntimed:VCRUNTIME140D.dll
 0002:00000118       __imp___current_exception_context 0000000100418118     vcruntimed:VCRUNTIME140D.dll
 0002:00000120       __imp___current_exception  0000000100418120     vcruntimed:VCRUNTIME140D.dll
 0002:00000128       __imp___std_type_info_destroy_list 0000000100418128     vcruntimed:VCRUNTIME140D.dll
 0002:00000130       __imp___C_specific_handler 0000000100418130     vcruntimed:VCRUNTIME140D.dll
 0002:00000138       __imp_memcpy               0000000100418138     vcruntimed:VCRUNTIME140D.dll
 0002:00000140       __imp_memset               0000000100418140     vcruntimed:VCRUNTIME140D.dll
 0002:00000148       \177VCRUNTIME140D_NULL_THUNK_DATA 0000000100418148     vcruntimed:VCRUNTIME140D.dll
 0002:00000150       __imp_inet_pton            0000000100418150     ws2_32:WS2_32.dll
 0002:00000158       __imp_WSAGetLastError      0000000100418158     ws2_32:WS2_32.dll
 0002:00000160       __imp_select               0000000100418160     ws2_32:WS2_32.dll
 0002:00000168       __imp_shutdown             0000000100418168     ws2_32:WS2_32.dll
 0002:00000170       __imp_closesocket          0000000100418170     ws2_32:WS2_32.dll
 0002:00000178       __imp_WSASetLastError      0000000100418178     ws2_32:WS2_32.dll
 0002:00000180       __imp_getservbyname        0000000100418180     ws2_32:WS2_32.dll
 0002:00000188       __imp_gethostbyname        0000000100418188     ws2_32:WS2_32.dll
 0002:00000190       __imp_bind                 0000000100418190     ws2_32:WS2_32.dll
 0002:00000198       __imp_getpeername          0000000100418198     ws2_32:WS2_32.dll
 0002:000001a0       __imp_htons                00000001004181a0     ws2_32:WS2_32.dll
 0002:000001a8       __imp_inet_addr            00000001004181a8     ws2_32:WS2_32.dll
 0002:000001b0       __imp_inet_ntoa            00000001004181b0     ws2_32:WS2_32.dll
 0002:000001b8       __imp_listen               00000001004181b8     ws2_32:WS2_32.dll
 0002:000001c0       __imp_ntohs                00000001004181c0     ws2_32:WS2_32.dll
 0002:000001c8       __imp_recv                 00000001004181c8     ws2_32:WS2_32.dll
 0002:000001d0       __imp_send                 00000001004181d0     ws2_32:WS2_32.dll
 0002:000001d8       __imp_setsockopt           00000001004181d8     ws2_32:WS2_32.dll
 0002:000001e0       __imp_inet_ntop            00000001004181e0     ws2_32:WS2_32.dll
 0002:000001e8       \177WS2_32_NULL_THUNK_DATA 00000001004181e8     ws2_32:WS2_32.dll
 0002:000001f0       __imp_Dequeue_IO_Interrupt 00000001004181f0     hengine:hengine.dll
 0002:000001f8       __imp_readlogo             00000001004181f8     hengine:hengine.dll
 0002:00000200       __imp_device_attention     0000000100418200     hengine:hengine.dll
 0002:00000208       __imp_sclp_sysg_attention  0000000100418208     hengine:hengine.dll
 0002:00000210       \177hengine_NULL_THUNK_DATA 0000000100418210     hengine:hengine.dll
 0002:00000218       __imp_sysblk               0000000100418218     hsys:hsys.dll
 0002:00000220       \177hsys_NULL_THUNK_DATA   0000000100418220     hsys:hsys.dll
 0002:00000228       __imp_hostinfo             0000000100418228     hutil:hutil.dll
 0002:00000230       __imp_logmsg               0000000100418230     hutil:hutil.dll
 0002:00000238       __imp_fwritemsg            0000000100418238     hutil:hutil.dll
 0002:00000240       __imp_disable_nagle        0000000100418240     hutil:hutil.dll
 0002:00000248       __imp_write_socket         0000000100418248     hutil:hutil.dll
 0002:00000250       __imp_prt_host_to_guest    0000000100418250     hutil:hutil.dll
 0002:00000258       __imp_guest_to_host        0000000100418258     hutil:hutil.dll
 0002:00000260       __imp_w32_basename         0000000100418260     hutil:hutil.dll
 0002:00000268       __imp_w32_snprintf         0000000100418268     hutil:hutil.dll
 0002:00000270       __imp_w32_fwrite           0000000100418270     hutil:hutil.dll
 0002:00000278       __imp_w32_pselect          0000000100418278     hutil:hutil.dll
 0002:00000280       __imp_w32_FD_ISSET         0000000100418280     hutil:hutil.dll
 0002:00000288       __imp_w32_FD_SET           0000000100418288     hutil:hutil.dll
 0002:00000290       __imp_w32_close_socket     0000000100418290     hutil:hutil.dll
 0002:00000298       __imp_w32_accept           0000000100418298     hutil:hutil.dll
 0002:000002a0       __imp_hthread_try_obtain_lock 00000001004182a0     hutil:hutil.dll
 0002:000002a8       __imp_hthread_release_lock 00000001004182a8     hutil:hutil.dll
 0002:000002b0       __imp_hthread_obtain_lock  00000001004182b0     hutil:hutil.dll
 0002:000002b8       __imp_hthread_join_thread  00000001004182b8     hutil:hutil.dll
 0002:000002c0       __imp_hthread_set_thread_prio 00000001004182c0     hutil:hutil.dll
 0002:000002c8       __imp_hthread_get_thread_prio 00000001004182c8     hutil:hutil.dll
 0002:000002d0       __imp_init_hostinfo        00000001004182d0     hutil:hutil.dll
 0002:000002d8       __imp_get_symbol           00000001004182d8     hutil:hutil.dll
 0002:000002e0       __imp_resolve_symbol_string 00000001004182e0     hutil:hutil.dll
 0002:000002e8       __imp_set_symbol           00000001004182e8     hutil:hutil.dll
 0002:000002f0       __imp_strlcpy              00000001004182f0     hutil:hutil.dll
 0002:000002f8       __imp_timeval_subtract     00000001004182f8     hutil:hutil.dll
 0002:00000300       __imp_w32_strerror         0000000100418300     hutil:hutil.dll
 0002:00000308       __imp_strtok_r             0000000100418308     hutil:hutil.dll
 0002:00000310       __imp_gettimeofday         0000000100418310     hutil:hutil.dll
 0002:00000318       __imp_usleep               0000000100418318     hutil:hutil.dll
 0002:00000320       __imp_sleep                0000000100418320     hutil:hutil.dll
 0002:00000328       __imp_sched_yield          0000000100418328     hutil:hutil.dll
 0002:00000330       __imp_hostpath             0000000100418330     hutil:hutil.dll
 0002:00000338       __imp_socket_set_blocking_mode 0000000100418338     hutil:hutil.dll
 0002:00000340       __imp_set_socket_keepalive 0000000100418340     hutil:hutil.dll
 0002:00000348       __imp_w32_socket           0000000100418348     hutil:hutil.dll
 0002:00000350       __imp_hthread_create_thread 0000000100418350     hutil:hutil.dll
 0002:00000358       __imp_fthread_self         0000000100418358     hutil:hutil.dll
 0002:00000360       \177hutil_NULL_THUNK_DATA  0000000100418360     hutil:hutil.dll
 0002:00000368       __imp__configure_narrow_argv 0000000100418368     ucrtd:ucrtbased.dll
 0002:00000370       __imp__initialize_narrow_environment 0000000100418370     ucrtd:ucrtbased.dll
 0002:00000378       __imp__initialize_onexit_table 0000000100418378     ucrtd:ucrtbased.dll
 0002:00000380       __imp__register_onexit_function 0000000100418380     ucrtd:ucrtbased.dll
 0002:00000388       __imp__execute_onexit_table 0000000100418388     ucrtd:ucrtbased.dll
 0002:00000390       __imp__crt_atexit          0000000100418390     ucrtd:ucrtbased.dll
 0002:00000398       __imp__CrtDbgReportW       0000000100418398     ucrtd:ucrtbased.dll
 0002:000003a0       __imp__cexit               00000001004183a0     ucrtd:ucrtbased.dll
 0002:000003a8       __imp_terminate            00000001004183a8     ucrtd:ucrtbased.dll
 0002:000003b0       __imp_strcpy_s             00000001004183b0     ucrtd:ucrtbased.dll
 0002:000003b8       __imp_strcat_s             00000001004183b8     ucrtd:ucrtbased.dll
 0002:000003c0       __imp___stdio_common_vsprintf_s 00000001004183c0     ucrtd:ucrtbased.dll
 0002:000003c8       __imp__wmakepath_s         00000001004183c8     ucrtd:ucrtbased.dll
 0002:000003d0       __imp__wsplitpath_s        00000001004183d0     ucrtd:ucrtbased.dll
 0002:000003d8       __imp_wcscpy_s             00000001004183d8     ucrtd:ucrtbased.dll
 0002:000003e0       __imp__strdup              00000001004183e0     ucrtd:ucrtbased.dll
 0002:000003e0       __imp_strdup               00000001004183e0     ucrtd:ucrtbased.dll
 0002:000003e8       __imp___stdio_common_vfwprintf 00000001004183e8     ucrtd:ucrtbased.dll
 0002:000003f0       __imp___stdio_common_vfwprintf_s 00000001004183f0     ucrtd:ucrtbased.dll
 0002:000003f8       __imp___stdio_common_vfwprintf_p 00000001004183f8     ucrtd:ucrtbased.dll
 0002:00000400       __imp___stdio_common_vfwscanf 0000000100418400     ucrtd:ucrtbased.dll
 0002:00000408       __imp___stdio_common_vswprintf 0000000100418408     ucrtd:ucrtbased.dll
 0002:00000410       __imp___stdio_common_vswprintf_s 0000000100418410     ucrtd:ucrtbased.dll
 0002:00000418       __imp___stdio_common_vsnwprintf_s 0000000100418418     ucrtd:ucrtbased.dll
 0002:00000420       __imp___stdio_common_vswprintf_p 0000000100418420     ucrtd:ucrtbased.dll
 0002:00000428       __imp___stdio_common_vswscanf 0000000100418428     ucrtd:ucrtbased.dll
 0002:00000430       __imp___stdio_common_vfprintf 0000000100418430     ucrtd:ucrtbased.dll
 0002:00000438       __imp___stdio_common_vfprintf_s 0000000100418438     ucrtd:ucrtbased.dll
 0002:00000440       __imp___stdio_common_vfprintf_p 0000000100418440     ucrtd:ucrtbased.dll
 0002:00000448       __imp___stdio_common_vfscanf 0000000100418448     ucrtd:ucrtbased.dll
 0002:00000450       __imp___stdio_common_vsprintf 0000000100418450     ucrtd:ucrtbased.dll
 0002:00000458       __imp___stdio_common_vsprintf_p 0000000100418458     ucrtd:ucrtbased.dll
 0002:00000460       __imp__CrtDbgReport        0000000100418460     ucrtd:ucrtbased.dll
 0002:00000468       __imp__initterm_e          0000000100418468     ucrtd:ucrtbased.dll
 0002:00000470       __imp__initterm            0000000100418470     ucrtd:ucrtbased.dll
 0002:00000478       __imp_strerror             0000000100418478     ucrtd:ucrtbased.dll
 0002:00000480       __imp___stdio_common_vsscanf 0000000100418480     ucrtd:ucrtbased.dll
 0002:00000488       __imp___stdio_common_vsnprintf_s 0000000100418488     ucrtd:ucrtbased.dll
 0002:00000490       __imp_fread                0000000100418490     ucrtd:ucrtbased.dll
 0002:00000498       __imp___acrt_iob_func      0000000100418498     ucrtd:ucrtbased.dll
 0002:000004a0       __imp_atoi                 00000001004184a0     ucrtd:ucrtbased.dll
 0002:000004a8       __imp__byteswap_uint64     00000001004184a8     ucrtd:ucrtbased.dll
 0002:000004b0       __imp__byteswap_ulong      00000001004184b0     ucrtd:ucrtbased.dll
 0002:000004b8       __imp__byteswap_ushort     00000001004184b8     ucrtd:ucrtbased.dll
 0002:000004c0       __imp_realloc              00000001004184c0     ucrtd:ucrtbased.dll
 0002:000004c8       __imp_malloc               00000001004184c8     ucrtd:ucrtbased.dll
 0002:000004d0       __imp_free                 00000001004184d0     ucrtd:ucrtbased.dll
 0002:000004d8       __imp_calloc               00000001004184d8     ucrtd:ucrtbased.dll
 0002:000004e0       __imp__strnicmp            00000001004184e0     ucrtd:ucrtbased.dll
 0002:000004e8       __imp_strlen               00000001004184e8     ucrtd:ucrtbased.dll
 0002:000004f0       __imp__stricmp             00000001004184f0     ucrtd:ucrtbased.dll
 0002:000004f8       __imp_strcmp               00000001004184f8     ucrtd:ucrtbased.dll
 0002:00000500       __imp__errno               0000000100418500     ucrtd:ucrtbased.dll
 0002:00000508       __imp_isalnum              0000000100418508     ucrtd:ucrtbased.dll
 0002:00000510       __imp_isdigit              0000000100418510     ucrtd:ucrtbased.dll
 0002:00000518       __imp__seh_filter_dll      0000000100418518     ucrtd:ucrtbased.dll
 0002:00000520       __imp__crt_at_quick_exit   0000000100418520     ucrtd:ucrtbased.dll
 0002:00000528       __imp_isalpha              0000000100418528     ucrtd:ucrtbased.dll
 0002:00000530       \177ucrtbased_NULL_THUNK_DATA 0000000100418530     ucrtd:ucrtbased.dll
 0002:00000538       __guard_check_icall_fptr   0000000100418538     MSVCRTD:guard_support.obj
 0002:00000540       __guard_xfg_check_icall_fptr 0000000100418540     MSVCRTD:guard_support.obj
 0002:00000548       __guard_dispatch_icall_fptr 0000000100418548     MSVCRTD:guard_support.obj
 0002:00000550       __guard_xfg_dispatch_icall_fptr 0000000100418550     MSVCRTD:guard_support.obj
 0002:00000558       __guard_xfg_table_dispatch_icall_fptr 0000000100418558     MSVCRTD:guard_support.obj
 0002:00000560       __castguard_check_failure_os_handled_fptr 0000000100418560     MSVCRTD:guard_support.obj
 0002:00000568       __guard_memcpy_fptr        0000000100418568     vcruntimed:softmemtag.obj
 0002:00000570       __xc_a                     0000000100418570     MSVCRTD:initializers.obj
 0002:00000578       __xc_z                     0000000100418578     MSVCRTD:initializers.obj
 0002:00000580       __xi_a                     0000000100418580     MSVCRTD:initializers.obj
 0002:00000588       __PLEASE_LINK_WITH_legacy_stdio_wide_specifiers.lib 0000000100418588     legacy_stdio_wide_specifiers:legacy_stdio_wide_specifiers.obj
 0002:00000590       __xi_z                     0000000100418590     MSVCRTD:initializers.obj
 0002:00000598       __xp_a                     0000000100418598     MSVCRTD:initializers.obj
 0002:000005a0       __xp_z                     00000001004185a0     MSVCRTD:initializers.obj
 0002:000005a8       __xt_a                     00000001004185a8     MSVCRTD:initializers.obj
 0002:000005b0       __xt_z                     00000001004185b0     MSVCRTD:initializers.obj
 0002:00000f50       __real@3ff0000000000000    0000000100418f50     telnet64d:telnet.c.obj
 0002:00000f58       __real@3fb999999999999a    0000000100418f58     telnet64d:telnet.c.obj
 0002:00000f60       __real@412e848000000000    0000000100418f60     telnet64d:telnet.c.obj
 0002:00000f68       _pDefaultRawDllMain        0000000100418f68     MSVCRTD:dll_dllmain.obj
 0002:00000f68       _pRawDllMain               0000000100418f68     MSVCRTD:dll_dllmain.obj
 0002:00000fa8       ??_C@_0BJ@HEGAHDFO@Stack?5pointer?5corruption@ 0000000100418fa8     MSVCRTD:userapi.obj
 0002:00000fc8       ??_C@_0CK@FEGOIOPB@Cast?5to?5smaller?5type?5causing?5lo@ 0000000100418fc8     MSVCRTD:userapi.obj
 0002:00000ff8       ??_C@_0BI@CIGMDCBH@Stack?5memory?5corruption@ 0000000100418ff8     MSVCRTD:userapi.obj
 0002:00001010       ??_C@_0CK@CNLNOEPB@Local?5variable?5used?5before?5init@ 0000000100419010     MSVCRTD:userapi.obj
 0002:00001040       ??_C@_0BP@OGBCLIBO@Stack?5around?5_alloca?5corrupted@ 0000000100419040     MSVCRTD:userapi.obj
 0002:00001120       ??_C@_0NN@JMPELKLB@The?5value?5of?5ESP?5was?5not?5proper@ 0000000100419120     MSVCRTD:error.obj
 0002:00001200       ??_C@_0BBN@ELNNILBE@A?5cast?5to?5a?5smaller?5data?5type?5h@ 0000000100419200     MSVCRTD:error.obj
 0002:00001320       ??_C@_0BN@BPOGFMJL@Stack?5memory?5was?5corrupted?$AN?6@ 0000000100419320     MSVCRTD:error.obj
 0002:00001340       ??_C@_0DG@DAJCDLPN@A?5local?5variable?5was?5used?5befor@ 0000000100419340     MSVCRTD:error.obj
 0002:00001378       ??_C@_0CM@JMIDGKLA@Stack?5memory?5around?5_alloca?5was@ 0000000100419378     MSVCRTD:error.obj
 0002:000013a8       ??_C@_0BO@CHIONIOI@Unknown?5Runtime?5Check?5Error?$AN?6@ 00000001004193a8     MSVCRTD:error.obj
 0002:000013d0       ??_C@_1GM@CNOOJIHC@?$AAR?$AAu?$AAn?$AAt?$AAi?$AAm?$AAe?$AA?5?$AAC?$AAh?$AAe?$AAc?$AAk?$AA?5?$AAE@ 00000001004193d0     MSVCRTD:error.obj
 0002:00001440       ??_C@_1EA@NFKNIFJP@?$AAR?$AAu?$AAn?$AA?9?$AAT?$AAi?$AAm?$AAe?$AA?5?$AAC?$AAh?$AAe?$AAc?$AAk?$AA?5@ 0000000100419440     MSVCRTD:error.obj
 0002:00001480       ??_C@_0BB@PFFGGCJP@Unknown?5Filename@ 0000000100419480     MSVCRTD:error.obj
 0002:00001498       ??_C@_0BE@GNBOBNCK@Unknown?5Module?5Name@ 0000000100419498     MSVCRTD:error.obj
 0002:000014b0       ??_C@_0CA@IODNCDPG@Run?9Time?5Check?5Failure?5?$CD?$CFd?5?9?5?$CFs@ 00000001004194b0     MSVCRTD:error.obj
 0002:000014d0       ??_C@_0CG@IAFNJNEE@Stack?5corrupted?5near?5unknown?5va@ 00000001004194d0     MSVCRTD:error.obj
 0002:000014f8       ??_C@_05MKKEDADM@?$CF?42X?5@ 00000001004194f8     MSVCRTD:error.obj
 0002:00001500       ??_C@_0EJ@LJKNEOLN@Stack?5area?5around?5_alloca?5memor@ 0000000100419500     MSVCRTD:error.obj
 0002:0000154c       ??_C@_01EEMJAFIK@?6@       000000010041954c     MSVCRTD:error.obj
 0002:00001550       ??_C@_02LLMPMKNF@?$DO?5@   0000000100419550     MSVCRTD:error.obj
 0002:00001558       ??_C@_08OMAHNMHJ@?6Data?3?5?$DM@ 0000000100419558     MSVCRTD:error.obj
 0002:00001568       ??_C@_0CK@DKGBICFE@?6Allocation?5number?5within?5this?5@ 0000000100419568     MSVCRTD:error.obj
 0002:00001598       ??_C@_07DFDJCKFN@?6Size?3?5@ 0000000100419598     MSVCRTD:error.obj
 0002:000015a0       ??_C@_0N@MHFFIMFG@?6Address?3?50x@ 00000001004195a0     MSVCRTD:error.obj
 0002:000015b0       ??_C@_0EI@CLEPFNGI@Stack?5area?5around?5_alloca?5memor@ 00000001004195b0     MSVCRTD:error.obj
 0002:000015f8       ??_C@_0BK@ODNDAGKB@?$CFs?$CFs?$CFp?$CFs?$CFzd?$CFs?$CFd?$CFs?$CFs?$CFs?$CFs?$CFs@ 00000001004195f8     MSVCRTD:error.obj
 0002:00001618       ??_C@_0DE@OHJBPMBP@A?5variable?5is?5being?5used?5withou@ 0000000100419618     MSVCRTD:error.obj
 0002:000016b0       ??_C@_1EI@MLPKHBGE@?$AAa?$AAp?$AAi?$AA?9?$AAm?$AAs?$AA?9?$AAw?$AAi?$AAn?$AA?9?$AAc?$AAo?$AAr?$AAe@ 00000001004196b0     MSVCRTD:pdblkup.obj
 0002:000016f8       ??_C@_1BK@JHLNAEJL@?$AAa?$AAd?$AAv?$AAa?$AAp?$AAi?$AA3?$AA2?$AA?4?$AAd?$AAl?$AAl@ 00000001004196f8     MSVCRTD:pdblkup.obj
 0002:00001718       ??_C@_0O@COHOBMLB@RegOpenKeyExW@ 0000000100419718     MSVCRTD:pdblkup.obj
 0002:00001728       ??_C@_0BB@GLNAEDBD@RegQueryValueExW@ 0000000100419728     MSVCRTD:pdblkup.obj
 0002:00001740       ??_C@_0M@HLOHPNFA@RegCloseKey@ 0000000100419740     MSVCRTD:pdblkup.obj
 0002:00001750       ??_C@_1HE@EBEAGLFB@?$AAS?$AAO?$AAF?$AAT?$AAW?$AAA?$AAR?$AAE?$AA?2?$AAW?$AAo?$AAw?$AA6?$AA4?$AA3@ 0000000100419750     MSVCRTD:pdblkup.obj
 0002:000017c8       ??_C@_1BG@EABPBLLF@?$AAP?$AAr?$AAo?$AAd?$AAu?$AAc?$AAt?$AAD?$AAi?$AAr@ 00000001004197c8     MSVCRTD:pdblkup.obj
 0002:00001800       ??_C@_1BC@JINFINNJ@?$AAM?$AAS?$AAP?$AAD?$AAB?$AA1?$AA4?$AA0@ 0000000100419800     MSVCRTD:pdblkup.obj
 0002:00001818       ??_C@_0BB@KCIACLNC@PDBOpenValidate5@ 0000000100419818     MSVCRTD:pdblkup.obj
 0002:0000182c       ??_C@_01KDCPPGHE@r@        000000010041982c     MSVCRTD:pdblkup.obj
 0002:00001830       __imp___swprintf_l         0000000100419830     legacy_stdio_definitions:legacy_stdio_definitions.obj
 0002:00001838       __imp___vswprintf_l        0000000100419838     legacy_stdio_definitions:legacy_stdio_definitions.obj
 0002:00001840       __imp__fprintf_l           0000000100419840     legacy_stdio_definitions:legacy_stdio_definitions.obj
 0002:00001848       __imp__fprintf_p           0000000100419848     legacy_stdio_definitions:legacy_stdio_definitions.obj
 0002:00001850       __imp__fprintf_p_l         0000000100419850     legacy_stdio_definitions:legacy_stdio_definitions.obj
 0002:00001858       __imp__fprintf_s_l         0000000100419858     legacy_stdio_definitions:legacy_stdio_definitions.obj
 0002:00001860       __imp__fscanf_l            0000000100419860     legacy_stdio_definitions:legacy_stdio_definitions.obj
 0002:00001868       __imp__fscanf_s_l          0000000100419868     legacy_stdio_definitions:legacy_stdio_definitions.obj
 0002:00001870       __imp__fwprintf_l          0000000100419870     legacy_stdio_definitions:legacy_stdio_definitions.obj
 0002:00001878       __imp__fwprintf_p          0000000100419878     legacy_stdio_definitions:legacy_stdio_definitions.obj
 0002:00001880       __imp__fwprintf_p_l        0000000100419880     legacy_stdio_definitions:legacy_stdio_definitions.obj
 0002:00001888       __imp__fwprintf_s_l        0000000100419888     legacy_stdio_definitions:legacy_stdio_definitions.obj
 0002:00001890       __imp__fwscanf_l           0000000100419890     legacy_stdio_definitions:legacy_stdio_definitions.obj
 0002:00001898       __imp__fwscanf_s_l         0000000100419898     legacy_stdio_definitions:legacy_stdio_definitions.obj
 0002:000018a0       __imp__printf_l            00000001004198a0     legacy_stdio_definitions:legacy_stdio_definitions.obj
 0002:000018a8       __imp__printf_p            00000001004198a8     legacy_stdio_definitions:legacy_stdio_definitions.obj
 0002:000018b0       __imp__printf_p_l          00000001004198b0     legacy_stdio_definitions:legacy_stdio_definitions.obj
 0002:000018b8       __imp__printf_s_l          00000001004198b8     legacy_stdio_definitions:legacy_stdio_definitions.obj
 0002:000018c0       __imp__scanf_l             00000001004198c0     legacy_stdio_definitions:legacy_stdio_definitions.obj
 0002:000018c8       __imp__scanf_s_l           00000001004198c8     legacy_stdio_definitions:legacy_stdio_definitions.obj
 0002:000018d0       __imp__scprintf            00000001004198d0     legacy_stdio_definitions:legacy_stdio_definitions.obj
 0002:000018d8       __imp__scprintf_l          00000001004198d8     legacy_stdio_definitions:legacy_stdio_definitions.obj
 0002:000018e0       __imp__scprintf_p          00000001004198e0     legacy_stdio_definitions:legacy_stdio_definitions.obj
 0002:000018e8       __imp__scprintf_p_l        00000001004198e8     legacy_stdio_definitions:legacy_stdio_definitions.obj
 0002:000018f0       __imp__scwprintf           00000001004198f0     legacy_stdio_definitions:legacy_stdio_definitions.obj
 0002:000018f8       __imp__scwprintf_l         00000001004198f8     legacy_stdio_definitions:legacy_stdio_definitions.obj
 0002:00001900       __imp__scwprintf_p         0000000100419900     legacy_stdio_definitions:legacy_stdio_definitions.obj
 0002:00001908       __imp__scwprintf_p_l       0000000100419908     legacy_stdio_definitions:legacy_stdio_definitions.obj
 0002:00001910       __imp__snprintf            0000000100419910     legacy_stdio_definitions:legacy_stdio_definitions.obj
 0002:00001918       __imp__snprintf_c          0000000100419918     legacy_stdio_definitions:legacy_stdio_definitions.obj
 0002:00001920       __imp__snprintf_c_l        0000000100419920     legacy_stdio_definitions:legacy_stdio_definitions.obj
 0002:00001928       __imp__snprintf_l          0000000100419928     legacy_stdio_definitions:legacy_stdio_definitions.obj
 0002:00001930       __imp__snprintf_s          0000000100419930     legacy_stdio_definitions:legacy_stdio_definitions.obj
 0002:00001938       __imp__snprintf_s_l        0000000100419938     legacy_stdio_definitions:legacy_stdio_definitions.obj
 0002:00001940       __imp__snscanf             0000000100419940     legacy_stdio_definitions:legacy_stdio_definitions.obj
 0002:00001948       __imp__snscanf_l           0000000100419948     legacy_stdio_definitions:legacy_stdio_definitions.obj
 0002:00001950       __imp__snscanf_s           0000000100419950     legacy_stdio_definitions:legacy_stdio_definitions.obj
 0002:00001958       __imp__snscanf_s_l         0000000100419958     legacy_stdio_definitions:legacy_stdio_definitions.obj
 0002:00001960       __imp__snwprintf           0000000100419960     legacy_stdio_definitions:legacy_stdio_definitions.obj
 0002:00001968       __imp__snwprintf_l         0000000100419968     legacy_stdio_definitions:legacy_stdio_definitions.obj
 0002:00001970       __imp__snwprintf_s         0000000100419970     legacy_stdio_definitions:legacy_stdio_definitions.obj
 0002:00001978       __imp__snwprintf_s_l       0000000100419978     legacy_stdio_definitions:legacy_stdio_definitions.obj
 0002:00001980       __imp__snwscanf            0000000100419980     legacy_stdio_definitions:legacy_stdio_definitions.obj
 0002:00001988       __imp__snwscanf_l          0000000100419988     legacy_stdio_definitions:legacy_stdio_definitions.obj
 0002:00001990       __imp__snwscanf_s          0000000100419990     legacy_stdio_definitions:legacy_stdio_definitions.obj
 0002:00001998       __imp__snwscanf_s_l        0000000100419998     legacy_stdio_definitions:legacy_stdio_definitions.obj
 0002:000019a0       __imp__sprintf_l           00000001004199a0     legacy_stdio_definitions:legacy_stdio_definitions.obj
 0002:000019a8       __imp__sprintf_p           00000001004199a8     legacy_stdio_definitions:legacy_stdio_definitions.obj
 0002:000019b0       __imp__sprintf_p_l         00000001004199b0     legacy_stdio_definitions:legacy_stdio_definitions.obj
 0002:000019b8       __imp__sprintf_s_l         00000001004199b8     legacy_stdio_definitions:legacy_stdio_definitions.obj
 0002:000019c0       __imp__sscanf_l            00000001004199c0     legacy_stdio_definitions:legacy_stdio_definitions.obj
 0002:000019c8       __imp__sscanf_s_l          00000001004199c8     legacy_stdio_definitions:legacy_stdio_definitions.obj
 0002:000019d0       __imp__swprintf            00000001004199d0     legacy_stdio_definitions:legacy_stdio_definitions.obj
 0002:000019d8       __imp__swprintf_c          00000001004199d8     legacy_stdio_definitions:legacy_stdio_definitions.obj
 0002:000019e0       __imp__swprintf_c_l        00000001004199e0     legacy_stdio_definitions:legacy_stdio_definitions.obj
 0002:000019e8       __imp__swprintf_l          00000001004199e8     legacy_stdio_definitions:legacy_stdio_definitions.obj
 0002:000019f0       __imp__swprintf_p          00000001004199f0     legacy_stdio_definitions:legacy_stdio_definitions.obj
 0002:000019f8       __imp__swprintf_p_l        00000001004199f8     legacy_stdio_definitions:legacy_stdio_definitions.obj
 0002:00001a00       __imp__swprintf_s_l        0000000100419a00     legacy_stdio_definitions:legacy_stdio_definitions.obj
 0002:00001a08       __imp__swscanf_l           0000000100419a08     legacy_stdio_definitions:legacy_stdio_definitions.obj
 0002:00001a10       __imp__swscanf_s_l         0000000100419a10     legacy_stdio_definitions:legacy_stdio_definitions.obj
 0002:00001a18       __imp__vfprintf_l          0000000100419a18     legacy_stdio_definitions:legacy_stdio_definitions.obj
 0002:00001a20       __imp__vfprintf_p          0000000100419a20     legacy_stdio_definitions:legacy_stdio_definitions.obj
 0002:00001a28       __imp__vfprintf_p_l        0000000100419a28     legacy_stdio_definitions:legacy_stdio_definitions.obj
 0002:00001a30       __imp__vfprintf_s_l        0000000100419a30     legacy_stdio_definitions:legacy_stdio_definitions.obj
 0002:00001a38       __imp__vfscanf_l           0000000100419a38     legacy_stdio_definitions:legacy_stdio_definitions.obj
 0002:00001a40       __imp__vfscanf_s_l         0000000100419a40     legacy_stdio_definitions:legacy_stdio_definitions.obj
 0002:00001a48       __imp__vfwprintf_l         0000000100419a48     legacy_stdio_definitions:legacy_stdio_definitions.obj
 0002:00001a50       __imp__vfwprintf_p         0000000100419a50     legacy_stdio_definitions:legacy_stdio_definitions.obj
 0002:00001a58       __imp__vfwprintf_p_l       0000000100419a58     legacy_stdio_definitions:legacy_stdio_definitions.obj
 0002:00001a60       __imp__vfwprintf_s_l       0000000100419a60     legacy_stdio_definitions:legacy_stdio_definitions.obj
 0002:00001a68       __imp__vfwscanf_l          0000000100419a68     legacy_stdio_definitions:legacy_stdio_definitions.obj
 0002:00001a70       __imp__vfwscanf_s_l        0000000100419a70     legacy_stdio_definitions:legacy_stdio_definitions.obj
 0002:00001a78       __imp__vprintf_l           0000000100419a78     legacy_stdio_definitions:legacy_stdio_definitions.obj
 0002:00001a80       __imp__vprintf_p           0000000100419a80     legacy_stdio_definitions:legacy_stdio_definitions.obj
 0002:00001a88       __imp__vprintf_p_l         0000000100419a88     legacy_stdio_definitions:legacy_stdio_definitions.obj
 0002:00001a90       __imp__vprintf_s_l         0000000100419a90     legacy_stdio_definitions:legacy_stdio_definitions.obj
 0002:00001a98       __imp__vscanf_l            0000000100419a98     legacy_stdio_definitions:legacy_stdio_definitions.obj
 0002:00001aa0       __imp__vscanf_s_l          0000000100419aa0     legacy_stdio_definitions:legacy_stdio_definitions.obj
 0002:00001aa8       __imp__vscprintf           0000000100419aa8     legacy_stdio_definitions:legacy_stdio_definitions.obj
 0002:00001ab0       __imp__vscprintf_l         0000000100419ab0     legacy_stdio_definitions:legacy_stdio_definitions.obj
 0002:00001ab8       __imp__vscprintf_p         0000000100419ab8     legacy_stdio_definitions:legacy_stdio_definitions.obj
 0002:00001ac0       __imp__vscprintf_p_l       0000000100419ac0     legacy_stdio_definitions:legacy_stdio_definitions.obj
 0002:00001ac8       __imp__vscwprintf          0000000100419ac8     legacy_stdio_definitions:legacy_stdio_definitions.obj
 0002:00001ad0       __imp__vscwprintf_l        0000000100419ad0     legacy_stdio_definitions:legacy_stdio_definitions.obj
 0002:00001ad8       __imp__vscwprintf_p        0000000100419ad8     legacy_stdio_definitions:legacy_stdio_definitions.obj
 0002:00001ae0       __imp__vscwprintf_p_l      0000000100419ae0     legacy_stdio_definitions:legacy_stdio_definitions.obj
 0002:00001ae8       __imp__vsnprintf           0000000100419ae8     legacy_stdio_definitions:legacy_stdio_definitions.obj
 0002:00001af0       __imp__vsnprintf_c         0000000100419af0     legacy_stdio_definitions:legacy_stdio_definitions.obj
 0002:00001af8       __imp__vsnprintf_c_l       0000000100419af8     legacy_stdio_definitions:legacy_stdio_definitions.obj
 0002:00001b00       __imp__vsnprintf_l         0000000100419b00     legacy_stdio_definitions:legacy_stdio_definitions.obj
 0002:00001b08       __imp__vsnprintf_s         0000000100419b08     legacy_stdio_definitions:legacy_stdio_definitions.obj
 0002:00001b10       __imp__vsnprintf_s_l       0000000100419b10     legacy_stdio_definitions:legacy_stdio_definitions.obj
 0002:00001b18       __imp__vsnwprintf          0000000100419b18     legacy_stdio_definitions:legacy_stdio_definitions.obj
 0002:00001b20       __imp__vsnwprintf_l        0000000100419b20     legacy_stdio_definitions:legacy_stdio_definitions.obj
 0002:00001b28       __imp__vsnwprintf_s        0000000100419b28     legacy_stdio_definitions:legacy_stdio_definitions.obj
 0002:00001b30       __imp__vsnwprintf_s_l      0000000100419b30     legacy_stdio_definitions:legacy_stdio_definitions.obj
 0002:00001b38       __imp__vsnwscanf_l         0000000100419b38     legacy_stdio_definitions:legacy_stdio_definitions.obj
 0002:00001b40       __imp__vsnwscanf_s_l       0000000100419b40     legacy_stdio_definitions:legacy_stdio_definitions.obj
 0002:00001b48       __imp__vsprintf_l          0000000100419b48     legacy_stdio_definitions:legacy_stdio_definitions.obj
 0002:00001b50       __imp__vsprintf_p          0000000100419b50     legacy_stdio_definitions:legacy_stdio_definitions.obj
 0002:00001b58       __imp__vsprintf_p_l        0000000100419b58     legacy_stdio_definitions:legacy_stdio_definitions.obj
 0002:00001b60       __imp__vsprintf_s_l        0000000100419b60     legacy_stdio_definitions:legacy_stdio_definitions.obj
 0002:00001b68       __imp__vsscanf_l           0000000100419b68     legacy_stdio_definitions:legacy_stdio_definitions.obj
 0002:00001b70       __imp__vsscanf_s_l         0000000100419b70     legacy_stdio_definitions:legacy_stdio_definitions.obj
 0002:00001b78       __imp__vswprintf           0000000100419b78     legacy_stdio_definitions:legacy_stdio_definitions.obj
 0002:00001b80       __imp__vswprintf_c         0000000100419b80     legacy_stdio_definitions:legacy_stdio_definitions.obj
 0002:00001b88       __imp__vswprintf_c_l       0000000100419b88     legacy_stdio_definitions:legacy_stdio_definitions.obj
 0002:00001b90       __imp__vswprintf_l         0000000100419b90     legacy_stdio_definitions:legacy_stdio_definitions.obj
 0002:00001b98       __imp__vswprintf_p         0000000100419b98     legacy_stdio_definitions:legacy_stdio_definitions.obj
 0002:00001ba0       __imp__vswprintf_p_l       0000000100419ba0     legacy_stdio_definitions:legacy_stdio_definitions.obj
 0002:00001ba8       __imp__vswprintf_s_l       0000000100419ba8     legacy_stdio_definitions:legacy_stdio_definitions.obj
 0002:00001bb0       __imp__vswscanf_l          0000000100419bb0     legacy_stdio_definitions:legacy_stdio_definitions.obj
 0002:00001bb8       __imp__vswscanf_s_l        0000000100419bb8     legacy_stdio_definitions:legacy_stdio_definitions.obj
 0002:00001bc0       __imp__vwprintf_l          0000000100419bc0     legacy_stdio_definitions:legacy_stdio_definitions.obj
 0002:00001bc8       __imp__vwprintf_p          0000000100419bc8     legacy_stdio_definitions:legacy_stdio_definitions.obj
 0002:00001bd0       __imp__vwprintf_p_l        0000000100419bd0     legacy_stdio_definitions:legacy_stdio_definitions.obj
 0002:00001bd8       __imp__vwprintf_s_l        0000000100419bd8     legacy_stdio_definitions:legacy_stdio_definitions.obj
 0002:00001be0       __imp__vwscanf_l           0000000100419be0     legacy_stdio_definitions:legacy_stdio_definitions.obj
 0002:00001be8       __imp__vwscanf_s_l         0000000100419be8     legacy_stdio_definitions:legacy_stdio_definitions.obj
 0002:00001bf0       __imp__wprintf_l           0000000100419bf0     legacy_stdio_definitions:legacy_stdio_definitions.obj
 0002:00001bf8       __imp__wprintf_p           0000000100419bf8     legacy_stdio_definitions:legacy_stdio_definitions.obj
 0002:00001c00       __imp__wprintf_p_l         0000000100419c00     legacy_stdio_definitions:legacy_stdio_definitions.obj
 0002:00001c08       __imp__wprintf_s_l         0000000100419c08     legacy_stdio_definitions:legacy_stdio_definitions.obj
 0002:00001c10       __imp__wscanf_l            0000000100419c10     legacy_stdio_definitions:legacy_stdio_definitions.obj
 0002:00001c18       __imp__wscanf_s_l          0000000100419c18     legacy_stdio_definitions:legacy_stdio_definitions.obj
 0002:00001c20       __imp_fprintf              0000000100419c20     legacy_stdio_definitions:legacy_stdio_definitions.obj
 0002:00001c28       __imp_fprintf_s            0000000100419c28     legacy_stdio_definitions:legacy_stdio_definitions.obj
 0002:00001c30       __imp_fscanf               0000000100419c30     legacy_stdio_definitions:legacy_stdio_definitions.obj
 0002:00001c38       __imp_fscanf_s             0000000100419c38     legacy_stdio_definitions:legacy_stdio_definitions.obj
 0002:00001c40       __imp_fwprintf             0000000100419c40     legacy_stdio_definitions:legacy_stdio_definitions.obj
 0002:00001c48       __imp_fwprintf_s           0000000100419c48     legacy_stdio_definitions:legacy_stdio_definitions.obj
 0002:00001c50       __imp_fwscanf              0000000100419c50     legacy_stdio_definitions:legacy_stdio_definitions.obj
 0002:00001c58       __imp_fwscanf_s            0000000100419c58     legacy_stdio_definitions:legacy_stdio_definitions.obj
 0002:00001c60       __imp_printf               0000000100419c60     legacy_stdio_definitions:legacy_stdio_definitions.obj
 0002:00001c68       __imp_printf_s             0000000100419c68     legacy_stdio_definitions:legacy_stdio_definitions.obj
 0002:00001c70       __imp_scanf                0000000100419c70     legacy_stdio_definitions:legacy_stdio_definitions.obj
 0002:00001c78       __imp_scanf_s              0000000100419c78     legacy_stdio_definitions:legacy_stdio_definitions.obj
 0002:00001c80       __imp_snprintf             0000000100419c80     legacy_stdio_definitions:legacy_stdio_definitions.obj
 0002:00001c88       __imp_sprintf              0000000100419c88     legacy_stdio_definitions:legacy_stdio_definitions.obj
 0002:00001c90       __imp_sprintf_s            0000000100419c90     legacy_stdio_definitions:legacy_stdio_definitions.obj
 0002:00001c98       __imp_sscanf               0000000100419c98     legacy_stdio_definitions:legacy_stdio_definitions.obj
 0002:00001ca0       __imp_sscanf_s             0000000100419ca0     legacy_stdio_definitions:legacy_stdio_definitions.obj
 0002:00001ca8       __imp_swprintf             0000000100419ca8     legacy_stdio_definitions:legacy_stdio_definitions.obj
 0002:00001cb0       __imp_swprintf_s           0000000100419cb0     legacy_stdio_definitions:legacy_stdio_definitions.obj
 0002:00001cb8       __imp_swscanf              0000000100419cb8     legacy_stdio_definitions:legacy_stdio_definitions.obj
 0002:00001cc0       __imp_swscanf_s            0000000100419cc0     legacy_stdio_definitions:legacy_stdio_definitions.obj
 0002:00001cc8       __imp_vfprintf             0000000100419cc8     legacy_stdio_definitions:legacy_stdio_definitions.obj
 0002:00001cd0       __imp_vfprintf_s           0000000100419cd0     legacy_stdio_definitions:legacy_stdio_definitions.obj
 0002:00001cd8       __imp_vfscanf              0000000100419cd8     legacy_stdio_definitions:legacy_stdio_definitions.obj
 0002:00001ce0       __imp_vfscanf_s            0000000100419ce0     legacy_stdio_definitions:legacy_stdio_definitions.obj
 0002:00001ce8       __imp_vfwprintf            0000000100419ce8     legacy_stdio_definitions:legacy_stdio_definitions.obj
 0002:00001cf0       __imp_vfwprintf_s          0000000100419cf0     legacy_stdio_definitions:legacy_stdio_definitions.obj
 0002:00001cf8       __imp_vfwscanf             0000000100419cf8     legacy_stdio_definitions:legacy_stdio_definitions.obj
 0002:00001d00       __imp_vfwscanf_s           0000000100419d00     legacy_stdio_definitions:legacy_stdio_definitions.obj
 0002:00001d08       __imp_vprintf              0000000100419d08     legacy_stdio_definitions:legacy_stdio_definitions.obj
 0002:00001d10       __imp_vprintf_s            0000000100419d10     legacy_stdio_definitions:legacy_stdio_definitions.obj
 0002:00001d18       __imp_vscanf               0000000100419d18     legacy_stdio_definitions:legacy_stdio_definitions.obj
 0002:00001d20       __imp_vscanf_s             0000000100419d20     legacy_stdio_definitions:legacy_stdio_definitions.obj
 0002:00001d28       __imp_vsnprintf            0000000100419d28     legacy_stdio_definitions:legacy_stdio_definitions.obj
 0002:00001d30       __imp_vsnprintf_s          0000000100419d30     legacy_stdio_definitions:legacy_stdio_definitions.obj
 0002:00001d38       __imp_vsprintf             0000000100419d38     legacy_stdio_definitions:legacy_stdio_definitions.obj
 0002:00001d40       __imp_vsprintf_s           0000000100419d40     legacy_stdio_definitions:legacy_stdio_definitions.obj
 0002:00001d48       __imp_vsscanf              0000000100419d48     legacy_stdio_definitions:legacy_stdio_definitions.obj
 0002:00001d50       __imp_vsscanf_s            0000000100419d50     legacy_stdio_definitions:legacy_stdio_definitions.obj
 0002:00001d58       __imp_vswprintf            0000000100419d58     legacy_stdio_definitions:legacy_stdio_definitions.obj
 0002:00001d60       __imp_vswprintf_s          0000000100419d60     legacy_stdio_definitions:legacy_stdio_definitions.obj
 0002:00001d68       __imp_vswscanf             0000000100419d68     legacy_stdio_definitions:legacy_stdio_definitions.obj
 0002:00001d70       __imp_vswscanf_s           0000000100419d70     legacy_stdio_definitions:legacy_stdio_definitions.obj
 0002:00001d78       __imp_vwprintf             0000000100419d78     legacy_stdio_definitions:legacy_stdio_definitions.obj
 0002:00001d80       __imp_vwprintf_s           0000000100419d80     legacy_stdio_definitions:legacy_stdio_definitions.obj
 0002:00001d88       __imp_vwscanf              0000000100419d88     legacy_stdio_definitions:legacy_stdio_definitions.obj
 0002:00001d90       __imp_vwscanf_s            0000000100419d90     legacy_stdio_definitions:legacy_stdio_definitions.obj
 0002:00001d98       __imp_wprintf              0000000100419d98     legacy_stdio_definitions:legacy_stdio_definitions.obj
 0002:00001da0       __imp_wprintf_s            0000000100419da0     legacy_stdio_definitions:legacy_stdio_definitions.obj
 0002:00001da8       __imp_wscanf               0000000100419da8     legacy_stdio_definitions:legacy_stdio_definitions.obj
 0002:00001db0       __imp_wscanf_s             0000000100419db0     legacy_stdio_definitions:legacy_stdio_definitions.obj
 0002:00001dc0       _load_config_used          0000000100419dc0     MSVCRTD:loadcfg.obj
 0002:00001f80       __CastGuardVftablesStart   0000000100419f80     MSVCRTD:guard_support.obj
 0002:00002000       __CastGuardVftablesEnd     000000010041a000     MSVCRTD:guard_support.obj
 0002:00002080       __volatile_metadata        000000010041a080     <linker-defined>
 0002:00002510       __rtc_iaa                  000000010041a510     MSVCRTD:initsect.obj
 0002:00002520       __rtc_izz                  000000010041a520     MSVCRTD:initsect.obj
 0002:00002528       __rtc_taa                  000000010041a528     MSVCRTD:initsect.obj
 0002:00002538       __rtc_tzz                  000000010041a538     MSVCRTD:initsect.obj
 0002:00003a14       __IMPORT_DESCRIPTOR_hengine 000000010041ba14     hengine:hengine.dll
 0002:00003a28       __IMPORT_DESCRIPTOR_hutil  000000010041ba28     hutil:hutil.dll
 0002:00003a3c       __IMPORT_DESCRIPTOR_hsys   000000010041ba3c     hsys:hsys.dll
 0002:00003a50       __IMPORT_DESCRIPTOR_KERNEL32 000000010041ba50     kernel32:KERNEL32.dll
 0002:00003a64       __IMPORT_DESCRIPTOR_WS2_32 000000010041ba64     ws2_32:WS2_32.dll
 0002:00003a78       __IMPORT_DESCRIPTOR_VCRUNTIME140D 000000010041ba78     vcruntimed:VCRUNTIME140D.dll
 0002:00003a8c       __IMPORT_DESCRIPTOR_ucrtbased 000000010041ba8c     ucrtd:ucrtbased.dll
 0002:00003aa0       __NULL_IMPORT_DESCRIPTOR   000000010041baa0     hengine:hengine.dll
 0003:000007f0       slowpoll                   000000010041d7f0     console.obj
 0003:00000800       fastpoll                   000000010041d800     console.obj
 0003:00000810       timeout                    000000010041d810     console.obj
 0003:00004630       __security_cookie_complement 0000000100421630     MSVCRTD:gs_cookie.obj
 0003:00004638       __security_cookie          0000000100421638     MSVCRTD:gs_cookie.obj
 0003:00004640       _fltused                   0000000100421640     MSVCRTD:fltused.obj
 0003:00004644       __scrt_native_dllmain_reason 0000000100421644     MSVCRTD:utility.obj
 0003:00004648       ?_RTC_ErrorLevels@@3PAHA   0000000100421648     MSVCRTD:error.obj
 0003:00004660       __isa_available            0000000100421660     MSVCRTD:cpu_disp.obj
 0003:00004664       __isa_enabled              0000000100421664     MSVCRTD:cpu_disp.obj
 0003:00004668       __memset_fast_string_threshold 0000000100421668     MSVCRTD:cpu_disp.obj
 0003:00004670       __memset_nt_threshold      0000000100421670     MSVCRTD:cpu_disp.obj
 0003:00004680       __scrt_ucrt_dll_is_in_use  0000000100421680     MSVCRTD:ucrt_stubs.obj
 0003:00004698       previo                     0000000100421698     console.obj
 0003:00004cd0       ?__type_info_root_node@@3U__type_info_node@@A 0000000100421cd0     MSVCRTD:tncleanup.obj
 0003:00004ce0       ?_OptionsStorage@?1??__local_stdio_printf_options@@9@4_KA 0000000100421ce0     MSVCRTD:default_local_stdio_options.obj
 0003:00004ce8       ?_OptionsStorage@?1??__local_stdio_scanf_options@@9@4_KA 0000000100421ce8     MSVCRTD:default_local_stdio_options.obj
 0003:00004cf0       __scrt_current_native_startup_state 0000000100421cf0     MSVCRTD:utility.obj
 0003:00004cf8       __scrt_native_startup_lock 0000000100421cf8     MSVCRTD:utility.obj
 0003:00004d38       __scrt_debugger_hook_flag  0000000100421d38     MSVCRTD:utility_desktop.obj
 0003:00004d50       __favor                    0000000100421d50     MSVCRTD:cpu_disp.obj
 0003:00004d68       ?_OptionsStorage@?1??__local_stdio_scanf_options@@9@9 0000000100421d68     <common>
 0003:00004d70       ?_OptionsStorage@?1??__local_stdio_printf_options@@9@9 0000000100421d70     <common>
 0003:00004d78       diffio                     0000000100421d78     <common>
 0003:00004d80       currio                     0000000100421d80     <common>
 0003:00004d88       __@@_PchSym_@00@UkzkzUnbtrgUsbkvirlmRaevxgliUnhexOwvyftOznwGEOlyqUyfrowPkxsOlyq@4B2008FD98C1DD4 0000000100421d88     <common>
 0003:00004d90       __dyn_tls_init_callback    0000000100421d90     <common>

 entry point at        0001:000101f0

 Static symbols

 0000:00000000       _volmd                     0000000100400000     console.obj
 0000:fffc7000       .debug$S                   0000000100400000     hdt3270.exp
 0000:fffc7000       .debug$S                   0000000100400000     kernel32:KERNEL32.dll
 0000:fffc7000       .debug$S                   0000000100400000     kernel32:KERNEL32.dll
 0000:fffc7000       .debug$S                   0000000100400000     kernel32:KERNEL32.dll
 0000:fffc7000       .debug$S                   0000000100400000     kernel32:KERNEL32.dll
 0000:fffc7000       .debug$S                   0000000100400000     kernel32:KERNEL32.dll
 0000:fffc7000       .debug$S                   0000000100400000     kernel32:KERNEL32.dll
 0000:fffc7000       .debug$S                   0000000100400000     kernel32:KERNEL32.dll
 0000:fffc7000       .debug$S                   0000000100400000     kernel32:KERNEL32.dll
 0000:fffc7000       .debug$S                   0000000100400000     kernel32:KERNEL32.dll
 0000:fffc7000       .debug$S                   0000000100400000     kernel32:KERNEL32.dll
 0000:fffc7000       .debug$S                   0000000100400000     kernel32:KERNEL32.dll
 0000:fffc7000       .debug$S                   0000000100400000     kernel32:KERNEL32.dll
 0000:fffc7000       .debug$S                   0000000100400000     kernel32:KERNEL32.dll
 0000:fffc7000       .debug$S                   0000000100400000     kernel32:KERNEL32.dll
 0000:fffc7000       .debug$S                   0000000100400000     kernel32:KERNEL32.dll
 0000:fffc7000       .debug$S                   0000000100400000     kernel32:KERNEL32.dll
 0000:fffc7000       .debug$S                   0000000100400000     kernel32:KERNEL32.dll
 0000:fffc7000       .debug$S                   0000000100400000     kernel32:KERNEL32.dll
 0000:fffc7000       .debug$S                   0000000100400000     kernel32:KERNEL32.dll
 0000:fffc7000       .debug$S                   0000000100400000     kernel32:KERNEL32.dll
 0000:fffc7000       .debug$S                   0000000100400000     kernel32:KERNEL32.dll
 0000:fffc7000       .debug$S                   0000000100400000     kernel32:KERNEL32.dll
 0000:fffc7000       .debug$S                   0000000100400000     kernel32:KERNEL32.dll
 0000:fffc7000       .debug$S                   0000000100400000     kernel32:KERNEL32.dll
 0000:fffc7000       .debug$S                   0000000100400000     kernel32:KERNEL32.dll
 0000:fffc7000       .debug$S                   0000000100400000     kernel32:KERNEL32.dll
 0000:fffc7000       .debug$S                   0000000100400000     kernel32:KERNEL32.dll
 0000:fffc7000       .debug$S                   0000000100400000     kernel32:KERNEL32.dll
 0000:fffc7000       .debug$S                   0000000100400000     ws2_32:WS2_32.dll
 0000:fffc7000       .debug$S                   0000000100400000     ws2_32:WS2_32.dll
 0000:fffc7000       .debug$S                   0000000100400000     ws2_32:WS2_32.dll
 0000:fffc7000       .debug$S                   0000000100400000     ws2_32:WS2_32.dll
 0000:fffc7000       .debug$S                   0000000100400000     ws2_32:WS2_32.dll
 0000:fffc7000       .debug$S                   0000000100400000     ws2_32:WS2_32.dll
 0000:fffc7000       .debug$S                   0000000100400000     ws2_32:WS2_32.dll
 0000:fffc7000       .debug$S                   0000000100400000     ws2_32:WS2_32.dll
 0000:fffc7000       .debug$S                   0000000100400000     ws2_32:WS2_32.dll
 0000:fffc7000       .debug$S                   0000000100400000     ws2_32:WS2_32.dll
 0000:fffc7000       .debug$S                   0000000100400000     ws2_32:WS2_32.dll
 0000:fffc7000       .debug$S                   0000000100400000     ws2_32:WS2_32.dll
 0000:fffc7000       .debug$S                   0000000100400000     ws2_32:WS2_32.dll
 0000:fffc7000       .debug$S                   0000000100400000     ws2_32:WS2_32.dll
 0000:fffc7000       .debug$S                   0000000100400000     ws2_32:WS2_32.dll
 0000:fffc7000       .debug$S                   0000000100400000     ws2_32:WS2_32.dll
 0000:fffc7000       .debug$S                   0000000100400000     ws2_32:WS2_32.dll
 0000:fffc7000       .debug$S                   0000000100400000     ws2_32:WS2_32.dll
 0000:fffc7000       .debug$S                   0000000100400000     ws2_32:WS2_32.dll
 0000:fffc7000       .debug$S                   0000000100400000     ucrtd:ucrtbased.dll
 0000:fffc7000       .debug$S                   0000000100400000     ucrtd:ucrtbased.dll
 0000:fffc7000       .debug$S                   0000000100400000     ucrtd:ucrtbased.dll
 0000:fffc7000       .debug$S                   0000000100400000     ucrtd:ucrtbased.dll
 0000:fffc7000       .debug$S                   0000000100400000     ucrtd:ucrtbased.dll
 0000:fffc7000       .debug$S                   0000000100400000     ucrtd:ucrtbased.dll
 0000:fffc7000       .debug$S                   0000000100400000     ucrtd:ucrtbased.dll
 0000:fffc7000       .debug$S                   0000000100400000     ucrtd:ucrtbased.dll
 0000:fffc7000       .debug$S                   0000000100400000     ucrtd:ucrtbased.dll
 0000:fffc7000       .debug$S                   0000000100400000     ucrtd:ucrtbased.dll
 0000:fffc7000       .debug$S                   0000000100400000     ucrtd:ucrtbased.dll
 0000:fffc7000       .debug$S                   0000000100400000     ucrtd:ucrtbased.dll
 0000:fffc7000       .debug$S                   0000000100400000     ucrtd:ucrtbased.dll
 0000:fffc7000       .debug$S                   0000000100400000     ucrtd:ucrtbased.dll
 0000:fffc7000       .debug$S                   0000000100400000     ucrtd:ucrtbased.dll
 0000:fffc7000       .debug$S                   0000000100400000     ucrtd:ucrtbased.dll
 0000:fffc7000       .debug$S                   0000000100400000     ucrtd:ucrtbased.dll
 0000:fffc7000       .debug$S                   0000000100400000     ucrtd:ucrtbased.dll
 0000:fffc7000       .debug$S                   0000000100400000     ucrtd:ucrtbased.dll
 0000:fffc7000       .debug$S                   0000000100400000     ucrtd:ucrtbased.dll
 0000:fffc7000       .debug$S                   0000000100400000     ucrtd:ucrtbased.dll
 0000:fffc7000       .debug$S                   0000000100400000     ucrtd:ucrtbased.dll
 0000:fffc7000       .debug$S                   0000000100400000     ucrtd:ucrtbased.dll
 0000:fffc7000       .debug$S                   0000000100400000     ucrtd:ucrtbased.dll
 0000:fffc7000       .debug$S                   0000000100400000     ucrtd:ucrtbased.dll
 0000:fffc7000       .debug$S                   0000000100400000     ucrtd:ucrtbased.dll
 0000:fffc7000       .debug$S                   0000000100400000     ucrtd:ucrtbased.dll
 0000:fffc7000       .debug$S                   0000000100400000     ucrtd:ucrtbased.dll
 0000:fffc7000       .debug$S                   0000000100400000     ucrtd:ucrtbased.dll
 0000:fffc7000       .debug$S                   0000000100400000     ucrtd:ucrtbased.dll
 0000:fffc7000       .debug$S                   0000000100400000     ucrtd:ucrtbased.dll
 0000:fffc7000       .debug$S                   0000000100400000     ucrtd:ucrtbased.dll
 0000:fffc7000       .debug$S                   0000000100400000     ucrtd:ucrtbased.dll
 0000:fffc7000       .debug$S                   0000000100400000     ucrtd:ucrtbased.dll
 0000:fffc7000       .debug$S                   0000000100400000     ucrtd:ucrtbased.dll
 0000:fffc7000       .debug$S                   0000000100400000     ucrtd:ucrtbased.dll
 0000:fffc7000       .debug$S                   0000000100400000     ucrtd:ucrtbased.dll
 0000:fffc7000       .debug$S                   0000000100400000     ucrtd:ucrtbased.dll
 0000:fffc7000       .debug$S                   0000000100400000     ucrtd:ucrtbased.dll
 0000:fffc7000       .debug$S                   0000000100400000     ucrtd:ucrtbased.dll
 0000:fffc7000       .debug$S                   0000000100400000     ucrtd:ucrtbased.dll
 0000:fffc7000       .debug$S                   0000000100400000     ucrtd:ucrtbased.dll
 0000:fffc7000       .debug$S                   0000000100400000     ucrtd:ucrtbased.dll
 0000:fffc7000       .debug$S                   0000000100400000     ucrtd:ucrtbased.dll
 0000:fffc7000       .debug$S                   0000000100400000     ucrtd:ucrtbased.dll
 0000:fffc7000       .debug$S                   0000000100400000     ucrtd:ucrtbased.dll
 0000:fffc7000       .debug$S                   0000000100400000     ucrtd:ucrtbased.dll
 0000:fffc7000       .debug$S                   0000000100400000     ucrtd:ucrtbased.dll
 0000:fffc7000       .debug$S                   0000000100400000     ucrtd:ucrtbased.dll
 0000:fffc7000       .debug$S                   0000000100400000     ucrtd:ucrtbased.dll
 0000:fffc7000       .debug$S                   0000000100400000     ucrtd:ucrtbased.dll
 0000:fffc7000       .debug$S                   0000000100400000     ucrtd:ucrtbased.dll
 0000:fffc7000       .debug$S                   0000000100400000     ucrtd:ucrtbased.dll
 0000:fffc7000       .debug$S                   0000000100400000     ucrtd:ucrtbased.dll
 0000:fffc7000       .debug$S                   0000000100400000     ucrtd:ucrtbased.dll
 0000:fffc7000       .debug$S                   0000000100400000     ucrtd:ucrtbased.dll
 0000:fffc7000       .debug$S                   0000000100400000     ucrtd:ucrtbased.dll
 0000:00000000       _volmd                     0000000100400000     MSVCRTD:cpu_disp.obj
 0002:fffe8000       __guard_ehcont_?dllmain_dispatch@@YAHQEAUHINSTANCE__@@KQEAX@Z 0000000100400000     MSVCRTD:dll_dllmain.obj
 0002:fffe8000       __guard_fids_?dllmain_dispatch@@YAHQEAUHINSTANCE__@@KQEAX@Z 0000000100400000     MSVCRTD:dll_dllmain.obj
 0002:fffe8000       __guard_ehcont_?notify_debugger@@YAXAEBUtagEXCEPTION_VISUALCPP_DEBUG_INFO@@@Z 0000000100400000     MSVCRTD:error.obj
 0000:00000000       _volmd                     0000000100400000     MSVCRTD:gs_report.obj
 0000:00000000       _volmd                     0000000100400000     MSVCRTD:gs_report.obj
 0000:00000000       _volmd                     0000000100400000     MSVCRTD:gs_report.obj
 0002:fffe8000       __guard_fids__             0000000100400000     MSVCRTD:guard_support.obj
 0002:fffe8000       __guard_fids__             0000000100400000     MSVCRTD:guard_support.obj
 0002:fffe8000       __guard_fids__guard_icall_checks_enforced 0000000100400000     MSVCRTD:guard_support.obj
 0000:00000000       _volmd                     0000000100400000     MSVCRTD:guard_support.obj
 0000:00000000       _volmd                     0000000100400000     MSVCRTD:guard_support.obj
 0002:fffe8000       __guard_fids__CRT_RTC_INIT 0000000100400000     MSVCRTD:init.obj
 0002:fffe8000       __guard_fids__CRT_RTC_INITW 0000000100400000     MSVCRTD:init.obj
 0002:fffe8000       __guard_ehcont___scrt_is_nonwritable_in_current_image 0000000100400000     MSVCRTD:utility.obj
 0000:00000000       _volmd                     0000000100400000     MSVCRTD:utility.obj
 0000:00000000       _volmd                     0000000100400000     MSVCRTD:utility.obj
 0000:00000000       _volmd                     0000000100400000     MSVCRTD:utility.obj
 0002:fffe8000       __guard_fids___scrt_set_unhandled_exception_filter 0000000100400000     MSVCRTD:utility_desktop.obj
 0000:00000000       _volmd                     0000000100400000     MSVCRTD:utility_desktop.obj
 0002:fffe8000       $unwind$_vsnprintf_s       0000000100400000     legacy_stdio_definitions:legacy_stdio_definitions.obj
 0002:fffe8000       $unwind$_vsnprintf_s_l     0000000100400000     legacy_stdio_definitions:legacy_stdio_definitions.obj
 0002:fffe8000       $unwind$_vsprintf_s_l      0000000100400000     legacy_stdio_definitions:legacy_stdio_definitions.obj
 0002:fffe8000       $unwind$_vsscanf_l         0000000100400000     legacy_stdio_definitions:legacy_stdio_definitions.obj
 0002:fffe8000       $unwind$sprintf_s          0000000100400000     legacy_stdio_definitions:legacy_stdio_definitions.obj
 0002:fffe8000       $unwind$sscanf             0000000100400000     legacy_stdio_definitions:legacy_stdio_definitions.obj
 0002:fffe8000       __guard_fids__             0000000100400000     legacy_stdio_definitions:legacy_stdio_definitions.obj
 0002:fffe8000       __guard_fids__             0000000100400000     legacy_stdio_definitions:legacy_stdio_definitions.obj
 0002:fffe8000       __guard_fids__             0000000100400000     legacy_stdio_definitions:legacy_stdio_definitions.obj
 0002:fffe8000       __guard_fids__             0000000100400000     legacy_stdio_definitions:legacy_stdio_definitions.obj
 0002:fffe8000       __guard_fids__             0000000100400000     legacy_stdio_definitions:legacy_stdio_definitions.obj
 0002:fffe8000       __guard_fids__             0000000100400000     legacy_stdio_definitions:legacy_stdio_definitions.obj
 0002:fffe8000       __guard_fids__             0000000100400000     legacy_stdio_definitions:legacy_stdio_definitions.obj
 0002:fffe8000       __guard_fids__             0000000100400000     legacy_stdio_definitions:legacy_stdio_definitions.obj
 0002:fffe8000       __guard_fids__             0000000100400000     legacy_stdio_definitions:legacy_stdio_definitions.obj
 0002:fffe8000       __guard_fids__             0000000100400000     legacy_stdio_definitions:legacy_stdio_definitions.obj
 0002:fffe8000       __guard_fids__             0000000100400000     legacy_stdio_definitions:legacy_stdio_definitions.obj
 0002:fffe8000       __guard_fids__             0000000100400000     legacy_stdio_definitions:legacy_stdio_definitions.obj
 0002:fffe8000       __guard_fids__             0000000100400000     legacy_stdio_definitions:legacy_stdio_definitions.obj
 0002:fffe8000       __guard_fids__             0000000100400000     legacy_stdio_definitions:legacy_stdio_definitions.obj
 0002:fffe8000       __guard_fids__             0000000100400000     legacy_stdio_definitions:legacy_stdio_definitions.obj
 0002:fffe8000       __guard_fids__             0000000100400000     legacy_stdio_definitions:legacy_stdio_definitions.obj
 0002:fffe8000       __guard_fids__             0000000100400000     legacy_stdio_definitions:legacy_stdio_definitions.obj
 0002:fffe8000       __guard_fids__             0000000100400000     legacy_stdio_definitions:legacy_stdio_definitions.obj
 0002:fffe8000       __guard_fids__             0000000100400000     legacy_stdio_definitions:legacy_stdio_definitions.obj
 0002:fffe8000       __guard_fids__             0000000100400000     legacy_stdio_definitions:legacy_stdio_definitions.obj
 0002:fffe8000       __guard_fids__             0000000100400000     legacy_stdio_definitions:legacy_stdio_definitions.obj
 0002:fffe8000       __guard_fids__             0000000100400000     legacy_stdio_definitions:legacy_stdio_definitions.obj
 0002:fffe8000       __guard_fids__             0000000100400000     legacy_stdio_definitions:legacy_stdio_definitions.obj
 0002:fffe8000       __guard_fids__             0000000100400000     legacy_stdio_definitions:legacy_stdio_definitions.obj
 0002:fffe8000       __guard_fids__             0000000100400000     legacy_stdio_definitions:legacy_stdio_definitions.obj
 0002:fffe8000       __guard_fids__             0000000100400000     legacy_stdio_definitions:legacy_stdio_definitions.obj
 0002:fffe8000       __guard_fids__             0000000100400000     legacy_stdio_definitions:legacy_stdio_definitions.obj
 0002:fffe8000       __guard_fids__             0000000100400000     legacy_stdio_definitions:legacy_stdio_definitions.obj
 0002:fffe8000       __guard_fids__             0000000100400000     legacy_stdio_definitions:legacy_stdio_definitions.obj
 0002:fffe8000       __guard_fids__             0000000100400000     legacy_stdio_definitions:legacy_stdio_definitions.obj
 0002:fffe8000       __guard_fids__             0000000100400000     legacy_stdio_definitions:legacy_stdio_definitions.obj
 0002:fffe8000       __guard_fids__             0000000100400000     legacy_stdio_definitions:legacy_stdio_definitions.obj
 0002:fffe8000       __guard_fids__             0000000100400000     legacy_stdio_definitions:legacy_stdio_definitions.obj
 0002:fffe8000       __guard_fids__             0000000100400000     legacy_stdio_definitions:legacy_stdio_definitions.obj
 0002:fffe8000       __guard_fids__             0000000100400000     legacy_stdio_definitions:legacy_stdio_definitions.obj
 0002:fffe8000       __guard_fids__             0000000100400000     legacy_stdio_definitions:legacy_stdio_definitions.obj
 0002:fffe8000       __guard_fids__             0000000100400000     legacy_stdio_definitions:legacy_stdio_definitions.obj
 0002:fffe8000       __guard_fids__             0000000100400000     legacy_stdio_definitions:legacy_stdio_definitions.obj
 0002:fffe8000       __guard_fids__             0000000100400000     legacy_stdio_definitions:legacy_stdio_definitions.obj
 0002:fffe8000       __guard_fids__             0000000100400000     legacy_stdio_definitions:legacy_stdio_definitions.obj
 0002:fffe8000       __guard_fids__             0000000100400000     legacy_stdio_definitions:legacy_stdio_definitions.obj
 0002:fffe8000       __guard_fids__             0000000100400000     legacy_stdio_definitions:legacy_stdio_definitions.obj
 0002:fffe8000       __guard_fids__             0000000100400000     legacy_stdio_definitions:legacy_stdio_definitions.obj
 0002:fffe8000       __guard_fids__             0000000100400000     legacy_stdio_definitions:legacy_stdio_definitions.obj
 0002:fffe8000       __guard_fids__             0000000100400000     legacy_stdio_definitions:legacy_stdio_definitions.obj
 0002:fffe8000       __guard_fids__             0000000100400000     legacy_stdio_definitions:legacy_stdio_definitions.obj
 0002:fffe8000       __guard_fids__             0000000100400000     legacy_stdio_definitions:legacy_stdio_definitions.obj
 0002:fffe8000       __guard_fids__             0000000100400000     legacy_stdio_definitions:legacy_stdio_definitions.obj
 0002:fffe8000       __guard_fids__             0000000100400000     legacy_stdio_definitions:legacy_stdio_definitions.obj
 0002:fffe8000       __guard_fids__             0000000100400000     legacy_stdio_definitions:legacy_stdio_definitions.obj
 0002:fffe8000       __guard_fids__             0000000100400000     legacy_stdio_definitions:legacy_stdio_definitions.obj
 0002:fffe8000       __guard_fids__             0000000100400000     legacy_stdio_definitions:legacy_stdio_definitions.obj
 0002:fffe8000       __guard_fids__             0000000100400000     legacy_stdio_definitions:legacy_stdio_definitions.obj
 0002:fffe8000       __guard_fids__             0000000100400000     legacy_stdio_definitions:legacy_stdio_definitions.obj
 0002:fffe8000       __guard_fids__             0000000100400000     legacy_stdio_definitions:legacy_stdio_definitions.obj
 0002:fffe8000       __guard_fids__             0000000100400000     legacy_stdio_definitions:legacy_stdio_definitions.obj
 0002:fffe8000       __guard_fids__             0000000100400000     legacy_stdio_definitions:legacy_stdio_definitions.obj
 0002:fffe8000       __guard_fids__             0000000100400000     legacy_stdio_definitions:legacy_stdio_definitions.obj
 0002:fffe8000       __guard_fids__             0000000100400000     legacy_stdio_definitions:legacy_stdio_definitions.obj
 0002:fffe8000       __guard_fids__             0000000100400000     legacy_stdio_definitions:legacy_stdio_definitions.obj
 0002:fffe8000       __guard_fids__             0000000100400000     legacy_stdio_definitions:legacy_stdio_definitions.obj
 0002:fffe8000       __guard_fids__             0000000100400000     legacy_stdio_definitions:legacy_stdio_definitions.obj
 0002:fffe8000       __guard_fids__             0000000100400000     legacy_stdio_definitions:legacy_stdio_definitions.obj
 0002:fffe8000       __guard_fids__             0000000100400000     legacy_stdio_definitions:legacy_stdio_definitions.obj
 0002:fffe8000       __guard_fids__             0000000100400000     legacy_stdio_definitions:legacy_stdio_definitions.obj
 0002:fffe8000       __guard_fids__             0000000100400000     legacy_stdio_definitions:legacy_stdio_definitions.obj
 0002:fffe8000       __guard_fids__             0000000100400000     legacy_stdio_definitions:legacy_stdio_definitions.obj
 0002:fffe8000       __guard_fids__             0000000100400000     legacy_stdio_definitions:legacy_stdio_definitions.obj
 0002:fffe8000       __guard_fids__             0000000100400000     legacy_stdio_definitions:legacy_stdio_definitions.obj
 0002:fffe8000       __guard_fids__             0000000100400000     legacy_stdio_definitions:legacy_stdio_definitions.obj
 0002:fffe8000       __guard_fids__             0000000100400000     legacy_stdio_definitions:legacy_stdio_definitions.obj
 0002:fffe8000       __guard_fids__             0000000100400000     legacy_stdio_definitions:legacy_stdio_definitions.obj
 0002:fffe8000       __guard_fids__             0000000100400000     legacy_stdio_definitions:legacy_stdio_definitions.obj
 0002:fffe8000       __guard_fids__             0000000100400000     legacy_stdio_definitions:legacy_stdio_definitions.obj
 0002:fffe8000       __guard_fids__             0000000100400000     legacy_stdio_definitions:legacy_stdio_definitions.obj
 0002:fffe8000       __guard_fids__             0000000100400000     legacy_stdio_definitions:legacy_stdio_definitions.obj
 0002:fffe8000       __guard_fids__             0000000100400000     legacy_stdio_definitions:legacy_stdio_definitions.obj
 0002:fffe8000       __guard_fids__             0000000100400000     legacy_stdio_definitions:legacy_stdio_definitions.obj
 0002:fffe8000       __guard_fids__             0000000100400000     legacy_stdio_definitions:legacy_stdio_definitions.obj
 0002:fffe8000       __guard_fids__             0000000100400000     legacy_stdio_definitions:legacy_stdio_definitions.obj
 0002:fffe8000       __guard_fids__             0000000100400000     legacy_stdio_definitions:legacy_stdio_definitions.obj
 0002:fffe8000       __guard_fids__             0000000100400000     legacy_stdio_definitions:legacy_stdio_definitions.obj
 0002:fffe8000       __guard_fids__             0000000100400000     legacy_stdio_definitions:legacy_stdio_definitions.obj
 0002:fffe8000       __guard_fids__             0000000100400000     legacy_stdio_definitions:legacy_stdio_definitions.obj
 0002:fffe8000       __guard_fids__             0000000100400000     legacy_stdio_definitions:legacy_stdio_definitions.obj
 0002:fffe8000       __guard_fids__             0000000100400000     legacy_stdio_definitions:legacy_stdio_definitions.obj
 0002:fffe8000       __guard_fids__             0000000100400000     legacy_stdio_definitions:legacy_stdio_definitions.obj
 0002:fffe8000       __guard_fids__             0000000100400000     legacy_stdio_definitions:legacy_stdio_definitions.obj
 0002:fffe8000       __guard_fids__             0000000100400000     legacy_stdio_definitions:legacy_stdio_definitions.obj
 0002:fffe8000       __guard_fids__             0000000100400000     legacy_stdio_definitions:legacy_stdio_definitions.obj
 0002:fffe8000       __guard_fids__             0000000100400000     legacy_stdio_definitions:legacy_stdio_definitions.obj
 0002:fffe8000       __guard_fids__             0000000100400000     legacy_stdio_definitions:legacy_stdio_definitions.obj
 0002:fffe8000       __guard_fids__             0000000100400000     legacy_stdio_definitions:legacy_stdio_definitions.obj
 0002:fffe8000       __guard_fids__             0000000100400000     legacy_stdio_definitions:legacy_stdio_definitions.obj
 0002:fffe8000       __guard_fids__             0000000100400000     legacy_stdio_definitions:legacy_stdio_definitions.obj
 0002:fffe8000       __guard_fids__             0000000100400000     legacy_stdio_definitions:legacy_stdio_definitions.obj
 0002:fffe8000       __guard_fids__             0000000100400000     legacy_stdio_definitions:legacy_stdio_definitions.obj
 0002:fffe8000       __guard_fids__             0000000100400000     legacy_stdio_definitions:legacy_stdio_definitions.obj
 0002:fffe8000       __guard_fids__             0000000100400000     legacy_stdio_definitions:legacy_stdio_definitions.obj
 0002:fffe8000       __guard_fids__             0000000100400000     legacy_stdio_definitions:legacy_stdio_definitions.obj
 0002:fffe8000       __guard_fids__             0000000100400000     legacy_stdio_definitions:legacy_stdio_definitions.obj
 0002:fffe8000       __guard_fids__             0000000100400000     legacy_stdio_definitions:legacy_stdio_definitions.obj
 0002:fffe8000       __guard_fids__             0000000100400000     legacy_stdio_definitions:legacy_stdio_definitions.obj
 0002:fffe8000       __guard_fids__             0000000100400000     legacy_stdio_definitions:legacy_stdio_definitions.obj
 0002:fffe8000       __guard_fids__             0000000100400000     legacy_stdio_definitions:legacy_stdio_definitions.obj
 0002:fffe8000       __guard_fids__             0000000100400000     legacy_stdio_definitions:legacy_stdio_definitions.obj
 0002:fffe8000       __guard_fids__             0000000100400000     legacy_stdio_definitions:legacy_stdio_definitions.obj
 0002:fffe8000       __guard_fids__             0000000100400000     legacy_stdio_definitions:legacy_stdio_definitions.obj
 0002:fffe8000       __guard_fids__             0000000100400000     legacy_stdio_definitions:legacy_stdio_definitions.obj
 0002:fffe8000       __guard_fids__             0000000100400000     legacy_stdio_definitions:legacy_stdio_definitions.obj
 0002:fffe8000       __guard_fids__             0000000100400000     legacy_stdio_definitions:legacy_stdio_definitions.obj
 0002:fffe8000       __guard_fids__             0000000100400000     legacy_stdio_definitions:legacy_stdio_definitions.obj
 0002:fffe8000       __guard_fids__             0000000100400000     legacy_stdio_definitions:legacy_stdio_definitions.obj
 0002:fffe8000       __guard_fids__             0000000100400000     legacy_stdio_definitions:legacy_stdio_definitions.obj
 0002:fffe8000       __guard_fids__             0000000100400000     legacy_stdio_definitions:legacy_stdio_definitions.obj
 0002:fffe8000       __guard_fids__             0000000100400000     legacy_stdio_definitions:legacy_stdio_definitions.obj
 0002:fffe8000       __guard_fids__             0000000100400000     legacy_stdio_definitions:legacy_stdio_definitions.obj
 0002:fffe8000       __guard_fids__             0000000100400000     legacy_stdio_definitions:legacy_stdio_definitions.obj
 0002:fffe8000       __guard_fids__             0000000100400000     legacy_stdio_definitions:legacy_stdio_definitions.obj
 0002:fffe8000       __guard_fids__             0000000100400000     legacy_stdio_definitions:legacy_stdio_definitions.obj
 0002:fffe8000       __guard_fids__             0000000100400000     legacy_stdio_definitions:legacy_stdio_definitions.obj
 0002:fffe8000       __guard_fids__             0000000100400000     legacy_stdio_definitions:legacy_stdio_definitions.obj
 0002:fffe8000       __guard_fids__             0000000100400000     legacy_stdio_definitions:legacy_stdio_definitions.obj
 0002:fffe8000       __guard_fids__             0000000100400000     legacy_stdio_definitions:legacy_stdio_definitions.obj
 0002:fffe8000       __guard_fids__             0000000100400000     legacy_stdio_definitions:legacy_stdio_definitions.obj
 0002:fffe8000       __guard_fids__             0000000100400000     legacy_stdio_definitions:legacy_stdio_definitions.obj
 0002:fffe8000       __guard_fids__             0000000100400000     legacy_stdio_definitions:legacy_stdio_definitions.obj
 0002:fffe8000       __guard_fids__             0000000100400000     legacy_stdio_definitions:legacy_stdio_definitions.obj
 0002:fffe8000       __guard_fids__             0000000100400000     legacy_stdio_definitions:legacy_stdio_definitions.obj
 0002:fffe8000       __guard_fids__             0000000100400000     legacy_stdio_definitions:legacy_stdio_definitions.obj
 0002:fffe8000       __guard_fids__             0000000100400000     legacy_stdio_definitions:legacy_stdio_definitions.obj
 0002:fffe8000       __guard_fids__             0000000100400000     legacy_stdio_definitions:legacy_stdio_definitions.obj
 0002:fffe8000       __guard_fids__             0000000100400000     legacy_stdio_definitions:legacy_stdio_definitions.obj
 0002:fffe8000       __guard_fids__             0000000100400000     legacy_stdio_definitions:legacy_stdio_definitions.obj
 0002:fffe8000       __guard_fids__             0000000100400000     legacy_stdio_definitions:legacy_stdio_definitions.obj
 0002:fffe8000       __guard_fids__             0000000100400000     legacy_stdio_definitions:legacy_stdio_definitions.obj
 0002:fffe8000       __guard_fids__             0000000100400000     legacy_stdio_definitions:legacy_stdio_definitions.obj
 0002:fffe8000       __guard_fids__             0000000100400000     legacy_stdio_definitions:legacy_stdio_definitions.obj
 0002:fffe8000       __guard_fids__             0000000100400000     legacy_stdio_definitions:legacy_stdio_definitions.obj
 0002:fffe8000       __guard_fids__             0000000100400000     legacy_stdio_definitions:legacy_stdio_definitions.obj
 0002:fffe8000       __guard_fids__             0000000100400000     legacy_stdio_definitions:legacy_stdio_definitions.obj
 0002:fffe8000       __guard_fids__             0000000100400000     legacy_stdio_definitions:legacy_stdio_definitions.obj
 0002:fffe8000       __guard_fids__             0000000100400000     legacy_stdio_definitions:legacy_stdio_definitions.obj
 0002:fffe8000       __guard_fids__             0000000100400000     legacy_stdio_definitions:legacy_stdio_definitions.obj
 0002:fffe8000       __guard_fids__             0000000100400000     legacy_stdio_definitions:legacy_stdio_definitions.obj
 0002:fffe8000       __guard_fids__             0000000100400000     legacy_stdio_definitions:legacy_stdio_definitions.obj
 0002:fffe8000       __guard_fids__             0000000100400000     legacy_stdio_definitions:legacy_stdio_definitions.obj
 0002:fffe8000       __guard_fids__             0000000100400000     legacy_stdio_definitions:legacy_stdio_definitions.obj
 0002:fffe8000       __guard_fids__             0000000100400000     legacy_stdio_definitions:legacy_stdio_definitions.obj
 0002:fffe8000       __guard_fids__             0000000100400000     legacy_stdio_definitions:legacy_stdio_definitions.obj
 0002:fffe8000       __guard_fids__             0000000100400000     legacy_stdio_definitions:legacy_stdio_definitions.obj
 0002:fffe8000       __guard_fids__             0000000100400000     legacy_stdio_definitions:legacy_stdio_definitions.obj
 0002:fffe8000       __guard_fids__             0000000100400000     legacy_stdio_definitions:legacy_stdio_definitions.obj
 0002:fffe8000       __guard_fids__             0000000100400000     legacy_stdio_definitions:legacy_stdio_definitions.obj
 0002:fffe8000       __guard_fids__             0000000100400000     legacy_stdio_definitions:legacy_stdio_definitions.obj
 0002:fffe8000       __guard_fids__             0000000100400000     legacy_stdio_definitions:legacy_stdio_definitions.obj
 0002:fffe8000       __guard_fids__             0000000100400000     legacy_stdio_definitions:legacy_stdio_definitions.obj
 0002:fffe8000       __guard_fids__             0000000100400000     legacy_stdio_definitions:legacy_stdio_definitions.obj
 0002:fffe8000       __guard_fids__             0000000100400000     legacy_stdio_definitions:legacy_stdio_definitions.obj
 0002:fffe8000       __guard_fids__             0000000100400000     legacy_stdio_definitions:legacy_stdio_definitions.obj
 0002:fffe8000       __guard_fids__             0000000100400000     legacy_stdio_definitions:legacy_stdio_definitions.obj
 0002:fffe8000       __guard_fids__             0000000100400000     legacy_stdio_definitions:legacy_stdio_definitions.obj
 0002:fffe8000       __guard_fids__             0000000100400000     legacy_stdio_definitions:legacy_stdio_definitions.obj
 0002:fffe8000       __guard_fids__             0000000100400000     legacy_stdio_definitions:legacy_stdio_definitions.obj
 0002:fffe8000       __guard_fids__             0000000100400000     legacy_stdio_definitions:legacy_stdio_definitions.obj
 0002:fffe8000       __guard_fids__             0000000100400000     legacy_stdio_definitions:legacy_stdio_definitions.obj
 0002:fffe8000       __guard_fids__             0000000100400000     legacy_stdio_definitions:legacy_stdio_definitions.obj
 0002:fffe8000       __guard_fids__             0000000100400000     legacy_stdio_definitions:legacy_stdio_definitions.obj
 0002:fffe8000       __guard_fids__             0000000100400000     legacy_stdio_definitions:legacy_stdio_definitions.obj
 0002:fffe8000       __guard_fids__             0000000100400000     legacy_stdio_definitions:legacy_stdio_definitions.obj
 0002:fffe8000       __guard_fids__             0000000100400000     legacy_stdio_definitions:legacy_stdio_definitions.obj
 0002:fffe8000       __guard_fids__             0000000100400000     legacy_stdio_definitions:legacy_stdio_definitions.obj
 0002:fffe8000       __guard_fids__             0000000100400000     legacy_stdio_definitions:legacy_stdio_definitions.obj
 0002:fffe8000       __guard_fids__             0000000100400000     legacy_stdio_definitions:legacy_stdio_definitions.obj
 0002:fffe8000       __guard_fids__             0000000100400000     legacy_stdio_definitions:legacy_stdio_definitions.obj
 0002:fffe8000       __guard_fids__             0000000100400000     legacy_stdio_definitions:legacy_stdio_definitions.obj
 0002:fffe8000       __guard_fids__             0000000100400000     legacy_stdio_definitions:legacy_stdio_definitions.obj
 0002:fffe8000       __guard_fids__             0000000100400000     legacy_stdio_wide_specifiers:legacy_stdio_wide_specifiers.obj
 0002:fffe8000       __guard_fids__             0000000100400000     vcruntimed:softmemtag.obj
 0000:fffc7000       .debug$S                   0000000100400000     vcruntimed:VCRUNTIME140D.dll
 0000:fffc7000       .debug$S                   0000000100400000     vcruntimed:VCRUNTIME140D.dll
 0000:fffc7000       .debug$S                   0000000100400000     vcruntimed:VCRUNTIME140D.dll
 0000:fffc7000       .debug$S                   0000000100400000     vcruntimed:VCRUNTIME140D.dll
 0000:fffc7000       .debug$S                   0000000100400000     vcruntimed:VCRUNTIME140D.dll
 0000:fffc7000       .debug$S                   0000000100400000     vcruntimed:VCRUNTIME140D.dll
 0000:fffc7000       .debug$S                   0000000100400000     vcruntimed:VCRUNTIME140D.dll
 0000:fffc7000       .debug$S                   0000000100400000     vcruntimed:VCRUNTIME140D.dll
 0000:fffc7000       .debug$S                   0000000100400000     vcruntimed:VCRUNTIME140D.dll
 0000:fffc7000       .debug$S                   0000000100400000     vcruntimed:VCRUNTIME140D.dll
 0000:fffc7000       .debug$S                   0000000100400000     vcruntimed:VCRUNTIME140D.dll
 0000:fffc7000       .debug$S                   0000000100400000     vcruntimed:VCRUNTIME140D.dll
 0000:fffc7000       .debug$S                   0000000100400000     hengine:hengine.dll
 0000:fffc7000       .debug$S                   0000000100400000     hengine:hengine.dll
 0000:fffc7000       .debug$S                   0000000100400000     hengine:hengine.dll
 0000:fffc7000       .debug$S                   0000000100400000     hengine:hengine.dll
 0000:fffc7000       .debug$S                   0000000100400000     hsys:hsys.dll
 0000:fffc7000       .debug$S                   0000000100400000     hutil:hutil.dll
 0000:fffc7000       .debug$S                   0000000100400000     hutil:hutil.dll
 0000:fffc7000       .debug$S                   0000000100400000     hutil:hutil.dll
 0000:fffc7000       .debug$S                   0000000100400000     hutil:hutil.dll
 0000:fffc7000       .debug$S                   0000000100400000     hutil:hutil.dll
 0000:fffc7000       .debug$S                   0000000100400000     hutil:hutil.dll
 0000:fffc7000       .debug$S                   0000000100400000     hutil:hutil.dll
 0000:fffc7000       .debug$S                   0000000100400000     hutil:hutil.dll
 0000:fffc7000       .debug$S                   0000000100400000     hutil:hutil.dll
 0000:fffc7000       .debug$S                   0000000100400000     hutil:hutil.dll
 0000:fffc7000       .debug$S                   0000000100400000     hutil:hutil.dll
 0000:fffc7000       .debug$S                   0000000100400000     hutil:hutil.dll
 0000:fffc7000       .debug$S                   0000000100400000     hutil:hutil.dll
 0000:fffc7000       .debug$S                   0000000100400000     hutil:hutil.dll
 0000:fffc7000       .debug$S                   0000000100400000     hutil:hutil.dll
 0000:fffc7000       .debug$S                   0000000100400000     hutil:hutil.dll
 0000:fffc7000       .debug$S                   0000000100400000     hutil:hutil.dll
 0000:fffc7000       .debug$S                   0000000100400000     hutil:hutil.dll
 0000:fffc7000       .debug$S                   0000000100400000     hutil:hutil.dll
 0000:fffc7000       .debug$S                   0000000100400000     hutil:hutil.dll
 0000:fffc7000       .debug$S                   0000000100400000     hutil:hutil.dll
 0000:fffc7000       .debug$S                   0000000100400000     hutil:hutil.dll
 0000:fffc7000       .debug$S                   0000000100400000     hutil:hutil.dll
 0000:fffc7000       .debug$S                   0000000100400000     hutil:hutil.dll
 0000:fffc7000       .debug$S                   0000000100400000     hutil:hutil.dll
 0000:fffc7000       .debug$S                   0000000100400000     hutil:hutil.dll
 0000:fffc7000       .debug$S                   0000000100400000     hutil:hutil.dll
 0000:fffc7000       .debug$S                   0000000100400000     hutil:hutil.dll
 0000:fffc7000       .debug$S                   0000000100400000     hutil:hutil.dll
 0000:fffc7000       .debug$S                   0000000100400000     hutil:hutil.dll
 0000:fffc7000       .debug$S                   0000000100400000     hutil:hutil.dll
 0000:fffc7000       .debug$S                   0000000100400000     hutil:hutil.dll
 0000:fffc7000       .debug$S                   0000000100400000     hutil:hutil.dll
 0000:fffc7000       .debug$S                   0000000100400000     hutil:hutil.dll
 0000:fffc7000       .debug$S                   0000000100400000     hutil:hutil.dll
 0000:fffc7000       .debug$S                   0000000100400000     hutil:hutil.dll
 0000:fffc7000       .debug$S                   0000000100400000     hutil:hutil.dll
 0000:fffc7000       .debug$S                   0000000100400000     hutil:hutil.dll
 0000:fffc7000       .debug$S                   0000000100400000     hutil:hutil.dll
 0000:00000010       _volmd                     0000000100400010     console.obj
 0000:00000020       _volmd                     0000000100400020     console.obj
 0000:00000030       _volmd                     0000000100400030     console.obj
 0000:00000040       _volmd                     0000000100400040     console.obj
 0000:00000050       _volmd                     0000000100400050     console.obj
 0000:00000060       _volmd                     0000000100400060     console.obj
 0000:00000070       _volmd                     0000000100400070     console.obj
 0000:00000080       _volmd                     0000000100400080     console.obj
 0000:00000090       _volmd                     0000000100400090     console.obj
 0000:000000a0       _volmd                     00000001004000a0     console.obj
 0000:000000b0       _volmd                     00000001004000b0     console.obj
 0000:000000c0       _volmd                     00000001004000c0     console.obj
 0000:000000d0       _volmd                     00000001004000d0     console.obj
 0000:000000e0       _volmd                     00000001004000e0     console.obj
 0000:000000f0       _volmd                     00000001004000f0     console.obj
 0000:00000100       _volmd                     0000000100400100     console.obj
 0000:00000110       _volmd                     0000000100400110     console.obj
 0000:00000120       _volmd                     0000000100400120     console.obj
 0000:00000130       _volmd                     0000000100400130     console.obj
 0000:00000140       _volmd                     0000000100400140     console.obj
 0001:00000620       _send                      0000000100401620 f   telnet64d:telnet.c.obj
 0001:000006a0       _send_negotiation          00000001004016a0 f   telnet64d:telnet.c.obj
 0001:00000720       _get_neg_qentry            0000000100401720 f   telnet64d:telnet.c.obj
 0001:000007d0       _update_neg_qentry         00000001004017d0 f   telnet64d:telnet.c.obj
 0001:00000970       _error                     0000000100401970 f   telnet64d:telnet.c.obj
 0001:00000ac0       _telnet_vsnprintf          0000000100401ac0 f   telnet64d:telnet.c.obj
 0001:00000ba0       _process_received_data     0000000100401ba0 f   telnet64d:telnet.c.obj
 0001:0000114c       $LN40                      000000010040214c     telnet64d:telnet.c.obj
 0001:00001170       $LN39                      0000000100402170     telnet64d:telnet.c.obj
 0001:00001190       _subnegotiate              0000000100402190 f   telnet64d:telnet.c.obj
 0001:00001290       _env_telnet                0000000100402290 f   telnet64d:telnet.c.obj
 0001:00001920       _ttype_telnet              0000000100402920 f   telnet64d:telnet.c.obj
 0001:00001b60       _buffer_byte               0000000100402b60 f   telnet64d:telnet.c.obj
 0001:00001ce0       _process_received_negotiation 0000000100402ce0 f   telnet64d:telnet.c.obj
 0001:000028b0       _check_telopt              00000001004038b0 f   telnet64d:telnet.c.obj
 0001:00003848       $LN26                      0000000100404848     telnet64d:telnet.c.obj
 0001:000038a0       _telnet_snprintf           00000001004048a0 f   telnet64d:telnet.c.obj
 0001:00003b80       $LN48                      0000000100404b80     telnet64d:telnet.c.obj
 0001:00003d10       $LN18                      0000000100404d10     telnet64d:telnet.c.obj
 0001:00003e70       _shut_socket               0000000100404e70 f   telnet64d:telnet.c.obj
 0001:00003fb0       _select_socket             0000000100404fb0 f   telnet64d:telnet.c.obj
 0001:000040a0       DebuggerTrace              00000001004050a0 f   console.obj
 0001:000041a0       asciitoupper               00000001004051a0 f   console.obj
 0001:000041d0       strupper                   00000001004051d0 f   console.obj
 0001:00004250       sr_write_hdr               0000000100405250 f   console.obj
 0001:00004320       sr_write_value             0000000100405320 f   console.obj
 0001:000044a0       sr_write_buf               00000001004054a0 f   console.obj
 0001:000045d0       sr_read_hdr                00000001004055d0 f   console.obj
 0001:000046c0       sr_read_value              00000001004056c0 f   console.obj
 0001:00004920       sr_read_buf                0000000100405920 f   console.obj
 0001:00004a20       sr_read_skip               0000000100405a20 f   console.obj
 0001:00004b20       sr_write_error_            0000000100405b20 f   console.obj
 0001:00004ba0       sr_read_error_             0000000100405ba0 f   console.obj
 0001:00004c20       sr_value_error_            0000000100405c20 f   console.obj
 0001:00004c80       console_connection_handler 0000000100405c80 f   console.obj
 0001:00005f30       solicit_3270_data          0000000100406f30 f   console.obj
 0001:00006040       loc3270_input              0000000100407040 f   console.obj
 0001:000062a0       constty_input              00000001004072a0 f   console.obj
 0001:000066e0       negotiate_ttype            00000001004076e0 f   console.obj
 0001:00006b00       telnet_ev_handler          0000000100407b00 f   console.obj
 0001:00007990       $LN78                      0000000100408990     console.obj
 0001:000079d0       sendto_client              00000001004089d0 f   console.obj
 0001:00007b00       raise_device_attention     0000000100408b00 f   console.obj
 0001:00007b90       finish_console_init        0000000100408b90 f   console.obj
 0001:00007cb0       disconnect_telnet_client   0000000100408cb0 f   console.obj
 0001:00007d30       disconnect_console_device  0000000100408d30 f   console.obj
 0001:00007d90       finish_console_close       0000000100408d90 f   console.obj
 0001:00007f50       loc3270_close_device       0000000100408f50 f   console.obj
 0001:00007fa0       constty_close_device       0000000100408fa0 f   console.obj
 0001:00007fc0       loc3270_init_handler       0000000100408fc0 f   console.obj
 0001:00008ac0       constty_init_handler       0000000100409ac0 f   console.obj
 0001:00009210       parse_sockspec             000000010040a210 f   console.obj
 0001:000094f0       next_3270_pos              000000010040a4f0 f   console.obj
 0001:00009734       $LN23                      000000010040a734     console.obj
 0001:00009760       $LN22                      000000010040a760     console.obj
 0001:000097a0       end_of_buf_pos             000000010040a7a0 f   console.obj
 0001:00009800       pos_to_buff_offset         000000010040a800 f   console.obj
 0001:00009860       buffer_addchar             000000010040a860 f   console.obj
 0001:00009950       buffer_addstring           000000010040a950 f   console.obj
 0001:000099f0       buffer_addsba              000000010040a9f0 f   console.obj
 0001:00009ad0       buffer_addsf               000000010040aad0 f   console.obj
 0001:00009b60       build_logo                 000000010040ab60 f   console.obj
 0001:0000a318       $LN67                      000000010040b318     console.obj
 0001:0000a334       $LN66                      000000010040b334     console.obj
 0001:0000a370       init_logo                  000000010040b370 f   console.obj
 0001:0000a500       constty_redrive_pselect    000000010040b500 f   console.obj
 0001:0000a640       loc3270_redrive_pselect    000000010040b640 f   console.obj
 0001:0000a7a0       constty_halt_or_clear      000000010040b7a0 f   console.obj
 0001:0000a7c0       loc3270_halt_or_clear      000000010040b7c0 f   console.obj
 0001:0000a7e0       loc3270_hsuspend           000000010040b7e0 f   console.obj
 0001:0000a9d0       loc3270_hresume            000000010040b9d0 f   console.obj
 0001:0000af70       constty_query_device       000000010040bf70 f   console.obj
 0001:0000b450       loc3270_query_device       000000010040c450 f   console.obj
 0001:0000b800       lookup_ttype               000000010040c800 f   console.obj
 0001:0000b8a0       recv_3270_data             000000010040c8a0 f   console.obj
 0001:0000bd70       recv_1052_data             000000010040cd70 f   console.obj
 0001:0000c1f0       connect_client             000000010040d1f0 f   console.obj
 0001:0000d5d0       calcto                     000000010040e5d0 f   console.obj
 0001:0000d700       consio                     000000010040e700 f   console.obj
 0001:0000d730       consto                     000000010040e730 f   console.obj
 0001:0000d750       get_listening_socket       000000010040e750 f   console.obj
 0001:0000dc70       loc3270_execute_ccw        000000010040ec70 f   console.obj
 0001:0000ef70       $LN122                     000000010040ff70     console.obj
 0001:0000efb0       $LN121                     000000010040ffb0     console.obj
 0001:0000f0a0       constty_execute_ccw        00000001004100a0 f   console.obj
 0001:0000f7c4       $LN64                      00000001004107c4     console.obj
 0001:0000f7e4       $LN63                      00000001004107e4     console.obj
 0001:0000fdb0       ?dllmain_crt_dispatch@@YAHQEAUHINSTANCE__@@KQEAX@Z 0000000100410db0 f   MSVCRTD:dll_dllmain.obj
 0001:0000fe40       ?dllmain_crt_process_attach@@YAHQEAUHINSTANCE__@@QEAX@Z 0000000100410e40 f   MSVCRTD:dll_dllmain.obj
 0001:0000ff80       ?dllmain_crt_process_detach@@YAH_N@Z 0000000100410f80 f   MSVCRTD:dll_dllmain.obj
 0001:00010020       ?dllmain_dispatch@@YAHQEAUHINSTANCE__@@KQEAX@Z 0000000100411020 f   MSVCRTD:dll_dllmain.obj
 0001:00010160       ?dllmain_raw@@YAHQEAUHINSTANCE__@@KQEAX@Z 0000000100411160 f   MSVCRTD:dll_dllmain.obj
 0001:00010520       capture_current_context    0000000100411520 f   MSVCRTD:gs_report.obj
 0001:000105c0       capture_previous_context   00000001004115c0 f   MSVCRTD:gs_report.obj
 0001:000107c0       $$000000                   00000001004117c0     MSVCRTD:chkstk.obj
 0001:00010820       $$000000                   0000000100411820     MSVCRTD:amdsecgs.obj
 0001:00010ac0       __get_entropy              0000000100411ac0 f   MSVCRTD:gs_support.obj
 0001:00010cf0       ?find_pe_section@@YAPEAU_IMAGE_SECTION_HEADER@@QEAE_K@Z 0000000100411cf0 f   MSVCRTD:utility.obj
 0001:00010dd0       ?is_potentially_valid_image_base@@YA_NQEAX@Z 0000000100411dd0 f   MSVCRTD:utility.obj
 0001:000118f0       __castguard_check_failure_os_handled_wrapper 00000001004128f0 f   MSVCRTD:guard_support.obj
 0001:00011920       __castguard_compat_check   0000000100412920 f   MSVCRTD:guard_support.obj
 0001:00011a80       __castguard_slow_path_compat_check 0000000100412a80 f   MSVCRTD:guard_support.obj
 0001:00011bf0       ?DebuggerProbe@@YA_NK@Z    0000000100412bf0 f   MSVCRTD:error.obj
 0001:00011c30       ?DebuggerRuntime@@YA_NKHPEAXPEB_W@Z 0000000100412c30 f   MSVCRTD:error.obj
 0001:00011f00       ?_getMemBlockDataString@@YAXPEAD0PEBD_K@Z 0000000100412f00 f   MSVCRTD:error.obj
 0001:00011fc0       ?_strlen_priv@@YA_KPEBD@Z  0000000100412fc0 f   MSVCRTD:error.obj
 0001:00011fe0       ?failwithmessage@@YAXPEAXHHPEBD@Z 0000000100412fe0 f   MSVCRTD:error.obj
 0001:00012240       ?notify_debugger@@YAXAEBUtagEXCEPTION_VISUALCPP_DEBUG_INFO@@@Z 0000000100413240 f   MSVCRTD:error.obj
 0001:000127c0       ?GetPdbDll@@YAPEAUHINSTANCE__@@XZ 00000001004137c0 f   MSVCRTD:pdblkup.obj
 0001:00012920       ?GetPdbDllFromInstallPath@@YAPEAUHINSTANCE__@@XZ 0000000100413920 f   MSVCRTD:pdblkup.obj
 0001:00012bd0       ?GetPdbDllPathFromFilePath@@YAHPEB_WPEA_W_K@Z 0000000100413bd0 f   MSVCRTD:pdblkup.obj
 0001:00016968       ?initialize_legacy_wide_specifiers@@YAHXZ 0000000100417968 f   legacy_stdio_wide_specifiers:legacy_stdio_wide_specifiers.obj
 0001:00016a90       $$000000                   0000000100417a90     MSVCRTD:guard_dispatch.obj
 0001:00016ab0       $$000000                   0000000100417ab0     MSVCRTD:guard_xfg_dispatch.obj
 0001:00016ad0       ?fin$0@?0??dllmain_crt_process_attach@@YAHQEAUHINSTANCE__@@QEAX@Z@4HA 0000000100417ad0 f   MSVCRTD:dll_dllmain.obj
 0001:00016af0       ?fin$0@?0??dllmain_crt_process_detach@@YAH_N@Z@4HA 0000000100417af0 f   MSVCRTD:dll_dllmain.obj
 0001:00016b0a       ?fin$1@?0??dllmain_crt_process_detach@@YAH_N@Z@4HA 0000000100417b0a f   MSVCRTD:dll_dllmain.obj
 0001:00016b20       ?filt$0@?0??dllmain_dispatch@@YAHQEAUHINSTANCE__@@KQEAX@Z@4HA 0000000100417b20 f   MSVCRTD:dll_dllmain.obj
 0001:00016b70       __scrt_is_nonwritable_in_current_image$filt$0 0000000100417b70 f   MSVCRTD:utility.obj
 0001:00016bb0       ?filt$0@?0??notify_debugger@@YAXAEBUtagEXCEPTION_VISUALCPP_DEBUG_INFO@@@Z@4HA 0000000100417bb0 f   MSVCRTD:error.obj
 0002:000005c0       CKD_ENDTRK                 00000001004185c0     console.obj
 0002:000005c8       telnet_opts                00000001004185c8     console.obj
 0002:000005d0       _buffer_sizes              00000001004185d0     telnet64d:telnet.c.obj
 0002:000005e4       _num_buffer_sizes          00000001004185e4     telnet64d:telnet.c.obj
 0002:000005e8       ?ttype_send@?1??telnet_ttype_send@@9@9 00000001004185e8     telnet64d:telnet.c.obj
 0002:000005f0       ?ttype_is@?1??telnet_ttype_is@@9@9 00000001004185f0     telnet64d:telnet.c.obj
 0002:000005f4       telnet_negotiate$rtcName$0 00000001004185f4     telnet64d:telnet.c.obj
 0002:000005f8       telnet_negotiate$rtcName$1 00000001004185f8     telnet64d:telnet.c.obj
 0002:00000600       telnet_negotiate$rtcVarDesc 0000000100418600     telnet64d:telnet.c.obj
 0002:00000680       telnet_negotiate$rtcFrameData 0000000100418680     telnet64d:telnet.c.obj
 0002:00000690       _send$rtcName$0            0000000100418690     telnet64d:telnet.c.obj
 0002:000006a0       _send$rtcVarDesc           00000001004186a0     telnet64d:telnet.c.obj
 0002:000006e0       _send$rtcFrameData         00000001004186e0     telnet64d:telnet.c.obj
 0002:000006f0       _send_negotiation$rtcName$0 00000001004186f0     telnet64d:telnet.c.obj
 0002:00000700       _send_negotiation$rtcVarDesc 0000000100418700     telnet64d:telnet.c.obj
 0002:00000740       _send_negotiation$rtcFrameData 0000000100418740     telnet64d:telnet.c.obj
 0002:00000750       _get_neg_qentry$rtcName$0  0000000100418750     telnet64d:telnet.c.obj
 0002:00000760       _get_neg_qentry$rtcVarDesc 0000000100418760     telnet64d:telnet.c.obj
 0002:000007a0       _get_neg_qentry$rtcFrameData 00000001004187a0     telnet64d:telnet.c.obj
 0002:000007b0       _error$rtcName$0           00000001004187b0     telnet64d:telnet.c.obj
 0002:000007b4       _error$rtcName$1           00000001004187b4     telnet64d:telnet.c.obj
 0002:000007bc       _error$rtcName$2           00000001004187bc     telnet64d:telnet.c.obj
 0002:000007c0       _error$rtcVarDesc          00000001004187c0     telnet64d:telnet.c.obj
 0002:00000880       _error$rtcFrameData        0000000100418880     telnet64d:telnet.c.obj
 0002:00000890       _process_received_data$rtcName$0 0000000100418890     telnet64d:telnet.c.obj
 0002:00000894       _process_received_data$rtcName$1 0000000100418894     telnet64d:telnet.c.obj
 0002:000008a0       _process_received_data$rtcVarDesc 00000001004188a0     telnet64d:telnet.c.obj
 0002:00000920       _process_received_data$rtcFrameData 0000000100418920     telnet64d:telnet.c.obj
 0002:00000930       _subnegotiate$rtcName$0    0000000100418930     telnet64d:telnet.c.obj
 0002:00000940       _subnegotiate$rtcVarDesc   0000000100418940     telnet64d:telnet.c.obj
 0002:00000980       _subnegotiate$rtcFrameData 0000000100418980     telnet64d:telnet.c.obj
 0002:00000990       _env_telnet$rtcName$0      0000000100418990     telnet64d:telnet.c.obj
 0002:000009a0       _env_telnet$rtcVarDesc     00000001004189a0     telnet64d:telnet.c.obj
 0002:000009e0       _env_telnet$rtcFrameData   00000001004189e0     telnet64d:telnet.c.obj
 0002:000009f0       _ttype_telnet$rtcName$0    00000001004189f0     telnet64d:telnet.c.obj
 0002:00000a00       _ttype_telnet$rtcVarDesc   0000000100418a00     telnet64d:telnet.c.obj
 0002:00000a40       _ttype_telnet$rtcFrameData 0000000100418a40     telnet64d:telnet.c.obj
 0002:00000a50       _process_received_negotiation$rtcName$0 0000000100418a50     telnet64d:telnet.c.obj
 0002:00000a54       _process_received_negotiation$rtcName$1 0000000100418a54     telnet64d:telnet.c.obj
 0002:00000a60       _process_received_negotiation$rtcVarDesc 0000000100418a60     telnet64d:telnet.c.obj
 0002:00000ae0       _process_received_negotiation$rtcFrameData 0000000100418ae0     telnet64d:telnet.c.obj
 0002:00000af0       telnet_iac$rtcName$0       0000000100418af0     telnet64d:telnet.c.obj
 0002:00000b00       telnet_iac$rtcVarDesc      0000000100418b00     telnet64d:telnet.c.obj
 0002:00000b40       telnet_iac$rtcFrameData    0000000100418b40     telnet64d:telnet.c.obj
 0002:00000b50       telnet_3270_cmd$rtcName$0  0000000100418b50     telnet64d:telnet.c.obj
 0002:00000b60       telnet_3270_cmd$rtcVarDesc 0000000100418b60     telnet64d:telnet.c.obj
 0002:00000ba0       telnet_3270_cmd$rtcFrameData 0000000100418ba0     telnet64d:telnet.c.obj
 0002:00000bb0       telnet_begin_sb$rtcName$0  0000000100418bb0     telnet64d:telnet.c.obj
 0002:00000bc0       telnet_begin_sb$rtcVarDesc 0000000100418bc0     telnet64d:telnet.c.obj
 0002:00000c00       telnet_begin_sb$rtcFrameData 0000000100418c00     telnet64d:telnet.c.obj
 0002:00000c10       telnet_subnegotiation$rtcName$0 0000000100418c10     telnet64d:telnet.c.obj
 0002:00000c20       telnet_subnegotiation$rtcVarDesc 0000000100418c20     telnet64d:telnet.c.obj
 0002:00000c60       telnet_subnegotiation$rtcFrameData 0000000100418c60     telnet64d:telnet.c.obj
 0002:00000c70       telnet_vprintf$rtcName$0   0000000100418c70     telnet64d:telnet.c.obj
 0002:00000c80       telnet_vprintf$rtcVarDesc  0000000100418c80     telnet64d:telnet.c.obj
 0002:00000cc0       telnet_vprintf$rtcFrameData 0000000100418cc0     telnet64d:telnet.c.obj
 0002:00000cd0       telnet_printf$rtcName$0    0000000100418cd0     telnet64d:telnet.c.obj
 0002:00000ce0       telnet_printf$rtcVarDesc   0000000100418ce0     telnet64d:telnet.c.obj
 0002:00000d20       telnet_printf$rtcFrameData 0000000100418d20     telnet64d:telnet.c.obj
 0002:00000d30       telnet_raw_vprintf$rtcName$0 0000000100418d30     telnet64d:telnet.c.obj
 0002:00000d40       telnet_raw_vprintf$rtcVarDesc 0000000100418d40     telnet64d:telnet.c.obj
 0002:00000d80       telnet_raw_vprintf$rtcFrameData 0000000100418d80     telnet64d:telnet.c.obj
 0002:00000d90       telnet_raw_printf$rtcName$0 0000000100418d90     telnet64d:telnet.c.obj
 0002:00000da0       telnet_raw_printf$rtcVarDesc 0000000100418da0     telnet64d:telnet.c.obj
 0002:00000de0       telnet_raw_printf$rtcFrameData 0000000100418de0     telnet64d:telnet.c.obj
 0002:00000df0       _telnet_snprintf$rtcName$0 0000000100418df0     telnet64d:telnet.c.obj
 0002:00000e00       _telnet_snprintf$rtcVarDesc 0000000100418e00     telnet64d:telnet.c.obj
 0002:00000e40       _telnet_snprintf$rtcFrameData 0000000100418e40     telnet64d:telnet.c.obj
 0002:00000e50       _shut_socket$rtcName$0     0000000100418e50     telnet64d:telnet.c.obj
 0002:00000e60       _shut_socket$rtcVarDesc    0000000100418e60     telnet64d:telnet.c.obj
 0002:00000ea0       _shut_socket$rtcFrameData  0000000100418ea0     telnet64d:telnet.c.obj
 0002:00000eb0       _select_socket$rtcName$0   0000000100418eb0     telnet64d:telnet.c.obj
 0002:00000eb8       _select_socket$rtcName$1   0000000100418eb8     telnet64d:telnet.c.obj
 0002:00000ec0       _select_socket$rtcVarDesc  0000000100418ec0     telnet64d:telnet.c.obj
 0002:00000f40       _select_socket$rtcFrameData 0000000100418f40     telnet64d:telnet.c.obj
 0002:00000f70       GS_ExceptionPointers       0000000100418f70     MSVCRTD:gs_report.obj
 0002:00000f80       ?_RTC_errlist@@3QBQEBDB    0000000100418f80     MSVCRTD:userapi.obj
 0002:00001060       ?_RTC_ErrorMessages@@3QBQEBDB 0000000100419060     MSVCRTD:error.obj
 0002:00001090       ?_RTC_NoFalsePositives@@3QBHB 0000000100419090     MSVCRTD:error.obj
 0002:000010a8       ?stack_premsg@@3QBDB       00000001004190a8     MSVCRTD:error.obj
 0002:000010c8       ?stack_postmsg@@3QBDB      00000001004190c8     MSVCRTD:error.obj
 0002:000010e0       ?uninit_premsg@@3QBDB      00000001004190e0     MSVCRTD:error.obj
 0002:000010f0       ?uninit_postmsg@@3QBDB     00000001004190f0     MSVCRTD:error.obj
 0002:00001650       ?mspdbName@@3QB_WB         0000000100419650     MSVCRTD:pdblkup.obj
 0002:00001680       ?debugCrtFileName@@3QB_WB  0000000100419680     MSVCRTD:pdblkup.obj
 0002:000017e0       ?dllExt@?1??GetPdbDllPathFromFilePath@@YAHPEB_WPEA_W_K@Z@4QB_WB 00000001004197e0     MSVCRTD:pdblkup.obj
 0002:000017e8       ?mspdbFilename@?1??GetPdbDllPathFromFilePath@@YAHPEB_WPEA_W_K@Z@4QB_WB 00000001004197e8     MSVCRTD:pdblkup.obj
 0002:00002518       _RTC_InitBase.rtc$IMZ      000000010041a518     telnet64d:telnet.c.obj
 0002:00002530       _RTC_Shutdown.rtc$TMZ      000000010041a530     telnet64d:telnet.c.obj
 0002:00002540       $unwind$_vsnprintf_s_l     000000010041a540     console.obj
 0002:00002548       $unwind$_vsnprintf_s       000000010041a548     console.obj
 0002:00002550       $unwind$_vsscanf_l         000000010041a550     console.obj
 0002:00002558       $unwind$sscanf             000000010041a558     console.obj
 0002:00002560       $unwind$DebuggerTrace      000000010041a560     console.obj
 0002:00002568       $unwind$strupper           000000010041a568     console.obj
 0002:00002570       $unwind$sr_write_hdr       000000010041a570     console.obj
 0002:00002580       $unwind$sr_write_value     000000010041a580     console.obj
 0002:00002590       $unwind$sr_write_buf       000000010041a590     console.obj
 0002:00002598       $unwind$sr_read_hdr        000000010041a598     console.obj
 0002:000025a8       $unwind$sr_read_value      000000010041a5a8     console.obj
 0002:000025b8       $unwind$sr_read_buf        000000010041a5b8     console.obj
 0002:000025c0       $unwind$sr_read_skip       000000010041a5c0     console.obj
 0002:000025d0       $unwind$sr_write_error_    000000010041a5d0     console.obj
 0002:000025d8       $unwind$sr_read_error_     000000010041a5d8     console.obj
 0002:000025e0       $unwind$sr_value_error_    000000010041a5e0     console.obj
 0002:000025e8       $unwind$console_connection_handler 000000010041a5e8     console.obj
 0002:000025f8       $unwind$solicit_3270_data  000000010041a5f8     console.obj
 0002:00002600       $unwind$loc3270_input      000000010041a600     console.obj
 0002:00002614       $unwind$constty_input      000000010041a614     console.obj
 0002:00002624       $unwind$negotiate_ttype    000000010041a624     console.obj
 0002:0000262c       $unwind$telnet_ev_handler  000000010041a62c     console.obj
 0002:00002634       $unwind$sendto_client      000000010041a634     console.obj
 0002:0000263c       $unwind$raise_device_attention 000000010041a63c     console.obj
 0002:00002644       $unwind$finish_console_init 000000010041a644     console.obj
 0002:0000264c       $unwind$disconnect_telnet_client 000000010041a64c     console.obj
 0002:00002654       $unwind$disconnect_console_device 000000010041a654     console.obj
 0002:0000265c       $unwind$finish_console_close 000000010041a65c     console.obj
 0002:00002664       $unwind$loc3270_close_device 000000010041a664     console.obj
 0002:0000266c       $unwind$constty_close_device 000000010041a66c     console.obj
 0002:00002674       $unwind$loc3270_init_handler 000000010041a674     console.obj
 0002:00002688       $unwind$constty_init_handler 000000010041a688     console.obj
 0002:0000269c       $unwind$parse_sockspec     000000010041a69c     console.obj
 0002:000026a4       $unwind$next_3270_pos      000000010041a6a4     console.obj
 0002:000026ac       $unwind$end_of_buf_pos     000000010041a6ac     console.obj
 0002:000026b4       $unwind$pos_to_buff_offset 000000010041a6b4     console.obj
 0002:000026bc       $unwind$buffer_addchar     000000010041a6bc     console.obj
 0002:000026c4       $unwind$buffer_addstring   000000010041a6c4     console.obj
 0002:000026cc       $unwind$buffer_addsba      000000010041a6cc     console.obj
 0002:000026d4       $unwind$buffer_addsf       000000010041a6d4     console.obj
 0002:000026dc       $unwind$build_logo         000000010041a6dc     console.obj
 0002:000026ec       $unwind$init_logo          000000010041a6ec     console.obj
 0002:00002700       $unwind$constty_redrive_pselect 000000010041a700     console.obj
 0002:00002708       $unwind$loc3270_redrive_pselect 000000010041a708     console.obj
 0002:00002710       $unwind$constty_halt_or_clear 000000010041a710     console.obj
 0002:00002718       $unwind$loc3270_halt_or_clear 000000010041a718     console.obj
 0002:00002720       $unwind$loc3270_hsuspend   000000010041a720     console.obj
 0002:00002734       $unwind$loc3270_hresume    000000010041a734     console.obj
 0002:00002748       $unwind$constty_query_device 000000010041a748     console.obj
 0002:00002758       $unwind$loc3270_query_device 000000010041a758     console.obj
 0002:00002768       $unwind$lookup_ttype       000000010041a768     console.obj
 0002:00002770       $unwind$recv_3270_data     000000010041a770     console.obj
 0002:00002780       $unwind$recv_1052_data     000000010041a780     console.obj
 0002:00002790       $unwind$connect_client     000000010041a790     console.obj
 0002:000027a4       $unwind$calcto             000000010041a7a4     console.obj
 0002:000027ac       $unwind$consio             000000010041a7ac     console.obj
 0002:000027b4       $unwind$consto             000000010041a7b4     console.obj
 0002:000027bc       $unwind$get_listening_socket 000000010041a7bc     console.obj
 0002:000027cc       $unwind$loc3270_execute_ccw 000000010041a7cc     console.obj
 0002:000027e0       $unwind$constty_execute_ccw 000000010041a7e0     console.obj
 0002:000027ec       $unwind$hdl_check_depends_ep 000000010041a7ec     console.obj
 0002:000027f4       $unwind$hdl_define_devtypes_ep 000000010041a7f4     console.obj
 0002:000027fc       $unwind$fetch_hw_noswap    000000010041a7fc     console.obj
 0002:00002804       $unwind$fetch_fw_noswap    000000010041a804     console.obj
 0002:0000280c       $unwind$fetch_dw_noswap    000000010041a80c     console.obj
 0002:00002814       $unwind$telnet_init        000000010041a814     telnet64d:telnet.c.obj
 0002:0000281c       $unwind$telnet_free        000000010041a81c     telnet64d:telnet.c.obj
 0002:00002824       $unwind$telnet_negotiate   000000010041a824     telnet64d:telnet.c.obj
 0002:0000282c       $unwind$_send              000000010041a82c     telnet64d:telnet.c.obj
 0002:00002834       $unwind$_send_negotiation  000000010041a834     telnet64d:telnet.c.obj
 0002:0000283c       $unwind$_get_neg_qentry    000000010041a83c     telnet64d:telnet.c.obj
 0002:00002844       $unwind$_update_neg_qentry 000000010041a844     telnet64d:telnet.c.obj
 0002:0000284c       $unwind$_error             000000010041a84c     telnet64d:telnet.c.obj
 0002:00002860       $unwind$_telnet_vsnprintf  000000010041a860     telnet64d:telnet.c.obj
 0002:00002868       $unwind$telnet_recv        000000010041a868     telnet64d:telnet.c.obj
 0002:00002870       $unwind$_process_received_data 000000010041a870     telnet64d:telnet.c.obj
 0002:0000287c       $unwind$_subnegotiate      000000010041a87c     telnet64d:telnet.c.obj
 0002:00002884       $unwind$_env_telnet        000000010041a884     telnet64d:telnet.c.obj
 0002:00002890       $unwind$_ttype_telnet      000000010041a890     telnet64d:telnet.c.obj
 0002:00002898       $unwind$_buffer_byte       000000010041a898     telnet64d:telnet.c.obj
 0002:000028a0       $unwind$_process_received_negotiation 000000010041a8a0     telnet64d:telnet.c.obj
 0002:000028ac       $unwind$_check_telopt      000000010041a8ac     telnet64d:telnet.c.obj
 0002:000028b4       $unwind$telnet_iac         000000010041a8b4     telnet64d:telnet.c.obj
 0002:000028bc       $unwind$telnet_3270_cmd    000000010041a8bc     telnet64d:telnet.c.obj
 0002:000028c4       $unwind$telnet_send        000000010041a8c4     telnet64d:telnet.c.obj
 0002:000028cc       $unwind$telnet_send_one_shot 000000010041a8cc     telnet64d:telnet.c.obj
 0002:000028d4       $unwind$telnet_begin_sb    000000010041a8d4     telnet64d:telnet.c.obj
 0002:000028dc       $unwind$telnet_subnegotiation 000000010041a8dc     telnet64d:telnet.c.obj
 0002:000028ec       $unwind$telnet_vprintf     000000010041a8ec     telnet64d:telnet.c.obj
 0002:00002900       $unwind$telnet_printf      000000010041a900     telnet64d:telnet.c.obj
 0002:00002908       $unwind$telnet_raw_vprintf 000000010041a908     telnet64d:telnet.c.obj
 0002:0000291c       $unwind$telnet_raw_printf  000000010041a91c     telnet64d:telnet.c.obj
 0002:00002924       $unwind$telnet_begin_newenviron 000000010041a924     telnet64d:telnet.c.obj
 0002:0000292c       $unwind$telnet_newenviron_value 000000010041a92c     telnet64d:telnet.c.obj
 0002:00002934       $unwind$telnet_ttype_send  000000010041a934     telnet64d:telnet.c.obj
 0002:0000293c       $unwind$telnet_ttype_is    000000010041a93c     telnet64d:telnet.c.obj
 0002:00002944       $unwind$telnet_cmd_name    000000010041a944     telnet64d:telnet.c.obj
 0002:0000294c       $unwind$_telnet_snprintf   000000010041a94c     telnet64d:telnet.c.obj
 0002:00002954       $unwind$telnet_opt_name    000000010041a954     telnet64d:telnet.c.obj
 0002:0000295c       $unwind$telnet_evt_name    000000010041a95c     telnet64d:telnet.c.obj
 0002:00002964       $unwind$telnet_err_name    000000010041a964     telnet64d:telnet.c.obj
 0002:0000296c       $unwind$telnet_closesocket 000000010041a96c     telnet64d:telnet.c.obj
 0002:00002974       $unwind$_shut_socket       000000010041a974     telnet64d:telnet.c.obj
 0002:00002988       $unwind$_select_socket     000000010041a988     telnet64d:telnet.c.obj
 0002:00002994       $unwind$?dllmain_crt_process_attach@@YAHQEAUHINSTANCE__@@QEAX@Z 000000010041a994     MSVCRTD:dll_dllmain.obj
 0002:000029b4       $unwind$?fin$0@?0??dllmain_crt_process_attach@@YAHQEAUHINSTANCE__@@QEAX@Z@4HA 000000010041a9b4     MSVCRTD:dll_dllmain.obj
 0002:000029bc       $unwind$?dllmain_crt_process_detach@@YAH_N@Z 000000010041a9bc     MSVCRTD:dll_dllmain.obj
 0002:000029ec       $unwind$?fin$0@?0??dllmain_crt_process_detach@@YAH_N@Z@4HA 000000010041a9ec     MSVCRTD:dll_dllmain.obj
 0002:000029f4       $unwind$?fin$1@?0??dllmain_crt_process_detach@@YAH_N@Z@4HA 000000010041a9f4     MSVCRTD:dll_dllmain.obj
 0002:000029fc       $unwind$?dllmain_crt_dispatch@@YAHQEAUHINSTANCE__@@KQEAX@Z 000000010041a9fc     MSVCRTD:dll_dllmain.obj
 0002:00002a04       $unwind$_CRT_INIT          000000010041aa04     MSVCRTD:dll_dllmain.obj
 0002:00002a0c       $unwind$?dllmain_raw@@YAHQEAUHINSTANCE__@@KQEAX@Z 000000010041aa0c     MSVCRTD:dll_dllmain.obj
 0002:00002a14       $unwind$?dllmain_dispatch@@YAHQEAUHINSTANCE__@@KQEAX@Z 000000010041aa14     MSVCRTD:dll_dllmain.obj
 0002:00002a34       $unwind$?filt$0@?0??dllmain_dispatch@@YAHQEAUHINSTANCE__@@KQEAX@Z@4HA 000000010041aa34     MSVCRTD:dll_dllmain.obj
 0002:00002a3c       $unwind$_DllMainCRTStartup 000000010041aa3c     MSVCRTD:dll_dllmain.obj
 0002:00002a44       $unwind$__report_securityfailure 000000010041aa44     MSVCRTD:gs_report.obj
 0002:00002a4c       $unwind$__report_securityfailureEx 000000010041aa4c     MSVCRTD:gs_report.obj
 0002:00002a54       $unwind$__report_rangecheckfailure 000000010041aa54     MSVCRTD:gs_report.obj
 0002:00002a5c       $unwind$__report_gsfailure 000000010041aa5c     MSVCRTD:gs_report.obj
 0002:00002a64       $unwind$capture_current_context 000000010041aa64     MSVCRTD:gs_report.obj
 0002:00002a6c       $unwind$capture_previous_context 000000010041aa6c     MSVCRTD:gs_report.obj
 0002:00002a74       $unwind$__raise_securityfailure 000000010041aa74     MSVCRTD:gs_report.obj
 0002:00002a7c       $unwind$__GSHandlerCheckCommon 000000010041aa7c     MSVCRTD:gshandler.obj
 0002:00002a84       $unwind$__GSHandlerCheck   000000010041aa84     MSVCRTD:gshandler.obj
 0002:00002a90       $xdatasym                  000000010041aa90     MSVCRTD:chkstk.obj
 0002:00002a98       $xdatasym                  000000010041aa98     MSVCRTD:amdsecgs.obj
 0002:00002a9c       $unwind$_RTC_Shutdown      000000010041aa9c     MSVCRTD:init.obj
 0002:00002aa4       $unwind$_RTC_InitBase      000000010041aaa4     MSVCRTD:init.obj
 0002:00002aac       $unwind$_RTC_CheckStackVars 000000010041aaac     MSVCRTD:stack.obj
 0002:00002abc       $chain$0$_RTC_CheckStackVars 000000010041aabc     MSVCRTD:stack.obj
 0002:00002ad0       $chain$1$_RTC_CheckStackVars 000000010041aad0     MSVCRTD:stack.obj
 0002:00002ae0       $unwind$_RTC_CheckStackVars2 000000010041aae0     MSVCRTD:stack.obj
 0002:00002aec       $chain$1$_RTC_CheckStackVars2 000000010041aaec     MSVCRTD:stack.obj
 0002:00002b04       $chain$2$_RTC_CheckStackVars2 000000010041ab04     MSVCRTD:stack.obj
 0002:00002b18       $chain$3$_RTC_CheckStackVars2 000000010041ab18     MSVCRTD:stack.obj
 0002:00002b2c       $chain$4$_RTC_CheckStackVars2 000000010041ab2c     MSVCRTD:stack.obj
 0002:00002b3c       $chain$5$_RTC_CheckStackVars2 000000010041ab3c     MSVCRTD:stack.obj
 0002:00002b4c       $chain$6$_RTC_CheckStackVars2 000000010041ab4c     MSVCRTD:stack.obj
 0002:00002b5c       $unwind$_RTC_AllocaHelper  000000010041ab5c     MSVCRTD:stack.obj
 0002:00002b64       $chain$0$_RTC_AllocaHelper 000000010041ab64     MSVCRTD:stack.obj
 0002:00002b78       $chain$1$_RTC_AllocaHelper 000000010041ab78     MSVCRTD:stack.obj
 0002:00002b88       $unwind$__security_init_cookie 000000010041ab88     MSVCRTD:gs_support.obj
 0002:00002b90       $unwind$__get_entropy      000000010041ab90     MSVCRTD:gs_support.obj
 0002:00002b98       $unwind$DllMain            000000010041ab98     MSVCRTD:dll_dllmain_stub.obj
 0002:00002ba0       $unwind$?__scrt_initialize_type_info@@YAXXZ 000000010041aba0     MSVCRTD:tncleanup.obj
 0002:00002ba8       $unwind$?__scrt_uninitialize_type_info@@YAXXZ 000000010041aba8     MSVCRTD:tncleanup.obj
 0002:00002bb0       $unwind$__scrt_initialize_default_local_stdio_options 000000010041abb0     MSVCRTD:default_local_stdio_options.obj
 0002:00002bb8       $unwind$atexit             000000010041abb8     MSVCRTD:utility.obj
 0002:00002bc0       $unwind$_onexit            000000010041abc0     MSVCRTD:utility.obj
 0002:00002bc8       $unwind$at_quick_exit      000000010041abc8     MSVCRTD:utility.obj
 0002:00002bd0       $unwind$__scrt_is_nonwritable_in_current_image 000000010041abd0     MSVCRTD:utility.obj
 0002:00002bf0       $unwind$__scrt_is_nonwritable_in_current_image$filt$0 000000010041abf0     MSVCRTD:utility.obj
 0002:00002bf8       $unwind$__scrt_acquire_startup_lock 000000010041abf8     MSVCRTD:utility.obj
 0002:00002c00       $unwind$__scrt_release_startup_lock 000000010041ac00     MSVCRTD:utility.obj
 0002:00002c08       $unwind$__scrt_initialize_crt 000000010041ac08     MSVCRTD:utility.obj
 0002:00002c10       $unwind$__scrt_uninitialize_crt 000000010041ac10     MSVCRTD:utility.obj
 0002:00002c18       $unwind$__scrt_initialize_onexit_tables 000000010041ac18     MSVCRTD:utility.obj
 0002:00002c24       $unwind$__scrt_dllmain_exception_filter 000000010041ac24     MSVCRTD:utility.obj
 0002:00002c2c       $unwind$__scrt_dllmain_before_initialize_c 000000010041ac2c     MSVCRTD:utility.obj
 0002:00002c34       $unwind$__scrt_dllmain_after_initialize_c 000000010041ac34     MSVCRTD:utility.obj
 0002:00002c3c       $unwind$__scrt_dllmain_uninitialize_c 000000010041ac3c     MSVCRTD:utility.obj
 0002:00002c44       $unwind$__scrt_dllmain_uninitialize_critical 000000010041ac44     MSVCRTD:utility.obj
 0002:00002c4c       $unwind$__scrt_dllmain_crt_thread_attach 000000010041ac4c     MSVCRTD:utility.obj
 0002:00002c54       $unwind$__scrt_dllmain_crt_thread_detach 000000010041ac54     MSVCRTD:utility.obj
 0002:00002c5c       $unwind$?configure_argv@__scrt_narrow_argv_policy@@SAHXZ 000000010041ac5c     MSVCRTD:utility.obj
 0002:00002c64       $unwind$?initialize_environment@__scrt_narrow_environment_policy@@SAHXZ 000000010041ac64     MSVCRTD:utility.obj
 0002:00002c6c       $unwind$?is_potentially_valid_image_base@@YA_NQEAX@Z 000000010041ac6c     MSVCRTD:utility.obj
 0002:00002c74       $unwind$?find_pe_section@@YAPEAU_IMAGE_SECTION_HEADER@@QEAE_K@Z 000000010041ac74     MSVCRTD:utility.obj
 0002:00002c7c       $unwind$__scrt_get_show_window_mode 000000010041ac7c     MSVCRTD:utility_desktop.obj
 0002:00002c88       $unwind$__scrt_is_managed_app 000000010041ac88     MSVCRTD:utility_desktop.obj
 0002:00002c90       $unwind$__scrt_initialize_mta 000000010041ac90     MSVCRTD:utility_desktop.obj
 0002:00002c98       $unwind$__scrt_set_unhandled_exception_filter 000000010041ac98     MSVCRTD:utility_desktop.obj
 0002:00002ca0       $unwind$__scrt_fastfail    000000010041aca0     MSVCRTD:utility_desktop.obj
 0002:00002cac       $unwind$__scrt_unhandled_exception_filter 000000010041acac     MSVCRTD:utility_desktop.obj
 0002:00002cb4       $unwind$_RTC_Initialize    000000010041acb4     MSVCRTD:initsect.obj
 0002:00002cc0       $unwind$_RTC_Terminate     000000010041acc0     MSVCRTD:initsect.obj
 0002:00002ccc       $unwind$ReadNoFence64      000000010041accc     MSVCRTD:guard_support.obj
 0002:00002cd4       $unwind$ReadPointerNoFence 000000010041acd4     MSVCRTD:guard_support.obj
 0002:00002cdc       $unwind$_guard_icall_checks_enforced 000000010041acdc     MSVCRTD:guard_support.obj
 0002:00002ce4       $unwind$__castguard_compat_check 000000010041ace4     MSVCRTD:guard_support.obj
 0002:00002cec       $unwind$__castguard_check_failure_os_handled_wrapper 000000010041acec     MSVCRTD:guard_support.obj
 0002:00002cf4       $unwind$__castguard_check_failure_debugbreak 000000010041acf4     MSVCRTD:guard_support.obj
 0002:00002cfc       $unwind$__castguard_check_failure_fastfail 000000010041acfc     MSVCRTD:guard_support.obj
 0002:00002d04       $unwind$__castguard_check_failure_os_handled 000000010041ad04     MSVCRTD:guard_support.obj
 0002:00002d0c       $unwind$__castguard_slow_path_compat_check 000000010041ad0c     MSVCRTD:guard_support.obj
 0002:00002d14       $unwind$__castguard_slow_path_check_debugbreak 000000010041ad14     MSVCRTD:guard_support.obj
 0002:00002d1c       $unwind$__castguard_slow_path_check_fastfail 000000010041ad1c     MSVCRTD:guard_support.obj
 0002:00002d24       $unwind$__castguard_slow_path_check_os_handled 000000010041ad24     MSVCRTD:guard_support.obj
 0002:00002d2c       $unwind$_RTC_UninitUse     000000010041ad2c     MSVCRTD:error.obj
 0002:00002d44       $unwind$?_RTC_StackFailure@@YAXPEAXPEBD@Z 000000010041ad44     MSVCRTD:error.obj
 0002:00002d60       $unwind$?_RTC_AllocaFailure@@YAXPEAXPEAU_RTC_ALLOCA_NODE@@H@Z 000000010041ad60     MSVCRTD:error.obj
 0002:00002d78       $chain$0$?_RTC_AllocaFailure@@YAXPEAXPEAU_RTC_ALLOCA_NODE@@H@Z 000000010041ad78     MSVCRTD:error.obj
 0002:00002d8c       $chain$1$?_RTC_AllocaFailure@@YAXPEAXPEAU_RTC_ALLOCA_NODE@@H@Z 000000010041ad8c     MSVCRTD:error.obj
 0002:00002d9c       $unwind$_vsprintf_s_l      000000010041ad9c     MSVCRTD:error.obj
 0002:00002db0       $unwind$sprintf_s          000000010041adb0     MSVCRTD:error.obj
 0002:00002db8       $unwind$?notify_debugger@@YAXAEBUtagEXCEPTION_VISUALCPP_DEBUG_INFO@@@Z 000000010041adb8     MSVCRTD:error.obj
 0002:00002dd8       $unwind$?filt$0@?0??notify_debugger@@YAXAEBUtagEXCEPTION_VISUALCPP_DEBUG_INFO@@@Z@4HA 000000010041add8     MSVCRTD:error.obj
 0002:00002de0       $unwind$?DebuggerProbe@@YA_NK@Z 000000010041ade0     MSVCRTD:error.obj
 0002:00002de8       $unwind$?DebuggerRuntime@@YA_NKHPEAXPEB_W@Z 000000010041ade8     MSVCRTD:error.obj
 0002:00002df0       $unwind$?failwithmessage@@YAXPEAXHHPEBD@Z 000000010041adf0     MSVCRTD:error.obj
 0002:00002e14       $unwind$?_getMemBlockDataString@@YAXPEAD0PEBD_K@Z 000000010041ae14     MSVCRTD:error.obj
 0002:00002e24       $chain$3$?_getMemBlockDataString@@YAXPEAD0PEBD_K@Z 000000010041ae24     MSVCRTD:error.obj
 0002:00002e44       $chain$4$?_getMemBlockDataString@@YAXPEAD0PEBD_K@Z 000000010041ae44     MSVCRTD:error.obj
 0002:00002e54       $unwind$__isa_available_init 000000010041ae54     MSVCRTD:cpu_disp.obj
 0002:00002e64       $unwind$__scrt_is_ucrt_dll_in_use 000000010041ae64     MSVCRTD:ucrt_detection.obj
 0002:00002e70       $xdatasym                  000000010041ae70     MSVCRTD:guard_dispatch.obj
 0002:00002e78       $xdatasym                  000000010041ae78     MSVCRTD:guard_xfg_dispatch.obj
 0002:00002e7c       $unwind$?_RTC_GetSrcLine@@YAHPEAEPEA_WKPEAH1K@Z 000000010041ae7c     MSVCRTD:pdblkup.obj
 0002:00002e94       $unwind$?GetPdbDllFromInstallPath@@YAPEAUHINSTANCE__@@XZ 000000010041ae94     MSVCRTD:pdblkup.obj
 0002:00002eb8       $unwind$?GetPdbDllPathFromFilePath@@YAHPEB_WPEA_W_K@Z 000000010041aeb8     MSVCRTD:pdblkup.obj
 0002:00002ed0       $unwind$?GetPdbDll@@YAPEAUHINSTANCE__@@XZ 000000010041aed0     MSVCRTD:pdblkup.obj
 0002:00002ee0       $unwind$_vfwprintf_l       000000010041aee0     legacy_stdio_definitions:legacy_stdio_definitions.obj
 0002:00002ef4       $unwind$vfwprintf          000000010041aef4     legacy_stdio_definitions:legacy_stdio_definitions.obj
 0002:00002f04       $unwind$_vfwprintf_s_l     000000010041af04     legacy_stdio_definitions:legacy_stdio_definitions.obj
 0002:00002f18       $unwind$vfwprintf_s        000000010041af18     legacy_stdio_definitions:legacy_stdio_definitions.obj
 0002:00002f28       $unwind$_vfwprintf_p_l     000000010041af28     legacy_stdio_definitions:legacy_stdio_definitions.obj
 0002:00002f3c       $unwind$_vfwprintf_p       000000010041af3c     legacy_stdio_definitions:legacy_stdio_definitions.obj
 0002:00002f4c       $unwind$_vwprintf_l        000000010041af4c     legacy_stdio_definitions:legacy_stdio_definitions.obj
 0002:00002f60       $unwind$vwprintf           000000010041af60     legacy_stdio_definitions:legacy_stdio_definitions.obj
 0002:00002f70       $unwind$_vwprintf_s_l      000000010041af70     legacy_stdio_definitions:legacy_stdio_definitions.obj
 0002:00002f84       $unwind$vwprintf_s         000000010041af84     legacy_stdio_definitions:legacy_stdio_definitions.obj
 0002:00002f94       $unwind$_vwprintf_p_l      000000010041af94     legacy_stdio_definitions:legacy_stdio_definitions.obj
 0002:00002fa8       $unwind$_vwprintf_p        000000010041afa8     legacy_stdio_definitions:legacy_stdio_definitions.obj
 0002:00002fb8       $unwind$_fwprintf_l        000000010041afb8     legacy_stdio_definitions:legacy_stdio_definitions.obj
 0002:00002fc8       $unwind$fwprintf           000000010041afc8     legacy_stdio_definitions:legacy_stdio_definitions.obj
 0002:00002fd4       $unwind$_fwprintf_s_l      000000010041afd4     legacy_stdio_definitions:legacy_stdio_definitions.obj
 0002:00002fe4       $unwind$fwprintf_s         000000010041afe4     legacy_stdio_definitions:legacy_stdio_definitions.obj
 0002:00002ff0       $unwind$_fwprintf_p_l      000000010041aff0     legacy_stdio_definitions:legacy_stdio_definitions.obj
 0002:00003000       $unwind$_fwprintf_p        000000010041b000     legacy_stdio_definitions:legacy_stdio_definitions.obj
 0002:0000300c       $unwind$_wprintf_l         000000010041b00c     legacy_stdio_definitions:legacy_stdio_definitions.obj
 0002:00003018       $unwind$wprintf            000000010041b018     legacy_stdio_definitions:legacy_stdio_definitions.obj
 0002:00003024       $unwind$_wprintf_s_l       000000010041b024     legacy_stdio_definitions:legacy_stdio_definitions.obj
 0002:00003030       $unwind$wprintf_s          000000010041b030     legacy_stdio_definitions:legacy_stdio_definitions.obj
 0002:0000303c       $unwind$_wprintf_p_l       000000010041b03c     legacy_stdio_definitions:legacy_stdio_definitions.obj
 0002:00003048       $unwind$_wprintf_p         000000010041b048     legacy_stdio_definitions:legacy_stdio_definitions.obj
 0002:00003054       $unwind$_vfwscanf_l        000000010041b054     legacy_stdio_definitions:legacy_stdio_definitions.obj
 0002:00003068       $unwind$vfwscanf           000000010041b068     legacy_stdio_definitions:legacy_stdio_definitions.obj
 0002:00003078       $unwind$_vfwscanf_s_l      000000010041b078     legacy_stdio_definitions:legacy_stdio_definitions.obj
 0002:0000308c       $unwind$vfwscanf_s         000000010041b08c     legacy_stdio_definitions:legacy_stdio_definitions.obj
 0002:0000309c       $unwind$_vwscanf_l         000000010041b09c     legacy_stdio_definitions:legacy_stdio_definitions.obj
 0002:000030b0       $unwind$vwscanf            000000010041b0b0     legacy_stdio_definitions:legacy_stdio_definitions.obj
 0002:000030c0       $unwind$_vwscanf_s_l       000000010041b0c0     legacy_stdio_definitions:legacy_stdio_definitions.obj
 0002:000030d4       $unwind$vwscanf_s          000000010041b0d4     legacy_stdio_definitions:legacy_stdio_definitions.obj
 0002:000030e4       $unwind$_fwscanf_l         000000010041b0e4     legacy_stdio_definitions:legacy_stdio_definitions.obj
 0002:000030f4       $unwind$fwscanf            000000010041b0f4     legacy_stdio_definitions:legacy_stdio_definitions.obj
 0002:00003100       $unwind$_fwscanf_s_l       000000010041b100     legacy_stdio_definitions:legacy_stdio_definitions.obj
 0002:00003110       $unwind$fwscanf_s          000000010041b110     legacy_stdio_definitions:legacy_stdio_definitions.obj
 0002:0000311c       $unwind$_wscanf_l          000000010041b11c     legacy_stdio_definitions:legacy_stdio_definitions.obj
 0002:00003128       $unwind$wscanf             000000010041b128     legacy_stdio_definitions:legacy_stdio_definitions.obj
 0002:00003134       $unwind$_wscanf_s_l        000000010041b134     legacy_stdio_definitions:legacy_stdio_definitions.obj
 0002:00003140       $unwind$wscanf_s           000000010041b140     legacy_stdio_definitions:legacy_stdio_definitions.obj
 0002:0000314c       $unwind$_vsnwprintf_l      000000010041b14c     legacy_stdio_definitions:legacy_stdio_definitions.obj
 0002:00003160       $unwind$_vsnwprintf_s_l    000000010041b160     legacy_stdio_definitions:legacy_stdio_definitions.obj
 0002:00003174       $unwind$_vsnwprintf_s      000000010041b174     legacy_stdio_definitions:legacy_stdio_definitions.obj
 0002:00003188       $unwind$_snwprintf         000000010041b188     legacy_stdio_definitions:legacy_stdio_definitions.obj
 0002:00003198       $unwind$_vsnwprintf        000000010041b198     legacy_stdio_definitions:legacy_stdio_definitions.obj
 0002:000031ac       $unwind$_vswprintf_c_l     000000010041b1ac     legacy_stdio_definitions:legacy_stdio_definitions.obj
 0002:000031c0       $unwind$_vswprintf_c       000000010041b1c0     legacy_stdio_definitions:legacy_stdio_definitions.obj
 0002:000031d4       $unwind$_vswprintf_l       000000010041b1d4     legacy_stdio_definitions:legacy_stdio_definitions.obj
 0002:000031e8       $unwind$__vswprintf_l      000000010041b1e8     legacy_stdio_definitions:legacy_stdio_definitions.obj
 0002:000031fc       $unwind$_vswprintf         000000010041b1fc     legacy_stdio_definitions:legacy_stdio_definitions.obj
 0002:0000320c       $unwind$vswprintf          000000010041b20c     legacy_stdio_definitions:legacy_stdio_definitions.obj
 0002:00003220       $unwind$_vswprintf_s_l     000000010041b220     legacy_stdio_definitions:legacy_stdio_definitions.obj
 0002:00003234       $unwind$vswprintf_s        000000010041b234     legacy_stdio_definitions:legacy_stdio_definitions.obj
 0002:00003248       $unwind$_vswprintf_p_l     000000010041b248     legacy_stdio_definitions:legacy_stdio_definitions.obj
 0002:0000325c       $unwind$_vswprintf_p       000000010041b25c     legacy_stdio_definitions:legacy_stdio_definitions.obj
 0002:00003270       $unwind$_vscwprintf_l      000000010041b270     legacy_stdio_definitions:legacy_stdio_definitions.obj
 0002:00003280       $unwind$_vscwprintf        000000010041b280     legacy_stdio_definitions:legacy_stdio_definitions.obj
 0002:0000328c       $unwind$_vscwprintf_p_l    000000010041b28c     legacy_stdio_definitions:legacy_stdio_definitions.obj
 0002:0000329c       $unwind$_vscwprintf_p      000000010041b29c     legacy_stdio_definitions:legacy_stdio_definitions.obj
 0002:000032a8       $unwind$__swprintf_l       000000010041b2a8     legacy_stdio_definitions:legacy_stdio_definitions.obj
 0002:000032b8       $unwind$_swprintf_l        000000010041b2b8     legacy_stdio_definitions:legacy_stdio_definitions.obj
 0002:000032c8       $unwind$_swprintf          000000010041b2c8     legacy_stdio_definitions:legacy_stdio_definitions.obj
 0002:000032d4       $unwind$swprintf           000000010041b2d4     legacy_stdio_definitions:legacy_stdio_definitions.obj
 0002:000032e4       $unwind$_swprintf_s_l      000000010041b2e4     legacy_stdio_definitions:legacy_stdio_definitions.obj
 0002:000032f4       $unwind$swprintf_s         000000010041b2f4     legacy_stdio_definitions:legacy_stdio_definitions.obj
 0002:00003304       $unwind$_swprintf_p_l      000000010041b304     legacy_stdio_definitions:legacy_stdio_definitions.obj
 0002:00003314       $unwind$_swprintf_p        000000010041b314     legacy_stdio_definitions:legacy_stdio_definitions.obj
 0002:00003324       $unwind$_swprintf_c_l      000000010041b324     legacy_stdio_definitions:legacy_stdio_definitions.obj
 0002:00003334       $unwind$_swprintf_c        000000010041b334     legacy_stdio_definitions:legacy_stdio_definitions.obj
 0002:00003344       $unwind$_snwprintf_l       000000010041b344     legacy_stdio_definitions:legacy_stdio_definitions.obj
 0002:00003354       $unwind$_snwprintf_s_l     000000010041b354     legacy_stdio_definitions:legacy_stdio_definitions.obj
 0002:00003364       $unwind$_snwprintf_s       000000010041b364     legacy_stdio_definitions:legacy_stdio_definitions.obj
 0002:00003374       $unwind$_scwprintf_l       000000010041b374     legacy_stdio_definitions:legacy_stdio_definitions.obj
 0002:00003380       $unwind$_scwprintf         000000010041b380     legacy_stdio_definitions:legacy_stdio_definitions.obj
 0002:0000338c       $unwind$_scwprintf_p_l     000000010041b38c     legacy_stdio_definitions:legacy_stdio_definitions.obj
 0002:00003398       $unwind$_scwprintf_p       000000010041b398     legacy_stdio_definitions:legacy_stdio_definitions.obj
 0002:000033a4       $unwind$_vswscanf_l        000000010041b3a4     legacy_stdio_definitions:legacy_stdio_definitions.obj
 0002:000033b8       $unwind$vswscanf           000000010041b3b8     legacy_stdio_definitions:legacy_stdio_definitions.obj
 0002:000033c8       $unwind$_vswscanf_s_l      000000010041b3c8     legacy_stdio_definitions:legacy_stdio_definitions.obj
 0002:000033dc       $unwind$vswscanf_s         000000010041b3dc     legacy_stdio_definitions:legacy_stdio_definitions.obj
 0002:000033ec       $unwind$_vsnwscanf_l       000000010041b3ec     legacy_stdio_definitions:legacy_stdio_definitions.obj
 0002:00003400       $unwind$_vsnwscanf_s_l     000000010041b400     legacy_stdio_definitions:legacy_stdio_definitions.obj
 0002:00003414       $unwind$_swscanf_l         000000010041b414     legacy_stdio_definitions:legacy_stdio_definitions.obj
 0002:00003424       $unwind$swscanf            000000010041b424     legacy_stdio_definitions:legacy_stdio_definitions.obj
 0002:00003430       $unwind$_swscanf_s_l       000000010041b430     legacy_stdio_definitions:legacy_stdio_definitions.obj
 0002:00003440       $unwind$swscanf_s          000000010041b440     legacy_stdio_definitions:legacy_stdio_definitions.obj
 0002:0000344c       $unwind$_snwscanf_l        000000010041b44c     legacy_stdio_definitions:legacy_stdio_definitions.obj
 0002:0000345c       $unwind$_snwscanf          000000010041b45c     legacy_stdio_definitions:legacy_stdio_definitions.obj
 0002:0000346c       $unwind$_snwscanf_s_l      000000010041b46c     legacy_stdio_definitions:legacy_stdio_definitions.obj
 0002:0000347c       $unwind$_snwscanf_s        000000010041b47c     legacy_stdio_definitions:legacy_stdio_definitions.obj
 0002:0000348c       $unwind$_vfprintf_l        000000010041b48c     legacy_stdio_definitions:legacy_stdio_definitions.obj
 0002:000034a0       $unwind$vfprintf           000000010041b4a0     legacy_stdio_definitions:legacy_stdio_definitions.obj
 0002:000034b0       $unwind$_vfprintf_s_l      000000010041b4b0     legacy_stdio_definitions:legacy_stdio_definitions.obj
 0002:000034c4       $unwind$vfprintf_s         000000010041b4c4     legacy_stdio_definitions:legacy_stdio_definitions.obj
 0002:000034d4       $unwind$_vfprintf_p_l      000000010041b4d4     legacy_stdio_definitions:legacy_stdio_definitions.obj
 0002:000034e8       $unwind$_vfprintf_p        000000010041b4e8     legacy_stdio_definitions:legacy_stdio_definitions.obj
 0002:000034f8       $unwind$_vprintf_l         000000010041b4f8     legacy_stdio_definitions:legacy_stdio_definitions.obj
 0002:0000350c       $unwind$vprintf            000000010041b50c     legacy_stdio_definitions:legacy_stdio_definitions.obj
 0002:0000351c       $unwind$_vprintf_s_l       000000010041b51c     legacy_stdio_definitions:legacy_stdio_definitions.obj
 0002:00003530       $unwind$vprintf_s          000000010041b530     legacy_stdio_definitions:legacy_stdio_definitions.obj
 0002:00003540       $unwind$_vprintf_p_l       000000010041b540     legacy_stdio_definitions:legacy_stdio_definitions.obj
 0002:00003554       $unwind$_vprintf_p         000000010041b554     legacy_stdio_definitions:legacy_stdio_definitions.obj
 0002:00003564       $unwind$_fprintf_l         000000010041b564     legacy_stdio_definitions:legacy_stdio_definitions.obj
 0002:00003574       $unwind$fprintf            000000010041b574     legacy_stdio_definitions:legacy_stdio_definitions.obj
 0002:00003580       $unwind$_fprintf_s_l       000000010041b580     legacy_stdio_definitions:legacy_stdio_definitions.obj
 0002:00003590       $unwind$fprintf_s          000000010041b590     legacy_stdio_definitions:legacy_stdio_definitions.obj
 0002:0000359c       $unwind$_fprintf_p_l       000000010041b59c     legacy_stdio_definitions:legacy_stdio_definitions.obj
 0002:000035ac       $unwind$_fprintf_p         000000010041b5ac     legacy_stdio_definitions:legacy_stdio_definitions.obj
 0002:000035b8       $unwind$_printf_l          000000010041b5b8     legacy_stdio_definitions:legacy_stdio_definitions.obj
 0002:000035c4       $unwind$printf             000000010041b5c4     legacy_stdio_definitions:legacy_stdio_definitions.obj
 0002:000035d0       $unwind$_printf_s_l        000000010041b5d0     legacy_stdio_definitions:legacy_stdio_definitions.obj
 0002:000035dc       $unwind$printf_s           000000010041b5dc     legacy_stdio_definitions:legacy_stdio_definitions.obj
 0002:000035e8       $unwind$_printf_p_l        000000010041b5e8     legacy_stdio_definitions:legacy_stdio_definitions.obj
 0002:000035f4       $unwind$_printf_p          000000010041b5f4     legacy_stdio_definitions:legacy_stdio_definitions.obj
 0002:00003600       $unwind$_vfscanf_l         000000010041b600     legacy_stdio_definitions:legacy_stdio_definitions.obj
 0002:00003614       $unwind$vfscanf            000000010041b614     legacy_stdio_definitions:legacy_stdio_definitions.obj
 0002:00003624       $unwind$_vfscanf_s_l       000000010041b624     legacy_stdio_definitions:legacy_stdio_definitions.obj
 0002:00003638       $unwind$vfscanf_s          000000010041b638     legacy_stdio_definitions:legacy_stdio_definitions.obj
 0002:00003648       $unwind$_vscanf_l          000000010041b648     legacy_stdio_definitions:legacy_stdio_definitions.obj
 0002:0000365c       $unwind$vscanf             000000010041b65c     legacy_stdio_definitions:legacy_stdio_definitions.obj
 0002:0000366c       $unwind$_vscanf_s_l        000000010041b66c     legacy_stdio_definitions:legacy_stdio_definitions.obj
 0002:00003680       $unwind$vscanf_s           000000010041b680     legacy_stdio_definitions:legacy_stdio_definitions.obj
 0002:00003690       $unwind$_fscanf_l          000000010041b690     legacy_stdio_definitions:legacy_stdio_definitions.obj
 0002:000036a0       $unwind$fscanf             000000010041b6a0     legacy_stdio_definitions:legacy_stdio_definitions.obj
 0002:000036ac       $unwind$_fscanf_s_l        000000010041b6ac     legacy_stdio_definitions:legacy_stdio_definitions.obj
 0002:000036bc       $unwind$fscanf_s           000000010041b6bc     legacy_stdio_definitions:legacy_stdio_definitions.obj
 0002:000036c8       $unwind$_scanf_l           000000010041b6c8     legacy_stdio_definitions:legacy_stdio_definitions.obj
 0002:000036d4       $unwind$scanf              000000010041b6d4     legacy_stdio_definitions:legacy_stdio_definitions.obj
 0002:000036e0       $unwind$_scanf_s_l         000000010041b6e0     legacy_stdio_definitions:legacy_stdio_definitions.obj
 0002:000036ec       $unwind$scanf_s            000000010041b6ec     legacy_stdio_definitions:legacy_stdio_definitions.obj
 0002:000036f8       $unwind$_vsnprintf_l       000000010041b6f8     legacy_stdio_definitions:legacy_stdio_definitions.obj
 0002:0000370c       $unwind$_vsnprintf         000000010041b70c     legacy_stdio_definitions:legacy_stdio_definitions.obj
 0002:00003720       $unwind$vsnprintf          000000010041b720     legacy_stdio_definitions:legacy_stdio_definitions.obj
 0002:00003734       $unwind$_vsprintf_l        000000010041b734     legacy_stdio_definitions:legacy_stdio_definitions.obj
 0002:00003748       $unwind$vsprintf           000000010041b748     legacy_stdio_definitions:legacy_stdio_definitions.obj
 0002:00003758       $unwind$vsprintf_s         000000010041b758     legacy_stdio_definitions:legacy_stdio_definitions.obj
 0002:0000376c       $unwind$_vsprintf_p_l      000000010041b76c     legacy_stdio_definitions:legacy_stdio_definitions.obj
 0002:00003780       $unwind$_vsprintf_p        000000010041b780     legacy_stdio_definitions:legacy_stdio_definitions.obj
 0002:00003794       $unwind$vsnprintf_s        000000010041b794     legacy_stdio_definitions:legacy_stdio_definitions.obj
 0002:000037a8       $unwind$_vscprintf_l       000000010041b7a8     legacy_stdio_definitions:legacy_stdio_definitions.obj
 0002:000037b8       $unwind$_vscprintf         000000010041b7b8     legacy_stdio_definitions:legacy_stdio_definitions.obj
 0002:000037c4       $unwind$_vscprintf_p_l     000000010041b7c4     legacy_stdio_definitions:legacy_stdio_definitions.obj
 0002:000037d4       $unwind$_vscprintf_p       000000010041b7d4     legacy_stdio_definitions:legacy_stdio_definitions.obj
 0002:000037e0       $unwind$_vsnprintf_c_l     000000010041b7e0     legacy_stdio_definitions:legacy_stdio_definitions.obj
 0002:000037f4       $unwind$_vsnprintf_c       000000010041b7f4     legacy_stdio_definitions:legacy_stdio_definitions.obj
 0002:00003808       $unwind$_sprintf_l         000000010041b808     legacy_stdio_definitions:legacy_stdio_definitions.obj
 0002:00003818       $unwind$sprintf            000000010041b818     legacy_stdio_definitions:legacy_stdio_definitions.obj
 0002:00003824       $unwind$_sprintf_s_l       000000010041b824     legacy_stdio_definitions:legacy_stdio_definitions.obj
 0002:00003834       $unwind$_sprintf_p_l       000000010041b834     legacy_stdio_definitions:legacy_stdio_definitions.obj
 0002:00003844       $unwind$_sprintf_p         000000010041b844     legacy_stdio_definitions:legacy_stdio_definitions.obj
 0002:00003854       $unwind$_snprintf_l        000000010041b854     legacy_stdio_definitions:legacy_stdio_definitions.obj
 0002:00003864       $unwind$snprintf           000000010041b864     legacy_stdio_definitions:legacy_stdio_definitions.obj
 0002:00003874       $unwind$_snprintf          000000010041b874     legacy_stdio_definitions:legacy_stdio_definitions.obj
 0002:00003884       $unwind$_snprintf_c_l      000000010041b884     legacy_stdio_definitions:legacy_stdio_definitions.obj
 0002:00003894       $unwind$_snprintf_c        000000010041b894     legacy_stdio_definitions:legacy_stdio_definitions.obj
 0002:000038a4       $unwind$_snprintf_s_l      000000010041b8a4     legacy_stdio_definitions:legacy_stdio_definitions.obj
 0002:000038b4       $unwind$_snprintf_s        000000010041b8b4     legacy_stdio_definitions:legacy_stdio_definitions.obj
 0002:000038c4       $unwind$_scprintf_l        000000010041b8c4     legacy_stdio_definitions:legacy_stdio_definitions.obj
 0002:000038d0       $unwind$_scprintf          000000010041b8d0     legacy_stdio_definitions:legacy_stdio_definitions.obj
 0002:000038dc       $unwind$_scprintf_p_l      000000010041b8dc     legacy_stdio_definitions:legacy_stdio_definitions.obj
 0002:000038e8       $unwind$_scprintf_p        000000010041b8e8     legacy_stdio_definitions:legacy_stdio_definitions.obj
 0002:000038f4       $unwind$vsscanf            000000010041b8f4     legacy_stdio_definitions:legacy_stdio_definitions.obj
 0002:00003904       $unwind$_vsscanf_s_l       000000010041b904     legacy_stdio_definitions:legacy_stdio_definitions.obj
 0002:00003918       $unwind$vsscanf_s          000000010041b918     legacy_stdio_definitions:legacy_stdio_definitions.obj
 0002:00003928       $unwind$_sscanf_l          000000010041b928     legacy_stdio_definitions:legacy_stdio_definitions.obj
 0002:00003938       $unwind$_sscanf_s_l        000000010041b938     legacy_stdio_definitions:legacy_stdio_definitions.obj
 0002:00003948       $unwind$sscanf_s           000000010041b948     legacy_stdio_definitions:legacy_stdio_definitions.obj
 0002:00003954       $unwind$_snscanf_l         000000010041b954     legacy_stdio_definitions:legacy_stdio_definitions.obj
 0002:00003964       $unwind$_snscanf           000000010041b964     legacy_stdio_definitions:legacy_stdio_definitions.obj
 0002:00003974       $unwind$_snscanf_s_l       000000010041b974     legacy_stdio_definitions:legacy_stdio_definitions.obj
 0002:00003984       $unwind$_snscanf_s         000000010041b984     legacy_stdio_definitions:legacy_stdio_definitions.obj
 0002:00003994       $unwind$?initialize_legacy_wide_specifiers@@YAHXZ 000000010041b994     legacy_stdio_wide_specifiers:legacy_stdio_wide_specifiers.obj
 0002:000039a0       .edata                     000000010041b9a0     hdt3270.exp
 0002:000039c8       rgpv                       000000010041b9c8     hdt3270.exp
 0002:000039d0       rgszName                   000000010041b9d0     hdt3270.exp
 0002:000039d8       rgwOrd                     000000010041b9d8     hdt3270.exp
 0002:000039dc       szName                     000000010041b9dc     hdt3270.exp
 0002:000039e8       $N00001                    000000010041b9e8     hdt3270.exp
 0002:000039fd       $N00002                    000000010041b9fd     hdt3270.exp
 0002:0000403e       .idata$6                   000000010041c03e     hengine:hengine.dll
 0002:000042e2       .idata$6                   000000010041c2e2     hutil:hutil.dll
 0002:000042f6       .idata$6                   000000010041c2f6     hsys:hsys.dll
 0002:0000432a       .idata$6                   000000010041c32a     kernel32:KERNEL32.dll
 0002:00004350       .idata$6                   000000010041c350     ws2_32:WS2_32.dll
 0002:0000445e       .idata$6                   000000010041c45e     vcruntimed:VCRUNTIME140D.dll
 0002:000048ac       .idata$6                   000000010041c8ac     ucrtd:ucrtbased.dll
 0003:00000000       $SG177468                  000000010041d000     console.obj
 0003:0000000c       $SG177474                  000000010041d00c     console.obj
 0003:00000010       $SG177469                  000000010041d010     console.obj
 0003:0000001c       $SG177470                  000000010041d01c     console.obj
 0003:00000024       $SG177472                  000000010041d024     console.obj
 0003:0000002c       $SG177479                  000000010041d02c     console.obj
 0003:00000030       $SG177471                  000000010041d030     console.obj
 0003:00000044       $SG177484                  000000010041d044     console.obj
 0003:00000048       $SG177473                  000000010041d048     console.obj
 0003:00000054       $SG177475                  000000010041d054     console.obj
 0003:0000005c       $SG177477                  000000010041d05c     console.obj
 0003:00000064       $SG177489                  000000010041d064     console.obj
 0003:00000068       $SG177476                  000000010041d068     console.obj
 0003:0000007c       $SG177494                  000000010041d07c     console.obj
 0003:00000080       $SG177478                  000000010041d080     console.obj
 0003:0000008c       $SG177480                  000000010041d08c     console.obj
 0003:00000094       $SG177482                  000000010041d094     console.obj
 0003:0000009c       $SG177499                  000000010041d09c     console.obj
 0003:000000a0       $SG177481                  000000010041d0a0     console.obj
 0003:000000b4       $SG177504                  000000010041d0b4     console.obj
 0003:000000b8       $SG177483                  000000010041d0b8     console.obj
 0003:000000d0       $SG177485                  000000010041d0d0     console.obj
 0003:000000d8       $SG177486                  000000010041d0d8     console.obj
 0003:000000ec       $SG177487                  000000010041d0ec     console.obj
 0003:000000f8       $SG177488                  000000010041d0f8     console.obj
 0003:00000104       $SG177490                  000000010041d104     console.obj
 0003:00000110       $SG177491                  000000010041d110     console.obj
 0003:00000124       $SG177492                  000000010041d124     console.obj
 0003:00000130       $SG177493                  000000010041d130     console.obj
 0003:00000140       $SG177495                  000000010041d140     console.obj
 0003:00000148       $SG177496                  000000010041d148     console.obj
 0003:0000015c       $SG177497                  000000010041d15c     console.obj
 0003:00000168       $SG177498                  000000010041d168     console.obj
 0003:00000174       $SG177500                  000000010041d174     console.obj
 0003:00000180       $SG177501                  000000010041d180     console.obj
 0003:00000194       $SG177502                  000000010041d194     console.obj
 0003:000001a0       $SG177503                  000000010041d1a0     console.obj
 0003:000001b0       $SG177505                  000000010041d1b0     console.obj
 0003:000001b8       $SG177506                  000000010041d1b8     console.obj
 0003:000001cc       $SG177507                  000000010041d1cc     console.obj
 0003:000001d8       $SG177508                  000000010041d1d8     console.obj
 0003:000001e4       $SG177509                  000000010041d1e4     console.obj
 0003:000001f0       $SG177510                  000000010041d1f0     console.obj
 0003:00000200       $SG177513                  000000010041d200     console.obj
 0003:00000248       $SG177514                  000000010041d248     console.obj
 0003:00000280       $SG177515                  000000010041d280     console.obj
 0003:000002b0       $SG177516                  000000010041d2b0     console.obj
 0003:000002e0       $SG177517                  000000010041d2e0     console.obj
 0003:00000320       $SG177518                  000000010041d320     console.obj
 0003:00000360       $SG177519                  000000010041d360     console.obj
 0003:000003a0       $SG177520                  000000010041d3a0     console.obj
 0003:000003e0       $SG177521                  000000010041d3e0     console.obj
 0003:00000400       $SG177522                  000000010041d400     console.obj
 0003:00000420       $SG177524                  000000010041d420     console.obj
 0003:00000458       $SG177981                  000000010041d458     console.obj
 0003:00000460       $SG177526                  000000010041d460     console.obj
 0003:000004a8       $SG178030                  000000010041d4a8     console.obj
 0003:000004b0       constty_immed              000000010041d4b0     console.obj
 0003:000005b0       loc3270_immed              000000010041d5b0     console.obj
 0003:000006b0       $SG178697                  000000010041d6b0     console.obj
 0003:000006c0       $SG178698                  000000010041d6c0     console.obj
 0003:000006d0       $SG178699                  000000010041d6d0     console.obj
 0003:000006e0       $SG178700                  000000010041d6e0     console.obj
 0003:000006f0       $SG178701                  000000010041d6f0     console.obj
 0003:00000700       $SG178702                  000000010041d700     console.obj
 0003:00000710       $SG178703                  000000010041d710     console.obj
 0003:00000720       $SG178704                  000000010041d720     console.obj
 0003:00000730       $SG178705                  000000010041d730     console.obj
 0003:00000740       $SG178706                  000000010041d740     console.obj
 0003:00000750       $SG178707                  000000010041d750     console.obj
 0003:00000760       $SG178708                  000000010041d760     console.obj
 0003:00000770       $SG178709                  000000010041d770     console.obj
 0003:00000780       $SG178710                  000000010041d780     console.obj
 0003:00000790       $SG178711                  000000010041d790     console.obj
 0003:000007a0       $SG178712                  000000010041d7a0     console.obj
 0003:000007b0       $SG178713                  000000010041d7b0     console.obj
 0003:000007c0       $SG178714                  000000010041d7c0     console.obj
 0003:000007d0       $SG178715                  000000010041d7d0     console.obj
 0003:000007e0       $SG178716                  000000010041d7e0     console.obj
 0003:00000818       $SG177246                  000000010041d818     console.obj
 0003:00000848       $SG177248                  000000010041d848     console.obj
 0003:00000878       $SG177288                  000000010041d878     console.obj
 0003:000008ac       $SG177440                  000000010041d8ac     console.obj
 0003:000008b0       $SG177290                  000000010041d8b0     console.obj
 0003:000008e8       $SG177334                  000000010041d8e8     console.obj
 0003:00000918       $SG177351                  000000010041d918     console.obj
 0003:00000948       $SG177387                  000000010041d948     console.obj
 0003:00000980       $SG177312                  000000010041d980     console.obj
 0003:000009c0       $SG177314                  000000010041d9c0     console.obj
 0003:00000a00       $SG177336                  000000010041da00     console.obj
 0003:00000a30       $SG177353                  000000010041da30     console.obj
 0003:00000a60       $SG177389                  000000010041da60     console.obj
 0003:00000a94       $SG177445                  000000010041da94     console.obj
 0003:00000aa0       $SG177421                  000000010041daa0     console.obj
 0003:00000ae8       $SG177431                  000000010041dae8     console.obj
 0003:00000b14       $SG177446                  000000010041db14     console.obj
 0003:00000b18       $SG177439                  000000010041db18     console.obj
 0003:00000b20       $SG177423                  000000010041db20     console.obj
 0003:00000b64       $SG177457                  000000010041db64     console.obj
 0003:00000b68       $SG177433                  000000010041db68     console.obj
 0003:00000b94       $SG177656                  000000010041db94     console.obj
 0003:00000b98       $SG177441                  000000010041db98     console.obj
 0003:00000bc4       $SG177670                  000000010041dbc4     console.obj
 0003:00000bcc       $SG177671                  000000010041dbcc     console.obj
 0003:00000bd4       $SG177672                  000000010041dbd4     console.obj
 0003:00000bd8       $SG177442                  000000010041dbd8     console.obj
 0003:00000be8       $SG177443                  000000010041dbe8     console.obj
 0003:00000c0c       $SG177679                  000000010041dc0c     console.obj
 0003:00000c10       $SG177447                  000000010041dc10     console.obj
 0003:00000c3c       $SG177678                  000000010041dc3c     console.obj
 0003:00000c44       $SG177690                  000000010041dc44     console.obj
 0003:00000c48       $SG177448                  000000010041dc48     console.obj
 0003:00000c58       $SG177449                  000000010041dc58     console.obj
 0003:00000c7c       $SG177699                  000000010041dc7c     console.obj
 0003:00000c80       $SG177458                  000000010041dc80     console.obj
 0003:00000cb0       $SG177459                  000000010041dcb0     console.obj
 0003:00000cc0       $SG177460                  000000010041dcc0     console.obj
 0003:00000ce4       $SG177710                  000000010041dce4     console.obj
 0003:00000ce8       ?ttype@?BP@??telnet_ev_handler@@9@9 000000010041dce8     console.obj
 0003:00000cf0       herclogo                   000000010041dcf0     console.obj
 0003:00000ec8       $SG177657                  000000010041dec8     console.obj
 0003:00000ef0       $SG177658                  000000010041def0     console.obj
 0003:00000f04       $SG177728                  000000010041df04     console.obj
 0003:00000f0c       $SG177729                  000000010041df0c     console.obj
 0003:00000f10       $SG177659                  000000010041df10     console.obj
 0003:00000f1c       $SG177736                  000000010041df1c     console.obj
 0003:00000f24       $SG177737                  000000010041df24     console.obj
 0003:00000f28       $SG177673                  000000010041df28     console.obj
 0003:00000f60       $SG177674                  000000010041df60     console.obj
 0003:00000f74       $SG177744                  000000010041df74     console.obj
 0003:00000f7c       $SG177745                  000000010041df7c     console.obj
 0003:00000f80       $SG177675                  000000010041df80     console.obj
 0003:00000f8c       $SG177752                  000000010041df8c     console.obj
 0003:00000f94       $SG177753                  000000010041df94     console.obj
 0003:00000f98       $SG177680                  000000010041df98     console.obj
 0003:00000fd0       $SG177681                  000000010041dfd0     console.obj
 0003:00000fe4       $SG177782                  000000010041dfe4     console.obj
 0003:00000fe8       $SG177682                  000000010041dfe8     console.obj
 0003:00000ff4       $SG177788                  000000010041dff4     console.obj
 0003:00000ff8       $SG177688                  000000010041dff8     console.obj
 0003:00001004       $SG177792                  000000010041e004     console.obj
 0003:00001008       $SG177689                  000000010041e008     console.obj
 0003:00001010       $SG177691                  000000010041e010     console.obj
 0003:00001048       $SG177692                  000000010041e048     console.obj
 0003:0000105c       $SG177798                  000000010041e05c     console.obj
 0003:00001060       $SG177693                  000000010041e060     console.obj
 0003:0000106c       $SG177802                  000000010041e06c     console.obj
 0003:00001070       $SG177697                  000000010041e070     console.obj
 0003:00001084       $SG177807                  000000010041e084     console.obj
 0003:00001088       $SG177698                  000000010041e088     console.obj
 0003:00001090       $SG177700                  000000010041e090     console.obj
 0003:000010c8       $SG177701                  000000010041e0c8     console.obj
 0003:000010dc       $SG177826                  000000010041e0dc     console.obj
 0003:000010e0       $SG177702                  000000010041e0e0     console.obj
 0003:000010ec       $SG177854                  000000010041e0ec     console.obj
 0003:000010f0       $SG177708                  000000010041e0f0     console.obj
 0003:000010fc       $SG177743                  000000010041e0fc     console.obj
 0003:00001104       $SG177944                  000000010041e104     console.obj
 0003:00001108       $SG177709                  000000010041e108     console.obj
 0003:00001110       $SG177711                  000000010041e110     console.obj
 0003:00001148       $SG177712                  000000010041e148     console.obj
 0003:0000115c       $SG177948                  000000010041e15c     console.obj
 0003:00001160       $SG177713                  000000010041e160     console.obj
 0003:0000116c       $SG177960                  000000010041e16c     console.obj
 0003:00001170       $SG177727                  000000010041e170     console.obj
 0003:0000117c       $SG177967                  000000010041e17c     console.obj
 0003:00001180       $SG177730                  000000010041e180     console.obj
 0003:000011b0       $SG177731                  000000010041e1b0     console.obj
 0003:000011c4       $SG177975                  000000010041e1c4     console.obj
 0003:000011c8       $SG177732                  000000010041e1c8     console.obj
 0003:000011d4       $SG177985                  000000010041e1d4     console.obj
 0003:000011d8       $SG177735                  000000010041e1d8     console.obj
 0003:000011ec       $SG177990                  000000010041e1ec     console.obj
 0003:000011f0       $SG177738                  000000010041e1f0     console.obj
 0003:00001220       $SG177739                  000000010041e220     console.obj
 0003:00001234       $SG178016                  000000010041e234     console.obj
 0003:00001238       $SG177740                  000000010041e238     console.obj
 0003:00001244       $SG178024                  000000010041e244     console.obj
 0003:00001248       $SG177746                  000000010041e248     console.obj
 0003:00001278       $SG177747                  000000010041e278     console.obj
 0003:0000128c       $SG178034                  000000010041e28c     console.obj
 0003:00001290       $SG177748                  000000010041e290     console.obj
 0003:0000129c       $SG178039                  000000010041e29c     console.obj
 0003:000012a0       $SG177751                  000000010041e2a0     console.obj
 0003:000012ac       $SG177797                  000000010041e2ac     console.obj
 0003:000012b4       $SG178070                  000000010041e2b4     console.obj
 0003:000012b8       $SG177754                  000000010041e2b8     console.obj
 0003:000012e8       $SG177755                  000000010041e2e8     console.obj
 0003:000012fc       $SG178080                  000000010041e2fc     console.obj
 0003:00001300       $SG177756                  000000010041e300     console.obj
 0003:0000130c       $SG178086                  000000010041e30c     console.obj
 0003:00001310       $SG177781                  000000010041e310     console.obj
 0003:00001318       $SG177783                  000000010041e318     console.obj
 0003:00001354       $SG178089                  000000010041e354     console.obj
 0003:00001358       $SG177784                  000000010041e358     console.obj
 0003:0000136c       $SG178266                  000000010041e36c     console.obj
 0003:00001370       $SG177785                  000000010041e370     console.obj
 0003:0000137c       $SG178267                  000000010041e37c     console.obj
 0003:00001380       $SG177789                  000000010041e380     console.obj
 0003:000013b4       $SG178273                  000000010041e3b4     console.obj
 0003:000013b8       $SG177790                  000000010041e3b8     console.obj
 0003:000013cc       $SG178274                  000000010041e3cc     console.obj
 0003:000013d0       $SG177791                  000000010041e3d0     console.obj
 0003:000013dc       $SG178281                  000000010041e3dc     console.obj
 0003:000013e0       $SG177793                  000000010041e3e0     console.obj
 0003:00001408       $SG177794                  000000010041e408     console.obj
 0003:0000141c       $SG178293                  000000010041e41c     console.obj
 0003:00001420       $SG177795                  000000010041e420     console.obj
 0003:0000142c       $SG178296                  000000010041e42c     console.obj
 0003:00001434       $SG178581                  000000010041e434     console.obj
 0003:00001438       $SG177799                  000000010041e438     console.obj
 0003:00001474       $SG178613                  000000010041e474     console.obj
 0003:00001478       $SG177800                  000000010041e478     console.obj
 0003:0000148c       $SG178309                  000000010041e48c     console.obj
 0003:00001494       $SG178619                  000000010041e494     console.obj
 0003:00001498       $SG177801                  000000010041e498     console.obj
 0003:000014a4       $SG178397                  000000010041e4a4     console.obj
 0003:000014ac       $SG178628                  000000010041e4ac     console.obj
 0003:000014b0       $SG177803                  000000010041e4b0     console.obj
 0003:000014dc       $SG178629                  000000010041e4dc     console.obj
 0003:000014e0       $SG177804                  000000010041e4e0     console.obj
 0003:000014f4       $SG178633                  000000010041e4f4     console.obj
 0003:000014f8       $SG177805                  000000010041e4f8     console.obj
 0003:00001504       $SG178666                  000000010041e504     console.obj
 0003:00001508       $SG177808                  000000010041e508     console.obj
 0003:00001540       $SG177809                  000000010041e540     console.obj
 0003:00001554       $SG178672                  000000010041e554     console.obj
 0003:00001558       $SG177810                  000000010041e558     console.obj
 0003:00001564       $SG178679                  000000010041e564     console.obj
 0003:00001568       $SG177852                  000000010041e568     console.obj
 0003:00001578       $SG177853                  000000010041e578     console.obj
 0003:00001588       $SG177855                  000000010041e588     console.obj
 0003:000015bc       $SG178680                  000000010041e5bc     console.obj
 0003:000015c0       $SG177856                  000000010041e5c0     console.obj
 0003:000015d4       $SG178684                  000000010041e5d4     console.obj
 0003:000015d8       $SG177857                  000000010041e5d8     console.obj
 0003:000015e4       $SG178749                  000000010041e5e4     console.obj
 0003:000015e8       $SG177891                  000000010041e5e8     console.obj
 0003:000015f8       $SG177893                  000000010041e5f8     console.obj
 0003:00001608       $SG177896                  000000010041e608     console.obj
 0003:00001620       $SG177897                  000000010041e620     console.obj
 0003:00001630       $SG177898                  000000010041e630     console.obj
 0003:00001678       $SG177900                  000000010041e678     console.obj
 0003:00001690       $SG177901                  000000010041e690     console.obj
 0003:000016a0       $SG177902                  000000010041e6a0     console.obj
 0003:000016e8       $SG177905                  000000010041e6e8     console.obj
 0003:000016f8       $SG177906                  000000010041e6f8     console.obj
 0003:00001708       $SG177907                  000000010041e708     console.obj
 0003:00001718       ?badmask@?BA@??loc3270_init_handler@@9@9 000000010041e718     console.obj
 0003:00001720       $SG177946                  000000010041e720     console.obj
 0003:00001728       $SG177949                  000000010041e728     console.obj
 0003:00001768       $SG177950                  000000010041e768     console.obj
 0003:00001780       $SG177951                  000000010041e780     console.obj
 0003:00001790       $SG177961                  000000010041e790     console.obj
 0003:00001800       $SG177962                  000000010041e800     console.obj
 0003:00001818       $SG177963                  000000010041e818     console.obj
 0003:00001828       $SG177969                  000000010041e828     console.obj
 0003:00001840       $SG177968                  000000010041e840     console.obj
 0003:000018b0       $SG177970                  000000010041e8b0     console.obj
 0003:000018bc       $SG178753                  000000010041e8bc     console.obj
 0003:000018c0       $SG177974                  000000010041e8c0     console.obj
 0003:000018cc       $SG178769                  000000010041e8cc     console.obj
 0003:000018d0       $SG177976                  000000010041e8d0     console.obj
 0003:00001908       $SG177977                  000000010041e908     console.obj
 0003:00001920       $SG177978                  000000010041e920     console.obj
 0003:0000192c       $SG177984                  000000010041e92c     console.obj
 0003:00001934       $SG178306                  000000010041e934     console.obj
 0003:0000193c       $SG178775                  000000010041e93c     console.obj
 0003:00001940       $SG177986                  000000010041e940     console.obj
 0003:00001978       $SG177987                  000000010041e978     console.obj
 0003:00001990       $SG177988                  000000010041e990     console.obj
 0003:0000199c       $SG178794                  000000010041e99c     console.obj
 0003:000019a0       $SG177991                  000000010041e9a0     console.obj
 0003:000019d8       $SG177992                  000000010041e9d8     console.obj
 0003:000019f0       $SG177993                  000000010041e9f0     console.obj
 0003:000019fc       $SG177995                  000000010041e9fc     console.obj
 0003:00001a04       $SG178740                  000000010041ea04     console.obj
 0003:00001a0c       $SG178801                  000000010041ea0c     console.obj
 0003:00001a10       ?badmask@?8??constty_init_handler@@9@9 000000010041ea10     console.obj
 0003:00001a18       $SG178014                  000000010041ea18     console.obj
 0003:00001a24       $SG178809                  000000010041ea24     console.obj
 0003:00001a28       $SG178023                  000000010041ea28     console.obj
 0003:00001a34       $SG178827                  000000010041ea34     console.obj
 0003:00001a38       $SG178025                  000000010041ea38     console.obj
 0003:00001a70       $SG178026                  000000010041ea70     console.obj
 0003:00001a88       $SG178027                  000000010041ea88     console.obj
 0003:00001a94       $SG178033                  000000010041ea94     console.obj
 0003:00001a9c       $SG178831                  000000010041ea9c     console.obj
 0003:00001aa0       $SG178035                  000000010041eaa0     console.obj
 0003:00001ad8       $SG178036                  000000010041ead8     console.obj
 0003:00001af0       $SG178037                  000000010041eaf0     console.obj
 0003:00001afc       $SG178838                  000000010041eafc     console.obj
 0003:00001b00       $SG178040                  000000010041eb00     console.obj
 0003:00001b38       $SG178041                  000000010041eb38     console.obj
 0003:00001b50       $SG178042                  000000010041eb50     console.obj
 0003:00001b5c       $SG178868                  000000010041eb5c     console.obj
 0003:00001b60       $SG178071                  000000010041eb60     console.obj
 0003:00001b7c       $SG178875                  000000010041eb7c     console.obj
 0003:00001b80       $SG178072                  000000010041eb80     console.obj
 0003:00001b90       $SG178073                  000000010041eb90     console.obj
 0003:00001b9c       $SG178966                  000000010041eb9c     console.obj
 0003:00001ba0       $SG178079                  000000010041eba0     console.obj
 0003:00001bac       $SG178973                  000000010041ebac     console.obj
 0003:00001bb0       $SG178081                  000000010041ebb0     console.obj
 0003:00001be4       $SG178980                  000000010041ebe4     console.obj
 0003:00001bec       $SG178983                  000000010041ebec     console.obj
 0003:00001bf0       $SG178082                  000000010041ebf0     console.obj
 0003:00001c00       $SG178083                  000000010041ec00     console.obj
 0003:00001c0c       $SG178985                  000000010041ec0c     console.obj
 0003:00001c10       $SG178088                  000000010041ec10     console.obj
 0003:00001c1c       $SG178988                  000000010041ec1c     console.obj
 0003:00001c20       $SG178090                  000000010041ec20     console.obj
 0003:00001c54       $SG178996                  000000010041ec54     console.obj
 0003:00001c58       $SG178091                  000000010041ec58     console.obj
 0003:00001c68       $SG178092                  000000010041ec68     console.obj
 0003:00001c74       $SG179000                  000000010041ec74     console.obj
 0003:00001c78       $SG178261                  000000010041ec78     console.obj
 0003:00001c88       $SG178270                  000000010041ec88     console.obj
 0003:00001c90       $SG178277                  000000010041ec90     console.obj
 0003:00001ca8       $SG178278                  000000010041eca8     console.obj
 0003:00001cc0       $SG178290                  000000010041ecc0     console.obj
 0003:00001cdc       $SG178300                  000000010041ecdc     console.obj
 0003:00001ce4       $SG178303                  000000010041ece4     console.obj
 0003:00001cec       $SG179028                  000000010041ecec     console.obj
 0003:00001cf0       $SG178310                  000000010041ecf0     console.obj
 0003:00001d10       $SG178311                  000000010041ed10     console.obj
 0003:00001d28       $SG178313                  000000010041ed28     console.obj
 0003:00001d38       $SG178419                  000000010041ed38     console.obj
 0003:00001d48       $SG178424                  000000010041ed48     console.obj
 0003:00001d60       sba_code                   000000010041ed60     console.obj
 0003:00001da4       $SG179041                  000000010041eda4     console.obj
 0003:00001da8       $SG178394                  000000010041eda8     console.obj
 0003:00001db4       $SG179046                  000000010041edb4     console.obj
 0003:00001db8       $SG178395                  000000010041edb8     console.obj
 0003:00001dc8       $SG178421                  000000010041edc8     console.obj
 0003:00001dd8       $SG178425                  000000010041edd8     console.obj
 0003:00001de8       $SG178428                  000000010041ede8     console.obj
 0003:00001e00       $SG178426                  000000010041ee00     console.obj
 0003:00001e48       $SG178429                  000000010041ee48     console.obj
 0003:00001e58       $SG178450                  000000010041ee58     console.obj
 0003:00001e68       $SG178455                  000000010041ee68     console.obj
 0003:00001e80       $SG178430                  000000010041ee80     console.obj
 0003:00001ec8       $SG178452                  000000010041eec8     console.obj
 0003:00001ed8       $SG178456                  000000010041eed8     console.obj
 0003:00001ee8       $SG178459                  000000010041eee8     console.obj
 0003:00001f00       $SG178457                  000000010041ef00     console.obj
 0003:00001f48       $SG178460                  000000010041ef48     console.obj
 0003:00001f58       $SG178505                  000000010041ef58     console.obj
 0003:00001f68       $SG178582                  000000010041ef68     console.obj
 0003:00001fa0       $SG178461                  000000010041efa0     console.obj
 0003:00001fe8       $SG178508                  000000010041efe8     console.obj
 0003:00001ff8       $SG178580                  000000010041eff8     console.obj
 0003:00002004       $SG179048                  000000010041f004     console.obj
 0003:00002008       $SG178583                  000000010041f008     console.obj
 0003:00002018       $SG178584                  000000010041f018     console.obj
 0003:00002024       $SG179050                  000000010041f024     console.obj
 0003:00002028       $SG178588                  000000010041f028     console.obj
 0003:00002038       $SG178589                  000000010041f038     console.obj
 0003:00002048       $SG178590                  000000010041f048     console.obj
 0003:00002058       $SG178592                  000000010041f058     console.obj
 0003:00002068       $SG178593                  000000010041f068     console.obj
 0003:00002078       $SG178623                  000000010041f078     console.obj
 0003:00002084       $SG179061                  000000010041f084     console.obj
 0003:00002088       $SG178624                  000000010041f088     console.obj
 0003:00002098       $SG178630                  000000010041f098     console.obj
 0003:000020a4       $SG179063                  000000010041f0a4     console.obj
 0003:000020a8       $SG178635                  000000010041f0a8     console.obj
 0003:000020b4       $SG179075                  000000010041f0b4     console.obj
 0003:000020b8       $SG178637                  000000010041f0b8     console.obj
 0003:000020d0       $SG178642                  000000010041f0d0     console.obj
 0003:000020e8       $SG178643                  000000010041f0e8     console.obj
 0003:000020f0       $SG178646                  000000010041f0f0     console.obj
 0003:00002104       $SG179078                  000000010041f104     console.obj
 0003:00002108       $SG178647                  000000010041f108     console.obj
 0003:00002114       $SG179071                  000000010041f114     console.obj
 0003:0000211c       $SG179079                  000000010041f11c     console.obj
 0003:00002120       $SG178675                  000000010041f120     console.obj
 0003:0000212c       $SG179114                  000000010041f12c     console.obj
 0003:00002130       $SG178681                  000000010041f130     console.obj
 0003:0000213c       $SG179158                  000000010041f13c     console.obj
 0003:00002140       $SG178686                  000000010041f140     console.obj
 0003:00002158       $SG178689                  000000010041f158     console.obj
 0003:00002168       $SG178690                  000000010041f168     console.obj
 0003:00002174       $SG178743                  000000010041f174     console.obj
 0003:00002180       tttab                      000000010041f180     console.obj
 0003:000022c0       $SG178746                  000000010041f2c0     console.obj
 0003:000022cc       $SG179164                  000000010041f2cc     console.obj
 0003:000022d0       $SG178750                  000000010041f2d0     console.obj
 0003:00002304       $SG179116                  000000010041f304     console.obj
 0003:0000230c       $SG179170                  000000010041f30c     console.obj
 0003:00002310       $SG178751                  000000010041f310     console.obj
 0003:00002320       $SG178752                  000000010041f320     console.obj
 0003:0000232c       $SG179176                  000000010041f32c     console.obj
 0003:00002330       $SG178754                  000000010041f330     console.obj
 0003:00002364       $SG179183                  000000010041f364     console.obj
 0003:00002368       $SG178755                  000000010041f368     console.obj
 0003:00002378       $SG178756                  000000010041f378     console.obj
 0003:00002384       $SG179182                  000000010041f384     console.obj
 0003:0000238c       $SG179189                  000000010041f38c     console.obj
 0003:00002390       $SG178770                  000000010041f390     console.obj
 0003:000023c0       $SG178771                  000000010041f3c0     console.obj
 0003:000023d0       $SG178772                  000000010041f3d0     console.obj
 0003:000023dc       $SG179193                  000000010041f3dc     console.obj
 0003:000023e0       $SG178774                  000000010041f3e0     console.obj
 0003:000023ec       $SG179074                  000000010041f3ec     console.obj
 0003:000023f4       ?issue_errmsg@?BM@??console_connection_handler@@9@9 000000010041f3f4     console.obj
 0003:000023f8       $SG178776                  000000010041f3f8     console.obj
 0003:00002420       $SG178777                  000000010041f420     console.obj
 0003:00002430       $SG178778                  000000010041f430     console.obj
 0003:0000243c       ?issue_errmsg@?CD@??console_connection_handler@@9@9 000000010041f43c     console.obj
 0003:00002440       $SG178795                  000000010041f440     console.obj
 0003:00002470       $SG178796                  000000010041f470     console.obj
 0003:00002480       $SG178797                  000000010041f480     console.obj
 0003:0000248c       $SG179313                  000000010041f48c     console.obj
 0003:00002490       $SG178800                  000000010041f490     console.obj
 0003:0000249c       $SG179076                  000000010041f49c     console.obj
 0003:000024a4       $SG179377                  000000010041f4a4     console.obj
 0003:000024a8       $SG178802                  000000010041f4a8     console.obj
 0003:000024d0       $SG178803                  000000010041f4d0     console.obj
 0003:000024e0       $SG178804                  000000010041f4e0     console.obj
 0003:000024ec       $SG179392                  000000010041f4ec     console.obj
 0003:000024f0       $SG178808                  000000010041f4f0     console.obj
 0003:000024fc       $SG179321                  000000010041f4fc     console.obj
 0003:00002504       $SG179398                  000000010041f504     console.obj
 0003:00002508       $SG178810                  000000010041f508     console.obj
 0003:0000252c       $SG179405                  000000010041f52c     console.obj
 0003:00002530       $SG178811                  000000010041f530     console.obj
 0003:00002540       $SG178812                  000000010041f540     console.obj
 0003:00002550       $SG178828                  000000010041f550     console.obj
 0003:00002598       $SG178829                  000000010041f598     console.obj
 0003:000025a8       $SG178830                  000000010041f5a8     console.obj
 0003:000025b4       $SG179412                  000000010041f5b4     console.obj
 0003:000025b8       $SG178832                  000000010041f5b8     console.obj
 0003:000025e0       $SG178833                  000000010041f5e0     console.obj
 0003:000025f0       $SG178834                  000000010041f5f0     console.obj
 0003:00002600       $SG178839                  000000010041f600     console.obj
 0003:00002650       $SG178840                  000000010041f650     console.obj
 0003:00002660       $SG178841                  000000010041f660     console.obj
 0003:0000266c       $SG179449                  000000010041f66c     console.obj
 0003:00002670       $SG178869                  000000010041f670     console.obj
 0003:00002698       $SG178870                  000000010041f698     console.obj
 0003:000026a8       $SG178871                  000000010041f6a8     console.obj
 0003:000026b8       $SG178877                  000000010041f6b8     console.obj
 0003:000026c8       $SG178972                  000000010041f6c8     console.obj
 0003:000026f0       $SG178876                  000000010041f6f0     console.obj
 0003:00002740       $SG178878                  000000010041f740     console.obj
 0003:0000274c       ?bell@?BG@??constty_execute_ccw@@9@9 000000010041f74c     console.obj
 0003:00002750       $SG178967                  000000010041f750     console.obj
 0003:0000277c       $SG179330                  000000010041f77c     console.obj
 0003:00002784       $SG179678                  000000010041f784     console.obj
 0003:00002788       $SG178968                  000000010041f788     console.obj
 0003:00002798       $SG178969                  000000010041f798     console.obj
 0003:000027a4       $SG179749                  000000010041f7a4     console.obj
 0003:000027b0       $SG178970                  000000010041f7b0     console.obj
 0003:000027c0       $SG178971                  000000010041f7c0     console.obj
 0003:000027d0       $SG178974                  000000010041f7d0     console.obj
 0003:00002800       $SG178977                  000000010041f800     console.obj
 0003:00002820       $SG178986                  000000010041f820     console.obj
 0003:00002850       $SG178989                  000000010041f850     console.obj
 0003:00002880       $SG178990                  000000010041f880     console.obj
 0003:00002890       $SG178991                  000000010041f890     console.obj
 0003:000028a0       $SG178997                  000000010041f8a0     console.obj
 0003:000028e0       $SG178998                  000000010041f8e0     console.obj
 0003:000028f0       $SG178999                  000000010041f8f0     console.obj
 0003:00002900       $SG179001                  000000010041f900     console.obj
 0003:00002940       $SG179002                  000000010041f940     console.obj
 0003:00002950       $SG179003                  000000010041f950     console.obj
 0003:00002960       $SG179021                  000000010041f960     console.obj
 0003:00002970       $SG179023                  000000010041f970     console.obj
 0003:00002980       $SG179025                  000000010041f980     console.obj
 0003:00002990       $SG179027                  000000010041f990     console.obj
 0003:000029a0       $SG179029                  000000010041f9a0     console.obj
 0003:000029e0       $SG179030                  000000010041f9e0     console.obj
 0003:000029f0       $SG179031                  000000010041f9f0     console.obj
 0003:00002a00       $SG179032                  000000010041fa00     console.obj
 0003:00002a10       $SG179038                  000000010041fa10     console.obj
 0003:00002a18       $SG179039                  000000010041fa18     console.obj
 0003:00002a20       $SG179040                  000000010041fa20     console.obj
 0003:00002a30       $SG179042                  000000010041fa30     console.obj
 0003:00002a68       $SG179043                  000000010041fa68     console.obj
 0003:00002a70       $SG179044                  000000010041fa70     console.obj
 0003:00002a78       $SG179045                  000000010041fa78     console.obj
 0003:00002a88       $SG179049                  000000010041fa88     console.obj
 0003:00002ac0       $SG179047                  000000010041fac0     console.obj
 0003:00002b08       $SG179051                  000000010041fb08     console.obj
 0003:00002b18       $SG179052                  000000010041fb18     console.obj
 0003:00002b28       $SG179055                  000000010041fb28     console.obj
 0003:00002b40       $SG179057                  000000010041fb40     console.obj
 0003:00002b50       $SG179062                  000000010041fb50     console.obj
 0003:00002b90       $SG179064                  000000010041fb90     console.obj
 0003:00002ba0       $SG179065                  000000010041fba0     console.obj
 0003:00002bac       $SG179070                  000000010041fbac     console.obj
 0003:00002bb4       $SG179072                  000000010041fbb4     console.obj
 0003:00002bbc       $SG179073                  000000010041fbbc     console.obj
 0003:00002bc8       $SG179077                  000000010041fbc8     console.obj
 0003:00002bd0       $SG179083                  000000010041fbd0     console.obj
 0003:00002be0       $SG179087                  000000010041fbe0     console.obj
 0003:00002bf0       $SG179089                  000000010041fbf0     console.obj
 0003:00002c00       $SG179092                  000000010041fc00     console.obj
 0003:00002c10       $SG179093                  000000010041fc10     console.obj
 0003:00002c20       $SG179094                  000000010041fc20     console.obj
 0003:00002c68       $SG179096                  000000010041fc68     console.obj
 0003:00002c78       $SG179097                  000000010041fc78     console.obj
 0003:00002c88       $SG179112                  000000010041fc88     console.obj
 0003:00002c98       $SG179160                  000000010041fc98     console.obj
 0003:00002cb0       $SG179098                  000000010041fcb0     console.obj
 0003:00002cf8       $SG179113                  000000010041fcf8     console.obj
 0003:00002d08       $SG179115                  000000010041fd08     console.obj
 0003:00002d38       $SG179117                  000000010041fd38     console.obj
 0003:00002d48       $SG179157                  000000010041fd48     console.obj
 0003:00002d58       $SG179159                  000000010041fd58     console.obj
 0003:00002d88       $SG179161                  000000010041fd88     console.obj
 0003:00002d98       $SG179163                  000000010041fd98     console.obj
 0003:00002da8       $SG179165                  000000010041fda8     console.obj
 0003:00002dd8       $SG179166                  000000010041fdd8     console.obj
 0003:00002df0       $SG179167                  000000010041fdf0     console.obj
 0003:00002e00       $SG179169                  000000010041fe00     console.obj
 0003:00002e08       $SG179171                  000000010041fe08     console.obj
 0003:00002e30       $SG179172                  000000010041fe30     console.obj
 0003:00002e48       $SG179173                  000000010041fe48     console.obj
 0003:00002e58       $SG179178                  000000010041fe58     console.obj
 0003:00002e70       $SG179177                  000000010041fe70     console.obj
 0003:00002eb8       $SG179179                  000000010041feb8     console.obj
 0003:00002ec8       $SG179184                  000000010041fec8     console.obj
 0003:00002ef8       $SG179185                  000000010041fef8     console.obj
 0003:00002f10       $SG179186                  000000010041ff10     console.obj
 0003:00002f20       $SG179188                  000000010041ff20     console.obj
 0003:00002f30       $SG179190                  000000010041ff30     console.obj
 0003:00002f60       $SG179191                  000000010041ff60     console.obj
 0003:00002f78       $SG179192                  000000010041ff78     console.obj
 0003:00002f88       $SG179194                  000000010041ff88     console.obj
 0003:00002fc8       $SG179195                  000000010041ffc8     console.obj
 0003:00002fe0       $SG179196                  000000010041ffe0     console.obj
 0003:00002ff0       $SG179310                  000000010041fff0     console.obj
 0003:00003000       $SG179311                  0000000100420000     console.obj
 0003:00003010       $SG179312                  0000000100420010     console.obj
 0003:00003020       $SG179314                  0000000100420020     console.obj
 0003:00003058       $SG179315                  0000000100420058     console.obj
 0003:00003078       $SG179316                  0000000100420078     console.obj
 0003:00003088       $SG179319                  0000000100420088     console.obj
 0003:00003098       $SG179322                  0000000100420098     console.obj
 0003:000030a8       $SG179325                  00000001004200a8     console.obj
 0003:000030b8       $SG179331                  00000001004200b8     console.obj
 0003:000030c8       $SG179336                  00000001004200c8     console.obj
 0003:000030d8       $SG179338                  00000001004200d8     console.obj
 0003:000030e8       $SG179341                  00000001004200e8     console.obj
 0003:00003108       $SG179342                  0000000100420108     console.obj
 0003:00003118       $SG179345                  0000000100420118     console.obj
 0003:00003138       $SG179352                  0000000100420138     console.obj
 0003:00003148       $SG179378                  0000000100420148     console.obj
 0003:00003170       $SG179343                  0000000100420170     console.obj
 0003:000031b8       $SG179346                  00000001004201b8     console.obj
 0003:000031c8       $SG179356                  00000001004201c8     console.obj
 0003:000031d8       $SG179393                  00000001004201d8     console.obj
 0003:00003200       $SG179347                  0000000100420200     console.obj
 0003:00003248       $SG179355                  0000000100420248     console.obj
 0003:00003258       $SG179358                  0000000100420258     console.obj
 0003:00003268       $SG179361                  0000000100420268     console.obj
 0003:00003288       $SG179362                  0000000100420288     console.obj
 0003:00003298       $SG179365                  0000000100420298     console.obj
 0003:000032b8       $SG179409                  00000001004202b8     console.obj
 0003:000032c8       $SG179413                  00000001004202c8     console.obj
 0003:00003300       $SG179363                  0000000100420300     console.obj
 0003:00003348       $SG179366                  0000000100420348     console.obj
 0003:00003358       $SG179379                  0000000100420358     console.obj
 0003:00003378       $SG179410                  0000000100420378     console.obj
 0003:00003388       $SG179447                  0000000100420388     console.obj
 0003:00003398       $SG179450                  0000000100420398     console.obj
 0003:000033d0       $SG179367                  00000001004203d0     console.obj
 0003:00003418       $SG179380                  0000000100420418     console.obj
 0003:00003428       $SG179394                  0000000100420428     console.obj
 0003:00003448       $SG179395                  0000000100420448     console.obj
 0003:00003458       $SG179399                  0000000100420458     console.obj
 0003:00003478       $SG179400                  0000000100420478     console.obj
 0003:00003498       $SG179401                  0000000100420498     console.obj
 0003:000034a8       $SG179402                  00000001004204a8     console.obj
 0003:000034b8       $SG179406                  00000001004204b8     console.obj
 0003:000034d8       $SG179407                  00000001004204d8     console.obj
 0003:000034f8       $SG179408                  00000001004204f8     console.obj
 0003:00003508       $SG179414                  0000000100420508     console.obj
 0003:00003528       $SG179415                  0000000100420528     console.obj
 0003:00003538       $SG179419                  0000000100420538     console.obj
 0003:00003548       $SG179421                  0000000100420548     console.obj
 0003:00003558       $SG179425                  0000000100420558     console.obj
 0003:00003568       $SG179431                  0000000100420568     console.obj
 0003:00003578       $SG179432                  0000000100420578     console.obj
 0003:00003588       $SG179439                  0000000100420588     console.obj
 0003:00003598       $SG179441                  0000000100420598     console.obj
 0003:000035a8       $SG179443                  00000001004205a8     console.obj
 0003:000035b8       $SG179448                  00000001004205b8     console.obj
 0003:000035c8       $SG179451                  00000001004205c8     console.obj
 0003:000035e8       $SG179452                  00000001004205e8     console.obj
 0003:000035f8       $SG179543                  00000001004205f8     console.obj
 0003:00003608       $SG179548                  0000000100420608     console.obj
 0003:00003618       $SG179555                  0000000100420618     console.obj
 0003:00003628       $SG179556                  0000000100420628     console.obj
 0003:00003638       $SG179558                  0000000100420638     console.obj
 0003:00003648       $SG179561                  0000000100420648     console.obj
 0003:00003660       $SG179562                  0000000100420660     console.obj
 0003:00003670       $SG179563                  0000000100420670     console.obj
 0003:000036b8       $SG179565                  00000001004206b8     console.obj
 0003:000036d0       $SG179566                  00000001004206d0     console.obj
 0003:000036e0       $SG179567                  00000001004206e0     console.obj
 0003:00003728       $SG179570                  0000000100420728     console.obj
 0003:00003738       $SG179575                  0000000100420738     console.obj
 0003:00003748       $SG179582                  0000000100420748     console.obj
 0003:00003758       $SG179583                  0000000100420758     console.obj
 0003:00003768       $SG179585                  0000000100420768     console.obj
 0003:00003778       $SG179588                  0000000100420778     console.obj
 0003:00003790       $SG179589                  0000000100420790     console.obj
 0003:000037a0       $SG179590                  00000001004207a0     console.obj
 0003:000037e8       $SG179592                  00000001004207e8     console.obj
 0003:00003800       $SG179593                  0000000100420800     console.obj
 0003:00003810       $SG179594                  0000000100420810     console.obj
 0003:00003858       $SG179663                  0000000100420858     console.obj
 0003:00003870       $SG179664                  0000000100420870     console.obj
 0003:00003880       $SG179665                  0000000100420880     console.obj
 0003:000038c8       $SG179667                  00000001004208c8     console.obj
 0003:000038e0       $SG179668                  00000001004208e0     console.obj
 0003:000038f0       $SG179669                  00000001004208f0     console.obj
 0003:00003938       $SG179679                  0000000100420938     console.obj
 0003:00003968       $SG179751                  0000000100420968     console.obj
 0003:00003970       constty_device_hndinfo     0000000100420970     console.obj
 0003:00003a38       $SG179752                  0000000100420a38     console.obj
 0003:00003a40       loc3270_device_hndinfo     0000000100420a40     console.obj
 0003:00003b08       $SG179745                  0000000100420b08     console.obj
 0003:00003b18       $SG179746                  0000000100420b18     console.obj
 0003:00003b28       $SG179748                  0000000100420b28     console.obj
 0003:00003b34       $SG179757                  0000000100420b34     console.obj
 0003:00003b3c       $SG179758                  0000000100420b3c     console.obj
 0003:00003b44       $SG179759                  0000000100420b44     console.obj
 0003:00003b4c       $SG179760                  0000000100420b4c     console.obj
 0003:00003b54       $SG179761                  0000000100420b54     console.obj
 0003:00003b60       $SG82035                   0000000100420b60     telnet64d:telnet.c.obj
 0003:00003bd8       $SG82095                   0000000100420bd8     telnet64d:telnet.c.obj
 0003:00003c00       $SG82096                   0000000100420c00     telnet64d:telnet.c.obj
 0003:00003c10       $SG82101                   0000000100420c10     telnet64d:telnet.c.obj
 0003:00003c38       $SG82102                   0000000100420c38     telnet64d:telnet.c.obj
 0003:00003c48       $SG82105                   0000000100420c48     telnet64d:telnet.c.obj
 0003:00003c68       $SG82106                   0000000100420c68     telnet64d:telnet.c.obj
 0003:00003c78       $SG82117                   0000000100420c78     telnet64d:telnet.c.obj
 0003:00003c90       $SG82118                   0000000100420c90     telnet64d:telnet.c.obj
 0003:00003ca0       $SG82153                   0000000100420ca0     telnet64d:telnet.c.obj
 0003:00003cc8       $SG82154                   0000000100420cc8     telnet64d:telnet.c.obj
 0003:00003cd8       $SG82156                   0000000100420cd8     telnet64d:telnet.c.obj
 0003:00003d00       $SG82157                   0000000100420d00     telnet64d:telnet.c.obj
 0003:00003d10       $SG82162                   0000000100420d10     telnet64d:telnet.c.obj
 0003:00003d28       $SG82163                   0000000100420d28     telnet64d:telnet.c.obj
 0003:00003d38       $SG82217                   0000000100420d38     telnet64d:telnet.c.obj
 0003:00003d68       $SG82218                   0000000100420d68     telnet64d:telnet.c.obj
 0003:00003d78       $SG82221                   0000000100420d78     telnet64d:telnet.c.obj
 0003:00003d90       $SG82222                   0000000100420d90     telnet64d:telnet.c.obj
 0003:00003da0       $SG82254                   0000000100420da0     telnet64d:telnet.c.obj
 0003:00003db8       $SG82255                   0000000100420db8     telnet64d:telnet.c.obj
 0003:00003dd0       $SG82335                   0000000100420dd0     telnet64d:telnet.c.obj
 0003:00003de8       $SG82336                   0000000100420de8     telnet64d:telnet.c.obj
 0003:00003e08       $SG82338                   0000000100420e08     telnet64d:telnet.c.obj
 0003:00003e20       $SG82339                   0000000100420e20     telnet64d:telnet.c.obj
 0003:00003e40       $SG82360                   0000000100420e40     telnet64d:telnet.c.obj
 0003:00003e58       $SG82361                   0000000100420e58     telnet64d:telnet.c.obj
 0003:00003e78       $SG82363                   0000000100420e78     telnet64d:telnet.c.obj
 0003:00003e90       $SG82364                   0000000100420e90     telnet64d:telnet.c.obj
 0003:00003eb0       $SG82427                   0000000100420eb0     telnet64d:telnet.c.obj
 0003:00003ed8       $SG82428                   0000000100420ed8     telnet64d:telnet.c.obj
 0003:00003ef0       $SG82518                   0000000100420ef0     telnet64d:telnet.c.obj
 0003:00003f08       $SG82519                   0000000100420f08     telnet64d:telnet.c.obj
 0003:00003f18       $SG82563                   0000000100420f18     telnet64d:telnet.c.obj
 0003:00003f30       $SG82564                   0000000100420f30     telnet64d:telnet.c.obj
 0003:00003f48       $SG82618                   0000000100420f48     telnet64d:telnet.c.obj
 0003:00003f58       $SG82620                   0000000100420f58     telnet64d:telnet.c.obj
 0003:00003f68       $SG82622                   0000000100420f68     telnet64d:telnet.c.obj
 0003:00003f78       $SG82624                   0000000100420f78     telnet64d:telnet.c.obj
 0003:00003f88       $SG82626                   0000000100420f88     telnet64d:telnet.c.obj
 0003:00003f98       $SG82628                   0000000100420f98     telnet64d:telnet.c.obj
 0003:00003fa8       $SG82630                   0000000100420fa8     telnet64d:telnet.c.obj
 0003:00003fb8       $SG82632                   0000000100420fb8     telnet64d:telnet.c.obj
 0003:00003fc8       $SG82634                   0000000100420fc8     telnet64d:telnet.c.obj
 0003:00003fd8       $SG82636                   0000000100420fd8     telnet64d:telnet.c.obj
 0003:00003fe8       $SG82638                   0000000100420fe8     telnet64d:telnet.c.obj
 0003:00003ff8       $SG82640                   0000000100420ff8     telnet64d:telnet.c.obj
 0003:00004008       $SG82642                   0000000100421008     telnet64d:telnet.c.obj
 0003:00004018       $SG82644                   0000000100421018     telnet64d:telnet.c.obj
 0003:00004028       $SG82646                   0000000100421028     telnet64d:telnet.c.obj
 0003:00004038       $SG82648                   0000000100421038     telnet64d:telnet.c.obj
 0003:00004048       $SG82650                   0000000100421048     telnet64d:telnet.c.obj
 0003:00004058       $SG82652                   0000000100421058     telnet64d:telnet.c.obj
 0003:00004068       $SG82654                   0000000100421068     telnet64d:telnet.c.obj
 0003:00004078       $SG82656                   0000000100421078     telnet64d:telnet.c.obj
 0003:00004088       $SG82658                   0000000100421088     telnet64d:telnet.c.obj
 0003:00004098       $SG82670                   0000000100421098     telnet64d:telnet.c.obj
 0003:000040b8       $SG82672                   00000001004210b8     telnet64d:telnet.c.obj
 0003:000040d0       $SG82674                   00000001004210d0     telnet64d:telnet.c.obj
 0003:000040e8       $SG82676                   00000001004210e8     telnet64d:telnet.c.obj
 0003:00004100       $SG82678                   0000000100421100     telnet64d:telnet.c.obj
 0003:00004118       $SG82680                   0000000100421118     telnet64d:telnet.c.obj
 0003:00004130       $SG82682                   0000000100421130     telnet64d:telnet.c.obj
 0003:00004148       $SG82684                   0000000100421148     telnet64d:telnet.c.obj
 0003:00004160       $SG82686                   0000000100421160     telnet64d:telnet.c.obj
 0003:00004178       $SG82688                   0000000100421178     telnet64d:telnet.c.obj
 0003:00004190       $SG82690                   0000000100421190     telnet64d:telnet.c.obj
 0003:000041a8       $SG82692                   00000001004211a8     telnet64d:telnet.c.obj
 0003:000041c0       $SG82694                   00000001004211c0     telnet64d:telnet.c.obj
 0003:000041d8       $SG82696                   00000001004211d8     telnet64d:telnet.c.obj
 0003:000041f0       $SG82698                   00000001004211f0     telnet64d:telnet.c.obj
 0003:00004208       $SG82700                   0000000100421208     telnet64d:telnet.c.obj
 0003:00004220       $SG82702                   0000000100421220     telnet64d:telnet.c.obj
 0003:00004238       $SG82704                   0000000100421238     telnet64d:telnet.c.obj
 0003:00004250       $SG82706                   0000000100421250     telnet64d:telnet.c.obj
 0003:00004268       $SG82708                   0000000100421268     telnet64d:telnet.c.obj
 0003:00004280       $SG82710                   0000000100421280     telnet64d:telnet.c.obj
 0003:00004298       $SG82712                   0000000100421298     telnet64d:telnet.c.obj
 0003:000042b0       $SG82714                   00000001004212b0     telnet64d:telnet.c.obj
 0003:000042c8       $SG82716                   00000001004212c8     telnet64d:telnet.c.obj
 0003:000042e8       $SG82718                   00000001004212e8     telnet64d:telnet.c.obj
 0003:00004300       $SG82720                   0000000100421300     telnet64d:telnet.c.obj
 0003:00004318       $SG82722                   0000000100421318     telnet64d:telnet.c.obj
 0003:00004330       $SG82724                   0000000100421330     telnet64d:telnet.c.obj
 0003:00004348       $SG82726                   0000000100421348     telnet64d:telnet.c.obj
 0003:00004360       $SG82728                   0000000100421360     telnet64d:telnet.c.obj
 0003:00004378       $SG82730                   0000000100421378     telnet64d:telnet.c.obj
 0003:00004398       $SG82732                   0000000100421398     telnet64d:telnet.c.obj
 0003:000043b0       $SG82734                   00000001004213b0     telnet64d:telnet.c.obj
 0003:000043c8       $SG82736                   00000001004213c8     telnet64d:telnet.c.obj
 0003:000043e0       $SG82738                   00000001004213e0     telnet64d:telnet.c.obj
 0003:000043f8       $SG82740                   00000001004213f8     telnet64d:telnet.c.obj
 0003:00004410       $SG82742                   0000000100421410     telnet64d:telnet.c.obj
 0003:00004428       $SG82744                   0000000100421428     telnet64d:telnet.c.obj
 0003:00004440       $SG82746                   0000000100421440     telnet64d:telnet.c.obj
 0003:00004460       $SG82748                   0000000100421460     telnet64d:telnet.c.obj
 0003:00004478       $SG82750                   0000000100421478     telnet64d:telnet.c.obj
 0003:00004498       $SG82752                   0000000100421498     telnet64d:telnet.c.obj
 0003:000044b0       $SG82764                   00000001004214b0     telnet64d:telnet.c.obj
 0003:000044c8       $SG82766                   00000001004214c8     telnet64d:telnet.c.obj
 0003:000044d8       $SG82768                   00000001004214d8     telnet64d:telnet.c.obj
 0003:000044e8       $SG82770                   00000001004214e8     telnet64d:telnet.c.obj
 0003:000044f8       $SG82772                   00000001004214f8     telnet64d:telnet.c.obj
 0003:00004508       $SG82774                   0000000100421508     telnet64d:telnet.c.obj
 0003:00004518       $SG82776                   0000000100421518     telnet64d:telnet.c.obj
 0003:00004528       $SG82778                   0000000100421528     telnet64d:telnet.c.obj
 0003:00004538       $SG82780                   0000000100421538     telnet64d:telnet.c.obj
 0003:00004558       $SG82782                   0000000100421558     telnet64d:telnet.c.obj
 0003:00004568       $SG82784                   0000000100421568     telnet64d:telnet.c.obj
 0003:00004580       $SG82786                   0000000100421580     telnet64d:telnet.c.obj
 0003:00004598       $SG82788                   0000000100421598     telnet64d:telnet.c.obj
 0003:000045a8       $SG82800                   00000001004215a8     telnet64d:telnet.c.obj
 0003:000045c0       $SG82802                   00000001004215c0     telnet64d:telnet.c.obj
 0003:000045d0       $SG82804                   00000001004215d0     telnet64d:telnet.c.obj
 0003:000045e0       $SG82806                   00000001004215e0     telnet64d:telnet.c.obj
 0003:000045f8       $SG82808                   00000001004215f8     telnet64d:telnet.c.obj
 0003:00004610       $SG82810                   0000000100421610     telnet64d:telnet.c.obj
 0003:00004690       $SG177511                  0000000100421690     console.obj
 0003:00004691       $SG177512                  0000000100421691     console.obj
 0003:00004692       $SG177523                  0000000100421692     console.obj
 0003:00004693       $SG177525                  0000000100421693     console.obj
 0003:00004694       $SG177761                  0000000100421694     console.obj
 0003:000046a0       console_cnslcnt            00000001004216a0     console.obj
 0003:000046a4       $SG178622                  00000001004216a4     console.obj
 0003:000046a5       $SG178634                  00000001004216a5     console.obj
 0003:000046a6       $SG178636                  00000001004216a6     console.obj
 0003:000046a7       $SG178685                  00000001004216a7     console.obj
 0003:000046a8       $SG178984                  00000001004216a8     console.obj
 0003:000046a9       $SG179318                  00000001004216a9     console.obj
 0003:000046aa       $SG179324                  00000001004216aa     console.obj
 0003:000046b0       ?prev@?BN@??console_connection_handler@@9@9 00000001004216b0     console.obj
 0003:000046b8       ?prev@?CE@??console_connection_handler@@9@9 00000001004216b8     console.obj
 0003:000046c0       ?clid@?CI@??console_connection_handler@@9@9 00000001004216c0     console.obj
 0003:000046c8       ?buffer@?3??telnet_cmd_name@@9@9 00000001004216c8     telnet64d:telnet.c.obj
 0003:000046e8       ?buffer@?3??telnet_opt_name@@9@9 00000001004216e8     telnet64d:telnet.c.obj
 0003:00004708       ?buffer@?3??telnet_evt_name@@9@9 0000000100421708     telnet64d:telnet.c.obj
 0003:00004728       ?buffer@?3??telnet_err_name@@9@9 0000000100421728     telnet64d:telnet.c.obj
 0003:00004748       $SG82132                   0000000100421748     telnet64d:telnet.c.obj
 0003:0000474c       ?__proc_attached@@3HA      000000010042174c     MSVCRTD:dll_dllmain.obj
 0003:00004750       GS_ExceptionRecord         0000000100421750     MSVCRTD:gs_report.obj
 0003:000047f0       GS_ContextRecord           00000001004217f0     MSVCRTD:gs_report.obj
 0003:00004cc0       ?init@?1??_RTC_InitBase@@9@4_NA 0000000100421cc0     MSVCRTD:init.obj
 0003:00004d00       ?is_initialized_as_dll@@3_NA 0000000100421d00     MSVCRTD:utility.obj
 0003:00004d01       ?module_local_atexit_table_initialized@@3_NA 0000000100421d01     MSVCRTD:utility.obj
 0003:00004d08       ?module_local_atexit_table@@3U_onexit_table_t@@A 0000000100421d08     MSVCRTD:utility.obj
 0003:00004d20       ?module_local_at_quick_exit_table@@3U_onexit_table_t@@A 0000000100421d20     MSVCRTD:utility.obj
 0003:00004d40       ?_RTC_ErrorReportFunc@@3P6AHHPEBDH00ZZEA 0000000100421d40     MSVCRTD:userapi.obj
 0003:00004d48       ?_RTC_ErrorReportFuncW@@3P6AHHPEB_WH00ZZEA 0000000100421d48     MSVCRTD:userapi.obj
 0003:00004d58       ?mspdb@@3PEAUHINSTANCE__@@EA 0000000100421d58     MSVCRTD:pdblkup.obj
 0003:00004d60       ?alreadyTried@?1??GetPdbDll@@YAPEAUHINSTANCE__@@XZ@4_NA 0000000100421d60     MSVCRTD:pdblkup.obj
 0003:00004d61       ?PDBOK@?1??_RTC_GetSrcLine@@YAHPEAEPEA_WKPEAH1K@Z@4_NA 0000000100421d61     MSVCRTD:pdblkup.obj
 0005:000002d0       $R000000                   00000001004242d0     hercprod.res
 0005:00000878       $R0005A8                   0000000100424878     hercprod.res
 0005:000009a0       $R0006D0                   00000001004249a0     hercprod.res
 0005:00000f08       $R000C38                   0000000100424f08     hercprod.res
 0005:00001370       $R0010A0                   0000000100425370     hercprod.res
 0005:00001658       $R001388                   0000000100425658     hercprod.res
 0005:00001f00       $R001C30                   0000000100425f00     hercprod.res
 0005:00002fa8       $R002CD8                   0000000100426fa8     hercprod.res
 0005:00003610       $R003340                   0000000100427610     hercprod.res
 0005:000044b8       $R0041E8                   00000001004284b8     hercprod.res
 0005:00006a60       $R006790                   000000010042aa60     hercprod.res
 0005:0000ff08       $R00FC38                   0000000100433f08     hercprod.res
 0005:00013bc8       $R0138F8                   0000000100437bc8     hercprod.res
