 hdt3088

 Timestamp is 63e3da0f (Wed Feb  8 18:21:19 2023)

 Preferred load address is 0000000100400000

 Start         Length     Name                   Class
 0001:00000000 00031490H .text$mn                CODE
 0001:00031490 00000040H .text$mn$00             CODE
 0001:000314d0 000000ddH .text$x                 CODE
 0002:00000000 000004c0H .idata$5                DATA
 0002:000004c0 00000038H .00cfg                  DATA
 0002:000004f8 00000008H .CRT$XCA                DATA
 0002:00000500 00000008H .CRT$XCZ                DATA
 0002:00000508 00000008H .CRT$XIA                DATA
 0002:00000510 00000008H .CRT$XIZ                DATA
 0002:00000518 00000008H .CRT$XPA                DATA
 0002:00000520 00000008H .CRT$XPZ                DATA
 0002:00000528 00000008H .CRT$XTA                DATA
 0002:00000530 00000010H .CRT$XTZ                DATA
 0002:00000538 00000000H .gehcont$y              DATA
 0002:00000538 00000000H .gfids$y                DATA
 0002:00000540 000006c0H .rdata                  DATA
 0002:00000c00 00000080H .rdata$CastGuardVftablesA DATA
 0002:00000c80 00000080H .rdata$CastGuardVftablesC DATA
 0002:00000d00 000002d8H .rdata$voltmd           DATA
 0002:00000fd8 00000310H .rdata$zzzdbg           DATA
 0002:000012e8 00000008H .rtc$IAA                DATA
 0002:000012f0 00000008H .rtc$IZZ                DATA
 0002:000012f8 00000008H .rtc$TAA                DATA
 0002:00001300 00000008H .rtc$TZZ                DATA
 0002:00001308 00000bd8H .xdata                  DATA
 0002:00001ee0 00000098H .edata                  DATA
 0002:00001f78 0000008cH .idata$2                DATA
 0002:00002004 00000014H .idata$3                DATA
 0002:00002018 000004c0H .idata$4                DATA
 0002:000024d8 0000094aH .idata$6                DATA
 0003:00000000 0000dd00H .data                   DATA
 0003:0000dd00 00000d88H .bss                    DATA
 0004:00000000 00000b88H .pdata                  DATA
 0005:00000000 000002d0H .rsrc$01                DATA
 0005:000002d0 00013998H .rsrc$02                DATA

  Address         Publics by Value              Rva+Base               Lib:Object

 0000:00000000       __AbsoluteZero             0000000000000000     <absolute>
 0000:00000000       ___safe_se_handler_count   0000000000000000     <absolute>
 0000:00000000       ___safe_se_handler_table   0000000000000000     <absolute>
 0000:00000000       __arm64x_extra_rfe_table   0000000000000000     <absolute>
 0000:00000000       __arm64x_extra_rfe_table_size 0000000000000000     <absolute>
 0000:00000000       __arm64x_native_entrypoint 0000000000000000     <absolute>
 0000:00000000       __arm64x_redirection_metadata 0000000000000000     <absolute>
 0000:00000000       __arm64x_redirection_metadata_count 0000000000000000     <absolute>
 0000:00000000       __dynamic_value_reloc_table 0000000000000000     <absolute>
 0000:00000000       __enclave_config           0000000000000000     <absolute>
 0000:00000000       __guard_check_icall_a64n_fptr 0000000000000000     <absolute>
 0000:00000000       __guard_eh_cont_count      0000000000000000     <absolute>
 0000:00000000       __guard_eh_cont_table      0000000000000000     <absolute>
 0000:00000000       __guard_fids_count         0000000000000000     <absolute>
 0000:00000000       __guard_fids_table         0000000000000000     <absolute>
 0000:00000000       __guard_iat_count          0000000000000000     <absolute>
 0000:00000000       __guard_iat_table          0000000000000000     <absolute>
 0000:00000000       __guard_longjmp_count      0000000000000000     <absolute>
 0000:00000000       __guard_longjmp_table      0000000000000000     <absolute>
 0000:00000000       __hybrid_auxiliary_iat     0000000000000000     <absolute>
 0000:00000000       __hybrid_auxiliary_iat_copy 0000000000000000     <absolute>
 0000:00000000       __hybrid_code_map          0000000000000000     <absolute>
 0000:00000000       __hybrid_code_map_count    0000000000000000     <absolute>
 0000:00000000       __x64_code_ranges_to_entry_points 0000000000000000     <absolute>
 0000:00000000       __x64_code_ranges_to_entry_points_count 0000000000000000     <absolute>
 0000:00000100       __guard_flags              0000000000000100     <absolute>
 0000:00000000       __ImageBase                0000000100400000     <linker-defined>
 0001:00000120       LCS_Init                   0000000100401120 f   ctc_lcs.obj
 0001:00001630       LCS_Close                  0000000100402630 f   ctc_lcs.obj
 0001:000023c0       LCS_Query                  00000001004033c0 f   ctc_lcs.obj
 0001:00002660       LCS_ExecuteCCW             0000000100403660 f   ctc_lcs.obj
 0001:000171c0       LCS_StartChannelProgram    00000001004181c0 f   ctc_lcs.obj
 0001:00017220       LCS_EndChannelProgram      0000000100418220 f   ctc_lcs.obj
 0001:000187b0       hdl_check_depends_ep       00000001004197b0 f   ctc_lcs.obj
 0001:00018830       hdl_register_symbols_ep    0000000100419830 f   ctc_lcs.obj
 0001:00018870       hdl_define_devtypes_ep     0000000100419870 f   ctc_lcs.obj
 0001:000188d0       __local_stdio_printf_options 00000001004198d0 f i ctc_lcs.obj
 0001:000188e0       __local_stdio_scanf_options 00000001004198e0 f i ctc_lcs.obj
 0001:000188f0       _vsnprintf_s               00000001004198f0 f i ctc_lcs.obj
 0001:00018940       _vsnprintf_s_l             0000000100419940 f i ctc_lcs.obj
 0001:000189c0       _vsscanf_l                 00000001004199c0 f i ctc_lcs.obj
 0001:00018a10       fetch_f3_noswap            0000000100419a10 f i ctc_lcs.obj
 0001:00018a50       fetch_hw_noswap            0000000100419a50 f i ctc_lcs.obj
 0001:00018a70       sscanf                     0000000100419a70 f i ctc_lcs.obj
 0001:00018ac0       store_fw_noswap            0000000100419ac0 f i ctc_lcs.obj
 0001:00018ae0       store_hw_noswap            0000000100419ae0 f i ctc_lcs.obj
 0001:00018c00       CTCI_Init                  0000000100419c00 f   ctc_ctci.obj
 0001:00019ae0       CTCI_Close                 000000010041aae0 f   ctc_ctci.obj
 0001:00019b70       CTCI_Query                 000000010041ab70 f   ctc_ctci.obj
 0001:00019e00       CTCI_ExecuteCCW            000000010041ae00 f   ctc_ctci.obj
 0001:0001a3f0       CTCI_Read                  000000010041b3f0 f   ctc_ctci.obj
 0001:0001a900       CTCI_Write                 000000010041b900 f   ctc_ctci.obj
 0001:0001d050       fetch_fw_noswap            000000010041e050 f i ctc_ctci.obj
 0001:0001d070       CTCX_Close                 000000010041e070 f   ctcadpt.obj
 0001:0001d0e0       CTCX_Query                 000000010041e0e0 f   ctcadpt.obj
 0001:0001d260       CTCX_ExecuteCCW            000000010041e260 f   ctcadpt.obj
 0001:0001d880       CTCE_Close                 000000010041e880 f   ctcadpt.obj
 0001:0001d930       CTCE_Query                 000000010041e930 f   ctcadpt.obj
 0001:000298b0       MACTabAdd                  000000010042a8b0 f   netsupp.obj
 0001:00029990       MACTabRem                  000000010042a990 f   netsupp.obj
 0001:00029a10       IsMACTab                   000000010042aa10 f   netsupp.obj
 0001:00029a90       EtherIpv4CkSumOffload      000000010042aa90 f   netsupp.obj
 0001:00029d30       CheckSum                   000000010042ad30 f   netsupp.obj
 0001:0002a560       InetCheckSum               000000010042b560 f   netsupp.obj
 0001:0002a590       PseudoHdrCheckSum          000000010042b590 f   netsupp.obj
 0001:0002a630       read_tuntap                000000010042b630 f   netsupp.obj
 0001:0002a7c0       TUNTAP_CreateInterface     000000010042b7c0 f   tuntap.obj
 0001:0002a9c0       TUNTAP_SetIPAddr           000000010042b9c0 f   tuntap.obj
 0001:0002abe0       TUNTAP_SetDestAddr         000000010042bbe0 f   tuntap.obj
 0001:0002adf0       TUNTAP_SetNetMask          000000010042bdf0 f   tuntap.obj
 0001:0002b000       TUNTAP_SetBCastAddr        000000010042c000 f   tuntap.obj
 0001:0002b210       TUNTAP_SetIPAddr6          000000010042c210 f   tuntap.obj
 0001:0002b560       TUNTAP_GetMTU              000000010042c560 f   tuntap.obj
 0001:0002b800       TUNTAP_SetMTU              000000010042c800 f   tuntap.obj
 0001:0002ba60       TUNTAP_GetMACAddr          000000010042ca60 f   tuntap.obj
 0001:0002bcc0       TUNTAP_SetMACAddr          000000010042ccc0 f   tuntap.obj
 0001:0002bed0       TUNTAP_SetFlags            000000010042ced0 f   tuntap.obj
 0001:0002c000       TUNTAP_GetFlags            000000010042d000 f   tuntap.obj
 0001:0002c150       TT32_AddIPAddr             000000010042d150 f   tuntap.obj
 0001:0002c180       TT32_DelIPAddr             000000010042d180 f   tuntap.obj
 0001:0002c1b0       TT32_QryIPAddrs            000000010042d1b0 f   tuntap.obj
 0001:0002c1e0       build_herc_iface_mac       000000010042d1e0 f   tuntap.obj
 0001:0002c3c0       ParseMAC                   000000010042d3c0 f   tuntap.obj
 0001:0002c560       FormatMAC                  000000010042d560 f   tuntap.obj
 0001:0002c6c0       packet_trace               000000010042d6c0 f   tuntap.obj
 0001:0002c710       net_data_trace             000000010042d710 f   tuntap.obj
 0001:0002cc60       tt32_open                  000000010042dc60 f   w32ctca.obj
 0001:0002ccd0       tt32_read                  000000010042dcd0 f   w32ctca.obj
 0001:0002cd50       tt32_write                 000000010042dd50 f   w32ctca.obj
 0001:0002cdd0       tt32_beg_write_multi       000000010042ddd0 f   w32ctca.obj
 0001:0002ce50       tt32_end_write_multi       000000010042de50 f   w32ctca.obj
 0001:0002ced0       tt32_close                 000000010042ded0 f   w32ctca.obj
 0001:0002cf40       tt32_ioctl                 000000010042df40 f   w32ctca.obj
 0001:0002cfc0       tt32_get_default_iface     000000010042dfc0 f   w32ctca.obj
 0001:0002d040       tt32_build_herc_iface_mac  000000010042e040 f   w32ctca.obj
 0001:0002d080       tt32_version_numbers       000000010042e080 f   w32ctca.obj
 0001:0002d100       display_tt32_stats         000000010042e100 f   w32ctca.obj
 0001:0002ddb0       enable_tt32_debug_tracing  000000010042edb0 f   w32ctca.obj
 0001:0002de30       GetTT32ProcAddrs           000000010042ee30 f   w32ctca.obj
 0001:0002e260       tt32_output_debug_string   000000010042f260 f   w32ctca.obj
 0001:0002e380       tt32_loaddll               000000010042f380 f   w32ctca.obj
 0001:0002e800       _vsnprintf_l               000000010042f800 f i w32ctca.obj
 0001:0002e880       _vsprintf_l                000000010042f880 f i w32ctca.obj
 0001:0002e8d0       sprintf                    000000010042f8d0 f i w32ctca.obj
 0001:0002e920       resolve_host               000000010042f920 f   resolve.obj
 0001:0002eca0       resolve_ipaddr             000000010042fca0 f   resolve.obj
 0001:0002efe0       resolve_sa                 000000010042ffe0 f   resolve.obj
 0001:0002f180       gai_strerrorA              0000000100430180 f i resolve.obj
 0001:0002f1c9       init_sysblk_netdev         00000001004301c9 f   hengine:hengine.dll
 0001:0002f1cf       group_device               00000001004301cf f   hengine:hengine.dll
 0001:0002f1d5       device_attention           00000001004301d5 f   hengine:hengine.dll
 0001:0002f1db       devinit_cmd                00000001004301db f   hengine:hengine.dll
 0001:0002f1e1       hthread_initialize_lock    00000001004301e1 f   hutil:hutil.dll
 0001:0002f1e7       hthread_obtain_lock        00000001004301e7 f   hutil:hutil.dll
 0001:0002f1ed       hthread_release_lock       00000001004301ed f   hutil:hutil.dll
 0001:0002f1f3       hthread_initialize_condition 00000001004301f3 f   hutil:hutil.dll
 0001:0002f1f9       hthread_signal_condition   00000001004301f9 f   hutil:hutil.dll
 0001:0002f1ff       hthread_timed_wait_condition 00000001004301ff f   hutil:hutil.dll
 0001:0002f205       hthread_create_thread      0000000100430205 f   hutil:hutil.dll
 0001:0002f20b       hthread_join_thread        000000010043020b f   hutil:hutil.dll
 0001:0002f211       hthread_detach_thread      0000000100430211 f   hutil:hutil.dll
 0001:0002f217       ptt_pthread_trace          0000000100430217 f   hutil:hutil.dll
 0001:0002f21d       resolve_symbol_string      000000010043021d f   hutil:hutil.dll
 0001:0002f223       set_symbol                 0000000100430223 f   hutil:hutil.dll
 0001:0002f229       strlcpy                    0000000100430229 f   hutil:hutil.dll
 0001:0002f22f       strlcat                    000000010043022f f   hutil:hutil.dll
 0001:0002f235       timed_wait_condition_relative_usecs_impl 0000000100430235 f   hutil:hutil.dll
 0001:0002f23b       rtrim                      000000010043023b f   hutil:hutil.dll
 0001:0002f241       w32_strerror               0000000100430241 f   hutil:hutil.dll
 0001:0002f247       strtok_r                   0000000100430247 f   hutil:hutil.dll
 0001:0002f24d       gettimeofday               000000010043024d f   hutil:hutil.dll
 0001:0002f253       usleep                     0000000100430253 f   hutil:hutil.dll
 0001:0002f259       inet_aton                  0000000100430259 f   hutil:hutil.dll
 0001:0002f25f       hostpath                   000000010043025f f   hutil:hutil.dll
 0001:0002f265       w32_socket                 0000000100430265 f   hutil:hutil.dll
 0001:0002f26b       w32_snprintf               000000010043026b f   hutil:hutil.dll
 0001:0002f271       w32_fclose                 0000000100430271 f   hutil:hutil.dll
 0001:0002f277       w32_basename               0000000100430277 f   hutil:hutil.dll
 0001:0002f27d       getopt_long                000000010043027d f   hutil:hutil.dll
 0001:0002f283       fwritemsg                  0000000100430283 f   hutil:hutil.dll
 0001:0002f289       logmsg                     0000000100430289 f   hutil:hutil.dll
 0001:0002f28f       guest_to_host              000000010043028f f   hutil:hutil.dll
 0001:0002f295       fthread_self               0000000100430295 f   hutil:hutil.dll
 0001:0002f29b       socket_is_socket           000000010043029b f   hutil:hutil.dll
 0001:0002f2a1       set_socket_keepalive       00000001004302a1 f   hutil:hutil.dll
 0001:0002f2a7       w32_accept                 00000001004302a7 f   hutil:hutil.dll
 0001:0002f2ad       w32_close_socket           00000001004302ad f   hutil:hutil.dll
 0001:0002f2b3       w32_FD_SET                 00000001004302b3 f   hutil:hutil.dll
 0001:0002f2b9       w32_select                 00000001004302b9 f   hutil:hutil.dll
 0001:0002f2bf       read_socket                00000001004302bf f   hutil:hutil.dll
 0001:0002f2c5       write_socket               00000001004302c5 f   hutil:hutil.dll
 0001:0002f2cb       w32_if_nametoindex         00000001004302cb f   hutil:hutil.dll
 0001:0002f2d1       w32_inet_pton              00000001004302d1 f   hutil:hutil.dll
 0001:0002f2d7       get_symbol                 00000001004302d7 f   hutil:hutil.dll
 0001:0002f2dd       hdl_getpath                00000001004302dd f   hutil:hutil.dll
 0001:0002f2e3       w32_inet_ntop              00000001004302e3 f   hutil:hutil.dll
 0001:0002f2e9       IsDebuggerPresent          00000001004302e9 f   kernel32:KERNEL32.dll
 0001:0002f2ef       OutputDebugStringA         00000001004302ef f   kernel32:KERNEL32.dll
 0001:0002f2f5       GetLastError               00000001004302f5 f   kernel32:KERNEL32.dll
 0001:0002f2fb       InitializeCriticalSection  00000001004302fb f   kernel32:KERNEL32.dll
 0001:0002f301       EnterCriticalSection       0000000100430301 f   kernel32:KERNEL32.dll
 0001:0002f307       LeaveCriticalSection       0000000100430307 f   kernel32:KERNEL32.dll
 0001:0002f30d       FreeLibrary                000000010043030d f   kernel32:KERNEL32.dll
 0001:0002f313       GetProcAddress             0000000100430313 f   kernel32:KERNEL32.dll
 0001:0002f319       LoadLibraryExA             0000000100430319 f   kernel32:KERNEL32.dll
 0001:0002f31f       FormatMessageA             000000010043031f f   kernel32:KERNEL32.dll
 0001:0002f325       ntohl                      0000000100430325 f   ws2_32:WS2_32.dll
 0001:0002f32b       WSAGetLastError            000000010043032b f   ws2_32:WS2_32.dll
 0001:0002f331       inet_addr                  0000000100430331 f   ws2_32:WS2_32.dll
 0001:0002f337       bind                       0000000100430337 f   ws2_32:WS2_32.dll
 0001:0002f33d       connect                    000000010043033d f   ws2_32:WS2_32.dll
 0001:0002f343       getsockname                0000000100430343 f   ws2_32:WS2_32.dll
 0001:0002f349       htonl                      0000000100430349 f   ws2_32:WS2_32.dll
 0001:0002f34f       htons                      000000010043034f f   ws2_32:WS2_32.dll
 0001:0002f355       inet_ntoa                  0000000100430355 f   ws2_32:WS2_32.dll
 0001:0002f35b       listen                     000000010043035b f   ws2_32:WS2_32.dll
 0001:0002f361       ntohs                      0000000100430361 f   ws2_32:WS2_32.dll
 0001:0002f367       setsockopt                 0000000100430367 f   ws2_32:WS2_32.dll
 0001:0002f36d       shutdown                   000000010043036d f   ws2_32:WS2_32.dll
 0001:0002f373       gethostbyname              0000000100430373 f   ws2_32:WS2_32.dll
 0001:0002f379       getaddrinfo                0000000100430379 f   ws2_32:WS2_32.dll
 0001:0002f37f       freeaddrinfo               000000010043037f f   ws2_32:WS2_32.dll
 0001:0002f385       getnameinfo                0000000100430385 f   ws2_32:WS2_32.dll
 0001:0002f7a0       _CRT_INIT                  00000001004307a0 f   MSVCRTD:dll_dllmain.obj
 0001:0002f7d0       _DllMainCRTStartup         00000001004307d0 f   MSVCRTD:dll_dllmain.obj
 0001:0002f810       __raise_securityfailure    0000000100430810 f   MSVCRTD:gs_report.obj
 0001:0002f850       __report_gsfailure         0000000100430850 f   MSVCRTD:gs_report.obj
 0001:0002f930       __report_rangecheckfailure 0000000100430930 f   MSVCRTD:gs_report.obj
 0001:0002f950       __report_securityfailure   0000000100430950 f   MSVCRTD:gs_report.obj
 0001:0002f9f0       __report_securityfailureEx 00000001004309f0 f   MSVCRTD:gs_report.obj
 0001:0002fc60       __GSHandlerCheck           0000000100430c60 f   MSVCRTD:gshandler.obj
 0001:0002fca0       __GSHandlerCheckCommon     0000000100430ca0 f   MSVCRTD:gshandler.obj
 0001:0002fdb0       __chkstk                   0000000100430db0 f   MSVCRTD:chkstk.obj
 0001:0002fdb0       _alloca_probe              0000000100430db0 f   MSVCRTD:chkstk.obj
 0001:0002fe10       __security_check_cookie    0000000100430e10 f   MSVCRTD:amdsecgs.obj
 0001:0002fef0       __security_init_cookie     0000000100430ef0 f   MSVCRTD:gs_support.obj
 0001:0002ff70       DllMain                    0000000100430f70 f   MSVCRTD:dll_dllmain_stub.obj
 0001:0002ffb0       ?__scrt_initialize_type_info@@YAXXZ 0000000100430fb0 f   MSVCRTD:tncleanup.obj
 0001:0002ffd0       ?__scrt_uninitialize_type_info@@YAXXZ 0000000100430fd0 f   MSVCRTD:tncleanup.obj
 0001:0002fff0       __scrt_initialize_default_local_stdio_options 0000000100430ff0 f   MSVCRTD:default_local_stdio_options.obj
 0001:00030040       ?configure_argv@__scrt_narrow_argv_policy@@SAHXZ 0000000100431040 f i MSVCRTD:utility.obj
 0001:00030130       ?initialize_environment@__scrt_narrow_environment_policy@@SAHXZ 0000000100431130 f i MSVCRTD:utility.obj
 0001:000301d0       NtCurrentTeb               00000001004311d0 f i MSVCRTD:utility.obj
 0001:000301e0       __scrt_acquire_startup_lock 00000001004311e0 f   MSVCRTD:utility.obj
 0001:00030250       __scrt_dllmain_after_initialize_c 0000000100431250 f   MSVCRTD:utility.obj
 0001:00030280       __scrt_dllmain_before_initialize_c 0000000100431280 f   MSVCRTD:utility.obj
 0001:000302a0       __scrt_dllmain_crt_thread_attach 00000001004312a0 f   MSVCRTD:utility.obj
 0001:000302d0       __scrt_dllmain_crt_thread_detach 00000001004312d0 f   MSVCRTD:utility.obj
 0001:000302f0       __scrt_dllmain_exception_filter 00000001004312f0 f   MSVCRTD:utility.obj
 0001:00030360       __scrt_dllmain_uninitialize_c 0000000100431360 f   MSVCRTD:utility.obj
 0001:00030390       __scrt_dllmain_uninitialize_critical 0000000100431390 f   MSVCRTD:utility.obj
 0001:000303b0       __scrt_initialize_crt      00000001004313b0 f   MSVCRTD:utility.obj
 0001:00030400       __scrt_initialize_onexit_tables 0000000100431400 f   MSVCRTD:utility.obj
 0001:00030510       __scrt_is_nonwritable_in_current_image 0000000100431510 f   MSVCRTD:utility.obj
 0001:000305a0       __scrt_release_startup_lock 00000001004315a0 f   MSVCRTD:utility.obj
 0001:000305d0       __scrt_uninitialize_crt    00000001004315d0 f   MSVCRTD:utility.obj
 0001:00030610       _onexit                    0000000100431610 f   MSVCRTD:utility.obj
 0001:00030690       at_quick_exit              0000000100431690 f   MSVCRTD:utility.obj
 0001:000306e0       atexit                     00000001004316e0 f   MSVCRTD:utility.obj
 0001:00030720       __scrt_get_dyn_tls_init_callback 0000000100431720 f   MSVCRTD:dyn_tls_init.obj
 0001:00030730       __crt_debugger_hook        0000000100431730 f   MSVCRTD:utility_desktop.obj
 0001:00030740       __scrt_fastfail            0000000100431740 f   MSVCRTD:utility_desktop.obj
 0001:000308e0       __scrt_get_show_window_mode 00000001004318e0 f   MSVCRTD:utility_desktop.obj
 0001:00030940       __scrt_initialize_mta      0000000100431940 f   MSVCRTD:utility_desktop.obj
 0001:00030950       __scrt_initialize_winrt    0000000100431950 f   MSVCRTD:utility_desktop.obj
 0001:00030960       __scrt_is_managed_app      0000000100431960 f   MSVCRTD:utility_desktop.obj
 0001:00030a10       __scrt_set_unhandled_exception_filter 0000000100431a10 f   MSVCRTD:utility_desktop.obj
 0001:00030a30       __scrt_exe_initialize_mta  0000000100431a30 f   MSVCRTD:utility_desktop.obj
 0001:00030a30       __scrt_stub_for_initialize_mta 0000000100431a30 f   MSVCRTD:utility_desktop.obj
 0001:00030a40       __scrt_unhandled_exception_filter 0000000100431a40 f   MSVCRTD:utility_desktop.obj
 0001:00030ae0       _RTC_Initialize            0000000100431ae0 f   MSVCRTD:initsect.obj
 0001:00030b30       _RTC_Terminate             0000000100431b30 f   MSVCRTD:initsect.obj
 0001:00030b80       _guard_check_icall_nop     0000000100431b80 f i MSVCRTD:guard_support.obj
 0001:00030b90       ReadNoFence64              0000000100431b90 f i MSVCRTD:guard_support.obj
 0001:00030bb0       ReadPointerNoFence         0000000100431bb0 f i MSVCRTD:guard_support.obj
 0001:00030bd0       __castguard_check_failure_debugbreak 0000000100431bd0 f i MSVCRTD:guard_support.obj
 0001:00030bf0       __castguard_check_failure_fastfail 0000000100431bf0 f i MSVCRTD:guard_support.obj
 0001:00030c20       __castguard_check_failure_nop 0000000100431c20 f i MSVCRTD:guard_support.obj
 0001:00030c30       __castguard_check_failure_os_handled 0000000100431c30 f i MSVCRTD:guard_support.obj
 0001:00030d00       __castguard_slow_path_check_debugbreak 0000000100431d00 f i MSVCRTD:guard_support.obj
 0001:00030d40       __castguard_slow_path_check_fastfail 0000000100431d40 f i MSVCRTD:guard_support.obj
 0001:00030d90       __castguard_slow_path_check_nop 0000000100431d90 f i MSVCRTD:guard_support.obj
 0001:00030da0       __castguard_slow_path_check_os_handled 0000000100431da0 f i MSVCRTD:guard_support.obj
 0001:00030e60       _guard_icall_checks_enforced 0000000100431e60 f i MSVCRTD:guard_support.obj
 0001:00030ea0       _guard_rf_checks_enforced  0000000100431ea0 f i MSVCRTD:guard_support.obj
 0001:00030eb0       __isa_available_init       0000000100431eb0 f   MSVCRTD:cpu_disp.obj
 0001:00031260       _get_startup_argv_mode     0000000100432260 f   MSVCRTD:argv_mode.obj
 0001:00031270       __scrt_is_ucrt_dll_in_use  0000000100432270 f   MSVCRTD:ucrt_detection.obj
 0001:000312a0       memcmp                     00000001004322a0 f   vcruntimed:VCRUNTIME140D.dll
 0001:000312a6       strchr                     00000001004322a6 f   vcruntimed:VCRUNTIME140D.dll
 0001:000312ac       __C_specific_handler       00000001004322ac f   vcruntimed:VCRUNTIME140D.dll
 0001:000312b2       __std_type_info_destroy_list 00000001004322b2 f   vcruntimed:VCRUNTIME140D.dll
 0001:000312b8       __current_exception        00000001004322b8 f   vcruntimed:VCRUNTIME140D.dll
 0001:000312be       __current_exception_context 00000001004322be f   vcruntimed:VCRUNTIME140D.dll
 0001:000312c4       _errno                     00000001004322c4 f   ucrtd:ucrtbased.dll
 0001:000312ca       strcmp                     00000001004322ca f   ucrtd:ucrtbased.dll
 0001:000312d0       _stricmp                   00000001004322d0 f   ucrtd:ucrtbased.dll
 0001:000312d6       strlen                     00000001004322d6 f   ucrtd:ucrtbased.dll
 0001:000312dc       calloc                     00000001004322dc f   ucrtd:ucrtbased.dll
 0001:000312e2       free                       00000001004322e2 f   ucrtd:ucrtbased.dll
 0001:000312e8       malloc                     00000001004322e8 f   ucrtd:ucrtbased.dll
 0001:000312ee       exit                       00000001004322ee f   ucrtd:ucrtbased.dll
 0001:000312f4       _byteswap_ushort           00000001004322f4 f   ucrtd:ucrtbased.dll
 0001:000312fa       _byteswap_ulong            00000001004322fa f   ucrtd:ucrtbased.dll
 0001:00031300       atoi                       0000000100432300 f   ucrtd:ucrtbased.dll
 0001:00031306       __acrt_iob_func            0000000100432306 f   ucrtd:ucrtbased.dll
 0001:0003130c       ferror                     000000010043230c f   ucrtd:ucrtbased.dll
 0001:00031312       fgetc                      0000000100432312 f   ucrtd:ucrtbased.dll
 0001:00031318       fopen                      0000000100432318 f   ucrtd:ucrtbased.dll
 0001:0003131e       __stdio_common_vsnprintf_s 000000010043231e f   ucrtd:ucrtbased.dll
 0001:00031324       __stdio_common_vsscanf     0000000100432324 f   ucrtd:ucrtbased.dll
 0001:0003132a       _time64                    000000010043232a f   ucrtd:ucrtbased.dll
 0001:00031330       _strnicmp                  0000000100432330 f   ucrtd:ucrtbased.dll
 0001:00031336       strcpy                     0000000100432336 f   ucrtd:ucrtbased.dll
 0001:0003133c       strtoul                    000000010043233c f   ucrtd:ucrtbased.dll
 0001:00031342       isxdigit                   0000000100432342 f   ucrtd:ucrtbased.dll
 0001:00031348       isprint                    0000000100432348 f   ucrtd:ucrtbased.dll
 0001:0003134e       strncpy                    000000010043234e f   ucrtd:ucrtbased.dll
 0001:00031354       rand                       0000000100432354 f   ucrtd:ucrtbased.dll
 0001:0003135a       isspace                    000000010043235a f   ucrtd:ucrtbased.dll
 0001:00031360       _fullpath                  0000000100432360 f   ucrtd:ucrtbased.dll
 0001:00031366       __stdio_common_vsprintf    0000000100432366 f   ucrtd:ucrtbased.dll
 0001:0003136c       _initterm                  000000010043236c f   ucrtd:ucrtbased.dll
 0001:00031372       _initterm_e                0000000100432372 f   ucrtd:ucrtbased.dll
 0001:00031378       _seh_filter_dll            0000000100432378 f   ucrtd:ucrtbased.dll
 0001:0003137e       _configure_narrow_argv     000000010043237e f   ucrtd:ucrtbased.dll
 0001:00031384       _initialize_narrow_environment 0000000100432384 f   ucrtd:ucrtbased.dll
 0001:0003138a       _initialize_onexit_table   000000010043238a f   ucrtd:ucrtbased.dll
 0001:00031390       _register_onexit_function  0000000100432390 f   ucrtd:ucrtbased.dll
 0001:00031396       _execute_onexit_table      0000000100432396 f   ucrtd:ucrtbased.dll
 0001:0003139c       _crt_atexit                000000010043239c f   ucrtd:ucrtbased.dll
 0001:000313a2       _crt_at_quick_exit         00000001004323a2 f   ucrtd:ucrtbased.dll
 0001:000313a8       _cexit                     00000001004323a8 f   ucrtd:ucrtbased.dll
 0001:000313ae       terminate                  00000001004323ae f   ucrtd:ucrtbased.dll
 0001:000313b4       _strdup                    00000001004323b4 f   ucrtd:ucrtbased.dll
 0001:000313ba       _close                     00000001004323ba f   ucrtd:ucrtbased.dll
 0001:000313c0       _getpid                    00000001004323c0 f   ucrtd:ucrtbased.dll
 0001:000313c6       RtlCaptureContext          00000001004323c6 f   kernel32:KERNEL32.dll
 0001:000313cc       RtlLookupFunctionEntry     00000001004323cc f   kernel32:KERNEL32.dll
 0001:000313d2       RtlVirtualUnwind           00000001004323d2 f   kernel32:KERNEL32.dll
 0001:000313d8       UnhandledExceptionFilter   00000001004323d8 f   kernel32:KERNEL32.dll
 0001:000313de       SetUnhandledExceptionFilter 00000001004323de f   kernel32:KERNEL32.dll
 0001:000313e4       GetCurrentProcess          00000001004323e4 f   kernel32:KERNEL32.dll
 0001:000313ea       TerminateProcess           00000001004323ea f   kernel32:KERNEL32.dll
 0001:000313f0       IsProcessorFeaturePresent  00000001004323f0 f   kernel32:KERNEL32.dll
 0001:000313f6       QueryPerformanceCounter    00000001004323f6 f   kernel32:KERNEL32.dll
 0001:000313fc       GetCurrentProcessId        00000001004323fc f   kernel32:KERNEL32.dll
 0001:00031402       GetCurrentThreadId         0000000100432402 f   kernel32:KERNEL32.dll
 0001:00031408       GetSystemTimeAsFileTime    0000000100432408 f   kernel32:KERNEL32.dll
 0001:0003140e       DisableThreadLibraryCalls  000000010043240e f   kernel32:KERNEL32.dll
 0001:00031414       InitializeSListHead        0000000100432414 f   kernel32:KERNEL32.dll
 0001:0003141a       GetStartupInfoW            000000010043241a f   kernel32:KERNEL32.dll
 0001:00031420       GetModuleHandleW           0000000100432420 f   kernel32:KERNEL32.dll
 0001:00031430       __acrt_initialize          0000000100432430 f   MSVCRTD:ucrt_stubs.obj
 0001:00031430       __scrt_stub_for_acrt_initialize 0000000100432430 f   MSVCRTD:ucrt_stubs.obj
 0001:00031430       __vcrt_initialize          0000000100432430 f   MSVCRTD:ucrt_stubs.obj
 0001:00031440       __acrt_thread_attach       0000000100432440 f   MSVCRTD:ucrt_stubs.obj
 0001:00031440       __scrt_stub_for_acrt_thread_attach 0000000100432440 f   MSVCRTD:ucrt_stubs.obj
 0001:00031440       __vcrt_thread_attach       0000000100432440 f   MSVCRTD:ucrt_stubs.obj
 0001:00031450       __acrt_thread_detach       0000000100432450 f   MSVCRTD:ucrt_stubs.obj
 0001:00031450       __scrt_stub_for_acrt_thread_detach 0000000100432450 f   MSVCRTD:ucrt_stubs.obj
 0001:00031450       __vcrt_thread_detach       0000000100432450 f   MSVCRTD:ucrt_stubs.obj
 0001:00031460       __acrt_uninitialize        0000000100432460 f   MSVCRTD:ucrt_stubs.obj
 0001:00031460       __scrt_stub_for_acrt_uninitialize 0000000100432460 f   MSVCRTD:ucrt_stubs.obj
 0001:00031460       __vcrt_uninitialize        0000000100432460 f   MSVCRTD:ucrt_stubs.obj
 0001:00031470       __acrt_uninitialize_critical 0000000100432470 f   MSVCRTD:ucrt_stubs.obj
 0001:00031470       __scrt_stub_for_acrt_uninitialize_critical 0000000100432470 f   MSVCRTD:ucrt_stubs.obj
 0001:00031470       __vcrt_uninitialize_critical 0000000100432470 f   MSVCRTD:ucrt_stubs.obj
 0001:00031480       __scrt_stub_for_is_c_termination_complete 0000000100432480 f   MSVCRTD:ucrt_stubs.obj
 0001:00031480       _is_c_termination_complete 0000000100432480 f   MSVCRTD:ucrt_stubs.obj
 0001:00031483       memcpy                     0000000100432483 f   vcruntimed:VCRUNTIME140D.dll
 0001:000314a0       _guard_dispatch_icall_nop  00000001004324a0 f   MSVCRTD:guard_dispatch.obj
 0001:000314c0       _guard_xfg_dispatch_icall_nop 00000001004324c0 f   MSVCRTD:guard_xfg_dispatch.obj
 0002:00000000       __imp_IsDebuggerPresent    0000000100433000     kernel32:KERNEL32.dll
 0002:00000008       __imp_GetModuleHandleW     0000000100433008     kernel32:KERNEL32.dll
 0002:00000010       __imp_GetStartupInfoW      0000000100433010     kernel32:KERNEL32.dll
 0002:00000018       __imp_InitializeSListHead  0000000100433018     kernel32:KERNEL32.dll
 0002:00000020       __imp_DisableThreadLibraryCalls 0000000100433020     kernel32:KERNEL32.dll
 0002:00000028       __imp_GetSystemTimeAsFileTime 0000000100433028     kernel32:KERNEL32.dll
 0002:00000030       __imp_GetCurrentThreadId   0000000100433030     kernel32:KERNEL32.dll
 0002:00000038       __imp_GetCurrentProcessId  0000000100433038     kernel32:KERNEL32.dll
 0002:00000040       __imp_QueryPerformanceCounter 0000000100433040     kernel32:KERNEL32.dll
 0002:00000048       __imp_IsProcessorFeaturePresent 0000000100433048     kernel32:KERNEL32.dll
 0002:00000050       __imp_TerminateProcess     0000000100433050     kernel32:KERNEL32.dll
 0002:00000058       __imp_GetCurrentProcess    0000000100433058     kernel32:KERNEL32.dll
 0002:00000060       __imp_SetUnhandledExceptionFilter 0000000100433060     kernel32:KERNEL32.dll
 0002:00000068       __imp_UnhandledExceptionFilter 0000000100433068     kernel32:KERNEL32.dll
 0002:00000070       __imp_RtlVirtualUnwind     0000000100433070     kernel32:KERNEL32.dll
 0002:00000078       __imp_RtlLookupFunctionEntry 0000000100433078     kernel32:KERNEL32.dll
 0002:00000080       __imp_RtlCaptureContext    0000000100433080     kernel32:KERNEL32.dll
 0002:00000088       __imp_OutputDebugStringA   0000000100433088     kernel32:KERNEL32.dll
 0002:00000090       __imp_FormatMessageA       0000000100433090     kernel32:KERNEL32.dll
 0002:00000098       __imp_LoadLibraryExA       0000000100433098     kernel32:KERNEL32.dll
 0002:000000a0       __imp_GetProcAddress       00000001004330a0     kernel32:KERNEL32.dll
 0002:000000a8       __imp_FreeLibrary          00000001004330a8     kernel32:KERNEL32.dll
 0002:000000b0       __imp_LeaveCriticalSection 00000001004330b0     kernel32:KERNEL32.dll
 0002:000000b8       __imp_EnterCriticalSection 00000001004330b8     kernel32:KERNEL32.dll
 0002:000000c0       __imp_GetLastError         00000001004330c0     kernel32:KERNEL32.dll
 0002:000000c8       __imp_InitializeCriticalSection 00000001004330c8     kernel32:KERNEL32.dll
 0002:000000d0       \177KERNEL32_NULL_THUNK_DATA 00000001004330d0     kernel32:KERNEL32.dll
 0002:000000d8       __imp_strchr               00000001004330d8     vcruntimed:VCRUNTIME140D.dll
 0002:000000e0       __imp___C_specific_handler 00000001004330e0     vcruntimed:VCRUNTIME140D.dll
 0002:000000e8       __imp___std_type_info_destroy_list 00000001004330e8     vcruntimed:VCRUNTIME140D.dll
 0002:000000f0       __imp___current_exception  00000001004330f0     vcruntimed:VCRUNTIME140D.dll
 0002:000000f8       __imp___current_exception_context 00000001004330f8     vcruntimed:VCRUNTIME140D.dll
 0002:00000100       __imp_memcmp               0000000100433100     vcruntimed:VCRUNTIME140D.dll
 0002:00000108       __imp_memcpy               0000000100433108     vcruntimed:VCRUNTIME140D.dll
 0002:00000110       \177VCRUNTIME140D_NULL_THUNK_DATA 0000000100433110     vcruntimed:VCRUNTIME140D.dll
 0002:00000118       __imp_getsockname          0000000100433118     ws2_32:WS2_32.dll
 0002:00000120       __imp_connect              0000000100433120     ws2_32:WS2_32.dll
 0002:00000128       __imp_bind                 0000000100433128     ws2_32:WS2_32.dll
 0002:00000130       __imp_inet_addr            0000000100433130     ws2_32:WS2_32.dll
 0002:00000138       __imp_WSAGetLastError      0000000100433138     ws2_32:WS2_32.dll
 0002:00000140       __imp_ntohl                0000000100433140     ws2_32:WS2_32.dll
 0002:00000148       __imp_htons                0000000100433148     ws2_32:WS2_32.dll
 0002:00000150       __imp_inet_ntoa            0000000100433150     ws2_32:WS2_32.dll
 0002:00000158       __imp_listen               0000000100433158     ws2_32:WS2_32.dll
 0002:00000160       __imp_ntohs                0000000100433160     ws2_32:WS2_32.dll
 0002:00000168       __imp_setsockopt           0000000100433168     ws2_32:WS2_32.dll
 0002:00000170       __imp_shutdown             0000000100433170     ws2_32:WS2_32.dll
 0002:00000178       __imp_gethostbyname        0000000100433178     ws2_32:WS2_32.dll
 0002:00000180       __imp_freeaddrinfo         0000000100433180     ws2_32:WS2_32.dll
 0002:00000188       __imp_getnameinfo          0000000100433188     ws2_32:WS2_32.dll
 0002:00000190       __imp_htonl                0000000100433190     ws2_32:WS2_32.dll
 0002:00000198       __imp_getaddrinfo          0000000100433198     ws2_32:WS2_32.dll
 0002:000001a0       \177WS2_32_NULL_THUNK_DATA 00000001004331a0     ws2_32:WS2_32.dll
 0002:000001a8       __imp_device_attention     00000001004331a8     hengine:hengine.dll
 0002:000001b0       __imp_group_device         00000001004331b0     hengine:hengine.dll
 0002:000001b8       __imp_devinit_cmd          00000001004331b8     hengine:hengine.dll
 0002:000001c0       __imp_init_sysblk_netdev   00000001004331c0     hengine:hengine.dll
 0002:000001c8       \177hengine_NULL_THUNK_DATA 00000001004331c8     hengine:hengine.dll
 0002:000001d0       __imp_sysblk               00000001004331d0     hsys:hsys.dll
 0002:000001d8       \177hsys_NULL_THUNK_DATA   00000001004331d8     hsys:hsys.dll
 0002:000001e0       __imp_write_socket         00000001004331e0     hutil:hutil.dll
 0002:000001e8       __imp_read_socket          00000001004331e8     hutil:hutil.dll
 0002:000001f0       __imp_w32_select           00000001004331f0     hutil:hutil.dll
 0002:000001f8       __imp_w32_FD_SET           00000001004331f8     hutil:hutil.dll
 0002:00000200       __imp_w32_close_socket     0000000100433200     hutil:hutil.dll
 0002:00000208       __imp_w32_accept           0000000100433208     hutil:hutil.dll
 0002:00000210       __imp_set_socket_keepalive 0000000100433210     hutil:hutil.dll
 0002:00000218       __imp_socket_is_socket     0000000100433218     hutil:hutil.dll
 0002:00000220       __imp_fthread_self         0000000100433220     hutil:hutil.dll
 0002:00000228       __imp_guest_to_host        0000000100433228     hutil:hutil.dll
 0002:00000230       __imp_optarg               0000000100433230     hutil:hutil.dll
 0002:00000238       __imp_optind               0000000100433238     hutil:hutil.dll
 0002:00000240       __imp_pttclass             0000000100433240     hutil:hutil.dll
 0002:00000248       __imp_get_symbol           0000000100433248     hutil:hutil.dll
 0002:00000250       __imp_fwritemsg            0000000100433250     hutil:hutil.dll
 0002:00000258       __imp_w32_if_nametoindex   0000000100433258     hutil:hutil.dll
 0002:00000260       __imp_w32_basename         0000000100433260     hutil:hutil.dll
 0002:00000268       __imp_w32_fclose           0000000100433268     hutil:hutil.dll
 0002:00000270       __imp_w32_snprintf         0000000100433270     hutil:hutil.dll
 0002:00000278       __imp_w32_socket           0000000100433278     hutil:hutil.dll
 0002:00000280       __imp_hostpath             0000000100433280     hutil:hutil.dll
 0002:00000288       __imp_inet_aton            0000000100433288     hutil:hutil.dll
 0002:00000290       __imp_usleep               0000000100433290     hutil:hutil.dll
 0002:00000298       __imp_hdl_getpath          0000000100433298     hutil:hutil.dll
 0002:000002a0       __imp_gettimeofday         00000001004332a0     hutil:hutil.dll
 0002:000002a8       __imp_strtok_r             00000001004332a8     hutil:hutil.dll
 0002:000002b0       __imp_w32_strerror         00000001004332b0     hutil:hutil.dll
 0002:000002b8       __imp_rtrim                00000001004332b8     hutil:hutil.dll
 0002:000002c0       __imp_timed_wait_condition_relative_usecs_impl 00000001004332c0     hutil:hutil.dll
 0002:000002c8       __imp_strlcat              00000001004332c8     hutil:hutil.dll
 0002:000002d0       __imp_strlcpy              00000001004332d0     hutil:hutil.dll
 0002:000002d8       __imp_w32_inet_ntop        00000001004332d8     hutil:hutil.dll
 0002:000002e0       __imp_getopt_long          00000001004332e0     hutil:hutil.dll
 0002:000002e8       __imp_w32_inet_pton        00000001004332e8     hutil:hutil.dll
 0002:000002f0       __imp_logmsg               00000001004332f0     hutil:hutil.dll
 0002:000002f8       __imp_hthread_initialize_lock 00000001004332f8     hutil:hutil.dll
 0002:00000300       __imp_hthread_obtain_lock  0000000100433300     hutil:hutil.dll
 0002:00000308       __imp_hthread_release_lock 0000000100433308     hutil:hutil.dll
 0002:00000310       __imp_hthread_initialize_condition 0000000100433310     hutil:hutil.dll
 0002:00000318       __imp_hthread_signal_condition 0000000100433318     hutil:hutil.dll
 0002:00000320       __imp_hthread_timed_wait_condition 0000000100433320     hutil:hutil.dll
 0002:00000328       __imp_hthread_create_thread 0000000100433328     hutil:hutil.dll
 0002:00000330       __imp_resolve_symbol_string 0000000100433330     hutil:hutil.dll
 0002:00000338       __imp_hthread_join_thread  0000000100433338     hutil:hutil.dll
 0002:00000340       __imp_hthread_detach_thread 0000000100433340     hutil:hutil.dll
 0002:00000348       __imp_ptt_pthread_trace    0000000100433348     hutil:hutil.dll
 0002:00000350       __imp_set_symbol           0000000100433350     hutil:hutil.dll
 0002:00000358       \177hutil_NULL_THUNK_DATA  0000000100433358     hutil:hutil.dll
 0002:00000360       __imp__time64              0000000100433360     ucrtd:ucrtbased.dll
 0002:00000368       __imp__strnicmp            0000000100433368     ucrtd:ucrtbased.dll
 0002:00000370       __imp_strcpy               0000000100433370     ucrtd:ucrtbased.dll
 0002:00000378       __imp_strtoul              0000000100433378     ucrtd:ucrtbased.dll
 0002:00000380       __imp_isxdigit             0000000100433380     ucrtd:ucrtbased.dll
 0002:00000388       __imp_isprint              0000000100433388     ucrtd:ucrtbased.dll
 0002:00000390       __imp_strncpy              0000000100433390     ucrtd:ucrtbased.dll
 0002:00000398       __imp_rand                 0000000100433398     ucrtd:ucrtbased.dll
 0002:000003a0       __imp_isspace              00000001004333a0     ucrtd:ucrtbased.dll
 0002:000003a8       __imp__fullpath            00000001004333a8     ucrtd:ucrtbased.dll
 0002:000003b0       __imp___stdio_common_vsprintf 00000001004333b0     ucrtd:ucrtbased.dll
 0002:000003b8       __imp__initterm            00000001004333b8     ucrtd:ucrtbased.dll
 0002:000003c0       __imp__initterm_e          00000001004333c0     ucrtd:ucrtbased.dll
 0002:000003c8       __imp__seh_filter_dll      00000001004333c8     ucrtd:ucrtbased.dll
 0002:000003d0       __imp__configure_narrow_argv 00000001004333d0     ucrtd:ucrtbased.dll
 0002:000003d8       __imp__initialize_narrow_environment 00000001004333d8     ucrtd:ucrtbased.dll
 0002:000003e0       __imp__initialize_onexit_table 00000001004333e0     ucrtd:ucrtbased.dll
 0002:000003e8       __imp__register_onexit_function 00000001004333e8     ucrtd:ucrtbased.dll
 0002:000003f0       __imp__execute_onexit_table 00000001004333f0     ucrtd:ucrtbased.dll
 0002:000003f8       __imp__crt_atexit          00000001004333f8     ucrtd:ucrtbased.dll
 0002:00000400       __imp__crt_at_quick_exit   0000000100433400     ucrtd:ucrtbased.dll
 0002:00000408       __imp__cexit               0000000100433408     ucrtd:ucrtbased.dll
 0002:00000410       __imp_terminate            0000000100433410     ucrtd:ucrtbased.dll
 0002:00000418       __imp__strdup              0000000100433418     ucrtd:ucrtbased.dll
 0002:00000418       __imp_strdup               0000000100433418     ucrtd:ucrtbased.dll
 0002:00000420       __imp__close               0000000100433420     ucrtd:ucrtbased.dll
 0002:00000420       __imp_close                0000000100433420     ucrtd:ucrtbased.dll
 0002:00000428       __imp__getpid              0000000100433428     ucrtd:ucrtbased.dll
 0002:00000428       __imp_getpid               0000000100433428     ucrtd:ucrtbased.dll
 0002:00000430       __imp__errno               0000000100433430     ucrtd:ucrtbased.dll
 0002:00000438       __imp___stdio_common_vsscanf 0000000100433438     ucrtd:ucrtbased.dll
 0002:00000440       __imp___stdio_common_vsnprintf_s 0000000100433440     ucrtd:ucrtbased.dll
 0002:00000448       __imp_fopen                0000000100433448     ucrtd:ucrtbased.dll
 0002:00000450       __imp_fgetc                0000000100433450     ucrtd:ucrtbased.dll
 0002:00000458       __imp_ferror               0000000100433458     ucrtd:ucrtbased.dll
 0002:00000460       __imp_atoi                 0000000100433460     ucrtd:ucrtbased.dll
 0002:00000468       __imp__byteswap_ulong      0000000100433468     ucrtd:ucrtbased.dll
 0002:00000470       __imp__byteswap_ushort     0000000100433470     ucrtd:ucrtbased.dll
 0002:00000478       __imp_exit                 0000000100433478     ucrtd:ucrtbased.dll
 0002:00000480       __imp_malloc               0000000100433480     ucrtd:ucrtbased.dll
 0002:00000488       __imp_free                 0000000100433488     ucrtd:ucrtbased.dll
 0002:00000490       __imp_calloc               0000000100433490     ucrtd:ucrtbased.dll
 0002:00000498       __imp_strlen               0000000100433498     ucrtd:ucrtbased.dll
 0002:000004a0       __imp__stricmp             00000001004334a0     ucrtd:ucrtbased.dll
 0002:000004a8       __imp_strcmp               00000001004334a8     ucrtd:ucrtbased.dll
 0002:000004b0       __imp___acrt_iob_func      00000001004334b0     ucrtd:ucrtbased.dll
 0002:000004b8       \177ucrtbased_NULL_THUNK_DATA 00000001004334b8     ucrtd:ucrtbased.dll
 0002:000004c0       __guard_check_icall_fptr   00000001004334c0     MSVCRTD:guard_support.obj
 0002:000004c8       __guard_xfg_check_icall_fptr 00000001004334c8     MSVCRTD:guard_support.obj
 0002:000004d0       __guard_dispatch_icall_fptr 00000001004334d0     MSVCRTD:guard_support.obj
 0002:000004d8       __guard_xfg_dispatch_icall_fptr 00000001004334d8     MSVCRTD:guard_support.obj
 0002:000004e0       __guard_xfg_table_dispatch_icall_fptr 00000001004334e0     MSVCRTD:guard_support.obj
 0002:000004e8       __castguard_check_failure_os_handled_fptr 00000001004334e8     MSVCRTD:guard_support.obj
 0002:000004f0       __guard_memcpy_fptr        00000001004334f0     vcruntimed:softmemtag.obj
 0002:000004f8       __xc_a                     00000001004334f8     MSVCRTD:initializers.obj
 0002:00000500       __xc_z                     0000000100433500     MSVCRTD:initializers.obj
 0002:00000508       __xi_a                     0000000100433508     MSVCRTD:initializers.obj
 0002:00000510       __xi_z                     0000000100433510     MSVCRTD:initializers.obj
 0002:00000518       __xp_a                     0000000100433518     MSVCRTD:initializers.obj
 0002:00000520       __xp_z                     0000000100433520     MSVCRTD:initializers.obj
 0002:00000528       __xt_a                     0000000100433528     MSVCRTD:initializers.obj
 0002:00000530       __xt_z                     0000000100433530     MSVCRTD:initializers.obj
 0002:000009d8       _pDefaultRawDllMain        00000001004339d8     MSVCRTD:dll_dllmain.obj
 0002:000009d8       _pRawDllMain               00000001004339d8     MSVCRTD:dll_dllmain.obj
 0002:000009f0       _load_config_used          00000001004339f0     MSVCRTD:loadcfg.obj
 0002:00000c00       __CastGuardVftablesStart   0000000100433c00     MSVCRTD:guard_support.obj
 0002:00000c80       __CastGuardVftablesEnd     0000000100433c80     MSVCRTD:guard_support.obj
 0002:00000d00       __volatile_metadata        0000000100433d00     <linker-defined>
 0002:000012e8       __rtc_iaa                  00000001004342e8     MSVCRTD:initsect.obj
 0002:000012f0       __rtc_izz                  00000001004342f0     MSVCRTD:initsect.obj
 0002:000012f8       __rtc_taa                  00000001004342f8     MSVCRTD:initsect.obj
 0002:00001300       __rtc_tzz                  0000000100434300     MSVCRTD:initsect.obj
 0002:00001f78       __IMPORT_DESCRIPTOR_hengine 0000000100434f78     hengine:hengine.dll
 0002:00001f8c       __IMPORT_DESCRIPTOR_hutil  0000000100434f8c     hutil:hutil.dll
 0002:00001fa0       __IMPORT_DESCRIPTOR_hsys   0000000100434fa0     hsys:hsys.dll
 0002:00001fb4       __IMPORT_DESCRIPTOR_KERNEL32 0000000100434fb4     kernel32:KERNEL32.dll
 0002:00001fc8       __IMPORT_DESCRIPTOR_WS2_32 0000000100434fc8     ws2_32:WS2_32.dll
 0002:00001fdc       __IMPORT_DESCRIPTOR_VCRUNTIME140D 0000000100434fdc     vcruntimed:VCRUNTIME140D.dll
 0002:00001ff0       __IMPORT_DESCRIPTOR_ucrtbased 0000000100434ff0     ucrtd:ucrtbased.dll
 0002:00002004       __NULL_IMPORT_DESCRIPTOR   0000000100435004     hengine:hengine.dll
 0003:00000050       lcs_device_hndinfo         0000000100436050     ctc_lcs.obj
 0003:00007f00       ctci_device_hndinfo        000000010043df00     ctc_ctci.obj
 0003:00009920       ctct_device_hndinfo        000000010043f920     ctcadpt.obj
 0003:000099f0       ctce_device_hndinfo        000000010043f9f0     ctcadpt.obj
 0003:0000dcb0       __security_cookie_complement 0000000100443cb0     MSVCRTD:gs_cookie.obj
 0003:0000dcb8       __security_cookie          0000000100443cb8     MSVCRTD:gs_cookie.obj
 0003:0000dcc0       __scrt_native_dllmain_reason 0000000100443cc0     MSVCRTD:utility.obj
 0003:0000dcc8       __isa_available            0000000100443cc8     MSVCRTD:cpu_disp.obj
 0003:0000dccc       __isa_enabled              0000000100443ccc     MSVCRTD:cpu_disp.obj
 0003:0000dcd0       __memset_fast_string_threshold 0000000100443cd0     MSVCRTD:cpu_disp.obj
 0003:0000dcd8       __memset_nt_threshold      0000000100443cd8     MSVCRTD:cpu_disp.obj
 0003:0000dce0       __scrt_ucrt_dll_is_in_use  0000000100443ce0     MSVCRTD:ucrt_stubs.obj
 0003:0000dd30       g_tt32_hmoddll             0000000100443d30     w32ctca.obj
 0003:0000dd38       g_tt32_pfn_open_ex         0000000100443d38     w32ctca.obj
 0003:0000dd40       g_tt32_pfn_open            0000000100443d40     w32ctca.obj
 0003:0000dd48       g_tt32_pfn_close_ex        0000000100443d48     w32ctca.obj
 0003:0000dd50       g_tt32_pfn_close           0000000100443d50     w32ctca.obj
 0003:0000dd58       g_tt32_pfn_read_ex         0000000100443d58     w32ctca.obj
 0003:0000dd60       g_tt32_pfn_read            0000000100443d60     w32ctca.obj
 0003:0000dd68       g_tt32_pfn_write_ex        0000000100443d68     w32ctca.obj
 0003:0000dd70       g_tt32_pfn_write           0000000100443d70     w32ctca.obj
 0003:0000dd78       g_tt32_pfn_ioctl_ex        0000000100443d78     w32ctca.obj
 0003:0000dd80       g_tt32_pfn_ioctl           0000000100443d80     w32ctca.obj
 0003:0000dd88       g_tt32_pfn_get_stats_ex    0000000100443d88     w32ctca.obj
 0003:0000dd90       g_tt32_pfn_get_stats       0000000100443d90     w32ctca.obj
 0003:0000dd98       g_tt32_pfn_get_default_iface_ex 0000000100443d98     w32ctca.obj
 0003:0000dda0       g_tt32_pfn_get_default_iface 0000000100443da0     w32ctca.obj
 0003:0000dda8       g_tt32_pfn_set_debug_output_func_ex 0000000100443da8     w32ctca.obj
 0003:0000ddb0       g_tt32_pfn_set_debug_output_func 0000000100443db0     w32ctca.obj
 0003:0000ddb8       g_tt32_pfn_version_string_ex 0000000100443db8     w32ctca.obj
 0003:0000ddc0       g_tt32_pfn_version_string  0000000100443dc0     w32ctca.obj
 0003:0000ddc8       g_tt32_pfn_version_numbers_ex 0000000100443dc8     w32ctca.obj
 0003:0000ddd0       g_tt32_pfn_version_numbers 0000000100443dd0     w32ctca.obj
 0003:0000ddd8       g_tt32_pfn_copyright_string_ex 0000000100443dd8     w32ctca.obj
 0003:0000dde0       g_tt32_pfn_copyright_string 0000000100443de0     w32ctca.obj
 0003:0000dde8       g_tt32_pfn_build_herc_iface_mac_ex 0000000100443de8     w32ctca.obj
 0003:0000ddf0       g_tt32_pfn_build_herc_iface_mac 0000000100443df0     w32ctca.obj
 0003:0000ddf8       g_tt32_pfn_beg_write_multi_ex 0000000100443df8     w32ctca.obj
 0003:0000de00       g_tt32_pfn_beg_write_multi 0000000100443e00     w32ctca.obj
 0003:0000de08       g_tt32_pfn_end_write_multi_ex 0000000100443e08     w32ctca.obj
 0003:0000de10       g_tt32_pfn_end_write_multi 0000000100443e10     w32ctca.obj
 0003:0000de20       g_tt32_dllname             0000000100443e20     w32ctca.obj
 0003:0000e5a0       ?__type_info_root_node@@3U__type_info_node@@A 00000001004445a0     MSVCRTD:tncleanup.obj
 0003:0000e5b0       ?_OptionsStorage@?1??__local_stdio_printf_options@@9@4_KA 00000001004445b0     MSVCRTD:default_local_stdio_options.obj
 0003:0000e5b8       ?_OptionsStorage@?1??__local_stdio_scanf_options@@9@4_KA 00000001004445b8     MSVCRTD:default_local_stdio_options.obj
 0003:0000e5c0       __scrt_current_native_startup_state 00000001004445c0     MSVCRTD:utility.obj
 0003:0000e5c8       __scrt_native_startup_lock 00000001004445c8     MSVCRTD:utility.obj
 0003:0000e608       __scrt_debugger_hook_flag  0000000100444608     MSVCRTD:utility_desktop.obj
 0003:0000e60c       __favor                    000000010044460c     MSVCRTD:cpu_disp.obj
 0003:0000e620       ?buff@?1??gai_strerrorA@@9@9 0000000100444620     <common>
 0003:0000ea40       g_tt32_lock                0000000100444a40     <common>
 0003:0000ea68       ?_OptionsStorage@?1??__local_stdio_scanf_options@@9@9 0000000100444a68     <common>
 0003:0000ea70       ?_OptionsStorage@?1??__local_stdio_printf_options@@9@9 0000000100444a70     <common>
 0003:0000ea78       __@@_PchSym_@00@UkzkzUnbtrgUsbkvirlmRaevxgliUnhexOwvyftOznwGEOlyqUyfrowPkxsOlyq@4B2008FD98C1DD4 0000000100444a78     <common>
 0003:0000ea80       __dyn_tls_init_callback    0000000100444a80     <common>

 entry point at        0001:0002f7d0

 Static symbols

 0002:fffcd000       $unwind$_vsnprintf_s       0000000100400000     ctc_ctci.obj
 0002:fffcd000       $unwind$_vsnprintf_s_l     0000000100400000     ctc_ctci.obj
 0002:fffcd000       $unwind$fetch_hw_noswap    0000000100400000     ctc_ctci.obj
 0000:00000000       _volmd                     0000000100400000     ctc_ctci.obj
 0000:00000000       _volmd                     0000000100400000     ctc_lcs.obj
 0002:fffcd000       $unwind$_vsscanf_l         0000000100400000     ctcadpt.obj
 0002:fffcd000       $unwind$fetch_fw_noswap    0000000100400000     ctcadpt.obj
 0002:fffcd000       $unwind$fetch_hw_noswap    0000000100400000     ctcadpt.obj
 0002:fffcd000       $unwind$sscanf             0000000100400000     ctcadpt.obj
 0000:00000000       _volmd                     0000000100400000     ctcadpt.obj
 0000:fffa5000       .debug$S                   0000000100400000     hdt3088.exp
 0000:00000000       _volmd                     0000000100400000     netsupp.obj
 0002:fffcd000       $unwind$_vsnprintf_s       0000000100400000     tuntap.obj
 0002:fffcd000       $unwind$_vsnprintf_s_l     0000000100400000     tuntap.obj
 0002:fffcd000       $unwind$_vsscanf_l         0000000100400000     tuntap.obj
 0002:fffcd000       $unwind$sscanf             0000000100400000     tuntap.obj
 0000:00000000       _volmd                     0000000100400000     tuntap.obj
 0002:fffcd000       $unwind$_vsnprintf_s       0000000100400000     w32ctca.obj
 0002:fffcd000       $unwind$_vsnprintf_s_l     0000000100400000     w32ctca.obj
 0000:00000000       _volmd                     0000000100400000     w32ctca.obj
 0000:fffa5000       .debug$S                   0000000100400000     kernel32:KERNEL32.dll
 0000:fffa5000       .debug$S                   0000000100400000     kernel32:KERNEL32.dll
 0000:fffa5000       .debug$S                   0000000100400000     kernel32:KERNEL32.dll
 0000:fffa5000       .debug$S                   0000000100400000     kernel32:KERNEL32.dll
 0000:fffa5000       .debug$S                   0000000100400000     kernel32:KERNEL32.dll
 0000:fffa5000       .debug$S                   0000000100400000     kernel32:KERNEL32.dll
 0000:fffa5000       .debug$S                   0000000100400000     kernel32:KERNEL32.dll
 0000:fffa5000       .debug$S                   0000000100400000     kernel32:KERNEL32.dll
 0000:fffa5000       .debug$S                   0000000100400000     kernel32:KERNEL32.dll
 0000:fffa5000       .debug$S                   0000000100400000     kernel32:KERNEL32.dll
 0000:fffa5000       .debug$S                   0000000100400000     kernel32:KERNEL32.dll
 0000:fffa5000       .debug$S                   0000000100400000     kernel32:KERNEL32.dll
 0000:fffa5000       .debug$S                   0000000100400000     kernel32:KERNEL32.dll
 0000:fffa5000       .debug$S                   0000000100400000     kernel32:KERNEL32.dll
 0000:fffa5000       .debug$S                   0000000100400000     kernel32:KERNEL32.dll
 0000:fffa5000       .debug$S                   0000000100400000     kernel32:KERNEL32.dll
 0000:fffa5000       .debug$S                   0000000100400000     kernel32:KERNEL32.dll
 0000:fffa5000       .debug$S                   0000000100400000     kernel32:KERNEL32.dll
 0000:fffa5000       .debug$S                   0000000100400000     kernel32:KERNEL32.dll
 0000:fffa5000       .debug$S                   0000000100400000     kernel32:KERNEL32.dll
 0000:fffa5000       .debug$S                   0000000100400000     kernel32:KERNEL32.dll
 0000:fffa5000       .debug$S                   0000000100400000     kernel32:KERNEL32.dll
 0000:fffa5000       .debug$S                   0000000100400000     kernel32:KERNEL32.dll
 0000:fffa5000       .debug$S                   0000000100400000     kernel32:KERNEL32.dll
 0000:fffa5000       .debug$S                   0000000100400000     kernel32:KERNEL32.dll
 0000:fffa5000       .debug$S                   0000000100400000     kernel32:KERNEL32.dll
 0000:fffa5000       .debug$S                   0000000100400000     ws2_32:WS2_32.dll
 0000:fffa5000       .debug$S                   0000000100400000     ws2_32:WS2_32.dll
 0000:fffa5000       .debug$S                   0000000100400000     ws2_32:WS2_32.dll
 0000:fffa5000       .debug$S                   0000000100400000     ws2_32:WS2_32.dll
 0000:fffa5000       .debug$S                   0000000100400000     ws2_32:WS2_32.dll
 0000:fffa5000       .debug$S                   0000000100400000     ws2_32:WS2_32.dll
 0000:fffa5000       .debug$S                   0000000100400000     ws2_32:WS2_32.dll
 0000:fffa5000       .debug$S                   0000000100400000     ws2_32:WS2_32.dll
 0000:fffa5000       .debug$S                   0000000100400000     ws2_32:WS2_32.dll
 0000:fffa5000       .debug$S                   0000000100400000     ws2_32:WS2_32.dll
 0000:fffa5000       .debug$S                   0000000100400000     ws2_32:WS2_32.dll
 0000:fffa5000       .debug$S                   0000000100400000     ws2_32:WS2_32.dll
 0000:fffa5000       .debug$S                   0000000100400000     ws2_32:WS2_32.dll
 0000:fffa5000       .debug$S                   0000000100400000     ws2_32:WS2_32.dll
 0000:fffa5000       .debug$S                   0000000100400000     ws2_32:WS2_32.dll
 0000:fffa5000       .debug$S                   0000000100400000     ws2_32:WS2_32.dll
 0000:fffa5000       .debug$S                   0000000100400000     ws2_32:WS2_32.dll
 0000:fffa5000       .debug$S                   0000000100400000     ucrtd:ucrtbased.dll
 0000:fffa5000       .debug$S                   0000000100400000     ucrtd:ucrtbased.dll
 0000:fffa5000       .debug$S                   0000000100400000     ucrtd:ucrtbased.dll
 0000:fffa5000       .debug$S                   0000000100400000     ucrtd:ucrtbased.dll
 0000:fffa5000       .debug$S                   0000000100400000     ucrtd:ucrtbased.dll
 0000:fffa5000       .debug$S                   0000000100400000     ucrtd:ucrtbased.dll
 0000:fffa5000       .debug$S                   0000000100400000     ucrtd:ucrtbased.dll
 0000:fffa5000       .debug$S                   0000000100400000     ucrtd:ucrtbased.dll
 0000:fffa5000       .debug$S                   0000000100400000     ucrtd:ucrtbased.dll
 0000:fffa5000       .debug$S                   0000000100400000     ucrtd:ucrtbased.dll
 0000:fffa5000       .debug$S                   0000000100400000     ucrtd:ucrtbased.dll
 0000:fffa5000       .debug$S                   0000000100400000     ucrtd:ucrtbased.dll
 0000:fffa5000       .debug$S                   0000000100400000     ucrtd:ucrtbased.dll
 0000:fffa5000       .debug$S                   0000000100400000     ucrtd:ucrtbased.dll
 0000:fffa5000       .debug$S                   0000000100400000     ucrtd:ucrtbased.dll
 0000:fffa5000       .debug$S                   0000000100400000     ucrtd:ucrtbased.dll
 0000:fffa5000       .debug$S                   0000000100400000     ucrtd:ucrtbased.dll
 0000:fffa5000       .debug$S                   0000000100400000     ucrtd:ucrtbased.dll
 0000:fffa5000       .debug$S                   0000000100400000     ucrtd:ucrtbased.dll
 0000:fffa5000       .debug$S                   0000000100400000     ucrtd:ucrtbased.dll
 0000:fffa5000       .debug$S                   0000000100400000     ucrtd:ucrtbased.dll
 0000:fffa5000       .debug$S                   0000000100400000     ucrtd:ucrtbased.dll
 0000:fffa5000       .debug$S                   0000000100400000     ucrtd:ucrtbased.dll
 0000:fffa5000       .debug$S                   0000000100400000     ucrtd:ucrtbased.dll
 0000:fffa5000       .debug$S                   0000000100400000     ucrtd:ucrtbased.dll
 0000:fffa5000       .debug$S                   0000000100400000     ucrtd:ucrtbased.dll
 0000:fffa5000       .debug$S                   0000000100400000     ucrtd:ucrtbased.dll
 0000:fffa5000       .debug$S                   0000000100400000     ucrtd:ucrtbased.dll
 0000:fffa5000       .debug$S                   0000000100400000     ucrtd:ucrtbased.dll
 0000:fffa5000       .debug$S                   0000000100400000     ucrtd:ucrtbased.dll
 0000:fffa5000       .debug$S                   0000000100400000     ucrtd:ucrtbased.dll
 0000:fffa5000       .debug$S                   0000000100400000     ucrtd:ucrtbased.dll
 0000:fffa5000       .debug$S                   0000000100400000     ucrtd:ucrtbased.dll
 0000:fffa5000       .debug$S                   0000000100400000     ucrtd:ucrtbased.dll
 0000:fffa5000       .debug$S                   0000000100400000     ucrtd:ucrtbased.dll
 0000:fffa5000       .debug$S                   0000000100400000     ucrtd:ucrtbased.dll
 0000:fffa5000       .debug$S                   0000000100400000     ucrtd:ucrtbased.dll
 0000:fffa5000       .debug$S                   0000000100400000     ucrtd:ucrtbased.dll
 0000:fffa5000       .debug$S                   0000000100400000     ucrtd:ucrtbased.dll
 0000:fffa5000       .debug$S                   0000000100400000     ucrtd:ucrtbased.dll
 0000:fffa5000       .debug$S                   0000000100400000     ucrtd:ucrtbased.dll
 0000:fffa5000       .debug$S                   0000000100400000     ucrtd:ucrtbased.dll
 0000:fffa5000       .debug$S                   0000000100400000     ucrtd:ucrtbased.dll
 0000:00000000       _volmd                     0000000100400000     MSVCRTD:cpu_disp.obj
 0002:fffcd000       __guard_ehcont_?dllmain_dispatch@@YAHQEAUHINSTANCE__@@KQEAX@Z 0000000100400000     MSVCRTD:dll_dllmain.obj
 0002:fffcd000       __guard_fids_?dllmain_dispatch@@YAHQEAUHINSTANCE__@@KQEAX@Z 0000000100400000     MSVCRTD:dll_dllmain.obj
 0000:00000000       _volmd                     0000000100400000     MSVCRTD:gs_report.obj
 0000:00000000       _volmd                     0000000100400000     MSVCRTD:gs_report.obj
 0000:00000000       _volmd                     0000000100400000     MSVCRTD:gs_report.obj
 0002:fffcd000       __guard_fids__             0000000100400000     MSVCRTD:guard_support.obj
 0002:fffcd000       __guard_fids__             0000000100400000     MSVCRTD:guard_support.obj
 0002:fffcd000       __guard_fids__guard_icall_checks_enforced 0000000100400000     MSVCRTD:guard_support.obj
 0000:00000000       _volmd                     0000000100400000     MSVCRTD:guard_support.obj
 0000:00000000       _volmd                     0000000100400000     MSVCRTD:guard_support.obj
 0002:fffcd000       __guard_ehcont___scrt_is_nonwritable_in_current_image 0000000100400000     MSVCRTD:utility.obj
 0000:00000000       _volmd                     0000000100400000     MSVCRTD:utility.obj
 0000:00000000       _volmd                     0000000100400000     MSVCRTD:utility.obj
 0000:00000000       _volmd                     0000000100400000     MSVCRTD:utility.obj
 0002:fffcd000       __guard_fids___scrt_set_unhandled_exception_filter 0000000100400000     MSVCRTD:utility_desktop.obj
 0000:00000000       _volmd                     0000000100400000     MSVCRTD:utility_desktop.obj
 0002:fffcd000       __guard_fids__             0000000100400000     vcruntimed:softmemtag.obj
 0000:fffa5000       .debug$S                   0000000100400000     vcruntimed:VCRUNTIME140D.dll
 0000:fffa5000       .debug$S                   0000000100400000     vcruntimed:VCRUNTIME140D.dll
 0000:fffa5000       .debug$S                   0000000100400000     vcruntimed:VCRUNTIME140D.dll
 0000:fffa5000       .debug$S                   0000000100400000     vcruntimed:VCRUNTIME140D.dll
 0000:fffa5000       .debug$S                   0000000100400000     vcruntimed:VCRUNTIME140D.dll
 0000:fffa5000       .debug$S                   0000000100400000     vcruntimed:VCRUNTIME140D.dll
 0000:fffa5000       .debug$S                   0000000100400000     vcruntimed:VCRUNTIME140D.dll
 0000:fffa5000       .debug$S                   0000000100400000     hengine:hengine.dll
 0000:fffa5000       .debug$S                   0000000100400000     hengine:hengine.dll
 0000:fffa5000       .debug$S                   0000000100400000     hengine:hengine.dll
 0000:fffa5000       .debug$S                   0000000100400000     hengine:hengine.dll
 0000:fffa5000       .debug$S                   0000000100400000     hsys:hsys.dll
 0000:fffa5000       .debug$S                   0000000100400000     hutil:hutil.dll
 0000:fffa5000       .debug$S                   0000000100400000     hutil:hutil.dll
 0000:fffa5000       .debug$S                   0000000100400000     hutil:hutil.dll
 0000:fffa5000       .debug$S                   0000000100400000     hutil:hutil.dll
 0000:fffa5000       .debug$S                   0000000100400000     hutil:hutil.dll
 0000:fffa5000       .debug$S                   0000000100400000     hutil:hutil.dll
 0000:fffa5000       .debug$S                   0000000100400000     hutil:hutil.dll
 0000:fffa5000       .debug$S                   0000000100400000     hutil:hutil.dll
 0000:fffa5000       .debug$S                   0000000100400000     hutil:hutil.dll
 0000:fffa5000       .debug$S                   0000000100400000     hutil:hutil.dll
 0000:fffa5000       .debug$S                   0000000100400000     hutil:hutil.dll
 0000:fffa5000       .debug$S                   0000000100400000     hutil:hutil.dll
 0000:fffa5000       .debug$S                   0000000100400000     hutil:hutil.dll
 0000:fffa5000       .debug$S                   0000000100400000     hutil:hutil.dll
 0000:fffa5000       .debug$S                   0000000100400000     hutil:hutil.dll
 0000:fffa5000       .debug$S                   0000000100400000     hutil:hutil.dll
 0000:fffa5000       .debug$S                   0000000100400000     hutil:hutil.dll
 0000:fffa5000       .debug$S                   0000000100400000     hutil:hutil.dll
 0000:fffa5000       .debug$S                   0000000100400000     hutil:hutil.dll
 0000:fffa5000       .debug$S                   0000000100400000     hutil:hutil.dll
 0000:fffa5000       .debug$S                   0000000100400000     hutil:hutil.dll
 0000:fffa5000       .debug$S                   0000000100400000     hutil:hutil.dll
 0000:fffa5000       .debug$S                   0000000100400000     hutil:hutil.dll
 0000:fffa5000       .debug$S                   0000000100400000     hutil:hutil.dll
 0000:fffa5000       .debug$S                   0000000100400000     hutil:hutil.dll
 0000:fffa5000       .debug$S                   0000000100400000     hutil:hutil.dll
 0000:fffa5000       .debug$S                   0000000100400000     hutil:hutil.dll
 0000:fffa5000       .debug$S                   0000000100400000     hutil:hutil.dll
 0000:fffa5000       .debug$S                   0000000100400000     hutil:hutil.dll
 0000:fffa5000       .debug$S                   0000000100400000     hutil:hutil.dll
 0000:fffa5000       .debug$S                   0000000100400000     hutil:hutil.dll
 0000:fffa5000       .debug$S                   0000000100400000     hutil:hutil.dll
 0000:fffa5000       .debug$S                   0000000100400000     hutil:hutil.dll
 0000:fffa5000       .debug$S                   0000000100400000     hutil:hutil.dll
 0000:fffa5000       .debug$S                   0000000100400000     hutil:hutil.dll
 0000:fffa5000       .debug$S                   0000000100400000     hutil:hutil.dll
 0000:fffa5000       .debug$S                   0000000100400000     hutil:hutil.dll
 0000:fffa5000       .debug$S                   0000000100400000     hutil:hutil.dll
 0000:fffa5000       .debug$S                   0000000100400000     hutil:hutil.dll
 0000:fffa5000       .debug$S                   0000000100400000     hutil:hutil.dll
 0000:fffa5000       .debug$S                   0000000100400000     hutil:hutil.dll
 0000:fffa5000       .debug$S                   0000000100400000     hutil:hutil.dll
 0000:fffa5000       .debug$S                   0000000100400000     hutil:hutil.dll
 0000:fffa5000       .debug$S                   0000000100400000     hutil:hutil.dll
 0000:fffa5000       .debug$S                   0000000100400000     hutil:hutil.dll
 0000:fffa5000       .debug$S                   0000000100400000     hutil:hutil.dll
 0000:fffa5000       .debug$S                   0000000100400000     hutil:hutil.dll
 0000:00000010       _volmd                     0000000100400010     ctc_ctci.obj
 0000:00000010       _volmd                     0000000100400010     ctc_lcs.obj
 0000:00000010       _volmd                     0000000100400010     ctcadpt.obj
 0000:00000010       _volmd                     0000000100400010     tuntap.obj
 0000:00000010       _volmd                     0000000100400010     w32ctca.obj
 0000:00000020       _volmd                     0000000100400020     ctc_ctci.obj
 0000:00000020       _volmd                     0000000100400020     ctc_lcs.obj
 0000:00000020       _volmd                     0000000100400020     ctcadpt.obj
 0000:00000020       _volmd                     0000000100400020     tuntap.obj
 0000:00000030       _volmd                     0000000100400030     ctc_ctci.obj
 0000:00000030       _volmd                     0000000100400030     ctc_lcs.obj
 0000:00000030       _volmd                     0000000100400030     ctcadpt.obj
 0000:00000030       _volmd                     0000000100400030     tuntap.obj
 0000:00000040       _volmd                     0000000100400040     ctc_ctci.obj
 0000:00000040       _volmd                     0000000100400040     ctc_lcs.obj
 0000:00000040       _volmd                     0000000100400040     ctcadpt.obj
 0000:00000040       _volmd                     0000000100400040     tuntap.obj
 0000:00000050       _volmd                     0000000100400050     ctc_ctci.obj
 0000:00000050       _volmd                     0000000100400050     ctc_lcs.obj
 0000:00000050       _volmd                     0000000100400050     ctcadpt.obj
 0000:00000050       _volmd                     0000000100400050     tuntap.obj
 0000:00000060       _volmd                     0000000100400060     ctc_lcs.obj
 0000:00000060       _volmd                     0000000100400060     ctcadpt.obj
 0000:00000060       _volmd                     0000000100400060     tuntap.obj
 0000:00000070       _volmd                     0000000100400070     ctc_lcs.obj
 0000:00000070       _volmd                     0000000100400070     ctcadpt.obj
 0000:00000070       _volmd                     0000000100400070     tuntap.obj
 0000:00000080       _volmd                     0000000100400080     ctc_lcs.obj
 0000:00000080       _volmd                     0000000100400080     ctcadpt.obj
 0000:00000080       _volmd                     0000000100400080     tuntap.obj
 0000:00000090       _volmd                     0000000100400090     ctc_lcs.obj
 0000:00000090       _volmd                     0000000100400090     ctcadpt.obj
 0000:00000090       _volmd                     0000000100400090     tuntap.obj
 0000:000000a0       _volmd                     00000001004000a0     ctc_lcs.obj
 0000:000000a0       _volmd                     00000001004000a0     ctcadpt.obj
 0000:000000a0       _volmd                     00000001004000a0     tuntap.obj
 0000:000000b0       _volmd                     00000001004000b0     ctc_lcs.obj
 0000:000000b0       _volmd                     00000001004000b0     ctcadpt.obj
 0000:000000b0       _volmd                     00000001004000b0     tuntap.obj
 0000:000000c0       _volmd                     00000001004000c0     ctc_lcs.obj
 0000:000000c0       _volmd                     00000001004000c0     ctcadpt.obj
 0000:000000c0       _volmd                     00000001004000c0     tuntap.obj
 0000:000000d0       _volmd                     00000001004000d0     ctc_lcs.obj
 0000:000000d0       _volmd                     00000001004000d0     ctcadpt.obj
 0000:000000d0       _volmd                     00000001004000d0     tuntap.obj
 0000:000000e0       _volmd                     00000001004000e0     ctc_lcs.obj
 0000:000000e0       _volmd                     00000001004000e0     ctcadpt.obj
 0000:000000e0       _volmd                     00000001004000e0     tuntap.obj
 0000:000000f0       _volmd                     00000001004000f0     ctc_lcs.obj
 0000:000000f0       _volmd                     00000001004000f0     ctcadpt.obj
 0000:00000100       _volmd                     0000000100400100     ctc_lcs.obj
 0000:00000100       _volmd                     0000000100400100     ctcadpt.obj
 0000:00000110       _volmd                     0000000100400110     ctc_lcs.obj
 0000:00000110       _volmd                     0000000100400110     ctcadpt.obj
 0000:00000120       _volmd                     0000000100400120     ctc_lcs.obj
 0000:00000130       _volmd                     0000000100400130     ctc_lcs.obj
 0000:00000140       _volmd                     0000000100400140     ctc_lcs.obj
 0000:00000150       _volmd                     0000000100400150     ctc_lcs.obj
 0000:00000160       _volmd                     0000000100400160     ctc_lcs.obj
 0000:00000170       _volmd                     0000000100400170     ctc_lcs.obj
 0000:00000180       _volmd                     0000000100400180     ctc_lcs.obj
 0000:00000190       _volmd                     0000000100400190     ctc_lcs.obj
 0000:000001a0       _volmd                     00000001004001a0     ctc_lcs.obj
 0000:000001b0       _volmd                     00000001004001b0     ctc_lcs.obj
 0000:000001c0       _volmd                     00000001004001c0     ctc_lcs.obj
 0000:000001d0       _volmd                     00000001004001d0     ctc_lcs.obj
 0000:000001e0       _volmd                     00000001004001e0     ctc_lcs.obj
 0000:000001f0       _volmd                     00000001004001f0     ctc_lcs.obj
 0001:00000000       time                       0000000100401000 f   ctc_lcs.obj
 0001:00000020       DebuggerTrace              0000000100401020 f   ctc_lcs.obj
 0001:00002e68       $LN77                      0000000100403e68     ctc_lcs.obj
 0001:00002e9c       $LN76                      0000000100403e9c     ctc_lcs.obj
 0001:00002f90       SetSIDInfo                 0000000100403f90 f   ctc_lcs.obj
 0001:000030b0       LCS_Read                   00000001004040b0 f   ctc_lcs.obj
 0001:00003b30       LCS_Write                  0000000100404b30 f   ctc_lcs.obj
 0001:00005788       $LN157                     0000000100406788     ctc_lcs.obj
 0001:000057ac       $LN156                     00000001004067ac     ctc_lcs.obj
 0001:00005870       LCS_Assist                 0000000100406870 f   ctc_lcs.obj
 0001:00005bd0       LCS_Startup                0000000100406bd0 f   ctc_lcs.obj
 0001:00005f70       LCS_Shutdown               0000000100406f70 f   ctc_lcs.obj
 0001:000060b0       LCS_StartLan               00000001004070b0 f   ctc_lcs.obj
 0001:00006550       LCS_StopLan                0000000100407550 f   ctc_lcs.obj
 0001:000068c0       LCS_QueryIPAssists         00000001004078c0 f   ctc_lcs.obj
 0001:00006a70       LCS_LanStats               0000000100407a70 f   ctc_lcs.obj
 0001:00006be0       LCS_AddMulticast           0000000100407be0 f   ctc_lcs.obj
 0001:00006c20       LCS_DelMulticast           0000000100407c20 f   ctc_lcs.obj
 0001:00006c60       LCS_DefaultCmdProc         0000000100407c60 f   ctc_lcs.obj
 0001:00006d80       LCS_PortThread             0000000100407d80 f   ctc_lcs.obj
 0001:00008800       LCS_AttnThread             0000000100409800 f   ctc_lcs.obj
 0001:00009130       LCS_EnqueueEthFrame        000000010040a130 f   ctc_lcs.obj
 0001:00009630       LCS_DoEnqueueEthFrame      000000010040a630 f   ctc_lcs.obj
 0001:00009c70       LCS_EnqueueReplyFrame      000000010040ac70 f   ctc_lcs.obj
 0001:0000a1a0       LCS_DoEnqueueReplyFrame    000000010040b1a0 f   ctc_lcs.obj
 0001:0000a720       GetFrameInfo               000000010040b720 f   ctc_lcs.obj
 0001:0000ab10       GetIfMACAddress            000000010040bb10 f   ctc_lcs.obj
 0001:0000b020       BuildOAT                   000000010040c020 f   ctc_lcs.obj
 0001:0000c1f0       ReadOAT                    000000010040d1f0 f   ctc_lcs.obj
 0001:0000c460       ParseArgs                  000000010040d460 f   ctc_lcs.obj
 0001:0000d1b8       $LN45                      000000010040e1b8     ctc_lcs.obj
 0001:0000d210       LCS_Read_SNA               000000010040e210 f   ctc_lcs.obj
 0001:0000da30       LCS_Write_SNA              000000010040ea30 f   ctc_lcs.obj
 0001:0000f6f0       $LN182                     00000001004106f0     ctc_lcs.obj
 0001:0000f70c       $LN181                     000000010041070c     ctc_lcs.obj
 0001:0000f730       LCS_StartLan_SNA           0000000100410730 f   ctc_lcs.obj
 0001:0000fc40       LCS_StopLan_SNA            0000000100410c40 f   ctc_lcs.obj
 0001:000101a0       LCS_LanStats_SNA           00000001004111a0 f   ctc_lcs.obj
 0001:00010350       LCS_UnsuppCmd_SNA          0000000100411350 f   ctc_lcs.obj
 0001:000104a0       LCS_ProcessAccepted_SNA    00000001004114a0 f   ctc_lcs.obj
 0001:00013184       $LN139                     0000000100414184     ctc_lcs.obj
 0001:000131a4       $LN138                     00000001004141a4     ctc_lcs.obj
 0001:000131d0       ExtractLLC                 00000001004141d0 f   ctc_lcs.obj
 0001:00013660       BuildLLC                   0000000100414660 f   ctc_lcs.obj
 0001:00013a80       Process_0D10               0000000100414a80 f   ctc_lcs.obj
 0001:000141a0       Process_0D00               00000001004151a0 f   ctc_lcs.obj
 0001:00014680       Process_8C0B               0000000100415680 f   ctc_lcs.obj
 0001:00014b70       Process_0C0A               0000000100415b70 f   ctc_lcs.obj
 0001:00015260       Process_0C25               0000000100416260 f   ctc_lcs.obj
 0001:00015720       Process_0C22               0000000100416720 f   ctc_lcs.obj
 0001:00015da0       Process_8D00               0000000100416da0 f   ctc_lcs.obj
 0001:00016280       Process_0C0B               0000000100417280 f   ctc_lcs.obj
 0001:00016480       Process_0C99               0000000100417480 f   ctc_lcs.obj
 0001:000165d0       Process_0C0D               00000001004175d0 f   ctc_lcs.obj
 0001:000166c0       Process_0C0E               00000001004176c0 f   ctc_lcs.obj
 0001:000167b0       Process_0C98               00000001004177b0 f   ctc_lcs.obj
 0001:000168a0       alloc_lcs_buffer           00000001004178a0 f   ctc_lcs.obj
 0001:00016a20       add_lcs_buffer_to_chain    0000000100417a20 f   ctc_lcs.obj
 0001:00016ad0       remove_lcs_buffer_from_chain 0000000100417ad0 f   ctc_lcs.obj
 0001:00016b70       remove_and_free_any_lcs_buffers_on_chain 0000000100417b70 f   ctc_lcs.obj
 0001:00016c20       free_lcs_buffer            0000000100417c20 f   ctc_lcs.obj
 0001:00016c50       alloc_connection           0000000100417c50 f   ctc_lcs.obj
 0001:00016da0       add_connection_to_chain    0000000100417da0 f   ctc_lcs.obj
 0001:00016e30       find_connection_by_remote_mac 0000000100417e30 f   ctc_lcs.obj
 0001:00016ea0       find_connection_by_outbound_token 0000000100417ea0 f   ctc_lcs.obj
 0001:00016f10       find_connection_by_inbound_token 0000000100417f10 f   ctc_lcs.obj
 0001:00016f80       remove_connection_from_chain 0000000100417f80 f   ctc_lcs.obj
 0001:00017070       remove_and_free_any_connections_on_chain 0000000100418070 f   ctc_lcs.obj
 0001:00017110       free_connection            0000000100418110 f   ctc_lcs.obj
 0001:00017150       find_group_device          0000000100418150 f   ctc_lcs.obj
 0001:00017660       LCS_BegMWrite              0000000100418660 f   ctc_lcs.obj
 0001:00017750       LCS_EndMWrite              0000000100418750 f   ctc_lcs.obj
 0001:00017850       UpdatePortStarted          0000000100418850 f   ctc_lcs.obj
 0001:00017d70       LCS_DoMulticast            0000000100418d70 f   ctc_lcs.obj
 0001:00018710       lcs_halt_or_clear          0000000100419710 f   ctc_lcs.obj
 0001:00018b00       DebuggerTrace              0000000100419b00 f   ctc_ctci.obj
 0001:0001a2c8       $LN57                      000000010041b2c8     ctc_ctci.obj
 0001:0001a2fc       $LN56                      000000010041b2fc     ctc_ctci.obj
 0001:0001b2d0       SetSIDInfo                 000000010041c2d0 f   ctc_ctci.obj
 0001:0001b3f0       ctc_halt_or_clear          000000010041c3f0 f   ctc_ctci.obj
 0001:0001b4a0       CTCI_ReadThread            000000010041c4a0 f   ctc_ctci.obj
 0001:0001b9a0       CTCI_EnqueueIPFrame        000000010041c9a0 f   ctc_ctci.obj
 0001:0001bbf0       ParseArgs                  000000010041cbf0 f   ctc_ctci.obj
 0001:0001d00c       $LN61                      000000010041e00c     ctc_ctci.obj
 0001:0001d75c       $LN63                      000000010041e75c     ctcadpt.obj
 0001:0001d790       $LN62                      000000010041e790     ctcadpt.obj
 0001:0001db70       SetSIDInfo                 000000010041eb70 f   ctcadpt.obj
 0001:0001dc90       SetCIWInfo                 000000010041ec90 f   ctcadpt.obj
 0001:0001dda0       CTCT_Init                  000000010041eda0 f   ctcadpt.obj
 0001:0001ece0       CTCT_Read                  000000010041fce0 f   ctcadpt.obj
 0001:0001f2b0       CTCT_Write                 00000001004202b0 f   ctcadpt.obj
 0001:0001faa0       CTCT_ListenThread          0000000100420aa0 f   ctcadpt.obj
 0001:0001fc70       CTCE_ExecuteCCW            0000000100420c70 f   ctcadpt.obj
 0001:00021210       $LN152                     0000000100422210     ctcadpt.obj
 0001:00021260       CTCE_Init                  0000000100422260 f   ctcadpt.obj
 0001:000220a0       CTCE_Start_Listen_Connect_Threads 00000001004230a0 f   ctcadpt.obj
 0001:00022670       CTCE_Start_ConnectThread   0000000100423670 f   ctcadpt.obj
 0001:00022a40       CTCE_Send                  0000000100423a40 f   ctcadpt.obj
 0001:00023520       CTCE_RecvThread            0000000100424520 f   ctcadpt.obj
 0001:00024e60       CTCE_ListenThread          0000000100425e60 f   ctcadpt.obj
 0001:000259d0       CTCE_Reset                 00000001004269d0 f   ctcadpt.obj
 0001:00026800       CTCE_ChkSum                0000000100427800 f   ctcadpt.obj
 0001:000268b0       CTCE_Trace                 00000001004278b0 f   ctcadpt.obj
 0001:000283d0       CTCE_ConnectThread         00000001004293d0 f   ctcadpt.obj
 0001:00028bc0       CTCE_Get_Socket            0000000100429bc0 f   ctcadpt.obj
 0001:000292c0       CTCE_Write_Init            000000010042a2c0 f   ctcadpt.obj
 0001:000295a0       CTCE_Recovery              000000010042a5a0 f   ctcadpt.obj
 0001:00029750       CTCE_Build_RCD             000000010042a750 f   ctcadpt.obj
 0001:0002a670       FoldSum32                  000000010042b670 f   netsupp.obj
 0001:0002a6c0       DebuggerTrace              000000010042b6c0 f   tuntap.obj
 0001:0002cb20       TUNTAP_SetMode             000000010042db20 f   tuntap.obj
 0001:0002cb60       DebuggerTrace              000000010042db60 f   w32ctca.obj
 0001:0002f390       ?dllmain_crt_dispatch@@YAHQEAUHINSTANCE__@@KQEAX@Z 0000000100430390 f   MSVCRTD:dll_dllmain.obj
 0001:0002f420       ?dllmain_crt_process_attach@@YAHQEAUHINSTANCE__@@QEAX@Z 0000000100430420 f   MSVCRTD:dll_dllmain.obj
 0001:0002f560       ?dllmain_crt_process_detach@@YAH_N@Z 0000000100430560 f   MSVCRTD:dll_dllmain.obj
 0001:0002f600       ?dllmain_dispatch@@YAHQEAUHINSTANCE__@@KQEAX@Z 0000000100430600 f   MSVCRTD:dll_dllmain.obj
 0001:0002f740       ?dllmain_raw@@YAHQEAUHINSTANCE__@@KQEAX@Z 0000000100430740 f   MSVCRTD:dll_dllmain.obj
 0001:0002fb00       capture_current_context    0000000100430b00 f   MSVCRTD:gs_report.obj
 0001:0002fba0       capture_previous_context   0000000100430ba0 f   MSVCRTD:gs_report.obj
 0001:0002fda0       $$000000                   0000000100430da0     MSVCRTD:chkstk.obj
 0001:0002fe00       $$000000                   0000000100430e00     MSVCRTD:amdsecgs.obj
 0001:0002fe30       __get_entropy              0000000100430e30 f   MSVCRTD:gs_support.obj
 0001:00030060       ?find_pe_section@@YAPEAU_IMAGE_SECTION_HEADER@@QEAE_K@Z 0000000100431060 f   MSVCRTD:utility.obj
 0001:00030140       ?is_potentially_valid_image_base@@YA_NQEAX@Z 0000000100431140 f   MSVCRTD:utility.obj
 0001:00030c60       __castguard_check_failure_os_handled_wrapper 0000000100431c60 f   MSVCRTD:guard_support.obj
 0001:00030c90       __castguard_compat_check   0000000100431c90 f   MSVCRTD:guard_support.obj
 0001:00030df0       __castguard_slow_path_compat_check 0000000100431df0 f   MSVCRTD:guard_support.obj
 0001:00031490       $$000000                   0000000100432490     MSVCRTD:guard_dispatch.obj
 0001:000314b0       $$000000                   00000001004324b0     MSVCRTD:guard_xfg_dispatch.obj
 0001:000314d0       ?fin$0@?0??dllmain_crt_process_attach@@YAHQEAUHINSTANCE__@@QEAX@Z@4HA 00000001004324d0 f   MSVCRTD:dll_dllmain.obj
 0001:000314f0       ?fin$0@?0??dllmain_crt_process_detach@@YAH_N@Z@4HA 00000001004324f0 f   MSVCRTD:dll_dllmain.obj
 0001:0003150a       ?fin$1@?0??dllmain_crt_process_detach@@YAH_N@Z@4HA 000000010043250a f   MSVCRTD:dll_dllmain.obj
 0001:00031520       ?filt$0@?0??dllmain_dispatch@@YAHQEAUHINSTANCE__@@KQEAX@Z@4HA 0000000100432520 f   MSVCRTD:dll_dllmain.obj
 0001:00031570       __scrt_is_nonwritable_in_current_image$filt$0 0000000100432570 f   MSVCRTD:utility.obj
 0002:00000540       CKD_ENDTRK                 0000000100433540     ctc_lcs.obj
 0002:00000548       ?Inbound_CC0A@?1??Process_0C0A@@9@9 0000000100433548     ctc_lcs.obj
 0002:0000056c       mcast3                     000000010043356c     ctc_lcs.obj
 0002:00000570       ?Inbound_CC0B@?1??Process_0C0B@@9@9 0000000100433570     ctc_lcs.obj
 0002:00000590       ?Inbound_CC99@?1??Process_0C99@@9@9 0000000100433590     ctc_lcs.obj
 0002:000005c8       ?Inbound_CC0D@?1??Process_0C0D@@9@9 00000001004335c8     ctc_lcs.obj
 0002:00000600       ?Inbound_CC0E@?1??Process_0C0E@@9@9 0000000100433600     ctc_lcs.obj
 0002:00000620       ?Inbound_CC98@?1??Process_0C98@@9@9 0000000100433620     ctc_lcs.obj
 0002:00000640       ?Inbound_4D10@?1??LCS_ProcessAccepted_SNA@@9@9 0000000100433640     ctc_lcs.obj
 0002:00000664       zeromac                    0000000100433664     ctc_lcs.obj
 0002:00000670       ?Inbound_4C25@?1??LCS_ProcessAccepted_SNA@@9@9 0000000100433670     ctc_lcs.obj
 0002:000006a0       ?Inbound_4C22@?1??LCS_ProcessAccepted_SNA@@9@9 00000001004336a0     ctc_lcs.obj
 0002:000006c0       ?Inbound_4D00@?1??LCS_ProcessAccepted_SNA@@9@9 00000001004336c0     ctc_lcs.obj
 0002:000006d8       ?Inbound_4C0B@?1??LCS_ProcessAccepted_SNA@@9@9 00000001004336d8     ctc_lcs.obj
 0002:000006f8       ?Inbound_CD00@?1??LCS_ProcessAccepted_SNA@@9@9 00000001004336f8     ctc_lcs.obj
 0002:00000718       CKD_ENDTRK                 0000000100433718     ctc_ctci.obj
 0002:00000720       CKD_ENDTRK                 0000000100433720     ctcadpt.obj
 0002:00000730       CTCE_Fsm                   0000000100433730     ctcadpt.obj
 0002:00000930       ?cfgdata@?1??CTCE_Build_RCD@@9@9 0000000100433930     ctcadpt.obj
 0002:000009b8       CKD_ENDTRK                 00000001004339b8     netsupp.obj
 0002:000009c0       CKD_ENDTRK                 00000001004339c0     tuntap.obj
 0002:000009c8       CKD_ENDTRK                 00000001004339c8     w32ctca.obj
 0002:000009d0       CKD_ENDTRK                 00000001004339d0     resolve.obj
 0002:000009e0       GS_ExceptionPointers       00000001004339e0     MSVCRTD:gs_report.obj
 0002:00001308       $unwind$_vsnprintf_s_l     0000000100434308     ctc_lcs.obj
 0002:00001310       $unwind$_vsnprintf_s       0000000100434310     ctc_lcs.obj
 0002:00001318       $unwind$_vsscanf_l         0000000100434318     ctc_lcs.obj
 0002:00001320       $unwind$sscanf             0000000100434320     ctc_lcs.obj
 0002:00001328       $unwind$time               0000000100434328     ctc_lcs.obj
 0002:00001330       $unwind$DebuggerTrace      0000000100434330     ctc_lcs.obj
 0002:00001338       $unwind$LCS_Init           0000000100434338     ctc_lcs.obj
 0002:0000134c       $unwind$LCS_Close          000000010043434c     ctc_lcs.obj
 0002:00001354       $unwind$LCS_Query          0000000100434354     ctc_lcs.obj
 0002:00001364       $unwind$LCS_ExecuteCCW     0000000100434364     ctc_lcs.obj
 0002:00001370       $unwind$SetSIDInfo         0000000100434370     ctc_lcs.obj
 0002:00001378       $unwind$LCS_Read           0000000100434378     ctc_lcs.obj
 0002:0000138c       $unwind$LCS_Write          000000010043438c     ctc_lcs.obj
 0002:000013a0       $unwind$LCS_Assist         00000001004343a0     ctc_lcs.obj
 0002:000013b4       $unwind$LCS_Startup        00000001004343b4     ctc_lcs.obj
 0002:000013c8       $unwind$LCS_Shutdown       00000001004343c8     ctc_lcs.obj
 0002:000013dc       $unwind$LCS_StartLan       00000001004343dc     ctc_lcs.obj
 0002:000013f0       $unwind$LCS_StopLan        00000001004343f0     ctc_lcs.obj
 0002:00001404       $unwind$LCS_QueryIPAssists 0000000100434404     ctc_lcs.obj
 0002:00001418       $unwind$LCS_LanStats       0000000100434418     ctc_lcs.obj
 0002:0000142c       $unwind$LCS_AddMulticast   000000010043442c     ctc_lcs.obj
 0002:00001434       $unwind$LCS_DelMulticast   0000000100434434     ctc_lcs.obj
 0002:0000143c       $unwind$LCS_DefaultCmdProc 000000010043443c     ctc_lcs.obj
 0002:00001450       $unwind$LCS_PortThread     0000000100434450     ctc_lcs.obj
 0002:00001464       $unwind$LCS_AttnThread     0000000100434464     ctc_lcs.obj
 0002:00001474       $unwind$LCS_EnqueueEthFrame 0000000100434474     ctc_lcs.obj
 0002:00001484       $unwind$LCS_DoEnqueueEthFrame 0000000100434484     ctc_lcs.obj
 0002:00001490       $unwind$LCS_EnqueueReplyFrame 0000000100434490     ctc_lcs.obj
 0002:000014a0       $unwind$LCS_DoEnqueueReplyFrame 00000001004344a0     ctc_lcs.obj
 0002:000014ac       $unwind$GetFrameInfo       00000001004344ac     ctc_lcs.obj
 0002:000014c0       $unwind$GetIfMACAddress    00000001004344c0     ctc_lcs.obj
 0002:000014d4       $unwind$BuildOAT           00000001004344d4     ctc_lcs.obj
 0002:000014e8       $unwind$ReadOAT            00000001004344e8     ctc_lcs.obj
 0002:000014f0       $unwind$ParseArgs          00000001004344f0     ctc_lcs.obj
 0002:00001504       $unwind$LCS_Read_SNA       0000000100434504     ctc_lcs.obj
 0002:00001510       $unwind$LCS_Write_SNA      0000000100434510     ctc_lcs.obj
 0002:00001524       $unwind$LCS_StartLan_SNA   0000000100434524     ctc_lcs.obj
 0002:00001530       $unwind$LCS_StopLan_SNA    0000000100434530     ctc_lcs.obj
 0002:0000153c       $unwind$LCS_LanStats_SNA   000000010043453c     ctc_lcs.obj
 0002:00001548       $unwind$LCS_UnsuppCmd_SNA  0000000100434548     ctc_lcs.obj
 0002:00001554       $unwind$LCS_ProcessAccepted_SNA 0000000100434554     ctc_lcs.obj
 0002:00001568       $unwind$ExtractLLC         0000000100434568     ctc_lcs.obj
 0002:00001574       $unwind$BuildLLC           0000000100434574     ctc_lcs.obj
 0002:00001588       $unwind$Process_0D10       0000000100434588     ctc_lcs.obj
 0002:0000159c       $unwind$Process_0D00       000000010043459c     ctc_lcs.obj
 0002:000015b0       $unwind$Process_8C0B       00000001004345b0     ctc_lcs.obj
 0002:000015c4       $unwind$Process_0C0A       00000001004345c4     ctc_lcs.obj
 0002:000015d0       $unwind$Process_0C25       00000001004345d0     ctc_lcs.obj
 0002:000015e4       $unwind$Process_0C22       00000001004345e4     ctc_lcs.obj
 0002:000015f8       $unwind$Process_8D00       00000001004345f8     ctc_lcs.obj
 0002:0000160c       $unwind$Process_0C0B       000000010043460c     ctc_lcs.obj
 0002:00001618       $unwind$Process_0C99       0000000100434618     ctc_lcs.obj
 0002:00001624       $unwind$Process_0C0D       0000000100434624     ctc_lcs.obj
 0002:00001630       $unwind$Process_0C0E       0000000100434630     ctc_lcs.obj
 0002:0000163c       $unwind$Process_0C98       000000010043463c     ctc_lcs.obj
 0002:00001648       $unwind$alloc_lcs_buffer   0000000100434648     ctc_lcs.obj
 0002:00001658       $unwind$add_lcs_buffer_to_chain 0000000100434658     ctc_lcs.obj
 0002:00001660       $unwind$remove_lcs_buffer_from_chain 0000000100434660     ctc_lcs.obj
 0002:00001668       $unwind$remove_and_free_any_lcs_buffers_on_chain 0000000100434668     ctc_lcs.obj
 0002:00001670       $unwind$free_lcs_buffer    0000000100434670     ctc_lcs.obj
 0002:00001678       $unwind$alloc_connection   0000000100434678     ctc_lcs.obj
 0002:00001688       $unwind$add_connection_to_chain 0000000100434688     ctc_lcs.obj
 0002:00001690       $unwind$find_connection_by_remote_mac 0000000100434690     ctc_lcs.obj
 0002:00001698       $unwind$find_connection_by_outbound_token 0000000100434698     ctc_lcs.obj
 0002:000016a0       $unwind$find_connection_by_inbound_token 00000001004346a0     ctc_lcs.obj
 0002:000016a8       $unwind$remove_connection_from_chain 00000001004346a8     ctc_lcs.obj
 0002:000016b0       $unwind$remove_and_free_any_connections_on_chain 00000001004346b0     ctc_lcs.obj
 0002:000016b8       $unwind$free_connection    00000001004346b8     ctc_lcs.obj
 0002:000016c0       $unwind$find_group_device  00000001004346c0     ctc_lcs.obj
 0002:000016c8       $unwind$LCS_StartChannelProgram 00000001004346c8     ctc_lcs.obj
 0002:000016d0       $unwind$LCS_EndChannelProgram 00000001004346d0     ctc_lcs.obj
 0002:000016d8       $unwind$LCS_BegMWrite      00000001004346d8     ctc_lcs.obj
 0002:000016e0       $unwind$LCS_EndMWrite      00000001004346e0     ctc_lcs.obj
 0002:000016e8       $unwind$UpdatePortStarted  00000001004346e8     ctc_lcs.obj
 0002:000016f0       $unwind$LCS_DoMulticast    00000001004346f0     ctc_lcs.obj
 0002:00001704       $unwind$lcs_halt_or_clear  0000000100434704     ctc_lcs.obj
 0002:0000170c       $unwind$hdl_check_depends_ep 000000010043470c     ctc_lcs.obj
 0002:00001714       $unwind$hdl_register_symbols_ep 0000000100434714     ctc_lcs.obj
 0002:0000171c       $unwind$hdl_define_devtypes_ep 000000010043471c     ctc_lcs.obj
 0002:00001724       $unwind$fetch_hw_noswap    0000000100434724     ctc_lcs.obj
 0002:0000172c       $unwind$fetch_f3_noswap    000000010043472c     ctc_lcs.obj
 0002:00001738       $unwind$DebuggerTrace      0000000100434738     ctc_ctci.obj
 0002:00001740       $unwind$CTCI_Init          0000000100434740     ctc_ctci.obj
 0002:00001754       $unwind$CTCI_Close         0000000100434754     ctc_ctci.obj
 0002:0000175c       $unwind$CTCI_Query         000000010043475c     ctc_ctci.obj
 0002:0000176c       $unwind$CTCI_ExecuteCCW    000000010043476c     ctc_ctci.obj
 0002:00001778       $unwind$CTCI_Read          0000000100434778     ctc_ctci.obj
 0002:0000178c       $unwind$CTCI_Write         000000010043478c     ctc_ctci.obj
 0002:0000179c       $unwind$SetSIDInfo         000000010043479c     ctc_ctci.obj
 0002:000017a4       $unwind$ctc_halt_or_clear  00000001004347a4     ctc_ctci.obj
 0002:000017ac       $unwind$CTCI_ReadThread    00000001004347ac     ctc_ctci.obj
 0002:000017bc       $unwind$CTCI_EnqueueIPFrame 00000001004347bc     ctc_ctci.obj
 0002:000017c8       $unwind$ParseArgs          00000001004347c8     ctc_ctci.obj
 0002:000017dc       $unwind$fetch_fw_noswap    00000001004347dc     ctc_ctci.obj
 0002:000017e4       $unwind$CTCX_Close         00000001004347e4     ctcadpt.obj
 0002:000017ec       $unwind$CTCX_Query         00000001004347ec     ctcadpt.obj
 0002:000017fc       $unwind$CTCX_ExecuteCCW    00000001004347fc     ctcadpt.obj
 0002:00001808       $unwind$CTCE_Close         0000000100434808     ctcadpt.obj
 0002:00001810       $unwind$CTCE_Query         0000000100434810     ctcadpt.obj
 0002:00001820       $unwind$SetSIDInfo         0000000100434820     ctcadpt.obj
 0002:00001828       $unwind$SetCIWInfo         0000000100434828     ctcadpt.obj
 0002:00001830       $unwind$CTCT_Init          0000000100434830     ctcadpt.obj
 0002:00001844       $unwind$CTCT_Read          0000000100434844     ctcadpt.obj
 0002:00001858       $unwind$CTCT_Write         0000000100434858     ctcadpt.obj
 0002:00001868       $unwind$CTCT_ListenThread  0000000100434868     ctcadpt.obj
 0002:0000187c       $unwind$CTCE_ExecuteCCW    000000010043487c     ctcadpt.obj
 0002:00001890       $unwind$CTCE_Init          0000000100434890     ctcadpt.obj
 0002:000018a4       $unwind$CTCE_Start_Listen_Connect_Threads 00000001004348a4     ctcadpt.obj
 0002:000018b8       $unwind$CTCE_Start_ConnectThread 00000001004348b8     ctcadpt.obj
 0002:000018c8       $unwind$CTCE_Send          00000001004348c8     ctcadpt.obj
 0002:000018d4       $unwind$CTCE_RecvThread    00000001004348d4     ctcadpt.obj
 0002:000018e4       $unwind$CTCE_ListenThread  00000001004348e4     ctcadpt.obj
 0002:000018f8       $unwind$CTCE_Reset         00000001004348f8     ctcadpt.obj
 0002:0000190c       $unwind$CTCE_ChkSum        000000010043490c     ctcadpt.obj
 0002:00001914       $unwind$CTCE_Trace         0000000100434914     ctcadpt.obj
 0002:00001930       $unwind$CTCE_ConnectThread 0000000100434930     ctcadpt.obj
 0002:00001944       $unwind$CTCE_Get_Socket    0000000100434944     ctcadpt.obj
 0002:00001958       $unwind$CTCE_Write_Init    0000000100434958     ctcadpt.obj
 0002:00001960       $unwind$CTCE_Recovery      0000000100434960     ctcadpt.obj
 0002:00001970       $unwind$CTCE_Build_RCD     0000000100434970     ctcadpt.obj
 0002:00001984       $unwind$MACTabAdd          0000000100434984     netsupp.obj
 0002:00001990       $unwind$MACTabRem          0000000100434990     netsupp.obj
 0002:00001998       $unwind$IsMACTab           0000000100434998     netsupp.obj
 0002:000019a0       $unwind$EtherIpv4CkSumOffload 00000001004349a0     netsupp.obj
 0002:000019a8       $unwind$CheckSum           00000001004349a8     netsupp.obj
 0002:000019b0       $unwind$InetCheckSum       00000001004349b0     netsupp.obj
 0002:000019b8       $unwind$PseudoHdrCheckSum  00000001004349b8     netsupp.obj
 0002:000019c8       $unwind$read_tuntap        00000001004349c8     netsupp.obj
 0002:000019d0       $unwind$DebuggerTrace      00000001004349d0     tuntap.obj
 0002:000019d8       $unwind$TUNTAP_CreateInterface 00000001004349d8     tuntap.obj
 0002:000019ec       $unwind$TUNTAP_SetIPAddr   00000001004349ec     tuntap.obj
 0002:00001a00       $unwind$TUNTAP_SetDestAddr 0000000100434a00     tuntap.obj
 0002:00001a14       $unwind$TUNTAP_SetNetMask  0000000100434a14     tuntap.obj
 0002:00001a28       $unwind$TUNTAP_SetBCastAddr 0000000100434a28     tuntap.obj
 0002:00001a3c       $unwind$TUNTAP_SetIPAddr6  0000000100434a3c     tuntap.obj
 0002:00001a50       $unwind$TUNTAP_GetMTU      0000000100434a50     tuntap.obj
 0002:00001a64       $unwind$TUNTAP_SetMTU      0000000100434a64     tuntap.obj
 0002:00001a78       $unwind$TUNTAP_GetMACAddr  0000000100434a78     tuntap.obj
 0002:00001a8c       $unwind$TUNTAP_SetMACAddr  0000000100434a8c     tuntap.obj
 0002:00001aa0       $unwind$TUNTAP_SetFlags    0000000100434aa0     tuntap.obj
 0002:00001ab4       $unwind$TUNTAP_GetFlags    0000000100434ab4     tuntap.obj
 0002:00001ac8       $unwind$TT32_AddIPAddr     0000000100434ac8     tuntap.obj
 0002:00001ad0       $unwind$TT32_DelIPAddr     0000000100434ad0     tuntap.obj
 0002:00001ad8       $unwind$TT32_QryIPAddrs    0000000100434ad8     tuntap.obj
 0002:00001ae0       $unwind$build_herc_iface_mac 0000000100434ae0     tuntap.obj
 0002:00001ae8       $unwind$ParseMAC           0000000100434ae8     tuntap.obj
 0002:00001af8       $unwind$FormatMAC          0000000100434af8     tuntap.obj
 0002:00001b08       $unwind$packet_trace       0000000100434b08     tuntap.obj
 0002:00001b10       $unwind$net_data_trace     0000000100434b10     tuntap.obj
 0002:00001b24       $unwind$TUNTAP_SetMode     0000000100434b24     tuntap.obj
 0002:00001b2c       $unwind$_vsnprintf_l       0000000100434b2c     w32ctca.obj
 0002:00001b34       $unwind$_vsprintf_l        0000000100434b34     w32ctca.obj
 0002:00001b3c       $unwind$sprintf            0000000100434b3c     w32ctca.obj
 0002:00001b44       $unwind$DebuggerTrace      0000000100434b44     w32ctca.obj
 0002:00001b4c       $unwind$tt32_open          0000000100434b4c     w32ctca.obj
 0002:00001b54       $unwind$tt32_read          0000000100434b54     w32ctca.obj
 0002:00001b5c       $unwind$tt32_write         0000000100434b5c     w32ctca.obj
 0002:00001b64       $unwind$tt32_beg_write_multi 0000000100434b64     w32ctca.obj
 0002:00001b6c       $unwind$tt32_end_write_multi 0000000100434b6c     w32ctca.obj
 0002:00001b74       $unwind$tt32_close         0000000100434b74     w32ctca.obj
 0002:00001b7c       $unwind$tt32_ioctl         0000000100434b7c     w32ctca.obj
 0002:00001b84       $unwind$tt32_get_default_iface 0000000100434b84     w32ctca.obj
 0002:00001b8c       $unwind$tt32_build_herc_iface_mac 0000000100434b8c     w32ctca.obj
 0002:00001b94       $unwind$tt32_version_numbers 0000000100434b94     w32ctca.obj
 0002:00001b9c       $unwind$display_tt32_stats 0000000100434b9c     w32ctca.obj
 0002:00001bb0       $unwind$enable_tt32_debug_tracing 0000000100434bb0     w32ctca.obj
 0002:00001bb8       $unwind$GetTT32ProcAddrs   0000000100434bb8     w32ctca.obj
 0002:00001bc0       $unwind$tt32_output_debug_string 0000000100434bc0     w32ctca.obj
 0002:00001bc8       $unwind$tt32_loaddll       0000000100434bc8     w32ctca.obj
 0002:00001bdc       $unwind$gai_strerrorA      0000000100434bdc     resolve.obj
 0002:00001be4       $unwind$resolve_host       0000000100434be4     resolve.obj
 0002:00001bf0       $unwind$resolve_ipaddr     0000000100434bf0     resolve.obj
 0002:00001bfc       $unwind$resolve_sa         0000000100434bfc     resolve.obj
 0002:00001c04       $unwind$?dllmain_crt_process_attach@@YAHQEAUHINSTANCE__@@QEAX@Z 0000000100434c04     MSVCRTD:dll_dllmain.obj
 0002:00001c24       $unwind$?fin$0@?0??dllmain_crt_process_attach@@YAHQEAUHINSTANCE__@@QEAX@Z@4HA 0000000100434c24     MSVCRTD:dll_dllmain.obj
 0002:00001c2c       $unwind$?dllmain_crt_process_detach@@YAH_N@Z 0000000100434c2c     MSVCRTD:dll_dllmain.obj
 0002:00001c5c       $unwind$?fin$0@?0??dllmain_crt_process_detach@@YAH_N@Z@4HA 0000000100434c5c     MSVCRTD:dll_dllmain.obj
 0002:00001c64       $unwind$?fin$1@?0??dllmain_crt_process_detach@@YAH_N@Z@4HA 0000000100434c64     MSVCRTD:dll_dllmain.obj
 0002:00001c6c       $unwind$?dllmain_crt_dispatch@@YAHQEAUHINSTANCE__@@KQEAX@Z 0000000100434c6c     MSVCRTD:dll_dllmain.obj
 0002:00001c74       $unwind$_CRT_INIT          0000000100434c74     MSVCRTD:dll_dllmain.obj
 0002:00001c7c       $unwind$?dllmain_raw@@YAHQEAUHINSTANCE__@@KQEAX@Z 0000000100434c7c     MSVCRTD:dll_dllmain.obj
 0002:00001c84       $unwind$?dllmain_dispatch@@YAHQEAUHINSTANCE__@@KQEAX@Z 0000000100434c84     MSVCRTD:dll_dllmain.obj
 0002:00001ca4       $unwind$?filt$0@?0??dllmain_dispatch@@YAHQEAUHINSTANCE__@@KQEAX@Z@4HA 0000000100434ca4     MSVCRTD:dll_dllmain.obj
 0002:00001cac       $unwind$_DllMainCRTStartup 0000000100434cac     MSVCRTD:dll_dllmain.obj
 0002:00001cb4       $unwind$__report_securityfailure 0000000100434cb4     MSVCRTD:gs_report.obj
 0002:00001cbc       $unwind$__report_securityfailureEx 0000000100434cbc     MSVCRTD:gs_report.obj
 0002:00001cc4       $unwind$__report_rangecheckfailure 0000000100434cc4     MSVCRTD:gs_report.obj
 0002:00001ccc       $unwind$__report_gsfailure 0000000100434ccc     MSVCRTD:gs_report.obj
 0002:00001cd4       $unwind$capture_current_context 0000000100434cd4     MSVCRTD:gs_report.obj
 0002:00001cdc       $unwind$capture_previous_context 0000000100434cdc     MSVCRTD:gs_report.obj
 0002:00001ce4       $unwind$__raise_securityfailure 0000000100434ce4     MSVCRTD:gs_report.obj
 0002:00001cec       $unwind$__GSHandlerCheckCommon 0000000100434cec     MSVCRTD:gshandler.obj
 0002:00001cf4       $unwind$__GSHandlerCheck   0000000100434cf4     MSVCRTD:gshandler.obj
 0002:00001d00       $xdatasym                  0000000100434d00     MSVCRTD:chkstk.obj
 0002:00001d08       $xdatasym                  0000000100434d08     MSVCRTD:amdsecgs.obj
 0002:00001d0c       $unwind$__security_init_cookie 0000000100434d0c     MSVCRTD:gs_support.obj
 0002:00001d14       $unwind$__get_entropy      0000000100434d14     MSVCRTD:gs_support.obj
 0002:00001d1c       $unwind$DllMain            0000000100434d1c     MSVCRTD:dll_dllmain_stub.obj
 0002:00001d24       $unwind$?__scrt_initialize_type_info@@YAXXZ 0000000100434d24     MSVCRTD:tncleanup.obj
 0002:00001d2c       $unwind$?__scrt_uninitialize_type_info@@YAXXZ 0000000100434d2c     MSVCRTD:tncleanup.obj
 0002:00001d34       $unwind$__scrt_initialize_default_local_stdio_options 0000000100434d34     MSVCRTD:default_local_stdio_options.obj
 0002:00001d3c       $unwind$atexit             0000000100434d3c     MSVCRTD:utility.obj
 0002:00001d44       $unwind$_onexit            0000000100434d44     MSVCRTD:utility.obj
 0002:00001d4c       $unwind$at_quick_exit      0000000100434d4c     MSVCRTD:utility.obj
 0002:00001d54       $unwind$__scrt_is_nonwritable_in_current_image 0000000100434d54     MSVCRTD:utility.obj
 0002:00001d74       $unwind$__scrt_is_nonwritable_in_current_image$filt$0 0000000100434d74     MSVCRTD:utility.obj
 0002:00001d7c       $unwind$__scrt_acquire_startup_lock 0000000100434d7c     MSVCRTD:utility.obj
 0002:00001d84       $unwind$__scrt_release_startup_lock 0000000100434d84     MSVCRTD:utility.obj
 0002:00001d8c       $unwind$__scrt_initialize_crt 0000000100434d8c     MSVCRTD:utility.obj
 0002:00001d94       $unwind$__scrt_uninitialize_crt 0000000100434d94     MSVCRTD:utility.obj
 0002:00001d9c       $unwind$__scrt_initialize_onexit_tables 0000000100434d9c     MSVCRTD:utility.obj
 0002:00001da8       $unwind$__scrt_dllmain_exception_filter 0000000100434da8     MSVCRTD:utility.obj
 0002:00001db0       $unwind$__scrt_dllmain_before_initialize_c 0000000100434db0     MSVCRTD:utility.obj
 0002:00001db8       $unwind$__scrt_dllmain_after_initialize_c 0000000100434db8     MSVCRTD:utility.obj
 0002:00001dc0       $unwind$__scrt_dllmain_uninitialize_c 0000000100434dc0     MSVCRTD:utility.obj
 0002:00001dc8       $unwind$__scrt_dllmain_uninitialize_critical 0000000100434dc8     MSVCRTD:utility.obj
 0002:00001dd0       $unwind$__scrt_dllmain_crt_thread_attach 0000000100434dd0     MSVCRTD:utility.obj
 0002:00001dd8       $unwind$__scrt_dllmain_crt_thread_detach 0000000100434dd8     MSVCRTD:utility.obj
 0002:00001de0       $unwind$?configure_argv@__scrt_narrow_argv_policy@@SAHXZ 0000000100434de0     MSVCRTD:utility.obj
 0002:00001de8       $unwind$?initialize_environment@__scrt_narrow_environment_policy@@SAHXZ 0000000100434de8     MSVCRTD:utility.obj
 0002:00001df0       $unwind$?is_potentially_valid_image_base@@YA_NQEAX@Z 0000000100434df0     MSVCRTD:utility.obj
 0002:00001df8       $unwind$?find_pe_section@@YAPEAU_IMAGE_SECTION_HEADER@@QEAE_K@Z 0000000100434df8     MSVCRTD:utility.obj
 0002:00001e00       $unwind$__scrt_get_show_window_mode 0000000100434e00     MSVCRTD:utility_desktop.obj
 0002:00001e0c       $unwind$__scrt_is_managed_app 0000000100434e0c     MSVCRTD:utility_desktop.obj
 0002:00001e14       $unwind$__scrt_initialize_mta 0000000100434e14     MSVCRTD:utility_desktop.obj
 0002:00001e1c       $unwind$__scrt_set_unhandled_exception_filter 0000000100434e1c     MSVCRTD:utility_desktop.obj
 0002:00001e24       $unwind$__scrt_fastfail    0000000100434e24     MSVCRTD:utility_desktop.obj
 0002:00001e30       $unwind$__scrt_unhandled_exception_filter 0000000100434e30     MSVCRTD:utility_desktop.obj
 0002:00001e38       $unwind$_RTC_Initialize    0000000100434e38     MSVCRTD:initsect.obj
 0002:00001e44       $unwind$_RTC_Terminate     0000000100434e44     MSVCRTD:initsect.obj
 0002:00001e50       $unwind$ReadNoFence64      0000000100434e50     MSVCRTD:guard_support.obj
 0002:00001e58       $unwind$ReadPointerNoFence 0000000100434e58     MSVCRTD:guard_support.obj
 0002:00001e60       $unwind$_guard_icall_checks_enforced 0000000100434e60     MSVCRTD:guard_support.obj
 0002:00001e68       $unwind$__castguard_compat_check 0000000100434e68     MSVCRTD:guard_support.obj
 0002:00001e70       $unwind$__castguard_check_failure_os_handled_wrapper 0000000100434e70     MSVCRTD:guard_support.obj
 0002:00001e78       $unwind$__castguard_check_failure_debugbreak 0000000100434e78     MSVCRTD:guard_support.obj
 0002:00001e80       $unwind$__castguard_check_failure_fastfail 0000000100434e80     MSVCRTD:guard_support.obj
 0002:00001e88       $unwind$__castguard_check_failure_os_handled 0000000100434e88     MSVCRTD:guard_support.obj
 0002:00001e90       $unwind$__castguard_slow_path_compat_check 0000000100434e90     MSVCRTD:guard_support.obj
 0002:00001e98       $unwind$__castguard_slow_path_check_debugbreak 0000000100434e98     MSVCRTD:guard_support.obj
 0002:00001ea0       $unwind$__castguard_slow_path_check_fastfail 0000000100434ea0     MSVCRTD:guard_support.obj
 0002:00001ea8       $unwind$__castguard_slow_path_check_os_handled 0000000100434ea8     MSVCRTD:guard_support.obj
 0002:00001eb0       $unwind$__isa_available_init 0000000100434eb0     MSVCRTD:cpu_disp.obj
 0002:00001ec0       $unwind$__scrt_is_ucrt_dll_in_use 0000000100434ec0     MSVCRTD:ucrt_detection.obj
 0002:00001ec8       $xdatasym                  0000000100434ec8     MSVCRTD:guard_dispatch.obj
 0002:00001ed0       $xdatasym                  0000000100434ed0     MSVCRTD:guard_xfg_dispatch.obj
 0002:00001ee0       .edata                     0000000100434ee0     hdt3088.exp
 0002:00001f08       rgpv                       0000000100434f08     hdt3088.exp
 0002:00001f14       rgszName                   0000000100434f14     hdt3088.exp
 0002:00001f20       rgwOrd                     0000000100434f20     hdt3088.exp
 0002:00001f26       szName                     0000000100434f26     hdt3088.exp
 0002:00001f32       $N00001                    0000000100434f32     hdt3088.exp
 0002:00001f47       $N00002                    0000000100434f47     hdt3088.exp
 0002:00001f5e       $N00003                    0000000100434f5e     hdt3088.exp
 0002:00002520       .idata$6                   0000000100435520     hengine:hengine.dll
 0002:00002860       .idata$6                   0000000100435860     hutil:hutil.dll
 0002:00002874       .idata$6                   0000000100435874     hsys:hsys.dll
 0002:00002948       .idata$6                   0000000100435948     kernel32:KERNEL32.dll
 0002:00002982       .idata$6                   0000000100435982     ws2_32:WS2_32.dll
 0002:00002a0e       .idata$6                   0000000100435a0e     vcruntimed:VCRUNTIME140D.dll
 0002:00002c92       .idata$6                   0000000100435c92     ucrtd:ucrtbased.dll
 0003:00000000       $SG172716                  0000000100436000     ctc_lcs.obj
 0003:00000008       $SG172717                  0000000100436008     ctc_lcs.obj
 0003:0000000c       $SG172718                  000000010043600c     ctc_lcs.obj
 0003:00000010       $SG172719                  0000000100436010     ctc_lcs.obj
 0003:00000014       $SG172720                  0000000100436014     ctc_lcs.obj
 0003:0000001c       $SG172721                  000000010043601c     ctc_lcs.obj
 0003:00000024       $SG172722                  0000000100436024     ctc_lcs.obj
 0003:0000002c       $SG172723                  000000010043602c     ctc_lcs.obj
 0003:00000034       $SG172724                  0000000100436034     ctc_lcs.obj
 0003:0000003c       $SG172725                  000000010043603c     ctc_lcs.obj
 0003:00000120       CTC_Immed_Commands         0000000100436120     ctc_lcs.obj
 0003:00000220       uToken                     0000000100436220     ctc_lcs.obj
 0003:00000224       $SG169533                  0000000100436224     ctc_lcs.obj
 0003:00000228       $SG169532                  0000000100436228     ctc_lcs.obj
 0003:00000234       $SG169558                  0000000100436234     ctc_lcs.obj
 0003:00000238       $SG169534                  0000000100436238     ctc_lcs.obj
 0003:0000026c       $SG169564                  000000010043626c     ctc_lcs.obj
 0003:00000270       $SG169535                  0000000100436270     ctc_lcs.obj
 0003:0000027c       $SG169582                  000000010043627c     ctc_lcs.obj
 0003:00000280       $SG169536                  0000000100436280     ctc_lcs.obj
 0003:0000028c       $SG169586                  000000010043628c     ctc_lcs.obj
 0003:00000290       $SG169537                  0000000100436290     ctc_lcs.obj
 0003:000002a0       $SG169538                  00000001004362a0     ctc_lcs.obj
 0003:000002b4       $SG169587                  00000001004362b4     ctc_lcs.obj
 0003:000002b8       $SG169539                  00000001004362b8     ctc_lcs.obj
 0003:000002c8       $SG169540                  00000001004362c8     ctc_lcs.obj
 0003:000002e0       $SG169541                  00000001004362e0     ctc_lcs.obj
 0003:000002f0       $SG169542                  00000001004362f0     ctc_lcs.obj
 0003:00000300       $SG169543                  0000000100436300     ctc_lcs.obj
 0003:00000318       $SG169544                  0000000100436318     ctc_lcs.obj
 0003:00000328       $SG169545                  0000000100436328     ctc_lcs.obj
 0003:00000344       $SG169624                  0000000100436344     ctc_lcs.obj
 0003:00000348       $SG169546                  0000000100436348     ctc_lcs.obj
 0003:00000358       $SG169559                  0000000100436358     ctc_lcs.obj
 0003:00000398       $SG169560                  0000000100436398     ctc_lcs.obj
 0003:000003a4       $SG169630                  00000001004363a4     ctc_lcs.obj
 0003:000003a8       $SG169561                  00000001004363a8     ctc_lcs.obj
 0003:000003b4       $SG169637                  00000001004363b4     ctc_lcs.obj
 0003:000003b8       $SG169565                  00000001004363b8     ctc_lcs.obj
 0003:000003f8       $SG169566                  00000001004363f8     ctc_lcs.obj
 0003:00000404       $SG169647                  0000000100436404     ctc_lcs.obj
 0003:00000408       $SG169567                  0000000100436408     ctc_lcs.obj
 0003:00000414       $SG169664                  0000000100436414     ctc_lcs.obj
 0003:0000041c       $SG169666                  000000010043641c     ctc_lcs.obj
 0003:00000420       $SG169568                  0000000100436420     ctc_lcs.obj
 0003:00000430       $SG169569                  0000000100436430     ctc_lcs.obj
 0003:00000448       $SG169570                  0000000100436448     ctc_lcs.obj
 0003:00000458       $SG169571                  0000000100436458     ctc_lcs.obj
 0003:00000470       $SG169572                  0000000100436470     ctc_lcs.obj
 0003:00000480       $SG169573                  0000000100436480     ctc_lcs.obj
 0003:00000490       $SG169574                  0000000100436490     ctc_lcs.obj
 0003:000004ac       $SG169665                  00000001004364ac     ctc_lcs.obj
 0003:000004b4       $SG169672                  00000001004364b4     ctc_lcs.obj
 0003:000004b8       $SG169575                  00000001004364b8     ctc_lcs.obj
 0003:000004c8       $SG169576                  00000001004364c8     ctc_lcs.obj
 0003:000004e4       $SG170180                  00000001004364e4     ctc_lcs.obj
 0003:000004e8       $SG169577                  00000001004364e8     ctc_lcs.obj
 0003:000004f8       $SG169578                  00000001004364f8     ctc_lcs.obj
 0003:0000050c       $SG170286                  000000010043650c     ctc_lcs.obj
 0003:00000510       $SG169581                  0000000100436510     ctc_lcs.obj
 0003:00000528       $SG169583                  0000000100436528     ctc_lcs.obj
 0003:0000055c       $SG169670                  000000010043655c     ctc_lcs.obj
 0003:00000564       $SG170289                  0000000100436564     ctc_lcs.obj
 0003:00000568       $SG169584                  0000000100436568     ctc_lcs.obj
 0003:00000574       $SG169671                  0000000100436574     ctc_lcs.obj
 0003:0000057c       $SG170291                  000000010043657c     ctc_lcs.obj
 0003:00000580       $SG169585                  0000000100436580     ctc_lcs.obj
 0003:0000058c       $SG170292                  000000010043658c     ctc_lcs.obj
 0003:00000590       $SG169588                  0000000100436590     ctc_lcs.obj
 0003:000005c8       $SG169589                  00000001004365c8     ctc_lcs.obj
 0003:000005d4       $SG170652                  00000001004365d4     ctc_lcs.obj
 0003:000005d8       $SG169590                  00000001004365d8     ctc_lcs.obj
 0003:000005e4       $SG170658                  00000001004365e4     ctc_lcs.obj
 0003:000005e8       $SG169594                  00000001004365e8     ctc_lcs.obj
 0003:000005f4       $SG170683                  00000001004365f4     ctc_lcs.obj
 0003:000005f8       $SG169595                  00000001004365f8     ctc_lcs.obj
 0003:00000604       $SG169603                  0000000100436604     ctc_lcs.obj
 0003:00000610       $SG169596                  0000000100436610     ctc_lcs.obj
 0003:00000658       $SG169598                  0000000100436658     ctc_lcs.obj
 0003:00000664       $SG170689                  0000000100436664     ctc_lcs.obj
 0003:00000668       $SG169599                  0000000100436668     ctc_lcs.obj
 0003:00000678       $SG169613                  0000000100436678     ctc_lcs.obj
 0003:00000680       $SG169600                  0000000100436680     ctc_lcs.obj
 0003:000006c8       $SG169604                  00000001004366c8     ctc_lcs.obj
 0003:000006d4       $SG170704                  00000001004366d4     ctc_lcs.obj
 0003:000006d8       $SG169605                  00000001004366d8     ctc_lcs.obj
 0003:000006e8       $SG169623                  00000001004366e8     ctc_lcs.obj
 0003:000006f8       $SG169634                  00000001004366f8     ctc_lcs.obj
 0003:00000710       $SG169606                  0000000100436710     ctc_lcs.obj
 0003:00000758       $SG169608                  0000000100436758     ctc_lcs.obj
 0003:00000764       $SG170719                  0000000100436764     ctc_lcs.obj
 0003:00000768       $SG169609                  0000000100436768     ctc_lcs.obj
 0003:00000778       $SG169625                  0000000100436778     ctc_lcs.obj
 0003:000007b8       $SG169629                  00000001004367b8     ctc_lcs.obj
 0003:000007c4       $SG170276                  00000001004367c4     ctc_lcs.obj
 0003:000007d0       $SG169610                  00000001004367d0     ctc_lcs.obj
 0003:00000818       $SG169614                  0000000100436818     ctc_lcs.obj
 0003:00000824       $SG170729                  0000000100436824     ctc_lcs.obj
 0003:00000828       $SG169615                  0000000100436828     ctc_lcs.obj
 0003:00000838       $SG169631                  0000000100436838     ctc_lcs.obj
 0003:00000878       $SG169635                  0000000100436878     ctc_lcs.obj
 0003:00000888       $SG169638                  0000000100436888     ctc_lcs.obj
 0003:000008c0       $SG169616                  00000001004368c0     ctc_lcs.obj
 0003:00000908       $SG169618                  0000000100436908     ctc_lcs.obj
 0003:00000914       $SG170739                  0000000100436914     ctc_lcs.obj
 0003:00000918       $SG169619                  0000000100436918     ctc_lcs.obj
 0003:00000928       $SG169644                  0000000100436928     ctc_lcs.obj
 0003:00000940       $SG169620                  0000000100436940     ctc_lcs.obj
 0003:00000988       $SG169626                  0000000100436988     ctc_lcs.obj
 0003:00000994       $SG170749                  0000000100436994     ctc_lcs.obj
 0003:00000998       $SG169627                  0000000100436998     ctc_lcs.obj
 0003:000009a4       $SG170759                  00000001004369a4     ctc_lcs.obj
 0003:000009a8       $SG169632                  00000001004369a8     ctc_lcs.obj
 0003:000009b4       $SG170769                  00000001004369b4     ctc_lcs.obj
 0003:000009b8       $SG169633                  00000001004369b8     ctc_lcs.obj
 0003:000009c4       $SG170779                  00000001004369c4     ctc_lcs.obj
 0003:000009c8       $SG169639                  00000001004369c8     ctc_lcs.obj
 0003:000009d4       $SG170789                  00000001004369d4     ctc_lcs.obj
 0003:000009d8       $SG169640                  00000001004369d8     ctc_lcs.obj
 0003:000009e4       $SG170799                  00000001004369e4     ctc_lcs.obj
 0003:000009e8       $SG169645                  00000001004369e8     ctc_lcs.obj
 0003:000009f8       $SG169648                  00000001004369f8     ctc_lcs.obj
 0003:00000a2c       $SG170809                  0000000100436a2c     ctc_lcs.obj
 0003:00000a30       $SG169649                  0000000100436a30     ctc_lcs.obj
 0003:00000a3c       $SG170819                  0000000100436a3c     ctc_lcs.obj
 0003:00000a40       $SG169650                  0000000100436a40     ctc_lcs.obj
 0003:00000a4c       $SG170827                  0000000100436a4c     ctc_lcs.obj
 0003:00000a50       $SG169652                  0000000100436a50     ctc_lcs.obj
 0003:00000a60       $SG169653                  0000000100436a60     ctc_lcs.obj
 0003:00000a70       $SG169667                  0000000100436a70     ctc_lcs.obj
 0003:00000ab4       $SG170876                  0000000100436ab4     ctc_lcs.obj
 0003:00000ab8       $SG169668                  0000000100436ab8     ctc_lcs.obj
 0003:00000ac4       $SG170877                  0000000100436ac4     ctc_lcs.obj
 0003:00000ac8       $SG169669                  0000000100436ac8     ctc_lcs.obj
 0003:00000ad8       $SG169674                  0000000100436ad8     ctc_lcs.obj
 0003:00000ae8       $SG169779                  0000000100436ae8     ctc_lcs.obj
 0003:00000af8       $SG169780                  0000000100436af8     ctc_lcs.obj
 0003:00000b10       $SG169673                  0000000100436b10     ctc_lcs.obj
 0003:00000b54       $SG170882                  0000000100436b54     ctc_lcs.obj
 0003:00000b58       $SG169675                  0000000100436b58     ctc_lcs.obj
 0003:00000b64       $SG170883                  0000000100436b64     ctc_lcs.obj
 0003:00000b68       $SG169781                  0000000100436b68     ctc_lcs.obj
 0003:00000b78       $SG169783                  0000000100436b78     ctc_lcs.obj
 0003:00000b88       $SG169784                  0000000100436b88     ctc_lcs.obj
 0003:00000b9c       $SG171009                  0000000100436b9c     ctc_lcs.obj
 0003:00000ba0       $SG169786                  0000000100436ba0     ctc_lcs.obj
 0003:00000bb0       $SG169787                  0000000100436bb0     ctc_lcs.obj
 0003:00000bc4       $SG171325                  0000000100436bc4     ctc_lcs.obj
 0003:00000bc8       $SG169788                  0000000100436bc8     ctc_lcs.obj
 0003:00000bd8       $SG169891                  0000000100436bd8     ctc_lcs.obj
 0003:00000be8       $SG169892                  0000000100436be8     ctc_lcs.obj
 0003:00000bf8       $SG169893                  0000000100436bf8     ctc_lcs.obj
 0003:00000c08       $SG169895                  0000000100436c08     ctc_lcs.obj
 0003:00000c18       $SG169896                  0000000100436c18     ctc_lcs.obj
 0003:00000c28       $SG169898                  0000000100436c28     ctc_lcs.obj
 0003:00000c38       $SG169899                  0000000100436c38     ctc_lcs.obj
 0003:00000c44       $SG171340                  0000000100436c44     ctc_lcs.obj
 0003:00000c48       $SG169901                  0000000100436c48     ctc_lcs.obj
 0003:00000c58       $SG169902                  0000000100436c58     ctc_lcs.obj
 0003:00000c68       $SG169903                  0000000100436c68     ctc_lcs.obj
 0003:00000c78       $SG169905                  0000000100436c78     ctc_lcs.obj
 0003:00000c88       $SG169906                  0000000100436c88     ctc_lcs.obj
 0003:00000c9c       $SG171356                  0000000100436c9c     ctc_lcs.obj
 0003:00000ca0       $SG169907                  0000000100436ca0     ctc_lcs.obj
 0003:00000cb0       $SG169909                  0000000100436cb0     ctc_lcs.obj
 0003:00000cc0       $SG169910                  0000000100436cc0     ctc_lcs.obj
 0003:00000cd4       $SG171361                  0000000100436cd4     ctc_lcs.obj
 0003:00000cd8       $SG169912                  0000000100436cd8     ctc_lcs.obj
 0003:00000ce8       $SG169913                  0000000100436ce8     ctc_lcs.obj
 0003:00000cf8       $SG169914                  0000000100436cf8     ctc_lcs.obj
 0003:00000d08       $SG169916                  0000000100436d08     ctc_lcs.obj
 0003:00000d18       $SG169917                  0000000100436d18     ctc_lcs.obj
 0003:00000d2c       $SG171367                  0000000100436d2c     ctc_lcs.obj
 0003:00000d30       $SG169918                  0000000100436d30     ctc_lcs.obj
 0003:00000d40       $SG170160                  0000000100436d40     ctc_lcs.obj
 0003:00000d50       $SG170161                  0000000100436d50     ctc_lcs.obj
 0003:00000d64       $SG171380                  0000000100436d64     ctc_lcs.obj
 0003:00000d68       $SG170165                  0000000100436d68     ctc_lcs.obj
 0003:00000d78       $SG170166                  0000000100436d78     ctc_lcs.obj
 0003:00000d8c       $SG171385                  0000000100436d8c     ctc_lcs.obj
 0003:00000d90       $SG170169                  0000000100436d90     ctc_lcs.obj
 0003:00000da0       $SG170170                  0000000100436da0     ctc_lcs.obj
 0003:00000db4       $SG171497                  0000000100436db4     ctc_lcs.obj
 0003:00000db8       $SG170172                  0000000100436db8     ctc_lcs.obj
 0003:00000dc8       $SG170173                  0000000100436dc8     ctc_lcs.obj
 0003:00000ddc       $SG171511                  0000000100436ddc     ctc_lcs.obj
 0003:00000de0       $SG170174                  0000000100436de0     ctc_lcs.obj
 0003:00000df0       $SG170176                  0000000100436df0     ctc_lcs.obj
 0003:00000e00       $SG170177                  0000000100436e00     ctc_lcs.obj
 0003:00000e14       $SG171891                  0000000100436e14     ctc_lcs.obj
 0003:00000e18       $SG170181                  0000000100436e18     ctc_lcs.obj
 0003:00000e54       $SG171895                  0000000100436e54     ctc_lcs.obj
 0003:00000e58       $SG170182                  0000000100436e58     ctc_lcs.obj
 0003:00000e64       $SG171922                  0000000100436e64     ctc_lcs.obj
 0003:00000e68       $SG170183                  0000000100436e68     ctc_lcs.obj
 0003:00000e74       $SG171942                  0000000100436e74     ctc_lcs.obj
 0003:00000e78       $SG170185                  0000000100436e78     ctc_lcs.obj
 0003:00000e88       $SG170186                  0000000100436e88     ctc_lcs.obj
 0003:00000e9c       $SG171947                  0000000100436e9c     ctc_lcs.obj
 0003:00000ea0       $SG170188                  0000000100436ea0     ctc_lcs.obj
 0003:00000eb0       $SG170189                  0000000100436eb0     ctc_lcs.obj
 0003:00000ec4       $SG171953                  0000000100436ec4     ctc_lcs.obj
 0003:00000ec8       $SG170191                  0000000100436ec8     ctc_lcs.obj
 0003:00000ed8       $SG170192                  0000000100436ed8     ctc_lcs.obj
 0003:00000eec       $SG171964                  0000000100436eec     ctc_lcs.obj
 0003:00000ef0       $SG170193                  0000000100436ef0     ctc_lcs.obj
 0003:00000f00       $SG170195                  0000000100436f00     ctc_lcs.obj
 0003:00000f10       $SG170196                  0000000100436f10     ctc_lcs.obj
 0003:00000f24       $SG171979                  0000000100436f24     ctc_lcs.obj
 0003:00000f28       $SG170197                  0000000100436f28     ctc_lcs.obj
 0003:00000f38       $SG170199                  0000000100436f38     ctc_lcs.obj
 0003:00000f48       $SG170200                  0000000100436f48     ctc_lcs.obj
 0003:00000f5c       $SG171993                  0000000100436f5c     ctc_lcs.obj
 0003:00000f60       $SG170201                  0000000100436f60     ctc_lcs.obj
 0003:00000f70       $SG170203                  0000000100436f70     ctc_lcs.obj
 0003:00000f80       $SG170204                  0000000100436f80     ctc_lcs.obj
 0003:00000f94       $SG172004                  0000000100436f94     ctc_lcs.obj
 0003:00000f98       $SG170205                  0000000100436f98     ctc_lcs.obj
 0003:00000fa8       $SG170209                  0000000100436fa8     ctc_lcs.obj
 0003:00000fb8       $SG170210                  0000000100436fb8     ctc_lcs.obj
 0003:00000fcc       $SG172016                  0000000100436fcc     ctc_lcs.obj
 0003:00000fd0       $SG170212                  0000000100436fd0     ctc_lcs.obj
 0003:00000fe0       $SG170213                  0000000100436fe0     ctc_lcs.obj
 0003:00000ff4       $SG172027                  0000000100436ff4     ctc_lcs.obj
 0003:00000ff8       $SG170215                  0000000100436ff8     ctc_lcs.obj
 0003:00001008       $SG170216                  0000000100437008     ctc_lcs.obj
 0003:0000101c       $SG172037                  000000010043701c     ctc_lcs.obj
 0003:00001020       $SG170228                  0000000100437020     ctc_lcs.obj
 0003:00001030       $SG170229                  0000000100437030     ctc_lcs.obj
 0003:00001044       $SG172154                  0000000100437044     ctc_lcs.obj
 0003:00001048       $SG170231                  0000000100437048     ctc_lcs.obj
 0003:00001058       $SG170232                  0000000100437058     ctc_lcs.obj
 0003:0000106c       $SG172164                  000000010043706c     ctc_lcs.obj
 0003:00001070       $SG170233                  0000000100437070     ctc_lcs.obj
 0003:00001080       $SG170235                  0000000100437080     ctc_lcs.obj
 0003:00001090       $SG170236                  0000000100437090     ctc_lcs.obj
 0003:000010a4       $SG172535                  00000001004370a4     ctc_lcs.obj
 0003:000010a8       $SG170238                  00000001004370a8     ctc_lcs.obj
 0003:000010b8       $SG170239                  00000001004370b8     ctc_lcs.obj
 0003:000010cc       $SG172547                  00000001004370cc     ctc_lcs.obj
 0003:000010d0       $SG170241                  00000001004370d0     ctc_lcs.obj
 0003:000010e0       $SG170242                  00000001004370e0     ctc_lcs.obj
 0003:000010f0       $SG170243                  00000001004370f0     ctc_lcs.obj
 0003:00001100       $SG170245                  0000000100437100     ctc_lcs.obj
 0003:00001110       $SG170246                  0000000100437110     ctc_lcs.obj
 0003:00001124       $SG172553                  0000000100437124     ctc_lcs.obj
 0003:00001128       $SG170247                  0000000100437128     ctc_lcs.obj
 0003:00001138       $SG170249                  0000000100437138     ctc_lcs.obj
 0003:00001148       $SG170250                  0000000100437148     ctc_lcs.obj
 0003:0000115c       $SG172597                  000000010043715c     ctc_lcs.obj
 0003:00001160       $SG170251                  0000000100437160     ctc_lcs.obj
 0003:00001170       $SG170253                  0000000100437170     ctc_lcs.obj
 0003:00001180       $SG170254                  0000000100437180     ctc_lcs.obj
 0003:00001194       $SG172603                  0000000100437194     ctc_lcs.obj
 0003:00001198       $SG170255                  0000000100437198     ctc_lcs.obj
 0003:000011a8       $SG170257                  00000001004371a8     ctc_lcs.obj
 0003:000011b8       $SG170258                  00000001004371b8     ctc_lcs.obj
 0003:000011cc       $SG170278                  00000001004371cc     ctc_lcs.obj
 0003:000011d4       $SG170280                  00000001004371d4     ctc_lcs.obj
 0003:000011dc       $SG171501                  00000001004371dc     ctc_lcs.obj
 0003:000011e4       $SG172605                  00000001004371e4     ctc_lcs.obj
 0003:000011ec       $SG172617                  00000001004371ec     ctc_lcs.obj
 0003:000011f0       $SG170288                  00000001004371f0     ctc_lcs.obj
 0003:00001200       $SG170293                  0000000100437200     ctc_lcs.obj
 0003:00001224       $SG172623                  0000000100437224     ctc_lcs.obj
 0003:00001228       $SG170319                  0000000100437228     ctc_lcs.obj
 0003:00001238       $SG170320                  0000000100437238     ctc_lcs.obj
 0003:00001244       $SG172608                  0000000100437244     ctc_lcs.obj
 0003:0000124c       $SG172628                  000000010043724c     ctc_lcs.obj
 0003:00001250       $SG170322                  0000000100437250     ctc_lcs.obj
 0003:00001260       $SG170323                  0000000100437260     ctc_lcs.obj
 0003:0000126c       $SG172645                  000000010043726c     ctc_lcs.obj
 0003:00001270       $SG170353                  0000000100437270     ctc_lcs.obj
 0003:00001280       $SG170354                  0000000100437280     ctc_lcs.obj
 0003:0000128c       $SG172651                  000000010043728c     ctc_lcs.obj
 0003:00001290       $SG170356                  0000000100437290     ctc_lcs.obj
 0003:000012a0       $SG170357                  00000001004372a0     ctc_lcs.obj
 0003:000012b0       $SG170653                  00000001004372b0     ctc_lcs.obj
 0003:000012f4       $SG172655                  00000001004372f4     ctc_lcs.obj
 0003:000012f8       $SG170654                  00000001004372f8     ctc_lcs.obj
 0003:00001304       $SG172661                  0000000100437304     ctc_lcs.obj
 0003:00001308       $SG170655                  0000000100437308     ctc_lcs.obj
 0003:00001314       $SG170662                  0000000100437314     ctc_lcs.obj
 0003:00001320       $SG170659                  0000000100437320     ctc_lcs.obj
 0003:00001380       $SG170660                  0000000100437380     ctc_lcs.obj
 0003:0000138c       $SG172731                  000000010043738c     ctc_lcs.obj
 0003:00001390       $SG170661                  0000000100437390     ctc_lcs.obj
 0003:0000139c       $SG172734                  000000010043739c     ctc_lcs.obj
 0003:000013a0       $SG170664                  00000001004373a0     ctc_lcs.obj
 0003:000013b0       $SG170665                  00000001004373b0     ctc_lcs.obj
 0003:000013c4       $SG172736                  00000001004373c4     ctc_lcs.obj
 0003:000013c8       $SG170667                  00000001004373c8     ctc_lcs.obj
 0003:000013d8       $SG170668                  00000001004373d8     ctc_lcs.obj
 0003:000013e4       $SG172743                  00000001004373e4     ctc_lcs.obj
 0003:000013e8       $SG170672                  00000001004373e8     ctc_lcs.obj
 0003:000013f8       $SG170673                  00000001004373f8     ctc_lcs.obj
 0003:0000140c       $SG172751                  000000010043740c     ctc_lcs.obj
 0003:00001410       $SG170677                  0000000100437410     ctc_lcs.obj
 0003:00001420       $SG170678                  0000000100437420     ctc_lcs.obj
 0003:0000142c       $SG172760                  000000010043742c     ctc_lcs.obj
 0003:00001430       $SG170680                  0000000100437430     ctc_lcs.obj
 0003:00001440       $SG170681                  0000000100437440     ctc_lcs.obj
 0003:00001450       $SG170684                  0000000100437450     ctc_lcs.obj
 0003:000014b0       $SG170685                  00000001004374b0     ctc_lcs.obj
 0003:000014bc       $SG172768                  00000001004374bc     ctc_lcs.obj
 0003:000014c0       $SG170686                  00000001004374c0     ctc_lcs.obj
 0003:000014d0       $SG170690                  00000001004374d0     ctc_lcs.obj
 0003:00001530       $SG170691                  0000000100437530     ctc_lcs.obj
 0003:0000153c       $SG172777                  000000010043753c     ctc_lcs.obj
 0003:00001540       $SG170692                  0000000100437540     ctc_lcs.obj
 0003:0000154c       $SG172785                  000000010043754c     ctc_lcs.obj
 0003:00001550       $SG170693                  0000000100437550     ctc_lcs.obj
 0003:0000155c       $SG172793                  000000010043755c     ctc_lcs.obj
 0003:00001560       $SG170695                  0000000100437560     ctc_lcs.obj
 0003:00001570       $SG170696                  0000000100437570     ctc_lcs.obj
 0003:00001584       $SG172802                  0000000100437584     ctc_lcs.obj
 0003:00001588       $SG170698                  0000000100437588     ctc_lcs.obj
 0003:00001598       $SG170699                  0000000100437598     ctc_lcs.obj
 0003:000015a4       $SG172808                  00000001004375a4     ctc_lcs.obj
 0003:000015a8       $SG170702                  00000001004375a8     ctc_lcs.obj
 0003:000015b8       $SG170703                  00000001004375b8     ctc_lcs.obj
 0003:000015c4       $SG172881                  00000001004375c4     ctc_lcs.obj
 0003:000015c8       $SG170705                  00000001004375c8     ctc_lcs.obj
 0003:00001600       $SG170706                  0000000100437600     ctc_lcs.obj
 0003:0000160c       $SG172884                  000000010043760c     ctc_lcs.obj
 0003:00001610       $SG170707                  0000000100437610     ctc_lcs.obj
 0003:0000161c       $SG172890                  000000010043761c     ctc_lcs.obj
 0003:00001624       $SG172891                  0000000100437624     ctc_lcs.obj
 0003:00001628       $SG170709                  0000000100437628     ctc_lcs.obj
 0003:00001638       $SG170710                  0000000100437638     ctc_lcs.obj
 0003:0000164c       $SG172897                  000000010043764c     ctc_lcs.obj
 0003:00001650       $SG170712                  0000000100437650     ctc_lcs.obj
 0003:00001660       $SG170713                  0000000100437660     ctc_lcs.obj
 0003:0000166c       $SG172898                  000000010043766c     ctc_lcs.obj
 0003:00001670       $SG170716                  0000000100437670     ctc_lcs.obj
 0003:00001680       $SG170717                  0000000100437680     ctc_lcs.obj
 0003:00001694       $SG172899                  0000000100437694     ctc_lcs.obj
 0003:00001698       $SG170720                  0000000100437698     ctc_lcs.obj
 0003:000016d0       $SG170721                  00000001004376d0     ctc_lcs.obj
 0003:000016dc       $SG172907                  00000001004376dc     ctc_lcs.obj
 0003:000016e0       $SG170722                  00000001004376e0     ctc_lcs.obj
 0003:000016ec       $SG172914                  00000001004376ec     ctc_lcs.obj
 0003:000016f0       $SG170723                  00000001004376f0     ctc_lcs.obj
 0003:000016f8       $SG170726                  00000001004376f8     ctc_lcs.obj
 0003:00001708       $SG170727                  0000000100437708     ctc_lcs.obj
 0003:00001720       $SG170730                  0000000100437720     ctc_lcs.obj
 0003:0000176c       $SG172902                  000000010043776c     ctc_lcs.obj
 0003:00001774       $SG172915                  0000000100437774     ctc_lcs.obj
 0003:00001778       $SG170731                  0000000100437778     ctc_lcs.obj
 0003:00001784       $SG172926                  0000000100437784     ctc_lcs.obj
 0003:00001788       $SG170732                  0000000100437788     ctc_lcs.obj
 0003:00001794       $SG172933                  0000000100437794     ctc_lcs.obj
 0003:00001798       $SG170735                  0000000100437798     ctc_lcs.obj
 0003:000017a8       $SG170736                  00000001004377a8     ctc_lcs.obj
 0003:000017bc       $SG172940                  00000001004377bc     ctc_lcs.obj
 0003:000017c0       $SG170738                  00000001004377c0     ctc_lcs.obj
 0003:000017c8       $SG170740                  00000001004377c8     ctc_lcs.obj
 0003:000017f8       $SG170741                  00000001004377f8     ctc_lcs.obj
 0003:00001804       $SG172948                  0000000100437804     ctc_lcs.obj
 0003:00001808       $SG170742                  0000000100437808     ctc_lcs.obj
 0003:00001814       $SG172956                  0000000100437814     ctc_lcs.obj
 0003:00001818       $SG170745                  0000000100437818     ctc_lcs.obj
 0003:00001828       $SG170746                  0000000100437828     ctc_lcs.obj
 0003:0000183c       $SG172962                  000000010043783c     ctc_lcs.obj
 0003:00001840       $SG170748                  0000000100437840     ctc_lcs.obj
 0003:0000184c       $SG172905                  000000010043784c     ctc_lcs.obj
 0003:00001854       $SG172964                  0000000100437854     ctc_lcs.obj
 0003:00001858       $SG170750                  0000000100437858     ctc_lcs.obj
 0003:00001888       $SG170751                  0000000100437888     ctc_lcs.obj
 0003:00001894       $SG172971                  0000000100437894     ctc_lcs.obj
 0003:00001898       $SG170752                  0000000100437898     ctc_lcs.obj
 0003:000018a4       $SG172978                  00000001004378a4     ctc_lcs.obj
 0003:000018a8       $SG170755                  00000001004378a8     ctc_lcs.obj
 0003:000018b8       $SG170756                  00000001004378b8     ctc_lcs.obj
 0003:000018cc       $SG172981                  00000001004378cc     ctc_lcs.obj
 0003:000018d0       $SG170758                  00000001004378d0     ctc_lcs.obj
 0003:000018dc       $SG172984                  00000001004378dc     ctc_lcs.obj
 0003:000018e0       $SG170760                  00000001004378e0     ctc_lcs.obj
 0003:00001910       $SG170761                  0000000100437910     ctc_lcs.obj
 0003:0000191c       $SG172985                  000000010043791c     ctc_lcs.obj
 0003:00001920       $SG170762                  0000000100437920     ctc_lcs.obj
 0003:0000192c       $SG172992                  000000010043792c     ctc_lcs.obj
 0003:00001930       $SG170765                  0000000100437930     ctc_lcs.obj
 0003:00001940       $SG170766                  0000000100437940     ctc_lcs.obj
 0003:00001954       $SG172998                  0000000100437954     ctc_lcs.obj
 0003:00001958       $SG170768                  0000000100437958     ctc_lcs.obj
 0003:00001964       $SG172906                  0000000100437964     ctc_lcs.obj
 0003:0000196c       $SG173000                  000000010043796c     ctc_lcs.obj
 0003:00001970       $SG170770                  0000000100437970     ctc_lcs.obj
 0003:000019a0       $SG170771                  00000001004379a0     ctc_lcs.obj
 0003:000019ac       $SG173007                  00000001004379ac     ctc_lcs.obj
 0003:000019b0       $SG170772                  00000001004379b0     ctc_lcs.obj
 0003:000019bc       $SG173012                  00000001004379bc     ctc_lcs.obj
 0003:000019c0       $SG170775                  00000001004379c0     ctc_lcs.obj
 0003:000019d0       $SG170776                  00000001004379d0     ctc_lcs.obj
 0003:000019e4       $SG173016                  00000001004379e4     ctc_lcs.obj
 0003:000019e8       $SG170778                  00000001004379e8     ctc_lcs.obj
 0003:000019f8       $SG170780                  00000001004379f8     ctc_lcs.obj
 0003:00001a28       $SG170781                  0000000100437a28     ctc_lcs.obj
 0003:00001a34       $SG173043                  0000000100437a34     ctc_lcs.obj
 0003:00001a38       $SG170782                  0000000100437a38     ctc_lcs.obj
 0003:00001a44       $SG173056                  0000000100437a44     ctc_lcs.obj
 0003:00001a48       $SG170785                  0000000100437a48     ctc_lcs.obj
 0003:00001a58       $SG170786                  0000000100437a58     ctc_lcs.obj
 0003:00001a6c       $SG173312                  0000000100437a6c     ctc_lcs.obj
 0003:00001a70       $SG170788                  0000000100437a70     ctc_lcs.obj
 0003:00001a80       $SG170790                  0000000100437a80     ctc_lcs.obj
 0003:00001ab0       $SG170791                  0000000100437ab0     ctc_lcs.obj
 0003:00001abc       $SG173060                  0000000100437abc     ctc_lcs.obj
 0003:00001ac4       $SG173644                  0000000100437ac4     ctc_lcs.obj
 0003:00001ac8       $SG170792                  0000000100437ac8     ctc_lcs.obj
 0003:00001ad4       $SG173650                  0000000100437ad4     ctc_lcs.obj
 0003:00001ad8       $SG170795                  0000000100437ad8     ctc_lcs.obj
 0003:00001ae8       $SG170796                  0000000100437ae8     ctc_lcs.obj
 0003:00001b00       $SG170798                  0000000100437b00     ctc_lcs.obj
 0003:00001b10       $SG170800                  0000000100437b10     ctc_lcs.obj
 0003:00001b40       $SG170801                  0000000100437b40     ctc_lcs.obj
 0003:00001b4c       $SG173698                  0000000100437b4c     ctc_lcs.obj
 0003:00001b50       $SG170802                  0000000100437b50     ctc_lcs.obj
 0003:00001b5c       $SG173712                  0000000100437b5c     ctc_lcs.obj
 0003:00001b60       $SG170805                  0000000100437b60     ctc_lcs.obj
 0003:00001b70       $SG170806                  0000000100437b70     ctc_lcs.obj
 0003:00001b88       $SG170808                  0000000100437b88     ctc_lcs.obj
 0003:00001b9c       $SG172913                  0000000100437b9c     ctc_lcs.obj
 0003:00001ba4       $SG173722                  0000000100437ba4     ctc_lcs.obj
 0003:00001ba8       $SG170810                  0000000100437ba8     ctc_lcs.obj
 0003:00001bd8       $SG170811                  0000000100437bd8     ctc_lcs.obj
 0003:00001be4       $SG173730                  0000000100437be4     ctc_lcs.obj
 0003:00001be8       $SG170812                  0000000100437be8     ctc_lcs.obj
 0003:00001bf4       $SG173775                  0000000100437bf4     ctc_lcs.obj
 0003:00001bf8       $SG170815                  0000000100437bf8     ctc_lcs.obj
 0003:00001c08       $SG170816                  0000000100437c08     ctc_lcs.obj
 0003:00001c1c       $SG173785                  0000000100437c1c     ctc_lcs.obj
 0003:00001c20       $SG170818                  0000000100437c20     ctc_lcs.obj
 0003:00001c30       $SG170820                  0000000100437c30     ctc_lcs.obj
 0003:00001c60       $SG170821                  0000000100437c60     ctc_lcs.obj
 0003:00001c6c       $SG173795                  0000000100437c6c     ctc_lcs.obj
 0003:00001c70       $SG170822                  0000000100437c70     ctc_lcs.obj
 0003:00001c7c       $SG173803                  0000000100437c7c     ctc_lcs.obj
 0003:00001c80       $SG170825                  0000000100437c80     ctc_lcs.obj
 0003:00001c90       $SG170826                  0000000100437c90     ctc_lcs.obj
 0003:00001ca8       $SG170841                  0000000100437ca8     ctc_lcs.obj
 0003:00001cb8       $SG170845                  0000000100437cb8     ctc_lcs.obj
 0003:00001cd0       $SG170828                  0000000100437cd0     ctc_lcs.obj
 0003:00001d14       $SG173824                  0000000100437d14     ctc_lcs.obj
 0003:00001d18       $SG170829                  0000000100437d18     ctc_lcs.obj
 0003:00001d24       $SG173881                  0000000100437d24     ctc_lcs.obj
 0003:00001d28       $SG170830                  0000000100437d28     ctc_lcs.obj
 0003:00001d34       $SG173889                  0000000100437d34     ctc_lcs.obj
 0003:00001d38       $SG170832                  0000000100437d38     ctc_lcs.obj
 0003:00001d44       $SG173896                  0000000100437d44     ctc_lcs.obj
 0003:00001d48       $SG170833                  0000000100437d48     ctc_lcs.obj
 0003:00001d58       $SG170844                  0000000100437d58     ctc_lcs.obj
 0003:00001d68       $SG170851                  0000000100437d68     ctc_lcs.obj
 0003:00001d80       $SG170834                  0000000100437d80     ctc_lcs.obj
 0003:00001dc8       $SG170836                  0000000100437dc8     ctc_lcs.obj
 0003:00001dd4       $SG173902                  0000000100437dd4     ctc_lcs.obj
 0003:00001dd8       $SG170837                  0000000100437dd8     ctc_lcs.obj
 0003:00001de8       $SG170847                  0000000100437de8     ctc_lcs.obj
 0003:00001df8       $SG170995                  0000000100437df8     ctc_lcs.obj
 0003:00001e10       $SG170838                  0000000100437e10     ctc_lcs.obj
 0003:00001e58       $SG170842                  0000000100437e58     ctc_lcs.obj
 0003:00001e64       $SG173911                  0000000100437e64     ctc_lcs.obj
 0003:00001e68       $SG170848                  0000000100437e68     ctc_lcs.obj
 0003:00001e74       $SG173974                  0000000100437e74     ctc_lcs.obj
 0003:00001e78       $SG170850                  0000000100437e78     ctc_lcs.obj
 0003:00001e88       $SG170999                  0000000100437e88     ctc_lcs.obj
 0003:00001ea0       $SG170878                  0000000100437ea0     ctc_lcs.obj
 0003:00001f04       $SG173980                  0000000100437f04     ctc_lcs.obj
 0003:00001f08       $SG170879                  0000000100437f08     ctc_lcs.obj
 0003:00001f14       $SG173990                  0000000100437f14     ctc_lcs.obj
 0003:00001f18       $SG170880                  0000000100437f18     ctc_lcs.obj
 0003:00001f28       $SG170885                  0000000100437f28     ctc_lcs.obj
 0003:00001f34       $SG172557                  0000000100437f34     ctc_lcs.obj
 0003:00001f40       $SG170884                  0000000100437f40     ctc_lcs.obj
 0003:00001fa4       $SG174050                  0000000100437fa4     ctc_lcs.obj
 0003:00001fa8       $SG170886                  0000000100437fa8     ctc_lcs.obj
 0003:00001fb4       $SG174056                  0000000100437fb4     ctc_lcs.obj
 0003:00001fb8       $SG170994                  0000000100437fb8     ctc_lcs.obj
 0003:00001fc8       $SG170996                  0000000100437fc8     ctc_lcs.obj
 0003:00001fd8       $SG170998                  0000000100437fd8     ctc_lcs.obj
 0003:00001fe8       $SG171001                  0000000100437fe8     ctc_lcs.obj
 0003:00001ff8       $SG171002                  0000000100437ff8     ctc_lcs.obj
 0003:0000200c       $SG174064                  000000010043800c     ctc_lcs.obj
 0003:00002010       $SG171004                  0000000100438010     ctc_lcs.obj
 0003:00002020       $SG171005                  0000000100438020     ctc_lcs.obj
 0003:00002034       $SG174066                  0000000100438034     ctc_lcs.obj
 0003:00002038       $SG171006                  0000000100438038     ctc_lcs.obj
 0003:00002048       $SG171010                  0000000100438048     ctc_lcs.obj
 0003:00002084       $SG174132                  0000000100438084     ctc_lcs.obj
 0003:00002088       $SG171011                  0000000100438088     ctc_lcs.obj
 0003:0000209c       $SG174141                  000000010043809c     ctc_lcs.obj
 0003:000020a0       $SG171012                  00000001004380a0     ctc_lcs.obj
 0003:000020ac       $SG174150                  00000001004380ac     ctc_lcs.obj
 0003:000020b0       $SG171014                  00000001004380b0     ctc_lcs.obj
 0003:000020c0       $SG171015                  00000001004380c0     ctc_lcs.obj
 0003:000020d4       $SG174157                  00000001004380d4     ctc_lcs.obj
 0003:000020d8       $SG171016                  00000001004380d8     ctc_lcs.obj
 0003:000020e8       $SG171018                  00000001004380e8     ctc_lcs.obj
 0003:000020f8       $SG171019                  00000001004380f8     ctc_lcs.obj
 0003:0000210c       $SG174166                  000000010043810c     ctc_lcs.obj
 0003:00002110       $SG171021                  0000000100438110     ctc_lcs.obj
 0003:00002120       $SG171022                  0000000100438120     ctc_lcs.obj
 0003:00002134       $SG174222                  0000000100438134     ctc_lcs.obj
 0003:00002138       $SG171023                  0000000100438138     ctc_lcs.obj
 0003:00002148       $SG171025                  0000000100438148     ctc_lcs.obj
 0003:00002158       $SG171026                  0000000100438158     ctc_lcs.obj
 0003:0000216c       $SG174228                  000000010043816c     ctc_lcs.obj
 0003:00002170       $SG171027                  0000000100438170     ctc_lcs.obj
 0003:00002180       $SG171029                  0000000100438180     ctc_lcs.obj
 0003:00002190       $SG171030                  0000000100438190     ctc_lcs.obj
 0003:000021a4       $SG174238                  00000001004381a4     ctc_lcs.obj
 0003:000021a8       $SG171105                  00000001004381a8     ctc_lcs.obj
 0003:000021b8       $SG171106                  00000001004381b8     ctc_lcs.obj
 0003:000021cc       $SG174296                  00000001004381cc     ctc_lcs.obj
 0003:000021d0       $SG171107                  00000001004381d0     ctc_lcs.obj
 0003:000021e0       $SG171109                  00000001004381e0     ctc_lcs.obj
 0003:000021f0       $SG171110                  00000001004381f0     ctc_lcs.obj
 0003:00002204       $SG174305                  0000000100438204     ctc_lcs.obj
 0003:00002208       $SG171112                  0000000100438208     ctc_lcs.obj
 0003:00002218       $SG171113                  0000000100438218     ctc_lcs.obj
 0003:0000222c       $SG174311                  000000010043822c     ctc_lcs.obj
 0003:00002230       $SG171116                  0000000100438230     ctc_lcs.obj
 0003:00002240       $SG171117                  0000000100438240     ctc_lcs.obj
 0003:00002254       $SG174319                  0000000100438254     ctc_lcs.obj
 0003:00002258       $SG171120                  0000000100438258     ctc_lcs.obj
 0003:00002268       $SG171121                  0000000100438268     ctc_lcs.obj
 0003:00002278       $SG171124                  0000000100438278     ctc_lcs.obj
 0003:00002288       $SG171129                  0000000100438288     ctc_lcs.obj
 0003:00002298       $SG171130                  0000000100438298     ctc_lcs.obj
 0003:000022b0       $SG171122                  00000001004382b0     ctc_lcs.obj
 0003:000022f8       $SG171125                  00000001004382f8     ctc_lcs.obj
 0003:00002308       $SG171131                  0000000100438308     ctc_lcs.obj
 0003:00002318       $SG171188                  0000000100438318     ctc_lcs.obj
 0003:00002330       $SG171126                  0000000100438330     ctc_lcs.obj
 0003:00002378       $SG171187                  0000000100438378     ctc_lcs.obj
 0003:00002388       $SG171189                  0000000100438388     ctc_lcs.obj
 0003:00002398       $SG171191                  0000000100438398     ctc_lcs.obj
 0003:000023a8       $SG171192                  00000001004383a8     ctc_lcs.obj
 0003:000023bc       $SG174321                  00000001004383bc     ctc_lcs.obj
 0003:000023c0       $SG171195                  00000001004383c0     ctc_lcs.obj
 0003:000023cc       $SG174381                  00000001004383cc     ctc_lcs.obj
 0003:000023d0       $SG171196                  00000001004383d0     ctc_lcs.obj
 0003:000023e0       $SG171197                  00000001004383e0     ctc_lcs.obj
 0003:00002428       $SG171199                  0000000100438428     ctc_lcs.obj
 0003:00002434       $SG174387                  0000000100438434     ctc_lcs.obj
 0003:00002438       $SG171200                  0000000100438438     ctc_lcs.obj
 0003:00002448       $SG171204                  0000000100438448     ctc_lcs.obj
 0003:00002458       $SG171205                  0000000100438458     ctc_lcs.obj
 0003:00002470       $SG171201                  0000000100438470     ctc_lcs.obj
 0003:000024b8       $SG171206                  00000001004384b8     ctc_lcs.obj
 0003:000024c8       $SG171323                  00000001004384c8     ctc_lcs.obj
 0003:000024d4       $SG174395                  00000001004384d4     ctc_lcs.obj
 0003:000024d8       $SG171324                  00000001004384d8     ctc_lcs.obj
 0003:000024e4       $SG174397                  00000001004384e4     ctc_lcs.obj
 0003:000024e8       $SG171332                  00000001004384e8     ctc_lcs.obj
 0003:000024f8       $SG171333                  00000001004384f8     ctc_lcs.obj
 0003:00002508       $SG171336                  0000000100438508     ctc_lcs.obj
 0003:00002518       $SG171341                  0000000100438518     ctc_lcs.obj
 0003:00002550       $SG171334                  0000000100438550     ctc_lcs.obj
 0003:00002598       $SG171337                  0000000100438598     ctc_lcs.obj
 0003:000025a8       $SG171342                  00000001004385a8     ctc_lcs.obj
 0003:000025b8       $SG171357                  00000001004385b8     ctc_lcs.obj
 0003:000025f0       $SG171338                  00000001004385f0     ctc_lcs.obj
 0003:00002638       $SG171343                  0000000100438638     ctc_lcs.obj
 0003:00002644       $SG174450                  0000000100438644     ctc_lcs.obj
 0003:00002648       $SG171348                  0000000100438648     ctc_lcs.obj
 0003:00002658       $SG171349                  0000000100438658     ctc_lcs.obj
 0003:00002668       $SG171352                  0000000100438668     ctc_lcs.obj
 0003:00002678       $SG171381                  0000000100438678     ctc_lcs.obj
 0003:000026b0       $SG171350                  00000001004386b0     ctc_lcs.obj
 0003:000026f8       $SG171353                  00000001004386f8     ctc_lcs.obj
 0003:00002708       $SG171358                  0000000100438708     ctc_lcs.obj
 0003:00002718       $SG171386                  0000000100438718     ctc_lcs.obj
 0003:00002750       $SG171354                  0000000100438750     ctc_lcs.obj
 0003:00002798       $SG171359                  0000000100438798     ctc_lcs.obj
 0003:000027a4       $SG175104                  00000001004387a4     ctc_lcs.obj
 0003:000027a8       $SG171362                  00000001004387a8     ctc_lcs.obj
 0003:000027d4       $SG175110                  00000001004387d4     ctc_lcs.obj
 0003:000027d8       $SG171363                  00000001004387d8     ctc_lcs.obj
 0003:000027e8       $SG171364                  00000001004387e8     ctc_lcs.obj
 0003:000027f4       $SG175125                  00000001004387f4     ctc_lcs.obj
 0003:000027f8       $SG171365                  00000001004387f8     ctc_lcs.obj
 0003:00002808       $SG171366                  0000000100438808     ctc_lcs.obj
 0003:00002818       $SG171372                  0000000100438818     ctc_lcs.obj
 0003:00002828       $SG171373                  0000000100438828     ctc_lcs.obj
 0003:00002838       $SG171376                  0000000100438838     ctc_lcs.obj
 0003:00002848       $SG171498                  0000000100438848     ctc_lcs.obj
 0003:00002880       $SG171374                  0000000100438880     ctc_lcs.obj
 0003:000028c8       $SG171377                  00000001004388c8     ctc_lcs.obj
 0003:000028d8       $SG171382                  00000001004388d8     ctc_lcs.obj
 0003:000028e8       $SG171499                  00000001004388e8     ctc_lcs.obj
 0003:00002900       $SG171378                  0000000100438900     ctc_lcs.obj
 0003:00002948       $SG171383                  0000000100438948     ctc_lcs.obj
 0003:00002954       $SG175135                  0000000100438954     ctc_lcs.obj
 0003:00002958       $SG171387                  0000000100438958     ctc_lcs.obj
 0003:00002968       $SG171388                  0000000100438968     ctc_lcs.obj
 0003:00002974       $SG175151                  0000000100438974     ctc_lcs.obj
 0003:00002978       $SG171500                  0000000100438978     ctc_lcs.obj
 0003:00002984       $SG175157                  0000000100438984     ctc_lcs.obj
 0003:00002988       $SG171503                  0000000100438988     ctc_lcs.obj
 0003:00002998       $SG171504                  0000000100438998     ctc_lcs.obj
 0003:000029ac       $SG175165                  00000001004389ac     ctc_lcs.obj
 0003:000029b0       $SG171506                  00000001004389b0     ctc_lcs.obj
 0003:000029c0       $SG171507                  00000001004389c0     ctc_lcs.obj
 0003:000029cc       $SG172921                  00000001004389cc     ctc_lcs.obj
 0003:000029d4       $SG175175                  00000001004389d4     ctc_lcs.obj
 0003:000029d8       $SG171510                  00000001004389d8     ctc_lcs.obj
 0003:000029f0       $SG171512                  00000001004389f0     ctc_lcs.obj
 0003:00002a50       $SG171513                  0000000100438a50     ctc_lcs.obj
 0003:00002a68       $SG171514                  0000000100438a68     ctc_lcs.obj
 0003:00002a74       $SG175186                  0000000100438a74     ctc_lcs.obj
 0003:00002a78       $SG171516                  0000000100438a78     ctc_lcs.obj
 0003:00002a88       $SG171517                  0000000100438a88     ctc_lcs.obj
 0003:00002a94       $SG175194                  0000000100438a94     ctc_lcs.obj
 0003:00002a98       $SG171519                  0000000100438a98     ctc_lcs.obj
 0003:00002ab0       $SG171520                  0000000100438ab0     ctc_lcs.obj
 0003:00002ac0       $SG171521                  0000000100438ac0     ctc_lcs.obj
 0003:00002b08       $SG171523                  0000000100438b08     ctc_lcs.obj
 0003:00002b20       $SG171524                  0000000100438b20     ctc_lcs.obj
 0003:00002b30       $SG171525                  0000000100438b30     ctc_lcs.obj
 0003:00002b78       $SG171528                  0000000100438b78     ctc_lcs.obj
 0003:00002b88       $SG171529                  0000000100438b88     ctc_lcs.obj
 0003:00002b94       $SG172924                  0000000100438b94     ctc_lcs.obj
 0003:00002b9c       $SG175192                  0000000100438b9c     ctc_lcs.obj
 0003:00002ba4       $SG175202                  0000000100438ba4     ctc_lcs.obj
 0003:00002ba8       $SG171531                  0000000100438ba8     ctc_lcs.obj
 0003:00002bb8       $SG171532                  0000000100438bb8     ctc_lcs.obj
 0003:00002bcc       $SG175204                  0000000100438bcc     ctc_lcs.obj
 0003:00002bd0       $SG171636                  0000000100438bd0     ctc_lcs.obj
 0003:00002be0       $SG171637                  0000000100438be0     ctc_lcs.obj
 0003:00002bf4       $SG175212                  0000000100438bf4     ctc_lcs.obj
 0003:00002bf8       $SG171638                  0000000100438bf8     ctc_lcs.obj
 0003:00002c08       $SG171640                  0000000100438c08     ctc_lcs.obj
 0003:00002c18       $SG171641                  0000000100438c18     ctc_lcs.obj
 0003:00002c2c       $SG175218                  0000000100438c2c     ctc_lcs.obj
 0003:00002c30       $SG171644                  0000000100438c30     ctc_lcs.obj
 0003:00002c40       $SG171645                  0000000100438c40     ctc_lcs.obj
 0003:00002c54       $SG175224                  0000000100438c54     ctc_lcs.obj
 0003:00002c58       $SG171647                  0000000100438c58     ctc_lcs.obj
 0003:00002c68       $SG171648                  0000000100438c68     ctc_lcs.obj
 0003:00002c7c       $SG175226                  0000000100438c7c     ctc_lcs.obj
 0003:00002c80       $SG171649                  0000000100438c80     ctc_lcs.obj
 0003:00002c90       $SG171651                  0000000100438c90     ctc_lcs.obj
 0003:00002ca0       $SG171652                  0000000100438ca0     ctc_lcs.obj
 0003:00002cb4       $SG175232                  0000000100438cb4     ctc_lcs.obj
 0003:00002cb8       $SG171654                  0000000100438cb8     ctc_lcs.obj
 0003:00002cc8       $SG171655                  0000000100438cc8     ctc_lcs.obj
 0003:00002cdc       $SG175240                  0000000100438cdc     ctc_lcs.obj
 0003:00002ce0       $SG171656                  0000000100438ce0     ctc_lcs.obj
 0003:00002cf0       $SG171658                  0000000100438cf0     ctc_lcs.obj
 0003:00002d00       $SG171659                  0000000100438d00     ctc_lcs.obj
 0003:00002d14       $SG175246                  0000000100438d14     ctc_lcs.obj
 0003:00002d18       $SG171660                  0000000100438d18     ctc_lcs.obj
 0003:00002d28       $SG171662                  0000000100438d28     ctc_lcs.obj
 0003:00002d38       $SG171663                  0000000100438d38     ctc_lcs.obj
 0003:00002d4c       $SG175254                  0000000100438d4c     ctc_lcs.obj
 0003:00002d50       $SG171665                  0000000100438d50     ctc_lcs.obj
 0003:00002d60       $SG171666                  0000000100438d60     ctc_lcs.obj
 0003:00002d74       $SG175259                  0000000100438d74     ctc_lcs.obj
 0003:00002d78       $SG171667                  0000000100438d78     ctc_lcs.obj
 0003:00002d88       $SG171669                  0000000100438d88     ctc_lcs.obj
 0003:00002d98       $SG171670                  0000000100438d98     ctc_lcs.obj
 0003:00002dac       $SG175265                  0000000100438dac     ctc_lcs.obj
 0003:00002db0       $SG171671                  0000000100438db0     ctc_lcs.obj
 0003:00002dc0       $SG171879                  0000000100438dc0     ctc_lcs.obj
 0003:00002dd0       $SG171880                  0000000100438dd0     ctc_lcs.obj
 0003:00002de4       $SG175267                  0000000100438de4     ctc_lcs.obj
 0003:00002de8       $SG171882                  0000000100438de8     ctc_lcs.obj
 0003:00002df8       $SG171883                  0000000100438df8     ctc_lcs.obj
 0003:00002e0c       $SG175275                  0000000100438e0c     ctc_lcs.obj
 0003:00002e10       $SG171884                  0000000100438e10     ctc_lcs.obj
 0003:00002e20       $SG171886                  0000000100438e20     ctc_lcs.obj
 0003:00002e30       $SG171887                  0000000100438e30     ctc_lcs.obj
 0003:00002e48       $SG171893                  0000000100438e48     ctc_lcs.obj
 0003:00002e58       $SG171901                  0000000100438e58     ctc_lcs.obj
 0003:00002e70       $SG171892                  0000000100438e70     ctc_lcs.obj
 0003:00002eb4       $SG175283                  0000000100438eb4     ctc_lcs.obj
 0003:00002eb8       $SG171894                  0000000100438eb8     ctc_lcs.obj
 0003:00002ec8       $SG171897                  0000000100438ec8     ctc_lcs.obj
 0003:00002ed8       $SG171909                  0000000100438ed8     ctc_lcs.obj
 0003:00002ef0       $SG171896                  0000000100438ef0     ctc_lcs.obj
 0003:00002f40       $SG171898                  0000000100438f40     ctc_lcs.obj
 0003:00002f4c       $SG175289                  0000000100438f4c     ctc_lcs.obj
 0003:00002f50       $SG171900                  0000000100438f50     ctc_lcs.obj
 0003:00002f60       $SG171908                  0000000100438f60     ctc_lcs.obj
 0003:00002f70       $SG171911                  0000000100438f70     ctc_lcs.obj
 0003:00002f80       $SG171912                  0000000100438f80     ctc_lcs.obj
 0003:00002f94       $SG175298                  0000000100438f94     ctc_lcs.obj
 0003:00002f98       $SG171914                  0000000100438f98     ctc_lcs.obj
 0003:00002fa8       $SG171915                  0000000100438fa8     ctc_lcs.obj
 0003:00002fbc       $SG175305                  0000000100438fbc     ctc_lcs.obj
 0003:00002fc0       $SG171916                  0000000100438fc0     ctc_lcs.obj
 0003:00002fd0       $SG171918                  0000000100438fd0     ctc_lcs.obj
 0003:00002fe0       $SG171919                  0000000100438fe0     ctc_lcs.obj
 0003:00002ff8       $SG171924                  0000000100438ff8     ctc_lcs.obj
 0003:00003008       $SG171928                  0000000100439008     ctc_lcs.obj
 0003:00003020       $SG171923                  0000000100439020     ctc_lcs.obj
 0003:00003064       $SG175318                  0000000100439064     ctc_lcs.obj
 0003:00003068       $SG171925                  0000000100439068     ctc_lcs.obj
 0003:00003074       $SG175326                  0000000100439074     ctc_lcs.obj
 0003:00003078       $SG171927                  0000000100439078     ctc_lcs.obj
 0003:00003088       $SG171929                  0000000100439088     ctc_lcs.obj
 0003:00003098       $SG171933                  0000000100439098     ctc_lcs.obj
 0003:000030a8       $SG171934                  00000001004390a8     ctc_lcs.obj
 0003:000030b4       $SG175332                  00000001004390b4     ctc_lcs.obj
 0003:000030b8       $SG171936                  00000001004390b8     ctc_lcs.obj
 0003:000030c8       $SG171937                  00000001004390c8     ctc_lcs.obj
 0003:000030d8       $SG171944                  00000001004390d8     ctc_lcs.obj
 0003:000030e8       $SG171963                  00000001004390e8     ctc_lcs.obj
 0003:00003100       $SG171943                  0000000100439100     ctc_lcs.obj
 0003:00003144       $SG172925                  0000000100439144     ctc_lcs.obj
 0003:0000314c       $SG175342                  000000010043914c     ctc_lcs.obj
 0003:00003150       $SG171945                  0000000100439150     ctc_lcs.obj
 0003:00003160       $SG171948                  0000000100439160     ctc_lcs.obj
 0003:000031c4       $SG175383                  00000001004391c4     ctc_lcs.obj
 0003:000031c8       $SG171949                  00000001004391c8     ctc_lcs.obj
 0003:000031d8       $SG171950                  00000001004391d8     ctc_lcs.obj
 0003:000031e8       $SG171955                  00000001004391e8     ctc_lcs.obj
 0003:000031f8       $SG171978                  00000001004391f8     ctc_lcs.obj
 0003:00003210       $SG171954                  0000000100439210     ctc_lcs.obj
 0003:00003260       $SG171956                  0000000100439260     ctc_lcs.obj
 0003:00003270       $SG171965                  0000000100439270     ctc_lcs.obj
 0003:000032b4       $SG175481                  00000001004392b4     ctc_lcs.obj
 0003:000032b8       $SG171966                  00000001004392b8     ctc_lcs.obj
 0003:000032c8       $SG171967                  00000001004392c8     ctc_lcs.obj
 0003:000032d8       $SG171981                  00000001004392d8     ctc_lcs.obj
 0003:000032e8       $SG172046                  00000001004392e8     ctc_lcs.obj
 0003:00003300       $SG171980                  0000000100439300     ctc_lcs.obj
 0003:00003344       $SG175487                  0000000100439344     ctc_lcs.obj
 0003:00003348       $SG171982                  0000000100439348     ctc_lcs.obj
 0003:00003358       $SG171995                  0000000100439358     ctc_lcs.obj
 0003:00003368       $SG172058                  0000000100439368     ctc_lcs.obj
 0003:00003380       $SG171994                  0000000100439380     ctc_lcs.obj
 0003:000033e4       $SG175560                  00000001004393e4     ctc_lcs.obj
 0003:000033e8       $SG171996                  00000001004393e8     ctc_lcs.obj
 0003:000033f8       $SG172006                  00000001004393f8     ctc_lcs.obj
 0003:00003408       $SG172061                  0000000100439408     ctc_lcs.obj
 0003:00003420       $SG172005                  0000000100439420     ctc_lcs.obj
 0003:00003484       $SG175616                  0000000100439484     ctc_lcs.obj
 0003:00003488       $SG172007                  0000000100439488     ctc_lcs.obj
 0003:00003498       $SG172018                  0000000100439498     ctc_lcs.obj
 0003:000034a8       $SG172149                  00000001004394a8     ctc_lcs.obj
 0003:000034c0       $SG172017                  00000001004394c0     ctc_lcs.obj
 0003:0000350c       $SG172931                  000000010043950c     ctc_lcs.obj
 0003:00003514       $SG175728                  0000000100439514     ctc_lcs.obj
 0003:0000351c       $SG175741                  000000010043951c     ctc_lcs.obj
 0003:00003520       $SG172019                  0000000100439520     ctc_lcs.obj
 0003:00003530       $SG172022                  0000000100439530     ctc_lcs.obj
 0003:00003540       $SG172028                  0000000100439540     ctc_lcs.obj
 0003:00003590       $SG172029                  0000000100439590     ctc_lcs.obj
 0003:000035a0       $SG172030                  00000001004395a0     ctc_lcs.obj
 0003:000035b0       $SG172033                  00000001004395b0     ctc_lcs.obj
 0003:000035c0       $SG172038                  00000001004395c0     ctc_lcs.obj
 0003:00003620       $SG172039                  0000000100439620     ctc_lcs.obj
 0003:00003630       $SG172040                  0000000100439630     ctc_lcs.obj
 0003:00003640       $SG172041                  0000000100439640     ctc_lcs.obj
 0003:00003650       $SG172045                  0000000100439650     ctc_lcs.obj
 0003:00003660       $SG172048                  0000000100439660     ctc_lcs.obj
 0003:00003670       $SG172049                  0000000100439670     ctc_lcs.obj
 0003:00003680       $SG172050                  0000000100439680     ctc_lcs.obj
 0003:000036c8       $SG172052                  00000001004396c8     ctc_lcs.obj
 0003:000036d8       $SG172053                  00000001004396d8     ctc_lcs.obj
 0003:000036e8       $SG172057                  00000001004396e8     ctc_lcs.obj
 0003:000036f8       $SG172156                  00000001004396f8     ctc_lcs.obj
 0003:00003710       $SG172054                  0000000100439710     ctc_lcs.obj
 0003:00003758       $SG172060                  0000000100439758     ctc_lcs.obj
 0003:00003768       $SG172148                  0000000100439768     ctc_lcs.obj
 0003:00003778       $SG172151                  0000000100439778     ctc_lcs.obj
 0003:00003788       $SG172152                  0000000100439788     ctc_lcs.obj
 0003:00003798       $SG172159                  0000000100439798     ctc_lcs.obj
 0003:000037a8       $SG172163                  00000001004397a8     ctc_lcs.obj
 0003:000037c0       $SG172155                  00000001004397c0     ctc_lcs.obj
 0003:00003808       $SG172157                  0000000100439808     ctc_lcs.obj
 0003:00003818       $SG172160                  0000000100439818     ctc_lcs.obj
 0003:00003828       $SG172166                  0000000100439828     ctc_lcs.obj
 0003:00003840       $SG172165                  0000000100439840     ctc_lcs.obj
 0003:000038a0       $SG172167                  00000001004398a0     ctc_lcs.obj
 0003:000038b0       $SG172169                  00000001004398b0     ctc_lcs.obj
 0003:000038c0       $SG172170                  00000001004398c0     ctc_lcs.obj
 0003:000038d0       $SG172172                  00000001004398d0     ctc_lcs.obj
 0003:000038e8       $SG172173                  00000001004398e8     ctc_lcs.obj
 0003:000038f8       $SG172176                  00000001004398f8     ctc_lcs.obj
 0003:00003910       $SG172174                  0000000100439910     ctc_lcs.obj
 0003:00003958       $SG172177                  0000000100439958     ctc_lcs.obj
 0003:00003968       $SG172181                  0000000100439968     ctc_lcs.obj
 0003:00003978       $SG172185                  0000000100439978     ctc_lcs.obj
 0003:00003990       $SG172178                  0000000100439990     ctc_lcs.obj
 0003:000039d8       $SG172182                  00000001004399d8     ctc_lcs.obj
 0003:000039e8       $SG172184                  00000001004399e8     ctc_lcs.obj
 0003:000039f8       $SG172306                  00000001004399f8     ctc_lcs.obj
 0003:00003a08       $SG172307                  0000000100439a08     ctc_lcs.obj
 0003:00003a20       $SG172309                  0000000100439a20     ctc_lcs.obj
 0003:00003a30       $SG172310                  0000000100439a30     ctc_lcs.obj
 0003:00003a48       $SG172311                  0000000100439a48     ctc_lcs.obj
 0003:00003a58       $SG172313                  0000000100439a58     ctc_lcs.obj
 0003:00003a68       $SG172314                  0000000100439a68     ctc_lcs.obj
 0003:00003a80       $SG172317                  0000000100439a80     ctc_lcs.obj
 0003:00003a90       $SG172318                  0000000100439a90     ctc_lcs.obj
 0003:00003aa8       $SG172320                  0000000100439aa8     ctc_lcs.obj
 0003:00003ab8       $SG172321                  0000000100439ab8     ctc_lcs.obj
 0003:00003ad0       $SG172322                  0000000100439ad0     ctc_lcs.obj
 0003:00003ae0       $SG172324                  0000000100439ae0     ctc_lcs.obj
 0003:00003af0       $SG172325                  0000000100439af0     ctc_lcs.obj
 0003:00003b08       $SG172327                  0000000100439b08     ctc_lcs.obj
 0003:00003b18       $SG172328                  0000000100439b18     ctc_lcs.obj
 0003:00003b30       $SG172329                  0000000100439b30     ctc_lcs.obj
 0003:00003b40       $SG172331                  0000000100439b40     ctc_lcs.obj
 0003:00003b50       $SG172332                  0000000100439b50     ctc_lcs.obj
 0003:00003b68       $SG172333                  0000000100439b68     ctc_lcs.obj
 0003:00003b78       $SG172335                  0000000100439b78     ctc_lcs.obj
 0003:00003b88       $SG172336                  0000000100439b88     ctc_lcs.obj
 0003:00003ba0       $SG172338                  0000000100439ba0     ctc_lcs.obj
 0003:00003bb0       $SG172339                  0000000100439bb0     ctc_lcs.obj
 0003:00003bc8       $SG172340                  0000000100439bc8     ctc_lcs.obj
 0003:00003bd8       $SG172342                  0000000100439bd8     ctc_lcs.obj
 0003:00003be8       $SG172343                  0000000100439be8     ctc_lcs.obj
 0003:00003c00       $SG172344                  0000000100439c00     ctc_lcs.obj
 0003:00003c10       $SG172351                  0000000100439c10     ctc_lcs.obj
 0003:00003c20       $SG172353                  0000000100439c20     ctc_lcs.obj
 0003:00003c30       $SG172354                  0000000100439c30     ctc_lcs.obj
 0003:00003c40       $SG172500                  0000000100439c40     ctc_lcs.obj
 0003:00003c50       $SG172501                  0000000100439c50     ctc_lcs.obj
 0003:00003c68       $SG172503                  0000000100439c68     ctc_lcs.obj
 0003:00003c78       $SG172504                  0000000100439c78     ctc_lcs.obj
 0003:00003c90       $SG172505                  0000000100439c90     ctc_lcs.obj
 0003:00003ca0       $SG172507                  0000000100439ca0     ctc_lcs.obj
 0003:00003cb0       $SG172508                  0000000100439cb0     ctc_lcs.obj
 0003:00003cc8       $SG172512                  0000000100439cc8     ctc_lcs.obj
 0003:00003cd8       $SG172513                  0000000100439cd8     ctc_lcs.obj
 0003:00003cf0       $SG172514                  0000000100439cf0     ctc_lcs.obj
 0003:00003d00       $SG172516                  0000000100439d00     ctc_lcs.obj
 0003:00003d10       $SG172517                  0000000100439d10     ctc_lcs.obj
 0003:00003d28       $SG172518                  0000000100439d28     ctc_lcs.obj
 0003:00003d38       $SG172520                  0000000100439d38     ctc_lcs.obj
 0003:00003d48       $SG172521                  0000000100439d48     ctc_lcs.obj
 0003:00003d60       $SG172523                  0000000100439d60     ctc_lcs.obj
 0003:00003d70       $SG172524                  0000000100439d70     ctc_lcs.obj
 0003:00003d88       $SG172525                  0000000100439d88     ctc_lcs.obj
 0003:00003d98       $SG172527                  0000000100439d98     ctc_lcs.obj
 0003:00003da8       $SG172528                  0000000100439da8     ctc_lcs.obj
 0003:00003dc0       $SG172531                  0000000100439dc0     ctc_lcs.obj
 0003:00003dd0       $SG172532                  0000000100439dd0     ctc_lcs.obj
 0003:00003de8       $SG172536                  0000000100439de8     ctc_lcs.obj
 0003:00003e20       $SG172537                  0000000100439e20     ctc_lcs.obj
 0003:00003e30       $SG172538                  0000000100439e30     ctc_lcs.obj
 0003:00003e40       $SG172539                  0000000100439e40     ctc_lcs.obj
 0003:00003e50       $SG172540                  0000000100439e50     ctc_lcs.obj
 0003:00003e60       $SG172542                  0000000100439e60     ctc_lcs.obj
 0003:00003e70       $SG172543                  0000000100439e70     ctc_lcs.obj
 0003:00003e88       $SG172559                  0000000100439e88     ctc_lcs.obj
 0003:00003e98       $SG172560                  0000000100439e98     ctc_lcs.obj
 0003:00003eb0       $SG172548                  0000000100439eb0     ctc_lcs.obj
 0003:00003ef0       $SG172549                  0000000100439ef0     ctc_lcs.obj
 0003:00003f00       $SG172550                  0000000100439f00     ctc_lcs.obj
 0003:00003f10       $SG172554                  0000000100439f10     ctc_lcs.obj
 0003:00003f70       $SG172555                  0000000100439f70     ctc_lcs.obj
 0003:00003f80       $SG172556                  0000000100439f80     ctc_lcs.obj
 0003:00003f90       $SG172562                  0000000100439f90     ctc_lcs.obj
 0003:00003fa0       $SG172563                  0000000100439fa0     ctc_lcs.obj
 0003:00003fb8       $SG172564                  0000000100439fb8     ctc_lcs.obj
 0003:00003fc8       $SG172566                  0000000100439fc8     ctc_lcs.obj
 0003:00003fd8       $SG172567                  0000000100439fd8     ctc_lcs.obj
 0003:00003fec       $SG172591                  0000000100439fec     ctc_lcs.obj
 0003:00003ff4       $SG172594                  0000000100439ff4     ctc_lcs.obj
 0003:00003ffc       $SG172600                  0000000100439ffc     ctc_lcs.obj
 0003:00004008       $SG172604                  000000010043a008     ctc_lcs.obj
 0003:00004010       $SG172611                  000000010043a010     ctc_lcs.obj
 0003:00004018       $SG172614                  000000010043a018     ctc_lcs.obj
 0003:00004020       $SG172620                  000000010043a020     ctc_lcs.obj
 0003:00004028       $SG172624                  000000010043a028     ctc_lcs.obj
 0003:00004030       $SG172629                  000000010043a030     ctc_lcs.obj
 0003:00004038       $SG172644                  000000010043a038     ctc_lcs.obj
 0003:00004048       $SG172646                  000000010043a048     ctc_lcs.obj
 0003:00004078       $SG172647                  000000010043a078     ctc_lcs.obj
 0003:00004088       $SG172648                  000000010043a088     ctc_lcs.obj
 0003:00004098       $SG172650                  000000010043a098     ctc_lcs.obj
 0003:000040a8       $SG172652                  000000010043a0a8     ctc_lcs.obj
 0003:000040e0       $SG172653                  000000010043a0e0     ctc_lcs.obj
 0003:000040f0       $SG172654                  000000010043a0f0     ctc_lcs.obj
 0003:00004100       $SG172656                  000000010043a100     ctc_lcs.obj
 0003:00004150       $SG172657                  000000010043a150     ctc_lcs.obj
 0003:00004160       $SG172658                  000000010043a160     ctc_lcs.obj
 0003:00004170       $SG172662                  000000010043a170     ctc_lcs.obj
 0003:000041c8       $SG172663                  000000010043a1c8     ctc_lcs.obj
 0003:000041d8       $SG172664                  000000010043a1d8     ctc_lcs.obj
 0003:000041e8       $SG172665                  000000010043a1e8     ctc_lcs.obj
 0003:00004210       ?options@?3??ParseArgs@@9@9 000000010043a210     ctc_lcs.obj
 0003:00004370       $SG172726                  000000010043a370     ctc_lcs.obj
 0003:00004388       $SG172735                  000000010043a388     ctc_lcs.obj
 0003:00004398       $SG172737                  000000010043a398     ctc_lcs.obj
 0003:000043d0       $SG172738                  000000010043a3d0     ctc_lcs.obj
 0003:000043e0       $SG172739                  000000010043a3e0     ctc_lcs.obj
 0003:000043f0       $SG172742                  000000010043a3f0     ctc_lcs.obj
 0003:00004400       $SG172744                  000000010043a400     ctc_lcs.obj
 0003:00004438       $SG172745                  000000010043a438     ctc_lcs.obj
 0003:00004448       $SG172746                  000000010043a448     ctc_lcs.obj
 0003:00004458       $SG172750                  000000010043a458     ctc_lcs.obj
 0003:00004468       $SG172752                  000000010043a468     ctc_lcs.obj
 0003:000044a0       $SG172753                  000000010043a4a0     ctc_lcs.obj
 0003:000044b0       $SG172754                  000000010043a4b0     ctc_lcs.obj
 0003:000044c0       $SG172759                  000000010043a4c0     ctc_lcs.obj
 0003:000044d8       $SG172761                  000000010043a4d8     ctc_lcs.obj
 0003:00004510       $SG172762                  000000010043a510     ctc_lcs.obj
 0003:00004520       $SG172763                  000000010043a520     ctc_lcs.obj
 0003:00004530       $SG172767                  000000010043a530     ctc_lcs.obj
 0003:00004548       $SG172769                  000000010043a548     ctc_lcs.obj
 0003:00004580       $SG172770                  000000010043a580     ctc_lcs.obj
 0003:00004590       $SG172771                  000000010043a590     ctc_lcs.obj
 0003:000045a0       $SG172776                  000000010043a5a0     ctc_lcs.obj
 0003:000045b8       $SG172778                  000000010043a5b8     ctc_lcs.obj
 0003:000045f0       $SG172779                  000000010043a5f0     ctc_lcs.obj
 0003:00004600       $SG172780                  000000010043a600     ctc_lcs.obj
 0003:00004610       $SG172784                  000000010043a610     ctc_lcs.obj
 0003:00004628       $SG172786                  000000010043a628     ctc_lcs.obj
 0003:00004660       $SG172787                  000000010043a660     ctc_lcs.obj
 0003:00004670       $SG172788                  000000010043a670     ctc_lcs.obj
 0003:00004680       $SG172794                  000000010043a680     ctc_lcs.obj
 0003:000046b8       $SG172795                  000000010043a6b8     ctc_lcs.obj
 0003:000046c8       $SG172796                  000000010043a6c8     ctc_lcs.obj
 0003:000046d8       $SG172801                  000000010043a6d8     ctc_lcs.obj
 0003:000046e8       $SG172803                  000000010043a6e8     ctc_lcs.obj
 0003:00004720       $SG172804                  000000010043a720     ctc_lcs.obj
 0003:00004730       $SG172805                  000000010043a730     ctc_lcs.obj
 0003:00004740       $SG172807                  000000010043a740     ctc_lcs.obj
 0003:00004750       $SG172809                  000000010043a750     ctc_lcs.obj
 0003:00004788       $SG172810                  000000010043a788     ctc_lcs.obj
 0003:00004798       $SG172811                  000000010043a798     ctc_lcs.obj
 0003:000047a8       $SG172883                  000000010043a7a8     ctc_lcs.obj
 0003:000047c0       $SG172885                  000000010043a7c0     ctc_lcs.obj
 0003:000047f0       $SG172886                  000000010043a7f0     ctc_lcs.obj
 0003:00004800       $SG172887                  000000010043a800     ctc_lcs.obj
 0003:00004810       $SG172892                  000000010043a810     ctc_lcs.obj
 0003:00004818       $SG172893                  000000010043a818     ctc_lcs.obj
 0003:00004820       $SG172894                  000000010043a820     ctc_lcs.obj
 0003:00004828       $SG172895                  000000010043a828     ctc_lcs.obj
 0003:00004830       $SG172908                  000000010043a830     ctc_lcs.obj
 0003:00004868       $SG172909                  000000010043a868     ctc_lcs.obj
 0003:00004878       $SG172910                  000000010043a878     ctc_lcs.obj
 0003:00004888       $SG172916                  000000010043a888     ctc_lcs.obj
 0003:000048c8       $SG172917                  000000010043a8c8     ctc_lcs.obj
 0003:000048d8       $SG172918                  000000010043a8d8     ctc_lcs.obj
 0003:000048e8       $SG172927                  000000010043a8e8     ctc_lcs.obj
 0003:00004920       $SG172928                  000000010043a920     ctc_lcs.obj
 0003:00004930       $SG172929                  000000010043a930     ctc_lcs.obj
 0003:00004940       $SG172932                  000000010043a940     ctc_lcs.obj
 0003:00004950       $SG172934                  000000010043a950     ctc_lcs.obj
 0003:00004990       $SG172935                  000000010043a990     ctc_lcs.obj
 0003:000049a0       $SG172936                  000000010043a9a0     ctc_lcs.obj
 0003:000049ac       $SG172938                  000000010043a9ac     ctc_lcs.obj
 0003:000049b8       $SG172939                  000000010043a9b8     ctc_lcs.obj
 0003:000049c0       $SG172941                  000000010043a9c0     ctc_lcs.obj
 0003:00004a00       $SG172942                  000000010043aa00     ctc_lcs.obj
 0003:00004a10       $SG172943                  000000010043aa10     ctc_lcs.obj
 0003:00004a20       $SG172949                  000000010043aa20     ctc_lcs.obj
 0003:00004a68       $SG172950                  000000010043aa68     ctc_lcs.obj
 0003:00004a78       $SG172951                  000000010043aa78     ctc_lcs.obj
 0003:00004a84       $SG172954                  000000010043aa84     ctc_lcs.obj
 0003:00004a90       $SG172955                  000000010043aa90     ctc_lcs.obj
 0003:00004aa0       $SG172957                  000000010043aaa0     ctc_lcs.obj
 0003:00004ad8       $SG172958                  000000010043aad8     ctc_lcs.obj
 0003:00004ae8       $SG172959                  000000010043aae8     ctc_lcs.obj
 0003:00004af8       $SG172965                  000000010043aaf8     ctc_lcs.obj
 0003:00004b38       $SG172966                  000000010043ab38     ctc_lcs.obj
 0003:00004b48       $SG172967                  000000010043ab48     ctc_lcs.obj
 0003:00004b54       $SG172969                  000000010043ab54     ctc_lcs.obj
 0003:00004b60       $SG172970                  000000010043ab60     ctc_lcs.obj
 0003:00004b70       $SG172972                  000000010043ab70     ctc_lcs.obj
 0003:00004ba8       $SG172973                  000000010043aba8     ctc_lcs.obj
 0003:00004bb8       $SG172974                  000000010043abb8     ctc_lcs.obj
 0003:00004bc8       $SG172991                  000000010043abc8     ctc_lcs.obj
 0003:00004bd8       $SG172993                  000000010043abd8     ctc_lcs.obj
 0003:00004c10       $SG172986                  000000010043ac10     ctc_lcs.obj
 0003:00004c58       $SG172987                  000000010043ac58     ctc_lcs.obj
 0003:00004c68       $SG172988                  000000010043ac68     ctc_lcs.obj
 0003:00004c78       $SG172994                  000000010043ac78     ctc_lcs.obj
 0003:00004c88       $SG172995                  000000010043ac88     ctc_lcs.obj
 0003:00004c98       $SG173001                  000000010043ac98     ctc_lcs.obj
 0003:00004cd8       $SG173002                  000000010043acd8     ctc_lcs.obj
 0003:00004ce8       $SG173003                  000000010043ace8     ctc_lcs.obj
 0003:00004cf4       $SG173005                  000000010043acf4     ctc_lcs.obj
 0003:00004d00       $SG173006                  000000010043ad00     ctc_lcs.obj
 0003:00004d10       $SG173008                  000000010043ad10     ctc_lcs.obj
 0003:00004d48       $SG173009                  000000010043ad48     ctc_lcs.obj
 0003:00004d58       $SG173010                  000000010043ad58     ctc_lcs.obj
 0003:00004d68       $SG173017                  000000010043ad68     ctc_lcs.obj
 0003:00004da0       $SG173013                  000000010043ada0     ctc_lcs.obj
 0003:00004df0       $SG173014                  000000010043adf0     ctc_lcs.obj
 0003:00004e00       $SG173015                  000000010043ae00     ctc_lcs.obj
 0003:00004e10       $SG173018                  000000010043ae10     ctc_lcs.obj
 0003:00004e20       $SG173019                  000000010043ae20     ctc_lcs.obj
 0003:00004e30       $SG173044                  000000010043ae30     ctc_lcs.obj
 0003:00004e68       $SG173045                  000000010043ae68     ctc_lcs.obj
 0003:00004e70       $SG173046                  000000010043ae70     ctc_lcs.obj
 0003:00004e80       $SG173057                  000000010043ae80     ctc_lcs.obj
 0003:00004eb8       $SG173058                  000000010043aeb8     ctc_lcs.obj
 0003:00004ec0       $SG173059                  000000010043aec0     ctc_lcs.obj
 0003:00004ed0       $SG173251                  000000010043aed0     ctc_lcs.obj
 0003:00004ee0       $SG173252                  000000010043aee0     ctc_lcs.obj
 0003:00004ef0       $SG173254                  000000010043aef0     ctc_lcs.obj
 0003:00004f00       $SG173255                  000000010043af00     ctc_lcs.obj
 0003:00004f18       $SG173256                  000000010043af18     ctc_lcs.obj
 0003:00004f28       $SG173258                  000000010043af28     ctc_lcs.obj
 0003:00004f38       $SG173259                  000000010043af38     ctc_lcs.obj
 0003:00004f50       $SG173262                  000000010043af50     ctc_lcs.obj
 0003:00004f60       $SG173263                  000000010043af60     ctc_lcs.obj
 0003:00004f78       $SG173266                  000000010043af78     ctc_lcs.obj
 0003:00004f88       $SG173267                  000000010043af88     ctc_lcs.obj
 0003:00004fa0       $SG173269                  000000010043afa0     ctc_lcs.obj
 0003:00004fb0       $SG173270                  000000010043afb0     ctc_lcs.obj
 0003:00004fc8       $SG173271                  000000010043afc8     ctc_lcs.obj
 0003:00004fd8       $SG173273                  000000010043afd8     ctc_lcs.obj
 0003:00004fe8       $SG173274                  000000010043afe8     ctc_lcs.obj
 0003:00005000       $SG173276                  000000010043b000     ctc_lcs.obj
 0003:00005010       $SG173277                  000000010043b010     ctc_lcs.obj
 0003:00005028       $SG173278                  000000010043b028     ctc_lcs.obj
 0003:00005038       $SG173281                  000000010043b038     ctc_lcs.obj
 0003:00005048       $SG173282                  000000010043b048     ctc_lcs.obj
 0003:00005060       $SG173284                  000000010043b060     ctc_lcs.obj
 0003:00005070       $SG173285                  000000010043b070     ctc_lcs.obj
 0003:00005080       $SG173286                  000000010043b080     ctc_lcs.obj
 0003:00005090       $SG173288                  000000010043b090     ctc_lcs.obj
 0003:000050a0       $SG173289                  000000010043b0a0     ctc_lcs.obj
 0003:000050b0       $SG173293                  000000010043b0b0     ctc_lcs.obj
 0003:000050c0       $SG173294                  000000010043b0c0     ctc_lcs.obj
 0003:000050d0       $SG173296                  000000010043b0d0     ctc_lcs.obj
 0003:000050e0       $SG173297                  000000010043b0e0     ctc_lcs.obj
 0003:000050f0       $SG173299                  000000010043b0f0     ctc_lcs.obj
 0003:00005100       $SG173300                  000000010043b100     ctc_lcs.obj
 0003:00005110       $SG173301                  000000010043b110     ctc_lcs.obj
 0003:00005120       $SG173305                  000000010043b120     ctc_lcs.obj
 0003:00005130       $SG173306                  000000010043b130     ctc_lcs.obj
 0003:00005140       $SG173308                  000000010043b140     ctc_lcs.obj
 0003:00005150       $SG173309                  000000010043b150     ctc_lcs.obj
 0003:00005160       $SG173311                  000000010043b160     ctc_lcs.obj
 0003:00005180       $SG173313                  000000010043b180     ctc_lcs.obj
 0003:000051a0       $SG173314                  000000010043b1a0     ctc_lcs.obj
 0003:000051b0       $SG173315                  000000010043b1b0     ctc_lcs.obj
 0003:000051c0       $SG173319                  000000010043b1c0     ctc_lcs.obj
 0003:000051d0       $SG173320                  000000010043b1d0     ctc_lcs.obj
 0003:000051e0       $SG173645                  000000010043b1e0     ctc_lcs.obj
 0003:00005228       $SG173646                  000000010043b228     ctc_lcs.obj
 0003:00005238       $SG173647                  000000010043b238     ctc_lcs.obj
 0003:00005248       $SG173652                  000000010043b248     ctc_lcs.obj
 0003:00005258       $SG173654                  000000010043b258     ctc_lcs.obj
 0003:00005260       $SG173651                  000000010043b260     ctc_lcs.obj
 0003:000052c0       $SG173653                  000000010043b2c0     ctc_lcs.obj
 0003:000052d0       $SG173656                  000000010043b2d0     ctc_lcs.obj
 0003:000052e0       $SG173657                  000000010043b2e0     ctc_lcs.obj
 0003:000052f8       $SG173659                  000000010043b2f8     ctc_lcs.obj
 0003:00005308       $SG173660                  000000010043b308     ctc_lcs.obj
 0003:00005318       $SG173666                  000000010043b318     ctc_lcs.obj
 0003:00005328       $SG173667                  000000010043b328     ctc_lcs.obj
 0003:00005340       $SG173669                  000000010043b340     ctc_lcs.obj
 0003:00005350       $SG173670                  000000010043b350     ctc_lcs.obj
 0003:00005368       $SG173671                  000000010043b368     ctc_lcs.obj
 0003:00005378       $SG173673                  000000010043b378     ctc_lcs.obj
 0003:00005388       $SG173674                  000000010043b388     ctc_lcs.obj
 0003:000053a0       $SG173679                  000000010043b3a0     ctc_lcs.obj
 0003:000053b0       $SG173680                  000000010043b3b0     ctc_lcs.obj
 0003:000053c8       $SG173695                  000000010043b3c8     ctc_lcs.obj
 0003:000053d8       $SG173696                  000000010043b3d8     ctc_lcs.obj
 0003:000053f0       $SG173697                  000000010043b3f0     ctc_lcs.obj
 0003:00005420       $SG173699                  000000010043b420     ctc_lcs.obj
 0003:00005430       $SG173700                  000000010043b430     ctc_lcs.obj
 0003:00005440       $SG173701                  000000010043b440     ctc_lcs.obj
 0003:00005450       $SG173704                  000000010043b450     ctc_lcs.obj
 0003:00005460       $SG173705                  000000010043b460     ctc_lcs.obj
 0003:00005478       $SG173708                  000000010043b478     ctc_lcs.obj
 0003:00005488       $SG173709                  000000010043b488     ctc_lcs.obj
 0003:000054a0       $SG173711                  000000010043b4a0     ctc_lcs.obj
 0003:000054b0       $SG173713                  000000010043b4b0     ctc_lcs.obj
 0003:000054e0       $SG173714                  000000010043b4e0     ctc_lcs.obj
 0003:000054f0       $SG173715                  000000010043b4f0     ctc_lcs.obj
 0003:00005500       $SG173718                  000000010043b500     ctc_lcs.obj
 0003:00005510       $SG173719                  000000010043b510     ctc_lcs.obj
 0003:00005528       $SG173721                  000000010043b528     ctc_lcs.obj
 0003:00005538       $SG173723                  000000010043b538     ctc_lcs.obj
 0003:00005568       $SG173724                  000000010043b568     ctc_lcs.obj
 0003:00005578       $SG173725                  000000010043b578     ctc_lcs.obj
 0003:00005588       $SG173728                  000000010043b588     ctc_lcs.obj
 0003:00005598       $SG173729                  000000010043b598     ctc_lcs.obj
 0003:000055b0       $SG173731                  000000010043b5b0     ctc_lcs.obj
 0003:000055f8       $SG173732                  000000010043b5f8     ctc_lcs.obj
 0003:00005608       $SG173733                  000000010043b608     ctc_lcs.obj
 0003:00005618       $SG173735                  000000010043b618     ctc_lcs.obj
 0003:00005628       $SG173736                  000000010043b628     ctc_lcs.obj
 0003:00005640       $SG173737                  000000010043b640     ctc_lcs.obj
 0003:00005650       $SG173739                  000000010043b650     ctc_lcs.obj
 0003:00005660       $SG173740                  000000010043b660     ctc_lcs.obj
 0003:00005670       $SG173741                  000000010043b670     ctc_lcs.obj
 0003:000056b8       $SG173743                  000000010043b6b8     ctc_lcs.obj
 0003:000056c8       $SG173744                  000000010043b6c8     ctc_lcs.obj
 0003:000056d8       $SG173748                  000000010043b6d8     ctc_lcs.obj
 0003:000056e8       $SG173752                  000000010043b6e8     ctc_lcs.obj
 0003:00005700       $SG173745                  000000010043b700     ctc_lcs.obj
 0003:00005748       $SG173749                  000000010043b748     ctc_lcs.obj
 0003:00005758       $SG173751                  000000010043b758     ctc_lcs.obj
 0003:00005768       $SG173754                  000000010043b768     ctc_lcs.obj
 0003:00005778       $SG173755                  000000010043b778     ctc_lcs.obj
 0003:00005790       $SG173756                  000000010043b790     ctc_lcs.obj
 0003:000057a0       $SG173758                  000000010043b7a0     ctc_lcs.obj
 0003:000057b0       $SG173759                  000000010043b7b0     ctc_lcs.obj
 0003:000057c8       $SG173761                  000000010043b7c8     ctc_lcs.obj
 0003:000057d8       $SG173762                  000000010043b7d8     ctc_lcs.obj
 0003:000057f0       $SG173767                  000000010043b7f0     ctc_lcs.obj
 0003:00005800       $SG173768                  000000010043b800     ctc_lcs.obj
 0003:00005818       $SG173771                  000000010043b818     ctc_lcs.obj
 0003:00005828       $SG173772                  000000010043b828     ctc_lcs.obj
 0003:00005840       $SG173774                  000000010043b840     ctc_lcs.obj
 0003:00005850       $SG173776                  000000010043b850     ctc_lcs.obj
 0003:00005880       $SG173777                  000000010043b880     ctc_lcs.obj
 0003:00005890       $SG173778                  000000010043b890     ctc_lcs.obj
 0003:000058a0       $SG173781                  000000010043b8a0     ctc_lcs.obj
 0003:000058b0       $SG173782                  000000010043b8b0     ctc_lcs.obj
 0003:000058c8       $SG173784                  000000010043b8c8     ctc_lcs.obj
 0003:000058e0       $SG173786                  000000010043b8e0     ctc_lcs.obj
 0003:00005910       $SG173787                  000000010043b910     ctc_lcs.obj
 0003:00005920       $SG173788                  000000010043b920     ctc_lcs.obj
 0003:00005930       $SG173791                  000000010043b930     ctc_lcs.obj
 0003:00005940       $SG173792                  000000010043b940     ctc_lcs.obj
 0003:00005958       $SG173794                  000000010043b958     ctc_lcs.obj
 0003:00005968       $SG173796                  000000010043b968     ctc_lcs.obj
 0003:00005998       $SG173797                  000000010043b998     ctc_lcs.obj
 0003:000059a8       $SG173798                  000000010043b9a8     ctc_lcs.obj
 0003:000059b8       $SG173801                  000000010043b9b8     ctc_lcs.obj
 0003:000059c8       $SG173802                  000000010043b9c8     ctc_lcs.obj
 0003:000059e0       $SG173804                  000000010043b9e0     ctc_lcs.obj
 0003:00005a28       $SG173805                  000000010043ba28     ctc_lcs.obj
 0003:00005a38       $SG173806                  000000010043ba38     ctc_lcs.obj
 0003:00005a48       $SG173808                  000000010043ba48     ctc_lcs.obj
 0003:00005a58       $SG173809                  000000010043ba58     ctc_lcs.obj
 0003:00005a68       $SG173812                  000000010043ba68     ctc_lcs.obj
 0003:00005a78       $SG173817                  000000010043ba78     ctc_lcs.obj
 0003:00005a88       $SG173821                  000000010043ba88     ctc_lcs.obj
 0003:00005aa0       $SG173810                  000000010043baa0     ctc_lcs.obj
 0003:00005ae8       $SG173813                  000000010043bae8     ctc_lcs.obj
 0003:00005af8       $SG173820                  000000010043baf8     ctc_lcs.obj
 0003:00005b08       $SG173825                  000000010043bb08     ctc_lcs.obj
 0003:00005b40       $SG173814                  000000010043bb40     ctc_lcs.obj
 0003:00005b88       $SG173818                  000000010043bb88     ctc_lcs.obj
 0003:00005b98       $SG173826                  000000010043bb98     ctc_lcs.obj
 0003:00005ba8       $SG173827                  000000010043bba8     ctc_lcs.obj
 0003:00005bb8       $SG173829                  000000010043bbb8     ctc_lcs.obj
 0003:00005bc8       $SG173830                  000000010043bbc8     ctc_lcs.obj
 0003:00005bd8       $SG173832                  000000010043bbd8     ctc_lcs.obj
 0003:00005be8       $SG173833                  000000010043bbe8     ctc_lcs.obj
 0003:00005c00       $SG173880                  000000010043bc00     ctc_lcs.obj
 0003:00005c18       $SG173882                  000000010043bc18     ctc_lcs.obj
 0003:00005c28       $SG173883                  000000010043bc28     ctc_lcs.obj
 0003:00005c38       $SG173884                  000000010043bc38     ctc_lcs.obj
 0003:00005c48       $SG173888                  000000010043bc48     ctc_lcs.obj
 0003:00005c78       $SG173890                  000000010043bc78     ctc_lcs.obj
 0003:00005c88       $SG173891                  000000010043bc88     ctc_lcs.obj
 0003:00005c98       $SG173892                  000000010043bc98     ctc_lcs.obj
 0003:00005ca8       $SG173895                  000000010043bca8     ctc_lcs.obj
 0003:00005cb8       $SG173898                  000000010043bcb8     ctc_lcs.obj
 0003:00005cc8       $SG173910                  000000010043bcc8     ctc_lcs.obj
 0003:00005d00       $SG173897                  000000010043bd00     ctc_lcs.obj
 0003:00005d60       $SG173899                  000000010043bd60     ctc_lcs.obj
 0003:00005d70       $SG173903                  000000010043bd70     ctc_lcs.obj
 0003:00005dd0       $SG173904                  000000010043bdd0     ctc_lcs.obj
 0003:00005de0       $SG173905                  000000010043bde0     ctc_lcs.obj
 0003:00005df0       $SG173906                  000000010043bdf0     ctc_lcs.obj
 0003:00005e00       $SG173912                  000000010043be00     ctc_lcs.obj
 0003:00005e10       $SG173913                  000000010043be10     ctc_lcs.obj
 0003:00005e20       $SG173914                  000000010043be20     ctc_lcs.obj
 0003:00005e30       $SG173916                  000000010043be30     ctc_lcs.obj
 0003:00005e40       $SG173917                  000000010043be40     ctc_lcs.obj
 0003:00005e50       $SG173973                  000000010043be50     ctc_lcs.obj
 0003:00005e68       $SG173975                  000000010043be68     ctc_lcs.obj
 0003:00005e78       $SG173976                  000000010043be78     ctc_lcs.obj
 0003:00005e88       $SG173977                  000000010043be88     ctc_lcs.obj
 0003:00005e98       $SG173979                  000000010043be98     ctc_lcs.obj
 0003:00005ea8       $SG173982                  000000010043bea8     ctc_lcs.obj
 0003:00005eb8       $SG173988                  000000010043beb8     ctc_lcs.obj
 0003:00005ec0       $SG173981                  000000010043bec0     ctc_lcs.obj
 0003:00005f20       $SG173983                  000000010043bf20     ctc_lcs.obj
 0003:00005f30       $SG173984                  000000010043bf30     ctc_lcs.obj
 0003:00005f40       $SG173989                  000000010043bf40     ctc_lcs.obj
 0003:00005f70       $SG173991                  000000010043bf70     ctc_lcs.obj
 0003:00005f80       $SG173992                  000000010043bf80     ctc_lcs.obj
 0003:00005f90       $SG173993                  000000010043bf90     ctc_lcs.obj
 0003:00005fa0       $SG173995                  000000010043bfa0     ctc_lcs.obj
 0003:00005fb0       $SG173996                  000000010043bfb0     ctc_lcs.obj
 0003:00005fc0       $SG174049                  000000010043bfc0     ctc_lcs.obj
 0003:00005fd8       $SG174051                  000000010043bfd8     ctc_lcs.obj
 0003:00005fe8       $SG174052                  000000010043bfe8     ctc_lcs.obj
 0003:00005ff8       $SG174053                  000000010043bff8     ctc_lcs.obj
 0003:00006008       $SG174055                  000000010043c008     ctc_lcs.obj
 0003:00006018       $SG174058                  000000010043c018     ctc_lcs.obj
 0003:00006028       $SG174067                  000000010043c028     ctc_lcs.obj
 0003:00006038       $SG174136                  000000010043c038     ctc_lcs.obj
 0003:00006040       $SG174057                  000000010043c040     ctc_lcs.obj
 0003:000060a0       $SG174059                  000000010043c0a0     ctc_lcs.obj
 0003:000060b0       $SG174060                  000000010043c0b0     ctc_lcs.obj
 0003:000060c0       $SG174065                  000000010043c0c0     ctc_lcs.obj
 0003:000060f0       $SG174068                  000000010043c0f0     ctc_lcs.obj
 0003:00006100       $SG174069                  000000010043c100     ctc_lcs.obj
 0003:00006110       $SG174071                  000000010043c110     ctc_lcs.obj
 0003:00006120       $SG174072                  000000010043c120     ctc_lcs.obj
 0003:00006130       $SG174128                  000000010043c130     ctc_lcs.obj
 0003:00006140       $SG174129                  000000010043c140     ctc_lcs.obj
 0003:00006150       $SG174131                  000000010043c150     ctc_lcs.obj
 0003:00006170       $SG174133                  000000010043c170     ctc_lcs.obj
 0003:00006180       $SG174134                  000000010043c180     ctc_lcs.obj
 0003:00006190       $SG174135                  000000010043c190     ctc_lcs.obj
 0003:000061a0       $SG174140                  000000010043c1a0     ctc_lcs.obj
 0003:000061b8       $SG174142                  000000010043c1b8     ctc_lcs.obj
 0003:000061c8       $SG174143                  000000010043c1c8     ctc_lcs.obj
 0003:000061d8       $SG174144                  000000010043c1d8     ctc_lcs.obj
 0003:000061e8       $SG174145                  000000010043c1e8     ctc_lcs.obj
 0003:000061f0       $SG174146                  000000010043c1f0     ctc_lcs.obj
 0003:00006200       $SG174147                  000000010043c200     ctc_lcs.obj
 0003:00006210       $SG174149                  000000010043c210     ctc_lcs.obj
 0003:00006228       $SG174151                  000000010043c228     ctc_lcs.obj
 0003:00006238       $SG174152                  000000010043c238     ctc_lcs.obj
 0003:00006248       $SG174153                  000000010043c248     ctc_lcs.obj
 0003:00006258       $SG174154                  000000010043c258     ctc_lcs.obj
 0003:00006260       $SG174156                  000000010043c260     ctc_lcs.obj
 0003:00006290       $SG174158                  000000010043c290     ctc_lcs.obj
 0003:000062a0       $SG174159                  000000010043c2a0     ctc_lcs.obj
 0003:000062b0       $SG174160                  000000010043c2b0     ctc_lcs.obj
 0003:000062c0       $SG174161                  000000010043c2c0     ctc_lcs.obj
 0003:000062c8       $SG174162                  000000010043c2c8     ctc_lcs.obj
 0003:000062d8       $SG174163                  000000010043c2d8     ctc_lcs.obj
 0003:000062e8       $SG174165                  000000010043c2e8     ctc_lcs.obj
 0003:00006308       $SG174167                  000000010043c308     ctc_lcs.obj
 0003:00006318       $SG174168                  000000010043c318     ctc_lcs.obj
 0003:00006328       $SG174169                  000000010043c328     ctc_lcs.obj
 0003:00006338       $SG174170                  000000010043c338     ctc_lcs.obj
 0003:00006340       $SG174221                  000000010043c340     ctc_lcs.obj
 0003:00006358       $SG174223                  000000010043c358     ctc_lcs.obj
 0003:00006368       $SG174224                  000000010043c368     ctc_lcs.obj
 0003:00006378       $SG174225                  000000010043c378     ctc_lcs.obj
 0003:00006388       $SG174227                  000000010043c388     ctc_lcs.obj
 0003:00006398       $SG174230                  000000010043c398     ctc_lcs.obj
 0003:000063a8       $SG174236                  000000010043c3a8     ctc_lcs.obj
 0003:000063b0       $SG174229                  000000010043c3b0     ctc_lcs.obj
 0003:00006410       $SG174231                  000000010043c410     ctc_lcs.obj
 0003:00006420       $SG174232                  000000010043c420     ctc_lcs.obj
 0003:00006430       $SG174237                  000000010043c430     ctc_lcs.obj
 0003:00006460       $SG174239                  000000010043c460     ctc_lcs.obj
 0003:00006470       $SG174240                  000000010043c470     ctc_lcs.obj
 0003:00006480       $SG174241                  000000010043c480     ctc_lcs.obj
 0003:00006490       $SG174243                  000000010043c490     ctc_lcs.obj
 0003:000064a0       $SG174244                  000000010043c4a0     ctc_lcs.obj
 0003:000064b0       $SG174295                  000000010043c4b0     ctc_lcs.obj
 0003:000064c8       $SG174297                  000000010043c4c8     ctc_lcs.obj
 0003:000064d8       $SG174298                  000000010043c4d8     ctc_lcs.obj
 0003:000064e8       $SG174299                  000000010043c4e8     ctc_lcs.obj
 0003:000064f8       $SG174304                  000000010043c4f8     ctc_lcs.obj
 0003:00006508       $SG174307                  000000010043c508     ctc_lcs.obj
 0003:00006518       $SG174322                  000000010043c518     ctc_lcs.obj
 0003:00006528       $SG174380                  000000010043c528     ctc_lcs.obj
 0003:00006540       $SG174306                  000000010043c540     ctc_lcs.obj
 0003:000065a0       $SG174308                  000000010043c5a0     ctc_lcs.obj
 0003:000065b0       $SG174312                  000000010043c5b0     ctc_lcs.obj
 0003:00006610       $SG174313                  000000010043c610     ctc_lcs.obj
 0003:00006620       $SG174314                  000000010043c620     ctc_lcs.obj
 0003:00006630       $SG174315                  000000010043c630     ctc_lcs.obj
 0003:00006640       $SG174320                  000000010043c640     ctc_lcs.obj
 0003:00006670       $SG174323                  000000010043c670     ctc_lcs.obj
 0003:00006680       $SG174324                  000000010043c680     ctc_lcs.obj
 0003:00006690       $SG174326                  000000010043c690     ctc_lcs.obj
 0003:000066a0       $SG174327                  000000010043c6a0     ctc_lcs.obj
 0003:000066b0       $SG174382                  000000010043c6b0     ctc_lcs.obj
 0003:000066c0       $SG174383                  000000010043c6c0     ctc_lcs.obj
 0003:000066d0       $SG174384                  000000010043c6d0     ctc_lcs.obj
 0003:000066e0       $SG174386                  000000010043c6e0     ctc_lcs.obj
 0003:000066f0       $SG174388                  000000010043c6f0     ctc_lcs.obj
 0003:00006750       $SG174389                  000000010043c750     ctc_lcs.obj
 0003:00006760       $SG174390                  000000010043c760     ctc_lcs.obj
 0003:00006770       $SG174391                  000000010043c770     ctc_lcs.obj
 0003:00006780       $SG174396                  000000010043c780     ctc_lcs.obj
 0003:000067b0       $SG174398                  000000010043c7b0     ctc_lcs.obj
 0003:000067c0       $SG174399                  000000010043c7c0     ctc_lcs.obj
 0003:000067d0       $SG174400                  000000010043c7d0     ctc_lcs.obj
 0003:000067e0       $SG174402                  000000010043c7e0     ctc_lcs.obj
 0003:000067f0       $SG174403                  000000010043c7f0     ctc_lcs.obj
 0003:00006800       $SG174449                  000000010043c800     ctc_lcs.obj
 0003:00006818       $SG174451                  000000010043c818     ctc_lcs.obj
 0003:00006828       $SG174452                  000000010043c828     ctc_lcs.obj
 0003:00006838       $SG174453                  000000010043c838     ctc_lcs.obj
 0003:00006848       $SG174684                  000000010043c848     ctc_lcs.obj
 0003:00006858       $SG174685                  000000010043c858     ctc_lcs.obj
 0003:00006870       $SG174686                  000000010043c870     ctc_lcs.obj
 0003:00006880       $SG174688                  000000010043c880     ctc_lcs.obj
 0003:00006890       $SG174689                  000000010043c890     ctc_lcs.obj
 0003:000068a8       $SG174691                  000000010043c8a8     ctc_lcs.obj
 0003:000068b8       $SG174692                  000000010043c8b8     ctc_lcs.obj
 0003:000068d0       $SG174695                  000000010043c8d0     ctc_lcs.obj
 0003:000068e0       $SG174696                  000000010043c8e0     ctc_lcs.obj
 0003:000068f8       $SG174699                  000000010043c8f8     ctc_lcs.obj
 0003:00006910       $SG174700                  000000010043c910     ctc_lcs.obj
 0003:00006920       $SG174701                  000000010043c920     ctc_lcs.obj
 0003:00006968       $SG174703                  000000010043c968     ctc_lcs.obj
 0003:00006980       $SG174704                  000000010043c980     ctc_lcs.obj
 0003:00006990       $SG174705                  000000010043c990     ctc_lcs.obj
 0003:000069d8       $SG174708                  000000010043c9d8     ctc_lcs.obj
 0003:000069e8       $SG174709                  000000010043c9e8     ctc_lcs.obj
 0003:00006a00       $SG174710                  000000010043ca00     ctc_lcs.obj
 0003:00006a10       $SG174812                  000000010043ca10     ctc_lcs.obj
 0003:00006a20       $SG174813                  000000010043ca20     ctc_lcs.obj
 0003:00006a38       $SG174814                  000000010043ca38     ctc_lcs.obj
 0003:00006a48       $SG174816                  000000010043ca48     ctc_lcs.obj
 0003:00006a58       $SG174817                  000000010043ca58     ctc_lcs.obj
 0003:00006a70       $SG174820                  000000010043ca70     ctc_lcs.obj
 0003:00006a80       $SG174821                  000000010043ca80     ctc_lcs.obj
 0003:00006a90       $SG174822                  000000010043ca90     ctc_lcs.obj
 0003:00006ad8       $SG174824                  000000010043cad8     ctc_lcs.obj
 0003:00006ae8       $SG174825                  000000010043cae8     ctc_lcs.obj
 0003:00006af8       $SG174829                  000000010043caf8     ctc_lcs.obj
 0003:00006b08       $SG174830                  000000010043cb08     ctc_lcs.obj
 0003:00006b20       $SG174826                  000000010043cb20     ctc_lcs.obj
 0003:00006b68       $SG174831                  000000010043cb68     ctc_lcs.obj
 0003:00006b78       $SG174833                  000000010043cb78     ctc_lcs.obj
 0003:00006b88       $SG174834                  000000010043cb88     ctc_lcs.obj
 0003:00006ba0       $SG174835                  000000010043cba0     ctc_lcs.obj
 0003:00006bb0       $SG174837                  000000010043cbb0     ctc_lcs.obj
 0003:00006bc0       $SG174838                  000000010043cbc0     ctc_lcs.obj
 0003:00006bd8       $SG174840                  000000010043cbd8     ctc_lcs.obj
 0003:00006be8       $SG174841                  000000010043cbe8     ctc_lcs.obj
 0003:00006c00       $SG174842                  000000010043cc00     ctc_lcs.obj
 0003:00006c10       $SG175103                  000000010043cc10     ctc_lcs.obj
 0003:00006c50       $SG175105                  000000010043cc50     ctc_lcs.obj
 0003:00006c60       $SG175106                  000000010043cc60     ctc_lcs.obj
 0003:00006c78       $SG175107                  000000010043cc78     ctc_lcs.obj
 0003:00006c88       $SG175109                  000000010043cc88     ctc_lcs.obj
 0003:00006ca0       $SG175111                  000000010043cca0     ctc_lcs.obj
 0003:00006cb0       $SG175112                  000000010043ccb0     ctc_lcs.obj
 0003:00006cc8       $SG175113                  000000010043ccc8     ctc_lcs.obj
 0003:00006cd8       $SG175115                  000000010043ccd8     ctc_lcs.obj
 0003:00006ce8       $SG175116                  000000010043cce8     ctc_lcs.obj
 0003:00006d00       $SG175117                  000000010043cd00     ctc_lcs.obj
 0003:00006d10       $SG175119                  000000010043cd10     ctc_lcs.obj
 0003:00006d20       $SG175120                  000000010043cd20     ctc_lcs.obj
 0003:00006d38       $SG175124                  000000010043cd38     ctc_lcs.obj
 0003:00006d48       $SG175127                  000000010043cd48     ctc_lcs.obj
 0003:00006d60       $SG175126                  000000010043cd60     ctc_lcs.obj
 0003:00006dc0       $SG175128                  000000010043cdc0     ctc_lcs.obj
 0003:00006dd0       $SG175129                  000000010043cdd0     ctc_lcs.obj
 0003:00006de0       $SG175133                  000000010043cde0     ctc_lcs.obj
 0003:00006df0       $SG175134                  000000010043cdf0     ctc_lcs.obj
 0003:00006e30       $SG175136                  000000010043ce30     ctc_lcs.obj
 0003:00006e40       $SG175137                  000000010043ce40     ctc_lcs.obj
 0003:00006e58       $SG175138                  000000010043ce58     ctc_lcs.obj
 0003:00006e68       $SG175140                  000000010043ce68     ctc_lcs.obj
 0003:00006e78       $SG175141                  000000010043ce78     ctc_lcs.obj
 0003:00006e88       $SG175143                  000000010043ce88     ctc_lcs.obj
 0003:00006e98       $SG175144                  000000010043ce98     ctc_lcs.obj
 0003:00006eb0       $SG175145                  000000010043ceb0     ctc_lcs.obj
 0003:00006ec0       $SG175149                  000000010043cec0     ctc_lcs.obj
 0003:00006ed0       $SG175150                  000000010043ced0     ctc_lcs.obj
 0003:00006f10       $SG175152                  000000010043cf10     ctc_lcs.obj
 0003:00006f20       $SG175153                  000000010043cf20     ctc_lcs.obj
 0003:00006f38       $SG175154                  000000010043cf38     ctc_lcs.obj
 0003:00006f48       $SG175156                  000000010043cf48     ctc_lcs.obj
 0003:00006f60       $SG175158                  000000010043cf60     ctc_lcs.obj
 0003:00006f70       $SG175159                  000000010043cf70     ctc_lcs.obj
 0003:00006f88       $SG175160                  000000010043cf88     ctc_lcs.obj
 0003:00006f98       $SG175164                  000000010043cf98     ctc_lcs.obj
 0003:00006fa8       $SG175167                  000000010043cfa8     ctc_lcs.obj
 0003:00006fc0       $SG175166                  000000010043cfc0     ctc_lcs.obj
 0003:00007020       $SG175168                  000000010043d020     ctc_lcs.obj
 0003:00007030       $SG175169                  000000010043d030     ctc_lcs.obj
 0003:00007040       $SG175173                  000000010043d040     ctc_lcs.obj
 0003:00007050       $SG175174                  000000010043d050     ctc_lcs.obj
 0003:00007090       $SG175176                  000000010043d090     ctc_lcs.obj
 0003:000070a0       $SG175177                  000000010043d0a0     ctc_lcs.obj
 0003:000070b8       $SG175178                  000000010043d0b8     ctc_lcs.obj
 0003:000070c8       $SG175180                  000000010043d0c8     ctc_lcs.obj
 0003:000070d8       $SG175181                  000000010043d0d8     ctc_lcs.obj
 0003:000070e8       $SG175184                  000000010043d0e8     ctc_lcs.obj
 0003:00007100       $SG175185                  000000010043d100     ctc_lcs.obj
 0003:00007140       $SG175187                  000000010043d140     ctc_lcs.obj
 0003:00007150       $SG175188                  000000010043d150     ctc_lcs.obj
 0003:00007168       $SG175189                  000000010043d168     ctc_lcs.obj
 0003:00007178       $SG175195                  000000010043d178     ctc_lcs.obj
 0003:00007188       $SG175196                  000000010043d188     ctc_lcs.obj
 0003:000071a0       $SG175193                  000000010043d1a0     ctc_lcs.obj
 0003:000071e0       $SG175197                  000000010043d1e0     ctc_lcs.obj
 0003:000071f0       $SG175203                  000000010043d1f0     ctc_lcs.obj
 0003:00007220       $SG175205                  000000010043d220     ctc_lcs.obj
 0003:00007230       $SG175206                  000000010043d230     ctc_lcs.obj
 0003:00007248       $SG175207                  000000010043d248     ctc_lcs.obj
 0003:00007254       $SG175210                  000000010043d254     ctc_lcs.obj
 0003:00007260       $SG175211                  000000010043d260     ctc_lcs.obj
 0003:00007290       $SG175213                  000000010043d290     ctc_lcs.obj
 0003:000072a0       $SG175214                  000000010043d2a0     ctc_lcs.obj
 0003:000072b8       $SG175215                  000000010043d2b8     ctc_lcs.obj
 0003:000072c8       $SG175217                  000000010043d2c8     ctc_lcs.obj
 0003:000072e0       $SG175219                  000000010043d2e0     ctc_lcs.obj
 0003:000072f0       $SG175220                  000000010043d2f0     ctc_lcs.obj
 0003:00007308       $SG175221                  000000010043d308     ctc_lcs.obj
 0003:00007318       $SG175225                  000000010043d318     ctc_lcs.obj
 0003:00007348       $SG175227                  000000010043d348     ctc_lcs.obj
 0003:00007358       $SG175228                  000000010043d358     ctc_lcs.obj
 0003:00007370       $SG175229                  000000010043d370     ctc_lcs.obj
 0003:00007380       $SG175231                  000000010043d380     ctc_lcs.obj
 0003:00007398       $SG175233                  000000010043d398     ctc_lcs.obj
 0003:000073a8       $SG175234                  000000010043d3a8     ctc_lcs.obj
 0003:000073c0       $SG175235                  000000010043d3c0     ctc_lcs.obj
 0003:000073cc       $SG175238                  000000010043d3cc     ctc_lcs.obj
 0003:000073d8       $SG175239                  000000010043d3d8     ctc_lcs.obj
 0003:00007408       $SG175241                  000000010043d408     ctc_lcs.obj
 0003:00007418       $SG175242                  000000010043d418     ctc_lcs.obj
 0003:00007430       $SG175243                  000000010043d430     ctc_lcs.obj
 0003:00007440       $SG175245                  000000010043d440     ctc_lcs.obj
 0003:00007458       $SG175247                  000000010043d458     ctc_lcs.obj
 0003:00007468       $SG175248                  000000010043d468     ctc_lcs.obj
 0003:00007480       $SG175249                  000000010043d480     ctc_lcs.obj
 0003:0000748c       $SG175252                  000000010043d48c     ctc_lcs.obj
 0003:00007498       $SG175253                  000000010043d498     ctc_lcs.obj
 0003:000074c8       $SG175255                  000000010043d4c8     ctc_lcs.obj
 0003:000074d8       $SG175256                  000000010043d4d8     ctc_lcs.obj
 0003:000074f0       $SG175257                  000000010043d4f0     ctc_lcs.obj
 0003:00007500       $SG175258                  000000010043d500     ctc_lcs.obj
 0003:00007540       $SG175260                  000000010043d540     ctc_lcs.obj
 0003:00007550       $SG175261                  000000010043d550     ctc_lcs.obj
 0003:00007568       $SG175262                  000000010043d568     ctc_lcs.obj
 0003:00007578       $SG175266                  000000010043d578     ctc_lcs.obj
 0003:000075a8       $SG175268                  000000010043d5a8     ctc_lcs.obj
 0003:000075b8       $SG175269                  000000010043d5b8     ctc_lcs.obj
 0003:000075d0       $SG175270                  000000010043d5d0     ctc_lcs.obj
 0003:000075e0       $SG175274                  000000010043d5e0     ctc_lcs.obj
 0003:000075f8       $SG175276                  000000010043d5f8     ctc_lcs.obj
 0003:00007608       $SG175277                  000000010043d608     ctc_lcs.obj
 0003:00007620       $SG175278                  000000010043d620     ctc_lcs.obj
 0003:00007630       $SG175282                  000000010043d630     ctc_lcs.obj
 0003:00007648       $SG175284                  000000010043d648     ctc_lcs.obj
 0003:00007658       $SG175285                  000000010043d658     ctc_lcs.obj
 0003:00007670       $SG175286                  000000010043d670     ctc_lcs.obj
 0003:00007680       $SG175288                  000000010043d680     ctc_lcs.obj
 0003:00007698       $SG175290                  000000010043d698     ctc_lcs.obj
 0003:000076a8       $SG175291                  000000010043d6a8     ctc_lcs.obj
 0003:000076c0       $SG175292                  000000010043d6c0     ctc_lcs.obj
 0003:000076d0       $SG175293                  000000010043d6d0     ctc_lcs.obj
 0003:000076d8       $SG175297                  000000010043d6d8     ctc_lcs.obj
 0003:000076f0       $SG175299                  000000010043d6f0     ctc_lcs.obj
 0003:00007700       $SG175300                  000000010043d700     ctc_lcs.obj
 0003:00007718       $SG175301                  000000010043d718     ctc_lcs.obj
 0003:00007728       $SG175302                  000000010043d728     ctc_lcs.obj
 0003:00007730       $SG175304                  000000010043d730     ctc_lcs.obj
 0003:00007770       $SG175306                  000000010043d770     ctc_lcs.obj
 0003:00007780       $SG175307                  000000010043d780     ctc_lcs.obj
 0003:00007798       $SG175308                  000000010043d798     ctc_lcs.obj
 0003:000077a8       $SG175309                  000000010043d7a8     ctc_lcs.obj
 0003:000077b0       $SG175316                  000000010043d7b0     ctc_lcs.obj
 0003:000077b8       $SG175317                  000000010043d7b8     ctc_lcs.obj
 0003:000077e8       $SG175319                  000000010043d7e8     ctc_lcs.obj
 0003:000077f8       $SG175320                  000000010043d7f8     ctc_lcs.obj
 0003:00007810       $SG175321                  000000010043d810     ctc_lcs.obj
 0003:00007820       $SG175325                  000000010043d820     ctc_lcs.obj
 0003:00007838       $SG175327                  000000010043d838     ctc_lcs.obj
 0003:00007848       $SG175328                  000000010043d848     ctc_lcs.obj
 0003:00007860       $SG175329                  000000010043d860     ctc_lcs.obj
 0003:00007870       $SG175331                  000000010043d870     ctc_lcs.obj
 0003:00007880       $SG175333                  000000010043d880     ctc_lcs.obj
 0003:000078e0       $SG175334                  000000010043d8e0     ctc_lcs.obj
 0003:000078f8       $SG175335                  000000010043d8f8     ctc_lcs.obj
 0003:00007908       $SG175336                  000000010043d908     ctc_lcs.obj
 0003:00007914       $SG175340                  000000010043d914     ctc_lcs.obj
 0003:00007920       $SG175341                  000000010043d920     ctc_lcs.obj
 0003:00007950       $SG175343                  000000010043d950     ctc_lcs.obj
 0003:00007960       $SG175344                  000000010043d960     ctc_lcs.obj
 0003:00007978       $SG175345                  000000010043d978     ctc_lcs.obj
 0003:00007988       $SG175347                  000000010043d988     ctc_lcs.obj
 0003:00007998       $SG175348                  000000010043d998     ctc_lcs.obj
 0003:000079a8       $SG175354                  000000010043d9a8     ctc_lcs.obj
 0003:000079b8       $SG175355                  000000010043d9b8     ctc_lcs.obj
 0003:000079c8       $SG175356                  000000010043d9c8     ctc_lcs.obj
 0003:000079d8       $SG175358                  000000010043d9d8     ctc_lcs.obj
 0003:000079e8       $SG175359                  000000010043d9e8     ctc_lcs.obj
 0003:000079f8       $SG175361                  000000010043d9f8     ctc_lcs.obj
 0003:00007a08       $SG175362                  000000010043da08     ctc_lcs.obj
 0003:00007a18       $SG175364                  000000010043da18     ctc_lcs.obj
 0003:00007a28       $SG175365                  000000010043da28     ctc_lcs.obj
 0003:00007a38       $SG175366                  000000010043da38     ctc_lcs.obj
 0003:00007a48       $SG175368                  000000010043da48     ctc_lcs.obj
 0003:00007a58       $SG175369                  000000010043da58     ctc_lcs.obj
 0003:00007a70       $SG175370                  000000010043da70     ctc_lcs.obj
 0003:00007a80       $SG175372                  000000010043da80     ctc_lcs.obj
 0003:00007a90       $SG175373                  000000010043da90     ctc_lcs.obj
 0003:00007aa8       $SG175375                  000000010043daa8     ctc_lcs.obj
 0003:00007ab8       $SG175376                  000000010043dab8     ctc_lcs.obj
 0003:00007ac8       $SG175377                  000000010043dac8     ctc_lcs.obj
 0003:00007ad8       $SG175379                  000000010043dad8     ctc_lcs.obj
 0003:00007ae8       $SG175380                  000000010043dae8     ctc_lcs.obj
 0003:00007b00       $SG175381                  000000010043db00     ctc_lcs.obj
 0003:00007b10       $SG175384                  000000010043db10     ctc_lcs.obj
 0003:00007b60       $SG175385                  000000010043db60     ctc_lcs.obj
 0003:00007b78       $SG175386                  000000010043db78     ctc_lcs.obj
 0003:00007b88       $SG175457                  000000010043db88     ctc_lcs.obj
 0003:00007b98       $SG175458                  000000010043db98     ctc_lcs.obj
 0003:00007bb0       $SG175482                  000000010043dbb0     ctc_lcs.obj
 0003:00007bf0       $SG175483                  000000010043dbf0     ctc_lcs.obj
 0003:00007c00       $SG175484                  000000010043dc00     ctc_lcs.obj
 0003:00007c10       $SG175488                  000000010043dc10     ctc_lcs.obj
 0003:00007c70       $SG175489                  000000010043dc70     ctc_lcs.obj
 0003:00007c80       $SG175490                  000000010043dc80     ctc_lcs.obj
 0003:00007c8c       $SG175491                  000000010043dc8c     ctc_lcs.obj
 0003:00007c98       $SG175493                  000000010043dc98     ctc_lcs.obj
 0003:00007ca8       $SG175494                  000000010043dca8     ctc_lcs.obj
 0003:00007cc0       $SG175496                  000000010043dcc0     ctc_lcs.obj
 0003:00007cd0       $SG175497                  000000010043dcd0     ctc_lcs.obj
 0003:00007ce8       $SG175559                  000000010043dce8     ctc_lcs.obj
 0003:00007cf8       $SG175561                  000000010043dcf8     ctc_lcs.obj
 0003:00007d30       $SG175562                  000000010043dd30     ctc_lcs.obj
 0003:00007d48       $SG175563                  000000010043dd48     ctc_lcs.obj
 0003:00007d58       $SG175571                  000000010043dd58     ctc_lcs.obj
 0003:00007d68       $SG175574                  000000010043dd68     ctc_lcs.obj
 0003:00007d78       $SG175581                  000000010043dd78     ctc_lcs.obj
 0003:00007d88       $SG175584                  000000010043dd88     ctc_lcs.obj
 0003:00007d98       $SG175594                  000000010043dd98     ctc_lcs.obj
 0003:00007da8       $SG175595                  000000010043dda8     ctc_lcs.obj
 0003:00007db8       $SG175615                  000000010043ddb8     ctc_lcs.obj
 0003:00007dc8       $SG175617                  000000010043ddc8     ctc_lcs.obj
 0003:00007e00       $SG175618                  000000010043de00     ctc_lcs.obj
 0003:00007e18       $SG175619                  000000010043de18     ctc_lcs.obj
 0003:00007e28       $SG175627                  000000010043de28     ctc_lcs.obj
 0003:00007e38       $SG175628                  000000010043de38     ctc_lcs.obj
 0003:00007e48       $SG175672                  000000010043de48     ctc_lcs.obj
 0003:00007e58       $SG175674                  000000010043de58     ctc_lcs.obj
 0003:00007e68       $SG175682                  000000010043de68     ctc_lcs.obj
 0003:00007e78       $SG175683                  000000010043de78     ctc_lcs.obj
 0003:00007e88       $SG175724                  000000010043de88     ctc_lcs.obj
 0003:00007e98       $SG175725                  000000010043de98     ctc_lcs.obj
 0003:00007ea8       $SG175727                  000000010043dea8     ctc_lcs.obj
 0003:00007eb8       $SG175735                  000000010043deb8     ctc_lcs.obj
 0003:00007ed0       $SG175736                  000000010043ded0     ctc_lcs.obj
 0003:00007ee4       $SG175742                  000000010043dee4     ctc_lcs.obj
 0003:00007eec       $SG175743                  000000010043deec     ctc_lcs.obj
 0003:00007ef4       $SG175744                  000000010043def4     ctc_lcs.obj
 0003:00007fc8       $SG169648                  000000010043dfc8     ctc_ctci.obj
 0003:00007fcc       $SG169651                  000000010043dfcc     ctc_ctci.obj
 0003:00007fd0       CTCI_Immed_Commands        000000010043dfd0     ctc_ctci.obj
 0003:000080d0       $SG169649                  000000010043e0d0     ctc_ctci.obj
 0003:000080d8       $SG169650                  000000010043e0d8     ctc_ctci.obj
 0003:000080e0       $SG169652                  000000010043e0e0     ctc_ctci.obj
 0003:000080e8       $SG169653                  000000010043e0e8     ctc_ctci.obj
 0003:000080f0       $SG169654                  000000010043e0f0     ctc_ctci.obj
 0003:000080f8       $SG169113                  000000010043e0f8     ctc_ctci.obj
 0003:00008104       $SG169114                  000000010043e104     ctc_ctci.obj
 0003:0000810c       $SG169115                  000000010043e10c     ctc_ctci.obj
 0003:00008110       $SG169116                  000000010043e110     ctc_ctci.obj
 0003:00008144       $SG169125                  000000010043e144     ctc_ctci.obj
 0003:00008148       $SG169117                  000000010043e148     ctc_ctci.obj
 0003:00008154       $SG169126                  000000010043e154     ctc_ctci.obj
 0003:00008158       $SG169118                  000000010043e158     ctc_ctci.obj
 0003:00008164       $SG169133                  000000010043e164     ctc_ctci.obj
 0003:00008168       $SG169119                  000000010043e168     ctc_ctci.obj
 0003:00008178       $SG169120                  000000010043e178     ctc_ctci.obj
 0003:0000818c       $SG169139                  000000010043e18c     ctc_ctci.obj
 0003:00008190       $SG169121                  000000010043e190     ctc_ctci.obj
 0003:000081a0       $SG169122                  000000010043e1a0     ctc_ctci.obj
 0003:000081b8       $SG169123                  000000010043e1b8     ctc_ctci.obj
 0003:000081c8       $SG169127                  000000010043e1c8     ctc_ctci.obj
 0003:00008200       $SG169128                  000000010043e200     ctc_ctci.obj
 0003:0000820c       $SG169206                  000000010043e20c     ctc_ctci.obj
 0003:00008210       $SG169129                  000000010043e210     ctc_ctci.obj
 0003:0000821c       $SG169314                  000000010043e21c     ctc_ctci.obj
 0003:00008220       $SG169132                  000000010043e220     ctc_ctci.obj
 0003:00008230       $SG169134                  000000010043e230     ctc_ctci.obj
 0003:0000826c       $SG169319                  000000010043e26c     ctc_ctci.obj
 0003:00008270       $SG169135                  000000010043e270     ctc_ctci.obj
 0003:0000827c       $SG169322                  000000010043e27c     ctc_ctci.obj
 0003:00008280       $SG169136                  000000010043e280     ctc_ctci.obj
 0003:0000828c       $SG169323                  000000010043e28c     ctc_ctci.obj
 0003:00008290       $SG169138                  000000010043e290     ctc_ctci.obj
 0003:0000829c       $SG169377                  000000010043e29c     ctc_ctci.obj
 0003:000082a0       $SG169140                  000000010043e2a0     ctc_ctci.obj
 0003:000082dc       $SG169390                  000000010043e2dc     ctc_ctci.obj
 0003:000082e0       $SG169141                  000000010043e2e0     ctc_ctci.obj
 0003:000082ec       $SG169444                  000000010043e2ec     ctc_ctci.obj
 0003:000082f0       $SG169142                  000000010043e2f0     ctc_ctci.obj
 0003:000082fc       $SG169449                  000000010043e2fc     ctc_ctci.obj
 0003:00008300       $SG169145                  000000010043e300     ctc_ctci.obj
 0003:00008324       $SG169458                  000000010043e324     ctc_ctci.obj
 0003:00008328       $SG169146                  000000010043e328     ctc_ctci.obj
 0003:00008364       $SG169464                  000000010043e364     ctc_ctci.obj
 0003:00008368       $SG169148                  000000010043e368     ctc_ctci.obj
 0003:000083a4       $SG169470                  000000010043e3a4     ctc_ctci.obj
 0003:000083a8       $SG169150                  000000010043e3a8     ctc_ctci.obj
 0003:000083b4       $SG169477                  000000010043e3b4     ctc_ctci.obj
 0003:000083b8       $SG169151                  000000010043e3b8     ctc_ctci.obj
 0003:000083c8       $SG169203                  000000010043e3c8     ctc_ctci.obj
 0003:000083e0       $SG169152                  000000010043e3e0     ctc_ctci.obj
 0003:00008428       $SG169154                  000000010043e428     ctc_ctci.obj
 0003:00008434       $SG169481                  000000010043e434     ctc_ctci.obj
 0003:0000843c       $SG169484                  000000010043e43c     ctc_ctci.obj
 0003:00008440       $SG169155                  000000010043e440     ctc_ctci.obj
 0003:00008450       $SG169156                  000000010043e450     ctc_ctci.obj
 0003:00008498       $SG169159                  000000010043e498     ctc_ctci.obj
 0003:000084a4       $SG169517                  000000010043e4a4     ctc_ctci.obj
 0003:000084a8       $SG169160                  000000010043e4a8     ctc_ctci.obj
 0003:000084b8       $SG169204                  000000010043e4b8     ctc_ctci.obj
 0003:000084c8       $SG169207                  000000010043e4c8     ctc_ctci.obj
 0003:00008500       $SG169161                  000000010043e500     ctc_ctci.obj
 0003:00008548       $SG169163                  000000010043e548     ctc_ctci.obj
 0003:00008554       $SG169525                  000000010043e554     ctc_ctci.obj
 0003:00008558       $SG169164                  000000010043e558     ctc_ctci.obj
 0003:00008568       $SG169290                  000000010043e568     ctc_ctci.obj
 0003:00008578       $SG169308                  000000010043e578     ctc_ctci.obj
 0003:00008580       $SG169165                  000000010043e580     ctc_ctci.obj
 0003:000085c8       $SG169168                  000000010043e5c8     ctc_ctci.obj
 0003:000085d4       $SG169529                  000000010043e5d4     ctc_ctci.obj
 0003:000085dc       $SG169532                  000000010043e5dc     ctc_ctci.obj
 0003:000085e0       $SG169169                  000000010043e5e0     ctc_ctci.obj
 0003:000085f0       $SG169170                  000000010043e5f0     ctc_ctci.obj
 0003:00008638       $SG169172                  000000010043e638     ctc_ctci.obj
 0003:00008644       $SG169640                  000000010043e644     ctc_ctci.obj
 0003:00008648       $SG169173                  000000010043e648     ctc_ctci.obj
 0003:00008658       $SG169291                  000000010043e658     ctc_ctci.obj
 0003:00008668       $SG169376                  000000010043e668     ctc_ctci.obj
 0003:00008670       $SG169174                  000000010043e670     ctc_ctci.obj
 0003:000086b8       $SG169177                  000000010043e6b8     ctc_ctci.obj
 0003:000086c4       $SG169646                  000000010043e6c4     ctc_ctci.obj
 0003:000086c8       $SG169178                  000000010043e6c8     ctc_ctci.obj
 0003:000086d8       $SG169316                  000000010043e6d8     ctc_ctci.obj
 0003:000086e8       $SG169378                  000000010043e6e8     ctc_ctci.obj
 0003:00008720       $SG169179                  000000010043e720     ctc_ctci.obj
 0003:00008768       $SG169181                  000000010043e768     ctc_ctci.obj
 0003:00008774       $SG169662                  000000010043e774     ctc_ctci.obj
 0003:00008778       $SG169182                  000000010043e778     ctc_ctci.obj
 0003:00008788       $SG169331                  000000010043e788     ctc_ctci.obj
 0003:00008798       $SG169389                  000000010043e798     ctc_ctci.obj
 0003:000087a0       $SG169183                  000000010043e7a0     ctc_ctci.obj
 0003:000087e8       $SG169186                  000000010043e7e8     ctc_ctci.obj
 0003:000087f4       $SG169669                  000000010043e7f4     ctc_ctci.obj
 0003:000087f8       $SG169187                  000000010043e7f8     ctc_ctci.obj
 0003:00008808       $SG169333                  000000010043e808     ctc_ctci.obj
 0003:00008818       $SG169394                  000000010043e818     ctc_ctci.obj
 0003:00008820       $SG169188                  000000010043e820     ctc_ctci.obj
 0003:00008868       $SG169190                  000000010043e868     ctc_ctci.obj
 0003:00008874       $SG169678                  000000010043e874     ctc_ctci.obj
 0003:00008878       $SG169191                  000000010043e878     ctc_ctci.obj
 0003:00008888       $SG169334                  000000010043e888     ctc_ctci.obj
 0003:00008898       $SG169445                  000000010043e898     ctc_ctci.obj
 0003:000088d0       $SG169192                  000000010043e8d0     ctc_ctci.obj
 0003:00008918       $SG169195                  000000010043e918     ctc_ctci.obj
 0003:00008924       $SG169687                  000000010043e924     ctc_ctci.obj
 0003:00008928       $SG169196                  000000010043e928     ctc_ctci.obj
 0003:00008938       $SG169367                  000000010043e938     ctc_ctci.obj
 0003:00008948       $SG169453                  000000010043e948     ctc_ctci.obj
 0003:00008950       $SG169197                  000000010043e950     ctc_ctci.obj
 0003:00008998       $SG169199                  000000010043e998     ctc_ctci.obj
 0003:000089a4       $SG169696                  000000010043e9a4     ctc_ctci.obj
 0003:000089a8       $SG169200                  000000010043e9a8     ctc_ctci.obj
 0003:000089b8       $SG169369                  000000010043e9b8     ctc_ctci.obj
 0003:000089c8       $SG169459                  000000010043e9c8     ctc_ctci.obj
 0003:00008a00       $SG169201                  000000010043ea00     ctc_ctci.obj
 0003:00008a48       $SG169208                  000000010043ea48     ctc_ctci.obj
 0003:00008a54       $SG169705                  000000010043ea54     ctc_ctci.obj
 0003:00008a58       $SG169209                  000000010043ea58     ctc_ctci.obj
 0003:00008a64       $SG169713                  000000010043ea64     ctc_ctci.obj
 0003:00008a68       $SG169325                  000000010043ea68     ctc_ctci.obj
 0003:00008a84       $SG169726                  000000010043ea84     ctc_ctci.obj
 0003:00008a88       $SG169370                  000000010043ea88     ctc_ctci.obj
 0003:00008a98       $SG169371                  000000010043ea98     ctc_ctci.obj
 0003:00008aa8       $SG169373                  000000010043eaa8     ctc_ctci.obj
 0003:00008ab8       $SG169379                  000000010043eab8     ctc_ctci.obj
 0003:00008ac4       $SG169733                  000000010043eac4     ctc_ctci.obj
 0003:00008ac8       $SG169380                  000000010043eac8     ctc_ctci.obj
 0003:00008ad4       $SG169738                  000000010043ead4     ctc_ctci.obj
 0003:00008ad8       $SG169383                  000000010043ead8     ctc_ctci.obj
 0003:00008ae8       $SG169385                  000000010043eae8     ctc_ctci.obj
 0003:00008af8       $SG169476                  000000010043eaf8     ctc_ctci.obj
 0003:00008b00       $SG169391                  000000010043eb00     ctc_ctci.obj
 0003:00008b40       $SG169392                  000000010043eb40     ctc_ctci.obj
 0003:00008b4c       $SG169746                  000000010043eb4c     ctc_ctci.obj
 0003:00008b50       $SG169393                  000000010043eb50     ctc_ctci.obj
 0003:00008b5c       $SG169754                  000000010043eb5c     ctc_ctci.obj
 0003:00008b60       $SG169395                  000000010043eb60     ctc_ctci.obj
 0003:00008b70       $SG169446                  000000010043eb70     ctc_ctci.obj
 0003:00008b7c       $SG169763                  000000010043eb7c     ctc_ctci.obj
 0003:00008b80       $SG169447                  000000010043eb80     ctc_ctci.obj
 0003:00008b90       $SG169450                  000000010043eb90     ctc_ctci.obj
 0003:00008bd4       $SG169772                  000000010043ebd4     ctc_ctci.obj
 0003:00008bd8       $SG169451                  000000010043ebd8     ctc_ctci.obj
 0003:00008be4       $SG169778                  000000010043ebe4     ctc_ctci.obj
 0003:00008be8       $SG169452                  000000010043ebe8     ctc_ctci.obj
 0003:00008bf8       $SG169460                  000000010043ebf8     ctc_ctci.obj
 0003:00008c08       $SG169461                  000000010043ec08     ctc_ctci.obj
 0003:00008c14       $SG169483                  000000010043ec14     ctc_ctci.obj
 0003:00008c20       $SG169465                  000000010043ec20     ctc_ctci.obj
 0003:00008c78       $SG169466                  000000010043ec78     ctc_ctci.obj
 0003:00008c88       $SG169467                  000000010043ec88     ctc_ctci.obj
 0003:00008c94       $SG169516                  000000010043ec94     ctc_ctci.obj
 0003:00008ca0       $SG169471                  000000010043eca0     ctc_ctci.obj
 0003:00008cf8       $SG169472                  000000010043ecf8     ctc_ctci.obj
 0003:00008d08       $SG169473                  000000010043ed08     ctc_ctci.obj
 0003:00008d18       $SG169518                  000000010043ed18     ctc_ctci.obj
 0003:00008d58       $SG169519                  000000010043ed58     ctc_ctci.obj
 0003:00008d68       $SG169524                  000000010043ed68     ctc_ctci.obj
 0003:00008d70       $SG169478                  000000010043ed70     ctc_ctci.obj
 0003:00008db8       $SG169479                  000000010043edb8     ctc_ctci.obj
 0003:00008dc8       $SG169480                  000000010043edc8     ctc_ctci.obj
 0003:00008dd8       $SG169485                  000000010043edd8     ctc_ctci.obj
 0003:00008e18       $SG169486                  000000010043ee18     ctc_ctci.obj
 0003:00008e28       $SG169487                  000000010043ee28     ctc_ctci.obj
 0003:00008e38       $SG169520                  000000010043ee38     ctc_ctci.obj
 0003:00008e48       $SG169527                  000000010043ee48     ctc_ctci.obj
 0003:00008e58       $SG169533                  000000010043ee58     ctc_ctci.obj
 0003:00008e90       $SG169526                  000000010043ee90     ctc_ctci.obj
 0003:00008ee0       $SG169528                  000000010043eee0     ctc_ctci.obj
 0003:00008ef0       $SG169534                  000000010043eef0     ctc_ctci.obj
 0003:00008f00       $SG169535                  000000010043ef00     ctc_ctci.obj
 0003:00008f10       $SG169537                  000000010043ef10     ctc_ctci.obj
 0003:00008f20       $SG169538                  000000010043ef20     ctc_ctci.obj
 0003:00008f30       $SG169539                  000000010043ef30     ctc_ctci.obj
 0003:00008f78       $SG169541                  000000010043ef78     ctc_ctci.obj
 0003:00008f88       $SG169542                  000000010043ef88     ctc_ctci.obj
 0003:00008f98       $SG169546                  000000010043ef98     ctc_ctci.obj
 0003:00008fa8       $SG169636                  000000010043efa8     ctc_ctci.obj
 0003:00008fb0       $SG169543                  000000010043efb0     ctc_ctci.obj
 0003:00008ff8       $SG169547                  000000010043eff8     ctc_ctci.obj
 0003:00009008       $SG169550                  000000010043f008     ctc_ctci.obj
 0003:00009018       $SG169639                  000000010043f018     ctc_ctci.obj
 0003:00009020       $SG169548                  000000010043f020     ctc_ctci.obj
 0003:00009068       $SG169551                  000000010043f068     ctc_ctci.obj
 0003:00009078       $SG169581                  000000010043f078     ctc_ctci.obj
 0003:00009088       $SG169641                  000000010043f088     ctc_ctci.obj
 0003:000090c0       $SG169552                  000000010043f0c0     ctc_ctci.obj
 0003:00009108       $SG169583                  000000010043f108     ctc_ctci.obj
 0003:00009118       $SG169584                  000000010043f118     ctc_ctci.obj
 0003:00009128       $SG169585                  000000010043f128     ctc_ctci.obj
 0003:00009138       $SG169586                  000000010043f138     ctc_ctci.obj
 0003:00009148       $SG169587                  000000010043f148     ctc_ctci.obj
 0003:00009158       $SG169661                  000000010043f158     ctc_ctci.obj
 0003:00009160       ?options@?7??ParseArgs@@9@9 000000010043f160     ctc_ctci.obj
 0003:00009260       $SG169637                  000000010043f260     ctc_ctci.obj
 0003:00009270       $SG169642                  000000010043f270     ctc_ctci.obj
 0003:00009280       $SG169643                  000000010043f280     ctc_ctci.obj
 0003:00009290       $SG169655                  000000010043f290     ctc_ctci.obj
 0003:000092a0       $SG169660                  000000010043f2a0     ctc_ctci.obj
 0003:000092b0       $SG169663                  000000010043f2b0     ctc_ctci.obj
 0003:000092e8       $SG169664                  000000010043f2e8     ctc_ctci.obj
 0003:000092f8       $SG169665                  000000010043f2f8     ctc_ctci.obj
 0003:00009308       $SG169667                  000000010043f308     ctc_ctci.obj
 0003:00009314       $SG169668                  000000010043f314     ctc_ctci.obj
 0003:00009320       $SG169670                  000000010043f320     ctc_ctci.obj
 0003:00009358       $SG169671                  000000010043f358     ctc_ctci.obj
 0003:00009368       $SG169672                  000000010043f368     ctc_ctci.obj
 0003:00009378       $SG169676                  000000010043f378     ctc_ctci.obj
 0003:0000938c       $SG169677                  000000010043f38c     ctc_ctci.obj
 0003:00009398       $SG169679                  000000010043f398     ctc_ctci.obj
 0003:000093d0       $SG169680                  000000010043f3d0     ctc_ctci.obj
 0003:000093e0       $SG169681                  000000010043f3e0     ctc_ctci.obj
 0003:000093f0       $SG169685                  000000010043f3f0     ctc_ctci.obj
 0003:00009404       $SG169686                  000000010043f404     ctc_ctci.obj
 0003:00009410       $SG169688                  000000010043f410     ctc_ctci.obj
 0003:00009448       $SG169689                  000000010043f448     ctc_ctci.obj
 0003:00009458       $SG169690                  000000010043f458     ctc_ctci.obj
 0003:00009468       $SG169694                  000000010043f468     ctc_ctci.obj
 0003:00009474       $SG169695                  000000010043f474     ctc_ctci.obj
 0003:00009480       $SG169697                  000000010043f480     ctc_ctci.obj
 0003:000094b8       $SG169698                  000000010043f4b8     ctc_ctci.obj
 0003:000094c8       $SG169699                  000000010043f4c8     ctc_ctci.obj
 0003:000094d8       $SG169703                  000000010043f4d8     ctc_ctci.obj
 0003:000094e4       $SG169704                  000000010043f4e4     ctc_ctci.obj
 0003:000094f0       $SG169706                  000000010043f4f0     ctc_ctci.obj
 0003:00009528       $SG169707                  000000010043f528     ctc_ctci.obj
 0003:00009538       $SG169708                  000000010043f538     ctc_ctci.obj
 0003:00009548       $SG169711                  000000010043f548     ctc_ctci.obj
 0003:00009550       $SG169712                  000000010043f550     ctc_ctci.obj
 0003:00009558       $SG169714                  000000010043f558     ctc_ctci.obj
 0003:00009590       $SG169715                  000000010043f590     ctc_ctci.obj
 0003:000095a0       $SG169716                  000000010043f5a0     ctc_ctci.obj
 0003:000095b0       $SG169724                  000000010043f5b0     ctc_ctci.obj
 0003:000095bc       $SG169725                  000000010043f5bc     ctc_ctci.obj
 0003:000095c8       $SG169727                  000000010043f5c8     ctc_ctci.obj
 0003:00009600       $SG169728                  000000010043f600     ctc_ctci.obj
 0003:00009610       $SG169729                  000000010043f610     ctc_ctci.obj
 0003:00009620       $SG169731                  000000010043f620     ctc_ctci.obj
 0003:0000962c       $SG169732                  000000010043f62c     ctc_ctci.obj
 0003:00009638       $SG169734                  000000010043f638     ctc_ctci.obj
 0003:00009670       $SG169735                  000000010043f670     ctc_ctci.obj
 0003:00009680       $SG169736                  000000010043f680     ctc_ctci.obj
 0003:0000968c       $SG169737                  000000010043f68c     ctc_ctci.obj
 0003:00009698       $SG169739                  000000010043f698     ctc_ctci.obj
 0003:000096d0       $SG169740                  000000010043f6d0     ctc_ctci.obj
 0003:000096e0       $SG169741                  000000010043f6e0     ctc_ctci.obj
 0003:000096f0       $SG169744                  000000010043f6f0     ctc_ctci.obj
 0003:000096fc       $SG169745                  000000010043f6fc     ctc_ctci.obj
 0003:00009708       $SG169747                  000000010043f708     ctc_ctci.obj
 0003:00009740       $SG169748                  000000010043f740     ctc_ctci.obj
 0003:00009750       $SG169749                  000000010043f750     ctc_ctci.obj
 0003:00009760       $SG169752                  000000010043f760     ctc_ctci.obj
 0003:0000976c       $SG169753                  000000010043f76c     ctc_ctci.obj
 0003:00009778       $SG169755                  000000010043f778     ctc_ctci.obj
 0003:000097b0       $SG169756                  000000010043f7b0     ctc_ctci.obj
 0003:000097c0       $SG169757                  000000010043f7c0     ctc_ctci.obj
 0003:000097d0       $SG169761                  000000010043f7d0     ctc_ctci.obj
 0003:000097e4       $SG169762                  000000010043f7e4     ctc_ctci.obj
 0003:000097f0       $SG169764                  000000010043f7f0     ctc_ctci.obj
 0003:00009828       $SG169765                  000000010043f828     ctc_ctci.obj
 0003:00009838       $SG169766                  000000010043f838     ctc_ctci.obj
 0003:00009848       $SG169770                  000000010043f848     ctc_ctci.obj
 0003:0000985c       $SG169771                  000000010043f85c     ctc_ctci.obj
 0003:00009868       $SG169773                  000000010043f868     ctc_ctci.obj
 0003:000098a0       $SG169774                  000000010043f8a0     ctc_ctci.obj
 0003:000098b0       $SG169775                  000000010043f8b0     ctc_ctci.obj
 0003:000098bc       $SG169777                  000000010043f8bc     ctc_ctci.obj
 0003:000098c8       $SG169779                  000000010043f8c8     ctc_ctci.obj
 0003:00009900       $SG169780                  000000010043f900     ctc_ctci.obj
 0003:00009910       $SG169781                  000000010043f910     ctc_ctci.obj
 0003:000099e8       $SG169191                  000000010043f9e8     ctcadpt.obj
 0003:000099ec       $SG169192                  000000010043f9ec     ctcadpt.obj
 0003:00009ab8       $SG169193                  000000010043fab8     ctcadpt.obj
 0003:00009abc       $SG169194                  000000010043fabc     ctcadpt.obj
 0003:00009ac0       $SG169195                  000000010043fac0     ctcadpt.obj
 0003:00009ac4       $SG169196                  000000010043fac4     ctcadpt.obj
 0003:00009ac8       $SG169197                  000000010043fac8     ctcadpt.obj
 0003:00009acc       $SG169198                  000000010043facc     ctcadpt.obj
 0003:00009ad0       $SG169199                  000000010043fad0     ctcadpt.obj
 0003:00009ad4       $SG169200                  000000010043fad4     ctcadpt.obj
 0003:00009ad8       $SG169201                  000000010043fad8     ctcadpt.obj
 0003:00009adc       $SG169202                  000000010043fadc     ctcadpt.obj
 0003:00009ae0       $SG169203                  000000010043fae0     ctcadpt.obj
 0003:00009ae4       $SG169204                  000000010043fae4     ctcadpt.obj
 0003:00009ae8       $SG169205                  000000010043fae8     ctcadpt.obj
 0003:00009aec       $SG169206                  000000010043faec     ctcadpt.obj
 0003:00009af0       $SG169209                  000000010043faf0     ctcadpt.obj
 0003:00009af4       $SG169210                  000000010043faf4     ctcadpt.obj
 0003:00009af8       $SG169211                  000000010043faf8     ctcadpt.obj
 0003:00009afc       $SG169212                  000000010043fafc     ctcadpt.obj
 0003:00009b00       $SG169213                  000000010043fb00     ctcadpt.obj
 0003:00009b04       $SG169214                  000000010043fb04     ctcadpt.obj
 0003:00009b08       $SG169215                  000000010043fb08     ctcadpt.obj
 0003:00009b0c       $SG169216                  000000010043fb0c     ctcadpt.obj
 0003:00009b10       CTCE_immed_commands        000000010043fb10     ctcadpt.obj
 0003:00009c10       $SG170230                  000000010043fc10     ctcadpt.obj
 0003:00009c14       $SG170231                  000000010043fc14     ctcadpt.obj
 0003:00009c18       $SG170232                  000000010043fc18     ctcadpt.obj
 0003:00009c1c       $SG170233                  000000010043fc1c     ctcadpt.obj
 0003:00009c20       $SG170234                  000000010043fc20     ctcadpt.obj
 0003:00009c30       CTCE_CmdStr                000000010043fc30     ctcadpt.obj
 0003:00009cb0       CTCE_command               000000010043fcb0     ctcadpt.obj
 0003:00009db0       CTCE_StaStr                000000010043fdb0     ctcadpt.obj
 0003:00009df0       $SG169271                  000000010043fdf0     ctcadpt.obj
 0003:00009df8       $SG169277                  000000010043fdf8     ctcadpt.obj
 0003:00009dfc       $SG169401                  000000010043fdfc     ctcadpt.obj
 0003:00009e00       $SG169278                  000000010043fe00     ctcadpt.obj
 0003:00009e0c       $SG169402                  000000010043fe0c     ctcadpt.obj
 0003:00009e10       $SG169403                  000000010043fe10     ctcadpt.obj
 0003:00009e48       $SG169404                  000000010043fe48     ctcadpt.obj
 0003:00009e54       $SG169410                  000000010043fe54     ctcadpt.obj
 0003:00009e58       $SG169405                  000000010043fe58     ctcadpt.obj
 0003:00009e64       $SG169408                  000000010043fe64     ctcadpt.obj
 0003:00009e6c       $SG169411                  000000010043fe6c     ctcadpt.obj
 0003:00009e70       $SG169409                  000000010043fe70     ctcadpt.obj
 0003:00009e7c       $SG169419                  000000010043fe7c     ctcadpt.obj
 0003:00009e80       $SG169412                  000000010043fe80     ctcadpt.obj
 0003:00009eb4       $SG169420                  000000010043feb4     ctcadpt.obj
 0003:00009eb8       $SG169413                  000000010043feb8     ctcadpt.obj
 0003:00009ec4       $SG169428                  000000010043fec4     ctcadpt.obj
 0003:00009ec8       $SG169414                  000000010043fec8     ctcadpt.obj
 0003:00009ed4       $SG169429                  000000010043fed4     ctcadpt.obj
 0003:00009ed8       $SG169418                  000000010043fed8     ctcadpt.obj
 0003:00009ee4       $SG169437                  000000010043fee4     ctcadpt.obj
 0003:00009ee8       $SG169421                  000000010043fee8     ctcadpt.obj
 0003:00009f1c       $SG169438                  000000010043ff1c     ctcadpt.obj
 0003:00009f20       $SG169422                  000000010043ff20     ctcadpt.obj
 0003:00009f2c       $SG169444                  000000010043ff2c     ctcadpt.obj
 0003:00009f30       $SG169423                  000000010043ff30     ctcadpt.obj
 0003:00009f3c       $SG169426                  000000010043ff3c     ctcadpt.obj
 0003:00009f44       $SG169445                  000000010043ff44     ctcadpt.obj
 0003:00009f48       $SG169427                  000000010043ff48     ctcadpt.obj
 0003:00009f54       $SG169451                  000000010043ff54     ctcadpt.obj
 0003:00009f58       $SG169430                  000000010043ff58     ctcadpt.obj
 0003:00009f8c       $SG169452                  000000010043ff8c     ctcadpt.obj
 0003:00009f90       $SG169431                  000000010043ff90     ctcadpt.obj
 0003:00009f9c       $SG169450                  000000010043ff9c     ctcadpt.obj
 0003:00009fa4       $SG169458                  000000010043ffa4     ctcadpt.obj
 0003:00009fa8       $SG169432                  000000010043ffa8     ctcadpt.obj
 0003:00009fb4       $SG169435                  000000010043ffb4     ctcadpt.obj
 0003:00009fbc       $SG169464                  000000010043ffbc     ctcadpt.obj
 0003:00009fc0       $SG169436                  000000010043ffc0     ctcadpt.obj
 0003:00009fcc       $SG169465                  000000010043ffcc     ctcadpt.obj
 0003:00009fd0       $SG169439                  000000010043ffd0     ctcadpt.obj
 0003:0000a004       $SG169471                  0000000100440004     ctcadpt.obj
 0003:0000a008       $SG169440                  0000000100440008     ctcadpt.obj
 0003:0000a014       $SG169470                  0000000100440014     ctcadpt.obj
 0003:0000a01c       $SG169472                  000000010044001c     ctcadpt.obj
 0003:0000a020       $SG169441                  0000000100440020     ctcadpt.obj
 0003:0000a02c       $SG169478                  000000010044002c     ctcadpt.obj
 0003:0000a030       $SG169443                  0000000100440030     ctcadpt.obj
 0003:0000a03c       $SG169479                  000000010044003c     ctcadpt.obj
 0003:0000a040       $SG169446                  0000000100440040     ctcadpt.obj
 0003:0000a074       $SG169486                  0000000100440074     ctcadpt.obj
 0003:0000a078       $SG169447                  0000000100440078     ctcadpt.obj
 0003:0000a084       $SG169490                  0000000100440084     ctcadpt.obj
 0003:0000a088       $SG169448                  0000000100440088     ctcadpt.obj
 0003:0000a094       $SG169537                  0000000100440094     ctcadpt.obj
 0003:0000a098       $SG169453                  0000000100440098     ctcadpt.obj
 0003:0000a0cc       $SG169542                  00000001004400cc     ctcadpt.obj
 0003:0000a0d0       $SG169454                  00000001004400d0     ctcadpt.obj
 0003:0000a0dc       $SG169548                  00000001004400dc     ctcadpt.obj
 0003:0000a0e0       $SG169455                  00000001004400e0     ctcadpt.obj
 0003:0000a0f0       $SG169459                  00000001004400f0     ctcadpt.obj
 0003:0000a134       $SG169554                  0000000100440134     ctcadpt.obj
 0003:0000a138       $SG169460                  0000000100440138     ctcadpt.obj
 0003:0000a144       $SG169559                  0000000100440144     ctcadpt.obj
 0003:0000a148       $SG169461                  0000000100440148     ctcadpt.obj
 0003:0000a154       $SG169565                  0000000100440154     ctcadpt.obj
 0003:0000a158       $SG169463                  0000000100440158     ctcadpt.obj
 0003:0000a164       $SG169494                  0000000100440164     ctcadpt.obj
 0003:0000a16c       $SG169619                  000000010044016c     ctcadpt.obj
 0003:0000a170       $SG169466                  0000000100440170     ctcadpt.obj
 0003:0000a1a4       $SG169625                  00000001004401a4     ctcadpt.obj
 0003:0000a1a8       $SG169467                  00000001004401a8     ctcadpt.obj
 0003:0000a1b4       $SG169630                  00000001004401b4     ctcadpt.obj
 0003:0000a1b8       $SG169468                  00000001004401b8     ctcadpt.obj
 0003:0000a1c4       $SG169632                  00000001004401c4     ctcadpt.obj
 0003:0000a1c8       $SG169473                  00000001004401c8     ctcadpt.obj
 0003:0000a1fc       $SG169633                  00000001004401fc     ctcadpt.obj
 0003:0000a200       $SG169474                  0000000100440200     ctcadpt.obj
 0003:0000a20c       $SG169655                  000000010044020c     ctcadpt.obj
 0003:0000a210       $SG169475                  0000000100440210     ctcadpt.obj
 0003:0000a21c       $SG169677                  000000010044021c     ctcadpt.obj
 0003:0000a220       $SG169477                  0000000100440220     ctcadpt.obj
 0003:0000a22c       $SG169652                  000000010044022c     ctcadpt.obj
 0003:0000a234       $SG169678                  0000000100440234     ctcadpt.obj
 0003:0000a238       $SG169480                  0000000100440238     ctcadpt.obj
 0003:0000a26c       $SG169679                  000000010044026c     ctcadpt.obj
 0003:0000a270       $SG169481                  0000000100440270     ctcadpt.obj
 0003:0000a27c       $SG169680                  000000010044027c     ctcadpt.obj
 0003:0000a280       $SG169482                  0000000100440280     ctcadpt.obj
 0003:0000a28c       $SG169681                  000000010044028c     ctcadpt.obj
 0003:0000a290       $SG169483                  0000000100440290     ctcadpt.obj
 0003:0000a2a8       $SG169484                  00000001004402a8     ctcadpt.obj
 0003:0000a2b8       $SG169487                  00000001004402b8     ctcadpt.obj
 0003:0000a2ec       $SG169682                  00000001004402ec     ctcadpt.obj
 0003:0000a2f0       $SG169488                  00000001004402f0     ctcadpt.obj
 0003:0000a2fc       $SG169683                  00000001004402fc     ctcadpt.obj
 0003:0000a300       $SG169489                  0000000100440300     ctcadpt.obj
 0003:0000a30c       $SG169809                  000000010044030c     ctcadpt.obj
 0003:0000a310       $SG169491                  0000000100440310     ctcadpt.obj
 0003:0000a340       $SG169492                  0000000100440340     ctcadpt.obj
 0003:0000a34c       $SG169814                  000000010044034c     ctcadpt.obj
 0003:0000a350       $SG169493                  0000000100440350     ctcadpt.obj
 0003:0000a35c       $SG169824                  000000010044035c     ctcadpt.obj
 0003:0000a360       $SG169538                  0000000100440360     ctcadpt.obj
 0003:0000a398       $SG169539                  0000000100440398     ctcadpt.obj
 0003:0000a3a4       $SG169833                  00000001004403a4     ctcadpt.obj
 0003:0000a3a8       $SG169540                  00000001004403a8     ctcadpt.obj
 0003:0000a3b4       $SG169840                  00000001004403b4     ctcadpt.obj
 0003:0000a3b8       $SG169543                  00000001004403b8     ctcadpt.obj
 0003:0000a3f0       $SG169544                  00000001004403f0     ctcadpt.obj
 0003:0000a3fc       $SG169849                  00000001004403fc     ctcadpt.obj
 0003:0000a400       $SG169545                  0000000100440400     ctcadpt.obj
 0003:0000a410       $SG169549                  0000000100440410     ctcadpt.obj
 0003:0000a464       $SG169801                  0000000100440464     ctcadpt.obj
 0003:0000a46c       $SG169855                  000000010044046c     ctcadpt.obj
 0003:0000a470       $SG169550                  0000000100440470     ctcadpt.obj
 0003:0000a47c       $SG169864                  000000010044047c     ctcadpt.obj
 0003:0000a480       $SG169551                  0000000100440480     ctcadpt.obj
 0003:0000a490       $SG169555                  0000000100440490     ctcadpt.obj
 0003:0000a4e4       $SG169872                  00000001004404e4     ctcadpt.obj
 0003:0000a4e8       $SG169556                  00000001004404e8     ctcadpt.obj
 0003:0000a4f4       $SG169877                  00000001004404f4     ctcadpt.obj
 0003:0000a4f8       $SG169557                  00000001004404f8     ctcadpt.obj
 0003:0000a504       $SG169910                  0000000100440504     ctcadpt.obj
 0003:0000a508       $SG169560                  0000000100440508     ctcadpt.obj
 0003:0000a53c       $SG169914                  000000010044053c     ctcadpt.obj
 0003:0000a540       $SG169561                  0000000100440540     ctcadpt.obj
 0003:0000a54c       $SG169918                  000000010044054c     ctcadpt.obj
 0003:0000a550       $SG169562                  0000000100440550     ctcadpt.obj
 0003:0000a55c       $SG169923                  000000010044055c     ctcadpt.obj
 0003:0000a560       $SG169566                  0000000100440560     ctcadpt.obj
 0003:0000a598       $SG169567                  0000000100440598     ctcadpt.obj
 0003:0000a5a4       $SG169987                  00000001004405a4     ctcadpt.obj
 0003:0000a5a8       $SG169568                  00000001004405a8     ctcadpt.obj
 0003:0000a5b4       $SG169993                  00000001004405b4     ctcadpt.obj
 0003:0000a5b8       $SG169615                  00000001004405b8     ctcadpt.obj
 0003:0000a5c4       $SG170001                  00000001004405c4     ctcadpt.obj
 0003:0000a5c8       $SG169620                  00000001004405c8     ctcadpt.obj
 0003:0000a604       $SG170005                  0000000100440604     ctcadpt.obj
 0003:0000a608       $SG169621                  0000000100440608     ctcadpt.obj
 0003:0000a614       $SG170009                  0000000100440614     ctcadpt.obj
 0003:0000a618       $SG169622                  0000000100440618     ctcadpt.obj
 0003:0000a624       $SG170042                  0000000100440624     ctcadpt.obj
 0003:0000a628       $SG169626                  0000000100440628     ctcadpt.obj
 0003:0000a664       $SG170053                  0000000100440664     ctcadpt.obj
 0003:0000a668       $SG169627                  0000000100440668     ctcadpt.obj
 0003:0000a674       $SG170058                  0000000100440674     ctcadpt.obj
 0003:0000a678       $SG169628                  0000000100440678     ctcadpt.obj
 0003:0000a688       $SG169657                  0000000100440688     ctcadpt.obj
 0003:0000a6a0       $SG169634                  00000001004406a0     ctcadpt.obj
 0003:0000a6ec       $SG170116                  00000001004406ec     ctcadpt.obj
 0003:0000a6f0       $SG169635                  00000001004406f0     ctcadpt.obj
 0003:0000a6fc       $SG170122                  00000001004406fc     ctcadpt.obj
 0003:0000a700       $SG169636                  0000000100440700     ctcadpt.obj
 0003:0000a710       $SG169656                  0000000100440710     ctcadpt.obj
 0003:0000a770       $SG169658                  0000000100440770     ctcadpt.obj
 0003:0000a77c       $SG169671                  000000010044077c     ctcadpt.obj
 0003:0000a784       $SG170253                  0000000100440784     ctcadpt.obj
 0003:0000a78c       $SG170305                  000000010044078c     ctcadpt.obj
 0003:0000a790       $SG169684                  0000000100440790     ctcadpt.obj
 0003:0000a7b0       $SG169735                  00000001004407b0     ctcadpt.obj
 0003:0000a7c0       $SG169759                  00000001004407c0     ctcadpt.obj
 0003:0000a7d0       $SG169799                  00000001004407d0     ctcadpt.obj
 0003:0000a7e0       $SG169800                  00000001004407e0     ctcadpt.obj
 0003:0000a7f0       $SG169805                  00000001004407f0     ctcadpt.obj
 0003:0000a7fc       $SG169808                  00000001004407fc     ctcadpt.obj
 0003:0000a804       $SG170254                  0000000100440804     ctcadpt.obj
 0003:0000a80c       $SG170259                  000000010044080c     ctcadpt.obj
 0003:0000a814       $SG170314                  0000000100440814     ctcadpt.obj
 0003:0000a818       $SG169810                  0000000100440818     ctcadpt.obj
 0003:0000a858       $SG169811                  0000000100440858     ctcadpt.obj
 0003:0000a864       $SG170299                  0000000100440864     ctcadpt.obj
 0003:0000a86c       $SG170334                  000000010044086c     ctcadpt.obj
 0003:0000a870       $SG169812                  0000000100440870     ctcadpt.obj
 0003:0000a880       $SG169815                  0000000100440880     ctcadpt.obj
 0003:0000a8d0       $SG169816                  00000001004408d0     ctcadpt.obj
 0003:0000a8dc       $SG170301                  00000001004408dc     ctcadpt.obj
 0003:0000a8e4       $SG170369                  00000001004408e4     ctcadpt.obj
 0003:0000a8e8       $SG169817                  00000001004408e8     ctcadpt.obj
 0003:0000a8f4       $SG169821                  00000001004408f4     ctcadpt.obj
 0003:0000a900       $SG169825                  0000000100440900     ctcadpt.obj
 0003:0000a94c       $SG170308                  000000010044094c     ctcadpt.obj
 0003:0000a954       $SG170375                  0000000100440954     ctcadpt.obj
 0003:0000a958       $SG169826                  0000000100440958     ctcadpt.obj
 0003:0000a964       $SG170376                  0000000100440964     ctcadpt.obj
 0003:0000a968       $SG169827                  0000000100440968     ctcadpt.obj
 0003:0000a978       $SG169841                  0000000100440978     ctcadpt.obj
 0003:0000a9b0       $SG169834                  00000001004409b0     ctcadpt.obj
 0003:0000a9fc       $SG170385                  00000001004409fc     ctcadpt.obj
 0003:0000aa00       $SG169835                  0000000100440a00     ctcadpt.obj
 0003:0000aa0c       $SG170389                  0000000100440a0c     ctcadpt.obj
 0003:0000aa10       $SG169836                  0000000100440a10     ctcadpt.obj
 0003:0000aa1c       $SG170414                  0000000100440a1c     ctcadpt.obj
 0003:0000aa24       $SG170416                  0000000100440a24     ctcadpt.obj
 0003:0000aa28       $SG169842                  0000000100440a28     ctcadpt.obj
 0003:0000aa34       $SG170421                  0000000100440a34     ctcadpt.obj
 0003:0000aa3c       $SG170424                  0000000100440a3c     ctcadpt.obj
 0003:0000aa40       $SG169843                  0000000100440a40     ctcadpt.obj
 0003:0000aa4c       $SG169848                  0000000100440a4c     ctcadpt.obj
 0003:0000aa54       $SG170266                  0000000100440a54     ctcadpt.obj
 0003:0000aa5c       $SG170430                  0000000100440a5c     ctcadpt.obj
 0003:0000aa64       $SG170433                  0000000100440a64     ctcadpt.obj
 0003:0000aa68       $SG169850                  0000000100440a68     ctcadpt.obj
 0003:0000aa9c       $SG170442                  0000000100440a9c     ctcadpt.obj
 0003:0000aaa0       $SG169851                  0000000100440aa0     ctcadpt.obj
 0003:0000aaac       $SG170440                  0000000100440aac     ctcadpt.obj
 0003:0000aab4       $SG170451                  0000000100440ab4     ctcadpt.obj
 0003:0000aab8       $SG169852                  0000000100440ab8     ctcadpt.obj
 0003:0000aac4       $SG169863                  0000000100440ac4     ctcadpt.obj
 0003:0000aad0       $SG169856                  0000000100440ad0     ctcadpt.obj
 0003:0000ab40       $SG169857                  0000000100440b40     ctcadpt.obj
 0003:0000ab4c       $SG170449                  0000000100440b4c     ctcadpt.obj
 0003:0000ab54       $SG170466                  0000000100440b54     ctcadpt.obj
 0003:0000ab58       $SG169858                  0000000100440b58     ctcadpt.obj
 0003:0000ab64       $SG169871                  0000000100440b64     ctcadpt.obj
 0003:0000ab70       $SG169865                  0000000100440b70     ctcadpt.obj
 0003:0000abc0       $SG169866                  0000000100440bc0     ctcadpt.obj
 0003:0000abcc       $SG170481                  0000000100440bcc     ctcadpt.obj
 0003:0000abd0       $SG169867                  0000000100440bd0     ctcadpt.obj
 0003:0000abe0       $SG169873                  0000000100440be0     ctcadpt.obj
 0003:0000ac20       $SG169874                  0000000100440c20     ctcadpt.obj
 0003:0000ac30       $SG169875                  0000000100440c30     ctcadpt.obj
 0003:0000ac40       $SG169878                  0000000100440c40     ctcadpt.obj
 0003:0000ac88       $SG169879                  0000000100440c88     ctcadpt.obj
 0003:0000ac98       $SG169880                  0000000100440c98     ctcadpt.obj
 0003:0000aca8       $SG169899                  0000000100440ca8     ctcadpt.obj
 0003:0000acc0       $SG169906                  0000000100440cc0     ctcadpt.obj
 0003:0000acd8       $SG169909                  0000000100440cd8     ctcadpt.obj
 0003:0000ace8       $SG169912                  0000000100440ce8     ctcadpt.obj
 0003:0000ad10       $SG169911                  0000000100440d10     ctcadpt.obj
 0003:0000ad58       $SG169913                  0000000100440d58     ctcadpt.obj
 0003:0000ad68       $SG169915                  0000000100440d68     ctcadpt.obj
 0003:0000ada8       $SG169916                  0000000100440da8     ctcadpt.obj
 0003:0000add0       $SG169917                  0000000100440dd0     ctcadpt.obj
 0003:0000ade0       $SG169919                  0000000100440de0     ctcadpt.obj
 0003:0000ae28       $SG169920                  0000000100440e28     ctcadpt.obj
 0003:0000ae50       $SG169921                  0000000100440e50     ctcadpt.obj
 0003:0000ae60       $SG169924                  0000000100440e60     ctcadpt.obj
 0003:0000aea8       $SG169925                  0000000100440ea8     ctcadpt.obj
 0003:0000aed0       $SG169926                  0000000100440ed0     ctcadpt.obj
 0003:0000aee0       $SG169969                  0000000100440ee0     ctcadpt.obj
 0003:0000aef0       $SG169980                  0000000100440ef0     ctcadpt.obj
 0003:0000af08       $SG169983                  0000000100440f08     ctcadpt.obj
 0003:0000af20       $SG169986                  0000000100440f20     ctcadpt.obj
 0003:0000af30       $SG169988                  0000000100440f30     ctcadpt.obj
 0003:0000af68       $SG169989                  0000000100440f68     ctcadpt.obj
 0003:0000af80       $SG169990                  0000000100440f80     ctcadpt.obj
 0003:0000af90       $SG169991                  0000000100440f90     ctcadpt.obj
 0003:0000afa0       $SG169992                  0000000100440fa0     ctcadpt.obj
 0003:0000afb0       $SG169994                  0000000100440fb0     ctcadpt.obj
 0003:0000b010       $SG169995                  0000000100441010     ctcadpt.obj
 0003:0000b028       $SG169996                  0000000100441028     ctcadpt.obj
 0003:0000b038       $SG169998                  0000000100441038     ctcadpt.obj
 0003:0000b048       $SG170003                  0000000100441048     ctcadpt.obj
 0003:0000b060       $SG170002                  0000000100441060     ctcadpt.obj
 0003:0000b0b0       $SG170004                  00000001004410b0     ctcadpt.obj
 0003:0000b0c0       $SG170006                  00000001004410c0     ctcadpt.obj
 0003:0000b118       $SG170007                  0000000100441118     ctcadpt.obj
 0003:0000b130       $SG170008                  0000000100441130     ctcadpt.obj
 0003:0000b140       $SG170010                  0000000100441140     ctcadpt.obj
 0003:0000b198       $SG170011                  0000000100441198     ctcadpt.obj
 0003:0000b1b0       $SG170012                  00000001004411b0     ctcadpt.obj
 0003:0000b1c0       $SG170043                  00000001004411c0     ctcadpt.obj
 0003:0000b210       $SG170044                  0000000100441210     ctcadpt.obj
 0003:0000b220       $SG170045                  0000000100441220     ctcadpt.obj
 0003:0000b230       $SG170054                  0000000100441230     ctcadpt.obj
 0003:0000b288       $SG170055                  0000000100441288     ctcadpt.obj
 0003:0000b298       $SG170056                  0000000100441298     ctcadpt.obj
 0003:0000b2a8       $SG170059                  00000001004412a8     ctcadpt.obj
 0003:0000b2e0       $SG170060                  00000001004412e0     ctcadpt.obj
 0003:0000b2f0       $SG170061                  00000001004412f0     ctcadpt.obj
 0003:0000b300       $SG170067                  0000000100441300     ctcadpt.obj
 0003:0000b310       $SG170068                  0000000100441310     ctcadpt.obj
 0003:0000b320       $SG170069                  0000000100441320     ctcadpt.obj
 0003:0000b330       $SG170070                  0000000100441330     ctcadpt.obj
 0003:0000b340       $SG170071                  0000000100441340     ctcadpt.obj
 0003:0000b350       $SG170110                  0000000100441350     ctcadpt.obj
 0003:0000b360       $SG170111                  0000000100441360     ctcadpt.obj
 0003:0000b370       $SG170113                  0000000100441370     ctcadpt.obj
 0003:0000b380       $SG170117                  0000000100441380     ctcadpt.obj
 0003:0000b3b8       $SG170118                  00000001004413b8     ctcadpt.obj
 0003:0000b3c8       $SG170119                  00000001004413c8     ctcadpt.obj
 0003:0000b3d8       $SG170124                  00000001004413d8     ctcadpt.obj
 0003:0000b3e8       ?CTCE_XfrStr@?1??CTCE_Trace@@9@9 00000001004413e8     ctcadpt.obj
 0003:0000b410       $SG170123                  0000000100441410     ctcadpt.obj
 0003:0000b478       $SG170125                  0000000100441478     ctcadpt.obj
 0003:0000b488       $SG170127                  0000000100441488     ctcadpt.obj
 0003:0000b498       $SG170134                  0000000100441498     ctcadpt.obj
 0003:0000b4a8       $SG170135                  00000001004414a8     ctcadpt.obj
 0003:0000b4b8       $SG170136                  00000001004414b8     ctcadpt.obj
 0003:0000b4c8       $SG170148                  00000001004414c8     ctcadpt.obj
 0003:0000b4d8       $SG170149                  00000001004414d8     ctcadpt.obj
 0003:0000b4e8       $SG170150                  00000001004414e8     ctcadpt.obj
 0003:0000b4f8       $SG170152                  00000001004414f8     ctcadpt.obj
 0003:0000b508       $SG170154                  0000000100441508     ctcadpt.obj
 0003:0000b518       $SG170159                  0000000100441518     ctcadpt.obj
 0003:0000b528       $SG170165                  0000000100441528     ctcadpt.obj
 0003:0000b538       $SG170173                  0000000100441538     ctcadpt.obj
 0003:0000b548       $SG170183                  0000000100441548     ctcadpt.obj
 0003:0000b558       $SG170184                  0000000100441558     ctcadpt.obj
 0003:0000b568       $SG170185                  0000000100441568     ctcadpt.obj
 0003:0000b578       $SG170249                  0000000100441578     ctcadpt.obj
 0003:0000b588       $SG170250                  0000000100441588     ctcadpt.obj
 0003:0000b590       $SG170255                  0000000100441590     ctcadpt.obj
 0003:0000b5a0       $SG170261                  00000001004415a0     ctcadpt.obj
 0003:0000b5a8       $SG170263                  00000001004415a8     ctcadpt.obj
 0003:0000b5bc       $SG170268                  00000001004415bc     ctcadpt.obj
 0003:0000b5c4       $SG170270                  00000001004415c4     ctcadpt.obj
 0003:0000b5cc       $SG170272                  00000001004415cc     ctcadpt.obj
 0003:0000b5d8       $SG170274                  00000001004415d8     ctcadpt.obj
 0003:0000b5e8       $SG170276                  00000001004415e8     ctcadpt.obj
 0003:0000b5f8       $SG170278                  00000001004415f8     ctcadpt.obj
 0003:0000b608       $SG170282                  0000000100441608     ctcadpt.obj
 0003:0000b618       $SG170284                  0000000100441618     ctcadpt.obj
 0003:0000b628       $SG170287                  0000000100441628     ctcadpt.obj
 0003:0000b650       $SG170291                  0000000100441650     ctcadpt.obj
 0003:0000b678       $SG170293                  0000000100441678     ctcadpt.obj
 0003:0000b688       $SG170295                  0000000100441688     ctcadpt.obj
 0003:0000b6a0       $SG170297                  00000001004416a0     ctcadpt.obj
 0003:0000b6a8       $SG170306                  00000001004416a8     ctcadpt.obj
 0003:0000b6b0       $SG170310                  00000001004416b0     ctcadpt.obj
 0003:0000b6b8       $SG170312                  00000001004416b8     ctcadpt.obj
 0003:0000b6c0       $SG170315                  00000001004416c0     ctcadpt.obj
 0003:0000b720       $SG170316                  0000000100441720     ctcadpt.obj
 0003:0000b730       $SG170317                  0000000100441730     ctcadpt.obj
 0003:0000b740       $SG170319                  0000000100441740     ctcadpt.obj
 0003:0000b750       $SG170328                  0000000100441750     ctcadpt.obj
 0003:0000b760       $SG170329                  0000000100441760     ctcadpt.obj
 0003:0000b778       $SG170330                  0000000100441778     ctcadpt.obj
 0003:0000b788       $SG170331                  0000000100441788     ctcadpt.obj
 0003:0000b7a8       $SG170333                  00000001004417a8     ctcadpt.obj
 0003:0000b7b8       $SG170335                  00000001004417b8     ctcadpt.obj
 0003:0000b7f0       $SG170336                  00000001004417f0     ctcadpt.obj
 0003:0000b810       $SG170337                  0000000100441810     ctcadpt.obj
 0003:0000b820       $SG170360                  0000000100441820     ctcadpt.obj
 0003:0000b830       $SG170362                  0000000100441830     ctcadpt.obj
 0003:0000b840       $SG170363                  0000000100441840     ctcadpt.obj
 0003:0000b850       $SG170365                  0000000100441850     ctcadpt.obj
 0003:0000b860       $SG170370                  0000000100441860     ctcadpt.obj
 0003:0000b8b0       $SG170371                  00000001004418b0     ctcadpt.obj
 0003:0000b8c8       $SG170372                  00000001004418c8     ctcadpt.obj
 0003:0000b8d8       $SG170378                  00000001004418d8     ctcadpt.obj
 0003:0000b8f0       $SG170377                  00000001004418f0     ctcadpt.obj
 0003:0000b940       $SG170379                  0000000100441940     ctcadpt.obj
 0003:0000b950       $SG170383                  0000000100441950     ctcadpt.obj
 0003:0000b958       $SG170384                  0000000100441958     ctcadpt.obj
 0003:0000b960       $SG170386                  0000000100441960     ctcadpt.obj
 0003:0000b9b0       $SG170387                  00000001004419b0     ctcadpt.obj
 0003:0000b9c8       $SG170388                  00000001004419c8     ctcadpt.obj
 0003:0000b9d8       $SG170391                  00000001004419d8     ctcadpt.obj
 0003:0000b9f0       $SG170390                  00000001004419f0     ctcadpt.obj
 0003:0000ba40       $SG170392                  0000000100441a40     ctcadpt.obj
 0003:0000ba50       $SG170393                  0000000100441a50     ctcadpt.obj
 0003:0000ba60       $SG170415                  0000000100441a60     ctcadpt.obj
 0003:0000ba68       $SG170417                  0000000100441a68     ctcadpt.obj
 0003:0000baa0       $SG170418                  0000000100441aa0     ctcadpt.obj
 0003:0000bab0       $SG170419                  0000000100441ab0     ctcadpt.obj
 0003:0000bac0       $SG170422                  0000000100441ac0     ctcadpt.obj
 0003:0000bac8       $SG170423                  0000000100441ac8     ctcadpt.obj
 0003:0000bad8       $SG170426                  0000000100441ad8     ctcadpt.obj
 0003:0000bae8       $SG170431                  0000000100441ae8     ctcadpt.obj
 0003:0000baf0       $SG170425                  0000000100441af0     ctcadpt.obj
 0003:0000bb30       $SG170427                  0000000100441b30     ctcadpt.obj
 0003:0000bb40       $SG170432                  0000000100441b40     ctcadpt.obj
 0003:0000bb50       $SG170434                  0000000100441b50     ctcadpt.obj
 0003:0000bb90       $SG170435                  0000000100441b90     ctcadpt.obj
 0003:0000bba0       $SG170436                  0000000100441ba0     ctcadpt.obj
 0003:0000bbb0       $SG170441                  0000000100441bb0     ctcadpt.obj
 0003:0000bbb8       $SG170450                  0000000100441bb8     ctcadpt.obj
 0003:0000bbc0       $SG170443                  0000000100441bc0     ctcadpt.obj
 0003:0000bc08       $SG170444                  0000000100441c08     ctcadpt.obj
 0003:0000bc18       $SG170445                  0000000100441c18     ctcadpt.obj
 0003:0000bc28       $SG170453                  0000000100441c28     ctcadpt.obj
 0003:0000bc38       $SG170479                  0000000100441c38     ctcadpt.obj
 0003:0000bc40       $SG170452                  0000000100441c40     ctcadpt.obj
 0003:0000bc90       $SG170454                  0000000100441c90     ctcadpt.obj
 0003:0000bca0       $SG170467                  0000000100441ca0     ctcadpt.obj
 0003:0000bd00       $SG170468                  0000000100441d00     ctcadpt.obj
 0003:0000bd10       $SG170469                  0000000100441d10     ctcadpt.obj
 0003:0000bd20       $SG170480                  0000000100441d20     ctcadpt.obj
 0003:0000bd30       $SG170482                  0000000100441d30     ctcadpt.obj
 0003:0000bd80       $SG170483                  0000000100441d80     ctcadpt.obj
 0003:0000bd90       $SG170484                  0000000100441d90     ctcadpt.obj
 0003:0000bda0       $SG170485                  0000000100441da0     ctcadpt.obj
 0003:0000bdb0       $SG170486                  0000000100441db0     ctcadpt.obj
 0003:0000bdc0       $SG159967                  0000000100441dc0     tuntap.obj
 0003:0000bdc8       $SG159968                  0000000100441dc8     tuntap.obj
 0003:0000bdf8       $SG159969                  0000000100441df8     tuntap.obj
 0003:0000be10       $SG159970                  0000000100441e10     tuntap.obj
 0003:0000be1c       $SG159973                  0000000100441e1c     tuntap.obj
 0003:0000be20       $SG159974                  0000000100441e20     tuntap.obj
 0003:0000be50       $SG159975                  0000000100441e50     tuntap.obj
 0003:0000be68       $SG159976                  0000000100441e68     tuntap.obj
 0003:0000be74       $SG159989                  0000000100441e74     tuntap.obj
 0003:0000be7c       $SG159990                  0000000100441e7c     tuntap.obj
 0003:0000be80       $SG159991                  0000000100441e80     tuntap.obj
 0003:0000bea8       $SG159992                  0000000100441ea8     tuntap.obj
 0003:0000bebc       $SG159997                  0000000100441ebc     tuntap.obj
 0003:0000bec0       $SG159993                  0000000100441ec0     tuntap.obj
 0003:0000becc       $SG159996                  0000000100441ecc     tuntap.obj
 0003:0000bed4       $SG160014                  0000000100441ed4     tuntap.obj
 0003:0000bed8       $SG159998                  0000000100441ed8     tuntap.obj
 0003:0000bf04       $SG160021                  0000000100441f04     tuntap.obj
 0003:0000bf08       $SG159999                  0000000100441f08     tuntap.obj
 0003:0000bf1c       $SG160038                  0000000100441f1c     tuntap.obj
 0003:0000bf20       $SG160000                  0000000100441f20     tuntap.obj
 0003:0000bf2c       $SG160013                  0000000100441f2c     tuntap.obj
 0003:0000bf34       $SG160045                  0000000100441f34     tuntap.obj
 0003:0000bf38       $SG160015                  0000000100441f38     tuntap.obj
 0003:0000bf60       $SG160016                  0000000100441f60     tuntap.obj
 0003:0000bf74       $SG160062                  0000000100441f74     tuntap.obj
 0003:0000bf78       $SG160017                  0000000100441f78     tuntap.obj
 0003:0000bf84       $SG160020                  0000000100441f84     tuntap.obj
 0003:0000bf8c       $SG160069                  0000000100441f8c     tuntap.obj
 0003:0000bf90       $SG160022                  0000000100441f90     tuntap.obj
 0003:0000bfcc       $SG160087                  0000000100441fcc     tuntap.obj
 0003:0000bfd0       $SG160023                  0000000100441fd0     tuntap.obj
 0003:0000bfe4       $SG160093                  0000000100441fe4     tuntap.obj
 0003:0000bfe8       $SG160024                  0000000100441fe8     tuntap.obj
 0003:0000bff4       $SG160037                  0000000100441ff4     tuntap.obj
 0003:0000bffc       $SG160099                  0000000100441ffc     tuntap.obj
 0003:0000c000       $SG160039                  0000000100442000     tuntap.obj
 0003:0000c028       $SG160040                  0000000100442028     tuntap.obj
 0003:0000c03c       $SG160105                  000000010044203c     tuntap.obj
 0003:0000c040       $SG160041                  0000000100442040     tuntap.obj
 0003:0000c04c       $SG160044                  000000010044204c     tuntap.obj
 0003:0000c054       $SG160110                  0000000100442054     tuntap.obj
 0003:0000c058       $SG160046                  0000000100442058     tuntap.obj
 0003:0000c088       $SG160047                  0000000100442088     tuntap.obj
 0003:0000c09c       $SG160128                  000000010044209c     tuntap.obj
 0003:0000c0a0       $SG160048                  00000001004420a0     tuntap.obj
 0003:0000c0ac       $SG160061                  00000001004420ac     tuntap.obj
 0003:0000c0b4       $SG160135                  00000001004420b4     tuntap.obj
 0003:0000c0b8       $SG160063                  00000001004420b8     tuntap.obj
 0003:0000c0e0       $SG160064                  00000001004420e0     tuntap.obj
 0003:0000c0f4       $SG160141                  00000001004420f4     tuntap.obj
 0003:0000c0f8       $SG160065                  00000001004420f8     tuntap.obj
 0003:0000c104       $SG160068                  0000000100442104     tuntap.obj
 0003:0000c10c       $SG160145                  000000010044210c     tuntap.obj
 0003:0000c110       $SG160070                  0000000100442110     tuntap.obj
 0003:0000c148       $SG160071                  0000000100442148     tuntap.obj
 0003:0000c15c       $SG160159                  000000010044215c     tuntap.obj
 0003:0000c160       $SG160072                  0000000100442160     tuntap.obj
 0003:0000c16c       $SG160086                  000000010044216c     tuntap.obj
 0003:0000c174       $SG160166                  0000000100442174     tuntap.obj
 0003:0000c178       $SG160088                  0000000100442178     tuntap.obj
 0003:0000c1a0       $SG160089                  00000001004421a0     tuntap.obj
 0003:0000c1b4       $SG160172                  00000001004421b4     tuntap.obj
 0003:0000c1b8       $SG160090                  00000001004421b8     tuntap.obj
 0003:0000c1c4       $SG160092                  00000001004421c4     tuntap.obj
 0003:0000c1cc       $SG160192                  00000001004421cc     tuntap.obj
 0003:0000c1d0       $SG160094                  00000001004421d0     tuntap.obj
 0003:0000c1fc       $SG160199                  00000001004421fc     tuntap.obj
 0003:0000c200       $SG160095                  0000000100442200     tuntap.obj
 0003:0000c214       $SG160205                  0000000100442214     tuntap.obj
 0003:0000c218       $SG160096                  0000000100442218     tuntap.obj
 0003:0000c224       $SG160098                  0000000100442224     tuntap.obj
 0003:0000c22c       $SG160223                  000000010044222c     tuntap.obj
 0003:0000c230       $SG160100                  0000000100442230     tuntap.obj
 0003:0000c264       $SG160230                  0000000100442264     tuntap.obj
 0003:0000c268       $SG160101                  0000000100442268     tuntap.obj
 0003:0000c27c       $SG160245                  000000010044227c     tuntap.obj
 0003:0000c280       $SG160102                  0000000100442280     tuntap.obj
 0003:0000c28c       $SG160263                  000000010044228c     tuntap.obj
 0003:0000c290       $SG160106                  0000000100442290     tuntap.obj
 0003:0000c2c4       $SG160344                  00000001004422c4     tuntap.obj
 0003:0000c2c8       $SG160107                  00000001004422c8     tuntap.obj
 0003:0000c2dc       $SG160402                  00000001004422dc     tuntap.obj
 0003:0000c2e0       $SG160108                  00000001004422e0     tuntap.obj
 0003:0000c2ec       $SG160406                  00000001004422ec     tuntap.obj
 0003:0000c2f4       $SG160409                  00000001004422f4     tuntap.obj
 0003:0000c2f8       $SG160111                  00000001004422f8     tuntap.obj
 0003:0000c324       $SG160411                  0000000100442324     tuntap.obj
 0003:0000c328       $SG160112                  0000000100442328     tuntap.obj
 0003:0000c33c       $SG160414                  000000010044233c     tuntap.obj
 0003:0000c340       $SG160113                  0000000100442340     tuntap.obj
 0003:0000c34c       $SG160127                  000000010044234c     tuntap.obj
 0003:0000c354       $SG160418                  0000000100442354     tuntap.obj
 0003:0000c358       $SG160129                  0000000100442358     tuntap.obj
 0003:0000c380       $SG160130                  0000000100442380     tuntap.obj
 0003:0000c390       $SG160131                  0000000100442390     tuntap.obj
 0003:0000c3a0       $SG160133                  00000001004423a0     tuntap.obj
 0003:0000c3b8       $SG160134                  00000001004423b8     tuntap.obj
 0003:0000c3c8       $SG160136                  00000001004423c8     tuntap.obj
 0003:0000c3f0       $SG160137                  00000001004423f0     tuntap.obj
 0003:0000c400       $SG160138                  0000000100442400     tuntap.obj
 0003:0000c410       $SG160140                  0000000100442410     tuntap.obj
 0003:0000c420       $SG160142                  0000000100442420     tuntap.obj
 0003:0000c448       $SG160143                  0000000100442448     tuntap.obj
 0003:0000c458       $SG160144                  0000000100442458     tuntap.obj
 0003:0000c464       $SG160158                  0000000100442464     tuntap.obj
 0003:0000c470       $SG160160                  0000000100442470     tuntap.obj
 0003:0000c498       $SG160161                  0000000100442498     tuntap.obj
 0003:0000c4a8       $SG160162                  00000001004424a8     tuntap.obj
 0003:0000c4b4       $SG160165                  00000001004424b4     tuntap.obj
 0003:0000c4c0       $SG160167                  00000001004424c0     tuntap.obj
 0003:0000c4f0       $SG160168                  00000001004424f0     tuntap.obj
 0003:0000c500       $SG160169                  0000000100442500     tuntap.obj
 0003:0000c510       $SG160173                  0000000100442510     tuntap.obj
 0003:0000c540       $SG160174                  0000000100442540     tuntap.obj
 0003:0000c550       $SG160175                  0000000100442550     tuntap.obj
 0003:0000c55c       $SG160191                  000000010044255c     tuntap.obj
 0003:0000c568       $SG160193                  0000000100442568     tuntap.obj
 0003:0000c590       $SG160194                  0000000100442590     tuntap.obj
 0003:0000c5a8       $SG160195                  00000001004425a8     tuntap.obj
 0003:0000c5b8       $SG160197                  00000001004425b8     tuntap.obj
 0003:0000c5d0       $SG160198                  00000001004425d0     tuntap.obj
 0003:0000c5e8       $SG160200                  00000001004425e8     tuntap.obj
 0003:0000c610       $SG160201                  0000000100442610     tuntap.obj
 0003:0000c628       $SG160202                  0000000100442628     tuntap.obj
 0003:0000c638       $SG160204                  0000000100442638     tuntap.obj
 0003:0000c650       $SG160206                  0000000100442650     tuntap.obj
 0003:0000c678       $SG160207                  0000000100442678     tuntap.obj
 0003:0000c690       $SG160208                  0000000100442690     tuntap.obj
 0003:0000c69c       $SG160222                  000000010044269c     tuntap.obj
 0003:0000c6a8       $SG160224                  00000001004426a8     tuntap.obj
 0003:0000c6d0       $SG160225                  00000001004426d0     tuntap.obj
 0003:0000c6e8       $SG160226                  00000001004426e8     tuntap.obj
 0003:0000c6f4       $SG160229                  00000001004426f4     tuntap.obj
 0003:0000c700       $SG160231                  0000000100442700     tuntap.obj
 0003:0000c738       $SG160232                  0000000100442738     tuntap.obj
 0003:0000c750       $SG160233                  0000000100442750     tuntap.obj
 0003:0000c75c       $SG160244                  000000010044275c     tuntap.obj
 0003:0000c768       $SG160246                  0000000100442768     tuntap.obj
 0003:0000c790       $SG160247                  0000000100442790     tuntap.obj
 0003:0000c7a0       $SG160248                  00000001004427a0     tuntap.obj
 0003:0000c7ac       $SG160262                  00000001004427ac     tuntap.obj
 0003:0000c7b8       $SG160264                  00000001004427b8     tuntap.obj
 0003:0000c7e0       $SG160265                  00000001004427e0     tuntap.obj
 0003:0000c7f0       $SG160266                  00000001004427f0     tuntap.obj
 0003:0000c800       $SG160310                  0000000100442800     tuntap.obj
 0003:0000c818       $SG160311                  0000000100442818     tuntap.obj
 0003:0000c828       $SG160314                  0000000100442828     tuntap.obj
 0003:0000c840       $SG160312                  0000000100442840     tuntap.obj
 0003:0000c888       $SG160315                  0000000100442888     tuntap.obj
 0003:0000c898       $SG160353                  0000000100442898     tuntap.obj
 0003:0000c8b8       $SG160416                  00000001004428b8     tuntap.obj
 0003:0000c8d0       $SG160316                  00000001004428d0     tuntap.obj
 0003:0000c918       $SG160363                  0000000100442918     tuntap.obj
 0003:0000c928       $SG160403                  0000000100442928     tuntap.obj
 0003:0000c938       $SG160415                  0000000100442938     tuntap.obj
 0003:0000c958       $SG160417                  0000000100442958     tuntap.obj
 0003:0000c968       $SG160419                  0000000100442968     tuntap.obj
 0003:0000c988       $SG160420                  0000000100442988     tuntap.obj
 0003:0000c998       $SG160421                  0000000100442998     tuntap.obj
 0003:0000c9b0       $SG159142                  00000001004429b0     w32ctca.obj
 0003:0000c9c8       $SG159143                  00000001004429c8     w32ctca.obj
 0003:0000c9d8       $SG159145                  00000001004429d8     w32ctca.obj
 0003:0000c9ec       $SG159181                  00000001004429ec     w32ctca.obj
 0003:0000c9f0       $SG159146                  00000001004429f0     w32ctca.obj
 0003:0000ca00       $SG159148                  0000000100442a00     w32ctca.obj
 0003:0000ca14       $SG159201                  0000000100442a14     w32ctca.obj
 0003:0000ca18       $SG159149                  0000000100442a18     w32ctca.obj
 0003:0000ca28       $SG159151                  0000000100442a28     w32ctca.obj
 0003:0000ca3c       $SG159256                  0000000100442a3c     w32ctca.obj
 0003:0000ca40       $SG159152                  0000000100442a40     w32ctca.obj
 0003:0000ca50       $SG159154                  0000000100442a50     w32ctca.obj
 0003:0000ca64       $SG159270                  0000000100442a64     w32ctca.obj
 0003:0000ca68       $SG159155                  0000000100442a68     w32ctca.obj
 0003:0000ca78       $SG159157                  0000000100442a78     w32ctca.obj
 0003:0000ca90       $SG159158                  0000000100442a90     w32ctca.obj
 0003:0000caa4       $SG159275                  0000000100442aa4     w32ctca.obj
 0003:0000caa8       $SG159160                  0000000100442aa8     w32ctca.obj
 0003:0000cac8       $SG159161                  0000000100442ac8     w32ctca.obj
 0003:0000cae4       $SG159378                  0000000100442ae4     w32ctca.obj
 0003:0000cae8       $SG159163                  0000000100442ae8     w32ctca.obj
 0003:0000cb0c       $SG159383                  0000000100442b0c     w32ctca.obj
 0003:0000cb10       $SG159164                  0000000100442b10     w32ctca.obj
 0003:0000cb30       $SG159166                  0000000100442b30     w32ctca.obj
 0003:0000cb4c       $SG159388                  0000000100442b4c     w32ctca.obj
 0003:0000cb50       $SG159167                  0000000100442b50     w32ctca.obj
 0003:0000cb68       $SG159169                  0000000100442b68     w32ctca.obj
 0003:0000cb84       $SG159393                  0000000100442b84     w32ctca.obj
 0003:0000cb88       $SG159170                  0000000100442b88     w32ctca.obj
 0003:0000cba4       $SG159398                  0000000100442ba4     w32ctca.obj
 0003:0000cba8       $SG159172                  0000000100442ba8     w32ctca.obj
 0003:0000cbc8       $SG159173                  0000000100442bc8     w32ctca.obj
 0003:0000cbe4       $SG159403                  0000000100442be4     w32ctca.obj
 0003:0000cbe8       $SG159175                  0000000100442be8     w32ctca.obj
 0003:0000cc0c       $SG159408                  0000000100442c0c     w32ctca.obj
 0003:0000cc10       $SG159176                  0000000100442c10     w32ctca.obj
 0003:0000cc30       $SG159177                  0000000100442c30     w32ctca.obj
 0003:0000cc4c       $SG159413                  0000000100442c4c     w32ctca.obj
 0003:0000cc50       $SG159178                  0000000100442c50     w32ctca.obj
 0003:0000cc6c       $SG159418                  0000000100442c6c     w32ctca.obj
 0003:0000cc70       $SG159179                  0000000100442c70     w32ctca.obj
 0003:0000cc8c       $SG159423                  0000000100442c8c     w32ctca.obj
 0003:0000cc90       $SG159180                  0000000100442c90     w32ctca.obj
 0003:0000ccac       $SG159428                  0000000100442cac     w32ctca.obj
 0003:0000ccb0       $SG159182                  0000000100442cb0     w32ctca.obj
 0003:0000cce4       $SG159433                  0000000100442ce4     w32ctca.obj
 0003:0000cce8       $SG159183                  0000000100442ce8     w32ctca.obj
 0003:0000ccfc       $SG159438                  0000000100442cfc     w32ctca.obj
 0003:0000cd00       $SG159184                  0000000100442d00     w32ctca.obj
 0003:0000cd0c       $SG159443                  0000000100442d0c     w32ctca.obj
 0003:0000cd10       $SG159202                  0000000100442d10     w32ctca.obj
 0003:0000cd24       $SG159448                  0000000100442d24     w32ctca.obj
 0003:0000cd28       $SG159203                  0000000100442d28     w32ctca.obj
 0003:0000cd44       $SG159453                  0000000100442d44     w32ctca.obj
 0003:0000cd48       $SG159204                  0000000100442d48     w32ctca.obj
 0003:0000cd54       $SG159458                  0000000100442d54     w32ctca.obj
 0003:0000cd58       $SG159241                  0000000100442d58     w32ctca.obj
 0003:0000cd68       $SG159242                  0000000100442d68     w32ctca.obj
 0003:0000cd78       $SG159245                  0000000100442d78     w32ctca.obj
 0003:0000cd88       $SG159246                  0000000100442d88     w32ctca.obj
 0003:0000cd98       $SG159249                  0000000100442d98     w32ctca.obj
 0003:0000cda8       $SG159269                  0000000100442da8     w32ctca.obj
 0003:0000cdc0       $SG159247                  0000000100442dc0     w32ctca.obj
 0003:0000ce08       $SG159250                  0000000100442e08     w32ctca.obj
 0003:0000ce18       $SG159259                  0000000100442e18     w32ctca.obj
 0003:0000ce28       $SG159276                  0000000100442e28     w32ctca.obj
 0003:0000ce50       $SG159251                  0000000100442e50     w32ctca.obj
 0003:0000ce98       $SG159260                  0000000100442e98     w32ctca.obj
 0003:0000cea8       $SG159263                  0000000100442ea8     w32ctca.obj
 0003:0000ceb8       $SG159367                  0000000100442eb8     w32ctca.obj
 0003:0000ced0       $SG159261                  0000000100442ed0     w32ctca.obj
 0003:0000cf18       $SG159264                  0000000100442f18     w32ctca.obj
 0003:0000cf28       $SG159272                  0000000100442f28     w32ctca.obj
 0003:0000cf38       $SG159380                  0000000100442f38     w32ctca.obj
 0003:0000cf50       $SG159265                  0000000100442f50     w32ctca.obj
 0003:0000cf98       $SG159271                  0000000100442f98     w32ctca.obj
 0003:0000cfc4       $SG159462                  0000000100442fc4     w32ctca.obj
 0003:0000cfc8       $SG159273                  0000000100442fc8     w32ctca.obj
 0003:0000cfd4       $SG159467                  0000000100442fd4     w32ctca.obj
 0003:0000cfd8       $SG159277                  0000000100442fd8     w32ctca.obj
 0003:0000cfe8       $SG159278                  0000000100442fe8     w32ctca.obj
 0003:0000cff4       $SG159472                  0000000100442ff4     w32ctca.obj
 0003:0000cff8       $SG159379                  0000000100442ff8     w32ctca.obj
 0003:0000d014       $SG159477                  0000000100443014     w32ctca.obj
 0003:0000d018       $SG159381                  0000000100443018     w32ctca.obj
 0003:0000d024       $SG159482                  0000000100443024     w32ctca.obj
 0003:0000d028       $SG159382                  0000000100443028     w32ctca.obj
 0003:0000d04c       $SG159487                  000000010044304c     w32ctca.obj
 0003:0000d050       $SG159384                  0000000100443050     w32ctca.obj
 0003:0000d068       $SG159385                  0000000100443068     w32ctca.obj
 0003:0000d07c       $SG159492                  000000010044307c     w32ctca.obj
 0003:0000d080       $SG159386                  0000000100443080     w32ctca.obj
 0003:0000d08c       $SG159497                  000000010044308c     w32ctca.obj
 0003:0000d090       $SG159387                  0000000100443090     w32ctca.obj
 0003:0000d0b4       $SG159502                  00000001004430b4     w32ctca.obj
 0003:0000d0b8       $SG159389                  00000001004430b8     w32ctca.obj
 0003:0000d0d0       $SG159390                  00000001004430d0     w32ctca.obj
 0003:0000d0e4       $SG159507                  00000001004430e4     w32ctca.obj
 0003:0000d0e8       $SG159391                  00000001004430e8     w32ctca.obj
 0003:0000d0f4       $SG159512                  00000001004430f4     w32ctca.obj
 0003:0000d0f8       $SG159392                  00000001004430f8     w32ctca.obj
 0003:0000d11c       $SG159517                  000000010044311c     w32ctca.obj
 0003:0000d120       $SG159394                  0000000100443120     w32ctca.obj
 0003:0000d138       $SG159395                  0000000100443138     w32ctca.obj
 0003:0000d14c       $SG159522                  000000010044314c     w32ctca.obj
 0003:0000d150       $SG159396                  0000000100443150     w32ctca.obj
 0003:0000d15c       $SG159527                  000000010044315c     w32ctca.obj
 0003:0000d160       $SG159397                  0000000100443160     w32ctca.obj
 0003:0000d178       $SG159399                  0000000100443178     w32ctca.obj
 0003:0000d198       $SG159400                  0000000100443198     w32ctca.obj
 0003:0000d1b0       $SG159401                  00000001004431b0     w32ctca.obj
 0003:0000d1c0       $SG159402                  00000001004431c0     w32ctca.obj
 0003:0000d1d8       $SG159404                  00000001004431d8     w32ctca.obj
 0003:0000d1f8       $SG159405                  00000001004431f8     w32ctca.obj
 0003:0000d210       $SG159406                  0000000100443210     w32ctca.obj
 0003:0000d220       $SG159407                  0000000100443220     w32ctca.obj
 0003:0000d248       $SG159409                  0000000100443248     w32ctca.obj
 0003:0000d268       $SG159410                  0000000100443268     w32ctca.obj
 0003:0000d280       $SG159411                  0000000100443280     w32ctca.obj
 0003:0000d290       $SG159412                  0000000100443290     w32ctca.obj
 0003:0000d2a8       $SG159414                  00000001004432a8     w32ctca.obj
 0003:0000d2c8       $SG159415                  00000001004432c8     w32ctca.obj
 0003:0000d2e0       $SG159416                  00000001004432e0     w32ctca.obj
 0003:0000d2f0       $SG159417                  00000001004432f0     w32ctca.obj
 0003:0000d308       $SG159419                  0000000100443308     w32ctca.obj
 0003:0000d328       $SG159420                  0000000100443328     w32ctca.obj
 0003:0000d340       $SG159421                  0000000100443340     w32ctca.obj
 0003:0000d350       $SG159422                  0000000100443350     w32ctca.obj
 0003:0000d368       $SG159424                  0000000100443368     w32ctca.obj
 0003:0000d388       $SG159425                  0000000100443388     w32ctca.obj
 0003:0000d3a0       $SG159426                  00000001004433a0     w32ctca.obj
 0003:0000d3b0       $SG159427                  00000001004433b0     w32ctca.obj
 0003:0000d3c0       $SG159429                  00000001004433c0     w32ctca.obj
 0003:0000d3e0       $SG159430                  00000001004433e0     w32ctca.obj
 0003:0000d3f8       $SG159431                  00000001004433f8     w32ctca.obj
 0003:0000d408       $SG159432                  0000000100443408     w32ctca.obj
 0003:0000d428       $SG159434                  0000000100443428     w32ctca.obj
 0003:0000d448       $SG159435                  0000000100443448     w32ctca.obj
 0003:0000d460       $SG159436                  0000000100443460     w32ctca.obj
 0003:0000d470       $SG159437                  0000000100443470     w32ctca.obj
 0003:0000d488       $SG159439                  0000000100443488     w32ctca.obj
 0003:0000d4a8       $SG159440                  00000001004434a8     w32ctca.obj
 0003:0000d4c0       $SG159441                  00000001004434c0     w32ctca.obj
 0003:0000d4d0       $SG159442                  00000001004434d0     w32ctca.obj
 0003:0000d4e8       $SG159444                  00000001004434e8     w32ctca.obj
 0003:0000d508       $SG159445                  0000000100443508     w32ctca.obj
 0003:0000d520       $SG159446                  0000000100443520     w32ctca.obj
 0003:0000d530       $SG159447                  0000000100443530     w32ctca.obj
 0003:0000d550       $SG159449                  0000000100443550     w32ctca.obj
 0003:0000d570       $SG159450                  0000000100443570     w32ctca.obj
 0003:0000d588       $SG159451                  0000000100443588     w32ctca.obj
 0003:0000d598       $SG159452                  0000000100443598     w32ctca.obj
 0003:0000d5b0       $SG159454                  00000001004435b0     w32ctca.obj
 0003:0000d5d0       $SG159455                  00000001004435d0     w32ctca.obj
 0003:0000d5e8       $SG159456                  00000001004435e8     w32ctca.obj
 0003:0000d5f8       $SG159457                  00000001004435f8     w32ctca.obj
 0003:0000d610       $SG159459                  0000000100443610     w32ctca.obj
 0003:0000d630       $SG159460                  0000000100443630     w32ctca.obj
 0003:0000d648       $SG159461                  0000000100443648     w32ctca.obj
 0003:0000d658       $SG159463                  0000000100443658     w32ctca.obj
 0003:0000d678       $SG159464                  0000000100443678     w32ctca.obj
 0003:0000d690       $SG159465                  0000000100443690     w32ctca.obj
 0003:0000d6a0       $SG159466                  00000001004436a0     w32ctca.obj
 0003:0000d6c8       $SG159468                  00000001004436c8     w32ctca.obj
 0003:0000d6e0       $SG159469                  00000001004436e0     w32ctca.obj
 0003:0000d6f8       $SG159470                  00000001004436f8     w32ctca.obj
 0003:0000d708       $SG159471                  0000000100443708     w32ctca.obj
 0003:0000d730       $SG159473                  0000000100443730     w32ctca.obj
 0003:0000d748       $SG159474                  0000000100443748     w32ctca.obj
 0003:0000d760       $SG159475                  0000000100443760     w32ctca.obj
 0003:0000d770       $SG159476                  0000000100443770     w32ctca.obj
 0003:0000d798       $SG159478                  0000000100443798     w32ctca.obj
 0003:0000d7b0       $SG159479                  00000001004437b0     w32ctca.obj
 0003:0000d7c8       $SG159480                  00000001004437c8     w32ctca.obj
 0003:0000d7d8       $SG159481                  00000001004437d8     w32ctca.obj
 0003:0000d7f0       $SG159483                  00000001004437f0     w32ctca.obj
 0003:0000d810       $SG159484                  0000000100443810     w32ctca.obj
 0003:0000d828       $SG159485                  0000000100443828     w32ctca.obj
 0003:0000d838       $SG159486                  0000000100443838     w32ctca.obj
 0003:0000d850       $SG159488                  0000000100443850     w32ctca.obj
 0003:0000d870       $SG159489                  0000000100443870     w32ctca.obj
 0003:0000d888       $SG159490                  0000000100443888     w32ctca.obj
 0003:0000d898       $SG159491                  0000000100443898     w32ctca.obj
 0003:0000d8b0       $SG159493                  00000001004438b0     w32ctca.obj
 0003:0000d8d0       $SG159494                  00000001004438d0     w32ctca.obj
 0003:0000d8e8       $SG159495                  00000001004438e8     w32ctca.obj
 0003:0000d8f8       $SG159496                  00000001004438f8     w32ctca.obj
 0003:0000d910       $SG159498                  0000000100443910     w32ctca.obj
 0003:0000d930       $SG159499                  0000000100443930     w32ctca.obj
 0003:0000d948       $SG159500                  0000000100443948     w32ctca.obj
 0003:0000d958       $SG159501                  0000000100443958     w32ctca.obj
 0003:0000d970       $SG159503                  0000000100443970     w32ctca.obj
 0003:0000d990       $SG159504                  0000000100443990     w32ctca.obj
 0003:0000d9a8       $SG159505                  00000001004439a8     w32ctca.obj
 0003:0000d9b8       $SG159506                  00000001004439b8     w32ctca.obj
 0003:0000d9c8       $SG159508                  00000001004439c8     w32ctca.obj
 0003:0000d9e8       $SG159509                  00000001004439e8     w32ctca.obj
 0003:0000da00       $SG159510                  0000000100443a00     w32ctca.obj
 0003:0000da10       $SG159511                  0000000100443a10     w32ctca.obj
 0003:0000da30       $SG159513                  0000000100443a30     w32ctca.obj
 0003:0000da50       $SG159514                  0000000100443a50     w32ctca.obj
 0003:0000da68       $SG159515                  0000000100443a68     w32ctca.obj
 0003:0000da78       $SG159516                  0000000100443a78     w32ctca.obj
 0003:0000da90       $SG159518                  0000000100443a90     w32ctca.obj
 0003:0000dab0       $SG159519                  0000000100443ab0     w32ctca.obj
 0003:0000dac8       $SG159520                  0000000100443ac8     w32ctca.obj
 0003:0000dad8       $SG159521                  0000000100443ad8     w32ctca.obj
 0003:0000daf0       $SG159523                  0000000100443af0     w32ctca.obj
 0003:0000db10       $SG159524                  0000000100443b10     w32ctca.obj
 0003:0000db28       $SG159525                  0000000100443b28     w32ctca.obj
 0003:0000db38       $SG159526                  0000000100443b38     w32ctca.obj
 0003:0000db50       $SG159528                  0000000100443b50     w32ctca.obj
 0003:0000db70       $SG159529                  0000000100443b70     w32ctca.obj
 0003:0000db88       $SG159530                  0000000100443b88     w32ctca.obj
 0003:0000db98       $SG159092                  0000000100443b98     resolve.obj
 0003:0000dbb8       $SG159099                  0000000100443bb8     resolve.obj
 0003:0000dbf0       $SG159110                  0000000100443bf0     resolve.obj
 0003:0000dc10       $SG159115                  0000000100443c10     resolve.obj
 0003:0000dc40       $SG159117                  0000000100443c40     resolve.obj
 0003:0000dc60       $SG159127                  0000000100443c60     resolve.obj
 0003:0000dc90       $SG159129                  0000000100443c90     resolve.obj
 0003:0000dd00       TokenLock                  0000000100443d00     ctc_lcs.obj
 0003:0000dd08       TokenLockInitialized       0000000100443d08     ctc_lcs.obj
 0003:0000dd0c       $SG170274                  0000000100443d0c     ctc_lcs.obj
 0003:0000dd0d       $SG170290                  0000000100443d0d     ctc_lcs.obj
 0003:0000dd0e       $SG169324                  0000000100443d0e     ctc_ctci.obj
 0003:0000dd0f       $SG169475                  0000000100443d0f     ctc_ctci.obj
 0003:0000dd10       $SG169523                  0000000100443d10     ctc_ctci.obj
 0003:0000dd18       $SG169399                  0000000100443d18     ctcadpt.obj
 0003:0000dd19       $SG169631                  0000000100443d19     ctcadpt.obj
 0003:0000dd1a       $SG169795                  0000000100443d1a     ctcadpt.obj
 0003:0000dd1b       $SG169961                  0000000100443d1b     ctcadpt.obj
 0003:0000dd1c       $SG170307                  0000000100443d1c     ctcadpt.obj
 0003:0000dd1d       $SG170309                  0000000100443d1d     ctcadpt.obj
 0003:0000dd1e       $SG170311                  0000000100443d1e     ctcadpt.obj
 0003:0000dd1f       $SG170313                  0000000100443d1f     ctcadpt.obj
 0003:0000dd20       ?tv@?1??CTCT_Read@@9@9     0000000100443d20     ctcadpt.obj
 0003:0000dd28       $SG170359                  0000000100443d28     ctcadpt.obj
 0003:0000dd29       $SG170374                  0000000100443d29     ctcadpt.obj
 0003:0000e020       ?tt32_init_done@?1??tt32_loaddll@@9@9 0000000100444020     w32ctca.obj
 0003:0000e024       ?__proc_attached@@3HA      0000000100444024     MSVCRTD:dll_dllmain.obj
 0003:0000e030       GS_ExceptionRecord         0000000100444030     MSVCRTD:gs_report.obj
 0003:0000e0d0       GS_ContextRecord           00000001004440d0     MSVCRTD:gs_report.obj
 0003:0000e5d0       ?is_initialized_as_dll@@3_NA 00000001004445d0     MSVCRTD:utility.obj
 0003:0000e5d1       ?module_local_atexit_table_initialized@@3_NA 00000001004445d1     MSVCRTD:utility.obj
 0003:0000e5d8       ?module_local_atexit_table@@3U_onexit_table_t@@A 00000001004445d8     MSVCRTD:utility.obj
 0003:0000e5f0       ?module_local_at_quick_exit_table@@3U_onexit_table_t@@A 00000001004445f0     MSVCRTD:utility.obj
 0005:000002d0       $R000000                   00000001004462d0     hercprod.res
 0005:00000878       $R0005A8                   0000000100446878     hercprod.res
 0005:000009a0       $R0006D0                   00000001004469a0     hercprod.res
 0005:00000f08       $R000C38                   0000000100446f08     hercprod.res
 0005:00001370       $R0010A0                   0000000100447370     hercprod.res
 0005:00001658       $R001388                   0000000100447658     hercprod.res
 0005:00001f00       $R001C30                   0000000100447f00     hercprod.res
 0005:00002fa8       $R002CD8                   0000000100448fa8     hercprod.res
 0005:00003610       $R003340                   0000000100449610     hercprod.res
 0005:000044b8       $R0041E8                   000000010044a4b8     hercprod.res
 0005:00006a60       $R006790                   000000010044ca60     hercprod.res
 0005:0000ff08       $R00FC38                   0000000100455f08     hercprod.res
 0005:00013bc8       $R0138F8                   0000000100459bc8     hercprod.res
